MODULE Linux arm64 B931C7E13A7D10156A182EB099C762A10 minemaker0430.gddp_integration.android64.so
INFO CODE_ID E1C731B97D3A15106A182EB099C762A1080AD645
INFO GENERATOR mozilla/dump_syms 2.3.4
PUBLIC 4b060 0 __on_dlclose
PUBLIC 4b070 0 __emutls_unregister_key
PUBLIC 4b078 0 __on_dlclose_late
PUBLIC 4b080 0 __atexit_handler_wrapper
PUBLIC 4b094 0 atexit
PUBLIC 4b0b0 0 pthread_atfork
PUBLIC 4b0c0 0 unwind_phase2
PUBLIC 4b1f4 0 _Unwind_Resume
PUBLIC 4b278 0 unwind_phase2_forced
PUBLIC m 4b36c 0 __unw_init_local
PUBLIC m 4b414 0 __unw_get_reg
PUBLIC 4b490 0 __unw_step_stage2
PUBLIC m 4b4a4 0 __unw_get_proc_info
PUBLIC m 4b4e4 0 __unw_resume
PUBLIC 4b50c 0 libunwind::CFI_Parser<libunwind::LocalAddressSpace>::decodeFDE(libunwind::LocalAddressSpace&, unsigned long, libunwind::CFI_Parser<libunwind::LocalAddressSpace>::FDE_Info*, libunwind::CFI_Parser<libunwind::LocalAddressSpace>::CIE_Info*, bool)
PUBLIC 4b69c 0 libunwind::CFI_Parser<libunwind::LocalAddressSpace>::parseCIE(libunwind::LocalAddressSpace&, unsigned long, libunwind::CFI_Parser<libunwind::LocalAddressSpace>::CIE_Info*)
PUBLIC 4b964 0 libunwind::AbstractUnwindCursor::~AbstractUnwindCursor()
PUBLIC 4b96c 0 libunwind::UnwindCursor<libunwind::LocalAddressSpace, libunwind::Registers_arm64>::~UnwindCursor()
PUBLIC 4b974 0 libunwind::UnwindCursor<libunwind::LocalAddressSpace, libunwind::Registers_arm64>::validReg(int)
PUBLIC 4b9b8 0 libunwind::UnwindCursor<libunwind::LocalAddressSpace, libunwind::Registers_arm64>::getReg(int)
PUBLIC 4baa0 0 libunwind::UnwindCursor<libunwind::LocalAddressSpace, libunwind::Registers_arm64>::setReg(int, unsigned long)
PUBLIC 4bb88 0 libunwind::UnwindCursor<libunwind::LocalAddressSpace, libunwind::Registers_arm64>::validFloatReg(int)
PUBLIC 4bb9c 0 libunwind::UnwindCursor<libunwind::LocalAddressSpace, libunwind::Registers_arm64>::getFloatReg(int)
PUBLIC 4bbac 0 libunwind::UnwindCursor<libunwind::LocalAddressSpace, libunwind::Registers_arm64>::setFloatReg(int, double)
PUBLIC 4bbbc 0 libunwind::UnwindCursor<libunwind::LocalAddressSpace, libunwind::Registers_arm64>::step(bool)
PUBLIC 4bcac 0 libunwind::UnwindCursor<libunwind::LocalAddressSpace, libunwind::Registers_arm64>::getInfo(unw_proc_info_t*)
PUBLIC 4bcf0 0 libunwind::UnwindCursor<libunwind::LocalAddressSpace, libunwind::Registers_arm64>::jumpto()
PUBLIC 4bcfc 0 libunwind::UnwindCursor<libunwind::LocalAddressSpace, libunwind::Registers_arm64>::isSignalFrame()
PUBLIC 4bd08 0 libunwind::UnwindCursor<libunwind::LocalAddressSpace, libunwind::Registers_arm64>::getFunctionName(char*, unsigned long, unsigned long*)
PUBLIC 4bd34 0 libunwind::UnwindCursor<libunwind::LocalAddressSpace, libunwind::Registers_arm64>::setInfoBasedOnIPRegister(bool)
PUBLIC 4bfb4 0 libunwind::UnwindCursor<libunwind::LocalAddressSpace, libunwind::Registers_arm64>::getRegisterName(int)
PUBLIC 4bfc0 0 libunwind::UnwindCursor<libunwind::LocalAddressSpace, libunwind::Registers_arm64>::stepThroughSigReturn(libunwind::Registers_arm64&)
PUBLIC 4c0e0 0 libunwind::DwarfInstructions<libunwind::LocalAddressSpace, libunwind::Registers_arm64>::stepWithDwarf(libunwind::LocalAddressSpace&, unsigned long, unsigned long, libunwind::Registers_arm64&, bool&, bool)
PUBLIC 4c568 0 libunwind::CFI_Parser<libunwind::LocalAddressSpace>::parseFDEInstructions(libunwind::LocalAddressSpace&, libunwind::CFI_Parser<libunwind::LocalAddressSpace>::FDE_Info const&, libunwind::CFI_Parser<libunwind::LocalAddressSpace>::CIE_Info const&, unsigned long, int, libunwind::CFI_Parser<libunwind::LocalAddressSpace>::PrologInfo*)
PUBLIC 4d1b0 0 libunwind::DwarfInstructions<libunwind::LocalAddressSpace, libunwind::Registers_arm64>::getCFA(libunwind::LocalAddressSpace&, libunwind::CFI_Parser<libunwind::LocalAddressSpace>::PrologInfo const&, libunwind::Registers_arm64 const&)
PUBLIC 4d2e4 0 libunwind::DwarfInstructions<libunwind::LocalAddressSpace, libunwind::Registers_arm64>::getSavedRegister(libunwind::LocalAddressSpace&, libunwind::Registers_arm64 const&, unsigned long, libunwind::CFI_Parser<libunwind::LocalAddressSpace>::RegisterLocation const&)
PUBLIC 4d4f4 0 libunwind::LocalAddressSpace::getEncodedP(unsigned long&, unsigned long, unsigned char, unsigned long)
PUBLIC 4d880 0 libunwind::LocalAddressSpace::getULEB128(unsigned long&, unsigned long)
PUBLIC 4da48 0 libunwind::DwarfInstructions<libunwind::LocalAddressSpace, libunwind::Registers_arm64>::evaluateExpression(unsigned long, libunwind::LocalAddressSpace&, libunwind::Registers_arm64 const&, unsigned long)
PUBLIC 4e404 0 libunwind::UnwindCursor<libunwind::LocalAddressSpace, libunwind::Registers_arm64>::getInfoFromDwarfSection(unsigned long, libunwind::UnwindInfoSections const&, unsigned int)
PUBLIC 4e6d8 0 libunwind::findUnwindSectionsByPhdr(dl_phdr_info*, unsigned long, void*)
PUBLIC 4e80c 0 libunwind::EHHeaderParser<libunwind::LocalAddressSpace>::decodeEHHdr(libunwind::LocalAddressSpace&, unsigned long, unsigned long, libunwind::EHHeaderParser<libunwind::LocalAddressSpace>::EHHeaderInfo&)
PUBLIC 4e92c 0 libunwind::CFI_Parser<libunwind::LocalAddressSpace>::findFDE(libunwind::LocalAddressSpace&, unsigned long, unsigned long, unsigned long, unsigned long, libunwind::CFI_Parser<libunwind::LocalAddressSpace>::FDE_Info*, libunwind::CFI_Parser<libunwind::LocalAddressSpace>::CIE_Info*)
PUBLIC 4eaf4 0 libunwind::EHHeaderParser<libunwind::LocalAddressSpace>::findFDE(libunwind::LocalAddressSpace&, unsigned long, unsigned long, unsigned int, libunwind::CFI_Parser<libunwind::LocalAddressSpace>::FDE_Info*, libunwind::CFI_Parser<libunwind::LocalAddressSpace>::CIE_Info*)
PUBLIC 4ec5c 0 libunwind::EHHeaderParser<libunwind::LocalAddressSpace>::getTableEntrySize(unsigned char)
PUBLIC 4ed58 0 libunwind::Registers_arm64::getRegisterName(int)
PUBLIC 4ed88 0 __libunwind_Registers_arm64_jumpto
PUBLIC m 4ee18 0 __unw_getcontext
PUBLIC 4eec0 0 __aarch64_ldadd8_relax
PUBLIC 4eef0 0 init_have_lse_atomics
PUBLIC 4ef88 0 __init_cpu_features_constructor
PUBLIC 4f524 0 __init_cpu_features
PUBLIC 4f5b0 0 __aarch64_ldadd8_acq_rel
PUBLIC 4f5e0 0 __cxx_global_var_init
PUBLIC 4fbb8 0 geode::modifier::ModifyBase<geode::modifier::ModifyDerive<hook11<(anonymous namespace)::hook11Parent>, CreatorLayer> >::~ModifyBase()
PUBLIC 4fbd4 0 geode::modifier::ModifyDerive<hook11<(anonymous namespace)::hook11Parent>, CreatorLayer>::apply()
PUBLIC 4fee8 0 std::__ndk1::shared_ptr<geode::Hook>::~shared_ptr[abi:ne180000]()
PUBLIC 4ff38 0 geode::impl::ResultData<geode::Hook*, std::__ndk1::basic_string<char, std::__ndk1::char_traits<char>, std::__ndk1::allocator<char> > >::~ResultData()
PUBLIC 4ffac 0 std::__ndk1::vector<std::__ndk1::basic_string<char, std::__ndk1::char_traits<char>, std::__ndk1::allocator<char> >, std::__ndk1::allocator<std::__ndk1::basic_string<char, std::__ndk1::char_traits<char>, std::__ndk1::allocator<char> > > >::~vector[abi:ne180000]()
PUBLIC 50028 0 geode::modifier::ModifyBase<geode::modifier::ModifyDerive<hook11<(anonymous namespace)::hook11Parent>, CreatorLayer> >::apply()
PUBLIC 5002c 0 __clang_call_terminate
PUBLIC 5003c 0 std::__ndk1::basic_string<char, std::__ndk1::char_traits<char>, std::__ndk1::allocator<char> >::__throw_length_error[abi:ne180000]() const
PUBLIC 50050 0 std::__ndk1::__throw_length_error[abi:ne180000](char const*)
PUBLIC 500a0 0 std::length_error::length_error[abi:ne180000](char const*)
PUBLIC 500d0 0 std::__throw_bad_array_new_length([abi:ne180000], void)
PUBLIC 50104 0 std::__ndk1::__tree<std::__ndk1::__value_type<std::__ndk1::basic_string<char, std::__ndk1::char_traits<char>, std::__ndk1::allocator<char> >, std::__ndk1::shared_ptr<geode::Hook> >, std::__ndk1::__map_value_compare<std::__ndk1::basic_string<char, std::__ndk1::char_traits<char>, std::__ndk1::allocator<char> >, std::__ndk1::__value_type<std::__ndk1::basic_string<char, std::__ndk1::char_traits<char>, std::__ndk1::allocator<char> >, std::__ndk1::shared_ptr<geode::Hook> >, std::__ndk1::less<std::__ndk1::basic_string<char, std::__ndk1::char_traits<char>, std::__ndk1::allocator<char> > >, true>, std::__ndk1::allocator<std::__ndk1::__value_type<std::__ndk1::basic_string<char, std::__ndk1::char_traits<char>, std::__ndk1::allocator<char> >, std::__ndk1::shared_ptr<geode::Hook> > > >::find<std::__ndk1::basic_string<char, std::__ndk1::char_traits<char>, std::__ndk1::allocator<char> > >(std::__ndk1::basic_string<char, std::__ndk1::char_traits<char>, std::__ndk1::allocator<char> > const&)
PUBLIC 50224 0 std::__ndk1::__tree<std::__ndk1::__value_type<std::__ndk1::basic_string<char, std::__ndk1::char_traits<char>, std::__ndk1::allocator<char> >, std::__ndk1::shared_ptr<geode::Hook> >, std::__ndk1::__map_value_compare<std::__ndk1::basic_string<char, std::__ndk1::char_traits<char>, std::__ndk1::allocator<char> >, std::__ndk1::__value_type<std::__ndk1::basic_string<char, std::__ndk1::char_traits<char>, std::__ndk1::allocator<char> >, std::__ndk1::shared_ptr<geode::Hook> >, std::__ndk1::less<std::__ndk1::basic_string<char, std::__ndk1::char_traits<char>, std::__ndk1::allocator<char> > >, true>, std::__ndk1::allocator<std::__ndk1::__value_type<std::__ndk1::basic_string<char, std::__ndk1::char_traits<char>, std::__ndk1::allocator<char> >, std::__ndk1::shared_ptr<geode::Hook> > > >::__emplace_unique_key_args<std::__ndk1::basic_string<char, std::__ndk1::char_traits<char>, std::__ndk1::allocator<char> >, std::__ndk1::piecewise_construct_t const&, std::__ndk1::tuple<std::__ndk1::basic_string<char, std::__ndk1::char_traits<char>, std::__ndk1::allocator<char> > const&>, std::__ndk1::tuple<> >(std::__ndk1::basic_string<char, std::__ndk1::char_traits<char>, std::__ndk1::allocator<char> > const&, std::__ndk1::piecewise_construct_t const&, std::__ndk1::tuple<std::__ndk1::basic_string<char, std::__ndk1::char_traits<char>, std::__ndk1::allocator<char> > const&>, std::__ndk1::tuple<>)
PUBLIC 50418 0 std::__ndk1::unique_ptr<std::__ndk1::__tree_node<std::__ndk1::__value_type<std::__ndk1::basic_string<char, std::__ndk1::char_traits<char>, std::__ndk1::allocator<char> >, std::__ndk1::shared_ptr<geode::Hook> >, void*>, std::__ndk1::__tree_node_destructor<std::__ndk1::allocator<std::__ndk1::__tree_node<std::__ndk1::__value_type<std::__ndk1::basic_string<char, std::__ndk1::char_traits<char>, std::__ndk1::allocator<char> >, std::__ndk1::shared_ptr<geode::Hook> >, void*> > > >::~unique_ptr[abi:ne180000]()
PUBLIC 50494 0 std::__ndk1::basic_string<char, std::__ndk1::char_traits<char>, std::__ndk1::allocator<char> >::__init_copy_ctor_external(char const*, unsigned long)
PUBLIC 50514 0 std::__ndk1::__tree_balance_after_insert[abi:ne180000]<std::__ndk1::__tree_node_base<void*>*>(std::__ndk1::__tree_node_base<void*>*, std::__ndk1::__tree_node_base<void*>*)
PUBLIC 506c4 0 _ZN5geode15UnwrapExceptionC2IRPNS_4HookEQsr4implE18IsStringStreamableIT_EEENS_4impl5OkTagEOS5_
PUBLIC 50818 0 std::__ndk1::__throw_bad_variant_access[abi:ne180000]()
PUBLIC 5084c 0 std::__ndk1::basic_stringstream<char, std::__ndk1::char_traits<char>, std::__ndk1::allocator<char> >::basic_stringstream[abi:ne180000]()
PUBLIC m 50978 0 std::__ndk1::basic_stringstream<char, std::__ndk1::char_traits<char>, std::__ndk1::allocator<char> >::~basic_stringstream()
PUBLIC 509f8 0 geode::UnwrapException::~UnwrapException()
PUBLIC 50a1c 0 std::__ndk1::__put_character_sequence[abi:ne180000]<char, std::__ndk1::char_traits<char> >(std::__ndk1::basic_ostream<char, std::__ndk1::char_traits<char> >, std::__ndk1::basic_ostream const*, unsigned long)
PUBLIC 50bc0 0 std::__ndk1::__pad_and_output[abi:ne180000]<char, std::__ndk1::char_traits<char> >(std::__ndk1::char_traits<char>, std::__ndk1::ostreambuf_iterator const*, std::__ndk1::ostreambuf_iterator const, std::__ndk1::ostreambuf_iterator const, std::__ndk1::ios_base&, std::__ndk1::ostreambuf_iterator)
PUBLIC 50d9c 0 std::__ndk1::basic_stringbuf<char, std::__ndk1::char_traits<char>, std::__ndk1::allocator<char> >::str[abi:ne180000]() &&
PUBLIC 50f14 0 std::__ndk1::basic_stringbuf<char, std::__ndk1::char_traits<char>, std::__ndk1::allocator<char> >::__init_buf_ptrs[abi:ne180000]()
PUBLIC 5105c 0 std::__ndk1::__variant_detail::__visitation::__base::__dispatcher<(unsigned long)0>::__dispatch[abi:ne180000]<std::__ndk1::__variant_detail::__dtor<std::__ndk1::__variant_detail::__traits<std::__ndk1::monostate, std::__ndk1::basic_string<char, std::__ndk1::char_traits<char>, std::__ndk1::allocator<char> > >, (std::__ndk1::__variant_detail::_Trait)1>::__destroy[abi:ne180000]()::{lambda(auto:1&)#1}, std::__ndk1::__variant_detail::__base<(std::__ndk1::__variant_detail::__traits<std::__ndk1::monostate, std::__ndk1::basic_string<char, std::__ndk1::char_traits<char>, std::__ndk1::allocator<char> > >)1, std::__ndk1::__variant_detail::__traits, std::__ndk1::allocator<char> >&>(std::__ndk1::__variant_detail::__dtor<std::__ndk1::__variant_detail::__traits<std::__ndk1::monostate, std::__ndk1::basic_string<char, std::__ndk1::char_traits<char>, std::__ndk1::allocator<char> > >, (std::__ndk1::__variant_detail::_Trait)1>, std::__ndk1::__variant_detail::__base<(std::__ndk1::__variant_detail::__traits<std::__ndk1::monostate, std::__ndk1::basic_string<char, std::__ndk1::char_traits<char>, std::__ndk1::allocator<char> > >)1, std::__ndk1::__variant_detail::__traits, std::__ndk1::allocator<char> >&)
PUBLIC 51060 0 std::__ndk1::__variant_detail::__visitation::__base::__dispatcher<(unsigned long)1>::__dispatch[abi:ne180000]<std::__ndk1::__variant_detail::__dtor<std::__ndk1::__variant_detail::__traits<std::__ndk1::monostate, std::__ndk1::basic_string<char, std::__ndk1::char_traits<char>, std::__ndk1::allocator<char> > >, (std::__ndk1::__variant_detail::_Trait)1>::__destroy[abi:ne180000]()::{lambda(auto:1&)#1}, std::__ndk1::__variant_detail::__base<(std::__ndk1::__variant_detail::__traits<std::__ndk1::monostate, std::__ndk1::basic_string<char, std::__ndk1::char_traits<char>, std::__ndk1::allocator<char> > >)1, std::__ndk1::__variant_detail::__traits, std::__ndk1::allocator<char> >&>(std::__ndk1::__variant_detail::__dtor<std::__ndk1::__variant_detail::__traits<std::__ndk1::monostate, std::__ndk1::basic_string<char, std::__ndk1::char_traits<char>, std::__ndk1::allocator<char> > >, (std::__ndk1::__variant_detail::_Trait)1>, std::__ndk1::__variant_detail::__base<(std::__ndk1::__variant_detail::__traits<std::__ndk1::monostate, std::__ndk1::basic_string<char, std::__ndk1::char_traits<char>, std::__ndk1::allocator<char> > >)1, std::__ndk1::__variant_detail::__traits, std::__ndk1::allocator<char> >&)
PUBLIC 51074 0 std::__ndk1::vector<std::__ndk1::basic_string<char, std::__ndk1::char_traits<char>, std::__ndk1::allocator<char> >, std::__ndk1::allocator<std::__ndk1::basic_string<char, std::__ndk1::char_traits<char>, std::__ndk1::allocator<char> > > >::__push_back_slow_path<std::__ndk1::basic_string<char, std::__ndk1::char_traits<char>, std::__ndk1::allocator<char> > const&>(std::__ndk1::basic_string<char, std::__ndk1::char_traits<char>, std::__ndk1::allocator<char> > const&)
PUBLIC 5129c 0 std::__ndk1::__split_buffer<std::__ndk1::basic_string<char, std::__ndk1::char_traits<char>, std::__ndk1::allocator<char> >, std::__ndk1::allocator<std::__ndk1::basic_string<char, std::__ndk1::char_traits<char>, std::__ndk1::allocator<char> > >&>::~__split_buffer()
PUBLIC 51304 0 std::__ndk1::vector<std::__ndk1::basic_string<char, std::__ndk1::char_traits<char>, std::__ndk1::allocator<char> >, std::__ndk1::allocator<std::__ndk1::basic_string<char, std::__ndk1::char_traits<char>, std::__ndk1::allocator<char> > > >::__throw_length_error[abi:ne180000]() const
PUBLIC 51318 0 std::__ndk1::__variant_detail::__visitation::__base::__dispatcher<(unsigned long)0>::__dispatch[abi:ne180000]<std::__ndk1::__variant_detail::__dtor<std::__ndk1::__variant_detail::__traits<geode::Hook*, std::__ndk1::basic_string<char, std::__ndk1::char_traits<char>, std::__ndk1::allocator<char> > >, (std::__ndk1::__variant_detail::_Trait)1>::__destroy[abi:ne180000]()::{lambda(auto:1&)#1}, std::__ndk1::__variant_detail::__base<(std::__ndk1::__variant_detail::__traits<geode::Hook*, std::__ndk1::basic_string<char, std::__ndk1::char_traits<char>, std::__ndk1::allocator<char> > >)1, geode::Hook, std::__ndk1::allocator<char> >&>(std::__ndk1::__variant_detail::__dtor<std::__ndk1::__variant_detail::__traits<geode::Hook*, std::__ndk1::basic_string<char, std::__ndk1::char_traits<char>, std::__ndk1::allocator<char> > >, (std::__ndk1::__variant_detail::_Trait)1>, std::__ndk1::__variant_detail::__base<(std::__ndk1::__variant_detail::__traits<geode::Hook*, std::__ndk1::basic_string<char, std::__ndk1::char_traits<char>, std::__ndk1::allocator<char> > >)1, geode::Hook, std::__ndk1::allocator<char> >&)
PUBLIC 5131c 0 std::__ndk1::__variant_detail::__visitation::__base::__dispatcher<(unsigned long)1>::__dispatch[abi:ne180000]<std::__ndk1::__variant_detail::__dtor<std::__ndk1::__variant_detail::__traits<geode::Hook*, std::__ndk1::basic_string<char, std::__ndk1::char_traits<char>, std::__ndk1::allocator<char> > >, (std::__ndk1::__variant_detail::_Trait)1>::__destroy[abi:ne180000]()::{lambda(auto:1&)#1}, std::__ndk1::__variant_detail::__base<(std::__ndk1::__variant_detail::__traits<geode::Hook*, std::__ndk1::basic_string<char, std::__ndk1::char_traits<char>, std::__ndk1::allocator<char> > >)1, geode::Hook, std::__ndk1::allocator<char> >&>(std::__ndk1::__variant_detail::__dtor<std::__ndk1::__variant_detail::__traits<geode::Hook*, std::__ndk1::basic_string<char, std::__ndk1::char_traits<char>, std::__ndk1::allocator<char> > >, (std::__ndk1::__variant_detail::_Trait)1>, std::__ndk1::__variant_detail::__base<(std::__ndk1::__variant_detail::__traits<geode::Hook*, std::__ndk1::basic_string<char, std::__ndk1::char_traits<char>, std::__ndk1::allocator<char> > >)1, geode::Hook, std::__ndk1::allocator<char> >&)
PUBLIC 51330 0 std::__ndk1::__tree<std::__ndk1::__value_type<std::__ndk1::basic_string<char, std::__ndk1::char_traits<char>, std::__ndk1::allocator<char> >, std::__ndk1::shared_ptr<geode::Hook> >, std::__ndk1::__map_value_compare<std::__ndk1::basic_string<char, std::__ndk1::char_traits<char>, std::__ndk1::allocator<char> >, std::__ndk1::__value_type<std::__ndk1::basic_string<char, std::__ndk1::char_traits<char>, std::__ndk1::allocator<char> >, std::__ndk1::shared_ptr<geode::Hook> >, std::__ndk1::less<std::__ndk1::basic_string<char, std::__ndk1::char_traits<char>, std::__ndk1::allocator<char> > >, true>, std::__ndk1::allocator<std::__ndk1::__value_type<std::__ndk1::basic_string<char, std::__ndk1::char_traits<char>, std::__ndk1::allocator<char> >, std::__ndk1::shared_ptr<geode::Hook> > > >::erase(std::__ndk1::__tree_const_iterator<std::__ndk1::__value_type<std::__ndk1::basic_string<char, std::__ndk1::char_traits<char>, std::__ndk1::allocator<char> >, std::__ndk1::shared_ptr<geode::Hook> >, std::__ndk1::__tree_node<std::__ndk1::__value_type<std::__ndk1::basic_string<char, std::__ndk1::char_traits<char>, std::__ndk1::allocator<char> >, std::__ndk1::shared_ptr<geode::Hook> >, void*>*, long>)
PUBLIC 51404 0 std::__ndk1::__tree_remove[abi:ne180000]<std::__ndk1::__tree_node_base<void*>*>(std::__ndk1::__tree_node_base<void*>*, std::__ndk1::__tree_node_base<void*>*)
PUBLIC 517cc 0 std::__ndk1::__tree<std::__ndk1::__value_type<std::__ndk1::basic_string<char, std::__ndk1::char_traits<char>, std::__ndk1::allocator<char> >, std::__ndk1::shared_ptr<geode::Hook> >, std::__ndk1::__map_value_compare<std::__ndk1::basic_string<char, std::__ndk1::char_traits<char>, std::__ndk1::allocator<char> >, std::__ndk1::__value_type<std::__ndk1::basic_string<char, std::__ndk1::char_traits<char>, std::__ndk1::allocator<char> >, std::__ndk1::shared_ptr<geode::Hook> >, std::__ndk1::less<std::__ndk1::basic_string<char, std::__ndk1::char_traits<char>, std::__ndk1::allocator<char> > >, true>, std::__ndk1::allocator<std::__ndk1::__value_type<std::__ndk1::basic_string<char, std::__ndk1::char_traits<char>, std::__ndk1::allocator<char> >, std::__ndk1::shared_ptr<geode::Hook> > > >::destroy(std::__ndk1::__tree_node<std::__ndk1::__value_type<std::__ndk1::basic_string<char, std::__ndk1::char_traits<char>, std::__ndk1::allocator<char> >, std::__ndk1::shared_ptr<geode::Hook> >, void*>*)
PUBLIC 51858 0 geode::modifier::AsStaticFunction_init<hook11<(anonymous namespace)::hook11Parent>, bool (hook11<(anonymous namespace)::hook11Parent>::*)()>::Impl<bool (hook11<(anonymous namespace)::hook11Parent>::*)()>::function(hook11<(anonymous namespace)::hook11Parent>*)
PUBLIC 52628 0 geode::addresser::Addresser::addressOfVirtual<bool, CreatorLayer, >(bool (CreatorLayer::*)())
PUBLIC 526d0 0 CreatorLayer::CreatorLayer(geode::ZeroConstructorType)
PUBLIC 52768 0 std::__ndk1::shared_ptr<tulip::hook::CallingConvention>::~shared_ptr[abi:ne180000]()
PUBLIC 527b8 0 tulip::hook::HandlerMetadata::~HandlerMetadata()
PUBLIC 5281c 0 geode::Mod::getSavedValue<int>(std::__ndk1::basic_string_view<char, std::__ndk1::char_traits<char> >, int const&)
PUBLIC 529f8 0 geode::Mod::getSettingValue<bool>(std::__ndk1::basic_string_view<char, std::__ndk1::char_traits<char> >) const
PUBLIC 52b2c 0 geode::impl::ResultData<matjson::Value&, std::__ndk1::basic_string<char, std::__ndk1::char_traits<char>, std::__ndk1::allocator<char> > >::~ResultData()
PUBLIC 52ba0 0 matjson::Value::as<int>() const
PUBLIC 52ca4 0 std::__ndk1::__variant_detail::__visitation::__base::__dispatcher<(unsigned long)0>::__dispatch[abi:ne180000]<std::__ndk1::__variant_detail::__dtor<std::__ndk1::__variant_detail::__traits<long, std::__ndk1::basic_string<char, std::__ndk1::char_traits<char>, std::__ndk1::allocator<char> > >, (std::__ndk1::__variant_detail::_Trait)1>::__destroy[abi:ne180000]()::{lambda(auto:1&)#1}, std::__ndk1::__variant_detail::__base<(std::__ndk1::__variant_detail::__traits<long, std::__ndk1::basic_string<char, std::__ndk1::char_traits<char>, std::__ndk1::allocator<char> > >)1, long, std::__ndk1::allocator<char> >&>(std::__ndk1::__variant_detail::__dtor<std::__ndk1::__variant_detail::__traits<long, std::__ndk1::basic_string<char, std::__ndk1::char_traits<char>, std::__ndk1::allocator<char> > >, (std::__ndk1::__variant_detail::_Trait)1>, std::__ndk1::__variant_detail::__base<(std::__ndk1::__variant_detail::__traits<long, std::__ndk1::basic_string<char, std::__ndk1::char_traits<char>, std::__ndk1::allocator<char> > >)1, long, std::__ndk1::allocator<char> >&)
PUBLIC 52ca8 0 std::__ndk1::__variant_detail::__visitation::__base::__dispatcher<(unsigned long)1>::__dispatch[abi:ne180000]<std::__ndk1::__variant_detail::__dtor<std::__ndk1::__variant_detail::__traits<long, std::__ndk1::basic_string<char, std::__ndk1::char_traits<char>, std::__ndk1::allocator<char> > >, (std::__ndk1::__variant_detail::_Trait)1>::__destroy[abi:ne180000]()::{lambda(auto:1&)#1}, std::__ndk1::__variant_detail::__base<(std::__ndk1::__variant_detail::__traits<long, std::__ndk1::basic_string<char, std::__ndk1::char_traits<char>, std::__ndk1::allocator<char> > >)1, long, std::__ndk1::allocator<char> >&>(std::__ndk1::__variant_detail::__dtor<std::__ndk1::__variant_detail::__traits<long, std::__ndk1::basic_string<char, std::__ndk1::char_traits<char>, std::__ndk1::allocator<char> > >, (std::__ndk1::__variant_detail::_Trait)1>, std::__ndk1::__variant_detail::__base<(std::__ndk1::__variant_detail::__traits<long, std::__ndk1::basic_string<char, std::__ndk1::char_traits<char>, std::__ndk1::allocator<char> > >)1, long, std::__ndk1::allocator<char> >&)
PUBLIC 52cbc 0 std::__ndk1::__variant_detail::__visitation::__base::__dispatcher<(unsigned long)0>::__dispatch[abi:ne180000]<std::__ndk1::__variant_detail::__dtor<std::__ndk1::__variant_detail::__traits<std::__ndk1::reference_wrapper<matjson::Value>, std::__ndk1::basic_string<char, std::__ndk1::char_traits<char>, std::__ndk1::allocator<char> > >, (std::__ndk1::__variant_detail::_Trait)1>::__destroy[abi:ne180000]()::{lambda(auto:1&)#1}, std::__ndk1::__variant_detail::__base<(std::__ndk1::__variant_detail::__traits<std::__ndk1::reference_wrapper<matjson::Value>, std::__ndk1::basic_string<char, std::__ndk1::char_traits<char>, std::__ndk1::allocator<char> > >)1, matjson::Value, std::__ndk1::allocator<char> >&>(std::__ndk1::__variant_detail::__dtor<std::__ndk1::__variant_detail::__traits<std::__ndk1::reference_wrapper<matjson::Value>, std::__ndk1::basic_string<char, std::__ndk1::char_traits<char>, std::__ndk1::allocator<char> > >, (std::__ndk1::__variant_detail::_Trait)1>, std::__ndk1::__variant_detail::__base<(std::__ndk1::__variant_detail::__traits<std::__ndk1::reference_wrapper<matjson::Value>, std::__ndk1::basic_string<char, std::__ndk1::char_traits<char>, std::__ndk1::allocator<char> > >)1, matjson::Value, std::__ndk1::allocator<char> >&)
PUBLIC 52cc0 0 std::__ndk1::__variant_detail::__visitation::__base::__dispatcher<(unsigned long)1>::__dispatch[abi:ne180000]<std::__ndk1::__variant_detail::__dtor<std::__ndk1::__variant_detail::__traits<std::__ndk1::reference_wrapper<matjson::Value>, std::__ndk1::basic_string<char, std::__ndk1::char_traits<char>, std::__ndk1::allocator<char> > >, (std::__ndk1::__variant_detail::_Trait)1>::__destroy[abi:ne180000]()::{lambda(auto:1&)#1}, std::__ndk1::__variant_detail::__base<(std::__ndk1::__variant_detail::__traits<std::__ndk1::reference_wrapper<matjson::Value>, std::__ndk1::basic_string<char, std::__ndk1::char_traits<char>, std::__ndk1::allocator<char> > >)1, matjson::Value, std::__ndk1::allocator<char> >&>(std::__ndk1::__variant_detail::__dtor<std::__ndk1::__variant_detail::__traits<std::__ndk1::reference_wrapper<matjson::Value>, std::__ndk1::basic_string<char, std::__ndk1::char_traits<char>, std::__ndk1::allocator<char> > >, (std::__ndk1::__variant_detail::_Trait)1>, std::__ndk1::__variant_detail::__base<(std::__ndk1::__variant_detail::__traits<std::__ndk1::reference_wrapper<matjson::Value>, std::__ndk1::basic_string<char, std::__ndk1::char_traits<char>, std::__ndk1::allocator<char> > >)1, matjson::Value, std::__ndk1::allocator<char> >&)
PUBLIC 52cd4 0 std::__ndk1::__variant_detail::__visitation::__base::__dispatcher<(unsigned long)0>::__dispatch[abi:ne180000]<std::__ndk1::__variant_detail::__dtor<std::__ndk1::__variant_detail::__traits<int, std::__ndk1::basic_string<char, std::__ndk1::char_traits<char>, std::__ndk1::allocator<char> > >, (std::__ndk1::__variant_detail::_Trait)1>::__destroy[abi:ne180000]()::{lambda(auto:1&)#1}, std::__ndk1::__variant_detail::__base<(std::__ndk1::__variant_detail::__traits<int, std::__ndk1::basic_string<char, std::__ndk1::char_traits<char>, std::__ndk1::allocator<char> > >)1, int, std::__ndk1::allocator<char> >&>(std::__ndk1::__variant_detail::__dtor<std::__ndk1::__variant_detail::__traits<int, std::__ndk1::basic_string<char, std::__ndk1::char_traits<char>, std::__ndk1::allocator<char> > >, (std::__ndk1::__variant_detail::_Trait)1>, std::__ndk1::__variant_detail::__base<(std::__ndk1::__variant_detail::__traits<int, std::__ndk1::basic_string<char, std::__ndk1::char_traits<char>, std::__ndk1::allocator<char> > >)1, int, std::__ndk1::allocator<char> >&)
PUBLIC 52cd8 0 std::__ndk1::__variant_detail::__visitation::__base::__dispatcher<(unsigned long)1>::__dispatch[abi:ne180000]<std::__ndk1::__variant_detail::__dtor<std::__ndk1::__variant_detail::__traits<int, std::__ndk1::basic_string<char, std::__ndk1::char_traits<char>, std::__ndk1::allocator<char> > >, (std::__ndk1::__variant_detail::_Trait)1>::__destroy[abi:ne180000]()::{lambda(auto:1&)#1}, std::__ndk1::__variant_detail::__base<(std::__ndk1::__variant_detail::__traits<int, std::__ndk1::basic_string<char, std::__ndk1::char_traits<char>, std::__ndk1::allocator<char> > >)1, int, std::__ndk1::allocator<char> >&>(std::__ndk1::__variant_detail::__dtor<std::__ndk1::__variant_detail::__traits<int, std::__ndk1::basic_string<char, std::__ndk1::char_traits<char>, std::__ndk1::allocator<char> > >, (std::__ndk1::__variant_detail::_Trait)1>, std::__ndk1::__variant_detail::__base<(std::__ndk1::__variant_detail::__traits<int, std::__ndk1::basic_string<char, std::__ndk1::char_traits<char>, std::__ndk1::allocator<char> > >)1, int, std::__ndk1::allocator<char> >&)
PUBLIC 52cec 0 geode::Mod::getSavedValue<bool>(std::__ndk1::basic_string_view<char, std::__ndk1::char_traits<char> >)
PUBLIC 52e7c 0 std::__ndk1::__variant_detail::__visitation::__base::__dispatcher<(unsigned long)0>::__dispatch[abi:ne180000]<std::__ndk1::__variant_detail::__dtor<std::__ndk1::__variant_detail::__traits<bool, std::__ndk1::basic_string<char, std::__ndk1::char_traits<char>, std::__ndk1::allocator<char> > >, (std::__ndk1::__variant_detail::_Trait)1>::__destroy[abi:ne180000]()::{lambda(auto:1&)#1}, std::__ndk1::__variant_detail::__base<(std::__ndk1::__variant_detail::__traits<bool, std::__ndk1::basic_string<char, std::__ndk1::char_traits<char>, std::__ndk1::allocator<char> > >)1, bool, std::__ndk1::allocator<char> >&>(std::__ndk1::__variant_detail::__dtor<std::__ndk1::__variant_detail::__traits<bool, std::__ndk1::basic_string<char, std::__ndk1::char_traits<char>, std::__ndk1::allocator<char> > >, (std::__ndk1::__variant_detail::_Trait)1>, std::__ndk1::__variant_detail::__base<(std::__ndk1::__variant_detail::__traits<bool, std::__ndk1::basic_string<char, std::__ndk1::char_traits<char>, std::__ndk1::allocator<char> > >)1, bool, std::__ndk1::allocator<char> >&)
PUBLIC 52e80 0 std::__ndk1::__variant_detail::__visitation::__base::__dispatcher<(unsigned long)1>::__dispatch[abi:ne180000]<std::__ndk1::__variant_detail::__dtor<std::__ndk1::__variant_detail::__traits<bool, std::__ndk1::basic_string<char, std::__ndk1::char_traits<char>, std::__ndk1::allocator<char> > >, (std::__ndk1::__variant_detail::_Trait)1>::__destroy[abi:ne180000]()::{lambda(auto:1&)#1}, std::__ndk1::__variant_detail::__base<(std::__ndk1::__variant_detail::__traits<bool, std::__ndk1::basic_string<char, std::__ndk1::char_traits<char>, std::__ndk1::allocator<char> > >)1, bool, std::__ndk1::allocator<char> >&>(std::__ndk1::__variant_detail::__dtor<std::__ndk1::__variant_detail::__traits<bool, std::__ndk1::basic_string<char, std::__ndk1::char_traits<char>, std::__ndk1::allocator<char> > >, (std::__ndk1::__variant_detail::_Trait)1>, std::__ndk1::__variant_detail::__base<(std::__ndk1::__variant_detail::__traits<bool, std::__ndk1::basic_string<char, std::__ndk1::char_traits<char>, std::__ndk1::allocator<char> > >)1, bool, std::__ndk1::allocator<char> >&)
PUBLIC 52e94 0 geode::cast::traverseTypeinfoFor(void*, geode::cast::ClassTypeinfoType const*, char const*)
PUBLIC 52f98 0 std::__ndk1::__tree<std::__ndk1::__value_type<std::__ndk1::basic_string<char, std::__ndk1::char_traits<char>, std::__ndk1::allocator<char> >, std::__ndk1::shared_ptr<geode::Hook> >, std::__ndk1::__map_value_compare<std::__ndk1::basic_string<char, std::__ndk1::char_traits<char>, std::__ndk1::allocator<char> >, std::__ndk1::__value_type<std::__ndk1::basic_string<char, std::__ndk1::char_traits<char>, std::__ndk1::allocator<char> >, std::__ndk1::shared_ptr<geode::Hook> >, std::__ndk1::less<std::__ndk1::basic_string<char, std::__ndk1::char_traits<char>, std::__ndk1::allocator<char> > >, true>, std::__ndk1::allocator<std::__ndk1::__value_type<std::__ndk1::basic_string<char, std::__ndk1::char_traits<char>, std::__ndk1::allocator<char> >, std::__ndk1::shared_ptr<geode::Hook> > > >::__emplace_unique_key_args<std::__ndk1::basic_string<char, std::__ndk1::char_traits<char>, std::__ndk1::allocator<char> >, std::__ndk1::piecewise_construct_t const&, std::__ndk1::tuple<std::__ndk1::basic_string<char, std::__ndk1::char_traits<char>, std::__ndk1::allocator<char> >&&>, std::__ndk1::tuple<> >(std::__ndk1::basic_string<char, std::__ndk1::char_traits<char>, std::__ndk1::allocator<char> > const&, std::__ndk1::piecewise_construct_t const&, std::__ndk1::tuple<std::__ndk1::basic_string<char, std::__ndk1::char_traits<char>, std::__ndk1::allocator<char> >&&>, std::__ndk1::tuple<>)
PUBLIC 53110 0 std::__ndk1::basic_string<char, std::__ndk1::char_traits<char>, std::__ndk1::allocator<char> >::basic_string[abi:ne180000]<0>()
PUBLIC 531ac 0 std::__ndk1::vector<std::__ndk1::basic_string<char, std::__ndk1::char_traits<char>, std::__ndk1::allocator<char> >, std::__ndk1::allocator<std::__ndk1::basic_string<char, std::__ndk1::char_traits<char>, std::__ndk1::allocator<char> > > >::vector[abi:ne180000](std::initializer_list<std::__ndk1::basic_string<char, std::__ndk1::char_traits<char>, std::__ndk1::allocator<char> > >)
PUBLIC 53304 0 std::__ndk1::vector<cocos2d::CCPoint, std::__ndk1::allocator<cocos2d::CCPoint> >::~vector[abi:ne180000]()
PUBLIC 5331c 0 std::__ndk1::vector<cocos2d::_ccColor3B, std::__ndk1::allocator<cocos2d::_ccColor3B> >::~vector[abi:ne180000]()
PUBLIC 53334 0 __cxx_global_var_init.12
PUBLIC 5382c 0 geode::modifier::ModifyBase<geode::modifier::ModifyDerive<DemonProgression, LevelInfoLayer> >::~ModifyBase()
PUBLIC 53848 0 std::__ndk1::__exception_guard_exceptions<std::__ndk1::vector<std::__ndk1::basic_string<char, std::__ndk1::char_traits<char>, std::__ndk1::allocator<char> >, std::__ndk1::allocator<std::__ndk1::basic_string<char, std::__ndk1::char_traits<char>, std::__ndk1::allocator<char> > > >::__destroy_vector>::~__exception_guard_exceptions[abi:ne180000]()
PUBLIC 538d4 0 std::__ndk1::__exception_guard_exceptions<std::__ndk1::_AllocatorDestroyRangeReverse<std::__ndk1::allocator<std::__ndk1::basic_string<char, std::__ndk1::char_traits<char>, std::__ndk1::allocator<char> > >, std::__ndk1::basic_string<char, std::__ndk1::char_traits<char>, std::__ndk1::allocator<char> >*> >::~__exception_guard_exceptions[abi:ne180000]()
PUBLIC 53934 0 geode::modifier::ModifyDerive<DemonProgression, LevelInfoLayer>::apply()
PUBLIC 541d0 0 geode::Mod::get<void>()
PUBLIC 5420c 0 geode::modifier::ModifyBase<geode::modifier::ModifyDerive<DemonProgression, LevelInfoLayer> >::apply()
PUBLIC 54210 0 geode::modifier::ModifyBase<geode::modifier::ModifyDerive<DemonProgression, LevelInfoLayer> >::setHookPriority(std::__ndk1::basic_string_view<char, std::__ndk1::char_traits<char> >, int)
PUBLIC 54458 0 geode::impl::ResultData<void, std::__ndk1::basic_string<char, std::__ndk1::char_traits<char>, std::__ndk1::allocator<char> > >::~ResultData()
PUBLIC 544cc 0 _ZN5geode15UnwrapExceptionC2IRNSt6__ndk112basic_stringIcNS2_11char_traitsIcEENS2_9allocatorIcEEEEQsr4implE18IsStringStreamableIT_EEENS_4impl6ErrTagEOSA_
PUBLIC 54634 0 geode::modifier::AsStaticFunction_init<DemonProgression, bool (DemonProgression::*)(GJGameLevel*, bool)>::Impl<bool (DemonProgression::*)(GJGameLevel*, bool)>::function(DemonProgression*, GJGameLevel*, bool)
PUBLIC 54638 0 geode::modifier::AsStaticFunction_onBack<DemonProgression, void (DemonProgression::*)(cocos2d::CCObject*)>::Impl<void (DemonProgression::*)(cocos2d::CCObject*)>::function(DemonProgression*, cocos2d::CCObject*)
PUBLIC 54974 0 geode::Hook::create<void (*)(DemonProgression*)>(void*, void (*)(DemonProgression*), std::__ndk1::basic_string<char, std::__ndk1::char_traits<char>, std::__ndk1::allocator<char> > const&, tulip::hook::TulipConvention, tulip::hook::HookMetadata const&)
PUBLIC 54aa8 0 geode::modifier::AsStaticFunction_updateLabelValues<DemonProgression, void (DemonProgression::*)()>::Impl<void (DemonProgression::*)()>::function(DemonProgression*)
PUBLIC 55318 0 std::__ndk1::vector<tulip::hook::AbstractType, std::__ndk1::allocator<tulip::hook::AbstractType> >::__throw_length_error[abi:ne180000]() const
PUBLIC 5532c 0 DemonProgression::init(GJGameLevel*, bool)
PUBLIC 5821c 0 geode::Mod::getSavedValue<matjson::Value>(std::__ndk1::basic_string_view<char, std::__ndk1::char_traits<char> >)
PUBLIC 583ec 0 geode::log::info<>(fmt::v11::basic_format_string<char, fmt::v11::type_identity<std::__ndk1::conditional<IsWrappedCocos<>, decltype ((wrapCocosObj<>)((std::declval<>)())), >::type>::type>, &&)
PUBLIC 58464 0 std::__ndk1::vector<matjson::Value, std::__ndk1::allocator<matjson::Value> >::~vector[abi:ne180000]()
PUBLIC 584cc 0 geode::impl::ResultData<std::__ndk1::vector<int, std::__ndk1::allocator<int> >, std::__ndk1::basic_string<char, std::__ndk1::char_traits<char>, std::__ndk1::allocator<char> > >::~ResultData()
PUBLIC 58540 0 geode::log::info<bool>(fmt::v11::basic_format_string<char, fmt::v11::type_identity<std::__ndk1::conditional<IsWrappedCocos<bool>, decltype ((wrapCocosObj<bool>)((std::declval<bool>)())), bool>::type>::type>, bool&&)
PUBLIC 585cc 0 geode::cast::typeinfo_cast<cocos2d::CCSprite*, cocos2d::CCNode*>(cocos2d::CCNode*)
PUBLIC 585f8 0 geode::Mod::getSavedValue<std::__ndk1::basic_string<char, std::__ndk1::char_traits<char>, std::__ndk1::allocator<char> > >(std::__ndk1::basic_string_view<char, std::__ndk1::char_traits<char> >, std::__ndk1::basic_string<char, std::__ndk1::char_traits<char>, std::__ndk1::allocator<char> > const&)
PUBLIC 5889c 0 std::__ndk1::operator==[abi:ne180000]<char, std::__ndk1::char_traits<char>, std::__ndk1::allocator<char> >(std::__ndk1::basic_string<char, std::__ndk1::char_traits<char>, std::__ndk1::allocator<char> > const&, std::__ndk1::basic_string const*)
PUBLIC 5891c 0 geode::impl::ResultData<std::__ndk1::basic_string<char, std::__ndk1::char_traits<char>, std::__ndk1::allocator<char> >, std::__ndk1::basic_string<char, std::__ndk1::char_traits<char>, std::__ndk1::allocator<char> > >::~ResultData()
PUBLIC 58990 0 geode::Mod::getSavedValue<ListSaveFormat>(std::__ndk1::basic_string_view<char, std::__ndk1::char_traits<char> >)
PUBLIC 58b14 0 geode::cast::typeinfo_cast<GJDifficultySprite*, cocos2d::CCNode*>(cocos2d::CCNode*)
PUBLIC 58b40 0 geode::Mod::getSavedValue<matjson::Value>(std::__ndk1::basic_string_view<char, std::__ndk1::char_traits<char> >, matjson::Value const&)
PUBLIC 58d60 0 matjson::makeObject(std::initializer_list<std::__ndk1::pair<std::__ndk1::basic_string<char, std::__ndk1::char_traits<char>, std::__ndk1::allocator<char> >, matjson::Value> >)
PUBLIC 58f14 0 _ZNSt6__ndk14pairINS_12basic_stringIcNS_11char_traitsIcEENS_9allocatorIcEEEEN7matjson5ValueEEC2B8ne180000IRA13_KcRA8_SB_TnNS_9enable_ifIXclsr10_CheckArgsE17__enable_implicitIT_T0_EEEiE4typeELi0EEEOSH_OSI_
PUBLIC 58fd8 0 _ZNSt6__ndk14pairINS_12basic_stringIcNS_11char_traitsIcEENS_9allocatorIcEEEEN7matjson5ValueEEC2B8ne180000IRA12_KcRA40_SB_TnNS_9enable_ifIXclsr10_CheckArgsE17__enable_implicitIT_T0_EEEiE4typeELi0EEEOSH_OSI_
PUBLIC 5909c 0 _ZNSt6__ndk14pairINS_12basic_stringIcNS_11char_traitsIcEENS_9allocatorIcEEEEN7matjson5ValueEEC2B8ne180000IRA7_KcRA17_SB_TnNS_9enable_ifIXclsr10_CheckArgsE17__enable_implicitIT_T0_EEEiE4typeELi0EEEOSH_OSI_
PUBLIC 59160 0 std::__ndk1::pair<std::__ndk1::basic_string<char, std::__ndk1::char_traits<char>, std::__ndk1::allocator<char> >, matjson::Value>::~pair()
PUBLIC 5919c 0 geode::impl::ResultData<int, std::__ndk1::basic_string<char, std::__ndk1::char_traits<char>, std::__ndk1::allocator<char> > >::~ResultData()
PUBLIC 59210 0 std::__ndk1::vector<std::__ndk1::basic_string<char, std::__ndk1::char_traits<char>, std::__ndk1::allocator<char> >, std::__ndk1::allocator<std::__ndk1::basic_string<char, std::__ndk1::char_traits<char>, std::__ndk1::allocator<char> > > >::operator=[abi:ne180000](std::__ndk1::vector<std::__ndk1::basic_string<char, std::__ndk1::char_traits<char>, std::__ndk1::allocator<char> >, std::__ndk1::allocator<std::__ndk1::basic_string<char, std::__ndk1::char_traits<char>, std::__ndk1::allocator<char> > > >&&)
PUBLIC 592a8 0 geode::impl::ResultData<std::__ndk1::vector<std::__ndk1::basic_string<char, std::__ndk1::char_traits<char>, std::__ndk1::allocator<char> >, std::__ndk1::allocator<std::__ndk1::basic_string<char, std::__ndk1::char_traits<char>, std::__ndk1::allocator<char> > > >, std::__ndk1::basic_string<char, std::__ndk1::char_traits<char>, std::__ndk1::allocator<char> > >::~ResultData()
PUBLIC 5931c 0 geode::Mod::getSavedValue<std::__ndk1::vector<int, std::__ndk1::allocator<int> > >(std::__ndk1::basic_string_view<char, std::__ndk1::char_traits<char> >)
PUBLIC 59530 0 std::__ndk1::vector<int, std::__ndk1::allocator<int> >::insert(std::__ndk1::__wrap_iter<int const*>, int&&)
PUBLIC 597c4 0 geode::Mod::setSavedValue<std::__ndk1::vector<int, std::__ndk1::allocator<int> > >(std::__ndk1::basic_string_view<char, std::__ndk1::char_traits<char> >, std::__ndk1::vector<int, std::__ndk1::allocator<int> > const&)
PUBLIC 598c8 0 DemonProgression::skillInfoPopup(cocos2d::CCObject*)
PUBLIC 59c20 0 geode::cast::typeinfo_cast<cocos2d::CCLabelBMFont*, cocos2d::CCObject*>(cocos2d::CCObject*)
PUBLIC 59c4c 0 DemonProgression::openXPPopup(cocos2d::CCObject*)
PUBLIC 59c7c 0 _ZNO5geode4impl10ResultDataINSt6__ndk112basic_stringIcNS2_11char_traitsIcEENS2_9allocatorIcEEEES8_E8unwrapOrIRA12_KcEES8_OT_Qsr3stdE18constructible_fromISE_Dtfp_EE
PUBLIC 59d40 0 _ZNO5geode4impl10ResultDataINSt6__ndk112basic_stringIcNS2_11char_traitsIcEENS2_9allocatorIcEEEES8_E8unwrapOrIRA16_KcEES8_OT_Qsr3stdE18constructible_fromISE_Dtfp_EE
PUBLIC 59e04 0 geode::cast::typeinfo_cast<cocos2d::CCSprite*, cocos2d::CCObject*>(cocos2d::CCObject*)
PUBLIC 59e30 0 cocos2d::CCNode::getChildByType<cocos2d::CCSprite, cocos2d::CCSprite>(int)
PUBLIC 59f84 0 cocos2d::CCNode::getChildByType<cocos2d::CCParticleSystemQuad, cocos2d::CCParticleSystemQuad>(int)
PUBLIC 5a0d8 0 geode::impl::ResultData<matjson::Value, std::__ndk1::basic_string<char, std::__ndk1::char_traits<char>, std::__ndk1::allocator<char> > >::~ResultData()
PUBLIC 5a14c 0 std::__ndk1::__variant_detail::__visitation::__base::__dispatcher<(unsigned long)0>::__dispatch[abi:ne180000]<std::__ndk1::__variant_detail::__dtor<std::__ndk1::__variant_detail::__traits<matjson::Value, std::__ndk1::basic_string<char, std::__ndk1::char_traits<char>, std::__ndk1::allocator<char> > >, (std::__ndk1::__variant_detail::_Trait)1>::__destroy[abi:ne180000]()::{lambda(auto:1&)#1}, std::__ndk1::__variant_detail::__base<(std::__ndk1::__variant_detail::__traits<matjson::Value, std::__ndk1::basic_string<char, std::__ndk1::char_traits<char>, std::__ndk1::allocator<char> > >)1, matjson, std::__ndk1::allocator<char> >&>(std::__ndk1::__variant_detail::__dtor<std::__ndk1::__variant_detail::__traits<matjson::Value, std::__ndk1::basic_string<char, std::__ndk1::char_traits<char>, std::__ndk1::allocator<char> > >, (std::__ndk1::__variant_detail::_Trait)1>, std::__ndk1::__variant_detail::__base<(std::__ndk1::__variant_detail::__traits<matjson::Value, std::__ndk1::basic_string<char, std::__ndk1::char_traits<char>, std::__ndk1::allocator<char> > >)1, matjson, std::__ndk1::allocator<char> >&)
PUBLIC 5a154 0 std::__ndk1::__variant_detail::__visitation::__base::__dispatcher<(unsigned long)1>::__dispatch[abi:ne180000]<std::__ndk1::__variant_detail::__dtor<std::__ndk1::__variant_detail::__traits<matjson::Value, std::__ndk1::basic_string<char, std::__ndk1::char_traits<char>, std::__ndk1::allocator<char> > >, (std::__ndk1::__variant_detail::_Trait)1>::__destroy[abi:ne180000]()::{lambda(auto:1&)#1}, std::__ndk1::__variant_detail::__base<(std::__ndk1::__variant_detail::__traits<matjson::Value, std::__ndk1::basic_string<char, std::__ndk1::char_traits<char>, std::__ndk1::allocator<char> > >)1, matjson, std::__ndk1::allocator<char> >&>(std::__ndk1::__variant_detail::__dtor<std::__ndk1::__variant_detail::__traits<matjson::Value, std::__ndk1::basic_string<char, std::__ndk1::char_traits<char>, std::__ndk1::allocator<char> > >, (std::__ndk1::__variant_detail::_Trait)1>, std::__ndk1::__variant_detail::__base<(std::__ndk1::__variant_detail::__traits<matjson::Value, std::__ndk1::basic_string<char, std::__ndk1::char_traits<char>, std::__ndk1::allocator<char> > >)1, matjson, std::__ndk1::allocator<char> >&)
PUBLIC 5a168 0 geode::impl::ResultData<bool, std::__ndk1::basic_string<char, std::__ndk1::char_traits<char>, std::__ndk1::allocator<char> > >::~ResultData()
PUBLIC 5a1dc 0 _ZN7matjson9SerializeINSt6__ndk16vectorINS_5ValueENS1_9allocatorIS3_EEEEE8fromJsonERKS3_QrQS9__Xcldtfp_2asIT_EEE
PUBLIC 5a3e4 0 std::__ndk1::vector<matjson::Value, std::__ndk1::allocator<matjson::Value> >::reserve(unsigned long)
PUBLIC 5a4c4 0 std::__ndk1::vector<matjson::Value, std::__ndk1::allocator<matjson::Value> >::__throw_length_error[abi:ne180000]() const
PUBLIC 5a4d8 0 std::__ndk1::__split_buffer<matjson::Value, std::__ndk1::allocator<matjson::Value>&>::~__split_buffer()
PUBLIC 5a52c 0 std::__ndk1::vector<matjson::Value, std::__ndk1::allocator<matjson::Value> >::__emplace_back_slow_path<matjson::Value>(matjson::Value&&)
PUBLIC 5a648 0 std::__ndk1::vector<matjson::Value, std::__ndk1::allocator<matjson::Value> >::__init_with_size[abi:ne180000]<matjson::Value*, std::__ndk1::vector<matjson::Value, std::__ndk1::allocator<matjson::Value> >::__init_with_size[abi:ne180000]>(matjson::Value*, std::__ndk1::vector<matjson::Value, std::__ndk1::allocator<matjson::Value> >::__init_with_size[abi:ne180000], unsigned long)
PUBLIC 5a764 0 std::__ndk1::__exception_guard_exceptions<std::__ndk1::vector<matjson::Value, std::__ndk1::allocator<matjson::Value> >::__destroy_vector>::~__exception_guard_exceptions[abi:ne180000]()
PUBLIC 5a7e0 0 std::__ndk1::__variant_detail::__visitation::__base::__dispatcher<(unsigned long)0>::__dispatch[abi:ne180000]<std::__ndk1::__variant_detail::__dtor<std::__ndk1::__variant_detail::__traits<std::__ndk1::vector<matjson::Value, std::__ndk1::allocator<matjson> >, std::__ndk1::basic_string<char, std::__ndk1::char_traits<char>, matjson::Value<char> > >, (std::__ndk1::__variant_detail::_Trait)1>::__destroy[abi:ne180000]()::{lambda(auto:1&)#1}, std::__ndk1::__variant_detail::__base<(std::__ndk1::__variant_detail::__traits<std::__ndk1::vector<matjson::Value, std::__ndk1::allocator<matjson> >, std::__ndk1::basic_string<char, std::__ndk1::char_traits<char>, matjson::Value<char> > >)1, std::__ndk1::allocator<matjson>, matjson::Value<char> >&>(std::__ndk1::__variant_detail::__dtor<std::__ndk1::__variant_detail::__traits<std::__ndk1::vector<matjson::Value, std::__ndk1::allocator<matjson> >, std::__ndk1::basic_string<char, std::__ndk1::char_traits<char>, matjson::Value<char> > >, (std::__ndk1::__variant_detail::_Trait)1>, std::__ndk1::__variant_detail::__base<(std::__ndk1::__variant_detail::__traits<std::__ndk1::vector<matjson::Value, std::__ndk1::allocator<matjson> >, std::__ndk1::basic_string<char, std::__ndk1::char_traits<char>, matjson::Value<char> > >)1, std::__ndk1::allocator<matjson>, matjson::Value<char> >&)
PUBLIC 5a848 0 std::__ndk1::__variant_detail::__visitation::__base::__dispatcher<(unsigned long)1>::__dispatch[abi:ne180000]<std::__ndk1::__variant_detail::__dtor<std::__ndk1::__variant_detail::__traits<std::__ndk1::vector<matjson::Value, std::__ndk1::allocator<matjson> >, std::__ndk1::basic_string<char, std::__ndk1::char_traits<char>, matjson::Value<char> > >, (std::__ndk1::__variant_detail::_Trait)1>::__destroy[abi:ne180000]()::{lambda(auto:1&)#1}, std::__ndk1::__variant_detail::__base<(std::__ndk1::__variant_detail::__traits<std::__ndk1::vector<matjson::Value, std::__ndk1::allocator<matjson> >, std::__ndk1::basic_string<char, std::__ndk1::char_traits<char>, matjson::Value<char> > >)1, std::__ndk1::allocator<matjson>, matjson::Value<char> >&>(std::__ndk1::__variant_detail::__dtor<std::__ndk1::__variant_detail::__traits<std::__ndk1::vector<matjson::Value, std::__ndk1::allocator<matjson> >, std::__ndk1::basic_string<char, std::__ndk1::char_traits<char>, matjson::Value<char> > >, (std::__ndk1::__variant_detail::_Trait)1>, std::__ndk1::__variant_detail::__base<(std::__ndk1::__variant_detail::__traits<std::__ndk1::vector<matjson::Value, std::__ndk1::allocator<matjson> >, std::__ndk1::basic_string<char, std::__ndk1::char_traits<char>, matjson::Value<char> > >)1, std::__ndk1::allocator<matjson>, matjson::Value<char> >&)
PUBLIC 5a85c 0 _ZN7matjson9SerializeINSt6__ndk16vectorIiNS1_9allocatorIiEEEEE8fromJsonERKNS_5ValueEQrQS9__Xcldtfp_2asIT_EEE
PUBLIC 5ae04 0 std::__ndk1::vector<int, std::__ndk1::allocator<int> >::__throw_length_error[abi:ne180000]() const
PUBLIC 5ae18 0 std::__ndk1::__variant_detail::__visitation::__base::__dispatcher<(unsigned long)0>::__dispatch[abi:ne180000]<std::__ndk1::__variant_detail::__dtor<std::__ndk1::__variant_detail::__traits<std::__ndk1::vector<int, std::__ndk1::allocator<int> >, std::__ndk1::basic_string<char, std::__ndk1::char_traits<char>, std::__ndk1::vector<char> > >, (std::__ndk1::__variant_detail::_Trait)1>::__destroy[abi:ne180000]()::{lambda(auto:1&)#1}, std::__ndk1::__variant_detail::__base<(std::__ndk1::__variant_detail::__traits<std::__ndk1::vector<int, std::__ndk1::allocator<int> >, std::__ndk1::basic_string<char, std::__ndk1::char_traits<char>, std::__ndk1::vector<char> > >)1, std::__ndk1::allocator<int>, std::__ndk1::vector<char> >&>(std::__ndk1::__variant_detail::__dtor<std::__ndk1::__variant_detail::__traits<std::__ndk1::vector<int, std::__ndk1::allocator<int> >, std::__ndk1::basic_string<char, std::__ndk1::char_traits<char>, std::__ndk1::vector<char> > >, (std::__ndk1::__variant_detail::_Trait)1>, std::__ndk1::__variant_detail::__base<(std::__ndk1::__variant_detail::__traits<std::__ndk1::vector<int, std::__ndk1::allocator<int> >, std::__ndk1::basic_string<char, std::__ndk1::char_traits<char>, std::__ndk1::vector<char> > >)1, std::__ndk1::allocator<int>, std::__ndk1::vector<char> >&)
PUBLIC 5ae2c 0 std::__ndk1::__variant_detail::__visitation::__base::__dispatcher<(unsigned long)1>::__dispatch[abi:ne180000]<std::__ndk1::__variant_detail::__dtor<std::__ndk1::__variant_detail::__traits<std::__ndk1::vector<int, std::__ndk1::allocator<int> >, std::__ndk1::basic_string<char, std::__ndk1::char_traits<char>, std::__ndk1::vector<char> > >, (std::__ndk1::__variant_detail::_Trait)1>::__destroy[abi:ne180000]()::{lambda(auto:1&)#1}, std::__ndk1::__variant_detail::__base<(std::__ndk1::__variant_detail::__traits<std::__ndk1::vector<int, std::__ndk1::allocator<int> >, std::__ndk1::basic_string<char, std::__ndk1::char_traits<char>, std::__ndk1::vector<char> > >)1, std::__ndk1::allocator<int>, std::__ndk1::vector<char> >&>(std::__ndk1::__variant_detail::__dtor<std::__ndk1::__variant_detail::__traits<std::__ndk1::vector<int, std::__ndk1::allocator<int> >, std::__ndk1::basic_string<char, std::__ndk1::char_traits<char>, std::__ndk1::vector<char> > >, (std::__ndk1::__variant_detail::_Trait)1>, std::__ndk1::__variant_detail::__base<(std::__ndk1::__variant_detail::__traits<std::__ndk1::vector<int, std::__ndk1::allocator<int> >, std::__ndk1::basic_string<char, std::__ndk1::char_traits<char>, std::__ndk1::vector<char> > >)1, std::__ndk1::allocator<int>, std::__ndk1::vector<char> >&)
PUBLIC 5ae40 0 std::__ndk1::__variant_detail::__visitation::__base::__dispatcher<(unsigned long)0>::__dispatch[abi:ne180000]<std::__ndk1::__variant_detail::__dtor<std::__ndk1::__variant_detail::__traits<std::__ndk1::basic_string<char, std::__ndk1::char_traits<char>, std::__ndk1::allocator<char> >, std::__ndk1::allocator<char> >, (std::__ndk1::__variant_detail::_Trait)1>::__destroy[abi:ne180000]()::{lambda(auto:1&)#1}, std::__ndk1::__variant_detail::__base<(std::__ndk1::__variant_detail::__traits<std::__ndk1::basic_string<char, std::__ndk1::char_traits<char>, std::__ndk1::allocator<char> >, std::__ndk1::allocator<char> >)1, std::__ndk1::allocator<char>, std::__ndk1::allocator<char> >&>(std::__ndk1::__variant_detail::__dtor<std::__ndk1::__variant_detail::__traits<std::__ndk1::basic_string<char, std::__ndk1::char_traits<char>, std::__ndk1::allocator<char> >, std::__ndk1::allocator<char> >, (std::__ndk1::__variant_detail::_Trait)1>, std::__ndk1::__variant_detail::__base<(std::__ndk1::__variant_detail::__traits<std::__ndk1::basic_string<char, std::__ndk1::char_traits<char>, std::__ndk1::allocator<char> >, std::__ndk1::allocator<char> >)1, std::__ndk1::allocator<char>, std::__ndk1::allocator<char> >&)
PUBLIC 5ae54 0 std::__ndk1::__variant_detail::__visitation::__base::__dispatcher<(unsigned long)1>::__dispatch[abi:ne180000]<std::__ndk1::__variant_detail::__dtor<std::__ndk1::__variant_detail::__traits<std::__ndk1::basic_string<char, std::__ndk1::char_traits<char>, std::__ndk1::allocator<char> >, std::__ndk1::allocator<char> >, (std::__ndk1::__variant_detail::_Trait)1>::__destroy[abi:ne180000]()::{lambda(auto:1&)#1}, std::__ndk1::__variant_detail::__base<(std::__ndk1::__variant_detail::__traits<std::__ndk1::basic_string<char, std::__ndk1::char_traits<char>, std::__ndk1::allocator<char> >, std::__ndk1::allocator<char> >)1, std::__ndk1::allocator<char>, std::__ndk1::allocator<char> >&>(std::__ndk1::__variant_detail::__dtor<std::__ndk1::__variant_detail::__traits<std::__ndk1::basic_string<char, std::__ndk1::char_traits<char>, std::__ndk1::allocator<char> >, std::__ndk1::allocator<char> >, (std::__ndk1::__variant_detail::_Trait)1>, std::__ndk1::__variant_detail::__base<(std::__ndk1::__variant_detail::__traits<std::__ndk1::basic_string<char, std::__ndk1::char_traits<char>, std::__ndk1::allocator<char> >, std::__ndk1::allocator<char> >)1, std::__ndk1::allocator<char>, std::__ndk1::allocator<char> >&)
PUBLIC 5ae68 0 matjson::Serialize<ListSaveFormat>::fromJson(matjson::Value const&)
PUBLIC 5b010 0 std::__ndk1::__variant_detail::__visitation::__base::__dispatcher<(unsigned long)0>::__dispatch[abi:ne180000]<std::__ndk1::__variant_detail::__dtor<std::__ndk1::__variant_detail::__traits<ListSaveFormat, std::__ndk1::basic_string<char, std::__ndk1::char_traits<char>, std::__ndk1::allocator<char> > >, (std::__ndk1::__variant_detail::_Trait)1>::__destroy[abi:ne180000]()::{lambda(auto:1&)#1}, std::__ndk1::__variant_detail::__base<(std::__ndk1::__variant_detail::__traits<ListSaveFormat, std::__ndk1::basic_string<char, std::__ndk1::char_traits<char>, std::__ndk1::allocator<char> > >)1, std::__ndk1::__variant_detail::__traits, std::__ndk1::allocator<char> >&>(std::__ndk1::__variant_detail::__dtor<std::__ndk1::__variant_detail::__traits<ListSaveFormat, std::__ndk1::basic_string<char, std::__ndk1::char_traits<char>, std::__ndk1::allocator<char> > >, (std::__ndk1::__variant_detail::_Trait)1>, std::__ndk1::__variant_detail::__base<(std::__ndk1::__variant_detail::__traits<ListSaveFormat, std::__ndk1::basic_string<char, std::__ndk1::char_traits<char>, std::__ndk1::allocator<char> > >)1, std::__ndk1::__variant_detail::__traits, std::__ndk1::allocator<char> >&)
PUBLIC 5b014 0 std::__ndk1::__variant_detail::__visitation::__base::__dispatcher<(unsigned long)1>::__dispatch[abi:ne180000]<std::__ndk1::__variant_detail::__dtor<std::__ndk1::__variant_detail::__traits<ListSaveFormat, std::__ndk1::basic_string<char, std::__ndk1::char_traits<char>, std::__ndk1::allocator<char> > >, (std::__ndk1::__variant_detail::_Trait)1>::__destroy[abi:ne180000]()::{lambda(auto:1&)#1}, std::__ndk1::__variant_detail::__base<(std::__ndk1::__variant_detail::__traits<ListSaveFormat, std::__ndk1::basic_string<char, std::__ndk1::char_traits<char>, std::__ndk1::allocator<char> > >)1, std::__ndk1::__variant_detail::__traits, std::__ndk1::allocator<char> >&>(std::__ndk1::__variant_detail::__dtor<std::__ndk1::__variant_detail::__traits<ListSaveFormat, std::__ndk1::basic_string<char, std::__ndk1::char_traits<char>, std::__ndk1::allocator<char> > >, (std::__ndk1::__variant_detail::_Trait)1>, std::__ndk1::__variant_detail::__base<(std::__ndk1::__variant_detail::__traits<ListSaveFormat, std::__ndk1::basic_string<char, std::__ndk1::char_traits<char>, std::__ndk1::allocator<char> > >)1, std::__ndk1::__variant_detail::__traits, std::__ndk1::allocator<char> >&)
PUBLIC 5b028 0 std::__ndk1::vector<matjson::Value, std::__ndk1::allocator<matjson::Value> >::__emplace_back_slow_path<matjson::Value const&>(matjson::Value const&)
PUBLIC 5b1cc 0 _ZN7matjson9SerializeINSt6__ndk16vectorINS1_12basic_stringIcNS1_11char_traitsIcEENS1_9allocatorIcEEEENS6_IS8_EEEEE8fromJsonERKNS_5ValueEQrQSE__Xcldtfp_2asIT_EEE
PUBLIC 5b500 0 std::__ndk1::vector<std::__ndk1::basic_string<char, std::__ndk1::char_traits<char>, std::__ndk1::allocator<char> >, std::__ndk1::allocator<std::__ndk1::basic_string<char, std::__ndk1::char_traits<char>, std::__ndk1::allocator<char> > > >::reserve(unsigned long)
PUBLIC 5b614 0 std::__ndk1::vector<std::__ndk1::basic_string<char, std::__ndk1::char_traits<char>, std::__ndk1::allocator<char> >, std::__ndk1::allocator<std::__ndk1::basic_string<char, std::__ndk1::char_traits<char>, std::__ndk1::allocator<char> > > >::__emplace_back_slow_path<std::__ndk1::basic_string<char, std::__ndk1::char_traits<char>, std::__ndk1::allocator<char> > >(std::__ndk1::basic_string<char, std::__ndk1::char_traits<char>, std::__ndk1::allocator<char> >&&)
PUBLIC 5b77c 0 std::__ndk1::vector<std::__ndk1::basic_string<char, std::__ndk1::char_traits<char>, std::__ndk1::allocator<char> >, std::__ndk1::allocator<std::__ndk1::basic_string<char, std::__ndk1::char_traits<char>, std::__ndk1::allocator<char> > > >::__init_with_size[abi:ne180000]<std::__ndk1::basic_string<char, std::__ndk1::char_traits<char>, std::__ndk1::allocator<char> >*, std::__ndk1::vector<std::__ndk1::basic_string<char, std::__ndk1::char_traits<char>, std::__ndk1::allocator<char> >, std::__ndk1::allocator<std::__ndk1::basic_string<char, std::__ndk1::char_traits<char>, std::__ndk1::allocator<char> > > >::__init_with_size[abi:ne180000]>(std::__ndk1::basic_string<char, std::__ndk1::char_traits<char>, std::__ndk1::allocator<char> >*, std::__ndk1::vector<std::__ndk1::basic_string<char, std::__ndk1::char_traits<char>, std::__ndk1::allocator<char> >, std::__ndk1::allocator<std::__ndk1::basic_string<char, std::__ndk1::char_traits<char>, std::__ndk1::allocator<char> > > >::__init_with_size[abi:ne180000], unsigned long)
PUBLIC 5b8e8 0 std::__ndk1::__variant_detail::__visitation::__base::__dispatcher<(unsigned long)0>::__dispatch[abi:ne180000]<std::__ndk1::__variant_detail::__dtor<std::__ndk1::__variant_detail::__traits<std::__ndk1::vector<std::__ndk1::basic_string<char, std::__ndk1::char_traits<char>, std::__ndk1::allocator<char> >, std::__ndk1::char_traits<char><std::__ndk1::allocator<char> > >, std::__ndk1::allocator<char> >, (std::__ndk1::__variant_detail::_Trait)1>::__destroy[abi:ne180000]()::{lambda(auto:1&)#1}, std::__ndk1::__variant_detail::__base<(std::__ndk1::__variant_detail::__traits<std::__ndk1::vector<std::__ndk1::basic_string<char, std::__ndk1::char_traits<char>, std::__ndk1::allocator<char> >, std::__ndk1::char_traits<char><std::__ndk1::allocator<char> > >, std::__ndk1::allocator<char> >)1, std::__ndk1::char_traits<char><std::__ndk1::allocator<char> >, std::__ndk1::allocator<char> >&>(std::__ndk1::__variant_detail::__dtor<std::__ndk1::__variant_detail::__traits<std::__ndk1::vector<std::__ndk1::basic_string<char, std::__ndk1::char_traits<char>, std::__ndk1::allocator<char> >, std::__ndk1::char_traits<char><std::__ndk1::allocator<char> > >, std::__ndk1::allocator<char> >, (std::__ndk1::__variant_detail::_Trait)1>, std::__ndk1::__variant_detail::__base<(std::__ndk1::__variant_detail::__traits<std::__ndk1::vector<std::__ndk1::basic_string<char, std::__ndk1::char_traits<char>, std::__ndk1::allocator<char> >, std::__ndk1::char_traits<char><std::__ndk1::allocator<char> > >, std::__ndk1::allocator<char> >)1, std::__ndk1::char_traits<char><std::__ndk1::allocator<char> >, std::__ndk1::allocator<char> >&)
PUBLIC 5b964 0 std::__ndk1::__variant_detail::__visitation::__base::__dispatcher<(unsigned long)1>::__dispatch[abi:ne180000]<std::__ndk1::__variant_detail::__dtor<std::__ndk1::__variant_detail::__traits<std::__ndk1::vector<std::__ndk1::basic_string<char, std::__ndk1::char_traits<char>, std::__ndk1::allocator<char> >, std::__ndk1::char_traits<char><std::__ndk1::allocator<char> > >, std::__ndk1::allocator<char> >, (std::__ndk1::__variant_detail::_Trait)1>::__destroy[abi:ne180000]()::{lambda(auto:1&)#1}, std::__ndk1::__variant_detail::__base<(std::__ndk1::__variant_detail::__traits<std::__ndk1::vector<std::__ndk1::basic_string<char, std::__ndk1::char_traits<char>, std::__ndk1::allocator<char> >, std::__ndk1::char_traits<char><std::__ndk1::allocator<char> > >, std::__ndk1::allocator<char> >)1, std::__ndk1::char_traits<char><std::__ndk1::allocator<char> >, std::__ndk1::allocator<char> >&>(std::__ndk1::__variant_detail::__dtor<std::__ndk1::__variant_detail::__traits<std::__ndk1::vector<std::__ndk1::basic_string<char, std::__ndk1::char_traits<char>, std::__ndk1::allocator<char> >, std::__ndk1::char_traits<char><std::__ndk1::allocator<char> > >, std::__ndk1::allocator<char> >, (std::__ndk1::__variant_detail::_Trait)1>, std::__ndk1::__variant_detail::__base<(std::__ndk1::__variant_detail::__traits<std::__ndk1::vector<std::__ndk1::basic_string<char, std::__ndk1::char_traits<char>, std::__ndk1::allocator<char> >, std::__ndk1::char_traits<char><std::__ndk1::allocator<char> > >, std::__ndk1::allocator<char> >)1, std::__ndk1::char_traits<char><std::__ndk1::allocator<char> >, std::__ndk1::allocator<char> >&)
PUBLIC 5b978 0 _ZN7matjson9SerializeINSt6__ndk16vectorIiNS1_9allocatorIiEEEEE6toJsonERKS5_QrQRKT__XcvNS_5ValueEfp_E
PUBLIC 5bb20 0 std::__ndk1::vector<matjson::Value, std::__ndk1::allocator<matjson::Value> >::__push_back_slow_path<matjson::Value>(matjson::Value&&)
PUBLIC 5bc3c 0 _GLOBAL__sub_I_LevelInfoLayer.cpp
PUBLIC 5c0a8 0 __cxx_global_var_init
PUBLIC 5c6dc 0 geode::modifier::ModifyBase<geode::modifier::ModifyDerive<DemonProgression, LevelCell> >::~ModifyBase()
PUBLIC 5c6f8 0 geode::modifier::ModifyDerive<DemonProgression, LevelCell>::apply()
PUBLIC 5c99c 0 geode::modifier::ModifyBase<geode::modifier::ModifyDerive<DemonProgression, LevelCell> >::apply()
PUBLIC 5c9a0 0 geode::modifier::AsStaticFunction_loadCustomLevelCell<DemonProgression, void (DemonProgression::*)()>::Impl<void (DemonProgression::*)()>::function(DemonProgression*)
PUBLIC 5c9a4 0 DemonProgression::loadCustomLevelCell()
PUBLIC 60020 0 geode::cast::typeinfo_cast<cocos2d::CCNode*, cocos2d::CCNode*>(cocos2d::CCNode*)
PUBLIC 6004c 0 __cxx_global_var_init
PUBLIC 60488 0 geode::modifier::ModifyBase<geode::modifier::ModifyDerive<hook10<(anonymous namespace)::hook10Parent>, PlayLayer> >::~ModifyBase()
PUBLIC 604a4 0 geode::modifier::ModifyDerive<hook10<(anonymous namespace)::hook10Parent>, PlayLayer>::apply()
PUBLIC 60af0 0 geode::modifier::ModifyBase<geode::modifier::ModifyDerive<hook10<(anonymous namespace)::hook10Parent>, PlayLayer> >::apply()
PUBLIC 60af4 0 geode::modifier::AsStaticFunction_destroyPlayer<hook10<(anonymous namespace)::hook10Parent>, void (hook10<(anonymous namespace)::hook10Parent>::*)(PlayerObject*, GameObject*)>::Impl<void (hook10<(anonymous namespace)::hook10Parent>::*)(PlayerObject*, GameObject*)>::function(hook10<(anonymous namespace)::hook10Parent>*, PlayerObject*, GameObject*)
PUBLIC 60e54 0 geode::modifier::AsStaticFunction_levelComplete<hook10<(anonymous namespace)::hook10Parent>, void (hook10<(anonymous namespace)::hook10Parent>::*)()>::Impl<void (hook10<(anonymous namespace)::hook10Parent>::*)()>::function(hook10<(anonymous namespace)::hook10Parent>*)
PUBLIC 61088 0 geode::addresser::Addresser::addressOfVirtual<void, PlayLayer, PlayerObject*, GameObject*>(void (PlayLayer::*)(PlayerObject*, GameObject*))
PUBLIC 61150 0 PlayLayer::PlayLayer(geode::ZeroConstructorType)
PUBLIC 6196c 0 GJGameState::GJGameState()
PUBLIC 61ee4 0 geode::stl::unordered_map<int, int, geode::stl::hash<int>, geode::stl::equal_to<int>, std::__ndk1::allocator<std::__ndk1::pair<int const, int> > >::~unordered_map()
PUBLIC 61f5c 0 geode::stl::unordered_set<int, geode::stl::hash<int>, geode::stl::equal_to<int>, std::__ndk1::allocator<int> >::~unordered_set()
PUBLIC 61fd4 0 geode::stl::unordered_map<int, gd::string, geode::stl::hash<int>, geode::stl::equal_to<int>, std::__ndk1::allocator<std::__ndk1::pair<int const, gd::string> > >::~unordered_map()
PUBLIC 62058 0 gd::map<std::__ndk1::pair<int, int>, int>::~map()
PUBLIC 62074 0 geode::stl::unordered_map<int, gd::vector<LabelGameObject*>, geode::stl::hash<int>, geode::stl::equal_to<int>, std::__ndk1::allocator<std::__ndk1::pair<int const, gd::vector<LabelGameObject*> > > >::~unordered_map()
PUBLIC 62100 0 geode::stl::unordered_map<int, std::__ndk1::pair<int, int>, geode::stl::hash<int>, geode::stl::equal_to<int>, std::__ndk1::allocator<std::__ndk1::pair<int const, std::__ndk1::pair<int, int> > > >::~unordered_map()
PUBLIC 62178 0 geode::stl::unordered_map<int, gd::vector<GameObject*>, geode::stl::hash<int>, geode::stl::equal_to<int>, std::__ndk1::allocator<std::__ndk1::pair<int const, gd::vector<GameObject*> > > >::~unordered_map()
PUBLIC 62204 0 geode::stl::unordered_map<int, cocos2d::CCPoint, geode::stl::hash<int>, geode::stl::equal_to<int>, std::__ndk1::allocator<std::__ndk1::pair<int const, cocos2d::CCPoint> > >::~unordered_map()
PUBLIC 6227c 0 gd::vector<geode::stl::unordered_map<int, int, geode::stl::hash<int>, geode::stl::equal_to<int>, std::__ndk1::allocator<std::__ndk1::pair<int const, int> > > >::~vector()
PUBLIC 62380 0 GJGameState::~GJGameState()
PUBLIC 62778 0 geode::stl::unordered_map<int, SongChannelState, geode::stl::hash<int>, geode::stl::equal_to<int>, std::__ndk1::allocator<std::__ndk1::pair<int const, SongChannelState> > >::~unordered_map()
PUBLIC 627f0 0 gd::map<std::__ndk1::pair<int, int>, SFXTriggerInstance>::~map()
PUBLIC 6280c 0 geode::stl::unordered_map<int, std::__ndk1::vector<int, std::__ndk1::allocator<int> >, geode::stl::hash<int>, geode::stl::equal_to<int>, std::__ndk1::allocator<std::__ndk1::pair<int const, std::__ndk1::vector<int, std::__ndk1::allocator<int> > > > >::~unordered_map()
PUBLIC 6289c 0 gd::vector<EnterEffectInstance>::~vector()
PUBLIC 62934 0 geode::stl::unordered_map<int, std::__ndk1::vector<EnterEffectInstance, std::__ndk1::allocator<EnterEffectInstance> >, geode::stl::hash<int>, geode::stl::equal_to<int>, std::__ndk1::allocator<std::__ndk1::pair<int const, std::__ndk1::vector<EnterEffectInstance, std::__ndk1::allocator<EnterEffectInstance> > > > >::~unordered_map()
PUBLIC 62970 0 gd::map<std::__ndk1::pair<GJGameEvent, int>, int>::~map()
PUBLIC 6298c 0 gd::map<std::__ndk1::pair<GJGameEvent, int>, gd::vector<EventTriggerInstance> >::~map()
PUBLIC 629a8 0 geode::stl::unordered_map<int, EnhancedGameObject*, geode::stl::hash<int>, geode::stl::equal_to<int>, std::__ndk1::allocator<std::__ndk1::pair<int const, EnhancedGameObject*> > >::~unordered_map()
PUBLIC 62a20 0 geode::stl::unordered_map<int, GameObjectPhysics, geode::stl::hash<int>, geode::stl::equal_to<int>, std::__ndk1::allocator<std::__ndk1::pair<int const, GameObjectPhysics> > >::~unordered_map()
PUBLIC 62a98 0 geode::stl::unordered_map<int, GJValueTween, geode::stl::hash<int>, geode::stl::equal_to<int>, std::__ndk1::allocator<std::__ndk1::pair<int const, GJValueTween> > >::~unordered_map()
PUBLIC 62b10 0 geode::stl::unordered_map<int, bool, geode::stl::hash<int>, geode::stl::equal_to<int>, std::__ndk1::allocator<std::__ndk1::pair<int const, bool> > >::~unordered_map()
PUBLIC 62b88 0 gd::map<std::__ndk1::pair<GJGameEvent, int>, gd::vector<EventTriggerInstance> >::map(std::__ndk1::map<std::__ndk1::pair<GJGameEvent, int>, gd::vector<EventTriggerInstance>, std::__ndk1::less<std::__ndk1::pair<GJGameEvent, int> >, std::__ndk1::allocator<std::__ndk1::pair<std::__ndk1::pair<GJGameEvent, int> const, gd::vector<EventTriggerInstance> > > >)
PUBLIC 62d54 0 gd::map<std::__ndk1::pair<GJGameEvent, int>, gd::vector<EventTriggerInstance> >::insert_pair(std::__ndk1::pair<std::__ndk1::pair<GJGameEvent, int>, gd::vector<EventTriggerInstance> > const&)
PUBLIC 6300c 0 std::__ndk1::pair<std::__ndk1::pair<GJGameEvent, int>, gd::vector<EventTriggerInstance> >::~pair()
PUBLIC 6308c 0 std::__ndk1::pair<std::__ndk1::pair<GJGameEvent, int> const, gd::vector<EventTriggerInstance> >::~pair()
PUBLIC 6310c 0 gd::vector<EventTriggerInstance>::vector(gd::vector<EventTriggerInstance> const&)
PUBLIC 632ac 0 geode::stl::_rb_insert_rebalance(bool, geode::stl::_rb_tree_base*, geode::stl::_rb_tree_base*, geode::stl::_rb_tree_base&)
PUBLIC 63564 0 gd::vector<EventTriggerInstance>::operator=(gd::vector<EventTriggerInstance> const&)
PUBLIC 63720 0 gd::vector<EventTriggerInstance>::~vector()
PUBLIC 637a0 0 std::__ndk1::__tree<std::__ndk1::__value_type<std::__ndk1::pair<GJGameEvent, int>, gd::vector<EventTriggerInstance> >, std::__ndk1::__map_value_compare<std::__ndk1::pair<GJGameEvent, int>, std::__ndk1::__value_type<std::__ndk1::pair<GJGameEvent, int>, gd::vector<EventTriggerInstance> >, std::__ndk1::less<std::__ndk1::pair<GJGameEvent, int> >, true>, std::__ndk1::allocator<std::__ndk1::__value_type<std::__ndk1::pair<GJGameEvent, int>, gd::vector<EventTriggerInstance> > > >::destroy(std::__ndk1::__tree_node<std::__ndk1::__value_type<std::__ndk1::pair<GJGameEvent, int>, gd::vector<EventTriggerInstance> >, void*>*)
PUBLIC 63838 0 gd::map<std::__ndk1::pair<int, int>, SFXTriggerInstance>::erase(geode::stl::_rb_tree_node<std::__ndk1::pair<std::__ndk1::pair<int, int>, SFXTriggerInstance> >*)
PUBLIC 6388c 0 gd::map<int, EnterEffectAnimValue>::erase(geode::stl::_rb_tree_node<std::__ndk1::pair<int, EnterEffectAnimValue> >*)
PUBLIC 638e0 0 geode::stl::_Hashtable<int, std::__ndk1::pair<int const, std::__ndk1::vector<EnterEffectInstance, std::__ndk1::allocator<EnterEffectInstance> > >, std::__ndk1::allocator<std::__ndk1::pair<int const, std::__ndk1::vector<EnterEffectInstance, std::__ndk1::allocator<EnterEffectInstance> > > >, geode::stl::__detail::_Select1st, geode::stl::equal_to<int>, geode::stl::hash<int>, geode::stl::__detail::_Mod_range_hashing, geode::stl::__detail::_Default_ranged_hash, geode::stl::__detail::_Prime_rehash_policy, geode::stl::__detail::_Hashtable_traits<false, false, true> >::clear()
PUBLIC 63988 0 gd::map<std::__ndk1::pair<GJGameEvent, int>, int>::erase(geode::stl::_rb_tree_node<std::__ndk1::pair<std::__ndk1::pair<GJGameEvent, int>, int> >*)
PUBLIC 639dc 0 gd::map<std::__ndk1::pair<GJGameEvent, int>, gd::vector<EventTriggerInstance> >::erase(geode::stl::_rb_tree_node<std::__ndk1::pair<std::__ndk1::pair<GJGameEvent, int>, gd::vector<EventTriggerInstance> > >*)
PUBLIC 63a84 0 gd::map<std::__ndk1::pair<int, int>, int>::erase(geode::stl::_rb_tree_node<std::__ndk1::pair<std::__ndk1::pair<int, int>, int> >*)
PUBLIC 63ad8 0 geode::Mod::getSavedValue<bool>(std::__ndk1::basic_string_view<char, std::__ndk1::char_traits<char> >, bool const&)
PUBLIC 63cc4 0 geode::Mod::getSavedValue<int>(std::__ndk1::basic_string_view<char, std::__ndk1::char_traits<char> >)
PUBLIC 63e48 0 std::__ndk1::vector<int, std::__ndk1::allocator<int> >::~vector[abi:ne180000]()
PUBLIC 63e60 0 StatsPopup::setup()
PUBLIC 644d8 0 geode::Popup<>::setTitle(std::__ndk1::basic_string<char, std::__ndk1::char_traits<char>, std::__ndk1::allocator<char> > const&, char const*, float, float)
PUBLIC 64624 0 StatsPopup::onTab(cocos2d::CCObject*)
PUBLIC 64738 0 StatsPopup::loadTab(int)
PUBLIC 6bdbc 0 StatsPopup::getScore()
PUBLIC 6c100 0 StatsPopup::onScoreInfo(cocos2d::CCObject*)
PUBLIC 6c1dc 0 geode::impl::ResultData<long, std::__ndk1::basic_string<char, std::__ndk1::char_traits<char>, std::__ndk1::allocator<char> > >::~ResultData()
PUBLIC 6c250 0 StatsPopup::onMonthlyInfo(cocos2d::CCObject*)
PUBLIC 6c32c 0 geode::Mod::getSavedValue<std::__ndk1::vector<std::__ndk1::basic_string<char, std::__ndk1::char_traits<char>, std::__ndk1::allocator<char> >, std::__ndk1::allocator<std::__ndk1::basic_string<char, std::__ndk1::char_traits<char>, std::__ndk1::allocator<char> > > > >(std::__ndk1::basic_string_view<char, std::__ndk1::char_traits<char> >)
PUBLIC 6c510 0 geode::impl::ResultData<std::__ndk1::vector<matjson::Value, std::__ndk1::allocator<matjson::Value> >&, std::__ndk1::basic_string<char, std::__ndk1::char_traits<char>, std::__ndk1::allocator<char> > >::~ResultData()
PUBLIC 6c584 0 StatsPopup::getPercentToRank(int, bool)
PUBLIC 6cc30 0 StatsPopup::rankInfoCallback(cocos2d::CCObject*)
PUBLIC 6e944 0 StatsPopup::titleInfoCallback(cocos2d::CCObject*)
PUBLIC 6ecbc 0 StatsPopup::create()
PUBLIC 6ee20 0 StatsPopup::~StatsPopup()
PUBLIC 6eed4 0 {virtual override thunk({offset(-320)}, StatsPopup::~StatsPopup())}
PUBLIC 6eedc 0 StatsPopup::~StatsPopup()
PUBLIC 6ef00 0 {virtual override thunk({offset(-320)}, StatsPopup::~StatsPopup())}
PUBLIC 6ef28 0 cocos2d::CCCopying::copyWithZone(cocos2d::CCZone*)
PUBLIC 6ef30 0 geode::Popup<>::registerWithTouchDispatcher()
PUBLIC 6ef5c 0 geode::Popup<>::keyDown(cocos2d::enumKeyCodes)
PUBLIC 6ef84 0 cocos2d::CCLayerRGBA::setOpacityModifyRGB(bool)
PUBLIC 6ef88 0 cocos2d::CCLayerRGBA::isOpacityModifyRGB()
PUBLIC 6ef90 0 geode::Popup<>::onClose(cocos2d::CCObject*)
PUBLIC 6f0d8 0 {virtual override thunk({offset(-344)}, geode::Popup<>::keyDown(cocos2d::enumKeyCodes))}
PUBLIC 6f104 0 cocos2d::CCKeyboardDelegate::keyUp(cocos2d::enumKeyCodes)
PUBLIC 6f108 0 cocos2d::CCMouseDelegate::rightKeyDown()
PUBLIC 6f10c 0 cocos2d::CCMouseDelegate::rightKeyUp()
PUBLIC 6f110 0 cocos2d::CCMouseDelegate::scrollWheel(float, float)
PUBLIC 6f114 0 {virtual override thunk({offset(-408)}, cocos2d::CCLayerRGBA::setOpacityModifyRGB(bool))}
PUBLIC 6f118 0 {virtual override thunk({offset(-408)}, cocos2d::CCLayerRGBA::isOpacityModifyRGB())}
PUBLIC 6f120 0 std::__ndk1::basic_string<char, std::__ndk1::char_traits<char>, std::__ndk1::allocator<char> >::__assign_external(char const*, unsigned long)
PUBLIC 6f248 0 std::__ndk1::__variant_detail::__visitation::__base::__dispatcher<(unsigned long)0>::__dispatch[abi:ne180000]<std::__ndk1::__variant_detail::__dtor<std::__ndk1::__variant_detail::__traits<std::__ndk1::reference_wrapper<std::__ndk1::vector<matjson::Value, std::__ndk1::allocator<matjson> > >, std::__ndk1::basic_string<char, std::__ndk1::char_traits<char>, matjson::Value<char> > >, (std::__ndk1::__variant_detail::_Trait)1>::__destroy[abi:ne180000]()::{lambda(auto:1&)#1}, std::__ndk1::__variant_detail::__base<(std::__ndk1::__variant_detail::__traits<std::__ndk1::reference_wrapper<std::__ndk1::vector<matjson::Value, std::__ndk1::allocator<matjson> > >, std::__ndk1::basic_string<char, std::__ndk1::char_traits<char>, matjson::Value<char> > >)1, std::__ndk1::vector<matjson::Value, std::__ndk1::allocator<matjson> >, matjson::Value<char> >&>(std::__ndk1::__variant_detail::__dtor<std::__ndk1::__variant_detail::__traits<std::__ndk1::reference_wrapper<std::__ndk1::vector<matjson::Value, std::__ndk1::allocator<matjson> > >, std::__ndk1::basic_string<char, std::__ndk1::char_traits<char>, matjson::Value<char> > >, (std::__ndk1::__variant_detail::_Trait)1>, std::__ndk1::__variant_detail::__base<(std::__ndk1::__variant_detail::__traits<std::__ndk1::reference_wrapper<std::__ndk1::vector<matjson::Value, std::__ndk1::allocator<matjson> > >, std::__ndk1::basic_string<char, std::__ndk1::char_traits<char>, matjson::Value<char> > >)1, std::__ndk1::vector<matjson::Value, std::__ndk1::allocator<matjson> >, matjson::Value<char> >&)
PUBLIC 6f24c 0 std::__ndk1::__variant_detail::__visitation::__base::__dispatcher<(unsigned long)1>::__dispatch[abi:ne180000]<std::__ndk1::__variant_detail::__dtor<std::__ndk1::__variant_detail::__traits<std::__ndk1::reference_wrapper<std::__ndk1::vector<matjson::Value, std::__ndk1::allocator<matjson> > >, std::__ndk1::basic_string<char, std::__ndk1::char_traits<char>, matjson::Value<char> > >, (std::__ndk1::__variant_detail::_Trait)1>::__destroy[abi:ne180000]()::{lambda(auto:1&)#1}, std::__ndk1::__variant_detail::__base<(std::__ndk1::__variant_detail::__traits<std::__ndk1::reference_wrapper<std::__ndk1::vector<matjson::Value, std::__ndk1::allocator<matjson> > >, std::__ndk1::basic_string<char, std::__ndk1::char_traits<char>, matjson::Value<char> > >)1, std::__ndk1::vector<matjson::Value, std::__ndk1::allocator<matjson> >, matjson::Value<char> >&>(std::__ndk1::__variant_detail::__dtor<std::__ndk1::__variant_detail::__traits<std::__ndk1::reference_wrapper<std::__ndk1::vector<matjson::Value, std::__ndk1::allocator<matjson> > >, std::__ndk1::basic_string<char, std::__ndk1::char_traits<char>, matjson::Value<char> > >, (std::__ndk1::__variant_detail::_Trait)1>, std::__ndk1::__variant_detail::__base<(std::__ndk1::__variant_detail::__traits<std::__ndk1::reference_wrapper<std::__ndk1::vector<matjson::Value, std::__ndk1::allocator<matjson> > >, std::__ndk1::basic_string<char, std::__ndk1::char_traits<char>, matjson::Value<char> > >)1, std::__ndk1::vector<matjson::Value, std::__ndk1::allocator<matjson> >, matjson::Value<char> >&)
PUBLIC 6f260 0 geode::Popup<>::~Popup()
PUBLIC 6f2cc 0 geode::Popup<>::~Popup()
PUBLIC 6f2d0 0 {virtual override thunk({offset(-320)}, geode::Popup<>::~Popup())}
PUBLIC 6f33c 0 {virtual override thunk({offset(-320)}, geode::Popup<>::~Popup())}
PUBLIC 6f340 0 geode::Popup<>::initBase(float, float, char const*, cocos2d::CCRect, bool)
PUBLIC 6f648 0 geode::Popup<>::CloseEvent::~CloseEvent()
PUBLIC 6f6a8 0 geode::Popup<>::CloseEvent::~CloseEvent()
PUBLIC 6f718 0 std::__ndk1::__shared_ptr_emplace<geode::Popup<>::CloseEvent::Impl, std::__ndk1::allocator<geode::Popup<>::CloseEvent::Impl> >::~__shared_ptr_emplace()
PUBLIC 6f728 0 std::__ndk1::__shared_ptr_emplace<geode::Popup<>::CloseEvent::Impl, std::__ndk1::allocator<geode::Popup<>::CloseEvent::Impl> >::~__shared_ptr_emplace()
PUBLIC 6f758 0 std::__ndk1::__shared_ptr_emplace<geode::Popup<>::CloseEvent::Impl, std::__ndk1::allocator<geode::Popup<>::CloseEvent::Impl> >::__on_zero_shared()
PUBLIC 6f75c 0 std::__ndk1::__shared_ptr_emplace<geode::Popup<>::CloseEvent::Impl, std::__ndk1::allocator<geode::Popup<>::CloseEvent::Impl> >::__on_zero_shared_weak()
PUBLIC 6f760 0 _GLOBAL__sub_I_StatsPopup.cpp
PUBLIC 7028c 0 Utils::substring(std::__ndk1::basic_string<char, std::__ndk1::char_traits<char>, std::__ndk1::allocator<char> >, std::__ndk1::basic_string<char, std::__ndk1::char_traits<char>, std::__ndk1::allocator<char> >)
PUBLIC 706cc 0 DPListLayer::keyBackClicked()
PUBLIC 70700 0 DPListLayer::updateSave()
PUBLIC 713e0 0 {virtual override thunk({offset(-336)}, DPListLayer::keyBackClicked())}
PUBLIC 71418 0 DPListLayer::backButton(cocos2d::CCObject*)
PUBLIC 71424 0 DPListLayer::init(char const*, int)
PUBLIC 72344 0 DPListLayer::reloadLevels(cocos2d::CCObject*)
PUBLIC 7238c 0 DPListLayer::pageLeft(cocos2d::CCObject*)
PUBLIC 7239c 0 DPListLayer::pageRight(cocos2d::CCObject*)
PUBLIC 723ac 0 DPListLayer::loadLevels(int)
PUBLIC 72918 0 std::__ndk1::vector<std::__ndk1::basic_string<char, std::__ndk1::char_traits<char>, std::__ndk1::allocator<char> >, std::__ndk1::allocator<std::__ndk1::basic_string<char, std::__ndk1::char_traits<char>, std::__ndk1::allocator<char> > > >::insert(std::__ndk1::__wrap_iter<std::__ndk1::basic_string<char, std::__ndk1::char_traits<char>, std::__ndk1::allocator<char> > const*>, std::__ndk1::basic_string<char, std::__ndk1::char_traits<char>, std::__ndk1::allocator<char> > const&)
PUBLIC 72d08 0 geode::Mod::setSavedValue<std::__ndk1::vector<std::__ndk1::basic_string<char, std::__ndk1::char_traits<char>, std::__ndk1::allocator<char> >, std::__ndk1::allocator<std::__ndk1::basic_string<char, std::__ndk1::char_traits<char>, std::__ndk1::allocator<char> > > > >(std::__ndk1::basic_string_view<char, std::__ndk1::char_traits<char> >, std::__ndk1::vector<std::__ndk1::basic_string<char, std::__ndk1::char_traits<char>, std::__ndk1::allocator<char> >, std::__ndk1::allocator<std::__ndk1::basic_string<char, std::__ndk1::char_traits<char>, std::__ndk1::allocator<char> > > > const&)
PUBLIC 72e04 0 geode::Mod::setSavedValue<ListSaveFormat>(std::__ndk1::basic_string_view<char, std::__ndk1::char_traits<char> >, ListSaveFormat const&)
PUBLIC 72ee8 0 DPListLayer::loadLevelsFinished(cocos2d::CCArray*, char const*)
PUBLIC 74784 0 {virtual override thunk({offset(-408)}, DPListLayer::loadLevelsFinished(cocos2d::CCArray*, char const*))}
PUBLIC 7478c 0 DPListLayer::loadLevelsFailed(char const*)
PUBLIC 747d8 0 {virtual override thunk({offset(-408)}, DPListLayer::loadLevelsFailed(char const*))}
PUBLIC 74824 0 DPListLayer::DPListLayer()
PUBLIC 7498c 0 DPListLayer::~DPListLayer()
PUBLIC 74ad4 0 geode::EventListener<geode::Task<geode::utils::web::WebResponse, geode::utils::web::WebProgress> >::~EventListener()
PUBLIC 74b70 0 {virtual override thunk({offset(-320)}, DPListLayer::~DPListLayer())}
PUBLIC 74b78 0 DPListLayer::~DPListLayer()
PUBLIC 74b9c 0 {virtual override thunk({offset(-320)}, DPListLayer::~DPListLayer())}
PUBLIC 74bc4 0 DPListLayer::loadLevelsFinished(cocos2d::CCArray*, char const*, int)
PUBLIC 74bd0 0 DPListLayer::loadLevelsFailed(char const*, int)
PUBLIC 74bdc 0 {virtual override thunk({offset(-408)}, DPListLayer::loadLevelsFinished(cocos2d::CCArray*, char const*, int))}
PUBLIC 74bec 0 {virtual override thunk({offset(-408)}, DPListLayer::loadLevelsFailed(char const*, int))}
PUBLIC 74bfc 0 std::__ndk1::basic_string<char, std::__ndk1::char_traits<char>, std::__ndk1::allocator<char> >::__assign_external(char const*)
PUBLIC 74c30 0 std::__ndk1::__split_buffer<std::__ndk1::basic_string<char, std::__ndk1::char_traits<char>, std::__ndk1::allocator<char> >, std::__ndk1::allocator<std::__ndk1::basic_string<char, std::__ndk1::char_traits<char>, std::__ndk1::allocator<char> > >&>::push_back[abi:ne180000](std::__ndk1::basic_string<char, std::__ndk1::char_traits<char>, std::__ndk1::allocator<char> > const&)
PUBLIC 74e3c 0 std::__ndk1::basic_string<char, std::__ndk1::char_traits<char>, std::__ndk1::allocator<char> >::__assign_no_alias<true>(char const*, unsigned long)
PUBLIC 74ee8 0 std::__ndk1::basic_string<char, std::__ndk1::char_traits<char>, std::__ndk1::allocator<char> >::__assign_no_alias<false>(char const*, unsigned long)
PUBLIC 74ff8 0 std::__ndk1::vector<std::__ndk1::basic_string<char, std::__ndk1::char_traits<char>, std::__ndk1::allocator<char> >, std::__ndk1::allocator<std::__ndk1::basic_string<char, std::__ndk1::char_traits<char>, std::__ndk1::allocator<char> > > >::__push_back_slow_path<std::__ndk1::basic_string<char, std::__ndk1::char_traits<char>, std::__ndk1::allocator<char> > >(std::__ndk1::basic_string<char, std::__ndk1::char_traits<char>, std::__ndk1::allocator<char> >&&)
PUBLIC 75160 0 std::__ndk1::vector<std::__ndk1::basic_string<char, std::__ndk1::char_traits<char>, std::__ndk1::allocator<char> >, std::__ndk1::allocator<std::__ndk1::basic_string<char, std::__ndk1::char_traits<char>, std::__ndk1::allocator<char> > > >::__init_with_size[abi:ne180000]<std::__ndk1::__wrap_iter<std::__ndk1::basic_string<char, std::__ndk1::char_traits<char>, std::__ndk1::allocator<char> >*>, std::__ndk1::basic_string<char, std::__ndk1::char_traits<char>, std::__ndk1::allocator<char> >*>(std::__ndk1::__wrap_iter<std::__ndk1::basic_string<char, std::__ndk1::char_traits<char>, std::__ndk1::allocator<char> >*>, std::__ndk1::basic_string<char, std::__ndk1::char_traits<char>, std::__ndk1::allocator<char> >*, unsigned long)
PUBLIC 752cc 0 geode::Task<geode::utils::web::WebResponse, geode::utils::web::WebProgress>::~Task()
PUBLIC 7531c 0 geode::Task<geode::utils::web::WebResponse, geode::utils::web::WebProgress>::setListener(geode::EventListenerProtocol*)
PUBLIC 75538 0 geode::EventListener<geode::Task<geode::utils::web::WebResponse, geode::utils::web::WebProgress> >::getPool() const
PUBLIC 7553c 0 geode::EventListener<geode::Task<geode::utils::web::WebResponse, geode::utils::web::WebProgress> >::handle(geode::Event*)
PUBLIC 75708 0 geode::EventListener<geode::Task<geode::utils::web::WebResponse, geode::utils::web::WebProgress> >::~EventListener()
PUBLIC 757ac 0 geode::Task<geode::utils::web::WebResponse, geode::utils::web::WebProgress>::setListener(geode::EventListenerProtocol*)::{lambda()#1}::~{lambda()#1}()
PUBLIC 757fc 0 geode::Task<geode::utils::web::WebResponse, geode::utils::web::WebProgress>::setListener(geode::EventListenerProtocol*)::{lambda()#2}::~{lambda()#2}()
PUBLIC 7584c 0 std::__ndk1::__function::__func<geode::Task<geode::utils::web::WebResponse, geode::utils::web::WebProgress>::setListener(geode::EventListenerProtocol*)::{lambda()#1}, std::__ndk1::allocator<geode::Task<geode::utils::web::WebResponse, geode::utils::web::WebProgress>::setListener(geode::EventListenerProtocol*)::{lambda()#1}>, void ()>::~__func()
PUBLIC 758a8 0 std::__ndk1::__function::__func<geode::Task<geode::utils::web::WebResponse, geode::utils::web::WebProgress>::setListener(geode::EventListenerProtocol*)::{lambda()#1}, std::__ndk1::allocator<geode::Task<geode::utils::web::WebResponse, geode::utils::web::WebProgress>::setListener(geode::EventListenerProtocol*)::{lambda()#1}>, void ()>::~__func()
PUBLIC 75914 0 std::__ndk1::__function::__func<geode::Task<geode::utils::web::WebResponse, geode::utils::web::WebProgress>::setListener(geode::EventListenerProtocol*)::{lambda()#1}, std::__ndk1::allocator<geode::Task<geode::utils::web::WebResponse, geode::utils::web::WebProgress>::setListener(geode::EventListenerProtocol*)::{lambda()#1}>, void ()>::__clone() const
PUBLIC 7596c 0 std::__ndk1::__function::__func<geode::Task<geode::utils::web::WebResponse, geode::utils::web::WebProgress>::setListener(geode::EventListenerProtocol*)::{lambda()#1}, std::__ndk1::allocator<geode::Task<geode::utils::web::WebResponse, geode::utils::web::WebProgress>::setListener(geode::EventListenerProtocol*)::{lambda()#1}>, void ()>::__clone(std::__ndk1::__function::__base<void ()>*) const
PUBLIC 759b8 0 std::__ndk1::__function::__func<geode::Task<geode::utils::web::WebResponse, geode::utils::web::WebProgress>::setListener(geode::EventListenerProtocol*)::{lambda()#1}, std::__ndk1::allocator<geode::Task<geode::utils::web::WebResponse, geode::utils::web::WebProgress>::setListener(geode::EventListenerProtocol*)::{lambda()#1}>, void ()>::destroy()
PUBLIC 75a08 0 std::__ndk1::__function::__func<geode::Task<geode::utils::web::WebResponse, geode::utils::web::WebProgress>::setListener(geode::EventListenerProtocol*)::{lambda()#1}, std::__ndk1::allocator<geode::Task<geode::utils::web::WebResponse, geode::utils::web::WebProgress>::setListener(geode::EventListenerProtocol*)::{lambda()#1}>, void ()>::destroy_deallocate()
PUBLIC 75a68 0 std::__ndk1::__function::__func<geode::Task<geode::utils::web::WebResponse, geode::utils::web::WebProgress>::setListener(geode::EventListenerProtocol*)::{lambda()#1}, std::__ndk1::allocator<geode::Task<geode::utils::web::WebResponse, geode::utils::web::WebProgress>::setListener(geode::EventListenerProtocol*)::{lambda()#1}>, void ()>::operator()()
PUBLIC 75a70 0 std::__ndk1::__function::__func<geode::Task<geode::utils::web::WebResponse, geode::utils::web::WebProgress>::setListener(geode::EventListenerProtocol*)::{lambda()#1}, std::__ndk1::allocator<geode::Task<geode::utils::web::WebResponse, geode::utils::web::WebProgress>::setListener(geode::EventListenerProtocol*)::{lambda()#1}>, void ()>::target(std::type_info const&) const
PUBLIC 75a8c 0 std::__ndk1::__function::__func<geode::Task<geode::utils::web::WebResponse, geode::utils::web::WebProgress>::setListener(geode::EventListenerProtocol*)::{lambda()#1}, std::__ndk1::allocator<geode::Task<geode::utils::web::WebResponse, geode::utils::web::WebProgress>::setListener(geode::EventListenerProtocol*)::{lambda()#1}>, void ()>::target_type() const
PUBLIC 75a98 0 geode::Task<geode::utils::web::WebResponse, geode::utils::web::WebProgress>::setListener(geode::EventListenerProtocol*)::{lambda()#1}::operator()() const
PUBLIC 75c68 0 geode::Task<geode::utils::web::WebResponse, geode::utils::web::WebProgress>::Event::~Event()
PUBLIC 75cc8 0 geode::Task<geode::utils::web::WebResponse, geode::utils::web::WebProgress>::Event::~Event()
PUBLIC 75d38 0 std::__ndk1::__function::__func<geode::Task<geode::utils::web::WebResponse, geode::utils::web::WebProgress>::setListener(geode::EventListenerProtocol*)::{lambda()#2}, std::__ndk1::allocator<geode::Task<geode::utils::web::WebResponse, geode::utils::web::WebProgress>::setListener(geode::EventListenerProtocol*)::{lambda()#2}>, void ()>::~__func()
PUBLIC 75d94 0 std::__ndk1::__function::__func<geode::Task<geode::utils::web::WebResponse, geode::utils::web::WebProgress>::setListener(geode::EventListenerProtocol*)::{lambda()#2}, std::__ndk1::allocator<geode::Task<geode::utils::web::WebResponse, geode::utils::web::WebProgress>::setListener(geode::EventListenerProtocol*)::{lambda()#2}>, void ()>::~__func()
PUBLIC 75e00 0 std::__ndk1::__function::__func<geode::Task<geode::utils::web::WebResponse, geode::utils::web::WebProgress>::setListener(geode::EventListenerProtocol*)::{lambda()#2}, std::__ndk1::allocator<geode::Task<geode::utils::web::WebResponse, geode::utils::web::WebProgress>::setListener(geode::EventListenerProtocol*)::{lambda()#2}>, void ()>::__clone() const
PUBLIC 75e58 0 std::__ndk1::__function::__func<geode::Task<geode::utils::web::WebResponse, geode::utils::web::WebProgress>::setListener(geode::EventListenerProtocol*)::{lambda()#2}, std::__ndk1::allocator<geode::Task<geode::utils::web::WebResponse, geode::utils::web::WebProgress>::setListener(geode::EventListenerProtocol*)::{lambda()#2}>, void ()>::__clone(std::__ndk1::__function::__base<void ()>*) const
PUBLIC 75ea4 0 std::__ndk1::__function::__func<geode::Task<geode::utils::web::WebResponse, geode::utils::web::WebProgress>::setListener(geode::EventListenerProtocol*)::{lambda()#2}, std::__ndk1::allocator<geode::Task<geode::utils::web::WebResponse, geode::utils::web::WebProgress>::setListener(geode::EventListenerProtocol*)::{lambda()#2}>, void ()>::destroy()
PUBLIC 75ef4 0 std::__ndk1::__function::__func<geode::Task<geode::utils::web::WebResponse, geode::utils::web::WebProgress>::setListener(geode::EventListenerProtocol*)::{lambda()#2}, std::__ndk1::allocator<geode::Task<geode::utils::web::WebResponse, geode::utils::web::WebProgress>::setListener(geode::EventListenerProtocol*)::{lambda()#2}>, void ()>::destroy_deallocate()
PUBLIC 75f54 0 std::__ndk1::__function::__func<geode::Task<geode::utils::web::WebResponse, geode::utils::web::WebProgress>::setListener(geode::EventListenerProtocol*)::{lambda()#2}, std::__ndk1::allocator<geode::Task<geode::utils::web::WebResponse, geode::utils::web::WebProgress>::setListener(geode::EventListenerProtocol*)::{lambda()#2}>, void ()>::operator()()
PUBLIC 75f5c 0 std::__ndk1::__function::__func<geode::Task<geode::utils::web::WebResponse, geode::utils::web::WebProgress>::setListener(geode::EventListenerProtocol*)::{lambda()#2}, std::__ndk1::allocator<geode::Task<geode::utils::web::WebResponse, geode::utils::web::WebProgress>::setListener(geode::EventListenerProtocol*)::{lambda()#2}>, void ()>::target(std::type_info const&) const
PUBLIC 75f78 0 std::__ndk1::__function::__func<geode::Task<geode::utils::web::WebResponse, geode::utils::web::WebProgress>::setListener(geode::EventListenerProtocol*)::{lambda()#2}, std::__ndk1::allocator<geode::Task<geode::utils::web::WebResponse, geode::utils::web::WebProgress>::setListener(geode::EventListenerProtocol*)::{lambda()#2}>, void ()>::target_type() const
PUBLIC 75f84 0 geode::Task<geode::utils::web::WebResponse, geode::utils::web::WebProgress>::setListener(geode::EventListenerProtocol*)::{lambda()#2}::operator()() const
PUBLIC 76148 0 std::__ndk1::__throw_bad_function_call[abi:ne180000]()
PUBLIC 7617c 0 std::__ndk1::bad_function_call::~bad_function_call()
PUBLIC 761a0 0 _ZN7matjson9SerializeINSt6__ndk16vectorINS1_12basic_stringIcNS1_11char_traitsIcEENS1_9allocatorIcEEEENS6_IS8_EEEEE6toJsonERKSA_QrQRKT__XcvNS_5ValueEfp_E
PUBLIC 762ec 0 _ZNSt6__ndk19transformB8ne180000INS_11__wrap_iterIPKNS_12basic_stringIcNS_11char_traitsIcEENS_9allocatorIcEEEEEENS_20back_insert_iteratorINS_6vectorIN7matjson5ValueENS5_ISE_EEEEEEZNSD_9SerializeINSC_IS7_NS5_IS7_EEEEE6toJsonERKSK_QrQRKT__XcvSE_fL0p_EEUlRS8_E_EET0_SO_SO_ST_T1_
PUBLIC 7641c 0 matjson::Serialize<ListSaveFormat>::toJson(ListSaveFormat const&)
PUBLIC 765a8 0 _ZNSt6__ndk14pairINS_12basic_stringIcNS_11char_traitsIcEENS_9allocatorIcEEEEN7matjson5ValueEEC2B8ne180000IRA9_KcRKiTnNS_9enable_ifIXclsr10_CheckArgsE17__enable_implicitIT_T0_EEEiE4typeELi0EEEOSH_OSI_
PUBLIC 7666c 0 _ZNSt6__ndk14pairINS_12basic_stringIcNS_11char_traitsIcEENS_9allocatorIcEEEEN7matjson5ValueEEC2B8ne180000IRA10_KcRKbTnNS_9enable_ifIXclsr10_CheckArgsE17__enable_implicitIT_T0_EEEiE4typeELi0EEEOSH_OSI_
PUBLIC 76730 0 _ZNSt6__ndk14pairINS_12basic_stringIcNS_11char_traitsIcEENS_9allocatorIcEEEEN7matjson5ValueEEC2B8ne180000IRA9_KcRKbTnNS_9enable_ifIXclsr10_CheckArgsE17__enable_implicitIT_T0_EEEiE4typeELi0EEEOSH_OSI_
PUBLIC 767f4 0 fmt::v11::detail::value<fmt::v11::context>::format_custom_arg<std::__ndk1::vector<std::__ndk1::basic_string<char, std::__ndk1::char_traits<char>, std::__ndk1::allocator<char> >, std::__ndk1::allocator<std::__ndk1::basic_string<char, std::__ndk1::char_traits<char>, std::__ndk1::allocator<char> > > >, fmt::v11::formatter<std::__ndk1::vector<std::__ndk1::basic_string<char, std::__ndk1::char_traits<char>, std::__ndk1::allocator<char> >, std::__ndk1::allocator<std::__ndk1::basic_string<char, std::__ndk1::char_traits<char>, std::__ndk1::allocator<char> > > >, char, void> >(void*, fmt::v11::basic_format_parse_context<char>&, fmt::v11::context&)
PUBLIC 768cc 0 fmt::v11::range_formatter<std::__ndk1::basic_string<char, std::__ndk1::char_traits<char>, std::__ndk1::allocator<char> >, char, void>::parse<fmt::v11::basic_format_parse_context<char> >(fmt::v11::basic_format_parse_context<char>&)
PUBLIC 769d0 0 fmt::v11::detail::parse_format_specs<char>(char const*, char const*, fmt::v11::detail::dynamic_format_specs<char>&, fmt::v11::basic_format_parse_context<char>&, fmt::v11::detail::type)
PUBLIC 76e84 0 fmt::v11::detail::parse_dynamic_spec<char>(char const*, char const*, int&, fmt::v11::detail::arg_ref<char>&, fmt::v11::basic_format_parse_context<char>&)
PUBLIC 77028 0 fmt::v11::detail::do_parse_arg_id<char, fmt::v11::detail::dynamic_spec_id_handler<char>&>(char const*, char const*, fmt::v11::detail::dynamic_spec_id_handler<char>&)
PUBLIC 771bc 0 fmt::v11::range_formatter<std::__ndk1::basic_string<char, std::__ndk1::char_traits<char>, std::__ndk1::allocator<char> >, char, void>::format<std::__ndk1::vector<std::__ndk1::basic_string<char, std::__ndk1::char_traits<char>, std::__ndk1::allocator<char> >, std::__ndk1::allocator<std::__ndk1::basic_string<char, std::__ndk1::char_traits<char>, std::__ndk1::allocator<char> > > > const&, fmt::v11::context>(std::__ndk1::vector<std::__ndk1::basic_string<char, std::__ndk1::char_traits<char>, std::__ndk1::allocator<char> >, std::__ndk1::allocator<std::__ndk1::basic_string<char, std::__ndk1::char_traits<char>, std::__ndk1::allocator<char> > > > const&, fmt::v11::context&) const
PUBLIC 77698 0 fmt::v11::detail::handle_dynamic_spec<fmt::v11::detail::width_checker, fmt::v11::context>(int&, fmt::v11::detail::arg_ref<fmt::v11::context::char_type>, fmt::v11::context&)
PUBLIC 777ac 0 fmt::v11::detail::handle_dynamic_spec<fmt::v11::detail::precision_checker, fmt::v11::context>(int&, fmt::v11::detail::arg_ref<fmt::v11::context::char_type>, fmt::v11::context&)
PUBLIC 778c0 0 fmt::v11::detail::write<char, fmt::v11::basic_appender<char> >(fmt::v11::basic_appender<char>, fmt::v11::basic_string_view<char>, fmt::v11::format_specs const&)
PUBLIC 77b3c 0 fmt::v11::detail::write_escaped_string<char, fmt::v11::detail::counting_iterator>(fmt::v11::detail::counting_iterator, fmt::v11::basic_string_view<char>)
PUBLIC 7805c 0 fmt::v11::detail::write_padded<char, (fmt::v11::align::type)1, fmt::v11::basic_appender<char>, fmt::v11::detail::write<char, fmt::v11::basic_appender<char> >(fmt::v11::basic_appender<char>, fmt::v11::basic_string_view<char>, fmt::v11::format_specs const&)::{lambda(fmt::v11::basic_appender<char>)#1}>(fmt::v11::basic_appender<char>, fmt::v11::format_specs const&, unsigned long, unsigned long, fmt::v11::detail::write<char, fmt::v11::basic_appender<char> >(fmt::v11::basic_appender<char>, fmt::v11::basic_string_view<char>, fmt::v11::format_specs const&)::{lambda(fmt::v11::basic_appender<char>&&)#1})
PUBLIC 78268 0 fmt::v11::detail::for_each_codepoint<fmt::v11::detail::code_point_index(fmt::v11::basic_string_view<char>, unsigned long)::{lambda(unsigned int, fmt::v11::basic_string_view<char>)#1}>(fmt::v11::basic_string_view<char>, fmt::v11::detail::code_point_index(fmt::v11::basic_string_view<char>, unsigned long)::{lambda(unsigned int, fmt::v11::basic_string_view<char>)#1})
PUBLIC 78690 0 fmt::v11::detail::write_escaped_cp<fmt::v11::detail::counting_iterator, char>(fmt::v11::detail::counting_iterator, fmt::v11::detail::find_escape_result<char> const&)
PUBLIC 78824 0 fmt::v11::detail::for_each_codepoint<fmt::v11::detail::compute_width(fmt::v11::basic_string_view<char>)::count_code_points>(fmt::v11::basic_string_view<char>, fmt::v11::detail::compute_width(fmt::v11::basic_string_view<char>)::count_code_points)::{lambda(char const*, char const*)#1}::operator()(char const*, char const*) const
PUBLIC 789dc 0 fmt::v11::detail::fill<char, fmt::v11::basic_appender<char> >(fmt::v11::basic_appender<char>, unsigned long, fmt::v11::detail::fill_t const&)
PUBLIC 78bac 0 fmt::v11::detail::write_escaped_string<char, fmt::v11::basic_appender<char> >(fmt::v11::basic_appender<char>, fmt::v11::basic_string_view<char>)
PUBLIC 79228 0 fmt::v11::detail::write_escaped_cp<fmt::v11::basic_appender<char>, char>(fmt::v11::basic_appender<char>, fmt::v11::detail::find_escape_result<char> const&)
PUBLIC 7940c 0 fmt::v11::detail::write_codepoint<(unsigned long)2, char, fmt::v11::basic_appender<char> >(fmt::v11::basic_appender<char>, char, unsigned int)
PUBLIC 79584 0 fmt::v11::detail::write_codepoint<(unsigned long)4, char, fmt::v11::basic_appender<char> >(fmt::v11::basic_appender<char>, char, unsigned int)
PUBLIC 796fc 0 fmt::v11::detail::write_codepoint<(unsigned long)8, char, fmt::v11::basic_appender<char> >(fmt::v11::basic_appender<char>, char, unsigned int)
PUBLIC 79874 0 fmt::v11::detail::get_dynamic_spec<fmt::v11::detail::width_checker, fmt::v11::basic_format_arg<fmt::v11::context> >(fmt::v11::basic_format_arg<fmt::v11::context>)
PUBLIC 79908 0 fmt::v11::basic_format_args<fmt::v11::context>::get<char>(fmt::v11::basic_string_view<char>) const
PUBLIC 79a60 0 fmt::v11::detail::get_dynamic_spec<fmt::v11::detail::precision_checker, fmt::v11::basic_format_arg<fmt::v11::context> >(fmt::v11::basic_format_arg<fmt::v11::context>)
PUBLIC 79af4 0 DPLayer::callback(cocos2d::CCObject*)
PUBLIC 79e04 0 DPLayer::keyBackClicked()
PUBLIC 79ef8 0 DPLayer::updateMonthlyTimer(float)
PUBLIC 7a17c 0 {virtual override thunk({offset(-336)}, DPLayer::keyBackClicked())}
PUBLIC 7a184 0 DPLayer::backButton(cocos2d::CCObject*)
PUBLIC 7a278 0 DPLayer::soonCallback(cocos2d::CCObject*)
PUBLIC 7a354 0 DPLayer::reloadCallback(cocos2d::CCObject*)
PUBLIC 7a35c 0 DPLayer::reloadData(bool)
PUBLIC 7a7b0 0 DPLayer::openList(cocos2d::CCObject*)
PUBLIC 7ab8c 0 DPLayer::achievementsCallback(cocos2d::CCObject*)
PUBLIC 7abbc 0 DPLayer::supportCallback(cocos2d::CCObject*)
PUBLIC 7abd8 0 DPLayer::newsCallback(cocos2d::CCObject*)
PUBLIC 7acb8 0 DPLayer::searchCallback(cocos2d::CCObject*)
PUBLIC 7adc8 0 DPLayer::rouletteCallback(cocos2d::CCObject*)
PUBLIC 7aed8 0 DPLayer::recommendedCallback(cocos2d::CCObject*)
PUBLIC 7afb0 0 DPLayer::xpCallback(cocos2d::CCObject*)
PUBLIC 7afe4 0 DPLayer::init()
PUBLIC 7c838 0 DPLayer::onTab(cocos2d::CCObject*)
PUBLIC 7caa0 0 DPLayer::reloadList(int)
PUBLIC 81ef8 0 DPLayer::~DPLayer()
PUBLIC 820dc 0 {virtual override thunk({offset(-320)}, DPLayer::~DPLayer())}
PUBLIC 820e4 0 DPLayer::~DPLayer()
PUBLIC 82108 0 {virtual override thunk({offset(-320)}, DPLayer::~DPLayer())}
PUBLIC 82130 0 std::__ndk1::__function::__value_func<void (geode::Task<geode::utils::web::WebResponse, geode::utils::web::WebProgress>::Event*)>::swap[abi:ne180000](std::__ndk1::__function::__value_func<void (geode::Task<geode::utils::web::WebResponse, geode::utils::web::WebProgress>::Event*)>&)
PUBLIC 822c8 0 std::__ndk1::__function::__func<DPLayer::reloadData(bool)::$_0, std::__ndk1::allocator<DPLayer::reloadData(bool)::$_0>, void (geode::Task<geode::utils::web::WebResponse, geode::utils::web::WebProgress>::Event*)>::~__func()
PUBLIC 822cc 0 std::__ndk1::__function::__func<DPLayer::reloadData(bool)::$_0, std::__ndk1::allocator<DPLayer::reloadData(bool)::$_0>, void (geode::Task<geode::utils::web::WebResponse, geode::utils::web::WebProgress>::Event*)>::__clone() const
PUBLIC 82300 0 std::__ndk1::__function::__func<DPLayer::reloadData(bool)::$_0, std::__ndk1::allocator<DPLayer::reloadData(bool)::$_0>, void (geode::Task<geode::utils::web::WebResponse, geode::utils::web::WebProgress>::Event*)>::__clone(std::__ndk1::__function::__base<void (geode::Task<geode::utils::web::WebResponse, geode::utils::web::WebProgress>::Event*)>*) const
PUBLIC 82314 0 std::__ndk1::__function::__func<DPLayer::reloadData(bool)::$_0, std::__ndk1::allocator<DPLayer::reloadData(bool)::$_0>, void (geode::Task<geode::utils::web::WebResponse, geode::utils::web::WebProgress>::Event*)>::destroy()
PUBLIC 82318 0 std::__ndk1::__function::__func<DPLayer::reloadData(bool)::$_0, std::__ndk1::allocator<DPLayer::reloadData(bool)::$_0>, void (geode::Task<geode::utils::web::WebResponse, geode::utils::web::WebProgress>::Event*)>::destroy_deallocate()
PUBLIC 8231c 0 std::__ndk1::__function::__func<DPLayer::reloadData(bool)::$_0, std::__ndk1::allocator<DPLayer::reloadData(bool)::$_0>, void (geode::Task<geode::utils::web::WebResponse, geode::utils::web::WebProgress>::Event*)>::operator()(geode::Task<geode::utils::web::WebResponse, geode::utils::web::WebProgress>::Event*&&)
PUBLIC 82ae4 0 std::__ndk1::__function::__func<DPLayer::reloadData(bool)::$_0, std::__ndk1::allocator<DPLayer::reloadData(bool)::$_0>, void (geode::Task<geode::utils::web::WebResponse, geode::utils::web::WebProgress>::Event*)>::target(std::type_info const&) const
PUBLIC 82b00 0 std::__ndk1::__function::__func<DPLayer::reloadData(bool)::$_0, std::__ndk1::allocator<DPLayer::reloadData(bool)::$_0>, void (geode::Task<geode::utils::web::WebResponse, geode::utils::web::WebProgress>::Event*)>::target_type() const
PUBLIC 82b0c 0 geode::Mod::setSavedValue<matjson::Value>(std::__ndk1::basic_string_view<char, std::__ndk1::char_traits<char> >, matjson::Value const&)
PUBLIC 82bf8 0 std::__ndk1::__function::__base<void (geode::Task<geode::utils::web::WebResponse, geode::utils::web::WebProgress>::Event*)>::~__base()
PUBLIC 82bfc 0 std::__ndk1::__function::__func<DPLayer::reloadData(bool)::$_1, std::__ndk1::allocator<DPLayer::reloadData(bool)::$_1>, void (geode::Task<geode::utils::web::WebResponse, geode::utils::web::WebProgress>::Event*)>::~__func()
PUBLIC 82c00 0 std::__ndk1::__function::__func<DPLayer::reloadData(bool)::$_1, std::__ndk1::allocator<DPLayer::reloadData(bool)::$_1>, void (geode::Task<geode::utils::web::WebResponse, geode::utils::web::WebProgress>::Event*)>::__clone() const
PUBLIC 82c24 0 std::__ndk1::__function::__func<DPLayer::reloadData(bool)::$_1, std::__ndk1::allocator<DPLayer::reloadData(bool)::$_1>, void (geode::Task<geode::utils::web::WebResponse, geode::utils::web::WebProgress>::Event*)>::__clone(std::__ndk1::__function::__base<void (geode::Task<geode::utils::web::WebResponse, geode::utils::web::WebProgress>::Event*)>*) const
PUBLIC 82c34 0 std::__ndk1::__function::__func<DPLayer::reloadData(bool)::$_1, std::__ndk1::allocator<DPLayer::reloadData(bool)::$_1>, void (geode::Task<geode::utils::web::WebResponse, geode::utils::web::WebProgress>::Event*)>::destroy()
PUBLIC 82c38 0 std::__ndk1::__function::__func<DPLayer::reloadData(bool)::$_1, std::__ndk1::allocator<DPLayer::reloadData(bool)::$_1>, void (geode::Task<geode::utils::web::WebResponse, geode::utils::web::WebProgress>::Event*)>::destroy_deallocate()
PUBLIC 82c3c 0 std::__ndk1::__function::__func<DPLayer::reloadData(bool)::$_1, std::__ndk1::allocator<DPLayer::reloadData(bool)::$_1>, void (geode::Task<geode::utils::web::WebResponse, geode::utils::web::WebProgress>::Event*)>::operator()(geode::Task<geode::utils::web::WebResponse, geode::utils::web::WebProgress>::Event*&&)
PUBLIC 82f20 0 std::__ndk1::__function::__func<DPLayer::reloadData(bool)::$_1, std::__ndk1::allocator<DPLayer::reloadData(bool)::$_1>, void (geode::Task<geode::utils::web::WebResponse, geode::utils::web::WebProgress>::Event*)>::target(std::type_info const&) const
PUBLIC 82f3c 0 std::__ndk1::__function::__func<DPLayer::reloadData(bool)::$_1, std::__ndk1::allocator<DPLayer::reloadData(bool)::$_1>, void (geode::Task<geode::utils::web::WebResponse, geode::utils::web::WebProgress>::Event*)>::target_type() const
PUBLIC 82f48 0 _GLOBAL__sub_I_DPLayer.cpp
PUBLIC 83d90 0 RecommendedLayer::keyBackClicked()
PUBLIC 83db4 0 {virtual override thunk({offset(-336)}, RecommendedLayer::keyBackClicked())}
PUBLIC 83dd8 0 RecommendedLayer::backButton(cocos2d::CCObject*)
PUBLIC 83de4 0 RecommendedLayer::init()
PUBLIC 84790 0 RecommendedLayer::reloadLevels(cocos2d::CCObject*)
PUBLIC 847dc 0 RecommendedLayer::pageLeft(cocos2d::CCObject*)
PUBLIC 847ec 0 RecommendedLayer::pageRight(cocos2d::CCObject*)
PUBLIC 847fc 0 RecommendedLayer::loadLevels(int)
PUBLIC 84c40 0 RecommendedLayer::loadLevelsFinished(cocos2d::CCArray*, char const*)
PUBLIC 84e54 0 {virtual override thunk({offset(-408)}, RecommendedLayer::loadLevelsFinished(cocos2d::CCArray*, char const*))}
PUBLIC 84e5c 0 RecommendedLayer::loadLevelsFailed(char const*)
PUBLIC 84ed8 0 {virtual override thunk({offset(-408)}, RecommendedLayer::loadLevelsFailed(char const*))}
PUBLIC 84f50 0 RecommendedLayer::RecommendedLayer()
PUBLIC 85098 0 RecommendedLayer::~RecommendedLayer()
PUBLIC 851d0 0 {virtual override thunk({offset(-320)}, RecommendedLayer::~RecommendedLayer())}
PUBLIC 851d8 0 RecommendedLayer::~RecommendedLayer()
PUBLIC 851fc 0 {virtual override thunk({offset(-320)}, RecommendedLayer::~RecommendedLayer())}
PUBLIC 85224 0 RecommendedLayer::loadLevelsFinished(cocos2d::CCArray*, char const*, int)
PUBLIC 85230 0 RecommendedLayer::loadLevelsFailed(char const*, int)
PUBLIC 8523c 0 {virtual override thunk({offset(-408)}, RecommendedLayer::loadLevelsFinished(cocos2d::CCArray*, char const*, int))}
PUBLIC 8524c 0 {virtual override thunk({offset(-408)}, RecommendedLayer::loadLevelsFailed(char const*, int))}
PUBLIC 8525c 0 _GLOBAL__sub_I_RecommendedLayer.cpp
PUBLIC 85d88 0 SupportPopup::setup()
PUBLIC 861e8 0 SupportPopup::onSupport(cocos2d::CCObject*)
PUBLIC 862a0 0 SupportPopup::getSupporters(cocos2d::CCObject*)
PUBLIC 864ac 0 SupportPopup::create()
PUBLIC 86610 0 SupportPopup::~SupportPopup()
PUBLIC 866c4 0 {virtual override thunk({offset(-320)}, SupportPopup::~SupportPopup())}
PUBLIC 866cc 0 SupportPopup::~SupportPopup()
PUBLIC 866f0 0 {virtual override thunk({offset(-320)}, SupportPopup::~SupportPopup())}
PUBLIC 86718 0 SupporterList::setup()
PUBLIC 86a18 0 SupporterList::~SupporterList()
PUBLIC 86b50 0 {virtual override thunk({offset(-320)}, SupporterList::~SupporterList())}
PUBLIC 86b58 0 SupporterList::~SupporterList()
PUBLIC 86b7c 0 {virtual override thunk({offset(-320)}, SupporterList::~SupporterList())}
PUBLIC 86ba4 0 std::__ndk1::__function::__func<SupporterList::setup()::$_0, std::__ndk1::allocator<SupporterList::setup()::$_0>, void (geode::Task<geode::utils::web::WebResponse, geode::utils::web::WebProgress>::Event*)>::~__func()
PUBLIC 86ba8 0 std::__ndk1::__function::__func<SupporterList::setup()::$_0, std::__ndk1::allocator<SupporterList::setup()::$_0>, void (geode::Task<geode::utils::web::WebResponse, geode::utils::web::WebProgress>::Event*)>::__clone() const
PUBLIC 86bdc 0 std::__ndk1::__function::__func<SupporterList::setup()::$_0, std::__ndk1::allocator<SupporterList::setup()::$_0>, void (geode::Task<geode::utils::web::WebResponse, geode::utils::web::WebProgress>::Event*)>::__clone(std::__ndk1::__function::__base<void (geode::Task<geode::utils::web::WebResponse, geode::utils::web::WebProgress>::Event*)>*) const
PUBLIC 86bf0 0 std::__ndk1::__function::__func<SupporterList::setup()::$_0, std::__ndk1::allocator<SupporterList::setup()::$_0>, void (geode::Task<geode::utils::web::WebResponse, geode::utils::web::WebProgress>::Event*)>::destroy()
PUBLIC 86bf4 0 std::__ndk1::__function::__func<SupporterList::setup()::$_0, std::__ndk1::allocator<SupporterList::setup()::$_0>, void (geode::Task<geode::utils::web::WebResponse, geode::utils::web::WebProgress>::Event*)>::destroy_deallocate()
PUBLIC 86bf8 0 std::__ndk1::__function::__func<SupporterList::setup()::$_0, std::__ndk1::allocator<SupporterList::setup()::$_0>, void (geode::Task<geode::utils::web::WebResponse, geode::utils::web::WebProgress>::Event*)>::operator()(geode::Task<geode::utils::web::WebResponse, geode::utils::web::WebProgress>::Event*&&)
PUBLIC 87168 0 std::__ndk1::__function::__func<SupporterList::setup()::$_0, std::__ndk1::allocator<SupporterList::setup()::$_0>, void (geode::Task<geode::utils::web::WebResponse, geode::utils::web::WebProgress>::Event*)>::target(std::type_info const&) const
PUBLIC 87184 0 std::__ndk1::__function::__func<SupporterList::setup()::$_0, std::__ndk1::allocator<SupporterList::setup()::$_0>, void (geode::Task<geode::utils::web::WebResponse, geode::utils::web::WebProgress>::Event*)>::target_type() const
PUBLIC 87190 0 NewsPopup::setup()
PUBLIC 8793c 0 NewsPopup::pageLeft(cocos2d::CCObject*)
PUBLIC 8794c 0 NewsPopup::pageRight(cocos2d::CCObject*)
PUBLIC 8795c 0 NewsPopup::firstPage(cocos2d::CCObject*)
PUBLIC 87968 0 NewsPopup::lastPage(cocos2d::CCObject*)
PUBLIC 87a74 0 NewsPopup::loadPage(int)
PUBLIC 87f2c 0 geode::impl::ResultData<std::__ndk1::vector<matjson::Value, std::__ndk1::allocator<matjson::Value> >, std::__ndk1::basic_string<char, std::__ndk1::char_traits<char>, std::__ndk1::allocator<char> > >::~ResultData()
PUBLIC 87fa0 0 NewsPopup::NewsPopup()
PUBLIC 88140 0 NewsPopup::~NewsPopup()
PUBLIC 88280 0 {virtual override thunk({offset(-320)}, NewsPopup::~NewsPopup())}
PUBLIC 88288 0 NewsPopup::~NewsPopup()
PUBLIC 882ac 0 {virtual override thunk({offset(-320)}, NewsPopup::~NewsPopup())}
PUBLIC 882d4 0 std::__ndk1::__function::__func<NewsPopup::setup()::$_0, std::__ndk1::allocator<NewsPopup::setup()::$_0>, void (geode::Task<geode::utils::web::WebResponse, geode::utils::web::WebProgress>::Event*)>::~__func()
PUBLIC 882d8 0 std::__ndk1::__function::__func<NewsPopup::setup()::$_0, std::__ndk1::allocator<NewsPopup::setup()::$_0>, void (geode::Task<geode::utils::web::WebResponse, geode::utils::web::WebProgress>::Event*)>::__clone() const
PUBLIC 8830c 0 std::__ndk1::__function::__func<NewsPopup::setup()::$_0, std::__ndk1::allocator<NewsPopup::setup()::$_0>, void (geode::Task<geode::utils::web::WebResponse, geode::utils::web::WebProgress>::Event*)>::__clone(std::__ndk1::__function::__base<void (geode::Task<geode::utils::web::WebResponse, geode::utils::web::WebProgress>::Event*)>*) const
PUBLIC 88320 0 std::__ndk1::__function::__func<NewsPopup::setup()::$_0, std::__ndk1::allocator<NewsPopup::setup()::$_0>, void (geode::Task<geode::utils::web::WebResponse, geode::utils::web::WebProgress>::Event*)>::destroy()
PUBLIC 88324 0 std::__ndk1::__function::__func<NewsPopup::setup()::$_0, std::__ndk1::allocator<NewsPopup::setup()::$_0>, void (geode::Task<geode::utils::web::WebResponse, geode::utils::web::WebProgress>::Event*)>::destroy_deallocate()
PUBLIC 88328 0 std::__ndk1::__function::__func<NewsPopup::setup()::$_0, std::__ndk1::allocator<NewsPopup::setup()::$_0>, void (geode::Task<geode::utils::web::WebResponse, geode::utils::web::WebProgress>::Event*)>::operator()(geode::Task<geode::utils::web::WebResponse, geode::utils::web::WebProgress>::Event*&&)
PUBLIC 886c0 0 std::__ndk1::__function::__func<NewsPopup::setup()::$_0, std::__ndk1::allocator<NewsPopup::setup()::$_0>, void (geode::Task<geode::utils::web::WebResponse, geode::utils::web::WebProgress>::Event*)>::target(std::type_info const&) const
PUBLIC 886dc 0 std::__ndk1::__function::__func<NewsPopup::setup()::$_0, std::__ndk1::allocator<NewsPopup::setup()::$_0>, void (geode::Task<geode::utils::web::WebResponse, geode::utils::web::WebProgress>::Event*)>::target_type() const
PUBLIC 886e8 0 XPUtils::getTotalWeightedSum(std::__ndk1::basic_string<char, std::__ndk1::char_traits<char>, std::__ndk1::allocator<char> >)
PUBLIC 88b74 0 XPUtils::getXP()
PUBLIC 89300 0 geode::Mod::setSavedValue<std::__ndk1::vector<float, std::__ndk1::allocator<float> > >(std::__ndk1::basic_string_view<char, std::__ndk1::char_traits<char> >, std::__ndk1::vector<float, std::__ndk1::allocator<float> > const&)
PUBLIC 89408 0 XPUtils::getLevels()
PUBLIC 89c48 0 geode::Mod::getSavedValue<std::__ndk1::vector<float, std::__ndk1::allocator<float> > >(std::__ndk1::basic_string_view<char, std::__ndk1::char_traits<char> >)
PUBLIC 89e5c 0 std::__ndk1::vector<float, std::__ndk1::allocator<float> >::__throw_length_error[abi:ne180000]() const
PUBLIC 89e70 0 _ZN7matjson9SerializeINSt6__ndk16vectorIfNS1_9allocatorIfEEEEE6toJsonERKS5_QrQRKT__XcvNS_5ValueEfp_E
PUBLIC 8a01c 0 geode::impl::ResultData<std::__ndk1::vector<float, std::__ndk1::allocator<float> >, std::__ndk1::basic_string<char, std::__ndk1::char_traits<char>, std::__ndk1::allocator<char> > >::~ResultData()
PUBLIC 8a090 0 _ZN7matjson9SerializeINSt6__ndk16vectorIfNS1_9allocatorIfEEEEE8fromJsonERKNS_5ValueEQrQS9__Xcldtfp_2asIT_EEE
PUBLIC 8a61c 0 matjson::Value::as<float>() const
PUBLIC 8a724 0 geode::impl::ResultData<float, std::__ndk1::basic_string<char, std::__ndk1::char_traits<char>, std::__ndk1::allocator<char> > >::~ResultData()
PUBLIC 8a798 0 std::__ndk1::__variant_detail::__visitation::__base::__dispatcher<(unsigned long)0>::__dispatch[abi:ne180000]<std::__ndk1::__variant_detail::__dtor<std::__ndk1::__variant_detail::__traits<double, std::__ndk1::basic_string<char, std::__ndk1::char_traits<char>, std::__ndk1::allocator<char> > >, (std::__ndk1::__variant_detail::_Trait)1>::__destroy[abi:ne180000]()::{lambda(auto:1&)#1}, std::__ndk1::__variant_detail::__base<(std::__ndk1::__variant_detail::__traits<double, std::__ndk1::basic_string<char, std::__ndk1::char_traits<char>, std::__ndk1::allocator<char> > >)1, double, std::__ndk1::allocator<char> >&>(std::__ndk1::__variant_detail::__dtor<std::__ndk1::__variant_detail::__traits<double, std::__ndk1::basic_string<char, std::__ndk1::char_traits<char>, std::__ndk1::allocator<char> > >, (std::__ndk1::__variant_detail::_Trait)1>, std::__ndk1::__variant_detail::__base<(std::__ndk1::__variant_detail::__traits<double, std::__ndk1::basic_string<char, std::__ndk1::char_traits<char>, std::__ndk1::allocator<char> > >)1, double, std::__ndk1::allocator<char> >&)
PUBLIC 8a79c 0 std::__ndk1::__variant_detail::__visitation::__base::__dispatcher<(unsigned long)1>::__dispatch[abi:ne180000]<std::__ndk1::__variant_detail::__dtor<std::__ndk1::__variant_detail::__traits<double, std::__ndk1::basic_string<char, std::__ndk1::char_traits<char>, std::__ndk1::allocator<char> > >, (std::__ndk1::__variant_detail::_Trait)1>::__destroy[abi:ne180000]()::{lambda(auto:1&)#1}, std::__ndk1::__variant_detail::__base<(std::__ndk1::__variant_detail::__traits<double, std::__ndk1::basic_string<char, std::__ndk1::char_traits<char>, std::__ndk1::allocator<char> > >)1, double, std::__ndk1::allocator<char> >&>(std::__ndk1::__variant_detail::__dtor<std::__ndk1::__variant_detail::__traits<double, std::__ndk1::basic_string<char, std::__ndk1::char_traits<char>, std::__ndk1::allocator<char> > >, (std::__ndk1::__variant_detail::_Trait)1>, std::__ndk1::__variant_detail::__base<(std::__ndk1::__variant_detail::__traits<double, std::__ndk1::basic_string<char, std::__ndk1::char_traits<char>, std::__ndk1::allocator<char> > >)1, double, std::__ndk1::allocator<char> >&)
PUBLIC 8a7b0 0 std::__ndk1::__variant_detail::__visitation::__base::__dispatcher<(unsigned long)0>::__dispatch[abi:ne180000]<std::__ndk1::__variant_detail::__dtor<std::__ndk1::__variant_detail::__traits<float, std::__ndk1::basic_string<char, std::__ndk1::char_traits<char>, std::__ndk1::allocator<char> > >, (std::__ndk1::__variant_detail::_Trait)1>::__destroy[abi:ne180000]()::{lambda(auto:1&)#1}, std::__ndk1::__variant_detail::__base<(std::__ndk1::__variant_detail::__traits<float, std::__ndk1::basic_string<char, std::__ndk1::char_traits<char>, std::__ndk1::allocator<char> > >)1, float, std::__ndk1::allocator<char> >&>(std::__ndk1::__variant_detail::__dtor<std::__ndk1::__variant_detail::__traits<float, std::__ndk1::basic_string<char, std::__ndk1::char_traits<char>, std::__ndk1::allocator<char> > >, (std::__ndk1::__variant_detail::_Trait)1>, std::__ndk1::__variant_detail::__base<(std::__ndk1::__variant_detail::__traits<float, std::__ndk1::basic_string<char, std::__ndk1::char_traits<char>, std::__ndk1::allocator<char> > >)1, float, std::__ndk1::allocator<char> >&)
PUBLIC 8a7b4 0 std::__ndk1::__variant_detail::__visitation::__base::__dispatcher<(unsigned long)1>::__dispatch[abi:ne180000]<std::__ndk1::__variant_detail::__dtor<std::__ndk1::__variant_detail::__traits<float, std::__ndk1::basic_string<char, std::__ndk1::char_traits<char>, std::__ndk1::allocator<char> > >, (std::__ndk1::__variant_detail::_Trait)1>::__destroy[abi:ne180000]()::{lambda(auto:1&)#1}, std::__ndk1::__variant_detail::__base<(std::__ndk1::__variant_detail::__traits<float, std::__ndk1::basic_string<char, std::__ndk1::char_traits<char>, std::__ndk1::allocator<char> > >)1, float, std::__ndk1::allocator<char> >&>(std::__ndk1::__variant_detail::__dtor<std::__ndk1::__variant_detail::__traits<float, std::__ndk1::basic_string<char, std::__ndk1::char_traits<char>, std::__ndk1::allocator<char> > >, (std::__ndk1::__variant_detail::_Trait)1>, std::__ndk1::__variant_detail::__base<(std::__ndk1::__variant_detail::__traits<float, std::__ndk1::basic_string<char, std::__ndk1::char_traits<char>, std::__ndk1::allocator<char> > >)1, float, std::__ndk1::allocator<char> >&)
PUBLIC 8a7c8 0 std::__ndk1::__variant_detail::__visitation::__base::__dispatcher<(unsigned long)0>::__dispatch[abi:ne180000]<std::__ndk1::__variant_detail::__dtor<std::__ndk1::__variant_detail::__traits<std::__ndk1::vector<float, std::__ndk1::allocator<float> >, std::__ndk1::basic_string<char, std::__ndk1::char_traits<char>, std::__ndk1::vector<char> > >, (std::__ndk1::__variant_detail::_Trait)1>::__destroy[abi:ne180000]()::{lambda(auto:1&)#1}, std::__ndk1::__variant_detail::__base<(std::__ndk1::__variant_detail::__traits<std::__ndk1::vector<float, std::__ndk1::allocator<float> >, std::__ndk1::basic_string<char, std::__ndk1::char_traits<char>, std::__ndk1::vector<char> > >)1, std::__ndk1::allocator<float>, std::__ndk1::vector<char> >&>(std::__ndk1::__variant_detail::__dtor<std::__ndk1::__variant_detail::__traits<std::__ndk1::vector<float, std::__ndk1::allocator<float> >, std::__ndk1::basic_string<char, std::__ndk1::char_traits<char>, std::__ndk1::vector<char> > >, (std::__ndk1::__variant_detail::_Trait)1>, std::__ndk1::__variant_detail::__base<(std::__ndk1::__variant_detail::__traits<std::__ndk1::vector<float, std::__ndk1::allocator<float> >, std::__ndk1::basic_string<char, std::__ndk1::char_traits<char>, std::__ndk1::vector<char> > >)1, std::__ndk1::allocator<float>, std::__ndk1::vector<char> >&)
PUBLIC 8a7dc 0 std::__ndk1::__variant_detail::__visitation::__base::__dispatcher<(unsigned long)1>::__dispatch[abi:ne180000]<std::__ndk1::__variant_detail::__dtor<std::__ndk1::__variant_detail::__traits<std::__ndk1::vector<float, std::__ndk1::allocator<float> >, std::__ndk1::basic_string<char, std::__ndk1::char_traits<char>, std::__ndk1::vector<char> > >, (std::__ndk1::__variant_detail::_Trait)1>::__destroy[abi:ne180000]()::{lambda(auto:1&)#1}, std::__ndk1::__variant_detail::__base<(std::__ndk1::__variant_detail::__traits<std::__ndk1::vector<float, std::__ndk1::allocator<float> >, std::__ndk1::basic_string<char, std::__ndk1::char_traits<char>, std::__ndk1::vector<char> > >)1, std::__ndk1::allocator<float>, std::__ndk1::vector<char> >&>(std::__ndk1::__variant_detail::__dtor<std::__ndk1::__variant_detail::__traits<std::__ndk1::vector<float, std::__ndk1::allocator<float> >, std::__ndk1::basic_string<char, std::__ndk1::char_traits<char>, std::__ndk1::vector<char> > >, (std::__ndk1::__variant_detail::_Trait)1>, std::__ndk1::__variant_detail::__base<(std::__ndk1::__variant_detail::__traits<std::__ndk1::vector<float, std::__ndk1::allocator<float> >, std::__ndk1::basic_string<char, std::__ndk1::char_traits<char>, std::__ndk1::vector<char> > >)1, std::__ndk1::allocator<float>, std::__ndk1::vector<char> >&)
PUBLIC 8a7f0 0 _GLOBAL__sub_I_XPUtils.cpp
PUBLIC 8abe0 0 XPPopup::setup()
PUBLIC 8bf80 0 XPPopup::create()
PUBLIC 8c0e4 0 XPPopup::~XPPopup()
PUBLIC 8c198 0 {virtual override thunk({offset(-320)}, XPPopup::~XPPopup())}
PUBLIC 8c1a0 0 XPPopup::~XPPopup()
PUBLIC 8c1c4 0 {virtual override thunk({offset(-320)}, XPPopup::~XPPopup())}
PUBLIC 8c1ec 0 DemonXPPopup::setup()
PUBLIC 8cd44 0 DemonXPPopup::create(int)
PUBLIC 8ceb8 0 DemonXPPopup::~DemonXPPopup()
PUBLIC 8cf6c 0 {virtual override thunk({offset(-320)}, DemonXPPopup::~DemonXPPopup())}
PUBLIC 8cf74 0 DemonXPPopup::~DemonXPPopup()
PUBLIC 8cf98 0 {virtual override thunk({offset(-320)}, DemonXPPopup::~DemonXPPopup())}
PUBLIC 8cfc0 0 _GLOBAL__sub_I_XPPopup.cpp
PUBLIC 8d42c 0 RecommendedUtils::validateLevels()
PUBLIC 8d9d8 0 RecommendedUtils::generateRecommendations()
PUBLIC 90b48 0 std::__ndk1::vector<SkillSort, std::__ndk1::allocator<SkillSort> >::__throw_length_error[abi:ne180000]() const
PUBLIC 90b5c 0 std::__ndk1::__introsort<std::__ndk1::_ClassicAlgPolicy, std::__ndk1::greater<SkillSort>&, SkillSort*, false>(SkillSort*, SkillSort*, std::__ndk1::greater<SkillSort>&, std::__ndk1::iterator_traits<SkillSort*>::difference_type, bool)
PUBLIC 91638 0 std::__ndk1::__insertion_sort_incomplete[abi:ne180000]<std::__ndk1::_ClassicAlgPolicy, std::__ndk1::greater<SkillSort>&, std::__ndk1::greater*>(std::__ndk1::greater*, std::__ndk1::greater*, std::__ndk1::greater<SkillSort>&)
PUBLIC 919a0 0 std::__ndk1::__sort5[abi:ne180000]<std::__ndk1::_ClassicAlgPolicy, std::__ndk1::greater<SkillSort>&, std::__ndk1::greater*>(std::__ndk1::greater*, std::__ndk1::greater*, std::__ndk1::greater*, std::__ndk1::greater*, std::__ndk1::greater*, std::__ndk1::greater<SkillSort>&)
PUBLIC 91b58 0 fmt::v11::detail::value<fmt::v11::context>::format_custom_arg<std::__ndk1::vector<int, std::__ndk1::allocator<int> >, fmt::v11::formatter<std::__ndk1::vector<int, std::__ndk1::allocator<int> >, char, void> >(void*, fmt::v11::basic_format_parse_context<char>&, fmt::v11::context&)
PUBLIC 92280 0 fmt::v11::detail::write_int_noinline<char, fmt::v11::basic_appender<char>, unsigned int>(fmt::v11::basic_appender<char>, fmt::v11::detail::write_int_arg<unsigned int>, fmt::v11::format_specs const&, fmt::v11::detail::locale_ref)
PUBLIC 92c24 0 fmt::v11::detail::copy_noinline<char, char*, fmt::v11::basic_appender<char> >(char*, char*, fmt::v11::basic_appender<char>)
PUBLIC 92d74 0 fmt::v11::detail::write_int<char, fmt::v11::basic_appender<char>, fmt::v11::detail::write_int<char, fmt::v11::basic_appender<char>, unsigned int>(fmt::v11::basic_appender<char>, fmt::v11::detail::write_int_arg<unsigned int>, fmt::v11::format_specs const&, fmt::v11::detail::locale_ref)::{lambda(fmt::v11::basic_appender<char>)#1}>(fmt::v11::basic_appender<char>, int, unsigned int, fmt::v11::format_specs const&, fmt::v11::detail::write_int<char, fmt::v11::basic_appender<char>, unsigned int>(fmt::v11::basic_appender<char>, fmt::v11::detail::write_int_arg<unsigned int>, fmt::v11::format_specs const&, fmt::v11::detail::locale_ref)::{lambda(fmt::v11::basic_appender<char>)#1})::{lambda(fmt::v11::basic_appender<char>(fmt::v11::basic_appender<char>))#1}::operator() const
PUBLIC 92f04 0 fmt::v11::detail::write_int<char, fmt::v11::basic_appender<char>, fmt::v11::detail::write_int<char, fmt::v11::basic_appender<char>, unsigned int>(fmt::v11::basic_appender<char>, fmt::v11::detail::write_int_arg<unsigned int>, fmt::v11::format_specs const&, fmt::v11::detail::locale_ref)::{lambda(fmt::v11::basic_appender<char>)#2}>(fmt::v11::basic_appender<char>, int, unsigned int, fmt::v11::format_specs const&, fmt::v11::detail::write_int<char, fmt::v11::basic_appender<char>, unsigned int>(fmt::v11::basic_appender<char>, fmt::v11::detail::write_int_arg<unsigned int>, fmt::v11::format_specs const&, fmt::v11::detail::locale_ref)::{lambda(fmt::v11::basic_appender<char>)#2})::{lambda(fmt::v11::basic_appender<char>(fmt::v11::basic_appender<char>))#1}::operator() const
PUBLIC 930e8 0 fmt::v11::detail::write_int<char, fmt::v11::basic_appender<char>, fmt::v11::detail::write_int<char, fmt::v11::basic_appender<char>, unsigned int>(fmt::v11::basic_appender<char>, fmt::v11::detail::write_int_arg<unsigned int>, fmt::v11::format_specs const&, fmt::v11::detail::locale_ref)::{lambda(fmt::v11::basic_appender<char>)#3}>(fmt::v11::basic_appender<char>, int, unsigned int, fmt::v11::format_specs const&, fmt::v11::detail::write_int<char, fmt::v11::basic_appender<char>, unsigned int>(fmt::v11::basic_appender<char>, fmt::v11::detail::write_int_arg<unsigned int>, fmt::v11::format_specs const&, fmt::v11::detail::locale_ref)::{lambda(fmt::v11::basic_appender<char>)#3})::{lambda(fmt::v11::basic_appender<char>(fmt::v11::basic_appender<char>))#1}::operator() const
PUBLIC 93290 0 fmt::v11::detail::write_int<char, fmt::v11::basic_appender<char>, fmt::v11::detail::write_int<char, fmt::v11::basic_appender<char>, unsigned int>(fmt::v11::basic_appender<char>, fmt::v11::detail::write_int_arg<unsigned int>, fmt::v11::format_specs const&, fmt::v11::detail::locale_ref)::{lambda(fmt::v11::basic_appender<char>)#4}>(fmt::v11::basic_appender<char>, int, unsigned int, fmt::v11::format_specs const&, fmt::v11::detail::write_int<char, fmt::v11::basic_appender<char>, unsigned int>(fmt::v11::basic_appender<char>, fmt::v11::detail::write_int_arg<unsigned int>, fmt::v11::format_specs const&, fmt::v11::detail::locale_ref)::{lambda(fmt::v11::basic_appender<char>)#4})::{lambda(fmt::v11::basic_appender<char>(fmt::v11::basic_appender<char>))#1}::operator() const
PUBLIC 9343c 0 fmt::v11::detail::write_padded<char, (fmt::v11::align::type)1, fmt::v11::basic_appender<char>, fmt::v11::detail::write_char<char, fmt::v11::basic_appender<char> >(fmt::v11::basic_appender<char>, char, fmt::v11::format_specs const&)::{lambda(fmt::v11::basic_appender<char>&)#1}>(fmt::v11::basic_appender<char>, fmt::v11::format_specs const&, unsigned long, unsigned long, fmt::v11::detail::write_char<char, fmt::v11::basic_appender<char> >(fmt::v11::basic_appender<char>, char, fmt::v11::format_specs const&)::{lambda(fmt::v11::basic_appender<char>&)#1})
PUBLIC 93544 0 fmt::v11::detail::write_escaped_char<char, fmt::v11::basic_appender<char> >(fmt::v11::basic_appender<char>, char)
PUBLIC 936bc 0 _GLOBAL__sub_I_RecommendedUtils.cpp
PUBLIC 941e8 0 DPSearchLayer::keyBackClicked()
PUBLIC 9420c 0 {virtual override thunk({offset(-336)}, DPSearchLayer::keyBackClicked())}
PUBLIC 94230 0 DPSearchLayer::backButton(cocos2d::CCObject*)
PUBLIC 9423c 0 std::__ndk1::vector<CompareName, std::__ndk1::allocator<CompareName> >::~vector[abi:ne180000]()
PUBLIC 942c4 0 DPSearchLayer::init(std::__ndk1::vector<int, std::__ndk1::allocator<int> >)
PUBLIC 9576c 0 DPSearchLayer::reloadLevels(cocos2d::CCObject*)
PUBLIC 957b8 0 DPSearchLayer::pageLeft(cocos2d::CCObject*)
PUBLIC 957c8 0 DPSearchLayer::pageRight(cocos2d::CCObject*)
PUBLIC 957d8 0 DPSearchLayer::pageFirst(cocos2d::CCObject*)
PUBLIC 957e4 0 DPSearchLayer::pageLast(cocos2d::CCObject*)
PUBLIC 95838 0 DPSearchLayer::pageSelect(cocos2d::CCObject*)
PUBLIC 959ac 0 DPSearchLayer::setFilter(cocos2d::CCObject*)
PUBLIC 97368 0 DPSearchLayer::loadLevels(int)
PUBLIC 97c44 0 DPSearchLayer::loadLevelsFinished(cocos2d::CCArray*, char const*)
PUBLIC 97ea8 0 {virtual override thunk({offset(-408)}, DPSearchLayer::loadLevelsFinished(cocos2d::CCArray*, char const*))}
PUBLIC 97eb0 0 DPSearchLayer::loadLevelsFailed(char const*)
PUBLIC 97f2c 0 {virtual override thunk({offset(-408)}, DPSearchLayer::loadLevelsFailed(char const*))}
PUBLIC 97fa4 0 DPSearchLayer::create(std::__ndk1::vector<int, std::__ndk1::allocator<int> >)
PUBLIC 980fc 0 DPSearchLayer::DPSearchLayer()
PUBLIC 9826c 0 DPSearchLayer::~DPSearchLayer()
PUBLIC 983fc 0 {virtual override thunk({offset(-320)}, DPSearchLayer::~DPSearchLayer())}
PUBLIC 98404 0 DPSearchLayer::~DPSearchLayer()
PUBLIC 98428 0 {virtual override thunk({offset(-320)}, DPSearchLayer::~DPSearchLayer())}
PUBLIC 98450 0 PagePopup::setup()
PUBLIC 98b10 0 PagePopup::confirmPage(cocos2d::CCObject*)
PUBLIC 98c88 0 PagePopup::resetPage(cocos2d::CCObject*)
PUBLIC 98d20 0 PagePopup::pageLeft(cocos2d::CCObject*)
PUBLIC 98e08 0 PagePopup::pageRight(cocos2d::CCObject*)
PUBLIC 98ef0 0 PagePopup::~PagePopup()
PUBLIC 98fa4 0 {virtual override thunk({offset(-320)}, PagePopup::~PagePopup())}
PUBLIC 98fac 0 PagePopup::~PagePopup()
PUBLIC 98fd0 0 {virtual override thunk({offset(-320)}, PagePopup::~PagePopup())}
PUBLIC 98ff8 0 DPSearchLayer::loadLevelsFinished(cocos2d::CCArray*, char const*, int)
PUBLIC 99004 0 DPSearchLayer::loadLevelsFailed(char const*, int)
PUBLIC 99010 0 {virtual override thunk({offset(-408)}, DPSearchLayer::loadLevelsFinished(cocos2d::CCArray*, char const*, int))}
PUBLIC 99020 0 {virtual override thunk({offset(-408)}, DPSearchLayer::loadLevelsFailed(char const*, int))}
PUBLIC 99030 0 std::__ndk1::vector<CompareDifficulty, std::__ndk1::allocator<CompareDifficulty> >::__throw_length_error[abi:ne180000]() const
PUBLIC 99044 0 std::__ndk1::__introsort<std::__ndk1::_ClassicAlgPolicy, std::__ndk1::__less<void, void>&, CompareDifficulty*, false>(CompareDifficulty*, CompareDifficulty*, std::__ndk1::__less<void, void>&, std::__ndk1::iterator_traits<CompareDifficulty*>::difference_type, bool)
PUBLIC 99b04 0 std::__ndk1::__insertion_sort_incomplete[abi:ne180000]<std::__ndk1::_ClassicAlgPolicy, std::__ndk1::__less<void, void>&, CompareDifficulty*>(CompareDifficulty*, CompareDifficulty*, std::__ndk1::__less<void, void>&)
PUBLIC 99e40 0 std::__ndk1::__sort5[abi:ne180000]<std::__ndk1::_ClassicAlgPolicy, std::__ndk1::__less<void, void>&, CompareDifficulty*>(CompareDifficulty*, CompareDifficulty*, CompareDifficulty*, CompareDifficulty*, CompareDifficulty*, std::__ndk1::__less<void, void>&)
PUBLIC 99fdc 0 std::__ndk1::vector<CompareName, std::__ndk1::allocator<CompareName> >::__throw_length_error[abi:ne180000]() const
PUBLIC 99ff0 0 std::__ndk1::__introsort<std::__ndk1::_ClassicAlgPolicy, std::__ndk1::__less<void, void>&, CompareName*, false>(CompareName*, CompareName*, std::__ndk1::__less<void, void>&, std::__ndk1::iterator_traits<CompareName*>::difference_type, bool)
PUBLIC 9b3a0 0 std::__ndk1::__sort3[abi:ne180000]<std::__ndk1::_ClassicAlgPolicy, std::__ndk1::__less<void, void>&, CompareName*>(CompareName*, CompareName*, CompareName*, std::__ndk1::__less<void, void>&)
PUBLIC 9b758 0 std::__ndk1::__insertion_sort_incomplete[abi:ne180000]<std::__ndk1::_ClassicAlgPolicy, std::__ndk1::__less<void, void>&, CompareName*>(CompareName*, CompareName*, std::__ndk1::__less<void, void>&)
PUBLIC 9bb18 0 std::__ndk1::__sort4[abi:ne180000]<std::__ndk1::_ClassicAlgPolicy, std::__ndk1::__less<void, void>&, CompareName*>(CompareName*, CompareName*, CompareName*, CompareName*, std::__ndk1::__less<void, void>&)
PUBLIC 9bdb8 0 std::__ndk1::__sort5[abi:ne180000]<std::__ndk1::_ClassicAlgPolicy, std::__ndk1::__less<void, void>&, CompareName*>(CompareName*, CompareName*, CompareName*, CompareName*, CompareName*, std::__ndk1::__less<void, void>&)
PUBLIC 9c118 0 std::__ndk1::vector<int, std::__ndk1::allocator<int> >::__assign_with_size[abi:ne180000]<int*, std::__ndk1::vector<int, std::__ndk1::allocator<int> >::__assign_with_size[abi:ne180000]>(int*, std::__ndk1::vector<int, std::__ndk1::allocator<int> >::__assign_with_size[abi:ne180000], long)
PUBLIC 9c248 0 std::__ndk1::__introsort<std::__ndk1::_ClassicAlgPolicy, DPSearchLayer::setFilter(cocos2d::CCObject*)::$_0&, int*, false>(int*, int*, DPSearchLayer::setFilter(cocos2d::CCObject*)::$_0&, std::__ndk1::iterator_traits<int*>::difference_type, bool)
PUBLIC 9ccbc 0 std::__ndk1::__insertion_sort_incomplete[abi:ne180000]<std::__ndk1::_ClassicAlgPolicy, DPSearchLayer::setFilter(cocos2d::CCObject*)::$_0&, int*>(int*, int*, DPSearchLayer::setFilter(cocos2d::CCObject*)::$_0&)
PUBLIC 9d0bc 0 SearchPopup::setup()
PUBLIC 9ed28 0 SearchPopup::onTab(cocos2d::CCObject*)
PUBLIC 9ee90 0 SearchPopup::checkAll(cocos2d::CCObject*)
PUBLIC 9eff8 0 SearchPopup::uncheckAll(cocos2d::CCObject*)
PUBLIC 9f160 0 SearchPopup::onToggle(cocos2d::CCObject*)
PUBLIC 9f3c8 0 SearchPopup::onSearch(cocos2d::CCObject*)
PUBLIC a0bbc 0 SearchPopup::loadTab(int)
PUBLIC a5234 0 geode::Mod::getSavedValue<std::__ndk1::vector<bool, std::__ndk1::allocator<bool> > >(std::__ndk1::basic_string_view<char, std::__ndk1::char_traits<char> >, std::__ndk1::vector<bool, std::__ndk1::allocator<bool> > const&)
PUBLIC a5464 0 geode::Mod::getSavedValue<std::__ndk1::vector<int, std::__ndk1::allocator<int> > >(std::__ndk1::basic_string_view<char, std::__ndk1::char_traits<char> >, std::__ndk1::vector<int, std::__ndk1::allocator<int> > const&)
PUBLIC a573c 0 SearchPopup::saveFilters()
PUBLIC a59f4 0 geode::Mod::setSavedValue<std::__ndk1::vector<bool, std::__ndk1::allocator<bool> > >(std::__ndk1::basic_string_view<char, std::__ndk1::char_traits<char> >, std::__ndk1::vector<bool, std::__ndk1::allocator<bool> > const&)
PUBLIC a5c48 0 SearchPopup::onXpValue(cocos2d::CCObject*)
PUBLIC a611c 0 SearchPopup::onXpMode(cocos2d::CCObject*)
PUBLIC a6610 0 SearchPopup::SearchPopup()
PUBLIC a68d0 0 SearchPopup::~SearchPopup()
PUBLIC a69d4 0 {virtual override thunk({offset(-320)}, SearchPopup::~SearchPopup())}
PUBLIC a69dc 0 SearchPopup::~SearchPopup()
PUBLIC a6a00 0 {virtual override thunk({offset(-320)}, SearchPopup::~SearchPopup())}
PUBLIC a6a28 0 std::__ndk1::vector<bool, std::__ndk1::allocator<bool> >::__throw_length_error[abi:ne180000]() const
PUBLIC a6a3c 0 std::__ndk1::vector<bool, std::__ndk1::allocator<bool> >::reserve(unsigned long)
PUBLIC a6b40 0 std::__ndk1::vector<bool, std::__ndk1::allocator<bool> >::vector(std::__ndk1::vector<bool, std::__ndk1::allocator<bool> > const&)
PUBLIC a6c44 0 geode::impl::ResultData<std::__ndk1::vector<bool, std::__ndk1::allocator<bool> >, std::__ndk1::basic_string<char, std::__ndk1::char_traits<char>, std::__ndk1::allocator<char> > >::~ResultData()
PUBLIC a6cb8 0 _ZN7matjson9SerializeINSt6__ndk16vectorIbNS1_9allocatorIbEEEEE8fromJsonERKNS_5ValueEQrQS9__Xcldtfp_2asIT_EEE
PUBLIC a6fd0 0 std::__ndk1::__variant_detail::__visitation::__base::__dispatcher<(unsigned long)0>::__dispatch[abi:ne180000]<std::__ndk1::__variant_detail::__dtor<std::__ndk1::__variant_detail::__traits<std::__ndk1::vector<bool, std::__ndk1::allocator<bool> >, std::__ndk1::basic_string<char, std::__ndk1::char_traits<char>, std::__ndk1::vector<char> > >, (std::__ndk1::__variant_detail::_Trait)1>::__destroy[abi:ne180000]()::{lambda(auto:1&)#1}, std::__ndk1::__variant_detail::__base<(std::__ndk1::__variant_detail::__traits<std::__ndk1::vector<bool, std::__ndk1::allocator<bool> >, std::__ndk1::basic_string<char, std::__ndk1::char_traits<char>, std::__ndk1::vector<char> > >)1, std::__ndk1::allocator<bool>, std::__ndk1::vector<char> >&>(std::__ndk1::__variant_detail::__dtor<std::__ndk1::__variant_detail::__traits<std::__ndk1::vector<bool, std::__ndk1::allocator<bool> >, std::__ndk1::basic_string<char, std::__ndk1::char_traits<char>, std::__ndk1::vector<char> > >, (std::__ndk1::__variant_detail::_Trait)1>, std::__ndk1::__variant_detail::__base<(std::__ndk1::__variant_detail::__traits<std::__ndk1::vector<bool, std::__ndk1::allocator<bool> >, std::__ndk1::basic_string<char, std::__ndk1::char_traits<char>, std::__ndk1::vector<char> > >)1, std::__ndk1::allocator<bool>, std::__ndk1::vector<char> >&)
PUBLIC a6fe0 0 std::__ndk1::__variant_detail::__visitation::__base::__dispatcher<(unsigned long)1>::__dispatch[abi:ne180000]<std::__ndk1::__variant_detail::__dtor<std::__ndk1::__variant_detail::__traits<std::__ndk1::vector<bool, std::__ndk1::allocator<bool> >, std::__ndk1::basic_string<char, std::__ndk1::char_traits<char>, std::__ndk1::vector<char> > >, (std::__ndk1::__variant_detail::_Trait)1>::__destroy[abi:ne180000]()::{lambda(auto:1&)#1}, std::__ndk1::__variant_detail::__base<(std::__ndk1::__variant_detail::__traits<std::__ndk1::vector<bool, std::__ndk1::allocator<bool> >, std::__ndk1::basic_string<char, std::__ndk1::char_traits<char>, std::__ndk1::vector<char> > >)1, std::__ndk1::allocator<bool>, std::__ndk1::vector<char> >&>(std::__ndk1::__variant_detail::__dtor<std::__ndk1::__variant_detail::__traits<std::__ndk1::vector<bool, std::__ndk1::allocator<bool> >, std::__ndk1::basic_string<char, std::__ndk1::char_traits<char>, std::__ndk1::vector<char> > >, (std::__ndk1::__variant_detail::_Trait)1>, std::__ndk1::__variant_detail::__base<(std::__ndk1::__variant_detail::__traits<std::__ndk1::vector<bool, std::__ndk1::allocator<bool> >, std::__ndk1::basic_string<char, std::__ndk1::char_traits<char>, std::__ndk1::vector<char> > >)1, std::__ndk1::allocator<bool>, std::__ndk1::vector<char> >&)
PUBLIC a6ff4 0 _ZN7matjson9SerializeINSt6__ndk16vectorIbNS1_9allocatorIbEEEEE6toJsonERKS5_QrQRKT__XcvNS_5ValueEfp_E
PUBLIC a71d0 0 _GLOBAL__sub_I_SearchPopup.cpp
PUBLIC a763c 0 RouletteUtils::fromFlags(std::__ndk1::basic_string<char, std::__ndk1::char_traits<char>, std::__ndk1::allocator<char> >)
PUBLIC a7a24 0 RouletteUtils::setupLevels(std::__ndk1::vector<matjson::Value, std::__ndk1::allocator<matjson::Value> >, std::__ndk1::basic_string<char, std::__ndk1::char_traits<char>, std::__ndk1::allocator<char> >, int)
PUBLIC a86e0 0 RouletteUtils::exportSettings(std::__ndk1::basic_string<char, std::__ndk1::char_traits<char>, std::__ndk1::allocator<char> >, int)
PUBLIC a8910 0 RouletteUtils::importSettings(std::__ndk1::basic_string<char, std::__ndk1::char_traits<char>, std::__ndk1::allocator<char> >)
PUBLIC a8de0 0 RouletteUtils::createSave(std::__ndk1::basic_string<char, std::__ndk1::char_traits<char>, std::__ndk1::allocator<char> >, std::__ndk1::vector<int, std::__ndk1::allocator<int> >, std::__ndk1::basic_string<char, std::__ndk1::char_traits<char>, std::__ndk1::allocator<char> >, int)
PUBLIC a9234 0 geode::Mod::getSavedValue<std::__ndk1::vector<RouletteSaveFormat, std::__ndk1::allocator<RouletteSaveFormat> > >(std::__ndk1::basic_string_view<char, std::__ndk1::char_traits<char> >, std::__ndk1::vector<RouletteSaveFormat, std::__ndk1::allocator<RouletteSaveFormat> > const&)
PUBLIC a9498 0 std::__ndk1::vector<RouletteSaveFormat, std::__ndk1::allocator<RouletteSaveFormat> >::~vector[abi:ne180000]()
PUBLIC a954c 0 geode::Mod::setSavedValue<std::__ndk1::vector<RouletteSaveFormat, std::__ndk1::allocator<RouletteSaveFormat> > >(std::__ndk1::basic_string_view<char, std::__ndk1::char_traits<char> >, std::__ndk1::vector<RouletteSaveFormat, std::__ndk1::allocator<RouletteSaveFormat> > const&)
PUBLIC a9648 0 RouletteSaveFormat::~RouletteSaveFormat()
PUBLIC a969c 0 RouletteUtils::exportSave(matjson::Value, bool)
PUBLIC a9e60 0 geode::impl::ResultData<RouletteSaveFormat, std::__ndk1::basic_string<char, std::__ndk1::char_traits<char>, std::__ndk1::allocator<char> > >::~ResultData()
PUBLIC a9ed4 0 RouletteUtils::importSave(std::__ndk1::basic_string<char, std::__ndk1::char_traits<char>, std::__ndk1::allocator<char> >, bool)
PUBLIC aa9e4 0 RouletteUtils::deleteSaveAtPos(int)
PUBLIC aaca4 0 RouletteUtils::copySaveAtPos(int)
PUBLIC ab3dc 0 std::__ndk1::vector<RouletteSaveFormat, std::__ndk1::allocator<RouletteSaveFormat> >::__push_back_slow_path<RouletteSaveFormat const&>(RouletteSaveFormat const&)
PUBLIC ab644 0 RouletteSaveFormat::RouletteSaveFormat(RouletteSaveFormat const&)
PUBLIC ab798 0 std::__ndk1::__split_buffer<RouletteSaveFormat, std::__ndk1::allocator<RouletteSaveFormat>&>::~__split_buffer()
PUBLIC ab824 0 std::__ndk1::vector<RouletteSaveFormat, std::__ndk1::allocator<RouletteSaveFormat> >::__throw_length_error[abi:ne180000]() const
PUBLIC ab838 0 matjson::Serialize<RouletteSaveFormat>::fromJson(matjson::Value const&)
PUBLIC abca4 0 std::__ndk1::__variant_detail::__visitation::__base::__dispatcher<(unsigned long)0>::__dispatch[abi:ne180000]<std::__ndk1::__variant_detail::__dtor<std::__ndk1::__variant_detail::__traits<RouletteSaveFormat, std::__ndk1::basic_string<char, std::__ndk1::char_traits<char>, std::__ndk1::allocator<char> > >, (std::__ndk1::__variant_detail::_Trait)1>::__destroy[abi:ne180000]()::{lambda(auto:1&)#1}, std::__ndk1::__variant_detail::__base<(std::__ndk1::__variant_detail::__traits<RouletteSaveFormat, std::__ndk1::basic_string<char, std::__ndk1::char_traits<char>, std::__ndk1::allocator<char> > >)1, std::__ndk1::__variant_detail::__traits, std::__ndk1::allocator<char> >&>(std::__ndk1::__variant_detail::__dtor<std::__ndk1::__variant_detail::__traits<RouletteSaveFormat, std::__ndk1::basic_string<char, std::__ndk1::char_traits<char>, std::__ndk1::allocator<char> > >, (std::__ndk1::__variant_detail::_Trait)1>, std::__ndk1::__variant_detail::__base<(std::__ndk1::__variant_detail::__traits<RouletteSaveFormat, std::__ndk1::basic_string<char, std::__ndk1::char_traits<char>, std::__ndk1::allocator<char> > >)1, std::__ndk1::__variant_detail::__traits, std::__ndk1::allocator<char> >&)
PUBLIC abcf8 0 std::__ndk1::__variant_detail::__visitation::__base::__dispatcher<(unsigned long)1>::__dispatch[abi:ne180000]<std::__ndk1::__variant_detail::__dtor<std::__ndk1::__variant_detail::__traits<RouletteSaveFormat, std::__ndk1::basic_string<char, std::__ndk1::char_traits<char>, std::__ndk1::allocator<char> > >, (std::__ndk1::__variant_detail::_Trait)1>::__destroy[abi:ne180000]()::{lambda(auto:1&)#1}, std::__ndk1::__variant_detail::__base<(std::__ndk1::__variant_detail::__traits<RouletteSaveFormat, std::__ndk1::basic_string<char, std::__ndk1::char_traits<char>, std::__ndk1::allocator<char> > >)1, std::__ndk1::__variant_detail::__traits, std::__ndk1::allocator<char> >&>(std::__ndk1::__variant_detail::__dtor<std::__ndk1::__variant_detail::__traits<RouletteSaveFormat, std::__ndk1::basic_string<char, std::__ndk1::char_traits<char>, std::__ndk1::allocator<char> > >, (std::__ndk1::__variant_detail::_Trait)1>, std::__ndk1::__variant_detail::__base<(std::__ndk1::__variant_detail::__traits<RouletteSaveFormat, std::__ndk1::basic_string<char, std::__ndk1::char_traits<char>, std::__ndk1::allocator<char> > >)1, std::__ndk1::__variant_detail::__traits, std::__ndk1::allocator<char> >&)
PUBLIC abd0c 0 _ZNSt6__ndk121__unwrap_and_dispatchB8ne180000INS_10__overloadINS_11__move_loopINS_17_ClassicAlgPolicyEEENS_14__move_trivialEEEP18RouletteSaveFormatS8_S8_TnNS_9enable_ifIXsr12__can_rewrapIT0_T1_T2_EE5valueEiE4typeELi0EEENS_4pairISA_SC_EESA_SB_SC_
PUBLIC abdf4 0 RouletteSaveFormat::operator=(RouletteSaveFormat const&)
PUBLIC abf14 0 std::__ndk1::__exception_guard_exceptions<std::__ndk1::_AllocatorDestroyRangeReverse<std::__ndk1::allocator<RouletteSaveFormat>, RouletteSaveFormat*> >::~__exception_guard_exceptions[abi:ne180000]()
PUBLIC abf88 0 std::__ndk1::seed_seq::__init[abi:ne180000]<int const*>(int const*, int const*)
PUBLIC ac168 0 std::__ndk1::vector<unsigned int, std::__ndk1::allocator<unsigned int> >::__throw_length_error[abi:ne180000]() const
PUBLIC ac17c 0 std::__ndk1::seed_seq::generate[abi:ne180000]<unsigned int*>(unsigned int*, unsigned int*)
PUBLIC ac458 0 std::__ndk1::uniform_int_distribution<int>::operator()<std::__ndk1::mersenne_twister_engine<unsigned long, (unsigned long)32, (unsigned long)624, (unsigned long)397, (unsigned long)31, (unsigned long)2567483615, (unsigned long)11, (unsigned long)4294967295, (unsigned long)7, (unsigned long)2636928640, (unsigned long)15, (unsigned long)4022730752, (unsigned long)18, (unsigned long)1812433253> >(std::__ndk1::mersenne_twister_engine<unsigned long, (unsigned long)32, (unsigned long)624, (unsigned long)397, (unsigned long)31, (unsigned long)2567483615, (unsigned long)11, (unsigned long)4294967295, (unsigned long)7, (unsigned long)2636928640, (unsigned long)15, (unsigned long)4022730752, (unsigned long)18, (unsigned long)1812433253>&, std::__ndk1::uniform_int_distribution<int>::param_type const&)
PUBLIC ac598 0 std::__ndk1::__independent_bits_engine<std::__ndk1::mersenne_twister_engine<unsigned long, (unsigned long)32, (unsigned long)624, (unsigned long)397, (unsigned long)31, (unsigned long)2567483615, (unsigned long)11, (unsigned long)4294967295, (unsigned long)7, (unsigned long)2636928640, (unsigned long)15, (unsigned long)4022730752, (unsigned long)18, (unsigned long)1812433253>, unsigned int>::__eval(std::__ndk1::integral_constant<bool, true>)
PUBLIC ac798 0 geode::impl::ResultData<std::__ndk1::vector<RouletteSaveFormat, std::__ndk1::allocator<RouletteSaveFormat> >, std::__ndk1::basic_string<char, std::__ndk1::char_traits<char>, std::__ndk1::allocator<char> > >::~ResultData()
PUBLIC ac80c 0 _ZN7matjson9SerializeINSt6__ndk16vectorI18RouletteSaveFormatNS1_9allocatorIS3_EEEEE8fromJsonERKNS_5ValueEQrQSA__Xcldtfp_2asIT_EEE
PUBLIC acc48 0 std::__ndk1::vector<RouletteSaveFormat, std::__ndk1::allocator<RouletteSaveFormat> >::reserve(unsigned long)
PUBLIC acdd4 0 std::__ndk1::vector<RouletteSaveFormat, std::__ndk1::allocator<RouletteSaveFormat> >::__emplace_back_slow_path<RouletteSaveFormat>(RouletteSaveFormat&&)
PUBLIC acffc 0 std::__ndk1::vector<RouletteSaveFormat, std::__ndk1::allocator<RouletteSaveFormat> >::__init_with_size[abi:ne180000]<RouletteSaveFormat*, std::__ndk1::vector<RouletteSaveFormat, std::__ndk1::allocator<RouletteSaveFormat> >::__init_with_size[abi:ne180000]>(RouletteSaveFormat*, std::__ndk1::vector<RouletteSaveFormat, std::__ndk1::allocator<RouletteSaveFormat> >::__init_with_size[abi:ne180000], unsigned long)
PUBLIC ad140 0 std::__ndk1::__exception_guard_exceptions<std::__ndk1::vector<RouletteSaveFormat, std::__ndk1::allocator<RouletteSaveFormat> >::__destroy_vector>::~__exception_guard_exceptions[abi:ne180000]()
PUBLIC ad204 0 std::__ndk1::__variant_detail::__visitation::__base::__dispatcher<(unsigned long)0>::__dispatch[abi:ne180000]<std::__ndk1::__variant_detail::__dtor<std::__ndk1::__variant_detail::__traits<std::__ndk1::vector<RouletteSaveFormat, std::__ndk1::allocator<std::__ndk1::vector> >, std::__ndk1::basic_string<char, std::__ndk1::char_traits<char>, RouletteSaveFormat<char> > >, (std::__ndk1::__variant_detail::_Trait)1>::__destroy[abi:ne180000]()::{lambda(auto:1&)#1}, std::__ndk1::__variant_detail::__base<(std::__ndk1::__variant_detail::__traits<std::__ndk1::vector<RouletteSaveFormat, std::__ndk1::allocator<std::__ndk1::vector> >, std::__ndk1::basic_string<char, std::__ndk1::char_traits<char>, RouletteSaveFormat<char> > >)1, std::__ndk1::allocator<std::__ndk1::vector>, RouletteSaveFormat<char> >&>(std::__ndk1::__variant_detail::__dtor<std::__ndk1::__variant_detail::__traits<std::__ndk1::vector<RouletteSaveFormat, std::__ndk1::allocator<std::__ndk1::vector> >, std::__ndk1::basic_string<char, std::__ndk1::char_traits<char>, RouletteSaveFormat<char> > >, (std::__ndk1::__variant_detail::_Trait)1>, std::__ndk1::__variant_detail::__base<(std::__ndk1::__variant_detail::__traits<std::__ndk1::vector<RouletteSaveFormat, std::__ndk1::allocator<std::__ndk1::vector> >, std::__ndk1::basic_string<char, std::__ndk1::char_traits<char>, RouletteSaveFormat<char> > >)1, std::__ndk1::allocator<std::__ndk1::vector>, RouletteSaveFormat<char> >&)
PUBLIC ad2b8 0 std::__ndk1::__variant_detail::__visitation::__base::__dispatcher<(unsigned long)1>::__dispatch[abi:ne180000]<std::__ndk1::__variant_detail::__dtor<std::__ndk1::__variant_detail::__traits<std::__ndk1::vector<RouletteSaveFormat, std::__ndk1::allocator<std::__ndk1::vector> >, std::__ndk1::basic_string<char, std::__ndk1::char_traits<char>, RouletteSaveFormat<char> > >, (std::__ndk1::__variant_detail::_Trait)1>::__destroy[abi:ne180000]()::{lambda(auto:1&)#1}, std::__ndk1::__variant_detail::__base<(std::__ndk1::__variant_detail::__traits<std::__ndk1::vector<RouletteSaveFormat, std::__ndk1::allocator<std::__ndk1::vector> >, std::__ndk1::basic_string<char, std::__ndk1::char_traits<char>, RouletteSaveFormat<char> > >)1, std::__ndk1::allocator<std::__ndk1::vector>, RouletteSaveFormat<char> >&>(std::__ndk1::__variant_detail::__dtor<std::__ndk1::__variant_detail::__traits<std::__ndk1::vector<RouletteSaveFormat, std::__ndk1::allocator<std::__ndk1::vector> >, std::__ndk1::basic_string<char, std::__ndk1::char_traits<char>, RouletteSaveFormat<char> > >, (std::__ndk1::__variant_detail::_Trait)1>, std::__ndk1::__variant_detail::__base<(std::__ndk1::__variant_detail::__traits<std::__ndk1::vector<RouletteSaveFormat, std::__ndk1::allocator<std::__ndk1::vector> >, std::__ndk1::basic_string<char, std::__ndk1::char_traits<char>, RouletteSaveFormat<char> > >)1, std::__ndk1::allocator<std::__ndk1::vector>, RouletteSaveFormat<char> >&)
PUBLIC ad2cc 0 _ZN7matjson9SerializeINSt6__ndk16vectorI18RouletteSaveFormatNS1_9allocatorIS3_EEEEE6toJsonERKS6_QrQRKT__XcvNS_5ValueEfp_E
PUBLIC ad494 0 matjson::Serialize<RouletteSaveFormat>::toJson(RouletteSaveFormat const&)
PUBLIC ad788 0 _ZNSt6__ndk14pairINS_12basic_stringIcNS_11char_traitsIcEENS_9allocatorIcEEEEN7matjson5ValueEEC2B8ne180000IRA5_KcRKS6_TnNS_9enable_ifIXclsr10_CheckArgsE17__enable_implicitIT_T0_EEEiE4typeELi0EEEOSH_OSI_
PUBLIC ad914 0 _ZNSt6__ndk14pairINS_12basic_stringIcNS_11char_traitsIcEENS_9allocatorIcEEEEN7matjson5ValueEEC2B8ne180000IRA9_KcRKS6_TnNS_9enable_ifIXclsr10_CheckArgsE17__enable_implicitIT_T0_EEEiE4typeELi0EEEOSH_OSI_
PUBLIC adaa0 0 _ZNSt6__ndk14pairINS_12basic_stringIcNS_11char_traitsIcEENS_9allocatorIcEEEEN7matjson5ValueEEC2B8ne180000IRA5_KcRKiTnNS_9enable_ifIXclsr10_CheckArgsE17__enable_implicitIT_T0_EEEiE4typeELi0EEEOSH_OSI_
PUBLIC adb64 0 _ZNSt6__ndk14pairINS_12basic_stringIcNS_11char_traitsIcEENS_9allocatorIcEEEEN7matjson5ValueEEC2B8ne180000IRA7_KcRKNS_6vectorIiNS4_IiEEEETnNS_9enable_ifIXclsr10_CheckArgsE17__enable_implicitIT_T0_EEEiE4typeELi0EEEOSK_OSL_
PUBLIC adc8c 0 _ZNSt6__ndk14pairINS_12basic_stringIcNS_11char_traitsIcEENS_9allocatorIcEEEEN7matjson5ValueEEC2B8ne180000IRA6_KcRKiTnNS_9enable_ifIXclsr10_CheckArgsE17__enable_implicitIT_T0_EEEiE4typeELi0EEEOSH_OSI_
PUBLIC add50 0 geode::Mod::getSavedValue<std::__ndk1::vector<RouletteSaveFormat, std::__ndk1::allocator<RouletteSaveFormat> > >(std::__ndk1::basic_string_view<char, std::__ndk1::char_traits<char> >)
PUBLIC adf34 0 RoulettePopup::setup()
PUBLIC ae0e8 0 RoulettePopup::loadSaveMenu()
PUBLIC afba4 0 RoulettePopup::onClose(cocos2d::CCObject*)
PUBLIC afcd0 0 RoulettePopup::saveProgress(bool)
PUBLIC b027c 0 RoulettePopup::onBack(cocos2d::CCObject*)
PUBLIC b0374 0 RoulettePopup::onNewSave(cocos2d::CCObject*)
PUBLIC b04d8 0 RoulettePopup::onEnterSave(cocos2d::CCObject*)
PUBLIC b1810 0 RoulettePopup::onRename(cocos2d::CCObject*)
PUBLIC b1994 0 RoulettePopup::onCopy(cocos2d::CCObject*)
PUBLIC b1c4c 0 RoulettePopup::onExport(cocos2d::CCObject*)
PUBLIC b1f10 0 RoulettePopup::onDeleteSave(cocos2d::CCObject*)
PUBLIC b21d8 0 RoulettePopup::loadSettingsMenu()
PUBLIC b4dac 0 RoulettePopup::onSettings(cocos2d::CCObject*)
PUBLIC b502c 0 RoulettePopup::onPackCheckAll(cocos2d::CCObject*)
PUBLIC b53ac 0 RoulettePopup::onPackUncheckAll(cocos2d::CCObject*)
PUBLIC b572c 0 RoulettePopup::onImportSettings(cocos2d::CCObject*)
PUBLIC b574c 0 RoulettePopup::onFinalizeSave(cocos2d::CCObject*)
PUBLIC b63b0 0 RoulettePopup::onPackToggle(cocos2d::CCObject*)
PUBLIC b6424 0 RouletteImportPopup::create(bool)
PUBLIC b659c 0 RoulettePopup::loadWinScreen(int)
PUBLIC b7cf4 0 RoulettePopup::onPlay(cocos2d::CCObject*)
PUBLIC b7d58 0 RoulettePopup::onNext(cocos2d::CCObject*)
PUBLIC b980c 0 RoulettePopup::onSkip(cocos2d::CCObject*)
PUBLIC b9974 0 RoulettePopup::onSafe(cocos2d::CCObject*)
PUBLIC b9f50 0 RoulettePopup::fetchLevel(int)
PUBLIC ba1c4 0 RoulettePopup::loadLevelsFinished(cocos2d::CCArray*, char const*)
PUBLIC bc0bc 0 {virtual override thunk({offset(-672)}, RoulettePopup::loadLevelsFinished(cocos2d::CCArray*, char const*))}
PUBLIC bc0c4 0 RoulettePopup::loadLevelsFailed(char const*)
PUBLIC bc1dc 0 {virtual override thunk({offset(-672)}, RoulettePopup::loadLevelsFailed(char const*))}
PUBLIC bc2f4 0 RoulettePopup::RoulettePopup()
PUBLIC bc514 0 RoulettePopup::~RoulettePopup()
PUBLIC bc66c 0 {virtual override thunk({offset(-320)}, RoulettePopup::~RoulettePopup())}
PUBLIC bc674 0 RoulettePopup::~RoulettePopup()
PUBLIC bc698 0 {virtual override thunk({offset(-320)}, RoulettePopup::~RoulettePopup())}
PUBLIC bc6c0 0 RouletteRenamePopup::setup()
PUBLIC bce0c 0 RouletteRenamePopup::onExportSettings(cocos2d::CCObject*)
PUBLIC bd108 0 RouletteRenamePopup::onConfirm(cocos2d::CCObject*)
PUBLIC bd53c 0 RouletteRenamePopup::~RouletteRenamePopup()
PUBLIC bd5f0 0 {virtual override thunk({offset(-320)}, RouletteRenamePopup::~RouletteRenamePopup())}
PUBLIC bd5f8 0 RouletteRenamePopup::~RouletteRenamePopup()
PUBLIC bd61c 0 {virtual override thunk({offset(-320)}, RouletteRenamePopup::~RouletteRenamePopup())}
PUBLIC bd644 0 RouletteNewPopup::setup()
PUBLIC bd9f0 0 RouletteNewPopup::onCreate(cocos2d::CCObject*)
PUBLIC bdbb4 0 RouletteNewPopup::onImport(cocos2d::CCObject*)
PUBLIC bdbf0 0 RouletteNewPopup::~RouletteNewPopup()
PUBLIC bdca4 0 {virtual override thunk({offset(-320)}, RouletteNewPopup::~RouletteNewPopup())}
PUBLIC bdcac 0 RouletteNewPopup::~RouletteNewPopup()
PUBLIC bdcd0 0 {virtual override thunk({offset(-320)}, RouletteNewPopup::~RouletteNewPopup())}
PUBLIC bdcf8 0 RouletteImportPopup::setup()
PUBLIC be350 0 RouletteImportPopup::onConfirm(cocos2d::CCObject*)
PUBLIC be708 0 RouletteImportPopup::onPaste(cocos2d::CCObject*)
PUBLIC be834 0 RouletteImportPopup::~RouletteImportPopup()
PUBLIC be8e8 0 {virtual override thunk({offset(-320)}, RouletteImportPopup::~RouletteImportPopup())}
PUBLIC be8f0 0 RouletteImportPopup::~RouletteImportPopup()
PUBLIC be914 0 {virtual override thunk({offset(-320)}, RouletteImportPopup::~RouletteImportPopup())}
PUBLIC be93c 0 RouletteSettingsPopup::setup()
PUBLIC bfa1c 0 RouletteSettingsPopup::onToggle(cocos2d::CCObject*)
PUBLIC bfa8c 0 RouletteSettingsPopup::onClose(cocos2d::CCObject*)
PUBLIC bfdf0 0 RouletteSettingsPopup::~RouletteSettingsPopup()
PUBLIC bfeb0 0 {virtual override thunk({offset(-320)}, RouletteSettingsPopup::~RouletteSettingsPopup())}
PUBLIC bfeb8 0 RouletteSettingsPopup::~RouletteSettingsPopup()
PUBLIC bfedc 0 {virtual override thunk({offset(-320)}, RouletteSettingsPopup::~RouletteSettingsPopup())}
PUBLIC bff04 0 RoulettePopup::loadLevelsFinished(cocos2d::CCArray*, char const*, int)
PUBLIC bff10 0 RoulettePopup::loadLevelsFailed(char const*, int)
PUBLIC bff1c 0 {virtual override thunk({offset(-672)}, RoulettePopup::loadLevelsFinished(cocos2d::CCArray*, char const*, int))}
PUBLIC bff2c 0 {virtual override thunk({offset(-672)}, RoulettePopup::loadLevelsFailed(char const*, int))}
PUBLIC bff3c 0 std::__ndk1::vector<matjson::Value, std::__ndk1::allocator<matjson::Value> >::__push_back_slow_path<matjson::Value const&>(matjson::Value const&)
PUBLIC c00e0 0 std::__ndk1::__tree<std::__ndk1::__value_type<int, int>, std::__ndk1::__map_value_compare<int, std::__ndk1::__value_type<int, int>, std::__ndk1::less<int>, true>, std::__ndk1::allocator<std::__ndk1::__value_type<int, int> > >::destroy(std::__ndk1::__tree_node<std::__ndk1::__value_type<int, int>, void*>*)
PUBLIC c0124 0 fmt::v11::detail::value<fmt::v11::context>::format_custom_arg<gd::string, fmt::v11::formatter<gd::string, char, void> >(void*, fmt::v11::basic_format_parse_context<char>&, fmt::v11::context&)
PUBLIC c02f8 0 std::__ndk1::__function::__func<RoulettePopup::onSkip(cocos2d::CCObject*)::$_0, std::__ndk1::allocator<RoulettePopup::onSkip(cocos2d::CCObject*)::$_0>, void (FLAlertLayer*, bool)>::~__func()
PUBLIC c02fc 0 std::__ndk1::__function::__func<RoulettePopup::onSkip(cocos2d::CCObject*)::$_0, std::__ndk1::allocator<RoulettePopup::onSkip(cocos2d::CCObject*)::$_0>, void (FLAlertLayer*, bool)>::__clone() const
PUBLIC c0330 0 std::__ndk1::__function::__func<RoulettePopup::onSkip(cocos2d::CCObject*)::$_0, std::__ndk1::allocator<RoulettePopup::onSkip(cocos2d::CCObject*)::$_0>, void (FLAlertLayer*, bool)>::__clone(std::__ndk1::__function::__base<void (FLAlertLayer*, bool)>*) const
PUBLIC c0344 0 std::__ndk1::__function::__func<RoulettePopup::onSkip(cocos2d::CCObject*)::$_0, std::__ndk1::allocator<RoulettePopup::onSkip(cocos2d::CCObject*)::$_0>, void (FLAlertLayer*, bool)>::destroy()
PUBLIC c0348 0 std::__ndk1::__function::__func<RoulettePopup::onSkip(cocos2d::CCObject*)::$_0, std::__ndk1::allocator<RoulettePopup::onSkip(cocos2d::CCObject*)::$_0>, void (FLAlertLayer*, bool)>::destroy_deallocate()
PUBLIC c034c 0 std::__ndk1::__function::__func<RoulettePopup::onSkip(cocos2d::CCObject*)::$_0, std::__ndk1::allocator<RoulettePopup::onSkip(cocos2d::CCObject*)::$_0>, void (FLAlertLayer*, bool)>::operator()(FLAlertLayer*&&, bool&&)
PUBLIC c0ae4 0 std::__ndk1::__function::__func<RoulettePopup::onSkip(cocos2d::CCObject*)::$_0, std::__ndk1::allocator<RoulettePopup::onSkip(cocos2d::CCObject*)::$_0>, void (FLAlertLayer*, bool)>::target(std::type_info const&) const
PUBLIC c0b00 0 std::__ndk1::__function::__func<RoulettePopup::onSkip(cocos2d::CCObject*)::$_0, std::__ndk1::allocator<RoulettePopup::onSkip(cocos2d::CCObject*)::$_0>, void (FLAlertLayer*, bool)>::target_type() const
PUBLIC c0b0c 0 std::__ndk1::__function::__func<RoulettePopup::onCopy(cocos2d::CCObject*)::$_0, std::__ndk1::allocator<RoulettePopup::onCopy(cocos2d::CCObject*)::$_0>, void (FLAlertLayer*, bool)>::~__func()
PUBLIC c0b10 0 std::__ndk1::__function::__func<RoulettePopup::onCopy(cocos2d::CCObject*)::$_0, std::__ndk1::allocator<RoulettePopup::onCopy(cocos2d::CCObject*)::$_0>, void (FLAlertLayer*, bool)>::__clone() const
PUBLIC c0b44 0 std::__ndk1::__function::__func<RoulettePopup::onCopy(cocos2d::CCObject*)::$_0, std::__ndk1::allocator<RoulettePopup::onCopy(cocos2d::CCObject*)::$_0>, void (FLAlertLayer*, bool)>::__clone(std::__ndk1::__function::__base<void (FLAlertLayer*, bool)>*) const
PUBLIC c0b58 0 std::__ndk1::__function::__func<RoulettePopup::onCopy(cocos2d::CCObject*)::$_0, std::__ndk1::allocator<RoulettePopup::onCopy(cocos2d::CCObject*)::$_0>, void (FLAlertLayer*, bool)>::destroy()
PUBLIC c0b5c 0 std::__ndk1::__function::__func<RoulettePopup::onCopy(cocos2d::CCObject*)::$_0, std::__ndk1::allocator<RoulettePopup::onCopy(cocos2d::CCObject*)::$_0>, void (FLAlertLayer*, bool)>::destroy_deallocate()
PUBLIC c0b60 0 std::__ndk1::__function::__func<RoulettePopup::onCopy(cocos2d::CCObject*)::$_0, std::__ndk1::allocator<RoulettePopup::onCopy(cocos2d::CCObject*)::$_0>, void (FLAlertLayer*, bool)>::operator()(FLAlertLayer*&&, bool&&)
PUBLIC c0b94 0 std::__ndk1::__function::__func<RoulettePopup::onCopy(cocos2d::CCObject*)::$_0, std::__ndk1::allocator<RoulettePopup::onCopy(cocos2d::CCObject*)::$_0>, void (FLAlertLayer*, bool)>::target(std::type_info const&) const
PUBLIC c0bb0 0 std::__ndk1::__function::__func<RoulettePopup::onCopy(cocos2d::CCObject*)::$_0, std::__ndk1::allocator<RoulettePopup::onCopy(cocos2d::CCObject*)::$_0>, void (FLAlertLayer*, bool)>::target_type() const
PUBLIC c0bbc 0 std::__ndk1::__function::__base<void (FLAlertLayer*, bool)>::~__base()
PUBLIC c0bc0 0 std::__ndk1::__function::__func<RoulettePopup::onDeleteSave(cocos2d::CCObject*)::$_0, std::__ndk1::allocator<RoulettePopup::onDeleteSave(cocos2d::CCObject*)::$_0>, void (FLAlertLayer*, bool)>::~__func()
PUBLIC c0bc4 0 std::__ndk1::__function::__func<RoulettePopup::onDeleteSave(cocos2d::CCObject*)::$_0, std::__ndk1::allocator<RoulettePopup::onDeleteSave(cocos2d::CCObject*)::$_0>, void (FLAlertLayer*, bool)>::__clone() const
PUBLIC c0bf8 0 std::__ndk1::__function::__func<RoulettePopup::onDeleteSave(cocos2d::CCObject*)::$_0, std::__ndk1::allocator<RoulettePopup::onDeleteSave(cocos2d::CCObject*)::$_0>, void (FLAlertLayer*, bool)>::__clone(std::__ndk1::__function::__base<void (FLAlertLayer*, bool)>*) const
PUBLIC c0c0c 0 std::__ndk1::__function::__func<RoulettePopup::onDeleteSave(cocos2d::CCObject*)::$_0, std::__ndk1::allocator<RoulettePopup::onDeleteSave(cocos2d::CCObject*)::$_0>, void (FLAlertLayer*, bool)>::destroy()
PUBLIC c0c10 0 std::__ndk1::__function::__func<RoulettePopup::onDeleteSave(cocos2d::CCObject*)::$_0, std::__ndk1::allocator<RoulettePopup::onDeleteSave(cocos2d::CCObject*)::$_0>, void (FLAlertLayer*, bool)>::destroy_deallocate()
PUBLIC c0c14 0 std::__ndk1::__function::__func<RoulettePopup::onDeleteSave(cocos2d::CCObject*)::$_0, std::__ndk1::allocator<RoulettePopup::onDeleteSave(cocos2d::CCObject*)::$_0>, void (FLAlertLayer*, bool)>::operator()(FLAlertLayer*&&, bool&&)
PUBLIC c0c48 0 std::__ndk1::__function::__func<RoulettePopup::onDeleteSave(cocos2d::CCObject*)::$_0, std::__ndk1::allocator<RoulettePopup::onDeleteSave(cocos2d::CCObject*)::$_0>, void (FLAlertLayer*, bool)>::target(std::type_info const&) const
PUBLIC c0c64 0 std::__ndk1::__function::__func<RoulettePopup::onDeleteSave(cocos2d::CCObject*)::$_0, std::__ndk1::allocator<RoulettePopup::onDeleteSave(cocos2d::CCObject*)::$_0>, void (FLAlertLayer*, bool)>::target_type() const
PUBLIC c0c70 0 RouletteSafeLayer::keyBackClicked()
PUBLIC c0c94 0 {virtual override thunk({offset(-336)}, RouletteSafeLayer::keyBackClicked())}
PUBLIC c0cb8 0 RouletteSafeLayer::backButton(cocos2d::CCObject*)
PUBLIC c0cc4 0 RouletteSafeLayer::init(std::__ndk1::vector<int, std::__ndk1::allocator<int> >)
PUBLIC c1594 0 RouletteSafeLayer::reloadLevels(cocos2d::CCObject*)
PUBLIC c15dc 0 RouletteSafeLayer::pageLeft(cocos2d::CCObject*)
PUBLIC c15ec 0 RouletteSafeLayer::pageRight(cocos2d::CCObject*)
PUBLIC c15fc 0 RouletteSafeLayer::loadLevels(int)
PUBLIC c19b4 0 RouletteSafeLayer::loadLevelsFinished(cocos2d::CCArray*, char const*)
PUBLIC c1bbc 0 {virtual override thunk({offset(-408)}, RouletteSafeLayer::loadLevelsFinished(cocos2d::CCArray*, char const*))}
PUBLIC c1bc4 0 RouletteSafeLayer::loadLevelsFailed(char const*)
PUBLIC c1c10 0 {virtual override thunk({offset(-408)}, RouletteSafeLayer::loadLevelsFailed(char const*))}
PUBLIC c1c5c 0 RouletteSafeLayer::create(std::__ndk1::vector<int, std::__ndk1::allocator<int> >)
PUBLIC c1db4 0 RouletteSafeLayer::RouletteSafeLayer()
PUBLIC c1efc 0 RouletteSafeLayer::~RouletteSafeLayer()
PUBLIC c1ff0 0 {virtual override thunk({offset(-320)}, RouletteSafeLayer::~RouletteSafeLayer())}
PUBLIC c1ff8 0 RouletteSafeLayer::~RouletteSafeLayer()
PUBLIC c201c 0 {virtual override thunk({offset(-320)}, RouletteSafeLayer::~RouletteSafeLayer())}
PUBLIC c2044 0 RouletteSafeLayer::loadLevelsFinished(cocos2d::CCArray*, char const*, int)
PUBLIC c2050 0 RouletteSafeLayer::loadLevelsFailed(char const*, int)
PUBLIC c205c 0 {virtual override thunk({offset(-408)}, RouletteSafeLayer::loadLevelsFinished(cocos2d::CCArray*, char const*, int))}
PUBLIC c206c 0 {virtual override thunk({offset(-408)}, RouletteSafeLayer::loadLevelsFailed(char const*, int))}
PUBLIC m c207c 0 geodeImplicitEntry
PUBLIC c20b8 0 std::__ndk1::unordered_map<void*, bool, std::__ndk1::hash<void*>, std::__ndk1::equal_to<void*>, std::__ndk1::allocator<std::__ndk1::pair<void* const, bool> > >::~unordered_map[abi:ne180000]()
PUBLIC c2104 0 wrapFunction(unsigned long, tulip::hook::WrapperMetadata const&)
PUBLIC c2238 0 geode::impl::ResultData<void*, std::__ndk1::basic_string<char, std::__ndk1::char_traits<char>, std::__ndk1::allocator<char> > >::unwrapErr() &
PUBLIC c22b0 0 geode::impl::ResultData<void*, std::__ndk1::basic_string<char, std::__ndk1::char_traits<char>, std::__ndk1::allocator<char> > >::~ResultData()
PUBLIC c2324 0 tulip::hook::WrapperMetadata::~WrapperMetadata()
PUBLIC c2388 0 cocos2d::CCObject::~CCObject()
PUBLIC c23ac 0 cocos2d::CCNode::~CCNode()
PUBLIC c23d0 0 cocos2d::CCLayer::CCLayer()
PUBLIC c2640 0 {virtual override thunk({offset(-320)}, cocos2d::CCLayer::~CCLayer())}
PUBLIC c2648 0 cocos2d::CCLayer::~CCLayer()
PUBLIC c266c 0 {virtual override thunk({offset(-320)}, cocos2d::CCLayer::~CCLayer())}
PUBLIC c2694 0 cocos2d::CCLayerRGBA::~CCLayerRGBA()
PUBLIC c296c 0 {virtual override thunk({offset(-320)}, cocos2d::CCLayerRGBA::~CCLayerRGBA())}
PUBLIC c2974 0 cocos2d::CCLayerRGBA::~CCLayerRGBA()
PUBLIC c2998 0 {virtual override thunk({offset(-320)}, cocos2d::CCLayerRGBA::~CCLayerRGBA())}
PUBLIC c29c0 0 cocos2d::CCLayerColor::CCLayerColor()
PUBLIC c2c10 0 {virtual override thunk({offset(-320)}, cocos2d::CCLayerColor::~CCLayerColor())}
PUBLIC c2c18 0 cocos2d::CCLayerColor::~CCLayerColor()
PUBLIC c2c3c 0 {virtual override thunk({offset(-320)}, cocos2d::CCLayerColor::~CCLayerColor())}
PUBLIC c2c64 0 cocos2d::ZipUtils::base64URLDecode(gd::string const&)
PUBLIC c2dd8 0 cocos2d::ZipUtils::base64URLEncode(gd::string const&)
PUBLIC c2f4c 0 {virtual override thunk({offset(-320)}, FLAlertLayer::~FLAlertLayer())}
PUBLIC c2f54 0 FLAlertLayer::~FLAlertLayer()
PUBLIC c2f78 0 {virtual override thunk({offset(-320)}, FLAlertLayer::~FLAlertLayer())}
PUBLIC c2fa0 0 FLAlertLayer::create(FLAlertLayerProtocol*, char const*, gd::string, char const*, char const*, float)
PUBLIC c3158 0 tulip::hook::AbstractFunction::from<FLAlertLayer*, FLAlertLayerProtocol*, char const*, gd::string, char const*, char const*, float>(FLAlertLayer* (*)(FLAlertLayerProtocol*, char const*, gd::string, char const*, char const*, float))
PUBLIC c363c 0 FLAlertLayer::create(char const*, gd::string const&, char const*)
PUBLIC c36e8 0 LevelManagerDelegate::setupPageInfo(gd::string, char const*)
PUBLIC c36ec 0 GJBaseGameLayer::~GJBaseGameLayer()
PUBLIC c3f00 0 GJBaseGameLayer::GJBaseGameLayer(geode::CutoffConstructorType, unsigned long)
PUBLIC c46b0 0 {virtual override thunk({offset(-320)}, GJBaseGameLayer::~GJBaseGameLayer())}
PUBLIC c46b8 0 GJBaseGameLayer::~GJBaseGameLayer()
PUBLIC c46dc 0 {virtual override thunk({offset(-320)}, GJBaseGameLayer::~GJBaseGameLayer())}
PUBLIC c4704 0 GJBaseGameLayer::toggleGroupTriggered(int, bool, gd::vector<int> const&, int, int)
PUBLIC c4870 0 tulip::hook::AbstractFunction::from<void, GJBaseGameLayer*, int, bool, gd::vector<int> const&, int, int>(void (*)(GJBaseGameLayer*, int, bool, gd::vector<int> const&, int, int))
PUBLIC c4d1c 0 {virtual override thunk({offset(-408)}, GJBaseGameLayer::toggleGroupTriggered(int, bool, gd::vector<int> const&, int, int))}
PUBLIC c4d24 0 GJBaseGameLayer::spawnGroup(int, bool, double, gd::vector<int> const&, int, int)
PUBLIC c4ea0 0 tulip::hook::AbstractFunction::from<void, GJBaseGameLayer*, int, bool, double, gd::vector<int> const&, int, int>(void (*)(GJBaseGameLayer*, int, bool, double, gd::vector<int> const&, int, int))
PUBLIC c544c 0 {virtual override thunk({offset(-408)}, GJBaseGameLayer::spawnGroup(int, bool, double, gd::vector<int> const&, int, int))}
PUBLIC c5454 0 GJBaseGameLayer::spawnObject(GameObject*, double, gd::vector<int> const&)
PUBLIC c55b0 0 tulip::hook::AbstractFunction::from<void, GJBaseGameLayer*, GameObject*, double, gd::vector<int> const&>(void (*)(GJBaseGameLayer*, GameObject*, double, gd::vector<int> const&))
PUBLIC c5884 0 {virtual override thunk({offset(-408)}, GJBaseGameLayer::spawnObject(GameObject*, double, gd::vector<int> const&))}
PUBLIC c588c 0 GJBaseGameLayer::activatePlatformerEndTrigger(EndTriggerGameObject*, gd::vector<int> const&)
PUBLIC c59d8 0 tulip::hook::AbstractFunction::from<void, GJBaseGameLayer*, EndTriggerGameObject*, gd::vector<int> const&>(void (*)(GJBaseGameLayer*, EndTriggerGameObject*, gd::vector<int> const&))
PUBLIC c5ae0 0 GJBaseGameLayer::toggleGlitter(bool)
PUBLIC c5ae4 0 GJBaseGameLayer::timeForPos(cocos2d::CCPoint, int, int, bool, int)
PUBLIC c5aec 0 GJBaseGameLayer::posForTime(float)
PUBLIC c5af4 0 GJBaseGameLayer::resetSPTriggered()
PUBLIC c5af8 0 GJBaseGameLayer::createCustomParticle(gd::string const&, cocos2d::ParticleStruct const&, int, bool)
PUBLIC c5c5c 0 tulip::hook::AbstractFunction::from<TodoReturnPlaceholder, GJBaseGameLayer*, gd::string const&, cocos2d::ParticleStruct const&, int, bool>(TodoReturnPlaceholder (*)(GJBaseGameLayer*, gd::string const&, cocos2d::ParticleStruct const&, int, bool))
PUBLIC c6030 0 GJBaseGameLayer::claimCustomParticle(gd::string const&, cocos2d::ParticleStruct const&, int, int, int, bool)
PUBLIC c61ac 0 tulip::hook::AbstractFunction::from<TodoReturnPlaceholder, GJBaseGameLayer*, gd::string const&, cocos2d::ParticleStruct const&, int, int, int, bool>(TodoReturnPlaceholder (*)(GJBaseGameLayer*, gd::string const&, cocos2d::ParticleStruct const&, int, int, int, bool))
PUBLIC c6780 0 GJBaseGameLayer::unclaimCustomParticle(gd::string const&, cocos2d::CCParticleSystemQuad*)
PUBLIC c68cc 0 tulip::hook::AbstractFunction::from<TodoReturnPlaceholder, GJBaseGameLayer*, gd::string const&, cocos2d::CCParticleSystemQuad*>(TodoReturnPlaceholder (*)(GJBaseGameLayer*, gd::string const&, cocos2d::CCParticleSystemQuad*))
PUBLIC c69d4 0 GJSearchObject::create(SearchType, gd::string)
PUBLIC c6b54 0 tulip::hook::AbstractFunction::from<GJSearchObject*, SearchType, gd::string>(GJSearchObject* (*)(SearchType, gd::string))
PUBLIC c6bf8 0 InfoAlertButton::create(gd::string, gd::string, float)
PUBLIC c6da4 0 tulip::hook::AbstractFunction::from<InfoAlertButton*, gd::string, gd::string, float>(InfoAlertButton* (*)(gd::string, gd::string, float))
PUBLIC c6eb0 0 PlayLayer::~PlayLayer()
PUBLIC c71b4 0 {virtual override thunk({offset(-320)}, PlayLayer::~PlayLayer())}
PUBLIC c71bc 0 PlayLayer::~PlayLayer()
PUBLIC c71e0 0 {virtual override thunk({offset(-320)}, PlayLayer::~PlayLayer())}
PUBLIC c7208 0 PlayLayer::activatePlatformerEndTrigger(EndTriggerGameObject*, gd::vector<int> const&)
PUBLIC c7354 0 tulip::hook::AbstractFunction::from<void, PlayLayer*, EndTriggerGameObject*, gd::vector<int> const&>(void (*)(PlayLayer*, EndTriggerGameObject*, gd::vector<int> const&))
PUBLIC c745c 0 TextAlertPopup::create(gd::string, float, float, int, gd::string)
PUBLIC c7620 0 tulip::hook::AbstractFunction::from<TextAlertPopup*, gd::string, float, float, int, gd::string>(TextAlertPopup* (*)(gd::string, float, float, int, gd::string))
PUBLIC c79f4 0 cocos2d::CCObject::update(float)
PUBLIC c79f8 0 cocos2d::CCLayerColor::~CCLayerColor()
PUBLIC c7cb4 0 FLAlertLayer::~FLAlertLayer()
PUBLIC c7f70 0 cocos2d::CCNode::~CCNode()
PUBLIC c81e8 0 cocos2d::CCLayer::~CCLayer()
PUBLIC c84b0 0 cocos2d::CCObject::~CCObject()
PUBLIC c897c 0 _ZN5geode15UnwrapExceptionC2IRPvQsr4implE18IsStringStreamableIT_EEENS_4impl5OkTagEOS4_
PUBLIC c8ad0 0 std::__ndk1::__variant_detail::__visitation::__base::__dispatcher<(unsigned long)0>::__dispatch[abi:ne180000]<std::__ndk1::__variant_detail::__dtor<std::__ndk1::__variant_detail::__traits<void*, std::__ndk1::basic_string<char, std::__ndk1::char_traits<char>, std::__ndk1::allocator<char> > >, (std::__ndk1::__variant_detail::_Trait)1>::__destroy[abi:ne180000]()::{lambda(auto:1&)#1}, std::__ndk1::__variant_detail::__base<(std::__ndk1::__variant_detail::__traits<void*, std::__ndk1::basic_string<char, std::__ndk1::char_traits<char>, std::__ndk1::allocator<char> > >)1, std::__ndk1::__variant_detail::__traits, std::__ndk1::allocator<char> >&>(std::__ndk1::__variant_detail::__dtor<std::__ndk1::__variant_detail::__traits<void*, std::__ndk1::basic_string<char, std::__ndk1::char_traits<char>, std::__ndk1::allocator<char> > >, (std::__ndk1::__variant_detail::_Trait)1>, std::__ndk1::__variant_detail::__base<(std::__ndk1::__variant_detail::__traits<void*, std::__ndk1::basic_string<char, std::__ndk1::char_traits<char>, std::__ndk1::allocator<char> > >)1, std::__ndk1::__variant_detail::__traits, std::__ndk1::allocator<char> >&)
PUBLIC c8ad4 0 std::__ndk1::__variant_detail::__visitation::__base::__dispatcher<(unsigned long)1>::__dispatch[abi:ne180000]<std::__ndk1::__variant_detail::__dtor<std::__ndk1::__variant_detail::__traits<void*, std::__ndk1::basic_string<char, std::__ndk1::char_traits<char>, std::__ndk1::allocator<char> > >, (std::__ndk1::__variant_detail::_Trait)1>::__destroy[abi:ne180000]()::{lambda(auto:1&)#1}, std::__ndk1::__variant_detail::__base<(std::__ndk1::__variant_detail::__traits<void*, std::__ndk1::basic_string<char, std::__ndk1::char_traits<char>, std::__ndk1::allocator<char> > >)1, std::__ndk1::__variant_detail::__traits, std::__ndk1::allocator<char> >&>(std::__ndk1::__variant_detail::__dtor<std::__ndk1::__variant_detail::__traits<void*, std::__ndk1::basic_string<char, std::__ndk1::char_traits<char>, std::__ndk1::allocator<char> > >, (std::__ndk1::__variant_detail::_Trait)1>, std::__ndk1::__variant_detail::__base<(std::__ndk1::__variant_detail::__traits<void*, std::__ndk1::basic_string<char, std::__ndk1::char_traits<char>, std::__ndk1::allocator<char> > >)1, std::__ndk1::__variant_detail::__traits, std::__ndk1::allocator<char> >&)
PUBLIC c8ae8 0 std::__ndk1::__hash_table<std::__ndk1::__hash_value_type<void*, bool>, std::__ndk1::__unordered_map_hasher<void*, std::__ndk1::__hash_value_type<void*, bool>, std::__ndk1::hash<void*>, std::__ndk1::equal_to<void*>, true>, std::__ndk1::__unordered_map_equal<void*, std::__ndk1::__hash_value_type<void*, bool>, std::__ndk1::equal_to<void*>, std::__ndk1::hash<void*>, true>, std::__ndk1::allocator<std::__ndk1::__hash_value_type<void*, bool> > >::__emplace_unique_key_args<void*, std::__ndk1::piecewise_construct_t const&, std::__ndk1::tuple<void* const&>, std::__ndk1::tuple<> >(void* const&, std::__ndk1::piecewise_construct_t const&, std::__ndk1::tuple<void* const&>, std::__ndk1::tuple<>)
PUBLIC c8fc8 0 __udivti3
PUBLIC c8fd4 0 __udivmodti4
PUBLIC m c9220 0 __eqtf2
PUBLIC c92c0 0 __unordtf2
PUBLIC c92f8 0 fmt::v11::detail::write_loc(fmt::v11::basic_appender<char>, fmt::v11::loc_value, fmt::v11::format_specs const&, fmt::v11::detail::locale_ref)
PUBLIC c9484 0 fmt::v11::format_facet<std::__ndk1::locale>::format_facet(std::__ndk1::locale&)
PUBLIC c9610 0 fmt::v11::format_facet<std::__ndk1::locale>::~format_facet()
PUBLIC c968c 0 fmt::v11::report_error(char const*)
PUBLIC c96dc 0 fmt::v11::format_error::runtime_error(char const*)
PUBLIC c9708 0 fmt::v11::format_facet<std::__ndk1::locale>::do_put(fmt::v11::basic_appender<char>, fmt::v11::loc_value, fmt::v11::format_specs const&) const
PUBLIC c9ec8 0 fmt::v11::detail::loc_writer<char>::~loc_writer()
PUBLIC c9f2c 0 fmt::v11::vformat(fmt::v11::basic_string_view<char>, fmt::v11::basic_format_args<fmt::v11::context>)
PUBLIC ca068 0 fmt::v11::detail::vformat_to<char>(fmt::v11::detail::buffer<char>&, fmt::v11::basic_string_view<char>, fmt::v11::detail::vformat_args<char>::type, fmt::v11::detail::locale_ref)
PUBLIC ca5d8 0 fmt::v11::detail::is_printable(unsigned int)
PUBLIC ca800 0 fmt::v11::detail::dragonbox::to_decimal<float>(float)
PUBLIC caadc 0 fmt::v11::detail::dragonbox::to_decimal<double>(double)
PUBLIC cb018 0 fmt::v11::basic_memory_buffer<char, (unsigned long)500, std::__ndk1::allocator<char> >::grow(fmt::v11::detail::buffer<char>&, unsigned long)
PUBLIC cb090 0 fmt::v11::format_facet<std::__ndk1::locale>::~format_facet()
PUBLIC cb11c 0 fmt::v11::format_error::~format_error()
PUBLIC cb140 0 fmt::v11::detail::copy_noinline<char, char const*, fmt::v11::basic_appender<char> >(char const*, char const*, fmt::v11::basic_appender<char>)
PUBLIC cb290 0 fmt::v11::detail::default_arg_formatter<char>::operator()<bool>(bool)
PUBLIC cb2f8 0 fmt::v11::detail::default_arg_formatter<char>::operator()<char>(char)
PUBLIC cb388 0 fmt::v11::detail::default_arg_formatter<char>::operator()<float>(float)
PUBLIC cb474 0 fmt::v11::detail::default_arg_formatter<char>::operator()<double>(double)
PUBLIC cb560 0 fmt::v11::detail::default_arg_formatter<char>::operator()<char const*>(char const*)
PUBLIC cb5a8 0 fmt::v11::detail::default_arg_formatter<char>::operator()<void const*>(void const*)
PUBLIC cb640 0 _ZN3fmt3v116detail5writeIcNS0_14basic_appenderIcEEiTnNSt6__ndk19enable_ifIXaaaasr11is_integralIT1_EE5valuentsr3std7is_sameIS7_bEE5valuentsr3std7is_sameIS7_T_EE5valueEiE4typeELi0EEET0_SB_S7_
PUBLIC cb89c 0 _ZN3fmt3v116detail5writeIcNS0_14basic_appenderIcEEjTnNSt6__ndk19enable_ifIXaaaasr11is_integralIT1_EE5valuentsr3std7is_sameIS7_bEE5valuentsr3std7is_sameIS7_T_EE5valueEiE4typeELi0EEET0_SB_S7_
PUBLIC cba78 0 _ZN3fmt3v116detail5writeIcNS0_14basic_appenderIcEExTnNSt6__ndk19enable_ifIXaaaasr11is_integralIT1_EE5valuentsr3std7is_sameIS7_bEE5valuentsr3std7is_sameIS7_T_EE5valueEiE4typeELi0EEET0_SB_S7_
PUBLIC cbcf8 0 _ZN3fmt3v116detail5writeIcNS0_14basic_appenderIcEEyTnNSt6__ndk19enable_ifIXaaaasr11is_integralIT1_EE5valuentsr3std7is_sameIS7_bEE5valuentsr3std7is_sameIS7_T_EE5valueEiE4typeELi0EEET0_SB_S7_
PUBLIC cbefc 0 _ZN3fmt3v116detail5writeIcNS0_14basic_appenderIcEEnTnNSt6__ndk19enable_ifIXaaaasr11is_integralIT1_EE5valuentsr3std7is_sameIS7_bEE5valuentsr3std7is_sameIS7_T_EE5valueEiE4typeELi0EEET0_SB_S7_
PUBLIC cc258 0 _ZN3fmt3v116detail5writeIcNS0_14basic_appenderIcEEoTnNSt6__ndk19enable_ifIXaaaasr11is_integralIT1_EE5valuentsr3std7is_sameIS7_bEE5valuentsr3std7is_sameIS7_T_EE5valueEiE4typeELi0EEET0_SB_S7_
PUBLIC cc568 0 _ZN3fmt3v116detail5writeIcNS0_14basic_appenderIcEEbTnNSt6__ndk19enable_ifIXsr3std7is_sameIT1_bEE5valueEiE4typeELi0EEET0_SA_S7_RKNS0_12format_specsENS1_10locale_refE
PUBLIC cc820 0 fmt::v11::detail::write_padded<char, (fmt::v11::align::type)1, fmt::v11::basic_appender<char>, fmt::v11::detail::write_nonfinite<char, fmt::v11::basic_appender<char> >(fmt::v11::basic_appender<char>, bool, fmt::v11::format_specs, fmt::v11::sign::type)::{lambda(fmt::v11::basic_appender<char>&)#1}>(fmt::v11::basic_appender<char>, fmt::v11::format_specs const&, unsigned long, unsigned long, fmt::v11::detail::write_nonfinite<char, fmt::v11::basic_appender<char> >(fmt::v11::basic_appender<char>, bool, fmt::v11::format_specs, fmt::v11::sign::type)::{lambda(fmt::v11::basic_appender<char>&)#1})
PUBLIC cca78 0 fmt::v11::detail::do_write_float<char, fmt::v11::basic_appender<char>, fmt::v11::detail::dragonbox::decimal_fp<float>, fmt::v11::detail::digit_grouping<char> >(fmt::v11::basic_appender<char>, fmt::v11::detail::dragonbox::decimal_fp<float> const&, fmt::v11::format_specs const&, fmt::v11::detail::float_specs, fmt::v11::detail::locale_ref)
PUBLIC cd718 0 fmt::v11::detail::do_write_float<char, fmt::v11::basic_appender<char>, fmt::v11::detail::dragonbox::decimal_fp<float>, fmt::v11::detail::digit_grouping<char> >(fmt::v11::basic_appender<char>, fmt::v11::detail::dragonbox::decimal_fp<float> const&, fmt::v11::format_specs const&, fmt::v11::detail::float_specs, fmt::v11::detail::locale_ref)::{lambda(fmt::v11::basic_appender<char>(fmt::v11::basic_appender<char>))#1}::operator() const
PUBLIC cd870 0 fmt::v11::detail::digit_grouping<char>::digit_grouping(fmt::v11::detail::locale_ref, bool)
PUBLIC cdadc 0 fmt::v11::detail::digit_grouping<char>::~digit_grouping()
PUBLIC cdb20 0 fmt::v11::detail::write_exponent<char, fmt::v11::basic_appender<char> >(int, fmt::v11::basic_appender<char>)
PUBLIC cdcf0 0 _ZN3fmt3v116detail17write_significandIcjTnNSt6__ndk19enable_ifIXsr3std11is_integralIT0_EE5valueEiE4typeELi0EEEPT_S9_S5_iiS8_
PUBLIC cde6c 0 fmt::v11::detail::digit_grouping<char>::apply<fmt::v11::basic_appender<char>, char>(fmt::v11::basic_appender<char>, fmt::v11::basic_string_view<char>) const
PUBLIC ce224 0 fmt::v11::basic_memory_buffer<int, (unsigned long)500, std::__ndk1::allocator<int> >::grow(fmt::v11::detail::buffer<int>&, unsigned long)
PUBLIC ce2c4 0 fmt::v11::detail::do_write_float<char, fmt::v11::basic_appender<char>, fmt::v11::detail::dragonbox::decimal_fp<double>, fmt::v11::detail::digit_grouping<char> >(fmt::v11::basic_appender<char>, fmt::v11::detail::dragonbox::decimal_fp<double> const&, fmt::v11::format_specs const&, fmt::v11::detail::float_specs, fmt::v11::detail::locale_ref)
PUBLIC cef90 0 fmt::v11::detail::do_write_float<char, fmt::v11::basic_appender<char>, fmt::v11::detail::dragonbox::decimal_fp<double>, fmt::v11::detail::digit_grouping<char> >(fmt::v11::basic_appender<char>, fmt::v11::detail::dragonbox::decimal_fp<double> const&, fmt::v11::format_specs const&, fmt::v11::detail::float_specs, fmt::v11::detail::locale_ref)::{lambda(fmt::v11::basic_appender<char>(fmt::v11::basic_appender<char>))#1}::operator() const
PUBLIC cf0ec 0 _ZN3fmt3v116detail17write_significandIcmTnNSt6__ndk19enable_ifIXsr3std11is_integralIT0_EE5valueEiE4typeELi0EEEPT_S9_S5_iiS8_
PUBLIC cf27c 0 fmt::v11::detail::write_float<char, fmt::v11::basic_appender<char>, long double>(fmt::v11::basic_appender<char>, long double, fmt::v11::format_specs, fmt::v11::detail::locale_ref)
PUBLIC cfd74 0 fmt::v11::detail::write_padded<char, (fmt::v11::align::type)2, fmt::v11::basic_appender<char>, fmt::v11::detail::write_bytes<char, (fmt::v11::align::type)2, fmt::v11::basic_appender<char> >(fmt::v11::basic_appender<char>, fmt::v11::basic_string_view<char>, fmt::v11::format_specs const&)::{lambda(fmt::v11::basic_appender<char>&)#1}>(fmt::v11::basic_appender<char>, fmt::v11::format_specs const&, unsigned long, unsigned long, fmt::v11::detail::write_bytes<char, (fmt::v11::align::type)2, fmt::v11::basic_appender<char> >(fmt::v11::basic_appender<char>, fmt::v11::basic_string_view<char>, fmt::v11::format_specs const&)::{lambda(fmt::v11::basic_appender<char>&)#1})
PUBLIC cff68 0 fmt::v11::detail::format_dragon(fmt::v11::detail::basic_fp<unsigned __int128>, unsigned int, int, fmt::v11::detail::buffer<char>&, int&)
PUBLIC d1398 0 fmt::v11::detail::bigint::operator<<=(int)
PUBLIC d14bc 0 fmt::v11::detail::bigint::assign_pow10(int)
PUBLIC d1c18 0 fmt::v11::detail::bigint::divmod_assign(fmt::v11::detail::bigint const&)
PUBLIC d1f38 0 fmt::v11::basic_memory_buffer<unsigned int, (unsigned long)32, std::__ndk1::allocator<unsigned int> >::grow(fmt::v11::detail::buffer<unsigned int>&, unsigned long)
PUBLIC d1fd8 0 fmt::v11::detail::do_write_float<char, fmt::v11::basic_appender<char>, fmt::v11::detail::big_decimal_fp, fmt::v11::detail::digit_grouping<char> >(fmt::v11::basic_appender<char>, fmt::v11::detail::big_decimal_fp const&, fmt::v11::format_specs const&, fmt::v11::detail::float_specs, fmt::v11::detail::locale_ref)
PUBLIC d2ebc 0 fmt::v11::detail::do_write_float<char, fmt::v11::basic_appender<char>, fmt::v11::detail::big_decimal_fp, fmt::v11::detail::digit_grouping<char> >(fmt::v11::basic_appender<char>, fmt::v11::detail::big_decimal_fp const&, fmt::v11::format_specs const&, fmt::v11::detail::float_specs, fmt::v11::detail::locale_ref)::{lambda(fmt::v11::basic_appender<char>(fmt::v11::basic_appender<char>))#1}::operator() const
PUBLIC d301c 0 fmt::v11::detail::write_padded<char, (fmt::v11::align::type)2, fmt::v11::basic_appender<char>, fmt::v11::detail::write_ptr<char, fmt::v11::basic_appender<char>, unsigned long>(fmt::v11::basic_appender<char>, unsigned long, fmt::v11::format_specs const*)::{lambda(fmt::v11::basic_appender<char>&)#1}>(fmt::v11::basic_appender<char>, fmt::v11::format_specs const&, unsigned long, unsigned long, fmt::v11::detail::write_ptr<char, fmt::v11::basic_appender<char>, unsigned long>(fmt::v11::basic_appender<char>, unsigned long, fmt::v11::format_specs const*)::{lambda(fmt::v11::basic_appender<char>&)#1})
PUBLIC d3234 0 fmt::v11::detail::parse_replacement_field<char, fmt::v11::detail::vformat_to<char>(fmt::v11::detail::buffer<char>&, fmt::v11::basic_string_view<char>, fmt::v11::detail::vformat_args<char>::type, fmt::v11::detail::locale_ref)::format_handler&>(char const*, char const*, fmt::v11::detail::vformat_to<char>(fmt::v11::detail::buffer<char>&, fmt::v11::basic_string_view<char>, fmt::v11::detail::vformat_args<char>::type, fmt::v11::detail::locale_ref)::format_handler&)
PUBLIC d46f4 0 fmt::v11::detail::write_int_noinline<char, fmt::v11::basic_appender<char>, unsigned long>(fmt::v11::basic_appender<char>, fmt::v11::detail::write_int_arg<unsigned long>, fmt::v11::format_specs const&, fmt::v11::detail::locale_ref)
PUBLIC d5570 0 fmt::v11::detail::write_int_noinline<char, fmt::v11::basic_appender<char>, unsigned __int128>(fmt::v11::basic_appender<char>, fmt::v11::detail::write_int_arg<unsigned __int128>, fmt::v11::format_specs const&, fmt::v11::detail::locale_ref)
PUBLIC d65c0 0 _ZN3fmt3v116detail15format_hexfloatIdTnNSt6__ndk19enable_ifIXntsr16is_double_doubleIT_EE5valueEiE4typeELi0EEEvS5_NS0_12format_specsERNS1_6bufferIcEE
PUBLIC d6ae0 0 fmt::v11::detail::format_float<double>(double, int, fmt::v11::detail::float_specs, fmt::v11::detail::buffer<char>&)
PUBLIC d7480 0 fmt::v11::detail::write_int<fmt::v11::basic_appender<char>, unsigned long, char>(fmt::v11::basic_appender<char>, unsigned long, unsigned int, fmt::v11::format_specs const&, fmt::v11::detail::digit_grouping<char> const&)
PUBLIC d7a04 0 fmt::v11::detail::write_int<fmt::v11::basic_appender<char>, unsigned __int128, char>(fmt::v11::basic_appender<char>, unsigned __int128, unsigned int, fmt::v11::format_specs const&, fmt::v11::detail::digit_grouping<char> const&)
PUBLIC d8090 0 <.plt ELF section in minemaker0430.gddp_integration.android64.so>
STACK CFI INIT 4b060 10 .cfa: sp 0 +
STACK CFI INIT 4b070 8 .cfa: sp 0 +
STACK CFI INIT 4b078 8 .cfa: sp 0 +
STACK CFI INIT 4b080 14 .cfa: sp 0 +
STACK CFI INIT 4b094 1c .cfa: sp 0 +
STACK CFI INIT 4b0b0 10 .cfa: sp 0 +
STACK CFI INIT 4b0c0 134 .cfa: sp 0 +
STACK CFI INIT 4b1f4 84 .cfa: sp 0 +
STACK CFI INIT 4b278 f4 .cfa: sp 0 +
STACK CFI INIT 4b36c a8 .cfa: sp 0 +
STACK CFI INIT 4b414 7c .cfa: sp 0 +
STACK CFI INIT 4b490 14 .cfa: sp 0 +
STACK CFI INIT 4b4a4 40 .cfa: sp 0 +
STACK CFI INIT 4b4e4 28 .cfa: sp 0 +
STACK CFI INIT 4b50c 190 .cfa: sp 0 +
STACK CFI INIT 4b69c 2c8 .cfa: sp 0 +
STACK CFI INIT 4b964 8 .cfa: sp 0 +
STACK CFI INIT 4b96c 8 .cfa: sp 0 +
STACK CFI INIT 4b974 44 .cfa: sp 0 +
STACK CFI INIT 4b9b8 e8 .cfa: sp 0 +
STACK CFI INIT 4baa0 e8 .cfa: sp 0 +
STACK CFI INIT 4bb88 14 .cfa: sp 0 +
STACK CFI INIT 4bb9c 10 .cfa: sp 0 +
STACK CFI INIT 4bbac 10 .cfa: sp 0 +
STACK CFI INIT 4bbbc f0 .cfa: sp 0 +
STACK CFI INIT 4bcac 44 .cfa: sp 0 +
STACK CFI INIT 4bcf0 c .cfa: sp 0 +
STACK CFI INIT 4bcfc c .cfa: sp 0 +
STACK CFI INIT 4bd08 2c .cfa: sp 0 +
STACK CFI INIT 4bd34 280 .cfa: sp 0 +
STACK CFI INIT 4bfb4 c .cfa: sp 0 +
STACK CFI INIT 4bfc0 120 .cfa: sp 0 +
STACK CFI INIT 4c0e0 488 .cfa: sp 0 +
STACK CFI INIT 4c568 c48 .cfa: sp 0 +
STACK CFI INIT 4d1b0 134 .cfa: sp 0 +
STACK CFI INIT 4d2e4 210 .cfa: sp 0 +
STACK CFI INIT 4d4f4 38c .cfa: sp 0 +
STACK CFI INIT 4d880 1c8 .cfa: sp 0 +
STACK CFI INIT 4da48 9bc .cfa: sp 0 +
STACK CFI INIT 4e404 2d4 .cfa: sp 0 +
STACK CFI INIT 4e6d8 134 .cfa: sp 0 +
STACK CFI INIT 4e80c 120 .cfa: sp 0 +
STACK CFI INIT 4e92c 1c8 .cfa: sp 0 +
STACK CFI INIT 4eaf4 168 .cfa: sp 0 +
STACK CFI INIT 4ec5c fc .cfa: sp 0 +
STACK CFI INIT 4ed58 30 .cfa: sp 0 +
STACK CFI INIT 4eec0 30 .cfa: sp 0 +
STACK CFI INIT 4eef0 98 .cfa: sp 0 +
STACK CFI INIT 4ef88 59c .cfa: sp 0 +
STACK CFI INIT 4f524 8c .cfa: sp 0 +
STACK CFI INIT 4f5b0 30 .cfa: sp 0 +
STACK CFI INIT 4fbb8 1c .cfa: sp 0 +
STACK CFI INIT 4fee8 50 .cfa: sp 0 +
STACK CFI 4feec .cfa: sp 32 +
STACK CFI 4fef4 .cfa: x29 32 + x19: .cfa -16 + ^ .ra: .cfa -24 + ^ x29: .cfa -32 + ^
STACK CFI 4ff0c .cfa: sp 32 +
STACK CFI 4ff14 .cfa: sp 0 +
STACK CFI 4ff18 .cfa: x29 32 +
STACK CFI 4ff2c .cfa: sp 32 +
STACK CFI 4ff34 .cfa: sp 0 +
STACK CFI INIT 4ffac 7c .cfa: sp 0 +
STACK CFI 4ffb0 .cfa: sp 48 +
STACK CFI 4ffbc .cfa: x29 48 + x19: .cfa -8 + ^ x20: .cfa -16 + ^ x21: .cfa -32 + ^ .ra: .cfa -40 + ^ x29: .cfa -48 + ^
STACK CFI 50008 .cfa: sp 48 +
STACK CFI 50014 .cfa: sp 0 +
STACK CFI 50018 .cfa: sp 48 +
STACK CFI 50024 .cfa: sp 0 +
STACK CFI INIT 50028 4 .cfa: sp 0 +
STACK CFI INIT 5002c 10 .cfa: sp 0 +
STACK CFI 50030 .cfa: sp 16 +
STACK CFI 50034 .cfa: x29 16 + .ra: .cfa -8 + ^ x29: .cfa -16 + ^
STACK CFI INIT 5003c 14 .cfa: sp 0 +
STACK CFI 50040 .cfa: sp 16 +
STACK CFI 50044 .cfa: x29 16 + .ra: .cfa -8 + ^ x29: .cfa -16 + ^
STACK CFI INIT 500a0 30 .cfa: sp 0 +
STACK CFI 500a4 .cfa: sp 32 +
STACK CFI 500ac .cfa: x29 32 + x19: .cfa -16 + ^ .ra: .cfa -24 + ^ x29: .cfa -32 + ^
STACK CFI 500c4 .cfa: sp 32 +
STACK CFI 500cc .cfa: sp 0 +
STACK CFI INIT 500d0 34 .cfa: sp 0 +
STACK CFI 500d4 .cfa: sp 32 +
STACK CFI 500dc .cfa: x29 32 + x19: .cfa -16 + ^ .ra: .cfa -24 + ^ x29: .cfa -32 + ^
STACK CFI INIT 50104 120 .cfa: sp 0 +
STACK CFI 50108 .cfa: sp 64 +
STACK CFI 50118 .cfa: x29 64 + x19: .cfa -8 + ^ x20: .cfa -16 + ^ x21: .cfa -24 + ^ x22: .cfa -32 + ^ x23: .cfa -40 + ^ x24: .cfa -48 + ^ .ra: .cfa -56 + ^ x29: .cfa -64 + ^
STACK CFI 50210 .cfa: sp 64 +
STACK CFI 50220 .cfa: sp 0 +
STACK CFI INIT 50418 7c .cfa: sp 0 +
STACK CFI 5041c .cfa: sp 32 +
STACK CFI 50424 .cfa: x29 32 + x19: .cfa -8 + ^ x20: .cfa -16 + ^ .ra: .cfa -24 + ^ x29: .cfa -32 + ^
STACK CFI 5047c .cfa: sp 32 +
STACK CFI 50484 .cfa: sp 0 +
STACK CFI 50488 .cfa: sp 32 +
STACK CFI 50490 .cfa: sp 0 +
STACK CFI INIT 50494 80 .cfa: sp 0 +
STACK CFI 50498 .cfa: sp 48 +
STACK CFI 504a4 .cfa: x29 48 + x19: .cfa -8 + ^ x20: .cfa -16 + ^ x21: .cfa -24 + ^ x22: .cfa -32 + ^ .ra: .cfa -40 + ^ x29: .cfa -48 + ^
STACK CFI 504bc .cfa: sp 48 +
STACK CFI 504c8 .cfa: sp 0 +
STACK CFI 504cc .cfa: x29 48 +
STACK CFI 504fc .cfa: sp 48 +
STACK CFI 50508 .cfa: sp 0 +
STACK CFI 5050c .cfa: x29 48 +
STACK CFI INIT 50514 1b0 .cfa: sp 0 +
STACK CFI INIT 50818 34 .cfa: sp 0 +
STACK CFI 5081c .cfa: sp 16 +
STACK CFI 50820 .cfa: x29 16 + .ra: .cfa -8 + ^ x29: .cfa -16 + ^
STACK CFI INIT 50978 80 .cfa: sp 0 +
STACK CFI 5097c .cfa: sp 48 +
STACK CFI 50988 .cfa: x29 48 + x19: .cfa -8 + ^ x20: .cfa -16 + ^ x21: .cfa -32 + ^ .ra: .cfa -40 + ^ x29: .cfa -48 + ^
STACK CFI 509e8 .cfa: sp 48 +
STACK CFI 509f4 .cfa: sp 0 +
STACK CFI INIT 509f8 24 .cfa: sp 0 +
STACK CFI 509fc .cfa: sp 32 +
STACK CFI 50a04 .cfa: x29 32 + x19: .cfa -16 + ^ .ra: .cfa -24 + ^ x29: .cfa -32 + ^
STACK CFI 50a10 .cfa: sp 32 +
STACK CFI 50a18 .cfa: sp 0 +
STACK CFI INIT 50f14 148 .cfa: sp 0 +
STACK CFI 50f18 .cfa: sp 48 +
STACK CFI 50f24 .cfa: x29 48 + x19: .cfa -8 + ^ x20: .cfa -16 + ^ x21: .cfa -32 + ^ .ra: .cfa -40 + ^ x29: .cfa -48 + ^
STACK CFI 5104c .cfa: sp 48 +
STACK CFI 51058 .cfa: sp 0 +
STACK CFI INIT 5105c 4 .cfa: sp 0 +
STACK CFI INIT 51060 14 .cfa: sp 0 +
STACK CFI INIT 5129c 68 .cfa: sp 0 +
STACK CFI 512a0 .cfa: sp 32 +
STACK CFI 512a8 .cfa: x29 32 + x19: .cfa -8 + ^ x20: .cfa -16 + ^ .ra: .cfa -24 + ^ x29: .cfa -32 + ^
STACK CFI 512c0 .cfa: sp 32 +
STACK CFI 512c8 .cfa: sp 0 +
STACK CFI 512cc .cfa: x29 32 +
STACK CFI 512f8 .cfa: sp 32 +
STACK CFI 51300 .cfa: sp 0 +
STACK CFI INIT 51304 14 .cfa: sp 0 +
STACK CFI 51308 .cfa: sp 16 +
STACK CFI 5130c .cfa: x29 16 + .ra: .cfa -8 + ^ x29: .cfa -16 + ^
STACK CFI INIT 51318 4 .cfa: sp 0 +
STACK CFI INIT 5131c 14 .cfa: sp 0 +
STACK CFI INIT 51330 d4 .cfa: sp 0 +
STACK CFI 51334 .cfa: sp 48 +
STACK CFI 51340 .cfa: x29 48 + x19: .cfa -8 + ^ x20: .cfa -16 + ^ x21: .cfa -32 + ^ .ra: .cfa -40 + ^ x29: .cfa -48 + ^
STACK CFI 513d0 .cfa: sp 48 +
STACK CFI 513dc .cfa: sp 0 +
STACK CFI 513e0 .cfa: x29 48 +
STACK CFI INIT 51404 3c8 .cfa: sp 0 +
STACK CFI INIT 517cc 8c .cfa: sp 0 +
STACK CFI 517d4 .cfa: sp 32 +
STACK CFI 517dc .cfa: x29 32 + x19: .cfa -8 + ^ x20: .cfa -16 + ^ .ra: .cfa -24 + ^ x29: .cfa -32 + ^
STACK CFI 51824 .cfa: sp 32 +
STACK CFI 5182c .cfa: sp 0 +
STACK CFI 51834 .cfa: x29 32 +
STACK CFI INIT 526d0 98 .cfa: sp 0 +
STACK CFI INIT 52768 50 .cfa: sp 0 +
STACK CFI 5276c .cfa: sp 32 +
STACK CFI 52774 .cfa: x29 32 + x19: .cfa -16 + ^ .ra: .cfa -24 + ^ x29: .cfa -32 + ^
STACK CFI 5278c .cfa: sp 32 +
STACK CFI 52794 .cfa: sp 0 +
STACK CFI 52798 .cfa: x29 32 +
STACK CFI 527ac .cfa: sp 32 +
STACK CFI 527b4 .cfa: sp 0 +
STACK CFI INIT 527b8 64 .cfa: sp 0 +
STACK CFI 527bc .cfa: sp 32 +
STACK CFI 527c4 .cfa: x29 32 + x19: .cfa -16 + ^ .ra: .cfa -24 + ^ x29: .cfa -32 + ^
STACK CFI 527f0 .cfa: sp 32 +
STACK CFI 527f8 .cfa: sp 0 +
STACK CFI 527fc .cfa: x29 32 +
STACK CFI 52810 .cfa: sp 32 +
STACK CFI 52818 .cfa: sp 0 +
STACK CFI INIT 52ca4 4 .cfa: sp 0 +
STACK CFI INIT 52ca8 14 .cfa: sp 0 +
STACK CFI INIT 52cbc 4 .cfa: sp 0 +
STACK CFI INIT 52cc0 14 .cfa: sp 0 +
STACK CFI INIT 52cd4 4 .cfa: sp 0 +
STACK CFI INIT 52cd8 14 .cfa: sp 0 +
STACK CFI INIT 52e7c 4 .cfa: sp 0 +
STACK CFI INIT 52e80 14 .cfa: sp 0 +
STACK CFI INIT 52e94 104 .cfa: sp 0 +
STACK CFI 52e98 .cfa: sp 64 +
STACK CFI 52ea8 .cfa: x29 64 + x19: .cfa -8 + ^ x20: .cfa -16 + ^ x21: .cfa -24 + ^ x22: .cfa -32 + ^ x23: .cfa -48 + ^ .ra: .cfa -56 + ^ x29: .cfa -64 + ^
STACK CFI 52f04 .cfa: sp 64 +
STACK CFI 52f14 .cfa: sp 0 +
STACK CFI 52f18 .cfa: x29 64 +
STACK CFI 52f34 .cfa: sp 64 +
STACK CFI 52f44 .cfa: sp 0 +
STACK CFI 52f48 .cfa: x29 64 +
STACK CFI 52f84 .cfa: sp 64 +
STACK CFI 52f94 .cfa: sp 0 +
STACK CFI INIT 52f98 178 .cfa: sp 0 +
STACK CFI 52f9c .cfa: sp 80 +
STACK CFI 52fb0 .cfa: x29 80 + x19: .cfa -8 + ^ x20: .cfa -16 + ^ x21: .cfa -24 + ^ x22: .cfa -32 + ^ x23: .cfa -40 + ^ x24: .cfa -48 + ^ x25: .cfa -56 + ^ x26: .cfa -64 + ^ .ra: .cfa -72 + ^ x29: .cfa -80 + ^
STACK CFI 530f8 .cfa: sp 80 +
STACK CFI 5310c .cfa: sp 0 +
STACK CFI INIT 53110 9c .cfa: sp 0 +
STACK CFI 53114 .cfa: sp 48 +
STACK CFI 53120 .cfa: x29 48 + x19: .cfa -8 + ^ x20: .cfa -16 + ^ x21: .cfa -24 + ^ x22: .cfa -32 + ^ .ra: .cfa -40 + ^ x29: .cfa -48 + ^
STACK CFI 53154 .cfa: sp 48 +
STACK CFI 53160 .cfa: sp 0 +
STACK CFI 53164 .cfa: x29 48 +
STACK CFI 53194 .cfa: sp 48 +
STACK CFI 531a0 .cfa: sp 0 +
STACK CFI 531a4 .cfa: x29 48 +
STACK CFI INIT 53304 18 .cfa: sp 0 +
STACK CFI INIT 5331c 18 .cfa: sp 0 +
STACK CFI INIT 5382c 1c .cfa: sp 0 +
STACK CFI INIT 53848 8c .cfa: sp 0 +
STACK CFI 5384c .cfa: sp 48 +
STACK CFI 53858 .cfa: x29 48 + x19: .cfa -8 + ^ x20: .cfa -16 + ^ x21: .cfa -24 + ^ x22: .cfa -32 + ^ .ra: .cfa -40 + ^ x29: .cfa -48 + ^
STACK CFI 53860 .cfa: sp 48 +
STACK CFI 5386c .cfa: sp 0 +
STACK CFI 53870 .cfa: x29 48 +
STACK CFI 538c4 .cfa: sp 48 +
STACK CFI 538d0 .cfa: sp 0 +
STACK CFI INIT 538d4 60 .cfa: sp 0 +
STACK CFI 538e4 .cfa: sp 32 +
STACK CFI 538ec .cfa: x29 32 + x19: .cfa -8 + ^ x20: .cfa -16 + ^ .ra: .cfa -24 + ^ x29: .cfa -32 + ^
STACK CFI 53928 .cfa: sp 32 +
STACK CFI 53930 .cfa: sp 0 +
STACK CFI INIT 541d0 3c .cfa: sp 0 +
STACK CFI 541d4 .cfa: sp 32 +
STACK CFI 541dc .cfa: x29 32 + x19: .cfa -16 + ^ .ra: .cfa -24 + ^ x29: .cfa -32 + ^
STACK CFI 541e8 .cfa: sp 32 +
STACK CFI 541f0 .cfa: sp 0 +
STACK CFI 541f4 .cfa: x29 32 +
STACK CFI 54200 .cfa: sp 32 +
STACK CFI 54208 .cfa: sp 0 +
STACK CFI INIT 5420c 4 .cfa: sp 0 +
STACK CFI INIT 54634 4 .cfa: sp 0 +
STACK CFI INIT 55318 14 .cfa: sp 0 +
STACK CFI 5531c .cfa: sp 16 +
STACK CFI 55320 .cfa: x29 16 + .ra: .cfa -8 + ^ x29: .cfa -16 + ^
STACK CFI INIT 583ec 78 .cfa: sp 0 +
STACK CFI 583f0 .cfa: sp 64 +
STACK CFI 583fc .cfa: x29 32 + x19: .cfa -8 + ^ x20: .cfa -16 + ^ .ra: .cfa -24 + ^ x29: .cfa -32 + ^
STACK CFI 58450 .cfa: sp 64 +
STACK CFI 5845c .cfa: sp 0 +
STACK CFI 58460 .cfa: x29 32 +
STACK CFI INIT 58464 68 .cfa: sp 0 +
STACK CFI 58468 .cfa: sp 48 +
STACK CFI 58474 .cfa: x29 48 + x19: .cfa -8 + ^ x20: .cfa -16 + ^ x21: .cfa -32 + ^ .ra: .cfa -40 + ^ x29: .cfa -48 + ^
STACK CFI 584ac .cfa: sp 48 +
STACK CFI 584b8 .cfa: sp 0 +
STACK CFI 584bc .cfa: sp 48 +
STACK CFI 584c8 .cfa: sp 0 +
STACK CFI INIT 58540 8c .cfa: sp 0 +
STACK CFI 58544 .cfa: sp 80 +
STACK CFI 58554 .cfa: x29 48 + x19: .cfa -8 + ^ x20: .cfa -16 + ^ x21: .cfa -32 + ^ .ra: .cfa -40 + ^ x29: .cfa -48 + ^
STACK CFI 585b4 .cfa: sp 80 +
STACK CFI 585c4 .cfa: sp 0 +
STACK CFI 585c8 .cfa: x29 48 +
STACK CFI INIT 585cc 2c .cfa: sp 0 +
STACK CFI INIT 5889c 80 .cfa: sp 0 +
STACK CFI 588a0 .cfa: sp 48 +
STACK CFI 588ac .cfa: x29 48 + x19: .cfa -8 + ^ x20: .cfa -16 + ^ x21: .cfa -24 + ^ x22: .cfa -32 + ^ .ra: .cfa -40 + ^ x29: .cfa -48 + ^
STACK CFI 588f8 .cfa: sp 48 +
STACK CFI 58904 .cfa: sp 0 +
STACK CFI 58908 .cfa: x29 48 +
STACK CFI 5890c .cfa: sp 48 +
STACK CFI 58918 .cfa: sp 0 +
STACK CFI INIT 58b14 2c .cfa: sp 0 +
STACK CFI INIT 59160 3c .cfa: sp 0 +
STACK CFI 59164 .cfa: sp 32 +
STACK CFI 5916c .cfa: x29 32 + x19: .cfa -16 + ^ .ra: .cfa -24 + ^ x29: .cfa -32 + ^
STACK CFI 59180 .cfa: sp 32 +
STACK CFI 59188 .cfa: sp 0 +
STACK CFI 5918c .cfa: x29 32 +
STACK CFI 59190 .cfa: sp 32 +
STACK CFI 59198 .cfa: sp 0 +
STACK CFI INIT 59210 98 .cfa: sp 0 +
STACK CFI 59214 .cfa: sp 48 +
STACK CFI 59220 .cfa: x29 48 + x19: .cfa -8 + ^ x20: .cfa -16 + ^ x21: .cfa -24 + ^ x22: .cfa -32 + ^ .ra: .cfa -40 + ^ x29: .cfa -48 + ^
STACK CFI 59298 .cfa: sp 48 +
STACK CFI 592a4 .cfa: sp 0 +
STACK CFI INIT 59c20 2c .cfa: sp 0 +
STACK CFI INIT 59c4c 30 .cfa: sp 0 +
STACK CFI 59c50 .cfa: sp 16 +
STACK CFI 59c54 .cfa: x29 16 + .ra: .cfa -8 + ^ x29: .cfa -16 + ^
STACK CFI 59c74 .cfa: sp 16 +
STACK CFI 59c78 .cfa: sp 0 +
STACK CFI INIT 59e04 2c .cfa: sp 0 +
STACK CFI INIT 59e30 154 .cfa: sp 0 +
STACK CFI 59e34 .cfa: sp 64 +
STACK CFI 59e44 .cfa: x29 64 + x19: .cfa -8 + ^ x20: .cfa -16 + ^ x21: .cfa -24 + ^ x22: .cfa -32 + ^ x23: .cfa -48 + ^ .ra: .cfa -56 + ^ x29: .cfa -64 + ^
STACK CFI 59f70 .cfa: sp 64 +
STACK CFI 59f80 .cfa: sp 0 +
STACK CFI INIT 59f84 154 .cfa: sp 0 +
STACK CFI 59f88 .cfa: sp 64 +
STACK CFI 59f98 .cfa: x29 64 + x19: .cfa -8 + ^ x20: .cfa -16 + ^ x21: .cfa -24 + ^ x22: .cfa -32 + ^ x23: .cfa -48 + ^ .ra: .cfa -56 + ^ x29: .cfa -64 + ^
STACK CFI 5a0c4 .cfa: sp 64 +
STACK CFI 5a0d4 .cfa: sp 0 +
STACK CFI INIT 5a14c 8 .cfa: sp 0 +
STACK CFI INIT 5a154 14 .cfa: sp 0 +
STACK CFI INIT 5a3e4 e0 .cfa: sp 0 +
STACK CFI 5a3e8 .cfa: sp 64 +
STACK CFI 5a3f8 .cfa: x29 64 + x19: .cfa -8 + ^ x20: .cfa -16 + ^ x21: .cfa -24 + ^ x22: .cfa -32 + ^ x23: .cfa -40 + ^ x24: .cfa -48 + ^ .ra: .cfa -56 + ^ x29: .cfa -64 + ^
STACK CFI 5a488 .cfa: sp 64 +
STACK CFI 5a498 .cfa: sp 0 +
STACK CFI 5a49c .cfa: x29 64 +
STACK CFI 5a4a8 .cfa: sp 64 +
STACK CFI 5a4b8 .cfa: sp 0 +
STACK CFI 5a4bc .cfa: x29 64 +
STACK CFI INIT 5a4c4 14 .cfa: sp 0 +
STACK CFI 5a4c8 .cfa: sp 16 +
STACK CFI 5a4cc .cfa: x29 16 + .ra: .cfa -8 + ^ x29: .cfa -16 + ^
STACK CFI INIT 5a4d8 54 .cfa: sp 0 +
STACK CFI 5a4dc .cfa: sp 32 +
STACK CFI 5a4e4 .cfa: x29 32 + x19: .cfa -8 + ^ x20: .cfa -16 + ^ .ra: .cfa -24 + ^ x29: .cfa -32 + ^
STACK CFI 5a514 .cfa: sp 32 +
STACK CFI 5a51c .cfa: sp 0 +
STACK CFI 5a520 .cfa: sp 32 +
STACK CFI 5a528 .cfa: sp 0 +
STACK CFI INIT 5a52c 11c .cfa: sp 0 +
STACK CFI 5a530 .cfa: sp 64 +
STACK CFI 5a540 .cfa: x29 64 + x19: .cfa -8 + ^ x20: .cfa -16 + ^ x21: .cfa -24 + ^ x22: .cfa -32 + ^ x23: .cfa -40 + ^ x24: .cfa -48 + ^ .ra: .cfa -56 + ^ x29: .cfa -64 + ^
STACK CFI 5a618 .cfa: sp 64 +
STACK CFI 5a628 .cfa: sp 0 +
STACK CFI 5a62c .cfa: x29 64 +
STACK CFI INIT 5a764 7c .cfa: sp 0 +
STACK CFI 5a768 .cfa: sp 48 +
STACK CFI 5a774 .cfa: x29 48 + x19: .cfa -8 + ^ x20: .cfa -16 + ^ x21: .cfa -24 + ^ x22: .cfa -32 + ^ .ra: .cfa -40 + ^ x29: .cfa -48 + ^
STACK CFI 5a77c .cfa: sp 48 +
STACK CFI 5a788 .cfa: sp 0 +
STACK CFI 5a78c .cfa: x29 48 +
STACK CFI 5a7d0 .cfa: sp 48 +
STACK CFI 5a7dc .cfa: sp 0 +
STACK CFI INIT 5a7e0 68 .cfa: sp 0 +
STACK CFI 5a7e4 .cfa: sp 48 +
STACK CFI 5a7f0 .cfa: x29 48 + x19: .cfa -8 + ^ x20: .cfa -16 + ^ x21: .cfa -32 + ^ .ra: .cfa -40 + ^ x29: .cfa -48 + ^
STACK CFI 5a828 .cfa: sp 48 +
STACK CFI 5a834 .cfa: sp 0 +
STACK CFI 5a838 .cfa: sp 48 +
STACK CFI 5a844 .cfa: sp 0 +
STACK CFI INIT 5a848 14 .cfa: sp 0 +
STACK CFI INIT 5ae04 14 .cfa: sp 0 +
STACK CFI 5ae08 .cfa: sp 16 +
STACK CFI 5ae0c .cfa: x29 16 + .ra: .cfa -8 + ^ x29: .cfa -16 + ^
STACK CFI INIT 5ae18 14 .cfa: sp 0 +
STACK CFI INIT 5ae2c 14 .cfa: sp 0 +
STACK CFI INIT 5ae40 14 .cfa: sp 0 +
STACK CFI INIT 5ae54 14 .cfa: sp 0 +
STACK CFI INIT 5b010 4 .cfa: sp 0 +
STACK CFI INIT 5b014 14 .cfa: sp 0 +
STACK CFI INIT 5b500 114 .cfa: sp 0 +
STACK CFI 5b504 .cfa: sp 48 +
STACK CFI 5b510 .cfa: x29 48 + x19: .cfa -8 + ^ x20: .cfa -16 + ^ x21: .cfa -24 + ^ x22: .cfa -32 + ^ .ra: .cfa -40 + ^ x29: .cfa -48 + ^
STACK CFI 5b5ec .cfa: sp 48 +
STACK CFI 5b5f8 .cfa: sp 0 +
STACK CFI 5b5fc .cfa: sp 48 +
STACK CFI 5b608 .cfa: sp 0 +
STACK CFI 5b60c .cfa: x29 48 +
STACK CFI INIT 5b614 168 .cfa: sp 0 +
STACK CFI 5b618 .cfa: sp 48 +
STACK CFI 5b624 .cfa: x29 48 + x19: .cfa -8 + ^ x20: .cfa -16 + ^ x21: .cfa -24 + ^ x22: .cfa -32 + ^ .ra: .cfa -40 + ^ x29: .cfa -48 + ^
STACK CFI 5b760 .cfa: sp 48 +
STACK CFI 5b76c .cfa: sp 0 +
STACK CFI 5b770 .cfa: x29 48 +
STACK CFI INIT 5b8e8 7c .cfa: sp 0 +
STACK CFI 5b8ec .cfa: sp 48 +
STACK CFI 5b8f8 .cfa: x29 48 + x19: .cfa -8 + ^ x20: .cfa -16 + ^ x21: .cfa -32 + ^ .ra: .cfa -40 + ^ x29: .cfa -48 + ^
STACK CFI 5b944 .cfa: sp 48 +
STACK CFI 5b950 .cfa: sp 0 +
STACK CFI 5b954 .cfa: sp 48 +
STACK CFI 5b960 .cfa: sp 0 +
STACK CFI INIT 5b964 14 .cfa: sp 0 +
STACK CFI INIT 5bb20 11c .cfa: sp 0 +
STACK CFI 5bb24 .cfa: sp 64 +
STACK CFI 5bb34 .cfa: x29 64 + x19: .cfa -8 + ^ x20: .cfa -16 + ^ x21: .cfa -24 + ^ x22: .cfa -32 + ^ x23: .cfa -40 + ^ x24: .cfa -48 + ^ .ra: .cfa -56 + ^ x29: .cfa -64 + ^
STACK CFI 5bc0c .cfa: sp 64 +
STACK CFI 5bc1c .cfa: sp 0 +
STACK CFI 5bc20 .cfa: x29 64 +
STACK CFI INIT 5c6dc 1c .cfa: sp 0 +
STACK CFI INIT 5c99c 4 .cfa: sp 0 +
STACK CFI INIT 5c9a0 4 .cfa: sp 0 +
STACK CFI INIT 60020 2c .cfa: sp 0 +
STACK CFI INIT 60488 1c .cfa: sp 0 +
STACK CFI INIT 60af0 4 .cfa: sp 0 +
STACK CFI INIT 61ee4 78 .cfa: sp 0 +
STACK CFI 61ee8 .cfa: sp 48 +
STACK CFI 61ef4 .cfa: x29 48 + x19: .cfa -8 + ^ x20: .cfa -16 + ^ x21: .cfa -32 + ^ .ra: .cfa -40 + ^ x29: .cfa -48 + ^
STACK CFI 61f3c .cfa: sp 48 +
STACK CFI 61f48 .cfa: sp 0 +
STACK CFI 61f4c .cfa: sp 48 +
STACK CFI 61f58 .cfa: sp 0 +
STACK CFI INIT 61f5c 78 .cfa: sp 0 +
STACK CFI 61f60 .cfa: sp 48 +
STACK CFI 61f6c .cfa: x29 48 + x19: .cfa -8 + ^ x20: .cfa -16 + ^ x21: .cfa -32 + ^ .ra: .cfa -40 + ^ x29: .cfa -48 + ^
STACK CFI 61fb4 .cfa: sp 48 +
STACK CFI 61fc0 .cfa: sp 0 +
STACK CFI 61fc4 .cfa: sp 48 +
STACK CFI 61fd0 .cfa: sp 0 +
STACK CFI INIT 61fd4 84 .cfa: sp 0 +
STACK CFI 61fd8 .cfa: sp 48 +
STACK CFI 61fe4 .cfa: x29 48 + x19: .cfa -8 + ^ x20: .cfa -16 + ^ x21: .cfa -24 + ^ x22: .cfa -32 + ^ .ra: .cfa -40 + ^ x29: .cfa -48 + ^
STACK CFI 62038 .cfa: sp 48 +
STACK CFI 62044 .cfa: sp 0 +
STACK CFI 62048 .cfa: sp 48 +
STACK CFI 62054 .cfa: sp 0 +
STACK CFI INIT 62074 8c .cfa: sp 0 +
STACK CFI 62078 .cfa: sp 48 +
STACK CFI 62084 .cfa: x29 48 + x19: .cfa -8 + ^ x20: .cfa -16 + ^ x21: .cfa -24 + ^ x22: .cfa -32 + ^ .ra: .cfa -40 + ^ x29: .cfa -48 + ^
STACK CFI 620bc .cfa: sp 48 +
STACK CFI 620c8 .cfa: sp 0 +
STACK CFI 620cc .cfa: x29 48 +
STACK CFI 620f0 .cfa: sp 48 +
STACK CFI 620fc .cfa: sp 0 +
STACK CFI INIT 62100 78 .cfa: sp 0 +
STACK CFI 62104 .cfa: sp 48 +
STACK CFI 62110 .cfa: x29 48 + x19: .cfa -8 + ^ x20: .cfa -16 + ^ x21: .cfa -32 + ^ .ra: .cfa -40 + ^ x29: .cfa -48 + ^
STACK CFI 62158 .cfa: sp 48 +
STACK CFI 62164 .cfa: sp 0 +
STACK CFI 62168 .cfa: sp 48 +
STACK CFI 62174 .cfa: sp 0 +
STACK CFI INIT 62178 8c .cfa: sp 0 +
STACK CFI 6217c .cfa: sp 48 +
STACK CFI 62188 .cfa: x29 48 + x19: .cfa -8 + ^ x20: .cfa -16 + ^ x21: .cfa -24 + ^ x22: .cfa -32 + ^ .ra: .cfa -40 + ^ x29: .cfa -48 + ^
STACK CFI 621c0 .cfa: sp 48 +
STACK CFI 621cc .cfa: sp 0 +
STACK CFI 621d0 .cfa: x29 48 +
STACK CFI 621f4 .cfa: sp 48 +
STACK CFI 62200 .cfa: sp 0 +
STACK CFI INIT 62204 78 .cfa: sp 0 +
STACK CFI 62208 .cfa: sp 48 +
STACK CFI 62214 .cfa: x29 48 + x19: .cfa -8 + ^ x20: .cfa -16 + ^ x21: .cfa -32 + ^ .ra: .cfa -40 + ^ x29: .cfa -48 + ^
STACK CFI 6225c .cfa: sp 48 +
STACK CFI 62268 .cfa: sp 0 +
STACK CFI 6226c .cfa: sp 48 +
STACK CFI 62278 .cfa: sp 0 +
STACK CFI INIT 6227c 104 .cfa: sp 0 +
STACK CFI 62280 .cfa: sp 64 +
STACK CFI 62290 .cfa: x29 64 + x19: .cfa -8 + ^ x20: .cfa -16 + ^ x21: .cfa -24 + ^ x22: .cfa -32 + ^ x23: .cfa -48 + ^ .ra: .cfa -56 + ^ x29: .cfa -64 + ^
STACK CFI 62358 .cfa: sp 64 +
STACK CFI 62368 .cfa: sp 0 +
STACK CFI 6236c .cfa: sp 64 +
STACK CFI 6237c .cfa: sp 0 +
STACK CFI INIT 62778 78 .cfa: sp 0 +
STACK CFI 6277c .cfa: sp 48 +
STACK CFI 62788 .cfa: x29 48 + x19: .cfa -8 + ^ x20: .cfa -16 + ^ x21: .cfa -32 + ^ .ra: .cfa -40 + ^ x29: .cfa -48 + ^
STACK CFI 627d0 .cfa: sp 48 +
STACK CFI 627dc .cfa: sp 0 +
STACK CFI 627e0 .cfa: sp 48 +
STACK CFI 627ec .cfa: sp 0 +
STACK CFI INIT 6280c 90 .cfa: sp 0 +
STACK CFI 62810 .cfa: sp 48 +
STACK CFI 6281c .cfa: x29 48 + x19: .cfa -8 + ^ x20: .cfa -16 + ^ x21: .cfa -24 + ^ x22: .cfa -32 + ^ .ra: .cfa -40 + ^ x29: .cfa -48 + ^
STACK CFI 62854 .cfa: sp 48 +
STACK CFI 62860 .cfa: sp 0 +
STACK CFI 62864 .cfa: x29 48 +
STACK CFI 6288c .cfa: sp 48 +
STACK CFI 62898 .cfa: sp 0 +
STACK CFI INIT 62934 3c .cfa: sp 0 +
STACK CFI 62938 .cfa: sp 32 +
STACK CFI 62940 .cfa: x29 32 + x19: .cfa -16 + ^ .ra: .cfa -24 + ^ x29: .cfa -32 + ^
STACK CFI 62958 .cfa: sp 32 +
STACK CFI 62960 .cfa: sp 0 +
STACK CFI 62964 .cfa: sp 32 +
STACK CFI 6296c .cfa: sp 0 +
STACK CFI INIT 629a8 78 .cfa: sp 0 +
STACK CFI 629ac .cfa: sp 48 +
STACK CFI 629b8 .cfa: x29 48 + x19: .cfa -8 + ^ x20: .cfa -16 + ^ x21: .cfa -32 + ^ .ra: .cfa -40 + ^ x29: .cfa -48 + ^
STACK CFI 62a00 .cfa: sp 48 +
STACK CFI 62a0c .cfa: sp 0 +
STACK CFI 62a10 .cfa: sp 48 +
STACK CFI 62a1c .cfa: sp 0 +
STACK CFI INIT 62a20 78 .cfa: sp 0 +
STACK CFI 62a24 .cfa: sp 48 +
STACK CFI 62a30 .cfa: x29 48 + x19: .cfa -8 + ^ x20: .cfa -16 + ^ x21: .cfa -32 + ^ .ra: .cfa -40 + ^ x29: .cfa -48 + ^
STACK CFI 62a78 .cfa: sp 48 +
STACK CFI 62a84 .cfa: sp 0 +
STACK CFI 62a88 .cfa: sp 48 +
STACK CFI 62a94 .cfa: sp 0 +
STACK CFI INIT 62a98 78 .cfa: sp 0 +
STACK CFI 62a9c .cfa: sp 48 +
STACK CFI 62aa8 .cfa: x29 48 + x19: .cfa -8 + ^ x20: .cfa -16 + ^ x21: .cfa -32 + ^ .ra: .cfa -40 + ^ x29: .cfa -48 + ^
STACK CFI 62af0 .cfa: sp 48 +
STACK CFI 62afc .cfa: sp 0 +
STACK CFI 62b00 .cfa: sp 48 +
STACK CFI 62b0c .cfa: sp 0 +
STACK CFI INIT 62b10 78 .cfa: sp 0 +
STACK CFI 62b14 .cfa: sp 48 +
STACK CFI 62b20 .cfa: x29 48 + x19: .cfa -8 + ^ x20: .cfa -16 + ^ x21: .cfa -32 + ^ .ra: .cfa -40 + ^ x29: .cfa -48 + ^
STACK CFI 62b68 .cfa: sp 48 +
STACK CFI 62b74 .cfa: sp 0 +
STACK CFI 62b78 .cfa: sp 48 +
STACK CFI 62b84 .cfa: sp 0 +
STACK CFI INIT 62d54 2b8 .cfa: sp 0 +
STACK CFI 62d58 .cfa: sp 80 +
STACK CFI 62d6c .cfa: x29 80 + x19: .cfa -8 + ^ x20: .cfa -16 + ^ x21: .cfa -24 + ^ x22: .cfa -32 + ^ x23: .cfa -40 + ^ x24: .cfa -48 + ^ x25: .cfa -64 + ^ .ra: .cfa -72 + ^ x29: .cfa -80 + ^
STACK CFI 62f18 .cfa: sp 80 +
STACK CFI 62f2c .cfa: sp 0 +
STACK CFI 62f30 .cfa: x29 80 +
STACK CFI 62ff4 .cfa: sp 80 +
STACK CFI 63008 .cfa: sp 0 +
STACK CFI INIT 6300c 80 .cfa: sp 0 +
STACK CFI 63010 .cfa: sp 48 +
STACK CFI 6301c .cfa: x29 48 + x19: .cfa -8 + ^ x20: .cfa -16 + ^ x21: .cfa -32 + ^ .ra: .cfa -40 + ^ x29: .cfa -48 + ^
STACK CFI 6306c .cfa: sp 48 +
STACK CFI 63078 .cfa: sp 0 +
STACK CFI 6307c .cfa: sp 48 +
STACK CFI 63088 .cfa: sp 0 +
STACK CFI INIT 6308c 80 .cfa: sp 0 +
STACK CFI 63090 .cfa: sp 48 +
STACK CFI 6309c .cfa: x29 48 + x19: .cfa -8 + ^ x20: .cfa -16 + ^ x21: .cfa -32 + ^ .ra: .cfa -40 + ^ x29: .cfa -48 + ^
STACK CFI 630ec .cfa: sp 48 +
STACK CFI 630f8 .cfa: sp 0 +
STACK CFI 630fc .cfa: sp 48 +
STACK CFI 63108 .cfa: sp 0 +
STACK CFI INIT 632ac 2b8 .cfa: sp 0 +
STACK CFI INIT 63564 1bc .cfa: sp 0 +
STACK CFI 63568 .cfa: sp 64 +
STACK CFI 63578 .cfa: x29 64 + x19: .cfa -8 + ^ x20: .cfa -16 + ^ x21: .cfa -24 + ^ x22: .cfa -32 + ^ x23: .cfa -48 + ^ .ra: .cfa -56 + ^ x29: .cfa -64 + ^
STACK CFI 6367c .cfa: sp 64 +
STACK CFI 6368c .cfa: sp 0 +
STACK CFI 63690 .cfa: x29 64 +
STACK CFI INIT 63720 80 .cfa: sp 0 +
STACK CFI 63724 .cfa: sp 48 +
STACK CFI 63730 .cfa: x29 48 + x19: .cfa -8 + ^ x20: .cfa -16 + ^ x21: .cfa -32 + ^ .ra: .cfa -40 + ^ x29: .cfa -48 + ^
STACK CFI 63780 .cfa: sp 48 +
STACK CFI 6378c .cfa: sp 0 +
STACK CFI 63790 .cfa: sp 48 +
STACK CFI 6379c .cfa: sp 0 +
STACK CFI INIT 637a0 98 .cfa: sp 0 +
STACK CFI 637a8 .cfa: sp 48 +
STACK CFI 637b4 .cfa: x29 48 + x19: .cfa -8 + ^ x20: .cfa -16 + ^ x21: .cfa -32 + ^ .ra: .cfa -40 + ^ x29: .cfa -48 + ^
STACK CFI 63804 .cfa: sp 0 + x19: x19 x20: x20 x21: x21 .ra: x30 x29: x29
STACK CFI 63808 .cfa: x29 48 + x19: .cfa -8 + ^ x20: .cfa -16 + ^ x21: .cfa -32 + ^ .ra: .cfa -40 + ^ x29: .cfa -48 + ^
STACK CFI 63828 .cfa: sp 48 +
STACK CFI 63834 .cfa: sp 0 +
STACK CFI INIT 63838 54 .cfa: sp 0 +
STACK CFI 63840 .cfa: sp 32 +
STACK CFI 63848 .cfa: x29 32 + x19: .cfa -8 + ^ x20: .cfa -16 + ^ .ra: .cfa -24 + ^ x29: .cfa -32 + ^
STACK CFI 63880 .cfa: sp 32 +
STACK CFI 63888 .cfa: sp 0 +
STACK CFI INIT 6388c 54 .cfa: sp 0 +
STACK CFI 63894 .cfa: sp 32 +
STACK CFI 6389c .cfa: x29 32 + x19: .cfa -8 + ^ x20: .cfa -16 + ^ .ra: .cfa -24 + ^ x29: .cfa -32 + ^
STACK CFI 638d4 .cfa: sp 32 +
STACK CFI 638dc .cfa: sp 0 +
STACK CFI INIT 63988 54 .cfa: sp 0 +
STACK CFI 63990 .cfa: sp 32 +
STACK CFI 63998 .cfa: x29 32 + x19: .cfa -8 + ^ x20: .cfa -16 + ^ .ra: .cfa -24 + ^ x29: .cfa -32 + ^
STACK CFI 639d0 .cfa: sp 32 +
STACK CFI 639d8 .cfa: sp 0 +
STACK CFI INIT 639dc a8 .cfa: sp 0 +
STACK CFI 639e4 .cfa: sp 48 +
STACK CFI 639f0 .cfa: x29 48 + x19: .cfa -8 + ^ x20: .cfa -16 + ^ x21: .cfa -24 + ^ x22: .cfa -32 + ^ .ra: .cfa -40 + ^ x29: .cfa -48 + ^
STACK CFI 63a74 .cfa: sp 48 +
STACK CFI 63a80 .cfa: sp 0 +
STACK CFI INIT 63a84 54 .cfa: sp 0 +
STACK CFI 63a8c .cfa: sp 32 +
STACK CFI 63a94 .cfa: x29 32 + x19: .cfa -8 + ^ x20: .cfa -16 + ^ .ra: .cfa -24 + ^ x29: .cfa -32 + ^
STACK CFI 63acc .cfa: sp 32 +
STACK CFI 63ad4 .cfa: sp 0 +
STACK CFI INIT 63e48 18 .cfa: sp 0 +
STACK CFI INIT 644d8 14c .cfa: sp 0 +
STACK CFI 644dc .cfa: sp 80 +
STACK CFI 644ec .cfa: x29 32 + x19: .cfa -8 + ^ x20: .cfa -16 + ^ .ra: .cfa -24 + ^ x29: .cfa -32 + ^ v8: .cfa -40 + ^ v9: .cfa -48 + ^
STACK CFI 645ac .cfa: sp 80 +
STACK CFI 645bc .cfa: sp 0 +
STACK CFI 645c0 .cfa: x29 32 +
STACK CFI INIT 64624 114 .cfa: sp 0 +
STACK CFI 64628 .cfa: sp 64 +
STACK CFI 64638 .cfa: x29 64 + x19: .cfa -8 + ^ x20: .cfa -16 + ^ x21: .cfa -24 + ^ x22: .cfa -32 + ^ x23: .cfa -40 + ^ x24: .cfa -48 + ^ .ra: .cfa -56 + ^ x29: .cfa -64 + ^
STACK CFI 646ec .cfa: sp 64 +
STACK CFI 646fc .cfa: sp 0 +
STACK CFI 64700 .cfa: x29 64 +
STACK CFI 64724 .cfa: sp 64 +
STACK CFI 64734 .cfa: sp 0 +
STACK CFI INIT 6eed4 8 .cfa: sp 0 +
STACK CFI INIT 6eedc 24 .cfa: sp 0 +
STACK CFI 6eee0 .cfa: sp 32 +
STACK CFI 6eee8 .cfa: x29 32 + x19: .cfa -16 + ^ .ra: .cfa -24 + ^ x29: .cfa -32 + ^
STACK CFI 6eef4 .cfa: sp 32 +
STACK CFI 6eefc .cfa: sp 0 +
STACK CFI INIT 6ef00 28 .cfa: sp 0 +
STACK CFI 6ef04 .cfa: sp 32 +
STACK CFI 6ef0c .cfa: x29 32 + x19: .cfa -16 + ^ .ra: .cfa -24 + ^ x29: .cfa -32 + ^
STACK CFI 6ef1c .cfa: sp 32 +
STACK CFI 6ef24 .cfa: sp 0 +
STACK CFI INIT 6ef28 8 .cfa: sp 0 +
STACK CFI INIT 6ef30 2c .cfa: sp 0 +
STACK CFI 6ef34 .cfa: sp 32 +
STACK CFI 6ef3c .cfa: x29 32 + x19: .cfa -16 + ^ .ra: .cfa -24 + ^ x29: .cfa -32 + ^
STACK CFI 6ef50 .cfa: sp 32 +
STACK CFI 6ef58 .cfa: sp 0 +
STACK CFI INIT 6ef5c 28 .cfa: sp 0 +
STACK CFI INIT 6ef84 4 .cfa: sp 0 +
STACK CFI INIT 6ef88 8 .cfa: sp 0 +
STACK CFI INIT 6f0d8 2c .cfa: sp 0 +
STACK CFI INIT 6f104 4 .cfa: sp 0 +
STACK CFI INIT 6f108 4 .cfa: sp 0 +
STACK CFI INIT 6f10c 4 .cfa: sp 0 +
STACK CFI INIT 6f110 4 .cfa: sp 0 +
STACK CFI INIT 6f114 4 .cfa: sp 0 +
STACK CFI INIT 6f118 8 .cfa: sp 0 +
STACK CFI INIT 6f120 128 .cfa: sp 0 +
STACK CFI 6f124 .cfa: sp 80 +
STACK CFI 6f138 .cfa: x29 80 + x19: .cfa -8 + ^ x20: .cfa -16 + ^ x21: .cfa -24 + ^ x22: .cfa -32 + ^ x23: .cfa -40 + ^ x24: .cfa -48 + ^ x25: .cfa -64 + ^ .ra: .cfa -72 + ^ x29: .cfa -80 + ^
STACK CFI 6f228 .cfa: sp 80 +
STACK CFI 6f23c .cfa: sp 0 +
STACK CFI 6f240 .cfa: x29 80 +
STACK CFI INIT 6f248 4 .cfa: sp 0 +
STACK CFI INIT 6f24c 14 .cfa: sp 0 +
STACK CFI INIT 6f2cc 4 .cfa: sp 0 +
STACK CFI INIT 6f33c 4 .cfa: sp 0 +
STACK CFI INIT 6f340 308 .cfa: sp 0 +
STACK CFI 6f344 .cfa: sp 128 +
STACK CFI 6f35c .cfa: x29 64 + x19: .cfa -8 + ^ x20: .cfa -16 + ^ x21: .cfa -24 + ^ x22: .cfa -32 + ^ x23: .cfa -48 + ^ .ra: .cfa -56 + ^ x29: .cfa -64 + ^ v8: .cfa -72 + ^ v9: .cfa -80 + ^
STACK CFI 6f590 .cfa: sp 128 +
STACK CFI 6f5a8 .cfa: sp 0 +
STACK CFI 6f5ac .cfa: x29 64 +
STACK CFI INIT 6f648 60 .cfa: sp 0 +
STACK CFI 6f64c .cfa: sp 32 +
STACK CFI 6f654 .cfa: x29 32 + x19: .cfa -8 + ^ x20: .cfa -16 + ^ .ra: .cfa -24 + ^ x29: .cfa -32 + ^
STACK CFI 6f674 .cfa: sp 32 +
STACK CFI 6f67c .cfa: sp 0 +
STACK CFI 6f680 .cfa: x29 32 +
STACK CFI 6f69c .cfa: sp 32 +
STACK CFI 6f6a4 .cfa: sp 0 +
STACK CFI INIT 6f6a8 70 .cfa: sp 0 +
STACK CFI 6f6ac .cfa: sp 32 +
STACK CFI 6f6b4 .cfa: x29 32 + x19: .cfa -8 + ^ x20: .cfa -16 + ^ .ra: .cfa -24 + ^ x29: .cfa -32 + ^
STACK CFI 6f6dc .cfa: sp 32 +
STACK CFI 6f6e4 .cfa: sp 0 +
STACK CFI 6f6e8 .cfa: x29 32 +
STACK CFI 6f70c .cfa: sp 32 +
STACK CFI 6f714 .cfa: sp 0 +
STACK CFI INIT 6f718 10 .cfa: sp 0 +
STACK CFI INIT 6f728 30 .cfa: sp 0 +
STACK CFI 6f72c .cfa: sp 32 +
STACK CFI 6f734 .cfa: x29 32 + x19: .cfa -16 + ^ .ra: .cfa -24 + ^ x29: .cfa -32 + ^
STACK CFI 6f74c .cfa: sp 32 +
STACK CFI 6f754 .cfa: sp 0 +
STACK CFI INIT 6f758 4 .cfa: sp 0 +
STACK CFI INIT 6f75c 4 .cfa: sp 0 +
STACK CFI INIT 706cc 34 .cfa: sp 0 +
STACK CFI 706d0 .cfa: sp 32 +
STACK CFI 706d8 .cfa: x29 32 + x19: .cfa -16 + ^ .ra: .cfa -24 + ^ x29: .cfa -32 + ^
STACK CFI 706f4 .cfa: sp 32 +
STACK CFI 706fc .cfa: sp 0 +
STACK CFI INIT 713e0 38 .cfa: sp 0 +
STACK CFI 713e4 .cfa: sp 32 +
STACK CFI 713ec .cfa: x29 32 + x19: .cfa -16 + ^ .ra: .cfa -24 + ^ x29: .cfa -32 + ^
STACK CFI 7140c .cfa: sp 32 +
STACK CFI 71414 .cfa: sp 0 +
STACK CFI INIT 71418 c .cfa: sp 0 +
STACK CFI INIT 72344 48 .cfa: sp 0 +
STACK CFI 72348 .cfa: sp 32 +
STACK CFI 72350 .cfa: x29 32 + x19: .cfa -16 + ^ .ra: .cfa -24 + ^ x29: .cfa -32 + ^
STACK CFI 72374 .cfa: sp 32 +
STACK CFI 7237c .cfa: sp 0 +
STACK CFI 72380 .cfa: sp 32 +
STACK CFI 72388 .cfa: sp 0 +
STACK CFI INIT 7238c 10 .cfa: sp 0 +
STACK CFI INIT 7239c 10 .cfa: sp 0 +
STACK CFI INIT 74784 8 .cfa: sp 0 +
STACK CFI INIT 7478c 4c .cfa: sp 0 +
STACK CFI 7479c .cfa: sp 32 +
STACK CFI 747a4 .cfa: x29 32 + x19: .cfa -16 + ^ .ra: .cfa -24 + ^ x29: .cfa -32 + ^
STACK CFI 747cc .cfa: sp 32 +
STACK CFI 747d4 .cfa: sp 0 +
STACK CFI INIT 747d8 4c .cfa: sp 0 +
STACK CFI 747e8 .cfa: sp 32 +
STACK CFI 747f0 .cfa: x29 32 + x19: .cfa -16 + ^ .ra: .cfa -24 + ^ x29: .cfa -32 + ^
STACK CFI 74818 .cfa: sp 32 +
STACK CFI 74820 .cfa: sp 0 +
STACK CFI INIT 74ad4 9c .cfa: sp 0 +
STACK CFI 74ad8 .cfa: sp 32 +
STACK CFI 74ae0 .cfa: x29 32 + x19: .cfa -8 + ^ x20: .cfa -16 + ^ .ra: .cfa -24 + ^ x29: .cfa -32 + ^
STACK CFI 74b64 .cfa: sp 32 +
STACK CFI 74b6c .cfa: sp 0 +
STACK CFI INIT 74b70 8 .cfa: sp 0 +
STACK CFI INIT 74b78 24 .cfa: sp 0 +
STACK CFI 74b7c .cfa: sp 32 +
STACK CFI 74b84 .cfa: x29 32 + x19: .cfa -16 + ^ .ra: .cfa -24 + ^ x29: .cfa -32 + ^
STACK CFI 74b90 .cfa: sp 32 +
STACK CFI 74b98 .cfa: sp 0 +
STACK CFI INIT 74b9c 28 .cfa: sp 0 +
STACK CFI 74ba0 .cfa: sp 32 +
STACK CFI 74ba8 .cfa: x29 32 + x19: .cfa -16 + ^ .ra: .cfa -24 + ^ x29: .cfa -32 + ^
STACK CFI 74bb8 .cfa: sp 32 +
STACK CFI 74bc0 .cfa: sp 0 +
STACK CFI INIT 74bc4 c .cfa: sp 0 +
STACK CFI INIT 74bd0 c .cfa: sp 0 +
STACK CFI INIT 74bdc 10 .cfa: sp 0 +
STACK CFI INIT 74bec 10 .cfa: sp 0 +
STACK CFI INIT 74bfc 34 .cfa: sp 0 +
STACK CFI 74c00 .cfa: sp 32 +
STACK CFI 74c08 .cfa: x29 32 + x19: .cfa -8 + ^ x20: .cfa -16 + ^ .ra: .cfa -24 + ^ x29: .cfa -32 + ^
STACK CFI 74c24 .cfa: sp 32 +
STACK CFI 74c2c .cfa: sp 0 +
STACK CFI INIT 74c30 20c .cfa: sp 0 +
STACK CFI 74c34 .cfa: sp 80 +
STACK CFI 74c48 .cfa: x29 80 + x19: .cfa -8 + ^ x20: .cfa -16 + ^ x21: .cfa -24 + ^ x22: .cfa -32 + ^ x23: .cfa -40 + ^ x24: .cfa -48 + ^ x25: .cfa -64 + ^ .ra: .cfa -72 + ^ x29: .cfa -80 + ^
STACK CFI 74e20 .cfa: sp 80 +
STACK CFI 74e34 .cfa: sp 0 +
STACK CFI 74e38 .cfa: x29 80 +
STACK CFI INIT 74e3c ac .cfa: sp 0 +
STACK CFI 74e40 .cfa: sp 64 +
STACK CFI 74e50 .cfa: x29 64 + x19: .cfa -8 + ^ x20: .cfa -16 + ^ x21: .cfa -24 + ^ x22: .cfa -32 + ^ x23: .cfa -48 + ^ .ra: .cfa -56 + ^ x29: .cfa -64 + ^
STACK CFI 74ecc .cfa: sp 64 +
STACK CFI 74edc .cfa: sp 0 +
STACK CFI 74ee0 .cfa: x29 64 +
STACK CFI INIT 74ee8 110 .cfa: sp 0 +
STACK CFI 74eec .cfa: sp 64 +
STACK CFI 74efc .cfa: x29 64 + x19: .cfa -8 + ^ x20: .cfa -16 + ^ x21: .cfa -24 + ^ x22: .cfa -32 + ^ x23: .cfa -40 + ^ x24: .cfa -48 + ^ .ra: .cfa -56 + ^ x29: .cfa -64 + ^
STACK CFI 74fdc .cfa: sp 64 +
STACK CFI 74fec .cfa: sp 0 +
STACK CFI 74ff0 .cfa: x29 64 +
STACK CFI INIT 74ff8 168 .cfa: sp 0 +
STACK CFI 74ffc .cfa: sp 48 +
STACK CFI 75008 .cfa: x29 48 + x19: .cfa -8 + ^ x20: .cfa -16 + ^ x21: .cfa -24 + ^ x22: .cfa -32 + ^ .ra: .cfa -40 + ^ x29: .cfa -48 + ^
STACK CFI 75144 .cfa: sp 48 +
STACK CFI 75150 .cfa: sp 0 +
STACK CFI 75154 .cfa: x29 48 +
STACK CFI INIT 752cc 50 .cfa: sp 0 +
STACK CFI 752d0 .cfa: sp 32 +
STACK CFI 752d8 .cfa: x29 32 + x19: .cfa -16 + ^ .ra: .cfa -24 + ^ x29: .cfa -32 + ^
STACK CFI 752f0 .cfa: sp 32 +
STACK CFI 752f8 .cfa: sp 0 +
STACK CFI 752fc .cfa: x29 32 +
STACK CFI 75310 .cfa: sp 32 +
STACK CFI 75318 .cfa: sp 0 +
STACK CFI INIT 75538 4 .cfa: sp 0 +
STACK CFI INIT 75708 a4 .cfa: sp 0 +
STACK CFI 7570c .cfa: sp 32 +
STACK CFI 75714 .cfa: x29 32 + x19: .cfa -8 + ^ x20: .cfa -16 + ^ .ra: .cfa -24 + ^ x29: .cfa -32 + ^
STACK CFI 757a0 .cfa: sp 32 +
STACK CFI 757a8 .cfa: sp 0 +
STACK CFI INIT 757ac 50 .cfa: sp 0 +
STACK CFI 757b0 .cfa: sp 32 +
STACK CFI 757b8 .cfa: x29 32 + x19: .cfa -16 + ^ .ra: .cfa -24 + ^ x29: .cfa -32 + ^
STACK CFI 757d0 .cfa: sp 32 +
STACK CFI 757d8 .cfa: sp 0 +
STACK CFI 757dc .cfa: x29 32 +
STACK CFI 757f0 .cfa: sp 32 +
STACK CFI 757f8 .cfa: sp 0 +
STACK CFI INIT 757fc 50 .cfa: sp 0 +
STACK CFI 75800 .cfa: sp 32 +
STACK CFI 75808 .cfa: x29 32 + x19: .cfa -16 + ^ .ra: .cfa -24 + ^ x29: .cfa -32 + ^
STACK CFI 75820 .cfa: sp 32 +
STACK CFI 75828 .cfa: sp 0 +
STACK CFI 7582c .cfa: x29 32 +
STACK CFI 75840 .cfa: sp 32 +
STACK CFI 75848 .cfa: sp 0 +
STACK CFI INIT 7584c 5c .cfa: sp 0 +
STACK CFI 75850 .cfa: sp 32 +
STACK CFI 75858 .cfa: x29 32 + x19: .cfa -16 + ^ .ra: .cfa -24 + ^ x29: .cfa -32 + ^
STACK CFI 7587c .cfa: sp 32 +
STACK CFI 75884 .cfa: sp 0 +
STACK CFI 75888 .cfa: x29 32 +
STACK CFI 7589c .cfa: sp 32 +
STACK CFI 758a4 .cfa: sp 0 +
STACK CFI INIT 758a8 6c .cfa: sp 0 +
STACK CFI 758ac .cfa: sp 32 +
STACK CFI 758b4 .cfa: x29 32 + x19: .cfa -8 + ^ x20: .cfa -16 + ^ .ra: .cfa -24 + ^ x29: .cfa -32 + ^
STACK CFI 758e0 .cfa: sp 32 +
STACK CFI 758e8 .cfa: sp 0 +
STACK CFI 758ec .cfa: x29 32 +
STACK CFI 75908 .cfa: sp 32 +
STACK CFI 75910 .cfa: sp 0 +
STACK CFI INIT 75914 58 .cfa: sp 0 +
STACK CFI 75918 .cfa: sp 32 +
STACK CFI 75920 .cfa: x29 32 + x19: .cfa -8 + ^ x20: .cfa -16 + ^ .ra: .cfa -24 + ^ x29: .cfa -32 + ^
STACK CFI 75960 .cfa: sp 32 +
STACK CFI 75968 .cfa: sp 0 +
STACK CFI INIT 7596c 4c .cfa: sp 0 +
STACK CFI 75970 .cfa: sp 32 +
STACK CFI 75978 .cfa: x29 32 + x19: .cfa -8 + ^ x20: .cfa -16 + ^ .ra: .cfa -24 + ^ x29: .cfa -32 + ^
STACK CFI 759ac .cfa: sp 32 +
STACK CFI 759b4 .cfa: sp 0 +
STACK CFI INIT 759b8 50 .cfa: sp 0 +
STACK CFI 759bc .cfa: sp 32 +
STACK CFI 759c4 .cfa: x29 32 + x19: .cfa -16 + ^ .ra: .cfa -24 + ^ x29: .cfa -32 + ^
STACK CFI 759dc .cfa: sp 32 +
STACK CFI 759e4 .cfa: sp 0 +
STACK CFI 759e8 .cfa: x29 32 +
STACK CFI 759fc .cfa: sp 32 +
STACK CFI 75a04 .cfa: sp 0 +
STACK CFI INIT 75a08 60 .cfa: sp 0 +
STACK CFI 75a0c .cfa: sp 32 +
STACK CFI 75a14 .cfa: x29 32 + x19: .cfa -8 + ^ x20: .cfa -16 + ^ .ra: .cfa -24 + ^ x29: .cfa -32 + ^
STACK CFI 75a34 .cfa: sp 32 +
STACK CFI 75a3c .cfa: sp 0 +
STACK CFI 75a40 .cfa: x29 32 +
STACK CFI 75a5c .cfa: sp 32 +
STACK CFI 75a64 .cfa: sp 0 +
STACK CFI INIT 75a68 8 .cfa: sp 0 +
STACK CFI INIT 75a70 1c .cfa: sp 0 +
STACK CFI INIT 75a8c c .cfa: sp 0 +
STACK CFI INIT 75c68 60 .cfa: sp 0 +
STACK CFI 75c6c .cfa: sp 32 +
STACK CFI 75c74 .cfa: x29 32 + x19: .cfa -8 + ^ x20: .cfa -16 + ^ .ra: .cfa -24 + ^ x29: .cfa -32 + ^
STACK CFI 75c94 .cfa: sp 32 +
STACK CFI 75c9c .cfa: sp 0 +
STACK CFI 75ca0 .cfa: x29 32 +
STACK CFI 75cbc .cfa: sp 32 +
STACK CFI 75cc4 .cfa: sp 0 +
STACK CFI INIT 75cc8 70 .cfa: sp 0 +
STACK CFI 75ccc .cfa: sp 32 +
STACK CFI 75cd4 .cfa: x29 32 + x19: .cfa -8 + ^ x20: .cfa -16 + ^ .ra: .cfa -24 + ^ x29: .cfa -32 + ^
STACK CFI 75cfc .cfa: sp 32 +
STACK CFI 75d04 .cfa: sp 0 +
STACK CFI 75d08 .cfa: x29 32 +
STACK CFI 75d2c .cfa: sp 32 +
STACK CFI 75d34 .cfa: sp 0 +
STACK CFI INIT 75d38 5c .cfa: sp 0 +
STACK CFI 75d3c .cfa: sp 32 +
STACK CFI 75d44 .cfa: x29 32 + x19: .cfa -16 + ^ .ra: .cfa -24 + ^ x29: .cfa -32 + ^
STACK CFI 75d68 .cfa: sp 32 +
STACK CFI 75d70 .cfa: sp 0 +
STACK CFI 75d74 .cfa: x29 32 +
STACK CFI 75d88 .cfa: sp 32 +
STACK CFI 75d90 .cfa: sp 0 +
STACK CFI INIT 75d94 6c .cfa: sp 0 +
STACK CFI 75d98 .cfa: sp 32 +
STACK CFI 75da0 .cfa: x29 32 + x19: .cfa -8 + ^ x20: .cfa -16 + ^ .ra: .cfa -24 + ^ x29: .cfa -32 + ^
STACK CFI 75dcc .cfa: sp 32 +
STACK CFI 75dd4 .cfa: sp 0 +
STACK CFI 75dd8 .cfa: x29 32 +
STACK CFI 75df4 .cfa: sp 32 +
STACK CFI 75dfc .cfa: sp 0 +
STACK CFI INIT 75e00 58 .cfa: sp 0 +
STACK CFI 75e04 .cfa: sp 32 +
STACK CFI 75e0c .cfa: x29 32 + x19: .cfa -8 + ^ x20: .cfa -16 + ^ .ra: .cfa -24 + ^ x29: .cfa -32 + ^
STACK CFI 75e4c .cfa: sp 32 +
STACK CFI 75e54 .cfa: sp 0 +
STACK CFI INIT 75e58 4c .cfa: sp 0 +
STACK CFI 75e5c .cfa: sp 32 +
STACK CFI 75e64 .cfa: x29 32 + x19: .cfa -8 + ^ x20: .cfa -16 + ^ .ra: .cfa -24 + ^ x29: .cfa -32 + ^
STACK CFI 75e98 .cfa: sp 32 +
STACK CFI 75ea0 .cfa: sp 0 +
STACK CFI INIT 75ea4 50 .cfa: sp 0 +
STACK CFI 75ea8 .cfa: sp 32 +
STACK CFI 75eb0 .cfa: x29 32 + x19: .cfa -16 + ^ .ra: .cfa -24 + ^ x29: .cfa -32 + ^
STACK CFI 75ec8 .cfa: sp 32 +
STACK CFI 75ed0 .cfa: sp 0 +
STACK CFI 75ed4 .cfa: x29 32 +
STACK CFI 75ee8 .cfa: sp 32 +
STACK CFI 75ef0 .cfa: sp 0 +
STACK CFI INIT 75ef4 60 .cfa: sp 0 +
STACK CFI 75ef8 .cfa: sp 32 +
STACK CFI 75f00 .cfa: x29 32 + x19: .cfa -8 + ^ x20: .cfa -16 + ^ .ra: .cfa -24 + ^ x29: .cfa -32 + ^
STACK CFI 75f20 .cfa: sp 32 +
STACK CFI 75f28 .cfa: sp 0 +
STACK CFI 75f2c .cfa: x29 32 +
STACK CFI 75f48 .cfa: sp 32 +
STACK CFI 75f50 .cfa: sp 0 +
STACK CFI INIT 75f54 8 .cfa: sp 0 +
STACK CFI INIT 75f5c 1c .cfa: sp 0 +
STACK CFI INIT 75f78 c .cfa: sp 0 +
STACK CFI INIT 76148 34 .cfa: sp 0 +
STACK CFI 7614c .cfa: sp 16 +
STACK CFI 76150 .cfa: x29 16 + .ra: .cfa -8 + ^ x29: .cfa -16 + ^
STACK CFI INIT 7617c 24 .cfa: sp 0 +
STACK CFI 76180 .cfa: sp 32 +
STACK CFI 76188 .cfa: x29 32 + x19: .cfa -16 + ^ .ra: .cfa -24 + ^ x29: .cfa -32 + ^
STACK CFI 76194 .cfa: sp 32 +
STACK CFI 7619c .cfa: sp 0 +
STACK CFI INIT 767f4 d8 .cfa: sp 0 +
STACK CFI 767f8 .cfa: sp 176 +
STACK CFI 76808 .cfa: x29 48 + x19: .cfa -8 + ^ x20: .cfa -16 + ^ x21: .cfa -24 + ^ x22: .cfa -32 + ^ .ra: .cfa -40 + ^ x29: .cfa -48 + ^
STACK CFI 768b4 .cfa: sp 176 +
STACK CFI 768c4 .cfa: sp 0 +
STACK CFI 768c8 .cfa: x29 48 +
STACK CFI INIT 768cc 104 .cfa: sp 0 +
STACK CFI 768d0 .cfa: sp 16 +
STACK CFI 768d4 .cfa: x29 16 + .ra: .cfa -8 + ^ x29: .cfa -16 + ^
STACK CFI 7698c .cfa: sp 16 +
STACK CFI 76990 .cfa: sp 0 +
STACK CFI 76994 .cfa: x29 16 +
STACK CFI 7699c .cfa: sp 16 +
STACK CFI 769a0 .cfa: sp 0 +
STACK CFI 769a4 .cfa: x29 16 +
STACK CFI INIT 769d0 4b4 .cfa: sp 0 +
STACK CFI 769d4 .cfa: sp 96 +
STACK CFI 769ec .cfa: x29 96 + x19: .cfa -8 + ^ x20: .cfa -16 + ^ x21: .cfa -24 + ^ x22: .cfa -32 + ^ x23: .cfa -40 + ^ x24: .cfa -48 + ^ x25: .cfa -56 + ^ x26: .cfa -64 + ^ x27: .cfa -72 + ^ x28: .cfa -80 + ^ .ra: .cfa -88 + ^ x29: .cfa -96 + ^
STACK CFI 76e34 .cfa: sp 96 +
STACK CFI 76e4c .cfa: sp 0 +
STACK CFI 76e50 .cfa: x29 96 +
STACK CFI INIT 76e84 1a4 .cfa: sp 0 +
STACK CFI 76e88 .cfa: sp 64 +
STACK CFI 76e94 .cfa: x29 32 + x19: .cfa -8 + ^ x20: .cfa -16 + ^ .ra: .cfa -24 + ^ x29: .cfa -32 + ^
STACK CFI 76fc0 .cfa: sp 64 +
STACK CFI 76fcc .cfa: sp 0 +
STACK CFI 76fd0 .cfa: x29 32 +
STACK CFI INIT 77028 194 .cfa: sp 0 +
STACK CFI 7702c .cfa: sp 16 +
STACK CFI 77030 .cfa: x29 16 + .ra: .cfa -8 + ^ x29: .cfa -16 + ^
STACK CFI 770c8 .cfa: sp 16 +
STACK CFI 770cc .cfa: sp 0 +
STACK CFI 770d0 .cfa: x29 16 +
STACK CFI 7719c .cfa: sp 16 +
STACK CFI 771a0 .cfa: sp 0 +
STACK CFI 771a4 .cfa: x29 16 +
STACK CFI INIT 771bc 4dc .cfa: sp 0 +
STACK CFI 771c0 .cfa: sp 256 +
STACK CFI 771dc .cfa: x29 96 + x19: .cfa -8 + ^ x20: .cfa -16 + ^ x21: .cfa -24 + ^ x22: .cfa -32 + ^ x23: .cfa -40 + ^ x24: .cfa -48 + ^ x25: .cfa -56 + ^ x26: .cfa -64 + ^ x27: .cfa -72 + ^ x28: .cfa -80 + ^ .ra: .cfa -88 + ^ x29: .cfa -96 + ^
STACK CFI 77674 .cfa: sp 256 +
STACK CFI 77690 .cfa: sp 0 +
STACK CFI 77694 .cfa: x29 96 +
STACK CFI INIT 77698 114 .cfa: sp 0 +
STACK CFI 7769c .cfa: sp 128 +
STACK CFI 776ac .cfa: x29 48 + x19: .cfa -8 + ^ x20: .cfa -16 + ^ x21: .cfa -32 + ^ .ra: .cfa -40 + ^ x29: .cfa -48 + ^
STACK CFI 77778 .cfa: sp 128 +
STACK CFI 77788 .cfa: sp 0 +
STACK CFI 7778c .cfa: x29 48 +
STACK CFI INIT 777ac 114 .cfa: sp 0 +
STACK CFI 777b0 .cfa: sp 128 +
STACK CFI 777c0 .cfa: x29 48 + x19: .cfa -8 + ^ x20: .cfa -16 + ^ x21: .cfa -32 + ^ .ra: .cfa -40 + ^ x29: .cfa -48 + ^
STACK CFI 7788c .cfa: sp 128 +
STACK CFI 7789c .cfa: sp 0 +
STACK CFI 778a0 .cfa: x29 48 +
STACK CFI INIT 778c0 27c .cfa: sp 0 +
STACK CFI 778c4 .cfa: sp 176 +
STACK CFI 778e0 .cfa: x29 96 + x19: .cfa -8 + ^ x20: .cfa -16 + ^ x21: .cfa -24 + ^ x22: .cfa -32 + ^ x23: .cfa -40 + ^ x24: .cfa -48 + ^ x25: .cfa -56 + ^ x26: .cfa -64 + ^ x27: .cfa -72 + ^ x28: .cfa -80 + ^ .ra: .cfa -88 + ^ x29: .cfa -96 + ^
STACK CFI 77b18 .cfa: sp 176 +
STACK CFI 77b34 .cfa: sp 0 +
STACK CFI 77b38 .cfa: x29 96 +
STACK CFI INIT 77b3c 520 .cfa: sp 0 +
STACK CFI 77b40 .cfa: sp 176 +
STACK CFI 77b5c .cfa: x29 96 + x19: .cfa -8 + ^ x20: .cfa -16 + ^ x21: .cfa -24 + ^ x22: .cfa -32 + ^ x23: .cfa -40 + ^ x24: .cfa -48 + ^ x25: .cfa -56 + ^ x26: .cfa -64 + ^ x27: .cfa -72 + ^ x28: .cfa -80 + ^ .ra: .cfa -88 + ^ x29: .cfa -96 + ^
STACK CFI 78038 .cfa: sp 176 +
STACK CFI 78054 .cfa: sp 0 +
STACK CFI 78058 .cfa: x29 96 +
STACK CFI INIT 7805c 20c .cfa: sp 0 +
STACK CFI 78060 .cfa: sp 80 +
STACK CFI 78074 .cfa: x29 80 + x19: .cfa -8 + ^ x20: .cfa -16 + ^ x21: .cfa -24 + ^ x22: .cfa -32 + ^ x23: .cfa -40 + ^ x24: .cfa -48 + ^ x25: .cfa -64 + ^ .ra: .cfa -72 + ^ x29: .cfa -80 + ^
STACK CFI 78104 .cfa: sp 80 +
STACK CFI 78118 .cfa: sp 0 +
STACK CFI 7811c .cfa: x29 80 +
STACK CFI 78128 .cfa: sp 80 +
STACK CFI 7813c .cfa: sp 0 +
STACK CFI 78140 .cfa: x29 80 +
STACK CFI INIT 78268 428 .cfa: sp 0 +
STACK CFI 7826c .cfa: sp 128 +
STACK CFI 78288 .cfa: x29 96 + x19: .cfa -8 + ^ x20: .cfa -16 + ^ x21: .cfa -24 + ^ x22: .cfa -32 + ^ x23: .cfa -40 + ^ x24: .cfa -48 + ^ x25: .cfa -56 + ^ x26: .cfa -64 + ^ x27: .cfa -72 + ^ x28: .cfa -80 + ^ .ra: .cfa -88 + ^ x29: .cfa -96 + ^
STACK CFI 7866c .cfa: sp 128 +
STACK CFI 78688 .cfa: sp 0 +
STACK CFI 7868c .cfa: x29 96 +
STACK CFI INIT 78690 194 .cfa: sp 0 +
STACK CFI 78694 .cfa: sp 32 +
STACK CFI 7869c .cfa: x29 16 + .ra: .cfa -8 + ^ x29: .cfa -16 + ^
STACK CFI 786e0 .cfa: sp 32 +
STACK CFI 786e8 .cfa: sp 0 +
STACK CFI 786ec .cfa: x29 16 +
STACK CFI INIT 78824 1b8 .cfa: sp 0 +
STACK CFI INIT 789dc 1d0 .cfa: sp 0 +
STACK CFI 789e0 .cfa: sp 80 +
STACK CFI 789f4 .cfa: x29 80 + x19: .cfa -8 + ^ x20: .cfa -16 + ^ x21: .cfa -24 + ^ x22: .cfa -32 + ^ x23: .cfa -40 + ^ x24: .cfa -48 + ^ x25: .cfa -64 + ^ .ra: .cfa -72 + ^ x29: .cfa -80 + ^
STACK CFI 78b94 .cfa: sp 80 +
STACK CFI 78ba8 .cfa: sp 0 +
STACK CFI INIT 78bac 67c .cfa: sp 0 +
STACK CFI 78bb0 .cfa: sp 176 +
STACK CFI 78bcc .cfa: x29 96 + x19: .cfa -8 + ^ x20: .cfa -16 + ^ x21: .cfa -24 + ^ x22: .cfa -32 + ^ x23: .cfa -40 + ^ x24: .cfa -48 + ^ x25: .cfa -56 + ^ x26: .cfa -64 + ^ x27: .cfa -72 + ^ x28: .cfa -80 + ^ .ra: .cfa -88 + ^ x29: .cfa -96 + ^
STACK CFI 79204 .cfa: sp 176 +
STACK CFI 79220 .cfa: sp 0 +
STACK CFI 79224 .cfa: x29 96 +
STACK CFI INIT 79228 1e4 .cfa: sp 0 +
STACK CFI 7922c .cfa: sp 32 +
STACK CFI 79234 .cfa: x29 32 + x19: .cfa -8 + ^ x20: .cfa -16 + ^ .ra: .cfa -24 + ^ x29: .cfa -32 + ^
STACK CFI 79324 .cfa: sp 32 +
STACK CFI 7932c .cfa: sp 0 +
STACK CFI 79330 .cfa: x29 32 +
STACK CFI 793a4 .cfa: sp 32 +
STACK CFI 793ac .cfa: sp 0 +
STACK CFI 793b0 .cfa: x29 32 +
STACK CFI 793c0 .cfa: sp 32 +
STACK CFI 793c8 .cfa: sp 0 +
STACK CFI 793cc .cfa: x29 32 +
STACK CFI 793dc .cfa: sp 32 +
STACK CFI 793e4 .cfa: sp 0 +
STACK CFI 793e8 .cfa: x29 32 +
STACK CFI INIT 7940c 178 .cfa: sp 0 +
STACK CFI 79410 .cfa: sp 80 +
STACK CFI 79424 .cfa: x29 64 + x19: .cfa -8 + ^ x20: .cfa -16 + ^ x21: .cfa -24 + ^ x22: .cfa -32 + ^ x23: .cfa -40 + ^ x24: .cfa -48 + ^ .ra: .cfa -56 + ^ x29: .cfa -64 + ^
STACK CFI 79568 .cfa: sp 80 +
STACK CFI 7957c .cfa: sp 0 +
STACK CFI 79580 .cfa: x29 64 +
STACK CFI INIT 79584 178 .cfa: sp 0 +
STACK CFI 79588 .cfa: sp 80 +
STACK CFI 7959c .cfa: x29 64 + x19: .cfa -8 + ^ x20: .cfa -16 + ^ x21: .cfa -24 + ^ x22: .cfa -32 + ^ x23: .cfa -40 + ^ x24: .cfa -48 + ^ .ra: .cfa -56 + ^ x29: .cfa -64 + ^
STACK CFI 796e0 .cfa: sp 80 +
STACK CFI 796f4 .cfa: sp 0 +
STACK CFI 796f8 .cfa: x29 64 +
STACK CFI INIT 796fc 178 .cfa: sp 0 +
STACK CFI 79700 .cfa: sp 80 +
STACK CFI 79714 .cfa: x29 64 + x19: .cfa -8 + ^ x20: .cfa -16 + ^ x21: .cfa -24 + ^ x22: .cfa -32 + ^ x23: .cfa -40 + ^ x24: .cfa -48 + ^ .ra: .cfa -56 + ^ x29: .cfa -64 + ^
STACK CFI 79858 .cfa: sp 80 +
STACK CFI 7986c .cfa: sp 0 +
STACK CFI 79870 .cfa: x29 64 +
STACK CFI INIT 79874 94 .cfa: sp 0 +
STACK CFI 79878 .cfa: sp 16 +
STACK CFI 7987c .cfa: x29 16 + .ra: .cfa -8 + ^ x29: .cfa -16 + ^
STACK CFI 798d0 .cfa: sp 16 +
STACK CFI 798d4 .cfa: sp 0 +
STACK CFI 798d8 .cfa: x29 16 +
STACK CFI INIT 79908 158 .cfa: sp 0 +
STACK CFI 7990c .cfa: sp 112 +
STACK CFI 79928 .cfa: x29 96 + x19: .cfa -8 + ^ x20: .cfa -16 + ^ x21: .cfa -24 + ^ x22: .cfa -32 + ^ x23: .cfa -40 + ^ x24: .cfa -48 + ^ x25: .cfa -56 + ^ x26: .cfa -64 + ^ x27: .cfa -72 + ^ x28: .cfa -80 + ^ .ra: .cfa -88 + ^ x29: .cfa -96 + ^
STACK CFI 79a10 .cfa: sp 112 +
STACK CFI 79a14 .cfa: x29 96 +
STACK CFI 79a1c .cfa: sp 112 +
STACK CFI 79a38 .cfa: sp 0 +
STACK CFI 79a3c .cfa: x29 96 +
STACK CFI 79a5c .cfa: sp 112 +
STACK CFI INIT 79a60 94 .cfa: sp 0 +
STACK CFI 79a64 .cfa: sp 16 +
STACK CFI 79a68 .cfa: x29 16 + .ra: .cfa -8 + ^ x29: .cfa -16 + ^
STACK CFI 79abc .cfa: sp 16 +
STACK CFI 79ac0 .cfa: sp 0 +
STACK CFI 79ac4 .cfa: x29 16 +
STACK CFI INIT 7a17c 8 .cfa: sp 0 +
STACK CFI INIT 7a354 8 .cfa: sp 0 +
STACK CFI INIT 7ab8c 30 .cfa: sp 0 +
STACK CFI 7aba0 .cfa: sp 16 +
STACK CFI 7aba4 .cfa: x29 16 + .ra: .cfa -8 + ^ x29: .cfa -16 + ^
STACK CFI 7abb0 .cfa: sp 16 +
STACK CFI 7abb4 .cfa: sp 0 +
STACK CFI INIT 7abbc 1c .cfa: sp 0 +
STACK CFI 7abc0 .cfa: sp 16 +
STACK CFI 7abc4 .cfa: x29 16 + .ra: .cfa -8 + ^ x29: .cfa -16 + ^
STACK CFI 7abd0 .cfa: sp 16 +
STACK CFI 7abd4 .cfa: sp 0 +
STACK CFI INIT 7afb0 34 .cfa: sp 0 +
STACK CFI 7afc4 .cfa: sp 16 +
STACK CFI 7afc8 .cfa: x29 16 + .ra: .cfa -8 + ^ x29: .cfa -16 + ^
STACK CFI 7afd8 .cfa: sp 16 +
STACK CFI 7afdc .cfa: sp 0 +
STACK CFI INIT 7c838 268 .cfa: sp 0 +
STACK CFI 7c83c .cfa: sp 112 +
STACK CFI 7c854 .cfa: x29 80 + x19: .cfa -8 + ^ x20: .cfa -16 + ^ x21: .cfa -24 + ^ x22: .cfa -32 + ^ x23: .cfa -40 + ^ x24: .cfa -48 + ^ x25: .cfa -56 + ^ x26: .cfa -64 + ^ .ra: .cfa -72 + ^ x29: .cfa -80 + ^
STACK CFI 7ca80 .cfa: sp 112 +
STACK CFI 7ca98 .cfa: sp 0 +
STACK CFI 7ca9c .cfa: x29 80 +
STACK CFI INIT 820dc 8 .cfa: sp 0 +
STACK CFI INIT 820e4 24 .cfa: sp 0 +
STACK CFI 820e8 .cfa: sp 32 +
STACK CFI 820f0 .cfa: x29 32 + x19: .cfa -16 + ^ .ra: .cfa -24 + ^ x29: .cfa -32 + ^
STACK CFI 820fc .cfa: sp 32 +
STACK CFI 82104 .cfa: sp 0 +
STACK CFI INIT 82108 28 .cfa: sp 0 +
STACK CFI 8210c .cfa: sp 32 +
STACK CFI 82114 .cfa: x29 32 + x19: .cfa -16 + ^ .ra: .cfa -24 + ^ x29: .cfa -32 + ^
STACK CFI 82124 .cfa: sp 32 +
STACK CFI 8212c .cfa: sp 0 +
STACK CFI INIT 822c8 4 .cfa: sp 0 +
STACK CFI INIT 822cc 34 .cfa: sp 0 +
STACK CFI 822d0 .cfa: sp 32 +
STACK CFI 822d8 .cfa: x29 32 + x19: .cfa -16 + ^ .ra: .cfa -24 + ^ x29: .cfa -32 + ^
STACK CFI 822f4 .cfa: sp 32 +
STACK CFI 822fc .cfa: sp 0 +
STACK CFI INIT 82300 14 .cfa: sp 0 +
STACK CFI INIT 82314 4 .cfa: sp 0 +
STACK CFI INIT 82318 4 .cfa: sp 0 +
STACK CFI INIT 82ae4 1c .cfa: sp 0 +
STACK CFI INIT 82b00 c .cfa: sp 0 +
STACK CFI INIT 82bf8 4 .cfa: sp 0 +
STACK CFI INIT 82bfc 4 .cfa: sp 0 +
STACK CFI INIT 82c00 24 .cfa: sp 0 +
STACK CFI 82c04 .cfa: sp 16 +
STACK CFI 82c08 .cfa: x29 16 + .ra: .cfa -8 + ^ x29: .cfa -16 + ^
STACK CFI 82c1c .cfa: sp 16 +
STACK CFI 82c20 .cfa: sp 0 +
STACK CFI INIT 82c24 10 .cfa: sp 0 +
STACK CFI INIT 82c34 4 .cfa: sp 0 +
STACK CFI INIT 82c38 4 .cfa: sp 0 +
STACK CFI INIT 82f20 1c .cfa: sp 0 +
STACK CFI INIT 82f3c c .cfa: sp 0 +
STACK CFI INIT 83d90 24 .cfa: sp 0 +
STACK CFI 83d94 .cfa: sp 16 +
STACK CFI 83d98 .cfa: x29 16 + .ra: .cfa -8 + ^ x29: .cfa -16 + ^
STACK CFI 83dac .cfa: sp 16 +
STACK CFI 83db0 .cfa: sp 0 +
STACK CFI INIT 83db4 24 .cfa: sp 0 +
STACK CFI 83db8 .cfa: sp 16 +
STACK CFI 83dbc .cfa: x29 16 + .ra: .cfa -8 + ^ x29: .cfa -16 + ^
STACK CFI 83dd0 .cfa: sp 16 +
STACK CFI 83dd4 .cfa: sp 0 +
STACK CFI INIT 83dd8 c .cfa: sp 0 +
STACK CFI INIT 84790 4c .cfa: sp 0 +
STACK CFI 84794 .cfa: sp 32 +
STACK CFI 8479c .cfa: x29 32 + x19: .cfa -16 + ^ .ra: .cfa -24 + ^ x29: .cfa -32 + ^
STACK CFI 847c4 .cfa: sp 32 +
STACK CFI 847cc .cfa: sp 0 +
STACK CFI 847d0 .cfa: sp 32 +
STACK CFI 847d8 .cfa: sp 0 +
STACK CFI INIT 847dc 10 .cfa: sp 0 +
STACK CFI INIT 847ec 10 .cfa: sp 0 +
STACK CFI INIT 84c40 214 .cfa: sp 0 +
STACK CFI 84c44 .cfa: sp 96 +
STACK CFI 84c58 .cfa: x29 48 + x19: .cfa -8 + ^ x20: .cfa -16 + ^ x21: .cfa -24 + ^ x22: .cfa -32 + ^ .ra: .cfa -40 + ^ x29: .cfa -48 + ^ v8: .cfa -56 + ^ v9: .cfa -64 + ^
STACK CFI 84e38 .cfa: sp 96 +
STACK CFI 84e4c .cfa: sp 0 +
STACK CFI 84e50 .cfa: x29 48 +
STACK CFI INIT 84e54 8 .cfa: sp 0 +
STACK CFI INIT 84e5c 7c .cfa: sp 0 +
STACK CFI 84e6c .cfa: sp 32 +
STACK CFI 84e74 .cfa: x29 32 + x19: .cfa -16 + ^ .ra: .cfa -24 + ^ x29: .cfa -32 + ^
STACK CFI 84ecc .cfa: sp 32 +
STACK CFI 84ed4 .cfa: sp 0 +
STACK CFI INIT 84ed8 78 .cfa: sp 0 +
STACK CFI 84ee8 .cfa: sp 32 +
STACK CFI 84ef0 .cfa: x29 32 + x19: .cfa -16 + ^ .ra: .cfa -24 + ^ x29: .cfa -32 + ^
STACK CFI 84f44 .cfa: sp 32 +
STACK CFI 84f4c .cfa: sp 0 +
STACK CFI INIT 851d0 8 .cfa: sp 0 +
STACK CFI INIT 851d8 24 .cfa: sp 0 +
STACK CFI 851dc .cfa: sp 32 +
STACK CFI 851e4 .cfa: x29 32 + x19: .cfa -16 + ^ .ra: .cfa -24 + ^ x29: .cfa -32 + ^
STACK CFI 851f0 .cfa: sp 32 +
STACK CFI 851f8 .cfa: sp 0 +
STACK CFI INIT 851fc 28 .cfa: sp 0 +
STACK CFI 85200 .cfa: sp 32 +
STACK CFI 85208 .cfa: x29 32 + x19: .cfa -16 + ^ .ra: .cfa -24 + ^ x29: .cfa -32 + ^
STACK CFI 85218 .cfa: sp 32 +
STACK CFI 85220 .cfa: sp 0 +
STACK CFI INIT 85224 c .cfa: sp 0 +
STACK CFI INIT 85230 c .cfa: sp 0 +
STACK CFI INIT 8523c 10 .cfa: sp 0 +
STACK CFI INIT 8524c 10 .cfa: sp 0 +
STACK CFI INIT 866c4 8 .cfa: sp 0 +
STACK CFI INIT 866cc 24 .cfa: sp 0 +
STACK CFI 866d0 .cfa: sp 32 +
STACK CFI 866d8 .cfa: x29 32 + x19: .cfa -16 + ^ .ra: .cfa -24 + ^ x29: .cfa -32 + ^
STACK CFI 866e4 .cfa: sp 32 +
STACK CFI 866ec .cfa: sp 0 +
STACK CFI INIT 866f0 28 .cfa: sp 0 +
STACK CFI 866f4 .cfa: sp 32 +
STACK CFI 866fc .cfa: x29 32 + x19: .cfa -16 + ^ .ra: .cfa -24 + ^ x29: .cfa -32 + ^
STACK CFI 8670c .cfa: sp 32 +
STACK CFI 86714 .cfa: sp 0 +
STACK CFI INIT 86b50 8 .cfa: sp 0 +
STACK CFI INIT 86b58 24 .cfa: sp 0 +
STACK CFI 86b5c .cfa: sp 32 +
STACK CFI 86b64 .cfa: x29 32 + x19: .cfa -16 + ^ .ra: .cfa -24 + ^ x29: .cfa -32 + ^
STACK CFI 86b70 .cfa: sp 32 +
STACK CFI 86b78 .cfa: sp 0 +
STACK CFI INIT 86b7c 28 .cfa: sp 0 +
STACK CFI 86b80 .cfa: sp 32 +
STACK CFI 86b88 .cfa: x29 32 + x19: .cfa -16 + ^ .ra: .cfa -24 + ^ x29: .cfa -32 + ^
STACK CFI 86b98 .cfa: sp 32 +
STACK CFI 86ba0 .cfa: sp 0 +
STACK CFI INIT 86ba4 4 .cfa: sp 0 +
STACK CFI INIT 86ba8 34 .cfa: sp 0 +
STACK CFI 86bac .cfa: sp 32 +
STACK CFI 86bb4 .cfa: x29 32 + x19: .cfa -16 + ^ .ra: .cfa -24 + ^ x29: .cfa -32 + ^
STACK CFI 86bd0 .cfa: sp 32 +
STACK CFI 86bd8 .cfa: sp 0 +
STACK CFI INIT 86bdc 14 .cfa: sp 0 +
STACK CFI INIT 86bf0 4 .cfa: sp 0 +
STACK CFI INIT 86bf4 4 .cfa: sp 0 +
STACK CFI INIT 87168 1c .cfa: sp 0 +
STACK CFI INIT 87184 c .cfa: sp 0 +
STACK CFI INIT 8793c 10 .cfa: sp 0 +
STACK CFI INIT 8794c 10 .cfa: sp 0 +
STACK CFI INIT 8795c c .cfa: sp 0 +
STACK CFI INIT 88280 8 .cfa: sp 0 +
STACK CFI INIT 88288 24 .cfa: sp 0 +
STACK CFI 8828c .cfa: sp 32 +
STACK CFI 88294 .cfa: x29 32 + x19: .cfa -16 + ^ .ra: .cfa -24 + ^ x29: .cfa -32 + ^
STACK CFI 882a0 .cfa: sp 32 +
STACK CFI 882a8 .cfa: sp 0 +
STACK CFI INIT 882ac 28 .cfa: sp 0 +
STACK CFI 882b0 .cfa: sp 32 +
STACK CFI 882b8 .cfa: x29 32 + x19: .cfa -16 + ^ .ra: .cfa -24 + ^ x29: .cfa -32 + ^
STACK CFI 882c8 .cfa: sp 32 +
STACK CFI 882d0 .cfa: sp 0 +
STACK CFI INIT 882d4 4 .cfa: sp 0 +
STACK CFI INIT 882d8 34 .cfa: sp 0 +
STACK CFI 882dc .cfa: sp 32 +
STACK CFI 882e4 .cfa: x29 32 + x19: .cfa -16 + ^ .ra: .cfa -24 + ^ x29: .cfa -32 + ^
STACK CFI 88300 .cfa: sp 32 +
STACK CFI 88308 .cfa: sp 0 +
STACK CFI INIT 8830c 14 .cfa: sp 0 +
STACK CFI INIT 88320 4 .cfa: sp 0 +
STACK CFI INIT 88324 4 .cfa: sp 0 +
STACK CFI INIT 886c0 1c .cfa: sp 0 +
STACK CFI INIT 886dc c .cfa: sp 0 +
STACK CFI INIT 89e5c 14 .cfa: sp 0 +
STACK CFI 89e60 .cfa: sp 16 +
STACK CFI 89e64 .cfa: x29 16 + .ra: .cfa -8 + ^ x29: .cfa -16 + ^
STACK CFI INIT 8a798 4 .cfa: sp 0 +
STACK CFI INIT 8a79c 14 .cfa: sp 0 +
STACK CFI INIT 8a7b0 4 .cfa: sp 0 +
STACK CFI INIT 8a7b4 14 .cfa: sp 0 +
STACK CFI INIT 8a7c8 14 .cfa: sp 0 +
STACK CFI INIT 8a7dc 14 .cfa: sp 0 +
STACK CFI INIT 8c198 8 .cfa: sp 0 +
STACK CFI INIT 8c1a0 24 .cfa: sp 0 +
STACK CFI 8c1a4 .cfa: sp 32 +
STACK CFI 8c1ac .cfa: x29 32 + x19: .cfa -16 + ^ .ra: .cfa -24 + ^ x29: .cfa -32 + ^
STACK CFI 8c1b8 .cfa: sp 32 +
STACK CFI 8c1c0 .cfa: sp 0 +
STACK CFI INIT 8c1c4 28 .cfa: sp 0 +
STACK CFI 8c1c8 .cfa: sp 32 +
STACK CFI 8c1d0 .cfa: x29 32 + x19: .cfa -16 + ^ .ra: .cfa -24 + ^ x29: .cfa -32 + ^
STACK CFI 8c1e0 .cfa: sp 32 +
STACK CFI 8c1e8 .cfa: sp 0 +
STACK CFI INIT 8cf6c 8 .cfa: sp 0 +
STACK CFI INIT 8cf74 24 .cfa: sp 0 +
STACK CFI 8cf78 .cfa: sp 32 +
STACK CFI 8cf80 .cfa: x29 32 + x19: .cfa -16 + ^ .ra: .cfa -24 + ^ x29: .cfa -32 + ^
STACK CFI 8cf8c .cfa: sp 32 +
STACK CFI 8cf94 .cfa: sp 0 +
STACK CFI INIT 8cf98 28 .cfa: sp 0 +
STACK CFI 8cf9c .cfa: sp 32 +
STACK CFI 8cfa4 .cfa: x29 32 + x19: .cfa -16 + ^ .ra: .cfa -24 + ^ x29: .cfa -32 + ^
STACK CFI 8cfb4 .cfa: sp 32 +
STACK CFI 8cfbc .cfa: sp 0 +
STACK CFI INIT 90b48 14 .cfa: sp 0 +
STACK CFI 90b4c .cfa: sp 16 +
STACK CFI 90b50 .cfa: x29 16 + .ra: .cfa -8 + ^ x29: .cfa -16 + ^
STACK CFI INIT 90b5c adc .cfa: sp 0 +
STACK CFI 90b60 .cfa: sp 80 +
STACK CFI 90b74 .cfa: x29 80 + x19: .cfa -8 + ^ x20: .cfa -16 + ^ x21: .cfa -24 + ^ x22: .cfa -32 + ^ x23: .cfa -40 + ^ x24: .cfa -48 + ^ x25: .cfa -64 + ^ .ra: .cfa -72 + ^ x29: .cfa -80 + ^
STACK CFI 91160 .cfa: sp 80 +
STACK CFI 91174 .cfa: sp 0 +
STACK CFI 91178 .cfa: x29 80 +
STACK CFI 91198 .cfa: sp 80 +
STACK CFI 911ac .cfa: sp 0 +
STACK CFI 911b0 .cfa: x29 80 +
STACK CFI 914bc .cfa: sp 80 +
STACK CFI 914d0 .cfa: sp 0 +
STACK CFI 914d4 .cfa: x29 80 +
STACK CFI 9150c .cfa: sp 80 +
STACK CFI 91520 .cfa: sp 0 +
STACK CFI 91524 .cfa: x29 80 +
STACK CFI 91598 .cfa: sp 80 +
STACK CFI 915ac .cfa: sp 0 +
STACK CFI 915b0 .cfa: x29 80 +
STACK CFI 91620 .cfa: sp 80 +
STACK CFI 91634 .cfa: sp 0 +
STACK CFI INIT 91638 368 .cfa: sp 0 +
STACK CFI 9163c .cfa: sp 16 +
STACK CFI 91640 .cfa: x29 16 + .ra: .cfa -8 + ^ x29: .cfa -16 + ^
STACK CFI 91658 .cfa: sp 16 +
STACK CFI 9165c .cfa: sp 0 +
STACK CFI 91660 .cfa: x29 16 +
STACK CFI 91690 .cfa: sp 16 +
STACK CFI 91694 .cfa: sp 0 +
STACK CFI 91698 .cfa: x29 16 +
STACK CFI 916c4 .cfa: sp 16 +
STACK CFI 916c8 .cfa: sp 0 +
STACK CFI 916cc .cfa: x29 16 +
STACK CFI 916fc .cfa: sp 16 +
STACK CFI 91700 .cfa: sp 0 +
STACK CFI 91704 .cfa: x29 16 +
STACK CFI 917a4 .cfa: sp 16 +
STACK CFI 917a8 .cfa: sp 0 +
STACK CFI 917ac .cfa: x29 16 +
STACK CFI 9183c .cfa: sp 16 +
STACK CFI 91840 .cfa: sp 0 +
STACK CFI 91844 .cfa: x29 16 +
STACK CFI 91984 .cfa: sp 16 +
STACK CFI 91988 .cfa: sp 0 +
STACK CFI 9198c .cfa: x29 16 +
STACK CFI 91998 .cfa: sp 16 +
STACK CFI 9199c .cfa: sp 0 +
STACK CFI INIT 919a0 1b8 .cfa: sp 0 +
STACK CFI INIT 91b58 728 .cfa: sp 0 +
STACK CFI 91b5c .cfa: sp 416 +
STACK CFI 91b78 .cfa: x29 96 + x19: .cfa -8 + ^ x20: .cfa -16 + ^ x21: .cfa -24 + ^ x22: .cfa -32 + ^ x23: .cfa -40 + ^ x24: .cfa -48 + ^ x25: .cfa -56 + ^ x26: .cfa -64 + ^ x27: .cfa -72 + ^ x28: .cfa -80 + ^ .ra: .cfa -88 + ^ x29: .cfa -96 + ^
STACK CFI 92230 .cfa: sp 416 +
STACK CFI 9224c .cfa: sp 0 +
STACK CFI 92250 .cfa: x29 96 +
STACK CFI INIT 92280 9a4 .cfa: sp 0 +
STACK CFI 92284 .cfa: sp 144 +
STACK CFI 9229c .cfa: x29 80 + x19: .cfa -8 + ^ x20: .cfa -16 + ^ x21: .cfa -24 + ^ x22: .cfa -32 + ^ x23: .cfa -40 + ^ x24: .cfa -48 + ^ x25: .cfa -64 + ^ .ra: .cfa -72 + ^ x29: .cfa -80 + ^
STACK CFI 92c04 .cfa: sp 144 +
STACK CFI 92c1c .cfa: sp 0 +
STACK CFI 92c20 .cfa: x29 80 +
STACK CFI INIT 92c24 150 .cfa: sp 0 +
STACK CFI 92c28 .cfa: sp 48 +
STACK CFI 92c34 .cfa: x29 48 + x19: .cfa -8 + ^ x20: .cfa -16 + ^ x21: .cfa -24 + ^ x22: .cfa -32 + ^ .ra: .cfa -40 + ^ x29: .cfa -48 + ^
STACK CFI 92d64 .cfa: sp 48 +
STACK CFI 92d70 .cfa: sp 0 +
STACK CFI INIT 92d74 190 .cfa: sp 0 +
STACK CFI 92d78 .cfa: sp 96 +
STACK CFI 92d8c .cfa: x29 64 + x19: .cfa -8 + ^ x20: .cfa -16 + ^ x21: .cfa -24 + ^ x22: .cfa -32 + ^ x23: .cfa -48 + ^ .ra: .cfa -56 + ^ x29: .cfa -64 + ^
STACK CFI 92ee8 .cfa: sp 96 +
STACK CFI 92efc .cfa: sp 0 +
STACK CFI 92f00 .cfa: x29 64 +
STACK CFI INIT 92f04 1e4 .cfa: sp 0 +
STACK CFI 92f08 .cfa: sp 112 +
STACK CFI 92f20 .cfa: x29 80 + x19: .cfa -8 + ^ x20: .cfa -16 + ^ x21: .cfa -24 + ^ x22: .cfa -32 + ^ x23: .cfa -40 + ^ x24: .cfa -48 + ^ x25: .cfa -64 + ^ .ra: .cfa -72 + ^ x29: .cfa -80 + ^
STACK CFI 930c8 .cfa: sp 112 +
STACK CFI 930e0 .cfa: sp 0 +
STACK CFI 930e4 .cfa: x29 80 +
STACK CFI INIT 930e8 1a8 .cfa: sp 0 +
STACK CFI 930ec .cfa: sp 96 +
STACK CFI 93100 .cfa: x29 64 + x19: .cfa -8 + ^ x20: .cfa -16 + ^ x21: .cfa -24 + ^ x22: .cfa -32 + ^ x23: .cfa -40 + ^ x24: .cfa -48 + ^ .ra: .cfa -56 + ^ x29: .cfa -64 + ^
STACK CFI 93274 .cfa: sp 96 +
STACK CFI 93288 .cfa: sp 0 +
STACK CFI 9328c .cfa: x29 64 +
STACK CFI INIT 93290 1ac .cfa: sp 0 +
STACK CFI 93294 .cfa: sp 112 +
STACK CFI 932a8 .cfa: x29 64 + x19: .cfa -8 + ^ x20: .cfa -16 + ^ x21: .cfa -24 + ^ x22: .cfa -32 + ^ x23: .cfa -40 + ^ x24: .cfa -48 + ^ .ra: .cfa -56 + ^ x29: .cfa -64 + ^
STACK CFI 93420 .cfa: sp 112 +
STACK CFI 93434 .cfa: sp 0 +
STACK CFI 93438 .cfa: x29 64 +
STACK CFI INIT 9343c 108 .cfa: sp 0 +
STACK CFI 93440 .cfa: sp 64 +
STACK CFI 93450 .cfa: x29 64 + x19: .cfa -8 + ^ x20: .cfa -16 + ^ x21: .cfa -24 + ^ x22: .cfa -32 + ^ x23: .cfa -48 + ^ .ra: .cfa -56 + ^ x29: .cfa -64 + ^
STACK CFI 934cc .cfa: sp 64 +
STACK CFI 934dc .cfa: sp 0 +
STACK CFI 934e0 .cfa: x29 64 +
STACK CFI 93530 .cfa: sp 64 +
STACK CFI 93540 .cfa: sp 0 +
STACK CFI INIT 93544 178 .cfa: sp 0 +
STACK CFI 93548 .cfa: sp 96 +
STACK CFI 93558 .cfa: x29 48 + x19: .cfa -8 + ^ x20: .cfa -16 + ^ x21: .cfa -24 + ^ x22: .cfa -32 + ^ .ra: .cfa -40 + ^ x29: .cfa -48 + ^
STACK CFI 93678 .cfa: sp 96 +
STACK CFI 93688 .cfa: sp 0 +
STACK CFI 9368c .cfa: x29 48 +
STACK CFI INIT 941e8 24 .cfa: sp 0 +
STACK CFI 941ec .cfa: sp 16 +
STACK CFI 941f0 .cfa: x29 16 + .ra: .cfa -8 + ^ x29: .cfa -16 + ^
STACK CFI 94204 .cfa: sp 16 +
STACK CFI 94208 .cfa: sp 0 +
STACK CFI INIT 9420c 24 .cfa: sp 0 +
STACK CFI 94210 .cfa: sp 16 +
STACK CFI 94214 .cfa: x29 16 + .ra: .cfa -8 + ^ x29: .cfa -16 + ^
STACK CFI 94228 .cfa: sp 16 +
STACK CFI 9422c .cfa: sp 0 +
STACK CFI INIT 94230 c .cfa: sp 0 +
STACK CFI INIT 9423c 88 .cfa: sp 0 +
STACK CFI 94240 .cfa: sp 48 +
STACK CFI 9424c .cfa: x29 48 + x19: .cfa -8 + ^ x20: .cfa -16 + ^ x21: .cfa -32 + ^ .ra: .cfa -40 + ^ x29: .cfa -48 + ^
STACK CFI 9426c .cfa: sp 48 +
STACK CFI 94278 .cfa: sp 0 +
STACK CFI 9427c .cfa: x29 48 +
STACK CFI 942a4 .cfa: sp 48 +
STACK CFI 942b0 .cfa: sp 0 +
STACK CFI 942b4 .cfa: sp 48 +
STACK CFI 942c0 .cfa: sp 0 +
STACK CFI INIT 9576c 4c .cfa: sp 0 +
STACK CFI 95770 .cfa: sp 32 +
STACK CFI 95778 .cfa: x29 32 + x19: .cfa -16 + ^ .ra: .cfa -24 + ^ x29: .cfa -32 + ^
STACK CFI 957a0 .cfa: sp 32 +
STACK CFI 957a8 .cfa: sp 0 +
STACK CFI 957ac .cfa: sp 32 +
STACK CFI 957b4 .cfa: sp 0 +
STACK CFI INIT 957b8 10 .cfa: sp 0 +
STACK CFI INIT 957c8 10 .cfa: sp 0 +
STACK CFI INIT 957d8 c .cfa: sp 0 +
STACK CFI INIT 957e4 54 .cfa: sp 0 +
STACK CFI INIT 97c44 264 .cfa: sp 0 +
STACK CFI 97c48 .cfa: sp 96 +
STACK CFI 97c5c .cfa: x29 48 + x19: .cfa -8 + ^ x20: .cfa -16 + ^ x21: .cfa -24 + ^ x22: .cfa -32 + ^ .ra: .cfa -40 + ^ x29: .cfa -48 + ^ v8: .cfa -56 + ^ v9: .cfa -64 + ^
STACK CFI 97e8c .cfa: sp 96 +
STACK CFI 97ea0 .cfa: sp 0 +
STACK CFI 97ea4 .cfa: x29 48 +
STACK CFI INIT 97ea8 8 .cfa: sp 0 +
STACK CFI INIT 97eb0 7c .cfa: sp 0 +
STACK CFI 97ec0 .cfa: sp 32 +
STACK CFI 97ec8 .cfa: x29 32 + x19: .cfa -16 + ^ .ra: .cfa -24 + ^ x29: .cfa -32 + ^
STACK CFI 97f20 .cfa: sp 32 +
STACK CFI 97f28 .cfa: sp 0 +
STACK CFI INIT 97f2c 78 .cfa: sp 0 +
STACK CFI 97f3c .cfa: sp 32 +
STACK CFI 97f44 .cfa: x29 32 + x19: .cfa -16 + ^ .ra: .cfa -24 + ^ x29: .cfa -32 + ^
STACK CFI 97f98 .cfa: sp 32 +
STACK CFI 97fa0 .cfa: sp 0 +
STACK CFI INIT 983fc 8 .cfa: sp 0 +
STACK CFI INIT 98404 24 .cfa: sp 0 +
STACK CFI 98408 .cfa: sp 32 +
STACK CFI 98410 .cfa: x29 32 + x19: .cfa -16 + ^ .ra: .cfa -24 + ^ x29: .cfa -32 + ^
STACK CFI 9841c .cfa: sp 32 +
STACK CFI 98424 .cfa: sp 0 +
STACK CFI INIT 98428 28 .cfa: sp 0 +
STACK CFI 9842c .cfa: sp 32 +
STACK CFI 98434 .cfa: x29 32 + x19: .cfa -16 + ^ .ra: .cfa -24 + ^ x29: .cfa -32 + ^
STACK CFI 98444 .cfa: sp 32 +
STACK CFI 9844c .cfa: sp 0 +
STACK CFI INIT 98fa4 8 .cfa: sp 0 +
STACK CFI INIT 98fac 24 .cfa: sp 0 +
STACK CFI 98fb0 .cfa: sp 32 +
STACK CFI 98fb8 .cfa: x29 32 + x19: .cfa -16 + ^ .ra: .cfa -24 + ^ x29: .cfa -32 + ^
STACK CFI 98fc4 .cfa: sp 32 +
STACK CFI 98fcc .cfa: sp 0 +
STACK CFI INIT 98fd0 28 .cfa: sp 0 +
STACK CFI 98fd4 .cfa: sp 32 +
STACK CFI 98fdc .cfa: x29 32 + x19: .cfa -16 + ^ .ra: .cfa -24 + ^ x29: .cfa -32 + ^
STACK CFI 98fec .cfa: sp 32 +
STACK CFI 98ff4 .cfa: sp 0 +
STACK CFI INIT 98ff8 c .cfa: sp 0 +
STACK CFI INIT 99004 c .cfa: sp 0 +
STACK CFI INIT 99010 10 .cfa: sp 0 +
STACK CFI INIT 99020 10 .cfa: sp 0 +
STACK CFI INIT 99030 14 .cfa: sp 0 +
STACK CFI 99034 .cfa: sp 16 +
STACK CFI 99038 .cfa: x29 16 + .ra: .cfa -8 + ^ x29: .cfa -16 + ^
STACK CFI INIT 99044 ac0 .cfa: sp 0 +
STACK CFI 99048 .cfa: sp 80 +
STACK CFI 9905c .cfa: x29 80 + x19: .cfa -8 + ^ x20: .cfa -16 + ^ x21: .cfa -24 + ^ x22: .cfa -32 + ^ x23: .cfa -40 + ^ x24: .cfa -48 + ^ x25: .cfa -64 + ^ .ra: .cfa -72 + ^ x29: .cfa -80 + ^
STACK CFI 99640 .cfa: sp 80 +
STACK CFI 99654 .cfa: sp 0 +
STACK CFI 99658 .cfa: x29 80 +
STACK CFI 99678 .cfa: sp 80 +
STACK CFI 9968c .cfa: sp 0 +
STACK CFI 99690 .cfa: x29 80 +
STACK CFI 9999c .cfa: sp 80 +
STACK CFI 999b0 .cfa: sp 0 +
STACK CFI 999b4 .cfa: x29 80 +
STACK CFI 999e4 .cfa: sp 80 +
STACK CFI 999f8 .cfa: sp 0 +
STACK CFI 999fc .cfa: x29 80 +
STACK CFI 99a6c .cfa: sp 80 +
STACK CFI 99a80 .cfa: sp 0 +
STACK CFI 99a84 .cfa: x29 80 +
STACK CFI 99aec .cfa: sp 80 +
STACK CFI 99b00 .cfa: sp 0 +
STACK CFI INIT 99b04 33c .cfa: sp 0 +
STACK CFI 99b08 .cfa: sp 16 +
STACK CFI 99b0c .cfa: x29 16 + .ra: .cfa -8 + ^ x29: .cfa -16 + ^
STACK CFI 99b24 .cfa: sp 16 +
STACK CFI 99b28 .cfa: sp 0 +
STACK CFI 99b2c .cfa: x29 16 +
STACK CFI 99b5c .cfa: sp 16 +
STACK CFI 99b60 .cfa: sp 0 +
STACK CFI 99b64 .cfa: x29 16 +
STACK CFI 99b90 .cfa: sp 16 +
STACK CFI 99b94 .cfa: sp 0 +
STACK CFI 99b98 .cfa: x29 16 +
STACK CFI 99bc8 .cfa: sp 16 +
STACK CFI 99bcc .cfa: sp 0 +
STACK CFI 99bd0 .cfa: x29 16 +
STACK CFI 99c6c .cfa: sp 16 +
STACK CFI 99c70 .cfa: sp 0 +
STACK CFI 99c74 .cfa: x29 16 +
STACK CFI 99cf0 .cfa: sp 16 +
STACK CFI 99cf4 .cfa: sp 0 +
STACK CFI 99cf8 .cfa: x29 16 +
STACK CFI 99e24 .cfa: sp 16 +
STACK CFI 99e28 .cfa: sp 0 +
STACK CFI 99e2c .cfa: x29 16 +
STACK CFI 99e38 .cfa: sp 16 +
STACK CFI 99e3c .cfa: sp 0 +
STACK CFI INIT 99e40 19c .cfa: sp 0 +
STACK CFI INIT 99fdc 14 .cfa: sp 0 +
STACK CFI 99fe0 .cfa: sp 16 +
STACK CFI 99fe4 .cfa: x29 16 + .ra: .cfa -8 + ^ x29: .cfa -16 + ^
STACK CFI INIT 99ff0 13b0 .cfa: sp 0 +
STACK CFI 99ff4 .cfa: sp 208 +
STACK CFI 9a010 .cfa: x29 96 + x19: .cfa -8 + ^ x20: .cfa -16 + ^ x21: .cfa -24 + ^ x22: .cfa -32 + ^ x23: .cfa -40 + ^ x24: .cfa -48 + ^ x25: .cfa -56 + ^ x26: .cfa -64 + ^ x27: .cfa -72 + ^ x28: .cfa -80 + ^ .ra: .cfa -88 + ^ x29: .cfa -96 + ^
STACK CFI 9a868 .cfa: sp 208 +
STACK CFI 9a884 .cfa: sp 0 +
STACK CFI 9a888 .cfa: x29 96 +
STACK CFI 9a964 .cfa: sp 208 +
STACK CFI 9a980 .cfa: sp 0 +
STACK CFI 9a984 .cfa: x29 96 +
STACK CFI 9a9a8 .cfa: sp 208 +
STACK CFI 9a9c4 .cfa: sp 0 +
STACK CFI 9a9c8 .cfa: x29 96 +
STACK CFI 9b37c .cfa: sp 208 +
STACK CFI 9b398 .cfa: sp 0 +
STACK CFI 9b39c .cfa: x29 96 +
STACK CFI INIT 9b3a0 3b8 .cfa: sp 0 +
STACK CFI 9b3a4 .cfa: sp 176 +
STACK CFI 9b3c0 .cfa: x29 96 + x19: .cfa -8 + ^ x20: .cfa -16 + ^ x21: .cfa -24 + ^ x22: .cfa -32 + ^ x23: .cfa -40 + ^ x24: .cfa -48 + ^ x25: .cfa -56 + ^ x26: .cfa -64 + ^ x27: .cfa -72 + ^ x28: .cfa -80 + ^ .ra: .cfa -88 + ^ x29: .cfa -96 + ^
STACK CFI 9b734 .cfa: sp 176 +
STACK CFI 9b750 .cfa: sp 0 +
STACK CFI 9b754 .cfa: x29 96 +
STACK CFI INIT 9b758 3c0 .cfa: sp 0 +
STACK CFI 9b75c .cfa: sp 144 +
STACK CFI 9b778 .cfa: x29 96 + x19: .cfa -8 + ^ x20: .cfa -16 + ^ x21: .cfa -24 + ^ x22: .cfa -32 + ^ x23: .cfa -40 + ^ x24: .cfa -48 + ^ x25: .cfa -56 + ^ x26: .cfa -64 + ^ x27: .cfa -72 + ^ x28: .cfa -80 + ^ .ra: .cfa -88 + ^ x29: .cfa -96 + ^
STACK CFI 9bab8 .cfa: sp 144 +
STACK CFI 9bad4 .cfa: sp 0 +
STACK CFI 9bad8 .cfa: x29 96 +
STACK CFI INIT 9bb18 2a0 .cfa: sp 0 +
STACK CFI 9bb1c .cfa: sp 128 +
STACK CFI 9bb38 .cfa: x29 96 + x19: .cfa -8 + ^ x20: .cfa -16 + ^ x21: .cfa -24 + ^ x22: .cfa -32 + ^ x23: .cfa -40 + ^ x24: .cfa -48 + ^ x25: .cfa -56 + ^ x26: .cfa -64 + ^ x27: .cfa -72 + ^ x28: .cfa -80 + ^ .ra: .cfa -88 + ^ x29: .cfa -96 + ^
STACK CFI 9bd94 .cfa: sp 128 +
STACK CFI 9bdb0 .cfa: sp 0 +
STACK CFI 9bdb4 .cfa: x29 96 +
STACK CFI INIT 9bdb8 360 .cfa: sp 0 +
STACK CFI 9bdbc .cfa: sp 144 +
STACK CFI 9bdd8 .cfa: x29 96 + x19: .cfa -8 + ^ x20: .cfa -16 + ^ x21: .cfa -24 + ^ x22: .cfa -32 + ^ x23: .cfa -40 + ^ x24: .cfa -48 + ^ x25: .cfa -56 + ^ x26: .cfa -64 + ^ x27: .cfa -72 + ^ x28: .cfa -80 + ^ .ra: .cfa -88 + ^ x29: .cfa -96 + ^
STACK CFI 9c0f4 .cfa: sp 144 +
STACK CFI 9c110 .cfa: sp 0 +
STACK CFI 9c114 .cfa: x29 96 +
STACK CFI INIT 9c118 130 .cfa: sp 0 +
STACK CFI 9c11c .cfa: sp 64 +
STACK CFI 9c12c .cfa: x29 64 + x19: .cfa -8 + ^ x20: .cfa -16 + ^ x21: .cfa -24 + ^ x22: .cfa -32 + ^ x23: .cfa -48 + ^ .ra: .cfa -56 + ^ x29: .cfa -64 + ^
STACK CFI 9c22c .cfa: sp 64 +
STACK CFI 9c23c .cfa: sp 0 +
STACK CFI 9c240 .cfa: x29 64 +
STACK CFI INIT 9c248 a74 .cfa: sp 0 +
STACK CFI 9c24c .cfa: sp 80 +
STACK CFI 9c260 .cfa: x29 80 + x19: .cfa -8 + ^ x20: .cfa -16 + ^ x21: .cfa -24 + ^ x22: .cfa -32 + ^ x23: .cfa -40 + ^ x24: .cfa -48 + ^ x25: .cfa -64 + ^ .ra: .cfa -72 + ^ x29: .cfa -80 + ^
STACK CFI 9c774 .cfa: sp 80 +
STACK CFI 9c788 .cfa: sp 0 +
STACK CFI 9c78c .cfa: x29 80 +
STACK CFI 9cab0 .cfa: sp 80 +
STACK CFI 9cac4 .cfa: sp 0 +
STACK CFI 9cac8 .cfa: x29 80 +
STACK CFI 9cb04 .cfa: sp 80 +
STACK CFI 9cb18 .cfa: sp 0 +
STACK CFI 9cb1c .cfa: x29 80 +
STACK CFI 9cc60 .cfa: sp 80 +
STACK CFI 9cc74 .cfa: sp 0 +
STACK CFI 9cc78 .cfa: x29 80 +
STACK CFI 9cc90 .cfa: sp 80 +
STACK CFI 9cca4 .cfa: sp 0 +
STACK CFI 9cca8 .cfa: x29 80 +
STACK CFI INIT 9ccbc 400 .cfa: sp 0 +
STACK CFI INIT 9ed28 168 .cfa: sp 0 +
STACK CFI 9ed2c .cfa: sp 80 +
STACK CFI 9ed40 .cfa: x29 80 + x19: .cfa -8 + ^ x20: .cfa -16 + ^ x21: .cfa -24 + ^ x22: .cfa -32 + ^ x23: .cfa -40 + ^ x24: .cfa -48 + ^ x25: .cfa -64 + ^ .ra: .cfa -72 + ^ x29: .cfa -80 + ^
STACK CFI 9ee2c .cfa: sp 80 +
STACK CFI 9ee40 .cfa: sp 0 +
STACK CFI 9ee44 .cfa: x29 80 +
STACK CFI 9ee78 .cfa: sp 80 +
STACK CFI 9ee8c .cfa: sp 0 +
STACK CFI INIT 9ee90 168 .cfa: sp 0 +
STACK CFI 9ee94 .cfa: sp 32 +
STACK CFI 9ee9c .cfa: x29 32 + x19: .cfa -16 + ^ .ra: .cfa -24 + ^ x29: .cfa -32 + ^
STACK CFI 9efec .cfa: sp 32 +
STACK CFI 9eff4 .cfa: sp 0 +
STACK CFI INIT 9eff8 168 .cfa: sp 0 +
STACK CFI 9effc .cfa: sp 32 +
STACK CFI 9f004 .cfa: x29 32 + x19: .cfa -16 + ^ .ra: .cfa -24 + ^ x29: .cfa -32 + ^
STACK CFI 9f154 .cfa: sp 32 +
STACK CFI 9f15c .cfa: sp 0 +
STACK CFI INIT a69d4 8 .cfa: sp 0 +
STACK CFI INIT a69dc 24 .cfa: sp 0 +
STACK CFI a69e0 .cfa: sp 32 +
STACK CFI a69e8 .cfa: x29 32 + x19: .cfa -16 + ^ .ra: .cfa -24 + ^ x29: .cfa -32 + ^
STACK CFI a69f4 .cfa: sp 32 +
STACK CFI a69fc .cfa: sp 0 +
STACK CFI INIT a6a00 28 .cfa: sp 0 +
STACK CFI a6a04 .cfa: sp 32 +
STACK CFI a6a0c .cfa: x29 32 + x19: .cfa -16 + ^ .ra: .cfa -24 + ^ x29: .cfa -32 + ^
STACK CFI a6a1c .cfa: sp 32 +
STACK CFI a6a24 .cfa: sp 0 +
STACK CFI INIT a6a28 14 .cfa: sp 0 +
STACK CFI a6a2c .cfa: sp 16 +
STACK CFI a6a30 .cfa: x29 16 + .ra: .cfa -8 + ^ x29: .cfa -16 + ^
STACK CFI INIT a6a3c 104 .cfa: sp 0 +
STACK CFI a6a40 .cfa: sp 32 +
STACK CFI a6a48 .cfa: x29 32 + x19: .cfa -8 + ^ x20: .cfa -16 + ^ .ra: .cfa -24 + ^ x29: .cfa -32 + ^
STACK CFI a6b20 .cfa: sp 32 +
STACK CFI a6b28 .cfa: sp 0 +
STACK CFI a6b2c .cfa: sp 32 +
STACK CFI a6b34 .cfa: sp 0 +
STACK CFI a6b38 .cfa: x29 32 +
STACK CFI INIT a6b40 104 .cfa: sp 0 +
STACK CFI a6b44 .cfa: sp 48 +
STACK CFI a6b50 .cfa: x29 48 + x19: .cfa -8 + ^ x20: .cfa -16 + ^ x21: .cfa -32 + ^ .ra: .cfa -40 + ^ x29: .cfa -48 + ^
STACK CFI a6c2c .cfa: sp 48 +
STACK CFI a6c38 .cfa: sp 0 +
STACK CFI a6c3c .cfa: x29 48 +
STACK CFI INIT a6fd0 10 .cfa: sp 0 +
STACK CFI INIT a6fe0 14 .cfa: sp 0 +
STACK CFI INIT a9498 b4 .cfa: sp 0 +
STACK CFI a949c .cfa: sp 48 +
STACK CFI a94a8 .cfa: x29 48 + x19: .cfa -8 + ^ x20: .cfa -16 + ^ x21: .cfa -32 + ^ .ra: .cfa -40 + ^ x29: .cfa -48 + ^
STACK CFI a94c8 .cfa: sp 48 +
STACK CFI a94d4 .cfa: sp 0 +
STACK CFI a94d8 .cfa: x29 48 +
STACK CFI a952c .cfa: sp 48 +
STACK CFI a9538 .cfa: sp 0 +
STACK CFI a953c .cfa: sp 48 +
STACK CFI a9548 .cfa: sp 0 +
STACK CFI INIT a9648 54 .cfa: sp 0 +
STACK CFI a964c .cfa: sp 32 +
STACK CFI a9654 .cfa: x29 32 + x19: .cfa -16 + ^ .ra: .cfa -24 + ^ x29: .cfa -32 + ^
STACK CFI a9680 .cfa: sp 32 +
STACK CFI a9688 .cfa: sp 0 +
STACK CFI a968c .cfa: x29 32 +
STACK CFI a9690 .cfa: sp 32 +
STACK CFI a9698 .cfa: sp 0 +
STACK CFI INIT ab798 8c .cfa: sp 0 +
STACK CFI ab79c .cfa: sp 48 +
STACK CFI ab7a8 .cfa: x29 48 + x19: .cfa -8 + ^ x20: .cfa -16 + ^ x21: .cfa -24 + ^ x22: .cfa -32 + ^ .ra: .cfa -40 + ^ x29: .cfa -48 + ^
STACK CFI ab804 .cfa: sp 48 +
STACK CFI ab810 .cfa: sp 0 +
STACK CFI ab814 .cfa: sp 48 +
STACK CFI ab820 .cfa: sp 0 +
STACK CFI INIT ab824 14 .cfa: sp 0 +
STACK CFI ab828 .cfa: sp 16 +
STACK CFI ab82c .cfa: x29 16 + .ra: .cfa -8 + ^ x29: .cfa -16 + ^
STACK CFI INIT abca4 54 .cfa: sp 0 +
STACK CFI abca8 .cfa: sp 32 +
STACK CFI abcb0 .cfa: x29 32 + x19: .cfa -16 + ^ .ra: .cfa -24 + ^ x29: .cfa -32 + ^
STACK CFI abcdc .cfa: sp 32 +
STACK CFI abce4 .cfa: sp 0 +
STACK CFI abce8 .cfa: x29 32 +
STACK CFI abcec .cfa: sp 32 +
STACK CFI abcf4 .cfa: sp 0 +
STACK CFI INIT abcf8 14 .cfa: sp 0 +
STACK CFI INIT abd0c e8 .cfa: sp 0 +
STACK CFI abd10 .cfa: sp 48 +
STACK CFI abd1c .cfa: x29 48 + x19: .cfa -8 + ^ x20: .cfa -16 + ^ x21: .cfa -24 + ^ x22: .cfa -32 + ^ .ra: .cfa -40 + ^ x29: .cfa -48 + ^
STACK CFI abde4 .cfa: sp 48 +
STACK CFI abdf0 .cfa: sp 0 +
STACK CFI INIT abdf4 120 .cfa: sp 0 +
STACK CFI abdf8 .cfa: sp 32 +
STACK CFI abe00 .cfa: x29 32 + x19: .cfa -8 + ^ x20: .cfa -16 + ^ .ra: .cfa -24 + ^ x29: .cfa -32 + ^
STACK CFI abf08 .cfa: sp 32 +
STACK CFI abf10 .cfa: sp 0 +
STACK CFI INIT abf14 74 .cfa: sp 0 +
STACK CFI abf24 .cfa: sp 32 +
STACK CFI abf2c .cfa: x29 32 + x19: .cfa -8 + ^ x20: .cfa -16 + ^ .ra: .cfa -24 + ^ x29: .cfa -32 + ^
STACK CFI abf7c .cfa: sp 32 +
STACK CFI abf84 .cfa: sp 0 +
STACK CFI INIT abf88 1e0 .cfa: sp 0 +
STACK CFI abf8c .cfa: sp 96 +
STACK CFI abfa4 .cfa: x29 96 + x19: .cfa -8 + ^ x20: .cfa -16 + ^ x21: .cfa -24 + ^ x22: .cfa -32 + ^ x23: .cfa -40 + ^ x24: .cfa -48 + ^ x25: .cfa -56 + ^ x26: .cfa -64 + ^ x27: .cfa -72 + ^ x28: .cfa -80 + ^ .ra: .cfa -88 + ^ x29: .cfa -96 + ^
STACK CFI ac140 .cfa: sp 96 +
STACK CFI ac158 .cfa: sp 0 +
STACK CFI ac15c .cfa: x29 96 +
STACK CFI INIT ac168 14 .cfa: sp 0 +
STACK CFI ac16c .cfa: sp 16 +
STACK CFI ac170 .cfa: x29 16 + .ra: .cfa -8 + ^ x29: .cfa -16 + ^
STACK CFI INIT ac17c 2dc .cfa: sp 0 +
STACK CFI ac188 .cfa: sp 64 +
STACK CFI ac198 .cfa: x29 64 + x19: .cfa -8 + ^ x20: .cfa -16 + ^ x21: .cfa -24 + ^ x22: .cfa -32 + ^ x23: .cfa -48 + ^ .ra: .cfa -56 + ^ x29: .cfa -64 + ^
STACK CFI ac444 .cfa: sp 64 +
STACK CFI ac454 .cfa: sp 0 +
STACK CFI INIT ac458 140 .cfa: sp 0 +
STACK CFI ac45c .cfa: sp 128 +
STACK CFI ac46c .cfa: x29 48 + x19: .cfa -8 + ^ x20: .cfa -16 + ^ x21: .cfa -32 + ^ .ra: .cfa -40 + ^ x29: .cfa -48 + ^
STACK CFI ac534 .cfa: sp 128 +
STACK CFI ac544 .cfa: sp 0 +
STACK CFI ac548 .cfa: x29 48 +
STACK CFI INIT ac598 200 .cfa: sp 0 +
STACK CFI INIT acc48 18c .cfa: sp 0 +
STACK CFI acc4c .cfa: sp 48 +
STACK CFI acc58 .cfa: x29 48 + x19: .cfa -8 + ^ x20: .cfa -16 + ^ x21: .cfa -24 + ^ x22: .cfa -32 + ^ .ra: .cfa -40 + ^ x29: .cfa -48 + ^
STACK CFI acd54 .cfa: sp 48 +
STACK CFI acd60 .cfa: sp 0 +
STACK CFI acd64 .cfa: x29 48 +
STACK CFI acdbc .cfa: sp 48 +
STACK CFI acdc8 .cfa: sp 0 +
STACK CFI acdcc .cfa: x29 48 +
STACK CFI INIT acdd4 228 .cfa: sp 0 +
STACK CFI acdd8 .cfa: sp 48 +
STACK CFI acde4 .cfa: x29 48 + x19: .cfa -8 + ^ x20: .cfa -16 + ^ x21: .cfa -24 + ^ x22: .cfa -32 + ^ .ra: .cfa -40 + ^ x29: .cfa -48 + ^
STACK CFI acfe0 .cfa: sp 48 +
STACK CFI acfec .cfa: sp 0 +
STACK CFI acff0 .cfa: x29 48 +
STACK CFI INIT ad140 c4 .cfa: sp 0 +
STACK CFI ad144 .cfa: sp 48 +
STACK CFI ad150 .cfa: x29 48 + x19: .cfa -8 + ^ x20: .cfa -16 + ^ x21: .cfa -24 + ^ x22: .cfa -32 + ^ .ra: .cfa -40 + ^ x29: .cfa -48 + ^
STACK CFI ad158 .cfa: sp 48 +
STACK CFI ad164 .cfa: sp 0 +
STACK CFI ad168 .cfa: x29 48 +
STACK CFI ad18c .cfa: sp 48 +
STACK CFI ad198 .cfa: sp 0 +
STACK CFI ad19c .cfa: x29 48 +
STACK CFI ad1f4 .cfa: sp 48 +
STACK CFI ad200 .cfa: sp 0 +
STACK CFI INIT ad204 b4 .cfa: sp 0 +
STACK CFI ad208 .cfa: sp 48 +
STACK CFI ad214 .cfa: x29 48 + x19: .cfa -8 + ^ x20: .cfa -16 + ^ x21: .cfa -32 + ^ .ra: .cfa -40 + ^ x29: .cfa -48 + ^
STACK CFI ad234 .cfa: sp 48 +
STACK CFI ad240 .cfa: sp 0 +
STACK CFI ad244 .cfa: x29 48 +
STACK CFI ad298 .cfa: sp 48 +
STACK CFI ad2a4 .cfa: sp 0 +
STACK CFI ad2a8 .cfa: sp 48 +
STACK CFI ad2b4 .cfa: sp 0 +
STACK CFI INIT ad2b8 14 .cfa: sp 0 +
STACK CFI INIT b572c 20 .cfa: sp 0 +
STACK CFI b5730 .cfa: sp 16 +
STACK CFI b5734 .cfa: x29 16 + .ra: .cfa -8 + ^ x29: .cfa -16 + ^
STACK CFI b5744 .cfa: sp 16 +
STACK CFI b5748 .cfa: sp 0 +
STACK CFI INIT b63b0 74 .cfa: sp 0 +
STACK CFI b63b4 .cfa: sp 32 +
STACK CFI b63bc .cfa: x29 32 + x19: .cfa -8 + ^ x20: .cfa -16 + ^ .ra: .cfa -24 + ^ x29: .cfa -32 + ^
STACK CFI b6400 .cfa: sp 32 +
STACK CFI b6408 .cfa: sp 0 +
STACK CFI b640c .cfa: x29 32 +
STACK CFI b6418 .cfa: sp 32 +
STACK CFI b6420 .cfa: sp 0 +
STACK CFI INIT b7cf4 64 .cfa: sp 0 +
STACK CFI b7cf8 .cfa: sp 32 +
STACK CFI b7d00 .cfa: x29 32 + x19: .cfa -8 + ^ x20: .cfa -16 + ^ .ra: .cfa -24 + ^ x29: .cfa -32 + ^
STACK CFI b7d4c .cfa: sp 32 +
STACK CFI b7d54 .cfa: sp 0 +
STACK CFI INIT bc0bc 8 .cfa: sp 0 +
STACK CFI INIT bc66c 8 .cfa: sp 0 +
STACK CFI INIT bc674 24 .cfa: sp 0 +
STACK CFI bc678 .cfa: sp 32 +
STACK CFI bc680 .cfa: x29 32 + x19: .cfa -16 + ^ .ra: .cfa -24 + ^ x29: .cfa -32 + ^
STACK CFI bc68c .cfa: sp 32 +
STACK CFI bc694 .cfa: sp 0 +
STACK CFI INIT bc698 28 .cfa: sp 0 +
STACK CFI bc69c .cfa: sp 32 +
STACK CFI bc6a4 .cfa: x29 32 + x19: .cfa -16 + ^ .ra: .cfa -24 + ^ x29: .cfa -32 + ^
STACK CFI bc6b4 .cfa: sp 32 +
STACK CFI bc6bc .cfa: sp 0 +
STACK CFI INIT bd5f0 8 .cfa: sp 0 +
STACK CFI INIT bd5f8 24 .cfa: sp 0 +
STACK CFI bd5fc .cfa: sp 32 +
STACK CFI bd604 .cfa: x29 32 + x19: .cfa -16 + ^ .ra: .cfa -24 + ^ x29: .cfa -32 + ^
STACK CFI bd610 .cfa: sp 32 +
STACK CFI bd618 .cfa: sp 0 +
STACK CFI INIT bd61c 28 .cfa: sp 0 +
STACK CFI bd620 .cfa: sp 32 +
STACK CFI bd628 .cfa: x29 32 + x19: .cfa -16 + ^ .ra: .cfa -24 + ^ x29: .cfa -32 + ^
STACK CFI bd638 .cfa: sp 32 +
STACK CFI bd640 .cfa: sp 0 +
STACK CFI INIT bdbb4 3c .cfa: sp 0 +
STACK CFI bdbb8 .cfa: sp 32 +
STACK CFI bdbc0 .cfa: x29 32 + x19: .cfa -16 + ^ .ra: .cfa -24 + ^ x29: .cfa -32 + ^
STACK CFI bdbe4 .cfa: sp 32 +
STACK CFI bdbec .cfa: sp 0 +
STACK CFI INIT bdca4 8 .cfa: sp 0 +
STACK CFI INIT bdcac 24 .cfa: sp 0 +
STACK CFI bdcb0 .cfa: sp 32 +
STACK CFI bdcb8 .cfa: x29 32 + x19: .cfa -16 + ^ .ra: .cfa -24 + ^ x29: .cfa -32 + ^
STACK CFI bdcc4 .cfa: sp 32 +
STACK CFI bdccc .cfa: sp 0 +
STACK CFI INIT bdcd0 28 .cfa: sp 0 +
STACK CFI bdcd4 .cfa: sp 32 +
STACK CFI bdcdc .cfa: x29 32 + x19: .cfa -16 + ^ .ra: .cfa -24 + ^ x29: .cfa -32 + ^
STACK CFI bdcec .cfa: sp 32 +
STACK CFI bdcf4 .cfa: sp 0 +
STACK CFI INIT be8e8 8 .cfa: sp 0 +
STACK CFI INIT be8f0 24 .cfa: sp 0 +
STACK CFI be8f4 .cfa: sp 32 +
STACK CFI be8fc .cfa: x29 32 + x19: .cfa -16 + ^ .ra: .cfa -24 + ^ x29: .cfa -32 + ^
STACK CFI be908 .cfa: sp 32 +
STACK CFI be910 .cfa: sp 0 +
STACK CFI INIT be914 28 .cfa: sp 0 +
STACK CFI be918 .cfa: sp 32 +
STACK CFI be920 .cfa: x29 32 + x19: .cfa -16 + ^ .ra: .cfa -24 + ^ x29: .cfa -32 + ^
STACK CFI be930 .cfa: sp 32 +
STACK CFI be938 .cfa: sp 0 +
STACK CFI INIT bfa1c 70 .cfa: sp 0 +
STACK CFI bfa20 .cfa: sp 32 +
STACK CFI bfa28 .cfa: x29 32 + x19: .cfa -8 + ^ x20: .cfa -16 + ^ .ra: .cfa -24 + ^ x29: .cfa -32 + ^
STACK CFI bfa68 .cfa: sp 32 +
STACK CFI bfa70 .cfa: sp 0 +
STACK CFI bfa74 .cfa: x29 32 +
STACK CFI bfa80 .cfa: sp 32 +
STACK CFI bfa88 .cfa: sp 0 +
STACK CFI INIT bfeb0 8 .cfa: sp 0 +
STACK CFI INIT bfeb8 24 .cfa: sp 0 +
STACK CFI bfebc .cfa: sp 32 +
STACK CFI bfec4 .cfa: x29 32 + x19: .cfa -16 + ^ .ra: .cfa -24 + ^ x29: .cfa -32 + ^
STACK CFI bfed0 .cfa: sp 32 +
STACK CFI bfed8 .cfa: sp 0 +
STACK CFI INIT bfedc 28 .cfa: sp 0 +
STACK CFI bfee0 .cfa: sp 32 +
STACK CFI bfee8 .cfa: x29 32 + x19: .cfa -16 + ^ .ra: .cfa -24 + ^ x29: .cfa -32 + ^
STACK CFI bfef8 .cfa: sp 32 +
STACK CFI bff00 .cfa: sp 0 +
STACK CFI INIT bff04 c .cfa: sp 0 +
STACK CFI INIT bff10 c .cfa: sp 0 +
STACK CFI INIT bff1c 10 .cfa: sp 0 +
STACK CFI INIT bff2c 10 .cfa: sp 0 +
STACK CFI INIT c00e0 44 .cfa: sp 0 +
STACK CFI c00e8 .cfa: sp 32 +
STACK CFI c00f0 .cfa: x29 32 + x19: .cfa -8 + ^ x20: .cfa -16 + ^ .ra: .cfa -24 + ^ x29: .cfa -32 + ^
STACK CFI c0114 .cfa: sp 32 +
STACK CFI c011c .cfa: sp 0 +
STACK CFI INIT c02f8 4 .cfa: sp 0 +
STACK CFI INIT c02fc 34 .cfa: sp 0 +
STACK CFI c0300 .cfa: sp 32 +
STACK CFI c0308 .cfa: x29 32 + x19: .cfa -16 + ^ .ra: .cfa -24 + ^ x29: .cfa -32 + ^
STACK CFI c0324 .cfa: sp 32 +
STACK CFI c032c .cfa: sp 0 +
STACK CFI INIT c0330 14 .cfa: sp 0 +
STACK CFI INIT c0344 4 .cfa: sp 0 +
STACK CFI INIT c0348 4 .cfa: sp 0 +
STACK CFI INIT c0ae4 1c .cfa: sp 0 +
STACK CFI INIT c0b00 c .cfa: sp 0 +
STACK CFI INIT c0b0c 4 .cfa: sp 0 +
STACK CFI INIT c0b10 34 .cfa: sp 0 +
STACK CFI c0b14 .cfa: sp 32 +
STACK CFI c0b1c .cfa: x29 32 + x19: .cfa -16 + ^ .ra: .cfa -24 + ^ x29: .cfa -32 + ^
STACK CFI c0b38 .cfa: sp 32 +
STACK CFI c0b40 .cfa: sp 0 +
STACK CFI INIT c0b44 14 .cfa: sp 0 +
STACK CFI INIT c0b58 4 .cfa: sp 0 +
STACK CFI INIT c0b5c 4 .cfa: sp 0 +
STACK CFI INIT c0b60 34 .cfa: sp 0 +
STACK CFI c0b6c .cfa: sp 32 +
STACK CFI c0b74 .cfa: x29 32 + x19: .cfa -16 + ^ .ra: .cfa -24 + ^ x29: .cfa -32 + ^
STACK CFI c0b84 .cfa: sp 32 +
STACK CFI c0b8c .cfa: sp 0 +
STACK CFI INIT c0b94 1c .cfa: sp 0 +
STACK CFI INIT c0bb0 c .cfa: sp 0 +
STACK CFI INIT c0bbc 4 .cfa: sp 0 +
STACK CFI INIT c0bc0 4 .cfa: sp 0 +
STACK CFI INIT c0bc4 34 .cfa: sp 0 +
STACK CFI c0bc8 .cfa: sp 32 +
STACK CFI c0bd0 .cfa: x29 32 + x19: .cfa -16 + ^ .ra: .cfa -24 + ^ x29: .cfa -32 + ^
STACK CFI c0bec .cfa: sp 32 +
STACK CFI c0bf4 .cfa: sp 0 +
STACK CFI INIT c0bf8 14 .cfa: sp 0 +
STACK CFI INIT c0c0c 4 .cfa: sp 0 +
STACK CFI INIT c0c10 4 .cfa: sp 0 +
STACK CFI INIT c0c14 34 .cfa: sp 0 +
STACK CFI c0c20 .cfa: sp 32 +
STACK CFI c0c28 .cfa: x29 32 + x19: .cfa -16 + ^ .ra: .cfa -24 + ^ x29: .cfa -32 + ^
STACK CFI c0c38 .cfa: sp 32 +
STACK CFI c0c40 .cfa: sp 0 +
STACK CFI INIT c0c48 1c .cfa: sp 0 +
STACK CFI INIT c0c64 c .cfa: sp 0 +
STACK CFI INIT c0c70 24 .cfa: sp 0 +
STACK CFI c0c74 .cfa: sp 16 +
STACK CFI c0c78 .cfa: x29 16 + .ra: .cfa -8 + ^ x29: .cfa -16 + ^
STACK CFI c0c8c .cfa: sp 16 +
STACK CFI c0c90 .cfa: sp 0 +
STACK CFI INIT c0c94 24 .cfa: sp 0 +
STACK CFI c0c98 .cfa: sp 16 +
STACK CFI c0c9c .cfa: x29 16 + .ra: .cfa -8 + ^ x29: .cfa -16 + ^
STACK CFI c0cb0 .cfa: sp 16 +
STACK CFI c0cb4 .cfa: sp 0 +
STACK CFI INIT c0cb8 c .cfa: sp 0 +
STACK CFI INIT c1594 48 .cfa: sp 0 +
STACK CFI c1598 .cfa: sp 32 +
STACK CFI c15a0 .cfa: x29 32 + x19: .cfa -16 + ^ .ra: .cfa -24 + ^ x29: .cfa -32 + ^
STACK CFI c15c4 .cfa: sp 32 +
STACK CFI c15cc .cfa: sp 0 +
STACK CFI c15d0 .cfa: sp 32 +
STACK CFI c15d8 .cfa: sp 0 +
STACK CFI INIT c15dc 10 .cfa: sp 0 +
STACK CFI INIT c15ec 10 .cfa: sp 0 +
STACK CFI INIT c19b4 208 .cfa: sp 0 +
STACK CFI c19b8 .cfa: sp 96 +
STACK CFI c19cc .cfa: x29 48 + x19: .cfa -8 + ^ x20: .cfa -16 + ^ x21: .cfa -24 + ^ x22: .cfa -32 + ^ .ra: .cfa -40 + ^ x29: .cfa -48 + ^ v8: .cfa -56 + ^ v9: .cfa -64 + ^
STACK CFI c1ba0 .cfa: sp 96 +
STACK CFI c1bb4 .cfa: sp 0 +
STACK CFI c1bb8 .cfa: x29 48 +
STACK CFI INIT c1bbc 8 .cfa: sp 0 +
STACK CFI INIT c1bc4 4c .cfa: sp 0 +
STACK CFI c1bd4 .cfa: sp 32 +
STACK CFI c1bdc .cfa: x29 32 + x19: .cfa -16 + ^ .ra: .cfa -24 + ^ x29: .cfa -32 + ^
STACK CFI c1c04 .cfa: sp 32 +
STACK CFI c1c0c .cfa: sp 0 +
STACK CFI INIT c1c10 4c .cfa: sp 0 +
STACK CFI c1c20 .cfa: sp 32 +
STACK CFI c1c28 .cfa: x29 32 + x19: .cfa -16 + ^ .ra: .cfa -24 + ^ x29: .cfa -32 + ^
STACK CFI c1c50 .cfa: sp 32 +
STACK CFI c1c58 .cfa: sp 0 +
STACK CFI INIT c1ff0 8 .cfa: sp 0 +
STACK CFI INIT c1ff8 24 .cfa: sp 0 +
STACK CFI c1ffc .cfa: sp 32 +
STACK CFI c2004 .cfa: x29 32 + x19: .cfa -16 + ^ .ra: .cfa -24 + ^ x29: .cfa -32 + ^
STACK CFI c2010 .cfa: sp 32 +
STACK CFI c2018 .cfa: sp 0 +
STACK CFI INIT c201c 28 .cfa: sp 0 +
STACK CFI c2020 .cfa: sp 32 +
STACK CFI c2028 .cfa: x29 32 + x19: .cfa -16 + ^ .ra: .cfa -24 + ^ x29: .cfa -32 + ^
STACK CFI c2038 .cfa: sp 32 +
STACK CFI c2040 .cfa: sp 0 +
STACK CFI INIT c2044 c .cfa: sp 0 +
STACK CFI INIT c2050 c .cfa: sp 0 +
STACK CFI INIT c205c 10 .cfa: sp 0 +
STACK CFI INIT c206c 10 .cfa: sp 0 +
STACK CFI INIT c207c 3c .cfa: sp 0 +
STACK CFI c2080 .cfa: sp 32 +
STACK CFI c2088 .cfa: x29 32 + x19: .cfa -16 + ^ .ra: .cfa -24 + ^ x29: .cfa -32 + ^
STACK CFI c2094 .cfa: sp 32 +
STACK CFI c209c .cfa: sp 0 +
STACK CFI c20a0 .cfa: x29 32 +
STACK CFI c20ac .cfa: sp 32 +
STACK CFI c20b4 .cfa: sp 0 +
STACK CFI INIT c20b8 4c .cfa: sp 0 +
STACK CFI c20bc .cfa: sp 32 +
STACK CFI c20c4 .cfa: x29 32 + x19: .cfa -8 + ^ x20: .cfa -16 + ^ .ra: .cfa -24 + ^ x29: .cfa -32 + ^
STACK CFI c20ec .cfa: sp 32 +
STACK CFI c20f4 .cfa: sp 0 +
STACK CFI c20f8 .cfa: sp 32 +
STACK CFI c2100 .cfa: sp 0 +
STACK CFI INIT c2324 64 .cfa: sp 0 +
STACK CFI c2328 .cfa: sp 32 +
STACK CFI c2330 .cfa: x29 32 + x19: .cfa -16 + ^ .ra: .cfa -24 + ^ x29: .cfa -32 + ^
STACK CFI c235c .cfa: sp 32 +
STACK CFI c2364 .cfa: sp 0 +
STACK CFI c2368 .cfa: x29 32 +
STACK CFI c237c .cfa: sp 32 +
STACK CFI c2384 .cfa: sp 0 +
STACK CFI INIT c2388 24 .cfa: sp 0 +
STACK CFI c238c .cfa: sp 32 +
STACK CFI c2394 .cfa: x29 32 + x19: .cfa -16 + ^ .ra: .cfa -24 + ^ x29: .cfa -32 + ^
STACK CFI c23a0 .cfa: sp 32 +
STACK CFI c23a8 .cfa: sp 0 +
STACK CFI INIT c23ac 24 .cfa: sp 0 +
STACK CFI c23b0 .cfa: sp 32 +
STACK CFI c23b8 .cfa: x29 32 + x19: .cfa -16 + ^ .ra: .cfa -24 + ^ x29: .cfa -32 + ^
STACK CFI c23c4 .cfa: sp 32 +
STACK CFI c23cc .cfa: sp 0 +
STACK CFI INIT c2640 8 .cfa: sp 0 +
STACK CFI INIT c2648 24 .cfa: sp 0 +
STACK CFI c264c .cfa: sp 32 +
STACK CFI c2654 .cfa: x29 32 + x19: .cfa -16 + ^ .ra: .cfa -24 + ^ x29: .cfa -32 + ^
STACK CFI c2660 .cfa: sp 32 +
STACK CFI c2668 .cfa: sp 0 +
STACK CFI INIT c266c 28 .cfa: sp 0 +
STACK CFI c2670 .cfa: sp 32 +
STACK CFI c2678 .cfa: x29 32 + x19: .cfa -16 + ^ .ra: .cfa -24 + ^ x29: .cfa -32 + ^
STACK CFI c2688 .cfa: sp 32 +
STACK CFI c2690 .cfa: sp 0 +
STACK CFI INIT c296c 8 .cfa: sp 0 +
STACK CFI INIT c2974 24 .cfa: sp 0 +
STACK CFI c2978 .cfa: sp 32 +
STACK CFI c2980 .cfa: x29 32 + x19: .cfa -16 + ^ .ra: .cfa -24 + ^ x29: .cfa -32 + ^
STACK CFI c298c .cfa: sp 32 +
STACK CFI c2994 .cfa: sp 0 +
STACK CFI INIT c2998 28 .cfa: sp 0 +
STACK CFI c299c .cfa: sp 32 +
STACK CFI c29a4 .cfa: x29 32 + x19: .cfa -16 + ^ .ra: .cfa -24 + ^ x29: .cfa -32 + ^
STACK CFI c29b4 .cfa: sp 32 +
STACK CFI c29bc .cfa: sp 0 +
STACK CFI INIT c2c10 8 .cfa: sp 0 +
STACK CFI INIT c2c18 24 .cfa: sp 0 +
STACK CFI c2c1c .cfa: sp 32 +
STACK CFI c2c24 .cfa: x29 32 + x19: .cfa -16 + ^ .ra: .cfa -24 + ^ x29: .cfa -32 + ^
STACK CFI c2c30 .cfa: sp 32 +
STACK CFI c2c38 .cfa: sp 0 +
STACK CFI INIT c2c3c 28 .cfa: sp 0 +
STACK CFI c2c40 .cfa: sp 32 +
STACK CFI c2c48 .cfa: x29 32 + x19: .cfa -16 + ^ .ra: .cfa -24 + ^ x29: .cfa -32 + ^
STACK CFI c2c58 .cfa: sp 32 +
STACK CFI c2c60 .cfa: sp 0 +
STACK CFI INIT c2f4c 8 .cfa: sp 0 +
STACK CFI INIT c2f54 24 .cfa: sp 0 +
STACK CFI c2f58 .cfa: sp 32 +
STACK CFI c2f60 .cfa: x29 32 + x19: .cfa -16 + ^ .ra: .cfa -24 + ^ x29: .cfa -32 + ^
STACK CFI c2f6c .cfa: sp 32 +
STACK CFI c2f74 .cfa: sp 0 +
STACK CFI INIT c2f78 28 .cfa: sp 0 +
STACK CFI c2f7c .cfa: sp 32 +
STACK CFI c2f84 .cfa: x29 32 + x19: .cfa -16 + ^ .ra: .cfa -24 + ^ x29: .cfa -32 + ^
STACK CFI c2f94 .cfa: sp 32 +
STACK CFI c2f9c .cfa: sp 0 +
STACK CFI INIT c36e8 4 .cfa: sp 0 +
STACK CFI INIT c46b0 8 .cfa: sp 0 +
STACK CFI INIT c46b8 24 .cfa: sp 0 +
STACK CFI c46bc .cfa: sp 32 +
STACK CFI c46c4 .cfa: x29 32 + x19: .cfa -16 + ^ .ra: .cfa -24 + ^ x29: .cfa -32 + ^
STACK CFI c46d0 .cfa: sp 32 +
STACK CFI c46d8 .cfa: sp 0 +
STACK CFI INIT c46dc 28 .cfa: sp 0 +
STACK CFI c46e0 .cfa: sp 32 +
STACK CFI c46e8 .cfa: x29 32 + x19: .cfa -16 + ^ .ra: .cfa -24 + ^ x29: .cfa -32 + ^
STACK CFI c46f8 .cfa: sp 32 +
STACK CFI c4700 .cfa: sp 0 +
STACK CFI INIT c4d1c 8 .cfa: sp 0 +
STACK CFI INIT c544c 8 .cfa: sp 0 +
STACK CFI INIT c5884 8 .cfa: sp 0 +
STACK CFI INIT c5ae0 4 .cfa: sp 0 +
STACK CFI INIT c5ae4 8 .cfa: sp 0 +
STACK CFI INIT c5aec 8 .cfa: sp 0 +
STACK CFI INIT c5af4 4 .cfa: sp 0 +
STACK CFI INIT c71b4 8 .cfa: sp 0 +
STACK CFI INIT c71bc 24 .cfa: sp 0 +
STACK CFI c71c0 .cfa: sp 32 +
STACK CFI c71c8 .cfa: x29 32 + x19: .cfa -16 + ^ .ra: .cfa -24 + ^ x29: .cfa -32 + ^
STACK CFI c71d4 .cfa: sp 32 +
STACK CFI c71dc .cfa: sp 0 +
STACK CFI INIT c71e0 28 .cfa: sp 0 +
STACK CFI c71e4 .cfa: sp 32 +
STACK CFI c71ec .cfa: x29 32 + x19: .cfa -16 + ^ .ra: .cfa -24 + ^ x29: .cfa -32 + ^
STACK CFI c71fc .cfa: sp 32 +
STACK CFI c7204 .cfa: sp 0 +
STACK CFI INIT c79f4 4 .cfa: sp 0 +
STACK CFI INIT c8ad0 4 .cfa: sp 0 +
STACK CFI INIT c8ad4 14 .cfa: sp 0 +
STACK CFI INIT c8fc8 c .cfa: sp 0 +
STACK CFI INIT c8fd4 24c .cfa: sp 0 +
STACK CFI INIT c9220 a0 .cfa: sp 0 +
STACK CFI c922c .cfa: sp 32 +
STACK CFI c9284 .cfa: sp 0 +
STACK CFI c9288 .cfa: sp 32 +
STACK CFI c9290 .cfa: sp 0 +
STACK CFI c9294 .cfa: sp 32 +
STACK CFI c92a8 .cfa: sp 0 +
STACK CFI c92ac .cfa: sp 32 +
STACK CFI c92bc .cfa: sp 0 +
STACK CFI INIT c92c0 38 .cfa: sp 0 +
STACK CFI c92cc .cfa: sp 32 +
STACK CFI c92f4 .cfa: sp 0 +
STACK CFI INIT c9610 7c .cfa: sp 0 +
STACK CFI c9614 .cfa: sp 32 +
STACK CFI c961c .cfa: x29 32 + x19: .cfa -16 + ^ .ra: .cfa -24 + ^ x29: .cfa -32 + ^
STACK CFI c9648 .cfa: sp 32 +
STACK CFI c9650 .cfa: sp 0 +
STACK CFI c9654 .cfa: x29 32 +
STACK CFI c9680 .cfa: sp 32 +
STACK CFI c9688 .cfa: sp 0 +
STACK CFI INIT c96dc 2c .cfa: sp 0 +
STACK CFI c96e0 .cfa: sp 32 +
STACK CFI c96e8 .cfa: x29 32 + x19: .cfa -16 + ^ .ra: .cfa -24 + ^ x29: .cfa -32 + ^
STACK CFI c96fc .cfa: sp 32 +
STACK CFI c9704 .cfa: sp 0 +
STACK CFI INIT c9ec8 64 .cfa: sp 0 +
STACK CFI c9ecc .cfa: sp 32 +
STACK CFI c9ed4 .cfa: x29 32 + x19: .cfa -16 + ^ .ra: .cfa -24 + ^ x29: .cfa -32 + ^
STACK CFI c9ef0 .cfa: sp 32 +
STACK CFI c9ef8 .cfa: sp 0 +
STACK CFI c9efc .cfa: x29 32 +
STACK CFI c9f20 .cfa: sp 32 +
STACK CFI c9f28 .cfa: sp 0 +
STACK CFI INIT ca068 570 .cfa: sp 0 +
STACK CFI ca06c .cfa: sp 176 +
STACK CFI ca080 .cfa: x29 64 + x19: .cfa -8 + ^ x20: .cfa -16 + ^ x21: .cfa -24 + ^ x22: .cfa -32 + ^ x23: .cfa -40 + ^ x24: .cfa -48 + ^ .ra: .cfa -56 + ^ x29: .cfa -64 + ^
STACK CFI ca2b0 .cfa: sp 176 +
STACK CFI ca2c4 .cfa: sp 0 +
STACK CFI ca2c8 .cfa: x29 64 +
STACK CFI ca314 .cfa: sp 176 +
STACK CFI ca328 .cfa: sp 0 +
STACK CFI ca32c .cfa: x29 64 +
STACK CFI ca364 .cfa: sp 176 +
STACK CFI ca378 .cfa: sp 0 +
STACK CFI ca37c .cfa: x29 64 +
STACK CFI ca394 .cfa: sp 176 +
STACK CFI ca3a8 .cfa: sp 0 +
STACK CFI ca3ac .cfa: x29 64 +
STACK CFI ca3cc .cfa: sp 176 +
STACK CFI ca3e0 .cfa: sp 0 +
STACK CFI ca3e4 .cfa: x29 64 +
STACK CFI ca3fc .cfa: sp 176 +
STACK CFI ca410 .cfa: sp 0 +
STACK CFI ca414 .cfa: x29 64 +
STACK CFI ca428 .cfa: sp 176 +
STACK CFI ca43c .cfa: sp 0 +
STACK CFI ca440 .cfa: x29 64 +
STACK CFI ca454 .cfa: sp 176 +
STACK CFI ca468 .cfa: sp 0 +
STACK CFI ca46c .cfa: x29 64 +
STACK CFI ca47c .cfa: sp 176 +
STACK CFI ca490 .cfa: sp 0 +
STACK CFI ca494 .cfa: x29 64 +
STACK CFI ca4a4 .cfa: sp 176 +
STACK CFI ca4b8 .cfa: sp 0 +
STACK CFI ca4bc .cfa: x29 64 +
STACK CFI ca4d4 .cfa: sp 176 +
STACK CFI ca4e8 .cfa: sp 0 +
STACK CFI ca4ec .cfa: x29 64 +
STACK CFI ca500 .cfa: sp 176 +
STACK CFI ca514 .cfa: sp 0 +
STACK CFI ca518 .cfa: x29 64 +
STACK CFI ca530 .cfa: sp 176 +
STACK CFI ca544 .cfa: sp 0 +
STACK CFI ca548 .cfa: x29 64 +
STACK CFI ca574 .cfa: sp 176 +
STACK CFI ca588 .cfa: sp 0 +
STACK CFI ca58c .cfa: x29 64 +
STACK CFI ca5a0 .cfa: sp 176 +
STACK CFI ca5b4 .cfa: sp 0 +
STACK CFI ca5b8 .cfa: x29 64 +
STACK CFI INIT ca5d8 228 .cfa: sp 0 +
STACK CFI INIT ca800 2dc .cfa: sp 0 +
STACK CFI INIT caadc 53c .cfa: sp 0 +
STACK CFI INIT cb018 78 .cfa: sp 0 +
STACK CFI cb01c .cfa: sp 48 +
STACK CFI cb028 .cfa: x29 48 + x19: .cfa -8 + ^ x20: .cfa -16 + ^ x21: .cfa -24 + ^ x22: .cfa -32 + ^ .ra: .cfa -40 + ^ x29: .cfa -48 + ^
STACK CFI cb070 .cfa: sp 48 +
STACK CFI cb07c .cfa: sp 0 +
STACK CFI cb080 .cfa: sp 48 +
STACK CFI cb08c .cfa: sp 0 +
STACK CFI INIT cb090 8c .cfa: sp 0 +
STACK CFI cb094 .cfa: sp 32 +
STACK CFI cb09c .cfa: x29 32 + x19: .cfa -16 + ^ .ra: .cfa -24 + ^ x29: .cfa -32 + ^
STACK CFI cb0d0 .cfa: sp 32 +
STACK CFI cb0d8 .cfa: sp 0 +
STACK CFI cb0dc .cfa: x29 32 +
STACK CFI cb110 .cfa: sp 32 +
STACK CFI cb118 .cfa: sp 0 +
STACK CFI INIT cb11c 24 .cfa: sp 0 +
STACK CFI cb120 .cfa: sp 32 +
STACK CFI cb128 .cfa: x29 32 + x19: .cfa -16 + ^ .ra: .cfa -24 + ^ x29: .cfa -32 + ^
STACK CFI cb134 .cfa: sp 32 +
STACK CFI cb13c .cfa: sp 0 +
STACK CFI INIT cb140 150 .cfa: sp 0 +
STACK CFI cb144 .cfa: sp 48 +
STACK CFI cb150 .cfa: x29 48 + x19: .cfa -8 + ^ x20: .cfa -16 + ^ x21: .cfa -24 + ^ x22: .cfa -32 + ^ .ra: .cfa -40 + ^ x29: .cfa -48 + ^
STACK CFI cb280 .cfa: sp 48 +
STACK CFI cb28c .cfa: sp 0 +
STACK CFI INIT cb290 68 .cfa: sp 0 +
STACK CFI cb294 .cfa: sp 64 +
STACK CFI cb2a0 .cfa: x29 32 + x19: .cfa -16 + ^ .ra: .cfa -24 + ^ x29: .cfa -32 + ^
STACK CFI cb2e4 .cfa: sp 64 +
STACK CFI cb2f0 .cfa: sp 0 +
STACK CFI cb2f4 .cfa: x29 32 +
STACK CFI INIT cb2f8 90 .cfa: sp 0 +
STACK CFI cb2fc .cfa: sp 32 +
STACK CFI cb304 .cfa: x29 32 + x19: .cfa -8 + ^ x20: .cfa -16 + ^ .ra: .cfa -24 + ^ x29: .cfa -32 + ^
STACK CFI cb330 .cfa: sp 32 +
STACK CFI cb338 .cfa: sp 0 +
STACK CFI cb33c .cfa: x29 32 +
STACK CFI cb37c .cfa: sp 32 +
STACK CFI cb384 .cfa: sp 0 +
STACK CFI INIT cb388 ec .cfa: sp 0 +
STACK CFI cb38c .cfa: sp 112 +
STACK CFI cb39c .cfa: x29 48 + x19: .cfa -8 + ^ x20: .cfa -16 + ^ x21: .cfa -32 + ^ .ra: .cfa -40 + ^ x29: .cfa -48 + ^
STACK CFI cb45c .cfa: sp 112 +
STACK CFI cb46c .cfa: sp 0 +
STACK CFI cb470 .cfa: x29 48 +
STACK CFI INIT cb474 ec .cfa: sp 0 +
STACK CFI cb478 .cfa: sp 112 +
STACK CFI cb488 .cfa: x29 48 + x19: .cfa -8 + ^ x20: .cfa -16 + ^ x21: .cfa -32 + ^ .ra: .cfa -40 + ^ x29: .cfa -48 + ^
STACK CFI cb548 .cfa: sp 112 +
STACK CFI cb558 .cfa: sp 0 +
STACK CFI cb55c .cfa: x29 48 +
STACK CFI INIT cb560 48 .cfa: sp 0 +
STACK CFI cb564 .cfa: sp 32 +
STACK CFI cb56c .cfa: x29 32 + x19: .cfa -8 + ^ x20: .cfa -16 + ^ .ra: .cfa -24 + ^ x29: .cfa -32 + ^
STACK CFI cb590 .cfa: sp 32 +
STACK CFI cb598 .cfa: sp 0 +
STACK CFI cb59c .cfa: x29 32 +
STACK CFI INIT cb5a8 98 .cfa: sp 0 +
STACK CFI cb5ac .cfa: sp 80 +
STACK CFI cb5b8 .cfa: x29 32 + x19: .cfa -16 + ^ .ra: .cfa -24 + ^ x29: .cfa -32 + ^
STACK CFI cb62c .cfa: sp 80 +
STACK CFI cb638 .cfa: sp 0 +
STACK CFI cb63c .cfa: x29 32 +
STACK CFI INIT cb640 25c .cfa: sp 0 +
STACK CFI cb644 .cfa: sp 112 +
STACK CFI cb65c .cfa: x29 80 + x19: .cfa -8 + ^ x20: .cfa -16 + ^ x21: .cfa -24 + ^ x22: .cfa -32 + ^ x23: .cfa -40 + ^ x24: .cfa -48 + ^ x25: .cfa -64 + ^ .ra: .cfa -72 + ^ x29: .cfa -80 + ^
STACK CFI cb83c .cfa: sp 112 +
STACK CFI cb854 .cfa: sp 0 +
STACK CFI cb858 .cfa: x29 80 +
STACK CFI INIT cb89c 1dc .cfa: sp 0 +
STACK CFI cb8a0 .cfa: sp 96 +
STACK CFI cb8b4 .cfa: x29 64 + x19: .cfa -8 + ^ x20: .cfa -16 + ^ x21: .cfa -24 + ^ x22: .cfa -32 + ^ x23: .cfa -40 + ^ x24: .cfa -48 + ^ .ra: .cfa -56 + ^ x29: .cfa -64 + ^
STACK CFI cba30 .cfa: sp 96 +
STACK CFI cba44 .cfa: sp 0 +
STACK CFI cba48 .cfa: x29 64 +
STACK CFI INIT cba78 280 .cfa: sp 0 +
STACK CFI cba7c .cfa: sp 112 +
STACK CFI cba94 .cfa: x29 80 + x19: .cfa -8 + ^ x20: .cfa -16 + ^ x21: .cfa -24 + ^ x22: .cfa -32 + ^ x23: .cfa -40 + ^ x24: .cfa -48 + ^ x25: .cfa -64 + ^ .ra: .cfa -72 + ^ x29: .cfa -80 + ^
STACK CFI cbc98 .cfa: sp 112 +
STACK CFI cbcb0 .cfa: sp 0 +
STACK CFI cbcb4 .cfa: x29 80 +
STACK CFI INIT cbcf8 204 .cfa: sp 0 +
STACK CFI cbcfc .cfa: sp 96 +
STACK CFI cbd10 .cfa: x29 64 + x19: .cfa -8 + ^ x20: .cfa -16 + ^ x21: .cfa -24 + ^ x22: .cfa -32 + ^ x23: .cfa -40 + ^ x24: .cfa -48 + ^ .ra: .cfa -56 + ^ x29: .cfa -64 + ^
STACK CFI cbeb4 .cfa: sp 96 +
STACK CFI cbec8 .cfa: sp 0 +
STACK CFI cbecc .cfa: x29 64 +
STACK CFI INIT cbefc 35c .cfa: sp 0 +
STACK CFI cbf00 .cfa: sp 160 +
STACK CFI cbf1c .cfa: x29 96 + x19: .cfa -8 + ^ x20: .cfa -16 + ^ x21: .cfa -24 + ^ x22: .cfa -32 + ^ x23: .cfa -40 + ^ x24: .cfa -48 + ^ x25: .cfa -56 + ^ x26: .cfa -64 + ^ x27: .cfa -72 + ^ x28: .cfa -80 + ^ .ra: .cfa -88 + ^ x29: .cfa -96 + ^
STACK CFI cc1e4 .cfa: sp 160 +
STACK CFI cc200 .cfa: sp 0 +
STACK CFI cc204 .cfa: x29 96 +
STACK CFI INIT cc258 310 .cfa: sp 0 +
STACK CFI cc25c .cfa: sp 144 +
STACK CFI cc278 .cfa: x29 96 + x19: .cfa -8 + ^ x20: .cfa -16 + ^ x21: .cfa -24 + ^ x22: .cfa -32 + ^ x23: .cfa -40 + ^ x24: .cfa -48 + ^ x25: .cfa -56 + ^ x26: .cfa -64 + ^ x27: .cfa -72 + ^ x28: .cfa -80 + ^ .ra: .cfa -88 + ^ x29: .cfa -96 + ^
STACK CFI cc4f0 .cfa: sp 144 +
STACK CFI cc50c .cfa: sp 0 +
STACK CFI cc510 .cfa: x29 96 +
STACK CFI INIT cc568 2b8 .cfa: sp 0 +
STACK CFI cc56c .cfa: sp 128 +
STACK CFI cc584 .cfa: x29 80 + x19: .cfa -8 + ^ x20: .cfa -16 + ^ x21: .cfa -24 + ^ x22: .cfa -32 + ^ x23: .cfa -40 + ^ x24: .cfa -48 + ^ x25: .cfa -56 + ^ x26: .cfa -64 + ^ .ra: .cfa -72 + ^ x29: .cfa -80 + ^
STACK CFI cc778 .cfa: sp 128 +
STACK CFI cc790 .cfa: sp 0 +
STACK CFI cc794 .cfa: x29 80 +
STACK CFI cc800 .cfa: sp 128 +
STACK CFI cc818 .cfa: sp 0 +
STACK CFI cc81c .cfa: x29 80 +
STACK CFI INIT cc820 258 .cfa: sp 0 +
STACK CFI cc824 .cfa: sp 96 +
STACK CFI cc83c .cfa: x29 96 + x19: .cfa -8 + ^ x20: .cfa -16 + ^ x21: .cfa -24 + ^ x22: .cfa -32 + ^ x23: .cfa -40 + ^ x24: .cfa -48 + ^ x25: .cfa -56 + ^ x26: .cfa -64 + ^ x27: .cfa -72 + ^ x28: .cfa -80 + ^ .ra: .cfa -88 + ^ x29: .cfa -96 + ^
STACK CFI cca34 .cfa: sp 96 +
STACK CFI cca4c .cfa: sp 0 +
STACK CFI cca50 .cfa: x29 96 +
STACK CFI cca5c .cfa: sp 96 +
STACK CFI cca74 .cfa: sp 0 +
STACK CFI INIT cd718 158 .cfa: sp 0 +
STACK CFI cd71c .cfa: sp 96 +
STACK CFI cd730 .cfa: x29 64 + x19: .cfa -8 + ^ x20: .cfa -16 + ^ x21: .cfa -24 + ^ x22: .cfa -32 + ^ x23: .cfa -48 + ^ .ra: .cfa -56 + ^ x29: .cfa -64 + ^
STACK CFI cd814 .cfa: sp 96 +
STACK CFI cd828 .cfa: sp 0 +
STACK CFI cd82c .cfa: x29 64 +
STACK CFI INIT cdadc 44 .cfa: sp 0 +
STACK CFI cdae0 .cfa: sp 32 +
STACK CFI cdae8 .cfa: x29 32 + x19: .cfa -16 + ^ .ra: .cfa -24 + ^ x29: .cfa -32 + ^
STACK CFI cdb04 .cfa: sp 32 +
STACK CFI cdb0c .cfa: sp 0 +
STACK CFI cdb10 .cfa: x29 32 +
STACK CFI cdb14 .cfa: sp 32 +
STACK CFI cdb1c .cfa: sp 0 +
STACK CFI INIT cdb20 1d0 .cfa: sp 0 +
STACK CFI cdb24 .cfa: sp 64 +
STACK CFI cdb34 .cfa: x29 64 + x19: .cfa -8 + ^ x20: .cfa -16 + ^ x21: .cfa -24 + ^ x22: .cfa -32 + ^ x23: .cfa -40 + ^ x24: .cfa -48 + ^ .ra: .cfa -56 + ^ x29: .cfa -64 + ^
STACK CFI cdbf4 .cfa: sp 64 +
STACK CFI cdc04 .cfa: sp 0 +
STACK CFI cdc08 .cfa: x29 64 +
STACK CFI INIT cdcf0 17c .cfa: sp 0 +
STACK CFI INIT ce224 a0 .cfa: sp 0 +
STACK CFI ce228 .cfa: sp 48 +
STACK CFI ce234 .cfa: x29 48 + x19: .cfa -8 + ^ x20: .cfa -16 + ^ x21: .cfa -24 + ^ x22: .cfa -32 + ^ .ra: .cfa -40 + ^ x29: .cfa -48 + ^
STACK CFI ce2a0 .cfa: sp 48 +
STACK CFI ce2ac .cfa: sp 0 +
STACK CFI ce2b0 .cfa: sp 48 +
STACK CFI ce2bc .cfa: sp 0 +
STACK CFI ce2c0 .cfa: x29 48 +
STACK CFI INIT cef90 15c .cfa: sp 0 +
STACK CFI cef94 .cfa: sp 96 +
STACK CFI cefa8 .cfa: x29 64 + x19: .cfa -8 + ^ x20: .cfa -16 + ^ x21: .cfa -24 + ^ x22: .cfa -32 + ^ x23: .cfa -48 + ^ .ra: .cfa -56 + ^ x29: .cfa -64 + ^
STACK CFI cf090 .cfa: sp 96 +
STACK CFI cf0a4 .cfa: sp 0 +
STACK CFI cf0a8 .cfa: x29 64 +
STACK CFI INIT cf0ec 190 .cfa: sp 0 +
STACK CFI INIT cfd74 1f4 .cfa: sp 0 +
STACK CFI cfd78 .cfa: sp 80 +
STACK CFI cfd8c .cfa: x29 80 + x19: .cfa -8 + ^ x20: .cfa -16 + ^ x21: .cfa -24 + ^ x22: .cfa -32 + ^ x23: .cfa -40 + ^ x24: .cfa -48 + ^ x25: .cfa -64 + ^ .ra: .cfa -72 + ^ x29: .cfa -80 + ^
STACK CFI cff2c .cfa: sp 80 +
STACK CFI cff40 .cfa: sp 0 +
STACK CFI cff44 .cfa: x29 80 +
STACK CFI cff50 .cfa: sp 80 +
STACK CFI cff64 .cfa: sp 0 +
STACK CFI INIT d1398 124 .cfa: sp 0 +
STACK CFI d13c8 .cfa: sp 32 +
STACK CFI d13d0 .cfa: x29 32 + x19: .cfa -8 + ^ x20: .cfa -16 + ^ .ra: .cfa -24 + ^ x29: .cfa -32 + ^
STACK CFI d14b0 .cfa: sp 32 +
STACK CFI d14b8 .cfa: sp 0 +
STACK CFI INIT d1c18 320 .cfa: sp 0 +
STACK CFI d1c1c .cfa: sp 64 +
STACK CFI d1c2c .cfa: x29 64 + x19: .cfa -8 + ^ x20: .cfa -16 + ^ x21: .cfa -24 + ^ x22: .cfa -32 + ^ x23: .cfa -40 + ^ x24: .cfa -48 + ^ .ra: .cfa -56 + ^ x29: .cfa -64 + ^
STACK CFI d1ca8 .cfa: sp 64 +
STACK CFI d1cb8 .cfa: sp 0 +
STACK CFI d1cbc .cfa: x29 64 +
STACK CFI d1e90 .cfa: sp 64 +
STACK CFI d1ea0 .cfa: sp 0 +
STACK CFI d1ea4 .cfa: x29 64 +
STACK CFI d1eb4 .cfa: sp 64 +
STACK CFI d1ec4 .cfa: sp 0 +
STACK CFI d1ec8 .cfa: x29 64 +
STACK CFI INIT d1f38 a0 .cfa: sp 0 +
STACK CFI d1f3c .cfa: sp 48 +
STACK CFI d1f48 .cfa: x29 48 + x19: .cfa -8 + ^ x20: .cfa -16 + ^ x21: .cfa -24 + ^ x22: .cfa -32 + ^ .ra: .cfa -40 + ^ x29: .cfa -48 + ^
STACK CFI d1fb4 .cfa: sp 48 +
STACK CFI d1fc0 .cfa: sp 0 +
STACK CFI d1fc4 .cfa: sp 48 +
STACK CFI d1fd0 .cfa: sp 0 +
STACK CFI d1fd4 .cfa: x29 48 +
STACK CFI INIT d2ebc 160 .cfa: sp 0 +
STACK CFI d2ec0 .cfa: sp 64 +
STACK CFI d2ed0 .cfa: x29 64 + x19: .cfa -8 + ^ x20: .cfa -16 + ^ x21: .cfa -24 + ^ x22: .cfa -32 + ^ x23: .cfa -48 + ^ .ra: .cfa -56 + ^ x29: .cfa -64 + ^
STACK CFI d2fc8 .cfa: sp 64 +
STACK CFI d2fd8 .cfa: sp 0 +
STACK CFI d2fdc .cfa: x29 64 +
STACK CFI INIT d301c 218 .cfa: sp 0 +
STACK CFI d3020 .cfa: sp 128 +
STACK CFI d303c .cfa: x29 96 + x19: .cfa -8 + ^ x20: .cfa -16 + ^ x21: .cfa -24 + ^ x22: .cfa -32 + ^ x23: .cfa -40 + ^ x24: .cfa -48 + ^ x25: .cfa -56 + ^ x26: .cfa -64 + ^ x27: .cfa -80 + ^ .ra: .cfa -88 + ^ x29: .cfa -96 + ^
STACK CFI d31b8 .cfa: sp 128 +
STACK CFI d31d4 .cfa: sp 0 +
STACK CFI d31d8 .cfa: x29 96 +
STACK CFI INIT d46f4 e7c .cfa: sp 0 +
STACK CFI d46f8 .cfa: sp 192 +
STACK CFI d4714 .cfa: x29 96 + x19: .cfa -8 + ^ x20: .cfa -16 + ^ x21: .cfa -24 + ^ x22: .cfa -32 + ^ x23: .cfa -40 + ^ x24: .cfa -48 + ^ x25: .cfa -56 + ^ x26: .cfa -64 + ^ x27: .cfa -72 + ^ x28: .cfa -80 + ^ .ra: .cfa -88 + ^ x29: .cfa -96 + ^
STACK CFI d5458 .cfa: sp 192 +
STACK CFI d5474 .cfa: sp 0 +
STACK CFI d5478 .cfa: x29 96 +
STACK CFI INIT d5570 1050 .cfa: sp 0 +
STACK CFI d5574 .cfa: sp 288 +
STACK CFI d5590 .cfa: x29 96 + x19: .cfa -8 + ^ x20: .cfa -16 + ^ x21: .cfa -24 + ^ x22: .cfa -32 + ^ x23: .cfa -40 + ^ x24: .cfa -48 + ^ x25: .cfa -56 + ^ x26: .cfa -64 + ^ x27: .cfa -72 + ^ x28: .cfa -80 + ^ .ra: .cfa -88 + ^ x29: .cfa -96 + ^
STACK CFI d659c .cfa: sp 288 +
STACK CFI d65b8 .cfa: sp 0 +
STACK CFI d65bc .cfa: x29 96 +
STACK CFI INIT d65c0 520 .cfa: sp 0 +
STACK CFI d65c4 .cfa: sp 144 +
STACK CFI d65e0 .cfa: x29 96 + x19: .cfa -8 + ^ x20: .cfa -16 + ^ x21: .cfa -24 + ^ x22: .cfa -32 + ^ x23: .cfa -40 + ^ x24: .cfa -48 + ^ x25: .cfa -56 + ^ x26: .cfa -64 + ^ x27: .cfa -72 + ^ x28: .cfa -80 + ^ .ra: .cfa -88 + ^ x29: .cfa -96 + ^
STACK CFI d6abc .cfa: sp 144 +
STACK CFI d6ad8 .cfa: sp 0 +
STACK CFI d6adc .cfa: x29 96 +
STACK CFI INIT 4f5e0 5d8 .cfa: sp 0 +
STACK CFI 4f5e4 .cfa: sp 224 +
STACK CFI 4f600 .cfa: x29 96 + x19: .cfa -8 + ^ x20: .cfa -16 + ^ x21: .cfa -24 + ^ x22: .cfa -32 + ^ x23: .cfa -40 + ^ x24: .cfa -48 + ^ x25: .cfa -56 + ^ x26: .cfa -64 + ^ x27: .cfa -72 + ^ x28: .cfa -80 + ^ .ra: .cfa -88 + ^ x29: .cfa -96 + ^
STACK CFI 4fa78 .cfa: sp 224 +
STACK CFI 4fa94 .cfa: sp 0 +
STACK CFI 4fa98 .cfa: x29 96 +
STACK CFI INIT 4fbd4 314 .cfa: sp 0 +
STACK CFI 4fbd8 .cfa: sp 192 +
STACK CFI 4fbec .cfa: x29 64 + x19: .cfa -8 + ^ x20: .cfa -16 + ^ x21: .cfa -24 + ^ x22: .cfa -32 + ^ x23: .cfa -48 + ^ .ra: .cfa -56 + ^ x29: .cfa -64 + ^
STACK CFI 4fde0 .cfa: sp 192 +
STACK CFI 4fdf4 .cfa: sp 0 +
STACK CFI 4fdf8 .cfa: x29 64 +
STACK CFI INIT 4ff38 74 .cfa: sp 0 +
STACK CFI 4ff3c .cfa: sp 48 +
STACK CFI 4ff48 .cfa: x29 32 + x19: .cfa -8 + ^ x20: .cfa -16 + ^ .ra: .cfa -24 + ^ x29: .cfa -32 + ^
STACK CFI 4ff94 .cfa: sp 48 +
STACK CFI 4ffa0 .cfa: sp 0 +
STACK CFI 4ffa4 .cfa: x29 32 +
STACK CFI INIT 50050 50 .cfa: sp 0 +
STACK CFI 50054 .cfa: sp 32 +
STACK CFI 5005c .cfa: x29 32 + x19: .cfa -8 + ^ x20: .cfa -16 + ^ .ra: .cfa -24 + ^ x29: .cfa -32 + ^
STACK CFI INIT 50224 1f4 .cfa: sp 0 +
STACK CFI 50228 .cfa: sp 128 +
STACK CFI 50244 .cfa: x29 96 + x19: .cfa -8 + ^ x20: .cfa -16 + ^ x21: .cfa -24 + ^ x22: .cfa -32 + ^ x23: .cfa -40 + ^ x24: .cfa -48 + ^ x25: .cfa -56 + ^ x26: .cfa -64 + ^ x27: .cfa -72 + ^ x28: .cfa -80 + ^ .ra: .cfa -88 + ^ x29: .cfa -96 + ^
STACK CFI 503d0 .cfa: sp 128 +
STACK CFI 503ec .cfa: sp 0 +
STACK CFI 503f0 .cfa: x29 96 +
STACK CFI INIT 506c4 154 .cfa: sp 0 +
STACK CFI 506c8 .cfa: sp 384 +
STACK CFI 506dc .cfa: x29 64 + x19: .cfa -8 + ^ x20: .cfa -16 + ^ x21: .cfa -24 + ^ x22: .cfa -32 + ^ x23: .cfa -40 + ^ x28: .cfa -48 + ^ .ra: .cfa -56 + ^ x29: .cfa -64 + ^
STACK CFI 507c0 .cfa: sp 384 +
STACK CFI 507d4 .cfa: sp 0 +
STACK CFI 507d8 .cfa: x29 64 +
STACK CFI INIT 5084c 12c .cfa: sp 0 +
STACK CFI 50850 .cfa: sp 80 +
STACK CFI 50864 .cfa: x29 80 + x19: .cfa -8 + ^ x20: .cfa -16 + ^ x21: .cfa -24 + ^ x22: .cfa -32 + ^ x23: .cfa -40 + ^ x24: .cfa -48 + ^ x25: .cfa -56 + ^ x26: .cfa -64 + ^ .ra: .cfa -72 + ^ x29: .cfa -80 + ^
STACK CFI 5092c .cfa: sp 80 +
STACK CFI 50940 .cfa: sp 0 +
STACK CFI 50944 .cfa: x29 80 +
STACK CFI INIT 50a1c 1a4 .cfa: sp 0 +
STACK CFI 50a20 .cfa: sp 112 +
STACK CFI 50a38 .cfa: x29 80 + x19: .cfa -8 + ^ x20: .cfa -16 + ^ x21: .cfa -24 + ^ x22: .cfa -32 + ^ x23: .cfa -40 + ^ x24: .cfa -48 + ^ x25: .cfa -56 + ^ x26: .cfa -64 + ^ .ra: .cfa -72 + ^ x29: .cfa -80 + ^
STACK CFI 50b28 .cfa: sp 112 +
STACK CFI 50b40 .cfa: sp 0 +
STACK CFI 50b44 .cfa: x29 80 +
STACK CFI INIT 50bc0 1dc .cfa: sp 0 +
STACK CFI 50bc4 .cfa: sp 128 +
STACK CFI 50be0 .cfa: x29 96 + x19: .cfa -8 + ^ x20: .cfa -16 + ^ x21: .cfa -24 + ^ x22: .cfa -32 + ^ x23: .cfa -40 + ^ x24: .cfa -48 + ^ x25: .cfa -56 + ^ x26: .cfa -64 + ^ x27: .cfa -80 + ^ .ra: .cfa -88 + ^ x29: .cfa -96 + ^
STACK CFI 50d4c .cfa: sp 128 +
STACK CFI 50d68 .cfa: sp 0 +
STACK CFI 50d6c .cfa: x29 96 +
STACK CFI INIT 50d9c 178 .cfa: sp 0 +
STACK CFI 50da0 .cfa: sp 80 +
STACK CFI 50db4 .cfa: x29 80 + x19: .cfa -8 + ^ x20: .cfa -16 + ^ x21: .cfa -24 + ^ x22: .cfa -32 + ^ x23: .cfa -40 + ^ x24: .cfa -48 + ^ x25: .cfa -64 + ^ .ra: .cfa -72 + ^ x29: .cfa -80 + ^
STACK CFI 50ee0 .cfa: sp 80 +
STACK CFI 50ef4 .cfa: sp 0 +
STACK CFI 50ef8 .cfa: x29 80 +
STACK CFI INIT 51074 228 .cfa: sp 0 +
STACK CFI 51078 .cfa: sp 128 +
STACK CFI 51090 .cfa: x29 80 + x19: .cfa -8 + ^ x20: .cfa -16 + ^ x21: .cfa -24 + ^ x22: .cfa -32 + ^ x23: .cfa -40 + ^ x24: .cfa -48 + ^ x25: .cfa -64 + ^ .ra: .cfa -72 + ^ x29: .cfa -80 + ^
STACK CFI 5122c .cfa: sp 128 +
STACK CFI 51244 .cfa: sp 0 +
STACK CFI 51248 .cfa: x29 80 +
STACK CFI INIT 51858 dd0 .cfa: sp 0 +
STACK CFI 5185c .cfa: sp 176 +
STACK CFI 51878 .cfa: x29 72 + x19: .cfa -8 + ^ x20: .cfa -16 + ^ x21: .cfa -24 + ^ x22: .cfa -32 + ^ x23: .cfa -40 + ^ x24: .cfa -48 + ^ x25: .cfa -56 + ^ .ra: .cfa -64 + ^ x29: .cfa -72 + ^ v8: .cfa -80 + ^
STACK CFI 52580 .cfa: sp 176 +
STACK CFI 5259c .cfa: sp 0 +
STACK CFI 525a0 .cfa: x29 72 +
STACK CFI INIT 52628 a8 .cfa: sp 0 +
STACK CFI 5262c .cfa: sp 32 +
STACK CFI 52634 .cfa: x29 32 + x19: .cfa -16 + ^ .ra: .cfa -24 + ^ x29: .cfa -32 + ^
STACK CFI 52668 .cfa: sp 32 +
STACK CFI 52670 .cfa: sp 0 +
STACK CFI 52674 .cfa: x29 32 +
STACK CFI 52678 .cfa: sp 32 +
STACK CFI 52680 .cfa: sp 0 +
STACK CFI 52684 .cfa: x29 32 +
STACK CFI INIT 5281c 1dc .cfa: sp 0 +
STACK CFI 52820 .cfa: sp 208 +
STACK CFI 52838 .cfa: x29 80 + x19: .cfa -8 + ^ x20: .cfa -16 + ^ x21: .cfa -24 + ^ x22: .cfa -32 + ^ x23: .cfa -40 + ^ x24: .cfa -48 + ^ x25: .cfa -64 + ^ .ra: .cfa -72 + ^ x29: .cfa -80 + ^
STACK CFI 52984 .cfa: sp 208 +
STACK CFI 5299c .cfa: sp 0 +
STACK CFI 529a0 .cfa: x29 80 +
STACK CFI INIT 529f8 134 .cfa: sp 0 +
STACK CFI 529fc .cfa: sp 80 +
STACK CFI 52a0c .cfa: x29 48 + x19: .cfa -8 + ^ x20: .cfa -16 + ^ x21: .cfa -24 + ^ x22: .cfa -32 + ^ .ra: .cfa -40 + ^ x29: .cfa -48 + ^
STACK CFI 52b10 .cfa: sp 80 +
STACK CFI 52b20 .cfa: sp 0 +
STACK CFI 52b24 .cfa: x29 48 +
STACK CFI INIT 52b2c 74 .cfa: sp 0 +
STACK CFI 52b30 .cfa: sp 48 +
STACK CFI 52b3c .cfa: x29 32 + x19: .cfa -8 + ^ x20: .cfa -16 + ^ .ra: .cfa -24 + ^ x29: .cfa -32 + ^
STACK CFI 52b88 .cfa: sp 48 +
STACK CFI 52b94 .cfa: sp 0 +
STACK CFI 52b98 .cfa: x29 32 +
STACK CFI INIT 52ba0 104 .cfa: sp 0 +
STACK CFI 52ba4 .cfa: sp 112 +
STACK CFI 52bb0 .cfa: x29 32 + x19: .cfa -8 + ^ x20: .cfa -16 + ^ .ra: .cfa -24 + ^ x29: .cfa -32 + ^
STACK CFI 52c74 .cfa: sp 112 +
STACK CFI 52c80 .cfa: sp 0 +
STACK CFI 52c84 .cfa: x29 32 +
STACK CFI INIT 52cec 190 .cfa: sp 0 +
STACK CFI 52cf0 .cfa: sp 160 +
STACK CFI 52d00 .cfa: x29 48 + x19: .cfa -8 + ^ x20: .cfa -16 + ^ x21: .cfa -32 + ^ .ra: .cfa -40 + ^ x29: .cfa -48 + ^
STACK CFI 52e20 .cfa: sp 160 +
STACK CFI 52e30 .cfa: sp 0 +
STACK CFI 52e34 .cfa: x29 48 +
STACK CFI INIT 531ac 158 .cfa: sp 0 +
STACK CFI 531b0 .cfa: sp 144 +
STACK CFI 531c4 .cfa: x29 64 + x19: .cfa -8 + ^ x20: .cfa -16 + ^ x21: .cfa -24 + ^ x22: .cfa -32 + ^ x23: .cfa -40 + ^ x24: .cfa -48 + ^ .ra: .cfa -56 + ^ x29: .cfa -64 + ^
STACK CFI 53298 .cfa: sp 144 +
STACK CFI 532ac .cfa: sp 0 +
STACK CFI 532b0 .cfa: x29 64 +
STACK CFI INIT 53334 4f8 .cfa: sp 0 +
STACK CFI 53338 .cfa: sp 224 +
STACK CFI 53354 .cfa: x29 96 + x19: .cfa -8 + ^ x20: .cfa -16 + ^ x21: .cfa -24 + ^ x22: .cfa -32 + ^ x23: .cfa -40 + ^ x24: .cfa -48 + ^ x25: .cfa -56 + ^ x26: .cfa -64 + ^ x27: .cfa -80 + ^ .ra: .cfa -88 + ^ x29: .cfa -96 + ^
STACK CFI 53630 .cfa: sp 224 +
STACK CFI 5364c .cfa: sp 0 +
STACK CFI 53650 .cfa: x29 96 +
STACK CFI 5371c .cfa: sp 224 +
STACK CFI 53738 .cfa: sp 0 +
STACK CFI 5373c .cfa: x29 96 +
STACK CFI INIT 53934 89c .cfa: sp 0 +
STACK CFI 53938 .cfa: sp 240 +
STACK CFI 53950 .cfa: x29 80 + x19: .cfa -8 + ^ x20: .cfa -16 + ^ x21: .cfa -24 + ^ x22: .cfa -32 + ^ x23: .cfa -40 + ^ x24: .cfa -48 + ^ x25: .cfa -56 + ^ x26: .cfa -64 + ^ .ra: .cfa -72 + ^ x29: .cfa -80 + ^
STACK CFI 53f48 .cfa: sp 240 +
STACK CFI 53f60 .cfa: sp 0 +
STACK CFI 53f64 .cfa: x29 80 +
STACK CFI INIT 54210 248 .cfa: sp 0 +
STACK CFI 54214 .cfa: sp 144 +
STACK CFI 54228 .cfa: x29 64 + x19: .cfa -8 + ^ x20: .cfa -16 + ^ x21: .cfa -24 + ^ x22: .cfa -32 + ^ x23: .cfa -40 + ^ x24: .cfa -48 + ^ .ra: .cfa -56 + ^ x29: .cfa -64 + ^
STACK CFI 543dc .cfa: sp 144 +
STACK CFI 543f0 .cfa: sp 0 +
STACK CFI 543f4 .cfa: x29 64 +
STACK CFI INIT 54458 74 .cfa: sp 0 +
STACK CFI 5445c .cfa: sp 48 +
STACK CFI 54468 .cfa: x29 32 + x19: .cfa -8 + ^ x20: .cfa -16 + ^ .ra: .cfa -24 + ^ x29: .cfa -32 + ^
STACK CFI 544b4 .cfa: sp 48 +
STACK CFI 544c0 .cfa: sp 0 +
STACK CFI 544c4 .cfa: x29 32 +
STACK CFI INIT 544cc 168 .cfa: sp 0 +
STACK CFI 544d0 .cfa: sp 384 +
STACK CFI 544e4 .cfa: x29 64 + x19: .cfa -8 + ^ x20: .cfa -16 + ^ x21: .cfa -24 + ^ x22: .cfa -32 + ^ x23: .cfa -40 + ^ x28: .cfa -48 + ^ .ra: .cfa -56 + ^ x29: .cfa -64 + ^
STACK CFI 545dc .cfa: sp 384 +
STACK CFI 545f0 .cfa: sp 0 +
STACK CFI 545f4 .cfa: x29 64 +
STACK CFI INIT 54638 33c .cfa: sp 0 +
STACK CFI 5463c .cfa: sp 144 +
STACK CFI 5464c .cfa: x29 48 + x19: .cfa -8 + ^ x20: .cfa -16 + ^ x21: .cfa -24 + ^ x22: .cfa -32 + ^ .ra: .cfa -40 + ^ x29: .cfa -48 + ^
STACK CFI 5472c .cfa: sp 144 +
STACK CFI 5473c .cfa: sp 0 +
STACK CFI 54740 .cfa: x29 48 +
STACK CFI INIT 54974 134 .cfa: sp 0 +
STACK CFI 54978 .cfa: sp 128 +
STACK CFI 5498c .cfa: x29 64 + x19: .cfa -8 + ^ x20: .cfa -16 + ^ x21: .cfa -24 + ^ x22: .cfa -32 + ^ x23: .cfa -40 + ^ x24: .cfa -48 + ^ .ra: .cfa -56 + ^ x29: .cfa -64 + ^
STACK CFI 54a58 .cfa: sp 128 +
STACK CFI 54a6c .cfa: sp 0 +
STACK CFI 54a70 .cfa: x29 64 +
STACK CFI INIT 54aa8 870 .cfa: sp 0 +
STACK CFI 54aac .cfa: sp 208 +
STACK CFI 54ac8 .cfa: x29 96 + x19: .cfa -8 + ^ x20: .cfa -16 + ^ x21: .cfa -24 + ^ x22: .cfa -32 + ^ x23: .cfa -40 + ^ x24: .cfa -48 + ^ x25: .cfa -56 + ^ x26: .cfa -64 + ^ x27: .cfa -80 + ^ .ra: .cfa -88 + ^ x29: .cfa -96 + ^
STACK CFI 54bc4 .cfa: sp 208 +
STACK CFI 54be0 .cfa: sp 0 +
STACK CFI 54be4 .cfa: x29 96 +
STACK CFI INIT 5532c 2ef0 .cfa: sp 0 +
STACK CFI 55330 .cfa: sp 112 +
STACK CFI 5534c .cfa: x29 96 + x19: .cfa -8 + ^ x20: .cfa -16 + ^ x21: .cfa -24 + ^ x22: .cfa -32 + ^ x23: .cfa -40 + ^ x24: .cfa -48 + ^ x25: .cfa -56 + ^ x26: .cfa -64 + ^ x27: .cfa -72 + ^ x28: .cfa -80 + ^ .ra: .cfa -88 + ^ x29: .cfa -96 + ^ v8: .cfa -112 + ^
STACK CFI 55440 .cfa: sp 112 +
STACK CFI 5545c .cfa: sp 0 +
STACK CFI 55460 .cfa: x29 96 +
STACK CFI INIT 5821c 1d0 .cfa: sp 0 +
STACK CFI 58220 .cfa: sp 160 +
STACK CFI 58230 .cfa: x29 48 + x19: .cfa -8 + ^ x20: .cfa -16 + ^ x21: .cfa -24 + ^ x22: .cfa -32 + ^ .ra: .cfa -40 + ^ x29: .cfa -48 + ^
STACK CFI 5837c .cfa: sp 160 +
STACK CFI 5838c .cfa: sp 0 +
STACK CFI 58390 .cfa: x29 48 +
STACK CFI INIT 584cc 74 .cfa: sp 0 +
STACK CFI 584d0 .cfa: sp 48 +
STACK CFI 584dc .cfa: x29 32 + x19: .cfa -8 + ^ x20: .cfa -16 + ^ .ra: .cfa -24 + ^ x29: .cfa -32 + ^
STACK CFI 58528 .cfa: sp 48 +
STACK CFI 58534 .cfa: sp 0 +
STACK CFI 58538 .cfa: x29 32 +
STACK CFI INIT 585f8 2a4 .cfa: sp 0 +
STACK CFI 585fc .cfa: sp 208 +
STACK CFI 58610 .cfa: x29 64 + x19: .cfa -8 + ^ x20: .cfa -16 + ^ x21: .cfa -24 + ^ x22: .cfa -32 + ^ x23: .cfa -40 + ^ x24: .cfa -48 + ^ .ra: .cfa -56 + ^ x29: .cfa -64 + ^
STACK CFI 58800 .cfa: sp 208 +
STACK CFI 58814 .cfa: sp 0 +
STACK CFI 58818 .cfa: x29 64 +
STACK CFI INIT 5891c 74 .cfa: sp 0 +
STACK CFI 58920 .cfa: sp 48 +
STACK CFI 5892c .cfa: x29 32 + x19: .cfa -8 + ^ x20: .cfa -16 + ^ .ra: .cfa -24 + ^ x29: .cfa -32 + ^
STACK CFI 58978 .cfa: sp 48 +
STACK CFI 58984 .cfa: sp 0 +
STACK CFI 58988 .cfa: x29 32 +
STACK CFI INIT 58990 184 .cfa: sp 0 +
STACK CFI 58994 .cfa: sp 160 +
STACK CFI 589a4 .cfa: x29 48 + x19: .cfa -8 + ^ x20: .cfa -16 + ^ x21: .cfa -32 + ^ .ra: .cfa -40 + ^ x29: .cfa -48 + ^
STACK CFI 58ab8 .cfa: sp 160 +
STACK CFI 58ac8 .cfa: sp 0 +
STACK CFI 58acc .cfa: x29 48 +
STACK CFI INIT 58b40 220 .cfa: sp 0 +
STACK CFI 58b44 .cfa: sp 192 +
STACK CFI 58b58 .cfa: x29 64 + x19: .cfa -8 + ^ x20: .cfa -16 + ^ x21: .cfa -24 + ^ x22: .cfa -32 + ^ x23: .cfa -40 + ^ x24: .cfa -48 + ^ .ra: .cfa -56 + ^ x29: .cfa -64 + ^
STACK CFI 58cdc .cfa: sp 192 +
STACK CFI 58cf0 .cfa: sp 0 +
STACK CFI 58cf4 .cfa: x29 64 +
STACK CFI INIT 58d60 1b4 .cfa: sp 0 +
STACK CFI 58d64 .cfa: sp 128 +
STACK CFI 58d78 .cfa: x29 64 + x19: .cfa -8 + ^ x20: .cfa -16 + ^ x21: .cfa -24 + ^ x22: .cfa -32 + ^ x23: .cfa -48 + ^ .ra: .cfa -56 + ^ x29: .cfa -64 + ^
STACK CFI 58eb8 .cfa: sp 128 +
STACK CFI 58ecc .cfa: sp 0 +
STACK CFI 58ed0 .cfa: x29 64 +
STACK CFI INIT 58f14 c4 .cfa: sp 0 +
STACK CFI 58f18 .cfa: sp 64 +
STACK CFI 58f28 .cfa: x29 64 + x19: .cfa -8 + ^ x20: .cfa -16 + ^ x21: .cfa -24 + ^ x22: .cfa -32 + ^ x23: .cfa -40 + ^ x24: .cfa -48 + ^ .ra: .cfa -56 + ^ x29: .cfa -64 + ^
STACK CFI 58fa0 .cfa: sp 64 +
STACK CFI 58fb0 .cfa: sp 0 +
STACK CFI 58fb4 .cfa: x29 64 +
STACK CFI INIT 58fd8 c4 .cfa: sp 0 +
STACK CFI 58fdc .cfa: sp 64 +
STACK CFI 58fec .cfa: x29 64 + x19: .cfa -8 + ^ x20: .cfa -16 + ^ x21: .cfa -24 + ^ x22: .cfa -32 + ^ x23: .cfa -40 + ^ x24: .cfa -48 + ^ .ra: .cfa -56 + ^ x29: .cfa -64 + ^
STACK CFI 59064 .cfa: sp 64 +
STACK CFI 59074 .cfa: sp 0 +
STACK CFI 59078 .cfa: x29 64 +
STACK CFI INIT 5909c c4 .cfa: sp 0 +
STACK CFI 590a0 .cfa: sp 64 +
STACK CFI 590b0 .cfa: x29 64 + x19: .cfa -8 + ^ x20: .cfa -16 + ^ x21: .cfa -24 + ^ x22: .cfa -32 + ^ x23: .cfa -40 + ^ x24: .cfa -48 + ^ .ra: .cfa -56 + ^ x29: .cfa -64 + ^
STACK CFI 59128 .cfa: sp 64 +
STACK CFI 59138 .cfa: sp 0 +
STACK CFI 5913c .cfa: x29 64 +
STACK CFI INIT 5919c 74 .cfa: sp 0 +
STACK CFI 591a0 .cfa: sp 48 +
STACK CFI 591ac .cfa: x29 32 + x19: .cfa -8 + ^ x20: .cfa -16 + ^ .ra: .cfa -24 + ^ x29: .cfa -32 + ^
STACK CFI 591f8 .cfa: sp 48 +
STACK CFI 59204 .cfa: sp 0 +
STACK CFI 59208 .cfa: x29 32 +
STACK CFI INIT 592a8 74 .cfa: sp 0 +
STACK CFI 592ac .cfa: sp 48 +
STACK CFI 592b8 .cfa: x29 32 + x19: .cfa -8 + ^ x20: .cfa -16 + ^ .ra: .cfa -24 + ^ x29: .cfa -32 + ^
STACK CFI 59304 .cfa: sp 48 +
STACK CFI 59310 .cfa: sp 0 +
STACK CFI 59314 .cfa: x29 32 +
STACK CFI INIT 5931c 214 .cfa: sp 0 +
STACK CFI 59320 .cfa: sp 176 +
STACK CFI 59334 .cfa: x29 64 + x19: .cfa -8 + ^ x20: .cfa -16 + ^ x21: .cfa -24 + ^ x22: .cfa -32 + ^ x23: .cfa -48 + ^ .ra: .cfa -56 + ^ x29: .cfa -64 + ^
STACK CFI 59494 .cfa: sp 176 +
STACK CFI 594a8 .cfa: sp 0 +
STACK CFI 594ac .cfa: x29 64 +
STACK CFI INIT 59530 294 .cfa: sp 0 +
STACK CFI 59534 .cfa: sp 80 +
STACK CFI 59548 .cfa: x29 80 + x19: .cfa -8 + ^ x20: .cfa -16 + ^ x21: .cfa -24 + ^ x22: .cfa -32 + ^ x23: .cfa -40 + ^ x24: .cfa -48 + ^ x25: .cfa -56 + ^ x26: .cfa -64 + ^ .ra: .cfa -72 + ^ x29: .cfa -80 + ^
STACK CFI 59784 .cfa: sp 80 +
STACK CFI 59798 .cfa: sp 0 +
STACK CFI 5979c .cfa: x29 80 +
STACK CFI INIT 597c4 104 .cfa: sp 0 +
STACK CFI 597c8 .cfa: sp 112 +
STACK CFI 597e0 .cfa: x29 80 + x19: .cfa -8 + ^ x20: .cfa -16 + ^ x21: .cfa -24 + ^ x22: .cfa -32 + ^ x23: .cfa -40 + ^ x24: .cfa -48 + ^ x25: .cfa -64 + ^ .ra: .cfa -72 + ^ x29: .cfa -80 + ^
STACK CFI 5986c .cfa: sp 112 +
STACK CFI 59884 .cfa: sp 0 +
STACK CFI 59888 .cfa: x29 80 +
STACK CFI INIT 598c8 358 .cfa: sp 0 +
STACK CFI 598cc .cfa: sp 224 +
STACK CFI 598dc .cfa: x29 48 + x19: .cfa -8 + ^ x20: .cfa -16 + ^ x21: .cfa -24 + ^ x22: .cfa -32 + ^ .ra: .cfa -40 + ^ x29: .cfa -48 + ^
STACK CFI 59b60 .cfa: sp 224 +
STACK CFI 59b70 .cfa: sp 0 +
STACK CFI 59b74 .cfa: x29 48 +
STACK CFI INIT 59c7c c4 .cfa: sp 0 +
STACK CFI 59c80 .cfa: sp 48 +
STACK CFI 59c8c .cfa: x29 48 + x19: .cfa -8 + ^ x20: .cfa -16 + ^ x21: .cfa -24 + ^ x22: .cfa -32 + ^ .ra: .cfa -40 + ^ x29: .cfa -48 + ^
STACK CFI 59ce0 .cfa: sp 48 +
STACK CFI 59cec .cfa: sp 0 +
STACK CFI 59cf0 .cfa: x29 48 +
STACK CFI 59d24 .cfa: sp 48 +
STACK CFI 59d30 .cfa: sp 0 +
STACK CFI 59d34 .cfa: x29 48 +
STACK CFI INIT 59d40 c4 .cfa: sp 0 +
STACK CFI 59d44 .cfa: sp 48 +
STACK CFI 59d50 .cfa: x29 48 + x19: .cfa -8 + ^ x20: .cfa -16 + ^ x21: .cfa -24 + ^ x22: .cfa -32 + ^ .ra: .cfa -40 + ^ x29: .cfa -48 + ^
STACK CFI 59da4 .cfa: sp 48 +
STACK CFI 59db0 .cfa: sp 0 +
STACK CFI 59db4 .cfa: x29 48 +
STACK CFI 59de8 .cfa: sp 48 +
STACK CFI 59df4 .cfa: sp 0 +
STACK CFI 59df8 .cfa: x29 48 +
STACK CFI INIT 5a0d8 74 .cfa: sp 0 +
STACK CFI 5a0dc .cfa: sp 48 +
STACK CFI 5a0e8 .cfa: x29 32 + x19: .cfa -8 + ^ x20: .cfa -16 + ^ .ra: .cfa -24 + ^ x29: .cfa -32 + ^
STACK CFI 5a134 .cfa: sp 48 +
STACK CFI 5a140 .cfa: sp 0 +
STACK CFI 5a144 .cfa: x29 32 +
STACK CFI INIT 5a168 74 .cfa: sp 0 +
STACK CFI 5a16c .cfa: sp 48 +
STACK CFI 5a178 .cfa: x29 32 + x19: .cfa -8 + ^ x20: .cfa -16 + ^ .ra: .cfa -24 + ^ x29: .cfa -32 + ^
STACK CFI 5a1c4 .cfa: sp 48 +
STACK CFI 5a1d0 .cfa: sp 0 +
STACK CFI 5a1d4 .cfa: x29 32 +
STACK CFI INIT 5a1dc 208 .cfa: sp 0 +
STACK CFI 5a1e0 .cfa: sp 144 +
STACK CFI 5a1f4 .cfa: x29 64 + x19: .cfa -8 + ^ x20: .cfa -16 + ^ x21: .cfa -24 + ^ x22: .cfa -32 + ^ x23: .cfa -40 + ^ x24: .cfa -48 + ^ .ra: .cfa -56 + ^ x29: .cfa -64 + ^
STACK CFI 5a378 .cfa: sp 144 +
STACK CFI 5a38c .cfa: sp 0 +
STACK CFI 5a390 .cfa: x29 64 +
STACK CFI INIT 5a648 11c .cfa: sp 0 +
STACK CFI 5a64c .cfa: sp 96 +
STACK CFI 5a660 .cfa: x29 64 + x19: .cfa -8 + ^ x20: .cfa -16 + ^ x21: .cfa -24 + ^ x22: .cfa -32 + ^ x23: .cfa -40 + ^ x24: .cfa -48 + ^ .ra: .cfa -56 + ^ x29: .cfa -64 + ^
STACK CFI 5a6e8 .cfa: sp 96 +
STACK CFI 5a6fc .cfa: sp 0 +
STACK CFI 5a700 .cfa: x29 64 +
STACK CFI INIT 5a85c 5a8 .cfa: sp 0 +
STACK CFI 5a860 .cfa: sp 208 +
STACK CFI 5a87c .cfa: x29 96 + x19: .cfa -8 + ^ x20: .cfa -16 + ^ x21: .cfa -24 + ^ x22: .cfa -32 + ^ x23: .cfa -40 + ^ x24: .cfa -48 + ^ x25: .cfa -56 + ^ x26: .cfa -64 + ^ x27: .cfa -72 + ^ x28: .cfa -80 + ^ .ra: .cfa -88 + ^ x29: .cfa -96 + ^
STACK CFI 5ac4c .cfa: sp 208 +
STACK CFI 5ac68 .cfa: sp 0 +
STACK CFI 5ac6c .cfa: x29 96 +
STACK CFI INIT 5ae68 1a8 .cfa: sp 0 +
STACK CFI 5ae6c .cfa: sp 208 +
STACK CFI 5ae88 .cfa: x29 96 + x19: .cfa -8 + ^ x20: .cfa -16 + ^ x21: .cfa -24 + ^ x22: .cfa -32 + ^ x23: .cfa -40 + ^ x24: .cfa -48 + ^ x25: .cfa -56 + ^ x26: .cfa -64 + ^ x27: .cfa -80 + ^ .ra: .cfa -88 + ^ x29: .cfa -96 + ^
STACK CFI 5afac .cfa: sp 208 +
STACK CFI 5afc8 .cfa: sp 0 +
STACK CFI 5afcc .cfa: x29 96 +
STACK CFI INIT 5b028 1a4 .cfa: sp 0 +
STACK CFI 5b02c .cfa: sp 112 +
STACK CFI 5b040 .cfa: x29 64 + x19: .cfa -8 + ^ x20: .cfa -16 + ^ x21: .cfa -24 + ^ x22: .cfa -32 + ^ x23: .cfa -40 + ^ x24: .cfa -48 + ^ .ra: .cfa -56 + ^ x29: .cfa -64 + ^
STACK CFI 5b14c .cfa: sp 112 +
STACK CFI 5b160 .cfa: sp 0 +
STACK CFI 5b164 .cfa: x29 64 +
STACK CFI INIT 5b1cc 334 .cfa: sp 0 +
STACK CFI 5b1d0 .cfa: sp 176 +
STACK CFI 5b1e8 .cfa: x29 80 + x19: .cfa -8 + ^ x20: .cfa -16 + ^ x21: .cfa -24 + ^ x22: .cfa -32 + ^ x23: .cfa -40 + ^ x24: .cfa -48 + ^ x25: .cfa -56 + ^ x26: .cfa -64 + ^ .ra: .cfa -72 + ^ x29: .cfa -80 + ^
STACK CFI 5b410 .cfa: sp 176 +
STACK CFI 5b428 .cfa: sp 0 +
STACK CFI 5b42c .cfa: x29 80 +
STACK CFI INIT 5b77c 16c .cfa: sp 0 +
STACK CFI 5b780 .cfa: sp 144 +
STACK CFI 5b794 .cfa: x29 64 + x19: .cfa -8 + ^ x20: .cfa -16 + ^ x21: .cfa -24 + ^ x22: .cfa -32 + ^ x23: .cfa -40 + ^ x24: .cfa -48 + ^ .ra: .cfa -56 + ^ x29: .cfa -64 + ^
STACK CFI 5b87c .cfa: sp 144 +
STACK CFI 5b890 .cfa: sp 0 +
STACK CFI 5b894 .cfa: x29 64 +
STACK CFI INIT 5b978 1a8 .cfa: sp 0 +
STACK CFI 5b97c .cfa: sp 144 +
STACK CFI 5b990 .cfa: x29 64 + x19: .cfa -8 + ^ x20: .cfa -16 + ^ x21: .cfa -24 + ^ x22: .cfa -32 + ^ x23: .cfa -48 + ^ .ra: .cfa -56 + ^ x29: .cfa -64 + ^
STACK CFI 5babc .cfa: sp 144 +
STACK CFI 5bad0 .cfa: sp 0 +
STACK CFI 5bad4 .cfa: x29 64 +
STACK CFI INIT 5bc3c 46c .cfa: sp 0 +
STACK CFI 5bc40 .cfa: sp 320 +
STACK CFI 5bc54 .cfa: x29 64 + x19: .cfa -8 + ^ x20: .cfa -16 + ^ x21: .cfa -24 + ^ x22: .cfa -32 + ^ x28: .cfa -48 + ^ .ra: .cfa -56 + ^ x29: .cfa -64 + ^
STACK CFI 5bee4 .cfa: sp 320 +
STACK CFI 5bef8 .cfa: sp 0 +
STACK CFI 5befc .cfa: x29 64 +
STACK CFI INIT 5c0a8 634 .cfa: sp 0 +
STACK CFI 5c0ac .cfa: sp 224 +
STACK CFI 5c0c8 .cfa: x29 96 + x19: .cfa -8 + ^ x20: .cfa -16 + ^ x21: .cfa -24 + ^ x22: .cfa -32 + ^ x23: .cfa -40 + ^ x24: .cfa -48 + ^ x25: .cfa -56 + ^ x26: .cfa -64 + ^ x27: .cfa -80 + ^ .ra: .cfa -88 + ^ x29: .cfa -96 + ^
STACK CFI 5c1f8 .cfa: sp 224 +
STACK CFI 5c214 .cfa: sp 0 +
STACK CFI 5c218 .cfa: x29 96 +
STACK CFI 5c59c .cfa: sp 224 +
STACK CFI 5c5b8 .cfa: sp 0 +
STACK CFI 5c5bc .cfa: x29 96 +
STACK CFI INIT 5c6f8 2a4 .cfa: sp 0 +
STACK CFI 5c6fc .cfa: sp 176 +
STACK CFI 5c710 .cfa: x29 64 + x19: .cfa -8 + ^ x20: .cfa -16 + ^ x21: .cfa -24 + ^ x22: .cfa -32 + ^ x23: .cfa -48 + ^ .ra: .cfa -56 + ^ x29: .cfa -64 + ^
STACK CFI 5c8c0 .cfa: sp 176 +
STACK CFI 5c8d4 .cfa: sp 0 +
STACK CFI 5c8d8 .cfa: x29 64 +
STACK CFI INIT 5c9a4 367c .cfa: sp 0 +
STACK CFI 5c9a8 .cfa: sp 112 +
STACK CFI 5c9c4 .cfa: x29 96 + x19: .cfa -8 + ^ x20: .cfa -16 + ^ x21: .cfa -24 + ^ x22: .cfa -32 + ^ x23: .cfa -40 + ^ x24: .cfa -48 + ^ x25: .cfa -56 + ^ x26: .cfa -64 + ^ x27: .cfa -72 + ^ x28: .cfa -80 + ^ .ra: .cfa -88 + ^ x29: .cfa -96 + ^ v8: .cfa -112 + ^
STACK CFI 5cafc .cfa: sp 112 +
STACK CFI 5cb18 .cfa: sp 0 +
STACK CFI 5cb1c .cfa: x29 96 +
STACK CFI INIT 6004c 43c .cfa: sp 0 +
STACK CFI 60050 .cfa: sp 224 +
STACK CFI 6006c .cfa: x29 96 + x19: .cfa -8 + ^ x20: .cfa -16 + ^ x21: .cfa -24 + ^ x22: .cfa -32 + ^ x23: .cfa -40 + ^ x24: .cfa -48 + ^ x25: .cfa -56 + ^ x26: .cfa -64 + ^ x27: .cfa -72 + ^ x28: .cfa -80 + ^ .ra: .cfa -88 + ^ x29: .cfa -96 + ^
STACK CFI 60380 .cfa: sp 224 +
STACK CFI 6039c .cfa: sp 0 +
STACK CFI 603a0 .cfa: x29 96 +
STACK CFI INIT 604a4 64c .cfa: sp 0 +
STACK CFI 604a8 .cfa: sp 272 +
STACK CFI 604c4 .cfa: x29 96 + x19: .cfa -8 + ^ x20: .cfa -16 + ^ x21: .cfa -24 + ^ x22: .cfa -32 + ^ x23: .cfa -40 + ^ x24: .cfa -48 + ^ x25: .cfa -56 + ^ x26: .cfa -64 + ^ x27: .cfa -72 + ^ x28: .cfa -80 + ^ .ra: .cfa -88 + ^ x29: .cfa -96 + ^
STACK CFI 60918 .cfa: sp 272 +
STACK CFI 60934 .cfa: sp 0 +
STACK CFI 60938 .cfa: x29 96 +
STACK CFI INIT 60af4 360 .cfa: sp 0 +
STACK CFI 60af8 .cfa: sp 112 +
STACK CFI 60b10 .cfa: x29 80 + x19: .cfa -8 + ^ x20: .cfa -16 + ^ x21: .cfa -24 + ^ x22: .cfa -32 + ^ x23: .cfa -40 + ^ x24: .cfa -48 + ^ x25: .cfa -56 + ^ x26: .cfa -64 + ^ .ra: .cfa -72 + ^ x29: .cfa -80 + ^
STACK CFI 60e0c .cfa: sp 112 +
STACK CFI 60e24 .cfa: sp 0 +
STACK CFI 60e28 .cfa: x29 80 +
STACK CFI INIT 60e54 234 .cfa: sp 0 +
STACK CFI 60e58 .cfa: sp 80 +
STACK CFI 60e6c .cfa: x29 64 + x19: .cfa -8 + ^ x20: .cfa -16 + ^ x21: .cfa -24 + ^ x22: .cfa -32 + ^ x23: .cfa -48 + ^ .ra: .cfa -56 + ^ x29: .cfa -64 + ^
STACK CFI 61048 .cfa: sp 80 +
STACK CFI 6105c .cfa: sp 0 +
STACK CFI 61060 .cfa: x29 64 +
STACK CFI INIT 61088 c8 .cfa: sp 0 +
STACK CFI 6108c .cfa: sp 32 +
STACK CFI 61094 .cfa: x29 32 + x19: .cfa -8 + ^ x20: .cfa -16 + ^ .ra: .cfa -24 + ^ x29: .cfa -32 + ^
STACK CFI 610c8 .cfa: sp 32 +
STACK CFI 610d0 .cfa: sp 0 +
STACK CFI 610d4 .cfa: x29 32 +
STACK CFI 610d8 .cfa: sp 32 +
STACK CFI 610e0 .cfa: sp 0 +
STACK CFI 610e4 .cfa: x29 32 +
STACK CFI INIT 61150 81c .cfa: sp 0 +
STACK CFI 61154 .cfa: sp 80 +
STACK CFI 61168 .cfa: x29 80 + x19: .cfa -8 + ^ x20: .cfa -16 + ^ x21: .cfa -24 + ^ x22: .cfa -32 + ^ x23: .cfa -40 + ^ x24: .cfa -48 + ^ x25: .cfa -56 + ^ x26: .cfa -64 + ^ .ra: .cfa -72 + ^ x29: .cfa -80 + ^
STACK CFI 615f0 .cfa: sp 80 +
STACK CFI 61604 .cfa: sp 0 +
STACK CFI 61608 .cfa: x29 80 +
STACK CFI INIT 6196c 578 .cfa: sp 0 +
STACK CFI 61970 .cfa: sp 96 +
STACK CFI 61984 .cfa: x29 64 + x19: .cfa -8 + ^ x20: .cfa -16 + ^ x21: .cfa -24 + ^ x22: .cfa -32 + ^ x23: .cfa -48 + ^ .ra: .cfa -56 + ^ x29: .cfa -64 + ^
STACK CFI 61d24 .cfa: sp 96 +
STACK CFI 61d38 .cfa: sp 0 +
STACK CFI 61d3c .cfa: x29 64 +
STACK CFI INIT 62058 1c .cfa: sp 0 +
STACK CFI 6205c .cfa: sp 16 +
STACK CFI 62060 .cfa: x29 16 + .ra: .cfa -8 + ^ x29: .cfa -16 + ^
STACK CFI 62068 .cfa: sp 16 +
STACK CFI 6206c .cfa: sp 0 +
STACK CFI 62070 .cfa: x29 16 +
STACK CFI INIT 62380 3f8 .cfa: sp 0 +
STACK CFI 62384 .cfa: sp 48 +
STACK CFI 62390 .cfa: x29 48 + x19: .cfa -8 + ^ x20: .cfa -16 + ^ x21: .cfa -24 + ^ x22: .cfa -32 + ^ .ra: .cfa -40 + ^ x29: .cfa -48 + ^
STACK CFI 626f8 .cfa: sp 48 +
STACK CFI 62704 .cfa: sp 0 +
STACK CFI 62708 .cfa: x29 48 +
STACK CFI 62758 .cfa: sp 48 +
STACK CFI 62764 .cfa: sp 0 +
STACK CFI 62768 .cfa: x29 48 +
STACK CFI INIT 627f0 1c .cfa: sp 0 +
STACK CFI 627f4 .cfa: sp 16 +
STACK CFI 627f8 .cfa: x29 16 + .ra: .cfa -8 + ^ x29: .cfa -16 + ^
STACK CFI 62800 .cfa: sp 16 +
STACK CFI 62804 .cfa: sp 0 +
STACK CFI 62808 .cfa: x29 16 +
STACK CFI INIT 6289c 98 .cfa: sp 0 +
STACK CFI 628a0 .cfa: sp 48 +
STACK CFI 628ac .cfa: x29 48 + x19: .cfa -8 + ^ x20: .cfa -16 + ^ x21: .cfa -32 + ^ .ra: .cfa -40 + ^ x29: .cfa -48 + ^
STACK CFI 6290c .cfa: sp 48 +
STACK CFI 62918 .cfa: sp 0 +
STACK CFI 6291c .cfa: sp 48 +
STACK CFI 62928 .cfa: sp 0 +
STACK CFI 6292c .cfa: x29 48 +
STACK CFI INIT 62970 1c .cfa: sp 0 +
STACK CFI 62974 .cfa: sp 16 +
STACK CFI 62978 .cfa: x29 16 + .ra: .cfa -8 + ^ x29: .cfa -16 + ^
STACK CFI 62980 .cfa: sp 16 +
STACK CFI 62984 .cfa: sp 0 +
STACK CFI 62988 .cfa: x29 16 +
STACK CFI INIT 6298c 1c .cfa: sp 0 +
STACK CFI 62990 .cfa: sp 16 +
STACK CFI 62994 .cfa: x29 16 + .ra: .cfa -8 + ^ x29: .cfa -16 + ^
STACK CFI 6299c .cfa: sp 16 +
STACK CFI 629a0 .cfa: sp 0 +
STACK CFI 629a4 .cfa: x29 16 +
STACK CFI INIT 62b88 1cc .cfa: sp 0 +
STACK CFI 62b8c .cfa: sp 160 +
STACK CFI 62ba4 .cfa: x29 80 + x19: .cfa -8 + ^ x20: .cfa -16 + ^ x21: .cfa -24 + ^ x22: .cfa -32 + ^ x23: .cfa -40 + ^ x24: .cfa -48 + ^ x25: .cfa -56 + ^ x26: .cfa -64 + ^ .ra: .cfa -72 + ^ x29: .cfa -80 + ^
STACK CFI 62d00 .cfa: sp 160 +
STACK CFI 62d18 .cfa: sp 0 +
STACK CFI 62d1c .cfa: x29 80 +
STACK CFI INIT 6310c 1a0 .cfa: sp 0 +
STACK CFI 63110 .cfa: sp 64 +
STACK CFI 63120 .cfa: x29 64 + x19: .cfa -8 + ^ x20: .cfa -16 + ^ x21: .cfa -24 + ^ x22: .cfa -32 + ^ x23: .cfa -48 + ^ .ra: .cfa -56 + ^ x29: .cfa -64 + ^
STACK CFI 631e4 .cfa: sp 64 +
STACK CFI 631f4 .cfa: sp 0 +
STACK CFI 631f8 .cfa: x29 64 +
STACK CFI INIT 638e0 a8 .cfa: sp 0 +
STACK CFI 638e4 .cfa: sp 64 +
STACK CFI 638f4 .cfa: x29 64 + x19: .cfa -8 + ^ x20: .cfa -16 + ^ x21: .cfa -24 + ^ x22: .cfa -32 + ^ x23: .cfa -40 + ^ x24: .cfa -48 + ^ .ra: .cfa -56 + ^ x29: .cfa -64 + ^
STACK CFI 63918 .cfa: sp 64 +
STACK CFI 63928 .cfa: sp 0 +
STACK CFI 6392c .cfa: x29 64 +
STACK CFI INIT 63ad8 1ec .cfa: sp 0 +
STACK CFI 63adc .cfa: sp 208 +
STACK CFI 63af4 .cfa: x29 80 + x19: .cfa -8 + ^ x20: .cfa -16 + ^ x21: .cfa -24 + ^ x22: .cfa -32 + ^ x23: .cfa -40 + ^ x24: .cfa -48 + ^ x25: .cfa -64 + ^ .ra: .cfa -72 + ^ x29: .cfa -80 + ^
STACK CFI 63c50 .cfa: sp 208 +
STACK CFI 63c68 .cfa: sp 0 +
STACK CFI 63c6c .cfa: x29 80 +
STACK CFI INIT 63cc4 184 .cfa: sp 0 +
STACK CFI 63cc8 .cfa: sp 160 +
STACK CFI 63cd8 .cfa: x29 48 + x19: .cfa -8 + ^ x20: .cfa -16 + ^ x21: .cfa -32 + ^ .ra: .cfa -40 + ^ x29: .cfa -48 + ^
STACK CFI 63dec .cfa: sp 160 +
STACK CFI 63dfc .cfa: sp 0 +
STACK CFI 63e00 .cfa: x29 48 +
STACK CFI INIT 63e60 678 .cfa: sp 0 +
STACK CFI 63e64 .cfa: sp 144 +
STACK CFI 63e80 .cfa: x29 80 + x19: .cfa -8 + ^ x20: .cfa -16 + ^ x21: .cfa -24 + ^ x22: .cfa -32 + ^ x23: .cfa -40 + ^ x24: .cfa -48 + ^ x25: .cfa -64 + ^ .ra: .cfa -72 + ^ x29: .cfa -80 + ^ v8: .cfa -88 + ^ v9: .cfa -96 + ^
STACK CFI 64474 .cfa: sp 144 +
STACK CFI 64490 .cfa: sp 0 +
STACK CFI 64494 .cfa: x29 80 +
STACK CFI INIT 64738 7684 .cfa: sp 0 +
STACK CFI 6473c .cfa: sp 160 +
STACK CFI 64764 .cfa: x29 96 + x19: .cfa -8 + ^ x20: .cfa -16 + ^ x21: .cfa -24 + ^ x22: .cfa -32 + ^ x23: .cfa -40 + ^ x24: .cfa -48 + ^ x25: .cfa -56 + ^ x26: .cfa -64 + ^ x27: .cfa -72 + ^ x28: .cfa -80 + ^ .ra: .cfa -88 + ^ x29: .cfa -96 + ^ v8: .cfa -104 + ^ v9: .cfa -112 + ^ v10: .cfa -120 + ^ v11: .cfa -128 + ^ v12: .cfa -136 + ^ v13: .cfa -144 + ^ v14: .cfa -152 + ^ v15: .cfa -160 + ^
STACK CFI 64864 .cfa: sp 160 +
STACK CFI 6488c .cfa: sp 0 +
STACK CFI 64890 .cfa: x29 96 +
STACK CFI INIT 6bdbc 344 .cfa: sp 0 +
STACK CFI 6bdc0 .cfa: sp 208 +
STACK CFI 6bddc .cfa: x29 96 + x19: .cfa -8 + ^ x20: .cfa -16 + ^ x21: .cfa -24 + ^ x22: .cfa -32 + ^ x23: .cfa -40 + ^ x24: .cfa -48 + ^ x25: .cfa -56 + ^ x26: .cfa -64 + ^ x27: .cfa -72 + ^ x28: .cfa -80 + ^ .ra: .cfa -88 + ^ x29: .cfa -96 + ^
STACK CFI 6bec4 .cfa: sp 208 +
STACK CFI 6bee0 .cfa: sp 0 +
STACK CFI 6bee4 .cfa: x29 96 +
STACK CFI INIT 6c100 dc .cfa: sp 0 +
STACK CFI 6c104 .cfa: sp 64 +
STACK CFI 6c110 .cfa: x29 32 + x19: .cfa -8 + ^ x20: .cfa -16 + ^ .ra: .cfa -24 + ^ x29: .cfa -32 + ^
STACK CFI 6c194 .cfa: sp 64 +
STACK CFI 6c1a0 .cfa: sp 0 +
STACK CFI 6c1a4 .cfa: x29 32 +
STACK CFI INIT 6c1dc 74 .cfa: sp 0 +
STACK CFI 6c1e0 .cfa: sp 48 +
STACK CFI 6c1ec .cfa: x29 32 + x19: .cfa -8 + ^ x20: .cfa -16 + ^ .ra: .cfa -24 + ^ x29: .cfa -32 + ^
STACK CFI 6c238 .cfa: sp 48 +
STACK CFI 6c244 .cfa: sp 0 +
STACK CFI 6c248 .cfa: x29 32 +
STACK CFI INIT 6c250 dc .cfa: sp 0 +
STACK CFI 6c254 .cfa: sp 64 +
STACK CFI 6c260 .cfa: x29 32 + x19: .cfa -8 + ^ x20: .cfa -16 + ^ .ra: .cfa -24 + ^ x29: .cfa -32 + ^
STACK CFI 6c2e4 .cfa: sp 64 +
STACK CFI 6c2f0 .cfa: sp 0 +
STACK CFI 6c2f4 .cfa: x29 32 +
STACK CFI INIT 6c32c 1e4 .cfa: sp 0 +
STACK CFI 6c330 .cfa: sp 160 +
STACK CFI 6c340 .cfa: x29 48 + x19: .cfa -8 + ^ x20: .cfa -16 + ^ x21: .cfa -24 + ^ x22: .cfa -32 + ^ .ra: .cfa -40 + ^ x29: .cfa -48 + ^
STACK CFI 6c4a0 .cfa: sp 160 +
STACK CFI 6c4b0 .cfa: sp 0 +
STACK CFI 6c4b4 .cfa: x29 48 +
STACK CFI INIT 6c510 74 .cfa: sp 0 +
STACK CFI 6c514 .cfa: sp 48 +
STACK CFI 6c520 .cfa: x29 32 + x19: .cfa -8 + ^ x20: .cfa -16 + ^ .ra: .cfa -24 + ^ x29: .cfa -32 + ^
STACK CFI 6c56c .cfa: sp 48 +
STACK CFI 6c578 .cfa: sp 0 +
STACK CFI 6c57c .cfa: x29 32 +
STACK CFI INIT 6c584 6ac .cfa: sp 0 +
STACK CFI 6c588 .cfa: sp 240 +
STACK CFI 6c5a8 .cfa: x29 96 + x19: .cfa -8 + ^ x20: .cfa -16 + ^ x21: .cfa -24 + ^ x22: .cfa -32 + ^ x23: .cfa -40 + ^ x24: .cfa -48 + ^ x25: .cfa -56 + ^ x26: .cfa -64 + ^ x27: .cfa -72 + ^ x28: .cfa -80 + ^ .ra: .cfa -88 + ^ x29: .cfa -96 + ^ v8: .cfa -112 + ^
STACK CFI 6ca84 .cfa: sp 240 +
STACK CFI 6caa4 .cfa: sp 0 +
STACK CFI 6caa8 .cfa: x29 96 +
STACK CFI INIT 6cc30 1d14 .cfa: sp 0 +
STACK CFI 6cc34 .cfa: sp 80 +
STACK CFI 6cc48 .cfa: x29 80 + x19: .cfa -8 + ^ x20: .cfa -16 + ^ x21: .cfa -24 + ^ x22: .cfa -32 + ^ x23: .cfa -40 + ^ x24: .cfa -48 + ^ x25: .cfa -56 + ^ x28: .cfa -64 + ^ .ra: .cfa -72 + ^ x29: .cfa -80 + ^
STACK CFI 6d02c .cfa: sp 80 +
STACK CFI 6d040 .cfa: sp 0 +
STACK CFI 6d044 .cfa: x29 80 +
STACK CFI INIT 6e944 378 .cfa: sp 0 +
STACK CFI 6e948 .cfa: sp 96 +
STACK CFI 6e954 .cfa: x29 32 + x19: .cfa -8 + ^ x20: .cfa -16 + ^ .ra: .cfa -24 + ^ x29: .cfa -32 + ^
STACK CFI 6ebc4 .cfa: sp 96 +
STACK CFI 6ebd0 .cfa: sp 0 +
STACK CFI 6ebd4 .cfa: x29 32 +
STACK CFI INIT 6ecbc 164 .cfa: sp 0 +
STACK CFI 6ecc0 .cfa: sp 64 +
STACK CFI 6eccc .cfa: x29 32 + x19: .cfa -8 + ^ x20: .cfa -16 + ^ .ra: .cfa -24 + ^ x29: .cfa -32 + ^
STACK CFI 6ede8 .cfa: sp 64 +
STACK CFI 6edf4 .cfa: sp 0 +
STACK CFI 6edf8 .cfa: x29 32 +
STACK CFI INIT 6ee20 b4 .cfa: sp 0 +
STACK CFI 6ee24 .cfa: sp 32 +
STACK CFI 6ee2c .cfa: x29 32 + x19: .cfa -16 + ^ .ra: .cfa -24 + ^ x29: .cfa -32 + ^
STACK CFI 6eec0 .cfa: sp 32 +
STACK CFI 6eec8 .cfa: sp 0 +
STACK CFI 6eecc .cfa: x29 32 +
STACK CFI INIT 6ef90 148 .cfa: sp 0 +
STACK CFI 6ef94 .cfa: sp 96 +
STACK CFI 6efa4 .cfa: x29 48 + x19: .cfa -8 + ^ x20: .cfa -16 + ^ x21: .cfa -32 + ^ .ra: .cfa -40 + ^ x29: .cfa -48 + ^
STACK CFI 6f08c .cfa: sp 96 +
STACK CFI 6f09c .cfa: sp 0 +
STACK CFI 6f0a0 .cfa: x29 48 +
STACK CFI INIT 6f260 6c .cfa: sp 0 +
STACK CFI 6f264 .cfa: sp 32 +
STACK CFI 6f26c .cfa: x29 32 + x19: .cfa -16 + ^ .ra: .cfa -24 + ^ x29: .cfa -32 + ^
STACK CFI 6f2bc .cfa: sp 32 +
STACK CFI 6f2c4 .cfa: sp 0 +
STACK CFI 6f2c8 .cfa: x29 32 +
STACK CFI INIT 6f2d0 6c .cfa: sp 0 +
STACK CFI 6f2d4 .cfa: sp 32 +
STACK CFI 6f2dc .cfa: x29 32 + x19: .cfa -16 + ^ .ra: .cfa -24 + ^ x29: .cfa -32 + ^
STACK CFI 6f32c .cfa: sp 32 +
STACK CFI 6f334 .cfa: sp 0 +
STACK CFI 6f338 .cfa: x29 32 +
STACK CFI INIT 6f760 b2c .cfa: sp 0 +
STACK CFI 6f764 .cfa: sp 336 +
STACK CFI 6f778 .cfa: x29 64 + x19: .cfa -8 + ^ x20: .cfa -16 + ^ x21: .cfa -24 + ^ x22: .cfa -32 + ^ x23: .cfa -40 + ^ x28: .cfa -48 + ^ .ra: .cfa -56 + ^ x29: .cfa -64 + ^
STACK CFI 6ff80 .cfa: sp 336 +
STACK CFI 6ff94 .cfa: sp 0 +
STACK CFI 6ff98 .cfa: x29 64 +
STACK CFI INIT 7028c 440 .cfa: sp 0 +
STACK CFI 70290 .cfa: sp 144 +
STACK CFI 702a8 .cfa: x29 80 + x19: .cfa -8 + ^ x20: .cfa -16 + ^ x21: .cfa -24 + ^ x22: .cfa -32 + ^ x23: .cfa -40 + ^ x24: .cfa -48 + ^ x25: .cfa -56 + ^ x26: .cfa -64 + ^ .ra: .cfa -72 + ^ x29: .cfa -80 + ^
STACK CFI 70608 .cfa: sp 144 +
STACK CFI 70620 .cfa: sp 0 +
STACK CFI 70624 .cfa: x29 80 +
STACK CFI INIT 70700 ce0 .cfa: sp 0 +
STACK CFI 70704 .cfa: sp 96 +
STACK CFI 7071c .cfa: x29 96 + x19: .cfa -8 + ^ x20: .cfa -16 + ^ x21: .cfa -24 + ^ x22: .cfa -32 + ^ x23: .cfa -40 + ^ x24: .cfa -48 + ^ x25: .cfa -56 + ^ x26: .cfa -64 + ^ x27: .cfa -72 + ^ x28: .cfa -80 + ^ .ra: .cfa -88 + ^ x29: .cfa -96 + ^
STACK CFI 712ec .cfa: sp 96 +
STACK CFI 71304 .cfa: sp 0 +
STACK CFI 71308 .cfa: x29 96 +
STACK CFI INIT 71424 f20 .cfa: sp 0 +
STACK CFI 71428 .cfa: sp 224 +
STACK CFI 71440 .cfa: x29 64 + x19: .cfa -8 + ^ x20: .cfa -16 + ^ x21: .cfa -24 + ^ x22: .cfa -32 + ^ x23: .cfa -40 + ^ x24: .cfa -48 + ^ .ra: .cfa -56 + ^ x29: .cfa -64 + ^ v8: .cfa -80 + ^
STACK CFI 721b0 .cfa: sp 224 +
STACK CFI 721c8 .cfa: sp 0 +
STACK CFI 721cc .cfa: x29 64 +
STACK CFI INIT 723ac 56c .cfa: sp 0 +
STACK CFI 723b0 .cfa: sp 192 +
STACK CFI 723c8 .cfa: x29 80 + x19: .cfa -8 + ^ x20: .cfa -16 + ^ x21: .cfa -24 + ^ x22: .cfa -32 + ^ x23: .cfa -40 + ^ x24: .cfa -48 + ^ x25: .cfa -56 + ^ x26: .cfa -64 + ^ .ra: .cfa -72 + ^ x29: .cfa -80 + ^
STACK CFI 727ec .cfa: sp 192 +
STACK CFI 72804 .cfa: sp 0 +
STACK CFI 72808 .cfa: x29 80 +
STACK CFI INIT 72918 3f0 .cfa: sp 0 +
STACK CFI 7291c .cfa: sp 144 +
STACK CFI 72938 .cfa: x29 96 + x19: .cfa -8 + ^ x20: .cfa -16 + ^ x21: .cfa -24 + ^ x22: .cfa -32 + ^ x23: .cfa -40 + ^ x24: .cfa -48 + ^ x25: .cfa -56 + ^ x26: .cfa -64 + ^ x27: .cfa -80 + ^ .ra: .cfa -88 + ^ x29: .cfa -96 + ^
STACK CFI 72c6c .cfa: sp 144 +
STACK CFI 72c88 .cfa: sp 0 +
STACK CFI 72c8c .cfa: x29 96 +
STACK CFI INIT 72d08 fc .cfa: sp 0 +
STACK CFI 72d0c .cfa: sp 112 +
STACK CFI 72d24 .cfa: x29 80 + x19: .cfa -8 + ^ x20: .cfa -16 + ^ x21: .cfa -24 + ^ x22: .cfa -32 + ^ x23: .cfa -40 + ^ x24: .cfa -48 + ^ x25: .cfa -64 + ^ .ra: .cfa -72 + ^ x29: .cfa -80 + ^
STACK CFI 72db0 .cfa: sp 112 +
STACK CFI 72dc8 .cfa: sp 0 +
STACK CFI 72dcc .cfa: x29 80 +
STACK CFI INIT 72e04 e4 .cfa: sp 0 +
STACK CFI 72e08 .cfa: sp 96 +
STACK CFI 72e1c .cfa: x29 64 + x19: .cfa -8 + ^ x20: .cfa -16 + ^ x21: .cfa -24 + ^ x22: .cfa -32 + ^ x23: .cfa -40 + ^ x24: .cfa -48 + ^ .ra: .cfa -56 + ^ x29: .cfa -64 + ^
STACK CFI 72ea8 .cfa: sp 96 +
STACK CFI 72ebc .cfa: sp 0 +
STACK CFI 72ec0 .cfa: x29 64 +
STACK CFI INIT 72ee8 189c .cfa: sp 0 +
STACK CFI 72eec .cfa: sp 112 +
STACK CFI 72f08 .cfa: x29 96 + x19: .cfa -8 + ^ x20: .cfa -16 + ^ x21: .cfa -24 + ^ x22: .cfa -32 + ^ x23: .cfa -40 + ^ x24: .cfa -48 + ^ x25: .cfa -56 + ^ x26: .cfa -64 + ^ x27: .cfa -72 + ^ x28: .cfa -80 + ^ .ra: .cfa -88 + ^ x29: .cfa -96 + ^ v8: .cfa -112 + ^
STACK CFI 741c4 .cfa: sp 112 +
STACK CFI 741e0 .cfa: sp 0 +
STACK CFI 741e4 .cfa: x29 96 +
STACK CFI INIT 74824 168 .cfa: sp 0 +
STACK CFI 74828 .cfa: sp 80 +
STACK CFI 74838 .cfa: x29 48 + x19: .cfa -8 + ^ x20: .cfa -16 + ^ x21: .cfa -24 + ^ x22: .cfa -32 + ^ .ra: .cfa -40 + ^ x29: .cfa -48 + ^
STACK CFI 74904 .cfa: sp 80 +
STACK CFI 74914 .cfa: sp 0 +
STACK CFI 74918 .cfa: x29 48 +
STACK CFI INIT 7498c 148 .cfa: sp 0 +
STACK CFI 74990 .cfa: sp 48 +
STACK CFI 7499c .cfa: x29 48 + x19: .cfa -8 + ^ x20: .cfa -16 + ^ x21: .cfa -32 + ^ .ra: .cfa -40 + ^ x29: .cfa -48 + ^
STACK CFI 74ac0 .cfa: sp 48 +
STACK CFI 74acc .cfa: sp 0 +
STACK CFI 74ad0 .cfa: x29 48 +
STACK CFI INIT 75160 16c .cfa: sp 0 +
STACK CFI 75164 .cfa: sp 144 +
STACK CFI 75178 .cfa: x29 64 + x19: .cfa -8 + ^ x20: .cfa -16 + ^ x21: .cfa -24 + ^ x22: .cfa -32 + ^ x23: .cfa -40 + ^ x24: .cfa -48 + ^ .ra: .cfa -56 + ^ x29: .cfa -64 + ^
STACK CFI 75260 .cfa: sp 144 +
STACK CFI 75274 .cfa: sp 0 +
STACK CFI 75278 .cfa: x29 64 +
STACK CFI INIT 7531c 21c .cfa: sp 0 +
STACK CFI 75320 .cfa: sp 192 +
STACK CFI 75334 .cfa: x29 64 + x19: .cfa -8 + ^ x20: .cfa -16 + ^ x21: .cfa -24 + ^ x22: .cfa -32 + ^ x23: .cfa -48 + ^ .ra: .cfa -56 + ^ x29: .cfa -64 + ^
STACK CFI 75474 .cfa: sp 192 +
STACK CFI 75488 .cfa: sp 0 +
STACK CFI 7548c .cfa: x29 64 +
STACK CFI INIT 7553c 1cc .cfa: sp 0 +
STACK CFI 75540 .cfa: sp 128 +
STACK CFI 75550 .cfa: x29 48 + x19: .cfa -8 + ^ x20: .cfa -16 + ^ x21: .cfa -32 + ^ .ra: .cfa -40 + ^ x29: .cfa -48 + ^
STACK CFI 7568c .cfa: sp 128 +
STACK CFI 7569c .cfa: sp 0 +
STACK CFI 756a0 .cfa: x29 48 +
STACK CFI INIT 75a98 1d0 .cfa: sp 0 +
STACK CFI 75a9c .cfa: sp 128 +
STACK CFI 75ab0 .cfa: x29 64 + x19: .cfa -8 + ^ x20: .cfa -16 + ^ x21: .cfa -24 + ^ x22: .cfa -32 + ^ x23: .cfa -48 + ^ .ra: .cfa -56 + ^ x29: .cfa -64 + ^
STACK CFI 75c28 .cfa: sp 128 +
STACK CFI 75c3c .cfa: sp 0 +
STACK CFI 75c40 .cfa: x29 64 +
STACK CFI INIT 75f84 1c4 .cfa: sp 0 +
STACK CFI 75f88 .cfa: sp 112 +
STACK CFI 75f98 .cfa: x29 48 + x19: .cfa -8 + ^ x20: .cfa -16 + ^ x21: .cfa -24 + ^ x22: .cfa -32 + ^ .ra: .cfa -40 + ^ x29: .cfa -48 + ^
STACK CFI 7610c .cfa: sp 112 +
STACK CFI 7611c .cfa: sp 0 +
STACK CFI 76120 .cfa: x29 48 +
STACK CFI INIT 761a0 14c .cfa: sp 0 +
STACK CFI 761a4 .cfa: sp 112 +
STACK CFI 761b4 .cfa: x29 48 + x19: .cfa -8 + ^ x20: .cfa -16 + ^ x21: .cfa -32 + ^ .ra: .cfa -40 + ^ x29: .cfa -48 + ^
STACK CFI 762a0 .cfa: sp 112 +
STACK CFI 762b0 .cfa: sp 0 +
STACK CFI 762b4 .cfa: x29 48 +
STACK CFI INIT 762ec 130 .cfa: sp 0 +
STACK CFI 762f0 .cfa: sp 112 +
STACK CFI 76304 .cfa: x29 64 + x19: .cfa -8 + ^ x20: .cfa -16 + ^ x21: .cfa -24 + ^ x22: .cfa -32 + ^ x23: .cfa -48 + ^ .ra: .cfa -56 + ^ x29: .cfa -64 + ^
STACK CFI 763c4 .cfa: sp 112 +
STACK CFI 763d8 .cfa: sp 0 +
STACK CFI 763dc .cfa: x29 64 +
STACK CFI INIT 7641c 18c .cfa: sp 0 +
STACK CFI 76420 .cfa: sp 176 +
STACK CFI 76434 .cfa: x29 64 + x19: .cfa -8 + ^ x20: .cfa -16 + ^ x21: .cfa -24 + ^ x22: .cfa -32 + ^ x23: .cfa -40 + ^ x24: .cfa -48 + ^ .ra: .cfa -56 + ^ x29: .cfa -64 + ^
STACK CFI 7653c .cfa: sp 176 +
STACK CFI 76550 .cfa: sp 0 +
STACK CFI 76554 .cfa: x29 64 +
STACK CFI INIT 765a8 c4 .cfa: sp 0 +
STACK CFI 765ac .cfa: sp 64 +
STACK CFI 765bc .cfa: x29 64 + x19: .cfa -8 + ^ x20: .cfa -16 + ^ x21: .cfa -24 + ^ x22: .cfa -32 + ^ x23: .cfa -40 + ^ x24: .cfa -48 + ^ .ra: .cfa -56 + ^ x29: .cfa -64 + ^
STACK CFI 76634 .cfa: sp 64 +
STACK CFI 76644 .cfa: sp 0 +
STACK CFI 76648 .cfa: x29 64 +
STACK CFI INIT 7666c c4 .cfa: sp 0 +
STACK CFI 76670 .cfa: sp 64 +
STACK CFI 76680 .cfa: x29 64 + x19: .cfa -8 + ^ x20: .cfa -16 + ^ x21: .cfa -24 + ^ x22: .cfa -32 + ^ x23: .cfa -40 + ^ x24: .cfa -48 + ^ .ra: .cfa -56 + ^ x29: .cfa -64 + ^
STACK CFI 766f8 .cfa: sp 64 +
STACK CFI 76708 .cfa: sp 0 +
STACK CFI 7670c .cfa: x29 64 +
STACK CFI INIT 76730 c4 .cfa: sp 0 +
STACK CFI 76734 .cfa: sp 64 +
STACK CFI 76744 .cfa: x29 64 + x19: .cfa -8 + ^ x20: .cfa -16 + ^ x21: .cfa -24 + ^ x22: .cfa -32 + ^ x23: .cfa -40 + ^ x24: .cfa -48 + ^ .ra: .cfa -56 + ^ x29: .cfa -64 + ^
STACK CFI 767bc .cfa: sp 64 +
STACK CFI 767cc .cfa: sp 0 +
STACK CFI 767d0 .cfa: x29 64 +
STACK CFI INIT 79af4 310 .cfa: sp 0 +
STACK CFI 79af8 .cfa: sp 144 +
STACK CFI 79b0c .cfa: x29 64 + x19: .cfa -8 + ^ x20: .cfa -16 + ^ x21: .cfa -24 + ^ x22: .cfa -32 + ^ x23: .cfa -48 + ^ .ra: .cfa -56 + ^ x29: .cfa -64 + ^
STACK CFI 79cac .cfa: sp 144 +
STACK CFI 79cc0 .cfa: sp 0 +
STACK CFI 79cc4 .cfa: x29 64 +
STACK CFI INIT 79e04 f4 .cfa: sp 0 +
STACK CFI 79e08 .cfa: sp 64 +
STACK CFI 79e18 .cfa: x29 48 + x19: .cfa -8 + ^ x20: .cfa -16 + ^ x21: .cfa -24 + ^ x22: .cfa -32 + ^ .ra: .cfa -40 + ^ x29: .cfa -48 + ^
STACK CFI 79ebc .cfa: sp 64 +
STACK CFI 79ecc .cfa: sp 0 +
STACK CFI 79ed0 .cfa: x29 48 +
STACK CFI INIT 79ef8 284 .cfa: sp 0 +
STACK CFI 79efc .cfa: sp 80 +
STACK CFI 79f10 .cfa: x29 80 + x19: .cfa -8 + ^ x20: .cfa -16 + ^ x21: .cfa -24 + ^ x22: .cfa -32 + ^ x23: .cfa -40 + ^ x24: .cfa -48 + ^ x25: .cfa -56 + ^ x28: .cfa -64 + ^ .ra: .cfa -72 + ^ x29: .cfa -80 + ^
STACK CFI 7a0d8 .cfa: sp 80 +
STACK CFI 7a0ec .cfa: sp 0 +
STACK CFI 7a0f0 .cfa: x29 80 +
STACK CFI INIT 7a184 f4 .cfa: sp 0 +
STACK CFI 7a188 .cfa: sp 80 +
STACK CFI 7a19c .cfa: x29 64 + x19: .cfa -8 + ^ x20: .cfa -16 + ^ x21: .cfa -24 + ^ x22: .cfa -32 + ^ x23: .cfa -48 + ^ .ra: .cfa -56 + ^ x29: .cfa -64 + ^
STACK CFI 7a238 .cfa: sp 80 +
STACK CFI 7a24c .cfa: sp 0 +
STACK CFI 7a250 .cfa: x29 64 +
STACK CFI INIT 7a278 dc .cfa: sp 0 +
STACK CFI 7a27c .cfa: sp 64 +
STACK CFI 7a288 .cfa: x29 32 + x19: .cfa -8 + ^ x20: .cfa -16 + ^ .ra: .cfa -24 + ^ x29: .cfa -32 + ^
STACK CFI 7a30c .cfa: sp 64 +
STACK CFI 7a318 .cfa: sp 0 +
STACK CFI 7a31c .cfa: x29 32 +
STACK CFI INIT 7a35c 454 .cfa: sp 0 +
STACK CFI 7a360 .cfa: sp 320 +
STACK CFI 7a374 .cfa: x29 64 + x19: .cfa -8 + ^ x20: .cfa -16 + ^ x21: .cfa -24 + ^ x22: .cfa -32 + ^ x23: .cfa -40 + ^ x28: .cfa -48 + ^ .ra: .cfa -56 + ^ x29: .cfa -64 + ^
STACK CFI 7a720 .cfa: sp 320 +
STACK CFI 7a734 .cfa: sp 0 +
STACK CFI 7a738 .cfa: x29 64 +
STACK CFI INIT 7a7b0 3dc .cfa: sp 0 +
STACK CFI 7a7b4 .cfa: sp 144 +
STACK CFI 7a7c8 .cfa: x29 64 + x19: .cfa -8 + ^ x20: .cfa -16 + ^ x21: .cfa -24 + ^ x22: .cfa -32 + ^ x23: .cfa -40 + ^ x24: .cfa -48 + ^ .ra: .cfa -56 + ^ x29: .cfa -64 + ^
STACK CFI 7aad0 .cfa: sp 144 +
STACK CFI 7aae4 .cfa: sp 0 +
STACK CFI 7aae8 .cfa: x29 64 +
STACK CFI INIT 7abd8 e0 .cfa: sp 0 +
STACK CFI 7abdc .cfa: sp 64 +
STACK CFI 7abe8 .cfa: x29 32 + x19: .cfa -8 + ^ x20: .cfa -16 + ^ .ra: .cfa -24 + ^ x29: .cfa -32 + ^
STACK CFI 7ac70 .cfa: sp 64 +
STACK CFI 7ac7c .cfa: sp 0 +
STACK CFI 7ac80 .cfa: x29 32 +
STACK CFI INIT 7acb8 110 .cfa: sp 0 +
STACK CFI 7acbc .cfa: sp 64 +
STACK CFI 7acc8 .cfa: x29 32 + x19: .cfa -8 + ^ x20: .cfa -16 + ^ .ra: .cfa -24 + ^ x29: .cfa -32 + ^
STACK CFI 7ad60 .cfa: sp 64 +
STACK CFI 7ad6c .cfa: sp 0 +
STACK CFI 7ad70 .cfa: x29 32 +
STACK CFI 7ad80 .cfa: sp 64 +
STACK CFI 7ad8c .cfa: sp 0 +
STACK CFI 7ad90 .cfa: x29 32 +
STACK CFI INIT 7adc8 110 .cfa: sp 0 +
STACK CFI 7adcc .cfa: sp 64 +
STACK CFI 7add8 .cfa: x29 32 + x19: .cfa -8 + ^ x20: .cfa -16 + ^ .ra: .cfa -24 + ^ x29: .cfa -32 + ^
STACK CFI 7ae70 .cfa: sp 64 +
STACK CFI 7ae7c .cfa: sp 0 +
STACK CFI 7ae80 .cfa: x29 32 +
STACK CFI 7ae90 .cfa: sp 64 +
STACK CFI 7ae9c .cfa: sp 0 +
STACK CFI 7aea0 .cfa: x29 32 +
STACK CFI INIT 7aed8 d8 .cfa: sp 0 +
STACK CFI 7aedc .cfa: sp 32 +
STACK CFI 7aee4 .cfa: x29 32 + x19: .cfa -8 + ^ x20: .cfa -16 + ^ .ra: .cfa -24 + ^ x29: .cfa -32 + ^
STACK CFI 7af40 .cfa: sp 32 +
STACK CFI 7af48 .cfa: sp 0 +
STACK CFI 7af4c .cfa: x29 32 +
STACK CFI 7af90 .cfa: sp 32 +
STACK CFI 7af98 .cfa: sp 0 +
STACK CFI 7af9c .cfa: x29 32 +
STACK CFI INIT 7afe4 1854 .cfa: sp 0 +
STACK CFI 7afe8 .cfa: sp 160 +
STACK CFI 7b008 .cfa: x29 96 + x19: .cfa -8 + ^ x20: .cfa -16 + ^ x21: .cfa -24 + ^ x22: .cfa -32 + ^ x23: .cfa -40 + ^ x24: .cfa -48 + ^ x25: .cfa -56 + ^ x26: .cfa -64 + ^ x27: .cfa -72 + ^ x28: .cfa -80 + ^ .ra: .cfa -88 + ^ x29: .cfa -96 + ^ v8: .cfa -112 + ^
STACK CFI 7c5fc .cfa: sp 160 +
STACK CFI 7c61c .cfa: sp 0 +
STACK CFI 7c620 .cfa: x29 96 +
STACK CFI INIT 7caa0 5458 .cfa: sp 0 +
STACK CFI 7caa4 .cfa: sp 160 +
STACK CFI 7cacc .cfa: x29 96 + x19: .cfa -8 + ^ x20: .cfa -16 + ^ x21: .cfa -24 + ^ x22: .cfa -32 + ^ x23: .cfa -40 + ^ x24: .cfa -48 + ^ x25: .cfa -56 + ^ x26: .cfa -64 + ^ x27: .cfa -72 + ^ x28: .cfa -80 + ^ .ra: .cfa -88 + ^ x29: .cfa -96 + ^ v8: .cfa -104 + ^ v9: .cfa -112 + ^ v10: .cfa -120 + ^ v11: .cfa -128 + ^ v12: .cfa -136 + ^ v13: .cfa -144 + ^ v14: .cfa -152 + ^ v15: .cfa -160 + ^
STACK CFI 7cbc8 .cfa: sp 160 +
STACK CFI 7cbf0 .cfa: sp 0 +
STACK CFI 7cbf4 .cfa: x29 96 +
STACK CFI INIT 81ef8 1e4 .cfa: sp 0 +
STACK CFI 81efc .cfa: sp 48 +
STACK CFI 81f08 .cfa: x29 48 + x19: .cfa -8 + ^ x20: .cfa -16 + ^ x21: .cfa -32 + ^ .ra: .cfa -40 + ^ x29: .cfa -48 + ^
STACK CFI 820c8 .cfa: sp 48 +
STACK CFI 820d4 .cfa: sp 0 +
STACK CFI 820d8 .cfa: x29 48 +
STACK CFI INIT 82130 198 .cfa: sp 0 +
STACK CFI 82134 .cfa: sp 96 +
STACK CFI 82144 .cfa: x29 48 + x19: .cfa -8 + ^ x20: .cfa -16 + ^ x21: .cfa -32 + ^ .ra: .cfa -40 + ^ x29: .cfa -48 + ^
STACK CFI 82220 .cfa: sp 96 +
STACK CFI 82230 .cfa: sp 0 +
STACK CFI 82234 .cfa: x29 48 +
STACK CFI INIT 8231c 7c8 .cfa: sp 0 +
STACK CFI 82320 .cfa: sp 96 +
STACK CFI 82338 .cfa: x29 96 + x19: .cfa -8 + ^ x20: .cfa -16 + ^ x21: .cfa -24 + ^ x22: .cfa -32 + ^ x23: .cfa -40 + ^ x24: .cfa -48 + ^ x25: .cfa -56 + ^ x26: .cfa -64 + ^ x27: .cfa -72 + ^ x28: .cfa -80 + ^ .ra: .cfa -88 + ^ x29: .cfa -96 + ^
STACK CFI 825a4 .cfa: sp 96 +
STACK CFI 825bc .cfa: sp 0 +
STACK CFI 825c0 .cfa: x29 96 +
STACK CFI INIT 82b0c ec .cfa: sp 0 +
STACK CFI 82b10 .cfa: sp 96 +
STACK CFI 82b28 .cfa: x29 80 + x19: .cfa -8 + ^ x20: .cfa -16 + ^ x21: .cfa -24 + ^ x22: .cfa -32 + ^ x23: .cfa -40 + ^ x24: .cfa -48 + ^ x25: .cfa -64 + ^ .ra: .cfa -72 + ^ x29: .cfa -80 + ^
STACK CFI 82ba4 .cfa: sp 96 +
STACK CFI 82bbc .cfa: sp 0 +
STACK CFI 82bc0 .cfa: x29 80 +
STACK CFI INIT 82c3c 2e4 .cfa: sp 0 +
STACK CFI 82c40 .cfa: sp 144 +
STACK CFI 82c50 .cfa: x29 48 + x19: .cfa -8 + ^ x20: .cfa -16 + ^ x21: .cfa -24 + ^ x22: .cfa -32 + ^ .ra: .cfa -40 + ^ x29: .cfa -48 + ^
STACK CFI 82ea8 .cfa: sp 144 +
STACK CFI 82eb8 .cfa: sp 0 +
STACK CFI 82ebc .cfa: x29 48 +
STACK CFI INIT 82f48 e48 .cfa: sp 0 +
STACK CFI 82f4c .cfa: sp 368 +
STACK CFI 82f60 .cfa: x29 64 + x19: .cfa -8 + ^ x20: .cfa -16 + ^ x21: .cfa -24 + ^ x22: .cfa -32 + ^ x23: .cfa -40 + ^ x28: .cfa -48 + ^ .ra: .cfa -56 + ^ x29: .cfa -64 + ^
STACK CFI 839d8 .cfa: sp 368 +
STACK CFI 839ec .cfa: sp 0 +
STACK CFI 839f0 .cfa: x29 64 +
STACK CFI INIT 83de4 9ac .cfa: sp 0 +
STACK CFI 83de8 .cfa: sp 176 +
STACK CFI 83e00 .cfa: x29 64 + x19: .cfa -8 + ^ x20: .cfa -16 + ^ x21: .cfa -24 + ^ x22: .cfa -32 + ^ x23: .cfa -40 + ^ x24: .cfa -48 + ^ .ra: .cfa -56 + ^ x29: .cfa -64 + ^ v8: .cfa -80 + ^
STACK CFI 8467c .cfa: sp 176 +
STACK CFI 84694 .cfa: sp 0 +
STACK CFI 84698 .cfa: x29 64 +
STACK CFI INIT 847fc 444 .cfa: sp 0 +
STACK CFI 84800 .cfa: sp 192 +
STACK CFI 84818 .cfa: x29 80 + x19: .cfa -8 + ^ x20: .cfa -16 + ^ x21: .cfa -24 + ^ x22: .cfa -32 + ^ x23: .cfa -40 + ^ x24: .cfa -48 + ^ x25: .cfa -64 + ^ .ra: .cfa -72 + ^ x29: .cfa -80 + ^
STACK CFI 84b34 .cfa: sp 192 +
STACK CFI 84b4c .cfa: sp 0 +
STACK CFI 84b50 .cfa: x29 80 +
STACK CFI INIT 84f50 148 .cfa: sp 0 +
STACK CFI 84f54 .cfa: sp 80 +
STACK CFI 84f64 .cfa: x29 48 + x19: .cfa -8 + ^ x20: .cfa -16 + ^ x21: .cfa -24 + ^ x22: .cfa -32 + ^ .ra: .cfa -40 + ^ x29: .cfa -48 + ^
STACK CFI 85010 .cfa: sp 80 +
STACK CFI 85020 .cfa: sp 0 +
STACK CFI 85024 .cfa: x29 48 +
STACK CFI INIT 85098 138 .cfa: sp 0 +
STACK CFI 8509c .cfa: sp 48 +
STACK CFI 850a8 .cfa: x29 48 + x19: .cfa -8 + ^ x20: .cfa -16 + ^ x21: .cfa -32 + ^ .ra: .cfa -40 + ^ x29: .cfa -48 + ^
STACK CFI 851bc .cfa: sp 48 +
STACK CFI 851c8 .cfa: sp 0 +
STACK CFI 851cc .cfa: x29 48 +
STACK CFI INIT 8525c b2c .cfa: sp 0 +
STACK CFI 85260 .cfa: sp 336 +
STACK CFI 85274 .cfa: x29 64 + x19: .cfa -8 + ^ x20: .cfa -16 + ^ x21: .cfa -24 + ^ x22: .cfa -32 + ^ x23: .cfa -40 + ^ x28: .cfa -48 + ^ .ra: .cfa -56 + ^ x29: .cfa -64 + ^
STACK CFI 85a7c .cfa: sp 336 +
STACK CFI 85a90 .cfa: sp 0 +
STACK CFI 85a94 .cfa: x29 64 +
STACK CFI INIT 85d88 460 .cfa: sp 0 +
STACK CFI 85d8c .cfa: sp 96 +
STACK CFI 85d9c .cfa: x29 48 + x19: .cfa -8 + ^ x20: .cfa -16 + ^ x21: .cfa -24 + ^ x22: .cfa -32 + ^ .ra: .cfa -40 + ^ x29: .cfa -48 + ^
STACK CFI 86190 .cfa: sp 96 +
STACK CFI 861a0 .cfa: sp 0 +
STACK CFI 861a4 .cfa: x29 48 +
STACK CFI INIT 861e8 b8 .cfa: sp 0 +
STACK CFI 861ec .cfa: sp 64 +
STACK CFI 861f8 .cfa: x29 32 + x19: .cfa -8 + ^ x20: .cfa -16 + ^ .ra: .cfa -24 + ^ x29: .cfa -32 + ^
STACK CFI 86260 .cfa: sp 64 +
STACK CFI 8626c .cfa: sp 0 +
STACK CFI 86270 .cfa: x29 32 +
STACK CFI INIT 862a0 20c .cfa: sp 0 +
STACK CFI 862a4 .cfa: sp 80 +
STACK CFI 862b4 .cfa: x29 48 + x19: .cfa -8 + ^ x20: .cfa -16 + ^ x21: .cfa -24 + ^ x22: .cfa -32 + ^ .ra: .cfa -40 + ^ x29: .cfa -48 + ^
STACK CFI 86404 .cfa: sp 80 +
STACK CFI 86414 .cfa: sp 0 +
STACK CFI 86418 .cfa: x29 48 +
STACK CFI INIT 864ac 164 .cfa: sp 0 +
STACK CFI 864b0 .cfa: sp 64 +
STACK CFI 864bc .cfa: x29 32 + x19: .cfa -8 + ^ x20: .cfa -16 + ^ .ra: .cfa -24 + ^ x29: .cfa -32 + ^
STACK CFI 865d8 .cfa: sp 64 +
STACK CFI 865e4 .cfa: sp 0 +
STACK CFI 865e8 .cfa: x29 32 +
STACK CFI INIT 86610 b4 .cfa: sp 0 +
STACK CFI 86614 .cfa: sp 32 +
STACK CFI 8661c .cfa: x29 32 + x19: .cfa -16 + ^ .ra: .cfa -24 + ^ x29: .cfa -32 + ^
STACK CFI 866b0 .cfa: sp 32 +
STACK CFI 866b8 .cfa: sp 0 +
STACK CFI 866bc .cfa: x29 32 +
STACK CFI INIT 86718 300 .cfa: sp 0 +
STACK CFI 8671c .cfa: sp 208 +
STACK CFI 86730 .cfa: x29 64 + x19: .cfa -8 + ^ x20: .cfa -16 + ^ x21: .cfa -24 + ^ x22: .cfa -32 + ^ x23: .cfa -48 + ^ .ra: .cfa -56 + ^ x29: .cfa -64 + ^
STACK CFI 869ac .cfa: sp 208 +
STACK CFI 869c0 .cfa: sp 0 +
STACK CFI 869c4 .cfa: x29 64 +
STACK CFI INIT 86a18 138 .cfa: sp 0 +
STACK CFI 86a1c .cfa: sp 32 +
STACK CFI 86a24 .cfa: x29 32 + x19: .cfa -8 + ^ x20: .cfa -16 + ^ .ra: .cfa -24 + ^ x29: .cfa -32 + ^
STACK CFI 86b3c .cfa: sp 32 +
STACK CFI 86b44 .cfa: sp 0 +
STACK CFI 86b48 .cfa: x29 32 +
STACK CFI INIT 86bf8 570 .cfa: sp 0 +
STACK CFI 86bfc .cfa: sp 96 +
STACK CFI 86c14 .cfa: x29 96 + x19: .cfa -8 + ^ x20: .cfa -16 + ^ x21: .cfa -24 + ^ x22: .cfa -32 + ^ x23: .cfa -40 + ^ x24: .cfa -48 + ^ x25: .cfa -56 + ^ x26: .cfa -64 + ^ x27: .cfa -72 + ^ x28: .cfa -80 + ^ .ra: .cfa -88 + ^ x29: .cfa -96 + ^
STACK CFI 86e30 .cfa: sp 96 +
STACK CFI 86e48 .cfa: sp 0 +
STACK CFI 86e4c .cfa: x29 96 +
STACK CFI INIT 87190 7ac .cfa: sp 0 +
STACK CFI 87194 .cfa: sp 208 +
STACK CFI 871a8 .cfa: x29 64 + x19: .cfa -8 + ^ x20: .cfa -16 + ^ x21: .cfa -24 + ^ x22: .cfa -32 + ^ x23: .cfa -48 + ^ .ra: .cfa -56 + ^ x29: .cfa -64 + ^
STACK CFI 878b4 .cfa: sp 208 +
STACK CFI 878c8 .cfa: sp 0 +
STACK CFI 878cc .cfa: x29 64 +
STACK CFI INIT 87968 10c .cfa: sp 0 +
STACK CFI 8796c .cfa: sp 128 +
STACK CFI 8797c .cfa: x29 48 + x19: .cfa -8 + ^ x20: .cfa -16 + ^ x21: .cfa -24 + ^ x22: .cfa -32 + ^ .ra: .cfa -40 + ^ x29: .cfa -48 + ^
STACK CFI 87a58 .cfa: sp 128 +
STACK CFI 87a68 .cfa: sp 0 +
STACK CFI 87a6c .cfa: x29 48 +
STACK CFI INIT 87a74 4b8 .cfa: sp 0 +
STACK CFI 87a78 .cfa: sp 160 +
STACK CFI 87a90 .cfa: x29 80 + x19: .cfa -8 + ^ x20: .cfa -16 + ^ x21: .cfa -24 + ^ x22: .cfa -32 + ^ x23: .cfa -40 + ^ x24: .cfa -48 + ^ x25: .cfa -56 + ^ x26: .cfa -64 + ^ .ra: .cfa -72 + ^ x29: .cfa -80 + ^
STACK CFI 87ea8 .cfa: sp 160 +
STACK CFI 87ec0 .cfa: sp 0 +
STACK CFI 87ec4 .cfa: x29 80 +
STACK CFI INIT 87f2c 74 .cfa: sp 0 +
STACK CFI 87f30 .cfa: sp 48 +
STACK CFI 87f3c .cfa: x29 32 + x19: .cfa -8 + ^ x20: .cfa -16 + ^ .ra: .cfa -24 + ^ x29: .cfa -32 + ^
STACK CFI 87f88 .cfa: sp 48 +
STACK CFI 87f94 .cfa: sp 0 +
STACK CFI 87f98 .cfa: x29 32 +
STACK CFI INIT 87fa0 1a0 .cfa: sp 0 +
STACK CFI 87fa4 .cfa: sp 80 +
STACK CFI 87fb4 .cfa: x29 48 + x19: .cfa -8 + ^ x20: .cfa -16 + ^ x21: .cfa -24 + ^ x22: .cfa -32 + ^ .ra: .cfa -40 + ^ x29: .cfa -48 + ^
STACK CFI 880a8 .cfa: sp 80 +
STACK CFI 880b8 .cfa: sp 0 +
STACK CFI 880bc .cfa: x29 48 +
STACK CFI INIT 88140 140 .cfa: sp 0 +
STACK CFI 88144 .cfa: sp 32 +
STACK CFI 8814c .cfa: x29 32 + x19: .cfa -8 + ^ x20: .cfa -16 + ^ .ra: .cfa -24 + ^ x29: .cfa -32 + ^
STACK CFI 8826c .cfa: sp 32 +
STACK CFI 88274 .cfa: sp 0 +
STACK CFI 88278 .cfa: x29 32 +
STACK CFI INIT 88328 398 .cfa: sp 0 +
STACK CFI 8832c .cfa: sp 80 +
STACK CFI 88340 .cfa: x29 80 + x19: .cfa -8 + ^ x20: .cfa -16 + ^ x21: .cfa -24 + ^ x22: .cfa -32 + ^ x23: .cfa -40 + ^ x24: .cfa -48 + ^ x25: .cfa -56 + ^ x28: .cfa -64 + ^ .ra: .cfa -72 + ^ x29: .cfa -80 + ^
STACK CFI 8854c .cfa: sp 80 +
STACK CFI 88560 .cfa: sp 0 +
STACK CFI 88564 .cfa: x29 80 +
STACK CFI INIT 886e8 48c .cfa: sp 0 +
STACK CFI 886ec .cfa: sp 256 +
STACK CFI 88710 .cfa: x29 96 + x19: .cfa -8 + ^ x20: .cfa -16 + ^ x21: .cfa -24 + ^ x22: .cfa -32 + ^ x23: .cfa -40 + ^ x24: .cfa -48 + ^ x25: .cfa -56 + ^ x26: .cfa -64 + ^ x27: .cfa -72 + ^ x28: .cfa -80 + ^ .ra: .cfa -88 + ^ x29: .cfa -96 + ^ v8: .cfa -104 + ^ v9: .cfa -112 + ^ v10: .cfa -128 + ^
STACK CFI 88ad0 .cfa: sp 256 +
STACK CFI 88af4 .cfa: sp 0 +
STACK CFI 88af8 .cfa: x29 96 +
STACK CFI INIT 88b74 78c .cfa: sp 0 +
STACK CFI 88b78 .cfa: sp 384 +
STACK CFI 88b9c .cfa: x29 96 + x19: .cfa -8 + ^ x20: .cfa -16 + ^ x21: .cfa -24 + ^ x22: .cfa -32 + ^ x23: .cfa -40 + ^ x24: .cfa -48 + ^ x25: .cfa -56 + ^ x26: .cfa -64 + ^ x27: .cfa -72 + ^ x28: .cfa -80 + ^ .ra: .cfa -88 + ^ x29: .cfa -96 + ^ v8: .cfa -104 + ^ v9: .cfa -112 + ^ v10: .cfa -128 + ^
STACK CFI 89198 .cfa: sp 384 +
STACK CFI 891bc .cfa: sp 0 +
STACK CFI 891c0 .cfa: x29 96 +
STACK CFI INIT 89300 108 .cfa: sp 0 +
STACK CFI 89304 .cfa: sp 112 +
STACK CFI 8931c .cfa: x29 80 + x19: .cfa -8 + ^ x20: .cfa -16 + ^ x21: .cfa -24 + ^ x22: .cfa -32 + ^ x23: .cfa -40 + ^ x24: .cfa -48 + ^ x25: .cfa -64 + ^ .ra: .cfa -72 + ^ x29: .cfa -80 + ^
STACK CFI 893ac .cfa: sp 112 +
STACK CFI 893c4 .cfa: sp 0 +
STACK CFI 893c8 .cfa: x29 80 +
STACK CFI INIT 89408 840 .cfa: sp 0 +
STACK CFI 8940c .cfa: sp 416 +
STACK CFI 8942c .cfa: x29 96 + x19: .cfa -8 + ^ x20: .cfa -16 + ^ x21: .cfa -24 + ^ x22: .cfa -32 + ^ x23: .cfa -40 + ^ x24: .cfa -48 + ^ x25: .cfa -56 + ^ x26: .cfa -64 + ^ x27: .cfa -72 + ^ x28: .cfa -80 + ^ .ra: .cfa -88 + ^ x29: .cfa -96 + ^ v8: .cfa -112 + ^
STACK CFI 89aa4 .cfa: sp 416 +
STACK CFI 89ac4 .cfa: sp 0 +
STACK CFI 89ac8 .cfa: x29 96 +
STACK CFI INIT 89c48 214 .cfa: sp 0 +
STACK CFI 89c4c .cfa: sp 176 +
STACK CFI 89c60 .cfa: x29 64 + x19: .cfa -8 + ^ x20: .cfa -16 + ^ x21: .cfa -24 + ^ x22: .cfa -32 + ^ x23: .cfa -48 + ^ .ra: .cfa -56 + ^ x29: .cfa -64 + ^
STACK CFI 89dc0 .cfa: sp 176 +
STACK CFI 89dd4 .cfa: sp 0 +
STACK CFI 89dd8 .cfa: x29 64 +
STACK CFI INIT 89e70 1ac .cfa: sp 0 +
STACK CFI 89e74 .cfa: sp 144 +
STACK CFI 89e88 .cfa: x29 64 + x19: .cfa -8 + ^ x20: .cfa -16 + ^ x21: .cfa -24 + ^ x22: .cfa -32 + ^ x23: .cfa -48 + ^ .ra: .cfa -56 + ^ x29: .cfa -64 + ^
STACK CFI 89fb8 .cfa: sp 144 +
STACK CFI 89fcc .cfa: sp 0 +
STACK CFI 89fd0 .cfa: x29 64 +
STACK CFI INIT 8a01c 74 .cfa: sp 0 +
STACK CFI 8a020 .cfa: sp 48 +
STACK CFI 8a02c .cfa: x29 32 + x19: .cfa -8 + ^ x20: .cfa -16 + ^ .ra: .cfa -24 + ^ x29: .cfa -32 + ^
STACK CFI 8a078 .cfa: sp 48 +
STACK CFI 8a084 .cfa: sp 0 +
STACK CFI 8a088 .cfa: x29 32 +
STACK CFI INIT 8a090 58c .cfa: sp 0 +
STACK CFI 8a094 .cfa: sp 208 +
STACK CFI 8a0b4 .cfa: x29 96 + x19: .cfa -8 + ^ x20: .cfa -16 + ^ x21: .cfa -24 + ^ x22: .cfa -32 + ^ x23: .cfa -40 + ^ x24: .cfa -48 + ^ x25: .cfa -56 + ^ x26: .cfa -64 + ^ x27: .cfa -72 + ^ x28: .cfa -80 + ^ .ra: .cfa -88 + ^ x29: .cfa -96 + ^ v8: .cfa -112 + ^
STACK CFI 8a46c .cfa: sp 208 +
STACK CFI 8a48c .cfa: sp 0 +
STACK CFI 8a490 .cfa: x29 96 +
STACK CFI INIT 8a61c 108 .cfa: sp 0 +
STACK CFI 8a620 .cfa: sp 112 +
STACK CFI 8a62c .cfa: x29 32 + x19: .cfa -8 + ^ x20: .cfa -16 + ^ .ra: .cfa -24 + ^ x29: .cfa -32 + ^
STACK CFI 8a6f4 .cfa: sp 112 +
STACK CFI 8a700 .cfa: sp 0 +
STACK CFI 8a704 .cfa: x29 32 +
STACK CFI INIT 8a724 74 .cfa: sp 0 +
STACK CFI 8a728 .cfa: sp 48 +
STACK CFI 8a734 .cfa: x29 32 + x19: .cfa -8 + ^ x20: .cfa -16 + ^ .ra: .cfa -24 + ^ x29: .cfa -32 + ^
STACK CFI 8a780 .cfa: sp 48 +
STACK CFI 8a78c .cfa: sp 0 +
STACK CFI 8a790 .cfa: x29 32 +
STACK CFI INIT 8a7f0 3f0 .cfa: sp 0 +
STACK CFI 8a7f4 .cfa: sp 304 +
STACK CFI 8a804 .cfa: x29 48 + x19: .cfa -8 + ^ x20: .cfa -16 + ^ x21: .cfa -24 + ^ x28: .cfa -32 + ^ .ra: .cfa -40 + ^ x29: .cfa -48 + ^
STACK CFI 8aa20 .cfa: sp 304 +
STACK CFI 8aa30 .cfa: sp 0 +
STACK CFI 8aa34 .cfa: x29 48 +
STACK CFI INIT 8abe0 13a0 .cfa: sp 0 +
STACK CFI 8abe4 .cfa: sp 160 +
STACK CFI 8ac0c .cfa: x29 96 + x19: .cfa -8 + ^ x20: .cfa -16 + ^ x21: .cfa -24 + ^ x22: .cfa -32 + ^ x23: .cfa -40 + ^ x24: .cfa -48 + ^ x25: .cfa -56 + ^ x26: .cfa -64 + ^ x27: .cfa -72 + ^ x28: .cfa -80 + ^ .ra: .cfa -88 + ^ x29: .cfa -96 + ^ v8: .cfa -104 + ^ v9: .cfa -112 + ^ v10: .cfa -120 + ^ v11: .cfa -128 + ^ v12: .cfa -136 + ^ v13: .cfa -144 + ^ v14: .cfa -152 + ^ v15: .cfa -160 + ^
STACK CFI 8bd04 .cfa: sp 160 +
STACK CFI 8bd2c .cfa: sp 0 +
STACK CFI 8bd30 .cfa: x29 96 +
STACK CFI INIT 8bf80 164 .cfa: sp 0 +
STACK CFI 8bf84 .cfa: sp 64 +
STACK CFI 8bf90 .cfa: x29 32 + x19: .cfa -8 + ^ x20: .cfa -16 + ^ .ra: .cfa -24 + ^ x29: .cfa -32 + ^
STACK CFI 8c0ac .cfa: sp 64 +
STACK CFI 8c0b8 .cfa: sp 0 +
STACK CFI 8c0bc .cfa: x29 32 +
STACK CFI INIT 8c0e4 b4 .cfa: sp 0 +
STACK CFI 8c0e8 .cfa: sp 32 +
STACK CFI 8c0f0 .cfa: x29 32 + x19: .cfa -16 + ^ .ra: .cfa -24 + ^ x29: .cfa -32 + ^
STACK CFI 8c184 .cfa: sp 32 +
STACK CFI 8c18c .cfa: sp 0 +
STACK CFI 8c190 .cfa: x29 32 +
STACK CFI INIT 8c1ec b58 .cfa: sp 0 +
STACK CFI 8c1f0 .cfa: sp 144 +
STACK CFI 8c214 .cfa: x29 96 + x19: .cfa -8 + ^ x20: .cfa -16 + ^ x21: .cfa -24 + ^ x22: .cfa -32 + ^ x23: .cfa -40 + ^ x24: .cfa -48 + ^ x25: .cfa -56 + ^ x26: .cfa -64 + ^ x27: .cfa -72 + ^ x28: .cfa -80 + ^ .ra: .cfa -88 + ^ x29: .cfa -96 + ^ v8: .cfa -104 + ^ v9: .cfa -112 + ^ v10: .cfa -120 + ^ v11: .cfa -128 + ^ v12: .cfa -136 + ^ v13: .cfa -144 + ^
STACK CFI 8cbb0 .cfa: sp 144 +
STACK CFI 8cbd4 .cfa: sp 0 +
STACK CFI 8cbd8 .cfa: x29 96 +
STACK CFI INIT 8cd44 174 .cfa: sp 0 +
STACK CFI 8cd48 .cfa: sp 80 +
STACK CFI 8cd58 .cfa: x29 48 + x19: .cfa -8 + ^ x20: .cfa -16 + ^ x21: .cfa -32 + ^ .ra: .cfa -40 + ^ x29: .cfa -48 + ^
STACK CFI 8ce7c .cfa: sp 80 +
STACK CFI 8ce8c .cfa: sp 0 +
STACK CFI 8ce90 .cfa: x29 48 +
STACK CFI INIT 8ceb8 b4 .cfa: sp 0 +
STACK CFI 8cebc .cfa: sp 32 +
STACK CFI 8cec4 .cfa: x29 32 + x19: .cfa -16 + ^ .ra: .cfa -24 + ^ x29: .cfa -32 + ^
STACK CFI 8cf58 .cfa: sp 32 +
STACK CFI 8cf60 .cfa: sp 0 +
STACK CFI 8cf64 .cfa: x29 32 +
STACK CFI INIT 8cfc0 46c .cfa: sp 0 +
STACK CFI 8cfc4 .cfa: sp 320 +
STACK CFI 8cfd8 .cfa: x29 64 + x19: .cfa -8 + ^ x20: .cfa -16 + ^ x21: .cfa -24 + ^ x22: .cfa -32 + ^ x28: .cfa -48 + ^ .ra: .cfa -56 + ^ x29: .cfa -64 + ^
STACK CFI 8d268 .cfa: sp 320 +
STACK CFI 8d27c .cfa: sp 0 +
STACK CFI 8d280 .cfa: x29 64 +
STACK CFI INIT 8d42c 5ac .cfa: sp 0 +
STACK CFI 8d430 .cfa: sp 256 +
STACK CFI 8d44c .cfa: x29 96 + x19: .cfa -8 + ^ x20: .cfa -16 + ^ x21: .cfa -24 + ^ x22: .cfa -32 + ^ x23: .cfa -40 + ^ x24: .cfa -48 + ^ x25: .cfa -56 + ^ x26: .cfa -64 + ^ x27: .cfa -72 + ^ x28: .cfa -80 + ^ .ra: .cfa -88 + ^ x29: .cfa -96 + ^
STACK CFI 8d59c .cfa: sp 256 +
STACK CFI 8d5b8 .cfa: sp 0 +
STACK CFI 8d5bc .cfa: x29 96 +
STACK CFI INIT 8d9d8 3170 .cfa: sp 0 +
STACK CFI 8d9dc .cfa: sp 112 +
STACK CFI 8d9f8 .cfa: x29 96 + x19: .cfa -8 + ^ x20: .cfa -16 + ^ x21: .cfa -24 + ^ x22: .cfa -32 + ^ x23: .cfa -40 + ^ x24: .cfa -48 + ^ x25: .cfa -56 + ^ x26: .cfa -64 + ^ x27: .cfa -72 + ^ x28: .cfa -80 + ^ .ra: .cfa -88 + ^ x29: .cfa -96 + ^ v8: .cfa -104 + ^ v9: .cfa -112 + ^
STACK CFI 8dbcc .cfa: sp 112 +
STACK CFI 8dbe8 .cfa: sp 0 +
STACK CFI 8dbec .cfa: x29 96 +
STACK CFI INIT 936bc b2c .cfa: sp 0 +
STACK CFI 936c0 .cfa: sp 336 +
STACK CFI 936d4 .cfa: x29 64 + x19: .cfa -8 + ^ x20: .cfa -16 + ^ x21: .cfa -24 + ^ x22: .cfa -32 + ^ x23: .cfa -40 + ^ x28: .cfa -48 + ^ .ra: .cfa -56 + ^ x29: .cfa -64 + ^
STACK CFI 93edc .cfa: sp 336 +
STACK CFI 93ef0 .cfa: sp 0 +
STACK CFI 93ef4 .cfa: x29 64 +
STACK CFI INIT 942c4 14a8 .cfa: sp 0 +
STACK CFI 942c8 .cfa: sp 192 +
STACK CFI 942e4 .cfa: x29 80 + x19: .cfa -8 + ^ x20: .cfa -16 + ^ x21: .cfa -24 + ^ x22: .cfa -32 + ^ x23: .cfa -40 + ^ x24: .cfa -48 + ^ x25: .cfa -64 + ^ .ra: .cfa -72 + ^ x29: .cfa -80 + ^ v8: .cfa -88 + ^ v9: .cfa -96 + ^
STACK CFI 955e8 .cfa: sp 192 +
STACK CFI 95604 .cfa: sp 0 +
STACK CFI 95608 .cfa: x29 80 +
STACK CFI INIT 95838 174 .cfa: sp 0 +
STACK CFI 9583c .cfa: sp 80 +
STACK CFI 9584c .cfa: x29 48 + x19: .cfa -8 + ^ x20: .cfa -16 + ^ x21: .cfa -32 + ^ .ra: .cfa -40 + ^ x29: .cfa -48 + ^
STACK CFI 95960 .cfa: sp 80 +
STACK CFI 95970 .cfa: sp 0 +
STACK CFI 95974 .cfa: x29 48 +
STACK CFI INIT 959ac 19bc .cfa: sp 0 +
STACK CFI 959b0 .cfa: sp 112 +
STACK CFI 959cc .cfa: x29 96 + x19: .cfa -8 + ^ x20: .cfa -16 + ^ x21: .cfa -24 + ^ x22: .cfa -32 + ^ x23: .cfa -40 + ^ x24: .cfa -48 + ^ x25: .cfa -56 + ^ x26: .cfa -64 + ^ x27: .cfa -72 + ^ x28: .cfa -80 + ^ .ra: .cfa -88 + ^ x29: .cfa -96 + ^ v8: .cfa -112 + ^
STACK CFI 96ef8 .cfa: sp 112 +
STACK CFI 96f14 .cfa: sp 0 +
STACK CFI 96f18 .cfa: x29 96 +
STACK CFI INIT 97368 8dc .cfa: sp 0 +
STACK CFI 9736c .cfa: sp 256 +
STACK CFI 97388 .cfa: x29 96 + x19: .cfa -8 + ^ x20: .cfa -16 + ^ x21: .cfa -24 + ^ x22: .cfa -32 + ^ x23: .cfa -40 + ^ x24: .cfa -48 + ^ x25: .cfa -56 + ^ x26: .cfa -64 + ^ x27: .cfa -72 + ^ x28: .cfa -80 + ^ .ra: .cfa -88 + ^ x29: .cfa -96 + ^
STACK CFI 97ac4 .cfa: sp 256 +
STACK CFI 97ae0 .cfa: sp 0 +
STACK CFI 97ae4 .cfa: x29 96 +
STACK CFI INIT 97fa4 158 .cfa: sp 0 +
STACK CFI 97fa8 .cfa: sp 96 +
STACK CFI 97fbc .cfa: x29 64 + x19: .cfa -8 + ^ x20: .cfa -16 + ^ x21: .cfa -24 + ^ x22: .cfa -32 + ^ x23: .cfa -48 + ^ .ra: .cfa -56 + ^ x29: .cfa -64 + ^
STACK CFI 98088 .cfa: sp 96 +
STACK CFI 9809c .cfa: sp 0 +
STACK CFI 980a0 .cfa: x29 64 +
STACK CFI INIT 980fc 170 .cfa: sp 0 +
STACK CFI 98100 .cfa: sp 80 +
STACK CFI 98110 .cfa: x29 48 + x19: .cfa -8 + ^ x20: .cfa -16 + ^ x21: .cfa -24 + ^ x22: .cfa -32 + ^ .ra: .cfa -40 + ^ x29: .cfa -48 + ^
STACK CFI 981d4 .cfa: sp 80 +
STACK CFI 981e4 .cfa: sp 0 +
STACK CFI 981e8 .cfa: x29 48 +
STACK CFI INIT 9826c 190 .cfa: sp 0 +
STACK CFI 98270 .cfa: sp 48 +
STACK CFI 9827c .cfa: x29 48 + x19: .cfa -8 + ^ x20: .cfa -16 + ^ x21: .cfa -32 + ^ .ra: .cfa -40 + ^ x29: .cfa -48 + ^
STACK CFI 983e8 .cfa: sp 48 +
STACK CFI 983f4 .cfa: sp 0 +
STACK CFI 983f8 .cfa: x29 48 +
STACK CFI INIT 98450 6c0 .cfa: sp 0 +
STACK CFI 98454 .cfa: sp 144 +
STACK CFI 9846c .cfa: x29 80 + x19: .cfa -8 + ^ x20: .cfa -16 + ^ x21: .cfa -24 + ^ x22: .cfa -32 + ^ x23: .cfa -40 + ^ x24: .cfa -48 + ^ x25: .cfa -64 + ^ .ra: .cfa -72 + ^ x29: .cfa -80 + ^
STACK CFI 98a44 .cfa: sp 144 +
STACK CFI 98a5c .cfa: sp 0 +
STACK CFI 98a60 .cfa: x29 80 +
STACK CFI INIT 98b10 178 .cfa: sp 0 +
STACK CFI 98b14 .cfa: sp 96 +
STACK CFI 98b28 .cfa: x29 64 + x19: .cfa -8 + ^ x20: .cfa -16 + ^ x21: .cfa -24 + ^ x22: .cfa -32 + ^ x23: .cfa -48 + ^ .ra: .cfa -56 + ^ x29: .cfa -64 + ^
STACK CFI 98c40 .cfa: sp 96 +
STACK CFI 98c54 .cfa: sp 0 +
STACK CFI 98c58 .cfa: x29 64 +
STACK CFI INIT 98c88 98 .cfa: sp 0 +
STACK CFI 98c8c .cfa: sp 64 +
STACK CFI 98c98 .cfa: x29 32 + x19: .cfa -8 + ^ x20: .cfa -16 + ^ .ra: .cfa -24 + ^ x29: .cfa -32 + ^
STACK CFI 98ce0 .cfa: sp 64 +
STACK CFI 98cec .cfa: sp 0 +
STACK CFI 98cf0 .cfa: x29 32 +
STACK CFI INIT 98d20 e8 .cfa: sp 0 +
STACK CFI 98d24 .cfa: sp 80 +
STACK CFI 98d34 .cfa: x29 48 + x19: .cfa -8 + ^ x20: .cfa -16 + ^ x21: .cfa -32 + ^ .ra: .cfa -40 + ^ x29: .cfa -48 + ^
STACK CFI 98dc0 .cfa: sp 80 +
STACK CFI 98dd0 .cfa: sp 0 +
STACK CFI 98dd4 .cfa: x29 48 +
STACK CFI INIT 98e08 e8 .cfa: sp 0 +
STACK CFI 98e0c .cfa: sp 80 +
STACK CFI 98e1c .cfa: x29 48 + x19: .cfa -8 + ^ x20: .cfa -16 + ^ x21: .cfa -32 + ^ .ra: .cfa -40 + ^ x29: .cfa -48 + ^
STACK CFI 98ea8 .cfa: sp 80 +
STACK CFI 98eb8 .cfa: sp 0 +
STACK CFI 98ebc .cfa: x29 48 +
STACK CFI INIT 98ef0 b4 .cfa: sp 0 +
STACK CFI 98ef4 .cfa: sp 32 +
STACK CFI 98efc .cfa: x29 32 + x19: .cfa -16 + ^ .ra: .cfa -24 + ^ x29: .cfa -32 + ^
STACK CFI 98f90 .cfa: sp 32 +
STACK CFI 98f98 .cfa: sp 0 +
STACK CFI 98f9c .cfa: x29 32 +
STACK CFI INIT 9d0bc 1c6c .cfa: sp 0 +
STACK CFI 9d0c0 .cfa: sp 272 +
STACK CFI 9d0e0 .cfa: x29 96 + x19: .cfa -8 + ^ x20: .cfa -16 + ^ x21: .cfa -24 + ^ x22: .cfa -32 + ^ x23: .cfa -40 + ^ x24: .cfa -48 + ^ x25: .cfa -56 + ^ x26: .cfa -64 + ^ x27: .cfa -72 + ^ x28: .cfa -80 + ^ .ra: .cfa -88 + ^ x29: .cfa -96 + ^ v8: .cfa -104 + ^ v9: .cfa -112 + ^
STACK CFI 9e8ac .cfa: sp 272 +
STACK CFI 9e8cc .cfa: sp 0 +
STACK CFI 9e8d0 .cfa: x29 96 +
STACK CFI INIT 9f160 268 .cfa: sp 0 +
STACK CFI 9f164 .cfa: sp 80 +
STACK CFI 9f174 .cfa: x29 48 + x19: .cfa -8 + ^ x20: .cfa -16 + ^ x21: .cfa -32 + ^ .ra: .cfa -40 + ^ x29: .cfa -48 + ^
STACK CFI 9f374 .cfa: sp 80 +
STACK CFI 9f384 .cfa: sp 0 +
STACK CFI 9f388 .cfa: x29 48 +
STACK CFI INIT 9f3c8 17f4 .cfa: sp 0 +
STACK CFI 9f3cc .cfa: sp 480 +
STACK CFI 9f3e8 .cfa: x29 96 + x19: .cfa -8 + ^ x20: .cfa -16 + ^ x21: .cfa -24 + ^ x22: .cfa -32 + ^ x23: .cfa -40 + ^ x24: .cfa -48 + ^ x25: .cfa -56 + ^ x26: .cfa -64 + ^ x27: .cfa -72 + ^ x28: .cfa -80 + ^ .ra: .cfa -88 + ^ x29: .cfa -96 + ^
STACK CFI a065c .cfa: sp 480 +
STACK CFI a0678 .cfa: sp 0 +
STACK CFI a067c .cfa: x29 96 +
STACK CFI INIT a0bbc 4678 .cfa: sp 0 +
STACK CFI a0bc0 .cfa: sp 144 +
STACK CFI a0be4 .cfa: x29 96 + x19: .cfa -8 + ^ x20: .cfa -16 + ^ x21: .cfa -24 + ^ x22: .cfa -32 + ^ x23: .cfa -40 + ^ x24: .cfa -48 + ^ x25: .cfa -56 + ^ x26: .cfa -64 + ^ x27: .cfa -72 + ^ x28: .cfa -80 + ^ .ra: .cfa -88 + ^ x29: .cfa -96 + ^ v8: .cfa -104 + ^ v9: .cfa -112 + ^ v10: .cfa -120 + ^ v11: .cfa -128 + ^ v12: .cfa -144 + ^
STACK CFI a4798 .cfa: sp 144 +
STACK CFI a47bc .cfa: sp 0 +
STACK CFI a47c0 .cfa: x29 96 +
STACK CFI INIT a5234 230 .cfa: sp 0 +
STACK CFI a5238 .cfa: sp 192 +
STACK CFI a524c .cfa: x29 64 + x19: .cfa -8 + ^ x20: .cfa -16 + ^ x21: .cfa -24 + ^ x22: .cfa -32 + ^ x23: .cfa -40 + ^ x24: .cfa -48 + ^ .ra: .cfa -56 + ^ x29: .cfa -64 + ^
STACK CFI a53e0 .cfa: sp 192 +
STACK CFI a53f4 .cfa: sp 0 +
STACK CFI a53f8 .cfa: x29 64 +
STACK CFI INIT a5464 2d8 .cfa: sp 0 +
STACK CFI a5468 .cfa: sp 192 +
STACK CFI a547c .cfa: x29 64 + x19: .cfa -8 + ^ x20: .cfa -16 + ^ x21: .cfa -24 + ^ x22: .cfa -32 + ^ x23: .cfa -40 + ^ x24: .cfa -48 + ^ .ra: .cfa -56 + ^ x29: .cfa -64 + ^
STACK CFI a565c .cfa: sp 192 +
STACK CFI a5670 .cfa: sp 0 +
STACK CFI a5674 .cfa: x29 64 +
STACK CFI INIT a573c 2b8 .cfa: sp 0 +
STACK CFI a5740 .cfa: sp 224 +
STACK CFI a5754 .cfa: x29 64 + x19: .cfa -8 + ^ x20: .cfa -16 + ^ x21: .cfa -24 + ^ x22: .cfa -32 + ^ x23: .cfa -40 + ^ x24: .cfa -48 + ^ .ra: .cfa -56 + ^ x29: .cfa -64 + ^
STACK CFI a59b0 .cfa: sp 224 +
STACK CFI a59c4 .cfa: sp 0 +
STACK CFI a59c8 .cfa: x29 64 +
STACK CFI INIT a59f4 254 .cfa: sp 0 +
STACK CFI a59f8 .cfa: sp 208 +
STACK CFI a5a10 .cfa: x29 80 + x19: .cfa -8 + ^ x20: .cfa -16 + ^ x21: .cfa -24 + ^ x22: .cfa -32 + ^ x23: .cfa -40 + ^ x24: .cfa -48 + ^ x25: .cfa -64 + ^ .ra: .cfa -72 + ^ x29: .cfa -80 + ^
STACK CFI a5bac .cfa: sp 208 +
STACK CFI a5bc4 .cfa: sp 0 +
STACK CFI a5bc8 .cfa: x29 80 +
STACK CFI INIT a5c48 4d4 .cfa: sp 0 +
STACK CFI a5c4c .cfa: sp 224 +
STACK CFI a5c60 .cfa: x29 64 + x19: .cfa -8 + ^ x20: .cfa -16 + ^ x21: .cfa -24 + ^ x22: .cfa -32 + ^ x23: .cfa -40 + ^ x24: .cfa -48 + ^ .ra: .cfa -56 + ^ x29: .cfa -64 + ^
STACK CFI a5ffc .cfa: sp 224 +
STACK CFI a6010 .cfa: sp 0 +
STACK CFI a6014 .cfa: x29 64 +
STACK CFI INIT a611c 4f4 .cfa: sp 0 +
STACK CFI a6120 .cfa: sp 256 +
STACK CFI a6134 .cfa: x29 64 + x19: .cfa -8 + ^ x20: .cfa -16 + ^ x21: .cfa -24 + ^ x22: .cfa -32 + ^ x23: .cfa -40 + ^ x24: .cfa -48 + ^ .ra: .cfa -56 + ^ x29: .cfa -64 + ^
STACK CFI a64d8 .cfa: sp 256 +
STACK CFI a64ec .cfa: sp 0 +
STACK CFI a64f0 .cfa: x29 64 +
STACK CFI INIT a6610 2c0 .cfa: sp 0 +
STACK CFI a6614 .cfa: sp 48 +
STACK CFI a6620 .cfa: x29 48 + x19: .cfa -8 + ^ x20: .cfa -16 + ^ x21: .cfa -32 + ^ .ra: .cfa -40 + ^ x29: .cfa -48 + ^
STACK CFI a67d4 .cfa: sp 48 +
STACK CFI a67e0 .cfa: sp 0 +
STACK CFI a67e4 .cfa: x29 48 +
STACK CFI INIT a68d0 104 .cfa: sp 0 +
STACK CFI a68d4 .cfa: sp 32 +
STACK CFI a68dc .cfa: x29 32 + x19: .cfa -16 + ^ .ra: .cfa -24 + ^ x29: .cfa -32 + ^
STACK CFI a69c0 .cfa: sp 32 +
STACK CFI a69c8 .cfa: sp 0 +
STACK CFI a69cc .cfa: x29 32 +
STACK CFI INIT a6c44 74 .cfa: sp 0 +
STACK CFI a6c48 .cfa: sp 48 +
STACK CFI a6c54 .cfa: x29 32 + x19: .cfa -8 + ^ x20: .cfa -16 + ^ .ra: .cfa -24 + ^ x29: .cfa -32 + ^
STACK CFI a6ca0 .cfa: sp 48 +
STACK CFI a6cac .cfa: sp 0 +
STACK CFI a6cb0 .cfa: x29 32 +
STACK CFI INIT a6cb8 318 .cfa: sp 0 +
STACK CFI a6cbc .cfa: sp 176 +
STACK CFI a6cd8 .cfa: x29 96 + x19: .cfa -8 + ^ x20: .cfa -16 + ^ x21: .cfa -24 + ^ x22: .cfa -32 + ^ x23: .cfa -40 + ^ x24: .cfa -48 + ^ x25: .cfa -56 + ^ x26: .cfa -64 + ^ x27: .cfa -72 + ^ x28: .cfa -80 + ^ .ra: .cfa -88 + ^ x29: .cfa -96 + ^
STACK CFI a6ed4 .cfa: sp 176 +
STACK CFI a6ef0 .cfa: sp 0 +
STACK CFI a6ef4 .cfa: x29 96 +
STACK CFI INIT a6ff4 1dc .cfa: sp 0 +
STACK CFI a6ff8 .cfa: sp 160 +
STACK CFI a7010 .cfa: x29 80 + x19: .cfa -8 + ^ x20: .cfa -16 + ^ x21: .cfa -24 + ^ x22: .cfa -32 + ^ x23: .cfa -40 + ^ x24: .cfa -48 + ^ x25: .cfa -64 + ^ .ra: .cfa -72 + ^ x29: .cfa -80 + ^
STACK CFI a7168 .cfa: sp 160 +
STACK CFI a7180 .cfa: sp 0 +
STACK CFI a7184 .cfa: x29 80 +
STACK CFI INIT a71d0 46c .cfa: sp 0 +
STACK CFI a71d4 .cfa: sp 320 +
STACK CFI a71e8 .cfa: x29 64 + x19: .cfa -8 + ^ x20: .cfa -16 + ^ x21: .cfa -24 + ^ x22: .cfa -32 + ^ x28: .cfa -48 + ^ .ra: .cfa -56 + ^ x29: .cfa -64 + ^
STACK CFI a7478 .cfa: sp 320 +
STACK CFI a748c .cfa: sp 0 +
STACK CFI a7490 .cfa: x29 64 +
STACK CFI INIT a763c 3e8 .cfa: sp 0 +
STACK CFI a7640 .cfa: sp 128 +
STACK CFI a7658 .cfa: x29 80 + x19: .cfa -8 + ^ x20: .cfa -16 + ^ x21: .cfa -24 + ^ x22: .cfa -32 + ^ x23: .cfa -40 + ^ x24: .cfa -48 + ^ x25: .cfa -64 + ^ .ra: .cfa -72 + ^ x29: .cfa -80 + ^
STACK CFI a7858 .cfa: sp 128 +
STACK CFI a7870 .cfa: sp 0 +
STACK CFI a7874 .cfa: x29 80 +
STACK CFI INIT a7a24 cbc .cfa: sp 0 +
STACK CFI a7a28 .cfa: sp 96 +
STACK CFI a7a40 .cfa: x29 96 + x19: .cfa -8 + ^ x20: .cfa -16 + ^ x21: .cfa -24 + ^ x22: .cfa -32 + ^ x23: .cfa -40 + ^ x24: .cfa -48 + ^ x25: .cfa -56 + ^ x26: .cfa -64 + ^ x27: .cfa -72 + ^ x28: .cfa -80 + ^ .ra: .cfa -88 + ^ x29: .cfa -96 + ^
STACK CFI a84cc .cfa: sp 96 +
STACK CFI a84e4 .cfa: sp 0 +
STACK CFI a84e8 .cfa: x29 96 +
STACK CFI INIT a86e0 230 .cfa: sp 0 +
STACK CFI a86e4 .cfa: sp 80 +
STACK CFI a86f8 .cfa: x29 80 + x19: .cfa -8 + ^ x20: .cfa -16 + ^ x21: .cfa -24 + ^ x22: .cfa -32 + ^ x23: .cfa -40 + ^ x24: .cfa -48 + ^ x28: .cfa -64 + ^ .ra: .cfa -72 + ^ x29: .cfa -80 + ^
STACK CFI a887c .cfa: sp 80 +
STACK CFI a8890 .cfa: sp 0 +
STACK CFI a8894 .cfa: x29 80 +
STACK CFI INIT a8910 4d0 .cfa: sp 0 +
STACK CFI a8914 .cfa: sp 256 +
STACK CFI a8924 .cfa: x29 48 + x19: .cfa -8 + ^ x20: .cfa -16 + ^ x21: .cfa -32 + ^ .ra: .cfa -40 + ^ x29: .cfa -48 + ^
STACK CFI a8b90 .cfa: sp 256 +
STACK CFI a8ba0 .cfa: sp 0 +
STACK CFI a8ba4 .cfa: x29 48 +
STACK CFI INIT a8de0 454 .cfa: sp 0 +
STACK CFI a8de4 .cfa: sp 240 +
STACK CFI a8df4 .cfa: x29 48 + x19: .cfa -8 + ^ x20: .cfa -16 + ^ x21: .cfa -24 + ^ x22: .cfa -32 + ^ .ra: .cfa -40 + ^ x29: .cfa -48 + ^
STACK CFI a9138 .cfa: sp 240 +
STACK CFI a9148 .cfa: sp 0 +
STACK CFI a914c .cfa: x29 48 +
STACK CFI INIT a9234 264 .cfa: sp 0 +
STACK CFI a9238 .cfa: sp 192 +
STACK CFI a924c .cfa: x29 64 + x19: .cfa -8 + ^ x20: .cfa -16 + ^ x21: .cfa -24 + ^ x22: .cfa -32 + ^ x23: .cfa -40 + ^ x24: .cfa -48 + ^ .ra: .cfa -56 + ^ x29: .cfa -64 + ^
STACK CFI a9414 .cfa: sp 192 +
STACK CFI a9428 .cfa: sp 0 +
STACK CFI a942c .cfa: x29 64 +
STACK CFI INIT a954c fc .cfa: sp 0 +
STACK CFI a9550 .cfa: sp 112 +
STACK CFI a9568 .cfa: x29 80 + x19: .cfa -8 + ^ x20: .cfa -16 + ^ x21: .cfa -24 + ^ x22: .cfa -32 + ^ x23: .cfa -40 + ^ x24: .cfa -48 + ^ x25: .cfa -64 + ^ .ra: .cfa -72 + ^ x29: .cfa -80 + ^
STACK CFI a95f4 .cfa: sp 112 +
STACK CFI a960c .cfa: sp 0 +
STACK CFI a9610 .cfa: x29 80 +
STACK CFI INIT a969c 7c4 .cfa: sp 0 +
STACK CFI a96a0 .cfa: sp 96 +
STACK CFI a96b8 .cfa: x29 96 + x19: .cfa -8 + ^ x20: .cfa -16 + ^ x21: .cfa -24 + ^ x22: .cfa -32 + ^ x23: .cfa -40 + ^ x24: .cfa -48 + ^ x25: .cfa -56 + ^ x26: .cfa -64 + ^ x27: .cfa -72 + ^ x28: .cfa -80 + ^ .ra: .cfa -88 + ^ x29: .cfa -96 + ^
STACK CFI a9d24 .cfa: sp 96 +
STACK CFI a9d3c .cfa: sp 0 +
STACK CFI a9d40 .cfa: x29 96 +
STACK CFI INIT a9e60 74 .cfa: sp 0 +
STACK CFI a9e64 .cfa: sp 48 +
STACK CFI a9e70 .cfa: x29 32 + x19: .cfa -8 + ^ x20: .cfa -16 + ^ .ra: .cfa -24 + ^ x29: .cfa -32 + ^
STACK CFI a9ebc .cfa: sp 48 +
STACK CFI a9ec8 .cfa: sp 0 +
STACK CFI a9ecc .cfa: x29 32 +
STACK CFI INIT a9ed4 b10 .cfa: sp 0 +
STACK CFI a9ed8 .cfa: sp 480 +
STACK CFI a9ef4 .cfa: x29 96 + x19: .cfa -8 + ^ x20: .cfa -16 + ^ x21: .cfa -24 + ^ x22: .cfa -32 + ^ x23: .cfa -40 + ^ x24: .cfa -48 + ^ x25: .cfa -56 + ^ x26: .cfa -64 + ^ x27: .cfa -72 + ^ x28: .cfa -80 + ^ .ra: .cfa -88 + ^ x29: .cfa -96 + ^
STACK CFI aa130 .cfa: sp 480 +
STACK CFI aa14c .cfa: sp 0 +
STACK CFI aa150 .cfa: x29 96 +
STACK CFI INIT aa9e4 2c0 .cfa: sp 0 +
STACK CFI aa9e8 .cfa: sp 144 +
STACK CFI aa9fc .cfa: x29 64 + x19: .cfa -8 + ^ x20: .cfa -16 + ^ x21: .cfa -24 + ^ x22: .cfa -32 + ^ x23: .cfa -48 + ^ .ra: .cfa -56 + ^ x29: .cfa -64 + ^
STACK CFI aac58 .cfa: sp 144 +
STACK CFI aac6c .cfa: sp 0 +
STACK CFI aac70 .cfa: x29 64 +
STACK CFI INIT aaca4 738 .cfa: sp 0 +
STACK CFI aaca8 .cfa: sp 176 +
STACK CFI aacc0 .cfa: x29 80 + x19: .cfa -8 + ^ x20: .cfa -16 + ^ x21: .cfa -24 + ^ x22: .cfa -32 + ^ x23: .cfa -40 + ^ x24: .cfa -48 + ^ x25: .cfa -56 + ^ x26: .cfa -64 + ^ .ra: .cfa -72 + ^ x29: .cfa -80 + ^
STACK CFI ab324 .cfa: sp 176 +
STACK CFI ab33c .cfa: sp 0 +
STACK CFI ab340 .cfa: x29 80 +
STACK CFI INIT ab3dc 268 .cfa: sp 0 +
STACK CFI ab3e0 .cfa: sp 112 +
STACK CFI ab3f4 .cfa: x29 64 + x19: .cfa -8 + ^ x20: .cfa -16 + ^ x21: .cfa -24 + ^ x22: .cfa -32 + ^ x23: .cfa -48 + ^ .ra: .cfa -56 + ^ x29: .cfa -64 + ^
STACK CFI ab5d8 .cfa: sp 112 +
STACK CFI ab5ec .cfa: sp 0 +
STACK CFI ab5f0 .cfa: x29 64 +
STACK CFI INIT ab644 154 .cfa: sp 0 +
STACK CFI ab648 .cfa: sp 64 +
STACK CFI ab658 .cfa: x29 64 + x19: .cfa -8 + ^ x20: .cfa -16 + ^ x21: .cfa -24 + ^ x22: .cfa -32 + ^ x23: .cfa -48 + ^ .ra: .cfa -56 + ^ x29: .cfa -64 + ^
STACK CFI ab714 .cfa: sp 64 +
STACK CFI ab724 .cfa: sp 0 +
STACK CFI ab728 .cfa: x29 64 +
STACK CFI INIT ab838 46c .cfa: sp 0 +
STACK CFI ab83c .cfa: sp 416 +
STACK CFI ab850 .cfa: x29 64 + x19: .cfa -8 + ^ x20: .cfa -16 + ^ x21: .cfa -24 + ^ x22: .cfa -32 + ^ x28: .cfa -48 + ^ .ra: .cfa -56 + ^ x29: .cfa -64 + ^
STACK CFI abb84 .cfa: sp 416 +
STACK CFI abb98 .cfa: sp 0 +
STACK CFI abb9c .cfa: x29 64 +
STACK CFI INIT ac798 74 .cfa: sp 0 +
STACK CFI ac79c .cfa: sp 48 +
STACK CFI ac7a8 .cfa: x29 32 + x19: .cfa -8 + ^ x20: .cfa -16 + ^ .ra: .cfa -24 + ^ x29: .cfa -32 + ^
STACK CFI ac7f4 .cfa: sp 48 +
STACK CFI ac800 .cfa: sp 0 +
STACK CFI ac804 .cfa: x29 32 +
STACK CFI INIT ac80c 43c .cfa: sp 0 +
STACK CFI ac810 .cfa: sp 352 +
STACK CFI ac82c .cfa: x29 96 + x19: .cfa -8 + ^ x20: .cfa -16 + ^ x21: .cfa -24 + ^ x22: .cfa -32 + ^ x23: .cfa -40 + ^ x24: .cfa -48 + ^ x25: .cfa -56 + ^ x26: .cfa -64 + ^ x27: .cfa -72 + ^ x28: .cfa -80 + ^ .ra: .cfa -88 + ^ x29: .cfa -96 + ^
STACK CFI acb5c .cfa: sp 352 +
STACK CFI acb78 .cfa: sp 0 +
STACK CFI acb7c .cfa: x29 96 +
STACK CFI INIT acffc 144 .cfa: sp 0 +
STACK CFI ad000 .cfa: sp 144 +
STACK CFI ad014 .cfa: x29 64 + x19: .cfa -8 + ^ x20: .cfa -16 + ^ x21: .cfa -24 + ^ x22: .cfa -32 + ^ x23: .cfa -40 + ^ x24: .cfa -48 + ^ .ra: .cfa -56 + ^ x29: .cfa -64 + ^
STACK CFI ad0d4 .cfa: sp 144 +
STACK CFI ad0e8 .cfa: sp 0 +
STACK CFI ad0ec .cfa: x29 64 +
STACK CFI INIT ad2cc 1c8 .cfa: sp 0 +
STACK CFI ad2d0 .cfa: sp 144 +
STACK CFI ad2e4 .cfa: x29 64 + x19: .cfa -8 + ^ x20: .cfa -16 + ^ x21: .cfa -24 + ^ x22: .cfa -32 + ^ x23: .cfa -48 + ^ .ra: .cfa -56 + ^ x29: .cfa -64 + ^
STACK CFI ad430 .cfa: sp 144 +
STACK CFI ad444 .cfa: sp 0 +
STACK CFI ad448 .cfa: x29 64 +
STACK CFI INIT ad494 2f4 .cfa: sp 0 +
STACK CFI ad498 .cfa: sp 352 +
STACK CFI ad4b4 .cfa: x29 96 + x19: .cfa -8 + ^ x20: .cfa -16 + ^ x21: .cfa -24 + ^ x22: .cfa -32 + ^ x23: .cfa -40 + ^ x24: .cfa -48 + ^ x25: .cfa -56 + ^ x26: .cfa -64 + ^ x27: .cfa -72 + ^ x28: .cfa -80 + ^ .ra: .cfa -88 + ^ x29: .cfa -96 + ^
STACK CFI ad6f0 .cfa: sp 352 +
STACK CFI ad70c .cfa: sp 0 +
STACK CFI ad710 .cfa: x29 96 +
STACK CFI INIT ad788 18c .cfa: sp 0 +
STACK CFI ad78c .cfa: sp 112 +
STACK CFI ad7a4 .cfa: x29 80 + x19: .cfa -8 + ^ x20: .cfa -16 + ^ x21: .cfa -24 + ^ x22: .cfa -32 + ^ x23: .cfa -40 + ^ x24: .cfa -48 + ^ x25: .cfa -64 + ^ .ra: .cfa -72 + ^ x29: .cfa -80 + ^
STACK CFI ad878 .cfa: sp 112 +
STACK CFI ad890 .cfa: sp 0 +
STACK CFI ad894 .cfa: x29 80 +
STACK CFI INIT ad914 18c .cfa: sp 0 +
STACK CFI ad918 .cfa: sp 112 +
STACK CFI ad930 .cfa: x29 80 + x19: .cfa -8 + ^ x20: .cfa -16 + ^ x21: .cfa -24 + ^ x22: .cfa -32 + ^ x23: .cfa -40 + ^ x24: .cfa -48 + ^ x25: .cfa -64 + ^ .ra: .cfa -72 + ^ x29: .cfa -80 + ^
STACK CFI ada04 .cfa: sp 112 +
STACK CFI ada1c .cfa: sp 0 +
STACK CFI ada20 .cfa: x29 80 +
STACK CFI INIT adaa0 c4 .cfa: sp 0 +
STACK CFI adaa4 .cfa: sp 64 +
STACK CFI adab4 .cfa: x29 64 + x19: .cfa -8 + ^ x20: .cfa -16 + ^ x21: .cfa -24 + ^ x22: .cfa -32 + ^ x23: .cfa -40 + ^ x24: .cfa -48 + ^ .ra: .cfa -56 + ^ x29: .cfa -64 + ^
STACK CFI adb2c .cfa: sp 64 +
STACK CFI adb3c .cfa: sp 0 +
STACK CFI adb40 .cfa: x29 64 +
STACK CFI INIT adb64 128 .cfa: sp 0 +
STACK CFI adb68 .cfa: sp 96 +
STACK CFI adb80 .cfa: x29 80 + x19: .cfa -8 + ^ x20: .cfa -16 + ^ x21: .cfa -24 + ^ x22: .cfa -32 + ^ x23: .cfa -40 + ^ x24: .cfa -48 + ^ x25: .cfa -64 + ^ .ra: .cfa -72 + ^ x29: .cfa -80 + ^
STACK CFI adc28 .cfa: sp 96 +
STACK CFI adc40 .cfa: sp 0 +
STACK CFI adc44 .cfa: x29 80 +
STACK CFI INIT adc8c c4 .cfa: sp 0 +
STACK CFI adc90 .cfa: sp 64 +
STACK CFI adca0 .cfa: x29 64 + x19: .cfa -8 + ^ x20: .cfa -16 + ^ x21: .cfa -24 + ^ x22: .cfa -32 + ^ x23: .cfa -40 + ^ x24: .cfa -48 + ^ .ra: .cfa -56 + ^ x29: .cfa -64 + ^
STACK CFI add18 .cfa: sp 64 +
STACK CFI add28 .cfa: sp 0 +
STACK CFI add2c .cfa: x29 64 +
STACK CFI INIT add50 1e4 .cfa: sp 0 +
STACK CFI add54 .cfa: sp 160 +
STACK CFI add64 .cfa: x29 48 + x19: .cfa -8 + ^ x20: .cfa -16 + ^ x21: .cfa -24 + ^ x22: .cfa -32 + ^ .ra: .cfa -40 + ^ x29: .cfa -48 + ^
STACK CFI adec4 .cfa: sp 160 +
STACK CFI aded4 .cfa: sp 0 +
STACK CFI aded8 .cfa: x29 48 +
STACK CFI INIT adf34 1b4 .cfa: sp 0 +
STACK CFI adf38 .cfa: sp 96 +
STACK CFI adf48 .cfa: x29 48 + x19: .cfa -8 + ^ x20: .cfa -16 + ^ x21: .cfa -24 + ^ x22: .cfa -32 + ^ .ra: .cfa -40 + ^ x29: .cfa -48 + ^
STACK CFI ae0a0 .cfa: sp 96 +
STACK CFI ae0b0 .cfa: sp 0 +
STACK CFI ae0b4 .cfa: x29 48 +
STACK CFI INIT ae0e8 1abc .cfa: sp 0 +
STACK CFI ae0ec .cfa: sp 160 +
STACK CFI ae114 .cfa: x29 96 + x19: .cfa -8 + ^ x20: .cfa -16 + ^ x21: .cfa -24 + ^ x22: .cfa -32 + ^ x23: .cfa -40 + ^ x24: .cfa -48 + ^ x25: .cfa -56 + ^ x26: .cfa -64 + ^ x27: .cfa -72 + ^ x28: .cfa -80 + ^ .ra: .cfa -88 + ^ x29: .cfa -96 + ^ v8: .cfa -104 + ^ v9: .cfa -112 + ^ v10: .cfa -120 + ^ v11: .cfa -128 + ^ v12: .cfa -136 + ^ v13: .cfa -144 + ^ v14: .cfa -152 + ^ v15: .cfa -160 + ^
STACK CFI af82c .cfa: sp 160 +
STACK CFI af854 .cfa: sp 0 +
STACK CFI af858 .cfa: x29 96 +
STACK CFI INIT afba4 12c .cfa: sp 0 +
STACK CFI afba8 .cfa: sp 80 +
STACK CFI afbbc .cfa: x29 64 + x19: .cfa -8 + ^ x20: .cfa -16 + ^ x21: .cfa -24 + ^ x22: .cfa -32 + ^ x23: .cfa -48 + ^ .ra: .cfa -56 + ^ x29: .cfa -64 + ^
STACK CFI afc90 .cfa: sp 80 +
STACK CFI afca4 .cfa: sp 0 +
STACK CFI afca8 .cfa: x29 64 +
STACK CFI INIT afcd0 5ac .cfa: sp 0 +
STACK CFI afcd4 .cfa: sp 256 +
STACK CFI afcf0 .cfa: x29 96 + x19: .cfa -8 + ^ x20: .cfa -16 + ^ x21: .cfa -24 + ^ x22: .cfa -32 + ^ x23: .cfa -40 + ^ x24: .cfa -48 + ^ x25: .cfa -56 + ^ x26: .cfa -64 + ^ x27: .cfa -72 + ^ x28: .cfa -80 + ^ .ra: .cfa -88 + ^ x29: .cfa -96 + ^
STACK CFI b01fc .cfa: sp 256 +
STACK CFI b0218 .cfa: sp 0 +
STACK CFI b021c .cfa: x29 96 +
STACK CFI INIT b027c f8 .cfa: sp 0 +
STACK CFI b0280 .cfa: sp 80 +
STACK CFI b0294 .cfa: x29 64 + x19: .cfa -8 + ^ x20: .cfa -16 + ^ x21: .cfa -24 + ^ x22: .cfa -32 + ^ x23: .cfa -48 + ^ .ra: .cfa -56 + ^ x29: .cfa -64 + ^
STACK CFI b0334 .cfa: sp 80 +
STACK CFI b0348 .cfa: sp 0 +
STACK CFI b034c .cfa: x29 64 +
STACK CFI INIT b0374 164 .cfa: sp 0 +
STACK CFI b0378 .cfa: sp 64 +
STACK CFI b0384 .cfa: x29 32 + x19: .cfa -8 + ^ x20: .cfa -16 + ^ .ra: .cfa -24 + ^ x29: .cfa -32 + ^
STACK CFI b0490 .cfa: sp 64 +
STACK CFI b049c .cfa: sp 0 +
STACK CFI b04a0 .cfa: x29 32 +
STACK CFI INIT b04d8 1338 .cfa: sp 0 +
STACK CFI b04dc .cfa: sp 112 +
STACK CFI b04f8 .cfa: x29 96 + x19: .cfa -8 + ^ x20: .cfa -16 + ^ x21: .cfa -24 + ^ x22: .cfa -32 + ^ x23: .cfa -40 + ^ x24: .cfa -48 + ^ x25: .cfa -56 + ^ x26: .cfa -64 + ^ x27: .cfa -72 + ^ x28: .cfa -80 + ^ .ra: .cfa -88 + ^ x29: .cfa -96 + ^ v8: .cfa -112 + ^
STACK CFI b13f0 .cfa: sp 112 +
STACK CFI b140c .cfa: sp 0 +
STACK CFI b1410 .cfa: x29 96 +
STACK CFI INIT b1810 184 .cfa: sp 0 +
STACK CFI b1814 .cfa: sp 80 +
STACK CFI b1824 .cfa: x29 48 + x19: .cfa -8 + ^ x20: .cfa -16 + ^ x21: .cfa -32 + ^ .ra: .cfa -40 + ^ x29: .cfa -48 + ^
STACK CFI b1948 .cfa: sp 80 +
STACK CFI b1958 .cfa: sp 0 +
STACK CFI b195c .cfa: x29 48 +
STACK CFI INIT b1994 2b8 .cfa: sp 0 +
STACK CFI b1998 .cfa: sp 176 +
STACK CFI b19ac .cfa: x29 64 + x19: .cfa -8 + ^ x20: .cfa -16 + ^ x21: .cfa -24 + ^ x22: .cfa -32 + ^ x23: .cfa -48 + ^ .ra: .cfa -56 + ^ x29: .cfa -64 + ^
STACK CFI b1bb4 .cfa: sp 176 +
STACK CFI b1bc8 .cfa: sp 0 +
STACK CFI b1bcc .cfa: x29 64 +
STACK CFI INIT b1c4c 2c4 .cfa: sp 0 +
STACK CFI b1c50 .cfa: sp 160 +
STACK CFI b1c64 .cfa: x29 64 + x19: .cfa -8 + ^ x20: .cfa -16 + ^ x21: .cfa -24 + ^ x22: .cfa -32 + ^ x23: .cfa -48 + ^ .ra: .cfa -56 + ^ x29: .cfa -64 + ^
STACK CFI b1e78 .cfa: sp 160 +
STACK CFI b1e8c .cfa: sp 0 +
STACK CFI b1e90 .cfa: x29 64 +
STACK CFI INIT b1f10 2c8 .cfa: sp 0 +
STACK CFI b1f14 .cfa: sp 176 +
STACK CFI b1f28 .cfa: x29 64 + x19: .cfa -8 + ^ x20: .cfa -16 + ^ x21: .cfa -24 + ^ x22: .cfa -32 + ^ x23: .cfa -48 + ^ .ra: .cfa -56 + ^ x29: .cfa -64 + ^
STACK CFI b2140 .cfa: sp 176 +
STACK CFI b2154 .cfa: sp 0 +
STACK CFI b2158 .cfa: x29 64 +
STACK CFI INIT b21d8 2bd4 .cfa: sp 0 +
STACK CFI b21dc .cfa: sp 144 +
STACK CFI b2200 .cfa: x29 96 + x19: .cfa -8 + ^ x20: .cfa -16 + ^ x21: .cfa -24 + ^ x22: .cfa -32 + ^ x23: .cfa -40 + ^ x24: .cfa -48 + ^ x25: .cfa -56 + ^ x26: .cfa -64 + ^ x27: .cfa -72 + ^ x28: .cfa -80 + ^ .ra: .cfa -88 + ^ x29: .cfa -96 + ^ v8: .cfa -104 + ^ v9: .cfa -112 + ^ v10: .cfa -120 + ^ v11: .cfa -128 + ^ v12: .cfa -144 + ^
STACK CFI b4778 .cfa: sp 144 +
STACK CFI b479c .cfa: sp 0 +
STACK CFI b47a0 .cfa: x29 96 +
STACK CFI INIT b4dac 280 .cfa: sp 0 +
STACK CFI b4db0 .cfa: sp 128 +
STACK CFI b4dc4 .cfa: x29 64 + x19: .cfa -8 + ^ x20: .cfa -16 + ^ x21: .cfa -24 + ^ x22: .cfa -32 + ^ x23: .cfa -48 + ^ .ra: .cfa -56 + ^ x29: .cfa -64 + ^
STACK CFI b4fa0 .cfa: sp 128 +
STACK CFI b4fb4 .cfa: sp 0 +
STACK CFI b4fb8 .cfa: x29 64 +
STACK CFI INIT b502c 380 .cfa: sp 0 +
STACK CFI b5030 .cfa: sp 208 +
STACK CFI b504c .cfa: x29 96 + x19: .cfa -8 + ^ x20: .cfa -16 + ^ x21: .cfa -24 + ^ x22: .cfa -32 + ^ x23: .cfa -40 + ^ x24: .cfa -48 + ^ x25: .cfa -56 + ^ x26: .cfa -64 + ^ x27: .cfa -80 + ^ .ra: .cfa -88 + ^ x29: .cfa -96 + ^
STACK CFI b51d0 .cfa: sp 208 +
STACK CFI b51ec .cfa: sp 0 +
STACK CFI b51f0 .cfa: x29 96 +
STACK CFI INIT b53ac 380 .cfa: sp 0 +
STACK CFI b53b0 .cfa: sp 208 +
STACK CFI b53cc .cfa: x29 96 + x19: .cfa -8 + ^ x20: .cfa -16 + ^ x21: .cfa -24 + ^ x22: .cfa -32 + ^ x23: .cfa -40 + ^ x24: .cfa -48 + ^ x25: .cfa -56 + ^ x26: .cfa -64 + ^ x27: .cfa -80 + ^ .ra: .cfa -88 + ^ x29: .cfa -96 + ^
STACK CFI b5550 .cfa: sp 208 +
STACK CFI b556c .cfa: sp 0 +
STACK CFI b5570 .cfa: x29 96 +
STACK CFI INIT b574c c64 .cfa: sp 0 +
STACK CFI b5750 .cfa: sp 480 +
STACK CFI b576c .cfa: x29 96 + x19: .cfa -8 + ^ x20: .cfa -16 + ^ x21: .cfa -24 + ^ x22: .cfa -32 + ^ x23: .cfa -40 + ^ x24: .cfa -48 + ^ x25: .cfa -56 + ^ x26: .cfa -64 + ^ x27: .cfa -72 + ^ x28: .cfa -80 + ^ .ra: .cfa -88 + ^ x29: .cfa -96 + ^
STACK CFI b5830 .cfa: sp 480 +
STACK CFI b584c .cfa: sp 0 +
STACK CFI b5850 .cfa: x29 96 +
STACK CFI INIT b6424 178 .cfa: sp 0 +
STACK CFI b6428 .cfa: sp 80 +
STACK CFI b6438 .cfa: x29 48 + x19: .cfa -8 + ^ x20: .cfa -16 + ^ x21: .cfa -32 + ^ .ra: .cfa -40 + ^ x29: .cfa -48 + ^
STACK CFI b6560 .cfa: sp 80 +
STACK CFI b6570 .cfa: sp 0 +
STACK CFI b6574 .cfa: x29 48 +
STACK CFI INIT b659c 1758 .cfa: sp 0 +
STACK CFI b65a0 .cfa: sp 112 +
STACK CFI b65bc .cfa: x29 96 + x19: .cfa -8 + ^ x20: .cfa -16 + ^ x21: .cfa -24 + ^ x22: .cfa -32 + ^ x23: .cfa -40 + ^ x24: .cfa -48 + ^ x25: .cfa -56 + ^ x26: .cfa -64 + ^ x27: .cfa -72 + ^ x28: .cfa -80 + ^ .ra: .cfa -88 + ^ x29: .cfa -96 + ^ v8: .cfa -112 + ^
STACK CFI b78b8 .cfa: sp 112 +
STACK CFI b78d4 .cfa: sp 0 +
STACK CFI b78d8 .cfa: x29 96 +
STACK CFI INIT b7d58 1ab4 .cfa: sp 0 +
STACK CFI b7d5c .cfa: sp 96 +
STACK CFI b7d74 .cfa: x29 96 + x19: .cfa -8 + ^ x20: .cfa -16 + ^ x21: .cfa -24 + ^ x22: .cfa -32 + ^ x23: .cfa -40 + ^ x24: .cfa -48 + ^ x25: .cfa -56 + ^ x26: .cfa -64 + ^ x27: .cfa -72 + ^ x28: .cfa -80 + ^ .ra: .cfa -88 + ^ x29: .cfa -96 + ^
STACK CFI b9380 .cfa: sp 96 +
STACK CFI b9398 .cfa: sp 0 +
STACK CFI b939c .cfa: x29 96 +
STACK CFI INIT b980c 168 .cfa: sp 0 +
STACK CFI b9810 .cfa: sp 128 +
STACK CFI b981c .cfa: x29 32 + x19: .cfa -8 + ^ x20: .cfa -16 + ^ .ra: .cfa -24 + ^ x29: .cfa -32 + ^
STACK CFI b98ec .cfa: sp 128 +
STACK CFI b98f8 .cfa: sp 0 +
STACK CFI b98fc .cfa: x29 32 +
STACK CFI INIT b9974 5dc .cfa: sp 0 +
STACK CFI b9978 .cfa: sp 288 +
STACK CFI b9994 .cfa: x29 96 + x19: .cfa -8 + ^ x20: .cfa -16 + ^ x21: .cfa -24 + ^ x22: .cfa -32 + ^ x23: .cfa -40 + ^ x24: .cfa -48 + ^ x25: .cfa -56 + ^ x26: .cfa -64 + ^ x27: .cfa -72 + ^ x28: .cfa -80 + ^ .ra: .cfa -88 + ^ x29: .cfa -96 + ^
STACK CFI b9e4c .cfa: sp 288 +
STACK CFI b9e68 .cfa: sp 0 +
STACK CFI b9e6c .cfa: x29 96 +
STACK CFI INIT b9f50 274 .cfa: sp 0 +
STACK CFI b9f54 .cfa: sp 112 +
STACK CFI b9f68 .cfa: x29 64 + x19: .cfa -8 + ^ x20: .cfa -16 + ^ x21: .cfa -24 + ^ x22: .cfa -32 + ^ x23: .cfa -48 + ^ .ra: .cfa -56 + ^ x29: .cfa -64 + ^
STACK CFI ba16c .cfa: sp 112 +
STACK CFI ba180 .cfa: sp 0 +
STACK CFI ba184 .cfa: x29 64 +
STACK CFI INIT ba1c4 1ef8 .cfa: sp 0 +
STACK CFI ba1c8 .cfa: sp 112 +
STACK CFI ba1e4 .cfa: x29 96 + x19: .cfa -8 + ^ x20: .cfa -16 + ^ x21: .cfa -24 + ^ x22: .cfa -32 + ^ x23: .cfa -40 + ^ x24: .cfa -48 + ^ x25: .cfa -56 + ^ x26: .cfa -64 + ^ x27: .cfa -72 + ^ x28: .cfa -80 + ^ .ra: .cfa -88 + ^ x29: .cfa -96 + ^ v8: .cfa -112 + ^
STACK CFI bbd10 .cfa: sp 112 +
STACK CFI bbd2c .cfa: sp 0 +
STACK CFI bbd30 .cfa: x29 96 +
STACK CFI INIT bc0c4 118 .cfa: sp 0 +
STACK CFI bc0c8 .cfa: sp 80 +
STACK CFI bc0d8 .cfa: x29 48 + x19: .cfa -8 + ^ x20: .cfa -16 + ^ x21: .cfa -32 + ^ .ra: .cfa -40 + ^ x29: .cfa -48 + ^
STACK CFI bc190 .cfa: sp 80 +
STACK CFI bc1a0 .cfa: sp 0 +
STACK CFI bc1a4 .cfa: x29 48 +
STACK CFI INIT bc1dc 118 .cfa: sp 0 +
STACK CFI bc1e0 .cfa: sp 80 +
STACK CFI bc1f0 .cfa: x29 48 + x19: .cfa -8 + ^ x20: .cfa -16 + ^ x21: .cfa -32 + ^ .ra: .cfa -40 + ^ x29: .cfa -48 + ^
STACK CFI bc2a8 .cfa: sp 80 +
STACK CFI bc2b8 .cfa: sp 0 +
STACK CFI bc2bc .cfa: x29 48 +
STACK CFI INIT bc2f4 220 .cfa: sp 0 +
STACK CFI bc2f8 .cfa: sp 80 +
STACK CFI bc308 .cfa: x29 48 + x19: .cfa -8 + ^ x20: .cfa -16 + ^ x21: .cfa -24 + ^ x22: .cfa -32 + ^ .ra: .cfa -40 + ^ x29: .cfa -48 + ^
STACK CFI bc464 .cfa: sp 80 +
STACK CFI bc474 .cfa: sp 0 +
STACK CFI bc478 .cfa: x29 48 +
STACK CFI INIT bc514 158 .cfa: sp 0 +
STACK CFI bc518 .cfa: sp 32 +
STACK CFI bc520 .cfa: x29 32 + x19: .cfa -8 + ^ x20: .cfa -16 + ^ .ra: .cfa -24 + ^ x29: .cfa -32 + ^
STACK CFI bc658 .cfa: sp 32 +
STACK CFI bc660 .cfa: sp 0 +
STACK CFI bc664 .cfa: x29 32 +
STACK CFI INIT bc6c0 74c .cfa: sp 0 +
STACK CFI bc6c4 .cfa: sp 240 +
STACK CFI bc6d4 .cfa: x29 48 + x19: .cfa -8 + ^ x20: .cfa -16 + ^ x21: .cfa -24 + ^ x22: .cfa -32 + ^ .ra: .cfa -40 + ^ x29: .cfa -48 + ^
STACK CFI bcd2c .cfa: sp 240 +
STACK CFI bcd3c .cfa: sp 0 +
STACK CFI bcd40 .cfa: x29 48 +
STACK CFI INIT bce0c 2fc .cfa: sp 0 +
STACK CFI bce10 .cfa: sp 224 +
STACK CFI bce20 .cfa: x29 48 + x19: .cfa -8 + ^ x20: .cfa -16 + ^ x21: .cfa -24 + ^ x22: .cfa -32 + ^ .ra: .cfa -40 + ^ x29: .cfa -48 + ^
STACK CFI bd074 .cfa: sp 224 +
STACK CFI bd084 .cfa: sp 0 +
STACK CFI bd088 .cfa: x29 48 +
STACK CFI INIT bd108 434 .cfa: sp 0 +
STACK CFI bd10c .cfa: sp 256 +
STACK CFI bd120 .cfa: x29 64 + x19: .cfa -8 + ^ x20: .cfa -16 + ^ x21: .cfa -24 + ^ x22: .cfa -32 + ^ x23: .cfa -48 + ^ .ra: .cfa -56 + ^ x29: .cfa -64 + ^
STACK CFI bd4d0 .cfa: sp 256 +
STACK CFI bd4e4 .cfa: sp 0 +
STACK CFI bd4e8 .cfa: x29 64 +
STACK CFI INIT bd53c b4 .cfa: sp 0 +
STACK CFI bd540 .cfa: sp 32 +
STACK CFI bd548 .cfa: x29 32 + x19: .cfa -16 + ^ .ra: .cfa -24 + ^ x29: .cfa -32 + ^
STACK CFI bd5dc .cfa: sp 32 +
STACK CFI bd5e4 .cfa: sp 0 +
STACK CFI bd5e8 .cfa: x29 32 +
STACK CFI INIT bd644 3ac .cfa: sp 0 +
STACK CFI bd648 .cfa: sp 96 +
STACK CFI bd658 .cfa: x29 48 + x19: .cfa -8 + ^ x20: .cfa -16 + ^ x21: .cfa -24 + ^ x22: .cfa -32 + ^ .ra: .cfa -40 + ^ x29: .cfa -48 + ^
STACK CFI bd99c .cfa: sp 96 +
STACK CFI bd9ac .cfa: sp 0 +
STACK CFI bd9b0 .cfa: x29 48 +
STACK CFI INIT bd9f0 1c4 .cfa: sp 0 +
STACK CFI bd9f4 .cfa: sp 128 +
STACK CFI bda08 .cfa: x29 64 + x19: .cfa -8 + ^ x20: .cfa -16 + ^ x21: .cfa -24 + ^ x22: .cfa -32 + ^ x23: .cfa -48 + ^ .ra: .cfa -56 + ^ x29: .cfa -64 + ^
STACK CFI bdb6c .cfa: sp 128 +
STACK CFI bdb80 .cfa: sp 0 +
STACK CFI bdb84 .cfa: x29 64 +
STACK CFI INIT bdbf0 b4 .cfa: sp 0 +
STACK CFI bdbf4 .cfa: sp 32 +
STACK CFI bdbfc .cfa: x29 32 + x19: .cfa -16 + ^ .ra: .cfa -24 + ^ x29: .cfa -32 + ^
STACK CFI bdc90 .cfa: sp 32 +
STACK CFI bdc98 .cfa: sp 0 +
STACK CFI bdc9c .cfa: x29 32 +
STACK CFI INIT bdcf8 658 .cfa: sp 0 +
STACK CFI bdcfc .cfa: sp 144 +
STACK CFI bdd14 .cfa: x29 80 + x19: .cfa -8 + ^ x20: .cfa -16 + ^ x21: .cfa -24 + ^ x22: .cfa -32 + ^ x23: .cfa -40 + ^ x24: .cfa -48 + ^ x25: .cfa -64 + ^ .ra: .cfa -72 + ^ x29: .cfa -80 + ^
STACK CFI be2c0 .cfa: sp 144 +
STACK CFI be2d8 .cfa: sp 0 +
STACK CFI be2dc .cfa: x29 80 +
STACK CFI INIT be350 3b8 .cfa: sp 0 +
STACK CFI be354 .cfa: sp 240 +
STACK CFI be36c .cfa: x29 80 + x19: .cfa -8 + ^ x20: .cfa -16 + ^ x21: .cfa -24 + ^ x22: .cfa -32 + ^ x23: .cfa -40 + ^ x24: .cfa -48 + ^ x25: .cfa -64 + ^ .ra: .cfa -72 + ^ x29: .cfa -80 + ^
STACK CFI be658 .cfa: sp 240 +
STACK CFI be670 .cfa: sp 0 +
STACK CFI be674 .cfa: x29 80 +
STACK CFI INIT be708 12c .cfa: sp 0 +
STACK CFI be70c .cfa: sp 96 +
STACK CFI be71c .cfa: x29 48 + x19: .cfa -8 + ^ x20: .cfa -16 + ^ x21: .cfa -32 + ^ .ra: .cfa -40 + ^ x29: .cfa -48 + ^
STACK CFI be7d0 .cfa: sp 96 +
STACK CFI be7e0 .cfa: sp 0 +
STACK CFI be7e4 .cfa: x29 48 +
STACK CFI INIT be834 b4 .cfa: sp 0 +
STACK CFI be838 .cfa: sp 32 +
STACK CFI be840 .cfa: x29 32 + x19: .cfa -16 + ^ .ra: .cfa -24 + ^ x29: .cfa -32 + ^
STACK CFI be8d4 .cfa: sp 32 +
STACK CFI be8dc .cfa: sp 0 +
STACK CFI be8e0 .cfa: x29 32 +
STACK CFI INIT be93c 10e0 .cfa: sp 0 +
STACK CFI be940 .cfa: sp 128 +
STACK CFI be960 .cfa: x29 96 + x19: .cfa -8 + ^ x20: .cfa -16 + ^ x21: .cfa -24 + ^ x22: .cfa -32 + ^ x23: .cfa -40 + ^ x24: .cfa -48 + ^ x25: .cfa -56 + ^ x26: .cfa -64 + ^ x27: .cfa -72 + ^ x28: .cfa -80 + ^ .ra: .cfa -88 + ^ x29: .cfa -96 + ^ v8: .cfa -104 + ^ v9: .cfa -112 + ^ v10: .cfa -120 + ^ v11: .cfa -128 + ^
STACK CFI bf714 .cfa: sp 128 +
STACK CFI bf734 .cfa: sp 0 +
STACK CFI bf738 .cfa: x29 96 +
STACK CFI INIT bfa8c 364 .cfa: sp 0 +
STACK CFI bfa90 .cfa: sp 128 +
STACK CFI bfaa4 .cfa: x29 64 + x19: .cfa -8 + ^ x20: .cfa -16 + ^ x21: .cfa -24 + ^ x22: .cfa -32 + ^ x23: .cfa -48 + ^ .ra: .cfa -56 + ^ x29: .cfa -64 + ^
STACK CFI bfd80 .cfa: sp 128 +
STACK CFI bfd94 .cfa: sp 0 +
STACK CFI bfd98 .cfa: x29 64 +
STACK CFI INIT bfdf0 c0 .cfa: sp 0 +
STACK CFI bfdf4 .cfa: sp 32 +
STACK CFI bfdfc .cfa: x29 32 + x19: .cfa -16 + ^ .ra: .cfa -24 + ^ x29: .cfa -32 + ^
STACK CFI bfe9c .cfa: sp 32 +
STACK CFI bfea4 .cfa: sp 0 +
STACK CFI bfea8 .cfa: x29 32 +
STACK CFI INIT bff3c 1a4 .cfa: sp 0 +
STACK CFI bff40 .cfa: sp 112 +
STACK CFI bff54 .cfa: x29 64 + x19: .cfa -8 + ^ x20: .cfa -16 + ^ x21: .cfa -24 + ^ x22: .cfa -32 + ^ x23: .cfa -40 + ^ x24: .cfa -48 + ^ .ra: .cfa -56 + ^ x29: .cfa -64 + ^
STACK CFI c0060 .cfa: sp 112 +
STACK CFI c0074 .cfa: sp 0 +
STACK CFI c0078 .cfa: x29 64 +
STACK CFI INIT c0124 1d4 .cfa: sp 0 +
STACK CFI c0128 .cfa: sp 320 +
STACK CFI c0140 .cfa: x29 80 + x19: .cfa -8 + ^ x20: .cfa -16 + ^ x21: .cfa -24 + ^ x22: .cfa -32 + ^ x23: .cfa -40 + ^ x24: .cfa -48 + ^ x28: .cfa -64 + ^ .ra: .cfa -72 + ^ x29: .cfa -80 + ^
STACK CFI c02ac .cfa: sp 320 +
STACK CFI c02c4 .cfa: sp 0 +
STACK CFI c02c8 .cfa: x29 80 +
STACK CFI INIT c034c 798 .cfa: sp 0 +
STACK CFI c0350 .cfa: sp 96 +
STACK CFI c0368 .cfa: x29 96 + x19: .cfa -8 + ^ x20: .cfa -16 + ^ x21: .cfa -24 + ^ x22: .cfa -32 + ^ x23: .cfa -40 + ^ x24: .cfa -48 + ^ x25: .cfa -56 + ^ x26: .cfa -64 + ^ x27: .cfa -72 + ^ x28: .cfa -80 + ^ .ra: .cfa -88 + ^ x29: .cfa -96 + ^
STACK CFI c09dc .cfa: sp 96 +
STACK CFI c09f4 .cfa: sp 0 +
STACK CFI c09f8 .cfa: x29 96 +
STACK CFI INIT c0cc4 8d0 .cfa: sp 0 +
STACK CFI c0cc8 .cfa: sp 160 +
STACK CFI c0ce0 .cfa: x29 64 + x19: .cfa -8 + ^ x20: .cfa -16 + ^ x21: .cfa -24 + ^ x22: .cfa -32 + ^ x23: .cfa -40 + ^ x24: .cfa -48 + ^ .ra: .cfa -56 + ^ x29: .cfa -64 + ^ v8: .cfa -80 + ^
STACK CFI c149c .cfa: sp 160 +
STACK CFI c14b4 .cfa: sp 0 +
STACK CFI c14b8 .cfa: x29 64 +
STACK CFI INIT c15fc 3b8 .cfa: sp 0 +
STACK CFI c1600 .cfa: sp 160 +
STACK CFI c1610 .cfa: x29 48 + x19: .cfa -8 + ^ x20: .cfa -16 + ^ x21: .cfa -24 + ^ x22: .cfa -32 + ^ .ra: .cfa -40 + ^ x29: .cfa -48 + ^
STACK CFI c1904 .cfa: sp 160 +
STACK CFI c1914 .cfa: sp 0 +
STACK CFI c1918 .cfa: x29 48 +
STACK CFI INIT c1c5c 158 .cfa: sp 0 +
STACK CFI c1c60 .cfa: sp 96 +
STACK CFI c1c74 .cfa: x29 64 + x19: .cfa -8 + ^ x20: .cfa -16 + ^ x21: .cfa -24 + ^ x22: .cfa -32 + ^ x23: .cfa -48 + ^ .ra: .cfa -56 + ^ x29: .cfa -64 + ^
STACK CFI c1d40 .cfa: sp 96 +
STACK CFI c1d54 .cfa: sp 0 +
STACK CFI c1d58 .cfa: x29 64 +
STACK CFI INIT c1db4 148 .cfa: sp 0 +
STACK CFI c1db8 .cfa: sp 80 +
STACK CFI c1dc8 .cfa: x29 48 + x19: .cfa -8 + ^ x20: .cfa -16 + ^ x21: .cfa -24 + ^ x22: .cfa -32 + ^ .ra: .cfa -40 + ^ x29: .cfa -48 + ^
STACK CFI c1e74 .cfa: sp 80 +
STACK CFI c1e84 .cfa: sp 0 +
STACK CFI c1e88 .cfa: x29 48 +
STACK CFI INIT c1efc f4 .cfa: sp 0 +
STACK CFI c1f00 .cfa: sp 32 +
STACK CFI c1f08 .cfa: x29 32 + x19: .cfa -8 + ^ x20: .cfa -16 + ^ .ra: .cfa -24 + ^ x29: .cfa -32 + ^
STACK CFI c1fe0 .cfa: sp 32 +
STACK CFI c1fe8 .cfa: sp 0 +
STACK CFI c1fec .cfa: x29 32 +
STACK CFI INIT c2104 134 .cfa: sp 0 +
STACK CFI c2108 .cfa: sp 80 +
STACK CFI c2114 .cfa: x29 32 + x19: .cfa -8 + ^ x20: .cfa -16 + ^ .ra: .cfa -24 + ^ x29: .cfa -32 + ^
STACK CFI c2144 .cfa: sp 80 +
STACK CFI c2150 .cfa: sp 0 +
STACK CFI c2154 .cfa: x29 32 +
STACK CFI INIT c2238 78 .cfa: sp 0 +
STACK CFI c223c .cfa: sp 32 +
STACK CFI c2244 .cfa: x29 32 + x19: .cfa -8 + ^ x20: .cfa -16 + ^ .ra: .cfa -24 + ^ x29: .cfa -32 + ^
STACK CFI c2250 .cfa: sp 32 +
STACK CFI c2258 .cfa: sp 0 +
STACK CFI c225c .cfa: x29 32 +
STACK CFI INIT c22b0 74 .cfa: sp 0 +
STACK CFI c22b4 .cfa: sp 48 +
STACK CFI c22c0 .cfa: x29 32 + x19: .cfa -8 + ^ x20: .cfa -16 + ^ .ra: .cfa -24 + ^ x29: .cfa -32 + ^
STACK CFI c230c .cfa: sp 48 +
STACK CFI c2318 .cfa: sp 0 +
STACK CFI c231c .cfa: x29 32 +
STACK CFI INIT c23d0 270 .cfa: sp 0 +
STACK CFI c23d4 .cfa: sp 112 +
STACK CFI c23e4 .cfa: x29 48 + x19: .cfa -8 + ^ x20: .cfa -16 + ^ x21: .cfa -32 + ^ .ra: .cfa -40 + ^ x29: .cfa -48 + ^
STACK CFI c24e8 .cfa: sp 112 +
STACK CFI c24f8 .cfa: sp 0 +
STACK CFI c24fc .cfa: x29 48 +
STACK CFI INIT c2694 2d8 .cfa: sp 0 +
STACK CFI c2698 .cfa: sp 128 +
STACK CFI c26ac .cfa: x29 64 + x19: .cfa -8 + ^ x20: .cfa -16 + ^ x21: .cfa -24 + ^ x22: .cfa -32 + ^ x23: .cfa -48 + ^ .ra: .cfa -56 + ^ x29: .cfa -64 + ^
STACK CFI c2818 .cfa: sp 128 +
STACK CFI c282c .cfa: sp 0 +
STACK CFI c2830 .cfa: x29 64 +
STACK CFI INIT c29c0 250 .cfa: sp 0 +
STACK CFI c29c4 .cfa: sp 112 +
STACK CFI c29d4 .cfa: x29 48 + x19: .cfa -8 + ^ x20: .cfa -16 + ^ x21: .cfa -32 + ^ .ra: .cfa -40 + ^ x29: .cfa -48 + ^
STACK CFI c2ab8 .cfa: sp 112 +
STACK CFI c2ac8 .cfa: sp 0 +
STACK CFI c2acc .cfa: x29 48 +
STACK CFI INIT c2c64 174 .cfa: sp 0 +
STACK CFI c2c68 .cfa: sp 128 +
STACK CFI c2c78 .cfa: x29 48 + x19: .cfa -8 + ^ x20: .cfa -16 + ^ x21: .cfa -32 + ^ .ra: .cfa -40 + ^ x29: .cfa -48 + ^
STACK CFI c2cc0 .cfa: sp 128 +
STACK CFI c2cd0 .cfa: sp 0 +
STACK CFI c2cd4 .cfa: x29 48 +
STACK CFI INIT c2dd8 174 .cfa: sp 0 +
STACK CFI c2ddc .cfa: sp 128 +
STACK CFI c2dec .cfa: x29 48 + x19: .cfa -8 + ^ x20: .cfa -16 + ^ x21: .cfa -32 + ^ .ra: .cfa -40 + ^ x29: .cfa -48 + ^
STACK CFI c2e34 .cfa: sp 128 +
STACK CFI c2e44 .cfa: sp 0 +
STACK CFI c2e48 .cfa: x29 48 +
STACK CFI INIT c2fa0 1b8 .cfa: sp 0 +
STACK CFI c2fa4 .cfa: sp 160 +
STACK CFI c2fc0 .cfa: x29 72 + x19: .cfa -8 + ^ x20: .cfa -16 + ^ x21: .cfa -24 + ^ x22: .cfa -32 + ^ x23: .cfa -40 + ^ x24: .cfa -48 + ^ x25: .cfa -56 + ^ .ra: .cfa -64 + ^ x29: .cfa -72 + ^ v8: .cfa -80 + ^
STACK CFI c3044 .cfa: sp 160 +
STACK CFI c3060 .cfa: sp 0 +
STACK CFI c3064 .cfa: x29 72 +
STACK CFI INIT c3158 4e4 .cfa: sp 0 +
STACK CFI c315c .cfa: sp 96 +
STACK CFI c3174 .cfa: x29 80 + x19: .cfa -8 + ^ x20: .cfa -16 + ^ x21: .cfa -24 + ^ x22: .cfa -32 + ^ x23: .cfa -40 + ^ x24: .cfa -48 + ^ x25: .cfa -64 + ^ .ra: .cfa -72 + ^ x29: .cfa -80 + ^
STACK CFI c35b8 .cfa: sp 96 +
STACK CFI c35d0 .cfa: sp 0 +
STACK CFI c35d4 .cfa: x29 80 +
STACK CFI INIT c363c ac .cfa: sp 0 +
STACK CFI c3640 .cfa: sp 64 +
STACK CFI c3650 .cfa: x29 48 + x19: .cfa -8 + ^ x20: .cfa -16 + ^ x21: .cfa -32 + ^ .ra: .cfa -40 + ^ x29: .cfa -48 + ^
STACK CFI c36ac .cfa: sp 64 +
STACK CFI c36bc .cfa: sp 0 +
STACK CFI c36c0 .cfa: x29 48 +
STACK CFI INIT c36ec 814 .cfa: sp 0 +
STACK CFI c36f0 .cfa: sp 128 +
STACK CFI c3704 .cfa: x29 64 + x19: .cfa -8 + ^ x20: .cfa -16 + ^ x21: .cfa -24 + ^ x22: .cfa -32 + ^ x23: .cfa -48 + ^ .ra: .cfa -56 + ^ x29: .cfa -64 + ^
STACK CFI c3d38 .cfa: sp 128 +
STACK CFI c3d4c .cfa: sp 0 +
STACK CFI c3d50 .cfa: x29 64 +
STACK CFI INIT c3f00 7b0 .cfa: sp 0 +
STACK CFI c3f04 .cfa: sp 80 +
STACK CFI c3f18 .cfa: x29 80 + x19: .cfa -8 + ^ x20: .cfa -16 + ^ x21: .cfa -24 + ^ x22: .cfa -32 + ^ x23: .cfa -40 + ^ x24: .cfa -48 + ^ x25: .cfa -56 + ^ x26: .cfa -64 + ^ .ra: .cfa -72 + ^ x29: .cfa -80 + ^
STACK CFI c4334 .cfa: sp 80 +
STACK CFI c4348 .cfa: sp 0 +
STACK CFI c434c .cfa: x29 80 +
STACK CFI INIT c4704 16c .cfa: sp 0 +
STACK CFI c4708 .cfa: sp 160 +
STACK CFI c4720 .cfa: x29 80 + x19: .cfa -8 + ^ x20: .cfa -16 + ^ x21: .cfa -24 + ^ x22: .cfa -32 + ^ x23: .cfa -40 + ^ x24: .cfa -48 + ^ x25: .cfa -56 + ^ x26: .cfa -64 + ^ .ra: .cfa -72 + ^ x29: .cfa -80 + ^
STACK CFI c4788 .cfa: sp 160 +
STACK CFI c47a0 .cfa: sp 0 +
STACK CFI c47a4 .cfa: x29 80 +
STACK CFI INIT c4870 4ac .cfa: sp 0 +
STACK CFI c4874 .cfa: sp 128 +
STACK CFI c488c .cfa: x29 80 + x19: .cfa -8 + ^ x20: .cfa -16 + ^ x21: .cfa -24 + ^ x22: .cfa -32 + ^ x23: .cfa -40 + ^ x24: .cfa -48 + ^ x25: .cfa -64 + ^ .ra: .cfa -72 + ^ x29: .cfa -80 + ^
STACK CFI c4c98 .cfa: sp 128 +
STACK CFI c4cb0 .cfa: sp 0 +
STACK CFI c4cb4 .cfa: x29 80 +
STACK CFI INIT c4d24 17c .cfa: sp 0 +
STACK CFI c4d28 .cfa: sp 176 +
STACK CFI c4d44 .cfa: x29 80 + x19: .cfa -8 + ^ x20: .cfa -16 + ^ x21: .cfa -24 + ^ x22: .cfa -32 + ^ x23: .cfa -40 + ^ x24: .cfa -48 + ^ x25: .cfa -56 + ^ x26: .cfa -64 + ^ .ra: .cfa -72 + ^ x29: .cfa -80 + ^ v8: .cfa -96 + ^
STACK CFI c4db4 .cfa: sp 176 +
STACK CFI c4dd0 .cfa: sp 0 +
STACK CFI c4dd4 .cfa: x29 80 +
STACK CFI INIT c4ea0 5ac .cfa: sp 0 +
STACK CFI c4ea4 .cfa: sp 128 +
STACK CFI c4ebc .cfa: x29 80 + x19: .cfa -8 + ^ x20: .cfa -16 + ^ x21: .cfa -24 + ^ x22: .cfa -32 + ^ x23: .cfa -40 + ^ x24: .cfa -48 + ^ x25: .cfa -64 + ^ .ra: .cfa -72 + ^ x29: .cfa -80 + ^
STACK CFI c53b8 .cfa: sp 128 +
STACK CFI c53d0 .cfa: sp 0 +
STACK CFI c53d4 .cfa: x29 80 +
STACK CFI INIT c5454 15c .cfa: sp 0 +
STACK CFI c5458 .cfa: sp 144 +
STACK CFI c5470 .cfa: x29 56 + x19: .cfa -8 + ^ x20: .cfa -16 + ^ x21: .cfa -24 + ^ x22: .cfa -32 + ^ x23: .cfa -40 + ^ .ra: .cfa -48 + ^ x29: .cfa -56 + ^ v8: .cfa -64 + ^
STACK CFI c54c8 .cfa: sp 144 +
STACK CFI c54e0 .cfa: sp 0 +
STACK CFI c54e4 .cfa: x29 56 +
STACK CFI INIT c55b0 2d4 .cfa: sp 0 +
STACK CFI c55b4 .cfa: sp 96 +
STACK CFI c55cc .cfa: x29 80 + x19: .cfa -8 + ^ x20: .cfa -16 + ^ x21: .cfa -24 + ^ x22: .cfa -32 + ^ x23: .cfa -40 + ^ x24: .cfa -48 + ^ x25: .cfa -64 + ^ .ra: .cfa -72 + ^ x29: .cfa -80 + ^
STACK CFI c5820 .cfa: sp 96 +
STACK CFI c5838 .cfa: sp 0 +
STACK CFI c583c .cfa: x29 80 +
STACK CFI INIT c588c 14c .cfa: sp 0 +
STACK CFI c5890 .cfa: sp 144 +
STACK CFI c58a4 .cfa: x29 64 + x19: .cfa -8 + ^ x20: .cfa -16 + ^ x21: .cfa -24 + ^ x22: .cfa -32 + ^ x23: .cfa -48 + ^ .ra: .cfa -56 + ^ x29: .cfa -64 + ^
STACK CFI c58f4 .cfa: sp 144 +
STACK CFI c5908 .cfa: sp 0 +
STACK CFI c590c .cfa: x29 64 +
STACK CFI INIT c59d8 108 .cfa: sp 0 +
STACK CFI c59dc .cfa: sp 64 +
STACK CFI c59ec .cfa: x29 48 + x19: .cfa -8 + ^ x20: .cfa -16 + ^ x21: .cfa -24 + ^ x22: .cfa -32 + ^ .ra: .cfa -40 + ^ x29: .cfa -48 + ^
STACK CFI c5a98 .cfa: sp 64 +
STACK CFI c5aa8 .cfa: sp 0 +
STACK CFI c5aac .cfa: x29 48 +
STACK CFI INIT c5af8 164 .cfa: sp 0 +
STACK CFI c5afc .cfa: sp 160 +
STACK CFI c5b14 .cfa: x29 80 + x19: .cfa -8 + ^ x20: .cfa -16 + ^ x21: .cfa -24 + ^ x22: .cfa -32 + ^ x23: .cfa -40 + ^ x24: .cfa -48 + ^ x25: .cfa -64 + ^ .ra: .cfa -72 + ^ x29: .cfa -80 + ^
STACK CFI c5b74 .cfa: sp 160 +
STACK CFI c5b8c .cfa: sp 0 +
STACK CFI c5b90 .cfa: x29 80 +
STACK CFI INIT c5c5c 3d4 .cfa: sp 0 +
STACK CFI c5c60 .cfa: sp 96 +
STACK CFI c5c78 .cfa: x29 80 + x19: .cfa -8 + ^ x20: .cfa -16 + ^ x21: .cfa -24 + ^ x22: .cfa -32 + ^ x23: .cfa -40 + ^ x24: .cfa -48 + ^ x25: .cfa -64 + ^ .ra: .cfa -72 + ^ x29: .cfa -80 + ^
STACK CFI c5fbc .cfa: sp 96 +
STACK CFI c5fd4 .cfa: sp 0 +
STACK CFI c5fd8 .cfa: x29 80 +
STACK CFI INIT c6030 17c .cfa: sp 0 +
STACK CFI c6034 .cfa: sp 176 +
STACK CFI c6050 .cfa: x29 96 + x19: .cfa -8 + ^ x20: .cfa -16 + ^ x21: .cfa -24 + ^ x22: .cfa -32 + ^ x23: .cfa -40 + ^ x24: .cfa -48 + ^ x25: .cfa -56 + ^ x26: .cfa -64 + ^ x27: .cfa -80 + ^ .ra: .cfa -88 + ^ x29: .cfa -96 + ^
STACK CFI c60c0 .cfa: sp 176 +
STACK CFI c60dc .cfa: sp 0 +
STACK CFI c60e0 .cfa: x29 96 +
STACK CFI INIT c61ac 5d4 .cfa: sp 0 +
STACK CFI c61b0 .cfa: sp 96 +
STACK CFI c61c8 .cfa: x29 80 + x19: .cfa -8 + ^ x20: .cfa -16 + ^ x21: .cfa -24 + ^ x22: .cfa -32 + ^ x23: .cfa -40 + ^ x24: .cfa -48 + ^ x25: .cfa -64 + ^ .ra: .cfa -72 + ^ x29: .cfa -80 + ^
STACK CFI c66ec .cfa: sp 96 +
STACK CFI c6704 .cfa: sp 0 +
STACK CFI c6708 .cfa: x29 80 +
STACK CFI INIT c6780 14c .cfa: sp 0 +
STACK CFI c6784 .cfa: sp 144 +
STACK CFI c6798 .cfa: x29 64 + x19: .cfa -8 + ^ x20: .cfa -16 + ^ x21: .cfa -24 + ^ x22: .cfa -32 + ^ x23: .cfa -48 + ^ .ra: .cfa -56 + ^ x29: .cfa -64 + ^
STACK CFI c67e8 .cfa: sp 144 +
STACK CFI c67fc .cfa: sp 0 +
STACK CFI c6800 .cfa: x29 64 +
STACK CFI INIT c68cc 108 .cfa: sp 0 +
STACK CFI c68d0 .cfa: sp 64 +
STACK CFI c68e0 .cfa: x29 48 + x19: .cfa -8 + ^ x20: .cfa -16 + ^ x21: .cfa -24 + ^ x22: .cfa -32 + ^ .ra: .cfa -40 + ^ x29: .cfa -48 + ^
STACK CFI c698c .cfa: sp 64 +
STACK CFI c699c .cfa: sp 0 +
STACK CFI c69a0 .cfa: x29 48 +
STACK CFI INIT c69d4 180 .cfa: sp 0 +
STACK CFI c69d8 .cfa: sp 128 +
STACK CFI c69e8 .cfa: x29 48 + x19: .cfa -8 + ^ x20: .cfa -16 + ^ x21: .cfa -24 + ^ x22: .cfa -32 + ^ .ra: .cfa -40 + ^ x29: .cfa -48 + ^
STACK CFI c6a4c .cfa: sp 128 +
STACK CFI c6a5c .cfa: sp 0 +
STACK CFI c6a60 .cfa: x29 48 +
STACK CFI INIT c6b54 a4 .cfa: sp 0 +
STACK CFI c6b58 .cfa: sp 48 +
STACK CFI c6b64 .cfa: x29 48 + x19: .cfa -8 + ^ x20: .cfa -16 + ^ x21: .cfa -32 + ^ .ra: .cfa -40 + ^ x29: .cfa -48 + ^
STACK CFI c6bd0 .cfa: sp 48 +
STACK CFI c6bdc .cfa: sp 0 +
STACK CFI c6be0 .cfa: x29 48 +
STACK CFI INIT c6bf8 1ac .cfa: sp 0 +
STACK CFI c6bfc .cfa: sp 160 +
STACK CFI c6c10 .cfa: x29 48 + x19: .cfa -8 + ^ x20: .cfa -16 + ^ x21: .cfa -24 + ^ x22: .cfa -32 + ^ .ra: .cfa -40 + ^ x29: .cfa -48 + ^ v8: .cfa -64 + ^
STACK CFI c6c90 .cfa: sp 160 +
STACK CFI c6ca4 .cfa: sp 0 +
STACK CFI c6ca8 .cfa: x29 48 +
STACK CFI INIT c6da4 10c .cfa: sp 0 +
STACK CFI c6da8 .cfa: sp 64 +
STACK CFI c6db8 .cfa: x29 48 + x19: .cfa -8 + ^ x20: .cfa -16 + ^ x21: .cfa -24 + ^ x22: .cfa -32 + ^ .ra: .cfa -40 + ^ x29: .cfa -48 + ^
STACK CFI c6e68 .cfa: sp 64 +
STACK CFI c6e78 .cfa: sp 0 +
STACK CFI c6e7c .cfa: x29 48 +
STACK CFI INIT c6eb0 304 .cfa: sp 0 +
STACK CFI c6eb4 .cfa: sp 128 +
STACK CFI c6ec8 .cfa: x29 64 + x19: .cfa -8 + ^ x20: .cfa -16 + ^ x21: .cfa -24 + ^ x22: .cfa -32 + ^ x23: .cfa -48 + ^ .ra: .cfa -56 + ^ x29: .cfa -64 + ^
STACK CFI c7060 .cfa: sp 128 +
STACK CFI c7074 .cfa: sp 0 +
STACK CFI c7078 .cfa: x29 64 +
STACK CFI INIT c7208 14c .cfa: sp 0 +
STACK CFI c720c .cfa: sp 144 +
STACK CFI c7220 .cfa: x29 64 + x19: .cfa -8 + ^ x20: .cfa -16 + ^ x21: .cfa -24 + ^ x22: .cfa -32 + ^ x23: .cfa -48 + ^ .ra: .cfa -56 + ^ x29: .cfa -64 + ^
STACK CFI c7270 .cfa: sp 144 +
STACK CFI c7284 .cfa: sp 0 +
STACK CFI c7288 .cfa: x29 64 +
STACK CFI INIT c7354 108 .cfa: sp 0 +
STACK CFI c7358 .cfa: sp 64 +
STACK CFI c7368 .cfa: x29 48 + x19: .cfa -8 + ^ x20: .cfa -16 + ^ x21: .cfa -24 + ^ x22: .cfa -32 + ^ .ra: .cfa -40 + ^ x29: .cfa -48 + ^
STACK CFI c7414 .cfa: sp 64 +
STACK CFI c7424 .cfa: sp 0 +
STACK CFI c7428 .cfa: x29 48 +
STACK CFI INIT c745c 1c4 .cfa: sp 0 +
STACK CFI c7460 .cfa: sp 176 +
STACK CFI c7478 .cfa: x29 64 + x19: .cfa -8 + ^ x20: .cfa -16 + ^ x21: .cfa -24 + ^ x22: .cfa -32 + ^ x23: .cfa -48 + ^ .ra: .cfa -56 + ^ x29: .cfa -64 + ^ v8: .cfa -72 + ^ v9: .cfa -80 + ^
STACK CFI c7508 .cfa: sp 176 +
STACK CFI c7520 .cfa: sp 0 +
STACK CFI c7524 .cfa: x29 64 +
STACK CFI INIT c7620 3d4 .cfa: sp 0 +
STACK CFI c7624 .cfa: sp 112 +
STACK CFI c763c .cfa: x29 80 + x19: .cfa -8 + ^ x20: .cfa -16 + ^ x21: .cfa -24 + ^ x22: .cfa -32 + ^ x23: .cfa -40 + ^ x24: .cfa -48 + ^ x25: .cfa -64 + ^ .ra: .cfa -72 + ^ x29: .cfa -80 + ^
STACK CFI c7980 .cfa: sp 112 +
STACK CFI c7998 .cfa: sp 0 +
STACK CFI c799c .cfa: x29 80 +
STACK CFI INIT c79f8 2bc .cfa: sp 0 +
STACK CFI c79fc .cfa: sp 128 +
STACK CFI c7a10 .cfa: x29 64 + x19: .cfa -8 + ^ x20: .cfa -16 + ^ x21: .cfa -24 + ^ x22: .cfa -32 + ^ x23: .cfa -48 + ^ .ra: .cfa -56 + ^ x29: .cfa -64 + ^
STACK CFI c7b60 .cfa: sp 128 +
STACK CFI c7b74 .cfa: sp 0 +
STACK CFI c7b78 .cfa: x29 64 +
STACK CFI INIT c7cb4 2bc .cfa: sp 0 +
STACK CFI c7cb8 .cfa: sp 128 +
STACK CFI c7ccc .cfa: x29 64 + x19: .cfa -8 + ^ x20: .cfa -16 + ^ x21: .cfa -24 + ^ x22: .cfa -32 + ^ x23: .cfa -48 + ^ .ra: .cfa -56 + ^ x29: .cfa -64 + ^
STACK CFI c7e1c .cfa: sp 128 +
STACK CFI c7e30 .cfa: sp 0 +
STACK CFI c7e34 .cfa: x29 64 +
STACK CFI INIT c7f70 278 .cfa: sp 0 +
STACK CFI c7f74 .cfa: sp 128 +
STACK CFI c7f88 .cfa: x29 64 + x19: .cfa -8 + ^ x20: .cfa -16 + ^ x21: .cfa -24 + ^ x22: .cfa -32 + ^ x23: .cfa -48 + ^ .ra: .cfa -56 + ^ x29: .cfa -64 + ^
STACK CFI c8094 .cfa: sp 128 +
STACK CFI c80a8 .cfa: sp 0 +
STACK CFI c80ac .cfa: x29 64 +
STACK CFI INIT c81e8 2c8 .cfa: sp 0 +
STACK CFI c81ec .cfa: sp 128 +
STACK CFI c8200 .cfa: x29 64 + x19: .cfa -8 + ^ x20: .cfa -16 + ^ x21: .cfa -24 + ^ x22: .cfa -32 + ^ x23: .cfa -48 + ^ .ra: .cfa -56 + ^ x29: .cfa -64 + ^
STACK CFI c835c .cfa: sp 128 +
STACK CFI c8370 .cfa: sp 0 +
STACK CFI c8374 .cfa: x29 64 +
STACK CFI INIT c84b0 4cc .cfa: sp 0 +
STACK CFI c84b4 .cfa: sp 128 +
STACK CFI c84c8 .cfa: x29 64 + x19: .cfa -8 + ^ x20: .cfa -16 + ^ x21: .cfa -24 + ^ x22: .cfa -32 + ^ x23: .cfa -48 + ^ .ra: .cfa -56 + ^ x29: .cfa -64 + ^
STACK CFI c87d4 .cfa: sp 128 +
STACK CFI c87e8 .cfa: sp 0 +
STACK CFI c87ec .cfa: x29 64 +
STACK CFI INIT c897c 154 .cfa: sp 0 +
STACK CFI c8980 .cfa: sp 384 +
STACK CFI c8994 .cfa: x29 64 + x19: .cfa -8 + ^ x20: .cfa -16 + ^ x21: .cfa -24 + ^ x22: .cfa -32 + ^ x23: .cfa -40 + ^ x28: .cfa -48 + ^ .ra: .cfa -56 + ^ x29: .cfa -64 + ^
STACK CFI c8a78 .cfa: sp 384 +
STACK CFI c8a8c .cfa: sp 0 +
STACK CFI c8a90 .cfa: x29 64 +
STACK CFI INIT c8ae8 4e0 .cfa: sp 0 +
STACK CFI c8aec .cfa: sp 64 +
STACK CFI c8afc .cfa: x29 64 + x19: .cfa -8 + ^ x20: .cfa -16 + ^ x21: .cfa -24 + ^ x22: .cfa -32 + ^ x23: .cfa -40 + ^ x24: .cfa -48 + ^ .ra: .cfa -56 + ^ x29: .cfa -64 + ^
STACK CFI c8f9c .cfa: sp 64 +
STACK CFI c8fac .cfa: sp 0 +
STACK CFI c8fb0 .cfa: x29 64 +
STACK CFI INIT c92f8 18c .cfa: sp 0 +
STACK CFI c92fc .cfa: sp 208 +
STACK CFI c930c .cfa: x29 48 + x19: .cfa -8 + ^ x20: .cfa -16 + ^ x21: .cfa -24 + ^ x22: .cfa -32 + ^ .ra: .cfa -40 + ^ x29: .cfa -48 + ^
STACK CFI c940c .cfa: sp 208 +
STACK CFI c941c .cfa: sp 0 +
STACK CFI c9420 .cfa: x29 48 +
STACK CFI INIT c9484 18c .cfa: sp 0 +
STACK CFI c9488 .cfa: sp 80 +
STACK CFI c9498 .cfa: x29 48 + x19: .cfa -8 + ^ x20: .cfa -16 + ^ x21: .cfa -24 + ^ x22: .cfa -32 + ^ .ra: .cfa -40 + ^ x29: .cfa -48 + ^
STACK CFI c9574 .cfa: sp 80 +
STACK CFI c9584 .cfa: sp 0 +
STACK CFI c9588 .cfa: x29 48 +
STACK CFI INIT c968c 50 .cfa: sp 0 +
STACK CFI c9690 .cfa: sp 32 +
STACK CFI c9698 .cfa: x29 32 + x19: .cfa -8 + ^ x20: .cfa -16 + ^ .ra: .cfa -24 + ^ x29: .cfa -32 + ^
STACK CFI INIT c9708 7c0 .cfa: sp 0 +
STACK CFI c970c .cfa: sp 320 +
STACK CFI c9728 .cfa: x29 96 + x19: .cfa -8 + ^ x20: .cfa -16 + ^ x21: .cfa -24 + ^ x22: .cfa -32 + ^ x23: .cfa -40 + ^ x24: .cfa -48 + ^ x25: .cfa -56 + ^ x26: .cfa -64 + ^ x27: .cfa -72 + ^ x28: .cfa -80 + ^ .ra: .cfa -88 + ^ x29: .cfa -96 + ^
STACK CFI c9d78 .cfa: sp 320 +
STACK CFI c9d94 .cfa: sp 0 +
STACK CFI c9d98 .cfa: x29 96 +
STACK CFI INIT c9f2c 13c .cfa: sp 0 +
STACK CFI c9f30 .cfa: sp 80 +
STACK CFI c9f44 .cfa: x29 80 + x19: .cfa -8 + ^ x20: .cfa -16 + ^ x21: .cfa -24 + ^ x22: .cfa -32 + ^ x23: .cfa -40 + ^ x24: .cfa -48 + ^ x28: .cfa -64 + ^ .ra: .cfa -72 + ^ x29: .cfa -80 + ^
STACK CFI c9fd8 .cfa: sp 80 +
STACK CFI c9fec .cfa: sp 0 +
STACK CFI c9ff0 .cfa: x29 80 +
STACK CFI INIT cca78 ca0 .cfa: sp 0 +
STACK CFI cca7c .cfa: sp 96 +
STACK CFI cca94 .cfa: x29 96 + x19: .cfa -8 + ^ x20: .cfa -16 + ^ x21: .cfa -24 + ^ x22: .cfa -32 + ^ x23: .cfa -40 + ^ x24: .cfa -48 + ^ x25: .cfa -56 + ^ x26: .cfa -64 + ^ x27: .cfa -72 + ^ x28: .cfa -80 + ^ .ra: .cfa -88 + ^ x29: .cfa -96 + ^
STACK CFI cd534 .cfa: sp 96 +
STACK CFI cd54c .cfa: sp 0 +
STACK CFI cd550 .cfa: x29 96 +
STACK CFI INIT cd870 26c .cfa: sp 0 +
STACK CFI cd874 .cfa: sp 128 +
STACK CFI cd884 .cfa: x29 48 + x19: .cfa -8 + ^ x20: .cfa -16 + ^ x21: .cfa -24 + ^ x22: .cfa -32 + ^ .ra: .cfa -40 + ^ x29: .cfa -48 + ^
STACK CFI cda28 .cfa: sp 128 +
STACK CFI cda38 .cfa: sp 0 +
STACK CFI cda3c .cfa: x29 48 +
STACK CFI INIT cde6c 3b8 .cfa: sp 0 +
STACK CFI cde70 .cfa: sp 96 +
STACK CFI cde88 .cfa: x29 96 + x19: .cfa -8 + ^ x20: .cfa -16 + ^ x21: .cfa -24 + ^ x22: .cfa -32 + ^ x23: .cfa -40 + ^ x24: .cfa -48 + ^ x25: .cfa -56 + ^ x26: .cfa -64 + ^ x27: .cfa -72 + ^ x28: .cfa -80 + ^ .ra: .cfa -88 + ^ x29: .cfa -96 + ^
STACK CFI ce1c4 .cfa: sp 96 +
STACK CFI ce1dc .cfa: sp 0 +
STACK CFI ce1e0 .cfa: x29 96 +
STACK CFI INIT ce2c4 ccc .cfa: sp 0 +
STACK CFI ce2c8 .cfa: sp 96 +
STACK CFI ce2e0 .cfa: x29 96 + x19: .cfa -8 + ^ x20: .cfa -16 + ^ x21: .cfa -24 + ^ x22: .cfa -32 + ^ x23: .cfa -40 + ^ x24: .cfa -48 + ^ x25: .cfa -56 + ^ x26: .cfa -64 + ^ x27: .cfa -72 + ^ x28: .cfa -80 + ^ .ra: .cfa -88 + ^ x29: .cfa -96 + ^
STACK CFI cedbc .cfa: sp 96 +
STACK CFI cedd4 .cfa: sp 0 +
STACK CFI cedd8 .cfa: x29 96 +
STACK CFI INIT cf27c af8 .cfa: sp 0 +
STACK CFI cf280 .cfa: sp 96 +
STACK CFI cf298 .cfa: x29 96 + x19: .cfa -8 + ^ x20: .cfa -16 + ^ x21: .cfa -24 + ^ x22: .cfa -32 + ^ x23: .cfa -40 + ^ x24: .cfa -48 + ^ x25: .cfa -56 + ^ x26: .cfa -64 + ^ x27: .cfa -72 + ^ x28: .cfa -80 + ^ .ra: .cfa -88 + ^ x29: .cfa -96 + ^
STACK CFI cfce8 .cfa: sp 96 +
STACK CFI cfd00 .cfa: sp 0 +
STACK CFI cfd04 .cfa: x29 96 +
STACK CFI INIT cff68 1430 .cfa: sp 0 +
STACK CFI cff6c .cfa: sp 96 +
STACK CFI cff84 .cfa: x29 96 + x19: .cfa -8 + ^ x20: .cfa -16 + ^ x21: .cfa -24 + ^ x22: .cfa -32 + ^ x23: .cfa -40 + ^ x24: .cfa -48 + ^ x25: .cfa -56 + ^ x26: .cfa -64 + ^ x27: .cfa -72 + ^ x28: .cfa -80 + ^ .ra: .cfa -88 + ^ x29: .cfa -96 + ^
STACK CFI d1220 .cfa: sp 96 +
STACK CFI d1238 .cfa: sp 0 +
STACK CFI d123c .cfa: x29 96 +
STACK CFI INIT d14bc 75c .cfa: sp 0 +
STACK CFI d14c0 .cfa: sp 368 +
STACK CFI d14dc .cfa: x29 96 + x19: .cfa -8 + ^ x20: .cfa -16 + ^ x21: .cfa -24 + ^ x22: .cfa -32 + ^ x23: .cfa -40 + ^ x24: .cfa -48 + ^ x25: .cfa -56 + ^ x26: .cfa -64 + ^ x27: .cfa -72 + ^ x28: .cfa -80 + ^ .ra: .cfa -88 + ^ x29: .cfa -96 + ^
STACK CFI d1590 .cfa: sp 368 +
STACK CFI d15ac .cfa: sp 0 +
STACK CFI d15b0 .cfa: x29 96 +
STACK CFI d1604 .cfa: sp 368 +
STACK CFI d1620 .cfa: sp 0 +
STACK CFI d1624 .cfa: x29 96 +
STACK CFI INIT d1fd8 ee4 .cfa: sp 0 +
STACK CFI d1fdc .cfa: sp 96 +
STACK CFI d1ff4 .cfa: x29 96 + x19: .cfa -8 + ^ x20: .cfa -16 + ^ x21: .cfa -24 + ^ x22: .cfa -32 + ^ x23: .cfa -40 + ^ x24: .cfa -48 + ^ x25: .cfa -56 + ^ x26: .cfa -64 + ^ x27: .cfa -72 + ^ x28: .cfa -80 + ^ .ra: .cfa -88 + ^ x29: .cfa -96 + ^
STACK CFI d2cb4 .cfa: sp 96 +
STACK CFI d2ccc .cfa: sp 0 +
STACK CFI d2cd0 .cfa: x29 96 +
STACK CFI INIT d3234 14c0 .cfa: sp 0 +
STACK CFI d3238 .cfa: sp 112 +
STACK CFI d3254 .cfa: x29 96 + x19: .cfa -8 + ^ x20: .cfa -16 + ^ x21: .cfa -24 + ^ x22: .cfa -32 + ^ x23: .cfa -40 + ^ x24: .cfa -48 + ^ x25: .cfa -56 + ^ x26: .cfa -64 + ^ x27: .cfa -72 + ^ x28: .cfa -80 + ^ .ra: .cfa -88 + ^ x29: .cfa -96 + ^ v8: .cfa -112 + ^
STACK CFI d3634 .cfa: sp 112 +
STACK CFI d3650 .cfa: sp 0 +
STACK CFI d3654 .cfa: x29 96 +
STACK CFI INIT d6ae0 9a0 .cfa: sp 0 +
STACK CFI d6ae4 .cfa: sp 144 +
STACK CFI d6afc .cfa: x29 80 + x19: .cfa -8 + ^ x20: .cfa -16 + ^ x21: .cfa -24 + ^ x22: .cfa -32 + ^ x23: .cfa -40 + ^ x24: .cfa -48 + ^ x25: .cfa -64 + ^ .ra: .cfa -72 + ^ x29: .cfa -80 + ^
STACK CFI d73fc .cfa: sp 144 +
STACK CFI d7414 .cfa: sp 0 +
STACK CFI d7418 .cfa: x29 80 +
STACK CFI INIT d7480 584 .cfa: sp 0 +
STACK CFI d7484 .cfa: sp 96 +
STACK CFI d749c .cfa: x29 96 + x19: .cfa -8 + ^ x20: .cfa -16 + ^ x21: .cfa -24 + ^ x22: .cfa -32 + ^ x23: .cfa -40 + ^ x24: .cfa -48 + ^ x25: .cfa -56 + ^ x26: .cfa -64 + ^ x27: .cfa -72 + ^ x28: .cfa -80 + ^ .ra: .cfa -88 + ^ x29: .cfa -96 + ^
STACK CFI d7968 .cfa: sp 96 +
STACK CFI d7980 .cfa: sp 0 +
STACK CFI d7984 .cfa: x29 96 +
STACK CFI INIT d7a04 684 .cfa: sp 0 +
STACK CFI d7a08 .cfa: sp 96 +
STACK CFI d7a20 .cfa: x29 96 + x19: .cfa -8 + ^ x20: .cfa -16 + ^ x21: .cfa -24 + ^ x22: .cfa -32 + ^ x23: .cfa -40 + ^ x24: .cfa -48 + ^ x25: .cfa -56 + ^ x26: .cfa -64 + ^ x27: .cfa -72 + ^ x28: .cfa -80 + ^ .ra: .cfa -88 + ^ x29: .cfa -96 + ^
STACK CFI d7fec .cfa: sp 96 +
STACK CFI d8004 .cfa: sp 0 +
STACK CFI d8008 .cfa: x29 96 +
