MODULE Linux arm64 43D8961839F0EC7F78B8ABB99DDDD2C40 redlime.statchanges.android64.so
INFO CODE_ID 1896D843F0397FEC78B8ABB99DDDD2C4AF31753C
INFO GENERATOR mozilla/dump_syms 2.3.4
PUBLIC 85b0 0 __on_dlclose
PUBLIC 85c0 0 __emutls_unregister_key
PUBLIC 85c8 0 __on_dlclose_late
PUBLIC 85d0 0 __atexit_handler_wrapper
PUBLIC 85e4 0 atexit
PUBLIC 8600 0 pthread_atfork
PUBLIC 8610 0 unwind_phase2
PUBLIC 8744 0 _Unwind_Resume
PUBLIC 87c8 0 unwind_phase2_forced
PUBLIC m 88bc 0 __unw_init_local
PUBLIC m 8964 0 __unw_get_reg
PUBLIC 89e0 0 __unw_step_stage2
PUBLIC m 89f4 0 __unw_get_proc_info
PUBLIC m 8a34 0 __unw_resume
PUBLIC 8a5c 0 libunwind::CFI_Parser<libunwind::LocalAddressSpace>::decodeFDE(libunwind::LocalAddressSpace&, unsigned long, libunwind::CFI_Parser<libunwind::LocalAddressSpace>::FDE_Info*, libunwind::CFI_Parser<libunwind::LocalAddressSpace>::CIE_Info*, bool)
PUBLIC 8bec 0 libunwind::CFI_Parser<libunwind::LocalAddressSpace>::parseCIE(libunwind::LocalAddressSpace&, unsigned long, libunwind::CFI_Parser<libunwind::LocalAddressSpace>::CIE_Info*)
PUBLIC 8eb4 0 libunwind::AbstractUnwindCursor::~AbstractUnwindCursor()
PUBLIC 8ebc 0 libunwind::UnwindCursor<libunwind::LocalAddressSpace, libunwind::Registers_arm64>::~UnwindCursor()
PUBLIC 8ec4 0 libunwind::UnwindCursor<libunwind::LocalAddressSpace, libunwind::Registers_arm64>::validReg(int)
PUBLIC 8f08 0 libunwind::UnwindCursor<libunwind::LocalAddressSpace, libunwind::Registers_arm64>::getReg(int)
PUBLIC 8ff0 0 libunwind::UnwindCursor<libunwind::LocalAddressSpace, libunwind::Registers_arm64>::setReg(int, unsigned long)
PUBLIC 90d8 0 libunwind::UnwindCursor<libunwind::LocalAddressSpace, libunwind::Registers_arm64>::validFloatReg(int)
PUBLIC 90ec 0 libunwind::UnwindCursor<libunwind::LocalAddressSpace, libunwind::Registers_arm64>::getFloatReg(int)
PUBLIC 90fc 0 libunwind::UnwindCursor<libunwind::LocalAddressSpace, libunwind::Registers_arm64>::setFloatReg(int, double)
PUBLIC 910c 0 libunwind::UnwindCursor<libunwind::LocalAddressSpace, libunwind::Registers_arm64>::step(bool)
PUBLIC 91fc 0 libunwind::UnwindCursor<libunwind::LocalAddressSpace, libunwind::Registers_arm64>::getInfo(unw_proc_info_t*)
PUBLIC 9240 0 libunwind::UnwindCursor<libunwind::LocalAddressSpace, libunwind::Registers_arm64>::jumpto()
PUBLIC 924c 0 libunwind::UnwindCursor<libunwind::LocalAddressSpace, libunwind::Registers_arm64>::isSignalFrame()
PUBLIC 9258 0 libunwind::UnwindCursor<libunwind::LocalAddressSpace, libunwind::Registers_arm64>::getFunctionName(char*, unsigned long, unsigned long*)
PUBLIC 9284 0 libunwind::UnwindCursor<libunwind::LocalAddressSpace, libunwind::Registers_arm64>::setInfoBasedOnIPRegister(bool)
PUBLIC 9504 0 libunwind::UnwindCursor<libunwind::LocalAddressSpace, libunwind::Registers_arm64>::getRegisterName(int)
PUBLIC 9510 0 libunwind::UnwindCursor<libunwind::LocalAddressSpace, libunwind::Registers_arm64>::stepThroughSigReturn(libunwind::Registers_arm64&)
PUBLIC 9630 0 libunwind::DwarfInstructions<libunwind::LocalAddressSpace, libunwind::Registers_arm64>::stepWithDwarf(libunwind::LocalAddressSpace&, unsigned long, unsigned long, libunwind::Registers_arm64&, bool&, bool)
PUBLIC 9ab8 0 libunwind::CFI_Parser<libunwind::LocalAddressSpace>::parseFDEInstructions(libunwind::LocalAddressSpace&, libunwind::CFI_Parser<libunwind::LocalAddressSpace>::FDE_Info const&, libunwind::CFI_Parser<libunwind::LocalAddressSpace>::CIE_Info const&, unsigned long, int, libunwind::CFI_Parser<libunwind::LocalAddressSpace>::PrologInfo*)
PUBLIC a700 0 libunwind::DwarfInstructions<libunwind::LocalAddressSpace, libunwind::Registers_arm64>::getCFA(libunwind::LocalAddressSpace&, libunwind::CFI_Parser<libunwind::LocalAddressSpace>::PrologInfo const&, libunwind::Registers_arm64 const&)
PUBLIC a834 0 libunwind::DwarfInstructions<libunwind::LocalAddressSpace, libunwind::Registers_arm64>::getSavedRegister(libunwind::LocalAddressSpace&, libunwind::Registers_arm64 const&, unsigned long, libunwind::CFI_Parser<libunwind::LocalAddressSpace>::RegisterLocation const&)
PUBLIC aa44 0 libunwind::LocalAddressSpace::getEncodedP(unsigned long&, unsigned long, unsigned char, unsigned long)
PUBLIC add0 0 libunwind::LocalAddressSpace::getULEB128(unsigned long&, unsigned long)
PUBLIC af98 0 libunwind::DwarfInstructions<libunwind::LocalAddressSpace, libunwind::Registers_arm64>::evaluateExpression(unsigned long, libunwind::LocalAddressSpace&, libunwind::Registers_arm64 const&, unsigned long)
PUBLIC b954 0 libunwind::UnwindCursor<libunwind::LocalAddressSpace, libunwind::Registers_arm64>::getInfoFromDwarfSection(unsigned long, libunwind::UnwindInfoSections const&, unsigned int)
PUBLIC bc28 0 libunwind::findUnwindSectionsByPhdr(dl_phdr_info*, unsigned long, void*)
PUBLIC bd5c 0 libunwind::EHHeaderParser<libunwind::LocalAddressSpace>::decodeEHHdr(libunwind::LocalAddressSpace&, unsigned long, unsigned long, libunwind::EHHeaderParser<libunwind::LocalAddressSpace>::EHHeaderInfo&)
PUBLIC be7c 0 libunwind::CFI_Parser<libunwind::LocalAddressSpace>::findFDE(libunwind::LocalAddressSpace&, unsigned long, unsigned long, unsigned long, unsigned long, libunwind::CFI_Parser<libunwind::LocalAddressSpace>::FDE_Info*, libunwind::CFI_Parser<libunwind::LocalAddressSpace>::CIE_Info*)
PUBLIC c044 0 libunwind::EHHeaderParser<libunwind::LocalAddressSpace>::findFDE(libunwind::LocalAddressSpace&, unsigned long, unsigned long, unsigned int, libunwind::CFI_Parser<libunwind::LocalAddressSpace>::FDE_Info*, libunwind::CFI_Parser<libunwind::LocalAddressSpace>::CIE_Info*)
PUBLIC c1ac 0 libunwind::EHHeaderParser<libunwind::LocalAddressSpace>::getTableEntrySize(unsigned char)
PUBLIC c2a8 0 libunwind::Registers_arm64::getRegisterName(int)
PUBLIC c2d8 0 __libunwind_Registers_arm64_jumpto
PUBLIC m c368 0 __unw_getcontext
PUBLIC c410 0 __aarch64_ldadd8_relax
PUBLIC c440 0 init_have_lse_atomics
PUBLIC c4d8 0 __init_cpu_features_constructor
PUBLIC ca74 0 __init_cpu_features
PUBLIC cb00 0 __aarch64_ldadd8_acq_rel
PUBLIC cb30 0 updateLabel(int, int, cocos2d::CCLabelBMFont*)
PUBLIC m d4e0 0 std::__ndk1::basic_ostringstream<char, std::__ndk1::char_traits<char>, std::__ndk1::allocator<char> >::~basic_ostringstream()
PUBLIC d55c 0 tryUpdateLabels()
PUBLIC d970 0 geode::impl::ResultData<long, std::__ndk1::basic_string<char, std::__ndk1::char_traits<char>, std::__ndk1::allocator<char> > >::~ResultData()
PUBLIC d9e4 0 geode::log::debug<>(fmt::v11::basic_format_string<char, fmt::v11::type_identity<decltype ((wrapCocosObj<>)((std::declval<>)()))>::type>, &&)
PUBLIC da5c 0 __cxx_global_var_init.20
PUBLIC e5fc 0 _GLOBAL__sub_I_main.cpp
PUBLIC e63c 0 geode::modifier::ModifyBase<geode::modifier::ModifyDerive<hook60<(anonymous namespace)::hook60Parent>, ProfilePage> >::~ModifyBase()
PUBLIC e654 0 __clang_call_terminate
PUBLIC e664 0 std::__ndk1::basic_string<char, std::__ndk1::char_traits<char>, std::__ndk1::allocator<char> >::__throw_length_error[abi:ne180000]() const
PUBLIC e678 0 std::__ndk1::__throw_length_error[abi:ne180000](char const*)
PUBLIC e6c8 0 std::length_error::length_error[abi:ne180000](char const*)
PUBLIC e6f8 0 std::__throw_bad_array_new_length([abi:ne180000], void)
PUBLIC e72c 0 std::__ndk1::__throw_bad_variant_access[abi:ne180000]()
PUBLIC e760 0 std::__ndk1::__variant_detail::__visitation::__base::__dispatcher<(unsigned long)0>::__dispatch[abi:ne180000]<std::__ndk1::__variant_detail::__dtor<std::__ndk1::__variant_detail::__traits<long, std::__ndk1::basic_string<char, std::__ndk1::char_traits<char>, std::__ndk1::allocator<char> > >, (std::__ndk1::__variant_detail::_Trait)1>::__destroy[abi:ne180000]()::{lambda(auto:1&)#1}, std::__ndk1::__variant_detail::__base<(std::__ndk1::__variant_detail::__traits<long, std::__ndk1::basic_string<char, std::__ndk1::char_traits<char>, std::__ndk1::allocator<char> > >)1, long, std::__ndk1::allocator<char> >&>(std::__ndk1::__variant_detail::__dtor<std::__ndk1::__variant_detail::__traits<long, std::__ndk1::basic_string<char, std::__ndk1::char_traits<char>, std::__ndk1::allocator<char> > >, (std::__ndk1::__variant_detail::_Trait)1>, std::__ndk1::__variant_detail::__base<(std::__ndk1::__variant_detail::__traits<long, std::__ndk1::basic_string<char, std::__ndk1::char_traits<char>, std::__ndk1::allocator<char> > >)1, long, std::__ndk1::allocator<char> >&)
PUBLIC e764 0 std::__ndk1::__variant_detail::__visitation::__base::__dispatcher<(unsigned long)1>::__dispatch[abi:ne180000]<std::__ndk1::__variant_detail::__dtor<std::__ndk1::__variant_detail::__traits<long, std::__ndk1::basic_string<char, std::__ndk1::char_traits<char>, std::__ndk1::allocator<char> > >, (std::__ndk1::__variant_detail::_Trait)1>::__destroy[abi:ne180000]()::{lambda(auto:1&)#1}, std::__ndk1::__variant_detail::__base<(std::__ndk1::__variant_detail::__traits<long, std::__ndk1::basic_string<char, std::__ndk1::char_traits<char>, std::__ndk1::allocator<char> > >)1, long, std::__ndk1::allocator<char> >&>(std::__ndk1::__variant_detail::__dtor<std::__ndk1::__variant_detail::__traits<long, std::__ndk1::basic_string<char, std::__ndk1::char_traits<char>, std::__ndk1::allocator<char> > >, (std::__ndk1::__variant_detail::_Trait)1>, std::__ndk1::__variant_detail::__base<(std::__ndk1::__variant_detail::__traits<long, std::__ndk1::basic_string<char, std::__ndk1::char_traits<char>, std::__ndk1::allocator<char> > >)1, long, std::__ndk1::allocator<char> >&)
PUBLIC e778 0 geode::cast::traverseTypeinfoFor(void*, geode::cast::ClassTypeinfoType const*, char const*)
PUBLIC e870 0 std::__ndk1::__function::__base<void ()>::~__base()
PUBLIC e874 0 std::__ndk1::__function::__func<void (*)(), std::__ndk1::allocator<void (*)()>, void ()>::~__func()
PUBLIC e878 0 std::__ndk1::__function::__func<void (*)(), std::__ndk1::allocator<void (*)()>, void ()>::__clone() const
PUBLIC e8ac 0 std::__ndk1::__function::__func<void (*)(), std::__ndk1::allocator<void (*)()>, void ()>::__clone(std::__ndk1::__function::__base<void ()>*) const
PUBLIC e8c0 0 std::__ndk1::__function::__func<void (*)(), std::__ndk1::allocator<void (*)()>, void ()>::destroy()
PUBLIC e8c4 0 std::__ndk1::__function::__func<void (*)(), std::__ndk1::allocator<void (*)()>, void ()>::destroy_deallocate()
PUBLIC e8c8 0 std::__ndk1::__function::__func<void (*)(), std::__ndk1::allocator<void (*)()>, void ()>::operator()()
PUBLIC e8d0 0 std::__ndk1::__function::__func<void (*)(), std::__ndk1::allocator<void (*)()>, void ()>::target(std::type_info const&) const
PUBLIC e8ec 0 std::__ndk1::__function::__func<void (*)(), std::__ndk1::allocator<void (*)()>, void ()>::target_type() const
PUBLIC e8f8 0 geode::modifier::ModifyDerive<hook60<(anonymous namespace)::hook60Parent>, ProfilePage>::apply()
PUBLIC ef48 0 std::__ndk1::shared_ptr<geode::Hook>::~shared_ptr[abi:ne180000]()
PUBLIC ef98 0 geode::impl::ResultData<geode::Hook*, std::__ndk1::basic_string<char, std::__ndk1::char_traits<char>, std::__ndk1::allocator<char> > >::~ResultData()
PUBLIC f00c 0 std::__ndk1::vector<std::__ndk1::basic_string<char, std::__ndk1::char_traits<char>, std::__ndk1::allocator<char> >, std::__ndk1::allocator<std::__ndk1::basic_string<char, std::__ndk1::char_traits<char>, std::__ndk1::allocator<char> > > >::~vector[abi:ne180000]()
PUBLIC f088 0 geode::modifier::ModifyBase<geode::modifier::ModifyDerive<hook60<(anonymous namespace)::hook60Parent>, ProfilePage> >::apply()
PUBLIC f08c 0 _ZN5geode15UnwrapExceptionC2IRPNS_4HookEQsr4implE18IsStringStreamableIT_EEENS_4impl5OkTagEOS5_
PUBLIC m f788 0 std::__ndk1::basic_stringstream<char, std::__ndk1::char_traits<char>, std::__ndk1::allocator<char> >::~basic_stringstream()
PUBLIC f808 0 geode::UnwrapException::~UnwrapException()
PUBLIC f82c 0 std::__ndk1::basic_string<char, std::__ndk1::char_traits<char>, std::__ndk1::allocator<char> >::__init_copy_ctor_external(char const*, unsigned long)
PUBLIC f8a8 0 std::__ndk1::__split_buffer<std::__ndk1::basic_string<char, std::__ndk1::char_traits<char>, std::__ndk1::allocator<char> >, std::__ndk1::allocator<std::__ndk1::basic_string<char, std::__ndk1::char_traits<char>, std::__ndk1::allocator<char> > >&>::~__split_buffer()
PUBLIC f910 0 std::__ndk1::vector<std::__ndk1::basic_string<char, std::__ndk1::char_traits<char>, std::__ndk1::allocator<char> >, std::__ndk1::allocator<std::__ndk1::basic_string<char, std::__ndk1::char_traits<char>, std::__ndk1::allocator<char> > > >::__throw_length_error[abi:ne180000]() const
PUBLIC f924 0 std::__ndk1::__variant_detail::__visitation::__base::__dispatcher<(unsigned long)0>::__dispatch[abi:ne180000]<std::__ndk1::__variant_detail::__dtor<std::__ndk1::__variant_detail::__traits<geode::Hook*, std::__ndk1::basic_string<char, std::__ndk1::char_traits<char>, std::__ndk1::allocator<char> > >, (std::__ndk1::__variant_detail::_Trait)1>::__destroy[abi:ne180000]()::{lambda(auto:1&)#1}, std::__ndk1::__variant_detail::__base<(std::__ndk1::__variant_detail::__traits<geode::Hook*, std::__ndk1::basic_string<char, std::__ndk1::char_traits<char>, std::__ndk1::allocator<char> > >)1, geode::Hook, std::__ndk1::allocator<char> >&>(std::__ndk1::__variant_detail::__dtor<std::__ndk1::__variant_detail::__traits<geode::Hook*, std::__ndk1::basic_string<char, std::__ndk1::char_traits<char>, std::__ndk1::allocator<char> > >, (std::__ndk1::__variant_detail::_Trait)1>, std::__ndk1::__variant_detail::__base<(std::__ndk1::__variant_detail::__traits<geode::Hook*, std::__ndk1::basic_string<char, std::__ndk1::char_traits<char>, std::__ndk1::allocator<char> > >)1, geode::Hook, std::__ndk1::allocator<char> >&)
PUBLIC f928 0 std::__ndk1::__variant_detail::__visitation::__base::__dispatcher<(unsigned long)1>::__dispatch[abi:ne180000]<std::__ndk1::__variant_detail::__dtor<std::__ndk1::__variant_detail::__traits<geode::Hook*, std::__ndk1::basic_string<char, std::__ndk1::char_traits<char>, std::__ndk1::allocator<char> > >, (std::__ndk1::__variant_detail::_Trait)1>::__destroy[abi:ne180000]()::{lambda(auto:1&)#1}, std::__ndk1::__variant_detail::__base<(std::__ndk1::__variant_detail::__traits<geode::Hook*, std::__ndk1::basic_string<char, std::__ndk1::char_traits<char>, std::__ndk1::allocator<char> > >)1, geode::Hook, std::__ndk1::allocator<char> >&>(std::__ndk1::__variant_detail::__dtor<std::__ndk1::__variant_detail::__traits<geode::Hook*, std::__ndk1::basic_string<char, std::__ndk1::char_traits<char>, std::__ndk1::allocator<char> > >, (std::__ndk1::__variant_detail::_Trait)1>, std::__ndk1::__variant_detail::__base<(std::__ndk1::__variant_detail::__traits<geode::Hook*, std::__ndk1::basic_string<char, std::__ndk1::char_traits<char>, std::__ndk1::allocator<char> > >)1, geode::Hook, std::__ndk1::allocator<char> >&)
PUBLIC f93c 0 std::__ndk1::__tree<std::__ndk1::__value_type<std::__ndk1::basic_string<char, std::__ndk1::char_traits<char>, std::__ndk1::allocator<char> >, std::__ndk1::shared_ptr<geode::Hook> >, std::__ndk1::__map_value_compare<std::__ndk1::basic_string<char, std::__ndk1::char_traits<char>, std::__ndk1::allocator<char> >, std::__ndk1::__value_type<std::__ndk1::basic_string<char, std::__ndk1::char_traits<char>, std::__ndk1::allocator<char> >, std::__ndk1::shared_ptr<geode::Hook> >, std::__ndk1::less<std::__ndk1::basic_string<char, std::__ndk1::char_traits<char>, std::__ndk1::allocator<char> > >, true>, std::__ndk1::allocator<std::__ndk1::__value_type<std::__ndk1::basic_string<char, std::__ndk1::char_traits<char>, std::__ndk1::allocator<char> >, std::__ndk1::shared_ptr<geode::Hook> > > >::destroy(std::__ndk1::__tree_node<std::__ndk1::__value_type<std::__ndk1::basic_string<char, std::__ndk1::char_traits<char>, std::__ndk1::allocator<char> >, std::__ndk1::shared_ptr<geode::Hook> >, void*>*)
PUBLIC f9c0 0 geode::modifier::AsStaticFunction_init<hook60<(anonymous namespace)::hook60Parent>, bool (hook60<(anonymous namespace)::hook60Parent>::*)(int, bool)>::Impl<bool (hook60<(anonymous namespace)::hook60Parent>::*)(int, bool)>::function(hook60<(anonymous namespace)::hook60Parent>*, int, bool)
PUBLIC 10034 0 geode::modifier::AsStaticFunction_getUserInfoFinished<hook60<(anonymous namespace)::hook60Parent>, void (hook60<(anonymous namespace)::hook60Parent>::*)(GJUserScore*)>::Impl<void (hook60<(anonymous namespace)::hook60Parent>::*)(GJUserScore*)>::function(hook60<(anonymous namespace)::hook60Parent>*, GJUserScore*)
PUBLIC 100b4 0 std::__ndk1::shared_ptr<tulip::hook::CallingConvention>::~shared_ptr[abi:ne180000]()
PUBLIC 10104 0 tulip::hook::HandlerMetadata::~HandlerMetadata()
PUBLIC 10168 0 geode::modifier::FieldIntermediate<hook60<(anonymous namespace)::hook60Parent>, ProfilePage>::operator->()
PUBLIC 1082c 0 geode::Task<geode::utils::web::WebResponse, geode::utils::web::WebProgress>::~Task()
PUBLIC 1087c 0 std::__ndk1::__throw_out_of_range[abi:ne180000](char const*)
PUBLIC 108cc 0 std::out_of_range::out_of_range[abi:ne180000](char const*)
PUBLIC 108fc 0 geode::modifier::FieldIntermediate<hook60<(anonymous namespace)::hook60Parent>, ProfilePage>::fieldDestructor(void*)
PUBLIC 10998 0 std::__ndk1::vector<void*, std::__ndk1::allocator<void*> >::__throw_length_error[abi:ne180000]() const
PUBLIC 109ac 0 std::__ndk1::vector<std::__ndk1::function<void (void*)>, std::__ndk1::allocator<std::__ndk1::function<void (void*)> > >::__throw_length_error[abi:ne180000]() const
PUBLIC 109c0 0 std::__ndk1::vector<void*, std::__ndk1::allocator<void*> >::__throw_out_of_range[abi:ne180000]() const
PUBLIC 109d4 0 std::__ndk1::vector<std::__ndk1::function<void (void*)>, std::__ndk1::allocator<std::__ndk1::function<void (void*)> > >::__throw_out_of_range[abi:ne180000]() const
PUBLIC 109e8 0 geode::EventListener<geode::Task<geode::utils::web::WebResponse, geode::utils::web::WebProgress> >::~EventListener()
PUBLIC 10a84 0 geode::EventListener<geode::Task<geode::utils::web::WebResponse, geode::utils::web::WebProgress> >::getPool() const
PUBLIC 10a88 0 geode::EventListener<geode::Task<geode::utils::web::WebResponse, geode::utils::web::WebProgress> >::handle(geode::Event*)
PUBLIC 10c34 0 geode::EventListener<geode::Task<geode::utils::web::WebResponse, geode::utils::web::WebProgress> >::~EventListener()
PUBLIC 10cd8 0 std::__ndk1::__throw_bad_function_call[abi:ne180000]()
PUBLIC 10d0c 0 std::__ndk1::bad_function_call::~bad_function_call()
PUBLIC 10d30 0 std::__ndk1::__function::__base<void (void*)>::~__base()
PUBLIC 10d34 0 std::__ndk1::__function::__func<void (*)(void*), std::__ndk1::allocator<void (*)(void*)>, void (void*)>::~__func()
PUBLIC 10d38 0 std::__ndk1::__function::__func<void (*)(void*), std::__ndk1::allocator<void (*)(void*)>, void (void*)>::__clone() const
PUBLIC 10d70 0 std::__ndk1::__function::__func<void (*)(void*), std::__ndk1::allocator<void (*)(void*)>, void (void*)>::__clone(std::__ndk1::__function::__base<void (void*)>*) const
PUBLIC 10d88 0 std::__ndk1::__function::__func<void (*)(void*), std::__ndk1::allocator<void (*)(void*)>, void (void*)>::destroy()
PUBLIC 10d8c 0 std::__ndk1::__function::__func<void (*)(void*), std::__ndk1::allocator<void (*)(void*)>, void (void*)>::destroy_deallocate()
PUBLIC 10d90 0 std::__ndk1::__function::__func<void (*)(void*), std::__ndk1::allocator<void (*)(void*)>, void (void*)>::operator()(void*&&)
PUBLIC 10da0 0 std::__ndk1::__function::__func<void (*)(void*), std::__ndk1::allocator<void (*)(void*)>, void (void*)>::target(std::type_info const&) const
PUBLIC 10dbc 0 std::__ndk1::__function::__func<void (*)(void*), std::__ndk1::allocator<void (*)(void*)>, void (void*)>::target_type() const
PUBLIC 10dc8 0 geode::Task<geode::utils::web::WebResponse, geode::utils::web::WebProgress>::setListener(geode::EventListenerProtocol*)
PUBLIC 10fcc 0 geode::Task<geode::utils::web::WebResponse, geode::utils::web::WebProgress>::setListener(geode::EventListenerProtocol*)::{lambda()#1}::~{lambda()#1}()
PUBLIC 1101c 0 geode::Task<geode::utils::web::WebResponse, geode::utils::web::WebProgress>::setListener(geode::EventListenerProtocol*)::{lambda()#2}::~{lambda()#2}()
PUBLIC 1106c 0 std::__ndk1::__function::__func<geode::Task<geode::utils::web::WebResponse, geode::utils::web::WebProgress>::setListener(geode::EventListenerProtocol*)::{lambda()#1}, std::__ndk1::allocator<geode::Task<geode::utils::web::WebResponse, geode::utils::web::WebProgress>::setListener(geode::EventListenerProtocol*)::{lambda()#1}>, void ()>::~__func()
PUBLIC 110c8 0 std::__ndk1::__function::__func<geode::Task<geode::utils::web::WebResponse, geode::utils::web::WebProgress>::setListener(geode::EventListenerProtocol*)::{lambda()#1}, std::__ndk1::allocator<geode::Task<geode::utils::web::WebResponse, geode::utils::web::WebProgress>::setListener(geode::EventListenerProtocol*)::{lambda()#1}>, void ()>::~__func()
PUBLIC 11134 0 std::__ndk1::__function::__func<geode::Task<geode::utils::web::WebResponse, geode::utils::web::WebProgress>::setListener(geode::EventListenerProtocol*)::{lambda()#1}, std::__ndk1::allocator<geode::Task<geode::utils::web::WebResponse, geode::utils::web::WebProgress>::setListener(geode::EventListenerProtocol*)::{lambda()#1}>, void ()>::__clone() const
PUBLIC 1118c 0 std::__ndk1::__function::__func<geode::Task<geode::utils::web::WebResponse, geode::utils::web::WebProgress>::setListener(geode::EventListenerProtocol*)::{lambda()#1}, std::__ndk1::allocator<geode::Task<geode::utils::web::WebResponse, geode::utils::web::WebProgress>::setListener(geode::EventListenerProtocol*)::{lambda()#1}>, void ()>::__clone(std::__ndk1::__function::__base<void ()>*) const
PUBLIC 111d8 0 std::__ndk1::__function::__func<geode::Task<geode::utils::web::WebResponse, geode::utils::web::WebProgress>::setListener(geode::EventListenerProtocol*)::{lambda()#1}, std::__ndk1::allocator<geode::Task<geode::utils::web::WebResponse, geode::utils::web::WebProgress>::setListener(geode::EventListenerProtocol*)::{lambda()#1}>, void ()>::destroy()
PUBLIC 11228 0 std::__ndk1::__function::__func<geode::Task<geode::utils::web::WebResponse, geode::utils::web::WebProgress>::setListener(geode::EventListenerProtocol*)::{lambda()#1}, std::__ndk1::allocator<geode::Task<geode::utils::web::WebResponse, geode::utils::web::WebProgress>::setListener(geode::EventListenerProtocol*)::{lambda()#1}>, void ()>::destroy_deallocate()
PUBLIC 11288 0 std::__ndk1::__function::__func<geode::Task<geode::utils::web::WebResponse, geode::utils::web::WebProgress>::setListener(geode::EventListenerProtocol*)::{lambda()#1}, std::__ndk1::allocator<geode::Task<geode::utils::web::WebResponse, geode::utils::web::WebProgress>::setListener(geode::EventListenerProtocol*)::{lambda()#1}>, void ()>::operator()()
PUBLIC 11458 0 std::__ndk1::__function::__func<geode::Task<geode::utils::web::WebResponse, geode::utils::web::WebProgress>::setListener(geode::EventListenerProtocol*)::{lambda()#1}, std::__ndk1::allocator<geode::Task<geode::utils::web::WebResponse, geode::utils::web::WebProgress>::setListener(geode::EventListenerProtocol*)::{lambda()#1}>, void ()>::target(std::type_info const&) const
PUBLIC 11474 0 std::__ndk1::__function::__func<geode::Task<geode::utils::web::WebResponse, geode::utils::web::WebProgress>::setListener(geode::EventListenerProtocol*)::{lambda()#1}, std::__ndk1::allocator<geode::Task<geode::utils::web::WebResponse, geode::utils::web::WebProgress>::setListener(geode::EventListenerProtocol*)::{lambda()#1}>, void ()>::target_type() const
PUBLIC 11480 0 geode::Task<geode::utils::web::WebResponse, geode::utils::web::WebProgress>::Event::~Event()
PUBLIC 114e0 0 geode::Task<geode::utils::web::WebResponse, geode::utils::web::WebProgress>::Event::~Event()
PUBLIC 11550 0 std::__ndk1::__function::__func<geode::Task<geode::utils::web::WebResponse, geode::utils::web::WebProgress>::setListener(geode::EventListenerProtocol*)::{lambda()#2}, std::__ndk1::allocator<geode::Task<geode::utils::web::WebResponse, geode::utils::web::WebProgress>::setListener(geode::EventListenerProtocol*)::{lambda()#2}>, void ()>::~__func()
PUBLIC 115ac 0 std::__ndk1::__function::__func<geode::Task<geode::utils::web::WebResponse, geode::utils::web::WebProgress>::setListener(geode::EventListenerProtocol*)::{lambda()#2}, std::__ndk1::allocator<geode::Task<geode::utils::web::WebResponse, geode::utils::web::WebProgress>::setListener(geode::EventListenerProtocol*)::{lambda()#2}>, void ()>::~__func()
PUBLIC 11618 0 std::__ndk1::__function::__func<geode::Task<geode::utils::web::WebResponse, geode::utils::web::WebProgress>::setListener(geode::EventListenerProtocol*)::{lambda()#2}, std::__ndk1::allocator<geode::Task<geode::utils::web::WebResponse, geode::utils::web::WebProgress>::setListener(geode::EventListenerProtocol*)::{lambda()#2}>, void ()>::__clone() const
PUBLIC 11670 0 std::__ndk1::__function::__func<geode::Task<geode::utils::web::WebResponse, geode::utils::web::WebProgress>::setListener(geode::EventListenerProtocol*)::{lambda()#2}, std::__ndk1::allocator<geode::Task<geode::utils::web::WebResponse, geode::utils::web::WebProgress>::setListener(geode::EventListenerProtocol*)::{lambda()#2}>, void ()>::__clone(std::__ndk1::__function::__base<void ()>*) const
PUBLIC 116bc 0 std::__ndk1::__function::__func<geode::Task<geode::utils::web::WebResponse, geode::utils::web::WebProgress>::setListener(geode::EventListenerProtocol*)::{lambda()#2}, std::__ndk1::allocator<geode::Task<geode::utils::web::WebResponse, geode::utils::web::WebProgress>::setListener(geode::EventListenerProtocol*)::{lambda()#2}>, void ()>::destroy()
PUBLIC 1170c 0 std::__ndk1::__function::__func<geode::Task<geode::utils::web::WebResponse, geode::utils::web::WebProgress>::setListener(geode::EventListenerProtocol*)::{lambda()#2}, std::__ndk1::allocator<geode::Task<geode::utils::web::WebResponse, geode::utils::web::WebProgress>::setListener(geode::EventListenerProtocol*)::{lambda()#2}>, void ()>::destroy_deallocate()
PUBLIC 1176c 0 std::__ndk1::__function::__func<geode::Task<geode::utils::web::WebResponse, geode::utils::web::WebProgress>::setListener(geode::EventListenerProtocol*)::{lambda()#2}, std::__ndk1::allocator<geode::Task<geode::utils::web::WebResponse, geode::utils::web::WebProgress>::setListener(geode::EventListenerProtocol*)::{lambda()#2}>, void ()>::operator()()
PUBLIC 11930 0 std::__ndk1::__function::__func<geode::Task<geode::utils::web::WebResponse, geode::utils::web::WebProgress>::setListener(geode::EventListenerProtocol*)::{lambda()#2}, std::__ndk1::allocator<geode::Task<geode::utils::web::WebResponse, geode::utils::web::WebProgress>::setListener(geode::EventListenerProtocol*)::{lambda()#2}>, void ()>::target(std::type_info const&) const
PUBLIC 1194c 0 std::__ndk1::__function::__func<geode::Task<geode::utils::web::WebResponse, geode::utils::web::WebProgress>::setListener(geode::EventListenerProtocol*)::{lambda()#2}, std::__ndk1::allocator<geode::Task<geode::utils::web::WebResponse, geode::utils::web::WebProgress>::setListener(geode::EventListenerProtocol*)::{lambda()#2}>, void ()>::target_type() const
PUBLIC 11958 0 std::__ndk1::__function::__base<void (geode::Task<geode::utils::web::WebResponse, geode::utils::web::WebProgress>::Event*)>::~__base()
PUBLIC 1195c 0 std::__ndk1::__function::__func<hook60<(anonymous namespace)::hook60Parent>::init(int, bool)::{lambda(geode::Task<geode::utils::web::WebResponse, geode::utils::web::WebProgress>::Event*)#1}, std::__ndk1::allocator<hook60<(anonymous namespace)::hook60Parent>::init(int, bool)::{lambda(geode::Task<geode::utils::web::WebResponse, geode::utils::web::WebProgress>::Event*)#1}>, void (geode::Task<geode::utils::web::WebResponse, geode::utils::web::WebProgress>::Event*)>::~__func()
PUBLIC 11960 0 std::__ndk1::__function::__func<hook60<(anonymous namespace)::hook60Parent>::init(int, bool)::{lambda(geode::Task<geode::utils::web::WebResponse, geode::utils::web::WebProgress>::Event*)#1}, std::__ndk1::allocator<hook60<(anonymous namespace)::hook60Parent>::init(int, bool)::{lambda(geode::Task<geode::utils::web::WebResponse, geode::utils::web::WebProgress>::Event*)#1}>, void (geode::Task<geode::utils::web::WebResponse, geode::utils::web::WebProgress>::Event*)>::__clone() const
PUBLIC 11984 0 std::__ndk1::__function::__func<hook60<(anonymous namespace)::hook60Parent>::init(int, bool)::{lambda(geode::Task<geode::utils::web::WebResponse, geode::utils::web::WebProgress>::Event*)#1}, std::__ndk1::allocator<hook60<(anonymous namespace)::hook60Parent>::init(int, bool)::{lambda(geode::Task<geode::utils::web::WebResponse, geode::utils::web::WebProgress>::Event*)#1}>, void (geode::Task<geode::utils::web::WebResponse, geode::utils::web::WebProgress>::Event*)>::__clone(std::__ndk1::__function::__base<void (geode::Task<geode::utils::web::WebResponse, geode::utils::web::WebProgress>::Event*)>*) const
PUBLIC 11994 0 std::__ndk1::__function::__func<hook60<(anonymous namespace)::hook60Parent>::init(int, bool)::{lambda(geode::Task<geode::utils::web::WebResponse, geode::utils::web::WebProgress>::Event*)#1}, std::__ndk1::allocator<hook60<(anonymous namespace)::hook60Parent>::init(int, bool)::{lambda(geode::Task<geode::utils::web::WebResponse, geode::utils::web::WebProgress>::Event*)#1}>, void (geode::Task<geode::utils::web::WebResponse, geode::utils::web::WebProgress>::Event*)>::destroy()
PUBLIC 11998 0 std::__ndk1::__function::__func<hook60<(anonymous namespace)::hook60Parent>::init(int, bool)::{lambda(geode::Task<geode::utils::web::WebResponse, geode::utils::web::WebProgress>::Event*)#1}, std::__ndk1::allocator<hook60<(anonymous namespace)::hook60Parent>::init(int, bool)::{lambda(geode::Task<geode::utils::web::WebResponse, geode::utils::web::WebProgress>::Event*)#1}>, void (geode::Task<geode::utils::web::WebResponse, geode::utils::web::WebProgress>::Event*)>::destroy_deallocate()
PUBLIC 1199c 0 std::__ndk1::__function::__func<hook60<(anonymous namespace)::hook60Parent>::init(int, bool)::{lambda(geode::Task<geode::utils::web::WebResponse, geode::utils::web::WebProgress>::Event*)#1}, std::__ndk1::allocator<hook60<(anonymous namespace)::hook60Parent>::init(int, bool)::{lambda(geode::Task<geode::utils::web::WebResponse, geode::utils::web::WebProgress>::Event*)#1}>, void (geode::Task<geode::utils::web::WebResponse, geode::utils::web::WebProgress>::Event*)>::operator()(geode::Task<geode::utils::web::WebResponse, geode::utils::web::WebProgress>::Event*&&)
PUBLIC 11bc8 0 std::__ndk1::__function::__func<hook60<(anonymous namespace)::hook60Parent>::init(int, bool)::{lambda(geode::Task<geode::utils::web::WebResponse, geode::utils::web::WebProgress>::Event*)#1}, std::__ndk1::allocator<hook60<(anonymous namespace)::hook60Parent>::init(int, bool)::{lambda(geode::Task<geode::utils::web::WebResponse, geode::utils::web::WebProgress>::Event*)#1}>, void (geode::Task<geode::utils::web::WebResponse, geode::utils::web::WebProgress>::Event*)>::target(std::type_info const&) const
PUBLIC 11be4 0 std::__ndk1::__function::__func<hook60<(anonymous namespace)::hook60Parent>::init(int, bool)::{lambda(geode::Task<geode::utils::web::WebResponse, geode::utils::web::WebProgress>::Event*)#1}, std::__ndk1::allocator<hook60<(anonymous namespace)::hook60Parent>::init(int, bool)::{lambda(geode::Task<geode::utils::web::WebResponse, geode::utils::web::WebProgress>::Event*)#1}>, void (geode::Task<geode::utils::web::WebResponse, geode::utils::web::WebProgress>::Event*)>::target_type() const
PUBLIC 11bf0 0 geode::impl::ResultData<matjson::Value, std::__ndk1::basic_string<char, std::__ndk1::char_traits<char>, std::__ndk1::allocator<char> > >::~ResultData()
PUBLIC 11c64 0 geode::impl::ResultData<matjson::Value, matjson::ParseError>::~ResultData()
PUBLIC 11cd8 0 std::__ndk1::__variant_detail::__visitation::__base::__dispatcher<(unsigned long)0>::__dispatch[abi:ne180000]<std::__ndk1::__variant_detail::__dtor<std::__ndk1::__variant_detail::__traits<matjson::Value, std::__ndk1::basic_string<char, std::__ndk1::char_traits<char>, std::__ndk1::allocator<char> > >, (std::__ndk1::__variant_detail::_Trait)1>::__destroy[abi:ne180000]()::{lambda(auto:1&)#1}, std::__ndk1::__variant_detail::__base<(std::__ndk1::__variant_detail::__traits<matjson::Value, std::__ndk1::basic_string<char, std::__ndk1::char_traits<char>, std::__ndk1::allocator<char> > >)1, matjson, std::__ndk1::allocator<char> >&>(std::__ndk1::__variant_detail::__dtor<std::__ndk1::__variant_detail::__traits<matjson::Value, std::__ndk1::basic_string<char, std::__ndk1::char_traits<char>, std::__ndk1::allocator<char> > >, (std::__ndk1::__variant_detail::_Trait)1>, std::__ndk1::__variant_detail::__base<(std::__ndk1::__variant_detail::__traits<matjson::Value, std::__ndk1::basic_string<char, std::__ndk1::char_traits<char>, std::__ndk1::allocator<char> > >)1, matjson, std::__ndk1::allocator<char> >&)
PUBLIC 11ce0 0 std::__ndk1::__variant_detail::__visitation::__base::__dispatcher<(unsigned long)1>::__dispatch[abi:ne180000]<std::__ndk1::__variant_detail::__dtor<std::__ndk1::__variant_detail::__traits<matjson::Value, std::__ndk1::basic_string<char, std::__ndk1::char_traits<char>, std::__ndk1::allocator<char> > >, (std::__ndk1::__variant_detail::_Trait)1>::__destroy[abi:ne180000]()::{lambda(auto:1&)#1}, std::__ndk1::__variant_detail::__base<(std::__ndk1::__variant_detail::__traits<matjson::Value, std::__ndk1::basic_string<char, std::__ndk1::char_traits<char>, std::__ndk1::allocator<char> > >)1, matjson, std::__ndk1::allocator<char> >&>(std::__ndk1::__variant_detail::__dtor<std::__ndk1::__variant_detail::__traits<matjson::Value, std::__ndk1::basic_string<char, std::__ndk1::char_traits<char>, std::__ndk1::allocator<char> > >, (std::__ndk1::__variant_detail::_Trait)1>, std::__ndk1::__variant_detail::__base<(std::__ndk1::__variant_detail::__traits<matjson::Value, std::__ndk1::basic_string<char, std::__ndk1::char_traits<char>, std::__ndk1::allocator<char> > >)1, matjson, std::__ndk1::allocator<char> >&)
PUBLIC 11cf4 0 std::__ndk1::__variant_detail::__visitation::__base::__dispatcher<(unsigned long)0>::__dispatch[abi:ne180000]<std::__ndk1::__variant_detail::__dtor<std::__ndk1::__variant_detail::__traits<matjson::Value, std::__ndk1::__variant_detail::__traits::ParseError>, (std::__ndk1::__variant_detail::_Trait)1>::__destroy[abi:ne180000]()::{lambda(auto:1&)#1}, std::__ndk1::__variant_detail::__base<(std::__ndk1::__variant_detail::__traits<matjson::Value, std::__ndk1::__variant_detail::__traits::ParseError>)1, matjson, matjson::Value>&>(std::__ndk1::__variant_detail::__dtor<std::__ndk1::__variant_detail::__traits<matjson::Value, std::__ndk1::__variant_detail::__traits::ParseError>, (std::__ndk1::__variant_detail::_Trait)1>, std::__ndk1::__variant_detail::__base<(std::__ndk1::__variant_detail::__traits<matjson::Value, std::__ndk1::__variant_detail::__traits::ParseError>)1, matjson, matjson::Value>&)
PUBLIC 11cfc 0 std::__ndk1::__variant_detail::__visitation::__base::__dispatcher<(unsigned long)1>::__dispatch[abi:ne180000]<std::__ndk1::__variant_detail::__dtor<std::__ndk1::__variant_detail::__traits<matjson::Value, std::__ndk1::__variant_detail::__traits::ParseError>, (std::__ndk1::__variant_detail::_Trait)1>::__destroy[abi:ne180000]()::{lambda(auto:1&)#1}, std::__ndk1::__variant_detail::__base<(std::__ndk1::__variant_detail::__traits<matjson::Value, std::__ndk1::__variant_detail::__traits::ParseError>)1, matjson, matjson::Value>&>(std::__ndk1::__variant_detail::__dtor<std::__ndk1::__variant_detail::__traits<matjson::Value, std::__ndk1::__variant_detail::__traits::ParseError>, (std::__ndk1::__variant_detail::_Trait)1>, std::__ndk1::__variant_detail::__base<(std::__ndk1::__variant_detail::__traits<matjson::Value, std::__ndk1::__variant_detail::__traits::ParseError>)1, matjson, matjson::Value>&)
PUBLIC 11d10 0 std::__ndk1::__tree<std::__ndk1::__value_type<std::__ndk1::basic_string<char, std::__ndk1::char_traits<char>, std::__ndk1::allocator<char> >, std::__ndk1::shared_ptr<geode::Hook> >, std::__ndk1::__map_value_compare<std::__ndk1::basic_string<char, std::__ndk1::char_traits<char>, std::__ndk1::allocator<char> >, std::__ndk1::__value_type<std::__ndk1::basic_string<char, std::__ndk1::char_traits<char>, std::__ndk1::allocator<char> >, std::__ndk1::shared_ptr<geode::Hook> >, std::__ndk1::less<std::__ndk1::basic_string<char, std::__ndk1::char_traits<char>, std::__ndk1::allocator<char> > >, true>, std::__ndk1::allocator<std::__ndk1::__value_type<std::__ndk1::basic_string<char, std::__ndk1::char_traits<char>, std::__ndk1::allocator<char> >, std::__ndk1::shared_ptr<geode::Hook> > > >::__emplace_unique_key_args<std::__ndk1::basic_string<char, std::__ndk1::char_traits<char>, std::__ndk1::allocator<char> >, std::__ndk1::piecewise_construct_t const&, std::__ndk1::tuple<std::__ndk1::basic_string<char, std::__ndk1::char_traits<char>, std::__ndk1::allocator<char> >&&>, std::__ndk1::tuple<> >(std::__ndk1::basic_string<char, std::__ndk1::char_traits<char>, std::__ndk1::allocator<char> > const&, std::__ndk1::piecewise_construct_t const&, std::__ndk1::tuple<std::__ndk1::basic_string<char, std::__ndk1::char_traits<char>, std::__ndk1::allocator<char> >&&>, std::__ndk1::tuple<>)
PUBLIC 12024 0 geode::addresser::Addresser::addressOfVirtual<void, ProfilePage, GJUserScore*>(void (ProfilePage::*)(GJUserScore*))
PUBLIC 120ec 0 ProfilePage::ProfilePage(geode::ZeroConstructorType)
PUBLIC m 121c4 0 geodeImplicitEntry
PUBLIC 12200 0 <.plt ELF section in redlime.statchanges.android64.so>
STACK CFI INIT 85b0 10 .cfa: sp 0 +
STACK CFI INIT 85c0 8 .cfa: sp 0 +
STACK CFI INIT 85c8 8 .cfa: sp 0 +
STACK CFI INIT 85d0 14 .cfa: sp 0 +
STACK CFI INIT 85e4 1c .cfa: sp 0 +
STACK CFI INIT 8600 10 .cfa: sp 0 +
STACK CFI INIT 8610 134 .cfa: sp 0 +
STACK CFI INIT 8744 84 .cfa: sp 0 +
STACK CFI INIT 87c8 f4 .cfa: sp 0 +
STACK CFI INIT 88bc a8 .cfa: sp 0 +
STACK CFI INIT 8964 7c .cfa: sp 0 +
STACK CFI INIT 89e0 14 .cfa: sp 0 +
STACK CFI INIT 89f4 40 .cfa: sp 0 +
STACK CFI INIT 8a34 28 .cfa: sp 0 +
STACK CFI INIT 8a5c 190 .cfa: sp 0 +
STACK CFI INIT 8bec 2c8 .cfa: sp 0 +
STACK CFI INIT 8eb4 8 .cfa: sp 0 +
STACK CFI INIT 8ebc 8 .cfa: sp 0 +
STACK CFI INIT 8ec4 44 .cfa: sp 0 +
STACK CFI INIT 8f08 e8 .cfa: sp 0 +
STACK CFI INIT 8ff0 e8 .cfa: sp 0 +
STACK CFI INIT 90d8 14 .cfa: sp 0 +
STACK CFI INIT 90ec 10 .cfa: sp 0 +
STACK CFI INIT 90fc 10 .cfa: sp 0 +
STACK CFI INIT 910c f0 .cfa: sp 0 +
STACK CFI INIT 91fc 44 .cfa: sp 0 +
STACK CFI INIT 9240 c .cfa: sp 0 +
STACK CFI INIT 924c c .cfa: sp 0 +
STACK CFI INIT 9258 2c .cfa: sp 0 +
STACK CFI INIT 9284 280 .cfa: sp 0 +
STACK CFI INIT 9504 c .cfa: sp 0 +
STACK CFI INIT 9510 120 .cfa: sp 0 +
STACK CFI INIT 9630 488 .cfa: sp 0 +
STACK CFI INIT 9ab8 c48 .cfa: sp 0 +
STACK CFI INIT a700 134 .cfa: sp 0 +
STACK CFI INIT a834 210 .cfa: sp 0 +
STACK CFI INIT aa44 38c .cfa: sp 0 +
STACK CFI INIT add0 1c8 .cfa: sp 0 +
STACK CFI INIT af98 9bc .cfa: sp 0 +
STACK CFI INIT b954 2d4 .cfa: sp 0 +
STACK CFI INIT bc28 134 .cfa: sp 0 +
STACK CFI INIT bd5c 120 .cfa: sp 0 +
STACK CFI INIT be7c 1c8 .cfa: sp 0 +
STACK CFI INIT c044 168 .cfa: sp 0 +
STACK CFI INIT c1ac fc .cfa: sp 0 +
STACK CFI INIT c2a8 30 .cfa: sp 0 +
STACK CFI INIT c410 30 .cfa: sp 0 +
STACK CFI INIT c440 98 .cfa: sp 0 +
STACK CFI INIT c4d8 59c .cfa: sp 0 +
STACK CFI INIT ca74 8c .cfa: sp 0 +
STACK CFI INIT cb00 30 .cfa: sp 0 +
STACK CFI INIT d4e0 7c .cfa: sp 0 +
STACK CFI d4e4 .cfa: sp 48 +
STACK CFI d4f0 .cfa: x29 48 + x19: .cfa -8 + ^ x20: .cfa -16 + ^ x21: .cfa -32 + ^ .ra: .cfa -40 + ^ x29: .cfa -48 + ^
STACK CFI d54c .cfa: sp 48 +
STACK CFI d558 .cfa: sp 0 +
STACK CFI INIT d9e4 78 .cfa: sp 0 +
STACK CFI d9e8 .cfa: sp 64 +
STACK CFI d9f4 .cfa: x29 32 + x19: .cfa -8 + ^ x20: .cfa -16 + ^ .ra: .cfa -24 + ^ x29: .cfa -32 + ^
STACK CFI da48 .cfa: sp 64 +
STACK CFI da54 .cfa: sp 0 +
STACK CFI da58 .cfa: x29 32 +
STACK CFI INIT e63c 18 .cfa: sp 0 +
STACK CFI INIT e654 10 .cfa: sp 0 +
STACK CFI e658 .cfa: sp 16 +
STACK CFI e65c .cfa: x29 16 + .ra: .cfa -8 + ^ x29: .cfa -16 + ^
STACK CFI INIT e664 14 .cfa: sp 0 +
STACK CFI e668 .cfa: sp 16 +
STACK CFI e66c .cfa: x29 16 + .ra: .cfa -8 + ^ x29: .cfa -16 + ^
STACK CFI INIT e6c8 30 .cfa: sp 0 +
STACK CFI e6cc .cfa: sp 32 +
STACK CFI e6d4 .cfa: x29 32 + x19: .cfa -16 + ^ .ra: .cfa -24 + ^ x29: .cfa -32 + ^
STACK CFI e6ec .cfa: sp 32 +
STACK CFI e6f4 .cfa: sp 0 +
STACK CFI INIT e6f8 34 .cfa: sp 0 +
STACK CFI e6fc .cfa: sp 32 +
STACK CFI e704 .cfa: x29 32 + x19: .cfa -16 + ^ .ra: .cfa -24 + ^ x29: .cfa -32 + ^
STACK CFI INIT e72c 34 .cfa: sp 0 +
STACK CFI e730 .cfa: sp 16 +
STACK CFI e734 .cfa: x29 16 + .ra: .cfa -8 + ^ x29: .cfa -16 + ^
STACK CFI INIT e760 4 .cfa: sp 0 +
STACK CFI INIT e764 14 .cfa: sp 0 +
STACK CFI INIT e778 f8 .cfa: sp 0 +
STACK CFI e77c .cfa: sp 64 +
STACK CFI e78c .cfa: x29 64 + x19: .cfa -8 + ^ x20: .cfa -16 + ^ x21: .cfa -24 + ^ x22: .cfa -32 + ^ x23: .cfa -48 + ^ .ra: .cfa -56 + ^ x29: .cfa -64 + ^
STACK CFI e7e8 .cfa: sp 64 +
STACK CFI e7f8 .cfa: sp 0 +
STACK CFI e7fc .cfa: x29 64 +
STACK CFI e818 .cfa: sp 64 +
STACK CFI e828 .cfa: sp 0 +
STACK CFI e82c .cfa: x29 64 +
STACK CFI e85c .cfa: sp 64 +
STACK CFI e86c .cfa: sp 0 +
STACK CFI INIT e870 4 .cfa: sp 0 +
STACK CFI INIT e874 4 .cfa: sp 0 +
STACK CFI INIT e878 34 .cfa: sp 0 +
STACK CFI e87c .cfa: sp 32 +
STACK CFI e884 .cfa: x29 32 + x19: .cfa -16 + ^ .ra: .cfa -24 + ^ x29: .cfa -32 + ^
STACK CFI e8a0 .cfa: sp 32 +
STACK CFI e8a8 .cfa: sp 0 +
STACK CFI INIT e8ac 14 .cfa: sp 0 +
STACK CFI INIT e8c0 4 .cfa: sp 0 +
STACK CFI INIT e8c4 4 .cfa: sp 0 +
STACK CFI INIT e8c8 8 .cfa: sp 0 +
STACK CFI INIT e8d0 1c .cfa: sp 0 +
STACK CFI INIT e8ec c .cfa: sp 0 +
STACK CFI INIT ef48 50 .cfa: sp 0 +
STACK CFI ef4c .cfa: sp 32 +
STACK CFI ef54 .cfa: x29 32 + x19: .cfa -16 + ^ .ra: .cfa -24 + ^ x29: .cfa -32 + ^
STACK CFI ef6c .cfa: sp 32 +
STACK CFI ef74 .cfa: sp 0 +
STACK CFI ef78 .cfa: x29 32 +
STACK CFI ef8c .cfa: sp 32 +
STACK CFI ef94 .cfa: sp 0 +
STACK CFI INIT f00c 7c .cfa: sp 0 +
STACK CFI f010 .cfa: sp 48 +
STACK CFI f01c .cfa: x29 48 + x19: .cfa -8 + ^ x20: .cfa -16 + ^ x21: .cfa -32 + ^ .ra: .cfa -40 + ^ x29: .cfa -48 + ^
STACK CFI f068 .cfa: sp 48 +
STACK CFI f074 .cfa: sp 0 +
STACK CFI f078 .cfa: sp 48 +
STACK CFI f084 .cfa: sp 0 +
STACK CFI INIT f088 4 .cfa: sp 0 +
STACK CFI INIT f788 80 .cfa: sp 0 +
STACK CFI f78c .cfa: sp 48 +
STACK CFI f798 .cfa: x29 48 + x19: .cfa -8 + ^ x20: .cfa -16 + ^ x21: .cfa -32 + ^ .ra: .cfa -40 + ^ x29: .cfa -48 + ^
STACK CFI f7f8 .cfa: sp 48 +
STACK CFI f804 .cfa: sp 0 +
STACK CFI INIT f808 24 .cfa: sp 0 +
STACK CFI f80c .cfa: sp 32 +
STACK CFI f814 .cfa: x29 32 + x19: .cfa -16 + ^ .ra: .cfa -24 + ^ x29: .cfa -32 + ^
STACK CFI f820 .cfa: sp 32 +
STACK CFI f828 .cfa: sp 0 +
STACK CFI INIT f82c 7c .cfa: sp 0 +
STACK CFI f830 .cfa: sp 48 +
STACK CFI f83c .cfa: x29 48 + x19: .cfa -8 + ^ x20: .cfa -16 + ^ x21: .cfa -24 + ^ x22: .cfa -32 + ^ .ra: .cfa -40 + ^ x29: .cfa -48 + ^
STACK CFI f854 .cfa: sp 48 +
STACK CFI f860 .cfa: sp 0 +
STACK CFI f864 .cfa: x29 48 +
STACK CFI f894 .cfa: sp 48 +
STACK CFI f8a0 .cfa: sp 0 +
STACK CFI f8a4 .cfa: x29 48 +
STACK CFI INIT f8a8 68 .cfa: sp 0 +
STACK CFI f8ac .cfa: sp 32 +
STACK CFI f8b4 .cfa: x29 32 + x19: .cfa -8 + ^ x20: .cfa -16 + ^ .ra: .cfa -24 + ^ x29: .cfa -32 + ^
STACK CFI f8cc .cfa: sp 32 +
STACK CFI f8d4 .cfa: sp 0 +
STACK CFI f8d8 .cfa: x29 32 +
STACK CFI f904 .cfa: sp 32 +
STACK CFI f90c .cfa: sp 0 +
STACK CFI INIT f910 14 .cfa: sp 0 +
STACK CFI f914 .cfa: sp 16 +
STACK CFI f918 .cfa: x29 16 + .ra: .cfa -8 + ^ x29: .cfa -16 + ^
STACK CFI INIT f924 4 .cfa: sp 0 +
STACK CFI INIT f928 14 .cfa: sp 0 +
STACK CFI INIT f93c 84 .cfa: sp 0 +
STACK CFI f944 .cfa: sp 32 +
STACK CFI f94c .cfa: x29 32 + x19: .cfa -8 + ^ x20: .cfa -16 + ^ .ra: .cfa -24 + ^ x29: .cfa -32 + ^
STACK CFI f98c .cfa: sp 32 +
STACK CFI f994 .cfa: sp 0 +
STACK CFI f99c .cfa: x29 32 +
STACK CFI INIT 10034 80 .cfa: sp 0 +
STACK CFI 10038 .cfa: sp 64 +
STACK CFI 10044 .cfa: x29 32 + x19: .cfa -8 + ^ x20: .cfa -16 + ^ .ra: .cfa -24 + ^ x29: .cfa -32 + ^
STACK CFI 100a0 .cfa: sp 64 +
STACK CFI 100ac .cfa: sp 0 +
STACK CFI 100b0 .cfa: x29 32 +
STACK CFI INIT 100b4 50 .cfa: sp 0 +
STACK CFI 100b8 .cfa: sp 32 +
STACK CFI 100c0 .cfa: x29 32 + x19: .cfa -16 + ^ .ra: .cfa -24 + ^ x29: .cfa -32 + ^
STACK CFI 100d8 .cfa: sp 32 +
STACK CFI 100e0 .cfa: sp 0 +
STACK CFI 100e4 .cfa: x29 32 +
STACK CFI 100f8 .cfa: sp 32 +
STACK CFI 10100 .cfa: sp 0 +
STACK CFI INIT 10104 64 .cfa: sp 0 +
STACK CFI 10108 .cfa: sp 32 +
STACK CFI 10110 .cfa: x29 32 + x19: .cfa -16 + ^ .ra: .cfa -24 + ^ x29: .cfa -32 + ^
STACK CFI 1013c .cfa: sp 32 +
STACK CFI 10144 .cfa: sp 0 +
STACK CFI 10148 .cfa: x29 32 +
STACK CFI 1015c .cfa: sp 32 +
STACK CFI 10164 .cfa: sp 0 +
STACK CFI INIT 1082c 50 .cfa: sp 0 +
STACK CFI 10830 .cfa: sp 32 +
STACK CFI 10838 .cfa: x29 32 + x19: .cfa -16 + ^ .ra: .cfa -24 + ^ x29: .cfa -32 + ^
STACK CFI 10850 .cfa: sp 32 +
STACK CFI 10858 .cfa: sp 0 +
STACK CFI 1085c .cfa: x29 32 +
STACK CFI 10870 .cfa: sp 32 +
STACK CFI 10878 .cfa: sp 0 +
STACK CFI INIT 108cc 30 .cfa: sp 0 +
STACK CFI 108d0 .cfa: sp 32 +
STACK CFI 108d8 .cfa: x29 32 + x19: .cfa -16 + ^ .ra: .cfa -24 + ^ x29: .cfa -32 + ^
STACK CFI 108f0 .cfa: sp 32 +
STACK CFI 108f8 .cfa: sp 0 +
STACK CFI INIT 108fc 9c .cfa: sp 0 +
STACK CFI 10900 .cfa: sp 32 +
STACK CFI 10908 .cfa: x29 32 + x19: .cfa -8 + ^ x20: .cfa -16 + ^ .ra: .cfa -24 + ^ x29: .cfa -32 + ^
STACK CFI 1098c .cfa: sp 32 +
STACK CFI 10994 .cfa: sp 0 +
STACK CFI INIT 10998 14 .cfa: sp 0 +
STACK CFI 1099c .cfa: sp 16 +
STACK CFI 109a0 .cfa: x29 16 + .ra: .cfa -8 + ^ x29: .cfa -16 + ^
STACK CFI INIT 109ac 14 .cfa: sp 0 +
STACK CFI 109b0 .cfa: sp 16 +
STACK CFI 109b4 .cfa: x29 16 + .ra: .cfa -8 + ^ x29: .cfa -16 + ^
STACK CFI INIT 109c0 14 .cfa: sp 0 +
STACK CFI 109c4 .cfa: sp 16 +
STACK CFI 109c8 .cfa: x29 16 + .ra: .cfa -8 + ^ x29: .cfa -16 + ^
STACK CFI INIT 109d4 14 .cfa: sp 0 +
STACK CFI 109d8 .cfa: sp 16 +
STACK CFI 109dc .cfa: x29 16 + .ra: .cfa -8 + ^ x29: .cfa -16 + ^
STACK CFI INIT 109e8 9c .cfa: sp 0 +
STACK CFI 109ec .cfa: sp 32 +
STACK CFI 109f4 .cfa: x29 32 + x19: .cfa -8 + ^ x20: .cfa -16 + ^ .ra: .cfa -24 + ^ x29: .cfa -32 + ^
STACK CFI 10a78 .cfa: sp 32 +
STACK CFI 10a80 .cfa: sp 0 +
STACK CFI INIT 10a84 4 .cfa: sp 0 +
STACK CFI INIT 10c34 a4 .cfa: sp 0 +
STACK CFI 10c38 .cfa: sp 32 +
STACK CFI 10c40 .cfa: x29 32 + x19: .cfa -8 + ^ x20: .cfa -16 + ^ .ra: .cfa -24 + ^ x29: .cfa -32 + ^
STACK CFI 10ccc .cfa: sp 32 +
STACK CFI 10cd4 .cfa: sp 0 +
STACK CFI INIT 10cd8 34 .cfa: sp 0 +
STACK CFI 10cdc .cfa: sp 16 +
STACK CFI 10ce0 .cfa: x29 16 + .ra: .cfa -8 + ^ x29: .cfa -16 + ^
STACK CFI INIT 10d0c 24 .cfa: sp 0 +
STACK CFI 10d10 .cfa: sp 32 +
STACK CFI 10d18 .cfa: x29 32 + x19: .cfa -16 + ^ .ra: .cfa -24 + ^ x29: .cfa -32 + ^
STACK CFI 10d24 .cfa: sp 32 +
STACK CFI 10d2c .cfa: sp 0 +
STACK CFI INIT 10d30 4 .cfa: sp 0 +
STACK CFI INIT 10d34 4 .cfa: sp 0 +
STACK CFI INIT 10d38 38 .cfa: sp 0 +
STACK CFI 10d3c .cfa: sp 32 +
STACK CFI 10d44 .cfa: x29 32 + x19: .cfa -16 + ^ .ra: .cfa -24 + ^ x29: .cfa -32 + ^
STACK CFI 10d64 .cfa: sp 32 +
STACK CFI 10d6c .cfa: sp 0 +
STACK CFI INIT 10d70 18 .cfa: sp 0 +
STACK CFI INIT 10d88 4 .cfa: sp 0 +
STACK CFI INIT 10d8c 4 .cfa: sp 0 +
STACK CFI INIT 10d90 10 .cfa: sp 0 +
STACK CFI INIT 10da0 1c .cfa: sp 0 +
STACK CFI INIT 10dbc c .cfa: sp 0 +
STACK CFI INIT 10fcc 50 .cfa: sp 0 +
STACK CFI 10fd0 .cfa: sp 32 +
STACK CFI 10fd8 .cfa: x29 32 + x19: .cfa -16 + ^ .ra: .cfa -24 + ^ x29: .cfa -32 + ^
STACK CFI 10ff0 .cfa: sp 32 +
STACK CFI 10ff8 .cfa: sp 0 +
STACK CFI 10ffc .cfa: x29 32 +
STACK CFI 11010 .cfa: sp 32 +
STACK CFI 11018 .cfa: sp 0 +
STACK CFI INIT 1101c 50 .cfa: sp 0 +
STACK CFI 11020 .cfa: sp 32 +
STACK CFI 11028 .cfa: x29 32 + x19: .cfa -16 + ^ .ra: .cfa -24 + ^ x29: .cfa -32 + ^
STACK CFI 11040 .cfa: sp 32 +
STACK CFI 11048 .cfa: sp 0 +
STACK CFI 1104c .cfa: x29 32 +
STACK CFI 11060 .cfa: sp 32 +
STACK CFI 11068 .cfa: sp 0 +
STACK CFI INIT 1106c 5c .cfa: sp 0 +
STACK CFI 11070 .cfa: sp 32 +
STACK CFI 11078 .cfa: x29 32 + x19: .cfa -16 + ^ .ra: .cfa -24 + ^ x29: .cfa -32 + ^
STACK CFI 1109c .cfa: sp 32 +
STACK CFI 110a4 .cfa: sp 0 +
STACK CFI 110a8 .cfa: x29 32 +
STACK CFI 110bc .cfa: sp 32 +
STACK CFI 110c4 .cfa: sp 0 +
STACK CFI INIT 110c8 6c .cfa: sp 0 +
STACK CFI 110cc .cfa: sp 32 +
STACK CFI 110d4 .cfa: x29 32 + x19: .cfa -8 + ^ x20: .cfa -16 + ^ .ra: .cfa -24 + ^ x29: .cfa -32 + ^
STACK CFI 11100 .cfa: sp 32 +
STACK CFI 11108 .cfa: sp 0 +
STACK CFI 1110c .cfa: x29 32 +
STACK CFI 11128 .cfa: sp 32 +
STACK CFI 11130 .cfa: sp 0 +
STACK CFI INIT 11134 58 .cfa: sp 0 +
STACK CFI 11138 .cfa: sp 32 +
STACK CFI 11140 .cfa: x29 32 + x19: .cfa -8 + ^ x20: .cfa -16 + ^ .ra: .cfa -24 + ^ x29: .cfa -32 + ^
STACK CFI 11180 .cfa: sp 32 +
STACK CFI 11188 .cfa: sp 0 +
STACK CFI INIT 1118c 4c .cfa: sp 0 +
STACK CFI 11190 .cfa: sp 32 +
STACK CFI 11198 .cfa: x29 32 + x19: .cfa -8 + ^ x20: .cfa -16 + ^ .ra: .cfa -24 + ^ x29: .cfa -32 + ^
STACK CFI 111cc .cfa: sp 32 +
STACK CFI 111d4 .cfa: sp 0 +
STACK CFI INIT 111d8 50 .cfa: sp 0 +
STACK CFI 111dc .cfa: sp 32 +
STACK CFI 111e4 .cfa: x29 32 + x19: .cfa -16 + ^ .ra: .cfa -24 + ^ x29: .cfa -32 + ^
STACK CFI 111fc .cfa: sp 32 +
STACK CFI 11204 .cfa: sp 0 +
STACK CFI 11208 .cfa: x29 32 +
STACK CFI 1121c .cfa: sp 32 +
STACK CFI 11224 .cfa: sp 0 +
STACK CFI INIT 11228 60 .cfa: sp 0 +
STACK CFI 1122c .cfa: sp 32 +
STACK CFI 11234 .cfa: x29 32 + x19: .cfa -8 + ^ x20: .cfa -16 + ^ .ra: .cfa -24 + ^ x29: .cfa -32 + ^
STACK CFI 11254 .cfa: sp 32 +
STACK CFI 1125c .cfa: sp 0 +
STACK CFI 11260 .cfa: x29 32 +
STACK CFI 1127c .cfa: sp 32 +
STACK CFI 11284 .cfa: sp 0 +
STACK CFI INIT 11458 1c .cfa: sp 0 +
STACK CFI INIT 11474 c .cfa: sp 0 +
STACK CFI INIT 11480 60 .cfa: sp 0 +
STACK CFI 11484 .cfa: sp 32 +
STACK CFI 1148c .cfa: x29 32 + x19: .cfa -8 + ^ x20: .cfa -16 + ^ .ra: .cfa -24 + ^ x29: .cfa -32 + ^
STACK CFI 114ac .cfa: sp 32 +
STACK CFI 114b4 .cfa: sp 0 +
STACK CFI 114b8 .cfa: x29 32 +
STACK CFI 114d4 .cfa: sp 32 +
STACK CFI 114dc .cfa: sp 0 +
STACK CFI INIT 114e0 70 .cfa: sp 0 +
STACK CFI 114e4 .cfa: sp 32 +
STACK CFI 114ec .cfa: x29 32 + x19: .cfa -8 + ^ x20: .cfa -16 + ^ .ra: .cfa -24 + ^ x29: .cfa -32 + ^
STACK CFI 11514 .cfa: sp 32 +
STACK CFI 1151c .cfa: sp 0 +
STACK CFI 11520 .cfa: x29 32 +
STACK CFI 11544 .cfa: sp 32 +
STACK CFI 1154c .cfa: sp 0 +
STACK CFI INIT 11550 5c .cfa: sp 0 +
STACK CFI 11554 .cfa: sp 32 +
STACK CFI 1155c .cfa: x29 32 + x19: .cfa -16 + ^ .ra: .cfa -24 + ^ x29: .cfa -32 + ^
STACK CFI 11580 .cfa: sp 32 +
STACK CFI 11588 .cfa: sp 0 +
STACK CFI 1158c .cfa: x29 32 +
STACK CFI 115a0 .cfa: sp 32 +
STACK CFI 115a8 .cfa: sp 0 +
STACK CFI INIT 115ac 6c .cfa: sp 0 +
STACK CFI 115b0 .cfa: sp 32 +
STACK CFI 115b8 .cfa: x29 32 + x19: .cfa -8 + ^ x20: .cfa -16 + ^ .ra: .cfa -24 + ^ x29: .cfa -32 + ^
STACK CFI 115e4 .cfa: sp 32 +
STACK CFI 115ec .cfa: sp 0 +
STACK CFI 115f0 .cfa: x29 32 +
STACK CFI 1160c .cfa: sp 32 +
STACK CFI 11614 .cfa: sp 0 +
STACK CFI INIT 11618 58 .cfa: sp 0 +
STACK CFI 1161c .cfa: sp 32 +
STACK CFI 11624 .cfa: x29 32 + x19: .cfa -8 + ^ x20: .cfa -16 + ^ .ra: .cfa -24 + ^ x29: .cfa -32 + ^
STACK CFI 11664 .cfa: sp 32 +
STACK CFI 1166c .cfa: sp 0 +
STACK CFI INIT 11670 4c .cfa: sp 0 +
STACK CFI 11674 .cfa: sp 32 +
STACK CFI 1167c .cfa: x29 32 + x19: .cfa -8 + ^ x20: .cfa -16 + ^ .ra: .cfa -24 + ^ x29: .cfa -32 + ^
STACK CFI 116b0 .cfa: sp 32 +
STACK CFI 116b8 .cfa: sp 0 +
STACK CFI INIT 116bc 50 .cfa: sp 0 +
STACK CFI 116c0 .cfa: sp 32 +
STACK CFI 116c8 .cfa: x29 32 + x19: .cfa -16 + ^ .ra: .cfa -24 + ^ x29: .cfa -32 + ^
STACK CFI 116e0 .cfa: sp 32 +
STACK CFI 116e8 .cfa: sp 0 +
STACK CFI 116ec .cfa: x29 32 +
STACK CFI 11700 .cfa: sp 32 +
STACK CFI 11708 .cfa: sp 0 +
STACK CFI INIT 1170c 60 .cfa: sp 0 +
STACK CFI 11710 .cfa: sp 32 +
STACK CFI 11718 .cfa: x29 32 + x19: .cfa -8 + ^ x20: .cfa -16 + ^ .ra: .cfa -24 + ^ x29: .cfa -32 + ^
STACK CFI 11738 .cfa: sp 32 +
STACK CFI 11740 .cfa: sp 0 +
STACK CFI 11744 .cfa: x29 32 +
STACK CFI 11760 .cfa: sp 32 +
STACK CFI 11768 .cfa: sp 0 +
STACK CFI INIT 11930 1c .cfa: sp 0 +
STACK CFI INIT 1194c c .cfa: sp 0 +
STACK CFI INIT 11958 4 .cfa: sp 0 +
STACK CFI INIT 1195c 4 .cfa: sp 0 +
STACK CFI INIT 11960 24 .cfa: sp 0 +
STACK CFI 11964 .cfa: sp 16 +
STACK CFI 11968 .cfa: x29 16 + .ra: .cfa -8 + ^ x29: .cfa -16 + ^
STACK CFI 1197c .cfa: sp 16 +
STACK CFI 11980 .cfa: sp 0 +
STACK CFI INIT 11984 10 .cfa: sp 0 +
STACK CFI INIT 11994 4 .cfa: sp 0 +
STACK CFI INIT 11998 4 .cfa: sp 0 +
STACK CFI INIT 11bc8 1c .cfa: sp 0 +
STACK CFI INIT 11be4 c .cfa: sp 0 +
STACK CFI INIT 11cd8 8 .cfa: sp 0 +
STACK CFI INIT 11ce0 14 .cfa: sp 0 +
STACK CFI INIT 11cf4 8 .cfa: sp 0 +
STACK CFI INIT 11cfc 14 .cfa: sp 0 +
STACK CFI INIT 11d10 314 .cfa: sp 0 +
STACK CFI 11d14 .cfa: sp 96 +
STACK CFI 11d2c .cfa: x29 96 + x19: .cfa -8 + ^ x20: .cfa -16 + ^ x21: .cfa -24 + ^ x22: .cfa -32 + ^ x23: .cfa -40 + ^ x24: .cfa -48 + ^ x25: .cfa -56 + ^ x26: .cfa -64 + ^ x27: .cfa -80 + ^ .ra: .cfa -88 + ^ x29: .cfa -96 + ^
STACK CFI 11fe8 .cfa: sp 96 +
STACK CFI 12000 .cfa: sp 0 +
STACK CFI 12004 .cfa: x29 96 +
STACK CFI INIT e5fc 40 .cfa: sp 0 +
STACK CFI e600 .cfa: sp 32 +
STACK CFI e608 .cfa: x29 32 + x19: .cfa -16 + ^ .ra: .cfa -24 + ^ x29: .cfa -32 + ^
STACK CFI e630 .cfa: sp 32 +
STACK CFI e638 .cfa: sp 0 +
STACK CFI INIT 121c4 3c .cfa: sp 0 +
STACK CFI 121c8 .cfa: sp 32 +
STACK CFI 121d0 .cfa: x29 32 + x19: .cfa -16 + ^ .ra: .cfa -24 + ^ x29: .cfa -32 + ^
STACK CFI 121dc .cfa: sp 32 +
STACK CFI 121e4 .cfa: sp 0 +
STACK CFI 121e8 .cfa: x29 32 +
STACK CFI 121f4 .cfa: sp 32 +
STACK CFI 121fc .cfa: sp 0 +
STACK CFI INIT cb30 9b0 .cfa: sp 0 +
STACK CFI cb34 .cfa: sp 496 +
STACK CFI cb58 .cfa: x29 96 + x19: .cfa -8 + ^ x20: .cfa -16 + ^ x21: .cfa -24 + ^ x22: .cfa -32 + ^ x23: .cfa -40 + ^ x24: .cfa -48 + ^ x25: .cfa -56 + ^ x26: .cfa -64 + ^ x27: .cfa -72 + ^ x28: .cfa -80 + ^ .ra: .cfa -88 + ^ x29: .cfa -96 + ^ v8: .cfa -104 + ^ v9: .cfa -112 + ^ v10: .cfa -128 + ^
STACK CFI d388 .cfa: sp 496 +
STACK CFI d3ac .cfa: sp 0 +
STACK CFI d3b0 .cfa: x29 96 +
STACK CFI INIT d55c 414 .cfa: sp 0 +
STACK CFI d560 .cfa: sp 144 +
STACK CFI d578 .cfa: x29 80 + x19: .cfa -8 + ^ x20: .cfa -16 + ^ x21: .cfa -24 + ^ x22: .cfa -32 + ^ x23: .cfa -40 + ^ x24: .cfa -48 + ^ x25: .cfa -64 + ^ .ra: .cfa -72 + ^ x29: .cfa -80 + ^
STACK CFI d8d4 .cfa: sp 144 +
STACK CFI d8ec .cfa: sp 0 +
STACK CFI d8f0 .cfa: x29 80 +
STACK CFI INIT d970 74 .cfa: sp 0 +
STACK CFI d974 .cfa: sp 48 +
STACK CFI d980 .cfa: x29 32 + x19: .cfa -8 + ^ x20: .cfa -16 + ^ .ra: .cfa -24 + ^ x29: .cfa -32 + ^
STACK CFI d9cc .cfa: sp 48 +
STACK CFI d9d8 .cfa: sp 0 +
STACK CFI d9dc .cfa: x29 32 +
STACK CFI INIT da5c ba0 .cfa: sp 0 +
STACK CFI da60 .cfa: sp 240 +
STACK CFI da7c .cfa: x29 96 + x19: .cfa -8 + ^ x20: .cfa -16 + ^ x21: .cfa -24 + ^ x22: .cfa -32 + ^ x23: .cfa -40 + ^ x24: .cfa -48 + ^ x25: .cfa -56 + ^ x26: .cfa -64 + ^ x27: .cfa -72 + ^ x28: .cfa -80 + ^ .ra: .cfa -88 + ^ x29: .cfa -96 + ^
STACK CFI e4a4 .cfa: sp 240 +
STACK CFI e4c0 .cfa: sp 0 +
STACK CFI e4c4 .cfa: x29 96 +
STACK CFI INIT e678 50 .cfa: sp 0 +
STACK CFI e67c .cfa: sp 32 +
STACK CFI e684 .cfa: x29 32 + x19: .cfa -8 + ^ x20: .cfa -16 + ^ .ra: .cfa -24 + ^ x29: .cfa -32 + ^
STACK CFI INIT e8f8 650 .cfa: sp 0 +
STACK CFI e8fc .cfa: sp 288 +
STACK CFI e918 .cfa: x29 96 + x19: .cfa -8 + ^ x20: .cfa -16 + ^ x21: .cfa -24 + ^ x22: .cfa -32 + ^ x23: .cfa -40 + ^ x24: .cfa -48 + ^ x25: .cfa -56 + ^ x26: .cfa -64 + ^ x28: .cfa -80 + ^ .ra: .cfa -88 + ^ x29: .cfa -96 + ^
STACK CFI ed60 .cfa: sp 288 +
STACK CFI ed7c .cfa: sp 0 +
STACK CFI ed80 .cfa: x29 96 +
STACK CFI INIT ef98 74 .cfa: sp 0 +
STACK CFI ef9c .cfa: sp 48 +
STACK CFI efa8 .cfa: x29 32 + x19: .cfa -8 + ^ x20: .cfa -16 + ^ .ra: .cfa -24 + ^ x29: .cfa -32 + ^
STACK CFI eff4 .cfa: sp 48 +
STACK CFI f000 .cfa: sp 0 +
STACK CFI f004 .cfa: x29 32 +
STACK CFI INIT f08c 6fc .cfa: sp 0 +
STACK CFI f090 .cfa: sp 496 +
STACK CFI f0ac .cfa: x29 96 + x19: .cfa -8 + ^ x20: .cfa -16 + ^ x21: .cfa -24 + ^ x22: .cfa -32 + ^ x23: .cfa -40 + ^ x24: .cfa -48 + ^ x25: .cfa -56 + ^ x26: .cfa -64 + ^ x27: .cfa -72 + ^ x28: .cfa -80 + ^ .ra: .cfa -88 + ^ x29: .cfa -96 + ^
STACK CFI f65c .cfa: sp 496 +
STACK CFI f678 .cfa: sp 0 +
STACK CFI f67c .cfa: x29 96 +
STACK CFI INIT f9c0 674 .cfa: sp 0 +
STACK CFI f9c4 .cfa: sp 304 +
STACK CFI f9e0 .cfa: x29 96 + x19: .cfa -8 + ^ x20: .cfa -16 + ^ x21: .cfa -24 + ^ x22: .cfa -32 + ^ x23: .cfa -40 + ^ x24: .cfa -48 + ^ x25: .cfa -56 + ^ x26: .cfa -64 + ^ x27: .cfa -72 + ^ x28: .cfa -80 + ^ .ra: .cfa -88 + ^ x29: .cfa -96 + ^
STACK CFI fedc .cfa: sp 304 +
STACK CFI fef8 .cfa: sp 0 +
STACK CFI fefc .cfa: x29 96 +
STACK CFI INIT 10168 6c4 .cfa: sp 0 +
STACK CFI 1016c .cfa: sp 176 +
STACK CFI 10188 .cfa: x29 96 + x19: .cfa -8 + ^ x20: .cfa -16 + ^ x21: .cfa -24 + ^ x22: .cfa -32 + ^ x23: .cfa -40 + ^ x24: .cfa -48 + ^ x25: .cfa -56 + ^ x26: .cfa -64 + ^ x27: .cfa -72 + ^ x28: .cfa -80 + ^ .ra: .cfa -88 + ^ x29: .cfa -96 + ^
STACK CFI 10670 .cfa: sp 176 +
STACK CFI 1068c .cfa: sp 0 +
STACK CFI 10690 .cfa: x29 96 +
STACK CFI INIT 1087c 50 .cfa: sp 0 +
STACK CFI 10880 .cfa: sp 32 +
STACK CFI 10888 .cfa: x29 32 + x19: .cfa -8 + ^ x20: .cfa -16 + ^ .ra: .cfa -24 + ^ x29: .cfa -32 + ^
STACK CFI INIT 10a88 1ac .cfa: sp 0 +
STACK CFI 10a8c .cfa: sp 128 +
STACK CFI 10a9c .cfa: x29 48 + x19: .cfa -8 + ^ x20: .cfa -16 + ^ x21: .cfa -24 + ^ x22: .cfa -32 + ^ .ra: .cfa -40 + ^ x29: .cfa -48 + ^
STACK CFI 10bb8 .cfa: sp 128 +
STACK CFI 10bc8 .cfa: sp 0 +
STACK CFI 10bcc .cfa: x29 48 +
STACK CFI INIT 10dc8 204 .cfa: sp 0 +
STACK CFI 10dcc .cfa: sp 128 +
STACK CFI 10de0 .cfa: x29 64 + x19: .cfa -8 + ^ x20: .cfa -16 + ^ x21: .cfa -24 + ^ x22: .cfa -32 + ^ x23: .cfa -40 + ^ x24: .cfa -48 + ^ .ra: .cfa -56 + ^ x29: .cfa -64 + ^
STACK CFI 10f04 .cfa: sp 128 +
STACK CFI 10f18 .cfa: sp 0 +
STACK CFI 10f1c .cfa: x29 64 +
STACK CFI INIT 11288 1d0 .cfa: sp 0 +
STACK CFI 1128c .cfa: sp 128 +
STACK CFI 112a0 .cfa: x29 64 + x19: .cfa -8 + ^ x20: .cfa -16 + ^ x21: .cfa -24 + ^ x22: .cfa -32 + ^ x23: .cfa -48 + ^ .ra: .cfa -56 + ^ x29: .cfa -64 + ^
STACK CFI 11418 .cfa: sp 128 +
STACK CFI 1142c .cfa: sp 0 +
STACK CFI 11430 .cfa: x29 64 +
STACK CFI INIT 1176c 1c4 .cfa: sp 0 +
STACK CFI 11770 .cfa: sp 112 +
STACK CFI 11780 .cfa: x29 48 + x19: .cfa -8 + ^ x20: .cfa -16 + ^ x21: .cfa -24 + ^ x22: .cfa -32 + ^ .ra: .cfa -40 + ^ x29: .cfa -48 + ^
STACK CFI 118f4 .cfa: sp 112 +
STACK CFI 11904 .cfa: sp 0 +
STACK CFI 11908 .cfa: x29 48 +
STACK CFI INIT 1199c 22c .cfa: sp 0 +
STACK CFI 119a0 .cfa: sp 112 +
STACK CFI 119ac .cfa: x29 32 + x19: .cfa -8 + ^ x20: .cfa -16 + ^ .ra: .cfa -24 + ^ x29: .cfa -32 + ^
STACK CFI 11b4c .cfa: sp 112 +
STACK CFI 11b58 .cfa: sp 0 +
STACK CFI 11b5c .cfa: x29 32 +
STACK CFI INIT 11bf0 74 .cfa: sp 0 +
STACK CFI 11bf4 .cfa: sp 48 +
STACK CFI 11c00 .cfa: x29 32 + x19: .cfa -8 + ^ x20: .cfa -16 + ^ .ra: .cfa -24 + ^ x29: .cfa -32 + ^
STACK CFI 11c4c .cfa: sp 48 +
STACK CFI 11c58 .cfa: sp 0 +
STACK CFI 11c5c .cfa: x29 32 +
STACK CFI INIT 11c64 74 .cfa: sp 0 +
STACK CFI 11c68 .cfa: sp 48 +
STACK CFI 11c74 .cfa: x29 32 + x19: .cfa -8 + ^ x20: .cfa -16 + ^ .ra: .cfa -24 + ^ x29: .cfa -32 + ^
STACK CFI 11cc0 .cfa: sp 48 +
STACK CFI 11ccc .cfa: sp 0 +
STACK CFI 11cd0 .cfa: x29 32 +
STACK CFI INIT 12024 c8 .cfa: sp 0 +
STACK CFI 12028 .cfa: sp 32 +
STACK CFI 12030 .cfa: x29 32 + x19: .cfa -8 + ^ x20: .cfa -16 + ^ .ra: .cfa -24 + ^ x29: .cfa -32 + ^
STACK CFI 12064 .cfa: sp 32 +
STACK CFI 1206c .cfa: sp 0 +
STACK CFI 12070 .cfa: x29 32 +
STACK CFI 12074 .cfa: sp 32 +
STACK CFI 1207c .cfa: sp 0 +
STACK CFI 12080 .cfa: x29 32 +
STACK CFI INIT 120ec d8 .cfa: sp 0 +
STACK CFI 120f0 .cfa: sp 32 +
STACK CFI 120f8 .cfa: x29 32 + x19: .cfa -8 + ^ x20: .cfa -16 + ^ .ra: .cfa -24 + ^ x29: .cfa -32 + ^
STACK CFI 121a4 .cfa: sp 32 +
STACK CFI 121ac .cfa: sp 0 +
STACK CFI 121b0 .cfa: x29 32 +
