MODULE Linux arm64 607ED9058088396E3D4C0C09F0CEB57C0 yellowcat98.custom_ufo_n_ship_cube.android64.so
INFO CODE_ID 05D97E6088806E393D4C0C09F0CEB57C391BB0D5
INFO GENERATOR mozilla/dump_syms 2.3.4
PUBLIC b990 0 __on_dlclose
PUBLIC b9a0 0 __emutls_unregister_key
PUBLIC b9a8 0 __on_dlclose_late
PUBLIC b9b0 0 __atexit_handler_wrapper
PUBLIC b9c4 0 atexit
PUBLIC b9e0 0 pthread_atfork
PUBLIC b9f0 0 __aarch64_ldadd8_relax
PUBLIC ba20 0 init_have_lse_atomics
PUBLIC bab8 0 __init_cpu_features_constructor
PUBLIC c054 0 __init_cpu_features
PUBLIC c0e0 0 __aarch64_ldadd8_acq_rel
PUBLIC c110 0 __cxx_global_var_init
PUBLIC cce4 0 geode::modifier::ModifyBase<geode::modifier::ModifyDerive<GJBaseGameLayerHook, GJBaseGameLayer> >::~ModifyBase()
PUBLIC ccfc 0 geode::modifier::ModifyDerive<GJBaseGameLayerHook, GJBaseGameLayer>::apply()
PUBLIC d10c 0 std::__ndk1::shared_ptr<geode::Hook>::~shared_ptr[abi:ne180000]()
PUBLIC d15c 0 geode::impl::ResultData<geode::Hook*, std::__ndk1::basic_string<char, std::__ndk1::char_traits<char>, std::__ndk1::allocator<char> > >::~ResultData()
PUBLIC d1d0 0 std::__ndk1::vector<std::__ndk1::basic_string<char, std::__ndk1::char_traits<char>, std::__ndk1::allocator<char> >, std::__ndk1::allocator<std::__ndk1::basic_string<char, std::__ndk1::char_traits<char>, std::__ndk1::allocator<char> > > >::~vector[abi:ne180000]()
PUBLIC d24c 0 geode::modifier::ModifyBase<geode::modifier::ModifyDerive<GJBaseGameLayerHook, GJBaseGameLayer> >::apply()
PUBLIC d250 0 __clang_call_terminate
PUBLIC d260 0 _ZN5geode15UnwrapExceptionC2IRPNS_4HookEQsr4implE18IsStringStreamableIT_EEENS_4impl5OkTagEOS5_
PUBLIC d3b4 0 std::__ndk1::__throw_bad_variant_access[abi:ne180000]()
PUBLIC d3e8 0 std::__ndk1::basic_stringstream<char, std::__ndk1::char_traits<char>, std::__ndk1::allocator<char> >::basic_stringstream[abi:ne180000]()
PUBLIC m d514 0 std::__ndk1::basic_stringstream<char, std::__ndk1::char_traits<char>, std::__ndk1::allocator<char> >::~basic_stringstream()
PUBLIC d594 0 geode::UnwrapException::~UnwrapException()
PUBLIC d5b8 0 std::__ndk1::__put_character_sequence[abi:ne180000]<char, std::__ndk1::char_traits<char> >(std::__ndk1::basic_ostream<char, std::__ndk1::char_traits<char> >, std::__ndk1::basic_ostream const*, unsigned long)
PUBLIC d75c 0 std::__ndk1::__pad_and_output[abi:ne180000]<char, std::__ndk1::char_traits<char> >(std::__ndk1::char_traits<char>, std::__ndk1::ostreambuf_iterator const*, std::__ndk1::ostreambuf_iterator const, std::__ndk1::ostreambuf_iterator const, std::__ndk1::ios_base&, std::__ndk1::ostreambuf_iterator)
PUBLIC d938 0 std::__ndk1::basic_string<char, std::__ndk1::char_traits<char>, std::__ndk1::allocator<char> >::__throw_length_error[abi:ne180000]() const
PUBLIC d94c 0 std::__ndk1::__throw_length_error[abi:ne180000](char const*)
PUBLIC d99c 0 std::length_error::length_error[abi:ne180000](char const*)
PUBLIC d9cc 0 std::__throw_bad_array_new_length([abi:ne180000], void)
PUBLIC da00 0 std::__ndk1::basic_stringbuf<char, std::__ndk1::char_traits<char>, std::__ndk1::allocator<char> >::str[abi:ne180000]() &&
PUBLIC db78 0 std::__ndk1::basic_stringbuf<char, std::__ndk1::char_traits<char>, std::__ndk1::allocator<char> >::__init_buf_ptrs[abi:ne180000]()
PUBLIC dcc0 0 std::__ndk1::basic_string<char, std::__ndk1::char_traits<char>, std::__ndk1::allocator<char> >::__init_copy_ctor_external(char const*, unsigned long)
PUBLIC dd40 0 std::__ndk1::__split_buffer<std::__ndk1::basic_string<char, std::__ndk1::char_traits<char>, std::__ndk1::allocator<char> >, std::__ndk1::allocator<std::__ndk1::basic_string<char, std::__ndk1::char_traits<char>, std::__ndk1::allocator<char> > >&>::~__split_buffer()
PUBLIC dda8 0 std::__ndk1::vector<std::__ndk1::basic_string<char, std::__ndk1::char_traits<char>, std::__ndk1::allocator<char> >, std::__ndk1::allocator<std::__ndk1::basic_string<char, std::__ndk1::char_traits<char>, std::__ndk1::allocator<char> > > >::__throw_length_error[abi:ne180000]() const
PUBLIC ddbc 0 std::__ndk1::__variant_detail::__visitation::__base::__dispatcher<(unsigned long)0>::__dispatch[abi:ne180000]<std::__ndk1::__variant_detail::__dtor<std::__ndk1::__variant_detail::__traits<geode::Hook*, std::__ndk1::basic_string<char, std::__ndk1::char_traits<char>, std::__ndk1::allocator<char> > >, (std::__ndk1::__variant_detail::_Trait)1>::__destroy[abi:ne180000]()::{lambda(auto:1&)#1}, std::__ndk1::__variant_detail::__base<(std::__ndk1::__variant_detail::__traits<geode::Hook*, std::__ndk1::basic_string<char, std::__ndk1::char_traits<char>, std::__ndk1::allocator<char> > >)1, geode::Hook, std::__ndk1::allocator<char> >&>(std::__ndk1::__variant_detail::__dtor<std::__ndk1::__variant_detail::__traits<geode::Hook*, std::__ndk1::basic_string<char, std::__ndk1::char_traits<char>, std::__ndk1::allocator<char> > >, (std::__ndk1::__variant_detail::_Trait)1>, std::__ndk1::__variant_detail::__base<(std::__ndk1::__variant_detail::__traits<geode::Hook*, std::__ndk1::basic_string<char, std::__ndk1::char_traits<char>, std::__ndk1::allocator<char> > >)1, geode::Hook, std::__ndk1::allocator<char> >&)
PUBLIC ddc0 0 std::__ndk1::__variant_detail::__visitation::__base::__dispatcher<(unsigned long)1>::__dispatch[abi:ne180000]<std::__ndk1::__variant_detail::__dtor<std::__ndk1::__variant_detail::__traits<geode::Hook*, std::__ndk1::basic_string<char, std::__ndk1::char_traits<char>, std::__ndk1::allocator<char> > >, (std::__ndk1::__variant_detail::_Trait)1>::__destroy[abi:ne180000]()::{lambda(auto:1&)#1}, std::__ndk1::__variant_detail::__base<(std::__ndk1::__variant_detail::__traits<geode::Hook*, std::__ndk1::basic_string<char, std::__ndk1::char_traits<char>, std::__ndk1::allocator<char> > >)1, geode::Hook, std::__ndk1::allocator<char> >&>(std::__ndk1::__variant_detail::__dtor<std::__ndk1::__variant_detail::__traits<geode::Hook*, std::__ndk1::basic_string<char, std::__ndk1::char_traits<char>, std::__ndk1::allocator<char> > >, (std::__ndk1::__variant_detail::_Trait)1>, std::__ndk1::__variant_detail::__base<(std::__ndk1::__variant_detail::__traits<geode::Hook*, std::__ndk1::basic_string<char, std::__ndk1::char_traits<char>, std::__ndk1::allocator<char> > >)1, geode::Hook, std::__ndk1::allocator<char> >&)
PUBLIC ddd4 0 std::__ndk1::__tree<std::__ndk1::__value_type<std::__ndk1::basic_string<char, std::__ndk1::char_traits<char>, std::__ndk1::allocator<char> >, std::__ndk1::shared_ptr<geode::Hook> >, std::__ndk1::__map_value_compare<std::__ndk1::basic_string<char, std::__ndk1::char_traits<char>, std::__ndk1::allocator<char> >, std::__ndk1::__value_type<std::__ndk1::basic_string<char, std::__ndk1::char_traits<char>, std::__ndk1::allocator<char> >, std::__ndk1::shared_ptr<geode::Hook> >, std::__ndk1::less<std::__ndk1::basic_string<char, std::__ndk1::char_traits<char>, std::__ndk1::allocator<char> > >, true>, std::__ndk1::allocator<std::__ndk1::__value_type<std::__ndk1::basic_string<char, std::__ndk1::char_traits<char>, std::__ndk1::allocator<char> >, std::__ndk1::shared_ptr<geode::Hook> > > >::destroy(std::__ndk1::__tree_node<std::__ndk1::__value_type<std::__ndk1::basic_string<char, std::__ndk1::char_traits<char>, std::__ndk1::allocator<char> >, std::__ndk1::shared_ptr<geode::Hook> >, void*>*)
PUBLIC de58 0 geode::modifier::AsStaticFunction_visit<GJBaseGameLayerHook, void (GJBaseGameLayerHook::*)()>::Impl<void (GJBaseGameLayerHook::*)()>::function(GJBaseGameLayerHook*)
PUBLIC df50 0 geode::addresser::Addresser::addressOfVirtual<void, GJBaseGameLayer, >(void (GJBaseGameLayer::*)())
PUBLIC e018 0 GJBaseGameLayer::GJBaseGameLayer(geode::ZeroConstructorType)
PUBLIC e7c8 0 GJGameState::GJGameState()
PUBLIC ed40 0 geode::stl::unordered_map<int, int, geode::stl::hash<int>, geode::stl::equal_to<int>, std::__ndk1::allocator<std::__ndk1::pair<int const, int> > >::~unordered_map()
PUBLIC edb8 0 geode::stl::unordered_set<int, geode::stl::hash<int>, geode::stl::equal_to<int>, std::__ndk1::allocator<int> >::~unordered_set()
PUBLIC ee30 0 geode::stl::unordered_map<int, gd::string, geode::stl::hash<int>, geode::stl::equal_to<int>, std::__ndk1::allocator<std::__ndk1::pair<int const, gd::string> > >::~unordered_map()
PUBLIC eeb4 0 gd::map<std::__ndk1::pair<int, int>, int>::~map()
PUBLIC eed0 0 geode::stl::unordered_map<int, gd::vector<LabelGameObject*>, geode::stl::hash<int>, geode::stl::equal_to<int>, std::__ndk1::allocator<std::__ndk1::pair<int const, gd::vector<LabelGameObject*> > > >::~unordered_map()
PUBLIC ef5c 0 geode::stl::unordered_map<int, std::__ndk1::pair<int, int>, geode::stl::hash<int>, geode::stl::equal_to<int>, std::__ndk1::allocator<std::__ndk1::pair<int const, std::__ndk1::pair<int, int> > > >::~unordered_map()
PUBLIC efd4 0 geode::stl::unordered_map<int, gd::vector<GameObject*>, geode::stl::hash<int>, geode::stl::equal_to<int>, std::__ndk1::allocator<std::__ndk1::pair<int const, gd::vector<GameObject*> > > >::~unordered_map()
PUBLIC f060 0 geode::stl::unordered_map<int, cocos2d::CCPoint, geode::stl::hash<int>, geode::stl::equal_to<int>, std::__ndk1::allocator<std::__ndk1::pair<int const, cocos2d::CCPoint> > >::~unordered_map()
PUBLIC f0d8 0 gd::vector<geode::stl::unordered_map<int, int, geode::stl::hash<int>, geode::stl::equal_to<int>, std::__ndk1::allocator<std::__ndk1::pair<int const, int> > > >::~vector()
PUBLIC f1dc 0 GJGameState::~GJGameState()
PUBLIC f5d4 0 geode::stl::unordered_map<int, SongChannelState, geode::stl::hash<int>, geode::stl::equal_to<int>, std::__ndk1::allocator<std::__ndk1::pair<int const, SongChannelState> > >::~unordered_map()
PUBLIC f64c 0 gd::map<std::__ndk1::pair<int, int>, SFXTriggerInstance>::~map()
PUBLIC f668 0 geode::stl::unordered_map<int, std::__ndk1::vector<int, std::__ndk1::allocator<int> >, geode::stl::hash<int>, geode::stl::equal_to<int>, std::__ndk1::allocator<std::__ndk1::pair<int const, std::__ndk1::vector<int, std::__ndk1::allocator<int> > > > >::~unordered_map()
PUBLIC f6f8 0 gd::vector<EnterEffectInstance>::~vector()
PUBLIC f790 0 geode::stl::unordered_map<int, std::__ndk1::vector<EnterEffectInstance, std::__ndk1::allocator<EnterEffectInstance> >, geode::stl::hash<int>, geode::stl::equal_to<int>, std::__ndk1::allocator<std::__ndk1::pair<int const, std::__ndk1::vector<EnterEffectInstance, std::__ndk1::allocator<EnterEffectInstance> > > > >::~unordered_map()
PUBLIC f7cc 0 gd::map<std::__ndk1::pair<GJGameEvent, int>, int>::~map()
PUBLIC f7e8 0 gd::map<std::__ndk1::pair<GJGameEvent, int>, gd::vector<EventTriggerInstance> >::~map()
PUBLIC f804 0 geode::stl::unordered_map<int, EnhancedGameObject*, geode::stl::hash<int>, geode::stl::equal_to<int>, std::__ndk1::allocator<std::__ndk1::pair<int const, EnhancedGameObject*> > >::~unordered_map()
PUBLIC f87c 0 geode::stl::unordered_map<int, GameObjectPhysics, geode::stl::hash<int>, geode::stl::equal_to<int>, std::__ndk1::allocator<std::__ndk1::pair<int const, GameObjectPhysics> > >::~unordered_map()
PUBLIC f8f4 0 geode::stl::unordered_map<int, GJValueTween, geode::stl::hash<int>, geode::stl::equal_to<int>, std::__ndk1::allocator<std::__ndk1::pair<int const, GJValueTween> > >::~unordered_map()
PUBLIC f96c 0 geode::stl::unordered_map<int, bool, geode::stl::hash<int>, geode::stl::equal_to<int>, std::__ndk1::allocator<std::__ndk1::pair<int const, bool> > >::~unordered_map()
PUBLIC f9e4 0 gd::map<std::__ndk1::pair<GJGameEvent, int>, gd::vector<EventTriggerInstance> >::map(std::__ndk1::map<std::__ndk1::pair<GJGameEvent, int>, gd::vector<EventTriggerInstance>, std::__ndk1::less<std::__ndk1::pair<GJGameEvent, int> >, std::__ndk1::allocator<std::__ndk1::pair<std::__ndk1::pair<GJGameEvent, int> const, gd::vector<EventTriggerInstance> > > >)
PUBLIC fbb0 0 gd::map<std::__ndk1::pair<GJGameEvent, int>, gd::vector<EventTriggerInstance> >::insert_pair(std::__ndk1::pair<std::__ndk1::pair<GJGameEvent, int>, gd::vector<EventTriggerInstance> > const&)
PUBLIC fe68 0 std::__ndk1::pair<std::__ndk1::pair<GJGameEvent, int>, gd::vector<EventTriggerInstance> >::~pair()
PUBLIC fee8 0 std::__ndk1::pair<std::__ndk1::pair<GJGameEvent, int> const, gd::vector<EventTriggerInstance> >::~pair()
PUBLIC ff68 0 gd::vector<EventTriggerInstance>::vector(gd::vector<EventTriggerInstance> const&)
PUBLIC 10108 0 geode::stl::_rb_insert_rebalance(bool, geode::stl::_rb_tree_base*, geode::stl::_rb_tree_base*, geode::stl::_rb_tree_base&)
PUBLIC 103c0 0 gd::vector<EventTriggerInstance>::operator=(gd::vector<EventTriggerInstance> const&)
PUBLIC 1057c 0 gd::vector<EventTriggerInstance>::~vector()
PUBLIC 105fc 0 std::__ndk1::__tree<std::__ndk1::__value_type<std::__ndk1::pair<GJGameEvent, int>, gd::vector<EventTriggerInstance> >, std::__ndk1::__map_value_compare<std::__ndk1::pair<GJGameEvent, int>, std::__ndk1::__value_type<std::__ndk1::pair<GJGameEvent, int>, gd::vector<EventTriggerInstance> >, std::__ndk1::less<std::__ndk1::pair<GJGameEvent, int> >, true>, std::__ndk1::allocator<std::__ndk1::__value_type<std::__ndk1::pair<GJGameEvent, int>, gd::vector<EventTriggerInstance> > > >::destroy(std::__ndk1::__tree_node<std::__ndk1::__value_type<std::__ndk1::pair<GJGameEvent, int>, gd::vector<EventTriggerInstance> >, void*>*)
PUBLIC 10694 0 gd::map<std::__ndk1::pair<int, int>, SFXTriggerInstance>::erase(geode::stl::_rb_tree_node<std::__ndk1::pair<std::__ndk1::pair<int, int>, SFXTriggerInstance> >*)
PUBLIC 106e8 0 gd::map<int, EnterEffectAnimValue>::erase(geode::stl::_rb_tree_node<std::__ndk1::pair<int, EnterEffectAnimValue> >*)
PUBLIC 1073c 0 geode::stl::_Hashtable<int, std::__ndk1::pair<int const, std::__ndk1::vector<EnterEffectInstance, std::__ndk1::allocator<EnterEffectInstance> > >, std::__ndk1::allocator<std::__ndk1::pair<int const, std::__ndk1::vector<EnterEffectInstance, std::__ndk1::allocator<EnterEffectInstance> > > >, geode::stl::__detail::_Select1st, geode::stl::equal_to<int>, geode::stl::hash<int>, geode::stl::__detail::_Mod_range_hashing, geode::stl::__detail::_Default_ranged_hash, geode::stl::__detail::_Prime_rehash_policy, geode::stl::__detail::_Hashtable_traits<false, false, true> >::clear()
PUBLIC 107e4 0 gd::map<std::__ndk1::pair<GJGameEvent, int>, int>::erase(geode::stl::_rb_tree_node<std::__ndk1::pair<std::__ndk1::pair<GJGameEvent, int>, int> >*)
PUBLIC 10838 0 gd::map<std::__ndk1::pair<GJGameEvent, int>, gd::vector<EventTriggerInstance> >::erase(geode::stl::_rb_tree_node<std::__ndk1::pair<std::__ndk1::pair<GJGameEvent, int>, gd::vector<EventTriggerInstance> > >*)
PUBLIC 108e0 0 gd::map<std::__ndk1::pair<int, int>, int>::erase(geode::stl::_rb_tree_node<std::__ndk1::pair<std::__ndk1::pair<int, int>, int> >*)
PUBLIC 10934 0 std::__ndk1::shared_ptr<tulip::hook::CallingConvention>::~shared_ptr[abi:ne180000]()
PUBLIC 10984 0 tulip::hook::HandlerMetadata::~HandlerMetadata()
PUBLIC 109e8 0 geode::Mod::getSettingValue<long>(std::__ndk1::basic_string_view<char, std::__ndk1::char_traits<char> >) const
PUBLIC 10afc 0 geode::cast::traverseTypeinfoFor(void*, geode::cast::ClassTypeinfoType const*, char const*)
PUBLIC 10bf4 0 std::__ndk1::__tree_balance_after_insert[abi:ne180000]<std::__ndk1::__tree_node_base<void*>*>(std::__ndk1::__tree_node_base<void*>*, std::__ndk1::__tree_node_base<void*>*)
PUBLIC m 10da4 0 geodeImplicitEntry
PUBLIC 10de0 0 std::__ndk1::unordered_map<void*, bool, std::__ndk1::hash<void*>, std::__ndk1::equal_to<void*>, std::__ndk1::allocator<std::__ndk1::pair<void* const, bool> > >::~unordered_map[abi:ne180000]()
PUBLIC 10e2c 0 wrapFunction(unsigned long, tulip::hook::WrapperMetadata const&)
PUBLIC 10f60 0 geode::impl::ResultData<void*, std::__ndk1::basic_string<char, std::__ndk1::char_traits<char>, std::__ndk1::allocator<char> > >::unwrapErr() &
PUBLIC 10fd8 0 geode::impl::ResultData<void*, std::__ndk1::basic_string<char, std::__ndk1::char_traits<char>, std::__ndk1::allocator<char> > >::~ResultData()
PUBLIC 1104c 0 tulip::hook::WrapperMetadata::~WrapperMetadata()
PUBLIC 110b0 0 cocos2d::CCObject::~CCObject()
PUBLIC 110d4 0 cocos2d::CCNode::~CCNode()
PUBLIC 110f8 0 {virtual override thunk({offset(-320)}, cocos2d::CCLayer::~CCLayer())}
PUBLIC 11100 0 cocos2d::CCLayer::~CCLayer()
PUBLIC 11124 0 {virtual override thunk({offset(-320)}, cocos2d::CCLayer::~CCLayer())}
PUBLIC 1114c 0 GJBaseGameLayer::~GJBaseGameLayer()
PUBLIC 120e0 0 {virtual override thunk({offset(-320)}, GJBaseGameLayer::~GJBaseGameLayer())}
PUBLIC 120e8 0 GJBaseGameLayer::~GJBaseGameLayer()
PUBLIC 1210c 0 {virtual override thunk({offset(-320)}, GJBaseGameLayer::~GJBaseGameLayer())}
PUBLIC 12134 0 GJBaseGameLayer::toggleGroupTriggered(int, bool, gd::vector<int> const&, int, int)
PUBLIC 122a0 0 tulip::hook::AbstractFunction::from<void, GJBaseGameLayer*, int, bool, gd::vector<int> const&, int, int>(void (*)(GJBaseGameLayer*, int, bool, gd::vector<int> const&, int, int))
PUBLIC 12414 0 {virtual override thunk({offset(-408)}, GJBaseGameLayer::toggleGroupTriggered(int, bool, gd::vector<int> const&, int, int))}
PUBLIC 1241c 0 GJBaseGameLayer::spawnGroup(int, bool, double, gd::vector<int> const&, int, int)
PUBLIC 12598 0 tulip::hook::AbstractFunction::from<void, GJBaseGameLayer*, int, bool, double, gd::vector<int> const&, int, int>(void (*)(GJBaseGameLayer*, int, bool, double, gd::vector<int> const&, int, int))
PUBLIC 12710 0 {virtual override thunk({offset(-408)}, GJBaseGameLayer::spawnGroup(int, bool, double, gd::vector<int> const&, int, int))}
PUBLIC 12718 0 GJBaseGameLayer::spawnObject(GameObject*, double, gd::vector<int> const&)
PUBLIC 12874 0 tulip::hook::AbstractFunction::from<void, GJBaseGameLayer*, GameObject*, double, gd::vector<int> const&>(void (*)(GJBaseGameLayer*, GameObject*, double, gd::vector<int> const&))
PUBLIC 12980 0 {virtual override thunk({offset(-408)}, GJBaseGameLayer::spawnObject(GameObject*, double, gd::vector<int> const&))}
PUBLIC 12988 0 GJBaseGameLayer::activatePlatformerEndTrigger(EndTriggerGameObject*, gd::vector<int> const&)
PUBLIC 12ad4 0 tulip::hook::AbstractFunction::from<void, GJBaseGameLayer*, EndTriggerGameObject*, gd::vector<int> const&>(void (*)(GJBaseGameLayer*, EndTriggerGameObject*, gd::vector<int> const&))
PUBLIC 12bd4 0 GJBaseGameLayer::toggleGlitter(bool)
PUBLIC 12bd8 0 GJBaseGameLayer::timeForPos(cocos2d::CCPoint, int, int, bool, int)
PUBLIC 12be0 0 GJBaseGameLayer::posForTime(float)
PUBLIC 12be8 0 GJBaseGameLayer::resetSPTriggered()
PUBLIC 12bec 0 GJBaseGameLayer::createCustomParticle(gd::string const&, cocos2d::ParticleStruct const&, int, bool)
PUBLIC 12d50 0 tulip::hook::AbstractFunction::from<TodoReturnPlaceholder, GJBaseGameLayer*, gd::string const&, cocos2d::ParticleStruct const&, int, bool>(TodoReturnPlaceholder (*)(GJBaseGameLayer*, gd::string const&, cocos2d::ParticleStruct const&, int, bool))
PUBLIC 12eb4 0 GJBaseGameLayer::claimCustomParticle(gd::string const&, cocos2d::ParticleStruct const&, int, int, int, bool)
PUBLIC 13030 0 tulip::hook::AbstractFunction::from<TodoReturnPlaceholder, GJBaseGameLayer*, gd::string const&, cocos2d::ParticleStruct const&, int, int, int, bool>(TodoReturnPlaceholder (*)(GJBaseGameLayer*, gd::string const&, cocos2d::ParticleStruct const&, int, int, int, bool))
PUBLIC 131a8 0 GJBaseGameLayer::unclaimCustomParticle(gd::string const&, cocos2d::CCParticleSystemQuad*)
PUBLIC 132f4 0 tulip::hook::AbstractFunction::from<TodoReturnPlaceholder, GJBaseGameLayer*, gd::string const&, cocos2d::CCParticleSystemQuad*>(TodoReturnPlaceholder (*)(GJBaseGameLayer*, gd::string const&, cocos2d::CCParticleSystemQuad*))
PUBLIC 133f4 0 cocos2d::CCCopying::copyWithZone(cocos2d::CCZone*)
PUBLIC 133fc 0 cocos2d::CCObject::update(float)
PUBLIC 13400 0 cocos2d::CCKeyboardDelegate::keyUp(cocos2d::enumKeyCodes)
PUBLIC 13404 0 cocos2d::CCMouseDelegate::rightKeyDown()
PUBLIC 13408 0 cocos2d::CCMouseDelegate::rightKeyUp()
PUBLIC 1340c 0 cocos2d::CCMouseDelegate::scrollWheel(float, float)
PUBLIC 13410 0 cocos2d::CCNode::~CCNode()
PUBLIC 13688 0 cocos2d::CCLayer::~CCLayer()
PUBLIC 13950 0 cocos2d::CCObject::~CCObject()
PUBLIC 13e1c 0 _ZN5geode15UnwrapExceptionC2IRPvQsr4implE18IsStringStreamableIT_EEENS_4impl5OkTagEOS4_
PUBLIC 13f70 0 _ZN5geode15UnwrapExceptionC2IRNSt6__ndk112basic_stringIcNS2_11char_traitsIcEENS2_9allocatorIcEEEEQsr4implE18IsStringStreamableIT_EEENS_4impl6ErrTagEOSA_
PUBLIC 140d8 0 std::__ndk1::__variant_detail::__visitation::__base::__dispatcher<(unsigned long)0>::__dispatch[abi:ne180000]<std::__ndk1::__variant_detail::__dtor<std::__ndk1::__variant_detail::__traits<void*, std::__ndk1::basic_string<char, std::__ndk1::char_traits<char>, std::__ndk1::allocator<char> > >, (std::__ndk1::__variant_detail::_Trait)1>::__destroy[abi:ne180000]()::{lambda(auto:1&)#1}, std::__ndk1::__variant_detail::__base<(std::__ndk1::__variant_detail::__traits<void*, std::__ndk1::basic_string<char, std::__ndk1::char_traits<char>, std::__ndk1::allocator<char> > >)1, std::__ndk1::__variant_detail::__traits, std::__ndk1::allocator<char> >&>(std::__ndk1::__variant_detail::__dtor<std::__ndk1::__variant_detail::__traits<void*, std::__ndk1::basic_string<char, std::__ndk1::char_traits<char>, std::__ndk1::allocator<char> > >, (std::__ndk1::__variant_detail::_Trait)1>, std::__ndk1::__variant_detail::__base<(std::__ndk1::__variant_detail::__traits<void*, std::__ndk1::basic_string<char, std::__ndk1::char_traits<char>, std::__ndk1::allocator<char> > >)1, std::__ndk1::__variant_detail::__traits, std::__ndk1::allocator<char> >&)
PUBLIC 140dc 0 std::__ndk1::__variant_detail::__visitation::__base::__dispatcher<(unsigned long)1>::__dispatch[abi:ne180000]<std::__ndk1::__variant_detail::__dtor<std::__ndk1::__variant_detail::__traits<void*, std::__ndk1::basic_string<char, std::__ndk1::char_traits<char>, std::__ndk1::allocator<char> > >, (std::__ndk1::__variant_detail::_Trait)1>::__destroy[abi:ne180000]()::{lambda(auto:1&)#1}, std::__ndk1::__variant_detail::__base<(std::__ndk1::__variant_detail::__traits<void*, std::__ndk1::basic_string<char, std::__ndk1::char_traits<char>, std::__ndk1::allocator<char> > >)1, std::__ndk1::__variant_detail::__traits, std::__ndk1::allocator<char> >&>(std::__ndk1::__variant_detail::__dtor<std::__ndk1::__variant_detail::__traits<void*, std::__ndk1::basic_string<char, std::__ndk1::char_traits<char>, std::__ndk1::allocator<char> > >, (std::__ndk1::__variant_detail::_Trait)1>, std::__ndk1::__variant_detail::__base<(std::__ndk1::__variant_detail::__traits<void*, std::__ndk1::basic_string<char, std::__ndk1::char_traits<char>, std::__ndk1::allocator<char> > >)1, std::__ndk1::__variant_detail::__traits, std::__ndk1::allocator<char> >&)
PUBLIC 140f0 0 std::__ndk1::__hash_table<std::__ndk1::__hash_value_type<void*, bool>, std::__ndk1::__unordered_map_hasher<void*, std::__ndk1::__hash_value_type<void*, bool>, std::__ndk1::hash<void*>, std::__ndk1::equal_to<void*>, true>, std::__ndk1::__unordered_map_equal<void*, std::__ndk1::__hash_value_type<void*, bool>, std::__ndk1::equal_to<void*>, std::__ndk1::hash<void*>, true>, std::__ndk1::allocator<std::__ndk1::__hash_value_type<void*, bool> > >::__emplace_unique_key_args<void*, std::__ndk1::piecewise_construct_t const&, std::__ndk1::tuple<void* const&>, std::__ndk1::tuple<> >(void* const&, std::__ndk1::piecewise_construct_t const&, std::__ndk1::tuple<void* const&>, std::__ndk1::tuple<>)
PUBLIC 145d0 0 <.plt ELF section in yellowcat98.custom_ufo_n_ship_cube.android64.so>
STACK CFI INIT b990 10 .cfa: sp 0 +
STACK CFI INIT b9a0 8 .cfa: sp 0 +
STACK CFI INIT b9a8 8 .cfa: sp 0 +
STACK CFI INIT b9b0 14 .cfa: sp 0 +
STACK CFI INIT b9c4 1c .cfa: sp 0 +
STACK CFI INIT b9e0 10 .cfa: sp 0 +
STACK CFI INIT b9f0 30 .cfa: sp 0 +
STACK CFI INIT ba20 98 .cfa: sp 0 +
STACK CFI INIT bab8 59c .cfa: sp 0 +
STACK CFI INIT c054 8c .cfa: sp 0 +
STACK CFI INIT c0e0 30 .cfa: sp 0 +
STACK CFI INIT cce4 18 .cfa: sp 0 +
STACK CFI INIT d10c 50 .cfa: sp 0 +
STACK CFI d110 .cfa: sp 32 +
STACK CFI d118 .cfa: x29 32 + x19: .cfa -16 + ^ .ra: .cfa -24 + ^ x29: .cfa -32 + ^
STACK CFI d130 .cfa: sp 32 +
STACK CFI d138 .cfa: sp 0 +
STACK CFI d13c .cfa: x29 32 +
STACK CFI d150 .cfa: sp 32 +
STACK CFI d158 .cfa: sp 0 +
STACK CFI INIT d1d0 7c .cfa: sp 0 +
STACK CFI d1d4 .cfa: sp 48 +
STACK CFI d1e0 .cfa: x29 48 + x19: .cfa -8 + ^ x20: .cfa -16 + ^ x21: .cfa -32 + ^ .ra: .cfa -40 + ^ x29: .cfa -48 + ^
STACK CFI d22c .cfa: sp 48 +
STACK CFI d238 .cfa: sp 0 +
STACK CFI d23c .cfa: sp 48 +
STACK CFI d248 .cfa: sp 0 +
STACK CFI INIT d24c 4 .cfa: sp 0 +
STACK CFI INIT d250 10 .cfa: sp 0 +
STACK CFI d254 .cfa: sp 16 +
STACK CFI d258 .cfa: x29 16 + .ra: .cfa -8 + ^ x29: .cfa -16 + ^
STACK CFI INIT d3b4 34 .cfa: sp 0 +
STACK CFI d3b8 .cfa: sp 16 +
STACK CFI d3bc .cfa: x29 16 + .ra: .cfa -8 + ^ x29: .cfa -16 + ^
STACK CFI INIT d514 80 .cfa: sp 0 +
STACK CFI d518 .cfa: sp 48 +
STACK CFI d524 .cfa: x29 48 + x19: .cfa -8 + ^ x20: .cfa -16 + ^ x21: .cfa -32 + ^ .ra: .cfa -40 + ^ x29: .cfa -48 + ^
STACK CFI d584 .cfa: sp 48 +
STACK CFI d590 .cfa: sp 0 +
STACK CFI INIT d594 24 .cfa: sp 0 +
STACK CFI d598 .cfa: sp 32 +
STACK CFI d5a0 .cfa: x29 32 + x19: .cfa -16 + ^ .ra: .cfa -24 + ^ x29: .cfa -32 + ^
STACK CFI d5ac .cfa: sp 32 +
STACK CFI d5b4 .cfa: sp 0 +
STACK CFI INIT d938 14 .cfa: sp 0 +
STACK CFI d93c .cfa: sp 16 +
STACK CFI d940 .cfa: x29 16 + .ra: .cfa -8 + ^ x29: .cfa -16 + ^
STACK CFI INIT d99c 30 .cfa: sp 0 +
STACK CFI d9a0 .cfa: sp 32 +
STACK CFI d9a8 .cfa: x29 32 + x19: .cfa -16 + ^ .ra: .cfa -24 + ^ x29: .cfa -32 + ^
STACK CFI d9c0 .cfa: sp 32 +
STACK CFI d9c8 .cfa: sp 0 +
STACK CFI INIT d9cc 34 .cfa: sp 0 +
STACK CFI d9d0 .cfa: sp 32 +
STACK CFI d9d8 .cfa: x29 32 + x19: .cfa -16 + ^ .ra: .cfa -24 + ^ x29: .cfa -32 + ^
STACK CFI INIT db78 148 .cfa: sp 0 +
STACK CFI db7c .cfa: sp 48 +
STACK CFI db88 .cfa: x29 48 + x19: .cfa -8 + ^ x20: .cfa -16 + ^ x21: .cfa -32 + ^ .ra: .cfa -40 + ^ x29: .cfa -48 + ^
STACK CFI dcb0 .cfa: sp 48 +
STACK CFI dcbc .cfa: sp 0 +
STACK CFI INIT dcc0 80 .cfa: sp 0 +
STACK CFI dcc4 .cfa: sp 48 +
STACK CFI dcd0 .cfa: x29 48 + x19: .cfa -8 + ^ x20: .cfa -16 + ^ x21: .cfa -24 + ^ x22: .cfa -32 + ^ .ra: .cfa -40 + ^ x29: .cfa -48 + ^
STACK CFI dce8 .cfa: sp 48 +
STACK CFI dcf4 .cfa: sp 0 +
STACK CFI dcf8 .cfa: x29 48 +
STACK CFI dd28 .cfa: sp 48 +
STACK CFI dd34 .cfa: sp 0 +
STACK CFI dd38 .cfa: x29 48 +
STACK CFI INIT dd40 68 .cfa: sp 0 +
STACK CFI dd44 .cfa: sp 32 +
STACK CFI dd4c .cfa: x29 32 + x19: .cfa -8 + ^ x20: .cfa -16 + ^ .ra: .cfa -24 + ^ x29: .cfa -32 + ^
STACK CFI dd64 .cfa: sp 32 +
STACK CFI dd6c .cfa: sp 0 +
STACK CFI dd70 .cfa: x29 32 +
STACK CFI dd9c .cfa: sp 32 +
STACK CFI dda4 .cfa: sp 0 +
STACK CFI INIT dda8 14 .cfa: sp 0 +
STACK CFI ddac .cfa: sp 16 +
STACK CFI ddb0 .cfa: x29 16 + .ra: .cfa -8 + ^ x29: .cfa -16 + ^
STACK CFI INIT ddbc 4 .cfa: sp 0 +
STACK CFI INIT ddc0 14 .cfa: sp 0 +
STACK CFI INIT ddd4 84 .cfa: sp 0 +
STACK CFI dddc .cfa: sp 32 +
STACK CFI dde4 .cfa: x29 32 + x19: .cfa -8 + ^ x20: .cfa -16 + ^ .ra: .cfa -24 + ^ x29: .cfa -32 + ^
STACK CFI de24 .cfa: sp 32 +
STACK CFI de2c .cfa: sp 0 +
STACK CFI de34 .cfa: x29 32 +
STACK CFI INIT de58 f8 .cfa: sp 0 +
STACK CFI de5c .cfa: sp 32 +
STACK CFI de64 .cfa: x29 32 + x19: .cfa -8 + ^ x20: .cfa -16 + ^ .ra: .cfa -24 + ^ x29: .cfa -32 + ^
STACK CFI dea8 .cfa: sp 32 +
STACK CFI deb0 .cfa: sp 0 +
STACK CFI deb4 .cfa: x29 32 +
STACK CFI deec .cfa: sp 32 +
STACK CFI def4 .cfa: sp 0 +
STACK CFI def8 .cfa: x29 32 +
STACK CFI df20 .cfa: sp 32 +
STACK CFI df28 .cfa: sp 0 +
STACK CFI df2c .cfa: x29 32 +
STACK CFI df44 .cfa: sp 32 +
STACK CFI df4c .cfa: sp 0 +
STACK CFI INIT ed40 78 .cfa: sp 0 +
STACK CFI ed44 .cfa: sp 48 +
STACK CFI ed50 .cfa: x29 48 + x19: .cfa -8 + ^ x20: .cfa -16 + ^ x21: .cfa -32 + ^ .ra: .cfa -40 + ^ x29: .cfa -48 + ^
STACK CFI ed98 .cfa: sp 48 +
STACK CFI eda4 .cfa: sp 0 +
STACK CFI eda8 .cfa: sp 48 +
STACK CFI edb4 .cfa: sp 0 +
STACK CFI INIT edb8 78 .cfa: sp 0 +
STACK CFI edbc .cfa: sp 48 +
STACK CFI edc8 .cfa: x29 48 + x19: .cfa -8 + ^ x20: .cfa -16 + ^ x21: .cfa -32 + ^ .ra: .cfa -40 + ^ x29: .cfa -48 + ^
STACK CFI ee10 .cfa: sp 48 +
STACK CFI ee1c .cfa: sp 0 +
STACK CFI ee20 .cfa: sp 48 +
STACK CFI ee2c .cfa: sp 0 +
STACK CFI INIT ee30 84 .cfa: sp 0 +
STACK CFI ee34 .cfa: sp 48 +
STACK CFI ee40 .cfa: x29 48 + x19: .cfa -8 + ^ x20: .cfa -16 + ^ x21: .cfa -24 + ^ x22: .cfa -32 + ^ .ra: .cfa -40 + ^ x29: .cfa -48 + ^
STACK CFI ee94 .cfa: sp 48 +
STACK CFI eea0 .cfa: sp 0 +
STACK CFI eea4 .cfa: sp 48 +
STACK CFI eeb0 .cfa: sp 0 +
STACK CFI INIT eed0 8c .cfa: sp 0 +
STACK CFI eed4 .cfa: sp 48 +
STACK CFI eee0 .cfa: x29 48 + x19: .cfa -8 + ^ x20: .cfa -16 + ^ x21: .cfa -24 + ^ x22: .cfa -32 + ^ .ra: .cfa -40 + ^ x29: .cfa -48 + ^
STACK CFI ef18 .cfa: sp 48 +
STACK CFI ef24 .cfa: sp 0 +
STACK CFI ef28 .cfa: x29 48 +
STACK CFI ef4c .cfa: sp 48 +
STACK CFI ef58 .cfa: sp 0 +
STACK CFI INIT ef5c 78 .cfa: sp 0 +
STACK CFI ef60 .cfa: sp 48 +
STACK CFI ef6c .cfa: x29 48 + x19: .cfa -8 + ^ x20: .cfa -16 + ^ x21: .cfa -32 + ^ .ra: .cfa -40 + ^ x29: .cfa -48 + ^
STACK CFI efb4 .cfa: sp 48 +
STACK CFI efc0 .cfa: sp 0 +
STACK CFI efc4 .cfa: sp 48 +
STACK CFI efd0 .cfa: sp 0 +
STACK CFI INIT efd4 8c .cfa: sp 0 +
STACK CFI efd8 .cfa: sp 48 +
STACK CFI efe4 .cfa: x29 48 + x19: .cfa -8 + ^ x20: .cfa -16 + ^ x21: .cfa -24 + ^ x22: .cfa -32 + ^ .ra: .cfa -40 + ^ x29: .cfa -48 + ^
STACK CFI f01c .cfa: sp 48 +
STACK CFI f028 .cfa: sp 0 +
STACK CFI f02c .cfa: x29 48 +
STACK CFI f050 .cfa: sp 48 +
STACK CFI f05c .cfa: sp 0 +
STACK CFI INIT f060 78 .cfa: sp 0 +
STACK CFI f064 .cfa: sp 48 +
STACK CFI f070 .cfa: x29 48 + x19: .cfa -8 + ^ x20: .cfa -16 + ^ x21: .cfa -32 + ^ .ra: .cfa -40 + ^ x29: .cfa -48 + ^
STACK CFI f0b8 .cfa: sp 48 +
STACK CFI f0c4 .cfa: sp 0 +
STACK CFI f0c8 .cfa: sp 48 +
STACK CFI f0d4 .cfa: sp 0 +
STACK CFI INIT f0d8 104 .cfa: sp 0 +
STACK CFI f0dc .cfa: sp 64 +
STACK CFI f0ec .cfa: x29 64 + x19: .cfa -8 + ^ x20: .cfa -16 + ^ x21: .cfa -24 + ^ x22: .cfa -32 + ^ x23: .cfa -48 + ^ .ra: .cfa -56 + ^ x29: .cfa -64 + ^
STACK CFI f1b4 .cfa: sp 64 +
STACK CFI f1c4 .cfa: sp 0 +
STACK CFI f1c8 .cfa: sp 64 +
STACK CFI f1d8 .cfa: sp 0 +
STACK CFI INIT f5d4 78 .cfa: sp 0 +
STACK CFI f5d8 .cfa: sp 48 +
STACK CFI f5e4 .cfa: x29 48 + x19: .cfa -8 + ^ x20: .cfa -16 + ^ x21: .cfa -32 + ^ .ra: .cfa -40 + ^ x29: .cfa -48 + ^
STACK CFI f62c .cfa: sp 48 +
STACK CFI f638 .cfa: sp 0 +
STACK CFI f63c .cfa: sp 48 +
STACK CFI f648 .cfa: sp 0 +
STACK CFI INIT f668 90 .cfa: sp 0 +
STACK CFI f66c .cfa: sp 48 +
STACK CFI f678 .cfa: x29 48 + x19: .cfa -8 + ^ x20: .cfa -16 + ^ x21: .cfa -24 + ^ x22: .cfa -32 + ^ .ra: .cfa -40 + ^ x29: .cfa -48 + ^
STACK CFI f6b0 .cfa: sp 48 +
STACK CFI f6bc .cfa: sp 0 +
STACK CFI f6c0 .cfa: x29 48 +
STACK CFI f6e8 .cfa: sp 48 +
STACK CFI f6f4 .cfa: sp 0 +
STACK CFI INIT f790 3c .cfa: sp 0 +
STACK CFI f794 .cfa: sp 32 +
STACK CFI f79c .cfa: x29 32 + x19: .cfa -16 + ^ .ra: .cfa -24 + ^ x29: .cfa -32 + ^
STACK CFI f7b4 .cfa: sp 32 +
STACK CFI f7bc .cfa: sp 0 +
STACK CFI f7c0 .cfa: sp 32 +
STACK CFI f7c8 .cfa: sp 0 +
STACK CFI INIT f804 78 .cfa: sp 0 +
STACK CFI f808 .cfa: sp 48 +
STACK CFI f814 .cfa: x29 48 + x19: .cfa -8 + ^ x20: .cfa -16 + ^ x21: .cfa -32 + ^ .ra: .cfa -40 + ^ x29: .cfa -48 + ^
STACK CFI f85c .cfa: sp 48 +
STACK CFI f868 .cfa: sp 0 +
STACK CFI f86c .cfa: sp 48 +
STACK CFI f878 .cfa: sp 0 +
STACK CFI INIT f87c 78 .cfa: sp 0 +
STACK CFI f880 .cfa: sp 48 +
STACK CFI f88c .cfa: x29 48 + x19: .cfa -8 + ^ x20: .cfa -16 + ^ x21: .cfa -32 + ^ .ra: .cfa -40 + ^ x29: .cfa -48 + ^
STACK CFI f8d4 .cfa: sp 48 +
STACK CFI f8e0 .cfa: sp 0 +
STACK CFI f8e4 .cfa: sp 48 +
STACK CFI f8f0 .cfa: sp 0 +
STACK CFI INIT f8f4 78 .cfa: sp 0 +
STACK CFI f8f8 .cfa: sp 48 +
STACK CFI f904 .cfa: x29 48 + x19: .cfa -8 + ^ x20: .cfa -16 + ^ x21: .cfa -32 + ^ .ra: .cfa -40 + ^ x29: .cfa -48 + ^
STACK CFI f94c .cfa: sp 48 +
STACK CFI f958 .cfa: sp 0 +
STACK CFI f95c .cfa: sp 48 +
STACK CFI f968 .cfa: sp 0 +
STACK CFI INIT f96c 78 .cfa: sp 0 +
STACK CFI f970 .cfa: sp 48 +
STACK CFI f97c .cfa: x29 48 + x19: .cfa -8 + ^ x20: .cfa -16 + ^ x21: .cfa -32 + ^ .ra: .cfa -40 + ^ x29: .cfa -48 + ^
STACK CFI f9c4 .cfa: sp 48 +
STACK CFI f9d0 .cfa: sp 0 +
STACK CFI f9d4 .cfa: sp 48 +
STACK CFI f9e0 .cfa: sp 0 +
STACK CFI INIT fbb0 2b8 .cfa: sp 0 +
STACK CFI fbb4 .cfa: sp 80 +
STACK CFI fbc8 .cfa: x29 80 + x19: .cfa -8 + ^ x20: .cfa -16 + ^ x21: .cfa -24 + ^ x22: .cfa -32 + ^ x23: .cfa -40 + ^ x24: .cfa -48 + ^ x25: .cfa -64 + ^ .ra: .cfa -72 + ^ x29: .cfa -80 + ^
STACK CFI fd74 .cfa: sp 80 +
STACK CFI fd88 .cfa: sp 0 +
STACK CFI fd8c .cfa: x29 80 +
STACK CFI fe50 .cfa: sp 80 +
STACK CFI fe64 .cfa: sp 0 +
STACK CFI INIT fe68 80 .cfa: sp 0 +
STACK CFI fe6c .cfa: sp 48 +
STACK CFI fe78 .cfa: x29 48 + x19: .cfa -8 + ^ x20: .cfa -16 + ^ x21: .cfa -32 + ^ .ra: .cfa -40 + ^ x29: .cfa -48 + ^
STACK CFI fec8 .cfa: sp 48 +
STACK CFI fed4 .cfa: sp 0 +
STACK CFI fed8 .cfa: sp 48 +
STACK CFI fee4 .cfa: sp 0 +
STACK CFI INIT fee8 80 .cfa: sp 0 +
STACK CFI feec .cfa: sp 48 +
STACK CFI fef8 .cfa: x29 48 + x19: .cfa -8 + ^ x20: .cfa -16 + ^ x21: .cfa -32 + ^ .ra: .cfa -40 + ^ x29: .cfa -48 + ^
STACK CFI ff48 .cfa: sp 48 +
STACK CFI ff54 .cfa: sp 0 +
STACK CFI ff58 .cfa: sp 48 +
STACK CFI ff64 .cfa: sp 0 +
STACK CFI INIT 10108 2b8 .cfa: sp 0 +
STACK CFI INIT 103c0 1bc .cfa: sp 0 +
STACK CFI 103c4 .cfa: sp 64 +
STACK CFI 103d4 .cfa: x29 64 + x19: .cfa -8 + ^ x20: .cfa -16 + ^ x21: .cfa -24 + ^ x22: .cfa -32 + ^ x23: .cfa -48 + ^ .ra: .cfa -56 + ^ x29: .cfa -64 + ^
STACK CFI 104d8 .cfa: sp 64 +
STACK CFI 104e8 .cfa: sp 0 +
STACK CFI 104ec .cfa: x29 64 +
STACK CFI INIT 1057c 80 .cfa: sp 0 +
STACK CFI 10580 .cfa: sp 48 +
STACK CFI 1058c .cfa: x29 48 + x19: .cfa -8 + ^ x20: .cfa -16 + ^ x21: .cfa -32 + ^ .ra: .cfa -40 + ^ x29: .cfa -48 + ^
STACK CFI 105dc .cfa: sp 48 +
STACK CFI 105e8 .cfa: sp 0 +
STACK CFI 105ec .cfa: sp 48 +
STACK CFI 105f8 .cfa: sp 0 +
STACK CFI INIT 105fc 98 .cfa: sp 0 +
STACK CFI 10604 .cfa: sp 48 +
STACK CFI 10610 .cfa: x29 48 + x19: .cfa -8 + ^ x20: .cfa -16 + ^ x21: .cfa -32 + ^ .ra: .cfa -40 + ^ x29: .cfa -48 + ^
STACK CFI 10660 .cfa: sp 0 + x19: x19 x20: x20 x21: x21 .ra: x30 x29: x29
STACK CFI 10664 .cfa: x29 48 + x19: .cfa -8 + ^ x20: .cfa -16 + ^ x21: .cfa -32 + ^ .ra: .cfa -40 + ^ x29: .cfa -48 + ^
STACK CFI 10684 .cfa: sp 48 +
STACK CFI 10690 .cfa: sp 0 +
STACK CFI INIT 10694 54 .cfa: sp 0 +
STACK CFI 1069c .cfa: sp 32 +
STACK CFI 106a4 .cfa: x29 32 + x19: .cfa -8 + ^ x20: .cfa -16 + ^ .ra: .cfa -24 + ^ x29: .cfa -32 + ^
STACK CFI 106dc .cfa: sp 32 +
STACK CFI 106e4 .cfa: sp 0 +
STACK CFI INIT 106e8 54 .cfa: sp 0 +
STACK CFI 106f0 .cfa: sp 32 +
STACK CFI 106f8 .cfa: x29 32 + x19: .cfa -8 + ^ x20: .cfa -16 + ^ .ra: .cfa -24 + ^ x29: .cfa -32 + ^
STACK CFI 10730 .cfa: sp 32 +
STACK CFI 10738 .cfa: sp 0 +
STACK CFI INIT 107e4 54 .cfa: sp 0 +
STACK CFI 107ec .cfa: sp 32 +
STACK CFI 107f4 .cfa: x29 32 + x19: .cfa -8 + ^ x20: .cfa -16 + ^ .ra: .cfa -24 + ^ x29: .cfa -32 + ^
STACK CFI 1082c .cfa: sp 32 +
STACK CFI 10834 .cfa: sp 0 +
STACK CFI INIT 10838 a8 .cfa: sp 0 +
STACK CFI 10840 .cfa: sp 48 +
STACK CFI 1084c .cfa: x29 48 + x19: .cfa -8 + ^ x20: .cfa -16 + ^ x21: .cfa -24 + ^ x22: .cfa -32 + ^ .ra: .cfa -40 + ^ x29: .cfa -48 + ^
STACK CFI 108d0 .cfa: sp 48 +
STACK CFI 108dc .cfa: sp 0 +
STACK CFI INIT 108e0 54 .cfa: sp 0 +
STACK CFI 108e8 .cfa: sp 32 +
STACK CFI 108f0 .cfa: x29 32 + x19: .cfa -8 + ^ x20: .cfa -16 + ^ .ra: .cfa -24 + ^ x29: .cfa -32 + ^
STACK CFI 10928 .cfa: sp 32 +
STACK CFI 10930 .cfa: sp 0 +
STACK CFI INIT 10934 50 .cfa: sp 0 +
STACK CFI 10938 .cfa: sp 32 +
STACK CFI 10940 .cfa: x29 32 + x19: .cfa -16 + ^ .ra: .cfa -24 + ^ x29: .cfa -32 + ^
STACK CFI 10958 .cfa: sp 32 +
STACK CFI 10960 .cfa: sp 0 +
STACK CFI 10964 .cfa: x29 32 +
STACK CFI 10978 .cfa: sp 32 +
STACK CFI 10980 .cfa: sp 0 +
STACK CFI INIT 10984 64 .cfa: sp 0 +
STACK CFI 10988 .cfa: sp 32 +
STACK CFI 10990 .cfa: x29 32 + x19: .cfa -16 + ^ .ra: .cfa -24 + ^ x29: .cfa -32 + ^
STACK CFI 109bc .cfa: sp 32 +
STACK CFI 109c4 .cfa: sp 0 +
STACK CFI 109c8 .cfa: x29 32 +
STACK CFI 109dc .cfa: sp 32 +
STACK CFI 109e4 .cfa: sp 0 +
STACK CFI INIT 109e8 114 .cfa: sp 0 +
STACK CFI 109ec .cfa: sp 80 +
STACK CFI 109fc .cfa: x29 48 + x19: .cfa -8 + ^ x20: .cfa -16 + ^ x21: .cfa -24 + ^ x22: .cfa -32 + ^ .ra: .cfa -40 + ^ x29: .cfa -48 + ^
STACK CFI 10ae4 .cfa: sp 80 +
STACK CFI 10af4 .cfa: sp 0 +
STACK CFI 10af8 .cfa: x29 48 +
STACK CFI INIT 10afc f8 .cfa: sp 0 +
STACK CFI 10b00 .cfa: sp 64 +
STACK CFI 10b10 .cfa: x29 64 + x19: .cfa -8 + ^ x20: .cfa -16 + ^ x21: .cfa -24 + ^ x22: .cfa -32 + ^ x23: .cfa -48 + ^ .ra: .cfa -56 + ^ x29: .cfa -64 + ^
STACK CFI 10b6c .cfa: sp 64 +
STACK CFI 10b7c .cfa: sp 0 +
STACK CFI 10b80 .cfa: x29 64 +
STACK CFI 10b9c .cfa: sp 64 +
STACK CFI 10bac .cfa: sp 0 +
STACK CFI 10bb0 .cfa: x29 64 +
STACK CFI 10be0 .cfa: sp 64 +
STACK CFI 10bf0 .cfa: sp 0 +
STACK CFI INIT 10bf4 1b0 .cfa: sp 0 +
STACK CFI INIT 10da4 3c .cfa: sp 0 +
STACK CFI 10da8 .cfa: sp 32 +
STACK CFI 10db0 .cfa: x29 32 + x19: .cfa -16 + ^ .ra: .cfa -24 + ^ x29: .cfa -32 + ^
STACK CFI 10dbc .cfa: sp 32 +
STACK CFI 10dc4 .cfa: sp 0 +
STACK CFI 10dc8 .cfa: x29 32 +
STACK CFI 10dd4 .cfa: sp 32 +
STACK CFI 10ddc .cfa: sp 0 +
STACK CFI INIT 10de0 4c .cfa: sp 0 +
STACK CFI 10de4 .cfa: sp 32 +
STACK CFI 10dec .cfa: x29 32 + x19: .cfa -8 + ^ x20: .cfa -16 + ^ .ra: .cfa -24 + ^ x29: .cfa -32 + ^
STACK CFI 10e14 .cfa: sp 32 +
STACK CFI 10e1c .cfa: sp 0 +
STACK CFI 10e20 .cfa: sp 32 +
STACK CFI 10e28 .cfa: sp 0 +
STACK CFI INIT 1104c 64 .cfa: sp 0 +
STACK CFI 11050 .cfa: sp 32 +
STACK CFI 11058 .cfa: x29 32 + x19: .cfa -16 + ^ .ra: .cfa -24 + ^ x29: .cfa -32 + ^
STACK CFI 11084 .cfa: sp 32 +
STACK CFI 1108c .cfa: sp 0 +
STACK CFI 11090 .cfa: x29 32 +
STACK CFI 110a4 .cfa: sp 32 +
STACK CFI 110ac .cfa: sp 0 +
STACK CFI INIT 110b0 24 .cfa: sp 0 +
STACK CFI 110b4 .cfa: sp 32 +
STACK CFI 110bc .cfa: x29 32 + x19: .cfa -16 + ^ .ra: .cfa -24 + ^ x29: .cfa -32 + ^
STACK CFI 110c8 .cfa: sp 32 +
STACK CFI 110d0 .cfa: sp 0 +
STACK CFI INIT 110d4 24 .cfa: sp 0 +
STACK CFI 110d8 .cfa: sp 32 +
STACK CFI 110e0 .cfa: x29 32 + x19: .cfa -16 + ^ .ra: .cfa -24 + ^ x29: .cfa -32 + ^
STACK CFI 110ec .cfa: sp 32 +
STACK CFI 110f4 .cfa: sp 0 +
STACK CFI INIT 110f8 8 .cfa: sp 0 +
STACK CFI INIT 11100 24 .cfa: sp 0 +
STACK CFI 11104 .cfa: sp 32 +
STACK CFI 1110c .cfa: x29 32 + x19: .cfa -16 + ^ .ra: .cfa -24 + ^ x29: .cfa -32 + ^
STACK CFI 11118 .cfa: sp 32 +
STACK CFI 11120 .cfa: sp 0 +
STACK CFI INIT 11124 28 .cfa: sp 0 +
STACK CFI 11128 .cfa: sp 32 +
STACK CFI 11130 .cfa: x29 32 + x19: .cfa -16 + ^ .ra: .cfa -24 + ^ x29: .cfa -32 + ^
STACK CFI 11140 .cfa: sp 32 +
STACK CFI 11148 .cfa: sp 0 +
STACK CFI INIT 120e0 8 .cfa: sp 0 +
STACK CFI INIT 120e8 24 .cfa: sp 0 +
STACK CFI 120ec .cfa: sp 32 +
STACK CFI 120f4 .cfa: x29 32 + x19: .cfa -16 + ^ .ra: .cfa -24 + ^ x29: .cfa -32 + ^
STACK CFI 12100 .cfa: sp 32 +
STACK CFI 12108 .cfa: sp 0 +
STACK CFI INIT 1210c 28 .cfa: sp 0 +
STACK CFI 12110 .cfa: sp 32 +
STACK CFI 12118 .cfa: x29 32 + x19: .cfa -16 + ^ .ra: .cfa -24 + ^ x29: .cfa -32 + ^
STACK CFI 12128 .cfa: sp 32 +
STACK CFI 12130 .cfa: sp 0 +
STACK CFI INIT 12414 8 .cfa: sp 0 +
STACK CFI INIT 12710 8 .cfa: sp 0 +
STACK CFI INIT 12980 8 .cfa: sp 0 +
STACK CFI INIT 12bd4 4 .cfa: sp 0 +
STACK CFI INIT 12bd8 8 .cfa: sp 0 +
STACK CFI INIT 12be0 8 .cfa: sp 0 +
STACK CFI INIT 12be8 4 .cfa: sp 0 +
STACK CFI INIT 133f4 8 .cfa: sp 0 +
STACK CFI INIT 133fc 4 .cfa: sp 0 +
STACK CFI INIT 13400 4 .cfa: sp 0 +
STACK CFI INIT 13404 4 .cfa: sp 0 +
STACK CFI INIT 13408 4 .cfa: sp 0 +
STACK CFI INIT 1340c 4 .cfa: sp 0 +
STACK CFI INIT 140d8 4 .cfa: sp 0 +
STACK CFI INIT 140dc 14 .cfa: sp 0 +
STACK CFI INIT c110 bd4 .cfa: sp 0 +
STACK CFI c114 .cfa: sp 240 +
STACK CFI c130 .cfa: x29 96 + x19: .cfa -8 + ^ x20: .cfa -16 + ^ x21: .cfa -24 + ^ x22: .cfa -32 + ^ x23: .cfa -40 + ^ x24: .cfa -48 + ^ x25: .cfa -56 + ^ x26: .cfa -64 + ^ x27: .cfa -72 + ^ x28: .cfa -80 + ^ .ra: .cfa -88 + ^ x29: .cfa -96 + ^
STACK CFI c50c .cfa: sp 240 +
STACK CFI c528 .cfa: sp 0 +
STACK CFI c52c .cfa: x29 96 +
STACK CFI cb8c .cfa: sp 240 +
STACK CFI cba8 .cfa: sp 0 +
STACK CFI cbac .cfa: x29 96 +
STACK CFI INIT ccfc 410 .cfa: sp 0 +
STACK CFI cd00 .cfa: sp 224 +
STACK CFI cd1c .cfa: x29 96 + x19: .cfa -8 + ^ x20: .cfa -16 + ^ x21: .cfa -24 + ^ x22: .cfa -32 + ^ x23: .cfa -40 + ^ x24: .cfa -48 + ^ x25: .cfa -56 + ^ x26: .cfa -64 + ^ x27: .cfa -80 + ^ .ra: .cfa -88 + ^ x29: .cfa -96 + ^
STACK CFI cff8 .cfa: sp 224 +
STACK CFI d014 .cfa: sp 0 +
STACK CFI d018 .cfa: x29 96 +
STACK CFI INIT d15c 74 .cfa: sp 0 +
STACK CFI d160 .cfa: sp 48 +
STACK CFI d16c .cfa: x29 32 + x19: .cfa -8 + ^ x20: .cfa -16 + ^ .ra: .cfa -24 + ^ x29: .cfa -32 + ^
STACK CFI d1b8 .cfa: sp 48 +
STACK CFI d1c4 .cfa: sp 0 +
STACK CFI d1c8 .cfa: x29 32 +
STACK CFI INIT d260 154 .cfa: sp 0 +
STACK CFI d264 .cfa: sp 384 +
STACK CFI d278 .cfa: x29 64 + x19: .cfa -8 + ^ x20: .cfa -16 + ^ x21: .cfa -24 + ^ x22: .cfa -32 + ^ x23: .cfa -40 + ^ x28: .cfa -48 + ^ .ra: .cfa -56 + ^ x29: .cfa -64 + ^
STACK CFI d35c .cfa: sp 384 +
STACK CFI d370 .cfa: sp 0 +
STACK CFI d374 .cfa: x29 64 +
STACK CFI INIT d3e8 12c .cfa: sp 0 +
STACK CFI d3ec .cfa: sp 80 +
STACK CFI d400 .cfa: x29 80 + x19: .cfa -8 + ^ x20: .cfa -16 + ^ x21: .cfa -24 + ^ x22: .cfa -32 + ^ x23: .cfa -40 + ^ x24: .cfa -48 + ^ x25: .cfa -56 + ^ x26: .cfa -64 + ^ .ra: .cfa -72 + ^ x29: .cfa -80 + ^
STACK CFI d4c8 .cfa: sp 80 +
STACK CFI d4dc .cfa: sp 0 +
STACK CFI d4e0 .cfa: x29 80 +
STACK CFI INIT d5b8 1a4 .cfa: sp 0 +
STACK CFI d5bc .cfa: sp 112 +
STACK CFI d5d4 .cfa: x29 80 + x19: .cfa -8 + ^ x20: .cfa -16 + ^ x21: .cfa -24 + ^ x22: .cfa -32 + ^ x23: .cfa -40 + ^ x24: .cfa -48 + ^ x25: .cfa -56 + ^ x26: .cfa -64 + ^ .ra: .cfa -72 + ^ x29: .cfa -80 + ^
STACK CFI d6c4 .cfa: sp 112 +
STACK CFI d6dc .cfa: sp 0 +
STACK CFI d6e0 .cfa: x29 80 +
STACK CFI INIT d75c 1dc .cfa: sp 0 +
STACK CFI d760 .cfa: sp 128 +
STACK CFI d77c .cfa: x29 96 + x19: .cfa -8 + ^ x20: .cfa -16 + ^ x21: .cfa -24 + ^ x22: .cfa -32 + ^ x23: .cfa -40 + ^ x24: .cfa -48 + ^ x25: .cfa -56 + ^ x26: .cfa -64 + ^ x27: .cfa -80 + ^ .ra: .cfa -88 + ^ x29: .cfa -96 + ^
STACK CFI d8e8 .cfa: sp 128 +
STACK CFI d904 .cfa: sp 0 +
STACK CFI d908 .cfa: x29 96 +
STACK CFI INIT d94c 50 .cfa: sp 0 +
STACK CFI d950 .cfa: sp 32 +
STACK CFI d958 .cfa: x29 32 + x19: .cfa -8 + ^ x20: .cfa -16 + ^ .ra: .cfa -24 + ^ x29: .cfa -32 + ^
STACK CFI INIT da00 178 .cfa: sp 0 +
STACK CFI da04 .cfa: sp 80 +
STACK CFI da18 .cfa: x29 80 + x19: .cfa -8 + ^ x20: .cfa -16 + ^ x21: .cfa -24 + ^ x22: .cfa -32 + ^ x23: .cfa -40 + ^ x24: .cfa -48 + ^ x25: .cfa -64 + ^ .ra: .cfa -72 + ^ x29: .cfa -80 + ^
STACK CFI db44 .cfa: sp 80 +
STACK CFI db58 .cfa: sp 0 +
STACK CFI db5c .cfa: x29 80 +
STACK CFI INIT df50 c8 .cfa: sp 0 +
STACK CFI df54 .cfa: sp 32 +
STACK CFI df5c .cfa: x29 32 + x19: .cfa -8 + ^ x20: .cfa -16 + ^ .ra: .cfa -24 + ^ x29: .cfa -32 + ^
STACK CFI df90 .cfa: sp 32 +
STACK CFI df98 .cfa: sp 0 +
STACK CFI df9c .cfa: x29 32 +
STACK CFI dfa0 .cfa: sp 32 +
STACK CFI dfa8 .cfa: sp 0 +
STACK CFI dfac .cfa: x29 32 +
STACK CFI INIT e018 7b0 .cfa: sp 0 +
STACK CFI e01c .cfa: sp 80 +
STACK CFI e030 .cfa: x29 80 + x19: .cfa -8 + ^ x20: .cfa -16 + ^ x21: .cfa -24 + ^ x22: .cfa -32 + ^ x23: .cfa -40 + ^ x24: .cfa -48 + ^ x25: .cfa -56 + ^ x26: .cfa -64 + ^ .ra: .cfa -72 + ^ x29: .cfa -80 + ^
STACK CFI e44c .cfa: sp 80 +
STACK CFI e460 .cfa: sp 0 +
STACK CFI e464 .cfa: x29 80 +
STACK CFI INIT e7c8 578 .cfa: sp 0 +
STACK CFI e7cc .cfa: sp 96 +
STACK CFI e7e0 .cfa: x29 64 + x19: .cfa -8 + ^ x20: .cfa -16 + ^ x21: .cfa -24 + ^ x22: .cfa -32 + ^ x23: .cfa -48 + ^ .ra: .cfa -56 + ^ x29: .cfa -64 + ^
STACK CFI eb80 .cfa: sp 96 +
STACK CFI eb94 .cfa: sp 0 +
STACK CFI eb98 .cfa: x29 64 +
STACK CFI INIT eeb4 1c .cfa: sp 0 +
STACK CFI eeb8 .cfa: sp 16 +
STACK CFI eebc .cfa: x29 16 + .ra: .cfa -8 + ^ x29: .cfa -16 + ^
STACK CFI eec4 .cfa: sp 16 +
STACK CFI eec8 .cfa: sp 0 +
STACK CFI eecc .cfa: x29 16 +
STACK CFI INIT f1dc 3f8 .cfa: sp 0 +
STACK CFI f1e0 .cfa: sp 48 +
STACK CFI f1ec .cfa: x29 48 + x19: .cfa -8 + ^ x20: .cfa -16 + ^ x21: .cfa -24 + ^ x22: .cfa -32 + ^ .ra: .cfa -40 + ^ x29: .cfa -48 + ^
STACK CFI f554 .cfa: sp 48 +
STACK CFI f560 .cfa: sp 0 +
STACK CFI f564 .cfa: x29 48 +
STACK CFI f5b4 .cfa: sp 48 +
STACK CFI f5c0 .cfa: sp 0 +
STACK CFI f5c4 .cfa: x29 48 +
STACK CFI INIT f64c 1c .cfa: sp 0 +
STACK CFI f650 .cfa: sp 16 +
STACK CFI f654 .cfa: x29 16 + .ra: .cfa -8 + ^ x29: .cfa -16 + ^
STACK CFI f65c .cfa: sp 16 +
STACK CFI f660 .cfa: sp 0 +
STACK CFI f664 .cfa: x29 16 +
STACK CFI INIT f6f8 98 .cfa: sp 0 +
STACK CFI f6fc .cfa: sp 48 +
STACK CFI f708 .cfa: x29 48 + x19: .cfa -8 + ^ x20: .cfa -16 + ^ x21: .cfa -32 + ^ .ra: .cfa -40 + ^ x29: .cfa -48 + ^
STACK CFI f768 .cfa: sp 48 +
STACK CFI f774 .cfa: sp 0 +
STACK CFI f778 .cfa: sp 48 +
STACK CFI f784 .cfa: sp 0 +
STACK CFI f788 .cfa: x29 48 +
STACK CFI INIT f7cc 1c .cfa: sp 0 +
STACK CFI f7d0 .cfa: sp 16 +
STACK CFI f7d4 .cfa: x29 16 + .ra: .cfa -8 + ^ x29: .cfa -16 + ^
STACK CFI f7dc .cfa: sp 16 +
STACK CFI f7e0 .cfa: sp 0 +
STACK CFI f7e4 .cfa: x29 16 +
STACK CFI INIT f7e8 1c .cfa: sp 0 +
STACK CFI f7ec .cfa: sp 16 +
STACK CFI f7f0 .cfa: x29 16 + .ra: .cfa -8 + ^ x29: .cfa -16 + ^
STACK CFI f7f8 .cfa: sp 16 +
STACK CFI f7fc .cfa: sp 0 +
STACK CFI f800 .cfa: x29 16 +
STACK CFI INIT f9e4 1cc .cfa: sp 0 +
STACK CFI f9e8 .cfa: sp 160 +
STACK CFI fa00 .cfa: x29 80 + x19: .cfa -8 + ^ x20: .cfa -16 + ^ x21: .cfa -24 + ^ x22: .cfa -32 + ^ x23: .cfa -40 + ^ x24: .cfa -48 + ^ x25: .cfa -56 + ^ x26: .cfa -64 + ^ .ra: .cfa -72 + ^ x29: .cfa -80 + ^
STACK CFI fb5c .cfa: sp 160 +
STACK CFI fb74 .cfa: sp 0 +
STACK CFI fb78 .cfa: x29 80 +
STACK CFI INIT ff68 1a0 .cfa: sp 0 +
STACK CFI ff6c .cfa: sp 64 +
STACK CFI ff7c .cfa: x29 64 + x19: .cfa -8 + ^ x20: .cfa -16 + ^ x21: .cfa -24 + ^ x22: .cfa -32 + ^ x23: .cfa -48 + ^ .ra: .cfa -56 + ^ x29: .cfa -64 + ^
STACK CFI 10040 .cfa: sp 64 +
STACK CFI 10050 .cfa: sp 0 +
STACK CFI 10054 .cfa: x29 64 +
STACK CFI INIT 1073c a8 .cfa: sp 0 +
STACK CFI 10740 .cfa: sp 64 +
STACK CFI 10750 .cfa: x29 64 + x19: .cfa -8 + ^ x20: .cfa -16 + ^ x21: .cfa -24 + ^ x22: .cfa -32 + ^ x23: .cfa -40 + ^ x24: .cfa -48 + ^ .ra: .cfa -56 + ^ x29: .cfa -64 + ^
STACK CFI 10774 .cfa: sp 64 +
STACK CFI 10784 .cfa: sp 0 +
STACK CFI 10788 .cfa: x29 64 +
STACK CFI INIT 10e2c 134 .cfa: sp 0 +
STACK CFI 10e30 .cfa: sp 80 +
STACK CFI 10e3c .cfa: x29 32 + x19: .cfa -8 + ^ x20: .cfa -16 + ^ .ra: .cfa -24 + ^ x29: .cfa -32 + ^
STACK CFI 10e6c .cfa: sp 80 +
STACK CFI 10e78 .cfa: sp 0 +
STACK CFI 10e7c .cfa: x29 32 +
STACK CFI INIT 10f60 78 .cfa: sp 0 +
STACK CFI 10f64 .cfa: sp 32 +
STACK CFI 10f6c .cfa: x29 32 + x19: .cfa -8 + ^ x20: .cfa -16 + ^ .ra: .cfa -24 + ^ x29: .cfa -32 + ^
STACK CFI 10f78 .cfa: sp 32 +
STACK CFI 10f80 .cfa: sp 0 +
STACK CFI 10f84 .cfa: x29 32 +
STACK CFI INIT 10fd8 74 .cfa: sp 0 +
STACK CFI 10fdc .cfa: sp 48 +
STACK CFI 10fe8 .cfa: x29 32 + x19: .cfa -8 + ^ x20: .cfa -16 + ^ .ra: .cfa -24 + ^ x29: .cfa -32 + ^
STACK CFI 11034 .cfa: sp 48 +
STACK CFI 11040 .cfa: sp 0 +
STACK CFI 11044 .cfa: x29 32 +
STACK CFI INIT 1114c f94 .cfa: sp 0 +
STACK CFI 11150 .cfa: sp 160 +
STACK CFI 1116c .cfa: x29 96 + x19: .cfa -8 + ^ x20: .cfa -16 + ^ x21: .cfa -24 + ^ x22: .cfa -32 + ^ x23: .cfa -40 + ^ x24: .cfa -48 + ^ x25: .cfa -56 + ^ x26: .cfa -64 + ^ x27: .cfa -72 + ^ x28: .cfa -80 + ^ .ra: .cfa -88 + ^ x29: .cfa -96 + ^
STACK CFI 11bb0 .cfa: sp 160 +
STACK CFI 11bcc .cfa: sp 0 +
STACK CFI 11bd0 .cfa: x29 96 +
STACK CFI INIT 12134 16c .cfa: sp 0 +
STACK CFI 12138 .cfa: sp 160 +
STACK CFI 12150 .cfa: x29 80 + x19: .cfa -8 + ^ x20: .cfa -16 + ^ x21: .cfa -24 + ^ x22: .cfa -32 + ^ x23: .cfa -40 + ^ x24: .cfa -48 + ^ x25: .cfa -56 + ^ x26: .cfa -64 + ^ .ra: .cfa -72 + ^ x29: .cfa -80 + ^
STACK CFI 121b8 .cfa: sp 160 +
STACK CFI 121d0 .cfa: sp 0 +
STACK CFI 121d4 .cfa: x29 80 +
STACK CFI INIT 122a0 174 .cfa: sp 0 +
STACK CFI 122a4 .cfa: sp 96 +
STACK CFI 122b4 .cfa: x29 48 + x19: .cfa -8 + ^ x20: .cfa -16 + ^ x21: .cfa -24 + ^ x22: .cfa -32 + ^ .ra: .cfa -40 + ^ x29: .cfa -48 + ^
STACK CFI 123b4 .cfa: sp 96 +
STACK CFI 123c4 .cfa: sp 0 +
STACK CFI 123c8 .cfa: x29 48 +
STACK CFI INIT 1241c 17c .cfa: sp 0 +
STACK CFI 12420 .cfa: sp 176 +
STACK CFI 1243c .cfa: x29 80 + x19: .cfa -8 + ^ x20: .cfa -16 + ^ x21: .cfa -24 + ^ x22: .cfa -32 + ^ x23: .cfa -40 + ^ x24: .cfa -48 + ^ x25: .cfa -56 + ^ x26: .cfa -64 + ^ .ra: .cfa -72 + ^ x29: .cfa -80 + ^ v8: .cfa -96 + ^
STACK CFI 124ac .cfa: sp 176 +
STACK CFI 124c8 .cfa: sp 0 +
STACK CFI 124cc .cfa: x29 80 +
STACK CFI INIT 12598 178 .cfa: sp 0 +
STACK CFI 1259c .cfa: sp 96 +
STACK CFI 125ac .cfa: x29 48 + x19: .cfa -8 + ^ x20: .cfa -16 + ^ x21: .cfa -24 + ^ x22: .cfa -32 + ^ .ra: .cfa -40 + ^ x29: .cfa -48 + ^
STACK CFI 126b0 .cfa: sp 96 +
STACK CFI 126c0 .cfa: sp 0 +
STACK CFI 126c4 .cfa: x29 48 +
STACK CFI INIT 12718 15c .cfa: sp 0 +
STACK CFI 1271c .cfa: sp 144 +
STACK CFI 12734 .cfa: x29 56 + x19: .cfa -8 + ^ x20: .cfa -16 + ^ x21: .cfa -24 + ^ x22: .cfa -32 + ^ x23: .cfa -40 + ^ .ra: .cfa -48 + ^ x29: .cfa -56 + ^ v8: .cfa -64 + ^
STACK CFI 1278c .cfa: sp 144 +
STACK CFI 127a4 .cfa: sp 0 +
STACK CFI 127a8 .cfa: x29 56 +
STACK CFI INIT 12874 10c .cfa: sp 0 +
STACK CFI 12878 .cfa: sp 64 +
STACK CFI 12888 .cfa: x29 48 + x19: .cfa -8 + ^ x20: .cfa -16 + ^ x21: .cfa -24 + ^ x22: .cfa -32 + ^ .ra: .cfa -40 + ^ x29: .cfa -48 + ^
STACK CFI 12938 .cfa: sp 64 +
STACK CFI 12948 .cfa: sp 0 +
STACK CFI 1294c .cfa: x29 48 +
STACK CFI INIT 12988 14c .cfa: sp 0 +
STACK CFI 1298c .cfa: sp 144 +
STACK CFI 129a0 .cfa: x29 64 + x19: .cfa -8 + ^ x20: .cfa -16 + ^ x21: .cfa -24 + ^ x22: .cfa -32 + ^ x23: .cfa -48 + ^ .ra: .cfa -56 + ^ x29: .cfa -64 + ^
STACK CFI 129f0 .cfa: sp 144 +
STACK CFI 12a04 .cfa: sp 0 +
STACK CFI 12a08 .cfa: x29 64 +
STACK CFI INIT 12ad4 100 .cfa: sp 0 +
STACK CFI 12ad8 .cfa: sp 64 +
STACK CFI 12ae8 .cfa: x29 48 + x19: .cfa -8 + ^ x20: .cfa -16 + ^ x21: .cfa -24 + ^ x22: .cfa -32 + ^ .ra: .cfa -40 + ^ x29: .cfa -48 + ^
STACK CFI 12b8c .cfa: sp 64 +
STACK CFI 12b9c .cfa: sp 0 +
STACK CFI 12ba0 .cfa: x29 48 +
STACK CFI INIT 12bec 164 .cfa: sp 0 +
STACK CFI 12bf0 .cfa: sp 160 +
STACK CFI 12c08 .cfa: x29 80 + x19: .cfa -8 + ^ x20: .cfa -16 + ^ x21: .cfa -24 + ^ x22: .cfa -32 + ^ x23: .cfa -40 + ^ x24: .cfa -48 + ^ x25: .cfa -64 + ^ .ra: .cfa -72 + ^ x29: .cfa -80 + ^
STACK CFI 12c68 .cfa: sp 160 +
STACK CFI 12c80 .cfa: sp 0 +
STACK CFI 12c84 .cfa: x29 80 +
STACK CFI INIT 12d50 164 .cfa: sp 0 +
STACK CFI 12d54 .cfa: sp 64 +
STACK CFI 12d64 .cfa: x29 48 + x19: .cfa -8 + ^ x20: .cfa -16 + ^ x21: .cfa -24 + ^ x22: .cfa -32 + ^ .ra: .cfa -40 + ^ x29: .cfa -48 + ^
STACK CFI 12e54 .cfa: sp 64 +
STACK CFI 12e64 .cfa: sp 0 +
STACK CFI 12e68 .cfa: x29 48 +
STACK CFI INIT 12eb4 17c .cfa: sp 0 +
STACK CFI 12eb8 .cfa: sp 176 +
STACK CFI 12ed4 .cfa: x29 96 + x19: .cfa -8 + ^ x20: .cfa -16 + ^ x21: .cfa -24 + ^ x22: .cfa -32 + ^ x23: .cfa -40 + ^ x24: .cfa -48 + ^ x25: .cfa -56 + ^ x26: .cfa -64 + ^ x27: .cfa -80 + ^ .ra: .cfa -88 + ^ x29: .cfa -96 + ^
STACK CFI 12f44 .cfa: sp 176 +
STACK CFI 12f60 .cfa: sp 0 +
STACK CFI 12f64 .cfa: x29 96 +
STACK CFI INIT 13030 178 .cfa: sp 0 +
STACK CFI 13034 .cfa: sp 64 +
STACK CFI 13044 .cfa: x29 48 + x19: .cfa -8 + ^ x20: .cfa -16 + ^ x21: .cfa -24 + ^ x22: .cfa -32 + ^ .ra: .cfa -40 + ^ x29: .cfa -48 + ^
STACK CFI 13148 .cfa: sp 64 +
STACK CFI 13158 .cfa: sp 0 +
STACK CFI 1315c .cfa: x29 48 +
STACK CFI INIT 131a8 14c .cfa: sp 0 +
STACK CFI 131ac .cfa: sp 144 +
STACK CFI 131c0 .cfa: x29 64 + x19: .cfa -8 + ^ x20: .cfa -16 + ^ x21: .cfa -24 + ^ x22: .cfa -32 + ^ x23: .cfa -48 + ^ .ra: .cfa -56 + ^ x29: .cfa -64 + ^
STACK CFI 13210 .cfa: sp 144 +
STACK CFI 13224 .cfa: sp 0 +
STACK CFI 13228 .cfa: x29 64 +
STACK CFI INIT 132f4 100 .cfa: sp 0 +
STACK CFI 132f8 .cfa: sp 64 +
STACK CFI 13308 .cfa: x29 48 + x19: .cfa -8 + ^ x20: .cfa -16 + ^ x21: .cfa -24 + ^ x22: .cfa -32 + ^ .ra: .cfa -40 + ^ x29: .cfa -48 + ^
STACK CFI 133ac .cfa: sp 64 +
STACK CFI 133bc .cfa: sp 0 +
STACK CFI 133c0 .cfa: x29 48 +
STACK CFI INIT 13410 278 .cfa: sp 0 +
STACK CFI 13414 .cfa: sp 128 +
STACK CFI 13428 .cfa: x29 64 + x19: .cfa -8 + ^ x20: .cfa -16 + ^ x21: .cfa -24 + ^ x22: .cfa -32 + ^ x23: .cfa -48 + ^ .ra: .cfa -56 + ^ x29: .cfa -64 + ^
STACK CFI 13534 .cfa: sp 128 +
STACK CFI 13548 .cfa: sp 0 +
STACK CFI 1354c .cfa: x29 64 +
STACK CFI INIT 13688 2c8 .cfa: sp 0 +
STACK CFI 1368c .cfa: sp 128 +
STACK CFI 136a0 .cfa: x29 64 + x19: .cfa -8 + ^ x20: .cfa -16 + ^ x21: .cfa -24 + ^ x22: .cfa -32 + ^ x23: .cfa -48 + ^ .ra: .cfa -56 + ^ x29: .cfa -64 + ^
STACK CFI 137fc .cfa: sp 128 +
STACK CFI 13810 .cfa: sp 0 +
STACK CFI 13814 .cfa: x29 64 +
STACK CFI INIT 13950 4cc .cfa: sp 0 +
STACK CFI 13954 .cfa: sp 128 +
STACK CFI 13968 .cfa: x29 64 + x19: .cfa -8 + ^ x20: .cfa -16 + ^ x21: .cfa -24 + ^ x22: .cfa -32 + ^ x23: .cfa -48 + ^ .ra: .cfa -56 + ^ x29: .cfa -64 + ^
STACK CFI 13c74 .cfa: sp 128 +
STACK CFI 13c88 .cfa: sp 0 +
STACK CFI 13c8c .cfa: x29 64 +
STACK CFI INIT 13e1c 154 .cfa: sp 0 +
STACK CFI 13e20 .cfa: sp 384 +
STACK CFI 13e34 .cfa: x29 64 + x19: .cfa -8 + ^ x20: .cfa -16 + ^ x21: .cfa -24 + ^ x22: .cfa -32 + ^ x23: .cfa -40 + ^ x28: .cfa -48 + ^ .ra: .cfa -56 + ^ x29: .cfa -64 + ^
STACK CFI 13f18 .cfa: sp 384 +
STACK CFI 13f2c .cfa: sp 0 +
STACK CFI 13f30 .cfa: x29 64 +
STACK CFI INIT 13f70 168 .cfa: sp 0 +
STACK CFI 13f74 .cfa: sp 384 +
STACK CFI 13f88 .cfa: x29 64 + x19: .cfa -8 + ^ x20: .cfa -16 + ^ x21: .cfa -24 + ^ x22: .cfa -32 + ^ x23: .cfa -40 + ^ x28: .cfa -48 + ^ .ra: .cfa -56 + ^ x29: .cfa -64 + ^
STACK CFI 14080 .cfa: sp 384 +
STACK CFI 14094 .cfa: sp 0 +
STACK CFI 14098 .cfa: x29 64 +
STACK CFI INIT 140f0 4e0 .cfa: sp 0 +
STACK CFI 140f4 .cfa: sp 64 +
STACK CFI 14104 .cfa: x29 64 + x19: .cfa -8 + ^ x20: .cfa -16 + ^ x21: .cfa -24 + ^ x22: .cfa -32 + ^ x23: .cfa -40 + ^ x24: .cfa -48 + ^ .ra: .cfa -56 + ^ x29: .cfa -64 + ^
STACK CFI 145a4 .cfa: sp 64 +
STACK CFI 145b4 .cfa: sp 0 +
STACK CFI 145b8 .cfa: x29 64 +
