MODULE Linux arm64 C8FACB056DA63A68EB7857D5CFF64A4B0 ml5.improved-paths.android64.so
INFO CODE_ID 05CBFAC8A66D683AEB7857D5CFF64A4B0D294D5F
INFO GENERATOR mozilla/dump_syms 2.3.4
PUBLIC 6270 0 __on_dlclose
PUBLIC 6280 0 __emutls_unregister_key
PUBLIC 6288 0 __on_dlclose_late
PUBLIC 6290 0 __atexit_handler_wrapper
PUBLIC 62a4 0 atexit
PUBLIC 62c0 0 pthread_atfork
PUBLIC 62d0 0 __aarch64_ldadd8_relax
PUBLIC 6300 0 init_have_lse_atomics
PUBLIC 6398 0 __init_cpu_features_constructor
PUBLIC 6934 0 __init_cpu_features
PUBLIC 69c0 0 __aarch64_ldadd8_acq_rel
PUBLIC 69f0 0 __cxx_global_var_init
PUBLIC 75c4 0 geode::modifier::ModifyBase<geode::modifier::ModifyDerive<ModdedGJPathsLayer, GJPathsLayer> >::~ModifyBase()
PUBLIC 75dc 0 geode::modifier::ModifyDerive<ModdedGJPathsLayer, GJPathsLayer>::apply()
PUBLIC 7b98 0 std::__ndk1::shared_ptr<geode::Hook>::~shared_ptr[abi:ne180000]()
PUBLIC 7be8 0 geode::impl::ResultData<geode::Hook*, std::__ndk1::basic_string<char, std::__ndk1::char_traits<char>, std::__ndk1::allocator<char> > >::~ResultData()
PUBLIC 7c5c 0 std::__ndk1::vector<std::__ndk1::basic_string<char, std::__ndk1::char_traits<char>, std::__ndk1::allocator<char> >, std::__ndk1::allocator<std::__ndk1::basic_string<char, std::__ndk1::char_traits<char>, std::__ndk1::allocator<char> > > >::~vector[abi:ne180000]()
PUBLIC 7cd8 0 geode::modifier::ModifyBase<geode::modifier::ModifyDerive<ModdedGJPathsLayer, GJPathsLayer> >::apply()
PUBLIC 7cdc 0 __clang_call_terminate
PUBLIC 7cec 0 _ZN5geode15UnwrapExceptionC2IRPNS_4HookEQsr4implE18IsStringStreamableIT_EEENS_4impl5OkTagEOS5_
PUBLIC 83e8 0 std::__ndk1::__throw_bad_variant_access[abi:ne180000]()
PUBLIC m 841c 0 std::__ndk1::basic_stringstream<char, std::__ndk1::char_traits<char>, std::__ndk1::allocator<char> >::~basic_stringstream()
PUBLIC 849c 0 geode::UnwrapException::~UnwrapException()
PUBLIC 84c0 0 std::__ndk1::basic_string<char, std::__ndk1::char_traits<char>, std::__ndk1::allocator<char> >::__throw_length_error[abi:ne180000]() const
PUBLIC 84d4 0 std::__ndk1::__throw_length_error[abi:ne180000](char const*)
PUBLIC 8524 0 std::length_error::length_error[abi:ne180000](char const*)
PUBLIC 8554 0 std::__throw_bad_array_new_length([abi:ne180000], void)
PUBLIC 8588 0 std::__ndk1::basic_string<char, std::__ndk1::char_traits<char>, std::__ndk1::allocator<char> >::__init_copy_ctor_external(char const*, unsigned long)
PUBLIC 8608 0 std::__ndk1::__split_buffer<std::__ndk1::basic_string<char, std::__ndk1::char_traits<char>, std::__ndk1::allocator<char> >, std::__ndk1::allocator<std::__ndk1::basic_string<char, std::__ndk1::char_traits<char>, std::__ndk1::allocator<char> > >&>::~__split_buffer()
PUBLIC 8670 0 std::__ndk1::vector<std::__ndk1::basic_string<char, std::__ndk1::char_traits<char>, std::__ndk1::allocator<char> >, std::__ndk1::allocator<std::__ndk1::basic_string<char, std::__ndk1::char_traits<char>, std::__ndk1::allocator<char> > > >::__throw_length_error[abi:ne180000]() const
PUBLIC 8684 0 std::__ndk1::__variant_detail::__visitation::__base::__dispatcher<(unsigned long)0>::__dispatch[abi:ne180000]<std::__ndk1::__variant_detail::__dtor<std::__ndk1::__variant_detail::__traits<geode::Hook*, std::__ndk1::basic_string<char, std::__ndk1::char_traits<char>, std::__ndk1::allocator<char> > >, (std::__ndk1::__variant_detail::_Trait)1>::__destroy[abi:ne180000]()::{lambda(auto:1&)#1}, std::__ndk1::__variant_detail::__base<(std::__ndk1::__variant_detail::__traits<geode::Hook*, std::__ndk1::basic_string<char, std::__ndk1::char_traits<char>, std::__ndk1::allocator<char> > >)1, geode::Hook, std::__ndk1::allocator<char> >&>(std::__ndk1::__variant_detail::__dtor<std::__ndk1::__variant_detail::__traits<geode::Hook*, std::__ndk1::basic_string<char, std::__ndk1::char_traits<char>, std::__ndk1::allocator<char> > >, (std::__ndk1::__variant_detail::_Trait)1>, std::__ndk1::__variant_detail::__base<(std::__ndk1::__variant_detail::__traits<geode::Hook*, std::__ndk1::basic_string<char, std::__ndk1::char_traits<char>, std::__ndk1::allocator<char> > >)1, geode::Hook, std::__ndk1::allocator<char> >&)
PUBLIC 8688 0 std::__ndk1::__variant_detail::__visitation::__base::__dispatcher<(unsigned long)1>::__dispatch[abi:ne180000]<std::__ndk1::__variant_detail::__dtor<std::__ndk1::__variant_detail::__traits<geode::Hook*, std::__ndk1::basic_string<char, std::__ndk1::char_traits<char>, std::__ndk1::allocator<char> > >, (std::__ndk1::__variant_detail::_Trait)1>::__destroy[abi:ne180000]()::{lambda(auto:1&)#1}, std::__ndk1::__variant_detail::__base<(std::__ndk1::__variant_detail::__traits<geode::Hook*, std::__ndk1::basic_string<char, std::__ndk1::char_traits<char>, std::__ndk1::allocator<char> > >)1, geode::Hook, std::__ndk1::allocator<char> >&>(std::__ndk1::__variant_detail::__dtor<std::__ndk1::__variant_detail::__traits<geode::Hook*, std::__ndk1::basic_string<char, std::__ndk1::char_traits<char>, std::__ndk1::allocator<char> > >, (std::__ndk1::__variant_detail::_Trait)1>, std::__ndk1::__variant_detail::__base<(std::__ndk1::__variant_detail::__traits<geode::Hook*, std::__ndk1::basic_string<char, std::__ndk1::char_traits<char>, std::__ndk1::allocator<char> > >)1, geode::Hook, std::__ndk1::allocator<char> >&)
PUBLIC 869c 0 std::__ndk1::__tree<std::__ndk1::__value_type<std::__ndk1::basic_string<char, std::__ndk1::char_traits<char>, std::__ndk1::allocator<char> >, std::__ndk1::shared_ptr<geode::Hook> >, std::__ndk1::__map_value_compare<std::__ndk1::basic_string<char, std::__ndk1::char_traits<char>, std::__ndk1::allocator<char> >, std::__ndk1::__value_type<std::__ndk1::basic_string<char, std::__ndk1::char_traits<char>, std::__ndk1::allocator<char> >, std::__ndk1::shared_ptr<geode::Hook> >, std::__ndk1::less<std::__ndk1::basic_string<char, std::__ndk1::char_traits<char>, std::__ndk1::allocator<char> > >, true>, std::__ndk1::allocator<std::__ndk1::__value_type<std::__ndk1::basic_string<char, std::__ndk1::char_traits<char>, std::__ndk1::allocator<char> >, std::__ndk1::shared_ptr<geode::Hook> > > >::destroy(std::__ndk1::__tree_node<std::__ndk1::__value_type<std::__ndk1::basic_string<char, std::__ndk1::char_traits<char>, std::__ndk1::allocator<char> >, std::__ndk1::shared_ptr<geode::Hook> >, void*>*)
PUBLIC 8720 0 geode::modifier::AsStaticFunction_init<ModdedGJPathsLayer, bool (ModdedGJPathsLayer::*)()>::Impl<bool (ModdedGJPathsLayer::*)()>::function(ModdedGJPathsLayer*)
PUBLIC 9aec 0 geode::addresser::Addresser::addressOfVirtual<bool, GJPathsLayer, >(bool (GJPathsLayer::*)())
PUBLIC 9b94 0 GJPathsLayer::GJPathsLayer(geode::ZeroConstructorType)
PUBLIC 9c20 0 std::__ndk1::shared_ptr<tulip::hook::CallingConvention>::~shared_ptr[abi:ne180000]()
PUBLIC 9c70 0 tulip::hook::HandlerMetadata::~HandlerMetadata()
PUBLIC m 9cd4 0 geodeImplicitEntry
PUBLIC 9d10 0 __udivti3
PUBLIC 9d1c 0 __udivmodti4
PUBLIC m 9f68 0 __eqtf2
PUBLIC a008 0 __unordtf2
PUBLIC a040 0 fmt::v11::detail::write_loc(fmt::v11::basic_appender<char>, fmt::v11::loc_value, fmt::v11::format_specs const&, fmt::v11::detail::locale_ref)
PUBLIC a2d4 0 fmt::v11::format_facet<std::__ndk1::locale>::~format_facet()
PUBLIC a350 0 fmt::v11::report_error(char const*)
PUBLIC a3a0 0 fmt::v11::format_error::runtime_error(char const*)
PUBLIC a3cc 0 fmt::v11::format_facet<std::__ndk1::locale>::do_put(fmt::v11::basic_appender<char>, fmt::v11::loc_value, fmt::v11::format_specs const&) const
PUBLIC ab8c 0 fmt::v11::detail::loc_writer<char>::~loc_writer()
PUBLIC abf0 0 fmt::v11::detail::vformat_to<char>(fmt::v11::detail::buffer<char>&, fmt::v11::basic_string_view<char>, fmt::v11::detail::vformat_args<char>::type, fmt::v11::detail::locale_ref)
PUBLIC b160 0 fmt::v11::detail::is_printable(unsigned int)
PUBLIC b388 0 fmt::v11::detail::dragonbox::to_decimal<float>(float)
PUBLIC b664 0 fmt::v11::detail::dragonbox::to_decimal<double>(double)
PUBLIC bba0 0 fmt::v11::basic_memory_buffer<char, (unsigned long)500, std::__ndk1::allocator<char> >::grow(fmt::v11::detail::buffer<char>&, unsigned long)
PUBLIC bc18 0 fmt::v11::format_facet<std::__ndk1::locale>::~format_facet()
PUBLIC bca4 0 fmt::v11::format_error::~format_error()
PUBLIC bcc8 0 fmt::v11::detail::copy_noinline<char, char const*, fmt::v11::basic_appender<char> >(char const*, char const*, fmt::v11::basic_appender<char>)
PUBLIC be18 0 fmt::v11::detail::default_arg_formatter<char>::operator()<bool>(bool)
PUBLIC be80 0 fmt::v11::detail::default_arg_formatter<char>::operator()<char>(char)
PUBLIC bf10 0 fmt::v11::detail::default_arg_formatter<char>::operator()<float>(float)
PUBLIC bffc 0 fmt::v11::detail::default_arg_formatter<char>::operator()<double>(double)
PUBLIC c0e8 0 fmt::v11::detail::default_arg_formatter<char>::operator()<char const*>(char const*)
PUBLIC c130 0 fmt::v11::detail::default_arg_formatter<char>::operator()<void const*>(void const*)
PUBLIC c1c8 0 _ZN3fmt3v116detail5writeIcNS0_14basic_appenderIcEEiTnNSt6__ndk19enable_ifIXaaaasr11is_integralIT1_EE5valuentsr3std7is_sameIS7_bEE5valuentsr3std7is_sameIS7_T_EE5valueEiE4typeELi0EEET0_SB_S7_
PUBLIC c428 0 fmt::v11::detail::copy_noinline<char, char*, fmt::v11::basic_appender<char> >(char*, char*, fmt::v11::basic_appender<char>)
PUBLIC c578 0 _ZN3fmt3v116detail5writeIcNS0_14basic_appenderIcEEjTnNSt6__ndk19enable_ifIXaaaasr11is_integralIT1_EE5valuentsr3std7is_sameIS7_bEE5valuentsr3std7is_sameIS7_T_EE5valueEiE4typeELi0EEET0_SB_S7_
PUBLIC c758 0 _ZN3fmt3v116detail5writeIcNS0_14basic_appenderIcEExTnNSt6__ndk19enable_ifIXaaaasr11is_integralIT1_EE5valuentsr3std7is_sameIS7_bEE5valuentsr3std7is_sameIS7_T_EE5valueEiE4typeELi0EEET0_SB_S7_
PUBLIC c9dc 0 _ZN3fmt3v116detail5writeIcNS0_14basic_appenderIcEEyTnNSt6__ndk19enable_ifIXaaaasr11is_integralIT1_EE5valuentsr3std7is_sameIS7_bEE5valuentsr3std7is_sameIS7_T_EE5valueEiE4typeELi0EEET0_SB_S7_
PUBLIC cbe4 0 _ZN3fmt3v116detail5writeIcNS0_14basic_appenderIcEEnTnNSt6__ndk19enable_ifIXaaaasr11is_integralIT1_EE5valuentsr3std7is_sameIS7_bEE5valuentsr3std7is_sameIS7_T_EE5valueEiE4typeELi0EEET0_SB_S7_
PUBLIC cf44 0 _ZN3fmt3v116detail5writeIcNS0_14basic_appenderIcEEoTnNSt6__ndk19enable_ifIXaaaasr11is_integralIT1_EE5valuentsr3std7is_sameIS7_bEE5valuentsr3std7is_sameIS7_T_EE5valueEiE4typeELi0EEET0_SB_S7_
PUBLIC d258 0 _ZN3fmt3v116detail5writeIcNS0_14basic_appenderIcEEbTnNSt6__ndk19enable_ifIXsr3std7is_sameIT1_bEE5valueEiE4typeELi0EEET0_SA_S7_RKNS0_12format_specsENS1_10locale_refE
PUBLIC d4e8 0 fmt::v11::detail::write_int_noinline<char, fmt::v11::basic_appender<char>, unsigned int>(fmt::v11::basic_appender<char>, fmt::v11::detail::write_int_arg<unsigned int>, fmt::v11::format_specs const&, fmt::v11::detail::locale_ref)
PUBLIC e2c4 0 fmt::v11::detail::fill<char, fmt::v11::basic_appender<char> >(fmt::v11::basic_appender<char>, unsigned long, fmt::v11::detail::fill_t const&)
PUBLIC e494 0 fmt::v11::detail::write_padded<char, (fmt::v11::align::type)1, fmt::v11::basic_appender<char>, fmt::v11::detail::write_char<char, fmt::v11::basic_appender<char> >(fmt::v11::basic_appender<char>, char, fmt::v11::format_specs const&)::{lambda(fmt::v11::basic_appender<char>&)#1}>(fmt::v11::basic_appender<char>, fmt::v11::format_specs const&, unsigned long, unsigned long, fmt::v11::detail::write_char<char, fmt::v11::basic_appender<char> >(fmt::v11::basic_appender<char>, char, fmt::v11::format_specs const&)::{lambda(fmt::v11::basic_appender<char>&)#1})
PUBLIC e6d0 0 fmt::v11::detail::write_escaped_cp<fmt::v11::basic_appender<char>, char>(fmt::v11::basic_appender<char>, fmt::v11::detail::find_escape_result<char> const&)
PUBLIC e9dc 0 fmt::v11::detail::write_codepoint<(unsigned long)2, char, fmt::v11::basic_appender<char> >(fmt::v11::basic_appender<char>, char, unsigned int)
PUBLIC eb54 0 fmt::v11::detail::write_codepoint<(unsigned long)8, char, fmt::v11::basic_appender<char> >(fmt::v11::basic_appender<char>, char, unsigned int)
PUBLIC eccc 0 fmt::v11::detail::write_padded<char, (fmt::v11::align::type)1, fmt::v11::basic_appender<char>, fmt::v11::detail::write_nonfinite<char, fmt::v11::basic_appender<char> >(fmt::v11::basic_appender<char>, bool, fmt::v11::format_specs, fmt::v11::sign::type)::{lambda(fmt::v11::basic_appender<char>&)#1}>(fmt::v11::basic_appender<char>, fmt::v11::format_specs const&, unsigned long, unsigned long, fmt::v11::detail::write_nonfinite<char, fmt::v11::basic_appender<char> >(fmt::v11::basic_appender<char>, bool, fmt::v11::format_specs, fmt::v11::sign::type)::{lambda(fmt::v11::basic_appender<char>&)#1})
PUBLIC ef0c 0 fmt::v11::detail::do_write_float<char, fmt::v11::basic_appender<char>, fmt::v11::detail::dragonbox::decimal_fp<float>, fmt::v11::detail::digit_grouping<char> >(fmt::v11::basic_appender<char>, fmt::v11::detail::dragonbox::decimal_fp<float> const&, fmt::v11::format_specs const&, fmt::v11::detail::float_specs, fmt::v11::detail::locale_ref)
PUBLIC fb80 0 fmt::v11::detail::do_write_float<char, fmt::v11::basic_appender<char>, fmt::v11::detail::dragonbox::decimal_fp<float>, fmt::v11::detail::digit_grouping<char> >(fmt::v11::basic_appender<char>, fmt::v11::detail::dragonbox::decimal_fp<float> const&, fmt::v11::format_specs const&, fmt::v11::detail::float_specs, fmt::v11::detail::locale_ref)::{lambda(fmt::v11::basic_appender<char>(fmt::v11::basic_appender<char>))#1}::operator() const
PUBLIC fcd4 0 fmt::v11::detail::digit_grouping<char>::digit_grouping(fmt::v11::detail::locale_ref, bool)
PUBLIC ff40 0 fmt::v11::detail::digit_grouping<char>::~digit_grouping()
PUBLIC ff84 0 fmt::v11::detail::write_exponent<char, fmt::v11::basic_appender<char> >(int, fmt::v11::basic_appender<char>)
PUBLIC 10154 0 _ZN3fmt3v116detail17write_significandIcjTnNSt6__ndk19enable_ifIXsr3std11is_integralIT0_EE5valueEiE4typeELi0EEEPT_S9_S5_iiS8_
PUBLIC 102d0 0 std::__ndk1::basic_string<char, std::__ndk1::char_traits<char>, std::__ndk1::allocator<char> >::__assign_no_alias<true>(char const*, unsigned long)
PUBLIC 1037c 0 std::__ndk1::basic_string<char, std::__ndk1::char_traits<char>, std::__ndk1::allocator<char> >::__assign_no_alias<false>(char const*, unsigned long)
PUBLIC 1048c 0 fmt::v11::detail::digit_grouping<char>::apply<fmt::v11::basic_appender<char>, char>(fmt::v11::basic_appender<char>, fmt::v11::basic_string_view<char>) const
PUBLIC 10844 0 fmt::v11::basic_memory_buffer<int, (unsigned long)500, std::__ndk1::allocator<int> >::grow(fmt::v11::detail::buffer<int>&, unsigned long)
PUBLIC 108e4 0 fmt::v11::detail::do_write_float<char, fmt::v11::basic_appender<char>, fmt::v11::detail::dragonbox::decimal_fp<double>, fmt::v11::detail::digit_grouping<char> >(fmt::v11::basic_appender<char>, fmt::v11::detail::dragonbox::decimal_fp<double> const&, fmt::v11::format_specs const&, fmt::v11::detail::float_specs, fmt::v11::detail::locale_ref)
PUBLIC 11598 0 fmt::v11::detail::do_write_float<char, fmt::v11::basic_appender<char>, fmt::v11::detail::dragonbox::decimal_fp<double>, fmt::v11::detail::digit_grouping<char> >(fmt::v11::basic_appender<char>, fmt::v11::detail::dragonbox::decimal_fp<double> const&, fmt::v11::format_specs const&, fmt::v11::detail::float_specs, fmt::v11::detail::locale_ref)::{lambda(fmt::v11::basic_appender<char>(fmt::v11::basic_appender<char>))#1}::operator() const
PUBLIC 116f0 0 _ZN3fmt3v116detail17write_significandIcmTnNSt6__ndk19enable_ifIXsr3std11is_integralIT0_EE5valueEiE4typeELi0EEEPT_S9_S5_iiS8_
PUBLIC 11880 0 fmt::v11::detail::write_float<char, fmt::v11::basic_appender<char>, long double>(fmt::v11::basic_appender<char>, long double, fmt::v11::format_specs, fmt::v11::detail::locale_ref)
PUBLIC 1237c 0 fmt::v11::detail::write_padded<char, (fmt::v11::align::type)2, fmt::v11::basic_appender<char>, fmt::v11::detail::write_bytes<char, (fmt::v11::align::type)2, fmt::v11::basic_appender<char> >(fmt::v11::basic_appender<char>, fmt::v11::basic_string_view<char>, fmt::v11::format_specs const&)::{lambda(fmt::v11::basic_appender<char>&)#1}>(fmt::v11::basic_appender<char>, fmt::v11::format_specs const&, unsigned long, unsigned long, fmt::v11::detail::write_bytes<char, (fmt::v11::align::type)2, fmt::v11::basic_appender<char> >(fmt::v11::basic_appender<char>, fmt::v11::basic_string_view<char>, fmt::v11::format_specs const&)::{lambda(fmt::v11::basic_appender<char>&)#1})
PUBLIC 12558 0 fmt::v11::detail::format_dragon(fmt::v11::detail::basic_fp<unsigned __int128>, unsigned int, int, fmt::v11::detail::buffer<char>&, int&)
PUBLIC 13988 0 fmt::v11::detail::bigint::operator<<=(int)
PUBLIC 13aac 0 fmt::v11::detail::bigint::assign_pow10(int)
PUBLIC 14208 0 fmt::v11::detail::bigint::divmod_assign(fmt::v11::detail::bigint const&)
PUBLIC 14528 0 fmt::v11::basic_memory_buffer<unsigned int, (unsigned long)32, std::__ndk1::allocator<unsigned int> >::grow(fmt::v11::detail::buffer<unsigned int>&, unsigned long)
PUBLIC 145c8 0 fmt::v11::detail::do_write_float<char, fmt::v11::basic_appender<char>, fmt::v11::detail::big_decimal_fp, fmt::v11::detail::digit_grouping<char> >(fmt::v11::basic_appender<char>, fmt::v11::detail::big_decimal_fp const&, fmt::v11::format_specs const&, fmt::v11::detail::float_specs, fmt::v11::detail::locale_ref)
PUBLIC 15478 0 fmt::v11::detail::do_write_float<char, fmt::v11::basic_appender<char>, fmt::v11::detail::big_decimal_fp, fmt::v11::detail::digit_grouping<char> >(fmt::v11::basic_appender<char>, fmt::v11::detail::big_decimal_fp const&, fmt::v11::format_specs const&, fmt::v11::detail::float_specs, fmt::v11::detail::locale_ref)::{lambda(fmt::v11::basic_appender<char>(fmt::v11::basic_appender<char>))#1}::operator() const
PUBLIC 155d8 0 fmt::v11::detail::write_padded<char, (fmt::v11::align::type)2, fmt::v11::basic_appender<char>, fmt::v11::detail::write_ptr<char, fmt::v11::basic_appender<char>, unsigned long>(fmt::v11::basic_appender<char>, unsigned long, fmt::v11::format_specs const*)::{lambda(fmt::v11::basic_appender<char>&)#1}>(fmt::v11::basic_appender<char>, fmt::v11::format_specs const&, unsigned long, unsigned long, fmt::v11::detail::write_ptr<char, fmt::v11::basic_appender<char>, unsigned long>(fmt::v11::basic_appender<char>, unsigned long, fmt::v11::format_specs const*)::{lambda(fmt::v11::basic_appender<char>&)#1})
PUBLIC 157ec 0 fmt::v11::detail::parse_replacement_field<char, fmt::v11::detail::vformat_to<char>(fmt::v11::detail::buffer<char>&, fmt::v11::basic_string_view<char>, fmt::v11::detail::vformat_args<char>::type, fmt::v11::detail::locale_ref)::format_handler&>(char const*, char const*, fmt::v11::detail::vformat_to<char>(fmt::v11::detail::buffer<char>&, fmt::v11::basic_string_view<char>, fmt::v11::detail::vformat_args<char>::type, fmt::v11::detail::locale_ref)::format_handler&)
PUBLIC 17488 0 fmt::v11::detail::parse_dynamic_spec<char>(char const*, char const*, int&, fmt::v11::detail::arg_ref<char>&, fmt::v11::basic_format_parse_context<char>&)
PUBLIC 17718 0 fmt::v11::basic_format_args<fmt::v11::context>::get<char>(fmt::v11::basic_string_view<char>) const
PUBLIC 17870 0 fmt::v11::detail::write_int_noinline<char, fmt::v11::basic_appender<char>, unsigned long>(fmt::v11::basic_appender<char>, fmt::v11::detail::write_int_arg<unsigned long>, fmt::v11::format_specs const&, fmt::v11::detail::locale_ref)
PUBLIC 186c4 0 fmt::v11::detail::write_int_noinline<char, fmt::v11::basic_appender<char>, unsigned __int128>(fmt::v11::basic_appender<char>, fmt::v11::detail::write_int_arg<unsigned __int128>, fmt::v11::format_specs const&, fmt::v11::detail::locale_ref)
PUBLIC 1972c 0 _ZN3fmt3v116detail15format_hexfloatIdTnNSt6__ndk19enable_ifIXntsr16is_double_doubleIT_EE5valueEiE4typeELi0EEEvS5_NS0_12format_specsERNS1_6bufferIcEE
PUBLIC 19c4c 0 fmt::v11::detail::format_float<double>(double, int, fmt::v11::detail::float_specs, fmt::v11::detail::buffer<char>&)
PUBLIC 1a5ec 0 fmt::v11::detail::write<char, fmt::v11::basic_appender<char> >(fmt::v11::basic_appender<char>, fmt::v11::basic_string_view<char>, fmt::v11::format_specs const&)
PUBLIC 1b958 0 fmt::v11::detail::for_each_codepoint<fmt::v11::detail::compute_width(fmt::v11::basic_string_view<char>)::count_code_points>(fmt::v11::basic_string_view<char>, fmt::v11::detail::compute_width(fmt::v11::basic_string_view<char>)::count_code_points)::{lambda(char const*, char const*)#1}::operator()(char const*, char const*) const
PUBLIC 1bb10 0 fmt::v11::detail::write_int<fmt::v11::basic_appender<char>, unsigned long, char>(fmt::v11::basic_appender<char>, unsigned long, unsigned int, fmt::v11::format_specs const&, fmt::v11::detail::digit_grouping<char> const&)
PUBLIC 1c08c 0 fmt::v11::detail::write_int<fmt::v11::basic_appender<char>, unsigned __int128, char>(fmt::v11::basic_appender<char>, unsigned __int128, unsigned int, fmt::v11::format_specs const&, fmt::v11::detail::digit_grouping<char> const&)
PUBLIC 1c710 0 <.plt ELF section in ml5.improved-paths.android64.so>
STACK CFI INIT 6270 10 .cfa: sp 0 +
STACK CFI INIT 6280 8 .cfa: sp 0 +
STACK CFI INIT 6288 8 .cfa: sp 0 +
STACK CFI INIT 6290 14 .cfa: sp 0 +
STACK CFI INIT 62a4 1c .cfa: sp 0 +
STACK CFI INIT 62c0 10 .cfa: sp 0 +
STACK CFI INIT 62d0 30 .cfa: sp 0 +
STACK CFI INIT 6300 98 .cfa: sp 0 +
STACK CFI INIT 6398 59c .cfa: sp 0 +
STACK CFI INIT 6934 8c .cfa: sp 0 +
STACK CFI INIT 69c0 30 .cfa: sp 0 +
STACK CFI INIT 75c4 18 .cfa: sp 0 +
STACK CFI INIT 7b98 50 .cfa: sp 0 +
STACK CFI 7b9c .cfa: sp 32 +
STACK CFI 7ba4 .cfa: x29 32 + x19: .cfa -16 + ^ .ra: .cfa -24 + ^ x29: .cfa -32 + ^
STACK CFI 7bbc .cfa: sp 32 +
STACK CFI 7bc4 .cfa: sp 0 +
STACK CFI 7bc8 .cfa: x29 32 +
STACK CFI 7bdc .cfa: sp 32 +
STACK CFI 7be4 .cfa: sp 0 +
STACK CFI INIT 7c5c 7c .cfa: sp 0 +
STACK CFI 7c60 .cfa: sp 48 +
STACK CFI 7c6c .cfa: x29 48 + x19: .cfa -8 + ^ x20: .cfa -16 + ^ x21: .cfa -32 + ^ .ra: .cfa -40 + ^ x29: .cfa -48 + ^
STACK CFI 7cb8 .cfa: sp 48 +
STACK CFI 7cc4 .cfa: sp 0 +
STACK CFI 7cc8 .cfa: sp 48 +
STACK CFI 7cd4 .cfa: sp 0 +
STACK CFI INIT 7cd8 4 .cfa: sp 0 +
STACK CFI INIT 7cdc 10 .cfa: sp 0 +
STACK CFI 7ce0 .cfa: sp 16 +
STACK CFI 7ce4 .cfa: x29 16 + .ra: .cfa -8 + ^ x29: .cfa -16 + ^
STACK CFI INIT 83e8 34 .cfa: sp 0 +
STACK CFI 83ec .cfa: sp 16 +
STACK CFI 83f0 .cfa: x29 16 + .ra: .cfa -8 + ^ x29: .cfa -16 + ^
STACK CFI INIT 841c 80 .cfa: sp 0 +
STACK CFI 8420 .cfa: sp 48 +
STACK CFI 842c .cfa: x29 48 + x19: .cfa -8 + ^ x20: .cfa -16 + ^ x21: .cfa -32 + ^ .ra: .cfa -40 + ^ x29: .cfa -48 + ^
STACK CFI 848c .cfa: sp 48 +
STACK CFI 8498 .cfa: sp 0 +
STACK CFI INIT 849c 24 .cfa: sp 0 +
STACK CFI 84a0 .cfa: sp 32 +
STACK CFI 84a8 .cfa: x29 32 + x19: .cfa -16 + ^ .ra: .cfa -24 + ^ x29: .cfa -32 + ^
STACK CFI 84b4 .cfa: sp 32 +
STACK CFI 84bc .cfa: sp 0 +
STACK CFI INIT 84c0 14 .cfa: sp 0 +
STACK CFI 84c4 .cfa: sp 16 +
STACK CFI 84c8 .cfa: x29 16 + .ra: .cfa -8 + ^ x29: .cfa -16 + ^
STACK CFI INIT 8524 30 .cfa: sp 0 +
STACK CFI 8528 .cfa: sp 32 +
STACK CFI 8530 .cfa: x29 32 + x19: .cfa -16 + ^ .ra: .cfa -24 + ^ x29: .cfa -32 + ^
STACK CFI 8548 .cfa: sp 32 +
STACK CFI 8550 .cfa: sp 0 +
STACK CFI INIT 8554 34 .cfa: sp 0 +
STACK CFI 8558 .cfa: sp 32 +
STACK CFI 8560 .cfa: x29 32 + x19: .cfa -16 + ^ .ra: .cfa -24 + ^ x29: .cfa -32 + ^
STACK CFI INIT 8588 80 .cfa: sp 0 +
STACK CFI 858c .cfa: sp 48 +
STACK CFI 8598 .cfa: x29 48 + x19: .cfa -8 + ^ x20: .cfa -16 + ^ x21: .cfa -24 + ^ x22: .cfa -32 + ^ .ra: .cfa -40 + ^ x29: .cfa -48 + ^
STACK CFI 85b0 .cfa: sp 48 +
STACK CFI 85bc .cfa: sp 0 +
STACK CFI 85c0 .cfa: x29 48 +
STACK CFI 85f0 .cfa: sp 48 +
STACK CFI 85fc .cfa: sp 0 +
STACK CFI 8600 .cfa: x29 48 +
STACK CFI INIT 8608 68 .cfa: sp 0 +
STACK CFI 860c .cfa: sp 32 +
STACK CFI 8614 .cfa: x29 32 + x19: .cfa -8 + ^ x20: .cfa -16 + ^ .ra: .cfa -24 + ^ x29: .cfa -32 + ^
STACK CFI 862c .cfa: sp 32 +
STACK CFI 8634 .cfa: sp 0 +
STACK CFI 8638 .cfa: x29 32 +
STACK CFI 8664 .cfa: sp 32 +
STACK CFI 866c .cfa: sp 0 +
STACK CFI INIT 8670 14 .cfa: sp 0 +
STACK CFI 8674 .cfa: sp 16 +
STACK CFI 8678 .cfa: x29 16 + .ra: .cfa -8 + ^ x29: .cfa -16 + ^
STACK CFI INIT 8684 4 .cfa: sp 0 +
STACK CFI INIT 8688 14 .cfa: sp 0 +
STACK CFI INIT 869c 84 .cfa: sp 0 +
STACK CFI 86a4 .cfa: sp 32 +
STACK CFI 86ac .cfa: x29 32 + x19: .cfa -8 + ^ x20: .cfa -16 + ^ .ra: .cfa -24 + ^ x29: .cfa -32 + ^
STACK CFI 86ec .cfa: sp 32 +
STACK CFI 86f4 .cfa: sp 0 +
STACK CFI 86fc .cfa: x29 32 +
STACK CFI INIT 9b94 8c .cfa: sp 0 +
STACK CFI 9b98 .cfa: sp 32 +
STACK CFI 9ba0 .cfa: x29 32 + x19: .cfa -16 + ^ .ra: .cfa -24 + ^ x29: .cfa -32 + ^
STACK CFI 9c14 .cfa: sp 32 +
STACK CFI 9c1c .cfa: sp 0 +
STACK CFI INIT 9c20 50 .cfa: sp 0 +
STACK CFI 9c24 .cfa: sp 32 +
STACK CFI 9c2c .cfa: x29 32 + x19: .cfa -16 + ^ .ra: .cfa -24 + ^ x29: .cfa -32 + ^
STACK CFI 9c44 .cfa: sp 32 +
STACK CFI 9c4c .cfa: sp 0 +
STACK CFI 9c50 .cfa: x29 32 +
STACK CFI 9c64 .cfa: sp 32 +
STACK CFI 9c6c .cfa: sp 0 +
STACK CFI INIT 9c70 64 .cfa: sp 0 +
STACK CFI 9c74 .cfa: sp 32 +
STACK CFI 9c7c .cfa: x29 32 + x19: .cfa -16 + ^ .ra: .cfa -24 + ^ x29: .cfa -32 + ^
STACK CFI 9ca8 .cfa: sp 32 +
STACK CFI 9cb0 .cfa: sp 0 +
STACK CFI 9cb4 .cfa: x29 32 +
STACK CFI 9cc8 .cfa: sp 32 +
STACK CFI 9cd0 .cfa: sp 0 +
STACK CFI INIT 9cd4 3c .cfa: sp 0 +
STACK CFI 9cd8 .cfa: sp 32 +
STACK CFI 9ce0 .cfa: x29 32 + x19: .cfa -16 + ^ .ra: .cfa -24 + ^ x29: .cfa -32 + ^
STACK CFI 9cec .cfa: sp 32 +
STACK CFI 9cf4 .cfa: sp 0 +
STACK CFI 9cf8 .cfa: x29 32 +
STACK CFI 9d04 .cfa: sp 32 +
STACK CFI 9d0c .cfa: sp 0 +
STACK CFI INIT 9d10 c .cfa: sp 0 +
STACK CFI INIT 9d1c 24c .cfa: sp 0 +
STACK CFI INIT 9f68 a0 .cfa: sp 0 +
STACK CFI 9f74 .cfa: sp 32 +
STACK CFI 9fcc .cfa: sp 0 +
STACK CFI 9fd0 .cfa: sp 32 +
STACK CFI 9fd8 .cfa: sp 0 +
STACK CFI 9fdc .cfa: sp 32 +
STACK CFI 9ff0 .cfa: sp 0 +
STACK CFI 9ff4 .cfa: sp 32 +
STACK CFI a004 .cfa: sp 0 +
STACK CFI INIT a008 38 .cfa: sp 0 +
STACK CFI a014 .cfa: sp 32 +
STACK CFI a03c .cfa: sp 0 +
STACK CFI INIT a2d4 7c .cfa: sp 0 +
STACK CFI a2d8 .cfa: sp 32 +
STACK CFI a2e0 .cfa: x29 32 + x19: .cfa -16 + ^ .ra: .cfa -24 + ^ x29: .cfa -32 + ^
STACK CFI a30c .cfa: sp 32 +
STACK CFI a314 .cfa: sp 0 +
STACK CFI a318 .cfa: x29 32 +
STACK CFI a344 .cfa: sp 32 +
STACK CFI a34c .cfa: sp 0 +
STACK CFI INIT a3a0 2c .cfa: sp 0 +
STACK CFI a3a4 .cfa: sp 32 +
STACK CFI a3ac .cfa: x29 32 + x19: .cfa -16 + ^ .ra: .cfa -24 + ^ x29: .cfa -32 + ^
STACK CFI a3c0 .cfa: sp 32 +
STACK CFI a3c8 .cfa: sp 0 +
STACK CFI INIT ab8c 64 .cfa: sp 0 +
STACK CFI ab90 .cfa: sp 32 +
STACK CFI ab98 .cfa: x29 32 + x19: .cfa -16 + ^ .ra: .cfa -24 + ^ x29: .cfa -32 + ^
STACK CFI abb4 .cfa: sp 32 +
STACK CFI abbc .cfa: sp 0 +
STACK CFI abc0 .cfa: x29 32 +
STACK CFI abe4 .cfa: sp 32 +
STACK CFI abec .cfa: sp 0 +
STACK CFI INIT abf0 570 .cfa: sp 0 +
STACK CFI abf4 .cfa: sp 176 +
STACK CFI ac08 .cfa: x29 64 + x19: .cfa -8 + ^ x20: .cfa -16 + ^ x21: .cfa -24 + ^ x22: .cfa -32 + ^ x23: .cfa -40 + ^ x24: .cfa -48 + ^ .ra: .cfa -56 + ^ x29: .cfa -64 + ^
STACK CFI ae38 .cfa: sp 176 +
STACK CFI ae4c .cfa: sp 0 +
STACK CFI ae50 .cfa: x29 64 +
STACK CFI ae9c .cfa: sp 176 +
STACK CFI aeb0 .cfa: sp 0 +
STACK CFI aeb4 .cfa: x29 64 +
STACK CFI aeec .cfa: sp 176 +
STACK CFI af00 .cfa: sp 0 +
STACK CFI af04 .cfa: x29 64 +
STACK CFI af1c .cfa: sp 176 +
STACK CFI af30 .cfa: sp 0 +
STACK CFI af34 .cfa: x29 64 +
STACK CFI af54 .cfa: sp 176 +
STACK CFI af68 .cfa: sp 0 +
STACK CFI af6c .cfa: x29 64 +
STACK CFI af84 .cfa: sp 176 +
STACK CFI af98 .cfa: sp 0 +
STACK CFI af9c .cfa: x29 64 +
STACK CFI afb0 .cfa: sp 176 +
STACK CFI afc4 .cfa: sp 0 +
STACK CFI afc8 .cfa: x29 64 +
STACK CFI afdc .cfa: sp 176 +
STACK CFI aff0 .cfa: sp 0 +
STACK CFI aff4 .cfa: x29 64 +
STACK CFI b004 .cfa: sp 176 +
STACK CFI b018 .cfa: sp 0 +
STACK CFI b01c .cfa: x29 64 +
STACK CFI b02c .cfa: sp 176 +
STACK CFI b040 .cfa: sp 0 +
STACK CFI b044 .cfa: x29 64 +
STACK CFI b05c .cfa: sp 176 +
STACK CFI b070 .cfa: sp 0 +
STACK CFI b074 .cfa: x29 64 +
STACK CFI b088 .cfa: sp 176 +
STACK CFI b09c .cfa: sp 0 +
STACK CFI b0a0 .cfa: x29 64 +
STACK CFI b0b8 .cfa: sp 176 +
STACK CFI b0cc .cfa: sp 0 +
STACK CFI b0d0 .cfa: x29 64 +
STACK CFI b0fc .cfa: sp 176 +
STACK CFI b110 .cfa: sp 0 +
STACK CFI b114 .cfa: x29 64 +
STACK CFI b128 .cfa: sp 176 +
STACK CFI b13c .cfa: sp 0 +
STACK CFI b140 .cfa: x29 64 +
STACK CFI INIT b160 228 .cfa: sp 0 +
STACK CFI INIT b388 2dc .cfa: sp 0 +
STACK CFI INIT b664 53c .cfa: sp 0 +
STACK CFI INIT bba0 78 .cfa: sp 0 +
STACK CFI bba4 .cfa: sp 48 +
STACK CFI bbb0 .cfa: x29 48 + x19: .cfa -8 + ^ x20: .cfa -16 + ^ x21: .cfa -24 + ^ x22: .cfa -32 + ^ .ra: .cfa -40 + ^ x29: .cfa -48 + ^
STACK CFI bbf8 .cfa: sp 48 +
STACK CFI bc04 .cfa: sp 0 +
STACK CFI bc08 .cfa: sp 48 +
STACK CFI bc14 .cfa: sp 0 +
STACK CFI INIT bc18 8c .cfa: sp 0 +
STACK CFI bc1c .cfa: sp 32 +
STACK CFI bc24 .cfa: x29 32 + x19: .cfa -16 + ^ .ra: .cfa -24 + ^ x29: .cfa -32 + ^
STACK CFI bc58 .cfa: sp 32 +
STACK CFI bc60 .cfa: sp 0 +
STACK CFI bc64 .cfa: x29 32 +
STACK CFI bc98 .cfa: sp 32 +
STACK CFI bca0 .cfa: sp 0 +
STACK CFI INIT bca4 24 .cfa: sp 0 +
STACK CFI bca8 .cfa: sp 32 +
STACK CFI bcb0 .cfa: x29 32 + x19: .cfa -16 + ^ .ra: .cfa -24 + ^ x29: .cfa -32 + ^
STACK CFI bcbc .cfa: sp 32 +
STACK CFI bcc4 .cfa: sp 0 +
STACK CFI INIT bcc8 150 .cfa: sp 0 +
STACK CFI bccc .cfa: sp 48 +
STACK CFI bcd8 .cfa: x29 48 + x19: .cfa -8 + ^ x20: .cfa -16 + ^ x21: .cfa -24 + ^ x22: .cfa -32 + ^ .ra: .cfa -40 + ^ x29: .cfa -48 + ^
STACK CFI be08 .cfa: sp 48 +
STACK CFI be14 .cfa: sp 0 +
STACK CFI INIT be18 68 .cfa: sp 0 +
STACK CFI be1c .cfa: sp 64 +
STACK CFI be28 .cfa: x29 32 + x19: .cfa -16 + ^ .ra: .cfa -24 + ^ x29: .cfa -32 + ^
STACK CFI be6c .cfa: sp 64 +
STACK CFI be78 .cfa: sp 0 +
STACK CFI be7c .cfa: x29 32 +
STACK CFI INIT be80 90 .cfa: sp 0 +
STACK CFI be84 .cfa: sp 32 +
STACK CFI be8c .cfa: x29 32 + x19: .cfa -8 + ^ x20: .cfa -16 + ^ .ra: .cfa -24 + ^ x29: .cfa -32 + ^
STACK CFI beb8 .cfa: sp 32 +
STACK CFI bec0 .cfa: sp 0 +
STACK CFI bec4 .cfa: x29 32 +
STACK CFI bf04 .cfa: sp 32 +
STACK CFI bf0c .cfa: sp 0 +
STACK CFI INIT bf10 ec .cfa: sp 0 +
STACK CFI bf14 .cfa: sp 112 +
STACK CFI bf24 .cfa: x29 48 + x19: .cfa -8 + ^ x20: .cfa -16 + ^ x21: .cfa -32 + ^ .ra: .cfa -40 + ^ x29: .cfa -48 + ^
STACK CFI bfe4 .cfa: sp 112 +
STACK CFI bff4 .cfa: sp 0 +
STACK CFI bff8 .cfa: x29 48 +
STACK CFI INIT bffc ec .cfa: sp 0 +
STACK CFI c000 .cfa: sp 112 +
STACK CFI c010 .cfa: x29 48 + x19: .cfa -8 + ^ x20: .cfa -16 + ^ x21: .cfa -32 + ^ .ra: .cfa -40 + ^ x29: .cfa -48 + ^
STACK CFI c0d0 .cfa: sp 112 +
STACK CFI c0e0 .cfa: sp 0 +
STACK CFI c0e4 .cfa: x29 48 +
STACK CFI INIT c0e8 48 .cfa: sp 0 +
STACK CFI c0ec .cfa: sp 32 +
STACK CFI c0f4 .cfa: x29 32 + x19: .cfa -8 + ^ x20: .cfa -16 + ^ .ra: .cfa -24 + ^ x29: .cfa -32 + ^
STACK CFI c118 .cfa: sp 32 +
STACK CFI c120 .cfa: sp 0 +
STACK CFI c124 .cfa: x29 32 +
STACK CFI INIT c130 98 .cfa: sp 0 +
STACK CFI c134 .cfa: sp 80 +
STACK CFI c140 .cfa: x29 32 + x19: .cfa -16 + ^ .ra: .cfa -24 + ^ x29: .cfa -32 + ^
STACK CFI c1b4 .cfa: sp 80 +
STACK CFI c1c0 .cfa: sp 0 +
STACK CFI c1c4 .cfa: x29 32 +
STACK CFI INIT c1c8 260 .cfa: sp 0 +
STACK CFI c1cc .cfa: sp 112 +
STACK CFI c1e4 .cfa: x29 80 + x19: .cfa -8 + ^ x20: .cfa -16 + ^ x21: .cfa -24 + ^ x22: .cfa -32 + ^ x23: .cfa -40 + ^ x24: .cfa -48 + ^ x25: .cfa -64 + ^ .ra: .cfa -72 + ^ x29: .cfa -80 + ^
STACK CFI c3c8 .cfa: sp 112 +
STACK CFI c3e0 .cfa: sp 0 +
STACK CFI c3e4 .cfa: x29 80 +
STACK CFI INIT c428 150 .cfa: sp 0 +
STACK CFI c42c .cfa: sp 48 +
STACK CFI c438 .cfa: x29 48 + x19: .cfa -8 + ^ x20: .cfa -16 + ^ x21: .cfa -24 + ^ x22: .cfa -32 + ^ .ra: .cfa -40 + ^ x29: .cfa -48 + ^
STACK CFI c568 .cfa: sp 48 +
STACK CFI c574 .cfa: sp 0 +
STACK CFI INIT c578 1e0 .cfa: sp 0 +
STACK CFI c57c .cfa: sp 96 +
STACK CFI c590 .cfa: x29 64 + x19: .cfa -8 + ^ x20: .cfa -16 + ^ x21: .cfa -24 + ^ x22: .cfa -32 + ^ x23: .cfa -40 + ^ x24: .cfa -48 + ^ .ra: .cfa -56 + ^ x29: .cfa -64 + ^
STACK CFI c710 .cfa: sp 96 +
STACK CFI c724 .cfa: sp 0 +
STACK CFI c728 .cfa: x29 64 +
STACK CFI INIT c758 284 .cfa: sp 0 +
STACK CFI c75c .cfa: sp 112 +
STACK CFI c774 .cfa: x29 80 + x19: .cfa -8 + ^ x20: .cfa -16 + ^ x21: .cfa -24 + ^ x22: .cfa -32 + ^ x23: .cfa -40 + ^ x24: .cfa -48 + ^ x25: .cfa -64 + ^ .ra: .cfa -72 + ^ x29: .cfa -80 + ^
STACK CFI c97c .cfa: sp 112 +
STACK CFI c994 .cfa: sp 0 +
STACK CFI c998 .cfa: x29 80 +
STACK CFI INIT c9dc 208 .cfa: sp 0 +
STACK CFI c9e0 .cfa: sp 96 +
STACK CFI c9f4 .cfa: x29 64 + x19: .cfa -8 + ^ x20: .cfa -16 + ^ x21: .cfa -24 + ^ x22: .cfa -32 + ^ x23: .cfa -40 + ^ x24: .cfa -48 + ^ .ra: .cfa -56 + ^ x29: .cfa -64 + ^
STACK CFI cb9c .cfa: sp 96 +
STACK CFI cbb0 .cfa: sp 0 +
STACK CFI cbb4 .cfa: x29 64 +
STACK CFI INIT cbe4 360 .cfa: sp 0 +
STACK CFI cbe8 .cfa: sp 160 +
STACK CFI cc04 .cfa: x29 96 + x19: .cfa -8 + ^ x20: .cfa -16 + ^ x21: .cfa -24 + ^ x22: .cfa -32 + ^ x23: .cfa -40 + ^ x24: .cfa -48 + ^ x25: .cfa -56 + ^ x26: .cfa -64 + ^ x27: .cfa -72 + ^ x28: .cfa -80 + ^ .ra: .cfa -88 + ^ x29: .cfa -96 + ^
STACK CFI ced0 .cfa: sp 160 +
STACK CFI ceec .cfa: sp 0 +
STACK CFI cef0 .cfa: x29 96 +
STACK CFI INIT cf44 314 .cfa: sp 0 +
STACK CFI cf48 .cfa: sp 144 +
STACK CFI cf64 .cfa: x29 96 + x19: .cfa -8 + ^ x20: .cfa -16 + ^ x21: .cfa -24 + ^ x22: .cfa -32 + ^ x23: .cfa -40 + ^ x24: .cfa -48 + ^ x25: .cfa -56 + ^ x26: .cfa -64 + ^ x27: .cfa -72 + ^ x28: .cfa -80 + ^ .ra: .cfa -88 + ^ x29: .cfa -96 + ^
STACK CFI d1e0 .cfa: sp 144 +
STACK CFI d1fc .cfa: sp 0 +
STACK CFI d200 .cfa: x29 96 +
STACK CFI INIT d258 290 .cfa: sp 0 +
STACK CFI d25c .cfa: sp 128 +
STACK CFI d274 .cfa: x29 80 + x19: .cfa -8 + ^ x20: .cfa -16 + ^ x21: .cfa -24 + ^ x22: .cfa -32 + ^ x23: .cfa -40 + ^ x24: .cfa -48 + ^ x25: .cfa -56 + ^ x26: .cfa -64 + ^ .ra: .cfa -72 + ^ x29: .cfa -80 + ^
STACK CFI d4c8 .cfa: sp 128 +
STACK CFI d4e0 .cfa: sp 0 +
STACK CFI d4e4 .cfa: x29 80 +
STACK CFI INIT d4e8 ddc .cfa: sp 0 +
STACK CFI d4ec .cfa: sp 144 +
STACK CFI d508 .cfa: x29 96 + x19: .cfa -8 + ^ x20: .cfa -16 + ^ x21: .cfa -24 + ^ x22: .cfa -32 + ^ x23: .cfa -40 + ^ x24: .cfa -48 + ^ x25: .cfa -56 + ^ x26: .cfa -64 + ^ x27: .cfa -72 + ^ x28: .cfa -80 + ^ .ra: .cfa -88 + ^ x29: .cfa -96 + ^
STACK CFI e19c .cfa: sp 144 +
STACK CFI e1b8 .cfa: sp 0 +
STACK CFI e1bc .cfa: x29 96 +
STACK CFI INIT e2c4 1d0 .cfa: sp 0 +
STACK CFI e2c8 .cfa: sp 80 +
STACK CFI e2dc .cfa: x29 80 + x19: .cfa -8 + ^ x20: .cfa -16 + ^ x21: .cfa -24 + ^ x22: .cfa -32 + ^ x23: .cfa -40 + ^ x24: .cfa -48 + ^ x25: .cfa -64 + ^ .ra: .cfa -72 + ^ x29: .cfa -80 + ^
STACK CFI e47c .cfa: sp 80 +
STACK CFI e490 .cfa: sp 0 +
STACK CFI INIT e494 23c .cfa: sp 0 +
STACK CFI e498 .cfa: sp 112 +
STACK CFI e4ac .cfa: x29 64 + x19: .cfa -8 + ^ x20: .cfa -16 + ^ x21: .cfa -24 + ^ x22: .cfa -32 + ^ x23: .cfa -40 + ^ x24: .cfa -48 + ^ .ra: .cfa -56 + ^ x29: .cfa -64 + ^
STACK CFI e688 .cfa: sp 112 +
STACK CFI e69c .cfa: sp 0 +
STACK CFI e6a0 .cfa: x29 64 +
STACK CFI INIT e6d0 30c .cfa: sp 0 +
STACK CFI e6d4 .cfa: sp 80 +
STACK CFI e6e8 .cfa: x29 64 + x19: .cfa -8 + ^ x20: .cfa -16 + ^ x21: .cfa -24 + ^ x22: .cfa -32 + ^ x23: .cfa -40 + ^ x24: .cfa -48 + ^ .ra: .cfa -56 + ^ x29: .cfa -64 + ^
STACK CFI e864 .cfa: sp 80 +
STACK CFI e878 .cfa: sp 0 +
STACK CFI e87c .cfa: x29 64 +
STACK CFI INIT e9dc 178 .cfa: sp 0 +
STACK CFI e9e0 .cfa: sp 80 +
STACK CFI e9f4 .cfa: x29 64 + x19: .cfa -8 + ^ x20: .cfa -16 + ^ x21: .cfa -24 + ^ x22: .cfa -32 + ^ x23: .cfa -40 + ^ x24: .cfa -48 + ^ .ra: .cfa -56 + ^ x29: .cfa -64 + ^
STACK CFI eb38 .cfa: sp 80 +
STACK CFI eb4c .cfa: sp 0 +
STACK CFI eb50 .cfa: x29 64 +
STACK CFI INIT eb54 178 .cfa: sp 0 +
STACK CFI eb58 .cfa: sp 80 +
STACK CFI eb6c .cfa: x29 64 + x19: .cfa -8 + ^ x20: .cfa -16 + ^ x21: .cfa -24 + ^ x22: .cfa -32 + ^ x23: .cfa -40 + ^ x24: .cfa -48 + ^ .ra: .cfa -56 + ^ x29: .cfa -64 + ^
STACK CFI ecb0 .cfa: sp 80 +
STACK CFI ecc4 .cfa: sp 0 +
STACK CFI ecc8 .cfa: x29 64 +
STACK CFI INIT eccc 240 .cfa: sp 0 +
STACK CFI ecd0 .cfa: sp 96 +
STACK CFI ece8 .cfa: x29 96 + x19: .cfa -8 + ^ x20: .cfa -16 + ^ x21: .cfa -24 + ^ x22: .cfa -32 + ^ x23: .cfa -40 + ^ x24: .cfa -48 + ^ x25: .cfa -56 + ^ x26: .cfa -64 + ^ x27: .cfa -72 + ^ x28: .cfa -80 + ^ .ra: .cfa -88 + ^ x29: .cfa -96 + ^
STACK CFI eef0 .cfa: sp 96 +
STACK CFI ef08 .cfa: sp 0 +
STACK CFI INIT fb80 154 .cfa: sp 0 +
STACK CFI fb84 .cfa: sp 96 +
STACK CFI fb98 .cfa: x29 64 + x19: .cfa -8 + ^ x20: .cfa -16 + ^ x21: .cfa -24 + ^ x22: .cfa -32 + ^ x23: .cfa -48 + ^ .ra: .cfa -56 + ^ x29: .cfa -64 + ^
STACK CFI fc78 .cfa: sp 96 +
STACK CFI fc8c .cfa: sp 0 +
STACK CFI fc90 .cfa: x29 64 +
STACK CFI INIT ff40 44 .cfa: sp 0 +
STACK CFI ff44 .cfa: sp 32 +
STACK CFI ff4c .cfa: x29 32 + x19: .cfa -16 + ^ .ra: .cfa -24 + ^ x29: .cfa -32 + ^
STACK CFI ff68 .cfa: sp 32 +
STACK CFI ff70 .cfa: sp 0 +
STACK CFI ff74 .cfa: x29 32 +
STACK CFI ff78 .cfa: sp 32 +
STACK CFI ff80 .cfa: sp 0 +
STACK CFI INIT ff84 1d0 .cfa: sp 0 +
STACK CFI ff88 .cfa: sp 64 +
STACK CFI ff98 .cfa: x29 64 + x19: .cfa -8 + ^ x20: .cfa -16 + ^ x21: .cfa -24 + ^ x22: .cfa -32 + ^ x23: .cfa -40 + ^ x24: .cfa -48 + ^ .ra: .cfa -56 + ^ x29: .cfa -64 + ^
STACK CFI 10058 .cfa: sp 64 +
STACK CFI 10068 .cfa: sp 0 +
STACK CFI 1006c .cfa: x29 64 +
STACK CFI INIT 10154 17c .cfa: sp 0 +
STACK CFI INIT 102d0 ac .cfa: sp 0 +
STACK CFI 102d4 .cfa: sp 64 +
STACK CFI 102e4 .cfa: x29 64 + x19: .cfa -8 + ^ x20: .cfa -16 + ^ x21: .cfa -24 + ^ x22: .cfa -32 + ^ x23: .cfa -48 + ^ .ra: .cfa -56 + ^ x29: .cfa -64 + ^
STACK CFI 10360 .cfa: sp 64 +
STACK CFI 10370 .cfa: sp 0 +
STACK CFI 10374 .cfa: x29 64 +
STACK CFI INIT 1037c 110 .cfa: sp 0 +
STACK CFI 10380 .cfa: sp 64 +
STACK CFI 10390 .cfa: x29 64 + x19: .cfa -8 + ^ x20: .cfa -16 + ^ x21: .cfa -24 + ^ x22: .cfa -32 + ^ x23: .cfa -40 + ^ x24: .cfa -48 + ^ .ra: .cfa -56 + ^ x29: .cfa -64 + ^
STACK CFI 10470 .cfa: sp 64 +
STACK CFI 10480 .cfa: sp 0 +
STACK CFI 10484 .cfa: x29 64 +
STACK CFI INIT 10844 a0 .cfa: sp 0 +
STACK CFI 10848 .cfa: sp 48 +
STACK CFI 10854 .cfa: x29 48 + x19: .cfa -8 + ^ x20: .cfa -16 + ^ x21: .cfa -24 + ^ x22: .cfa -32 + ^ .ra: .cfa -40 + ^ x29: .cfa -48 + ^
STACK CFI 108c0 .cfa: sp 48 +
STACK CFI 108cc .cfa: sp 0 +
STACK CFI 108d0 .cfa: sp 48 +
STACK CFI 108dc .cfa: sp 0 +
STACK CFI 108e0 .cfa: x29 48 +
STACK CFI INIT 11598 158 .cfa: sp 0 +
STACK CFI 1159c .cfa: sp 96 +
STACK CFI 115b0 .cfa: x29 64 + x19: .cfa -8 + ^ x20: .cfa -16 + ^ x21: .cfa -24 + ^ x22: .cfa -32 + ^ x23: .cfa -48 + ^ .ra: .cfa -56 + ^ x29: .cfa -64 + ^
STACK CFI 11694 .cfa: sp 96 +
STACK CFI 116a8 .cfa: sp 0 +
STACK CFI 116ac .cfa: x29 64 +
STACK CFI INIT 116f0 190 .cfa: sp 0 +
STACK CFI INIT 1237c 1dc .cfa: sp 0 +
STACK CFI 12380 .cfa: sp 80 +
STACK CFI 12394 .cfa: x29 80 + x19: .cfa -8 + ^ x20: .cfa -16 + ^ x21: .cfa -24 + ^ x22: .cfa -32 + ^ x23: .cfa -40 + ^ x24: .cfa -48 + ^ x25: .cfa -64 + ^ .ra: .cfa -72 + ^ x29: .cfa -80 + ^
STACK CFI 12540 .cfa: sp 80 +
STACK CFI 12554 .cfa: sp 0 +
STACK CFI INIT 13988 124 .cfa: sp 0 +
STACK CFI 139b8 .cfa: sp 32 +
STACK CFI 139c0 .cfa: x29 32 + x19: .cfa -8 + ^ x20: .cfa -16 + ^ .ra: .cfa -24 + ^ x29: .cfa -32 + ^
STACK CFI 13aa0 .cfa: sp 32 +
STACK CFI 13aa8 .cfa: sp 0 +
STACK CFI INIT 14208 320 .cfa: sp 0 +
STACK CFI 1420c .cfa: sp 64 +
STACK CFI 1421c .cfa: x29 64 + x19: .cfa -8 + ^ x20: .cfa -16 + ^ x21: .cfa -24 + ^ x22: .cfa -32 + ^ x23: .cfa -40 + ^ x24: .cfa -48 + ^ .ra: .cfa -56 + ^ x29: .cfa -64 + ^
STACK CFI 14298 .cfa: sp 64 +
STACK CFI 142a8 .cfa: sp 0 +
STACK CFI 142ac .cfa: x29 64 +
STACK CFI 14480 .cfa: sp 64 +
STACK CFI 14490 .cfa: sp 0 +
STACK CFI 14494 .cfa: x29 64 +
STACK CFI 144a4 .cfa: sp 64 +
STACK CFI 144b4 .cfa: sp 0 +
STACK CFI 144b8 .cfa: x29 64 +
STACK CFI INIT 14528 a0 .cfa: sp 0 +
STACK CFI 1452c .cfa: sp 48 +
STACK CFI 14538 .cfa: x29 48 + x19: .cfa -8 + ^ x20: .cfa -16 + ^ x21: .cfa -24 + ^ x22: .cfa -32 + ^ .ra: .cfa -40 + ^ x29: .cfa -48 + ^
STACK CFI 145a4 .cfa: sp 48 +
STACK CFI 145b0 .cfa: sp 0 +
STACK CFI 145b4 .cfa: sp 48 +
STACK CFI 145c0 .cfa: sp 0 +
STACK CFI 145c4 .cfa: x29 48 +
STACK CFI INIT 15478 160 .cfa: sp 0 +
STACK CFI 1547c .cfa: sp 64 +
STACK CFI 1548c .cfa: x29 64 + x19: .cfa -8 + ^ x20: .cfa -16 + ^ x21: .cfa -24 + ^ x22: .cfa -32 + ^ x23: .cfa -48 + ^ .ra: .cfa -56 + ^ x29: .cfa -64 + ^
STACK CFI 15584 .cfa: sp 64 +
STACK CFI 15594 .cfa: sp 0 +
STACK CFI 15598 .cfa: x29 64 +
STACK CFI INIT 155d8 214 .cfa: sp 0 +
STACK CFI 155dc .cfa: sp 128 +
STACK CFI 155f8 .cfa: x29 96 + x19: .cfa -8 + ^ x20: .cfa -16 + ^ x21: .cfa -24 + ^ x22: .cfa -32 + ^ x23: .cfa -40 + ^ x24: .cfa -48 + ^ x25: .cfa -56 + ^ x26: .cfa -64 + ^ x27: .cfa -80 + ^ .ra: .cfa -88 + ^ x29: .cfa -96 + ^
STACK CFI 15774 .cfa: sp 128 +
STACK CFI 15790 .cfa: sp 0 +
STACK CFI 15794 .cfa: x29 96 +
STACK CFI INIT 17488 290 .cfa: sp 0 +
STACK CFI 1748c .cfa: sp 16 +
STACK CFI 17490 .cfa: x29 16 + .ra: .cfa -8 + ^ x29: .cfa -16 + ^
STACK CFI 1751c .cfa: sp 16 +
STACK CFI 17520 .cfa: sp 0 +
STACK CFI 17524 .cfa: x29 16 +
STACK CFI 17574 .cfa: sp 16 +
STACK CFI 17578 .cfa: sp 0 +
STACK CFI 1757c .cfa: x29 16 +
STACK CFI 176e0 .cfa: sp 16 +
STACK CFI 176e4 .cfa: sp 0 +
STACK CFI 176e8 .cfa: x29 16 +
STACK CFI INIT 17718 158 .cfa: sp 0 +
STACK CFI 1771c .cfa: sp 112 +
STACK CFI 17738 .cfa: x29 96 + x19: .cfa -8 + ^ x20: .cfa -16 + ^ x21: .cfa -24 + ^ x22: .cfa -32 + ^ x23: .cfa -40 + ^ x24: .cfa -48 + ^ x25: .cfa -56 + ^ x26: .cfa -64 + ^ x27: .cfa -72 + ^ x28: .cfa -80 + ^ .ra: .cfa -88 + ^ x29: .cfa -96 + ^
STACK CFI 17820 .cfa: sp 112 +
STACK CFI 17824 .cfa: x29 96 +
STACK CFI 1782c .cfa: sp 112 +
STACK CFI 17848 .cfa: sp 0 +
STACK CFI 1784c .cfa: x29 96 +
STACK CFI 1786c .cfa: sp 112 +
STACK CFI INIT 17870 e54 .cfa: sp 0 +
STACK CFI 17874 .cfa: sp 192 +
STACK CFI 17890 .cfa: x29 96 + x19: .cfa -8 + ^ x20: .cfa -16 + ^ x21: .cfa -24 + ^ x22: .cfa -32 + ^ x23: .cfa -40 + ^ x24: .cfa -48 + ^ x25: .cfa -56 + ^ x26: .cfa -64 + ^ x27: .cfa -72 + ^ x28: .cfa -80 + ^ .ra: .cfa -88 + ^ x29: .cfa -96 + ^
STACK CFI 185ac .cfa: sp 192 +
STACK CFI 185c8 .cfa: sp 0 +
STACK CFI 185cc .cfa: x29 96 +
STACK CFI INIT 186c4 1068 .cfa: sp 0 +
STACK CFI 186c8 .cfa: sp 288 +
STACK CFI 186e4 .cfa: x29 96 + x19: .cfa -8 + ^ x20: .cfa -16 + ^ x21: .cfa -24 + ^ x22: .cfa -32 + ^ x23: .cfa -40 + ^ x24: .cfa -48 + ^ x25: .cfa -56 + ^ x26: .cfa -64 + ^ x27: .cfa -72 + ^ x28: .cfa -80 + ^ .ra: .cfa -88 + ^ x29: .cfa -96 + ^
STACK CFI 19474 .cfa: sp 288 +
STACK CFI 19490 .cfa: sp 0 +
STACK CFI 19494 .cfa: x29 96 +
STACK CFI INIT 1972c 520 .cfa: sp 0 +
STACK CFI 19730 .cfa: sp 144 +
STACK CFI 1974c .cfa: x29 96 + x19: .cfa -8 + ^ x20: .cfa -16 + ^ x21: .cfa -24 + ^ x22: .cfa -32 + ^ x23: .cfa -40 + ^ x24: .cfa -48 + ^ x25: .cfa -56 + ^ x26: .cfa -64 + ^ x27: .cfa -72 + ^ x28: .cfa -80 + ^ .ra: .cfa -88 + ^ x29: .cfa -96 + ^
STACK CFI 19c28 .cfa: sp 144 +
STACK CFI 19c44 .cfa: sp 0 +
STACK CFI 19c48 .cfa: x29 96 +
STACK CFI INIT 1a5ec 136c .cfa: sp 0 +
STACK CFI 1a5f0 .cfa: sp 224 +
STACK CFI 1a60c .cfa: x29 96 + x19: .cfa -8 + ^ x20: .cfa -16 + ^ x21: .cfa -24 + ^ x22: .cfa -32 + ^ x23: .cfa -40 + ^ x24: .cfa -48 + ^ x25: .cfa -56 + ^ x26: .cfa -64 + ^ x27: .cfa -72 + ^ x28: .cfa -80 + ^ .ra: .cfa -88 + ^ x29: .cfa -96 + ^
STACK CFI 1b934 .cfa: sp 224 +
STACK CFI 1b950 .cfa: sp 0 +
STACK CFI 1b954 .cfa: x29 96 +
STACK CFI INIT 1b958 1b8 .cfa: sp 0 +
STACK CFI INIT 69f0 bd4 .cfa: sp 0 +
STACK CFI 69f4 .cfa: sp 240 +
STACK CFI 6a10 .cfa: x29 96 + x19: .cfa -8 + ^ x20: .cfa -16 + ^ x21: .cfa -24 + ^ x22: .cfa -32 + ^ x23: .cfa -40 + ^ x24: .cfa -48 + ^ x25: .cfa -56 + ^ x26: .cfa -64 + ^ x27: .cfa -72 + ^ x28: .cfa -80 + ^ .ra: .cfa -88 + ^ x29: .cfa -96 + ^
STACK CFI 6dec .cfa: sp 240 +
STACK CFI 6e08 .cfa: sp 0 +
STACK CFI 6e0c .cfa: x29 96 +
STACK CFI 746c .cfa: sp 240 +
STACK CFI 7488 .cfa: sp 0 +
STACK CFI 748c .cfa: x29 96 +
STACK CFI INIT 75dc 5bc .cfa: sp 0 +
STACK CFI 75e0 .cfa: sp 224 +
STACK CFI 75fc .cfa: x29 96 + x19: .cfa -8 + ^ x20: .cfa -16 + ^ x21: .cfa -24 + ^ x22: .cfa -32 + ^ x23: .cfa -40 + ^ x24: .cfa -48 + ^ x25: .cfa -56 + ^ x26: .cfa -64 + ^ x27: .cfa -72 + ^ x28: .cfa -80 + ^ .ra: .cfa -88 + ^ x29: .cfa -96 + ^
STACK CFI 7a94 .cfa: sp 224 +
STACK CFI 7ab0 .cfa: sp 0 +
STACK CFI 7ab4 .cfa: x29 96 +
STACK CFI INIT 7be8 74 .cfa: sp 0 +
STACK CFI 7bec .cfa: sp 48 +
STACK CFI 7bf8 .cfa: x29 32 + x19: .cfa -8 + ^ x20: .cfa -16 + ^ .ra: .cfa -24 + ^ x29: .cfa -32 + ^
STACK CFI 7c44 .cfa: sp 48 +
STACK CFI 7c50 .cfa: sp 0 +
STACK CFI 7c54 .cfa: x29 32 +
STACK CFI INIT 7cec 6fc .cfa: sp 0 +
STACK CFI 7cf0 .cfa: sp 496 +
STACK CFI 7d0c .cfa: x29 96 + x19: .cfa -8 + ^ x20: .cfa -16 + ^ x21: .cfa -24 + ^ x22: .cfa -32 + ^ x23: .cfa -40 + ^ x24: .cfa -48 + ^ x25: .cfa -56 + ^ x26: .cfa -64 + ^ x27: .cfa -72 + ^ x28: .cfa -80 + ^ .ra: .cfa -88 + ^ x29: .cfa -96 + ^
STACK CFI 82bc .cfa: sp 496 +
STACK CFI 82d8 .cfa: sp 0 +
STACK CFI 82dc .cfa: x29 96 +
STACK CFI INIT 84d4 50 .cfa: sp 0 +
STACK CFI 84d8 .cfa: sp 32 +
STACK CFI 84e0 .cfa: x29 32 + x19: .cfa -8 + ^ x20: .cfa -16 + ^ .ra: .cfa -24 + ^ x29: .cfa -32 + ^
STACK CFI INIT 8720 13cc .cfa: sp 0 +
STACK CFI 8724 .cfa: sp 144 +
STACK CFI 8748 .cfa: x29 96 + x19: .cfa -8 + ^ x20: .cfa -16 + ^ x21: .cfa -24 + ^ x22: .cfa -32 + ^ x23: .cfa -40 + ^ x24: .cfa -48 + ^ x25: .cfa -56 + ^ x26: .cfa -64 + ^ x27: .cfa -72 + ^ x28: .cfa -80 + ^ .ra: .cfa -88 + ^ x29: .cfa -96 + ^ v8: .cfa -104 + ^ v9: .cfa -112 + ^ v10: .cfa -120 + ^ v11: .cfa -128 + ^ v12: .cfa -144 + ^
STACK CFI 964c .cfa: sp 144 +
STACK CFI 9670 .cfa: sp 0 +
STACK CFI 9674 .cfa: x29 96 +
STACK CFI INIT 9aec a8 .cfa: sp 0 +
STACK CFI 9af0 .cfa: sp 32 +
STACK CFI 9af8 .cfa: x29 32 + x19: .cfa -16 + ^ .ra: .cfa -24 + ^ x29: .cfa -32 + ^
STACK CFI 9b2c .cfa: sp 32 +
STACK CFI 9b34 .cfa: sp 0 +
STACK CFI 9b38 .cfa: x29 32 +
STACK CFI 9b3c .cfa: sp 32 +
STACK CFI 9b44 .cfa: sp 0 +
STACK CFI 9b48 .cfa: x29 32 +
STACK CFI INIT a040 294 .cfa: sp 0 +
STACK CFI a044 .cfa: sp 240 +
STACK CFI a05c .cfa: x29 80 + x19: .cfa -8 + ^ x20: .cfa -16 + ^ x21: .cfa -24 + ^ x22: .cfa -32 + ^ x23: .cfa -40 + ^ x24: .cfa -48 + ^ x25: .cfa -64 + ^ .ra: .cfa -72 + ^ x29: .cfa -80 + ^
STACK CFI a1fc .cfa: sp 240 +
STACK CFI a214 .cfa: sp 0 +
STACK CFI a218 .cfa: x29 80 +
STACK CFI INIT a350 50 .cfa: sp 0 +
STACK CFI a354 .cfa: sp 32 +
STACK CFI a35c .cfa: x29 32 + x19: .cfa -8 + ^ x20: .cfa -16 + ^ .ra: .cfa -24 + ^ x29: .cfa -32 + ^
STACK CFI INIT a3cc 7c0 .cfa: sp 0 +
STACK CFI a3d0 .cfa: sp 320 +
STACK CFI a3ec .cfa: x29 96 + x19: .cfa -8 + ^ x20: .cfa -16 + ^ x21: .cfa -24 + ^ x22: .cfa -32 + ^ x23: .cfa -40 + ^ x24: .cfa -48 + ^ x25: .cfa -56 + ^ x26: .cfa -64 + ^ x27: .cfa -72 + ^ x28: .cfa -80 + ^ .ra: .cfa -88 + ^ x29: .cfa -96 + ^
STACK CFI aa3c .cfa: sp 320 +
STACK CFI aa58 .cfa: sp 0 +
STACK CFI aa5c .cfa: x29 96 +
STACK CFI INIT ef0c c74 .cfa: sp 0 +
STACK CFI ef10 .cfa: sp 96 +
STACK CFI ef28 .cfa: x29 96 + x19: .cfa -8 + ^ x20: .cfa -16 + ^ x21: .cfa -24 + ^ x22: .cfa -32 + ^ x23: .cfa -40 + ^ x24: .cfa -48 + ^ x25: .cfa -56 + ^ x26: .cfa -64 + ^ x27: .cfa -72 + ^ x28: .cfa -80 + ^ .ra: .cfa -88 + ^ x29: .cfa -96 + ^
STACK CFI f9a0 .cfa: sp 96 +
STACK CFI f9b8 .cfa: sp 0 +
STACK CFI f9bc .cfa: x29 96 +
STACK CFI INIT fcd4 26c .cfa: sp 0 +
STACK CFI fcd8 .cfa: sp 128 +
STACK CFI fce8 .cfa: x29 48 + x19: .cfa -8 + ^ x20: .cfa -16 + ^ x21: .cfa -24 + ^ x22: .cfa -32 + ^ .ra: .cfa -40 + ^ x29: .cfa -48 + ^
STACK CFI fe8c .cfa: sp 128 +
STACK CFI fe9c .cfa: sp 0 +
STACK CFI fea0 .cfa: x29 48 +
STACK CFI INIT 1048c 3b8 .cfa: sp 0 +
STACK CFI 10490 .cfa: sp 96 +
STACK CFI 104a8 .cfa: x29 96 + x19: .cfa -8 + ^ x20: .cfa -16 + ^ x21: .cfa -24 + ^ x22: .cfa -32 + ^ x23: .cfa -40 + ^ x24: .cfa -48 + ^ x25: .cfa -56 + ^ x26: .cfa -64 + ^ x27: .cfa -72 + ^ x28: .cfa -80 + ^ .ra: .cfa -88 + ^ x29: .cfa -96 + ^
STACK CFI 107e4 .cfa: sp 96 +
STACK CFI 107fc .cfa: sp 0 +
STACK CFI 10800 .cfa: x29 96 +
STACK CFI INIT 108e4 cb4 .cfa: sp 0 +
STACK CFI 108e8 .cfa: sp 96 +
STACK CFI 10900 .cfa: x29 96 + x19: .cfa -8 + ^ x20: .cfa -16 + ^ x21: .cfa -24 + ^ x22: .cfa -32 + ^ x23: .cfa -40 + ^ x24: .cfa -48 + ^ x25: .cfa -56 + ^ x26: .cfa -64 + ^ x27: .cfa -72 + ^ x28: .cfa -80 + ^ .ra: .cfa -88 + ^ x29: .cfa -96 + ^
STACK CFI 113a8 .cfa: sp 96 +
STACK CFI 113c0 .cfa: sp 0 +
STACK CFI 113c4 .cfa: x29 96 +
STACK CFI INIT 11880 afc .cfa: sp 0 +
STACK CFI 11884 .cfa: sp 96 +
STACK CFI 1189c .cfa: x29 96 + x19: .cfa -8 + ^ x20: .cfa -16 + ^ x21: .cfa -24 + ^ x22: .cfa -32 + ^ x23: .cfa -40 + ^ x24: .cfa -48 + ^ x25: .cfa -56 + ^ x26: .cfa -64 + ^ x27: .cfa -72 + ^ x28: .cfa -80 + ^ .ra: .cfa -88 + ^ x29: .cfa -96 + ^
STACK CFI 122f0 .cfa: sp 96 +
STACK CFI 12308 .cfa: sp 0 +
STACK CFI 1230c .cfa: x29 96 +
STACK CFI INIT 12558 1430 .cfa: sp 0 +
STACK CFI 1255c .cfa: sp 96 +
STACK CFI 12574 .cfa: x29 96 + x19: .cfa -8 + ^ x20: .cfa -16 + ^ x21: .cfa -24 + ^ x22: .cfa -32 + ^ x23: .cfa -40 + ^ x24: .cfa -48 + ^ x25: .cfa -56 + ^ x26: .cfa -64 + ^ x27: .cfa -72 + ^ x28: .cfa -80 + ^ .ra: .cfa -88 + ^ x29: .cfa -96 + ^
STACK CFI 13810 .cfa: sp 96 +
STACK CFI 13828 .cfa: sp 0 +
STACK CFI 1382c .cfa: x29 96 +
STACK CFI INIT 13aac 75c .cfa: sp 0 +
STACK CFI 13ab0 .cfa: sp 368 +
STACK CFI 13acc .cfa: x29 96 + x19: .cfa -8 + ^ x20: .cfa -16 + ^ x21: .cfa -24 + ^ x22: .cfa -32 + ^ x23: .cfa -40 + ^ x24: .cfa -48 + ^ x25: .cfa -56 + ^ x26: .cfa -64 + ^ x27: .cfa -72 + ^ x28: .cfa -80 + ^ .ra: .cfa -88 + ^ x29: .cfa -96 + ^
STACK CFI 13b80 .cfa: sp 368 +
STACK CFI 13b9c .cfa: sp 0 +
STACK CFI 13ba0 .cfa: x29 96 +
STACK CFI 13bf4 .cfa: sp 368 +
STACK CFI 13c10 .cfa: sp 0 +
STACK CFI 13c14 .cfa: x29 96 +
STACK CFI INIT 145c8 eb0 .cfa: sp 0 +
STACK CFI 145cc .cfa: sp 96 +
STACK CFI 145e4 .cfa: x29 96 + x19: .cfa -8 + ^ x20: .cfa -16 + ^ x21: .cfa -24 + ^ x22: .cfa -32 + ^ x23: .cfa -40 + ^ x24: .cfa -48 + ^ x25: .cfa -56 + ^ x26: .cfa -64 + ^ x27: .cfa -72 + ^ x28: .cfa -80 + ^ .ra: .cfa -88 + ^ x29: .cfa -96 + ^
STACK CFI 1528c .cfa: sp 96 +
STACK CFI 152a4 .cfa: sp 0 +
STACK CFI 152a8 .cfa: x29 96 +
STACK CFI INIT 157ec 1c9c .cfa: sp 0 +
STACK CFI 157f0 .cfa: sp 112 +
STACK CFI 1580c .cfa: x29 96 + x19: .cfa -8 + ^ x20: .cfa -16 + ^ x21: .cfa -24 + ^ x22: .cfa -32 + ^ x23: .cfa -40 + ^ x24: .cfa -48 + ^ x25: .cfa -56 + ^ x26: .cfa -64 + ^ x27: .cfa -72 + ^ x28: .cfa -80 + ^ .ra: .cfa -88 + ^ x29: .cfa -96 + ^ v8: .cfa -112 + ^
STACK CFI 15bf4 .cfa: sp 112 +
STACK CFI 15c10 .cfa: sp 0 +
STACK CFI 15c14 .cfa: x29 96 +
STACK CFI INIT 19c4c 9a0 .cfa: sp 0 +
STACK CFI 19c50 .cfa: sp 144 +
STACK CFI 19c68 .cfa: x29 80 + x19: .cfa -8 + ^ x20: .cfa -16 + ^ x21: .cfa -24 + ^ x22: .cfa -32 + ^ x23: .cfa -40 + ^ x24: .cfa -48 + ^ x25: .cfa -64 + ^ .ra: .cfa -72 + ^ x29: .cfa -80 + ^
STACK CFI 1a568 .cfa: sp 144 +
STACK CFI 1a580 .cfa: sp 0 +
STACK CFI 1a584 .cfa: x29 80 +
STACK CFI INIT 1bb10 57c .cfa: sp 0 +
STACK CFI 1bb14 .cfa: sp 96 +
STACK CFI 1bb2c .cfa: x29 96 + x19: .cfa -8 + ^ x20: .cfa -16 + ^ x21: .cfa -24 + ^ x22: .cfa -32 + ^ x23: .cfa -40 + ^ x24: .cfa -48 + ^ x25: .cfa -56 + ^ x26: .cfa -64 + ^ x27: .cfa -72 + ^ x28: .cfa -80 + ^ .ra: .cfa -88 + ^ x29: .cfa -96 + ^
STACK CFI 1bff0 .cfa: sp 96 +
STACK CFI 1c008 .cfa: sp 0 +
STACK CFI 1c00c .cfa: x29 96 +
STACK CFI INIT 1c08c 67c .cfa: sp 0 +
STACK CFI 1c090 .cfa: sp 96 +
STACK CFI 1c0a8 .cfa: x29 96 + x19: .cfa -8 + ^ x20: .cfa -16 + ^ x21: .cfa -24 + ^ x22: .cfa -32 + ^ x23: .cfa -40 + ^ x24: .cfa -48 + ^ x25: .cfa -56 + ^ x26: .cfa -64 + ^ x27: .cfa -72 + ^ x28: .cfa -80 + ^ .ra: .cfa -88 + ^ x29: .cfa -96 + ^
STACK CFI 1c66c .cfa: sp 96 +
STACK CFI 1c684 .cfa: sp 0 +
STACK CFI 1c688 .cfa: x29 96 +
