MODULE Linux arm64 57E796289D0937F8247E15405C8EB4E50 alphalaneous.mod_previews.android64.so
INFO CODE_ID 2896E757099DF837247E15405C8EB4E5944B8E6E
INFO GENERATOR mozilla/dump_syms 2.3.4
PUBLIC 1a5a0 0 __on_dlclose
PUBLIC 1a5b0 0 __emutls_unregister_key
PUBLIC 1a5b8 0 __on_dlclose_late
PUBLIC 1a5c0 0 __atexit_handler_wrapper
PUBLIC 1a5d4 0 atexit
PUBLIC 1a5f0 0 pthread_atfork
PUBLIC 1a600 0 unwind_phase2
PUBLIC 1a734 0 _Unwind_Resume
PUBLIC 1a7b8 0 unwind_phase2_forced
PUBLIC m 1a8ac 0 __unw_init_local
PUBLIC m 1a954 0 __unw_get_reg
PUBLIC 1a9d0 0 __unw_step_stage2
PUBLIC m 1a9e4 0 __unw_get_proc_info
PUBLIC m 1aa24 0 __unw_resume
PUBLIC 1aa4c 0 libunwind::CFI_Parser<libunwind::LocalAddressSpace>::decodeFDE(libunwind::LocalAddressSpace&, unsigned long, libunwind::CFI_Parser<libunwind::LocalAddressSpace>::FDE_Info*, libunwind::CFI_Parser<libunwind::LocalAddressSpace>::CIE_Info*, bool)
PUBLIC 1abdc 0 libunwind::CFI_Parser<libunwind::LocalAddressSpace>::parseCIE(libunwind::LocalAddressSpace&, unsigned long, libunwind::CFI_Parser<libunwind::LocalAddressSpace>::CIE_Info*)
PUBLIC 1aea4 0 libunwind::AbstractUnwindCursor::~AbstractUnwindCursor()
PUBLIC 1aeac 0 libunwind::UnwindCursor<libunwind::LocalAddressSpace, libunwind::Registers_arm64>::~UnwindCursor()
PUBLIC 1aeb4 0 libunwind::UnwindCursor<libunwind::LocalAddressSpace, libunwind::Registers_arm64>::validReg(int)
PUBLIC 1aef8 0 libunwind::UnwindCursor<libunwind::LocalAddressSpace, libunwind::Registers_arm64>::getReg(int)
PUBLIC 1afe0 0 libunwind::UnwindCursor<libunwind::LocalAddressSpace, libunwind::Registers_arm64>::setReg(int, unsigned long)
PUBLIC 1b0c8 0 libunwind::UnwindCursor<libunwind::LocalAddressSpace, libunwind::Registers_arm64>::validFloatReg(int)
PUBLIC 1b0dc 0 libunwind::UnwindCursor<libunwind::LocalAddressSpace, libunwind::Registers_arm64>::getFloatReg(int)
PUBLIC 1b0ec 0 libunwind::UnwindCursor<libunwind::LocalAddressSpace, libunwind::Registers_arm64>::setFloatReg(int, double)
PUBLIC 1b0fc 0 libunwind::UnwindCursor<libunwind::LocalAddressSpace, libunwind::Registers_arm64>::step(bool)
PUBLIC 1b1ec 0 libunwind::UnwindCursor<libunwind::LocalAddressSpace, libunwind::Registers_arm64>::getInfo(unw_proc_info_t*)
PUBLIC 1b230 0 libunwind::UnwindCursor<libunwind::LocalAddressSpace, libunwind::Registers_arm64>::jumpto()
PUBLIC 1b23c 0 libunwind::UnwindCursor<libunwind::LocalAddressSpace, libunwind::Registers_arm64>::isSignalFrame()
PUBLIC 1b248 0 libunwind::UnwindCursor<libunwind::LocalAddressSpace, libunwind::Registers_arm64>::getFunctionName(char*, unsigned long, unsigned long*)
PUBLIC 1b274 0 libunwind::UnwindCursor<libunwind::LocalAddressSpace, libunwind::Registers_arm64>::setInfoBasedOnIPRegister(bool)
PUBLIC 1b4b0 0 libunwind::UnwindCursor<libunwind::LocalAddressSpace, libunwind::Registers_arm64>::getRegisterName(int)
PUBLIC 1b4bc 0 libunwind::UnwindCursor<libunwind::LocalAddressSpace, libunwind::Registers_arm64>::stepThroughSigReturn(libunwind::Registers_arm64&)
PUBLIC 1b5dc 0 libunwind::DwarfInstructions<libunwind::LocalAddressSpace, libunwind::Registers_arm64>::stepWithDwarf(libunwind::LocalAddressSpace&, unsigned long, unsigned long, libunwind::Registers_arm64&, bool&, bool)
PUBLIC 1ba70 0 libunwind::CFI_Parser<libunwind::LocalAddressSpace>::parseFDEInstructions(libunwind::LocalAddressSpace&, libunwind::CFI_Parser<libunwind::LocalAddressSpace>::FDE_Info const&, libunwind::CFI_Parser<libunwind::LocalAddressSpace>::CIE_Info const&, unsigned long, int, libunwind::CFI_Parser<libunwind::LocalAddressSpace>::PrologInfo*)
PUBLIC 1c5e8 0 libunwind::DwarfInstructions<libunwind::LocalAddressSpace, libunwind::Registers_arm64>::getCFA(libunwind::LocalAddressSpace&, libunwind::CFI_Parser<libunwind::LocalAddressSpace>::PrologInfo const&, libunwind::Registers_arm64 const&)
PUBLIC 1c71c 0 libunwind::DwarfInstructions<libunwind::LocalAddressSpace, libunwind::Registers_arm64>::getSavedRegister(libunwind::LocalAddressSpace&, libunwind::Registers_arm64 const&, unsigned long, libunwind::CFI_Parser<libunwind::LocalAddressSpace>::RegisterLocation const&)
PUBLIC 1c92c 0 libunwind::LocalAddressSpace::getEncodedP(unsigned long&, unsigned long, unsigned char, unsigned long)
PUBLIC 1ccb8 0 libunwind::LocalAddressSpace::getULEB128(unsigned long&, unsigned long)
PUBLIC 1ce80 0 libunwind::DwarfInstructions<libunwind::LocalAddressSpace, libunwind::Registers_arm64>::evaluateExpression(unsigned long, libunwind::LocalAddressSpace&, libunwind::Registers_arm64 const&, unsigned long)
PUBLIC 1d844 0 libunwind::UnwindCursor<libunwind::LocalAddressSpace, libunwind::Registers_arm64>::getInfoFromDwarfSection(unsigned long, libunwind::UnwindInfoSections const&, unsigned int)
PUBLIC 1db18 0 libunwind::findUnwindSectionsByPhdr(dl_phdr_info*, unsigned long, void*)
PUBLIC 1dc48 0 libunwind::EHHeaderParser<libunwind::LocalAddressSpace>::decodeEHHdr(libunwind::LocalAddressSpace&, unsigned long, unsigned long, libunwind::EHHeaderParser<libunwind::LocalAddressSpace>::EHHeaderInfo&)
PUBLIC 1dd68 0 libunwind::CFI_Parser<libunwind::LocalAddressSpace>::findFDE(libunwind::LocalAddressSpace&, unsigned long, unsigned long, unsigned long, unsigned long, libunwind::CFI_Parser<libunwind::LocalAddressSpace>::FDE_Info*, libunwind::CFI_Parser<libunwind::LocalAddressSpace>::CIE_Info*)
PUBLIC 1df30 0 libunwind::EHHeaderParser<libunwind::LocalAddressSpace>::findFDE(libunwind::LocalAddressSpace&, unsigned long, unsigned long, unsigned int, libunwind::CFI_Parser<libunwind::LocalAddressSpace>::FDE_Info*, libunwind::CFI_Parser<libunwind::LocalAddressSpace>::CIE_Info*)
PUBLIC 1e098 0 libunwind::EHHeaderParser<libunwind::LocalAddressSpace>::getTableEntrySize(unsigned char)
PUBLIC 1e194 0 libunwind::Registers_arm64::getRegisterName(int)
PUBLIC 1e1c4 0 __libunwind_Registers_arm64_jumpto
PUBLIC m 1e254 0 __unw_getcontext
PUBLIC 1e2f0 0 ImageCache::addImage(cocos2d::CCImage*, std::__ndk1::basic_string<char, std::__ndk1::char_traits<char>, std::__ndk1::allocator<char> >)
PUBLIC 1e604 0 std::__ndk1::pair<std::__ndk1::basic_string<char, std::__ndk1::char_traits<char>, std::__ndk1::allocator<char> >, geode::Ref<cocos2d::CCImage> >::~pair()
PUBLIC 1e648 0 ImageCache::getImage(std::__ndk1::basic_string<char, std::__ndk1::char_traits<char>, std::__ndk1::allocator<char> >)
PUBLIC 1e7ac 0 __clang_call_terminate
PUBLIC 1e7bc 0 std::__ndk1::vector<std::__ndk1::pair<std::__ndk1::basic_string<char, std::__ndk1::char_traits<char>, std::__ndk1::allocator<char> >, geode::Ref<cocos2d::CCImage> >, std::__ndk1::allocator<std::__ndk1::pair<std::__ndk1::basic_string<char, std::__ndk1::char_traits<char>, std::__ndk1::allocator<char> >, geode::Ref<cocos2d::CCImage> > > >::__throw_length_error[abi:ne190000]() const
PUBLIC 1e7d0 0 std::__ndk1::__throw_length_error[abi:ne190000](char const*)
PUBLIC 1e820 0 std::length_error::length_error[abi:ne190000](char const*)
PUBLIC 1e850 0 std::__throw_bad_array_new_length([abi:ne190000], void)
PUBLIC 1e884 0 std::__ndk1::basic_string<char, std::__ndk1::char_traits<char>, std::__ndk1::allocator<char> >::__init_copy_ctor_external(char const*, unsigned long)
PUBLIC 1e918 0 std::__ndk1::basic_string<char, std::__ndk1::char_traits<char>, std::__ndk1::allocator<char> >::__throw_length_error[abi:ne190000]() const
PUBLIC 1e930 0 __aarch64_ldadd8_relax
PUBLIC 1e960 0 init_have_lse_atomics
PUBLIC 1e9f8 0 __init_cpu_features_constructor
PUBLIC 1eca4 0 __init_cpu_features
PUBLIC 1ed30 0 __aarch64_ldadd8_acq_rel
PUBLIC 1ed60 0 ImagePopup::init(int, int, std::__ndk1::basic_string<char, std::__ndk1::char_traits<char>, std::__ndk1::allocator<char> >)
PUBLIC 1f350 0 geode::Mod::getSettingValue<bool>(std::__ndk1::basic_string_view<char, std::__ndk1::char_traits<char> >) const
PUBLIC 1f47c 0 ImagePopup::showImage(int)
PUBLIC 1f7a4 0 ImagePopup::setup()
PUBLIC 1f9f8 0 ImagePopup::onPrev(cocos2d::CCObject*)
PUBLIC 1fa14 0 ImagePopup::onNext(cocos2d::CCObject*)
PUBLIC 1fa30 0 ImagePopup::onClose(cocos2d::CCObject*)
PUBLIC 1fa80 0 ImagePopup::create(int, int, std::__ndk1::basic_string<char, std::__ndk1::char_traits<char>, std::__ndk1::allocator<char> >)
PUBLIC 1fc00 0 cocos2d::CCCopying::copyWithZone(cocos2d::CCZone*)
PUBLIC 1fc08 0 ImagePopup::~ImagePopup()
PUBLIC 1fcc0 0 ImagePopup::~ImagePopup()
PUBLIC 1fd80 0 geode::Popup<>::registerWithTouchDispatcher()
PUBLIC 1fdac 0 geode::Popup<>::keyDown(cocos2d::enumKeyCodes)
PUBLIC 1fdd4 0 cocos2d::CCLayerRGBA::setOpacityModifyRGB(bool)
PUBLIC 1fdd8 0 cocos2d::CCLayerRGBA::isOpacityModifyRGB()
PUBLIC 1fde0 0 {virtual override thunk({offset(-320)}, ImagePopup::~ImagePopup())}
PUBLIC 1fe9c 0 {virtual override thunk({offset(-320)}, ImagePopup::~ImagePopup())}
PUBLIC 1ff60 0 {virtual override thunk({offset(-344)}, geode::Popup<>::keyDown(cocos2d::enumKeyCodes))}
PUBLIC 1ff8c 0 cocos2d::CCKeyboardDelegate::keyUp(cocos2d::enumKeyCodes)
PUBLIC 1ff90 0 cocos2d::CCMouseDelegate::rightKeyDown()
PUBLIC 1ff94 0 cocos2d::CCMouseDelegate::rightKeyUp()
PUBLIC 1ff98 0 cocos2d::CCMouseDelegate::scrollWheel(float, float)
PUBLIC 1ff9c 0 {virtual override thunk({offset(-408)}, cocos2d::CCLayerRGBA::setOpacityModifyRGB(bool))}
PUBLIC 1ffa0 0 {virtual override thunk({offset(-408)}, cocos2d::CCLayerRGBA::isOpacityModifyRGB())}
PUBLIC 1ffa8 0 std::__ndk1::basic_string<char, std::__ndk1::char_traits<char>, std::__ndk1::allocator<char> >::__assign_no_alias<true>(char const*, unsigned long)
PUBLIC 20054 0 std::__ndk1::basic_string<char, std::__ndk1::char_traits<char>, std::__ndk1::allocator<char> >::__assign_no_alias<false>(char const*, unsigned long)
PUBLIC 20190 0 geode::Popup<>::~Popup()
PUBLIC 201fc 0 geode::Popup<>::~Popup()
PUBLIC 20200 0 geode::Popup<>::onClose(cocos2d::CCObject*)
PUBLIC 20334 0 {virtual override thunk({offset(-320)}, geode::Popup<>::~Popup())}
PUBLIC 203a0 0 {virtual override thunk({offset(-320)}, geode::Popup<>::~Popup())}
PUBLIC 203a4 0 geode::Popup<>::CloseEvent::~CloseEvent()
PUBLIC 20404 0 geode::Popup<>::CloseEvent::~CloseEvent()
PUBLIC 20474 0 std::__ndk1::__shared_ptr_emplace<geode::Popup<>::CloseEvent::Impl, std::__ndk1::allocator<geode::Popup<>::CloseEvent::Impl> >::~__shared_ptr_emplace()
PUBLIC 20484 0 std::__ndk1::__shared_ptr_emplace<geode::Popup<>::CloseEvent::Impl, std::__ndk1::allocator<geode::Popup<>::CloseEvent::Impl> >::~__shared_ptr_emplace()
PUBLIC 204b4 0 std::__ndk1::__shared_ptr_emplace<geode::Popup<>::CloseEvent::Impl, std::__ndk1::allocator<geode::Popup<>::CloseEvent::Impl> >::__on_zero_shared()
PUBLIC 204b8 0 std::__ndk1::__shared_ptr_emplace<geode::Popup<>::CloseEvent::Impl, std::__ndk1::allocator<geode::Popup<>::CloseEvent::Impl> >::__on_zero_shared_weak()
PUBLIC 204bc 0 geode::cast::traverseTypeinfoFor(void*, geode::cast::ClassTypeinfoType const*, char const*)
PUBLIC 205c0 0 geode::Ref<cocos2d::CCNode>::~Ref()
PUBLIC 205dc 0 __cxx_global_var_init
PUBLIC 2073c 0 std::__ndk1::__function::__base<void (cocos2d::CCNode*)>::~__base()
PUBLIC 20740 0 std::__ndk1::__function::__func<AlphaUtils::ModifyLoad<MyModPopup>::ModifyLoad(std::__ndk1::basic_string<char, std::__ndk1::char_traits<char>, std::__ndk1::allocator<char> >)::{lambda(cocos2d::CCNode*)#1}, std::__ndk1::allocator<AlphaUtils::ModifyLoad<MyModPopup>::ModifyLoad(std::__ndk1::basic_string<char, std::__ndk1::char_traits<char>, std::__ndk1::allocator<char> >)::{lambda(cocos2d::CCNode*)#1}>, void (cocos2d::CCNode*)>::~__func()
PUBLIC 20744 0 std::__ndk1::__function::__func<AlphaUtils::ModifyLoad<MyModPopup>::ModifyLoad(std::__ndk1::basic_string<char, std::__ndk1::char_traits<char>, std::__ndk1::allocator<char> >)::{lambda(cocos2d::CCNode*)#1}, std::__ndk1::allocator<AlphaUtils::ModifyLoad<MyModPopup>::ModifyLoad(std::__ndk1::basic_string<char, std::__ndk1::char_traits<char>, std::__ndk1::allocator<char> >)::{lambda(cocos2d::CCNode*)#1}>, void (cocos2d::CCNode*)>::__clone() const
PUBLIC 20768 0 std::__ndk1::__function::__func<AlphaUtils::ModifyLoad<MyModPopup>::ModifyLoad(std::__ndk1::basic_string<char, std::__ndk1::char_traits<char>, std::__ndk1::allocator<char> >)::{lambda(cocos2d::CCNode*)#1}, std::__ndk1::allocator<AlphaUtils::ModifyLoad<MyModPopup>::ModifyLoad(std::__ndk1::basic_string<char, std::__ndk1::char_traits<char>, std::__ndk1::allocator<char> >)::{lambda(cocos2d::CCNode*)#1}>, void (cocos2d::CCNode*)>::__clone(std::__ndk1::__function::__base<void (cocos2d::CCNode*)>*) const
PUBLIC 20778 0 std::__ndk1::__function::__func<AlphaUtils::ModifyLoad<MyModPopup>::ModifyLoad(std::__ndk1::basic_string<char, std::__ndk1::char_traits<char>, std::__ndk1::allocator<char> >)::{lambda(cocos2d::CCNode*)#1}, std::__ndk1::allocator<AlphaUtils::ModifyLoad<MyModPopup>::ModifyLoad(std::__ndk1::basic_string<char, std::__ndk1::char_traits<char>, std::__ndk1::allocator<char> >)::{lambda(cocos2d::CCNode*)#1}>, void (cocos2d::CCNode*)>::destroy()
PUBLIC 2077c 0 std::__ndk1::__function::__func<AlphaUtils::ModifyLoad<MyModPopup>::ModifyLoad(std::__ndk1::basic_string<char, std::__ndk1::char_traits<char>, std::__ndk1::allocator<char> >)::{lambda(cocos2d::CCNode*)#1}, std::__ndk1::allocator<AlphaUtils::ModifyLoad<MyModPopup>::ModifyLoad(std::__ndk1::basic_string<char, std::__ndk1::char_traits<char>, std::__ndk1::allocator<char> >)::{lambda(cocos2d::CCNode*)#1}>, void (cocos2d::CCNode*)>::destroy_deallocate()
PUBLIC 20780 0 std::__ndk1::__function::__func<AlphaUtils::ModifyLoad<MyModPopup>::ModifyLoad(std::__ndk1::basic_string<char, std::__ndk1::char_traits<char>, std::__ndk1::allocator<char> >)::{lambda(cocos2d::CCNode*)#1}, std::__ndk1::allocator<AlphaUtils::ModifyLoad<MyModPopup>::ModifyLoad(std::__ndk1::basic_string<char, std::__ndk1::char_traits<char>, std::__ndk1::allocator<char> >)::{lambda(cocos2d::CCNode*)#1}>, void (cocos2d::CCNode*)>::operator()(cocos2d::CCNode*&&)
PUBLIC 21608 0 std::__ndk1::__function::__func<AlphaUtils::ModifyLoad<MyModPopup>::ModifyLoad(std::__ndk1::basic_string<char, std::__ndk1::char_traits<char>, std::__ndk1::allocator<char> >)::{lambda(cocos2d::CCNode*)#1}, std::__ndk1::allocator<AlphaUtils::ModifyLoad<MyModPopup>::ModifyLoad(std::__ndk1::basic_string<char, std::__ndk1::char_traits<char>, std::__ndk1::allocator<char> >)::{lambda(cocos2d::CCNode*)#1}>, void (cocos2d::CCNode*)>::target(std::type_info const&) const
PUBLIC 21624 0 std::__ndk1::__function::__func<AlphaUtils::ModifyLoad<MyModPopup>::ModifyLoad(std::__ndk1::basic_string<char, std::__ndk1::char_traits<char>, std::__ndk1::allocator<char> >)::{lambda(cocos2d::CCNode*)#1}, std::__ndk1::allocator<AlphaUtils::ModifyLoad<MyModPopup>::ModifyLoad(std::__ndk1::basic_string<char, std::__ndk1::char_traits<char>, std::__ndk1::allocator<char> >)::{lambda(cocos2d::CCNode*)#1}>, void (cocos2d::CCNode*)>::target_type() const
PUBLIC 21630 0 geode::modifier::FieldIntermediate<MyModPopup, cocos2d::CCNode>::self()
PUBLIC 21c3c 0 MyModPopup::showPopup(cocos2d::CCObject*)
PUBLIC 21d3c 0 std::__ndk1::vector<std::__ndk1::basic_string<char, std::__ndk1::char_traits<char>, std::__ndk1::allocator<char> >, std::__ndk1::allocator<std::__ndk1::basic_string<char, std::__ndk1::char_traits<char>, std::__ndk1::allocator<char> > > >::~vector[abi:ne190000]()
PUBLIC 21db8 0 AlphaUtils::Cocos::getChildByClassName(cocos2d::CCNode*, std::__ndk1::basic_string<char, std::__ndk1::char_traits<char>, std::__ndk1::allocator<char> >, int)
PUBLIC 21ff0 0 std::__ndk1::basic_string<char, std::__ndk1::char_traits<char>, std::__ndk1::allocator<char> >::__assign_external(char const*, unsigned long)
PUBLIC 22134 0 std::__ndk1::basic_string<char, std::__ndk1::char_traits<char>, std::__ndk1::allocator<char> >::__assign_external(char const*)
PUBLIC 22168 0 geode::modifier::FieldIntermediate<MyModPopup, cocos2d::CCNode>::fieldDestructor(void*)
PUBLIC 221b8 0 std::__ndk1::vector<void*, std::__ndk1::allocator<void*> >::__throw_length_error[abi:ne190000]() const
PUBLIC 221cc 0 std::__ndk1::vector<std::__ndk1::function<void (void*)>, std::__ndk1::allocator<std::__ndk1::function<void (void*)> > >::__throw_length_error[abi:ne190000]() const
PUBLIC 221e0 0 std::__ndk1::vector<void*, std::__ndk1::allocator<void*> >::__throw_out_of_range[abi:ne190000]() const
PUBLIC 221ec 0 std::__ndk1::__throw_out_of_range[abi:ne190000](char const*)
PUBLIC 2223c 0 std::out_of_range::out_of_range[abi:ne190000](char const*)
PUBLIC 2226c 0 std::__ndk1::vector<std::__ndk1::function<void (void*)>, std::__ndk1::allocator<std::__ndk1::function<void (void*)> > >::__throw_out_of_range[abi:ne190000]() const
PUBLIC 22278 0 std::__ndk1::__tree<std::__ndk1::__value_type<int, geode::Ref<CCMenuItemSpriteExtra> >, std::__ndk1::__map_value_compare<int, std::__ndk1::__value_type<int, geode::Ref<CCMenuItemSpriteExtra> >, std::__ndk1::less<int>, true>, std::__ndk1::allocator<std::__ndk1::__value_type<int, geode::Ref<CCMenuItemSpriteExtra> > > >::destroy(std::__ndk1::__tree_node<std::__ndk1::__value_type<int, geode::Ref<CCMenuItemSpriteExtra> >, void*>*)
PUBLIC 222c8 0 std::__ndk1::__tree<std::__ndk1::__value_type<int, geode::Ref<cocos2d::CCSprite> >, std::__ndk1::__map_value_compare<int, std::__ndk1::__value_type<int, geode::Ref<cocos2d::CCSprite> >, std::__ndk1::less<int>, true>, std::__ndk1::allocator<std::__ndk1::__value_type<int, geode::Ref<cocos2d::CCSprite> > > >::destroy(std::__ndk1::__tree_node<std::__ndk1::__value_type<int, geode::Ref<cocos2d::CCSprite> >, void*>*)
PUBLIC 22318 0 std::__ndk1::__tree<std::__ndk1::__value_type<std::__ndk1::basic_string<char, std::__ndk1::char_traits<char>, std::__ndk1::allocator<char> >, geode::EventListener<geode::Task<geode::utils::web::WebResponse, geode::utils::web::WebProgress> > >, std::__ndk1::__map_value_compare<std::__ndk1::basic_string<char, std::__ndk1::char_traits<char>, std::__ndk1::allocator<char> >, std::__ndk1::__value_type<std::__ndk1::basic_string<char, std::__ndk1::char_traits<char>, std::__ndk1::allocator<char> >, geode::EventListener<geode::Task<geode::utils::web::WebResponse, geode::utils::web::WebProgress> > >, std::__ndk1::less<std::__ndk1::basic_string<char, std::__ndk1::char_traits<char>, std::__ndk1::allocator<char> > >, true>, std::__ndk1::allocator<std::__ndk1::__value_type<std::__ndk1::basic_string<char, std::__ndk1::char_traits<char>, std::__ndk1::allocator<char> >, geode::EventListener<geode::Task<geode::utils::web::WebResponse, geode::utils::web::WebProgress> > > > >::destroy(std::__ndk1::__tree_node<std::__ndk1::__value_type<std::__ndk1::basic_string<char, std::__ndk1::char_traits<char>, std::__ndk1::allocator<char> >, geode::EventListener<geode::Task<geode::utils::web::WebResponse, geode::utils::web::WebProgress> > >, void*>*)
PUBLIC 223f0 0 geode::EventListener<geode::Task<geode::utils::web::WebResponse, geode::utils::web::WebProgress> >::~EventListener()
PUBLIC 2248c 0 geode::Task<geode::utils::web::WebResponse, geode::utils::web::WebProgress>::~Task()
PUBLIC 224dc 0 geode::EventListener<geode::Task<geode::utils::web::WebResponse, geode::utils::web::WebProgress> >::getPool() const
PUBLIC 224e0 0 geode::EventListener<geode::Task<geode::utils::web::WebResponse, geode::utils::web::WebProgress> >::handle(geode::Event*)
PUBLIC 226ac 0 geode::EventListener<geode::Task<geode::utils::web::WebResponse, geode::utils::web::WebProgress> >::~EventListener()
PUBLIC 22750 0 std::__ndk1::__throw_bad_function_call[abi:ne190000]()
PUBLIC 22784 0 std::__ndk1::bad_function_call::~bad_function_call()
PUBLIC 227a8 0 std::__ndk1::__function::__base<void (void*)>::~__base()
PUBLIC 227ac 0 std::__ndk1::__function::__func<void (*)(void*), std::__ndk1::allocator<void (*)(void*)>, void (void*)>::~__func()
PUBLIC 227b0 0 std::__ndk1::__function::__func<void (*)(void*), std::__ndk1::allocator<void (*)(void*)>, void (void*)>::__clone() const
PUBLIC 227e8 0 std::__ndk1::__function::__func<void (*)(void*), std::__ndk1::allocator<void (*)(void*)>, void (void*)>::__clone(std::__ndk1::__function::__base<void (void*)>*) const
PUBLIC 22800 0 std::__ndk1::__function::__func<void (*)(void*), std::__ndk1::allocator<void (*)(void*)>, void (void*)>::destroy()
PUBLIC 22804 0 std::__ndk1::__function::__func<void (*)(void*), std::__ndk1::allocator<void (*)(void*)>, void (void*)>::destroy_deallocate()
PUBLIC 22808 0 std::__ndk1::__function::__func<void (*)(void*), std::__ndk1::allocator<void (*)(void*)>, void (void*)>::operator()(void*&&)
PUBLIC 22818 0 std::__ndk1::__function::__func<void (*)(void*), std::__ndk1::allocator<void (*)(void*)>, void (void*)>::target(std::type_info const&) const
PUBLIC 22834 0 std::__ndk1::__function::__func<void (*)(void*), std::__ndk1::allocator<void (*)(void*)>, void (void*)>::target_type() const
PUBLIC 22840 0 std::__ndk1::__tree<std::__ndk1::__value_type<std::__ndk1::basic_string<char, std::__ndk1::char_traits<char>, std::__ndk1::allocator<char> >, geode::EventListener<geode::Task<geode::utils::web::WebResponse, geode::utils::web::WebProgress> > >, std::__ndk1::__map_value_compare<std::__ndk1::basic_string<char, std::__ndk1::char_traits<char>, std::__ndk1::allocator<char> >, std::__ndk1::__value_type<std::__ndk1::basic_string<char, std::__ndk1::char_traits<char>, std::__ndk1::allocator<char> >, geode::EventListener<geode::Task<geode::utils::web::WebResponse, geode::utils::web::WebProgress> > >, std::__ndk1::less<std::__ndk1::basic_string<char, std::__ndk1::char_traits<char>, std::__ndk1::allocator<char> > >, true>, std::__ndk1::allocator<std::__ndk1::__value_type<std::__ndk1::basic_string<char, std::__ndk1::char_traits<char>, std::__ndk1::allocator<char> >, geode::EventListener<geode::Task<geode::utils::web::WebResponse, geode::utils::web::WebProgress> > > > >::__emplace_unique_key_args<std::__ndk1::basic_string<char, std::__ndk1::char_traits<char>, std::__ndk1::allocator<char> >, std::__ndk1::piecewise_construct_t const&, std::__ndk1::tuple<std::__ndk1::basic_string<char, std::__ndk1::char_traits<char>, std::__ndk1::allocator<char> > const&>, std::__ndk1::tuple<> >(std::__ndk1::basic_string<char, std::__ndk1::char_traits<char>, std::__ndk1::allocator<char> > const&, std::__ndk1::piecewise_construct_t const&, std::__ndk1::tuple<std::__ndk1::basic_string<char, std::__ndk1::char_traits<char>, std::__ndk1::allocator<char> > const&>, std::__ndk1::tuple<>)
PUBLIC 22ae0 0 geode::Task<geode::utils::web::WebResponse, geode::utils::web::WebProgress>::setListener(geode::EventListenerProtocol*)
PUBLIC 22ce4 0 geode::Task<geode::utils::web::WebResponse, geode::utils::web::WebProgress>::setListener(geode::EventListenerProtocol*)::{lambda()#1}::~{lambda()#1}()
PUBLIC 22d34 0 geode::Task<geode::utils::web::WebResponse, geode::utils::web::WebProgress>::setListener(geode::EventListenerProtocol*)::{lambda()#2}::~{lambda()#2}()
PUBLIC 22d84 0 std::__ndk1::__function::__func<geode::Task<geode::utils::web::WebResponse, geode::utils::web::WebProgress>::setListener(geode::EventListenerProtocol*)::{lambda()#1}, std::__ndk1::allocator<geode::Task<geode::utils::web::WebResponse, geode::utils::web::WebProgress>::setListener(geode::EventListenerProtocol*)::{lambda()#1}>, void ()>::~__func()
PUBLIC 22de0 0 std::__ndk1::__function::__func<geode::Task<geode::utils::web::WebResponse, geode::utils::web::WebProgress>::setListener(geode::EventListenerProtocol*)::{lambda()#1}, std::__ndk1::allocator<geode::Task<geode::utils::web::WebResponse, geode::utils::web::WebProgress>::setListener(geode::EventListenerProtocol*)::{lambda()#1}>, void ()>::~__func()
PUBLIC 22e4c 0 std::__ndk1::__function::__func<geode::Task<geode::utils::web::WebResponse, geode::utils::web::WebProgress>::setListener(geode::EventListenerProtocol*)::{lambda()#1}, std::__ndk1::allocator<geode::Task<geode::utils::web::WebResponse, geode::utils::web::WebProgress>::setListener(geode::EventListenerProtocol*)::{lambda()#1}>, void ()>::__clone() const
PUBLIC 22ea4 0 std::__ndk1::__function::__func<geode::Task<geode::utils::web::WebResponse, geode::utils::web::WebProgress>::setListener(geode::EventListenerProtocol*)::{lambda()#1}, std::__ndk1::allocator<geode::Task<geode::utils::web::WebResponse, geode::utils::web::WebProgress>::setListener(geode::EventListenerProtocol*)::{lambda()#1}>, void ()>::__clone(std::__ndk1::__function::__base<void ()>*) const
PUBLIC 22ef0 0 std::__ndk1::__function::__func<geode::Task<geode::utils::web::WebResponse, geode::utils::web::WebProgress>::setListener(geode::EventListenerProtocol*)::{lambda()#1}, std::__ndk1::allocator<geode::Task<geode::utils::web::WebResponse, geode::utils::web::WebProgress>::setListener(geode::EventListenerProtocol*)::{lambda()#1}>, void ()>::destroy()
PUBLIC 22f40 0 std::__ndk1::__function::__func<geode::Task<geode::utils::web::WebResponse, geode::utils::web::WebProgress>::setListener(geode::EventListenerProtocol*)::{lambda()#1}, std::__ndk1::allocator<geode::Task<geode::utils::web::WebResponse, geode::utils::web::WebProgress>::setListener(geode::EventListenerProtocol*)::{lambda()#1}>, void ()>::destroy_deallocate()
PUBLIC 22fa0 0 std::__ndk1::__function::__func<geode::Task<geode::utils::web::WebResponse, geode::utils::web::WebProgress>::setListener(geode::EventListenerProtocol*)::{lambda()#1}, std::__ndk1::allocator<geode::Task<geode::utils::web::WebResponse, geode::utils::web::WebProgress>::setListener(geode::EventListenerProtocol*)::{lambda()#1}>, void ()>::operator()()
PUBLIC 23138 0 std::__ndk1::__function::__func<geode::Task<geode::utils::web::WebResponse, geode::utils::web::WebProgress>::setListener(geode::EventListenerProtocol*)::{lambda()#1}, std::__ndk1::allocator<geode::Task<geode::utils::web::WebResponse, geode::utils::web::WebProgress>::setListener(geode::EventListenerProtocol*)::{lambda()#1}>, void ()>::target(std::type_info const&) const
PUBLIC 23154 0 std::__ndk1::__function::__func<geode::Task<geode::utils::web::WebResponse, geode::utils::web::WebProgress>::setListener(geode::EventListenerProtocol*)::{lambda()#1}, std::__ndk1::allocator<geode::Task<geode::utils::web::WebResponse, geode::utils::web::WebProgress>::setListener(geode::EventListenerProtocol*)::{lambda()#1}>, void ()>::target_type() const
PUBLIC 23160 0 geode::Task<geode::utils::web::WebResponse, geode::utils::web::WebProgress>::Event::~Event()
PUBLIC 231c0 0 geode::Task<geode::utils::web::WebResponse, geode::utils::web::WebProgress>::Event::~Event()
PUBLIC 23230 0 std::__ndk1::__function::__func<geode::Task<geode::utils::web::WebResponse, geode::utils::web::WebProgress>::setListener(geode::EventListenerProtocol*)::{lambda()#2}, std::__ndk1::allocator<geode::Task<geode::utils::web::WebResponse, geode::utils::web::WebProgress>::setListener(geode::EventListenerProtocol*)::{lambda()#2}>, void ()>::~__func()
PUBLIC 2328c 0 std::__ndk1::__function::__func<geode::Task<geode::utils::web::WebResponse, geode::utils::web::WebProgress>::setListener(geode::EventListenerProtocol*)::{lambda()#2}, std::__ndk1::allocator<geode::Task<geode::utils::web::WebResponse, geode::utils::web::WebProgress>::setListener(geode::EventListenerProtocol*)::{lambda()#2}>, void ()>::~__func()
PUBLIC 232f8 0 std::__ndk1::__function::__func<geode::Task<geode::utils::web::WebResponse, geode::utils::web::WebProgress>::setListener(geode::EventListenerProtocol*)::{lambda()#2}, std::__ndk1::allocator<geode::Task<geode::utils::web::WebResponse, geode::utils::web::WebProgress>::setListener(geode::EventListenerProtocol*)::{lambda()#2}>, void ()>::__clone() const
PUBLIC 23350 0 std::__ndk1::__function::__func<geode::Task<geode::utils::web::WebResponse, geode::utils::web::WebProgress>::setListener(geode::EventListenerProtocol*)::{lambda()#2}, std::__ndk1::allocator<geode::Task<geode::utils::web::WebResponse, geode::utils::web::WebProgress>::setListener(geode::EventListenerProtocol*)::{lambda()#2}>, void ()>::__clone(std::__ndk1::__function::__base<void ()>*) const
PUBLIC 2339c 0 std::__ndk1::__function::__func<geode::Task<geode::utils::web::WebResponse, geode::utils::web::WebProgress>::setListener(geode::EventListenerProtocol*)::{lambda()#2}, std::__ndk1::allocator<geode::Task<geode::utils::web::WebResponse, geode::utils::web::WebProgress>::setListener(geode::EventListenerProtocol*)::{lambda()#2}>, void ()>::destroy()
PUBLIC 233ec 0 std::__ndk1::__function::__func<geode::Task<geode::utils::web::WebResponse, geode::utils::web::WebProgress>::setListener(geode::EventListenerProtocol*)::{lambda()#2}, std::__ndk1::allocator<geode::Task<geode::utils::web::WebResponse, geode::utils::web::WebProgress>::setListener(geode::EventListenerProtocol*)::{lambda()#2}>, void ()>::destroy_deallocate()
PUBLIC 2344c 0 std::__ndk1::__function::__func<geode::Task<geode::utils::web::WebResponse, geode::utils::web::WebProgress>::setListener(geode::EventListenerProtocol*)::{lambda()#2}, std::__ndk1::allocator<geode::Task<geode::utils::web::WebResponse, geode::utils::web::WebProgress>::setListener(geode::EventListenerProtocol*)::{lambda()#2}>, void ()>::operator()()
PUBLIC 235d4 0 std::__ndk1::__function::__func<geode::Task<geode::utils::web::WebResponse, geode::utils::web::WebProgress>::setListener(geode::EventListenerProtocol*)::{lambda()#2}, std::__ndk1::allocator<geode::Task<geode::utils::web::WebResponse, geode::utils::web::WebProgress>::setListener(geode::EventListenerProtocol*)::{lambda()#2}>, void ()>::target(std::type_info const&) const
PUBLIC 235f0 0 std::__ndk1::__function::__func<geode::Task<geode::utils::web::WebResponse, geode::utils::web::WebProgress>::setListener(geode::EventListenerProtocol*)::{lambda()#2}, std::__ndk1::allocator<geode::Task<geode::utils::web::WebResponse, geode::utils::web::WebProgress>::setListener(geode::EventListenerProtocol*)::{lambda()#2}>, void ()>::target_type() const
PUBLIC 235fc 0 std::__ndk1::__tree_balance_after_insert[abi:ne190000]<std::__ndk1::__tree_node_base<void*>*>(std::__ndk1::__tree_node_base<void*>*, std::__ndk1::__tree_node_base<void*>*)
PUBLIC 237a4 0 std::__ndk1::unique_ptr<std::__ndk1::__tree_node<std::__ndk1::__value_type<std::__ndk1::basic_string<char, std::__ndk1::char_traits<char>, std::__ndk1::allocator<char> >, geode::EventListener<geode::Task<geode::utils::web::WebResponse, geode::utils::web::WebProgress> > >, void*>, std::__ndk1::__tree_node_destructor<std::__ndk1::allocator<std::__ndk1::__tree_node<std::__ndk1::__value_type<std::__ndk1::basic_string<char, std::__ndk1::char_traits<char>, std::__ndk1::allocator<char> >, geode::EventListener<geode::Task<geode::utils::web::WebResponse, geode::utils::web::WebProgress> > >, void*> > > >::reset[abi:ne190000](std::__ndk1::__tree_node<std::__ndk1::__value_type<std::__ndk1::basic_string<char, std::__ndk1::char_traits<char>, std::__ndk1::allocator<char> >, geode::EventListener<geode::Task<geode::utils::web::WebResponse, geode::utils::web::WebProgress> > >, void*>*)
PUBLIC 23884 0 std::__ndk1::__function::__value_func<void (geode::Task<geode::utils::web::WebResponse, geode::utils::web::WebProgress>::Event*)>::swap[abi:ne190000](std::__ndk1::__function::__value_func<void (geode::Task<geode::utils::web::WebResponse, geode::utils::web::WebProgress>::Event*)>&)
PUBLIC 23a1c 0 std::__ndk1::__function::__func<MyModPopup::checkIfMain(std::__ndk1::basic_string<char, std::__ndk1::char_traits<char>, std::__ndk1::allocator<char> >, std::__ndk1::function<void (bool)>)::{lambda(geode::Task<geode::utils::web::WebResponse, geode::utils::web::WebProgress>::Event*)#1}, std::__ndk1::allocator<MyModPopup::checkIfMain(std::__ndk1::basic_string<char, std::__ndk1::char_traits<char>, std::__ndk1::allocator<char> >, std::__ndk1::function<void (bool)>)::{lambda(geode::Task<geode::utils::web::WebResponse, geode::utils::web::WebProgress>::Event*)#1}>, void (geode::Task<geode::utils::web::WebResponse, geode::utils::web::WebProgress>::Event*)>::~__func()
PUBLIC 23a68 0 std::__ndk1::__function::__func<MyModPopup::checkIfMain(std::__ndk1::basic_string<char, std::__ndk1::char_traits<char>, std::__ndk1::allocator<char> >, std::__ndk1::function<void (bool)>)::{lambda(geode::Task<geode::utils::web::WebResponse, geode::utils::web::WebProgress>::Event*)#1}, std::__ndk1::allocator<MyModPopup::checkIfMain(std::__ndk1::basic_string<char, std::__ndk1::char_traits<char>, std::__ndk1::allocator<char> >, std::__ndk1::function<void (bool)>)::{lambda(geode::Task<geode::utils::web::WebResponse, geode::utils::web::WebProgress>::Event*)#1}>, void (geode::Task<geode::utils::web::WebResponse, geode::utils::web::WebProgress>::Event*)>::~__func()
PUBLIC 23ac4 0 std::__ndk1::__function::__func<MyModPopup::checkIfMain(std::__ndk1::basic_string<char, std::__ndk1::char_traits<char>, std::__ndk1::allocator<char> >, std::__ndk1::function<void (bool)>)::{lambda(geode::Task<geode::utils::web::WebResponse, geode::utils::web::WebProgress>::Event*)#1}, std::__ndk1::allocator<MyModPopup::checkIfMain(std::__ndk1::basic_string<char, std::__ndk1::char_traits<char>, std::__ndk1::allocator<char> >, std::__ndk1::function<void (bool)>)::{lambda(geode::Task<geode::utils::web::WebResponse, geode::utils::web::WebProgress>::Event*)#1}>, void (geode::Task<geode::utils::web::WebResponse, geode::utils::web::WebProgress>::Event*)>::__clone() const
PUBLIC 23b60 0 std::__ndk1::__function::__func<MyModPopup::checkIfMain(std::__ndk1::basic_string<char, std::__ndk1::char_traits<char>, std::__ndk1::allocator<char> >, std::__ndk1::function<void (bool)>)::{lambda(geode::Task<geode::utils::web::WebResponse, geode::utils::web::WebProgress>::Event*)#1}, std::__ndk1::allocator<MyModPopup::checkIfMain(std::__ndk1::basic_string<char, std::__ndk1::char_traits<char>, std::__ndk1::allocator<char> >, std::__ndk1::function<void (bool)>)::{lambda(geode::Task<geode::utils::web::WebResponse, geode::utils::web::WebProgress>::Event*)#1}>, void (geode::Task<geode::utils::web::WebResponse, geode::utils::web::WebProgress>::Event*)>::__clone(std::__ndk1::__function::__base<void (geode::Task<geode::utils::web::WebResponse, geode::utils::web::WebProgress>::Event*)>*) const
PUBLIC 23be8 0 std::__ndk1::__function::__func<MyModPopup::checkIfMain(std::__ndk1::basic_string<char, std::__ndk1::char_traits<char>, std::__ndk1::allocator<char> >, std::__ndk1::function<void (bool)>)::{lambda(geode::Task<geode::utils::web::WebResponse, geode::utils::web::WebProgress>::Event*)#1}, std::__ndk1::allocator<MyModPopup::checkIfMain(std::__ndk1::basic_string<char, std::__ndk1::char_traits<char>, std::__ndk1::allocator<char> >, std::__ndk1::function<void (bool)>)::{lambda(geode::Task<geode::utils::web::WebResponse, geode::utils::web::WebProgress>::Event*)#1}>, void (geode::Task<geode::utils::web::WebResponse, geode::utils::web::WebProgress>::Event*)>::destroy()
PUBLIC 23c28 0 std::__ndk1::__function::__func<MyModPopup::checkIfMain(std::__ndk1::basic_string<char, std::__ndk1::char_traits<char>, std::__ndk1::allocator<char> >, std::__ndk1::function<void (bool)>)::{lambda(geode::Task<geode::utils::web::WebResponse, geode::utils::web::WebProgress>::Event*)#1}, std::__ndk1::allocator<MyModPopup::checkIfMain(std::__ndk1::basic_string<char, std::__ndk1::char_traits<char>, std::__ndk1::allocator<char> >, std::__ndk1::function<void (bool)>)::{lambda(geode::Task<geode::utils::web::WebResponse, geode::utils::web::WebProgress>::Event*)#1}>, void (geode::Task<geode::utils::web::WebResponse, geode::utils::web::WebProgress>::Event*)>::destroy_deallocate()
PUBLIC 23c78 0 std::__ndk1::__function::__func<MyModPopup::checkIfMain(std::__ndk1::basic_string<char, std::__ndk1::char_traits<char>, std::__ndk1::allocator<char> >, std::__ndk1::function<void (bool)>)::{lambda(geode::Task<geode::utils::web::WebResponse, geode::utils::web::WebProgress>::Event*)#1}, std::__ndk1::allocator<MyModPopup::checkIfMain(std::__ndk1::basic_string<char, std::__ndk1::char_traits<char>, std::__ndk1::allocator<char> >, std::__ndk1::function<void (bool)>)::{lambda(geode::Task<geode::utils::web::WebResponse, geode::utils::web::WebProgress>::Event*)#1}>, void (geode::Task<geode::utils::web::WebResponse, geode::utils::web::WebProgress>::Event*)>::operator()(geode::Task<geode::utils::web::WebResponse, geode::utils::web::WebProgress>::Event*&&)
PUBLIC 23d0c 0 std::__ndk1::__function::__func<MyModPopup::checkIfMain(std::__ndk1::basic_string<char, std::__ndk1::char_traits<char>, std::__ndk1::allocator<char> >, std::__ndk1::function<void (bool)>)::{lambda(geode::Task<geode::utils::web::WebResponse, geode::utils::web::WebProgress>::Event*)#1}, std::__ndk1::allocator<MyModPopup::checkIfMain(std::__ndk1::basic_string<char, std::__ndk1::char_traits<char>, std::__ndk1::allocator<char> >, std::__ndk1::function<void (bool)>)::{lambda(geode::Task<geode::utils::web::WebResponse, geode::utils::web::WebProgress>::Event*)#1}>, void (geode::Task<geode::utils::web::WebResponse, geode::utils::web::WebProgress>::Event*)>::target(std::type_info const&) const
PUBLIC 23d28 0 std::__ndk1::__function::__func<MyModPopup::checkIfMain(std::__ndk1::basic_string<char, std::__ndk1::char_traits<char>, std::__ndk1::allocator<char> >, std::__ndk1::function<void (bool)>)::{lambda(geode::Task<geode::utils::web::WebResponse, geode::utils::web::WebProgress>::Event*)#1}, std::__ndk1::allocator<MyModPopup::checkIfMain(std::__ndk1::basic_string<char, std::__ndk1::char_traits<char>, std::__ndk1::allocator<char> >, std::__ndk1::function<void (bool)>)::{lambda(geode::Task<geode::utils::web::WebResponse, geode::utils::web::WebProgress>::Event*)#1}>, void (geode::Task<geode::utils::web::WebResponse, geode::utils::web::WebProgress>::Event*)>::target_type() const
PUBLIC 23d34 0 std::__ndk1::__function::__func<MyModPopup::modify()::{lambda(bool)#1}, std::__ndk1::allocator<MyModPopup::modify()::{lambda(bool)#1}>, void (bool)>::~__func()
PUBLIC 23d54 0 std::__ndk1::__function::__func<MyModPopup::modify()::{lambda(bool)#1}, std::__ndk1::allocator<MyModPopup::modify()::{lambda(bool)#1}>, void (bool)>::~__func()
PUBLIC 23d94 0 std::__ndk1::__function::__func<MyModPopup::modify()::{lambda(bool)#1}, std::__ndk1::allocator<MyModPopup::modify()::{lambda(bool)#1}>, void (bool)>::__clone() const
PUBLIC 23e20 0 std::__ndk1::__function::__func<MyModPopup::modify()::{lambda(bool)#1}, std::__ndk1::allocator<MyModPopup::modify()::{lambda(bool)#1}>, void (bool)>::__clone(std::__ndk1::__function::__base<void (bool)>*) const
PUBLIC 23e64 0 std::__ndk1::__function::__func<MyModPopup::modify()::{lambda(bool)#1}, std::__ndk1::allocator<MyModPopup::modify()::{lambda(bool)#1}>, void (bool)>::destroy()
PUBLIC 23e78 0 std::__ndk1::__function::__func<MyModPopup::modify()::{lambda(bool)#1}, std::__ndk1::allocator<MyModPopup::modify()::{lambda(bool)#1}>, void (bool)>::destroy_deallocate()
PUBLIC 23eac 0 std::__ndk1::__function::__func<MyModPopup::modify()::{lambda(bool)#1}, std::__ndk1::allocator<MyModPopup::modify()::{lambda(bool)#1}>, void (bool)>::operator()(bool&&)
PUBLIC 24560 0 std::__ndk1::__function::__func<MyModPopup::modify()::{lambda(bool)#1}, std::__ndk1::allocator<MyModPopup::modify()::{lambda(bool)#1}>, void (bool)>::target(std::type_info const&) const
PUBLIC 2457c 0 std::__ndk1::__function::__func<MyModPopup::modify()::{lambda(bool)#1}, std::__ndk1::allocator<MyModPopup::modify()::{lambda(bool)#1}>, void (bool)>::target_type() const
PUBLIC 24588 0 MyModPopup::onImageDownloadFinish(int, cocos2d::CCSprite*)
PUBLIC 24a24 0 MyModPopup::listenForDescription(float)
PUBLIC 24ac4 0 MyModPopup::listenForBanner(float)
PUBLIC 24b68 0 MyModPopup::resizeDescription(cocos2d::CCNode*)
PUBLIC 24e1c 0 std::__ndk1::__function::__func<MyModPopup::modify()::{lambda(bool)#1}::operator()(bool) const::{lambda(geode::Task<geode::utils::web::WebResponse, geode::utils::web::WebProgress>::Event*)#1}, std::__ndk1::allocator<MyModPopup::modify()::{lambda(bool)#1}::operator()(bool) const::{lambda(geode::Task<geode::utils::web::WebResponse, geode::utils::web::WebProgress>::Event*)#1}>, void (geode::Task<geode::utils::web::WebResponse, geode::utils::web::WebProgress>::Event*)>::~__func()
PUBLIC 24e3c 0 std::__ndk1::__function::__func<MyModPopup::modify()::{lambda(bool)#1}::operator()(bool) const::{lambda(geode::Task<geode::utils::web::WebResponse, geode::utils::web::WebProgress>::Event*)#1}, std::__ndk1::allocator<MyModPopup::modify()::{lambda(bool)#1}::operator()(bool) const::{lambda(geode::Task<geode::utils::web::WebResponse, geode::utils::web::WebProgress>::Event*)#1}>, void (geode::Task<geode::utils::web::WebResponse, geode::utils::web::WebProgress>::Event*)>::~__func()
PUBLIC 24e7c 0 std::__ndk1::__function::__func<MyModPopup::modify()::{lambda(bool)#1}::operator()(bool) const::{lambda(geode::Task<geode::utils::web::WebResponse, geode::utils::web::WebProgress>::Event*)#1}, std::__ndk1::allocator<MyModPopup::modify()::{lambda(bool)#1}::operator()(bool) const::{lambda(geode::Task<geode::utils::web::WebResponse, geode::utils::web::WebProgress>::Event*)#1}>, void (geode::Task<geode::utils::web::WebResponse, geode::utils::web::WebProgress>::Event*)>::__clone() const
PUBLIC 24f0c 0 std::__ndk1::__function::__func<MyModPopup::modify()::{lambda(bool)#1}::operator()(bool) const::{lambda(geode::Task<geode::utils::web::WebResponse, geode::utils::web::WebProgress>::Event*)#1}, std::__ndk1::allocator<MyModPopup::modify()::{lambda(bool)#1}::operator()(bool) const::{lambda(geode::Task<geode::utils::web::WebResponse, geode::utils::web::WebProgress>::Event*)#1}>, void (geode::Task<geode::utils::web::WebResponse, geode::utils::web::WebProgress>::Event*)>::__clone(std::__ndk1::__function::__base<void (geode::Task<geode::utils::web::WebResponse, geode::utils::web::WebProgress>::Event*)>*) const
PUBLIC 24f58 0 std::__ndk1::__function::__func<MyModPopup::modify()::{lambda(bool)#1}::operator()(bool) const::{lambda(geode::Task<geode::utils::web::WebResponse, geode::utils::web::WebProgress>::Event*)#1}, std::__ndk1::allocator<MyModPopup::modify()::{lambda(bool)#1}::operator()(bool) const::{lambda(geode::Task<geode::utils::web::WebResponse, geode::utils::web::WebProgress>::Event*)#1}>, void (geode::Task<geode::utils::web::WebResponse, geode::utils::web::WebProgress>::Event*)>::destroy()
PUBLIC 24f6c 0 std::__ndk1::__function::__func<MyModPopup::modify()::{lambda(bool)#1}::operator()(bool) const::{lambda(geode::Task<geode::utils::web::WebResponse, geode::utils::web::WebProgress>::Event*)#1}, std::__ndk1::allocator<MyModPopup::modify()::{lambda(bool)#1}::operator()(bool) const::{lambda(geode::Task<geode::utils::web::WebResponse, geode::utils::web::WebProgress>::Event*)#1}>, void (geode::Task<geode::utils::web::WebResponse, geode::utils::web::WebProgress>::Event*)>::destroy_deallocate()
PUBLIC 24fa0 0 std::__ndk1::__function::__func<MyModPopup::modify()::{lambda(bool)#1}::operator()(bool) const::{lambda(geode::Task<geode::utils::web::WebResponse, geode::utils::web::WebProgress>::Event*)#1}, std::__ndk1::allocator<MyModPopup::modify()::{lambda(bool)#1}::operator()(bool) const::{lambda(geode::Task<geode::utils::web::WebResponse, geode::utils::web::WebProgress>::Event*)#1}>, void (geode::Task<geode::utils::web::WebResponse, geode::utils::web::WebProgress>::Event*)>::operator()(geode::Task<geode::utils::web::WebResponse, geode::utils::web::WebProgress>::Event*&&)
PUBLIC 2524c 0 std::__ndk1::__function::__func<MyModPopup::modify()::{lambda(bool)#1}::operator()(bool) const::{lambda(geode::Task<geode::utils::web::WebResponse, geode::utils::web::WebProgress>::Event*)#1}, std::__ndk1::allocator<MyModPopup::modify()::{lambda(bool)#1}::operator()(bool) const::{lambda(geode::Task<geode::utils::web::WebResponse, geode::utils::web::WebProgress>::Event*)#1}>, void (geode::Task<geode::utils::web::WebResponse, geode::utils::web::WebProgress>::Event*)>::target(std::type_info const&) const
PUBLIC 25268 0 std::__ndk1::__function::__func<MyModPopup::modify()::{lambda(bool)#1}::operator()(bool) const::{lambda(geode::Task<geode::utils::web::WebResponse, geode::utils::web::WebProgress>::Event*)#1}, std::__ndk1::allocator<MyModPopup::modify()::{lambda(bool)#1}::operator()(bool) const::{lambda(geode::Task<geode::utils::web::WebResponse, geode::utils::web::WebProgress>::Event*)#1}>, void (geode::Task<geode::utils::web::WebResponse, geode::utils::web::WebProgress>::Event*)>::target_type() const
PUBLIC 25274 0 MyModPopup::modify()::{lambda(bool)#1}::operator()(bool) const::{lambda(geode::Task<geode::utils::web::WebResponse, geode::utils::web::WebProgress>::Event*)#1}::operator()(geode::Task<geode::utils::web::WebResponse, geode::utils::web::WebProgress>::Event*) const::{lambda()#1}::~{lambda()#1}()
PUBLIC 252b8 0 std::__ndk1::vector<unsigned char, std::__ndk1::allocator<unsigned char> >::__throw_length_error[abi:ne190000]() const
PUBLIC 252cc 0 std::__ndk1::__thread_proxy[abi:ne190000]<std::__ndk1::tuple<std::__ndk1::unique_ptr<std::__ndk1::__thread_struct, std::__ndk1::default_delete<std::__ndk1::unique_ptr> >, MyModPopup::modify()::{lambda(bool)#1}::operator()(bool) const::{lambda(geode::Task<{lambda(bool)#1}::utils::web::WebResponse, {lambda(bool)#1}::utils::WebProgress>::Event*)#1}::operator()(geode::Task<{lambda(bool)#1}::utils::web::WebResponse, {lambda(bool)#1}::utils::WebProgress>::Event) const::{lambda()#1}> >(std::__ndk1::tuple<std::__ndk1::unique_ptr<std::__ndk1::__thread_struct, std::__ndk1::default_delete<std::__ndk1::unique_ptr> >, MyModPopup::modify()::{lambda(bool)#1}::operator()(bool) const::{lambda(geode::Task<{lambda(bool)#1}::utils::web::WebResponse, {lambda(bool)#1}::utils::WebProgress>::Event*)#1}::operator()(geode::Task<{lambda(bool)#1}::utils::web::WebResponse, {lambda(bool)#1}::utils::WebProgress>::Event) const::{lambda()#1}>)
PUBLIC 2554c 0 std::__ndk1::unique_ptr<std::__ndk1::tuple<std::__ndk1::unique_ptr<std::__ndk1::__thread_struct, std::__ndk1::default_delete<std::__ndk1::__thread_struct> >, MyModPopup::modify()::{lambda(bool)#1}::operator()(bool) const::{lambda(geode::Task<geode::utils::web::WebResponse, geode::utils::web::WebProgress>::Event*)#1}::operator()(geode::Task<geode::utils::web::WebResponse, geode::utils::web::WebProgress>::Event*) const::{lambda()#1}>, std::__ndk1::default_delete<std::__ndk1::tuple<std::__ndk1::unique_ptr<std::__ndk1::__thread_struct, std::__ndk1::default_delete<std::__ndk1::__thread_struct> >, MyModPopup::modify()::{lambda(bool)#1}::operator()(bool) const::{lambda(geode::Task<geode::utils::web::WebResponse, geode::utils::web::WebProgress>::Event*)#1}::operator()(geode::Task<geode::utils::web::WebResponse, geode::utils::web::WebProgress>::Event*) const::{lambda()#1}> > >::~unique_ptr[abi:ne190000]()
PUBLIC 255bc 0 std::__ndk1::unique_ptr<std::__ndk1::__thread_struct, std::__ndk1::default_delete<std::__ndk1::__thread_struct> >::~unique_ptr[abi:ne190000]()
PUBLIC 255f8 0 std::__ndk1::__function::__func<MyModPopup::modify()::{lambda(bool)#1}::operator()(bool) const::{lambda(geode::Task<geode::utils::web::WebResponse, geode::utils::web::WebProgress>::Event*)#1}::operator()(geode::Task<geode::utils::web::WebResponse, geode::utils::web::WebProgress>::Event*) const::{lambda()#1}::operator()() const::{lambda()#1}, std::__ndk1::allocator<MyModPopup::modify()::{lambda(bool)#1}::operator()(bool) const::{lambda(geode::Task<geode::utils::web::WebResponse, geode::utils::web::WebProgress>::Event*)#1}::operator()(geode::Task<geode::utils::web::WebResponse, geode::utils::web::WebProgress>::Event*) const::{lambda()#1}::operator()() const::{lambda()#1}>, void ()>::~__func()
PUBLIC 25618 0 std::__ndk1::__function::__func<MyModPopup::modify()::{lambda(bool)#1}::operator()(bool) const::{lambda(geode::Task<geode::utils::web::WebResponse, geode::utils::web::WebProgress>::Event*)#1}::operator()(geode::Task<geode::utils::web::WebResponse, geode::utils::web::WebProgress>::Event*) const::{lambda()#1}::operator()() const::{lambda()#1}, std::__ndk1::allocator<MyModPopup::modify()::{lambda(bool)#1}::operator()(bool) const::{lambda(geode::Task<geode::utils::web::WebResponse, geode::utils::web::WebProgress>::Event*)#1}::operator()(geode::Task<geode::utils::web::WebResponse, geode::utils::web::WebProgress>::Event*) const::{lambda()#1}::operator()() const::{lambda()#1}>, void ()>::~__func()
PUBLIC 25658 0 std::__ndk1::__function::__func<MyModPopup::modify()::{lambda(bool)#1}::operator()(bool) const::{lambda(geode::Task<geode::utils::web::WebResponse, geode::utils::web::WebProgress>::Event*)#1}::operator()(geode::Task<geode::utils::web::WebResponse, geode::utils::web::WebProgress>::Event*) const::{lambda()#1}::operator()() const::{lambda()#1}, std::__ndk1::allocator<MyModPopup::modify()::{lambda(bool)#1}::operator()(bool) const::{lambda(geode::Task<geode::utils::web::WebResponse, geode::utils::web::WebProgress>::Event*)#1}::operator()(geode::Task<geode::utils::web::WebResponse, geode::utils::web::WebProgress>::Event*) const::{lambda()#1}::operator()() const::{lambda()#1}>, void ()>::__clone() const
PUBLIC 256ec 0 std::__ndk1::__function::__func<MyModPopup::modify()::{lambda(bool)#1}::operator()(bool) const::{lambda(geode::Task<geode::utils::web::WebResponse, geode::utils::web::WebProgress>::Event*)#1}::operator()(geode::Task<geode::utils::web::WebResponse, geode::utils::web::WebProgress>::Event*) const::{lambda()#1}::operator()() const::{lambda()#1}, std::__ndk1::allocator<MyModPopup::modify()::{lambda(bool)#1}::operator()(bool) const::{lambda(geode::Task<geode::utils::web::WebResponse, geode::utils::web::WebProgress>::Event*)#1}::operator()(geode::Task<geode::utils::web::WebResponse, geode::utils::web::WebProgress>::Event*) const::{lambda()#1}::operator()() const::{lambda()#1}>, void ()>::__clone(std::__ndk1::__function::__base<void ()>*) const
PUBLIC 25738 0 std::__ndk1::__function::__func<MyModPopup::modify()::{lambda(bool)#1}::operator()(bool) const::{lambda(geode::Task<geode::utils::web::WebResponse, geode::utils::web::WebProgress>::Event*)#1}::operator()(geode::Task<geode::utils::web::WebResponse, geode::utils::web::WebProgress>::Event*) const::{lambda()#1}::operator()() const::{lambda()#1}, std::__ndk1::allocator<MyModPopup::modify()::{lambda(bool)#1}::operator()(bool) const::{lambda(geode::Task<geode::utils::web::WebResponse, geode::utils::web::WebProgress>::Event*)#1}::operator()(geode::Task<geode::utils::web::WebResponse, geode::utils::web::WebProgress>::Event*) const::{lambda()#1}::operator()() const::{lambda()#1}>, void ()>::destroy()
PUBLIC 2574c 0 std::__ndk1::__function::__func<MyModPopup::modify()::{lambda(bool)#1}::operator()(bool) const::{lambda(geode::Task<geode::utils::web::WebResponse, geode::utils::web::WebProgress>::Event*)#1}::operator()(geode::Task<geode::utils::web::WebResponse, geode::utils::web::WebProgress>::Event*) const::{lambda()#1}::operator()() const::{lambda()#1}, std::__ndk1::allocator<MyModPopup::modify()::{lambda(bool)#1}::operator()(bool) const::{lambda(geode::Task<geode::utils::web::WebResponse, geode::utils::web::WebProgress>::Event*)#1}::operator()(geode::Task<geode::utils::web::WebResponse, geode::utils::web::WebProgress>::Event*) const::{lambda()#1}::operator()() const::{lambda()#1}>, void ()>::destroy_deallocate()
PUBLIC 25780 0 std::__ndk1::__function::__func<MyModPopup::modify()::{lambda(bool)#1}::operator()(bool) const::{lambda(geode::Task<geode::utils::web::WebResponse, geode::utils::web::WebProgress>::Event*)#1}::operator()(geode::Task<geode::utils::web::WebResponse, geode::utils::web::WebProgress>::Event*) const::{lambda()#1}::operator()() const::{lambda()#1}, std::__ndk1::allocator<MyModPopup::modify()::{lambda(bool)#1}::operator()(bool) const::{lambda(geode::Task<geode::utils::web::WebResponse, geode::utils::web::WebProgress>::Event*)#1}::operator()(geode::Task<geode::utils::web::WebResponse, geode::utils::web::WebProgress>::Event*) const::{lambda()#1}::operator()() const::{lambda()#1}>, void ()>::operator()()
PUBLIC 258e4 0 std::__ndk1::__function::__func<MyModPopup::modify()::{lambda(bool)#1}::operator()(bool) const::{lambda(geode::Task<geode::utils::web::WebResponse, geode::utils::web::WebProgress>::Event*)#1}::operator()(geode::Task<geode::utils::web::WebResponse, geode::utils::web::WebProgress>::Event*) const::{lambda()#1}::operator()() const::{lambda()#1}, std::__ndk1::allocator<MyModPopup::modify()::{lambda(bool)#1}::operator()(bool) const::{lambda(geode::Task<geode::utils::web::WebResponse, geode::utils::web::WebProgress>::Event*)#1}::operator()(geode::Task<geode::utils::web::WebResponse, geode::utils::web::WebProgress>::Event*) const::{lambda()#1}::operator()() const::{lambda()#1}>, void ()>::target(std::type_info const&) const
PUBLIC 25900 0 std::__ndk1::__function::__func<MyModPopup::modify()::{lambda(bool)#1}::operator()(bool) const::{lambda(geode::Task<geode::utils::web::WebResponse, geode::utils::web::WebProgress>::Event*)#1}::operator()(geode::Task<geode::utils::web::WebResponse, geode::utils::web::WebProgress>::Event*) const::{lambda()#1}::operator()() const::{lambda()#1}, std::__ndk1::allocator<MyModPopup::modify()::{lambda(bool)#1}::operator()(bool) const::{lambda(geode::Task<geode::utils::web::WebResponse, geode::utils::web::WebProgress>::Event*)#1}::operator()(geode::Task<geode::utils::web::WebResponse, geode::utils::web::WebProgress>::Event*) const::{lambda()#1}::operator()() const::{lambda()#1}>, void ()>::target_type() const
PUBLIC 2590c 0 geode::getMod()
PUBLIC m 25948 0 geodeImplicitEntry
PUBLIC 25984 0 std::__ndk1::unordered_map<void*, bool, std::__ndk1::hash<void*>, std::__ndk1::equal_to<void*>, std::__ndk1::allocator<std::__ndk1::pair<void* const, bool> > >::~unordered_map[abi:ne190000]()
PUBLIC 259d0 0 wrapFunction(unsigned long, tulip::hook::WrapperMetadata const&)
PUBLIC 25b04 0 geode::impl::ResultData<void*, std::__ndk1::basic_string<char, std::__ndk1::char_traits<char>, std::__ndk1::allocator<char> > >::unwrapErr() &
PUBLIC 25b7c 0 geode::impl::ResultData<void*, std::__ndk1::basic_string<char, std::__ndk1::char_traits<char>, std::__ndk1::allocator<char> > >::~ResultData()
PUBLIC 25bf0 0 std::__ndk1::shared_ptr<tulip::hook::CallingConvention>::~shared_ptr[abi:ne190000]()
PUBLIC 25c40 0 tulip::hook::WrapperMetadata::~WrapperMetadata()
PUBLIC 25ca4 0 cocos2d::CCObject::~CCObject()
PUBLIC 25cc8 0 cocos2d::CCNode::~CCNode()
PUBLIC 25cec 0 {virtual override thunk({offset(-320)}, cocos2d::CCLayer::~CCLayer())}
PUBLIC 25cf4 0 cocos2d::CCLayer::~CCLayer()
PUBLIC 25d18 0 {virtual override thunk({offset(-320)}, cocos2d::CCLayer::~CCLayer())}
PUBLIC 25d40 0 cocos2d::CCLayerRGBA::~CCLayerRGBA()
PUBLIC 26040 0 {virtual override thunk({offset(-320)}, cocos2d::CCLayerRGBA::~CCLayerRGBA())}
PUBLIC 26048 0 cocos2d::CCLayerRGBA::~CCLayerRGBA()
PUBLIC 2606c 0 {virtual override thunk({offset(-320)}, cocos2d::CCLayerRGBA::~CCLayerRGBA())}
PUBLIC 26094 0 cocos2d::CCLayerColor::CCLayerColor()
PUBLIC 262f8 0 {virtual override thunk({offset(-320)}, cocos2d::CCLayerColor::~CCLayerColor())}
PUBLIC 26300 0 cocos2d::CCLayerColor::~CCLayerColor()
PUBLIC 26324 0 {virtual override thunk({offset(-320)}, cocos2d::CCLayerColor::~CCLayerColor())}
PUBLIC 2634c 0 cocos2d::CCTexture2D::~CCTexture2D()
PUBLIC 265bc 0 cocos2d::CCTexture2D::~CCTexture2D()
PUBLIC 265e0 0 cocos2d::CCTexture2D::CCTexture2D()
PUBLIC 2680c 0 cocos2d::CCImage::CCImage()
PUBLIC 26a30 0 cocos2d::CCImage::~CCImage()
PUBLIC 26c98 0 cocos2d::CCImage::~CCImage()
PUBLIC 26cbc 0 FLAlertLayer::FLAlertLayer()
PUBLIC 26d58 0 {virtual override thunk({offset(-320)}, FLAlertLayer::~FLAlertLayer())}
PUBLIC 26d60 0 FLAlertLayer::~FLAlertLayer()
PUBLIC 26d84 0 {virtual override thunk({offset(-320)}, FLAlertLayer::~FLAlertLayer())}
PUBLIC 26dac 0 CCMenuItemSpriteExtra::create(cocos2d::CCNode*, cocos2d::CCObject*, void (cocos2d::CCObject::*)(cocos2d::CCObject*))
PUBLIC 26dc0 0 cocos2d::CCObject::update(float)
PUBLIC 26dc4 0 cocos2d::CCLayerColor::~CCLayerColor()
PUBLIC 270a8 0 cocos2d::CCLayer::~CCLayer()
PUBLIC 27398 0 cocos2d::CCNode::~CCNode()
PUBLIC 27638 0 FLAlertLayer::~FLAlertLayer()
PUBLIC 2791c 0 cocos2d::CCObject::~CCObject()
PUBLIC 27e10 0 _ZN5geode15UnwrapExceptionC2IRPvQsr4implE18IsStringStreamableIT_EEENS_4impl5OkTagEOS4_
PUBLIC 27f64 0 std::__ndk1::__throw_bad_variant_access[abi:ne190000]()
PUBLIC 27f98 0 std::__ndk1::basic_stringstream<char, std::__ndk1::char_traits<char>, std::__ndk1::allocator<char> >::basic_stringstream[abi:ne190000]()
PUBLIC m 280cc 0 std::__ndk1::basic_stringstream<char, std::__ndk1::char_traits<char>, std::__ndk1::allocator<char> >::~basic_stringstream()
PUBLIC 2814c 0 geode::UnwrapException::~UnwrapException()
PUBLIC 28170 0 std::__ndk1::__put_character_sequence[abi:ne190000]<char, std::__ndk1::char_traits<char> >(std::__ndk1::basic_ostream<char, std::__ndk1::char_traits<char> >, std::__ndk1::basic_ostream const*, unsigned long)
PUBLIC 28454 0 std::__ndk1::basic_stringbuf<char, std::__ndk1::char_traits<char>, std::__ndk1::allocator<char> >::str[abi:ne190000]() &&
PUBLIC 286d8 0 std::__ndk1::basic_string<char, std::__ndk1::char_traits<char>, std::__ndk1::allocator<char> >::__erase_external_with_move(unsigned long, unsigned long)
PUBLIC 2875c 0 _ZN5geode15UnwrapExceptionC2IRNSt6__ndk112basic_stringIcNS2_11char_traitsIcEENS2_9allocatorIcEEEEQsr4implE18IsStringStreamableIT_EEENS_4impl6ErrTagEOSA_
PUBLIC 288c4 0 std::__ndk1::__variant_detail::__visitation::__base::__dispatcher<(unsigned long)0>::__dispatch[abi:ne190000]<std::__ndk1::__variant_detail::__dtor<std::__ndk1::__variant_detail::__traits<void*, std::__ndk1::basic_string<char, std::__ndk1::char_traits<char>, std::__ndk1::allocator<char> > >, (std::__ndk1::__variant_detail::_Trait)1>::__destroy[abi:ne190000]()::{lambda(auto:1&)#1}, std::__ndk1::__variant_detail::__base<(std::__ndk1::__variant_detail::__traits<void*, std::__ndk1::basic_string<char, std::__ndk1::char_traits<char>, std::__ndk1::allocator<char> > >)1, std::__ndk1::__variant_detail::__traits, std::__ndk1::allocator<char> >&>(std::__ndk1::__variant_detail::__dtor<std::__ndk1::__variant_detail::__traits<void*, std::__ndk1::basic_string<char, std::__ndk1::char_traits<char>, std::__ndk1::allocator<char> > >, (std::__ndk1::__variant_detail::_Trait)1>, std::__ndk1::__variant_detail::__base<(std::__ndk1::__variant_detail::__traits<void*, std::__ndk1::basic_string<char, std::__ndk1::char_traits<char>, std::__ndk1::allocator<char> > >)1, std::__ndk1::__variant_detail::__traits, std::__ndk1::allocator<char> >&)
PUBLIC 288c8 0 std::__ndk1::__variant_detail::__visitation::__base::__dispatcher<(unsigned long)1>::__dispatch[abi:ne190000]<std::__ndk1::__variant_detail::__dtor<std::__ndk1::__variant_detail::__traits<void*, std::__ndk1::basic_string<char, std::__ndk1::char_traits<char>, std::__ndk1::allocator<char> > >, (std::__ndk1::__variant_detail::_Trait)1>::__destroy[abi:ne190000]()::{lambda(auto:1&)#1}, std::__ndk1::__variant_detail::__base<(std::__ndk1::__variant_detail::__traits<void*, std::__ndk1::basic_string<char, std::__ndk1::char_traits<char>, std::__ndk1::allocator<char> > >)1, std::__ndk1::__variant_detail::__traits, std::__ndk1::allocator<char> >&>(std::__ndk1::__variant_detail::__dtor<std::__ndk1::__variant_detail::__traits<void*, std::__ndk1::basic_string<char, std::__ndk1::char_traits<char>, std::__ndk1::allocator<char> > >, (std::__ndk1::__variant_detail::_Trait)1>, std::__ndk1::__variant_detail::__base<(std::__ndk1::__variant_detail::__traits<void*, std::__ndk1::basic_string<char, std::__ndk1::char_traits<char>, std::__ndk1::allocator<char> > >)1, std::__ndk1::__variant_detail::__traits, std::__ndk1::allocator<char> >&)
PUBLIC 288dc 0 std::__ndk1::__hash_table<std::__ndk1::__hash_value_type<void*, bool>, std::__ndk1::__unordered_map_hasher<void*, std::__ndk1::__hash_value_type<void*, bool>, std::__ndk1::hash<void*>, std::__ndk1::equal_to<void*>, true>, std::__ndk1::__unordered_map_equal<void*, std::__ndk1::__hash_value_type<void*, bool>, std::__ndk1::equal_to<void*>, std::__ndk1::hash<void*>, true>, std::__ndk1::allocator<std::__ndk1::__hash_value_type<void*, bool> > >::__emplace_unique_key_args<void*, std::__ndk1::piecewise_construct_t const&, std::__ndk1::tuple<void* const&>, std::__ndk1::tuple<> >(void* const&, std::__ndk1::piecewise_construct_t const&, std::__ndk1::tuple<void* const&>, std::__ndk1::tuple<>)
PUBLIC 28de8 0 __udivti3
PUBLIC 28df4 0 __udivmodti4
PUBLIC m 29040 0 __eqtf2
PUBLIC 290e0 0 __unordtf2
PUBLIC 29118 0 fmt::v11::detail::write_loc(fmt::v11::basic_appender<char>, fmt::v11::loc_value, fmt::v11::format_specs const&, fmt::v11::detail::locale_ref)
PUBLIC 293ac 0 fmt::v11::format_facet<std::__ndk1::locale>::~format_facet()
PUBLIC 29428 0 fmt::v11::report_error(char const*)
PUBLIC 29478 0 fmt::v11::format_error::runtime_error(char const*)
PUBLIC 294a4 0 fmt::v11::format_facet<std::__ndk1::locale>::do_put(fmt::v11::basic_appender<char>, fmt::v11::loc_value, fmt::v11::format_specs const&) const
PUBLIC 29c64 0 fmt::v11::detail::loc_writer<char>::~loc_writer()
PUBLIC 29cc8 0 fmt::v11::vformat(fmt::v11::basic_string_view<char>, fmt::v11::basic_format_args<fmt::v11::context>)
PUBLIC 29e14 0 fmt::v11::detail::vformat_to<char>(fmt::v11::detail::buffer<char>&, fmt::v11::basic_string_view<char>, fmt::v11::detail::vformat_args<char>::type, fmt::v11::detail::locale_ref)
PUBLIC 2a384 0 fmt::v11::detail::is_printable(unsigned int)
PUBLIC 2a5ac 0 fmt::v11::detail::dragonbox::to_decimal<float>(float)
PUBLIC 2a888 0 fmt::v11::detail::dragonbox::to_decimal<double>(double)
PUBLIC 2adc4 0 fmt::v11::basic_memory_buffer<char, (unsigned long)500, std::__ndk1::allocator<char> >::grow(fmt::v11::detail::buffer<char>&, unsigned long)
PUBLIC 2ae3c 0 fmt::v11::format_facet<std::__ndk1::locale>::~format_facet()
PUBLIC 2aec8 0 fmt::v11::format_error::~format_error()
PUBLIC 2aeec 0 fmt::v11::detail::copy_noinline<char, char const*, fmt::v11::basic_appender<char> >(char const*, char const*, fmt::v11::basic_appender<char>)
PUBLIC 2b03c 0 fmt::v11::detail::default_arg_formatter<char>::operator()<bool>(bool)
PUBLIC 2b0a4 0 fmt::v11::detail::default_arg_formatter<char>::operator()<char>(char)
PUBLIC 2b134 0 fmt::v11::detail::default_arg_formatter<char>::operator()<float>(float)
PUBLIC 2b220 0 fmt::v11::detail::default_arg_formatter<char>::operator()<double>(double)
PUBLIC 2b30c 0 fmt::v11::detail::default_arg_formatter<char>::operator()<char const*>(char const*)
PUBLIC 2b354 0 fmt::v11::detail::default_arg_formatter<char>::operator()<void const*>(void const*)
PUBLIC 2b3ec 0 _ZN3fmt3v116detail5writeIcNS0_14basic_appenderIcEEiTnNSt6__ndk19enable_ifIXaaaasr11is_integralIT1_EE5valuentsr3std7is_sameIS7_bEE5valuentsr3std7is_sameIS7_T_EE5valueEiE4typeELi0EEET0_SB_S7_
PUBLIC 2b64c 0 fmt::v11::detail::copy_noinline<char, char*, fmt::v11::basic_appender<char> >(char*, char*, fmt::v11::basic_appender<char>)
PUBLIC 2b79c 0 _ZN3fmt3v116detail5writeIcNS0_14basic_appenderIcEEjTnNSt6__ndk19enable_ifIXaaaasr11is_integralIT1_EE5valuentsr3std7is_sameIS7_bEE5valuentsr3std7is_sameIS7_T_EE5valueEiE4typeELi0EEET0_SB_S7_
PUBLIC 2b97c 0 _ZN3fmt3v116detail5writeIcNS0_14basic_appenderIcEExTnNSt6__ndk19enable_ifIXaaaasr11is_integralIT1_EE5valuentsr3std7is_sameIS7_bEE5valuentsr3std7is_sameIS7_T_EE5valueEiE4typeELi0EEET0_SB_S7_
PUBLIC 2bc00 0 _ZN3fmt3v116detail5writeIcNS0_14basic_appenderIcEEyTnNSt6__ndk19enable_ifIXaaaasr11is_integralIT1_EE5valuentsr3std7is_sameIS7_bEE5valuentsr3std7is_sameIS7_T_EE5valueEiE4typeELi0EEET0_SB_S7_
PUBLIC 2be08 0 _ZN3fmt3v116detail5writeIcNS0_14basic_appenderIcEEnTnNSt6__ndk19enable_ifIXaaaasr11is_integralIT1_EE5valuentsr3std7is_sameIS7_bEE5valuentsr3std7is_sameIS7_T_EE5valueEiE4typeELi0EEET0_SB_S7_
PUBLIC 2c168 0 _ZN3fmt3v116detail5writeIcNS0_14basic_appenderIcEEoTnNSt6__ndk19enable_ifIXaaaasr11is_integralIT1_EE5valuentsr3std7is_sameIS7_bEE5valuentsr3std7is_sameIS7_T_EE5valueEiE4typeELi0EEET0_SB_S7_
PUBLIC 2c47c 0 _ZN3fmt3v116detail5writeIcNS0_14basic_appenderIcEEbTnNSt6__ndk19enable_ifIXsr3std7is_sameIT1_bEE5valueEiE4typeELi0EEET0_SA_S7_RKNS0_12format_specsENS1_10locale_refE
PUBLIC 2c70c 0 fmt::v11::detail::write_int_noinline<char, fmt::v11::basic_appender<char>, unsigned int>(fmt::v11::basic_appender<char>, fmt::v11::detail::write_int_arg<unsigned int>, fmt::v11::format_specs const&, fmt::v11::detail::locale_ref)
PUBLIC 2d4d4 0 fmt::v11::detail::fill<char, fmt::v11::basic_appender<char> >(fmt::v11::basic_appender<char>, unsigned long, fmt::v11::detail::fill_t const&)
PUBLIC 2d6a4 0 fmt::v11::detail::write_padded<char, (fmt::v11::align::type)1, fmt::v11::basic_appender<char>, fmt::v11::detail::write_char<char, fmt::v11::basic_appender<char> >(fmt::v11::basic_appender<char>, char, fmt::v11::format_specs const&)::{lambda(fmt::v11::basic_appender<char>&)#1}>(fmt::v11::basic_appender<char>, fmt::v11::format_specs const&, unsigned long, unsigned long, fmt::v11::detail::write_char<char, fmt::v11::basic_appender<char> >(fmt::v11::basic_appender<char>, char, fmt::v11::format_specs const&)::{lambda(fmt::v11::basic_appender<char>&)#1})
PUBLIC 2d8e0 0 fmt::v11::detail::write_escaped_cp<fmt::v11::basic_appender<char>, char>(fmt::v11::basic_appender<char>, fmt::v11::detail::find_escape_result<char> const&)
PUBLIC 2dbec 0 fmt::v11::detail::write_codepoint<(unsigned long)2, char, fmt::v11::basic_appender<char> >(fmt::v11::basic_appender<char>, char, unsigned int)
PUBLIC 2dd64 0 fmt::v11::detail::write_codepoint<(unsigned long)8, char, fmt::v11::basic_appender<char> >(fmt::v11::basic_appender<char>, char, unsigned int)
PUBLIC 2dedc 0 fmt::v11::detail::write_padded<char, (fmt::v11::align::type)1, fmt::v11::basic_appender<char>, fmt::v11::detail::write_nonfinite<char, fmt::v11::basic_appender<char> >(fmt::v11::basic_appender<char>, bool, fmt::v11::format_specs, fmt::v11::sign::type)::{lambda(fmt::v11::basic_appender<char>&)#1}>(fmt::v11::basic_appender<char>, fmt::v11::format_specs const&, unsigned long, unsigned long, fmt::v11::detail::write_nonfinite<char, fmt::v11::basic_appender<char> >(fmt::v11::basic_appender<char>, bool, fmt::v11::format_specs, fmt::v11::sign::type)::{lambda(fmt::v11::basic_appender<char>&)#1})
PUBLIC 2e11c 0 fmt::v11::detail::do_write_float<char, fmt::v11::basic_appender<char>, fmt::v11::detail::dragonbox::decimal_fp<float>, fmt::v11::detail::digit_grouping<char> >(fmt::v11::basic_appender<char>, fmt::v11::detail::dragonbox::decimal_fp<float> const&, fmt::v11::format_specs const&, fmt::v11::detail::float_specs, fmt::v11::detail::locale_ref)
PUBLIC 2ed90 0 fmt::v11::detail::do_write_float<char, fmt::v11::basic_appender<char>, fmt::v11::detail::dragonbox::decimal_fp<float>, fmt::v11::detail::digit_grouping<char> >(fmt::v11::basic_appender<char>, fmt::v11::detail::dragonbox::decimal_fp<float> const&, fmt::v11::format_specs const&, fmt::v11::detail::float_specs, fmt::v11::detail::locale_ref)::{lambda(fmt::v11::basic_appender<char>(fmt::v11::basic_appender<char>))#1}::operator() const
PUBLIC 2eee4 0 fmt::v11::detail::digit_grouping<char>::digit_grouping(fmt::v11::detail::locale_ref, bool)
PUBLIC 2f14c 0 fmt::v11::detail::digit_grouping<char>::~digit_grouping()
PUBLIC 2f190 0 fmt::v11::detail::write_exponent<char, fmt::v11::basic_appender<char> >(int, fmt::v11::basic_appender<char>)
PUBLIC 2f360 0 _ZN3fmt3v116detail17write_significandIcjTnNSt6__ndk19enable_ifIXsr3std11is_integralIT0_EE5valueEiE4typeELi0EEEPT_S9_S5_iiS8_
PUBLIC 2f4dc 0 fmt::v11::detail::digit_grouping<char>::apply<fmt::v11::basic_appender<char>, char>(fmt::v11::basic_appender<char>, fmt::v11::basic_string_view<char>) const
PUBLIC 2f894 0 fmt::v11::basic_memory_buffer<int, (unsigned long)500, std::__ndk1::allocator<int> >::grow(fmt::v11::detail::buffer<int>&, unsigned long)
PUBLIC 2f934 0 fmt::v11::detail::do_write_float<char, fmt::v11::basic_appender<char>, fmt::v11::detail::dragonbox::decimal_fp<double>, fmt::v11::detail::digit_grouping<char> >(fmt::v11::basic_appender<char>, fmt::v11::detail::dragonbox::decimal_fp<double> const&, fmt::v11::format_specs const&, fmt::v11::detail::float_specs, fmt::v11::detail::locale_ref)
PUBLIC 305e4 0 fmt::v11::detail::do_write_float<char, fmt::v11::basic_appender<char>, fmt::v11::detail::dragonbox::decimal_fp<double>, fmt::v11::detail::digit_grouping<char> >(fmt::v11::basic_appender<char>, fmt::v11::detail::dragonbox::decimal_fp<double> const&, fmt::v11::format_specs const&, fmt::v11::detail::float_specs, fmt::v11::detail::locale_ref)::{lambda(fmt::v11::basic_appender<char>(fmt::v11::basic_appender<char>))#1}::operator() const
PUBLIC 3073c 0 _ZN3fmt3v116detail17write_significandIcmTnNSt6__ndk19enable_ifIXsr3std11is_integralIT0_EE5valueEiE4typeELi0EEEPT_S9_S5_iiS8_
PUBLIC 308cc 0 fmt::v11::detail::write_float<char, fmt::v11::basic_appender<char>, long double>(fmt::v11::basic_appender<char>, long double, fmt::v11::format_specs, fmt::v11::detail::locale_ref)
PUBLIC 313b0 0 fmt::v11::detail::write_padded<char, (fmt::v11::align::type)2, fmt::v11::basic_appender<char>, fmt::v11::detail::write_bytes<char, (fmt::v11::align::type)2, fmt::v11::basic_appender<char> >(fmt::v11::basic_appender<char>, fmt::v11::basic_string_view<char>, fmt::v11::format_specs const&)::{lambda(fmt::v11::basic_appender<char>&)#1}>(fmt::v11::basic_appender<char>, fmt::v11::format_specs const&, unsigned long, unsigned long, fmt::v11::detail::write_bytes<char, (fmt::v11::align::type)2, fmt::v11::basic_appender<char> >(fmt::v11::basic_appender<char>, fmt::v11::basic_string_view<char>, fmt::v11::format_specs const&)::{lambda(fmt::v11::basic_appender<char>&)#1})
PUBLIC 3158c 0 fmt::v11::detail::format_dragon(fmt::v11::detail::basic_fp<unsigned __int128>, unsigned int, int, fmt::v11::detail::buffer<char>&, int&)
PUBLIC 329b0 0 fmt::v11::detail::bigint::operator<<=(int)
PUBLIC 32ad4 0 fmt::v11::detail::bigint::assign_pow10(int)
PUBLIC 33230 0 fmt::v11::detail::bigint::divmod_assign(fmt::v11::detail::bigint const&)
PUBLIC 33554 0 fmt::v11::basic_memory_buffer<unsigned int, (unsigned long)32, std::__ndk1::allocator<unsigned int> >::grow(fmt::v11::detail::buffer<unsigned int>&, unsigned long)
PUBLIC 335f4 0 fmt::v11::detail::do_write_float<char, fmt::v11::basic_appender<char>, fmt::v11::detail::big_decimal_fp, fmt::v11::detail::digit_grouping<char> >(fmt::v11::basic_appender<char>, fmt::v11::detail::big_decimal_fp const&, fmt::v11::format_specs const&, fmt::v11::detail::float_specs, fmt::v11::detail::locale_ref)
PUBLIC 344a0 0 fmt::v11::detail::do_write_float<char, fmt::v11::basic_appender<char>, fmt::v11::detail::big_decimal_fp, fmt::v11::detail::digit_grouping<char> >(fmt::v11::basic_appender<char>, fmt::v11::detail::big_decimal_fp const&, fmt::v11::format_specs const&, fmt::v11::detail::float_specs, fmt::v11::detail::locale_ref)::{lambda(fmt::v11::basic_appender<char>(fmt::v11::basic_appender<char>))#1}::operator() const
PUBLIC 34600 0 fmt::v11::detail::write_padded<char, (fmt::v11::align::type)2, fmt::v11::basic_appender<char>, fmt::v11::detail::write_ptr<char, fmt::v11::basic_appender<char>, unsigned long>(fmt::v11::basic_appender<char>, unsigned long, fmt::v11::format_specs const*)::{lambda(fmt::v11::basic_appender<char>&)#1}>(fmt::v11::basic_appender<char>, fmt::v11::format_specs const&, unsigned long, unsigned long, fmt::v11::detail::write_ptr<char, fmt::v11::basic_appender<char>, unsigned long>(fmt::v11::basic_appender<char>, unsigned long, fmt::v11::format_specs const*)::{lambda(fmt::v11::basic_appender<char>&)#1})
PUBLIC 34814 0 fmt::v11::detail::parse_replacement_field<char, fmt::v11::detail::vformat_to<char>(fmt::v11::detail::buffer<char>&, fmt::v11::basic_string_view<char>, fmt::v11::detail::vformat_args<char>::type, fmt::v11::detail::locale_ref)::format_handler&>(char const*, char const*, fmt::v11::detail::vformat_to<char>(fmt::v11::detail::buffer<char>&, fmt::v11::basic_string_view<char>, fmt::v11::detail::vformat_args<char>::type, fmt::v11::detail::locale_ref)::format_handler&)
PUBLIC 36478 0 fmt::v11::detail::parse_dynamic_spec<char>(char const*, char const*, int&, fmt::v11::detail::arg_ref<char>&, fmt::v11::basic_format_parse_context<char>&)
PUBLIC 36708 0 fmt::v11::basic_format_args<fmt::v11::context>::get<char>(fmt::v11::basic_string_view<char>) const
PUBLIC 3683c 0 fmt::v11::detail::write_int_noinline<char, fmt::v11::basic_appender<char>, unsigned long>(fmt::v11::basic_appender<char>, fmt::v11::detail::write_int_arg<unsigned long>, fmt::v11::format_specs const&, fmt::v11::detail::locale_ref)
PUBLIC 37688 0 fmt::v11::detail::write_int_noinline<char, fmt::v11::basic_appender<char>, unsigned __int128>(fmt::v11::basic_appender<char>, fmt::v11::detail::write_int_arg<unsigned __int128>, fmt::v11::format_specs const&, fmt::v11::detail::locale_ref)
PUBLIC 386f0 0 _ZN3fmt3v116detail15format_hexfloatIdTnNSt6__ndk19enable_ifIXntsr16is_double_doubleIT_EE5valueEiE4typeELi0EEEvS5_NS0_12format_specsERNS1_6bufferIcEE
PUBLIC 38c10 0 fmt::v11::detail::format_float<double>(double, int, fmt::v11::detail::float_specs, fmt::v11::detail::buffer<char>&)
PUBLIC 3965c 0 fmt::v11::detail::write<char, fmt::v11::basic_appender<char> >(fmt::v11::basic_appender<char>, fmt::v11::basic_string_view<char>, fmt::v11::format_specs const&)
PUBLIC 3a938 0 fmt::v11::detail::for_each_codepoint<fmt::v11::detail::compute_width(fmt::v11::basic_string_view<char>)::count_code_points>(fmt::v11::basic_string_view<char>, fmt::v11::detail::compute_width(fmt::v11::basic_string_view<char>)::count_code_points)::{lambda(char const*, char const*)#1}::operator()(char const*, char const*) const
PUBLIC 3aaf0 0 fmt::v11::detail::write_int<fmt::v11::basic_appender<char>, unsigned long, char>(fmt::v11::basic_appender<char>, unsigned long, unsigned int, fmt::v11::format_specs const&, fmt::v11::detail::digit_grouping<char> const&)
PUBLIC 3b06c 0 fmt::v11::detail::write_int<fmt::v11::basic_appender<char>, unsigned __int128, char>(fmt::v11::basic_appender<char>, unsigned __int128, unsigned int, fmt::v11::format_specs const&, fmt::v11::detail::digit_grouping<char> const&)
PUBLIC 3b6e8 0 __CortexA53843419_26000
PUBLIC 3b6f0 0 <.plt ELF section in alphalaneous.mod_previews.android64.so>
STACK CFI INIT 1a5a0 10 .cfa: sp 0 +
STACK CFI INIT 1a5b0 8 .cfa: sp 0 +
STACK CFI INIT 1a5b8 8 .cfa: sp 0 +
STACK CFI INIT 1a5c0 14 .cfa: sp 0 +
STACK CFI INIT 1a5d4 1c .cfa: sp 0 +
STACK CFI INIT 1a5f0 10 .cfa: sp 0 +
STACK CFI INIT 1a600 134 .cfa: sp 0 +
STACK CFI INIT 1a734 84 .cfa: sp 0 +
STACK CFI INIT 1a7b8 f4 .cfa: sp 0 +
STACK CFI INIT 1a8ac a8 .cfa: sp 0 +
STACK CFI INIT 1a954 7c .cfa: sp 0 +
STACK CFI INIT 1a9d0 14 .cfa: sp 0 +
STACK CFI INIT 1a9e4 40 .cfa: sp 0 +
STACK CFI INIT 1aa24 28 .cfa: sp 0 +
STACK CFI INIT 1aa4c 190 .cfa: sp 0 +
STACK CFI INIT 1abdc 2c8 .cfa: sp 0 +
STACK CFI INIT 1aea4 8 .cfa: sp 0 +
STACK CFI INIT 1aeac 8 .cfa: sp 0 +
STACK CFI INIT 1aeb4 44 .cfa: sp 0 +
STACK CFI INIT 1aef8 e8 .cfa: sp 0 +
STACK CFI INIT 1afe0 e8 .cfa: sp 0 +
STACK CFI INIT 1b0c8 14 .cfa: sp 0 +
STACK CFI INIT 1b0dc 10 .cfa: sp 0 +
STACK CFI INIT 1b0ec 10 .cfa: sp 0 +
STACK CFI INIT 1b0fc f0 .cfa: sp 0 +
STACK CFI INIT 1b1ec 44 .cfa: sp 0 +
STACK CFI INIT 1b230 c .cfa: sp 0 +
STACK CFI INIT 1b23c c .cfa: sp 0 +
STACK CFI INIT 1b248 2c .cfa: sp 0 +
STACK CFI INIT 1b274 23c .cfa: sp 0 +
STACK CFI INIT 1b4b0 c .cfa: sp 0 +
STACK CFI INIT 1b4bc 120 .cfa: sp 0 +
STACK CFI INIT 1b5dc 494 .cfa: sp 0 +
STACK CFI INIT 1ba70 b78 .cfa: sp 0 +
STACK CFI INIT 1c5e8 134 .cfa: sp 0 +
STACK CFI INIT 1c71c 210 .cfa: sp 0 +
STACK CFI INIT 1c92c 38c .cfa: sp 0 +
STACK CFI INIT 1ccb8 1c8 .cfa: sp 0 +
STACK CFI INIT 1ce80 9c4 .cfa: sp 0 +
STACK CFI INIT 1d844 2d4 .cfa: sp 0 +
STACK CFI INIT 1db18 130 .cfa: sp 0 +
STACK CFI INIT 1dc48 120 .cfa: sp 0 +
STACK CFI INIT 1dd68 1c8 .cfa: sp 0 +
STACK CFI INIT 1df30 168 .cfa: sp 0 +
STACK CFI INIT 1e098 fc .cfa: sp 0 +
STACK CFI INIT 1e194 30 .cfa: sp 0 +
STACK CFI INIT 1e7ac 10 .cfa: sp 0 +
STACK CFI 1e7b0 .cfa: sp 16 +
STACK CFI 1e7b4 .cfa: x29 16 + .ra: .cfa -8 + ^ x29: .cfa -16 + ^
STACK CFI INIT 1e7bc 14 .cfa: sp 0 +
STACK CFI 1e7c0 .cfa: sp 16 +
STACK CFI 1e7c4 .cfa: x29 16 + .ra: .cfa -8 + ^ x29: .cfa -16 + ^
STACK CFI INIT 1e820 30 .cfa: sp 0 +
STACK CFI 1e824 .cfa: sp 32 +
STACK CFI 1e82c .cfa: x29 32 + x19: .cfa -16 + ^ .ra: .cfa -24 + ^ x29: .cfa -32 + ^
STACK CFI 1e844 .cfa: sp 32 +
STACK CFI 1e84c .cfa: sp 0 +
STACK CFI INIT 1e850 34 .cfa: sp 0 +
STACK CFI 1e854 .cfa: sp 32 +
STACK CFI 1e85c .cfa: x29 32 + x19: .cfa -16 + ^ .ra: .cfa -24 + ^ x29: .cfa -32 + ^
STACK CFI INIT 1e884 94 .cfa: sp 0 +
STACK CFI 1e888 .cfa: sp 48 +
STACK CFI 1e894 .cfa: x29 48 + x19: .cfa -8 + ^ x20: .cfa -16 + ^ x21: .cfa -24 + ^ x22: .cfa -32 + ^ .ra: .cfa -40 + ^ x29: .cfa -48 + ^
STACK CFI 1e8ac .cfa: sp 48 +
STACK CFI 1e8b8 .cfa: sp 0 +
STACK CFI 1e8bc .cfa: x29 48 +
STACK CFI 1e900 .cfa: sp 48 +
STACK CFI 1e90c .cfa: sp 0 +
STACK CFI 1e910 .cfa: x29 48 +
STACK CFI INIT 1e918 14 .cfa: sp 0 +
STACK CFI 1e91c .cfa: sp 16 +
STACK CFI 1e920 .cfa: x29 16 + .ra: .cfa -8 + ^ x29: .cfa -16 + ^
STACK CFI INIT 1e930 30 .cfa: sp 0 +
STACK CFI INIT 1e960 98 .cfa: sp 0 +
STACK CFI INIT 1e9f8 2ac .cfa: sp 0 +
STACK CFI INIT 1eca4 8c .cfa: sp 0 +
STACK CFI INIT 1ed30 30 .cfa: sp 0 +
STACK CFI INIT 1f9f8 1c .cfa: sp 0 +
STACK CFI INIT 1fa14 1c .cfa: sp 0 +
STACK CFI INIT 1fa30 50 .cfa: sp 0 +
STACK CFI 1fa34 .cfa: sp 32 +
STACK CFI 1fa3c .cfa: x29 32 + x19: .cfa -16 + ^ .ra: .cfa -24 + ^ x29: .cfa -32 + ^
STACK CFI 1fa74 .cfa: sp 32 +
STACK CFI 1fa7c .cfa: sp 0 +
STACK CFI INIT 1fc00 8 .cfa: sp 0 +
STACK CFI INIT 1fd80 2c .cfa: sp 0 +
STACK CFI 1fd84 .cfa: sp 32 +
STACK CFI 1fd8c .cfa: x29 32 + x19: .cfa -16 + ^ .ra: .cfa -24 + ^ x29: .cfa -32 + ^
STACK CFI 1fda0 .cfa: sp 32 +
STACK CFI 1fda8 .cfa: sp 0 +
STACK CFI INIT 1fdac 28 .cfa: sp 0 +
STACK CFI INIT 1fdd4 4 .cfa: sp 0 +
STACK CFI INIT 1fdd8 8 .cfa: sp 0 +
STACK CFI INIT 1ff60 2c .cfa: sp 0 +
STACK CFI INIT 1ff8c 4 .cfa: sp 0 +
STACK CFI INIT 1ff90 4 .cfa: sp 0 +
STACK CFI INIT 1ff94 4 .cfa: sp 0 +
STACK CFI INIT 1ff98 4 .cfa: sp 0 +
STACK CFI INIT 1ff9c 4 .cfa: sp 0 +
STACK CFI INIT 1ffa0 8 .cfa: sp 0 +
STACK CFI INIT 1ffa8 ac .cfa: sp 0 +
STACK CFI 1ffac .cfa: sp 64 +
STACK CFI 1ffbc .cfa: x29 64 + x19: .cfa -8 + ^ x20: .cfa -16 + ^ x21: .cfa -24 + ^ x22: .cfa -32 + ^ x23: .cfa -48 + ^ .ra: .cfa -56 + ^ x29: .cfa -64 + ^
STACK CFI 20038 .cfa: sp 64 +
STACK CFI 20048 .cfa: sp 0 +
STACK CFI 2004c .cfa: x29 64 +
STACK CFI INIT 20054 13c .cfa: sp 0 +
STACK CFI 20058 .cfa: sp 64 +
STACK CFI 20068 .cfa: x29 64 + x19: .cfa -8 + ^ x20: .cfa -16 + ^ x21: .cfa -24 + ^ x22: .cfa -32 + ^ x23: .cfa -40 + ^ x24: .cfa -48 + ^ .ra: .cfa -56 + ^ x29: .cfa -64 + ^
STACK CFI 20148 .cfa: sp 64 +
STACK CFI 20158 .cfa: sp 0 +
STACK CFI 2015c .cfa: x29 64 +
STACK CFI INIT 201fc 4 .cfa: sp 0 +
STACK CFI INIT 203a0 4 .cfa: sp 0 +
STACK CFI INIT 203a4 60 .cfa: sp 0 +
STACK CFI 203a8 .cfa: sp 32 +
STACK CFI 203b0 .cfa: x29 32 + x19: .cfa -8 + ^ x20: .cfa -16 + ^ .ra: .cfa -24 + ^ x29: .cfa -32 + ^
STACK CFI 203d0 .cfa: sp 32 +
STACK CFI 203d8 .cfa: sp 0 +
STACK CFI 203dc .cfa: x29 32 +
STACK CFI 203f8 .cfa: sp 32 +
STACK CFI 20400 .cfa: sp 0 +
STACK CFI INIT 20404 70 .cfa: sp 0 +
STACK CFI 20408 .cfa: sp 32 +
STACK CFI 20410 .cfa: x29 32 + x19: .cfa -8 + ^ x20: .cfa -16 + ^ .ra: .cfa -24 + ^ x29: .cfa -32 + ^
STACK CFI 20438 .cfa: sp 32 +
STACK CFI 20440 .cfa: sp 0 +
STACK CFI 20444 .cfa: x29 32 +
STACK CFI 20468 .cfa: sp 32 +
STACK CFI 20470 .cfa: sp 0 +
STACK CFI INIT 20474 10 .cfa: sp 0 +
STACK CFI INIT 20484 30 .cfa: sp 0 +
STACK CFI 20488 .cfa: sp 32 +
STACK CFI 20490 .cfa: x29 32 + x19: .cfa -16 + ^ .ra: .cfa -24 + ^ x29: .cfa -32 + ^
STACK CFI 204a8 .cfa: sp 32 +
STACK CFI 204b0 .cfa: sp 0 +
STACK CFI INIT 204b4 4 .cfa: sp 0 +
STACK CFI INIT 204b8 4 .cfa: sp 0 +
STACK CFI INIT 204bc 104 .cfa: sp 0 +
STACK CFI 204c0 .cfa: sp 64 +
STACK CFI 204d0 .cfa: x29 64 + x19: .cfa -8 + ^ x20: .cfa -16 + ^ x21: .cfa -24 + ^ x22: .cfa -32 + ^ x23: .cfa -48 + ^ .ra: .cfa -56 + ^ x29: .cfa -64 + ^
STACK CFI 2052c .cfa: sp 64 +
STACK CFI 2053c .cfa: sp 0 +
STACK CFI 20540 .cfa: x29 64 +
STACK CFI 2055c .cfa: sp 64 +
STACK CFI 2056c .cfa: sp 0 +
STACK CFI 20570 .cfa: x29 64 +
STACK CFI 205ac .cfa: sp 64 +
STACK CFI 205bc .cfa: sp 0 +
STACK CFI INIT 2073c 4 .cfa: sp 0 +
STACK CFI INIT 20740 4 .cfa: sp 0 +
STACK CFI INIT 20744 24 .cfa: sp 0 +
STACK CFI 20748 .cfa: sp 16 +
STACK CFI 2074c .cfa: x29 16 + .ra: .cfa -8 + ^ x29: .cfa -16 + ^
STACK CFI 20760 .cfa: sp 16 +
STACK CFI 20764 .cfa: sp 0 +
STACK CFI INIT 20768 10 .cfa: sp 0 +
STACK CFI INIT 20778 4 .cfa: sp 0 +
STACK CFI INIT 2077c 4 .cfa: sp 0 +
STACK CFI INIT 21608 1c .cfa: sp 0 +
STACK CFI INIT 21624 c .cfa: sp 0 +
STACK CFI INIT 21d3c 7c .cfa: sp 0 +
STACK CFI 21d40 .cfa: sp 48 +
STACK CFI 21d4c .cfa: x29 48 + x19: .cfa -8 + ^ x20: .cfa -16 + ^ x21: .cfa -32 + ^ .ra: .cfa -40 + ^ x29: .cfa -48 + ^
STACK CFI 21d98 .cfa: sp 48 +
STACK CFI 21da4 .cfa: sp 0 +
STACK CFI 21da8 .cfa: sp 48 +
STACK CFI 21db4 .cfa: sp 0 +
STACK CFI INIT 21ff0 144 .cfa: sp 0 +
STACK CFI 21ff4 .cfa: sp 80 +
STACK CFI 22008 .cfa: x29 80 + x19: .cfa -8 + ^ x20: .cfa -16 + ^ x21: .cfa -24 + ^ x22: .cfa -32 + ^ x23: .cfa -40 + ^ x24: .cfa -48 + ^ x25: .cfa -64 + ^ .ra: .cfa -72 + ^ x29: .cfa -80 + ^
STACK CFI 22114 .cfa: sp 80 +
STACK CFI 22128 .cfa: sp 0 +
STACK CFI 2212c .cfa: x29 80 +
STACK CFI INIT 22134 34 .cfa: sp 0 +
STACK CFI 22138 .cfa: sp 32 +
STACK CFI 22140 .cfa: x29 32 + x19: .cfa -8 + ^ x20: .cfa -16 + ^ .ra: .cfa -24 + ^ x29: .cfa -32 + ^
STACK CFI 2215c .cfa: sp 32 +
STACK CFI 22164 .cfa: sp 0 +
STACK CFI INIT 221b8 14 .cfa: sp 0 +
STACK CFI 221bc .cfa: sp 16 +
STACK CFI 221c0 .cfa: x29 16 + .ra: .cfa -8 + ^ x29: .cfa -16 + ^
STACK CFI INIT 221cc 14 .cfa: sp 0 +
STACK CFI 221d0 .cfa: sp 16 +
STACK CFI 221d4 .cfa: x29 16 + .ra: .cfa -8 + ^ x29: .cfa -16 + ^
STACK CFI INIT 221e0 c .cfa: sp 0 +
STACK CFI 221e4 .cfa: sp 16 +
STACK CFI 221e8 .cfa: x29 16 + .ra: .cfa -8 + ^ x29: .cfa -16 + ^
STACK CFI INIT 2223c 30 .cfa: sp 0 +
STACK CFI 22240 .cfa: sp 32 +
STACK CFI 22248 .cfa: x29 32 + x19: .cfa -16 + ^ .ra: .cfa -24 + ^ x29: .cfa -32 + ^
STACK CFI 22260 .cfa: sp 32 +
STACK CFI 22268 .cfa: sp 0 +
STACK CFI INIT 2226c c .cfa: sp 0 +
STACK CFI 22270 .cfa: sp 16 +
STACK CFI 22274 .cfa: x29 16 + .ra: .cfa -8 + ^ x29: .cfa -16 + ^
STACK CFI INIT 22318 d8 .cfa: sp 0 +
STACK CFI 22320 .cfa: sp 48 +
STACK CFI 2232c .cfa: x29 48 + x19: .cfa -8 + ^ x20: .cfa -16 + ^ x21: .cfa -32 + ^ .ra: .cfa -40 + ^ x29: .cfa -48 + ^
STACK CFI 22384 .cfa: sp 0 + x19: x19 x20: x20 x21: x21 .ra: x30 x29: x29
STACK CFI 22388 .cfa: x29 48 + x19: .cfa -8 + ^ x20: .cfa -16 + ^ x21: .cfa -32 + ^ .ra: .cfa -40 + ^ x29: .cfa -48 + ^
STACK CFI 223e0 .cfa: sp 48 +
STACK CFI 223ec .cfa: sp 0 +
STACK CFI INIT 223f0 9c .cfa: sp 0 +
STACK CFI 223f4 .cfa: sp 32 +
STACK CFI 223fc .cfa: x29 32 + x19: .cfa -8 + ^ x20: .cfa -16 + ^ .ra: .cfa -24 + ^ x29: .cfa -32 + ^
STACK CFI 22480 .cfa: sp 32 +
STACK CFI 22488 .cfa: sp 0 +
STACK CFI INIT 2248c 50 .cfa: sp 0 +
STACK CFI 22490 .cfa: sp 32 +
STACK CFI 22498 .cfa: x29 32 + x19: .cfa -16 + ^ .ra: .cfa -24 + ^ x29: .cfa -32 + ^
STACK CFI 224b0 .cfa: sp 32 +
STACK CFI 224b8 .cfa: sp 0 +
STACK CFI 224bc .cfa: x29 32 +
STACK CFI 224d0 .cfa: sp 32 +
STACK CFI 224d8 .cfa: sp 0 +
STACK CFI INIT 224dc 4 .cfa: sp 0 +
STACK CFI INIT 226ac a4 .cfa: sp 0 +
STACK CFI 226b0 .cfa: sp 32 +
STACK CFI 226b8 .cfa: x29 32 + x19: .cfa -8 + ^ x20: .cfa -16 + ^ .ra: .cfa -24 + ^ x29: .cfa -32 + ^
STACK CFI 22744 .cfa: sp 32 +
STACK CFI 2274c .cfa: sp 0 +
STACK CFI INIT 22750 34 .cfa: sp 0 +
STACK CFI 22754 .cfa: sp 16 +
STACK CFI 22758 .cfa: x29 16 + .ra: .cfa -8 + ^ x29: .cfa -16 + ^
STACK CFI INIT 22784 24 .cfa: sp 0 +
STACK CFI 22788 .cfa: sp 32 +
STACK CFI 22790 .cfa: x29 32 + x19: .cfa -16 + ^ .ra: .cfa -24 + ^ x29: .cfa -32 + ^
STACK CFI 2279c .cfa: sp 32 +
STACK CFI 227a4 .cfa: sp 0 +
STACK CFI INIT 227a8 4 .cfa: sp 0 +
STACK CFI INIT 227ac 4 .cfa: sp 0 +
STACK CFI INIT 227b0 38 .cfa: sp 0 +
STACK CFI 227b4 .cfa: sp 32 +
STACK CFI 227bc .cfa: x29 32 + x19: .cfa -16 + ^ .ra: .cfa -24 + ^ x29: .cfa -32 + ^
STACK CFI 227dc .cfa: sp 32 +
STACK CFI 227e4 .cfa: sp 0 +
STACK CFI INIT 227e8 18 .cfa: sp 0 +
STACK CFI INIT 22800 4 .cfa: sp 0 +
STACK CFI INIT 22804 4 .cfa: sp 0 +
STACK CFI INIT 22808 10 .cfa: sp 0 +
STACK CFI INIT 22818 1c .cfa: sp 0 +
STACK CFI INIT 22834 c .cfa: sp 0 +
STACK CFI INIT 22ce4 50 .cfa: sp 0 +
STACK CFI 22ce8 .cfa: sp 32 +
STACK CFI 22cf0 .cfa: x29 32 + x19: .cfa -16 + ^ .ra: .cfa -24 + ^ x29: .cfa -32 + ^
STACK CFI 22d08 .cfa: sp 32 +
STACK CFI 22d10 .cfa: sp 0 +
STACK CFI 22d14 .cfa: x29 32 +
STACK CFI 22d28 .cfa: sp 32 +
STACK CFI 22d30 .cfa: sp 0 +
STACK CFI INIT 22d34 50 .cfa: sp 0 +
STACK CFI 22d38 .cfa: sp 32 +
STACK CFI 22d40 .cfa: x29 32 + x19: .cfa -16 + ^ .ra: .cfa -24 + ^ x29: .cfa -32 + ^
STACK CFI 22d58 .cfa: sp 32 +
STACK CFI 22d60 .cfa: sp 0 +
STACK CFI 22d64 .cfa: x29 32 +
STACK CFI 22d78 .cfa: sp 32 +
STACK CFI 22d80 .cfa: sp 0 +
STACK CFI INIT 22d84 5c .cfa: sp 0 +
STACK CFI 22d88 .cfa: sp 32 +
STACK CFI 22d90 .cfa: x29 32 + x19: .cfa -16 + ^ .ra: .cfa -24 + ^ x29: .cfa -32 + ^
STACK CFI 22db4 .cfa: sp 32 +
STACK CFI 22dbc .cfa: sp 0 +
STACK CFI 22dc0 .cfa: x29 32 +
STACK CFI 22dd4 .cfa: sp 32 +
STACK CFI 22ddc .cfa: sp 0 +
STACK CFI INIT 22de0 6c .cfa: sp 0 +
STACK CFI 22de4 .cfa: sp 32 +
STACK CFI 22dec .cfa: x29 32 + x19: .cfa -8 + ^ x20: .cfa -16 + ^ .ra: .cfa -24 + ^ x29: .cfa -32 + ^
STACK CFI 22e18 .cfa: sp 32 +
STACK CFI 22e20 .cfa: sp 0 +
STACK CFI 22e24 .cfa: x29 32 +
STACK CFI 22e40 .cfa: sp 32 +
STACK CFI 22e48 .cfa: sp 0 +
STACK CFI INIT 22e4c 58 .cfa: sp 0 +
STACK CFI 22e50 .cfa: sp 32 +
STACK CFI 22e58 .cfa: x29 32 + x19: .cfa -8 + ^ x20: .cfa -16 + ^ .ra: .cfa -24 + ^ x29: .cfa -32 + ^
STACK CFI 22e98 .cfa: sp 32 +
STACK CFI 22ea0 .cfa: sp 0 +
STACK CFI INIT 22ea4 4c .cfa: sp 0 +
STACK CFI 22ea8 .cfa: sp 32 +
STACK CFI 22eb0 .cfa: x29 32 + x19: .cfa -8 + ^ x20: .cfa -16 + ^ .ra: .cfa -24 + ^ x29: .cfa -32 + ^
STACK CFI 22ee4 .cfa: sp 32 +
STACK CFI 22eec .cfa: sp 0 +
STACK CFI INIT 22ef0 50 .cfa: sp 0 +
STACK CFI 22ef4 .cfa: sp 32 +
STACK CFI 22efc .cfa: x29 32 + x19: .cfa -16 + ^ .ra: .cfa -24 + ^ x29: .cfa -32 + ^
STACK CFI 22f14 .cfa: sp 32 +
STACK CFI 22f1c .cfa: sp 0 +
STACK CFI 22f20 .cfa: x29 32 +
STACK CFI 22f34 .cfa: sp 32 +
STACK CFI 22f3c .cfa: sp 0 +
STACK CFI INIT 22f40 60 .cfa: sp 0 +
STACK CFI 22f44 .cfa: sp 32 +
STACK CFI 22f4c .cfa: x29 32 + x19: .cfa -8 + ^ x20: .cfa -16 + ^ .ra: .cfa -24 + ^ x29: .cfa -32 + ^
STACK CFI 22f6c .cfa: sp 32 +
STACK CFI 22f74 .cfa: sp 0 +
STACK CFI 22f78 .cfa: x29 32 +
STACK CFI 22f94 .cfa: sp 32 +
STACK CFI 22f9c .cfa: sp 0 +
STACK CFI INIT 23138 1c .cfa: sp 0 +
STACK CFI INIT 23154 c .cfa: sp 0 +
STACK CFI INIT 23160 60 .cfa: sp 0 +
STACK CFI 23164 .cfa: sp 32 +
STACK CFI 2316c .cfa: x29 32 + x19: .cfa -8 + ^ x20: .cfa -16 + ^ .ra: .cfa -24 + ^ x29: .cfa -32 + ^
STACK CFI 2318c .cfa: sp 32 +
STACK CFI 23194 .cfa: sp 0 +
STACK CFI 23198 .cfa: x29 32 +
STACK CFI 231b4 .cfa: sp 32 +
STACK CFI 231bc .cfa: sp 0 +
STACK CFI INIT 231c0 70 .cfa: sp 0 +
STACK CFI 231c4 .cfa: sp 32 +
STACK CFI 231cc .cfa: x29 32 + x19: .cfa -8 + ^ x20: .cfa -16 + ^ .ra: .cfa -24 + ^ x29: .cfa -32 + ^
STACK CFI 231f4 .cfa: sp 32 +
STACK CFI 231fc .cfa: sp 0 +
STACK CFI 23200 .cfa: x29 32 +
STACK CFI 23224 .cfa: sp 32 +
STACK CFI 2322c .cfa: sp 0 +
STACK CFI INIT 23230 5c .cfa: sp 0 +
STACK CFI 23234 .cfa: sp 32 +
STACK CFI 2323c .cfa: x29 32 + x19: .cfa -16 + ^ .ra: .cfa -24 + ^ x29: .cfa -32 + ^
STACK CFI 23260 .cfa: sp 32 +
STACK CFI 23268 .cfa: sp 0 +
STACK CFI 2326c .cfa: x29 32 +
STACK CFI 23280 .cfa: sp 32 +
STACK CFI 23288 .cfa: sp 0 +
STACK CFI INIT 2328c 6c .cfa: sp 0 +
STACK CFI 23290 .cfa: sp 32 +
STACK CFI 23298 .cfa: x29 32 + x19: .cfa -8 + ^ x20: .cfa -16 + ^ .ra: .cfa -24 + ^ x29: .cfa -32 + ^
STACK CFI 232c4 .cfa: sp 32 +
STACK CFI 232cc .cfa: sp 0 +
STACK CFI 232d0 .cfa: x29 32 +
STACK CFI 232ec .cfa: sp 32 +
STACK CFI 232f4 .cfa: sp 0 +
STACK CFI INIT 232f8 58 .cfa: sp 0 +
STACK CFI 232fc .cfa: sp 32 +
STACK CFI 23304 .cfa: x29 32 + x19: .cfa -8 + ^ x20: .cfa -16 + ^ .ra: .cfa -24 + ^ x29: .cfa -32 + ^
STACK CFI 23344 .cfa: sp 32 +
STACK CFI 2334c .cfa: sp 0 +
STACK CFI INIT 23350 4c .cfa: sp 0 +
STACK CFI 23354 .cfa: sp 32 +
STACK CFI 2335c .cfa: x29 32 + x19: .cfa -8 + ^ x20: .cfa -16 + ^ .ra: .cfa -24 + ^ x29: .cfa -32 + ^
STACK CFI 23390 .cfa: sp 32 +
STACK CFI 23398 .cfa: sp 0 +
STACK CFI INIT 2339c 50 .cfa: sp 0 +
STACK CFI 233a0 .cfa: sp 32 +
STACK CFI 233a8 .cfa: x29 32 + x19: .cfa -16 + ^ .ra: .cfa -24 + ^ x29: .cfa -32 + ^
STACK CFI 233c0 .cfa: sp 32 +
STACK CFI 233c8 .cfa: sp 0 +
STACK CFI 233cc .cfa: x29 32 +
STACK CFI 233e0 .cfa: sp 32 +
STACK CFI 233e8 .cfa: sp 0 +
STACK CFI INIT 233ec 60 .cfa: sp 0 +
STACK CFI 233f0 .cfa: sp 32 +
STACK CFI 233f8 .cfa: x29 32 + x19: .cfa -8 + ^ x20: .cfa -16 + ^ .ra: .cfa -24 + ^ x29: .cfa -32 + ^
STACK CFI 23418 .cfa: sp 32 +
STACK CFI 23420 .cfa: sp 0 +
STACK CFI 23424 .cfa: x29 32 +
STACK CFI 23440 .cfa: sp 32 +
STACK CFI 23448 .cfa: sp 0 +
STACK CFI INIT 235d4 1c .cfa: sp 0 +
STACK CFI INIT 235f0 c .cfa: sp 0 +
STACK CFI INIT 235fc 1a8 .cfa: sp 0 +
STACK CFI INIT 237a4 e0 .cfa: sp 0 +
STACK CFI 237a8 .cfa: sp 48 +
STACK CFI 237b4 .cfa: x29 48 + x19: .cfa -8 + ^ x20: .cfa -16 + ^ x21: .cfa -32 + ^ .ra: .cfa -40 + ^ x29: .cfa -48 + ^
STACK CFI 2380c .cfa: sp 48 +
STACK CFI 23818 .cfa: sp 0 +
STACK CFI 2381c .cfa: x29 48 +
STACK CFI 23874 .cfa: sp 48 +
STACK CFI 23880 .cfa: sp 0 +
STACK CFI INIT 23a1c 4c .cfa: sp 0 +
STACK CFI INIT 23a68 5c .cfa: sp 0 +
STACK CFI 23a6c .cfa: sp 32 +
STACK CFI 23a74 .cfa: x29 32 + x19: .cfa -16 + ^ .ra: .cfa -24 + ^ x29: .cfa -32 + ^
STACK CFI 23ab8 .cfa: sp 32 +
STACK CFI 23ac0 .cfa: sp 0 +
STACK CFI INIT 23b60 88 .cfa: sp 0 +
STACK CFI 23b64 .cfa: sp 32 +
STACK CFI 23b6c .cfa: x29 32 + x19: .cfa -16 + ^ .ra: .cfa -24 + ^ x29: .cfa -32 + ^
STACK CFI 23bac .cfa: sp 32 +
STACK CFI 23bb4 .cfa: sp 0 +
STACK CFI 23bb8 .cfa: x29 32 +
STACK CFI 23bbc .cfa: sp 32 +
STACK CFI 23bc4 .cfa: sp 0 +
STACK CFI 23bc8 .cfa: x29 32 +
STACK CFI 23bdc .cfa: sp 32 +
STACK CFI 23be4 .cfa: sp 0 +
STACK CFI INIT 23be8 40 .cfa: sp 0 +
STACK CFI INIT 23c28 50 .cfa: sp 0 +
STACK CFI 23c2c .cfa: sp 32 +
STACK CFI 23c34 .cfa: x29 32 + x19: .cfa -16 + ^ .ra: .cfa -24 + ^ x29: .cfa -32 + ^
STACK CFI 23c6c .cfa: sp 32 +
STACK CFI 23c74 .cfa: sp 0 +
STACK CFI INIT 23c78 94 .cfa: sp 0 +
STACK CFI 23c7c .cfa: sp 48 +
STACK CFI 23c88 .cfa: x29 32 + x19: .cfa -8 + ^ x20: .cfa -16 + ^ .ra: .cfa -24 + ^ x29: .cfa -32 + ^
STACK CFI 23ce4 .cfa: sp 48 +
STACK CFI 23cf0 .cfa: sp 0 +
STACK CFI 23cf4 .cfa: x29 32 +
STACK CFI INIT 23d0c 1c .cfa: sp 0 +
STACK CFI INIT 23d28 c .cfa: sp 0 +
STACK CFI INIT 23d34 20 .cfa: sp 0 +
STACK CFI INIT 23d54 40 .cfa: sp 0 +
STACK CFI 23d6c .cfa: sp 32 +
STACK CFI 23d74 .cfa: x29 32 + x19: .cfa -16 + ^ .ra: .cfa -24 + ^ x29: .cfa -32 + ^
STACK CFI 23d88 .cfa: sp 32 +
STACK CFI 23d90 .cfa: sp 0 +
STACK CFI INIT 23e20 44 .cfa: sp 0 +
STACK CFI INIT 23e64 14 .cfa: sp 0 +
STACK CFI INIT 23e78 34 .cfa: sp 0 +
STACK CFI 23e84 .cfa: sp 32 +
STACK CFI 23e8c .cfa: x29 32 + x19: .cfa -16 + ^ .ra: .cfa -24 + ^ x29: .cfa -32 + ^
STACK CFI 23ea0 .cfa: sp 32 +
STACK CFI 23ea8 .cfa: sp 0 +
STACK CFI INIT 24560 1c .cfa: sp 0 +
STACK CFI INIT 2457c c .cfa: sp 0 +
STACK CFI INIT 24a24 a0 .cfa: sp 0 +
STACK CFI 24a28 .cfa: sp 48 +
STACK CFI 24a34 .cfa: x29 48 + x19: .cfa -8 + ^ x20: .cfa -16 + ^ x21: .cfa -24 + ^ x22: .cfa -32 + ^ .ra: .cfa -40 + ^ x29: .cfa -48 + ^
STACK CFI 24ab4 .cfa: sp 48 +
STACK CFI 24ac0 .cfa: sp 0 +
STACK CFI INIT 24ac4 a4 .cfa: sp 0 +
STACK CFI 24ac8 .cfa: sp 32 +
STACK CFI 24ad0 .cfa: x29 32 + x19: .cfa -8 + ^ x20: .cfa -16 + ^ .ra: .cfa -24 + ^ x29: .cfa -32 + ^
STACK CFI 24b50 .cfa: sp 32 +
STACK CFI 24b58 .cfa: sp 0 +
STACK CFI 24b5c .cfa: sp 32 +
STACK CFI 24b64 .cfa: sp 0 +
STACK CFI INIT 24b68 2b4 .cfa: sp 0 +
STACK CFI 24b6c .cfa: sp 96 +
STACK CFI 24b84 .cfa: x29 64 + x19: .cfa -8 + ^ x20: .cfa -16 + ^ x21: .cfa -24 + ^ x22: .cfa -32 + ^ x23: .cfa -48 + ^ .ra: .cfa -56 + ^ x29: .cfa -64 + ^ v8: .cfa -72 + ^ v9: .cfa -80 + ^
STACK CFI 24dfc .cfa: sp 96 +
STACK CFI 24e14 .cfa: sp 0 +
STACK CFI 24e18 .cfa: x29 64 +
STACK CFI INIT 24e1c 20 .cfa: sp 0 +
STACK CFI INIT 24e3c 40 .cfa: sp 0 +
STACK CFI 24e54 .cfa: sp 32 +
STACK CFI 24e5c .cfa: x29 32 + x19: .cfa -16 + ^ .ra: .cfa -24 + ^ x29: .cfa -32 + ^
STACK CFI 24e70 .cfa: sp 32 +
STACK CFI 24e78 .cfa: sp 0 +
STACK CFI INIT 24f0c 4c .cfa: sp 0 +
STACK CFI INIT 24f58 14 .cfa: sp 0 +
STACK CFI INIT 24f6c 34 .cfa: sp 0 +
STACK CFI 24f78 .cfa: sp 32 +
STACK CFI 24f80 .cfa: x29 32 + x19: .cfa -16 + ^ .ra: .cfa -24 + ^ x29: .cfa -32 + ^
STACK CFI 24f94 .cfa: sp 32 +
STACK CFI 24f9c .cfa: sp 0 +
STACK CFI INIT 2524c 1c .cfa: sp 0 +
STACK CFI INIT 25268 c .cfa: sp 0 +
STACK CFI INIT 25274 44 .cfa: sp 0 +
STACK CFI 25278 .cfa: sp 32 +
STACK CFI 25280 .cfa: x29 32 + x19: .cfa -16 + ^ .ra: .cfa -24 + ^ x29: .cfa -32 + ^
STACK CFI 252a0 .cfa: sp 32 +
STACK CFI 252a8 .cfa: sp 0 +
STACK CFI 252ac .cfa: sp 32 +
STACK CFI 252b4 .cfa: sp 0 +
STACK CFI INIT 252b8 14 .cfa: sp 0 +
STACK CFI 252bc .cfa: sp 16 +
STACK CFI 252c0 .cfa: x29 16 + .ra: .cfa -8 + ^ x29: .cfa -16 + ^
STACK CFI INIT 2554c 70 .cfa: sp 0 +
STACK CFI 25550 .cfa: sp 32 +
STACK CFI 25558 .cfa: x29 32 + x19: .cfa -8 + ^ x20: .cfa -16 + ^ .ra: .cfa -24 + ^ x29: .cfa -32 + ^
STACK CFI 255a4 .cfa: sp 32 +
STACK CFI 255ac .cfa: sp 0 +
STACK CFI 255b0 .cfa: sp 32 +
STACK CFI 255b8 .cfa: sp 0 +
STACK CFI INIT 255bc 3c .cfa: sp 0 +
STACK CFI 255c0 .cfa: sp 32 +
STACK CFI 255c8 .cfa: x29 32 + x19: .cfa -16 + ^ .ra: .cfa -24 + ^ x29: .cfa -32 + ^
STACK CFI 255e0 .cfa: sp 32 +
STACK CFI 255e8 .cfa: sp 0 +
STACK CFI 255ec .cfa: sp 32 +
STACK CFI 255f4 .cfa: sp 0 +
STACK CFI INIT 255f8 20 .cfa: sp 0 +
STACK CFI INIT 25618 40 .cfa: sp 0 +
STACK CFI 25630 .cfa: sp 32 +
STACK CFI 25638 .cfa: x29 32 + x19: .cfa -16 + ^ .ra: .cfa -24 + ^ x29: .cfa -32 + ^
STACK CFI 2564c .cfa: sp 32 +
STACK CFI 25654 .cfa: sp 0 +
STACK CFI INIT 256ec 4c .cfa: sp 0 +
STACK CFI INIT 25738 14 .cfa: sp 0 +
STACK CFI INIT 2574c 34 .cfa: sp 0 +
STACK CFI 25758 .cfa: sp 32 +
STACK CFI 25760 .cfa: x29 32 + x19: .cfa -16 + ^ .ra: .cfa -24 + ^ x29: .cfa -32 + ^
STACK CFI 25774 .cfa: sp 32 +
STACK CFI 2577c .cfa: sp 0 +
STACK CFI INIT 258e4 1c .cfa: sp 0 +
STACK CFI INIT 25900 c .cfa: sp 0 +
STACK CFI INIT 2590c 3c .cfa: sp 0 +
STACK CFI 25910 .cfa: sp 32 +
STACK CFI 25918 .cfa: x29 32 + x19: .cfa -16 + ^ .ra: .cfa -24 + ^ x29: .cfa -32 + ^
STACK CFI 25924 .cfa: sp 32 +
STACK CFI 2592c .cfa: sp 0 +
STACK CFI 25930 .cfa: x29 32 +
STACK CFI 2593c .cfa: sp 32 +
STACK CFI 25944 .cfa: sp 0 +
STACK CFI INIT 25948 3c .cfa: sp 0 +
STACK CFI 2594c .cfa: sp 32 +
STACK CFI 25954 .cfa: x29 32 + x19: .cfa -16 + ^ .ra: .cfa -24 + ^ x29: .cfa -32 + ^
STACK CFI 25960 .cfa: sp 32 +
STACK CFI 25968 .cfa: sp 0 +
STACK CFI 2596c .cfa: x29 32 +
STACK CFI 25978 .cfa: sp 32 +
STACK CFI 25980 .cfa: sp 0 +
STACK CFI INIT 25984 4c .cfa: sp 0 +
STACK CFI 25988 .cfa: sp 32 +
STACK CFI 25990 .cfa: x29 32 + x19: .cfa -8 + ^ x20: .cfa -16 + ^ .ra: .cfa -24 + ^ x29: .cfa -32 + ^
STACK CFI 259b8 .cfa: sp 32 +
STACK CFI 259c0 .cfa: sp 0 +
STACK CFI 259c4 .cfa: sp 32 +
STACK CFI 259cc .cfa: sp 0 +
STACK CFI INIT 25bf0 50 .cfa: sp 0 +
STACK CFI 25bf4 .cfa: sp 32 +
STACK CFI 25bfc .cfa: x29 32 + x19: .cfa -16 + ^ .ra: .cfa -24 + ^ x29: .cfa -32 + ^
STACK CFI 25c14 .cfa: sp 32 +
STACK CFI 25c1c .cfa: sp 0 +
STACK CFI 25c20 .cfa: x29 32 +
STACK CFI 25c34 .cfa: sp 32 +
STACK CFI 25c3c .cfa: sp 0 +
STACK CFI INIT 25c40 64 .cfa: sp 0 +
STACK CFI 25c44 .cfa: sp 32 +
STACK CFI 25c4c .cfa: x29 32 + x19: .cfa -16 + ^ .ra: .cfa -24 + ^ x29: .cfa -32 + ^
STACK CFI 25c78 .cfa: sp 32 +
STACK CFI 25c80 .cfa: sp 0 +
STACK CFI 25c84 .cfa: x29 32 +
STACK CFI 25c98 .cfa: sp 32 +
STACK CFI 25ca0 .cfa: sp 0 +
STACK CFI INIT 25ca4 24 .cfa: sp 0 +
STACK CFI 25ca8 .cfa: sp 32 +
STACK CFI 25cb0 .cfa: x29 32 + x19: .cfa -16 + ^ .ra: .cfa -24 + ^ x29: .cfa -32 + ^
STACK CFI 25cbc .cfa: sp 32 +
STACK CFI 25cc4 .cfa: sp 0 +
STACK CFI INIT 25cc8 24 .cfa: sp 0 +
STACK CFI 25ccc .cfa: sp 32 +
STACK CFI 25cd4 .cfa: x29 32 + x19: .cfa -16 + ^ .ra: .cfa -24 + ^ x29: .cfa -32 + ^
STACK CFI 25ce0 .cfa: sp 32 +
STACK CFI 25ce8 .cfa: sp 0 +
STACK CFI INIT 25cec 8 .cfa: sp 0 +
STACK CFI INIT 25cf4 24 .cfa: sp 0 +
STACK CFI 25cf8 .cfa: sp 32 +
STACK CFI 25d00 .cfa: x29 32 + x19: .cfa -16 + ^ .ra: .cfa -24 + ^ x29: .cfa -32 + ^
STACK CFI 25d0c .cfa: sp 32 +
STACK CFI 25d14 .cfa: sp 0 +
STACK CFI INIT 25d18 28 .cfa: sp 0 +
STACK CFI 25d1c .cfa: sp 32 +
STACK CFI 25d24 .cfa: x29 32 + x19: .cfa -16 + ^ .ra: .cfa -24 + ^ x29: .cfa -32 + ^
STACK CFI 25d34 .cfa: sp 32 +
STACK CFI 25d3c .cfa: sp 0 +
STACK CFI INIT 26040 8 .cfa: sp 0 +
STACK CFI INIT 26048 24 .cfa: sp 0 +
STACK CFI 2604c .cfa: sp 32 +
STACK CFI 26054 .cfa: x29 32 + x19: .cfa -16 + ^ .ra: .cfa -24 + ^ x29: .cfa -32 + ^
STACK CFI 26060 .cfa: sp 32 +
STACK CFI 26068 .cfa: sp 0 +
STACK CFI INIT 2606c 28 .cfa: sp 0 +
STACK CFI 26070 .cfa: sp 32 +
STACK CFI 26078 .cfa: x29 32 + x19: .cfa -16 + ^ .ra: .cfa -24 + ^ x29: .cfa -32 + ^
STACK CFI 26088 .cfa: sp 32 +
STACK CFI 26090 .cfa: sp 0 +
STACK CFI INIT 262f8 8 .cfa: sp 0 +
STACK CFI INIT 26300 24 .cfa: sp 0 +
STACK CFI 26304 .cfa: sp 32 +
STACK CFI 2630c .cfa: x29 32 + x19: .cfa -16 + ^ .ra: .cfa -24 + ^ x29: .cfa -32 + ^
STACK CFI 26318 .cfa: sp 32 +
STACK CFI 26320 .cfa: sp 0 +
STACK CFI INIT 26324 28 .cfa: sp 0 +
STACK CFI 26328 .cfa: sp 32 +
STACK CFI 26330 .cfa: x29 32 + x19: .cfa -16 + ^ .ra: .cfa -24 + ^ x29: .cfa -32 + ^
STACK CFI 26340 .cfa: sp 32 +
STACK CFI 26348 .cfa: sp 0 +
STACK CFI INIT 265bc 24 .cfa: sp 0 +
STACK CFI 265c0 .cfa: sp 32 +
STACK CFI 265c8 .cfa: x29 32 + x19: .cfa -16 + ^ .ra: .cfa -24 + ^ x29: .cfa -32 + ^
STACK CFI 265d4 .cfa: sp 32 +
STACK CFI 265dc .cfa: sp 0 +
STACK CFI INIT 26c98 24 .cfa: sp 0 +
STACK CFI 26c9c .cfa: sp 32 +
STACK CFI 26ca4 .cfa: x29 32 + x19: .cfa -16 + ^ .ra: .cfa -24 + ^ x29: .cfa -32 + ^
STACK CFI 26cb0 .cfa: sp 32 +
STACK CFI 26cb8 .cfa: sp 0 +
STACK CFI INIT 26cbc 9c .cfa: sp 0 +
STACK CFI 26cc0 .cfa: sp 32 +
STACK CFI 26cc8 .cfa: x29 32 + x19: .cfa -16 + ^ .ra: .cfa -24 + ^ x29: .cfa -32 + ^
STACK CFI 26d4c .cfa: sp 32 +
STACK CFI 26d54 .cfa: sp 0 +
STACK CFI INIT 26d58 8 .cfa: sp 0 +
STACK CFI INIT 26d60 24 .cfa: sp 0 +
STACK CFI 26d64 .cfa: sp 32 +
STACK CFI 26d6c .cfa: x29 32 + x19: .cfa -16 + ^ .ra: .cfa -24 + ^ x29: .cfa -32 + ^
STACK CFI 26d78 .cfa: sp 32 +
STACK CFI 26d80 .cfa: sp 0 +
STACK CFI INIT 26d84 28 .cfa: sp 0 +
STACK CFI 26d88 .cfa: sp 32 +
STACK CFI 26d90 .cfa: x29 32 + x19: .cfa -16 + ^ .ra: .cfa -24 + ^ x29: .cfa -32 + ^
STACK CFI 26da0 .cfa: sp 32 +
STACK CFI 26da8 .cfa: sp 0 +
STACK CFI INIT 26dac 14 .cfa: sp 0 +
STACK CFI INIT 26dc0 4 .cfa: sp 0 +
STACK CFI INIT 27f64 34 .cfa: sp 0 +
STACK CFI 27f68 .cfa: sp 16 +
STACK CFI 27f6c .cfa: x29 16 + .ra: .cfa -8 + ^ x29: .cfa -16 + ^
STACK CFI INIT 280cc 80 .cfa: sp 0 +
STACK CFI 280d0 .cfa: sp 48 +
STACK CFI 280dc .cfa: x29 48 + x19: .cfa -8 + ^ x20: .cfa -16 + ^ x21: .cfa -32 + ^ .ra: .cfa -40 + ^ x29: .cfa -48 + ^
STACK CFI 2813c .cfa: sp 48 +
STACK CFI 28148 .cfa: sp 0 +
STACK CFI INIT 2814c 24 .cfa: sp 0 +
STACK CFI 28150 .cfa: sp 32 +
STACK CFI 28158 .cfa: x29 32 + x19: .cfa -16 + ^ .ra: .cfa -24 + ^ x29: .cfa -32 + ^
STACK CFI 28164 .cfa: sp 32 +
STACK CFI 2816c .cfa: sp 0 +
STACK CFI INIT 286d8 84 .cfa: sp 0 +
STACK CFI 286e0 .cfa: sp 48 +
STACK CFI 286ec .cfa: x29 48 + x19: .cfa -8 + ^ x20: .cfa -16 + ^ x21: .cfa -32 + ^ .ra: .cfa -40 + ^ x29: .cfa -48 + ^
STACK CFI 2874c .cfa: sp 48 +
STACK CFI 28758 .cfa: sp 0 +
STACK CFI INIT 288c4 4 .cfa: sp 0 +
STACK CFI INIT 288c8 14 .cfa: sp 0 +
STACK CFI INIT 28de8 c .cfa: sp 0 +
STACK CFI INIT 28df4 24c .cfa: sp 0 +
STACK CFI INIT 29040 a0 .cfa: sp 0 +
STACK CFI 2904c .cfa: sp 32 +
STACK CFI 290a4 .cfa: sp 0 +
STACK CFI 290a8 .cfa: sp 32 +
STACK CFI 290b0 .cfa: sp 0 +
STACK CFI 290b4 .cfa: sp 32 +
STACK CFI 290c8 .cfa: sp 0 +
STACK CFI 290cc .cfa: sp 32 +
STACK CFI 290dc .cfa: sp 0 +
STACK CFI INIT 290e0 38 .cfa: sp 0 +
STACK CFI 290ec .cfa: sp 32 +
STACK CFI 29114 .cfa: sp 0 +
STACK CFI INIT 293ac 7c .cfa: sp 0 +
STACK CFI 293b0 .cfa: sp 32 +
STACK CFI 293b8 .cfa: x29 32 + x19: .cfa -16 + ^ .ra: .cfa -24 + ^ x29: .cfa -32 + ^
STACK CFI 293e4 .cfa: sp 32 +
STACK CFI 293ec .cfa: sp 0 +
STACK CFI 293f0 .cfa: x29 32 +
STACK CFI 2941c .cfa: sp 32 +
STACK CFI 29424 .cfa: sp 0 +
STACK CFI INIT 29478 2c .cfa: sp 0 +
STACK CFI 2947c .cfa: sp 32 +
STACK CFI 29484 .cfa: x29 32 + x19: .cfa -16 + ^ .ra: .cfa -24 + ^ x29: .cfa -32 + ^
STACK CFI 29498 .cfa: sp 32 +
STACK CFI 294a0 .cfa: sp 0 +
STACK CFI INIT 29c64 64 .cfa: sp 0 +
STACK CFI 29c68 .cfa: sp 32 +
STACK CFI 29c70 .cfa: x29 32 + x19: .cfa -16 + ^ .ra: .cfa -24 + ^ x29: .cfa -32 + ^
STACK CFI 29c8c .cfa: sp 32 +
STACK CFI 29c94 .cfa: sp 0 +
STACK CFI 29c98 .cfa: x29 32 +
STACK CFI 29cbc .cfa: sp 32 +
STACK CFI 29cc4 .cfa: sp 0 +
STACK CFI INIT 29e14 570 .cfa: sp 0 +
STACK CFI 29e18 .cfa: sp 176 +
STACK CFI 29e2c .cfa: x29 64 + x19: .cfa -8 + ^ x20: .cfa -16 + ^ x21: .cfa -24 + ^ x22: .cfa -32 + ^ x23: .cfa -40 + ^ x24: .cfa -48 + ^ .ra: .cfa -56 + ^ x29: .cfa -64 + ^
STACK CFI 2a05c .cfa: sp 176 +
STACK CFI 2a070 .cfa: sp 0 +
STACK CFI 2a074 .cfa: x29 64 +
STACK CFI 2a0c0 .cfa: sp 176 +
STACK CFI 2a0d4 .cfa: sp 0 +
STACK CFI 2a0d8 .cfa: x29 64 +
STACK CFI 2a110 .cfa: sp 176 +
STACK CFI 2a124 .cfa: sp 0 +
STACK CFI 2a128 .cfa: x29 64 +
STACK CFI 2a140 .cfa: sp 176 +
STACK CFI 2a154 .cfa: sp 0 +
STACK CFI 2a158 .cfa: x29 64 +
STACK CFI 2a178 .cfa: sp 176 +
STACK CFI 2a18c .cfa: sp 0 +
STACK CFI 2a190 .cfa: x29 64 +
STACK CFI 2a1a8 .cfa: sp 176 +
STACK CFI 2a1bc .cfa: sp 0 +
STACK CFI 2a1c0 .cfa: x29 64 +
STACK CFI 2a1d4 .cfa: sp 176 +
STACK CFI 2a1e8 .cfa: sp 0 +
STACK CFI 2a1ec .cfa: x29 64 +
STACK CFI 2a200 .cfa: sp 176 +
STACK CFI 2a214 .cfa: sp 0 +
STACK CFI 2a218 .cfa: x29 64 +
STACK CFI 2a228 .cfa: sp 176 +
STACK CFI 2a23c .cfa: sp 0 +
STACK CFI 2a240 .cfa: x29 64 +
STACK CFI 2a250 .cfa: sp 176 +
STACK CFI 2a264 .cfa: sp 0 +
STACK CFI 2a268 .cfa: x29 64 +
STACK CFI 2a280 .cfa: sp 176 +
STACK CFI 2a294 .cfa: sp 0 +
STACK CFI 2a298 .cfa: x29 64 +
STACK CFI 2a2ac .cfa: sp 176 +
STACK CFI 2a2c0 .cfa: sp 0 +
STACK CFI 2a2c4 .cfa: x29 64 +
STACK CFI 2a2dc .cfa: sp 176 +
STACK CFI 2a2f0 .cfa: sp 0 +
STACK CFI 2a2f4 .cfa: x29 64 +
STACK CFI 2a320 .cfa: sp 176 +
STACK CFI 2a334 .cfa: sp 0 +
STACK CFI 2a338 .cfa: x29 64 +
STACK CFI 2a34c .cfa: sp 176 +
STACK CFI 2a360 .cfa: sp 0 +
STACK CFI 2a364 .cfa: x29 64 +
STACK CFI INIT 2a384 228 .cfa: sp 0 +
STACK CFI INIT 2a5ac 2dc .cfa: sp 0 +
STACK CFI INIT 2a888 53c .cfa: sp 0 +
STACK CFI INIT 2adc4 78 .cfa: sp 0 +
STACK CFI 2adc8 .cfa: sp 48 +
STACK CFI 2add4 .cfa: x29 48 + x19: .cfa -8 + ^ x20: .cfa -16 + ^ x21: .cfa -24 + ^ x22: .cfa -32 + ^ .ra: .cfa -40 + ^ x29: .cfa -48 + ^
STACK CFI 2ae1c .cfa: sp 48 +
STACK CFI 2ae28 .cfa: sp 0 +
STACK CFI 2ae2c .cfa: sp 48 +
STACK CFI 2ae38 .cfa: sp 0 +
STACK CFI INIT 2ae3c 8c .cfa: sp 0 +
STACK CFI 2ae40 .cfa: sp 32 +
STACK CFI 2ae48 .cfa: x29 32 + x19: .cfa -16 + ^ .ra: .cfa -24 + ^ x29: .cfa -32 + ^
STACK CFI 2ae7c .cfa: sp 32 +
STACK CFI 2ae84 .cfa: sp 0 +
STACK CFI 2ae88 .cfa: x29 32 +
STACK CFI 2aebc .cfa: sp 32 +
STACK CFI 2aec4 .cfa: sp 0 +
STACK CFI INIT 2aec8 24 .cfa: sp 0 +
STACK CFI 2aecc .cfa: sp 32 +
STACK CFI 2aed4 .cfa: x29 32 + x19: .cfa -16 + ^ .ra: .cfa -24 + ^ x29: .cfa -32 + ^
STACK CFI 2aee0 .cfa: sp 32 +
STACK CFI 2aee8 .cfa: sp 0 +
STACK CFI INIT 2aeec 150 .cfa: sp 0 +
STACK CFI 2aef0 .cfa: sp 48 +
STACK CFI 2aefc .cfa: x29 48 + x19: .cfa -8 + ^ x20: .cfa -16 + ^ x21: .cfa -24 + ^ x22: .cfa -32 + ^ .ra: .cfa -40 + ^ x29: .cfa -48 + ^
STACK CFI 2b02c .cfa: sp 48 +
STACK CFI 2b038 .cfa: sp 0 +
STACK CFI INIT 2b03c 68 .cfa: sp 0 +
STACK CFI 2b040 .cfa: sp 64 +
STACK CFI 2b04c .cfa: x29 32 + x19: .cfa -16 + ^ .ra: .cfa -24 + ^ x29: .cfa -32 + ^
STACK CFI 2b090 .cfa: sp 64 +
STACK CFI 2b09c .cfa: sp 0 +
STACK CFI 2b0a0 .cfa: x29 32 +
STACK CFI INIT 2b0a4 90 .cfa: sp 0 +
STACK CFI 2b0a8 .cfa: sp 32 +
STACK CFI 2b0b0 .cfa: x29 32 + x19: .cfa -8 + ^ x20: .cfa -16 + ^ .ra: .cfa -24 + ^ x29: .cfa -32 + ^
STACK CFI 2b0dc .cfa: sp 32 +
STACK CFI 2b0e4 .cfa: sp 0 +
STACK CFI 2b0e8 .cfa: x29 32 +
STACK CFI 2b128 .cfa: sp 32 +
STACK CFI 2b130 .cfa: sp 0 +
STACK CFI INIT 2b134 ec .cfa: sp 0 +
STACK CFI 2b138 .cfa: sp 112 +
STACK CFI 2b148 .cfa: x29 48 + x19: .cfa -8 + ^ x20: .cfa -16 + ^ x21: .cfa -32 + ^ .ra: .cfa -40 + ^ x29: .cfa -48 + ^
STACK CFI 2b208 .cfa: sp 112 +
STACK CFI 2b218 .cfa: sp 0 +
STACK CFI 2b21c .cfa: x29 48 +
STACK CFI INIT 2b220 ec .cfa: sp 0 +
STACK CFI 2b224 .cfa: sp 112 +
STACK CFI 2b234 .cfa: x29 48 + x19: .cfa -8 + ^ x20: .cfa -16 + ^ x21: .cfa -32 + ^ .ra: .cfa -40 + ^ x29: .cfa -48 + ^
STACK CFI 2b2f4 .cfa: sp 112 +
STACK CFI 2b304 .cfa: sp 0 +
STACK CFI 2b308 .cfa: x29 48 +
STACK CFI INIT 2b30c 48 .cfa: sp 0 +
STACK CFI 2b310 .cfa: sp 32 +
STACK CFI 2b318 .cfa: x29 32 + x19: .cfa -8 + ^ x20: .cfa -16 + ^ .ra: .cfa -24 + ^ x29: .cfa -32 + ^
STACK CFI 2b33c .cfa: sp 32 +
STACK CFI 2b344 .cfa: sp 0 +
STACK CFI 2b348 .cfa: x29 32 +
STACK CFI INIT 2b354 98 .cfa: sp 0 +
STACK CFI 2b358 .cfa: sp 80 +
STACK CFI 2b364 .cfa: x29 32 + x19: .cfa -16 + ^ .ra: .cfa -24 + ^ x29: .cfa -32 + ^
STACK CFI 2b3d8 .cfa: sp 80 +
STACK CFI 2b3e4 .cfa: sp 0 +
STACK CFI 2b3e8 .cfa: x29 32 +
STACK CFI INIT 2b3ec 260 .cfa: sp 0 +
STACK CFI 2b3f0 .cfa: sp 112 +
STACK CFI 2b408 .cfa: x29 80 + x19: .cfa -8 + ^ x20: .cfa -16 + ^ x21: .cfa -24 + ^ x22: .cfa -32 + ^ x23: .cfa -40 + ^ x24: .cfa -48 + ^ x25: .cfa -64 + ^ .ra: .cfa -72 + ^ x29: .cfa -80 + ^
STACK CFI 2b5ec .cfa: sp 112 +
STACK CFI 2b604 .cfa: sp 0 +
STACK CFI 2b608 .cfa: x29 80 +
STACK CFI INIT 2b64c 150 .cfa: sp 0 +
STACK CFI 2b650 .cfa: sp 48 +
STACK CFI 2b65c .cfa: x29 48 + x19: .cfa -8 + ^ x20: .cfa -16 + ^ x21: .cfa -24 + ^ x22: .cfa -32 + ^ .ra: .cfa -40 + ^ x29: .cfa -48 + ^
STACK CFI 2b78c .cfa: sp 48 +
STACK CFI 2b798 .cfa: sp 0 +
STACK CFI INIT 2b79c 1e0 .cfa: sp 0 +
STACK CFI 2b7a0 .cfa: sp 96 +
STACK CFI 2b7b4 .cfa: x29 64 + x19: .cfa -8 + ^ x20: .cfa -16 + ^ x21: .cfa -24 + ^ x22: .cfa -32 + ^ x23: .cfa -40 + ^ x24: .cfa -48 + ^ .ra: .cfa -56 + ^ x29: .cfa -64 + ^
STACK CFI 2b934 .cfa: sp 96 +
STACK CFI 2b948 .cfa: sp 0 +
STACK CFI 2b94c .cfa: x29 64 +
STACK CFI INIT 2b97c 284 .cfa: sp 0 +
STACK CFI 2b980 .cfa: sp 112 +
STACK CFI 2b998 .cfa: x29 80 + x19: .cfa -8 + ^ x20: .cfa -16 + ^ x21: .cfa -24 + ^ x22: .cfa -32 + ^ x23: .cfa -40 + ^ x24: .cfa -48 + ^ x25: .cfa -64 + ^ .ra: .cfa -72 + ^ x29: .cfa -80 + ^
STACK CFI 2bba0 .cfa: sp 112 +
STACK CFI 2bbb8 .cfa: sp 0 +
STACK CFI 2bbbc .cfa: x29 80 +
STACK CFI INIT 2bc00 208 .cfa: sp 0 +
STACK CFI 2bc04 .cfa: sp 96 +
STACK CFI 2bc18 .cfa: x29 64 + x19: .cfa -8 + ^ x20: .cfa -16 + ^ x21: .cfa -24 + ^ x22: .cfa -32 + ^ x23: .cfa -40 + ^ x24: .cfa -48 + ^ .ra: .cfa -56 + ^ x29: .cfa -64 + ^
STACK CFI 2bdc0 .cfa: sp 96 +
STACK CFI 2bdd4 .cfa: sp 0 +
STACK CFI 2bdd8 .cfa: x29 64 +
STACK CFI INIT 2be08 360 .cfa: sp 0 +
STACK CFI 2be0c .cfa: sp 160 +
STACK CFI 2be28 .cfa: x29 96 + x19: .cfa -8 + ^ x20: .cfa -16 + ^ x21: .cfa -24 + ^ x22: .cfa -32 + ^ x23: .cfa -40 + ^ x24: .cfa -48 + ^ x25: .cfa -56 + ^ x26: .cfa -64 + ^ x27: .cfa -72 + ^ x28: .cfa -80 + ^ .ra: .cfa -88 + ^ x29: .cfa -96 + ^
STACK CFI 2c0f4 .cfa: sp 160 +
STACK CFI 2c110 .cfa: sp 0 +
STACK CFI 2c114 .cfa: x29 96 +
STACK CFI INIT 2c168 314 .cfa: sp 0 +
STACK CFI 2c16c .cfa: sp 144 +
STACK CFI 2c188 .cfa: x29 96 + x19: .cfa -8 + ^ x20: .cfa -16 + ^ x21: .cfa -24 + ^ x22: .cfa -32 + ^ x23: .cfa -40 + ^ x24: .cfa -48 + ^ x25: .cfa -56 + ^ x26: .cfa -64 + ^ x27: .cfa -72 + ^ x28: .cfa -80 + ^ .ra: .cfa -88 + ^ x29: .cfa -96 + ^
STACK CFI 2c404 .cfa: sp 144 +
STACK CFI 2c420 .cfa: sp 0 +
STACK CFI 2c424 .cfa: x29 96 +
STACK CFI INIT 2c47c 290 .cfa: sp 0 +
STACK CFI 2c480 .cfa: sp 128 +
STACK CFI 2c498 .cfa: x29 80 + x19: .cfa -8 + ^ x20: .cfa -16 + ^ x21: .cfa -24 + ^ x22: .cfa -32 + ^ x23: .cfa -40 + ^ x24: .cfa -48 + ^ x25: .cfa -56 + ^ x26: .cfa -64 + ^ .ra: .cfa -72 + ^ x29: .cfa -80 + ^
STACK CFI 2c6ec .cfa: sp 128 +
STACK CFI 2c704 .cfa: sp 0 +
STACK CFI 2c708 .cfa: x29 80 +
STACK CFI INIT 2c70c dc8 .cfa: sp 0 +
STACK CFI 2c710 .cfa: sp 144 +
STACK CFI 2c72c .cfa: x29 96 + x19: .cfa -8 + ^ x20: .cfa -16 + ^ x21: .cfa -24 + ^ x22: .cfa -32 + ^ x23: .cfa -40 + ^ x24: .cfa -48 + ^ x25: .cfa -56 + ^ x26: .cfa -64 + ^ x27: .cfa -72 + ^ x28: .cfa -80 + ^ .ra: .cfa -88 + ^ x29: .cfa -96 + ^
STACK CFI 2d3ac .cfa: sp 144 +
STACK CFI 2d3c8 .cfa: sp 0 +
STACK CFI 2d3cc .cfa: x29 96 +
STACK CFI INIT 2d4d4 1d0 .cfa: sp 0 +
STACK CFI 2d4d8 .cfa: sp 80 +
STACK CFI 2d4ec .cfa: x29 80 + x19: .cfa -8 + ^ x20: .cfa -16 + ^ x21: .cfa -24 + ^ x22: .cfa -32 + ^ x23: .cfa -40 + ^ x24: .cfa -48 + ^ x25: .cfa -64 + ^ .ra: .cfa -72 + ^ x29: .cfa -80 + ^
STACK CFI 2d68c .cfa: sp 80 +
STACK CFI 2d6a0 .cfa: sp 0 +
STACK CFI INIT 2d6a4 23c .cfa: sp 0 +
STACK CFI 2d6a8 .cfa: sp 112 +
STACK CFI 2d6bc .cfa: x29 64 + x19: .cfa -8 + ^ x20: .cfa -16 + ^ x21: .cfa -24 + ^ x22: .cfa -32 + ^ x23: .cfa -40 + ^ x24: .cfa -48 + ^ .ra: .cfa -56 + ^ x29: .cfa -64 + ^
STACK CFI 2d898 .cfa: sp 112 +
STACK CFI 2d8ac .cfa: sp 0 +
STACK CFI 2d8b0 .cfa: x29 64 +
STACK CFI INIT 2d8e0 30c .cfa: sp 0 +
STACK CFI 2d8e4 .cfa: sp 80 +
STACK CFI 2d8f8 .cfa: x29 64 + x19: .cfa -8 + ^ x20: .cfa -16 + ^ x21: .cfa -24 + ^ x22: .cfa -32 + ^ x23: .cfa -40 + ^ x24: .cfa -48 + ^ .ra: .cfa -56 + ^ x29: .cfa -64 + ^
STACK CFI 2da74 .cfa: sp 80 +
STACK CFI 2da88 .cfa: sp 0 +
STACK CFI 2da8c .cfa: x29 64 +
STACK CFI INIT 2dbec 178 .cfa: sp 0 +
STACK CFI 2dbf0 .cfa: sp 80 +
STACK CFI 2dc04 .cfa: x29 64 + x19: .cfa -8 + ^ x20: .cfa -16 + ^ x21: .cfa -24 + ^ x22: .cfa -32 + ^ x23: .cfa -40 + ^ x24: .cfa -48 + ^ .ra: .cfa -56 + ^ x29: .cfa -64 + ^
STACK CFI 2dd48 .cfa: sp 80 +
STACK CFI 2dd5c .cfa: sp 0 +
STACK CFI 2dd60 .cfa: x29 64 +
STACK CFI INIT 2dd64 178 .cfa: sp 0 +
STACK CFI 2dd68 .cfa: sp 80 +
STACK CFI 2dd7c .cfa: x29 64 + x19: .cfa -8 + ^ x20: .cfa -16 + ^ x21: .cfa -24 + ^ x22: .cfa -32 + ^ x23: .cfa -40 + ^ x24: .cfa -48 + ^ .ra: .cfa -56 + ^ x29: .cfa -64 + ^
STACK CFI 2dec0 .cfa: sp 80 +
STACK CFI 2ded4 .cfa: sp 0 +
STACK CFI 2ded8 .cfa: x29 64 +
STACK CFI INIT 2dedc 240 .cfa: sp 0 +
STACK CFI 2dee0 .cfa: sp 96 +
STACK CFI 2def8 .cfa: x29 96 + x19: .cfa -8 + ^ x20: .cfa -16 + ^ x21: .cfa -24 + ^ x22: .cfa -32 + ^ x23: .cfa -40 + ^ x24: .cfa -48 + ^ x25: .cfa -56 + ^ x26: .cfa -64 + ^ x27: .cfa -72 + ^ x28: .cfa -80 + ^ .ra: .cfa -88 + ^ x29: .cfa -96 + ^
STACK CFI 2e100 .cfa: sp 96 +
STACK CFI 2e118 .cfa: sp 0 +
STACK CFI INIT 2ed90 154 .cfa: sp 0 +
STACK CFI 2ed94 .cfa: sp 96 +
STACK CFI 2eda8 .cfa: x29 64 + x19: .cfa -8 + ^ x20: .cfa -16 + ^ x21: .cfa -24 + ^ x22: .cfa -32 + ^ x23: .cfa -48 + ^ .ra: .cfa -56 + ^ x29: .cfa -64 + ^
STACK CFI 2ee88 .cfa: sp 96 +
STACK CFI 2ee9c .cfa: sp 0 +
STACK CFI 2eea0 .cfa: x29 64 +
STACK CFI INIT 2f14c 44 .cfa: sp 0 +
STACK CFI 2f150 .cfa: sp 32 +
STACK CFI 2f158 .cfa: x29 32 + x19: .cfa -16 + ^ .ra: .cfa -24 + ^ x29: .cfa -32 + ^
STACK CFI 2f174 .cfa: sp 32 +
STACK CFI 2f17c .cfa: sp 0 +
STACK CFI 2f180 .cfa: x29 32 +
STACK CFI 2f184 .cfa: sp 32 +
STACK CFI 2f18c .cfa: sp 0 +
STACK CFI INIT 2f190 1d0 .cfa: sp 0 +
STACK CFI 2f194 .cfa: sp 64 +
STACK CFI 2f1a4 .cfa: x29 64 + x19: .cfa -8 + ^ x20: .cfa -16 + ^ x21: .cfa -24 + ^ x22: .cfa -32 + ^ x23: .cfa -40 + ^ x24: .cfa -48 + ^ .ra: .cfa -56 + ^ x29: .cfa -64 + ^
STACK CFI 2f264 .cfa: sp 64 +
STACK CFI 2f274 .cfa: sp 0 +
STACK CFI 2f278 .cfa: x29 64 +
STACK CFI INIT 2f360 17c .cfa: sp 0 +
STACK CFI INIT 2f894 a0 .cfa: sp 0 +
STACK CFI 2f898 .cfa: sp 48 +
STACK CFI 2f8a4 .cfa: x29 48 + x19: .cfa -8 + ^ x20: .cfa -16 + ^ x21: .cfa -24 + ^ x22: .cfa -32 + ^ .ra: .cfa -40 + ^ x29: .cfa -48 + ^
STACK CFI 2f910 .cfa: sp 48 +
STACK CFI 2f91c .cfa: sp 0 +
STACK CFI 2f920 .cfa: sp 48 +
STACK CFI 2f92c .cfa: sp 0 +
STACK CFI 2f930 .cfa: x29 48 +
STACK CFI INIT 305e4 158 .cfa: sp 0 +
STACK CFI 305e8 .cfa: sp 96 +
STACK CFI 305fc .cfa: x29 64 + x19: .cfa -8 + ^ x20: .cfa -16 + ^ x21: .cfa -24 + ^ x22: .cfa -32 + ^ x23: .cfa -48 + ^ .ra: .cfa -56 + ^ x29: .cfa -64 + ^
STACK CFI 306e0 .cfa: sp 96 +
STACK CFI 306f4 .cfa: sp 0 +
STACK CFI 306f8 .cfa: x29 64 +
STACK CFI INIT 3073c 190 .cfa: sp 0 +
STACK CFI INIT 313b0 1dc .cfa: sp 0 +
STACK CFI 313b4 .cfa: sp 80 +
STACK CFI 313c8 .cfa: x29 80 + x19: .cfa -8 + ^ x20: .cfa -16 + ^ x21: .cfa -24 + ^ x22: .cfa -32 + ^ x23: .cfa -40 + ^ x24: .cfa -48 + ^ x25: .cfa -64 + ^ .ra: .cfa -72 + ^ x29: .cfa -80 + ^
STACK CFI 31574 .cfa: sp 80 +
STACK CFI 31588 .cfa: sp 0 +
STACK CFI INIT 329b0 124 .cfa: sp 0 +
STACK CFI 329e0 .cfa: sp 32 +
STACK CFI 329e8 .cfa: x29 32 + x19: .cfa -8 + ^ x20: .cfa -16 + ^ .ra: .cfa -24 + ^ x29: .cfa -32 + ^
STACK CFI 32ac8 .cfa: sp 32 +
STACK CFI 32ad0 .cfa: sp 0 +
STACK CFI INIT 33230 324 .cfa: sp 0 +
STACK CFI 33234 .cfa: sp 64 +
STACK CFI 33244 .cfa: x29 64 + x19: .cfa -8 + ^ x20: .cfa -16 + ^ x21: .cfa -24 + ^ x22: .cfa -32 + ^ x23: .cfa -40 + ^ x24: .cfa -48 + ^ .ra: .cfa -56 + ^ x29: .cfa -64 + ^
STACK CFI 332c0 .cfa: sp 64 +
STACK CFI 332d0 .cfa: sp 0 +
STACK CFI 332d4 .cfa: x29 64 +
STACK CFI 334ac .cfa: sp 64 +
STACK CFI 334bc .cfa: sp 0 +
STACK CFI 334c0 .cfa: x29 64 +
STACK CFI 334d0 .cfa: sp 64 +
STACK CFI 334e0 .cfa: sp 0 +
STACK CFI 334e4 .cfa: x29 64 +
STACK CFI INIT 33554 a0 .cfa: sp 0 +
STACK CFI 33558 .cfa: sp 48 +
STACK CFI 33564 .cfa: x29 48 + x19: .cfa -8 + ^ x20: .cfa -16 + ^ x21: .cfa -24 + ^ x22: .cfa -32 + ^ .ra: .cfa -40 + ^ x29: .cfa -48 + ^
STACK CFI 335d0 .cfa: sp 48 +
STACK CFI 335dc .cfa: sp 0 +
STACK CFI 335e0 .cfa: sp 48 +
STACK CFI 335ec .cfa: sp 0 +
STACK CFI 335f0 .cfa: x29 48 +
STACK CFI INIT 344a0 160 .cfa: sp 0 +
STACK CFI 344a4 .cfa: sp 64 +
STACK CFI 344b4 .cfa: x29 64 + x19: .cfa -8 + ^ x20: .cfa -16 + ^ x21: .cfa -24 + ^ x22: .cfa -32 + ^ x23: .cfa -48 + ^ .ra: .cfa -56 + ^ x29: .cfa -64 + ^
STACK CFI 345ac .cfa: sp 64 +
STACK CFI 345bc .cfa: sp 0 +
STACK CFI 345c0 .cfa: x29 64 +
STACK CFI INIT 34600 214 .cfa: sp 0 +
STACK CFI 34604 .cfa: sp 128 +
STACK CFI 34620 .cfa: x29 96 + x19: .cfa -8 + ^ x20: .cfa -16 + ^ x21: .cfa -24 + ^ x22: .cfa -32 + ^ x23: .cfa -40 + ^ x24: .cfa -48 + ^ x25: .cfa -56 + ^ x26: .cfa -64 + ^ x27: .cfa -80 + ^ .ra: .cfa -88 + ^ x29: .cfa -96 + ^
STACK CFI 3479c .cfa: sp 128 +
STACK CFI 347b8 .cfa: sp 0 +
STACK CFI 347bc .cfa: x29 96 +
STACK CFI INIT 36478 290 .cfa: sp 0 +
STACK CFI 3647c .cfa: sp 16 +
STACK CFI 36480 .cfa: x29 16 + .ra: .cfa -8 + ^ x29: .cfa -16 + ^
STACK CFI 3650c .cfa: sp 16 +
STACK CFI 36510 .cfa: sp 0 +
STACK CFI 36514 .cfa: x29 16 +
STACK CFI 36564 .cfa: sp 16 +
STACK CFI 36568 .cfa: sp 0 +
STACK CFI 3656c .cfa: x29 16 +
STACK CFI 366d0 .cfa: sp 16 +
STACK CFI 366d4 .cfa: sp 0 +
STACK CFI 366d8 .cfa: x29 16 +
STACK CFI INIT 36708 134 .cfa: sp 0 +
STACK CFI 3670c .cfa: sp 96 +
STACK CFI 36724 .cfa: x29 96 + x19: .cfa -8 + ^ x20: .cfa -16 + ^ x21: .cfa -24 + ^ x22: .cfa -32 + ^ x23: .cfa -40 + ^ x24: .cfa -48 + ^ x25: .cfa -56 + ^ x26: .cfa -64 + ^ x27: .cfa -72 + ^ x28: .cfa -80 + ^ .ra: .cfa -88 + ^ x29: .cfa -96 + ^
STACK CFI 367f4 .cfa: sp 96 +
STACK CFI 367f8 .cfa: x29 96 +
STACK CFI 367fc .cfa: sp 96 +
STACK CFI 36814 .cfa: sp 0 +
STACK CFI 36818 .cfa: x29 96 +
STACK CFI 36838 .cfa: sp 96 +
STACK CFI INIT 3683c e4c .cfa: sp 0 +
STACK CFI 36840 .cfa: sp 192 +
STACK CFI 3685c .cfa: x29 96 + x19: .cfa -8 + ^ x20: .cfa -16 + ^ x21: .cfa -24 + ^ x22: .cfa -32 + ^ x23: .cfa -40 + ^ x24: .cfa -48 + ^ x25: .cfa -56 + ^ x26: .cfa -64 + ^ x27: .cfa -72 + ^ x28: .cfa -80 + ^ .ra: .cfa -88 + ^ x29: .cfa -96 + ^
STACK CFI 37570 .cfa: sp 192 +
STACK CFI 3758c .cfa: sp 0 +
STACK CFI 37590 .cfa: x29 96 +
STACK CFI INIT 37688 1068 .cfa: sp 0 +
STACK CFI 3768c .cfa: sp 288 +
STACK CFI 376a8 .cfa: x29 96 + x19: .cfa -8 + ^ x20: .cfa -16 + ^ x21: .cfa -24 + ^ x22: .cfa -32 + ^ x23: .cfa -40 + ^ x24: .cfa -48 + ^ x25: .cfa -56 + ^ x26: .cfa -64 + ^ x27: .cfa -72 + ^ x28: .cfa -80 + ^ .ra: .cfa -88 + ^ x29: .cfa -96 + ^
STACK CFI 38438 .cfa: sp 288 +
STACK CFI 38454 .cfa: sp 0 +
STACK CFI 38458 .cfa: x29 96 +
STACK CFI INIT 386f0 520 .cfa: sp 0 +
STACK CFI 386f4 .cfa: sp 144 +
STACK CFI 38710 .cfa: x29 96 + x19: .cfa -8 + ^ x20: .cfa -16 + ^ x21: .cfa -24 + ^ x22: .cfa -32 + ^ x23: .cfa -40 + ^ x24: .cfa -48 + ^ x25: .cfa -56 + ^ x26: .cfa -64 + ^ x27: .cfa -72 + ^ x28: .cfa -80 + ^ .ra: .cfa -88 + ^ x29: .cfa -96 + ^
STACK CFI 38bec .cfa: sp 144 +
STACK CFI 38c08 .cfa: sp 0 +
STACK CFI 38c0c .cfa: x29 96 +
STACK CFI INIT 3965c 12dc .cfa: sp 0 +
STACK CFI 39660 .cfa: sp 208 +
STACK CFI 3967c .cfa: x29 96 + x19: .cfa -8 + ^ x20: .cfa -16 + ^ x21: .cfa -24 + ^ x22: .cfa -32 + ^ x23: .cfa -40 + ^ x24: .cfa -48 + ^ x25: .cfa -56 + ^ x26: .cfa -64 + ^ x27: .cfa -72 + ^ x28: .cfa -80 + ^ .ra: .cfa -88 + ^ x29: .cfa -96 + ^
STACK CFI 3a914 .cfa: sp 208 +
STACK CFI 3a930 .cfa: sp 0 +
STACK CFI 3a934 .cfa: x29 96 +
STACK CFI INIT 3a938 1b8 .cfa: sp 0 +
STACK CFI INIT 1e2f0 314 .cfa: sp 0 +
STACK CFI 1e2f4 .cfa: sp 128 +
STACK CFI 1e30c .cfa: x29 80 + x19: .cfa -8 + ^ x20: .cfa -16 + ^ x21: .cfa -24 + ^ x22: .cfa -32 + ^ x23: .cfa -40 + ^ x24: .cfa -48 + ^ x25: .cfa -64 + ^ .ra: .cfa -72 + ^ x29: .cfa -80 + ^
STACK CFI 1e544 .cfa: sp 128 +
STACK CFI 1e55c .cfa: sp 0 +
STACK CFI 1e560 .cfa: x29 80 +
STACK CFI INIT 1e604 44 .cfa: sp 0 +
STACK CFI 1e608 .cfa: sp 32 +
STACK CFI 1e610 .cfa: x29 32 + x19: .cfa -16 + ^ .ra: .cfa -24 + ^ x29: .cfa -32 + ^
STACK CFI 1e628 .cfa: sp 32 +
STACK CFI 1e630 .cfa: sp 0 +
STACK CFI 1e634 .cfa: x29 32 +
STACK CFI 1e638 .cfa: sp 32 +
STACK CFI 1e640 .cfa: sp 0 +
STACK CFI 1e644 .cfa: x29 32 +
STACK CFI INIT 1e648 164 .cfa: sp 0 +
STACK CFI 1e64c .cfa: sp 48 +
STACK CFI 1e658 .cfa: x29 48 + x19: .cfa -8 + ^ x20: .cfa -16 + ^ x21: .cfa -24 + ^ x22: .cfa -32 + ^ .ra: .cfa -40 + ^ x29: .cfa -48 + ^
STACK CFI 1e780 .cfa: sp 48 +
STACK CFI 1e78c .cfa: sp 0 +
STACK CFI 1e790 .cfa: x29 48 +
STACK CFI 1e798 .cfa: sp 48 +
STACK CFI 1e7a4 .cfa: sp 0 +
STACK CFI 1e7a8 .cfa: x29 48 +
STACK CFI INIT 1e7d0 50 .cfa: sp 0 +
STACK CFI 1e7d4 .cfa: sp 32 +
STACK CFI 1e7dc .cfa: x29 32 + x19: .cfa -8 + ^ x20: .cfa -16 + ^ .ra: .cfa -24 + ^ x29: .cfa -32 + ^
STACK CFI INIT 1ed60 5f0 .cfa: sp 0 +
STACK CFI 1ed64 .cfa: sp 128 +
STACK CFI 1ed7c .cfa: x29 80 + x19: .cfa -8 + ^ x20: .cfa -16 + ^ x21: .cfa -24 + ^ x22: .cfa -32 + ^ x23: .cfa -40 + ^ x24: .cfa -48 + ^ x25: .cfa -56 + ^ x26: .cfa -64 + ^ .ra: .cfa -72 + ^ x29: .cfa -80 + ^
STACK CFI 1f2ec .cfa: sp 128 +
STACK CFI 1f304 .cfa: sp 0 +
STACK CFI 1f308 .cfa: x29 80 +
STACK CFI INIT 1f350 12c .cfa: sp 0 +
STACK CFI 1f354 .cfa: sp 80 +
STACK CFI 1f364 .cfa: x29 48 + x19: .cfa -8 + ^ x20: .cfa -16 + ^ x21: .cfa -24 + ^ x22: .cfa -32 + ^ .ra: .cfa -40 + ^ x29: .cfa -48 + ^
STACK CFI 1f460 .cfa: sp 80 +
STACK CFI 1f470 .cfa: sp 0 +
STACK CFI 1f474 .cfa: x29 48 +
STACK CFI INIT 1f47c 328 .cfa: sp 0 +
STACK CFI 1f480 .cfa: sp 192 +
STACK CFI 1f494 .cfa: x29 64 + x19: .cfa -8 + ^ x20: .cfa -16 + ^ x21: .cfa -24 + ^ x22: .cfa -32 + ^ x23: .cfa -48 + ^ .ra: .cfa -56 + ^ x29: .cfa -64 + ^
STACK CFI 1f70c .cfa: sp 192 +
STACK CFI 1f720 .cfa: sp 0 +
STACK CFI 1f724 .cfa: x29 64 +
STACK CFI INIT 1f7a4 254 .cfa: sp 0 +
STACK CFI 1f7a8 .cfa: sp 144 +
STACK CFI 1f7bc .cfa: x29 48 + x19: .cfa -8 + ^ x20: .cfa -16 + ^ x21: .cfa -24 + ^ x22: .cfa -32 + ^ .ra: .cfa -40 + ^ x29: .cfa -48 + ^ v8: .cfa -56 + ^ v9: .cfa -64 + ^
STACK CFI 1f9b0 .cfa: sp 144 +
STACK CFI 1f9c4 .cfa: sp 0 +
STACK CFI 1f9c8 .cfa: x29 48 +
STACK CFI INIT 1fa80 180 .cfa: sp 0 +
STACK CFI 1fa84 .cfa: sp 96 +
STACK CFI 1fa98 .cfa: x29 64 + x19: .cfa -8 + ^ x20: .cfa -16 + ^ x21: .cfa -24 + ^ x22: .cfa -32 + ^ x23: .cfa -48 + ^ .ra: .cfa -56 + ^ x29: .cfa -64 + ^
STACK CFI 1fbac .cfa: sp 96 +
STACK CFI 1fbc0 .cfa: sp 0 +
STACK CFI 1fbc4 .cfa: x29 64 +
STACK CFI INIT 1fc08 b8 .cfa: sp 0 +
STACK CFI 1fc0c .cfa: sp 32 +
STACK CFI 1fc14 .cfa: x29 32 + x19: .cfa -16 + ^ .ra: .cfa -24 + ^ x29: .cfa -32 + ^
STACK CFI 1fcb0 .cfa: sp 32 +
STACK CFI 1fcb8 .cfa: sp 0 +
STACK CFI 1fcbc .cfa: x29 32 +
STACK CFI INIT 1fcc0 c0 .cfa: sp 0 +
STACK CFI 1fcc4 .cfa: sp 32 +
STACK CFI 1fccc .cfa: x29 32 + x19: .cfa -16 + ^ .ra: .cfa -24 + ^ x29: .cfa -32 + ^
STACK CFI 1fd70 .cfa: sp 32 +
STACK CFI 1fd78 .cfa: sp 0 +
STACK CFI 1fd7c .cfa: x29 32 +
STACK CFI INIT 1fde0 bc .cfa: sp 0 +
STACK CFI 1fde4 .cfa: sp 32 +
STACK CFI 1fdec .cfa: x29 32 + x19: .cfa -8 + ^ x20: .cfa -16 + ^ .ra: .cfa -24 + ^ x29: .cfa -32 + ^
STACK CFI 1fe8c .cfa: sp 32 +
STACK CFI 1fe94 .cfa: sp 0 +
STACK CFI 1fe98 .cfa: x29 32 +
STACK CFI INIT 1fe9c c4 .cfa: sp 0 +
STACK CFI 1fea0 .cfa: sp 32 +
STACK CFI 1fea8 .cfa: x29 32 + x19: .cfa -8 + ^ x20: .cfa -16 + ^ .ra: .cfa -24 + ^ x29: .cfa -32 + ^
STACK CFI 1ff50 .cfa: sp 32 +
STACK CFI 1ff58 .cfa: sp 0 +
STACK CFI 1ff5c .cfa: x29 32 +
STACK CFI INIT 20190 6c .cfa: sp 0 +
STACK CFI 20194 .cfa: sp 32 +
STACK CFI 2019c .cfa: x29 32 + x19: .cfa -16 + ^ .ra: .cfa -24 + ^ x29: .cfa -32 + ^
STACK CFI 201ec .cfa: sp 32 +
STACK CFI 201f4 .cfa: sp 0 +
STACK CFI 201f8 .cfa: x29 32 +
STACK CFI INIT 20200 134 .cfa: sp 0 +
STACK CFI 20204 .cfa: sp 96 +
STACK CFI 20214 .cfa: x29 48 + x19: .cfa -8 + ^ x20: .cfa -16 + ^ x21: .cfa -32 + ^ .ra: .cfa -40 + ^ x29: .cfa -48 + ^
STACK CFI 202e8 .cfa: sp 96 +
STACK CFI 202f8 .cfa: sp 0 +
STACK CFI 202fc .cfa: x29 48 +
STACK CFI INIT 20334 6c .cfa: sp 0 +
STACK CFI 20338 .cfa: sp 32 +
STACK CFI 20340 .cfa: x29 32 + x19: .cfa -16 + ^ .ra: .cfa -24 + ^ x29: .cfa -32 + ^
STACK CFI 20390 .cfa: sp 32 +
STACK CFI 20398 .cfa: sp 0 +
STACK CFI 2039c .cfa: x29 32 +
STACK CFI INIT 205c0 1c .cfa: sp 0 +
STACK CFI 205c4 .cfa: sp 16 +
STACK CFI 205c8 .cfa: x29 16 + .ra: .cfa -8 + ^ x29: .cfa -16 + ^
STACK CFI 205d0 .cfa: sp 16 +
STACK CFI 205d4 .cfa: sp 0 +
STACK CFI 205d8 .cfa: x29 16 +
STACK CFI INIT 205dc 160 .cfa: sp 0 +
STACK CFI 205e0 .cfa: sp 128 +
STACK CFI 205ec .cfa: x29 32 + x19: .cfa -8 + ^ x20: .cfa -16 + ^ .ra: .cfa -24 + ^ x29: .cfa -32 + ^
STACK CFI 206b8 .cfa: sp 128 +
STACK CFI 206c4 .cfa: sp 0 +
STACK CFI 206c8 .cfa: x29 32 +
STACK CFI INIT 20780 e88 .cfa: sp 0 +
STACK CFI 20784 .cfa: sp 96 +
STACK CFI 207a0 .cfa: x29 88 + x19: .cfa -8 + ^ x20: .cfa -16 + ^ x21: .cfa -24 + ^ x22: .cfa -32 + ^ x23: .cfa -40 + ^ x24: .cfa -48 + ^ x25: .cfa -56 + ^ x26: .cfa -64 + ^ x28: .cfa -72 + ^ .ra: .cfa -80 + ^ x29: .cfa -88 + ^ v8: .cfa -96 + ^
STACK CFI 21378 .cfa: sp 96 +
STACK CFI 21394 .cfa: sp 0 +
STACK CFI 21398 .cfa: x29 88 +
STACK CFI INIT 21630 60c .cfa: sp 0 +
STACK CFI 21634 .cfa: sp 224 +
STACK CFI 21650 .cfa: x29 96 + x19: .cfa -8 + ^ x20: .cfa -16 + ^ x21: .cfa -24 + ^ x22: .cfa -32 + ^ x23: .cfa -40 + ^ x24: .cfa -48 + ^ x25: .cfa -56 + ^ x26: .cfa -64 + ^ x27: .cfa -72 + ^ x28: .cfa -80 + ^ .ra: .cfa -88 + ^ x29: .cfa -96 + ^
STACK CFI 21ac8 .cfa: sp 224 +
STACK CFI 21ae4 .cfa: sp 0 +
STACK CFI 21ae8 .cfa: x29 96 +
STACK CFI INIT 21c3c 100 .cfa: sp 0 +
STACK CFI 21c40 .cfa: sp 80 +
STACK CFI 21c50 .cfa: x29 48 + x19: .cfa -8 + ^ x20: .cfa -16 + ^ x21: .cfa -32 + ^ .ra: .cfa -40 + ^ x29: .cfa -48 + ^
STACK CFI 21cf8 .cfa: sp 80 +
STACK CFI 21d08 .cfa: sp 0 +
STACK CFI 21d0c .cfa: x29 48 +
STACK CFI INIT 21db8 238 .cfa: sp 0 +
STACK CFI 21dbc .cfa: sp 144 +
STACK CFI 21dd8 .cfa: x29 96 + x19: .cfa -8 + ^ x20: .cfa -16 + ^ x21: .cfa -24 + ^ x22: .cfa -32 + ^ x23: .cfa -40 + ^ x24: .cfa -48 + ^ x25: .cfa -56 + ^ x26: .cfa -64 + ^ x27: .cfa -72 + ^ x28: .cfa -80 + ^ .ra: .cfa -88 + ^ x29: .cfa -96 + ^
STACK CFI 21fa0 .cfa: sp 144 +
STACK CFI 21fbc .cfa: sp 0 +
STACK CFI 21fc0 .cfa: x29 96 +
STACK CFI INIT 22168 50 .cfa: sp 0 +
STACK CFI 2216c .cfa: sp 32 +
STACK CFI 22174 .cfa: x29 32 + x19: .cfa -16 + ^ .ra: .cfa -24 + ^ x29: .cfa -32 + ^
STACK CFI 221a8 .cfa: sp 32 +
STACK CFI 221b0 .cfa: sp 0 +
STACK CFI 221b4 .cfa: x29 32 +
STACK CFI INIT 221ec 50 .cfa: sp 0 +
STACK CFI 221f0 .cfa: sp 32 +
STACK CFI 221f8 .cfa: x29 32 + x19: .cfa -8 + ^ x20: .cfa -16 + ^ .ra: .cfa -24 + ^ x29: .cfa -32 + ^
STACK CFI INIT 22278 50 .cfa: sp 0 +
STACK CFI 2227c .cfa: sp 32 +
STACK CFI 22284 .cfa: x29 32 + x19: .cfa -16 + ^ .ra: .cfa -24 + ^ x29: .cfa -32 + ^
STACK CFI 222ac .cfa: sp 32 +
STACK CFI 222b4 .cfa: sp 0 +
STACK CFI 222b8 .cfa: sp 32 +
STACK CFI 222c0 .cfa: sp 0 +
STACK CFI 222c4 .cfa: x29 32 +
STACK CFI INIT 222c8 50 .cfa: sp 0 +
STACK CFI 222cc .cfa: sp 32 +
STACK CFI 222d4 .cfa: x29 32 + x19: .cfa -16 + ^ .ra: .cfa -24 + ^ x29: .cfa -32 + ^
STACK CFI 222fc .cfa: sp 32 +
STACK CFI 22304 .cfa: sp 0 +
STACK CFI 22308 .cfa: sp 32 +
STACK CFI 22310 .cfa: sp 0 +
STACK CFI 22314 .cfa: x29 32 +
STACK CFI INIT 224e0 1cc .cfa: sp 0 +
STACK CFI 224e4 .cfa: sp 128 +
STACK CFI 224f4 .cfa: x29 48 + x19: .cfa -8 + ^ x20: .cfa -16 + ^ x21: .cfa -32 + ^ .ra: .cfa -40 + ^ x29: .cfa -48 + ^
STACK CFI 22630 .cfa: sp 128 +
STACK CFI 22640 .cfa: sp 0 +
STACK CFI 22644 .cfa: x29 48 +
STACK CFI INIT 22840 2a0 .cfa: sp 0 +
STACK CFI 22844 .cfa: sp 128 +
STACK CFI 22860 .cfa: x29 96 + x19: .cfa -8 + ^ x20: .cfa -16 + ^ x21: .cfa -24 + ^ x22: .cfa -32 + ^ x23: .cfa -40 + ^ x24: .cfa -48 + ^ x25: .cfa -56 + ^ x26: .cfa -64 + ^ x27: .cfa -72 + ^ x28: .cfa -80 + ^ .ra: .cfa -88 + ^ x29: .cfa -96 + ^
STACK CFI 229fc .cfa: sp 128 +
STACK CFI 22a18 .cfa: sp 0 +
STACK CFI 22a1c .cfa: x29 96 +
STACK CFI INIT 22ae0 204 .cfa: sp 0 +
STACK CFI 22ae4 .cfa: sp 128 +
STACK CFI 22af8 .cfa: x29 64 + x19: .cfa -8 + ^ x20: .cfa -16 + ^ x21: .cfa -24 + ^ x22: .cfa -32 + ^ x23: .cfa -40 + ^ x24: .cfa -48 + ^ .ra: .cfa -56 + ^ x29: .cfa -64 + ^
STACK CFI 22c1c .cfa: sp 128 +
STACK CFI 22c30 .cfa: sp 0 +
STACK CFI 22c34 .cfa: x29 64 +
STACK CFI INIT 22fa0 198 .cfa: sp 0 +
STACK CFI 22fa4 .cfa: sp 128 +
STACK CFI 22fb8 .cfa: x29 64 + x19: .cfa -8 + ^ x20: .cfa -16 + ^ x21: .cfa -24 + ^ x22: .cfa -32 + ^ x23: .cfa -48 + ^ .ra: .cfa -56 + ^ x29: .cfa -64 + ^
STACK CFI 230f8 .cfa: sp 128 +
STACK CFI 2310c .cfa: sp 0 +
STACK CFI 23110 .cfa: x29 64 +
STACK CFI INIT 2344c 188 .cfa: sp 0 +
STACK CFI 23450 .cfa: sp 112 +
STACK CFI 23460 .cfa: x29 48 + x19: .cfa -8 + ^ x20: .cfa -16 + ^ x21: .cfa -24 + ^ x22: .cfa -32 + ^ .ra: .cfa -40 + ^ x29: .cfa -48 + ^
STACK CFI 23598 .cfa: sp 112 +
STACK CFI 235a8 .cfa: sp 0 +
STACK CFI 235ac .cfa: x29 48 +
STACK CFI INIT 23884 198 .cfa: sp 0 +
STACK CFI 23888 .cfa: sp 96 +
STACK CFI 23898 .cfa: x29 48 + x19: .cfa -8 + ^ x20: .cfa -16 + ^ x21: .cfa -32 + ^ .ra: .cfa -40 + ^ x29: .cfa -48 + ^
STACK CFI 23974 .cfa: sp 96 +
STACK CFI 23984 .cfa: sp 0 +
STACK CFI 23988 .cfa: x29 48 +
STACK CFI INIT 23ac4 9c .cfa: sp 0 +
STACK CFI 23ac8 .cfa: sp 32 +
STACK CFI 23ad0 .cfa: x29 32 + x19: .cfa -8 + ^ x20: .cfa -16 + ^ .ra: .cfa -24 + ^ x29: .cfa -32 + ^
STACK CFI 23b1c .cfa: sp 32 +
STACK CFI 23b24 .cfa: sp 0 +
STACK CFI 23b28 .cfa: x29 32 +
STACK CFI 23b40 .cfa: sp 32 +
STACK CFI 23b48 .cfa: sp 0 +
STACK CFI 23b4c .cfa: x29 32 +
STACK CFI INIT 23d94 8c .cfa: sp 0 +
STACK CFI 23d98 .cfa: sp 32 +
STACK CFI 23da0 .cfa: x29 32 + x19: .cfa -8 + ^ x20: .cfa -16 + ^ .ra: .cfa -24 + ^ x29: .cfa -32 + ^
STACK CFI 23de4 .cfa: sp 32 +
STACK CFI 23dec .cfa: sp 0 +
STACK CFI 23df0 .cfa: x29 32 +
STACK CFI 23e00 .cfa: sp 32 +
STACK CFI 23e08 .cfa: sp 0 +
STACK CFI 23e0c .cfa: x29 32 +
STACK CFI INIT 23eac 6b4 .cfa: sp 0 +
STACK CFI 23eb0 .cfa: sp 352 +
STACK CFI 23ecc .cfa: x29 96 + x19: .cfa -8 + ^ x20: .cfa -16 + ^ x21: .cfa -24 + ^ x22: .cfa -32 + ^ x23: .cfa -40 + ^ x24: .cfa -48 + ^ x25: .cfa -56 + ^ x26: .cfa -64 + ^ x27: .cfa -72 + ^ x28: .cfa -80 + ^ .ra: .cfa -88 + ^ x29: .cfa -96 + ^
STACK CFI 243a8 .cfa: sp 352 +
STACK CFI 243c4 .cfa: sp 0 +
STACK CFI 243c8 .cfa: x29 96 +
STACK CFI INIT 24588 49c .cfa: sp 0 +
STACK CFI 2458c .cfa: sp 176 +
STACK CFI 245b0 .cfa: x29 88 + x19: .cfa -8 + ^ x20: .cfa -16 + ^ x21: .cfa -24 + ^ x22: .cfa -32 + ^ x23: .cfa -40 + ^ x24: .cfa -48 + ^ x25: .cfa -56 + ^ x26: .cfa -64 + ^ x27: .cfa -72 + ^ .ra: .cfa -80 + ^ x29: .cfa -88 + ^ v8: .cfa -96 + ^ v9: .cfa -104 + ^ v10: .cfa -112 + ^
STACK CFI 249cc .cfa: sp 176 +
STACK CFI 249f0 .cfa: sp 0 +
STACK CFI 249f4 .cfa: x29 88 +
STACK CFI INIT 24e7c 90 .cfa: sp 0 +
STACK CFI 24e80 .cfa: sp 32 +
STACK CFI 24e88 .cfa: x29 32 + x19: .cfa -8 + ^ x20: .cfa -16 + ^ .ra: .cfa -24 + ^ x29: .cfa -32 + ^
STACK CFI 24ed0 .cfa: sp 32 +
STACK CFI 24ed8 .cfa: sp 0 +
STACK CFI 24edc .cfa: x29 32 +
STACK CFI 24eec .cfa: sp 32 +
STACK CFI 24ef4 .cfa: sp 0 +
STACK CFI 24ef8 .cfa: x29 32 +
STACK CFI INIT 24fa0 2ac .cfa: sp 0 +
STACK CFI 24fa4 .cfa: sp 192 +
STACK CFI 24fb8 .cfa: x29 64 + x19: .cfa -8 + ^ x20: .cfa -16 + ^ x21: .cfa -24 + ^ x22: .cfa -32 + ^ x23: .cfa -48 + ^ .ra: .cfa -56 + ^ x29: .cfa -64 + ^
STACK CFI 25134 .cfa: sp 192 +
STACK CFI 25148 .cfa: sp 0 +
STACK CFI 2514c .cfa: x29 64 +
STACK CFI INIT 252cc 280 .cfa: sp 0 +
STACK CFI 252d0 .cfa: sp 176 +
STACK CFI 252e0 .cfa: x29 48 + x19: .cfa -8 + ^ x20: .cfa -16 + ^ x21: .cfa -24 + ^ x22: .cfa -32 + ^ .ra: .cfa -40 + ^ x29: .cfa -48 + ^
STACK CFI 25470 .cfa: sp 176 +
STACK CFI 25480 .cfa: sp 0 +
STACK CFI 25484 .cfa: x29 48 +
STACK CFI INIT 25658 94 .cfa: sp 0 +
STACK CFI 2565c .cfa: sp 32 +
STACK CFI 25664 .cfa: x29 32 + x19: .cfa -8 + ^ x20: .cfa -16 + ^ .ra: .cfa -24 + ^ x29: .cfa -32 + ^
STACK CFI 256b0 .cfa: sp 32 +
STACK CFI 256b8 .cfa: sp 0 +
STACK CFI 256bc .cfa: x29 32 +
STACK CFI 256cc .cfa: sp 32 +
STACK CFI 256d4 .cfa: sp 0 +
STACK CFI 256d8 .cfa: x29 32 +
STACK CFI INIT 25780 164 .cfa: sp 0 +
STACK CFI 25784 .cfa: sp 128 +
STACK CFI 25798 .cfa: x29 64 + x19: .cfa -8 + ^ x20: .cfa -16 + ^ x21: .cfa -24 + ^ x22: .cfa -32 + ^ x23: .cfa -48 + ^ .ra: .cfa -56 + ^ x29: .cfa -64 + ^
STACK CFI 25890 .cfa: sp 128 +
STACK CFI 258a4 .cfa: sp 0 +
STACK CFI 258a8 .cfa: x29 64 +
STACK CFI INIT 259d0 134 .cfa: sp 0 +
STACK CFI 259d4 .cfa: sp 80 +
STACK CFI 259e0 .cfa: x29 32 + x19: .cfa -8 + ^ x20: .cfa -16 + ^ .ra: .cfa -24 + ^ x29: .cfa -32 + ^
STACK CFI 25a10 .cfa: sp 80 +
STACK CFI 25a1c .cfa: sp 0 +
STACK CFI 25a20 .cfa: x29 32 +
STACK CFI INIT 25b04 78 .cfa: sp 0 +
STACK CFI 25b08 .cfa: sp 32 +
STACK CFI 25b10 .cfa: x29 32 + x19: .cfa -8 + ^ x20: .cfa -16 + ^ .ra: .cfa -24 + ^ x29: .cfa -32 + ^
STACK CFI 25b1c .cfa: sp 32 +
STACK CFI 25b24 .cfa: sp 0 +
STACK CFI 25b28 .cfa: x29 32 +
STACK CFI INIT 25b7c 74 .cfa: sp 0 +
STACK CFI 25b80 .cfa: sp 48 +
STACK CFI 25b8c .cfa: x29 32 + x19: .cfa -8 + ^ x20: .cfa -16 + ^ .ra: .cfa -24 + ^ x29: .cfa -32 + ^
STACK CFI 25bd8 .cfa: sp 48 +
STACK CFI 25be4 .cfa: sp 0 +
STACK CFI 25be8 .cfa: x29 32 +
STACK CFI INIT 25d40 300 .cfa: sp 0 +
STACK CFI 25d44 .cfa: sp 144 +
STACK CFI 25d58 .cfa: x29 64 + x19: .cfa -8 + ^ x20: .cfa -16 + ^ x21: .cfa -24 + ^ x22: .cfa -32 + ^ x23: .cfa -48 + ^ .ra: .cfa -56 + ^ x29: .cfa -64 + ^
STACK CFI 25eec .cfa: sp 144 +
STACK CFI 25f00 .cfa: sp 0 +
STACK CFI 25f04 .cfa: x29 64 +
STACK CFI INIT 26094 264 .cfa: sp 0 +
STACK CFI 26098 .cfa: sp 128 +
STACK CFI 260a8 .cfa: x29 48 + x19: .cfa -8 + ^ x20: .cfa -16 + ^ x21: .cfa -32 + ^ .ra: .cfa -40 + ^ x29: .cfa -48 + ^
STACK CFI 261a0 .cfa: sp 128 +
STACK CFI 261b0 .cfa: sp 0 +
STACK CFI 261b4 .cfa: x29 48 +
STACK CFI INIT 2634c 270 .cfa: sp 0 +
STACK CFI 26350 .cfa: sp 144 +
STACK CFI 26364 .cfa: x29 64 + x19: .cfa -8 + ^ x20: .cfa -16 + ^ x21: .cfa -24 + ^ x22: .cfa -32 + ^ x23: .cfa -48 + ^ .ra: .cfa -56 + ^ x29: .cfa -64 + ^
STACK CFI 26468 .cfa: sp 144 +
STACK CFI 2647c .cfa: sp 0 +
STACK CFI 26480 .cfa: x29 64 +
STACK CFI INIT 265e0 22c .cfa: sp 0 +
STACK CFI 265e4 .cfa: sp 128 +
STACK CFI 265f4 .cfa: x29 48 + x19: .cfa -8 + ^ x20: .cfa -16 + ^ x21: .cfa -32 + ^ .ra: .cfa -40 + ^ x29: .cfa -48 + ^
STACK CFI 266ac .cfa: sp 128 +
STACK CFI 266bc .cfa: sp 0 +
STACK CFI 266c0 .cfa: x29 48 +
STACK CFI INIT 2680c 224 .cfa: sp 0 +
STACK CFI 26810 .cfa: sp 128 +
STACK CFI 26820 .cfa: x29 48 + x19: .cfa -8 + ^ x20: .cfa -16 + ^ x21: .cfa -32 + ^ .ra: .cfa -40 + ^ x29: .cfa -48 + ^
STACK CFI 268d0 .cfa: sp 128 +
STACK CFI 268e0 .cfa: sp 0 +
STACK CFI 268e4 .cfa: x29 48 +
STACK CFI INIT 26a30 268 .cfa: sp 0 +
STACK CFI 26a34 .cfa: sp 144 +
STACK CFI 26a48 .cfa: x29 64 + x19: .cfa -8 + ^ x20: .cfa -16 + ^ x21: .cfa -24 + ^ x22: .cfa -32 + ^ x23: .cfa -48 + ^ .ra: .cfa -56 + ^ x29: .cfa -64 + ^
STACK CFI 26b44 .cfa: sp 144 +
STACK CFI 26b58 .cfa: sp 0 +
STACK CFI 26b5c .cfa: x29 64 +
STACK CFI INIT 26dc4 2e4 .cfa: sp 0 +
STACK CFI 26dc8 .cfa: sp 144 +
STACK CFI 26ddc .cfa: x29 64 + x19: .cfa -8 + ^ x20: .cfa -16 + ^ x21: .cfa -24 + ^ x22: .cfa -32 + ^ x23: .cfa -48 + ^ .ra: .cfa -56 + ^ x29: .cfa -64 + ^
STACK CFI 26f54 .cfa: sp 144 +
STACK CFI 26f68 .cfa: sp 0 +
STACK CFI 26f6c .cfa: x29 64 +
STACK CFI INIT 270a8 2f0 .cfa: sp 0 +
STACK CFI 270ac .cfa: sp 144 +
STACK CFI 270c0 .cfa: x29 64 + x19: .cfa -8 + ^ x20: .cfa -16 + ^ x21: .cfa -24 + ^ x22: .cfa -32 + ^ x23: .cfa -48 + ^ .ra: .cfa -56 + ^ x29: .cfa -64 + ^
STACK CFI 27244 .cfa: sp 144 +
STACK CFI 27258 .cfa: sp 0 +
STACK CFI 2725c .cfa: x29 64 +
STACK CFI INIT 27398 2a0 .cfa: sp 0 +
STACK CFI 2739c .cfa: sp 144 +
STACK CFI 273b0 .cfa: x29 64 + x19: .cfa -8 + ^ x20: .cfa -16 + ^ x21: .cfa -24 + ^ x22: .cfa -32 + ^ x23: .cfa -48 + ^ .ra: .cfa -56 + ^ x29: .cfa -64 + ^
STACK CFI 274e4 .cfa: sp 144 +
STACK CFI 274f8 .cfa: sp 0 +
STACK CFI 274fc .cfa: x29 64 +
STACK CFI INIT 27638 2e4 .cfa: sp 0 +
STACK CFI 2763c .cfa: sp 144 +
STACK CFI 27650 .cfa: x29 64 + x19: .cfa -8 + ^ x20: .cfa -16 + ^ x21: .cfa -24 + ^ x22: .cfa -32 + ^ x23: .cfa -48 + ^ .ra: .cfa -56 + ^ x29: .cfa -64 + ^
STACK CFI 277c8 .cfa: sp 144 +
STACK CFI 277dc .cfa: sp 0 +
STACK CFI 277e0 .cfa: x29 64 +
STACK CFI INIT 2791c 4f4 .cfa: sp 0 +
STACK CFI 27920 .cfa: sp 144 +
STACK CFI 27934 .cfa: x29 64 + x19: .cfa -8 + ^ x20: .cfa -16 + ^ x21: .cfa -24 + ^ x22: .cfa -32 + ^ x23: .cfa -48 + ^ .ra: .cfa -56 + ^ x29: .cfa -64 + ^
STACK CFI 27c68 .cfa: sp 144 +
STACK CFI 27c7c .cfa: sp 0 +
STACK CFI 27c80 .cfa: x29 64 +
STACK CFI INIT 27e10 154 .cfa: sp 0 +
STACK CFI 27e14 .cfa: sp 384 +
STACK CFI 27e28 .cfa: x29 64 + x19: .cfa -8 + ^ x20: .cfa -16 + ^ x21: .cfa -24 + ^ x22: .cfa -32 + ^ x23: .cfa -40 + ^ x28: .cfa -48 + ^ .ra: .cfa -56 + ^ x29: .cfa -64 + ^
STACK CFI 27f0c .cfa: sp 384 +
STACK CFI 27f20 .cfa: sp 0 +
STACK CFI 27f24 .cfa: x29 64 +
STACK CFI INIT 27f98 134 .cfa: sp 0 +
STACK CFI 27f9c .cfa: sp 80 +
STACK CFI 27fb0 .cfa: x29 80 + x19: .cfa -8 + ^ x20: .cfa -16 + ^ x21: .cfa -24 + ^ x22: .cfa -32 + ^ x23: .cfa -40 + ^ x24: .cfa -48 + ^ x25: .cfa -56 + ^ x26: .cfa -64 + ^ .ra: .cfa -72 + ^ x29: .cfa -80 + ^
STACK CFI 28080 .cfa: sp 80 +
STACK CFI 28094 .cfa: sp 0 +
STACK CFI 28098 .cfa: x29 80 +
STACK CFI INIT 28170 2e4 .cfa: sp 0 +
STACK CFI 28174 .cfa: sp 144 +
STACK CFI 28190 .cfa: x29 96 + x19: .cfa -8 + ^ x20: .cfa -16 + ^ x21: .cfa -24 + ^ x22: .cfa -32 + ^ x23: .cfa -40 + ^ x24: .cfa -48 + ^ x25: .cfa -56 + ^ x26: .cfa -64 + ^ x27: .cfa -72 + ^ x28: .cfa -80 + ^ .ra: .cfa -88 + ^ x29: .cfa -96 + ^
STACK CFI 283a0 .cfa: sp 144 +
STACK CFI 283bc .cfa: sp 0 +
STACK CFI 283c0 .cfa: x29 96 +
STACK CFI INIT 28454 284 .cfa: sp 0 +
STACK CFI 28458 .cfa: sp 48 +
STACK CFI 28464 .cfa: x29 48 + x19: .cfa -8 + ^ x20: .cfa -16 + ^ x21: .cfa -24 + ^ x22: .cfa -32 + ^ .ra: .cfa -40 + ^ x29: .cfa -48 + ^
STACK CFI 286ac .cfa: sp 48 +
STACK CFI 286b8 .cfa: sp 0 +
STACK CFI 286bc .cfa: x29 48 +
STACK CFI INIT 2875c 168 .cfa: sp 0 +
STACK CFI 28760 .cfa: sp 384 +
STACK CFI 28774 .cfa: x29 64 + x19: .cfa -8 + ^ x20: .cfa -16 + ^ x21: .cfa -24 + ^ x22: .cfa -32 + ^ x23: .cfa -40 + ^ x28: .cfa -48 + ^ .ra: .cfa -56 + ^ x29: .cfa -64 + ^
STACK CFI 2886c .cfa: sp 384 +
STACK CFI 28880 .cfa: sp 0 +
STACK CFI 28884 .cfa: x29 64 +
STACK CFI INIT 288dc 50c .cfa: sp 0 +
STACK CFI 288e0 .cfa: sp 64 +
STACK CFI 288f0 .cfa: x29 64 + x19: .cfa -8 + ^ x20: .cfa -16 + ^ x21: .cfa -24 + ^ x22: .cfa -32 + ^ x23: .cfa -40 + ^ x24: .cfa -48 + ^ .ra: .cfa -56 + ^ x29: .cfa -64 + ^
STACK CFI 28a10 .cfa: sp 64 +
STACK CFI 28a20 .cfa: sp 0 +
STACK CFI 28a24 .cfa: x29 64 +
STACK CFI 28dbc .cfa: sp 64 +
STACK CFI 28dcc .cfa: sp 0 +
STACK CFI 28dd0 .cfa: x29 64 +
STACK CFI INIT 29118 294 .cfa: sp 0 +
STACK CFI 2911c .cfa: sp 240 +
STACK CFI 29134 .cfa: x29 80 + x19: .cfa -8 + ^ x20: .cfa -16 + ^ x21: .cfa -24 + ^ x22: .cfa -32 + ^ x23: .cfa -40 + ^ x24: .cfa -48 + ^ x25: .cfa -64 + ^ .ra: .cfa -72 + ^ x29: .cfa -80 + ^
STACK CFI 292d4 .cfa: sp 240 +
STACK CFI 292ec .cfa: sp 0 +
STACK CFI 292f0 .cfa: x29 80 +
STACK CFI INIT 29428 50 .cfa: sp 0 +
STACK CFI 2942c .cfa: sp 32 +
STACK CFI 29434 .cfa: x29 32 + x19: .cfa -8 + ^ x20: .cfa -16 + ^ .ra: .cfa -24 + ^ x29: .cfa -32 + ^
STACK CFI INIT 294a4 7c0 .cfa: sp 0 +
STACK CFI 294a8 .cfa: sp 320 +
STACK CFI 294c4 .cfa: x29 96 + x19: .cfa -8 + ^ x20: .cfa -16 + ^ x21: .cfa -24 + ^ x22: .cfa -32 + ^ x23: .cfa -40 + ^ x24: .cfa -48 + ^ x25: .cfa -56 + ^ x26: .cfa -64 + ^ x27: .cfa -72 + ^ x28: .cfa -80 + ^ .ra: .cfa -88 + ^ x29: .cfa -96 + ^
STACK CFI 29b14 .cfa: sp 320 +
STACK CFI 29b30 .cfa: sp 0 +
STACK CFI 29b34 .cfa: x29 96 +
STACK CFI INIT 29cc8 14c .cfa: sp 0 +
STACK CFI 29ccc .cfa: sp 80 +
STACK CFI 29ce0 .cfa: x29 80 + x19: .cfa -8 + ^ x20: .cfa -16 + ^ x21: .cfa -24 + ^ x22: .cfa -32 + ^ x23: .cfa -40 + ^ x24: .cfa -48 + ^ x28: .cfa -64 + ^ .ra: .cfa -72 + ^ x29: .cfa -80 + ^
STACK CFI 29d74 .cfa: sp 80 +
STACK CFI 29d88 .cfa: sp 0 +
STACK CFI 29d8c .cfa: x29 80 +
STACK CFI INIT 2e11c c74 .cfa: sp 0 +
STACK CFI 2e120 .cfa: sp 96 +
STACK CFI 2e138 .cfa: x29 96 + x19: .cfa -8 + ^ x20: .cfa -16 + ^ x21: .cfa -24 + ^ x22: .cfa -32 + ^ x23: .cfa -40 + ^ x24: .cfa -48 + ^ x25: .cfa -56 + ^ x26: .cfa -64 + ^ x27: .cfa -72 + ^ x28: .cfa -80 + ^ .ra: .cfa -88 + ^ x29: .cfa -96 + ^
STACK CFI 2ebac .cfa: sp 96 +
STACK CFI 2ebc4 .cfa: sp 0 +
STACK CFI 2ebc8 .cfa: x29 96 +
STACK CFI INIT 2eee4 268 .cfa: sp 0 +
STACK CFI 2eee8 .cfa: sp 128 +
STACK CFI 2eef8 .cfa: x29 48 + x19: .cfa -8 + ^ x20: .cfa -16 + ^ x21: .cfa -24 + ^ x22: .cfa -32 + ^ .ra: .cfa -40 + ^ x29: .cfa -48 + ^
STACK CFI 2f098 .cfa: sp 128 +
STACK CFI 2f0a8 .cfa: sp 0 +
STACK CFI 2f0ac .cfa: x29 48 +
STACK CFI INIT 2f4dc 3b8 .cfa: sp 0 +
STACK CFI 2f4e0 .cfa: sp 96 +
STACK CFI 2f4f8 .cfa: x29 96 + x19: .cfa -8 + ^ x20: .cfa -16 + ^ x21: .cfa -24 + ^ x22: .cfa -32 + ^ x23: .cfa -40 + ^ x24: .cfa -48 + ^ x25: .cfa -56 + ^ x26: .cfa -64 + ^ x27: .cfa -72 + ^ x28: .cfa -80 + ^ .ra: .cfa -88 + ^ x29: .cfa -96 + ^
STACK CFI 2f834 .cfa: sp 96 +
STACK CFI 2f84c .cfa: sp 0 +
STACK CFI 2f850 .cfa: x29 96 +
STACK CFI INIT 2f934 cb0 .cfa: sp 0 +
STACK CFI 2f938 .cfa: sp 96 +
STACK CFI 2f950 .cfa: x29 96 + x19: .cfa -8 + ^ x20: .cfa -16 + ^ x21: .cfa -24 + ^ x22: .cfa -32 + ^ x23: .cfa -40 + ^ x24: .cfa -48 + ^ x25: .cfa -56 + ^ x26: .cfa -64 + ^ x27: .cfa -72 + ^ x28: .cfa -80 + ^ .ra: .cfa -88 + ^ x29: .cfa -96 + ^
STACK CFI 303f4 .cfa: sp 96 +
STACK CFI 3040c .cfa: sp 0 +
STACK CFI 30410 .cfa: x29 96 +
STACK CFI INIT 308cc ae4 .cfa: sp 0 +
STACK CFI 308d0 .cfa: sp 96 +
STACK CFI 308e8 .cfa: x29 96 + x19: .cfa -8 + ^ x20: .cfa -16 + ^ x21: .cfa -24 + ^ x22: .cfa -32 + ^ x23: .cfa -40 + ^ x24: .cfa -48 + ^ x25: .cfa -56 + ^ x26: .cfa -64 + ^ x27: .cfa -72 + ^ x28: .cfa -80 + ^ .ra: .cfa -88 + ^ x29: .cfa -96 + ^
STACK CFI 31324 .cfa: sp 96 +
STACK CFI 3133c .cfa: sp 0 +
STACK CFI 31340 .cfa: x29 96 +
STACK CFI INIT 3158c 1424 .cfa: sp 0 +
STACK CFI 31590 .cfa: sp 96 +
STACK CFI 315a8 .cfa: x29 96 + x19: .cfa -8 + ^ x20: .cfa -16 + ^ x21: .cfa -24 + ^ x22: .cfa -32 + ^ x23: .cfa -40 + ^ x24: .cfa -48 + ^ x25: .cfa -56 + ^ x26: .cfa -64 + ^ x27: .cfa -72 + ^ x28: .cfa -80 + ^ .ra: .cfa -88 + ^ x29: .cfa -96 + ^
STACK CFI 32840 .cfa: sp 96 +
STACK CFI 32858 .cfa: sp 0 +
STACK CFI 3285c .cfa: x29 96 +
STACK CFI INIT 32ad4 75c .cfa: sp 0 +
STACK CFI 32ad8 .cfa: sp 368 +
STACK CFI 32af4 .cfa: x29 96 + x19: .cfa -8 + ^ x20: .cfa -16 + ^ x21: .cfa -24 + ^ x22: .cfa -32 + ^ x23: .cfa -40 + ^ x24: .cfa -48 + ^ x25: .cfa -56 + ^ x26: .cfa -64 + ^ x27: .cfa -72 + ^ x28: .cfa -80 + ^ .ra: .cfa -88 + ^ x29: .cfa -96 + ^
STACK CFI 32ba8 .cfa: sp 368 +
STACK CFI 32bc4 .cfa: sp 0 +
STACK CFI 32bc8 .cfa: x29 96 +
STACK CFI 32c1c .cfa: sp 368 +
STACK CFI 32c38 .cfa: sp 0 +
STACK CFI 32c3c .cfa: x29 96 +
STACK CFI INIT 335f4 eac .cfa: sp 0 +
STACK CFI 335f8 .cfa: sp 96 +
STACK CFI 33610 .cfa: x29 96 + x19: .cfa -8 + ^ x20: .cfa -16 + ^ x21: .cfa -24 + ^ x22: .cfa -32 + ^ x23: .cfa -40 + ^ x24: .cfa -48 + ^ x25: .cfa -56 + ^ x26: .cfa -64 + ^ x27: .cfa -72 + ^ x28: .cfa -80 + ^ .ra: .cfa -88 + ^ x29: .cfa -96 + ^
STACK CFI 342b4 .cfa: sp 96 +
STACK CFI 342cc .cfa: sp 0 +
STACK CFI 342d0 .cfa: x29 96 +
STACK CFI INIT 34814 1c64 .cfa: sp 0 +
STACK CFI 34818 .cfa: sp 112 +
STACK CFI 34834 .cfa: x29 96 + x19: .cfa -8 + ^ x20: .cfa -16 + ^ x21: .cfa -24 + ^ x22: .cfa -32 + ^ x23: .cfa -40 + ^ x24: .cfa -48 + ^ x25: .cfa -56 + ^ x26: .cfa -64 + ^ x27: .cfa -72 + ^ x28: .cfa -80 + ^ .ra: .cfa -88 + ^ x29: .cfa -96 + ^ v8: .cfa -112 + ^
STACK CFI 34c08 .cfa: sp 112 +
STACK CFI 34c24 .cfa: sp 0 +
STACK CFI 34c28 .cfa: x29 96 +
STACK CFI INIT 38c10 a4c .cfa: sp 0 +
STACK CFI 38c14 .cfa: sp 144 +
STACK CFI 38c2c .cfa: x29 80 + x19: .cfa -8 + ^ x20: .cfa -16 + ^ x21: .cfa -24 + ^ x22: .cfa -32 + ^ x23: .cfa -40 + ^ x24: .cfa -48 + ^ x25: .cfa -64 + ^ .ra: .cfa -72 + ^ x29: .cfa -80 + ^
STACK CFI 395b4 .cfa: sp 144 +
STACK CFI 395cc .cfa: sp 0 +
STACK CFI 395d0 .cfa: x29 80 +
STACK CFI INIT 3aaf0 57c .cfa: sp 0 +
STACK CFI 3aaf4 .cfa: sp 96 +
STACK CFI 3ab0c .cfa: x29 96 + x19: .cfa -8 + ^ x20: .cfa -16 + ^ x21: .cfa -24 + ^ x22: .cfa -32 + ^ x23: .cfa -40 + ^ x24: .cfa -48 + ^ x25: .cfa -56 + ^ x26: .cfa -64 + ^ x27: .cfa -72 + ^ x28: .cfa -80 + ^ .ra: .cfa -88 + ^ x29: .cfa -96 + ^
STACK CFI 3afd0 .cfa: sp 96 +
STACK CFI 3afe8 .cfa: sp 0 +
STACK CFI 3afec .cfa: x29 96 +
STACK CFI INIT 3b06c 67c .cfa: sp 0 +
STACK CFI 3b070 .cfa: sp 96 +
STACK CFI 3b088 .cfa: x29 96 + x19: .cfa -8 + ^ x20: .cfa -16 + ^ x21: .cfa -24 + ^ x22: .cfa -32 + ^ x23: .cfa -40 + ^ x24: .cfa -48 + ^ x25: .cfa -56 + ^ x26: .cfa -64 + ^ x27: .cfa -72 + ^ x28: .cfa -80 + ^ .ra: .cfa -88 + ^ x29: .cfa -96 + ^
STACK CFI 3b64c .cfa: sp 96 +
STACK CFI 3b664 .cfa: sp 0 +
STACK CFI 3b668 .cfa: x29 96 +
