MODULE Linux arm64 F5E34140C26082CBB662A3115E1E094E0 undefined0.icon_ninja.android64.so
INFO CODE_ID 4041E3F560C2CB82B662A3115E1E094EDAB7D6AC
INFO GENERATOR mozilla/dump_syms 2.3.4
PUBLIC 1ff40 0 __on_dlclose
PUBLIC 1ff50 0 __emutls_unregister_key
PUBLIC 1ff58 0 __on_dlclose_late
PUBLIC 1ff60 0 __atexit_handler_wrapper
PUBLIC 1ff74 0 atexit
PUBLIC 1ff90 0 pthread_atfork
PUBLIC 1ffa0 0 __aarch64_ldadd8_relax
PUBLIC 1ffd0 0 init_have_lse_atomics
PUBLIC 20068 0 __init_cpu_features_constructor
PUBLIC 20314 0 __init_cpu_features
PUBLIC 203a0 0 __aarch64_ldadd8_acq_rel
PUBLIC 203d0 0 CCBrighten::create(float)
PUBLIC 2046c 0 CCBrighten::update(float)
PUBLIC 2058c 0 CCBrighten::~CCBrighten()
PUBLIC 205b0 0 cocos2d::CCAction::setTag(int)
PUBLIC 205b8 0 geode::cast::traverseTypeinfoFor(void*, geode::cast::ClassTypeinfoType const*, char const*)
PUBLIC 206bc 0 geode::Mod::getSettingValue<bool>(std::__ndk1::basic_string_view<char, std::__ndk1::char_traits<char> >) const
PUBLIC 207e8 0 __clang_call_terminate
PUBLIC 207f8 0 CCSpriteWithLuminosity::createWithSpriteFrame(cocos2d::CCSpriteFrame*)
PUBLIC 20894 0 CCSpriteWithLuminosity::getShaderName()
PUBLIC 208a4 0 CCSpriteWithLuminosity::shaderBody()
PUBLIC 208b0 0 CCSpriteWithLuminosity::setFixedLuminance(float)
PUBLIC 208bc 0 cocos2d::CCCopying::copyWithZone(cocos2d::CCZone*)
PUBLIC 208c4 0 CCSpriteWithLuminosity::~CCSpriteWithLuminosity()
PUBLIC 208e8 0 cocos2d::CCSprite::setBlendFunc(cocos2d::_ccBlendFunc)
PUBLIC 208f4 0 cocos2d::CCSprite::getBlendFunc()
PUBLIC 20900 0 cocos2d::CCSprite::isDirty()
PUBLIC 20908 0 cocos2d::CCSprite::setDirty(bool)
PUBLIC 20910 0 {virtual override thunk({offset(-344)}, cocos2d::CCSprite::setBlendFunc(cocos2d::_ccBlendFunc))}
PUBLIC 20918 0 {virtual override thunk({offset(-344)}, cocos2d::CCSprite::getBlendFunc())}
PUBLIC 20920 0 FlashbangLayer::create()
PUBLIC 20a1c 0 FlashbangLayer::init()
PUBLIC 20a98 0 FlashbangLayer::addSelfToScene()
PUBLIC 20ac4 0 FlashbangLayer::flashAndRemove()
PUBLIC 20b34 0 cocos2d::CCSequence::create(cocos2d::CCFiniteTimeAction*, ...)
PUBLIC 20bcc 0 FlashbangLayer::~FlashbangLayer()
PUBLIC 20bf0 0 cocos2d::CCLayerRGBA::setOpacityModifyRGB(bool)
PUBLIC 20bf4 0 cocos2d::CCLayerRGBA::isOpacityModifyRGB()
PUBLIC 20bfc 0 {virtual override thunk({offset(-320)}, FlashbangLayer::~FlashbangLayer())}
PUBLIC 20c04 0 {virtual override thunk({offset(-320)}, FlashbangLayer::~FlashbangLayer())}
PUBLIC 20c2c 0 cocos2d::CCKeyboardDelegate::keyUp(cocos2d::enumKeyCodes)
PUBLIC 20c30 0 cocos2d::CCMouseDelegate::rightKeyDown()
PUBLIC 20c34 0 cocos2d::CCMouseDelegate::rightKeyUp()
PUBLIC 20c38 0 cocos2d::CCMouseDelegate::scrollWheel(float, float)
PUBLIC 20c3c 0 {virtual override thunk({offset(-408)}, cocos2d::CCLayerRGBA::setOpacityModifyRGB(bool))}
PUBLIC 20c40 0 {virtual override thunk({offset(-408)}, cocos2d::CCLayerRGBA::isOpacityModifyRGB())}
PUBLIC 20c48 0 MenuIcon::create(MenuIconType)
PUBLIC 20cc0 0 MenuIcon::init(MenuIconType)
PUBLIC 21288 0 MenuIcon::getRadius()
PUBLIC 212ac 0 __cxx_global_var_init
PUBLIC 2130c 0 geode::modifier::ModifyBase<geode::modifier::ModifyDerive<HookedMenuLayer, MenuLayer> >::~ModifyBase()
PUBLIC 21328 0 MenuIcon::~MenuIcon()
PUBLIC 2134c 0 std::__ndk1::basic_string<char, std::__ndk1::char_traits<char>, std::__ndk1::allocator<char> >::__throw_length_error[abi:ne190000]() const
PUBLIC 21360 0 std::__ndk1::__throw_length_error[abi:ne190000](char const*)
PUBLIC 213b0 0 std::length_error::length_error[abi:ne190000](char const*)
PUBLIC 213e0 0 std::__throw_bad_array_new_length([abi:ne190000], void)
PUBLIC 21414 0 geode::modifier::FieldIntermediate<HookedMenuLayer, MenuLayer>::self()
PUBLIC 215a8 0 geode::modifier::FieldContainer::getField(unsigned long)
PUBLIC 217d8 0 geode::modifier::FieldContainer::setField(unsigned long, unsigned long, std::__ndk1::function<void (void*)>)
PUBLIC 218ec 0 geode::modifier::FieldIntermediate<HookedMenuLayer, MenuLayer>::fieldDestructor(void*)
PUBLIC 218f4 0 std::__ndk1::vector<void*, std::__ndk1::allocator<void*> >::__throw_length_error[abi:ne190000]() const
PUBLIC 21908 0 std::__ndk1::vector<std::__ndk1::function<void (void*)>, std::__ndk1::allocator<std::__ndk1::function<void (void*)> > >::__push_back_slow_path<std::__ndk1::function<void (void*)> >(std::__ndk1::function<void (void*)>&&)
PUBLIC 21b28 0 std::__ndk1::vector<std::__ndk1::function<void (void*)>, std::__ndk1::allocator<std::__ndk1::function<void (void*)> > >::__throw_length_error[abi:ne190000]() const
PUBLIC 21b3c 0 std::__ndk1::vector<void*, std::__ndk1::allocator<void*> >::__throw_out_of_range[abi:ne190000]() const
PUBLIC 21b50 0 std::__ndk1::__throw_out_of_range[abi:ne190000](char const*)
PUBLIC 21ba0 0 std::out_of_range::out_of_range[abi:ne190000](char const*)
PUBLIC 21bd0 0 std::__ndk1::vector<std::__ndk1::function<void (void*)>, std::__ndk1::allocator<std::__ndk1::function<void (void*)> > >::__throw_out_of_range[abi:ne190000]() const
PUBLIC 21be4 0 std::__ndk1::__tree<std::__ndk1::__value_type<cocos2d::CCNode*, cocos2d::CCPoint>, std::__ndk1::__map_value_compare<cocos2d::CCNode*, std::__ndk1::__value_type<cocos2d::CCNode*, cocos2d::CCPoint>, std::__ndk1::less<cocos2d::CCNode*>, true>, std::__ndk1::allocator<std::__ndk1::__value_type<cocos2d::CCNode*, cocos2d::CCPoint> > >::destroy(std::__ndk1::__tree_node<std::__ndk1::__value_type<cocos2d::CCNode*, cocos2d::CCPoint>, void*>*)
PUBLIC 21c28 0 std::__ndk1::__function::__base<void (void*)>::~__base()
PUBLIC 21c2c 0 std::__ndk1::__function::__func<void (*)(void*), std::__ndk1::allocator<void (*)(void*)>, void (void*)>::~__func()
PUBLIC 21c30 0 std::__ndk1::__function::__func<void (*)(void*), std::__ndk1::allocator<void (*)(void*)>, void (void*)>::__clone() const
PUBLIC 21c68 0 std::__ndk1::__function::__func<void (*)(void*), std::__ndk1::allocator<void (*)(void*)>, void (void*)>::__clone(std::__ndk1::__function::__base<void (void*)>*) const
PUBLIC 21c80 0 std::__ndk1::__function::__func<void (*)(void*), std::__ndk1::allocator<void (*)(void*)>, void (void*)>::destroy()
PUBLIC 21c84 0 std::__ndk1::__function::__func<void (*)(void*), std::__ndk1::allocator<void (*)(void*)>, void (void*)>::destroy_deallocate()
PUBLIC 21c88 0 std::__ndk1::__function::__func<void (*)(void*), std::__ndk1::allocator<void (*)(void*)>, void (void*)>::operator()(void*&&)
PUBLIC 21c98 0 std::__ndk1::__function::__func<void (*)(void*), std::__ndk1::allocator<void (*)(void*)>, void (void*)>::target(std::type_info const&) const
PUBLIC 21cb4 0 std::__ndk1::__function::__func<void (*)(void*), std::__ndk1::allocator<void (*)(void*)>, void (void*)>::target_type() const
PUBLIC 21cc0 0 geode::modifier::ModifyBase<geode::modifier::ModifyDerive<HookedMenuLayer, MenuLayer> >::ModifyBase()
PUBLIC 220b8 0 geode::modifier::ModifyDerive<HookedMenuLayer, MenuLayer>::apply()
PUBLIC 224d4 0 std::__ndk1::shared_ptr<geode::Hook>::~shared_ptr[abi:ne190000]()
PUBLIC 22524 0 geode::impl::ResultData<geode::Hook*, std::__ndk1::basic_string<char, std::__ndk1::char_traits<char>, std::__ndk1::allocator<char> > >::~ResultData()
PUBLIC 22598 0 std::__ndk1::vector<std::__ndk1::basic_string<char, std::__ndk1::char_traits<char>, std::__ndk1::allocator<char> >, std::__ndk1::allocator<std::__ndk1::basic_string<char, std::__ndk1::char_traits<char>, std::__ndk1::allocator<char> > > >::~vector[abi:ne190000]()
PUBLIC 22614 0 geode::modifier::ModifyBase<geode::modifier::ModifyDerive<HookedMenuLayer, MenuLayer> >::apply()
PUBLIC 22618 0 _ZN5geode15UnwrapExceptionC2IRPNS_4HookEQsr4implE18IsStringStreamableIT_EEENS_4impl5OkTagEOS5_
PUBLIC 2276c 0 std::__ndk1::__throw_bad_variant_access[abi:ne190000]()
PUBLIC 227a0 0 std::__ndk1::basic_stringstream<char, std::__ndk1::char_traits<char>, std::__ndk1::allocator<char> >::basic_stringstream[abi:ne190000]()
PUBLIC m 228d4 0 std::__ndk1::basic_stringstream<char, std::__ndk1::char_traits<char>, std::__ndk1::allocator<char> >::~basic_stringstream()
PUBLIC 22954 0 geode::UnwrapException::~UnwrapException()
PUBLIC 22978 0 std::__ndk1::__put_character_sequence[abi:ne190000]<char, std::__ndk1::char_traits<char> >(std::__ndk1::basic_ostream<char, std::__ndk1::char_traits<char> >, std::__ndk1::basic_ostream const*, unsigned long)
PUBLIC 22b1c 0 std::__ndk1::__pad_and_output[abi:ne190000]<char, std::__ndk1::char_traits<char> >(std::__ndk1::char_traits<char>, std::__ndk1::ostreambuf_iterator const*, std::__ndk1::ostreambuf_iterator const, std::__ndk1::ostreambuf_iterator const, std::__ndk1::ios_base&, std::__ndk1::ostreambuf_iterator)
PUBLIC 22d08 0 std::__ndk1::basic_stringbuf<char, std::__ndk1::char_traits<char>, std::__ndk1::allocator<char> >::str[abi:ne190000]() &&
PUBLIC 22e78 0 std::__ndk1::basic_stringbuf<char, std::__ndk1::char_traits<char>, std::__ndk1::allocator<char> >::__init_buf_ptrs[abi:ne190000]()
PUBLIC 22fc0 0 std::__ndk1::basic_string<char, std::__ndk1::char_traits<char>, std::__ndk1::allocator<char> >::__erase_external_with_move(unsigned long, unsigned long)
PUBLIC 23048 0 std::__ndk1::vector<std::__ndk1::basic_string<char, std::__ndk1::char_traits<char>, std::__ndk1::allocator<char> >, std::__ndk1::allocator<std::__ndk1::basic_string<char, std::__ndk1::char_traits<char>, std::__ndk1::allocator<char> > > >::__push_back_slow_path<std::__ndk1::basic_string<char, std::__ndk1::char_traits<char>, std::__ndk1::allocator<char> > const&>(std::__ndk1::basic_string<char, std::__ndk1::char_traits<char>, std::__ndk1::allocator<char> > const&)
PUBLIC 231f8 0 std::__ndk1::basic_string<char, std::__ndk1::char_traits<char>, std::__ndk1::allocator<char> >::__init_copy_ctor_external(char const*, unsigned long)
PUBLIC 2328c 0 std::__ndk1::__split_buffer<std::__ndk1::basic_string<char, std::__ndk1::char_traits<char>, std::__ndk1::allocator<char> >, std::__ndk1::allocator<std::__ndk1::basic_string<char, std::__ndk1::char_traits<char>, std::__ndk1::allocator<char> > >&>::~__split_buffer()
PUBLIC 232f4 0 std::__ndk1::vector<std::__ndk1::basic_string<char, std::__ndk1::char_traits<char>, std::__ndk1::allocator<char> >, std::__ndk1::allocator<std::__ndk1::basic_string<char, std::__ndk1::char_traits<char>, std::__ndk1::allocator<char> > > >::__throw_length_error[abi:ne190000]() const
PUBLIC 23308 0 std::__ndk1::__variant_detail::__visitation::__base::__dispatcher<(unsigned long)0>::__dispatch[abi:ne190000]<std::__ndk1::__variant_detail::__dtor<std::__ndk1::__variant_detail::__traits<geode::Hook*, std::__ndk1::basic_string<char, std::__ndk1::char_traits<char>, std::__ndk1::allocator<char> > >, (std::__ndk1::__variant_detail::_Trait)1>::__destroy[abi:ne190000]()::{lambda(auto:1&)#1}, std::__ndk1::__variant_detail::__base<(std::__ndk1::__variant_detail::__traits<geode::Hook*, std::__ndk1::basic_string<char, std::__ndk1::char_traits<char>, std::__ndk1::allocator<char> > >)1, geode::Hook, std::__ndk1::allocator<char> >&>(std::__ndk1::__variant_detail::__dtor<std::__ndk1::__variant_detail::__traits<geode::Hook*, std::__ndk1::basic_string<char, std::__ndk1::char_traits<char>, std::__ndk1::allocator<char> > >, (std::__ndk1::__variant_detail::_Trait)1>, std::__ndk1::__variant_detail::__base<(std::__ndk1::__variant_detail::__traits<geode::Hook*, std::__ndk1::basic_string<char, std::__ndk1::char_traits<char>, std::__ndk1::allocator<char> > >)1, geode::Hook, std::__ndk1::allocator<char> >&)
PUBLIC 2330c 0 std::__ndk1::__variant_detail::__visitation::__base::__dispatcher<(unsigned long)1>::__dispatch[abi:ne190000]<std::__ndk1::__variant_detail::__dtor<std::__ndk1::__variant_detail::__traits<geode::Hook*, std::__ndk1::basic_string<char, std::__ndk1::char_traits<char>, std::__ndk1::allocator<char> > >, (std::__ndk1::__variant_detail::_Trait)1>::__destroy[abi:ne190000]()::{lambda(auto:1&)#1}, std::__ndk1::__variant_detail::__base<(std::__ndk1::__variant_detail::__traits<geode::Hook*, std::__ndk1::basic_string<char, std::__ndk1::char_traits<char>, std::__ndk1::allocator<char> > >)1, geode::Hook, std::__ndk1::allocator<char> >&>(std::__ndk1::__variant_detail::__dtor<std::__ndk1::__variant_detail::__traits<geode::Hook*, std::__ndk1::basic_string<char, std::__ndk1::char_traits<char>, std::__ndk1::allocator<char> > >, (std::__ndk1::__variant_detail::_Trait)1>, std::__ndk1::__variant_detail::__base<(std::__ndk1::__variant_detail::__traits<geode::Hook*, std::__ndk1::basic_string<char, std::__ndk1::char_traits<char>, std::__ndk1::allocator<char> > >)1, geode::Hook, std::__ndk1::allocator<char> >&)
PUBLIC 23320 0 std::__ndk1::__tree<std::__ndk1::__value_type<std::__ndk1::basic_string<char, std::__ndk1::char_traits<char>, std::__ndk1::allocator<char> >, std::__ndk1::shared_ptr<geode::Hook> >, std::__ndk1::__map_value_compare<std::__ndk1::basic_string<char, std::__ndk1::char_traits<char>, std::__ndk1::allocator<char> >, std::__ndk1::__value_type<std::__ndk1::basic_string<char, std::__ndk1::char_traits<char>, std::__ndk1::allocator<char> >, std::__ndk1::shared_ptr<geode::Hook> >, std::__ndk1::less<std::__ndk1::basic_string<char, std::__ndk1::char_traits<char>, std::__ndk1::allocator<char> > >, true>, std::__ndk1::allocator<std::__ndk1::__value_type<std::__ndk1::basic_string<char, std::__ndk1::char_traits<char>, std::__ndk1::allocator<char> >, std::__ndk1::shared_ptr<geode::Hook> > > >::find<std::__ndk1::basic_string<char, std::__ndk1::char_traits<char>, std::__ndk1::allocator<char> > >(std::__ndk1::basic_string<char, std::__ndk1::char_traits<char>, std::__ndk1::allocator<char> > const&)
PUBLIC 23448 0 std::__ndk1::__tree<std::__ndk1::__value_type<std::__ndk1::basic_string<char, std::__ndk1::char_traits<char>, std::__ndk1::allocator<char> >, std::__ndk1::shared_ptr<geode::Hook> >, std::__ndk1::__map_value_compare<std::__ndk1::basic_string<char, std::__ndk1::char_traits<char>, std::__ndk1::allocator<char> >, std::__ndk1::__value_type<std::__ndk1::basic_string<char, std::__ndk1::char_traits<char>, std::__ndk1::allocator<char> >, std::__ndk1::shared_ptr<geode::Hook> >, std::__ndk1::less<std::__ndk1::basic_string<char, std::__ndk1::char_traits<char>, std::__ndk1::allocator<char> > >, true>, std::__ndk1::allocator<std::__ndk1::__value_type<std::__ndk1::basic_string<char, std::__ndk1::char_traits<char>, std::__ndk1::allocator<char> >, std::__ndk1::shared_ptr<geode::Hook> > > >::erase(std::__ndk1::__tree_const_iterator<std::__ndk1::__value_type<std::__ndk1::basic_string<char, std::__ndk1::char_traits<char>, std::__ndk1::allocator<char> >, std::__ndk1::shared_ptr<geode::Hook> >, std::__ndk1::__tree_node<std::__ndk1::__value_type<std::__ndk1::basic_string<char, std::__ndk1::char_traits<char>, std::__ndk1::allocator<char> >, std::__ndk1::shared_ptr<geode::Hook> >, void*>*, long>)
PUBLIC 2351c 0 std::__ndk1::__tree_remove[abi:ne190000]<std::__ndk1::__tree_node_base<void*>*>(std::__ndk1::__tree_node_base<void*>*, std::__ndk1::__tree_node_base<void*>*)
PUBLIC 238e4 0 std::__ndk1::__tree<std::__ndk1::__value_type<std::__ndk1::basic_string<char, std::__ndk1::char_traits<char>, std::__ndk1::allocator<char> >, std::__ndk1::shared_ptr<geode::Hook> >, std::__ndk1::__map_value_compare<std::__ndk1::basic_string<char, std::__ndk1::char_traits<char>, std::__ndk1::allocator<char> >, std::__ndk1::__value_type<std::__ndk1::basic_string<char, std::__ndk1::char_traits<char>, std::__ndk1::allocator<char> >, std::__ndk1::shared_ptr<geode::Hook> >, std::__ndk1::less<std::__ndk1::basic_string<char, std::__ndk1::char_traits<char>, std::__ndk1::allocator<char> > >, true>, std::__ndk1::allocator<std::__ndk1::__value_type<std::__ndk1::basic_string<char, std::__ndk1::char_traits<char>, std::__ndk1::allocator<char> >, std::__ndk1::shared_ptr<geode::Hook> > > >::destroy(std::__ndk1::__tree_node<std::__ndk1::__value_type<std::__ndk1::basic_string<char, std::__ndk1::char_traits<char>, std::__ndk1::allocator<char> >, std::__ndk1::shared_ptr<geode::Hook> >, void*>*)
PUBLIC 23970 0 geode::Hook::create<bool (*)(HookedMenuLayer*)>(void*, bool (*)(HookedMenuLayer*), std::__ndk1::basic_string<char, std::__ndk1::char_traits<char>, std::__ndk1::allocator<char> > const&, tulip::hook::TulipConvention, tulip::hook::HookMetadata const&)
PUBLIC 23aa4 0 geode::modifier::AsStaticFunction_init<HookedMenuLayer, bool (HookedMenuLayer::*)()>::Impl<bool (HookedMenuLayer::*)()>::function(HookedMenuLayer*)
PUBLIC 23aa8 0 geode::Hook::create<void (*)(HookedMenuLayer*, cocos2d::enumKeyCodes)>(void*, void (*)(HookedMenuLayer*, cocos2d::enumKeyCodes), std::__ndk1::basic_string<char, std::__ndk1::char_traits<char>, std::__ndk1::allocator<char> > const&, tulip::hook::TulipConvention, tulip::hook::HookMetadata const&)
PUBLIC 23c2c 0 geode::modifier::AsStaticFunction_keyDown<HookedMenuLayer, void (HookedMenuLayer::*)(cocos2d::enumKeyCodes)>::Impl<void (HookedMenuLayer::*)(cocos2d::enumKeyCodes)>::function(HookedMenuLayer*, cocos2d::enumKeyCodes)
PUBLIC 23c30 0 geode::addresser::Addresser::addressOfVirtual<bool, MenuLayer, >(bool (MenuLayer::*)())
PUBLIC 23d1c 0 MenuLayer::MenuLayer(geode::ZeroConstructorType)
PUBLIC 23db8 0 std::__ndk1::shared_ptr<tulip::hook::CallingConvention>::~shared_ptr[abi:ne190000]()
PUBLIC 23e08 0 tulip::hook::HandlerMetadata::~HandlerMetadata()
PUBLIC 23e6c 0 std::__ndk1::__tree<std::__ndk1::__value_type<std::__ndk1::basic_string<char, std::__ndk1::char_traits<char>, std::__ndk1::allocator<char> >, std::__ndk1::shared_ptr<geode::Hook> >, std::__ndk1::__map_value_compare<std::__ndk1::basic_string<char, std::__ndk1::char_traits<char>, std::__ndk1::allocator<char> >, std::__ndk1::__value_type<std::__ndk1::basic_string<char, std::__ndk1::char_traits<char>, std::__ndk1::allocator<char> >, std::__ndk1::shared_ptr<geode::Hook> >, std::__ndk1::less<std::__ndk1::basic_string<char, std::__ndk1::char_traits<char>, std::__ndk1::allocator<char> > >, true>, std::__ndk1::allocator<std::__ndk1::__value_type<std::__ndk1::basic_string<char, std::__ndk1::char_traits<char>, std::__ndk1::allocator<char> >, std::__ndk1::shared_ptr<geode::Hook> > > >::__emplace_unique_key_args<std::__ndk1::basic_string<char, std::__ndk1::char_traits<char>, std::__ndk1::allocator<char> >, std::__ndk1::piecewise_construct_t const&, std::__ndk1::tuple<std::__ndk1::basic_string<char, std::__ndk1::char_traits<char>, std::__ndk1::allocator<char> >&&>, std::__ndk1::tuple<> >(std::__ndk1::basic_string<char, std::__ndk1::char_traits<char>, std::__ndk1::allocator<char> > const&, std::__ndk1::piecewise_construct_t const&, std::__ndk1::tuple<std::__ndk1::basic_string<char, std::__ndk1::char_traits<char>, std::__ndk1::allocator<char> >&&>, std::__ndk1::tuple<>)
PUBLIC 23fe4 0 std::__ndk1::__tree_balance_after_insert[abi:ne190000]<std::__ndk1::__tree_node_base<void*>*>(std::__ndk1::__tree_node_base<void*>*, std::__ndk1::__tree_node_base<void*>*)
PUBLIC 2418c 0 geode::addresser::Addresser::addressOfVirtual<void, MenuLayer, cocos2d::enumKeyCodes>(void (MenuLayer::*)(cocos2d::enumKeyCodes))
PUBLIC 24278 0 NinjaSwipeLayer::create()
PUBLIC 24354 0 NinjaSwipeLayer::init()
PUBLIC 24b70 0 NinjaSwipeLayer::exitGameplay(cocos2d::CCObject*)
PUBLIC 24d38 0 NinjaSwipeLayer::updateComboShit()
PUBLIC 24f9c 0 NinjaSwipeLayer::ccTouchBegan(cocos2d::CCTouch*, cocos2d::CCEvent*)
PUBLIC 2503c 0 {virtual override thunk({offset(-320)}, NinjaSwipeLayer::ccTouchBegan(cocos2d::CCTouch*, cocos2d::CCEvent*))}
PUBLIC 250dc 0 NinjaSwipeLayer::ccTouchMoved(cocos2d::CCTouch*, cocos2d::CCEvent*)
PUBLIC 251bc 0 NinjaSwipeLayer::checkSwipeIntersection(cocos2d::CCPoint const&, cocos2d::CCPoint const&)
PUBLIC 25b64 0 {virtual override thunk({offset(-320)}, NinjaSwipeLayer::ccTouchMoved(cocos2d::CCTouch*, cocos2d::CCEvent*))}
PUBLIC 25b6c 0 NinjaSwipeLayer::ccTouchEnded(cocos2d::CCTouch*, cocos2d::CCEvent*)
PUBLIC 25c04 0 {virtual override thunk({offset(-320)}, NinjaSwipeLayer::ccTouchEnded(cocos2d::CCTouch*, cocos2d::CCEvent*))}
PUBLIC 25ca0 0 geode::Mod::getSettingValue<double>(std::__ndk1::basic_string_view<char, std::__ndk1::char_traits<char> >) const
PUBLIC 25dd0 0 NinjaSwipeLayer::update(float)
PUBLIC 26454 0 NinjaSwipeLayer::resetCombo()
PUBLIC 2663c 0 geodeExecFunction567<(anonymous namespace)::ExecFuncUnique567>(geode::ModStateEvent*)
PUBLIC 266f0 0 NinjaSwipeLayer::~NinjaSwipeLayer()
PUBLIC 26750 0 NinjaSwipeLayer::~NinjaSwipeLayer()
PUBLIC 267b4 0 {virtual override thunk({offset(-320)}, NinjaSwipeLayer::~NinjaSwipeLayer())}
PUBLIC 26814 0 {virtual override thunk({offset(-320)}, NinjaSwipeLayer::~NinjaSwipeLayer())}
PUBLIC 2687c 0 std::__ndk1::vector<MenuIcon*, std::__ndk1::allocator<MenuIcon*> >::__throw_length_error[abi:ne190000]() const
PUBLIC 26890 0 geode::cocos::CallFuncExtImpl<NinjaSwipeLayer::killPlayer(MenuIcon*)::$_0>::~CallFuncExtImpl()
PUBLIC 268b4 0 geode::cocos::CallFuncExtImpl<NinjaSwipeLayer::killPlayer(MenuIcon*)::$_0>::update(float)
PUBLIC 26b54 0 geode::cocos::CallFuncExtImpl<NinjaSwipeLayer::update(float)::$_0>::~CallFuncExtImpl()
PUBLIC 26b78 0 geode::cocos::CallFuncExtImpl<NinjaSwipeLayer::update(float)::$_0>::update(float)
PUBLIC 27240 0 geode::cocos::CallFuncExtImpl<NinjaSwipeLayer::spawnPlayers()::$_0>::~CallFuncExtImpl()
PUBLIC 27264 0 geode::cocos::CallFuncExtImpl<NinjaSwipeLayer::spawnPlayers()::$_0>::update(float)
PUBLIC 2735c 0 geode::cocos::CallFuncExtImpl<NinjaSwipeLayer::spawnPlayers()::$_1>::~CallFuncExtImpl()
PUBLIC 27380 0 geode::cocos::CallFuncExtImpl<NinjaSwipeLayer::spawnPlayers()::$_1>::update(float)
PUBLIC 2738c 0 geode::impl::ResultData<matjson::Value&, std::__ndk1::basic_string<char, std::__ndk1::char_traits<char>, std::__ndk1::allocator<char> > >::~ResultData()
PUBLIC 27400 0 matjson::Value::as<int>() const
PUBLIC 27508 0 std::__ndk1::__variant_detail::__visitation::__base::__dispatcher<(unsigned long)0>::__dispatch[abi:ne190000]<std::__ndk1::__variant_detail::__dtor<std::__ndk1::__variant_detail::__traits<long, std::__ndk1::basic_string<char, std::__ndk1::char_traits<char>, std::__ndk1::allocator<char> > >, (std::__ndk1::__variant_detail::_Trait)1>::__destroy[abi:ne190000]()::{lambda(auto:1&)#1}, std::__ndk1::__variant_detail::__base<(std::__ndk1::__variant_detail::__traits<long, std::__ndk1::basic_string<char, std::__ndk1::char_traits<char>, std::__ndk1::allocator<char> > >)1, long, std::__ndk1::allocator<char> >&>(std::__ndk1::__variant_detail::__dtor<std::__ndk1::__variant_detail::__traits<long, std::__ndk1::basic_string<char, std::__ndk1::char_traits<char>, std::__ndk1::allocator<char> > >, (std::__ndk1::__variant_detail::_Trait)1>, std::__ndk1::__variant_detail::__base<(std::__ndk1::__variant_detail::__traits<long, std::__ndk1::basic_string<char, std::__ndk1::char_traits<char>, std::__ndk1::allocator<char> > >)1, long, std::__ndk1::allocator<char> >&)
PUBLIC 2750c 0 std::__ndk1::__variant_detail::__visitation::__base::__dispatcher<(unsigned long)1>::__dispatch[abi:ne190000]<std::__ndk1::__variant_detail::__dtor<std::__ndk1::__variant_detail::__traits<long, std::__ndk1::basic_string<char, std::__ndk1::char_traits<char>, std::__ndk1::allocator<char> > >, (std::__ndk1::__variant_detail::_Trait)1>::__destroy[abi:ne190000]()::{lambda(auto:1&)#1}, std::__ndk1::__variant_detail::__base<(std::__ndk1::__variant_detail::__traits<long, std::__ndk1::basic_string<char, std::__ndk1::char_traits<char>, std::__ndk1::allocator<char> > >)1, long, std::__ndk1::allocator<char> >&>(std::__ndk1::__variant_detail::__dtor<std::__ndk1::__variant_detail::__traits<long, std::__ndk1::basic_string<char, std::__ndk1::char_traits<char>, std::__ndk1::allocator<char> > >, (std::__ndk1::__variant_detail::_Trait)1>, std::__ndk1::__variant_detail::__base<(std::__ndk1::__variant_detail::__traits<long, std::__ndk1::basic_string<char, std::__ndk1::char_traits<char>, std::__ndk1::allocator<char> > >)1, long, std::__ndk1::allocator<char> >&)
PUBLIC 27520 0 std::__ndk1::__variant_detail::__visitation::__base::__dispatcher<(unsigned long)0>::__dispatch[abi:ne190000]<std::__ndk1::__variant_detail::__dtor<std::__ndk1::__variant_detail::__traits<std::__ndk1::reference_wrapper<matjson::Value>, std::__ndk1::basic_string<char, std::__ndk1::char_traits<char>, std::__ndk1::allocator<char> > >, (std::__ndk1::__variant_detail::_Trait)1>::__destroy[abi:ne190000]()::{lambda(auto:1&)#1}, std::__ndk1::__variant_detail::__base<(std::__ndk1::__variant_detail::__traits<std::__ndk1::reference_wrapper<matjson::Value>, std::__ndk1::basic_string<char, std::__ndk1::char_traits<char>, std::__ndk1::allocator<char> > >)1, matjson::Value, std::__ndk1::allocator<char> >&>(std::__ndk1::__variant_detail::__dtor<std::__ndk1::__variant_detail::__traits<std::__ndk1::reference_wrapper<matjson::Value>, std::__ndk1::basic_string<char, std::__ndk1::char_traits<char>, std::__ndk1::allocator<char> > >, (std::__ndk1::__variant_detail::_Trait)1>, std::__ndk1::__variant_detail::__base<(std::__ndk1::__variant_detail::__traits<std::__ndk1::reference_wrapper<matjson::Value>, std::__ndk1::basic_string<char, std::__ndk1::char_traits<char>, std::__ndk1::allocator<char> > >)1, matjson::Value, std::__ndk1::allocator<char> >&)
PUBLIC 27524 0 std::__ndk1::__variant_detail::__visitation::__base::__dispatcher<(unsigned long)1>::__dispatch[abi:ne190000]<std::__ndk1::__variant_detail::__dtor<std::__ndk1::__variant_detail::__traits<std::__ndk1::reference_wrapper<matjson::Value>, std::__ndk1::basic_string<char, std::__ndk1::char_traits<char>, std::__ndk1::allocator<char> > >, (std::__ndk1::__variant_detail::_Trait)1>::__destroy[abi:ne190000]()::{lambda(auto:1&)#1}, std::__ndk1::__variant_detail::__base<(std::__ndk1::__variant_detail::__traits<std::__ndk1::reference_wrapper<matjson::Value>, std::__ndk1::basic_string<char, std::__ndk1::char_traits<char>, std::__ndk1::allocator<char> > >)1, matjson::Value, std::__ndk1::allocator<char> >&>(std::__ndk1::__variant_detail::__dtor<std::__ndk1::__variant_detail::__traits<std::__ndk1::reference_wrapper<matjson::Value>, std::__ndk1::basic_string<char, std::__ndk1::char_traits<char>, std::__ndk1::allocator<char> > >, (std::__ndk1::__variant_detail::_Trait)1>, std::__ndk1::__variant_detail::__base<(std::__ndk1::__variant_detail::__traits<std::__ndk1::reference_wrapper<matjson::Value>, std::__ndk1::basic_string<char, std::__ndk1::char_traits<char>, std::__ndk1::allocator<char> > >)1, matjson::Value, std::__ndk1::allocator<char> >&)
PUBLIC 27538 0 std::__ndk1::__variant_detail::__visitation::__base::__dispatcher<(unsigned long)0>::__dispatch[abi:ne190000]<std::__ndk1::__variant_detail::__dtor<std::__ndk1::__variant_detail::__traits<int, std::__ndk1::basic_string<char, std::__ndk1::char_traits<char>, std::__ndk1::allocator<char> > >, (std::__ndk1::__variant_detail::_Trait)1>::__destroy[abi:ne190000]()::{lambda(auto:1&)#1}, std::__ndk1::__variant_detail::__base<(std::__ndk1::__variant_detail::__traits<int, std::__ndk1::basic_string<char, std::__ndk1::char_traits<char>, std::__ndk1::allocator<char> > >)1, int, std::__ndk1::allocator<char> >&>(std::__ndk1::__variant_detail::__dtor<std::__ndk1::__variant_detail::__traits<int, std::__ndk1::basic_string<char, std::__ndk1::char_traits<char>, std::__ndk1::allocator<char> > >, (std::__ndk1::__variant_detail::_Trait)1>, std::__ndk1::__variant_detail::__base<(std::__ndk1::__variant_detail::__traits<int, std::__ndk1::basic_string<char, std::__ndk1::char_traits<char>, std::__ndk1::allocator<char> > >)1, int, std::__ndk1::allocator<char> >&)
PUBLIC 2753c 0 std::__ndk1::__variant_detail::__visitation::__base::__dispatcher<(unsigned long)1>::__dispatch[abi:ne190000]<std::__ndk1::__variant_detail::__dtor<std::__ndk1::__variant_detail::__traits<int, std::__ndk1::basic_string<char, std::__ndk1::char_traits<char>, std::__ndk1::allocator<char> > >, (std::__ndk1::__variant_detail::_Trait)1>::__destroy[abi:ne190000]()::{lambda(auto:1&)#1}, std::__ndk1::__variant_detail::__base<(std::__ndk1::__variant_detail::__traits<int, std::__ndk1::basic_string<char, std::__ndk1::char_traits<char>, std::__ndk1::allocator<char> > >)1, int, std::__ndk1::allocator<char> >&>(std::__ndk1::__variant_detail::__dtor<std::__ndk1::__variant_detail::__traits<int, std::__ndk1::basic_string<char, std::__ndk1::char_traits<char>, std::__ndk1::allocator<char> > >, (std::__ndk1::__variant_detail::_Trait)1>, std::__ndk1::__variant_detail::__base<(std::__ndk1::__variant_detail::__traits<int, std::__ndk1::basic_string<char, std::__ndk1::char_traits<char>, std::__ndk1::allocator<char> > >)1, int, std::__ndk1::allocator<char> >&)
PUBLIC 27550 0 std::__ndk1::uniform_int_distribution<int>::operator()<std::__ndk1::mersenne_twister_engine<unsigned long, (unsigned long)32, (unsigned long)624, (unsigned long)397, (unsigned long)31, (unsigned long)2567483615, (unsigned long)11, (unsigned long)4294967295, (unsigned long)7, (unsigned long)2636928640, (unsigned long)15, (unsigned long)4022730752, (unsigned long)18, (unsigned long)1812433253> >(std::__ndk1::mersenne_twister_engine<unsigned long, (unsigned long)32, (unsigned long)624, (unsigned long)397, (unsigned long)31, (unsigned long)2567483615, (unsigned long)11, (unsigned long)4294967295, (unsigned long)7, (unsigned long)2636928640, (unsigned long)15, (unsigned long)4022730752, (unsigned long)18, (unsigned long)1812433253>&, std::__ndk1::uniform_int_distribution<int>::param_type const&)
PUBLIC 276a4 0 std::__ndk1::__independent_bits_engine<std::__ndk1::mersenne_twister_engine<unsigned long, (unsigned long)32, (unsigned long)624, (unsigned long)397, (unsigned long)31, (unsigned long)2567483615, (unsigned long)11, (unsigned long)4294967295, (unsigned long)7, (unsigned long)2636928640, (unsigned long)15, (unsigned long)4022730752, (unsigned long)18, (unsigned long)1812433253>, unsigned int>::__eval(std::__ndk1::integral_constant<bool, true>)
PUBLIC 278a4 0 geode::EventListener<geode::ModStateFilter>::getPool() const
PUBLIC 278a8 0 geode::EventListener<geode::ModStateFilter>::handle(geode::Event*)
PUBLIC 27a1c 0 geode::EventListener<geode::ModStateFilter>::~EventListener()
PUBLIC 27a78 0 geode::EventListener<geode::ModStateFilter>::~EventListener()
PUBLIC 27adc 0 std::__ndk1::__function::__base<void (geode::ModStateEvent*)>::~__base()
PUBLIC 27ae0 0 std::__ndk1::__function::__func<void (*)(geode::ModStateEvent*), std::__ndk1::allocator<void (*)(geode::ModStateEvent*)>, void (geode::ModStateEvent*)>::~__func()
PUBLIC 27ae4 0 std::__ndk1::__function::__func<void (*)(geode::ModStateEvent*), std::__ndk1::allocator<void (*)(geode::ModStateEvent*)>, void (geode::ModStateEvent*)>::__clone() const
PUBLIC 27b18 0 std::__ndk1::__function::__func<void (*)(geode::ModStateEvent*), std::__ndk1::allocator<void (*)(geode::ModStateEvent*)>, void (geode::ModStateEvent*)>::__clone(std::__ndk1::__function::__base<void (geode::ModStateEvent*)>*) const
PUBLIC 27b2c 0 std::__ndk1::__function::__func<void (*)(geode::ModStateEvent*), std::__ndk1::allocator<void (*)(geode::ModStateEvent*)>, void (geode::ModStateEvent*)>::destroy()
PUBLIC 27b30 0 std::__ndk1::__function::__func<void (*)(geode::ModStateEvent*), std::__ndk1::allocator<void (*)(geode::ModStateEvent*)>, void (geode::ModStateEvent*)>::destroy_deallocate()
PUBLIC 27b34 0 std::__ndk1::__function::__func<void (*)(geode::ModStateEvent*), std::__ndk1::allocator<void (*)(geode::ModStateEvent*)>, void (geode::ModStateEvent*)>::operator()(geode::ModStateEvent*&&)
PUBLIC 27b44 0 std::__ndk1::__function::__func<void (*)(geode::ModStateEvent*), std::__ndk1::allocator<void (*)(geode::ModStateEvent*)>, void (geode::ModStateEvent*)>::target(std::type_info const&) const
PUBLIC 27b60 0 std::__ndk1::__function::__func<void (*)(geode::ModStateEvent*), std::__ndk1::allocator<void (*)(geode::ModStateEvent*)>, void (geode::ModStateEvent*)>::target_type() const
PUBLIC 27b6c 0 _GLOBAL__sub_I_NinjaSwipeLayer.cpp
PUBLIC 27c84 0 Swipe::create(cocos2d::CCTexture2D*)
PUBLIC 27d48 0 Swipe::update(float)
PUBLIC 27fc4 0 Swipe::draw()
PUBLIC 28c48 0 Swipe::addPoint(cocos2d::CCPoint)
PUBLIC 28e0c 0 Swipe::~Swipe()
PUBLIC 28e4c 0 Swipe::~Swipe()
PUBLIC 28e90 0 std::__ndk1::vector<SwipePoint*, std::__ndk1::allocator<SwipePoint*> >::__throw_length_error[abi:ne190000]() const
PUBLIC 28ea4 0 std::__ndk1::vector<cocos2d::CCPoint, std::__ndk1::allocator<cocos2d::CCPoint> >::__throw_length_error[abi:ne190000]() const
PUBLIC 28eb8 0 SwipePoint::SwipePoint(cocos2d::CCPoint, float)
PUBLIC 28ed8 0 SwipePoint::calculatePointPositions()
PUBLIC 28ff4 0 __cxx_global_var_init
PUBLIC 29464 0 geode::modifier::ModifyBase<geode::modifier::ModifyDerive<HookedCCAnimatedSprite, CCAnimatedSprite> >::~ModifyBase()
PUBLIC 29480 0 geode::modifier::ModifyDerive<HookedCCAnimatedSprite, CCAnimatedSprite>::apply()
PUBLIC 29804 0 geode::modifier::ModifyBase<geode::modifier::ModifyDerive<HookedCCAnimatedSprite, CCAnimatedSprite> >::apply()
PUBLIC 29808 0 geode::modifier::AsStaticFunction_runAnimation<HookedCCAnimatedSprite, void (HookedCCAnimatedSprite::*)(gd::string)>::Impl<void (HookedCCAnimatedSprite::*)(gd::string)>::function(HookedCCAnimatedSprite*, gd::string)
PUBLIC 29ae8 0 fmt::v11::detail::value<fmt::v11::context>::format_custom_arg<gd::string, fmt::v11::formatter<gd::string, char, void> >(void*, fmt::v11::basic_format_parse_context<char>&, fmt::v11::context&)
PUBLIC 29cb8 0 fmt::v11::detail::parse_format_specs<char>(char const*, char const*, fmt::v11::detail::dynamic_format_specs<char>&, fmt::v11::basic_format_parse_context<char>&, fmt::v11::detail::type)
PUBLIC 2a16c 0 fmt::v11::detail::parse_dynamic_spec<char>(char const*, char const*, int&, fmt::v11::detail::arg_ref<char>&, fmt::v11::basic_format_parse_context<char>&)
PUBLIC 2a310 0 fmt::v11::detail::do_parse_arg_id<char, fmt::v11::detail::dynamic_spec_id_handler<char>&>(char const*, char const*, fmt::v11::detail::dynamic_spec_id_handler<char>&)
PUBLIC 2a4a8 0 fmt::v11::detail::handle_dynamic_spec<fmt::v11::detail::width_checker, fmt::v11::context>(int&, fmt::v11::detail::arg_ref<fmt::v11::context::char_type>, fmt::v11::context&)
PUBLIC 2a5bc 0 fmt::v11::detail::handle_dynamic_spec<fmt::v11::detail::precision_checker, fmt::v11::context>(int&, fmt::v11::detail::arg_ref<fmt::v11::context::char_type>, fmt::v11::context&)
PUBLIC 2a6d0 0 fmt::v11::detail::write<char, fmt::v11::basic_appender<char> >(fmt::v11::basic_appender<char>, fmt::v11::basic_string_view<char>, fmt::v11::format_specs const&)
PUBLIC 2a94c 0 fmt::v11::detail::write_escaped_string<char, fmt::v11::detail::counting_iterator>(fmt::v11::detail::counting_iterator, fmt::v11::basic_string_view<char>)
PUBLIC 2ae30 0 fmt::v11::detail::write_padded<char, (fmt::v11::align::type)1, fmt::v11::basic_appender<char>, fmt::v11::detail::write<char, fmt::v11::basic_appender<char> >(fmt::v11::basic_appender<char>, fmt::v11::basic_string_view<char>, fmt::v11::format_specs const&)::{lambda(fmt::v11::basic_appender<char>)#1}>(fmt::v11::basic_appender<char>, fmt::v11::format_specs const&, unsigned long, unsigned long, fmt::v11::detail::write<char, fmt::v11::basic_appender<char> >(fmt::v11::basic_appender<char>, fmt::v11::basic_string_view<char>, fmt::v11::format_specs const&)::{lambda(fmt::v11::basic_appender<char>&&)#1})
PUBLIC 2b03c 0 fmt::v11::detail::for_each_codepoint<fmt::v11::detail::code_point_index(fmt::v11::basic_string_view<char>, unsigned long)::{lambda(unsigned int, fmt::v11::basic_string_view<char>)#1}>(fmt::v11::basic_string_view<char>, fmt::v11::detail::code_point_index(fmt::v11::basic_string_view<char>, unsigned long)::{lambda(unsigned int, fmt::v11::basic_string_view<char>)#1})
PUBLIC 2b430 0 fmt::v11::detail::write_escaped_cp<fmt::v11::detail::counting_iterator, char>(fmt::v11::detail::counting_iterator, fmt::v11::detail::find_escape_result<char> const&)
PUBLIC 2b5c4 0 fmt::v11::detail::for_each_codepoint<fmt::v11::detail::compute_width(fmt::v11::basic_string_view<char>)::count_code_points>(fmt::v11::basic_string_view<char>, fmt::v11::detail::compute_width(fmt::v11::basic_string_view<char>)::count_code_points)::{lambda(char const*, char const*)#1}::operator()(char const*, char const*) const
PUBLIC 2b77c 0 fmt::v11::detail::fill<char, fmt::v11::basic_appender<char> >(fmt::v11::basic_appender<char>, unsigned long, fmt::v11::detail::fill_t const&)
PUBLIC 2b94c 0 fmt::v11::detail::write_escaped_string<char, fmt::v11::basic_appender<char> >(fmt::v11::basic_appender<char>, fmt::v11::basic_string_view<char>)
PUBLIC 2bf94 0 fmt::v11::detail::write_escaped_cp<fmt::v11::basic_appender<char>, char>(fmt::v11::basic_appender<char>, fmt::v11::detail::find_escape_result<char> const&)
PUBLIC 2c178 0 fmt::v11::detail::write_codepoint<(unsigned long)2, char, fmt::v11::basic_appender<char> >(fmt::v11::basic_appender<char>, char, unsigned int)
PUBLIC 2c2f0 0 fmt::v11::detail::write_codepoint<(unsigned long)4, char, fmt::v11::basic_appender<char> >(fmt::v11::basic_appender<char>, char, unsigned int)
PUBLIC 2c468 0 fmt::v11::detail::write_codepoint<(unsigned long)8, char, fmt::v11::basic_appender<char> >(fmt::v11::basic_appender<char>, char, unsigned int)
PUBLIC 2c5e0 0 fmt::v11::detail::get_dynamic_spec<fmt::v11::detail::width_checker, fmt::v11::basic_format_arg<fmt::v11::context> >(fmt::v11::basic_format_arg<fmt::v11::context>)
PUBLIC 2c674 0 fmt::v11::basic_format_args<fmt::v11::context>::get<char>(fmt::v11::basic_string_view<char>) const
PUBLIC 2c7a8 0 fmt::v11::detail::get_dynamic_spec<fmt::v11::detail::precision_checker, fmt::v11::basic_format_arg<fmt::v11::context> >(fmt::v11::basic_format_arg<fmt::v11::context>)
PUBLIC 2c83c 0 __cxx_global_var_init
PUBLIC 2c89c 0 geode::modifier::ModifyBase<geode::modifier::ModifyDerive<HookedMenuGameLayer, MenuGameLayer> >::~ModifyBase()
PUBLIC 2c8b8 0 geode::modifier::ModifyBase<geode::modifier::ModifyDerive<HookedMenuGameLayer, MenuGameLayer> >::ModifyBase()
PUBLIC 2cca4 0 geode::modifier::ModifyDerive<HookedMenuGameLayer, MenuGameLayer>::apply()
PUBLIC 2d0d0 0 geode::modifier::ModifyBase<geode::modifier::ModifyDerive<HookedMenuGameLayer, MenuGameLayer> >::apply()
PUBLIC 2d0d4 0 geode::Hook::create<void (*)(HookedMenuGameLayer*, float)>(void*, void (*)(HookedMenuGameLayer*, float), std::__ndk1::basic_string<char, std::__ndk1::char_traits<char>, std::__ndk1::allocator<char> > const&, tulip::hook::TulipConvention, tulip::hook::HookMetadata const&)
PUBLIC 2d258 0 geode::modifier::AsStaticFunction_update<HookedMenuGameLayer, void (HookedMenuGameLayer::*)(float)>::Impl<void (HookedMenuGameLayer::*)(float)>::function(HookedMenuGameLayer*, float)
PUBLIC 2d2c4 0 geode::Hook::create<bool (*)(HookedMenuGameLayer*)>(void*, bool (*)(HookedMenuGameLayer*), std::__ndk1::basic_string<char, std::__ndk1::char_traits<char>, std::__ndk1::allocator<char> > const&, tulip::hook::TulipConvention, tulip::hook::HookMetadata const&)
PUBLIC 2d3f8 0 geode::modifier::AsStaticFunction_init<HookedMenuGameLayer, bool (HookedMenuGameLayer::*)()>::Impl<bool (HookedMenuGameLayer::*)()>::function(HookedMenuGameLayer*)
PUBLIC 2d458 0 geode::addresser::Addresser::addressOfVirtual<void, MenuGameLayer, float>(void (MenuGameLayer::*)(float))
PUBLIC 2d544 0 MenuGameLayer::MenuGameLayer(geode::ZeroConstructorType)
PUBLIC 2d5dc 0 geode::addresser::Addresser::addressOfVirtual<bool, MenuGameLayer, >(bool (MenuGameLayer::*)())
PUBLIC 2d6c8 0 HookedMenuLayer::init()
PUBLIC 2db10 0 geode::cocos::CCArrayExt<cocos2d::CCNode*, cocos2d::CCNode>::~CCArrayExt()
PUBLIC 2db2c 0 std::__ndk1::array<std::__ndk1::basic_string<char, std::__ndk1::char_traits<char>, std::__ndk1::allocator<char> >, (unsigned long)5>::~array()
PUBLIC 2dbc0 0 HookedMenuLayer::keyDown(cocos2d::enumKeyCodes)
PUBLIC 2dc24 0 HookedMenuLayer::runEnterGameplayAnimations()
PUBLIC 2df78 0 HookedMenuLayer::runExitGameplayAnimations()
PUBLIC 2e078 0 HookedMenuLayer::onModify<geode::modifier::ModifyBase<geode::modifier::ModifyDerive<HookedMenuLayer, MenuLayer> > >(geode::modifier::ModifyBase<geode::modifier::ModifyDerive<HookedMenuLayer, MenuLayer> >&)
PUBLIC 2e1dc 0 geode::modifier::ModifyBase<geode::modifier::ModifyDerive<HookedMenuLayer, MenuLayer> >::setHookPriority(std::__ndk1::basic_string_view<char, std::__ndk1::char_traits<char> >, int)
PUBLIC 2e34c 0 geode::modifier::ModifyBase<geode::modifier::ModifyDerive<HookedMenuLayer, MenuLayer> >::getHook(std::__ndk1::basic_string_view<char, std::__ndk1::char_traits<char> >)
PUBLIC 2e648 0 std::__ndk1::unique_ptr<std::__ndk1::__tree_node<std::__ndk1::__value_type<std::__ndk1::basic_string<char, std::__ndk1::char_traits<char>, std::__ndk1::allocator<char> >, std::__ndk1::shared_ptr<geode::Hook> >, void*>, std::__ndk1::__tree_node_destructor<std::__ndk1::allocator<std::__ndk1::__tree_node<std::__ndk1::__value_type<std::__ndk1::basic_string<char, std::__ndk1::char_traits<char>, std::__ndk1::allocator<char> >, std::__ndk1::shared_ptr<geode::Hook> >, void*> > > >::~unique_ptr[abi:ne190000]()
PUBLIC 2e6c4 0 _ZN5geode15UnwrapExceptionC2IRNSt6__ndk112basic_stringIcNS2_11char_traitsIcEENS2_9allocatorIcEEEEQsr4implE18IsStringStreamableIT_EEENS_4impl6ErrTagEOSA_
PUBLIC 2e82c 0 std::__ndk1::__variant_detail::__visitation::__base::__dispatcher<(unsigned long)0>::__dispatch[abi:ne190000]<std::__ndk1::__variant_detail::__dtor<std::__ndk1::__variant_detail::__traits<std::__ndk1::monostate, std::__ndk1::basic_string<char, std::__ndk1::char_traits<char>, std::__ndk1::allocator<char> > >, (std::__ndk1::__variant_detail::_Trait)1>::__destroy[abi:ne190000]()::{lambda(auto:1&)#1}, std::__ndk1::__variant_detail::__base<(std::__ndk1::__variant_detail::__traits<std::__ndk1::monostate, std::__ndk1::basic_string<char, std::__ndk1::char_traits<char>, std::__ndk1::allocator<char> > >)1, std::__ndk1::__variant_detail::__traits, std::__ndk1::allocator<char> >&>(std::__ndk1::__variant_detail::__dtor<std::__ndk1::__variant_detail::__traits<std::__ndk1::monostate, std::__ndk1::basic_string<char, std::__ndk1::char_traits<char>, std::__ndk1::allocator<char> > >, (std::__ndk1::__variant_detail::_Trait)1>, std::__ndk1::__variant_detail::__base<(std::__ndk1::__variant_detail::__traits<std::__ndk1::monostate, std::__ndk1::basic_string<char, std::__ndk1::char_traits<char>, std::__ndk1::allocator<char> > >)1, std::__ndk1::__variant_detail::__traits, std::__ndk1::allocator<char> >&)
PUBLIC 2e830 0 std::__ndk1::__variant_detail::__visitation::__base::__dispatcher<(unsigned long)1>::__dispatch[abi:ne190000]<std::__ndk1::__variant_detail::__dtor<std::__ndk1::__variant_detail::__traits<std::__ndk1::monostate, std::__ndk1::basic_string<char, std::__ndk1::char_traits<char>, std::__ndk1::allocator<char> > >, (std::__ndk1::__variant_detail::_Trait)1>::__destroy[abi:ne190000]()::{lambda(auto:1&)#1}, std::__ndk1::__variant_detail::__base<(std::__ndk1::__variant_detail::__traits<std::__ndk1::monostate, std::__ndk1::basic_string<char, std::__ndk1::char_traits<char>, std::__ndk1::allocator<char> > >)1, std::__ndk1::__variant_detail::__traits, std::__ndk1::allocator<char> >&>(std::__ndk1::__variant_detail::__dtor<std::__ndk1::__variant_detail::__traits<std::__ndk1::monostate, std::__ndk1::basic_string<char, std::__ndk1::char_traits<char>, std::__ndk1::allocator<char> > >, (std::__ndk1::__variant_detail::_Trait)1>, std::__ndk1::__variant_detail::__base<(std::__ndk1::__variant_detail::__traits<std::__ndk1::monostate, std::__ndk1::basic_string<char, std::__ndk1::char_traits<char>, std::__ndk1::allocator<char> > >)1, std::__ndk1::__variant_detail::__traits, std::__ndk1::allocator<char> >&)
PUBLIC 2e844 0 __cxx_global_var_init
PUBLIC 2ecb4 0 geode::modifier::ModifyBase<geode::modifier::ModifyDerive<HookedPlayerObject, PlayerObject> >::~ModifyBase()
PUBLIC 2ecd0 0 geode::modifier::ModifyDerive<HookedPlayerObject, PlayerObject>::apply()
PUBLIC 2effc 0 geode::modifier::ModifyBase<geode::modifier::ModifyDerive<HookedPlayerObject, PlayerObject> >::apply()
PUBLIC 2f000 0 geode::modifier::AsStaticFunction_updateSwingFire<HookedPlayerObject, void (HookedPlayerObject::*)()>::Impl<void (HookedPlayerObject::*)()>::function(HookedPlayerObject*)
PUBLIC 2f0ec 0 ninja::random::createRandomPlayerObject()
PUBLIC 2f274 0 ninja::random::randomisePlayerObject(PlayerObject*)
PUBLIC 2f6ac 0 known_players::events::NextIconModifyPlayerObject::~NextIconModifyPlayerObject()
PUBLIC 2f6d0 0 _GLOBAL__sub_I_random.cpp
PUBLIC 2f8b8 0 geode::getMod()
PUBLIC m 2f8f4 0 geodeImplicitEntry
PUBLIC 2f930 0 std::__ndk1::unordered_map<void*, bool, std::__ndk1::hash<void*>, std::__ndk1::equal_to<void*>, std::__ndk1::allocator<std::__ndk1::pair<void* const, bool> > >::~unordered_map[abi:ne190000]()
PUBLIC 2f97c 0 wrapFunction(unsigned long, tulip::hook::WrapperMetadata const&)
PUBLIC 2fab0 0 geode::impl::ResultData<void*, std::__ndk1::basic_string<char, std::__ndk1::char_traits<char>, std::__ndk1::allocator<char> > >::unwrapErr() &
PUBLIC 2fb28 0 geode::impl::ResultData<void*, std::__ndk1::basic_string<char, std::__ndk1::char_traits<char>, std::__ndk1::allocator<char> > >::~ResultData()
PUBLIC 2fb9c 0 tulip::hook::WrapperMetadata::~WrapperMetadata()
PUBLIC 2fc00 0 cocos2d::CCObject::~CCObject()
PUBLIC 2fc24 0 cocos2d::CCNode::CCNode()
PUBLIC 2fe80 0 cocos2d::CCNode::~CCNode()
PUBLIC 2fea4 0 cocos2d::CCNodeRGBA::~CCNodeRGBA()
PUBLIC 2fec8 0 cocos2d::CCAction::CCAction()
PUBLIC 300ec 0 cocos2d::CCAction::~CCAction()
PUBLIC 30110 0 cocos2d::CCActionInstant::CCActionInstant()
PUBLIC 3033c 0 cocos2d::CCAction::~CCAction()
PUBLIC 305ac 0 cocos2d::CCLayer::CCLayer()
PUBLIC 30830 0 {virtual override thunk({offset(-320)}, cocos2d::CCLayer::~CCLayer())}
PUBLIC 30838 0 cocos2d::CCLayer::~CCLayer()
PUBLIC 3085c 0 {virtual override thunk({offset(-320)}, cocos2d::CCLayer::~CCLayer())}
PUBLIC 30884 0 cocos2d::CCLayerRGBA::CCLayerRGBA()
PUBLIC 30b10 0 cocos2d::CCLayerRGBA::~CCLayerRGBA()
PUBLIC 30e10 0 {virtual override thunk({offset(-320)}, cocos2d::CCLayerRGBA::~CCLayerRGBA())}
PUBLIC 30e18 0 cocos2d::CCLayerRGBA::~CCLayerRGBA()
PUBLIC 30e3c 0 {virtual override thunk({offset(-320)}, cocos2d::CCLayerRGBA::~CCLayerRGBA())}
PUBLIC 30e64 0 cocos2d::CCLayerColor::CCLayerColor()
PUBLIC 310c8 0 {virtual override thunk({offset(-320)}, cocos2d::CCLayerColor::~CCLayerColor())}
PUBLIC 310d0 0 cocos2d::CCLayerColor::~CCLayerColor()
PUBLIC 310f4 0 {virtual override thunk({offset(-320)}, cocos2d::CCLayerColor::~CCLayerColor())}
PUBLIC 3111c 0 cocos2d::CCSprite::CCSprite()
PUBLIC 3137c 0 cocos2d::CCSprite::~CCSprite()
PUBLIC 313a0 0 cocos2d::CCNodeRGBA::~CCNodeRGBA()
PUBLIC 31658 0 CCAnimatedSprite::runAnimation(gd::string)
PUBLIC 317d0 0 tulip::hook::AbstractFunction::from<void, CCAnimatedSprite*, gd::string>(void (*)(CCAnimatedSprite*, gd::string))
PUBLIC 31870 0 CCMenuItemSpriteExtra::create(cocos2d::CCNode*, cocos2d::CCObject*, void (cocos2d::CCObject::*)(cocos2d::CCObject*))
PUBLIC 31884 0 CCSpriteWithHue::CCSpriteWithHue()
PUBLIC 318c4 0 cocos2d::CCSprite::~CCSprite()
PUBLIC 31b84 0 FMODAudioEngine::playEffect(gd::string, float, float, float)
PUBLIC 31d24 0 tulip::hook::AbstractFunction::from<void, FMODAudioEngine*, gd::string, float, float, float>(void (*)(FMODAudioEngine*, gd::string, float, float, float))
PUBLIC 31e80 0 GameManager::get()
PUBLIC 31e84 0 GameToolbox::particleFromString(gd::string const&, cocos2d::CCParticleSystemQuad*, bool)
PUBLIC 31fe4 0 tulip::hook::AbstractFunction::from<cocos2d::CCParticleSystemQuad*, gd::string const&, cocos2d::CCParticleSystemQuad*, bool>(cocos2d::CCParticleSystemQuad* (*)(gd::string const&, cocos2d::CCParticleSystemQuad*, bool))
PUBLIC 320e0 0 MenuLayer::get()
PUBLIC 320f8 0 cocos2d::CCObject::update(float)
PUBLIC 320fc 0 cocos2d::CCNodeRGBA::setOpacityModifyRGB(bool)
PUBLIC 32100 0 cocos2d::CCNodeRGBA::isOpacityModifyRGB()
PUBLIC 32108 0 {virtual override thunk({offset(-320)}, cocos2d::CCNodeRGBA::setOpacityModifyRGB(bool))}
PUBLIC 3210c 0 {virtual override thunk({offset(-320)}, cocos2d::CCNodeRGBA::isOpacityModifyRGB())}
PUBLIC 32114 0 cocos2d::CCLayerColor::~CCLayerColor()
PUBLIC 323f8 0 cocos2d::CCLayer::~CCLayer()
PUBLIC 326e8 0 cocos2d::CCNode::~CCNode()
PUBLIC 32988 0 cocos2d::CCObject::~CCObject()
PUBLIC 32e7c 0 _ZN5geode15UnwrapExceptionC2IRPvQsr4implE18IsStringStreamableIT_EEENS_4impl5OkTagEOS4_
PUBLIC 32fd0 0 std::__ndk1::__variant_detail::__visitation::__base::__dispatcher<(unsigned long)0>::__dispatch[abi:ne190000]<std::__ndk1::__variant_detail::__dtor<std::__ndk1::__variant_detail::__traits<void*, std::__ndk1::basic_string<char, std::__ndk1::char_traits<char>, std::__ndk1::allocator<char> > >, (std::__ndk1::__variant_detail::_Trait)1>::__destroy[abi:ne190000]()::{lambda(auto:1&)#1}, std::__ndk1::__variant_detail::__base<(std::__ndk1::__variant_detail::__traits<void*, std::__ndk1::basic_string<char, std::__ndk1::char_traits<char>, std::__ndk1::allocator<char> > >)1, std::__ndk1::__variant_detail::__traits, std::__ndk1::allocator<char> >&>(std::__ndk1::__variant_detail::__dtor<std::__ndk1::__variant_detail::__traits<void*, std::__ndk1::basic_string<char, std::__ndk1::char_traits<char>, std::__ndk1::allocator<char> > >, (std::__ndk1::__variant_detail::_Trait)1>, std::__ndk1::__variant_detail::__base<(std::__ndk1::__variant_detail::__traits<void*, std::__ndk1::basic_string<char, std::__ndk1::char_traits<char>, std::__ndk1::allocator<char> > >)1, std::__ndk1::__variant_detail::__traits, std::__ndk1::allocator<char> >&)
PUBLIC 32fd4 0 std::__ndk1::__variant_detail::__visitation::__base::__dispatcher<(unsigned long)1>::__dispatch[abi:ne190000]<std::__ndk1::__variant_detail::__dtor<std::__ndk1::__variant_detail::__traits<void*, std::__ndk1::basic_string<char, std::__ndk1::char_traits<char>, std::__ndk1::allocator<char> > >, (std::__ndk1::__variant_detail::_Trait)1>::__destroy[abi:ne190000]()::{lambda(auto:1&)#1}, std::__ndk1::__variant_detail::__base<(std::__ndk1::__variant_detail::__traits<void*, std::__ndk1::basic_string<char, std::__ndk1::char_traits<char>, std::__ndk1::allocator<char> > >)1, std::__ndk1::__variant_detail::__traits, std::__ndk1::allocator<char> >&>(std::__ndk1::__variant_detail::__dtor<std::__ndk1::__variant_detail::__traits<void*, std::__ndk1::basic_string<char, std::__ndk1::char_traits<char>, std::__ndk1::allocator<char> > >, (std::__ndk1::__variant_detail::_Trait)1>, std::__ndk1::__variant_detail::__base<(std::__ndk1::__variant_detail::__traits<void*, std::__ndk1::basic_string<char, std::__ndk1::char_traits<char>, std::__ndk1::allocator<char> > >)1, std::__ndk1::__variant_detail::__traits, std::__ndk1::allocator<char> >&)
PUBLIC 32fe8 0 std::__ndk1::__hash_table<std::__ndk1::__hash_value_type<void*, bool>, std::__ndk1::__unordered_map_hasher<void*, std::__ndk1::__hash_value_type<void*, bool>, std::__ndk1::hash<void*>, std::__ndk1::equal_to<void*>, true>, std::__ndk1::__unordered_map_equal<void*, std::__ndk1::__hash_value_type<void*, bool>, std::__ndk1::equal_to<void*>, std::__ndk1::hash<void*>, true>, std::__ndk1::allocator<std::__ndk1::__hash_value_type<void*, bool> > >::__emplace_unique_key_args<void*, std::__ndk1::piecewise_construct_t const&, std::__ndk1::tuple<void* const&>, std::__ndk1::tuple<> >(void* const&, std::__ndk1::piecewise_construct_t const&, std::__ndk1::tuple<void* const&>, std::__ndk1::tuple<>)
PUBLIC 334f4 0 __udivti3
PUBLIC 33500 0 __udivmodti4
PUBLIC m 3374c 0 __eqtf2
PUBLIC 337ec 0 __unordtf2
PUBLIC 33824 0 fmt::v11::detail::write_loc(fmt::v11::basic_appender<char>, fmt::v11::loc_value, fmt::v11::format_specs const&, fmt::v11::detail::locale_ref)
PUBLIC 33ab8 0 fmt::v11::format_facet<std::__ndk1::locale>::~format_facet()
PUBLIC 33b34 0 fmt::v11::report_error(char const*)
PUBLIC 33b84 0 fmt::v11::format_error::runtime_error(char const*)
PUBLIC 33bb0 0 fmt::v11::format_facet<std::__ndk1::locale>::do_put(fmt::v11::basic_appender<char>, fmt::v11::loc_value, fmt::v11::format_specs const&) const
PUBLIC 34370 0 fmt::v11::detail::loc_writer<char>::~loc_writer()
PUBLIC 343d4 0 fmt::v11::vformat(fmt::v11::basic_string_view<char>, fmt::v11::basic_format_args<fmt::v11::context>)
PUBLIC 34520 0 fmt::v11::detail::vformat_to<char>(fmt::v11::detail::buffer<char>&, fmt::v11::basic_string_view<char>, fmt::v11::detail::vformat_args<char>::type, fmt::v11::detail::locale_ref)
PUBLIC 34a90 0 fmt::v11::detail::is_printable(unsigned int)
PUBLIC 34cb8 0 fmt::v11::detail::dragonbox::to_decimal<float>(float)
PUBLIC 34f94 0 fmt::v11::detail::dragonbox::to_decimal<double>(double)
PUBLIC 354d0 0 fmt::v11::basic_memory_buffer<char, (unsigned long)500, std::__ndk1::allocator<char> >::grow(fmt::v11::detail::buffer<char>&, unsigned long)
PUBLIC 35548 0 fmt::v11::format_facet<std::__ndk1::locale>::~format_facet()
PUBLIC 355d4 0 fmt::v11::format_error::~format_error()
PUBLIC 355f8 0 fmt::v11::detail::copy_noinline<char, char const*, fmt::v11::basic_appender<char> >(char const*, char const*, fmt::v11::basic_appender<char>)
PUBLIC 35748 0 fmt::v11::detail::default_arg_formatter<char>::operator()<bool>(bool)
PUBLIC 357b0 0 fmt::v11::detail::default_arg_formatter<char>::operator()<char>(char)
PUBLIC 35840 0 fmt::v11::detail::default_arg_formatter<char>::operator()<float>(float)
PUBLIC 3592c 0 fmt::v11::detail::default_arg_formatter<char>::operator()<double>(double)
PUBLIC 35a18 0 fmt::v11::detail::default_arg_formatter<char>::operator()<char const*>(char const*)
PUBLIC 35a60 0 fmt::v11::detail::default_arg_formatter<char>::operator()<void const*>(void const*)
PUBLIC 35af8 0 _ZN3fmt3v116detail5writeIcNS0_14basic_appenderIcEEiTnNSt6__ndk19enable_ifIXaaaasr11is_integralIT1_EE5valuentsr3std7is_sameIS7_bEE5valuentsr3std7is_sameIS7_T_EE5valueEiE4typeELi0EEET0_SB_S7_
PUBLIC 35d58 0 fmt::v11::detail::copy_noinline<char, char*, fmt::v11::basic_appender<char> >(char*, char*, fmt::v11::basic_appender<char>)
PUBLIC 35ea8 0 _ZN3fmt3v116detail5writeIcNS0_14basic_appenderIcEEjTnNSt6__ndk19enable_ifIXaaaasr11is_integralIT1_EE5valuentsr3std7is_sameIS7_bEE5valuentsr3std7is_sameIS7_T_EE5valueEiE4typeELi0EEET0_SB_S7_
PUBLIC 36088 0 _ZN3fmt3v116detail5writeIcNS0_14basic_appenderIcEExTnNSt6__ndk19enable_ifIXaaaasr11is_integralIT1_EE5valuentsr3std7is_sameIS7_bEE5valuentsr3std7is_sameIS7_T_EE5valueEiE4typeELi0EEET0_SB_S7_
PUBLIC 3630c 0 _ZN3fmt3v116detail5writeIcNS0_14basic_appenderIcEEyTnNSt6__ndk19enable_ifIXaaaasr11is_integralIT1_EE5valuentsr3std7is_sameIS7_bEE5valuentsr3std7is_sameIS7_T_EE5valueEiE4typeELi0EEET0_SB_S7_
PUBLIC 36514 0 _ZN3fmt3v116detail5writeIcNS0_14basic_appenderIcEEnTnNSt6__ndk19enable_ifIXaaaasr11is_integralIT1_EE5valuentsr3std7is_sameIS7_bEE5valuentsr3std7is_sameIS7_T_EE5valueEiE4typeELi0EEET0_SB_S7_
PUBLIC 36874 0 _ZN3fmt3v116detail5writeIcNS0_14basic_appenderIcEEoTnNSt6__ndk19enable_ifIXaaaasr11is_integralIT1_EE5valuentsr3std7is_sameIS7_bEE5valuentsr3std7is_sameIS7_T_EE5valueEiE4typeELi0EEET0_SB_S7_
PUBLIC 36b88 0 _ZN3fmt3v116detail5writeIcNS0_14basic_appenderIcEEbTnNSt6__ndk19enable_ifIXsr3std7is_sameIT1_bEE5valueEiE4typeELi0EEET0_SA_S7_RKNS0_12format_specsENS1_10locale_refE
PUBLIC 36e3c 0 fmt::v11::detail::write_int_noinline<char, fmt::v11::basic_appender<char>, unsigned int>(fmt::v11::basic_appender<char>, fmt::v11::detail::write_int_arg<unsigned int>, fmt::v11::format_specs const&, fmt::v11::detail::locale_ref)
PUBLIC 37c08 0 fmt::v11::detail::write_padded<char, (fmt::v11::align::type)1, fmt::v11::basic_appender<char>, fmt::v11::detail::write_char<char, fmt::v11::basic_appender<char> >(fmt::v11::basic_appender<char>, char, fmt::v11::format_specs const&)::{lambda(fmt::v11::basic_appender<char>&)#1}>(fmt::v11::basic_appender<char>, fmt::v11::format_specs const&, unsigned long, unsigned long, fmt::v11::detail::write_char<char, fmt::v11::basic_appender<char> >(fmt::v11::basic_appender<char>, char, fmt::v11::format_specs const&)::{lambda(fmt::v11::basic_appender<char>&)#1})
PUBLIC 37e6c 0 fmt::v11::detail::write_padded<char, (fmt::v11::align::type)1, fmt::v11::basic_appender<char>, fmt::v11::detail::write_nonfinite<char, fmt::v11::basic_appender<char> >(fmt::v11::basic_appender<char>, bool, fmt::v11::format_specs, fmt::v11::sign::type)::{lambda(fmt::v11::basic_appender<char>&)#1}>(fmt::v11::basic_appender<char>, fmt::v11::format_specs const&, unsigned long, unsigned long, fmt::v11::detail::write_nonfinite<char, fmt::v11::basic_appender<char> >(fmt::v11::basic_appender<char>, bool, fmt::v11::format_specs, fmt::v11::sign::type)::{lambda(fmt::v11::basic_appender<char>&)#1})
PUBLIC 380c4 0 fmt::v11::detail::do_write_float<char, fmt::v11::basic_appender<char>, fmt::v11::detail::dragonbox::decimal_fp<float>, fmt::v11::detail::digit_grouping<char> >(fmt::v11::basic_appender<char>, fmt::v11::detail::dragonbox::decimal_fp<float> const&, fmt::v11::format_specs const&, fmt::v11::detail::float_specs, fmt::v11::detail::locale_ref)
PUBLIC 38d48 0 fmt::v11::detail::do_write_float<char, fmt::v11::basic_appender<char>, fmt::v11::detail::dragonbox::decimal_fp<float>, fmt::v11::detail::digit_grouping<char> >(fmt::v11::basic_appender<char>, fmt::v11::detail::dragonbox::decimal_fp<float> const&, fmt::v11::format_specs const&, fmt::v11::detail::float_specs, fmt::v11::detail::locale_ref)::{lambda(fmt::v11::basic_appender<char>(fmt::v11::basic_appender<char>))#1}::operator() const
PUBLIC 38e9c 0 fmt::v11::detail::digit_grouping<char>::digit_grouping(fmt::v11::detail::locale_ref, bool)
PUBLIC 39104 0 fmt::v11::detail::digit_grouping<char>::~digit_grouping()
PUBLIC 39148 0 fmt::v11::detail::write_exponent<char, fmt::v11::basic_appender<char> >(int, fmt::v11::basic_appender<char>)
PUBLIC 39318 0 _ZN3fmt3v116detail17write_significandIcjTnNSt6__ndk19enable_ifIXsr3std11is_integralIT0_EE5valueEiE4typeELi0EEEPT_S9_S5_iiS8_
PUBLIC 39494 0 std::__ndk1::basic_string<char, std::__ndk1::char_traits<char>, std::__ndk1::allocator<char> >::__assign_no_alias<true>(char const*, unsigned long)
PUBLIC 39540 0 std::__ndk1::basic_string<char, std::__ndk1::char_traits<char>, std::__ndk1::allocator<char> >::__assign_no_alias<false>(char const*, unsigned long)
PUBLIC 3967c 0 fmt::v11::detail::digit_grouping<char>::apply<fmt::v11::basic_appender<char>, char>(fmt::v11::basic_appender<char>, fmt::v11::basic_string_view<char>) const
PUBLIC 39a34 0 fmt::v11::basic_memory_buffer<int, (unsigned long)500, std::__ndk1::allocator<int> >::grow(fmt::v11::detail::buffer<int>&, unsigned long)
PUBLIC 39ad4 0 fmt::v11::detail::do_write_float<char, fmt::v11::basic_appender<char>, fmt::v11::detail::dragonbox::decimal_fp<double>, fmt::v11::detail::digit_grouping<char> >(fmt::v11::basic_appender<char>, fmt::v11::detail::dragonbox::decimal_fp<double> const&, fmt::v11::format_specs const&, fmt::v11::detail::float_specs, fmt::v11::detail::locale_ref)
PUBLIC 3a790 0 fmt::v11::detail::do_write_float<char, fmt::v11::basic_appender<char>, fmt::v11::detail::dragonbox::decimal_fp<double>, fmt::v11::detail::digit_grouping<char> >(fmt::v11::basic_appender<char>, fmt::v11::detail::dragonbox::decimal_fp<double> const&, fmt::v11::format_specs const&, fmt::v11::detail::float_specs, fmt::v11::detail::locale_ref)::{lambda(fmt::v11::basic_appender<char>(fmt::v11::basic_appender<char>))#1}::operator() const
PUBLIC 3a8e8 0 _ZN3fmt3v116detail17write_significandIcmTnNSt6__ndk19enable_ifIXsr3std11is_integralIT0_EE5valueEiE4typeELi0EEEPT_S9_S5_iiS8_
PUBLIC 3aa78 0 fmt::v11::detail::write_float<char, fmt::v11::basic_appender<char>, long double>(fmt::v11::basic_appender<char>, long double, fmt::v11::format_specs, fmt::v11::detail::locale_ref)
PUBLIC 3b558 0 fmt::v11::detail::write_padded<char, (fmt::v11::align::type)2, fmt::v11::basic_appender<char>, fmt::v11::detail::write_bytes<char, (fmt::v11::align::type)2, fmt::v11::basic_appender<char> >(fmt::v11::basic_appender<char>, fmt::v11::basic_string_view<char>, fmt::v11::format_specs const&)::{lambda(fmt::v11::basic_appender<char>&)#1}>(fmt::v11::basic_appender<char>, fmt::v11::format_specs const&, unsigned long, unsigned long, fmt::v11::detail::write_bytes<char, (fmt::v11::align::type)2, fmt::v11::basic_appender<char> >(fmt::v11::basic_appender<char>, fmt::v11::basic_string_view<char>, fmt::v11::format_specs const&)::{lambda(fmt::v11::basic_appender<char>&)#1})
PUBLIC 3b74c 0 fmt::v11::detail::format_dragon(fmt::v11::detail::basic_fp<unsigned __int128>, unsigned int, int, fmt::v11::detail::buffer<char>&, int&)
PUBLIC 3cb70 0 fmt::v11::detail::bigint::operator<<=(int)
PUBLIC 3cc94 0 fmt::v11::detail::bigint::assign_pow10(int)
PUBLIC 3d3f0 0 fmt::v11::detail::bigint::divmod_assign(fmt::v11::detail::bigint const&)
PUBLIC 3d714 0 fmt::v11::basic_memory_buffer<unsigned int, (unsigned long)32, std::__ndk1::allocator<unsigned int> >::grow(fmt::v11::detail::buffer<unsigned int>&, unsigned long)
PUBLIC 3d7b4 0 fmt::v11::detail::do_write_float<char, fmt::v11::basic_appender<char>, fmt::v11::detail::big_decimal_fp, fmt::v11::detail::digit_grouping<char> >(fmt::v11::basic_appender<char>, fmt::v11::detail::big_decimal_fp const&, fmt::v11::format_specs const&, fmt::v11::detail::float_specs, fmt::v11::detail::locale_ref)
PUBLIC 3e690 0 fmt::v11::detail::do_write_float<char, fmt::v11::basic_appender<char>, fmt::v11::detail::big_decimal_fp, fmt::v11::detail::digit_grouping<char> >(fmt::v11::basic_appender<char>, fmt::v11::detail::big_decimal_fp const&, fmt::v11::format_specs const&, fmt::v11::detail::float_specs, fmt::v11::detail::locale_ref)::{lambda(fmt::v11::basic_appender<char>(fmt::v11::basic_appender<char>))#1}::operator() const
PUBLIC 3e7f0 0 fmt::v11::detail::write_padded<char, (fmt::v11::align::type)2, fmt::v11::basic_appender<char>, fmt::v11::detail::write_ptr<char, fmt::v11::basic_appender<char>, unsigned long>(fmt::v11::basic_appender<char>, unsigned long, fmt::v11::format_specs const*)::{lambda(fmt::v11::basic_appender<char>&)#1}>(fmt::v11::basic_appender<char>, fmt::v11::format_specs const&, unsigned long, unsigned long, fmt::v11::detail::write_ptr<char, fmt::v11::basic_appender<char>, unsigned long>(fmt::v11::basic_appender<char>, unsigned long, fmt::v11::format_specs const*)::{lambda(fmt::v11::basic_appender<char>&)#1})
PUBLIC 3ea04 0 fmt::v11::detail::parse_replacement_field<char, fmt::v11::detail::vformat_to<char>(fmt::v11::detail::buffer<char>&, fmt::v11::basic_string_view<char>, fmt::v11::detail::vformat_args<char>::type, fmt::v11::detail::locale_ref)::format_handler&>(char const*, char const*, fmt::v11::detail::vformat_to<char>(fmt::v11::detail::buffer<char>&, fmt::v11::basic_string_view<char>, fmt::v11::detail::vformat_args<char>::type, fmt::v11::detail::locale_ref)::format_handler&)
PUBLIC 3fe94 0 fmt::v11::detail::write_int_noinline<char, fmt::v11::basic_appender<char>, unsigned long>(fmt::v11::basic_appender<char>, fmt::v11::detail::write_int_arg<unsigned long>, fmt::v11::format_specs const&, fmt::v11::detail::locale_ref)
PUBLIC 40cec 0 fmt::v11::detail::write_int_noinline<char, fmt::v11::basic_appender<char>, unsigned __int128>(fmt::v11::basic_appender<char>, fmt::v11::detail::write_int_arg<unsigned __int128>, fmt::v11::format_specs const&, fmt::v11::detail::locale_ref)
PUBLIC 41d7c 0 _ZN3fmt3v116detail15format_hexfloatIdTnNSt6__ndk19enable_ifIXntsr16is_double_doubleIT_EE5valueEiE4typeELi0EEEvS5_NS0_12format_specsERNS1_6bufferIcEE
PUBLIC 4229c 0 fmt::v11::detail::format_float<double>(double, int, fmt::v11::detail::float_specs, fmt::v11::detail::buffer<char>&)
PUBLIC 42ce8 0 fmt::v11::detail::write_int<fmt::v11::basic_appender<char>, unsigned long, char>(fmt::v11::basic_appender<char>, unsigned long, unsigned int, fmt::v11::format_specs const&, fmt::v11::detail::digit_grouping<char> const&)
PUBLIC 43264 0 fmt::v11::detail::write_int<fmt::v11::basic_appender<char>, unsigned __int128, char>(fmt::v11::basic_appender<char>, unsigned __int128, unsigned int, fmt::v11::format_specs const&, fmt::v11::detail::digit_grouping<char> const&)
PUBLIC 438e0 0 <.plt ELF section in undefined0.icon_ninja.android64.so>
STACK CFI INIT 1ff40 10 .cfa: sp 0 +
STACK CFI INIT 1ff50 8 .cfa: sp 0 +
STACK CFI INIT 1ff58 8 .cfa: sp 0 +
STACK CFI INIT 1ff60 14 .cfa: sp 0 +
STACK CFI INIT 1ff74 1c .cfa: sp 0 +
STACK CFI INIT 1ff90 10 .cfa: sp 0 +
STACK CFI INIT 1ffa0 30 .cfa: sp 0 +
STACK CFI INIT 1ffd0 98 .cfa: sp 0 +
STACK CFI INIT 20068 2ac .cfa: sp 0 +
STACK CFI INIT 20314 8c .cfa: sp 0 +
STACK CFI INIT 203a0 30 .cfa: sp 0 +
STACK CFI INIT 2046c 120 .cfa: sp 0 +
STACK CFI 20470 .cfa: sp 80 +
STACK CFI 20480 .cfa: x29 32 + x19: .cfa -8 + ^ x20: .cfa -16 + ^ .ra: .cfa -24 + ^ x29: .cfa -32 + ^ v8: .cfa -48 + ^
STACK CFI 204dc .cfa: sp 80 +
STACK CFI 204ec .cfa: sp 0 +
STACK CFI 204f0 .cfa: x29 32 +
STACK CFI 20520 .cfa: sp 80 +
STACK CFI 20530 .cfa: sp 0 +
STACK CFI 20534 .cfa: x29 32 +
STACK CFI INIT 2058c 24 .cfa: sp 0 +
STACK CFI 20590 .cfa: sp 32 +
STACK CFI 20598 .cfa: x29 32 + x19: .cfa -16 + ^ .ra: .cfa -24 + ^ x29: .cfa -32 + ^
STACK CFI 205a4 .cfa: sp 32 +
STACK CFI 205ac .cfa: sp 0 +
STACK CFI INIT 205b0 8 .cfa: sp 0 +
STACK CFI INIT 205b8 104 .cfa: sp 0 +
STACK CFI 205bc .cfa: sp 64 +
STACK CFI 205cc .cfa: x29 64 + x19: .cfa -8 + ^ x20: .cfa -16 + ^ x21: .cfa -24 + ^ x22: .cfa -32 + ^ x23: .cfa -48 + ^ .ra: .cfa -56 + ^ x29: .cfa -64 + ^
STACK CFI 20628 .cfa: sp 64 +
STACK CFI 20638 .cfa: sp 0 +
STACK CFI 2063c .cfa: x29 64 +
STACK CFI 20658 .cfa: sp 64 +
STACK CFI 20668 .cfa: sp 0 +
STACK CFI 2066c .cfa: x29 64 +
STACK CFI 206a8 .cfa: sp 64 +
STACK CFI 206b8 .cfa: sp 0 +
STACK CFI INIT 207e8 10 .cfa: sp 0 +
STACK CFI 207ec .cfa: sp 16 +
STACK CFI 207f0 .cfa: x29 16 + .ra: .cfa -8 + ^ x29: .cfa -16 + ^
STACK CFI INIT 20894 10 .cfa: sp 0 +
STACK CFI INIT 208a4 c .cfa: sp 0 +
STACK CFI INIT 208b0 c .cfa: sp 0 +
STACK CFI INIT 208bc 8 .cfa: sp 0 +
STACK CFI INIT 208c4 24 .cfa: sp 0 +
STACK CFI 208c8 .cfa: sp 32 +
STACK CFI 208d0 .cfa: x29 32 + x19: .cfa -16 + ^ .ra: .cfa -24 + ^ x29: .cfa -32 + ^
STACK CFI 208dc .cfa: sp 32 +
STACK CFI 208e4 .cfa: sp 0 +
STACK CFI INIT 208e8 c .cfa: sp 0 +
STACK CFI INIT 208f4 c .cfa: sp 0 +
STACK CFI INIT 20900 8 .cfa: sp 0 +
STACK CFI INIT 20908 8 .cfa: sp 0 +
STACK CFI INIT 20910 8 .cfa: sp 0 +
STACK CFI INIT 20918 8 .cfa: sp 0 +
STACK CFI INIT 20a1c 7c .cfa: sp 0 +
STACK CFI 20a20 .cfa: sp 64 +
STACK CFI 20a30 .cfa: x29 48 + x19: .cfa -8 + ^ x20: .cfa -16 + ^ x21: .cfa -32 + ^ .ra: .cfa -40 + ^ x29: .cfa -48 + ^
STACK CFI 20a80 .cfa: sp 64 +
STACK CFI 20a90 .cfa: sp 0 +
STACK CFI 20a94 .cfa: x29 48 +
STACK CFI INIT 20a98 2c .cfa: sp 0 +
STACK CFI 20a9c .cfa: sp 32 +
STACK CFI 20aa4 .cfa: x29 32 + x19: .cfa -16 + ^ .ra: .cfa -24 + ^ x29: .cfa -32 + ^
STACK CFI 20ab8 .cfa: sp 32 +
STACK CFI 20ac0 .cfa: sp 0 +
STACK CFI INIT 20ac4 70 .cfa: sp 0 +
STACK CFI 20ac8 .cfa: sp 48 +
STACK CFI 20ad4 .cfa: x29 48 + x19: .cfa -8 + ^ x20: .cfa -16 + ^ x21: .cfa -24 + ^ x22: .cfa -32 + ^ .ra: .cfa -40 + ^ x29: .cfa -48 + ^
STACK CFI 20b24 .cfa: sp 48 +
STACK CFI 20b30 .cfa: sp 0 +
STACK CFI INIT 20b34 98 .cfa: sp 0 +
STACK CFI 20b38 .cfa: sp 304 +
STACK CFI 20b44 .cfa: x29 32 + x19: .cfa -8 + ^ x28: .cfa -16 + ^ .ra: .cfa -24 + ^ x29: .cfa -32 + ^
STACK CFI 20bb8 .cfa: sp 304 +
STACK CFI 20bc4 .cfa: sp 0 +
STACK CFI 20bc8 .cfa: x29 32 +
STACK CFI INIT 20bcc 24 .cfa: sp 0 +
STACK CFI 20bd0 .cfa: sp 32 +
STACK CFI 20bd8 .cfa: x29 32 + x19: .cfa -16 + ^ .ra: .cfa -24 + ^ x29: .cfa -32 + ^
STACK CFI 20be4 .cfa: sp 32 +
STACK CFI 20bec .cfa: sp 0 +
STACK CFI INIT 20bf0 4 .cfa: sp 0 +
STACK CFI INIT 20bf4 8 .cfa: sp 0 +
STACK CFI INIT 20bfc 8 .cfa: sp 0 +
STACK CFI INIT 20c04 28 .cfa: sp 0 +
STACK CFI 20c08 .cfa: sp 32 +
STACK CFI 20c10 .cfa: x29 32 + x19: .cfa -16 + ^ .ra: .cfa -24 + ^ x29: .cfa -32 + ^
STACK CFI 20c20 .cfa: sp 32 +
STACK CFI 20c28 .cfa: sp 0 +
STACK CFI INIT 20c2c 4 .cfa: sp 0 +
STACK CFI INIT 20c30 4 .cfa: sp 0 +
STACK CFI INIT 20c34 4 .cfa: sp 0 +
STACK CFI INIT 20c38 4 .cfa: sp 0 +
STACK CFI INIT 20c3c 4 .cfa: sp 0 +
STACK CFI INIT 20c40 8 .cfa: sp 0 +
STACK CFI INIT 21288 24 .cfa: sp 0 +
STACK CFI INIT 212ac 60 .cfa: sp 0 +
STACK CFI 212bc .cfa: sp 32 +
STACK CFI 212c4 .cfa: x29 32 + x19: .cfa -16 + ^ .ra: .cfa -24 + ^ x29: .cfa -32 + ^
STACK CFI 212fc .cfa: sp 32 +
STACK CFI 21304 .cfa: sp 0 +
STACK CFI INIT 2130c 1c .cfa: sp 0 +
STACK CFI INIT 21328 24 .cfa: sp 0 +
STACK CFI 2132c .cfa: sp 32 +
STACK CFI 21334 .cfa: x29 32 + x19: .cfa -16 + ^ .ra: .cfa -24 + ^ x29: .cfa -32 + ^
STACK CFI 21340 .cfa: sp 32 +
STACK CFI 21348 .cfa: sp 0 +
STACK CFI INIT 2134c 14 .cfa: sp 0 +
STACK CFI 21350 .cfa: sp 16 +
STACK CFI 21354 .cfa: x29 16 + .ra: .cfa -8 + ^ x29: .cfa -16 + ^
STACK CFI INIT 213b0 30 .cfa: sp 0 +
STACK CFI 213b4 .cfa: sp 32 +
STACK CFI 213bc .cfa: x29 32 + x19: .cfa -16 + ^ .ra: .cfa -24 + ^ x29: .cfa -32 + ^
STACK CFI 213d4 .cfa: sp 32 +
STACK CFI 213dc .cfa: sp 0 +
STACK CFI INIT 213e0 34 .cfa: sp 0 +
STACK CFI 213e4 .cfa: sp 32 +
STACK CFI 213ec .cfa: x29 32 + x19: .cfa -16 + ^ .ra: .cfa -24 + ^ x29: .cfa -32 + ^
STACK CFI INIT 218ec 8 .cfa: sp 0 +
STACK CFI INIT 218f4 14 .cfa: sp 0 +
STACK CFI 218f8 .cfa: sp 16 +
STACK CFI 218fc .cfa: x29 16 + .ra: .cfa -8 + ^ x29: .cfa -16 + ^
STACK CFI INIT 21b28 14 .cfa: sp 0 +
STACK CFI 21b2c .cfa: sp 16 +
STACK CFI 21b30 .cfa: x29 16 + .ra: .cfa -8 + ^ x29: .cfa -16 + ^
STACK CFI INIT 21b3c 14 .cfa: sp 0 +
STACK CFI 21b40 .cfa: sp 16 +
STACK CFI 21b44 .cfa: x29 16 + .ra: .cfa -8 + ^ x29: .cfa -16 + ^
STACK CFI INIT 21ba0 30 .cfa: sp 0 +
STACK CFI 21ba4 .cfa: sp 32 +
STACK CFI 21bac .cfa: x29 32 + x19: .cfa -16 + ^ .ra: .cfa -24 + ^ x29: .cfa -32 + ^
STACK CFI 21bc4 .cfa: sp 32 +
STACK CFI 21bcc .cfa: sp 0 +
STACK CFI INIT 21bd0 14 .cfa: sp 0 +
STACK CFI 21bd4 .cfa: sp 16 +
STACK CFI 21bd8 .cfa: x29 16 + .ra: .cfa -8 + ^ x29: .cfa -16 + ^
STACK CFI INIT 21be4 44 .cfa: sp 0 +
STACK CFI 21bec .cfa: sp 32 +
STACK CFI 21bf4 .cfa: x29 32 + x19: .cfa -8 + ^ x20: .cfa -16 + ^ .ra: .cfa -24 + ^ x29: .cfa -32 + ^
STACK CFI 21c18 .cfa: sp 32 +
STACK CFI 21c20 .cfa: sp 0 +
STACK CFI INIT 21c28 4 .cfa: sp 0 +
STACK CFI INIT 21c2c 4 .cfa: sp 0 +
STACK CFI INIT 21c30 38 .cfa: sp 0 +
STACK CFI 21c34 .cfa: sp 32 +
STACK CFI 21c3c .cfa: x29 32 + x19: .cfa -16 + ^ .ra: .cfa -24 + ^ x29: .cfa -32 + ^
STACK CFI 21c5c .cfa: sp 32 +
STACK CFI 21c64 .cfa: sp 0 +
STACK CFI INIT 21c68 18 .cfa: sp 0 +
STACK CFI INIT 21c80 4 .cfa: sp 0 +
STACK CFI INIT 21c84 4 .cfa: sp 0 +
STACK CFI INIT 21c88 10 .cfa: sp 0 +
STACK CFI INIT 21c98 1c .cfa: sp 0 +
STACK CFI INIT 21cb4 c .cfa: sp 0 +
STACK CFI INIT 224d4 50 .cfa: sp 0 +
STACK CFI 224d8 .cfa: sp 32 +
STACK CFI 224e0 .cfa: x29 32 + x19: .cfa -16 + ^ .ra: .cfa -24 + ^ x29: .cfa -32 + ^
STACK CFI 224f8 .cfa: sp 32 +
STACK CFI 22500 .cfa: sp 0 +
STACK CFI 22504 .cfa: x29 32 +
STACK CFI 22518 .cfa: sp 32 +
STACK CFI 22520 .cfa: sp 0 +
STACK CFI INIT 22598 7c .cfa: sp 0 +
STACK CFI 2259c .cfa: sp 48 +
STACK CFI 225a8 .cfa: x29 48 + x19: .cfa -8 + ^ x20: .cfa -16 + ^ x21: .cfa -32 + ^ .ra: .cfa -40 + ^ x29: .cfa -48 + ^
STACK CFI 225f4 .cfa: sp 48 +
STACK CFI 22600 .cfa: sp 0 +
STACK CFI 22604 .cfa: sp 48 +
STACK CFI 22610 .cfa: sp 0 +
STACK CFI INIT 22614 4 .cfa: sp 0 +
STACK CFI INIT 2276c 34 .cfa: sp 0 +
STACK CFI 22770 .cfa: sp 16 +
STACK CFI 22774 .cfa: x29 16 + .ra: .cfa -8 + ^ x29: .cfa -16 + ^
STACK CFI INIT 228d4 80 .cfa: sp 0 +
STACK CFI 228d8 .cfa: sp 48 +
STACK CFI 228e4 .cfa: x29 48 + x19: .cfa -8 + ^ x20: .cfa -16 + ^ x21: .cfa -32 + ^ .ra: .cfa -40 + ^ x29: .cfa -48 + ^
STACK CFI 22944 .cfa: sp 48 +
STACK CFI 22950 .cfa: sp 0 +
STACK CFI INIT 22954 24 .cfa: sp 0 +
STACK CFI 22958 .cfa: sp 32 +
STACK CFI 22960 .cfa: x29 32 + x19: .cfa -16 + ^ .ra: .cfa -24 + ^ x29: .cfa -32 + ^
STACK CFI 2296c .cfa: sp 32 +
STACK CFI 22974 .cfa: sp 0 +
STACK CFI INIT 22e78 148 .cfa: sp 0 +
STACK CFI 22e7c .cfa: sp 48 +
STACK CFI 22e88 .cfa: x29 48 + x19: .cfa -8 + ^ x20: .cfa -16 + ^ x21: .cfa -32 + ^ .ra: .cfa -40 + ^ x29: .cfa -48 + ^
STACK CFI 22fb0 .cfa: sp 48 +
STACK CFI 22fbc .cfa: sp 0 +
STACK CFI INIT 22fc0 88 .cfa: sp 0 +
STACK CFI 22fc8 .cfa: sp 48 +
STACK CFI 22fd4 .cfa: x29 48 + x19: .cfa -8 + ^ x20: .cfa -16 + ^ x21: .cfa -24 + ^ x22: .cfa -32 + ^ .ra: .cfa -40 + ^ x29: .cfa -48 + ^
STACK CFI 23038 .cfa: sp 48 +
STACK CFI 23044 .cfa: sp 0 +
STACK CFI INIT 231f8 94 .cfa: sp 0 +
STACK CFI 231fc .cfa: sp 48 +
STACK CFI 23208 .cfa: x29 48 + x19: .cfa -8 + ^ x20: .cfa -16 + ^ x21: .cfa -24 + ^ x22: .cfa -32 + ^ .ra: .cfa -40 + ^ x29: .cfa -48 + ^
STACK CFI 23220 .cfa: sp 48 +
STACK CFI 2322c .cfa: sp 0 +
STACK CFI 23230 .cfa: x29 48 +
STACK CFI 23274 .cfa: sp 48 +
STACK CFI 23280 .cfa: sp 0 +
STACK CFI 23284 .cfa: x29 48 +
STACK CFI INIT 2328c 68 .cfa: sp 0 +
STACK CFI 23290 .cfa: sp 32 +
STACK CFI 23298 .cfa: x29 32 + x19: .cfa -8 + ^ x20: .cfa -16 + ^ .ra: .cfa -24 + ^ x29: .cfa -32 + ^
STACK CFI 232b0 .cfa: sp 32 +
STACK CFI 232b8 .cfa: sp 0 +
STACK CFI 232bc .cfa: x29 32 +
STACK CFI 232e8 .cfa: sp 32 +
STACK CFI 232f0 .cfa: sp 0 +
STACK CFI INIT 232f4 14 .cfa: sp 0 +
STACK CFI 232f8 .cfa: sp 16 +
STACK CFI 232fc .cfa: x29 16 + .ra: .cfa -8 + ^ x29: .cfa -16 + ^
STACK CFI INIT 23308 4 .cfa: sp 0 +
STACK CFI INIT 2330c 14 .cfa: sp 0 +
STACK CFI INIT 23320 128 .cfa: sp 0 +
STACK CFI 23324 .cfa: sp 64 +
STACK CFI 23334 .cfa: x29 64 + x19: .cfa -8 + ^ x20: .cfa -16 + ^ x21: .cfa -24 + ^ x22: .cfa -32 + ^ x23: .cfa -40 + ^ x24: .cfa -48 + ^ .ra: .cfa -56 + ^ x29: .cfa -64 + ^
STACK CFI 23434 .cfa: sp 64 +
STACK CFI 23444 .cfa: sp 0 +
STACK CFI INIT 23448 d4 .cfa: sp 0 +
STACK CFI 2344c .cfa: sp 48 +
STACK CFI 23458 .cfa: x29 48 + x19: .cfa -8 + ^ x20: .cfa -16 + ^ x21: .cfa -32 + ^ .ra: .cfa -40 + ^ x29: .cfa -48 + ^
STACK CFI 234e8 .cfa: sp 48 +
STACK CFI 234f4 .cfa: sp 0 +
STACK CFI 234f8 .cfa: x29 48 +
STACK CFI INIT 2351c 3c8 .cfa: sp 0 +
STACK CFI INIT 238e4 8c .cfa: sp 0 +
STACK CFI 238ec .cfa: sp 32 +
STACK CFI 238f4 .cfa: x29 32 + x19: .cfa -8 + ^ x20: .cfa -16 + ^ .ra: .cfa -24 + ^ x29: .cfa -32 + ^
STACK CFI 2393c .cfa: sp 32 +
STACK CFI 23944 .cfa: sp 0 +
STACK CFI 2394c .cfa: x29 32 +
STACK CFI INIT 23aa4 4 .cfa: sp 0 +
STACK CFI INIT 23c2c 4 .cfa: sp 0 +
STACK CFI INIT 23d1c 9c .cfa: sp 0 +
STACK CFI INIT 23db8 50 .cfa: sp 0 +
STACK CFI 23dbc .cfa: sp 32 +
STACK CFI 23dc4 .cfa: x29 32 + x19: .cfa -16 + ^ .ra: .cfa -24 + ^ x29: .cfa -32 + ^
STACK CFI 23ddc .cfa: sp 32 +
STACK CFI 23de4 .cfa: sp 0 +
STACK CFI 23de8 .cfa: x29 32 +
STACK CFI 23dfc .cfa: sp 32 +
STACK CFI 23e04 .cfa: sp 0 +
STACK CFI INIT 23e08 64 .cfa: sp 0 +
STACK CFI 23e0c .cfa: sp 32 +
STACK CFI 23e14 .cfa: x29 32 + x19: .cfa -16 + ^ .ra: .cfa -24 + ^ x29: .cfa -32 + ^
STACK CFI 23e40 .cfa: sp 32 +
STACK CFI 23e48 .cfa: sp 0 +
STACK CFI 23e4c .cfa: x29 32 +
STACK CFI 23e60 .cfa: sp 32 +
STACK CFI 23e68 .cfa: sp 0 +
STACK CFI INIT 23e6c 178 .cfa: sp 0 +
STACK CFI 23e70 .cfa: sp 80 +
STACK CFI 23e84 .cfa: x29 80 + x19: .cfa -8 + ^ x20: .cfa -16 + ^ x21: .cfa -24 + ^ x22: .cfa -32 + ^ x23: .cfa -40 + ^ x24: .cfa -48 + ^ x25: .cfa -56 + ^ x26: .cfa -64 + ^ .ra: .cfa -72 + ^ x29: .cfa -80 + ^
STACK CFI 23fcc .cfa: sp 80 +
STACK CFI 23fe0 .cfa: sp 0 +
STACK CFI INIT 23fe4 1a8 .cfa: sp 0 +
STACK CFI INIT 24f9c a0 .cfa: sp 0 +
STACK CFI 24fa0 .cfa: sp 96 +
STACK CFI 24fb4 .cfa: x29 64 + x19: .cfa -8 + ^ x20: .cfa -16 + ^ x21: .cfa -24 + ^ x22: .cfa -32 + ^ x23: .cfa -48 + ^ .ra: .cfa -56 + ^ x29: .cfa -64 + ^
STACK CFI 25020 .cfa: sp 96 +
STACK CFI 25034 .cfa: sp 0 +
STACK CFI 25038 .cfa: x29 64 +
STACK CFI INIT 2503c a0 .cfa: sp 0 +
STACK CFI 25040 .cfa: sp 80 +
STACK CFI 25054 .cfa: x29 64 + x19: .cfa -8 + ^ x20: .cfa -16 + ^ x21: .cfa -24 + ^ x22: .cfa -32 + ^ x23: .cfa -48 + ^ .ra: .cfa -56 + ^ x29: .cfa -64 + ^
STACK CFI 250c0 .cfa: sp 80 +
STACK CFI 250d4 .cfa: sp 0 +
STACK CFI 250d8 .cfa: x29 64 +
STACK CFI INIT 250dc e0 .cfa: sp 0 +
STACK CFI 250e0 .cfa: sp 80 +
STACK CFI 250f0 .cfa: x29 48 + x19: .cfa -8 + ^ x20: .cfa -16 + ^ x21: .cfa -24 + ^ x22: .cfa -32 + ^ .ra: .cfa -40 + ^ x29: .cfa -48 + ^
STACK CFI 251a4 .cfa: sp 80 +
STACK CFI 251b4 .cfa: sp 0 +
STACK CFI 251b8 .cfa: x29 48 +
STACK CFI INIT 25b64 8 .cfa: sp 0 +
STACK CFI INIT 25b6c 98 .cfa: sp 0 +
STACK CFI 25b70 .cfa: sp 80 +
STACK CFI 25b80 .cfa: x29 48 + x19: .cfa -8 + ^ x20: .cfa -16 + ^ x21: .cfa -32 + ^ .ra: .cfa -40 + ^ x29: .cfa -48 + ^
STACK CFI 25bec .cfa: sp 80 +
STACK CFI 25bfc .cfa: sp 0 +
STACK CFI 25c00 .cfa: x29 48 +
STACK CFI INIT 25c04 9c .cfa: sp 0 +
STACK CFI 25c08 .cfa: sp 64 +
STACK CFI 25c18 .cfa: x29 48 + x19: .cfa -8 + ^ x20: .cfa -16 + ^ x21: .cfa -24 + ^ x22: .cfa -32 + ^ .ra: .cfa -40 + ^ x29: .cfa -48 + ^
STACK CFI 25c88 .cfa: sp 64 +
STACK CFI 25c98 .cfa: sp 0 +
STACK CFI 25c9c .cfa: x29 48 +
STACK CFI INIT 2663c b4 .cfa: sp 0 +
STACK CFI 26640 .cfa: sp 64 +
STACK CFI 2664c .cfa: x29 32 + x19: .cfa -8 + ^ x20: .cfa -16 + ^ .ra: .cfa -24 + ^ x29: .cfa -32 + ^
STACK CFI 26688 .cfa: sp 64 +
STACK CFI 26694 .cfa: sp 0 +
STACK CFI 26698 .cfa: x29 32 +
STACK CFI INIT 266f0 60 .cfa: sp 0 +
STACK CFI 26728 .cfa: sp 32 +
STACK CFI 26730 .cfa: x29 32 + x19: .cfa -16 + ^ .ra: .cfa -24 + ^ x29: .cfa -32 + ^
STACK CFI 26744 .cfa: sp 32 +
STACK CFI 2674c .cfa: sp 0 +
STACK CFI INIT 26750 64 .cfa: sp 0 +
STACK CFI 26754 .cfa: sp 32 +
STACK CFI 2675c .cfa: x29 32 + x19: .cfa -16 + ^ .ra: .cfa -24 + ^ x29: .cfa -32 + ^
STACK CFI 267a8 .cfa: sp 32 +
STACK CFI 267b0 .cfa: sp 0 +
STACK CFI INIT 267b4 60 .cfa: sp 0 +
STACK CFI 267b8 .cfa: sp 32 +
STACK CFI 267c0 .cfa: x29 32 + x19: .cfa -16 + ^ .ra: .cfa -24 + ^ x29: .cfa -32 + ^
STACK CFI 26808 .cfa: sp 32 +
STACK CFI 26810 .cfa: sp 0 +
STACK CFI INIT 26814 68 .cfa: sp 0 +
STACK CFI 26818 .cfa: sp 32 +
STACK CFI 26820 .cfa: x29 32 + x19: .cfa -16 + ^ .ra: .cfa -24 + ^ x29: .cfa -32 + ^
STACK CFI 26870 .cfa: sp 32 +
STACK CFI 26878 .cfa: sp 0 +
STACK CFI INIT 2687c 14 .cfa: sp 0 +
STACK CFI 26880 .cfa: sp 16 +
STACK CFI 26884 .cfa: x29 16 + .ra: .cfa -8 + ^ x29: .cfa -16 + ^
STACK CFI INIT 26890 24 .cfa: sp 0 +
STACK CFI 26894 .cfa: sp 32 +
STACK CFI 2689c .cfa: x29 32 + x19: .cfa -16 + ^ .ra: .cfa -24 + ^ x29: .cfa -32 + ^
STACK CFI 268a8 .cfa: sp 32 +
STACK CFI 268b0 .cfa: sp 0 +
STACK CFI INIT 268b4 2a0 .cfa: sp 0 +
STACK CFI 268b8 .cfa: sp 96 +
STACK CFI 268cc .cfa: x29 64 + x19: .cfa -8 + ^ x20: .cfa -16 + ^ x21: .cfa -24 + ^ x22: .cfa -32 + ^ x23: .cfa -48 + ^ .ra: .cfa -56 + ^ x29: .cfa -64 + ^
STACK CFI 26b14 .cfa: sp 96 +
STACK CFI 26b28 .cfa: sp 0 +
STACK CFI 26b2c .cfa: x29 64 +
STACK CFI INIT 26b54 24 .cfa: sp 0 +
STACK CFI 26b58 .cfa: sp 32 +
STACK CFI 26b60 .cfa: x29 32 + x19: .cfa -16 + ^ .ra: .cfa -24 + ^ x29: .cfa -32 + ^
STACK CFI 26b6c .cfa: sp 32 +
STACK CFI 26b74 .cfa: sp 0 +
STACK CFI INIT 27240 24 .cfa: sp 0 +
STACK CFI 27244 .cfa: sp 32 +
STACK CFI 2724c .cfa: x29 32 + x19: .cfa -16 + ^ .ra: .cfa -24 + ^ x29: .cfa -32 + ^
STACK CFI 27258 .cfa: sp 32 +
STACK CFI 27260 .cfa: sp 0 +
STACK CFI INIT 27264 f8 .cfa: sp 0 +
STACK CFI 27268 .cfa: sp 80 +
STACK CFI 2727c .cfa: x29 80 + x19: .cfa -8 + ^ x20: .cfa -16 + ^ x21: .cfa -24 + ^ x22: .cfa -32 + ^ x23: .cfa -40 + ^ x24: .cfa -48 + ^ x25: .cfa -64 + ^ .ra: .cfa -72 + ^ x29: .cfa -80 + ^
STACK CFI 2733c .cfa: sp 80 +
STACK CFI 27350 .cfa: sp 0 +
STACK CFI 27354 .cfa: x29 80 +
STACK CFI INIT 2735c 24 .cfa: sp 0 +
STACK CFI 27360 .cfa: sp 32 +
STACK CFI 27368 .cfa: x29 32 + x19: .cfa -16 + ^ .ra: .cfa -24 + ^ x29: .cfa -32 + ^
STACK CFI 27374 .cfa: sp 32 +
STACK CFI 2737c .cfa: sp 0 +
STACK CFI INIT 27380 c .cfa: sp 0 +
STACK CFI INIT 27508 4 .cfa: sp 0 +
STACK CFI INIT 2750c 14 .cfa: sp 0 +
STACK CFI INIT 27520 4 .cfa: sp 0 +
STACK CFI INIT 27524 14 .cfa: sp 0 +
STACK CFI INIT 27538 4 .cfa: sp 0 +
STACK CFI INIT 2753c 14 .cfa: sp 0 +
STACK CFI INIT 27550 154 .cfa: sp 0 +
STACK CFI 27554 .cfa: sp 128 +
STACK CFI 27564 .cfa: x29 48 + x19: .cfa -8 + ^ x20: .cfa -16 + ^ x21: .cfa -32 + ^ .ra: .cfa -40 + ^ x29: .cfa -48 + ^
STACK CFI 27638 .cfa: sp 128 +
STACK CFI 27648 .cfa: sp 0 +
STACK CFI 2764c .cfa: x29 48 +
STACK CFI INIT 276a4 200 .cfa: sp 0 +
STACK CFI INIT 278a4 4 .cfa: sp 0 +
STACK CFI INIT 27a1c 5c .cfa: sp 0 +
STACK CFI 27a20 .cfa: sp 32 +
STACK CFI 27a28 .cfa: x29 32 + x19: .cfa -16 + ^ .ra: .cfa -24 + ^ x29: .cfa -32 + ^
STACK CFI 27a6c .cfa: sp 32 +
STACK CFI 27a74 .cfa: sp 0 +
STACK CFI INIT 27a78 64 .cfa: sp 0 +
STACK CFI 27a7c .cfa: sp 32 +
STACK CFI 27a84 .cfa: x29 32 + x19: .cfa -16 + ^ .ra: .cfa -24 + ^ x29: .cfa -32 + ^
STACK CFI 27ad0 .cfa: sp 32 +
STACK CFI 27ad8 .cfa: sp 0 +
STACK CFI INIT 27adc 4 .cfa: sp 0 +
STACK CFI INIT 27ae0 4 .cfa: sp 0 +
STACK CFI INIT 27ae4 34 .cfa: sp 0 +
STACK CFI 27ae8 .cfa: sp 32 +
STACK CFI 27af0 .cfa: x29 32 + x19: .cfa -16 + ^ .ra: .cfa -24 + ^ x29: .cfa -32 + ^
STACK CFI 27b0c .cfa: sp 32 +
STACK CFI 27b14 .cfa: sp 0 +
STACK CFI INIT 27b18 14 .cfa: sp 0 +
STACK CFI INIT 27b2c 4 .cfa: sp 0 +
STACK CFI INIT 27b30 4 .cfa: sp 0 +
STACK CFI INIT 27b34 10 .cfa: sp 0 +
STACK CFI INIT 27b44 1c .cfa: sp 0 +
STACK CFI INIT 27b60 c .cfa: sp 0 +
STACK CFI INIT 28c48 1c4 .cfa: sp 0 +
STACK CFI 28c4c .cfa: sp 128 +
STACK CFI 28c6c .cfa: x29 88 + x19: .cfa -8 + ^ x20: .cfa -16 + ^ x21: .cfa -24 + ^ x22: .cfa -32 + ^ x23: .cfa -40 + ^ x24: .cfa -48 + ^ x25: .cfa -56 + ^ x26: .cfa -64 + ^ x27: .cfa -72 + ^ .ra: .cfa -80 + ^ x29: .cfa -88 + ^ v8: .cfa -96 + ^
STACK CFI 28db8 .cfa: sp 128 +
STACK CFI 28dd8 .cfa: sp 0 +
STACK CFI 28ddc .cfa: x29 88 +
STACK CFI INIT 28e0c 40 .cfa: sp 0 +
STACK CFI 28e24 .cfa: sp 32 +
STACK CFI 28e2c .cfa: x29 32 + x19: .cfa -16 + ^ .ra: .cfa -24 + ^ x29: .cfa -32 + ^
STACK CFI 28e40 .cfa: sp 32 +
STACK CFI 28e48 .cfa: sp 0 +
STACK CFI INIT 28e4c 44 .cfa: sp 0 +
STACK CFI 28e50 .cfa: sp 32 +
STACK CFI 28e58 .cfa: x29 32 + x19: .cfa -16 + ^ .ra: .cfa -24 + ^ x29: .cfa -32 + ^
STACK CFI 28e84 .cfa: sp 32 +
STACK CFI 28e8c .cfa: sp 0 +
STACK CFI INIT 28e90 14 .cfa: sp 0 +
STACK CFI 28e94 .cfa: sp 16 +
STACK CFI 28e98 .cfa: x29 16 + .ra: .cfa -8 + ^ x29: .cfa -16 + ^
STACK CFI INIT 28ea4 14 .cfa: sp 0 +
STACK CFI 28ea8 .cfa: sp 16 +
STACK CFI 28eac .cfa: x29 16 + .ra: .cfa -8 + ^ x29: .cfa -16 + ^
STACK CFI INIT 28eb8 20 .cfa: sp 0 +
STACK CFI INIT 28ed8 11c .cfa: sp 0 +
STACK CFI 28edc .cfa: sp 96 +
STACK CFI 28ef4 .cfa: x29 32 + x19: .cfa -8 + ^ x20: .cfa -16 + ^ .ra: .cfa -24 + ^ x29: .cfa -32 + ^ v8: .cfa -40 + ^ v9: .cfa -48 + ^ v10: .cfa -56 + ^ v11: .cfa -64 + ^ v12: .cfa -72 + ^ v13: .cfa -80 + ^
STACK CFI 28fd8 .cfa: sp 96 +
STACK CFI 28ff0 .cfa: sp 0 +
STACK CFI INIT 29464 1c .cfa: sp 0 +
STACK CFI INIT 29804 4 .cfa: sp 0 +
STACK CFI INIT 29cb8 4b4 .cfa: sp 0 +
STACK CFI 29cbc .cfa: sp 96 +
STACK CFI 29cd4 .cfa: x29 96 + x19: .cfa -8 + ^ x20: .cfa -16 + ^ x21: .cfa -24 + ^ x22: .cfa -32 + ^ x23: .cfa -40 + ^ x24: .cfa -48 + ^ x25: .cfa -56 + ^ x26: .cfa -64 + ^ x27: .cfa -72 + ^ x28: .cfa -80 + ^ .ra: .cfa -88 + ^ x29: .cfa -96 + ^
STACK CFI 2a11c .cfa: sp 96 +
STACK CFI 2a134 .cfa: sp 0 +
STACK CFI 2a138 .cfa: x29 96 +
STACK CFI INIT 2a16c 1a4 .cfa: sp 0 +
STACK CFI 2a170 .cfa: sp 64 +
STACK CFI 2a17c .cfa: x29 32 + x19: .cfa -8 + ^ x20: .cfa -16 + ^ .ra: .cfa -24 + ^ x29: .cfa -32 + ^
STACK CFI 2a2a8 .cfa: sp 64 +
STACK CFI 2a2b4 .cfa: sp 0 +
STACK CFI 2a2b8 .cfa: x29 32 +
STACK CFI INIT 2a310 198 .cfa: sp 0 +
STACK CFI 2a314 .cfa: sp 16 +
STACK CFI 2a318 .cfa: x29 16 + .ra: .cfa -8 + ^ x29: .cfa -16 + ^
STACK CFI 2a3b4 .cfa: sp 16 +
STACK CFI 2a3b8 .cfa: sp 0 +
STACK CFI 2a3bc .cfa: x29 16 +
STACK CFI 2a488 .cfa: sp 16 +
STACK CFI 2a48c .cfa: sp 0 +
STACK CFI 2a490 .cfa: x29 16 +
STACK CFI INIT 2a4a8 114 .cfa: sp 0 +
STACK CFI 2a4ac .cfa: sp 128 +
STACK CFI 2a4bc .cfa: x29 48 + x19: .cfa -8 + ^ x20: .cfa -16 + ^ x21: .cfa -32 + ^ .ra: .cfa -40 + ^ x29: .cfa -48 + ^
STACK CFI 2a588 .cfa: sp 128 +
STACK CFI 2a598 .cfa: sp 0 +
STACK CFI 2a59c .cfa: x29 48 +
STACK CFI INIT 2a5bc 114 .cfa: sp 0 +
STACK CFI 2a5c0 .cfa: sp 128 +
STACK CFI 2a5d0 .cfa: x29 48 + x19: .cfa -8 + ^ x20: .cfa -16 + ^ x21: .cfa -32 + ^ .ra: .cfa -40 + ^ x29: .cfa -48 + ^
STACK CFI 2a69c .cfa: sp 128 +
STACK CFI 2a6ac .cfa: sp 0 +
STACK CFI 2a6b0 .cfa: x29 48 +
STACK CFI INIT 2a6d0 27c .cfa: sp 0 +
STACK CFI 2a6d4 .cfa: sp 176 +
STACK CFI 2a6f0 .cfa: x29 96 + x19: .cfa -8 + ^ x20: .cfa -16 + ^ x21: .cfa -24 + ^ x22: .cfa -32 + ^ x23: .cfa -40 + ^ x24: .cfa -48 + ^ x25: .cfa -56 + ^ x26: .cfa -64 + ^ x27: .cfa -72 + ^ x28: .cfa -80 + ^ .ra: .cfa -88 + ^ x29: .cfa -96 + ^
STACK CFI 2a928 .cfa: sp 176 +
STACK CFI 2a944 .cfa: sp 0 +
STACK CFI 2a948 .cfa: x29 96 +
STACK CFI INIT 2a94c 4e4 .cfa: sp 0 +
STACK CFI 2a950 .cfa: sp 160 +
STACK CFI 2a96c .cfa: x29 96 + x19: .cfa -8 + ^ x20: .cfa -16 + ^ x21: .cfa -24 + ^ x22: .cfa -32 + ^ x23: .cfa -40 + ^ x24: .cfa -48 + ^ x25: .cfa -56 + ^ x26: .cfa -64 + ^ x27: .cfa -72 + ^ x28: .cfa -80 + ^ .ra: .cfa -88 + ^ x29: .cfa -96 + ^
STACK CFI 2ae0c .cfa: sp 160 +
STACK CFI 2ae28 .cfa: sp 0 +
STACK CFI 2ae2c .cfa: x29 96 +
STACK CFI INIT 2ae30 20c .cfa: sp 0 +
STACK CFI 2ae34 .cfa: sp 80 +
STACK CFI 2ae48 .cfa: x29 80 + x19: .cfa -8 + ^ x20: .cfa -16 + ^ x21: .cfa -24 + ^ x22: .cfa -32 + ^ x23: .cfa -40 + ^ x24: .cfa -48 + ^ x25: .cfa -64 + ^ .ra: .cfa -72 + ^ x29: .cfa -80 + ^
STACK CFI 2aed8 .cfa: sp 80 +
STACK CFI 2aeec .cfa: sp 0 +
STACK CFI 2aef0 .cfa: x29 80 +
STACK CFI 2aefc .cfa: sp 80 +
STACK CFI 2af10 .cfa: sp 0 +
STACK CFI 2af14 .cfa: x29 80 +
STACK CFI INIT 2b03c 3f4 .cfa: sp 0 +
STACK CFI 2b040 .cfa: sp 128 +
STACK CFI 2b05c .cfa: x29 96 + x19: .cfa -8 + ^ x20: .cfa -16 + ^ x21: .cfa -24 + ^ x22: .cfa -32 + ^ x23: .cfa -40 + ^ x24: .cfa -48 + ^ x25: .cfa -56 + ^ x26: .cfa -64 + ^ x27: .cfa -72 + ^ x28: .cfa -80 + ^ .ra: .cfa -88 + ^ x29: .cfa -96 + ^
STACK CFI 2b40c .cfa: sp 128 +
STACK CFI 2b428 .cfa: sp 0 +
STACK CFI 2b42c .cfa: x29 96 +
STACK CFI INIT 2b430 194 .cfa: sp 0 +
STACK CFI 2b434 .cfa: sp 32 +
STACK CFI 2b43c .cfa: x29 16 + .ra: .cfa -8 + ^ x29: .cfa -16 + ^
STACK CFI 2b480 .cfa: sp 32 +
STACK CFI 2b488 .cfa: sp 0 +
STACK CFI 2b48c .cfa: x29 16 +
STACK CFI INIT 2b5c4 1b8 .cfa: sp 0 +
STACK CFI INIT 2b77c 1d0 .cfa: sp 0 +
STACK CFI 2b780 .cfa: sp 80 +
STACK CFI 2b794 .cfa: x29 80 + x19: .cfa -8 + ^ x20: .cfa -16 + ^ x21: .cfa -24 + ^ x22: .cfa -32 + ^ x23: .cfa -40 + ^ x24: .cfa -48 + ^ x25: .cfa -64 + ^ .ra: .cfa -72 + ^ x29: .cfa -80 + ^
STACK CFI 2b934 .cfa: sp 80 +
STACK CFI 2b948 .cfa: sp 0 +
STACK CFI INIT 2b94c 648 .cfa: sp 0 +
STACK CFI 2b950 .cfa: sp 160 +
STACK CFI 2b96c .cfa: x29 96 + x19: .cfa -8 + ^ x20: .cfa -16 + ^ x21: .cfa -24 + ^ x22: .cfa -32 + ^ x23: .cfa -40 + ^ x24: .cfa -48 + ^ x25: .cfa -56 + ^ x26: .cfa -64 + ^ x27: .cfa -72 + ^ x28: .cfa -80 + ^ .ra: .cfa -88 + ^ x29: .cfa -96 + ^
STACK CFI 2bf70 .cfa: sp 160 +
STACK CFI 2bf8c .cfa: sp 0 +
STACK CFI 2bf90 .cfa: x29 96 +
STACK CFI INIT 2bf94 1e4 .cfa: sp 0 +
STACK CFI 2bf98 .cfa: sp 32 +
STACK CFI 2bfa0 .cfa: x29 32 + x19: .cfa -8 + ^ x20: .cfa -16 + ^ .ra: .cfa -24 + ^ x29: .cfa -32 + ^
STACK CFI 2c090 .cfa: sp 32 +
STACK CFI 2c098 .cfa: sp 0 +
STACK CFI 2c09c .cfa: x29 32 +
STACK CFI 2c110 .cfa: sp 32 +
STACK CFI 2c118 .cfa: sp 0 +
STACK CFI 2c11c .cfa: x29 32 +
STACK CFI 2c12c .cfa: sp 32 +
STACK CFI 2c134 .cfa: sp 0 +
STACK CFI 2c138 .cfa: x29 32 +
STACK CFI 2c148 .cfa: sp 32 +
STACK CFI 2c150 .cfa: sp 0 +
STACK CFI 2c154 .cfa: x29 32 +
STACK CFI INIT 2c178 178 .cfa: sp 0 +
STACK CFI 2c17c .cfa: sp 80 +
STACK CFI 2c190 .cfa: x29 64 + x19: .cfa -8 + ^ x20: .cfa -16 + ^ x21: .cfa -24 + ^ x22: .cfa -32 + ^ x23: .cfa -40 + ^ x24: .cfa -48 + ^ .ra: .cfa -56 + ^ x29: .cfa -64 + ^
STACK CFI 2c2d4 .cfa: sp 80 +
STACK CFI 2c2e8 .cfa: sp 0 +
STACK CFI 2c2ec .cfa: x29 64 +
STACK CFI INIT 2c2f0 178 .cfa: sp 0 +
STACK CFI 2c2f4 .cfa: sp 80 +
STACK CFI 2c308 .cfa: x29 64 + x19: .cfa -8 + ^ x20: .cfa -16 + ^ x21: .cfa -24 + ^ x22: .cfa -32 + ^ x23: .cfa -40 + ^ x24: .cfa -48 + ^ .ra: .cfa -56 + ^ x29: .cfa -64 + ^
STACK CFI 2c44c .cfa: sp 80 +
STACK CFI 2c460 .cfa: sp 0 +
STACK CFI 2c464 .cfa: x29 64 +
STACK CFI INIT 2c468 178 .cfa: sp 0 +
STACK CFI 2c46c .cfa: sp 80 +
STACK CFI 2c480 .cfa: x29 64 + x19: .cfa -8 + ^ x20: .cfa -16 + ^ x21: .cfa -24 + ^ x22: .cfa -32 + ^ x23: .cfa -40 + ^ x24: .cfa -48 + ^ .ra: .cfa -56 + ^ x29: .cfa -64 + ^
STACK CFI 2c5c4 .cfa: sp 80 +
STACK CFI 2c5d8 .cfa: sp 0 +
STACK CFI 2c5dc .cfa: x29 64 +
STACK CFI INIT 2c5e0 94 .cfa: sp 0 +
STACK CFI 2c5e4 .cfa: sp 16 +
STACK CFI 2c5e8 .cfa: x29 16 + .ra: .cfa -8 + ^ x29: .cfa -16 + ^
STACK CFI 2c63c .cfa: sp 16 +
STACK CFI 2c640 .cfa: sp 0 +
STACK CFI 2c644 .cfa: x29 16 +
STACK CFI INIT 2c674 134 .cfa: sp 0 +
STACK CFI 2c678 .cfa: sp 96 +
STACK CFI 2c690 .cfa: x29 96 + x19: .cfa -8 + ^ x20: .cfa -16 + ^ x21: .cfa -24 + ^ x22: .cfa -32 + ^ x23: .cfa -40 + ^ x24: .cfa -48 + ^ x25: .cfa -56 + ^ x26: .cfa -64 + ^ x27: .cfa -72 + ^ x28: .cfa -80 + ^ .ra: .cfa -88 + ^ x29: .cfa -96 + ^
STACK CFI 2c760 .cfa: sp 96 +
STACK CFI 2c764 .cfa: x29 96 +
STACK CFI 2c768 .cfa: sp 96 +
STACK CFI 2c780 .cfa: sp 0 +
STACK CFI 2c784 .cfa: x29 96 +
STACK CFI 2c7a4 .cfa: sp 96 +
STACK CFI INIT 2c7a8 94 .cfa: sp 0 +
STACK CFI 2c7ac .cfa: sp 16 +
STACK CFI 2c7b0 .cfa: x29 16 + .ra: .cfa -8 + ^ x29: .cfa -16 + ^
STACK CFI 2c804 .cfa: sp 16 +
STACK CFI 2c808 .cfa: sp 0 +
STACK CFI 2c80c .cfa: x29 16 +
STACK CFI INIT 2c83c 60 .cfa: sp 0 +
STACK CFI 2c84c .cfa: sp 32 +
STACK CFI 2c854 .cfa: x29 32 + x19: .cfa -16 + ^ .ra: .cfa -24 + ^ x29: .cfa -32 + ^
STACK CFI 2c88c .cfa: sp 32 +
STACK CFI 2c894 .cfa: sp 0 +
STACK CFI INIT 2c89c 1c .cfa: sp 0 +
STACK CFI INIT 2d0d0 4 .cfa: sp 0 +
STACK CFI INIT 2d258 6c .cfa: sp 0 +
STACK CFI 2d25c .cfa: sp 48 +
STACK CFI 2d268 .cfa: x29 32 + x19: .cfa -8 + ^ x20: .cfa -16 + ^ .ra: .cfa -24 + ^ x29: .cfa -32 + ^
STACK CFI 2d2b0 .cfa: sp 48 +
STACK CFI 2d2bc .cfa: sp 0 +
STACK CFI 2d2c0 .cfa: x29 32 +
STACK CFI INIT 2d3f8 60 .cfa: sp 0 +
STACK CFI 2d3fc .cfa: sp 32 +
STACK CFI 2d404 .cfa: x29 32 + x19: .cfa -8 + ^ x20: .cfa -16 + ^ .ra: .cfa -24 + ^ x29: .cfa -32 + ^
STACK CFI 2d44c .cfa: sp 32 +
STACK CFI 2d454 .cfa: sp 0 +
STACK CFI INIT 2d544 98 .cfa: sp 0 +
STACK CFI INIT 2db2c 94 .cfa: sp 0 +
STACK CFI 2db30 .cfa: sp 32 +
STACK CFI 2db38 .cfa: x29 32 + x19: .cfa -16 + ^ .ra: .cfa -24 + ^ x29: .cfa -32 + ^
STACK CFI 2db64 .cfa: sp 32 +
STACK CFI 2db6c .cfa: sp 0 +
STACK CFI 2db70 .cfa: x29 32 +
STACK CFI 2dbb4 .cfa: sp 32 +
STACK CFI 2dbbc .cfa: sp 0 +
STACK CFI INIT 2dbc0 64 .cfa: sp 0 +
STACK CFI 2dbc4 .cfa: sp 32 +
STACK CFI 2dbcc .cfa: x29 32 + x19: .cfa -8 + ^ x20: .cfa -16 + ^ .ra: .cfa -24 + ^ x29: .cfa -32 + ^
STACK CFI 2dbf8 .cfa: sp 32 +
STACK CFI 2dc00 .cfa: sp 0 +
STACK CFI 2dc04 .cfa: x29 32 +
STACK CFI 2dc0c .cfa: sp 32 +
STACK CFI 2dc14 .cfa: sp 0 +
STACK CFI 2dc18 .cfa: sp 32 +
STACK CFI 2dc20 .cfa: sp 0 +
STACK CFI INIT 2df78 100 .cfa: sp 0 +
STACK CFI 2df7c .cfa: sp 80 +
STACK CFI 2df94 .cfa: x29 56 + x19: .cfa -8 + ^ x20: .cfa -16 + ^ x21: .cfa -24 + ^ x22: .cfa -32 + ^ x23: .cfa -40 + ^ .ra: .cfa -48 + ^ x29: .cfa -56 + ^ v8: .cfa -64 + ^
STACK CFI 2e058 .cfa: sp 80 +
STACK CFI 2e070 .cfa: sp 0 +
STACK CFI 2e074 .cfa: x29 56 +
STACK CFI INIT 2e648 7c .cfa: sp 0 +
STACK CFI 2e64c .cfa: sp 32 +
STACK CFI 2e654 .cfa: x29 32 + x19: .cfa -8 + ^ x20: .cfa -16 + ^ .ra: .cfa -24 + ^ x29: .cfa -32 + ^
STACK CFI 2e6ac .cfa: sp 32 +
STACK CFI 2e6b4 .cfa: sp 0 +
STACK CFI 2e6b8 .cfa: sp 32 +
STACK CFI 2e6c0 .cfa: sp 0 +
STACK CFI INIT 2e82c 4 .cfa: sp 0 +
STACK CFI INIT 2e830 14 .cfa: sp 0 +
STACK CFI INIT 2ecb4 1c .cfa: sp 0 +
STACK CFI INIT 2effc 4 .cfa: sp 0 +
STACK CFI INIT 2f000 ec .cfa: sp 0 +
STACK CFI 2f004 .cfa: sp 48 +
STACK CFI 2f010 .cfa: x29 48 + x19: .cfa -8 + ^ x20: .cfa -16 + ^ x21: .cfa -24 + ^ x22: .cfa -32 + ^ .ra: .cfa -40 + ^ x29: .cfa -48 + ^
STACK CFI 2f0c8 .cfa: sp 48 +
STACK CFI 2f0d4 .cfa: sp 0 +
STACK CFI 2f0d8 .cfa: x29 48 +
STACK CFI 2f0dc .cfa: sp 48 +
STACK CFI 2f0e8 .cfa: sp 0 +
STACK CFI INIT 2f274 438 .cfa: sp 0 +
STACK CFI 2f278 .cfa: sp 80 +
STACK CFI 2f28c .cfa: x29 48 + x19: .cfa -8 + ^ x20: .cfa -16 + ^ x21: .cfa -32 + ^ .ra: .cfa -40 + ^ x29: .cfa -48 + ^ v8: .cfa -56 + ^ v9: .cfa -64 + ^
STACK CFI 2f690 .cfa: sp 80 +
STACK CFI 2f6a4 .cfa: sp 0 +
STACK CFI 2f6a8 .cfa: x29 48 +
STACK CFI INIT 2f6ac 24 .cfa: sp 0 +
STACK CFI 2f6b0 .cfa: sp 32 +
STACK CFI 2f6b8 .cfa: x29 32 + x19: .cfa -16 + ^ .ra: .cfa -24 + ^ x29: .cfa -32 + ^
STACK CFI 2f6c4 .cfa: sp 32 +
STACK CFI 2f6cc .cfa: sp 0 +
STACK CFI INIT 2f8b8 3c .cfa: sp 0 +
STACK CFI 2f8bc .cfa: sp 32 +
STACK CFI 2f8c4 .cfa: x29 32 + x19: .cfa -16 + ^ .ra: .cfa -24 + ^ x29: .cfa -32 + ^
STACK CFI 2f8d0 .cfa: sp 32 +
STACK CFI 2f8d8 .cfa: sp 0 +
STACK CFI 2f8dc .cfa: x29 32 +
STACK CFI 2f8e8 .cfa: sp 32 +
STACK CFI 2f8f0 .cfa: sp 0 +
STACK CFI INIT 2f8f4 3c .cfa: sp 0 +
STACK CFI 2f8f8 .cfa: sp 32 +
STACK CFI 2f900 .cfa: x29 32 + x19: .cfa -16 + ^ .ra: .cfa -24 + ^ x29: .cfa -32 + ^
STACK CFI 2f90c .cfa: sp 32 +
STACK CFI 2f914 .cfa: sp 0 +
STACK CFI 2f918 .cfa: x29 32 +
STACK CFI 2f924 .cfa: sp 32 +
STACK CFI 2f92c .cfa: sp 0 +
STACK CFI INIT 2f930 4c .cfa: sp 0 +
STACK CFI 2f934 .cfa: sp 32 +
STACK CFI 2f93c .cfa: x29 32 + x19: .cfa -8 + ^ x20: .cfa -16 + ^ .ra: .cfa -24 + ^ x29: .cfa -32 + ^
STACK CFI 2f964 .cfa: sp 32 +
STACK CFI 2f96c .cfa: sp 0 +
STACK CFI 2f970 .cfa: sp 32 +
STACK CFI 2f978 .cfa: sp 0 +
STACK CFI INIT 2fb9c 64 .cfa: sp 0 +
STACK CFI 2fba0 .cfa: sp 32 +
STACK CFI 2fba8 .cfa: x29 32 + x19: .cfa -16 + ^ .ra: .cfa -24 + ^ x29: .cfa -32 + ^
STACK CFI 2fbd4 .cfa: sp 32 +
STACK CFI 2fbdc .cfa: sp 0 +
STACK CFI 2fbe0 .cfa: x29 32 +
STACK CFI 2fbf4 .cfa: sp 32 +
STACK CFI 2fbfc .cfa: sp 0 +
STACK CFI INIT 2fc00 24 .cfa: sp 0 +
STACK CFI 2fc04 .cfa: sp 32 +
STACK CFI 2fc0c .cfa: x29 32 + x19: .cfa -16 + ^ .ra: .cfa -24 + ^ x29: .cfa -32 + ^
STACK CFI 2fc18 .cfa: sp 32 +
STACK CFI 2fc20 .cfa: sp 0 +
STACK CFI INIT 2fe80 24 .cfa: sp 0 +
STACK CFI 2fe84 .cfa: sp 32 +
STACK CFI 2fe8c .cfa: x29 32 + x19: .cfa -16 + ^ .ra: .cfa -24 + ^ x29: .cfa -32 + ^
STACK CFI 2fe98 .cfa: sp 32 +
STACK CFI 2fea0 .cfa: sp 0 +
STACK CFI INIT 2fea4 24 .cfa: sp 0 +
STACK CFI 2fea8 .cfa: sp 32 +
STACK CFI 2feb0 .cfa: x29 32 + x19: .cfa -16 + ^ .ra: .cfa -24 + ^ x29: .cfa -32 + ^
STACK CFI 2febc .cfa: sp 32 +
STACK CFI 2fec4 .cfa: sp 0 +
STACK CFI INIT 300ec 24 .cfa: sp 0 +
STACK CFI 300f0 .cfa: sp 32 +
STACK CFI 300f8 .cfa: x29 32 + x19: .cfa -16 + ^ .ra: .cfa -24 + ^ x29: .cfa -32 + ^
STACK CFI 30104 .cfa: sp 32 +
STACK CFI 3010c .cfa: sp 0 +
STACK CFI INIT 30830 8 .cfa: sp 0 +
STACK CFI INIT 30838 24 .cfa: sp 0 +
STACK CFI 3083c .cfa: sp 32 +
STACK CFI 30844 .cfa: x29 32 + x19: .cfa -16 + ^ .ra: .cfa -24 + ^ x29: .cfa -32 + ^
STACK CFI 30850 .cfa: sp 32 +
STACK CFI 30858 .cfa: sp 0 +
STACK CFI INIT 3085c 28 .cfa: sp 0 +
STACK CFI 30860 .cfa: sp 32 +
STACK CFI 30868 .cfa: x29 32 + x19: .cfa -16 + ^ .ra: .cfa -24 + ^ x29: .cfa -32 + ^
STACK CFI 30878 .cfa: sp 32 +
STACK CFI 30880 .cfa: sp 0 +
STACK CFI INIT 30e10 8 .cfa: sp 0 +
STACK CFI INIT 30e18 24 .cfa: sp 0 +
STACK CFI 30e1c .cfa: sp 32 +
STACK CFI 30e24 .cfa: x29 32 + x19: .cfa -16 + ^ .ra: .cfa -24 + ^ x29: .cfa -32 + ^
STACK CFI 30e30 .cfa: sp 32 +
STACK CFI 30e38 .cfa: sp 0 +
STACK CFI INIT 30e3c 28 .cfa: sp 0 +
STACK CFI 30e40 .cfa: sp 32 +
STACK CFI 30e48 .cfa: x29 32 + x19: .cfa -16 + ^ .ra: .cfa -24 + ^ x29: .cfa -32 + ^
STACK CFI 30e58 .cfa: sp 32 +
STACK CFI 30e60 .cfa: sp 0 +
STACK CFI INIT 310c8 8 .cfa: sp 0 +
STACK CFI INIT 310d0 24 .cfa: sp 0 +
STACK CFI 310d4 .cfa: sp 32 +
STACK CFI 310dc .cfa: x29 32 + x19: .cfa -16 + ^ .ra: .cfa -24 + ^ x29: .cfa -32 + ^
STACK CFI 310e8 .cfa: sp 32 +
STACK CFI 310f0 .cfa: sp 0 +
STACK CFI INIT 310f4 28 .cfa: sp 0 +
STACK CFI 310f8 .cfa: sp 32 +
STACK CFI 31100 .cfa: x29 32 + x19: .cfa -16 + ^ .ra: .cfa -24 + ^ x29: .cfa -32 + ^
STACK CFI 31110 .cfa: sp 32 +
STACK CFI 31118 .cfa: sp 0 +
STACK CFI INIT 3137c 24 .cfa: sp 0 +
STACK CFI 31380 .cfa: sp 32 +
STACK CFI 31388 .cfa: x29 32 + x19: .cfa -16 + ^ .ra: .cfa -24 + ^ x29: .cfa -32 + ^
STACK CFI 31394 .cfa: sp 32 +
STACK CFI 3139c .cfa: sp 0 +
STACK CFI INIT 31870 14 .cfa: sp 0 +
STACK CFI INIT 31884 40 .cfa: sp 0 +
STACK CFI 31888 .cfa: sp 32 +
STACK CFI 31890 .cfa: x29 32 + x19: .cfa -16 + ^ .ra: .cfa -24 + ^ x29: .cfa -32 + ^
STACK CFI 318b8 .cfa: sp 32 +
STACK CFI 318c0 .cfa: sp 0 +
STACK CFI INIT 31e80 4 .cfa: sp 0 +
STACK CFI INIT 320e0 18 .cfa: sp 0 +
STACK CFI 320e4 .cfa: sp 16 +
STACK CFI 320e8 .cfa: x29 16 + .ra: .cfa -8 + ^ x29: .cfa -16 + ^
STACK CFI 320f0 .cfa: sp 16 +
STACK CFI 320f4 .cfa: sp 0 +
STACK CFI INIT 320f8 4 .cfa: sp 0 +
STACK CFI INIT 320fc 4 .cfa: sp 0 +
STACK CFI INIT 32100 8 .cfa: sp 0 +
STACK CFI INIT 32108 4 .cfa: sp 0 +
STACK CFI INIT 3210c 8 .cfa: sp 0 +
STACK CFI INIT 32fd0 4 .cfa: sp 0 +
STACK CFI INIT 32fd4 14 .cfa: sp 0 +
STACK CFI INIT 334f4 c .cfa: sp 0 +
STACK CFI INIT 33500 24c .cfa: sp 0 +
STACK CFI INIT 3374c a0 .cfa: sp 0 +
STACK CFI 33758 .cfa: sp 32 +
STACK CFI 337b0 .cfa: sp 0 +
STACK CFI 337b4 .cfa: sp 32 +
STACK CFI 337bc .cfa: sp 0 +
STACK CFI 337c0 .cfa: sp 32 +
STACK CFI 337d4 .cfa: sp 0 +
STACK CFI 337d8 .cfa: sp 32 +
STACK CFI 337e8 .cfa: sp 0 +
STACK CFI INIT 337ec 38 .cfa: sp 0 +
STACK CFI 337f8 .cfa: sp 32 +
STACK CFI 33820 .cfa: sp 0 +
STACK CFI INIT 33ab8 7c .cfa: sp 0 +
STACK CFI 33abc .cfa: sp 32 +
STACK CFI 33ac4 .cfa: x29 32 + x19: .cfa -16 + ^ .ra: .cfa -24 + ^ x29: .cfa -32 + ^
STACK CFI 33af0 .cfa: sp 32 +
STACK CFI 33af8 .cfa: sp 0 +
STACK CFI 33afc .cfa: x29 32 +
STACK CFI 33b28 .cfa: sp 32 +
STACK CFI 33b30 .cfa: sp 0 +
STACK CFI INIT 33b84 2c .cfa: sp 0 +
STACK CFI 33b88 .cfa: sp 32 +
STACK CFI 33b90 .cfa: x29 32 + x19: .cfa -16 + ^ .ra: .cfa -24 + ^ x29: .cfa -32 + ^
STACK CFI 33ba4 .cfa: sp 32 +
STACK CFI 33bac .cfa: sp 0 +
STACK CFI INIT 34370 64 .cfa: sp 0 +
STACK CFI 34374 .cfa: sp 32 +
STACK CFI 3437c .cfa: x29 32 + x19: .cfa -16 + ^ .ra: .cfa -24 + ^ x29: .cfa -32 + ^
STACK CFI 34398 .cfa: sp 32 +
STACK CFI 343a0 .cfa: sp 0 +
STACK CFI 343a4 .cfa: x29 32 +
STACK CFI 343c8 .cfa: sp 32 +
STACK CFI 343d0 .cfa: sp 0 +
STACK CFI INIT 34520 570 .cfa: sp 0 +
STACK CFI 34524 .cfa: sp 176 +
STACK CFI 34538 .cfa: x29 64 + x19: .cfa -8 + ^ x20: .cfa -16 + ^ x21: .cfa -24 + ^ x22: .cfa -32 + ^ x23: .cfa -40 + ^ x24: .cfa -48 + ^ .ra: .cfa -56 + ^ x29: .cfa -64 + ^
STACK CFI 34768 .cfa: sp 176 +
STACK CFI 3477c .cfa: sp 0 +
STACK CFI 34780 .cfa: x29 64 +
STACK CFI 347cc .cfa: sp 176 +
STACK CFI 347e0 .cfa: sp 0 +
STACK CFI 347e4 .cfa: x29 64 +
STACK CFI 3481c .cfa: sp 176 +
STACK CFI 34830 .cfa: sp 0 +
STACK CFI 34834 .cfa: x29 64 +
STACK CFI 3484c .cfa: sp 176 +
STACK CFI 34860 .cfa: sp 0 +
STACK CFI 34864 .cfa: x29 64 +
STACK CFI 34884 .cfa: sp 176 +
STACK CFI 34898 .cfa: sp 0 +
STACK CFI 3489c .cfa: x29 64 +
STACK CFI 348b4 .cfa: sp 176 +
STACK CFI 348c8 .cfa: sp 0 +
STACK CFI 348cc .cfa: x29 64 +
STACK CFI 348e0 .cfa: sp 176 +
STACK CFI 348f4 .cfa: sp 0 +
STACK CFI 348f8 .cfa: x29 64 +
STACK CFI 3490c .cfa: sp 176 +
STACK CFI 34920 .cfa: sp 0 +
STACK CFI 34924 .cfa: x29 64 +
STACK CFI 34934 .cfa: sp 176 +
STACK CFI 34948 .cfa: sp 0 +
STACK CFI 3494c .cfa: x29 64 +
STACK CFI 3495c .cfa: sp 176 +
STACK CFI 34970 .cfa: sp 0 +
STACK CFI 34974 .cfa: x29 64 +
STACK CFI 3498c .cfa: sp 176 +
STACK CFI 349a0 .cfa: sp 0 +
STACK CFI 349a4 .cfa: x29 64 +
STACK CFI 349b8 .cfa: sp 176 +
STACK CFI 349cc .cfa: sp 0 +
STACK CFI 349d0 .cfa: x29 64 +
STACK CFI 349e8 .cfa: sp 176 +
STACK CFI 349fc .cfa: sp 0 +
STACK CFI 34a00 .cfa: x29 64 +
STACK CFI 34a2c .cfa: sp 176 +
STACK CFI 34a40 .cfa: sp 0 +
STACK CFI 34a44 .cfa: x29 64 +
STACK CFI 34a58 .cfa: sp 176 +
STACK CFI 34a6c .cfa: sp 0 +
STACK CFI 34a70 .cfa: x29 64 +
STACK CFI INIT 34a90 228 .cfa: sp 0 +
STACK CFI INIT 34cb8 2dc .cfa: sp 0 +
STACK CFI INIT 34f94 53c .cfa: sp 0 +
STACK CFI INIT 354d0 78 .cfa: sp 0 +
STACK CFI 354d4 .cfa: sp 48 +
STACK CFI 354e0 .cfa: x29 48 + x19: .cfa -8 + ^ x20: .cfa -16 + ^ x21: .cfa -24 + ^ x22: .cfa -32 + ^ .ra: .cfa -40 + ^ x29: .cfa -48 + ^
STACK CFI 35528 .cfa: sp 48 +
STACK CFI 35534 .cfa: sp 0 +
STACK CFI 35538 .cfa: sp 48 +
STACK CFI 35544 .cfa: sp 0 +
STACK CFI INIT 35548 8c .cfa: sp 0 +
STACK CFI 3554c .cfa: sp 32 +
STACK CFI 35554 .cfa: x29 32 + x19: .cfa -16 + ^ .ra: .cfa -24 + ^ x29: .cfa -32 + ^
STACK CFI 35588 .cfa: sp 32 +
STACK CFI 35590 .cfa: sp 0 +
STACK CFI 35594 .cfa: x29 32 +
STACK CFI 355c8 .cfa: sp 32 +
STACK CFI 355d0 .cfa: sp 0 +
STACK CFI INIT 355d4 24 .cfa: sp 0 +
STACK CFI 355d8 .cfa: sp 32 +
STACK CFI 355e0 .cfa: x29 32 + x19: .cfa -16 + ^ .ra: .cfa -24 + ^ x29: .cfa -32 + ^
STACK CFI 355ec .cfa: sp 32 +
STACK CFI 355f4 .cfa: sp 0 +
STACK CFI INIT 355f8 150 .cfa: sp 0 +
STACK CFI 355fc .cfa: sp 48 +
STACK CFI 35608 .cfa: x29 48 + x19: .cfa -8 + ^ x20: .cfa -16 + ^ x21: .cfa -24 + ^ x22: .cfa -32 + ^ .ra: .cfa -40 + ^ x29: .cfa -48 + ^
STACK CFI 35738 .cfa: sp 48 +
STACK CFI 35744 .cfa: sp 0 +
STACK CFI INIT 35748 68 .cfa: sp 0 +
STACK CFI 3574c .cfa: sp 64 +
STACK CFI 35758 .cfa: x29 32 + x19: .cfa -16 + ^ .ra: .cfa -24 + ^ x29: .cfa -32 + ^
STACK CFI 3579c .cfa: sp 64 +
STACK CFI 357a8 .cfa: sp 0 +
STACK CFI 357ac .cfa: x29 32 +
STACK CFI INIT 357b0 90 .cfa: sp 0 +
STACK CFI 357b4 .cfa: sp 32 +
STACK CFI 357bc .cfa: x29 32 + x19: .cfa -8 + ^ x20: .cfa -16 + ^ .ra: .cfa -24 + ^ x29: .cfa -32 + ^
STACK CFI 357e8 .cfa: sp 32 +
STACK CFI 357f0 .cfa: sp 0 +
STACK CFI 357f4 .cfa: x29 32 +
STACK CFI 35834 .cfa: sp 32 +
STACK CFI 3583c .cfa: sp 0 +
STACK CFI INIT 35840 ec .cfa: sp 0 +
STACK CFI 35844 .cfa: sp 112 +
STACK CFI 35854 .cfa: x29 48 + x19: .cfa -8 + ^ x20: .cfa -16 + ^ x21: .cfa -32 + ^ .ra: .cfa -40 + ^ x29: .cfa -48 + ^
STACK CFI 35914 .cfa: sp 112 +
STACK CFI 35924 .cfa: sp 0 +
STACK CFI 35928 .cfa: x29 48 +
STACK CFI INIT 3592c ec .cfa: sp 0 +
STACK CFI 35930 .cfa: sp 112 +
STACK CFI 35940 .cfa: x29 48 + x19: .cfa -8 + ^ x20: .cfa -16 + ^ x21: .cfa -32 + ^ .ra: .cfa -40 + ^ x29: .cfa -48 + ^
STACK CFI 35a00 .cfa: sp 112 +
STACK CFI 35a10 .cfa: sp 0 +
STACK CFI 35a14 .cfa: x29 48 +
STACK CFI INIT 35a18 48 .cfa: sp 0 +
STACK CFI 35a1c .cfa: sp 32 +
STACK CFI 35a24 .cfa: x29 32 + x19: .cfa -8 + ^ x20: .cfa -16 + ^ .ra: .cfa -24 + ^ x29: .cfa -32 + ^
STACK CFI 35a48 .cfa: sp 32 +
STACK CFI 35a50 .cfa: sp 0 +
STACK CFI 35a54 .cfa: x29 32 +
STACK CFI INIT 35a60 98 .cfa: sp 0 +
STACK CFI 35a64 .cfa: sp 80 +
STACK CFI 35a70 .cfa: x29 32 + x19: .cfa -16 + ^ .ra: .cfa -24 + ^ x29: .cfa -32 + ^
STACK CFI 35ae4 .cfa: sp 80 +
STACK CFI 35af0 .cfa: sp 0 +
STACK CFI 35af4 .cfa: x29 32 +
STACK CFI INIT 35af8 260 .cfa: sp 0 +
STACK CFI 35afc .cfa: sp 112 +
STACK CFI 35b14 .cfa: x29 80 + x19: .cfa -8 + ^ x20: .cfa -16 + ^ x21: .cfa -24 + ^ x22: .cfa -32 + ^ x23: .cfa -40 + ^ x24: .cfa -48 + ^ x25: .cfa -64 + ^ .ra: .cfa -72 + ^ x29: .cfa -80 + ^
STACK CFI 35cf8 .cfa: sp 112 +
STACK CFI 35d10 .cfa: sp 0 +
STACK CFI 35d14 .cfa: x29 80 +
STACK CFI INIT 35d58 150 .cfa: sp 0 +
STACK CFI 35d5c .cfa: sp 48 +
STACK CFI 35d68 .cfa: x29 48 + x19: .cfa -8 + ^ x20: .cfa -16 + ^ x21: .cfa -24 + ^ x22: .cfa -32 + ^ .ra: .cfa -40 + ^ x29: .cfa -48 + ^
STACK CFI 35e98 .cfa: sp 48 +
STACK CFI 35ea4 .cfa: sp 0 +
STACK CFI INIT 35ea8 1e0 .cfa: sp 0 +
STACK CFI 35eac .cfa: sp 96 +
STACK CFI 35ec0 .cfa: x29 64 + x19: .cfa -8 + ^ x20: .cfa -16 + ^ x21: .cfa -24 + ^ x22: .cfa -32 + ^ x23: .cfa -40 + ^ x24: .cfa -48 + ^ .ra: .cfa -56 + ^ x29: .cfa -64 + ^
STACK CFI 36040 .cfa: sp 96 +
STACK CFI 36054 .cfa: sp 0 +
STACK CFI 36058 .cfa: x29 64 +
STACK CFI INIT 36088 284 .cfa: sp 0 +
STACK CFI 3608c .cfa: sp 112 +
STACK CFI 360a4 .cfa: x29 80 + x19: .cfa -8 + ^ x20: .cfa -16 + ^ x21: .cfa -24 + ^ x22: .cfa -32 + ^ x23: .cfa -40 + ^ x24: .cfa -48 + ^ x25: .cfa -64 + ^ .ra: .cfa -72 + ^ x29: .cfa -80 + ^
STACK CFI 362ac .cfa: sp 112 +
STACK CFI 362c4 .cfa: sp 0 +
STACK CFI 362c8 .cfa: x29 80 +
STACK CFI INIT 3630c 208 .cfa: sp 0 +
STACK CFI 36310 .cfa: sp 96 +
STACK CFI 36324 .cfa: x29 64 + x19: .cfa -8 + ^ x20: .cfa -16 + ^ x21: .cfa -24 + ^ x22: .cfa -32 + ^ x23: .cfa -40 + ^ x24: .cfa -48 + ^ .ra: .cfa -56 + ^ x29: .cfa -64 + ^
STACK CFI 364cc .cfa: sp 96 +
STACK CFI 364e0 .cfa: sp 0 +
STACK CFI 364e4 .cfa: x29 64 +
STACK CFI INIT 36514 360 .cfa: sp 0 +
STACK CFI 36518 .cfa: sp 160 +
STACK CFI 36534 .cfa: x29 96 + x19: .cfa -8 + ^ x20: .cfa -16 + ^ x21: .cfa -24 + ^ x22: .cfa -32 + ^ x23: .cfa -40 + ^ x24: .cfa -48 + ^ x25: .cfa -56 + ^ x26: .cfa -64 + ^ x27: .cfa -72 + ^ x28: .cfa -80 + ^ .ra: .cfa -88 + ^ x29: .cfa -96 + ^
STACK CFI 36800 .cfa: sp 160 +
STACK CFI 3681c .cfa: sp 0 +
STACK CFI 36820 .cfa: x29 96 +
STACK CFI INIT 36874 314 .cfa: sp 0 +
STACK CFI 36878 .cfa: sp 144 +
STACK CFI 36894 .cfa: x29 96 + x19: .cfa -8 + ^ x20: .cfa -16 + ^ x21: .cfa -24 + ^ x22: .cfa -32 + ^ x23: .cfa -40 + ^ x24: .cfa -48 + ^ x25: .cfa -56 + ^ x26: .cfa -64 + ^ x27: .cfa -72 + ^ x28: .cfa -80 + ^ .ra: .cfa -88 + ^ x29: .cfa -96 + ^
STACK CFI 36b10 .cfa: sp 144 +
STACK CFI 36b2c .cfa: sp 0 +
STACK CFI 36b30 .cfa: x29 96 +
STACK CFI INIT 36b88 2b4 .cfa: sp 0 +
STACK CFI 36b8c .cfa: sp 128 +
STACK CFI 36ba4 .cfa: x29 80 + x19: .cfa -8 + ^ x20: .cfa -16 + ^ x21: .cfa -24 + ^ x22: .cfa -32 + ^ x23: .cfa -40 + ^ x24: .cfa -48 + ^ x25: .cfa -56 + ^ x26: .cfa -64 + ^ .ra: .cfa -72 + ^ x29: .cfa -80 + ^
STACK CFI 36d98 .cfa: sp 128 +
STACK CFI 36db0 .cfa: sp 0 +
STACK CFI 36db4 .cfa: x29 80 +
STACK CFI 36e1c .cfa: sp 128 +
STACK CFI 36e34 .cfa: sp 0 +
STACK CFI 36e38 .cfa: x29 80 +
STACK CFI INIT 36e3c dcc .cfa: sp 0 +
STACK CFI 36e40 .cfa: sp 144 +
STACK CFI 36e5c .cfa: x29 96 + x19: .cfa -8 + ^ x20: .cfa -16 + ^ x21: .cfa -24 + ^ x22: .cfa -32 + ^ x23: .cfa -40 + ^ x24: .cfa -48 + ^ x25: .cfa -56 + ^ x26: .cfa -64 + ^ x27: .cfa -72 + ^ x28: .cfa -80 + ^ .ra: .cfa -88 + ^ x29: .cfa -96 + ^
STACK CFI 37ae0 .cfa: sp 144 +
STACK CFI 37afc .cfa: sp 0 +
STACK CFI 37b00 .cfa: x29 96 +
STACK CFI INIT 37c08 264 .cfa: sp 0 +
STACK CFI 37c0c .cfa: sp 112 +
STACK CFI 37c20 .cfa: x29 64 + x19: .cfa -8 + ^ x20: .cfa -16 + ^ x21: .cfa -24 + ^ x22: .cfa -32 + ^ x23: .cfa -40 + ^ x24: .cfa -48 + ^ .ra: .cfa -56 + ^ x29: .cfa -64 + ^
STACK CFI 37d9c .cfa: sp 112 +
STACK CFI 37db0 .cfa: sp 0 +
STACK CFI 37db4 .cfa: x29 64 +
STACK CFI 37e24 .cfa: sp 112 +
STACK CFI 37e38 .cfa: sp 0 +
STACK CFI 37e3c .cfa: x29 64 +
STACK CFI INIT 37e6c 258 .cfa: sp 0 +
STACK CFI 37e70 .cfa: sp 96 +
STACK CFI 37e88 .cfa: x29 96 + x19: .cfa -8 + ^ x20: .cfa -16 + ^ x21: .cfa -24 + ^ x22: .cfa -32 + ^ x23: .cfa -40 + ^ x24: .cfa -48 + ^ x25: .cfa -56 + ^ x26: .cfa -64 + ^ x27: .cfa -72 + ^ x28: .cfa -80 + ^ .ra: .cfa -88 + ^ x29: .cfa -96 + ^
STACK CFI 38080 .cfa: sp 96 +
STACK CFI 38098 .cfa: sp 0 +
STACK CFI 3809c .cfa: x29 96 +
STACK CFI 380a8 .cfa: sp 96 +
STACK CFI 380c0 .cfa: sp 0 +
STACK CFI INIT 38d48 154 .cfa: sp 0 +
STACK CFI 38d4c .cfa: sp 96 +
STACK CFI 38d60 .cfa: x29 64 + x19: .cfa -8 + ^ x20: .cfa -16 + ^ x21: .cfa -24 + ^ x22: .cfa -32 + ^ x23: .cfa -48 + ^ .ra: .cfa -56 + ^ x29: .cfa -64 + ^
STACK CFI 38e40 .cfa: sp 96 +
STACK CFI 38e54 .cfa: sp 0 +
STACK CFI 38e58 .cfa: x29 64 +
STACK CFI INIT 39104 44 .cfa: sp 0 +
STACK CFI 39108 .cfa: sp 32 +
STACK CFI 39110 .cfa: x29 32 + x19: .cfa -16 + ^ .ra: .cfa -24 + ^ x29: .cfa -32 + ^
STACK CFI 3912c .cfa: sp 32 +
STACK CFI 39134 .cfa: sp 0 +
STACK CFI 39138 .cfa: x29 32 +
STACK CFI 3913c .cfa: sp 32 +
STACK CFI 39144 .cfa: sp 0 +
STACK CFI INIT 39148 1d0 .cfa: sp 0 +
STACK CFI 3914c .cfa: sp 64 +
STACK CFI 3915c .cfa: x29 64 + x19: .cfa -8 + ^ x20: .cfa -16 + ^ x21: .cfa -24 + ^ x22: .cfa -32 + ^ x23: .cfa -40 + ^ x24: .cfa -48 + ^ .ra: .cfa -56 + ^ x29: .cfa -64 + ^
STACK CFI 3921c .cfa: sp 64 +
STACK CFI 3922c .cfa: sp 0 +
STACK CFI 39230 .cfa: x29 64 +
STACK CFI INIT 39318 17c .cfa: sp 0 +
STACK CFI INIT 39494 ac .cfa: sp 0 +
STACK CFI 39498 .cfa: sp 64 +
STACK CFI 394a8 .cfa: x29 64 + x19: .cfa -8 + ^ x20: .cfa -16 + ^ x21: .cfa -24 + ^ x22: .cfa -32 + ^ x23: .cfa -48 + ^ .ra: .cfa -56 + ^ x29: .cfa -64 + ^
STACK CFI 39524 .cfa: sp 64 +
STACK CFI 39534 .cfa: sp 0 +
STACK CFI 39538 .cfa: x29 64 +
STACK CFI INIT 39540 13c .cfa: sp 0 +
STACK CFI 39544 .cfa: sp 64 +
STACK CFI 39554 .cfa: x29 64 + x19: .cfa -8 + ^ x20: .cfa -16 + ^ x21: .cfa -24 + ^ x22: .cfa -32 + ^ x23: .cfa -40 + ^ x24: .cfa -48 + ^ .ra: .cfa -56 + ^ x29: .cfa -64 + ^
STACK CFI 39634 .cfa: sp 64 +
STACK CFI 39644 .cfa: sp 0 +
STACK CFI 39648 .cfa: x29 64 +
STACK CFI INIT 39a34 a0 .cfa: sp 0 +
STACK CFI 39a38 .cfa: sp 48 +
STACK CFI 39a44 .cfa: x29 48 + x19: .cfa -8 + ^ x20: .cfa -16 + ^ x21: .cfa -24 + ^ x22: .cfa -32 + ^ .ra: .cfa -40 + ^ x29: .cfa -48 + ^
STACK CFI 39ab0 .cfa: sp 48 +
STACK CFI 39abc .cfa: sp 0 +
STACK CFI 39ac0 .cfa: sp 48 +
STACK CFI 39acc .cfa: sp 0 +
STACK CFI 39ad0 .cfa: x29 48 +
STACK CFI INIT 3a790 158 .cfa: sp 0 +
STACK CFI 3a794 .cfa: sp 96 +
STACK CFI 3a7a8 .cfa: x29 64 + x19: .cfa -8 + ^ x20: .cfa -16 + ^ x21: .cfa -24 + ^ x22: .cfa -32 + ^ x23: .cfa -48 + ^ .ra: .cfa -56 + ^ x29: .cfa -64 + ^
STACK CFI 3a88c .cfa: sp 96 +
STACK CFI 3a8a0 .cfa: sp 0 +
STACK CFI 3a8a4 .cfa: x29 64 +
STACK CFI INIT 3a8e8 190 .cfa: sp 0 +
STACK CFI INIT 3b558 1f4 .cfa: sp 0 +
STACK CFI 3b55c .cfa: sp 80 +
STACK CFI 3b570 .cfa: x29 80 + x19: .cfa -8 + ^ x20: .cfa -16 + ^ x21: .cfa -24 + ^ x22: .cfa -32 + ^ x23: .cfa -40 + ^ x24: .cfa -48 + ^ x25: .cfa -64 + ^ .ra: .cfa -72 + ^ x29: .cfa -80 + ^
STACK CFI 3b710 .cfa: sp 80 +
STACK CFI 3b724 .cfa: sp 0 +
STACK CFI 3b728 .cfa: x29 80 +
STACK CFI 3b734 .cfa: sp 80 +
STACK CFI 3b748 .cfa: sp 0 +
STACK CFI INIT 3cb70 124 .cfa: sp 0 +
STACK CFI 3cba0 .cfa: sp 32 +
STACK CFI 3cba8 .cfa: x29 32 + x19: .cfa -8 + ^ x20: .cfa -16 + ^ .ra: .cfa -24 + ^ x29: .cfa -32 + ^
STACK CFI 3cc88 .cfa: sp 32 +
STACK CFI 3cc90 .cfa: sp 0 +
STACK CFI INIT 3d3f0 324 .cfa: sp 0 +
STACK CFI 3d3f4 .cfa: sp 64 +
STACK CFI 3d404 .cfa: x29 64 + x19: .cfa -8 + ^ x20: .cfa -16 + ^ x21: .cfa -24 + ^ x22: .cfa -32 + ^ x23: .cfa -40 + ^ x24: .cfa -48 + ^ .ra: .cfa -56 + ^ x29: .cfa -64 + ^
STACK CFI 3d480 .cfa: sp 64 +
STACK CFI 3d490 .cfa: sp 0 +
STACK CFI 3d494 .cfa: x29 64 +
STACK CFI 3d66c .cfa: sp 64 +
STACK CFI 3d67c .cfa: sp 0 +
STACK CFI 3d680 .cfa: x29 64 +
STACK CFI 3d690 .cfa: sp 64 +
STACK CFI 3d6a0 .cfa: sp 0 +
STACK CFI 3d6a4 .cfa: x29 64 +
STACK CFI INIT 3d714 a0 .cfa: sp 0 +
STACK CFI 3d718 .cfa: sp 48 +
STACK CFI 3d724 .cfa: x29 48 + x19: .cfa -8 + ^ x20: .cfa -16 + ^ x21: .cfa -24 + ^ x22: .cfa -32 + ^ .ra: .cfa -40 + ^ x29: .cfa -48 + ^
STACK CFI 3d790 .cfa: sp 48 +
STACK CFI 3d79c .cfa: sp 0 +
STACK CFI 3d7a0 .cfa: sp 48 +
STACK CFI 3d7ac .cfa: sp 0 +
STACK CFI 3d7b0 .cfa: x29 48 +
STACK CFI INIT 3e690 160 .cfa: sp 0 +
STACK CFI 3e694 .cfa: sp 64 +
STACK CFI 3e6a4 .cfa: x29 64 + x19: .cfa -8 + ^ x20: .cfa -16 + ^ x21: .cfa -24 + ^ x22: .cfa -32 + ^ x23: .cfa -48 + ^ .ra: .cfa -56 + ^ x29: .cfa -64 + ^
STACK CFI 3e79c .cfa: sp 64 +
STACK CFI 3e7ac .cfa: sp 0 +
STACK CFI 3e7b0 .cfa: x29 64 +
STACK CFI INIT 3e7f0 214 .cfa: sp 0 +
STACK CFI 3e7f4 .cfa: sp 128 +
STACK CFI 3e810 .cfa: x29 96 + x19: .cfa -8 + ^ x20: .cfa -16 + ^ x21: .cfa -24 + ^ x22: .cfa -32 + ^ x23: .cfa -40 + ^ x24: .cfa -48 + ^ x25: .cfa -56 + ^ x26: .cfa -64 + ^ x27: .cfa -80 + ^ .ra: .cfa -88 + ^ x29: .cfa -96 + ^
STACK CFI 3e98c .cfa: sp 128 +
STACK CFI 3e9a8 .cfa: sp 0 +
STACK CFI 3e9ac .cfa: x29 96 +
STACK CFI INIT 3fe94 e58 .cfa: sp 0 +
STACK CFI 3fe98 .cfa: sp 192 +
STACK CFI 3feb4 .cfa: x29 96 + x19: .cfa -8 + ^ x20: .cfa -16 + ^ x21: .cfa -24 + ^ x22: .cfa -32 + ^ x23: .cfa -40 + ^ x24: .cfa -48 + ^ x25: .cfa -56 + ^ x26: .cfa -64 + ^ x27: .cfa -72 + ^ x28: .cfa -80 + ^ .ra: .cfa -88 + ^ x29: .cfa -96 + ^
STACK CFI 40bd4 .cfa: sp 192 +
STACK CFI 40bf0 .cfa: sp 0 +
STACK CFI 40bf4 .cfa: x29 96 +
STACK CFI INIT 40cec 1090 .cfa: sp 0 +
STACK CFI 40cf0 .cfa: sp 288 +
STACK CFI 40d0c .cfa: x29 96 + x19: .cfa -8 + ^ x20: .cfa -16 + ^ x21: .cfa -24 + ^ x22: .cfa -32 + ^ x23: .cfa -40 + ^ x24: .cfa -48 + ^ x25: .cfa -56 + ^ x26: .cfa -64 + ^ x27: .cfa -72 + ^ x28: .cfa -80 + ^ .ra: .cfa -88 + ^ x29: .cfa -96 + ^
STACK CFI 41ac4 .cfa: sp 288 +
STACK CFI 41ae0 .cfa: sp 0 +
STACK CFI 41ae4 .cfa: x29 96 +
STACK CFI INIT 41d7c 520 .cfa: sp 0 +
STACK CFI 41d80 .cfa: sp 144 +
STACK CFI 41d9c .cfa: x29 96 + x19: .cfa -8 + ^ x20: .cfa -16 + ^ x21: .cfa -24 + ^ x22: .cfa -32 + ^ x23: .cfa -40 + ^ x24: .cfa -48 + ^ x25: .cfa -56 + ^ x26: .cfa -64 + ^ x27: .cfa -72 + ^ x28: .cfa -80 + ^ .ra: .cfa -88 + ^ x29: .cfa -96 + ^
STACK CFI 42278 .cfa: sp 144 +
STACK CFI 42294 .cfa: sp 0 +
STACK CFI 42298 .cfa: x29 96 +
STACK CFI INIT 203d0 9c .cfa: sp 0 +
STACK CFI 203d4 .cfa: sp 48 +
STACK CFI 203e0 .cfa: x29 32 + x19: .cfa -8 + ^ x20: .cfa -16 + ^ .ra: .cfa -24 + ^ x29: .cfa -32 + ^ v8: .cfa -48 + ^
STACK CFI 20420 .cfa: sp 48 +
STACK CFI 2042c .cfa: sp 0 +
STACK CFI 20430 .cfa: x29 32 +
STACK CFI 20448 .cfa: sp 48 +
STACK CFI 20454 .cfa: sp 0 +
STACK CFI 20458 .cfa: x29 32 +
STACK CFI INIT 206bc 12c .cfa: sp 0 +
STACK CFI 206c0 .cfa: sp 80 +
STACK CFI 206d0 .cfa: x29 48 + x19: .cfa -8 + ^ x20: .cfa -16 + ^ x21: .cfa -24 + ^ x22: .cfa -32 + ^ .ra: .cfa -40 + ^ x29: .cfa -48 + ^
STACK CFI 207cc .cfa: sp 80 +
STACK CFI 207dc .cfa: sp 0 +
STACK CFI 207e0 .cfa: x29 48 +
STACK CFI INIT 207f8 9c .cfa: sp 0 +
STACK CFI 207fc .cfa: sp 32 +
STACK CFI 20804 .cfa: x29 32 + x19: .cfa -8 + ^ x20: .cfa -16 + ^ .ra: .cfa -24 + ^ x29: .cfa -32 + ^
STACK CFI 20850 .cfa: sp 32 +
STACK CFI 20858 .cfa: sp 0 +
STACK CFI 2085c .cfa: x29 32 +
STACK CFI 20874 .cfa: sp 32 +
STACK CFI 2087c .cfa: sp 0 +
STACK CFI 20880 .cfa: x29 32 +
STACK CFI INIT 20920 fc .cfa: sp 0 +
STACK CFI 20924 .cfa: sp 48 +
STACK CFI 20930 .cfa: x29 32 + x19: .cfa -8 + ^ x20: .cfa -16 + ^ .ra: .cfa -24 + ^ x29: .cfa -32 + ^
STACK CFI 209e4 .cfa: sp 48 +
STACK CFI 209f0 .cfa: sp 0 +
STACK CFI 209f4 .cfa: x29 32 +
STACK CFI INIT 20c48 78 .cfa: sp 0 +
STACK CFI 20c4c .cfa: sp 32 +
STACK CFI 20c54 .cfa: x29 32 + x19: .cfa -8 + ^ x20: .cfa -16 + ^ .ra: .cfa -24 + ^ x29: .cfa -32 + ^
STACK CFI 20ca0 .cfa: sp 32 +
STACK CFI 20ca8 .cfa: sp 0 +
STACK CFI 20cac .cfa: x29 32 +
STACK CFI INIT 20cc0 5c8 .cfa: sp 0 +
STACK CFI 20cc4 .cfa: sp 160 +
STACK CFI 20ce8 .cfa: x29 80 + x19: .cfa -8 + ^ x20: .cfa -16 + ^ x21: .cfa -24 + ^ x22: .cfa -32 + ^ x23: .cfa -40 + ^ x24: .cfa -48 + ^ x25: .cfa -56 + ^ x26: .cfa -64 + ^ .ra: .cfa -72 + ^ x29: .cfa -80 + ^ v8: .cfa -88 + ^ v9: .cfa -96 + ^ v10: .cfa -104 + ^ v11: .cfa -112 + ^ v12: .cfa -128 + ^
STACK CFI 21218 .cfa: sp 160 +
STACK CFI 2123c .cfa: sp 0 +
STACK CFI 21240 .cfa: x29 80 +
STACK CFI INIT 21360 50 .cfa: sp 0 +
STACK CFI 21364 .cfa: sp 32 +
STACK CFI 2136c .cfa: x29 32 + x19: .cfa -8 + ^ x20: .cfa -16 + ^ .ra: .cfa -24 + ^ x29: .cfa -32 + ^
STACK CFI INIT 21414 194 .cfa: sp 0 +
STACK CFI 21418 .cfa: sp 112 +
STACK CFI 21428 .cfa: x29 48 + x19: .cfa -8 + ^ x20: .cfa -16 + ^ x21: .cfa -24 + ^ x22: .cfa -32 + ^ .ra: .cfa -40 + ^ x29: .cfa -48 + ^
STACK CFI 21504 .cfa: sp 112 +
STACK CFI 21514 .cfa: sp 0 +
STACK CFI 21518 .cfa: x29 48 +
STACK CFI INIT 215a8 230 .cfa: sp 0 +
STACK CFI 215ac .cfa: sp 176 +
STACK CFI 215c8 .cfa: x29 96 + x19: .cfa -8 + ^ x20: .cfa -16 + ^ x21: .cfa -24 + ^ x22: .cfa -32 + ^ x23: .cfa -40 + ^ x24: .cfa -48 + ^ x25: .cfa -56 + ^ x26: .cfa -64 + ^ x27: .cfa -72 + ^ x28: .cfa -80 + ^ .ra: .cfa -88 + ^ x29: .cfa -96 + ^
STACK CFI 21608 .cfa: sp 176 +
STACK CFI 21624 .cfa: sp 0 +
STACK CFI 21628 .cfa: x29 96 +
STACK CFI INIT 217d8 114 .cfa: sp 0 +
STACK CFI 217dc .cfa: sp 64 +
STACK CFI 217ec .cfa: x29 64 + x19: .cfa -8 + ^ x20: .cfa -16 + ^ x21: .cfa -24 + ^ x22: .cfa -32 + ^ x23: .cfa -48 + ^ .ra: .cfa -56 + ^ x29: .cfa -64 + ^
STACK CFI 218c8 .cfa: sp 64 +
STACK CFI 218d8 .cfa: sp 0 +
STACK CFI 218dc .cfa: x29 64 +
STACK CFI INIT 21908 220 .cfa: sp 0 +
STACK CFI 2190c .cfa: sp 96 +
STACK CFI 21924 .cfa: x29 96 + x19: .cfa -8 + ^ x20: .cfa -16 + ^ x21: .cfa -24 + ^ x22: .cfa -32 + ^ x23: .cfa -40 + ^ x24: .cfa -48 + ^ x25: .cfa -56 + ^ x26: .cfa -64 + ^ x27: .cfa -72 + ^ x28: .cfa -80 + ^ .ra: .cfa -88 + ^ x29: .cfa -96 + ^
STACK CFI 21af8 .cfa: sp 96 +
STACK CFI 21b10 .cfa: sp 0 +
STACK CFI 21b14 .cfa: x29 96 +
STACK CFI INIT 21b50 50 .cfa: sp 0 +
STACK CFI 21b54 .cfa: sp 32 +
STACK CFI 21b5c .cfa: x29 32 + x19: .cfa -8 + ^ x20: .cfa -16 + ^ .ra: .cfa -24 + ^ x29: .cfa -32 + ^
STACK CFI INIT 21cc0 3f8 .cfa: sp 0 +
STACK CFI 21cc4 .cfa: sp 224 +
STACK CFI 21ce0 .cfa: x29 96 + x19: .cfa -8 + ^ x20: .cfa -16 + ^ x21: .cfa -24 + ^ x22: .cfa -32 + ^ x23: .cfa -40 + ^ x24: .cfa -48 + ^ x25: .cfa -56 + ^ x26: .cfa -64 + ^ x27: .cfa -72 + ^ x28: .cfa -80 + ^ .ra: .cfa -88 + ^ x29: .cfa -96 + ^
STACK CFI 21fb4 .cfa: sp 224 +
STACK CFI 21fd0 .cfa: sp 0 +
STACK CFI 21fd4 .cfa: x29 96 +
STACK CFI INIT 220b8 41c .cfa: sp 0 +
STACK CFI 220bc .cfa: sp 144 +
STACK CFI 220d0 .cfa: x29 64 + x19: .cfa -8 + ^ x20: .cfa -16 + ^ x21: .cfa -24 + ^ x22: .cfa -32 + ^ x23: .cfa -40 + ^ x24: .cfa -48 + ^ .ra: .cfa -56 + ^ x29: .cfa -64 + ^
STACK CFI 22394 .cfa: sp 144 +
STACK CFI 223a8 .cfa: sp 0 +
STACK CFI 223ac .cfa: x29 64 +
STACK CFI INIT 22524 74 .cfa: sp 0 +
STACK CFI 22528 .cfa: sp 48 +
STACK CFI 22534 .cfa: x29 32 + x19: .cfa -8 + ^ x20: .cfa -16 + ^ .ra: .cfa -24 + ^ x29: .cfa -32 + ^
STACK CFI 22580 .cfa: sp 48 +
STACK CFI 2258c .cfa: sp 0 +
STACK CFI 22590 .cfa: x29 32 +
STACK CFI INIT 22618 154 .cfa: sp 0 +
STACK CFI 2261c .cfa: sp 384 +
STACK CFI 22630 .cfa: x29 64 + x19: .cfa -8 + ^ x20: .cfa -16 + ^ x21: .cfa -24 + ^ x22: .cfa -32 + ^ x23: .cfa -40 + ^ x28: .cfa -48 + ^ .ra: .cfa -56 + ^ x29: .cfa -64 + ^
STACK CFI 22714 .cfa: sp 384 +
STACK CFI 22728 .cfa: sp 0 +
STACK CFI 2272c .cfa: x29 64 +
STACK CFI INIT 227a0 134 .cfa: sp 0 +
STACK CFI 227a4 .cfa: sp 80 +
STACK CFI 227b8 .cfa: x29 80 + x19: .cfa -8 + ^ x20: .cfa -16 + ^ x21: .cfa -24 + ^ x22: .cfa -32 + ^ x23: .cfa -40 + ^ x24: .cfa -48 + ^ x25: .cfa -56 + ^ x26: .cfa -64 + ^ .ra: .cfa -72 + ^ x29: .cfa -80 + ^
STACK CFI 22888 .cfa: sp 80 +
STACK CFI 2289c .cfa: sp 0 +
STACK CFI 228a0 .cfa: x29 80 +
STACK CFI INIT 22978 1a4 .cfa: sp 0 +
STACK CFI 2297c .cfa: sp 112 +
STACK CFI 22994 .cfa: x29 80 + x19: .cfa -8 + ^ x20: .cfa -16 + ^ x21: .cfa -24 + ^ x22: .cfa -32 + ^ x23: .cfa -40 + ^ x24: .cfa -48 + ^ x25: .cfa -56 + ^ x26: .cfa -64 + ^ .ra: .cfa -72 + ^ x29: .cfa -80 + ^
STACK CFI 22a84 .cfa: sp 112 +
STACK CFI 22a9c .cfa: sp 0 +
STACK CFI 22aa0 .cfa: x29 80 +
STACK CFI INIT 22b1c 1ec .cfa: sp 0 +
STACK CFI 22b20 .cfa: sp 128 +
STACK CFI 22b3c .cfa: x29 96 + x19: .cfa -8 + ^ x20: .cfa -16 + ^ x21: .cfa -24 + ^ x22: .cfa -32 + ^ x23: .cfa -40 + ^ x24: .cfa -48 + ^ x25: .cfa -56 + ^ x26: .cfa -64 + ^ x27: .cfa -80 + ^ .ra: .cfa -88 + ^ x29: .cfa -96 + ^
STACK CFI 22cb8 .cfa: sp 128 +
STACK CFI 22cd4 .cfa: sp 0 +
STACK CFI 22cd8 .cfa: x29 96 +
STACK CFI INIT 22d08 170 .cfa: sp 0 +
STACK CFI 22d0c .cfa: sp 48 +
STACK CFI 22d18 .cfa: x29 48 + x19: .cfa -8 + ^ x20: .cfa -16 + ^ x21: .cfa -32 + ^ .ra: .cfa -40 + ^ x29: .cfa -48 + ^
STACK CFI 22e4c .cfa: sp 48 +
STACK CFI 22e58 .cfa: sp 0 +
STACK CFI 22e5c .cfa: x29 48 +
STACK CFI INIT 23048 1b0 .cfa: sp 0 +
STACK CFI 2304c .cfa: sp 128 +
STACK CFI 23064 .cfa: x29 80 + x19: .cfa -8 + ^ x20: .cfa -16 + ^ x21: .cfa -24 + ^ x22: .cfa -32 + ^ x23: .cfa -40 + ^ x24: .cfa -48 + ^ x25: .cfa -64 + ^ .ra: .cfa -72 + ^ x29: .cfa -80 + ^
STACK CFI 23188 .cfa: sp 128 +
STACK CFI 231a0 .cfa: sp 0 +
STACK CFI 231a4 .cfa: x29 80 +
STACK CFI INIT 23970 134 .cfa: sp 0 +
STACK CFI 23974 .cfa: sp 128 +
STACK CFI 23988 .cfa: x29 64 + x19: .cfa -8 + ^ x20: .cfa -16 + ^ x21: .cfa -24 + ^ x22: .cfa -32 + ^ x23: .cfa -40 + ^ x24: .cfa -48 + ^ .ra: .cfa -56 + ^ x29: .cfa -64 + ^
STACK CFI 23a54 .cfa: sp 128 +
STACK CFI 23a68 .cfa: sp 0 +
STACK CFI 23a6c .cfa: x29 64 +
STACK CFI INIT 23aa8 184 .cfa: sp 0 +
STACK CFI 23aac .cfa: sp 144 +
STACK CFI 23ac4 .cfa: x29 80 + x19: .cfa -8 + ^ x20: .cfa -16 + ^ x21: .cfa -24 + ^ x22: .cfa -32 + ^ x23: .cfa -40 + ^ x24: .cfa -48 + ^ x25: .cfa -56 + ^ x26: .cfa -64 + ^ .ra: .cfa -72 + ^ x29: .cfa -80 + ^
STACK CFI 23bc4 .cfa: sp 144 +
STACK CFI 23bdc .cfa: sp 0 +
STACK CFI 23be0 .cfa: x29 80 +
STACK CFI INIT 23c30 ec .cfa: sp 0 +
STACK CFI 23c34 .cfa: sp 48 +
STACK CFI 23c40 .cfa: x29 48 + x19: .cfa -8 + ^ x20: .cfa -16 + ^ x21: .cfa -24 + ^ x22: .cfa -32 + ^ .ra: .cfa -40 + ^ x29: .cfa -48 + ^
STACK CFI 23c8c .cfa: sp 48 +
STACK CFI 23c98 .cfa: sp 0 +
STACK CFI 23c9c .cfa: x29 48 +
STACK CFI 23ca0 .cfa: sp 48 +
STACK CFI 23cac .cfa: sp 0 +
STACK CFI 23cb0 .cfa: x29 48 +
STACK CFI INIT 2418c ec .cfa: sp 0 +
STACK CFI 24190 .cfa: sp 48 +
STACK CFI 2419c .cfa: x29 48 + x19: .cfa -8 + ^ x20: .cfa -16 + ^ x21: .cfa -24 + ^ x22: .cfa -32 + ^ .ra: .cfa -40 + ^ x29: .cfa -48 + ^
STACK CFI 241e8 .cfa: sp 48 +
STACK CFI 241f4 .cfa: sp 0 +
STACK CFI 241f8 .cfa: x29 48 +
STACK CFI 241fc .cfa: sp 48 +
STACK CFI 24208 .cfa: sp 0 +
STACK CFI 2420c .cfa: x29 48 +
STACK CFI INIT 24278 dc .cfa: sp 0 +
STACK CFI 2427c .cfa: sp 32 +
STACK CFI 24284 .cfa: x29 32 + x19: .cfa -8 + ^ x20: .cfa -16 + ^ .ra: .cfa -24 + ^ x29: .cfa -32 + ^
STACK CFI 24310 .cfa: sp 32 +
STACK CFI 24318 .cfa: sp 0 +
STACK CFI 2431c .cfa: x29 32 +
STACK CFI 24334 .cfa: sp 32 +
STACK CFI 2433c .cfa: sp 0 +
STACK CFI 24340 .cfa: x29 32 +
STACK CFI INIT 24354 81c .cfa: sp 0 +
STACK CFI 24358 .cfa: sp 240 +
STACK CFI 24370 .cfa: x29 80 + x19: .cfa -8 + ^ x20: .cfa -16 + ^ x21: .cfa -24 + ^ x22: .cfa -32 + ^ x23: .cfa -40 + ^ x24: .cfa -48 + ^ x25: .cfa -64 + ^ .ra: .cfa -72 + ^ x29: .cfa -80 + ^
STACK CFI 24a64 .cfa: sp 240 +
STACK CFI 24a7c .cfa: sp 0 +
STACK CFI 24a80 .cfa: x29 80 +
STACK CFI INIT 24b70 1c8 .cfa: sp 0 +
STACK CFI 24b74 .cfa: sp 112 +
STACK CFI 24b88 .cfa: x29 48 + x19: .cfa -8 + ^ x20: .cfa -16 + ^ x21: .cfa -24 + ^ x22: .cfa -32 + ^ .ra: .cfa -40 + ^ x29: .cfa -48 + ^ v8: .cfa -64 + ^
STACK CFI 24cd4 .cfa: sp 112 +
STACK CFI 24ce8 .cfa: sp 0 +
STACK CFI 24cec .cfa: x29 48 +
STACK CFI INIT 24d38 264 .cfa: sp 0 +
STACK CFI 24d3c .cfa: sp 128 +
STACK CFI 24d54 .cfa: x29 56 + x19: .cfa -8 + ^ x20: .cfa -16 + ^ x21: .cfa -24 + ^ x22: .cfa -32 + ^ x23: .cfa -40 + ^ .ra: .cfa -48 + ^ x29: .cfa -56 + ^ v8: .cfa -64 + ^
STACK CFI 24f4c .cfa: sp 128 +
STACK CFI 24f64 .cfa: sp 0 +
STACK CFI 24f68 .cfa: x29 56 +
STACK CFI INIT 251bc 9a8 .cfa: sp 0 +
STACK CFI 251c0 .cfa: sp 288 +
STACK CFI 251ec .cfa: x29 96 + x19: .cfa -8 + ^ x20: .cfa -16 + ^ x21: .cfa -24 + ^ x22: .cfa -32 + ^ x23: .cfa -40 + ^ x24: .cfa -48 + ^ x25: .cfa -56 + ^ x26: .cfa -64 + ^ x27: .cfa -72 + ^ x28: .cfa -80 + ^ .ra: .cfa -88 + ^ x29: .cfa -96 + ^ v8: .cfa -104 + ^ v9: .cfa -112 + ^ v10: .cfa -120 + ^ v11: .cfa -128 + ^ v12: .cfa -136 + ^ v13: .cfa -144 + ^ v14: .cfa -152 + ^ v15: .cfa -160 + ^
STACK CFI 2523c .cfa: sp 288 +
STACK CFI 25268 .cfa: sp 0 +
STACK CFI 2526c .cfa: x29 96 +
STACK CFI INIT 25ca0 130 .cfa: sp 0 +
STACK CFI 25ca4 .cfa: sp 96 +
STACK CFI 25cb8 .cfa: x29 48 + x19: .cfa -8 + ^ x20: .cfa -16 + ^ x21: .cfa -24 + ^ x22: .cfa -32 + ^ .ra: .cfa -40 + ^ x29: .cfa -48 + ^ v8: .cfa -64 + ^
STACK CFI 25db0 .cfa: sp 96 +
STACK CFI 25dc4 .cfa: sp 0 +
STACK CFI 25dc8 .cfa: x29 48 +
STACK CFI INIT 25dd0 684 .cfa: sp 0 +
STACK CFI 25dd4 .cfa: sp 192 +
STACK CFI 25df8 .cfa: x29 96 + x19: .cfa -8 + ^ x20: .cfa -16 + ^ x21: .cfa -24 + ^ x22: .cfa -32 + ^ x23: .cfa -40 + ^ x24: .cfa -48 + ^ x25: .cfa -56 + ^ x26: .cfa -64 + ^ x27: .cfa -72 + ^ x28: .cfa -80 + ^ .ra: .cfa -88 + ^ x29: .cfa -96 + ^ v8: .cfa -104 + ^ v9: .cfa -112 + ^ v10: .cfa -128 + ^
STACK CFI 2638c .cfa: sp 192 +
STACK CFI 263b0 .cfa: sp 0 +
STACK CFI 263b4 .cfa: x29 96 +
STACK CFI INIT 26454 1e8 .cfa: sp 0 +
STACK CFI 26458 .cfa: sp 160 +
STACK CFI 26468 .cfa: x29 48 + x19: .cfa -8 + ^ x20: .cfa -16 + ^ x21: .cfa -24 + ^ x22: .cfa -32 + ^ .ra: .cfa -40 + ^ x29: .cfa -48 + ^
STACK CFI 265d0 .cfa: sp 160 +
STACK CFI 265e0 .cfa: sp 0 +
STACK CFI 265e4 .cfa: x29 48 +
STACK CFI INIT 26b78 6c8 .cfa: sp 0 +
STACK CFI 26b7c .cfa: sp 160 +
STACK CFI 26b9c .cfa: x29 96 + x19: .cfa -8 + ^ x20: .cfa -16 + ^ x21: .cfa -24 + ^ x22: .cfa -32 + ^ x23: .cfa -40 + ^ x24: .cfa -48 + ^ x25: .cfa -56 + ^ x26: .cfa -64 + ^ x27: .cfa -72 + ^ x28: .cfa -80 + ^ .ra: .cfa -88 + ^ x29: .cfa -96 + ^ v8: .cfa -104 + ^ v9: .cfa -112 + ^
STACK CFI 271bc .cfa: sp 160 +
STACK CFI 271dc .cfa: sp 0 +
STACK CFI 271e0 .cfa: x29 96 +
STACK CFI INIT 2738c 74 .cfa: sp 0 +
STACK CFI 27390 .cfa: sp 48 +
STACK CFI 2739c .cfa: x29 32 + x19: .cfa -8 + ^ x20: .cfa -16 + ^ .ra: .cfa -24 + ^ x29: .cfa -32 + ^
STACK CFI 273e8 .cfa: sp 48 +
STACK CFI 273f4 .cfa: sp 0 +
STACK CFI 273f8 .cfa: x29 32 +
STACK CFI INIT 27400 108 .cfa: sp 0 +
STACK CFI 27404 .cfa: sp 112 +
STACK CFI 27410 .cfa: x29 32 + x19: .cfa -8 + ^ x20: .cfa -16 + ^ .ra: .cfa -24 + ^ x29: .cfa -32 + ^
STACK CFI 274d8 .cfa: sp 112 +
STACK CFI 274e4 .cfa: sp 0 +
STACK CFI 274e8 .cfa: x29 32 +
STACK CFI INIT 278a8 174 .cfa: sp 0 +
STACK CFI 278ac .cfa: sp 112 +
STACK CFI 278bc .cfa: x29 48 + x19: .cfa -8 + ^ x20: .cfa -16 + ^ x21: .cfa -32 + ^ .ra: .cfa -40 + ^ x29: .cfa -48 + ^
STACK CFI 279b8 .cfa: sp 112 +
STACK CFI 279c8 .cfa: sp 0 +
STACK CFI 279cc .cfa: x29 48 +
STACK CFI INIT 27b6c 118 .cfa: sp 0 +
STACK CFI 27b70 .cfa: sp 80 +
STACK CFI 27b80 .cfa: x29 48 + x19: .cfa -8 + ^ x20: .cfa -16 + ^ x21: .cfa -32 + ^ .ra: .cfa -40 + ^ x29: .cfa -48 + ^
STACK CFI 27c04 .cfa: sp 80 +
STACK CFI 27c14 .cfa: sp 0 +
STACK CFI 27c18 .cfa: x29 48 +
STACK CFI INIT 27c84 c4 .cfa: sp 0 +
STACK CFI 27c88 .cfa: sp 32 +
STACK CFI 27c90 .cfa: x29 32 + x19: .cfa -8 + ^ x20: .cfa -16 + ^ .ra: .cfa -24 + ^ x29: .cfa -32 + ^
STACK CFI 27d04 .cfa: sp 32 +
STACK CFI 27d0c .cfa: sp 0 +
STACK CFI 27d10 .cfa: x29 32 +
STACK CFI 27d28 .cfa: sp 32 +
STACK CFI 27d30 .cfa: sp 0 +
STACK CFI 27d34 .cfa: x29 32 +
STACK CFI INIT 27d48 27c .cfa: sp 0 +
STACK CFI 27d4c .cfa: sp 160 +
STACK CFI 27d6c .cfa: x29 96 + x19: .cfa -8 + ^ x20: .cfa -16 + ^ x21: .cfa -24 + ^ x22: .cfa -32 + ^ x23: .cfa -40 + ^ x24: .cfa -48 + ^ x25: .cfa -56 + ^ x26: .cfa -64 + ^ x27: .cfa -72 + ^ x28: .cfa -80 + ^ .ra: .cfa -88 + ^ x29: .cfa -96 + ^ v8: .cfa -112 + ^
STACK CFI 27efc .cfa: sp 160 +
STACK CFI 27f1c .cfa: sp 0 +
STACK CFI 27f20 .cfa: x29 96 +
STACK CFI 27f30 .cfa: sp 160 +
STACK CFI 27f50 .cfa: sp 0 +
STACK CFI 27f54 .cfa: x29 96 +
STACK CFI INIT 27fc4 c84 .cfa: sp 0 +
STACK CFI 27fc8 .cfa: sp 160 +
STACK CFI 27fe8 .cfa: x29 96 + x19: .cfa -8 + ^ x20: .cfa -16 + ^ x21: .cfa -24 + ^ x22: .cfa -32 + ^ x23: .cfa -40 + ^ x24: .cfa -48 + ^ x25: .cfa -56 + ^ x26: .cfa -64 + ^ x27: .cfa -72 + ^ x28: .cfa -80 + ^ .ra: .cfa -88 + ^ x29: .cfa -96 + ^ v8: .cfa -104 + ^ v9: .cfa -112 + ^
STACK CFI 289dc .cfa: sp 160 +
STACK CFI 289fc .cfa: sp 0 +
STACK CFI 28a00 .cfa: x29 96 +
STACK CFI 28a10 .cfa: sp 160 +
STACK CFI 28a30 .cfa: sp 0 +
STACK CFI 28a34 .cfa: x29 96 +
STACK CFI INIT 28ff4 470 .cfa: sp 0 +
STACK CFI 28ff8 .cfa: sp 224 +
STACK CFI 29014 .cfa: x29 96 + x19: .cfa -8 + ^ x20: .cfa -16 + ^ x21: .cfa -24 + ^ x22: .cfa -32 + ^ x23: .cfa -40 + ^ x24: .cfa -48 + ^ x25: .cfa -56 + ^ x26: .cfa -64 + ^ x27: .cfa -80 + ^ .ra: .cfa -88 + ^ x29: .cfa -96 + ^
STACK CFI 29270 .cfa: sp 224 +
STACK CFI 2928c .cfa: sp 0 +
STACK CFI 29290 .cfa: x29 96 +
STACK CFI 2935c .cfa: sp 224 +
STACK CFI 29378 .cfa: sp 0 +
STACK CFI 2937c .cfa: x29 96 +
STACK CFI INIT 29480 384 .cfa: sp 0 +
STACK CFI 29484 .cfa: sp 240 +
STACK CFI 29498 .cfa: x29 64 + x19: .cfa -8 + ^ x20: .cfa -16 + ^ x21: .cfa -24 + ^ x22: .cfa -32 + ^ x23: .cfa -48 + ^ .ra: .cfa -56 + ^ x29: .cfa -64 + ^
STACK CFI 296c8 .cfa: sp 240 +
STACK CFI 296dc .cfa: sp 0 +
STACK CFI 296e0 .cfa: x29 64 +
STACK CFI INIT 29808 2e0 .cfa: sp 0 +
STACK CFI 2980c .cfa: sp 176 +
STACK CFI 29820 .cfa: x29 64 + x19: .cfa -8 + ^ x20: .cfa -16 + ^ x21: .cfa -24 + ^ x22: .cfa -32 + ^ x23: .cfa -40 + ^ x24: .cfa -48 + ^ .ra: .cfa -56 + ^ x29: .cfa -64 + ^
STACK CFI 299bc .cfa: sp 176 +
STACK CFI 299d0 .cfa: sp 0 +
STACK CFI 299d4 .cfa: x29 64 +
STACK CFI INIT 29ae8 1d0 .cfa: sp 0 +
STACK CFI 29aec .cfa: sp 320 +
STACK CFI 29b04 .cfa: x29 80 + x19: .cfa -8 + ^ x20: .cfa -16 + ^ x21: .cfa -24 + ^ x22: .cfa -32 + ^ x23: .cfa -40 + ^ x24: .cfa -48 + ^ x28: .cfa -64 + ^ .ra: .cfa -72 + ^ x29: .cfa -80 + ^
STACK CFI 29c6c .cfa: sp 320 +
STACK CFI 29c84 .cfa: sp 0 +
STACK CFI 29c88 .cfa: x29 80 +
STACK CFI INIT 2c8b8 3ec .cfa: sp 0 +
STACK CFI 2c8bc .cfa: sp 224 +
STACK CFI 2c8d8 .cfa: x29 96 + x19: .cfa -8 + ^ x20: .cfa -16 + ^ x21: .cfa -24 + ^ x22: .cfa -32 + ^ x23: .cfa -40 + ^ x24: .cfa -48 + ^ x25: .cfa -56 + ^ x26: .cfa -64 + ^ x27: .cfa -72 + ^ x28: .cfa -80 + ^ .ra: .cfa -88 + ^ x29: .cfa -96 + ^
STACK CFI 2cba0 .cfa: sp 224 +
STACK CFI 2cbbc .cfa: sp 0 +
STACK CFI 2cbc0 .cfa: x29 96 +
STACK CFI INIT 2cca4 42c .cfa: sp 0 +
STACK CFI 2cca8 .cfa: sp 144 +
STACK CFI 2ccbc .cfa: x29 64 + x19: .cfa -8 + ^ x20: .cfa -16 + ^ x21: .cfa -24 + ^ x22: .cfa -32 + ^ x23: .cfa -40 + ^ x24: .cfa -48 + ^ .ra: .cfa -56 + ^ x29: .cfa -64 + ^
STACK CFI 2cf90 .cfa: sp 144 +
STACK CFI 2cfa4 .cfa: sp 0 +
STACK CFI 2cfa8 .cfa: x29 64 +
STACK CFI INIT 2d0d4 184 .cfa: sp 0 +
STACK CFI 2d0d8 .cfa: sp 144 +
STACK CFI 2d0f0 .cfa: x29 80 + x19: .cfa -8 + ^ x20: .cfa -16 + ^ x21: .cfa -24 + ^ x22: .cfa -32 + ^ x23: .cfa -40 + ^ x24: .cfa -48 + ^ x25: .cfa -56 + ^ x26: .cfa -64 + ^ .ra: .cfa -72 + ^ x29: .cfa -80 + ^
STACK CFI 2d1f0 .cfa: sp 144 +
STACK CFI 2d208 .cfa: sp 0 +
STACK CFI 2d20c .cfa: x29 80 +
STACK CFI INIT 2d2c4 134 .cfa: sp 0 +
STACK CFI 2d2c8 .cfa: sp 128 +
STACK CFI 2d2dc .cfa: x29 64 + x19: .cfa -8 + ^ x20: .cfa -16 + ^ x21: .cfa -24 + ^ x22: .cfa -32 + ^ x23: .cfa -40 + ^ x24: .cfa -48 + ^ .ra: .cfa -56 + ^ x29: .cfa -64 + ^
STACK CFI 2d3a8 .cfa: sp 128 +
STACK CFI 2d3bc .cfa: sp 0 +
STACK CFI 2d3c0 .cfa: x29 64 +
STACK CFI INIT 2d458 ec .cfa: sp 0 +
STACK CFI 2d45c .cfa: sp 48 +
STACK CFI 2d468 .cfa: x29 48 + x19: .cfa -8 + ^ x20: .cfa -16 + ^ x21: .cfa -24 + ^ x22: .cfa -32 + ^ .ra: .cfa -40 + ^ x29: .cfa -48 + ^
STACK CFI 2d4b4 .cfa: sp 48 +
STACK CFI 2d4c0 .cfa: sp 0 +
STACK CFI 2d4c4 .cfa: x29 48 +
STACK CFI 2d4c8 .cfa: sp 48 +
STACK CFI 2d4d4 .cfa: sp 0 +
STACK CFI 2d4d8 .cfa: x29 48 +
STACK CFI INIT 2d5dc ec .cfa: sp 0 +
STACK CFI 2d5e0 .cfa: sp 48 +
STACK CFI 2d5ec .cfa: x29 48 + x19: .cfa -8 + ^ x20: .cfa -16 + ^ x21: .cfa -24 + ^ x22: .cfa -32 + ^ .ra: .cfa -40 + ^ x29: .cfa -48 + ^
STACK CFI 2d638 .cfa: sp 48 +
STACK CFI 2d644 .cfa: sp 0 +
STACK CFI 2d648 .cfa: x29 48 +
STACK CFI 2d64c .cfa: sp 48 +
STACK CFI 2d658 .cfa: sp 0 +
STACK CFI 2d65c .cfa: x29 48 +
STACK CFI INIT 2d6c8 448 .cfa: sp 0 +
STACK CFI 2d6cc .cfa: sp 240 +
STACK CFI 2d6e8 .cfa: x29 96 + x19: .cfa -8 + ^ x20: .cfa -16 + ^ x21: .cfa -24 + ^ x22: .cfa -32 + ^ x23: .cfa -40 + ^ x24: .cfa -48 + ^ x25: .cfa -56 + ^ x26: .cfa -64 + ^ x27: .cfa -72 + ^ x28: .cfa -80 + ^ .ra: .cfa -88 + ^ x29: .cfa -96 + ^
STACK CFI 2da48 .cfa: sp 240 +
STACK CFI 2da64 .cfa: sp 0 +
STACK CFI 2da68 .cfa: x29 96 +
STACK CFI INIT 2db10 1c .cfa: sp 0 +
STACK CFI 2db14 .cfa: sp 16 +
STACK CFI 2db18 .cfa: x29 16 + .ra: .cfa -8 + ^ x29: .cfa -16 + ^
STACK CFI 2db20 .cfa: sp 16 +
STACK CFI 2db24 .cfa: sp 0 +
STACK CFI 2db28 .cfa: x29 16 +
STACK CFI INIT 2dc24 354 .cfa: sp 0 +
STACK CFI 2dc28 .cfa: sp 160 +
STACK CFI 2dc4c .cfa: x29 96 + x19: .cfa -8 + ^ x20: .cfa -16 + ^ x21: .cfa -24 + ^ x22: .cfa -32 + ^ x23: .cfa -40 + ^ x24: .cfa -48 + ^ x25: .cfa -56 + ^ x26: .cfa -64 + ^ x27: .cfa -72 + ^ x28: .cfa -80 + ^ .ra: .cfa -88 + ^ x29: .cfa -96 + ^ v8: .cfa -104 + ^ v9: .cfa -112 + ^ v10: .cfa -128 + ^
STACK CFI 2df08 .cfa: sp 160 +
STACK CFI 2df2c .cfa: sp 0 +
STACK CFI 2df30 .cfa: x29 96 +
STACK CFI INIT 2e078 164 .cfa: sp 0 +
STACK CFI 2e07c .cfa: sp 112 +
STACK CFI 2e08c .cfa: x29 48 + x19: .cfa -8 + ^ x20: .cfa -16 + ^ x21: .cfa -32 + ^ .ra: .cfa -40 + ^ x29: .cfa -48 + ^
STACK CFI 2e178 .cfa: sp 112 +
STACK CFI 2e188 .cfa: sp 0 +
STACK CFI 2e18c .cfa: x29 48 +
STACK CFI INIT 2e1dc 170 .cfa: sp 0 +
STACK CFI 2e1e0 .cfa: sp 112 +
STACK CFI 2e1f0 .cfa: x29 48 + x19: .cfa -8 + ^ x20: .cfa -16 + ^ x21: .cfa -32 + ^ .ra: .cfa -40 + ^ x29: .cfa -48 + ^
STACK CFI 2e29c .cfa: sp 112 +
STACK CFI 2e2ac .cfa: sp 0 +
STACK CFI 2e2b0 .cfa: x29 48 +
STACK CFI INIT 2e34c 2fc .cfa: sp 0 +
STACK CFI 2e350 .cfa: sp 160 +
STACK CFI 2e36c .cfa: x29 96 + x19: .cfa -8 + ^ x20: .cfa -16 + ^ x21: .cfa -24 + ^ x22: .cfa -32 + ^ x23: .cfa -40 + ^ x24: .cfa -48 + ^ x25: .cfa -56 + ^ x26: .cfa -64 + ^ x27: .cfa -72 + ^ x28: .cfa -80 + ^ .ra: .cfa -88 + ^ x29: .cfa -96 + ^
STACK CFI 2e5c8 .cfa: sp 160 +
STACK CFI 2e5e4 .cfa: sp 0 +
STACK CFI 2e5e8 .cfa: x29 96 +
STACK CFI INIT 2e6c4 168 .cfa: sp 0 +
STACK CFI 2e6c8 .cfa: sp 384 +
STACK CFI 2e6dc .cfa: x29 64 + x19: .cfa -8 + ^ x20: .cfa -16 + ^ x21: .cfa -24 + ^ x22: .cfa -32 + ^ x23: .cfa -40 + ^ x28: .cfa -48 + ^ .ra: .cfa -56 + ^ x29: .cfa -64 + ^
STACK CFI 2e7d4 .cfa: sp 384 +
STACK CFI 2e7e8 .cfa: sp 0 +
STACK CFI 2e7ec .cfa: x29 64 +
STACK CFI INIT 2e844 470 .cfa: sp 0 +
STACK CFI 2e848 .cfa: sp 224 +
STACK CFI 2e864 .cfa: x29 96 + x19: .cfa -8 + ^ x20: .cfa -16 + ^ x21: .cfa -24 + ^ x22: .cfa -32 + ^ x23: .cfa -40 + ^ x24: .cfa -48 + ^ x25: .cfa -56 + ^ x26: .cfa -64 + ^ x27: .cfa -80 + ^ .ra: .cfa -88 + ^ x29: .cfa -96 + ^
STACK CFI 2eac0 .cfa: sp 224 +
STACK CFI 2eadc .cfa: sp 0 +
STACK CFI 2eae0 .cfa: x29 96 +
STACK CFI 2ebac .cfa: sp 224 +
STACK CFI 2ebc8 .cfa: sp 0 +
STACK CFI 2ebcc .cfa: x29 96 +
STACK CFI INIT 2ecd0 32c .cfa: sp 0 +
STACK CFI 2ecd4 .cfa: sp 240 +
STACK CFI 2ece8 .cfa: x29 64 + x19: .cfa -8 + ^ x20: .cfa -16 + ^ x21: .cfa -24 + ^ x22: .cfa -32 + ^ x23: .cfa -48 + ^ .ra: .cfa -56 + ^ x29: .cfa -64 + ^
STACK CFI 2eee4 .cfa: sp 240 +
STACK CFI 2eef8 .cfa: sp 0 +
STACK CFI 2eefc .cfa: x29 64 +
STACK CFI INIT 2f0ec 188 .cfa: sp 0 +
STACK CFI 2f0f0 .cfa: sp 112 +
STACK CFI 2f100 .cfa: x29 48 + x19: .cfa -8 + ^ x20: .cfa -16 + ^ x21: .cfa -32 + ^ .ra: .cfa -40 + ^ x29: .cfa -48 + ^
STACK CFI 2f220 .cfa: sp 112 +
STACK CFI 2f230 .cfa: sp 0 +
STACK CFI 2f234 .cfa: x29 48 +
STACK CFI INIT 2f6d0 1e8 .cfa: sp 0 +
STACK CFI 2f6d4 .cfa: sp 64 +
STACK CFI 2f6e0 .cfa: x29 32 + x19: .cfa -8 + ^ x20: .cfa -16 + ^ .ra: .cfa -24 + ^ x29: .cfa -32 + ^
STACK CFI 2f878 .cfa: sp 64 +
STACK CFI 2f884 .cfa: sp 0 +
STACK CFI 2f888 .cfa: x29 32 +
STACK CFI INIT 2f97c 134 .cfa: sp 0 +
STACK CFI 2f980 .cfa: sp 80 +
STACK CFI 2f98c .cfa: x29 32 + x19: .cfa -8 + ^ x20: .cfa -16 + ^ .ra: .cfa -24 + ^ x29: .cfa -32 + ^
STACK CFI 2f9bc .cfa: sp 80 +
STACK CFI 2f9c8 .cfa: sp 0 +
STACK CFI 2f9cc .cfa: x29 32 +
STACK CFI INIT 2fab0 78 .cfa: sp 0 +
STACK CFI 2fab4 .cfa: sp 32 +
STACK CFI 2fabc .cfa: x29 32 + x19: .cfa -8 + ^ x20: .cfa -16 + ^ .ra: .cfa -24 + ^ x29: .cfa -32 + ^
STACK CFI 2fac8 .cfa: sp 32 +
STACK CFI 2fad0 .cfa: sp 0 +
STACK CFI 2fad4 .cfa: x29 32 +
STACK CFI INIT 2fb28 74 .cfa: sp 0 +
STACK CFI 2fb2c .cfa: sp 48 +
STACK CFI 2fb38 .cfa: x29 32 + x19: .cfa -8 + ^ x20: .cfa -16 + ^ .ra: .cfa -24 + ^ x29: .cfa -32 + ^
STACK CFI 2fb84 .cfa: sp 48 +
STACK CFI 2fb90 .cfa: sp 0 +
STACK CFI 2fb94 .cfa: x29 32 +
STACK CFI INIT 2fc24 25c .cfa: sp 0 +
STACK CFI 2fc28 .cfa: sp 128 +
STACK CFI 2fc38 .cfa: x29 48 + x19: .cfa -8 + ^ x20: .cfa -16 + ^ x21: .cfa -32 + ^ .ra: .cfa -40 + ^ x29: .cfa -48 + ^
STACK CFI 2fd20 .cfa: sp 128 +
STACK CFI 2fd30 .cfa: sp 0 +
STACK CFI 2fd34 .cfa: x29 48 +
STACK CFI INIT 2fec8 224 .cfa: sp 0 +
STACK CFI 2fecc .cfa: sp 128 +
STACK CFI 2fedc .cfa: x29 48 + x19: .cfa -8 + ^ x20: .cfa -16 + ^ x21: .cfa -32 + ^ .ra: .cfa -40 + ^ x29: .cfa -48 + ^
STACK CFI 2ff8c .cfa: sp 128 +
STACK CFI 2ff9c .cfa: sp 0 +
STACK CFI 2ffa0 .cfa: x29 48 +
STACK CFI INIT 30110 22c .cfa: sp 0 +
STACK CFI 30114 .cfa: sp 128 +
STACK CFI 30124 .cfa: x29 48 + x19: .cfa -8 + ^ x20: .cfa -16 + ^ x21: .cfa -32 + ^ .ra: .cfa -40 + ^ x29: .cfa -48 + ^
STACK CFI 301dc .cfa: sp 128 +
STACK CFI 301ec .cfa: sp 0 +
STACK CFI 301f0 .cfa: x29 48 +
STACK CFI INIT 3033c 270 .cfa: sp 0 +
STACK CFI 30340 .cfa: sp 144 +
STACK CFI 30354 .cfa: x29 64 + x19: .cfa -8 + ^ x20: .cfa -16 + ^ x21: .cfa -24 + ^ x22: .cfa -32 + ^ x23: .cfa -48 + ^ .ra: .cfa -56 + ^ x29: .cfa -64 + ^
STACK CFI 30450 .cfa: sp 144 +
STACK CFI 30464 .cfa: sp 0 +
STACK CFI 30468 .cfa: x29 64 +
STACK CFI INIT 305ac 284 .cfa: sp 0 +
STACK CFI 305b0 .cfa: sp 128 +
STACK CFI 305c0 .cfa: x29 48 + x19: .cfa -8 + ^ x20: .cfa -16 + ^ x21: .cfa -32 + ^ .ra: .cfa -40 + ^ x29: .cfa -48 + ^
STACK CFI 306d8 .cfa: sp 128 +
STACK CFI 306e8 .cfa: sp 0 +
STACK CFI 306ec .cfa: x29 48 +
STACK CFI INIT 30884 28c .cfa: sp 0 +
STACK CFI 30888 .cfa: sp 128 +
STACK CFI 30898 .cfa: x29 48 + x19: .cfa -8 + ^ x20: .cfa -16 + ^ x21: .cfa -32 + ^ .ra: .cfa -40 + ^ x29: .cfa -48 + ^
STACK CFI 309b8 .cfa: sp 128 +
STACK CFI 309c8 .cfa: sp 0 +
STACK CFI 309cc .cfa: x29 48 +
STACK CFI INIT 30b10 300 .cfa: sp 0 +
STACK CFI 30b14 .cfa: sp 144 +
STACK CFI 30b28 .cfa: x29 64 + x19: .cfa -8 + ^ x20: .cfa -16 + ^ x21: .cfa -24 + ^ x22: .cfa -32 + ^ x23: .cfa -48 + ^ .ra: .cfa -56 + ^ x29: .cfa -64 + ^
STACK CFI 30cbc .cfa: sp 144 +
STACK CFI 30cd0 .cfa: sp 0 +
STACK CFI 30cd4 .cfa: x29 64 +
STACK CFI INIT 30e64 264 .cfa: sp 0 +
STACK CFI 30e68 .cfa: sp 128 +
STACK CFI 30e78 .cfa: x29 48 + x19: .cfa -8 + ^ x20: .cfa -16 + ^ x21: .cfa -32 + ^ .ra: .cfa -40 + ^ x29: .cfa -48 + ^
STACK CFI 30f70 .cfa: sp 128 +
STACK CFI 30f80 .cfa: sp 0 +
STACK CFI 30f84 .cfa: x29 48 +
STACK CFI INIT 3111c 260 .cfa: sp 0 +
STACK CFI 31120 .cfa: sp 128 +
STACK CFI 31130 .cfa: x29 48 + x19: .cfa -8 + ^ x20: .cfa -16 + ^ x21: .cfa -32 + ^ .ra: .cfa -40 + ^ x29: .cfa -48 + ^
STACK CFI 31224 .cfa: sp 128 +
STACK CFI 31234 .cfa: sp 0 +
STACK CFI 31238 .cfa: x29 48 +
STACK CFI INIT 313a0 2b8 .cfa: sp 0 +
STACK CFI 313a4 .cfa: sp 144 +
STACK CFI 313b8 .cfa: x29 64 + x19: .cfa -8 + ^ x20: .cfa -16 + ^ x21: .cfa -24 + ^ x22: .cfa -32 + ^ x23: .cfa -48 + ^ .ra: .cfa -56 + ^ x29: .cfa -64 + ^
STACK CFI 31504 .cfa: sp 144 +
STACK CFI 31518 .cfa: sp 0 +
STACK CFI 3151c .cfa: x29 64 +
STACK CFI INIT 31658 178 .cfa: sp 0 +
STACK CFI 3165c .cfa: sp 128 +
STACK CFI 3166c .cfa: x29 48 + x19: .cfa -8 + ^ x20: .cfa -16 + ^ x21: .cfa -24 + ^ x22: .cfa -32 + ^ .ra: .cfa -40 + ^ x29: .cfa -48 + ^
STACK CFI 316c8 .cfa: sp 128 +
STACK CFI 316d8 .cfa: sp 0 +
STACK CFI 316dc .cfa: x29 48 +
STACK CFI INIT 317d0 a0 .cfa: sp 0 +
STACK CFI 317d4 .cfa: sp 48 +
STACK CFI 317e0 .cfa: x29 48 + x19: .cfa -8 + ^ x20: .cfa -16 + ^ x21: .cfa -32 + ^ .ra: .cfa -40 + ^ x29: .cfa -48 + ^
STACK CFI 31848 .cfa: sp 48 +
STACK CFI 31854 .cfa: sp 0 +
STACK CFI 31858 .cfa: x29 48 +
STACK CFI INIT 318c4 2c0 .cfa: sp 0 +
STACK CFI 318c8 .cfa: sp 144 +
STACK CFI 318dc .cfa: x29 64 + x19: .cfa -8 + ^ x20: .cfa -16 + ^ x21: .cfa -24 + ^ x22: .cfa -32 + ^ x23: .cfa -48 + ^ .ra: .cfa -56 + ^ x29: .cfa -64 + ^
STACK CFI 31a30 .cfa: sp 144 +
STACK CFI 31a44 .cfa: sp 0 +
STACK CFI 31a48 .cfa: x29 64 +
STACK CFI INIT 31b84 1a0 .cfa: sp 0 +
STACK CFI 31b88 .cfa: sp 160 +
STACK CFI 31ba0 .cfa: x29 48 + x19: .cfa -8 + ^ x20: .cfa -16 + ^ x21: .cfa -24 + ^ x22: .cfa -32 + ^ .ra: .cfa -40 + ^ x29: .cfa -48 + ^ v8: .cfa -56 + ^ v9: .cfa -64 + ^ v10: .cfa -80 + ^
STACK CFI 31c14 .cfa: sp 160 +
STACK CFI 31c2c .cfa: sp 0 +
STACK CFI 31c30 .cfa: x29 48 +
STACK CFI INIT 31d24 15c .cfa: sp 0 +
STACK CFI 31d28 .cfa: sp 64 +
STACK CFI 31d38 .cfa: x29 48 + x19: .cfa -8 + ^ x20: .cfa -16 + ^ x21: .cfa -24 + ^ x22: .cfa -32 + ^ .ra: .cfa -40 + ^ x29: .cfa -48 + ^
STACK CFI 31e20 .cfa: sp 64 +
STACK CFI 31e30 .cfa: sp 0 +
STACK CFI 31e34 .cfa: x29 48 +
STACK CFI INIT 31e84 160 .cfa: sp 0 +
STACK CFI 31e88 .cfa: sp 144 +
STACK CFI 31e9c .cfa: x29 64 + x19: .cfa -8 + ^ x20: .cfa -16 + ^ x21: .cfa -24 + ^ x22: .cfa -32 + ^ x23: .cfa -48 + ^ .ra: .cfa -56 + ^ x29: .cfa -64 + ^
STACK CFI 31eec .cfa: sp 144 +
STACK CFI 31f00 .cfa: sp 0 +
STACK CFI 31f04 .cfa: x29 64 +
STACK CFI INIT 31fe4 fc .cfa: sp 0 +
STACK CFI 31fe8 .cfa: sp 64 +
STACK CFI 31ff8 .cfa: x29 48 + x19: .cfa -8 + ^ x20: .cfa -16 + ^ x21: .cfa -24 + ^ x22: .cfa -32 + ^ .ra: .cfa -40 + ^ x29: .cfa -48 + ^
STACK CFI 32098 .cfa: sp 64 +
STACK CFI 320a8 .cfa: sp 0 +
STACK CFI 320ac .cfa: x29 48 +
STACK CFI INIT 32114 2e4 .cfa: sp 0 +
STACK CFI 32118 .cfa: sp 144 +
STACK CFI 3212c .cfa: x29 64 + x19: .cfa -8 + ^ x20: .cfa -16 + ^ x21: .cfa -24 + ^ x22: .cfa -32 + ^ x23: .cfa -48 + ^ .ra: .cfa -56 + ^ x29: .cfa -64 + ^
STACK CFI 322a4 .cfa: sp 144 +
STACK CFI 322b8 .cfa: sp 0 +
STACK CFI 322bc .cfa: x29 64 +
STACK CFI INIT 323f8 2f0 .cfa: sp 0 +
STACK CFI 323fc .cfa: sp 144 +
STACK CFI 32410 .cfa: x29 64 + x19: .cfa -8 + ^ x20: .cfa -16 + ^ x21: .cfa -24 + ^ x22: .cfa -32 + ^ x23: .cfa -48 + ^ .ra: .cfa -56 + ^ x29: .cfa -64 + ^
STACK CFI 32594 .cfa: sp 144 +
STACK CFI 325a8 .cfa: sp 0 +
STACK CFI 325ac .cfa: x29 64 +
STACK CFI INIT 326e8 2a0 .cfa: sp 0 +
STACK CFI 326ec .cfa: sp 144 +
STACK CFI 32700 .cfa: x29 64 + x19: .cfa -8 + ^ x20: .cfa -16 + ^ x21: .cfa -24 + ^ x22: .cfa -32 + ^ x23: .cfa -48 + ^ .ra: .cfa -56 + ^ x29: .cfa -64 + ^
STACK CFI 32834 .cfa: sp 144 +
STACK CFI 32848 .cfa: sp 0 +
STACK CFI 3284c .cfa: x29 64 +
STACK CFI INIT 32988 4f4 .cfa: sp 0 +
STACK CFI 3298c .cfa: sp 144 +
STACK CFI 329a0 .cfa: x29 64 + x19: .cfa -8 + ^ x20: .cfa -16 + ^ x21: .cfa -24 + ^ x22: .cfa -32 + ^ x23: .cfa -48 + ^ .ra: .cfa -56 + ^ x29: .cfa -64 + ^
STACK CFI 32cd4 .cfa: sp 144 +
STACK CFI 32ce8 .cfa: sp 0 +
STACK CFI 32cec .cfa: x29 64 +
STACK CFI INIT 32e7c 154 .cfa: sp 0 +
STACK CFI 32e80 .cfa: sp 384 +
STACK CFI 32e94 .cfa: x29 64 + x19: .cfa -8 + ^ x20: .cfa -16 + ^ x21: .cfa -24 + ^ x22: .cfa -32 + ^ x23: .cfa -40 + ^ x28: .cfa -48 + ^ .ra: .cfa -56 + ^ x29: .cfa -64 + ^
STACK CFI 32f78 .cfa: sp 384 +
STACK CFI 32f8c .cfa: sp 0 +
STACK CFI 32f90 .cfa: x29 64 +
STACK CFI INIT 32fe8 50c .cfa: sp 0 +
STACK CFI 32fec .cfa: sp 64 +
STACK CFI 32ffc .cfa: x29 64 + x19: .cfa -8 + ^ x20: .cfa -16 + ^ x21: .cfa -24 + ^ x22: .cfa -32 + ^ x23: .cfa -40 + ^ x24: .cfa -48 + ^ .ra: .cfa -56 + ^ x29: .cfa -64 + ^
STACK CFI 3311c .cfa: sp 64 +
STACK CFI 3312c .cfa: sp 0 +
STACK CFI 33130 .cfa: x29 64 +
STACK CFI 334c8 .cfa: sp 64 +
STACK CFI 334d8 .cfa: sp 0 +
STACK CFI 334dc .cfa: x29 64 +
STACK CFI INIT 33824 294 .cfa: sp 0 +
STACK CFI 33828 .cfa: sp 240 +
STACK CFI 33840 .cfa: x29 80 + x19: .cfa -8 + ^ x20: .cfa -16 + ^ x21: .cfa -24 + ^ x22: .cfa -32 + ^ x23: .cfa -40 + ^ x24: .cfa -48 + ^ x25: .cfa -64 + ^ .ra: .cfa -72 + ^ x29: .cfa -80 + ^
STACK CFI 339e0 .cfa: sp 240 +
STACK CFI 339f8 .cfa: sp 0 +
STACK CFI 339fc .cfa: x29 80 +
STACK CFI INIT 33b34 50 .cfa: sp 0 +
STACK CFI 33b38 .cfa: sp 32 +
STACK CFI 33b40 .cfa: x29 32 + x19: .cfa -8 + ^ x20: .cfa -16 + ^ .ra: .cfa -24 + ^ x29: .cfa -32 + ^
STACK CFI INIT 33bb0 7c0 .cfa: sp 0 +
STACK CFI 33bb4 .cfa: sp 320 +
STACK CFI 33bd0 .cfa: x29 96 + x19: .cfa -8 + ^ x20: .cfa -16 + ^ x21: .cfa -24 + ^ x22: .cfa -32 + ^ x23: .cfa -40 + ^ x24: .cfa -48 + ^ x25: .cfa -56 + ^ x26: .cfa -64 + ^ x27: .cfa -72 + ^ x28: .cfa -80 + ^ .ra: .cfa -88 + ^ x29: .cfa -96 + ^
STACK CFI 34220 .cfa: sp 320 +
STACK CFI 3423c .cfa: sp 0 +
STACK CFI 34240 .cfa: x29 96 +
STACK CFI INIT 343d4 14c .cfa: sp 0 +
STACK CFI 343d8 .cfa: sp 80 +
STACK CFI 343ec .cfa: x29 80 + x19: .cfa -8 + ^ x20: .cfa -16 + ^ x21: .cfa -24 + ^ x22: .cfa -32 + ^ x23: .cfa -40 + ^ x24: .cfa -48 + ^ x28: .cfa -64 + ^ .ra: .cfa -72 + ^ x29: .cfa -80 + ^
STACK CFI 34480 .cfa: sp 80 +
STACK CFI 34494 .cfa: sp 0 +
STACK CFI 34498 .cfa: x29 80 +
STACK CFI INIT 380c4 c84 .cfa: sp 0 +
STACK CFI 380c8 .cfa: sp 96 +
STACK CFI 380e0 .cfa: x29 96 + x19: .cfa -8 + ^ x20: .cfa -16 + ^ x21: .cfa -24 + ^ x22: .cfa -32 + ^ x23: .cfa -40 + ^ x24: .cfa -48 + ^ x25: .cfa -56 + ^ x26: .cfa -64 + ^ x27: .cfa -72 + ^ x28: .cfa -80 + ^ .ra: .cfa -88 + ^ x29: .cfa -96 + ^
STACK CFI 38b68 .cfa: sp 96 +
STACK CFI 38b80 .cfa: sp 0 +
STACK CFI 38b84 .cfa: x29 96 +
STACK CFI INIT 38e9c 268 .cfa: sp 0 +
STACK CFI 38ea0 .cfa: sp 128 +
STACK CFI 38eb0 .cfa: x29 48 + x19: .cfa -8 + ^ x20: .cfa -16 + ^ x21: .cfa -24 + ^ x22: .cfa -32 + ^ .ra: .cfa -40 + ^ x29: .cfa -48 + ^
STACK CFI 39050 .cfa: sp 128 +
STACK CFI 39060 .cfa: sp 0 +
STACK CFI 39064 .cfa: x29 48 +
STACK CFI INIT 3967c 3b8 .cfa: sp 0 +
STACK CFI 39680 .cfa: sp 96 +
STACK CFI 39698 .cfa: x29 96 + x19: .cfa -8 + ^ x20: .cfa -16 + ^ x21: .cfa -24 + ^ x22: .cfa -32 + ^ x23: .cfa -40 + ^ x24: .cfa -48 + ^ x25: .cfa -56 + ^ x26: .cfa -64 + ^ x27: .cfa -72 + ^ x28: .cfa -80 + ^ .ra: .cfa -88 + ^ x29: .cfa -96 + ^
STACK CFI 399d4 .cfa: sp 96 +
STACK CFI 399ec .cfa: sp 0 +
STACK CFI 399f0 .cfa: x29 96 +
STACK CFI INIT 39ad4 cbc .cfa: sp 0 +
STACK CFI 39ad8 .cfa: sp 96 +
STACK CFI 39af0 .cfa: x29 96 + x19: .cfa -8 + ^ x20: .cfa -16 + ^ x21: .cfa -24 + ^ x22: .cfa -32 + ^ x23: .cfa -40 + ^ x24: .cfa -48 + ^ x25: .cfa -56 + ^ x26: .cfa -64 + ^ x27: .cfa -72 + ^ x28: .cfa -80 + ^ .ra: .cfa -88 + ^ x29: .cfa -96 + ^
STACK CFI 3a5a0 .cfa: sp 96 +
STACK CFI 3a5b8 .cfa: sp 0 +
STACK CFI 3a5bc .cfa: x29 96 +
STACK CFI INIT 3aa78 ae0 .cfa: sp 0 +
STACK CFI 3aa7c .cfa: sp 96 +
STACK CFI 3aa94 .cfa: x29 96 + x19: .cfa -8 + ^ x20: .cfa -16 + ^ x21: .cfa -24 + ^ x22: .cfa -32 + ^ x23: .cfa -40 + ^ x24: .cfa -48 + ^ x25: .cfa -56 + ^ x26: .cfa -64 + ^ x27: .cfa -72 + ^ x28: .cfa -80 + ^ .ra: .cfa -88 + ^ x29: .cfa -96 + ^
STACK CFI 3b4cc .cfa: sp 96 +
STACK CFI 3b4e4 .cfa: sp 0 +
STACK CFI 3b4e8 .cfa: x29 96 +
STACK CFI INIT 3b74c 1424 .cfa: sp 0 +
STACK CFI 3b750 .cfa: sp 96 +
STACK CFI 3b768 .cfa: x29 96 + x19: .cfa -8 + ^ x20: .cfa -16 + ^ x21: .cfa -24 + ^ x22: .cfa -32 + ^ x23: .cfa -40 + ^ x24: .cfa -48 + ^ x25: .cfa -56 + ^ x26: .cfa -64 + ^ x27: .cfa -72 + ^ x28: .cfa -80 + ^ .ra: .cfa -88 + ^ x29: .cfa -96 + ^
STACK CFI 3ca00 .cfa: sp 96 +
STACK CFI 3ca18 .cfa: sp 0 +
STACK CFI 3ca1c .cfa: x29 96 +
STACK CFI INIT 3cc94 75c .cfa: sp 0 +
STACK CFI 3cc98 .cfa: sp 368 +
STACK CFI 3ccb4 .cfa: x29 96 + x19: .cfa -8 + ^ x20: .cfa -16 + ^ x21: .cfa -24 + ^ x22: .cfa -32 + ^ x23: .cfa -40 + ^ x24: .cfa -48 + ^ x25: .cfa -56 + ^ x26: .cfa -64 + ^ x27: .cfa -72 + ^ x28: .cfa -80 + ^ .ra: .cfa -88 + ^ x29: .cfa -96 + ^
STACK CFI 3cd68 .cfa: sp 368 +
STACK CFI 3cd84 .cfa: sp 0 +
STACK CFI 3cd88 .cfa: x29 96 +
STACK CFI 3cddc .cfa: sp 368 +
STACK CFI 3cdf8 .cfa: sp 0 +
STACK CFI 3cdfc .cfa: x29 96 +
STACK CFI INIT 3d7b4 edc .cfa: sp 0 +
STACK CFI 3d7b8 .cfa: sp 96 +
STACK CFI 3d7d0 .cfa: x29 96 + x19: .cfa -8 + ^ x20: .cfa -16 + ^ x21: .cfa -24 + ^ x22: .cfa -32 + ^ x23: .cfa -40 + ^ x24: .cfa -48 + ^ x25: .cfa -56 + ^ x26: .cfa -64 + ^ x27: .cfa -72 + ^ x28: .cfa -80 + ^ .ra: .cfa -88 + ^ x29: .cfa -96 + ^
STACK CFI 3e488 .cfa: sp 96 +
STACK CFI 3e4a0 .cfa: sp 0 +
STACK CFI 3e4a4 .cfa: x29 96 +
STACK CFI INIT 3ea04 1490 .cfa: sp 0 +
STACK CFI 3ea08 .cfa: sp 112 +
STACK CFI 3ea24 .cfa: x29 96 + x19: .cfa -8 + ^ x20: .cfa -16 + ^ x21: .cfa -24 + ^ x22: .cfa -32 + ^ x23: .cfa -40 + ^ x24: .cfa -48 + ^ x25: .cfa -56 + ^ x26: .cfa -64 + ^ x27: .cfa -72 + ^ x28: .cfa -80 + ^ .ra: .cfa -88 + ^ x29: .cfa -96 + ^ v8: .cfa -112 + ^
STACK CFI 3edf0 .cfa: sp 112 +
STACK CFI 3ee0c .cfa: sp 0 +
STACK CFI 3ee10 .cfa: x29 96 +
STACK CFI INIT 4229c a4c .cfa: sp 0 +
STACK CFI 422a0 .cfa: sp 144 +
STACK CFI 422b8 .cfa: x29 80 + x19: .cfa -8 + ^ x20: .cfa -16 + ^ x21: .cfa -24 + ^ x22: .cfa -32 + ^ x23: .cfa -40 + ^ x24: .cfa -48 + ^ x25: .cfa -64 + ^ .ra: .cfa -72 + ^ x29: .cfa -80 + ^
STACK CFI 42c40 .cfa: sp 144 +
STACK CFI 42c58 .cfa: sp 0 +
STACK CFI 42c5c .cfa: x29 80 +
STACK CFI INIT 42ce8 57c .cfa: sp 0 +
STACK CFI 42cec .cfa: sp 96 +
STACK CFI 42d04 .cfa: x29 96 + x19: .cfa -8 + ^ x20: .cfa -16 + ^ x21: .cfa -24 + ^ x22: .cfa -32 + ^ x23: .cfa -40 + ^ x24: .cfa -48 + ^ x25: .cfa -56 + ^ x26: .cfa -64 + ^ x27: .cfa -72 + ^ x28: .cfa -80 + ^ .ra: .cfa -88 + ^ x29: .cfa -96 + ^
STACK CFI 431c8 .cfa: sp 96 +
STACK CFI 431e0 .cfa: sp 0 +
STACK CFI 431e4 .cfa: x29 96 +
STACK CFI INIT 43264 67c .cfa: sp 0 +
STACK CFI 43268 .cfa: sp 96 +
STACK CFI 43280 .cfa: x29 96 + x19: .cfa -8 + ^ x20: .cfa -16 + ^ x21: .cfa -24 + ^ x22: .cfa -32 + ^ x23: .cfa -40 + ^ x24: .cfa -48 + ^ x25: .cfa -56 + ^ x26: .cfa -64 + ^ x27: .cfa -72 + ^ x28: .cfa -80 + ^ .ra: .cfa -88 + ^ x29: .cfa -96 + ^
STACK CFI 43844 .cfa: sp 96 +
STACK CFI 4385c .cfa: sp 0 +
STACK CFI 43860 .cfa: x29 96 +
