MODULE Linux arm64 4D51138AE136BB57521810C52AB9587A0 raydeeux.infolabeltweaks.android64.so
INFO CODE_ID 8A13514D36E157BB521810C52AB9587AABBA87E8
INFO GENERATOR mozilla/dump_syms 2.3.4
PUBLIC 1df10 0 __on_dlclose
PUBLIC 1df20 0 __emutls_unregister_key
PUBLIC 1df28 0 __on_dlclose_late
PUBLIC 1df30 0 __atexit_handler_wrapper
PUBLIC 1df44 0 atexit
PUBLIC 1df60 0 pthread_atfork
PUBLIC 1df70 0 __aarch64_ldadd8_relax
PUBLIC 1dfa0 0 init_have_lse_atomics
PUBLIC 1e038 0 __init_cpu_features_constructor
PUBLIC 1e5d4 0 __init_cpu_features
PUBLIC 1e660 0 __aarch64_ldadd8_acq_rel
PUBLIC 1e690 0 Utils::getBool(std::__ndk1::basic_string<char, std::__ndk1::char_traits<char>, std::__ndk1::allocator<char> >)
PUBLIC 1e784 0 Utils::getInt(std::__ndk1::basic_string<char, std::__ndk1::char_traits<char>, std::__ndk1::allocator<char> >)
PUBLIC 1e87c 0 Utils::getDouble(std::__ndk1::basic_string<char, std::__ndk1::char_traits<char>, std::__ndk1::allocator<char> >)
PUBLIC 1e978 0 Utils::getString(std::__ndk1::basic_string<char, std::__ndk1::char_traits<char>, std::__ndk1::allocator<char> >)
PUBLIC 1ea74 0 std::__ndk1::basic_string<char, std::__ndk1::char_traits<char>, std::__ndk1::allocator<char> >::__init_copy_ctor_external(char const*, unsigned long)
PUBLIC 1eaf4 0 std::__ndk1::basic_string<char, std::__ndk1::char_traits<char>, std::__ndk1::allocator<char> >::__throw_length_error[abi:ne180000]() const
PUBLIC 1eb08 0 std::__ndk1::__throw_length_error[abi:ne180000](char const*)
PUBLIC 1eb58 0 std::length_error::length_error[abi:ne180000](char const*)
PUBLIC 1eb88 0 __clang_call_terminate
PUBLIC 1eb98 0 geode::Mod::getSettingValue<bool>(std::__ndk1::basic_string_view<char, std::__ndk1::char_traits<char> >) const
PUBLIC 1eccc 0 geode::cast::traverseTypeinfoFor(void*, geode::cast::ClassTypeinfoType const*, char const*)
PUBLIC 1edd0 0 geode::Mod::getSettingValue<long>(std::__ndk1::basic_string_view<char, std::__ndk1::char_traits<char> >) const
PUBLIC 1eee8 0 geode::Mod::getSettingValue<double>(std::__ndk1::basic_string_view<char, std::__ndk1::char_traits<char> >) const
PUBLIC 1f018 0 geode::Mod::getSettingValue<std::__ndk1::basic_string<char, std::__ndk1::char_traits<char>, std::__ndk1::allocator<char> > >(std::__ndk1::basic_string_view<char, std::__ndk1::char_traits<char> >) const
PUBLIC 1f1a0 0 std::__ndk1::shared_ptr<geode::StringSettingV3>::~shared_ptr[abi:ne180000]()
PUBLIC 1f1f0 0 std::__ndk1::basic_regex<char, std::__ndk1::regex_traits<char> >::basic_regex[abi:ne180000](char const*, std::__ndk1::regex_constants::syntax_option_type)
PUBLIC 1f2b4 0 std::__ndk1::basic_regex<char, std::__ndk1::regex_traits<char> >::~basic_regex()
PUBLIC 1f314 0 __cxx_global_var_init.3
PUBLIC 1f794 0 geode::modifier::ModifyBase<geode::modifier::ModifyDerive<MyFMODAudioEngine, FMODAudioEngine> >::~ModifyBase()
PUBLIC 1f7b0 0 std::__ndk1::shared_ptr<std::__ndk1::__empty_state<char> >::~shared_ptr[abi:ne180000]()
PUBLIC 1f800 0 std::__ndk1::basic_regex<char, std::__ndk1::regex_traits<char> >::__parse<char const*>(char const*, char const*)
PUBLIC 1fc58 0 std::__ndk1::__throw_regex_error[abi:ne180000]<(std::__ndk1::regex_constants::error_type)17>()
PUBLIC 1fca4 0 std::__ndk1::basic_regex<char, std::__ndk1::regex_traits<char> >::__parse_ecma_exp<char const*>(char const*, char const*)
PUBLIC 1ff10 0 std::__ndk1::basic_regex<char, std::__ndk1::regex_traits<char> >::__parse_basic_reg_exp<char const*>(char const*, char const*)
PUBLIC 200b8 0 std::__ndk1::basic_regex<char, std::__ndk1::regex_traits<char> >::__parse_extended_reg_exp<char const*>(char const*, char const*)
PUBLIC 20228 0 std::__ndk1::basic_regex<char, std::__ndk1::regex_traits<char> >::__parse_grep<char const*>(char const*, char const*)
PUBLIC 203e4 0 std::__ndk1::basic_regex<char, std::__ndk1::regex_traits<char> >::__parse_egrep<char const*>(char const*, char const*)
PUBLIC 205a0 0 std::__ndk1::__throw_regex_error[abi:ne180000]<(std::__ndk1::regex_constants::error_type)14>()
PUBLIC 205ec 0 std::__ndk1::__end_state<char>::~__end_state()
PUBLIC 205f0 0 std::__ndk1::__end_state<char>::__exec(std::__ndk1::__state<char>&) const
PUBLIC 205fc 0 std::__ndk1::__node<char>::__exec_split(bool, std::__ndk1::__state<char>&) const
PUBLIC 20600 0 std::__ndk1::__node<char>::__exec(std::__ndk1::__state<char>&) const
PUBLIC 20604 0 std::__ndk1::__shared_ptr_pointer<std::__ndk1::__empty_state<char>*, std::__ndk1::shared_ptr<std::__ndk1::__empty_state<char> >::__shared_ptr_default_delete<std::__ndk1::__empty_state<char>, std::__ndk1::__empty_state<char> >, std::__ndk1::allocator<std::__ndk1::__empty_state<char> > >::~__shared_ptr_pointer()
PUBLIC 20628 0 std::__ndk1::__shared_ptr_pointer<std::__ndk1::__empty_state<char>*, std::__ndk1::shared_ptr<std::__ndk1::__empty_state<char> >::__shared_ptr_default_delete<std::__ndk1::__empty_state<char>, std::__ndk1::__empty_state<char> >, std::__ndk1::allocator<std::__ndk1::__empty_state<char> > >::__on_zero_shared()
PUBLIC 20640 0 std::__ndk1::__shared_ptr_pointer<std::__ndk1::__empty_state<char>*, std::__ndk1::shared_ptr<std::__ndk1::__empty_state<char> >::__shared_ptr_default_delete<std::__ndk1::__empty_state<char>, std::__ndk1::__empty_state<char> >, std::__ndk1::allocator<std::__ndk1::__empty_state<char> > >::__get_deleter(std::type_info const&) const
PUBLIC 2065c 0 std::__ndk1::__shared_ptr_pointer<std::__ndk1::__empty_state<char>*, std::__ndk1::shared_ptr<std::__ndk1::__empty_state<char> >::__shared_ptr_default_delete<std::__ndk1::__empty_state<char>, std::__ndk1::__empty_state<char> >, std::__ndk1::allocator<std::__ndk1::__empty_state<char> > >::__on_zero_shared_weak()
PUBLIC 20660 0 std::__ndk1::__empty_state<char>::~__empty_state()
PUBLIC 206a8 0 std::__ndk1::__empty_state<char>::__exec(std::__ndk1::__state<char>&) const
PUBLIC 206bc 0 std::__ndk1::__owns_one_state<char>::~__owns_one_state()
PUBLIC 20704 0 std::__ndk1::basic_regex<char, std::__ndk1::regex_traits<char> >::__parse_assertion<char const*>(char const*, char const*)
PUBLIC 20a68 0 std::__ndk1::basic_regex<char, std::__ndk1::regex_traits<char> >::__parse_atom<char const*>(char const*, char const*)
PUBLIC 20cc8 0 std::__ndk1::basic_regex<char, std::__ndk1::regex_traits<char> >::__parse_ERE_dupl_symbol<char const*>(char const*, char const*, std::__ndk1::__owns_one_state<char>*, unsigned int, unsigned int)
PUBLIC 210bc 0 std::__ndk1::basic_regex<char, std::__ndk1::regex_traits<char> >::basic_regex[abi:ne180000]()
PUBLIC 21128 0 std::__ndk1::basic_regex<char, std::__ndk1::regex_traits<char> >::__push_lookahead(std::__ndk1::basic_regex<char, std::__ndk1::regex_traits<char> > const&, bool, unsigned int)
PUBLIC 211dc 0 std::__ndk1::__throw_regex_error[abi:ne180000]<(std::__ndk1::regex_constants::error_type)6>()
PUBLIC 21228 0 std::__ndk1::__l_anchor_multiline<char>::~__l_anchor_multiline()
PUBLIC 21270 0 std::__ndk1::__l_anchor_multiline<char>::__exec(std::__ndk1::__state<char>&) const
PUBLIC 212d4 0 std::__ndk1::__r_anchor_multiline<char>::~__r_anchor_multiline()
PUBLIC 2131c 0 std::__ndk1::__r_anchor_multiline<char>::__exec(std::__ndk1::__state<char>&) const
PUBLIC 21370 0 std::__ndk1::__word_boundary<char, std::__ndk1::regex_traits<char> >::~__word_boundary()
PUBLIC 213cc 0 std::__ndk1::__word_boundary<char, std::__ndk1::regex_traits<char> >::~__word_boundary()
PUBLIC 21424 0 std::__ndk1::__word_boundary<char, std::__ndk1::regex_traits<char> >::__exec(std::__ndk1::__state<char>&) const
PUBLIC 21534 0 std::__ndk1::__lookahead<char, std::__ndk1::regex_traits<char> >::~__lookahead()
PUBLIC 215c4 0 std::__ndk1::__lookahead<char, std::__ndk1::regex_traits<char> >::~__lookahead()
PUBLIC 21650 0 std::__ndk1::__lookahead<char, std::__ndk1::regex_traits<char> >::__exec(std::__ndk1::__state<char>&) const
PUBLIC 2180c 0 std::__ndk1::basic_regex<char, std::__ndk1::regex_traits<char> >::__match_at_start_ecma<std::__ndk1::allocator<std::__ndk1::sub_match<char const*> > >(char const*, char const*, std::__ndk1::match_results<char const*, std::__ndk1::allocator<std::__ndk1::sub_match<char const*> > >&, std::__ndk1::regex_constants::match_flag_type, bool) const
PUBLIC 21c80 0 std::__ndk1::vector<std::__ndk1::sub_match<char const*>, std::__ndk1::allocator<std::__ndk1::sub_match<char const*> > >::assign(unsigned long, std::__ndk1::sub_match<char const*> const&)
PUBLIC 21e54 0 std::__ndk1::vector<std::__ndk1::sub_match<char const*>, std::__ndk1::allocator<std::__ndk1::sub_match<char const*> > >::__throw_length_error[abi:ne180000]() const
PUBLIC 21e68 0 std::__throw_bad_array_new_length([abi:ne180000], void)
PUBLIC 21e9c 0 std::__ndk1::__state<char>::~__state()
PUBLIC 21ee0 0 std::__ndk1::__throw_regex_error[abi:ne180000]<(std::__ndk1::regex_constants::error_type)12>()
PUBLIC 21f2c 0 std::__ndk1::__state<char>::__state(std::__ndk1::__state<char> const&)
PUBLIC 220a4 0 std::__ndk1::__throw_regex_error[abi:ne180000]<(std::__ndk1::regex_constants::error_type)16>()
PUBLIC 220f0 0 std::__ndk1::vector<std::__ndk1::__state<char>, std::__ndk1::allocator<std::__ndk1::__state<char> > >::~vector[abi:ne180000]()
PUBLIC 22188 0 std::__ndk1::vector<std::__ndk1::__state<char>, std::__ndk1::allocator<std::__ndk1::__state<char> > >::__push_back_slow_path<std::__ndk1::__state<char> >(std::__ndk1::__state<char>&&)
PUBLIC 22368 0 std::__ndk1::vector<std::__ndk1::__state<char>, std::__ndk1::allocator<std::__ndk1::__state<char> > >::__throw_length_error[abi:ne180000]() const
PUBLIC 2237c 0 std::__ndk1::vector<std::__ndk1::sub_match<char const*>, std::__ndk1::allocator<std::__ndk1::sub_match<char const*> > >::__append(unsigned long, std::__ndk1::sub_match<char const*> const&)
PUBLIC 22524 0 std::__ndk1::vector<std::__ndk1::pair<unsigned long, char const*>, std::__ndk1::allocator<std::__ndk1::pair<unsigned long, char const*> > >::__append(unsigned long)
PUBLIC 22654 0 std::__ndk1::vector<std::__ndk1::pair<unsigned long, char const*>, std::__ndk1::allocator<std::__ndk1::pair<unsigned long, char const*> > >::__throw_length_error[abi:ne180000]() const
PUBLIC 22668 0 std::__ndk1::basic_regex<char, std::__ndk1::regex_traits<char> >::__parse_atom_escape<char const*>(char const*, char const*)
PUBLIC 227f4 0 std::__ndk1::basic_regex<char, std::__ndk1::regex_traits<char> >::__parse_bracket_expression<char const*>(char const*, char const*)
PUBLIC 22948 0 std::__ndk1::__throw_regex_error[abi:ne180000]<(std::__ndk1::regex_constants::error_type)11>()
PUBLIC 22994 0 std::__ndk1::basic_regex<char, std::__ndk1::regex_traits<char> >::__parse_pattern_character<char const*>(char const*, char const*)
PUBLIC 22a0c 0 std::__ndk1::__match_any_but_newline<char>::~__match_any_but_newline()
PUBLIC 22a54 0 std::__ndk1::__throw_regex_error[abi:ne180000]<(std::__ndk1::regex_constants::error_type)3>()
PUBLIC 22aa0 0 std::__ndk1::basic_regex<char, std::__ndk1::regex_traits<char> >::__parse_character_class_escape<char const*>(char const*, char const*)
PUBLIC 22cf4 0 std::__ndk1::basic_regex<char, std::__ndk1::regex_traits<char> >::__parse_character_escape<char const*>(char const*, char const*, std::__ndk1::basic_string<char, std::__ndk1::char_traits<char>, std::__ndk1::allocator<char> >*)
PUBLIC 23200 0 std::__ndk1::basic_regex<char, std::__ndk1::regex_traits<char> >::__push_char(char)
PUBLIC 23340 0 std::__ndk1::__throw_regex_error[abi:ne180000]<(std::__ndk1::regex_constants::error_type)4>()
PUBLIC 2338c 0 std::__ndk1::basic_regex<char, std::__ndk1::regex_traits<char> >::__push_back_ref(int)
PUBLIC 23454 0 std::__ndk1::__match_char_icase<char, std::__ndk1::regex_traits<char> >::~__match_char_icase()
PUBLIC 234b0 0 std::__ndk1::__match_char_icase<char, std::__ndk1::regex_traits<char> >::~__match_char_icase()
PUBLIC 23508 0 std::__ndk1::__match_char_icase<char, std::__ndk1::regex_traits<char> >::__exec(std::__ndk1::__state<char>&) const
PUBLIC 23588 0 std::__ndk1::__match_char_collate<char, std::__ndk1::regex_traits<char> >::~__match_char_collate()
PUBLIC 235e4 0 std::__ndk1::__match_char_collate<char, std::__ndk1::regex_traits<char> >::~__match_char_collate()
PUBLIC 2363c 0 std::__ndk1::__match_char_collate<char, std::__ndk1::regex_traits<char> >::__exec(std::__ndk1::__state<char>&) const
PUBLIC 23684 0 std::__ndk1::__match_char<char>::~__match_char()
PUBLIC 236cc 0 std::__ndk1::__match_char<char>::__exec(std::__ndk1::__state<char>&) const
PUBLIC 23714 0 std::__ndk1::__back_ref_icase<char, std::__ndk1::regex_traits<char> >::~__back_ref_icase()
PUBLIC 23770 0 std::__ndk1::__back_ref_icase<char, std::__ndk1::regex_traits<char> >::~__back_ref_icase()
PUBLIC 237c8 0 std::__ndk1::__back_ref_icase<char, std::__ndk1::regex_traits<char> >::__exec(std::__ndk1::__state<char>&) const
PUBLIC 238c0 0 std::__ndk1::__back_ref_collate<char, std::__ndk1::regex_traits<char> >::~__back_ref_collate()
PUBLIC 2391c 0 std::__ndk1::__back_ref_collate<char, std::__ndk1::regex_traits<char> >::~__back_ref_collate()
PUBLIC 23974 0 std::__ndk1::__back_ref_collate<char, std::__ndk1::regex_traits<char> >::__exec(std::__ndk1::__state<char>&) const
PUBLIC 23a04 0 std::__ndk1::__back_ref<char>::~__back_ref()
PUBLIC 23a4c 0 std::__ndk1::__back_ref<char>::__exec(std::__ndk1::__state<char>&) const
PUBLIC 23b1c 0 std::__ndk1::__bracket_expression<char, std::__ndk1::regex_traits<char> >::__add_char[abi:ne180000](char)
PUBLIC 23fd0 0 std::__ndk1::__bracket_expression<char, std::__ndk1::regex_traits<char> >::__bracket_expression[abi:ne180000](std::__ndk1::regex_traits<char> const&, std::__ndk1::__node<char>*, bool, bool, bool)
PUBLIC 241ac 0 std::__ndk1::vector<std::__ndk1::basic_string<char, std::__ndk1::char_traits<char>, std::__ndk1::allocator<char> >, std::__ndk1::allocator<std::__ndk1::basic_string<char, std::__ndk1::char_traits<char>, std::__ndk1::allocator<char> > > >::~vector[abi:ne180000]()
PUBLIC 24228 0 std::__ndk1::vector<std::__ndk1::pair<std::__ndk1::basic_string<char, std::__ndk1::char_traits<char>, std::__ndk1::allocator<char> >, std::__ndk1::basic_string<char, std::__ndk1::char_traits<char>, std::__ndk1::allocator<char> > >, std::__ndk1::allocator<std::__ndk1::pair<std::__ndk1::basic_string<char, std::__ndk1::char_traits<char>, std::__ndk1::allocator<char> >, std::__ndk1::basic_string<char, std::__ndk1::char_traits<char>, std::__ndk1::allocator<char> > > > >::~vector[abi:ne180000]()
PUBLIC 242cc 0 std::__ndk1::__bracket_expression<char, std::__ndk1::regex_traits<char> >::~__bracket_expression()
PUBLIC 24418 0 std::__ndk1::__bracket_expression<char, std::__ndk1::regex_traits<char> >::~__bracket_expression()
PUBLIC 2443c 0 std::__ndk1::__bracket_expression<char, std::__ndk1::regex_traits<char> >::__exec(std::__ndk1::__state<char>&) const
PUBLIC 24f34 0 std::__ndk1::pair<std::__ndk1::basic_string<char, std::__ndk1::char_traits<char>, std::__ndk1::allocator<char> >, std::__ndk1::basic_string<char, std::__ndk1::char_traits<char>, std::__ndk1::allocator<char> > >::~pair()
PUBLIC 24f78 0 std::__ndk1::regex_traits<char>::__lookup_collatename<char*>(char*, char*, char) const
PUBLIC 2522c 0 std::__ndk1::basic_string<char, std::__ndk1::char_traits<char>, std::__ndk1::allocator<char> >::__assign_no_alias<true>(char const*, unsigned long)
PUBLIC 252d8 0 std::__ndk1::basic_string<char, std::__ndk1::char_traits<char>, std::__ndk1::allocator<char> >::__assign_no_alias<false>(char const*, unsigned long)
PUBLIC 253e8 0 std::__ndk1::regex_traits<char>::__transform_primary<char*>(char*, char*, char) const
PUBLIC 255ac 0 std::__ndk1::vector<char, std::__ndk1::allocator<char> >::__throw_length_error[abi:ne180000]() const
PUBLIC 255c0 0 std::__ndk1::__throw_regex_error[abi:ne180000]<(std::__ndk1::regex_constants::error_type)5>()
PUBLIC 2560c 0 std::__ndk1::basic_regex<char, std::__ndk1::regex_traits<char> >::__parse_expression_term<char const*>(char const*, char const*, std::__ndk1::__bracket_expression<char, std::__ndk1::regex_traits<char> >*)
PUBLIC 25bd4 0 std::__ndk1::basic_regex<char, std::__ndk1::regex_traits<char> >::__parse_equivalence_class<char const*>(char const*, char const*, std::__ndk1::__bracket_expression<char, std::__ndk1::regex_traits<char> >*)
PUBLIC 25eb4 0 std::__ndk1::basic_regex<char, std::__ndk1::regex_traits<char> >::__parse_collating_symbol<char const*>(char const*, char const*, std::__ndk1::basic_string<char, std::__ndk1::char_traits<char>, std::__ndk1::allocator<char> >&)
PUBLIC 25fe0 0 std::__ndk1::basic_regex<char, std::__ndk1::regex_traits<char> >::__parse_class_escape<char const*>(char const*, char const*, std::__ndk1::basic_string<char, std::__ndk1::char_traits<char>, std::__ndk1::allocator<char> >&, std::__ndk1::__bracket_expression<char, std::__ndk1::regex_traits<char> >*)
PUBLIC 261b4 0 std::__ndk1::basic_regex<char, std::__ndk1::regex_traits<char> >::__parse_awk_escape<char const*>(char const*, char const*, std::__ndk1::basic_string<char, std::__ndk1::char_traits<char>, std::__ndk1::allocator<char> >*)
PUBLIC 26678 0 std::__ndk1::__bracket_expression<char, std::__ndk1::regex_traits<char> >::__add_range[abi:ne180000](std::__ndk1::basic_string<char, std::__ndk1::char_traits<char>, std::__ndk1::allocator<char> >, std::__ndk1::allocator<char>)
PUBLIC 26b18 0 std::__ndk1::__bracket_expression<char, std::__ndk1::regex_traits<char> >::__add_digraph[abi:ne180000](char, char)
PUBLIC 26f3c 0 std::__ndk1::__throw_regex_error[abi:ne180000]<(std::__ndk1::regex_constants::error_type)1>()
PUBLIC 26f88 0 std::__ndk1::regex_traits<char>::__lookup_collatename<char const*>(char const*, char const*, char) const
PUBLIC 2723c 0 std::__ndk1::regex_traits<char>::__transform_primary<std::__ndk1::__wrap_iter<char*> >(std::__ndk1::__wrap_iter<char*>, std::__ndk1::__wrap_iter<char*>, char) const
PUBLIC 27454 0 std::__ndk1::vector<std::__ndk1::basic_string<char, std::__ndk1::char_traits<char>, std::__ndk1::allocator<char> >, std::__ndk1::allocator<std::__ndk1::basic_string<char, std::__ndk1::char_traits<char>, std::__ndk1::allocator<char> > > >::__push_back_slow_path<std::__ndk1::basic_string<char, std::__ndk1::char_traits<char>, std::__ndk1::allocator<char> > const&>(std::__ndk1::basic_string<char, std::__ndk1::char_traits<char>, std::__ndk1::allocator<char> > const&)
PUBLIC 2767c 0 std::__ndk1::__split_buffer<std::__ndk1::basic_string<char, std::__ndk1::char_traits<char>, std::__ndk1::allocator<char> >, std::__ndk1::allocator<std::__ndk1::basic_string<char, std::__ndk1::char_traits<char>, std::__ndk1::allocator<char> > >&>::~__split_buffer()
PUBLIC 276e4 0 std::__ndk1::vector<std::__ndk1::basic_string<char, std::__ndk1::char_traits<char>, std::__ndk1::allocator<char> >, std::__ndk1::allocator<std::__ndk1::basic_string<char, std::__ndk1::char_traits<char>, std::__ndk1::allocator<char> > > >::__throw_length_error[abi:ne180000]() const
PUBLIC 276f8 0 std::__ndk1::__throw_regex_error[abi:ne180000]<(std::__ndk1::regex_constants::error_type)2>()
PUBLIC 27744 0 std::__ndk1::regex_traits<char>::__lookup_classname<char const*>(char const*, char const*, bool, char) const
PUBLIC 278c4 0 std::__ndk1::__bracket_expression<char, std::__ndk1::regex_traits<char> >::__add_neg_char[abi:ne180000](char)
PUBLIC 27d78 0 std::__ndk1::regex_traits<char>::transform<std::__ndk1::__wrap_iter<char*> >(std::__ndk1::__wrap_iter<char*>, std::__ndk1::__wrap_iter<char*>) const
PUBLIC 27f2c 0 std::__ndk1::__throw_regex_error[abi:ne180000]<(std::__ndk1::regex_constants::error_type)9>()
PUBLIC 27f78 0 std::__ndk1::vector<std::__ndk1::pair<std::__ndk1::basic_string<char, std::__ndk1::char_traits<char>, std::__ndk1::allocator<char> >, std::__ndk1::basic_string<char, std::__ndk1::char_traits<char>, std::__ndk1::allocator<char> > >, std::__ndk1::allocator<std::__ndk1::pair<std::__ndk1::basic_string<char, std::__ndk1::char_traits<char>, std::__ndk1::allocator<char> >, std::__ndk1::basic_string<char, std::__ndk1::char_traits<char>, std::__ndk1::allocator<char> > > > >::__push_back_slow_path<std::__ndk1::pair<std::__ndk1::basic_string<char, std::__ndk1::char_traits<char>, std::__ndk1::allocator<char> >, std::__ndk1::basic_string<char, std::__ndk1::char_traits<char>, std::__ndk1::allocator<char> > > >(std::__ndk1::pair<std::__ndk1::basic_string<char, std::__ndk1::char_traits<char>, std::__ndk1::allocator<char> >, std::__ndk1::basic_string<char, std::__ndk1::char_traits<char>, std::__ndk1::allocator<char> > >&&)
PUBLIC 28124 0 std::__ndk1::vector<std::__ndk1::pair<std::__ndk1::basic_string<char, std::__ndk1::char_traits<char>, std::__ndk1::allocator<char> >, std::__ndk1::basic_string<char, std::__ndk1::char_traits<char>, std::__ndk1::allocator<char> > >, std::__ndk1::allocator<std::__ndk1::pair<std::__ndk1::basic_string<char, std::__ndk1::char_traits<char>, std::__ndk1::allocator<char> >, std::__ndk1::basic_string<char, std::__ndk1::char_traits<char>, std::__ndk1::allocator<char> > > > >::__throw_length_error[abi:ne180000]() const
PUBLIC 28138 0 std::__ndk1::vector<std::__ndk1::pair<char, char>, std::__ndk1::allocator<std::__ndk1::pair<char, char> > >::__throw_length_error[abi:ne180000]() const
PUBLIC 2814c 0 std::__ndk1::__begin_marked_subexpression<char>::~__begin_marked_subexpression()
PUBLIC 28194 0 std::__ndk1::__begin_marked_subexpression<char>::__exec(std::__ndk1::__state<char>&) const
PUBLIC 281c4 0 std::__ndk1::__end_marked_subexpression<char>::~__end_marked_subexpression()
PUBLIC 2820c 0 std::__ndk1::__end_marked_subexpression<char>::__exec(std::__ndk1::__state<char>&) const
PUBLIC 28244 0 std::__ndk1::basic_regex<char, std::__ndk1::regex_traits<char> >::__push_loop(unsigned long, unsigned long, std::__ndk1::__owns_one_state<char>*, unsigned long, unsigned long, bool)
PUBLIC 28384 0 std::__ndk1::__throw_regex_error[abi:ne180000]<(std::__ndk1::regex_constants::error_type)8>()
PUBLIC 283d0 0 std::__ndk1::__throw_regex_error[abi:ne180000]<(std::__ndk1::regex_constants::error_type)7>()
PUBLIC 2841c 0 std::__ndk1::__loop<char>::~__loop()
PUBLIC 28484 0 std::__ndk1::__loop<char>::__exec(std::__ndk1::__state<char>&) const
PUBLIC 28648 0 std::__ndk1::__loop<char>::__exec_split(bool, std::__ndk1::__state<char>&) const
PUBLIC 2870c 0 std::__ndk1::__owns_two_states<char>::~__owns_two_states()
PUBLIC 28774 0 std::__ndk1::__repeat_one_loop<char>::~__repeat_one_loop()
PUBLIC 28778 0 std::__ndk1::__repeat_one_loop<char>::__exec(std::__ndk1::__state<char>&) const
PUBLIC 2878c 0 std::__ndk1::__owns_two_states<char>::~__owns_two_states()
PUBLIC 287f8 0 std::__ndk1::__alternate<char>::~__alternate()
PUBLIC 28860 0 std::__ndk1::__alternate<char>::__exec(std::__ndk1::__state<char>&) const
PUBLIC 2886c 0 std::__ndk1::__alternate<char>::__exec_split(bool, std::__ndk1::__state<char>&) const
PUBLIC 28890 0 std::__ndk1::__node<char>::~__node()
PUBLIC 28894 0 std::__ndk1::__empty_non_own_state<char>::~__empty_non_own_state()
PUBLIC 28898 0 std::__ndk1::__empty_non_own_state<char>::__exec(std::__ndk1::__state<char>&) const
PUBLIC 288ac 0 std::__ndk1::__throw_regex_error[abi:ne180000]<(std::__ndk1::regex_constants::error_type)15>()
PUBLIC 288f8 0 std::__ndk1::basic_regex<char, std::__ndk1::regex_traits<char> >::__parse_nondupl_RE<char const*>(char const*, char const*)
PUBLIC 28b24 0 std::__ndk1::basic_regex<char, std::__ndk1::regex_traits<char> >::__parse_RE_dupl_symbol<char const*>(char const*, char const*, std::__ndk1::__owns_one_state<char>*, unsigned int, unsigned int)
PUBLIC 28d94 0 std::__ndk1::basic_regex<char, std::__ndk1::regex_traits<char> >::__parse_one_char_or_coll_elem_RE<char const*>(char const*, char const*)
PUBLIC 28eb0 0 std::__ndk1::__owns_one_state<char>::~__owns_one_state()
PUBLIC 28edc 0 std::__ndk1::__match_any<char>::~__match_any()
PUBLIC 28f24 0 std::__ndk1::__match_any<char>::__exec(std::__ndk1::__state<char>&) const
PUBLIC 28f64 0 std::__ndk1::basic_regex<char, std::__ndk1::regex_traits<char> >::__test_back_ref(char)
PUBLIC 28fc4 0 std::__ndk1::basic_regex<char, std::__ndk1::regex_traits<char> >::__parse_ERE_expression<char const*>(char const*, char const*)
PUBLIC 291c0 0 std::__ndk1::basic_regex<char, std::__ndk1::regex_traits<char> >::__parse_one_char_or_coll_elem_ERE<char const*>(char const*, char const*)
PUBLIC 29300 0 std::__ndk1::basic_regex<char, std::__ndk1::regex_traits<char> >::__parse_QUOTED_CHAR_ERE<char const*>(char const*, char const*)
PUBLIC 293d8 0 geode::modifier::ModifyDerive<MyFMODAudioEngine, FMODAudioEngine>::apply()
PUBLIC 29ab0 0 std::__ndk1::shared_ptr<geode::Hook>::~shared_ptr[abi:ne180000]()
PUBLIC 29b00 0 geode::impl::ResultData<geode::Hook*, std::__ndk1::basic_string<char, std::__ndk1::char_traits<char>, std::__ndk1::allocator<char> > >::~ResultData()
PUBLIC 29b74 0 geode::modifier::ModifyBase<geode::modifier::ModifyDerive<MyFMODAudioEngine, FMODAudioEngine> >::apply()
PUBLIC 29b78 0 _ZN5geode15UnwrapExceptionC2IRPNS_4HookEQsr4implE18IsStringStreamableIT_EEENS_4impl5OkTagEOS5_
PUBLIC 29ccc 0 std::__ndk1::__throw_bad_variant_access[abi:ne180000]()
PUBLIC 29d00 0 std::__ndk1::basic_stringstream<char, std::__ndk1::char_traits<char>, std::__ndk1::allocator<char> >::basic_stringstream[abi:ne180000]()
PUBLIC m 29e2c 0 std::__ndk1::basic_stringstream<char, std::__ndk1::char_traits<char>, std::__ndk1::allocator<char> >::~basic_stringstream()
PUBLIC 29eac 0 geode::UnwrapException::~UnwrapException()
PUBLIC 29ed0 0 std::__ndk1::__put_character_sequence[abi:ne180000]<char, std::__ndk1::char_traits<char> >(std::__ndk1::basic_ostream<char, std::__ndk1::char_traits<char> >, std::__ndk1::basic_ostream const*, unsigned long)
PUBLIC 2a074 0 std::__ndk1::__pad_and_output[abi:ne180000]<char, std::__ndk1::char_traits<char> >(std::__ndk1::char_traits<char>, std::__ndk1::ostreambuf_iterator const*, std::__ndk1::ostreambuf_iterator const, std::__ndk1::ostreambuf_iterator const, std::__ndk1::ios_base&, std::__ndk1::ostreambuf_iterator)
PUBLIC 2a250 0 std::__ndk1::basic_stringbuf<char, std::__ndk1::char_traits<char>, std::__ndk1::allocator<char> >::str[abi:ne180000]() &&
PUBLIC 2a3c8 0 std::__ndk1::basic_stringbuf<char, std::__ndk1::char_traits<char>, std::__ndk1::allocator<char> >::__init_buf_ptrs[abi:ne180000]()
PUBLIC 2a510 0 std::__ndk1::__variant_detail::__visitation::__base::__dispatcher<(unsigned long)0>::__dispatch[abi:ne180000]<std::__ndk1::__variant_detail::__dtor<std::__ndk1::__variant_detail::__traits<geode::Hook*, std::__ndk1::basic_string<char, std::__ndk1::char_traits<char>, std::__ndk1::allocator<char> > >, (std::__ndk1::__variant_detail::_Trait)1>::__destroy[abi:ne180000]()::{lambda(auto:1&)#1}, std::__ndk1::__variant_detail::__base<(std::__ndk1::__variant_detail::__traits<geode::Hook*, std::__ndk1::basic_string<char, std::__ndk1::char_traits<char>, std::__ndk1::allocator<char> > >)1, geode::Hook, std::__ndk1::allocator<char> >&>(std::__ndk1::__variant_detail::__dtor<std::__ndk1::__variant_detail::__traits<geode::Hook*, std::__ndk1::basic_string<char, std::__ndk1::char_traits<char>, std::__ndk1::allocator<char> > >, (std::__ndk1::__variant_detail::_Trait)1>, std::__ndk1::__variant_detail::__base<(std::__ndk1::__variant_detail::__traits<geode::Hook*, std::__ndk1::basic_string<char, std::__ndk1::char_traits<char>, std::__ndk1::allocator<char> > >)1, geode::Hook, std::__ndk1::allocator<char> >&)
PUBLIC 2a514 0 std::__ndk1::__variant_detail::__visitation::__base::__dispatcher<(unsigned long)1>::__dispatch[abi:ne180000]<std::__ndk1::__variant_detail::__dtor<std::__ndk1::__variant_detail::__traits<geode::Hook*, std::__ndk1::basic_string<char, std::__ndk1::char_traits<char>, std::__ndk1::allocator<char> > >, (std::__ndk1::__variant_detail::_Trait)1>::__destroy[abi:ne180000]()::{lambda(auto:1&)#1}, std::__ndk1::__variant_detail::__base<(std::__ndk1::__variant_detail::__traits<geode::Hook*, std::__ndk1::basic_string<char, std::__ndk1::char_traits<char>, std::__ndk1::allocator<char> > >)1, geode::Hook, std::__ndk1::allocator<char> >&>(std::__ndk1::__variant_detail::__dtor<std::__ndk1::__variant_detail::__traits<geode::Hook*, std::__ndk1::basic_string<char, std::__ndk1::char_traits<char>, std::__ndk1::allocator<char> > >, (std::__ndk1::__variant_detail::_Trait)1>, std::__ndk1::__variant_detail::__base<(std::__ndk1::__variant_detail::__traits<geode::Hook*, std::__ndk1::basic_string<char, std::__ndk1::char_traits<char>, std::__ndk1::allocator<char> > >)1, geode::Hook, std::__ndk1::allocator<char> >&)
PUBLIC 2a528 0 std::__ndk1::__tree<std::__ndk1::__value_type<std::__ndk1::basic_string<char, std::__ndk1::char_traits<char>, std::__ndk1::allocator<char> >, std::__ndk1::shared_ptr<geode::Hook> >, std::__ndk1::__map_value_compare<std::__ndk1::basic_string<char, std::__ndk1::char_traits<char>, std::__ndk1::allocator<char> >, std::__ndk1::__value_type<std::__ndk1::basic_string<char, std::__ndk1::char_traits<char>, std::__ndk1::allocator<char> >, std::__ndk1::shared_ptr<geode::Hook> >, std::__ndk1::less<std::__ndk1::basic_string<char, std::__ndk1::char_traits<char>, std::__ndk1::allocator<char> > >, true>, std::__ndk1::allocator<std::__ndk1::__value_type<std::__ndk1::basic_string<char, std::__ndk1::char_traits<char>, std::__ndk1::allocator<char> >, std::__ndk1::shared_ptr<geode::Hook> > > >::find<std::__ndk1::basic_string<char, std::__ndk1::char_traits<char>, std::__ndk1::allocator<char> > >(std::__ndk1::basic_string<char, std::__ndk1::char_traits<char>, std::__ndk1::allocator<char> > const&)
PUBLIC 2a648 0 std::__ndk1::__tree<std::__ndk1::__value_type<std::__ndk1::basic_string<char, std::__ndk1::char_traits<char>, std::__ndk1::allocator<char> >, std::__ndk1::shared_ptr<geode::Hook> >, std::__ndk1::__map_value_compare<std::__ndk1::basic_string<char, std::__ndk1::char_traits<char>, std::__ndk1::allocator<char> >, std::__ndk1::__value_type<std::__ndk1::basic_string<char, std::__ndk1::char_traits<char>, std::__ndk1::allocator<char> >, std::__ndk1::shared_ptr<geode::Hook> >, std::__ndk1::less<std::__ndk1::basic_string<char, std::__ndk1::char_traits<char>, std::__ndk1::allocator<char> > >, true>, std::__ndk1::allocator<std::__ndk1::__value_type<std::__ndk1::basic_string<char, std::__ndk1::char_traits<char>, std::__ndk1::allocator<char> >, std::__ndk1::shared_ptr<geode::Hook> > > >::erase(std::__ndk1::__tree_const_iterator<std::__ndk1::__value_type<std::__ndk1::basic_string<char, std::__ndk1::char_traits<char>, std::__ndk1::allocator<char> >, std::__ndk1::shared_ptr<geode::Hook> >, std::__ndk1::__tree_node<std::__ndk1::__value_type<std::__ndk1::basic_string<char, std::__ndk1::char_traits<char>, std::__ndk1::allocator<char> >, std::__ndk1::shared_ptr<geode::Hook> >, void*>*, long>)
PUBLIC 2a71c 0 std::__ndk1::__tree_remove[abi:ne180000]<std::__ndk1::__tree_node_base<void*>*>(std::__ndk1::__tree_node_base<void*>*, std::__ndk1::__tree_node_base<void*>*)
PUBLIC 2aae4 0 std::__ndk1::__tree<std::__ndk1::__value_type<std::__ndk1::basic_string<char, std::__ndk1::char_traits<char>, std::__ndk1::allocator<char> >, std::__ndk1::shared_ptr<geode::Hook> >, std::__ndk1::__map_value_compare<std::__ndk1::basic_string<char, std::__ndk1::char_traits<char>, std::__ndk1::allocator<char> >, std::__ndk1::__value_type<std::__ndk1::basic_string<char, std::__ndk1::char_traits<char>, std::__ndk1::allocator<char> >, std::__ndk1::shared_ptr<geode::Hook> >, std::__ndk1::less<std::__ndk1::basic_string<char, std::__ndk1::char_traits<char>, std::__ndk1::allocator<char> > >, true>, std::__ndk1::allocator<std::__ndk1::__value_type<std::__ndk1::basic_string<char, std::__ndk1::char_traits<char>, std::__ndk1::allocator<char> >, std::__ndk1::shared_ptr<geode::Hook> > > >::destroy(std::__ndk1::__tree_node<std::__ndk1::__value_type<std::__ndk1::basic_string<char, std::__ndk1::char_traits<char>, std::__ndk1::allocator<char> >, std::__ndk1::shared_ptr<geode::Hook> >, void*>*)
PUBLIC 2ab70 0 geode::modifier::AsStaticFunction_preloadEffect<MyFMODAudioEngine, FMODSound& (MyFMODAudioEngine::*)(gd::string)>::Impl<FMODSound& (MyFMODAudioEngine::*)(gd::string)>::function(MyFMODAudioEngine*, gd::string)
PUBLIC 2ad44 0 geode::modifier::AsStaticFunction_preloadMusic<MyFMODAudioEngine, FMOD::Sound* (MyFMODAudioEngine::*)(gd::string, bool, int)>::Impl<FMOD::Sound* (MyFMODAudioEngine::*)(gd::string, bool, int)>::function(MyFMODAudioEngine*, gd::string, bool, int)
PUBLIC 2aed4 0 std::__ndk1::shared_ptr<tulip::hook::CallingConvention>::~shared_ptr[abi:ne180000]()
PUBLIC 2af24 0 tulip::hook::HandlerMetadata::~HandlerMetadata()
PUBLIC 2af88 0 std::__ndk1::vector<tulip::hook::AbstractType, std::__ndk1::allocator<tulip::hook::AbstractType> >::__throw_length_error[abi:ne180000]() const
PUBLIC 2af9c 0 geode::modifier::FieldIntermediate<MyFMODAudioEngine, FMODAudioEngine>::self()
PUBLIC 2bbf4 0 MyFMODAudioEngine::parsePath(std::__ndk1::basic_string<char, std::__ndk1::char_traits<char>, std::__ndk1::allocator<char> >)
PUBLIC 2c8c8 0 geode::modifier::FieldContainer::getField(unsigned long)
PUBLIC 2cb80 0 geode::modifier::FieldContainer::setField(unsigned long, unsigned long, std::__ndk1::function<void (void*)>)
PUBLIC 2cc94 0 geode::modifier::FieldIntermediate<MyFMODAudioEngine, FMODAudioEngine>::fieldDestructor(void*)
PUBLIC 2cd68 0 std::__ndk1::vector<void*, std::__ndk1::allocator<void*> >::__throw_length_error[abi:ne180000]() const
PUBLIC 2cd7c 0 std::__ndk1::vector<std::__ndk1::function<void (void*)>, std::__ndk1::allocator<std::__ndk1::function<void (void*)> > >::__push_back_slow_path<std::__ndk1::function<void (void*)> >(std::__ndk1::function<void (void*)>&&)
PUBLIC 2cfa8 0 std::__ndk1::vector<std::__ndk1::function<void (void*)>, std::__ndk1::allocator<std::__ndk1::function<void (void*)> > >::__throw_length_error[abi:ne180000]() const
PUBLIC 2cfbc 0 std::__ndk1::vector<void*, std::__ndk1::allocator<void*> >::__throw_out_of_range[abi:ne180000]() const
PUBLIC 2cfd0 0 std::__ndk1::__throw_out_of_range[abi:ne180000](char const*)
PUBLIC 2d020 0 std::out_of_range::out_of_range[abi:ne180000](char const*)
PUBLIC 2d050 0 std::__ndk1::vector<std::__ndk1::function<void (void*)>, std::__ndk1::allocator<std::__ndk1::function<void (void*)> > >::__throw_out_of_range[abi:ne180000]() const
PUBLIC 2d064 0 std::__ndk1::__list_imp<std::__ndk1::basic_string<char, std::__ndk1::char_traits<char>, std::__ndk1::allocator<char> >, std::__ndk1::allocator<std::__ndk1::basic_string<char, std::__ndk1::char_traits<char>, std::__ndk1::allocator<char> > > >::~__list_imp()
PUBLIC 2d0dc 0 std::__ndk1::__function::__base<void (void*)>::~__base()
PUBLIC 2d0e0 0 std::__ndk1::__function::__func<void (*)(void*), std::__ndk1::allocator<void (*)(void*)>, void (void*)>::~__func()
PUBLIC 2d0e4 0 std::__ndk1::__function::__func<void (*)(void*), std::__ndk1::allocator<void (*)(void*)>, void (void*)>::__clone() const
PUBLIC 2d11c 0 std::__ndk1::__function::__func<void (*)(void*), std::__ndk1::allocator<void (*)(void*)>, void (void*)>::__clone(std::__ndk1::__function::__base<void (void*)>*) const
PUBLIC 2d134 0 std::__ndk1::__function::__func<void (*)(void*), std::__ndk1::allocator<void (*)(void*)>, void (void*)>::destroy()
PUBLIC 2d138 0 std::__ndk1::__function::__func<void (*)(void*), std::__ndk1::allocator<void (*)(void*)>, void (void*)>::destroy_deallocate()
PUBLIC 2d13c 0 std::__ndk1::__function::__func<void (*)(void*), std::__ndk1::allocator<void (*)(void*)>, void (void*)>::operator()(void*&&)
PUBLIC 2d14c 0 std::__ndk1::__function::__func<void (*)(void*), std::__ndk1::allocator<void (*)(void*)>, void (void*)>::target(std::type_info const&) const
PUBLIC 2d168 0 std::__ndk1::__function::__func<void (*)(void*), std::__ndk1::allocator<void (*)(void*)>, void (void*)>::target_type() const
PUBLIC 2d174 0 Manager::getSharedInstance()
PUBLIC 2d494 0 MyFMODAudioEngine::extractModID(std::__ndk1::match_results<std::__ndk1::__wrap_iter<char const*>, std::__ndk1::allocator<std::__ndk1::sub_match<std::__ndk1::__wrap_iter<char const*> > > > const&)
PUBLIC 2d718 0 std::__ndk1::regex_replace[abi:ne180000]<std::__ndk1::back_insert_iterator<std::__ndk1::basic_string<char, std::__ndk1::char_traits<char>, std::__ndk1::allocator<char> > >, std::__ndk1::__wrap_iter<char const*>, std::__ndk1::regex_traits<char>, char>(std::__ndk1::regex_traits<char>, std::__ndk1::__wrap_iter<char const*>, std::__ndk1::back_insert_iterator<std::__ndk1::basic_string<char, std::__ndk1::char_traits<char>, std::__ndk1::allocator<char> > >, std::__ndk1::basic_regex<char, std::__ndk1::regex_traits<char> > const&, std::__ndk1::basic_regex const*, std::__ndk1::regex_constants::match_flag_type)
PUBLIC 2dad4 0 std::__ndk1::regex_iterator<std::__ndk1::__wrap_iter<char const*>, char, std::__ndk1::regex_traits<char> >::regex_iterator(std::__ndk1::__wrap_iter<char const*>, std::__ndk1::__wrap_iter<char const*>, std::__ndk1::basic_regex<char, std::__ndk1::regex_traits<char> > const&, std::__ndk1::regex_constants::match_flag_type)
PUBLIC 2dc1c 0 std::__ndk1::match_results<std::__ndk1::__wrap_iter<char const*>, std::__ndk1::allocator<std::__ndk1::sub_match<std::__ndk1::__wrap_iter<char const*> > > >::format<std::__ndk1::back_insert_iterator<std::__ndk1::basic_string<char, std::__ndk1::char_traits<char>, std::__ndk1::allocator<char> > > >(std::__ndk1::back_insert_iterator<std::__ndk1::basic_string<char, std::__ndk1::char_traits<char>, std::__ndk1::allocator<char> > >, char const*, char const*, std::__ndk1::regex_constants::match_flag_type) const
PUBLIC 2dffc 0 std::__ndk1::regex_iterator<std::__ndk1::__wrap_iter<char const*>, char, std::__ndk1::regex_traits<char> >::operator++()
PUBLIC 2e218 0 std::__ndk1::basic_regex<char, std::__ndk1::regex_traits<char> >::__search<std::__ndk1::allocator<std::__ndk1::sub_match<char const*> > >(char const*, char const*, std::__ndk1::match_results<char const*, std::__ndk1::allocator<std::__ndk1::sub_match<char const*> > >&, std::__ndk1::regex_constants::match_flag_type) const
PUBLIC 2e484 0 std::__ndk1::match_results<std::__ndk1::__wrap_iter<char const*>, std::__ndk1::allocator<std::__ndk1::sub_match<std::__ndk1::__wrap_iter<char const*> > > >::__assign[abi:ne180000]<char const*, std::__ndk1::allocator<std::__ndk1::sub_match<char const*> > >(std::__ndk1::__wrap_iter<char const*>, std::__ndk1::__wrap_iter<char const*>, std::__ndk1::match_results<char const*, std::__ndk1::allocator<std::__ndk1::sub_match<char const*> > > const&, bool)
PUBLIC 2e654 0 std::__ndk1::basic_regex<char, std::__ndk1::regex_traits<char> >::__match_at_start_posix_nosubs<std::__ndk1::allocator<std::__ndk1::sub_match<char const*> > >(char const*, char const*, std::__ndk1::match_results<char const*, std::__ndk1::allocator<std::__ndk1::sub_match<char const*> > >&, std::__ndk1::regex_constants::match_flag_type, bool) const
PUBLIC 2efc4 0 std::__ndk1::basic_regex<char, std::__ndk1::regex_traits<char> >::__match_at_start_posix_subs<std::__ndk1::allocator<std::__ndk1::sub_match<char const*> > >(char const*, char const*, std::__ndk1::match_results<char const*, std::__ndk1::allocator<std::__ndk1::sub_match<char const*> > >&, std::__ndk1::regex_constants::match_flag_type, bool) const
PUBLIC 2f5d4 0 std::__ndk1::deque<std::__ndk1::__state<char>, std::__ndk1::allocator<std::__ndk1::__state<char> > >::clear()
PUBLIC 2f73c 0 std::__ndk1::deque<std::__ndk1::__state<char>, std::__ndk1::allocator<std::__ndk1::__state<char> > >::~deque[abi:ne180000]()
PUBLIC 2f7b8 0 std::__ndk1::deque<std::__ndk1::__state<char>, std::__ndk1::allocator<std::__ndk1::__state<char> > >::__add_back_capacity()
PUBLIC 2fda8 0 std::__ndk1::__split_buffer<std::__ndk1::__state<char>*, std::__ndk1::allocator<std::__ndk1::__state<char>*> >::push_back(std::__ndk1::__state<char>*&&)
PUBLIC 2ff30 0 std::__ndk1::__split_buffer<std::__ndk1::__state<char>*, std::__ndk1::allocator<std::__ndk1::__state<char>*> >::push_front(std::__ndk1::__state<char>*&&)
PUBLIC 300bc 0 std::__ndk1::deque<std::__ndk1::__state<char>, std::__ndk1::allocator<std::__ndk1::__state<char> > >::__add_front_capacity()
PUBLIC 304b4 0 std::__ndk1::__split_buffer<std::__ndk1::__state<char>*, std::__ndk1::allocator<std::__ndk1::__state<char>*> >::push_front(std::__ndk1::__state<char>* const&)
PUBLIC 30640 0 std::__ndk1::vector<std::__ndk1::sub_match<char const*>, std::__ndk1::allocator<std::__ndk1::sub_match<char const*> > >::__assign_with_size[abi:ne180000]<std::__ndk1::sub_match<char const*>*, std::__ndk1::vector<std::__ndk1::sub_match<char const*>, std::__ndk1::allocator<std::__ndk1::sub_match<char const*> > >::__assign_with_size[abi:ne180000]>(std::__ndk1::sub_match<char const*>*, std::__ndk1::vector<std::__ndk1::sub_match<char const*>, std::__ndk1::allocator<std::__ndk1::sub_match<char const*> > >::__assign_with_size[abi:ne180000], long)
PUBLIC 30878 0 std::__ndk1::vector<std::__ndk1::pair<unsigned long, char const*>, std::__ndk1::allocator<std::__ndk1::pair<unsigned long, char const*> > >::__assign_with_size[abi:ne180000]<std::__ndk1::pair<unsigned long, char const*>*, std::__ndk1::vector<std::__ndk1::pair<unsigned long, char const*>, std::__ndk1::allocator<std::__ndk1::pair<unsigned long, char const*> > >::__assign_with_size[abi:ne180000]>(std::__ndk1::pair<unsigned long, char const*>*, std::__ndk1::vector<std::__ndk1::pair<unsigned long, char const*>, std::__ndk1::allocator<std::__ndk1::pair<unsigned long, char const*> > >::__assign_with_size[abi:ne180000], long)
PUBLIC 30b80 0 std::__ndk1::vector<std::__ndk1::sub_match<std::__ndk1::__wrap_iter<char const*> >, std::__ndk1::allocator<std::__ndk1::sub_match<std::__ndk1::__wrap_iter<char const*> > > >::__append(unsigned long)
PUBLIC 30d18 0 std::__ndk1::vector<std::__ndk1::sub_match<std::__ndk1::__wrap_iter<char const*> >, std::__ndk1::allocator<std::__ndk1::sub_match<std::__ndk1::__wrap_iter<char const*> > > >::__throw_length_error[abi:ne180000]() const
PUBLIC 30d2c 0 std::__ndk1::basic_string<char, std::__ndk1::char_traits<char>, std::__ndk1::allocator<char> >::__assign_external(char const*, unsigned long)
PUBLIC 30e54 0 std::__ndk1::__tree<std::__ndk1::__value_type<std::__ndk1::basic_string<char, std::__ndk1::char_traits<char>, std::__ndk1::allocator<char> >, std::__ndk1::shared_ptr<geode::Hook> >, std::__ndk1::__map_value_compare<std::__ndk1::basic_string<char, std::__ndk1::char_traits<char>, std::__ndk1::allocator<char> >, std::__ndk1::__value_type<std::__ndk1::basic_string<char, std::__ndk1::char_traits<char>, std::__ndk1::allocator<char> >, std::__ndk1::shared_ptr<geode::Hook> >, std::__ndk1::less<std::__ndk1::basic_string<char, std::__ndk1::char_traits<char>, std::__ndk1::allocator<char> > >, true>, std::__ndk1::allocator<std::__ndk1::__value_type<std::__ndk1::basic_string<char, std::__ndk1::char_traits<char>, std::__ndk1::allocator<char> >, std::__ndk1::shared_ptr<geode::Hook> > > >::__emplace_unique_key_args<std::__ndk1::basic_string<char, std::__ndk1::char_traits<char>, std::__ndk1::allocator<char> >, std::__ndk1::piecewise_construct_t const&, std::__ndk1::tuple<std::__ndk1::basic_string<char, std::__ndk1::char_traits<char>, std::__ndk1::allocator<char> >&&>, std::__ndk1::tuple<> >(std::__ndk1::basic_string<char, std::__ndk1::char_traits<char>, std::__ndk1::allocator<char> > const&, std::__ndk1::piecewise_construct_t const&, std::__ndk1::tuple<std::__ndk1::basic_string<char, std::__ndk1::char_traits<char>, std::__ndk1::allocator<char> >&&>, std::__ndk1::tuple<>)
PUBLIC 30fcc 0 std::__ndk1::__tree_balance_after_insert[abi:ne180000]<std::__ndk1::__tree_node_base<void*>*>(std::__ndk1::__tree_node_base<void*>*, std::__ndk1::__tree_node_base<void*>*)
PUBLIC 3117c 0 _GLOBAL__sub_I_FMODAudioEngine.cpp
PUBLIC 311f8 0 geodeExecFunction44<(anonymous namespace)::ExecFuncUnique44>(geode::ModStateEvent*)
PUBLIC 312f0 0 __cxx_global_var_init.12
PUBLIC 31770 0 geode::modifier::ModifyBase<geode::modifier::ModifyDerive<MyPlayLayer, PlayLayer> >::~ModifyBase()
PUBLIC 3178c 0 __cxx_global_var_init.13
PUBLIC 31c0c 0 geode::modifier::ModifyBase<geode::modifier::ModifyDerive<MyMenuLayer, MenuLayer> >::~ModifyBase()
PUBLIC 31c28 0 std::__ndk1::operator==[abi:ne180000]<char, std::__ndk1::char_traits<char>, std::__ndk1::allocator<char> >(std::__ndk1::basic_string<char, std::__ndk1::char_traits<char>, std::__ndk1::allocator<char> > const&, std::__ndk1::basic_string const*)
PUBLIC 31c7c 0 geode::modifier::ModifyDerive<MyPlayLayer, PlayLayer>::apply()
PUBLIC 325d0 0 geode::modifier::ModifyBase<geode::modifier::ModifyDerive<MyPlayLayer, PlayLayer> >::apply()
PUBLIC 325d4 0 geode::modifier::AsStaticFunction_postUpdate<MyPlayLayer, void (MyPlayLayer::*)(float)>::Impl<void (MyPlayLayer::*)(float)>::function(MyPlayLayer*, float)
PUBLIC 325d8 0 std::__ndk1::basic_string<char, std::__ndk1::char_traits<char>, std::__ndk1::allocator<char> >::basic_string[abi:ne180000]<0>()
PUBLIC 32674 0 geode::Hook::create<void (*)(MyPlayLayer*)>(void*, void (*)(MyPlayLayer*), std::__ndk1::basic_string<char, std::__ndk1::char_traits<char>, std::__ndk1::allocator<char> > const&, tulip::hook::TulipConvention, tulip::hook::HookMetadata const&)
PUBLIC 327a8 0 geode::modifier::AsStaticFunction_levelComplete<MyPlayLayer, void (MyPlayLayer::*)()>::Impl<void (MyPlayLayer::*)()>::function(MyPlayLayer*)
PUBLIC 327e0 0 geode::modifier::AsStaticFunction_onQuit<MyPlayLayer, void (MyPlayLayer::*)()>::Impl<void (MyPlayLayer::*)()>::function(MyPlayLayer*)
PUBLIC 32914 0 geode::modifier::AsStaticFunction_setupHasCompleted<MyPlayLayer, void (MyPlayLayer::*)()>::Impl<void (MyPlayLayer::*)()>::function(MyPlayLayer*)
PUBLIC 329dc 0 geode::addresser::Addresser::addressOfVirtual<void, PlayLayer, float>(void (PlayLayer::*)(float))
PUBLIC 32aa4 0 PlayLayer::PlayLayer(geode::ZeroConstructorType)
PUBLIC 332d0 0 GJGameState::GJGameState()
PUBLIC 33848 0 geode::stl::unordered_map<int, int, geode::stl::hash<int>, geode::stl::equal_to<int>, std::__ndk1::allocator<std::__ndk1::pair<int const, int> > >::~unordered_map()
PUBLIC 338c0 0 geode::stl::unordered_set<int, geode::stl::hash<int>, geode::stl::equal_to<int>, std::__ndk1::allocator<int> >::~unordered_set()
PUBLIC 33938 0 geode::stl::unordered_map<int, gd::string, geode::stl::hash<int>, geode::stl::equal_to<int>, std::__ndk1::allocator<std::__ndk1::pair<int const, gd::string> > >::~unordered_map()
PUBLIC 339bc 0 gd::map<std::__ndk1::pair<int, int>, int>::~map()
PUBLIC 339d8 0 geode::stl::unordered_map<int, gd::vector<LabelGameObject*>, geode::stl::hash<int>, geode::stl::equal_to<int>, std::__ndk1::allocator<std::__ndk1::pair<int const, gd::vector<LabelGameObject*> > > >::~unordered_map()
PUBLIC 33a64 0 geode::stl::unordered_map<int, std::__ndk1::pair<int, int>, geode::stl::hash<int>, geode::stl::equal_to<int>, std::__ndk1::allocator<std::__ndk1::pair<int const, std::__ndk1::pair<int, int> > > >::~unordered_map()
PUBLIC 33adc 0 geode::stl::unordered_map<int, gd::vector<GameObject*>, geode::stl::hash<int>, geode::stl::equal_to<int>, std::__ndk1::allocator<std::__ndk1::pair<int const, gd::vector<GameObject*> > > >::~unordered_map()
PUBLIC 33b68 0 geode::stl::unordered_map<int, cocos2d::CCPoint, geode::stl::hash<int>, geode::stl::equal_to<int>, std::__ndk1::allocator<std::__ndk1::pair<int const, cocos2d::CCPoint> > >::~unordered_map()
PUBLIC 33be0 0 gd::vector<geode::stl::unordered_map<int, int, geode::stl::hash<int>, geode::stl::equal_to<int>, std::__ndk1::allocator<std::__ndk1::pair<int const, int> > > >::~vector()
PUBLIC 33ce4 0 GJGameState::~GJGameState()
PUBLIC 340dc 0 geode::stl::unordered_map<int, SongChannelState, geode::stl::hash<int>, geode::stl::equal_to<int>, std::__ndk1::allocator<std::__ndk1::pair<int const, SongChannelState> > >::~unordered_map()
PUBLIC 34154 0 gd::map<std::__ndk1::pair<int, int>, SFXTriggerInstance>::~map()
PUBLIC 34170 0 geode::stl::unordered_map<int, std::__ndk1::vector<int, std::__ndk1::allocator<int> >, geode::stl::hash<int>, geode::stl::equal_to<int>, std::__ndk1::allocator<std::__ndk1::pair<int const, std::__ndk1::vector<int, std::__ndk1::allocator<int> > > > >::~unordered_map()
PUBLIC 34200 0 gd::vector<EnterEffectInstance>::~vector()
PUBLIC 34298 0 geode::stl::unordered_map<int, std::__ndk1::vector<EnterEffectInstance, std::__ndk1::allocator<EnterEffectInstance> >, geode::stl::hash<int>, geode::stl::equal_to<int>, std::__ndk1::allocator<std::__ndk1::pair<int const, std::__ndk1::vector<EnterEffectInstance, std::__ndk1::allocator<EnterEffectInstance> > > > >::~unordered_map()
PUBLIC 342d4 0 gd::map<std::__ndk1::pair<GJGameEvent, int>, int>::~map()
PUBLIC 342f0 0 gd::map<std::__ndk1::pair<GJGameEvent, int>, gd::vector<EventTriggerInstance> >::~map()
PUBLIC 3430c 0 geode::stl::unordered_map<int, EnhancedGameObject*, geode::stl::hash<int>, geode::stl::equal_to<int>, std::__ndk1::allocator<std::__ndk1::pair<int const, EnhancedGameObject*> > >::~unordered_map()
PUBLIC 34384 0 geode::stl::unordered_map<int, GameObjectPhysics, geode::stl::hash<int>, geode::stl::equal_to<int>, std::__ndk1::allocator<std::__ndk1::pair<int const, GameObjectPhysics> > >::~unordered_map()
PUBLIC 343fc 0 geode::stl::unordered_map<int, GJValueTween, geode::stl::hash<int>, geode::stl::equal_to<int>, std::__ndk1::allocator<std::__ndk1::pair<int const, GJValueTween> > >::~unordered_map()
PUBLIC 34474 0 geode::stl::unordered_map<int, bool, geode::stl::hash<int>, geode::stl::equal_to<int>, std::__ndk1::allocator<std::__ndk1::pair<int const, bool> > >::~unordered_map()
PUBLIC 344ec 0 gd::map<std::__ndk1::pair<GJGameEvent, int>, gd::vector<EventTriggerInstance> >::map(std::__ndk1::map<std::__ndk1::pair<GJGameEvent, int>, gd::vector<EventTriggerInstance>, std::__ndk1::less<std::__ndk1::pair<GJGameEvent, int> >, std::__ndk1::allocator<std::__ndk1::pair<std::__ndk1::pair<GJGameEvent, int> const, gd::vector<EventTriggerInstance> > > >)
PUBLIC 346b8 0 gd::map<std::__ndk1::pair<GJGameEvent, int>, gd::vector<EventTriggerInstance> >::insert_pair(std::__ndk1::pair<std::__ndk1::pair<GJGameEvent, int>, gd::vector<EventTriggerInstance> > const&)
PUBLIC 34970 0 std::__ndk1::pair<std::__ndk1::pair<GJGameEvent, int>, gd::vector<EventTriggerInstance> >::~pair()
PUBLIC 349f0 0 std::__ndk1::pair<std::__ndk1::pair<GJGameEvent, int> const, gd::vector<EventTriggerInstance> >::~pair()
PUBLIC 34a70 0 gd::vector<EventTriggerInstance>::vector(gd::vector<EventTriggerInstance> const&)
PUBLIC 34c10 0 geode::stl::_rb_insert_rebalance(bool, geode::stl::_rb_tree_base*, geode::stl::_rb_tree_base*, geode::stl::_rb_tree_base&)
PUBLIC 34ec8 0 gd::vector<EventTriggerInstance>::operator=(gd::vector<EventTriggerInstance> const&)
PUBLIC 35084 0 gd::vector<EventTriggerInstance>::~vector()
PUBLIC 35104 0 std::__ndk1::__tree<std::__ndk1::__value_type<std::__ndk1::pair<GJGameEvent, int>, gd::vector<EventTriggerInstance> >, std::__ndk1::__map_value_compare<std::__ndk1::pair<GJGameEvent, int>, std::__ndk1::__value_type<std::__ndk1::pair<GJGameEvent, int>, gd::vector<EventTriggerInstance> >, std::__ndk1::less<std::__ndk1::pair<GJGameEvent, int> >, true>, std::__ndk1::allocator<std::__ndk1::__value_type<std::__ndk1::pair<GJGameEvent, int>, gd::vector<EventTriggerInstance> > > >::destroy(std::__ndk1::__tree_node<std::__ndk1::__value_type<std::__ndk1::pair<GJGameEvent, int>, gd::vector<EventTriggerInstance> >, void*>*)
PUBLIC 3519c 0 gd::map<std::__ndk1::pair<int, int>, SFXTriggerInstance>::erase(geode::stl::_rb_tree_node<std::__ndk1::pair<std::__ndk1::pair<int, int>, SFXTriggerInstance> >*)
PUBLIC 351f0 0 gd::map<int, EnterEffectAnimValue>::erase(geode::stl::_rb_tree_node<std::__ndk1::pair<int, EnterEffectAnimValue> >*)
PUBLIC 35244 0 geode::stl::_Hashtable<int, std::__ndk1::pair<int const, std::__ndk1::vector<EnterEffectInstance, std::__ndk1::allocator<EnterEffectInstance> > >, std::__ndk1::allocator<std::__ndk1::pair<int const, std::__ndk1::vector<EnterEffectInstance, std::__ndk1::allocator<EnterEffectInstance> > > >, geode::stl::__detail::_Select1st, geode::stl::equal_to<int>, geode::stl::hash<int>, geode::stl::__detail::_Mod_range_hashing, geode::stl::__detail::_Default_ranged_hash, geode::stl::__detail::_Prime_rehash_policy, geode::stl::__detail::_Hashtable_traits<false, false, true> >::clear()
PUBLIC 352ec 0 gd::map<std::__ndk1::pair<GJGameEvent, int>, int>::erase(geode::stl::_rb_tree_node<std::__ndk1::pair<std::__ndk1::pair<GJGameEvent, int>, int> >*)
PUBLIC 35340 0 gd::map<std::__ndk1::pair<GJGameEvent, int>, gd::vector<EventTriggerInstance> >::erase(geode::stl::_rb_tree_node<std::__ndk1::pair<std::__ndk1::pair<GJGameEvent, int>, gd::vector<EventTriggerInstance> > >*)
PUBLIC 353e8 0 gd::map<std::__ndk1::pair<int, int>, int>::erase(geode::stl::_rb_tree_node<std::__ndk1::pair<std::__ndk1::pair<int, int>, int> >*)
PUBLIC 3543c 0 MyPlayLayer::postUpdate(float)
PUBLIC 385d4 0 geode::modifier::FieldIntermediate<MyPlayLayer, PlayLayer>::self()
PUBLIC 389ac 0 MyPlayLayer::hIDeString()
PUBLIC 38f70 0 cocos2d::CCSequence::create(cocos2d::CCFiniteTimeAction*, ...)
PUBLIC 39008 0 geode::log::info<std::__ndk1::basic_string<char, std::__ndk1::char_traits<char>, std::__ndk1::allocator<char> >&>(fmt::v11::basic_format_string<char, fmt::v11::type_identity<decltype ((wrapCocosObj<std::__ndk1::basic_string<char, std::__ndk1::char_traits<char>, std::__ndk1::allocator<char> >&>)((std::declval<std::__ndk1::basic_string<char, std::__ndk1::char_traits<char>, std::__ndk1::allocator<char> >&>)()))>::type>, std::__ndk1::basic_string<char, std::__ndk1::char_traits<char>, std::__ndk1::allocator<char> >&)
PUBLIC 390b4 0 MyPlayLayer::replaceXWithYInZ(std::__ndk1::basic_string<char, std::__ndk1::char_traits<char>, std::__ndk1::allocator<char> > const&, std::__ndk1::basic_string<char, std::__ndk1::char_traits<char>, std::__ndk1::allocator<char> > const&, std::__ndk1::basic_string<char, std::__ndk1::char_traits<char>, std::__ndk1::allocator<char> > const&)
PUBLIC 39268 0 std::__ndk1::regex_search[abi:ne180000]<std::__ndk1::char_traits<char>, std::__ndk1::allocator<char>, std::__ndk1::char_traits<char><std::__ndk1::sub_match<std::__ndk1::__wrap_iter<char const*> > >, char, std::__ndk1::regex_traits<char> >(std::__ndk1::basic_string<char, std::__ndk1::char_traits<char>, std::__ndk1::allocator<char> > const&, std::__ndk1::match_results<std::__ndk1::allocator<char>::const_iterator, std::__ndk1::char_traits<char><std::__ndk1::sub_match<std::__ndk1::__wrap_iter<char const*> > > >&, std::__ndk1::basic_regex<std::__ndk1::basic_string, std::__ndk1::regex_traits<char> > const&, std::__ndk1::regex_constants::match_flag_type)
PUBLIC 39384 0 std::__ndk1::sub_match<std::__ndk1::__wrap_iter<char const*> >::str[abi:ne180000]() const
PUBLIC 394a4 0 MyPlayLayer::buildPlayerStatusString(PlayerObject*)
PUBLIC 3b478 0 MyPlayLayer::buildLevelTraitsString()
PUBLIC 3b854 0 std::__ndk1::basic_string<char, std::__ndk1::char_traits<char>, std::__ndk1::allocator<char> >::ends_with[abi:ne180000](std::__ndk1::basic_string_view<char, std::__ndk1::char_traits<char> >) const
PUBLIC 3b8a4 0 MyPlayLayer::xContainedInY(std::__ndk1::basic_string<char, std::__ndk1::char_traits<char>, std::__ndk1::allocator<char> >, std::__ndk1::basic_string_view<char, std::__ndk1::char_traits<char> >, bool)
PUBLIC 3bb18 0 std::__ndk1::basic_string<char, std::__ndk1::char_traits<char>, std::__ndk1::allocator<char> >::append[abi:ne180000](std::__ndk1::basic_string<char, std::__ndk1::char_traits<char>, std::__ndk1::allocator<char> > const&)
PUBLIC 3bb34 0 MyPlayLayer::buildCameraPropertiesString()
PUBLIC 3c658 0 MyPlayLayer::buildGeodeLoaderString(Manager*)
PUBLIC 3c830 0 MyPlayLayer::buildMiscInfoString()
PUBLIC 3e19c 0 std::__ndk1::basic_string<char, std::__ndk1::char_traits<char>, std::__ndk1::allocator<char> >::substr[abi:ne180000](unsigned long, unsigned long) const
PUBLIC 3e248 0 geode::modifier::FieldIntermediate<MyPlayLayer, PlayLayer>::fieldDestructor(void*)
PUBLIC 3e320 0 std::__ndk1::__exception_guard_exceptions<std::__ndk1::vector<std::__ndk1::basic_string<char, std::__ndk1::char_traits<char>, std::__ndk1::allocator<char> >, std::__ndk1::allocator<std::__ndk1::basic_string<char, std::__ndk1::char_traits<char>, std::__ndk1::allocator<char> > > >::__destroy_vector>::~__exception_guard_exceptions[abi:ne180000]()
PUBLIC 3e3ac 0 MyPlayLayer::isInfoLabel(std::__ndk1::basic_string<char, std::__ndk1::char_traits<char>, std::__ndk1::allocator<char> > const&)
PUBLIC 3e680 0 std::__ndk1::basic_regex<char, std::__ndk1::regex_traits<char> >::__parse<std::__ndk1::__wrap_iter<char const*> >(std::__ndk1::__wrap_iter<char const*>, std::__ndk1::__wrap_iter<char const*>)
PUBLIC 3eb50 0 std::__ndk1::basic_regex<char, std::__ndk1::regex_traits<char> >::__parse_ecma_exp<std::__ndk1::__wrap_iter<char const*> >(std::__ndk1::__wrap_iter<char const*>, std::__ndk1::__wrap_iter<char const*>)
PUBLIC 3edbc 0 std::__ndk1::basic_regex<char, std::__ndk1::regex_traits<char> >::__parse_basic_reg_exp<std::__ndk1::__wrap_iter<char const*> >(std::__ndk1::__wrap_iter<char const*>, std::__ndk1::__wrap_iter<char const*>)
PUBLIC 3ef44 0 std::__ndk1::basic_regex<char, std::__ndk1::regex_traits<char> >::__parse_extended_reg_exp<std::__ndk1::__wrap_iter<char const*> >(std::__ndk1::__wrap_iter<char const*>, std::__ndk1::__wrap_iter<char const*>)
PUBLIC 3f0b4 0 std::__ndk1::basic_regex<char, std::__ndk1::regex_traits<char> >::__parse_assertion<std::__ndk1::__wrap_iter<char const*> >(std::__ndk1::__wrap_iter<char const*>, std::__ndk1::__wrap_iter<char const*>)
PUBLIC 3f418 0 std::__ndk1::basic_regex<char, std::__ndk1::regex_traits<char> >::__parse_atom<std::__ndk1::__wrap_iter<char const*> >(std::__ndk1::__wrap_iter<char const*>, std::__ndk1::__wrap_iter<char const*>)
PUBLIC 3fa90 0 std::__ndk1::basic_regex<char, std::__ndk1::regex_traits<char> >::__parse_ERE_dupl_symbol<std::__ndk1::__wrap_iter<char const*> >(std::__ndk1::__wrap_iter<char const*>, std::__ndk1::__wrap_iter<char const*>, std::__ndk1::__owns_one_state<char>*, unsigned int, unsigned int)
PUBLIC 3fe90 0 std::__ndk1::basic_regex<char, std::__ndk1::regex_traits<char> >::__parse_bracket_expression<std::__ndk1::__wrap_iter<char const*> >(std::__ndk1::__wrap_iter<char const*>, std::__ndk1::__wrap_iter<char const*>)
PUBLIC 40a50 0 std::__ndk1::basic_regex<char, std::__ndk1::regex_traits<char> >::__parse_character_escape<std::__ndk1::__wrap_iter<char const*> >(std::__ndk1::__wrap_iter<char const*>, std::__ndk1::__wrap_iter<char const*>, std::__ndk1::basic_string<char, std::__ndk1::char_traits<char>, std::__ndk1::allocator<char> >*)
PUBLIC 40f68 0 std::__ndk1::basic_regex<char, std::__ndk1::regex_traits<char> >::__parse_class_escape<std::__ndk1::__wrap_iter<char const*> >(std::__ndk1::__wrap_iter<char const*>, std::__ndk1::__wrap_iter<char const*>, std::__ndk1::basic_string<char, std::__ndk1::char_traits<char>, std::__ndk1::allocator<char> >&, std::__ndk1::__bracket_expression<char, std::__ndk1::regex_traits<char> >*)
PUBLIC 41140 0 std::__ndk1::basic_regex<char, std::__ndk1::regex_traits<char> >::__parse_awk_escape<std::__ndk1::__wrap_iter<char const*> >(std::__ndk1::__wrap_iter<char const*>, std::__ndk1::__wrap_iter<char const*>, std::__ndk1::basic_string<char, std::__ndk1::char_traits<char>, std::__ndk1::allocator<char> >*)
PUBLIC 41604 0 std::__ndk1::regex_traits<char>::__lookup_collatename<std::__ndk1::__wrap_iter<char const*> >(std::__ndk1::__wrap_iter<char const*>, std::__ndk1::__wrap_iter<char const*>, char) const
PUBLIC 4190c 0 std::__ndk1::basic_regex<char, std::__ndk1::regex_traits<char> >::__parse_nondupl_RE<std::__ndk1::__wrap_iter<char const*> >(std::__ndk1::__wrap_iter<char const*>, std::__ndk1::__wrap_iter<char const*>)
PUBLIC 41c40 0 std::__ndk1::basic_regex<char, std::__ndk1::regex_traits<char> >::__parse_RE_dupl_symbol<std::__ndk1::__wrap_iter<char const*> >(std::__ndk1::__wrap_iter<char const*>, std::__ndk1::__wrap_iter<char const*>, std::__ndk1::__owns_one_state<char>*, unsigned int, unsigned int)
PUBLIC 41eb4 0 std::__ndk1::basic_regex<char, std::__ndk1::regex_traits<char> >::__parse_ERE_expression<std::__ndk1::__wrap_iter<char const*> >(std::__ndk1::__wrap_iter<char const*>, std::__ndk1::__wrap_iter<char const*>)
PUBLIC 421b0 0 std::__ndk1::basic_regex<char, std::__ndk1::regex_traits<char> >::__parse_QUOTED_CHAR_ERE<std::__ndk1::__wrap_iter<char const*> >(std::__ndk1::__wrap_iter<char const*>, std::__ndk1::__wrap_iter<char const*>)
PUBLIC 42280 0 std::__ndk1::basic_string<char, std::__ndk1::char_traits<char>, std::__ndk1::allocator<char> >::__assign_external(char const*)
PUBLIC 422b4 0 std::__ndk1::basic_string<char, std::__ndk1::char_traits<char>, std::__ndk1::allocator<char> >::__throw_out_of_range[abi:ne180000]() const
PUBLIC 422c8 0 MyPlayLayer::setupSettings()
PUBLIC 42e30 0 std::__ndk1::shared_ptr<geode::SettingV3>::~shared_ptr[abi:ne180000]()
PUBLIC 42e80 0 geode::modifier::ModifyDerive<MyMenuLayer, MenuLayer>::apply()
PUBLIC 43188 0 geode::modifier::ModifyBase<geode::modifier::ModifyDerive<MyMenuLayer, MenuLayer> >::apply()
PUBLIC 4318c 0 geode::modifier::AsStaticFunction_init<MyMenuLayer, bool (MyMenuLayer::*)()>::Impl<bool (MyMenuLayer::*)()>::function(MyMenuLayer*)
PUBLIC 434f4 0 geode::addresser::Addresser::addressOfVirtual<bool, MenuLayer, >(bool (MenuLayer::*)())
PUBLIC 4359c 0 MenuLayer::MenuLayer(geode::ZeroConstructorType)
PUBLIC 43638 0 std::__ndk1::__variant_detail::__visitation::__base::__dispatcher<(unsigned long)0>::__dispatch[abi:ne180000]<std::__ndk1::__variant_detail::__dtor<std::__ndk1::__variant_detail::__traits<std::__ndk1::__fs::filesystem::path, geode::ModMetadata, std::__ndk1::__fs::filesystem::path*::Mod>, (std::__ndk1::__variant_detail::_Trait)1>::__destroy[abi:ne180000]()::{lambda(auto:1&)#1}, std::__ndk1::__variant_detail::__base<(std::__ndk1::__variant_detail::__traits<std::__ndk1::__fs::filesystem::path, geode::ModMetadata, std::__ndk1::__fs::filesystem::path*::Mod>)1, std::__ndk1::__fs::filesystem, geode, std::__ndk1::__fs::filesystem::path::Mod>&>(std::__ndk1::__variant_detail::__dtor<std::__ndk1::__variant_detail::__traits<std::__ndk1::__fs::filesystem::path, geode::ModMetadata, std::__ndk1::__fs::filesystem::path*::Mod>, (std::__ndk1::__variant_detail::_Trait)1>, std::__ndk1::__variant_detail::__base<(std::__ndk1::__variant_detail::__traits<std::__ndk1::__fs::filesystem::path, geode::ModMetadata, std::__ndk1::__fs::filesystem::path*::Mod>)1, std::__ndk1::__fs::filesystem, geode, std::__ndk1::__fs::filesystem::path::Mod>&)
PUBLIC 4364c 0 std::__ndk1::__variant_detail::__visitation::__base::__dispatcher<(unsigned long)1>::__dispatch[abi:ne180000]<std::__ndk1::__variant_detail::__dtor<std::__ndk1::__variant_detail::__traits<std::__ndk1::__fs::filesystem::path, geode::ModMetadata, std::__ndk1::__fs::filesystem::path*::Mod>, (std::__ndk1::__variant_detail::_Trait)1>::__destroy[abi:ne180000]()::{lambda(auto:1&)#1}, std::__ndk1::__variant_detail::__base<(std::__ndk1::__variant_detail::__traits<std::__ndk1::__fs::filesystem::path, geode::ModMetadata, std::__ndk1::__fs::filesystem::path*::Mod>)1, std::__ndk1::__fs::filesystem, geode, std::__ndk1::__fs::filesystem::path::Mod>&>(std::__ndk1::__variant_detail::__dtor<std::__ndk1::__variant_detail::__traits<std::__ndk1::__fs::filesystem::path, geode::ModMetadata, std::__ndk1::__fs::filesystem::path*::Mod>, (std::__ndk1::__variant_detail::_Trait)1>, std::__ndk1::__variant_detail::__base<(std::__ndk1::__variant_detail::__traits<std::__ndk1::__fs::filesystem::path, geode::ModMetadata, std::__ndk1::__fs::filesystem::path*::Mod>)1, std::__ndk1::__fs::filesystem, geode, std::__ndk1::__fs::filesystem::path::Mod>&)
PUBLIC 43654 0 std::__ndk1::__variant_detail::__visitation::__base::__dispatcher<(unsigned long)2>::__dispatch[abi:ne180000]<std::__ndk1::__variant_detail::__dtor<std::__ndk1::__variant_detail::__traits<std::__ndk1::__fs::filesystem::path, geode::ModMetadata, std::__ndk1::__fs::filesystem::path*::Mod>, (std::__ndk1::__variant_detail::_Trait)1>::__destroy[abi:ne180000]()::{lambda(auto:1&)#1}, std::__ndk1::__variant_detail::__base<(std::__ndk1::__variant_detail::__traits<std::__ndk1::__fs::filesystem::path, geode::ModMetadata, std::__ndk1::__fs::filesystem::path*::Mod>)1, std::__ndk1::__fs::filesystem, geode, std::__ndk1::__fs::filesystem::path::Mod>&>(std::__ndk1::__variant_detail::__dtor<std::__ndk1::__variant_detail::__traits<std::__ndk1::__fs::filesystem::path, geode::ModMetadata, std::__ndk1::__fs::filesystem::path*::Mod>, (std::__ndk1::__variant_detail::_Trait)1>, std::__ndk1::__variant_detail::__base<(std::__ndk1::__variant_detail::__traits<std::__ndk1::__fs::filesystem::path, geode::ModMetadata, std::__ndk1::__fs::filesystem::path*::Mod>)1, std::__ndk1::__fs::filesystem, geode, std::__ndk1::__fs::filesystem::path::Mod>&)
PUBLIC 43658 0 std::__ndk1::__function::__base<void (std::__ndk1::shared_ptr<geode::SettingV3>)>::~__base()
PUBLIC 4365c 0 std::__ndk1::__function::__func<geodeExecFunction44<(anonymous namespace)::ExecFuncUnique44>(geode::ModStateEvent*)::{lambda(std::__ndk1::shared_ptr<geode::SettingV3>)#1}, std::__ndk1::allocator<geodeExecFunction44<(anonymous namespace)::ExecFuncUnique44>(geode::ModStateEvent*)::{lambda(std::__ndk1::shared_ptr<geode::SettingV3>)#1}>, void (std::__ndk1::shared_ptr<geode::SettingV3>)>::~__func()
PUBLIC 43660 0 std::__ndk1::__function::__func<geodeExecFunction44<(anonymous namespace)::ExecFuncUnique44>(geode::ModStateEvent*)::{lambda(std::__ndk1::shared_ptr<geode::SettingV3>)#1}, std::__ndk1::allocator<geodeExecFunction44<(anonymous namespace)::ExecFuncUnique44>(geode::ModStateEvent*)::{lambda(std::__ndk1::shared_ptr<geode::SettingV3>)#1}>, void (std::__ndk1::shared_ptr<geode::SettingV3>)>::__clone() const
PUBLIC 43684 0 std::__ndk1::__function::__func<geodeExecFunction44<(anonymous namespace)::ExecFuncUnique44>(geode::ModStateEvent*)::{lambda(std::__ndk1::shared_ptr<geode::SettingV3>)#1}, std::__ndk1::allocator<geodeExecFunction44<(anonymous namespace)::ExecFuncUnique44>(geode::ModStateEvent*)::{lambda(std::__ndk1::shared_ptr<geode::SettingV3>)#1}>, void (std::__ndk1::shared_ptr<geode::SettingV3>)>::__clone(std::__ndk1::__function::__base<void (std::__ndk1::shared_ptr<geode::SettingV3>)>*) const
PUBLIC 43694 0 std::__ndk1::__function::__func<geodeExecFunction44<(anonymous namespace)::ExecFuncUnique44>(geode::ModStateEvent*)::{lambda(std::__ndk1::shared_ptr<geode::SettingV3>)#1}, std::__ndk1::allocator<geodeExecFunction44<(anonymous namespace)::ExecFuncUnique44>(geode::ModStateEvent*)::{lambda(std::__ndk1::shared_ptr<geode::SettingV3>)#1}>, void (std::__ndk1::shared_ptr<geode::SettingV3>)>::destroy()
PUBLIC 43698 0 std::__ndk1::__function::__func<geodeExecFunction44<(anonymous namespace)::ExecFuncUnique44>(geode::ModStateEvent*)::{lambda(std::__ndk1::shared_ptr<geode::SettingV3>)#1}, std::__ndk1::allocator<geodeExecFunction44<(anonymous namespace)::ExecFuncUnique44>(geode::ModStateEvent*)::{lambda(std::__ndk1::shared_ptr<geode::SettingV3>)#1}>, void (std::__ndk1::shared_ptr<geode::SettingV3>)>::destroy_deallocate()
PUBLIC 4369c 0 std::__ndk1::__function::__func<geodeExecFunction44<(anonymous namespace)::ExecFuncUnique44>(geode::ModStateEvent*)::{lambda(std::__ndk1::shared_ptr<geode::SettingV3>)#1}, std::__ndk1::allocator<geodeExecFunction44<(anonymous namespace)::ExecFuncUnique44>(geode::ModStateEvent*)::{lambda(std::__ndk1::shared_ptr<geode::SettingV3>)#1}>, void (std::__ndk1::shared_ptr<geode::SettingV3>)>::operator()(std::__ndk1::shared_ptr<geode::SettingV3>&&)
PUBLIC 43714 0 std::__ndk1::__function::__func<geodeExecFunction44<(anonymous namespace)::ExecFuncUnique44>(geode::ModStateEvent*)::{lambda(std::__ndk1::shared_ptr<geode::SettingV3>)#1}, std::__ndk1::allocator<geodeExecFunction44<(anonymous namespace)::ExecFuncUnique44>(geode::ModStateEvent*)::{lambda(std::__ndk1::shared_ptr<geode::SettingV3>)#1}>, void (std::__ndk1::shared_ptr<geode::SettingV3>)>::target(std::type_info const&) const
PUBLIC 43730 0 std::__ndk1::__function::__func<geodeExecFunction44<(anonymous namespace)::ExecFuncUnique44>(geode::ModStateEvent*)::{lambda(std::__ndk1::shared_ptr<geode::SettingV3>)#1}, std::__ndk1::allocator<geodeExecFunction44<(anonymous namespace)::ExecFuncUnique44>(geode::ModStateEvent*)::{lambda(std::__ndk1::shared_ptr<geode::SettingV3>)#1}>, void (std::__ndk1::shared_ptr<geode::SettingV3>)>::target_type() const
PUBLIC 4373c 0 geode::EventListener<geode::ModStateFilter>::getPool() const
PUBLIC 43740 0 geode::EventListener<geode::ModStateFilter>::handle(geode::Event*)
PUBLIC 438b4 0 geode::EventListener<geode::ModStateFilter>::~EventListener()
PUBLIC 43910 0 geode::EventListener<geode::ModStateFilter>::~EventListener()
PUBLIC 43974 0 std::__ndk1::__function::__base<void (geode::ModStateEvent*)>::~__base()
PUBLIC 43978 0 std::__ndk1::__function::__func<void (*)(geode::ModStateEvent*), std::__ndk1::allocator<void (*)(geode::ModStateEvent*)>, void (geode::ModStateEvent*)>::~__func()
PUBLIC 4397c 0 std::__ndk1::__function::__func<void (*)(geode::ModStateEvent*), std::__ndk1::allocator<void (*)(geode::ModStateEvent*)>, void (geode::ModStateEvent*)>::__clone() const
PUBLIC 439b0 0 std::__ndk1::__function::__func<void (*)(geode::ModStateEvent*), std::__ndk1::allocator<void (*)(geode::ModStateEvent*)>, void (geode::ModStateEvent*)>::__clone(std::__ndk1::__function::__base<void (geode::ModStateEvent*)>*) const
PUBLIC 439c4 0 std::__ndk1::__function::__func<void (*)(geode::ModStateEvent*), std::__ndk1::allocator<void (*)(geode::ModStateEvent*)>, void (geode::ModStateEvent*)>::destroy()
PUBLIC 439c8 0 std::__ndk1::__function::__func<void (*)(geode::ModStateEvent*), std::__ndk1::allocator<void (*)(geode::ModStateEvent*)>, void (geode::ModStateEvent*)>::destroy_deallocate()
PUBLIC 439cc 0 std::__ndk1::__function::__func<void (*)(geode::ModStateEvent*), std::__ndk1::allocator<void (*)(geode::ModStateEvent*)>, void (geode::ModStateEvent*)>::operator()(geode::ModStateEvent*&&)
PUBLIC 439dc 0 std::__ndk1::__function::__func<void (*)(geode::ModStateEvent*), std::__ndk1::allocator<void (*)(geode::ModStateEvent*)>, void (geode::ModStateEvent*)>::target(std::type_info const&) const
PUBLIC 439f8 0 std::__ndk1::__function::__func<void (*)(geode::ModStateEvent*), std::__ndk1::allocator<void (*)(geode::ModStateEvent*)>, void (geode::ModStateEvent*)>::target_type() const
PUBLIC 43a04 0 _GLOBAL__sub_I_MenuLayer.cpp
PUBLIC 43c1c 0 __cxx_global_var_init
PUBLIC 4409c 0 geode::modifier::ModifyBase<geode::modifier::ModifyDerive<MyCCKeyboardDispatcher, cocos2d::CCKeyboardDispatcher> >::~ModifyBase()
PUBLIC 440b8 0 geode::modifier::ModifyDerive<MyCCKeyboardDispatcher, cocos2d::CCKeyboardDispatcher>::apply()
PUBLIC 444a4 0 geode::modifier::ModifyBase<geode::modifier::ModifyDerive<MyCCKeyboardDispatcher, cocos2d::CCKeyboardDispatcher> >::apply()
PUBLIC 444a8 0 geode::modifier::AsStaticFunction_dispatchKeyboardMSG<MyCCKeyboardDispatcher, bool (MyCCKeyboardDispatcher::*)(cocos2d::enumKeyCodes, bool, bool)>::Impl<bool (MyCCKeyboardDispatcher::*)(cocos2d::enumKeyCodes, bool, bool)>::function(MyCCKeyboardDispatcher*, cocos2d::enumKeyCodes, bool, bool)
PUBLIC m 4455c 0 geodeImplicitEntry
PUBLIC 44598 0 std::__ndk1::unordered_map<void*, bool, std::__ndk1::hash<void*>, std::__ndk1::equal_to<void*>, std::__ndk1::allocator<std::__ndk1::pair<void* const, bool> > >::~unordered_map[abi:ne180000]()
PUBLIC 445e4 0 wrapFunction(unsigned long, tulip::hook::WrapperMetadata const&)
PUBLIC 44718 0 geode::impl::ResultData<void*, std::__ndk1::basic_string<char, std::__ndk1::char_traits<char>, std::__ndk1::allocator<char> > >::unwrapErr() &
PUBLIC 44790 0 geode::impl::ResultData<void*, std::__ndk1::basic_string<char, std::__ndk1::char_traits<char>, std::__ndk1::allocator<char> > >::~ResultData()
PUBLIC 44804 0 tulip::hook::WrapperMetadata::~WrapperMetadata()
PUBLIC 44868 0 cocos2d::CCObject::~CCObject()
PUBLIC 4488c 0 cocos2d::CCNode::~CCNode()
PUBLIC 448b0 0 {virtual override thunk({offset(-320)}, cocos2d::CCLayer::~CCLayer())}
PUBLIC 448b8 0 cocos2d::CCLayer::~CCLayer()
PUBLIC 448dc 0 {virtual override thunk({offset(-320)}, cocos2d::CCLayer::~CCLayer())}
PUBLIC 44904 0 FMODAudioEngine::preloadEffect(gd::string)
PUBLIC 44a84 0 tulip::hook::AbstractFunction::from<FMODSound&, FMODAudioEngine*, gd::string>(FMODSound& (*)(FMODAudioEngine*, gd::string))
PUBLIC 44b30 0 FMODAudioEngine::preloadMusic(gd::string, bool, int)
PUBLIC 44cc8 0 tulip::hook::AbstractFunction::from<FMOD::Sound*, FMODAudioEngine*, gd::string, bool, int>(FMOD::Sound* (*)(FMODAudioEngine*, gd::string, bool, int))
PUBLIC 44f88 0 GJBaseGameLayer::~GJBaseGameLayer()
PUBLIC 4579c 0 GJBaseGameLayer::GJBaseGameLayer(geode::CutoffConstructorType, unsigned long)
PUBLIC 45f4c 0 {virtual override thunk({offset(-320)}, GJBaseGameLayer::~GJBaseGameLayer())}
PUBLIC 45f54 0 GJBaseGameLayer::~GJBaseGameLayer()
PUBLIC 45f78 0 {virtual override thunk({offset(-320)}, GJBaseGameLayer::~GJBaseGameLayer())}
PUBLIC 45fa0 0 GJBaseGameLayer::toggleGroupTriggered(int, bool, gd::vector<int> const&, int, int)
PUBLIC 4610c 0 tulip::hook::AbstractFunction::from<void, GJBaseGameLayer*, int, bool, gd::vector<int> const&, int, int>(void (*)(GJBaseGameLayer*, int, bool, gd::vector<int> const&, int, int))
PUBLIC 465b8 0 {virtual override thunk({offset(-408)}, GJBaseGameLayer::toggleGroupTriggered(int, bool, gd::vector<int> const&, int, int))}
PUBLIC 465c0 0 GJBaseGameLayer::spawnGroup(int, bool, double, gd::vector<int> const&, int, int)
PUBLIC 4673c 0 tulip::hook::AbstractFunction::from<void, GJBaseGameLayer*, int, bool, double, gd::vector<int> const&, int, int>(void (*)(GJBaseGameLayer*, int, bool, double, gd::vector<int> const&, int, int))
PUBLIC 46ce8 0 {virtual override thunk({offset(-408)}, GJBaseGameLayer::spawnGroup(int, bool, double, gd::vector<int> const&, int, int))}
PUBLIC 46cf0 0 GJBaseGameLayer::spawnObject(GameObject*, double, gd::vector<int> const&)
PUBLIC 46e4c 0 tulip::hook::AbstractFunction::from<void, GJBaseGameLayer*, GameObject*, double, gd::vector<int> const&>(void (*)(GJBaseGameLayer*, GameObject*, double, gd::vector<int> const&))
PUBLIC 47120 0 {virtual override thunk({offset(-408)}, GJBaseGameLayer::spawnObject(GameObject*, double, gd::vector<int> const&))}
PUBLIC 47128 0 GJBaseGameLayer::activatePlatformerEndTrigger(EndTriggerGameObject*, gd::vector<int> const&)
PUBLIC 47274 0 tulip::hook::AbstractFunction::from<void, GJBaseGameLayer*, EndTriggerGameObject*, gd::vector<int> const&>(void (*)(GJBaseGameLayer*, EndTriggerGameObject*, gd::vector<int> const&))
PUBLIC 4737c 0 GJBaseGameLayer::toggleGlitter(bool)
PUBLIC 47380 0 GJBaseGameLayer::timeForPos(cocos2d::CCPoint, int, int, bool, int)
PUBLIC 47388 0 GJBaseGameLayer::posForTime(float)
PUBLIC 47390 0 GJBaseGameLayer::resetSPTriggered()
PUBLIC 47394 0 GJBaseGameLayer::createCustomParticle(gd::string const&, cocos2d::ParticleStruct const&, int, bool)
PUBLIC 474f8 0 tulip::hook::AbstractFunction::from<TodoReturnPlaceholder, GJBaseGameLayer*, gd::string const&, cocos2d::ParticleStruct const&, int, bool>(TodoReturnPlaceholder (*)(GJBaseGameLayer*, gd::string const&, cocos2d::ParticleStruct const&, int, bool))
PUBLIC 478cc 0 GJBaseGameLayer::claimCustomParticle(gd::string const&, cocos2d::ParticleStruct const&, int, int, int, bool)
PUBLIC 47a48 0 tulip::hook::AbstractFunction::from<TodoReturnPlaceholder, GJBaseGameLayer*, gd::string const&, cocos2d::ParticleStruct const&, int, int, int, bool>(TodoReturnPlaceholder (*)(GJBaseGameLayer*, gd::string const&, cocos2d::ParticleStruct const&, int, int, int, bool))
PUBLIC 4801c 0 GJBaseGameLayer::unclaimCustomParticle(gd::string const&, cocos2d::CCParticleSystemQuad*)
PUBLIC 48168 0 tulip::hook::AbstractFunction::from<TodoReturnPlaceholder, GJBaseGameLayer*, gd::string const&, cocos2d::CCParticleSystemQuad*>(TodoReturnPlaceholder (*)(GJBaseGameLayer*, gd::string const&, cocos2d::CCParticleSystemQuad*))
PUBLIC 48270 0 PlayLayer::~PlayLayer()
PUBLIC 485c4 0 {virtual override thunk({offset(-320)}, PlayLayer::~PlayLayer())}
PUBLIC 485cc 0 PlayLayer::~PlayLayer()
PUBLIC 485f0 0 {virtual override thunk({offset(-320)}, PlayLayer::~PlayLayer())}
PUBLIC 48618 0 PlayLayer::activatePlatformerEndTrigger(EndTriggerGameObject*, gd::vector<int> const&)
PUBLIC 48764 0 tulip::hook::AbstractFunction::from<void, PlayLayer*, EndTriggerGameObject*, gd::vector<int> const&>(void (*)(PlayLayer*, EndTriggerGameObject*, gd::vector<int> const&))
PUBLIC 4886c 0 cocos2d::CCCopying::copyWithZone(cocos2d::CCZone*)
PUBLIC 48874 0 cocos2d::CCObject::update(float)
PUBLIC 48878 0 cocos2d::CCKeyboardDelegate::keyUp(cocos2d::enumKeyCodes)
PUBLIC 4887c 0 cocos2d::CCMouseDelegate::rightKeyDown()
PUBLIC 48880 0 cocos2d::CCMouseDelegate::rightKeyUp()
PUBLIC 48884 0 cocos2d::CCMouseDelegate::scrollWheel(float, float)
PUBLIC 48888 0 cocos2d::CCNode::~CCNode()
PUBLIC 48b00 0 cocos2d::CCLayer::~CCLayer()
PUBLIC 48dc8 0 cocos2d::CCObject::~CCObject()
PUBLIC 49294 0 _ZN5geode15UnwrapExceptionC2IRPvQsr4implE18IsStringStreamableIT_EEENS_4impl5OkTagEOS4_
PUBLIC 493e8 0 _ZN5geode15UnwrapExceptionC2IRNSt6__ndk112basic_stringIcNS2_11char_traitsIcEENS2_9allocatorIcEEEEQsr4implE18IsStringStreamableIT_EEENS_4impl6ErrTagEOSA_
PUBLIC 49550 0 std::__ndk1::__variant_detail::__visitation::__base::__dispatcher<(unsigned long)0>::__dispatch[abi:ne180000]<std::__ndk1::__variant_detail::__dtor<std::__ndk1::__variant_detail::__traits<void*, std::__ndk1::basic_string<char, std::__ndk1::char_traits<char>, std::__ndk1::allocator<char> > >, (std::__ndk1::__variant_detail::_Trait)1>::__destroy[abi:ne180000]()::{lambda(auto:1&)#1}, std::__ndk1::__variant_detail::__base<(std::__ndk1::__variant_detail::__traits<void*, std::__ndk1::basic_string<char, std::__ndk1::char_traits<char>, std::__ndk1::allocator<char> > >)1, std::__ndk1::__variant_detail::__traits, std::__ndk1::allocator<char> >&>(std::__ndk1::__variant_detail::__dtor<std::__ndk1::__variant_detail::__traits<void*, std::__ndk1::basic_string<char, std::__ndk1::char_traits<char>, std::__ndk1::allocator<char> > >, (std::__ndk1::__variant_detail::_Trait)1>, std::__ndk1::__variant_detail::__base<(std::__ndk1::__variant_detail::__traits<void*, std::__ndk1::basic_string<char, std::__ndk1::char_traits<char>, std::__ndk1::allocator<char> > >)1, std::__ndk1::__variant_detail::__traits, std::__ndk1::allocator<char> >&)
PUBLIC 49554 0 std::__ndk1::__variant_detail::__visitation::__base::__dispatcher<(unsigned long)1>::__dispatch[abi:ne180000]<std::__ndk1::__variant_detail::__dtor<std::__ndk1::__variant_detail::__traits<void*, std::__ndk1::basic_string<char, std::__ndk1::char_traits<char>, std::__ndk1::allocator<char> > >, (std::__ndk1::__variant_detail::_Trait)1>::__destroy[abi:ne180000]()::{lambda(auto:1&)#1}, std::__ndk1::__variant_detail::__base<(std::__ndk1::__variant_detail::__traits<void*, std::__ndk1::basic_string<char, std::__ndk1::char_traits<char>, std::__ndk1::allocator<char> > >)1, std::__ndk1::__variant_detail::__traits, std::__ndk1::allocator<char> >&>(std::__ndk1::__variant_detail::__dtor<std::__ndk1::__variant_detail::__traits<void*, std::__ndk1::basic_string<char, std::__ndk1::char_traits<char>, std::__ndk1::allocator<char> > >, (std::__ndk1::__variant_detail::_Trait)1>, std::__ndk1::__variant_detail::__base<(std::__ndk1::__variant_detail::__traits<void*, std::__ndk1::basic_string<char, std::__ndk1::char_traits<char>, std::__ndk1::allocator<char> > >)1, std::__ndk1::__variant_detail::__traits, std::__ndk1::allocator<char> >&)
PUBLIC 49568 0 std::__ndk1::__hash_table<std::__ndk1::__hash_value_type<void*, bool>, std::__ndk1::__unordered_map_hasher<void*, std::__ndk1::__hash_value_type<void*, bool>, std::__ndk1::hash<void*>, std::__ndk1::equal_to<void*>, true>, std::__ndk1::__unordered_map_equal<void*, std::__ndk1::__hash_value_type<void*, bool>, std::__ndk1::equal_to<void*>, std::__ndk1::hash<void*>, true>, std::__ndk1::allocator<std::__ndk1::__hash_value_type<void*, bool> > >::__emplace_unique_key_args<void*, std::__ndk1::piecewise_construct_t const&, std::__ndk1::tuple<void* const&>, std::__ndk1::tuple<> >(void* const&, std::__ndk1::piecewise_construct_t const&, std::__ndk1::tuple<void* const&>, std::__ndk1::tuple<>)
PUBLIC 49a48 0 __udivti3
PUBLIC 49a54 0 __udivmodti4
PUBLIC m 49ca0 0 __eqtf2
PUBLIC 49d40 0 __unordtf2
PUBLIC 49d78 0 fmt::v11::detail::write_loc(fmt::v11::basic_appender<char>, fmt::v11::loc_value, fmt::v11::format_specs const&, fmt::v11::detail::locale_ref)
PUBLIC 4a00c 0 fmt::v11::format_facet<std::__ndk1::locale>::~format_facet()
PUBLIC 4a088 0 fmt::v11::report_error(char const*)
PUBLIC 4a0d8 0 fmt::v11::format_error::runtime_error(char const*)
PUBLIC 4a104 0 fmt::v11::format_facet<std::__ndk1::locale>::do_put(fmt::v11::basic_appender<char>, fmt::v11::loc_value, fmt::v11::format_specs const&) const
PUBLIC 4a8c4 0 fmt::v11::detail::loc_writer<char>::~loc_writer()
PUBLIC 4a928 0 fmt::v11::vformat(fmt::v11::basic_string_view<char>, fmt::v11::basic_format_args<fmt::v11::context>)
PUBLIC 4aa64 0 fmt::v11::detail::vformat_to<char>(fmt::v11::detail::buffer<char>&, fmt::v11::basic_string_view<char>, fmt::v11::detail::vformat_args<char>::type, fmt::v11::detail::locale_ref)
PUBLIC 4afd4 0 fmt::v11::detail::is_printable(unsigned int)
PUBLIC 4b1fc 0 fmt::v11::detail::dragonbox::to_decimal<float>(float)
PUBLIC 4b4d8 0 fmt::v11::detail::dragonbox::to_decimal<double>(double)
PUBLIC 4ba14 0 fmt::v11::basic_memory_buffer<char, (unsigned long)500, std::__ndk1::allocator<char> >::grow(fmt::v11::detail::buffer<char>&, unsigned long)
PUBLIC 4ba8c 0 fmt::v11::format_facet<std::__ndk1::locale>::~format_facet()
PUBLIC 4bb18 0 fmt::v11::format_error::~format_error()
PUBLIC 4bb3c 0 fmt::v11::detail::copy_noinline<char, char const*, fmt::v11::basic_appender<char> >(char const*, char const*, fmt::v11::basic_appender<char>)
PUBLIC 4bc8c 0 fmt::v11::detail::default_arg_formatter<char>::operator()<bool>(bool)
PUBLIC 4bcf4 0 fmt::v11::detail::default_arg_formatter<char>::operator()<char>(char)
PUBLIC 4bd84 0 fmt::v11::detail::default_arg_formatter<char>::operator()<float>(float)
PUBLIC 4be70 0 fmt::v11::detail::default_arg_formatter<char>::operator()<double>(double)
PUBLIC 4bf5c 0 fmt::v11::detail::default_arg_formatter<char>::operator()<char const*>(char const*)
PUBLIC 4bfa4 0 fmt::v11::detail::default_arg_formatter<char>::operator()<void const*>(void const*)
PUBLIC 4c03c 0 _ZN3fmt3v116detail5writeIcNS0_14basic_appenderIcEEiTnNSt6__ndk19enable_ifIXaaaasr11is_integralIT1_EE5valuentsr3std7is_sameIS7_bEE5valuentsr3std7is_sameIS7_T_EE5valueEiE4typeELi0EEET0_SB_S7_
PUBLIC 4c29c 0 fmt::v11::detail::copy_noinline<char, char*, fmt::v11::basic_appender<char> >(char*, char*, fmt::v11::basic_appender<char>)
PUBLIC 4c3ec 0 _ZN3fmt3v116detail5writeIcNS0_14basic_appenderIcEEjTnNSt6__ndk19enable_ifIXaaaasr11is_integralIT1_EE5valuentsr3std7is_sameIS7_bEE5valuentsr3std7is_sameIS7_T_EE5valueEiE4typeELi0EEET0_SB_S7_
PUBLIC 4c5cc 0 _ZN3fmt3v116detail5writeIcNS0_14basic_appenderIcEExTnNSt6__ndk19enable_ifIXaaaasr11is_integralIT1_EE5valuentsr3std7is_sameIS7_bEE5valuentsr3std7is_sameIS7_T_EE5valueEiE4typeELi0EEET0_SB_S7_
PUBLIC 4c850 0 _ZN3fmt3v116detail5writeIcNS0_14basic_appenderIcEEyTnNSt6__ndk19enable_ifIXaaaasr11is_integralIT1_EE5valuentsr3std7is_sameIS7_bEE5valuentsr3std7is_sameIS7_T_EE5valueEiE4typeELi0EEET0_SB_S7_
PUBLIC 4ca58 0 _ZN3fmt3v116detail5writeIcNS0_14basic_appenderIcEEnTnNSt6__ndk19enable_ifIXaaaasr11is_integralIT1_EE5valuentsr3std7is_sameIS7_bEE5valuentsr3std7is_sameIS7_T_EE5valueEiE4typeELi0EEET0_SB_S7_
PUBLIC 4cdb8 0 _ZN3fmt3v116detail5writeIcNS0_14basic_appenderIcEEoTnNSt6__ndk19enable_ifIXaaaasr11is_integralIT1_EE5valuentsr3std7is_sameIS7_bEE5valuentsr3std7is_sameIS7_T_EE5valueEiE4typeELi0EEET0_SB_S7_
PUBLIC 4d0cc 0 _ZN3fmt3v116detail5writeIcNS0_14basic_appenderIcEEbTnNSt6__ndk19enable_ifIXsr3std7is_sameIT1_bEE5valueEiE4typeELi0EEET0_SA_S7_RKNS0_12format_specsENS1_10locale_refE
PUBLIC 4d35c 0 fmt::v11::detail::write_int_noinline<char, fmt::v11::basic_appender<char>, unsigned int>(fmt::v11::basic_appender<char>, fmt::v11::detail::write_int_arg<unsigned int>, fmt::v11::format_specs const&, fmt::v11::detail::locale_ref)
PUBLIC 4e138 0 fmt::v11::detail::fill<char, fmt::v11::basic_appender<char> >(fmt::v11::basic_appender<char>, unsigned long, fmt::v11::detail::fill_t const&)
PUBLIC 4e308 0 fmt::v11::detail::write_padded<char, (fmt::v11::align::type)1, fmt::v11::basic_appender<char>, fmt::v11::detail::write_char<char, fmt::v11::basic_appender<char> >(fmt::v11::basic_appender<char>, char, fmt::v11::format_specs const&)::{lambda(fmt::v11::basic_appender<char>&)#1}>(fmt::v11::basic_appender<char>, fmt::v11::format_specs const&, unsigned long, unsigned long, fmt::v11::detail::write_char<char, fmt::v11::basic_appender<char> >(fmt::v11::basic_appender<char>, char, fmt::v11::format_specs const&)::{lambda(fmt::v11::basic_appender<char>&)#1})
PUBLIC 4e544 0 fmt::v11::detail::write_escaped_cp<fmt::v11::basic_appender<char>, char>(fmt::v11::basic_appender<char>, fmt::v11::detail::find_escape_result<char> const&)
PUBLIC 4e850 0 fmt::v11::detail::write_codepoint<(unsigned long)2, char, fmt::v11::basic_appender<char> >(fmt::v11::basic_appender<char>, char, unsigned int)
PUBLIC 4e9c8 0 fmt::v11::detail::write_codepoint<(unsigned long)8, char, fmt::v11::basic_appender<char> >(fmt::v11::basic_appender<char>, char, unsigned int)
PUBLIC 4eb40 0 fmt::v11::detail::write_padded<char, (fmt::v11::align::type)1, fmt::v11::basic_appender<char>, fmt::v11::detail::write_nonfinite<char, fmt::v11::basic_appender<char> >(fmt::v11::basic_appender<char>, bool, fmt::v11::format_specs, fmt::v11::sign::type)::{lambda(fmt::v11::basic_appender<char>&)#1}>(fmt::v11::basic_appender<char>, fmt::v11::format_specs const&, unsigned long, unsigned long, fmt::v11::detail::write_nonfinite<char, fmt::v11::basic_appender<char> >(fmt::v11::basic_appender<char>, bool, fmt::v11::format_specs, fmt::v11::sign::type)::{lambda(fmt::v11::basic_appender<char>&)#1})
PUBLIC 4ed80 0 fmt::v11::detail::do_write_float<char, fmt::v11::basic_appender<char>, fmt::v11::detail::dragonbox::decimal_fp<float>, fmt::v11::detail::digit_grouping<char> >(fmt::v11::basic_appender<char>, fmt::v11::detail::dragonbox::decimal_fp<float> const&, fmt::v11::format_specs const&, fmt::v11::detail::float_specs, fmt::v11::detail::locale_ref)
PUBLIC 4f9f4 0 fmt::v11::detail::do_write_float<char, fmt::v11::basic_appender<char>, fmt::v11::detail::dragonbox::decimal_fp<float>, fmt::v11::detail::digit_grouping<char> >(fmt::v11::basic_appender<char>, fmt::v11::detail::dragonbox::decimal_fp<float> const&, fmt::v11::format_specs const&, fmt::v11::detail::float_specs, fmt::v11::detail::locale_ref)::{lambda(fmt::v11::basic_appender<char>(fmt::v11::basic_appender<char>))#1}::operator() const
PUBLIC 4fb48 0 fmt::v11::detail::digit_grouping<char>::digit_grouping(fmt::v11::detail::locale_ref, bool)
PUBLIC 4fdb4 0 fmt::v11::detail::digit_grouping<char>::~digit_grouping()
PUBLIC 4fdf8 0 fmt::v11::detail::write_exponent<char, fmt::v11::basic_appender<char> >(int, fmt::v11::basic_appender<char>)
PUBLIC 4ffc8 0 _ZN3fmt3v116detail17write_significandIcjTnNSt6__ndk19enable_ifIXsr3std11is_integralIT0_EE5valueEiE4typeELi0EEEPT_S9_S5_iiS8_
PUBLIC 50144 0 fmt::v11::detail::digit_grouping<char>::apply<fmt::v11::basic_appender<char>, char>(fmt::v11::basic_appender<char>, fmt::v11::basic_string_view<char>) const
PUBLIC 504fc 0 fmt::v11::basic_memory_buffer<int, (unsigned long)500, std::__ndk1::allocator<int> >::grow(fmt::v11::detail::buffer<int>&, unsigned long)
PUBLIC 5059c 0 fmt::v11::detail::do_write_float<char, fmt::v11::basic_appender<char>, fmt::v11::detail::dragonbox::decimal_fp<double>, fmt::v11::detail::digit_grouping<char> >(fmt::v11::basic_appender<char>, fmt::v11::detail::dragonbox::decimal_fp<double> const&, fmt::v11::format_specs const&, fmt::v11::detail::float_specs, fmt::v11::detail::locale_ref)
PUBLIC 51250 0 fmt::v11::detail::do_write_float<char, fmt::v11::basic_appender<char>, fmt::v11::detail::dragonbox::decimal_fp<double>, fmt::v11::detail::digit_grouping<char> >(fmt::v11::basic_appender<char>, fmt::v11::detail::dragonbox::decimal_fp<double> const&, fmt::v11::format_specs const&, fmt::v11::detail::float_specs, fmt::v11::detail::locale_ref)::{lambda(fmt::v11::basic_appender<char>(fmt::v11::basic_appender<char>))#1}::operator() const
PUBLIC 513a8 0 _ZN3fmt3v116detail17write_significandIcmTnNSt6__ndk19enable_ifIXsr3std11is_integralIT0_EE5valueEiE4typeELi0EEEPT_S9_S5_iiS8_
PUBLIC 51538 0 fmt::v11::detail::write_float<char, fmt::v11::basic_appender<char>, long double>(fmt::v11::basic_appender<char>, long double, fmt::v11::format_specs, fmt::v11::detail::locale_ref)
PUBLIC 52034 0 fmt::v11::detail::write_padded<char, (fmt::v11::align::type)2, fmt::v11::basic_appender<char>, fmt::v11::detail::write_bytes<char, (fmt::v11::align::type)2, fmt::v11::basic_appender<char> >(fmt::v11::basic_appender<char>, fmt::v11::basic_string_view<char>, fmt::v11::format_specs const&)::{lambda(fmt::v11::basic_appender<char>&)#1}>(fmt::v11::basic_appender<char>, fmt::v11::format_specs const&, unsigned long, unsigned long, fmt::v11::detail::write_bytes<char, (fmt::v11::align::type)2, fmt::v11::basic_appender<char> >(fmt::v11::basic_appender<char>, fmt::v11::basic_string_view<char>, fmt::v11::format_specs const&)::{lambda(fmt::v11::basic_appender<char>&)#1})
PUBLIC 52210 0 fmt::v11::detail::format_dragon(fmt::v11::detail::basic_fp<unsigned __int128>, unsigned int, int, fmt::v11::detail::buffer<char>&, int&)
PUBLIC 53640 0 fmt::v11::detail::bigint::operator<<=(int)
PUBLIC 53764 0 fmt::v11::detail::bigint::assign_pow10(int)
PUBLIC 53ec0 0 fmt::v11::detail::bigint::divmod_assign(fmt::v11::detail::bigint const&)
PUBLIC 541e0 0 fmt::v11::basic_memory_buffer<unsigned int, (unsigned long)32, std::__ndk1::allocator<unsigned int> >::grow(fmt::v11::detail::buffer<unsigned int>&, unsigned long)
PUBLIC 54280 0 fmt::v11::detail::do_write_float<char, fmt::v11::basic_appender<char>, fmt::v11::detail::big_decimal_fp, fmt::v11::detail::digit_grouping<char> >(fmt::v11::basic_appender<char>, fmt::v11::detail::big_decimal_fp const&, fmt::v11::format_specs const&, fmt::v11::detail::float_specs, fmt::v11::detail::locale_ref)
PUBLIC 55130 0 fmt::v11::detail::do_write_float<char, fmt::v11::basic_appender<char>, fmt::v11::detail::big_decimal_fp, fmt::v11::detail::digit_grouping<char> >(fmt::v11::basic_appender<char>, fmt::v11::detail::big_decimal_fp const&, fmt::v11::format_specs const&, fmt::v11::detail::float_specs, fmt::v11::detail::locale_ref)::{lambda(fmt::v11::basic_appender<char>(fmt::v11::basic_appender<char>))#1}::operator() const
PUBLIC 55290 0 fmt::v11::detail::write_padded<char, (fmt::v11::align::type)2, fmt::v11::basic_appender<char>, fmt::v11::detail::write_ptr<char, fmt::v11::basic_appender<char>, unsigned long>(fmt::v11::basic_appender<char>, unsigned long, fmt::v11::format_specs const*)::{lambda(fmt::v11::basic_appender<char>&)#1}>(fmt::v11::basic_appender<char>, fmt::v11::format_specs const&, unsigned long, unsigned long, fmt::v11::detail::write_ptr<char, fmt::v11::basic_appender<char>, unsigned long>(fmt::v11::basic_appender<char>, unsigned long, fmt::v11::format_specs const*)::{lambda(fmt::v11::basic_appender<char>&)#1})
PUBLIC 554a4 0 fmt::v11::detail::parse_replacement_field<char, fmt::v11::detail::vformat_to<char>(fmt::v11::detail::buffer<char>&, fmt::v11::basic_string_view<char>, fmt::v11::detail::vformat_args<char>::type, fmt::v11::detail::locale_ref)::format_handler&>(char const*, char const*, fmt::v11::detail::vformat_to<char>(fmt::v11::detail::buffer<char>&, fmt::v11::basic_string_view<char>, fmt::v11::detail::vformat_args<char>::type, fmt::v11::detail::locale_ref)::format_handler&)
PUBLIC 57140 0 fmt::v11::detail::parse_dynamic_spec<char>(char const*, char const*, int&, fmt::v11::detail::arg_ref<char>&, fmt::v11::basic_format_parse_context<char>&)
PUBLIC 573d0 0 fmt::v11::basic_format_args<fmt::v11::context>::get<char>(fmt::v11::basic_string_view<char>) const
PUBLIC 57528 0 fmt::v11::detail::write_int_noinline<char, fmt::v11::basic_appender<char>, unsigned long>(fmt::v11::basic_appender<char>, fmt::v11::detail::write_int_arg<unsigned long>, fmt::v11::format_specs const&, fmt::v11::detail::locale_ref)
PUBLIC 5837c 0 fmt::v11::detail::write_int_noinline<char, fmt::v11::basic_appender<char>, unsigned __int128>(fmt::v11::basic_appender<char>, fmt::v11::detail::write_int_arg<unsigned __int128>, fmt::v11::format_specs const&, fmt::v11::detail::locale_ref)
PUBLIC 593e4 0 _ZN3fmt3v116detail15format_hexfloatIdTnNSt6__ndk19enable_ifIXntsr16is_double_doubleIT_EE5valueEiE4typeELi0EEEvS5_NS0_12format_specsERNS1_6bufferIcEE
PUBLIC 59904 0 fmt::v11::detail::format_float<double>(double, int, fmt::v11::detail::float_specs, fmt::v11::detail::buffer<char>&)
PUBLIC 5a2a4 0 fmt::v11::detail::write<char, fmt::v11::basic_appender<char> >(fmt::v11::basic_appender<char>, fmt::v11::basic_string_view<char>, fmt::v11::format_specs const&)
PUBLIC 5b610 0 fmt::v11::detail::for_each_codepoint<fmt::v11::detail::compute_width(fmt::v11::basic_string_view<char>)::count_code_points>(fmt::v11::basic_string_view<char>, fmt::v11::detail::compute_width(fmt::v11::basic_string_view<char>)::count_code_points)::{lambda(char const*, char const*)#1}::operator()(char const*, char const*) const
PUBLIC 5b7c8 0 fmt::v11::detail::write_int<fmt::v11::basic_appender<char>, unsigned long, char>(fmt::v11::basic_appender<char>, unsigned long, unsigned int, fmt::v11::format_specs const&, fmt::v11::detail::digit_grouping<char> const&)
PUBLIC 5bd44 0 fmt::v11::detail::write_int<fmt::v11::basic_appender<char>, unsigned __int128, char>(fmt::v11::basic_appender<char>, unsigned __int128, unsigned int, fmt::v11::format_specs const&, fmt::v11::detail::digit_grouping<char> const&)
PUBLIC 5c3c0 0 __CortexA53843419_3D004
PUBLIC 5c3d0 0 <.plt ELF section in raydeeux.infolabeltweaks.android64.so>
STACK CFI INIT 1df10 10 .cfa: sp 0 +
STACK CFI INIT 1df20 8 .cfa: sp 0 +
STACK CFI INIT 1df28 8 .cfa: sp 0 +
STACK CFI INIT 1df30 14 .cfa: sp 0 +
STACK CFI INIT 1df44 1c .cfa: sp 0 +
STACK CFI INIT 1df60 10 .cfa: sp 0 +
STACK CFI INIT 1df70 30 .cfa: sp 0 +
STACK CFI INIT 1dfa0 98 .cfa: sp 0 +
STACK CFI INIT 1e038 59c .cfa: sp 0 +
STACK CFI INIT 1e5d4 8c .cfa: sp 0 +
STACK CFI INIT 1e660 30 .cfa: sp 0 +
STACK CFI INIT 1ea74 80 .cfa: sp 0 +
STACK CFI 1ea78 .cfa: sp 48 +
STACK CFI 1ea84 .cfa: x29 48 + x19: .cfa -8 + ^ x20: .cfa -16 + ^ x21: .cfa -24 + ^ x22: .cfa -32 + ^ .ra: .cfa -40 + ^ x29: .cfa -48 + ^
STACK CFI 1ea9c .cfa: sp 48 +
STACK CFI 1eaa8 .cfa: sp 0 +
STACK CFI 1eaac .cfa: x29 48 +
STACK CFI 1eadc .cfa: sp 48 +
STACK CFI 1eae8 .cfa: sp 0 +
STACK CFI 1eaec .cfa: x29 48 +
STACK CFI INIT 1eaf4 14 .cfa: sp 0 +
STACK CFI 1eaf8 .cfa: sp 16 +
STACK CFI 1eafc .cfa: x29 16 + .ra: .cfa -8 + ^ x29: .cfa -16 + ^
STACK CFI INIT 1eb58 30 .cfa: sp 0 +
STACK CFI 1eb5c .cfa: sp 32 +
STACK CFI 1eb64 .cfa: x29 32 + x19: .cfa -16 + ^ .ra: .cfa -24 + ^ x29: .cfa -32 + ^
STACK CFI 1eb7c .cfa: sp 32 +
STACK CFI 1eb84 .cfa: sp 0 +
STACK CFI INIT 1eb88 10 .cfa: sp 0 +
STACK CFI 1eb8c .cfa: sp 16 +
STACK CFI 1eb90 .cfa: x29 16 + .ra: .cfa -8 + ^ x29: .cfa -16 + ^
STACK CFI INIT 1eccc 104 .cfa: sp 0 +
STACK CFI 1ecd0 .cfa: sp 64 +
STACK CFI 1ece0 .cfa: x29 64 + x19: .cfa -8 + ^ x20: .cfa -16 + ^ x21: .cfa -24 + ^ x22: .cfa -32 + ^ x23: .cfa -48 + ^ .ra: .cfa -56 + ^ x29: .cfa -64 + ^
STACK CFI 1ed3c .cfa: sp 64 +
STACK CFI 1ed4c .cfa: sp 0 +
STACK CFI 1ed50 .cfa: x29 64 +
STACK CFI 1ed6c .cfa: sp 64 +
STACK CFI 1ed7c .cfa: sp 0 +
STACK CFI 1ed80 .cfa: x29 64 +
STACK CFI 1edbc .cfa: sp 64 +
STACK CFI 1edcc .cfa: sp 0 +
STACK CFI INIT 1f1a0 50 .cfa: sp 0 +
STACK CFI 1f1a4 .cfa: sp 32 +
STACK CFI 1f1ac .cfa: x29 32 + x19: .cfa -16 + ^ .ra: .cfa -24 + ^ x29: .cfa -32 + ^
STACK CFI 1f1c4 .cfa: sp 32 +
STACK CFI 1f1cc .cfa: sp 0 +
STACK CFI 1f1d0 .cfa: x29 32 +
STACK CFI 1f1e4 .cfa: sp 32 +
STACK CFI 1f1ec .cfa: sp 0 +
STACK CFI INIT 1f2b4 60 .cfa: sp 0 +
STACK CFI 1f2b8 .cfa: sp 32 +
STACK CFI 1f2c0 .cfa: x29 32 + x19: .cfa -8 + ^ x20: .cfa -16 + ^ .ra: .cfa -24 + ^ x29: .cfa -32 + ^
STACK CFI 1f2e0 .cfa: sp 32 +
STACK CFI 1f2e8 .cfa: sp 0 +
STACK CFI 1f2ec .cfa: x29 32 +
STACK CFI 1f308 .cfa: sp 32 +
STACK CFI 1f310 .cfa: sp 0 +
STACK CFI INIT 1f794 1c .cfa: sp 0 +
STACK CFI INIT 1f7b0 50 .cfa: sp 0 +
STACK CFI 1f7b4 .cfa: sp 32 +
STACK CFI 1f7bc .cfa: x29 32 + x19: .cfa -16 + ^ .ra: .cfa -24 + ^ x29: .cfa -32 + ^
STACK CFI 1f7d4 .cfa: sp 32 +
STACK CFI 1f7dc .cfa: sp 0 +
STACK CFI 1f7e0 .cfa: x29 32 +
STACK CFI 1f7f4 .cfa: sp 32 +
STACK CFI 1f7fc .cfa: sp 0 +
STACK CFI INIT 1fca4 26c .cfa: sp 0 +
STACK CFI 1fca8 .cfa: sp 112 +
STACK CFI 1fcc4 .cfa: x29 96 + x19: .cfa -8 + ^ x20: .cfa -16 + ^ x21: .cfa -24 + ^ x22: .cfa -32 + ^ x23: .cfa -40 + ^ x24: .cfa -48 + ^ x25: .cfa -56 + ^ x26: .cfa -64 + ^ x27: .cfa -72 + ^ x28: .cfa -80 + ^ .ra: .cfa -88 + ^ x29: .cfa -96 + ^
STACK CFI 1fef0 .cfa: sp 112 +
STACK CFI 1ff0c .cfa: sp 0 +
STACK CFI INIT 1ff10 1a8 .cfa: sp 0 +
STACK CFI 1ff14 .cfa: sp 64 +
STACK CFI 1ff24 .cfa: x29 64 + x19: .cfa -8 + ^ x20: .cfa -16 + ^ x21: .cfa -24 + ^ x22: .cfa -32 + ^ x23: .cfa -48 + ^ .ra: .cfa -56 + ^ x29: .cfa -64 + ^
STACK CFI 1ffa8 .cfa: sp 64 +
STACK CFI 1ffb8 .cfa: sp 0 +
STACK CFI 1ffbc .cfa: x29 64 +
STACK CFI 1ffc4 .cfa: sp 64 +
STACK CFI 1ffd4 .cfa: sp 0 +
STACK CFI 1ffd8 .cfa: x29 64 +
STACK CFI 200a0 .cfa: sp 64 +
STACK CFI 200b0 .cfa: sp 0 +
STACK CFI 200b4 .cfa: x29 64 +
STACK CFI INIT 200b8 170 .cfa: sp 0 +
STACK CFI 200bc .cfa: sp 96 +
STACK CFI 200d4 .cfa: x29 96 + x19: .cfa -8 + ^ x20: .cfa -16 + ^ x21: .cfa -24 + ^ x22: .cfa -32 + ^ x23: .cfa -40 + ^ x24: .cfa -48 + ^ x25: .cfa -56 + ^ x26: .cfa -64 + ^ x27: .cfa -80 + ^ .ra: .cfa -88 + ^ x29: .cfa -96 + ^
STACK CFI 20208 .cfa: sp 96 +
STACK CFI 20220 .cfa: sp 0 +
STACK CFI 20224 .cfa: x29 96 +
STACK CFI INIT 20228 1bc .cfa: sp 0 +
STACK CFI 2022c .cfa: sp 96 +
STACK CFI 20244 .cfa: x29 96 + x19: .cfa -8 + ^ x20: .cfa -16 + ^ x21: .cfa -24 + ^ x22: .cfa -32 + ^ x23: .cfa -40 + ^ x24: .cfa -48 + ^ x25: .cfa -56 + ^ x26: .cfa -64 + ^ x27: .cfa -72 + ^ x28: .cfa -80 + ^ .ra: .cfa -88 + ^ x29: .cfa -96 + ^
STACK CFI 203c8 .cfa: sp 96 +
STACK CFI 203e0 .cfa: sp 0 +
STACK CFI INIT 203e4 1bc .cfa: sp 0 +
STACK CFI 203e8 .cfa: sp 96 +
STACK CFI 20400 .cfa: x29 96 + x19: .cfa -8 + ^ x20: .cfa -16 + ^ x21: .cfa -24 + ^ x22: .cfa -32 + ^ x23: .cfa -40 + ^ x24: .cfa -48 + ^ x25: .cfa -56 + ^ x26: .cfa -64 + ^ x27: .cfa -72 + ^ x28: .cfa -80 + ^ .ra: .cfa -88 + ^ x29: .cfa -96 + ^
STACK CFI 20584 .cfa: sp 96 +
STACK CFI 2059c .cfa: sp 0 +
STACK CFI INIT 205ec 4 .cfa: sp 0 +
STACK CFI INIT 205f0 c .cfa: sp 0 +
STACK CFI INIT 205fc 4 .cfa: sp 0 +
STACK CFI INIT 20600 4 .cfa: sp 0 +
STACK CFI INIT 20604 24 .cfa: sp 0 +
STACK CFI 20608 .cfa: sp 32 +
STACK CFI 20610 .cfa: x29 32 + x19: .cfa -16 + ^ .ra: .cfa -24 + ^ x29: .cfa -32 + ^
STACK CFI 2061c .cfa: sp 32 +
STACK CFI 20624 .cfa: sp 0 +
STACK CFI INIT 20628 18 .cfa: sp 0 +
STACK CFI INIT 20640 1c .cfa: sp 0 +
STACK CFI INIT 2065c 4 .cfa: sp 0 +
STACK CFI INIT 20660 48 .cfa: sp 0 +
STACK CFI 2067c .cfa: sp 32 +
STACK CFI 20684 .cfa: x29 32 + x19: .cfa -16 + ^ .ra: .cfa -24 + ^ x29: .cfa -32 + ^
STACK CFI 2069c .cfa: sp 32 +
STACK CFI 206a4 .cfa: sp 0 +
STACK CFI INIT 206a8 14 .cfa: sp 0 +
STACK CFI INIT 206bc 48 .cfa: sp 0 +
STACK CFI 206d8 .cfa: sp 32 +
STACK CFI 206e0 .cfa: x29 32 + x19: .cfa -16 + ^ .ra: .cfa -24 + ^ x29: .cfa -32 + ^
STACK CFI 206f8 .cfa: sp 32 +
STACK CFI 20700 .cfa: sp 0 +
STACK CFI INIT 20a68 260 .cfa: sp 0 +
STACK CFI 20a6c .cfa: sp 64 +
STACK CFI 20a7c .cfa: x29 64 + x19: .cfa -8 + ^ x20: .cfa -16 + ^ x21: .cfa -24 + ^ x22: .cfa -32 + ^ x23: .cfa -48 + ^ .ra: .cfa -56 + ^ x29: .cfa -64 + ^
STACK CFI 20af0 .cfa: sp 64 +
STACK CFI 20b00 .cfa: sp 0 +
STACK CFI 20b04 .cfa: x29 64 +
STACK CFI 20b0c .cfa: sp 64 +
STACK CFI 20b1c .cfa: sp 0 +
STACK CFI 20b20 .cfa: x29 64 +
STACK CFI 20bf8 .cfa: sp 64 +
STACK CFI 20c08 .cfa: sp 0 +
STACK CFI 20c0c .cfa: x29 64 +
STACK CFI 20c98 .cfa: sp 64 +
STACK CFI 20ca8 .cfa: sp 0 +
STACK CFI 20cac .cfa: x29 64 +
STACK CFI INIT 20cc8 3f4 .cfa: sp 0 +
STACK CFI 20ccc .cfa: sp 32 +
STACK CFI 20cd4 .cfa: x29 32 + x19: .cfa -16 + ^ .ra: .cfa -24 + ^ x29: .cfa -32 + ^
STACK CFI 20e20 .cfa: sp 32 +
STACK CFI 20e28 .cfa: sp 0 +
STACK CFI 20e2c .cfa: x29 32 +
STACK CFI 20e34 .cfa: sp 32 +
STACK CFI 20e3c .cfa: sp 0 +
STACK CFI 20e40 .cfa: x29 32 +
STACK CFI 20e7c .cfa: sp 32 +
STACK CFI 20e84 .cfa: sp 0 +
STACK CFI 20e88 .cfa: x29 32 +
STACK CFI 20ec4 .cfa: sp 32 +
STACK CFI 20ecc .cfa: sp 0 +
STACK CFI 20ed0 .cfa: x29 32 +
STACK CFI 20efc .cfa: sp 32 +
STACK CFI 20f04 .cfa: sp 0 +
STACK CFI 20f08 .cfa: x29 32 +
STACK CFI 20f24 .cfa: sp 32 +
STACK CFI 20f2c .cfa: sp 0 +
STACK CFI 20f30 .cfa: x29 32 +
STACK CFI 20f94 .cfa: sp 32 +
STACK CFI 20f9c .cfa: sp 0 +
STACK CFI 20fa0 .cfa: x29 32 +
STACK CFI 21070 .cfa: sp 32 +
STACK CFI 21078 .cfa: sp 0 +
STACK CFI 2107c .cfa: x29 32 +
STACK CFI 210a8 .cfa: sp 32 +
STACK CFI 210b0 .cfa: sp 0 +
STACK CFI 210b4 .cfa: x29 32 +
STACK CFI INIT 21128 b4 .cfa: sp 0 +
STACK CFI 2112c .cfa: sp 64 +
STACK CFI 2113c .cfa: x29 64 + x19: .cfa -8 + ^ x20: .cfa -16 + ^ x21: .cfa -24 + ^ x22: .cfa -32 + ^ x23: .cfa -48 + ^ .ra: .cfa -56 + ^ x29: .cfa -64 + ^
STACK CFI 211c8 .cfa: sp 64 +
STACK CFI 211d8 .cfa: sp 0 +
STACK CFI INIT 21228 48 .cfa: sp 0 +
STACK CFI 21244 .cfa: sp 32 +
STACK CFI 2124c .cfa: x29 32 + x19: .cfa -16 + ^ .ra: .cfa -24 + ^ x29: .cfa -32 + ^
STACK CFI 21264 .cfa: sp 32 +
STACK CFI 2126c .cfa: sp 0 +
STACK CFI INIT 21270 64 .cfa: sp 0 +
STACK CFI INIT 212d4 48 .cfa: sp 0 +
STACK CFI 212f0 .cfa: sp 32 +
STACK CFI 212f8 .cfa: x29 32 + x19: .cfa -16 + ^ .ra: .cfa -24 + ^ x29: .cfa -32 + ^
STACK CFI 21310 .cfa: sp 32 +
STACK CFI 21318 .cfa: sp 0 +
STACK CFI INIT 2131c 54 .cfa: sp 0 +
STACK CFI INIT 21370 5c .cfa: sp 0 +
STACK CFI 21374 .cfa: sp 32 +
STACK CFI 2137c .cfa: x29 32 + x19: .cfa -16 + ^ .ra: .cfa -24 + ^ x29: .cfa -32 + ^
STACK CFI 213b4 .cfa: sp 32 +
STACK CFI 213bc .cfa: sp 0 +
STACK CFI 213c0 .cfa: sp 32 +
STACK CFI 213c8 .cfa: sp 0 +
STACK CFI INIT 213cc 58 .cfa: sp 0 +
STACK CFI 213d0 .cfa: sp 32 +
STACK CFI 213d8 .cfa: x29 32 + x19: .cfa -16 + ^ .ra: .cfa -24 + ^ x29: .cfa -32 + ^
STACK CFI 21418 .cfa: sp 32 +
STACK CFI 21420 .cfa: sp 0 +
STACK CFI INIT 21424 110 .cfa: sp 0 +
STACK CFI INIT 21534 90 .cfa: sp 0 +
STACK CFI 21538 .cfa: sp 32 +
STACK CFI 21540 .cfa: x29 32 + x19: .cfa -8 + ^ x20: .cfa -16 + ^ .ra: .cfa -24 + ^ x29: .cfa -32 + ^
STACK CFI 215ac .cfa: sp 32 +
STACK CFI 215b4 .cfa: sp 0 +
STACK CFI 215b8 .cfa: sp 32 +
STACK CFI 215c0 .cfa: sp 0 +
STACK CFI INIT 215c4 8c .cfa: sp 0 +
STACK CFI 215c8 .cfa: sp 32 +
STACK CFI 215d0 .cfa: x29 32 + x19: .cfa -8 + ^ x20: .cfa -16 + ^ .ra: .cfa -24 + ^ x29: .cfa -32 + ^
STACK CFI 21644 .cfa: sp 32 +
STACK CFI 2164c .cfa: sp 0 +
STACK CFI INIT 21c80 1d4 .cfa: sp 0 +
STACK CFI 21c84 .cfa: sp 48 +
STACK CFI 21c90 .cfa: x29 48 + x19: .cfa -8 + ^ x20: .cfa -16 + ^ x21: .cfa -24 + ^ x22: .cfa -32 + ^ .ra: .cfa -40 + ^ x29: .cfa -48 + ^
STACK CFI 21e20 .cfa: sp 48 +
STACK CFI 21e2c .cfa: sp 0 +
STACK CFI 21e30 .cfa: x29 48 +
STACK CFI 21e3c .cfa: sp 48 +
STACK CFI 21e48 .cfa: sp 0 +
STACK CFI 21e4c .cfa: x29 48 +
STACK CFI INIT 21e54 14 .cfa: sp 0 +
STACK CFI 21e58 .cfa: sp 16 +
STACK CFI 21e5c .cfa: x29 16 + .ra: .cfa -8 + ^ x29: .cfa -16 + ^
STACK CFI INIT 21e68 34 .cfa: sp 0 +
STACK CFI 21e6c .cfa: sp 32 +
STACK CFI 21e74 .cfa: x29 32 + x19: .cfa -16 + ^ .ra: .cfa -24 + ^ x29: .cfa -32 + ^
STACK CFI INIT 21e9c 44 .cfa: sp 0 +
STACK CFI 21ea0 .cfa: sp 32 +
STACK CFI 21ea8 .cfa: x29 32 + x19: .cfa -16 + ^ .ra: .cfa -24 + ^ x29: .cfa -32 + ^
STACK CFI 21ec8 .cfa: sp 32 +
STACK CFI 21ed0 .cfa: sp 0 +
STACK CFI 21ed4 .cfa: sp 32 +
STACK CFI 21edc .cfa: sp 0 +
STACK CFI INIT 220f0 98 .cfa: sp 0 +
STACK CFI 220f4 .cfa: sp 48 +
STACK CFI 22100 .cfa: x29 48 + x19: .cfa -8 + ^ x20: .cfa -16 + ^ x21: .cfa -32 + ^ .ra: .cfa -40 + ^ x29: .cfa -48 + ^
STACK CFI 22120 .cfa: sp 48 +
STACK CFI 2212c .cfa: sp 0 +
STACK CFI 22130 .cfa: x29 48 +
STACK CFI 22168 .cfa: sp 48 +
STACK CFI 22174 .cfa: sp 0 +
STACK CFI 22178 .cfa: sp 48 +
STACK CFI 22184 .cfa: sp 0 +
STACK CFI INIT 22188 1e0 .cfa: sp 0 +
STACK CFI 2218c .cfa: sp 48 +
STACK CFI 22198 .cfa: x29 48 + x19: .cfa -8 + ^ x20: .cfa -16 + ^ x21: .cfa -24 + ^ x22: .cfa -32 + ^ .ra: .cfa -40 + ^ x29: .cfa -48 + ^
STACK CFI 2234c .cfa: sp 48 +
STACK CFI 22358 .cfa: sp 0 +
STACK CFI 2235c .cfa: x29 48 +
STACK CFI INIT 22368 14 .cfa: sp 0 +
STACK CFI 2236c .cfa: sp 16 +
STACK CFI 22370 .cfa: x29 16 + .ra: .cfa -8 + ^ x29: .cfa -16 + ^
STACK CFI INIT 2237c 1a8 .cfa: sp 0 +
STACK CFI 22380 .cfa: sp 64 +
STACK CFI 22390 .cfa: x29 64 + x19: .cfa -8 + ^ x20: .cfa -16 + ^ x21: .cfa -24 + ^ x22: .cfa -32 + ^ x23: .cfa -40 + ^ x24: .cfa -48 + ^ .ra: .cfa -56 + ^ x29: .cfa -64 + ^
STACK CFI 224f4 .cfa: sp 64 +
STACK CFI 22504 .cfa: sp 0 +
STACK CFI 22508 .cfa: sp 64 +
STACK CFI 22518 .cfa: sp 0 +
STACK CFI 2251c .cfa: x29 64 +
STACK CFI INIT 22524 130 .cfa: sp 0 +
STACK CFI 22528 .cfa: sp 64 +
STACK CFI 22538 .cfa: x29 64 + x19: .cfa -8 + ^ x20: .cfa -16 + ^ x21: .cfa -24 + ^ x22: .cfa -32 + ^ x23: .cfa -40 + ^ x24: .cfa -48 + ^ .ra: .cfa -56 + ^ x29: .cfa -64 + ^
STACK CFI 22620 .cfa: sp 64 +
STACK CFI 22630 .cfa: sp 0 +
STACK CFI 22634 .cfa: sp 64 +
STACK CFI 22644 .cfa: sp 0 +
STACK CFI 22648 .cfa: x29 64 +
STACK CFI INIT 22654 14 .cfa: sp 0 +
STACK CFI 22658 .cfa: sp 16 +
STACK CFI 2265c .cfa: x29 16 + .ra: .cfa -8 + ^ x29: .cfa -16 + ^
STACK CFI INIT 22668 18c .cfa: sp 0 +
STACK CFI 2266c .cfa: sp 64 +
STACK CFI 2267c .cfa: x29 64 + x19: .cfa -8 + ^ x20: .cfa -16 + ^ x21: .cfa -24 + ^ x22: .cfa -32 + ^ x23: .cfa -48 + ^ .ra: .cfa -56 + ^ x29: .cfa -64 + ^
STACK CFI 226b8 .cfa: sp 64 +
STACK CFI 226c8 .cfa: sp 0 +
STACK CFI 226cc .cfa: x29 64 +
STACK CFI 226d4 .cfa: sp 64 +
STACK CFI 226e4 .cfa: sp 0 +
STACK CFI 226e8 .cfa: x29 64 +
STACK CFI 227a8 .cfa: sp 64 +
STACK CFI 227b8 .cfa: sp 0 +
STACK CFI 227bc .cfa: x29 64 +
STACK CFI 227d8 .cfa: sp 64 +
STACK CFI 227e8 .cfa: sp 0 +
STACK CFI 227ec .cfa: x29 64 +
STACK CFI INIT 22994 78 .cfa: sp 0 +
STACK CFI 22998 .cfa: sp 32 +
STACK CFI 229a0 .cfa: x29 32 + x19: .cfa -16 + ^ .ra: .cfa -24 + ^ x29: .cfa -32 + ^
STACK CFI 229dc .cfa: sp 32 +
STACK CFI 229e4 .cfa: sp 0 +
STACK CFI 229e8 .cfa: x29 32 +
STACK CFI 22a00 .cfa: sp 32 +
STACK CFI 22a08 .cfa: sp 0 +
STACK CFI INIT 22a0c 48 .cfa: sp 0 +
STACK CFI 22a28 .cfa: sp 32 +
STACK CFI 22a30 .cfa: x29 32 + x19: .cfa -16 + ^ .ra: .cfa -24 + ^ x29: .cfa -32 + ^
STACK CFI 22a48 .cfa: sp 32 +
STACK CFI 22a50 .cfa: sp 0 +
STACK CFI INIT 22cf4 50c .cfa: sp 0 +
STACK CFI 22cf8 .cfa: sp 32 +
STACK CFI 22d00 .cfa: x29 32 + x19: .cfa -16 + ^ .ra: .cfa -24 + ^ x29: .cfa -32 + ^
STACK CFI 22e48 .cfa: sp 32 +
STACK CFI 22e50 .cfa: sp 0 +
STACK CFI 22e54 .cfa: x29 32 +
STACK CFI 22fc4 .cfa: sp 32 +
STACK CFI 22fcc .cfa: sp 0 +
STACK CFI 22fd0 .cfa: x29 32 +
STACK CFI 22fec .cfa: sp 32 +
STACK CFI 22ff4 .cfa: sp 0 +
STACK CFI 22ff8 .cfa: x29 32 +
STACK CFI 23054 .cfa: sp 32 +
STACK CFI 2305c .cfa: sp 0 +
STACK CFI 23060 .cfa: x29 32 +
STACK CFI 2307c .cfa: sp 32 +
STACK CFI 23084 .cfa: sp 0 +
STACK CFI 23088 .cfa: x29 32 +
STACK CFI 230a4 .cfa: sp 32 +
STACK CFI 230ac .cfa: sp 0 +
STACK CFI 230b0 .cfa: x29 32 +
STACK CFI 230cc .cfa: sp 32 +
STACK CFI 230d4 .cfa: sp 0 +
STACK CFI 230d8 .cfa: x29 32 +
STACK CFI 230f0 .cfa: sp 32 +
STACK CFI 230f8 .cfa: sp 0 +
STACK CFI 230fc .cfa: x29 32 +
STACK CFI 23118 .cfa: sp 32 +
STACK CFI 23120 .cfa: sp 0 +
STACK CFI 23124 .cfa: x29 32 +
STACK CFI 23140 .cfa: sp 32 +
STACK CFI 23148 .cfa: sp 0 +
STACK CFI 2314c .cfa: x29 32 +
STACK CFI 23168 .cfa: sp 32 +
STACK CFI 23170 .cfa: sp 0 +
STACK CFI 23174 .cfa: x29 32 +
STACK CFI 231c8 .cfa: sp 32 +
STACK CFI 231d0 .cfa: sp 0 +
STACK CFI 231d4 .cfa: x29 32 +
STACK CFI 231f0 .cfa: sp 32 +
STACK CFI 231f8 .cfa: sp 0 +
STACK CFI 231fc .cfa: x29 32 +
STACK CFI INIT 2338c c8 .cfa: sp 0 +
STACK CFI 23390 .cfa: sp 48 +
STACK CFI 2339c .cfa: x29 48 + x19: .cfa -8 + ^ x20: .cfa -16 + ^ x21: .cfa -32 + ^ .ra: .cfa -40 + ^ x29: .cfa -48 + ^
STACK CFI 23444 .cfa: sp 48 +
STACK CFI 23450 .cfa: sp 0 +
STACK CFI INIT 23454 5c .cfa: sp 0 +
STACK CFI 23458 .cfa: sp 32 +
STACK CFI 23460 .cfa: x29 32 + x19: .cfa -16 + ^ .ra: .cfa -24 + ^ x29: .cfa -32 + ^
STACK CFI 23498 .cfa: sp 32 +
STACK CFI 234a0 .cfa: sp 0 +
STACK CFI 234a4 .cfa: sp 32 +
STACK CFI 234ac .cfa: sp 0 +
STACK CFI INIT 234b0 58 .cfa: sp 0 +
STACK CFI 234b4 .cfa: sp 32 +
STACK CFI 234bc .cfa: x29 32 + x19: .cfa -16 + ^ .ra: .cfa -24 + ^ x29: .cfa -32 + ^
STACK CFI 234fc .cfa: sp 32 +
STACK CFI 23504 .cfa: sp 0 +
STACK CFI INIT 23508 80 .cfa: sp 0 +
STACK CFI 2350c .cfa: sp 32 +
STACK CFI 23514 .cfa: x29 32 + x19: .cfa -8 + ^ x20: .cfa -16 + ^ .ra: .cfa -24 + ^ x29: .cfa -32 + ^
STACK CFI 23564 .cfa: sp 32 +
STACK CFI 2356c .cfa: sp 0 +
STACK CFI 23570 .cfa: x29 32 +
STACK CFI 2357c .cfa: sp 32 +
STACK CFI 23584 .cfa: sp 0 +
STACK CFI INIT 23588 5c .cfa: sp 0 +
STACK CFI 2358c .cfa: sp 32 +
STACK CFI 23594 .cfa: x29 32 + x19: .cfa -16 + ^ .ra: .cfa -24 + ^ x29: .cfa -32 + ^
STACK CFI 235cc .cfa: sp 32 +
STACK CFI 235d4 .cfa: sp 0 +
STACK CFI 235d8 .cfa: sp 32 +
STACK CFI 235e0 .cfa: sp 0 +
STACK CFI INIT 235e4 58 .cfa: sp 0 +
STACK CFI 235e8 .cfa: sp 32 +
STACK CFI 235f0 .cfa: x29 32 + x19: .cfa -16 + ^ .ra: .cfa -24 + ^ x29: .cfa -32 + ^
STACK CFI 23630 .cfa: sp 32 +
STACK CFI 23638 .cfa: sp 0 +
STACK CFI INIT 2363c 48 .cfa: sp 0 +
STACK CFI INIT 23684 48 .cfa: sp 0 +
STACK CFI 236a0 .cfa: sp 32 +
STACK CFI 236a8 .cfa: x29 32 + x19: .cfa -16 + ^ .ra: .cfa -24 + ^ x29: .cfa -32 + ^
STACK CFI 236c0 .cfa: sp 32 +
STACK CFI 236c8 .cfa: sp 0 +
STACK CFI INIT 236cc 48 .cfa: sp 0 +
STACK CFI INIT 23714 5c .cfa: sp 0 +
STACK CFI 23718 .cfa: sp 32 +
STACK CFI 23720 .cfa: x29 32 + x19: .cfa -16 + ^ .ra: .cfa -24 + ^ x29: .cfa -32 + ^
STACK CFI 23758 .cfa: sp 32 +
STACK CFI 23760 .cfa: sp 0 +
STACK CFI 23764 .cfa: sp 32 +
STACK CFI 2376c .cfa: sp 0 +
STACK CFI INIT 23770 58 .cfa: sp 0 +
STACK CFI 23774 .cfa: sp 32 +
STACK CFI 2377c .cfa: x29 32 + x19: .cfa -16 + ^ .ra: .cfa -24 + ^ x29: .cfa -32 + ^
STACK CFI 237bc .cfa: sp 32 +
STACK CFI 237c4 .cfa: sp 0 +
STACK CFI INIT 237c8 f8 .cfa: sp 0 +
STACK CFI 237cc .cfa: sp 64 +
STACK CFI 237dc .cfa: x29 64 + x19: .cfa -8 + ^ x20: .cfa -16 + ^ x21: .cfa -24 + ^ x22: .cfa -32 + ^ x23: .cfa -40 + ^ x24: .cfa -48 + ^ .ra: .cfa -56 + ^ x29: .cfa -64 + ^
STACK CFI 23820 .cfa: sp 64 +
STACK CFI 23830 .cfa: sp 0 +
STACK CFI 23834 .cfa: x29 64 +
STACK CFI 238ac .cfa: sp 64 +
STACK CFI 238bc .cfa: sp 0 +
STACK CFI INIT 238c0 5c .cfa: sp 0 +
STACK CFI 238c4 .cfa: sp 32 +
STACK CFI 238cc .cfa: x29 32 + x19: .cfa -16 + ^ .ra: .cfa -24 + ^ x29: .cfa -32 + ^
STACK CFI 23904 .cfa: sp 32 +
STACK CFI 2390c .cfa: sp 0 +
STACK CFI 23910 .cfa: sp 32 +
STACK CFI 23918 .cfa: sp 0 +
STACK CFI INIT 2391c 58 .cfa: sp 0 +
STACK CFI 23920 .cfa: sp 32 +
STACK CFI 23928 .cfa: x29 32 + x19: .cfa -16 + ^ .ra: .cfa -24 + ^ x29: .cfa -32 + ^
STACK CFI 23968 .cfa: sp 32 +
STACK CFI 23970 .cfa: sp 0 +
STACK CFI INIT 23974 90 .cfa: sp 0 +
STACK CFI INIT 23a04 48 .cfa: sp 0 +
STACK CFI 23a20 .cfa: sp 32 +
STACK CFI 23a28 .cfa: x29 32 + x19: .cfa -16 + ^ .ra: .cfa -24 + ^ x29: .cfa -32 + ^
STACK CFI 23a40 .cfa: sp 32 +
STACK CFI 23a48 .cfa: sp 0 +
STACK CFI INIT 23a4c d0 .cfa: sp 0 +
STACK CFI 23a50 .cfa: sp 48 +
STACK CFI 23a5c .cfa: x29 48 + x19: .cfa -8 + ^ x20: .cfa -16 + ^ x21: .cfa -24 + ^ x22: .cfa -32 + ^ .ra: .cfa -40 + ^ x29: .cfa -48 + ^
STACK CFI 23ae0 .cfa: sp 48 +
STACK CFI 23aec .cfa: sp 0 +
STACK CFI 23af0 .cfa: x29 48 +
STACK CFI 23b08 .cfa: sp 48 +
STACK CFI 23b14 .cfa: sp 0 +
STACK CFI 23b18 .cfa: x29 48 +
STACK CFI INIT 23b1c 4b4 .cfa: sp 0 +
STACK CFI 23b20 .cfa: sp 80 +
STACK CFI 23b34 .cfa: x29 80 + x19: .cfa -8 + ^ x20: .cfa -16 + ^ x21: .cfa -24 + ^ x22: .cfa -32 + ^ x23: .cfa -40 + ^ x24: .cfa -48 + ^ x25: .cfa -64 + ^ .ra: .cfa -72 + ^ x29: .cfa -80 + ^
STACK CFI 23b68 .cfa: sp 80 +
STACK CFI 23b7c .cfa: sp 0 +
STACK CFI 23b80 .cfa: x29 80 +
STACK CFI 23f40 .cfa: sp 80 +
STACK CFI 23f54 .cfa: sp 0 +
STACK CFI 23f58 .cfa: x29 80 +
STACK CFI 23fb0 .cfa: sp 80 +
STACK CFI 23fc4 .cfa: sp 0 +
STACK CFI 23fc8 .cfa: x29 80 +
STACK CFI INIT 241ac 7c .cfa: sp 0 +
STACK CFI 241b0 .cfa: sp 48 +
STACK CFI 241bc .cfa: x29 48 + x19: .cfa -8 + ^ x20: .cfa -16 + ^ x21: .cfa -32 + ^ .ra: .cfa -40 + ^ x29: .cfa -48 + ^
STACK CFI 24208 .cfa: sp 48 +
STACK CFI 24214 .cfa: sp 0 +
STACK CFI 24218 .cfa: sp 48 +
STACK CFI 24224 .cfa: sp 0 +
STACK CFI INIT 24228 a4 .cfa: sp 0 +
STACK CFI 2422c .cfa: sp 48 +
STACK CFI 24238 .cfa: x29 48 + x19: .cfa -8 + ^ x20: .cfa -16 + ^ x21: .cfa -32 + ^ .ra: .cfa -40 + ^ x29: .cfa -48 + ^
STACK CFI 24258 .cfa: sp 48 +
STACK CFI 24264 .cfa: sp 0 +
STACK CFI 24268 .cfa: x29 48 +
STACK CFI 242ac .cfa: sp 48 +
STACK CFI 242b8 .cfa: sp 0 +
STACK CFI 242bc .cfa: sp 48 +
STACK CFI 242c8 .cfa: sp 0 +
STACK CFI INIT 242cc 14c .cfa: sp 0 +
STACK CFI 242d0 .cfa: sp 48 +
STACK CFI 242dc .cfa: x29 48 + x19: .cfa -8 + ^ x20: .cfa -16 + ^ x21: .cfa -32 + ^ .ra: .cfa -40 + ^ x29: .cfa -48 + ^
STACK CFI 243f8 .cfa: sp 48 +
STACK CFI 24404 .cfa: sp 0 +
STACK CFI 24408 .cfa: sp 48 +
STACK CFI 24414 .cfa: sp 0 +
STACK CFI INIT 24418 24 .cfa: sp 0 +
STACK CFI 2441c .cfa: sp 32 +
STACK CFI 24424 .cfa: x29 32 + x19: .cfa -16 + ^ .ra: .cfa -24 + ^ x29: .cfa -32 + ^
STACK CFI 24430 .cfa: sp 32 +
STACK CFI 24438 .cfa: sp 0 +
STACK CFI INIT 24f34 44 .cfa: sp 0 +
STACK CFI 24f38 .cfa: sp 32 +
STACK CFI 24f40 .cfa: x29 32 + x19: .cfa -16 + ^ .ra: .cfa -24 + ^ x29: .cfa -32 + ^
STACK CFI 24f5c .cfa: sp 32 +
STACK CFI 24f64 .cfa: sp 0 +
STACK CFI 24f68 .cfa: x29 32 +
STACK CFI 24f6c .cfa: sp 32 +
STACK CFI 24f74 .cfa: sp 0 +
STACK CFI INIT 2522c ac .cfa: sp 0 +
STACK CFI 25230 .cfa: sp 64 +
STACK CFI 25240 .cfa: x29 64 + x19: .cfa -8 + ^ x20: .cfa -16 + ^ x21: .cfa -24 + ^ x22: .cfa -32 + ^ x23: .cfa -48 + ^ .ra: .cfa -56 + ^ x29: .cfa -64 + ^
STACK CFI 252bc .cfa: sp 64 +
STACK CFI 252cc .cfa: sp 0 +
STACK CFI 252d0 .cfa: x29 64 +
STACK CFI INIT 252d8 110 .cfa: sp 0 +
STACK CFI 252dc .cfa: sp 64 +
STACK CFI 252ec .cfa: x29 64 + x19: .cfa -8 + ^ x20: .cfa -16 + ^ x21: .cfa -24 + ^ x22: .cfa -32 + ^ x23: .cfa -40 + ^ x24: .cfa -48 + ^ .ra: .cfa -56 + ^ x29: .cfa -64 + ^
STACK CFI 253cc .cfa: sp 64 +
STACK CFI 253dc .cfa: sp 0 +
STACK CFI 253e0 .cfa: x29 64 +
STACK CFI INIT 255ac 14 .cfa: sp 0 +
STACK CFI 255b0 .cfa: sp 16 +
STACK CFI 255b4 .cfa: x29 16 + .ra: .cfa -8 + ^ x29: .cfa -16 + ^
STACK CFI INIT 25eb4 12c .cfa: sp 0 +
STACK CFI 25eb8 .cfa: sp 80 +
STACK CFI 25ec8 .cfa: x29 48 + x19: .cfa -8 + ^ x20: .cfa -16 + ^ x21: .cfa -24 + ^ x22: .cfa -32 + ^ .ra: .cfa -40 + ^ x29: .cfa -48 + ^
STACK CFI 25fa0 .cfa: sp 80 +
STACK CFI 25fb0 .cfa: sp 0 +
STACK CFI 25fb4 .cfa: x29 48 +
STACK CFI INIT 25fe0 1d4 .cfa: sp 0 +
STACK CFI 25fe4 .cfa: sp 32 +
STACK CFI 25fec .cfa: x29 32 + x19: .cfa -16 + ^ .ra: .cfa -24 + ^ x29: .cfa -32 + ^
STACK CFI 26024 .cfa: sp 32 +
STACK CFI 2602c .cfa: sp 0 +
STACK CFI 26030 .cfa: x29 32 +
STACK CFI 26058 .cfa: sp 32 +
STACK CFI 26060 .cfa: sp 0 +
STACK CFI 26064 .cfa: x29 32 +
STACK CFI 26094 .cfa: sp 32 +
STACK CFI 2609c .cfa: sp 0 +
STACK CFI 260a0 .cfa: x29 32 +
STACK CFI 260d0 .cfa: sp 32 +
STACK CFI 260d8 .cfa: sp 0 +
STACK CFI 260dc .cfa: x29 32 +
STACK CFI 260f4 .cfa: sp 32 +
STACK CFI 260fc .cfa: sp 0 +
STACK CFI 26100 .cfa: x29 32 +
STACK CFI 2611c .cfa: sp 32 +
STACK CFI 26124 .cfa: sp 0 +
STACK CFI 26128 .cfa: x29 32 +
STACK CFI 26138 .cfa: sp 32 +
STACK CFI 26140 .cfa: sp 0 +
STACK CFI 26144 .cfa: x29 32 +
STACK CFI 26154 .cfa: sp 32 +
STACK CFI 2615c .cfa: sp 0 +
STACK CFI 26160 .cfa: sp 32 +
STACK CFI 26168 .cfa: sp 0 +
STACK CFI 2616c .cfa: x29 32 +
STACK CFI 26180 .cfa: sp 32 +
STACK CFI 26188 .cfa: sp 0 +
STACK CFI 2618c .cfa: x29 32 +
STACK CFI 261a4 .cfa: sp 32 +
STACK CFI 261ac .cfa: sp 0 +
STACK CFI 261b0 .cfa: x29 32 +
STACK CFI INIT 261b4 4c4 .cfa: sp 0 +
STACK CFI 261b8 .cfa: sp 32 +
STACK CFI 261c0 .cfa: x29 32 + x19: .cfa -16 + ^ .ra: .cfa -24 + ^ x29: .cfa -32 + ^
STACK CFI 26214 .cfa: sp 32 +
STACK CFI 2621c .cfa: sp 0 +
STACK CFI 26220 .cfa: x29 32 +
STACK CFI 26260 .cfa: sp 32 +
STACK CFI 26268 .cfa: sp 0 +
STACK CFI 2626c .cfa: x29 32 +
STACK CFI 2629c .cfa: sp 32 +
STACK CFI 262a4 .cfa: sp 0 +
STACK CFI 262a8 .cfa: x29 32 +
STACK CFI 262d8 .cfa: sp 32 +
STACK CFI 262e0 .cfa: sp 0 +
STACK CFI 262e4 .cfa: x29 32 +
STACK CFI 262f4 .cfa: sp 32 +
STACK CFI 262fc .cfa: sp 0 +
STACK CFI 26300 .cfa: x29 32 +
STACK CFI 26320 .cfa: sp 32 +
STACK CFI 26328 .cfa: sp 0 +
STACK CFI 2632c .cfa: x29 32 +
STACK CFI 2634c .cfa: sp 32 +
STACK CFI 26354 .cfa: sp 0 +
STACK CFI 26358 .cfa: x29 32 +
STACK CFI 26378 .cfa: sp 32 +
STACK CFI 26380 .cfa: sp 0 +
STACK CFI 26384 .cfa: x29 32 +
STACK CFI 263a4 .cfa: sp 32 +
STACK CFI 263ac .cfa: sp 0 +
STACK CFI 263b0 .cfa: x29 32 +
STACK CFI 26434 .cfa: sp 32 +
STACK CFI 2643c .cfa: sp 0 +
STACK CFI 26440 .cfa: x29 32 +
STACK CFI 26450 .cfa: sp 32 +
STACK CFI 26458 .cfa: sp 0 +
STACK CFI 2645c .cfa: x29 32 +
STACK CFI 2646c .cfa: sp 32 +
STACK CFI 26474 .cfa: sp 0 +
STACK CFI 26478 .cfa: x29 32 +
STACK CFI 26488 .cfa: sp 32 +
STACK CFI 26490 .cfa: sp 0 +
STACK CFI 26494 .cfa: x29 32 +
STACK CFI 264a4 .cfa: sp 32 +
STACK CFI 264ac .cfa: sp 0 +
STACK CFI 264b0 .cfa: x29 32 +
STACK CFI 264c0 .cfa: sp 32 +
STACK CFI 264c8 .cfa: sp 0 +
STACK CFI 264cc .cfa: x29 32 +
STACK CFI 264dc .cfa: sp 32 +
STACK CFI 264e4 .cfa: sp 0 +
STACK CFI 264e8 .cfa: x29 32 +
STACK CFI 264f8 .cfa: sp 32 +
STACK CFI 26500 .cfa: sp 0 +
STACK CFI 26504 .cfa: x29 32 +
STACK CFI 26528 .cfa: sp 32 +
STACK CFI 26530 .cfa: sp 0 +
STACK CFI 26534 .cfa: x29 32 +
STACK CFI 2654c .cfa: sp 32 +
STACK CFI 26554 .cfa: sp 0 +
STACK CFI 26558 .cfa: x29 32 +
STACK CFI 26570 .cfa: sp 32 +
STACK CFI 26578 .cfa: sp 0 +
STACK CFI 2657c .cfa: x29 32 +
STACK CFI 26594 .cfa: sp 32 +
STACK CFI 2659c .cfa: sp 0 +
STACK CFI 265a0 .cfa: x29 32 +
STACK CFI 265b8 .cfa: sp 32 +
STACK CFI 265c0 .cfa: sp 0 +
STACK CFI 265c4 .cfa: x29 32 +
STACK CFI 265dc .cfa: sp 32 +
STACK CFI 265e4 .cfa: sp 0 +
STACK CFI 265e8 .cfa: x29 32 +
STACK CFI 26600 .cfa: sp 32 +
STACK CFI 26608 .cfa: sp 0 +
STACK CFI 2660c .cfa: x29 32 +
STACK CFI 26624 .cfa: sp 32 +
STACK CFI 2662c .cfa: sp 0 +
STACK CFI 26630 .cfa: x29 32 +
STACK CFI 26648 .cfa: sp 32 +
STACK CFI 26650 .cfa: sp 0 +
STACK CFI 26654 .cfa: x29 32 +
STACK CFI 26668 .cfa: sp 32 +
STACK CFI 26670 .cfa: sp 0 +
STACK CFI 26674 .cfa: x29 32 +
STACK CFI INIT 26b18 424 .cfa: sp 0 +
STACK CFI 26b1c .cfa: sp 80 +
STACK CFI 26b30 .cfa: x29 80 + x19: .cfa -8 + ^ x20: .cfa -16 + ^ x21: .cfa -24 + ^ x22: .cfa -32 + ^ x23: .cfa -40 + ^ x24: .cfa -48 + ^ x25: .cfa -64 + ^ .ra: .cfa -72 + ^ x29: .cfa -80 + ^
STACK CFI 26b84 .cfa: sp 80 +
STACK CFI 26b98 .cfa: sp 0 +
STACK CFI 26b9c .cfa: x29 80 +
STACK CFI 26d44 .cfa: sp 80 +
STACK CFI 26d58 .cfa: sp 0 +
STACK CFI 26d5c .cfa: x29 80 +
STACK CFI 26f18 .cfa: sp 80 +
STACK CFI 26f2c .cfa: sp 0 +
STACK CFI 26f30 .cfa: x29 80 +
STACK CFI INIT 2767c 68 .cfa: sp 0 +
STACK CFI 27680 .cfa: sp 32 +
STACK CFI 27688 .cfa: x29 32 + x19: .cfa -8 + ^ x20: .cfa -16 + ^ .ra: .cfa -24 + ^ x29: .cfa -32 + ^
STACK CFI 276a0 .cfa: sp 32 +
STACK CFI 276a8 .cfa: sp 0 +
STACK CFI 276ac .cfa: x29 32 +
STACK CFI 276d8 .cfa: sp 32 +
STACK CFI 276e0 .cfa: sp 0 +
STACK CFI INIT 276e4 14 .cfa: sp 0 +
STACK CFI 276e8 .cfa: sp 16 +
STACK CFI 276ec .cfa: x29 16 + .ra: .cfa -8 + ^ x29: .cfa -16 + ^
STACK CFI INIT 278c4 4b4 .cfa: sp 0 +
STACK CFI 278c8 .cfa: sp 80 +
STACK CFI 278dc .cfa: x29 80 + x19: .cfa -8 + ^ x20: .cfa -16 + ^ x21: .cfa -24 + ^ x22: .cfa -32 + ^ x23: .cfa -40 + ^ x24: .cfa -48 + ^ x25: .cfa -64 + ^ .ra: .cfa -72 + ^ x29: .cfa -80 + ^
STACK CFI 27910 .cfa: sp 80 +
STACK CFI 27924 .cfa: sp 0 +
STACK CFI 27928 .cfa: x29 80 +
STACK CFI 27ce8 .cfa: sp 80 +
STACK CFI 27cfc .cfa: sp 0 +
STACK CFI 27d00 .cfa: x29 80 +
STACK CFI 27d58 .cfa: sp 80 +
STACK CFI 27d6c .cfa: sp 0 +
STACK CFI 27d70 .cfa: x29 80 +
STACK CFI INIT 27f78 1ac .cfa: sp 0 +
STACK CFI 27f7c .cfa: sp 48 +
STACK CFI 27f88 .cfa: x29 48 + x19: .cfa -8 + ^ x20: .cfa -16 + ^ x21: .cfa -24 + ^ x22: .cfa -32 + ^ .ra: .cfa -40 + ^ x29: .cfa -48 + ^
STACK CFI 28108 .cfa: sp 48 +
STACK CFI 28114 .cfa: sp 0 +
STACK CFI 28118 .cfa: x29 48 +
STACK CFI INIT 28124 14 .cfa: sp 0 +
STACK CFI 28128 .cfa: sp 16 +
STACK CFI 2812c .cfa: x29 16 + .ra: .cfa -8 + ^ x29: .cfa -16 + ^
STACK CFI INIT 28138 14 .cfa: sp 0 +
STACK CFI 2813c .cfa: sp 16 +
STACK CFI 28140 .cfa: x29 16 + .ra: .cfa -8 + ^ x29: .cfa -16 + ^
STACK CFI INIT 2814c 48 .cfa: sp 0 +
STACK CFI 28168 .cfa: sp 32 +
STACK CFI 28170 .cfa: x29 32 + x19: .cfa -16 + ^ .ra: .cfa -24 + ^ x29: .cfa -32 + ^
STACK CFI 28188 .cfa: sp 32 +
STACK CFI 28190 .cfa: sp 0 +
STACK CFI INIT 28194 30 .cfa: sp 0 +
STACK CFI INIT 281c4 48 .cfa: sp 0 +
STACK CFI 281e0 .cfa: sp 32 +
STACK CFI 281e8 .cfa: x29 32 + x19: .cfa -16 + ^ .ra: .cfa -24 + ^ x29: .cfa -32 + ^
STACK CFI 28200 .cfa: sp 32 +
STACK CFI 28208 .cfa: sp 0 +
STACK CFI INIT 2820c 38 .cfa: sp 0 +
STACK CFI INIT 2841c 68 .cfa: sp 0 +
STACK CFI 28420 .cfa: sp 32 +
STACK CFI 28428 .cfa: x29 32 + x19: .cfa -16 + ^ .ra: .cfa -24 + ^ x29: .cfa -32 + ^
STACK CFI 28478 .cfa: sp 32 +
STACK CFI 28480 .cfa: sp 0 +
STACK CFI INIT 28484 1c4 .cfa: sp 0 +
STACK CFI INIT 28648 c4 .cfa: sp 0 +
STACK CFI INIT 2870c 68 .cfa: sp 0 +
STACK CFI 28710 .cfa: sp 32 +
STACK CFI 28718 .cfa: x29 32 + x19: .cfa -16 + ^ .ra: .cfa -24 + ^ x29: .cfa -32 + ^
STACK CFI 28768 .cfa: sp 32 +
STACK CFI 28770 .cfa: sp 0 +
STACK CFI INIT 28774 4 .cfa: sp 0 +
STACK CFI INIT 28778 14 .cfa: sp 0 +
STACK CFI INIT 2878c 6c .cfa: sp 0 +
STACK CFI 28790 .cfa: sp 32 +
STACK CFI 28798 .cfa: x29 32 + x19: .cfa -16 + ^ .ra: .cfa -24 + ^ x29: .cfa -32 + ^
STACK CFI 287e0 .cfa: sp 32 +
STACK CFI 287e8 .cfa: sp 0 +
STACK CFI 287ec .cfa: sp 32 +
STACK CFI 287f4 .cfa: sp 0 +
STACK CFI INIT 287f8 68 .cfa: sp 0 +
STACK CFI 287fc .cfa: sp 32 +
STACK CFI 28804 .cfa: x29 32 + x19: .cfa -16 + ^ .ra: .cfa -24 + ^ x29: .cfa -32 + ^
STACK CFI 28854 .cfa: sp 32 +
STACK CFI 2885c .cfa: sp 0 +
STACK CFI INIT 28860 c .cfa: sp 0 +
STACK CFI INIT 2886c 24 .cfa: sp 0 +
STACK CFI INIT 28890 4 .cfa: sp 0 +
STACK CFI INIT 28894 4 .cfa: sp 0 +
STACK CFI INIT 28898 14 .cfa: sp 0 +
STACK CFI INIT 288f8 22c .cfa: sp 0 +
STACK CFI 288fc .cfa: sp 64 +
STACK CFI 2890c .cfa: x29 64 + x19: .cfa -8 + ^ x20: .cfa -16 + ^ x21: .cfa -24 + ^ x22: .cfa -32 + ^ x23: .cfa -40 + ^ x24: .cfa -48 + ^ .ra: .cfa -56 + ^ x29: .cfa -64 + ^
STACK CFI 289b8 .cfa: sp 64 +
STACK CFI 289c8 .cfa: sp 0 +
STACK CFI 289cc .cfa: x29 64 +
STACK CFI 28a0c .cfa: sp 64 +
STACK CFI 28a1c .cfa: sp 0 +
STACK CFI 28a20 .cfa: x29 64 +
STACK CFI 28a24 .cfa: sp 64 +
STACK CFI 28a34 .cfa: sp 0 +
STACK CFI 28a38 .cfa: x29 64 +
STACK CFI 28b08 .cfa: sp 64 +
STACK CFI 28b18 .cfa: sp 0 +
STACK CFI 28b1c .cfa: x29 64 +
STACK CFI INIT 28b24 270 .cfa: sp 0 +
STACK CFI 28b28 .cfa: sp 32 +
STACK CFI 28b30 .cfa: x29 32 + x19: .cfa -16 + ^ .ra: .cfa -24 + ^ x29: .cfa -32 + ^
STACK CFI 28b68 .cfa: sp 32 +
STACK CFI 28b70 .cfa: sp 0 +
STACK CFI 28b74 .cfa: x29 32 +
STACK CFI 28cbc .cfa: sp 32 +
STACK CFI 28cc4 .cfa: sp 0 +
STACK CFI 28cc8 .cfa: x29 32 +
STACK CFI 28d04 .cfa: sp 32 +
STACK CFI 28d0c .cfa: sp 0 +
STACK CFI 28d10 .cfa: x29 32 +
STACK CFI 28d84 .cfa: sp 32 +
STACK CFI 28d8c .cfa: sp 0 +
STACK CFI 28d90 .cfa: x29 32 +
STACK CFI INIT 28d94 11c .cfa: sp 0 +
STACK CFI 28d98 .cfa: sp 32 +
STACK CFI 28da0 .cfa: x29 32 + x19: .cfa -8 + ^ x20: .cfa -16 + ^ .ra: .cfa -24 + ^ x29: .cfa -32 + ^
STACK CFI 28dc0 .cfa: sp 32 +
STACK CFI 28dc8 .cfa: sp 0 +
STACK CFI 28dcc .cfa: x29 32 +
STACK CFI 28e3c .cfa: sp 32 +
STACK CFI 28e44 .cfa: sp 0 +
STACK CFI 28e48 .cfa: x29 32 +
STACK CFI 28e8c .cfa: sp 32 +
STACK CFI 28e94 .cfa: sp 0 +
STACK CFI 28e98 .cfa: x29 32 +
STACK CFI 28ea4 .cfa: sp 32 +
STACK CFI 28eac .cfa: sp 0 +
STACK CFI INIT 28eb0 2c .cfa: sp 0 +
STACK CFI INIT 28edc 48 .cfa: sp 0 +
STACK CFI 28ef8 .cfa: sp 32 +
STACK CFI 28f00 .cfa: x29 32 + x19: .cfa -16 + ^ .ra: .cfa -24 + ^ x29: .cfa -32 + ^
STACK CFI 28f18 .cfa: sp 32 +
STACK CFI 28f20 .cfa: sp 0 +
STACK CFI INIT 28f24 40 .cfa: sp 0 +
STACK CFI INIT 28f64 60 .cfa: sp 0 +
STACK CFI 28f68 .cfa: sp 16 +
STACK CFI 28f6c .cfa: x29 16 + .ra: .cfa -8 + ^ x29: .cfa -16 + ^
STACK CFI 28fac .cfa: sp 16 +
STACK CFI 28fb0 .cfa: sp 0 +
STACK CFI 28fb4 .cfa: x29 16 +
STACK CFI 28fb8 .cfa: sp 16 +
STACK CFI 28fbc .cfa: sp 0 +
STACK CFI 28fc0 .cfa: x29 16 +
STACK CFI INIT 28fc4 1fc .cfa: sp 0 +
STACK CFI 28fc8 .cfa: sp 80 +
STACK CFI 28fdc .cfa: x29 80 + x19: .cfa -8 + ^ x20: .cfa -16 + ^ x21: .cfa -24 + ^ x22: .cfa -32 + ^ x23: .cfa -40 + ^ x24: .cfa -48 + ^ x25: .cfa -64 + ^ .ra: .cfa -72 + ^ x29: .cfa -80 + ^
STACK CFI 29188 .cfa: sp 80 +
STACK CFI 2919c .cfa: sp 0 +
STACK CFI 291a0 .cfa: x29 80 +
STACK CFI 291a4 .cfa: sp 80 +
STACK CFI 291b8 .cfa: sp 0 +
STACK CFI 291bc .cfa: x29 80 +
STACK CFI INIT 291c0 140 .cfa: sp 0 +
STACK CFI 291c4 .cfa: sp 48 +
STACK CFI 291d0 .cfa: x29 48 + x19: .cfa -8 + ^ x20: .cfa -16 + ^ x21: .cfa -32 + ^ .ra: .cfa -40 + ^ x29: .cfa -48 + ^
STACK CFI 29228 .cfa: sp 48 +
STACK CFI 29234 .cfa: sp 0 +
STACK CFI 29238 .cfa: x29 48 +
STACK CFI 29298 .cfa: sp 48 +
STACK CFI 292a4 .cfa: sp 0 +
STACK CFI 292a8 .cfa: x29 48 +
STACK CFI 292b4 .cfa: sp 48 +
STACK CFI 292c0 .cfa: sp 0 +
STACK CFI 292c4 .cfa: x29 48 +
STACK CFI 292f0 .cfa: sp 48 +
STACK CFI 292fc .cfa: sp 0 +
STACK CFI INIT 29300 d8 .cfa: sp 0 +
STACK CFI 29304 .cfa: sp 32 +
STACK CFI 2930c .cfa: x29 32 + x19: .cfa -16 + ^ .ra: .cfa -24 + ^ x29: .cfa -32 + ^
STACK CFI 2937c .cfa: sp 32 +
STACK CFI 29384 .cfa: sp 0 +
STACK CFI 29388 .cfa: x29 32 +
STACK CFI 293a0 .cfa: sp 32 +
STACK CFI 293a8 .cfa: sp 0 +
STACK CFI 293ac .cfa: x29 32 +
STACK CFI 293cc .cfa: sp 32 +
STACK CFI 293d4 .cfa: sp 0 +
STACK CFI INIT 29ab0 50 .cfa: sp 0 +
STACK CFI 29ab4 .cfa: sp 32 +
STACK CFI 29abc .cfa: x29 32 + x19: .cfa -16 + ^ .ra: .cfa -24 + ^ x29: .cfa -32 + ^
STACK CFI 29ad4 .cfa: sp 32 +
STACK CFI 29adc .cfa: sp 0 +
STACK CFI 29ae0 .cfa: x29 32 +
STACK CFI 29af4 .cfa: sp 32 +
STACK CFI 29afc .cfa: sp 0 +
STACK CFI INIT 29b74 4 .cfa: sp 0 +
STACK CFI INIT 29ccc 34 .cfa: sp 0 +
STACK CFI 29cd0 .cfa: sp 16 +
STACK CFI 29cd4 .cfa: x29 16 + .ra: .cfa -8 + ^ x29: .cfa -16 + ^
STACK CFI INIT 29e2c 80 .cfa: sp 0 +
STACK CFI 29e30 .cfa: sp 48 +
STACK CFI 29e3c .cfa: x29 48 + x19: .cfa -8 + ^ x20: .cfa -16 + ^ x21: .cfa -32 + ^ .ra: .cfa -40 + ^ x29: .cfa -48 + ^
STACK CFI 29e9c .cfa: sp 48 +
STACK CFI 29ea8 .cfa: sp 0 +
STACK CFI INIT 29eac 24 .cfa: sp 0 +
STACK CFI 29eb0 .cfa: sp 32 +
STACK CFI 29eb8 .cfa: x29 32 + x19: .cfa -16 + ^ .ra: .cfa -24 + ^ x29: .cfa -32 + ^
STACK CFI 29ec4 .cfa: sp 32 +
STACK CFI 29ecc .cfa: sp 0 +
STACK CFI INIT 2a3c8 148 .cfa: sp 0 +
STACK CFI 2a3cc .cfa: sp 48 +
STACK CFI 2a3d8 .cfa: x29 48 + x19: .cfa -8 + ^ x20: .cfa -16 + ^ x21: .cfa -32 + ^ .ra: .cfa -40 + ^ x29: .cfa -48 + ^
STACK CFI 2a500 .cfa: sp 48 +
STACK CFI 2a50c .cfa: sp 0 +
STACK CFI INIT 2a510 4 .cfa: sp 0 +
STACK CFI INIT 2a514 14 .cfa: sp 0 +
STACK CFI INIT 2a528 120 .cfa: sp 0 +
STACK CFI 2a52c .cfa: sp 64 +
STACK CFI 2a53c .cfa: x29 64 + x19: .cfa -8 + ^ x20: .cfa -16 + ^ x21: .cfa -24 + ^ x22: .cfa -32 + ^ x23: .cfa -40 + ^ x24: .cfa -48 + ^ .ra: .cfa -56 + ^ x29: .cfa -64 + ^
STACK CFI 2a634 .cfa: sp 64 +
STACK CFI 2a644 .cfa: sp 0 +
STACK CFI INIT 2a648 d4 .cfa: sp 0 +
STACK CFI 2a64c .cfa: sp 48 +
STACK CFI 2a658 .cfa: x29 48 + x19: .cfa -8 + ^ x20: .cfa -16 + ^ x21: .cfa -32 + ^ .ra: .cfa -40 + ^ x29: .cfa -48 + ^
STACK CFI 2a6e8 .cfa: sp 48 +
STACK CFI 2a6f4 .cfa: sp 0 +
STACK CFI 2a6f8 .cfa: x29 48 +
STACK CFI INIT 2a71c 3c8 .cfa: sp 0 +
STACK CFI INIT 2aae4 8c .cfa: sp 0 +
STACK CFI 2aaec .cfa: sp 32 +
STACK CFI 2aaf4 .cfa: x29 32 + x19: .cfa -8 + ^ x20: .cfa -16 + ^ .ra: .cfa -24 + ^ x29: .cfa -32 + ^
STACK CFI 2ab3c .cfa: sp 32 +
STACK CFI 2ab44 .cfa: sp 0 +
STACK CFI 2ab4c .cfa: x29 32 +
STACK CFI INIT 2aed4 50 .cfa: sp 0 +
STACK CFI 2aed8 .cfa: sp 32 +
STACK CFI 2aee0 .cfa: x29 32 + x19: .cfa -16 + ^ .ra: .cfa -24 + ^ x29: .cfa -32 + ^
STACK CFI 2aef8 .cfa: sp 32 +
STACK CFI 2af00 .cfa: sp 0 +
STACK CFI 2af04 .cfa: x29 32 +
STACK CFI 2af18 .cfa: sp 32 +
STACK CFI 2af20 .cfa: sp 0 +
STACK CFI INIT 2af24 64 .cfa: sp 0 +
STACK CFI 2af28 .cfa: sp 32 +
STACK CFI 2af30 .cfa: x29 32 + x19: .cfa -16 + ^ .ra: .cfa -24 + ^ x29: .cfa -32 + ^
STACK CFI 2af5c .cfa: sp 32 +
STACK CFI 2af64 .cfa: sp 0 +
STACK CFI 2af68 .cfa: x29 32 +
STACK CFI 2af7c .cfa: sp 32 +
STACK CFI 2af84 .cfa: sp 0 +
STACK CFI INIT 2af88 14 .cfa: sp 0 +
STACK CFI 2af8c .cfa: sp 16 +
STACK CFI 2af90 .cfa: x29 16 + .ra: .cfa -8 + ^ x29: .cfa -16 + ^
STACK CFI INIT 2cc94 d4 .cfa: sp 0 +
STACK CFI 2cc98 .cfa: sp 48 +
STACK CFI 2cca4 .cfa: x29 48 + x19: .cfa -8 + ^ x20: .cfa -16 + ^ x21: .cfa -24 + ^ x22: .cfa -32 + ^ .ra: .cfa -40 + ^ x29: .cfa -48 + ^
STACK CFI 2cd00 .cfa: sp 48 +
STACK CFI 2cd0c .cfa: sp 0 +
STACK CFI 2cd10 .cfa: x29 48 +
STACK CFI INIT 2cd68 14 .cfa: sp 0 +
STACK CFI 2cd6c .cfa: sp 16 +
STACK CFI 2cd70 .cfa: x29 16 + .ra: .cfa -8 + ^ x29: .cfa -16 + ^
STACK CFI INIT 2cfa8 14 .cfa: sp 0 +
STACK CFI 2cfac .cfa: sp 16 +
STACK CFI 2cfb0 .cfa: x29 16 + .ra: .cfa -8 + ^ x29: .cfa -16 + ^
STACK CFI INIT 2cfbc 14 .cfa: sp 0 +
STACK CFI 2cfc0 .cfa: sp 16 +
STACK CFI 2cfc4 .cfa: x29 16 + .ra: .cfa -8 + ^ x29: .cfa -16 + ^
STACK CFI INIT 2d020 30 .cfa: sp 0 +
STACK CFI 2d024 .cfa: sp 32 +
STACK CFI 2d02c .cfa: x29 32 + x19: .cfa -16 + ^ .ra: .cfa -24 + ^ x29: .cfa -32 + ^
STACK CFI 2d044 .cfa: sp 32 +
STACK CFI 2d04c .cfa: sp 0 +
STACK CFI INIT 2d050 14 .cfa: sp 0 +
STACK CFI 2d054 .cfa: sp 16 +
STACK CFI 2d058 .cfa: x29 16 + .ra: .cfa -8 + ^ x29: .cfa -16 + ^
STACK CFI INIT 2d064 78 .cfa: sp 0 +
STACK CFI 2d070 .cfa: sp 48 +
STACK CFI 2d07c .cfa: x29 48 + x19: .cfa -8 + ^ x20: .cfa -16 + ^ x21: .cfa -32 + ^ .ra: .cfa -40 + ^ x29: .cfa -48 + ^
STACK CFI 2d0a0 .cfa: sp 48 +
STACK CFI 2d0ac .cfa: sp 0 +
STACK CFI 2d0b0 .cfa: x29 48 +
STACK CFI INIT 2d0dc 4 .cfa: sp 0 +
STACK CFI INIT 2d0e0 4 .cfa: sp 0 +
STACK CFI INIT 2d0e4 38 .cfa: sp 0 +
STACK CFI 2d0e8 .cfa: sp 32 +
STACK CFI 2d0f0 .cfa: x29 32 + x19: .cfa -16 + ^ .ra: .cfa -24 + ^ x29: .cfa -32 + ^
STACK CFI 2d110 .cfa: sp 32 +
STACK CFI 2d118 .cfa: sp 0 +
STACK CFI INIT 2d11c 18 .cfa: sp 0 +
STACK CFI INIT 2d134 4 .cfa: sp 0 +
STACK CFI INIT 2d138 4 .cfa: sp 0 +
STACK CFI INIT 2d13c 10 .cfa: sp 0 +
STACK CFI INIT 2d14c 1c .cfa: sp 0 +
STACK CFI INIT 2d168 c .cfa: sp 0 +
STACK CFI INIT 2d174 320 .cfa: sp 0 +
STACK CFI 2d178 .cfa: sp 48 +
STACK CFI 2d184 .cfa: x29 48 + x19: .cfa -8 + ^ x20: .cfa -16 + ^ x21: .cfa -32 + ^ .ra: .cfa -40 + ^ x29: .cfa -48 + ^
STACK CFI 2d190 .cfa: sp 48 +
STACK CFI 2d19c .cfa: sp 0 +
STACK CFI 2d1a0 .cfa: x29 48 +
STACK CFI 2d484 .cfa: sp 48 +
STACK CFI 2d490 .cfa: sp 0 +
STACK CFI INIT 2dc1c 3e0 .cfa: sp 0 +
STACK CFI 2dc20 .cfa: sp 128 +
STACK CFI 2dc3c .cfa: x29 96 + x19: .cfa -8 + ^ x20: .cfa -16 + ^ x21: .cfa -24 + ^ x22: .cfa -32 + ^ x23: .cfa -40 + ^ x24: .cfa -48 + ^ x25: .cfa -56 + ^ x26: .cfa -64 + ^ x27: .cfa -72 + ^ x28: .cfa -80 + ^ .ra: .cfa -88 + ^ x29: .cfa -96 + ^
STACK CFI 2dfd4 .cfa: sp 128 +
STACK CFI 2dff0 .cfa: sp 0 +
STACK CFI 2dff4 .cfa: x29 96 +
STACK CFI INIT 2e218 26c .cfa: sp 0 +
STACK CFI 2e21c .cfa: sp 80 +
STACK CFI 2e230 .cfa: x29 80 + x19: .cfa -8 + ^ x20: .cfa -16 + ^ x21: .cfa -24 + ^ x22: .cfa -32 + ^ x23: .cfa -40 + ^ x24: .cfa -48 + ^ x25: .cfa -64 + ^ .ra: .cfa -72 + ^ x29: .cfa -80 + ^
STACK CFI 2e364 .cfa: sp 80 +
STACK CFI 2e378 .cfa: sp 0 +
STACK CFI 2e37c .cfa: x29 80 +
STACK CFI 2e46c .cfa: sp 80 +
STACK CFI 2e480 .cfa: sp 0 +
STACK CFI INIT 2e484 1d0 .cfa: sp 0 +
STACK CFI 2e488 .cfa: sp 64 +
STACK CFI 2e498 .cfa: x29 64 + x19: .cfa -8 + ^ x20: .cfa -16 + ^ x21: .cfa -24 + ^ x22: .cfa -32 + ^ x23: .cfa -40 + ^ x24: .cfa -48 + ^ .ra: .cfa -56 + ^ x29: .cfa -64 + ^
STACK CFI 2e640 .cfa: sp 64 +
STACK CFI 2e650 .cfa: sp 0 +
STACK CFI INIT 2f5d4 168 .cfa: sp 0 +
STACK CFI 2f5d8 .cfa: sp 64 +
STACK CFI 2f5e8 .cfa: x29 64 + x19: .cfa -8 + ^ x20: .cfa -16 + ^ x21: .cfa -24 + ^ x22: .cfa -32 + ^ x23: .cfa -48 + ^ .ra: .cfa -56 + ^ x29: .cfa -64 + ^
STACK CFI 2f728 .cfa: sp 64 +
STACK CFI 2f738 .cfa: sp 0 +
STACK CFI INIT 2f73c 7c .cfa: sp 0 +
STACK CFI 2f740 .cfa: sp 48 +
STACK CFI 2f74c .cfa: x29 48 + x19: .cfa -8 + ^ x20: .cfa -16 + ^ x21: .cfa -32 + ^ .ra: .cfa -40 + ^ x29: .cfa -48 + ^
STACK CFI 2f798 .cfa: sp 48 +
STACK CFI 2f7a4 .cfa: sp 0 +
STACK CFI 2f7a8 .cfa: sp 48 +
STACK CFI 2f7b4 .cfa: sp 0 +
STACK CFI INIT 2fda8 188 .cfa: sp 0 +
STACK CFI 2fdac .cfa: sp 80 +
STACK CFI 2fdc0 .cfa: x29 80 + x19: .cfa -8 + ^ x20: .cfa -16 + ^ x21: .cfa -24 + ^ x22: .cfa -32 + ^ x23: .cfa -40 + ^ x24: .cfa -48 + ^ x25: .cfa -64 + ^ .ra: .cfa -72 + ^ x29: .cfa -80 + ^
STACK CFI 2ff14 .cfa: sp 80 +
STACK CFI 2ff28 .cfa: sp 0 +
STACK CFI 2ff2c .cfa: x29 80 +
STACK CFI INIT 2ff30 18c .cfa: sp 0 +
STACK CFI 2ff34 .cfa: sp 64 +
STACK CFI 2ff44 .cfa: x29 64 + x19: .cfa -8 + ^ x20: .cfa -16 + ^ x21: .cfa -24 + ^ x22: .cfa -32 + ^ x23: .cfa -40 + ^ x24: .cfa -48 + ^ .ra: .cfa -56 + ^ x29: .cfa -64 + ^
STACK CFI 300a4 .cfa: sp 64 +
STACK CFI 300b4 .cfa: sp 0 +
STACK CFI 300b8 .cfa: x29 64 +
STACK CFI INIT 304b4 18c .cfa: sp 0 +
STACK CFI 304b8 .cfa: sp 64 +
STACK CFI 304c8 .cfa: x29 64 + x19: .cfa -8 + ^ x20: .cfa -16 + ^ x21: .cfa -24 + ^ x22: .cfa -32 + ^ x23: .cfa -40 + ^ x24: .cfa -48 + ^ .ra: .cfa -56 + ^ x29: .cfa -64 + ^
STACK CFI 30628 .cfa: sp 64 +
STACK CFI 30638 .cfa: sp 0 +
STACK CFI 3063c .cfa: x29 64 +
STACK CFI INIT 30640 238 .cfa: sp 0 +
STACK CFI 30644 .cfa: sp 64 +
STACK CFI 30654 .cfa: x29 64 + x19: .cfa -8 + ^ x20: .cfa -16 + ^ x21: .cfa -24 + ^ x22: .cfa -32 + ^ x23: .cfa -48 + ^ .ra: .cfa -56 + ^ x29: .cfa -64 + ^
STACK CFI 3074c .cfa: sp 64 +
STACK CFI 3075c .cfa: sp 0 +
STACK CFI 30760 .cfa: x29 64 +
STACK CFI 307e4 .cfa: sp 64 +
STACK CFI 307f4 .cfa: sp 0 +
STACK CFI 307f8 .cfa: x29 64 +
STACK CFI 3082c .cfa: sp 64 +
STACK CFI 3083c .cfa: sp 0 +
STACK CFI 30840 .cfa: x29 64 +
STACK CFI 30844 .cfa: sp 64 +
STACK CFI 30854 .cfa: sp 0 +
STACK CFI 30858 .cfa: x29 64 +
STACK CFI 3085c .cfa: sp 64 +
STACK CFI 3086c .cfa: sp 0 +
STACK CFI 30870 .cfa: x29 64 +
STACK CFI INIT 30878 308 .cfa: sp 0 +
STACK CFI 3087c .cfa: sp 64 +
STACK CFI 3088c .cfa: x29 64 + x19: .cfa -8 + ^ x20: .cfa -16 + ^ x21: .cfa -24 + ^ x22: .cfa -32 + ^ x23: .cfa -48 + ^ .ra: .cfa -56 + ^ x29: .cfa -64 + ^
STACK CFI 30940 .cfa: sp 64 +
STACK CFI 30950 .cfa: sp 0 +
STACK CFI 30954 .cfa: x29 64 +
STACK CFI 309bc .cfa: sp 64 +
STACK CFI 309cc .cfa: sp 0 +
STACK CFI 309d0 .cfa: x29 64 +
STACK CFI 30a00 .cfa: sp 64 +
STACK CFI 30a10 .cfa: sp 0 +
STACK CFI 30a14 .cfa: x29 64 +
STACK CFI 30a18 .cfa: sp 64 +
STACK CFI 30a28 .cfa: sp 0 +
STACK CFI 30a2c .cfa: x29 64 +
STACK CFI INIT 30b80 198 .cfa: sp 0 +
STACK CFI 30b84 .cfa: sp 64 +
STACK CFI 30b94 .cfa: x29 64 + x19: .cfa -8 + ^ x20: .cfa -16 + ^ x21: .cfa -24 + ^ x22: .cfa -32 + ^ x23: .cfa -48 + ^ .ra: .cfa -56 + ^ x29: .cfa -64 + ^
STACK CFI 30ce8 .cfa: sp 64 +
STACK CFI 30cf8 .cfa: sp 0 +
STACK CFI 30cfc .cfa: sp 64 +
STACK CFI 30d0c .cfa: sp 0 +
STACK CFI 30d10 .cfa: x29 64 +
STACK CFI INIT 30d18 14 .cfa: sp 0 +
STACK CFI 30d1c .cfa: sp 16 +
STACK CFI 30d20 .cfa: x29 16 + .ra: .cfa -8 + ^ x29: .cfa -16 + ^
STACK CFI INIT 30d2c 128 .cfa: sp 0 +
STACK CFI 30d30 .cfa: sp 80 +
STACK CFI 30d44 .cfa: x29 80 + x19: .cfa -8 + ^ x20: .cfa -16 + ^ x21: .cfa -24 + ^ x22: .cfa -32 + ^ x23: .cfa -40 + ^ x24: .cfa -48 + ^ x25: .cfa -64 + ^ .ra: .cfa -72 + ^ x29: .cfa -80 + ^
STACK CFI 30e34 .cfa: sp 80 +
STACK CFI 30e48 .cfa: sp 0 +
STACK CFI 30e4c .cfa: x29 80 +
STACK CFI INIT 30e54 178 .cfa: sp 0 +
STACK CFI 30e58 .cfa: sp 80 +
STACK CFI 30e6c .cfa: x29 80 + x19: .cfa -8 + ^ x20: .cfa -16 + ^ x21: .cfa -24 + ^ x22: .cfa -32 + ^ x23: .cfa -40 + ^ x24: .cfa -48 + ^ x25: .cfa -56 + ^ x26: .cfa -64 + ^ .ra: .cfa -72 + ^ x29: .cfa -80 + ^
STACK CFI 30fb4 .cfa: sp 80 +
STACK CFI 30fc8 .cfa: sp 0 +
STACK CFI INIT 30fcc 1b0 .cfa: sp 0 +
STACK CFI INIT 3117c 7c .cfa: sp 0 +
STACK CFI 31180 .cfa: sp 48 +
STACK CFI 3118c .cfa: x29 48 + x19: .cfa -8 + ^ x20: .cfa -16 + ^ x21: .cfa -32 + ^ .ra: .cfa -40 + ^ x29: .cfa -48 + ^
STACK CFI 311e8 .cfa: sp 48 +
STACK CFI 311f4 .cfa: sp 0 +
STACK CFI INIT 31770 1c .cfa: sp 0 +
STACK CFI INIT 31c0c 1c .cfa: sp 0 +
STACK CFI INIT 31c28 54 .cfa: sp 0 +
STACK CFI INIT 325d0 4 .cfa: sp 0 +
STACK CFI INIT 325d4 4 .cfa: sp 0 +
STACK CFI INIT 325d8 9c .cfa: sp 0 +
STACK CFI 325dc .cfa: sp 48 +
STACK CFI 325e8 .cfa: x29 48 + x19: .cfa -8 + ^ x20: .cfa -16 + ^ x21: .cfa -24 + ^ x22: .cfa -32 + ^ .ra: .cfa -40 + ^ x29: .cfa -48 + ^
STACK CFI 3261c .cfa: sp 48 +
STACK CFI 32628 .cfa: sp 0 +
STACK CFI 3262c .cfa: x29 48 +
STACK CFI 3265c .cfa: sp 48 +
STACK CFI 32668 .cfa: sp 0 +
STACK CFI 3266c .cfa: x29 48 +
STACK CFI INIT 327a8 38 .cfa: sp 0 +
STACK CFI 327ac .cfa: sp 32 +
STACK CFI 327b4 .cfa: x29 32 + x19: .cfa -16 + ^ .ra: .cfa -24 + ^ x29: .cfa -32 + ^
STACK CFI 327d4 .cfa: sp 32 +
STACK CFI 327dc .cfa: sp 0 +
STACK CFI INIT 327e0 134 .cfa: sp 0 +
STACK CFI 327e4 .cfa: sp 32 +
STACK CFI 327ec .cfa: x29 32 + x19: .cfa -16 + ^ .ra: .cfa -24 + ^ x29: .cfa -32 + ^
STACK CFI 32908 .cfa: sp 32 +
STACK CFI 32910 .cfa: sp 0 +
STACK CFI INIT 32914 c8 .cfa: sp 0 +
STACK CFI 32918 .cfa: sp 48 +
STACK CFI 32924 .cfa: x29 48 + x19: .cfa -8 + ^ x20: .cfa -16 + ^ x21: .cfa -32 + ^ .ra: .cfa -40 + ^ x29: .cfa -48 + ^
STACK CFI 32984 .cfa: sp 48 +
STACK CFI 32990 .cfa: sp 0 +
STACK CFI 32994 .cfa: x29 48 +
STACK CFI 329b0 .cfa: sp 48 +
STACK CFI 329bc .cfa: sp 0 +
STACK CFI 329c0 .cfa: x29 48 +
STACK CFI 329cc .cfa: sp 48 +
STACK CFI 329d8 .cfa: sp 0 +
STACK CFI INIT 33848 78 .cfa: sp 0 +
STACK CFI 3384c .cfa: sp 48 +
STACK CFI 33858 .cfa: x29 48 + x19: .cfa -8 + ^ x20: .cfa -16 + ^ x21: .cfa -32 + ^ .ra: .cfa -40 + ^ x29: .cfa -48 + ^
STACK CFI 338a0 .cfa: sp 48 +
STACK CFI 338ac .cfa: sp 0 +
STACK CFI 338b0 .cfa: sp 48 +
STACK CFI 338bc .cfa: sp 0 +
STACK CFI INIT 338c0 78 .cfa: sp 0 +
STACK CFI 338c4 .cfa: sp 48 +
STACK CFI 338d0 .cfa: x29 48 + x19: .cfa -8 + ^ x20: .cfa -16 + ^ x21: .cfa -32 + ^ .ra: .cfa -40 + ^ x29: .cfa -48 + ^
STACK CFI 33918 .cfa: sp 48 +
STACK CFI 33924 .cfa: sp 0 +
STACK CFI 33928 .cfa: sp 48 +
STACK CFI 33934 .cfa: sp 0 +
STACK CFI INIT 33938 84 .cfa: sp 0 +
STACK CFI 3393c .cfa: sp 48 +
STACK CFI 33948 .cfa: x29 48 + x19: .cfa -8 + ^ x20: .cfa -16 + ^ x21: .cfa -24 + ^ x22: .cfa -32 + ^ .ra: .cfa -40 + ^ x29: .cfa -48 + ^
STACK CFI 3399c .cfa: sp 48 +
STACK CFI 339a8 .cfa: sp 0 +
STACK CFI 339ac .cfa: sp 48 +
STACK CFI 339b8 .cfa: sp 0 +
STACK CFI INIT 339d8 8c .cfa: sp 0 +
STACK CFI 339dc .cfa: sp 48 +
STACK CFI 339e8 .cfa: x29 48 + x19: .cfa -8 + ^ x20: .cfa -16 + ^ x21: .cfa -24 + ^ x22: .cfa -32 + ^ .ra: .cfa -40 + ^ x29: .cfa -48 + ^
STACK CFI 33a20 .cfa: sp 48 +
STACK CFI 33a2c .cfa: sp 0 +
STACK CFI 33a30 .cfa: x29 48 +
STACK CFI 33a54 .cfa: sp 48 +
STACK CFI 33a60 .cfa: sp 0 +
STACK CFI INIT 33a64 78 .cfa: sp 0 +
STACK CFI 33a68 .cfa: sp 48 +
STACK CFI 33a74 .cfa: x29 48 + x19: .cfa -8 + ^ x20: .cfa -16 + ^ x21: .cfa -32 + ^ .ra: .cfa -40 + ^ x29: .cfa -48 + ^
STACK CFI 33abc .cfa: sp 48 +
STACK CFI 33ac8 .cfa: sp 0 +
STACK CFI 33acc .cfa: sp 48 +
STACK CFI 33ad8 .cfa: sp 0 +
STACK CFI INIT 33adc 8c .cfa: sp 0 +
STACK CFI 33ae0 .cfa: sp 48 +
STACK CFI 33aec .cfa: x29 48 + x19: .cfa -8 + ^ x20: .cfa -16 + ^ x21: .cfa -24 + ^ x22: .cfa -32 + ^ .ra: .cfa -40 + ^ x29: .cfa -48 + ^
STACK CFI 33b24 .cfa: sp 48 +
STACK CFI 33b30 .cfa: sp 0 +
STACK CFI 33b34 .cfa: x29 48 +
STACK CFI 33b58 .cfa: sp 48 +
STACK CFI 33b64 .cfa: sp 0 +
STACK CFI INIT 33b68 78 .cfa: sp 0 +
STACK CFI 33b6c .cfa: sp 48 +
STACK CFI 33b78 .cfa: x29 48 + x19: .cfa -8 + ^ x20: .cfa -16 + ^ x21: .cfa -32 + ^ .ra: .cfa -40 + ^ x29: .cfa -48 + ^
STACK CFI 33bc0 .cfa: sp 48 +
STACK CFI 33bcc .cfa: sp 0 +
STACK CFI 33bd0 .cfa: sp 48 +
STACK CFI 33bdc .cfa: sp 0 +
STACK CFI INIT 33be0 104 .cfa: sp 0 +
STACK CFI 33be4 .cfa: sp 64 +
STACK CFI 33bf4 .cfa: x29 64 + x19: .cfa -8 + ^ x20: .cfa -16 + ^ x21: .cfa -24 + ^ x22: .cfa -32 + ^ x23: .cfa -48 + ^ .ra: .cfa -56 + ^ x29: .cfa -64 + ^
STACK CFI 33cbc .cfa: sp 64 +
STACK CFI 33ccc .cfa: sp 0 +
STACK CFI 33cd0 .cfa: sp 64 +
STACK CFI 33ce0 .cfa: sp 0 +
STACK CFI INIT 340dc 78 .cfa: sp 0 +
STACK CFI 340e0 .cfa: sp 48 +
STACK CFI 340ec .cfa: x29 48 + x19: .cfa -8 + ^ x20: .cfa -16 + ^ x21: .cfa -32 + ^ .ra: .cfa -40 + ^ x29: .cfa -48 + ^
STACK CFI 34134 .cfa: sp 48 +
STACK CFI 34140 .cfa: sp 0 +
STACK CFI 34144 .cfa: sp 48 +
STACK CFI 34150 .cfa: sp 0 +
STACK CFI INIT 34170 90 .cfa: sp 0 +
STACK CFI 34174 .cfa: sp 48 +
STACK CFI 34180 .cfa: x29 48 + x19: .cfa -8 + ^ x20: .cfa -16 + ^ x21: .cfa -24 + ^ x22: .cfa -32 + ^ .ra: .cfa -40 + ^ x29: .cfa -48 + ^
STACK CFI 341b8 .cfa: sp 48 +
STACK CFI 341c4 .cfa: sp 0 +
STACK CFI 341c8 .cfa: x29 48 +
STACK CFI 341f0 .cfa: sp 48 +
STACK CFI 341fc .cfa: sp 0 +
STACK CFI INIT 34298 3c .cfa: sp 0 +
STACK CFI 3429c .cfa: sp 32 +
STACK CFI 342a4 .cfa: x29 32 + x19: .cfa -16 + ^ .ra: .cfa -24 + ^ x29: .cfa -32 + ^
STACK CFI 342bc .cfa: sp 32 +
STACK CFI 342c4 .cfa: sp 0 +
STACK CFI 342c8 .cfa: sp 32 +
STACK CFI 342d0 .cfa: sp 0 +
STACK CFI INIT 3430c 78 .cfa: sp 0 +
STACK CFI 34310 .cfa: sp 48 +
STACK CFI 3431c .cfa: x29 48 + x19: .cfa -8 + ^ x20: .cfa -16 + ^ x21: .cfa -32 + ^ .ra: .cfa -40 + ^ x29: .cfa -48 + ^
STACK CFI 34364 .cfa: sp 48 +
STACK CFI 34370 .cfa: sp 0 +
STACK CFI 34374 .cfa: sp 48 +
STACK CFI 34380 .cfa: sp 0 +
STACK CFI INIT 34384 78 .cfa: sp 0 +
STACK CFI 34388 .cfa: sp 48 +
STACK CFI 34394 .cfa: x29 48 + x19: .cfa -8 + ^ x20: .cfa -16 + ^ x21: .cfa -32 + ^ .ra: .cfa -40 + ^ x29: .cfa -48 + ^
STACK CFI 343dc .cfa: sp 48 +
STACK CFI 343e8 .cfa: sp 0 +
STACK CFI 343ec .cfa: sp 48 +
STACK CFI 343f8 .cfa: sp 0 +
STACK CFI INIT 343fc 78 .cfa: sp 0 +
STACK CFI 34400 .cfa: sp 48 +
STACK CFI 3440c .cfa: x29 48 + x19: .cfa -8 + ^ x20: .cfa -16 + ^ x21: .cfa -32 + ^ .ra: .cfa -40 + ^ x29: .cfa -48 + ^
STACK CFI 34454 .cfa: sp 48 +
STACK CFI 34460 .cfa: sp 0 +
STACK CFI 34464 .cfa: sp 48 +
STACK CFI 34470 .cfa: sp 0 +
STACK CFI INIT 34474 78 .cfa: sp 0 +
STACK CFI 34478 .cfa: sp 48 +
STACK CFI 34484 .cfa: x29 48 + x19: .cfa -8 + ^ x20: .cfa -16 + ^ x21: .cfa -32 + ^ .ra: .cfa -40 + ^ x29: .cfa -48 + ^
STACK CFI 344cc .cfa: sp 48 +
STACK CFI 344d8 .cfa: sp 0 +
STACK CFI 344dc .cfa: sp 48 +
STACK CFI 344e8 .cfa: sp 0 +
STACK CFI INIT 346b8 2b8 .cfa: sp 0 +
STACK CFI 346bc .cfa: sp 80 +
STACK CFI 346d0 .cfa: x29 80 + x19: .cfa -8 + ^ x20: .cfa -16 + ^ x21: .cfa -24 + ^ x22: .cfa -32 + ^ x23: .cfa -40 + ^ x24: .cfa -48 + ^ x25: .cfa -64 + ^ .ra: .cfa -72 + ^ x29: .cfa -80 + ^
STACK CFI 3487c .cfa: sp 80 +
STACK CFI 34890 .cfa: sp 0 +
STACK CFI 34894 .cfa: x29 80 +
STACK CFI 34958 .cfa: sp 80 +
STACK CFI 3496c .cfa: sp 0 +
STACK CFI INIT 34970 80 .cfa: sp 0 +
STACK CFI 34974 .cfa: sp 48 +
STACK CFI 34980 .cfa: x29 48 + x19: .cfa -8 + ^ x20: .cfa -16 + ^ x21: .cfa -32 + ^ .ra: .cfa -40 + ^ x29: .cfa -48 + ^
STACK CFI 349d0 .cfa: sp 48 +
STACK CFI 349dc .cfa: sp 0 +
STACK CFI 349e0 .cfa: sp 48 +
STACK CFI 349ec .cfa: sp 0 +
STACK CFI INIT 349f0 80 .cfa: sp 0 +
STACK CFI 349f4 .cfa: sp 48 +
STACK CFI 34a00 .cfa: x29 48 + x19: .cfa -8 + ^ x20: .cfa -16 + ^ x21: .cfa -32 + ^ .ra: .cfa -40 + ^ x29: .cfa -48 + ^
STACK CFI 34a50 .cfa: sp 48 +
STACK CFI 34a5c .cfa: sp 0 +
STACK CFI 34a60 .cfa: sp 48 +
STACK CFI 34a6c .cfa: sp 0 +
STACK CFI INIT 34c10 2b8 .cfa: sp 0 +
STACK CFI INIT 34ec8 1bc .cfa: sp 0 +
STACK CFI 34ecc .cfa: sp 64 +
STACK CFI 34edc .cfa: x29 64 + x19: .cfa -8 + ^ x20: .cfa -16 + ^ x21: .cfa -24 + ^ x22: .cfa -32 + ^ x23: .cfa -48 + ^ .ra: .cfa -56 + ^ x29: .cfa -64 + ^
STACK CFI 34fe0 .cfa: sp 64 +
STACK CFI 34ff0 .cfa: sp 0 +
STACK CFI 34ff4 .cfa: x29 64 +
STACK CFI INIT 35084 80 .cfa: sp 0 +
STACK CFI 35088 .cfa: sp 48 +
STACK CFI 35094 .cfa: x29 48 + x19: .cfa -8 + ^ x20: .cfa -16 + ^ x21: .cfa -32 + ^ .ra: .cfa -40 + ^ x29: .cfa -48 + ^
STACK CFI 350e4 .cfa: sp 48 +
STACK CFI 350f0 .cfa: sp 0 +
STACK CFI 350f4 .cfa: sp 48 +
STACK CFI 35100 .cfa: sp 0 +
STACK CFI INIT 35104 98 .cfa: sp 0 +
STACK CFI 3510c .cfa: sp 48 +
STACK CFI 35118 .cfa: x29 48 + x19: .cfa -8 + ^ x20: .cfa -16 + ^ x21: .cfa -32 + ^ .ra: .cfa -40 + ^ x29: .cfa -48 + ^
STACK CFI 35168 .cfa: sp 0 + x19: x19 x20: x20 x21: x21 .ra: x30 x29: x29
STACK CFI 3516c .cfa: x29 48 + x19: .cfa -8 + ^ x20: .cfa -16 + ^ x21: .cfa -32 + ^ .ra: .cfa -40 + ^ x29: .cfa -48 + ^
STACK CFI 3518c .cfa: sp 48 +
STACK CFI 35198 .cfa: sp 0 +
STACK CFI INIT 3519c 54 .cfa: sp 0 +
STACK CFI 351a4 .cfa: sp 32 +
STACK CFI 351ac .cfa: x29 32 + x19: .cfa -8 + ^ x20: .cfa -16 + ^ .ra: .cfa -24 + ^ x29: .cfa -32 + ^
STACK CFI 351e4 .cfa: sp 32 +
STACK CFI 351ec .cfa: sp 0 +
STACK CFI INIT 351f0 54 .cfa: sp 0 +
STACK CFI 351f8 .cfa: sp 32 +
STACK CFI 35200 .cfa: x29 32 + x19: .cfa -8 + ^ x20: .cfa -16 + ^ .ra: .cfa -24 + ^ x29: .cfa -32 + ^
STACK CFI 35238 .cfa: sp 32 +
STACK CFI 35240 .cfa: sp 0 +
STACK CFI INIT 352ec 54 .cfa: sp 0 +
STACK CFI 352f4 .cfa: sp 32 +
STACK CFI 352fc .cfa: x29 32 + x19: .cfa -8 + ^ x20: .cfa -16 + ^ .ra: .cfa -24 + ^ x29: .cfa -32 + ^
STACK CFI 35334 .cfa: sp 32 +
STACK CFI 3533c .cfa: sp 0 +
STACK CFI INIT 35340 a8 .cfa: sp 0 +
STACK CFI 35348 .cfa: sp 48 +
STACK CFI 35354 .cfa: x29 48 + x19: .cfa -8 + ^ x20: .cfa -16 + ^ x21: .cfa -24 + ^ x22: .cfa -32 + ^ .ra: .cfa -40 + ^ x29: .cfa -48 + ^
STACK CFI 353d8 .cfa: sp 48 +
STACK CFI 353e4 .cfa: sp 0 +
STACK CFI INIT 353e8 54 .cfa: sp 0 +
STACK CFI 353f0 .cfa: sp 32 +
STACK CFI 353f8 .cfa: x29 32 + x19: .cfa -8 + ^ x20: .cfa -16 + ^ .ra: .cfa -24 + ^ x29: .cfa -32 + ^
STACK CFI 35430 .cfa: sp 32 +
STACK CFI 35438 .cfa: sp 0 +
STACK CFI INIT 38f70 98 .cfa: sp 0 +
STACK CFI 38f74 .cfa: sp 304 +
STACK CFI 38f80 .cfa: x29 32 + x19: .cfa -8 + ^ x28: .cfa -16 + ^ .ra: .cfa -24 + ^ x29: .cfa -32 + ^
STACK CFI 38ff4 .cfa: sp 304 +
STACK CFI 39000 .cfa: sp 0 +
STACK CFI 39004 .cfa: x29 32 +
STACK CFI INIT 39008 ac .cfa: sp 0 +
STACK CFI 3900c .cfa: sp 96 +
STACK CFI 39020 .cfa: x29 64 + x19: .cfa -8 + ^ x20: .cfa -16 + ^ x21: .cfa -24 + ^ x22: .cfa -32 + ^ x23: .cfa -48 + ^ .ra: .cfa -56 + ^ x29: .cfa -64 + ^
STACK CFI 39098 .cfa: sp 96 +
STACK CFI 390ac .cfa: sp 0 +
STACK CFI 390b0 .cfa: x29 64 +
STACK CFI INIT 39384 120 .cfa: sp 0 +
STACK CFI 39388 .cfa: sp 64 +
STACK CFI 39398 .cfa: x29 64 + x19: .cfa -8 + ^ x20: .cfa -16 + ^ x21: .cfa -24 + ^ x22: .cfa -32 + ^ x23: .cfa -48 + ^ .ra: .cfa -56 + ^ x29: .cfa -64 + ^
STACK CFI 39420 .cfa: sp 64 +
STACK CFI 39430 .cfa: sp 0 +
STACK CFI 39434 .cfa: x29 64 +
STACK CFI 3945c .cfa: sp 64 +
STACK CFI 3946c .cfa: sp 0 +
STACK CFI 39470 .cfa: x29 64 +
STACK CFI 3948c .cfa: sp 64 +
STACK CFI 3949c .cfa: sp 0 +
STACK CFI 394a0 .cfa: x29 64 +
STACK CFI INIT 3b854 50 .cfa: sp 0 +
STACK CFI 3b87c .cfa: sp 16 +
STACK CFI 3b880 .cfa: x29 16 + .ra: .cfa -8 + ^ x29: .cfa -16 + ^
STACK CFI 3b89c .cfa: sp 16 +
STACK CFI 3b8a0 .cfa: sp 0 +
STACK CFI INIT 3bb18 1c .cfa: sp 0 +
STACK CFI INIT 3c658 1d8 .cfa: sp 0 +
STACK CFI 3c65c .cfa: sp 192 +
STACK CFI 3c66c .cfa: x29 48 + x19: .cfa -8 + ^ x20: .cfa -16 + ^ x21: .cfa -32 + ^ .ra: .cfa -40 + ^ x29: .cfa -48 + ^
STACK CFI 3c750 .cfa: sp 192 +
STACK CFI 3c760 .cfa: sp 0 +
STACK CFI 3c764 .cfa: x29 48 +
STACK CFI INIT 3e19c ac .cfa: sp 0 +
STACK CFI 3e1a0 .cfa: sp 48 +
STACK CFI 3e1ac .cfa: x29 48 + x19: .cfa -8 + ^ x20: .cfa -16 + ^ x21: .cfa -24 + ^ x22: .cfa -32 + ^ .ra: .cfa -40 + ^ x29: .cfa -48 + ^
STACK CFI 3e1f4 .cfa: sp 48 +
STACK CFI 3e200 .cfa: sp 0 +
STACK CFI 3e204 .cfa: x29 48 +
STACK CFI 3e234 .cfa: sp 48 +
STACK CFI 3e240 .cfa: sp 0 +
STACK CFI 3e244 .cfa: x29 48 +
STACK CFI INIT 3e248 d8 .cfa: sp 0 +
STACK CFI 3e24c .cfa: sp 48 +
STACK CFI 3e258 .cfa: x29 48 + x19: .cfa -8 + ^ x20: .cfa -16 + ^ x21: .cfa -32 + ^ .ra: .cfa -40 + ^ x29: .cfa -48 + ^
STACK CFI 3e28c .cfa: sp 48 +
STACK CFI 3e298 .cfa: sp 0 +
STACK CFI 3e29c .cfa: x29 48 +
STACK CFI 3e2f8 .cfa: sp 48 +
STACK CFI 3e304 .cfa: sp 0 +
STACK CFI 3e308 .cfa: x29 48 +
STACK CFI INIT 3e320 8c .cfa: sp 0 +
STACK CFI 3e324 .cfa: sp 48 +
STACK CFI 3e330 .cfa: x29 48 + x19: .cfa -8 + ^ x20: .cfa -16 + ^ x21: .cfa -24 + ^ x22: .cfa -32 + ^ .ra: .cfa -40 + ^ x29: .cfa -48 + ^
STACK CFI 3e338 .cfa: sp 48 +
STACK CFI 3e344 .cfa: sp 0 +
STACK CFI 3e348 .cfa: x29 48 +
STACK CFI 3e39c .cfa: sp 48 +
STACK CFI 3e3a8 .cfa: sp 0 +
STACK CFI INIT 3e3ac 2d4 .cfa: sp 0 +
STACK CFI 3e3b0 .cfa: sp 192 +
STACK CFI 3e3c8 .cfa: x29 80 + x19: .cfa -8 + ^ x20: .cfa -16 + ^ x21: .cfa -24 + ^ x22: .cfa -32 + ^ x23: .cfa -40 + ^ x24: .cfa -48 + ^ x25: .cfa -56 + ^ x26: .cfa -64 + ^ .ra: .cfa -72 + ^ x29: .cfa -80 + ^
STACK CFI 3e4ac .cfa: sp 192 +
STACK CFI 3e4c4 .cfa: sp 0 +
STACK CFI 3e4c8 .cfa: x29 80 +
STACK CFI INIT 3eb50 26c .cfa: sp 0 +
STACK CFI 3eb54 .cfa: sp 112 +
STACK CFI 3eb70 .cfa: x29 96 + x19: .cfa -8 + ^ x20: .cfa -16 + ^ x21: .cfa -24 + ^ x22: .cfa -32 + ^ x23: .cfa -40 + ^ x24: .cfa -48 + ^ x25: .cfa -56 + ^ x26: .cfa -64 + ^ x27: .cfa -72 + ^ x28: .cfa -80 + ^ .ra: .cfa -88 + ^ x29: .cfa -96 + ^
STACK CFI 3ed9c .cfa: sp 112 +
STACK CFI 3edb8 .cfa: sp 0 +
STACK CFI INIT 3edbc 188 .cfa: sp 0 +
STACK CFI 3edc0 .cfa: sp 64 +
STACK CFI 3edd0 .cfa: x29 64 + x19: .cfa -8 + ^ x20: .cfa -16 + ^ x21: .cfa -24 + ^ x22: .cfa -32 + ^ x23: .cfa -48 + ^ .ra: .cfa -56 + ^ x29: .cfa -64 + ^
STACK CFI 3ef10 .cfa: sp 64 +
STACK CFI 3ef20 .cfa: sp 0 +
STACK CFI 3ef24 .cfa: x29 64 +
STACK CFI 3ef2c .cfa: sp 64 +
STACK CFI 3ef3c .cfa: sp 0 +
STACK CFI 3ef40 .cfa: x29 64 +
STACK CFI INIT 3ef44 170 .cfa: sp 0 +
STACK CFI 3ef48 .cfa: sp 96 +
STACK CFI 3ef60 .cfa: x29 96 + x19: .cfa -8 + ^ x20: .cfa -16 + ^ x21: .cfa -24 + ^ x22: .cfa -32 + ^ x23: .cfa -40 + ^ x24: .cfa -48 + ^ x25: .cfa -56 + ^ x26: .cfa -64 + ^ x27: .cfa -80 + ^ .ra: .cfa -88 + ^ x29: .cfa -96 + ^
STACK CFI 3f094 .cfa: sp 96 +
STACK CFI 3f0ac .cfa: sp 0 +
STACK CFI 3f0b0 .cfa: x29 96 +
STACK CFI INIT 3fa90 400 .cfa: sp 0 +
STACK CFI 3fa94 .cfa: sp 32 +
STACK CFI 3fa9c .cfa: x29 32 + x19: .cfa -16 + ^ .ra: .cfa -24 + ^ x29: .cfa -32 + ^
STACK CFI 3fb04 .cfa: sp 32 +
STACK CFI 3fb0c .cfa: sp 0 +
STACK CFI 3fb10 .cfa: x29 32 +
STACK CFI 3fbe0 .cfa: sp 32 +
STACK CFI 3fbe8 .cfa: sp 0 +
STACK CFI 3fbec .cfa: x29 32 +
STACK CFI 3fc28 .cfa: sp 32 +
STACK CFI 3fc30 .cfa: sp 0 +
STACK CFI 3fc34 .cfa: x29 32 +
STACK CFI 3fc60 .cfa: sp 32 +
STACK CFI 3fc68 .cfa: sp 0 +
STACK CFI 3fc6c .cfa: x29 32 +
STACK CFI 3fc88 .cfa: sp 32 +
STACK CFI 3fc90 .cfa: sp 0 +
STACK CFI 3fc94 .cfa: x29 32 +
STACK CFI 3fcf8 .cfa: sp 32 +
STACK CFI 3fd00 .cfa: sp 0 +
STACK CFI 3fd04 .cfa: x29 32 +
STACK CFI 3fd68 .cfa: sp 32 +
STACK CFI 3fd70 .cfa: sp 0 +
STACK CFI 3fd74 .cfa: x29 32 +
STACK CFI 3fe44 .cfa: sp 32 +
STACK CFI 3fe4c .cfa: sp 0 +
STACK CFI 3fe50 .cfa: x29 32 +
STACK CFI 3fe7c .cfa: sp 32 +
STACK CFI 3fe84 .cfa: sp 0 +
STACK CFI 3fe88 .cfa: x29 32 +
STACK CFI INIT 40a50 518 .cfa: sp 0 +
STACK CFI 40a54 .cfa: sp 32 +
STACK CFI 40a5c .cfa: x29 32 + x19: .cfa -16 + ^ .ra: .cfa -24 + ^ x29: .cfa -32 + ^
STACK CFI 40bb0 .cfa: sp 32 +
STACK CFI 40bb8 .cfa: sp 0 +
STACK CFI 40bbc .cfa: x29 32 +
STACK CFI 40d2c .cfa: sp 32 +
STACK CFI 40d34 .cfa: sp 0 +
STACK CFI 40d38 .cfa: x29 32 +
STACK CFI 40d54 .cfa: sp 32 +
STACK CFI 40d5c .cfa: sp 0 +
STACK CFI 40d60 .cfa: x29 32 +
STACK CFI 40dbc .cfa: sp 32 +
STACK CFI 40dc4 .cfa: sp 0 +
STACK CFI 40dc8 .cfa: x29 32 +
STACK CFI 40de4 .cfa: sp 32 +
STACK CFI 40dec .cfa: sp 0 +
STACK CFI 40df0 .cfa: x29 32 +
STACK CFI 40e0c .cfa: sp 32 +
STACK CFI 40e14 .cfa: sp 0 +
STACK CFI 40e18 .cfa: x29 32 +
STACK CFI 40e34 .cfa: sp 32 +
STACK CFI 40e3c .cfa: sp 0 +
STACK CFI 40e40 .cfa: x29 32 +
STACK CFI 40e58 .cfa: sp 32 +
STACK CFI 40e60 .cfa: sp 0 +
STACK CFI 40e64 .cfa: x29 32 +
STACK CFI 40e80 .cfa: sp 32 +
STACK CFI 40e88 .cfa: sp 0 +
STACK CFI 40e8c .cfa: x29 32 +
STACK CFI 40ea8 .cfa: sp 32 +
STACK CFI 40eb0 .cfa: sp 0 +
STACK CFI 40eb4 .cfa: x29 32 +
STACK CFI 40ed0 .cfa: sp 32 +
STACK CFI 40ed8 .cfa: sp 0 +
STACK CFI 40edc .cfa: x29 32 +
STACK CFI 40f30 .cfa: sp 32 +
STACK CFI 40f38 .cfa: sp 0 +
STACK CFI 40f3c .cfa: x29 32 +
STACK CFI 40f58 .cfa: sp 32 +
STACK CFI 40f60 .cfa: sp 0 +
STACK CFI 40f64 .cfa: x29 32 +
STACK CFI INIT 40f68 1d8 .cfa: sp 0 +
STACK CFI 40f6c .cfa: sp 32 +
STACK CFI 40f74 .cfa: x29 32 + x19: .cfa -16 + ^ .ra: .cfa -24 + ^ x29: .cfa -32 + ^
STACK CFI 40fac .cfa: sp 32 +
STACK CFI 40fb4 .cfa: sp 0 +
STACK CFI 40fb8 .cfa: x29 32 +
STACK CFI 40fe0 .cfa: sp 32 +
STACK CFI 40fe8 .cfa: sp 0 +
STACK CFI 40fec .cfa: x29 32 +
STACK CFI 4101c .cfa: sp 32 +
STACK CFI 41024 .cfa: sp 0 +
STACK CFI 41028 .cfa: x29 32 +
STACK CFI 41058 .cfa: sp 32 +
STACK CFI 41060 .cfa: sp 0 +
STACK CFI 41064 .cfa: x29 32 +
STACK CFI 4107c .cfa: sp 32 +
STACK CFI 41084 .cfa: sp 0 +
STACK CFI 41088 .cfa: x29 32 +
STACK CFI 410a4 .cfa: sp 32 +
STACK CFI 410ac .cfa: sp 0 +
STACK CFI 410b0 .cfa: x29 32 +
STACK CFI 410c0 .cfa: sp 32 +
STACK CFI 410c8 .cfa: sp 0 +
STACK CFI 410cc .cfa: x29 32 +
STACK CFI 410dc .cfa: sp 32 +
STACK CFI 410e4 .cfa: sp 0 +
STACK CFI 410e8 .cfa: x29 32 +
STACK CFI 410ec .cfa: sp 32 +
STACK CFI 410f4 .cfa: sp 0 +
STACK CFI 410f8 .cfa: x29 32 +
STACK CFI 4110c .cfa: sp 32 +
STACK CFI 41114 .cfa: sp 0 +
STACK CFI 41118 .cfa: x29 32 +
STACK CFI 41130 .cfa: sp 32 +
STACK CFI 41138 .cfa: sp 0 +
STACK CFI 4113c .cfa: x29 32 +
STACK CFI INIT 41140 4c4 .cfa: sp 0 +
STACK CFI 41144 .cfa: sp 32 +
STACK CFI 4114c .cfa: x29 32 + x19: .cfa -16 + ^ .ra: .cfa -24 + ^ x29: .cfa -32 + ^
STACK CFI 411a0 .cfa: sp 32 +
STACK CFI 411a8 .cfa: sp 0 +
STACK CFI 411ac .cfa: x29 32 +
STACK CFI 411ec .cfa: sp 32 +
STACK CFI 411f4 .cfa: sp 0 +
STACK CFI 411f8 .cfa: x29 32 +
STACK CFI 41228 .cfa: sp 32 +
STACK CFI 41230 .cfa: sp 0 +
STACK CFI 41234 .cfa: x29 32 +
STACK CFI 41264 .cfa: sp 32 +
STACK CFI 4126c .cfa: sp 0 +
STACK CFI 41270 .cfa: x29 32 +
STACK CFI 41280 .cfa: sp 32 +
STACK CFI 41288 .cfa: sp 0 +
STACK CFI 4128c .cfa: x29 32 +
STACK CFI 412ac .cfa: sp 32 +
STACK CFI 412b4 .cfa: sp 0 +
STACK CFI 412b8 .cfa: x29 32 +
STACK CFI 412d8 .cfa: sp 32 +
STACK CFI 412e0 .cfa: sp 0 +
STACK CFI 412e4 .cfa: x29 32 +
STACK CFI 41304 .cfa: sp 32 +
STACK CFI 4130c .cfa: sp 0 +
STACK CFI 41310 .cfa: x29 32 +
STACK CFI 41330 .cfa: sp 32 +
STACK CFI 41338 .cfa: sp 0 +
STACK CFI 4133c .cfa: x29 32 +
STACK CFI 413c0 .cfa: sp 32 +
STACK CFI 413c8 .cfa: sp 0 +
STACK CFI 413cc .cfa: x29 32 +
STACK CFI 413dc .cfa: sp 32 +
STACK CFI 413e4 .cfa: sp 0 +
STACK CFI 413e8 .cfa: x29 32 +
STACK CFI 413f8 .cfa: sp 32 +
STACK CFI 41400 .cfa: sp 0 +
STACK CFI 41404 .cfa: x29 32 +
STACK CFI 41414 .cfa: sp 32 +
STACK CFI 4141c .cfa: sp 0 +
STACK CFI 41420 .cfa: x29 32 +
STACK CFI 41430 .cfa: sp 32 +
STACK CFI 41438 .cfa: sp 0 +
STACK CFI 4143c .cfa: x29 32 +
STACK CFI 4144c .cfa: sp 32 +
STACK CFI 41454 .cfa: sp 0 +
STACK CFI 41458 .cfa: x29 32 +
STACK CFI 41468 .cfa: sp 32 +
STACK CFI 41470 .cfa: sp 0 +
STACK CFI 41474 .cfa: x29 32 +
STACK CFI 41484 .cfa: sp 32 +
STACK CFI 4148c .cfa: sp 0 +
STACK CFI 41490 .cfa: x29 32 +
STACK CFI 414b4 .cfa: sp 32 +
STACK CFI 414bc .cfa: sp 0 +
STACK CFI 414c0 .cfa: x29 32 +
STACK CFI 414d8 .cfa: sp 32 +
STACK CFI 414e0 .cfa: sp 0 +
STACK CFI 414e4 .cfa: x29 32 +
STACK CFI 414fc .cfa: sp 32 +
STACK CFI 41504 .cfa: sp 0 +
STACK CFI 41508 .cfa: x29 32 +
STACK CFI 41520 .cfa: sp 32 +
STACK CFI 41528 .cfa: sp 0 +
STACK CFI 4152c .cfa: x29 32 +
STACK CFI 41544 .cfa: sp 32 +
STACK CFI 4154c .cfa: sp 0 +
STACK CFI 41550 .cfa: x29 32 +
STACK CFI 41568 .cfa: sp 32 +
STACK CFI 41570 .cfa: sp 0 +
STACK CFI 41574 .cfa: x29 32 +
STACK CFI 4158c .cfa: sp 32 +
STACK CFI 41594 .cfa: sp 0 +
STACK CFI 41598 .cfa: x29 32 +
STACK CFI 415b0 .cfa: sp 32 +
STACK CFI 415b8 .cfa: sp 0 +
STACK CFI 415bc .cfa: x29 32 +
STACK CFI 415d4 .cfa: sp 32 +
STACK CFI 415dc .cfa: sp 0 +
STACK CFI 415e0 .cfa: x29 32 +
STACK CFI 415f4 .cfa: sp 32 +
STACK CFI 415fc .cfa: sp 0 +
STACK CFI 41600 .cfa: x29 32 +
STACK CFI INIT 4190c 334 .cfa: sp 0 +
STACK CFI 41910 .cfa: sp 64 +
STACK CFI 41920 .cfa: x29 64 + x19: .cfa -8 + ^ x20: .cfa -16 + ^ x21: .cfa -24 + ^ x22: .cfa -32 + ^ x23: .cfa -40 + ^ x24: .cfa -48 + ^ .ra: .cfa -56 + ^ x29: .cfa -64 + ^
STACK CFI 419f0 .cfa: sp 64 +
STACK CFI 41a00 .cfa: sp 0 +
STACK CFI 41a04 .cfa: x29 64 +
STACK CFI 41a74 .cfa: sp 64 +
STACK CFI 41a84 .cfa: sp 0 +
STACK CFI 41a88 .cfa: x29 64 +
STACK CFI 41ac8 .cfa: sp 64 +
STACK CFI 41ad8 .cfa: sp 0 +
STACK CFI 41adc .cfa: x29 64 +
STACK CFI 41aec .cfa: sp 64 +
STACK CFI 41afc .cfa: sp 0 +
STACK CFI 41b00 .cfa: x29 64 +
STACK CFI 41b40 .cfa: sp 64 +
STACK CFI 41b50 .cfa: sp 0 +
STACK CFI 41b54 .cfa: x29 64 +
STACK CFI 41c24 .cfa: sp 64 +
STACK CFI 41c34 .cfa: sp 0 +
STACK CFI 41c38 .cfa: x29 64 +
STACK CFI INIT 41c40 274 .cfa: sp 0 +
STACK CFI 41c44 .cfa: sp 32 +
STACK CFI 41c4c .cfa: x29 32 + x19: .cfa -16 + ^ .ra: .cfa -24 + ^ x29: .cfa -32 + ^
STACK CFI 41c84 .cfa: sp 32 +
STACK CFI 41c8c .cfa: sp 0 +
STACK CFI 41c90 .cfa: x29 32 +
STACK CFI 41ddc .cfa: sp 32 +
STACK CFI 41de4 .cfa: sp 0 +
STACK CFI 41de8 .cfa: x29 32 +
STACK CFI 41e24 .cfa: sp 32 +
STACK CFI 41e2c .cfa: sp 0 +
STACK CFI 41e30 .cfa: x29 32 +
STACK CFI 41ea4 .cfa: sp 32 +
STACK CFI 41eac .cfa: sp 0 +
STACK CFI 41eb0 .cfa: x29 32 +
STACK CFI INIT 41eb4 2fc .cfa: sp 0 +
STACK CFI 41eb8 .cfa: sp 80 +
STACK CFI 41ecc .cfa: x29 80 + x19: .cfa -8 + ^ x20: .cfa -16 + ^ x21: .cfa -24 + ^ x22: .cfa -32 + ^ x23: .cfa -40 + ^ x24: .cfa -48 + ^ x25: .cfa -64 + ^ .ra: .cfa -72 + ^ x29: .cfa -80 + ^
STACK CFI 42178 .cfa: sp 80 +
STACK CFI 4218c .cfa: sp 0 +
STACK CFI 42190 .cfa: x29 80 +
STACK CFI 42194 .cfa: sp 80 +
STACK CFI 421a8 .cfa: sp 0 +
STACK CFI 421ac .cfa: x29 80 +
STACK CFI INIT 421b0 d0 .cfa: sp 0 +
STACK CFI 421b4 .cfa: sp 32 +
STACK CFI 421bc .cfa: x29 32 + x19: .cfa -16 + ^ .ra: .cfa -24 + ^ x29: .cfa -32 + ^
STACK CFI 42228 .cfa: sp 32 +
STACK CFI 42230 .cfa: sp 0 +
STACK CFI 42234 .cfa: x29 32 +
STACK CFI 4224c .cfa: sp 32 +
STACK CFI 42254 .cfa: sp 0 +
STACK CFI 42258 .cfa: x29 32 +
STACK CFI 42274 .cfa: sp 32 +
STACK CFI 4227c .cfa: sp 0 +
STACK CFI INIT 42280 34 .cfa: sp 0 +
STACK CFI 42284 .cfa: sp 32 +
STACK CFI 4228c .cfa: x29 32 + x19: .cfa -8 + ^ x20: .cfa -16 + ^ .ra: .cfa -24 + ^ x29: .cfa -32 + ^
STACK CFI 422a8 .cfa: sp 32 +
STACK CFI 422b0 .cfa: sp 0 +
STACK CFI INIT 422b4 14 .cfa: sp 0 +
STACK CFI 422b8 .cfa: sp 16 +
STACK CFI 422bc .cfa: x29 16 + .ra: .cfa -8 + ^ x29: .cfa -16 + ^
STACK CFI INIT 42e30 50 .cfa: sp 0 +
STACK CFI 42e34 .cfa: sp 32 +
STACK CFI 42e3c .cfa: x29 32 + x19: .cfa -16 + ^ .ra: .cfa -24 + ^ x29: .cfa -32 + ^
STACK CFI 42e54 .cfa: sp 32 +
STACK CFI 42e5c .cfa: sp 0 +
STACK CFI 42e60 .cfa: x29 32 +
STACK CFI 42e74 .cfa: sp 32 +
STACK CFI 42e7c .cfa: sp 0 +
STACK CFI INIT 43188 4 .cfa: sp 0 +
STACK CFI INIT 4359c 9c .cfa: sp 0 +
STACK CFI INIT 43638 14 .cfa: sp 0 +
STACK CFI INIT 4364c 8 .cfa: sp 0 +
STACK CFI INIT 43654 4 .cfa: sp 0 +
STACK CFI INIT 43658 4 .cfa: sp 0 +
STACK CFI INIT 4365c 4 .cfa: sp 0 +
STACK CFI INIT 43660 24 .cfa: sp 0 +
STACK CFI 43664 .cfa: sp 16 +
STACK CFI 43668 .cfa: x29 16 + .ra: .cfa -8 + ^ x29: .cfa -16 + ^
STACK CFI 4367c .cfa: sp 16 +
STACK CFI 43680 .cfa: sp 0 +
STACK CFI INIT 43684 10 .cfa: sp 0 +
STACK CFI INIT 43694 4 .cfa: sp 0 +
STACK CFI INIT 43698 4 .cfa: sp 0 +
STACK CFI INIT 43714 1c .cfa: sp 0 +
STACK CFI INIT 43730 c .cfa: sp 0 +
STACK CFI INIT 4373c 4 .cfa: sp 0 +
STACK CFI INIT 438b4 5c .cfa: sp 0 +
STACK CFI 438b8 .cfa: sp 32 +
STACK CFI 438c0 .cfa: x29 32 + x19: .cfa -16 + ^ .ra: .cfa -24 + ^ x29: .cfa -32 + ^
STACK CFI 43904 .cfa: sp 32 +
STACK CFI 4390c .cfa: sp 0 +
STACK CFI INIT 43910 64 .cfa: sp 0 +
STACK CFI 43914 .cfa: sp 32 +
STACK CFI 4391c .cfa: x29 32 + x19: .cfa -16 + ^ .ra: .cfa -24 + ^ x29: .cfa -32 + ^
STACK CFI 43968 .cfa: sp 32 +
STACK CFI 43970 .cfa: sp 0 +
STACK CFI INIT 43974 4 .cfa: sp 0 +
STACK CFI INIT 43978 4 .cfa: sp 0 +
STACK CFI INIT 4397c 34 .cfa: sp 0 +
STACK CFI 43980 .cfa: sp 32 +
STACK CFI 43988 .cfa: x29 32 + x19: .cfa -16 + ^ .ra: .cfa -24 + ^ x29: .cfa -32 + ^
STACK CFI 439a4 .cfa: sp 32 +
STACK CFI 439ac .cfa: sp 0 +
STACK CFI INIT 439b0 14 .cfa: sp 0 +
STACK CFI INIT 439c4 4 .cfa: sp 0 +
STACK CFI INIT 439c8 4 .cfa: sp 0 +
STACK CFI INIT 439cc 10 .cfa: sp 0 +
STACK CFI INIT 439dc 1c .cfa: sp 0 +
STACK CFI INIT 439f8 c .cfa: sp 0 +
STACK CFI INIT 4409c 1c .cfa: sp 0 +
STACK CFI INIT 444a4 4 .cfa: sp 0 +
STACK CFI INIT 444a8 b4 .cfa: sp 0 +
STACK CFI 444ac .cfa: sp 48 +
STACK CFI 444b8 .cfa: x29 48 + x19: .cfa -8 + ^ x20: .cfa -16 + ^ x21: .cfa -32 + ^ .ra: .cfa -40 + ^ x29: .cfa -48 + ^
STACK CFI 44504 .cfa: sp 48 +
STACK CFI 44510 .cfa: sp 0 +
STACK CFI 44514 .cfa: x29 48 +
STACK CFI 4454c .cfa: sp 48 +
STACK CFI 44558 .cfa: sp 0 +
STACK CFI INIT 4455c 3c .cfa: sp 0 +
STACK CFI 44560 .cfa: sp 32 +
STACK CFI 44568 .cfa: x29 32 + x19: .cfa -16 + ^ .ra: .cfa -24 + ^ x29: .cfa -32 + ^
STACK CFI 44574 .cfa: sp 32 +
STACK CFI 4457c .cfa: sp 0 +
STACK CFI 44580 .cfa: x29 32 +
STACK CFI 4458c .cfa: sp 32 +
STACK CFI 44594 .cfa: sp 0 +
STACK CFI INIT 44598 4c .cfa: sp 0 +
STACK CFI 4459c .cfa: sp 32 +
STACK CFI 445a4 .cfa: x29 32 + x19: .cfa -8 + ^ x20: .cfa -16 + ^ .ra: .cfa -24 + ^ x29: .cfa -32 + ^
STACK CFI 445cc .cfa: sp 32 +
STACK CFI 445d4 .cfa: sp 0 +
STACK CFI 445d8 .cfa: sp 32 +
STACK CFI 445e0 .cfa: sp 0 +
STACK CFI INIT 44804 64 .cfa: sp 0 +
STACK CFI 44808 .cfa: sp 32 +
STACK CFI 44810 .cfa: x29 32 + x19: .cfa -16 + ^ .ra: .cfa -24 + ^ x29: .cfa -32 + ^
STACK CFI 4483c .cfa: sp 32 +
STACK CFI 44844 .cfa: sp 0 +
STACK CFI 44848 .cfa: x29 32 +
STACK CFI 4485c .cfa: sp 32 +
STACK CFI 44864 .cfa: sp 0 +
STACK CFI INIT 44868 24 .cfa: sp 0 +
STACK CFI 4486c .cfa: sp 32 +
STACK CFI 44874 .cfa: x29 32 + x19: .cfa -16 + ^ .ra: .cfa -24 + ^ x29: .cfa -32 + ^
STACK CFI 44880 .cfa: sp 32 +
STACK CFI 44888 .cfa: sp 0 +
STACK CFI INIT 4488c 24 .cfa: sp 0 +
STACK CFI 44890 .cfa: sp 32 +
STACK CFI 44898 .cfa: x29 32 + x19: .cfa -16 + ^ .ra: .cfa -24 + ^ x29: .cfa -32 + ^
STACK CFI 448a4 .cfa: sp 32 +
STACK CFI 448ac .cfa: sp 0 +
STACK CFI INIT 448b0 8 .cfa: sp 0 +
STACK CFI INIT 448b8 24 .cfa: sp 0 +
STACK CFI 448bc .cfa: sp 32 +
STACK CFI 448c4 .cfa: x29 32 + x19: .cfa -16 + ^ .ra: .cfa -24 + ^ x29: .cfa -32 + ^
STACK CFI 448d0 .cfa: sp 32 +
STACK CFI 448d8 .cfa: sp 0 +
STACK CFI INIT 448dc 28 .cfa: sp 0 +
STACK CFI 448e0 .cfa: sp 32 +
STACK CFI 448e8 .cfa: x29 32 + x19: .cfa -16 + ^ .ra: .cfa -24 + ^ x29: .cfa -32 + ^
STACK CFI 448f8 .cfa: sp 32 +
STACK CFI 44900 .cfa: sp 0 +
STACK CFI INIT 45f4c 8 .cfa: sp 0 +
STACK CFI INIT 45f54 24 .cfa: sp 0 +
STACK CFI 45f58 .cfa: sp 32 +
STACK CFI 45f60 .cfa: x29 32 + x19: .cfa -16 + ^ .ra: .cfa -24 + ^ x29: .cfa -32 + ^
STACK CFI 45f6c .cfa: sp 32 +
STACK CFI 45f74 .cfa: sp 0 +
STACK CFI INIT 45f78 28 .cfa: sp 0 +
STACK CFI 45f7c .cfa: sp 32 +
STACK CFI 45f84 .cfa: x29 32 + x19: .cfa -16 + ^ .ra: .cfa -24 + ^ x29: .cfa -32 + ^
STACK CFI 45f94 .cfa: sp 32 +
STACK CFI 45f9c .cfa: sp 0 +
STACK CFI INIT 465b8 8 .cfa: sp 0 +
STACK CFI INIT 46ce8 8 .cfa: sp 0 +
STACK CFI INIT 47120 8 .cfa: sp 0 +
STACK CFI INIT 4737c 4 .cfa: sp 0 +
STACK CFI INIT 47380 8 .cfa: sp 0 +
STACK CFI INIT 47388 8 .cfa: sp 0 +
STACK CFI INIT 47390 4 .cfa: sp 0 +
STACK CFI INIT 485c4 8 .cfa: sp 0 +
STACK CFI INIT 485cc 24 .cfa: sp 0 +
STACK CFI 485d0 .cfa: sp 32 +
STACK CFI 485d8 .cfa: x29 32 + x19: .cfa -16 + ^ .ra: .cfa -24 + ^ x29: .cfa -32 + ^
STACK CFI 485e4 .cfa: sp 32 +
STACK CFI 485ec .cfa: sp 0 +
STACK CFI INIT 485f0 28 .cfa: sp 0 +
STACK CFI 485f4 .cfa: sp 32 +
STACK CFI 485fc .cfa: x29 32 + x19: .cfa -16 + ^ .ra: .cfa -24 + ^ x29: .cfa -32 + ^
STACK CFI 4860c .cfa: sp 32 +
STACK CFI 48614 .cfa: sp 0 +
STACK CFI INIT 4886c 8 .cfa: sp 0 +
STACK CFI INIT 48874 4 .cfa: sp 0 +
STACK CFI INIT 48878 4 .cfa: sp 0 +
STACK CFI INIT 4887c 4 .cfa: sp 0 +
STACK CFI INIT 48880 4 .cfa: sp 0 +
STACK CFI INIT 48884 4 .cfa: sp 0 +
STACK CFI INIT 49550 4 .cfa: sp 0 +
STACK CFI INIT 49554 14 .cfa: sp 0 +
STACK CFI INIT 49a48 c .cfa: sp 0 +
STACK CFI INIT 49a54 24c .cfa: sp 0 +
STACK CFI INIT 49ca0 a0 .cfa: sp 0 +
STACK CFI 49cac .cfa: sp 32 +
STACK CFI 49d04 .cfa: sp 0 +
STACK CFI 49d08 .cfa: sp 32 +
STACK CFI 49d10 .cfa: sp 0 +
STACK CFI 49d14 .cfa: sp 32 +
STACK CFI 49d28 .cfa: sp 0 +
STACK CFI 49d2c .cfa: sp 32 +
STACK CFI 49d3c .cfa: sp 0 +
STACK CFI INIT 49d40 38 .cfa: sp 0 +
STACK CFI 49d4c .cfa: sp 32 +
STACK CFI 49d74 .cfa: sp 0 +
STACK CFI INIT 4a00c 7c .cfa: sp 0 +
STACK CFI 4a010 .cfa: sp 32 +
STACK CFI 4a018 .cfa: x29 32 + x19: .cfa -16 + ^ .ra: .cfa -24 + ^ x29: .cfa -32 + ^
STACK CFI 4a044 .cfa: sp 32 +
STACK CFI 4a04c .cfa: sp 0 +
STACK CFI 4a050 .cfa: x29 32 +
STACK CFI 4a07c .cfa: sp 32 +
STACK CFI 4a084 .cfa: sp 0 +
STACK CFI INIT 4a0d8 2c .cfa: sp 0 +
STACK CFI 4a0dc .cfa: sp 32 +
STACK CFI 4a0e4 .cfa: x29 32 + x19: .cfa -16 + ^ .ra: .cfa -24 + ^ x29: .cfa -32 + ^
STACK CFI 4a0f8 .cfa: sp 32 +
STACK CFI 4a100 .cfa: sp 0 +
STACK CFI INIT 4a8c4 64 .cfa: sp 0 +
STACK CFI 4a8c8 .cfa: sp 32 +
STACK CFI 4a8d0 .cfa: x29 32 + x19: .cfa -16 + ^ .ra: .cfa -24 + ^ x29: .cfa -32 + ^
STACK CFI 4a8ec .cfa: sp 32 +
STACK CFI 4a8f4 .cfa: sp 0 +
STACK CFI 4a8f8 .cfa: x29 32 +
STACK CFI 4a91c .cfa: sp 32 +
STACK CFI 4a924 .cfa: sp 0 +
STACK CFI INIT 4aa64 570 .cfa: sp 0 +
STACK CFI 4aa68 .cfa: sp 176 +
STACK CFI 4aa7c .cfa: x29 64 + x19: .cfa -8 + ^ x20: .cfa -16 + ^ x21: .cfa -24 + ^ x22: .cfa -32 + ^ x23: .cfa -40 + ^ x24: .cfa -48 + ^ .ra: .cfa -56 + ^ x29: .cfa -64 + ^
STACK CFI 4acac .cfa: sp 176 +
STACK CFI 4acc0 .cfa: sp 0 +
STACK CFI 4acc4 .cfa: x29 64 +
STACK CFI 4ad10 .cfa: sp 176 +
STACK CFI 4ad24 .cfa: sp 0 +
STACK CFI 4ad28 .cfa: x29 64 +
STACK CFI 4ad60 .cfa: sp 176 +
STACK CFI 4ad74 .cfa: sp 0 +
STACK CFI 4ad78 .cfa: x29 64 +
STACK CFI 4ad90 .cfa: sp 176 +
STACK CFI 4ada4 .cfa: sp 0 +
STACK CFI 4ada8 .cfa: x29 64 +
STACK CFI 4adc8 .cfa: sp 176 +
STACK CFI 4addc .cfa: sp 0 +
STACK CFI 4ade0 .cfa: x29 64 +
STACK CFI 4adf8 .cfa: sp 176 +
STACK CFI 4ae0c .cfa: sp 0 +
STACK CFI 4ae10 .cfa: x29 64 +
STACK CFI 4ae24 .cfa: sp 176 +
STACK CFI 4ae38 .cfa: sp 0 +
STACK CFI 4ae3c .cfa: x29 64 +
STACK CFI 4ae50 .cfa: sp 176 +
STACK CFI 4ae64 .cfa: sp 0 +
STACK CFI 4ae68 .cfa: x29 64 +
STACK CFI 4ae78 .cfa: sp 176 +
STACK CFI 4ae8c .cfa: sp 0 +
STACK CFI 4ae90 .cfa: x29 64 +
STACK CFI 4aea0 .cfa: sp 176 +
STACK CFI 4aeb4 .cfa: sp 0 +
STACK CFI 4aeb8 .cfa: x29 64 +
STACK CFI 4aed0 .cfa: sp 176 +
STACK CFI 4aee4 .cfa: sp 0 +
STACK CFI 4aee8 .cfa: x29 64 +
STACK CFI 4aefc .cfa: sp 176 +
STACK CFI 4af10 .cfa: sp 0 +
STACK CFI 4af14 .cfa: x29 64 +
STACK CFI 4af2c .cfa: sp 176 +
STACK CFI 4af40 .cfa: sp 0 +
STACK CFI 4af44 .cfa: x29 64 +
STACK CFI 4af70 .cfa: sp 176 +
STACK CFI 4af84 .cfa: sp 0 +
STACK CFI 4af88 .cfa: x29 64 +
STACK CFI 4af9c .cfa: sp 176 +
STACK CFI 4afb0 .cfa: sp 0 +
STACK CFI 4afb4 .cfa: x29 64 +
STACK CFI INIT 4afd4 228 .cfa: sp 0 +
STACK CFI INIT 4b1fc 2dc .cfa: sp 0 +
STACK CFI INIT 4b4d8 53c .cfa: sp 0 +
STACK CFI INIT 4ba14 78 .cfa: sp 0 +
STACK CFI 4ba18 .cfa: sp 48 +
STACK CFI 4ba24 .cfa: x29 48 + x19: .cfa -8 + ^ x20: .cfa -16 + ^ x21: .cfa -24 + ^ x22: .cfa -32 + ^ .ra: .cfa -40 + ^ x29: .cfa -48 + ^
STACK CFI 4ba6c .cfa: sp 48 +
STACK CFI 4ba78 .cfa: sp 0 +
STACK CFI 4ba7c .cfa: sp 48 +
STACK CFI 4ba88 .cfa: sp 0 +
STACK CFI INIT 4ba8c 8c .cfa: sp 0 +
STACK CFI 4ba90 .cfa: sp 32 +
STACK CFI 4ba98 .cfa: x29 32 + x19: .cfa -16 + ^ .ra: .cfa -24 + ^ x29: .cfa -32 + ^
STACK CFI 4bacc .cfa: sp 32 +
STACK CFI 4bad4 .cfa: sp 0 +
STACK CFI 4bad8 .cfa: x29 32 +
STACK CFI 4bb0c .cfa: sp 32 +
STACK CFI 4bb14 .cfa: sp 0 +
STACK CFI INIT 4bb18 24 .cfa: sp 0 +
STACK CFI 4bb1c .cfa: sp 32 +
STACK CFI 4bb24 .cfa: x29 32 + x19: .cfa -16 + ^ .ra: .cfa -24 + ^ x29: .cfa -32 + ^
STACK CFI 4bb30 .cfa: sp 32 +
STACK CFI 4bb38 .cfa: sp 0 +
STACK CFI INIT 4bb3c 150 .cfa: sp 0 +
STACK CFI 4bb40 .cfa: sp 48 +
STACK CFI 4bb4c .cfa: x29 48 + x19: .cfa -8 + ^ x20: .cfa -16 + ^ x21: .cfa -24 + ^ x22: .cfa -32 + ^ .ra: .cfa -40 + ^ x29: .cfa -48 + ^
STACK CFI 4bc7c .cfa: sp 48 +
STACK CFI 4bc88 .cfa: sp 0 +
STACK CFI INIT 4bc8c 68 .cfa: sp 0 +
STACK CFI 4bc90 .cfa: sp 64 +
STACK CFI 4bc9c .cfa: x29 32 + x19: .cfa -16 + ^ .ra: .cfa -24 + ^ x29: .cfa -32 + ^
STACK CFI 4bce0 .cfa: sp 64 +
STACK CFI 4bcec .cfa: sp 0 +
STACK CFI 4bcf0 .cfa: x29 32 +
STACK CFI INIT 4bcf4 90 .cfa: sp 0 +
STACK CFI 4bcf8 .cfa: sp 32 +
STACK CFI 4bd00 .cfa: x29 32 + x19: .cfa -8 + ^ x20: .cfa -16 + ^ .ra: .cfa -24 + ^ x29: .cfa -32 + ^
STACK CFI 4bd2c .cfa: sp 32 +
STACK CFI 4bd34 .cfa: sp 0 +
STACK CFI 4bd38 .cfa: x29 32 +
STACK CFI 4bd78 .cfa: sp 32 +
STACK CFI 4bd80 .cfa: sp 0 +
STACK CFI INIT 4bd84 ec .cfa: sp 0 +
STACK CFI 4bd88 .cfa: sp 112 +
STACK CFI 4bd98 .cfa: x29 48 + x19: .cfa -8 + ^ x20: .cfa -16 + ^ x21: .cfa -32 + ^ .ra: .cfa -40 + ^ x29: .cfa -48 + ^
STACK CFI 4be58 .cfa: sp 112 +
STACK CFI 4be68 .cfa: sp 0 +
STACK CFI 4be6c .cfa: x29 48 +
STACK CFI INIT 4be70 ec .cfa: sp 0 +
STACK CFI 4be74 .cfa: sp 112 +
STACK CFI 4be84 .cfa: x29 48 + x19: .cfa -8 + ^ x20: .cfa -16 + ^ x21: .cfa -32 + ^ .ra: .cfa -40 + ^ x29: .cfa -48 + ^
STACK CFI 4bf44 .cfa: sp 112 +
STACK CFI 4bf54 .cfa: sp 0 +
STACK CFI 4bf58 .cfa: x29 48 +
STACK CFI INIT 4bf5c 48 .cfa: sp 0 +
STACK CFI 4bf60 .cfa: sp 32 +
STACK CFI 4bf68 .cfa: x29 32 + x19: .cfa -8 + ^ x20: .cfa -16 + ^ .ra: .cfa -24 + ^ x29: .cfa -32 + ^
STACK CFI 4bf8c .cfa: sp 32 +
STACK CFI 4bf94 .cfa: sp 0 +
STACK CFI 4bf98 .cfa: x29 32 +
STACK CFI INIT 4bfa4 98 .cfa: sp 0 +
STACK CFI 4bfa8 .cfa: sp 80 +
STACK CFI 4bfb4 .cfa: x29 32 + x19: .cfa -16 + ^ .ra: .cfa -24 + ^ x29: .cfa -32 + ^
STACK CFI 4c028 .cfa: sp 80 +
STACK CFI 4c034 .cfa: sp 0 +
STACK CFI 4c038 .cfa: x29 32 +
STACK CFI INIT 4c03c 260 .cfa: sp 0 +
STACK CFI 4c040 .cfa: sp 112 +
STACK CFI 4c058 .cfa: x29 80 + x19: .cfa -8 + ^ x20: .cfa -16 + ^ x21: .cfa -24 + ^ x22: .cfa -32 + ^ x23: .cfa -40 + ^ x24: .cfa -48 + ^ x25: .cfa -64 + ^ .ra: .cfa -72 + ^ x29: .cfa -80 + ^
STACK CFI 4c23c .cfa: sp 112 +
STACK CFI 4c254 .cfa: sp 0 +
STACK CFI 4c258 .cfa: x29 80 +
STACK CFI INIT 4c29c 150 .cfa: sp 0 +
STACK CFI 4c2a0 .cfa: sp 48 +
STACK CFI 4c2ac .cfa: x29 48 + x19: .cfa -8 + ^ x20: .cfa -16 + ^ x21: .cfa -24 + ^ x22: .cfa -32 + ^ .ra: .cfa -40 + ^ x29: .cfa -48 + ^
STACK CFI 4c3dc .cfa: sp 48 +
STACK CFI 4c3e8 .cfa: sp 0 +
STACK CFI INIT 4c3ec 1e0 .cfa: sp 0 +
STACK CFI 4c3f0 .cfa: sp 96 +
STACK CFI 4c404 .cfa: x29 64 + x19: .cfa -8 + ^ x20: .cfa -16 + ^ x21: .cfa -24 + ^ x22: .cfa -32 + ^ x23: .cfa -40 + ^ x24: .cfa -48 + ^ .ra: .cfa -56 + ^ x29: .cfa -64 + ^
STACK CFI 4c584 .cfa: sp 96 +
STACK CFI 4c598 .cfa: sp 0 +
STACK CFI 4c59c .cfa: x29 64 +
STACK CFI INIT 4c5cc 284 .cfa: sp 0 +
STACK CFI 4c5d0 .cfa: sp 112 +
STACK CFI 4c5e8 .cfa: x29 80 + x19: .cfa -8 + ^ x20: .cfa -16 + ^ x21: .cfa -24 + ^ x22: .cfa -32 + ^ x23: .cfa -40 + ^ x24: .cfa -48 + ^ x25: .cfa -64 + ^ .ra: .cfa -72 + ^ x29: .cfa -80 + ^
STACK CFI 4c7f0 .cfa: sp 112 +
STACK CFI 4c808 .cfa: sp 0 +
STACK CFI 4c80c .cfa: x29 80 +
STACK CFI INIT 4c850 208 .cfa: sp 0 +
STACK CFI 4c854 .cfa: sp 96 +
STACK CFI 4c868 .cfa: x29 64 + x19: .cfa -8 + ^ x20: .cfa -16 + ^ x21: .cfa -24 + ^ x22: .cfa -32 + ^ x23: .cfa -40 + ^ x24: .cfa -48 + ^ .ra: .cfa -56 + ^ x29: .cfa -64 + ^
STACK CFI 4ca10 .cfa: sp 96 +
STACK CFI 4ca24 .cfa: sp 0 +
STACK CFI 4ca28 .cfa: x29 64 +
STACK CFI INIT 4ca58 360 .cfa: sp 0 +
STACK CFI 4ca5c .cfa: sp 160 +
STACK CFI 4ca78 .cfa: x29 96 + x19: .cfa -8 + ^ x20: .cfa -16 + ^ x21: .cfa -24 + ^ x22: .cfa -32 + ^ x23: .cfa -40 + ^ x24: .cfa -48 + ^ x25: .cfa -56 + ^ x26: .cfa -64 + ^ x27: .cfa -72 + ^ x28: .cfa -80 + ^ .ra: .cfa -88 + ^ x29: .cfa -96 + ^
STACK CFI 4cd44 .cfa: sp 160 +
STACK CFI 4cd60 .cfa: sp 0 +
STACK CFI 4cd64 .cfa: x29 96 +
STACK CFI INIT 4cdb8 314 .cfa: sp 0 +
STACK CFI 4cdbc .cfa: sp 144 +
STACK CFI 4cdd8 .cfa: x29 96 + x19: .cfa -8 + ^ x20: .cfa -16 + ^ x21: .cfa -24 + ^ x22: .cfa -32 + ^ x23: .cfa -40 + ^ x24: .cfa -48 + ^ x25: .cfa -56 + ^ x26: .cfa -64 + ^ x27: .cfa -72 + ^ x28: .cfa -80 + ^ .ra: .cfa -88 + ^ x29: .cfa -96 + ^
STACK CFI 4d054 .cfa: sp 144 +
STACK CFI 4d070 .cfa: sp 0 +
STACK CFI 4d074 .cfa: x29 96 +
STACK CFI INIT 4d0cc 290 .cfa: sp 0 +
STACK CFI 4d0d0 .cfa: sp 128 +
STACK CFI 4d0e8 .cfa: x29 80 + x19: .cfa -8 + ^ x20: .cfa -16 + ^ x21: .cfa -24 + ^ x22: .cfa -32 + ^ x23: .cfa -40 + ^ x24: .cfa -48 + ^ x25: .cfa -56 + ^ x26: .cfa -64 + ^ .ra: .cfa -72 + ^ x29: .cfa -80 + ^
STACK CFI 4d33c .cfa: sp 128 +
STACK CFI 4d354 .cfa: sp 0 +
STACK CFI 4d358 .cfa: x29 80 +
STACK CFI INIT 4d35c ddc .cfa: sp 0 +
STACK CFI 4d360 .cfa: sp 144 +
STACK CFI 4d37c .cfa: x29 96 + x19: .cfa -8 + ^ x20: .cfa -16 + ^ x21: .cfa -24 + ^ x22: .cfa -32 + ^ x23: .cfa -40 + ^ x24: .cfa -48 + ^ x25: .cfa -56 + ^ x26: .cfa -64 + ^ x27: .cfa -72 + ^ x28: .cfa -80 + ^ .ra: .cfa -88 + ^ x29: .cfa -96 + ^
STACK CFI 4e010 .cfa: sp 144 +
STACK CFI 4e02c .cfa: sp 0 +
STACK CFI 4e030 .cfa: x29 96 +
STACK CFI INIT 4e138 1d0 .cfa: sp 0 +
STACK CFI 4e13c .cfa: sp 80 +
STACK CFI 4e150 .cfa: x29 80 + x19: .cfa -8 + ^ x20: .cfa -16 + ^ x21: .cfa -24 + ^ x22: .cfa -32 + ^ x23: .cfa -40 + ^ x24: .cfa -48 + ^ x25: .cfa -64 + ^ .ra: .cfa -72 + ^ x29: .cfa -80 + ^
STACK CFI 4e2f0 .cfa: sp 80 +
STACK CFI 4e304 .cfa: sp 0 +
STACK CFI INIT 4e308 23c .cfa: sp 0 +
STACK CFI 4e30c .cfa: sp 112 +
STACK CFI 4e320 .cfa: x29 64 + x19: .cfa -8 + ^ x20: .cfa -16 + ^ x21: .cfa -24 + ^ x22: .cfa -32 + ^ x23: .cfa -40 + ^ x24: .cfa -48 + ^ .ra: .cfa -56 + ^ x29: .cfa -64 + ^
STACK CFI 4e4fc .cfa: sp 112 +
STACK CFI 4e510 .cfa: sp 0 +
STACK CFI 4e514 .cfa: x29 64 +
STACK CFI INIT 4e544 30c .cfa: sp 0 +
STACK CFI 4e548 .cfa: sp 80 +
STACK CFI 4e55c .cfa: x29 64 + x19: .cfa -8 + ^ x20: .cfa -16 + ^ x21: .cfa -24 + ^ x22: .cfa -32 + ^ x23: .cfa -40 + ^ x24: .cfa -48 + ^ .ra: .cfa -56 + ^ x29: .cfa -64 + ^
STACK CFI 4e6d8 .cfa: sp 80 +
STACK CFI 4e6ec .cfa: sp 0 +
STACK CFI 4e6f0 .cfa: x29 64 +
STACK CFI INIT 4e850 178 .cfa: sp 0 +
STACK CFI 4e854 .cfa: sp 80 +
STACK CFI 4e868 .cfa: x29 64 + x19: .cfa -8 + ^ x20: .cfa -16 + ^ x21: .cfa -24 + ^ x22: .cfa -32 + ^ x23: .cfa -40 + ^ x24: .cfa -48 + ^ .ra: .cfa -56 + ^ x29: .cfa -64 + ^
STACK CFI 4e9ac .cfa: sp 80 +
STACK CFI 4e9c0 .cfa: sp 0 +
STACK CFI 4e9c4 .cfa: x29 64 +
STACK CFI INIT 4e9c8 178 .cfa: sp 0 +
STACK CFI 4e9cc .cfa: sp 80 +
STACK CFI 4e9e0 .cfa: x29 64 + x19: .cfa -8 + ^ x20: .cfa -16 + ^ x21: .cfa -24 + ^ x22: .cfa -32 + ^ x23: .cfa -40 + ^ x24: .cfa -48 + ^ .ra: .cfa -56 + ^ x29: .cfa -64 + ^
STACK CFI 4eb24 .cfa: sp 80 +
STACK CFI 4eb38 .cfa: sp 0 +
STACK CFI 4eb3c .cfa: x29 64 +
STACK CFI INIT 4eb40 240 .cfa: sp 0 +
STACK CFI 4eb44 .cfa: sp 96 +
STACK CFI 4eb5c .cfa: x29 96 + x19: .cfa -8 + ^ x20: .cfa -16 + ^ x21: .cfa -24 + ^ x22: .cfa -32 + ^ x23: .cfa -40 + ^ x24: .cfa -48 + ^ x25: .cfa -56 + ^ x26: .cfa -64 + ^ x27: .cfa -72 + ^ x28: .cfa -80 + ^ .ra: .cfa -88 + ^ x29: .cfa -96 + ^
STACK CFI 4ed64 .cfa: sp 96 +
STACK CFI 4ed7c .cfa: sp 0 +
STACK CFI INIT 4f9f4 154 .cfa: sp 0 +
STACK CFI 4f9f8 .cfa: sp 96 +
STACK CFI 4fa0c .cfa: x29 64 + x19: .cfa -8 + ^ x20: .cfa -16 + ^ x21: .cfa -24 + ^ x22: .cfa -32 + ^ x23: .cfa -48 + ^ .ra: .cfa -56 + ^ x29: .cfa -64 + ^
STACK CFI 4faec .cfa: sp 96 +
STACK CFI 4fb00 .cfa: sp 0 +
STACK CFI 4fb04 .cfa: x29 64 +
STACK CFI INIT 4fdb4 44 .cfa: sp 0 +
STACK CFI 4fdb8 .cfa: sp 32 +
STACK CFI 4fdc0 .cfa: x29 32 + x19: .cfa -16 + ^ .ra: .cfa -24 + ^ x29: .cfa -32 + ^
STACK CFI 4fddc .cfa: sp 32 +
STACK CFI 4fde4 .cfa: sp 0 +
STACK CFI 4fde8 .cfa: x29 32 +
STACK CFI 4fdec .cfa: sp 32 +
STACK CFI 4fdf4 .cfa: sp 0 +
STACK CFI INIT 4fdf8 1d0 .cfa: sp 0 +
STACK CFI 4fdfc .cfa: sp 64 +
STACK CFI 4fe0c .cfa: x29 64 + x19: .cfa -8 + ^ x20: .cfa -16 + ^ x21: .cfa -24 + ^ x22: .cfa -32 + ^ x23: .cfa -40 + ^ x24: .cfa -48 + ^ .ra: .cfa -56 + ^ x29: .cfa -64 + ^
STACK CFI 4fecc .cfa: sp 64 +
STACK CFI 4fedc .cfa: sp 0 +
STACK CFI 4fee0 .cfa: x29 64 +
STACK CFI INIT 4ffc8 17c .cfa: sp 0 +
STACK CFI INIT 504fc a0 .cfa: sp 0 +
STACK CFI 50500 .cfa: sp 48 +
STACK CFI 5050c .cfa: x29 48 + x19: .cfa -8 + ^ x20: .cfa -16 + ^ x21: .cfa -24 + ^ x22: .cfa -32 + ^ .ra: .cfa -40 + ^ x29: .cfa -48 + ^
STACK CFI 50578 .cfa: sp 48 +
STACK CFI 50584 .cfa: sp 0 +
STACK CFI 50588 .cfa: sp 48 +
STACK CFI 50594 .cfa: sp 0 +
STACK CFI 50598 .cfa: x29 48 +
STACK CFI INIT 51250 158 .cfa: sp 0 +
STACK CFI 51254 .cfa: sp 96 +
STACK CFI 51268 .cfa: x29 64 + x19: .cfa -8 + ^ x20: .cfa -16 + ^ x21: .cfa -24 + ^ x22: .cfa -32 + ^ x23: .cfa -48 + ^ .ra: .cfa -56 + ^ x29: .cfa -64 + ^
STACK CFI 5134c .cfa: sp 96 +
STACK CFI 51360 .cfa: sp 0 +
STACK CFI 51364 .cfa: x29 64 +
STACK CFI INIT 513a8 190 .cfa: sp 0 +
STACK CFI INIT 52034 1dc .cfa: sp 0 +
STACK CFI 52038 .cfa: sp 80 +
STACK CFI 5204c .cfa: x29 80 + x19: .cfa -8 + ^ x20: .cfa -16 + ^ x21: .cfa -24 + ^ x22: .cfa -32 + ^ x23: .cfa -40 + ^ x24: .cfa -48 + ^ x25: .cfa -64 + ^ .ra: .cfa -72 + ^ x29: .cfa -80 + ^
STACK CFI 521f8 .cfa: sp 80 +
STACK CFI 5220c .cfa: sp 0 +
STACK CFI INIT 53640 124 .cfa: sp 0 +
STACK CFI 53670 .cfa: sp 32 +
STACK CFI 53678 .cfa: x29 32 + x19: .cfa -8 + ^ x20: .cfa -16 + ^ .ra: .cfa -24 + ^ x29: .cfa -32 + ^
STACK CFI 53758 .cfa: sp 32 +
STACK CFI 53760 .cfa: sp 0 +
STACK CFI INIT 53ec0 320 .cfa: sp 0 +
STACK CFI 53ec4 .cfa: sp 64 +
STACK CFI 53ed4 .cfa: x29 64 + x19: .cfa -8 + ^ x20: .cfa -16 + ^ x21: .cfa -24 + ^ x22: .cfa -32 + ^ x23: .cfa -40 + ^ x24: .cfa -48 + ^ .ra: .cfa -56 + ^ x29: .cfa -64 + ^
STACK CFI 53f50 .cfa: sp 64 +
STACK CFI 53f60 .cfa: sp 0 +
STACK CFI 53f64 .cfa: x29 64 +
STACK CFI 54138 .cfa: sp 64 +
STACK CFI 54148 .cfa: sp 0 +
STACK CFI 5414c .cfa: x29 64 +
STACK CFI 5415c .cfa: sp 64 +
STACK CFI 5416c .cfa: sp 0 +
STACK CFI 54170 .cfa: x29 64 +
STACK CFI INIT 541e0 a0 .cfa: sp 0 +
STACK CFI 541e4 .cfa: sp 48 +
STACK CFI 541f0 .cfa: x29 48 + x19: .cfa -8 + ^ x20: .cfa -16 + ^ x21: .cfa -24 + ^ x22: .cfa -32 + ^ .ra: .cfa -40 + ^ x29: .cfa -48 + ^
STACK CFI 5425c .cfa: sp 48 +
STACK CFI 54268 .cfa: sp 0 +
STACK CFI 5426c .cfa: sp 48 +
STACK CFI 54278 .cfa: sp 0 +
STACK CFI 5427c .cfa: x29 48 +
STACK CFI INIT 55130 160 .cfa: sp 0 +
STACK CFI 55134 .cfa: sp 64 +
STACK CFI 55144 .cfa: x29 64 + x19: .cfa -8 + ^ x20: .cfa -16 + ^ x21: .cfa -24 + ^ x22: .cfa -32 + ^ x23: .cfa -48 + ^ .ra: .cfa -56 + ^ x29: .cfa -64 + ^
STACK CFI 5523c .cfa: sp 64 +
STACK CFI 5524c .cfa: sp 0 +
STACK CFI 55250 .cfa: x29 64 +
STACK CFI INIT 55290 214 .cfa: sp 0 +
STACK CFI 55294 .cfa: sp 128 +
STACK CFI 552b0 .cfa: x29 96 + x19: .cfa -8 + ^ x20: .cfa -16 + ^ x21: .cfa -24 + ^ x22: .cfa -32 + ^ x23: .cfa -40 + ^ x24: .cfa -48 + ^ x25: .cfa -56 + ^ x26: .cfa -64 + ^ x27: .cfa -80 + ^ .ra: .cfa -88 + ^ x29: .cfa -96 + ^
STACK CFI 5542c .cfa: sp 128 +
STACK CFI 55448 .cfa: sp 0 +
STACK CFI 5544c .cfa: x29 96 +
STACK CFI INIT 57140 290 .cfa: sp 0 +
STACK CFI 57144 .cfa: sp 16 +
STACK CFI 57148 .cfa: x29 16 + .ra: .cfa -8 + ^ x29: .cfa -16 + ^
STACK CFI 571d4 .cfa: sp 16 +
STACK CFI 571d8 .cfa: sp 0 +
STACK CFI 571dc .cfa: x29 16 +
STACK CFI 5722c .cfa: sp 16 +
STACK CFI 57230 .cfa: sp 0 +
STACK CFI 57234 .cfa: x29 16 +
STACK CFI 57398 .cfa: sp 16 +
STACK CFI 5739c .cfa: sp 0 +
STACK CFI 573a0 .cfa: x29 16 +
STACK CFI INIT 573d0 158 .cfa: sp 0 +
STACK CFI 573d4 .cfa: sp 112 +
STACK CFI 573f0 .cfa: x29 96 + x19: .cfa -8 + ^ x20: .cfa -16 + ^ x21: .cfa -24 + ^ x22: .cfa -32 + ^ x23: .cfa -40 + ^ x24: .cfa -48 + ^ x25: .cfa -56 + ^ x26: .cfa -64 + ^ x27: .cfa -72 + ^ x28: .cfa -80 + ^ .ra: .cfa -88 + ^ x29: .cfa -96 + ^
STACK CFI 574d8 .cfa: sp 112 +
STACK CFI 574dc .cfa: x29 96 +
STACK CFI 574e4 .cfa: sp 112 +
STACK CFI 57500 .cfa: sp 0 +
STACK CFI 57504 .cfa: x29 96 +
STACK CFI 57524 .cfa: sp 112 +
STACK CFI INIT 57528 e54 .cfa: sp 0 +
STACK CFI 5752c .cfa: sp 192 +
STACK CFI 57548 .cfa: x29 96 + x19: .cfa -8 + ^ x20: .cfa -16 + ^ x21: .cfa -24 + ^ x22: .cfa -32 + ^ x23: .cfa -40 + ^ x24: .cfa -48 + ^ x25: .cfa -56 + ^ x26: .cfa -64 + ^ x27: .cfa -72 + ^ x28: .cfa -80 + ^ .ra: .cfa -88 + ^ x29: .cfa -96 + ^
STACK CFI 58264 .cfa: sp 192 +
STACK CFI 58280 .cfa: sp 0 +
STACK CFI 58284 .cfa: x29 96 +
STACK CFI INIT 5837c 1068 .cfa: sp 0 +
STACK CFI 58380 .cfa: sp 288 +
STACK CFI 5839c .cfa: x29 96 + x19: .cfa -8 + ^ x20: .cfa -16 + ^ x21: .cfa -24 + ^ x22: .cfa -32 + ^ x23: .cfa -40 + ^ x24: .cfa -48 + ^ x25: .cfa -56 + ^ x26: .cfa -64 + ^ x27: .cfa -72 + ^ x28: .cfa -80 + ^ .ra: .cfa -88 + ^ x29: .cfa -96 + ^
STACK CFI 5912c .cfa: sp 288 +
STACK CFI 59148 .cfa: sp 0 +
STACK CFI 5914c .cfa: x29 96 +
STACK CFI INIT 593e4 520 .cfa: sp 0 +
STACK CFI 593e8 .cfa: sp 144 +
STACK CFI 59404 .cfa: x29 96 + x19: .cfa -8 + ^ x20: .cfa -16 + ^ x21: .cfa -24 + ^ x22: .cfa -32 + ^ x23: .cfa -40 + ^ x24: .cfa -48 + ^ x25: .cfa -56 + ^ x26: .cfa -64 + ^ x27: .cfa -72 + ^ x28: .cfa -80 + ^ .ra: .cfa -88 + ^ x29: .cfa -96 + ^
STACK CFI 598e0 .cfa: sp 144 +
STACK CFI 598fc .cfa: sp 0 +
STACK CFI 59900 .cfa: x29 96 +
STACK CFI INIT 5a2a4 136c .cfa: sp 0 +
STACK CFI 5a2a8 .cfa: sp 224 +
STACK CFI 5a2c4 .cfa: x29 96 + x19: .cfa -8 + ^ x20: .cfa -16 + ^ x21: .cfa -24 + ^ x22: .cfa -32 + ^ x23: .cfa -40 + ^ x24: .cfa -48 + ^ x25: .cfa -56 + ^ x26: .cfa -64 + ^ x27: .cfa -72 + ^ x28: .cfa -80 + ^ .ra: .cfa -88 + ^ x29: .cfa -96 + ^
STACK CFI 5b5ec .cfa: sp 224 +
STACK CFI 5b608 .cfa: sp 0 +
STACK CFI 5b60c .cfa: x29 96 +
STACK CFI INIT 5b610 1b8 .cfa: sp 0 +
STACK CFI INIT 1e690 f4 .cfa: sp 0 +
STACK CFI 1e694 .cfa: sp 64 +
STACK CFI 1e6a0 .cfa: x29 32 + x19: .cfa -8 + ^ x20: .cfa -16 + ^ .ra: .cfa -24 + ^ x29: .cfa -32 + ^
STACK CFI 1e744 .cfa: sp 64 +
STACK CFI 1e750 .cfa: sp 0 +
STACK CFI 1e754 .cfa: x29 32 +
STACK CFI INIT 1e784 f8 .cfa: sp 0 +
STACK CFI 1e788 .cfa: sp 64 +
STACK CFI 1e794 .cfa: x29 32 + x19: .cfa -8 + ^ x20: .cfa -16 + ^ .ra: .cfa -24 + ^ x29: .cfa -32 + ^
STACK CFI 1e83c .cfa: sp 64 +
STACK CFI 1e848 .cfa: sp 0 +
STACK CFI 1e84c .cfa: x29 32 +
STACK CFI INIT 1e87c fc .cfa: sp 0 +
STACK CFI 1e880 .cfa: sp 80 +
STACK CFI 1e890 .cfa: x29 32 + x19: .cfa -8 + ^ x20: .cfa -16 + ^ .ra: .cfa -24 + ^ x29: .cfa -32 + ^ v8: .cfa -48 + ^
STACK CFI 1e934 .cfa: sp 80 +
STACK CFI 1e944 .cfa: sp 0 +
STACK CFI 1e948 .cfa: x29 32 +
STACK CFI INIT 1e978 fc .cfa: sp 0 +
STACK CFI 1e97c .cfa: sp 80 +
STACK CFI 1e98c .cfa: x29 48 + x19: .cfa -8 + ^ x20: .cfa -16 + ^ x21: .cfa -32 + ^ .ra: .cfa -40 + ^ x29: .cfa -48 + ^
STACK CFI 1ea30 .cfa: sp 80 +
STACK CFI 1ea40 .cfa: sp 0 +
STACK CFI 1ea44 .cfa: x29 48 +
STACK CFI INIT 1eb08 50 .cfa: sp 0 +
STACK CFI 1eb0c .cfa: sp 32 +
STACK CFI 1eb14 .cfa: x29 32 + x19: .cfa -8 + ^ x20: .cfa -16 + ^ .ra: .cfa -24 + ^ x29: .cfa -32 + ^
STACK CFI INIT 1eb98 134 .cfa: sp 0 +
STACK CFI 1eb9c .cfa: sp 80 +
STACK CFI 1ebac .cfa: x29 48 + x19: .cfa -8 + ^ x20: .cfa -16 + ^ x21: .cfa -24 + ^ x22: .cfa -32 + ^ .ra: .cfa -40 + ^ x29: .cfa -48 + ^
STACK CFI 1ecb0 .cfa: sp 80 +
STACK CFI 1ecc0 .cfa: sp 0 +
STACK CFI 1ecc4 .cfa: x29 48 +
STACK CFI INIT 1edd0 118 .cfa: sp 0 +
STACK CFI 1edd4 .cfa: sp 80 +
STACK CFI 1ede4 .cfa: x29 48 + x19: .cfa -8 + ^ x20: .cfa -16 + ^ x21: .cfa -24 + ^ x22: .cfa -32 + ^ .ra: .cfa -40 + ^ x29: .cfa -48 + ^
STACK CFI 1eecc .cfa: sp 80 +
STACK CFI 1eedc .cfa: sp 0 +
STACK CFI 1eee0 .cfa: x29 48 +
STACK CFI INIT 1eee8 130 .cfa: sp 0 +
STACK CFI 1eeec .cfa: sp 96 +
STACK CFI 1ef00 .cfa: x29 48 + x19: .cfa -8 + ^ x20: .cfa -16 + ^ x21: .cfa -24 + ^ x22: .cfa -32 + ^ .ra: .cfa -40 + ^ x29: .cfa -48 + ^ v8: .cfa -64 + ^
STACK CFI 1eff8 .cfa: sp 96 +
STACK CFI 1f00c .cfa: sp 0 +
STACK CFI 1f010 .cfa: x29 48 +
STACK CFI INIT 1f018 188 .cfa: sp 0 +
STACK CFI 1f01c .cfa: sp 96 +
STACK CFI 1f030 .cfa: x29 64 + x19: .cfa -8 + ^ x20: .cfa -16 + ^ x21: .cfa -24 + ^ x22: .cfa -32 + ^ x23: .cfa -48 + ^ .ra: .cfa -56 + ^ x29: .cfa -64 + ^
STACK CFI 1f11c .cfa: sp 96 +
STACK CFI 1f130 .cfa: sp 0 +
STACK CFI 1f134 .cfa: x29 64 +
STACK CFI INIT 1f1f0 c4 .cfa: sp 0 +
STACK CFI 1f1f4 .cfa: sp 48 +
STACK CFI 1f200 .cfa: x29 48 + x19: .cfa -8 + ^ x20: .cfa -16 + ^ x21: .cfa -32 + ^ .ra: .cfa -40 + ^ x29: .cfa -48 + ^
STACK CFI 1f270 .cfa: sp 48 +
STACK CFI 1f27c .cfa: sp 0 +
STACK CFI 1f280 .cfa: x29 48 +
STACK CFI INIT 1f314 480 .cfa: sp 0 +
STACK CFI 1f318 .cfa: sp 224 +
STACK CFI 1f334 .cfa: x29 96 + x19: .cfa -8 + ^ x20: .cfa -16 + ^ x21: .cfa -24 + ^ x22: .cfa -32 + ^ x23: .cfa -40 + ^ x24: .cfa -48 + ^ x25: .cfa -56 + ^ x26: .cfa -64 + ^ x27: .cfa -80 + ^ .ra: .cfa -88 + ^ x29: .cfa -96 + ^
STACK CFI 1f5a0 .cfa: sp 224 +
STACK CFI 1f5bc .cfa: sp 0 +
STACK CFI 1f5c0 .cfa: x29 96 +
STACK CFI 1f68c .cfa: sp 224 +
STACK CFI 1f6a8 .cfa: sp 0 +
STACK CFI 1f6ac .cfa: x29 96 +
STACK CFI INIT 1f800 458 .cfa: sp 0 +
STACK CFI 1f804 .cfa: sp 112 +
STACK CFI 1f820 .cfa: x29 96 + x19: .cfa -8 + ^ x20: .cfa -16 + ^ x21: .cfa -24 + ^ x22: .cfa -32 + ^ x23: .cfa -40 + ^ x24: .cfa -48 + ^ x25: .cfa -56 + ^ x26: .cfa -64 + ^ x27: .cfa -72 + ^ x28: .cfa -80 + ^ .ra: .cfa -88 + ^ x29: .cfa -96 + ^
STACK CFI 1f920 .cfa: sp 112 +
STACK CFI 1f93c .cfa: sp 0 +
STACK CFI 1f940 .cfa: x29 96 +
STACK CFI 1f94c .cfa: sp 112 +
STACK CFI 1f968 .cfa: sp 0 +
STACK CFI 1f96c .cfa: x29 96 +
STACK CFI 1f978 .cfa: sp 112 +
STACK CFI 1f994 .cfa: sp 0 +
STACK CFI 1f998 .cfa: x29 96 +
STACK CFI 1f9a4 .cfa: sp 112 +
STACK CFI 1f9c0 .cfa: sp 0 +
STACK CFI 1f9c4 .cfa: x29 96 +
STACK CFI 1fbe0 .cfa: sp 112 +
STACK CFI 1fbfc .cfa: sp 0 +
STACK CFI 1fc00 .cfa: x29 96 +
STACK CFI INIT 1fc58 4c .cfa: sp 0 +
STACK CFI 1fc5c .cfa: sp 32 +
STACK CFI 1fc64 .cfa: x29 32 + x19: .cfa -8 + ^ x20: .cfa -16 + ^ .ra: .cfa -24 + ^ x29: .cfa -32 + ^
STACK CFI INIT 205a0 4c .cfa: sp 0 +
STACK CFI 205a4 .cfa: sp 32 +
STACK CFI 205ac .cfa: x29 32 + x19: .cfa -8 + ^ x20: .cfa -16 + ^ .ra: .cfa -24 + ^ x29: .cfa -32 + ^
STACK CFI INIT 20704 364 .cfa: sp 0 +
STACK CFI 20708 .cfa: sp 144 +
STACK CFI 2071c .cfa: x29 64 + x19: .cfa -8 + ^ x20: .cfa -16 + ^ x21: .cfa -24 + ^ x22: .cfa -32 + ^ x23: .cfa -48 + ^ .ra: .cfa -56 + ^ x29: .cfa -64 + ^
STACK CFI 208b0 .cfa: sp 144 +
STACK CFI 208c4 .cfa: sp 0 +
STACK CFI 208c8 .cfa: x29 64 +
STACK CFI INIT 210bc 6c .cfa: sp 0 +
STACK CFI 210c0 .cfa: sp 32 +
STACK CFI 210c8 .cfa: x29 32 + x19: .cfa -8 + ^ x20: .cfa -16 + ^ .ra: .cfa -24 + ^ x29: .cfa -32 + ^
STACK CFI 21108 .cfa: sp 32 +
STACK CFI 21110 .cfa: sp 0 +
STACK CFI 21114 .cfa: x29 32 +
STACK CFI INIT 211dc 4c .cfa: sp 0 +
STACK CFI 211e0 .cfa: sp 32 +
STACK CFI 211e8 .cfa: x29 32 + x19: .cfa -8 + ^ x20: .cfa -16 + ^ .ra: .cfa -24 + ^ x29: .cfa -32 + ^
STACK CFI INIT 21650 1bc .cfa: sp 0 +
STACK CFI 21654 .cfa: sp 176 +
STACK CFI 21664 .cfa: x29 48 + x19: .cfa -8 + ^ x20: .cfa -16 + ^ x21: .cfa -24 + ^ x22: .cfa -32 + ^ .ra: .cfa -40 + ^ x29: .cfa -48 + ^
STACK CFI 217c4 .cfa: sp 176 +
STACK CFI 217d4 .cfa: sp 0 +
STACK CFI 217d8 .cfa: x29 48 +
STACK CFI INIT 2180c 474 .cfa: sp 0 +
STACK CFI 21810 .cfa: sp 256 +
STACK CFI 2182c .cfa: x29 96 + x19: .cfa -8 + ^ x20: .cfa -16 + ^ x21: .cfa -24 + ^ x22: .cfa -32 + ^ x23: .cfa -40 + ^ x24: .cfa -48 + ^ x25: .cfa -56 + ^ x26: .cfa -64 + ^ x27: .cfa -72 + ^ x28: .cfa -80 + ^ .ra: .cfa -88 + ^ x29: .cfa -96 + ^
STACK CFI 21b84 .cfa: sp 256 +
STACK CFI 21ba0 .cfa: sp 0 +
STACK CFI 21ba4 .cfa: x29 96 +
STACK CFI INIT 21ee0 4c .cfa: sp 0 +
STACK CFI 21ee4 .cfa: sp 32 +
STACK CFI 21eec .cfa: x29 32 + x19: .cfa -8 + ^ x20: .cfa -16 + ^ .ra: .cfa -24 + ^ x29: .cfa -32 + ^
STACK CFI INIT 21f2c 178 .cfa: sp 0 +
STACK CFI 21f30 .cfa: sp 80 +
STACK CFI 21f44 .cfa: x29 80 + x19: .cfa -8 + ^ x20: .cfa -16 + ^ x21: .cfa -24 + ^ x22: .cfa -32 + ^ x23: .cfa -40 + ^ x24: .cfa -48 + ^ x25: .cfa -64 + ^ .ra: .cfa -72 + ^ x29: .cfa -80 + ^
STACK CFI 22038 .cfa: sp 80 +
STACK CFI 2204c .cfa: sp 0 +
STACK CFI 22050 .cfa: x29 80 +
STACK CFI INIT 220a4 4c .cfa: sp 0 +
STACK CFI 220a8 .cfa: sp 32 +
STACK CFI 220b0 .cfa: x29 32 + x19: .cfa -8 + ^ x20: .cfa -16 + ^ .ra: .cfa -24 + ^ x29: .cfa -32 + ^
STACK CFI INIT 227f4 154 .cfa: sp 0 +
STACK CFI 227f8 .cfa: sp 64 +
STACK CFI 22808 .cfa: x29 64 + x19: .cfa -8 + ^ x20: .cfa -16 + ^ x21: .cfa -24 + ^ x22: .cfa -32 + ^ x23: .cfa -48 + ^ .ra: .cfa -56 + ^ x29: .cfa -64 + ^
STACK CFI 2291c .cfa: sp 64 +
STACK CFI 2292c .cfa: sp 0 +
STACK CFI 22930 .cfa: x29 64 +
STACK CFI INIT 22948 4c .cfa: sp 0 +
STACK CFI 2294c .cfa: sp 32 +
STACK CFI 22954 .cfa: x29 32 + x19: .cfa -8 + ^ x20: .cfa -16 + ^ .ra: .cfa -24 + ^ x29: .cfa -32 + ^
STACK CFI INIT 22a54 4c .cfa: sp 0 +
STACK CFI 22a58 .cfa: sp 32 +
STACK CFI 22a60 .cfa: x29 32 + x19: .cfa -8 + ^ x20: .cfa -16 + ^ .ra: .cfa -24 + ^ x29: .cfa -32 + ^
STACK CFI INIT 22aa0 254 .cfa: sp 0 +
STACK CFI 22aa4 .cfa: sp 48 +
STACK CFI 22ab0 .cfa: x29 48 + x19: .cfa -8 + ^ x20: .cfa -16 + ^ x21: .cfa -32 + ^ .ra: .cfa -40 + ^ x29: .cfa -48 + ^
STACK CFI 22c6c .cfa: sp 48 +
STACK CFI 22c78 .cfa: sp 0 +
STACK CFI 22c7c .cfa: x29 48 +
STACK CFI INIT 23200 140 .cfa: sp 0 +
STACK CFI 23204 .cfa: sp 48 +
STACK CFI 23210 .cfa: x29 48 + x19: .cfa -8 + ^ x20: .cfa -16 + ^ x21: .cfa -32 + ^ .ra: .cfa -40 + ^ x29: .cfa -48 + ^
STACK CFI 232f0 .cfa: sp 48 +
STACK CFI 232fc .cfa: sp 0 +
STACK CFI 23300 .cfa: x29 48 +
STACK CFI INIT 23340 4c .cfa: sp 0 +
STACK CFI 23344 .cfa: sp 32 +
STACK CFI 2334c .cfa: x29 32 + x19: .cfa -8 + ^ x20: .cfa -16 + ^ .ra: .cfa -24 + ^ x29: .cfa -32 + ^
STACK CFI INIT 23fd0 1dc .cfa: sp 0 +
STACK CFI 23fd4 .cfa: sp 128 +
STACK CFI 23fec .cfa: x29 80 + x19: .cfa -8 + ^ x20: .cfa -16 + ^ x21: .cfa -24 + ^ x22: .cfa -32 + ^ x23: .cfa -40 + ^ x24: .cfa -48 + ^ x25: .cfa -64 + ^ .ra: .cfa -72 + ^ x29: .cfa -80 + ^
STACK CFI 240e0 .cfa: sp 128 +
STACK CFI 240f8 .cfa: sp 0 +
STACK CFI 240fc .cfa: x29 80 +
STACK CFI INIT 2443c af8 .cfa: sp 0 +
STACK CFI 24440 .cfa: sp 224 +
STACK CFI 2445c .cfa: x29 96 + x19: .cfa -8 + ^ x20: .cfa -16 + ^ x21: .cfa -24 + ^ x22: .cfa -32 + ^ x23: .cfa -40 + ^ x24: .cfa -48 + ^ x25: .cfa -56 + ^ x26: .cfa -64 + ^ x27: .cfa -72 + ^ x28: .cfa -80 + ^ .ra: .cfa -88 + ^ x29: .cfa -96 + ^
STACK CFI 24e9c .cfa: sp 224 +
STACK CFI 24eb8 .cfa: sp 0 +
STACK CFI 24ebc .cfa: x29 96 +
STACK CFI INIT 24f78 2b4 .cfa: sp 0 +
STACK CFI 24f7c .cfa: sp 144 +
STACK CFI 24f94 .cfa: x29 80 + x19: .cfa -8 + ^ x20: .cfa -16 + ^ x21: .cfa -24 + ^ x22: .cfa -32 + ^ x23: .cfa -40 + ^ x24: .cfa -48 + ^ x25: .cfa -64 + ^ .ra: .cfa -72 + ^ x29: .cfa -80 + ^
STACK CFI 25198 .cfa: sp 144 +
STACK CFI 251b0 .cfa: sp 0 +
STACK CFI 251b4 .cfa: x29 80 +
STACK CFI INIT 253e8 1c4 .cfa: sp 0 +
STACK CFI 253ec .cfa: sp 112 +
STACK CFI 25404 .cfa: x29 80 + x19: .cfa -8 + ^ x20: .cfa -16 + ^ x21: .cfa -24 + ^ x22: .cfa -32 + ^ x23: .cfa -40 + ^ x24: .cfa -48 + ^ x25: .cfa -64 + ^ .ra: .cfa -72 + ^ x29: .cfa -80 + ^
STACK CFI 25530 .cfa: sp 112 +
STACK CFI 25548 .cfa: sp 0 +
STACK CFI 2554c .cfa: x29 80 +
STACK CFI INIT 255c0 4c .cfa: sp 0 +
STACK CFI 255c4 .cfa: sp 32 +
STACK CFI 255cc .cfa: x29 32 + x19: .cfa -8 + ^ x20: .cfa -16 + ^ .ra: .cfa -24 + ^ x29: .cfa -32 + ^
STACK CFI INIT 2560c 5c8 .cfa: sp 0 +
STACK CFI 25610 .cfa: sp 192 +
STACK CFI 25624 .cfa: x29 64 + x19: .cfa -8 + ^ x20: .cfa -16 + ^ x21: .cfa -24 + ^ x22: .cfa -32 + ^ x23: .cfa -40 + ^ x24: .cfa -48 + ^ .ra: .cfa -56 + ^ x29: .cfa -64 + ^
STACK CFI 2591c .cfa: sp 192 +
STACK CFI 25930 .cfa: sp 0 +
STACK CFI 25934 .cfa: x29 64 +
STACK CFI INIT 25bd4 2e0 .cfa: sp 0 +
STACK CFI 25bd8 .cfa: sp 128 +
STACK CFI 25bec .cfa: x29 64 + x19: .cfa -8 + ^ x20: .cfa -16 + ^ x21: .cfa -24 + ^ x22: .cfa -32 + ^ x23: .cfa -40 + ^ x24: .cfa -48 + ^ .ra: .cfa -56 + ^ x29: .cfa -64 + ^
STACK CFI 25de8 .cfa: sp 128 +
STACK CFI 25dfc .cfa: sp 0 +
STACK CFI 25e00 .cfa: x29 64 +
STACK CFI INIT 26678 4a0 .cfa: sp 0 +
STACK CFI 2667c .cfa: sp 176 +
STACK CFI 26690 .cfa: x29 64 + x19: .cfa -8 + ^ x20: .cfa -16 + ^ x21: .cfa -24 + ^ x22: .cfa -32 + ^ x23: .cfa -40 + ^ x24: .cfa -48 + ^ .ra: .cfa -56 + ^ x29: .cfa -64 + ^
STACK CFI 26a5c .cfa: sp 176 +
STACK CFI 26a70 .cfa: sp 0 +
STACK CFI 26a74 .cfa: x29 64 +
STACK CFI INIT 26f3c 4c .cfa: sp 0 +
STACK CFI 26f40 .cfa: sp 32 +
STACK CFI 26f48 .cfa: x29 32 + x19: .cfa -8 + ^ x20: .cfa -16 + ^ .ra: .cfa -24 + ^ x29: .cfa -32 + ^
STACK CFI INIT 26f88 2b4 .cfa: sp 0 +
STACK CFI 26f8c .cfa: sp 144 +
STACK CFI 26fa4 .cfa: x29 80 + x19: .cfa -8 + ^ x20: .cfa -16 + ^ x21: .cfa -24 + ^ x22: .cfa -32 + ^ x23: .cfa -40 + ^ x24: .cfa -48 + ^ x25: .cfa -64 + ^ .ra: .cfa -72 + ^ x29: .cfa -80 + ^
STACK CFI 271a8 .cfa: sp 144 +
STACK CFI 271c0 .cfa: sp 0 +
STACK CFI 271c4 .cfa: x29 80 +
STACK CFI INIT 2723c 218 .cfa: sp 0 +
STACK CFI 27240 .cfa: sp 112 +
STACK CFI 27258 .cfa: x29 80 + x19: .cfa -8 + ^ x20: .cfa -16 + ^ x21: .cfa -24 + ^ x22: .cfa -32 + ^ x23: .cfa -40 + ^ x24: .cfa -48 + ^ x25: .cfa -64 + ^ .ra: .cfa -72 + ^ x29: .cfa -80 + ^
STACK CFI 273d8 .cfa: sp 112 +
STACK CFI 273f0 .cfa: sp 0 +
STACK CFI 273f4 .cfa: x29 80 +
STACK CFI INIT 27454 228 .cfa: sp 0 +
STACK CFI 27458 .cfa: sp 128 +
STACK CFI 27470 .cfa: x29 80 + x19: .cfa -8 + ^ x20: .cfa -16 + ^ x21: .cfa -24 + ^ x22: .cfa -32 + ^ x23: .cfa -40 + ^ x24: .cfa -48 + ^ x25: .cfa -64 + ^ .ra: .cfa -72 + ^ x29: .cfa -80 + ^
STACK CFI 2760c .cfa: sp 128 +
STACK CFI 27624 .cfa: sp 0 +
STACK CFI 27628 .cfa: x29 80 +
STACK CFI INIT 276f8 4c .cfa: sp 0 +
STACK CFI 276fc .cfa: sp 32 +
STACK CFI 27704 .cfa: x29 32 + x19: .cfa -8 + ^ x20: .cfa -16 + ^ .ra: .cfa -24 + ^ x29: .cfa -32 + ^
STACK CFI INIT 27744 180 .cfa: sp 0 +
STACK CFI 27748 .cfa: sp 112 +
STACK CFI 27760 .cfa: x29 80 + x19: .cfa -8 + ^ x20: .cfa -16 + ^ x21: .cfa -24 + ^ x22: .cfa -32 + ^ x23: .cfa -40 + ^ x24: .cfa -48 + ^ x25: .cfa -64 + ^ .ra: .cfa -72 + ^ x29: .cfa -80 + ^
STACK CFI 27860 .cfa: sp 112 +
STACK CFI 27878 .cfa: sp 0 +
STACK CFI 2787c .cfa: x29 80 +
STACK CFI INIT 27d78 1b4 .cfa: sp 0 +
STACK CFI 27d7c .cfa: sp 112 +
STACK CFI 27d94 .cfa: x29 80 + x19: .cfa -8 + ^ x20: .cfa -16 + ^ x21: .cfa -24 + ^ x22: .cfa -32 + ^ x23: .cfa -40 + ^ x24: .cfa -48 + ^ x25: .cfa -64 + ^ .ra: .cfa -72 + ^ x29: .cfa -80 + ^
STACK CFI 27ec8 .cfa: sp 112 +
STACK CFI 27ee0 .cfa: sp 0 +
STACK CFI 27ee4 .cfa: x29 80 +
STACK CFI INIT 27f2c 4c .cfa: sp 0 +
STACK CFI 27f30 .cfa: sp 32 +
STACK CFI 27f38 .cfa: x29 32 + x19: .cfa -8 + ^ x20: .cfa -16 + ^ .ra: .cfa -24 + ^ x29: .cfa -32 + ^
STACK CFI INIT 28244 140 .cfa: sp 0 +
STACK CFI 28248 .cfa: sp 96 +
STACK CFI 28260 .cfa: x29 96 + x19: .cfa -8 + ^ x20: .cfa -16 + ^ x21: .cfa -24 + ^ x22: .cfa -32 + ^ x23: .cfa -40 + ^ x24: .cfa -48 + ^ x25: .cfa -56 + ^ x26: .cfa -64 + ^ x27: .cfa -72 + ^ x28: .cfa -80 + ^ .ra: .cfa -88 + ^ x29: .cfa -96 + ^
STACK CFI 2831c .cfa: sp 96 +
STACK CFI 28334 .cfa: sp 0 +
STACK CFI 28338 .cfa: x29 96 +
STACK CFI INIT 28384 4c .cfa: sp 0 +
STACK CFI 28388 .cfa: sp 32 +
STACK CFI 28390 .cfa: x29 32 + x19: .cfa -8 + ^ x20: .cfa -16 + ^ .ra: .cfa -24 + ^ x29: .cfa -32 + ^
STACK CFI INIT 283d0 4c .cfa: sp 0 +
STACK CFI 283d4 .cfa: sp 32 +
STACK CFI 283dc .cfa: x29 32 + x19: .cfa -8 + ^ x20: .cfa -16 + ^ .ra: .cfa -24 + ^ x29: .cfa -32 + ^
STACK CFI INIT 288ac 4c .cfa: sp 0 +
STACK CFI 288b0 .cfa: sp 32 +
STACK CFI 288b8 .cfa: x29 32 + x19: .cfa -8 + ^ x20: .cfa -16 + ^ .ra: .cfa -24 + ^ x29: .cfa -32 + ^
STACK CFI INIT 293d8 6d8 .cfa: sp 0 +
STACK CFI 293dc .cfa: sp 288 +
STACK CFI 293f8 .cfa: x29 96 + x19: .cfa -8 + ^ x20: .cfa -16 + ^ x21: .cfa -24 + ^ x22: .cfa -32 + ^ x23: .cfa -40 + ^ x24: .cfa -48 + ^ x25: .cfa -56 + ^ x26: .cfa -64 + ^ x28: .cfa -80 + ^ .ra: .cfa -88 + ^ x29: .cfa -96 + ^
STACK CFI 2989c .cfa: sp 288 +
STACK CFI 298b8 .cfa: sp 0 +
STACK CFI 298bc .cfa: x29 96 +
STACK CFI INIT 29b00 74 .cfa: sp 0 +
STACK CFI 29b04 .cfa: sp 48 +
STACK CFI 29b10 .cfa: x29 32 + x19: .cfa -8 + ^ x20: .cfa -16 + ^ .ra: .cfa -24 + ^ x29: .cfa -32 + ^
STACK CFI 29b5c .cfa: sp 48 +
STACK CFI 29b68 .cfa: sp 0 +
STACK CFI 29b6c .cfa: x29 32 +
STACK CFI INIT 29b78 154 .cfa: sp 0 +
STACK CFI 29b7c .cfa: sp 384 +
STACK CFI 29b90 .cfa: x29 64 + x19: .cfa -8 + ^ x20: .cfa -16 + ^ x21: .cfa -24 + ^ x22: .cfa -32 + ^ x23: .cfa -40 + ^ x28: .cfa -48 + ^ .ra: .cfa -56 + ^ x29: .cfa -64 + ^
STACK CFI 29c74 .cfa: sp 384 +
STACK CFI 29c88 .cfa: sp 0 +
STACK CFI 29c8c .cfa: x29 64 +
STACK CFI INIT 29d00 12c .cfa: sp 0 +
STACK CFI 29d04 .cfa: sp 80 +
STACK CFI 29d18 .cfa: x29 80 + x19: .cfa -8 + ^ x20: .cfa -16 + ^ x21: .cfa -24 + ^ x22: .cfa -32 + ^ x23: .cfa -40 + ^ x24: .cfa -48 + ^ x25: .cfa -56 + ^ x26: .cfa -64 + ^ .ra: .cfa -72 + ^ x29: .cfa -80 + ^
STACK CFI 29de0 .cfa: sp 80 +
STACK CFI 29df4 .cfa: sp 0 +
STACK CFI 29df8 .cfa: x29 80 +
STACK CFI INIT 29ed0 1a4 .cfa: sp 0 +
STACK CFI 29ed4 .cfa: sp 112 +
STACK CFI 29eec .cfa: x29 80 + x19: .cfa -8 + ^ x20: .cfa -16 + ^ x21: .cfa -24 + ^ x22: .cfa -32 + ^ x23: .cfa -40 + ^ x24: .cfa -48 + ^ x25: .cfa -56 + ^ x26: .cfa -64 + ^ .ra: .cfa -72 + ^ x29: .cfa -80 + ^
STACK CFI 29fdc .cfa: sp 112 +
STACK CFI 29ff4 .cfa: sp 0 +
STACK CFI 29ff8 .cfa: x29 80 +
STACK CFI INIT 2a074 1dc .cfa: sp 0 +
STACK CFI 2a078 .cfa: sp 128 +
STACK CFI 2a094 .cfa: x29 96 + x19: .cfa -8 + ^ x20: .cfa -16 + ^ x21: .cfa -24 + ^ x22: .cfa -32 + ^ x23: .cfa -40 + ^ x24: .cfa -48 + ^ x25: .cfa -56 + ^ x26: .cfa -64 + ^ x27: .cfa -80 + ^ .ra: .cfa -88 + ^ x29: .cfa -96 + ^
STACK CFI 2a200 .cfa: sp 128 +
STACK CFI 2a21c .cfa: sp 0 +
STACK CFI 2a220 .cfa: x29 96 +
STACK CFI INIT 2a250 178 .cfa: sp 0 +
STACK CFI 2a254 .cfa: sp 80 +
STACK CFI 2a268 .cfa: x29 80 + x19: .cfa -8 + ^ x20: .cfa -16 + ^ x21: .cfa -24 + ^ x22: .cfa -32 + ^ x23: .cfa -40 + ^ x24: .cfa -48 + ^ x25: .cfa -64 + ^ .ra: .cfa -72 + ^ x29: .cfa -80 + ^
STACK CFI 2a394 .cfa: sp 80 +
STACK CFI 2a3a8 .cfa: sp 0 +
STACK CFI 2a3ac .cfa: x29 80 +
STACK CFI INIT 2ab70 1d4 .cfa: sp 0 +
STACK CFI 2ab74 .cfa: sp 144 +
STACK CFI 2ab88 .cfa: x29 64 + x19: .cfa -8 + ^ x20: .cfa -16 + ^ x21: .cfa -24 + ^ x22: .cfa -32 + ^ x23: .cfa -40 + ^ x24: .cfa -48 + ^ .ra: .cfa -56 + ^ x29: .cfa -64 + ^
STACK CFI 2acd8 .cfa: sp 144 +
STACK CFI 2acec .cfa: sp 0 +
STACK CFI 2acf0 .cfa: x29 64 +
STACK CFI INIT 2ad44 190 .cfa: sp 0 +
STACK CFI 2ad48 .cfa: sp 144 +
STACK CFI 2ad5c .cfa: x29 64 + x19: .cfa -8 + ^ x20: .cfa -16 + ^ x21: .cfa -24 + ^ x22: .cfa -32 + ^ x23: .cfa -40 + ^ x24: .cfa -48 + ^ .ra: .cfa -56 + ^ x29: .cfa -64 + ^
STACK CFI 2ae6c .cfa: sp 144 +
STACK CFI 2ae80 .cfa: sp 0 +
STACK CFI 2ae84 .cfa: x29 64 +
STACK CFI INIT 2af9c c58 .cfa: sp 0 +
STACK CFI 2afa0 .cfa: sp 96 +
STACK CFI 2afb8 .cfa: x29 96 + x19: .cfa -8 + ^ x20: .cfa -16 + ^ x21: .cfa -24 + ^ x22: .cfa -32 + ^ x23: .cfa -40 + ^ x24: .cfa -48 + ^ x25: .cfa -56 + ^ x26: .cfa -64 + ^ x28: .cfa -80 + ^ .ra: .cfa -88 + ^ x29: .cfa -96 + ^
STACK CFI 2b6e4 .cfa: sp 96 +
STACK CFI 2b6fc .cfa: sp 0 +
STACK CFI 2b700 .cfa: x29 96 +
STACK CFI INIT 2bbf4 cd4 .cfa: sp 0 +
STACK CFI 2bbf8 .cfa: sp 96 +
STACK CFI 2bc10 .cfa: x29 96 + x19: .cfa -8 + ^ x20: .cfa -16 + ^ x21: .cfa -24 + ^ x22: .cfa -32 + ^ x23: .cfa -40 + ^ x24: .cfa -48 + ^ x25: .cfa -56 + ^ x26: .cfa -64 + ^ x27: .cfa -72 + ^ x28: .cfa -80 + ^ .ra: .cfa -88 + ^ x29: .cfa -96 + ^
STACK CFI 2c1b0 .cfa: sp 96 +
STACK CFI 2c1c8 .cfa: sp 0 +
STACK CFI 2c1cc .cfa: x29 96 +
STACK CFI INIT 2c8c8 2b8 .cfa: sp 0 +
STACK CFI 2c8cc .cfa: sp 160 +
STACK CFI 2c8e8 .cfa: x29 96 + x19: .cfa -8 + ^ x20: .cfa -16 + ^ x21: .cfa -24 + ^ x22: .cfa -32 + ^ x23: .cfa -40 + ^ x24: .cfa -48 + ^ x25: .cfa -56 + ^ x26: .cfa -64 + ^ x27: .cfa -72 + ^ x28: .cfa -80 + ^ .ra: .cfa -88 + ^ x29: .cfa -96 + ^
STACK CFI 2c920 .cfa: sp 160 +
STACK CFI 2c93c .cfa: sp 0 +
STACK CFI 2c940 .cfa: x29 96 +
STACK CFI INIT 2cb80 114 .cfa: sp 0 +
STACK CFI 2cb84 .cfa: sp 64 +
STACK CFI 2cb94 .cfa: x29 64 + x19: .cfa -8 + ^ x20: .cfa -16 + ^ x21: .cfa -24 + ^ x22: .cfa -32 + ^ x23: .cfa -48 + ^ .ra: .cfa -56 + ^ x29: .cfa -64 + ^
STACK CFI 2cc70 .cfa: sp 64 +
STACK CFI 2cc80 .cfa: sp 0 +
STACK CFI 2cc84 .cfa: x29 64 +
STACK CFI INIT 2cd7c 22c .cfa: sp 0 +
STACK CFI 2cd80 .cfa: sp 96 +
STACK CFI 2cd98 .cfa: x29 96 + x19: .cfa -8 + ^ x20: .cfa -16 + ^ x21: .cfa -24 + ^ x22: .cfa -32 + ^ x23: .cfa -40 + ^ x24: .cfa -48 + ^ x25: .cfa -56 + ^ x26: .cfa -64 + ^ x27: .cfa -80 + ^ .ra: .cfa -88 + ^ x29: .cfa -96 + ^
STACK CFI 2cf3c .cfa: sp 96 +
STACK CFI 2cf54 .cfa: sp 0 +
STACK CFI 2cf58 .cfa: x29 96 +
STACK CFI INIT 2cfd0 50 .cfa: sp 0 +
STACK CFI 2cfd4 .cfa: sp 32 +
STACK CFI 2cfdc .cfa: x29 32 + x19: .cfa -8 + ^ x20: .cfa -16 + ^ .ra: .cfa -24 + ^ x29: .cfa -32 + ^
STACK CFI INIT 2d494 284 .cfa: sp 0 +
STACK CFI 2d498 .cfa: sp 144 +
STACK CFI 2d4ac .cfa: x29 64 + x19: .cfa -8 + ^ x20: .cfa -16 + ^ x21: .cfa -24 + ^ x22: .cfa -32 + ^ x23: .cfa -40 + ^ x24: .cfa -48 + ^ .ra: .cfa -56 + ^ x29: .cfa -64 + ^
STACK CFI 2d6a4 .cfa: sp 144 +
STACK CFI 2d6b8 .cfa: sp 0 +
STACK CFI 2d6bc .cfa: x29 64 +
STACK CFI INIT 2d718 3bc .cfa: sp 0 +
STACK CFI 2d71c .cfa: sp 288 +
STACK CFI 2d738 .cfa: x29 96 + x19: .cfa -8 + ^ x20: .cfa -16 + ^ x21: .cfa -24 + ^ x22: .cfa -32 + ^ x23: .cfa -40 + ^ x24: .cfa -48 + ^ x25: .cfa -56 + ^ x26: .cfa -64 + ^ x27: .cfa -72 + ^ x28: .cfa -80 + ^ .ra: .cfa -88 + ^ x29: .cfa -96 + ^
STACK CFI 2d9d4 .cfa: sp 288 +
STACK CFI 2d9f0 .cfa: sp 0 +
STACK CFI 2d9f4 .cfa: x29 96 +
STACK CFI INIT 2dad4 148 .cfa: sp 0 +
STACK CFI 2dad8 .cfa: sp 192 +
STACK CFI 2daec .cfa: x29 64 + x19: .cfa -8 + ^ x20: .cfa -16 + ^ x21: .cfa -24 + ^ x22: .cfa -32 + ^ x23: .cfa -40 + ^ x24: .cfa -48 + ^ .ra: .cfa -56 + ^ x29: .cfa -64 + ^
STACK CFI 2dba8 .cfa: sp 192 +
STACK CFI 2dbbc .cfa: sp 0 +
STACK CFI 2dbc0 .cfa: x29 64 +
STACK CFI INIT 2dffc 21c .cfa: sp 0 +
STACK CFI 2e000 .cfa: sp 208 +
STACK CFI 2e018 .cfa: x29 80 + x19: .cfa -8 + ^ x20: .cfa -16 + ^ x21: .cfa -24 + ^ x22: .cfa -32 + ^ x23: .cfa -40 + ^ x24: .cfa -48 + ^ x25: .cfa -56 + ^ x26: .cfa -64 + ^ .ra: .cfa -72 + ^ x29: .cfa -80 + ^
STACK CFI 2e1bc .cfa: sp 208 +
STACK CFI 2e1d4 .cfa: sp 0 +
STACK CFI 2e1d8 .cfa: x29 80 +
STACK CFI INIT 2e654 970 .cfa: sp 0 +
STACK CFI 2e658 .cfa: sp 352 +
STACK CFI 2e674 .cfa: x29 96 + x19: .cfa -8 + ^ x20: .cfa -16 + ^ x21: .cfa -24 + ^ x22: .cfa -32 + ^ x23: .cfa -40 + ^ x24: .cfa -48 + ^ x25: .cfa -56 + ^ x26: .cfa -64 + ^ x27: .cfa -72 + ^ x28: .cfa -80 + ^ .ra: .cfa -88 + ^ x29: .cfa -96 + ^
STACK CFI 2ef24 .cfa: sp 352 +
STACK CFI 2ef40 .cfa: sp 0 +
STACK CFI 2ef44 .cfa: x29 96 +
STACK CFI INIT 2efc4 610 .cfa: sp 0 +
STACK CFI 2efc8 .cfa: sp 400 +
STACK CFI 2efe4 .cfa: x29 96 + x19: .cfa -8 + ^ x20: .cfa -16 + ^ x21: .cfa -24 + ^ x22: .cfa -32 + ^ x23: .cfa -40 + ^ x24: .cfa -48 + ^ x25: .cfa -56 + ^ x26: .cfa -64 + ^ x27: .cfa -72 + ^ x28: .cfa -80 + ^ .ra: .cfa -88 + ^ x29: .cfa -96 + ^
STACK CFI 2f52c .cfa: sp 400 +
STACK CFI 2f548 .cfa: sp 0 +
STACK CFI 2f54c .cfa: x29 96 +
STACK CFI INIT 2f7b8 5f0 .cfa: sp 0 +
STACK CFI 2f7bc .cfa: sp 112 +
STACK CFI 2f7d8 .cfa: x29 96 + x19: .cfa -8 + ^ x20: .cfa -16 + ^ x21: .cfa -24 + ^ x22: .cfa -32 + ^ x23: .cfa -40 + ^ x24: .cfa -48 + ^ x25: .cfa -56 + ^ x26: .cfa -64 + ^ x27: .cfa -80 + ^ .ra: .cfa -88 + ^ x29: .cfa -96 + ^
STACK CFI 2fa7c .cfa: sp 112 +
STACK CFI 2fa98 .cfa: sp 0 +
STACK CFI 2fa9c .cfa: x29 96 +
STACK CFI 2fc90 .cfa: sp 112 +
STACK CFI 2fcac .cfa: sp 0 +
STACK CFI 2fcb0 .cfa: x29 96 +
STACK CFI INIT 300bc 3f8 .cfa: sp 0 +
STACK CFI 300c0 .cfa: sp 112 +
STACK CFI 300dc .cfa: x29 96 + x19: .cfa -8 + ^ x20: .cfa -16 + ^ x21: .cfa -24 + ^ x22: .cfa -32 + ^ x23: .cfa -40 + ^ x24: .cfa -48 + ^ x25: .cfa -56 + ^ x26: .cfa -64 + ^ x27: .cfa -72 + ^ x28: .cfa -80 + ^ .ra: .cfa -88 + ^ x29: .cfa -96 + ^
STACK CFI 30294 .cfa: sp 112 +
STACK CFI 302b0 .cfa: sp 0 +
STACK CFI 302b4 .cfa: x29 96 +
STACK CFI 3041c .cfa: sp 112 +
STACK CFI 30438 .cfa: sp 0 +
STACK CFI 3043c .cfa: x29 96 +
STACK CFI INIT 311f8 f8 .cfa: sp 0 +
STACK CFI 311fc .cfa: sp 96 +
STACK CFI 31208 .cfa: x29 32 + x19: .cfa -8 + ^ x20: .cfa -16 + ^ .ra: .cfa -24 + ^ x29: .cfa -32 + ^
STACK CFI 3128c .cfa: sp 96 +
STACK CFI 31298 .cfa: sp 0 +
STACK CFI 3129c .cfa: x29 32 +
STACK CFI INIT 312f0 480 .cfa: sp 0 +
STACK CFI 312f4 .cfa: sp 224 +
STACK CFI 31310 .cfa: x29 96 + x19: .cfa -8 + ^ x20: .cfa -16 + ^ x21: .cfa -24 + ^ x22: .cfa -32 + ^ x23: .cfa -40 + ^ x24: .cfa -48 + ^ x25: .cfa -56 + ^ x26: .cfa -64 + ^ x27: .cfa -80 + ^ .ra: .cfa -88 + ^ x29: .cfa -96 + ^
STACK CFI 3157c .cfa: sp 224 +
STACK CFI 31598 .cfa: sp 0 +
STACK CFI 3159c .cfa: x29 96 +
STACK CFI 31668 .cfa: sp 224 +
STACK CFI 31684 .cfa: sp 0 +
STACK CFI 31688 .cfa: x29 96 +
STACK CFI INIT 3178c 480 .cfa: sp 0 +
STACK CFI 31790 .cfa: sp 224 +
STACK CFI 317ac .cfa: x29 96 + x19: .cfa -8 + ^ x20: .cfa -16 + ^ x21: .cfa -24 + ^ x22: .cfa -32 + ^ x23: .cfa -40 + ^ x24: .cfa -48 + ^ x25: .cfa -56 + ^ x26: .cfa -64 + ^ x27: .cfa -80 + ^ .ra: .cfa -88 + ^ x29: .cfa -96 + ^
STACK CFI 31a18 .cfa: sp 224 +
STACK CFI 31a34 .cfa: sp 0 +
STACK CFI 31a38 .cfa: x29 96 +
STACK CFI 31b04 .cfa: sp 224 +
STACK CFI 31b20 .cfa: sp 0 +
STACK CFI 31b24 .cfa: x29 96 +
STACK CFI INIT 31c7c 954 .cfa: sp 0 +
STACK CFI 31c80 .cfa: sp 224 +
STACK CFI 31c94 .cfa: x29 64 + x19: .cfa -8 + ^ x20: .cfa -16 + ^ x21: .cfa -24 + ^ x22: .cfa -32 + ^ x23: .cfa -40 + ^ x24: .cfa -48 + ^ .ra: .cfa -56 + ^ x29: .cfa -64 + ^
STACK CFI 32324 .cfa: sp 224 +
STACK CFI 32338 .cfa: sp 0 +
STACK CFI 3233c .cfa: x29 64 +
STACK CFI INIT 32674 134 .cfa: sp 0 +
STACK CFI 32678 .cfa: sp 128 +
STACK CFI 3268c .cfa: x29 64 + x19: .cfa -8 + ^ x20: .cfa -16 + ^ x21: .cfa -24 + ^ x22: .cfa -32 + ^ x23: .cfa -40 + ^ x24: .cfa -48 + ^ .ra: .cfa -56 + ^ x29: .cfa -64 + ^
STACK CFI 32758 .cfa: sp 128 +
STACK CFI 3276c .cfa: sp 0 +
STACK CFI 32770 .cfa: x29 64 +
STACK CFI INIT 329dc c8 .cfa: sp 0 +
STACK CFI 329e0 .cfa: sp 32 +
STACK CFI 329e8 .cfa: x29 32 + x19: .cfa -8 + ^ x20: .cfa -16 + ^ .ra: .cfa -24 + ^ x29: .cfa -32 + ^
STACK CFI 32a1c .cfa: sp 32 +
STACK CFI 32a24 .cfa: sp 0 +
STACK CFI 32a28 .cfa: x29 32 +
STACK CFI 32a2c .cfa: sp 32 +
STACK CFI 32a34 .cfa: sp 0 +
STACK CFI 32a38 .cfa: x29 32 +
STACK CFI INIT 32aa4 82c .cfa: sp 0 +
STACK CFI 32aa8 .cfa: sp 80 +
STACK CFI 32abc .cfa: x29 80 + x19: .cfa -8 + ^ x20: .cfa -16 + ^ x21: .cfa -24 + ^ x22: .cfa -32 + ^ x23: .cfa -40 + ^ x24: .cfa -48 + ^ x25: .cfa -56 + ^ x26: .cfa -64 + ^ .ra: .cfa -72 + ^ x29: .cfa -80 + ^
STACK CFI 32f54 .cfa: sp 80 +
STACK CFI 32f68 .cfa: sp 0 +
STACK CFI 32f6c .cfa: x29 80 +
STACK CFI INIT 332d0 578 .cfa: sp 0 +
STACK CFI 332d4 .cfa: sp 96 +
STACK CFI 332e8 .cfa: x29 64 + x19: .cfa -8 + ^ x20: .cfa -16 + ^ x21: .cfa -24 + ^ x22: .cfa -32 + ^ x23: .cfa -48 + ^ .ra: .cfa -56 + ^ x29: .cfa -64 + ^
STACK CFI 33688 .cfa: sp 96 +
STACK CFI 3369c .cfa: sp 0 +
STACK CFI 336a0 .cfa: x29 64 +
STACK CFI INIT 339bc 1c .cfa: sp 0 +
STACK CFI 339c0 .cfa: sp 16 +
STACK CFI 339c4 .cfa: x29 16 + .ra: .cfa -8 + ^ x29: .cfa -16 + ^
STACK CFI 339cc .cfa: sp 16 +
STACK CFI 339d0 .cfa: sp 0 +
STACK CFI 339d4 .cfa: x29 16 +
STACK CFI INIT 33ce4 3f8 .cfa: sp 0 +
STACK CFI 33ce8 .cfa: sp 48 +
STACK CFI 33cf4 .cfa: x29 48 + x19: .cfa -8 + ^ x20: .cfa -16 + ^ x21: .cfa -24 + ^ x22: .cfa -32 + ^ .ra: .cfa -40 + ^ x29: .cfa -48 + ^
STACK CFI 3405c .cfa: sp 48 +
STACK CFI 34068 .cfa: sp 0 +
STACK CFI 3406c .cfa: x29 48 +
STACK CFI 340bc .cfa: sp 48 +
STACK CFI 340c8 .cfa: sp 0 +
STACK CFI 340cc .cfa: x29 48 +
STACK CFI INIT 34154 1c .cfa: sp 0 +
STACK CFI 34158 .cfa: sp 16 +
STACK CFI 3415c .cfa: x29 16 + .ra: .cfa -8 + ^ x29: .cfa -16 + ^
STACK CFI 34164 .cfa: sp 16 +
STACK CFI 34168 .cfa: sp 0 +
STACK CFI 3416c .cfa: x29 16 +
STACK CFI INIT 34200 98 .cfa: sp 0 +
STACK CFI 34204 .cfa: sp 48 +
STACK CFI 34210 .cfa: x29 48 + x19: .cfa -8 + ^ x20: .cfa -16 + ^ x21: .cfa -32 + ^ .ra: .cfa -40 + ^ x29: .cfa -48 + ^
STACK CFI 34270 .cfa: sp 48 +
STACK CFI 3427c .cfa: sp 0 +
STACK CFI 34280 .cfa: sp 48 +
STACK CFI 3428c .cfa: sp 0 +
STACK CFI 34290 .cfa: x29 48 +
STACK CFI INIT 342d4 1c .cfa: sp 0 +
STACK CFI 342d8 .cfa: sp 16 +
STACK CFI 342dc .cfa: x29 16 + .ra: .cfa -8 + ^ x29: .cfa -16 + ^
STACK CFI 342e4 .cfa: sp 16 +
STACK CFI 342e8 .cfa: sp 0 +
STACK CFI 342ec .cfa: x29 16 +
STACK CFI INIT 342f0 1c .cfa: sp 0 +
STACK CFI 342f4 .cfa: sp 16 +
STACK CFI 342f8 .cfa: x29 16 + .ra: .cfa -8 + ^ x29: .cfa -16 + ^
STACK CFI 34300 .cfa: sp 16 +
STACK CFI 34304 .cfa: sp 0 +
STACK CFI 34308 .cfa: x29 16 +
STACK CFI INIT 344ec 1cc .cfa: sp 0 +
STACK CFI 344f0 .cfa: sp 160 +
STACK CFI 34508 .cfa: x29 80 + x19: .cfa -8 + ^ x20: .cfa -16 + ^ x21: .cfa -24 + ^ x22: .cfa -32 + ^ x23: .cfa -40 + ^ x24: .cfa -48 + ^ x25: .cfa -56 + ^ x26: .cfa -64 + ^ .ra: .cfa -72 + ^ x29: .cfa -80 + ^
STACK CFI 34664 .cfa: sp 160 +
STACK CFI 3467c .cfa: sp 0 +
STACK CFI 34680 .cfa: x29 80 +
STACK CFI INIT 34a70 1a0 .cfa: sp 0 +
STACK CFI 34a74 .cfa: sp 64 +
STACK CFI 34a84 .cfa: x29 64 + x19: .cfa -8 + ^ x20: .cfa -16 + ^ x21: .cfa -24 + ^ x22: .cfa -32 + ^ x23: .cfa -48 + ^ .ra: .cfa -56 + ^ x29: .cfa -64 + ^
STACK CFI 34b48 .cfa: sp 64 +
STACK CFI 34b58 .cfa: sp 0 +
STACK CFI 34b5c .cfa: x29 64 +
STACK CFI INIT 35244 a8 .cfa: sp 0 +
STACK CFI 35248 .cfa: sp 64 +
STACK CFI 35258 .cfa: x29 64 + x19: .cfa -8 + ^ x20: .cfa -16 + ^ x21: .cfa -24 + ^ x22: .cfa -32 + ^ x23: .cfa -40 + ^ x24: .cfa -48 + ^ .ra: .cfa -56 + ^ x29: .cfa -64 + ^
STACK CFI 3527c .cfa: sp 64 +
STACK CFI 3528c .cfa: sp 0 +
STACK CFI 35290 .cfa: x29 64 +
STACK CFI INIT 3543c 3198 .cfa: sp 0 +
STACK CFI 35440 .cfa: sp 112 +
STACK CFI 3545c .cfa: x29 96 + x19: .cfa -8 + ^ x20: .cfa -16 + ^ x21: .cfa -24 + ^ x22: .cfa -32 + ^ x23: .cfa -40 + ^ x24: .cfa -48 + ^ x25: .cfa -56 + ^ x26: .cfa -64 + ^ x27: .cfa -72 + ^ x28: .cfa -80 + ^ .ra: .cfa -88 + ^ x29: .cfa -96 + ^ v8: .cfa -112 + ^
STACK CFI 37f54 .cfa: sp 112 +
STACK CFI 37f70 .cfa: sp 0 +
STACK CFI 37f74 .cfa: x29 96 +
STACK CFI INIT 385d4 3d8 .cfa: sp 0 +
STACK CFI 385d8 .cfa: sp 128 +
STACK CFI 385e8 .cfa: x29 48 + x19: .cfa -8 + ^ x20: .cfa -16 + ^ x21: .cfa -24 + ^ x22: .cfa -32 + ^ .ra: .cfa -40 + ^ x29: .cfa -48 + ^
STACK CFI 388a8 .cfa: sp 128 +
STACK CFI 388b8 .cfa: sp 0 +
STACK CFI 388bc .cfa: x29 48 +
STACK CFI INIT 389ac 5c4 .cfa: sp 0 +
STACK CFI 389b0 .cfa: sp 96 +
STACK CFI 389c8 .cfa: x29 96 + x19: .cfa -8 + ^ x20: .cfa -16 + ^ x21: .cfa -24 + ^ x22: .cfa -32 + ^ x23: .cfa -40 + ^ x24: .cfa -48 + ^ x25: .cfa -56 + ^ x26: .cfa -64 + ^ x27: .cfa -72 + ^ x28: .cfa -80 + ^ .ra: .cfa -88 + ^ x29: .cfa -96 + ^
STACK CFI 38f10 .cfa: sp 96 +
STACK CFI 38f28 .cfa: sp 0 +
STACK CFI 38f2c .cfa: x29 96 +
STACK CFI INIT 390b4 1b4 .cfa: sp 0 +
STACK CFI 390b8 .cfa: sp 144 +
STACK CFI 390cc .cfa: x29 64 + x19: .cfa -8 + ^ x20: .cfa -16 + ^ x21: .cfa -24 + ^ x22: .cfa -32 + ^ x23: .cfa -40 + ^ x24: .cfa -48 + ^ .ra: .cfa -56 + ^ x29: .cfa -64 + ^
STACK CFI 391e4 .cfa: sp 144 +
STACK CFI 391f8 .cfa: sp 0 +
STACK CFI 391fc .cfa: x29 64 +
STACK CFI INIT 39268 11c .cfa: sp 0 +
STACK CFI 3926c .cfa: sp 176 +
STACK CFI 3927c .cfa: x29 48 + x19: .cfa -8 + ^ x20: .cfa -16 + ^ x21: .cfa -24 + ^ x22: .cfa -32 + ^ .ra: .cfa -40 + ^ x29: .cfa -48 + ^
STACK CFI 3933c .cfa: sp 176 +
STACK CFI 3934c .cfa: sp 0 +
STACK CFI 39350 .cfa: x29 48 +
STACK CFI INIT 394a4 1fd4 .cfa: sp 0 +
STACK CFI 394a8 .cfa: sp 96 +
STACK CFI 394c0 .cfa: x29 96 + x19: .cfa -8 + ^ x20: .cfa -16 + ^ x21: .cfa -24 + ^ x22: .cfa -32 + ^ x23: .cfa -40 + ^ x24: .cfa -48 + ^ x25: .cfa -56 + ^ x26: .cfa -64 + ^ x27: .cfa -72 + ^ x28: .cfa -80 + ^ .ra: .cfa -88 + ^ x29: .cfa -96 + ^
STACK CFI 3adf4 .cfa: sp 96 +
STACK CFI 3ae0c .cfa: sp 0 +
STACK CFI 3ae10 .cfa: x29 96 +
STACK CFI INIT 3b478 3dc .cfa: sp 0 +
STACK CFI 3b47c .cfa: sp 48 +
STACK CFI 3b488 .cfa: x29 48 + x19: .cfa -8 + ^ x20: .cfa -16 + ^ x21: .cfa -32 + ^ .ra: .cfa -40 + ^ x29: .cfa -48 + ^
STACK CFI 3b514 .cfa: sp 48 +
STACK CFI 3b520 .cfa: sp 0 +
STACK CFI 3b524 .cfa: x29 48 +
STACK CFI 3b7f8 .cfa: sp 48 +
STACK CFI 3b804 .cfa: sp 0 +
STACK CFI 3b808 .cfa: x29 48 +
STACK CFI INIT 3b8a4 274 .cfa: sp 0 +
STACK CFI 3b8a8 .cfa: sp 96 +
STACK CFI 3b8c0 .cfa: x29 96 + x19: .cfa -8 + ^ x20: .cfa -16 + ^ x21: .cfa -24 + ^ x22: .cfa -32 + ^ x23: .cfa -40 + ^ x24: .cfa -48 + ^ x25: .cfa -56 + ^ x26: .cfa -64 + ^ x27: .cfa -72 + ^ x28: .cfa -80 + ^ .ra: .cfa -88 + ^ x29: .cfa -96 + ^
STACK CFI 3ba14 .cfa: sp 96 +
STACK CFI 3ba2c .cfa: sp 0 +
STACK CFI 3ba30 .cfa: x29 96 +
STACK CFI INIT 3bb34 b24 .cfa: sp 0 +
STACK CFI 3bb38 .cfa: sp 128 +
STACK CFI 3bb58 .cfa: x29 96 + x19: .cfa -8 + ^ x20: .cfa -16 + ^ x21: .cfa -24 + ^ x22: .cfa -32 + ^ x23: .cfa -40 + ^ x24: .cfa -48 + ^ x25: .cfa -56 + ^ x26: .cfa -64 + ^ x27: .cfa -72 + ^ x28: .cfa -80 + ^ .ra: .cfa -88 + ^ x29: .cfa -96 + ^ v8: .cfa -104 + ^ v9: .cfa -112 + ^ v10: .cfa -120 + ^ v11: .cfa -128 + ^
STACK CFI 3c47c .cfa: sp 128 +
STACK CFI 3c49c .cfa: sp 0 +
STACK CFI 3c4a0 .cfa: x29 96 +
STACK CFI INIT 3c830 196c .cfa: sp 0 +
STACK CFI 3c834 .cfa: sp 96 +
STACK CFI 3c84c .cfa: x29 96 + x19: .cfa -8 + ^ x20: .cfa -16 + ^ x21: .cfa -24 + ^ x22: .cfa -32 + ^ x23: .cfa -40 + ^ x24: .cfa -48 + ^ x25: .cfa -56 + ^ x26: .cfa -64 + ^ x27: .cfa -72 + ^ x28: .cfa -80 + ^ .ra: .cfa -88 + ^ x29: .cfa -96 + ^
STACK CFI 3dc98 .cfa: sp 96 +
STACK CFI 3dcb0 .cfa: sp 0 +
STACK CFI 3dcb4 .cfa: x29 96 +
STACK CFI INIT 3e680 4d0 .cfa: sp 0 +
STACK CFI 3e684 .cfa: sp 96 +
STACK CFI 3e69c .cfa: x29 96 + x19: .cfa -8 + ^ x20: .cfa -16 + ^ x21: .cfa -24 + ^ x22: .cfa -32 + ^ x23: .cfa -40 + ^ x24: .cfa -48 + ^ x25: .cfa -56 + ^ x26: .cfa -64 + ^ x27: .cfa -72 + ^ x28: .cfa -80 + ^ .ra: .cfa -88 + ^ x29: .cfa -96 + ^
STACK CFI 3e7f4 .cfa: sp 96 +
STACK CFI 3e80c .cfa: sp 0 +
STACK CFI 3e810 .cfa: x29 96 +
STACK CFI 3e81c .cfa: sp 96 +
STACK CFI 3e834 .cfa: sp 0 +
STACK CFI 3e838 .cfa: x29 96 +
STACK CFI 3e89c .cfa: sp 96 +
STACK CFI 3e8b4 .cfa: sp 0 +
STACK CFI 3e8b8 .cfa: x29 96 +
STACK CFI 3eadc .cfa: sp 96 +
STACK CFI 3eaf4 .cfa: sp 0 +
STACK CFI 3eaf8 .cfa: x29 96 +
STACK CFI INIT 3f0b4 364 .cfa: sp 0 +
STACK CFI 3f0b8 .cfa: sp 144 +
STACK CFI 3f0cc .cfa: x29 64 + x19: .cfa -8 + ^ x20: .cfa -16 + ^ x21: .cfa -24 + ^ x22: .cfa -32 + ^ x23: .cfa -48 + ^ .ra: .cfa -56 + ^ x29: .cfa -64 + ^
STACK CFI 3f260 .cfa: sp 144 +
STACK CFI 3f274 .cfa: sp 0 +
STACK CFI 3f278 .cfa: x29 64 +
STACK CFI INIT 3f418 678 .cfa: sp 0 +
STACK CFI 3f41c .cfa: sp 64 +
STACK CFI 3f42c .cfa: x29 64 + x19: .cfa -8 + ^ x20: .cfa -16 + ^ x21: .cfa -24 + ^ x22: .cfa -32 + ^ x23: .cfa -48 + ^ .ra: .cfa -56 + ^ x29: .cfa -64 + ^
STACK CFI 3f4a0 .cfa: sp 64 +
STACK CFI 3f4b0 .cfa: sp 0 +
STACK CFI 3f4b4 .cfa: x29 64 +
STACK CFI 3f4bc .cfa: sp 64 +
STACK CFI 3f4cc .cfa: sp 0 +
STACK CFI 3f4d0 .cfa: x29 64 +
STACK CFI 3f4fc .cfa: sp 64 +
STACK CFI 3f50c .cfa: sp 0 +
STACK CFI 3f510 .cfa: x29 64 +
STACK CFI 3f598 .cfa: sp 64 +
STACK CFI 3f5a8 .cfa: sp 0 +
STACK CFI 3f5ac .cfa: x29 64 +
STACK CFI 3f5dc .cfa: sp 64 +
STACK CFI 3f5ec .cfa: sp 0 +
STACK CFI 3f5f0 .cfa: x29 64 +
STACK CFI 3f774 .cfa: sp 64 +
STACK CFI 3f784 .cfa: sp 0 +
STACK CFI 3f788 .cfa: x29 64 +
STACK CFI 3f7a4 .cfa: sp 64 +
STACK CFI 3f7b4 .cfa: sp 0 +
STACK CFI 3f7b8 .cfa: x29 64 +
STACK CFI 3f954 .cfa: sp 64 +
STACK CFI 3f964 .cfa: sp 0 +
STACK CFI 3f968 .cfa: x29 64 +
STACK CFI 3f9f4 .cfa: sp 64 +
STACK CFI 3fa04 .cfa: sp 0 +
STACK CFI 3fa08 .cfa: x29 64 +
STACK CFI INIT 3fe90 bc0 .cfa: sp 0 +
STACK CFI 3fe94 .cfa: sp 320 +
STACK CFI 3feb0 .cfa: x29 96 + x19: .cfa -8 + ^ x20: .cfa -16 + ^ x21: .cfa -24 + ^ x22: .cfa -32 + ^ x23: .cfa -40 + ^ x24: .cfa -48 + ^ x25: .cfa -56 + ^ x26: .cfa -64 + ^ x27: .cfa -72 + ^ x28: .cfa -80 + ^ .ra: .cfa -88 + ^ x29: .cfa -96 + ^
STACK CFI 40800 .cfa: sp 320 +
STACK CFI 4081c .cfa: sp 0 +
STACK CFI 40820 .cfa: x29 96 +
STACK CFI INIT 41604 308 .cfa: sp 0 +
STACK CFI 41608 .cfa: sp 144 +
STACK CFI 41620 .cfa: x29 80 + x19: .cfa -8 + ^ x20: .cfa -16 + ^ x21: .cfa -24 + ^ x22: .cfa -32 + ^ x23: .cfa -40 + ^ x24: .cfa -48 + ^ x25: .cfa -64 + ^ .ra: .cfa -72 + ^ x29: .cfa -80 + ^
STACK CFI 41878 .cfa: sp 144 +
STACK CFI 41890 .cfa: sp 0 +
STACK CFI 41894 .cfa: x29 80 +
STACK CFI INIT 422c8 b68 .cfa: sp 0 +
STACK CFI 422cc .cfa: sp 96 +
STACK CFI 422e4 .cfa: x29 96 + x19: .cfa -8 + ^ x20: .cfa -16 + ^ x21: .cfa -24 + ^ x22: .cfa -32 + ^ x23: .cfa -40 + ^ x24: .cfa -48 + ^ x25: .cfa -56 + ^ x26: .cfa -64 + ^ x27: .cfa -72 + ^ x28: .cfa -80 + ^ .ra: .cfa -88 + ^ x29: .cfa -96 + ^
STACK CFI 42dc8 .cfa: sp 96 +
STACK CFI 42de0 .cfa: sp 0 +
STACK CFI 42de4 .cfa: x29 96 +
STACK CFI INIT 42e80 308 .cfa: sp 0 +
STACK CFI 42e84 .cfa: sp 176 +
STACK CFI 42e98 .cfa: x29 64 + x19: .cfa -8 + ^ x20: .cfa -16 + ^ x21: .cfa -24 + ^ x22: .cfa -32 + ^ x23: .cfa -48 + ^ .ra: .cfa -56 + ^ x29: .cfa -64 + ^
STACK CFI 43080 .cfa: sp 176 +
STACK CFI 43094 .cfa: sp 0 +
STACK CFI 43098 .cfa: x29 64 +
STACK CFI INIT 4318c 368 .cfa: sp 0 +
STACK CFI 43190 .cfa: sp 208 +
STACK CFI 431ac .cfa: x29 96 + x19: .cfa -8 + ^ x20: .cfa -16 + ^ x21: .cfa -24 + ^ x22: .cfa -32 + ^ x23: .cfa -40 + ^ x24: .cfa -48 + ^ x25: .cfa -56 + ^ x26: .cfa -64 + ^ x27: .cfa -72 + ^ x28: .cfa -80 + ^ .ra: .cfa -88 + ^ x29: .cfa -96 + ^
STACK CFI 43424 .cfa: sp 208 +
STACK CFI 43440 .cfa: sp 0 +
STACK CFI 43444 .cfa: x29 96 +
STACK CFI INIT 434f4 a8 .cfa: sp 0 +
STACK CFI 434f8 .cfa: sp 32 +
STACK CFI 43500 .cfa: x29 32 + x19: .cfa -16 + ^ .ra: .cfa -24 + ^ x29: .cfa -32 + ^
STACK CFI 43534 .cfa: sp 32 +
STACK CFI 4353c .cfa: sp 0 +
STACK CFI 43540 .cfa: x29 32 +
STACK CFI 43544 .cfa: sp 32 +
STACK CFI 4354c .cfa: sp 0 +
STACK CFI 43550 .cfa: x29 32 +
STACK CFI INIT 4369c 78 .cfa: sp 0 +
STACK CFI 436a0 .cfa: sp 32 +
STACK CFI 436a8 .cfa: x29 32 + x19: .cfa -8 + ^ x20: .cfa -16 + ^ .ra: .cfa -24 + ^ x29: .cfa -32 + ^
STACK CFI 436d4 .cfa: sp 32 +
STACK CFI 436dc .cfa: sp 0 +
STACK CFI 436e0 .cfa: x29 32 +
STACK CFI 436f4 .cfa: sp 32 +
STACK CFI 436fc .cfa: sp 0 +
STACK CFI 43700 .cfa: x29 32 +
STACK CFI INIT 43740 174 .cfa: sp 0 +
STACK CFI 43744 .cfa: sp 112 +
STACK CFI 43754 .cfa: x29 48 + x19: .cfa -8 + ^ x20: .cfa -16 + ^ x21: .cfa -32 + ^ .ra: .cfa -40 + ^ x29: .cfa -48 + ^
STACK CFI 43850 .cfa: sp 112 +
STACK CFI 43860 .cfa: sp 0 +
STACK CFI 43864 .cfa: x29 48 +
STACK CFI INIT 43a04 218 .cfa: sp 0 +
STACK CFI 43a08 .cfa: sp 80 +
STACK CFI 43a18 .cfa: x29 48 + x19: .cfa -8 + ^ x20: .cfa -16 + ^ x21: .cfa -24 + ^ x22: .cfa -32 + ^ .ra: .cfa -40 + ^ x29: .cfa -48 + ^
STACK CFI 43ba0 .cfa: sp 80 +
STACK CFI 43bb0 .cfa: sp 0 +
STACK CFI 43bb4 .cfa: x29 48 +
STACK CFI INIT 43c1c 480 .cfa: sp 0 +
STACK CFI 43c20 .cfa: sp 224 +
STACK CFI 43c3c .cfa: x29 96 + x19: .cfa -8 + ^ x20: .cfa -16 + ^ x21: .cfa -24 + ^ x22: .cfa -32 + ^ x23: .cfa -40 + ^ x24: .cfa -48 + ^ x25: .cfa -56 + ^ x26: .cfa -64 + ^ x27: .cfa -80 + ^ .ra: .cfa -88 + ^ x29: .cfa -96 + ^
STACK CFI 43ea8 .cfa: sp 224 +
STACK CFI 43ec4 .cfa: sp 0 +
STACK CFI 43ec8 .cfa: x29 96 +
STACK CFI 43f94 .cfa: sp 224 +
STACK CFI 43fb0 .cfa: sp 0 +
STACK CFI 43fb4 .cfa: x29 96 +
STACK CFI INIT 440b8 3ec .cfa: sp 0 +
STACK CFI 440bc .cfa: sp 288 +
STACK CFI 440d4 .cfa: x29 80 + x19: .cfa -8 + ^ x20: .cfa -16 + ^ x21: .cfa -24 + ^ x22: .cfa -32 + ^ x23: .cfa -40 + ^ x24: .cfa -48 + ^ x28: .cfa -64 + ^ .ra: .cfa -72 + ^ x29: .cfa -80 + ^
STACK CFI 44368 .cfa: sp 288 +
STACK CFI 44380 .cfa: sp 0 +
STACK CFI 44384 .cfa: x29 80 +
STACK CFI INIT 445e4 134 .cfa: sp 0 +
STACK CFI 445e8 .cfa: sp 80 +
STACK CFI 445f4 .cfa: x29 32 + x19: .cfa -8 + ^ x20: .cfa -16 + ^ .ra: .cfa -24 + ^ x29: .cfa -32 + ^
STACK CFI 44624 .cfa: sp 80 +
STACK CFI 44630 .cfa: sp 0 +
STACK CFI 44634 .cfa: x29 32 +
STACK CFI INIT 44718 78 .cfa: sp 0 +
STACK CFI 4471c .cfa: sp 32 +
STACK CFI 44724 .cfa: x29 32 + x19: .cfa -8 + ^ x20: .cfa -16 + ^ .ra: .cfa -24 + ^ x29: .cfa -32 + ^
STACK CFI 44730 .cfa: sp 32 +
STACK CFI 44738 .cfa: sp 0 +
STACK CFI 4473c .cfa: x29 32 +
STACK CFI INIT 44790 74 .cfa: sp 0 +
STACK CFI 44794 .cfa: sp 48 +
STACK CFI 447a0 .cfa: x29 32 + x19: .cfa -8 + ^ x20: .cfa -16 + ^ .ra: .cfa -24 + ^ x29: .cfa -32 + ^
STACK CFI 447ec .cfa: sp 48 +
STACK CFI 447f8 .cfa: sp 0 +
STACK CFI 447fc .cfa: x29 32 +
STACK CFI INIT 44904 180 .cfa: sp 0 +
STACK CFI 44908 .cfa: sp 128 +
STACK CFI 44918 .cfa: x29 48 + x19: .cfa -8 + ^ x20: .cfa -16 + ^ x21: .cfa -24 + ^ x22: .cfa -32 + ^ .ra: .cfa -40 + ^ x29: .cfa -48 + ^
STACK CFI 4497c .cfa: sp 128 +
STACK CFI 4498c .cfa: sp 0 +
STACK CFI 44990 .cfa: x29 48 +
STACK CFI INIT 44a84 ac .cfa: sp 0 +
STACK CFI 44a88 .cfa: sp 64 +
STACK CFI 44a98 .cfa: x29 48 + x19: .cfa -8 + ^ x20: .cfa -16 + ^ x21: .cfa -32 + ^ .ra: .cfa -40 + ^ x29: .cfa -48 + ^
STACK CFI 44b04 .cfa: sp 64 +
STACK CFI 44b14 .cfa: sp 0 +
STACK CFI 44b18 .cfa: x29 48 +
STACK CFI INIT 44b30 198 .cfa: sp 0 +
STACK CFI 44b34 .cfa: sp 144 +
STACK CFI 44b48 .cfa: x29 64 + x19: .cfa -8 + ^ x20: .cfa -16 + ^ x21: .cfa -24 + ^ x22: .cfa -32 + ^ x23: .cfa -40 + ^ x24: .cfa -48 + ^ .ra: .cfa -56 + ^ x29: .cfa -64 + ^
STACK CFI 44bbc .cfa: sp 144 +
STACK CFI 44bd0 .cfa: sp 0 +
STACK CFI 44bd4 .cfa: x29 64 +
STACK CFI INIT 44cc8 2c0 .cfa: sp 0 +
STACK CFI 44ccc .cfa: sp 96 +
STACK CFI 44ce4 .cfa: x29 80 + x19: .cfa -8 + ^ x20: .cfa -16 + ^ x21: .cfa -24 + ^ x22: .cfa -32 + ^ x23: .cfa -40 + ^ x24: .cfa -48 + ^ x25: .cfa -64 + ^ .ra: .cfa -72 + ^ x29: .cfa -80 + ^
STACK CFI 44f24 .cfa: sp 96 +
STACK CFI 44f3c .cfa: sp 0 +
STACK CFI 44f40 .cfa: x29 80 +
STACK CFI INIT 44f88 814 .cfa: sp 0 +
STACK CFI 44f8c .cfa: sp 128 +
STACK CFI 44fa0 .cfa: x29 64 + x19: .cfa -8 + ^ x20: .cfa -16 + ^ x21: .cfa -24 + ^ x22: .cfa -32 + ^ x23: .cfa -48 + ^ .ra: .cfa -56 + ^ x29: .cfa -64 + ^
STACK CFI 455d4 .cfa: sp 128 +
STACK CFI 455e8 .cfa: sp 0 +
STACK CFI 455ec .cfa: x29 64 +
STACK CFI INIT 4579c 7b0 .cfa: sp 0 +
STACK CFI 457a0 .cfa: sp 80 +
STACK CFI 457b4 .cfa: x29 80 + x19: .cfa -8 + ^ x20: .cfa -16 + ^ x21: .cfa -24 + ^ x22: .cfa -32 + ^ x23: .cfa -40 + ^ x24: .cfa -48 + ^ x25: .cfa -56 + ^ x26: .cfa -64 + ^ .ra: .cfa -72 + ^ x29: .cfa -80 + ^
STACK CFI 45bd0 .cfa: sp 80 +
STACK CFI 45be4 .cfa: sp 0 +
STACK CFI 45be8 .cfa: x29 80 +
STACK CFI INIT 45fa0 16c .cfa: sp 0 +
STACK CFI 45fa4 .cfa: sp 160 +
STACK CFI 45fbc .cfa: x29 80 + x19: .cfa -8 + ^ x20: .cfa -16 + ^ x21: .cfa -24 + ^ x22: .cfa -32 + ^ x23: .cfa -40 + ^ x24: .cfa -48 + ^ x25: .cfa -56 + ^ x26: .cfa -64 + ^ .ra: .cfa -72 + ^ x29: .cfa -80 + ^
STACK CFI 46024 .cfa: sp 160 +
STACK CFI 4603c .cfa: sp 0 +
STACK CFI 46040 .cfa: x29 80 +
STACK CFI INIT 4610c 4ac .cfa: sp 0 +
STACK CFI 46110 .cfa: sp 128 +
STACK CFI 46128 .cfa: x29 80 + x19: .cfa -8 + ^ x20: .cfa -16 + ^ x21: .cfa -24 + ^ x22: .cfa -32 + ^ x23: .cfa -40 + ^ x24: .cfa -48 + ^ x25: .cfa -64 + ^ .ra: .cfa -72 + ^ x29: .cfa -80 + ^
STACK CFI 46534 .cfa: sp 128 +
STACK CFI 4654c .cfa: sp 0 +
STACK CFI 46550 .cfa: x29 80 +
STACK CFI INIT 465c0 17c .cfa: sp 0 +
STACK CFI 465c4 .cfa: sp 176 +
STACK CFI 465e0 .cfa: x29 80 + x19: .cfa -8 + ^ x20: .cfa -16 + ^ x21: .cfa -24 + ^ x22: .cfa -32 + ^ x23: .cfa -40 + ^ x24: .cfa -48 + ^ x25: .cfa -56 + ^ x26: .cfa -64 + ^ .ra: .cfa -72 + ^ x29: .cfa -80 + ^ v8: .cfa -96 + ^
STACK CFI 46650 .cfa: sp 176 +
STACK CFI 4666c .cfa: sp 0 +
STACK CFI 46670 .cfa: x29 80 +
STACK CFI INIT 4673c 5ac .cfa: sp 0 +
STACK CFI 46740 .cfa: sp 128 +
STACK CFI 46758 .cfa: x29 80 + x19: .cfa -8 + ^ x20: .cfa -16 + ^ x21: .cfa -24 + ^ x22: .cfa -32 + ^ x23: .cfa -40 + ^ x24: .cfa -48 + ^ x25: .cfa -64 + ^ .ra: .cfa -72 + ^ x29: .cfa -80 + ^
STACK CFI 46c54 .cfa: sp 128 +
STACK CFI 46c6c .cfa: sp 0 +
STACK CFI 46c70 .cfa: x29 80 +
STACK CFI INIT 46cf0 15c .cfa: sp 0 +
STACK CFI 46cf4 .cfa: sp 144 +
STACK CFI 46d0c .cfa: x29 56 + x19: .cfa -8 + ^ x20: .cfa -16 + ^ x21: .cfa -24 + ^ x22: .cfa -32 + ^ x23: .cfa -40 + ^ .ra: .cfa -48 + ^ x29: .cfa -56 + ^ v8: .cfa -64 + ^
STACK CFI 46d64 .cfa: sp 144 +
STACK CFI 46d7c .cfa: sp 0 +
STACK CFI 46d80 .cfa: x29 56 +
STACK CFI INIT 46e4c 2d4 .cfa: sp 0 +
STACK CFI 46e50 .cfa: sp 96 +
STACK CFI 46e68 .cfa: x29 80 + x19: .cfa -8 + ^ x20: .cfa -16 + ^ x21: .cfa -24 + ^ x22: .cfa -32 + ^ x23: .cfa -40 + ^ x24: .cfa -48 + ^ x25: .cfa -64 + ^ .ra: .cfa -72 + ^ x29: .cfa -80 + ^
STACK CFI 470bc .cfa: sp 96 +
STACK CFI 470d4 .cfa: sp 0 +
STACK CFI 470d8 .cfa: x29 80 +
STACK CFI INIT 47128 14c .cfa: sp 0 +
STACK CFI 4712c .cfa: sp 144 +
STACK CFI 47140 .cfa: x29 64 + x19: .cfa -8 + ^ x20: .cfa -16 + ^ x21: .cfa -24 + ^ x22: .cfa -32 + ^ x23: .cfa -48 + ^ .ra: .cfa -56 + ^ x29: .cfa -64 + ^
STACK CFI 47190 .cfa: sp 144 +
STACK CFI 471a4 .cfa: sp 0 +
STACK CFI 471a8 .cfa: x29 64 +
STACK CFI INIT 47274 108 .cfa: sp 0 +
STACK CFI 47278 .cfa: sp 64 +
STACK CFI 47288 .cfa: x29 48 + x19: .cfa -8 + ^ x20: .cfa -16 + ^ x21: .cfa -24 + ^ x22: .cfa -32 + ^ .ra: .cfa -40 + ^ x29: .cfa -48 + ^
STACK CFI 47334 .cfa: sp 64 +
STACK CFI 47344 .cfa: sp 0 +
STACK CFI 47348 .cfa: x29 48 +
STACK CFI INIT 47394 164 .cfa: sp 0 +
STACK CFI 47398 .cfa: sp 160 +
STACK CFI 473b0 .cfa: x29 80 + x19: .cfa -8 + ^ x20: .cfa -16 + ^ x21: .cfa -24 + ^ x22: .cfa -32 + ^ x23: .cfa -40 + ^ x24: .cfa -48 + ^ x25: .cfa -64 + ^ .ra: .cfa -72 + ^ x29: .cfa -80 + ^
STACK CFI 47410 .cfa: sp 160 +
STACK CFI 47428 .cfa: sp 0 +
STACK CFI 4742c .cfa: x29 80 +
STACK CFI INIT 474f8 3d4 .cfa: sp 0 +
STACK CFI 474fc .cfa: sp 96 +
STACK CFI 47514 .cfa: x29 80 + x19: .cfa -8 + ^ x20: .cfa -16 + ^ x21: .cfa -24 + ^ x22: .cfa -32 + ^ x23: .cfa -40 + ^ x24: .cfa -48 + ^ x25: .cfa -64 + ^ .ra: .cfa -72 + ^ x29: .cfa -80 + ^
STACK CFI 47858 .cfa: sp 96 +
STACK CFI 47870 .cfa: sp 0 +
STACK CFI 47874 .cfa: x29 80 +
STACK CFI INIT 478cc 17c .cfa: sp 0 +
STACK CFI 478d0 .cfa: sp 176 +
STACK CFI 478ec .cfa: x29 96 + x19: .cfa -8 + ^ x20: .cfa -16 + ^ x21: .cfa -24 + ^ x22: .cfa -32 + ^ x23: .cfa -40 + ^ x24: .cfa -48 + ^ x25: .cfa -56 + ^ x26: .cfa -64 + ^ x27: .cfa -80 + ^ .ra: .cfa -88 + ^ x29: .cfa -96 + ^
STACK CFI 4795c .cfa: sp 176 +
STACK CFI 47978 .cfa: sp 0 +
STACK CFI 4797c .cfa: x29 96 +
STACK CFI INIT 47a48 5d4 .cfa: sp 0 +
STACK CFI 47a4c .cfa: sp 96 +
STACK CFI 47a64 .cfa: x29 80 + x19: .cfa -8 + ^ x20: .cfa -16 + ^ x21: .cfa -24 + ^ x22: .cfa -32 + ^ x23: .cfa -40 + ^ x24: .cfa -48 + ^ x25: .cfa -64 + ^ .ra: .cfa -72 + ^ x29: .cfa -80 + ^
STACK CFI 47f88 .cfa: sp 96 +
STACK CFI 47fa0 .cfa: sp 0 +
STACK CFI 47fa4 .cfa: x29 80 +
STACK CFI INIT 4801c 14c .cfa: sp 0 +
STACK CFI 48020 .cfa: sp 144 +
STACK CFI 48034 .cfa: x29 64 + x19: .cfa -8 + ^ x20: .cfa -16 + ^ x21: .cfa -24 + ^ x22: .cfa -32 + ^ x23: .cfa -48 + ^ .ra: .cfa -56 + ^ x29: .cfa -64 + ^
STACK CFI 48084 .cfa: sp 144 +
STACK CFI 48098 .cfa: sp 0 +
STACK CFI 4809c .cfa: x29 64 +
STACK CFI INIT 48168 108 .cfa: sp 0 +
STACK CFI 4816c .cfa: sp 64 +
STACK CFI 4817c .cfa: x29 48 + x19: .cfa -8 + ^ x20: .cfa -16 + ^ x21: .cfa -24 + ^ x22: .cfa -32 + ^ .ra: .cfa -40 + ^ x29: .cfa -48 + ^
STACK CFI 48228 .cfa: sp 64 +
STACK CFI 48238 .cfa: sp 0 +
STACK CFI 4823c .cfa: x29 48 +
STACK CFI INIT 48270 354 .cfa: sp 0 +
STACK CFI 48274 .cfa: sp 128 +
STACK CFI 48288 .cfa: x29 64 + x19: .cfa -8 + ^ x20: .cfa -16 + ^ x21: .cfa -24 + ^ x22: .cfa -32 + ^ x23: .cfa -48 + ^ .ra: .cfa -56 + ^ x29: .cfa -64 + ^
STACK CFI 48470 .cfa: sp 128 +
STACK CFI 48484 .cfa: sp 0 +
STACK CFI 48488 .cfa: x29 64 +
STACK CFI INIT 48618 14c .cfa: sp 0 +
STACK CFI 4861c .cfa: sp 144 +
STACK CFI 48630 .cfa: x29 64 + x19: .cfa -8 + ^ x20: .cfa -16 + ^ x21: .cfa -24 + ^ x22: .cfa -32 + ^ x23: .cfa -48 + ^ .ra: .cfa -56 + ^ x29: .cfa -64 + ^
STACK CFI 48680 .cfa: sp 144 +
STACK CFI 48694 .cfa: sp 0 +
STACK CFI 48698 .cfa: x29 64 +
STACK CFI INIT 48764 108 .cfa: sp 0 +
STACK CFI 48768 .cfa: sp 64 +
STACK CFI 48778 .cfa: x29 48 + x19: .cfa -8 + ^ x20: .cfa -16 + ^ x21: .cfa -24 + ^ x22: .cfa -32 + ^ .ra: .cfa -40 + ^ x29: .cfa -48 + ^
STACK CFI 48824 .cfa: sp 64 +
STACK CFI 48834 .cfa: sp 0 +
STACK CFI 48838 .cfa: x29 48 +
STACK CFI INIT 48888 278 .cfa: sp 0 +
STACK CFI 4888c .cfa: sp 128 +
STACK CFI 488a0 .cfa: x29 64 + x19: .cfa -8 + ^ x20: .cfa -16 + ^ x21: .cfa -24 + ^ x22: .cfa -32 + ^ x23: .cfa -48 + ^ .ra: .cfa -56 + ^ x29: .cfa -64 + ^
STACK CFI 489ac .cfa: sp 128 +
STACK CFI 489c0 .cfa: sp 0 +
STACK CFI 489c4 .cfa: x29 64 +
STACK CFI INIT 48b00 2c8 .cfa: sp 0 +
STACK CFI 48b04 .cfa: sp 128 +
STACK CFI 48b18 .cfa: x29 64 + x19: .cfa -8 + ^ x20: .cfa -16 + ^ x21: .cfa -24 + ^ x22: .cfa -32 + ^ x23: .cfa -48 + ^ .ra: .cfa -56 + ^ x29: .cfa -64 + ^
STACK CFI 48c74 .cfa: sp 128 +
STACK CFI 48c88 .cfa: sp 0 +
STACK CFI 48c8c .cfa: x29 64 +
STACK CFI INIT 48dc8 4cc .cfa: sp 0 +
STACK CFI 48dcc .cfa: sp 128 +
STACK CFI 48de0 .cfa: x29 64 + x19: .cfa -8 + ^ x20: .cfa -16 + ^ x21: .cfa -24 + ^ x22: .cfa -32 + ^ x23: .cfa -48 + ^ .ra: .cfa -56 + ^ x29: .cfa -64 + ^
STACK CFI 490ec .cfa: sp 128 +
STACK CFI 49100 .cfa: sp 0 +
STACK CFI 49104 .cfa: x29 64 +
STACK CFI INIT 49294 154 .cfa: sp 0 +
STACK CFI 49298 .cfa: sp 384 +
STACK CFI 492ac .cfa: x29 64 + x19: .cfa -8 + ^ x20: .cfa -16 + ^ x21: .cfa -24 + ^ x22: .cfa -32 + ^ x23: .cfa -40 + ^ x28: .cfa -48 + ^ .ra: .cfa -56 + ^ x29: .cfa -64 + ^
STACK CFI 49390 .cfa: sp 384 +
STACK CFI 493a4 .cfa: sp 0 +
STACK CFI 493a8 .cfa: x29 64 +
STACK CFI INIT 493e8 168 .cfa: sp 0 +
STACK CFI 493ec .cfa: sp 384 +
STACK CFI 49400 .cfa: x29 64 + x19: .cfa -8 + ^ x20: .cfa -16 + ^ x21: .cfa -24 + ^ x22: .cfa -32 + ^ x23: .cfa -40 + ^ x28: .cfa -48 + ^ .ra: .cfa -56 + ^ x29: .cfa -64 + ^
STACK CFI 494f8 .cfa: sp 384 +
STACK CFI 4950c .cfa: sp 0 +
STACK CFI 49510 .cfa: x29 64 +
STACK CFI INIT 49568 4e0 .cfa: sp 0 +
STACK CFI 4956c .cfa: sp 64 +
STACK CFI 4957c .cfa: x29 64 + x19: .cfa -8 + ^ x20: .cfa -16 + ^ x21: .cfa -24 + ^ x22: .cfa -32 + ^ x23: .cfa -40 + ^ x24: .cfa -48 + ^ .ra: .cfa -56 + ^ x29: .cfa -64 + ^
STACK CFI 49a1c .cfa: sp 64 +
STACK CFI 49a2c .cfa: sp 0 +
STACK CFI 49a30 .cfa: x29 64 +
STACK CFI INIT 49d78 294 .cfa: sp 0 +
STACK CFI 49d7c .cfa: sp 240 +
STACK CFI 49d94 .cfa: x29 80 + x19: .cfa -8 + ^ x20: .cfa -16 + ^ x21: .cfa -24 + ^ x22: .cfa -32 + ^ x23: .cfa -40 + ^ x24: .cfa -48 + ^ x25: .cfa -64 + ^ .ra: .cfa -72 + ^ x29: .cfa -80 + ^
STACK CFI 49f34 .cfa: sp 240 +
STACK CFI 49f4c .cfa: sp 0 +
STACK CFI 49f50 .cfa: x29 80 +
STACK CFI INIT 4a088 50 .cfa: sp 0 +
STACK CFI 4a08c .cfa: sp 32 +
STACK CFI 4a094 .cfa: x29 32 + x19: .cfa -8 + ^ x20: .cfa -16 + ^ .ra: .cfa -24 + ^ x29: .cfa -32 + ^
STACK CFI INIT 4a104 7c0 .cfa: sp 0 +
STACK CFI 4a108 .cfa: sp 320 +
STACK CFI 4a124 .cfa: x29 96 + x19: .cfa -8 + ^ x20: .cfa -16 + ^ x21: .cfa -24 + ^ x22: .cfa -32 + ^ x23: .cfa -40 + ^ x24: .cfa -48 + ^ x25: .cfa -56 + ^ x26: .cfa -64 + ^ x27: .cfa -72 + ^ x28: .cfa -80 + ^ .ra: .cfa -88 + ^ x29: .cfa -96 + ^
STACK CFI 4a774 .cfa: sp 320 +
STACK CFI 4a790 .cfa: sp 0 +
STACK CFI 4a794 .cfa: x29 96 +
STACK CFI INIT 4a928 13c .cfa: sp 0 +
STACK CFI 4a92c .cfa: sp 80 +
STACK CFI 4a940 .cfa: x29 80 + x19: .cfa -8 + ^ x20: .cfa -16 + ^ x21: .cfa -24 + ^ x22: .cfa -32 + ^ x23: .cfa -40 + ^ x24: .cfa -48 + ^ x28: .cfa -64 + ^ .ra: .cfa -72 + ^ x29: .cfa -80 + ^
STACK CFI 4a9d4 .cfa: sp 80 +
STACK CFI 4a9e8 .cfa: sp 0 +
STACK CFI 4a9ec .cfa: x29 80 +
STACK CFI INIT 4ed80 c74 .cfa: sp 0 +
STACK CFI 4ed84 .cfa: sp 96 +
STACK CFI 4ed9c .cfa: x29 96 + x19: .cfa -8 + ^ x20: .cfa -16 + ^ x21: .cfa -24 + ^ x22: .cfa -32 + ^ x23: .cfa -40 + ^ x24: .cfa -48 + ^ x25: .cfa -56 + ^ x26: .cfa -64 + ^ x27: .cfa -72 + ^ x28: .cfa -80 + ^ .ra: .cfa -88 + ^ x29: .cfa -96 + ^
STACK CFI 4f814 .cfa: sp 96 +
STACK CFI 4f82c .cfa: sp 0 +
STACK CFI 4f830 .cfa: x29 96 +
STACK CFI INIT 4fb48 26c .cfa: sp 0 +
STACK CFI 4fb4c .cfa: sp 128 +
STACK CFI 4fb5c .cfa: x29 48 + x19: .cfa -8 + ^ x20: .cfa -16 + ^ x21: .cfa -24 + ^ x22: .cfa -32 + ^ .ra: .cfa -40 + ^ x29: .cfa -48 + ^
STACK CFI 4fd00 .cfa: sp 128 +
STACK CFI 4fd10 .cfa: sp 0 +
STACK CFI 4fd14 .cfa: x29 48 +
STACK CFI INIT 50144 3b8 .cfa: sp 0 +
STACK CFI 50148 .cfa: sp 96 +
STACK CFI 50160 .cfa: x29 96 + x19: .cfa -8 + ^ x20: .cfa -16 + ^ x21: .cfa -24 + ^ x22: .cfa -32 + ^ x23: .cfa -40 + ^ x24: .cfa -48 + ^ x25: .cfa -56 + ^ x26: .cfa -64 + ^ x27: .cfa -72 + ^ x28: .cfa -80 + ^ .ra: .cfa -88 + ^ x29: .cfa -96 + ^
STACK CFI 5049c .cfa: sp 96 +
STACK CFI 504b4 .cfa: sp 0 +
STACK CFI 504b8 .cfa: x29 96 +
STACK CFI INIT 5059c cb4 .cfa: sp 0 +
STACK CFI 505a0 .cfa: sp 96 +
STACK CFI 505b8 .cfa: x29 96 + x19: .cfa -8 + ^ x20: .cfa -16 + ^ x21: .cfa -24 + ^ x22: .cfa -32 + ^ x23: .cfa -40 + ^ x24: .cfa -48 + ^ x25: .cfa -56 + ^ x26: .cfa -64 + ^ x27: .cfa -72 + ^ x28: .cfa -80 + ^ .ra: .cfa -88 + ^ x29: .cfa -96 + ^
STACK CFI 51060 .cfa: sp 96 +
STACK CFI 51078 .cfa: sp 0 +
STACK CFI 5107c .cfa: x29 96 +
STACK CFI INIT 51538 afc .cfa: sp 0 +
STACK CFI 5153c .cfa: sp 96 +
STACK CFI 51554 .cfa: x29 96 + x19: .cfa -8 + ^ x20: .cfa -16 + ^ x21: .cfa -24 + ^ x22: .cfa -32 + ^ x23: .cfa -40 + ^ x24: .cfa -48 + ^ x25: .cfa -56 + ^ x26: .cfa -64 + ^ x27: .cfa -72 + ^ x28: .cfa -80 + ^ .ra: .cfa -88 + ^ x29: .cfa -96 + ^
STACK CFI 51fa8 .cfa: sp 96 +
STACK CFI 51fc0 .cfa: sp 0 +
STACK CFI 51fc4 .cfa: x29 96 +
STACK CFI INIT 52210 1430 .cfa: sp 0 +
STACK CFI 52214 .cfa: sp 96 +
STACK CFI 5222c .cfa: x29 96 + x19: .cfa -8 + ^ x20: .cfa -16 + ^ x21: .cfa -24 + ^ x22: .cfa -32 + ^ x23: .cfa -40 + ^ x24: .cfa -48 + ^ x25: .cfa -56 + ^ x26: .cfa -64 + ^ x27: .cfa -72 + ^ x28: .cfa -80 + ^ .ra: .cfa -88 + ^ x29: .cfa -96 + ^
STACK CFI 534c8 .cfa: sp 96 +
STACK CFI 534e0 .cfa: sp 0 +
STACK CFI 534e4 .cfa: x29 96 +
STACK CFI INIT 53764 75c .cfa: sp 0 +
STACK CFI 53768 .cfa: sp 368 +
STACK CFI 53784 .cfa: x29 96 + x19: .cfa -8 + ^ x20: .cfa -16 + ^ x21: .cfa -24 + ^ x22: .cfa -32 + ^ x23: .cfa -40 + ^ x24: .cfa -48 + ^ x25: .cfa -56 + ^ x26: .cfa -64 + ^ x27: .cfa -72 + ^ x28: .cfa -80 + ^ .ra: .cfa -88 + ^ x29: .cfa -96 + ^
STACK CFI 53838 .cfa: sp 368 +
STACK CFI 53854 .cfa: sp 0 +
STACK CFI 53858 .cfa: x29 96 +
STACK CFI 538ac .cfa: sp 368 +
STACK CFI 538c8 .cfa: sp 0 +
STACK CFI 538cc .cfa: x29 96 +
STACK CFI INIT 54280 eb0 .cfa: sp 0 +
STACK CFI 54284 .cfa: sp 96 +
STACK CFI 5429c .cfa: x29 96 + x19: .cfa -8 + ^ x20: .cfa -16 + ^ x21: .cfa -24 + ^ x22: .cfa -32 + ^ x23: .cfa -40 + ^ x24: .cfa -48 + ^ x25: .cfa -56 + ^ x26: .cfa -64 + ^ x27: .cfa -72 + ^ x28: .cfa -80 + ^ .ra: .cfa -88 + ^ x29: .cfa -96 + ^
STACK CFI 54f44 .cfa: sp 96 +
STACK CFI 54f5c .cfa: sp 0 +
STACK CFI 54f60 .cfa: x29 96 +
STACK CFI INIT 554a4 1c9c .cfa: sp 0 +
STACK CFI 554a8 .cfa: sp 112 +
STACK CFI 554c4 .cfa: x29 96 + x19: .cfa -8 + ^ x20: .cfa -16 + ^ x21: .cfa -24 + ^ x22: .cfa -32 + ^ x23: .cfa -40 + ^ x24: .cfa -48 + ^ x25: .cfa -56 + ^ x26: .cfa -64 + ^ x27: .cfa -72 + ^ x28: .cfa -80 + ^ .ra: .cfa -88 + ^ x29: .cfa -96 + ^ v8: .cfa -112 + ^
STACK CFI 558ac .cfa: sp 112 +
STACK CFI 558c8 .cfa: sp 0 +
STACK CFI 558cc .cfa: x29 96 +
STACK CFI INIT 59904 9a0 .cfa: sp 0 +
STACK CFI 59908 .cfa: sp 144 +
STACK CFI 59920 .cfa: x29 80 + x19: .cfa -8 + ^ x20: .cfa -16 + ^ x21: .cfa -24 + ^ x22: .cfa -32 + ^ x23: .cfa -40 + ^ x24: .cfa -48 + ^ x25: .cfa -64 + ^ .ra: .cfa -72 + ^ x29: .cfa -80 + ^
STACK CFI 5a220 .cfa: sp 144 +
STACK CFI 5a238 .cfa: sp 0 +
STACK CFI 5a23c .cfa: x29 80 +
STACK CFI INIT 5b7c8 57c .cfa: sp 0 +
STACK CFI 5b7cc .cfa: sp 96 +
STACK CFI 5b7e4 .cfa: x29 96 + x19: .cfa -8 + ^ x20: .cfa -16 + ^ x21: .cfa -24 + ^ x22: .cfa -32 + ^ x23: .cfa -40 + ^ x24: .cfa -48 + ^ x25: .cfa -56 + ^ x26: .cfa -64 + ^ x27: .cfa -72 + ^ x28: .cfa -80 + ^ .ra: .cfa -88 + ^ x29: .cfa -96 + ^
STACK CFI 5bca8 .cfa: sp 96 +
STACK CFI 5bcc0 .cfa: sp 0 +
STACK CFI 5bcc4 .cfa: x29 96 +
STACK CFI INIT 5bd44 67c .cfa: sp 0 +
STACK CFI 5bd48 .cfa: sp 96 +
STACK CFI 5bd60 .cfa: x29 96 + x19: .cfa -8 + ^ x20: .cfa -16 + ^ x21: .cfa -24 + ^ x22: .cfa -32 + ^ x23: .cfa -40 + ^ x24: .cfa -48 + ^ x25: .cfa -56 + ^ x26: .cfa -64 + ^ x27: .cfa -72 + ^ x28: .cfa -80 + ^ .ra: .cfa -88 + ^ x29: .cfa -96 + ^
STACK CFI 5c324 .cfa: sp 96 +
STACK CFI 5c33c .cfa: sp 0 +
STACK CFI 5c340 .cfa: x29 96 +
