MODULE Linux arm64 CEF52C0BFE7EE1250E1D0DBBB3FFC7A40 techstudent10.settings_plus.android64.so
INFO CODE_ID 0B2CF5CE7EFE25E10E1D0DBBB3FFC7A4441C8CBA
INFO GENERATOR mozilla/dump_syms 2.3.4
PUBLIC 18e20 0 __on_dlclose
PUBLIC 18e30 0 __emutls_unregister_key
PUBLIC 18e38 0 __on_dlclose_late
PUBLIC 18e40 0 __atexit_handler_wrapper
PUBLIC 18e54 0 atexit
PUBLIC 18e70 0 pthread_atfork
PUBLIC 18e80 0 __aarch64_ldadd8_relax
PUBLIC 18eb0 0 init_have_lse_atomics
PUBLIC 18f48 0 __init_cpu_features_constructor
PUBLIC 194e4 0 __init_cpu_features
PUBLIC 19570 0 __aarch64_ldadd8_acq_rel
PUBLIC 195a0 0 __cxx_global_var_init
PUBLIC 1a140 0 geode::modifier::ModifyBase<geode::modifier::ModifyDerive<hook8<(anonymous namespace)::hook8Parent>, OptionsLayer> >::~ModifyBase()
PUBLIC 1a158 0 geode::modifier::ModifyDerive<hook8<(anonymous namespace)::hook8Parent>, OptionsLayer>::apply()
PUBLIC 1a5e0 0 std::__ndk1::shared_ptr<geode::Hook>::~shared_ptr[abi:ne180000]()
PUBLIC 1a630 0 geode::impl::ResultData<geode::Hook*, std::__ndk1::basic_string<char, std::__ndk1::char_traits<char>, std::__ndk1::allocator<char> > >::~ResultData()
PUBLIC 1a6a4 0 std::__ndk1::vector<std::__ndk1::basic_string<char, std::__ndk1::char_traits<char>, std::__ndk1::allocator<char> >, std::__ndk1::allocator<std::__ndk1::basic_string<char, std::__ndk1::char_traits<char>, std::__ndk1::allocator<char> > > >::~vector[abi:ne180000]()
PUBLIC 1a720 0 geode::modifier::ModifyBase<geode::modifier::ModifyDerive<hook8<(anonymous namespace)::hook8Parent>, OptionsLayer> >::apply()
PUBLIC 1a724 0 __clang_call_terminate
PUBLIC 1a734 0 _ZN5geode15UnwrapExceptionC2IRPNS_4HookEQsr4implE18IsStringStreamableIT_EEENS_4impl5OkTagEOS5_
PUBLIC 1a888 0 std::__ndk1::__throw_bad_variant_access[abi:ne180000]()
PUBLIC 1a8bc 0 std::__ndk1::basic_stringstream<char, std::__ndk1::char_traits<char>, std::__ndk1::allocator<char> >::basic_stringstream[abi:ne180000]()
PUBLIC m 1a9e8 0 std::__ndk1::basic_stringstream<char, std::__ndk1::char_traits<char>, std::__ndk1::allocator<char> >::~basic_stringstream()
PUBLIC 1aa68 0 geode::UnwrapException::~UnwrapException()
PUBLIC 1aa8c 0 std::__ndk1::__put_character_sequence[abi:ne180000]<char, std::__ndk1::char_traits<char> >(std::__ndk1::basic_ostream<char, std::__ndk1::char_traits<char> >, std::__ndk1::basic_ostream const*, unsigned long)
PUBLIC 1ac30 0 std::__ndk1::__pad_and_output[abi:ne180000]<char, std::__ndk1::char_traits<char> >(std::__ndk1::char_traits<char>, std::__ndk1::ostreambuf_iterator const*, std::__ndk1::ostreambuf_iterator const, std::__ndk1::ostreambuf_iterator const, std::__ndk1::ios_base&, std::__ndk1::ostreambuf_iterator)
PUBLIC 1ae0c 0 std::__ndk1::basic_string<char, std::__ndk1::char_traits<char>, std::__ndk1::allocator<char> >::__throw_length_error[abi:ne180000]() const
PUBLIC 1ae20 0 std::__ndk1::__throw_length_error[abi:ne180000](char const*)
PUBLIC 1ae70 0 std::length_error::length_error[abi:ne180000](char const*)
PUBLIC 1aea0 0 std::__throw_bad_array_new_length([abi:ne180000], void)
PUBLIC 1aed4 0 std::__ndk1::basic_stringbuf<char, std::__ndk1::char_traits<char>, std::__ndk1::allocator<char> >::str[abi:ne180000]() &&
PUBLIC 1b04c 0 std::__ndk1::basic_stringbuf<char, std::__ndk1::char_traits<char>, std::__ndk1::allocator<char> >::__init_buf_ptrs[abi:ne180000]()
PUBLIC 1b194 0 std::__ndk1::basic_string<char, std::__ndk1::char_traits<char>, std::__ndk1::allocator<char> >::__init_copy_ctor_external(char const*, unsigned long)
PUBLIC 1b214 0 std::__ndk1::__split_buffer<std::__ndk1::basic_string<char, std::__ndk1::char_traits<char>, std::__ndk1::allocator<char> >, std::__ndk1::allocator<std::__ndk1::basic_string<char, std::__ndk1::char_traits<char>, std::__ndk1::allocator<char> > >&>::~__split_buffer()
PUBLIC 1b27c 0 std::__ndk1::vector<std::__ndk1::basic_string<char, std::__ndk1::char_traits<char>, std::__ndk1::allocator<char> >, std::__ndk1::allocator<std::__ndk1::basic_string<char, std::__ndk1::char_traits<char>, std::__ndk1::allocator<char> > > >::__throw_length_error[abi:ne180000]() const
PUBLIC 1b290 0 std::__ndk1::__variant_detail::__visitation::__base::__dispatcher<(unsigned long)0>::__dispatch[abi:ne180000]<std::__ndk1::__variant_detail::__dtor<std::__ndk1::__variant_detail::__traits<geode::Hook*, std::__ndk1::basic_string<char, std::__ndk1::char_traits<char>, std::__ndk1::allocator<char> > >, (std::__ndk1::__variant_detail::_Trait)1>::__destroy[abi:ne180000]()::{lambda(auto:1&)#1}, std::__ndk1::__variant_detail::__base<(std::__ndk1::__variant_detail::__traits<geode::Hook*, std::__ndk1::basic_string<char, std::__ndk1::char_traits<char>, std::__ndk1::allocator<char> > >)1, geode::Hook, std::__ndk1::allocator<char> >&>(std::__ndk1::__variant_detail::__dtor<std::__ndk1::__variant_detail::__traits<geode::Hook*, std::__ndk1::basic_string<char, std::__ndk1::char_traits<char>, std::__ndk1::allocator<char> > >, (std::__ndk1::__variant_detail::_Trait)1>, std::__ndk1::__variant_detail::__base<(std::__ndk1::__variant_detail::__traits<geode::Hook*, std::__ndk1::basic_string<char, std::__ndk1::char_traits<char>, std::__ndk1::allocator<char> > >)1, geode::Hook, std::__ndk1::allocator<char> >&)
PUBLIC 1b294 0 std::__ndk1::__variant_detail::__visitation::__base::__dispatcher<(unsigned long)1>::__dispatch[abi:ne180000]<std::__ndk1::__variant_detail::__dtor<std::__ndk1::__variant_detail::__traits<geode::Hook*, std::__ndk1::basic_string<char, std::__ndk1::char_traits<char>, std::__ndk1::allocator<char> > >, (std::__ndk1::__variant_detail::_Trait)1>::__destroy[abi:ne180000]()::{lambda(auto:1&)#1}, std::__ndk1::__variant_detail::__base<(std::__ndk1::__variant_detail::__traits<geode::Hook*, std::__ndk1::basic_string<char, std::__ndk1::char_traits<char>, std::__ndk1::allocator<char> > >)1, geode::Hook, std::__ndk1::allocator<char> >&>(std::__ndk1::__variant_detail::__dtor<std::__ndk1::__variant_detail::__traits<geode::Hook*, std::__ndk1::basic_string<char, std::__ndk1::char_traits<char>, std::__ndk1::allocator<char> > >, (std::__ndk1::__variant_detail::_Trait)1>, std::__ndk1::__variant_detail::__base<(std::__ndk1::__variant_detail::__traits<geode::Hook*, std::__ndk1::basic_string<char, std::__ndk1::char_traits<char>, std::__ndk1::allocator<char> > >)1, geode::Hook, std::__ndk1::allocator<char> >&)
PUBLIC 1b2a8 0 std::__ndk1::__tree<std::__ndk1::__value_type<std::__ndk1::basic_string<char, std::__ndk1::char_traits<char>, std::__ndk1::allocator<char> >, std::__ndk1::shared_ptr<geode::Hook> >, std::__ndk1::__map_value_compare<std::__ndk1::basic_string<char, std::__ndk1::char_traits<char>, std::__ndk1::allocator<char> >, std::__ndk1::__value_type<std::__ndk1::basic_string<char, std::__ndk1::char_traits<char>, std::__ndk1::allocator<char> >, std::__ndk1::shared_ptr<geode::Hook> >, std::__ndk1::less<std::__ndk1::basic_string<char, std::__ndk1::char_traits<char>, std::__ndk1::allocator<char> > >, true>, std::__ndk1::allocator<std::__ndk1::__value_type<std::__ndk1::basic_string<char, std::__ndk1::char_traits<char>, std::__ndk1::allocator<char> >, std::__ndk1::shared_ptr<geode::Hook> > > >::destroy(std::__ndk1::__tree_node<std::__ndk1::__value_type<std::__ndk1::basic_string<char, std::__ndk1::char_traits<char>, std::__ndk1::allocator<char> >, std::__ndk1::shared_ptr<geode::Hook> >, void*>*)
PUBLIC 1b32c 0 geode::modifier::AsStaticFunction_onOptions<hook8<(anonymous namespace)::hook8Parent>, void (hook8<(anonymous namespace)::hook8Parent>::*)(cocos2d::CCObject*)>::Impl<void (hook8<(anonymous namespace)::hook8Parent>::*)(cocos2d::CCObject*)>::function(hook8<(anonymous namespace)::hook8Parent>*, cocos2d::CCObject*)
PUBLIC 1b348 0 std::__ndk1::shared_ptr<tulip::hook::CallingConvention>::~shared_ptr[abi:ne180000]()
PUBLIC 1b398 0 tulip::hook::HandlerMetadata::~HandlerMetadata()
PUBLIC 1b3fc 0 std::__ndk1::__tree_balance_after_insert[abi:ne180000]<std::__ndk1::__tree_node_base<void*>*>(std::__ndk1::__tree_node_base<void*>*, std::__ndk1::__tree_node_base<void*>*)
PUBLIC 1b5ac 0 SearchPopup::setup(std::__ndk1::function<void (std::__ndk1::basic_string<char, std::__ndk1::char_traits<char>, std::__ndk1::allocator<char> >)>)
PUBLIC 1ba80 0 SearchPopup::onSearch(cocos2d::CCObject*)
PUBLIC 1bb48 0 SettingCell::create(std::__ndk1::basic_string<char, std::__ndk1::char_traits<char>, std::__ndk1::allocator<char> >, std::__ndk1::basic_string<char, std::__ndk1::char_traits<char>, std::__ndk1::allocator<char> >, SettingCellType)
PUBLIC 1c2d0 0 SettingCell::onCheckboxToggled(cocos2d::CCObject*)
PUBLIC 1c3b4 0 SettingCell::onInfo(cocos2d::CCObject*)
PUBLIC 1ddf0 0 SettingCell::onFMODDebug(cocos2d::CCObject*)
PUBLIC 1de14 0 SettingCell::onSongSelect(cocos2d::CCObject*)
PUBLIC 1df04 0 _ZNSt6__ndk14pairIKNS_12basic_stringIcNS_11char_traitsIcEENS_9allocatorIcEEEES6_EC2B8ne180000IRA5_KcRA41_SA_TnNS_9enable_ifIXclsr10_CheckArgsE17__enable_implicitIT_T0_EEEiE4typeELi0EEEOSG_OSH_
PUBLIC 1e03c 0 _ZNSt6__ndk14pairIKNS_12basic_stringIcNS_11char_traitsIcEENS_9allocatorIcEEEES6_EC2B8ne180000IRA5_KcRA47_SA_TnNS_9enable_ifIXclsr10_CheckArgsE17__enable_implicitIT_T0_EEEiE4typeELi0EEEOSG_OSH_
PUBLIC 1e174 0 _ZNSt6__ndk14pairIKNS_12basic_stringIcNS_11char_traitsIcEENS_9allocatorIcEEEES6_EC2B8ne180000IRA5_KcRA40_SA_TnNS_9enable_ifIXclsr10_CheckArgsE17__enable_implicitIT_T0_EEEiE4typeELi0EEEOSG_OSH_
PUBLIC 1e2ac 0 _ZNSt6__ndk14pairIKNS_12basic_stringIcNS_11char_traitsIcEENS_9allocatorIcEEEES6_EC2B8ne180000IRA5_KcRA38_SA_TnNS_9enable_ifIXclsr10_CheckArgsE17__enable_implicitIT_T0_EEEiE4typeELi0EEEOSG_OSH_
PUBLIC 1e3e4 0 _ZNSt6__ndk14pairIKNS_12basic_stringIcNS_11char_traitsIcEENS_9allocatorIcEEEES6_EC2B8ne180000IRA5_KcRA34_SA_TnNS_9enable_ifIXclsr10_CheckArgsE17__enable_implicitIT_T0_EEEiE4typeELi0EEEOSG_OSH_
PUBLIC 1e51c 0 _ZNSt6__ndk14pairIKNS_12basic_stringIcNS_11char_traitsIcEENS_9allocatorIcEEEES6_EC2B8ne180000IRA5_KcRA51_SA_TnNS_9enable_ifIXclsr10_CheckArgsE17__enable_implicitIT_T0_EEEiE4typeELi0EEEOSG_OSH_
PUBLIC 1e654 0 _ZNSt6__ndk14pairIKNS_12basic_stringIcNS_11char_traitsIcEENS_9allocatorIcEEEES6_EC2B8ne180000IRA5_KcRA56_SA_TnNS_9enable_ifIXclsr10_CheckArgsE17__enable_implicitIT_T0_EEEiE4typeELi0EEEOSG_OSH_
PUBLIC 1e78c 0 _ZNSt6__ndk14pairIKNS_12basic_stringIcNS_11char_traitsIcEENS_9allocatorIcEEEES6_EC2B8ne180000IRA5_KcRA42_SA_TnNS_9enable_ifIXclsr10_CheckArgsE17__enable_implicitIT_T0_EEEiE4typeELi0EEEOSG_OSH_
PUBLIC 1e8c4 0 _ZNSt6__ndk14pairIKNS_12basic_stringIcNS_11char_traitsIcEENS_9allocatorIcEEEES6_EC2B8ne180000IRA5_KcRA81_SA_TnNS_9enable_ifIXclsr10_CheckArgsE17__enable_implicitIT_T0_EEEiE4typeELi0EEEOSG_OSH_
PUBLIC 1e9fc 0 _ZNSt6__ndk14pairIKNS_12basic_stringIcNS_11char_traitsIcEENS_9allocatorIcEEEES6_EC2B8ne180000IRA5_KcRA39_SA_TnNS_9enable_ifIXclsr10_CheckArgsE17__enable_implicitIT_T0_EEEiE4typeELi0EEEOSG_OSH_
PUBLIC 1eb34 0 _ZNSt6__ndk14pairIKNS_12basic_stringIcNS_11char_traitsIcEENS_9allocatorIcEEEES6_EC2B8ne180000IRA5_KcRA71_SA_TnNS_9enable_ifIXclsr10_CheckArgsE17__enable_implicitIT_T0_EEEiE4typeELi0EEEOSG_OSH_
PUBLIC 1ec6c 0 _ZNSt6__ndk14pairIKNS_12basic_stringIcNS_11char_traitsIcEENS_9allocatorIcEEEES6_EC2B8ne180000IRA5_KcRA30_SA_TnNS_9enable_ifIXclsr10_CheckArgsE17__enable_implicitIT_T0_EEEiE4typeELi0EEEOSG_OSH_
PUBLIC 1eda4 0 _ZNSt6__ndk14pairIKNS_12basic_stringIcNS_11char_traitsIcEENS_9allocatorIcEEEES6_EC2B8ne180000IRA5_KcRA45_SA_TnNS_9enable_ifIXclsr10_CheckArgsE17__enable_implicitIT_T0_EEEiE4typeELi0EEEOSG_OSH_
PUBLIC 1eedc 0 _ZNSt6__ndk14pairIKNS_12basic_stringIcNS_11char_traitsIcEENS_9allocatorIcEEEES6_EC2B8ne180000IRA5_KcRA43_SA_TnNS_9enable_ifIXclsr10_CheckArgsE17__enable_implicitIT_T0_EEEiE4typeELi0EEEOSG_OSH_
PUBLIC 1f014 0 _ZNSt6__ndk14pairIKNS_12basic_stringIcNS_11char_traitsIcEENS_9allocatorIcEEEES6_EC2B8ne180000IRA5_KcRA66_SA_TnNS_9enable_ifIXclsr10_CheckArgsE17__enable_implicitIT_T0_EEEiE4typeELi0EEEOSG_OSH_
PUBLIC 1f14c 0 std::__ndk1::pair<std::__ndk1::basic_string<char, std::__ndk1::char_traits<char>, std::__ndk1::allocator<char> > const, std::__ndk1::basic_string<char, std::__ndk1::char_traits<char>, std::__ndk1::allocator<char> > >::~pair()
PUBLIC 1f190 0 SettingsLayer::create()
PUBLIC 1f2f4 0 createCategoryBtn(std::__ndk1::basic_string<char, std::__ndk1::char_traits<char>, std::__ndk1::allocator<char> >, cocos2d::CCObject*, SettingPage, void (cocos2d::CCObject::*)(cocos2d::CCObject*))
PUBLIC 1f4e0 0 SettingsLayer::setup()
PUBLIC 1faa0 0 SettingsLayer::onCategoryBtn(cocos2d::CCObject*)
PUBLIC 1fae4 0 SettingsLayer::switchPage(SettingPage, bool, CCMenuItemSpriteExtra*)
PUBLIC 21a98 0 SettingsLayer::onSearchBtn(cocos2d::CCObject*)
PUBLIC 220c8 0 SettingsLayer::onClearSearch(cocos2d::CCObject*)
PUBLIC 22118 0 SettingsLayer::refreshList()
PUBLIC 22358 0 geode::cocos::CCArrayExt<cocos2d::CCNode*>::~CCArrayExt()
PUBLIC 22374 0 cocos2d::CCCopying::copyWithZone(cocos2d::CCZone*)
PUBLIC 2237c 0 SearchPopup::~SearchPopup()
PUBLIC 22454 0 SearchPopup::~SearchPopup()
PUBLIC 22534 0 geode::Popup<std::__ndk1::function<void (std::__ndk1::basic_string<char, std::__ndk1::char_traits<char>, std::__ndk1::allocator<char> >)> >::registerWithTouchDispatcher()
PUBLIC 22560 0 geode::Popup<std::__ndk1::function<void (std::__ndk1::basic_string<char, std::__ndk1::char_traits<char>, std::__ndk1::allocator<char> >)> >::keyDown(cocos2d::enumKeyCodes)
PUBLIC 22588 0 cocos2d::CCLayerRGBA::setOpacityModifyRGB(bool)
PUBLIC 2258c 0 cocos2d::CCLayerRGBA::isOpacityModifyRGB()
PUBLIC 22594 0 geode::Popup<std::__ndk1::function<void (std::__ndk1::basic_string<char, std::__ndk1::char_traits<char>, std::__ndk1::allocator<char> >)> >::onClose(cocos2d::CCObject*)
PUBLIC 226dc 0 {virtual override thunk({offset(-320)}, SearchPopup::~SearchPopup())}
PUBLIC 227b8 0 {virtual override thunk({offset(-320)}, SearchPopup::~SearchPopup())}
PUBLIC 2289c 0 {virtual override thunk({offset(-344)}, geode::Popup<std::__ndk1::function<void (std::__ndk1::basic_string<char, std::__ndk1::char_traits<char>, std::__ndk1::allocator<char> >)> >::keyDown(cocos2d::enumKeyCodes))}
PUBLIC 228c8 0 cocos2d::CCKeyboardDelegate::keyUp(cocos2d::enumKeyCodes)
PUBLIC 228cc 0 cocos2d::CCMouseDelegate::rightKeyDown()
PUBLIC 228d0 0 cocos2d::CCMouseDelegate::rightKeyUp()
PUBLIC 228d4 0 cocos2d::CCMouseDelegate::scrollWheel(float, float)
PUBLIC 228d8 0 {virtual override thunk({offset(-408)}, cocos2d::CCLayerRGBA::setOpacityModifyRGB(bool))}
PUBLIC 228dc 0 {virtual override thunk({offset(-408)}, cocos2d::CCLayerRGBA::isOpacityModifyRGB())}
PUBLIC 228e4 0 geode::Popup<>::~Popup()
PUBLIC 22950 0 SettingsLayer::~SettingsLayer()
PUBLIC 229c4 0 geode::Popup<>::registerWithTouchDispatcher()
PUBLIC 229f0 0 geode::Popup<>::keyDown(cocos2d::enumKeyCodes)
PUBLIC 22a18 0 geode::Popup<>::onClose(cocos2d::CCObject*)
PUBLIC 22b60 0 {virtual override thunk({offset(-320)}, SettingsLayer::~SettingsLayer())}
PUBLIC 22bcc 0 {virtual override thunk({offset(-320)}, SettingsLayer::~SettingsLayer())}
PUBLIC 22c40 0 {virtual override thunk({offset(-344)}, geode::Popup<>::keyDown(cocos2d::enumKeyCodes))}
PUBLIC 22c6c 0 geode::Popup<std::__ndk1::function<void (std::__ndk1::basic_string<char, std::__ndk1::char_traits<char>, std::__ndk1::allocator<char> >)> >::~Popup()
PUBLIC 22cd8 0 geode::Popup<std::__ndk1::function<void (std::__ndk1::basic_string<char, std::__ndk1::char_traits<char>, std::__ndk1::allocator<char> >)> >::~Popup()
PUBLIC 22cdc 0 {virtual override thunk({offset(-320)}, geode::Popup<std::__ndk1::function<void (std::__ndk1::basic_string<char, std::__ndk1::char_traits<char>, std::__ndk1::allocator<char> >)> >::~Popup())}
PUBLIC 22d48 0 {virtual override thunk({offset(-320)}, geode::Popup<std::__ndk1::function<void (std::__ndk1::basic_string<char, std::__ndk1::char_traits<char>, std::__ndk1::allocator<char> >)> >::~Popup())}
PUBLIC 22d4c 0 SettingCell::~SettingCell()
PUBLIC 22db0 0 SettingCell::~SettingCell()
PUBLIC 22e24 0 std::__ndk1::basic_string<char, std::__ndk1::char_traits<char>, std::__ndk1::allocator<char> >::__assign_no_alias<true>(char const*, unsigned long)
PUBLIC 22ed0 0 std::__ndk1::basic_string<char, std::__ndk1::char_traits<char>, std::__ndk1::allocator<char> >::__assign_no_alias<false>(char const*, unsigned long)
PUBLIC 22fe0 0 geode::Popup<>::~Popup()
PUBLIC 22fe4 0 {virtual override thunk({offset(-320)}, geode::Popup<>::~Popup())}
PUBLIC 23050 0 {virtual override thunk({offset(-320)}, geode::Popup<>::~Popup())}
PUBLIC 23054 0 cocos2d::CCInteger::~CCInteger()
PUBLIC 23078 0 cocos2d::CCInteger::acceptVisitor(cocos2d::CCDataVisitor&)
PUBLIC 23090 0 cocos2d::CCObject::update(float)
PUBLIC 23094 0 std::__ndk1::__throw_bad_function_call[abi:ne180000]()
PUBLIC 230c8 0 std::__ndk1::bad_function_call::~bad_function_call()
PUBLIC 230ec 0 std::__ndk1::__function::__base<void (std::__ndk1::basic_string<char, std::__ndk1::char_traits<char>, std::__ndk1::allocator<char> > const&)>::~__base()
PUBLIC 230f0 0 std::__ndk1::__function::__func<SettingCell::init(std::__ndk1::basic_string<char, std::__ndk1::char_traits<char>, std::__ndk1::allocator<char> >, std::__ndk1::basic_string<char, std::__ndk1::char_traits<char>, std::__ndk1::allocator<char> >, SettingCellType)::$_0, std::__ndk1::allocator<SettingCell::init(std::__ndk1::basic_string<char, std::__ndk1::char_traits<char>, std::__ndk1::allocator<char> >, std::__ndk1::basic_string<char, std::__ndk1::char_traits<char>, std::__ndk1::allocator<char> >, SettingCellType)::$_0>, void (std::__ndk1::basic_string<char, std::__ndk1::char_traits<char>, std::__ndk1::allocator<char> > const&)>::~__func()
PUBLIC 230f4 0 std::__ndk1::__function::__func<SettingCell::init(std::__ndk1::basic_string<char, std::__ndk1::char_traits<char>, std::__ndk1::allocator<char> >, std::__ndk1::basic_string<char, std::__ndk1::char_traits<char>, std::__ndk1::allocator<char> >, SettingCellType)::$_0, std::__ndk1::allocator<SettingCell::init(std::__ndk1::basic_string<char, std::__ndk1::char_traits<char>, std::__ndk1::allocator<char> >, std::__ndk1::basic_string<char, std::__ndk1::char_traits<char>, std::__ndk1::allocator<char> >, SettingCellType)::$_0>, void (std::__ndk1::basic_string<char, std::__ndk1::char_traits<char>, std::__ndk1::allocator<char> > const&)>::__clone() const
PUBLIC 2312c 0 std::__ndk1::__function::__func<SettingCell::init(std::__ndk1::basic_string<char, std::__ndk1::char_traits<char>, std::__ndk1::allocator<char> >, std::__ndk1::basic_string<char, std::__ndk1::char_traits<char>, std::__ndk1::allocator<char> >, SettingCellType)::$_0, std::__ndk1::allocator<SettingCell::init(std::__ndk1::basic_string<char, std::__ndk1::char_traits<char>, std::__ndk1::allocator<char> >, std::__ndk1::basic_string<char, std::__ndk1::char_traits<char>, std::__ndk1::allocator<char> >, SettingCellType)::$_0>, void (std::__ndk1::basic_string<char, std::__ndk1::char_traits<char>, std::__ndk1::allocator<char> > const&)>::__clone(std::__ndk1::__function::__base<void (std::__ndk1::basic_string<char, std::__ndk1::char_traits<char>, std::__ndk1::allocator<char> > const&)>*) const
PUBLIC 23144 0 std::__ndk1::__function::__func<SettingCell::init(std::__ndk1::basic_string<char, std::__ndk1::char_traits<char>, std::__ndk1::allocator<char> >, std::__ndk1::basic_string<char, std::__ndk1::char_traits<char>, std::__ndk1::allocator<char> >, SettingCellType)::$_0, std::__ndk1::allocator<SettingCell::init(std::__ndk1::basic_string<char, std::__ndk1::char_traits<char>, std::__ndk1::allocator<char> >, std::__ndk1::basic_string<char, std::__ndk1::char_traits<char>, std::__ndk1::allocator<char> >, SettingCellType)::$_0>, void (std::__ndk1::basic_string<char, std::__ndk1::char_traits<char>, std::__ndk1::allocator<char> > const&)>::destroy()
PUBLIC 23148 0 std::__ndk1::__function::__func<SettingCell::init(std::__ndk1::basic_string<char, std::__ndk1::char_traits<char>, std::__ndk1::allocator<char> >, std::__ndk1::basic_string<char, std::__ndk1::char_traits<char>, std::__ndk1::allocator<char> >, SettingCellType)::$_0, std::__ndk1::allocator<SettingCell::init(std::__ndk1::basic_string<char, std::__ndk1::char_traits<char>, std::__ndk1::allocator<char> >, std::__ndk1::basic_string<char, std::__ndk1::char_traits<char>, std::__ndk1::allocator<char> >, SettingCellType)::$_0>, void (std::__ndk1::basic_string<char, std::__ndk1::char_traits<char>, std::__ndk1::allocator<char> > const&)>::destroy_deallocate()
PUBLIC 2314c 0 std::__ndk1::__function::__func<SettingCell::init(std::__ndk1::basic_string<char, std::__ndk1::char_traits<char>, std::__ndk1::allocator<char> >, std::__ndk1::basic_string<char, std::__ndk1::char_traits<char>, std::__ndk1::allocator<char> >, SettingCellType)::$_0, std::__ndk1::allocator<SettingCell::init(std::__ndk1::basic_string<char, std::__ndk1::char_traits<char>, std::__ndk1::allocator<char> >, std::__ndk1::basic_string<char, std::__ndk1::char_traits<char>, std::__ndk1::allocator<char> >, SettingCellType)::$_0>, void (std::__ndk1::basic_string<char, std::__ndk1::char_traits<char>, std::__ndk1::allocator<char> > const&)>::operator()(std::__ndk1::basic_string<char, std::__ndk1::char_traits<char>, std::__ndk1::allocator<char> > const&)
PUBLIC 232ec 0 std::__ndk1::__function::__func<SettingCell::init(std::__ndk1::basic_string<char, std::__ndk1::char_traits<char>, std::__ndk1::allocator<char> >, std::__ndk1::basic_string<char, std::__ndk1::char_traits<char>, std::__ndk1::allocator<char> >, SettingCellType)::$_0, std::__ndk1::allocator<SettingCell::init(std::__ndk1::basic_string<char, std::__ndk1::char_traits<char>, std::__ndk1::allocator<char> >, std::__ndk1::basic_string<char, std::__ndk1::char_traits<char>, std::__ndk1::allocator<char> >, SettingCellType)::$_0>, void (std::__ndk1::basic_string<char, std::__ndk1::char_traits<char>, std::__ndk1::allocator<char> > const&)>::target(std::type_info const&) const
PUBLIC 23308 0 std::__ndk1::__function::__func<SettingCell::init(std::__ndk1::basic_string<char, std::__ndk1::char_traits<char>, std::__ndk1::allocator<char> >, std::__ndk1::basic_string<char, std::__ndk1::char_traits<char>, std::__ndk1::allocator<char> >, SettingCellType)::$_0, std::__ndk1::allocator<SettingCell::init(std::__ndk1::basic_string<char, std::__ndk1::char_traits<char>, std::__ndk1::allocator<char> >, std::__ndk1::basic_string<char, std::__ndk1::char_traits<char>, std::__ndk1::allocator<char> >, SettingCellType)::$_0>, void (std::__ndk1::basic_string<char, std::__ndk1::char_traits<char>, std::__ndk1::allocator<char> > const&)>::target_type() const
PUBLIC 23314 0 geode::cast::traverseTypeinfoFor(void*, geode::cast::ClassTypeinfoType const*, char const*)
PUBLIC 2340c 0 std::__ndk1::unique_ptr<std::__ndk1::__tree_node<std::__ndk1::__value_type<std::__ndk1::basic_string<char, std::__ndk1::char_traits<char>, std::__ndk1::allocator<char> >, std::__ndk1::basic_string<char, std::__ndk1::char_traits<char>, std::__ndk1::allocator<char> > >, void*>, std::__ndk1::__tree_node_destructor<std::__ndk1::allocator<std::__ndk1::__tree_node<std::__ndk1::__value_type<std::__ndk1::basic_string<char, std::__ndk1::char_traits<char>, std::__ndk1::allocator<char> >, std::__ndk1::basic_string<char, std::__ndk1::char_traits<char>, std::__ndk1::allocator<char> > >, void*> > > >::~unique_ptr[abi:ne180000]()
PUBLIC 23468 0 std::__ndk1::__tree<std::__ndk1::__value_type<std::__ndk1::basic_string<char, std::__ndk1::char_traits<char>, std::__ndk1::allocator<char> >, std::__ndk1::basic_string<char, std::__ndk1::char_traits<char>, std::__ndk1::allocator<char> > >, std::__ndk1::__map_value_compare<std::__ndk1::basic_string<char, std::__ndk1::char_traits<char>, std::__ndk1::allocator<char> >, std::__ndk1::__value_type<std::__ndk1::basic_string<char, std::__ndk1::char_traits<char>, std::__ndk1::allocator<char> >, std::__ndk1::basic_string<char, std::__ndk1::char_traits<char>, std::__ndk1::allocator<char> > >, std::__ndk1::less<std::__ndk1::basic_string<char, std::__ndk1::char_traits<char>, std::__ndk1::allocator<char> > >, true>, std::__ndk1::allocator<std::__ndk1::__value_type<std::__ndk1::basic_string<char, std::__ndk1::char_traits<char>, std::__ndk1::allocator<char> >, std::__ndk1::basic_string<char, std::__ndk1::char_traits<char>, std::__ndk1::allocator<char> > > > >::destroy(std::__ndk1::__tree_node<std::__ndk1::__value_type<std::__ndk1::basic_string<char, std::__ndk1::char_traits<char>, std::__ndk1::allocator<char> >, std::__ndk1::basic_string<char, std::__ndk1::char_traits<char>, std::__ndk1::allocator<char> > >, void*>*)
PUBLIC 234d8 0 std::__ndk1::__throw_out_of_range[abi:ne180000](char const*)
PUBLIC 23528 0 std::out_of_range::out_of_range[abi:ne180000](char const*)
PUBLIC 23558 0 geode::Popup<>::initBase(float, float, char const*, cocos2d::CCRect, bool)
PUBLIC 23860 0 std::__ndk1::__function::__base<void (std::__ndk1::basic_string<char, std::__ndk1::char_traits<char>, std::__ndk1::allocator<char> >)>::~__base()
PUBLIC 23864 0 std::__ndk1::__function::__func<SettingsLayer::onSearchBtn(cocos2d::CCObject*)::$_0, std::__ndk1::allocator<SettingsLayer::onSearchBtn(cocos2d::CCObject*)::$_0>, void (std::__ndk1::basic_string<char, std::__ndk1::char_traits<char>, std::__ndk1::allocator<char> >)>::~__func()
PUBLIC 23868 0 std::__ndk1::__function::__func<SettingsLayer::onSearchBtn(cocos2d::CCObject*)::$_0, std::__ndk1::allocator<SettingsLayer::onSearchBtn(cocos2d::CCObject*)::$_0>, void (std::__ndk1::basic_string<char, std::__ndk1::char_traits<char>, std::__ndk1::allocator<char> >)>::__clone() const
PUBLIC 2389c 0 std::__ndk1::__function::__func<SettingsLayer::onSearchBtn(cocos2d::CCObject*)::$_0, std::__ndk1::allocator<SettingsLayer::onSearchBtn(cocos2d::CCObject*)::$_0>, void (std::__ndk1::basic_string<char, std::__ndk1::char_traits<char>, std::__ndk1::allocator<char> >)>::__clone(std::__ndk1::__function::__base<void (std::__ndk1::basic_string<char, std::__ndk1::char_traits<char>, std::__ndk1::allocator<char> >)>*) const
PUBLIC 238b0 0 std::__ndk1::__function::__func<SettingsLayer::onSearchBtn(cocos2d::CCObject*)::$_0, std::__ndk1::allocator<SettingsLayer::onSearchBtn(cocos2d::CCObject*)::$_0>, void (std::__ndk1::basic_string<char, std::__ndk1::char_traits<char>, std::__ndk1::allocator<char> >)>::destroy()
PUBLIC 238b4 0 std::__ndk1::__function::__func<SettingsLayer::onSearchBtn(cocos2d::CCObject*)::$_0, std::__ndk1::allocator<SettingsLayer::onSearchBtn(cocos2d::CCObject*)::$_0>, void (std::__ndk1::basic_string<char, std::__ndk1::char_traits<char>, std::__ndk1::allocator<char> >)>::destroy_deallocate()
PUBLIC 238b8 0 std::__ndk1::__function::__func<SettingsLayer::onSearchBtn(cocos2d::CCObject*)::$_0, std::__ndk1::allocator<SettingsLayer::onSearchBtn(cocos2d::CCObject*)::$_0>, void (std::__ndk1::basic_string<char, std::__ndk1::char_traits<char>, std::__ndk1::allocator<char> >)>::operator()(std::__ndk1::basic_string<char, std::__ndk1::char_traits<char>, std::__ndk1::allocator<char> >&&)
PUBLIC 23c80 0 std::__ndk1::__function::__func<SettingsLayer::onSearchBtn(cocos2d::CCObject*)::$_0, std::__ndk1::allocator<SettingsLayer::onSearchBtn(cocos2d::CCObject*)::$_0>, void (std::__ndk1::basic_string<char, std::__ndk1::char_traits<char>, std::__ndk1::allocator<char> >)>::target(std::type_info const&) const
PUBLIC 23c9c 0 std::__ndk1::__function::__func<SettingsLayer::onSearchBtn(cocos2d::CCObject*)::$_0, std::__ndk1::allocator<SettingsLayer::onSearchBtn(cocos2d::CCObject*)::$_0>, void (std::__ndk1::basic_string<char, std::__ndk1::char_traits<char>, std::__ndk1::allocator<char> >)>::target_type() const
PUBLIC 23ca8 0 geode::cocos::CCArrayExt<SettingCell*>::~CCArrayExt()
PUBLIC 23cc4 0 geode::Popup<std::__ndk1::function<void (std::__ndk1::basic_string<char, std::__ndk1::char_traits<char>, std::__ndk1::allocator<char> >)> >::CloseEvent::~CloseEvent()
PUBLIC 23d24 0 geode::Popup<std::__ndk1::function<void (std::__ndk1::basic_string<char, std::__ndk1::char_traits<char>, std::__ndk1::allocator<char> >)> >::CloseEvent::~CloseEvent()
PUBLIC 23d94 0 std::__ndk1::__shared_ptr_emplace<geode::Popup<std::__ndk1::function<void (std::__ndk1::basic_string<char, std::__ndk1::char_traits<char>, std::__ndk1::allocator<char> >)> >::CloseEvent::Impl, std::__ndk1::allocator<geode::Popup<std::__ndk1::function<void (std::__ndk1::basic_string<char, std::__ndk1::char_traits<char>, std::__ndk1::allocator<char> >)> >::CloseEvent::Impl> >::~__shared_ptr_emplace()
PUBLIC 23da4 0 std::__ndk1::__shared_ptr_emplace<geode::Popup<std::__ndk1::function<void (std::__ndk1::basic_string<char, std::__ndk1::char_traits<char>, std::__ndk1::allocator<char> >)> >::CloseEvent::Impl, std::__ndk1::allocator<geode::Popup<std::__ndk1::function<void (std::__ndk1::basic_string<char, std::__ndk1::char_traits<char>, std::__ndk1::allocator<char> >)> >::CloseEvent::Impl> >::~__shared_ptr_emplace()
PUBLIC 23dd4 0 std::__ndk1::__shared_ptr_emplace<geode::Popup<std::__ndk1::function<void (std::__ndk1::basic_string<char, std::__ndk1::char_traits<char>, std::__ndk1::allocator<char> >)> >::CloseEvent::Impl, std::__ndk1::allocator<geode::Popup<std::__ndk1::function<void (std::__ndk1::basic_string<char, std::__ndk1::char_traits<char>, std::__ndk1::allocator<char> >)> >::CloseEvent::Impl> >::__on_zero_shared()
PUBLIC 23dd8 0 std::__ndk1::__shared_ptr_emplace<geode::Popup<std::__ndk1::function<void (std::__ndk1::basic_string<char, std::__ndk1::char_traits<char>, std::__ndk1::allocator<char> >)> >::CloseEvent::Impl, std::__ndk1::allocator<geode::Popup<std::__ndk1::function<void (std::__ndk1::basic_string<char, std::__ndk1::char_traits<char>, std::__ndk1::allocator<char> >)> >::CloseEvent::Impl> >::__on_zero_shared_weak()
PUBLIC 23ddc 0 geode::Popup<>::CloseEvent::~CloseEvent()
PUBLIC 23e3c 0 geode::Popup<>::CloseEvent::~CloseEvent()
PUBLIC 23eac 0 std::__ndk1::__shared_ptr_emplace<geode::Popup<>::CloseEvent::Impl, std::__ndk1::allocator<geode::Popup<>::CloseEvent::Impl> >::~__shared_ptr_emplace()
PUBLIC 23ebc 0 std::__ndk1::__shared_ptr_emplace<geode::Popup<>::CloseEvent::Impl, std::__ndk1::allocator<geode::Popup<>::CloseEvent::Impl> >::~__shared_ptr_emplace()
PUBLIC 23eec 0 std::__ndk1::__shared_ptr_emplace<geode::Popup<>::CloseEvent::Impl, std::__ndk1::allocator<geode::Popup<>::CloseEvent::Impl> >::__on_zero_shared()
PUBLIC 23ef0 0 std::__ndk1::__shared_ptr_emplace<geode::Popup<>::CloseEvent::Impl, std::__ndk1::allocator<geode::Popup<>::CloseEvent::Impl> >::__on_zero_shared_weak()
PUBLIC m 23ef4 0 geodeImplicitEntry
PUBLIC 23f30 0 std::__ndk1::unordered_map<void*, bool, std::__ndk1::hash<void*>, std::__ndk1::equal_to<void*>, std::__ndk1::allocator<std::__ndk1::pair<void* const, bool> > >::~unordered_map[abi:ne180000]()
PUBLIC 23f7c 0 wrapFunction(unsigned long, tulip::hook::WrapperMetadata const&)
PUBLIC 240b0 0 geode::impl::ResultData<void*, std::__ndk1::basic_string<char, std::__ndk1::char_traits<char>, std::__ndk1::allocator<char> > >::unwrapErr() &
PUBLIC 24128 0 geode::impl::ResultData<void*, std::__ndk1::basic_string<char, std::__ndk1::char_traits<char>, std::__ndk1::allocator<char> > >::~ResultData()
PUBLIC 2419c 0 tulip::hook::WrapperMetadata::~WrapperMetadata()
PUBLIC 24200 0 cocos2d::CCObject::CCObject()
PUBLIC 24424 0 cocos2d::CCObject::~CCObject()
PUBLIC 24448 0 cocos2d::CCNode::CCNode()
PUBLIC 246a4 0 cocos2d::CCNode::~CCNode()
PUBLIC 246c8 0 {virtual override thunk({offset(-320)}, cocos2d::CCLayer::~CCLayer())}
PUBLIC 246d0 0 cocos2d::CCLayer::~CCLayer()
PUBLIC 246f4 0 {virtual override thunk({offset(-320)}, cocos2d::CCLayer::~CCLayer())}
PUBLIC 2471c 0 cocos2d::CCLayerRGBA::~CCLayerRGBA()
PUBLIC 24a1c 0 {virtual override thunk({offset(-320)}, cocos2d::CCLayerRGBA::~CCLayerRGBA())}
PUBLIC 24a24 0 cocos2d::CCLayerRGBA::~CCLayerRGBA()
PUBLIC 24a48 0 {virtual override thunk({offset(-320)}, cocos2d::CCLayerRGBA::~CCLayerRGBA())}
PUBLIC 24a70 0 cocos2d::CCLayerColor::CCLayerColor()
PUBLIC 24cd4 0 {virtual override thunk({offset(-320)}, cocos2d::CCLayerColor::~CCLayerColor())}
PUBLIC 24cdc 0 cocos2d::CCLayerColor::~CCLayerColor()
PUBLIC 24d00 0 {virtual override thunk({offset(-320)}, cocos2d::CCLayerColor::~CCLayerColor())}
PUBLIC 24d28 0 {virtual override thunk({offset(-320)}, FLAlertLayer::~FLAlertLayer())}
PUBLIC 24d30 0 FLAlertLayer::~FLAlertLayer()
PUBLIC 24d54 0 {virtual override thunk({offset(-320)}, FLAlertLayer::~FLAlertLayer())}
PUBLIC 24d7c 0 FLAlertLayer::create(FLAlertLayerProtocol*, char const*, gd::string, char const*, char const*, float)
PUBLIC 24f34 0 tulip::hook::AbstractFunction::from<FLAlertLayer*, FLAlertLayerProtocol*, char const*, gd::string, char const*, char const*, float>(FLAlertLayer* (*)(FLAlertLayerProtocol*, char const*, gd::string, char const*, char const*, float))
PUBLIC 250a0 0 CCMenuItemToggler::createWithStandardSprites(cocos2d::CCObject*, void (cocos2d::CCObject::*)(cocos2d::CCObject*), float)
PUBLIC 25298 0 CCTextInputNode::setAllowedChars(gd::string)
PUBLIC 25410 0 tulip::hook::AbstractFunction::from<void, CCTextInputNode*, gd::string>(void (*)(CCTextInputNode*, gd::string))
PUBLIC 254b4 0 cocos2d::CCLayerColor::~CCLayerColor()
PUBLIC 25798 0 FLAlertLayer::~FLAlertLayer()
PUBLIC 25a7c 0 cocos2d::CCNode::~CCNode()
PUBLIC 25d1c 0 cocos2d::CCLayer::~CCLayer()
PUBLIC 2600c 0 cocos2d::CCObject::~CCObject()
PUBLIC 26500 0 _ZN5geode15UnwrapExceptionC2IRPvQsr4implE18IsStringStreamableIT_EEENS_4impl5OkTagEOS4_
PUBLIC 26654 0 _ZN5geode15UnwrapExceptionC2IRNSt6__ndk112basic_stringIcNS2_11char_traitsIcEENS2_9allocatorIcEEEEQsr4implE18IsStringStreamableIT_EEENS_4impl6ErrTagEOSA_
PUBLIC 267bc 0 std::__ndk1::__variant_detail::__visitation::__base::__dispatcher<(unsigned long)0>::__dispatch[abi:ne180000]<std::__ndk1::__variant_detail::__dtor<std::__ndk1::__variant_detail::__traits<void*, std::__ndk1::basic_string<char, std::__ndk1::char_traits<char>, std::__ndk1::allocator<char> > >, (std::__ndk1::__variant_detail::_Trait)1>::__destroy[abi:ne180000]()::{lambda(auto:1&)#1}, std::__ndk1::__variant_detail::__base<(std::__ndk1::__variant_detail::__traits<void*, std::__ndk1::basic_string<char, std::__ndk1::char_traits<char>, std::__ndk1::allocator<char> > >)1, std::__ndk1::__variant_detail::__traits, std::__ndk1::allocator<char> >&>(std::__ndk1::__variant_detail::__dtor<std::__ndk1::__variant_detail::__traits<void*, std::__ndk1::basic_string<char, std::__ndk1::char_traits<char>, std::__ndk1::allocator<char> > >, (std::__ndk1::__variant_detail::_Trait)1>, std::__ndk1::__variant_detail::__base<(std::__ndk1::__variant_detail::__traits<void*, std::__ndk1::basic_string<char, std::__ndk1::char_traits<char>, std::__ndk1::allocator<char> > >)1, std::__ndk1::__variant_detail::__traits, std::__ndk1::allocator<char> >&)
PUBLIC 267c0 0 std::__ndk1::__variant_detail::__visitation::__base::__dispatcher<(unsigned long)1>::__dispatch[abi:ne180000]<std::__ndk1::__variant_detail::__dtor<std::__ndk1::__variant_detail::__traits<void*, std::__ndk1::basic_string<char, std::__ndk1::char_traits<char>, std::__ndk1::allocator<char> > >, (std::__ndk1::__variant_detail::_Trait)1>::__destroy[abi:ne180000]()::{lambda(auto:1&)#1}, std::__ndk1::__variant_detail::__base<(std::__ndk1::__variant_detail::__traits<void*, std::__ndk1::basic_string<char, std::__ndk1::char_traits<char>, std::__ndk1::allocator<char> > >)1, std::__ndk1::__variant_detail::__traits, std::__ndk1::allocator<char> >&>(std::__ndk1::__variant_detail::__dtor<std::__ndk1::__variant_detail::__traits<void*, std::__ndk1::basic_string<char, std::__ndk1::char_traits<char>, std::__ndk1::allocator<char> > >, (std::__ndk1::__variant_detail::_Trait)1>, std::__ndk1::__variant_detail::__base<(std::__ndk1::__variant_detail::__traits<void*, std::__ndk1::basic_string<char, std::__ndk1::char_traits<char>, std::__ndk1::allocator<char> > >)1, std::__ndk1::__variant_detail::__traits, std::__ndk1::allocator<char> >&)
PUBLIC 267d4 0 std::__ndk1::__hash_table<std::__ndk1::__hash_value_type<void*, bool>, std::__ndk1::__unordered_map_hasher<void*, std::__ndk1::__hash_value_type<void*, bool>, std::__ndk1::hash<void*>, std::__ndk1::equal_to<void*>, true>, std::__ndk1::__unordered_map_equal<void*, std::__ndk1::__hash_value_type<void*, bool>, std::__ndk1::equal_to<void*>, std::__ndk1::hash<void*>, true>, std::__ndk1::allocator<std::__ndk1::__hash_value_type<void*, bool> > >::__emplace_unique_key_args<void*, std::__ndk1::piecewise_construct_t const&, std::__ndk1::tuple<void* const&>, std::__ndk1::tuple<> >(void* const&, std::__ndk1::piecewise_construct_t const&, std::__ndk1::tuple<void* const&>, std::__ndk1::tuple<>)
PUBLIC 26ce0 0 __CortexA53843419_24004
PUBLIC 26cf0 0 <.plt ELF section in techstudent10.settings_plus.android64.so>
STACK CFI INIT 18e20 10 .cfa: sp 0 +
STACK CFI INIT 18e30 8 .cfa: sp 0 +
STACK CFI INIT 18e38 8 .cfa: sp 0 +
STACK CFI INIT 18e40 14 .cfa: sp 0 +
STACK CFI INIT 18e54 1c .cfa: sp 0 +
STACK CFI INIT 18e70 10 .cfa: sp 0 +
STACK CFI INIT 18e80 30 .cfa: sp 0 +
STACK CFI INIT 18eb0 98 .cfa: sp 0 +
STACK CFI INIT 18f48 59c .cfa: sp 0 +
STACK CFI INIT 194e4 8c .cfa: sp 0 +
STACK CFI INIT 19570 30 .cfa: sp 0 +
STACK CFI INIT 1a140 18 .cfa: sp 0 +
STACK CFI INIT 1a5e0 50 .cfa: sp 0 +
STACK CFI 1a5e4 .cfa: sp 32 +
STACK CFI 1a5ec .cfa: x29 32 + x19: .cfa -16 + ^ .ra: .cfa -24 + ^ x29: .cfa -32 + ^
STACK CFI 1a604 .cfa: sp 32 +
STACK CFI 1a60c .cfa: sp 0 +
STACK CFI 1a610 .cfa: x29 32 +
STACK CFI 1a624 .cfa: sp 32 +
STACK CFI 1a62c .cfa: sp 0 +
STACK CFI INIT 1a6a4 7c .cfa: sp 0 +
STACK CFI 1a6a8 .cfa: sp 48 +
STACK CFI 1a6b4 .cfa: x29 48 + x19: .cfa -8 + ^ x20: .cfa -16 + ^ x21: .cfa -32 + ^ .ra: .cfa -40 + ^ x29: .cfa -48 + ^
STACK CFI 1a700 .cfa: sp 48 +
STACK CFI 1a70c .cfa: sp 0 +
STACK CFI 1a710 .cfa: sp 48 +
STACK CFI 1a71c .cfa: sp 0 +
STACK CFI INIT 1a720 4 .cfa: sp 0 +
STACK CFI INIT 1a724 10 .cfa: sp 0 +
STACK CFI 1a728 .cfa: sp 16 +
STACK CFI 1a72c .cfa: x29 16 + .ra: .cfa -8 + ^ x29: .cfa -16 + ^
STACK CFI INIT 1a888 34 .cfa: sp 0 +
STACK CFI 1a88c .cfa: sp 16 +
STACK CFI 1a890 .cfa: x29 16 + .ra: .cfa -8 + ^ x29: .cfa -16 + ^
STACK CFI INIT 1a9e8 80 .cfa: sp 0 +
STACK CFI 1a9ec .cfa: sp 48 +
STACK CFI 1a9f8 .cfa: x29 48 + x19: .cfa -8 + ^ x20: .cfa -16 + ^ x21: .cfa -32 + ^ .ra: .cfa -40 + ^ x29: .cfa -48 + ^
STACK CFI 1aa58 .cfa: sp 48 +
STACK CFI 1aa64 .cfa: sp 0 +
STACK CFI INIT 1aa68 24 .cfa: sp 0 +
STACK CFI 1aa6c .cfa: sp 32 +
STACK CFI 1aa74 .cfa: x29 32 + x19: .cfa -16 + ^ .ra: .cfa -24 + ^ x29: .cfa -32 + ^
STACK CFI 1aa80 .cfa: sp 32 +
STACK CFI 1aa88 .cfa: sp 0 +
STACK CFI INIT 1ae0c 14 .cfa: sp 0 +
STACK CFI 1ae10 .cfa: sp 16 +
STACK CFI 1ae14 .cfa: x29 16 + .ra: .cfa -8 + ^ x29: .cfa -16 + ^
STACK CFI INIT 1ae70 30 .cfa: sp 0 +
STACK CFI 1ae74 .cfa: sp 32 +
STACK CFI 1ae7c .cfa: x29 32 + x19: .cfa -16 + ^ .ra: .cfa -24 + ^ x29: .cfa -32 + ^
STACK CFI 1ae94 .cfa: sp 32 +
STACK CFI 1ae9c .cfa: sp 0 +
STACK CFI INIT 1aea0 34 .cfa: sp 0 +
STACK CFI 1aea4 .cfa: sp 32 +
STACK CFI 1aeac .cfa: x29 32 + x19: .cfa -16 + ^ .ra: .cfa -24 + ^ x29: .cfa -32 + ^
STACK CFI INIT 1b04c 148 .cfa: sp 0 +
STACK CFI 1b050 .cfa: sp 48 +
STACK CFI 1b05c .cfa: x29 48 + x19: .cfa -8 + ^ x20: .cfa -16 + ^ x21: .cfa -32 + ^ .ra: .cfa -40 + ^ x29: .cfa -48 + ^
STACK CFI 1b184 .cfa: sp 48 +
STACK CFI 1b190 .cfa: sp 0 +
STACK CFI INIT 1b194 80 .cfa: sp 0 +
STACK CFI 1b198 .cfa: sp 48 +
STACK CFI 1b1a4 .cfa: x29 48 + x19: .cfa -8 + ^ x20: .cfa -16 + ^ x21: .cfa -24 + ^ x22: .cfa -32 + ^ .ra: .cfa -40 + ^ x29: .cfa -48 + ^
STACK CFI 1b1bc .cfa: sp 48 +
STACK CFI 1b1c8 .cfa: sp 0 +
STACK CFI 1b1cc .cfa: x29 48 +
STACK CFI 1b1fc .cfa: sp 48 +
STACK CFI 1b208 .cfa: sp 0 +
STACK CFI 1b20c .cfa: x29 48 +
STACK CFI INIT 1b214 68 .cfa: sp 0 +
STACK CFI 1b218 .cfa: sp 32 +
STACK CFI 1b220 .cfa: x29 32 + x19: .cfa -8 + ^ x20: .cfa -16 + ^ .ra: .cfa -24 + ^ x29: .cfa -32 + ^
STACK CFI 1b238 .cfa: sp 32 +
STACK CFI 1b240 .cfa: sp 0 +
STACK CFI 1b244 .cfa: x29 32 +
STACK CFI 1b270 .cfa: sp 32 +
STACK CFI 1b278 .cfa: sp 0 +
STACK CFI INIT 1b27c 14 .cfa: sp 0 +
STACK CFI 1b280 .cfa: sp 16 +
STACK CFI 1b284 .cfa: x29 16 + .ra: .cfa -8 + ^ x29: .cfa -16 + ^
STACK CFI INIT 1b290 4 .cfa: sp 0 +
STACK CFI INIT 1b294 14 .cfa: sp 0 +
STACK CFI INIT 1b2a8 84 .cfa: sp 0 +
STACK CFI 1b2b0 .cfa: sp 32 +
STACK CFI 1b2b8 .cfa: x29 32 + x19: .cfa -8 + ^ x20: .cfa -16 + ^ .ra: .cfa -24 + ^ x29: .cfa -32 + ^
STACK CFI 1b2f8 .cfa: sp 32 +
STACK CFI 1b300 .cfa: sp 0 +
STACK CFI 1b308 .cfa: x29 32 +
STACK CFI INIT 1b32c 1c .cfa: sp 0 +
STACK CFI 1b330 .cfa: sp 16 +
STACK CFI 1b334 .cfa: x29 16 + .ra: .cfa -8 + ^ x29: .cfa -16 + ^
STACK CFI 1b340 .cfa: sp 16 +
STACK CFI 1b344 .cfa: sp 0 +
STACK CFI INIT 1b348 50 .cfa: sp 0 +
STACK CFI 1b34c .cfa: sp 32 +
STACK CFI 1b354 .cfa: x29 32 + x19: .cfa -16 + ^ .ra: .cfa -24 + ^ x29: .cfa -32 + ^
STACK CFI 1b36c .cfa: sp 32 +
STACK CFI 1b374 .cfa: sp 0 +
STACK CFI 1b378 .cfa: x29 32 +
STACK CFI 1b38c .cfa: sp 32 +
STACK CFI 1b394 .cfa: sp 0 +
STACK CFI INIT 1b398 64 .cfa: sp 0 +
STACK CFI 1b39c .cfa: sp 32 +
STACK CFI 1b3a4 .cfa: x29 32 + x19: .cfa -16 + ^ .ra: .cfa -24 + ^ x29: .cfa -32 + ^
STACK CFI 1b3d0 .cfa: sp 32 +
STACK CFI 1b3d8 .cfa: sp 0 +
STACK CFI 1b3dc .cfa: x29 32 +
STACK CFI 1b3f0 .cfa: sp 32 +
STACK CFI 1b3f8 .cfa: sp 0 +
STACK CFI INIT 1b3fc 1b0 .cfa: sp 0 +
STACK CFI INIT 1c2d0 e4 .cfa: sp 0 +
STACK CFI 1c2d4 .cfa: sp 112 +
STACK CFI 1c2e8 .cfa: x29 64 + x19: .cfa -8 + ^ x20: .cfa -16 + ^ x21: .cfa -24 + ^ x22: .cfa -32 + ^ x23: .cfa -48 + ^ .ra: .cfa -56 + ^ x29: .cfa -64 + ^
STACK CFI 1c398 .cfa: sp 112 +
STACK CFI 1c3ac .cfa: sp 0 +
STACK CFI 1c3b0 .cfa: x29 64 +
STACK CFI INIT 1ddf0 24 .cfa: sp 0 +
STACK CFI 1ddf4 .cfa: sp 32 +
STACK CFI 1ddfc .cfa: x29 32 + x19: .cfa -16 + ^ .ra: .cfa -24 + ^ x29: .cfa -32 + ^
STACK CFI 1de08 .cfa: sp 32 +
STACK CFI 1de10 .cfa: sp 0 +
STACK CFI INIT 1de14 f0 .cfa: sp 0 +
STACK CFI 1de18 .cfa: sp 48 +
STACK CFI 1de24 .cfa: x29 48 + x19: .cfa -8 + ^ x20: .cfa -16 + ^ x21: .cfa -24 + ^ x22: .cfa -32 + ^ .ra: .cfa -40 + ^ x29: .cfa -48 + ^
STACK CFI 1dee0 .cfa: sp 48 +
STACK CFI 1deec .cfa: sp 0 +
STACK CFI 1def0 .cfa: x29 48 +
STACK CFI 1def4 .cfa: sp 48 +
STACK CFI 1df00 .cfa: sp 0 +
STACK CFI INIT 1f14c 44 .cfa: sp 0 +
STACK CFI 1f150 .cfa: sp 32 +
STACK CFI 1f158 .cfa: x29 32 + x19: .cfa -16 + ^ .ra: .cfa -24 + ^ x29: .cfa -32 + ^
STACK CFI 1f174 .cfa: sp 32 +
STACK CFI 1f17c .cfa: sp 0 +
STACK CFI 1f180 .cfa: x29 32 +
STACK CFI 1f184 .cfa: sp 32 +
STACK CFI 1f18c .cfa: sp 0 +
STACK CFI INIT 1faa0 44 .cfa: sp 0 +
STACK CFI 1faa4 .cfa: sp 32 +
STACK CFI 1faac .cfa: x29 32 + x19: .cfa -8 + ^ x20: .cfa -16 + ^ .ra: .cfa -24 + ^ x29: .cfa -32 + ^
STACK CFI 1fad8 .cfa: sp 32 +
STACK CFI 1fae0 .cfa: sp 0 +
STACK CFI INIT 220c8 50 .cfa: sp 0 +
STACK CFI 220cc .cfa: sp 32 +
STACK CFI 220d4 .cfa: x29 32 + x19: .cfa -16 + ^ .ra: .cfa -24 + ^ x29: .cfa -32 + ^
STACK CFI 2210c .cfa: sp 32 +
STACK CFI 22114 .cfa: sp 0 +
STACK CFI INIT 22374 8 .cfa: sp 0 +
STACK CFI INIT 22534 2c .cfa: sp 0 +
STACK CFI 22538 .cfa: sp 32 +
STACK CFI 22540 .cfa: x29 32 + x19: .cfa -16 + ^ .ra: .cfa -24 + ^ x29: .cfa -32 + ^
STACK CFI 22554 .cfa: sp 32 +
STACK CFI 2255c .cfa: sp 0 +
STACK CFI INIT 22560 28 .cfa: sp 0 +
STACK CFI INIT 22588 4 .cfa: sp 0 +
STACK CFI INIT 2258c 8 .cfa: sp 0 +
STACK CFI INIT 2289c 2c .cfa: sp 0 +
STACK CFI INIT 228c8 4 .cfa: sp 0 +
STACK CFI INIT 228cc 4 .cfa: sp 0 +
STACK CFI INIT 228d0 4 .cfa: sp 0 +
STACK CFI INIT 228d4 4 .cfa: sp 0 +
STACK CFI INIT 228d8 4 .cfa: sp 0 +
STACK CFI INIT 228dc 8 .cfa: sp 0 +
STACK CFI INIT 229c4 2c .cfa: sp 0 +
STACK CFI 229c8 .cfa: sp 32 +
STACK CFI 229d0 .cfa: x29 32 + x19: .cfa -16 + ^ .ra: .cfa -24 + ^ x29: .cfa -32 + ^
STACK CFI 229e4 .cfa: sp 32 +
STACK CFI 229ec .cfa: sp 0 +
STACK CFI INIT 229f0 28 .cfa: sp 0 +
STACK CFI INIT 22c40 2c .cfa: sp 0 +
STACK CFI INIT 22cd8 4 .cfa: sp 0 +
STACK CFI INIT 22d48 4 .cfa: sp 0 +
STACK CFI INIT 22d4c 64 .cfa: sp 0 +
STACK CFI 22d50 .cfa: sp 32 +
STACK CFI 22d58 .cfa: x29 32 + x19: .cfa -16 + ^ .ra: .cfa -24 + ^ x29: .cfa -32 + ^
STACK CFI 22d7c .cfa: sp 32 +
STACK CFI 22d84 .cfa: sp 0 +
STACK CFI 22d88 .cfa: x29 32 +
STACK CFI 22da4 .cfa: sp 32 +
STACK CFI 22dac .cfa: sp 0 +
STACK CFI INIT 22db0 74 .cfa: sp 0 +
STACK CFI 22db4 .cfa: sp 32 +
STACK CFI 22dbc .cfa: x29 32 + x19: .cfa -16 + ^ .ra: .cfa -24 + ^ x29: .cfa -32 + ^
STACK CFI 22de8 .cfa: sp 32 +
STACK CFI 22df0 .cfa: sp 0 +
STACK CFI 22df4 .cfa: x29 32 +
STACK CFI 22e18 .cfa: sp 32 +
STACK CFI 22e20 .cfa: sp 0 +
STACK CFI INIT 22e24 ac .cfa: sp 0 +
STACK CFI 22e28 .cfa: sp 64 +
STACK CFI 22e38 .cfa: x29 64 + x19: .cfa -8 + ^ x20: .cfa -16 + ^ x21: .cfa -24 + ^ x22: .cfa -32 + ^ x23: .cfa -48 + ^ .ra: .cfa -56 + ^ x29: .cfa -64 + ^
STACK CFI 22eb4 .cfa: sp 64 +
STACK CFI 22ec4 .cfa: sp 0 +
STACK CFI 22ec8 .cfa: x29 64 +
STACK CFI INIT 22ed0 110 .cfa: sp 0 +
STACK CFI 22ed4 .cfa: sp 64 +
STACK CFI 22ee4 .cfa: x29 64 + x19: .cfa -8 + ^ x20: .cfa -16 + ^ x21: .cfa -24 + ^ x22: .cfa -32 + ^ x23: .cfa -40 + ^ x24: .cfa -48 + ^ .ra: .cfa -56 + ^ x29: .cfa -64 + ^
STACK CFI 22fc4 .cfa: sp 64 +
STACK CFI 22fd4 .cfa: sp 0 +
STACK CFI 22fd8 .cfa: x29 64 +
STACK CFI INIT 22fe0 4 .cfa: sp 0 +
STACK CFI INIT 23050 4 .cfa: sp 0 +
STACK CFI INIT 23054 24 .cfa: sp 0 +
STACK CFI 23058 .cfa: sp 32 +
STACK CFI 23060 .cfa: x29 32 + x19: .cfa -16 + ^ .ra: .cfa -24 + ^ x29: .cfa -32 + ^
STACK CFI 2306c .cfa: sp 32 +
STACK CFI 23074 .cfa: sp 0 +
STACK CFI INIT 23078 18 .cfa: sp 0 +
STACK CFI INIT 23090 4 .cfa: sp 0 +
STACK CFI INIT 23094 34 .cfa: sp 0 +
STACK CFI 23098 .cfa: sp 16 +
STACK CFI 2309c .cfa: x29 16 + .ra: .cfa -8 + ^ x29: .cfa -16 + ^
STACK CFI INIT 230c8 24 .cfa: sp 0 +
STACK CFI 230cc .cfa: sp 32 +
STACK CFI 230d4 .cfa: x29 32 + x19: .cfa -16 + ^ .ra: .cfa -24 + ^ x29: .cfa -32 + ^
STACK CFI 230e0 .cfa: sp 32 +
STACK CFI 230e8 .cfa: sp 0 +
STACK CFI INIT 230ec 4 .cfa: sp 0 +
STACK CFI INIT 230f0 4 .cfa: sp 0 +
STACK CFI INIT 230f4 38 .cfa: sp 0 +
STACK CFI 230f8 .cfa: sp 32 +
STACK CFI 23100 .cfa: x29 32 + x19: .cfa -16 + ^ .ra: .cfa -24 + ^ x29: .cfa -32 + ^
STACK CFI 23120 .cfa: sp 32 +
STACK CFI 23128 .cfa: sp 0 +
STACK CFI INIT 2312c 18 .cfa: sp 0 +
STACK CFI INIT 23144 4 .cfa: sp 0 +
STACK CFI INIT 23148 4 .cfa: sp 0 +
STACK CFI INIT 232ec 1c .cfa: sp 0 +
STACK CFI INIT 23308 c .cfa: sp 0 +
STACK CFI INIT 23314 f8 .cfa: sp 0 +
STACK CFI 23318 .cfa: sp 64 +
STACK CFI 23328 .cfa: x29 64 + x19: .cfa -8 + ^ x20: .cfa -16 + ^ x21: .cfa -24 + ^ x22: .cfa -32 + ^ x23: .cfa -48 + ^ .ra: .cfa -56 + ^ x29: .cfa -64 + ^
STACK CFI 23384 .cfa: sp 64 +
STACK CFI 23394 .cfa: sp 0 +
STACK CFI 23398 .cfa: x29 64 +
STACK CFI 233b4 .cfa: sp 64 +
STACK CFI 233c4 .cfa: sp 0 +
STACK CFI 233c8 .cfa: x29 64 +
STACK CFI 233f8 .cfa: sp 64 +
STACK CFI 23408 .cfa: sp 0 +
STACK CFI INIT 2340c 5c .cfa: sp 0 +
STACK CFI 23410 .cfa: sp 32 +
STACK CFI 23418 .cfa: x29 32 + x19: .cfa -16 + ^ .ra: .cfa -24 + ^ x29: .cfa -32 + ^
STACK CFI 23450 .cfa: sp 32 +
STACK CFI 23458 .cfa: sp 0 +
STACK CFI 2345c .cfa: sp 32 +
STACK CFI 23464 .cfa: sp 0 +
STACK CFI INIT 23468 70 .cfa: sp 0 +
STACK CFI 23470 .cfa: sp 32 +
STACK CFI 23478 .cfa: x29 32 + x19: .cfa -16 + ^ .ra: .cfa -24 + ^ x29: .cfa -32 + ^
STACK CFI 234a0 .cfa: sp 32 +
STACK CFI 234a8 .cfa: sp 0 +
STACK CFI 234b0 .cfa: x29 32 +
STACK CFI 234cc .cfa: sp 32 +
STACK CFI 234d4 .cfa: sp 0 +
STACK CFI INIT 23528 30 .cfa: sp 0 +
STACK CFI 2352c .cfa: sp 32 +
STACK CFI 23534 .cfa: x29 32 + x19: .cfa -16 + ^ .ra: .cfa -24 + ^ x29: .cfa -32 + ^
STACK CFI 2354c .cfa: sp 32 +
STACK CFI 23554 .cfa: sp 0 +
STACK CFI INIT 23558 308 .cfa: sp 0 +
STACK CFI 2355c .cfa: sp 128 +
STACK CFI 23574 .cfa: x29 64 + x19: .cfa -8 + ^ x20: .cfa -16 + ^ x21: .cfa -24 + ^ x22: .cfa -32 + ^ x23: .cfa -48 + ^ .ra: .cfa -56 + ^ x29: .cfa -64 + ^ v8: .cfa -72 + ^ v9: .cfa -80 + ^
STACK CFI 237a8 .cfa: sp 128 +
STACK CFI 237c0 .cfa: sp 0 +
STACK CFI 237c4 .cfa: x29 64 +
STACK CFI INIT 23860 4 .cfa: sp 0 +
STACK CFI INIT 23864 4 .cfa: sp 0 +
STACK CFI INIT 23868 34 .cfa: sp 0 +
STACK CFI 2386c .cfa: sp 32 +
STACK CFI 23874 .cfa: x29 32 + x19: .cfa -16 + ^ .ra: .cfa -24 + ^ x29: .cfa -32 + ^
STACK CFI 23890 .cfa: sp 32 +
STACK CFI 23898 .cfa: sp 0 +
STACK CFI INIT 2389c 14 .cfa: sp 0 +
STACK CFI INIT 238b0 4 .cfa: sp 0 +
STACK CFI INIT 238b4 4 .cfa: sp 0 +
STACK CFI INIT 23c80 1c .cfa: sp 0 +
STACK CFI INIT 23c9c c .cfa: sp 0 +
STACK CFI INIT 23cc4 60 .cfa: sp 0 +
STACK CFI 23cc8 .cfa: sp 32 +
STACK CFI 23cd0 .cfa: x29 32 + x19: .cfa -8 + ^ x20: .cfa -16 + ^ .ra: .cfa -24 + ^ x29: .cfa -32 + ^
STACK CFI 23cf0 .cfa: sp 32 +
STACK CFI 23cf8 .cfa: sp 0 +
STACK CFI 23cfc .cfa: x29 32 +
STACK CFI 23d18 .cfa: sp 32 +
STACK CFI 23d20 .cfa: sp 0 +
STACK CFI INIT 23d24 70 .cfa: sp 0 +
STACK CFI 23d28 .cfa: sp 32 +
STACK CFI 23d30 .cfa: x29 32 + x19: .cfa -8 + ^ x20: .cfa -16 + ^ .ra: .cfa -24 + ^ x29: .cfa -32 + ^
STACK CFI 23d58 .cfa: sp 32 +
STACK CFI 23d60 .cfa: sp 0 +
STACK CFI 23d64 .cfa: x29 32 +
STACK CFI 23d88 .cfa: sp 32 +
STACK CFI 23d90 .cfa: sp 0 +
STACK CFI INIT 23d94 10 .cfa: sp 0 +
STACK CFI INIT 23da4 30 .cfa: sp 0 +
STACK CFI 23da8 .cfa: sp 32 +
STACK CFI 23db0 .cfa: x29 32 + x19: .cfa -16 + ^ .ra: .cfa -24 + ^ x29: .cfa -32 + ^
STACK CFI 23dc8 .cfa: sp 32 +
STACK CFI 23dd0 .cfa: sp 0 +
STACK CFI INIT 23dd4 4 .cfa: sp 0 +
STACK CFI INIT 23dd8 4 .cfa: sp 0 +
STACK CFI INIT 23ddc 60 .cfa: sp 0 +
STACK CFI 23de0 .cfa: sp 32 +
STACK CFI 23de8 .cfa: x29 32 + x19: .cfa -8 + ^ x20: .cfa -16 + ^ .ra: .cfa -24 + ^ x29: .cfa -32 + ^
STACK CFI 23e08 .cfa: sp 32 +
STACK CFI 23e10 .cfa: sp 0 +
STACK CFI 23e14 .cfa: x29 32 +
STACK CFI 23e30 .cfa: sp 32 +
STACK CFI 23e38 .cfa: sp 0 +
STACK CFI INIT 23e3c 70 .cfa: sp 0 +
STACK CFI 23e40 .cfa: sp 32 +
STACK CFI 23e48 .cfa: x29 32 + x19: .cfa -8 + ^ x20: .cfa -16 + ^ .ra: .cfa -24 + ^ x29: .cfa -32 + ^
STACK CFI 23e70 .cfa: sp 32 +
STACK CFI 23e78 .cfa: sp 0 +
STACK CFI 23e7c .cfa: x29 32 +
STACK CFI 23ea0 .cfa: sp 32 +
STACK CFI 23ea8 .cfa: sp 0 +
STACK CFI INIT 23eac 10 .cfa: sp 0 +
STACK CFI INIT 23ebc 30 .cfa: sp 0 +
STACK CFI 23ec0 .cfa: sp 32 +
STACK CFI 23ec8 .cfa: x29 32 + x19: .cfa -16 + ^ .ra: .cfa -24 + ^ x29: .cfa -32 + ^
STACK CFI 23ee0 .cfa: sp 32 +
STACK CFI 23ee8 .cfa: sp 0 +
STACK CFI INIT 23eec 4 .cfa: sp 0 +
STACK CFI INIT 23ef0 4 .cfa: sp 0 +
STACK CFI INIT 23ef4 3c .cfa: sp 0 +
STACK CFI 23ef8 .cfa: sp 32 +
STACK CFI 23f00 .cfa: x29 32 + x19: .cfa -16 + ^ .ra: .cfa -24 + ^ x29: .cfa -32 + ^
STACK CFI 23f0c .cfa: sp 32 +
STACK CFI 23f14 .cfa: sp 0 +
STACK CFI 23f18 .cfa: x29 32 +
STACK CFI 23f24 .cfa: sp 32 +
STACK CFI 23f2c .cfa: sp 0 +
STACK CFI INIT 23f30 4c .cfa: sp 0 +
STACK CFI 23f34 .cfa: sp 32 +
STACK CFI 23f3c .cfa: x29 32 + x19: .cfa -8 + ^ x20: .cfa -16 + ^ .ra: .cfa -24 + ^ x29: .cfa -32 + ^
STACK CFI 23f64 .cfa: sp 32 +
STACK CFI 23f6c .cfa: sp 0 +
STACK CFI 23f70 .cfa: sp 32 +
STACK CFI 23f78 .cfa: sp 0 +
STACK CFI INIT 2419c 64 .cfa: sp 0 +
STACK CFI 241a0 .cfa: sp 32 +
STACK CFI 241a8 .cfa: x29 32 + x19: .cfa -16 + ^ .ra: .cfa -24 + ^ x29: .cfa -32 + ^
STACK CFI 241d4 .cfa: sp 32 +
STACK CFI 241dc .cfa: sp 0 +
STACK CFI 241e0 .cfa: x29 32 +
STACK CFI 241f4 .cfa: sp 32 +
STACK CFI 241fc .cfa: sp 0 +
STACK CFI INIT 24424 24 .cfa: sp 0 +
STACK CFI 24428 .cfa: sp 32 +
STACK CFI 24430 .cfa: x29 32 + x19: .cfa -16 + ^ .ra: .cfa -24 + ^ x29: .cfa -32 + ^
STACK CFI 2443c .cfa: sp 32 +
STACK CFI 24444 .cfa: sp 0 +
STACK CFI INIT 246a4 24 .cfa: sp 0 +
STACK CFI 246a8 .cfa: sp 32 +
STACK CFI 246b0 .cfa: x29 32 + x19: .cfa -16 + ^ .ra: .cfa -24 + ^ x29: .cfa -32 + ^
STACK CFI 246bc .cfa: sp 32 +
STACK CFI 246c4 .cfa: sp 0 +
STACK CFI INIT 246c8 8 .cfa: sp 0 +
STACK CFI INIT 246d0 24 .cfa: sp 0 +
STACK CFI 246d4 .cfa: sp 32 +
STACK CFI 246dc .cfa: x29 32 + x19: .cfa -16 + ^ .ra: .cfa -24 + ^ x29: .cfa -32 + ^
STACK CFI 246e8 .cfa: sp 32 +
STACK CFI 246f0 .cfa: sp 0 +
STACK CFI INIT 246f4 28 .cfa: sp 0 +
STACK CFI 246f8 .cfa: sp 32 +
STACK CFI 24700 .cfa: x29 32 + x19: .cfa -16 + ^ .ra: .cfa -24 + ^ x29: .cfa -32 + ^
STACK CFI 24710 .cfa: sp 32 +
STACK CFI 24718 .cfa: sp 0 +
STACK CFI INIT 24a1c 8 .cfa: sp 0 +
STACK CFI INIT 24a24 24 .cfa: sp 0 +
STACK CFI 24a28 .cfa: sp 32 +
STACK CFI 24a30 .cfa: x29 32 + x19: .cfa -16 + ^ .ra: .cfa -24 + ^ x29: .cfa -32 + ^
STACK CFI 24a3c .cfa: sp 32 +
STACK CFI 24a44 .cfa: sp 0 +
STACK CFI INIT 24a48 28 .cfa: sp 0 +
STACK CFI 24a4c .cfa: sp 32 +
STACK CFI 24a54 .cfa: x29 32 + x19: .cfa -16 + ^ .ra: .cfa -24 + ^ x29: .cfa -32 + ^
STACK CFI 24a64 .cfa: sp 32 +
STACK CFI 24a6c .cfa: sp 0 +
STACK CFI INIT 24cd4 8 .cfa: sp 0 +
STACK CFI INIT 24cdc 24 .cfa: sp 0 +
STACK CFI 24ce0 .cfa: sp 32 +
STACK CFI 24ce8 .cfa: x29 32 + x19: .cfa -16 + ^ .ra: .cfa -24 + ^ x29: .cfa -32 + ^
STACK CFI 24cf4 .cfa: sp 32 +
STACK CFI 24cfc .cfa: sp 0 +
STACK CFI INIT 24d00 28 .cfa: sp 0 +
STACK CFI 24d04 .cfa: sp 32 +
STACK CFI 24d0c .cfa: x29 32 + x19: .cfa -16 + ^ .ra: .cfa -24 + ^ x29: .cfa -32 + ^
STACK CFI 24d1c .cfa: sp 32 +
STACK CFI 24d24 .cfa: sp 0 +
STACK CFI INIT 24d28 8 .cfa: sp 0 +
STACK CFI INIT 24d30 24 .cfa: sp 0 +
STACK CFI 24d34 .cfa: sp 32 +
STACK CFI 24d3c .cfa: x29 32 + x19: .cfa -16 + ^ .ra: .cfa -24 + ^ x29: .cfa -32 + ^
STACK CFI 24d48 .cfa: sp 32 +
STACK CFI 24d50 .cfa: sp 0 +
STACK CFI INIT 24d54 28 .cfa: sp 0 +
STACK CFI 24d58 .cfa: sp 32 +
STACK CFI 24d60 .cfa: x29 32 + x19: .cfa -16 + ^ .ra: .cfa -24 + ^ x29: .cfa -32 + ^
STACK CFI 24d70 .cfa: sp 32 +
STACK CFI 24d78 .cfa: sp 0 +
STACK CFI INIT 250a0 1f8 .cfa: sp 0 +
STACK CFI 250a4 .cfa: sp 112 +
STACK CFI 250c4 .cfa: x29 72 + x19: .cfa -8 + ^ x20: .cfa -16 + ^ x21: .cfa -24 + ^ x22: .cfa -32 + ^ x23: .cfa -40 + ^ x24: .cfa -48 + ^ x25: .cfa -56 + ^ .ra: .cfa -64 + ^ x29: .cfa -72 + ^ v8: .cfa -80 + ^ v9: .cfa -88 + ^ v10: .cfa -96 + ^
STACK CFI 25270 .cfa: sp 112 +
STACK CFI 25290 .cfa: sp 0 +
STACK CFI 25294 .cfa: x29 72 +
STACK CFI INIT 267bc 4 .cfa: sp 0 +
STACK CFI INIT 267c0 14 .cfa: sp 0 +
STACK CFI INIT 195a0 ba0 .cfa: sp 0 +
STACK CFI 195a4 .cfa: sp 240 +
STACK CFI 195c0 .cfa: x29 96 + x19: .cfa -8 + ^ x20: .cfa -16 + ^ x21: .cfa -24 + ^ x22: .cfa -32 + ^ x23: .cfa -40 + ^ x24: .cfa -48 + ^ x25: .cfa -56 + ^ x26: .cfa -64 + ^ x27: .cfa -72 + ^ x28: .cfa -80 + ^ .ra: .cfa -88 + ^ x29: .cfa -96 + ^
STACK CFI 19fe8 .cfa: sp 240 +
STACK CFI 1a004 .cfa: sp 0 +
STACK CFI 1a008 .cfa: x29 96 +
STACK CFI INIT 1a158 488 .cfa: sp 0 +
STACK CFI 1a15c .cfa: sp 288 +
STACK CFI 1a178 .cfa: x29 96 + x19: .cfa -8 + ^ x20: .cfa -16 + ^ x21: .cfa -24 + ^ x22: .cfa -32 + ^ x23: .cfa -40 + ^ x24: .cfa -48 + ^ x25: .cfa -56 + ^ x26: .cfa -64 + ^ x27: .cfa -72 + ^ x28: .cfa -80 + ^ .ra: .cfa -88 + ^ x29: .cfa -96 + ^
STACK CFI 1a4a0 .cfa: sp 288 +
STACK CFI 1a4bc .cfa: sp 0 +
STACK CFI 1a4c0 .cfa: x29 96 +
STACK CFI INIT 1a630 74 .cfa: sp 0 +
STACK CFI 1a634 .cfa: sp 48 +
STACK CFI 1a640 .cfa: x29 32 + x19: .cfa -8 + ^ x20: .cfa -16 + ^ .ra: .cfa -24 + ^ x29: .cfa -32 + ^
STACK CFI 1a68c .cfa: sp 48 +
STACK CFI 1a698 .cfa: sp 0 +
STACK CFI 1a69c .cfa: x29 32 +
STACK CFI INIT 1a734 154 .cfa: sp 0 +
STACK CFI 1a738 .cfa: sp 384 +
STACK CFI 1a74c .cfa: x29 64 + x19: .cfa -8 + ^ x20: .cfa -16 + ^ x21: .cfa -24 + ^ x22: .cfa -32 + ^ x23: .cfa -40 + ^ x28: .cfa -48 + ^ .ra: .cfa -56 + ^ x29: .cfa -64 + ^
STACK CFI 1a830 .cfa: sp 384 +
STACK CFI 1a844 .cfa: sp 0 +
STACK CFI 1a848 .cfa: x29 64 +
STACK CFI INIT 1a8bc 12c .cfa: sp 0 +
STACK CFI 1a8c0 .cfa: sp 80 +
STACK CFI 1a8d4 .cfa: x29 80 + x19: .cfa -8 + ^ x20: .cfa -16 + ^ x21: .cfa -24 + ^ x22: .cfa -32 + ^ x23: .cfa -40 + ^ x24: .cfa -48 + ^ x25: .cfa -56 + ^ x26: .cfa -64 + ^ .ra: .cfa -72 + ^ x29: .cfa -80 + ^
STACK CFI 1a99c .cfa: sp 80 +
STACK CFI 1a9b0 .cfa: sp 0 +
STACK CFI 1a9b4 .cfa: x29 80 +
STACK CFI INIT 1aa8c 1a4 .cfa: sp 0 +
STACK CFI 1aa90 .cfa: sp 112 +
STACK CFI 1aaa8 .cfa: x29 80 + x19: .cfa -8 + ^ x20: .cfa -16 + ^ x21: .cfa -24 + ^ x22: .cfa -32 + ^ x23: .cfa -40 + ^ x24: .cfa -48 + ^ x25: .cfa -56 + ^ x26: .cfa -64 + ^ .ra: .cfa -72 + ^ x29: .cfa -80 + ^
STACK CFI 1ab98 .cfa: sp 112 +
STACK CFI 1abb0 .cfa: sp 0 +
STACK CFI 1abb4 .cfa: x29 80 +
STACK CFI INIT 1ac30 1dc .cfa: sp 0 +
STACK CFI 1ac34 .cfa: sp 128 +
STACK CFI 1ac50 .cfa: x29 96 + x19: .cfa -8 + ^ x20: .cfa -16 + ^ x21: .cfa -24 + ^ x22: .cfa -32 + ^ x23: .cfa -40 + ^ x24: .cfa -48 + ^ x25: .cfa -56 + ^ x26: .cfa -64 + ^ x27: .cfa -80 + ^ .ra: .cfa -88 + ^ x29: .cfa -96 + ^
STACK CFI 1adbc .cfa: sp 128 +
STACK CFI 1add8 .cfa: sp 0 +
STACK CFI 1addc .cfa: x29 96 +
STACK CFI INIT 1ae20 50 .cfa: sp 0 +
STACK CFI 1ae24 .cfa: sp 32 +
STACK CFI 1ae2c .cfa: x29 32 + x19: .cfa -8 + ^ x20: .cfa -16 + ^ .ra: .cfa -24 + ^ x29: .cfa -32 + ^
STACK CFI INIT 1aed4 178 .cfa: sp 0 +
STACK CFI 1aed8 .cfa: sp 80 +
STACK CFI 1aeec .cfa: x29 80 + x19: .cfa -8 + ^ x20: .cfa -16 + ^ x21: .cfa -24 + ^ x22: .cfa -32 + ^ x23: .cfa -40 + ^ x24: .cfa -48 + ^ x25: .cfa -64 + ^ .ra: .cfa -72 + ^ x29: .cfa -80 + ^
STACK CFI 1b018 .cfa: sp 80 +
STACK CFI 1b02c .cfa: sp 0 +
STACK CFI 1b030 .cfa: x29 80 +
STACK CFI INIT 1b5ac 4d4 .cfa: sp 0 +
STACK CFI 1b5b0 .cfa: sp 176 +
STACK CFI 1b5c4 .cfa: x29 64 + x19: .cfa -8 + ^ x20: .cfa -16 + ^ x21: .cfa -24 + ^ x22: .cfa -32 + ^ x23: .cfa -48 + ^ .ra: .cfa -56 + ^ x29: .cfa -64 + ^
STACK CFI 1ba14 .cfa: sp 176 +
STACK CFI 1ba28 .cfa: sp 0 +
STACK CFI 1ba2c .cfa: x29 64 +
STACK CFI INIT 1ba80 c8 .cfa: sp 0 +
STACK CFI 1ba84 .cfa: sp 64 +
STACK CFI 1ba90 .cfa: x29 32 + x19: .cfa -8 + ^ x20: .cfa -16 + ^ .ra: .cfa -24 + ^ x29: .cfa -32 + ^
STACK CFI 1baf4 .cfa: sp 64 +
STACK CFI 1bb00 .cfa: sp 0 +
STACK CFI 1bb04 .cfa: x29 32 +
STACK CFI INIT 1bb48 788 .cfa: sp 0 +
STACK CFI 1bb4c .cfa: sp 240 +
STACK CFI 1bb64 .cfa: x29 80 + x19: .cfa -8 + ^ x20: .cfa -16 + ^ x21: .cfa -24 + ^ x22: .cfa -32 + ^ x23: .cfa -40 + ^ x24: .cfa -48 + ^ x25: .cfa -56 + ^ x26: .cfa -64 + ^ .ra: .cfa -72 + ^ x29: .cfa -80 + ^
STACK CFI 1c1c0 .cfa: sp 240 +
STACK CFI 1c1d8 .cfa: sp 0 +
STACK CFI 1c1dc .cfa: x29 80 +
STACK CFI INIT 1c3b4 1a3c .cfa: sp 0 +
STACK CFI 1c3b8 .cfa: sp 96 +
STACK CFI 1c3d0 .cfa: x29 96 + x19: .cfa -8 + ^ x20: .cfa -16 + ^ x21: .cfa -24 + ^ x22: .cfa -32 + ^ x23: .cfa -40 + ^ x24: .cfa -48 + ^ x25: .cfa -56 + ^ x26: .cfa -64 + ^ x27: .cfa -72 + ^ x28: .cfa -80 + ^ .ra: .cfa -88 + ^ x29: .cfa -96 + ^
STACK CFI 1dac0 .cfa: sp 96 +
STACK CFI 1dad8 .cfa: sp 0 +
STACK CFI 1dadc .cfa: x29 96 +
STACK CFI INIT 1df04 138 .cfa: sp 0 +
STACK CFI 1df08 .cfa: sp 64 +
STACK CFI 1df18 .cfa: x29 64 + x19: .cfa -8 + ^ x20: .cfa -16 + ^ x21: .cfa -24 + ^ x22: .cfa -32 + ^ x23: .cfa -40 + ^ x24: .cfa -48 + ^ .ra: .cfa -56 + ^ x29: .cfa -64 + ^
STACK CFI 1dfb4 .cfa: sp 64 +
STACK CFI 1dfc4 .cfa: sp 0 +
STACK CFI 1dfc8 .cfa: x29 64 +
STACK CFI 1dffc .cfa: sp 64 +
STACK CFI 1e00c .cfa: sp 0 +
STACK CFI 1e010 .cfa: x29 64 +
STACK CFI INIT 1e03c 138 .cfa: sp 0 +
STACK CFI 1e040 .cfa: sp 64 +
STACK CFI 1e050 .cfa: x29 64 + x19: .cfa -8 + ^ x20: .cfa -16 + ^ x21: .cfa -24 + ^ x22: .cfa -32 + ^ x23: .cfa -40 + ^ x24: .cfa -48 + ^ .ra: .cfa -56 + ^ x29: .cfa -64 + ^
STACK CFI 1e0ec .cfa: sp 64 +
STACK CFI 1e0fc .cfa: sp 0 +
STACK CFI 1e100 .cfa: x29 64 +
STACK CFI 1e134 .cfa: sp 64 +
STACK CFI 1e144 .cfa: sp 0 +
STACK CFI 1e148 .cfa: x29 64 +
STACK CFI INIT 1e174 138 .cfa: sp 0 +
STACK CFI 1e178 .cfa: sp 64 +
STACK CFI 1e188 .cfa: x29 64 + x19: .cfa -8 + ^ x20: .cfa -16 + ^ x21: .cfa -24 + ^ x22: .cfa -32 + ^ x23: .cfa -40 + ^ x24: .cfa -48 + ^ .ra: .cfa -56 + ^ x29: .cfa -64 + ^
STACK CFI 1e224 .cfa: sp 64 +
STACK CFI 1e234 .cfa: sp 0 +
STACK CFI 1e238 .cfa: x29 64 +
STACK CFI 1e26c .cfa: sp 64 +
STACK CFI 1e27c .cfa: sp 0 +
STACK CFI 1e280 .cfa: x29 64 +
STACK CFI INIT 1e2ac 138 .cfa: sp 0 +
STACK CFI 1e2b0 .cfa: sp 64 +
STACK CFI 1e2c0 .cfa: x29 64 + x19: .cfa -8 + ^ x20: .cfa -16 + ^ x21: .cfa -24 + ^ x22: .cfa -32 + ^ x23: .cfa -40 + ^ x24: .cfa -48 + ^ .ra: .cfa -56 + ^ x29: .cfa -64 + ^
STACK CFI 1e35c .cfa: sp 64 +
STACK CFI 1e36c .cfa: sp 0 +
STACK CFI 1e370 .cfa: x29 64 +
STACK CFI 1e3a4 .cfa: sp 64 +
STACK CFI 1e3b4 .cfa: sp 0 +
STACK CFI 1e3b8 .cfa: x29 64 +
STACK CFI INIT 1e3e4 138 .cfa: sp 0 +
STACK CFI 1e3e8 .cfa: sp 64 +
STACK CFI 1e3f8 .cfa: x29 64 + x19: .cfa -8 + ^ x20: .cfa -16 + ^ x21: .cfa -24 + ^ x22: .cfa -32 + ^ x23: .cfa -40 + ^ x24: .cfa -48 + ^ .ra: .cfa -56 + ^ x29: .cfa -64 + ^
STACK CFI 1e494 .cfa: sp 64 +
STACK CFI 1e4a4 .cfa: sp 0 +
STACK CFI 1e4a8 .cfa: x29 64 +
STACK CFI 1e4dc .cfa: sp 64 +
STACK CFI 1e4ec .cfa: sp 0 +
STACK CFI 1e4f0 .cfa: x29 64 +
STACK CFI INIT 1e51c 138 .cfa: sp 0 +
STACK CFI 1e520 .cfa: sp 64 +
STACK CFI 1e530 .cfa: x29 64 + x19: .cfa -8 + ^ x20: .cfa -16 + ^ x21: .cfa -24 + ^ x22: .cfa -32 + ^ x23: .cfa -40 + ^ x24: .cfa -48 + ^ .ra: .cfa -56 + ^ x29: .cfa -64 + ^
STACK CFI 1e5cc .cfa: sp 64 +
STACK CFI 1e5dc .cfa: sp 0 +
STACK CFI 1e5e0 .cfa: x29 64 +
STACK CFI 1e614 .cfa: sp 64 +
STACK CFI 1e624 .cfa: sp 0 +
STACK CFI 1e628 .cfa: x29 64 +
STACK CFI INIT 1e654 138 .cfa: sp 0 +
STACK CFI 1e658 .cfa: sp 64 +
STACK CFI 1e668 .cfa: x29 64 + x19: .cfa -8 + ^ x20: .cfa -16 + ^ x21: .cfa -24 + ^ x22: .cfa -32 + ^ x23: .cfa -40 + ^ x24: .cfa -48 + ^ .ra: .cfa -56 + ^ x29: .cfa -64 + ^
STACK CFI 1e704 .cfa: sp 64 +
STACK CFI 1e714 .cfa: sp 0 +
STACK CFI 1e718 .cfa: x29 64 +
STACK CFI 1e74c .cfa: sp 64 +
STACK CFI 1e75c .cfa: sp 0 +
STACK CFI 1e760 .cfa: x29 64 +
STACK CFI INIT 1e78c 138 .cfa: sp 0 +
STACK CFI 1e790 .cfa: sp 64 +
STACK CFI 1e7a0 .cfa: x29 64 + x19: .cfa -8 + ^ x20: .cfa -16 + ^ x21: .cfa -24 + ^ x22: .cfa -32 + ^ x23: .cfa -40 + ^ x24: .cfa -48 + ^ .ra: .cfa -56 + ^ x29: .cfa -64 + ^
STACK CFI 1e83c .cfa: sp 64 +
STACK CFI 1e84c .cfa: sp 0 +
STACK CFI 1e850 .cfa: x29 64 +
STACK CFI 1e884 .cfa: sp 64 +
STACK CFI 1e894 .cfa: sp 0 +
STACK CFI 1e898 .cfa: x29 64 +
STACK CFI INIT 1e8c4 138 .cfa: sp 0 +
STACK CFI 1e8c8 .cfa: sp 64 +
STACK CFI 1e8d8 .cfa: x29 64 + x19: .cfa -8 + ^ x20: .cfa -16 + ^ x21: .cfa -24 + ^ x22: .cfa -32 + ^ x23: .cfa -40 + ^ x24: .cfa -48 + ^ .ra: .cfa -56 + ^ x29: .cfa -64 + ^
STACK CFI 1e974 .cfa: sp 64 +
STACK CFI 1e984 .cfa: sp 0 +
STACK CFI 1e988 .cfa: x29 64 +
STACK CFI 1e9bc .cfa: sp 64 +
STACK CFI 1e9cc .cfa: sp 0 +
STACK CFI 1e9d0 .cfa: x29 64 +
STACK CFI INIT 1e9fc 138 .cfa: sp 0 +
STACK CFI 1ea00 .cfa: sp 64 +
STACK CFI 1ea10 .cfa: x29 64 + x19: .cfa -8 + ^ x20: .cfa -16 + ^ x21: .cfa -24 + ^ x22: .cfa -32 + ^ x23: .cfa -40 + ^ x24: .cfa -48 + ^ .ra: .cfa -56 + ^ x29: .cfa -64 + ^
STACK CFI 1eaac .cfa: sp 64 +
STACK CFI 1eabc .cfa: sp 0 +
STACK CFI 1eac0 .cfa: x29 64 +
STACK CFI 1eaf4 .cfa: sp 64 +
STACK CFI 1eb04 .cfa: sp 0 +
STACK CFI 1eb08 .cfa: x29 64 +
STACK CFI INIT 1eb34 138 .cfa: sp 0 +
STACK CFI 1eb38 .cfa: sp 64 +
STACK CFI 1eb48 .cfa: x29 64 + x19: .cfa -8 + ^ x20: .cfa -16 + ^ x21: .cfa -24 + ^ x22: .cfa -32 + ^ x23: .cfa -40 + ^ x24: .cfa -48 + ^ .ra: .cfa -56 + ^ x29: .cfa -64 + ^
STACK CFI 1ebe4 .cfa: sp 64 +
STACK CFI 1ebf4 .cfa: sp 0 +
STACK CFI 1ebf8 .cfa: x29 64 +
STACK CFI 1ec2c .cfa: sp 64 +
STACK CFI 1ec3c .cfa: sp 0 +
STACK CFI 1ec40 .cfa: x29 64 +
STACK CFI INIT 1ec6c 138 .cfa: sp 0 +
STACK CFI 1ec70 .cfa: sp 64 +
STACK CFI 1ec80 .cfa: x29 64 + x19: .cfa -8 + ^ x20: .cfa -16 + ^ x21: .cfa -24 + ^ x22: .cfa -32 + ^ x23: .cfa -40 + ^ x24: .cfa -48 + ^ .ra: .cfa -56 + ^ x29: .cfa -64 + ^
STACK CFI 1ed1c .cfa: sp 64 +
STACK CFI 1ed2c .cfa: sp 0 +
STACK CFI 1ed30 .cfa: x29 64 +
STACK CFI 1ed64 .cfa: sp 64 +
STACK CFI 1ed74 .cfa: sp 0 +
STACK CFI 1ed78 .cfa: x29 64 +
STACK CFI INIT 1eda4 138 .cfa: sp 0 +
STACK CFI 1eda8 .cfa: sp 64 +
STACK CFI 1edb8 .cfa: x29 64 + x19: .cfa -8 + ^ x20: .cfa -16 + ^ x21: .cfa -24 + ^ x22: .cfa -32 + ^ x23: .cfa -40 + ^ x24: .cfa -48 + ^ .ra: .cfa -56 + ^ x29: .cfa -64 + ^
STACK CFI 1ee54 .cfa: sp 64 +
STACK CFI 1ee64 .cfa: sp 0 +
STACK CFI 1ee68 .cfa: x29 64 +
STACK CFI 1ee9c .cfa: sp 64 +
STACK CFI 1eeac .cfa: sp 0 +
STACK CFI 1eeb0 .cfa: x29 64 +
STACK CFI INIT 1eedc 138 .cfa: sp 0 +
STACK CFI 1eee0 .cfa: sp 64 +
STACK CFI 1eef0 .cfa: x29 64 + x19: .cfa -8 + ^ x20: .cfa -16 + ^ x21: .cfa -24 + ^ x22: .cfa -32 + ^ x23: .cfa -40 + ^ x24: .cfa -48 + ^ .ra: .cfa -56 + ^ x29: .cfa -64 + ^
STACK CFI 1ef8c .cfa: sp 64 +
STACK CFI 1ef9c .cfa: sp 0 +
STACK CFI 1efa0 .cfa: x29 64 +
STACK CFI 1efd4 .cfa: sp 64 +
STACK CFI 1efe4 .cfa: sp 0 +
STACK CFI 1efe8 .cfa: x29 64 +
STACK CFI INIT 1f014 138 .cfa: sp 0 +
STACK CFI 1f018 .cfa: sp 64 +
STACK CFI 1f028 .cfa: x29 64 + x19: .cfa -8 + ^ x20: .cfa -16 + ^ x21: .cfa -24 + ^ x22: .cfa -32 + ^ x23: .cfa -40 + ^ x24: .cfa -48 + ^ .ra: .cfa -56 + ^ x29: .cfa -64 + ^
STACK CFI 1f0c4 .cfa: sp 64 +
STACK CFI 1f0d4 .cfa: sp 0 +
STACK CFI 1f0d8 .cfa: x29 64 +
STACK CFI 1f10c .cfa: sp 64 +
STACK CFI 1f11c .cfa: sp 0 +
STACK CFI 1f120 .cfa: x29 64 +
STACK CFI INIT 1f190 164 .cfa: sp 0 +
STACK CFI 1f194 .cfa: sp 64 +
STACK CFI 1f1a0 .cfa: x29 32 + x19: .cfa -8 + ^ x20: .cfa -16 + ^ .ra: .cfa -24 + ^ x29: .cfa -32 + ^
STACK CFI 1f2bc .cfa: sp 64 +
STACK CFI 1f2c8 .cfa: sp 0 +
STACK CFI 1f2cc .cfa: x29 32 +
STACK CFI INIT 1f2f4 1ec .cfa: sp 0 +
STACK CFI 1f2f8 .cfa: sp 112 +
STACK CFI 1f30c .cfa: x29 64 + x19: .cfa -8 + ^ x20: .cfa -16 + ^ x21: .cfa -24 + ^ x22: .cfa -32 + ^ x23: .cfa -40 + ^ x24: .cfa -48 + ^ .ra: .cfa -56 + ^ x29: .cfa -64 + ^
STACK CFI 1f48c .cfa: sp 112 +
STACK CFI 1f4a0 .cfa: sp 0 +
STACK CFI 1f4a4 .cfa: x29 64 +
STACK CFI INIT 1f4e0 5c0 .cfa: sp 0 +
STACK CFI 1f4e4 .cfa: sp 224 +
STACK CFI 1f4f8 .cfa: x29 48 + x19: .cfa -8 + ^ x20: .cfa -16 + ^ x21: .cfa -24 + ^ x22: .cfa -32 + ^ .ra: .cfa -40 + ^ x29: .cfa -48 + ^ v8: .cfa -56 + ^ v9: .cfa -64 + ^
STACK CFI 1f9f0 .cfa: sp 224 +
STACK CFI 1fa04 .cfa: sp 0 +
STACK CFI 1fa08 .cfa: x29 48 +
STACK CFI INIT 1fae4 1fb4 .cfa: sp 0 +
STACK CFI 1fae8 .cfa: sp 112 +
STACK CFI 1fb04 .cfa: x29 96 + x19: .cfa -8 + ^ x20: .cfa -16 + ^ x21: .cfa -24 + ^ x22: .cfa -32 + ^ x23: .cfa -40 + ^ x24: .cfa -48 + ^ x25: .cfa -56 + ^ x26: .cfa -64 + ^ x27: .cfa -72 + ^ x28: .cfa -80 + ^ .ra: .cfa -88 + ^ x29: .cfa -96 + ^ v8: .cfa -112 + ^
STACK CFI 214dc .cfa: sp 112 +
STACK CFI 214f8 .cfa: sp 0 +
STACK CFI 214fc .cfa: x29 96 +
STACK CFI INIT 21a98 630 .cfa: sp 0 +
STACK CFI 21a9c .cfa: sp 304 +
STACK CFI 21ab0 .cfa: x29 64 + x19: .cfa -8 + ^ x20: .cfa -16 + ^ x21: .cfa -24 + ^ x22: .cfa -32 + ^ x28: .cfa -48 + ^ .ra: .cfa -56 + ^ x29: .cfa -64 + ^
STACK CFI 21f98 .cfa: sp 304 +
STACK CFI 21fac .cfa: sp 0 +
STACK CFI 21fb0 .cfa: x29 64 +
STACK CFI INIT 22118 240 .cfa: sp 0 +
STACK CFI 2211c .cfa: sp 128 +
STACK CFI 22134 .cfa: x29 64 + x19: .cfa -8 + ^ x20: .cfa -16 + ^ x21: .cfa -24 + ^ x22: .cfa -32 + ^ x23: .cfa -40 + ^ x24: .cfa -48 + ^ .ra: .cfa -56 + ^ x29: .cfa -64 + ^ v8: .cfa -80 + ^
STACK CFI 22308 .cfa: sp 128 +
STACK CFI 22320 .cfa: sp 0 +
STACK CFI 22324 .cfa: x29 64 +
STACK CFI INIT 22358 1c .cfa: sp 0 +
STACK CFI 2235c .cfa: sp 16 +
STACK CFI 22360 .cfa: x29 16 + .ra: .cfa -8 + ^ x29: .cfa -16 + ^
STACK CFI 22368 .cfa: sp 16 +
STACK CFI 2236c .cfa: sp 0 +
STACK CFI 22370 .cfa: x29 16 +
STACK CFI INIT 2237c d8 .cfa: sp 0 +
STACK CFI 22380 .cfa: sp 32 +
STACK CFI 22388 .cfa: x29 32 + x19: .cfa -16 + ^ .ra: .cfa -24 + ^ x29: .cfa -32 + ^
STACK CFI 22444 .cfa: sp 32 +
STACK CFI 2244c .cfa: sp 0 +
STACK CFI 22450 .cfa: x29 32 +
STACK CFI INIT 22454 e0 .cfa: sp 0 +
STACK CFI 22458 .cfa: sp 32 +
STACK CFI 22460 .cfa: x29 32 + x19: .cfa -16 + ^ .ra: .cfa -24 + ^ x29: .cfa -32 + ^
STACK CFI 22524 .cfa: sp 32 +
STACK CFI 2252c .cfa: sp 0 +
STACK CFI 22530 .cfa: x29 32 +
STACK CFI INIT 22594 148 .cfa: sp 0 +
STACK CFI 22598 .cfa: sp 96 +
STACK CFI 225a8 .cfa: x29 48 + x19: .cfa -8 + ^ x20: .cfa -16 + ^ x21: .cfa -32 + ^ .ra: .cfa -40 + ^ x29: .cfa -48 + ^
STACK CFI 22690 .cfa: sp 96 +
STACK CFI 226a0 .cfa: sp 0 +
STACK CFI 226a4 .cfa: x29 48 +
STACK CFI INIT 226dc dc .cfa: sp 0 +
STACK CFI 226e0 .cfa: sp 32 +
STACK CFI 226e8 .cfa: x29 32 + x19: .cfa -8 + ^ x20: .cfa -16 + ^ .ra: .cfa -24 + ^ x29: .cfa -32 + ^
STACK CFI 227a8 .cfa: sp 32 +
STACK CFI 227b0 .cfa: sp 0 +
STACK CFI 227b4 .cfa: x29 32 +
STACK CFI INIT 227b8 e4 .cfa: sp 0 +
STACK CFI 227bc .cfa: sp 32 +
STACK CFI 227c4 .cfa: x29 32 + x19: .cfa -8 + ^ x20: .cfa -16 + ^ .ra: .cfa -24 + ^ x29: .cfa -32 + ^
STACK CFI 2288c .cfa: sp 32 +
STACK CFI 22894 .cfa: sp 0 +
STACK CFI 22898 .cfa: x29 32 +
STACK CFI INIT 228e4 6c .cfa: sp 0 +
STACK CFI 228e8 .cfa: sp 32 +
STACK CFI 228f0 .cfa: x29 32 + x19: .cfa -16 + ^ .ra: .cfa -24 + ^ x29: .cfa -32 + ^
STACK CFI 22940 .cfa: sp 32 +
STACK CFI 22948 .cfa: sp 0 +
STACK CFI 2294c .cfa: x29 32 +
STACK CFI INIT 22950 74 .cfa: sp 0 +
STACK CFI 22954 .cfa: sp 32 +
STACK CFI 2295c .cfa: x29 32 + x19: .cfa -16 + ^ .ra: .cfa -24 + ^ x29: .cfa -32 + ^
STACK CFI 229b4 .cfa: sp 32 +
STACK CFI 229bc .cfa: sp 0 +
STACK CFI 229c0 .cfa: x29 32 +
STACK CFI INIT 22a18 148 .cfa: sp 0 +
STACK CFI 22a1c .cfa: sp 96 +
STACK CFI 22a2c .cfa: x29 48 + x19: .cfa -8 + ^ x20: .cfa -16 + ^ x21: .cfa -32 + ^ .ra: .cfa -40 + ^ x29: .cfa -48 + ^
STACK CFI 22b14 .cfa: sp 96 +
STACK CFI 22b24 .cfa: sp 0 +
STACK CFI 22b28 .cfa: x29 48 +
STACK CFI INIT 22b60 6c .cfa: sp 0 +
STACK CFI 22b64 .cfa: sp 32 +
STACK CFI 22b6c .cfa: x29 32 + x19: .cfa -16 + ^ .ra: .cfa -24 + ^ x29: .cfa -32 + ^
STACK CFI 22bbc .cfa: sp 32 +
STACK CFI 22bc4 .cfa: sp 0 +
STACK CFI 22bc8 .cfa: x29 32 +
STACK CFI INIT 22bcc 74 .cfa: sp 0 +
STACK CFI 22bd0 .cfa: sp 32 +
STACK CFI 22bd8 .cfa: x29 32 + x19: .cfa -16 + ^ .ra: .cfa -24 + ^ x29: .cfa -32 + ^
STACK CFI 22c30 .cfa: sp 32 +
STACK CFI 22c38 .cfa: sp 0 +
STACK CFI 22c3c .cfa: x29 32 +
STACK CFI INIT 22c6c 6c .cfa: sp 0 +
STACK CFI 22c70 .cfa: sp 32 +
STACK CFI 22c78 .cfa: x29 32 + x19: .cfa -16 + ^ .ra: .cfa -24 + ^ x29: .cfa -32 + ^
STACK CFI 22cc8 .cfa: sp 32 +
STACK CFI 22cd0 .cfa: sp 0 +
STACK CFI 22cd4 .cfa: x29 32 +
STACK CFI INIT 22cdc 6c .cfa: sp 0 +
STACK CFI 22ce0 .cfa: sp 32 +
STACK CFI 22ce8 .cfa: x29 32 + x19: .cfa -16 + ^ .ra: .cfa -24 + ^ x29: .cfa -32 + ^
STACK CFI 22d38 .cfa: sp 32 +
STACK CFI 22d40 .cfa: sp 0 +
STACK CFI 22d44 .cfa: x29 32 +
STACK CFI INIT 22fe4 6c .cfa: sp 0 +
STACK CFI 22fe8 .cfa: sp 32 +
STACK CFI 22ff0 .cfa: x29 32 + x19: .cfa -16 + ^ .ra: .cfa -24 + ^ x29: .cfa -32 + ^
STACK CFI 23040 .cfa: sp 32 +
STACK CFI 23048 .cfa: sp 0 +
STACK CFI 2304c .cfa: x29 32 +
STACK CFI INIT 2314c 1a0 .cfa: sp 0 +
STACK CFI 23150 .cfa: sp 368 +
STACK CFI 23160 .cfa: x29 48 + x19: .cfa -8 + ^ x20: .cfa -16 + ^ x21: .cfa -24 + ^ x28: .cfa -32 + ^ .ra: .cfa -40 + ^ x29: .cfa -48 + ^
STACK CFI 23294 .cfa: sp 368 +
STACK CFI 232a4 .cfa: sp 0 +
STACK CFI 232a8 .cfa: x29 48 +
STACK CFI INIT 234d8 50 .cfa: sp 0 +
STACK CFI 234dc .cfa: sp 32 +
STACK CFI 234e4 .cfa: x29 32 + x19: .cfa -8 + ^ x20: .cfa -16 + ^ .ra: .cfa -24 + ^ x29: .cfa -32 + ^
STACK CFI INIT 238b8 3c8 .cfa: sp 0 +
STACK CFI 238bc .cfa: sp 336 +
STACK CFI 238d8 .cfa: x29 96 + x19: .cfa -8 + ^ x20: .cfa -16 + ^ x21: .cfa -24 + ^ x22: .cfa -32 + ^ x23: .cfa -40 + ^ x24: .cfa -48 + ^ x25: .cfa -56 + ^ x26: .cfa -64 + ^ x27: .cfa -72 + ^ x28: .cfa -80 + ^ .ra: .cfa -88 + ^ x29: .cfa -96 + ^
STACK CFI 23bc8 .cfa: sp 336 +
STACK CFI 23be4 .cfa: sp 0 +
STACK CFI 23be8 .cfa: x29 96 +
STACK CFI INIT 23ca8 1c .cfa: sp 0 +
STACK CFI 23cac .cfa: sp 16 +
STACK CFI 23cb0 .cfa: x29 16 + .ra: .cfa -8 + ^ x29: .cfa -16 + ^
STACK CFI 23cb8 .cfa: sp 16 +
STACK CFI 23cbc .cfa: sp 0 +
STACK CFI 23cc0 .cfa: x29 16 +
STACK CFI INIT 23f7c 134 .cfa: sp 0 +
STACK CFI 23f80 .cfa: sp 80 +
STACK CFI 23f8c .cfa: x29 32 + x19: .cfa -8 + ^ x20: .cfa -16 + ^ .ra: .cfa -24 + ^ x29: .cfa -32 + ^
STACK CFI 23fbc .cfa: sp 80 +
STACK CFI 23fc8 .cfa: sp 0 +
STACK CFI 23fcc .cfa: x29 32 +
STACK CFI INIT 240b0 78 .cfa: sp 0 +
STACK CFI 240b4 .cfa: sp 32 +
STACK CFI 240bc .cfa: x29 32 + x19: .cfa -8 + ^ x20: .cfa -16 + ^ .ra: .cfa -24 + ^ x29: .cfa -32 + ^
STACK CFI 240c8 .cfa: sp 32 +
STACK CFI 240d0 .cfa: sp 0 +
STACK CFI 240d4 .cfa: x29 32 +
STACK CFI INIT 24128 74 .cfa: sp 0 +
STACK CFI 2412c .cfa: sp 48 +
STACK CFI 24138 .cfa: x29 32 + x19: .cfa -8 + ^ x20: .cfa -16 + ^ .ra: .cfa -24 + ^ x29: .cfa -32 + ^
STACK CFI 24184 .cfa: sp 48 +
STACK CFI 24190 .cfa: sp 0 +
STACK CFI 24194 .cfa: x29 32 +
STACK CFI INIT 24200 224 .cfa: sp 0 +
STACK CFI 24204 .cfa: sp 128 +
STACK CFI 24214 .cfa: x29 48 + x19: .cfa -8 + ^ x20: .cfa -16 + ^ x21: .cfa -32 + ^ .ra: .cfa -40 + ^ x29: .cfa -48 + ^
STACK CFI 242c4 .cfa: sp 128 +
STACK CFI 242d4 .cfa: sp 0 +
STACK CFI 242d8 .cfa: x29 48 +
STACK CFI INIT 24448 25c .cfa: sp 0 +
STACK CFI 2444c .cfa: sp 128 +
STACK CFI 2445c .cfa: x29 48 + x19: .cfa -8 + ^ x20: .cfa -16 + ^ x21: .cfa -32 + ^ .ra: .cfa -40 + ^ x29: .cfa -48 + ^
STACK CFI 24544 .cfa: sp 128 +
STACK CFI 24554 .cfa: sp 0 +
STACK CFI 24558 .cfa: x29 48 +
STACK CFI INIT 2471c 300 .cfa: sp 0 +
STACK CFI 24720 .cfa: sp 144 +
STACK CFI 24734 .cfa: x29 64 + x19: .cfa -8 + ^ x20: .cfa -16 + ^ x21: .cfa -24 + ^ x22: .cfa -32 + ^ x23: .cfa -48 + ^ .ra: .cfa -56 + ^ x29: .cfa -64 + ^
STACK CFI 248c8 .cfa: sp 144 +
STACK CFI 248dc .cfa: sp 0 +
STACK CFI 248e0 .cfa: x29 64 +
STACK CFI INIT 24a70 264 .cfa: sp 0 +
STACK CFI 24a74 .cfa: sp 128 +
STACK CFI 24a84 .cfa: x29 48 + x19: .cfa -8 + ^ x20: .cfa -16 + ^ x21: .cfa -32 + ^ .ra: .cfa -40 + ^ x29: .cfa -48 + ^
STACK CFI 24b7c .cfa: sp 128 +
STACK CFI 24b8c .cfa: sp 0 +
STACK CFI 24b90 .cfa: x29 48 +
STACK CFI INIT 24d7c 1b8 .cfa: sp 0 +
STACK CFI 24d80 .cfa: sp 160 +
STACK CFI 24d9c .cfa: x29 72 + x19: .cfa -8 + ^ x20: .cfa -16 + ^ x21: .cfa -24 + ^ x22: .cfa -32 + ^ x23: .cfa -40 + ^ x24: .cfa -48 + ^ x25: .cfa -56 + ^ .ra: .cfa -64 + ^ x29: .cfa -72 + ^ v8: .cfa -80 + ^
STACK CFI 24e20 .cfa: sp 160 +
STACK CFI 24e3c .cfa: sp 0 +
STACK CFI 24e40 .cfa: x29 72 +
STACK CFI INIT 24f34 16c .cfa: sp 0 +
STACK CFI 24f38 .cfa: sp 64 +
STACK CFI 24f48 .cfa: x29 48 + x19: .cfa -8 + ^ x20: .cfa -16 + ^ x21: .cfa -24 + ^ x22: .cfa -32 + ^ .ra: .cfa -40 + ^ x29: .cfa -48 + ^
STACK CFI 25040 .cfa: sp 64 +
STACK CFI 25050 .cfa: sp 0 +
STACK CFI 25054 .cfa: x29 48 +
STACK CFI INIT 25298 178 .cfa: sp 0 +
STACK CFI 2529c .cfa: sp 128 +
STACK CFI 252ac .cfa: x29 48 + x19: .cfa -8 + ^ x20: .cfa -16 + ^ x21: .cfa -24 + ^ x22: .cfa -32 + ^ .ra: .cfa -40 + ^ x29: .cfa -48 + ^
STACK CFI 25308 .cfa: sp 128 +
STACK CFI 25318 .cfa: sp 0 +
STACK CFI 2531c .cfa: x29 48 +
STACK CFI INIT 25410 a4 .cfa: sp 0 +
STACK CFI 25414 .cfa: sp 48 +
STACK CFI 25420 .cfa: x29 48 + x19: .cfa -8 + ^ x20: .cfa -16 + ^ x21: .cfa -32 + ^ .ra: .cfa -40 + ^ x29: .cfa -48 + ^
STACK CFI 2548c .cfa: sp 48 +
STACK CFI 25498 .cfa: sp 0 +
STACK CFI 2549c .cfa: x29 48 +
STACK CFI INIT 254b4 2e4 .cfa: sp 0 +
STACK CFI 254b8 .cfa: sp 144 +
STACK CFI 254cc .cfa: x29 64 + x19: .cfa -8 + ^ x20: .cfa -16 + ^ x21: .cfa -24 + ^ x22: .cfa -32 + ^ x23: .cfa -48 + ^ .ra: .cfa -56 + ^ x29: .cfa -64 + ^
STACK CFI 25644 .cfa: sp 144 +
STACK CFI 25658 .cfa: sp 0 +
STACK CFI 2565c .cfa: x29 64 +
STACK CFI INIT 25798 2e4 .cfa: sp 0 +
STACK CFI 2579c .cfa: sp 144 +
STACK CFI 257b0 .cfa: x29 64 + x19: .cfa -8 + ^ x20: .cfa -16 + ^ x21: .cfa -24 + ^ x22: .cfa -32 + ^ x23: .cfa -48 + ^ .ra: .cfa -56 + ^ x29: .cfa -64 + ^
STACK CFI 25928 .cfa: sp 144 +
STACK CFI 2593c .cfa: sp 0 +
STACK CFI 25940 .cfa: x29 64 +
STACK CFI INIT 25a7c 2a0 .cfa: sp 0 +
STACK CFI 25a80 .cfa: sp 144 +
STACK CFI 25a94 .cfa: x29 64 + x19: .cfa -8 + ^ x20: .cfa -16 + ^ x21: .cfa -24 + ^ x22: .cfa -32 + ^ x23: .cfa -48 + ^ .ra: .cfa -56 + ^ x29: .cfa -64 + ^
STACK CFI 25bc8 .cfa: sp 144 +
STACK CFI 25bdc .cfa: sp 0 +
STACK CFI 25be0 .cfa: x29 64 +
STACK CFI INIT 25d1c 2f0 .cfa: sp 0 +
STACK CFI 25d20 .cfa: sp 144 +
STACK CFI 25d34 .cfa: x29 64 + x19: .cfa -8 + ^ x20: .cfa -16 + ^ x21: .cfa -24 + ^ x22: .cfa -32 + ^ x23: .cfa -48 + ^ .ra: .cfa -56 + ^ x29: .cfa -64 + ^
STACK CFI 25eb8 .cfa: sp 144 +
STACK CFI 25ecc .cfa: sp 0 +
STACK CFI 25ed0 .cfa: x29 64 +
STACK CFI INIT 2600c 4f4 .cfa: sp 0 +
STACK CFI 26010 .cfa: sp 144 +
STACK CFI 26024 .cfa: x29 64 + x19: .cfa -8 + ^ x20: .cfa -16 + ^ x21: .cfa -24 + ^ x22: .cfa -32 + ^ x23: .cfa -48 + ^ .ra: .cfa -56 + ^ x29: .cfa -64 + ^
STACK CFI 26358 .cfa: sp 144 +
STACK CFI 2636c .cfa: sp 0 +
STACK CFI 26370 .cfa: x29 64 +
STACK CFI INIT 26500 154 .cfa: sp 0 +
STACK CFI 26504 .cfa: sp 384 +
STACK CFI 26518 .cfa: x29 64 + x19: .cfa -8 + ^ x20: .cfa -16 + ^ x21: .cfa -24 + ^ x22: .cfa -32 + ^ x23: .cfa -40 + ^ x28: .cfa -48 + ^ .ra: .cfa -56 + ^ x29: .cfa -64 + ^
STACK CFI 265fc .cfa: sp 384 +
STACK CFI 26610 .cfa: sp 0 +
STACK CFI 26614 .cfa: x29 64 +
STACK CFI INIT 26654 168 .cfa: sp 0 +
STACK CFI 26658 .cfa: sp 384 +
STACK CFI 2666c .cfa: x29 64 + x19: .cfa -8 + ^ x20: .cfa -16 + ^ x21: .cfa -24 + ^ x22: .cfa -32 + ^ x23: .cfa -40 + ^ x28: .cfa -48 + ^ .ra: .cfa -56 + ^ x29: .cfa -64 + ^
STACK CFI 26764 .cfa: sp 384 +
STACK CFI 26778 .cfa: sp 0 +
STACK CFI 2677c .cfa: x29 64 +
STACK CFI INIT 267d4 50c .cfa: sp 0 +
STACK CFI 267d8 .cfa: sp 64 +
STACK CFI 267e8 .cfa: x29 64 + x19: .cfa -8 + ^ x20: .cfa -16 + ^ x21: .cfa -24 + ^ x22: .cfa -32 + ^ x23: .cfa -40 + ^ x24: .cfa -48 + ^ .ra: .cfa -56 + ^ x29: .cfa -64 + ^
STACK CFI 26908 .cfa: sp 64 +
STACK CFI 26918 .cfa: sp 0 +
STACK CFI 2691c .cfa: x29 64 +
STACK CFI 26cb4 .cfa: sp 64 +
STACK CFI 26cc4 .cfa: sp 0 +
STACK CFI 26cc8 .cfa: x29 64 +
