MODULE Linux arm64 5A2B14004C039AB291EC536432E2BE4A0 omgrod.bettergaragestats.android64.so
INFO CODE_ID 00142B5A034CB29A91EC536432E2BE4A8ED102B0
INFO GENERATOR mozilla/dump_syms 2.3.4
PUBLIC 4a60 0 __on_dlclose
PUBLIC 4a70 0 __emutls_unregister_key
PUBLIC 4a78 0 __on_dlclose_late
PUBLIC 4a80 0 __atexit_handler_wrapper
PUBLIC 4a94 0 atexit
PUBLIC 4ab0 0 pthread_atfork
PUBLIC 4ac0 0 unwind_phase2
PUBLIC 4bf4 0 _Unwind_Resume
PUBLIC 4c78 0 unwind_phase2_forced
PUBLIC m 4d6c 0 __unw_init_local
PUBLIC m 4e14 0 __unw_get_reg
PUBLIC 4e90 0 __unw_step_stage2
PUBLIC m 4ea4 0 __unw_get_proc_info
PUBLIC m 4ee4 0 __unw_resume
PUBLIC 4f0c 0 libunwind::CFI_Parser<libunwind::LocalAddressSpace>::decodeFDE(libunwind::LocalAddressSpace&, unsigned long, libunwind::CFI_Parser<libunwind::LocalAddressSpace>::FDE_Info*, libunwind::CFI_Parser<libunwind::LocalAddressSpace>::CIE_Info*, bool)
PUBLIC 509c 0 libunwind::CFI_Parser<libunwind::LocalAddressSpace>::parseCIE(libunwind::LocalAddressSpace&, unsigned long, libunwind::CFI_Parser<libunwind::LocalAddressSpace>::CIE_Info*)
PUBLIC 5364 0 libunwind::AbstractUnwindCursor::~AbstractUnwindCursor()
PUBLIC 536c 0 libunwind::UnwindCursor<libunwind::LocalAddressSpace, libunwind::Registers_arm64>::~UnwindCursor()
PUBLIC 5374 0 libunwind::UnwindCursor<libunwind::LocalAddressSpace, libunwind::Registers_arm64>::validReg(int)
PUBLIC 53b8 0 libunwind::UnwindCursor<libunwind::LocalAddressSpace, libunwind::Registers_arm64>::getReg(int)
PUBLIC 54a0 0 libunwind::UnwindCursor<libunwind::LocalAddressSpace, libunwind::Registers_arm64>::setReg(int, unsigned long)
PUBLIC 5588 0 libunwind::UnwindCursor<libunwind::LocalAddressSpace, libunwind::Registers_arm64>::validFloatReg(int)
PUBLIC 559c 0 libunwind::UnwindCursor<libunwind::LocalAddressSpace, libunwind::Registers_arm64>::getFloatReg(int)
PUBLIC 55ac 0 libunwind::UnwindCursor<libunwind::LocalAddressSpace, libunwind::Registers_arm64>::setFloatReg(int, double)
PUBLIC 55bc 0 libunwind::UnwindCursor<libunwind::LocalAddressSpace, libunwind::Registers_arm64>::step(bool)
PUBLIC 56ac 0 libunwind::UnwindCursor<libunwind::LocalAddressSpace, libunwind::Registers_arm64>::getInfo(unw_proc_info_t*)
PUBLIC 56f0 0 libunwind::UnwindCursor<libunwind::LocalAddressSpace, libunwind::Registers_arm64>::jumpto()
PUBLIC 56fc 0 libunwind::UnwindCursor<libunwind::LocalAddressSpace, libunwind::Registers_arm64>::isSignalFrame()
PUBLIC 5708 0 libunwind::UnwindCursor<libunwind::LocalAddressSpace, libunwind::Registers_arm64>::getFunctionName(char*, unsigned long, unsigned long*)
PUBLIC 5734 0 libunwind::UnwindCursor<libunwind::LocalAddressSpace, libunwind::Registers_arm64>::setInfoBasedOnIPRegister(bool)
PUBLIC 59b4 0 libunwind::UnwindCursor<libunwind::LocalAddressSpace, libunwind::Registers_arm64>::getRegisterName(int)
PUBLIC 59c0 0 libunwind::UnwindCursor<libunwind::LocalAddressSpace, libunwind::Registers_arm64>::stepThroughSigReturn(libunwind::Registers_arm64&)
PUBLIC 5ae0 0 libunwind::DwarfInstructions<libunwind::LocalAddressSpace, libunwind::Registers_arm64>::stepWithDwarf(libunwind::LocalAddressSpace&, unsigned long, unsigned long, libunwind::Registers_arm64&, bool&, bool)
PUBLIC 5f68 0 libunwind::CFI_Parser<libunwind::LocalAddressSpace>::parseFDEInstructions(libunwind::LocalAddressSpace&, libunwind::CFI_Parser<libunwind::LocalAddressSpace>::FDE_Info const&, libunwind::CFI_Parser<libunwind::LocalAddressSpace>::CIE_Info const&, unsigned long, int, libunwind::CFI_Parser<libunwind::LocalAddressSpace>::PrologInfo*)
PUBLIC 6bb0 0 libunwind::DwarfInstructions<libunwind::LocalAddressSpace, libunwind::Registers_arm64>::getCFA(libunwind::LocalAddressSpace&, libunwind::CFI_Parser<libunwind::LocalAddressSpace>::PrologInfo const&, libunwind::Registers_arm64 const&)
PUBLIC 6ce4 0 libunwind::DwarfInstructions<libunwind::LocalAddressSpace, libunwind::Registers_arm64>::getSavedRegister(libunwind::LocalAddressSpace&, libunwind::Registers_arm64 const&, unsigned long, libunwind::CFI_Parser<libunwind::LocalAddressSpace>::RegisterLocation const&)
PUBLIC 6ef4 0 libunwind::LocalAddressSpace::getEncodedP(unsigned long&, unsigned long, unsigned char, unsigned long)
PUBLIC 7280 0 libunwind::LocalAddressSpace::getULEB128(unsigned long&, unsigned long)
PUBLIC 7448 0 libunwind::DwarfInstructions<libunwind::LocalAddressSpace, libunwind::Registers_arm64>::evaluateExpression(unsigned long, libunwind::LocalAddressSpace&, libunwind::Registers_arm64 const&, unsigned long)
PUBLIC 7e04 0 libunwind::UnwindCursor<libunwind::LocalAddressSpace, libunwind::Registers_arm64>::getInfoFromDwarfSection(unsigned long, libunwind::UnwindInfoSections const&, unsigned int)
PUBLIC 80d8 0 libunwind::findUnwindSectionsByPhdr(dl_phdr_info*, unsigned long, void*)
PUBLIC 820c 0 libunwind::EHHeaderParser<libunwind::LocalAddressSpace>::decodeEHHdr(libunwind::LocalAddressSpace&, unsigned long, unsigned long, libunwind::EHHeaderParser<libunwind::LocalAddressSpace>::EHHeaderInfo&)
PUBLIC 832c 0 libunwind::CFI_Parser<libunwind::LocalAddressSpace>::findFDE(libunwind::LocalAddressSpace&, unsigned long, unsigned long, unsigned long, unsigned long, libunwind::CFI_Parser<libunwind::LocalAddressSpace>::FDE_Info*, libunwind::CFI_Parser<libunwind::LocalAddressSpace>::CIE_Info*)
PUBLIC 84f4 0 libunwind::EHHeaderParser<libunwind::LocalAddressSpace>::findFDE(libunwind::LocalAddressSpace&, unsigned long, unsigned long, unsigned int, libunwind::CFI_Parser<libunwind::LocalAddressSpace>::FDE_Info*, libunwind::CFI_Parser<libunwind::LocalAddressSpace>::CIE_Info*)
PUBLIC 865c 0 libunwind::EHHeaderParser<libunwind::LocalAddressSpace>::getTableEntrySize(unsigned char)
PUBLIC 8758 0 libunwind::Registers_arm64::getRegisterName(int)
PUBLIC 8788 0 __libunwind_Registers_arm64_jumpto
PUBLIC m 8818 0 __unw_getcontext
PUBLIC 88c0 0 __aarch64_ldadd8_relax
PUBLIC 88f0 0 init_have_lse_atomics
PUBLIC 8988 0 __init_cpu_features_constructor
PUBLIC 8f24 0 __init_cpu_features
PUBLIC 8fb0 0 __aarch64_ldadd8_acq_rel
PUBLIC 8fe0 0 StatsDisplayAPI::getNewItem(std::__ndk1::basic_string<char, std::__ndk1::char_traits<char>, std::__ndk1::allocator<char> >, cocos2d::CCNode*, int, float)
PUBLIC 9400 0 __cxx_global_var_init
PUBLIC 9fd4 0 geode::modifier::ModifyBase<geode::modifier::ModifyDerive<MyGJGarageLayer, GJGarageLayer> >::~ModifyBase()
PUBLIC 9fec 0 __clang_call_terminate
PUBLIC 9ffc 0 std::__ndk1::basic_string<char, std::__ndk1::char_traits<char>, std::__ndk1::allocator<char> >::__throw_length_error[abi:ne180000]() const
PUBLIC a010 0 std::__ndk1::__throw_length_error[abi:ne180000](char const*)
PUBLIC a060 0 std::length_error::length_error[abi:ne180000](char const*)
PUBLIC a090 0 std::__throw_bad_array_new_length([abi:ne180000], void)
PUBLIC a0c4 0 geode::modifier::ModifyDerive<MyGJGarageLayer, GJGarageLayer>::apply()
PUBLIC a688 0 std::__ndk1::shared_ptr<geode::Hook>::~shared_ptr[abi:ne180000]()
PUBLIC a6d8 0 geode::impl::ResultData<geode::Hook*, std::__ndk1::basic_string<char, std::__ndk1::char_traits<char>, std::__ndk1::allocator<char> > >::~ResultData()
PUBLIC a74c 0 std::__ndk1::vector<std::__ndk1::basic_string<char, std::__ndk1::char_traits<char>, std::__ndk1::allocator<char> >, std::__ndk1::allocator<std::__ndk1::basic_string<char, std::__ndk1::char_traits<char>, std::__ndk1::allocator<char> > > >::~vector[abi:ne180000]()
PUBLIC a7c8 0 geode::modifier::ModifyBase<geode::modifier::ModifyDerive<MyGJGarageLayer, GJGarageLayer> >::apply()
PUBLIC a7cc 0 _ZN5geode15UnwrapExceptionC2IRPNS_4HookEQsr4implE18IsStringStreamableIT_EEENS_4impl5OkTagEOS5_
PUBLIC aec8 0 std::__ndk1::__throw_bad_variant_access[abi:ne180000]()
PUBLIC m aefc 0 std::__ndk1::basic_stringstream<char, std::__ndk1::char_traits<char>, std::__ndk1::allocator<char> >::~basic_stringstream()
PUBLIC af7c 0 geode::UnwrapException::~UnwrapException()
PUBLIC afa0 0 std::__ndk1::basic_string<char, std::__ndk1::char_traits<char>, std::__ndk1::allocator<char> >::__init_copy_ctor_external(char const*, unsigned long)
PUBLIC b01c 0 std::__ndk1::__split_buffer<std::__ndk1::basic_string<char, std::__ndk1::char_traits<char>, std::__ndk1::allocator<char> >, std::__ndk1::allocator<std::__ndk1::basic_string<char, std::__ndk1::char_traits<char>, std::__ndk1::allocator<char> > >&>::~__split_buffer()
PUBLIC b084 0 std::__ndk1::vector<std::__ndk1::basic_string<char, std::__ndk1::char_traits<char>, std::__ndk1::allocator<char> >, std::__ndk1::allocator<std::__ndk1::basic_string<char, std::__ndk1::char_traits<char>, std::__ndk1::allocator<char> > > >::__throw_length_error[abi:ne180000]() const
PUBLIC b098 0 std::__ndk1::__variant_detail::__visitation::__base::__dispatcher<(unsigned long)0>::__dispatch[abi:ne180000]<std::__ndk1::__variant_detail::__dtor<std::__ndk1::__variant_detail::__traits<geode::Hook*, std::__ndk1::basic_string<char, std::__ndk1::char_traits<char>, std::__ndk1::allocator<char> > >, (std::__ndk1::__variant_detail::_Trait)1>::__destroy[abi:ne180000]()::{lambda(auto:1&)#1}, std::__ndk1::__variant_detail::__base<(std::__ndk1::__variant_detail::__traits<geode::Hook*, std::__ndk1::basic_string<char, std::__ndk1::char_traits<char>, std::__ndk1::allocator<char> > >)1, geode::Hook, std::__ndk1::allocator<char> >&>(std::__ndk1::__variant_detail::__dtor<std::__ndk1::__variant_detail::__traits<geode::Hook*, std::__ndk1::basic_string<char, std::__ndk1::char_traits<char>, std::__ndk1::allocator<char> > >, (std::__ndk1::__variant_detail::_Trait)1>, std::__ndk1::__variant_detail::__base<(std::__ndk1::__variant_detail::__traits<geode::Hook*, std::__ndk1::basic_string<char, std::__ndk1::char_traits<char>, std::__ndk1::allocator<char> > >)1, geode::Hook, std::__ndk1::allocator<char> >&)
PUBLIC b09c 0 std::__ndk1::__variant_detail::__visitation::__base::__dispatcher<(unsigned long)1>::__dispatch[abi:ne180000]<std::__ndk1::__variant_detail::__dtor<std::__ndk1::__variant_detail::__traits<geode::Hook*, std::__ndk1::basic_string<char, std::__ndk1::char_traits<char>, std::__ndk1::allocator<char> > >, (std::__ndk1::__variant_detail::_Trait)1>::__destroy[abi:ne180000]()::{lambda(auto:1&)#1}, std::__ndk1::__variant_detail::__base<(std::__ndk1::__variant_detail::__traits<geode::Hook*, std::__ndk1::basic_string<char, std::__ndk1::char_traits<char>, std::__ndk1::allocator<char> > >)1, geode::Hook, std::__ndk1::allocator<char> >&>(std::__ndk1::__variant_detail::__dtor<std::__ndk1::__variant_detail::__traits<geode::Hook*, std::__ndk1::basic_string<char, std::__ndk1::char_traits<char>, std::__ndk1::allocator<char> > >, (std::__ndk1::__variant_detail::_Trait)1>, std::__ndk1::__variant_detail::__base<(std::__ndk1::__variant_detail::__traits<geode::Hook*, std::__ndk1::basic_string<char, std::__ndk1::char_traits<char>, std::__ndk1::allocator<char> > >)1, geode::Hook, std::__ndk1::allocator<char> >&)
PUBLIC b0b0 0 std::__ndk1::__tree<std::__ndk1::__value_type<std::__ndk1::basic_string<char, std::__ndk1::char_traits<char>, std::__ndk1::allocator<char> >, std::__ndk1::shared_ptr<geode::Hook> >, std::__ndk1::__map_value_compare<std::__ndk1::basic_string<char, std::__ndk1::char_traits<char>, std::__ndk1::allocator<char> >, std::__ndk1::__value_type<std::__ndk1::basic_string<char, std::__ndk1::char_traits<char>, std::__ndk1::allocator<char> >, std::__ndk1::shared_ptr<geode::Hook> >, std::__ndk1::less<std::__ndk1::basic_string<char, std::__ndk1::char_traits<char>, std::__ndk1::allocator<char> > >, true>, std::__ndk1::allocator<std::__ndk1::__value_type<std::__ndk1::basic_string<char, std::__ndk1::char_traits<char>, std::__ndk1::allocator<char> >, std::__ndk1::shared_ptr<geode::Hook> > > >::destroy(std::__ndk1::__tree_node<std::__ndk1::__value_type<std::__ndk1::basic_string<char, std::__ndk1::char_traits<char>, std::__ndk1::allocator<char> >, std::__ndk1::shared_ptr<geode::Hook> >, void*>*)
PUBLIC b134 0 geode::modifier::AsStaticFunction_init<MyGJGarageLayer, bool (MyGJGarageLayer::*)()>::Impl<bool (MyGJGarageLayer::*)()>::function(MyGJGarageLayer*)
PUBLIC b400 0 geode::addresser::Addresser::addressOfVirtual<bool, GJGarageLayer, >(bool (GJGarageLayer::*)())
PUBLIC b4a8 0 GJGarageLayer::GJGarageLayer(geode::ZeroConstructorType)
PUBLIC b55c 0 std::__ndk1::shared_ptr<tulip::hook::CallingConvention>::~shared_ptr[abi:ne180000]()
PUBLIC b5ac 0 tulip::hook::HandlerMetadata::~HandlerMetadata()
PUBLIC m b610 0 geodeImplicitEntry
PUBLIC b650 0 <.plt ELF section in omgrod.bettergaragestats.android64.so>
STACK CFI INIT 4a60 10 .cfa: sp 0 +
STACK CFI INIT 4a70 8 .cfa: sp 0 +
STACK CFI INIT 4a78 8 .cfa: sp 0 +
STACK CFI INIT 4a80 14 .cfa: sp 0 +
STACK CFI INIT 4a94 1c .cfa: sp 0 +
STACK CFI INIT 4ab0 10 .cfa: sp 0 +
STACK CFI INIT 4ac0 134 .cfa: sp 0 +
STACK CFI INIT 4bf4 84 .cfa: sp 0 +
STACK CFI INIT 4c78 f4 .cfa: sp 0 +
STACK CFI INIT 4d6c a8 .cfa: sp 0 +
STACK CFI INIT 4e14 7c .cfa: sp 0 +
STACK CFI INIT 4e90 14 .cfa: sp 0 +
STACK CFI INIT 4ea4 40 .cfa: sp 0 +
STACK CFI INIT 4ee4 28 .cfa: sp 0 +
STACK CFI INIT 4f0c 190 .cfa: sp 0 +
STACK CFI INIT 509c 2c8 .cfa: sp 0 +
STACK CFI INIT 5364 8 .cfa: sp 0 +
STACK CFI INIT 536c 8 .cfa: sp 0 +
STACK CFI INIT 5374 44 .cfa: sp 0 +
STACK CFI INIT 53b8 e8 .cfa: sp 0 +
STACK CFI INIT 54a0 e8 .cfa: sp 0 +
STACK CFI INIT 5588 14 .cfa: sp 0 +
STACK CFI INIT 559c 10 .cfa: sp 0 +
STACK CFI INIT 55ac 10 .cfa: sp 0 +
STACK CFI INIT 55bc f0 .cfa: sp 0 +
STACK CFI INIT 56ac 44 .cfa: sp 0 +
STACK CFI INIT 56f0 c .cfa: sp 0 +
STACK CFI INIT 56fc c .cfa: sp 0 +
STACK CFI INIT 5708 2c .cfa: sp 0 +
STACK CFI INIT 5734 280 .cfa: sp 0 +
STACK CFI INIT 59b4 c .cfa: sp 0 +
STACK CFI INIT 59c0 120 .cfa: sp 0 +
STACK CFI INIT 5ae0 488 .cfa: sp 0 +
STACK CFI INIT 5f68 c48 .cfa: sp 0 +
STACK CFI INIT 6bb0 134 .cfa: sp 0 +
STACK CFI INIT 6ce4 210 .cfa: sp 0 +
STACK CFI INIT 6ef4 38c .cfa: sp 0 +
STACK CFI INIT 7280 1c8 .cfa: sp 0 +
STACK CFI INIT 7448 9bc .cfa: sp 0 +
STACK CFI INIT 7e04 2d4 .cfa: sp 0 +
STACK CFI INIT 80d8 134 .cfa: sp 0 +
STACK CFI INIT 820c 120 .cfa: sp 0 +
STACK CFI INIT 832c 1c8 .cfa: sp 0 +
STACK CFI INIT 84f4 168 .cfa: sp 0 +
STACK CFI INIT 865c fc .cfa: sp 0 +
STACK CFI INIT 8758 30 .cfa: sp 0 +
STACK CFI INIT 88c0 30 .cfa: sp 0 +
STACK CFI INIT 88f0 98 .cfa: sp 0 +
STACK CFI INIT 8988 59c .cfa: sp 0 +
STACK CFI INIT 8f24 8c .cfa: sp 0 +
STACK CFI INIT 8fb0 30 .cfa: sp 0 +
STACK CFI INIT 9fd4 18 .cfa: sp 0 +
STACK CFI INIT 9fec 10 .cfa: sp 0 +
STACK CFI 9ff0 .cfa: sp 16 +
STACK CFI 9ff4 .cfa: x29 16 + .ra: .cfa -8 + ^ x29: .cfa -16 + ^
STACK CFI INIT 9ffc 14 .cfa: sp 0 +
STACK CFI a000 .cfa: sp 16 +
STACK CFI a004 .cfa: x29 16 + .ra: .cfa -8 + ^ x29: .cfa -16 + ^
STACK CFI INIT a060 30 .cfa: sp 0 +
STACK CFI a064 .cfa: sp 32 +
STACK CFI a06c .cfa: x29 32 + x19: .cfa -16 + ^ .ra: .cfa -24 + ^ x29: .cfa -32 + ^
STACK CFI a084 .cfa: sp 32 +
STACK CFI a08c .cfa: sp 0 +
STACK CFI INIT a090 34 .cfa: sp 0 +
STACK CFI a094 .cfa: sp 32 +
STACK CFI a09c .cfa: x29 32 + x19: .cfa -16 + ^ .ra: .cfa -24 + ^ x29: .cfa -32 + ^
STACK CFI INIT a688 50 .cfa: sp 0 +
STACK CFI a68c .cfa: sp 32 +
STACK CFI a694 .cfa: x29 32 + x19: .cfa -16 + ^ .ra: .cfa -24 + ^ x29: .cfa -32 + ^
STACK CFI a6ac .cfa: sp 32 +
STACK CFI a6b4 .cfa: sp 0 +
STACK CFI a6b8 .cfa: x29 32 +
STACK CFI a6cc .cfa: sp 32 +
STACK CFI a6d4 .cfa: sp 0 +
STACK CFI INIT a74c 7c .cfa: sp 0 +
STACK CFI a750 .cfa: sp 48 +
STACK CFI a75c .cfa: x29 48 + x19: .cfa -8 + ^ x20: .cfa -16 + ^ x21: .cfa -32 + ^ .ra: .cfa -40 + ^ x29: .cfa -48 + ^
STACK CFI a7a8 .cfa: sp 48 +
STACK CFI a7b4 .cfa: sp 0 +
STACK CFI a7b8 .cfa: sp 48 +
STACK CFI a7c4 .cfa: sp 0 +
STACK CFI INIT a7c8 4 .cfa: sp 0 +
STACK CFI INIT aec8 34 .cfa: sp 0 +
STACK CFI aecc .cfa: sp 16 +
STACK CFI aed0 .cfa: x29 16 + .ra: .cfa -8 + ^ x29: .cfa -16 + ^
STACK CFI INIT aefc 80 .cfa: sp 0 +
STACK CFI af00 .cfa: sp 48 +
STACK CFI af0c .cfa: x29 48 + x19: .cfa -8 + ^ x20: .cfa -16 + ^ x21: .cfa -32 + ^ .ra: .cfa -40 + ^ x29: .cfa -48 + ^
STACK CFI af6c .cfa: sp 48 +
STACK CFI af78 .cfa: sp 0 +
STACK CFI INIT af7c 24 .cfa: sp 0 +
STACK CFI af80 .cfa: sp 32 +
STACK CFI af88 .cfa: x29 32 + x19: .cfa -16 + ^ .ra: .cfa -24 + ^ x29: .cfa -32 + ^
STACK CFI af94 .cfa: sp 32 +
STACK CFI af9c .cfa: sp 0 +
STACK CFI INIT afa0 7c .cfa: sp 0 +
STACK CFI afa4 .cfa: sp 48 +
STACK CFI afb0 .cfa: x29 48 + x19: .cfa -8 + ^ x20: .cfa -16 + ^ x21: .cfa -24 + ^ x22: .cfa -32 + ^ .ra: .cfa -40 + ^ x29: .cfa -48 + ^
STACK CFI afc8 .cfa: sp 48 +
STACK CFI afd4 .cfa: sp 0 +
STACK CFI afd8 .cfa: x29 48 +
STACK CFI b008 .cfa: sp 48 +
STACK CFI b014 .cfa: sp 0 +
STACK CFI b018 .cfa: x29 48 +
STACK CFI INIT b01c 68 .cfa: sp 0 +
STACK CFI b020 .cfa: sp 32 +
STACK CFI b028 .cfa: x29 32 + x19: .cfa -8 + ^ x20: .cfa -16 + ^ .ra: .cfa -24 + ^ x29: .cfa -32 + ^
STACK CFI b040 .cfa: sp 32 +
STACK CFI b048 .cfa: sp 0 +
STACK CFI b04c .cfa: x29 32 +
STACK CFI b078 .cfa: sp 32 +
STACK CFI b080 .cfa: sp 0 +
STACK CFI INIT b084 14 .cfa: sp 0 +
STACK CFI b088 .cfa: sp 16 +
STACK CFI b08c .cfa: x29 16 + .ra: .cfa -8 + ^ x29: .cfa -16 + ^
STACK CFI INIT b098 4 .cfa: sp 0 +
STACK CFI INIT b09c 14 .cfa: sp 0 +
STACK CFI INIT b0b0 84 .cfa: sp 0 +
STACK CFI b0b8 .cfa: sp 32 +
STACK CFI b0c0 .cfa: x29 32 + x19: .cfa -8 + ^ x20: .cfa -16 + ^ .ra: .cfa -24 + ^ x29: .cfa -32 + ^
STACK CFI b100 .cfa: sp 32 +
STACK CFI b108 .cfa: sp 0 +
STACK CFI b110 .cfa: x29 32 +
STACK CFI INIT b4a8 b4 .cfa: sp 0 +
STACK CFI b4ac .cfa: sp 32 +
STACK CFI b4b4 .cfa: x29 32 + x19: .cfa -16 + ^ .ra: .cfa -24 + ^ x29: .cfa -32 + ^
STACK CFI b550 .cfa: sp 32 +
STACK CFI b558 .cfa: sp 0 +
STACK CFI INIT b55c 50 .cfa: sp 0 +
STACK CFI b560 .cfa: sp 32 +
STACK CFI b568 .cfa: x29 32 + x19: .cfa -16 + ^ .ra: .cfa -24 + ^ x29: .cfa -32 + ^
STACK CFI b580 .cfa: sp 32 +
STACK CFI b588 .cfa: sp 0 +
STACK CFI b58c .cfa: x29 32 +
STACK CFI b5a0 .cfa: sp 32 +
STACK CFI b5a8 .cfa: sp 0 +
STACK CFI INIT b5ac 64 .cfa: sp 0 +
STACK CFI b5b0 .cfa: sp 32 +
STACK CFI b5b8 .cfa: x29 32 + x19: .cfa -16 + ^ .ra: .cfa -24 + ^ x29: .cfa -32 + ^
STACK CFI b5e4 .cfa: sp 32 +
STACK CFI b5ec .cfa: sp 0 +
STACK CFI b5f0 .cfa: x29 32 +
STACK CFI b604 .cfa: sp 32 +
STACK CFI b60c .cfa: sp 0 +
STACK CFI INIT b610 3c .cfa: sp 0 +
STACK CFI b614 .cfa: sp 32 +
STACK CFI b61c .cfa: x29 32 + x19: .cfa -16 + ^ .ra: .cfa -24 + ^ x29: .cfa -32 + ^
STACK CFI b628 .cfa: sp 32 +
STACK CFI b630 .cfa: sp 0 +
STACK CFI b634 .cfa: x29 32 +
STACK CFI b640 .cfa: sp 32 +
STACK CFI b648 .cfa: sp 0 +
STACK CFI INIT 8fe0 420 .cfa: sp 0 +
STACK CFI 8fe4 .cfa: sp 144 +
STACK CFI 9004 .cfa: x29 96 + x19: .cfa -8 + ^ x20: .cfa -16 + ^ x21: .cfa -24 + ^ x22: .cfa -32 + ^ x23: .cfa -40 + ^ x24: .cfa -48 + ^ x25: .cfa -56 + ^ x26: .cfa -64 + ^ x27: .cfa -72 + ^ x28: .cfa -80 + ^ .ra: .cfa -88 + ^ x29: .cfa -96 + ^ v8: .cfa -112 + ^
STACK CFI 938c .cfa: sp 144 +
STACK CFI 93ac .cfa: sp 0 +
STACK CFI 93b0 .cfa: x29 96 +
STACK CFI INIT 9400 bd4 .cfa: sp 0 +
STACK CFI 9404 .cfa: sp 240 +
STACK CFI 9420 .cfa: x29 96 + x19: .cfa -8 + ^ x20: .cfa -16 + ^ x21: .cfa -24 + ^ x22: .cfa -32 + ^ x23: .cfa -40 + ^ x24: .cfa -48 + ^ x25: .cfa -56 + ^ x26: .cfa -64 + ^ x27: .cfa -72 + ^ x28: .cfa -80 + ^ .ra: .cfa -88 + ^ x29: .cfa -96 + ^
STACK CFI 97fc .cfa: sp 240 +
STACK CFI 9818 .cfa: sp 0 +
STACK CFI 981c .cfa: x29 96 +
STACK CFI 9e7c .cfa: sp 240 +
STACK CFI 9e98 .cfa: sp 0 +
STACK CFI 9e9c .cfa: x29 96 +
STACK CFI INIT a010 50 .cfa: sp 0 +
STACK CFI a014 .cfa: sp 32 +
STACK CFI a01c .cfa: x29 32 + x19: .cfa -8 + ^ x20: .cfa -16 + ^ .ra: .cfa -24 + ^ x29: .cfa -32 + ^
STACK CFI INIT a0c4 5c4 .cfa: sp 0 +
STACK CFI a0c8 .cfa: sp 224 +
STACK CFI a0e4 .cfa: x29 96 + x19: .cfa -8 + ^ x20: .cfa -16 + ^ x21: .cfa -24 + ^ x22: .cfa -32 + ^ x23: .cfa -40 + ^ x24: .cfa -48 + ^ x25: .cfa -56 + ^ x26: .cfa -64 + ^ x27: .cfa -72 + ^ x28: .cfa -80 + ^ .ra: .cfa -88 + ^ x29: .cfa -96 + ^
STACK CFI a584 .cfa: sp 224 +
STACK CFI a5a0 .cfa: sp 0 +
STACK CFI a5a4 .cfa: x29 96 +
STACK CFI INIT a6d8 74 .cfa: sp 0 +
STACK CFI a6dc .cfa: sp 48 +
STACK CFI a6e8 .cfa: x29 32 + x19: .cfa -8 + ^ x20: .cfa -16 + ^ .ra: .cfa -24 + ^ x29: .cfa -32 + ^
STACK CFI a734 .cfa: sp 48 +
STACK CFI a740 .cfa: sp 0 +
STACK CFI a744 .cfa: x29 32 +
STACK CFI INIT a7cc 6fc .cfa: sp 0 +
STACK CFI a7d0 .cfa: sp 496 +
STACK CFI a7ec .cfa: x29 96 + x19: .cfa -8 + ^ x20: .cfa -16 + ^ x21: .cfa -24 + ^ x22: .cfa -32 + ^ x23: .cfa -40 + ^ x24: .cfa -48 + ^ x25: .cfa -56 + ^ x26: .cfa -64 + ^ x27: .cfa -72 + ^ x28: .cfa -80 + ^ .ra: .cfa -88 + ^ x29: .cfa -96 + ^
STACK CFI ad9c .cfa: sp 496 +
STACK CFI adb8 .cfa: sp 0 +
STACK CFI adbc .cfa: x29 96 +
STACK CFI INIT b134 2cc .cfa: sp 0 +
STACK CFI b138 .cfa: sp 208 +
STACK CFI b150 .cfa: x29 80 + x19: .cfa -8 + ^ x20: .cfa -16 + ^ x21: .cfa -24 + ^ x22: .cfa -32 + ^ x23: .cfa -40 + ^ x24: .cfa -48 + ^ x25: .cfa -64 + ^ .ra: .cfa -72 + ^ x29: .cfa -80 + ^
STACK CFI b3b0 .cfa: sp 208 +
STACK CFI b3c8 .cfa: sp 0 +
STACK CFI b3cc .cfa: x29 80 +
STACK CFI INIT b400 a8 .cfa: sp 0 +
STACK CFI b404 .cfa: sp 32 +
STACK CFI b40c .cfa: x29 32 + x19: .cfa -16 + ^ .ra: .cfa -24 + ^ x29: .cfa -32 + ^
STACK CFI b440 .cfa: sp 32 +
STACK CFI b448 .cfa: sp 0 +
STACK CFI b44c .cfa: x29 32 +
STACK CFI b450 .cfa: sp 32 +
STACK CFI b458 .cfa: sp 0 +
STACK CFI b45c .cfa: x29 32 +
