MODULE Linux arm64 C52CA5CB340915802C0364FFAF9B2B050 km7dev.betterquests.android64.so
INFO CODE_ID CBA52CC5093480152C0364FFAF9B2B051EB4496D
INFO GENERATOR mozilla/dump_syms 2.3.4
PUBLIC 2cec0 0 __on_dlclose
PUBLIC 2ced0 0 __emutls_unregister_key
PUBLIC 2ced8 0 __on_dlclose_late
PUBLIC 2cee0 0 __atexit_handler_wrapper
PUBLIC 2cef4 0 atexit
PUBLIC 2cf10 0 pthread_atfork
PUBLIC 2cf20 0 unwind_phase2
PUBLIC 2d054 0 _Unwind_Resume
PUBLIC 2d0d8 0 unwind_phase2_forced
PUBLIC m 2d1cc 0 __unw_init_local
PUBLIC m 2d274 0 __unw_get_reg
PUBLIC 2d2f0 0 __unw_step_stage2
PUBLIC m 2d304 0 __unw_get_proc_info
PUBLIC m 2d344 0 __unw_resume
PUBLIC 2d36c 0 libunwind::CFI_Parser<libunwind::LocalAddressSpace>::decodeFDE(libunwind::LocalAddressSpace&, unsigned long, libunwind::CFI_Parser<libunwind::LocalAddressSpace>::FDE_Info*, libunwind::CFI_Parser<libunwind::LocalAddressSpace>::CIE_Info*, bool)
PUBLIC 2d4fc 0 libunwind::CFI_Parser<libunwind::LocalAddressSpace>::parseCIE(libunwind::LocalAddressSpace&, unsigned long, libunwind::CFI_Parser<libunwind::LocalAddressSpace>::CIE_Info*)
PUBLIC 2d7c4 0 libunwind::AbstractUnwindCursor::~AbstractUnwindCursor()
PUBLIC 2d7cc 0 libunwind::UnwindCursor<libunwind::LocalAddressSpace, libunwind::Registers_arm64>::~UnwindCursor()
PUBLIC 2d7d4 0 libunwind::UnwindCursor<libunwind::LocalAddressSpace, libunwind::Registers_arm64>::validReg(int)
PUBLIC 2d818 0 libunwind::UnwindCursor<libunwind::LocalAddressSpace, libunwind::Registers_arm64>::getReg(int)
PUBLIC 2d900 0 libunwind::UnwindCursor<libunwind::LocalAddressSpace, libunwind::Registers_arm64>::setReg(int, unsigned long)
PUBLIC 2d9e8 0 libunwind::UnwindCursor<libunwind::LocalAddressSpace, libunwind::Registers_arm64>::validFloatReg(int)
PUBLIC 2d9fc 0 libunwind::UnwindCursor<libunwind::LocalAddressSpace, libunwind::Registers_arm64>::getFloatReg(int)
PUBLIC 2da0c 0 libunwind::UnwindCursor<libunwind::LocalAddressSpace, libunwind::Registers_arm64>::setFloatReg(int, double)
PUBLIC 2da1c 0 libunwind::UnwindCursor<libunwind::LocalAddressSpace, libunwind::Registers_arm64>::step(bool)
PUBLIC 2db0c 0 libunwind::UnwindCursor<libunwind::LocalAddressSpace, libunwind::Registers_arm64>::getInfo(unw_proc_info_t*)
PUBLIC 2db50 0 libunwind::UnwindCursor<libunwind::LocalAddressSpace, libunwind::Registers_arm64>::jumpto()
PUBLIC 2db5c 0 libunwind::UnwindCursor<libunwind::LocalAddressSpace, libunwind::Registers_arm64>::isSignalFrame()
PUBLIC 2db68 0 libunwind::UnwindCursor<libunwind::LocalAddressSpace, libunwind::Registers_arm64>::getFunctionName(char*, unsigned long, unsigned long*)
PUBLIC 2db94 0 libunwind::UnwindCursor<libunwind::LocalAddressSpace, libunwind::Registers_arm64>::setInfoBasedOnIPRegister(bool)
PUBLIC 2de14 0 libunwind::UnwindCursor<libunwind::LocalAddressSpace, libunwind::Registers_arm64>::getRegisterName(int)
PUBLIC 2de20 0 libunwind::UnwindCursor<libunwind::LocalAddressSpace, libunwind::Registers_arm64>::stepThroughSigReturn(libunwind::Registers_arm64&)
PUBLIC 2df40 0 libunwind::DwarfInstructions<libunwind::LocalAddressSpace, libunwind::Registers_arm64>::stepWithDwarf(libunwind::LocalAddressSpace&, unsigned long, unsigned long, libunwind::Registers_arm64&, bool&, bool)
PUBLIC 2e3c8 0 libunwind::CFI_Parser<libunwind::LocalAddressSpace>::parseFDEInstructions(libunwind::LocalAddressSpace&, libunwind::CFI_Parser<libunwind::LocalAddressSpace>::FDE_Info const&, libunwind::CFI_Parser<libunwind::LocalAddressSpace>::CIE_Info const&, unsigned long, int, libunwind::CFI_Parser<libunwind::LocalAddressSpace>::PrologInfo*)
PUBLIC 2f010 0 libunwind::DwarfInstructions<libunwind::LocalAddressSpace, libunwind::Registers_arm64>::getCFA(libunwind::LocalAddressSpace&, libunwind::CFI_Parser<libunwind::LocalAddressSpace>::PrologInfo const&, libunwind::Registers_arm64 const&)
PUBLIC 2f144 0 libunwind::DwarfInstructions<libunwind::LocalAddressSpace, libunwind::Registers_arm64>::getSavedRegister(libunwind::LocalAddressSpace&, libunwind::Registers_arm64 const&, unsigned long, libunwind::CFI_Parser<libunwind::LocalAddressSpace>::RegisterLocation const&)
PUBLIC 2f354 0 libunwind::LocalAddressSpace::getEncodedP(unsigned long&, unsigned long, unsigned char, unsigned long)
PUBLIC 2f6e0 0 libunwind::LocalAddressSpace::getULEB128(unsigned long&, unsigned long)
PUBLIC 2f8a8 0 libunwind::DwarfInstructions<libunwind::LocalAddressSpace, libunwind::Registers_arm64>::evaluateExpression(unsigned long, libunwind::LocalAddressSpace&, libunwind::Registers_arm64 const&, unsigned long)
PUBLIC 30264 0 libunwind::UnwindCursor<libunwind::LocalAddressSpace, libunwind::Registers_arm64>::getInfoFromDwarfSection(unsigned long, libunwind::UnwindInfoSections const&, unsigned int)
PUBLIC 30538 0 libunwind::findUnwindSectionsByPhdr(dl_phdr_info*, unsigned long, void*)
PUBLIC 3066c 0 libunwind::EHHeaderParser<libunwind::LocalAddressSpace>::decodeEHHdr(libunwind::LocalAddressSpace&, unsigned long, unsigned long, libunwind::EHHeaderParser<libunwind::LocalAddressSpace>::EHHeaderInfo&)
PUBLIC 3078c 0 libunwind::CFI_Parser<libunwind::LocalAddressSpace>::findFDE(libunwind::LocalAddressSpace&, unsigned long, unsigned long, unsigned long, unsigned long, libunwind::CFI_Parser<libunwind::LocalAddressSpace>::FDE_Info*, libunwind::CFI_Parser<libunwind::LocalAddressSpace>::CIE_Info*)
PUBLIC 30954 0 libunwind::EHHeaderParser<libunwind::LocalAddressSpace>::findFDE(libunwind::LocalAddressSpace&, unsigned long, unsigned long, unsigned int, libunwind::CFI_Parser<libunwind::LocalAddressSpace>::FDE_Info*, libunwind::CFI_Parser<libunwind::LocalAddressSpace>::CIE_Info*)
PUBLIC 30abc 0 libunwind::EHHeaderParser<libunwind::LocalAddressSpace>::getTableEntrySize(unsigned char)
PUBLIC 30bb8 0 libunwind::Registers_arm64::getRegisterName(int)
PUBLIC 30be8 0 __libunwind_Registers_arm64_jumpto
PUBLIC m 30c78 0 __unw_getcontext
PUBLIC 30d20 0 __aarch64_ldadd8_relax
PUBLIC 30d50 0 init_have_lse_atomics
PUBLIC 30de8 0 __init_cpu_features_constructor
PUBLIC 31384 0 __init_cpu_features
PUBLIC 31410 0 __aarch64_ldadd8_acq_rel
PUBLIC m 31440 0 getServer()
PUBLIC 31530 0 GetServerEvent::~GetServerEvent()
PUBLIC 31570 0 __cxx_global_var_init
PUBLIC 319f0 0 geode::modifier::ModifyBase<geode::modifier::ModifyDerive<myChP, ChallengesPage> >::~ModifyBase()
PUBLIC 31a0c 0 GetServerEvent::~GetServerEvent()
PUBLIC 31a50 0 std::__ndk1::basic_string<char, std::__ndk1::char_traits<char>, std::__ndk1::allocator<char> >::__throw_length_error[abi:ne180000]() const
PUBLIC 31a64 0 std::__ndk1::__throw_length_error[abi:ne180000](char const*)
PUBLIC 31ab4 0 std::length_error::length_error[abi:ne180000](char const*)
PUBLIC 31ae4 0 std::__throw_bad_array_new_length([abi:ne180000], void)
PUBLIC 31b18 0 __clang_call_terminate
PUBLIC m 31b28 0 std::__ndk1::basic_string<char, std::__ndk1::char_traits<char>, std::__ndk1::allocator<char> >::__init_copy_ctor_external(char const*, unsigned long)
PUBLIC 31ba8 0 geode::modifier::ModifyDerive<myChP, ChallengesPage>::apply()
PUBLIC 31ec4 0 std::__ndk1::shared_ptr<geode::Hook>::~shared_ptr[abi:ne180000]()
PUBLIC m 31f14 0 geode::impl::ResultData<geode::Hook*, std::__ndk1::basic_string<char, std::__ndk1::char_traits<char>, std::__ndk1::allocator<char> > >::~ResultData()
PUBLIC 31f88 0 std::__ndk1::vector<std::__ndk1::basic_string<char, std::__ndk1::char_traits<char>, std::__ndk1::allocator<char> >, std::__ndk1::allocator<std::__ndk1::basic_string<char, std::__ndk1::char_traits<char>, std::__ndk1::allocator<char> > > >::~vector[abi:ne180000]()
PUBLIC 32004 0 geode::modifier::ModifyBase<geode::modifier::ModifyDerive<myChP, ChallengesPage> >::apply()
PUBLIC m 32008 0 _ZN5geode15UnwrapExceptionC2IRPNS_4HookEQsr4implE18IsStringStreamableIT_EEENS_4impl5OkTagEOS5_
PUBLIC 3215c 0 std::__ndk1::__throw_bad_variant_access[abi:ne180000]()
PUBLIC 32190 0 std::__ndk1::basic_stringstream<char, std::__ndk1::char_traits<char>, std::__ndk1::allocator<char> >::basic_stringstream[abi:ne180000]()
PUBLIC m 322bc 0 std::__ndk1::basic_stringstream<char, std::__ndk1::char_traits<char>, std::__ndk1::allocator<char> >::~basic_stringstream()
PUBLIC 3233c 0 geode::UnwrapException::~UnwrapException()
PUBLIC 32360 0 std::__ndk1::__put_character_sequence[abi:ne180000]<char, std::__ndk1::char_traits<char> >(std::__ndk1::basic_ostream<char, std::__ndk1::char_traits<char> >, std::__ndk1::basic_ostream const*, unsigned long)
PUBLIC 32504 0 std::__ndk1::__pad_and_output[abi:ne180000]<char, std::__ndk1::char_traits<char> >(std::__ndk1::char_traits<char>, std::__ndk1::ostreambuf_iterator const*, std::__ndk1::ostreambuf_iterator const, std::__ndk1::ostreambuf_iterator const, std::__ndk1::ios_base&, std::__ndk1::ostreambuf_iterator)
PUBLIC 326e0 0 std::__ndk1::basic_stringbuf<char, std::__ndk1::char_traits<char>, std::__ndk1::allocator<char> >::str[abi:ne180000]() &&
PUBLIC 32858 0 std::__ndk1::basic_stringbuf<char, std::__ndk1::char_traits<char>, std::__ndk1::allocator<char> >::__init_buf_ptrs[abi:ne180000]()
PUBLIC m 329a0 0 std::__ndk1::vector<std::__ndk1::basic_string<char, std::__ndk1::char_traits<char>, std::__ndk1::allocator<char> >, std::__ndk1::allocator<std::__ndk1::basic_string<char, std::__ndk1::char_traits<char>, std::__ndk1::allocator<char> > > >::__push_back_slow_path<std::__ndk1::basic_string<char, std::__ndk1::char_traits<char>, std::__ndk1::allocator<char> > const&>(std::__ndk1::basic_string<char, std::__ndk1::char_traits<char>, std::__ndk1::allocator<char> > const&)
PUBLIC 32bc8 0 std::__ndk1::__split_buffer<std::__ndk1::basic_string<char, std::__ndk1::char_traits<char>, std::__ndk1::allocator<char> >, std::__ndk1::allocator<std::__ndk1::basic_string<char, std::__ndk1::char_traits<char>, std::__ndk1::allocator<char> > >&>::~__split_buffer()
PUBLIC 32c30 0 std::__ndk1::vector<std::__ndk1::basic_string<char, std::__ndk1::char_traits<char>, std::__ndk1::allocator<char> >, std::__ndk1::allocator<std::__ndk1::basic_string<char, std::__ndk1::char_traits<char>, std::__ndk1::allocator<char> > > >::__throw_length_error[abi:ne180000]() const
PUBLIC 32c44 0 std::__ndk1::__variant_detail::__visitation::__base::__dispatcher<(unsigned long)0>::__dispatch[abi:ne180000]<std::__ndk1::__variant_detail::__dtor<std::__ndk1::__variant_detail::__traits<geode::Hook*, std::__ndk1::basic_string<char, std::__ndk1::char_traits<char>, std::__ndk1::allocator<char> > >, (std::__ndk1::__variant_detail::_Trait)1>::__destroy[abi:ne180000]()::{lambda(auto:1&)#1}, std::__ndk1::__variant_detail::__base<(std::__ndk1::__variant_detail::__traits<geode::Hook*, std::__ndk1::basic_string<char, std::__ndk1::char_traits<char>, std::__ndk1::allocator<char> > >)1, geode::Hook, std::__ndk1::allocator<char> >&>(std::__ndk1::__variant_detail::__dtor<std::__ndk1::__variant_detail::__traits<geode::Hook*, std::__ndk1::basic_string<char, std::__ndk1::char_traits<char>, std::__ndk1::allocator<char> > >, (std::__ndk1::__variant_detail::_Trait)1>, std::__ndk1::__variant_detail::__base<(std::__ndk1::__variant_detail::__traits<geode::Hook*, std::__ndk1::basic_string<char, std::__ndk1::char_traits<char>, std::__ndk1::allocator<char> > >)1, geode::Hook, std::__ndk1::allocator<char> >&)
PUBLIC 32c48 0 std::__ndk1::__variant_detail::__visitation::__base::__dispatcher<(unsigned long)1>::__dispatch[abi:ne180000]<std::__ndk1::__variant_detail::__dtor<std::__ndk1::__variant_detail::__traits<geode::Hook*, std::__ndk1::basic_string<char, std::__ndk1::char_traits<char>, std::__ndk1::allocator<char> > >, (std::__ndk1::__variant_detail::_Trait)1>::__destroy[abi:ne180000]()::{lambda(auto:1&)#1}, std::__ndk1::__variant_detail::__base<(std::__ndk1::__variant_detail::__traits<geode::Hook*, std::__ndk1::basic_string<char, std::__ndk1::char_traits<char>, std::__ndk1::allocator<char> > >)1, geode::Hook, std::__ndk1::allocator<char> >&>(std::__ndk1::__variant_detail::__dtor<std::__ndk1::__variant_detail::__traits<geode::Hook*, std::__ndk1::basic_string<char, std::__ndk1::char_traits<char>, std::__ndk1::allocator<char> > >, (std::__ndk1::__variant_detail::_Trait)1>, std::__ndk1::__variant_detail::__base<(std::__ndk1::__variant_detail::__traits<geode::Hook*, std::__ndk1::basic_string<char, std::__ndk1::char_traits<char>, std::__ndk1::allocator<char> > >)1, geode::Hook, std::__ndk1::allocator<char> >&)
PUBLIC m 32c5c 0 std::__ndk1::__tree<std::__ndk1::__value_type<std::__ndk1::basic_string<char, std::__ndk1::char_traits<char>, std::__ndk1::allocator<char> >, std::__ndk1::shared_ptr<geode::Hook> >, std::__ndk1::__map_value_compare<std::__ndk1::basic_string<char, std::__ndk1::char_traits<char>, std::__ndk1::allocator<char> >, std::__ndk1::__value_type<std::__ndk1::basic_string<char, std::__ndk1::char_traits<char>, std::__ndk1::allocator<char> >, std::__ndk1::shared_ptr<geode::Hook> >, std::__ndk1::less<std::__ndk1::basic_string<char, std::__ndk1::char_traits<char>, std::__ndk1::allocator<char> > >, true>, std::__ndk1::allocator<std::__ndk1::__value_type<std::__ndk1::basic_string<char, std::__ndk1::char_traits<char>, std::__ndk1::allocator<char> >, std::__ndk1::shared_ptr<geode::Hook> > > >::find<std::__ndk1::basic_string<char, std::__ndk1::char_traits<char>, std::__ndk1::allocator<char> > >(std::__ndk1::basic_string<char, std::__ndk1::char_traits<char>, std::__ndk1::allocator<char> > const&)
PUBLIC 32d7c 0 std::__ndk1::__tree<std::__ndk1::__value_type<std::__ndk1::basic_string<char, std::__ndk1::char_traits<char>, std::__ndk1::allocator<char> >, std::__ndk1::shared_ptr<geode::Hook> >, std::__ndk1::__map_value_compare<std::__ndk1::basic_string<char, std::__ndk1::char_traits<char>, std::__ndk1::allocator<char> >, std::__ndk1::__value_type<std::__ndk1::basic_string<char, std::__ndk1::char_traits<char>, std::__ndk1::allocator<char> >, std::__ndk1::shared_ptr<geode::Hook> >, std::__ndk1::less<std::__ndk1::basic_string<char, std::__ndk1::char_traits<char>, std::__ndk1::allocator<char> > >, true>, std::__ndk1::allocator<std::__ndk1::__value_type<std::__ndk1::basic_string<char, std::__ndk1::char_traits<char>, std::__ndk1::allocator<char> >, std::__ndk1::shared_ptr<geode::Hook> > > >::erase(std::__ndk1::__tree_const_iterator<std::__ndk1::__value_type<std::__ndk1::basic_string<char, std::__ndk1::char_traits<char>, std::__ndk1::allocator<char> >, std::__ndk1::shared_ptr<geode::Hook> >, std::__ndk1::__tree_node<std::__ndk1::__value_type<std::__ndk1::basic_string<char, std::__ndk1::char_traits<char>, std::__ndk1::allocator<char> >, std::__ndk1::shared_ptr<geode::Hook> >, void*>*, long>)
PUBLIC 32e50 0 std::__ndk1::__tree_remove[abi:ne180000]<std::__ndk1::__tree_node_base<void*>*>(std::__ndk1::__tree_node_base<void*>*, std::__ndk1::__tree_node_base<void*>*)
PUBLIC 33218 0 std::__ndk1::__tree<std::__ndk1::__value_type<std::__ndk1::basic_string<char, std::__ndk1::char_traits<char>, std::__ndk1::allocator<char> >, std::__ndk1::shared_ptr<geode::Hook> >, std::__ndk1::__map_value_compare<std::__ndk1::basic_string<char, std::__ndk1::char_traits<char>, std::__ndk1::allocator<char> >, std::__ndk1::__value_type<std::__ndk1::basic_string<char, std::__ndk1::char_traits<char>, std::__ndk1::allocator<char> >, std::__ndk1::shared_ptr<geode::Hook> >, std::__ndk1::less<std::__ndk1::basic_string<char, std::__ndk1::char_traits<char>, std::__ndk1::allocator<char> > >, true>, std::__ndk1::allocator<std::__ndk1::__value_type<std::__ndk1::basic_string<char, std::__ndk1::char_traits<char>, std::__ndk1::allocator<char> >, std::__ndk1::shared_ptr<geode::Hook> > > >::destroy(std::__ndk1::__tree_node<std::__ndk1::__value_type<std::__ndk1::basic_string<char, std::__ndk1::char_traits<char>, std::__ndk1::allocator<char> >, std::__ndk1::shared_ptr<geode::Hook> >, void*>*)
PUBLIC 332a4 0 geode::modifier::AsStaticFunction_init<myChP, bool (myChP::*)()>::Impl<bool (myChP::*)()>::function(myChP*)
PUBLIC 3341c 0 geode::addresser::Addresser::addressOfVirtual<bool, ChallengesPage, >(bool (ChallengesPage::*)())
PUBLIC 334c8 0 ChallengesPage::ChallengesPage(geode::ZeroConstructorType)
PUBLIC 33564 0 std::__ndk1::shared_ptr<tulip::hook::CallingConvention>::~shared_ptr[abi:ne180000]()
PUBLIC m 335b4 0 tulip::hook::HandlerMetadata::~HandlerMetadata()
PUBLIC 33618 0 myChP::onQuestsPlus(cocos2d::CCObject*)
PUBLIC 336f8 0 std::__ndk1::__tree<std::__ndk1::__value_type<std::__ndk1::basic_string<char, std::__ndk1::char_traits<char>, std::__ndk1::allocator<char> >, std::__ndk1::shared_ptr<geode::Hook> >, std::__ndk1::__map_value_compare<std::__ndk1::basic_string<char, std::__ndk1::char_traits<char>, std::__ndk1::allocator<char> >, std::__ndk1::__value_type<std::__ndk1::basic_string<char, std::__ndk1::char_traits<char>, std::__ndk1::allocator<char> >, std::__ndk1::shared_ptr<geode::Hook> >, std::__ndk1::less<std::__ndk1::basic_string<char, std::__ndk1::char_traits<char>, std::__ndk1::allocator<char> > >, true>, std::__ndk1::allocator<std::__ndk1::__value_type<std::__ndk1::basic_string<char, std::__ndk1::char_traits<char>, std::__ndk1::allocator<char> >, std::__ndk1::shared_ptr<geode::Hook> > > >::__emplace_unique_key_args<std::__ndk1::basic_string<char, std::__ndk1::char_traits<char>, std::__ndk1::allocator<char> >, std::__ndk1::piecewise_construct_t const&, std::__ndk1::tuple<std::__ndk1::basic_string<char, std::__ndk1::char_traits<char>, std::__ndk1::allocator<char> >&&>, std::__ndk1::tuple<> >(std::__ndk1::basic_string<char, std::__ndk1::char_traits<char>, std::__ndk1::allocator<char> > const&, std::__ndk1::piecewise_construct_t const&, std::__ndk1::tuple<std::__ndk1::basic_string<char, std::__ndk1::char_traits<char>, std::__ndk1::allocator<char> >&&>, std::__ndk1::tuple<>)
PUBLIC 33870 0 std::__ndk1::__tree_balance_after_insert[abi:ne180000]<std::__ndk1::__tree_node_base<void*>*>(std::__ndk1::__tree_node_base<void*>*, std::__ndk1::__tree_node_base<void*>*)
PUBLIC 33a20 0 __cxx_global_var_init
PUBLIC 3409c 0 geode::modifier::ModifyBase<geode::modifier::ModifyDerive<BQGSM, GameStatsManager> >::~ModifyBase()
PUBLIC 340b8 0 geode::modifier::ModifyDerive<BQGSM, GameStatsManager>::apply()
PUBLIC 34484 0 geode::modifier::ModifyBase<geode::modifier::ModifyDerive<BQGSM, GameStatsManager> >::apply()
PUBLIC m 34488 0 std::__ndk1::__tree<std::__ndk1::__value_type<std::__ndk1::basic_string<char, std::__ndk1::char_traits<char>, std::__ndk1::allocator<char> >, std::__ndk1::shared_ptr<geode::Hook> >, std::__ndk1::__map_value_compare<std::__ndk1::basic_string<char, std::__ndk1::char_traits<char>, std::__ndk1::allocator<char> >, std::__ndk1::__value_type<std::__ndk1::basic_string<char, std::__ndk1::char_traits<char>, std::__ndk1::allocator<char> >, std::__ndk1::shared_ptr<geode::Hook> >, std::__ndk1::less<std::__ndk1::basic_string<char, std::__ndk1::char_traits<char>, std::__ndk1::allocator<char> > >, true>, std::__ndk1::allocator<std::__ndk1::__value_type<std::__ndk1::basic_string<char, std::__ndk1::char_traits<char>, std::__ndk1::allocator<char> >, std::__ndk1::shared_ptr<geode::Hook> > > >::__emplace_unique_key_args<std::__ndk1::basic_string<char, std::__ndk1::char_traits<char>, std::__ndk1::allocator<char> >, std::__ndk1::piecewise_construct_t const&, std::__ndk1::tuple<std::__ndk1::basic_string<char, std::__ndk1::char_traits<char>, std::__ndk1::allocator<char> > const&>, std::__ndk1::tuple<> >(std::__ndk1::basic_string<char, std::__ndk1::char_traits<char>, std::__ndk1::allocator<char> > const&, std::__ndk1::piecewise_construct_t const&, std::__ndk1::tuple<std::__ndk1::basic_string<char, std::__ndk1::char_traits<char>, std::__ndk1::allocator<char> > const&>, std::__ndk1::tuple<>)
PUBLIC 3467c 0 std::__ndk1::unique_ptr<std::__ndk1::__tree_node<std::__ndk1::__value_type<std::__ndk1::basic_string<char, std::__ndk1::char_traits<char>, std::__ndk1::allocator<char> >, std::__ndk1::shared_ptr<geode::Hook> >, void*>, std::__ndk1::__tree_node_destructor<std::__ndk1::allocator<std::__ndk1::__tree_node<std::__ndk1::__value_type<std::__ndk1::basic_string<char, std::__ndk1::char_traits<char>, std::__ndk1::allocator<char> >, std::__ndk1::shared_ptr<geode::Hook> >, void*> > > >::~unique_ptr[abi:ne180000]()
PUBLIC 346f8 0 _ZN5geode15UnwrapExceptionC2IRNSt6__ndk112basic_stringIcNS2_11char_traitsIcEENS2_9allocatorIcEEEEQsr4implE18IsStringStreamableIT_EEENS_4impl6ErrTagEOSA_
PUBLIC 34860 0 std::__ndk1::__variant_detail::__visitation::__base::__dispatcher<(unsigned long)0>::__dispatch[abi:ne180000]<std::__ndk1::__variant_detail::__dtor<std::__ndk1::__variant_detail::__traits<std::__ndk1::monostate, std::__ndk1::basic_string<char, std::__ndk1::char_traits<char>, std::__ndk1::allocator<char> > >, (std::__ndk1::__variant_detail::_Trait)1>::__destroy[abi:ne180000]()::{lambda(auto:1&)#1}, std::__ndk1::__variant_detail::__base<(std::__ndk1::__variant_detail::__traits<std::__ndk1::monostate, std::__ndk1::basic_string<char, std::__ndk1::char_traits<char>, std::__ndk1::allocator<char> > >)1, std::__ndk1::__variant_detail::__traits, std::__ndk1::allocator<char> >&>(std::__ndk1::__variant_detail::__dtor<std::__ndk1::__variant_detail::__traits<std::__ndk1::monostate, std::__ndk1::basic_string<char, std::__ndk1::char_traits<char>, std::__ndk1::allocator<char> > >, (std::__ndk1::__variant_detail::_Trait)1>, std::__ndk1::__variant_detail::__base<(std::__ndk1::__variant_detail::__traits<std::__ndk1::monostate, std::__ndk1::basic_string<char, std::__ndk1::char_traits<char>, std::__ndk1::allocator<char> > >)1, std::__ndk1::__variant_detail::__traits, std::__ndk1::allocator<char> >&)
PUBLIC 34864 0 std::__ndk1::__variant_detail::__visitation::__base::__dispatcher<(unsigned long)1>::__dispatch[abi:ne180000]<std::__ndk1::__variant_detail::__dtor<std::__ndk1::__variant_detail::__traits<std::__ndk1::monostate, std::__ndk1::basic_string<char, std::__ndk1::char_traits<char>, std::__ndk1::allocator<char> > >, (std::__ndk1::__variant_detail::_Trait)1>::__destroy[abi:ne180000]()::{lambda(auto:1&)#1}, std::__ndk1::__variant_detail::__base<(std::__ndk1::__variant_detail::__traits<std::__ndk1::monostate, std::__ndk1::basic_string<char, std::__ndk1::char_traits<char>, std::__ndk1::allocator<char> > >)1, std::__ndk1::__variant_detail::__traits, std::__ndk1::allocator<char> >&>(std::__ndk1::__variant_detail::__dtor<std::__ndk1::__variant_detail::__traits<std::__ndk1::monostate, std::__ndk1::basic_string<char, std::__ndk1::char_traits<char>, std::__ndk1::allocator<char> > >, (std::__ndk1::__variant_detail::_Trait)1>, std::__ndk1::__variant_detail::__base<(std::__ndk1::__variant_detail::__traits<std::__ndk1::monostate, std::__ndk1::basic_string<char, std::__ndk1::char_traits<char>, std::__ndk1::allocator<char> > >)1, std::__ndk1::__variant_detail::__traits, std::__ndk1::allocator<char> >&)
PUBLIC 34878 0 geode::modifier::AsStaticFunction_incrementStat<BQGSM, void (BQGSM::*)(char const*, int)>::Impl<void (BQGSM::*)(char const*, int)>::function(BQGSM*, char const*, int)
PUBLIC 34f10 0 std::__ndk1::vector<tulip::hook::AbstractType, std::__ndk1::allocator<tulip::hook::AbstractType> >::__throw_length_error[abi:ne180000]() const
PUBLIC 34f24 0 Quest::Quest(Quest const&)
PUBLIC 350e0 0 Quest::~Quest()
PUBLIC 35164 0 geode::Mod::setSavedValue<std::__ndk1::vector<Quest, std::__ndk1::allocator<Quest> > >(std::__ndk1::basic_string_view<char, std::__ndk1::char_traits<char> >, std::__ndk1::vector<Quest, std::__ndk1::allocator<Quest> > const&)
PUBLIC 35260 0 std::__ndk1::vector<Quest, std::__ndk1::allocator<Quest> >::~vector[abi:ne180000]()
PUBLIC m 35290 0 std::__ndk1::vector<std::__ndk1::basic_string<char, std::__ndk1::char_traits<char>, std::__ndk1::allocator<char> >, std::__ndk1::allocator<std::__ndk1::basic_string<char, std::__ndk1::char_traits<char>, std::__ndk1::allocator<char> > > >::__push_back_slow_path<std::__ndk1::basic_string<char, std::__ndk1::char_traits<char>, std::__ndk1::allocator<char> > >(std::__ndk1::basic_string<char, std::__ndk1::char_traits<char>, std::__ndk1::allocator<char> >&&)
PUBLIC 353f8 0 geode::Mod::getSavedValue<std::__ndk1::vector<Quest, std::__ndk1::allocator<Quest> > >(std::__ndk1::basic_string_view<char, std::__ndk1::char_traits<char> >)
PUBLIC m 355dc 0 geode::impl::ResultData<matjson::Value&, std::__ndk1::basic_string<char, std::__ndk1::char_traits<char>, std::__ndk1::allocator<char> > >::~ResultData()
PUBLIC 35650 0 geode::impl::ResultData<std::__ndk1::vector<Quest, std::__ndk1::allocator<Quest> >, std::__ndk1::basic_string<char, std::__ndk1::char_traits<char>, std::__ndk1::allocator<char> > >::~ResultData()
PUBLIC 356c4 0 _ZN7matjson9SerializeINSt6__ndk16vectorI5QuestNS1_9allocatorIS3_EEEEE8fromJsonERKNS_5ValueEQrQSA__Xcldtfp_2asIT_EEE
PUBLIC 35b18 0 std::__ndk1::vector<Quest, std::__ndk1::allocator<Quest> >::reserve(unsigned long)
PUBLIC 35ce0 0 geode::impl::ResultData<Quest, std::__ndk1::basic_string<char, std::__ndk1::char_traits<char>, std::__ndk1::allocator<char> > >::~ResultData()
PUBLIC 35d54 0 std::__ndk1::vector<Quest, std::__ndk1::allocator<Quest> >::__throw_length_error[abi:ne180000]() const
PUBLIC 35d68 0 std::__ndk1::__split_buffer<Quest, std::__ndk1::allocator<Quest>&>::__destruct_at_end[abi:ne180000](Quest*)
PUBLIC 35e1c 0 matjson::Serialize<Quest>::fromJson(matjson::Value const&)
PUBLIC 365b4 0 matjson::Value::as<int>() const
PUBLIC 366b8 0 matjson::Value::as<float>() const
PUBLIC m 367c0 0 geode::impl::ResultData<matjson::Value, matjson::ParseError>::~ResultData()
PUBLIC m 36834 0 geode::impl::ResultData<std::__ndk1::basic_string<char, std::__ndk1::char_traits<char>, std::__ndk1::allocator<char> >, std::__ndk1::basic_string<char, std::__ndk1::char_traits<char>, std::__ndk1::allocator<char> > >::~ResultData()
PUBLIC m 368a8 0 geode::impl::ResultData<int, std::__ndk1::basic_string<char, std::__ndk1::char_traits<char>, std::__ndk1::allocator<char> > >::~ResultData()
PUBLIC 3691c 0 std::__ndk1::__variant_detail::__visitation::__base::__dispatcher<(unsigned long)0>::__dispatch[abi:ne180000]<std::__ndk1::__variant_detail::__dtor<std::__ndk1::__variant_detail::__traits<long, std::__ndk1::basic_string<char, std::__ndk1::char_traits<char>, std::__ndk1::allocator<char> > >, (std::__ndk1::__variant_detail::_Trait)1>::__destroy[abi:ne180000]()::{lambda(auto:1&)#1}, std::__ndk1::__variant_detail::__base<(std::__ndk1::__variant_detail::__traits<long, std::__ndk1::basic_string<char, std::__ndk1::char_traits<char>, std::__ndk1::allocator<char> > >)1, long, std::__ndk1::allocator<char> >&>(std::__ndk1::__variant_detail::__dtor<std::__ndk1::__variant_detail::__traits<long, std::__ndk1::basic_string<char, std::__ndk1::char_traits<char>, std::__ndk1::allocator<char> > >, (std::__ndk1::__variant_detail::_Trait)1>, std::__ndk1::__variant_detail::__base<(std::__ndk1::__variant_detail::__traits<long, std::__ndk1::basic_string<char, std::__ndk1::char_traits<char>, std::__ndk1::allocator<char> > >)1, long, std::__ndk1::allocator<char> >&)
PUBLIC 36920 0 std::__ndk1::__variant_detail::__visitation::__base::__dispatcher<(unsigned long)1>::__dispatch[abi:ne180000]<std::__ndk1::__variant_detail::__dtor<std::__ndk1::__variant_detail::__traits<long, std::__ndk1::basic_string<char, std::__ndk1::char_traits<char>, std::__ndk1::allocator<char> > >, (std::__ndk1::__variant_detail::_Trait)1>::__destroy[abi:ne180000]()::{lambda(auto:1&)#1}, std::__ndk1::__variant_detail::__base<(std::__ndk1::__variant_detail::__traits<long, std::__ndk1::basic_string<char, std::__ndk1::char_traits<char>, std::__ndk1::allocator<char> > >)1, long, std::__ndk1::allocator<char> >&>(std::__ndk1::__variant_detail::__dtor<std::__ndk1::__variant_detail::__traits<long, std::__ndk1::basic_string<char, std::__ndk1::char_traits<char>, std::__ndk1::allocator<char> > >, (std::__ndk1::__variant_detail::_Trait)1>, std::__ndk1::__variant_detail::__base<(std::__ndk1::__variant_detail::__traits<long, std::__ndk1::basic_string<char, std::__ndk1::char_traits<char>, std::__ndk1::allocator<char> > >)1, long, std::__ndk1::allocator<char> >&)
PUBLIC 36934 0 std::__ndk1::__variant_detail::__visitation::__base::__dispatcher<(unsigned long)0>::__dispatch[abi:ne180000]<std::__ndk1::__variant_detail::__dtor<std::__ndk1::__variant_detail::__traits<double, std::__ndk1::basic_string<char, std::__ndk1::char_traits<char>, std::__ndk1::allocator<char> > >, (std::__ndk1::__variant_detail::_Trait)1>::__destroy[abi:ne180000]()::{lambda(auto:1&)#1}, std::__ndk1::__variant_detail::__base<(std::__ndk1::__variant_detail::__traits<double, std::__ndk1::basic_string<char, std::__ndk1::char_traits<char>, std::__ndk1::allocator<char> > >)1, double, std::__ndk1::allocator<char> >&>(std::__ndk1::__variant_detail::__dtor<std::__ndk1::__variant_detail::__traits<double, std::__ndk1::basic_string<char, std::__ndk1::char_traits<char>, std::__ndk1::allocator<char> > >, (std::__ndk1::__variant_detail::_Trait)1>, std::__ndk1::__variant_detail::__base<(std::__ndk1::__variant_detail::__traits<double, std::__ndk1::basic_string<char, std::__ndk1::char_traits<char>, std::__ndk1::allocator<char> > >)1, double, std::__ndk1::allocator<char> >&)
PUBLIC 36938 0 std::__ndk1::__variant_detail::__visitation::__base::__dispatcher<(unsigned long)1>::__dispatch[abi:ne180000]<std::__ndk1::__variant_detail::__dtor<std::__ndk1::__variant_detail::__traits<double, std::__ndk1::basic_string<char, std::__ndk1::char_traits<char>, std::__ndk1::allocator<char> > >, (std::__ndk1::__variant_detail::_Trait)1>::__destroy[abi:ne180000]()::{lambda(auto:1&)#1}, std::__ndk1::__variant_detail::__base<(std::__ndk1::__variant_detail::__traits<double, std::__ndk1::basic_string<char, std::__ndk1::char_traits<char>, std::__ndk1::allocator<char> > >)1, double, std::__ndk1::allocator<char> >&>(std::__ndk1::__variant_detail::__dtor<std::__ndk1::__variant_detail::__traits<double, std::__ndk1::basic_string<char, std::__ndk1::char_traits<char>, std::__ndk1::allocator<char> > >, (std::__ndk1::__variant_detail::_Trait)1>, std::__ndk1::__variant_detail::__base<(std::__ndk1::__variant_detail::__traits<double, std::__ndk1::basic_string<char, std::__ndk1::char_traits<char>, std::__ndk1::allocator<char> > >)1, double, std::__ndk1::allocator<char> >&)
PUBLIC 3694c 0 std::__ndk1::__variant_detail::__visitation::__base::__dispatcher<(unsigned long)0>::__dispatch[abi:ne180000]<std::__ndk1::__variant_detail::__dtor<std::__ndk1::__variant_detail::__traits<float, std::__ndk1::basic_string<char, std::__ndk1::char_traits<char>, std::__ndk1::allocator<char> > >, (std::__ndk1::__variant_detail::_Trait)1>::__destroy[abi:ne180000]()::{lambda(auto:1&)#1}, std::__ndk1::__variant_detail::__base<(std::__ndk1::__variant_detail::__traits<float, std::__ndk1::basic_string<char, std::__ndk1::char_traits<char>, std::__ndk1::allocator<char> > >)1, float, std::__ndk1::allocator<char> >&>(std::__ndk1::__variant_detail::__dtor<std::__ndk1::__variant_detail::__traits<float, std::__ndk1::basic_string<char, std::__ndk1::char_traits<char>, std::__ndk1::allocator<char> > >, (std::__ndk1::__variant_detail::_Trait)1>, std::__ndk1::__variant_detail::__base<(std::__ndk1::__variant_detail::__traits<float, std::__ndk1::basic_string<char, std::__ndk1::char_traits<char>, std::__ndk1::allocator<char> > >)1, float, std::__ndk1::allocator<char> >&)
PUBLIC 36950 0 std::__ndk1::__variant_detail::__visitation::__base::__dispatcher<(unsigned long)1>::__dispatch[abi:ne180000]<std::__ndk1::__variant_detail::__dtor<std::__ndk1::__variant_detail::__traits<float, std::__ndk1::basic_string<char, std::__ndk1::char_traits<char>, std::__ndk1::allocator<char> > >, (std::__ndk1::__variant_detail::_Trait)1>::__destroy[abi:ne180000]()::{lambda(auto:1&)#1}, std::__ndk1::__variant_detail::__base<(std::__ndk1::__variant_detail::__traits<float, std::__ndk1::basic_string<char, std::__ndk1::char_traits<char>, std::__ndk1::allocator<char> > >)1, float, std::__ndk1::allocator<char> >&>(std::__ndk1::__variant_detail::__dtor<std::__ndk1::__variant_detail::__traits<float, std::__ndk1::basic_string<char, std::__ndk1::char_traits<char>, std::__ndk1::allocator<char> > >, (std::__ndk1::__variant_detail::_Trait)1>, std::__ndk1::__variant_detail::__base<(std::__ndk1::__variant_detail::__traits<float, std::__ndk1::basic_string<char, std::__ndk1::char_traits<char>, std::__ndk1::allocator<char> > >)1, float, std::__ndk1::allocator<char> >&)
PUBLIC 36964 0 std::__ndk1::__variant_detail::__visitation::__base::__dispatcher<(unsigned long)0>::__dispatch[abi:ne180000]<std::__ndk1::__variant_detail::__dtor<std::__ndk1::__variant_detail::__traits<matjson::Value, std::__ndk1::__variant_detail::__traits::ParseError>, (std::__ndk1::__variant_detail::_Trait)1>::__destroy[abi:ne180000]()::{lambda(auto:1&)#1}, std::__ndk1::__variant_detail::__base<(std::__ndk1::__variant_detail::__traits<matjson::Value, std::__ndk1::__variant_detail::__traits::ParseError>)1, matjson, matjson::Value>&>(std::__ndk1::__variant_detail::__dtor<std::__ndk1::__variant_detail::__traits<matjson::Value, std::__ndk1::__variant_detail::__traits::ParseError>, (std::__ndk1::__variant_detail::_Trait)1>, std::__ndk1::__variant_detail::__base<(std::__ndk1::__variant_detail::__traits<matjson::Value, std::__ndk1::__variant_detail::__traits::ParseError>)1, matjson, matjson::Value>&)
PUBLIC 3696c 0 std::__ndk1::__variant_detail::__visitation::__base::__dispatcher<(unsigned long)1>::__dispatch[abi:ne180000]<std::__ndk1::__variant_detail::__dtor<std::__ndk1::__variant_detail::__traits<matjson::Value, std::__ndk1::__variant_detail::__traits::ParseError>, (std::__ndk1::__variant_detail::_Trait)1>::__destroy[abi:ne180000]()::{lambda(auto:1&)#1}, std::__ndk1::__variant_detail::__base<(std::__ndk1::__variant_detail::__traits<matjson::Value, std::__ndk1::__variant_detail::__traits::ParseError>)1, matjson, matjson::Value>&>(std::__ndk1::__variant_detail::__dtor<std::__ndk1::__variant_detail::__traits<matjson::Value, std::__ndk1::__variant_detail::__traits::ParseError>, (std::__ndk1::__variant_detail::_Trait)1>, std::__ndk1::__variant_detail::__base<(std::__ndk1::__variant_detail::__traits<matjson::Value, std::__ndk1::__variant_detail::__traits::ParseError>)1, matjson, matjson::Value>&)
PUBLIC 36980 0 std::__ndk1::__variant_detail::__visitation::__base::__dispatcher<(unsigned long)0>::__dispatch[abi:ne180000]<std::__ndk1::__variant_detail::__dtor<std::__ndk1::__variant_detail::__traits<std::__ndk1::basic_string<char, std::__ndk1::char_traits<char>, std::__ndk1::allocator<char> >, std::__ndk1::allocator<char> >, (std::__ndk1::__variant_detail::_Trait)1>::__destroy[abi:ne180000]()::{lambda(auto:1&)#1}, std::__ndk1::__variant_detail::__base<(std::__ndk1::__variant_detail::__traits<std::__ndk1::basic_string<char, std::__ndk1::char_traits<char>, std::__ndk1::allocator<char> >, std::__ndk1::allocator<char> >)1, std::__ndk1::allocator<char>, std::__ndk1::allocator<char> >&>(std::__ndk1::__variant_detail::__dtor<std::__ndk1::__variant_detail::__traits<std::__ndk1::basic_string<char, std::__ndk1::char_traits<char>, std::__ndk1::allocator<char> >, std::__ndk1::allocator<char> >, (std::__ndk1::__variant_detail::_Trait)1>, std::__ndk1::__variant_detail::__base<(std::__ndk1::__variant_detail::__traits<std::__ndk1::basic_string<char, std::__ndk1::char_traits<char>, std::__ndk1::allocator<char> >, std::__ndk1::allocator<char> >)1, std::__ndk1::allocator<char>, std::__ndk1::allocator<char> >&)
PUBLIC 36994 0 std::__ndk1::__variant_detail::__visitation::__base::__dispatcher<(unsigned long)1>::__dispatch[abi:ne180000]<std::__ndk1::__variant_detail::__dtor<std::__ndk1::__variant_detail::__traits<std::__ndk1::basic_string<char, std::__ndk1::char_traits<char>, std::__ndk1::allocator<char> >, std::__ndk1::allocator<char> >, (std::__ndk1::__variant_detail::_Trait)1>::__destroy[abi:ne180000]()::{lambda(auto:1&)#1}, std::__ndk1::__variant_detail::__base<(std::__ndk1::__variant_detail::__traits<std::__ndk1::basic_string<char, std::__ndk1::char_traits<char>, std::__ndk1::allocator<char> >, std::__ndk1::allocator<char> >)1, std::__ndk1::allocator<char>, std::__ndk1::allocator<char> >&>(std::__ndk1::__variant_detail::__dtor<std::__ndk1::__variant_detail::__traits<std::__ndk1::basic_string<char, std::__ndk1::char_traits<char>, std::__ndk1::allocator<char> >, std::__ndk1::allocator<char> >, (std::__ndk1::__variant_detail::_Trait)1>, std::__ndk1::__variant_detail::__base<(std::__ndk1::__variant_detail::__traits<std::__ndk1::basic_string<char, std::__ndk1::char_traits<char>, std::__ndk1::allocator<char> >, std::__ndk1::allocator<char> >)1, std::__ndk1::allocator<char>, std::__ndk1::allocator<char> >&)
PUBLIC 369a8 0 std::__ndk1::__variant_detail::__visitation::__base::__dispatcher<(unsigned long)0>::__dispatch[abi:ne180000]<std::__ndk1::__variant_detail::__dtor<std::__ndk1::__variant_detail::__traits<int, std::__ndk1::basic_string<char, std::__ndk1::char_traits<char>, std::__ndk1::allocator<char> > >, (std::__ndk1::__variant_detail::_Trait)1>::__destroy[abi:ne180000]()::{lambda(auto:1&)#1}, std::__ndk1::__variant_detail::__base<(std::__ndk1::__variant_detail::__traits<int, std::__ndk1::basic_string<char, std::__ndk1::char_traits<char>, std::__ndk1::allocator<char> > >)1, int, std::__ndk1::allocator<char> >&>(std::__ndk1::__variant_detail::__dtor<std::__ndk1::__variant_detail::__traits<int, std::__ndk1::basic_string<char, std::__ndk1::char_traits<char>, std::__ndk1::allocator<char> > >, (std::__ndk1::__variant_detail::_Trait)1>, std::__ndk1::__variant_detail::__base<(std::__ndk1::__variant_detail::__traits<int, std::__ndk1::basic_string<char, std::__ndk1::char_traits<char>, std::__ndk1::allocator<char> > >)1, int, std::__ndk1::allocator<char> >&)
PUBLIC 369ac 0 std::__ndk1::__variant_detail::__visitation::__base::__dispatcher<(unsigned long)1>::__dispatch[abi:ne180000]<std::__ndk1::__variant_detail::__dtor<std::__ndk1::__variant_detail::__traits<int, std::__ndk1::basic_string<char, std::__ndk1::char_traits<char>, std::__ndk1::allocator<char> > >, (std::__ndk1::__variant_detail::_Trait)1>::__destroy[abi:ne180000]()::{lambda(auto:1&)#1}, std::__ndk1::__variant_detail::__base<(std::__ndk1::__variant_detail::__traits<int, std::__ndk1::basic_string<char, std::__ndk1::char_traits<char>, std::__ndk1::allocator<char> > >)1, int, std::__ndk1::allocator<char> >&>(std::__ndk1::__variant_detail::__dtor<std::__ndk1::__variant_detail::__traits<int, std::__ndk1::basic_string<char, std::__ndk1::char_traits<char>, std::__ndk1::allocator<char> > >, (std::__ndk1::__variant_detail::_Trait)1>, std::__ndk1::__variant_detail::__base<(std::__ndk1::__variant_detail::__traits<int, std::__ndk1::basic_string<char, std::__ndk1::char_traits<char>, std::__ndk1::allocator<char> > >)1, int, std::__ndk1::allocator<char> >&)
PUBLIC 369c0 0 std::__ndk1::vector<Quest, std::__ndk1::allocator<Quest> >::__emplace_back_slow_path<Quest>(Quest&&)
PUBLIC 36c68 0 std::__ndk1::__variant_detail::__visitation::__base::__dispatcher<(unsigned long)0>::__dispatch[abi:ne180000]<std::__ndk1::__variant_detail::__dtor<std::__ndk1::__variant_detail::__traits<Quest, std::__ndk1::basic_string<char, std::__ndk1::char_traits<char>, std::__ndk1::allocator<char> > >, (std::__ndk1::__variant_detail::_Trait)1>::__destroy[abi:ne180000]()::{lambda(auto:1&)#1}, std::__ndk1::__variant_detail::__base<(std::__ndk1::__variant_detail::__traits<Quest, std::__ndk1::basic_string<char, std::__ndk1::char_traits<char>, std::__ndk1::allocator<char> > >)1, std::__ndk1::__variant_detail::__traits, std::__ndk1::allocator<char> >&>(std::__ndk1::__variant_detail::__dtor<std::__ndk1::__variant_detail::__traits<Quest, std::__ndk1::basic_string<char, std::__ndk1::char_traits<char>, std::__ndk1::allocator<char> > >, (std::__ndk1::__variant_detail::_Trait)1>, std::__ndk1::__variant_detail::__base<(std::__ndk1::__variant_detail::__traits<Quest, std::__ndk1::basic_string<char, std::__ndk1::char_traits<char>, std::__ndk1::allocator<char> > >)1, std::__ndk1::__variant_detail::__traits, std::__ndk1::allocator<char> >&)
PUBLIC 36cec 0 std::__ndk1::__variant_detail::__visitation::__base::__dispatcher<(unsigned long)1>::__dispatch[abi:ne180000]<std::__ndk1::__variant_detail::__dtor<std::__ndk1::__variant_detail::__traits<Quest, std::__ndk1::basic_string<char, std::__ndk1::char_traits<char>, std::__ndk1::allocator<char> > >, (std::__ndk1::__variant_detail::_Trait)1>::__destroy[abi:ne180000]()::{lambda(auto:1&)#1}, std::__ndk1::__variant_detail::__base<(std::__ndk1::__variant_detail::__traits<Quest, std::__ndk1::basic_string<char, std::__ndk1::char_traits<char>, std::__ndk1::allocator<char> > >)1, std::__ndk1::__variant_detail::__traits, std::__ndk1::allocator<char> >&>(std::__ndk1::__variant_detail::__dtor<std::__ndk1::__variant_detail::__traits<Quest, std::__ndk1::basic_string<char, std::__ndk1::char_traits<char>, std::__ndk1::allocator<char> > >, (std::__ndk1::__variant_detail::_Trait)1>, std::__ndk1::__variant_detail::__base<(std::__ndk1::__variant_detail::__traits<Quest, std::__ndk1::basic_string<char, std::__ndk1::char_traits<char>, std::__ndk1::allocator<char> > >)1, std::__ndk1::__variant_detail::__traits, std::__ndk1::allocator<char> >&)
PUBLIC 36d00 0 std::__ndk1::__variant_detail::__visitation::__base::__dispatcher<(unsigned long)0>::__dispatch[abi:ne180000]<std::__ndk1::__variant_detail::__dtor<std::__ndk1::__variant_detail::__traits<std::__ndk1::reference_wrapper<matjson::Value>, std::__ndk1::basic_string<char, std::__ndk1::char_traits<char>, std::__ndk1::allocator<char> > >, (std::__ndk1::__variant_detail::_Trait)1>::__destroy[abi:ne180000]()::{lambda(auto:1&)#1}, std::__ndk1::__variant_detail::__base<(std::__ndk1::__variant_detail::__traits<std::__ndk1::reference_wrapper<matjson::Value>, std::__ndk1::basic_string<char, std::__ndk1::char_traits<char>, std::__ndk1::allocator<char> > >)1, matjson::Value, std::__ndk1::allocator<char> >&>(std::__ndk1::__variant_detail::__dtor<std::__ndk1::__variant_detail::__traits<std::__ndk1::reference_wrapper<matjson::Value>, std::__ndk1::basic_string<char, std::__ndk1::char_traits<char>, std::__ndk1::allocator<char> > >, (std::__ndk1::__variant_detail::_Trait)1>, std::__ndk1::__variant_detail::__base<(std::__ndk1::__variant_detail::__traits<std::__ndk1::reference_wrapper<matjson::Value>, std::__ndk1::basic_string<char, std::__ndk1::char_traits<char>, std::__ndk1::allocator<char> > >)1, matjson::Value, std::__ndk1::allocator<char> >&)
PUBLIC 36d04 0 std::__ndk1::__variant_detail::__visitation::__base::__dispatcher<(unsigned long)1>::__dispatch[abi:ne180000]<std::__ndk1::__variant_detail::__dtor<std::__ndk1::__variant_detail::__traits<std::__ndk1::reference_wrapper<matjson::Value>, std::__ndk1::basic_string<char, std::__ndk1::char_traits<char>, std::__ndk1::allocator<char> > >, (std::__ndk1::__variant_detail::_Trait)1>::__destroy[abi:ne180000]()::{lambda(auto:1&)#1}, std::__ndk1::__variant_detail::__base<(std::__ndk1::__variant_detail::__traits<std::__ndk1::reference_wrapper<matjson::Value>, std::__ndk1::basic_string<char, std::__ndk1::char_traits<char>, std::__ndk1::allocator<char> > >)1, matjson::Value, std::__ndk1::allocator<char> >&>(std::__ndk1::__variant_detail::__dtor<std::__ndk1::__variant_detail::__traits<std::__ndk1::reference_wrapper<matjson::Value>, std::__ndk1::basic_string<char, std::__ndk1::char_traits<char>, std::__ndk1::allocator<char> > >, (std::__ndk1::__variant_detail::_Trait)1>, std::__ndk1::__variant_detail::__base<(std::__ndk1::__variant_detail::__traits<std::__ndk1::reference_wrapper<matjson::Value>, std::__ndk1::basic_string<char, std::__ndk1::char_traits<char>, std::__ndk1::allocator<char> > >)1, matjson::Value, std::__ndk1::allocator<char> >&)
PUBLIC 36d18 0 std::__ndk1::vector<Quest, std::__ndk1::allocator<Quest> >::__init_with_size[abi:ne180000]<Quest*, std::__ndk1::vector<Quest, std::__ndk1::allocator<Quest> >::__init_with_size[abi:ne180000]>(Quest*, std::__ndk1::vector<Quest, std::__ndk1::allocator<Quest> >::__init_with_size[abi:ne180000], unsigned long)
PUBLIC 36e58 0 std::__ndk1::__exception_guard_exceptions<std::__ndk1::vector<Quest, std::__ndk1::allocator<Quest> >::__destroy_vector>::~__exception_guard_exceptions[abi:ne180000]()
PUBLIC 36e9c 0 std::__ndk1::__exception_guard_exceptions<std::__ndk1::_AllocatorDestroyRangeReverse<std::__ndk1::allocator<Quest>, Quest*> >::~__exception_guard_exceptions[abi:ne180000]()
PUBLIC 36ed4 0 std::__ndk1::__allocator_destroy[abi:ne180000]<std::__ndk1::allocator<Quest>, std::__ndk1::reverse_iterator<std::__ndk1::allocator*>, std::__ndk1::allocator*>(std::__ndk1::allocator<Quest>&, std::__ndk1::reverse_iterator<std::__ndk1::allocator*>, std::__ndk1::allocator*)
PUBLIC 36f74 0 std::__ndk1::vector<Quest, std::__ndk1::allocator<Quest> >::__base_destruct_at_end[abi:ne180000](Quest*)
PUBLIC 37020 0 std::__ndk1::__variant_detail::__visitation::__base::__dispatcher<(unsigned long)0>::__dispatch[abi:ne180000]<std::__ndk1::__variant_detail::__dtor<std::__ndk1::__variant_detail::__traits<std::__ndk1::vector<Quest, std::__ndk1::allocator<std::__ndk1::vector> >, std::__ndk1::basic_string<char, std::__ndk1::char_traits<char>, Quest<char> > >, (std::__ndk1::__variant_detail::_Trait)1>::__destroy[abi:ne180000]()::{lambda(auto:1&)#1}, std::__ndk1::__variant_detail::__base<(std::__ndk1::__variant_detail::__traits<std::__ndk1::vector<Quest, std::__ndk1::allocator<std::__ndk1::vector> >, std::__ndk1::basic_string<char, std::__ndk1::char_traits<char>, Quest<char> > >)1, std::__ndk1::allocator<std::__ndk1::vector>, Quest<char> >&>(std::__ndk1::__variant_detail::__dtor<std::__ndk1::__variant_detail::__traits<std::__ndk1::vector<Quest, std::__ndk1::allocator<std::__ndk1::vector> >, std::__ndk1::basic_string<char, std::__ndk1::char_traits<char>, Quest<char> > >, (std::__ndk1::__variant_detail::_Trait)1>, std::__ndk1::__variant_detail::__base<(std::__ndk1::__variant_detail::__traits<std::__ndk1::vector<Quest, std::__ndk1::allocator<std::__ndk1::vector> >, std::__ndk1::basic_string<char, std::__ndk1::char_traits<char>, Quest<char> > >)1, std::__ndk1::allocator<std::__ndk1::vector>, Quest<char> >&)
PUBLIC 37058 0 std::__ndk1::__variant_detail::__visitation::__base::__dispatcher<(unsigned long)1>::__dispatch[abi:ne180000]<std::__ndk1::__variant_detail::__dtor<std::__ndk1::__variant_detail::__traits<std::__ndk1::vector<Quest, std::__ndk1::allocator<std::__ndk1::vector> >, std::__ndk1::basic_string<char, std::__ndk1::char_traits<char>, Quest<char> > >, (std::__ndk1::__variant_detail::_Trait)1>::__destroy[abi:ne180000]()::{lambda(auto:1&)#1}, std::__ndk1::__variant_detail::__base<(std::__ndk1::__variant_detail::__traits<std::__ndk1::vector<Quest, std::__ndk1::allocator<std::__ndk1::vector> >, std::__ndk1::basic_string<char, std::__ndk1::char_traits<char>, Quest<char> > >)1, std::__ndk1::allocator<std::__ndk1::vector>, Quest<char> >&>(std::__ndk1::__variant_detail::__dtor<std::__ndk1::__variant_detail::__traits<std::__ndk1::vector<Quest, std::__ndk1::allocator<std::__ndk1::vector> >, std::__ndk1::basic_string<char, std::__ndk1::char_traits<char>, Quest<char> > >, (std::__ndk1::__variant_detail::_Trait)1>, std::__ndk1::__variant_detail::__base<(std::__ndk1::__variant_detail::__traits<std::__ndk1::vector<Quest, std::__ndk1::allocator<std::__ndk1::vector> >, std::__ndk1::basic_string<char, std::__ndk1::char_traits<char>, Quest<char> > >)1, std::__ndk1::allocator<std::__ndk1::vector>, Quest<char> >&)
PUBLIC 3706c 0 _ZN7matjson9SerializeINSt6__ndk16vectorI5QuestNS1_9allocatorIS3_EEEEE6toJsonERKS6_QrQRKT__XcvNS_5ValueEfp_E
PUBLIC 37234 0 std::__ndk1::vector<matjson::Value, std::__ndk1::allocator<matjson::Value> >::reserve(unsigned long)
PUBLIC 37314 0 std::__ndk1::vector<matjson::Value, std::__ndk1::allocator<matjson::Value> >::~vector[abi:ne180000]()
PUBLIC 3737c 0 std::__ndk1::vector<matjson::Value, std::__ndk1::allocator<matjson::Value> >::__throw_length_error[abi:ne180000]() const
PUBLIC 37390 0 std::__ndk1::__split_buffer<matjson::Value, std::__ndk1::allocator<matjson::Value>&>::~__split_buffer()
PUBLIC 373e4 0 matjson::Serialize<Quest>::toJson(Quest const&)
PUBLIC m 377f4 0 matjson::makeObject(std::initializer_list<std::__ndk1::pair<std::__ndk1::basic_string<char, std::__ndk1::char_traits<char>, std::__ndk1::allocator<char> >, matjson::Value> >)
PUBLIC 379a8 0 _ZNSt6__ndk14pairINS_12basic_stringIcNS_11char_traitsIcEENS_9allocatorIcEEEEN7matjson5ValueEEC2B8ne180000IRA3_KcRKiTnNS_9enable_ifIXclsr10_CheckArgsE17__enable_implicitIT_T0_EEEiE4typeELi0EEEOSH_OSI_
PUBLIC 37a6c 0 _ZNSt6__ndk14pairINS_12basic_stringIcNS_11char_traitsIcEENS_9allocatorIcEEEEN7matjson5ValueEEC2B8ne180000IRA5_KcRKS6_TnNS_9enable_ifIXclsr10_CheckArgsE17__enable_implicitIT_T0_EEEiE4typeELi0EEEOSH_OSI_
PUBLIC 37bf8 0 _ZNSt6__ndk14pairINS_12basic_stringIcNS_11char_traitsIcEENS_9allocatorIcEEEEN7matjson5ValueEEC2B8ne180000IRA12_KcRKS6_TnNS_9enable_ifIXclsr10_CheckArgsE17__enable_implicitIT_T0_EEEiE4typeELi0EEEOSH_OSI_
PUBLIC 37d84 0 _ZNSt6__ndk14pairINS_12basic_stringIcNS_11char_traitsIcEENS_9allocatorIcEEEEN7matjson5ValueEEC2B8ne180000IRA7_KcRKiTnNS_9enable_ifIXclsr10_CheckArgsE17__enable_implicitIT_T0_EEEiE4typeELi0EEEOSH_OSI_
PUBLIC 37e48 0 _ZNSt6__ndk14pairINS_12basic_stringIcNS_11char_traitsIcEENS_9allocatorIcEEEEN7matjson5ValueEEC2B8ne180000IRA11_KcRKS6_TnNS_9enable_ifIXclsr10_CheckArgsE17__enable_implicitIT_T0_EEEiE4typeELi0EEEOSH_OSI_
PUBLIC 37fd4 0 _ZNSt6__ndk14pairINS_12basic_stringIcNS_11char_traitsIcEENS_9allocatorIcEEEEN7matjson5ValueEEC2B8ne180000IRA9_KcRKiTnNS_9enable_ifIXclsr10_CheckArgsE17__enable_implicitIT_T0_EEEiE4typeELi0EEEOSH_OSI_
PUBLIC 38098 0 _ZNSt6__ndk14pairINS_12basic_stringIcNS_11char_traitsIcEENS_9allocatorIcEEEEN7matjson5ValueEEC2B8ne180000IRA15_KcS6_TnNS_9enable_ifIXclsr10_CheckArgsE17__enable_implicitIT_T0_EEEiE4typeELi0EEEOSF_OSG_
PUBLIC 381fc 0 _ZNSt6__ndk14pairINS_12basic_stringIcNS_11char_traitsIcEENS_9allocatorIcEEEEN7matjson5ValueEEC2B8ne180000IRA9_KcRKfTnNS_9enable_ifIXclsr10_CheckArgsE17__enable_implicitIT_T0_EEEiE4typeELi0EEEOSH_OSI_
PUBLIC m 382c4 0 std::__ndk1::pair<std::__ndk1::basic_string<char, std::__ndk1::char_traits<char>, std::__ndk1::allocator<char> >, matjson::Value>::~pair()
PUBLIC m 38300 0 std::__ndk1::vector<matjson::Value, std::__ndk1::allocator<matjson::Value> >::__emplace_back_slow_path<matjson::Value const&>(matjson::Value const&)
PUBLIC m 384a4 0 std::__ndk1::vector<matjson::Value, std::__ndk1::allocator<matjson::Value> >::__push_back_slow_path<matjson::Value>(matjson::Value&&)
PUBLIC 385c0 0 __cxx_global_var_init
PUBLIC 38c3c 0 geode::modifier::ModifyBase<geode::modifier::ModifyDerive<BQLLL, LevelListLayer> >::~ModifyBase()
PUBLIC 38c58 0 geode::modifier::ModifyDerive<BQLLL, LevelListLayer>::apply()
PUBLIC 38fe0 0 geode::modifier::ModifyBase<geode::modifier::ModifyDerive<BQLLL, LevelListLayer> >::apply()
PUBLIC 38fe4 0 geode::modifier::AsStaticFunction_onClaimReward<BQLLL, void (BQLLL::*)(cocos2d::CCObject*)>::Impl<void (BQLLL::*)(cocos2d::CCObject*)>::function(BQLLL*, cocos2d::CCObject*)
PUBLIC m 396a0 0 diffToStr(LevelDifficulty)
PUBLIC m 3991c 0 std::__ndk1::basic_string<char, std::__ndk1::char_traits<char>, std::__ndk1::allocator<char> >::basic_string[abi:ne180000]<0>()
PUBLIC 399b8 0 __cxx_global_var_init
PUBLIC 39e38 0 geode::modifier::ModifyBase<geode::modifier::ModifyDerive<BQBGL, GJBaseGameLayer> >::~ModifyBase()
PUBLIC 39e54 0 __cxx_global_var_init.13
PUBLIC 3a4d0 0 geode::modifier::ModifyBase<geode::modifier::ModifyDerive<BQPL, PlayLayer> >::~ModifyBase()
PUBLIC 3a4ec 0 geode::modifier::ModifyDerive<BQBGL, GJBaseGameLayer>::apply()
PUBLIC 3a874 0 geode::modifier::ModifyBase<geode::modifier::ModifyDerive<BQBGL, GJBaseGameLayer> >::apply()
PUBLIC 3a878 0 geode::modifier::AsStaticFunction_pickupItem<BQBGL, void (BQBGL::*)(EffectGameObject*)>::Impl<void (BQBGL::*)(EffectGameObject*)>::function(BQBGL*, EffectGameObject*)
PUBLIC 3a8c8 0 geode::modifier::FieldIntermediate<BQBGL, GJBaseGameLayer>::self()
PUBLIC m 3aa54 0 geode::modifier::FieldContainer::getField(unsigned long)
PUBLIC m 3ad08 0 geode::modifier::FieldContainer::setField(unsigned long, unsigned long, std::__ndk1::function<void (void*)>)
PUBLIC 3ae14 0 geode::modifier::FieldIntermediate<BQBGL, GJBaseGameLayer>::fieldDestructor(void*)
PUBLIC 3ae18 0 std::__ndk1::vector<void*, std::__ndk1::allocator<void*> >::__throw_length_error[abi:ne180000]() const
PUBLIC m 3ae2c 0 std::__ndk1::vector<std::__ndk1::function<void (void*)>, std::__ndk1::allocator<std::__ndk1::function<void (void*)> > >::__push_back_slow_path<std::__ndk1::function<void (void*)> >(std::__ndk1::function<void (void*)>&&)
PUBLIC 3b054 0 std::__ndk1::vector<std::__ndk1::function<void (void*)>, std::__ndk1::allocator<std::__ndk1::function<void (void*)> > >::__throw_length_error[abi:ne180000]() const
PUBLIC 3b068 0 std::__ndk1::vector<void*, std::__ndk1::allocator<void*> >::__throw_out_of_range[abi:ne180000]() const
PUBLIC 3b074 0 std::__ndk1::__throw_out_of_range[abi:ne180000](char const*)
PUBLIC 3b0c4 0 std::out_of_range::out_of_range[abi:ne180000](char const*)
PUBLIC 3b0f4 0 std::__ndk1::vector<std::__ndk1::function<void (void*)>, std::__ndk1::allocator<std::__ndk1::function<void (void*)> > >::__throw_out_of_range[abi:ne180000]() const
PUBLIC 3b100 0 std::__ndk1::__function::__base<void (void*)>::~__base()
PUBLIC m 3b104 0 std::__ndk1::__function::__func<void (*)(void*), std::__ndk1::allocator<void (*)(void*)>, void (void*)>::~__func()
PUBLIC 3b108 0 std::__ndk1::__function::__func<void (*)(void*), std::__ndk1::allocator<void (*)(void*)>, void (void*)>::__clone() const
PUBLIC 3b140 0 std::__ndk1::__function::__func<void (*)(void*), std::__ndk1::allocator<void (*)(void*)>, void (void*)>::__clone(std::__ndk1::__function::__base<void (void*)>*) const
PUBLIC 3b158 0 std::__ndk1::__function::__func<void (*)(void*), std::__ndk1::allocator<void (*)(void*)>, void (void*)>::destroy()
PUBLIC 3b15c 0 std::__ndk1::__function::__func<void (*)(void*), std::__ndk1::allocator<void (*)(void*)>, void (void*)>::destroy_deallocate()
PUBLIC 3b160 0 std::__ndk1::__function::__func<void (*)(void*), std::__ndk1::allocator<void (*)(void*)>, void (void*)>::operator()(void*&&)
PUBLIC 3b170 0 std::__ndk1::__function::__func<void (*)(void*), std::__ndk1::allocator<void (*)(void*)>, void (void*)>::target(std::type_info const&) const
PUBLIC 3b18c 0 std::__ndk1::__function::__func<void (*)(void*), std::__ndk1::allocator<void (*)(void*)>, void (void*)>::target_type() const
PUBLIC 3b198 0 geode::modifier::ModifyDerive<BQPL, PlayLayer>::apply()
PUBLIC 3b4d0 0 geode::modifier::ModifyBase<geode::modifier::ModifyDerive<BQPL, PlayLayer> >::apply()
PUBLIC 3b4d4 0 geode::modifier::AsStaticFunction_levelComplete<BQPL, void (BQPL::*)()>::Impl<void (BQPL::*)()>::function(BQPL*)
PUBLIC 3d26c 0 _ZN7eclipse6config11getInternalITkNS0_13SupportedTypeEbEET_NSt6__ndk112basic_stringIcNS3_11char_traitsIcEENS3_9allocatorIcEEEES2_
PUBLIC 3d380 0 _ZN3fmt3v119to_stringINS0_9join_viewINSt6__ndk111__wrap_iterIPNS3_12basic_stringIcNS3_11char_traitsIcEENS3_9allocatorIcEEEEEESC_cEETnNS3_9enable_ifIXaantsr3std11is_integralIT_EE5valuentsr6detail13has_format_asISF_EE5valueEiE4typeELi0EEESA_RKSF_
PUBLIC 3d4fc 0 eclipse::events::RequestConfigValueEvent<bool>::~RequestConfigValueEvent()
PUBLIC 3d53c 0 eclipse::events::RequestConfigValueEvent<bool>::~RequestConfigValueEvent()
PUBLIC m 3d580 0 fmt::v11::basic_memory_buffer<char, (unsigned long)500, std::__ndk1::allocator<char> >::grow(fmt::v11::detail::buffer<char>&, unsigned long)
PUBLIC m 3d5f8 0 fmt::v11::formatter<fmt::v11::join_view<std::__ndk1::__wrap_iter<std::__ndk1::basic_string<char, std::__ndk1::char_traits<char>, std::__ndk1::allocator<char> >*>, std::__ndk1::__wrap_iter<std::__ndk1::basic_string<char, std::__ndk1::char_traits<char>, std::__ndk1::allocator<char> >*>, char>, char, void>::format<fmt::v11::context>(fmt::v11::join_view<std::__ndk1::__wrap_iter<std::__ndk1::basic_string<char, std::__ndk1::char_traits<char>, std::__ndk1::allocator<char> >*>, std::__ndk1::__wrap_iter<std::__ndk1::basic_string<char, std::__ndk1::char_traits<char>, std::__ndk1::allocator<char> >*>, char> const&, fmt::v11::context&) const
PUBLIC m 3d93c 0 fmt::v11::detail::handle_dynamic_spec<fmt::v11::detail::width_checker, fmt::v11::context>(int&, fmt::v11::detail::arg_ref<fmt::v11::context::char_type>, fmt::v11::context&)
PUBLIC m 3da50 0 fmt::v11::detail::handle_dynamic_spec<fmt::v11::detail::precision_checker, fmt::v11::context>(int&, fmt::v11::detail::arg_ref<fmt::v11::context::char_type>, fmt::v11::context&)
PUBLIC m 3db64 0 fmt::v11::detail::write<char, fmt::v11::basic_appender<char> >(fmt::v11::basic_appender<char>, fmt::v11::basic_string_view<char>, fmt::v11::format_specs const&)
PUBLIC m 3dde0 0 fmt::v11::detail::write_escaped_string<char, fmt::v11::detail::counting_iterator>(fmt::v11::detail::counting_iterator, fmt::v11::basic_string_view<char>)
PUBLIC m 3e300 0 fmt::v11::detail::write_padded<char, (fmt::v11::align::type)1, fmt::v11::basic_appender<char>, fmt::v11::detail::write<char, fmt::v11::basic_appender<char> >(fmt::v11::basic_appender<char>, fmt::v11::basic_string_view<char>, fmt::v11::format_specs const&)::{lambda(fmt::v11::basic_appender<char>)#1}>(fmt::v11::basic_appender<char>, fmt::v11::format_specs const&, unsigned long, unsigned long, fmt::v11::detail::write<char, fmt::v11::basic_appender<char> >(fmt::v11::basic_appender<char>, fmt::v11::basic_string_view<char>, fmt::v11::format_specs const&)::{lambda(fmt::v11::basic_appender<char>&&)#1})
PUBLIC m 3e50c 0 fmt::v11::detail::for_each_codepoint<fmt::v11::detail::code_point_index(fmt::v11::basic_string_view<char>, unsigned long)::{lambda(unsigned int, fmt::v11::basic_string_view<char>)#1}>(fmt::v11::basic_string_view<char>, fmt::v11::detail::code_point_index(fmt::v11::basic_string_view<char>, unsigned long)::{lambda(unsigned int, fmt::v11::basic_string_view<char>)#1})
PUBLIC m 3e934 0 fmt::v11::detail::write_escaped_cp<fmt::v11::detail::counting_iterator, char>(fmt::v11::detail::counting_iterator, fmt::v11::detail::find_escape_result<char> const&)
PUBLIC m 3eac8 0 fmt::v11::detail::for_each_codepoint<fmt::v11::detail::compute_width(fmt::v11::basic_string_view<char>)::count_code_points>(fmt::v11::basic_string_view<char>, fmt::v11::detail::compute_width(fmt::v11::basic_string_view<char>)::count_code_points)::{lambda(char const*, char const*)#1}::operator()(char const*, char const*) const
PUBLIC m 3ec80 0 fmt::v11::detail::fill<char, fmt::v11::basic_appender<char> >(fmt::v11::basic_appender<char>, unsigned long, fmt::v11::detail::fill_t const&)
PUBLIC m 3ee50 0 fmt::v11::detail::write_escaped_string<char, fmt::v11::basic_appender<char> >(fmt::v11::basic_appender<char>, fmt::v11::basic_string_view<char>)
PUBLIC m 3f4cc 0 fmt::v11::detail::write_escaped_cp<fmt::v11::basic_appender<char>, char>(fmt::v11::basic_appender<char>, fmt::v11::detail::find_escape_result<char> const&)
PUBLIC m 3f6b0 0 fmt::v11::detail::write_codepoint<(unsigned long)2, char, fmt::v11::basic_appender<char> >(fmt::v11::basic_appender<char>, char, unsigned int)
PUBLIC m 3f828 0 fmt::v11::detail::write_codepoint<(unsigned long)4, char, fmt::v11::basic_appender<char> >(fmt::v11::basic_appender<char>, char, unsigned int)
PUBLIC m 3f9a0 0 fmt::v11::detail::write_codepoint<(unsigned long)8, char, fmt::v11::basic_appender<char> >(fmt::v11::basic_appender<char>, char, unsigned int)
PUBLIC m 3fb18 0 fmt::v11::detail::get_dynamic_spec<fmt::v11::detail::width_checker, fmt::v11::basic_format_arg<fmt::v11::context> >(fmt::v11::basic_format_arg<fmt::v11::context>)
PUBLIC m 3fbac 0 fmt::v11::basic_format_args<fmt::v11::context>::get<char>(fmt::v11::basic_string_view<char>) const
PUBLIC m 3fd04 0 fmt::v11::detail::get_dynamic_spec<fmt::v11::detail::precision_checker, fmt::v11::basic_format_arg<fmt::v11::context> >(fmt::v11::basic_format_arg<fmt::v11::context>)
PUBLIC m 3fd98 0 NotifNode::init(Quest, cocos2d::CCSize, bool)
PUBLIC 40724 0 Quest::operator=(Quest const&)
PUBLIC m 40978 0 NotifNode::playAnim(int)
PUBLIC m 40afc 0 NotifNode::create(Quest, cocos2d::CCSize, bool)
PUBLIC 40c58 0 NotifNode::NotifNode()
PUBLIC m 40d28 0 cocos2d::CCSequence::create(cocos2d::CCFiniteTimeAction*, ...)
PUBLIC m 40dc0 0 std::__ndk1::basic_string<char, std::__ndk1::char_traits<char>, std::__ndk1::allocator<char> >::__assign_no_alias<true>(char const*, unsigned long)
PUBLIC m 40e6c 0 std::__ndk1::basic_string<char, std::__ndk1::char_traits<char>, std::__ndk1::allocator<char> >::__assign_no_alias<false>(char const*, unsigned long)
PUBLIC 40f7c 0 cocos2d::CCCopying::copyWithZone(cocos2d::CCZone*)
PUBLIC 40f84 0 NotifNode::~NotifNode()
PUBLIC 41020 0 NotifNode::~NotifNode()
PUBLIC m 410cc 0 QuestNode::init(QuestPopup*, Quest, cocos2d::CCSize)
PUBLIC m 41c4c 0 QuestNode::onClaim(cocos2d::CCObject*)
PUBLIC m 42368 0 QuestNode::create(QuestPopup*, Quest, cocos2d::CCSize)
PUBLIC 424c4 0 QuestNode::QuestNode()
PUBLIC m 42594 0 QuestNode::exit()
PUBLIC m 42698 0 geode::impl::ResultData<long, std::__ndk1::basic_string<char, std::__ndk1::char_traits<char>, std::__ndk1::allocator<char> > >::~ResultData()
PUBLIC 4270c 0 QuestNode::~QuestNode()
PUBLIC 427a8 0 QuestNode::~QuestNode()
PUBLIC 42854 0 geode::Mod::setSavedValue<std::__ndk1::vector<int, std::__ndk1::allocator<int> > >(std::__ndk1::basic_string_view<char, std::__ndk1::char_traits<char> >, std::__ndk1::vector<int, std::__ndk1::allocator<int> > const&)
PUBLIC 42958 0 geode::Mod::getSavedValue<int>(std::__ndk1::basic_string_view<char, std::__ndk1::char_traits<char> >)
PUBLIC 42adc 0 std::__ndk1::vector<int, std::__ndk1::allocator<int> >::__throw_length_error[abi:ne180000]() const
PUBLIC 42af0 0 geode::Mod::getSavedValue<std::__ndk1::vector<int, std::__ndk1::allocator<int> > >(std::__ndk1::basic_string_view<char, std::__ndk1::char_traits<char> >)
PUBLIC 42d04 0 geode::impl::ResultData<std::__ndk1::vector<int, std::__ndk1::allocator<int> >, std::__ndk1::basic_string<char, std::__ndk1::char_traits<char>, std::__ndk1::allocator<char> > >::~ResultData()
PUBLIC 42d78 0 _ZN7matjson9SerializeINSt6__ndk16vectorIiNS1_9allocatorIiEEEEE8fromJsonERKNS_5ValueEQrQS9__Xcldtfp_2asIT_EEE
PUBLIC 43320 0 std::__ndk1::__variant_detail::__visitation::__base::__dispatcher<(unsigned long)0>::__dispatch[abi:ne180000]<std::__ndk1::__variant_detail::__dtor<std::__ndk1::__variant_detail::__traits<std::__ndk1::vector<int, std::__ndk1::allocator<int> >, std::__ndk1::basic_string<char, std::__ndk1::char_traits<char>, std::__ndk1::vector<char> > >, (std::__ndk1::__variant_detail::_Trait)1>::__destroy[abi:ne180000]()::{lambda(auto:1&)#1}, std::__ndk1::__variant_detail::__base<(std::__ndk1::__variant_detail::__traits<std::__ndk1::vector<int, std::__ndk1::allocator<int> >, std::__ndk1::basic_string<char, std::__ndk1::char_traits<char>, std::__ndk1::vector<char> > >)1, std::__ndk1::allocator<int>, std::__ndk1::vector<char> >&>(std::__ndk1::__variant_detail::__dtor<std::__ndk1::__variant_detail::__traits<std::__ndk1::vector<int, std::__ndk1::allocator<int> >, std::__ndk1::basic_string<char, std::__ndk1::char_traits<char>, std::__ndk1::vector<char> > >, (std::__ndk1::__variant_detail::_Trait)1>, std::__ndk1::__variant_detail::__base<(std::__ndk1::__variant_detail::__traits<std::__ndk1::vector<int, std::__ndk1::allocator<int> >, std::__ndk1::basic_string<char, std::__ndk1::char_traits<char>, std::__ndk1::vector<char> > >)1, std::__ndk1::allocator<int>, std::__ndk1::vector<char> >&)
PUBLIC 43334 0 std::__ndk1::__variant_detail::__visitation::__base::__dispatcher<(unsigned long)1>::__dispatch[abi:ne180000]<std::__ndk1::__variant_detail::__dtor<std::__ndk1::__variant_detail::__traits<std::__ndk1::vector<int, std::__ndk1::allocator<int> >, std::__ndk1::basic_string<char, std::__ndk1::char_traits<char>, std::__ndk1::vector<char> > >, (std::__ndk1::__variant_detail::_Trait)1>::__destroy[abi:ne180000]()::{lambda(auto:1&)#1}, std::__ndk1::__variant_detail::__base<(std::__ndk1::__variant_detail::__traits<std::__ndk1::vector<int, std::__ndk1::allocator<int> >, std::__ndk1::basic_string<char, std::__ndk1::char_traits<char>, std::__ndk1::vector<char> > >)1, std::__ndk1::allocator<int>, std::__ndk1::vector<char> >&>(std::__ndk1::__variant_detail::__dtor<std::__ndk1::__variant_detail::__traits<std::__ndk1::vector<int, std::__ndk1::allocator<int> >, std::__ndk1::basic_string<char, std::__ndk1::char_traits<char>, std::__ndk1::vector<char> > >, (std::__ndk1::__variant_detail::_Trait)1>, std::__ndk1::__variant_detail::__base<(std::__ndk1::__variant_detail::__traits<std::__ndk1::vector<int, std::__ndk1::allocator<int> >, std::__ndk1::basic_string<char, std::__ndk1::char_traits<char>, std::__ndk1::vector<char> > >)1, std::__ndk1::allocator<int>, std::__ndk1::vector<char> >&)
PUBLIC 43348 0 _ZN7matjson9SerializeINSt6__ndk16vectorIiNS1_9allocatorIiEEEEE6toJsonERKS5_QrQRKT__XcvNS_5ValueEfp_E
PUBLIC m 434f0 0 QuestPopup::setup()
PUBLIC m 44260 0 QuestPopup::onLeft(cocos2d::CCObject*)
PUBLIC m 443ec 0 QuestPopup::onRight(cocos2d::CCObject*)
PUBLIC m 4459c 0 QuestPopup::onReload(cocos2d::CCObject*)
PUBLIC m 44adc 0 QuestPopup::loadQuests()
PUBLIC m 45704 0 QuestPopup::updateTimer(float)
PUBLIC m 459bc 0 geode::Task<geode::utils::web::WebResponse, geode::utils::web::WebProgress>::~Task()
PUBLIC m 45a0c 0 QuestPopup::create()
PUBLIC 45aec 0 QuestPopup::QuestPopup()
PUBLIC 45cf8 0 QuestPopup::~QuestPopup()
PUBLIC 45e08 0 QuestPopup::~QuestPopup()
PUBLIC 45e2c 0 geode::Popup<>::registerWithTouchDispatcher()
PUBLIC 45e58 0 geode::Popup<>::keyDown(cocos2d::enumKeyCodes)
PUBLIC 45e80 0 cocos2d::CCLayerRGBA::setOpacityModifyRGB(bool)
PUBLIC 45e84 0 cocos2d::CCLayerRGBA::isOpacityModifyRGB()
PUBLIC 45e8c 0 geode::Popup<>::onClose(cocos2d::CCObject*)
PUBLIC 45fd4 0 {virtual override thunk({offset(-320)}, QuestPopup::~QuestPopup())}
PUBLIC 45fdc 0 {virtual override thunk({offset(-320)}, QuestPopup::~QuestPopup())}
PUBLIC 46004 0 {virtual override thunk({offset(-344)}, geode::Popup<>::keyDown(cocos2d::enumKeyCodes))}
PUBLIC 46030 0 cocos2d::CCKeyboardDelegate::keyUp(cocos2d::enumKeyCodes)
PUBLIC 46034 0 cocos2d::CCMouseDelegate::rightKeyDown()
PUBLIC 46038 0 cocos2d::CCMouseDelegate::rightKeyUp()
PUBLIC 4603c 0 cocos2d::CCMouseDelegate::scrollWheel(float, float)
PUBLIC 46040 0 {virtual override thunk({offset(-408)}, cocos2d::CCLayerRGBA::setOpacityModifyRGB(bool))}
PUBLIC 46044 0 {virtual override thunk({offset(-408)}, cocos2d::CCLayerRGBA::isOpacityModifyRGB())}
PUBLIC 4604c 0 geode::Popup<>::~Popup()
PUBLIC 460b8 0 geode::Popup<>::~Popup()
PUBLIC 460bc 0 {virtual override thunk({offset(-320)}, geode::Popup<>::~Popup())}
PUBLIC 46128 0 {virtual override thunk({offset(-320)}, geode::Popup<>::~Popup())}
PUBLIC 4612c 0 std::__ndk1::__exception_guard_exceptions<std::__ndk1::vector<std::__ndk1::basic_string<char, std::__ndk1::char_traits<char>, std::__ndk1::allocator<char> >, std::__ndk1::allocator<std::__ndk1::basic_string<char, std::__ndk1::char_traits<char>, std::__ndk1::allocator<char> > > >::__destroy_vector>::~__exception_guard_exceptions[abi:ne180000]()
PUBLIC m 461b8 0 geode::cast::traverseTypeinfoFor(void*, geode::cast::ClassTypeinfoType const*, char const*)
PUBLIC 462bc 0 std::__ndk1::__function::__value_func<void (geode::Task<geode::utils::web::WebResponse, geode::utils::web::WebProgress>::Event*)>::swap[abi:ne180000](std::__ndk1::__function::__value_func<void (geode::Task<geode::utils::web::WebResponse, geode::utils::web::WebProgress>::Event*)>&)
PUBLIC 46454 0 std::__ndk1::__function::__func<QuestPopup::loadQuests()::$_0, std::__ndk1::allocator<QuestPopup::loadQuests()::$_0>, void (geode::Task<geode::utils::web::WebResponse, geode::utils::web::WebProgress>::Event*)>::~__func()
PUBLIC 46458 0 std::__ndk1::__function::__func<QuestPopup::loadQuests()::$_0, std::__ndk1::allocator<QuestPopup::loadQuests()::$_0>, void (geode::Task<geode::utils::web::WebResponse, geode::utils::web::WebProgress>::Event*)>::__clone() const
PUBLIC 46490 0 std::__ndk1::__function::__func<QuestPopup::loadQuests()::$_0, std::__ndk1::allocator<QuestPopup::loadQuests()::$_0>, void (geode::Task<geode::utils::web::WebResponse, geode::utils::web::WebProgress>::Event*)>::__clone(std::__ndk1::__function::__base<void (geode::Task<geode::utils::web::WebResponse, geode::utils::web::WebProgress>::Event*)>*) const
PUBLIC 464a8 0 std::__ndk1::__function::__func<QuestPopup::loadQuests()::$_0, std::__ndk1::allocator<QuestPopup::loadQuests()::$_0>, void (geode::Task<geode::utils::web::WebResponse, geode::utils::web::WebProgress>::Event*)>::destroy()
PUBLIC 464ac 0 std::__ndk1::__function::__func<QuestPopup::loadQuests()::$_0, std::__ndk1::allocator<QuestPopup::loadQuests()::$_0>, void (geode::Task<geode::utils::web::WebResponse, geode::utils::web::WebProgress>::Event*)>::destroy_deallocate()
PUBLIC 464b0 0 std::__ndk1::__function::__func<QuestPopup::loadQuests()::$_0, std::__ndk1::allocator<QuestPopup::loadQuests()::$_0>, void (geode::Task<geode::utils::web::WebResponse, geode::utils::web::WebProgress>::Event*)>::operator()(geode::Task<geode::utils::web::WebResponse, geode::utils::web::WebProgress>::Event*&&)
PUBLIC 476d0 0 std::__ndk1::__function::__func<QuestPopup::loadQuests()::$_0, std::__ndk1::allocator<QuestPopup::loadQuests()::$_0>, void (geode::Task<geode::utils::web::WebResponse, geode::utils::web::WebProgress>::Event*)>::target(std::type_info const&) const
PUBLIC 476ec 0 std::__ndk1::__function::__func<QuestPopup::loadQuests()::$_0, std::__ndk1::allocator<QuestPopup::loadQuests()::$_0>, void (geode::Task<geode::utils::web::WebResponse, geode::utils::web::WebProgress>::Event*)>::target_type() const
PUBLIC m 476f8 0 geode::impl::ResultData<matjson::Value, std::__ndk1::basic_string<char, std::__ndk1::char_traits<char>, std::__ndk1::allocator<char> > >::~ResultData()
PUBLIC m 4776c 0 geode::impl::ResultData<double, std::__ndk1::basic_string<char, std::__ndk1::char_traits<char>, std::__ndk1::allocator<char> > >::~ResultData()
PUBLIC 477e0 0 std::__ndk1::__variant_detail::__visitation::__base::__dispatcher<(unsigned long)0>::__dispatch[abi:ne180000]<std::__ndk1::__variant_detail::__dtor<std::__ndk1::__variant_detail::__traits<matjson::Value, std::__ndk1::basic_string<char, std::__ndk1::char_traits<char>, std::__ndk1::allocator<char> > >, (std::__ndk1::__variant_detail::_Trait)1>::__destroy[abi:ne180000]()::{lambda(auto:1&)#1}, std::__ndk1::__variant_detail::__base<(std::__ndk1::__variant_detail::__traits<matjson::Value, std::__ndk1::basic_string<char, std::__ndk1::char_traits<char>, std::__ndk1::allocator<char> > >)1, matjson, std::__ndk1::allocator<char> >&>(std::__ndk1::__variant_detail::__dtor<std::__ndk1::__variant_detail::__traits<matjson::Value, std::__ndk1::basic_string<char, std::__ndk1::char_traits<char>, std::__ndk1::allocator<char> > >, (std::__ndk1::__variant_detail::_Trait)1>, std::__ndk1::__variant_detail::__base<(std::__ndk1::__variant_detail::__traits<matjson::Value, std::__ndk1::basic_string<char, std::__ndk1::char_traits<char>, std::__ndk1::allocator<char> > >)1, matjson, std::__ndk1::allocator<char> >&)
PUBLIC 477e8 0 std::__ndk1::__variant_detail::__visitation::__base::__dispatcher<(unsigned long)1>::__dispatch[abi:ne180000]<std::__ndk1::__variant_detail::__dtor<std::__ndk1::__variant_detail::__traits<matjson::Value, std::__ndk1::basic_string<char, std::__ndk1::char_traits<char>, std::__ndk1::allocator<char> > >, (std::__ndk1::__variant_detail::_Trait)1>::__destroy[abi:ne180000]()::{lambda(auto:1&)#1}, std::__ndk1::__variant_detail::__base<(std::__ndk1::__variant_detail::__traits<matjson::Value, std::__ndk1::basic_string<char, std::__ndk1::char_traits<char>, std::__ndk1::allocator<char> > >)1, matjson, std::__ndk1::allocator<char> >&>(std::__ndk1::__variant_detail::__dtor<std::__ndk1::__variant_detail::__traits<matjson::Value, std::__ndk1::basic_string<char, std::__ndk1::char_traits<char>, std::__ndk1::allocator<char> > >, (std::__ndk1::__variant_detail::_Trait)1>, std::__ndk1::__variant_detail::__base<(std::__ndk1::__variant_detail::__traits<matjson::Value, std::__ndk1::basic_string<char, std::__ndk1::char_traits<char>, std::__ndk1::allocator<char> > >)1, matjson, std::__ndk1::allocator<char> >&)
PUBLIC 477fc 0 std::__ndk1::vector<Quest, std::__ndk1::allocator<Quest> >::__assign_with_size[abi:ne180000]<Quest*, std::__ndk1::vector<Quest, std::__ndk1::allocator<Quest> >::__assign_with_size[abi:ne180000]>(Quest*, std::__ndk1::vector<Quest, std::__ndk1::allocator<Quest> >::__assign_with_size[abi:ne180000], long)
PUBLIC m 47ac0 0 geode::Task<geode::utils::web::WebResponse, geode::utils::web::WebProgress>::setListener(geode::EventListenerProtocol*)
PUBLIC m 47ce4 0 geode::Task<geode::utils::web::WebResponse, geode::utils::web::WebProgress>::setListener(geode::EventListenerProtocol*)::{lambda()#1}::~{lambda()#1}()
PUBLIC m 47d34 0 geode::Task<geode::utils::web::WebResponse, geode::utils::web::WebProgress>::setListener(geode::EventListenerProtocol*)::{lambda()#2}::~{lambda()#2}()
PUBLIC m 47d84 0 std::__ndk1::__function::__func<geode::Task<geode::utils::web::WebResponse, geode::utils::web::WebProgress>::setListener(geode::EventListenerProtocol*)::{lambda()#1}, std::__ndk1::allocator<geode::Task<geode::utils::web::WebResponse, geode::utils::web::WebProgress>::setListener(geode::EventListenerProtocol*)::{lambda()#1}>, void ()>::~__func()
PUBLIC m 47de4 0 std::__ndk1::__function::__func<geode::Task<geode::utils::web::WebResponse, geode::utils::web::WebProgress>::setListener(geode::EventListenerProtocol*)::{lambda()#1}, std::__ndk1::allocator<geode::Task<geode::utils::web::WebResponse, geode::utils::web::WebProgress>::setListener(geode::EventListenerProtocol*)::{lambda()#1}>, void ()>::~__func()
PUBLIC 47e54 0 std::__ndk1::__function::__func<geode::Task<geode::utils::web::WebResponse, geode::utils::web::WebProgress>::setListener(geode::EventListenerProtocol*)::{lambda()#1}, std::__ndk1::allocator<geode::Task<geode::utils::web::WebResponse, geode::utils::web::WebProgress>::setListener(geode::EventListenerProtocol*)::{lambda()#1}>, void ()>::__clone() const
PUBLIC 47eb0 0 std::__ndk1::__function::__func<geode::Task<geode::utils::web::WebResponse, geode::utils::web::WebProgress>::setListener(geode::EventListenerProtocol*)::{lambda()#1}, std::__ndk1::allocator<geode::Task<geode::utils::web::WebResponse, geode::utils::web::WebProgress>::setListener(geode::EventListenerProtocol*)::{lambda()#1}>, void ()>::__clone(std::__ndk1::__function::__base<void ()>*) const
PUBLIC 47f00 0 std::__ndk1::__function::__func<geode::Task<geode::utils::web::WebResponse, geode::utils::web::WebProgress>::setListener(geode::EventListenerProtocol*)::{lambda()#1}, std::__ndk1::allocator<geode::Task<geode::utils::web::WebResponse, geode::utils::web::WebProgress>::setListener(geode::EventListenerProtocol*)::{lambda()#1}>, void ()>::destroy()
PUBLIC 47f50 0 std::__ndk1::__function::__func<geode::Task<geode::utils::web::WebResponse, geode::utils::web::WebProgress>::setListener(geode::EventListenerProtocol*)::{lambda()#1}, std::__ndk1::allocator<geode::Task<geode::utils::web::WebResponse, geode::utils::web::WebProgress>::setListener(geode::EventListenerProtocol*)::{lambda()#1}>, void ()>::destroy_deallocate()
PUBLIC 47fb0 0 std::__ndk1::__function::__func<geode::Task<geode::utils::web::WebResponse, geode::utils::web::WebProgress>::setListener(geode::EventListenerProtocol*)::{lambda()#1}, std::__ndk1::allocator<geode::Task<geode::utils::web::WebResponse, geode::utils::web::WebProgress>::setListener(geode::EventListenerProtocol*)::{lambda()#1}>, void ()>::operator()()
PUBLIC 47fb8 0 std::__ndk1::__function::__func<geode::Task<geode::utils::web::WebResponse, geode::utils::web::WebProgress>::setListener(geode::EventListenerProtocol*)::{lambda()#1}, std::__ndk1::allocator<geode::Task<geode::utils::web::WebResponse, geode::utils::web::WebProgress>::setListener(geode::EventListenerProtocol*)::{lambda()#1}>, void ()>::target(std::type_info const&) const
PUBLIC 47fd4 0 std::__ndk1::__function::__func<geode::Task<geode::utils::web::WebResponse, geode::utils::web::WebProgress>::setListener(geode::EventListenerProtocol*)::{lambda()#1}, std::__ndk1::allocator<geode::Task<geode::utils::web::WebResponse, geode::utils::web::WebProgress>::setListener(geode::EventListenerProtocol*)::{lambda()#1}>, void ()>::target_type() const
PUBLIC m 47fe0 0 geode::Task<geode::utils::web::WebResponse, geode::utils::web::WebProgress>::setListener(geode::EventListenerProtocol*)::{lambda()#1}::operator()() const
PUBLIC m 481b8 0 geode::Task<geode::utils::web::WebResponse, geode::utils::web::WebProgress>::Event::~Event()
PUBLIC m 48218 0 geode::Task<geode::utils::web::WebResponse, geode::utils::web::WebProgress>::Event::~Event()
PUBLIC m 48288 0 std::__ndk1::__function::__func<geode::Task<geode::utils::web::WebResponse, geode::utils::web::WebProgress>::setListener(geode::EventListenerProtocol*)::{lambda()#2}, std::__ndk1::allocator<geode::Task<geode::utils::web::WebResponse, geode::utils::web::WebProgress>::setListener(geode::EventListenerProtocol*)::{lambda()#2}>, void ()>::~__func()
PUBLIC m 482e8 0 std::__ndk1::__function::__func<geode::Task<geode::utils::web::WebResponse, geode::utils::web::WebProgress>::setListener(geode::EventListenerProtocol*)::{lambda()#2}, std::__ndk1::allocator<geode::Task<geode::utils::web::WebResponse, geode::utils::web::WebProgress>::setListener(geode::EventListenerProtocol*)::{lambda()#2}>, void ()>::~__func()
PUBLIC 48358 0 std::__ndk1::__function::__func<geode::Task<geode::utils::web::WebResponse, geode::utils::web::WebProgress>::setListener(geode::EventListenerProtocol*)::{lambda()#2}, std::__ndk1::allocator<geode::Task<geode::utils::web::WebResponse, geode::utils::web::WebProgress>::setListener(geode::EventListenerProtocol*)::{lambda()#2}>, void ()>::__clone() const
PUBLIC 483b4 0 std::__ndk1::__function::__func<geode::Task<geode::utils::web::WebResponse, geode::utils::web::WebProgress>::setListener(geode::EventListenerProtocol*)::{lambda()#2}, std::__ndk1::allocator<geode::Task<geode::utils::web::WebResponse, geode::utils::web::WebProgress>::setListener(geode::EventListenerProtocol*)::{lambda()#2}>, void ()>::__clone(std::__ndk1::__function::__base<void ()>*) const
PUBLIC 48404 0 std::__ndk1::__function::__func<geode::Task<geode::utils::web::WebResponse, geode::utils::web::WebProgress>::setListener(geode::EventListenerProtocol*)::{lambda()#2}, std::__ndk1::allocator<geode::Task<geode::utils::web::WebResponse, geode::utils::web::WebProgress>::setListener(geode::EventListenerProtocol*)::{lambda()#2}>, void ()>::destroy()
PUBLIC 48454 0 std::__ndk1::__function::__func<geode::Task<geode::utils::web::WebResponse, geode::utils::web::WebProgress>::setListener(geode::EventListenerProtocol*)::{lambda()#2}, std::__ndk1::allocator<geode::Task<geode::utils::web::WebResponse, geode::utils::web::WebProgress>::setListener(geode::EventListenerProtocol*)::{lambda()#2}>, void ()>::destroy_deallocate()
PUBLIC 484b4 0 std::__ndk1::__function::__func<geode::Task<geode::utils::web::WebResponse, geode::utils::web::WebProgress>::setListener(geode::EventListenerProtocol*)::{lambda()#2}, std::__ndk1::allocator<geode::Task<geode::utils::web::WebResponse, geode::utils::web::WebProgress>::setListener(geode::EventListenerProtocol*)::{lambda()#2}>, void ()>::operator()()
PUBLIC 484bc 0 std::__ndk1::__function::__func<geode::Task<geode::utils::web::WebResponse, geode::utils::web::WebProgress>::setListener(geode::EventListenerProtocol*)::{lambda()#2}, std::__ndk1::allocator<geode::Task<geode::utils::web::WebResponse, geode::utils::web::WebProgress>::setListener(geode::EventListenerProtocol*)::{lambda()#2}>, void ()>::target(std::type_info const&) const
PUBLIC 484d8 0 std::__ndk1::__function::__func<geode::Task<geode::utils::web::WebResponse, geode::utils::web::WebProgress>::setListener(geode::EventListenerProtocol*)::{lambda()#2}, std::__ndk1::allocator<geode::Task<geode::utils::web::WebResponse, geode::utils::web::WebProgress>::setListener(geode::EventListenerProtocol*)::{lambda()#2}>, void ()>::target_type() const
PUBLIC m 484e4 0 geode::Task<geode::utils::web::WebResponse, geode::utils::web::WebProgress>::setListener(geode::EventListenerProtocol*)::{lambda()#2}::operator()() const
PUBLIC 486b0 0 geode::Popup<>::initBase(float, float, char const*, cocos2d::CCRect, bool)
PUBLIC 489b8 0 std::__ndk1::__function::__base<void (geode::Task<geode::utils::web::WebResponse, geode::utils::web::WebProgress>::Event*)>::~__base()
PUBLIC 489bc 0 std::__ndk1::__function::__func<QuestPopup::onReload(cocos2d::CCObject*)::$_0, std::__ndk1::allocator<QuestPopup::onReload(cocos2d::CCObject*)::$_0>, void (geode::Task<geode::utils::web::WebResponse, geode::utils::web::WebProgress>::Event*)>::~__func()
PUBLIC 489c0 0 std::__ndk1::__function::__func<QuestPopup::onReload(cocos2d::CCObject*)::$_0, std::__ndk1::allocator<QuestPopup::onReload(cocos2d::CCObject*)::$_0>, void (geode::Task<geode::utils::web::WebResponse, geode::utils::web::WebProgress>::Event*)>::__clone() const
PUBLIC 489f8 0 std::__ndk1::__function::__func<QuestPopup::onReload(cocos2d::CCObject*)::$_0, std::__ndk1::allocator<QuestPopup::onReload(cocos2d::CCObject*)::$_0>, void (geode::Task<geode::utils::web::WebResponse, geode::utils::web::WebProgress>::Event*)>::__clone(std::__ndk1::__function::__base<void (geode::Task<geode::utils::web::WebResponse, geode::utils::web::WebProgress>::Event*)>*) const
PUBLIC 48a10 0 std::__ndk1::__function::__func<QuestPopup::onReload(cocos2d::CCObject*)::$_0, std::__ndk1::allocator<QuestPopup::onReload(cocos2d::CCObject*)::$_0>, void (geode::Task<geode::utils::web::WebResponse, geode::utils::web::WebProgress>::Event*)>::destroy()
PUBLIC 48a14 0 std::__ndk1::__function::__func<QuestPopup::onReload(cocos2d::CCObject*)::$_0, std::__ndk1::allocator<QuestPopup::onReload(cocos2d::CCObject*)::$_0>, void (geode::Task<geode::utils::web::WebResponse, geode::utils::web::WebProgress>::Event*)>::destroy_deallocate()
PUBLIC 48a18 0 std::__ndk1::__function::__func<QuestPopup::onReload(cocos2d::CCObject*)::$_0, std::__ndk1::allocator<QuestPopup::onReload(cocos2d::CCObject*)::$_0>, void (geode::Task<geode::utils::web::WebResponse, geode::utils::web::WebProgress>::Event*)>::operator()(geode::Task<geode::utils::web::WebResponse, geode::utils::web::WebProgress>::Event*&&)
PUBLIC 49864 0 std::__ndk1::__function::__func<QuestPopup::onReload(cocos2d::CCObject*)::$_0, std::__ndk1::allocator<QuestPopup::onReload(cocos2d::CCObject*)::$_0>, void (geode::Task<geode::utils::web::WebResponse, geode::utils::web::WebProgress>::Event*)>::target(std::type_info const&) const
PUBLIC 49880 0 std::__ndk1::__function::__func<QuestPopup::onReload(cocos2d::CCObject*)::$_0, std::__ndk1::allocator<QuestPopup::onReload(cocos2d::CCObject*)::$_0>, void (geode::Task<geode::utils::web::WebResponse, geode::utils::web::WebProgress>::Event*)>::target_type() const
PUBLIC 4988c 0 geode::Popup<>::CloseEvent::~CloseEvent()
PUBLIC 498ec 0 geode::Popup<>::CloseEvent::~CloseEvent()
PUBLIC 4995c 0 std::__ndk1::__shared_ptr_emplace<geode::Popup<>::CloseEvent::Impl, std::__ndk1::allocator<geode::Popup<>::CloseEvent::Impl> >::~__shared_ptr_emplace()
PUBLIC 4996c 0 std::__ndk1::__shared_ptr_emplace<geode::Popup<>::CloseEvent::Impl, std::__ndk1::allocator<geode::Popup<>::CloseEvent::Impl> >::~__shared_ptr_emplace()
PUBLIC 4999c 0 std::__ndk1::__shared_ptr_emplace<geode::Popup<>::CloseEvent::Impl, std::__ndk1::allocator<geode::Popup<>::CloseEvent::Impl> >::__on_zero_shared()
PUBLIC 499a0 0 std::__ndk1::__shared_ptr_emplace<geode::Popup<>::CloseEvent::Impl, std::__ndk1::allocator<geode::Popup<>::CloseEvent::Impl> >::__on_zero_shared_weak()
PUBLIC m 499a4 0 BetterQuests::get()
PUBLIC 49a04 0 BetterQuests::BetterQuests()
PUBLIC m 49bb0 0 BetterQuests::getServerUrl()
PUBLIC m 49bd8 0 BetterQuests::getScrolls()
PUBLIC m 49be0 0 BetterQuests::addScrolls(int)
PUBLIC 49ccc 0 geodeExecFunction29<(anonymous namespace)::ExecFuncUnique29>(geode::ModStateEvent*)
PUBLIC m 4a278 0 geode::EventListener<geode::Task<geode::utils::web::WebResponse, geode::utils::web::WebProgress> >::~EventListener()
PUBLIC m 4a318 0 geode::EventListener<geode::Task<geode::utils::web::WebResponse, geode::utils::web::WebProgress> >::getPool() const
PUBLIC m 4a31c 0 geode::EventListener<geode::Task<geode::utils::web::WebResponse, geode::utils::web::WebProgress> >::handle(geode::Event*)
PUBLIC m 4a4e8 0 geode::EventListener<geode::Task<geode::utils::web::WebResponse, geode::utils::web::WebProgress> >::~EventListener()
PUBLIC 4a590 0 std::__ndk1::__throw_bad_function_call[abi:ne180000]()
PUBLIC 4a5c4 0 std::__ndk1::bad_function_call::~bad_function_call()
PUBLIC 4a5e8 0 std::__ndk1::__function::__func<geodeExecFunction29<(anonymous namespace)::ExecFuncUnique29>(geode::ModStateEvent*)::{lambda(geode::Task<geode::utils::web::WebResponse, geode::utils::web::WebProgress>::Event*)#1}, std::__ndk1::allocator<geodeExecFunction29<(anonymous namespace)::ExecFuncUnique29>(geode::ModStateEvent*)::{lambda(geode::Task<geode::utils::web::WebResponse, geode::utils::web::WebProgress>::Event*)#1}>, void (geode::Task<geode::utils::web::WebResponse, geode::utils::web::WebProgress>::Event*)>::~__func()
PUBLIC 4a5ec 0 std::__ndk1::__function::__func<geodeExecFunction29<(anonymous namespace)::ExecFuncUnique29>(geode::ModStateEvent*)::{lambda(geode::Task<geode::utils::web::WebResponse, geode::utils::web::WebProgress>::Event*)#1}, std::__ndk1::allocator<geodeExecFunction29<(anonymous namespace)::ExecFuncUnique29>(geode::ModStateEvent*)::{lambda(geode::Task<geode::utils::web::WebResponse, geode::utils::web::WebProgress>::Event*)#1}>, void (geode::Task<geode::utils::web::WebResponse, geode::utils::web::WebProgress>::Event*)>::__clone() const
PUBLIC 4a610 0 std::__ndk1::__function::__func<geodeExecFunction29<(anonymous namespace)::ExecFuncUnique29>(geode::ModStateEvent*)::{lambda(geode::Task<geode::utils::web::WebResponse, geode::utils::web::WebProgress>::Event*)#1}, std::__ndk1::allocator<geodeExecFunction29<(anonymous namespace)::ExecFuncUnique29>(geode::ModStateEvent*)::{lambda(geode::Task<geode::utils::web::WebResponse, geode::utils::web::WebProgress>::Event*)#1}>, void (geode::Task<geode::utils::web::WebResponse, geode::utils::web::WebProgress>::Event*)>::__clone(std::__ndk1::__function::__base<void (geode::Task<geode::utils::web::WebResponse, geode::utils::web::WebProgress>::Event*)>*) const
PUBLIC 4a620 0 std::__ndk1::__function::__func<geodeExecFunction29<(anonymous namespace)::ExecFuncUnique29>(geode::ModStateEvent*)::{lambda(geode::Task<geode::utils::web::WebResponse, geode::utils::web::WebProgress>::Event*)#1}, std::__ndk1::allocator<geodeExecFunction29<(anonymous namespace)::ExecFuncUnique29>(geode::ModStateEvent*)::{lambda(geode::Task<geode::utils::web::WebResponse, geode::utils::web::WebProgress>::Event*)#1}>, void (geode::Task<geode::utils::web::WebResponse, geode::utils::web::WebProgress>::Event*)>::destroy()
PUBLIC 4a624 0 std::__ndk1::__function::__func<geodeExecFunction29<(anonymous namespace)::ExecFuncUnique29>(geode::ModStateEvent*)::{lambda(geode::Task<geode::utils::web::WebResponse, geode::utils::web::WebProgress>::Event*)#1}, std::__ndk1::allocator<geodeExecFunction29<(anonymous namespace)::ExecFuncUnique29>(geode::ModStateEvent*)::{lambda(geode::Task<geode::utils::web::WebResponse, geode::utils::web::WebProgress>::Event*)#1}>, void (geode::Task<geode::utils::web::WebResponse, geode::utils::web::WebProgress>::Event*)>::destroy_deallocate()
PUBLIC 4a628 0 std::__ndk1::__function::__func<geodeExecFunction29<(anonymous namespace)::ExecFuncUnique29>(geode::ModStateEvent*)::{lambda(geode::Task<geode::utils::web::WebResponse, geode::utils::web::WebProgress>::Event*)#1}, std::__ndk1::allocator<geodeExecFunction29<(anonymous namespace)::ExecFuncUnique29>(geode::ModStateEvent*)::{lambda(geode::Task<geode::utils::web::WebResponse, geode::utils::web::WebProgress>::Event*)#1}>, void (geode::Task<geode::utils::web::WebResponse, geode::utils::web::WebProgress>::Event*)>::operator()(geode::Task<geode::utils::web::WebResponse, geode::utils::web::WebProgress>::Event*&&)
PUBLIC 4b158 0 std::__ndk1::__function::__func<geodeExecFunction29<(anonymous namespace)::ExecFuncUnique29>(geode::ModStateEvent*)::{lambda(geode::Task<geode::utils::web::WebResponse, geode::utils::web::WebProgress>::Event*)#1}, std::__ndk1::allocator<geodeExecFunction29<(anonymous namespace)::ExecFuncUnique29>(geode::ModStateEvent*)::{lambda(geode::Task<geode::utils::web::WebResponse, geode::utils::web::WebProgress>::Event*)#1}>, void (geode::Task<geode::utils::web::WebResponse, geode::utils::web::WebProgress>::Event*)>::target(std::type_info const&) const
PUBLIC 4b174 0 std::__ndk1::__function::__func<geodeExecFunction29<(anonymous namespace)::ExecFuncUnique29>(geode::ModStateEvent*)::{lambda(geode::Task<geode::utils::web::WebResponse, geode::utils::web::WebProgress>::Event*)#1}, std::__ndk1::allocator<geodeExecFunction29<(anonymous namespace)::ExecFuncUnique29>(geode::ModStateEvent*)::{lambda(geode::Task<geode::utils::web::WebResponse, geode::utils::web::WebProgress>::Event*)#1}>, void (geode::Task<geode::utils::web::WebResponse, geode::utils::web::WebProgress>::Event*)>::target_type() const
PUBLIC m 4b180 0 geode::EventListener<geode::ModStateFilter>::getPool() const
PUBLIC m 4b184 0 geode::EventListener<geode::ModStateFilter>::handle(geode::Event*)
PUBLIC m 4b2f8 0 geode::EventListener<geode::ModStateFilter>::~EventListener()
PUBLIC m 4b358 0 geode::EventListener<geode::ModStateFilter>::~EventListener()
PUBLIC 4b3c0 0 std::__ndk1::__function::__base<void (geode::ModStateEvent*)>::~__base()
PUBLIC m 4b3c4 0 std::__ndk1::__function::__func<void (*)(geode::ModStateEvent*), std::__ndk1::allocator<void (*)(geode::ModStateEvent*)>, void (geode::ModStateEvent*)>::~__func()
PUBLIC 4b3c8 0 std::__ndk1::__function::__func<void (*)(geode::ModStateEvent*), std::__ndk1::allocator<void (*)(geode::ModStateEvent*)>, void (geode::ModStateEvent*)>::__clone() const
PUBLIC 4b400 0 std::__ndk1::__function::__func<void (*)(geode::ModStateEvent*), std::__ndk1::allocator<void (*)(geode::ModStateEvent*)>, void (geode::ModStateEvent*)>::__clone(std::__ndk1::__function::__base<void (geode::ModStateEvent*)>*) const
PUBLIC 4b418 0 std::__ndk1::__function::__func<void (*)(geode::ModStateEvent*), std::__ndk1::allocator<void (*)(geode::ModStateEvent*)>, void (geode::ModStateEvent*)>::destroy()
PUBLIC 4b41c 0 std::__ndk1::__function::__func<void (*)(geode::ModStateEvent*), std::__ndk1::allocator<void (*)(geode::ModStateEvent*)>, void (geode::ModStateEvent*)>::destroy_deallocate()
PUBLIC 4b420 0 std::__ndk1::__function::__func<void (*)(geode::ModStateEvent*), std::__ndk1::allocator<void (*)(geode::ModStateEvent*)>, void (geode::ModStateEvent*)>::operator()(geode::ModStateEvent*&&)
PUBLIC 4b430 0 std::__ndk1::__function::__func<void (*)(geode::ModStateEvent*), std::__ndk1::allocator<void (*)(geode::ModStateEvent*)>, void (geode::ModStateEvent*)>::target(std::type_info const&) const
PUBLIC 4b44c 0 std::__ndk1::__function::__func<void (*)(geode::ModStateEvent*), std::__ndk1::allocator<void (*)(geode::ModStateEvent*)>, void (geode::ModStateEvent*)>::target_type() const
PUBLIC 4b458 0 _GLOBAL__sub_I_BetterQuests.cpp
PUBLIC m 4b58c 0 geode::getMod()
PUBLIC m 4b5c8 0 geodeImplicitEntry
PUBLIC 4b604 0 std::__ndk1::unordered_map<void*, bool, std::__ndk1::hash<void*>, std::__ndk1::equal_to<void*>, std::__ndk1::allocator<std::__ndk1::pair<void* const, bool> > >::~unordered_map[abi:ne180000]()
PUBLIC 4b650 0 wrapFunction(unsigned long, tulip::hook::WrapperMetadata const&)
PUBLIC 4b784 0 geode::impl::ResultData<void*, std::__ndk1::basic_string<char, std::__ndk1::char_traits<char>, std::__ndk1::allocator<char> > >::unwrapErr() &
PUBLIC 4b7fc 0 geode::impl::ResultData<void*, std::__ndk1::basic_string<char, std::__ndk1::char_traits<char>, std::__ndk1::allocator<char> > >::~ResultData()
PUBLIC 4b870 0 tulip::hook::WrapperMetadata::~WrapperMetadata()
PUBLIC 4b8d4 0 cocos2d::CCObject::~CCObject()
PUBLIC 4b8f8 0 cocos2d::CCNode::CCNode()
PUBLIC 4bb54 0 cocos2d::CCNode::~CCNode()
PUBLIC 4bb78 0 {virtual override thunk({offset(-320)}, cocos2d::CCLayer::~CCLayer())}
PUBLIC 4bb80 0 cocos2d::CCLayer::~CCLayer()
PUBLIC 4bba4 0 {virtual override thunk({offset(-320)}, cocos2d::CCLayer::~CCLayer())}
PUBLIC 4bbcc 0 cocos2d::CCLayerRGBA::~CCLayerRGBA()
PUBLIC 4becc 0 {virtual override thunk({offset(-320)}, cocos2d::CCLayerRGBA::~CCLayerRGBA())}
PUBLIC 4bed4 0 cocos2d::CCLayerRGBA::~CCLayerRGBA()
PUBLIC 4bef8 0 {virtual override thunk({offset(-320)}, cocos2d::CCLayerRGBA::~CCLayerRGBA())}
PUBLIC 4bf20 0 cocos2d::CCLayerColor::CCLayerColor()
PUBLIC 4c184 0 {virtual override thunk({offset(-320)}, cocos2d::CCLayerColor::~CCLayerColor())}
PUBLIC 4c18c 0 cocos2d::CCLayerColor::~CCLayerColor()
PUBLIC 4c1b0 0 {virtual override thunk({offset(-320)}, cocos2d::CCLayerColor::~CCLayerColor())}
PUBLIC 4c1d8 0 {virtual override thunk({offset(-320)}, FLAlertLayer::~FLAlertLayer())}
PUBLIC 4c1e0 0 FLAlertLayer::~FLAlertLayer()
PUBLIC 4c204 0 {virtual override thunk({offset(-320)}, FLAlertLayer::~FLAlertLayer())}
PUBLIC 4c22c 0 FLAlertLayer::create(FLAlertLayerProtocol*, char const*, gd::string, char const*, char const*, float)
PUBLIC 4c3e4 0 tulip::hook::AbstractFunction::from<FLAlertLayer*, FLAlertLayerProtocol*, char const*, gd::string, char const*, char const*, float>(FLAlertLayer* (*)(FLAlertLayerProtocol*, char const*, gd::string, char const*, char const*, float))
PUBLIC 4c8c8 0 CCSpriteGrayscale::createWithSpriteFrameName(gd::string const&)
PUBLIC 4ca2c 0 FMODAudioEngine::playEffect(gd::string)
PUBLIC 4cba4 0 tulip::hook::AbstractFunction::from<void, FMODAudioEngine*, gd::string>(void (*)(FMODAudioEngine*, gd::string))
PUBLIC 4cc48 0 GJSearchObject::create(SearchType, gd::string)
PUBLIC 4cdc8 0 tulip::hook::AbstractFunction::from<GJSearchObject*, SearchType, gd::string>(GJSearchObject* (*)(SearchType, gd::string))
PUBLIC 4ce6c 0 cocos2d::CCObject::update(float)
PUBLIC 4ce70 0 cocos2d::CCLayerColor::~CCLayerColor()
PUBLIC 4d154 0 FLAlertLayer::~FLAlertLayer()
PUBLIC 4d438 0 cocos2d::CCNode::~CCNode()
PUBLIC 4d6d8 0 cocos2d::CCLayer::~CCLayer()
PUBLIC 4d9c8 0 cocos2d::CCObject::~CCObject()
PUBLIC 4debc 0 _ZN5geode15UnwrapExceptionC2IRPvQsr4implE18IsStringStreamableIT_EEENS_4impl5OkTagEOS4_
PUBLIC 4e010 0 std::__ndk1::__variant_detail::__visitation::__base::__dispatcher<(unsigned long)0>::__dispatch[abi:ne180000]<std::__ndk1::__variant_detail::__dtor<std::__ndk1::__variant_detail::__traits<void*, std::__ndk1::basic_string<char, std::__ndk1::char_traits<char>, std::__ndk1::allocator<char> > >, (std::__ndk1::__variant_detail::_Trait)1>::__destroy[abi:ne180000]()::{lambda(auto:1&)#1}, std::__ndk1::__variant_detail::__base<(std::__ndk1::__variant_detail::__traits<void*, std::__ndk1::basic_string<char, std::__ndk1::char_traits<char>, std::__ndk1::allocator<char> > >)1, std::__ndk1::__variant_detail::__traits, std::__ndk1::allocator<char> >&>(std::__ndk1::__variant_detail::__dtor<std::__ndk1::__variant_detail::__traits<void*, std::__ndk1::basic_string<char, std::__ndk1::char_traits<char>, std::__ndk1::allocator<char> > >, (std::__ndk1::__variant_detail::_Trait)1>, std::__ndk1::__variant_detail::__base<(std::__ndk1::__variant_detail::__traits<void*, std::__ndk1::basic_string<char, std::__ndk1::char_traits<char>, std::__ndk1::allocator<char> > >)1, std::__ndk1::__variant_detail::__traits, std::__ndk1::allocator<char> >&)
PUBLIC 4e014 0 std::__ndk1::__variant_detail::__visitation::__base::__dispatcher<(unsigned long)1>::__dispatch[abi:ne180000]<std::__ndk1::__variant_detail::__dtor<std::__ndk1::__variant_detail::__traits<void*, std::__ndk1::basic_string<char, std::__ndk1::char_traits<char>, std::__ndk1::allocator<char> > >, (std::__ndk1::__variant_detail::_Trait)1>::__destroy[abi:ne180000]()::{lambda(auto:1&)#1}, std::__ndk1::__variant_detail::__base<(std::__ndk1::__variant_detail::__traits<void*, std::__ndk1::basic_string<char, std::__ndk1::char_traits<char>, std::__ndk1::allocator<char> > >)1, std::__ndk1::__variant_detail::__traits, std::__ndk1::allocator<char> >&>(std::__ndk1::__variant_detail::__dtor<std::__ndk1::__variant_detail::__traits<void*, std::__ndk1::basic_string<char, std::__ndk1::char_traits<char>, std::__ndk1::allocator<char> > >, (std::__ndk1::__variant_detail::_Trait)1>, std::__ndk1::__variant_detail::__base<(std::__ndk1::__variant_detail::__traits<void*, std::__ndk1::basic_string<char, std::__ndk1::char_traits<char>, std::__ndk1::allocator<char> > >)1, std::__ndk1::__variant_detail::__traits, std::__ndk1::allocator<char> >&)
PUBLIC 4e028 0 std::__ndk1::__hash_table<std::__ndk1::__hash_value_type<void*, bool>, std::__ndk1::__unordered_map_hasher<void*, std::__ndk1::__hash_value_type<void*, bool>, std::__ndk1::hash<void*>, std::__ndk1::equal_to<void*>, true>, std::__ndk1::__unordered_map_equal<void*, std::__ndk1::__hash_value_type<void*, bool>, std::__ndk1::equal_to<void*>, std::__ndk1::hash<void*>, true>, std::__ndk1::allocator<std::__ndk1::__hash_value_type<void*, bool> > >::__emplace_unique_key_args<void*, std::__ndk1::piecewise_construct_t const&, std::__ndk1::tuple<void* const&>, std::__ndk1::tuple<> >(void* const&, std::__ndk1::piecewise_construct_t const&, std::__ndk1::tuple<void* const&>, std::__ndk1::tuple<>)
PUBLIC 4e534 0 __udivti3
PUBLIC 4e540 0 __udivmodti4
PUBLIC m 4e78c 0 __eqtf2
PUBLIC 4e82c 0 __unordtf2
PUBLIC m 4e864 0 fmt::v11::detail::assert_fail(char const*, int, char const*)
PUBLIC m 4e898 0 fmt::v11::detail::format_error_code(fmt::v11::detail::buffer<char>&, int, fmt::v11::basic_string_view<char>)
PUBLIC m 4e9ac 0 fmt::v11::detail::report_error(void (*)(fmt::v11::detail::buffer<char>&, int, char const*), int, char const*)
PUBLIC m 4ea60 0 fmt::v11::detail::write_loc(fmt::v11::basic_appender<char>, fmt::v11::loc_value, fmt::v11::format_specs const&, fmt::v11::detail::locale_ref)
PUBLIC m 4ebf0 0 fmt::v11::detail::locale_ref::get<std::__ndk1::locale>() const
PUBLIC m 4ec04 0 fmt::v11::format_facet<std::__ndk1::locale>::format_facet(std::__ndk1::locale&)
PUBLIC m 4ed94 0 fmt::v11::format_facet<std::__ndk1::locale>::~format_facet()
PUBLIC m 4ee14 0 fmt::v11::report_error(char const*)
PUBLIC m 4ee64 0 fmt::v11::format_error::runtime_error(char const*)
PUBLIC m 4ee94 0 fmt::v11::format_facet<std::__ndk1::locale>::do_put(fmt::v11::basic_appender<char>, fmt::v11::loc_value, fmt::v11::format_specs const&) const
PUBLIC m 4f07c 0 fmt::v11::loc_value::visit<fmt::v11::detail::loc_writer<char> >(fmt::v11::detail::loc_writer<char>&&)
PUBLIC m 4f118 0 fmt::v11::detail::loc_writer<char>::~loc_writer()
PUBLIC m 4f17c 0 fmt::v11::vsystem_error(int, fmt::v11::basic_string_view<char>, fmt::v11::basic_format_args<fmt::v11::context>)
PUBLIC m 4f324 0 fmt::v11::vformat(fmt::v11::basic_string_view<char>, fmt::v11::basic_format_args<fmt::v11::context>)
PUBLIC m 4f460 0 fmt::v11::detail::dragonbox::get_cached_power(int)
PUBLIC m 4f510 0 fmt::v11::detail::utf8_to_utf16::utf8_to_utf16(fmt::v11::basic_string_view<char>)
PUBLIC m 4f720 0 fmt::v11::format_system_error(fmt::v11::detail::buffer<char>&, int, char const*)
PUBLIC m 4f834 0 fmt::v11::report_system_error(int, char const*)
PUBLIC m 4f8e8 0 fmt::v11::detail::vformat_to<char>(fmt::v11::detail::buffer<char>&, fmt::v11::basic_string_view<char>, fmt::v11::detail::vformat_args<char>::type, fmt::v11::detail::locale_ref)
PUBLIC m 4fae0 0 fmt::v11::detail::write_console(int, fmt::v11::basic_string_view<char>)
PUBLIC m 4fae8 0 fmt::v11::detail::print(__sFILE*, fmt::v11::basic_string_view<char>)
PUBLIC m 4fb70 0 fmt::v11::vprint_buffered(__sFILE*, fmt::v11::basic_string_view<char>, fmt::v11::basic_format_args<fmt::v11::context>)
PUBLIC m 4fcac 0 fmt::v11::vprint(__sFILE*, fmt::v11::basic_string_view<char>, fmt::v11::basic_format_args<fmt::v11::context>)
PUBLIC m 4fde8 0 fmt::v11::vprintln(__sFILE*, fmt::v11::basic_string_view<char>, fmt::v11::basic_format_args<fmt::v11::context>)
PUBLIC m 4ff5c 0 fmt::v11::vprint(fmt::v11::basic_string_view<char>, fmt::v11::basic_format_args<fmt::v11::context>)
PUBLIC m 500b0 0 fmt::v11::detail::is_printable(unsigned int)
PUBLIC m 502d8 0 fmt::v11::detail::dragonbox::to_decimal<float>(float)
PUBLIC m 505b4 0 fmt::v11::detail::dragonbox::to_decimal<double>(double)
PUBLIC m 50af0 0 fmt::v11::detail::locale_ref::locale_ref<std::__ndk1::locale>()
PUBLIC m 50af8 0 fmt::v11::detail::thousands_sep_impl<char>(fmt::v11::detail::locale_ref)
PUBLIC m 50c10 0 fmt::v11::detail::decimal_point_impl<char>(fmt::v11::detail::locale_ref)
PUBLIC m 50cbc 0 fmt::v11::detail::buffer<char>::append<char>(char const*, char const*)
PUBLIC m 50e08 0 fmt::v11::detail::parse_format_string<false, char, fmt::v11::detail::vformat_to<char>(fmt::v11::detail::buffer<char>&, fmt::v11::basic_string_view<char>, fmt::v11::detail::vformat_args<char>::type, fmt::v11::detail::locale_ref)::format_handler>(fmt::v11::basic_string_view<char>, fmt::v11::detail::vformat_to<char>(fmt::v11::detail::buffer<char>&, fmt::v11::basic_string_view<char>, fmt::v11::detail::vformat_args<char>::type, fmt::v11::detail::locale_ref)::format_handler&&)
PUBLIC m 51018 0 fmt::v11::detail::thousands_sep_impl<wchar_t>(fmt::v11::detail::locale_ref)
PUBLIC m 51130 0 fmt::v11::detail::decimal_point_impl<wchar_t>(fmt::v11::detail::locale_ref)
PUBLIC m 511dc 0 fmt::v11::detail::buffer<wchar_t>::append<wchar_t>(wchar_t const*, wchar_t const*)
PUBLIC m 512e4 0 fmt::v11::format_facet<std::__ndk1::locale>::~format_facet()
PUBLIC m 51374 0 fmt::v11::format_error::~format_error()
PUBLIC m 51398 0 fmt::v11::basic_memory_buffer<wchar_t, (unsigned long)500, std::__ndk1::allocator<wchar_t> >::grow(fmt::v11::detail::buffer<wchar_t>&, unsigned long)
PUBLIC 51438 0 fmt::v11::detail::for_each_codepoint<fmt::v11::detail::utf8_to_utf16::utf8_to_utf16(fmt::v11::basic_string_view<char>)::$_0>(fmt::v11::basic_string_view<char>, fmt::v11::detail::utf8_to_utf16::utf8_to_utf16(fmt::v11::basic_string_view<char>)::$_0)::{lambda(char const*, char const*)#1}::operator()(char const*, char const*) const
PUBLIC m 51634 0 fmt::v11::detail::copy_noinline<char, char const*, fmt::v11::basic_appender<char> >(char const*, char const*, fmt::v11::basic_appender<char>)
PUBLIC m 51784 0 fmt::v11::system_error<>(int, fmt::v11::basic_format_string<char, fmt::v11::type_identity<>::type>, &&)
PUBLIC m 51924 0 fmt::v11::detail::default_arg_formatter<char>::operator()<bool>(bool)
PUBLIC m 51994 0 fmt::v11::detail::default_arg_formatter<char>::operator()<char>(char)
PUBLIC m 51a0c 0 fmt::v11::detail::default_arg_formatter<char>::operator()<float>(float)
PUBLIC m 51b00 0 fmt::v11::detail::default_arg_formatter<char>::operator()<double>(double)
PUBLIC m 51bf4 0 fmt::v11::detail::default_arg_formatter<char>::operator()<char const*>(char const*)
PUBLIC m 51c3c 0 fmt::v11::detail::default_arg_formatter<char>::operator()<void const*>(void const*)
PUBLIC m 51cd8 0 _ZN3fmt3v116detail5writeIcNS0_14basic_appenderIcEEiTnNSt6__ndk19enable_ifIXaaaasr11is_integralIT1_EE5valuentsr3std7is_sameIS7_bEE5valuentsr3std7is_sameIS7_T_EE5valueEiE4typeELi0EEET0_SB_S7_
PUBLIC m 51f3c 0 fmt::v11::detail::copy_noinline<char, char*, fmt::v11::basic_appender<char> >(char*, char*, fmt::v11::basic_appender<char>)
PUBLIC m 5208c 0 _ZN3fmt3v116detail5writeIcNS0_14basic_appenderIcEEjTnNSt6__ndk19enable_ifIXaaaasr11is_integralIT1_EE5valuentsr3std7is_sameIS7_bEE5valuentsr3std7is_sameIS7_T_EE5valueEiE4typeELi0EEET0_SB_S7_
PUBLIC m 52270 0 _ZN3fmt3v116detail5writeIcNS0_14basic_appenderIcEExTnNSt6__ndk19enable_ifIXaaaasr11is_integralIT1_EE5valuentsr3std7is_sameIS7_bEE5valuentsr3std7is_sameIS7_T_EE5valueEiE4typeELi0EEET0_SB_S7_
PUBLIC m 524f8 0 _ZN3fmt3v116detail5writeIcNS0_14basic_appenderIcEEyTnNSt6__ndk19enable_ifIXaaaasr11is_integralIT1_EE5valuentsr3std7is_sameIS7_bEE5valuentsr3std7is_sameIS7_T_EE5valueEiE4typeELi0EEET0_SB_S7_
PUBLIC m 52704 0 _ZN3fmt3v116detail5writeIcNS0_14basic_appenderIcEEnTnNSt6__ndk19enable_ifIXaaaasr11is_integralIT1_EE5valuentsr3std7is_sameIS7_bEE5valuentsr3std7is_sameIS7_T_EE5valueEiE4typeELi0EEET0_SB_S7_
PUBLIC m 52a68 0 _ZN3fmt3v116detail5writeIcNS0_14basic_appenderIcEEoTnNSt6__ndk19enable_ifIXaaaasr11is_integralIT1_EE5valuentsr3std7is_sameIS7_bEE5valuentsr3std7is_sameIS7_T_EE5valueEiE4typeELi0EEET0_SB_S7_
PUBLIC m 52d80 0 _ZN3fmt3v116detail5writeIcNS0_14basic_appenderIcEEbTnNSt6__ndk19enable_ifIXsr3std7is_sameIT1_bEE5valueEiE4typeELi0EEET0_SA_S7_RKNS0_12format_specsENS1_10locale_refE
PUBLIC m 52e8c 0 fmt::v11::detail::write_int_noinline<char, fmt::v11::basic_appender<char>, unsigned int>(fmt::v11::basic_appender<char>, fmt::v11::detail::write_int_arg<unsigned int>, fmt::v11::format_specs const&, fmt::v11::detail::locale_ref)
PUBLIC m 53830 0 fmt::v11::detail::write_int<char, fmt::v11::basic_appender<char>, fmt::v11::detail::write_int<char, fmt::v11::basic_appender<char>, unsigned int>(fmt::v11::basic_appender<char>, fmt::v11::detail::write_int_arg<unsigned int>, fmt::v11::format_specs const&, fmt::v11::detail::locale_ref)::{lambda(fmt::v11::basic_appender<char>)#1}>(fmt::v11::basic_appender<char>, int, unsigned int, fmt::v11::format_specs const&, fmt::v11::detail::write_int<char, fmt::v11::basic_appender<char>, unsigned int>(fmt::v11::basic_appender<char>, fmt::v11::detail::write_int_arg<unsigned int>, fmt::v11::format_specs const&, fmt::v11::detail::locale_ref)::{lambda(fmt::v11::basic_appender<char>)#1})::{lambda(fmt::v11::basic_appender<char>(fmt::v11::basic_appender<char>))#1}::operator() const
PUBLIC m 539c0 0 fmt::v11::detail::write_int<char, fmt::v11::basic_appender<char>, fmt::v11::detail::write_int<char, fmt::v11::basic_appender<char>, unsigned int>(fmt::v11::basic_appender<char>, fmt::v11::detail::write_int_arg<unsigned int>, fmt::v11::format_specs const&, fmt::v11::detail::locale_ref)::{lambda(fmt::v11::basic_appender<char>)#2}>(fmt::v11::basic_appender<char>, int, unsigned int, fmt::v11::format_specs const&, fmt::v11::detail::write_int<char, fmt::v11::basic_appender<char>, unsigned int>(fmt::v11::basic_appender<char>, fmt::v11::detail::write_int_arg<unsigned int>, fmt::v11::format_specs const&, fmt::v11::detail::locale_ref)::{lambda(fmt::v11::basic_appender<char>)#2})::{lambda(fmt::v11::basic_appender<char>(fmt::v11::basic_appender<char>))#1}::operator() const
PUBLIC m 53ba4 0 fmt::v11::detail::write_int<char, fmt::v11::basic_appender<char>, fmt::v11::detail::write_int<char, fmt::v11::basic_appender<char>, unsigned int>(fmt::v11::basic_appender<char>, fmt::v11::detail::write_int_arg<unsigned int>, fmt::v11::format_specs const&, fmt::v11::detail::locale_ref)::{lambda(fmt::v11::basic_appender<char>)#3}>(fmt::v11::basic_appender<char>, int, unsigned int, fmt::v11::format_specs const&, fmt::v11::detail::write_int<char, fmt::v11::basic_appender<char>, unsigned int>(fmt::v11::basic_appender<char>, fmt::v11::detail::write_int_arg<unsigned int>, fmt::v11::format_specs const&, fmt::v11::detail::locale_ref)::{lambda(fmt::v11::basic_appender<char>)#3})::{lambda(fmt::v11::basic_appender<char>(fmt::v11::basic_appender<char>))#1}::operator() const
PUBLIC m 53d4c 0 fmt::v11::detail::write_int<char, fmt::v11::basic_appender<char>, fmt::v11::detail::write_int<char, fmt::v11::basic_appender<char>, unsigned int>(fmt::v11::basic_appender<char>, fmt::v11::detail::write_int_arg<unsigned int>, fmt::v11::format_specs const&, fmt::v11::detail::locale_ref)::{lambda(fmt::v11::basic_appender<char>)#4}>(fmt::v11::basic_appender<char>, int, unsigned int, fmt::v11::format_specs const&, fmt::v11::detail::write_int<char, fmt::v11::basic_appender<char>, unsigned int>(fmt::v11::basic_appender<char>, fmt::v11::detail::write_int_arg<unsigned int>, fmt::v11::format_specs const&, fmt::v11::detail::locale_ref)::{lambda(fmt::v11::basic_appender<char>)#4})::{lambda(fmt::v11::basic_appender<char>(fmt::v11::basic_appender<char>))#1}::operator() const
PUBLIC m 53ef8 0 fmt::v11::detail::write_padded<char, (fmt::v11::align::type)1, fmt::v11::basic_appender<char>, fmt::v11::detail::write_char<char, fmt::v11::basic_appender<char> >(fmt::v11::basic_appender<char>, char, fmt::v11::format_specs const&)::{lambda(fmt::v11::basic_appender<char>&)#1}>(fmt::v11::basic_appender<char>, fmt::v11::format_specs const&, unsigned long, unsigned long, fmt::v11::detail::write_char<char, fmt::v11::basic_appender<char> >(fmt::v11::basic_appender<char>, char, fmt::v11::format_specs const&)::{lambda(fmt::v11::basic_appender<char>&)#1})
PUBLIC m 54000 0 fmt::v11::detail::write_escaped_char<char, fmt::v11::basic_appender<char> >(fmt::v11::basic_appender<char>, char)
PUBLIC m 54178 0 fmt::v11::detail::write_padded<char, (fmt::v11::align::type)1, fmt::v11::basic_appender<char>, fmt::v11::detail::write_bytes<char, (fmt::v11::align::type)1, fmt::v11::basic_appender<char> >(fmt::v11::basic_appender<char>, fmt::v11::basic_string_view<char>, fmt::v11::format_specs const&)::{lambda(fmt::v11::basic_appender<char>&)#1}>(fmt::v11::basic_appender<char>, fmt::v11::format_specs const&, unsigned long, unsigned long, fmt::v11::detail::write_bytes<char, (fmt::v11::align::type)1, fmt::v11::basic_appender<char> >(fmt::v11::basic_appender<char>, fmt::v11::basic_string_view<char>, fmt::v11::format_specs const&)::{lambda(fmt::v11::basic_appender<char>&)#1})
PUBLIC m 5436c 0 fmt::v11::detail::write_padded<char, (fmt::v11::align::type)1, fmt::v11::basic_appender<char>, fmt::v11::detail::write_nonfinite<char, fmt::v11::basic_appender<char> >(fmt::v11::basic_appender<char>, bool, fmt::v11::format_specs, fmt::v11::sign::type)::{lambda(fmt::v11::basic_appender<char>&)#1}>(fmt::v11::basic_appender<char>, fmt::v11::format_specs const&, unsigned long, unsigned long, fmt::v11::detail::write_nonfinite<char, fmt::v11::basic_appender<char> >(fmt::v11::basic_appender<char>, bool, fmt::v11::format_specs, fmt::v11::sign::type)::{lambda(fmt::v11::basic_appender<char>&)#1})
PUBLIC m 545c4 0 fmt::v11::detail::do_write_float<char, fmt::v11::basic_appender<char>, fmt::v11::detail::dragonbox::decimal_fp<float>, fmt::v11::detail::digit_grouping<char> >(fmt::v11::basic_appender<char>, fmt::v11::detail::dragonbox::decimal_fp<float> const&, fmt::v11::format_specs const&, fmt::v11::detail::float_specs, fmt::v11::detail::locale_ref)
PUBLIC m 54c98 0 fmt::v11::detail::do_write_float<char, fmt::v11::basic_appender<char>, fmt::v11::detail::dragonbox::decimal_fp<float>, fmt::v11::detail::digit_grouping<char> >(fmt::v11::basic_appender<char>, fmt::v11::detail::dragonbox::decimal_fp<float> const&, fmt::v11::format_specs const&, fmt::v11::detail::float_specs, fmt::v11::detail::locale_ref)::{lambda(fmt::v11::basic_appender<char>(fmt::v11::basic_appender<char>))#1}::operator() const
PUBLIC m 54dec 0 fmt::v11::detail::digit_grouping<char>::digit_grouping(fmt::v11::detail::locale_ref, bool)
PUBLIC m 54fa4 0 fmt::v11::detail::digit_grouping<char>::~digit_grouping()
PUBLIC m 54fe8 0 fmt::v11::detail::write_exponent<char, fmt::v11::basic_appender<char> >(int, fmt::v11::basic_appender<char>)
PUBLIC m 551b8 0 _ZN3fmt3v116detail17write_significandIcjTnNSt6__ndk19enable_ifIXsr3std11is_integralIT0_EE5valueEiE4typeELi0EEEPT_S9_S5_iiS8_
PUBLIC m 55334 0 fmt::v11::detail::do_write_float<char, fmt::v11::basic_appender<char>, fmt::v11::detail::dragonbox::decimal_fp<float>, fmt::v11::detail::digit_grouping<char> >(fmt::v11::basic_appender<char>, fmt::v11::detail::dragonbox::decimal_fp<float> const&, fmt::v11::format_specs const&, fmt::v11::detail::float_specs, fmt::v11::detail::locale_ref)::{lambda(fmt::v11::basic_appender<char>(fmt::v11::basic_appender<char>))#2}::operator() const
PUBLIC m 55468 0 fmt::v11::detail::write_significand<char, fmt::v11::basic_appender<char>, unsigned int, fmt::v11::detail::digit_grouping<char> >(fmt::v11::basic_appender<char>, unsigned int, int, int, fmt::v11::detail::digit_grouping<char> const&)
PUBLIC m 55728 0 fmt::v11::detail::digit_grouping<char>::apply<fmt::v11::basic_appender<char>, char>(fmt::v11::basic_appender<char>, fmt::v11::basic_string_view<char>) const
PUBLIC m 55ae0 0 fmt::v11::basic_memory_buffer<int, (unsigned long)500, std::__ndk1::allocator<int> >::grow(fmt::v11::detail::buffer<int>&, unsigned long)
PUBLIC m 55b80 0 fmt::v11::detail::write_padded<char, (fmt::v11::align::type)2, fmt::v11::basic_appender<char>, fmt::v11::detail::do_write_float<char, fmt::v11::basic_appender<char>, fmt::v11::detail::dragonbox::decimal_fp<float>, fmt::v11::detail::digit_grouping<char> >(fmt::v11::basic_appender<char>, fmt::v11::detail::dragonbox::decimal_fp<float> const&, fmt::v11::format_specs const&, fmt::v11::detail::float_specs, fmt::v11::detail::locale_ref)::{lambda(fmt::v11::basic_appender<char>&)#3}>(fmt::v11::basic_appender<char>, fmt::v11::format_specs const&, unsigned long, unsigned long, fmt::v11::detail::do_write_float<char, fmt::v11::basic_appender<char>, fmt::v11::detail::dragonbox::decimal_fp<float>, fmt::v11::detail::digit_grouping<char> >(fmt::v11::basic_appender<char>, fmt::v11::detail::dragonbox::decimal_fp<float> const&, fmt::v11::format_specs const&, fmt::v11::detail::float_specs, fmt::v11::detail::locale_ref)::{lambda(fmt::v11::basic_appender<char>&)#3})
PUBLIC m 55d10 0 fmt::v11::detail::write_significand<fmt::v11::basic_appender<char>, char, unsigned int, fmt::v11::detail::digit_grouping<char> >(fmt::v11::basic_appender<char>, unsigned int, int, int, char, fmt::v11::detail::digit_grouping<char> const&)
PUBLIC m 55e58 0 fmt::v11::detail::do_write_float<char, fmt::v11::basic_appender<char>, fmt::v11::detail::dragonbox::decimal_fp<float>, fmt::v11::detail::digit_grouping<char> >(fmt::v11::basic_appender<char>, fmt::v11::detail::dragonbox::decimal_fp<float> const&, fmt::v11::format_specs const&, fmt::v11::detail::float_specs, fmt::v11::detail::locale_ref)::{lambda(fmt::v11::basic_appender<char>(fmt::v11::basic_appender<char>))#4}::operator() const
PUBLIC m 56074 0 fmt::v11::detail::do_write_float<char, fmt::v11::basic_appender<char>, fmt::v11::detail::dragonbox::decimal_fp<double>, fmt::v11::detail::digit_grouping<char> >(fmt::v11::basic_appender<char>, fmt::v11::detail::dragonbox::decimal_fp<double> const&, fmt::v11::format_specs const&, fmt::v11::detail::float_specs, fmt::v11::detail::locale_ref)
PUBLIC m 56758 0 fmt::v11::detail::do_write_float<char, fmt::v11::basic_appender<char>, fmt::v11::detail::dragonbox::decimal_fp<double>, fmt::v11::detail::digit_grouping<char> >(fmt::v11::basic_appender<char>, fmt::v11::detail::dragonbox::decimal_fp<double> const&, fmt::v11::format_specs const&, fmt::v11::detail::float_specs, fmt::v11::detail::locale_ref)::{lambda(fmt::v11::basic_appender<char>(fmt::v11::basic_appender<char>))#1}::operator() const
PUBLIC m 568b0 0 _ZN3fmt3v116detail17write_significandIcmTnNSt6__ndk19enable_ifIXsr3std11is_integralIT0_EE5valueEiE4typeELi0EEEPT_S9_S5_iiS8_
PUBLIC m 56a40 0 fmt::v11::detail::do_write_float<char, fmt::v11::basic_appender<char>, fmt::v11::detail::dragonbox::decimal_fp<double>, fmt::v11::detail::digit_grouping<char> >(fmt::v11::basic_appender<char>, fmt::v11::detail::dragonbox::decimal_fp<double> const&, fmt::v11::format_specs const&, fmt::v11::detail::float_specs, fmt::v11::detail::locale_ref)::{lambda(fmt::v11::basic_appender<char>(fmt::v11::basic_appender<char>))#2}::operator() const
PUBLIC m 56b74 0 fmt::v11::detail::write_significand<char, fmt::v11::basic_appender<char>, unsigned long, fmt::v11::detail::digit_grouping<char> >(fmt::v11::basic_appender<char>, unsigned long, int, int, fmt::v11::detail::digit_grouping<char> const&)
PUBLIC m 56e4c 0 fmt::v11::detail::write_padded<char, (fmt::v11::align::type)2, fmt::v11::basic_appender<char>, fmt::v11::detail::do_write_float<char, fmt::v11::basic_appender<char>, fmt::v11::detail::dragonbox::decimal_fp<double>, fmt::v11::detail::digit_grouping<char> >(fmt::v11::basic_appender<char>, fmt::v11::detail::dragonbox::decimal_fp<double> const&, fmt::v11::format_specs const&, fmt::v11::detail::float_specs, fmt::v11::detail::locale_ref)::{lambda(fmt::v11::basic_appender<char>&)#3}>(fmt::v11::basic_appender<char>, fmt::v11::format_specs const&, unsigned long, unsigned long, fmt::v11::detail::do_write_float<char, fmt::v11::basic_appender<char>, fmt::v11::detail::dragonbox::decimal_fp<double>, fmt::v11::detail::digit_grouping<char> >(fmt::v11::basic_appender<char>, fmt::v11::detail::dragonbox::decimal_fp<double> const&, fmt::v11::format_specs const&, fmt::v11::detail::float_specs, fmt::v11::detail::locale_ref)::{lambda(fmt::v11::basic_appender<char>&)#3})
PUBLIC m 56fdc 0 fmt::v11::detail::write_significand<fmt::v11::basic_appender<char>, char, unsigned long, fmt::v11::detail::digit_grouping<char> >(fmt::v11::basic_appender<char>, unsigned long, int, int, char, fmt::v11::detail::digit_grouping<char> const&)
PUBLIC m 57124 0 fmt::v11::detail::do_write_float<char, fmt::v11::basic_appender<char>, fmt::v11::detail::dragonbox::decimal_fp<double>, fmt::v11::detail::digit_grouping<char> >(fmt::v11::basic_appender<char>, fmt::v11::detail::dragonbox::decimal_fp<double> const&, fmt::v11::format_specs const&, fmt::v11::detail::float_specs, fmt::v11::detail::locale_ref)::{lambda(fmt::v11::basic_appender<char>(fmt::v11::basic_appender<char>))#4}::operator() const
PUBLIC m 5734c 0 fmt::v11::detail::write_float<char, fmt::v11::basic_appender<char>, long double>(fmt::v11::basic_appender<char>, long double, fmt::v11::format_specs, fmt::v11::detail::locale_ref)
PUBLIC m 57734 0 _ZN3fmt3v116detail15format_hexfloatIeTnNSt6__ndk19enable_ifIXntsr16is_double_doubleIT_EE5valueEiE4typeELi0EEEvS5_NS0_12format_specsERNS1_6bufferIcEE
PUBLIC m 57c9c 0 fmt::v11::detail::format_float<long double>(long double, int, fmt::v11::detail::float_specs, fmt::v11::detail::buffer<char>&)
PUBLIC m 57f60 0 fmt::v11::detail::write_padded<char, (fmt::v11::align::type)2, fmt::v11::basic_appender<char>, fmt::v11::detail::write_bytes<char, (fmt::v11::align::type)2, fmt::v11::basic_appender<char> >(fmt::v11::basic_appender<char>, fmt::v11::basic_string_view<char>, fmt::v11::format_specs const&)::{lambda(fmt::v11::basic_appender<char>&)#1}>(fmt::v11::basic_appender<char>, fmt::v11::format_specs const&, unsigned long, unsigned long, fmt::v11::detail::write_bytes<char, (fmt::v11::align::type)2, fmt::v11::basic_appender<char> >(fmt::v11::basic_appender<char>, fmt::v11::basic_string_view<char>, fmt::v11::format_specs const&)::{lambda(fmt::v11::basic_appender<char>&)#1})
PUBLIC m 58154 0 fmt::v11::detail::format_dragon(fmt::v11::detail::basic_fp<unsigned __int128>, unsigned int, int, fmt::v11::detail::buffer<char>&, int&)
PUBLIC m 59588 0 fmt::v11::detail::bigint::operator<<=(int)
PUBLIC m 596ac 0 fmt::v11::detail::bigint::assign_pow10(int)
PUBLIC m 59840 0 fmt::v11::detail::bigint::divmod_assign(fmt::v11::detail::bigint const&)
PUBLIC m 59b60 0 fmt::v11::basic_memory_buffer<unsigned int, (unsigned long)32, std::__ndk1::allocator<unsigned int> >::grow(fmt::v11::detail::buffer<unsigned int>&, unsigned long)
PUBLIC m 59c00 0 fmt::v11::detail::bigint::square()
PUBLIC m 5a1cc 0 fmt::v11::detail::do_write_float<char, fmt::v11::basic_appender<char>, fmt::v11::detail::big_decimal_fp, fmt::v11::detail::digit_grouping<char> >(fmt::v11::basic_appender<char>, fmt::v11::detail::big_decimal_fp const&, fmt::v11::format_specs const&, fmt::v11::detail::float_specs, fmt::v11::detail::locale_ref)
PUBLIC m 5a884 0 fmt::v11::detail::do_write_float<char, fmt::v11::basic_appender<char>, fmt::v11::detail::big_decimal_fp, fmt::v11::detail::digit_grouping<char> >(fmt::v11::basic_appender<char>, fmt::v11::detail::big_decimal_fp const&, fmt::v11::format_specs const&, fmt::v11::detail::float_specs, fmt::v11::detail::locale_ref)::{lambda(fmt::v11::basic_appender<char>(fmt::v11::basic_appender<char>))#1}::operator() const
PUBLIC m 5a9ec 0 fmt::v11::detail::do_write_float<char, fmt::v11::basic_appender<char>, fmt::v11::detail::big_decimal_fp, fmt::v11::detail::digit_grouping<char> >(fmt::v11::basic_appender<char>, fmt::v11::detail::big_decimal_fp const&, fmt::v11::format_specs const&, fmt::v11::detail::float_specs, fmt::v11::detail::locale_ref)::{lambda(fmt::v11::basic_appender<char>(fmt::v11::basic_appender<char>))#2}::operator() const
PUBLIC m 5ab20 0 fmt::v11::detail::write_significand<char, fmt::v11::basic_appender<char>, char const*, fmt::v11::detail::digit_grouping<char> >(fmt::v11::basic_appender<char>, char const*, int, int, fmt::v11::detail::digit_grouping<char> const&)
PUBLIC m 5af08 0 fmt::v11::detail::write_padded<char, (fmt::v11::align::type)2, fmt::v11::basic_appender<char>, fmt::v11::detail::do_write_float<char, fmt::v11::basic_appender<char>, fmt::v11::detail::big_decimal_fp, fmt::v11::detail::digit_grouping<char> >(fmt::v11::basic_appender<char>, fmt::v11::detail::big_decimal_fp const&, fmt::v11::format_specs const&, fmt::v11::detail::float_specs, fmt::v11::detail::locale_ref)::{lambda(fmt::v11::basic_appender<char>&)#3}>(fmt::v11::basic_appender<char>, fmt::v11::format_specs const&, unsigned long, unsigned long, fmt::v11::detail::do_write_float<char, fmt::v11::basic_appender<char>, fmt::v11::detail::big_decimal_fp, fmt::v11::detail::digit_grouping<char> >(fmt::v11::basic_appender<char>, fmt::v11::detail::big_decimal_fp const&, fmt::v11::format_specs const&, fmt::v11::detail::float_specs, fmt::v11::detail::locale_ref)::{lambda(fmt::v11::basic_appender<char>&)#3})
PUBLIC m 5b098 0 fmt::v11::detail::write_significand<fmt::v11::basic_appender<char>, char, char const*, fmt::v11::detail::digit_grouping<char> >(fmt::v11::basic_appender<char>, char const*, int, int, char, fmt::v11::detail::digit_grouping<char> const&)
PUBLIC m 5b2ac 0 fmt::v11::detail::do_write_float<char, fmt::v11::basic_appender<char>, fmt::v11::detail::big_decimal_fp, fmt::v11::detail::digit_grouping<char> >(fmt::v11::basic_appender<char>, fmt::v11::detail::big_decimal_fp const&, fmt::v11::format_specs const&, fmt::v11::detail::float_specs, fmt::v11::detail::locale_ref)::{lambda(fmt::v11::basic_appender<char>(fmt::v11::basic_appender<char>))#4}::operator() const
PUBLIC m 5b52c 0 fmt::v11::detail::write_padded<char, (fmt::v11::align::type)2, fmt::v11::basic_appender<char>, fmt::v11::detail::write_ptr<char, fmt::v11::basic_appender<char>, unsigned long>(fmt::v11::basic_appender<char>, unsigned long, fmt::v11::format_specs const*)::{lambda(fmt::v11::basic_appender<char>&)#1}>(fmt::v11::basic_appender<char>, fmt::v11::format_specs const&, unsigned long, unsigned long, fmt::v11::detail::write_ptr<char, fmt::v11::basic_appender<char>, unsigned long>(fmt::v11::basic_appender<char>, unsigned long, fmt::v11::format_specs const*)::{lambda(fmt::v11::basic_appender<char>&)#1})
PUBLIC m 5b74c 0 fmt::v11::detail::parse_replacement_field<char, fmt::v11::detail::vformat_to<char>(fmt::v11::detail::buffer<char>&, fmt::v11::basic_string_view<char>, fmt::v11::detail::vformat_args<char>::type, fmt::v11::detail::locale_ref)::format_handler&>(char const*, char const*, fmt::v11::detail::vformat_to<char>(fmt::v11::detail::buffer<char>&, fmt::v11::basic_string_view<char>, fmt::v11::detail::vformat_args<char>::type, fmt::v11::detail::locale_ref)::format_handler&)
PUBLIC m 5be10 0 fmt::v11::detail::vformat_to<char>(fmt::v11::detail::buffer<char>&, fmt::v11::basic_string_view<char>, fmt::v11::detail::vformat_args<char>::type, fmt::v11::detail::locale_ref)::format_handler::on_format_specs(int, char const*, char const*)
PUBLIC m 5c434 0 fmt::v11::detail::do_parse_arg_id<char, fmt::v11::detail::parse_replacement_field<char, fmt::v11::detail::vformat_to<char>(fmt::v11::detail::buffer<char>&, fmt::v11::basic_string_view<char>, fmt::v11::detail::vformat_args<char>::type, fmt::v11::detail::locale_ref)::format_handler&>(char const*, char const*, fmt::v11::detail::vformat_to<char>(fmt::v11::detail::buffer<char>&, fmt::v11::basic_string_view<char>, fmt::v11::detail::vformat_args<char>::type, fmt::v11::detail::locale_ref)::format_handler&)::id_adapter&>(char const*, char const*, fmt::v11::detail::parse_replacement_field<char, fmt::v11::detail::vformat_to<char>(fmt::v11::detail::buffer<char>&, fmt::v11::basic_string_view<char>, fmt::v11::detail::vformat_args<char>::type, fmt::v11::detail::locale_ref)::format_handler&>(char const*, char const*, fmt::v11::detail::vformat_to<char>(fmt::v11::detail::buffer<char>&, fmt::v11::basic_string_view<char>, fmt::v11::detail::vformat_args<char>::type, fmt::v11::detail::locale_ref)::format_handler&)::id_adapter&)
PUBLIC m 5c68c 0 fmt::v11::detail::parse_replacement_field<char, fmt::v11::detail::vformat_to<char>(fmt::v11::detail::buffer<char>&, fmt::v11::basic_string_view<char>, fmt::v11::detail::vformat_args<char>::type, fmt::v11::detail::locale_ref)::format_handler&>(char const*, char const*, fmt::v11::detail::vformat_to<char>(fmt::v11::detail::buffer<char>&, fmt::v11::basic_string_view<char>, fmt::v11::detail::vformat_args<char>::type, fmt::v11::detail::locale_ref)::format_handler&)::id_adapter::on_name(fmt::v11::basic_string_view<char>)
PUBLIC m 5c788 0 fmt::v11::detail::parse_format_specs<char>(char const*, char const*, fmt::v11::detail::dynamic_format_specs<char>&, fmt::v11::basic_format_parse_context<char>&, fmt::v11::detail::type)
PUBLIC m 5cc3c 0 fmt::v11::detail::parse_dynamic_spec<char>(char const*, char const*, int&, fmt::v11::detail::arg_ref<char>&, fmt::v11::basic_format_parse_context<char>&)
PUBLIC m 5cde0 0 fmt::v11::detail::do_parse_arg_id<char, fmt::v11::detail::dynamic_spec_id_handler<char>&>(char const*, char const*, fmt::v11::detail::dynamic_spec_id_handler<char>&)
PUBLIC m 5cf74 0 fmt::v11::detail::write_int_noinline<char, fmt::v11::basic_appender<char>, unsigned long>(fmt::v11::basic_appender<char>, fmt::v11::detail::write_int_arg<unsigned long>, fmt::v11::format_specs const&, fmt::v11::detail::locale_ref)
PUBLIC m 5d95c 0 fmt::v11::detail::write_int<char, fmt::v11::basic_appender<char>, fmt::v11::detail::write_int<char, fmt::v11::basic_appender<char>, unsigned long>(fmt::v11::basic_appender<char>, fmt::v11::detail::write_int_arg<unsigned long>, fmt::v11::format_specs const&, fmt::v11::detail::locale_ref)::{lambda(fmt::v11::basic_appender<char>)#1}>(fmt::v11::basic_appender<char>, int, unsigned int, fmt::v11::format_specs const&, fmt::v11::detail::write_int<char, fmt::v11::basic_appender<char>, unsigned long>(fmt::v11::basic_appender<char>, fmt::v11::detail::write_int_arg<unsigned long>, fmt::v11::format_specs const&, fmt::v11::detail::locale_ref)::{lambda(fmt::v11::basic_appender<char>)#1})::{lambda(fmt::v11::basic_appender<char>(fmt::v11::basic_appender<char>))#1}::operator() const
PUBLIC m 5daf8 0 fmt::v11::detail::write_int<char, fmt::v11::basic_appender<char>, fmt::v11::detail::write_int<char, fmt::v11::basic_appender<char>, unsigned long>(fmt::v11::basic_appender<char>, fmt::v11::detail::write_int_arg<unsigned long>, fmt::v11::format_specs const&, fmt::v11::detail::locale_ref)::{lambda(fmt::v11::basic_appender<char>)#2}>(fmt::v11::basic_appender<char>, int, unsigned int, fmt::v11::format_specs const&, fmt::v11::detail::write_int<char, fmt::v11::basic_appender<char>, unsigned long>(fmt::v11::basic_appender<char>, fmt::v11::detail::write_int_arg<unsigned long>, fmt::v11::format_specs const&, fmt::v11::detail::locale_ref)::{lambda(fmt::v11::basic_appender<char>)#2})::{lambda(fmt::v11::basic_appender<char>(fmt::v11::basic_appender<char>))#1}::operator() const
PUBLIC m 5dce0 0 fmt::v11::detail::write_int<char, fmt::v11::basic_appender<char>, fmt::v11::detail::write_int<char, fmt::v11::basic_appender<char>, unsigned long>(fmt::v11::basic_appender<char>, fmt::v11::detail::write_int_arg<unsigned long>, fmt::v11::format_specs const&, fmt::v11::detail::locale_ref)::{lambda(fmt::v11::basic_appender<char>)#3}>(fmt::v11::basic_appender<char>, int, unsigned int, fmt::v11::format_specs const&, fmt::v11::detail::write_int<char, fmt::v11::basic_appender<char>, unsigned long>(fmt::v11::basic_appender<char>, fmt::v11::detail::write_int_arg<unsigned long>, fmt::v11::format_specs const&, fmt::v11::detail::locale_ref)::{lambda(fmt::v11::basic_appender<char>)#3})::{lambda(fmt::v11::basic_appender<char>(fmt::v11::basic_appender<char>))#1}::operator() const
PUBLIC m 5de8c 0 fmt::v11::detail::write_int<char, fmt::v11::basic_appender<char>, fmt::v11::detail::write_int<char, fmt::v11::basic_appender<char>, unsigned long>(fmt::v11::basic_appender<char>, fmt::v11::detail::write_int_arg<unsigned long>, fmt::v11::format_specs const&, fmt::v11::detail::locale_ref)::{lambda(fmt::v11::basic_appender<char>)#4}>(fmt::v11::basic_appender<char>, int, unsigned int, fmt::v11::format_specs const&, fmt::v11::detail::write_int<char, fmt::v11::basic_appender<char>, unsigned long>(fmt::v11::basic_appender<char>, fmt::v11::detail::write_int_arg<unsigned long>, fmt::v11::format_specs const&, fmt::v11::detail::locale_ref)::{lambda(fmt::v11::basic_appender<char>)#4})::{lambda(fmt::v11::basic_appender<char>(fmt::v11::basic_appender<char>))#1}::operator() const
PUBLIC m 5e040 0 fmt::v11::detail::write_int_noinline<char, fmt::v11::basic_appender<char>, unsigned __int128>(fmt::v11::basic_appender<char>, fmt::v11::detail::write_int_arg<unsigned __int128>, fmt::v11::format_specs const&, fmt::v11::detail::locale_ref)
PUBLIC m 5eb40 0 fmt::v11::detail::write_int<char, fmt::v11::basic_appender<char>, fmt::v11::detail::write_int<char, fmt::v11::basic_appender<char>, unsigned __int128>(fmt::v11::basic_appender<char>, fmt::v11::detail::write_int_arg<unsigned __int128>, fmt::v11::format_specs const&, fmt::v11::detail::locale_ref)::{lambda(fmt::v11::basic_appender<char>)#1}>(fmt::v11::basic_appender<char>, int, unsigned int, fmt::v11::format_specs const&, fmt::v11::detail::write_int<char, fmt::v11::basic_appender<char>, unsigned __int128>(fmt::v11::basic_appender<char>, fmt::v11::detail::write_int_arg<unsigned __int128>, fmt::v11::format_specs const&, fmt::v11::detail::locale_ref)::{lambda(fmt::v11::basic_appender<char>)#1})::{lambda(fmt::v11::basic_appender<char>(fmt::v11::basic_appender<char>))#1}::operator() const
PUBLIC m 5ed14 0 fmt::v11::detail::write_int<char, fmt::v11::basic_appender<char>, fmt::v11::detail::write_int<char, fmt::v11::basic_appender<char>, unsigned __int128>(fmt::v11::basic_appender<char>, fmt::v11::detail::write_int_arg<unsigned __int128>, fmt::v11::format_specs const&, fmt::v11::detail::locale_ref)::{lambda(fmt::v11::basic_appender<char>)#2}>(fmt::v11::basic_appender<char>, int, unsigned int, fmt::v11::format_specs const&, fmt::v11::detail::write_int<char, fmt::v11::basic_appender<char>, unsigned __int128>(fmt::v11::basic_appender<char>, fmt::v11::detail::write_int_arg<unsigned __int128>, fmt::v11::format_specs const&, fmt::v11::detail::locale_ref)::{lambda(fmt::v11::basic_appender<char>)#2})::{lambda(fmt::v11::basic_appender<char>(fmt::v11::basic_appender<char>))#1}::operator() const
PUBLIC m 5ef14 0 fmt::v11::detail::write_int<char, fmt::v11::basic_appender<char>, fmt::v11::detail::write_int<char, fmt::v11::basic_appender<char>, unsigned __int128>(fmt::v11::basic_appender<char>, fmt::v11::detail::write_int_arg<unsigned __int128>, fmt::v11::format_specs const&, fmt::v11::detail::locale_ref)::{lambda(fmt::v11::basic_appender<char>)#3}>(fmt::v11::basic_appender<char>, int, unsigned int, fmt::v11::format_specs const&, fmt::v11::detail::write_int<char, fmt::v11::basic_appender<char>, unsigned __int128>(fmt::v11::basic_appender<char>, fmt::v11::detail::write_int_arg<unsigned __int128>, fmt::v11::format_specs const&, fmt::v11::detail::locale_ref)::{lambda(fmt::v11::basic_appender<char>)#3})::{lambda(fmt::v11::basic_appender<char>(fmt::v11::basic_appender<char>))#1}::operator() const
PUBLIC m 5f0e0 0 fmt::v11::detail::write_int<char, fmt::v11::basic_appender<char>, fmt::v11::detail::write_int<char, fmt::v11::basic_appender<char>, unsigned __int128>(fmt::v11::basic_appender<char>, fmt::v11::detail::write_int_arg<unsigned __int128>, fmt::v11::format_specs const&, fmt::v11::detail::locale_ref)::{lambda(fmt::v11::basic_appender<char>)#4}>(fmt::v11::basic_appender<char>, int, unsigned int, fmt::v11::format_specs const&, fmt::v11::detail::write_int<char, fmt::v11::basic_appender<char>, unsigned __int128>(fmt::v11::basic_appender<char>, fmt::v11::detail::write_int_arg<unsigned __int128>, fmt::v11::format_specs const&, fmt::v11::detail::locale_ref)::{lambda(fmt::v11::basic_appender<char>)#4})::{lambda(fmt::v11::basic_appender<char>(fmt::v11::basic_appender<char>))#1}::operator() const
PUBLIC m 5f2b8 0 fmt::v11::detail::write<char, fmt::v11::basic_appender<char> >(fmt::v11::basic_appender<char>, char, fmt::v11::format_specs const&, fmt::v11::detail::locale_ref)
PUBLIC m 5f3f0 0 fmt::v11::detail::write_float<char, fmt::v11::basic_appender<char>, float>(fmt::v11::basic_appender<char>, float, fmt::v11::format_specs, fmt::v11::detail::locale_ref)
PUBLIC m 5f788 0 _ZN3fmt3v116detail15format_hexfloatIdTnNSt6__ndk19enable_ifIXntsr16is_double_doubleIT_EE5valueEiE4typeELi0EEEvS5_NS0_12format_specsERNS1_6bufferIcEE
PUBLIC m 5fca8 0 fmt::v11::detail::format_float<double>(double, int, fmt::v11::detail::float_specs, fmt::v11::detail::buffer<char>&)
PUBLIC m 604a0 0 _ZN3fmt3v116detail5writeIcNS0_14basic_appenderIcEEmTnNSt6__ndk19enable_ifIXaaaasr11is_integralIT1_EE5valuentsr3std7is_sameIS7_bEE5valuentsr3std7is_sameIS7_T_EE5valueEiE4typeELi0EEET0_SB_S7_
PUBLIC m 606ac 0 fmt::v11::detail::write_float<char, fmt::v11::basic_appender<char>, double>(fmt::v11::basic_appender<char>, double, fmt::v11::format_specs, fmt::v11::detail::locale_ref)
PUBLIC m 60a38 0 fmt::v11::detail::for_each_codepoint<fmt::v11::detail::find_escape(char const*, char const*)::{lambda(unsigned int, fmt::v11::basic_string_view<char>)#1}>(fmt::v11::basic_string_view<char>, fmt::v11::detail::find_escape(char const*, char const*)::{lambda(unsigned int, fmt::v11::basic_string_view<char>)#1})::{lambda(char const*, char const*)#1}::operator()(char const*, char const*) const
PUBLIC m 60bb4 0 _ZN3fmt3v116detail10loc_writerIcEclIiTnNSt6__ndk19enable_ifIXsr10is_integerIT_EE5valueEiE4typeELi0EEEbS7_
PUBLIC m 60dcc 0 _ZN3fmt3v116detail10loc_writerIcEclIjTnNSt6__ndk19enable_ifIXsr10is_integerIT_EE5valueEiE4typeELi0EEEbS7_
PUBLIC m 60fc0 0 _ZN3fmt3v116detail10loc_writerIcEclIxTnNSt6__ndk19enable_ifIXsr10is_integerIT_EE5valueEiE4typeELi0EEEbS7_
PUBLIC m 611d8 0 _ZN3fmt3v116detail10loc_writerIcEclIyTnNSt6__ndk19enable_ifIXsr10is_integerIT_EE5valueEiE4typeELi0EEEbS7_
PUBLIC m 613cc 0 _ZN3fmt3v116detail10loc_writerIcEclInTnNSt6__ndk19enable_ifIXsr10is_integerIT_EE5valueEiE4typeELi0EEEbS7_
PUBLIC m 615f8 0 _ZN3fmt3v116detail10loc_writerIcEclIoTnNSt6__ndk19enable_ifIXsr10is_integerIT_EE5valueEiE4typeELi0EEEbS7_
PUBLIC m 617fc 0 fmt::v11::detail::write_int<fmt::v11::basic_appender<char>, unsigned long, char>(fmt::v11::basic_appender<char>, unsigned long, unsigned int, fmt::v11::format_specs const&, fmt::v11::detail::digit_grouping<char> const&)
PUBLIC m 61cf8 0 fmt::v11::detail::write_padded<char, (fmt::v11::align::type)2, fmt::v11::basic_appender<char>, fmt::v11::detail::write_int<fmt::v11::basic_appender<char>, unsigned long, char>(fmt::v11::basic_appender<char>, unsigned long, unsigned int, fmt::v11::format_specs const&, fmt::v11::detail::digit_grouping<char> const&)::{lambda(fmt::v11::basic_appender<char>)#1}>(fmt::v11::basic_appender<char>, fmt::v11::format_specs const&, unsigned long, unsigned long, fmt::v11::detail::write_int<fmt::v11::basic_appender<char>, unsigned long, char>(fmt::v11::basic_appender<char>, unsigned long, unsigned int, fmt::v11::format_specs const&, fmt::v11::detail::digit_grouping<char> const&)::{lambda(fmt::v11::basic_appender<char>&&)#1})
PUBLIC m 61e14 0 fmt::v11::detail::write_int<fmt::v11::basic_appender<char>, unsigned __int128, char>(fmt::v11::basic_appender<char>, unsigned __int128, unsigned int, fmt::v11::format_specs const&, fmt::v11::detail::digit_grouping<char> const&)
PUBLIC m 62440 0 fmt::v11::detail::write_padded<char, (fmt::v11::align::type)2, fmt::v11::basic_appender<char>, fmt::v11::detail::write_int<fmt::v11::basic_appender<char>, unsigned __int128, char>(fmt::v11::basic_appender<char>, unsigned __int128, unsigned int, fmt::v11::format_specs const&, fmt::v11::detail::digit_grouping<char> const&)::{lambda(fmt::v11::basic_appender<char>)#1}>(fmt::v11::basic_appender<char>, fmt::v11::format_specs const&, unsigned long, unsigned long, fmt::v11::detail::write_int<fmt::v11::basic_appender<char>, unsigned __int128, char>(fmt::v11::basic_appender<char>, unsigned __int128, unsigned int, fmt::v11::format_specs const&, fmt::v11::detail::digit_grouping<char> const&)::{lambda(fmt::v11::basic_appender<char>&&)#1})
PUBLIC 62560 0 <.plt ELF section in km7dev.betterquests.android64.so>
STACK CFI INIT 2cec0 10 .cfa: sp 0 +
STACK CFI INIT 2ced0 8 .cfa: sp 0 +
STACK CFI INIT 2ced8 8 .cfa: sp 0 +
STACK CFI INIT 2cee0 14 .cfa: sp 0 +
STACK CFI INIT 2cef4 1c .cfa: sp 0 +
STACK CFI INIT 2cf10 10 .cfa: sp 0 +
STACK CFI INIT 2cf20 134 .cfa: sp 0 +
STACK CFI INIT 2d054 84 .cfa: sp 0 +
STACK CFI INIT 2d0d8 f4 .cfa: sp 0 +
STACK CFI INIT 2d1cc a8 .cfa: sp 0 +
STACK CFI INIT 2d274 7c .cfa: sp 0 +
STACK CFI INIT 2d2f0 14 .cfa: sp 0 +
STACK CFI INIT 2d304 40 .cfa: sp 0 +
STACK CFI INIT 2d344 28 .cfa: sp 0 +
STACK CFI INIT 2d36c 190 .cfa: sp 0 +
STACK CFI INIT 2d4fc 2c8 .cfa: sp 0 +
STACK CFI INIT 2d7c4 8 .cfa: sp 0 +
STACK CFI INIT 2d7cc 8 .cfa: sp 0 +
STACK CFI INIT 2d7d4 44 .cfa: sp 0 +
STACK CFI INIT 2d818 e8 .cfa: sp 0 +
STACK CFI INIT 2d900 e8 .cfa: sp 0 +
STACK CFI INIT 2d9e8 14 .cfa: sp 0 +
STACK CFI INIT 2d9fc 10 .cfa: sp 0 +
STACK CFI INIT 2da0c 10 .cfa: sp 0 +
STACK CFI INIT 2da1c f0 .cfa: sp 0 +
STACK CFI INIT 2db0c 44 .cfa: sp 0 +
STACK CFI INIT 2db50 c .cfa: sp 0 +
STACK CFI INIT 2db5c c .cfa: sp 0 +
STACK CFI INIT 2db68 2c .cfa: sp 0 +
STACK CFI INIT 2db94 280 .cfa: sp 0 +
STACK CFI INIT 2de14 c .cfa: sp 0 +
STACK CFI INIT 2de20 120 .cfa: sp 0 +
STACK CFI INIT 2df40 488 .cfa: sp 0 +
STACK CFI INIT 2e3c8 c48 .cfa: sp 0 +
STACK CFI INIT 2f010 134 .cfa: sp 0 +
STACK CFI INIT 2f144 210 .cfa: sp 0 +
STACK CFI INIT 2f354 38c .cfa: sp 0 +
STACK CFI INIT 2f6e0 1c8 .cfa: sp 0 +
STACK CFI INIT 2f8a8 9bc .cfa: sp 0 +
STACK CFI INIT 30264 2d4 .cfa: sp 0 +
STACK CFI INIT 30538 134 .cfa: sp 0 +
STACK CFI INIT 3066c 120 .cfa: sp 0 +
STACK CFI INIT 3078c 1c8 .cfa: sp 0 +
STACK CFI INIT 30954 168 .cfa: sp 0 +
STACK CFI INIT 30abc fc .cfa: sp 0 +
STACK CFI INIT 30bb8 30 .cfa: sp 0 +
STACK CFI INIT 30d20 30 .cfa: sp 0 +
STACK CFI INIT 30d50 98 .cfa: sp 0 +
STACK CFI INIT 30de8 59c .cfa: sp 0 +
STACK CFI INIT 31384 8c .cfa: sp 0 +
STACK CFI INIT 31410 30 .cfa: sp 0 +
STACK CFI INIT 31530 40 .cfa: sp 0 +
STACK CFI 31548 .cfa: sp 32 +
STACK CFI 31550 .cfa: x29 32 + x19: .cfa -16 + ^ .ra: .cfa -24 + ^ x29: .cfa -32 + ^
STACK CFI 31564 .cfa: sp 32 +
STACK CFI 3156c .cfa: sp 0 +
STACK CFI INIT 319f0 1c .cfa: sp 0 +
STACK CFI INIT 31a0c 44 .cfa: sp 0 +
STACK CFI 31a10 .cfa: sp 32 +
STACK CFI 31a18 .cfa: x29 32 + x19: .cfa -16 + ^ .ra: .cfa -24 + ^ x29: .cfa -32 + ^
STACK CFI 31a44 .cfa: sp 32 +
STACK CFI 31a4c .cfa: sp 0 +
STACK CFI INIT 31a50 14 .cfa: sp 0 +
STACK CFI 31a54 .cfa: sp 16 +
STACK CFI 31a58 .cfa: x29 16 + .ra: .cfa -8 + ^ x29: .cfa -16 + ^
STACK CFI INIT 31ab4 30 .cfa: sp 0 +
STACK CFI 31ab8 .cfa: sp 32 +
STACK CFI 31ac0 .cfa: x29 32 + x19: .cfa -16 + ^ .ra: .cfa -24 + ^ x29: .cfa -32 + ^
STACK CFI 31ad8 .cfa: sp 32 +
STACK CFI 31ae0 .cfa: sp 0 +
STACK CFI INIT 31ae4 34 .cfa: sp 0 +
STACK CFI 31ae8 .cfa: sp 32 +
STACK CFI 31af0 .cfa: x29 32 + x19: .cfa -16 + ^ .ra: .cfa -24 + ^ x29: .cfa -32 + ^
STACK CFI INIT 31b18 10 .cfa: sp 0 +
STACK CFI 31b1c .cfa: sp 16 +
STACK CFI 31b20 .cfa: x29 16 + .ra: .cfa -8 + ^ x29: .cfa -16 + ^
STACK CFI INIT 31b28 80 .cfa: sp 0 +
STACK CFI 31b2c .cfa: sp 48 +
STACK CFI 31b38 .cfa: x29 48 + x19: .cfa -8 + ^ x20: .cfa -16 + ^ x21: .cfa -24 + ^ x22: .cfa -32 + ^ .ra: .cfa -40 + ^ x29: .cfa -48 + ^
STACK CFI 31b50 .cfa: sp 48 +
STACK CFI 31b5c .cfa: sp 0 +
STACK CFI 31b60 .cfa: x29 48 +
STACK CFI 31b90 .cfa: sp 48 +
STACK CFI 31b9c .cfa: sp 0 +
STACK CFI 31ba0 .cfa: x29 48 +
STACK CFI INIT 31ec4 50 .cfa: sp 0 +
STACK CFI 31ec8 .cfa: sp 32 +
STACK CFI 31ed0 .cfa: x29 32 + x19: .cfa -16 + ^ .ra: .cfa -24 + ^ x29: .cfa -32 + ^
STACK CFI 31ee8 .cfa: sp 32 +
STACK CFI 31ef0 .cfa: sp 0 +
STACK CFI 31ef4 .cfa: x29 32 +
STACK CFI 31f08 .cfa: sp 32 +
STACK CFI 31f10 .cfa: sp 0 +
STACK CFI INIT 31f88 7c .cfa: sp 0 +
STACK CFI 31f8c .cfa: sp 48 +
STACK CFI 31f98 .cfa: x29 48 + x19: .cfa -8 + ^ x20: .cfa -16 + ^ x21: .cfa -32 + ^ .ra: .cfa -40 + ^ x29: .cfa -48 + ^
STACK CFI 31fe4 .cfa: sp 48 +
STACK CFI 31ff0 .cfa: sp 0 +
STACK CFI 31ff4 .cfa: sp 48 +
STACK CFI 32000 .cfa: sp 0 +
STACK CFI INIT 32004 4 .cfa: sp 0 +
STACK CFI INIT 3215c 34 .cfa: sp 0 +
STACK CFI 32160 .cfa: sp 16 +
STACK CFI 32164 .cfa: x29 16 + .ra: .cfa -8 + ^ x29: .cfa -16 + ^
STACK CFI INIT 322bc 80 .cfa: sp 0 +
STACK CFI 322c0 .cfa: sp 48 +
STACK CFI 322cc .cfa: x29 48 + x19: .cfa -8 + ^ x20: .cfa -16 + ^ x21: .cfa -32 + ^ .ra: .cfa -40 + ^ x29: .cfa -48 + ^
STACK CFI 3232c .cfa: sp 48 +
STACK CFI 32338 .cfa: sp 0 +
STACK CFI INIT 3233c 24 .cfa: sp 0 +
STACK CFI 32340 .cfa: sp 32 +
STACK CFI 32348 .cfa: x29 32 + x19: .cfa -16 + ^ .ra: .cfa -24 + ^ x29: .cfa -32 + ^
STACK CFI 32354 .cfa: sp 32 +
STACK CFI 3235c .cfa: sp 0 +
STACK CFI INIT 32858 148 .cfa: sp 0 +
STACK CFI 3285c .cfa: sp 48 +
STACK CFI 32868 .cfa: x29 48 + x19: .cfa -8 + ^ x20: .cfa -16 + ^ x21: .cfa -32 + ^ .ra: .cfa -40 + ^ x29: .cfa -48 + ^
STACK CFI 32990 .cfa: sp 48 +
STACK CFI 3299c .cfa: sp 0 +
STACK CFI INIT 32bc8 68 .cfa: sp 0 +
STACK CFI 32bcc .cfa: sp 32 +
STACK CFI 32bd4 .cfa: x29 32 + x19: .cfa -8 + ^ x20: .cfa -16 + ^ .ra: .cfa -24 + ^ x29: .cfa -32 + ^
STACK CFI 32bec .cfa: sp 32 +
STACK CFI 32bf4 .cfa: sp 0 +
STACK CFI 32bf8 .cfa: x29 32 +
STACK CFI 32c24 .cfa: sp 32 +
STACK CFI 32c2c .cfa: sp 0 +
STACK CFI INIT 32c30 14 .cfa: sp 0 +
STACK CFI 32c34 .cfa: sp 16 +
STACK CFI 32c38 .cfa: x29 16 + .ra: .cfa -8 + ^ x29: .cfa -16 + ^
STACK CFI INIT 32c44 4 .cfa: sp 0 +
STACK CFI INIT 32c48 14 .cfa: sp 0 +
STACK CFI INIT 32c5c 120 .cfa: sp 0 +
STACK CFI 32c60 .cfa: sp 64 +
STACK CFI 32c70 .cfa: x29 64 + x19: .cfa -8 + ^ x20: .cfa -16 + ^ x21: .cfa -24 + ^ x22: .cfa -32 + ^ x23: .cfa -40 + ^ x24: .cfa -48 + ^ .ra: .cfa -56 + ^ x29: .cfa -64 + ^
STACK CFI 32d68 .cfa: sp 64 +
STACK CFI 32d78 .cfa: sp 0 +
STACK CFI INIT 32d7c d4 .cfa: sp 0 +
STACK CFI 32d80 .cfa: sp 48 +
STACK CFI 32d8c .cfa: x29 48 + x19: .cfa -8 + ^ x20: .cfa -16 + ^ x21: .cfa -32 + ^ .ra: .cfa -40 + ^ x29: .cfa -48 + ^
STACK CFI 32e1c .cfa: sp 48 +
STACK CFI 32e28 .cfa: sp 0 +
STACK CFI 32e2c .cfa: x29 48 +
STACK CFI INIT 32e50 3c8 .cfa: sp 0 +
STACK CFI INIT 33218 8c .cfa: sp 0 +
STACK CFI 33220 .cfa: sp 32 +
STACK CFI 33228 .cfa: x29 32 + x19: .cfa -8 + ^ x20: .cfa -16 + ^ .ra: .cfa -24 + ^ x29: .cfa -32 + ^
STACK CFI 33270 .cfa: sp 32 +
STACK CFI 33278 .cfa: sp 0 +
STACK CFI 33280 .cfa: x29 32 +
STACK CFI INIT 334c8 9c .cfa: sp 0 +
STACK CFI 334cc .cfa: sp 32 +
STACK CFI 334d4 .cfa: x29 32 + x19: .cfa -16 + ^ .ra: .cfa -24 + ^ x29: .cfa -32 + ^
STACK CFI 33558 .cfa: sp 32 +
STACK CFI 33560 .cfa: sp 0 +
STACK CFI INIT 33564 50 .cfa: sp 0 +
STACK CFI 33568 .cfa: sp 32 +
STACK CFI 33570 .cfa: x29 32 + x19: .cfa -16 + ^ .ra: .cfa -24 + ^ x29: .cfa -32 + ^
STACK CFI 33588 .cfa: sp 32 +
STACK CFI 33590 .cfa: sp 0 +
STACK CFI 33594 .cfa: x29 32 +
STACK CFI 335a8 .cfa: sp 32 +
STACK CFI 335b0 .cfa: sp 0 +
STACK CFI INIT 335b4 64 .cfa: sp 0 +
STACK CFI 335b8 .cfa: sp 32 +
STACK CFI 335c0 .cfa: x29 32 + x19: .cfa -16 + ^ .ra: .cfa -24 + ^ x29: .cfa -32 + ^
STACK CFI 335ec .cfa: sp 32 +
STACK CFI 335f4 .cfa: sp 0 +
STACK CFI 335f8 .cfa: x29 32 +
STACK CFI 3360c .cfa: sp 32 +
STACK CFI 33614 .cfa: sp 0 +
STACK CFI INIT 336f8 178 .cfa: sp 0 +
STACK CFI 336fc .cfa: sp 80 +
STACK CFI 33710 .cfa: x29 80 + x19: .cfa -8 + ^ x20: .cfa -16 + ^ x21: .cfa -24 + ^ x22: .cfa -32 + ^ x23: .cfa -40 + ^ x24: .cfa -48 + ^ x25: .cfa -56 + ^ x26: .cfa -64 + ^ .ra: .cfa -72 + ^ x29: .cfa -80 + ^
STACK CFI 33858 .cfa: sp 80 +
STACK CFI 3386c .cfa: sp 0 +
STACK CFI INIT 33870 1b0 .cfa: sp 0 +
STACK CFI INIT 3409c 1c .cfa: sp 0 +
STACK CFI INIT 34484 4 .cfa: sp 0 +
STACK CFI INIT 3467c 7c .cfa: sp 0 +
STACK CFI 34680 .cfa: sp 32 +
STACK CFI 34688 .cfa: x29 32 + x19: .cfa -8 + ^ x20: .cfa -16 + ^ .ra: .cfa -24 + ^ x29: .cfa -32 + ^
STACK CFI 346e0 .cfa: sp 32 +
STACK CFI 346e8 .cfa: sp 0 +
STACK CFI 346ec .cfa: sp 32 +
STACK CFI 346f4 .cfa: sp 0 +
STACK CFI INIT 34860 4 .cfa: sp 0 +
STACK CFI INIT 34864 14 .cfa: sp 0 +
STACK CFI INIT 34f10 14 .cfa: sp 0 +
STACK CFI 34f14 .cfa: sp 16 +
STACK CFI 34f18 .cfa: x29 16 + .ra: .cfa -8 + ^ x29: .cfa -16 + ^
STACK CFI INIT 350e0 84 .cfa: sp 0 +
STACK CFI 350e4 .cfa: sp 32 +
STACK CFI 350ec .cfa: x29 32 + x19: .cfa -16 + ^ .ra: .cfa -24 + ^ x29: .cfa -32 + ^
STACK CFI 35118 .cfa: sp 32 +
STACK CFI 35120 .cfa: sp 0 +
STACK CFI 35124 .cfa: x29 32 +
STACK CFI 35158 .cfa: sp 32 +
STACK CFI 35160 .cfa: sp 0 +
STACK CFI INIT 35260 30 .cfa: sp 0 +
STACK CFI 3526c .cfa: sp 32 +
STACK CFI 35274 .cfa: x29 32 + x19: .cfa -16 + ^ .ra: .cfa -24 + ^ x29: .cfa -32 + ^
STACK CFI 35280 .cfa: sp 32 +
STACK CFI 35288 .cfa: sp 0 +
STACK CFI INIT 35290 168 .cfa: sp 0 +
STACK CFI 35294 .cfa: sp 48 +
STACK CFI 352a0 .cfa: x29 48 + x19: .cfa -8 + ^ x20: .cfa -16 + ^ x21: .cfa -24 + ^ x22: .cfa -32 + ^ .ra: .cfa -40 + ^ x29: .cfa -48 + ^
STACK CFI 353dc .cfa: sp 48 +
STACK CFI 353e8 .cfa: sp 0 +
STACK CFI 353ec .cfa: x29 48 +
STACK CFI INIT 35b18 1c8 .cfa: sp 0 +
STACK CFI 35b1c .cfa: sp 144 +
STACK CFI 35b38 .cfa: x29 96 + x19: .cfa -8 + ^ x20: .cfa -16 + ^ x21: .cfa -24 + ^ x22: .cfa -32 + ^ x23: .cfa -40 + ^ x24: .cfa -48 + ^ x25: .cfa -56 + ^ x26: .cfa -64 + ^ x27: .cfa -80 + ^ .ra: .cfa -88 + ^ x29: .cfa -96 + ^
STACK CFI 35ca4 .cfa: sp 144 +
STACK CFI 35cc0 .cfa: sp 0 +
STACK CFI 35cc4 .cfa: x29 96 +
STACK CFI INIT 35d54 14 .cfa: sp 0 +
STACK CFI 35d58 .cfa: sp 16 +
STACK CFI 35d5c .cfa: x29 16 + .ra: .cfa -8 + ^ x29: .cfa -16 + ^
STACK CFI INIT 35d68 b4 .cfa: sp 0 +
STACK CFI 35d6c .cfa: sp 48 +
STACK CFI 35d78 .cfa: x29 48 + x19: .cfa -8 + ^ x20: .cfa -16 + ^ x21: .cfa -32 + ^ .ra: .cfa -40 + ^ x29: .cfa -48 + ^
STACK CFI 35e0c .cfa: sp 48 +
STACK CFI 35e18 .cfa: sp 0 +
STACK CFI INIT 3691c 4 .cfa: sp 0 +
STACK CFI INIT 36920 14 .cfa: sp 0 +
STACK CFI INIT 36934 4 .cfa: sp 0 +
STACK CFI INIT 36938 14 .cfa: sp 0 +
STACK CFI INIT 3694c 4 .cfa: sp 0 +
STACK CFI INIT 36950 14 .cfa: sp 0 +
STACK CFI INIT 36964 8 .cfa: sp 0 +
STACK CFI INIT 3696c 14 .cfa: sp 0 +
STACK CFI INIT 36980 14 .cfa: sp 0 +
STACK CFI INIT 36994 14 .cfa: sp 0 +
STACK CFI INIT 369a8 4 .cfa: sp 0 +
STACK CFI INIT 369ac 14 .cfa: sp 0 +
STACK CFI INIT 369c0 2a8 .cfa: sp 0 +
STACK CFI 369c4 .cfa: sp 144 +
STACK CFI 369e0 .cfa: x29 96 + x19: .cfa -8 + ^ x20: .cfa -16 + ^ x21: .cfa -24 + ^ x22: .cfa -32 + ^ x23: .cfa -40 + ^ x24: .cfa -48 + ^ x25: .cfa -56 + ^ x26: .cfa -64 + ^ x27: .cfa -72 + ^ x28: .cfa -80 + ^ .ra: .cfa -88 + ^ x29: .cfa -96 + ^
STACK CFI 36c18 .cfa: sp 144 +
STACK CFI 36c34 .cfa: sp 0 +
STACK CFI 36c38 .cfa: x29 96 +
STACK CFI INIT 36c68 84 .cfa: sp 0 +
STACK CFI 36c6c .cfa: sp 32 +
STACK CFI 36c74 .cfa: x29 32 + x19: .cfa -16 + ^ .ra: .cfa -24 + ^ x29: .cfa -32 + ^
STACK CFI 36ca0 .cfa: sp 32 +
STACK CFI 36ca8 .cfa: sp 0 +
STACK CFI 36cac .cfa: x29 32 +
STACK CFI 36ce0 .cfa: sp 32 +
STACK CFI 36ce8 .cfa: sp 0 +
STACK CFI INIT 36cec 14 .cfa: sp 0 +
STACK CFI INIT 36d00 4 .cfa: sp 0 +
STACK CFI INIT 36d04 14 .cfa: sp 0 +
STACK CFI INIT 36e58 44 .cfa: sp 0 +
STACK CFI 36e74 .cfa: sp 32 +
STACK CFI 36e7c .cfa: x29 32 + x19: .cfa -16 + ^ .ra: .cfa -24 + ^ x29: .cfa -32 + ^
STACK CFI 36e90 .cfa: sp 32 +
STACK CFI 36e98 .cfa: sp 0 +
STACK CFI INIT 36ed4 a0 .cfa: sp 0 +
STACK CFI 36ee0 .cfa: sp 32 +
STACK CFI 36ee8 .cfa: x29 32 + x19: .cfa -8 + ^ x20: .cfa -16 + ^ .ra: .cfa -24 + ^ x29: .cfa -32 + ^
STACK CFI 36f68 .cfa: sp 32 +
STACK CFI 36f70 .cfa: sp 0 +
STACK CFI INIT 36f74 ac .cfa: sp 0 +
STACK CFI 36f78 .cfa: sp 48 +
STACK CFI 36f84 .cfa: x29 48 + x19: .cfa -8 + ^ x20: .cfa -16 + ^ x21: .cfa -32 + ^ .ra: .cfa -40 + ^ x29: .cfa -48 + ^
STACK CFI 36f9c .cfa: sp 48 +
STACK CFI 36fa8 .cfa: sp 0 +
STACK CFI 36fac .cfa: x29 48 +
STACK CFI INIT 37020 38 .cfa: sp 0 +
STACK CFI 3702c .cfa: sp 32 +
STACK CFI 37034 .cfa: x29 32 + x19: .cfa -16 + ^ .ra: .cfa -24 + ^ x29: .cfa -32 + ^
STACK CFI 37048 .cfa: sp 32 +
STACK CFI 37050 .cfa: sp 0 +
STACK CFI INIT 37058 14 .cfa: sp 0 +
STACK CFI INIT 37234 e0 .cfa: sp 0 +
STACK CFI 37238 .cfa: sp 64 +
STACK CFI 37248 .cfa: x29 64 + x19: .cfa -8 + ^ x20: .cfa -16 + ^ x21: .cfa -24 + ^ x22: .cfa -32 + ^ x23: .cfa -40 + ^ x24: .cfa -48 + ^ .ra: .cfa -56 + ^ x29: .cfa -64 + ^
STACK CFI 372d8 .cfa: sp 64 +
STACK CFI 372e8 .cfa: sp 0 +
STACK CFI 372ec .cfa: x29 64 +
STACK CFI 372f8 .cfa: sp 64 +
STACK CFI 37308 .cfa: sp 0 +
STACK CFI 3730c .cfa: x29 64 +
STACK CFI INIT 37314 68 .cfa: sp 0 +
STACK CFI 37318 .cfa: sp 48 +
STACK CFI 37324 .cfa: x29 48 + x19: .cfa -8 + ^ x20: .cfa -16 + ^ x21: .cfa -32 + ^ .ra: .cfa -40 + ^ x29: .cfa -48 + ^
STACK CFI 3735c .cfa: sp 48 +
STACK CFI 37368 .cfa: sp 0 +
STACK CFI 3736c .cfa: sp 48 +
STACK CFI 37378 .cfa: sp 0 +
STACK CFI INIT 3737c 14 .cfa: sp 0 +
STACK CFI 37380 .cfa: sp 16 +
STACK CFI 37384 .cfa: x29 16 + .ra: .cfa -8 + ^ x29: .cfa -16 + ^
STACK CFI INIT 37390 54 .cfa: sp 0 +
STACK CFI 37394 .cfa: sp 32 +
STACK CFI 3739c .cfa: x29 32 + x19: .cfa -8 + ^ x20: .cfa -16 + ^ .ra: .cfa -24 + ^ x29: .cfa -32 + ^
STACK CFI 373cc .cfa: sp 32 +
STACK CFI 373d4 .cfa: sp 0 +
STACK CFI 373d8 .cfa: sp 32 +
STACK CFI 373e0 .cfa: sp 0 +
STACK CFI INIT 382c4 3c .cfa: sp 0 +
STACK CFI 382c8 .cfa: sp 32 +
STACK CFI 382d0 .cfa: x29 32 + x19: .cfa -16 + ^ .ra: .cfa -24 + ^ x29: .cfa -32 + ^
STACK CFI 382e4 .cfa: sp 32 +
STACK CFI 382ec .cfa: sp 0 +
STACK CFI 382f0 .cfa: x29 32 +
STACK CFI 382f4 .cfa: sp 32 +
STACK CFI 382fc .cfa: sp 0 +
STACK CFI INIT 384a4 11c .cfa: sp 0 +
STACK CFI 384a8 .cfa: sp 64 +
STACK CFI 384b8 .cfa: x29 64 + x19: .cfa -8 + ^ x20: .cfa -16 + ^ x21: .cfa -24 + ^ x22: .cfa -32 + ^ x23: .cfa -40 + ^ x24: .cfa -48 + ^ .ra: .cfa -56 + ^ x29: .cfa -64 + ^
STACK CFI 38590 .cfa: sp 64 +
STACK CFI 385a0 .cfa: sp 0 +
STACK CFI 385a4 .cfa: x29 64 +
STACK CFI INIT 38c3c 1c .cfa: sp 0 +
STACK CFI INIT 38fe0 4 .cfa: sp 0 +
STACK CFI INIT 396a0 27c .cfa: sp 0 +
STACK CFI INIT 3991c 9c .cfa: sp 0 +
STACK CFI 39920 .cfa: sp 48 +
STACK CFI 3992c .cfa: x29 48 + x19: .cfa -8 + ^ x20: .cfa -16 + ^ x21: .cfa -24 + ^ x22: .cfa -32 + ^ .ra: .cfa -40 + ^ x29: .cfa -48 + ^
STACK CFI 39960 .cfa: sp 48 +
STACK CFI 3996c .cfa: sp 0 +
STACK CFI 39970 .cfa: x29 48 +
STACK CFI 399a0 .cfa: sp 48 +
STACK CFI 399ac .cfa: sp 0 +
STACK CFI 399b0 .cfa: x29 48 +
STACK CFI INIT 39e38 1c .cfa: sp 0 +
STACK CFI INIT 3a4d0 1c .cfa: sp 0 +
STACK CFI INIT 3a874 4 .cfa: sp 0 +
STACK CFI INIT 3a878 50 .cfa: sp 0 +
STACK CFI 3a87c .cfa: sp 32 +
STACK CFI 3a884 .cfa: x29 32 + x19: .cfa -8 + ^ x20: .cfa -16 + ^ .ra: .cfa -24 + ^ x29: .cfa -32 + ^
STACK CFI 3a8bc .cfa: sp 32 +
STACK CFI 3a8c4 .cfa: sp 0 +
STACK CFI INIT 3ae14 4 .cfa: sp 0 +
STACK CFI INIT 3ae18 14 .cfa: sp 0 +
STACK CFI 3ae1c .cfa: sp 16 +
STACK CFI 3ae20 .cfa: x29 16 + .ra: .cfa -8 + ^ x29: .cfa -16 + ^
STACK CFI INIT 3b054 14 .cfa: sp 0 +
STACK CFI 3b058 .cfa: sp 16 +
STACK CFI 3b05c .cfa: x29 16 + .ra: .cfa -8 + ^ x29: .cfa -16 + ^
STACK CFI INIT 3b068 c .cfa: sp 0 +
STACK CFI 3b06c .cfa: sp 16 +
STACK CFI 3b070 .cfa: x29 16 + .ra: .cfa -8 + ^ x29: .cfa -16 + ^
STACK CFI INIT 3b0c4 30 .cfa: sp 0 +
STACK CFI 3b0c8 .cfa: sp 32 +
STACK CFI 3b0d0 .cfa: x29 32 + x19: .cfa -16 + ^ .ra: .cfa -24 + ^ x29: .cfa -32 + ^
STACK CFI 3b0e8 .cfa: sp 32 +
STACK CFI 3b0f0 .cfa: sp 0 +
STACK CFI INIT 3b0f4 c .cfa: sp 0 +
STACK CFI 3b0f8 .cfa: sp 16 +
STACK CFI 3b0fc .cfa: x29 16 + .ra: .cfa -8 + ^ x29: .cfa -16 + ^
STACK CFI INIT 3b100 4 .cfa: sp 0 +
STACK CFI INIT 3b104 4 .cfa: sp 0 +
STACK CFI INIT 3b108 38 .cfa: sp 0 +
STACK CFI 3b10c .cfa: sp 32 +
STACK CFI 3b114 .cfa: x29 32 + x19: .cfa -16 + ^ .ra: .cfa -24 + ^ x29: .cfa -32 + ^
STACK CFI 3b134 .cfa: sp 32 +
STACK CFI 3b13c .cfa: sp 0 +
STACK CFI INIT 3b140 18 .cfa: sp 0 +
STACK CFI INIT 3b158 4 .cfa: sp 0 +
STACK CFI INIT 3b15c 4 .cfa: sp 0 +
STACK CFI INIT 3b160 10 .cfa: sp 0 +
STACK CFI INIT 3b170 1c .cfa: sp 0 +
STACK CFI INIT 3b18c c .cfa: sp 0 +
STACK CFI INIT 3b4d0 4 .cfa: sp 0 +
STACK CFI INIT 3d4fc 40 .cfa: sp 0 +
STACK CFI 3d514 .cfa: sp 32 +
STACK CFI 3d51c .cfa: x29 32 + x19: .cfa -16 + ^ .ra: .cfa -24 + ^ x29: .cfa -32 + ^
STACK CFI 3d530 .cfa: sp 32 +
STACK CFI 3d538 .cfa: sp 0 +
STACK CFI INIT 3d53c 44 .cfa: sp 0 +
STACK CFI 3d540 .cfa: sp 32 +
STACK CFI 3d548 .cfa: x29 32 + x19: .cfa -16 + ^ .ra: .cfa -24 + ^ x29: .cfa -32 + ^
STACK CFI 3d574 .cfa: sp 32 +
STACK CFI 3d57c .cfa: sp 0 +
STACK CFI INIT 3d580 78 .cfa: sp 0 +
STACK CFI 3d584 .cfa: sp 48 +
STACK CFI 3d590 .cfa: x29 48 + x19: .cfa -8 + ^ x20: .cfa -16 + ^ x21: .cfa -24 + ^ x22: .cfa -32 + ^ .ra: .cfa -40 + ^ x29: .cfa -48 + ^
STACK CFI 3d5d8 .cfa: sp 48 +
STACK CFI 3d5e4 .cfa: sp 0 +
STACK CFI 3d5e8 .cfa: sp 48 +
STACK CFI 3d5f4 .cfa: sp 0 +
STACK CFI INIT 3d5f8 344 .cfa: sp 0 +
STACK CFI 3d5fc .cfa: sp 256 +
STACK CFI 3d618 .cfa: x29 96 + x19: .cfa -8 + ^ x20: .cfa -16 + ^ x21: .cfa -24 + ^ x22: .cfa -32 + ^ x23: .cfa -40 + ^ x24: .cfa -48 + ^ x25: .cfa -56 + ^ x26: .cfa -64 + ^ x27: .cfa -72 + ^ x28: .cfa -80 + ^ .ra: .cfa -88 + ^ x29: .cfa -96 + ^
STACK CFI 3d918 .cfa: sp 256 +
STACK CFI 3d934 .cfa: sp 0 +
STACK CFI 3d938 .cfa: x29 96 +
STACK CFI INIT 3d93c 114 .cfa: sp 0 +
STACK CFI 3d940 .cfa: sp 128 +
STACK CFI 3d950 .cfa: x29 48 + x19: .cfa -8 + ^ x20: .cfa -16 + ^ x21: .cfa -32 + ^ .ra: .cfa -40 + ^ x29: .cfa -48 + ^
STACK CFI 3da1c .cfa: sp 128 +
STACK CFI 3da2c .cfa: sp 0 +
STACK CFI 3da30 .cfa: x29 48 +
STACK CFI INIT 3da50 114 .cfa: sp 0 +
STACK CFI 3da54 .cfa: sp 128 +
STACK CFI 3da64 .cfa: x29 48 + x19: .cfa -8 + ^ x20: .cfa -16 + ^ x21: .cfa -32 + ^ .ra: .cfa -40 + ^ x29: .cfa -48 + ^
STACK CFI 3db30 .cfa: sp 128 +
STACK CFI 3db40 .cfa: sp 0 +
STACK CFI 3db44 .cfa: x29 48 +
STACK CFI INIT 3db64 27c .cfa: sp 0 +
STACK CFI 3db68 .cfa: sp 176 +
STACK CFI 3db84 .cfa: x29 96 + x19: .cfa -8 + ^ x20: .cfa -16 + ^ x21: .cfa -24 + ^ x22: .cfa -32 + ^ x23: .cfa -40 + ^ x24: .cfa -48 + ^ x25: .cfa -56 + ^ x26: .cfa -64 + ^ x27: .cfa -72 + ^ x28: .cfa -80 + ^ .ra: .cfa -88 + ^ x29: .cfa -96 + ^
STACK CFI 3ddbc .cfa: sp 176 +
STACK CFI 3ddd8 .cfa: sp 0 +
STACK CFI 3dddc .cfa: x29 96 +
STACK CFI INIT 3dde0 520 .cfa: sp 0 +
STACK CFI 3dde4 .cfa: sp 176 +
STACK CFI 3de00 .cfa: x29 96 + x19: .cfa -8 + ^ x20: .cfa -16 + ^ x21: .cfa -24 + ^ x22: .cfa -32 + ^ x23: .cfa -40 + ^ x24: .cfa -48 + ^ x25: .cfa -56 + ^ x26: .cfa -64 + ^ x27: .cfa -72 + ^ x28: .cfa -80 + ^ .ra: .cfa -88 + ^ x29: .cfa -96 + ^
STACK CFI 3e2dc .cfa: sp 176 +
STACK CFI 3e2f8 .cfa: sp 0 +
STACK CFI 3e2fc .cfa: x29 96 +
STACK CFI INIT 3e300 20c .cfa: sp 0 +
STACK CFI 3e304 .cfa: sp 80 +
STACK CFI 3e318 .cfa: x29 80 + x19: .cfa -8 + ^ x20: .cfa -16 + ^ x21: .cfa -24 + ^ x22: .cfa -32 + ^ x23: .cfa -40 + ^ x24: .cfa -48 + ^ x25: .cfa -64 + ^ .ra: .cfa -72 + ^ x29: .cfa -80 + ^
STACK CFI 3e3a8 .cfa: sp 80 +
STACK CFI 3e3bc .cfa: sp 0 +
STACK CFI 3e3c0 .cfa: x29 80 +
STACK CFI 3e3cc .cfa: sp 80 +
STACK CFI 3e3e0 .cfa: sp 0 +
STACK CFI 3e3e4 .cfa: x29 80 +
STACK CFI INIT 3e50c 428 .cfa: sp 0 +
STACK CFI 3e510 .cfa: sp 128 +
STACK CFI 3e52c .cfa: x29 96 + x19: .cfa -8 + ^ x20: .cfa -16 + ^ x21: .cfa -24 + ^ x22: .cfa -32 + ^ x23: .cfa -40 + ^ x24: .cfa -48 + ^ x25: .cfa -56 + ^ x26: .cfa -64 + ^ x27: .cfa -72 + ^ x28: .cfa -80 + ^ .ra: .cfa -88 + ^ x29: .cfa -96 + ^
STACK CFI 3e910 .cfa: sp 128 +
STACK CFI 3e92c .cfa: sp 0 +
STACK CFI 3e930 .cfa: x29 96 +
STACK CFI INIT 3e934 194 .cfa: sp 0 +
STACK CFI 3e938 .cfa: sp 32 +
STACK CFI 3e940 .cfa: x29 16 + .ra: .cfa -8 + ^ x29: .cfa -16 + ^
STACK CFI 3e984 .cfa: sp 32 +
STACK CFI 3e98c .cfa: sp 0 +
STACK CFI 3e990 .cfa: x29 16 +
STACK CFI INIT 3eac8 1b8 .cfa: sp 0 +
STACK CFI INIT 3ec80 1d0 .cfa: sp 0 +
STACK CFI 3ec84 .cfa: sp 80 +
STACK CFI 3ec98 .cfa: x29 80 + x19: .cfa -8 + ^ x20: .cfa -16 + ^ x21: .cfa -24 + ^ x22: .cfa -32 + ^ x23: .cfa -40 + ^ x24: .cfa -48 + ^ x25: .cfa -64 + ^ .ra: .cfa -72 + ^ x29: .cfa -80 + ^
STACK CFI 3ee38 .cfa: sp 80 +
STACK CFI 3ee4c .cfa: sp 0 +
STACK CFI INIT 3ee50 67c .cfa: sp 0 +
STACK CFI 3ee54 .cfa: sp 176 +
STACK CFI 3ee70 .cfa: x29 96 + x19: .cfa -8 + ^ x20: .cfa -16 + ^ x21: .cfa -24 + ^ x22: .cfa -32 + ^ x23: .cfa -40 + ^ x24: .cfa -48 + ^ x25: .cfa -56 + ^ x26: .cfa -64 + ^ x27: .cfa -72 + ^ x28: .cfa -80 + ^ .ra: .cfa -88 + ^ x29: .cfa -96 + ^
STACK CFI 3f4a8 .cfa: sp 176 +
STACK CFI 3f4c4 .cfa: sp 0 +
STACK CFI 3f4c8 .cfa: x29 96 +
STACK CFI INIT 3f4cc 1e4 .cfa: sp 0 +
STACK CFI 3f4d0 .cfa: sp 32 +
STACK CFI 3f4d8 .cfa: x29 32 + x19: .cfa -8 + ^ x20: .cfa -16 + ^ .ra: .cfa -24 + ^ x29: .cfa -32 + ^
STACK CFI 3f5c8 .cfa: sp 32 +
STACK CFI 3f5d0 .cfa: sp 0 +
STACK CFI 3f5d4 .cfa: x29 32 +
STACK CFI 3f648 .cfa: sp 32 +
STACK CFI 3f650 .cfa: sp 0 +
STACK CFI 3f654 .cfa: x29 32 +
STACK CFI 3f664 .cfa: sp 32 +
STACK CFI 3f66c .cfa: sp 0 +
STACK CFI 3f670 .cfa: x29 32 +
STACK CFI 3f680 .cfa: sp 32 +
STACK CFI 3f688 .cfa: sp 0 +
STACK CFI 3f68c .cfa: x29 32 +
STACK CFI INIT 3f6b0 178 .cfa: sp 0 +
STACK CFI 3f6b4 .cfa: sp 80 +
STACK CFI 3f6c8 .cfa: x29 64 + x19: .cfa -8 + ^ x20: .cfa -16 + ^ x21: .cfa -24 + ^ x22: .cfa -32 + ^ x23: .cfa -40 + ^ x24: .cfa -48 + ^ .ra: .cfa -56 + ^ x29: .cfa -64 + ^
STACK CFI 3f80c .cfa: sp 80 +
STACK CFI 3f820 .cfa: sp 0 +
STACK CFI 3f824 .cfa: x29 64 +
STACK CFI INIT 3f828 178 .cfa: sp 0 +
STACK CFI 3f82c .cfa: sp 80 +
STACK CFI 3f840 .cfa: x29 64 + x19: .cfa -8 + ^ x20: .cfa -16 + ^ x21: .cfa -24 + ^ x22: .cfa -32 + ^ x23: .cfa -40 + ^ x24: .cfa -48 + ^ .ra: .cfa -56 + ^ x29: .cfa -64 + ^
STACK CFI 3f984 .cfa: sp 80 +
STACK CFI 3f998 .cfa: sp 0 +
STACK CFI 3f99c .cfa: x29 64 +
STACK CFI INIT 3f9a0 178 .cfa: sp 0 +
STACK CFI 3f9a4 .cfa: sp 80 +
STACK CFI 3f9b8 .cfa: x29 64 + x19: .cfa -8 + ^ x20: .cfa -16 + ^ x21: .cfa -24 + ^ x22: .cfa -32 + ^ x23: .cfa -40 + ^ x24: .cfa -48 + ^ .ra: .cfa -56 + ^ x29: .cfa -64 + ^
STACK CFI 3fafc .cfa: sp 80 +
STACK CFI 3fb10 .cfa: sp 0 +
STACK CFI 3fb14 .cfa: x29 64 +
STACK CFI INIT 3fb18 94 .cfa: sp 0 +
STACK CFI 3fb1c .cfa: sp 16 +
STACK CFI 3fb20 .cfa: x29 16 + .ra: .cfa -8 + ^ x29: .cfa -16 + ^
STACK CFI 3fb74 .cfa: sp 16 +
STACK CFI 3fb78 .cfa: sp 0 +
STACK CFI 3fb7c .cfa: x29 16 +
STACK CFI INIT 3fbac 158 .cfa: sp 0 +
STACK CFI 3fbb0 .cfa: sp 112 +
STACK CFI 3fbcc .cfa: x29 96 + x19: .cfa -8 + ^ x20: .cfa -16 + ^ x21: .cfa -24 + ^ x22: .cfa -32 + ^ x23: .cfa -40 + ^ x24: .cfa -48 + ^ x25: .cfa -56 + ^ x26: .cfa -64 + ^ x27: .cfa -72 + ^ x28: .cfa -80 + ^ .ra: .cfa -88 + ^ x29: .cfa -96 + ^
STACK CFI 3fcb4 .cfa: sp 112 +
STACK CFI 3fcb8 .cfa: x29 96 +
STACK CFI 3fcc0 .cfa: sp 112 +
STACK CFI 3fcdc .cfa: sp 0 +
STACK CFI 3fce0 .cfa: x29 96 +
STACK CFI 3fd00 .cfa: sp 112 +
STACK CFI INIT 3fd04 94 .cfa: sp 0 +
STACK CFI 3fd08 .cfa: sp 16 +
STACK CFI 3fd0c .cfa: x29 16 + .ra: .cfa -8 + ^ x29: .cfa -16 + ^
STACK CFI 3fd60 .cfa: sp 16 +
STACK CFI 3fd64 .cfa: sp 0 +
STACK CFI 3fd68 .cfa: x29 16 +
STACK CFI INIT 40d28 98 .cfa: sp 0 +
STACK CFI 40d2c .cfa: sp 304 +
STACK CFI 40d38 .cfa: x29 32 + x19: .cfa -8 + ^ x28: .cfa -16 + ^ .ra: .cfa -24 + ^ x29: .cfa -32 + ^
STACK CFI 40dac .cfa: sp 304 +
STACK CFI 40db8 .cfa: sp 0 +
STACK CFI 40dbc .cfa: x29 32 +
STACK CFI INIT 40dc0 ac .cfa: sp 0 +
STACK CFI 40dc4 .cfa: sp 64 +
STACK CFI 40dd4 .cfa: x29 64 + x19: .cfa -8 + ^ x20: .cfa -16 + ^ x21: .cfa -24 + ^ x22: .cfa -32 + ^ x23: .cfa -48 + ^ .ra: .cfa -56 + ^ x29: .cfa -64 + ^
STACK CFI 40e50 .cfa: sp 64 +
STACK CFI 40e60 .cfa: sp 0 +
STACK CFI 40e64 .cfa: x29 64 +
STACK CFI INIT 40e6c 110 .cfa: sp 0 +
STACK CFI 40e70 .cfa: sp 64 +
STACK CFI 40e80 .cfa: x29 64 + x19: .cfa -8 + ^ x20: .cfa -16 + ^ x21: .cfa -24 + ^ x22: .cfa -32 + ^ x23: .cfa -40 + ^ x24: .cfa -48 + ^ .ra: .cfa -56 + ^ x29: .cfa -64 + ^
STACK CFI 40f60 .cfa: sp 64 +
STACK CFI 40f70 .cfa: sp 0 +
STACK CFI 40f74 .cfa: x29 64 +
STACK CFI INIT 40f7c 8 .cfa: sp 0 +
STACK CFI INIT 40f84 9c .cfa: sp 0 +
STACK CFI 40f88 .cfa: sp 32 +
STACK CFI 40f90 .cfa: x29 32 + x19: .cfa -16 + ^ .ra: .cfa -24 + ^ x29: .cfa -32 + ^
STACK CFI 40fcc .cfa: sp 32 +
STACK CFI 40fd4 .cfa: sp 0 +
STACK CFI 40fd8 .cfa: x29 32 +
STACK CFI 41014 .cfa: sp 32 +
STACK CFI 4101c .cfa: sp 0 +
STACK CFI INIT 41020 ac .cfa: sp 0 +
STACK CFI 41024 .cfa: sp 32 +
STACK CFI 4102c .cfa: x29 32 + x19: .cfa -16 + ^ .ra: .cfa -24 + ^ x29: .cfa -32 + ^
STACK CFI 41070 .cfa: sp 32 +
STACK CFI 41078 .cfa: sp 0 +
STACK CFI 4107c .cfa: x29 32 +
STACK CFI 410c0 .cfa: sp 32 +
STACK CFI 410c8 .cfa: sp 0 +
STACK CFI INIT 42594 104 .cfa: sp 0 +
STACK CFI 42598 .cfa: sp 96 +
STACK CFI 425ac .cfa: x29 48 + x19: .cfa -8 + ^ x20: .cfa -16 + ^ x21: .cfa -24 + ^ x22: .cfa -32 + ^ .ra: .cfa -40 + ^ x29: .cfa -48 + ^ v8: .cfa -64 + ^
STACK CFI 4267c .cfa: sp 96 +
STACK CFI 42690 .cfa: sp 0 +
STACK CFI 42694 .cfa: x29 48 +
STACK CFI INIT 4270c 9c .cfa: sp 0 +
STACK CFI 42710 .cfa: sp 32 +
STACK CFI 42718 .cfa: x29 32 + x19: .cfa -16 + ^ .ra: .cfa -24 + ^ x29: .cfa -32 + ^
STACK CFI 42754 .cfa: sp 32 +
STACK CFI 4275c .cfa: sp 0 +
STACK CFI 42760 .cfa: x29 32 +
STACK CFI 4279c .cfa: sp 32 +
STACK CFI 427a4 .cfa: sp 0 +
STACK CFI INIT 427a8 ac .cfa: sp 0 +
STACK CFI 427ac .cfa: sp 32 +
STACK CFI 427b4 .cfa: x29 32 + x19: .cfa -16 + ^ .ra: .cfa -24 + ^ x29: .cfa -32 + ^
STACK CFI 427f8 .cfa: sp 32 +
STACK CFI 42800 .cfa: sp 0 +
STACK CFI 42804 .cfa: x29 32 +
STACK CFI 42848 .cfa: sp 32 +
STACK CFI 42850 .cfa: sp 0 +
STACK CFI INIT 42adc 14 .cfa: sp 0 +
STACK CFI 42ae0 .cfa: sp 16 +
STACK CFI 42ae4 .cfa: x29 16 + .ra: .cfa -8 + ^ x29: .cfa -16 + ^
STACK CFI INIT 43320 14 .cfa: sp 0 +
STACK CFI INIT 43334 14 .cfa: sp 0 +
STACK CFI INIT 44260 18c .cfa: sp 0 +
STACK CFI 44270 .cfa: sp 80 +
STACK CFI 44284 .cfa: x29 80 + x19: .cfa -8 + ^ x20: .cfa -16 + ^ x21: .cfa -24 + ^ x22: .cfa -32 + ^ x23: .cfa -40 + ^ x24: .cfa -48 + ^ x25: .cfa -56 + ^ x26: .cfa -64 + ^ .ra: .cfa -72 + ^ x29: .cfa -80 + ^
STACK CFI 443d4 .cfa: sp 80 +
STACK CFI 443e8 .cfa: sp 0 +
STACK CFI INIT 443ec 1b0 .cfa: sp 0 +
STACK CFI 443fc .cfa: sp 80 +
STACK CFI 44410 .cfa: x29 80 + x19: .cfa -8 + ^ x20: .cfa -16 + ^ x21: .cfa -24 + ^ x22: .cfa -32 + ^ x23: .cfa -40 + ^ x24: .cfa -48 + ^ x25: .cfa -64 + ^ .ra: .cfa -72 + ^ x29: .cfa -80 + ^
STACK CFI 44584 .cfa: sp 80 +
STACK CFI 44598 .cfa: sp 0 +
STACK CFI INIT 459bc 50 .cfa: sp 0 +
STACK CFI 459c0 .cfa: sp 32 +
STACK CFI 459c8 .cfa: x29 32 + x19: .cfa -16 + ^ .ra: .cfa -24 + ^ x29: .cfa -32 + ^
STACK CFI 459e0 .cfa: sp 32 +
STACK CFI 459e8 .cfa: sp 0 +
STACK CFI 459ec .cfa: x29 32 +
STACK CFI 45a00 .cfa: sp 32 +
STACK CFI 45a08 .cfa: sp 0 +
STACK CFI INIT 45e08 24 .cfa: sp 0 +
STACK CFI 45e0c .cfa: sp 32 +
STACK CFI 45e14 .cfa: x29 32 + x19: .cfa -16 + ^ .ra: .cfa -24 + ^ x29: .cfa -32 + ^
STACK CFI 45e20 .cfa: sp 32 +
STACK CFI 45e28 .cfa: sp 0 +
STACK CFI INIT 45e2c 2c .cfa: sp 0 +
STACK CFI 45e30 .cfa: sp 32 +
STACK CFI 45e38 .cfa: x29 32 + x19: .cfa -16 + ^ .ra: .cfa -24 + ^ x29: .cfa -32 + ^
STACK CFI 45e4c .cfa: sp 32 +
STACK CFI 45e54 .cfa: sp 0 +
STACK CFI INIT 45e58 28 .cfa: sp 0 +
STACK CFI INIT 45e80 4 .cfa: sp 0 +
STACK CFI INIT 45e84 8 .cfa: sp 0 +
STACK CFI INIT 45fd4 8 .cfa: sp 0 +
STACK CFI INIT 45fdc 28 .cfa: sp 0 +
STACK CFI 45fe0 .cfa: sp 32 +
STACK CFI 45fe8 .cfa: x29 32 + x19: .cfa -16 + ^ .ra: .cfa -24 + ^ x29: .cfa -32 + ^
STACK CFI 45ff8 .cfa: sp 32 +
STACK CFI 46000 .cfa: sp 0 +
STACK CFI INIT 46004 2c .cfa: sp 0 +
STACK CFI INIT 46030 4 .cfa: sp 0 +
STACK CFI INIT 46034 4 .cfa: sp 0 +
STACK CFI INIT 46038 4 .cfa: sp 0 +
STACK CFI INIT 4603c 4 .cfa: sp 0 +
STACK CFI INIT 46040 4 .cfa: sp 0 +
STACK CFI INIT 46044 8 .cfa: sp 0 +
STACK CFI INIT 460b8 4 .cfa: sp 0 +
STACK CFI INIT 46128 4 .cfa: sp 0 +
STACK CFI INIT 4612c 8c .cfa: sp 0 +
STACK CFI 46130 .cfa: sp 48 +
STACK CFI 4613c .cfa: x29 48 + x19: .cfa -8 + ^ x20: .cfa -16 + ^ x21: .cfa -24 + ^ x22: .cfa -32 + ^ .ra: .cfa -40 + ^ x29: .cfa -48 + ^
STACK CFI 46144 .cfa: sp 48 +
STACK CFI 46150 .cfa: sp 0 +
STACK CFI 46154 .cfa: x29 48 +
STACK CFI 461a8 .cfa: sp 48 +
STACK CFI 461b4 .cfa: sp 0 +
STACK CFI INIT 461b8 104 .cfa: sp 0 +
STACK CFI 461bc .cfa: sp 64 +
STACK CFI 461cc .cfa: x29 64 + x19: .cfa -8 + ^ x20: .cfa -16 + ^ x21: .cfa -24 + ^ x22: .cfa -32 + ^ x23: .cfa -48 + ^ .ra: .cfa -56 + ^ x29: .cfa -64 + ^
STACK CFI 46228 .cfa: sp 64 +
STACK CFI 46238 .cfa: sp 0 +
STACK CFI 4623c .cfa: x29 64 +
STACK CFI 46258 .cfa: sp 64 +
STACK CFI 46268 .cfa: sp 0 +
STACK CFI 4626c .cfa: x29 64 +
STACK CFI 462a8 .cfa: sp 64 +
STACK CFI 462b8 .cfa: sp 0 +
STACK CFI INIT 46454 4 .cfa: sp 0 +
STACK CFI INIT 46458 38 .cfa: sp 0 +
STACK CFI 4645c .cfa: sp 32 +
STACK CFI 46464 .cfa: x29 32 + x19: .cfa -16 + ^ .ra: .cfa -24 + ^ x29: .cfa -32 + ^
STACK CFI 46484 .cfa: sp 32 +
STACK CFI 4648c .cfa: sp 0 +
STACK CFI INIT 46490 18 .cfa: sp 0 +
STACK CFI INIT 464a8 4 .cfa: sp 0 +
STACK CFI INIT 464ac 4 .cfa: sp 0 +
STACK CFI INIT 476d0 1c .cfa: sp 0 +
STACK CFI INIT 476ec c .cfa: sp 0 +
STACK CFI INIT 477e0 8 .cfa: sp 0 +
STACK CFI INIT 477e8 14 .cfa: sp 0 +
STACK CFI INIT 47ce4 50 .cfa: sp 0 +
STACK CFI 47ce8 .cfa: sp 32 +
STACK CFI 47cf0 .cfa: x29 32 + x19: .cfa -16 + ^ .ra: .cfa -24 + ^ x29: .cfa -32 + ^
STACK CFI 47d08 .cfa: sp 32 +
STACK CFI 47d10 .cfa: sp 0 +
STACK CFI 47d14 .cfa: x29 32 +
STACK CFI 47d28 .cfa: sp 32 +
STACK CFI 47d30 .cfa: sp 0 +
STACK CFI INIT 47d34 50 .cfa: sp 0 +
STACK CFI 47d38 .cfa: sp 32 +
STACK CFI 47d40 .cfa: x29 32 + x19: .cfa -16 + ^ .ra: .cfa -24 + ^ x29: .cfa -32 + ^
STACK CFI 47d58 .cfa: sp 32 +
STACK CFI 47d60 .cfa: sp 0 +
STACK CFI 47d64 .cfa: x29 32 +
STACK CFI 47d78 .cfa: sp 32 +
STACK CFI 47d80 .cfa: sp 0 +
STACK CFI INIT 47d84 60 .cfa: sp 0 +
STACK CFI 47d88 .cfa: sp 32 +
STACK CFI 47d90 .cfa: x29 32 + x19: .cfa -16 + ^ .ra: .cfa -24 + ^ x29: .cfa -32 + ^
STACK CFI 47db8 .cfa: sp 32 +
STACK CFI 47dc0 .cfa: sp 0 +
STACK CFI 47dc4 .cfa: x29 32 +
STACK CFI 47dd8 .cfa: sp 32 +
STACK CFI 47de0 .cfa: sp 0 +
STACK CFI INIT 47de4 70 .cfa: sp 0 +
STACK CFI 47de8 .cfa: sp 32 +
STACK CFI 47df0 .cfa: x29 32 + x19: .cfa -8 + ^ x20: .cfa -16 + ^ .ra: .cfa -24 + ^ x29: .cfa -32 + ^
STACK CFI 47e20 .cfa: sp 32 +
STACK CFI 47e28 .cfa: sp 0 +
STACK CFI 47e2c .cfa: x29 32 +
STACK CFI 47e48 .cfa: sp 32 +
STACK CFI 47e50 .cfa: sp 0 +
STACK CFI INIT 47e54 5c .cfa: sp 0 +
STACK CFI 47e58 .cfa: sp 32 +
STACK CFI 47e60 .cfa: x29 32 + x19: .cfa -8 + ^ x20: .cfa -16 + ^ .ra: .cfa -24 + ^ x29: .cfa -32 + ^
STACK CFI 47ea4 .cfa: sp 32 +
STACK CFI 47eac .cfa: sp 0 +
STACK CFI INIT 47eb0 50 .cfa: sp 0 +
STACK CFI 47eb4 .cfa: sp 32 +
STACK CFI 47ebc .cfa: x29 32 + x19: .cfa -8 + ^ x20: .cfa -16 + ^ .ra: .cfa -24 + ^ x29: .cfa -32 + ^
STACK CFI 47ef4 .cfa: sp 32 +
STACK CFI 47efc .cfa: sp 0 +
STACK CFI INIT 47f00 50 .cfa: sp 0 +
STACK CFI 47f04 .cfa: sp 32 +
STACK CFI 47f0c .cfa: x29 32 + x19: .cfa -16 + ^ .ra: .cfa -24 + ^ x29: .cfa -32 + ^
STACK CFI 47f24 .cfa: sp 32 +
STACK CFI 47f2c .cfa: sp 0 +
STACK CFI 47f30 .cfa: x29 32 +
STACK CFI 47f44 .cfa: sp 32 +
STACK CFI 47f4c .cfa: sp 0 +
STACK CFI INIT 47f50 60 .cfa: sp 0 +
STACK CFI 47f54 .cfa: sp 32 +
STACK CFI 47f5c .cfa: x29 32 + x19: .cfa -8 + ^ x20: .cfa -16 + ^ .ra: .cfa -24 + ^ x29: .cfa -32 + ^
STACK CFI 47f7c .cfa: sp 32 +
STACK CFI 47f84 .cfa: sp 0 +
STACK CFI 47f88 .cfa: x29 32 +
STACK CFI 47fa4 .cfa: sp 32 +
STACK CFI 47fac .cfa: sp 0 +
STACK CFI INIT 47fb0 8 .cfa: sp 0 +
STACK CFI INIT 47fb8 1c .cfa: sp 0 +
STACK CFI INIT 47fd4 c .cfa: sp 0 +
STACK CFI INIT 481b8 60 .cfa: sp 0 +
STACK CFI 481bc .cfa: sp 32 +
STACK CFI 481c4 .cfa: x29 32 + x19: .cfa -8 + ^ x20: .cfa -16 + ^ .ra: .cfa -24 + ^ x29: .cfa -32 + ^
STACK CFI 481e4 .cfa: sp 32 +
STACK CFI 481ec .cfa: sp 0 +
STACK CFI 481f0 .cfa: x29 32 +
STACK CFI 4820c .cfa: sp 32 +
STACK CFI 48214 .cfa: sp 0 +
STACK CFI INIT 48218 70 .cfa: sp 0 +
STACK CFI 4821c .cfa: sp 32 +
STACK CFI 48224 .cfa: x29 32 + x19: .cfa -8 + ^ x20: .cfa -16 + ^ .ra: .cfa -24 + ^ x29: .cfa -32 + ^
STACK CFI 4824c .cfa: sp 32 +
STACK CFI 48254 .cfa: sp 0 +
STACK CFI 48258 .cfa: x29 32 +
STACK CFI 4827c .cfa: sp 32 +
STACK CFI 48284 .cfa: sp 0 +
STACK CFI INIT 48288 60 .cfa: sp 0 +
STACK CFI 4828c .cfa: sp 32 +
STACK CFI 48294 .cfa: x29 32 + x19: .cfa -16 + ^ .ra: .cfa -24 + ^ x29: .cfa -32 + ^
STACK CFI 482bc .cfa: sp 32 +
STACK CFI 482c4 .cfa: sp 0 +
STACK CFI 482c8 .cfa: x29 32 +
STACK CFI 482dc .cfa: sp 32 +
STACK CFI 482e4 .cfa: sp 0 +
STACK CFI INIT 482e8 70 .cfa: sp 0 +
STACK CFI 482ec .cfa: sp 32 +
STACK CFI 482f4 .cfa: x29 32 + x19: .cfa -8 + ^ x20: .cfa -16 + ^ .ra: .cfa -24 + ^ x29: .cfa -32 + ^
STACK CFI 48324 .cfa: sp 32 +
STACK CFI 4832c .cfa: sp 0 +
STACK CFI 48330 .cfa: x29 32 +
STACK CFI 4834c .cfa: sp 32 +
STACK CFI 48354 .cfa: sp 0 +
STACK CFI INIT 48358 5c .cfa: sp 0 +
STACK CFI 4835c .cfa: sp 32 +
STACK CFI 48364 .cfa: x29 32 + x19: .cfa -8 + ^ x20: .cfa -16 + ^ .ra: .cfa -24 + ^ x29: .cfa -32 + ^
STACK CFI 483a8 .cfa: sp 32 +
STACK CFI 483b0 .cfa: sp 0 +
STACK CFI INIT 483b4 50 .cfa: sp 0 +
STACK CFI 483b8 .cfa: sp 32 +
STACK CFI 483c0 .cfa: x29 32 + x19: .cfa -8 + ^ x20: .cfa -16 + ^ .ra: .cfa -24 + ^ x29: .cfa -32 + ^
STACK CFI 483f8 .cfa: sp 32 +
STACK CFI 48400 .cfa: sp 0 +
STACK CFI INIT 48404 50 .cfa: sp 0 +
STACK CFI 48408 .cfa: sp 32 +
STACK CFI 48410 .cfa: x29 32 + x19: .cfa -16 + ^ .ra: .cfa -24 + ^ x29: .cfa -32 + ^
STACK CFI 48428 .cfa: sp 32 +
STACK CFI 48430 .cfa: sp 0 +
STACK CFI 48434 .cfa: x29 32 +
STACK CFI 48448 .cfa: sp 32 +
STACK CFI 48450 .cfa: sp 0 +
STACK CFI INIT 48454 60 .cfa: sp 0 +
STACK CFI 48458 .cfa: sp 32 +
STACK CFI 48460 .cfa: x29 32 + x19: .cfa -8 + ^ x20: .cfa -16 + ^ .ra: .cfa -24 + ^ x29: .cfa -32 + ^
STACK CFI 48480 .cfa: sp 32 +
STACK CFI 48488 .cfa: sp 0 +
STACK CFI 4848c .cfa: x29 32 +
STACK CFI 484a8 .cfa: sp 32 +
STACK CFI 484b0 .cfa: sp 0 +
STACK CFI INIT 484b4 8 .cfa: sp 0 +
STACK CFI INIT 484bc 1c .cfa: sp 0 +
STACK CFI INIT 484d8 c .cfa: sp 0 +
STACK CFI INIT 486b0 308 .cfa: sp 0 +
STACK CFI 486b4 .cfa: sp 128 +
STACK CFI 486cc .cfa: x29 64 + x19: .cfa -8 + ^ x20: .cfa -16 + ^ x21: .cfa -24 + ^ x22: .cfa -32 + ^ x23: .cfa -48 + ^ .ra: .cfa -56 + ^ x29: .cfa -64 + ^ v8: .cfa -72 + ^ v9: .cfa -80 + ^
STACK CFI 48900 .cfa: sp 128 +
STACK CFI 48918 .cfa: sp 0 +
STACK CFI 4891c .cfa: x29 64 +
STACK CFI INIT 489b8 4 .cfa: sp 0 +
STACK CFI INIT 489bc 4 .cfa: sp 0 +
STACK CFI INIT 489c0 38 .cfa: sp 0 +
STACK CFI 489c4 .cfa: sp 32 +
STACK CFI 489cc .cfa: x29 32 + x19: .cfa -16 + ^ .ra: .cfa -24 + ^ x29: .cfa -32 + ^
STACK CFI 489ec .cfa: sp 32 +
STACK CFI 489f4 .cfa: sp 0 +
STACK CFI INIT 489f8 18 .cfa: sp 0 +
STACK CFI INIT 48a10 4 .cfa: sp 0 +
STACK CFI INIT 48a14 4 .cfa: sp 0 +
STACK CFI INIT 49864 1c .cfa: sp 0 +
STACK CFI INIT 49880 c .cfa: sp 0 +
STACK CFI INIT 4988c 60 .cfa: sp 0 +
STACK CFI 49890 .cfa: sp 32 +
STACK CFI 49898 .cfa: x29 32 + x19: .cfa -8 + ^ x20: .cfa -16 + ^ .ra: .cfa -24 + ^ x29: .cfa -32 + ^
STACK CFI 498b8 .cfa: sp 32 +
STACK CFI 498c0 .cfa: sp 0 +
STACK CFI 498c4 .cfa: x29 32 +
STACK CFI 498e0 .cfa: sp 32 +
STACK CFI 498e8 .cfa: sp 0 +
STACK CFI INIT 498ec 70 .cfa: sp 0 +
STACK CFI 498f0 .cfa: sp 32 +
STACK CFI 498f8 .cfa: x29 32 + x19: .cfa -8 + ^ x20: .cfa -16 + ^ .ra: .cfa -24 + ^ x29: .cfa -32 + ^
STACK CFI 49920 .cfa: sp 32 +
STACK CFI 49928 .cfa: sp 0 +
STACK CFI 4992c .cfa: x29 32 +
STACK CFI 49950 .cfa: sp 32 +
STACK CFI 49958 .cfa: sp 0 +
STACK CFI INIT 4995c 10 .cfa: sp 0 +
STACK CFI INIT 4996c 30 .cfa: sp 0 +
STACK CFI 49970 .cfa: sp 32 +
STACK CFI 49978 .cfa: x29 32 + x19: .cfa -16 + ^ .ra: .cfa -24 + ^ x29: .cfa -32 + ^
STACK CFI 49990 .cfa: sp 32 +
STACK CFI 49998 .cfa: sp 0 +
STACK CFI INIT 4999c 4 .cfa: sp 0 +
STACK CFI INIT 499a0 4 .cfa: sp 0 +
STACK CFI INIT 49bb0 28 .cfa: sp 0 +
STACK CFI INIT 49bd8 8 .cfa: sp 0 +
STACK CFI INIT 4a278 a0 .cfa: sp 0 +
STACK CFI 4a27c .cfa: sp 32 +
STACK CFI 4a284 .cfa: x29 32 + x19: .cfa -8 + ^ x20: .cfa -16 + ^ .ra: .cfa -24 + ^ x29: .cfa -32 + ^
STACK CFI 4a30c .cfa: sp 32 +
STACK CFI 4a314 .cfa: sp 0 +
STACK CFI INIT 4a318 4 .cfa: sp 0 +
STACK CFI INIT 4a4e8 a8 .cfa: sp 0 +
STACK CFI 4a4ec .cfa: sp 32 +
STACK CFI 4a4f4 .cfa: x29 32 + x19: .cfa -8 + ^ x20: .cfa -16 + ^ .ra: .cfa -24 + ^ x29: .cfa -32 + ^
STACK CFI 4a584 .cfa: sp 32 +
STACK CFI 4a58c .cfa: sp 0 +
STACK CFI INIT 4a590 34 .cfa: sp 0 +
STACK CFI 4a594 .cfa: sp 16 +
STACK CFI 4a598 .cfa: x29 16 + .ra: .cfa -8 + ^ x29: .cfa -16 + ^
STACK CFI INIT 4a5c4 24 .cfa: sp 0 +
STACK CFI 4a5c8 .cfa: sp 32 +
STACK CFI 4a5d0 .cfa: x29 32 + x19: .cfa -16 + ^ .ra: .cfa -24 + ^ x29: .cfa -32 + ^
STACK CFI 4a5dc .cfa: sp 32 +
STACK CFI 4a5e4 .cfa: sp 0 +
STACK CFI INIT 4a5e8 4 .cfa: sp 0 +
STACK CFI INIT 4a5ec 24 .cfa: sp 0 +
STACK CFI 4a5f0 .cfa: sp 16 +
STACK CFI 4a5f4 .cfa: x29 16 + .ra: .cfa -8 + ^ x29: .cfa -16 + ^
STACK CFI 4a608 .cfa: sp 16 +
STACK CFI 4a60c .cfa: sp 0 +
STACK CFI INIT 4a610 10 .cfa: sp 0 +
STACK CFI INIT 4a620 4 .cfa: sp 0 +
STACK CFI INIT 4a624 4 .cfa: sp 0 +
STACK CFI INIT 4b158 1c .cfa: sp 0 +
STACK CFI INIT 4b174 c .cfa: sp 0 +
STACK CFI INIT 4b180 4 .cfa: sp 0 +
STACK CFI INIT 4b2f8 60 .cfa: sp 0 +
STACK CFI 4b2fc .cfa: sp 32 +
STACK CFI 4b304 .cfa: x29 32 + x19: .cfa -16 + ^ .ra: .cfa -24 + ^ x29: .cfa -32 + ^
STACK CFI 4b34c .cfa: sp 32 +
STACK CFI 4b354 .cfa: sp 0 +
STACK CFI INIT 4b358 68 .cfa: sp 0 +
STACK CFI 4b35c .cfa: sp 32 +
STACK CFI 4b364 .cfa: x29 32 + x19: .cfa -16 + ^ .ra: .cfa -24 + ^ x29: .cfa -32 + ^
STACK CFI 4b3b4 .cfa: sp 32 +
STACK CFI 4b3bc .cfa: sp 0 +
STACK CFI INIT 4b3c0 4 .cfa: sp 0 +
STACK CFI INIT 4b3c4 4 .cfa: sp 0 +
STACK CFI INIT 4b3c8 38 .cfa: sp 0 +
STACK CFI 4b3cc .cfa: sp 32 +
STACK CFI 4b3d4 .cfa: x29 32 + x19: .cfa -16 + ^ .ra: .cfa -24 + ^ x29: .cfa -32 + ^
STACK CFI 4b3f4 .cfa: sp 32 +
STACK CFI 4b3fc .cfa: sp 0 +
STACK CFI INIT 4b400 18 .cfa: sp 0 +
STACK CFI INIT 4b418 4 .cfa: sp 0 +
STACK CFI INIT 4b41c 4 .cfa: sp 0 +
STACK CFI INIT 4b420 10 .cfa: sp 0 +
STACK CFI INIT 4b430 1c .cfa: sp 0 +
STACK CFI INIT 4b44c c .cfa: sp 0 +
STACK CFI INIT 4b58c 3c .cfa: sp 0 +
STACK CFI 4b590 .cfa: sp 32 +
STACK CFI 4b598 .cfa: x29 32 + x19: .cfa -16 + ^ .ra: .cfa -24 + ^ x29: .cfa -32 + ^
STACK CFI 4b5a4 .cfa: sp 32 +
STACK CFI 4b5ac .cfa: sp 0 +
STACK CFI 4b5b0 .cfa: x29 32 +
STACK CFI 4b5bc .cfa: sp 32 +
STACK CFI 4b5c4 .cfa: sp 0 +
STACK CFI INIT 4b5c8 3c .cfa: sp 0 +
STACK CFI 4b5cc .cfa: sp 32 +
STACK CFI 4b5d4 .cfa: x29 32 + x19: .cfa -16 + ^ .ra: .cfa -24 + ^ x29: .cfa -32 + ^
STACK CFI 4b5e0 .cfa: sp 32 +
STACK CFI 4b5e8 .cfa: sp 0 +
STACK CFI 4b5ec .cfa: x29 32 +
STACK CFI 4b5f8 .cfa: sp 32 +
STACK CFI 4b600 .cfa: sp 0 +
STACK CFI INIT 4b604 4c .cfa: sp 0 +
STACK CFI 4b608 .cfa: sp 32 +
STACK CFI 4b610 .cfa: x29 32 + x19: .cfa -8 + ^ x20: .cfa -16 + ^ .ra: .cfa -24 + ^ x29: .cfa -32 + ^
STACK CFI 4b638 .cfa: sp 32 +
STACK CFI 4b640 .cfa: sp 0 +
STACK CFI 4b644 .cfa: sp 32 +
STACK CFI 4b64c .cfa: sp 0 +
STACK CFI INIT 4b870 64 .cfa: sp 0 +
STACK CFI 4b874 .cfa: sp 32 +
STACK CFI 4b87c .cfa: x29 32 + x19: .cfa -16 + ^ .ra: .cfa -24 + ^ x29: .cfa -32 + ^
STACK CFI 4b8a8 .cfa: sp 32 +
STACK CFI 4b8b0 .cfa: sp 0 +
STACK CFI 4b8b4 .cfa: x29 32 +
STACK CFI 4b8c8 .cfa: sp 32 +
STACK CFI 4b8d0 .cfa: sp 0 +
STACK CFI INIT 4b8d4 24 .cfa: sp 0 +
STACK CFI 4b8d8 .cfa: sp 32 +
STACK CFI 4b8e0 .cfa: x29 32 + x19: .cfa -16 + ^ .ra: .cfa -24 + ^ x29: .cfa -32 + ^
STACK CFI 4b8ec .cfa: sp 32 +
STACK CFI 4b8f4 .cfa: sp 0 +
STACK CFI INIT 4bb54 24 .cfa: sp 0 +
STACK CFI 4bb58 .cfa: sp 32 +
STACK CFI 4bb60 .cfa: x29 32 + x19: .cfa -16 + ^ .ra: .cfa -24 + ^ x29: .cfa -32 + ^
STACK CFI 4bb6c .cfa: sp 32 +
STACK CFI 4bb74 .cfa: sp 0 +
STACK CFI INIT 4bb78 8 .cfa: sp 0 +
STACK CFI INIT 4bb80 24 .cfa: sp 0 +
STACK CFI 4bb84 .cfa: sp 32 +
STACK CFI 4bb8c .cfa: x29 32 + x19: .cfa -16 + ^ .ra: .cfa -24 + ^ x29: .cfa -32 + ^
STACK CFI 4bb98 .cfa: sp 32 +
STACK CFI 4bba0 .cfa: sp 0 +
STACK CFI INIT 4bba4 28 .cfa: sp 0 +
STACK CFI 4bba8 .cfa: sp 32 +
STACK CFI 4bbb0 .cfa: x29 32 + x19: .cfa -16 + ^ .ra: .cfa -24 + ^ x29: .cfa -32 + ^
STACK CFI 4bbc0 .cfa: sp 32 +
STACK CFI 4bbc8 .cfa: sp 0 +
STACK CFI INIT 4becc 8 .cfa: sp 0 +
STACK CFI INIT 4bed4 24 .cfa: sp 0 +
STACK CFI 4bed8 .cfa: sp 32 +
STACK CFI 4bee0 .cfa: x29 32 + x19: .cfa -16 + ^ .ra: .cfa -24 + ^ x29: .cfa -32 + ^
STACK CFI 4beec .cfa: sp 32 +
STACK CFI 4bef4 .cfa: sp 0 +
STACK CFI INIT 4bef8 28 .cfa: sp 0 +
STACK CFI 4befc .cfa: sp 32 +
STACK CFI 4bf04 .cfa: x29 32 + x19: .cfa -16 + ^ .ra: .cfa -24 + ^ x29: .cfa -32 + ^
STACK CFI 4bf14 .cfa: sp 32 +
STACK CFI 4bf1c .cfa: sp 0 +
STACK CFI INIT 4c184 8 .cfa: sp 0 +
STACK CFI INIT 4c18c 24 .cfa: sp 0 +
STACK CFI 4c190 .cfa: sp 32 +
STACK CFI 4c198 .cfa: x29 32 + x19: .cfa -16 + ^ .ra: .cfa -24 + ^ x29: .cfa -32 + ^
STACK CFI 4c1a4 .cfa: sp 32 +
STACK CFI 4c1ac .cfa: sp 0 +
STACK CFI INIT 4c1b0 28 .cfa: sp 0 +
STACK CFI 4c1b4 .cfa: sp 32 +
STACK CFI 4c1bc .cfa: x29 32 + x19: .cfa -16 + ^ .ra: .cfa -24 + ^ x29: .cfa -32 + ^
STACK CFI 4c1cc .cfa: sp 32 +
STACK CFI 4c1d4 .cfa: sp 0 +
STACK CFI INIT 4c1d8 8 .cfa: sp 0 +
STACK CFI INIT 4c1e0 24 .cfa: sp 0 +
STACK CFI 4c1e4 .cfa: sp 32 +
STACK CFI 4c1ec .cfa: x29 32 + x19: .cfa -16 + ^ .ra: .cfa -24 + ^ x29: .cfa -32 + ^
STACK CFI 4c1f8 .cfa: sp 32 +
STACK CFI 4c200 .cfa: sp 0 +
STACK CFI INIT 4c204 28 .cfa: sp 0 +
STACK CFI 4c208 .cfa: sp 32 +
STACK CFI 4c210 .cfa: x29 32 + x19: .cfa -16 + ^ .ra: .cfa -24 + ^ x29: .cfa -32 + ^
STACK CFI 4c220 .cfa: sp 32 +
STACK CFI 4c228 .cfa: sp 0 +
STACK CFI INIT 4ce6c 4 .cfa: sp 0 +
STACK CFI INIT 4e010 4 .cfa: sp 0 +
STACK CFI INIT 4e014 14 .cfa: sp 0 +
STACK CFI INIT 4e534 c .cfa: sp 0 +
STACK CFI INIT 4e540 24c .cfa: sp 0 +
STACK CFI INIT 4e78c a0 .cfa: sp 0 +
STACK CFI 4e798 .cfa: sp 32 +
STACK CFI 4e7f0 .cfa: sp 0 +
STACK CFI 4e7f4 .cfa: sp 32 +
STACK CFI 4e7fc .cfa: sp 0 +
STACK CFI 4e800 .cfa: sp 32 +
STACK CFI 4e814 .cfa: sp 0 +
STACK CFI 4e818 .cfa: sp 32 +
STACK CFI 4e828 .cfa: sp 0 +
STACK CFI INIT 4e82c 38 .cfa: sp 0 +
STACK CFI 4e838 .cfa: sp 32 +
STACK CFI 4e860 .cfa: sp 0 +
STACK CFI INIT 4e864 34 .cfa: sp 0 +
STACK CFI 4e868 .cfa: sp 16 +
STACK CFI 4e86c .cfa: x29 16 + .ra: .cfa -8 + ^ x29: .cfa -16 + ^
STACK CFI INIT 4ebf0 14 .cfa: sp 0 +
STACK CFI INIT 4ed94 80 .cfa: sp 0 +
STACK CFI 4ed98 .cfa: sp 32 +
STACK CFI 4eda0 .cfa: x29 32 + x19: .cfa -16 + ^ .ra: .cfa -24 + ^ x29: .cfa -32 + ^
STACK CFI 4edd0 .cfa: sp 32 +
STACK CFI 4edd8 .cfa: sp 0 +
STACK CFI 4eddc .cfa: x29 32 +
STACK CFI 4ee08 .cfa: sp 32 +
STACK CFI 4ee10 .cfa: sp 0 +
STACK CFI INIT 4ee64 30 .cfa: sp 0 +
STACK CFI 4ee68 .cfa: sp 32 +
STACK CFI 4ee70 .cfa: x29 32 + x19: .cfa -16 + ^ .ra: .cfa -24 + ^ x29: .cfa -32 + ^
STACK CFI 4ee88 .cfa: sp 32 +
STACK CFI 4ee90 .cfa: sp 0 +
STACK CFI INIT 4f07c 9c .cfa: sp 0 +
STACK CFI INIT 4f118 64 .cfa: sp 0 +
STACK CFI 4f11c .cfa: sp 32 +
STACK CFI 4f124 .cfa: x29 32 + x19: .cfa -16 + ^ .ra: .cfa -24 + ^ x29: .cfa -32 + ^
STACK CFI 4f140 .cfa: sp 32 +
STACK CFI 4f148 .cfa: sp 0 +
STACK CFI 4f14c .cfa: x29 32 +
STACK CFI 4f170 .cfa: sp 32 +
STACK CFI 4f178 .cfa: sp 0 +
STACK CFI INIT 4f460 b0 .cfa: sp 0 +
STACK CFI INIT 4f834 b4 .cfa: sp 0 +
STACK CFI 4f838 .cfa: sp 48 +
STACK CFI 4f844 .cfa: x29 48 + x19: .cfa -8 + ^ x20: .cfa -16 + ^ x21: .cfa -24 + ^ x28: .cfa -32 + ^ .ra: .cfa -40 + ^ x29: .cfa -48 + ^
STACK CFI 4f8d4 .cfa: sp 48 +
STACK CFI 4f8e0 .cfa: sp 0 +
STACK CFI 4f8e4 .cfa: x29 48 +
STACK CFI INIT 4f8e8 1f8 .cfa: sp 0 +
STACK CFI 4f8ec .cfa: sp 176 +
STACK CFI 4f8f8 .cfa: x29 32 + x19: .cfa -16 + ^ .ra: .cfa -24 + ^ x29: .cfa -32 + ^
STACK CFI 4f950 .cfa: sp 176 +
STACK CFI 4f95c .cfa: sp 0 +
STACK CFI 4f960 .cfa: x29 32 +
STACK CFI INIT 4fae0 8 .cfa: sp 0 +
STACK CFI INIT 500b0 228 .cfa: sp 0 +
STACK CFI INIT 502d8 2dc .cfa: sp 0 +
STACK CFI INIT 505b4 53c .cfa: sp 0 +
STACK CFI INIT 50af0 8 .cfa: sp 0 +
STACK CFI INIT 50cbc 14c .cfa: sp 0 +
STACK CFI 50cc8 .cfa: sp 48 +
STACK CFI 50cd4 .cfa: x29 48 + x19: .cfa -8 + ^ x20: .cfa -16 + ^ x21: .cfa -24 + ^ x22: .cfa -32 + ^ .ra: .cfa -40 + ^ x29: .cfa -48 + ^
STACK CFI 50df8 .cfa: sp 48 +
STACK CFI 50e04 .cfa: sp 0 +
STACK CFI INIT 50e08 210 .cfa: sp 0 +
STACK CFI 50e0c .cfa: sp 64 +
STACK CFI 50e1c .cfa: x29 64 + x19: .cfa -8 + ^ x20: .cfa -16 + ^ x21: .cfa -24 + ^ x22: .cfa -32 + ^ x23: .cfa -40 + ^ x24: .cfa -48 + ^ .ra: .cfa -56 + ^ x29: .cfa -64 + ^
STACK CFI 50fd0 .cfa: sp 64 +
STACK CFI 50fe0 .cfa: sp 0 +
STACK CFI 50fe4 .cfa: sp 64 +
STACK CFI 50ff4 .cfa: sp 0 +
STACK CFI 50ff8 .cfa: x29 64 +
STACK CFI 51004 .cfa: sp 64 +
STACK CFI 51014 .cfa: sp 0 +
STACK CFI INIT 511dc 108 .cfa: sp 0 +
STACK CFI 511e8 .cfa: sp 48 +
STACK CFI 511f4 .cfa: x29 48 + x19: .cfa -8 + ^ x20: .cfa -16 + ^ x21: .cfa -24 + ^ x22: .cfa -32 + ^ .ra: .cfa -40 + ^ x29: .cfa -48 + ^
STACK CFI 512d4 .cfa: sp 48 +
STACK CFI 512e0 .cfa: sp 0 +
STACK CFI INIT 512e4 90 .cfa: sp 0 +
STACK CFI 512e8 .cfa: sp 32 +
STACK CFI 512f0 .cfa: x29 32 + x19: .cfa -16 + ^ .ra: .cfa -24 + ^ x29: .cfa -32 + ^
STACK CFI 51328 .cfa: sp 32 +
STACK CFI 51330 .cfa: sp 0 +
STACK CFI 51334 .cfa: x29 32 +
STACK CFI 51368 .cfa: sp 32 +
STACK CFI 51370 .cfa: sp 0 +
STACK CFI INIT 51374 24 .cfa: sp 0 +
STACK CFI 51378 .cfa: sp 32 +
STACK CFI 51380 .cfa: x29 32 + x19: .cfa -16 + ^ .ra: .cfa -24 + ^ x29: .cfa -32 + ^
STACK CFI 5138c .cfa: sp 32 +
STACK CFI 51394 .cfa: sp 0 +
STACK CFI INIT 51398 a0 .cfa: sp 0 +
STACK CFI 5139c .cfa: sp 48 +
STACK CFI 513a8 .cfa: x29 48 + x19: .cfa -8 + ^ x20: .cfa -16 + ^ x21: .cfa -24 + ^ x22: .cfa -32 + ^ .ra: .cfa -40 + ^ x29: .cfa -48 + ^
STACK CFI 51414 .cfa: sp 48 +
STACK CFI 51420 .cfa: sp 0 +
STACK CFI 51424 .cfa: sp 48 +
STACK CFI 51430 .cfa: sp 0 +
STACK CFI 51434 .cfa: x29 48 +
STACK CFI INIT 51634 150 .cfa: sp 0 +
STACK CFI 51638 .cfa: sp 48 +
STACK CFI 51644 .cfa: x29 48 + x19: .cfa -8 + ^ x20: .cfa -16 + ^ x21: .cfa -24 + ^ x22: .cfa -32 + ^ .ra: .cfa -40 + ^ x29: .cfa -48 + ^
STACK CFI 51774 .cfa: sp 48 +
STACK CFI 51780 .cfa: sp 0 +
STACK CFI INIT 51924 70 .cfa: sp 0 +
STACK CFI 51928 .cfa: sp 64 +
STACK CFI 51934 .cfa: x29 32 + x19: .cfa -16 + ^ .ra: .cfa -24 + ^ x29: .cfa -32 + ^
STACK CFI 51980 .cfa: sp 64 +
STACK CFI 5198c .cfa: sp 0 +
STACK CFI 51990 .cfa: x29 32 +
STACK CFI INIT 51994 78 .cfa: sp 0 +
STACK CFI 51998 .cfa: sp 32 +
STACK CFI 519a0 .cfa: x29 32 + x19: .cfa -8 + ^ x20: .cfa -16 + ^ .ra: .cfa -24 + ^ x29: .cfa -32 + ^
STACK CFI 51a00 .cfa: sp 32 +
STACK CFI 51a08 .cfa: sp 0 +
STACK CFI INIT 51a0c f4 .cfa: sp 0 +
STACK CFI 51a10 .cfa: sp 112 +
STACK CFI 51a20 .cfa: x29 48 + x19: .cfa -8 + ^ x20: .cfa -16 + ^ x21: .cfa -32 + ^ .ra: .cfa -40 + ^ x29: .cfa -48 + ^
STACK CFI 51ae8 .cfa: sp 112 +
STACK CFI 51af8 .cfa: sp 0 +
STACK CFI 51afc .cfa: x29 48 +
STACK CFI INIT 51b00 f4 .cfa: sp 0 +
STACK CFI 51b04 .cfa: sp 112 +
STACK CFI 51b14 .cfa: x29 48 + x19: .cfa -8 + ^ x20: .cfa -16 + ^ x21: .cfa -32 + ^ .ra: .cfa -40 + ^ x29: .cfa -48 + ^
STACK CFI 51bdc .cfa: sp 112 +
STACK CFI 51bec .cfa: sp 0 +
STACK CFI 51bf0 .cfa: x29 48 +
STACK CFI INIT 51bf4 48 .cfa: sp 0 +
STACK CFI 51bf8 .cfa: sp 32 +
STACK CFI 51c00 .cfa: x29 32 + x19: .cfa -8 + ^ x20: .cfa -16 + ^ .ra: .cfa -24 + ^ x29: .cfa -32 + ^
STACK CFI 51c24 .cfa: sp 32 +
STACK CFI 51c2c .cfa: sp 0 +
STACK CFI 51c30 .cfa: x29 32 +
STACK CFI INIT 51c3c 9c .cfa: sp 0 +
STACK CFI 51c40 .cfa: sp 80 +
STACK CFI 51c4c .cfa: x29 32 + x19: .cfa -16 + ^ .ra: .cfa -24 + ^ x29: .cfa -32 + ^
STACK CFI 51cc4 .cfa: sp 80 +
STACK CFI 51cd0 .cfa: sp 0 +
STACK CFI 51cd4 .cfa: x29 32 +
STACK CFI INIT 51cd8 264 .cfa: sp 0 +
STACK CFI 51cdc .cfa: sp 112 +
STACK CFI 51cf4 .cfa: x29 80 + x19: .cfa -8 + ^ x20: .cfa -16 + ^ x21: .cfa -24 + ^ x22: .cfa -32 + ^ x23: .cfa -40 + ^ x24: .cfa -48 + ^ x25: .cfa -64 + ^ .ra: .cfa -72 + ^ x29: .cfa -80 + ^
STACK CFI 51edc .cfa: sp 112 +
STACK CFI 51ef4 .cfa: sp 0 +
STACK CFI 51ef8 .cfa: x29 80 +
STACK CFI INIT 51f3c 150 .cfa: sp 0 +
STACK CFI 51f40 .cfa: sp 48 +
STACK CFI 51f4c .cfa: x29 48 + x19: .cfa -8 + ^ x20: .cfa -16 + ^ x21: .cfa -24 + ^ x22: .cfa -32 + ^ .ra: .cfa -40 + ^ x29: .cfa -48 + ^
STACK CFI 5207c .cfa: sp 48 +
STACK CFI 52088 .cfa: sp 0 +
STACK CFI INIT 5208c 1e4 .cfa: sp 0 +
STACK CFI 52090 .cfa: sp 96 +
STACK CFI 520a4 .cfa: x29 64 + x19: .cfa -8 + ^ x20: .cfa -16 + ^ x21: .cfa -24 + ^ x22: .cfa -32 + ^ x23: .cfa -40 + ^ x24: .cfa -48 + ^ .ra: .cfa -56 + ^ x29: .cfa -64 + ^
STACK CFI 52228 .cfa: sp 96 +
STACK CFI 5223c .cfa: sp 0 +
STACK CFI 52240 .cfa: x29 64 +
STACK CFI INIT 52270 288 .cfa: sp 0 +
STACK CFI 52274 .cfa: sp 112 +
STACK CFI 5228c .cfa: x29 80 + x19: .cfa -8 + ^ x20: .cfa -16 + ^ x21: .cfa -24 + ^ x22: .cfa -32 + ^ x23: .cfa -40 + ^ x24: .cfa -48 + ^ x25: .cfa -64 + ^ .ra: .cfa -72 + ^ x29: .cfa -80 + ^
STACK CFI 52498 .cfa: sp 112 +
STACK CFI 524b0 .cfa: sp 0 +
STACK CFI 524b4 .cfa: x29 80 +
STACK CFI INIT 524f8 20c .cfa: sp 0 +
STACK CFI 524fc .cfa: sp 96 +
STACK CFI 52510 .cfa: x29 64 + x19: .cfa -8 + ^ x20: .cfa -16 + ^ x21: .cfa -24 + ^ x22: .cfa -32 + ^ x23: .cfa -40 + ^ x24: .cfa -48 + ^ .ra: .cfa -56 + ^ x29: .cfa -64 + ^
STACK CFI 526bc .cfa: sp 96 +
STACK CFI 526d0 .cfa: sp 0 +
STACK CFI 526d4 .cfa: x29 64 +
STACK CFI INIT 52704 364 .cfa: sp 0 +
STACK CFI 52708 .cfa: sp 160 +
STACK CFI 52724 .cfa: x29 96 + x19: .cfa -8 + ^ x20: .cfa -16 + ^ x21: .cfa -24 + ^ x22: .cfa -32 + ^ x23: .cfa -40 + ^ x24: .cfa -48 + ^ x25: .cfa -56 + ^ x26: .cfa -64 + ^ x27: .cfa -72 + ^ x28: .cfa -80 + ^ .ra: .cfa -88 + ^ x29: .cfa -96 + ^
STACK CFI 529f4 .cfa: sp 160 +
STACK CFI 52a10 .cfa: sp 0 +
STACK CFI 52a14 .cfa: x29 96 +
STACK CFI INIT 52a68 318 .cfa: sp 0 +
STACK CFI 52a6c .cfa: sp 144 +
STACK CFI 52a88 .cfa: x29 96 + x19: .cfa -8 + ^ x20: .cfa -16 + ^ x21: .cfa -24 + ^ x22: .cfa -32 + ^ x23: .cfa -40 + ^ x24: .cfa -48 + ^ x25: .cfa -56 + ^ x26: .cfa -64 + ^ x27: .cfa -72 + ^ x28: .cfa -80 + ^ .ra: .cfa -88 + ^ x29: .cfa -96 + ^
STACK CFI 52d08 .cfa: sp 144 +
STACK CFI 52d24 .cfa: sp 0 +
STACK CFI 52d28 .cfa: x29 96 +
STACK CFI INIT 52d80 10c .cfa: sp 0 +
STACK CFI 52d84 .cfa: sp 96 +
STACK CFI 52d94 .cfa: x29 48 + x19: .cfa -8 + ^ x20: .cfa -16 + ^ x21: .cfa -24 + ^ x22: .cfa -32 + ^ .ra: .cfa -40 + ^ x29: .cfa -48 + ^
STACK CFI 52e74 .cfa: sp 96 +
STACK CFI 52e84 .cfa: sp 0 +
STACK CFI 52e88 .cfa: x29 48 +
STACK CFI INIT 52e8c 9a4 .cfa: sp 0 +
STACK CFI 52e90 .cfa: sp 144 +
STACK CFI 52ea8 .cfa: x29 80 + x19: .cfa -8 + ^ x20: .cfa -16 + ^ x21: .cfa -24 + ^ x22: .cfa -32 + ^ x23: .cfa -40 + ^ x24: .cfa -48 + ^ x25: .cfa -64 + ^ .ra: .cfa -72 + ^ x29: .cfa -80 + ^
STACK CFI 53810 .cfa: sp 144 +
STACK CFI 53828 .cfa: sp 0 +
STACK CFI 5382c .cfa: x29 80 +
STACK CFI INIT 53830 190 .cfa: sp 0 +
STACK CFI 53834 .cfa: sp 96 +
STACK CFI 53848 .cfa: x29 64 + x19: .cfa -8 + ^ x20: .cfa -16 + ^ x21: .cfa -24 + ^ x22: .cfa -32 + ^ x23: .cfa -48 + ^ .ra: .cfa -56 + ^ x29: .cfa -64 + ^
STACK CFI 539a4 .cfa: sp 96 +
STACK CFI 539b8 .cfa: sp 0 +
STACK CFI 539bc .cfa: x29 64 +
STACK CFI INIT 539c0 1e4 .cfa: sp 0 +
STACK CFI 539c4 .cfa: sp 112 +
STACK CFI 539dc .cfa: x29 80 + x19: .cfa -8 + ^ x20: .cfa -16 + ^ x21: .cfa -24 + ^ x22: .cfa -32 + ^ x23: .cfa -40 + ^ x24: .cfa -48 + ^ x25: .cfa -64 + ^ .ra: .cfa -72 + ^ x29: .cfa -80 + ^
STACK CFI 53b84 .cfa: sp 112 +
STACK CFI 53b9c .cfa: sp 0 +
STACK CFI 53ba0 .cfa: x29 80 +
STACK CFI INIT 53ba4 1a8 .cfa: sp 0 +
STACK CFI 53ba8 .cfa: sp 96 +
STACK CFI 53bbc .cfa: x29 64 + x19: .cfa -8 + ^ x20: .cfa -16 + ^ x21: .cfa -24 + ^ x22: .cfa -32 + ^ x23: .cfa -40 + ^ x24: .cfa -48 + ^ .ra: .cfa -56 + ^ x29: .cfa -64 + ^
STACK CFI 53d30 .cfa: sp 96 +
STACK CFI 53d44 .cfa: sp 0 +
STACK CFI 53d48 .cfa: x29 64 +
STACK CFI INIT 53d4c 1ac .cfa: sp 0 +
STACK CFI 53d50 .cfa: sp 112 +
STACK CFI 53d64 .cfa: x29 64 + x19: .cfa -8 + ^ x20: .cfa -16 + ^ x21: .cfa -24 + ^ x22: .cfa -32 + ^ x23: .cfa -40 + ^ x24: .cfa -48 + ^ .ra: .cfa -56 + ^ x29: .cfa -64 + ^
STACK CFI 53edc .cfa: sp 112 +
STACK CFI 53ef0 .cfa: sp 0 +
STACK CFI 53ef4 .cfa: x29 64 +
STACK CFI INIT 53ef8 108 .cfa: sp 0 +
STACK CFI 53efc .cfa: sp 64 +
STACK CFI 53f0c .cfa: x29 64 + x19: .cfa -8 + ^ x20: .cfa -16 + ^ x21: .cfa -24 + ^ x22: .cfa -32 + ^ x23: .cfa -48 + ^ .ra: .cfa -56 + ^ x29: .cfa -64 + ^
STACK CFI 53f88 .cfa: sp 64 +
STACK CFI 53f98 .cfa: sp 0 +
STACK CFI 53f9c .cfa: x29 64 +
STACK CFI 53fec .cfa: sp 64 +
STACK CFI 53ffc .cfa: sp 0 +
STACK CFI INIT 54000 178 .cfa: sp 0 +
STACK CFI 54004 .cfa: sp 96 +
STACK CFI 54014 .cfa: x29 48 + x19: .cfa -8 + ^ x20: .cfa -16 + ^ x21: .cfa -24 + ^ x22: .cfa -32 + ^ .ra: .cfa -40 + ^ x29: .cfa -48 + ^
STACK CFI 54134 .cfa: sp 96 +
STACK CFI 54144 .cfa: sp 0 +
STACK CFI 54148 .cfa: x29 48 +
STACK CFI INIT 54178 1f4 .cfa: sp 0 +
STACK CFI 5417c .cfa: sp 80 +
STACK CFI 54190 .cfa: x29 80 + x19: .cfa -8 + ^ x20: .cfa -16 + ^ x21: .cfa -24 + ^ x22: .cfa -32 + ^ x23: .cfa -40 + ^ x24: .cfa -48 + ^ x25: .cfa -64 + ^ .ra: .cfa -72 + ^ x29: .cfa -80 + ^
STACK CFI 54330 .cfa: sp 80 +
STACK CFI 54344 .cfa: sp 0 +
STACK CFI 54348 .cfa: x29 80 +
STACK CFI 54354 .cfa: sp 80 +
STACK CFI 54368 .cfa: sp 0 +
STACK CFI INIT 5436c 258 .cfa: sp 0 +
STACK CFI 54370 .cfa: sp 96 +
STACK CFI 54388 .cfa: x29 96 + x19: .cfa -8 + ^ x20: .cfa -16 + ^ x21: .cfa -24 + ^ x22: .cfa -32 + ^ x23: .cfa -40 + ^ x24: .cfa -48 + ^ x25: .cfa -56 + ^ x26: .cfa -64 + ^ x27: .cfa -72 + ^ x28: .cfa -80 + ^ .ra: .cfa -88 + ^ x29: .cfa -96 + ^
STACK CFI 54580 .cfa: sp 96 +
STACK CFI 54598 .cfa: sp 0 +
STACK CFI 5459c .cfa: x29 96 +
STACK CFI 545a8 .cfa: sp 96 +
STACK CFI 545c0 .cfa: sp 0 +
STACK CFI INIT 54c98 154 .cfa: sp 0 +
STACK CFI 54c9c .cfa: sp 96 +
STACK CFI 54cb0 .cfa: x29 64 + x19: .cfa -8 + ^ x20: .cfa -16 + ^ x21: .cfa -24 + ^ x22: .cfa -32 + ^ x23: .cfa -48 + ^ .ra: .cfa -56 + ^ x29: .cfa -64 + ^
STACK CFI 54d90 .cfa: sp 96 +
STACK CFI 54da4 .cfa: sp 0 +
STACK CFI 54da8 .cfa: x29 64 +
STACK CFI INIT 54fa4 44 .cfa: sp 0 +
STACK CFI 54fa8 .cfa: sp 32 +
STACK CFI 54fb0 .cfa: x29 32 + x19: .cfa -16 + ^ .ra: .cfa -24 + ^ x29: .cfa -32 + ^
STACK CFI 54fcc .cfa: sp 32 +
STACK CFI 54fd4 .cfa: sp 0 +
STACK CFI 54fd8 .cfa: x29 32 +
STACK CFI 54fdc .cfa: sp 32 +
STACK CFI 54fe4 .cfa: sp 0 +
STACK CFI INIT 54fe8 1d0 .cfa: sp 0 +
STACK CFI 54fec .cfa: sp 64 +
STACK CFI 54ffc .cfa: x29 64 + x19: .cfa -8 + ^ x20: .cfa -16 + ^ x21: .cfa -24 + ^ x22: .cfa -32 + ^ x23: .cfa -40 + ^ x24: .cfa -48 + ^ .ra: .cfa -56 + ^ x29: .cfa -64 + ^
STACK CFI 550bc .cfa: sp 64 +
STACK CFI 550cc .cfa: sp 0 +
STACK CFI 550d0 .cfa: x29 64 +
STACK CFI INIT 551b8 17c .cfa: sp 0 +
STACK CFI INIT 55334 134 .cfa: sp 0 +
STACK CFI 55338 .cfa: sp 48 +
STACK CFI 55344 .cfa: x29 48 + x19: .cfa -8 + ^ x20: .cfa -16 + ^ x21: .cfa -24 + ^ x22: .cfa -32 + ^ .ra: .cfa -40 + ^ x29: .cfa -48 + ^
STACK CFI 55458 .cfa: sp 48 +
STACK CFI 55464 .cfa: sp 0 +
STACK CFI INIT 55ae0 a0 .cfa: sp 0 +
STACK CFI 55ae4 .cfa: sp 48 +
STACK CFI 55af0 .cfa: x29 48 + x19: .cfa -8 + ^ x20: .cfa -16 + ^ x21: .cfa -24 + ^ x22: .cfa -32 + ^ .ra: .cfa -40 + ^ x29: .cfa -48 + ^
STACK CFI 55b5c .cfa: sp 48 +
STACK CFI 55b68 .cfa: sp 0 +
STACK CFI 55b6c .cfa: sp 48 +
STACK CFI 55b78 .cfa: sp 0 +
STACK CFI 55b7c .cfa: x29 48 +
STACK CFI INIT 55b80 190 .cfa: sp 0 +
STACK CFI 55b84 .cfa: sp 80 +
STACK CFI 55b98 .cfa: x29 80 + x19: .cfa -8 + ^ x20: .cfa -16 + ^ x21: .cfa -24 + ^ x22: .cfa -32 + ^ x23: .cfa -40 + ^ x24: .cfa -48 + ^ x25: .cfa -64 + ^ .ra: .cfa -72 + ^ x29: .cfa -80 + ^
STACK CFI 55cd4 .cfa: sp 80 +
STACK CFI 55ce8 .cfa: sp 0 +
STACK CFI 55cec .cfa: x29 80 +
STACK CFI 55cf8 .cfa: sp 80 +
STACK CFI 55d0c .cfa: sp 0 +
STACK CFI INIT 55e58 21c .cfa: sp 0 +
STACK CFI 55e5c .cfa: sp 96 +
STACK CFI 55e70 .cfa: x29 64 + x19: .cfa -8 + ^ x20: .cfa -16 + ^ x21: .cfa -24 + ^ x22: .cfa -32 + ^ x23: .cfa -40 + ^ x24: .cfa -48 + ^ .ra: .cfa -56 + ^ x29: .cfa -64 + ^
STACK CFI 56058 .cfa: sp 96 +
STACK CFI 5606c .cfa: sp 0 +
STACK CFI 56070 .cfa: x29 64 +
STACK CFI INIT 56758 158 .cfa: sp 0 +
STACK CFI 5675c .cfa: sp 96 +
STACK CFI 56770 .cfa: x29 64 + x19: .cfa -8 + ^ x20: .cfa -16 + ^ x21: .cfa -24 + ^ x22: .cfa -32 + ^ x23: .cfa -48 + ^ .ra: .cfa -56 + ^ x29: .cfa -64 + ^
STACK CFI 56854 .cfa: sp 96 +
STACK CFI 56868 .cfa: sp 0 +
STACK CFI 5686c .cfa: x29 64 +
STACK CFI INIT 568b0 190 .cfa: sp 0 +
STACK CFI INIT 56a40 134 .cfa: sp 0 +
STACK CFI 56a44 .cfa: sp 48 +
STACK CFI 56a50 .cfa: x29 48 + x19: .cfa -8 + ^ x20: .cfa -16 + ^ x21: .cfa -24 + ^ x22: .cfa -32 + ^ .ra: .cfa -40 + ^ x29: .cfa -48 + ^
STACK CFI 56b64 .cfa: sp 48 +
STACK CFI 56b70 .cfa: sp 0 +
STACK CFI INIT 56e4c 190 .cfa: sp 0 +
STACK CFI 56e50 .cfa: sp 80 +
STACK CFI 56e64 .cfa: x29 80 + x19: .cfa -8 + ^ x20: .cfa -16 + ^ x21: .cfa -24 + ^ x22: .cfa -32 + ^ x23: .cfa -40 + ^ x24: .cfa -48 + ^ x25: .cfa -64 + ^ .ra: .cfa -72 + ^ x29: .cfa -80 + ^
STACK CFI 56fa0 .cfa: sp 80 +
STACK CFI 56fb4 .cfa: sp 0 +
STACK CFI 56fb8 .cfa: x29 80 +
STACK CFI 56fc4 .cfa: sp 80 +
STACK CFI 56fd8 .cfa: sp 0 +
STACK CFI INIT 57124 228 .cfa: sp 0 +
STACK CFI 57128 .cfa: sp 96 +
STACK CFI 5713c .cfa: x29 64 + x19: .cfa -8 + ^ x20: .cfa -16 + ^ x21: .cfa -24 + ^ x22: .cfa -32 + ^ x23: .cfa -40 + ^ x24: .cfa -48 + ^ .ra: .cfa -56 + ^ x29: .cfa -64 + ^
STACK CFI 57330 .cfa: sp 96 +
STACK CFI 57344 .cfa: sp 0 +
STACK CFI 57348 .cfa: x29 64 +
STACK CFI INIT 57734 568 .cfa: sp 0 +
STACK CFI 57738 .cfa: sp 176 +
STACK CFI 57754 .cfa: x29 96 + x19: .cfa -8 + ^ x20: .cfa -16 + ^ x21: .cfa -24 + ^ x22: .cfa -32 + ^ x23: .cfa -40 + ^ x24: .cfa -48 + ^ x25: .cfa -56 + ^ x26: .cfa -64 + ^ x27: .cfa -72 + ^ x28: .cfa -80 + ^ .ra: .cfa -88 + ^ x29: .cfa -96 + ^
STACK CFI 57c78 .cfa: sp 176 +
STACK CFI 57c94 .cfa: sp 0 +
STACK CFI 57c98 .cfa: x29 96 +
STACK CFI INIT 57c9c 2c4 .cfa: sp 0 +
STACK CFI 57ca0 .cfa: sp 160 +
STACK CFI 57cb4 .cfa: x29 64 + x19: .cfa -8 + ^ x20: .cfa -16 + ^ x21: .cfa -24 + ^ x22: .cfa -32 + ^ x23: .cfa -40 + ^ x24: .cfa -48 + ^ .ra: .cfa -56 + ^ x29: .cfa -64 + ^
STACK CFI 57f20 .cfa: sp 160 +
STACK CFI 57f34 .cfa: sp 0 +
STACK CFI 57f38 .cfa: x29 64 +
STACK CFI INIT 57f60 1f4 .cfa: sp 0 +
STACK CFI 57f64 .cfa: sp 80 +
STACK CFI 57f78 .cfa: x29 80 + x19: .cfa -8 + ^ x20: .cfa -16 + ^ x21: .cfa -24 + ^ x22: .cfa -32 + ^ x23: .cfa -40 + ^ x24: .cfa -48 + ^ x25: .cfa -64 + ^ .ra: .cfa -72 + ^ x29: .cfa -80 + ^
STACK CFI 58118 .cfa: sp 80 +
STACK CFI 5812c .cfa: sp 0 +
STACK CFI 58130 .cfa: x29 80 +
STACK CFI 5813c .cfa: sp 80 +
STACK CFI 58150 .cfa: sp 0 +
STACK CFI INIT 59588 124 .cfa: sp 0 +
STACK CFI 595b8 .cfa: sp 32 +
STACK CFI 595c0 .cfa: x29 32 + x19: .cfa -8 + ^ x20: .cfa -16 + ^ .ra: .cfa -24 + ^ x29: .cfa -32 + ^
STACK CFI 596a0 .cfa: sp 32 +
STACK CFI 596a8 .cfa: sp 0 +
STACK CFI INIT 596ac 194 .cfa: sp 0 +
STACK CFI 596b0 .cfa: sp 48 +
STACK CFI 596bc .cfa: x29 48 + x19: .cfa -8 + ^ x20: .cfa -16 + ^ x21: .cfa -24 + ^ x22: .cfa -32 + ^ .ra: .cfa -40 + ^ x29: .cfa -48 + ^
STACK CFI 59724 .cfa: sp 48 +
STACK CFI 59730 .cfa: sp 0 +
STACK CFI 59734 .cfa: x29 48 +
STACK CFI 59768 .cfa: sp 48 +
STACK CFI 59774 .cfa: sp 0 +
STACK CFI 59778 .cfa: x29 48 +
STACK CFI 59830 .cfa: sp 48 +
STACK CFI 5983c .cfa: sp 0 +
STACK CFI INIT 59840 320 .cfa: sp 0 +
STACK CFI 59844 .cfa: sp 64 +
STACK CFI 59854 .cfa: x29 64 + x19: .cfa -8 + ^ x20: .cfa -16 + ^ x21: .cfa -24 + ^ x22: .cfa -32 + ^ x23: .cfa -40 + ^ x24: .cfa -48 + ^ .ra: .cfa -56 + ^ x29: .cfa -64 + ^
STACK CFI 598d0 .cfa: sp 64 +
STACK CFI 598e0 .cfa: sp 0 +
STACK CFI 598e4 .cfa: x29 64 +
STACK CFI 59ab8 .cfa: sp 64 +
STACK CFI 59ac8 .cfa: sp 0 +
STACK CFI 59acc .cfa: x29 64 +
STACK CFI 59adc .cfa: sp 64 +
STACK CFI 59aec .cfa: sp 0 +
STACK CFI 59af0 .cfa: x29 64 +
STACK CFI INIT 59b60 a0 .cfa: sp 0 +
STACK CFI 59b64 .cfa: sp 48 +
STACK CFI 59b70 .cfa: x29 48 + x19: .cfa -8 + ^ x20: .cfa -16 + ^ x21: .cfa -24 + ^ x22: .cfa -32 + ^ .ra: .cfa -40 + ^ x29: .cfa -48 + ^
STACK CFI 59bdc .cfa: sp 48 +
STACK CFI 59be8 .cfa: sp 0 +
STACK CFI 59bec .cfa: sp 48 +
STACK CFI 59bf8 .cfa: sp 0 +
STACK CFI 59bfc .cfa: x29 48 +
STACK CFI INIT 5a884 168 .cfa: sp 0 +
STACK CFI 5a888 .cfa: sp 64 +
STACK CFI 5a898 .cfa: x29 64 + x19: .cfa -8 + ^ x20: .cfa -16 + ^ x21: .cfa -24 + ^ x22: .cfa -32 + ^ x23: .cfa -48 + ^ .ra: .cfa -56 + ^ x29: .cfa -64 + ^
STACK CFI 5a998 .cfa: sp 64 +
STACK CFI 5a9a8 .cfa: sp 0 +
STACK CFI 5a9ac .cfa: x29 64 +
STACK CFI INIT 5a9ec 134 .cfa: sp 0 +
STACK CFI 5a9f0 .cfa: sp 48 +
STACK CFI 5a9fc .cfa: x29 48 + x19: .cfa -8 + ^ x20: .cfa -16 + ^ x21: .cfa -24 + ^ x22: .cfa -32 + ^ .ra: .cfa -40 + ^ x29: .cfa -48 + ^
STACK CFI 5ab10 .cfa: sp 48 +
STACK CFI 5ab1c .cfa: sp 0 +
STACK CFI INIT 5af08 190 .cfa: sp 0 +
STACK CFI 5af0c .cfa: sp 80 +
STACK CFI 5af20 .cfa: x29 80 + x19: .cfa -8 + ^ x20: .cfa -16 + ^ x21: .cfa -24 + ^ x22: .cfa -32 + ^ x23: .cfa -40 + ^ x24: .cfa -48 + ^ x25: .cfa -64 + ^ .ra: .cfa -72 + ^ x29: .cfa -80 + ^
STACK CFI 5b05c .cfa: sp 80 +
STACK CFI 5b070 .cfa: sp 0 +
STACK CFI 5b074 .cfa: x29 80 +
STACK CFI 5b080 .cfa: sp 80 +
STACK CFI 5b094 .cfa: sp 0 +
STACK CFI INIT 5b2ac 280 .cfa: sp 0 +
STACK CFI 5b2b0 .cfa: sp 64 +
STACK CFI 5b2c0 .cfa: x29 64 + x19: .cfa -8 + ^ x20: .cfa -16 + ^ x21: .cfa -24 + ^ x22: .cfa -32 + ^ x23: .cfa -48 + ^ .ra: .cfa -56 + ^ x29: .cfa -64 + ^
STACK CFI 5b518 .cfa: sp 64 +
STACK CFI 5b528 .cfa: sp 0 +
STACK CFI INIT 5b52c 220 .cfa: sp 0 +
STACK CFI 5b530 .cfa: sp 128 +
STACK CFI 5b54c .cfa: x29 96 + x19: .cfa -8 + ^ x20: .cfa -16 + ^ x21: .cfa -24 + ^ x22: .cfa -32 + ^ x23: .cfa -40 + ^ x24: .cfa -48 + ^ x25: .cfa -56 + ^ x26: .cfa -64 + ^ x27: .cfa -80 + ^ .ra: .cfa -88 + ^ x29: .cfa -96 + ^
STACK CFI 5b6d0 .cfa: sp 128 +
STACK CFI 5b6ec .cfa: sp 0 +
STACK CFI 5b6f0 .cfa: x29 96 +
STACK CFI INIT 5b74c 6c4 .cfa: sp 0 +
STACK CFI 5b750 .cfa: sp 192 +
STACK CFI 5b760 .cfa: x29 48 + x19: .cfa -8 + ^ x20: .cfa -16 + ^ x21: .cfa -24 + ^ x22: .cfa -32 + ^ .ra: .cfa -40 + ^ x29: .cfa -48 + ^
STACK CFI 5b8c0 .cfa: sp 192 +
STACK CFI 5b8d0 .cfa: sp 0 +
STACK CFI 5b8d4 .cfa: x29 48 +
STACK CFI INIT 5be10 624 .cfa: sp 0 +
STACK CFI 5be14 .cfa: sp 336 +
STACK CFI 5be30 .cfa: x29 96 + x19: .cfa -8 + ^ x20: .cfa -16 + ^ x21: .cfa -24 + ^ x22: .cfa -32 + ^ x23: .cfa -40 + ^ x24: .cfa -48 + ^ x25: .cfa -56 + ^ x26: .cfa -64 + ^ x27: .cfa -72 + ^ x28: .cfa -80 + ^ .ra: .cfa -88 + ^ x29: .cfa -96 + ^
STACK CFI 5bed4 .cfa: sp 336 +
STACK CFI 5bef0 .cfa: sp 0 +
STACK CFI 5bef4 .cfa: x29 96 +
STACK CFI INIT 5c434 258 .cfa: sp 0 +
STACK CFI 5c438 .cfa: sp 112 +
STACK CFI 5c454 .cfa: x29 96 + x19: .cfa -8 + ^ x20: .cfa -16 + ^ x21: .cfa -24 + ^ x22: .cfa -32 + ^ x23: .cfa -40 + ^ x24: .cfa -48 + ^ x25: .cfa -56 + ^ x26: .cfa -64 + ^ x27: .cfa -72 + ^ x28: .cfa -80 + ^ .ra: .cfa -88 + ^ x29: .cfa -96 + ^
STACK CFI 5c654 .cfa: sp 112 +
STACK CFI 5c670 .cfa: sp 0 +
STACK CFI 5c674 .cfa: x29 96 +
STACK CFI INIT 5c68c fc .cfa: sp 0 +
STACK CFI 5c690 .cfa: sp 112 +
STACK CFI 5c6ac .cfa: x29 96 + x19: .cfa -8 + ^ x20: .cfa -16 + ^ x21: .cfa -24 + ^ x22: .cfa -32 + ^ x23: .cfa -40 + ^ x24: .cfa -48 + ^ x25: .cfa -56 + ^ x26: .cfa -64 + ^ x27: .cfa -72 + ^ x28: .cfa -80 + ^ .ra: .cfa -88 + ^ x29: .cfa -96 + ^
STACK CFI 5c768 .cfa: sp 112 +
STACK CFI 5c784 .cfa: sp 0 +
STACK CFI INIT 5c788 4b4 .cfa: sp 0 +
STACK CFI 5c78c .cfa: sp 96 +
STACK CFI 5c7a4 .cfa: x29 96 + x19: .cfa -8 + ^ x20: .cfa -16 + ^ x21: .cfa -24 + ^ x22: .cfa -32 + ^ x23: .cfa -40 + ^ x24: .cfa -48 + ^ x25: .cfa -56 + ^ x26: .cfa -64 + ^ x27: .cfa -72 + ^ x28: .cfa -80 + ^ .ra: .cfa -88 + ^ x29: .cfa -96 + ^
STACK CFI 5cbec .cfa: sp 96 +
STACK CFI 5cc04 .cfa: sp 0 +
STACK CFI 5cc08 .cfa: x29 96 +
STACK CFI INIT 5cc3c 1a4 .cfa: sp 0 +
STACK CFI 5cc40 .cfa: sp 64 +
STACK CFI 5cc4c .cfa: x29 32 + x19: .cfa -8 + ^ x20: .cfa -16 + ^ .ra: .cfa -24 + ^ x29: .cfa -32 + ^
STACK CFI 5cd78 .cfa: sp 64 +
STACK CFI 5cd84 .cfa: sp 0 +
STACK CFI 5cd88 .cfa: x29 32 +
STACK CFI INIT 5cde0 194 .cfa: sp 0 +
STACK CFI 5cde4 .cfa: sp 16 +
STACK CFI 5cde8 .cfa: x29 16 + .ra: .cfa -8 + ^ x29: .cfa -16 + ^
STACK CFI 5ce80 .cfa: sp 16 +
STACK CFI 5ce84 .cfa: sp 0 +
STACK CFI 5ce88 .cfa: x29 16 +
STACK CFI 5cf54 .cfa: sp 16 +
STACK CFI 5cf58 .cfa: sp 0 +
STACK CFI 5cf5c .cfa: x29 16 +
STACK CFI INIT 5cf74 9e8 .cfa: sp 0 +
STACK CFI 5cf78 .cfa: sp 160 +
STACK CFI 5cf90 .cfa: x29 80 + x19: .cfa -8 + ^ x20: .cfa -16 + ^ x21: .cfa -24 + ^ x22: .cfa -32 + ^ x23: .cfa -40 + ^ x24: .cfa -48 + ^ x25: .cfa -64 + ^ .ra: .cfa -72 + ^ x29: .cfa -80 + ^
STACK CFI 5d93c .cfa: sp 160 +
STACK CFI 5d954 .cfa: sp 0 +
STACK CFI 5d958 .cfa: x29 80 +
STACK CFI INIT 5d95c 19c .cfa: sp 0 +
STACK CFI 5d960 .cfa: sp 96 +
STACK CFI 5d974 .cfa: x29 64 + x19: .cfa -8 + ^ x20: .cfa -16 + ^ x21: .cfa -24 + ^ x22: .cfa -32 + ^ x23: .cfa -48 + ^ .ra: .cfa -56 + ^ x29: .cfa -64 + ^
STACK CFI 5dadc .cfa: sp 96 +
STACK CFI 5daf0 .cfa: sp 0 +
STACK CFI 5daf4 .cfa: x29 64 +
STACK CFI INIT 5daf8 1e8 .cfa: sp 0 +
STACK CFI 5dafc .cfa: sp 112 +
STACK CFI 5db14 .cfa: x29 80 + x19: .cfa -8 + ^ x20: .cfa -16 + ^ x21: .cfa -24 + ^ x22: .cfa -32 + ^ x23: .cfa -40 + ^ x24: .cfa -48 + ^ x25: .cfa -64 + ^ .ra: .cfa -72 + ^ x29: .cfa -80 + ^
STACK CFI 5dcc0 .cfa: sp 112 +
STACK CFI 5dcd8 .cfa: sp 0 +
STACK CFI 5dcdc .cfa: x29 80 +
STACK CFI INIT 5dce0 1ac .cfa: sp 0 +
STACK CFI 5dce4 .cfa: sp 96 +
STACK CFI 5dcf8 .cfa: x29 64 + x19: .cfa -8 + ^ x20: .cfa -16 + ^ x21: .cfa -24 + ^ x22: .cfa -32 + ^ x23: .cfa -40 + ^ x24: .cfa -48 + ^ .ra: .cfa -56 + ^ x29: .cfa -64 + ^
STACK CFI 5de70 .cfa: sp 96 +
STACK CFI 5de84 .cfa: sp 0 +
STACK CFI 5de88 .cfa: x29 64 +
STACK CFI INIT 5de8c 1b4 .cfa: sp 0 +
STACK CFI 5de90 .cfa: sp 144 +
STACK CFI 5dea4 .cfa: x29 64 + x19: .cfa -8 + ^ x20: .cfa -16 + ^ x21: .cfa -24 + ^ x22: .cfa -32 + ^ x23: .cfa -40 + ^ x24: .cfa -48 + ^ .ra: .cfa -56 + ^ x29: .cfa -64 + ^
STACK CFI 5e024 .cfa: sp 144 +
STACK CFI 5e038 .cfa: sp 0 +
STACK CFI 5e03c .cfa: x29 64 +
STACK CFI INIT 5e040 b00 .cfa: sp 0 +
STACK CFI 5e044 .cfa: sp 256 +
STACK CFI 5e060 .cfa: x29 96 + x19: .cfa -8 + ^ x20: .cfa -16 + ^ x21: .cfa -24 + ^ x22: .cfa -32 + ^ x23: .cfa -40 + ^ x24: .cfa -48 + ^ x25: .cfa -56 + ^ x26: .cfa -64 + ^ x27: .cfa -72 + ^ x28: .cfa -80 + ^ .ra: .cfa -88 + ^ x29: .cfa -96 + ^
STACK CFI 5eb1c .cfa: sp 256 +
STACK CFI 5eb38 .cfa: sp 0 +
STACK CFI 5eb3c .cfa: x29 96 +
STACK CFI INIT 5eb40 1d4 .cfa: sp 0 +
STACK CFI 5eb44 .cfa: sp 144 +
STACK CFI 5eb60 .cfa: x29 96 + x19: .cfa -8 + ^ x20: .cfa -16 + ^ x21: .cfa -24 + ^ x22: .cfa -32 + ^ x23: .cfa -40 + ^ x24: .cfa -48 + ^ x25: .cfa -56 + ^ x26: .cfa -64 + ^ x27: .cfa -80 + ^ .ra: .cfa -88 + ^ x29: .cfa -96 + ^
STACK CFI 5ecf0 .cfa: sp 144 +
STACK CFI 5ed0c .cfa: sp 0 +
STACK CFI 5ed10 .cfa: x29 96 +
STACK CFI INIT 5ed14 200 .cfa: sp 0 +
STACK CFI 5ed18 .cfa: sp 128 +
STACK CFI 5ed30 .cfa: x29 80 + x19: .cfa -8 + ^ x20: .cfa -16 + ^ x21: .cfa -24 + ^ x22: .cfa -32 + ^ x23: .cfa -40 + ^ x24: .cfa -48 + ^ x25: .cfa -56 + ^ x26: .cfa -64 + ^ .ra: .cfa -72 + ^ x29: .cfa -80 + ^
STACK CFI 5eef4 .cfa: sp 128 +
STACK CFI 5ef0c .cfa: sp 0 +
STACK CFI 5ef10 .cfa: x29 80 +
STACK CFI INIT 5ef14 1cc .cfa: sp 0 +
STACK CFI 5ef18 .cfa: sp 144 +
STACK CFI 5ef30 .cfa: x29 80 + x19: .cfa -8 + ^ x20: .cfa -16 + ^ x21: .cfa -24 + ^ x22: .cfa -32 + ^ x23: .cfa -40 + ^ x24: .cfa -48 + ^ x25: .cfa -64 + ^ .ra: .cfa -72 + ^ x29: .cfa -80 + ^
STACK CFI 5f0c0 .cfa: sp 144 +
STACK CFI 5f0d8 .cfa: sp 0 +
STACK CFI 5f0dc .cfa: x29 80 +
STACK CFI INIT 5f0e0 1d8 .cfa: sp 0 +
STACK CFI 5f0e4 .cfa: sp 224 +
STACK CFI 5f0fc .cfa: x29 80 + x19: .cfa -8 + ^ x20: .cfa -16 + ^ x21: .cfa -24 + ^ x22: .cfa -32 + ^ x23: .cfa -40 + ^ x24: .cfa -48 + ^ x25: .cfa -64 + ^ .ra: .cfa -72 + ^ x29: .cfa -80 + ^
STACK CFI 5f298 .cfa: sp 224 +
STACK CFI 5f2b0 .cfa: sp 0 +
STACK CFI 5f2b4 .cfa: x29 80 +
STACK CFI INIT 5f2b8 138 .cfa: sp 0 +
STACK CFI 5f2bc .cfa: sp 112 +
STACK CFI 5f2d0 .cfa: x29 64 + x19: .cfa -8 + ^ x20: .cfa -16 + ^ x21: .cfa -24 + ^ x22: .cfa -32 + ^ x23: .cfa -48 + ^ .ra: .cfa -56 + ^ x29: .cfa -64 + ^
STACK CFI 5f3b8 .cfa: sp 112 +
STACK CFI 5f3cc .cfa: sp 0 +
STACK CFI 5f3d0 .cfa: x29 64 +
STACK CFI INIT 5f788 520 .cfa: sp 0 +
STACK CFI 5f78c .cfa: sp 144 +
STACK CFI 5f7a8 .cfa: x29 96 + x19: .cfa -8 + ^ x20: .cfa -16 + ^ x21: .cfa -24 + ^ x22: .cfa -32 + ^ x23: .cfa -40 + ^ x24: .cfa -48 + ^ x25: .cfa -56 + ^ x26: .cfa -64 + ^ x27: .cfa -72 + ^ x28: .cfa -80 + ^ .ra: .cfa -88 + ^ x29: .cfa -96 + ^
STACK CFI 5fc84 .cfa: sp 144 +
STACK CFI 5fca0 .cfa: sp 0 +
STACK CFI 5fca4 .cfa: x29 96 +
STACK CFI INIT 604a0 20c .cfa: sp 0 +
STACK CFI 604a4 .cfa: sp 96 +
STACK CFI 604b8 .cfa: x29 64 + x19: .cfa -8 + ^ x20: .cfa -16 + ^ x21: .cfa -24 + ^ x22: .cfa -32 + ^ x23: .cfa -40 + ^ x24: .cfa -48 + ^ .ra: .cfa -56 + ^ x29: .cfa -64 + ^
STACK CFI 60664 .cfa: sp 96 +
STACK CFI 60678 .cfa: sp 0 +
STACK CFI 6067c .cfa: x29 64 +
STACK CFI INIT 60a38 17c .cfa: sp 0 +
STACK CFI 60a3c .cfa: sp 80 +
STACK CFI 60a50 .cfa: x29 80 + x19: .cfa -8 + ^ x20: .cfa -16 + ^ x21: .cfa -24 + ^ x22: .cfa -32 + ^ x23: .cfa -40 + ^ x24: .cfa -48 + ^ x25: .cfa -64 + ^ .ra: .cfa -72 + ^ x29: .cfa -80 + ^
STACK CFI 60b58 .cfa: sp 80 +
STACK CFI 60b6c .cfa: sp 0 +
STACK CFI 60b70 .cfa: x29 80 +
STACK CFI INIT 61cf8 11c .cfa: sp 0 +
STACK CFI 61cfc .cfa: sp 64 +
STACK CFI 61d0c .cfa: x29 64 + x19: .cfa -8 + ^ x20: .cfa -16 + ^ x21: .cfa -24 + ^ x22: .cfa -32 + ^ x23: .cfa -40 + ^ x24: .cfa -48 + ^ .ra: .cfa -56 + ^ x29: .cfa -64 + ^
STACK CFI 61da0 .cfa: sp 64 +
STACK CFI 61db0 .cfa: sp 0 +
STACK CFI 61db4 .cfa: x29 64 +
STACK CFI 61e00 .cfa: sp 64 +
STACK CFI 61e10 .cfa: sp 0 +
STACK CFI INIT 62440 11c .cfa: sp 0 +
STACK CFI 62444 .cfa: sp 64 +
STACK CFI 62454 .cfa: x29 64 + x19: .cfa -8 + ^ x20: .cfa -16 + ^ x21: .cfa -24 + ^ x22: .cfa -32 + ^ x23: .cfa -40 + ^ x24: .cfa -48 + ^ .ra: .cfa -56 + ^ x29: .cfa -64 + ^
STACK CFI 624e8 .cfa: sp 64 +
STACK CFI 624f8 .cfa: sp 0 +
STACK CFI 624fc .cfa: x29 64 +
STACK CFI 62548 .cfa: sp 64 +
STACK CFI 62558 .cfa: sp 0 +
STACK CFI INIT 31440 f0 .cfa: sp 0 +
STACK CFI 31444 .cfa: sp 96 +
STACK CFI 31454 .cfa: x29 48 + x19: .cfa -8 + ^ x20: .cfa -16 + ^ x21: .cfa -24 + ^ x22: .cfa -32 + ^ .ra: .cfa -40 + ^ x29: .cfa -48 + ^
STACK CFI 314f4 .cfa: sp 96 +
STACK CFI 31504 .cfa: sp 0 +
STACK CFI 31508 .cfa: x29 48 +
STACK CFI INIT 31570 480 .cfa: sp 0 +
STACK CFI 31574 .cfa: sp 224 +
STACK CFI 31590 .cfa: x29 96 + x19: .cfa -8 + ^ x20: .cfa -16 + ^ x21: .cfa -24 + ^ x22: .cfa -32 + ^ x23: .cfa -40 + ^ x24: .cfa -48 + ^ x25: .cfa -56 + ^ x26: .cfa -64 + ^ x27: .cfa -80 + ^ .ra: .cfa -88 + ^ x29: .cfa -96 + ^
STACK CFI 317fc .cfa: sp 224 +
STACK CFI 31818 .cfa: sp 0 +
STACK CFI 3181c .cfa: x29 96 +
STACK CFI 318e8 .cfa: sp 224 +
STACK CFI 31904 .cfa: sp 0 +
STACK CFI 31908 .cfa: x29 96 +
STACK CFI INIT 31a64 50 .cfa: sp 0 +
STACK CFI 31a68 .cfa: sp 32 +
STACK CFI 31a70 .cfa: x29 32 + x19: .cfa -8 + ^ x20: .cfa -16 + ^ .ra: .cfa -24 + ^ x29: .cfa -32 + ^
STACK CFI INIT 31ba8 31c .cfa: sp 0 +
STACK CFI 31bac .cfa: sp 192 +
STACK CFI 31bc0 .cfa: x29 64 + x19: .cfa -8 + ^ x20: .cfa -16 + ^ x21: .cfa -24 + ^ x22: .cfa -32 + ^ x23: .cfa -48 + ^ .ra: .cfa -56 + ^ x29: .cfa -64 + ^
STACK CFI 31dbc .cfa: sp 192 +
STACK CFI 31dd0 .cfa: sp 0 +
STACK CFI 31dd4 .cfa: x29 64 +
STACK CFI INIT 31f14 74 .cfa: sp 0 +
STACK CFI 31f18 .cfa: sp 48 +
STACK CFI 31f24 .cfa: x29 32 + x19: .cfa -8 + ^ x20: .cfa -16 + ^ .ra: .cfa -24 + ^ x29: .cfa -32 + ^
STACK CFI 31f70 .cfa: sp 48 +
STACK CFI 31f7c .cfa: sp 0 +
STACK CFI 31f80 .cfa: x29 32 +
STACK CFI INIT 32008 154 .cfa: sp 0 +
STACK CFI 3200c .cfa: sp 384 +
STACK CFI 32020 .cfa: x29 64 + x19: .cfa -8 + ^ x20: .cfa -16 + ^ x21: .cfa -24 + ^ x22: .cfa -32 + ^ x23: .cfa -40 + ^ x28: .cfa -48 + ^ .ra: .cfa -56 + ^ x29: .cfa -64 + ^
STACK CFI 32104 .cfa: sp 384 +
STACK CFI 32118 .cfa: sp 0 +
STACK CFI 3211c .cfa: x29 64 +
STACK CFI INIT 32190 12c .cfa: sp 0 +
STACK CFI 32194 .cfa: sp 80 +
STACK CFI 321a8 .cfa: x29 80 + x19: .cfa -8 + ^ x20: .cfa -16 + ^ x21: .cfa -24 + ^ x22: .cfa -32 + ^ x23: .cfa -40 + ^ x24: .cfa -48 + ^ x25: .cfa -56 + ^ x26: .cfa -64 + ^ .ra: .cfa -72 + ^ x29: .cfa -80 + ^
STACK CFI 32270 .cfa: sp 80 +
STACK CFI 32284 .cfa: sp 0 +
STACK CFI 32288 .cfa: x29 80 +
STACK CFI INIT 32360 1a4 .cfa: sp 0 +
STACK CFI 32364 .cfa: sp 112 +
STACK CFI 3237c .cfa: x29 80 + x19: .cfa -8 + ^ x20: .cfa -16 + ^ x21: .cfa -24 + ^ x22: .cfa -32 + ^ x23: .cfa -40 + ^ x24: .cfa -48 + ^ x25: .cfa -56 + ^ x26: .cfa -64 + ^ .ra: .cfa -72 + ^ x29: .cfa -80 + ^
STACK CFI 3246c .cfa: sp 112 +
STACK CFI 32484 .cfa: sp 0 +
STACK CFI 32488 .cfa: x29 80 +
STACK CFI INIT 32504 1dc .cfa: sp 0 +
STACK CFI 32508 .cfa: sp 128 +
STACK CFI 32524 .cfa: x29 96 + x19: .cfa -8 + ^ x20: .cfa -16 + ^ x21: .cfa -24 + ^ x22: .cfa -32 + ^ x23: .cfa -40 + ^ x24: .cfa -48 + ^ x25: .cfa -56 + ^ x26: .cfa -64 + ^ x27: .cfa -80 + ^ .ra: .cfa -88 + ^ x29: .cfa -96 + ^
STACK CFI 32690 .cfa: sp 128 +
STACK CFI 326ac .cfa: sp 0 +
STACK CFI 326b0 .cfa: x29 96 +
STACK CFI INIT 326e0 178 .cfa: sp 0 +
STACK CFI 326e4 .cfa: sp 80 +
STACK CFI 326f8 .cfa: x29 80 + x19: .cfa -8 + ^ x20: .cfa -16 + ^ x21: .cfa -24 + ^ x22: .cfa -32 + ^ x23: .cfa -40 + ^ x24: .cfa -48 + ^ x25: .cfa -64 + ^ .ra: .cfa -72 + ^ x29: .cfa -80 + ^
STACK CFI 32824 .cfa: sp 80 +
STACK CFI 32838 .cfa: sp 0 +
STACK CFI 3283c .cfa: x29 80 +
STACK CFI INIT 329a0 228 .cfa: sp 0 +
STACK CFI 329a4 .cfa: sp 128 +
STACK CFI 329bc .cfa: x29 80 + x19: .cfa -8 + ^ x20: .cfa -16 + ^ x21: .cfa -24 + ^ x22: .cfa -32 + ^ x23: .cfa -40 + ^ x24: .cfa -48 + ^ x25: .cfa -64 + ^ .ra: .cfa -72 + ^ x29: .cfa -80 + ^
STACK CFI 32b58 .cfa: sp 128 +
STACK CFI 32b70 .cfa: sp 0 +
STACK CFI 32b74 .cfa: x29 80 +
STACK CFI INIT 332a4 178 .cfa: sp 0 +
STACK CFI 332a8 .cfa: sp 96 +
STACK CFI 332bc .cfa: x29 64 + x19: .cfa -8 + ^ x20: .cfa -16 + ^ x21: .cfa -24 + ^ x22: .cfa -32 + ^ x23: .cfa -48 + ^ .ra: .cfa -56 + ^ x29: .cfa -64 + ^
STACK CFI 333d4 .cfa: sp 96 +
STACK CFI 333e8 .cfa: sp 0 +
STACK CFI 333ec .cfa: x29 64 +
STACK CFI INIT 3341c ac .cfa: sp 0 +
STACK CFI 33420 .cfa: sp 32 +
STACK CFI 33428 .cfa: x29 32 + x19: .cfa -8 + ^ x20: .cfa -16 + ^ .ra: .cfa -24 + ^ x29: .cfa -32 + ^
STACK CFI 33460 .cfa: sp 32 +
STACK CFI 33468 .cfa: sp 0 +
STACK CFI 3346c .cfa: x29 32 +
STACK CFI 33470 .cfa: sp 32 +
STACK CFI 33478 .cfa: sp 0 +
STACK CFI 3347c .cfa: x29 32 +
STACK CFI INIT 33618 e0 .cfa: sp 0 +
STACK CFI 3361c .cfa: sp 64 +
STACK CFI 33628 .cfa: x29 32 + x19: .cfa -8 + ^ x20: .cfa -16 + ^ .ra: .cfa -24 + ^ x29: .cfa -32 + ^
STACK CFI 336b0 .cfa: sp 64 +
STACK CFI 336bc .cfa: sp 0 +
STACK CFI 336c0 .cfa: x29 32 +
STACK CFI INIT 33a20 67c .cfa: sp 0 +
STACK CFI 33a24 .cfa: sp 224 +
STACK CFI 33a40 .cfa: x29 96 + x19: .cfa -8 + ^ x20: .cfa -16 + ^ x21: .cfa -24 + ^ x22: .cfa -32 + ^ x23: .cfa -40 + ^ x24: .cfa -48 + ^ x25: .cfa -56 + ^ x26: .cfa -64 + ^ x27: .cfa -80 + ^ .ra: .cfa -88 + ^ x29: .cfa -96 + ^
STACK CFI 33b7c .cfa: sp 224 +
STACK CFI 33b98 .cfa: sp 0 +
STACK CFI 33b9c .cfa: x29 96 +
STACK CFI 33f5c .cfa: sp 224 +
STACK CFI 33f78 .cfa: sp 0 +
STACK CFI 33f7c .cfa: x29 96 +
STACK CFI INIT 340b8 3cc .cfa: sp 0 +
STACK CFI 340bc .cfa: sp 256 +
STACK CFI 340d0 .cfa: x29 64 + x19: .cfa -8 + ^ x20: .cfa -16 + ^ x21: .cfa -24 + ^ x22: .cfa -32 + ^ x23: .cfa -48 + ^ .ra: .cfa -56 + ^ x29: .cfa -64 + ^
STACK CFI 3434c .cfa: sp 256 +
STACK CFI 34360 .cfa: sp 0 +
STACK CFI 34364 .cfa: x29 64 +
STACK CFI INIT 34488 1f4 .cfa: sp 0 +
STACK CFI 3448c .cfa: sp 128 +
STACK CFI 344a8 .cfa: x29 96 + x19: .cfa -8 + ^ x20: .cfa -16 + ^ x21: .cfa -24 + ^ x22: .cfa -32 + ^ x23: .cfa -40 + ^ x24: .cfa -48 + ^ x25: .cfa -56 + ^ x26: .cfa -64 + ^ x27: .cfa -72 + ^ x28: .cfa -80 + ^ .ra: .cfa -88 + ^ x29: .cfa -96 + ^
STACK CFI 34634 .cfa: sp 128 +
STACK CFI 34650 .cfa: sp 0 +
STACK CFI 34654 .cfa: x29 96 +
STACK CFI INIT 346f8 168 .cfa: sp 0 +
STACK CFI 346fc .cfa: sp 384 +
STACK CFI 34710 .cfa: x29 64 + x19: .cfa -8 + ^ x20: .cfa -16 + ^ x21: .cfa -24 + ^ x22: .cfa -32 + ^ x23: .cfa -40 + ^ x28: .cfa -48 + ^ .ra: .cfa -56 + ^ x29: .cfa -64 + ^
STACK CFI 34808 .cfa: sp 384 +
STACK CFI 3481c .cfa: sp 0 +
STACK CFI 34820 .cfa: x29 64 +
STACK CFI INIT 34878 698 .cfa: sp 0 +
STACK CFI 3487c .cfa: sp 128 +
STACK CFI 3489c .cfa: x29 96 + x19: .cfa -8 + ^ x20: .cfa -16 + ^ x21: .cfa -24 + ^ x22: .cfa -32 + ^ x23: .cfa -40 + ^ x24: .cfa -48 + ^ x25: .cfa -56 + ^ x26: .cfa -64 + ^ x27: .cfa -72 + ^ x28: .cfa -80 + ^ .ra: .cfa -88 + ^ x29: .cfa -96 + ^ v8: .cfa -104 + ^ v9: .cfa -112 + ^ v10: .cfa -128 + ^
STACK CFI 34e24 .cfa: sp 128 +
STACK CFI 34e44 .cfa: sp 0 +
STACK CFI 34e48 .cfa: x29 96 +
STACK CFI INIT 34f24 1bc .cfa: sp 0 +
STACK CFI 34f28 .cfa: sp 48 +
STACK CFI 34f34 .cfa: x29 48 + x19: .cfa -8 + ^ x20: .cfa -16 + ^ x21: .cfa -32 + ^ .ra: .cfa -40 + ^ x29: .cfa -48 + ^
STACK CFI 35034 .cfa: sp 48 +
STACK CFI 35040 .cfa: sp 0 +
STACK CFI 35044 .cfa: x29 48 +
STACK CFI INIT 35164 fc .cfa: sp 0 +
STACK CFI 35168 .cfa: sp 112 +
STACK CFI 35180 .cfa: x29 80 + x19: .cfa -8 + ^ x20: .cfa -16 + ^ x21: .cfa -24 + ^ x22: .cfa -32 + ^ x23: .cfa -40 + ^ x24: .cfa -48 + ^ x25: .cfa -64 + ^ .ra: .cfa -72 + ^ x29: .cfa -80 + ^
STACK CFI 3520c .cfa: sp 112 +
STACK CFI 35224 .cfa: sp 0 +
STACK CFI 35228 .cfa: x29 80 +
STACK CFI INIT 353f8 1e4 .cfa: sp 0 +
STACK CFI 353fc .cfa: sp 160 +
STACK CFI 3540c .cfa: x29 48 + x19: .cfa -8 + ^ x20: .cfa -16 + ^ x21: .cfa -24 + ^ x22: .cfa -32 + ^ .ra: .cfa -40 + ^ x29: .cfa -48 + ^
STACK CFI 3556c .cfa: sp 160 +
STACK CFI 3557c .cfa: sp 0 +
STACK CFI 35580 .cfa: x29 48 +
STACK CFI INIT 355dc 74 .cfa: sp 0 +
STACK CFI 355e0 .cfa: sp 48 +
STACK CFI 355ec .cfa: x29 32 + x19: .cfa -8 + ^ x20: .cfa -16 + ^ .ra: .cfa -24 + ^ x29: .cfa -32 + ^
STACK CFI 35638 .cfa: sp 48 +
STACK CFI 35644 .cfa: sp 0 +
STACK CFI 35648 .cfa: x29 32 +
STACK CFI INIT 35650 74 .cfa: sp 0 +
STACK CFI 35654 .cfa: sp 48 +
STACK CFI 35660 .cfa: x29 32 + x19: .cfa -8 + ^ x20: .cfa -16 + ^ .ra: .cfa -24 + ^ x29: .cfa -32 + ^
STACK CFI 356ac .cfa: sp 48 +
STACK CFI 356b8 .cfa: sp 0 +
STACK CFI 356bc .cfa: x29 32 +
STACK CFI INIT 356c4 454 .cfa: sp 0 +
STACK CFI 356c8 .cfa: sp 432 +
STACK CFI 356e4 .cfa: x29 96 + x19: .cfa -8 + ^ x20: .cfa -16 + ^ x21: .cfa -24 + ^ x22: .cfa -32 + ^ x23: .cfa -40 + ^ x24: .cfa -48 + ^ x25: .cfa -56 + ^ x26: .cfa -64 + ^ x27: .cfa -72 + ^ x28: .cfa -80 + ^ .ra: .cfa -88 + ^ x29: .cfa -96 + ^
STACK CFI 359e8 .cfa: sp 432 +
STACK CFI 35a04 .cfa: sp 0 +
STACK CFI 35a08 .cfa: x29 96 +
STACK CFI INIT 35ce0 74 .cfa: sp 0 +
STACK CFI 35ce4 .cfa: sp 48 +
STACK CFI 35cf0 .cfa: x29 32 + x19: .cfa -8 + ^ x20: .cfa -16 + ^ .ra: .cfa -24 + ^ x29: .cfa -32 + ^
STACK CFI 35d3c .cfa: sp 48 +
STACK CFI 35d48 .cfa: sp 0 +
STACK CFI 35d4c .cfa: x29 32 +
STACK CFI INIT 35e1c 798 .cfa: sp 0 +
STACK CFI 35e20 .cfa: sp 96 +
STACK CFI 35e38 .cfa: x29 96 + x19: .cfa -8 + ^ x20: .cfa -16 + ^ x21: .cfa -24 + ^ x22: .cfa -32 + ^ x23: .cfa -40 + ^ x24: .cfa -48 + ^ x25: .cfa -56 + ^ x26: .cfa -64 + ^ x28: .cfa -80 + ^ .ra: .cfa -88 + ^ x29: .cfa -96 + ^
STACK CFI 36434 .cfa: sp 96 +
STACK CFI 3644c .cfa: sp 0 +
STACK CFI 36450 .cfa: x29 96 +
STACK CFI INIT 365b4 104 .cfa: sp 0 +
STACK CFI 365b8 .cfa: sp 112 +
STACK CFI 365c4 .cfa: x29 32 + x19: .cfa -8 + ^ x20: .cfa -16 + ^ .ra: .cfa -24 + ^ x29: .cfa -32 + ^
STACK CFI 36688 .cfa: sp 112 +
STACK CFI 36694 .cfa: sp 0 +
STACK CFI 36698 .cfa: x29 32 +
STACK CFI INIT 366b8 108 .cfa: sp 0 +
STACK CFI 366bc .cfa: sp 112 +
STACK CFI 366c8 .cfa: x29 32 + x19: .cfa -8 + ^ x20: .cfa -16 + ^ .ra: .cfa -24 + ^ x29: .cfa -32 + ^
STACK CFI 36790 .cfa: sp 112 +
STACK CFI 3679c .cfa: sp 0 +
STACK CFI 367a0 .cfa: x29 32 +
STACK CFI INIT 367c0 74 .cfa: sp 0 +
STACK CFI 367c4 .cfa: sp 48 +
STACK CFI 367d0 .cfa: x29 32 + x19: .cfa -8 + ^ x20: .cfa -16 + ^ .ra: .cfa -24 + ^ x29: .cfa -32 + ^
STACK CFI 3681c .cfa: sp 48 +
STACK CFI 36828 .cfa: sp 0 +
STACK CFI 3682c .cfa: x29 32 +
STACK CFI INIT 36834 74 .cfa: sp 0 +
STACK CFI 36838 .cfa: sp 48 +
STACK CFI 36844 .cfa: x29 32 + x19: .cfa -8 + ^ x20: .cfa -16 + ^ .ra: .cfa -24 + ^ x29: .cfa -32 + ^
STACK CFI 36890 .cfa: sp 48 +
STACK CFI 3689c .cfa: sp 0 +
STACK CFI 368a0 .cfa: x29 32 +
STACK CFI INIT 368a8 74 .cfa: sp 0 +
STACK CFI 368ac .cfa: sp 48 +
STACK CFI 368b8 .cfa: x29 32 + x19: .cfa -8 + ^ x20: .cfa -16 + ^ .ra: .cfa -24 + ^ x29: .cfa -32 + ^
STACK CFI 36904 .cfa: sp 48 +
STACK CFI 36910 .cfa: sp 0 +
STACK CFI 36914 .cfa: x29 32 +
STACK CFI INIT 36d18 140 .cfa: sp 0 +
STACK CFI 36d1c .cfa: sp 144 +
STACK CFI 36d30 .cfa: x29 64 + x19: .cfa -8 + ^ x20: .cfa -16 + ^ x21: .cfa -24 + ^ x22: .cfa -32 + ^ x23: .cfa -40 + ^ x24: .cfa -48 + ^ .ra: .cfa -56 + ^ x29: .cfa -64 + ^
STACK CFI 36dec .cfa: sp 144 +
STACK CFI 36e00 .cfa: sp 0 +
STACK CFI 36e04 .cfa: x29 64 +
STACK CFI INIT 36e9c 38 .cfa: sp 0 +
STACK CFI 36ea0 .cfa: sp 16 +
STACK CFI 36ea4 .cfa: x29 16 + .ra: .cfa -8 + ^ x29: .cfa -16 + ^
STACK CFI 36ec8 .cfa: sp 16 +
STACK CFI 36ecc .cfa: sp 0 +
STACK CFI 36ed0 .cfa: x29 16 +
STACK CFI INIT 3706c 1c8 .cfa: sp 0 +
STACK CFI 37070 .cfa: sp 144 +
STACK CFI 37084 .cfa: x29 64 + x19: .cfa -8 + ^ x20: .cfa -16 + ^ x21: .cfa -24 + ^ x22: .cfa -32 + ^ x23: .cfa -48 + ^ .ra: .cfa -56 + ^ x29: .cfa -64 + ^
STACK CFI 371d0 .cfa: sp 144 +
STACK CFI 371e4 .cfa: sp 0 +
STACK CFI 371e8 .cfa: x29 64 +
STACK CFI INIT 373e4 410 .cfa: sp 0 +
STACK CFI 373e8 .cfa: sp 432 +
STACK CFI 37404 .cfa: x29 96 + x19: .cfa -8 + ^ x20: .cfa -16 + ^ x21: .cfa -24 + ^ x22: .cfa -32 + ^ x23: .cfa -40 + ^ x24: .cfa -48 + ^ x25: .cfa -56 + ^ x26: .cfa -64 + ^ x27: .cfa -72 + ^ x28: .cfa -80 + ^ .ra: .cfa -88 + ^ x29: .cfa -96 + ^
STACK CFI 376fc .cfa: sp 432 +
STACK CFI 37718 .cfa: sp 0 +
STACK CFI 3771c .cfa: x29 96 +
STACK CFI INIT 377f4 1b4 .cfa: sp 0 +
STACK CFI 377f8 .cfa: sp 128 +
STACK CFI 3780c .cfa: x29 64 + x19: .cfa -8 + ^ x20: .cfa -16 + ^ x21: .cfa -24 + ^ x22: .cfa -32 + ^ x23: .cfa -48 + ^ .ra: .cfa -56 + ^ x29: .cfa -64 + ^
STACK CFI 3794c .cfa: sp 128 +
STACK CFI 37960 .cfa: sp 0 +
STACK CFI 37964 .cfa: x29 64 +
STACK CFI INIT 379a8 c4 .cfa: sp 0 +
STACK CFI 379ac .cfa: sp 64 +
STACK CFI 379bc .cfa: x29 64 + x19: .cfa -8 + ^ x20: .cfa -16 + ^ x21: .cfa -24 + ^ x22: .cfa -32 + ^ x23: .cfa -40 + ^ x24: .cfa -48 + ^ .ra: .cfa -56 + ^ x29: .cfa -64 + ^
STACK CFI 37a34 .cfa: sp 64 +
STACK CFI 37a44 .cfa: sp 0 +
STACK CFI 37a48 .cfa: x29 64 +
STACK CFI INIT 37a6c 18c .cfa: sp 0 +
STACK CFI 37a70 .cfa: sp 112 +
STACK CFI 37a88 .cfa: x29 80 + x19: .cfa -8 + ^ x20: .cfa -16 + ^ x21: .cfa -24 + ^ x22: .cfa -32 + ^ x23: .cfa -40 + ^ x24: .cfa -48 + ^ x25: .cfa -64 + ^ .ra: .cfa -72 + ^ x29: .cfa -80 + ^
STACK CFI 37b5c .cfa: sp 112 +
STACK CFI 37b74 .cfa: sp 0 +
STACK CFI 37b78 .cfa: x29 80 +
STACK CFI INIT 37bf8 18c .cfa: sp 0 +
STACK CFI 37bfc .cfa: sp 112 +
STACK CFI 37c14 .cfa: x29 80 + x19: .cfa -8 + ^ x20: .cfa -16 + ^ x21: .cfa -24 + ^ x22: .cfa -32 + ^ x23: .cfa -40 + ^ x24: .cfa -48 + ^ x25: .cfa -64 + ^ .ra: .cfa -72 + ^ x29: .cfa -80 + ^
STACK CFI 37ce8 .cfa: sp 112 +
STACK CFI 37d00 .cfa: sp 0 +
STACK CFI 37d04 .cfa: x29 80 +
STACK CFI INIT 37d84 c4 .cfa: sp 0 +
STACK CFI 37d88 .cfa: sp 64 +
STACK CFI 37d98 .cfa: x29 64 + x19: .cfa -8 + ^ x20: .cfa -16 + ^ x21: .cfa -24 + ^ x22: .cfa -32 + ^ x23: .cfa -40 + ^ x24: .cfa -48 + ^ .ra: .cfa -56 + ^ x29: .cfa -64 + ^
STACK CFI 37e10 .cfa: sp 64 +
STACK CFI 37e20 .cfa: sp 0 +
STACK CFI 37e24 .cfa: x29 64 +
STACK CFI INIT 37e48 18c .cfa: sp 0 +
STACK CFI 37e4c .cfa: sp 112 +
STACK CFI 37e64 .cfa: x29 80 + x19: .cfa -8 + ^ x20: .cfa -16 + ^ x21: .cfa -24 + ^ x22: .cfa -32 + ^ x23: .cfa -40 + ^ x24: .cfa -48 + ^ x25: .cfa -64 + ^ .ra: .cfa -72 + ^ x29: .cfa -80 + ^
STACK CFI 37f38 .cfa: sp 112 +
STACK CFI 37f50 .cfa: sp 0 +
STACK CFI 37f54 .cfa: x29 80 +
STACK CFI INIT 37fd4 c4 .cfa: sp 0 +
STACK CFI 37fd8 .cfa: sp 64 +
STACK CFI 37fe8 .cfa: x29 64 + x19: .cfa -8 + ^ x20: .cfa -16 + ^ x21: .cfa -24 + ^ x22: .cfa -32 + ^ x23: .cfa -40 + ^ x24: .cfa -48 + ^ .ra: .cfa -56 + ^ x29: .cfa -64 + ^
STACK CFI 38060 .cfa: sp 64 +
STACK CFI 38070 .cfa: sp 0 +
STACK CFI 38074 .cfa: x29 64 +
STACK CFI INIT 38098 164 .cfa: sp 0 +
STACK CFI 3809c .cfa: sp 112 +
STACK CFI 380b4 .cfa: x29 80 + x19: .cfa -8 + ^ x20: .cfa -16 + ^ x21: .cfa -24 + ^ x22: .cfa -32 + ^ x23: .cfa -40 + ^ x24: .cfa -48 + ^ x25: .cfa -64 + ^ .ra: .cfa -72 + ^ x29: .cfa -80 + ^
STACK CFI 38170 .cfa: sp 112 +
STACK CFI 38188 .cfa: sp 0 +
STACK CFI 3818c .cfa: x29 80 +
STACK CFI INIT 381fc c8 .cfa: sp 0 +
STACK CFI 38200 .cfa: sp 64 +
STACK CFI 38210 .cfa: x29 64 + x19: .cfa -8 + ^ x20: .cfa -16 + ^ x21: .cfa -24 + ^ x22: .cfa -32 + ^ x23: .cfa -40 + ^ x24: .cfa -48 + ^ .ra: .cfa -56 + ^ x29: .cfa -64 + ^
STACK CFI 3828c .cfa: sp 64 +
STACK CFI 3829c .cfa: sp 0 +
STACK CFI 382a0 .cfa: x29 64 +
STACK CFI INIT 38300 1a4 .cfa: sp 0 +
STACK CFI 38304 .cfa: sp 112 +
STACK CFI 38318 .cfa: x29 64 + x19: .cfa -8 + ^ x20: .cfa -16 + ^ x21: .cfa -24 + ^ x22: .cfa -32 + ^ x23: .cfa -40 + ^ x24: .cfa -48 + ^ .ra: .cfa -56 + ^ x29: .cfa -64 + ^
STACK CFI 38424 .cfa: sp 112 +
STACK CFI 38438 .cfa: sp 0 +
STACK CFI 3843c .cfa: x29 64 +
STACK CFI INIT 385c0 67c .cfa: sp 0 +
STACK CFI 385c4 .cfa: sp 224 +
STACK CFI 385e0 .cfa: x29 96 + x19: .cfa -8 + ^ x20: .cfa -16 + ^ x21: .cfa -24 + ^ x22: .cfa -32 + ^ x23: .cfa -40 + ^ x24: .cfa -48 + ^ x25: .cfa -56 + ^ x26: .cfa -64 + ^ x27: .cfa -80 + ^ .ra: .cfa -88 + ^ x29: .cfa -96 + ^
STACK CFI 3871c .cfa: sp 224 +
STACK CFI 38738 .cfa: sp 0 +
STACK CFI 3873c .cfa: x29 96 +
STACK CFI 38afc .cfa: sp 224 +
STACK CFI 38b18 .cfa: sp 0 +
STACK CFI 38b1c .cfa: x29 96 +
STACK CFI INIT 38c58 388 .cfa: sp 0 +
STACK CFI 38c5c .cfa: sp 256 +
STACK CFI 38c70 .cfa: x29 64 + x19: .cfa -8 + ^ x20: .cfa -16 + ^ x21: .cfa -24 + ^ x22: .cfa -32 + ^ x23: .cfa -48 + ^ .ra: .cfa -56 + ^ x29: .cfa -64 + ^
STACK CFI 38eb4 .cfa: sp 256 +
STACK CFI 38ec8 .cfa: sp 0 +
STACK CFI 38ecc .cfa: x29 64 +
STACK CFI INIT 38fe4 6bc .cfa: sp 0 +
STACK CFI 38fe8 .cfa: sp 128 +
STACK CFI 39008 .cfa: x29 96 + x19: .cfa -8 + ^ x20: .cfa -16 + ^ x21: .cfa -24 + ^ x22: .cfa -32 + ^ x23: .cfa -40 + ^ x24: .cfa -48 + ^ x25: .cfa -56 + ^ x26: .cfa -64 + ^ x27: .cfa -72 + ^ x28: .cfa -80 + ^ .ra: .cfa -88 + ^ x29: .cfa -96 + ^ v8: .cfa -104 + ^ v9: .cfa -112 + ^ v10: .cfa -128 + ^
STACK CFI 395c8 .cfa: sp 128 +
STACK CFI 395e8 .cfa: sp 0 +
STACK CFI 395ec .cfa: x29 96 +
STACK CFI INIT 399b8 480 .cfa: sp 0 +
STACK CFI 399bc .cfa: sp 224 +
STACK CFI 399d8 .cfa: x29 96 + x19: .cfa -8 + ^ x20: .cfa -16 + ^ x21: .cfa -24 + ^ x22: .cfa -32 + ^ x23: .cfa -40 + ^ x24: .cfa -48 + ^ x25: .cfa -56 + ^ x26: .cfa -64 + ^ x27: .cfa -80 + ^ .ra: .cfa -88 + ^ x29: .cfa -96 + ^
STACK CFI 39c44 .cfa: sp 224 +
STACK CFI 39c60 .cfa: sp 0 +
STACK CFI 39c64 .cfa: x29 96 +
STACK CFI 39d30 .cfa: sp 224 +
STACK CFI 39d4c .cfa: sp 0 +
STACK CFI 39d50 .cfa: x29 96 +
STACK CFI INIT 39e54 67c .cfa: sp 0 +
STACK CFI 39e58 .cfa: sp 224 +
STACK CFI 39e74 .cfa: x29 96 + x19: .cfa -8 + ^ x20: .cfa -16 + ^ x21: .cfa -24 + ^ x22: .cfa -32 + ^ x23: .cfa -40 + ^ x24: .cfa -48 + ^ x25: .cfa -56 + ^ x26: .cfa -64 + ^ x27: .cfa -80 + ^ .ra: .cfa -88 + ^ x29: .cfa -96 + ^
STACK CFI 39fb0 .cfa: sp 224 +
STACK CFI 39fcc .cfa: sp 0 +
STACK CFI 39fd0 .cfa: x29 96 +
STACK CFI 3a390 .cfa: sp 224 +
STACK CFI 3a3ac .cfa: sp 0 +
STACK CFI 3a3b0 .cfa: x29 96 +
STACK CFI INIT 3a4ec 388 .cfa: sp 0 +
STACK CFI 3a4f0 .cfa: sp 256 +
STACK CFI 3a504 .cfa: x29 64 + x19: .cfa -8 + ^ x20: .cfa -16 + ^ x21: .cfa -24 + ^ x22: .cfa -32 + ^ x23: .cfa -48 + ^ .ra: .cfa -56 + ^ x29: .cfa -64 + ^
STACK CFI 3a748 .cfa: sp 256 +
STACK CFI 3a75c .cfa: sp 0 +
STACK CFI 3a760 .cfa: x29 64 +
STACK CFI INIT 3a8c8 18c .cfa: sp 0 +
STACK CFI 3a8cc .cfa: sp 112 +
STACK CFI 3a8dc .cfa: x29 48 + x19: .cfa -8 + ^ x20: .cfa -16 + ^ x21: .cfa -32 + ^ .ra: .cfa -40 + ^ x29: .cfa -48 + ^
STACK CFI 3a9a8 .cfa: sp 112 +
STACK CFI 3a9b8 .cfa: sp 0 +
STACK CFI 3a9bc .cfa: x29 48 +
STACK CFI INIT 3aa54 2b4 .cfa: sp 0 +
STACK CFI 3aa58 .cfa: sp 160 +
STACK CFI 3aa74 .cfa: x29 96 + x19: .cfa -8 + ^ x20: .cfa -16 + ^ x21: .cfa -24 + ^ x22: .cfa -32 + ^ x23: .cfa -40 + ^ x24: .cfa -48 + ^ x25: .cfa -56 + ^ x26: .cfa -64 + ^ x27: .cfa -72 + ^ x28: .cfa -80 + ^ .ra: .cfa -88 + ^ x29: .cfa -96 + ^
STACK CFI 3aaac .cfa: sp 160 +
STACK CFI 3aac8 .cfa: sp 0 +
STACK CFI 3aacc .cfa: x29 96 +
STACK CFI INIT 3ad08 10c .cfa: sp 0 +
STACK CFI 3ad0c .cfa: sp 64 +
STACK CFI 3ad1c .cfa: x29 64 + x19: .cfa -8 + ^ x20: .cfa -16 + ^ x21: .cfa -24 + ^ x22: .cfa -32 + ^ x23: .cfa -48 + ^ .ra: .cfa -56 + ^ x29: .cfa -64 + ^
STACK CFI 3adf4 .cfa: sp 64 +
STACK CFI 3ae04 .cfa: sp 0 +
STACK CFI 3ae08 .cfa: x29 64 +
STACK CFI INIT 3ae2c 228 .cfa: sp 0 +
STACK CFI 3ae30 .cfa: sp 96 +
STACK CFI 3ae48 .cfa: x29 96 + x19: .cfa -8 + ^ x20: .cfa -16 + ^ x21: .cfa -24 + ^ x22: .cfa -32 + ^ x23: .cfa -40 + ^ x24: .cfa -48 + ^ x25: .cfa -56 + ^ x26: .cfa -64 + ^ x27: .cfa -80 + ^ .ra: .cfa -88 + ^ x29: .cfa -96 + ^
STACK CFI 3afec .cfa: sp 96 +
STACK CFI 3b004 .cfa: sp 0 +
STACK CFI 3b008 .cfa: x29 96 +
STACK CFI INIT 3b074 50 .cfa: sp 0 +
STACK CFI 3b078 .cfa: sp 32 +
STACK CFI 3b080 .cfa: x29 32 + x19: .cfa -8 + ^ x20: .cfa -16 + ^ .ra: .cfa -24 + ^ x29: .cfa -32 + ^
STACK CFI INIT 3b198 338 .cfa: sp 0 +
STACK CFI 3b19c .cfa: sp 224 +
STACK CFI 3b1b0 .cfa: x29 64 + x19: .cfa -8 + ^ x20: .cfa -16 + ^ x21: .cfa -24 + ^ x22: .cfa -32 + ^ x23: .cfa -48 + ^ .ra: .cfa -56 + ^ x29: .cfa -64 + ^
STACK CFI 3b3b8 .cfa: sp 224 +
STACK CFI 3b3cc .cfa: sp 0 +
STACK CFI 3b3d0 .cfa: x29 64 +
STACK CFI INIT 3b4d4 1d98 .cfa: sp 0 +
STACK CFI 3b4d8 .cfa: sp 144 +
STACK CFI 3b4fc .cfa: x29 96 + x19: .cfa -8 + ^ x20: .cfa -16 + ^ x21: .cfa -24 + ^ x22: .cfa -32 + ^ x23: .cfa -40 + ^ x24: .cfa -48 + ^ x25: .cfa -56 + ^ x26: .cfa -64 + ^ x27: .cfa -72 + ^ x28: .cfa -80 + ^ .ra: .cfa -88 + ^ x29: .cfa -96 + ^ v8: .cfa -104 + ^ v9: .cfa -112 + ^ v10: .cfa -120 + ^ v11: .cfa -128 + ^ v12: .cfa -136 + ^ v13: .cfa -144 + ^
STACK CFI 3b538 .cfa: sp 144 +
STACK CFI 3b55c .cfa: sp 0 +
STACK CFI 3b560 .cfa: x29 96 +
STACK CFI INIT 3d26c 114 .cfa: sp 0 +
STACK CFI 3d270 .cfa: sp 128 +
STACK CFI 3d280 .cfa: x29 48 + x19: .cfa -8 + ^ x20: .cfa -16 + ^ x21: .cfa -24 + ^ x22: .cfa -32 + ^ .ra: .cfa -40 + ^ x29: .cfa -48 + ^
STACK CFI 3d344 .cfa: sp 128 +
STACK CFI 3d354 .cfa: sp 0 +
STACK CFI 3d358 .cfa: x29 48 +
STACK CFI INIT 3d380 17c .cfa: sp 0 +
STACK CFI 3d384 .cfa: sp 80 +
STACK CFI 3d398 .cfa: x29 80 + x19: .cfa -8 + ^ x20: .cfa -16 + ^ x21: .cfa -24 + ^ x22: .cfa -32 + ^ x23: .cfa -40 + ^ x24: .cfa -48 + ^ x28: .cfa -64 + ^ .ra: .cfa -72 + ^ x29: .cfa -80 + ^
STACK CFI 3d454 .cfa: sp 80 +
STACK CFI 3d468 .cfa: sp 0 +
STACK CFI 3d46c .cfa: x29 80 +
STACK CFI INIT 3fd98 98c .cfa: sp 0 +
STACK CFI 3fd9c .cfa: sp 112 +
STACK CFI 3fdb8 .cfa: x29 96 + x19: .cfa -8 + ^ x20: .cfa -16 + ^ x21: .cfa -24 + ^ x22: .cfa -32 + ^ x23: .cfa -40 + ^ x24: .cfa -48 + ^ x25: .cfa -56 + ^ x26: .cfa -64 + ^ x27: .cfa -72 + ^ x28: .cfa -80 + ^ .ra: .cfa -88 + ^ x29: .cfa -96 + ^ v8: .cfa -104 + ^ v9: .cfa -112 + ^
STACK CFI 40674 .cfa: sp 112 +
STACK CFI 40690 .cfa: sp 0 +
STACK CFI 40694 .cfa: x29 96 +
STACK CFI INIT 40724 254 .cfa: sp 0 +
STACK CFI 40728 .cfa: sp 64 +
STACK CFI 40738 .cfa: x29 48 + x19: .cfa -8 + ^ x20: .cfa -16 + ^ x21: .cfa -32 + ^ .ra: .cfa -40 + ^ x29: .cfa -48 + ^
STACK CFI 4093c .cfa: sp 64 +
STACK CFI 4094c .cfa: sp 0 +
STACK CFI 40950 .cfa: x29 48 +
STACK CFI INIT 40978 184 .cfa: sp 0 +
STACK CFI 4097c .cfa: sp 112 +
STACK CFI 40994 .cfa: x29 64 + x19: .cfa -8 + ^ x20: .cfa -16 + ^ x21: .cfa -24 + ^ x22: .cfa -32 + ^ x23: .cfa -40 + ^ x24: .cfa -48 + ^ .ra: .cfa -56 + ^ x29: .cfa -64 + ^ v8: .cfa -72 + ^ v9: .cfa -80 + ^
STACK CFI 40ab8 .cfa: sp 112 +
STACK CFI 40ad0 .cfa: sp 0 +
STACK CFI 40ad4 .cfa: x29 64 +
STACK CFI INIT 40afc 15c .cfa: sp 0 +
STACK CFI 40b00 .cfa: sp 224 +
STACK CFI 40b14 .cfa: x29 64 + x19: .cfa -8 + ^ x20: .cfa -16 + ^ x21: .cfa -24 + ^ x22: .cfa -32 + ^ x23: .cfa -48 + ^ .ra: .cfa -56 + ^ x29: .cfa -64 + ^
STACK CFI 40c08 .cfa: sp 224 +
STACK CFI 40c1c .cfa: sp 0 +
STACK CFI 40c20 .cfa: x29 64 +
STACK CFI INIT 40c58 d0 .cfa: sp 0 +
STACK CFI 40c5c .cfa: sp 48 +
STACK CFI 40c68 .cfa: x29 48 + x19: .cfa -8 + ^ x20: .cfa -16 + ^ x21: .cfa -32 + ^ .ra: .cfa -40 + ^ x29: .cfa -48 + ^
STACK CFI 40c9c .cfa: sp 48 +
STACK CFI 40ca8 .cfa: sp 0 +
STACK CFI 40cac .cfa: x29 48 +
STACK CFI INIT 410cc b80 .cfa: sp 0 +
STACK CFI 410d0 .cfa: sp 112 +
STACK CFI 410ec .cfa: x29 96 + x19: .cfa -8 + ^ x20: .cfa -16 + ^ x21: .cfa -24 + ^ x22: .cfa -32 + ^ x23: .cfa -40 + ^ x24: .cfa -48 + ^ x25: .cfa -56 + ^ x26: .cfa -64 + ^ x27: .cfa -72 + ^ x28: .cfa -80 + ^ .ra: .cfa -88 + ^ x29: .cfa -96 + ^ v8: .cfa -104 + ^ v9: .cfa -112 + ^
STACK CFI 41b58 .cfa: sp 112 +
STACK CFI 41b74 .cfa: sp 0 +
STACK CFI 41b78 .cfa: x29 96 +
STACK CFI INIT 41c4c 71c .cfa: sp 0 +
STACK CFI 41c50 .cfa: sp 96 +
STACK CFI 41c68 .cfa: x29 96 + x19: .cfa -8 + ^ x20: .cfa -16 + ^ x21: .cfa -24 + ^ x22: .cfa -32 + ^ x23: .cfa -40 + ^ x24: .cfa -48 + ^ x25: .cfa -56 + ^ x26: .cfa -64 + ^ x27: .cfa -72 + ^ x28: .cfa -80 + ^ .ra: .cfa -88 + ^ x29: .cfa -96 + ^
STACK CFI 42130 .cfa: sp 96 +
STACK CFI 42148 .cfa: sp 0 +
STACK CFI 4214c .cfa: x29 96 +
STACK CFI INIT 42368 15c .cfa: sp 0 +
STACK CFI 4236c .cfa: sp 224 +
STACK CFI 42380 .cfa: x29 64 + x19: .cfa -8 + ^ x20: .cfa -16 + ^ x21: .cfa -24 + ^ x22: .cfa -32 + ^ x23: .cfa -48 + ^ .ra: .cfa -56 + ^ x29: .cfa -64 + ^
STACK CFI 42474 .cfa: sp 224 +
STACK CFI 42488 .cfa: sp 0 +
STACK CFI 4248c .cfa: x29 64 +
STACK CFI INIT 424c4 d0 .cfa: sp 0 +
STACK CFI 424c8 .cfa: sp 48 +
STACK CFI 424d4 .cfa: x29 48 + x19: .cfa -8 + ^ x20: .cfa -16 + ^ x21: .cfa -32 + ^ .ra: .cfa -40 + ^ x29: .cfa -48 + ^
STACK CFI 42508 .cfa: sp 48 +
STACK CFI 42514 .cfa: sp 0 +
STACK CFI 42518 .cfa: x29 48 +
STACK CFI INIT 42698 74 .cfa: sp 0 +
STACK CFI 4269c .cfa: sp 48 +
STACK CFI 426a8 .cfa: x29 32 + x19: .cfa -8 + ^ x20: .cfa -16 + ^ .ra: .cfa -24 + ^ x29: .cfa -32 + ^
STACK CFI 426f4 .cfa: sp 48 +
STACK CFI 42700 .cfa: sp 0 +
STACK CFI 42704 .cfa: x29 32 +
STACK CFI INIT 42854 104 .cfa: sp 0 +
STACK CFI 42858 .cfa: sp 112 +
STACK CFI 42870 .cfa: x29 80 + x19: .cfa -8 + ^ x20: .cfa -16 + ^ x21: .cfa -24 + ^ x22: .cfa -32 + ^ x23: .cfa -40 + ^ x24: .cfa -48 + ^ x25: .cfa -64 + ^ .ra: .cfa -72 + ^ x29: .cfa -80 + ^
STACK CFI 428fc .cfa: sp 112 +
STACK CFI 42914 .cfa: sp 0 +
STACK CFI 42918 .cfa: x29 80 +
STACK CFI INIT 42958 184 .cfa: sp 0 +
STACK CFI 4295c .cfa: sp 160 +
STACK CFI 4296c .cfa: x29 48 + x19: .cfa -8 + ^ x20: .cfa -16 + ^ x21: .cfa -32 + ^ .ra: .cfa -40 + ^ x29: .cfa -48 + ^
STACK CFI 42a80 .cfa: sp 160 +
STACK CFI 42a90 .cfa: sp 0 +
STACK CFI 42a94 .cfa: x29 48 +
STACK CFI INIT 42af0 214 .cfa: sp 0 +
STACK CFI 42af4 .cfa: sp 176 +
STACK CFI 42b08 .cfa: x29 64 + x19: .cfa -8 + ^ x20: .cfa -16 + ^ x21: .cfa -24 + ^ x22: .cfa -32 + ^ x23: .cfa -48 + ^ .ra: .cfa -56 + ^ x29: .cfa -64 + ^
STACK CFI 42c68 .cfa: sp 176 +
STACK CFI 42c7c .cfa: sp 0 +
STACK CFI 42c80 .cfa: x29 64 +
STACK CFI INIT 42d04 74 .cfa: sp 0 +
STACK CFI 42d08 .cfa: sp 48 +
STACK CFI 42d14 .cfa: x29 32 + x19: .cfa -8 + ^ x20: .cfa -16 + ^ .ra: .cfa -24 + ^ x29: .cfa -32 + ^
STACK CFI 42d60 .cfa: sp 48 +
STACK CFI 42d6c .cfa: sp 0 +
STACK CFI 42d70 .cfa: x29 32 +
STACK CFI INIT 42d78 5a8 .cfa: sp 0 +
STACK CFI 42d7c .cfa: sp 208 +
STACK CFI 42d98 .cfa: x29 96 + x19: .cfa -8 + ^ x20: .cfa -16 + ^ x21: .cfa -24 + ^ x22: .cfa -32 + ^ x23: .cfa -40 + ^ x24: .cfa -48 + ^ x25: .cfa -56 + ^ x26: .cfa -64 + ^ x27: .cfa -72 + ^ x28: .cfa -80 + ^ .ra: .cfa -88 + ^ x29: .cfa -96 + ^
STACK CFI 43168 .cfa: sp 208 +
STACK CFI 43184 .cfa: sp 0 +
STACK CFI 43188 .cfa: x29 96 +
STACK CFI INIT 43348 1a8 .cfa: sp 0 +
STACK CFI 4334c .cfa: sp 144 +
STACK CFI 43360 .cfa: x29 64 + x19: .cfa -8 + ^ x20: .cfa -16 + ^ x21: .cfa -24 + ^ x22: .cfa -32 + ^ x23: .cfa -48 + ^ .ra: .cfa -56 + ^ x29: .cfa -64 + ^
STACK CFI 4348c .cfa: sp 144 +
STACK CFI 434a0 .cfa: sp 0 +
STACK CFI 434a4 .cfa: x29 64 +
STACK CFI INIT 434f0 d70 .cfa: sp 0 +
STACK CFI 434f4 .cfa: sp 96 +
STACK CFI 4350c .cfa: x29 96 + x19: .cfa -8 + ^ x20: .cfa -16 + ^ x21: .cfa -24 + ^ x22: .cfa -32 + ^ x23: .cfa -40 + ^ x24: .cfa -48 + ^ x25: .cfa -56 + ^ x26: .cfa -64 + ^ x28: .cfa -80 + ^ .ra: .cfa -88 + ^ x29: .cfa -96 + ^
STACK CFI 44108 .cfa: sp 96 +
STACK CFI 44120 .cfa: sp 0 +
STACK CFI 44124 .cfa: x29 96 +
STACK CFI INIT 4459c 540 .cfa: sp 0 +
STACK CFI 445a0 .cfa: sp 96 +
STACK CFI 445b8 .cfa: x29 96 + x19: .cfa -8 + ^ x20: .cfa -16 + ^ x21: .cfa -24 + ^ x22: .cfa -32 + ^ x23: .cfa -40 + ^ x24: .cfa -48 + ^ x25: .cfa -56 + ^ x26: .cfa -64 + ^ x28: .cfa -80 + ^ .ra: .cfa -88 + ^ x29: .cfa -96 + ^
STACK CFI 44a04 .cfa: sp 96 +
STACK CFI 44a1c .cfa: sp 0 +
STACK CFI 44a20 .cfa: x29 96 +
STACK CFI INIT 44adc c28 .cfa: sp 0 +
STACK CFI 44ae0 .cfa: sp 112 +
STACK CFI 44afc .cfa: x29 96 + x19: .cfa -8 + ^ x20: .cfa -16 + ^ x21: .cfa -24 + ^ x22: .cfa -32 + ^ x23: .cfa -40 + ^ x24: .cfa -48 + ^ x25: .cfa -56 + ^ x26: .cfa -64 + ^ x27: .cfa -72 + ^ x28: .cfa -80 + ^ .ra: .cfa -88 + ^ x29: .cfa -96 + ^ v8: .cfa -112 + ^
STACK CFI 4555c .cfa: sp 112 +
STACK CFI 45578 .cfa: sp 0 +
STACK CFI 4557c .cfa: x29 96 +
STACK CFI INIT 45704 2b8 .cfa: sp 0 +
STACK CFI 45708 .cfa: sp 80 +
STACK CFI 4571c .cfa: x29 80 + x19: .cfa -8 + ^ x20: .cfa -16 + ^ x21: .cfa -24 + ^ x22: .cfa -32 + ^ x23: .cfa -40 + ^ x24: .cfa -48 + ^ x25: .cfa -56 + ^ x28: .cfa -64 + ^ .ra: .cfa -72 + ^ x29: .cfa -80 + ^
STACK CFI 45908 .cfa: sp 80 +
STACK CFI 4591c .cfa: sp 0 +
STACK CFI 45920 .cfa: x29 80 +
STACK CFI INIT 45a0c e0 .cfa: sp 0 +
STACK CFI 45a10 .cfa: sp 64 +
STACK CFI 45a1c .cfa: x29 32 + x19: .cfa -8 + ^ x20: .cfa -16 + ^ .ra: .cfa -24 + ^ x29: .cfa -32 + ^
STACK CFI 45ab4 .cfa: sp 64 +
STACK CFI 45ac0 .cfa: sp 0 +
STACK CFI 45ac4 .cfa: x29 32 +
STACK CFI INIT 45aec 20c .cfa: sp 0 +
STACK CFI 45af0 .cfa: sp 80 +
STACK CFI 45b00 .cfa: x29 48 + x19: .cfa -8 + ^ x20: .cfa -16 + ^ x21: .cfa -24 + ^ x22: .cfa -32 + ^ .ra: .cfa -40 + ^ x29: .cfa -48 + ^
STACK CFI 45ca4 .cfa: sp 80 +
STACK CFI 45cb4 .cfa: sp 0 +
STACK CFI 45cb8 .cfa: x29 48 +
STACK CFI INIT 45cf8 110 .cfa: sp 0 +
STACK CFI 45cfc .cfa: sp 48 +
STACK CFI 45d08 .cfa: x29 48 + x19: .cfa -8 + ^ x20: .cfa -16 + ^ x21: .cfa -32 + ^ .ra: .cfa -40 + ^ x29: .cfa -48 + ^
STACK CFI 45df4 .cfa: sp 48 +
STACK CFI 45e00 .cfa: sp 0 +
STACK CFI 45e04 .cfa: x29 48 +
STACK CFI INIT 45e8c 148 .cfa: sp 0 +
STACK CFI 45e90 .cfa: sp 96 +
STACK CFI 45ea0 .cfa: x29 48 + x19: .cfa -8 + ^ x20: .cfa -16 + ^ x21: .cfa -32 + ^ .ra: .cfa -40 + ^ x29: .cfa -48 + ^
STACK CFI 45f88 .cfa: sp 96 +
STACK CFI 45f98 .cfa: sp 0 +
STACK CFI 45f9c .cfa: x29 48 +
STACK CFI INIT 4604c 6c .cfa: sp 0 +
STACK CFI 46050 .cfa: sp 32 +
STACK CFI 46058 .cfa: x29 32 + x19: .cfa -16 + ^ .ra: .cfa -24 + ^ x29: .cfa -32 + ^
STACK CFI 460a8 .cfa: sp 32 +
STACK CFI 460b0 .cfa: sp 0 +
STACK CFI 460b4 .cfa: x29 32 +
STACK CFI INIT 460bc 6c .cfa: sp 0 +
STACK CFI 460c0 .cfa: sp 32 +
STACK CFI 460c8 .cfa: x29 32 + x19: .cfa -16 + ^ .ra: .cfa -24 + ^ x29: .cfa -32 + ^
STACK CFI 46118 .cfa: sp 32 +
STACK CFI 46120 .cfa: sp 0 +
STACK CFI 46124 .cfa: x29 32 +
STACK CFI INIT 462bc 198 .cfa: sp 0 +
STACK CFI 462c0 .cfa: sp 96 +
STACK CFI 462d0 .cfa: x29 48 + x19: .cfa -8 + ^ x20: .cfa -16 + ^ x21: .cfa -32 + ^ .ra: .cfa -40 + ^ x29: .cfa -48 + ^
STACK CFI 463ac .cfa: sp 96 +
STACK CFI 463bc .cfa: sp 0 +
STACK CFI 463c0 .cfa: x29 48 +
STACK CFI INIT 464b0 1220 .cfa: sp 0 +
STACK CFI 464b4 .cfa: sp 112 +
STACK CFI 464d0 .cfa: x29 96 + x19: .cfa -8 + ^ x20: .cfa -16 + ^ x21: .cfa -24 + ^ x22: .cfa -32 + ^ x23: .cfa -40 + ^ x24: .cfa -48 + ^ x25: .cfa -56 + ^ x26: .cfa -64 + ^ x27: .cfa -72 + ^ x28: .cfa -80 + ^ .ra: .cfa -88 + ^ x29: .cfa -96 + ^ v8: .cfa -112 + ^
STACK CFI 465ac .cfa: sp 112 +
STACK CFI 465c8 .cfa: sp 0 +
STACK CFI 465cc .cfa: x29 96 +
STACK CFI 47378 .cfa: sp 112 +
STACK CFI 47394 .cfa: sp 0 +
STACK CFI 47398 .cfa: x29 96 +
STACK CFI INIT 476f8 74 .cfa: sp 0 +
STACK CFI 476fc .cfa: sp 48 +
STACK CFI 47708 .cfa: x29 32 + x19: .cfa -8 + ^ x20: .cfa -16 + ^ .ra: .cfa -24 + ^ x29: .cfa -32 + ^
STACK CFI 47754 .cfa: sp 48 +
STACK CFI 47760 .cfa: sp 0 +
STACK CFI 47764 .cfa: x29 32 +
STACK CFI INIT 4776c 74 .cfa: sp 0 +
STACK CFI 47770 .cfa: sp 48 +
STACK CFI 4777c .cfa: x29 32 + x19: .cfa -8 + ^ x20: .cfa -16 + ^ .ra: .cfa -24 + ^ x29: .cfa -32 + ^
STACK CFI 477c8 .cfa: sp 48 +
STACK CFI 477d4 .cfa: sp 0 +
STACK CFI 477d8 .cfa: x29 32 +
STACK CFI INIT 477fc 2c4 .cfa: sp 0 +
STACK CFI 47800 .cfa: sp 144 +
STACK CFI 47818 .cfa: x29 80 + x19: .cfa -8 + ^ x20: .cfa -16 + ^ x21: .cfa -24 + ^ x22: .cfa -32 + ^ x23: .cfa -40 + ^ x24: .cfa -48 + ^ x25: .cfa -56 + ^ x26: .cfa -64 + ^ .ra: .cfa -72 + ^ x29: .cfa -80 + ^
STACK CFI 47a24 .cfa: sp 144 +
STACK CFI 47a3c .cfa: sp 0 +
STACK CFI 47a40 .cfa: x29 80 +
STACK CFI 47a5c .cfa: sp 144 +
STACK CFI 47a74 .cfa: sp 0 +
STACK CFI 47a78 .cfa: x29 80 +
STACK CFI INIT 47ac0 224 .cfa: sp 0 +
STACK CFI 47ac4 .cfa: sp 192 +
STACK CFI 47ad8 .cfa: x29 64 + x19: .cfa -8 + ^ x20: .cfa -16 + ^ x21: .cfa -24 + ^ x22: .cfa -32 + ^ x23: .cfa -48 + ^ .ra: .cfa -56 + ^ x29: .cfa -64 + ^
STACK CFI 47c20 .cfa: sp 192 +
STACK CFI 47c34 .cfa: sp 0 +
STACK CFI 47c38 .cfa: x29 64 +
STACK CFI INIT 47fe0 1d8 .cfa: sp 0 +
STACK CFI 47fe4 .cfa: sp 128 +
STACK CFI 47ff8 .cfa: x29 64 + x19: .cfa -8 + ^ x20: .cfa -16 + ^ x21: .cfa -24 + ^ x22: .cfa -32 + ^ x23: .cfa -48 + ^ .ra: .cfa -56 + ^ x29: .cfa -64 + ^
STACK CFI 48178 .cfa: sp 128 +
STACK CFI 4818c .cfa: sp 0 +
STACK CFI 48190 .cfa: x29 64 +
STACK CFI INIT 484e4 1cc .cfa: sp 0 +
STACK CFI 484e8 .cfa: sp 112 +
STACK CFI 484f8 .cfa: x29 48 + x19: .cfa -8 + ^ x20: .cfa -16 + ^ x21: .cfa -24 + ^ x22: .cfa -32 + ^ .ra: .cfa -40 + ^ x29: .cfa -48 + ^
STACK CFI 48674 .cfa: sp 112 +
STACK CFI 48684 .cfa: sp 0 +
STACK CFI 48688 .cfa: x29 48 +
STACK CFI INIT 48a18 e4c .cfa: sp 0 +
STACK CFI 48a1c .cfa: sp 112 +
STACK CFI 48a38 .cfa: x29 96 + x19: .cfa -8 + ^ x20: .cfa -16 + ^ x21: .cfa -24 + ^ x22: .cfa -32 + ^ x23: .cfa -40 + ^ x24: .cfa -48 + ^ x25: .cfa -56 + ^ x26: .cfa -64 + ^ x27: .cfa -72 + ^ x28: .cfa -80 + ^ .ra: .cfa -88 + ^ x29: .cfa -96 + ^ v8: .cfa -112 + ^
STACK CFI 4963c .cfa: sp 112 +
STACK CFI 49658 .cfa: sp 0 +
STACK CFI 4965c .cfa: x29 96 +
STACK CFI INIT 499a4 60 .cfa: sp 0 +
STACK CFI 499a8 .cfa: sp 32 +
STACK CFI 499b0 .cfa: x29 32 + x19: .cfa -8 + ^ x20: .cfa -16 + ^ .ra: .cfa -24 + ^ x29: .cfa -32 + ^
STACK CFI 499c0 .cfa: sp 32 +
STACK CFI 499c8 .cfa: sp 0 +
STACK CFI 499cc .cfa: x29 32 +
STACK CFI 499e4 .cfa: sp 32 +
STACK CFI 499ec .cfa: sp 0 +
STACK CFI 499f0 .cfa: x29 32 +
STACK CFI INIT 49a04 1ac .cfa: sp 0 +
STACK CFI 49a08 .cfa: sp 96 +
STACK CFI 49a1c .cfa: x29 64 + x19: .cfa -8 + ^ x20: .cfa -16 + ^ x21: .cfa -24 + ^ x22: .cfa -32 + ^ x23: .cfa -40 + ^ x24: .cfa -48 + ^ .ra: .cfa -56 + ^ x29: .cfa -64 + ^
STACK CFI 49af0 .cfa: sp 96 +
STACK CFI 49b04 .cfa: sp 0 +
STACK CFI 49b08 .cfa: x29 64 +
STACK CFI INIT 49be0 ec .cfa: sp 0 +
STACK CFI 49be4 .cfa: sp 80 +
STACK CFI 49bf8 .cfa: x29 64 + x19: .cfa -8 + ^ x20: .cfa -16 + ^ x21: .cfa -24 + ^ x22: .cfa -32 + ^ x23: .cfa -48 + ^ .ra: .cfa -56 + ^ x29: .cfa -64 + ^
STACK CFI 49c8c .cfa: sp 80 +
STACK CFI 49ca0 .cfa: sp 0 +
STACK CFI 49ca4 .cfa: x29 64 +
STACK CFI INIT 49ccc 5ac .cfa: sp 0 +
STACK CFI 49cd0 .cfa: sp 96 +
STACK CFI 49ce8 .cfa: x29 96 + x19: .cfa -8 + ^ x20: .cfa -16 + ^ x21: .cfa -24 + ^ x22: .cfa -32 + ^ x23: .cfa -40 + ^ x24: .cfa -48 + ^ x25: .cfa -56 + ^ x26: .cfa -64 + ^ x28: .cfa -80 + ^ .ra: .cfa -88 + ^ x29: .cfa -96 + ^
STACK CFI 4a10c .cfa: sp 96 +
STACK CFI 4a124 .cfa: sp 0 +
STACK CFI 4a128 .cfa: x29 96 +
STACK CFI INIT 4a31c 1cc .cfa: sp 0 +
STACK CFI 4a320 .cfa: sp 128 +
STACK CFI 4a330 .cfa: x29 48 + x19: .cfa -8 + ^ x20: .cfa -16 + ^ x21: .cfa -32 + ^ .ra: .cfa -40 + ^ x29: .cfa -48 + ^
STACK CFI 4a46c .cfa: sp 128 +
STACK CFI 4a47c .cfa: sp 0 +
STACK CFI 4a480 .cfa: x29 48 +
STACK CFI INIT 4a628 b30 .cfa: sp 0 +
STACK CFI 4a62c .cfa: sp 96 +
STACK CFI 4a644 .cfa: x29 96 + x19: .cfa -8 + ^ x20: .cfa -16 + ^ x21: .cfa -24 + ^ x22: .cfa -32 + ^ x23: .cfa -40 + ^ x24: .cfa -48 + ^ x25: .cfa -56 + ^ x26: .cfa -64 + ^ x28: .cfa -80 + ^ .ra: .cfa -88 + ^ x29: .cfa -96 + ^
STACK CFI 4af4c .cfa: sp 96 +
STACK CFI 4af64 .cfa: sp 0 +
STACK CFI 4af68 .cfa: x29 96 +
STACK CFI INIT 4b184 174 .cfa: sp 0 +
STACK CFI 4b188 .cfa: sp 112 +
STACK CFI 4b198 .cfa: x29 48 + x19: .cfa -8 + ^ x20: .cfa -16 + ^ x21: .cfa -32 + ^ .ra: .cfa -40 + ^ x29: .cfa -48 + ^
STACK CFI 4b294 .cfa: sp 112 +
STACK CFI 4b2a4 .cfa: sp 0 +
STACK CFI 4b2a8 .cfa: x29 48 +
STACK CFI INIT 4b458 134 .cfa: sp 0 +
STACK CFI 4b45c .cfa: sp 80 +
STACK CFI 4b46c .cfa: x29 48 + x19: .cfa -8 + ^ x20: .cfa -16 + ^ x21: .cfa -32 + ^ .ra: .cfa -40 + ^ x29: .cfa -48 + ^
STACK CFI 4b50c .cfa: sp 80 +
STACK CFI 4b51c .cfa: sp 0 +
STACK CFI 4b520 .cfa: x29 48 +
STACK CFI INIT 4b650 134 .cfa: sp 0 +
STACK CFI 4b654 .cfa: sp 80 +
STACK CFI 4b660 .cfa: x29 32 + x19: .cfa -8 + ^ x20: .cfa -16 + ^ .ra: .cfa -24 + ^ x29: .cfa -32 + ^
STACK CFI 4b690 .cfa: sp 80 +
STACK CFI 4b69c .cfa: sp 0 +
STACK CFI 4b6a0 .cfa: x29 32 +
STACK CFI INIT 4b784 78 .cfa: sp 0 +
STACK CFI 4b788 .cfa: sp 32 +
STACK CFI 4b790 .cfa: x29 32 + x19: .cfa -8 + ^ x20: .cfa -16 + ^ .ra: .cfa -24 + ^ x29: .cfa -32 + ^
STACK CFI 4b79c .cfa: sp 32 +
STACK CFI 4b7a4 .cfa: sp 0 +
STACK CFI 4b7a8 .cfa: x29 32 +
STACK CFI INIT 4b7fc 74 .cfa: sp 0 +
STACK CFI 4b800 .cfa: sp 48 +
STACK CFI 4b80c .cfa: x29 32 + x19: .cfa -8 + ^ x20: .cfa -16 + ^ .ra: .cfa -24 + ^ x29: .cfa -32 + ^
STACK CFI 4b858 .cfa: sp 48 +
STACK CFI 4b864 .cfa: sp 0 +
STACK CFI 4b868 .cfa: x29 32 +
STACK CFI INIT 4b8f8 25c .cfa: sp 0 +
STACK CFI 4b8fc .cfa: sp 128 +
STACK CFI 4b90c .cfa: x29 48 + x19: .cfa -8 + ^ x20: .cfa -16 + ^ x21: .cfa -32 + ^ .ra: .cfa -40 + ^ x29: .cfa -48 + ^
STACK CFI 4b9f4 .cfa: sp 128 +
STACK CFI 4ba04 .cfa: sp 0 +
STACK CFI 4ba08 .cfa: x29 48 +
STACK CFI INIT 4bbcc 300 .cfa: sp 0 +
STACK CFI 4bbd0 .cfa: sp 144 +
STACK CFI 4bbe4 .cfa: x29 64 + x19: .cfa -8 + ^ x20: .cfa -16 + ^ x21: .cfa -24 + ^ x22: .cfa -32 + ^ x23: .cfa -48 + ^ .ra: .cfa -56 + ^ x29: .cfa -64 + ^
STACK CFI 4bd78 .cfa: sp 144 +
STACK CFI 4bd8c .cfa: sp 0 +
STACK CFI 4bd90 .cfa: x29 64 +
STACK CFI INIT 4bf20 264 .cfa: sp 0 +
STACK CFI 4bf24 .cfa: sp 128 +
STACK CFI 4bf34 .cfa: x29 48 + x19: .cfa -8 + ^ x20: .cfa -16 + ^ x21: .cfa -32 + ^ .ra: .cfa -40 + ^ x29: .cfa -48 + ^
STACK CFI 4c02c .cfa: sp 128 +
STACK CFI 4c03c .cfa: sp 0 +
STACK CFI 4c040 .cfa: x29 48 +
STACK CFI INIT 4c22c 1b8 .cfa: sp 0 +
STACK CFI 4c230 .cfa: sp 160 +
STACK CFI 4c24c .cfa: x29 72 + x19: .cfa -8 + ^ x20: .cfa -16 + ^ x21: .cfa -24 + ^ x22: .cfa -32 + ^ x23: .cfa -40 + ^ x24: .cfa -48 + ^ x25: .cfa -56 + ^ .ra: .cfa -64 + ^ x29: .cfa -72 + ^ v8: .cfa -80 + ^
STACK CFI 4c2d0 .cfa: sp 160 +
STACK CFI 4c2ec .cfa: sp 0 +
STACK CFI 4c2f0 .cfa: x29 72 +
STACK CFI INIT 4c3e4 4e4 .cfa: sp 0 +
STACK CFI 4c3e8 .cfa: sp 96 +
STACK CFI 4c400 .cfa: x29 80 + x19: .cfa -8 + ^ x20: .cfa -16 + ^ x21: .cfa -24 + ^ x22: .cfa -32 + ^ x23: .cfa -40 + ^ x24: .cfa -48 + ^ x25: .cfa -64 + ^ .ra: .cfa -72 + ^ x29: .cfa -80 + ^
STACK CFI 4c844 .cfa: sp 96 +
STACK CFI 4c85c .cfa: sp 0 +
STACK CFI 4c860 .cfa: x29 80 +
STACK CFI INIT 4c8c8 164 .cfa: sp 0 +
STACK CFI 4c8cc .cfa: sp 128 +
STACK CFI 4c8d8 .cfa: x29 32 + x19: .cfa -8 + ^ x20: .cfa -16 + ^ .ra: .cfa -24 + ^ x29: .cfa -32 + ^
STACK CFI 4c918 .cfa: sp 128 +
STACK CFI 4c924 .cfa: sp 0 +
STACK CFI 4c928 .cfa: x29 32 +
STACK CFI INIT 4ca2c 178 .cfa: sp 0 +
STACK CFI 4ca30 .cfa: sp 128 +
STACK CFI 4ca40 .cfa: x29 48 + x19: .cfa -8 + ^ x20: .cfa -16 + ^ x21: .cfa -24 + ^ x22: .cfa -32 + ^ .ra: .cfa -40 + ^ x29: .cfa -48 + ^
STACK CFI 4ca9c .cfa: sp 128 +
STACK CFI 4caac .cfa: sp 0 +
STACK CFI 4cab0 .cfa: x29 48 +
STACK CFI INIT 4cba4 a4 .cfa: sp 0 +
STACK CFI 4cba8 .cfa: sp 48 +
STACK CFI 4cbb4 .cfa: x29 48 + x19: .cfa -8 + ^ x20: .cfa -16 + ^ x21: .cfa -32 + ^ .ra: .cfa -40 + ^ x29: .cfa -48 + ^
STACK CFI 4cc20 .cfa: sp 48 +
STACK CFI 4cc2c .cfa: sp 0 +
STACK CFI 4cc30 .cfa: x29 48 +
STACK CFI INIT 4cc48 180 .cfa: sp 0 +
STACK CFI 4cc4c .cfa: sp 128 +
STACK CFI 4cc5c .cfa: x29 48 + x19: .cfa -8 + ^ x20: .cfa -16 + ^ x21: .cfa -24 + ^ x22: .cfa -32 + ^ .ra: .cfa -40 + ^ x29: .cfa -48 + ^
STACK CFI 4ccc0 .cfa: sp 128 +
STACK CFI 4ccd0 .cfa: sp 0 +
STACK CFI 4ccd4 .cfa: x29 48 +
STACK CFI INIT 4cdc8 a4 .cfa: sp 0 +
STACK CFI 4cdcc .cfa: sp 48 +
STACK CFI 4cdd8 .cfa: x29 48 + x19: .cfa -8 + ^ x20: .cfa -16 + ^ x21: .cfa -32 + ^ .ra: .cfa -40 + ^ x29: .cfa -48 + ^
STACK CFI 4ce44 .cfa: sp 48 +
STACK CFI 4ce50 .cfa: sp 0 +
STACK CFI 4ce54 .cfa: x29 48 +
STACK CFI INIT 4ce70 2e4 .cfa: sp 0 +
STACK CFI 4ce74 .cfa: sp 144 +
STACK CFI 4ce88 .cfa: x29 64 + x19: .cfa -8 + ^ x20: .cfa -16 + ^ x21: .cfa -24 + ^ x22: .cfa -32 + ^ x23: .cfa -48 + ^ .ra: .cfa -56 + ^ x29: .cfa -64 + ^
STACK CFI 4d000 .cfa: sp 144 +
STACK CFI 4d014 .cfa: sp 0 +
STACK CFI 4d018 .cfa: x29 64 +
STACK CFI INIT 4d154 2e4 .cfa: sp 0 +
STACK CFI 4d158 .cfa: sp 144 +
STACK CFI 4d16c .cfa: x29 64 + x19: .cfa -8 + ^ x20: .cfa -16 + ^ x21: .cfa -24 + ^ x22: .cfa -32 + ^ x23: .cfa -48 + ^ .ra: .cfa -56 + ^ x29: .cfa -64 + ^
STACK CFI 4d2e4 .cfa: sp 144 +
STACK CFI 4d2f8 .cfa: sp 0 +
STACK CFI 4d2fc .cfa: x29 64 +
STACK CFI INIT 4d438 2a0 .cfa: sp 0 +
STACK CFI 4d43c .cfa: sp 144 +
STACK CFI 4d450 .cfa: x29 64 + x19: .cfa -8 + ^ x20: .cfa -16 + ^ x21: .cfa -24 + ^ x22: .cfa -32 + ^ x23: .cfa -48 + ^ .ra: .cfa -56 + ^ x29: .cfa -64 + ^
STACK CFI 4d584 .cfa: sp 144 +
STACK CFI 4d598 .cfa: sp 0 +
STACK CFI 4d59c .cfa: x29 64 +
STACK CFI INIT 4d6d8 2f0 .cfa: sp 0 +
STACK CFI 4d6dc .cfa: sp 144 +
STACK CFI 4d6f0 .cfa: x29 64 + x19: .cfa -8 + ^ x20: .cfa -16 + ^ x21: .cfa -24 + ^ x22: .cfa -32 + ^ x23: .cfa -48 + ^ .ra: .cfa -56 + ^ x29: .cfa -64 + ^
STACK CFI 4d874 .cfa: sp 144 +
STACK CFI 4d888 .cfa: sp 0 +
STACK CFI 4d88c .cfa: x29 64 +
STACK CFI INIT 4d9c8 4f4 .cfa: sp 0 +
STACK CFI 4d9cc .cfa: sp 144 +
STACK CFI 4d9e0 .cfa: x29 64 + x19: .cfa -8 + ^ x20: .cfa -16 + ^ x21: .cfa -24 + ^ x22: .cfa -32 + ^ x23: .cfa -48 + ^ .ra: .cfa -56 + ^ x29: .cfa -64 + ^
STACK CFI 4dd14 .cfa: sp 144 +
STACK CFI 4dd28 .cfa: sp 0 +
STACK CFI 4dd2c .cfa: x29 64 +
STACK CFI INIT 4debc 154 .cfa: sp 0 +
STACK CFI 4dec0 .cfa: sp 384 +
STACK CFI 4ded4 .cfa: x29 64 + x19: .cfa -8 + ^ x20: .cfa -16 + ^ x21: .cfa -24 + ^ x22: .cfa -32 + ^ x23: .cfa -40 + ^ x28: .cfa -48 + ^ .ra: .cfa -56 + ^ x29: .cfa -64 + ^
STACK CFI 4dfb8 .cfa: sp 384 +
STACK CFI 4dfcc .cfa: sp 0 +
STACK CFI 4dfd0 .cfa: x29 64 +
STACK CFI INIT 4e028 50c .cfa: sp 0 +
STACK CFI 4e02c .cfa: sp 64 +
STACK CFI 4e03c .cfa: x29 64 + x19: .cfa -8 + ^ x20: .cfa -16 + ^ x21: .cfa -24 + ^ x22: .cfa -32 + ^ x23: .cfa -40 + ^ x24: .cfa -48 + ^ .ra: .cfa -56 + ^ x29: .cfa -64 + ^
STACK CFI 4e15c .cfa: sp 64 +
STACK CFI 4e16c .cfa: sp 0 +
STACK CFI 4e170 .cfa: x29 64 +
STACK CFI 4e508 .cfa: sp 64 +
STACK CFI 4e518 .cfa: sp 0 +
STACK CFI 4e51c .cfa: x29 64 +
STACK CFI INIT 4e898 114 .cfa: sp 0 +
STACK CFI 4e89c .cfa: sp 160 +
STACK CFI 4e8ac .cfa: x29 48 + x19: .cfa -8 + ^ x20: .cfa -16 + ^ x21: .cfa -24 + ^ x22: .cfa -32 + ^ .ra: .cfa -40 + ^ x29: .cfa -48 + ^
STACK CFI 4e990 .cfa: sp 160 +
STACK CFI 4e9a0 .cfa: sp 0 +
STACK CFI 4e9a4 .cfa: x29 48 +
STACK CFI INIT 4e9ac b4 .cfa: sp 0 +
STACK CFI 4e9b0 .cfa: sp 48 +
STACK CFI 4e9bc .cfa: x29 48 + x19: .cfa -8 + ^ x20: .cfa -16 + ^ x21: .cfa -24 + ^ x28: .cfa -32 + ^ .ra: .cfa -40 + ^ x29: .cfa -48 + ^
STACK CFI 4ea48 .cfa: sp 48 +
STACK CFI 4ea54 .cfa: sp 0 +
STACK CFI 4ea58 .cfa: x29 48 +
STACK CFI INIT 4ea60 190 .cfa: sp 0 +
STACK CFI 4ea64 .cfa: sp 208 +
STACK CFI 4ea74 .cfa: x29 48 + x19: .cfa -8 + ^ x20: .cfa -16 + ^ x21: .cfa -24 + ^ x22: .cfa -32 + ^ .ra: .cfa -40 + ^ x29: .cfa -48 + ^
STACK CFI 4eb78 .cfa: sp 208 +
STACK CFI 4eb88 .cfa: sp 0 +
STACK CFI 4eb8c .cfa: x29 48 +
STACK CFI INIT 4ec04 190 .cfa: sp 0 +
STACK CFI 4ec08 .cfa: sp 80 +
STACK CFI 4ec18 .cfa: x29 48 + x19: .cfa -8 + ^ x20: .cfa -16 + ^ x21: .cfa -24 + ^ x22: .cfa -32 + ^ .ra: .cfa -40 + ^ x29: .cfa -48 + ^
STACK CFI 4ecf8 .cfa: sp 80 +
STACK CFI 4ed08 .cfa: sp 0 +
STACK CFI 4ed0c .cfa: x29 48 +
STACK CFI INIT 4ee14 50 .cfa: sp 0 +
STACK CFI 4ee18 .cfa: sp 32 +
STACK CFI 4ee20 .cfa: x29 32 + x19: .cfa -8 + ^ x20: .cfa -16 + ^ .ra: .cfa -24 + ^ x29: .cfa -32 + ^
STACK CFI INIT 4ee94 1e8 .cfa: sp 0 +
STACK CFI 4ee98 .cfa: sp 144 +
STACK CFI 4eea8 .cfa: x29 48 + x19: .cfa -8 + ^ x20: .cfa -16 + ^ x21: .cfa -32 + ^ .ra: .cfa -40 + ^ x29: .cfa -48 + ^
STACK CFI 4efe0 .cfa: sp 144 +
STACK CFI 4eff0 .cfa: sp 0 +
STACK CFI 4eff4 .cfa: x29 48 +
STACK CFI INIT 4f17c 1a8 .cfa: sp 0 +
STACK CFI 4f180 .cfa: sp 96 +
STACK CFI 4f198 .cfa: x29 96 + x19: .cfa -8 + ^ x20: .cfa -16 + ^ x21: .cfa -24 + ^ x22: .cfa -32 + ^ x23: .cfa -40 + ^ x24: .cfa -48 + ^ x25: .cfa -56 + ^ x26: .cfa -64 + ^ x27: .cfa -72 + ^ x28: .cfa -80 + ^ .ra: .cfa -88 + ^ x29: .cfa -96 + ^
STACK CFI 4f278 .cfa: sp 96 +
STACK CFI 4f290 .cfa: sp 0 +
STACK CFI 4f294 .cfa: x29 96 +
STACK CFI INIT 4f324 13c .cfa: sp 0 +
STACK CFI 4f328 .cfa: sp 80 +
STACK CFI 4f33c .cfa: x29 80 + x19: .cfa -8 + ^ x20: .cfa -16 + ^ x21: .cfa -24 + ^ x22: .cfa -32 + ^ x23: .cfa -40 + ^ x24: .cfa -48 + ^ x28: .cfa -64 + ^ .ra: .cfa -72 + ^ x29: .cfa -80 + ^
STACK CFI 4f3d0 .cfa: sp 80 +
STACK CFI 4f3e4 .cfa: sp 0 +
STACK CFI 4f3e8 .cfa: x29 80 +
STACK CFI INIT 4f510 210 .cfa: sp 0 +
STACK CFI 4f514 .cfa: sp 80 +
STACK CFI 4f528 .cfa: x29 64 + x19: .cfa -8 + ^ x20: .cfa -16 + ^ x21: .cfa -24 + ^ x22: .cfa -32 + ^ x23: .cfa -40 + ^ x24: .cfa -48 + ^ .ra: .cfa -56 + ^ x29: .cfa -64 + ^
STACK CFI 4f6d0 .cfa: sp 80 +
STACK CFI 4f6e4 .cfa: sp 0 +
STACK CFI 4f6e8 .cfa: x29 64 +
STACK CFI INIT 4f720 114 .cfa: sp 0 +
STACK CFI 4f724 .cfa: sp 112 +
STACK CFI 4f738 .cfa: x29 64 + x19: .cfa -8 + ^ x20: .cfa -16 + ^ x21: .cfa -24 + ^ x22: .cfa -32 + ^ x23: .cfa -48 + ^ .ra: .cfa -56 + ^ x29: .cfa -64 + ^
STACK CFI 4f7a8 .cfa: sp 112 +
STACK CFI 4f7bc .cfa: sp 0 +
STACK CFI 4f7c0 .cfa: x29 64 +
STACK CFI INIT 4fae8 88 .cfa: sp 0 +
STACK CFI 4faec .cfa: sp 32 +
STACK CFI 4faf4 .cfa: x29 32 + x19: .cfa -8 + ^ x20: .cfa -16 + ^ .ra: .cfa -24 + ^ x29: .cfa -32 + ^
STACK CFI 4fb10 .cfa: sp 32 +
STACK CFI 4fb18 .cfa: sp 0 +
STACK CFI 4fb1c .cfa: x29 32 +
STACK CFI INIT 4fb70 13c .cfa: sp 0 +
STACK CFI 4fb74 .cfa: sp 64 +
STACK CFI 4fb84 .cfa: x29 64 + x19: .cfa -8 + ^ x20: .cfa -16 + ^ x21: .cfa -24 + ^ x22: .cfa -32 + ^ x28: .cfa -48 + ^ .ra: .cfa -56 + ^ x29: .cfa -64 + ^
STACK CFI 4fc08 .cfa: sp 64 +
STACK CFI 4fc18 .cfa: sp 0 +
STACK CFI 4fc1c .cfa: x29 64 +
STACK CFI INIT 4fcac 13c .cfa: sp 0 +
STACK CFI 4fcb0 .cfa: sp 64 +
STACK CFI 4fcc0 .cfa: x29 64 + x19: .cfa -8 + ^ x20: .cfa -16 + ^ x21: .cfa -24 + ^ x22: .cfa -32 + ^ x28: .cfa -48 + ^ .ra: .cfa -56 + ^ x29: .cfa -64 + ^
STACK CFI 4fd44 .cfa: sp 64 +
STACK CFI 4fd54 .cfa: sp 0 +
STACK CFI 4fd58 .cfa: x29 64 +
STACK CFI INIT 4fde8 174 .cfa: sp 0 +
STACK CFI 4fdec .cfa: sp 64 +
STACK CFI 4fdfc .cfa: x29 64 + x19: .cfa -8 + ^ x20: .cfa -16 + ^ x21: .cfa -24 + ^ x22: .cfa -32 + ^ x28: .cfa -48 + ^ .ra: .cfa -56 + ^ x29: .cfa -64 + ^
STACK CFI 4feb4 .cfa: sp 64 +
STACK CFI 4fec4 .cfa: sp 0 +
STACK CFI 4fec8 .cfa: x29 64 +
STACK CFI INIT 4ff5c 154 .cfa: sp 0 +
STACK CFI 4ff60 .cfa: sp 64 +
STACK CFI 4ff70 .cfa: x29 64 + x19: .cfa -8 + ^ x20: .cfa -16 + ^ x21: .cfa -24 + ^ x22: .cfa -32 + ^ x28: .cfa -48 + ^ .ra: .cfa -56 + ^ x29: .cfa -64 + ^
STACK CFI 5000c .cfa: sp 64 +
STACK CFI 5001c .cfa: sp 0 +
STACK CFI 50020 .cfa: x29 64 +
STACK CFI INIT 50af8 118 .cfa: sp 0 +
STACK CFI 50afc .cfa: sp 80 +
STACK CFI 50b0c .cfa: x29 48 + x19: .cfa -8 + ^ x20: .cfa -16 + ^ x21: .cfa -32 + ^ .ra: .cfa -40 + ^ x29: .cfa -48 + ^
STACK CFI 50bbc .cfa: sp 80 +
STACK CFI 50bcc .cfa: sp 0 +
STACK CFI 50bd0 .cfa: x29 48 +
STACK CFI INIT 50c10 ac .cfa: sp 0 +
STACK CFI 50c14 .cfa: sp 48 +
STACK CFI 50c20 .cfa: x29 32 + x19: .cfa -8 + ^ x20: .cfa -16 + ^ .ra: .cfa -24 + ^ x29: .cfa -32 + ^
STACK CFI 50c84 .cfa: sp 48 +
STACK CFI 50c90 .cfa: sp 0 +
STACK CFI 50c94 .cfa: x29 32 +
STACK CFI INIT 51018 118 .cfa: sp 0 +
STACK CFI 5101c .cfa: sp 80 +
STACK CFI 5102c .cfa: x29 48 + x19: .cfa -8 + ^ x20: .cfa -16 + ^ x21: .cfa -32 + ^ .ra: .cfa -40 + ^ x29: .cfa -48 + ^
STACK CFI 510dc .cfa: sp 80 +
STACK CFI 510ec .cfa: sp 0 +
STACK CFI 510f0 .cfa: x29 48 +
STACK CFI INIT 51130 ac .cfa: sp 0 +
STACK CFI 51134 .cfa: sp 48 +
STACK CFI 51140 .cfa: x29 32 + x19: .cfa -8 + ^ x20: .cfa -16 + ^ .ra: .cfa -24 + ^ x29: .cfa -32 + ^
STACK CFI 511a4 .cfa: sp 48 +
STACK CFI 511b0 .cfa: sp 0 +
STACK CFI 511b4 .cfa: x29 32 +
STACK CFI INIT 51438 1fc .cfa: sp 0 +
STACK CFI 5143c .cfa: sp 80 +
STACK CFI 51450 .cfa: x29 80 + x19: .cfa -8 + ^ x20: .cfa -16 + ^ x21: .cfa -24 + ^ x22: .cfa -32 + ^ x23: .cfa -40 + ^ x24: .cfa -48 + ^ x25: .cfa -64 + ^ .ra: .cfa -72 + ^ x29: .cfa -80 + ^
STACK CFI 515d8 .cfa: sp 80 +
STACK CFI 515ec .cfa: sp 0 +
STACK CFI 515f0 .cfa: x29 80 +
STACK CFI INIT 51784 1a0 .cfa: sp 0 +
STACK CFI 51788 .cfa: sp 96 +
STACK CFI 517a0 .cfa: x29 96 + x19: .cfa -8 + ^ x20: .cfa -16 + ^ x21: .cfa -24 + ^ x22: .cfa -32 + ^ x23: .cfa -40 + ^ x24: .cfa -48 + ^ x25: .cfa -56 + ^ x26: .cfa -64 + ^ x27: .cfa -72 + ^ x28: .cfa -80 + ^ .ra: .cfa -88 + ^ x29: .cfa -96 + ^
STACK CFI 51878 .cfa: sp 96 +
STACK CFI 51890 .cfa: sp 0 +
STACK CFI 51894 .cfa: x29 96 +
STACK CFI INIT 545c4 6d4 .cfa: sp 0 +
STACK CFI 545c8 .cfa: sp 272 +
STACK CFI 545e4 .cfa: x29 96 + x19: .cfa -8 + ^ x20: .cfa -16 + ^ x21: .cfa -24 + ^ x22: .cfa -32 + ^ x23: .cfa -40 + ^ x24: .cfa -48 + ^ x25: .cfa -56 + ^ x26: .cfa -64 + ^ x27: .cfa -72 + ^ x28: .cfa -80 + ^ .ra: .cfa -88 + ^ x29: .cfa -96 + ^
STACK CFI 54b44 .cfa: sp 272 +
STACK CFI 54b60 .cfa: sp 0 +
STACK CFI 54b64 .cfa: x29 96 +
STACK CFI INIT 54dec 1b8 .cfa: sp 0 +
STACK CFI 54df0 .cfa: sp 128 +
STACK CFI 54e00 .cfa: x29 48 + x19: .cfa -8 + ^ x20: .cfa -16 + ^ x21: .cfa -32 + ^ .ra: .cfa -40 + ^ x29: .cfa -48 + ^
STACK CFI 54f0c .cfa: sp 128 +
STACK CFI 54f1c .cfa: sp 0 +
STACK CFI 54f20 .cfa: x29 48 +
STACK CFI INIT 55468 2c0 .cfa: sp 0 +
STACK CFI 5546c .cfa: sp 80 +
STACK CFI 55480 .cfa: x29 80 + x19: .cfa -8 + ^ x20: .cfa -16 + ^ x21: .cfa -24 + ^ x22: .cfa -32 + ^ x23: .cfa -40 + ^ x24: .cfa -48 + ^ x28: .cfa -64 + ^ .ra: .cfa -72 + ^ x29: .cfa -80 + ^
STACK CFI 556dc .cfa: sp 80 +
STACK CFI 556f0 .cfa: sp 0 +
STACK CFI 556f4 .cfa: x29 80 +
STACK CFI INIT 55728 3b8 .cfa: sp 0 +
STACK CFI 5572c .cfa: sp 96 +
STACK CFI 55744 .cfa: x29 96 + x19: .cfa -8 + ^ x20: .cfa -16 + ^ x21: .cfa -24 + ^ x22: .cfa -32 + ^ x23: .cfa -40 + ^ x24: .cfa -48 + ^ x25: .cfa -56 + ^ x26: .cfa -64 + ^ x27: .cfa -72 + ^ x28: .cfa -80 + ^ .ra: .cfa -88 + ^ x29: .cfa -96 + ^
STACK CFI 55a80 .cfa: sp 96 +
STACK CFI 55a98 .cfa: sp 0 +
STACK CFI 55a9c .cfa: x29 96 +
STACK CFI INIT 55d10 148 .cfa: sp 0 +
STACK CFI 55d14 .cfa: sp 64 +
STACK CFI 55d24 .cfa: x29 64 + x19: .cfa -8 + ^ x20: .cfa -16 + ^ x21: .cfa -24 + ^ x22: .cfa -32 + ^ x23: .cfa -40 + ^ x28: .cfa -48 + ^ .ra: .cfa -56 + ^ x29: .cfa -64 + ^
STACK CFI 55e10 .cfa: sp 64 +
STACK CFI 55e20 .cfa: sp 0 +
STACK CFI 55e24 .cfa: x29 64 +
STACK CFI INIT 56074 6e4 .cfa: sp 0 +
STACK CFI 56078 .cfa: sp 272 +
STACK CFI 56094 .cfa: x29 96 + x19: .cfa -8 + ^ x20: .cfa -16 + ^ x21: .cfa -24 + ^ x22: .cfa -32 + ^ x23: .cfa -40 + ^ x24: .cfa -48 + ^ x25: .cfa -56 + ^ x26: .cfa -64 + ^ x27: .cfa -72 + ^ x28: .cfa -80 + ^ .ra: .cfa -88 + ^ x29: .cfa -96 + ^
STACK CFI 56604 .cfa: sp 272 +
STACK CFI 56620 .cfa: sp 0 +
STACK CFI 56624 .cfa: x29 96 +
STACK CFI INIT 56b74 2d8 .cfa: sp 0 +
STACK CFI 56b78 .cfa: sp 80 +
STACK CFI 56b8c .cfa: x29 80 + x19: .cfa -8 + ^ x20: .cfa -16 + ^ x21: .cfa -24 + ^ x22: .cfa -32 + ^ x23: .cfa -40 + ^ x24: .cfa -48 + ^ x28: .cfa -64 + ^ .ra: .cfa -72 + ^ x29: .cfa -80 + ^
STACK CFI 56e00 .cfa: sp 80 +
STACK CFI 56e14 .cfa: sp 0 +
STACK CFI 56e18 .cfa: x29 80 +
STACK CFI INIT 56fdc 148 .cfa: sp 0 +
STACK CFI 56fe0 .cfa: sp 64 +
STACK CFI 56ff0 .cfa: x29 64 + x19: .cfa -8 + ^ x20: .cfa -16 + ^ x21: .cfa -24 + ^ x22: .cfa -32 + ^ x23: .cfa -40 + ^ x28: .cfa -48 + ^ .ra: .cfa -56 + ^ x29: .cfa -64 + ^
STACK CFI 570dc .cfa: sp 64 +
STACK CFI 570ec .cfa: sp 0 +
STACK CFI 570f0 .cfa: x29 64 +
STACK CFI INIT 5734c 3e8 .cfa: sp 0 +
STACK CFI 57350 .cfa: sp 96 +
STACK CFI 57368 .cfa: x29 96 + x19: .cfa -8 + ^ x20: .cfa -16 + ^ x21: .cfa -24 + ^ x22: .cfa -32 + ^ x23: .cfa -40 + ^ x24: .cfa -48 + ^ x25: .cfa -56 + ^ x26: .cfa -64 + ^ x28: .cfa -80 + ^ .ra: .cfa -88 + ^ x29: .cfa -96 + ^
STACK CFI 576c0 .cfa: sp 96 +
STACK CFI 576d8 .cfa: sp 0 +
STACK CFI 576dc .cfa: x29 96 +
STACK CFI INIT 58154 1434 .cfa: sp 0 +
STACK CFI 58158 .cfa: sp 96 +
STACK CFI 58170 .cfa: x29 96 + x19: .cfa -8 + ^ x20: .cfa -16 + ^ x21: .cfa -24 + ^ x22: .cfa -32 + ^ x23: .cfa -40 + ^ x24: .cfa -48 + ^ x25: .cfa -56 + ^ x26: .cfa -64 + ^ x27: .cfa -72 + ^ x28: .cfa -80 + ^ .ra: .cfa -88 + ^ x29: .cfa -96 + ^
STACK CFI 5940c .cfa: sp 96 +
STACK CFI 59424 .cfa: sp 0 +
STACK CFI 59428 .cfa: x29 96 +
STACK CFI INIT 59c00 5cc .cfa: sp 0 +
STACK CFI 59c04 .cfa: sp 304 +
STACK CFI 59c20 .cfa: x29 96 + x19: .cfa -8 + ^ x20: .cfa -16 + ^ x21: .cfa -24 + ^ x22: .cfa -32 + ^ x23: .cfa -40 + ^ x24: .cfa -48 + ^ x25: .cfa -56 + ^ x26: .cfa -64 + ^ x27: .cfa -72 + ^ x28: .cfa -80 + ^ .ra: .cfa -88 + ^ x29: .cfa -96 + ^
STACK CFI 5a150 .cfa: sp 304 +
STACK CFI 5a16c .cfa: sp 0 +
STACK CFI 5a170 .cfa: x29 96 +
STACK CFI INIT 5a1cc 6b8 .cfa: sp 0 +
STACK CFI 5a1d0 .cfa: sp 272 +
STACK CFI 5a1ec .cfa: x29 96 + x19: .cfa -8 + ^ x20: .cfa -16 + ^ x21: .cfa -24 + ^ x22: .cfa -32 + ^ x23: .cfa -40 + ^ x24: .cfa -48 + ^ x25: .cfa -56 + ^ x26: .cfa -64 + ^ x27: .cfa -72 + ^ x28: .cfa -80 + ^ .ra: .cfa -88 + ^ x29: .cfa -96 + ^
STACK CFI 5a730 .cfa: sp 272 +
STACK CFI 5a74c .cfa: sp 0 +
STACK CFI 5a750 .cfa: x29 96 +
STACK CFI INIT 5ab20 3e8 .cfa: sp 0 +
STACK CFI 5ab24 .cfa: sp 96 +
STACK CFI 5ab3c .cfa: x29 96 + x19: .cfa -8 + ^ x20: .cfa -16 + ^ x21: .cfa -24 + ^ x22: .cfa -32 + ^ x23: .cfa -40 + ^ x24: .cfa -48 + ^ x25: .cfa -56 + ^ x26: .cfa -64 + ^ x28: .cfa -80 + ^ .ra: .cfa -88 + ^ x29: .cfa -96 + ^
STACK CFI 5aeb4 .cfa: sp 96 +
STACK CFI 5aecc .cfa: sp 0 +
STACK CFI 5aed0 .cfa: x29 96 +
STACK CFI INIT 5b098 214 .cfa: sp 0 +
STACK CFI 5b09c .cfa: sp 96 +
STACK CFI 5b0b4 .cfa: x29 96 + x19: .cfa -8 + ^ x20: .cfa -16 + ^ x21: .cfa -24 + ^ x22: .cfa -32 + ^ x23: .cfa -40 + ^ x24: .cfa -48 + ^ x25: .cfa -56 + ^ x26: .cfa -64 + ^ x27: .cfa -72 + ^ x28: .cfa -80 + ^ .ra: .cfa -88 + ^ x29: .cfa -96 + ^
STACK CFI 5b228 .cfa: sp 96 +
STACK CFI 5b240 .cfa: sp 0 +
STACK CFI 5b244 .cfa: x29 96 +
STACK CFI 5b25c .cfa: sp 96 +
STACK CFI 5b274 .cfa: sp 0 +
STACK CFI 5b278 .cfa: x29 96 +
STACK CFI INIT 5f3f0 398 .cfa: sp 0 +
STACK CFI 5f3f4 .cfa: sp 96 +
STACK CFI 5f410 .cfa: x29 88 + x19: .cfa -8 + ^ x20: .cfa -16 + ^ x21: .cfa -24 + ^ x22: .cfa -32 + ^ x23: .cfa -40 + ^ x24: .cfa -48 + ^ x25: .cfa -56 + ^ x26: .cfa -64 + ^ x28: .cfa -72 + ^ .ra: .cfa -80 + ^ x29: .cfa -88 + ^ v8: .cfa -96 + ^
STACK CFI 5f710 .cfa: sp 96 +
STACK CFI 5f72c .cfa: sp 0 +
STACK CFI 5f730 .cfa: x29 88 +
STACK CFI INIT 5fca8 7f8 .cfa: sp 0 +
STACK CFI 5fcac .cfa: sp 128 +
STACK CFI 5fcc0 .cfa: x29 64 + x19: .cfa -8 + ^ x20: .cfa -16 + ^ x21: .cfa -24 + ^ x22: .cfa -32 + ^ x23: .cfa -40 + ^ x24: .cfa -48 + ^ .ra: .cfa -56 + ^ x29: .cfa -64 + ^
STACK CFI 603fc .cfa: sp 128 +
STACK CFI 60410 .cfa: sp 0 +
STACK CFI 60414 .cfa: x29 64 +
STACK CFI INIT 606ac 38c .cfa: sp 0 +
STACK CFI 606b0 .cfa: sp 96 +
STACK CFI 606cc .cfa: x29 88 + x19: .cfa -8 + ^ x20: .cfa -16 + ^ x21: .cfa -24 + ^ x22: .cfa -32 + ^ x23: .cfa -40 + ^ x24: .cfa -48 + ^ x25: .cfa -56 + ^ x26: .cfa -64 + ^ x28: .cfa -72 + ^ .ra: .cfa -80 + ^ x29: .cfa -88 + ^ v8: .cfa -96 + ^
STACK CFI 609c0 .cfa: sp 96 +
STACK CFI 609dc .cfa: sp 0 +
STACK CFI 609e0 .cfa: x29 88 +
STACK CFI INIT 60bb4 218 .cfa: sp 0 +
STACK CFI 60bb8 .cfa: sp 192 +
STACK CFI 60bcc .cfa: x29 64 + x19: .cfa -8 + ^ x20: .cfa -16 + ^ x21: .cfa -24 + ^ x22: .cfa -32 + ^ x23: .cfa -40 + ^ x24: .cfa -48 + ^ .ra: .cfa -56 + ^ x29: .cfa -64 + ^
STACK CFI 60d44 .cfa: sp 192 +
STACK CFI 60d58 .cfa: sp 0 +
STACK CFI 60d5c .cfa: x29 64 +
STACK CFI INIT 60dcc 1f4 .cfa: sp 0 +
STACK CFI 60dd0 .cfa: sp 192 +
STACK CFI 60de4 .cfa: x29 64 + x19: .cfa -8 + ^ x20: .cfa -16 + ^ x21: .cfa -24 + ^ x22: .cfa -32 + ^ x23: .cfa -40 + ^ x24: .cfa -48 + ^ .ra: .cfa -56 + ^ x29: .cfa -64 + ^
STACK CFI 60f38 .cfa: sp 192 +
STACK CFI 60f4c .cfa: sp 0 +
STACK CFI 60f50 .cfa: x29 64 +
STACK CFI INIT 60fc0 218 .cfa: sp 0 +
STACK CFI 60fc4 .cfa: sp 192 +
STACK CFI 60fd8 .cfa: x29 64 + x19: .cfa -8 + ^ x20: .cfa -16 + ^ x21: .cfa -24 + ^ x22: .cfa -32 + ^ x23: .cfa -40 + ^ x24: .cfa -48 + ^ .ra: .cfa -56 + ^ x29: .cfa -64 + ^
STACK CFI 61150 .cfa: sp 192 +
STACK CFI 61164 .cfa: sp 0 +
STACK CFI 61168 .cfa: x29 64 +
STACK CFI INIT 611d8 1f4 .cfa: sp 0 +
STACK CFI 611dc .cfa: sp 192 +
STACK CFI 611f0 .cfa: x29 64 + x19: .cfa -8 + ^ x20: .cfa -16 + ^ x21: .cfa -24 + ^ x22: .cfa -32 + ^ x23: .cfa -40 + ^ x24: .cfa -48 + ^ .ra: .cfa -56 + ^ x29: .cfa -64 + ^
STACK CFI 61344 .cfa: sp 192 +
STACK CFI 61358 .cfa: sp 0 +
STACK CFI 6135c .cfa: x29 64 +
STACK CFI INIT 613cc 22c .cfa: sp 0 +
STACK CFI 613d0 .cfa: sp 208 +
STACK CFI 613e8 .cfa: x29 80 + x19: .cfa -8 + ^ x20: .cfa -16 + ^ x21: .cfa -24 + ^ x22: .cfa -32 + ^ x23: .cfa -40 + ^ x24: .cfa -48 + ^ x25: .cfa -64 + ^ .ra: .cfa -72 + ^ x29: .cfa -80 + ^
STACK CFI 6156c .cfa: sp 208 +
STACK CFI 61584 .cfa: sp 0 +
STACK CFI 61588 .cfa: x29 80 +
STACK CFI INIT 615f8 204 .cfa: sp 0 +
STACK CFI 615fc .cfa: sp 208 +
STACK CFI 61614 .cfa: x29 80 + x19: .cfa -8 + ^ x20: .cfa -16 + ^ x21: .cfa -24 + ^ x22: .cfa -32 + ^ x23: .cfa -40 + ^ x24: .cfa -48 + ^ x25: .cfa -64 + ^ .ra: .cfa -72 + ^ x29: .cfa -80 + ^
STACK CFI 61770 .cfa: sp 208 +
STACK CFI 61788 .cfa: sp 0 +
STACK CFI 6178c .cfa: x29 80 +
STACK CFI INIT 617fc 4fc .cfa: sp 0 +
STACK CFI 61800 .cfa: sp 96 +
STACK CFI 61818 .cfa: x29 96 + x19: .cfa -8 + ^ x20: .cfa -16 + ^ x21: .cfa -24 + ^ x22: .cfa -32 + ^ x23: .cfa -40 + ^ x24: .cfa -48 + ^ x25: .cfa -56 + ^ x26: .cfa -64 + ^ x27: .cfa -72 + ^ x28: .cfa -80 + ^ .ra: .cfa -88 + ^ x29: .cfa -96 + ^
STACK CFI 61ca4 .cfa: sp 96 +
STACK CFI 61cbc .cfa: sp 0 +
STACK CFI 61cc0 .cfa: x29 96 +
STACK CFI INIT 61e14 62c .cfa: sp 0 +
STACK CFI 61e18 .cfa: sp 96 +
STACK CFI 61e30 .cfa: x29 96 + x19: .cfa -8 + ^ x20: .cfa -16 + ^ x21: .cfa -24 + ^ x22: .cfa -32 + ^ x23: .cfa -40 + ^ x24: .cfa -48 + ^ x25: .cfa -56 + ^ x26: .cfa -64 + ^ x27: .cfa -72 + ^ x28: .cfa -80 + ^ .ra: .cfa -88 + ^ x29: .cfa -96 + ^
STACK CFI 623f0 .cfa: sp 96 +
STACK CFI 62408 .cfa: sp 0 +
STACK CFI 6240c .cfa: x29 96 +
