MODULE Linux arm64 28F266AD36E9A7C0916FBA461188E4840 hjfod.trashcan.android64.so
INFO CODE_ID AD66F228E936C0A7916FBA461188E484DCFEA691
INFO GENERATOR mozilla/dump_syms 2.3.4
PUBLIC 1da80 0 __on_dlclose
PUBLIC 1da90 0 __emutls_unregister_key
PUBLIC 1da98 0 __on_dlclose_late
PUBLIC 1daa0 0 __atexit_handler_wrapper
PUBLIC 1dab4 0 atexit
PUBLIC 1dad0 0 pthread_atfork
PUBLIC 1dae0 0 unwind_phase2
PUBLIC 1dc14 0 _Unwind_Resume
PUBLIC 1dc98 0 unwind_phase2_forced
PUBLIC m 1dd8c 0 __unw_init_local
PUBLIC m 1de34 0 __unw_get_reg
PUBLIC 1deb0 0 __unw_step_stage2
PUBLIC m 1dec4 0 __unw_get_proc_info
PUBLIC m 1df04 0 __unw_resume
PUBLIC 1df2c 0 libunwind::CFI_Parser<libunwind::LocalAddressSpace>::decodeFDE(libunwind::LocalAddressSpace&, unsigned long, libunwind::CFI_Parser<libunwind::LocalAddressSpace>::FDE_Info*, libunwind::CFI_Parser<libunwind::LocalAddressSpace>::CIE_Info*, bool)
PUBLIC 1e0bc 0 libunwind::CFI_Parser<libunwind::LocalAddressSpace>::parseCIE(libunwind::LocalAddressSpace&, unsigned long, libunwind::CFI_Parser<libunwind::LocalAddressSpace>::CIE_Info*)
PUBLIC 1e384 0 libunwind::AbstractUnwindCursor::~AbstractUnwindCursor()
PUBLIC 1e38c 0 libunwind::UnwindCursor<libunwind::LocalAddressSpace, libunwind::Registers_arm64>::~UnwindCursor()
PUBLIC 1e394 0 libunwind::UnwindCursor<libunwind::LocalAddressSpace, libunwind::Registers_arm64>::validReg(int)
PUBLIC 1e3d8 0 libunwind::UnwindCursor<libunwind::LocalAddressSpace, libunwind::Registers_arm64>::getReg(int)
PUBLIC 1e4c0 0 libunwind::UnwindCursor<libunwind::LocalAddressSpace, libunwind::Registers_arm64>::setReg(int, unsigned long)
PUBLIC 1e5a8 0 libunwind::UnwindCursor<libunwind::LocalAddressSpace, libunwind::Registers_arm64>::validFloatReg(int)
PUBLIC 1e5bc 0 libunwind::UnwindCursor<libunwind::LocalAddressSpace, libunwind::Registers_arm64>::getFloatReg(int)
PUBLIC 1e5cc 0 libunwind::UnwindCursor<libunwind::LocalAddressSpace, libunwind::Registers_arm64>::setFloatReg(int, double)
PUBLIC 1e5dc 0 libunwind::UnwindCursor<libunwind::LocalAddressSpace, libunwind::Registers_arm64>::step(bool)
PUBLIC 1e6cc 0 libunwind::UnwindCursor<libunwind::LocalAddressSpace, libunwind::Registers_arm64>::getInfo(unw_proc_info_t*)
PUBLIC 1e710 0 libunwind::UnwindCursor<libunwind::LocalAddressSpace, libunwind::Registers_arm64>::jumpto()
PUBLIC 1e71c 0 libunwind::UnwindCursor<libunwind::LocalAddressSpace, libunwind::Registers_arm64>::isSignalFrame()
PUBLIC 1e728 0 libunwind::UnwindCursor<libunwind::LocalAddressSpace, libunwind::Registers_arm64>::getFunctionName(char*, unsigned long, unsigned long*)
PUBLIC 1e754 0 libunwind::UnwindCursor<libunwind::LocalAddressSpace, libunwind::Registers_arm64>::setInfoBasedOnIPRegister(bool)
PUBLIC 1e9d4 0 libunwind::UnwindCursor<libunwind::LocalAddressSpace, libunwind::Registers_arm64>::getRegisterName(int)
PUBLIC 1e9e0 0 libunwind::UnwindCursor<libunwind::LocalAddressSpace, libunwind::Registers_arm64>::stepThroughSigReturn(libunwind::Registers_arm64&)
PUBLIC 1eb00 0 libunwind::DwarfInstructions<libunwind::LocalAddressSpace, libunwind::Registers_arm64>::stepWithDwarf(libunwind::LocalAddressSpace&, unsigned long, unsigned long, libunwind::Registers_arm64&, bool&, bool)
PUBLIC 1ef88 0 libunwind::CFI_Parser<libunwind::LocalAddressSpace>::parseFDEInstructions(libunwind::LocalAddressSpace&, libunwind::CFI_Parser<libunwind::LocalAddressSpace>::FDE_Info const&, libunwind::CFI_Parser<libunwind::LocalAddressSpace>::CIE_Info const&, unsigned long, int, libunwind::CFI_Parser<libunwind::LocalAddressSpace>::PrologInfo*)
PUBLIC 1fbd0 0 libunwind::DwarfInstructions<libunwind::LocalAddressSpace, libunwind::Registers_arm64>::getCFA(libunwind::LocalAddressSpace&, libunwind::CFI_Parser<libunwind::LocalAddressSpace>::PrologInfo const&, libunwind::Registers_arm64 const&)
PUBLIC 1fd04 0 libunwind::DwarfInstructions<libunwind::LocalAddressSpace, libunwind::Registers_arm64>::getSavedRegister(libunwind::LocalAddressSpace&, libunwind::Registers_arm64 const&, unsigned long, libunwind::CFI_Parser<libunwind::LocalAddressSpace>::RegisterLocation const&)
PUBLIC 1ff14 0 libunwind::LocalAddressSpace::getEncodedP(unsigned long&, unsigned long, unsigned char, unsigned long)
PUBLIC 202a0 0 libunwind::LocalAddressSpace::getULEB128(unsigned long&, unsigned long)
PUBLIC 20468 0 libunwind::DwarfInstructions<libunwind::LocalAddressSpace, libunwind::Registers_arm64>::evaluateExpression(unsigned long, libunwind::LocalAddressSpace&, libunwind::Registers_arm64 const&, unsigned long)
PUBLIC 20e24 0 libunwind::UnwindCursor<libunwind::LocalAddressSpace, libunwind::Registers_arm64>::getInfoFromDwarfSection(unsigned long, libunwind::UnwindInfoSections const&, unsigned int)
PUBLIC 210f8 0 libunwind::findUnwindSectionsByPhdr(dl_phdr_info*, unsigned long, void*)
PUBLIC 2122c 0 libunwind::EHHeaderParser<libunwind::LocalAddressSpace>::decodeEHHdr(libunwind::LocalAddressSpace&, unsigned long, unsigned long, libunwind::EHHeaderParser<libunwind::LocalAddressSpace>::EHHeaderInfo&)
PUBLIC 2134c 0 libunwind::CFI_Parser<libunwind::LocalAddressSpace>::findFDE(libunwind::LocalAddressSpace&, unsigned long, unsigned long, unsigned long, unsigned long, libunwind::CFI_Parser<libunwind::LocalAddressSpace>::FDE_Info*, libunwind::CFI_Parser<libunwind::LocalAddressSpace>::CIE_Info*)
PUBLIC 21514 0 libunwind::EHHeaderParser<libunwind::LocalAddressSpace>::findFDE(libunwind::LocalAddressSpace&, unsigned long, unsigned long, unsigned int, libunwind::CFI_Parser<libunwind::LocalAddressSpace>::FDE_Info*, libunwind::CFI_Parser<libunwind::LocalAddressSpace>::CIE_Info*)
PUBLIC 2167c 0 libunwind::EHHeaderParser<libunwind::LocalAddressSpace>::getTableEntrySize(unsigned char)
PUBLIC 21778 0 libunwind::Registers_arm64::getRegisterName(int)
PUBLIC 217a8 0 __libunwind_Registers_arm64_jumpto
PUBLIC m 21838 0 __unw_getcontext
PUBLIC 218d4 0 __divti3
PUBLIC 2192c 0 __udivmodti4
PUBLIC 21b80 0 __aarch64_ldadd8_acq_rel
PUBLIC 21bb0 0 init_have_lse_atomics
PUBLIC 21c48 0 __init_cpu_features_constructor
PUBLIC 221e4 0 __init_cpu_features
PUBLIC 22270 0 TrashcanPopup::setup()
PUBLIC 22640 0 TrashcanPopup::onDeleteAll(cocos2d::CCObject*)
PUBLIC 227b8 0 TrashcanPopup::updateList()
PUBLIC 23348 0 TrashcanPopup::onRestore(cocos2d::CCObject*)
PUBLIC 236cc 0 TrashcanPopup::onDelete(cocos2d::CCObject*)
PUBLIC 2399c 0 TrashcanPopup::onInfo(cocos2d::CCObject*)
PUBLIC 23d88 0 geode::Ref<Trashed>::~Ref()
PUBLIC 23da8 0 std::__ndk1::vector<geode::Ref<Trashed>, std::__ndk1::allocator<geode::Ref<Trashed> > >::~vector[abi:ne180000]()
PUBLIC 23e2c 0 TrashcanPopup::onDelete(cocos2d::CCObject*)::$_0::~$_0()
PUBLIC 23e48 0 geode::impl::ResultData<void, std::__ndk1::basic_string<char, std::__ndk1::char_traits<char>, std::__ndk1::allocator<char> > >::~ResultData()
PUBLIC 23ebc 0 TrashcanPopup::create()
PUBLIC 24098 0 cocos2d::CCCopying::copyWithZone(cocos2d::CCZone*)
PUBLIC 240a0 0 TrashcanPopup::~TrashcanPopup()
PUBLIC 2418c 0 TrashcanPopup::~TrashcanPopup()
PUBLIC 24280 0 geode::Popup<>::registerWithTouchDispatcher()
PUBLIC 242ac 0 geode::Popup<>::keyDown(cocos2d::enumKeyCodes)
PUBLIC 242d4 0 cocos2d::CCLayerRGBA::setOpacityModifyRGB(bool)
PUBLIC 242d8 0 cocos2d::CCLayerRGBA::isOpacityModifyRGB()
PUBLIC 242e0 0 geode::Popup<>::onClose(cocos2d::CCObject*)
PUBLIC 24428 0 {virtual override thunk({offset(-320)}, TrashcanPopup::~TrashcanPopup())}
PUBLIC 24518 0 {virtual override thunk({offset(-320)}, TrashcanPopup::~TrashcanPopup())}
PUBLIC 24610 0 {virtual override thunk({offset(-344)}, geode::Popup<>::keyDown(cocos2d::enumKeyCodes))}
PUBLIC 2463c 0 cocos2d::CCKeyboardDelegate::keyUp(cocos2d::enumKeyCodes)
PUBLIC 24640 0 cocos2d::CCMouseDelegate::rightKeyDown()
PUBLIC 24644 0 cocos2d::CCMouseDelegate::rightKeyUp()
PUBLIC 24648 0 cocos2d::CCMouseDelegate::scrollWheel(float, float)
PUBLIC 2464c 0 {virtual override thunk({offset(-408)}, cocos2d::CCLayerRGBA::setOpacityModifyRGB(bool))}
PUBLIC 24650 0 {virtual override thunk({offset(-408)}, cocos2d::CCLayerRGBA::isOpacityModifyRGB())}
PUBLIC 24658 0 __clang_call_terminate
PUBLIC 24668 0 fmt::v11::detail::value<fmt::v11::context>::format_custom_arg<std::__ndk1::chrono::time_point<std::__ndk1::chrono::system_clock, std::__ndk1::chrono::duration<__int128, std::__ndk1::ratio<(long)1, (long)1000000000> > >, fmt::v11::formatter<std::__ndk1::chrono::time_point<std::__ndk1::chrono::system_clock, std::__ndk1::chrono::duration<__int128, std::__ndk1::ratio<(long)1, (long)1000000000> > >, char, void> >(void*, fmt::v11::basic_format_parse_context<char>&, fmt::v11::context&)
PUBLIC 264f0 0 fmt::v11::detail::parse_dynamic_spec<char>(char const*, char const*, int&, fmt::v11::detail::arg_ref<char>&, fmt::v11::basic_format_parse_context<char>&)
PUBLIC 26694 0 fmt::v11::detail::do_parse_arg_id<char, fmt::v11::detail::dynamic_spec_id_handler<char>&>(char const*, char const*, fmt::v11::detail::dynamic_spec_id_handler<char>&)
PUBLIC 26828 0 fmt::v11::format_error::runtime_error(char const*)
PUBLIC 26854 0 fmt::v11::format_error::~format_error()
PUBLIC 26878 0 fmt::v11::detail::tm_format_checker::unsupported()
PUBLIC 268c8 0 fmt::v11::gmtime<std::__ndk1::chrono::duration<__int128, std::__ndk1::ratio<(long)1, (long)1000000000> > >(std::__ndk1::chrono::time_point<std::__ndk1::chrono::system_clock, std::__ndk1::chrono::duration<__int128, std::__ndk1::ratio<(long)1, (long)1000000000> > >)
PUBLIC 269fc 0 fmt::v11::detail::handle_dynamic_spec<fmt::v11::detail::width_checker, fmt::v11::context>(int&, fmt::v11::detail::arg_ref<fmt::v11::context::char_type>, fmt::v11::context&)
PUBLIC 26b10 0 fmt::v11::detail::write<char, fmt::v11::basic_appender<char> >(fmt::v11::basic_appender<char>, fmt::v11::basic_string_view<char>, fmt::v11::format_specs const&)
PUBLIC 26d8c 0 fmt::v11::basic_memory_buffer<char, (unsigned long)500, std::__ndk1::allocator<char> >::grow(fmt::v11::detail::buffer<char>&, unsigned long)
PUBLIC 26e04 0 fmt::v11::detail::get_dynamic_spec<fmt::v11::detail::width_checker, fmt::v11::basic_format_arg<fmt::v11::context> >(fmt::v11::basic_format_arg<fmt::v11::context>)
PUBLIC 26e98 0 fmt::v11::basic_format_args<fmt::v11::context>::get<char>(fmt::v11::basic_string_view<char>) const
PUBLIC 26ff0 0 fmt::v11::detail::tm_writer<std::__ndk1::back_insert_iterator<fmt::v11::basic_memory_buffer<char, (unsigned long)500, std::__ndk1::allocator<char> > >, char, std::__ndk1::chrono::duration<__int128, std::__ndk1::ratio<(long)1, (long)1000000000> > >::on_year(fmt::v11::detail::numeric_system)
PUBLIC 27118 0 fmt::v11::detail::tm_writer<std::__ndk1::back_insert_iterator<fmt::v11::basic_memory_buffer<char, (unsigned long)500, std::__ndk1::allocator<char> > >, char, std::__ndk1::chrono::duration<__int128, std::__ndk1::ratio<(long)1, (long)1000000000> > >::on_short_year(fmt::v11::detail::numeric_system)
PUBLIC 272dc 0 fmt::v11::detail::tm_writer<std::__ndk1::back_insert_iterator<fmt::v11::basic_memory_buffer<char, (unsigned long)500, std::__ndk1::allocator<char> > >, char, std::__ndk1::chrono::duration<__int128, std::__ndk1::ratio<(long)1, (long)1000000000> > >::on_century(fmt::v11::detail::numeric_system)
PUBLIC 27648 0 fmt::v11::detail::tm_writer<std::__ndk1::back_insert_iterator<fmt::v11::basic_memory_buffer<char, (unsigned long)500, std::__ndk1::allocator<char> > >, char, std::__ndk1::chrono::duration<__int128, std::__ndk1::ratio<(long)1, (long)1000000000> > >::on_abbr_weekday()
PUBLIC 27780 0 fmt::v11::detail::tm_writer<std::__ndk1::back_insert_iterator<fmt::v11::basic_memory_buffer<char, (unsigned long)500, std::__ndk1::allocator<char> > >, char, std::__ndk1::chrono::duration<__int128, std::__ndk1::ratio<(long)1, (long)1000000000> > >::on_dec0_weekday(fmt::v11::detail::numeric_system)
PUBLIC 278e0 0 fmt::v11::detail::tm_writer<std::__ndk1::back_insert_iterator<fmt::v11::basic_memory_buffer<char, (unsigned long)500, std::__ndk1::allocator<char> > >, char, std::__ndk1::chrono::duration<__int128, std::__ndk1::ratio<(long)1, (long)1000000000> > >::on_dec1_weekday(fmt::v11::detail::numeric_system)
PUBLIC 27a4c 0 fmt::v11::detail::tm_writer<std::__ndk1::back_insert_iterator<fmt::v11::basic_memory_buffer<char, (unsigned long)500, std::__ndk1::allocator<char> > >, char, std::__ndk1::chrono::duration<__int128, std::__ndk1::ratio<(long)1, (long)1000000000> > >::on_abbr_month()
PUBLIC 27b84 0 fmt::v11::detail::tm_writer<std::__ndk1::back_insert_iterator<fmt::v11::basic_memory_buffer<char, (unsigned long)500, std::__ndk1::allocator<char> > >, char, std::__ndk1::chrono::duration<__int128, std::__ndk1::ratio<(long)1, (long)1000000000> > >::on_dec_month(fmt::v11::detail::numeric_system)
PUBLIC 27d30 0 fmt::v11::detail::tm_writer<std::__ndk1::back_insert_iterator<fmt::v11::basic_memory_buffer<char, (unsigned long)500, std::__ndk1::allocator<char> > >, char, std::__ndk1::chrono::duration<__int128, std::__ndk1::ratio<(long)1, (long)1000000000> > >::on_dec0_week_of_year(fmt::v11::detail::numeric_system, fmt::v11::detail::pad_type)
PUBLIC 27e7c 0 fmt::v11::detail::tm_writer<std::__ndk1::back_insert_iterator<fmt::v11::basic_memory_buffer<char, (unsigned long)500, std::__ndk1::allocator<char> > >, char, std::__ndk1::chrono::duration<__int128, std::__ndk1::ratio<(long)1, (long)1000000000> > >::on_dec1_week_of_year(fmt::v11::detail::numeric_system, fmt::v11::detail::pad_type)
PUBLIC 27fdc 0 fmt::v11::detail::tm_writer<std::__ndk1::back_insert_iterator<fmt::v11::basic_memory_buffer<char, (unsigned long)500, std::__ndk1::allocator<char> > >, char, std::__ndk1::chrono::duration<__int128, std::__ndk1::ratio<(long)1, (long)1000000000> > >::on_iso_week_of_year(fmt::v11::detail::numeric_system, fmt::v11::detail::pad_type)
PUBLIC 28314 0 fmt::v11::detail::tm_writer<std::__ndk1::back_insert_iterator<fmt::v11::basic_memory_buffer<char, (unsigned long)500, std::__ndk1::allocator<char> > >, char, std::__ndk1::chrono::duration<__int128, std::__ndk1::ratio<(long)1, (long)1000000000> > >::on_day_of_month(fmt::v11::detail::numeric_system, fmt::v11::detail::pad_type)
PUBLIC 2843c 0 fmt::v11::detail::tm_writer<std::__ndk1::back_insert_iterator<fmt::v11::basic_memory_buffer<char, (unsigned long)500, std::__ndk1::allocator<char> > >, char, std::__ndk1::chrono::duration<__int128, std::__ndk1::ratio<(long)1, (long)1000000000> > >::on_24_hour(fmt::v11::detail::numeric_system, fmt::v11::detail::pad_type)
PUBLIC 28564 0 fmt::v11::detail::tm_writer<std::__ndk1::back_insert_iterator<fmt::v11::basic_memory_buffer<char, (unsigned long)500, std::__ndk1::allocator<char> > >, char, std::__ndk1::chrono::duration<__int128, std::__ndk1::ratio<(long)1, (long)1000000000> > >::on_12_hour(fmt::v11::detail::numeric_system, fmt::v11::detail::pad_type)
PUBLIC 286a0 0 fmt::v11::detail::tm_writer<std::__ndk1::back_insert_iterator<fmt::v11::basic_memory_buffer<char, (unsigned long)500, std::__ndk1::allocator<char> > >, char, std::__ndk1::chrono::duration<__int128, std::__ndk1::ratio<(long)1, (long)1000000000> > >::on_minute(fmt::v11::detail::numeric_system, fmt::v11::detail::pad_type)
PUBLIC 287c8 0 fmt::v11::detail::tm_writer<std::__ndk1::back_insert_iterator<fmt::v11::basic_memory_buffer<char, (unsigned long)500, std::__ndk1::allocator<char> > >, char, std::__ndk1::chrono::duration<__int128, std::__ndk1::ratio<(long)1, (long)1000000000> > >::on_second(fmt::v11::detail::numeric_system, fmt::v11::detail::pad_type)
PUBLIC 28908 0 fmt::v11::detail::tm_writer<std::__ndk1::back_insert_iterator<fmt::v11::basic_memory_buffer<char, (unsigned long)500, std::__ndk1::allocator<char> > >, char, std::__ndk1::chrono::duration<__int128, std::__ndk1::ratio<(long)1, (long)1000000000> > >::on_datetime(fmt::v11::detail::numeric_system)
PUBLIC 28bac 0 fmt::v11::detail::tm_writer<std::__ndk1::back_insert_iterator<fmt::v11::basic_memory_buffer<char, (unsigned long)500, std::__ndk1::allocator<char> > >, char, std::__ndk1::chrono::duration<__int128, std::__ndk1::ratio<(long)1, (long)1000000000> > >::on_loc_date(fmt::v11::detail::numeric_system)
PUBLIC 28dc8 0 fmt::v11::detail::tm_writer<std::__ndk1::back_insert_iterator<fmt::v11::basic_memory_buffer<char, (unsigned long)500, std::__ndk1::allocator<char> > >, char, std::__ndk1::chrono::duration<__int128, std::__ndk1::ratio<(long)1, (long)1000000000> > >::on_loc_time(fmt::v11::detail::numeric_system)
PUBLIC 28f58 0 fmt::v11::detail::tm_writer<std::__ndk1::back_insert_iterator<fmt::v11::basic_memory_buffer<char, (unsigned long)500, std::__ndk1::allocator<char> > >, char, std::__ndk1::chrono::duration<__int128, std::__ndk1::ratio<(long)1, (long)1000000000> > >::on_24_hour_time()
PUBLIC 290ec 0 fmt::v11::detail::tm_writer<std::__ndk1::back_insert_iterator<fmt::v11::basic_memory_buffer<char, (unsigned long)500, std::__ndk1::allocator<char> > >, char, std::__ndk1::chrono::duration<__int128, std::__ndk1::ratio<(long)1, (long)1000000000> > >::on_am_pm()
PUBLIC 29278 0 fmt::v11::detail::tm_writer<std::__ndk1::back_insert_iterator<fmt::v11::basic_memory_buffer<char, (unsigned long)500, std::__ndk1::allocator<char> > >, char, std::__ndk1::chrono::duration<__int128, std::__ndk1::ratio<(long)1, (long)1000000000> > >::on_offset_year()
PUBLIC 2943c 0 fmt::v11::detail::tm_writer<std::__ndk1::back_insert_iterator<fmt::v11::basic_memory_buffer<char, (unsigned long)500, std::__ndk1::allocator<char> > >, char, std::__ndk1::chrono::duration<__int128, std::__ndk1::ratio<(long)1, (long)1000000000> > >::write_year(long long)
PUBLIC 295a4 0 fmt::v11::detail::tm_writer<std::__ndk1::back_insert_iterator<fmt::v11::basic_memory_buffer<char, (unsigned long)500, std::__ndk1::allocator<char> > >, char, std::__ndk1::chrono::duration<__int128, std::__ndk1::ratio<(long)1, (long)1000000000> > >::write_year_extended(long long)
PUBLIC 29778 0 fmt::v11::detail::copy_noinline<char, char*, std::__ndk1::back_insert_iterator<fmt::v11::basic_memory_buffer<char, (unsigned long)500, std::__ndk1::allocator<char> > > >(char*, char*, std::__ndk1::back_insert_iterator<fmt::v11::basic_memory_buffer<char, (unsigned long)500, std::__ndk1::allocator<char> > >)
PUBLIC 298c8 0 fmt::v11::detail::do_write<char>(fmt::v11::detail::buffer<char>&, tm const&, std::__ndk1::locale const&, char, char)
PUBLIC 29afc 0 fmt::v11::detail::write_encoded_tm_str<std::__ndk1::back_insert_iterator<fmt::v11::basic_memory_buffer<char, (unsigned long)500, std::__ndk1::allocator<char> > > >(std::__ndk1::back_insert_iterator<fmt::v11::basic_memory_buffer<char, (unsigned long)500, std::__ndk1::allocator<char> > >, fmt::v11::basic_string_view<char>, std::__ndk1::locale const&)
PUBLIC 2a218 0 fmt::v11::detail::formatbuf<std::__ndk1::basic_streambuf<char, std::__ndk1::char_traits<char> > >::~formatbuf()
PUBLIC 2a23c 0 fmt::v11::detail::formatbuf<std::__ndk1::basic_streambuf<char, std::__ndk1::char_traits<char> > >::xsputn(char const*, long)
PUBLIC 2a394 0 fmt::v11::detail::formatbuf<std::__ndk1::basic_streambuf<char, std::__ndk1::char_traits<char> > >::overflow(int)
PUBLIC 2a3f0 0 fmt::v11::basic_memory_buffer<char, (unsigned long)128, std::__ndk1::allocator<char> >::grow(fmt::v11::detail::buffer<char>&, unsigned long)
PUBLIC 2a468 0 fmt::v11::detail::copy_noinline<char, char const*, std::__ndk1::back_insert_iterator<fmt::v11::basic_memory_buffer<char, (unsigned long)500, std::__ndk1::allocator<char> > > >(char const*, char const*, std::__ndk1::back_insert_iterator<fmt::v11::basic_memory_buffer<char, (unsigned long)500, std::__ndk1::allocator<char> > >)
PUBLIC 2a5b8 0 fmt::v11::detail::tm_writer<std::__ndk1::back_insert_iterator<fmt::v11::basic_memory_buffer<char, (unsigned long)500, std::__ndk1::allocator<char> > >, char, std::__ndk1::chrono::duration<__int128, std::__ndk1::ratio<(long)1, (long)1000000000> > >::write2(int, fmt::v11::detail::pad_type)
PUBLIC 2a710 0 fmt::v11::detail::write_fractional_seconds<char, std::__ndk1::back_insert_iterator<fmt::v11::basic_memory_buffer<char, (unsigned long)500, std::__ndk1::allocator<char> > >, std::__ndk1::chrono::duration<__int128, std::__ndk1::ratio<(long)1, (long)1000000000> > >(std::__ndk1::back_insert_iterator<fmt::v11::basic_memory_buffer<char, (unsigned long)500, std::__ndk1::allocator<char> > >&, std::__ndk1::chrono::duration<__int128, std::__ndk1::ratio<(long)1, (long)1000000000> >, int)
PUBLIC 2a970 0 fmt::v11::detail::tm_writer<std::__ndk1::back_insert_iterator<fmt::v11::basic_memory_buffer<char, (unsigned long)500, std::__ndk1::allocator<char> > >, char, std::__ndk1::chrono::duration<__int128, std::__ndk1::ratio<(long)1, (long)1000000000> > >::write_utc_offset(long, fmt::v11::detail::numeric_system)
PUBLIC 2ab9c 0 fmt::v11::detail::write_escaped_string<char, fmt::v11::detail::counting_iterator>(fmt::v11::detail::counting_iterator, fmt::v11::basic_string_view<char>)
PUBLIC 2b0bc 0 fmt::v11::detail::write_padded<char, (fmt::v11::align::type)1, fmt::v11::basic_appender<char>, fmt::v11::detail::write<char, fmt::v11::basic_appender<char> >(fmt::v11::basic_appender<char>, fmt::v11::basic_string_view<char>, fmt::v11::format_specs const&)::{lambda(fmt::v11::basic_appender<char>)#1}>(fmt::v11::basic_appender<char>, fmt::v11::format_specs const&, unsigned long, unsigned long, fmt::v11::detail::write<char, fmt::v11::basic_appender<char> >(fmt::v11::basic_appender<char>, fmt::v11::basic_string_view<char>, fmt::v11::format_specs const&)::{lambda(fmt::v11::basic_appender<char>&&)#1})
PUBLIC 2b2c8 0 fmt::v11::detail::for_each_codepoint<fmt::v11::detail::code_point_index(fmt::v11::basic_string_view<char>, unsigned long)::{lambda(unsigned int, fmt::v11::basic_string_view<char>)#1}>(fmt::v11::basic_string_view<char>, fmt::v11::detail::code_point_index(fmt::v11::basic_string_view<char>, unsigned long)::{lambda(unsigned int, fmt::v11::basic_string_view<char>)#1})
PUBLIC 2b6f0 0 fmt::v11::detail::write_escaped_cp<fmt::v11::detail::counting_iterator, char>(fmt::v11::detail::counting_iterator, fmt::v11::detail::find_escape_result<char> const&)
PUBLIC 2b884 0 fmt::v11::detail::for_each_codepoint<fmt::v11::detail::compute_width(fmt::v11::basic_string_view<char>)::count_code_points>(fmt::v11::basic_string_view<char>, fmt::v11::detail::compute_width(fmt::v11::basic_string_view<char>)::count_code_points)::{lambda(char const*, char const*)#1}::operator()(char const*, char const*) const
PUBLIC 2ba3c 0 fmt::v11::detail::fill<char, fmt::v11::basic_appender<char> >(fmt::v11::basic_appender<char>, unsigned long, fmt::v11::detail::fill_t const&)
PUBLIC 2bc0c 0 fmt::v11::detail::write_escaped_string<char, fmt::v11::basic_appender<char> >(fmt::v11::basic_appender<char>, fmt::v11::basic_string_view<char>)
PUBLIC 2c288 0 fmt::v11::detail::write_escaped_cp<fmt::v11::basic_appender<char>, char>(fmt::v11::basic_appender<char>, fmt::v11::detail::find_escape_result<char> const&)
PUBLIC 2c46c 0 fmt::v11::detail::write_codepoint<(unsigned long)2, char, fmt::v11::basic_appender<char> >(fmt::v11::basic_appender<char>, char, unsigned int)
PUBLIC 2c5e4 0 fmt::v11::detail::write_codepoint<(unsigned long)4, char, fmt::v11::basic_appender<char> >(fmt::v11::basic_appender<char>, char, unsigned int)
PUBLIC 2c75c 0 fmt::v11::detail::write_codepoint<(unsigned long)8, char, fmt::v11::basic_appender<char> >(fmt::v11::basic_appender<char>, char, unsigned int)
PUBLIC 2c8d4 0 std::__ndk1::__throw_bad_variant_access[abi:ne180000]()
PUBLIC 2c908 0 geode::UnwrapException::~UnwrapException()
PUBLIC 2c92c 0 std::__ndk1::__variant_detail::__visitation::__base::__dispatcher<(unsigned long)0>::__dispatch[abi:ne180000]<std::__ndk1::__variant_detail::__dtor<std::__ndk1::__variant_detail::__traits<std::__ndk1::monostate, std::__ndk1::basic_string<char, std::__ndk1::char_traits<char>, std::__ndk1::allocator<char> > >, (std::__ndk1::__variant_detail::_Trait)1>::__destroy[abi:ne180000]()::{lambda(auto:1&)#1}, std::__ndk1::__variant_detail::__base<(std::__ndk1::__variant_detail::__traits<std::__ndk1::monostate, std::__ndk1::basic_string<char, std::__ndk1::char_traits<char>, std::__ndk1::allocator<char> > >)1, std::__ndk1::__variant_detail::__traits, std::__ndk1::allocator<char> >&>(std::__ndk1::__variant_detail::__dtor<std::__ndk1::__variant_detail::__traits<std::__ndk1::monostate, std::__ndk1::basic_string<char, std::__ndk1::char_traits<char>, std::__ndk1::allocator<char> > >, (std::__ndk1::__variant_detail::_Trait)1>, std::__ndk1::__variant_detail::__base<(std::__ndk1::__variant_detail::__traits<std::__ndk1::monostate, std::__ndk1::basic_string<char, std::__ndk1::char_traits<char>, std::__ndk1::allocator<char> > >)1, std::__ndk1::__variant_detail::__traits, std::__ndk1::allocator<char> >&)
PUBLIC 2c930 0 std::__ndk1::__variant_detail::__visitation::__base::__dispatcher<(unsigned long)1>::__dispatch[abi:ne180000]<std::__ndk1::__variant_detail::__dtor<std::__ndk1::__variant_detail::__traits<std::__ndk1::monostate, std::__ndk1::basic_string<char, std::__ndk1::char_traits<char>, std::__ndk1::allocator<char> > >, (std::__ndk1::__variant_detail::_Trait)1>::__destroy[abi:ne180000]()::{lambda(auto:1&)#1}, std::__ndk1::__variant_detail::__base<(std::__ndk1::__variant_detail::__traits<std::__ndk1::monostate, std::__ndk1::basic_string<char, std::__ndk1::char_traits<char>, std::__ndk1::allocator<char> > >)1, std::__ndk1::__variant_detail::__traits, std::__ndk1::allocator<char> >&>(std::__ndk1::__variant_detail::__dtor<std::__ndk1::__variant_detail::__traits<std::__ndk1::monostate, std::__ndk1::basic_string<char, std::__ndk1::char_traits<char>, std::__ndk1::allocator<char> > >, (std::__ndk1::__variant_detail::_Trait)1>, std::__ndk1::__variant_detail::__base<(std::__ndk1::__variant_detail::__traits<std::__ndk1::monostate, std::__ndk1::basic_string<char, std::__ndk1::char_traits<char>, std::__ndk1::allocator<char> > >)1, std::__ndk1::__variant_detail::__traits, std::__ndk1::allocator<char> >&)
PUBLIC 2c944 0 geode::Popup<>::~Popup()
PUBLIC 2c9b0 0 geode::Popup<>::~Popup()
PUBLIC 2c9b4 0 {virtual override thunk({offset(-320)}, geode::Popup<>::~Popup())}
PUBLIC 2ca20 0 {virtual override thunk({offset(-320)}, geode::Popup<>::~Popup())}
PUBLIC 2ca24 0 geode::EventListener<geode::EventFilter<UpdateTrashEvent> >::getPool() const
PUBLIC 2ca28 0 geode::EventListener<geode::EventFilter<UpdateTrashEvent> >::handle(geode::Event*)
PUBLIC 2cbc8 0 geode::EventListener<geode::EventFilter<UpdateTrashEvent> >::~EventListener()
PUBLIC 2cc24 0 geode::EventListener<geode::EventFilter<UpdateTrashEvent> >::~EventListener()
PUBLIC 2cc88 0 geode::cast::traverseTypeinfoFor(void*, geode::cast::ClassTypeinfoType const*, char const*)
PUBLIC 2cd8c 0 std::__ndk1::__throw_bad_function_call[abi:ne180000]()
PUBLIC 2cdc0 0 std::__ndk1::bad_function_call::~bad_function_call()
PUBLIC 2cde4 0 std::__ndk1::__function::__value_func<geode::ListenerResult(UpdateTrashEvent*)>::swap[abi:ne180000](std::__ndk1::__function::__value_func<geode::ListenerResult(UpdateTrashEvent*)>&)
PUBLIC 2cf7c 0 std::__ndk1::__function::__base<geode::ListenerResult(UpdateTrashEvent*)>::~__base()
PUBLIC 2cf80 0 std::__ndk1::__function::__func<TrashcanPopup::setup()::$_0, std::__ndk1::allocator<TrashcanPopup::setup()::$_0>, geode::ListenerResult(UpdateTrashEvent*)>::~__func()
PUBLIC 2cf84 0 std::__ndk1::__function::__func<TrashcanPopup::setup()::$_0, std::__ndk1::allocator<TrashcanPopup::setup()::$_0>, geode::ListenerResult(UpdateTrashEvent*)>::__clone() const
PUBLIC 2cfb8 0 std::__ndk1::__function::__func<TrashcanPopup::setup()::$_0, std::__ndk1::allocator<TrashcanPopup::setup()::$_0>, geode::ListenerResult(UpdateTrashEvent*)>::__clone(std::__ndk1::__function::__base<geode::ListenerResult(UpdateTrashEvent*)>*) const
PUBLIC 2cfcc 0 std::__ndk1::__function::__func<TrashcanPopup::setup()::$_0, std::__ndk1::allocator<TrashcanPopup::setup()::$_0>, geode::ListenerResult(UpdateTrashEvent*)>::destroy()
PUBLIC 2cfd0 0 std::__ndk1::__function::__func<TrashcanPopup::setup()::$_0, std::__ndk1::allocator<TrashcanPopup::setup()::$_0>, geode::ListenerResult(UpdateTrashEvent*)>::destroy_deallocate()
PUBLIC 2cfd4 0 std::__ndk1::__function::__func<TrashcanPopup::setup()::$_0, std::__ndk1::allocator<TrashcanPopup::setup()::$_0>, geode::ListenerResult(UpdateTrashEvent*)>::operator()(UpdateTrashEvent*&&)
PUBLIC 2cff0 0 std::__ndk1::__function::__func<TrashcanPopup::setup()::$_0, std::__ndk1::allocator<TrashcanPopup::setup()::$_0>, geode::ListenerResult(UpdateTrashEvent*)>::target(std::type_info const&) const
PUBLIC 2d00c 0 std::__ndk1::__function::__func<TrashcanPopup::setup()::$_0, std::__ndk1::allocator<TrashcanPopup::setup()::$_0>, geode::ListenerResult(UpdateTrashEvent*)>::target_type() const
PUBLIC 2d018 0 geode::Popup<>::CloseEvent::~CloseEvent()
PUBLIC 2d078 0 geode::Popup<>::CloseEvent::~CloseEvent()
PUBLIC 2d0e8 0 std::__ndk1::__shared_ptr_emplace<geode::Popup<>::CloseEvent::Impl, std::__ndk1::allocator<geode::Popup<>::CloseEvent::Impl> >::~__shared_ptr_emplace()
PUBLIC 2d0f8 0 std::__ndk1::__shared_ptr_emplace<geode::Popup<>::CloseEvent::Impl, std::__ndk1::allocator<geode::Popup<>::CloseEvent::Impl> >::~__shared_ptr_emplace()
PUBLIC 2d128 0 std::__ndk1::__shared_ptr_emplace<geode::Popup<>::CloseEvent::Impl, std::__ndk1::allocator<geode::Popup<>::CloseEvent::Impl> >::__on_zero_shared()
PUBLIC 2d12c 0 std::__ndk1::__shared_ptr_emplace<geode::Popup<>::CloseEvent::Impl, std::__ndk1::allocator<geode::Popup<>::CloseEvent::Impl> >::__on_zero_shared_weak()
PUBLIC 2d130 0 fmt::v11::detail::value<fmt::v11::context>::format_custom_arg<gd::string, fmt::v11::formatter<gd::string, char, void> >(void*, fmt::v11::basic_format_parse_context<char>&, fmt::v11::context&)
PUBLIC 2d304 0 fmt::v11::detail::parse_format_specs<char>(char const*, char const*, fmt::v11::detail::dynamic_format_specs<char>&, fmt::v11::basic_format_parse_context<char>&, fmt::v11::detail::type)
PUBLIC 2d7b8 0 fmt::v11::detail::handle_dynamic_spec<fmt::v11::detail::precision_checker, fmt::v11::context>(int&, fmt::v11::detail::arg_ref<fmt::v11::context::char_type>, fmt::v11::context&)
PUBLIC 2d8cc 0 fmt::v11::detail::get_dynamic_spec<fmt::v11::detail::precision_checker, fmt::v11::basic_format_arg<fmt::v11::context> >(fmt::v11::basic_format_arg<fmt::v11::context>)
PUBLIC 2d960 0 std::__ndk1::__function::__func<TrashcanPopup::onDelete(cocos2d::CCObject*)::$_0, std::__ndk1::allocator<TrashcanPopup::onDelete(cocos2d::CCObject*)::$_0>, void (FLAlertLayer*, bool)>::~__func()
PUBLIC 2d990 0 std::__ndk1::__function::__func<TrashcanPopup::onDelete(cocos2d::CCObject*)::$_0, std::__ndk1::allocator<TrashcanPopup::onDelete(cocos2d::CCObject*)::$_0>, void (FLAlertLayer*, bool)>::~__func()
PUBLIC 2d9cc 0 std::__ndk1::__function::__func<TrashcanPopup::onDelete(cocos2d::CCObject*)::$_0, std::__ndk1::allocator<TrashcanPopup::onDelete(cocos2d::CCObject*)::$_0>, void (FLAlertLayer*, bool)>::__clone() const
PUBLIC 2da24 0 std::__ndk1::__function::__func<TrashcanPopup::onDelete(cocos2d::CCObject*)::$_0, std::__ndk1::allocator<TrashcanPopup::onDelete(cocos2d::CCObject*)::$_0>, void (FLAlertLayer*, bool)>::__clone(std::__ndk1::__function::__base<void (FLAlertLayer*, bool)>*) const
PUBLIC 2da40 0 std::__ndk1::__function::__func<TrashcanPopup::onDelete(cocos2d::CCObject*)::$_0, std::__ndk1::allocator<TrashcanPopup::onDelete(cocos2d::CCObject*)::$_0>, void (FLAlertLayer*, bool)>::destroy()
PUBLIC 2da60 0 std::__ndk1::__function::__func<TrashcanPopup::onDelete(cocos2d::CCObject*)::$_0, std::__ndk1::allocator<TrashcanPopup::onDelete(cocos2d::CCObject*)::$_0>, void (FLAlertLayer*, bool)>::destroy_deallocate()
PUBLIC 2da90 0 std::__ndk1::__function::__func<TrashcanPopup::onDelete(cocos2d::CCObject*)::$_0, std::__ndk1::allocator<TrashcanPopup::onDelete(cocos2d::CCObject*)::$_0>, void (FLAlertLayer*, bool)>::operator()(FLAlertLayer*&&, bool&&)
PUBLIC 2de14 0 std::__ndk1::__function::__func<TrashcanPopup::onDelete(cocos2d::CCObject*)::$_0, std::__ndk1::allocator<TrashcanPopup::onDelete(cocos2d::CCObject*)::$_0>, void (FLAlertLayer*, bool)>::target(std::type_info const&) const
PUBLIC 2de30 0 std::__ndk1::__function::__func<TrashcanPopup::onDelete(cocos2d::CCObject*)::$_0, std::__ndk1::allocator<TrashcanPopup::onDelete(cocos2d::CCObject*)::$_0>, void (FLAlertLayer*, bool)>::target_type() const
PUBLIC 2de3c 0 std::__ndk1::__function::__base<void (FLAlertLayer*, bool)>::~__base()
PUBLIC 2de40 0 std::__ndk1::__function::__func<TrashcanPopup::onDeleteAll(cocos2d::CCObject*)::$_0, std::__ndk1::allocator<TrashcanPopup::onDeleteAll(cocos2d::CCObject*)::$_0>, void (FLAlertLayer*, bool)>::~__func()
PUBLIC 2de44 0 std::__ndk1::__function::__func<TrashcanPopup::onDeleteAll(cocos2d::CCObject*)::$_0, std::__ndk1::allocator<TrashcanPopup::onDeleteAll(cocos2d::CCObject*)::$_0>, void (FLAlertLayer*, bool)>::__clone() const
PUBLIC 2de68 0 std::__ndk1::__function::__func<TrashcanPopup::onDeleteAll(cocos2d::CCObject*)::$_0, std::__ndk1::allocator<TrashcanPopup::onDeleteAll(cocos2d::CCObject*)::$_0>, void (FLAlertLayer*, bool)>::__clone(std::__ndk1::__function::__base<void (FLAlertLayer*, bool)>*) const
PUBLIC 2de78 0 std::__ndk1::__function::__func<TrashcanPopup::onDeleteAll(cocos2d::CCObject*)::$_0, std::__ndk1::allocator<TrashcanPopup::onDeleteAll(cocos2d::CCObject*)::$_0>, void (FLAlertLayer*, bool)>::destroy()
PUBLIC 2de7c 0 std::__ndk1::__function::__func<TrashcanPopup::onDeleteAll(cocos2d::CCObject*)::$_0, std::__ndk1::allocator<TrashcanPopup::onDeleteAll(cocos2d::CCObject*)::$_0>, void (FLAlertLayer*, bool)>::destroy_deallocate()
PUBLIC 2de80 0 std::__ndk1::__function::__func<TrashcanPopup::onDeleteAll(cocos2d::CCObject*)::$_0, std::__ndk1::allocator<TrashcanPopup::onDeleteAll(cocos2d::CCObject*)::$_0>, void (FLAlertLayer*, bool)>::operator()(FLAlertLayer*&&, bool&&)
PUBLIC 2e118 0 std::__ndk1::__function::__func<TrashcanPopup::onDeleteAll(cocos2d::CCObject*)::$_0, std::__ndk1::allocator<TrashcanPopup::onDeleteAll(cocos2d::CCObject*)::$_0>, void (FLAlertLayer*, bool)>::target(std::type_info const&) const
PUBLIC 2e134 0 std::__ndk1::__function::__func<TrashcanPopup::onDeleteAll(cocos2d::CCObject*)::$_0, std::__ndk1::allocator<TrashcanPopup::onDeleteAll(cocos2d::CCObject*)::$_0>, void (FLAlertLayer*, bool)>::target_type() const
PUBLIC 2e140 0 geode::Popup<>::initBase(float, float, char const*, cocos2d::CCRect, bool)
PUBLIC 2e448 0 getTrashDir()
PUBLIC 2e58c 0 getFreeIDInDir(std::__ndk1::basic_string<char, std::__ndk1::char_traits<char>, std::__ndk1::allocator<char> > const&, std::__ndk1::__fs::filesystem::path const&, std::__ndk1::basic_string<char, std::__ndk1::char_traits<char>, std::__ndk1::allocator<char> > const&)
PUBLIC 2ee08 0 Trashed::load()
PUBLIC 2f2a4 0 geode::impl::ResultData<geode::Ref<GJLevelList>, std::__ndk1::basic_string<char, std::__ndk1::char_traits<char>, std::__ndk1::allocator<char> > >::~ResultData()
PUBLIC 2f318 0 geode::impl::ResultData<GJGameLevel*, std::__ndk1::basic_string<char, std::__ndk1::char_traits<char>, std::__ndk1::allocator<char> > >::~ResultData()
PUBLIC 2f38c 0 std::__ndk1::vector<std::__ndk1::__fs::filesystem::path, std::__ndk1::allocator<std::__ndk1::__fs::filesystem::path> >::~vector[abi:ne180000]()
PUBLIC 2f408 0 Trashed::trash(GJGameLevel*)
PUBLIC 2f844 0 Trashed::trash(GJLevelList*)
PUBLIC 2fc84 0 Trashed::untrash()
PUBLIC 2ff3c 0 Trashed::KABOOM()
PUBLIC 301a8 0 Trashed::recover(std::__ndk1::__fs::filesystem::path const&, unsigned long&, unsigned long&)
PUBLIC 30cf0 0 Trashed::recoverAll()
PUBLIC 3108c 0 Trashed::~Trashed()
PUBLIC 31124 0 Trashed::~Trashed()
PUBLIC 311c4 0 cocos2d::CCObject::update(float)
PUBLIC 311c8 0 std::__ndk1::__fs::filesystem::path::operator/=[abi:ne180000](std::__ndk1::__fs::filesystem::path const&)
PUBLIC 312b0 0 std::__ndk1::basic_string<char, std::__ndk1::char_traits<char>, std::__ndk1::allocator<char> >::__assign_no_alias<true>(char const*, unsigned long)
PUBLIC 3135c 0 std::__ndk1::basic_string<char, std::__ndk1::char_traits<char>, std::__ndk1::allocator<char> >::__assign_no_alias<false>(char const*, unsigned long)
PUBLIC 3146c 0 std::__ndk1::basic_string<char, std::__ndk1::char_traits<char>, std::__ndk1::allocator<char> >::__throw_length_error[abi:ne180000]() const
PUBLIC 31480 0 std::__ndk1::__throw_length_error[abi:ne180000](char const*)
PUBLIC 314d0 0 std::length_error::length_error[abi:ne180000](char const*)
PUBLIC 31500 0 std::__throw_bad_array_new_length([abi:ne180000], void)
PUBLIC 31534 0 geode::utils::hash(char const*, int)
PUBLIC 31574 0 _ZNSt6__ndk112basic_stringIcNS_11char_traitsIcEENS_9allocatorIcEEE6appendB8ne180000IPKcTnNS_9enable_ifIXsr31__has_forward_iterator_categoryIT_EE5valueEiE4typeELi0EEERS5_SA_SA_
PUBLIC 31878 0 std::__ndk1::basic_string<char, std::__ndk1::char_traits<char>, std::__ndk1::allocator<char> >::__init_copy_ctor_external(char const*, unsigned long)
PUBLIC 318f8 0 std::__ndk1::__variant_detail::__visitation::__base::__dispatcher<(unsigned long)0>::__dispatch[abi:ne180000]<std::__ndk1::__variant_detail::__dtor<std::__ndk1::__variant_detail::__traits<std::__ndk1::vector<std::__ndk1::__fs::filesystem::path, std::__ndk1::allocator<std::__ndk1::__fs::filesystem> >, std::__ndk1::basic_string<char, std::__ndk1::char_traits<char>, std::__ndk1::__fs::filesystem::path<char> > >, (std::__ndk1::__variant_detail::_Trait)1>::__destroy[abi:ne180000]()::{lambda(auto:1&)#1}, std::__ndk1::__variant_detail::__base<(std::__ndk1::__variant_detail::__traits<std::__ndk1::vector<std::__ndk1::__fs::filesystem::path, std::__ndk1::allocator<std::__ndk1::__fs::filesystem> >, std::__ndk1::basic_string<char, std::__ndk1::char_traits<char>, std::__ndk1::__fs::filesystem::path<char> > >)1, std::__ndk1::allocator<std::__ndk1::__fs::filesystem>, std::__ndk1::__fs::filesystem::path<char> >&>(std::__ndk1::__variant_detail::__dtor<std::__ndk1::__variant_detail::__traits<std::__ndk1::vector<std::__ndk1::__fs::filesystem::path, std::__ndk1::allocator<std::__ndk1::__fs::filesystem> >, std::__ndk1::basic_string<char, std::__ndk1::char_traits<char>, std::__ndk1::__fs::filesystem::path<char> > >, (std::__ndk1::__variant_detail::_Trait)1>, std::__ndk1::__variant_detail::__base<(std::__ndk1::__variant_detail::__traits<std::__ndk1::vector<std::__ndk1::__fs::filesystem::path, std::__ndk1::allocator<std::__ndk1::__fs::filesystem> >, std::__ndk1::basic_string<char, std::__ndk1::char_traits<char>, std::__ndk1::__fs::filesystem::path<char> > >)1, std::__ndk1::allocator<std::__ndk1::__fs::filesystem>, std::__ndk1::__fs::filesystem::path<char> >&)
PUBLIC 31974 0 std::__ndk1::__variant_detail::__visitation::__base::__dispatcher<(unsigned long)1>::__dispatch[abi:ne180000]<std::__ndk1::__variant_detail::__dtor<std::__ndk1::__variant_detail::__traits<std::__ndk1::vector<std::__ndk1::__fs::filesystem::path, std::__ndk1::allocator<std::__ndk1::__fs::filesystem> >, std::__ndk1::basic_string<char, std::__ndk1::char_traits<char>, std::__ndk1::__fs::filesystem::path<char> > >, (std::__ndk1::__variant_detail::_Trait)1>::__destroy[abi:ne180000]()::{lambda(auto:1&)#1}, std::__ndk1::__variant_detail::__base<(std::__ndk1::__variant_detail::__traits<std::__ndk1::vector<std::__ndk1::__fs::filesystem::path, std::__ndk1::allocator<std::__ndk1::__fs::filesystem> >, std::__ndk1::basic_string<char, std::__ndk1::char_traits<char>, std::__ndk1::__fs::filesystem::path<char> > >)1, std::__ndk1::allocator<std::__ndk1::__fs::filesystem>, std::__ndk1::__fs::filesystem::path<char> >&>(std::__ndk1::__variant_detail::__dtor<std::__ndk1::__variant_detail::__traits<std::__ndk1::vector<std::__ndk1::__fs::filesystem::path, std::__ndk1::allocator<std::__ndk1::__fs::filesystem> >, std::__ndk1::basic_string<char, std::__ndk1::char_traits<char>, std::__ndk1::__fs::filesystem::path<char> > >, (std::__ndk1::__variant_detail::_Trait)1>, std::__ndk1::__variant_detail::__base<(std::__ndk1::__variant_detail::__traits<std::__ndk1::vector<std::__ndk1::__fs::filesystem::path, std::__ndk1::allocator<std::__ndk1::__fs::filesystem> >, std::__ndk1::basic_string<char, std::__ndk1::char_traits<char>, std::__ndk1::__fs::filesystem::path<char> > >)1, std::__ndk1::allocator<std::__ndk1::__fs::filesystem>, std::__ndk1::__fs::filesystem::path<char> >&)
PUBLIC 31988 0 std::__ndk1::vector<geode::Ref<Trashed>, std::__ndk1::allocator<geode::Ref<Trashed> > >::__push_back_slow_path<geode::Ref<Trashed> >(geode::Ref<Trashed>&&)
PUBLIC 31b3c 0 std::__ndk1::vector<geode::Ref<Trashed>, std::__ndk1::allocator<geode::Ref<Trashed> > >::__throw_length_error[abi:ne180000]() const
PUBLIC 31b50 0 std::__ndk1::__variant_detail::__visitation::__base::__dispatcher<(unsigned long)0>::__dispatch[abi:ne180000]<std::__ndk1::__variant_detail::__dtor<std::__ndk1::__variant_detail::__traits<geode::Ref<GJLevelList>, std::__ndk1::basic_string<char, std::__ndk1::char_traits<char>, std::__ndk1::allocator<char> > >, (std::__ndk1::__variant_detail::_Trait)1>::__destroy[abi:ne180000]()::{lambda(auto:1&)#1}, std::__ndk1::__variant_detail::__base<(std::__ndk1::__variant_detail::__traits<geode::Ref<GJLevelList>, std::__ndk1::basic_string<char, std::__ndk1::char_traits<char>, std::__ndk1::allocator<char> > >)1, GJLevelList, std::__ndk1::allocator<char> >&>(std::__ndk1::__variant_detail::__dtor<std::__ndk1::__variant_detail::__traits<geode::Ref<GJLevelList>, std::__ndk1::basic_string<char, std::__ndk1::char_traits<char>, std::__ndk1::allocator<char> > >, (std::__ndk1::__variant_detail::_Trait)1>, std::__ndk1::__variant_detail::__base<(std::__ndk1::__variant_detail::__traits<geode::Ref<GJLevelList>, std::__ndk1::basic_string<char, std::__ndk1::char_traits<char>, std::__ndk1::allocator<char> > >)1, GJLevelList, std::__ndk1::allocator<char> >&)
PUBLIC 31b70 0 std::__ndk1::__variant_detail::__visitation::__base::__dispatcher<(unsigned long)1>::__dispatch[abi:ne180000]<std::__ndk1::__variant_detail::__dtor<std::__ndk1::__variant_detail::__traits<geode::Ref<GJLevelList>, std::__ndk1::basic_string<char, std::__ndk1::char_traits<char>, std::__ndk1::allocator<char> > >, (std::__ndk1::__variant_detail::_Trait)1>::__destroy[abi:ne180000]()::{lambda(auto:1&)#1}, std::__ndk1::__variant_detail::__base<(std::__ndk1::__variant_detail::__traits<geode::Ref<GJLevelList>, std::__ndk1::basic_string<char, std::__ndk1::char_traits<char>, std::__ndk1::allocator<char> > >)1, GJLevelList, std::__ndk1::allocator<char> >&>(std::__ndk1::__variant_detail::__dtor<std::__ndk1::__variant_detail::__traits<geode::Ref<GJLevelList>, std::__ndk1::basic_string<char, std::__ndk1::char_traits<char>, std::__ndk1::allocator<char> > >, (std::__ndk1::__variant_detail::_Trait)1>, std::__ndk1::__variant_detail::__base<(std::__ndk1::__variant_detail::__traits<geode::Ref<GJLevelList>, std::__ndk1::basic_string<char, std::__ndk1::char_traits<char>, std::__ndk1::allocator<char> > >)1, GJLevelList, std::__ndk1::allocator<char> >&)
PUBLIC 31b84 0 std::__ndk1::__variant_detail::__visitation::__base::__dispatcher<(unsigned long)0>::__dispatch[abi:ne180000]<std::__ndk1::__variant_detail::__dtor<std::__ndk1::__variant_detail::__traits<GJGameLevel*, std::__ndk1::basic_string<char, std::__ndk1::char_traits<char>, std::__ndk1::allocator<char> > >, (std::__ndk1::__variant_detail::_Trait)1>::__destroy[abi:ne180000]()::{lambda(auto:1&)#1}, std::__ndk1::__variant_detail::__base<(std::__ndk1::__variant_detail::__traits<GJGameLevel*, std::__ndk1::basic_string<char, std::__ndk1::char_traits<char>, std::__ndk1::allocator<char> > >)1, GJGameLevel, std::__ndk1::allocator<char> >&>(std::__ndk1::__variant_detail::__dtor<std::__ndk1::__variant_detail::__traits<GJGameLevel*, std::__ndk1::basic_string<char, std::__ndk1::char_traits<char>, std::__ndk1::allocator<char> > >, (std::__ndk1::__variant_detail::_Trait)1>, std::__ndk1::__variant_detail::__base<(std::__ndk1::__variant_detail::__traits<GJGameLevel*, std::__ndk1::basic_string<char, std::__ndk1::char_traits<char>, std::__ndk1::allocator<char> > >)1, GJGameLevel, std::__ndk1::allocator<char> >&)
PUBLIC 31b88 0 std::__ndk1::__variant_detail::__visitation::__base::__dispatcher<(unsigned long)1>::__dispatch[abi:ne180000]<std::__ndk1::__variant_detail::__dtor<std::__ndk1::__variant_detail::__traits<GJGameLevel*, std::__ndk1::basic_string<char, std::__ndk1::char_traits<char>, std::__ndk1::allocator<char> > >, (std::__ndk1::__variant_detail::_Trait)1>::__destroy[abi:ne180000]()::{lambda(auto:1&)#1}, std::__ndk1::__variant_detail::__base<(std::__ndk1::__variant_detail::__traits<GJGameLevel*, std::__ndk1::basic_string<char, std::__ndk1::char_traits<char>, std::__ndk1::allocator<char> > >)1, GJGameLevel, std::__ndk1::allocator<char> >&>(std::__ndk1::__variant_detail::__dtor<std::__ndk1::__variant_detail::__traits<GJGameLevel*, std::__ndk1::basic_string<char, std::__ndk1::char_traits<char>, std::__ndk1::allocator<char> > >, (std::__ndk1::__variant_detail::_Trait)1>, std::__ndk1::__variant_detail::__base<(std::__ndk1::__variant_detail::__traits<GJGameLevel*, std::__ndk1::basic_string<char, std::__ndk1::char_traits<char>, std::__ndk1::allocator<char> > >)1, GJGameLevel, std::__ndk1::allocator<char> >&)
PUBLIC 31b9c 0 UpdateTrashEvent::~UpdateTrashEvent()
PUBLIC 31bc0 0 std::__ndk1::__variant_detail::__visitation::__base::__dispatcher<(unsigned long)0>::__dispatch[abi:ne180000]<std::__ndk1::__variant_detail::__dtor<std::__ndk1::__variant_detail::__traits<geode::Ref<GJGameLevel>, geode<GJLevelList> >, (std::__ndk1::__variant_detail::_Trait)1>::__destroy[abi:ne180000]()::{lambda(auto:1&)#1}, std::__ndk1::__variant_detail::__base<(std::__ndk1::__variant_detail::__traits<geode::Ref<GJGameLevel>, geode<GJLevelList> >)1, GJGameLevel, GJLevelList>&>(std::__ndk1::__variant_detail::__dtor<std::__ndk1::__variant_detail::__traits<geode::Ref<GJGameLevel>, geode<GJLevelList> >, (std::__ndk1::__variant_detail::_Trait)1>, std::__ndk1::__variant_detail::__base<(std::__ndk1::__variant_detail::__traits<geode::Ref<GJGameLevel>, geode<GJLevelList> >)1, GJGameLevel, GJLevelList>&)
PUBLIC 31be0 0 std::__ndk1::__variant_detail::__visitation::__base::__dispatcher<(unsigned long)1>::__dispatch[abi:ne180000]<std::__ndk1::__variant_detail::__dtor<std::__ndk1::__variant_detail::__traits<geode::Ref<GJGameLevel>, geode<GJLevelList> >, (std::__ndk1::__variant_detail::_Trait)1>::__destroy[abi:ne180000]()::{lambda(auto:1&)#1}, std::__ndk1::__variant_detail::__base<(std::__ndk1::__variant_detail::__traits<geode::Ref<GJGameLevel>, geode<GJLevelList> >)1, GJGameLevel, GJLevelList>&>(std::__ndk1::__variant_detail::__dtor<std::__ndk1::__variant_detail::__traits<geode::Ref<GJGameLevel>, geode<GJLevelList> >, (std::__ndk1::__variant_detail::_Trait)1>, std::__ndk1::__variant_detail::__base<(std::__ndk1::__variant_detail::__traits<geode::Ref<GJGameLevel>, geode<GJLevelList> >)1, GJGameLevel, GJLevelList>&)
PUBLIC 31c00 0 __aarch64_ldadd8_relax
PUBLIC 31c30 0 __cxx_global_var_init
PUBLIC 3208c 0 __cxx_global_var_init.2
PUBLIC 324e8 0 __cxx_global_var_init.3
PUBLIC 32944 0 __cxx_global_var_init.4
PUBLIC 32da0 0 geode::modifier::ModifyBase<geode::modifier::ModifyDerive<hook17<(anonymous namespace)::hook17Parent>, GameLevelManager> >::~ModifyBase()
PUBLIC 32db8 0 __cxx_global_var_init.1
PUBLIC 3323c 0 geode::modifier::ModifyBase<geode::modifier::ModifyDerive<TrashBrowserLayer, LevelBrowserLayer> >::~ModifyBase()
PUBLIC 33254 0 geode::modifier::ModifyBase<geode::modifier::ModifyDerive<hook102<(anonymous namespace)::hook102Parent>, EditLevelLayer> >::~ModifyBase()
PUBLIC 3326c 0 geode::modifier::ModifyBase<geode::modifier::ModifyDerive<hook118<(anonymous namespace)::hook118Parent>, LevelBrowserLayer> >::~ModifyBase()
PUBLIC 33284 0 geode::modifier::ModifyBase<geode::modifier::ModifyDerive<hook153<(anonymous namespace)::hook153Parent>, MenuLayer> >::~ModifyBase()
PUBLIC 3329c 0 geode::modifier::ModifyDerive<hook17<(anonymous namespace)::hook17Parent>, GameLevelManager>::apply()
PUBLIC 338d0 0 std::__ndk1::shared_ptr<geode::Hook>::~shared_ptr[abi:ne180000]()
PUBLIC 33920 0 geode::impl::ResultData<geode::Hook*, std::__ndk1::basic_string<char, std::__ndk1::char_traits<char>, std::__ndk1::allocator<char> > >::~ResultData()
PUBLIC 33994 0 std::__ndk1::vector<std::__ndk1::basic_string<char, std::__ndk1::char_traits<char>, std::__ndk1::allocator<char> >, std::__ndk1::allocator<std::__ndk1::basic_string<char, std::__ndk1::char_traits<char>, std::__ndk1::allocator<char> > > >::~vector[abi:ne180000]()
PUBLIC 33a10 0 geode::modifier::ModifyBase<geode::modifier::ModifyDerive<hook17<(anonymous namespace)::hook17Parent>, GameLevelManager> >::apply()
PUBLIC 33a14 0 _ZN5geode15UnwrapExceptionC2IRPNS_4HookEQsr4implE18IsStringStreamableIT_EEENS_4impl5OkTagEOS5_
PUBLIC 33b68 0 std::__ndk1::basic_stringstream<char, std::__ndk1::char_traits<char>, std::__ndk1::allocator<char> >::basic_stringstream[abi:ne180000]()
PUBLIC m 33c94 0 std::__ndk1::basic_stringstream<char, std::__ndk1::char_traits<char>, std::__ndk1::allocator<char> >::~basic_stringstream()
PUBLIC 33d14 0 std::__ndk1::__put_character_sequence[abi:ne180000]<char, std::__ndk1::char_traits<char> >(std::__ndk1::basic_ostream<char, std::__ndk1::char_traits<char> >, std::__ndk1::basic_ostream const*, unsigned long)
PUBLIC 33eb8 0 std::__ndk1::__pad_and_output[abi:ne180000]<char, std::__ndk1::char_traits<char> >(std::__ndk1::char_traits<char>, std::__ndk1::ostreambuf_iterator const*, std::__ndk1::ostreambuf_iterator const, std::__ndk1::ostreambuf_iterator const, std::__ndk1::ios_base&, std::__ndk1::ostreambuf_iterator)
PUBLIC 34094 0 std::__ndk1::basic_stringbuf<char, std::__ndk1::char_traits<char>, std::__ndk1::allocator<char> >::str[abi:ne180000]() &&
PUBLIC 3420c 0 std::__ndk1::basic_stringbuf<char, std::__ndk1::char_traits<char>, std::__ndk1::allocator<char> >::__init_buf_ptrs[abi:ne180000]()
PUBLIC 34354 0 std::__ndk1::vector<std::__ndk1::basic_string<char, std::__ndk1::char_traits<char>, std::__ndk1::allocator<char> >, std::__ndk1::allocator<std::__ndk1::basic_string<char, std::__ndk1::char_traits<char>, std::__ndk1::allocator<char> > > >::__push_back_slow_path<std::__ndk1::basic_string<char, std::__ndk1::char_traits<char>, std::__ndk1::allocator<char> > const&>(std::__ndk1::basic_string<char, std::__ndk1::char_traits<char>, std::__ndk1::allocator<char> > const&)
PUBLIC 34578 0 std::__ndk1::__split_buffer<std::__ndk1::basic_string<char, std::__ndk1::char_traits<char>, std::__ndk1::allocator<char> >, std::__ndk1::allocator<std::__ndk1::basic_string<char, std::__ndk1::char_traits<char>, std::__ndk1::allocator<char> > >&>::~__split_buffer()
PUBLIC 345e0 0 std::__ndk1::vector<std::__ndk1::basic_string<char, std::__ndk1::char_traits<char>, std::__ndk1::allocator<char> >, std::__ndk1::allocator<std::__ndk1::basic_string<char, std::__ndk1::char_traits<char>, std::__ndk1::allocator<char> > > >::__throw_length_error[abi:ne180000]() const
PUBLIC 345f4 0 std::__ndk1::__variant_detail::__visitation::__base::__dispatcher<(unsigned long)0>::__dispatch[abi:ne180000]<std::__ndk1::__variant_detail::__dtor<std::__ndk1::__variant_detail::__traits<geode::Hook*, std::__ndk1::basic_string<char, std::__ndk1::char_traits<char>, std::__ndk1::allocator<char> > >, (std::__ndk1::__variant_detail::_Trait)1>::__destroy[abi:ne180000]()::{lambda(auto:1&)#1}, std::__ndk1::__variant_detail::__base<(std::__ndk1::__variant_detail::__traits<geode::Hook*, std::__ndk1::basic_string<char, std::__ndk1::char_traits<char>, std::__ndk1::allocator<char> > >)1, geode::Hook, std::__ndk1::allocator<char> >&>(std::__ndk1::__variant_detail::__dtor<std::__ndk1::__variant_detail::__traits<geode::Hook*, std::__ndk1::basic_string<char, std::__ndk1::char_traits<char>, std::__ndk1::allocator<char> > >, (std::__ndk1::__variant_detail::_Trait)1>, std::__ndk1::__variant_detail::__base<(std::__ndk1::__variant_detail::__traits<geode::Hook*, std::__ndk1::basic_string<char, std::__ndk1::char_traits<char>, std::__ndk1::allocator<char> > >)1, geode::Hook, std::__ndk1::allocator<char> >&)
PUBLIC 345f8 0 std::__ndk1::__variant_detail::__visitation::__base::__dispatcher<(unsigned long)1>::__dispatch[abi:ne180000]<std::__ndk1::__variant_detail::__dtor<std::__ndk1::__variant_detail::__traits<geode::Hook*, std::__ndk1::basic_string<char, std::__ndk1::char_traits<char>, std::__ndk1::allocator<char> > >, (std::__ndk1::__variant_detail::_Trait)1>::__destroy[abi:ne180000]()::{lambda(auto:1&)#1}, std::__ndk1::__variant_detail::__base<(std::__ndk1::__variant_detail::__traits<geode::Hook*, std::__ndk1::basic_string<char, std::__ndk1::char_traits<char>, std::__ndk1::allocator<char> > >)1, geode::Hook, std::__ndk1::allocator<char> >&>(std::__ndk1::__variant_detail::__dtor<std::__ndk1::__variant_detail::__traits<geode::Hook*, std::__ndk1::basic_string<char, std::__ndk1::char_traits<char>, std::__ndk1::allocator<char> > >, (std::__ndk1::__variant_detail::_Trait)1>, std::__ndk1::__variant_detail::__base<(std::__ndk1::__variant_detail::__traits<geode::Hook*, std::__ndk1::basic_string<char, std::__ndk1::char_traits<char>, std::__ndk1::allocator<char> > >)1, geode::Hook, std::__ndk1::allocator<char> >&)
PUBLIC 3460c 0 std::__ndk1::__tree<std::__ndk1::__value_type<std::__ndk1::basic_string<char, std::__ndk1::char_traits<char>, std::__ndk1::allocator<char> >, std::__ndk1::shared_ptr<geode::Hook> >, std::__ndk1::__map_value_compare<std::__ndk1::basic_string<char, std::__ndk1::char_traits<char>, std::__ndk1::allocator<char> >, std::__ndk1::__value_type<std::__ndk1::basic_string<char, std::__ndk1::char_traits<char>, std::__ndk1::allocator<char> >, std::__ndk1::shared_ptr<geode::Hook> >, std::__ndk1::less<std::__ndk1::basic_string<char, std::__ndk1::char_traits<char>, std::__ndk1::allocator<char> > >, true>, std::__ndk1::allocator<std::__ndk1::__value_type<std::__ndk1::basic_string<char, std::__ndk1::char_traits<char>, std::__ndk1::allocator<char> >, std::__ndk1::shared_ptr<geode::Hook> > > >::find<std::__ndk1::basic_string<char, std::__ndk1::char_traits<char>, std::__ndk1::allocator<char> > >(std::__ndk1::basic_string<char, std::__ndk1::char_traits<char>, std::__ndk1::allocator<char> > const&)
PUBLIC 3472c 0 std::__ndk1::__tree<std::__ndk1::__value_type<std::__ndk1::basic_string<char, std::__ndk1::char_traits<char>, std::__ndk1::allocator<char> >, std::__ndk1::shared_ptr<geode::Hook> >, std::__ndk1::__map_value_compare<std::__ndk1::basic_string<char, std::__ndk1::char_traits<char>, std::__ndk1::allocator<char> >, std::__ndk1::__value_type<std::__ndk1::basic_string<char, std::__ndk1::char_traits<char>, std::__ndk1::allocator<char> >, std::__ndk1::shared_ptr<geode::Hook> >, std::__ndk1::less<std::__ndk1::basic_string<char, std::__ndk1::char_traits<char>, std::__ndk1::allocator<char> > >, true>, std::__ndk1::allocator<std::__ndk1::__value_type<std::__ndk1::basic_string<char, std::__ndk1::char_traits<char>, std::__ndk1::allocator<char> >, std::__ndk1::shared_ptr<geode::Hook> > > >::erase(std::__ndk1::__tree_const_iterator<std::__ndk1::__value_type<std::__ndk1::basic_string<char, std::__ndk1::char_traits<char>, std::__ndk1::allocator<char> >, std::__ndk1::shared_ptr<geode::Hook> >, std::__ndk1::__tree_node<std::__ndk1::__value_type<std::__ndk1::basic_string<char, std::__ndk1::char_traits<char>, std::__ndk1::allocator<char> >, std::__ndk1::shared_ptr<geode::Hook> >, void*>*, long>)
PUBLIC 34bd0 0 std::__ndk1::__tree<std::__ndk1::__value_type<std::__ndk1::basic_string<char, std::__ndk1::char_traits<char>, std::__ndk1::allocator<char> >, std::__ndk1::shared_ptr<geode::Hook> >, std::__ndk1::__map_value_compare<std::__ndk1::basic_string<char, std::__ndk1::char_traits<char>, std::__ndk1::allocator<char> >, std::__ndk1::__value_type<std::__ndk1::basic_string<char, std::__ndk1::char_traits<char>, std::__ndk1::allocator<char> >, std::__ndk1::shared_ptr<geode::Hook> >, std::__ndk1::less<std::__ndk1::basic_string<char, std::__ndk1::char_traits<char>, std::__ndk1::allocator<char> > >, true>, std::__ndk1::allocator<std::__ndk1::__value_type<std::__ndk1::basic_string<char, std::__ndk1::char_traits<char>, std::__ndk1::allocator<char> >, std::__ndk1::shared_ptr<geode::Hook> > > >::destroy(std::__ndk1::__tree_node<std::__ndk1::__value_type<std::__ndk1::basic_string<char, std::__ndk1::char_traits<char>, std::__ndk1::allocator<char> >, std::__ndk1::shared_ptr<geode::Hook> >, void*>*)
PUBLIC 34c54 0 geode::modifier::AsStaticFunction_deleteLevel<hook17<(anonymous namespace)::hook17Parent>, void (hook17<(anonymous namespace)::hook17Parent>::*)(GJGameLevel*)>::Impl<void (hook17<(anonymous namespace)::hook17Parent>::*)(GJGameLevel*)>::function(hook17<(anonymous namespace)::hook17Parent>*, GJGameLevel*)
PUBLIC 34f6c 0 geode::modifier::AsStaticFunction_deleteLevelList<hook17<(anonymous namespace)::hook17Parent>, void (hook17<(anonymous namespace)::hook17Parent>::*)(GJLevelList*)>::Impl<void (hook17<(anonymous namespace)::hook17Parent>::*)(GJLevelList*)>::function(hook17<(anonymous namespace)::hook17Parent>*, GJLevelList*)
PUBLIC 35284 0 std::__ndk1::shared_ptr<tulip::hook::CallingConvention>::~shared_ptr[abi:ne180000]()
PUBLIC 352d4 0 tulip::hook::HandlerMetadata::~HandlerMetadata()
PUBLIC 35338 0 std::__ndk1::__tree<std::__ndk1::__value_type<std::__ndk1::basic_string<char, std::__ndk1::char_traits<char>, std::__ndk1::allocator<char> >, std::__ndk1::shared_ptr<geode::Hook> >, std::__ndk1::__map_value_compare<std::__ndk1::basic_string<char, std::__ndk1::char_traits<char>, std::__ndk1::allocator<char> >, std::__ndk1::__value_type<std::__ndk1::basic_string<char, std::__ndk1::char_traits<char>, std::__ndk1::allocator<char> >, std::__ndk1::shared_ptr<geode::Hook> >, std::__ndk1::less<std::__ndk1::basic_string<char, std::__ndk1::char_traits<char>, std::__ndk1::allocator<char> > >, true>, std::__ndk1::allocator<std::__ndk1::__value_type<std::__ndk1::basic_string<char, std::__ndk1::char_traits<char>, std::__ndk1::allocator<char> >, std::__ndk1::shared_ptr<geode::Hook> > > >::__emplace_unique_key_args<std::__ndk1::basic_string<char, std::__ndk1::char_traits<char>, std::__ndk1::allocator<char> >, std::__ndk1::piecewise_construct_t const&, std::__ndk1::tuple<std::__ndk1::basic_string<char, std::__ndk1::char_traits<char>, std::__ndk1::allocator<char> >&&>, std::__ndk1::tuple<> >(std::__ndk1::basic_string<char, std::__ndk1::char_traits<char>, std::__ndk1::allocator<char> > const&, std::__ndk1::piecewise_construct_t const&, std::__ndk1::tuple<std::__ndk1::basic_string<char, std::__ndk1::char_traits<char>, std::__ndk1::allocator<char> >&&>, std::__ndk1::tuple<>)
PUBLIC 354a0 0 std::__ndk1::__tree_balance_after_insert[abi:ne180000]<std::__ndk1::__tree_node_base<void*>*>(std::__ndk1::__tree_node_base<void*>*, std::__ndk1::__tree_node_base<void*>*)
PUBLIC 35650 0 geode::modifier::ModifyDerive<TrashBrowserLayer, LevelBrowserLayer>::apply()
PUBLIC 359bc 0 geode::modifier::ModifyBase<geode::modifier::ModifyDerive<TrashBrowserLayer, LevelBrowserLayer> >::apply()
PUBLIC 359c0 0 geode::modifier::AsStaticFunction_init<TrashBrowserLayer, bool (TrashBrowserLayer::*)(GJSearchObject*)>::Impl<bool (TrashBrowserLayer::*)(GJSearchObject*)>::function(TrashBrowserLayer*, GJSearchObject*)
PUBLIC 36228 0 TrashBrowserLayer::onTrashcan(cocos2d::CCObject*)
PUBLIC 3638c 0 geode::modifier::FieldIntermediate<TrashBrowserLayer, LevelBrowserLayer>::fieldDestructor(void*)
PUBLIC 363e8 0 std::__ndk1::vector<void*, std::__ndk1::allocator<void*> >::__throw_length_error[abi:ne180000]() const
PUBLIC 363fc 0 std::__ndk1::vector<std::__ndk1::function<void (void*)>, std::__ndk1::allocator<std::__ndk1::function<void (void*)> > >::__throw_length_error[abi:ne180000]() const
PUBLIC 36410 0 std::__ndk1::vector<void*, std::__ndk1::allocator<void*> >::__throw_out_of_range[abi:ne180000]() const
PUBLIC 3641c 0 std::__ndk1::__throw_out_of_range[abi:ne180000](char const*)
PUBLIC 3646c 0 std::out_of_range::out_of_range[abi:ne180000](char const*)
PUBLIC 3649c 0 std::__ndk1::vector<std::__ndk1::function<void (void*)>, std::__ndk1::allocator<std::__ndk1::function<void (void*)> > >::__throw_out_of_range[abi:ne180000]() const
PUBLIC 364a8 0 std::__ndk1::__function::__base<void (void*)>::~__base()
PUBLIC 364ac 0 std::__ndk1::__function::__func<void (*)(void*), std::__ndk1::allocator<void (*)(void*)>, void (void*)>::~__func()
PUBLIC 364b0 0 std::__ndk1::__function::__func<void (*)(void*), std::__ndk1::allocator<void (*)(void*)>, void (void*)>::__clone() const
PUBLIC 364e8 0 std::__ndk1::__function::__func<void (*)(void*), std::__ndk1::allocator<void (*)(void*)>, void (void*)>::__clone(std::__ndk1::__function::__base<void (void*)>*) const
PUBLIC 36500 0 std::__ndk1::__function::__func<void (*)(void*), std::__ndk1::allocator<void (*)(void*)>, void (void*)>::destroy()
PUBLIC 36504 0 std::__ndk1::__function::__func<void (*)(void*), std::__ndk1::allocator<void (*)(void*)>, void (void*)>::destroy_deallocate()
PUBLIC 36508 0 std::__ndk1::__function::__func<void (*)(void*), std::__ndk1::allocator<void (*)(void*)>, void (void*)>::operator()(void*&&)
PUBLIC 36518 0 std::__ndk1::__function::__func<void (*)(void*), std::__ndk1::allocator<void (*)(void*)>, void (void*)>::target(std::type_info const&) const
PUBLIC 36534 0 std::__ndk1::__function::__func<void (*)(void*), std::__ndk1::allocator<void (*)(void*)>, void (void*)>::target_type() const
PUBLIC 36540 0 std::__ndk1::__function::__func<TrashBrowserLayer::init(GJSearchObject*)::{lambda(auto:1*)#1}, std::__ndk1::allocator<TrashBrowserLayer::init(GJSearchObject*)::{lambda(auto:1*)#1}>, geode::ListenerResult(UpdateTrashEvent*)>::~__func()
PUBLIC 36544 0 std::__ndk1::__function::__func<TrashBrowserLayer::init(GJSearchObject*)::{lambda(auto:1*)#1}, std::__ndk1::allocator<TrashBrowserLayer::init(GJSearchObject*)::{lambda(auto:1*)#1}>, geode::ListenerResult(UpdateTrashEvent*)>::__clone() const
PUBLIC 3657c 0 std::__ndk1::__function::__func<TrashBrowserLayer::init(GJSearchObject*)::{lambda(auto:1*)#1}, std::__ndk1::allocator<TrashBrowserLayer::init(GJSearchObject*)::{lambda(auto:1*)#1}>, geode::ListenerResult(UpdateTrashEvent*)>::__clone(std::__ndk1::__function::__base<geode::ListenerResult(UpdateTrashEvent*)>*) const
PUBLIC 36594 0 std::__ndk1::__function::__func<TrashBrowserLayer::init(GJSearchObject*)::{lambda(auto:1*)#1}, std::__ndk1::allocator<TrashBrowserLayer::init(GJSearchObject*)::{lambda(auto:1*)#1}>, geode::ListenerResult(UpdateTrashEvent*)>::destroy()
PUBLIC 36598 0 std::__ndk1::__function::__func<TrashBrowserLayer::init(GJSearchObject*)::{lambda(auto:1*)#1}, std::__ndk1::allocator<TrashBrowserLayer::init(GJSearchObject*)::{lambda(auto:1*)#1}>, geode::ListenerResult(UpdateTrashEvent*)>::destroy_deallocate()
PUBLIC 3659c 0 std::__ndk1::__function::__func<TrashBrowserLayer::init(GJSearchObject*)::{lambda(auto:1*)#1}, std::__ndk1::allocator<TrashBrowserLayer::init(GJSearchObject*)::{lambda(auto:1*)#1}>, geode::ListenerResult(UpdateTrashEvent*)>::operator()(UpdateTrashEvent*&&)
PUBLIC 366bc 0 std::__ndk1::__function::__func<TrashBrowserLayer::init(GJSearchObject*)::{lambda(auto:1*)#1}, std::__ndk1::allocator<TrashBrowserLayer::init(GJSearchObject*)::{lambda(auto:1*)#1}>, geode::ListenerResult(UpdateTrashEvent*)>::target(std::type_info const&) const
PUBLIC 366d8 0 std::__ndk1::__function::__func<TrashBrowserLayer::init(GJSearchObject*)::{lambda(auto:1*)#1}, std::__ndk1::allocator<TrashBrowserLayer::init(GJSearchObject*)::{lambda(auto:1*)#1}>, geode::ListenerResult(UpdateTrashEvent*)>::target_type() const
PUBLIC 366e4 0 geode::modifier::ModifyDerive<hook102<(anonymous namespace)::hook102Parent>, EditLevelLayer>::apply()
PUBLIC 36a58 0 geode::modifier::ModifyBase<geode::modifier::ModifyDerive<hook102<(anonymous namespace)::hook102Parent>, EditLevelLayer> >::apply()
PUBLIC 36a5c 0 geode::modifier::AsStaticFunction_confirmDelete<hook102<(anonymous namespace)::hook102Parent>, void (hook102<(anonymous namespace)::hook102Parent>::*)(cocos2d::CCObject*)>::Impl<void (hook102<(anonymous namespace)::hook102Parent>::*)(cocos2d::CCObject*)>::function(hook102<(anonymous namespace)::hook102Parent>*, cocos2d::CCObject*)
PUBLIC 36b40 0 geode::modifier::ModifyDerive<hook118<(anonymous namespace)::hook118Parent>, LevelBrowserLayer>::apply()
PUBLIC 36ec0 0 geode::modifier::ModifyBase<geode::modifier::ModifyDerive<hook118<(anonymous namespace)::hook118Parent>, LevelBrowserLayer> >::apply()
PUBLIC 36ec4 0 geode::modifier::AsStaticFunction_onDeleteSelected<hook118<(anonymous namespace)::hook118Parent>, void (hook118<(anonymous namespace)::hook118Parent>::*)(cocos2d::CCObject*)>::Impl<void (hook118<(anonymous namespace)::hook118Parent>::*)(cocos2d::CCObject*)>::function(hook118<(anonymous namespace)::hook118Parent>*, cocos2d::CCObject*)
PUBLIC 37288 0 geode::cocos::CCArrayExt<GJGameLevel*>::~CCArrayExt()
PUBLIC 372a4 0 geode::modifier::ModifyDerive<hook153<(anonymous namespace)::hook153Parent>, MenuLayer>::apply()
PUBLIC 37598 0 geode::modifier::ModifyBase<geode::modifier::ModifyDerive<hook153<(anonymous namespace)::hook153Parent>, MenuLayer> >::apply()
PUBLIC 3759c 0 geode::modifier::AsStaticFunction_init<hook153<(anonymous namespace)::hook153Parent>, bool (hook153<(anonymous namespace)::hook153Parent>::*)()>::Impl<bool (hook153<(anonymous namespace)::hook153Parent>::*)()>::function(hook153<(anonymous namespace)::hook153Parent>*)
PUBLIC 375c8 0 geode::addresser::Addresser::addressOfVirtual<bool, MenuLayer, >(bool (MenuLayer::*)())
PUBLIC 37670 0 MenuLayer::MenuLayer(geode::ZeroConstructorType)
PUBLIC m 3770c 0 geodeImplicitEntry
PUBLIC 37748 0 cocos2d::CCDestructor::~CCDestructor()
PUBLIC 37844 0 wrapFunction(unsigned long, tulip::hook::WrapperMetadata const&)
PUBLIC 37978 0 geode::impl::ResultData<void*, std::__ndk1::basic_string<char, std::__ndk1::char_traits<char>, std::__ndk1::allocator<char> > >::unwrapErr() &
PUBLIC 379f0 0 geode::impl::ResultData<void*, std::__ndk1::basic_string<char, std::__ndk1::char_traits<char>, std::__ndk1::allocator<char> > >::~ResultData()
PUBLIC 37a64 0 tulip::hook::WrapperMetadata::~WrapperMetadata()
PUBLIC 37ac8 0 cocos2d::CCObject::CCObject()
PUBLIC 37c3c 0 cocos2d::CCNode::~CCNode()
PUBLIC 37c60 0 {virtual override thunk({offset(-320)}, cocos2d::CCLayer::~CCLayer())}
PUBLIC 37c68 0 cocos2d::CCLayer::~CCLayer()
PUBLIC 37c8c 0 {virtual override thunk({offset(-320)}, cocos2d::CCLayer::~CCLayer())}
PUBLIC 37cb4 0 cocos2d::CCObject::~CCObject()
PUBLIC 37cd8 0 cocos2d::CCLayerColor::CCLayerColor()
PUBLIC 38200 0 cocos2d::CCLayerRGBA::~CCLayerRGBA()
PUBLIC 3844c 0 {virtual override thunk({offset(-320)}, cocos2d::CCLayerColor::~CCLayerColor())}
PUBLIC 38454 0 cocos2d::CCLayerColor::~CCLayerColor()
PUBLIC 38478 0 {virtual override thunk({offset(-320)}, cocos2d::CCLayerColor::~CCLayerColor())}
PUBLIC 384a0 0 {virtual override thunk({offset(-320)}, cocos2d::CCLayerRGBA::~CCLayerRGBA())}
PUBLIC 384a8 0 cocos2d::CCLayerRGBA::~CCLayerRGBA()
PUBLIC 384cc 0 {virtual override thunk({offset(-320)}, cocos2d::CCLayerRGBA::~CCLayerRGBA())}
PUBLIC 384f4 0 {virtual override thunk({offset(-320)}, FLAlertLayer::~FLAlertLayer())}
PUBLIC 384fc 0 FLAlertLayer::~FLAlertLayer()
PUBLIC 38520 0 {virtual override thunk({offset(-320)}, FLAlertLayer::~FLAlertLayer())}
PUBLIC 38548 0 FLAlertLayer::create(FLAlertLayerProtocol*, char const*, gd::string, char const*, char const*, float)
PUBLIC 38700 0 tulip::hook::AbstractFunction::from<FLAlertLayer*, FLAlertLayerProtocol*, char const*, gd::string, char const*, char const*, float>(FLAlertLayer* (*)(FLAlertLayerProtocol*, char const*, gd::string, char const*, char const*, float))
PUBLIC 3886c 0 cocos2d::CCLayer::~CCLayer()
PUBLIC 38ab0 0 cocos2d::CCLayerColor::~CCLayerColor()
PUBLIC 38d04 0 FLAlertLayer::~FLAlertLayer()
PUBLIC 38fb8 0 cocos2d::CCNode::~CCNode()
PUBLIC 391dc 0 cocos2d::CCObject::~CCObject()
PUBLIC 39400 0 _ZN5geode15UnwrapExceptionC2IRPvQsr4implE18IsStringStreamableIT_EEENS_4impl5OkTagEOS4_
PUBLIC 39554 0 _ZN5geode15UnwrapExceptionC2IRNSt6__ndk112basic_stringIcNS2_11char_traitsIcEENS2_9allocatorIcEEEEQsr4implE18IsStringStreamableIT_EEENS_4impl6ErrTagEOSA_
PUBLIC 396bc 0 std::__ndk1::__variant_detail::__visitation::__base::__dispatcher<(unsigned long)0>::__dispatch[abi:ne180000]<std::__ndk1::__variant_detail::__dtor<std::__ndk1::__variant_detail::__traits<void*, std::__ndk1::basic_string<char, std::__ndk1::char_traits<char>, std::__ndk1::allocator<char> > >, (std::__ndk1::__variant_detail::_Trait)1>::__destroy[abi:ne180000]()::{lambda(auto:1&)#1}, std::__ndk1::__variant_detail::__base<(std::__ndk1::__variant_detail::__traits<void*, std::__ndk1::basic_string<char, std::__ndk1::char_traits<char>, std::__ndk1::allocator<char> > >)1, std::__ndk1::__variant_detail::__traits, std::__ndk1::allocator<char> >&>(std::__ndk1::__variant_detail::__dtor<std::__ndk1::__variant_detail::__traits<void*, std::__ndk1::basic_string<char, std::__ndk1::char_traits<char>, std::__ndk1::allocator<char> > >, (std::__ndk1::__variant_detail::_Trait)1>, std::__ndk1::__variant_detail::__base<(std::__ndk1::__variant_detail::__traits<void*, std::__ndk1::basic_string<char, std::__ndk1::char_traits<char>, std::__ndk1::allocator<char> > >)1, std::__ndk1::__variant_detail::__traits, std::__ndk1::allocator<char> >&)
PUBLIC 396c0 0 std::__ndk1::__variant_detail::__visitation::__base::__dispatcher<(unsigned long)1>::__dispatch[abi:ne180000]<std::__ndk1::__variant_detail::__dtor<std::__ndk1::__variant_detail::__traits<void*, std::__ndk1::basic_string<char, std::__ndk1::char_traits<char>, std::__ndk1::allocator<char> > >, (std::__ndk1::__variant_detail::_Trait)1>::__destroy[abi:ne180000]()::{lambda(auto:1&)#1}, std::__ndk1::__variant_detail::__base<(std::__ndk1::__variant_detail::__traits<void*, std::__ndk1::basic_string<char, std::__ndk1::char_traits<char>, std::__ndk1::allocator<char> > >)1, std::__ndk1::__variant_detail::__traits, std::__ndk1::allocator<char> >&>(std::__ndk1::__variant_detail::__dtor<std::__ndk1::__variant_detail::__traits<void*, std::__ndk1::basic_string<char, std::__ndk1::char_traits<char>, std::__ndk1::allocator<char> > >, (std::__ndk1::__variant_detail::_Trait)1>, std::__ndk1::__variant_detail::__base<(std::__ndk1::__variant_detail::__traits<void*, std::__ndk1::basic_string<char, std::__ndk1::char_traits<char>, std::__ndk1::allocator<char> > >)1, std::__ndk1::__variant_detail::__traits, std::__ndk1::allocator<char> >&)
PUBLIC 396d4 0 std::__ndk1::__hash_table<std::__ndk1::__hash_value_type<void*, bool>, std::__ndk1::__unordered_map_hasher<void*, std::__ndk1::__hash_value_type<void*, bool>, std::__ndk1::hash<void*>, std::__ndk1::equal_to<void*>, true>, std::__ndk1::__unordered_map_equal<void*, std::__ndk1::__hash_value_type<void*, bool>, std::__ndk1::equal_to<void*>, std::__ndk1::hash<void*>, true>, std::__ndk1::allocator<std::__ndk1::__hash_value_type<void*, bool> > >::__emplace_unique_key_args<void*, std::__ndk1::piecewise_construct_t const&, std::__ndk1::tuple<void* const&>, std::__ndk1::tuple<> >(void* const&, std::__ndk1::piecewise_construct_t const&, std::__ndk1::tuple<void* const&>, std::__ndk1::tuple<>)
PUBLIC 39bb4 0 std::__ndk1::__hash_table<std::__ndk1::__hash_value_type<void*, bool>, std::__ndk1::__unordered_map_hasher<void*, std::__ndk1::__hash_value_type<void*, bool>, std::__ndk1::hash<void*>, std::__ndk1::equal_to<void*>, true>, std::__ndk1::__unordered_map_equal<void*, std::__ndk1::__hash_value_type<void*, bool>, std::__ndk1::equal_to<void*>, std::__ndk1::hash<void*>, true>, std::__ndk1::allocator<std::__ndk1::__hash_value_type<void*, bool> > >::find<void*>(void* const&)
PUBLIC 39cc4 0 std::__ndk1::__hash_table<std::__ndk1::__hash_value_type<void*, bool>, std::__ndk1::__unordered_map_hasher<void*, std::__ndk1::__hash_value_type<void*, bool>, std::__ndk1::hash<void*>, std::__ndk1::equal_to<void*>, true>, std::__ndk1::__unordered_map_equal<void*, std::__ndk1::__hash_value_type<void*, bool>, std::__ndk1::equal_to<void*>, std::__ndk1::hash<void*>, true>, std::__ndk1::allocator<std::__ndk1::__hash_value_type<void*, bool> > >::remove(std::__ndk1::__hash_const_iterator<std::__ndk1::__hash_node<std::__ndk1::__hash_value_type<void*, bool>, void*>*>)
PUBLIC 39df8 0 __udivti3
PUBLIC m 39e04 0 __eqtf2
PUBLIC 39ea4 0 __unordtf2
PUBLIC 39edc 0 fmt::v11::detail::write_loc(fmt::v11::basic_appender<char>, fmt::v11::loc_value, fmt::v11::format_specs const&, fmt::v11::detail::locale_ref)
PUBLIC 3a170 0 fmt::v11::format_facet<std::__ndk1::locale>::~format_facet()
PUBLIC 3a1ec 0 fmt::v11::report_error(char const*)
PUBLIC 3a23c 0 fmt::v11::format_facet<std::__ndk1::locale>::do_put(fmt::v11::basic_appender<char>, fmt::v11::loc_value, fmt::v11::format_specs const&) const
PUBLIC 3a9fc 0 fmt::v11::detail::loc_writer<char>::~loc_writer()
PUBLIC 3aa60 0 fmt::v11::detail::vformat_to<char>(fmt::v11::detail::buffer<char>&, fmt::v11::basic_string_view<char>, fmt::v11::detail::vformat_args<char>::type, fmt::v11::detail::locale_ref)
PUBLIC 3afd0 0 fmt::v11::detail::is_printable(unsigned int)
PUBLIC 3b1f8 0 fmt::v11::detail::dragonbox::to_decimal<float>(float)
PUBLIC 3b4d4 0 fmt::v11::detail::dragonbox::to_decimal<double>(double)
PUBLIC 3ba10 0 fmt::v11::format_facet<std::__ndk1::locale>::~format_facet()
PUBLIC 3ba9c 0 fmt::v11::detail::copy_noinline<char, char const*, fmt::v11::basic_appender<char> >(char const*, char const*, fmt::v11::basic_appender<char>)
PUBLIC 3bbec 0 fmt::v11::detail::default_arg_formatter<char>::operator()<bool>(bool)
PUBLIC 3bc54 0 fmt::v11::detail::default_arg_formatter<char>::operator()<char>(char)
PUBLIC 3bce4 0 fmt::v11::detail::default_arg_formatter<char>::operator()<float>(float)
PUBLIC 3bdd0 0 fmt::v11::detail::default_arg_formatter<char>::operator()<double>(double)
PUBLIC 3bebc 0 fmt::v11::detail::default_arg_formatter<char>::operator()<char const*>(char const*)
PUBLIC 3bf04 0 fmt::v11::detail::default_arg_formatter<char>::operator()<void const*>(void const*)
PUBLIC 3bf9c 0 _ZN3fmt3v116detail5writeIcNS0_14basic_appenderIcEEiTnNSt6__ndk19enable_ifIXaaaasr11is_integralIT1_EE5valuentsr3std7is_sameIS7_bEE5valuentsr3std7is_sameIS7_T_EE5valueEiE4typeELi0EEET0_SB_S7_
PUBLIC 3c1fc 0 fmt::v11::detail::copy_noinline<char, char*, fmt::v11::basic_appender<char> >(char*, char*, fmt::v11::basic_appender<char>)
PUBLIC 3c34c 0 _ZN3fmt3v116detail5writeIcNS0_14basic_appenderIcEEjTnNSt6__ndk19enable_ifIXaaaasr11is_integralIT1_EE5valuentsr3std7is_sameIS7_bEE5valuentsr3std7is_sameIS7_T_EE5valueEiE4typeELi0EEET0_SB_S7_
PUBLIC 3c52c 0 _ZN3fmt3v116detail5writeIcNS0_14basic_appenderIcEExTnNSt6__ndk19enable_ifIXaaaasr11is_integralIT1_EE5valuentsr3std7is_sameIS7_bEE5valuentsr3std7is_sameIS7_T_EE5valueEiE4typeELi0EEET0_SB_S7_
PUBLIC 3c7b0 0 _ZN3fmt3v116detail5writeIcNS0_14basic_appenderIcEEyTnNSt6__ndk19enable_ifIXaaaasr11is_integralIT1_EE5valuentsr3std7is_sameIS7_bEE5valuentsr3std7is_sameIS7_T_EE5valueEiE4typeELi0EEET0_SB_S7_
PUBLIC 3c9b8 0 _ZN3fmt3v116detail5writeIcNS0_14basic_appenderIcEEnTnNSt6__ndk19enable_ifIXaaaasr11is_integralIT1_EE5valuentsr3std7is_sameIS7_bEE5valuentsr3std7is_sameIS7_T_EE5valueEiE4typeELi0EEET0_SB_S7_
PUBLIC 3cd18 0 _ZN3fmt3v116detail5writeIcNS0_14basic_appenderIcEEoTnNSt6__ndk19enable_ifIXaaaasr11is_integralIT1_EE5valuentsr3std7is_sameIS7_bEE5valuentsr3std7is_sameIS7_T_EE5valueEiE4typeELi0EEET0_SB_S7_
PUBLIC 3d02c 0 _ZN3fmt3v116detail5writeIcNS0_14basic_appenderIcEEbTnNSt6__ndk19enable_ifIXsr3std7is_sameIT1_bEE5valueEiE4typeELi0EEET0_SA_S7_RKNS0_12format_specsENS1_10locale_refE
PUBLIC 3d2e0 0 fmt::v11::detail::write_int_noinline<char, fmt::v11::basic_appender<char>, unsigned int>(fmt::v11::basic_appender<char>, fmt::v11::detail::write_int_arg<unsigned int>, fmt::v11::format_specs const&, fmt::v11::detail::locale_ref)
PUBLIC 3e0c0 0 fmt::v11::detail::write_padded<char, (fmt::v11::align::type)1, fmt::v11::basic_appender<char>, fmt::v11::detail::write_char<char, fmt::v11::basic_appender<char> >(fmt::v11::basic_appender<char>, char, fmt::v11::format_specs const&)::{lambda(fmt::v11::basic_appender<char>&)#1}>(fmt::v11::basic_appender<char>, fmt::v11::format_specs const&, unsigned long, unsigned long, fmt::v11::detail::write_char<char, fmt::v11::basic_appender<char> >(fmt::v11::basic_appender<char>, char, fmt::v11::format_specs const&)::{lambda(fmt::v11::basic_appender<char>&)#1})
PUBLIC 3e324 0 fmt::v11::detail::write_padded<char, (fmt::v11::align::type)1, fmt::v11::basic_appender<char>, fmt::v11::detail::write_nonfinite<char, fmt::v11::basic_appender<char> >(fmt::v11::basic_appender<char>, bool, fmt::v11::format_specs, fmt::v11::sign::type)::{lambda(fmt::v11::basic_appender<char>&)#1}>(fmt::v11::basic_appender<char>, fmt::v11::format_specs const&, unsigned long, unsigned long, fmt::v11::detail::write_nonfinite<char, fmt::v11::basic_appender<char> >(fmt::v11::basic_appender<char>, bool, fmt::v11::format_specs, fmt::v11::sign::type)::{lambda(fmt::v11::basic_appender<char>&)#1})
PUBLIC 3e57c 0 fmt::v11::detail::do_write_float<char, fmt::v11::basic_appender<char>, fmt::v11::detail::dragonbox::decimal_fp<float>, fmt::v11::detail::digit_grouping<char> >(fmt::v11::basic_appender<char>, fmt::v11::detail::dragonbox::decimal_fp<float> const&, fmt::v11::format_specs const&, fmt::v11::detail::float_specs, fmt::v11::detail::locale_ref)
PUBLIC 3f200 0 fmt::v11::detail::do_write_float<char, fmt::v11::basic_appender<char>, fmt::v11::detail::dragonbox::decimal_fp<float>, fmt::v11::detail::digit_grouping<char> >(fmt::v11::basic_appender<char>, fmt::v11::detail::dragonbox::decimal_fp<float> const&, fmt::v11::format_specs const&, fmt::v11::detail::float_specs, fmt::v11::detail::locale_ref)::{lambda(fmt::v11::basic_appender<char>(fmt::v11::basic_appender<char>))#1}::operator() const
PUBLIC 3f354 0 fmt::v11::detail::digit_grouping<char>::digit_grouping(fmt::v11::detail::locale_ref, bool)
PUBLIC 3f5c0 0 fmt::v11::detail::digit_grouping<char>::~digit_grouping()
PUBLIC 3f604 0 fmt::v11::detail::write_exponent<char, fmt::v11::basic_appender<char> >(int, fmt::v11::basic_appender<char>)
PUBLIC 3f7d4 0 _ZN3fmt3v116detail17write_significandIcjTnNSt6__ndk19enable_ifIXsr3std11is_integralIT0_EE5valueEiE4typeELi0EEEPT_S9_S5_iiS8_
PUBLIC 3f950 0 fmt::v11::detail::digit_grouping<char>::apply<fmt::v11::basic_appender<char>, char>(fmt::v11::basic_appender<char>, fmt::v11::basic_string_view<char>) const
PUBLIC 3fd08 0 fmt::v11::basic_memory_buffer<int, (unsigned long)500, std::__ndk1::allocator<int> >::grow(fmt::v11::detail::buffer<int>&, unsigned long)
PUBLIC 3fda8 0 fmt::v11::detail::do_write_float<char, fmt::v11::basic_appender<char>, fmt::v11::detail::dragonbox::decimal_fp<double>, fmt::v11::detail::digit_grouping<char> >(fmt::v11::basic_appender<char>, fmt::v11::detail::dragonbox::decimal_fp<double> const&, fmt::v11::format_specs const&, fmt::v11::detail::float_specs, fmt::v11::detail::locale_ref)
PUBLIC 40a68 0 fmt::v11::detail::do_write_float<char, fmt::v11::basic_appender<char>, fmt::v11::detail::dragonbox::decimal_fp<double>, fmt::v11::detail::digit_grouping<char> >(fmt::v11::basic_appender<char>, fmt::v11::detail::dragonbox::decimal_fp<double> const&, fmt::v11::format_specs const&, fmt::v11::detail::float_specs, fmt::v11::detail::locale_ref)::{lambda(fmt::v11::basic_appender<char>(fmt::v11::basic_appender<char>))#1}::operator() const
PUBLIC 40bc0 0 _ZN3fmt3v116detail17write_significandIcmTnNSt6__ndk19enable_ifIXsr3std11is_integralIT0_EE5valueEiE4typeELi0EEEPT_S9_S5_iiS8_
PUBLIC 40d50 0 fmt::v11::detail::write_float<char, fmt::v11::basic_appender<char>, long double>(fmt::v11::basic_appender<char>, long double, fmt::v11::format_specs, fmt::v11::detail::locale_ref)
PUBLIC 41848 0 fmt::v11::detail::write_padded<char, (fmt::v11::align::type)2, fmt::v11::basic_appender<char>, fmt::v11::detail::write_bytes<char, (fmt::v11::align::type)2, fmt::v11::basic_appender<char> >(fmt::v11::basic_appender<char>, fmt::v11::basic_string_view<char>, fmt::v11::format_specs const&)::{lambda(fmt::v11::basic_appender<char>&)#1}>(fmt::v11::basic_appender<char>, fmt::v11::format_specs const&, unsigned long, unsigned long, fmt::v11::detail::write_bytes<char, (fmt::v11::align::type)2, fmt::v11::basic_appender<char> >(fmt::v11::basic_appender<char>, fmt::v11::basic_string_view<char>, fmt::v11::format_specs const&)::{lambda(fmt::v11::basic_appender<char>&)#1})
PUBLIC 41a3c 0 fmt::v11::detail::format_dragon(fmt::v11::detail::basic_fp<unsigned __int128>, unsigned int, int, fmt::v11::detail::buffer<char>&, int&)
PUBLIC 42e6c 0 fmt::v11::detail::bigint::operator<<=(int)
PUBLIC 42f90 0 fmt::v11::detail::bigint::assign_pow10(int)
PUBLIC 436ec 0 fmt::v11::detail::bigint::divmod_assign(fmt::v11::detail::bigint const&)
PUBLIC 43a0c 0 fmt::v11::basic_memory_buffer<unsigned int, (unsigned long)32, std::__ndk1::allocator<unsigned int> >::grow(fmt::v11::detail::buffer<unsigned int>&, unsigned long)
PUBLIC 43aac 0 fmt::v11::detail::do_write_float<char, fmt::v11::basic_appender<char>, fmt::v11::detail::big_decimal_fp, fmt::v11::detail::digit_grouping<char> >(fmt::v11::basic_appender<char>, fmt::v11::detail::big_decimal_fp const&, fmt::v11::format_specs const&, fmt::v11::detail::float_specs, fmt::v11::detail::locale_ref)
PUBLIC 4498c 0 fmt::v11::detail::do_write_float<char, fmt::v11::basic_appender<char>, fmt::v11::detail::big_decimal_fp, fmt::v11::detail::digit_grouping<char> >(fmt::v11::basic_appender<char>, fmt::v11::detail::big_decimal_fp const&, fmt::v11::format_specs const&, fmt::v11::detail::float_specs, fmt::v11::detail::locale_ref)::{lambda(fmt::v11::basic_appender<char>(fmt::v11::basic_appender<char>))#1}::operator() const
PUBLIC 44aec 0 fmt::v11::detail::write_padded<char, (fmt::v11::align::type)2, fmt::v11::basic_appender<char>, fmt::v11::detail::write_ptr<char, fmt::v11::basic_appender<char>, unsigned long>(fmt::v11::basic_appender<char>, unsigned long, fmt::v11::format_specs const*)::{lambda(fmt::v11::basic_appender<char>&)#1}>(fmt::v11::basic_appender<char>, fmt::v11::format_specs const&, unsigned long, unsigned long, fmt::v11::detail::write_ptr<char, fmt::v11::basic_appender<char>, unsigned long>(fmt::v11::basic_appender<char>, unsigned long, fmt::v11::format_specs const*)::{lambda(fmt::v11::basic_appender<char>&)#1})
PUBLIC 44d00 0 fmt::v11::detail::parse_replacement_field<char, fmt::v11::detail::vformat_to<char>(fmt::v11::detail::buffer<char>&, fmt::v11::basic_string_view<char>, fmt::v11::detail::vformat_args<char>::type, fmt::v11::detail::locale_ref)::format_handler&>(char const*, char const*, fmt::v11::detail::vformat_to<char>(fmt::v11::detail::buffer<char>&, fmt::v11::basic_string_view<char>, fmt::v11::detail::vformat_args<char>::type, fmt::v11::detail::locale_ref)::format_handler&)
PUBLIC 461b4 0 fmt::v11::detail::write_int_noinline<char, fmt::v11::basic_appender<char>, unsigned long>(fmt::v11::basic_appender<char>, fmt::v11::detail::write_int_arg<unsigned long>, fmt::v11::format_specs const&, fmt::v11::detail::locale_ref)
PUBLIC 47014 0 fmt::v11::detail::write_int_noinline<char, fmt::v11::basic_appender<char>, unsigned __int128>(fmt::v11::basic_appender<char>, fmt::v11::detail::write_int_arg<unsigned __int128>, fmt::v11::format_specs const&, fmt::v11::detail::locale_ref)
PUBLIC 480a4 0 _ZN3fmt3v116detail15format_hexfloatIdTnNSt6__ndk19enable_ifIXntsr16is_double_doubleIT_EE5valueEiE4typeELi0EEEvS5_NS0_12format_specsERNS1_6bufferIcEE
PUBLIC 485c4 0 fmt::v11::detail::format_float<double>(double, int, fmt::v11::detail::float_specs, fmt::v11::detail::buffer<char>&)
PUBLIC 48f64 0 fmt::v11::detail::write_int<fmt::v11::basic_appender<char>, unsigned long, char>(fmt::v11::basic_appender<char>, unsigned long, unsigned int, fmt::v11::format_specs const&, fmt::v11::detail::digit_grouping<char> const&)
PUBLIC 494e0 0 fmt::v11::detail::write_int<fmt::v11::basic_appender<char>, unsigned __int128, char>(fmt::v11::basic_appender<char>, unsigned __int128, unsigned int, fmt::v11::format_specs const&, fmt::v11::detail::digit_grouping<char> const&)
PUBLIC 49b5c 0 __CortexA53843419_38000
PUBLIC 49b70 0 <.plt ELF section in hjfod.trashcan.android64.so>
STACK CFI INIT 1da80 10 .cfa: sp 0 +
STACK CFI INIT 1da90 8 .cfa: sp 0 +
STACK CFI INIT 1da98 8 .cfa: sp 0 +
STACK CFI INIT 1daa0 14 .cfa: sp 0 +
STACK CFI INIT 1dab4 1c .cfa: sp 0 +
STACK CFI INIT 1dad0 10 .cfa: sp 0 +
STACK CFI INIT 1dae0 134 .cfa: sp 0 +
STACK CFI INIT 1dc14 84 .cfa: sp 0 +
STACK CFI INIT 1dc98 f4 .cfa: sp 0 +
STACK CFI INIT 1dd8c a8 .cfa: sp 0 +
STACK CFI INIT 1de34 7c .cfa: sp 0 +
STACK CFI INIT 1deb0 14 .cfa: sp 0 +
STACK CFI INIT 1dec4 40 .cfa: sp 0 +
STACK CFI INIT 1df04 28 .cfa: sp 0 +
STACK CFI INIT 1df2c 190 .cfa: sp 0 +
STACK CFI INIT 1e0bc 2c8 .cfa: sp 0 +
STACK CFI INIT 1e384 8 .cfa: sp 0 +
STACK CFI INIT 1e38c 8 .cfa: sp 0 +
STACK CFI INIT 1e394 44 .cfa: sp 0 +
STACK CFI INIT 1e3d8 e8 .cfa: sp 0 +
STACK CFI INIT 1e4c0 e8 .cfa: sp 0 +
STACK CFI INIT 1e5a8 14 .cfa: sp 0 +
STACK CFI INIT 1e5bc 10 .cfa: sp 0 +
STACK CFI INIT 1e5cc 10 .cfa: sp 0 +
STACK CFI INIT 1e5dc f0 .cfa: sp 0 +
STACK CFI INIT 1e6cc 44 .cfa: sp 0 +
STACK CFI INIT 1e710 c .cfa: sp 0 +
STACK CFI INIT 1e71c c .cfa: sp 0 +
STACK CFI INIT 1e728 2c .cfa: sp 0 +
STACK CFI INIT 1e754 280 .cfa: sp 0 +
STACK CFI INIT 1e9d4 c .cfa: sp 0 +
STACK CFI INIT 1e9e0 120 .cfa: sp 0 +
STACK CFI INIT 1eb00 488 .cfa: sp 0 +
STACK CFI INIT 1ef88 c48 .cfa: sp 0 +
STACK CFI INIT 1fbd0 134 .cfa: sp 0 +
STACK CFI INIT 1fd04 210 .cfa: sp 0 +
STACK CFI INIT 1ff14 38c .cfa: sp 0 +
STACK CFI INIT 202a0 1c8 .cfa: sp 0 +
STACK CFI INIT 20468 9bc .cfa: sp 0 +
STACK CFI INIT 20e24 2d4 .cfa: sp 0 +
STACK CFI INIT 210f8 134 .cfa: sp 0 +
STACK CFI INIT 2122c 120 .cfa: sp 0 +
STACK CFI INIT 2134c 1c8 .cfa: sp 0 +
STACK CFI INIT 21514 168 .cfa: sp 0 +
STACK CFI INIT 2167c fc .cfa: sp 0 +
STACK CFI INIT 21778 30 .cfa: sp 0 +
STACK CFI INIT 218d4 58 .cfa: sp 0 +
STACK CFI INIT 2192c 24c .cfa: sp 0 +
STACK CFI INIT 21b80 30 .cfa: sp 0 +
STACK CFI INIT 21bb0 98 .cfa: sp 0 +
STACK CFI INIT 21c48 59c .cfa: sp 0 +
STACK CFI INIT 221e4 8c .cfa: sp 0 +
STACK CFI INIT 24098 8 .cfa: sp 0 +
STACK CFI INIT 24280 2c .cfa: sp 0 +
STACK CFI 24284 .cfa: sp 32 +
STACK CFI 2428c .cfa: x29 32 + x19: .cfa -16 + ^ .ra: .cfa -24 + ^ x29: .cfa -32 + ^
STACK CFI 242a0 .cfa: sp 32 +
STACK CFI 242a8 .cfa: sp 0 +
STACK CFI INIT 242ac 28 .cfa: sp 0 +
STACK CFI INIT 242d4 4 .cfa: sp 0 +
STACK CFI INIT 242d8 8 .cfa: sp 0 +
STACK CFI INIT 24610 2c .cfa: sp 0 +
STACK CFI INIT 2463c 4 .cfa: sp 0 +
STACK CFI INIT 24640 4 .cfa: sp 0 +
STACK CFI INIT 24644 4 .cfa: sp 0 +
STACK CFI INIT 24648 4 .cfa: sp 0 +
STACK CFI INIT 2464c 4 .cfa: sp 0 +
STACK CFI INIT 24650 8 .cfa: sp 0 +
STACK CFI INIT 24658 10 .cfa: sp 0 +
STACK CFI 2465c .cfa: sp 16 +
STACK CFI 24660 .cfa: x29 16 + .ra: .cfa -8 + ^ x29: .cfa -16 + ^
STACK CFI INIT 264f0 1a4 .cfa: sp 0 +
STACK CFI 264f4 .cfa: sp 64 +
STACK CFI 26500 .cfa: x29 32 + x19: .cfa -8 + ^ x20: .cfa -16 + ^ .ra: .cfa -24 + ^ x29: .cfa -32 + ^
STACK CFI 2662c .cfa: sp 64 +
STACK CFI 26638 .cfa: sp 0 +
STACK CFI 2663c .cfa: x29 32 +
STACK CFI INIT 26694 194 .cfa: sp 0 +
STACK CFI 26698 .cfa: sp 16 +
STACK CFI 2669c .cfa: x29 16 + .ra: .cfa -8 + ^ x29: .cfa -16 + ^
STACK CFI 26734 .cfa: sp 16 +
STACK CFI 26738 .cfa: sp 0 +
STACK CFI 2673c .cfa: x29 16 +
STACK CFI 26808 .cfa: sp 16 +
STACK CFI 2680c .cfa: sp 0 +
STACK CFI 26810 .cfa: x29 16 +
STACK CFI INIT 26828 2c .cfa: sp 0 +
STACK CFI 2682c .cfa: sp 32 +
STACK CFI 26834 .cfa: x29 32 + x19: .cfa -16 + ^ .ra: .cfa -24 + ^ x29: .cfa -32 + ^
STACK CFI 26848 .cfa: sp 32 +
STACK CFI 26850 .cfa: sp 0 +
STACK CFI INIT 26854 24 .cfa: sp 0 +
STACK CFI 26858 .cfa: sp 32 +
STACK CFI 26860 .cfa: x29 32 + x19: .cfa -16 + ^ .ra: .cfa -24 + ^ x29: .cfa -32 + ^
STACK CFI 2686c .cfa: sp 32 +
STACK CFI 26874 .cfa: sp 0 +
STACK CFI INIT 269fc 114 .cfa: sp 0 +
STACK CFI 26a00 .cfa: sp 128 +
STACK CFI 26a10 .cfa: x29 48 + x19: .cfa -8 + ^ x20: .cfa -16 + ^ x21: .cfa -32 + ^ .ra: .cfa -40 + ^ x29: .cfa -48 + ^
STACK CFI 26adc .cfa: sp 128 +
STACK CFI 26aec .cfa: sp 0 +
STACK CFI 26af0 .cfa: x29 48 +
STACK CFI INIT 26b10 27c .cfa: sp 0 +
STACK CFI 26b14 .cfa: sp 176 +
STACK CFI 26b30 .cfa: x29 96 + x19: .cfa -8 + ^ x20: .cfa -16 + ^ x21: .cfa -24 + ^ x22: .cfa -32 + ^ x23: .cfa -40 + ^ x24: .cfa -48 + ^ x25: .cfa -56 + ^ x26: .cfa -64 + ^ x27: .cfa -72 + ^ x28: .cfa -80 + ^ .ra: .cfa -88 + ^ x29: .cfa -96 + ^
STACK CFI 26d68 .cfa: sp 176 +
STACK CFI 26d84 .cfa: sp 0 +
STACK CFI 26d88 .cfa: x29 96 +
STACK CFI INIT 26d8c 78 .cfa: sp 0 +
STACK CFI 26d90 .cfa: sp 48 +
STACK CFI 26d9c .cfa: x29 48 + x19: .cfa -8 + ^ x20: .cfa -16 + ^ x21: .cfa -24 + ^ x22: .cfa -32 + ^ .ra: .cfa -40 + ^ x29: .cfa -48 + ^
STACK CFI 26de4 .cfa: sp 48 +
STACK CFI 26df0 .cfa: sp 0 +
STACK CFI 26df4 .cfa: sp 48 +
STACK CFI 26e00 .cfa: sp 0 +
STACK CFI INIT 26e04 94 .cfa: sp 0 +
STACK CFI 26e08 .cfa: sp 16 +
STACK CFI 26e0c .cfa: x29 16 + .ra: .cfa -8 + ^ x29: .cfa -16 + ^
STACK CFI 26e60 .cfa: sp 16 +
STACK CFI 26e64 .cfa: sp 0 +
STACK CFI 26e68 .cfa: x29 16 +
STACK CFI INIT 26e98 158 .cfa: sp 0 +
STACK CFI 26e9c .cfa: sp 112 +
STACK CFI 26eb8 .cfa: x29 96 + x19: .cfa -8 + ^ x20: .cfa -16 + ^ x21: .cfa -24 + ^ x22: .cfa -32 + ^ x23: .cfa -40 + ^ x24: .cfa -48 + ^ x25: .cfa -56 + ^ x26: .cfa -64 + ^ x27: .cfa -72 + ^ x28: .cfa -80 + ^ .ra: .cfa -88 + ^ x29: .cfa -96 + ^
STACK CFI 26fa0 .cfa: sp 112 +
STACK CFI 26fa4 .cfa: x29 96 +
STACK CFI 26fac .cfa: sp 112 +
STACK CFI 26fc8 .cfa: sp 0 +
STACK CFI 26fcc .cfa: x29 96 +
STACK CFI 26fec .cfa: sp 112 +
STACK CFI INIT 28f58 194 .cfa: sp 0 +
STACK CFI 28f5c .cfa: sp 48 +
STACK CFI 28f68 .cfa: x29 48 + x19: .cfa -8 + ^ x20: .cfa -16 + ^ x21: .cfa -24 + ^ x22: .cfa -32 + ^ .ra: .cfa -40 + ^ x29: .cfa -48 + ^
STACK CFI 290dc .cfa: sp 48 +
STACK CFI 290e8 .cfa: sp 0 +
STACK CFI INIT 2943c 168 .cfa: sp 0 +
STACK CFI 29440 .cfa: sp 64 +
STACK CFI 29450 .cfa: x29 64 + x19: .cfa -8 + ^ x20: .cfa -16 + ^ x21: .cfa -24 + ^ x22: .cfa -32 + ^ x23: .cfa -40 + ^ x24: .cfa -48 + ^ .ra: .cfa -56 + ^ x29: .cfa -64 + ^
STACK CFI 29578 .cfa: sp 64 +
STACK CFI 29588 .cfa: sp 0 +
STACK CFI 2958c .cfa: x29 64 +
STACK CFI 29590 .cfa: sp 64 +
STACK CFI 295a0 .cfa: sp 0 +
STACK CFI INIT 295a4 1d4 .cfa: sp 0 +
STACK CFI 295a8 .cfa: sp 112 +
STACK CFI 295c0 .cfa: x29 80 + x19: .cfa -8 + ^ x20: .cfa -16 + ^ x21: .cfa -24 + ^ x22: .cfa -32 + ^ x23: .cfa -40 + ^ x24: .cfa -48 + ^ x25: .cfa -64 + ^ .ra: .cfa -72 + ^ x29: .cfa -80 + ^
STACK CFI 29758 .cfa: sp 112 +
STACK CFI 29770 .cfa: sp 0 +
STACK CFI 29774 .cfa: x29 80 +
STACK CFI INIT 29778 150 .cfa: sp 0 +
STACK CFI 2977c .cfa: sp 48 +
STACK CFI 29788 .cfa: x29 48 + x19: .cfa -8 + ^ x20: .cfa -16 + ^ x21: .cfa -24 + ^ x22: .cfa -32 + ^ .ra: .cfa -40 + ^ x29: .cfa -48 + ^
STACK CFI 298b8 .cfa: sp 48 +
STACK CFI 298c4 .cfa: sp 0 +
STACK CFI INIT 2a218 24 .cfa: sp 0 +
STACK CFI 2a21c .cfa: sp 32 +
STACK CFI 2a224 .cfa: x29 32 + x19: .cfa -16 + ^ .ra: .cfa -24 + ^ x29: .cfa -32 + ^
STACK CFI 2a230 .cfa: sp 32 +
STACK CFI 2a238 .cfa: sp 0 +
STACK CFI INIT 2a23c 158 .cfa: sp 0 +
STACK CFI 2a240 .cfa: sp 64 +
STACK CFI 2a250 .cfa: x29 64 + x19: .cfa -8 + ^ x20: .cfa -16 + ^ x21: .cfa -24 + ^ x22: .cfa -32 + ^ x23: .cfa -48 + ^ .ra: .cfa -56 + ^ x29: .cfa -64 + ^
STACK CFI 2a380 .cfa: sp 64 +
STACK CFI 2a390 .cfa: sp 0 +
STACK CFI INIT 2a394 5c .cfa: sp 0 +
STACK CFI 2a398 .cfa: sp 32 +
STACK CFI 2a3a0 .cfa: x29 32 + x19: .cfa -8 + ^ x20: .cfa -16 + ^ .ra: .cfa -24 + ^ x29: .cfa -32 + ^
STACK CFI 2a3e4 .cfa: sp 32 +
STACK CFI 2a3ec .cfa: sp 0 +
STACK CFI INIT 2a3f0 78 .cfa: sp 0 +
STACK CFI 2a3f4 .cfa: sp 48 +
STACK CFI 2a400 .cfa: x29 48 + x19: .cfa -8 + ^ x20: .cfa -16 + ^ x21: .cfa -24 + ^ x22: .cfa -32 + ^ .ra: .cfa -40 + ^ x29: .cfa -48 + ^
STACK CFI 2a448 .cfa: sp 48 +
STACK CFI 2a454 .cfa: sp 0 +
STACK CFI 2a458 .cfa: sp 48 +
STACK CFI 2a464 .cfa: sp 0 +
STACK CFI INIT 2a468 150 .cfa: sp 0 +
STACK CFI 2a46c .cfa: sp 48 +
STACK CFI 2a478 .cfa: x29 48 + x19: .cfa -8 + ^ x20: .cfa -16 + ^ x21: .cfa -24 + ^ x22: .cfa -32 + ^ .ra: .cfa -40 + ^ x29: .cfa -48 + ^
STACK CFI 2a5a8 .cfa: sp 48 +
STACK CFI 2a5b4 .cfa: sp 0 +
STACK CFI INIT 2a5b8 158 .cfa: sp 0 +
STACK CFI 2a5bc .cfa: sp 48 +
STACK CFI 2a5c8 .cfa: x29 48 + x19: .cfa -8 + ^ x20: .cfa -16 + ^ x21: .cfa -24 + ^ x22: .cfa -32 + ^ .ra: .cfa -40 + ^ x29: .cfa -48 + ^
STACK CFI 2a66c .cfa: sp 48 +
STACK CFI 2a678 .cfa: sp 0 +
STACK CFI 2a67c .cfa: x29 48 +
STACK CFI 2a700 .cfa: sp 48 +
STACK CFI 2a70c .cfa: sp 0 +
STACK CFI INIT 2a970 22c .cfa: sp 0 +
STACK CFI 2a974 .cfa: sp 64 +
STACK CFI 2a984 .cfa: x29 64 + x19: .cfa -8 + ^ x20: .cfa -16 + ^ x21: .cfa -24 + ^ x22: .cfa -32 + ^ x23: .cfa -40 + ^ x24: .cfa -48 + ^ .ra: .cfa -56 + ^ x29: .cfa -64 + ^
STACK CFI 2ab88 .cfa: sp 64 +
STACK CFI 2ab98 .cfa: sp 0 +
STACK CFI INIT 2ab9c 520 .cfa: sp 0 +
STACK CFI 2aba0 .cfa: sp 176 +
STACK CFI 2abbc .cfa: x29 96 + x19: .cfa -8 + ^ x20: .cfa -16 + ^ x21: .cfa -24 + ^ x22: .cfa -32 + ^ x23: .cfa -40 + ^ x24: .cfa -48 + ^ x25: .cfa -56 + ^ x26: .cfa -64 + ^ x27: .cfa -72 + ^ x28: .cfa -80 + ^ .ra: .cfa -88 + ^ x29: .cfa -96 + ^
STACK CFI 2b098 .cfa: sp 176 +
STACK CFI 2b0b4 .cfa: sp 0 +
STACK CFI 2b0b8 .cfa: x29 96 +
STACK CFI INIT 2b0bc 20c .cfa: sp 0 +
STACK CFI 2b0c0 .cfa: sp 80 +
STACK CFI 2b0d4 .cfa: x29 80 + x19: .cfa -8 + ^ x20: .cfa -16 + ^ x21: .cfa -24 + ^ x22: .cfa -32 + ^ x23: .cfa -40 + ^ x24: .cfa -48 + ^ x25: .cfa -64 + ^ .ra: .cfa -72 + ^ x29: .cfa -80 + ^
STACK CFI 2b164 .cfa: sp 80 +
STACK CFI 2b178 .cfa: sp 0 +
STACK CFI 2b17c .cfa: x29 80 +
STACK CFI 2b188 .cfa: sp 80 +
STACK CFI 2b19c .cfa: sp 0 +
STACK CFI 2b1a0 .cfa: x29 80 +
STACK CFI INIT 2b2c8 428 .cfa: sp 0 +
STACK CFI 2b2cc .cfa: sp 128 +
STACK CFI 2b2e8 .cfa: x29 96 + x19: .cfa -8 + ^ x20: .cfa -16 + ^ x21: .cfa -24 + ^ x22: .cfa -32 + ^ x23: .cfa -40 + ^ x24: .cfa -48 + ^ x25: .cfa -56 + ^ x26: .cfa -64 + ^ x27: .cfa -72 + ^ x28: .cfa -80 + ^ .ra: .cfa -88 + ^ x29: .cfa -96 + ^
STACK CFI 2b6cc .cfa: sp 128 +
STACK CFI 2b6e8 .cfa: sp 0 +
STACK CFI 2b6ec .cfa: x29 96 +
STACK CFI INIT 2b6f0 194 .cfa: sp 0 +
STACK CFI 2b6f4 .cfa: sp 32 +
STACK CFI 2b6fc .cfa: x29 16 + .ra: .cfa -8 + ^ x29: .cfa -16 + ^
STACK CFI 2b740 .cfa: sp 32 +
STACK CFI 2b748 .cfa: sp 0 +
STACK CFI 2b74c .cfa: x29 16 +
STACK CFI INIT 2b884 1b8 .cfa: sp 0 +
STACK CFI INIT 2ba3c 1d0 .cfa: sp 0 +
STACK CFI 2ba40 .cfa: sp 80 +
STACK CFI 2ba54 .cfa: x29 80 + x19: .cfa -8 + ^ x20: .cfa -16 + ^ x21: .cfa -24 + ^ x22: .cfa -32 + ^ x23: .cfa -40 + ^ x24: .cfa -48 + ^ x25: .cfa -64 + ^ .ra: .cfa -72 + ^ x29: .cfa -80 + ^
STACK CFI 2bbf4 .cfa: sp 80 +
STACK CFI 2bc08 .cfa: sp 0 +
STACK CFI INIT 2bc0c 67c .cfa: sp 0 +
STACK CFI 2bc10 .cfa: sp 176 +
STACK CFI 2bc2c .cfa: x29 96 + x19: .cfa -8 + ^ x20: .cfa -16 + ^ x21: .cfa -24 + ^ x22: .cfa -32 + ^ x23: .cfa -40 + ^ x24: .cfa -48 + ^ x25: .cfa -56 + ^ x26: .cfa -64 + ^ x27: .cfa -72 + ^ x28: .cfa -80 + ^ .ra: .cfa -88 + ^ x29: .cfa -96 + ^
STACK CFI 2c264 .cfa: sp 176 +
STACK CFI 2c280 .cfa: sp 0 +
STACK CFI 2c284 .cfa: x29 96 +
STACK CFI INIT 2c288 1e4 .cfa: sp 0 +
STACK CFI 2c28c .cfa: sp 32 +
STACK CFI 2c294 .cfa: x29 32 + x19: .cfa -8 + ^ x20: .cfa -16 + ^ .ra: .cfa -24 + ^ x29: .cfa -32 + ^
STACK CFI 2c384 .cfa: sp 32 +
STACK CFI 2c38c .cfa: sp 0 +
STACK CFI 2c390 .cfa: x29 32 +
STACK CFI 2c404 .cfa: sp 32 +
STACK CFI 2c40c .cfa: sp 0 +
STACK CFI 2c410 .cfa: x29 32 +
STACK CFI 2c420 .cfa: sp 32 +
STACK CFI 2c428 .cfa: sp 0 +
STACK CFI 2c42c .cfa: x29 32 +
STACK CFI 2c43c .cfa: sp 32 +
STACK CFI 2c444 .cfa: sp 0 +
STACK CFI 2c448 .cfa: x29 32 +
STACK CFI INIT 2c46c 178 .cfa: sp 0 +
STACK CFI 2c470 .cfa: sp 80 +
STACK CFI 2c484 .cfa: x29 64 + x19: .cfa -8 + ^ x20: .cfa -16 + ^ x21: .cfa -24 + ^ x22: .cfa -32 + ^ x23: .cfa -40 + ^ x24: .cfa -48 + ^ .ra: .cfa -56 + ^ x29: .cfa -64 + ^
STACK CFI 2c5c8 .cfa: sp 80 +
STACK CFI 2c5dc .cfa: sp 0 +
STACK CFI 2c5e0 .cfa: x29 64 +
STACK CFI INIT 2c5e4 178 .cfa: sp 0 +
STACK CFI 2c5e8 .cfa: sp 80 +
STACK CFI 2c5fc .cfa: x29 64 + x19: .cfa -8 + ^ x20: .cfa -16 + ^ x21: .cfa -24 + ^ x22: .cfa -32 + ^ x23: .cfa -40 + ^ x24: .cfa -48 + ^ .ra: .cfa -56 + ^ x29: .cfa -64 + ^
STACK CFI 2c740 .cfa: sp 80 +
STACK CFI 2c754 .cfa: sp 0 +
STACK CFI 2c758 .cfa: x29 64 +
STACK CFI INIT 2c75c 178 .cfa: sp 0 +
STACK CFI 2c760 .cfa: sp 80 +
STACK CFI 2c774 .cfa: x29 64 + x19: .cfa -8 + ^ x20: .cfa -16 + ^ x21: .cfa -24 + ^ x22: .cfa -32 + ^ x23: .cfa -40 + ^ x24: .cfa -48 + ^ .ra: .cfa -56 + ^ x29: .cfa -64 + ^
STACK CFI 2c8b8 .cfa: sp 80 +
STACK CFI 2c8cc .cfa: sp 0 +
STACK CFI 2c8d0 .cfa: x29 64 +
STACK CFI INIT 2c8d4 34 .cfa: sp 0 +
STACK CFI 2c8d8 .cfa: sp 16 +
STACK CFI 2c8dc .cfa: x29 16 + .ra: .cfa -8 + ^ x29: .cfa -16 + ^
STACK CFI INIT 2c908 24 .cfa: sp 0 +
STACK CFI 2c90c .cfa: sp 32 +
STACK CFI 2c914 .cfa: x29 32 + x19: .cfa -16 + ^ .ra: .cfa -24 + ^ x29: .cfa -32 + ^
STACK CFI 2c920 .cfa: sp 32 +
STACK CFI 2c928 .cfa: sp 0 +
STACK CFI INIT 2c92c 4 .cfa: sp 0 +
STACK CFI INIT 2c930 14 .cfa: sp 0 +
STACK CFI INIT 2c9b0 4 .cfa: sp 0 +
STACK CFI INIT 2ca20 4 .cfa: sp 0 +
STACK CFI INIT 2ca24 4 .cfa: sp 0 +
STACK CFI INIT 2cbc8 5c .cfa: sp 0 +
STACK CFI 2cbcc .cfa: sp 32 +
STACK CFI 2cbd4 .cfa: x29 32 + x19: .cfa -16 + ^ .ra: .cfa -24 + ^ x29: .cfa -32 + ^
STACK CFI 2cc18 .cfa: sp 32 +
STACK CFI 2cc20 .cfa: sp 0 +
STACK CFI INIT 2cc24 64 .cfa: sp 0 +
STACK CFI 2cc28 .cfa: sp 32 +
STACK CFI 2cc30 .cfa: x29 32 + x19: .cfa -16 + ^ .ra: .cfa -24 + ^ x29: .cfa -32 + ^
STACK CFI 2cc7c .cfa: sp 32 +
STACK CFI 2cc84 .cfa: sp 0 +
STACK CFI INIT 2cc88 104 .cfa: sp 0 +
STACK CFI 2cc8c .cfa: sp 64 +
STACK CFI 2cc9c .cfa: x29 64 + x19: .cfa -8 + ^ x20: .cfa -16 + ^ x21: .cfa -24 + ^ x22: .cfa -32 + ^ x23: .cfa -48 + ^ .ra: .cfa -56 + ^ x29: .cfa -64 + ^
STACK CFI 2ccf8 .cfa: sp 64 +
STACK CFI 2cd08 .cfa: sp 0 +
STACK CFI 2cd0c .cfa: x29 64 +
STACK CFI 2cd28 .cfa: sp 64 +
STACK CFI 2cd38 .cfa: sp 0 +
STACK CFI 2cd3c .cfa: x29 64 +
STACK CFI 2cd78 .cfa: sp 64 +
STACK CFI 2cd88 .cfa: sp 0 +
STACK CFI INIT 2cd8c 34 .cfa: sp 0 +
STACK CFI 2cd90 .cfa: sp 16 +
STACK CFI 2cd94 .cfa: x29 16 + .ra: .cfa -8 + ^ x29: .cfa -16 + ^
STACK CFI INIT 2cdc0 24 .cfa: sp 0 +
STACK CFI 2cdc4 .cfa: sp 32 +
STACK CFI 2cdcc .cfa: x29 32 + x19: .cfa -16 + ^ .ra: .cfa -24 + ^ x29: .cfa -32 + ^
STACK CFI 2cdd8 .cfa: sp 32 +
STACK CFI 2cde0 .cfa: sp 0 +
STACK CFI INIT 2cf7c 4 .cfa: sp 0 +
STACK CFI INIT 2cf80 4 .cfa: sp 0 +
STACK CFI INIT 2cf84 34 .cfa: sp 0 +
STACK CFI 2cf88 .cfa: sp 32 +
STACK CFI 2cf90 .cfa: x29 32 + x19: .cfa -16 + ^ .ra: .cfa -24 + ^ x29: .cfa -32 + ^
STACK CFI 2cfac .cfa: sp 32 +
STACK CFI 2cfb4 .cfa: sp 0 +
STACK CFI INIT 2cfb8 14 .cfa: sp 0 +
STACK CFI INIT 2cfcc 4 .cfa: sp 0 +
STACK CFI INIT 2cfd0 4 .cfa: sp 0 +
STACK CFI INIT 2cfd4 1c .cfa: sp 0 +
STACK CFI 2cfd8 .cfa: sp 16 +
STACK CFI 2cfdc .cfa: x29 16 + .ra: .cfa -8 + ^ x29: .cfa -16 + ^
STACK CFI 2cfe8 .cfa: sp 16 +
STACK CFI 2cfec .cfa: sp 0 +
STACK CFI INIT 2cff0 1c .cfa: sp 0 +
STACK CFI INIT 2d00c c .cfa: sp 0 +
STACK CFI INIT 2d018 60 .cfa: sp 0 +
STACK CFI 2d01c .cfa: sp 32 +
STACK CFI 2d024 .cfa: x29 32 + x19: .cfa -8 + ^ x20: .cfa -16 + ^ .ra: .cfa -24 + ^ x29: .cfa -32 + ^
STACK CFI 2d044 .cfa: sp 32 +
STACK CFI 2d04c .cfa: sp 0 +
STACK CFI 2d050 .cfa: x29 32 +
STACK CFI 2d06c .cfa: sp 32 +
STACK CFI 2d074 .cfa: sp 0 +
STACK CFI INIT 2d078 70 .cfa: sp 0 +
STACK CFI 2d07c .cfa: sp 32 +
STACK CFI 2d084 .cfa: x29 32 + x19: .cfa -8 + ^ x20: .cfa -16 + ^ .ra: .cfa -24 + ^ x29: .cfa -32 + ^
STACK CFI 2d0ac .cfa: sp 32 +
STACK CFI 2d0b4 .cfa: sp 0 +
STACK CFI 2d0b8 .cfa: x29 32 +
STACK CFI 2d0dc .cfa: sp 32 +
STACK CFI 2d0e4 .cfa: sp 0 +
STACK CFI INIT 2d0e8 10 .cfa: sp 0 +
STACK CFI INIT 2d0f8 30 .cfa: sp 0 +
STACK CFI 2d0fc .cfa: sp 32 +
STACK CFI 2d104 .cfa: x29 32 + x19: .cfa -16 + ^ .ra: .cfa -24 + ^ x29: .cfa -32 + ^
STACK CFI 2d11c .cfa: sp 32 +
STACK CFI 2d124 .cfa: sp 0 +
STACK CFI INIT 2d128 4 .cfa: sp 0 +
STACK CFI INIT 2d12c 4 .cfa: sp 0 +
STACK CFI INIT 2d304 4b4 .cfa: sp 0 +
STACK CFI 2d308 .cfa: sp 96 +
STACK CFI 2d320 .cfa: x29 96 + x19: .cfa -8 + ^ x20: .cfa -16 + ^ x21: .cfa -24 + ^ x22: .cfa -32 + ^ x23: .cfa -40 + ^ x24: .cfa -48 + ^ x25: .cfa -56 + ^ x26: .cfa -64 + ^ x27: .cfa -72 + ^ x28: .cfa -80 + ^ .ra: .cfa -88 + ^ x29: .cfa -96 + ^
STACK CFI 2d768 .cfa: sp 96 +
STACK CFI 2d780 .cfa: sp 0 +
STACK CFI 2d784 .cfa: x29 96 +
STACK CFI INIT 2d7b8 114 .cfa: sp 0 +
STACK CFI 2d7bc .cfa: sp 128 +
STACK CFI 2d7cc .cfa: x29 48 + x19: .cfa -8 + ^ x20: .cfa -16 + ^ x21: .cfa -32 + ^ .ra: .cfa -40 + ^ x29: .cfa -48 + ^
STACK CFI 2d898 .cfa: sp 128 +
STACK CFI 2d8a8 .cfa: sp 0 +
STACK CFI 2d8ac .cfa: x29 48 +
STACK CFI INIT 2d8cc 94 .cfa: sp 0 +
STACK CFI 2d8d0 .cfa: sp 16 +
STACK CFI 2d8d4 .cfa: x29 16 + .ra: .cfa -8 + ^ x29: .cfa -16 + ^
STACK CFI 2d928 .cfa: sp 16 +
STACK CFI 2d92c .cfa: sp 0 +
STACK CFI 2d930 .cfa: x29 16 +
STACK CFI INIT 2da24 1c .cfa: sp 0 +
STACK CFI INIT 2de14 1c .cfa: sp 0 +
STACK CFI INIT 2de30 c .cfa: sp 0 +
STACK CFI INIT 2de3c 4 .cfa: sp 0 +
STACK CFI INIT 2de40 4 .cfa: sp 0 +
STACK CFI INIT 2de44 24 .cfa: sp 0 +
STACK CFI 2de48 .cfa: sp 16 +
STACK CFI 2de4c .cfa: x29 16 + .ra: .cfa -8 + ^ x29: .cfa -16 + ^
STACK CFI 2de60 .cfa: sp 16 +
STACK CFI 2de64 .cfa: sp 0 +
STACK CFI INIT 2de68 10 .cfa: sp 0 +
STACK CFI INIT 2de78 4 .cfa: sp 0 +
STACK CFI INIT 2de7c 4 .cfa: sp 0 +
STACK CFI INIT 2e118 1c .cfa: sp 0 +
STACK CFI INIT 2e134 c .cfa: sp 0 +
STACK CFI INIT 2e140 308 .cfa: sp 0 +
STACK CFI 2e144 .cfa: sp 128 +
STACK CFI 2e15c .cfa: x29 64 + x19: .cfa -8 + ^ x20: .cfa -16 + ^ x21: .cfa -24 + ^ x22: .cfa -32 + ^ x23: .cfa -48 + ^ .ra: .cfa -56 + ^ x29: .cfa -64 + ^ v8: .cfa -72 + ^ v9: .cfa -80 + ^
STACK CFI 2e390 .cfa: sp 128 +
STACK CFI 2e3a8 .cfa: sp 0 +
STACK CFI 2e3ac .cfa: x29 64 +
STACK CFI INIT 2f38c 7c .cfa: sp 0 +
STACK CFI 2f390 .cfa: sp 48 +
STACK CFI 2f39c .cfa: x29 48 + x19: .cfa -8 + ^ x20: .cfa -16 + ^ x21: .cfa -32 + ^ .ra: .cfa -40 + ^ x29: .cfa -48 + ^
STACK CFI 2f3e8 .cfa: sp 48 +
STACK CFI 2f3f4 .cfa: sp 0 +
STACK CFI 2f3f8 .cfa: sp 48 +
STACK CFI 2f404 .cfa: sp 0 +
STACK CFI INIT 311c4 4 .cfa: sp 0 +
STACK CFI INIT 311c8 e8 .cfa: sp 0 +
STACK CFI 311cc .cfa: sp 32 +
STACK CFI 311d4 .cfa: x29 32 + x19: .cfa -8 + ^ x20: .cfa -16 + ^ .ra: .cfa -24 + ^ x29: .cfa -32 + ^
STACK CFI 31214 .cfa: sp 32 +
STACK CFI 3121c .cfa: sp 0 +
STACK CFI 31220 .cfa: x29 32 +
STACK CFI 3125c .cfa: sp 32 +
STACK CFI 31264 .cfa: sp 0 +
STACK CFI 31268 .cfa: x29 32 +
STACK CFI 31288 .cfa: sp 32 +
STACK CFI 31290 .cfa: sp 0 +
STACK CFI 31294 .cfa: x29 32 +
STACK CFI 312a4 .cfa: sp 32 +
STACK CFI 312ac .cfa: sp 0 +
STACK CFI INIT 312b0 ac .cfa: sp 0 +
STACK CFI 312b4 .cfa: sp 64 +
STACK CFI 312c4 .cfa: x29 64 + x19: .cfa -8 + ^ x20: .cfa -16 + ^ x21: .cfa -24 + ^ x22: .cfa -32 + ^ x23: .cfa -48 + ^ .ra: .cfa -56 + ^ x29: .cfa -64 + ^
STACK CFI 31340 .cfa: sp 64 +
STACK CFI 31350 .cfa: sp 0 +
STACK CFI 31354 .cfa: x29 64 +
STACK CFI INIT 3135c 110 .cfa: sp 0 +
STACK CFI 31360 .cfa: sp 64 +
STACK CFI 31370 .cfa: x29 64 + x19: .cfa -8 + ^ x20: .cfa -16 + ^ x21: .cfa -24 + ^ x22: .cfa -32 + ^ x23: .cfa -40 + ^ x24: .cfa -48 + ^ .ra: .cfa -56 + ^ x29: .cfa -64 + ^
STACK CFI 31450 .cfa: sp 64 +
STACK CFI 31460 .cfa: sp 0 +
STACK CFI 31464 .cfa: x29 64 +
STACK CFI INIT 3146c 14 .cfa: sp 0 +
STACK CFI 31470 .cfa: sp 16 +
STACK CFI 31474 .cfa: x29 16 + .ra: .cfa -8 + ^ x29: .cfa -16 + ^
STACK CFI INIT 314d0 30 .cfa: sp 0 +
STACK CFI 314d4 .cfa: sp 32 +
STACK CFI 314dc .cfa: x29 32 + x19: .cfa -16 + ^ .ra: .cfa -24 + ^ x29: .cfa -32 + ^
STACK CFI 314f4 .cfa: sp 32 +
STACK CFI 314fc .cfa: sp 0 +
STACK CFI INIT 31500 34 .cfa: sp 0 +
STACK CFI 31504 .cfa: sp 32 +
STACK CFI 3150c .cfa: x29 32 + x19: .cfa -16 + ^ .ra: .cfa -24 + ^ x29: .cfa -32 + ^
STACK CFI INIT 31534 40 .cfa: sp 0 +
STACK CFI 31538 .cfa: sp 32 +
STACK CFI 31540 .cfa: x29 32 + x19: .cfa -16 + ^ .ra: .cfa -24 + ^ x29: .cfa -32 + ^
STACK CFI 31558 .cfa: sp 32 +
STACK CFI 31560 .cfa: sp 0 +
STACK CFI 31564 .cfa: x29 32 +
STACK CFI 31568 .cfa: sp 32 +
STACK CFI 31570 .cfa: sp 0 +
STACK CFI INIT 31878 80 .cfa: sp 0 +
STACK CFI 3187c .cfa: sp 48 +
STACK CFI 31888 .cfa: x29 48 + x19: .cfa -8 + ^ x20: .cfa -16 + ^ x21: .cfa -24 + ^ x22: .cfa -32 + ^ .ra: .cfa -40 + ^ x29: .cfa -48 + ^
STACK CFI 318a0 .cfa: sp 48 +
STACK CFI 318ac .cfa: sp 0 +
STACK CFI 318b0 .cfa: x29 48 +
STACK CFI 318e0 .cfa: sp 48 +
STACK CFI 318ec .cfa: sp 0 +
STACK CFI 318f0 .cfa: x29 48 +
STACK CFI INIT 318f8 7c .cfa: sp 0 +
STACK CFI 318fc .cfa: sp 48 +
STACK CFI 31908 .cfa: x29 48 + x19: .cfa -8 + ^ x20: .cfa -16 + ^ x21: .cfa -32 + ^ .ra: .cfa -40 + ^ x29: .cfa -48 + ^
STACK CFI 31954 .cfa: sp 48 +
STACK CFI 31960 .cfa: sp 0 +
STACK CFI 31964 .cfa: sp 48 +
STACK CFI 31970 .cfa: sp 0 +
STACK CFI INIT 31974 14 .cfa: sp 0 +
STACK CFI INIT 31b3c 14 .cfa: sp 0 +
STACK CFI 31b40 .cfa: sp 16 +
STACK CFI 31b44 .cfa: x29 16 + .ra: .cfa -8 + ^ x29: .cfa -16 + ^
STACK CFI INIT 31b70 14 .cfa: sp 0 +
STACK CFI INIT 31b84 4 .cfa: sp 0 +
STACK CFI INIT 31b88 14 .cfa: sp 0 +
STACK CFI INIT 31b9c 24 .cfa: sp 0 +
STACK CFI 31ba0 .cfa: sp 32 +
STACK CFI 31ba8 .cfa: x29 32 + x19: .cfa -16 + ^ .ra: .cfa -24 + ^ x29: .cfa -32 + ^
STACK CFI 31bb4 .cfa: sp 32 +
STACK CFI 31bbc .cfa: sp 0 +
STACK CFI INIT 31c00 30 .cfa: sp 0 +
STACK CFI INIT 32da0 18 .cfa: sp 0 +
STACK CFI INIT 3323c 18 .cfa: sp 0 +
STACK CFI INIT 33254 18 .cfa: sp 0 +
STACK CFI INIT 3326c 18 .cfa: sp 0 +
STACK CFI INIT 33284 18 .cfa: sp 0 +
STACK CFI INIT 338d0 50 .cfa: sp 0 +
STACK CFI 338d4 .cfa: sp 32 +
STACK CFI 338dc .cfa: x29 32 + x19: .cfa -16 + ^ .ra: .cfa -24 + ^ x29: .cfa -32 + ^
STACK CFI 338f4 .cfa: sp 32 +
STACK CFI 338fc .cfa: sp 0 +
STACK CFI 33900 .cfa: x29 32 +
STACK CFI 33914 .cfa: sp 32 +
STACK CFI 3391c .cfa: sp 0 +
STACK CFI INIT 33994 7c .cfa: sp 0 +
STACK CFI 33998 .cfa: sp 48 +
STACK CFI 339a4 .cfa: x29 48 + x19: .cfa -8 + ^ x20: .cfa -16 + ^ x21: .cfa -32 + ^ .ra: .cfa -40 + ^ x29: .cfa -48 + ^
STACK CFI 339f0 .cfa: sp 48 +
STACK CFI 339fc .cfa: sp 0 +
STACK CFI 33a00 .cfa: sp 48 +
STACK CFI 33a0c .cfa: sp 0 +
STACK CFI INIT 33a10 4 .cfa: sp 0 +
STACK CFI INIT 33c94 80 .cfa: sp 0 +
STACK CFI 33c98 .cfa: sp 48 +
STACK CFI 33ca4 .cfa: x29 48 + x19: .cfa -8 + ^ x20: .cfa -16 + ^ x21: .cfa -32 + ^ .ra: .cfa -40 + ^ x29: .cfa -48 + ^
STACK CFI 33d04 .cfa: sp 48 +
STACK CFI 33d10 .cfa: sp 0 +
STACK CFI INIT 3420c 148 .cfa: sp 0 +
STACK CFI 34210 .cfa: sp 48 +
STACK CFI 3421c .cfa: x29 48 + x19: .cfa -8 + ^ x20: .cfa -16 + ^ x21: .cfa -32 + ^ .ra: .cfa -40 + ^ x29: .cfa -48 + ^
STACK CFI 34344 .cfa: sp 48 +
STACK CFI 34350 .cfa: sp 0 +
STACK CFI INIT 34578 68 .cfa: sp 0 +
STACK CFI 3457c .cfa: sp 32 +
STACK CFI 34584 .cfa: x29 32 + x19: .cfa -8 + ^ x20: .cfa -16 + ^ .ra: .cfa -24 + ^ x29: .cfa -32 + ^
STACK CFI 3459c .cfa: sp 32 +
STACK CFI 345a4 .cfa: sp 0 +
STACK CFI 345a8 .cfa: x29 32 +
STACK CFI 345d4 .cfa: sp 32 +
STACK CFI 345dc .cfa: sp 0 +
STACK CFI INIT 345e0 14 .cfa: sp 0 +
STACK CFI 345e4 .cfa: sp 16 +
STACK CFI 345e8 .cfa: x29 16 + .ra: .cfa -8 + ^ x29: .cfa -16 + ^
STACK CFI INIT 345f4 4 .cfa: sp 0 +
STACK CFI INIT 345f8 14 .cfa: sp 0 +
STACK CFI INIT 3460c 120 .cfa: sp 0 +
STACK CFI 34610 .cfa: sp 64 +
STACK CFI 34620 .cfa: x29 64 + x19: .cfa -8 + ^ x20: .cfa -16 + ^ x21: .cfa -24 + ^ x22: .cfa -32 + ^ x23: .cfa -40 + ^ x24: .cfa -48 + ^ .ra: .cfa -56 + ^ x29: .cfa -64 + ^
STACK CFI 34718 .cfa: sp 64 +
STACK CFI 34728 .cfa: sp 0 +
STACK CFI INIT 3472c 4a4 .cfa: sp 0 +
STACK CFI 34730 .cfa: sp 32 +
STACK CFI 34738 .cfa: x29 32 + x19: .cfa -8 + ^ x20: .cfa -16 + ^ .ra: .cfa -24 + ^ x29: .cfa -32 + ^
STACK CFI 34b18 .cfa: sp 32 +
STACK CFI 34b20 .cfa: sp 0 +
STACK CFI 34b24 .cfa: x29 32 +
STACK CFI INIT 34bd0 84 .cfa: sp 0 +
STACK CFI 34bd8 .cfa: sp 32 +
STACK CFI 34be0 .cfa: x29 32 + x19: .cfa -8 + ^ x20: .cfa -16 + ^ .ra: .cfa -24 + ^ x29: .cfa -32 + ^
STACK CFI 34c20 .cfa: sp 32 +
STACK CFI 34c28 .cfa: sp 0 +
STACK CFI 34c30 .cfa: x29 32 +
STACK CFI INIT 35284 50 .cfa: sp 0 +
STACK CFI 35288 .cfa: sp 32 +
STACK CFI 35290 .cfa: x29 32 + x19: .cfa -16 + ^ .ra: .cfa -24 + ^ x29: .cfa -32 + ^
STACK CFI 352a8 .cfa: sp 32 +
STACK CFI 352b0 .cfa: sp 0 +
STACK CFI 352b4 .cfa: x29 32 +
STACK CFI 352c8 .cfa: sp 32 +
STACK CFI 352d0 .cfa: sp 0 +
STACK CFI INIT 352d4 64 .cfa: sp 0 +
STACK CFI 352d8 .cfa: sp 32 +
STACK CFI 352e0 .cfa: x29 32 + x19: .cfa -16 + ^ .ra: .cfa -24 + ^ x29: .cfa -32 + ^
STACK CFI 3530c .cfa: sp 32 +
STACK CFI 35314 .cfa: sp 0 +
STACK CFI 35318 .cfa: x29 32 +
STACK CFI 3532c .cfa: sp 32 +
STACK CFI 35334 .cfa: sp 0 +
STACK CFI INIT 35338 168 .cfa: sp 0 +
STACK CFI 3533c .cfa: sp 80 +
STACK CFI 35350 .cfa: x29 80 + x19: .cfa -8 + ^ x20: .cfa -16 + ^ x21: .cfa -24 + ^ x22: .cfa -32 + ^ x23: .cfa -40 + ^ x24: .cfa -48 + ^ x25: .cfa -56 + ^ x26: .cfa -64 + ^ .ra: .cfa -72 + ^ x29: .cfa -80 + ^
STACK CFI 35488 .cfa: sp 80 +
STACK CFI 3549c .cfa: sp 0 +
STACK CFI INIT 354a0 1b0 .cfa: sp 0 +
STACK CFI INIT 359bc 4 .cfa: sp 0 +
STACK CFI INIT 3638c 5c .cfa: sp 0 +
STACK CFI 36390 .cfa: sp 32 +
STACK CFI 36398 .cfa: x29 32 + x19: .cfa -16 + ^ .ra: .cfa -24 + ^ x29: .cfa -32 + ^
STACK CFI 363dc .cfa: sp 32 +
STACK CFI 363e4 .cfa: sp 0 +
STACK CFI INIT 363e8 14 .cfa: sp 0 +
STACK CFI 363ec .cfa: sp 16 +
STACK CFI 363f0 .cfa: x29 16 + .ra: .cfa -8 + ^ x29: .cfa -16 + ^
STACK CFI INIT 363fc 14 .cfa: sp 0 +
STACK CFI 36400 .cfa: sp 16 +
STACK CFI 36404 .cfa: x29 16 + .ra: .cfa -8 + ^ x29: .cfa -16 + ^
STACK CFI INIT 36410 c .cfa: sp 0 +
STACK CFI 36414 .cfa: sp 16 +
STACK CFI 36418 .cfa: x29 16 + .ra: .cfa -8 + ^ x29: .cfa -16 + ^
STACK CFI INIT 3646c 30 .cfa: sp 0 +
STACK CFI 36470 .cfa: sp 32 +
STACK CFI 36478 .cfa: x29 32 + x19: .cfa -16 + ^ .ra: .cfa -24 + ^ x29: .cfa -32 + ^
STACK CFI 36490 .cfa: sp 32 +
STACK CFI 36498 .cfa: sp 0 +
STACK CFI INIT 3649c c .cfa: sp 0 +
STACK CFI 364a0 .cfa: sp 16 +
STACK CFI 364a4 .cfa: x29 16 + .ra: .cfa -8 + ^ x29: .cfa -16 + ^
STACK CFI INIT 364a8 4 .cfa: sp 0 +
STACK CFI INIT 364ac 4 .cfa: sp 0 +
STACK CFI INIT 364b0 38 .cfa: sp 0 +
STACK CFI 364b4 .cfa: sp 32 +
STACK CFI 364bc .cfa: x29 32 + x19: .cfa -16 + ^ .ra: .cfa -24 + ^ x29: .cfa -32 + ^
STACK CFI 364dc .cfa: sp 32 +
STACK CFI 364e4 .cfa: sp 0 +
STACK CFI INIT 364e8 18 .cfa: sp 0 +
STACK CFI INIT 36500 4 .cfa: sp 0 +
STACK CFI INIT 36504 4 .cfa: sp 0 +
STACK CFI INIT 36508 10 .cfa: sp 0 +
STACK CFI INIT 36518 1c .cfa: sp 0 +
STACK CFI INIT 36534 c .cfa: sp 0 +
STACK CFI INIT 36540 4 .cfa: sp 0 +
STACK CFI INIT 36544 38 .cfa: sp 0 +
STACK CFI 36548 .cfa: sp 32 +
STACK CFI 36550 .cfa: x29 32 + x19: .cfa -16 + ^ .ra: .cfa -24 + ^ x29: .cfa -32 + ^
STACK CFI 36570 .cfa: sp 32 +
STACK CFI 36578 .cfa: sp 0 +
STACK CFI INIT 3657c 18 .cfa: sp 0 +
STACK CFI INIT 36594 4 .cfa: sp 0 +
STACK CFI INIT 36598 4 .cfa: sp 0 +
STACK CFI INIT 366bc 1c .cfa: sp 0 +
STACK CFI INIT 366d8 c .cfa: sp 0 +
STACK CFI INIT 36a58 4 .cfa: sp 0 +
STACK CFI INIT 36ec0 4 .cfa: sp 0 +
STACK CFI INIT 37598 4 .cfa: sp 0 +
STACK CFI INIT 3759c 2c .cfa: sp 0 +
STACK CFI 375a0 .cfa: sp 32 +
STACK CFI 375a8 .cfa: x29 32 + x19: .cfa -16 + ^ .ra: .cfa -24 + ^ x29: .cfa -32 + ^
STACK CFI 375bc .cfa: sp 32 +
STACK CFI 375c4 .cfa: sp 0 +
STACK CFI INIT 37670 9c .cfa: sp 0 +
STACK CFI INIT 3770c 3c .cfa: sp 0 +
STACK CFI 37710 .cfa: sp 32 +
STACK CFI 37718 .cfa: x29 32 + x19: .cfa -16 + ^ .ra: .cfa -24 + ^ x29: .cfa -32 + ^
STACK CFI 37724 .cfa: sp 32 +
STACK CFI 3772c .cfa: sp 0 +
STACK CFI 37730 .cfa: x29 32 +
STACK CFI 3773c .cfa: sp 32 +
STACK CFI 37744 .cfa: sp 0 +
STACK CFI INIT 37a64 64 .cfa: sp 0 +
STACK CFI 37a68 .cfa: sp 32 +
STACK CFI 37a70 .cfa: x29 32 + x19: .cfa -16 + ^ .ra: .cfa -24 + ^ x29: .cfa -32 + ^
STACK CFI 37a9c .cfa: sp 32 +
STACK CFI 37aa4 .cfa: sp 0 +
STACK CFI 37aa8 .cfa: x29 32 +
STACK CFI 37abc .cfa: sp 32 +
STACK CFI 37ac4 .cfa: sp 0 +
STACK CFI INIT 37c3c 24 .cfa: sp 0 +
STACK CFI 37c40 .cfa: sp 32 +
STACK CFI 37c48 .cfa: x29 32 + x19: .cfa -16 + ^ .ra: .cfa -24 + ^ x29: .cfa -32 + ^
STACK CFI 37c54 .cfa: sp 32 +
STACK CFI 37c5c .cfa: sp 0 +
STACK CFI INIT 37c60 8 .cfa: sp 0 +
STACK CFI INIT 37c68 24 .cfa: sp 0 +
STACK CFI 37c6c .cfa: sp 32 +
STACK CFI 37c74 .cfa: x29 32 + x19: .cfa -16 + ^ .ra: .cfa -24 + ^ x29: .cfa -32 + ^
STACK CFI 37c80 .cfa: sp 32 +
STACK CFI 37c88 .cfa: sp 0 +
STACK CFI INIT 37c8c 28 .cfa: sp 0 +
STACK CFI 37c90 .cfa: sp 32 +
STACK CFI 37c98 .cfa: x29 32 + x19: .cfa -16 + ^ .ra: .cfa -24 + ^ x29: .cfa -32 + ^
STACK CFI 37ca8 .cfa: sp 32 +
STACK CFI 37cb0 .cfa: sp 0 +
STACK CFI INIT 37cb4 24 .cfa: sp 0 +
STACK CFI 37cb8 .cfa: sp 32 +
STACK CFI 37cc0 .cfa: x29 32 + x19: .cfa -16 + ^ .ra: .cfa -24 + ^ x29: .cfa -32 + ^
STACK CFI 37ccc .cfa: sp 32 +
STACK CFI 37cd4 .cfa: sp 0 +
STACK CFI INIT 3844c 8 .cfa: sp 0 +
STACK CFI INIT 38454 24 .cfa: sp 0 +
STACK CFI 38458 .cfa: sp 32 +
STACK CFI 38460 .cfa: x29 32 + x19: .cfa -16 + ^ .ra: .cfa -24 + ^ x29: .cfa -32 + ^
STACK CFI 3846c .cfa: sp 32 +
STACK CFI 38474 .cfa: sp 0 +
STACK CFI INIT 38478 28 .cfa: sp 0 +
STACK CFI 3847c .cfa: sp 32 +
STACK CFI 38484 .cfa: x29 32 + x19: .cfa -16 + ^ .ra: .cfa -24 + ^ x29: .cfa -32 + ^
STACK CFI 38494 .cfa: sp 32 +
STACK CFI 3849c .cfa: sp 0 +
STACK CFI INIT 384a0 8 .cfa: sp 0 +
STACK CFI INIT 384a8 24 .cfa: sp 0 +
STACK CFI 384ac .cfa: sp 32 +
STACK CFI 384b4 .cfa: x29 32 + x19: .cfa -16 + ^ .ra: .cfa -24 + ^ x29: .cfa -32 + ^
STACK CFI 384c0 .cfa: sp 32 +
STACK CFI 384c8 .cfa: sp 0 +
STACK CFI INIT 384cc 28 .cfa: sp 0 +
STACK CFI 384d0 .cfa: sp 32 +
STACK CFI 384d8 .cfa: x29 32 + x19: .cfa -16 + ^ .ra: .cfa -24 + ^ x29: .cfa -32 + ^
STACK CFI 384e8 .cfa: sp 32 +
STACK CFI 384f0 .cfa: sp 0 +
STACK CFI INIT 384f4 8 .cfa: sp 0 +
STACK CFI INIT 384fc 24 .cfa: sp 0 +
STACK CFI 38500 .cfa: sp 32 +
STACK CFI 38508 .cfa: x29 32 + x19: .cfa -16 + ^ .ra: .cfa -24 + ^ x29: .cfa -32 + ^
STACK CFI 38514 .cfa: sp 32 +
STACK CFI 3851c .cfa: sp 0 +
STACK CFI INIT 38520 28 .cfa: sp 0 +
STACK CFI 38524 .cfa: sp 32 +
STACK CFI 3852c .cfa: x29 32 + x19: .cfa -16 + ^ .ra: .cfa -24 + ^ x29: .cfa -32 + ^
STACK CFI 3853c .cfa: sp 32 +
STACK CFI 38544 .cfa: sp 0 +
STACK CFI INIT 396bc 4 .cfa: sp 0 +
STACK CFI INIT 396c0 14 .cfa: sp 0 +
STACK CFI INIT 39bb4 110 .cfa: sp 0 +
STACK CFI INIT 39cc4 134 .cfa: sp 0 +
STACK CFI INIT 39df8 c .cfa: sp 0 +
STACK CFI INIT 39e04 a0 .cfa: sp 0 +
STACK CFI 39e10 .cfa: sp 32 +
STACK CFI 39e68 .cfa: sp 0 +
STACK CFI 39e6c .cfa: sp 32 +
STACK CFI 39e74 .cfa: sp 0 +
STACK CFI 39e78 .cfa: sp 32 +
STACK CFI 39e8c .cfa: sp 0 +
STACK CFI 39e90 .cfa: sp 32 +
STACK CFI 39ea0 .cfa: sp 0 +
STACK CFI INIT 39ea4 38 .cfa: sp 0 +
STACK CFI 39eb0 .cfa: sp 32 +
STACK CFI 39ed8 .cfa: sp 0 +
STACK CFI INIT 3a170 7c .cfa: sp 0 +
STACK CFI 3a174 .cfa: sp 32 +
STACK CFI 3a17c .cfa: x29 32 + x19: .cfa -16 + ^ .ra: .cfa -24 + ^ x29: .cfa -32 + ^
STACK CFI 3a1a8 .cfa: sp 32 +
STACK CFI 3a1b0 .cfa: sp 0 +
STACK CFI 3a1b4 .cfa: x29 32 +
STACK CFI 3a1e0 .cfa: sp 32 +
STACK CFI 3a1e8 .cfa: sp 0 +
STACK CFI INIT 3a9fc 64 .cfa: sp 0 +
STACK CFI 3aa00 .cfa: sp 32 +
STACK CFI 3aa08 .cfa: x29 32 + x19: .cfa -16 + ^ .ra: .cfa -24 + ^ x29: .cfa -32 + ^
STACK CFI 3aa24 .cfa: sp 32 +
STACK CFI 3aa2c .cfa: sp 0 +
STACK CFI 3aa30 .cfa: x29 32 +
STACK CFI 3aa54 .cfa: sp 32 +
STACK CFI 3aa5c .cfa: sp 0 +
STACK CFI INIT 3aa60 570 .cfa: sp 0 +
STACK CFI 3aa64 .cfa: sp 176 +
STACK CFI 3aa78 .cfa: x29 64 + x19: .cfa -8 + ^ x20: .cfa -16 + ^ x21: .cfa -24 + ^ x22: .cfa -32 + ^ x23: .cfa -40 + ^ x24: .cfa -48 + ^ .ra: .cfa -56 + ^ x29: .cfa -64 + ^
STACK CFI 3aca8 .cfa: sp 176 +
STACK CFI 3acbc .cfa: sp 0 +
STACK CFI 3acc0 .cfa: x29 64 +
STACK CFI 3ad0c .cfa: sp 176 +
STACK CFI 3ad20 .cfa: sp 0 +
STACK CFI 3ad24 .cfa: x29 64 +
STACK CFI 3ad5c .cfa: sp 176 +
STACK CFI 3ad70 .cfa: sp 0 +
STACK CFI 3ad74 .cfa: x29 64 +
STACK CFI 3ad8c .cfa: sp 176 +
STACK CFI 3ada0 .cfa: sp 0 +
STACK CFI 3ada4 .cfa: x29 64 +
STACK CFI 3adc4 .cfa: sp 176 +
STACK CFI 3add8 .cfa: sp 0 +
STACK CFI 3addc .cfa: x29 64 +
STACK CFI 3adf4 .cfa: sp 176 +
STACK CFI 3ae08 .cfa: sp 0 +
STACK CFI 3ae0c .cfa: x29 64 +
STACK CFI 3ae20 .cfa: sp 176 +
STACK CFI 3ae34 .cfa: sp 0 +
STACK CFI 3ae38 .cfa: x29 64 +
STACK CFI 3ae4c .cfa: sp 176 +
STACK CFI 3ae60 .cfa: sp 0 +
STACK CFI 3ae64 .cfa: x29 64 +
STACK CFI 3ae74 .cfa: sp 176 +
STACK CFI 3ae88 .cfa: sp 0 +
STACK CFI 3ae8c .cfa: x29 64 +
STACK CFI 3ae9c .cfa: sp 176 +
STACK CFI 3aeb0 .cfa: sp 0 +
STACK CFI 3aeb4 .cfa: x29 64 +
STACK CFI 3aecc .cfa: sp 176 +
STACK CFI 3aee0 .cfa: sp 0 +
STACK CFI 3aee4 .cfa: x29 64 +
STACK CFI 3aef8 .cfa: sp 176 +
STACK CFI 3af0c .cfa: sp 0 +
STACK CFI 3af10 .cfa: x29 64 +
STACK CFI 3af28 .cfa: sp 176 +
STACK CFI 3af3c .cfa: sp 0 +
STACK CFI 3af40 .cfa: x29 64 +
STACK CFI 3af6c .cfa: sp 176 +
STACK CFI 3af80 .cfa: sp 0 +
STACK CFI 3af84 .cfa: x29 64 +
STACK CFI 3af98 .cfa: sp 176 +
STACK CFI 3afac .cfa: sp 0 +
STACK CFI 3afb0 .cfa: x29 64 +
STACK CFI INIT 3afd0 228 .cfa: sp 0 +
STACK CFI INIT 3b1f8 2dc .cfa: sp 0 +
STACK CFI INIT 3b4d4 53c .cfa: sp 0 +
STACK CFI INIT 3ba10 8c .cfa: sp 0 +
STACK CFI 3ba14 .cfa: sp 32 +
STACK CFI 3ba1c .cfa: x29 32 + x19: .cfa -16 + ^ .ra: .cfa -24 + ^ x29: .cfa -32 + ^
STACK CFI 3ba50 .cfa: sp 32 +
STACK CFI 3ba58 .cfa: sp 0 +
STACK CFI 3ba5c .cfa: x29 32 +
STACK CFI 3ba90 .cfa: sp 32 +
STACK CFI 3ba98 .cfa: sp 0 +
STACK CFI INIT 3ba9c 150 .cfa: sp 0 +
STACK CFI 3baa0 .cfa: sp 48 +
STACK CFI 3baac .cfa: x29 48 + x19: .cfa -8 + ^ x20: .cfa -16 + ^ x21: .cfa -24 + ^ x22: .cfa -32 + ^ .ra: .cfa -40 + ^ x29: .cfa -48 + ^
STACK CFI 3bbdc .cfa: sp 48 +
STACK CFI 3bbe8 .cfa: sp 0 +
STACK CFI INIT 3bbec 68 .cfa: sp 0 +
STACK CFI 3bbf0 .cfa: sp 64 +
STACK CFI 3bbfc .cfa: x29 32 + x19: .cfa -16 + ^ .ra: .cfa -24 + ^ x29: .cfa -32 + ^
STACK CFI 3bc40 .cfa: sp 64 +
STACK CFI 3bc4c .cfa: sp 0 +
STACK CFI 3bc50 .cfa: x29 32 +
STACK CFI INIT 3bc54 90 .cfa: sp 0 +
STACK CFI 3bc58 .cfa: sp 32 +
STACK CFI 3bc60 .cfa: x29 32 + x19: .cfa -8 + ^ x20: .cfa -16 + ^ .ra: .cfa -24 + ^ x29: .cfa -32 + ^
STACK CFI 3bc8c .cfa: sp 32 +
STACK CFI 3bc94 .cfa: sp 0 +
STACK CFI 3bc98 .cfa: x29 32 +
STACK CFI 3bcd8 .cfa: sp 32 +
STACK CFI 3bce0 .cfa: sp 0 +
STACK CFI INIT 3bce4 ec .cfa: sp 0 +
STACK CFI 3bce8 .cfa: sp 112 +
STACK CFI 3bcf8 .cfa: x29 48 + x19: .cfa -8 + ^ x20: .cfa -16 + ^ x21: .cfa -32 + ^ .ra: .cfa -40 + ^ x29: .cfa -48 + ^
STACK CFI 3bdb8 .cfa: sp 112 +
STACK CFI 3bdc8 .cfa: sp 0 +
STACK CFI 3bdcc .cfa: x29 48 +
STACK CFI INIT 3bdd0 ec .cfa: sp 0 +
STACK CFI 3bdd4 .cfa: sp 112 +
STACK CFI 3bde4 .cfa: x29 48 + x19: .cfa -8 + ^ x20: .cfa -16 + ^ x21: .cfa -32 + ^ .ra: .cfa -40 + ^ x29: .cfa -48 + ^
STACK CFI 3bea4 .cfa: sp 112 +
STACK CFI 3beb4 .cfa: sp 0 +
STACK CFI 3beb8 .cfa: x29 48 +
STACK CFI INIT 3bebc 48 .cfa: sp 0 +
STACK CFI 3bec0 .cfa: sp 32 +
STACK CFI 3bec8 .cfa: x29 32 + x19: .cfa -8 + ^ x20: .cfa -16 + ^ .ra: .cfa -24 + ^ x29: .cfa -32 + ^
STACK CFI 3beec .cfa: sp 32 +
STACK CFI 3bef4 .cfa: sp 0 +
STACK CFI 3bef8 .cfa: x29 32 +
STACK CFI INIT 3bf04 98 .cfa: sp 0 +
STACK CFI 3bf08 .cfa: sp 80 +
STACK CFI 3bf14 .cfa: x29 32 + x19: .cfa -16 + ^ .ra: .cfa -24 + ^ x29: .cfa -32 + ^
STACK CFI 3bf88 .cfa: sp 80 +
STACK CFI 3bf94 .cfa: sp 0 +
STACK CFI 3bf98 .cfa: x29 32 +
STACK CFI INIT 3bf9c 260 .cfa: sp 0 +
STACK CFI 3bfa0 .cfa: sp 112 +
STACK CFI 3bfb8 .cfa: x29 80 + x19: .cfa -8 + ^ x20: .cfa -16 + ^ x21: .cfa -24 + ^ x22: .cfa -32 + ^ x23: .cfa -40 + ^ x24: .cfa -48 + ^ x25: .cfa -64 + ^ .ra: .cfa -72 + ^ x29: .cfa -80 + ^
STACK CFI 3c19c .cfa: sp 112 +
STACK CFI 3c1b4 .cfa: sp 0 +
STACK CFI 3c1b8 .cfa: x29 80 +
STACK CFI INIT 3c1fc 150 .cfa: sp 0 +
STACK CFI 3c200 .cfa: sp 48 +
STACK CFI 3c20c .cfa: x29 48 + x19: .cfa -8 + ^ x20: .cfa -16 + ^ x21: .cfa -24 + ^ x22: .cfa -32 + ^ .ra: .cfa -40 + ^ x29: .cfa -48 + ^
STACK CFI 3c33c .cfa: sp 48 +
STACK CFI 3c348 .cfa: sp 0 +
STACK CFI INIT 3c34c 1e0 .cfa: sp 0 +
STACK CFI 3c350 .cfa: sp 96 +
STACK CFI 3c364 .cfa: x29 64 + x19: .cfa -8 + ^ x20: .cfa -16 + ^ x21: .cfa -24 + ^ x22: .cfa -32 + ^ x23: .cfa -40 + ^ x24: .cfa -48 + ^ .ra: .cfa -56 + ^ x29: .cfa -64 + ^
STACK CFI 3c4e4 .cfa: sp 96 +
STACK CFI 3c4f8 .cfa: sp 0 +
STACK CFI 3c4fc .cfa: x29 64 +
STACK CFI INIT 3c52c 284 .cfa: sp 0 +
STACK CFI 3c530 .cfa: sp 112 +
STACK CFI 3c548 .cfa: x29 80 + x19: .cfa -8 + ^ x20: .cfa -16 + ^ x21: .cfa -24 + ^ x22: .cfa -32 + ^ x23: .cfa -40 + ^ x24: .cfa -48 + ^ x25: .cfa -64 + ^ .ra: .cfa -72 + ^ x29: .cfa -80 + ^
STACK CFI 3c750 .cfa: sp 112 +
STACK CFI 3c768 .cfa: sp 0 +
STACK CFI 3c76c .cfa: x29 80 +
STACK CFI INIT 3c7b0 208 .cfa: sp 0 +
STACK CFI 3c7b4 .cfa: sp 96 +
STACK CFI 3c7c8 .cfa: x29 64 + x19: .cfa -8 + ^ x20: .cfa -16 + ^ x21: .cfa -24 + ^ x22: .cfa -32 + ^ x23: .cfa -40 + ^ x24: .cfa -48 + ^ .ra: .cfa -56 + ^ x29: .cfa -64 + ^
STACK CFI 3c970 .cfa: sp 96 +
STACK CFI 3c984 .cfa: sp 0 +
STACK CFI 3c988 .cfa: x29 64 +
STACK CFI INIT 3c9b8 360 .cfa: sp 0 +
STACK CFI 3c9bc .cfa: sp 160 +
STACK CFI 3c9d8 .cfa: x29 96 + x19: .cfa -8 + ^ x20: .cfa -16 + ^ x21: .cfa -24 + ^ x22: .cfa -32 + ^ x23: .cfa -40 + ^ x24: .cfa -48 + ^ x25: .cfa -56 + ^ x26: .cfa -64 + ^ x27: .cfa -72 + ^ x28: .cfa -80 + ^ .ra: .cfa -88 + ^ x29: .cfa -96 + ^
STACK CFI 3cca4 .cfa: sp 160 +
STACK CFI 3ccc0 .cfa: sp 0 +
STACK CFI 3ccc4 .cfa: x29 96 +
STACK CFI INIT 3cd18 314 .cfa: sp 0 +
STACK CFI 3cd1c .cfa: sp 144 +
STACK CFI 3cd38 .cfa: x29 96 + x19: .cfa -8 + ^ x20: .cfa -16 + ^ x21: .cfa -24 + ^ x22: .cfa -32 + ^ x23: .cfa -40 + ^ x24: .cfa -48 + ^ x25: .cfa -56 + ^ x26: .cfa -64 + ^ x27: .cfa -72 + ^ x28: .cfa -80 + ^ .ra: .cfa -88 + ^ x29: .cfa -96 + ^
STACK CFI 3cfb4 .cfa: sp 144 +
STACK CFI 3cfd0 .cfa: sp 0 +
STACK CFI 3cfd4 .cfa: x29 96 +
STACK CFI INIT 3d02c 2b4 .cfa: sp 0 +
STACK CFI 3d030 .cfa: sp 128 +
STACK CFI 3d048 .cfa: x29 80 + x19: .cfa -8 + ^ x20: .cfa -16 + ^ x21: .cfa -24 + ^ x22: .cfa -32 + ^ x23: .cfa -40 + ^ x24: .cfa -48 + ^ x25: .cfa -56 + ^ x26: .cfa -64 + ^ .ra: .cfa -72 + ^ x29: .cfa -80 + ^
STACK CFI 3d23c .cfa: sp 128 +
STACK CFI 3d254 .cfa: sp 0 +
STACK CFI 3d258 .cfa: x29 80 +
STACK CFI 3d2c0 .cfa: sp 128 +
STACK CFI 3d2d8 .cfa: sp 0 +
STACK CFI 3d2dc .cfa: x29 80 +
STACK CFI INIT 3d2e0 de0 .cfa: sp 0 +
STACK CFI 3d2e4 .cfa: sp 144 +
STACK CFI 3d300 .cfa: x29 96 + x19: .cfa -8 + ^ x20: .cfa -16 + ^ x21: .cfa -24 + ^ x22: .cfa -32 + ^ x23: .cfa -40 + ^ x24: .cfa -48 + ^ x25: .cfa -56 + ^ x26: .cfa -64 + ^ x27: .cfa -72 + ^ x28: .cfa -80 + ^ .ra: .cfa -88 + ^ x29: .cfa -96 + ^
STACK CFI 3df98 .cfa: sp 144 +
STACK CFI 3dfb4 .cfa: sp 0 +
STACK CFI 3dfb8 .cfa: x29 96 +
STACK CFI INIT 3e0c0 264 .cfa: sp 0 +
STACK CFI 3e0c4 .cfa: sp 112 +
STACK CFI 3e0d8 .cfa: x29 64 + x19: .cfa -8 + ^ x20: .cfa -16 + ^ x21: .cfa -24 + ^ x22: .cfa -32 + ^ x23: .cfa -40 + ^ x24: .cfa -48 + ^ .ra: .cfa -56 + ^ x29: .cfa -64 + ^
STACK CFI 3e254 .cfa: sp 112 +
STACK CFI 3e268 .cfa: sp 0 +
STACK CFI 3e26c .cfa: x29 64 +
STACK CFI 3e2dc .cfa: sp 112 +
STACK CFI 3e2f0 .cfa: sp 0 +
STACK CFI 3e2f4 .cfa: x29 64 +
STACK CFI INIT 3e324 258 .cfa: sp 0 +
STACK CFI 3e328 .cfa: sp 96 +
STACK CFI 3e340 .cfa: x29 96 + x19: .cfa -8 + ^ x20: .cfa -16 + ^ x21: .cfa -24 + ^ x22: .cfa -32 + ^ x23: .cfa -40 + ^ x24: .cfa -48 + ^ x25: .cfa -56 + ^ x26: .cfa -64 + ^ x27: .cfa -72 + ^ x28: .cfa -80 + ^ .ra: .cfa -88 + ^ x29: .cfa -96 + ^
STACK CFI 3e538 .cfa: sp 96 +
STACK CFI 3e550 .cfa: sp 0 +
STACK CFI 3e554 .cfa: x29 96 +
STACK CFI 3e560 .cfa: sp 96 +
STACK CFI 3e578 .cfa: sp 0 +
STACK CFI INIT 3f200 154 .cfa: sp 0 +
STACK CFI 3f204 .cfa: sp 96 +
STACK CFI 3f218 .cfa: x29 64 + x19: .cfa -8 + ^ x20: .cfa -16 + ^ x21: .cfa -24 + ^ x22: .cfa -32 + ^ x23: .cfa -48 + ^ .ra: .cfa -56 + ^ x29: .cfa -64 + ^
STACK CFI 3f2f8 .cfa: sp 96 +
STACK CFI 3f30c .cfa: sp 0 +
STACK CFI 3f310 .cfa: x29 64 +
STACK CFI INIT 3f5c0 44 .cfa: sp 0 +
STACK CFI 3f5c4 .cfa: sp 32 +
STACK CFI 3f5cc .cfa: x29 32 + x19: .cfa -16 + ^ .ra: .cfa -24 + ^ x29: .cfa -32 + ^
STACK CFI 3f5e8 .cfa: sp 32 +
STACK CFI 3f5f0 .cfa: sp 0 +
STACK CFI 3f5f4 .cfa: x29 32 +
STACK CFI 3f5f8 .cfa: sp 32 +
STACK CFI 3f600 .cfa: sp 0 +
STACK CFI INIT 3f604 1d0 .cfa: sp 0 +
STACK CFI 3f608 .cfa: sp 64 +
STACK CFI 3f618 .cfa: x29 64 + x19: .cfa -8 + ^ x20: .cfa -16 + ^ x21: .cfa -24 + ^ x22: .cfa -32 + ^ x23: .cfa -40 + ^ x24: .cfa -48 + ^ .ra: .cfa -56 + ^ x29: .cfa -64 + ^
STACK CFI 3f6d8 .cfa: sp 64 +
STACK CFI 3f6e8 .cfa: sp 0 +
STACK CFI 3f6ec .cfa: x29 64 +
STACK CFI INIT 3f7d4 17c .cfa: sp 0 +
STACK CFI INIT 3fd08 a0 .cfa: sp 0 +
STACK CFI 3fd0c .cfa: sp 48 +
STACK CFI 3fd18 .cfa: x29 48 + x19: .cfa -8 + ^ x20: .cfa -16 + ^ x21: .cfa -24 + ^ x22: .cfa -32 + ^ .ra: .cfa -40 + ^ x29: .cfa -48 + ^
STACK CFI 3fd84 .cfa: sp 48 +
STACK CFI 3fd90 .cfa: sp 0 +
STACK CFI 3fd94 .cfa: sp 48 +
STACK CFI 3fda0 .cfa: sp 0 +
STACK CFI 3fda4 .cfa: x29 48 +
STACK CFI INIT 40a68 158 .cfa: sp 0 +
STACK CFI 40a6c .cfa: sp 96 +
STACK CFI 40a80 .cfa: x29 64 + x19: .cfa -8 + ^ x20: .cfa -16 + ^ x21: .cfa -24 + ^ x22: .cfa -32 + ^ x23: .cfa -48 + ^ .ra: .cfa -56 + ^ x29: .cfa -64 + ^
STACK CFI 40b64 .cfa: sp 96 +
STACK CFI 40b78 .cfa: sp 0 +
STACK CFI 40b7c .cfa: x29 64 +
STACK CFI INIT 40bc0 190 .cfa: sp 0 +
STACK CFI INIT 41848 1f4 .cfa: sp 0 +
STACK CFI 4184c .cfa: sp 80 +
STACK CFI 41860 .cfa: x29 80 + x19: .cfa -8 + ^ x20: .cfa -16 + ^ x21: .cfa -24 + ^ x22: .cfa -32 + ^ x23: .cfa -40 + ^ x24: .cfa -48 + ^ x25: .cfa -64 + ^ .ra: .cfa -72 + ^ x29: .cfa -80 + ^
STACK CFI 41a00 .cfa: sp 80 +
STACK CFI 41a14 .cfa: sp 0 +
STACK CFI 41a18 .cfa: x29 80 +
STACK CFI 41a24 .cfa: sp 80 +
STACK CFI 41a38 .cfa: sp 0 +
STACK CFI INIT 42e6c 124 .cfa: sp 0 +
STACK CFI 42e9c .cfa: sp 32 +
STACK CFI 42ea4 .cfa: x29 32 + x19: .cfa -8 + ^ x20: .cfa -16 + ^ .ra: .cfa -24 + ^ x29: .cfa -32 + ^
STACK CFI 42f84 .cfa: sp 32 +
STACK CFI 42f8c .cfa: sp 0 +
STACK CFI INIT 436ec 320 .cfa: sp 0 +
STACK CFI 436f0 .cfa: sp 64 +
STACK CFI 43700 .cfa: x29 64 + x19: .cfa -8 + ^ x20: .cfa -16 + ^ x21: .cfa -24 + ^ x22: .cfa -32 + ^ x23: .cfa -40 + ^ x24: .cfa -48 + ^ .ra: .cfa -56 + ^ x29: .cfa -64 + ^
STACK CFI 4377c .cfa: sp 64 +
STACK CFI 4378c .cfa: sp 0 +
STACK CFI 43790 .cfa: x29 64 +
STACK CFI 43964 .cfa: sp 64 +
STACK CFI 43974 .cfa: sp 0 +
STACK CFI 43978 .cfa: x29 64 +
STACK CFI 43988 .cfa: sp 64 +
STACK CFI 43998 .cfa: sp 0 +
STACK CFI 4399c .cfa: x29 64 +
STACK CFI INIT 43a0c a0 .cfa: sp 0 +
STACK CFI 43a10 .cfa: sp 48 +
STACK CFI 43a1c .cfa: x29 48 + x19: .cfa -8 + ^ x20: .cfa -16 + ^ x21: .cfa -24 + ^ x22: .cfa -32 + ^ .ra: .cfa -40 + ^ x29: .cfa -48 + ^
STACK CFI 43a88 .cfa: sp 48 +
STACK CFI 43a94 .cfa: sp 0 +
STACK CFI 43a98 .cfa: sp 48 +
STACK CFI 43aa4 .cfa: sp 0 +
STACK CFI 43aa8 .cfa: x29 48 +
STACK CFI INIT 4498c 160 .cfa: sp 0 +
STACK CFI 44990 .cfa: sp 64 +
STACK CFI 449a0 .cfa: x29 64 + x19: .cfa -8 + ^ x20: .cfa -16 + ^ x21: .cfa -24 + ^ x22: .cfa -32 + ^ x23: .cfa -48 + ^ .ra: .cfa -56 + ^ x29: .cfa -64 + ^
STACK CFI 44a98 .cfa: sp 64 +
STACK CFI 44aa8 .cfa: sp 0 +
STACK CFI 44aac .cfa: x29 64 +
STACK CFI INIT 44aec 214 .cfa: sp 0 +
STACK CFI 44af0 .cfa: sp 128 +
STACK CFI 44b0c .cfa: x29 96 + x19: .cfa -8 + ^ x20: .cfa -16 + ^ x21: .cfa -24 + ^ x22: .cfa -32 + ^ x23: .cfa -40 + ^ x24: .cfa -48 + ^ x25: .cfa -56 + ^ x26: .cfa -64 + ^ x27: .cfa -80 + ^ .ra: .cfa -88 + ^ x29: .cfa -96 + ^
STACK CFI 44c88 .cfa: sp 128 +
STACK CFI 44ca4 .cfa: sp 0 +
STACK CFI 44ca8 .cfa: x29 96 +
STACK CFI INIT 461b4 e60 .cfa: sp 0 +
STACK CFI 461b8 .cfa: sp 192 +
STACK CFI 461d4 .cfa: x29 96 + x19: .cfa -8 + ^ x20: .cfa -16 + ^ x21: .cfa -24 + ^ x22: .cfa -32 + ^ x23: .cfa -40 + ^ x24: .cfa -48 + ^ x25: .cfa -56 + ^ x26: .cfa -64 + ^ x27: .cfa -72 + ^ x28: .cfa -80 + ^ .ra: .cfa -88 + ^ x29: .cfa -96 + ^
STACK CFI 46efc .cfa: sp 192 +
STACK CFI 46f18 .cfa: sp 0 +
STACK CFI 46f1c .cfa: x29 96 +
STACK CFI INIT 47014 1090 .cfa: sp 0 +
STACK CFI 47018 .cfa: sp 288 +
STACK CFI 47034 .cfa: x29 96 + x19: .cfa -8 + ^ x20: .cfa -16 + ^ x21: .cfa -24 + ^ x22: .cfa -32 + ^ x23: .cfa -40 + ^ x24: .cfa -48 + ^ x25: .cfa -56 + ^ x26: .cfa -64 + ^ x27: .cfa -72 + ^ x28: .cfa -80 + ^ .ra: .cfa -88 + ^ x29: .cfa -96 + ^
STACK CFI 47dec .cfa: sp 288 +
STACK CFI 47e08 .cfa: sp 0 +
STACK CFI 47e0c .cfa: x29 96 +
STACK CFI INIT 480a4 520 .cfa: sp 0 +
STACK CFI 480a8 .cfa: sp 144 +
STACK CFI 480c4 .cfa: x29 96 + x19: .cfa -8 + ^ x20: .cfa -16 + ^ x21: .cfa -24 + ^ x22: .cfa -32 + ^ x23: .cfa -40 + ^ x24: .cfa -48 + ^ x25: .cfa -56 + ^ x26: .cfa -64 + ^ x27: .cfa -72 + ^ x28: .cfa -80 + ^ .ra: .cfa -88 + ^ x29: .cfa -96 + ^
STACK CFI 485a0 .cfa: sp 144 +
STACK CFI 485bc .cfa: sp 0 +
STACK CFI 485c0 .cfa: x29 96 +
STACK CFI INIT 22270 3d0 .cfa: sp 0 +
STACK CFI 22274 .cfa: sp 176 +
STACK CFI 22284 .cfa: x29 48 + x19: .cfa -8 + ^ x20: .cfa -16 + ^ x21: .cfa -24 + ^ x22: .cfa -32 + ^ .ra: .cfa -40 + ^ x29: .cfa -48 + ^
STACK CFI 225fc .cfa: sp 176 +
STACK CFI 2260c .cfa: sp 0 +
STACK CFI 22610 .cfa: x29 48 +
STACK CFI INIT 22640 178 .cfa: sp 0 +
STACK CFI 22644 .cfa: sp 128 +
STACK CFI 22650 .cfa: x29 32 + x19: .cfa -8 + ^ x20: .cfa -16 + ^ .ra: .cfa -24 + ^ x29: .cfa -32 + ^
STACK CFI 22730 .cfa: sp 128 +
STACK CFI 2273c .cfa: sp 0 +
STACK CFI 22740 .cfa: x29 32 +
STACK CFI INIT 227b8 b90 .cfa: sp 0 +
STACK CFI 227bc .cfa: sp 144 +
STACK CFI 227e0 .cfa: x29 96 + x19: .cfa -8 + ^ x20: .cfa -16 + ^ x21: .cfa -24 + ^ x22: .cfa -32 + ^ x23: .cfa -40 + ^ x24: .cfa -48 + ^ x25: .cfa -56 + ^ x26: .cfa -64 + ^ x27: .cfa -72 + ^ x28: .cfa -80 + ^ .ra: .cfa -88 + ^ x29: .cfa -96 + ^ v8: .cfa -104 + ^ v9: .cfa -112 + ^ v10: .cfa -120 + ^ v11: .cfa -128 + ^ v12: .cfa -136 + ^ v13: .cfa -144 + ^
STACK CFI 231f4 .cfa: sp 144 +
STACK CFI 23218 .cfa: sp 0 +
STACK CFI 2321c .cfa: x29 96 +
STACK CFI INIT 23348 384 .cfa: sp 0 +
STACK CFI 2334c .cfa: sp 80 +
STACK CFI 23360 .cfa: x29 80 + x19: .cfa -8 + ^ x20: .cfa -16 + ^ x21: .cfa -24 + ^ x22: .cfa -32 + ^ x23: .cfa -40 + ^ x24: .cfa -48 + ^ x28: .cfa -64 + ^ .ra: .cfa -72 + ^ x29: .cfa -80 + ^
STACK CFI 235a4 .cfa: sp 80 +
STACK CFI 235b8 .cfa: sp 0 +
STACK CFI 235bc .cfa: x29 80 +
STACK CFI INIT 236cc 2d0 .cfa: sp 0 +
STACK CFI 236d0 .cfa: sp 80 +
STACK CFI 236e4 .cfa: x29 80 + x19: .cfa -8 + ^ x20: .cfa -16 + ^ x21: .cfa -24 + ^ x22: .cfa -32 + ^ x23: .cfa -40 + ^ x24: .cfa -48 + ^ x25: .cfa -56 + ^ x28: .cfa -64 + ^ .ra: .cfa -72 + ^ x29: .cfa -80 + ^
STACK CFI 238e0 .cfa: sp 80 +
STACK CFI 238f4 .cfa: sp 0 +
STACK CFI 238f8 .cfa: x29 80 +
STACK CFI INIT 2399c 3ec .cfa: sp 0 +
STACK CFI 239a0 .cfa: sp 80 +
STACK CFI 239b4 .cfa: x29 80 + x19: .cfa -8 + ^ x20: .cfa -16 + ^ x21: .cfa -24 + ^ x22: .cfa -32 + ^ x23: .cfa -40 + ^ x24: .cfa -48 + ^ x28: .cfa -64 + ^ .ra: .cfa -72 + ^ x29: .cfa -80 + ^
STACK CFI 23bac .cfa: sp 80 +
STACK CFI 23bc0 .cfa: sp 0 +
STACK CFI 23bc4 .cfa: x29 80 +
STACK CFI INIT 23d88 20 .cfa: sp 0 +
STACK CFI 23d8c .cfa: sp 16 +
STACK CFI 23d90 .cfa: x29 16 + .ra: .cfa -8 + ^ x29: .cfa -16 + ^
STACK CFI 23d9c .cfa: sp 16 +
STACK CFI 23da0 .cfa: sp 0 +
STACK CFI 23da4 .cfa: x29 16 +
STACK CFI INIT 23da8 84 .cfa: sp 0 +
STACK CFI 23dac .cfa: sp 48 +
STACK CFI 23db8 .cfa: x29 48 + x19: .cfa -8 + ^ x20: .cfa -16 + ^ x21: .cfa -32 + ^ .ra: .cfa -40 + ^ x29: .cfa -48 + ^
STACK CFI 23dd8 .cfa: sp 48 +
STACK CFI 23de4 .cfa: sp 0 +
STACK CFI 23de8 .cfa: x29 48 +
STACK CFI 23e08 .cfa: sp 48 +
STACK CFI 23e14 .cfa: sp 0 +
STACK CFI 23e18 .cfa: sp 48 +
STACK CFI 23e24 .cfa: sp 0 +
STACK CFI 23e28 .cfa: x29 48 +
STACK CFI INIT 23e2c 1c .cfa: sp 0 +
STACK CFI 23e30 .cfa: sp 16 +
STACK CFI 23e34 .cfa: x29 16 + .ra: .cfa -8 + ^ x29: .cfa -16 + ^
STACK CFI 23e3c .cfa: sp 16 +
STACK CFI 23e40 .cfa: sp 0 +
STACK CFI 23e44 .cfa: x29 16 +
STACK CFI INIT 23e48 74 .cfa: sp 0 +
STACK CFI 23e4c .cfa: sp 48 +
STACK CFI 23e58 .cfa: x29 32 + x19: .cfa -8 + ^ x20: .cfa -16 + ^ .ra: .cfa -24 + ^ x29: .cfa -32 + ^
STACK CFI 23ea4 .cfa: sp 48 +
STACK CFI 23eb0 .cfa: sp 0 +
STACK CFI 23eb4 .cfa: x29 32 +
STACK CFI INIT 23ebc 1dc .cfa: sp 0 +
STACK CFI 23ec0 .cfa: sp 80 +
STACK CFI 23ed0 .cfa: x29 48 + x19: .cfa -8 + ^ x20: .cfa -16 + ^ x21: .cfa -24 + ^ x22: .cfa -32 + ^ .ra: .cfa -40 + ^ x29: .cfa -48 + ^
STACK CFI 24010 .cfa: sp 80 +
STACK CFI 24020 .cfa: sp 0 +
STACK CFI 24024 .cfa: x29 48 +
STACK CFI INIT 240a0 ec .cfa: sp 0 +
STACK CFI 240a4 .cfa: sp 32 +
STACK CFI 240ac .cfa: x29 32 + x19: .cfa -16 + ^ .ra: .cfa -24 + ^ x29: .cfa -32 + ^
STACK CFI 2417c .cfa: sp 32 +
STACK CFI 24184 .cfa: sp 0 +
STACK CFI 24188 .cfa: x29 32 +
STACK CFI INIT 2418c f4 .cfa: sp 0 +
STACK CFI 24190 .cfa: sp 32 +
STACK CFI 24198 .cfa: x29 32 + x19: .cfa -16 + ^ .ra: .cfa -24 + ^ x29: .cfa -32 + ^
STACK CFI 24270 .cfa: sp 32 +
STACK CFI 24278 .cfa: sp 0 +
STACK CFI 2427c .cfa: x29 32 +
STACK CFI INIT 242e0 148 .cfa: sp 0 +
STACK CFI 242e4 .cfa: sp 96 +
STACK CFI 242f4 .cfa: x29 48 + x19: .cfa -8 + ^ x20: .cfa -16 + ^ x21: .cfa -32 + ^ .ra: .cfa -40 + ^ x29: .cfa -48 + ^
STACK CFI 243dc .cfa: sp 96 +
STACK CFI 243ec .cfa: sp 0 +
STACK CFI 243f0 .cfa: x29 48 +
STACK CFI INIT 24428 f0 .cfa: sp 0 +
STACK CFI 2442c .cfa: sp 32 +
STACK CFI 24434 .cfa: x29 32 + x19: .cfa -8 + ^ x20: .cfa -16 + ^ .ra: .cfa -24 + ^ x29: .cfa -32 + ^
STACK CFI 24508 .cfa: sp 32 +
STACK CFI 24510 .cfa: sp 0 +
STACK CFI 24514 .cfa: x29 32 +
STACK CFI INIT 24518 f8 .cfa: sp 0 +
STACK CFI 2451c .cfa: sp 32 +
STACK CFI 24524 .cfa: x29 32 + x19: .cfa -8 + ^ x20: .cfa -16 + ^ .ra: .cfa -24 + ^ x29: .cfa -32 + ^
STACK CFI 24600 .cfa: sp 32 +
STACK CFI 24608 .cfa: sp 0 +
STACK CFI 2460c .cfa: x29 32 +
STACK CFI INIT 24668 1e88 .cfa: sp 0 +
STACK CFI 2466c .cfa: sp 96 +
STACK CFI 24684 .cfa: x29 96 + x19: .cfa -8 + ^ x20: .cfa -16 + ^ x21: .cfa -24 + ^ x22: .cfa -32 + ^ x23: .cfa -40 + ^ x24: .cfa -48 + ^ x25: .cfa -56 + ^ x26: .cfa -64 + ^ x27: .cfa -72 + ^ x28: .cfa -80 + ^ .ra: .cfa -88 + ^ x29: .cfa -96 + ^
STACK CFI 26034 .cfa: sp 96 +
STACK CFI 2604c .cfa: sp 0 +
STACK CFI 26050 .cfa: x29 96 +
STACK CFI INIT 26878 50 .cfa: sp 0 +
STACK CFI 2687c .cfa: sp 32 +
STACK CFI 26884 .cfa: x29 32 + x19: .cfa -8 + ^ x20: .cfa -16 + ^ .ra: .cfa -24 + ^ x29: .cfa -32 + ^
STACK CFI INIT 268c8 134 .cfa: sp 0 +
STACK CFI 268cc .cfa: sp 128 +
STACK CFI 268dc .cfa: x29 48 + x19: .cfa -8 + ^ x20: .cfa -16 + ^ x21: .cfa -32 + ^ .ra: .cfa -40 + ^ x29: .cfa -48 + ^
STACK CFI 26960 .cfa: sp 128 +
STACK CFI 26970 .cfa: sp 0 +
STACK CFI 26974 .cfa: x29 48 +
STACK CFI INIT 26ff0 128 .cfa: sp 0 +
STACK CFI 26ff4 .cfa: sp 64 +
STACK CFI 27004 .cfa: x29 64 + x19: .cfa -8 + ^ x20: .cfa -16 + ^ x21: .cfa -24 + ^ x22: .cfa -32 + ^ x23: .cfa -40 + ^ x28: .cfa -48 + ^ .ra: .cfa -56 + ^ x29: .cfa -64 + ^
STACK CFI 2703c .cfa: sp 64 +
STACK CFI 2704c .cfa: sp 0 +
STACK CFI 27050 .cfa: x29 64 +
STACK CFI 270d0 .cfa: sp 64 +
STACK CFI 270e0 .cfa: sp 0 +
STACK CFI 270e4 .cfa: x29 64 +
STACK CFI INIT 27118 1c4 .cfa: sp 0 +
STACK CFI 2711c .cfa: sp 64 +
STACK CFI 2712c .cfa: x29 64 + x19: .cfa -8 + ^ x20: .cfa -16 + ^ x21: .cfa -24 + ^ x22: .cfa -32 + ^ x23: .cfa -40 + ^ x28: .cfa -48 + ^ .ra: .cfa -56 + ^ x29: .cfa -64 + ^
STACK CFI 27294 .cfa: sp 64 +
STACK CFI 272a4 .cfa: sp 0 +
STACK CFI 272a8 .cfa: x29 64 +
STACK CFI INIT 272dc 36c .cfa: sp 0 +
STACK CFI 272e0 .cfa: sp 80 +
STACK CFI 272f4 .cfa: x29 80 + x19: .cfa -8 + ^ x20: .cfa -16 + ^ x21: .cfa -24 + ^ x22: .cfa -32 + ^ x23: .cfa -40 + ^ x24: .cfa -48 + ^ x28: .cfa -64 + ^ .ra: .cfa -72 + ^ x29: .cfa -80 + ^
STACK CFI 275fc .cfa: sp 80 +
STACK CFI 27610 .cfa: sp 0 +
STACK CFI 27614 .cfa: x29 80 +
STACK CFI INIT 27648 138 .cfa: sp 0 +
STACK CFI 2764c .cfa: sp 64 +
STACK CFI 2765c .cfa: x29 64 + x19: .cfa -8 + ^ x20: .cfa -16 + ^ x21: .cfa -24 + ^ x22: .cfa -32 + ^ x23: .cfa -40 + ^ x28: .cfa -48 + ^ .ra: .cfa -56 + ^ x29: .cfa -64 + ^
STACK CFI 27738 .cfa: sp 64 +
STACK CFI 27748 .cfa: sp 0 +
STACK CFI 2774c .cfa: x29 64 +
STACK CFI INIT 27780 160 .cfa: sp 0 +
STACK CFI 27784 .cfa: sp 64 +
STACK CFI 27794 .cfa: x29 64 + x19: .cfa -8 + ^ x20: .cfa -16 + ^ x21: .cfa -24 + ^ x22: .cfa -32 + ^ x23: .cfa -40 + ^ x28: .cfa -48 + ^ .ra: .cfa -56 + ^ x29: .cfa -64 + ^
STACK CFI 27898 .cfa: sp 64 +
STACK CFI 278a8 .cfa: sp 0 +
STACK CFI 278ac .cfa: x29 64 +
STACK CFI INIT 278e0 16c .cfa: sp 0 +
STACK CFI 278e4 .cfa: sp 64 +
STACK CFI 278f4 .cfa: x29 64 + x19: .cfa -8 + ^ x20: .cfa -16 + ^ x21: .cfa -24 + ^ x22: .cfa -32 + ^ x23: .cfa -40 + ^ x28: .cfa -48 + ^ .ra: .cfa -56 + ^ x29: .cfa -64 + ^
STACK CFI 27a04 .cfa: sp 64 +
STACK CFI 27a14 .cfa: sp 0 +
STACK CFI 27a18 .cfa: x29 64 +
STACK CFI INIT 27a4c 138 .cfa: sp 0 +
STACK CFI 27a50 .cfa: sp 64 +
STACK CFI 27a60 .cfa: x29 64 + x19: .cfa -8 + ^ x20: .cfa -16 + ^ x21: .cfa -24 + ^ x22: .cfa -32 + ^ x23: .cfa -40 + ^ x28: .cfa -48 + ^ .ra: .cfa -56 + ^ x29: .cfa -64 + ^
STACK CFI 27b3c .cfa: sp 64 +
STACK CFI 27b4c .cfa: sp 0 +
STACK CFI 27b50 .cfa: x29 64 +
STACK CFI INIT 27b84 1ac .cfa: sp 0 +
STACK CFI 27b88 .cfa: sp 64 +
STACK CFI 27b98 .cfa: x29 64 + x19: .cfa -8 + ^ x20: .cfa -16 + ^ x21: .cfa -24 + ^ x22: .cfa -32 + ^ x23: .cfa -40 + ^ x28: .cfa -48 + ^ .ra: .cfa -56 + ^ x29: .cfa -64 + ^
STACK CFI 27ce8 .cfa: sp 64 +
STACK CFI 27cf8 .cfa: sp 0 +
STACK CFI 27cfc .cfa: x29 64 +
STACK CFI INIT 27d30 14c .cfa: sp 0 +
STACK CFI 27d34 .cfa: sp 64 +
STACK CFI 27d44 .cfa: x29 64 + x19: .cfa -8 + ^ x20: .cfa -16 + ^ x21: .cfa -24 + ^ x22: .cfa -32 + ^ x23: .cfa -40 + ^ x28: .cfa -48 + ^ .ra: .cfa -56 + ^ x29: .cfa -64 + ^
STACK CFI 27da0 .cfa: sp 64 +
STACK CFI 27db0 .cfa: sp 0 +
STACK CFI 27db4 .cfa: x29 64 +
STACK CFI 27e34 .cfa: sp 64 +
STACK CFI 27e44 .cfa: sp 0 +
STACK CFI 27e48 .cfa: x29 64 +
STACK CFI INIT 27e7c 160 .cfa: sp 0 +
STACK CFI 27e80 .cfa: sp 64 +
STACK CFI 27e90 .cfa: x29 64 + x19: .cfa -8 + ^ x20: .cfa -16 + ^ x21: .cfa -24 + ^ x22: .cfa -32 + ^ x23: .cfa -40 + ^ x28: .cfa -48 + ^ .ra: .cfa -56 + ^ x29: .cfa -64 + ^
STACK CFI 27f00 .cfa: sp 64 +
STACK CFI 27f10 .cfa: sp 0 +
STACK CFI 27f14 .cfa: x29 64 +
STACK CFI 27f94 .cfa: sp 64 +
STACK CFI 27fa4 .cfa: sp 0 +
STACK CFI 27fa8 .cfa: x29 64 +
STACK CFI INIT 27fdc 338 .cfa: sp 0 +
STACK CFI 27fe0 .cfa: sp 64 +
STACK CFI 27ff0 .cfa: x29 64 + x19: .cfa -8 + ^ x20: .cfa -16 + ^ x21: .cfa -24 + ^ x22: .cfa -32 + ^ x23: .cfa -40 + ^ x28: .cfa -48 + ^ .ra: .cfa -56 + ^ x29: .cfa -64 + ^
STACK CFI 2808c .cfa: sp 64 +
STACK CFI 2809c .cfa: sp 0 +
STACK CFI 280a0 .cfa: x29 64 +
STACK CFI 282cc .cfa: sp 64 +
STACK CFI 282dc .cfa: sp 0 +
STACK CFI 282e0 .cfa: x29 64 +
STACK CFI INIT 28314 128 .cfa: sp 0 +
STACK CFI 28318 .cfa: sp 64 +
STACK CFI 28328 .cfa: x29 64 + x19: .cfa -8 + ^ x20: .cfa -16 + ^ x21: .cfa -24 + ^ x22: .cfa -32 + ^ x23: .cfa -40 + ^ x28: .cfa -48 + ^ .ra: .cfa -56 + ^ x29: .cfa -64 + ^
STACK CFI 28360 .cfa: sp 64 +
STACK CFI 28370 .cfa: sp 0 +
STACK CFI 28374 .cfa: x29 64 +
STACK CFI 283f4 .cfa: sp 64 +
STACK CFI 28404 .cfa: sp 0 +
STACK CFI 28408 .cfa: x29 64 +
STACK CFI INIT 2843c 128 .cfa: sp 0 +
STACK CFI 28440 .cfa: sp 64 +
STACK CFI 28450 .cfa: x29 64 + x19: .cfa -8 + ^ x20: .cfa -16 + ^ x21: .cfa -24 + ^ x22: .cfa -32 + ^ x23: .cfa -40 + ^ x28: .cfa -48 + ^ .ra: .cfa -56 + ^ x29: .cfa -64 + ^
STACK CFI 28488 .cfa: sp 64 +
STACK CFI 28498 .cfa: sp 0 +
STACK CFI 2849c .cfa: x29 64 +
STACK CFI 2851c .cfa: sp 64 +
STACK CFI 2852c .cfa: sp 0 +
STACK CFI 28530 .cfa: x29 64 +
STACK CFI INIT 28564 13c .cfa: sp 0 +
STACK CFI 28568 .cfa: sp 64 +
STACK CFI 28578 .cfa: x29 64 + x19: .cfa -8 + ^ x20: .cfa -16 + ^ x21: .cfa -24 + ^ x22: .cfa -32 + ^ x23: .cfa -40 + ^ x28: .cfa -48 + ^ .ra: .cfa -56 + ^ x29: .cfa -64 + ^
STACK CFI 285c4 .cfa: sp 64 +
STACK CFI 285d4 .cfa: sp 0 +
STACK CFI 285d8 .cfa: x29 64 +
STACK CFI 28658 .cfa: sp 64 +
STACK CFI 28668 .cfa: sp 0 +
STACK CFI 2866c .cfa: x29 64 +
STACK CFI INIT 286a0 128 .cfa: sp 0 +
STACK CFI 286a4 .cfa: sp 64 +
STACK CFI 286b4 .cfa: x29 64 + x19: .cfa -8 + ^ x20: .cfa -16 + ^ x21: .cfa -24 + ^ x22: .cfa -32 + ^ x23: .cfa -40 + ^ x28: .cfa -48 + ^ .ra: .cfa -56 + ^ x29: .cfa -64 + ^
STACK CFI 286ec .cfa: sp 64 +
STACK CFI 286fc .cfa: sp 0 +
STACK CFI 28700 .cfa: x29 64 +
STACK CFI 28780 .cfa: sp 64 +
STACK CFI 28790 .cfa: sp 0 +
STACK CFI 28794 .cfa: x29 64 +
STACK CFI INIT 287c8 140 .cfa: sp 0 +
STACK CFI 287cc .cfa: sp 64 +
STACK CFI 287dc .cfa: x29 64 + x19: .cfa -8 + ^ x20: .cfa -16 + ^ x21: .cfa -24 + ^ x22: .cfa -32 + ^ x23: .cfa -40 + ^ x28: .cfa -48 + ^ .ra: .cfa -56 + ^ x29: .cfa -64 + ^
STACK CFI 28830 .cfa: sp 64 +
STACK CFI 28840 .cfa: sp 0 +
STACK CFI 28844 .cfa: x29 64 +
STACK CFI 288c0 .cfa: sp 64 +
STACK CFI 288d0 .cfa: sp 0 +
STACK CFI 288d4 .cfa: x29 64 +
STACK CFI INIT 28908 2a4 .cfa: sp 0 +
STACK CFI 2890c .cfa: sp 64 +
STACK CFI 2891c .cfa: x29 64 + x19: .cfa -8 + ^ x20: .cfa -16 + ^ x21: .cfa -24 + ^ x22: .cfa -32 + ^ x23: .cfa -40 + ^ x28: .cfa -48 + ^ .ra: .cfa -56 + ^ x29: .cfa -64 + ^
STACK CFI 28ac8 .cfa: sp 64 +
STACK CFI 28ad8 .cfa: sp 0 +
STACK CFI 28adc .cfa: x29 64 +
STACK CFI 28b64 .cfa: sp 64 +
STACK CFI 28b74 .cfa: sp 0 +
STACK CFI 28b78 .cfa: x29 64 +
STACK CFI INIT 28bac 21c .cfa: sp 0 +
STACK CFI 28bb0 .cfa: sp 80 +
STACK CFI 28bc4 .cfa: x29 80 + x19: .cfa -8 + ^ x20: .cfa -16 + ^ x21: .cfa -24 + ^ x22: .cfa -32 + ^ x23: .cfa -40 + ^ x24: .cfa -48 + ^ x25: .cfa -56 + ^ x28: .cfa -64 + ^ .ra: .cfa -72 + ^ x29: .cfa -80 + ^
STACK CFI 28d7c .cfa: sp 80 +
STACK CFI 28d90 .cfa: sp 0 +
STACK CFI 28d94 .cfa: x29 80 +
STACK CFI INIT 28dc8 190 .cfa: sp 0 +
STACK CFI 28dcc .cfa: sp 64 +
STACK CFI 28ddc .cfa: x29 64 + x19: .cfa -8 + ^ x20: .cfa -16 + ^ x21: .cfa -24 + ^ x22: .cfa -32 + ^ x23: .cfa -40 + ^ x28: .cfa -48 + ^ .ra: .cfa -56 + ^ x29: .cfa -64 + ^
STACK CFI 28e74 .cfa: sp 64 +
STACK CFI 28e84 .cfa: sp 0 +
STACK CFI 28e88 .cfa: x29 64 +
STACK CFI 28f10 .cfa: sp 64 +
STACK CFI 28f20 .cfa: sp 0 +
STACK CFI 28f24 .cfa: x29 64 +
STACK CFI INIT 290ec 18c .cfa: sp 0 +
STACK CFI 290f0 .cfa: sp 64 +
STACK CFI 29100 .cfa: x29 64 + x19: .cfa -8 + ^ x20: .cfa -16 + ^ x21: .cfa -24 + ^ x22: .cfa -32 + ^ x23: .cfa -40 + ^ x28: .cfa -48 + ^ .ra: .cfa -56 + ^ x29: .cfa -64 + ^
STACK CFI 29230 .cfa: sp 64 +
STACK CFI 29240 .cfa: sp 0 +
STACK CFI 29244 .cfa: x29 64 +
STACK CFI INIT 29278 1c4 .cfa: sp 0 +
STACK CFI 2927c .cfa: sp 64 +
STACK CFI 2928c .cfa: x29 64 + x19: .cfa -8 + ^ x20: .cfa -16 + ^ x21: .cfa -24 + ^ x22: .cfa -32 + ^ x23: .cfa -40 + ^ x28: .cfa -48 + ^ .ra: .cfa -56 + ^ x29: .cfa -64 + ^
STACK CFI 293f4 .cfa: sp 64 +
STACK CFI 29404 .cfa: sp 0 +
STACK CFI 29408 .cfa: x29 64 +
STACK CFI INIT 298c8 234 .cfa: sp 0 +
STACK CFI 298cc .cfa: sp 352 +
STACK CFI 298e4 .cfa: x29 80 + x19: .cfa -8 + ^ x20: .cfa -16 + ^ x21: .cfa -24 + ^ x22: .cfa -32 + ^ x23: .cfa -40 + ^ x24: .cfa -48 + ^ x28: .cfa -64 + ^ .ra: .cfa -72 + ^ x29: .cfa -80 + ^
STACK CFI 29a24 .cfa: sp 352 +
STACK CFI 29a3c .cfa: sp 0 +
STACK CFI 29a40 .cfa: x29 80 +
STACK CFI INIT 29afc 71c .cfa: sp 0 +
STACK CFI 29b00 .cfa: sp 400 +
STACK CFI 29b18 .cfa: x29 80 + x19: .cfa -8 + ^ x20: .cfa -16 + ^ x21: .cfa -24 + ^ x22: .cfa -32 + ^ x23: .cfa -40 + ^ x24: .cfa -48 + ^ x25: .cfa -56 + ^ x28: .cfa -64 + ^ .ra: .cfa -72 + ^ x29: .cfa -80 + ^
STACK CFI 2a0d8 .cfa: sp 400 +
STACK CFI 2a0f0 .cfa: sp 0 +
STACK CFI 2a0f4 .cfa: x29 80 +
STACK CFI INIT 2a710 260 .cfa: sp 0 +
STACK CFI 2a714 .cfa: sp 112 +
STACK CFI 2a72c .cfa: x29 80 + x19: .cfa -8 + ^ x20: .cfa -16 + ^ x21: .cfa -24 + ^ x22: .cfa -32 + ^ x23: .cfa -40 + ^ x24: .cfa -48 + ^ x25: .cfa -64 + ^ .ra: .cfa -72 + ^ x29: .cfa -80 + ^
STACK CFI 2a8ec .cfa: sp 112 +
STACK CFI 2a904 .cfa: sp 0 +
STACK CFI 2a908 .cfa: x29 80 +
STACK CFI INIT 2c944 6c .cfa: sp 0 +
STACK CFI 2c948 .cfa: sp 32 +
STACK CFI 2c950 .cfa: x29 32 + x19: .cfa -16 + ^ .ra: .cfa -24 + ^ x29: .cfa -32 + ^
STACK CFI 2c9a0 .cfa: sp 32 +
STACK CFI 2c9a8 .cfa: sp 0 +
STACK CFI 2c9ac .cfa: x29 32 +
STACK CFI INIT 2c9b4 6c .cfa: sp 0 +
STACK CFI 2c9b8 .cfa: sp 32 +
STACK CFI 2c9c0 .cfa: x29 32 + x19: .cfa -16 + ^ .ra: .cfa -24 + ^ x29: .cfa -32 + ^
STACK CFI 2ca10 .cfa: sp 32 +
STACK CFI 2ca18 .cfa: sp 0 +
STACK CFI 2ca1c .cfa: x29 32 +
STACK CFI INIT 2ca28 1a0 .cfa: sp 0 +
STACK CFI 2ca2c .cfa: sp 128 +
STACK CFI 2ca3c .cfa: x29 48 + x19: .cfa -8 + ^ x20: .cfa -16 + ^ x21: .cfa -32 + ^ .ra: .cfa -40 + ^ x29: .cfa -48 + ^
STACK CFI 2cb44 .cfa: sp 128 +
STACK CFI 2cb54 .cfa: sp 0 +
STACK CFI 2cb58 .cfa: x29 48 +
STACK CFI INIT 2cde4 198 .cfa: sp 0 +
STACK CFI 2cde8 .cfa: sp 96 +
STACK CFI 2cdf8 .cfa: x29 48 + x19: .cfa -8 + ^ x20: .cfa -16 + ^ x21: .cfa -32 + ^ .ra: .cfa -40 + ^ x29: .cfa -48 + ^
STACK CFI 2ced4 .cfa: sp 96 +
STACK CFI 2cee4 .cfa: sp 0 +
STACK CFI 2cee8 .cfa: x29 48 +
STACK CFI INIT 2d130 1d4 .cfa: sp 0 +
STACK CFI 2d134 .cfa: sp 320 +
STACK CFI 2d14c .cfa: x29 80 + x19: .cfa -8 + ^ x20: .cfa -16 + ^ x21: .cfa -24 + ^ x22: .cfa -32 + ^ x23: .cfa -40 + ^ x24: .cfa -48 + ^ x28: .cfa -64 + ^ .ra: .cfa -72 + ^ x29: .cfa -80 + ^
STACK CFI 2d2b8 .cfa: sp 320 +
STACK CFI 2d2d0 .cfa: sp 0 +
STACK CFI 2d2d4 .cfa: x29 80 +
STACK CFI INIT 2d960 30 .cfa: sp 0 +
STACK CFI 2d964 .cfa: sp 16 +
STACK CFI 2d968 .cfa: x29 16 + .ra: .cfa -8 + ^ x29: .cfa -16 + ^
STACK CFI 2d984 .cfa: sp 16 +
STACK CFI 2d988 .cfa: sp 0 +
STACK CFI 2d98c .cfa: x29 16 +
STACK CFI INIT 2d990 3c .cfa: sp 0 +
STACK CFI 2d994 .cfa: sp 32 +
STACK CFI 2d99c .cfa: x29 32 + x19: .cfa -16 + ^ .ra: .cfa -24 + ^ x29: .cfa -32 + ^
STACK CFI 2d9bc .cfa: sp 32 +
STACK CFI 2d9c4 .cfa: sp 0 +
STACK CFI 2d9c8 .cfa: x29 32 +
STACK CFI INIT 2d9cc 58 .cfa: sp 0 +
STACK CFI 2d9d0 .cfa: sp 32 +
STACK CFI 2d9d8 .cfa: x29 32 + x19: .cfa -8 + ^ x20: .cfa -16 + ^ .ra: .cfa -24 + ^ x29: .cfa -32 + ^
STACK CFI 2da04 .cfa: sp 32 +
STACK CFI 2da0c .cfa: sp 0 +
STACK CFI 2da10 .cfa: x29 32 +
STACK CFI INIT 2da40 20 .cfa: sp 0 +
STACK CFI 2da44 .cfa: sp 16 +
STACK CFI 2da48 .cfa: x29 16 + .ra: .cfa -8 + ^ x29: .cfa -16 + ^
STACK CFI 2da54 .cfa: sp 16 +
STACK CFI 2da58 .cfa: sp 0 +
STACK CFI 2da5c .cfa: x29 16 +
STACK CFI INIT 2da60 30 .cfa: sp 0 +
STACK CFI 2da64 .cfa: sp 32 +
STACK CFI 2da6c .cfa: x29 32 + x19: .cfa -16 + ^ .ra: .cfa -24 + ^ x29: .cfa -32 + ^
STACK CFI 2da80 .cfa: sp 32 +
STACK CFI 2da88 .cfa: sp 0 +
STACK CFI 2da8c .cfa: x29 32 +
STACK CFI INIT 2da90 384 .cfa: sp 0 +
STACK CFI 2da94 .cfa: sp 80 +
STACK CFI 2daa8 .cfa: x29 80 + x19: .cfa -8 + ^ x20: .cfa -16 + ^ x21: .cfa -24 + ^ x22: .cfa -32 + ^ x23: .cfa -40 + ^ x24: .cfa -48 + ^ x28: .cfa -64 + ^ .ra: .cfa -72 + ^ x29: .cfa -80 + ^
STACK CFI 2dcec .cfa: sp 80 +
STACK CFI 2dd00 .cfa: sp 0 +
STACK CFI 2dd04 .cfa: x29 80 +
STACK CFI INIT 2de80 298 .cfa: sp 0 +
STACK CFI 2de84 .cfa: sp 80 +
STACK CFI 2de98 .cfa: x29 80 + x19: .cfa -8 + ^ x20: .cfa -16 + ^ x21: .cfa -24 + ^ x22: .cfa -32 + ^ x23: .cfa -40 + ^ x24: .cfa -48 + ^ x28: .cfa -64 + ^ .ra: .cfa -72 + ^ x29: .cfa -80 + ^
STACK CFI 2e030 .cfa: sp 80 +
STACK CFI 2e044 .cfa: sp 0 +
STACK CFI 2e048 .cfa: x29 80 +
STACK CFI INIT 2e448 144 .cfa: sp 0 +
STACK CFI 2e44c .cfa: sp 112 +
STACK CFI 2e45c .cfa: x29 48 + x19: .cfa -8 + ^ x20: .cfa -16 + ^ x21: .cfa -32 + ^ .ra: .cfa -40 + ^ x29: .cfa -48 + ^
STACK CFI 2e510 .cfa: sp 112 +
STACK CFI 2e520 .cfa: sp 0 +
STACK CFI 2e524 .cfa: x29 48 +
STACK CFI INIT 2e58c 87c .cfa: sp 0 +
STACK CFI 2e590 .cfa: sp 96 +
STACK CFI 2e5a8 .cfa: x29 96 + x19: .cfa -8 + ^ x20: .cfa -16 + ^ x21: .cfa -24 + ^ x22: .cfa -32 + ^ x23: .cfa -40 + ^ x24: .cfa -48 + ^ x25: .cfa -56 + ^ x26: .cfa -64 + ^ x27: .cfa -72 + ^ x28: .cfa -80 + ^ .ra: .cfa -88 + ^ x29: .cfa -96 + ^
STACK CFI 2ed08 .cfa: sp 96 +
STACK CFI 2ed20 .cfa: sp 0 +
STACK CFI 2ed24 .cfa: x29 96 +
STACK CFI INIT 2ee08 49c .cfa: sp 0 +
STACK CFI 2ee0c .cfa: sp 240 +
STACK CFI 2ee28 .cfa: x29 96 + x19: .cfa -8 + ^ x20: .cfa -16 + ^ x21: .cfa -24 + ^ x22: .cfa -32 + ^ x23: .cfa -40 + ^ x24: .cfa -48 + ^ x25: .cfa -56 + ^ x26: .cfa -64 + ^ x27: .cfa -72 + ^ x28: .cfa -80 + ^ .ra: .cfa -88 + ^ x29: .cfa -96 + ^
STACK CFI 2f148 .cfa: sp 240 +
STACK CFI 2f164 .cfa: sp 0 +
STACK CFI 2f168 .cfa: x29 96 +
STACK CFI INIT 2f2a4 74 .cfa: sp 0 +
STACK CFI 2f2a8 .cfa: sp 48 +
STACK CFI 2f2b4 .cfa: x29 32 + x19: .cfa -8 + ^ x20: .cfa -16 + ^ .ra: .cfa -24 + ^ x29: .cfa -32 + ^
STACK CFI 2f300 .cfa: sp 48 +
STACK CFI 2f30c .cfa: sp 0 +
STACK CFI 2f310 .cfa: x29 32 +
STACK CFI INIT 2f318 74 .cfa: sp 0 +
STACK CFI 2f31c .cfa: sp 48 +
STACK CFI 2f328 .cfa: x29 32 + x19: .cfa -8 + ^ x20: .cfa -16 + ^ .ra: .cfa -24 + ^ x29: .cfa -32 + ^
STACK CFI 2f374 .cfa: sp 48 +
STACK CFI 2f380 .cfa: sp 0 +
STACK CFI 2f384 .cfa: x29 32 +
STACK CFI INIT 2f408 43c .cfa: sp 0 +
STACK CFI 2f40c .cfa: sp 240 +
STACK CFI 2f420 .cfa: x29 64 + x19: .cfa -8 + ^ x20: .cfa -16 + ^ x21: .cfa -24 + ^ x22: .cfa -32 + ^ x23: .cfa -48 + ^ .ra: .cfa -56 + ^ x29: .cfa -64 + ^
STACK CFI 2f698 .cfa: sp 240 +
STACK CFI 2f6ac .cfa: sp 0 +
STACK CFI 2f6b0 .cfa: x29 64 +
STACK CFI INIT 2f844 440 .cfa: sp 0 +
STACK CFI 2f848 .cfa: sp 240 +
STACK CFI 2f85c .cfa: x29 64 + x19: .cfa -8 + ^ x20: .cfa -16 + ^ x21: .cfa -24 + ^ x22: .cfa -32 + ^ x23: .cfa -48 + ^ .ra: .cfa -56 + ^ x29: .cfa -64 + ^
STACK CFI 2fad8 .cfa: sp 240 +
STACK CFI 2faec .cfa: sp 0 +
STACK CFI 2faf0 .cfa: x29 64 +
STACK CFI INIT 2fc84 2b8 .cfa: sp 0 +
STACK CFI 2fc88 .cfa: sp 80 +
STACK CFI 2fc9c .cfa: x29 80 + x19: .cfa -8 + ^ x20: .cfa -16 + ^ x21: .cfa -24 + ^ x22: .cfa -32 + ^ x23: .cfa -40 + ^ x24: .cfa -48 + ^ x25: .cfa -56 + ^ x28: .cfa -64 + ^ .ra: .cfa -72 + ^ x29: .cfa -80 + ^
STACK CFI 2fe60 .cfa: sp 80 +
STACK CFI 2fe74 .cfa: sp 0 +
STACK CFI 2fe78 .cfa: x29 80 +
STACK CFI INIT 2ff3c 26c .cfa: sp 0 +
STACK CFI 2ff40 .cfa: sp 80 +
STACK CFI 2ff54 .cfa: x29 80 + x19: .cfa -8 + ^ x20: .cfa -16 + ^ x21: .cfa -24 + ^ x22: .cfa -32 + ^ x23: .cfa -40 + ^ x24: .cfa -48 + ^ x25: .cfa -56 + ^ x28: .cfa -64 + ^ .ra: .cfa -72 + ^ x29: .cfa -80 + ^
STACK CFI 300cc .cfa: sp 80 +
STACK CFI 300e0 .cfa: sp 0 +
STACK CFI 300e4 .cfa: x29 80 +
STACK CFI INIT 301a8 b48 .cfa: sp 0 +
STACK CFI 301ac .cfa: sp 464 +
STACK CFI 301c8 .cfa: x29 96 + x19: .cfa -8 + ^ x20: .cfa -16 + ^ x21: .cfa -24 + ^ x22: .cfa -32 + ^ x23: .cfa -40 + ^ x24: .cfa -48 + ^ x25: .cfa -56 + ^ x26: .cfa -64 + ^ x27: .cfa -72 + ^ x28: .cfa -80 + ^ .ra: .cfa -88 + ^ x29: .cfa -96 + ^
STACK CFI 30a6c .cfa: sp 464 +
STACK CFI 30a88 .cfa: sp 0 +
STACK CFI 30a8c .cfa: x29 96 +
STACK CFI INIT 30cf0 39c .cfa: sp 0 +
STACK CFI 30cf4 .cfa: sp 208 +
STACK CFI 30d00 .cfa: x29 32 + x19: .cfa -8 + ^ x20: .cfa -16 + ^ .ra: .cfa -24 + ^ x29: .cfa -32 + ^
STACK CFI 30f34 .cfa: sp 208 +
STACK CFI 30f40 .cfa: sp 0 +
STACK CFI 30f44 .cfa: x29 32 +
STACK CFI INIT 3108c 98 .cfa: sp 0 +
STACK CFI 31090 .cfa: sp 48 +
STACK CFI 3109c .cfa: x29 32 + x19: .cfa -8 + ^ x20: .cfa -16 + ^ .ra: .cfa -24 + ^ x29: .cfa -32 + ^
STACK CFI 3110c .cfa: sp 48 +
STACK CFI 31118 .cfa: sp 0 +
STACK CFI 3111c .cfa: x29 32 +
STACK CFI INIT 31124 a0 .cfa: sp 0 +
STACK CFI 31128 .cfa: sp 48 +
STACK CFI 31134 .cfa: x29 32 + x19: .cfa -8 + ^ x20: .cfa -16 + ^ .ra: .cfa -24 + ^ x29: .cfa -32 + ^
STACK CFI 311ac .cfa: sp 48 +
STACK CFI 311b8 .cfa: sp 0 +
STACK CFI 311bc .cfa: x29 32 +
STACK CFI INIT 31480 50 .cfa: sp 0 +
STACK CFI 31484 .cfa: sp 32 +
STACK CFI 3148c .cfa: x29 32 + x19: .cfa -8 + ^ x20: .cfa -16 + ^ .ra: .cfa -24 + ^ x29: .cfa -32 + ^
STACK CFI INIT 31574 304 .cfa: sp 0 +
STACK CFI 31578 .cfa: sp 128 +
STACK CFI 31594 .cfa: x29 96 + x19: .cfa -8 + ^ x20: .cfa -16 + ^ x21: .cfa -24 + ^ x22: .cfa -32 + ^ x23: .cfa -40 + ^ x24: .cfa -48 + ^ x25: .cfa -56 + ^ x26: .cfa -64 + ^ x27: .cfa -72 + ^ x28: .cfa -80 + ^ .ra: .cfa -88 + ^ x29: .cfa -96 + ^
STACK CFI 317f8 .cfa: sp 128 +
STACK CFI 31814 .cfa: sp 0 +
STACK CFI 31818 .cfa: x29 96 +
STACK CFI INIT 31988 1b4 .cfa: sp 0 +
STACK CFI 3198c .cfa: sp 80 +
STACK CFI 319a0 .cfa: x29 80 + x19: .cfa -8 + ^ x20: .cfa -16 + ^ x21: .cfa -24 + ^ x22: .cfa -32 + ^ x23: .cfa -40 + ^ x24: .cfa -48 + ^ x25: .cfa -64 + ^ .ra: .cfa -72 + ^ x29: .cfa -80 + ^
STACK CFI 31b00 .cfa: sp 80 +
STACK CFI 31b14 .cfa: sp 0 +
STACK CFI 31b18 .cfa: x29 80 +
STACK CFI INIT 31b50 20 .cfa: sp 0 +
STACK CFI 31b54 .cfa: sp 16 +
STACK CFI 31b58 .cfa: x29 16 + .ra: .cfa -8 + ^ x29: .cfa -16 + ^
STACK CFI 31b64 .cfa: sp 16 +
STACK CFI 31b68 .cfa: sp 0 +
STACK CFI 31b6c .cfa: x29 16 +
STACK CFI INIT 31bc0 20 .cfa: sp 0 +
STACK CFI 31bc4 .cfa: sp 16 +
STACK CFI 31bc8 .cfa: x29 16 + .ra: .cfa -8 + ^ x29: .cfa -16 + ^
STACK CFI 31bd4 .cfa: sp 16 +
STACK CFI 31bd8 .cfa: sp 0 +
STACK CFI 31bdc .cfa: x29 16 +
STACK CFI INIT 31be0 20 .cfa: sp 0 +
STACK CFI 31be4 .cfa: sp 16 +
STACK CFI 31be8 .cfa: x29 16 + .ra: .cfa -8 + ^ x29: .cfa -16 + ^
STACK CFI 31bf4 .cfa: sp 16 +
STACK CFI 31bf8 .cfa: sp 0 +
STACK CFI 31bfc .cfa: x29 16 +
STACK CFI INIT 31c30 45c .cfa: sp 0 +
STACK CFI 31c34 .cfa: sp 224 +
STACK CFI 31c50 .cfa: x29 96 + x19: .cfa -8 + ^ x20: .cfa -16 + ^ x21: .cfa -24 + ^ x22: .cfa -32 + ^ x23: .cfa -40 + ^ x24: .cfa -48 + ^ x25: .cfa -56 + ^ x26: .cfa -64 + ^ x27: .cfa -72 + ^ x28: .cfa -80 + ^ .ra: .cfa -88 + ^ x29: .cfa -96 + ^
STACK CFI 31f74 .cfa: sp 224 +
STACK CFI 31f90 .cfa: sp 0 +
STACK CFI 31f94 .cfa: x29 96 +
STACK CFI INIT 32db8 484 .cfa: sp 0 +
STACK CFI 32dbc .cfa: sp 224 +
STACK CFI 32dd8 .cfa: x29 96 + x19: .cfa -8 + ^ x20: .cfa -16 + ^ x21: .cfa -24 + ^ x22: .cfa -32 + ^ x23: .cfa -40 + ^ x24: .cfa -48 + ^ x25: .cfa -56 + ^ x26: .cfa -64 + ^ x27: .cfa -72 + ^ x28: .cfa -80 + ^ .ra: .cfa -88 + ^ x29: .cfa -96 + ^
STACK CFI 33048 .cfa: sp 224 +
STACK CFI 33064 .cfa: sp 0 +
STACK CFI 33068 .cfa: x29 96 +
STACK CFI 33134 .cfa: sp 224 +
STACK CFI 33150 .cfa: sp 0 +
STACK CFI 33154 .cfa: x29 96 +
STACK CFI INIT 3208c 45c .cfa: sp 0 +
STACK CFI 32090 .cfa: sp 224 +
STACK CFI 320ac .cfa: x29 96 + x19: .cfa -8 + ^ x20: .cfa -16 + ^ x21: .cfa -24 + ^ x22: .cfa -32 + ^ x23: .cfa -40 + ^ x24: .cfa -48 + ^ x25: .cfa -56 + ^ x26: .cfa -64 + ^ x27: .cfa -72 + ^ x28: .cfa -80 + ^ .ra: .cfa -88 + ^ x29: .cfa -96 + ^
STACK CFI 323d0 .cfa: sp 224 +
STACK CFI 323ec .cfa: sp 0 +
STACK CFI 323f0 .cfa: x29 96 +
STACK CFI INIT 324e8 45c .cfa: sp 0 +
STACK CFI 324ec .cfa: sp 224 +
STACK CFI 32508 .cfa: x29 96 + x19: .cfa -8 + ^ x20: .cfa -16 + ^ x21: .cfa -24 + ^ x22: .cfa -32 + ^ x23: .cfa -40 + ^ x24: .cfa -48 + ^ x25: .cfa -56 + ^ x26: .cfa -64 + ^ x27: .cfa -72 + ^ x28: .cfa -80 + ^ .ra: .cfa -88 + ^ x29: .cfa -96 + ^
STACK CFI 3282c .cfa: sp 224 +
STACK CFI 32848 .cfa: sp 0 +
STACK CFI 3284c .cfa: x29 96 +
STACK CFI INIT 32944 45c .cfa: sp 0 +
STACK CFI 32948 .cfa: sp 224 +
STACK CFI 32964 .cfa: x29 96 + x19: .cfa -8 + ^ x20: .cfa -16 + ^ x21: .cfa -24 + ^ x22: .cfa -32 + ^ x23: .cfa -40 + ^ x24: .cfa -48 + ^ x25: .cfa -56 + ^ x26: .cfa -64 + ^ x27: .cfa -72 + ^ x28: .cfa -80 + ^ .ra: .cfa -88 + ^ x29: .cfa -96 + ^
STACK CFI 32c88 .cfa: sp 224 +
STACK CFI 32ca4 .cfa: sp 0 +
STACK CFI 32ca8 .cfa: x29 96 +
STACK CFI INIT 3329c 634 .cfa: sp 0 +
STACK CFI 332a0 .cfa: sp 288 +
STACK CFI 332bc .cfa: x29 96 + x19: .cfa -8 + ^ x20: .cfa -16 + ^ x21: .cfa -24 + ^ x22: .cfa -32 + ^ x23: .cfa -40 + ^ x24: .cfa -48 + ^ x25: .cfa -56 + ^ x26: .cfa -64 + ^ x28: .cfa -80 + ^ .ra: .cfa -88 + ^ x29: .cfa -96 + ^
STACK CFI 336f8 .cfa: sp 288 +
STACK CFI 33714 .cfa: sp 0 +
STACK CFI 33718 .cfa: x29 96 +
STACK CFI INIT 33920 74 .cfa: sp 0 +
STACK CFI 33924 .cfa: sp 48 +
STACK CFI 33930 .cfa: x29 32 + x19: .cfa -8 + ^ x20: .cfa -16 + ^ .ra: .cfa -24 + ^ x29: .cfa -32 + ^
STACK CFI 3397c .cfa: sp 48 +
STACK CFI 33988 .cfa: sp 0 +
STACK CFI 3398c .cfa: x29 32 +
STACK CFI INIT 33a14 154 .cfa: sp 0 +
STACK CFI 33a18 .cfa: sp 384 +
STACK CFI 33a2c .cfa: x29 64 + x19: .cfa -8 + ^ x20: .cfa -16 + ^ x21: .cfa -24 + ^ x22: .cfa -32 + ^ x23: .cfa -40 + ^ x28: .cfa -48 + ^ .ra: .cfa -56 + ^ x29: .cfa -64 + ^
STACK CFI 33b10 .cfa: sp 384 +
STACK CFI 33b24 .cfa: sp 0 +
STACK CFI 33b28 .cfa: x29 64 +
STACK CFI INIT 33b68 12c .cfa: sp 0 +
STACK CFI 33b6c .cfa: sp 80 +
STACK CFI 33b80 .cfa: x29 80 + x19: .cfa -8 + ^ x20: .cfa -16 + ^ x21: .cfa -24 + ^ x22: .cfa -32 + ^ x23: .cfa -40 + ^ x24: .cfa -48 + ^ x25: .cfa -56 + ^ x26: .cfa -64 + ^ .ra: .cfa -72 + ^ x29: .cfa -80 + ^
STACK CFI 33c48 .cfa: sp 80 +
STACK CFI 33c5c .cfa: sp 0 +
STACK CFI 33c60 .cfa: x29 80 +
STACK CFI INIT 33d14 1a4 .cfa: sp 0 +
STACK CFI 33d18 .cfa: sp 112 +
STACK CFI 33d30 .cfa: x29 80 + x19: .cfa -8 + ^ x20: .cfa -16 + ^ x21: .cfa -24 + ^ x22: .cfa -32 + ^ x23: .cfa -40 + ^ x24: .cfa -48 + ^ x25: .cfa -56 + ^ x26: .cfa -64 + ^ .ra: .cfa -72 + ^ x29: .cfa -80 + ^
STACK CFI 33e20 .cfa: sp 112 +
STACK CFI 33e38 .cfa: sp 0 +
STACK CFI 33e3c .cfa: x29 80 +
STACK CFI INIT 33eb8 1dc .cfa: sp 0 +
STACK CFI 33ebc .cfa: sp 128 +
STACK CFI 33ed8 .cfa: x29 96 + x19: .cfa -8 + ^ x20: .cfa -16 + ^ x21: .cfa -24 + ^ x22: .cfa -32 + ^ x23: .cfa -40 + ^ x24: .cfa -48 + ^ x25: .cfa -56 + ^ x26: .cfa -64 + ^ x27: .cfa -80 + ^ .ra: .cfa -88 + ^ x29: .cfa -96 + ^
STACK CFI 34044 .cfa: sp 128 +
STACK CFI 34060 .cfa: sp 0 +
STACK CFI 34064 .cfa: x29 96 +
STACK CFI INIT 34094 178 .cfa: sp 0 +
STACK CFI 34098 .cfa: sp 80 +
STACK CFI 340ac .cfa: x29 80 + x19: .cfa -8 + ^ x20: .cfa -16 + ^ x21: .cfa -24 + ^ x22: .cfa -32 + ^ x23: .cfa -40 + ^ x24: .cfa -48 + ^ x25: .cfa -64 + ^ .ra: .cfa -72 + ^ x29: .cfa -80 + ^
STACK CFI 341d8 .cfa: sp 80 +
STACK CFI 341ec .cfa: sp 0 +
STACK CFI 341f0 .cfa: x29 80 +
STACK CFI INIT 34354 224 .cfa: sp 0 +
STACK CFI 34358 .cfa: sp 128 +
STACK CFI 34370 .cfa: x29 80 + x19: .cfa -8 + ^ x20: .cfa -16 + ^ x21: .cfa -24 + ^ x22: .cfa -32 + ^ x23: .cfa -40 + ^ x24: .cfa -48 + ^ x25: .cfa -64 + ^ .ra: .cfa -72 + ^ x29: .cfa -80 + ^
STACK CFI 3450c .cfa: sp 128 +
STACK CFI 34524 .cfa: sp 0 +
STACK CFI 34528 .cfa: x29 80 +
STACK CFI INIT 34c54 318 .cfa: sp 0 +
STACK CFI 34c58 .cfa: sp 80 +
STACK CFI 34c6c .cfa: x29 80 + x19: .cfa -8 + ^ x20: .cfa -16 + ^ x21: .cfa -24 + ^ x22: .cfa -32 + ^ x23: .cfa -40 + ^ x24: .cfa -48 + ^ x28: .cfa -64 + ^ .ra: .cfa -72 + ^ x29: .cfa -80 + ^
STACK CFI 34dec .cfa: sp 80 +
STACK CFI 34e00 .cfa: sp 0 +
STACK CFI 34e04 .cfa: x29 80 +
STACK CFI 34e18 .cfa: sp 80 +
STACK CFI 34e2c .cfa: sp 0 +
STACK CFI 34e30 .cfa: x29 80 +
STACK CFI INIT 34f6c 318 .cfa: sp 0 +
STACK CFI 34f70 .cfa: sp 80 +
STACK CFI 34f84 .cfa: x29 80 + x19: .cfa -8 + ^ x20: .cfa -16 + ^ x21: .cfa -24 + ^ x22: .cfa -32 + ^ x23: .cfa -40 + ^ x24: .cfa -48 + ^ x28: .cfa -64 + ^ .ra: .cfa -72 + ^ x29: .cfa -80 + ^
STACK CFI 35104 .cfa: sp 80 +
STACK CFI 35118 .cfa: sp 0 +
STACK CFI 3511c .cfa: x29 80 +
STACK CFI 35130 .cfa: sp 80 +
STACK CFI 35144 .cfa: sp 0 +
STACK CFI 35148 .cfa: x29 80 +
STACK CFI INIT 35650 36c .cfa: sp 0 +
STACK CFI 35654 .cfa: sp 240 +
STACK CFI 35668 .cfa: x29 64 + x19: .cfa -8 + ^ x20: .cfa -16 + ^ x21: .cfa -24 + ^ x22: .cfa -32 + ^ x23: .cfa -40 + ^ x24: .cfa -48 + ^ .ra: .cfa -56 + ^ x29: .cfa -64 + ^
STACK CFI 35890 .cfa: sp 240 +
STACK CFI 358a4 .cfa: sp 0 +
STACK CFI 358a8 .cfa: x29 64 +
STACK CFI INIT 359c0 868 .cfa: sp 0 +
STACK CFI 359c4 .cfa: sp 256 +
STACK CFI 359e0 .cfa: x29 96 + x19: .cfa -8 + ^ x20: .cfa -16 + ^ x21: .cfa -24 + ^ x22: .cfa -32 + ^ x23: .cfa -40 + ^ x24: .cfa -48 + ^ x25: .cfa -56 + ^ x26: .cfa -64 + ^ x27: .cfa -72 + ^ x28: .cfa -80 + ^ .ra: .cfa -88 + ^ x29: .cfa -96 + ^
STACK CFI 36064 .cfa: sp 256 +
STACK CFI 36080 .cfa: sp 0 +
STACK CFI 36084 .cfa: x29 96 +
STACK CFI INIT 36228 164 .cfa: sp 0 +
STACK CFI 3622c .cfa: sp 96 +
STACK CFI 36238 .cfa: x29 32 + x19: .cfa -8 + ^ x20: .cfa -16 + ^ .ra: .cfa -24 + ^ x29: .cfa -32 + ^
STACK CFI 3630c .cfa: sp 96 +
STACK CFI 36318 .cfa: sp 0 +
STACK CFI 3631c .cfa: x29 32 +
STACK CFI INIT 3641c 50 .cfa: sp 0 +
STACK CFI 36420 .cfa: sp 32 +
STACK CFI 36428 .cfa: x29 32 + x19: .cfa -8 + ^ x20: .cfa -16 + ^ .ra: .cfa -24 + ^ x29: .cfa -32 + ^
STACK CFI INIT 3659c 120 .cfa: sp 0 +
STACK CFI 365a0 .cfa: sp 96 +
STACK CFI 365b0 .cfa: x29 48 + x19: .cfa -8 + ^ x20: .cfa -16 + ^ x21: .cfa -24 + ^ x22: .cfa -32 + ^ .ra: .cfa -40 + ^ x29: .cfa -48 + ^
STACK CFI 36678 .cfa: sp 96 +
STACK CFI 36688 .cfa: sp 0 +
STACK CFI 3668c .cfa: x29 48 +
STACK CFI INIT 366e4 374 .cfa: sp 0 +
STACK CFI 366e8 .cfa: sp 256 +
STACK CFI 366fc .cfa: x29 64 + x19: .cfa -8 + ^ x20: .cfa -16 + ^ x21: .cfa -24 + ^ x22: .cfa -32 + ^ x23: .cfa -48 + ^ .ra: .cfa -56 + ^ x29: .cfa -64 + ^
STACK CFI 3692c .cfa: sp 256 +
STACK CFI 36940 .cfa: sp 0 +
STACK CFI 36944 .cfa: x29 64 +
STACK CFI INIT 36a5c e4 .cfa: sp 0 +
STACK CFI 36a60 .cfa: sp 48 +
STACK CFI 36a6c .cfa: x29 32 + x19: .cfa -8 + ^ x20: .cfa -16 + ^ .ra: .cfa -24 + ^ x29: .cfa -32 + ^
STACK CFI 36b08 .cfa: sp 48 +
STACK CFI 36b14 .cfa: sp 0 +
STACK CFI 36b18 .cfa: x29 32 +
STACK CFI INIT 36b40 380 .cfa: sp 0 +
STACK CFI 36b44 .cfa: sp 256 +
STACK CFI 36b58 .cfa: x29 64 + x19: .cfa -8 + ^ x20: .cfa -16 + ^ x21: .cfa -24 + ^ x22: .cfa -32 + ^ x23: .cfa -48 + ^ .ra: .cfa -56 + ^ x29: .cfa -64 + ^
STACK CFI 36d94 .cfa: sp 256 +
STACK CFI 36da8 .cfa: sp 0 +
STACK CFI 36dac .cfa: x29 64 +
STACK CFI INIT 36ec4 3c4 .cfa: sp 0 +
STACK CFI 36ec8 .cfa: sp 80 +
STACK CFI 36edc .cfa: x29 80 + x19: .cfa -8 + ^ x20: .cfa -16 + ^ x21: .cfa -24 + ^ x22: .cfa -32 + ^ x23: .cfa -40 + ^ x24: .cfa -48 + ^ x25: .cfa -56 + ^ x28: .cfa -64 + ^ .ra: .cfa -72 + ^ x29: .cfa -80 + ^
STACK CFI 36f98 .cfa: sp 80 +
STACK CFI 36fac .cfa: sp 0 +
STACK CFI 36fb0 .cfa: x29 80 +
STACK CFI 371e0 .cfa: sp 80 +
STACK CFI 371f4 .cfa: sp 0 +
STACK CFI 371f8 .cfa: x29 80 +
STACK CFI INIT 37288 1c .cfa: sp 0 +
STACK CFI 3728c .cfa: sp 16 +
STACK CFI 37290 .cfa: x29 16 + .ra: .cfa -8 + ^ x29: .cfa -16 + ^
STACK CFI 37298 .cfa: sp 16 +
STACK CFI 3729c .cfa: sp 0 +
STACK CFI 372a0 .cfa: x29 16 +
STACK CFI INIT 372a4 2f4 .cfa: sp 0 +
STACK CFI 372a8 .cfa: sp 176 +
STACK CFI 372bc .cfa: x29 64 + x19: .cfa -8 + ^ x20: .cfa -16 + ^ x21: .cfa -24 + ^ x22: .cfa -32 + ^ x23: .cfa -48 + ^ .ra: .cfa -56 + ^ x29: .cfa -64 + ^
STACK CFI 37490 .cfa: sp 176 +
STACK CFI 374a4 .cfa: sp 0 +
STACK CFI 374a8 .cfa: x29 64 +
STACK CFI INIT 375c8 a8 .cfa: sp 0 +
STACK CFI 375cc .cfa: sp 32 +
STACK CFI 375d4 .cfa: x29 32 + x19: .cfa -16 + ^ .ra: .cfa -24 + ^ x29: .cfa -32 + ^
STACK CFI 37608 .cfa: sp 32 +
STACK CFI 37610 .cfa: sp 0 +
STACK CFI 37614 .cfa: x29 32 +
STACK CFI 37618 .cfa: sp 32 +
STACK CFI 37620 .cfa: sp 0 +
STACK CFI 37624 .cfa: x29 32 +
STACK CFI INIT 37748 fc .cfa: sp 0 +
STACK CFI 3774c .cfa: sp 96 +
STACK CFI 3775c .cfa: x29 48 + x19: .cfa -8 + ^ x20: .cfa -16 + ^ x21: .cfa -32 + ^ .ra: .cfa -40 + ^ x29: .cfa -48 + ^
STACK CFI 377d4 .cfa: sp 96 +
STACK CFI 377e4 .cfa: sp 0 +
STACK CFI 377e8 .cfa: x29 48 +
STACK CFI INIT 37844 134 .cfa: sp 0 +
STACK CFI 37848 .cfa: sp 80 +
STACK CFI 37854 .cfa: x29 32 + x19: .cfa -8 + ^ x20: .cfa -16 + ^ .ra: .cfa -24 + ^ x29: .cfa -32 + ^
STACK CFI 37884 .cfa: sp 80 +
STACK CFI 37890 .cfa: sp 0 +
STACK CFI 37894 .cfa: x29 32 +
STACK CFI INIT 37978 78 .cfa: sp 0 +
STACK CFI 3797c .cfa: sp 32 +
STACK CFI 37984 .cfa: x29 32 + x19: .cfa -8 + ^ x20: .cfa -16 + ^ .ra: .cfa -24 + ^ x29: .cfa -32 + ^
STACK CFI 37990 .cfa: sp 32 +
STACK CFI 37998 .cfa: sp 0 +
STACK CFI 3799c .cfa: x29 32 +
STACK CFI INIT 379f0 74 .cfa: sp 0 +
STACK CFI 379f4 .cfa: sp 48 +
STACK CFI 37a00 .cfa: x29 32 + x19: .cfa -8 + ^ x20: .cfa -16 + ^ .ra: .cfa -24 + ^ x29: .cfa -32 + ^
STACK CFI 37a4c .cfa: sp 48 +
STACK CFI 37a58 .cfa: sp 0 +
STACK CFI 37a5c .cfa: x29 32 +
STACK CFI INIT 37ac8 174 .cfa: sp 0 +
STACK CFI 37acc .cfa: sp 112 +
STACK CFI 37adc .cfa: x29 48 + x19: .cfa -8 + ^ x20: .cfa -16 + ^ x21: .cfa -32 + ^ .ra: .cfa -40 + ^ x29: .cfa -48 + ^
STACK CFI 37b28 .cfa: sp 112 +
STACK CFI 37b38 .cfa: sp 0 +
STACK CFI 37b3c .cfa: x29 48 +
STACK CFI INIT 37cd8 528 .cfa: sp 0 +
STACK CFI 37cdc .cfa: sp 112 +
STACK CFI 37cec .cfa: x29 48 + x19: .cfa -8 + ^ x20: .cfa -16 + ^ x21: .cfa -32 + ^ .ra: .cfa -40 + ^ x29: .cfa -48 + ^
STACK CFI 37e54 .cfa: sp 112 +
STACK CFI 37e64 .cfa: sp 0 +
STACK CFI 37e68 .cfa: x29 48 +
STACK CFI INIT 38200 24c .cfa: sp 0 +
STACK CFI 38204 .cfa: sp 128 +
STACK CFI 38218 .cfa: x29 64 + x19: .cfa -8 + ^ x20: .cfa -16 + ^ x21: .cfa -24 + ^ x22: .cfa -32 + ^ x23: .cfa -48 + ^ .ra: .cfa -56 + ^ x29: .cfa -64 + ^
STACK CFI 382e8 .cfa: sp 128 +
STACK CFI 382fc .cfa: sp 0 +
STACK CFI 38300 .cfa: x29 64 +
STACK CFI INIT 38548 1b8 .cfa: sp 0 +
STACK CFI 3854c .cfa: sp 160 +
STACK CFI 38568 .cfa: x29 72 + x19: .cfa -8 + ^ x20: .cfa -16 + ^ x21: .cfa -24 + ^ x22: .cfa -32 + ^ x23: .cfa -40 + ^ x24: .cfa -48 + ^ x25: .cfa -56 + ^ .ra: .cfa -64 + ^ x29: .cfa -72 + ^ v8: .cfa -80 + ^
STACK CFI 385ec .cfa: sp 160 +
STACK CFI 38608 .cfa: sp 0 +
STACK CFI 3860c .cfa: x29 72 +
STACK CFI INIT 38700 16c .cfa: sp 0 +
STACK CFI 38704 .cfa: sp 64 +
STACK CFI 38714 .cfa: x29 48 + x19: .cfa -8 + ^ x20: .cfa -16 + ^ x21: .cfa -24 + ^ x22: .cfa -32 + ^ .ra: .cfa -40 + ^ x29: .cfa -48 + ^
STACK CFI 3880c .cfa: sp 64 +
STACK CFI 3881c .cfa: sp 0 +
STACK CFI 38820 .cfa: x29 48 +
STACK CFI INIT 3886c 244 .cfa: sp 0 +
STACK CFI 38870 .cfa: sp 128 +
STACK CFI 38884 .cfa: x29 64 + x19: .cfa -8 + ^ x20: .cfa -16 + ^ x21: .cfa -24 + ^ x22: .cfa -32 + ^ x23: .cfa -48 + ^ .ra: .cfa -56 + ^ x29: .cfa -64 + ^
STACK CFI 3894c .cfa: sp 128 +
STACK CFI 38960 .cfa: sp 0 +
STACK CFI 38964 .cfa: x29 64 +
STACK CFI INIT 38ab0 254 .cfa: sp 0 +
STACK CFI 38ab4 .cfa: sp 128 +
STACK CFI 38ac8 .cfa: x29 64 + x19: .cfa -8 + ^ x20: .cfa -16 + ^ x21: .cfa -24 + ^ x22: .cfa -32 + ^ x23: .cfa -48 + ^ .ra: .cfa -56 + ^ x29: .cfa -64 + ^
STACK CFI 38ba0 .cfa: sp 128 +
STACK CFI 38bb4 .cfa: sp 0 +
STACK CFI 38bb8 .cfa: x29 64 +
STACK CFI INIT 38d04 2b4 .cfa: sp 0 +
STACK CFI 38d08 .cfa: sp 128 +
STACK CFI 38d1c .cfa: x29 64 + x19: .cfa -8 + ^ x20: .cfa -16 + ^ x21: .cfa -24 + ^ x22: .cfa -32 + ^ x23: .cfa -40 + ^ x24: .cfa -48 + ^ .ra: .cfa -56 + ^ x29: .cfa -64 + ^
STACK CFI 38e54 .cfa: sp 128 +
STACK CFI 38e68 .cfa: sp 0 +
STACK CFI 38e6c .cfa: x29 64 +
STACK CFI INIT 38fb8 224 .cfa: sp 0 +
STACK CFI 38fbc .cfa: sp 128 +
STACK CFI 38fd0 .cfa: x29 64 + x19: .cfa -8 + ^ x20: .cfa -16 + ^ x21: .cfa -24 + ^ x22: .cfa -32 + ^ x23: .cfa -48 + ^ .ra: .cfa -56 + ^ x29: .cfa -64 + ^
STACK CFI 39078 .cfa: sp 128 +
STACK CFI 3908c .cfa: sp 0 +
STACK CFI 39090 .cfa: x29 64 +
STACK CFI INIT 391dc 224 .cfa: sp 0 +
STACK CFI 391e0 .cfa: sp 128 +
STACK CFI 391f4 .cfa: x29 64 + x19: .cfa -8 + ^ x20: .cfa -16 + ^ x21: .cfa -24 + ^ x22: .cfa -32 + ^ x23: .cfa -48 + ^ .ra: .cfa -56 + ^ x29: .cfa -64 + ^
STACK CFI 3929c .cfa: sp 128 +
STACK CFI 392b0 .cfa: sp 0 +
STACK CFI 392b4 .cfa: x29 64 +
STACK CFI INIT 39400 154 .cfa: sp 0 +
STACK CFI 39404 .cfa: sp 384 +
STACK CFI 39418 .cfa: x29 64 + x19: .cfa -8 + ^ x20: .cfa -16 + ^ x21: .cfa -24 + ^ x22: .cfa -32 + ^ x23: .cfa -40 + ^ x28: .cfa -48 + ^ .ra: .cfa -56 + ^ x29: .cfa -64 + ^
STACK CFI 394fc .cfa: sp 384 +
STACK CFI 39510 .cfa: sp 0 +
STACK CFI 39514 .cfa: x29 64 +
STACK CFI INIT 39554 168 .cfa: sp 0 +
STACK CFI 39558 .cfa: sp 384 +
STACK CFI 3956c .cfa: x29 64 + x19: .cfa -8 + ^ x20: .cfa -16 + ^ x21: .cfa -24 + ^ x22: .cfa -32 + ^ x23: .cfa -40 + ^ x28: .cfa -48 + ^ .ra: .cfa -56 + ^ x29: .cfa -64 + ^
STACK CFI 39664 .cfa: sp 384 +
STACK CFI 39678 .cfa: sp 0 +
STACK CFI 3967c .cfa: x29 64 +
STACK CFI INIT 396d4 4e0 .cfa: sp 0 +
STACK CFI 396d8 .cfa: sp 64 +
STACK CFI 396e8 .cfa: x29 64 + x19: .cfa -8 + ^ x20: .cfa -16 + ^ x21: .cfa -24 + ^ x22: .cfa -32 + ^ x23: .cfa -40 + ^ x24: .cfa -48 + ^ .ra: .cfa -56 + ^ x29: .cfa -64 + ^
STACK CFI 39b88 .cfa: sp 64 +
STACK CFI 39b98 .cfa: sp 0 +
STACK CFI 39b9c .cfa: x29 64 +
STACK CFI INIT 39edc 294 .cfa: sp 0 +
STACK CFI 39ee0 .cfa: sp 240 +
STACK CFI 39ef8 .cfa: x29 80 + x19: .cfa -8 + ^ x20: .cfa -16 + ^ x21: .cfa -24 + ^ x22: .cfa -32 + ^ x23: .cfa -40 + ^ x24: .cfa -48 + ^ x25: .cfa -64 + ^ .ra: .cfa -72 + ^ x29: .cfa -80 + ^
STACK CFI 3a098 .cfa: sp 240 +
STACK CFI 3a0b0 .cfa: sp 0 +
STACK CFI 3a0b4 .cfa: x29 80 +
STACK CFI INIT 3a1ec 50 .cfa: sp 0 +
STACK CFI 3a1f0 .cfa: sp 32 +
STACK CFI 3a1f8 .cfa: x29 32 + x19: .cfa -8 + ^ x20: .cfa -16 + ^ .ra: .cfa -24 + ^ x29: .cfa -32 + ^
STACK CFI INIT 3a23c 7c0 .cfa: sp 0 +
STACK CFI 3a240 .cfa: sp 320 +
STACK CFI 3a25c .cfa: x29 96 + x19: .cfa -8 + ^ x20: .cfa -16 + ^ x21: .cfa -24 + ^ x22: .cfa -32 + ^ x23: .cfa -40 + ^ x24: .cfa -48 + ^ x25: .cfa -56 + ^ x26: .cfa -64 + ^ x27: .cfa -72 + ^ x28: .cfa -80 + ^ .ra: .cfa -88 + ^ x29: .cfa -96 + ^
STACK CFI 3a8ac .cfa: sp 320 +
STACK CFI 3a8c8 .cfa: sp 0 +
STACK CFI 3a8cc .cfa: x29 96 +
STACK CFI INIT 3e57c c84 .cfa: sp 0 +
STACK CFI 3e580 .cfa: sp 96 +
STACK CFI 3e598 .cfa: x29 96 + x19: .cfa -8 + ^ x20: .cfa -16 + ^ x21: .cfa -24 + ^ x22: .cfa -32 + ^ x23: .cfa -40 + ^ x24: .cfa -48 + ^ x25: .cfa -56 + ^ x26: .cfa -64 + ^ x27: .cfa -72 + ^ x28: .cfa -80 + ^ .ra: .cfa -88 + ^ x29: .cfa -96 + ^
STACK CFI 3f020 .cfa: sp 96 +
STACK CFI 3f038 .cfa: sp 0 +
STACK CFI 3f03c .cfa: x29 96 +
STACK CFI INIT 3f354 26c .cfa: sp 0 +
STACK CFI 3f358 .cfa: sp 128 +
STACK CFI 3f368 .cfa: x29 48 + x19: .cfa -8 + ^ x20: .cfa -16 + ^ x21: .cfa -24 + ^ x22: .cfa -32 + ^ .ra: .cfa -40 + ^ x29: .cfa -48 + ^
STACK CFI 3f50c .cfa: sp 128 +
STACK CFI 3f51c .cfa: sp 0 +
STACK CFI 3f520 .cfa: x29 48 +
STACK CFI INIT 3f950 3b8 .cfa: sp 0 +
STACK CFI 3f954 .cfa: sp 96 +
STACK CFI 3f96c .cfa: x29 96 + x19: .cfa -8 + ^ x20: .cfa -16 + ^ x21: .cfa -24 + ^ x22: .cfa -32 + ^ x23: .cfa -40 + ^ x24: .cfa -48 + ^ x25: .cfa -56 + ^ x26: .cfa -64 + ^ x27: .cfa -72 + ^ x28: .cfa -80 + ^ .ra: .cfa -88 + ^ x29: .cfa -96 + ^
STACK CFI 3fca8 .cfa: sp 96 +
STACK CFI 3fcc0 .cfa: sp 0 +
STACK CFI 3fcc4 .cfa: x29 96 +
STACK CFI INIT 3fda8 cc0 .cfa: sp 0 +
STACK CFI 3fdac .cfa: sp 96 +
STACK CFI 3fdc4 .cfa: x29 96 + x19: .cfa -8 + ^ x20: .cfa -16 + ^ x21: .cfa -24 + ^ x22: .cfa -32 + ^ x23: .cfa -40 + ^ x24: .cfa -48 + ^ x25: .cfa -56 + ^ x26: .cfa -64 + ^ x27: .cfa -72 + ^ x28: .cfa -80 + ^ .ra: .cfa -88 + ^ x29: .cfa -96 + ^
STACK CFI 40878 .cfa: sp 96 +
STACK CFI 40890 .cfa: sp 0 +
STACK CFI 40894 .cfa: x29 96 +
STACK CFI INIT 40d50 af8 .cfa: sp 0 +
STACK CFI 40d54 .cfa: sp 96 +
STACK CFI 40d6c .cfa: x29 96 + x19: .cfa -8 + ^ x20: .cfa -16 + ^ x21: .cfa -24 + ^ x22: .cfa -32 + ^ x23: .cfa -40 + ^ x24: .cfa -48 + ^ x25: .cfa -56 + ^ x26: .cfa -64 + ^ x27: .cfa -72 + ^ x28: .cfa -80 + ^ .ra: .cfa -88 + ^ x29: .cfa -96 + ^
STACK CFI 417bc .cfa: sp 96 +
STACK CFI 417d4 .cfa: sp 0 +
STACK CFI 417d8 .cfa: x29 96 +
STACK CFI INIT 41a3c 1430 .cfa: sp 0 +
STACK CFI 41a40 .cfa: sp 96 +
STACK CFI 41a58 .cfa: x29 96 + x19: .cfa -8 + ^ x20: .cfa -16 + ^ x21: .cfa -24 + ^ x22: .cfa -32 + ^ x23: .cfa -40 + ^ x24: .cfa -48 + ^ x25: .cfa -56 + ^ x26: .cfa -64 + ^ x27: .cfa -72 + ^ x28: .cfa -80 + ^ .ra: .cfa -88 + ^ x29: .cfa -96 + ^
STACK CFI 42cf4 .cfa: sp 96 +
STACK CFI 42d0c .cfa: sp 0 +
STACK CFI 42d10 .cfa: x29 96 +
STACK CFI INIT 42f90 75c .cfa: sp 0 +
STACK CFI 42f94 .cfa: sp 368 +
STACK CFI 42fb0 .cfa: x29 96 + x19: .cfa -8 + ^ x20: .cfa -16 + ^ x21: .cfa -24 + ^ x22: .cfa -32 + ^ x23: .cfa -40 + ^ x24: .cfa -48 + ^ x25: .cfa -56 + ^ x26: .cfa -64 + ^ x27: .cfa -72 + ^ x28: .cfa -80 + ^ .ra: .cfa -88 + ^ x29: .cfa -96 + ^
STACK CFI 43064 .cfa: sp 368 +
STACK CFI 43080 .cfa: sp 0 +
STACK CFI 43084 .cfa: x29 96 +
STACK CFI 430d8 .cfa: sp 368 +
STACK CFI 430f4 .cfa: sp 0 +
STACK CFI 430f8 .cfa: x29 96 +
STACK CFI INIT 43aac ee0 .cfa: sp 0 +
STACK CFI 43ab0 .cfa: sp 96 +
STACK CFI 43ac8 .cfa: x29 96 + x19: .cfa -8 + ^ x20: .cfa -16 + ^ x21: .cfa -24 + ^ x22: .cfa -32 + ^ x23: .cfa -40 + ^ x24: .cfa -48 + ^ x25: .cfa -56 + ^ x26: .cfa -64 + ^ x27: .cfa -72 + ^ x28: .cfa -80 + ^ .ra: .cfa -88 + ^ x29: .cfa -96 + ^
STACK CFI 44784 .cfa: sp 96 +
STACK CFI 4479c .cfa: sp 0 +
STACK CFI 447a0 .cfa: x29 96 +
STACK CFI INIT 44d00 14b4 .cfa: sp 0 +
STACK CFI 44d04 .cfa: sp 112 +
STACK CFI 44d20 .cfa: x29 96 + x19: .cfa -8 + ^ x20: .cfa -16 + ^ x21: .cfa -24 + ^ x22: .cfa -32 + ^ x23: .cfa -40 + ^ x24: .cfa -48 + ^ x25: .cfa -56 + ^ x26: .cfa -64 + ^ x27: .cfa -72 + ^ x28: .cfa -80 + ^ .ra: .cfa -88 + ^ x29: .cfa -96 + ^ v8: .cfa -112 + ^
STACK CFI 45100 .cfa: sp 112 +
STACK CFI 4511c .cfa: sp 0 +
STACK CFI 45120 .cfa: x29 96 +
STACK CFI INIT 485c4 9a0 .cfa: sp 0 +
STACK CFI 485c8 .cfa: sp 144 +
STACK CFI 485e0 .cfa: x29 80 + x19: .cfa -8 + ^ x20: .cfa -16 + ^ x21: .cfa -24 + ^ x22: .cfa -32 + ^ x23: .cfa -40 + ^ x24: .cfa -48 + ^ x25: .cfa -64 + ^ .ra: .cfa -72 + ^ x29: .cfa -80 + ^
STACK CFI 48ee0 .cfa: sp 144 +
STACK CFI 48ef8 .cfa: sp 0 +
STACK CFI 48efc .cfa: x29 80 +
STACK CFI INIT 48f64 57c .cfa: sp 0 +
STACK CFI 48f68 .cfa: sp 96 +
STACK CFI 48f80 .cfa: x29 96 + x19: .cfa -8 + ^ x20: .cfa -16 + ^ x21: .cfa -24 + ^ x22: .cfa -32 + ^ x23: .cfa -40 + ^ x24: .cfa -48 + ^ x25: .cfa -56 + ^ x26: .cfa -64 + ^ x27: .cfa -72 + ^ x28: .cfa -80 + ^ .ra: .cfa -88 + ^ x29: .cfa -96 + ^
STACK CFI 49444 .cfa: sp 96 +
STACK CFI 4945c .cfa: sp 0 +
STACK CFI 49460 .cfa: x29 96 +
STACK CFI INIT 494e0 67c .cfa: sp 0 +
STACK CFI 494e4 .cfa: sp 96 +
STACK CFI 494fc .cfa: x29 96 + x19: .cfa -8 + ^ x20: .cfa -16 + ^ x21: .cfa -24 + ^ x22: .cfa -32 + ^ x23: .cfa -40 + ^ x24: .cfa -48 + ^ x25: .cfa -56 + ^ x26: .cfa -64 + ^ x27: .cfa -72 + ^ x28: .cfa -80 + ^ .ra: .cfa -88 + ^ x29: .cfa -96 + ^
STACK CFI 49ac0 .cfa: sp 96 +
STACK CFI 49ad8 .cfa: sp 0 +
STACK CFI 49adc .cfa: x29 96 +
