MODULE Linux arm64 CF34388D972F942064D73204D881D7600 anatom3000.functional.android64.so
INFO CODE_ID 8D3834CF2F97209464D73204D881D7601F1D2279
INFO GENERATOR mozilla/dump_syms 2.3.4
PUBLIC 213c0 0 __on_dlclose
PUBLIC 213d0 0 __emutls_unregister_key
PUBLIC 213d8 0 __on_dlclose_late
PUBLIC 213e0 0 __atexit_handler_wrapper
PUBLIC 213f4 0 atexit
PUBLIC 21410 0 pthread_atfork
PUBLIC 21420 0 __aarch64_ldadd8_relax
PUBLIC 21450 0 init_have_lse_atomics
PUBLIC 214e8 0 __init_cpu_features_constructor
PUBLIC 21a84 0 __init_cpu_features
PUBLIC 21b10 0 __aarch64_ldadd8_acq_rel
PUBLIC 21b40 0 std::__ndk1::operator==[abi:ne180000]<char, std::__ndk1::char_traits<char>, std::__ndk1::allocator<char> >(std::__ndk1::basic_string<char, std::__ndk1::char_traits<char>, std::__ndk1::allocator<char> > const&, std::__ndk1::basic_string const*)
PUBLIC 21bc0 0 std::__ndk1::vector<Token, std::__ndk1::allocator<Token> >::~vector[abi:ne180000]()
PUBLIC 21c48 0 parse_sum(std::__ndk1::vector<Token, std::__ndk1::allocator<Token> >&, unsigned long&)
PUBLIC 2258c 0 parse_product(std::__ndk1::vector<Token, std::__ndk1::allocator<Token> >&, unsigned long&)
PUBLIC 22ed0 0 Expr::operator=(Expr&&)
PUBLIC 22fbc 0 std::__ndk1::variant<Expr, std::__ndk1::basic_string<char, std::__ndk1::char_traits<char>, std::__ndk1::allocator<char> > >::~variant[abi:ne180000]()
PUBLIC 23030 0 Expr::~Expr()
PUBLIC 230c0 0 parse_pow(std::__ndk1::vector<Token, std::__ndk1::allocator<Token> >&, unsigned long&)
PUBLIC 236d8 0 parse_primary(std::__ndk1::vector<Token, std::__ndk1::allocator<Token> >&, unsigned long&)
PUBLIC 24640 0 std::__ndk1::vector<Expr, std::__ndk1::allocator<Expr> >::push_back[abi:ne180000](Expr&&)
PUBLIC 248a0 0 std::__ndk1::vector<Expr, std::__ndk1::allocator<Expr> >::~vector[abi:ne180000]()
PUBLIC 24908 0 std::__ndk1::__optional_destruct_base<ToolConfig, false>::~__optional_destruct_base[abi:ne180000]()
PUBLIC 24918 0 __cxx_global_var_init.6
PUBLIC 254ec 0 geode::modifier::ModifyBase<geode::modifier::ModifyDerive<FuncToolEditorUI, EditorUI> >::~ModifyBase()
PUBLIC 25504 0 __clang_call_terminate
PUBLIC 25514 0 std::__ndk1::basic_string<char, std::__ndk1::char_traits<char>, std::__ndk1::allocator<char> >::__throw_length_error[abi:ne180000]() const
PUBLIC 25528 0 std::__ndk1::__throw_length_error[abi:ne180000](char const*)
PUBLIC 25578 0 std::length_error::length_error[abi:ne180000](char const*)
PUBLIC 255a8 0 std::__throw_bad_array_new_length([abi:ne180000], void)
PUBLIC 255dc 0 std::__ndk1::__split_buffer<Token, std::__ndk1::allocator<Token>&>::~__split_buffer()
PUBLIC 25644 0 std::__ndk1::vector<Token, std::__ndk1::allocator<Token> >::__throw_length_error[abi:ne180000]() const
PUBLIC 25658 0 std::__ndk1::__throw_bad_variant_access[abi:ne180000]()
PUBLIC 2568c 0 std::__ndk1::unique_ptr<Expr, std::__ndk1::default_delete<Expr> >::reset[abi:ne180000](Expr*)
PUBLIC 2572c 0 _ZNSt6__ndk112__destroy_atB8ne180000I4ExprTnNS_9enable_ifIXntsr8is_arrayIT_EE5valueEiE4typeELi0EEEvPS3_
PUBLIC 257bc 0 std::__ndk1::__variant_detail::__visitation::__base::__dispatcher<(unsigned long)0>::__dispatch[abi:ne180000]<std::__ndk1::__variant_detail::__dtor<std::__ndk1::__variant_detail::__traits<Expr, std::__ndk1::basic_string<char, std::__ndk1::char_traits<char>, std::__ndk1::allocator<char> > >, (std::__ndk1::__variant_detail::_Trait)1>::__destroy[abi:ne180000]()::{lambda(auto:1&)#1}, std::__ndk1::__variant_detail::__base<(std::__ndk1::__variant_detail::__traits<Expr, std::__ndk1::basic_string<char, std::__ndk1::char_traits<char>, std::__ndk1::allocator<char> > >)1, std::__ndk1::__variant_detail::__traits, std::__ndk1::allocator<char> >&>(std::__ndk1::__variant_detail::__dtor<std::__ndk1::__variant_detail::__traits<Expr, std::__ndk1::basic_string<char, std::__ndk1::char_traits<char>, std::__ndk1::allocator<char> > >, (std::__ndk1::__variant_detail::_Trait)1>, std::__ndk1::__variant_detail::__base<(std::__ndk1::__variant_detail::__traits<Expr, std::__ndk1::basic_string<char, std::__ndk1::char_traits<char>, std::__ndk1::allocator<char> > >)1, std::__ndk1::__variant_detail::__traits, std::__ndk1::allocator<char> >&)
PUBLIC 2584c 0 std::__ndk1::__variant_detail::__visitation::__base::__dispatcher<(unsigned long)1>::__dispatch[abi:ne180000]<std::__ndk1::__variant_detail::__dtor<std::__ndk1::__variant_detail::__traits<Expr, std::__ndk1::basic_string<char, std::__ndk1::char_traits<char>, std::__ndk1::allocator<char> > >, (std::__ndk1::__variant_detail::_Trait)1>::__destroy[abi:ne180000]()::{lambda(auto:1&)#1}, std::__ndk1::__variant_detail::__base<(std::__ndk1::__variant_detail::__traits<Expr, std::__ndk1::basic_string<char, std::__ndk1::char_traits<char>, std::__ndk1::allocator<char> > >)1, std::__ndk1::__variant_detail::__traits, std::__ndk1::allocator<char> >&>(std::__ndk1::__variant_detail::__dtor<std::__ndk1::__variant_detail::__traits<Expr, std::__ndk1::basic_string<char, std::__ndk1::char_traits<char>, std::__ndk1::allocator<char> > >, (std::__ndk1::__variant_detail::_Trait)1>, std::__ndk1::__variant_detail::__base<(std::__ndk1::__variant_detail::__traits<Expr, std::__ndk1::basic_string<char, std::__ndk1::char_traits<char>, std::__ndk1::allocator<char> > >)1, std::__ndk1::__variant_detail::__traits, std::__ndk1::allocator<char> >&)
PUBLIC 25860 0 std::__ndk1::basic_string<char, std::__ndk1::char_traits<char>, std::__ndk1::allocator<char> >::__init_copy_ctor_external(char const*, unsigned long)
PUBLIC 258e0 0 std::__ndk1::vector<Expr, std::__ndk1::allocator<Expr> >::__throw_length_error[abi:ne180000]() const
PUBLIC 258f4 0 ToolConfig::~ToolConfig()
PUBLIC 25a78 0 geode::modifier::ModifyDerive<FuncToolEditorUI, EditorUI>::apply()
PUBLIC 25eb4 0 std::__ndk1::shared_ptr<geode::Hook>::~shared_ptr[abi:ne180000]()
PUBLIC 25f04 0 geode::impl::ResultData<geode::Hook*, std::__ndk1::basic_string<char, std::__ndk1::char_traits<char>, std::__ndk1::allocator<char> > >::~ResultData()
PUBLIC 25f78 0 std::__ndk1::vector<std::__ndk1::basic_string<char, std::__ndk1::char_traits<char>, std::__ndk1::allocator<char> >, std::__ndk1::allocator<std::__ndk1::basic_string<char, std::__ndk1::char_traits<char>, std::__ndk1::allocator<char> > > >::~vector[abi:ne180000]()
PUBLIC 25ff4 0 geode::modifier::ModifyBase<geode::modifier::ModifyDerive<FuncToolEditorUI, EditorUI> >::apply()
PUBLIC 25ff8 0 _ZN5geode15UnwrapExceptionC2IRPNS_4HookEQsr4implE18IsStringStreamableIT_EEENS_4impl5OkTagEOS5_
PUBLIC 2614c 0 std::__ndk1::basic_stringstream<char, std::__ndk1::char_traits<char>, std::__ndk1::allocator<char> >::basic_stringstream[abi:ne180000]()
PUBLIC m 26278 0 std::__ndk1::basic_stringstream<char, std::__ndk1::char_traits<char>, std::__ndk1::allocator<char> >::~basic_stringstream()
PUBLIC 262f8 0 geode::UnwrapException::~UnwrapException()
PUBLIC 2631c 0 std::__ndk1::__put_character_sequence[abi:ne180000]<char, std::__ndk1::char_traits<char> >(std::__ndk1::basic_ostream<char, std::__ndk1::char_traits<char> >, std::__ndk1::basic_ostream const*, unsigned long)
PUBLIC 264c0 0 std::__ndk1::__pad_and_output[abi:ne180000]<char, std::__ndk1::char_traits<char> >(std::__ndk1::char_traits<char>, std::__ndk1::ostreambuf_iterator const*, std::__ndk1::ostreambuf_iterator const, std::__ndk1::ostreambuf_iterator const, std::__ndk1::ios_base&, std::__ndk1::ostreambuf_iterator)
PUBLIC 2669c 0 std::__ndk1::basic_stringbuf<char, std::__ndk1::char_traits<char>, std::__ndk1::allocator<char> >::str[abi:ne180000]() &&
PUBLIC 26814 0 std::__ndk1::basic_stringbuf<char, std::__ndk1::char_traits<char>, std::__ndk1::allocator<char> >::__init_buf_ptrs[abi:ne180000]()
PUBLIC 2695c 0 std::__ndk1::__split_buffer<std::__ndk1::basic_string<char, std::__ndk1::char_traits<char>, std::__ndk1::allocator<char> >, std::__ndk1::allocator<std::__ndk1::basic_string<char, std::__ndk1::char_traits<char>, std::__ndk1::allocator<char> > >&>::~__split_buffer()
PUBLIC 269c4 0 std::__ndk1::vector<std::__ndk1::basic_string<char, std::__ndk1::char_traits<char>, std::__ndk1::allocator<char> >, std::__ndk1::allocator<std::__ndk1::basic_string<char, std::__ndk1::char_traits<char>, std::__ndk1::allocator<char> > > >::__throw_length_error[abi:ne180000]() const
PUBLIC 269d8 0 std::__ndk1::__variant_detail::__visitation::__base::__dispatcher<(unsigned long)0>::__dispatch[abi:ne180000]<std::__ndk1::__variant_detail::__dtor<std::__ndk1::__variant_detail::__traits<geode::Hook*, std::__ndk1::basic_string<char, std::__ndk1::char_traits<char>, std::__ndk1::allocator<char> > >, (std::__ndk1::__variant_detail::_Trait)1>::__destroy[abi:ne180000]()::{lambda(auto:1&)#1}, std::__ndk1::__variant_detail::__base<(std::__ndk1::__variant_detail::__traits<geode::Hook*, std::__ndk1::basic_string<char, std::__ndk1::char_traits<char>, std::__ndk1::allocator<char> > >)1, geode::Hook, std::__ndk1::allocator<char> >&>(std::__ndk1::__variant_detail::__dtor<std::__ndk1::__variant_detail::__traits<geode::Hook*, std::__ndk1::basic_string<char, std::__ndk1::char_traits<char>, std::__ndk1::allocator<char> > >, (std::__ndk1::__variant_detail::_Trait)1>, std::__ndk1::__variant_detail::__base<(std::__ndk1::__variant_detail::__traits<geode::Hook*, std::__ndk1::basic_string<char, std::__ndk1::char_traits<char>, std::__ndk1::allocator<char> > >)1, geode::Hook, std::__ndk1::allocator<char> >&)
PUBLIC 269dc 0 std::__ndk1::__variant_detail::__visitation::__base::__dispatcher<(unsigned long)1>::__dispatch[abi:ne180000]<std::__ndk1::__variant_detail::__dtor<std::__ndk1::__variant_detail::__traits<geode::Hook*, std::__ndk1::basic_string<char, std::__ndk1::char_traits<char>, std::__ndk1::allocator<char> > >, (std::__ndk1::__variant_detail::_Trait)1>::__destroy[abi:ne180000]()::{lambda(auto:1&)#1}, std::__ndk1::__variant_detail::__base<(std::__ndk1::__variant_detail::__traits<geode::Hook*, std::__ndk1::basic_string<char, std::__ndk1::char_traits<char>, std::__ndk1::allocator<char> > >)1, geode::Hook, std::__ndk1::allocator<char> >&>(std::__ndk1::__variant_detail::__dtor<std::__ndk1::__variant_detail::__traits<geode::Hook*, std::__ndk1::basic_string<char, std::__ndk1::char_traits<char>, std::__ndk1::allocator<char> > >, (std::__ndk1::__variant_detail::_Trait)1>, std::__ndk1::__variant_detail::__base<(std::__ndk1::__variant_detail::__traits<geode::Hook*, std::__ndk1::basic_string<char, std::__ndk1::char_traits<char>, std::__ndk1::allocator<char> > >)1, geode::Hook, std::__ndk1::allocator<char> >&)
PUBLIC 269f0 0 std::__ndk1::__tree<std::__ndk1::__value_type<std::__ndk1::basic_string<char, std::__ndk1::char_traits<char>, std::__ndk1::allocator<char> >, std::__ndk1::shared_ptr<geode::Hook> >, std::__ndk1::__map_value_compare<std::__ndk1::basic_string<char, std::__ndk1::char_traits<char>, std::__ndk1::allocator<char> >, std::__ndk1::__value_type<std::__ndk1::basic_string<char, std::__ndk1::char_traits<char>, std::__ndk1::allocator<char> >, std::__ndk1::shared_ptr<geode::Hook> >, std::__ndk1::less<std::__ndk1::basic_string<char, std::__ndk1::char_traits<char>, std::__ndk1::allocator<char> > >, true>, std::__ndk1::allocator<std::__ndk1::__value_type<std::__ndk1::basic_string<char, std::__ndk1::char_traits<char>, std::__ndk1::allocator<char> >, std::__ndk1::shared_ptr<geode::Hook> > > >::destroy(std::__ndk1::__tree_node<std::__ndk1::__value_type<std::__ndk1::basic_string<char, std::__ndk1::char_traits<char>, std::__ndk1::allocator<char> >, std::__ndk1::shared_ptr<geode::Hook> >, void*>*)
PUBLIC 26a74 0 geode::modifier::AsStaticFunction_createMoveMenu<FuncToolEditorUI, void (FuncToolEditorUI::*)()>::Impl<void (FuncToolEditorUI::*)()>::function(FuncToolEditorUI*)
PUBLIC 26b48 0 std::__ndk1::shared_ptr<tulip::hook::CallingConvention>::~shared_ptr[abi:ne180000]()
PUBLIC 26b98 0 tulip::hook::HandlerMetadata::~HandlerMetadata()
PUBLIC 26bfc 0 FuncToolEditorUI::on_function_tool(cocos2d::CCObject*)
PUBLIC 26e40 0 cocos2d::CCCopying::copyWithZone(cocos2d::CCZone*)
PUBLIC 26e48 0 FunctionToolPopup::~FunctionToolPopup()
PUBLIC 26fac 0 FunctionToolPopup::~FunctionToolPopup()
PUBLIC 26fd0 0 geode::Popup<>::registerWithTouchDispatcher()
PUBLIC 26ffc 0 geode::Popup<>::keyDown(cocos2d::enumKeyCodes)
PUBLIC 27024 0 cocos2d::CCLayerRGBA::setOpacityModifyRGB(bool)
PUBLIC 27028 0 cocos2d::CCLayerRGBA::isOpacityModifyRGB()
PUBLIC 27030 0 FunctionToolPopup::setup()
PUBLIC 27c58 0 FunctionToolPopup::onClose(cocos2d::CCObject*)
PUBLIC 27f30 0 {virtual override thunk({offset(-320)}, FunctionToolPopup::~FunctionToolPopup())}
PUBLIC 27f38 0 {virtual override thunk({offset(-320)}, FunctionToolPopup::~FunctionToolPopup())}
PUBLIC 27f60 0 {virtual override thunk({offset(-344)}, geode::Popup<>::keyDown(cocos2d::enumKeyCodes))}
PUBLIC 27f8c 0 cocos2d::CCKeyboardDelegate::keyUp(cocos2d::enumKeyCodes)
PUBLIC 27f90 0 cocos2d::CCMouseDelegate::rightKeyDown()
PUBLIC 27f94 0 cocos2d::CCMouseDelegate::rightKeyUp()
PUBLIC 27f98 0 cocos2d::CCMouseDelegate::scrollWheel(float, float)
PUBLIC 27f9c 0 {virtual override thunk({offset(-408)}, cocos2d::CCLayerRGBA::setOpacityModifyRGB(bool))}
PUBLIC 27fa0 0 {virtual override thunk({offset(-408)}, cocos2d::CCLayerRGBA::isOpacityModifyRGB())}
PUBLIC 27fa8 0 geode::Popup<>::~Popup()
PUBLIC 27fac 0 geode::Popup<>::onClose(cocos2d::CCObject*)
PUBLIC 280f4 0 {virtual override thunk({offset(-320)}, geode::Popup<>::~Popup())}
PUBLIC 28160 0 {virtual override thunk({offset(-320)}, geode::Popup<>::~Popup())}
PUBLIC 28164 0 geode::Popup<>::CloseEvent::~CloseEvent()
PUBLIC 281c4 0 geode::Popup<>::CloseEvent::~CloseEvent()
PUBLIC 28234 0 std::__ndk1::__shared_ptr_emplace<geode::Popup<>::CloseEvent::Impl, std::__ndk1::allocator<geode::Popup<>::CloseEvent::Impl> >::~__shared_ptr_emplace()
PUBLIC 28244 0 std::__ndk1::__shared_ptr_emplace<geode::Popup<>::CloseEvent::Impl, std::__ndk1::allocator<geode::Popup<>::CloseEvent::Impl> >::~__shared_ptr_emplace()
PUBLIC 28274 0 std::__ndk1::__shared_ptr_emplace<geode::Popup<>::CloseEvent::Impl, std::__ndk1::allocator<geode::Popup<>::CloseEvent::Impl> >::__on_zero_shared()
PUBLIC 28278 0 std::__ndk1::__shared_ptr_emplace<geode::Popup<>::CloseEvent::Impl, std::__ndk1::allocator<geode::Popup<>::CloseEvent::Impl> >::__on_zero_shared_weak()
PUBLIC 2827c 0 geode::Popup<>::setTitle(std::__ndk1::basic_string<char, std::__ndk1::char_traits<char>, std::__ndk1::allocator<char> > const&, char const*, float, float)
PUBLIC 283cc 0 FunctionToolPopup::onApply(cocos2d::CCObject*)
PUBLIC 28414 0 FunctionToolPopup::onSettings(cocos2d::CCObject*)
PUBLIC 285e8 0 FunctionToolPopup::onScale(cocos2d::CCObject*)
PUBLIC 28780 0 FunctionToolPopup::onHsv(cocos2d::CCObject*)
PUBLIC 28958 0 FunctionToolPopup::onHistory(cocos2d::CCObject*)
PUBLIC 28ae4 0 FunctionToolPopup::onAdd(cocos2d::CCObject*)
PUBLIC 28c5c 0 FunctionToolPopup::onPaste(cocos2d::CCObject*)
PUBLIC 28f3c 0 FunctionToolPopup::onBubble(cocos2d::CCObject*)
PUBLIC 2910c 0 FunctionToolPopup::onPin(cocos2d::CCObject*)
PUBLIC 2937c 0 FunctionToolPopup::setLockSprite()
PUBLIC 294d8 0 geode::Mod::getSavedValue<bool>(std::__ndk1::basic_string_view<char, std::__ndk1::char_traits<char> >, bool const&)
PUBLIC 296bc 0 FunctionToolPopup::loadConfig(ToolConfig)
PUBLIC 29abc 0 ToolConfig::ToolConfig(ToolConfig const&)
PUBLIC 29fc8 0 FunctionToolPopup::perform()
PUBLIC 2c374 0 FunctionToolPopup::parse_input(std::__ndk1::basic_string<char, std::__ndk1::char_traits<char>, std::__ndk1::allocator<char> >, char const*, Expr)
PUBLIC 2d18c 0 std::__ndk1::__optional_destruct_base<Expr, false>::~__optional_destruct_base[abi:ne180000]()
PUBLIC 2d224 0 std::__ndk1::basic_string<char, std::__ndk1::char_traits<char>, std::__ndk1::allocator<char> >::erase[abi:ne180000](std::__ndk1::__wrap_iter<char const*>, char const*)
PUBLIC 2d28c 0 FunctionToolPopup::centerOf(cocos2d::CCArray*)
PUBLIC 2d378 0 Expr::interpret(InterpreterConfig)
PUBLIC 2dbdc 0 std::__ndk1::variant<std::__ndk1::vector<Token, std::__ndk1::allocator<Token> >, unsigned long>::~variant[abi:ne180000]()
PUBLIC 2dc50 0 std::__ndk1::__exception_guard_exceptions<std::__ndk1::vector<Token, std::__ndk1::allocator<Token> >::__destroy_vector>::~__exception_guard_exceptions[abi:ne180000]()
PUBLIC 2dce8 0 std::__ndk1::__exception_guard_exceptions<std::__ndk1::_AllocatorDestroyRangeReverse<std::__ndk1::allocator<Token>, Token*> >::~__exception_guard_exceptions[abi:ne180000]()
PUBLIC 2dd3c 0 std::__ndk1::__variant_detail::__visitation::__base::__dispatcher<(unsigned long)0>::__dispatch[abi:ne180000]<std::__ndk1::__variant_detail::__dtor<std::__ndk1::__variant_detail::__traits<std::__ndk1::vector<Token, std::__ndk1::allocator<std::__ndk1::vector> >, unsigned long>, (std::__ndk1::__variant_detail::_Trait)1>::__destroy[abi:ne180000]()::{lambda(auto:1&)#1}, std::__ndk1::__variant_detail::__base<(std::__ndk1::__variant_detail::__traits<std::__ndk1::vector<Token, std::__ndk1::allocator<std::__ndk1::vector> >, unsigned long>)1, std::__ndk1::allocator<std::__ndk1::vector>, unsigned long>&>(std::__ndk1::__variant_detail::__dtor<std::__ndk1::__variant_detail::__traits<std::__ndk1::vector<Token, std::__ndk1::allocator<std::__ndk1::vector> >, unsigned long>, (std::__ndk1::__variant_detail::_Trait)1>, std::__ndk1::__variant_detail::__base<(std::__ndk1::__variant_detail::__traits<std::__ndk1::vector<Token, std::__ndk1::allocator<std::__ndk1::vector> >, unsigned long>)1, std::__ndk1::allocator<std::__ndk1::vector>, unsigned long>&)
PUBLIC 2ddc4 0 std::__ndk1::__variant_detail::__visitation::__base::__dispatcher<(unsigned long)1>::__dispatch[abi:ne180000]<std::__ndk1::__variant_detail::__dtor<std::__ndk1::__variant_detail::__traits<std::__ndk1::vector<Token, std::__ndk1::allocator<std::__ndk1::vector> >, unsigned long>, (std::__ndk1::__variant_detail::_Trait)1>::__destroy[abi:ne180000]()::{lambda(auto:1&)#1}, std::__ndk1::__variant_detail::__base<(std::__ndk1::__variant_detail::__traits<std::__ndk1::vector<Token, std::__ndk1::allocator<std::__ndk1::vector> >, unsigned long>)1, std::__ndk1::allocator<std::__ndk1::vector>, unsigned long>&>(std::__ndk1::__variant_detail::__dtor<std::__ndk1::__variant_detail::__traits<std::__ndk1::vector<Token, std::__ndk1::allocator<std::__ndk1::vector> >, unsigned long>, (std::__ndk1::__variant_detail::_Trait)1>, std::__ndk1::__variant_detail::__base<(std::__ndk1::__variant_detail::__traits<std::__ndk1::vector<Token, std::__ndk1::allocator<std::__ndk1::vector> >, unsigned long>)1, std::__ndk1::allocator<std::__ndk1::vector>, unsigned long>&)
PUBLIC 2ddc8 0 std::__ndk1::basic_string<char, std::__ndk1::char_traits<char>, std::__ndk1::allocator<char> >::__throw_out_of_range[abi:ne180000]() const
PUBLIC 2ddd4 0 std::__ndk1::basic_string<char, std::__ndk1::char_traits<char>, std::__ndk1::allocator<char> >::__erase_external_with_move(unsigned long, unsigned long)
PUBLIC 2de5c 0 std::__ndk1::__throw_out_of_range[abi:ne180000](char const*)
PUBLIC 2deac 0 std::out_of_range::out_of_range[abi:ne180000](char const*)
PUBLIC 2dedc 0 FunctionToolPopup::SettingsPopup::~SettingsPopup()
PUBLIC 2df94 0 FunctionToolPopup::SettingsPopup::~SettingsPopup()
PUBLIC 2e054 0 FunctionToolPopup::SettingsPopup::setup()
PUBLIC 2edc4 0 FunctionToolPopup::SettingsPopup::onClose(cocos2d::CCObject*)
PUBLIC 2ee04 0 {virtual override thunk({offset(-320)}, FunctionToolPopup::SettingsPopup::~SettingsPopup())}
PUBLIC 2eec0 0 {virtual override thunk({offset(-320)}, FunctionToolPopup::SettingsPopup::~SettingsPopup())}
PUBLIC 2ef84 0 FunctionToolPopup::SettingsPopup::bubbleCallback(cocos2d::CCObject*)
PUBLIC 2f084 0 std::__ndk1::vector<CCMenuItemToggler*, std::__ndk1::allocator<CCMenuItemToggler*> >::__throw_length_error[abi:ne180000]() const
PUBLIC 2f098 0 FunctionToolPopup::ScalePopup::~ScalePopup()
PUBLIC 2f10c 0 FunctionToolPopup::ScalePopup::setup()
PUBLIC 2f4b0 0 FunctionToolPopup::ScalePopup::onClose(cocos2d::CCObject*)
PUBLIC 2f56c 0 {virtual override thunk({offset(-320)}, FunctionToolPopup::ScalePopup::~ScalePopup())}
PUBLIC 2f5d8 0 {virtual override thunk({offset(-320)}, FunctionToolPopup::ScalePopup::~ScalePopup())}
PUBLIC 2f64c 0 FunctionToolPopup::HsvPopup::~HsvPopup()
PUBLIC 2f6c0 0 FunctionToolPopup::HsvPopup::setup()
PUBLIC 2fe5c 0 FunctionToolPopup::HsvPopup::onClose(cocos2d::CCObject*)
PUBLIC 2ffe8 0 {virtual override thunk({offset(-320)}, FunctionToolPopup::HsvPopup::~HsvPopup())}
PUBLIC 30054 0 {virtual override thunk({offset(-320)}, FunctionToolPopup::HsvPopup::~HsvPopup())}
PUBLIC 300c8 0 FunctionToolPopup::HistoryPopup::~HistoryPopup()
PUBLIC 301b0 0 FunctionToolPopup::HistoryPopup::~HistoryPopup()
PUBLIC 302a0 0 FunctionToolPopup::HistoryPopup::setup()
PUBLIC 30a64 0 FunctionToolPopup::HistoryPopup::onClose(cocos2d::CCObject*)
PUBLIC 30b18 0 {virtual override thunk({offset(-320)}, FunctionToolPopup::HistoryPopup::~HistoryPopup())}
PUBLIC 30c04 0 {virtual override thunk({offset(-320)}, FunctionToolPopup::HistoryPopup::~HistoryPopup())}
PUBLIC 30c0c 0 std::__ndk1::vector<ToolConfig, std::__ndk1::allocator<ToolConfig> >::~vector[abi:ne180000]()
PUBLIC 30c74 0 geode::Mod::getSavedValue<std::__ndk1::vector<ToolConfig, std::__ndk1::allocator<ToolConfig> > >(std::__ndk1::basic_string_view<char, std::__ndk1::char_traits<char> >, std::__ndk1::vector<ToolConfig, std::__ndk1::allocator<ToolConfig> > const&)
PUBLIC 30ee4 0 FunctionToolPopup::HistoryPopup::refreshEntries(bool)
PUBLIC 329f0 0 geode::impl::ResultData<matjson::Value&, std::__ndk1::basic_string<char, std::__ndk1::char_traits<char>, std::__ndk1::allocator<char> > >::~ResultData()
PUBLIC 32a64 0 geode::impl::ResultData<std::__ndk1::vector<ToolConfig, std::__ndk1::allocator<ToolConfig> >, std::__ndk1::basic_string<char, std::__ndk1::char_traits<char>, std::__ndk1::allocator<char> > >::~ResultData()
PUBLIC 32ad8 0 _ZN7matjson9SerializeINSt6__ndk16vectorI10ToolConfigNS1_9allocatorIS3_EEEEE8fromJsonERKNS_5ValueEQrQSA__Xcldtfp_2asIT_EEE
PUBLIC 33560 0 geode::impl::ResultData<ToolConfig, std::__ndk1::basic_string<char, std::__ndk1::char_traits<char>, std::__ndk1::allocator<char> > >::~ResultData()
PUBLIC 335d4 0 std::__ndk1::vector<ToolConfig, std::__ndk1::allocator<ToolConfig> >::__throw_length_error[abi:ne180000]() const
PUBLIC 335e8 0 std::__ndk1::__split_buffer<ToolConfig, std::__ndk1::allocator<ToolConfig>&>::~__split_buffer()
PUBLIC 3363c 0 matjson::Serialize<ToolConfig>::fromJson(matjson::Value const&)
PUBLIC 34688 0 geode::impl::ResultData<std::__ndk1::basic_string<char, std::__ndk1::char_traits<char>, std::__ndk1::allocator<char> >, std::__ndk1::basic_string<char, std::__ndk1::char_traits<char>, std::__ndk1::allocator<char> > >::unwrapErr() &&
PUBLIC 34700 0 geode::impl::ResultData<std::__ndk1::basic_string<char, std::__ndk1::char_traits<char>, std::__ndk1::allocator<char> >, std::__ndk1::basic_string<char, std::__ndk1::char_traits<char>, std::__ndk1::allocator<char> > >::unwrap() &&
PUBLIC 34778 0 geode::impl::ResultData<std::__ndk1::basic_string<char, std::__ndk1::char_traits<char>, std::__ndk1::allocator<char> >, std::__ndk1::basic_string<char, std::__ndk1::char_traits<char>, std::__ndk1::allocator<char> > >::~ResultData()
PUBLIC 347ec 0 geode::impl::ResultData<bool, std::__ndk1::basic_string<char, std::__ndk1::char_traits<char>, std::__ndk1::allocator<char> > >::unwrapErr() &&
PUBLIC 34864 0 geode::impl::ResultData<bool, std::__ndk1::basic_string<char, std::__ndk1::char_traits<char>, std::__ndk1::allocator<char> > >::unwrap() &&
PUBLIC 348dc 0 geode::impl::ResultData<bool, std::__ndk1::basic_string<char, std::__ndk1::char_traits<char>, std::__ndk1::allocator<char> > >::~ResultData()
PUBLIC 34950 0 _ZN5geode15UnwrapExceptionC2IRNSt6__ndk112basic_stringIcNS2_11char_traitsIcEENS2_9allocatorIcEEEEQsr4implE18IsStringStreamableIT_EEENS_4impl5OkTagEOSA_
PUBLIC 34ab8 0 _ZN5geode15UnwrapExceptionC2IRNSt6__ndk112basic_stringIcNS2_11char_traitsIcEENS2_9allocatorIcEEEEQsr4implE18IsStringStreamableIT_EEENS_4impl6ErrTagEOSA_
PUBLIC 34c20 0 std::__ndk1::__variant_detail::__visitation::__base::__dispatcher<(unsigned long)0>::__dispatch[abi:ne180000]<std::__ndk1::__variant_detail::__dtor<std::__ndk1::__variant_detail::__traits<std::__ndk1::basic_string<char, std::__ndk1::char_traits<char>, std::__ndk1::allocator<char> >, std::__ndk1::allocator<char> >, (std::__ndk1::__variant_detail::_Trait)1>::__destroy[abi:ne180000]()::{lambda(auto:1&)#1}, std::__ndk1::__variant_detail::__base<(std::__ndk1::__variant_detail::__traits<std::__ndk1::basic_string<char, std::__ndk1::char_traits<char>, std::__ndk1::allocator<char> >, std::__ndk1::allocator<char> >)1, std::__ndk1::allocator<char>, std::__ndk1::allocator<char> >&>(std::__ndk1::__variant_detail::__dtor<std::__ndk1::__variant_detail::__traits<std::__ndk1::basic_string<char, std::__ndk1::char_traits<char>, std::__ndk1::allocator<char> >, std::__ndk1::allocator<char> >, (std::__ndk1::__variant_detail::_Trait)1>, std::__ndk1::__variant_detail::__base<(std::__ndk1::__variant_detail::__traits<std::__ndk1::basic_string<char, std::__ndk1::char_traits<char>, std::__ndk1::allocator<char> >, std::__ndk1::allocator<char> >)1, std::__ndk1::allocator<char>, std::__ndk1::allocator<char> >&)
PUBLIC 34c34 0 std::__ndk1::__variant_detail::__visitation::__base::__dispatcher<(unsigned long)1>::__dispatch[abi:ne180000]<std::__ndk1::__variant_detail::__dtor<std::__ndk1::__variant_detail::__traits<std::__ndk1::basic_string<char, std::__ndk1::char_traits<char>, std::__ndk1::allocator<char> >, std::__ndk1::allocator<char> >, (std::__ndk1::__variant_detail::_Trait)1>::__destroy[abi:ne180000]()::{lambda(auto:1&)#1}, std::__ndk1::__variant_detail::__base<(std::__ndk1::__variant_detail::__traits<std::__ndk1::basic_string<char, std::__ndk1::char_traits<char>, std::__ndk1::allocator<char> >, std::__ndk1::allocator<char> >)1, std::__ndk1::allocator<char>, std::__ndk1::allocator<char> >&>(std::__ndk1::__variant_detail::__dtor<std::__ndk1::__variant_detail::__traits<std::__ndk1::basic_string<char, std::__ndk1::char_traits<char>, std::__ndk1::allocator<char> >, std::__ndk1::allocator<char> >, (std::__ndk1::__variant_detail::_Trait)1>, std::__ndk1::__variant_detail::__base<(std::__ndk1::__variant_detail::__traits<std::__ndk1::basic_string<char, std::__ndk1::char_traits<char>, std::__ndk1::allocator<char> >, std::__ndk1::allocator<char> >)1, std::__ndk1::allocator<char>, std::__ndk1::allocator<char> >&)
PUBLIC 34c48 0 _ZN5geode15UnwrapExceptionC2IRbQsr4implE18IsStringStreamableIT_EEENS_4impl5OkTagEOS3_
PUBLIC 34d9c 0 std::__ndk1::__variant_detail::__visitation::__base::__dispatcher<(unsigned long)0>::__dispatch[abi:ne180000]<std::__ndk1::__variant_detail::__dtor<std::__ndk1::__variant_detail::__traits<bool, std::__ndk1::basic_string<char, std::__ndk1::char_traits<char>, std::__ndk1::allocator<char> > >, (std::__ndk1::__variant_detail::_Trait)1>::__destroy[abi:ne180000]()::{lambda(auto:1&)#1}, std::__ndk1::__variant_detail::__base<(std::__ndk1::__variant_detail::__traits<bool, std::__ndk1::basic_string<char, std::__ndk1::char_traits<char>, std::__ndk1::allocator<char> > >)1, bool, std::__ndk1::allocator<char> >&>(std::__ndk1::__variant_detail::__dtor<std::__ndk1::__variant_detail::__traits<bool, std::__ndk1::basic_string<char, std::__ndk1::char_traits<char>, std::__ndk1::allocator<char> > >, (std::__ndk1::__variant_detail::_Trait)1>, std::__ndk1::__variant_detail::__base<(std::__ndk1::__variant_detail::__traits<bool, std::__ndk1::basic_string<char, std::__ndk1::char_traits<char>, std::__ndk1::allocator<char> > >)1, bool, std::__ndk1::allocator<char> >&)
PUBLIC 34da0 0 std::__ndk1::__variant_detail::__visitation::__base::__dispatcher<(unsigned long)1>::__dispatch[abi:ne180000]<std::__ndk1::__variant_detail::__dtor<std::__ndk1::__variant_detail::__traits<bool, std::__ndk1::basic_string<char, std::__ndk1::char_traits<char>, std::__ndk1::allocator<char> > >, (std::__ndk1::__variant_detail::_Trait)1>::__destroy[abi:ne180000]()::{lambda(auto:1&)#1}, std::__ndk1::__variant_detail::__base<(std::__ndk1::__variant_detail::__traits<bool, std::__ndk1::basic_string<char, std::__ndk1::char_traits<char>, std::__ndk1::allocator<char> > >)1, bool, std::__ndk1::allocator<char> >&>(std::__ndk1::__variant_detail::__dtor<std::__ndk1::__variant_detail::__traits<bool, std::__ndk1::basic_string<char, std::__ndk1::char_traits<char>, std::__ndk1::allocator<char> > >, (std::__ndk1::__variant_detail::_Trait)1>, std::__ndk1::__variant_detail::__base<(std::__ndk1::__variant_detail::__traits<bool, std::__ndk1::basic_string<char, std::__ndk1::char_traits<char>, std::__ndk1::allocator<char> > >)1, bool, std::__ndk1::allocator<char> >&)
PUBLIC 34db4 0 std::__ndk1::__variant_detail::__visitation::__base::__dispatcher<(unsigned long)0>::__dispatch[abi:ne180000]<std::__ndk1::__variant_detail::__dtor<std::__ndk1::__variant_detail::__traits<ToolConfig, std::__ndk1::basic_string<char, std::__ndk1::char_traits<char>, std::__ndk1::allocator<char> > >, (std::__ndk1::__variant_detail::_Trait)1>::__destroy[abi:ne180000]()::{lambda(auto:1&)#1}, std::__ndk1::__variant_detail::__base<(std::__ndk1::__variant_detail::__traits<ToolConfig, std::__ndk1::basic_string<char, std::__ndk1::char_traits<char>, std::__ndk1::allocator<char> > >)1, std::__ndk1::__variant_detail::__traits, std::__ndk1::allocator<char> >&>(std::__ndk1::__variant_detail::__dtor<std::__ndk1::__variant_detail::__traits<ToolConfig, std::__ndk1::basic_string<char, std::__ndk1::char_traits<char>, std::__ndk1::allocator<char> > >, (std::__ndk1::__variant_detail::_Trait)1>, std::__ndk1::__variant_detail::__base<(std::__ndk1::__variant_detail::__traits<ToolConfig, std::__ndk1::basic_string<char, std::__ndk1::char_traits<char>, std::__ndk1::allocator<char> > >)1, std::__ndk1::__variant_detail::__traits, std::__ndk1::allocator<char> >&)
PUBLIC 34dbc 0 std::__ndk1::__variant_detail::__visitation::__base::__dispatcher<(unsigned long)1>::__dispatch[abi:ne180000]<std::__ndk1::__variant_detail::__dtor<std::__ndk1::__variant_detail::__traits<ToolConfig, std::__ndk1::basic_string<char, std::__ndk1::char_traits<char>, std::__ndk1::allocator<char> > >, (std::__ndk1::__variant_detail::_Trait)1>::__destroy[abi:ne180000]()::{lambda(auto:1&)#1}, std::__ndk1::__variant_detail::__base<(std::__ndk1::__variant_detail::__traits<ToolConfig, std::__ndk1::basic_string<char, std::__ndk1::char_traits<char>, std::__ndk1::allocator<char> > >)1, std::__ndk1::__variant_detail::__traits, std::__ndk1::allocator<char> >&>(std::__ndk1::__variant_detail::__dtor<std::__ndk1::__variant_detail::__traits<ToolConfig, std::__ndk1::basic_string<char, std::__ndk1::char_traits<char>, std::__ndk1::allocator<char> > >, (std::__ndk1::__variant_detail::_Trait)1>, std::__ndk1::__variant_detail::__base<(std::__ndk1::__variant_detail::__traits<ToolConfig, std::__ndk1::basic_string<char, std::__ndk1::char_traits<char>, std::__ndk1::allocator<char> > >)1, std::__ndk1::__variant_detail::__traits, std::__ndk1::allocator<char> >&)
PUBLIC 34dd0 0 std::__ndk1::__variant_detail::__visitation::__base::__dispatcher<(unsigned long)0>::__dispatch[abi:ne180000]<std::__ndk1::__variant_detail::__dtor<std::__ndk1::__variant_detail::__traits<std::__ndk1::reference_wrapper<matjson::Value>, std::__ndk1::basic_string<char, std::__ndk1::char_traits<char>, std::__ndk1::allocator<char> > >, (std::__ndk1::__variant_detail::_Trait)1>::__destroy[abi:ne180000]()::{lambda(auto:1&)#1}, std::__ndk1::__variant_detail::__base<(std::__ndk1::__variant_detail::__traits<std::__ndk1::reference_wrapper<matjson::Value>, std::__ndk1::basic_string<char, std::__ndk1::char_traits<char>, std::__ndk1::allocator<char> > >)1, matjson::Value, std::__ndk1::allocator<char> >&>(std::__ndk1::__variant_detail::__dtor<std::__ndk1::__variant_detail::__traits<std::__ndk1::reference_wrapper<matjson::Value>, std::__ndk1::basic_string<char, std::__ndk1::char_traits<char>, std::__ndk1::allocator<char> > >, (std::__ndk1::__variant_detail::_Trait)1>, std::__ndk1::__variant_detail::__base<(std::__ndk1::__variant_detail::__traits<std::__ndk1::reference_wrapper<matjson::Value>, std::__ndk1::basic_string<char, std::__ndk1::char_traits<char>, std::__ndk1::allocator<char> > >)1, matjson::Value, std::__ndk1::allocator<char> >&)
PUBLIC 34dd4 0 std::__ndk1::__variant_detail::__visitation::__base::__dispatcher<(unsigned long)1>::__dispatch[abi:ne180000]<std::__ndk1::__variant_detail::__dtor<std::__ndk1::__variant_detail::__traits<std::__ndk1::reference_wrapper<matjson::Value>, std::__ndk1::basic_string<char, std::__ndk1::char_traits<char>, std::__ndk1::allocator<char> > >, (std::__ndk1::__variant_detail::_Trait)1>::__destroy[abi:ne180000]()::{lambda(auto:1&)#1}, std::__ndk1::__variant_detail::__base<(std::__ndk1::__variant_detail::__traits<std::__ndk1::reference_wrapper<matjson::Value>, std::__ndk1::basic_string<char, std::__ndk1::char_traits<char>, std::__ndk1::allocator<char> > >)1, matjson::Value, std::__ndk1::allocator<char> >&>(std::__ndk1::__variant_detail::__dtor<std::__ndk1::__variant_detail::__traits<std::__ndk1::reference_wrapper<matjson::Value>, std::__ndk1::basic_string<char, std::__ndk1::char_traits<char>, std::__ndk1::allocator<char> > >, (std::__ndk1::__variant_detail::_Trait)1>, std::__ndk1::__variant_detail::__base<(std::__ndk1::__variant_detail::__traits<std::__ndk1::reference_wrapper<matjson::Value>, std::__ndk1::basic_string<char, std::__ndk1::char_traits<char>, std::__ndk1::allocator<char> > >)1, matjson::Value, std::__ndk1::allocator<char> >&)
PUBLIC 34de8 0 std::__ndk1::vector<ToolConfig, std::__ndk1::allocator<ToolConfig> >::__init_with_size[abi:ne180000]<ToolConfig*, std::__ndk1::vector<ToolConfig, std::__ndk1::allocator<ToolConfig> >::__init_with_size[abi:ne180000]>(ToolConfig*, std::__ndk1::vector<ToolConfig, std::__ndk1::allocator<ToolConfig> >::__init_with_size[abi:ne180000], unsigned long)
PUBLIC 34f18 0 std::__ndk1::__exception_guard_exceptions<std::__ndk1::vector<ToolConfig, std::__ndk1::allocator<ToolConfig> >::__destroy_vector>::~__exception_guard_exceptions[abi:ne180000]()
PUBLIC 34f94 0 std::__ndk1::__variant_detail::__visitation::__base::__dispatcher<(unsigned long)0>::__dispatch[abi:ne180000]<std::__ndk1::__variant_detail::__dtor<std::__ndk1::__variant_detail::__traits<std::__ndk1::vector<ToolConfig, std::__ndk1::allocator<std::__ndk1::vector> >, std::__ndk1::basic_string<char, std::__ndk1::char_traits<char>, ToolConfig<char> > >, (std::__ndk1::__variant_detail::_Trait)1>::__destroy[abi:ne180000]()::{lambda(auto:1&)#1}, std::__ndk1::__variant_detail::__base<(std::__ndk1::__variant_detail::__traits<std::__ndk1::vector<ToolConfig, std::__ndk1::allocator<std::__ndk1::vector> >, std::__ndk1::basic_string<char, std::__ndk1::char_traits<char>, ToolConfig<char> > >)1, std::__ndk1::allocator<std::__ndk1::vector>, ToolConfig<char> >&>(std::__ndk1::__variant_detail::__dtor<std::__ndk1::__variant_detail::__traits<std::__ndk1::vector<ToolConfig, std::__ndk1::allocator<std::__ndk1::vector> >, std::__ndk1::basic_string<char, std::__ndk1::char_traits<char>, ToolConfig<char> > >, (std::__ndk1::__variant_detail::_Trait)1>, std::__ndk1::__variant_detail::__base<(std::__ndk1::__variant_detail::__traits<std::__ndk1::vector<ToolConfig, std::__ndk1::allocator<std::__ndk1::vector> >, std::__ndk1::basic_string<char, std::__ndk1::char_traits<char>, ToolConfig<char> > >)1, std::__ndk1::allocator<std::__ndk1::vector>, ToolConfig<char> >&)
PUBLIC 34ffc 0 std::__ndk1::__variant_detail::__visitation::__base::__dispatcher<(unsigned long)1>::__dispatch[abi:ne180000]<std::__ndk1::__variant_detail::__dtor<std::__ndk1::__variant_detail::__traits<std::__ndk1::vector<ToolConfig, std::__ndk1::allocator<std::__ndk1::vector> >, std::__ndk1::basic_string<char, std::__ndk1::char_traits<char>, ToolConfig<char> > >, (std::__ndk1::__variant_detail::_Trait)1>::__destroy[abi:ne180000]()::{lambda(auto:1&)#1}, std::__ndk1::__variant_detail::__base<(std::__ndk1::__variant_detail::__traits<std::__ndk1::vector<ToolConfig, std::__ndk1::allocator<std::__ndk1::vector> >, std::__ndk1::basic_string<char, std::__ndk1::char_traits<char>, ToolConfig<char> > >)1, std::__ndk1::allocator<std::__ndk1::vector>, ToolConfig<char> >&>(std::__ndk1::__variant_detail::__dtor<std::__ndk1::__variant_detail::__traits<std::__ndk1::vector<ToolConfig, std::__ndk1::allocator<std::__ndk1::vector> >, std::__ndk1::basic_string<char, std::__ndk1::char_traits<char>, ToolConfig<char> > >, (std::__ndk1::__variant_detail::_Trait)1>, std::__ndk1::__variant_detail::__base<(std::__ndk1::__variant_detail::__traits<std::__ndk1::vector<ToolConfig, std::__ndk1::allocator<std::__ndk1::vector> >, std::__ndk1::basic_string<char, std::__ndk1::char_traits<char>, ToolConfig<char> > >)1, std::__ndk1::allocator<std::__ndk1::vector>, ToolConfig<char> >&)
PUBLIC 35010 0 _ZN7matjson9SerializeINSt6__ndk16vectorI10ToolConfigNS1_9allocatorIS3_EEEEE6toJsonERKS6_QrQRKT__XcvNS_5ValueEfp_E
PUBLIC 35348 0 std::__ndk1::vector<matjson::Value, std::__ndk1::allocator<matjson::Value> >::~vector[abi:ne180000]()
PUBLIC 353b0 0 std::__ndk1::vector<matjson::Value, std::__ndk1::allocator<matjson::Value> >::__throw_length_error[abi:ne180000]() const
PUBLIC 353c4 0 matjson::Serialize<ToolConfig>::toJson(ToolConfig const&)
PUBLIC 35de4 0 FunctionToolPopup::ConfigCell::~ConfigCell()
PUBLIC 35e48 0 FunctionToolPopup::ConfigCell::~ConfigCell()
PUBLIC 35eb4 0 FunctionToolPopup::ConfigCell::draw()
PUBLIC 35f74 0 {virtual override thunk({offset(-320)}, FunctionToolPopup::ConfigCell::~ConfigCell())}
PUBLIC 35fd8 0 {virtual override thunk({offset(-320)}, FunctionToolPopup::ConfigCell::~ConfigCell())}
PUBLIC 36044 0 FunctionToolPopup::ConfigCell::onUse(cocos2d::CCObject*)
PUBLIC 360ec 0 FunctionToolPopup::ConfigCell::onCopy(cocos2d::CCObject*)
PUBLIC 36274 0 FunctionToolPopup::ConfigCell::onDelete(cocos2d::CCObject*)
PUBLIC 3631c 0 std::__ndk1::basic_string<char, std::__ndk1::char_traits<char>, std::__ndk1::allocator<char> >::__assign_no_alias<true>(char const*, unsigned long)
PUBLIC 363c8 0 std::__ndk1::basic_string<char, std::__ndk1::char_traits<char>, std::__ndk1::allocator<char> >::__assign_no_alias<false>(char const*, unsigned long)
PUBLIC 364d8 0 ToolConfig::operator=(ToolConfig&&)
PUBLIC 36768 0 geode::Mod::setSavedValue<std::__ndk1::vector<ToolConfig, std::__ndk1::allocator<ToolConfig> > >(std::__ndk1::basic_string_view<char, std::__ndk1::char_traits<char> >, std::__ndk1::vector<ToolConfig, std::__ndk1::allocator<ToolConfig> > const&)
PUBLIC 369d4 0 geode::Popup<>::~Popup()
PUBLIC 36a40 0 FunctionToolPopup::AddPopup::~AddPopup()
PUBLIC 36ab4 0 FunctionToolPopup::AddPopup::setup()
PUBLIC 36d40 0 FunctionToolPopup::AddPopup::onClose(cocos2d::CCObject*)
PUBLIC 36d44 0 {virtual override thunk({offset(-320)}, FunctionToolPopup::AddPopup::~AddPopup())}
PUBLIC 36db0 0 {virtual override thunk({offset(-320)}, FunctionToolPopup::AddPopup::~AddPopup())}
PUBLIC 36e24 0 FunctionToolPopup::AddPopup::onCreate(cocos2d::CCObject*)
PUBLIC 37e30 0 FunctionToolPopup::saveConfig(std::__ndk1::basic_string<char, std::__ndk1::char_traits<char>, std::__ndk1::allocator<char> >)
PUBLIC 38294 0 geode::impl::ResultData<matjson::Value, matjson::ParseError>::~ResultData()
PUBLIC 38308 0 std::__ndk1::__variant_detail::__visitation::__base::__dispatcher<(unsigned long)0>::__dispatch[abi:ne180000]<std::__ndk1::__variant_detail::__dtor<std::__ndk1::__variant_detail::__traits<matjson::Value, std::__ndk1::__variant_detail::__traits::ParseError>, (std::__ndk1::__variant_detail::_Trait)1>::__destroy[abi:ne180000]()::{lambda(auto:1&)#1}, std::__ndk1::__variant_detail::__base<(std::__ndk1::__variant_detail::__traits<matjson::Value, std::__ndk1::__variant_detail::__traits::ParseError>)1, matjson, matjson::Value>&>(std::__ndk1::__variant_detail::__dtor<std::__ndk1::__variant_detail::__traits<matjson::Value, std::__ndk1::__variant_detail::__traits::ParseError>, (std::__ndk1::__variant_detail::_Trait)1>, std::__ndk1::__variant_detail::__base<(std::__ndk1::__variant_detail::__traits<matjson::Value, std::__ndk1::__variant_detail::__traits::ParseError>)1, matjson, matjson::Value>&)
PUBLIC 38310 0 std::__ndk1::__variant_detail::__visitation::__base::__dispatcher<(unsigned long)1>::__dispatch[abi:ne180000]<std::__ndk1::__variant_detail::__dtor<std::__ndk1::__variant_detail::__traits<matjson::Value, std::__ndk1::__variant_detail::__traits::ParseError>, (std::__ndk1::__variant_detail::_Trait)1>::__destroy[abi:ne180000]()::{lambda(auto:1&)#1}, std::__ndk1::__variant_detail::__base<(std::__ndk1::__variant_detail::__traits<matjson::Value, std::__ndk1::__variant_detail::__traits::ParseError>)1, matjson, matjson::Value>&>(std::__ndk1::__variant_detail::__dtor<std::__ndk1::__variant_detail::__traits<matjson::Value, std::__ndk1::__variant_detail::__traits::ParseError>, (std::__ndk1::__variant_detail::_Trait)1>, std::__ndk1::__variant_detail::__base<(std::__ndk1::__variant_detail::__traits<matjson::Value, std::__ndk1::__variant_detail::__traits::ParseError>)1, matjson, matjson::Value>&)
PUBLIC 38324 0 std::__ndk1::__variant_detail::__visitation::__base::__dispatcher<(unsigned long)0>::__dispatch[abi:ne180000]<std::__ndk1::__variant_detail::__dtor<std::__ndk1::__variant_detail::__traits<std::__ndk1::monostate, std::__ndk1::basic_string<char, std::__ndk1::char_traits<char>, std::__ndk1::allocator<char> > >, (std::__ndk1::__variant_detail::_Trait)1>::__destroy[abi:ne180000]()::{lambda(auto:1&)#1}, std::__ndk1::__variant_detail::__base<(std::__ndk1::__variant_detail::__traits<std::__ndk1::monostate, std::__ndk1::basic_string<char, std::__ndk1::char_traits<char>, std::__ndk1::allocator<char> > >)1, std::__ndk1::__variant_detail::__traits, std::__ndk1::allocator<char> >&>(std::__ndk1::__variant_detail::__dtor<std::__ndk1::__variant_detail::__traits<std::__ndk1::monostate, std::__ndk1::basic_string<char, std::__ndk1::char_traits<char>, std::__ndk1::allocator<char> > >, (std::__ndk1::__variant_detail::_Trait)1>, std::__ndk1::__variant_detail::__base<(std::__ndk1::__variant_detail::__traits<std::__ndk1::monostate, std::__ndk1::basic_string<char, std::__ndk1::char_traits<char>, std::__ndk1::allocator<char> > >)1, std::__ndk1::__variant_detail::__traits, std::__ndk1::allocator<char> >&)
PUBLIC 38328 0 std::__ndk1::__variant_detail::__visitation::__base::__dispatcher<(unsigned long)1>::__dispatch[abi:ne180000]<std::__ndk1::__variant_detail::__dtor<std::__ndk1::__variant_detail::__traits<std::__ndk1::monostate, std::__ndk1::basic_string<char, std::__ndk1::char_traits<char>, std::__ndk1::allocator<char> > >, (std::__ndk1::__variant_detail::_Trait)1>::__destroy[abi:ne180000]()::{lambda(auto:1&)#1}, std::__ndk1::__variant_detail::__base<(std::__ndk1::__variant_detail::__traits<std::__ndk1::monostate, std::__ndk1::basic_string<char, std::__ndk1::char_traits<char>, std::__ndk1::allocator<char> > >)1, std::__ndk1::__variant_detail::__traits, std::__ndk1::allocator<char> >&>(std::__ndk1::__variant_detail::__dtor<std::__ndk1::__variant_detail::__traits<std::__ndk1::monostate, std::__ndk1::basic_string<char, std::__ndk1::char_traits<char>, std::__ndk1::allocator<char> > >, (std::__ndk1::__variant_detail::_Trait)1>, std::__ndk1::__variant_detail::__base<(std::__ndk1::__variant_detail::__traits<std::__ndk1::monostate, std::__ndk1::basic_string<char, std::__ndk1::char_traits<char>, std::__ndk1::allocator<char> > >)1, std::__ndk1::__variant_detail::__traits, std::__ndk1::allocator<char> >&)
PUBLIC 3833c 0 geode::Popup<>::initBase(float, float, char const*, cocos2d::CCRect, bool)
PUBLIC 385d4 0 std::__ndk1::__tree_balance_after_insert[abi:ne180000]<std::__ndk1::__tree_node_base<void*>*>(std::__ndk1::__tree_node_base<void*>*, std::__ndk1::__tree_node_base<void*>*)
PUBLIC 38784 0 _GLOBAL__sub_I_main.cpp
PUBLIC m 387a0 0 geodeImplicitEntry
PUBLIC 387dc 0 std::__ndk1::unordered_map<void*, bool, std::__ndk1::hash<void*>, std::__ndk1::equal_to<void*>, std::__ndk1::allocator<std::__ndk1::pair<void* const, bool> > >::~unordered_map[abi:ne180000]()
PUBLIC 38828 0 wrapFunction(unsigned long, tulip::hook::WrapperMetadata const&)
PUBLIC 3895c 0 geode::impl::ResultData<void*, std::__ndk1::basic_string<char, std::__ndk1::char_traits<char>, std::__ndk1::allocator<char> > >::unwrapErr() &
PUBLIC 389d4 0 geode::impl::ResultData<void*, std::__ndk1::basic_string<char, std::__ndk1::char_traits<char>, std::__ndk1::allocator<char> > >::~ResultData()
PUBLIC 38a48 0 tulip::hook::WrapperMetadata::~WrapperMetadata()
PUBLIC 38aac 0 cocos2d::CCObject::CCObject()
PUBLIC 38cb4 0 cocos2d::CCObject::~CCObject()
PUBLIC 38cd8 0 cocos2d::CCNode::~CCNode()
PUBLIC 38cfc 0 {virtual override thunk({offset(-320)}, cocos2d::CCLayer::~CCLayer())}
PUBLIC 38d04 0 cocos2d::CCLayer::~CCLayer()
PUBLIC 38d28 0 {virtual override thunk({offset(-320)}, cocos2d::CCLayer::~CCLayer())}
PUBLIC 38d50 0 cocos2d::CCLayerRGBA::~CCLayerRGBA()
PUBLIC 39028 0 {virtual override thunk({offset(-320)}, cocos2d::CCLayerRGBA::~CCLayerRGBA())}
PUBLIC 39030 0 cocos2d::CCLayerRGBA::~CCLayerRGBA()
PUBLIC 39054 0 {virtual override thunk({offset(-320)}, cocos2d::CCLayerRGBA::~CCLayerRGBA())}
PUBLIC 3907c 0 cocos2d::CCLayerColor::CCLayerColor()
PUBLIC 392cc 0 {virtual override thunk({offset(-320)}, cocos2d::CCLayerColor::~CCLayerColor())}
PUBLIC 392d4 0 cocos2d::CCLayerColor::~CCLayerColor()
PUBLIC 392f8 0 {virtual override thunk({offset(-320)}, cocos2d::CCLayerColor::~CCLayerColor())}
PUBLIC 39320 0 {virtual override thunk({offset(-320)}, FLAlertLayer::~FLAlertLayer())}
PUBLIC 39328 0 FLAlertLayer::~FLAlertLayer()
PUBLIC 3934c 0 {virtual override thunk({offset(-320)}, FLAlertLayer::~FLAlertLayer())}
PUBLIC 39374 0 FLAlertLayer::create(FLAlertLayerProtocol*, char const*, gd::string, char const*, char const*, float)
PUBLIC 3952c 0 tulip::hook::AbstractFunction::from<FLAlertLayer*, FLAlertLayerProtocol*, char const*, gd::string, char const*, char const*, float>(FLAlertLayer* (*)(FLAlertLayerProtocol*, char const*, gd::string, char const*, char const*, float))
PUBLIC 39698 0 FLAlertLayer::create(char const*, gd::string const&, char const*)
PUBLIC 39744 0 CCMenuItemToggler::createWithStandardSprites(cocos2d::CCObject*, void (cocos2d::CCObject::*)(cocos2d::CCObject*), float)
PUBLIC 3993c 0 UndoObject::~UndoObject()
PUBLIC 39984 0 UndoObject::~UndoObject()
PUBLIC 399d4 0 UndoObject::createWithArray(cocos2d::CCArray*, UndoCommand)
PUBLIC 39a88 0 cocos2d::CCObject::update(float)
PUBLIC 39a8c 0 cocos2d::CCLayerColor::~CCLayerColor()
PUBLIC 39d48 0 FLAlertLayer::~FLAlertLayer()
PUBLIC 3a004 0 cocos2d::CCNode::~CCNode()
PUBLIC 3a27c 0 cocos2d::CCLayer::~CCLayer()
PUBLIC 3a544 0 cocos2d::CCObject::~CCObject()
PUBLIC 3aa10 0 _ZN5geode15UnwrapExceptionC2IRPvQsr4implE18IsStringStreamableIT_EEENS_4impl5OkTagEOS4_
PUBLIC 3ab64 0 std::__ndk1::__variant_detail::__visitation::__base::__dispatcher<(unsigned long)0>::__dispatch[abi:ne180000]<std::__ndk1::__variant_detail::__dtor<std::__ndk1::__variant_detail::__traits<void*, std::__ndk1::basic_string<char, std::__ndk1::char_traits<char>, std::__ndk1::allocator<char> > >, (std::__ndk1::__variant_detail::_Trait)1>::__destroy[abi:ne180000]()::{lambda(auto:1&)#1}, std::__ndk1::__variant_detail::__base<(std::__ndk1::__variant_detail::__traits<void*, std::__ndk1::basic_string<char, std::__ndk1::char_traits<char>, std::__ndk1::allocator<char> > >)1, std::__ndk1::__variant_detail::__traits, std::__ndk1::allocator<char> >&>(std::__ndk1::__variant_detail::__dtor<std::__ndk1::__variant_detail::__traits<void*, std::__ndk1::basic_string<char, std::__ndk1::char_traits<char>, std::__ndk1::allocator<char> > >, (std::__ndk1::__variant_detail::_Trait)1>, std::__ndk1::__variant_detail::__base<(std::__ndk1::__variant_detail::__traits<void*, std::__ndk1::basic_string<char, std::__ndk1::char_traits<char>, std::__ndk1::allocator<char> > >)1, std::__ndk1::__variant_detail::__traits, std::__ndk1::allocator<char> >&)
PUBLIC 3ab68 0 std::__ndk1::__variant_detail::__visitation::__base::__dispatcher<(unsigned long)1>::__dispatch[abi:ne180000]<std::__ndk1::__variant_detail::__dtor<std::__ndk1::__variant_detail::__traits<void*, std::__ndk1::basic_string<char, std::__ndk1::char_traits<char>, std::__ndk1::allocator<char> > >, (std::__ndk1::__variant_detail::_Trait)1>::__destroy[abi:ne180000]()::{lambda(auto:1&)#1}, std::__ndk1::__variant_detail::__base<(std::__ndk1::__variant_detail::__traits<void*, std::__ndk1::basic_string<char, std::__ndk1::char_traits<char>, std::__ndk1::allocator<char> > >)1, std::__ndk1::__variant_detail::__traits, std::__ndk1::allocator<char> >&>(std::__ndk1::__variant_detail::__dtor<std::__ndk1::__variant_detail::__traits<void*, std::__ndk1::basic_string<char, std::__ndk1::char_traits<char>, std::__ndk1::allocator<char> > >, (std::__ndk1::__variant_detail::_Trait)1>, std::__ndk1::__variant_detail::__base<(std::__ndk1::__variant_detail::__traits<void*, std::__ndk1::basic_string<char, std::__ndk1::char_traits<char>, std::__ndk1::allocator<char> > >)1, std::__ndk1::__variant_detail::__traits, std::__ndk1::allocator<char> >&)
PUBLIC 3ab7c 0 std::__ndk1::__hash_table<std::__ndk1::__hash_value_type<void*, bool>, std::__ndk1::__unordered_map_hasher<void*, std::__ndk1::__hash_value_type<void*, bool>, std::__ndk1::hash<void*>, std::__ndk1::equal_to<void*>, true>, std::__ndk1::__unordered_map_equal<void*, std::__ndk1::__hash_value_type<void*, bool>, std::__ndk1::equal_to<void*>, std::__ndk1::hash<void*>, true>, std::__ndk1::allocator<std::__ndk1::__hash_value_type<void*, bool> > >::__emplace_unique_key_args<void*, std::__ndk1::piecewise_construct_t const&, std::__ndk1::tuple<void* const&>, std::__ndk1::tuple<> >(void* const&, std::__ndk1::piecewise_construct_t const&, std::__ndk1::tuple<void* const&>, std::__ndk1::tuple<>)
PUBLIC 3b05c 0 __udivti3
PUBLIC 3b068 0 __udivmodti4
PUBLIC m 3b2b4 0 __eqtf2
PUBLIC 3b354 0 __unordtf2
PUBLIC 3b38c 0 fmt::v11::detail::write_loc(fmt::v11::basic_appender<char>, fmt::v11::loc_value, fmt::v11::format_specs const&, fmt::v11::detail::locale_ref)
PUBLIC 3b620 0 fmt::v11::format_facet<std::__ndk1::locale>::~format_facet()
PUBLIC 3b69c 0 fmt::v11::report_error(char const*)
PUBLIC 3b6ec 0 fmt::v11::format_error::runtime_error(char const*)
PUBLIC 3b718 0 fmt::v11::format_facet<std::__ndk1::locale>::do_put(fmt::v11::basic_appender<char>, fmt::v11::loc_value, fmt::v11::format_specs const&) const
PUBLIC 3bed8 0 fmt::v11::detail::loc_writer<char>::~loc_writer()
PUBLIC 3bf3c 0 fmt::v11::vformat(fmt::v11::basic_string_view<char>, fmt::v11::basic_format_args<fmt::v11::context>)
PUBLIC 3c078 0 fmt::v11::detail::vformat_to<char>(fmt::v11::detail::buffer<char>&, fmt::v11::basic_string_view<char>, fmt::v11::detail::vformat_args<char>::type, fmt::v11::detail::locale_ref)
PUBLIC 3c5e8 0 fmt::v11::detail::is_printable(unsigned int)
PUBLIC 3c810 0 fmt::v11::detail::dragonbox::to_decimal<float>(float)
PUBLIC 3caec 0 fmt::v11::detail::dragonbox::to_decimal<double>(double)
PUBLIC 3d028 0 fmt::v11::basic_memory_buffer<char, (unsigned long)500, std::__ndk1::allocator<char> >::grow(fmt::v11::detail::buffer<char>&, unsigned long)
PUBLIC 3d0a0 0 fmt::v11::format_facet<std::__ndk1::locale>::~format_facet()
PUBLIC 3d12c 0 fmt::v11::format_error::~format_error()
PUBLIC 3d150 0 fmt::v11::detail::copy_noinline<char, char const*, fmt::v11::basic_appender<char> >(char const*, char const*, fmt::v11::basic_appender<char>)
PUBLIC 3d2a0 0 fmt::v11::detail::default_arg_formatter<char>::operator()<bool>(bool)
PUBLIC 3d308 0 fmt::v11::detail::default_arg_formatter<char>::operator()<char>(char)
PUBLIC 3d398 0 fmt::v11::detail::default_arg_formatter<char>::operator()<float>(float)
PUBLIC 3d484 0 fmt::v11::detail::default_arg_formatter<char>::operator()<double>(double)
PUBLIC 3d570 0 fmt::v11::detail::default_arg_formatter<char>::operator()<char const*>(char const*)
PUBLIC 3d5b8 0 fmt::v11::detail::default_arg_formatter<char>::operator()<void const*>(void const*)
PUBLIC 3d650 0 _ZN3fmt3v116detail5writeIcNS0_14basic_appenderIcEEiTnNSt6__ndk19enable_ifIXaaaasr11is_integralIT1_EE5valuentsr3std7is_sameIS7_bEE5valuentsr3std7is_sameIS7_T_EE5valueEiE4typeELi0EEET0_SB_S7_
PUBLIC 3d8b0 0 fmt::v11::detail::copy_noinline<char, char*, fmt::v11::basic_appender<char> >(char*, char*, fmt::v11::basic_appender<char>)
PUBLIC 3da00 0 _ZN3fmt3v116detail5writeIcNS0_14basic_appenderIcEEjTnNSt6__ndk19enable_ifIXaaaasr11is_integralIT1_EE5valuentsr3std7is_sameIS7_bEE5valuentsr3std7is_sameIS7_T_EE5valueEiE4typeELi0EEET0_SB_S7_
PUBLIC 3dbe0 0 _ZN3fmt3v116detail5writeIcNS0_14basic_appenderIcEExTnNSt6__ndk19enable_ifIXaaaasr11is_integralIT1_EE5valuentsr3std7is_sameIS7_bEE5valuentsr3std7is_sameIS7_T_EE5valueEiE4typeELi0EEET0_SB_S7_
PUBLIC 3de64 0 _ZN3fmt3v116detail5writeIcNS0_14basic_appenderIcEEyTnNSt6__ndk19enable_ifIXaaaasr11is_integralIT1_EE5valuentsr3std7is_sameIS7_bEE5valuentsr3std7is_sameIS7_T_EE5valueEiE4typeELi0EEET0_SB_S7_
PUBLIC 3e06c 0 _ZN3fmt3v116detail5writeIcNS0_14basic_appenderIcEEnTnNSt6__ndk19enable_ifIXaaaasr11is_integralIT1_EE5valuentsr3std7is_sameIS7_bEE5valuentsr3std7is_sameIS7_T_EE5valueEiE4typeELi0EEET0_SB_S7_
PUBLIC 3e3cc 0 _ZN3fmt3v116detail5writeIcNS0_14basic_appenderIcEEoTnNSt6__ndk19enable_ifIXaaaasr11is_integralIT1_EE5valuentsr3std7is_sameIS7_bEE5valuentsr3std7is_sameIS7_T_EE5valueEiE4typeELi0EEET0_SB_S7_
PUBLIC 3e6e0 0 _ZN3fmt3v116detail5writeIcNS0_14basic_appenderIcEEbTnNSt6__ndk19enable_ifIXsr3std7is_sameIT1_bEE5valueEiE4typeELi0EEET0_SA_S7_RKNS0_12format_specsENS1_10locale_refE
PUBLIC 3e970 0 fmt::v11::detail::write_int_noinline<char, fmt::v11::basic_appender<char>, unsigned int>(fmt::v11::basic_appender<char>, fmt::v11::detail::write_int_arg<unsigned int>, fmt::v11::format_specs const&, fmt::v11::detail::locale_ref)
PUBLIC 3f74c 0 fmt::v11::detail::fill<char, fmt::v11::basic_appender<char> >(fmt::v11::basic_appender<char>, unsigned long, fmt::v11::detail::fill_t const&)
PUBLIC 3f91c 0 fmt::v11::detail::write_padded<char, (fmt::v11::align::type)1, fmt::v11::basic_appender<char>, fmt::v11::detail::write_char<char, fmt::v11::basic_appender<char> >(fmt::v11::basic_appender<char>, char, fmt::v11::format_specs const&)::{lambda(fmt::v11::basic_appender<char>&)#1}>(fmt::v11::basic_appender<char>, fmt::v11::format_specs const&, unsigned long, unsigned long, fmt::v11::detail::write_char<char, fmt::v11::basic_appender<char> >(fmt::v11::basic_appender<char>, char, fmt::v11::format_specs const&)::{lambda(fmt::v11::basic_appender<char>&)#1})
PUBLIC 3fb58 0 fmt::v11::detail::write_escaped_cp<fmt::v11::basic_appender<char>, char>(fmt::v11::basic_appender<char>, fmt::v11::detail::find_escape_result<char> const&)
PUBLIC 3fe64 0 fmt::v11::detail::write_codepoint<(unsigned long)2, char, fmt::v11::basic_appender<char> >(fmt::v11::basic_appender<char>, char, unsigned int)
PUBLIC 3ffdc 0 fmt::v11::detail::write_codepoint<(unsigned long)8, char, fmt::v11::basic_appender<char> >(fmt::v11::basic_appender<char>, char, unsigned int)
PUBLIC 40154 0 fmt::v11::detail::write_padded<char, (fmt::v11::align::type)1, fmt::v11::basic_appender<char>, fmt::v11::detail::write_nonfinite<char, fmt::v11::basic_appender<char> >(fmt::v11::basic_appender<char>, bool, fmt::v11::format_specs, fmt::v11::sign::type)::{lambda(fmt::v11::basic_appender<char>&)#1}>(fmt::v11::basic_appender<char>, fmt::v11::format_specs const&, unsigned long, unsigned long, fmt::v11::detail::write_nonfinite<char, fmt::v11::basic_appender<char> >(fmt::v11::basic_appender<char>, bool, fmt::v11::format_specs, fmt::v11::sign::type)::{lambda(fmt::v11::basic_appender<char>&)#1})
PUBLIC 40394 0 fmt::v11::detail::do_write_float<char, fmt::v11::basic_appender<char>, fmt::v11::detail::dragonbox::decimal_fp<float>, fmt::v11::detail::digit_grouping<char> >(fmt::v11::basic_appender<char>, fmt::v11::detail::dragonbox::decimal_fp<float> const&, fmt::v11::format_specs const&, fmt::v11::detail::float_specs, fmt::v11::detail::locale_ref)
PUBLIC 41008 0 fmt::v11::detail::do_write_float<char, fmt::v11::basic_appender<char>, fmt::v11::detail::dragonbox::decimal_fp<float>, fmt::v11::detail::digit_grouping<char> >(fmt::v11::basic_appender<char>, fmt::v11::detail::dragonbox::decimal_fp<float> const&, fmt::v11::format_specs const&, fmt::v11::detail::float_specs, fmt::v11::detail::locale_ref)::{lambda(fmt::v11::basic_appender<char>(fmt::v11::basic_appender<char>))#1}::operator() const
PUBLIC 4115c 0 fmt::v11::detail::digit_grouping<char>::digit_grouping(fmt::v11::detail::locale_ref, bool)
PUBLIC 413c8 0 fmt::v11::detail::digit_grouping<char>::~digit_grouping()
PUBLIC 4140c 0 fmt::v11::detail::write_exponent<char, fmt::v11::basic_appender<char> >(int, fmt::v11::basic_appender<char>)
PUBLIC 415dc 0 _ZN3fmt3v116detail17write_significandIcjTnNSt6__ndk19enable_ifIXsr3std11is_integralIT0_EE5valueEiE4typeELi0EEEPT_S9_S5_iiS8_
PUBLIC 41758 0 fmt::v11::detail::digit_grouping<char>::apply<fmt::v11::basic_appender<char>, char>(fmt::v11::basic_appender<char>, fmt::v11::basic_string_view<char>) const
PUBLIC 41b10 0 fmt::v11::basic_memory_buffer<int, (unsigned long)500, std::__ndk1::allocator<int> >::grow(fmt::v11::detail::buffer<int>&, unsigned long)
PUBLIC 41bb0 0 fmt::v11::detail::do_write_float<char, fmt::v11::basic_appender<char>, fmt::v11::detail::dragonbox::decimal_fp<double>, fmt::v11::detail::digit_grouping<char> >(fmt::v11::basic_appender<char>, fmt::v11::detail::dragonbox::decimal_fp<double> const&, fmt::v11::format_specs const&, fmt::v11::detail::float_specs, fmt::v11::detail::locale_ref)
PUBLIC 42864 0 fmt::v11::detail::do_write_float<char, fmt::v11::basic_appender<char>, fmt::v11::detail::dragonbox::decimal_fp<double>, fmt::v11::detail::digit_grouping<char> >(fmt::v11::basic_appender<char>, fmt::v11::detail::dragonbox::decimal_fp<double> const&, fmt::v11::format_specs const&, fmt::v11::detail::float_specs, fmt::v11::detail::locale_ref)::{lambda(fmt::v11::basic_appender<char>(fmt::v11::basic_appender<char>))#1}::operator() const
PUBLIC 429bc 0 _ZN3fmt3v116detail17write_significandIcmTnNSt6__ndk19enable_ifIXsr3std11is_integralIT0_EE5valueEiE4typeELi0EEEPT_S9_S5_iiS8_
PUBLIC 42b4c 0 fmt::v11::detail::write_float<char, fmt::v11::basic_appender<char>, long double>(fmt::v11::basic_appender<char>, long double, fmt::v11::format_specs, fmt::v11::detail::locale_ref)
PUBLIC 43648 0 fmt::v11::detail::write_padded<char, (fmt::v11::align::type)2, fmt::v11::basic_appender<char>, fmt::v11::detail::write_bytes<char, (fmt::v11::align::type)2, fmt::v11::basic_appender<char> >(fmt::v11::basic_appender<char>, fmt::v11::basic_string_view<char>, fmt::v11::format_specs const&)::{lambda(fmt::v11::basic_appender<char>&)#1}>(fmt::v11::basic_appender<char>, fmt::v11::format_specs const&, unsigned long, unsigned long, fmt::v11::detail::write_bytes<char, (fmt::v11::align::type)2, fmt::v11::basic_appender<char> >(fmt::v11::basic_appender<char>, fmt::v11::basic_string_view<char>, fmt::v11::format_specs const&)::{lambda(fmt::v11::basic_appender<char>&)#1})
PUBLIC 43824 0 fmt::v11::detail::format_dragon(fmt::v11::detail::basic_fp<unsigned __int128>, unsigned int, int, fmt::v11::detail::buffer<char>&, int&)
PUBLIC 44c54 0 fmt::v11::detail::bigint::operator<<=(int)
PUBLIC 44d78 0 fmt::v11::detail::bigint::assign_pow10(int)
PUBLIC 454d4 0 fmt::v11::detail::bigint::divmod_assign(fmt::v11::detail::bigint const&)
PUBLIC 457f4 0 fmt::v11::basic_memory_buffer<unsigned int, (unsigned long)32, std::__ndk1::allocator<unsigned int> >::grow(fmt::v11::detail::buffer<unsigned int>&, unsigned long)
PUBLIC 45894 0 fmt::v11::detail::do_write_float<char, fmt::v11::basic_appender<char>, fmt::v11::detail::big_decimal_fp, fmt::v11::detail::digit_grouping<char> >(fmt::v11::basic_appender<char>, fmt::v11::detail::big_decimal_fp const&, fmt::v11::format_specs const&, fmt::v11::detail::float_specs, fmt::v11::detail::locale_ref)
PUBLIC 46744 0 fmt::v11::detail::do_write_float<char, fmt::v11::basic_appender<char>, fmt::v11::detail::big_decimal_fp, fmt::v11::detail::digit_grouping<char> >(fmt::v11::basic_appender<char>, fmt::v11::detail::big_decimal_fp const&, fmt::v11::format_specs const&, fmt::v11::detail::float_specs, fmt::v11::detail::locale_ref)::{lambda(fmt::v11::basic_appender<char>(fmt::v11::basic_appender<char>))#1}::operator() const
PUBLIC 468a4 0 fmt::v11::detail::write_padded<char, (fmt::v11::align::type)2, fmt::v11::basic_appender<char>, fmt::v11::detail::write_ptr<char, fmt::v11::basic_appender<char>, unsigned long>(fmt::v11::basic_appender<char>, unsigned long, fmt::v11::format_specs const*)::{lambda(fmt::v11::basic_appender<char>&)#1}>(fmt::v11::basic_appender<char>, fmt::v11::format_specs const&, unsigned long, unsigned long, fmt::v11::detail::write_ptr<char, fmt::v11::basic_appender<char>, unsigned long>(fmt::v11::basic_appender<char>, unsigned long, fmt::v11::format_specs const*)::{lambda(fmt::v11::basic_appender<char>&)#1})
PUBLIC 46ab8 0 fmt::v11::detail::parse_replacement_field<char, fmt::v11::detail::vformat_to<char>(fmt::v11::detail::buffer<char>&, fmt::v11::basic_string_view<char>, fmt::v11::detail::vformat_args<char>::type, fmt::v11::detail::locale_ref)::format_handler&>(char const*, char const*, fmt::v11::detail::vformat_to<char>(fmt::v11::detail::buffer<char>&, fmt::v11::basic_string_view<char>, fmt::v11::detail::vformat_args<char>::type, fmt::v11::detail::locale_ref)::format_handler&)
PUBLIC 48754 0 fmt::v11::detail::parse_dynamic_spec<char>(char const*, char const*, int&, fmt::v11::detail::arg_ref<char>&, fmt::v11::basic_format_parse_context<char>&)
PUBLIC 489e4 0 fmt::v11::basic_format_args<fmt::v11::context>::get<char>(fmt::v11::basic_string_view<char>) const
PUBLIC 48b3c 0 fmt::v11::detail::write_int_noinline<char, fmt::v11::basic_appender<char>, unsigned long>(fmt::v11::basic_appender<char>, fmt::v11::detail::write_int_arg<unsigned long>, fmt::v11::format_specs const&, fmt::v11::detail::locale_ref)
PUBLIC 49990 0 fmt::v11::detail::write_int_noinline<char, fmt::v11::basic_appender<char>, unsigned __int128>(fmt::v11::basic_appender<char>, fmt::v11::detail::write_int_arg<unsigned __int128>, fmt::v11::format_specs const&, fmt::v11::detail::locale_ref)
PUBLIC 4a9f8 0 _ZN3fmt3v116detail15format_hexfloatIdTnNSt6__ndk19enable_ifIXntsr16is_double_doubleIT_EE5valueEiE4typeELi0EEEvS5_NS0_12format_specsERNS1_6bufferIcEE
PUBLIC 4af18 0 fmt::v11::detail::format_float<double>(double, int, fmt::v11::detail::float_specs, fmt::v11::detail::buffer<char>&)
PUBLIC 4b8b8 0 fmt::v11::detail::write<char, fmt::v11::basic_appender<char> >(fmt::v11::basic_appender<char>, fmt::v11::basic_string_view<char>, fmt::v11::format_specs const&)
PUBLIC 4cc24 0 fmt::v11::detail::for_each_codepoint<fmt::v11::detail::compute_width(fmt::v11::basic_string_view<char>)::count_code_points>(fmt::v11::basic_string_view<char>, fmt::v11::detail::compute_width(fmt::v11::basic_string_view<char>)::count_code_points)::{lambda(char const*, char const*)#1}::operator()(char const*, char const*) const
PUBLIC 4cddc 0 fmt::v11::detail::write_int<fmt::v11::basic_appender<char>, unsigned long, char>(fmt::v11::basic_appender<char>, unsigned long, unsigned int, fmt::v11::format_specs const&, fmt::v11::detail::digit_grouping<char> const&)
PUBLIC 4d358 0 fmt::v11::detail::write_int<fmt::v11::basic_appender<char>, unsigned __int128, char>(fmt::v11::basic_appender<char>, unsigned __int128, unsigned int, fmt::v11::format_specs const&, fmt::v11::detail::digit_grouping<char> const&)
PUBLIC 4d9e0 0 <.plt ELF section in anatom3000.functional.android64.so>
STACK CFI INIT 213c0 10 .cfa: sp 0 +
STACK CFI INIT 213d0 8 .cfa: sp 0 +
STACK CFI INIT 213d8 8 .cfa: sp 0 +
STACK CFI INIT 213e0 14 .cfa: sp 0 +
STACK CFI INIT 213f4 1c .cfa: sp 0 +
STACK CFI INIT 21410 10 .cfa: sp 0 +
STACK CFI INIT 21420 30 .cfa: sp 0 +
STACK CFI INIT 21450 98 .cfa: sp 0 +
STACK CFI INIT 214e8 59c .cfa: sp 0 +
STACK CFI INIT 21a84 8c .cfa: sp 0 +
STACK CFI INIT 21b10 30 .cfa: sp 0 +
STACK CFI INIT 21b40 80 .cfa: sp 0 +
STACK CFI 21b44 .cfa: sp 48 +
STACK CFI 21b50 .cfa: x29 48 + x19: .cfa -8 + ^ x20: .cfa -16 + ^ x21: .cfa -24 + ^ x22: .cfa -32 + ^ .ra: .cfa -40 + ^ x29: .cfa -48 + ^
STACK CFI 21b9c .cfa: sp 48 +
STACK CFI 21ba8 .cfa: sp 0 +
STACK CFI 21bac .cfa: x29 48 +
STACK CFI 21bb0 .cfa: sp 48 +
STACK CFI 21bbc .cfa: sp 0 +
STACK CFI INIT 21bc0 88 .cfa: sp 0 +
STACK CFI 21bc4 .cfa: sp 48 +
STACK CFI 21bd0 .cfa: x29 48 + x19: .cfa -8 + ^ x20: .cfa -16 + ^ x21: .cfa -32 + ^ .ra: .cfa -40 + ^ x29: .cfa -48 + ^
STACK CFI 21bf0 .cfa: sp 48 +
STACK CFI 21bfc .cfa: sp 0 +
STACK CFI 21c00 .cfa: x29 48 +
STACK CFI 21c28 .cfa: sp 48 +
STACK CFI 21c34 .cfa: sp 0 +
STACK CFI 21c38 .cfa: sp 48 +
STACK CFI 21c44 .cfa: sp 0 +
STACK CFI INIT 22ed0 ec .cfa: sp 0 +
STACK CFI 22ed4 .cfa: sp 64 +
STACK CFI 22ee4 .cfa: x29 64 + x19: .cfa -8 + ^ x20: .cfa -16 + ^ x21: .cfa -24 + ^ x22: .cfa -32 + ^ x23: .cfa -48 + ^ .ra: .cfa -56 + ^ x29: .cfa -64 + ^
STACK CFI 22fa8 .cfa: sp 64 +
STACK CFI 22fb8 .cfa: sp 0 +
STACK CFI INIT 23030 90 .cfa: sp 0 +
STACK CFI 23034 .cfa: sp 48 +
STACK CFI 23040 .cfa: x29 48 + x19: .cfa -8 + ^ x20: .cfa -16 + ^ x21: .cfa -32 + ^ .ra: .cfa -40 + ^ x29: .cfa -48 + ^
STACK CFI 2309c .cfa: sp 48 +
STACK CFI 230a8 .cfa: sp 0 +
STACK CFI 230ac .cfa: x29 48 +
STACK CFI 230b0 .cfa: sp 48 +
STACK CFI 230bc .cfa: sp 0 +
STACK CFI INIT 24640 260 .cfa: sp 0 +
STACK CFI 24644 .cfa: sp 64 +
STACK CFI 24654 .cfa: x29 64 + x19: .cfa -8 + ^ x20: .cfa -16 + ^ x21: .cfa -24 + ^ x22: .cfa -32 + ^ x23: .cfa -48 + ^ .ra: .cfa -56 + ^ x29: .cfa -64 + ^
STACK CFI 246cc .cfa: sp 64 +
STACK CFI 246dc .cfa: sp 0 +
STACK CFI 246e0 .cfa: x29 64 +
STACK CFI 24884 .cfa: sp 64 +
STACK CFI 24894 .cfa: sp 0 +
STACK CFI 24898 .cfa: x29 64 +
STACK CFI INIT 248a0 68 .cfa: sp 0 +
STACK CFI 248a4 .cfa: sp 48 +
STACK CFI 248b0 .cfa: x29 48 + x19: .cfa -8 + ^ x20: .cfa -16 + ^ x21: .cfa -32 + ^ .ra: .cfa -40 + ^ x29: .cfa -48 + ^
STACK CFI 248e8 .cfa: sp 48 +
STACK CFI 248f4 .cfa: sp 0 +
STACK CFI 248f8 .cfa: sp 48 +
STACK CFI 24904 .cfa: sp 0 +
STACK CFI INIT 24908 10 .cfa: sp 0 +
STACK CFI INIT 254ec 18 .cfa: sp 0 +
STACK CFI INIT 25504 10 .cfa: sp 0 +
STACK CFI 25508 .cfa: sp 16 +
STACK CFI 2550c .cfa: x29 16 + .ra: .cfa -8 + ^ x29: .cfa -16 + ^
STACK CFI INIT 25514 14 .cfa: sp 0 +
STACK CFI 25518 .cfa: sp 16 +
STACK CFI 2551c .cfa: x29 16 + .ra: .cfa -8 + ^ x29: .cfa -16 + ^
STACK CFI INIT 25578 30 .cfa: sp 0 +
STACK CFI 2557c .cfa: sp 32 +
STACK CFI 25584 .cfa: x29 32 + x19: .cfa -16 + ^ .ra: .cfa -24 + ^ x29: .cfa -32 + ^
STACK CFI 2559c .cfa: sp 32 +
STACK CFI 255a4 .cfa: sp 0 +
STACK CFI INIT 255a8 34 .cfa: sp 0 +
STACK CFI 255ac .cfa: sp 32 +
STACK CFI 255b4 .cfa: x29 32 + x19: .cfa -16 + ^ .ra: .cfa -24 + ^ x29: .cfa -32 + ^
STACK CFI INIT 255dc 68 .cfa: sp 0 +
STACK CFI 255e0 .cfa: sp 32 +
STACK CFI 255e8 .cfa: x29 32 + x19: .cfa -8 + ^ x20: .cfa -16 + ^ .ra: .cfa -24 + ^ x29: .cfa -32 + ^
STACK CFI 25600 .cfa: sp 32 +
STACK CFI 25608 .cfa: sp 0 +
STACK CFI 2560c .cfa: x29 32 +
STACK CFI 25638 .cfa: sp 32 +
STACK CFI 25640 .cfa: sp 0 +
STACK CFI INIT 25644 14 .cfa: sp 0 +
STACK CFI 25648 .cfa: sp 16 +
STACK CFI 2564c .cfa: x29 16 + .ra: .cfa -8 + ^ x29: .cfa -16 + ^
STACK CFI INIT 25658 34 .cfa: sp 0 +
STACK CFI 2565c .cfa: sp 16 +
STACK CFI 25660 .cfa: x29 16 + .ra: .cfa -8 + ^ x29: .cfa -16 + ^
STACK CFI INIT 2568c a0 .cfa: sp 0 +
STACK CFI 25690 .cfa: sp 48 +
STACK CFI 2569c .cfa: x29 48 + x19: .cfa -8 + ^ x20: .cfa -16 + ^ x21: .cfa -32 + ^ .ra: .cfa -40 + ^ x29: .cfa -48 + ^
STACK CFI 2570c .cfa: sp 48 +
STACK CFI 25718 .cfa: sp 0 +
STACK CFI 2571c .cfa: sp 48 +
STACK CFI 25728 .cfa: sp 0 +
STACK CFI INIT 2572c 90 .cfa: sp 0 +
STACK CFI 25730 .cfa: sp 48 +
STACK CFI 2573c .cfa: x29 48 + x19: .cfa -8 + ^ x20: .cfa -16 + ^ x21: .cfa -32 + ^ .ra: .cfa -40 + ^ x29: .cfa -48 + ^
STACK CFI 25798 .cfa: sp 48 +
STACK CFI 257a4 .cfa: sp 0 +
STACK CFI 257a8 .cfa: x29 48 +
STACK CFI 257ac .cfa: sp 48 +
STACK CFI 257b8 .cfa: sp 0 +
STACK CFI INIT 257bc 90 .cfa: sp 0 +
STACK CFI 257c0 .cfa: sp 48 +
STACK CFI 257cc .cfa: x29 48 + x19: .cfa -8 + ^ x20: .cfa -16 + ^ x21: .cfa -32 + ^ .ra: .cfa -40 + ^ x29: .cfa -48 + ^
STACK CFI 25828 .cfa: sp 48 +
STACK CFI 25834 .cfa: sp 0 +
STACK CFI 25838 .cfa: x29 48 +
STACK CFI 2583c .cfa: sp 48 +
STACK CFI 25848 .cfa: sp 0 +
STACK CFI INIT 2584c 14 .cfa: sp 0 +
STACK CFI INIT 25860 80 .cfa: sp 0 +
STACK CFI 25864 .cfa: sp 48 +
STACK CFI 25870 .cfa: x29 48 + x19: .cfa -8 + ^ x20: .cfa -16 + ^ x21: .cfa -24 + ^ x22: .cfa -32 + ^ .ra: .cfa -40 + ^ x29: .cfa -48 + ^
STACK CFI 25888 .cfa: sp 48 +
STACK CFI 25894 .cfa: sp 0 +
STACK CFI 25898 .cfa: x29 48 +
STACK CFI 258c8 .cfa: sp 48 +
STACK CFI 258d4 .cfa: sp 0 +
STACK CFI 258d8 .cfa: x29 48 +
STACK CFI INIT 258e0 14 .cfa: sp 0 +
STACK CFI 258e4 .cfa: sp 16 +
STACK CFI 258e8 .cfa: x29 16 + .ra: .cfa -8 + ^ x29: .cfa -16 + ^
STACK CFI INIT 258f4 184 .cfa: sp 0 +
STACK CFI 258f8 .cfa: sp 32 +
STACK CFI 25900 .cfa: x29 32 + x19: .cfa -16 + ^ .ra: .cfa -24 + ^ x29: .cfa -32 + ^
STACK CFI 2597c .cfa: sp 32 +
STACK CFI 25984 .cfa: sp 0 +
STACK CFI 25988 .cfa: x29 32 +
STACK CFI 25a6c .cfa: sp 32 +
STACK CFI 25a74 .cfa: sp 0 +
STACK CFI INIT 25eb4 50 .cfa: sp 0 +
STACK CFI 25eb8 .cfa: sp 32 +
STACK CFI 25ec0 .cfa: x29 32 + x19: .cfa -16 + ^ .ra: .cfa -24 + ^ x29: .cfa -32 + ^
STACK CFI 25ed8 .cfa: sp 32 +
STACK CFI 25ee0 .cfa: sp 0 +
STACK CFI 25ee4 .cfa: x29 32 +
STACK CFI 25ef8 .cfa: sp 32 +
STACK CFI 25f00 .cfa: sp 0 +
STACK CFI INIT 25f78 7c .cfa: sp 0 +
STACK CFI 25f7c .cfa: sp 48 +
STACK CFI 25f88 .cfa: x29 48 + x19: .cfa -8 + ^ x20: .cfa -16 + ^ x21: .cfa -32 + ^ .ra: .cfa -40 + ^ x29: .cfa -48 + ^
STACK CFI 25fd4 .cfa: sp 48 +
STACK CFI 25fe0 .cfa: sp 0 +
STACK CFI 25fe4 .cfa: sp 48 +
STACK CFI 25ff0 .cfa: sp 0 +
STACK CFI INIT 25ff4 4 .cfa: sp 0 +
STACK CFI INIT 26278 80 .cfa: sp 0 +
STACK CFI 2627c .cfa: sp 48 +
STACK CFI 26288 .cfa: x29 48 + x19: .cfa -8 + ^ x20: .cfa -16 + ^ x21: .cfa -32 + ^ .ra: .cfa -40 + ^ x29: .cfa -48 + ^
STACK CFI 262e8 .cfa: sp 48 +
STACK CFI 262f4 .cfa: sp 0 +
STACK CFI INIT 262f8 24 .cfa: sp 0 +
STACK CFI 262fc .cfa: sp 32 +
STACK CFI 26304 .cfa: x29 32 + x19: .cfa -16 + ^ .ra: .cfa -24 + ^ x29: .cfa -32 + ^
STACK CFI 26310 .cfa: sp 32 +
STACK CFI 26318 .cfa: sp 0 +
STACK CFI INIT 26814 148 .cfa: sp 0 +
STACK CFI 26818 .cfa: sp 48 +
STACK CFI 26824 .cfa: x29 48 + x19: .cfa -8 + ^ x20: .cfa -16 + ^ x21: .cfa -32 + ^ .ra: .cfa -40 + ^ x29: .cfa -48 + ^
STACK CFI 2694c .cfa: sp 48 +
STACK CFI 26958 .cfa: sp 0 +
STACK CFI INIT 2695c 68 .cfa: sp 0 +
STACK CFI 26960 .cfa: sp 32 +
STACK CFI 26968 .cfa: x29 32 + x19: .cfa -8 + ^ x20: .cfa -16 + ^ .ra: .cfa -24 + ^ x29: .cfa -32 + ^
STACK CFI 26980 .cfa: sp 32 +
STACK CFI 26988 .cfa: sp 0 +
STACK CFI 2698c .cfa: x29 32 +
STACK CFI 269b8 .cfa: sp 32 +
STACK CFI 269c0 .cfa: sp 0 +
STACK CFI INIT 269c4 14 .cfa: sp 0 +
STACK CFI 269c8 .cfa: sp 16 +
STACK CFI 269cc .cfa: x29 16 + .ra: .cfa -8 + ^ x29: .cfa -16 + ^
STACK CFI INIT 269d8 4 .cfa: sp 0 +
STACK CFI INIT 269dc 14 .cfa: sp 0 +
STACK CFI INIT 269f0 84 .cfa: sp 0 +
STACK CFI 269f8 .cfa: sp 32 +
STACK CFI 26a00 .cfa: x29 32 + x19: .cfa -8 + ^ x20: .cfa -16 + ^ .ra: .cfa -24 + ^ x29: .cfa -32 + ^
STACK CFI 26a40 .cfa: sp 32 +
STACK CFI 26a48 .cfa: sp 0 +
STACK CFI 26a50 .cfa: x29 32 +
STACK CFI INIT 26a74 d4 .cfa: sp 0 +
STACK CFI 26a78 .cfa: sp 64 +
STACK CFI 26a88 .cfa: x29 48 + x19: .cfa -8 + ^ x20: .cfa -16 + ^ x21: .cfa -32 + ^ .ra: .cfa -40 + ^ x29: .cfa -48 + ^
STACK CFI 26b30 .cfa: sp 64 +
STACK CFI 26b40 .cfa: sp 0 +
STACK CFI 26b44 .cfa: x29 48 +
STACK CFI INIT 26b48 50 .cfa: sp 0 +
STACK CFI 26b4c .cfa: sp 32 +
STACK CFI 26b54 .cfa: x29 32 + x19: .cfa -16 + ^ .ra: .cfa -24 + ^ x29: .cfa -32 + ^
STACK CFI 26b6c .cfa: sp 32 +
STACK CFI 26b74 .cfa: sp 0 +
STACK CFI 26b78 .cfa: x29 32 +
STACK CFI 26b8c .cfa: sp 32 +
STACK CFI 26b94 .cfa: sp 0 +
STACK CFI INIT 26b98 64 .cfa: sp 0 +
STACK CFI 26b9c .cfa: sp 32 +
STACK CFI 26ba4 .cfa: x29 32 + x19: .cfa -16 + ^ .ra: .cfa -24 + ^ x29: .cfa -32 + ^
STACK CFI 26bd0 .cfa: sp 32 +
STACK CFI 26bd8 .cfa: sp 0 +
STACK CFI 26bdc .cfa: x29 32 +
STACK CFI 26bf0 .cfa: sp 32 +
STACK CFI 26bf8 .cfa: sp 0 +
STACK CFI INIT 26e40 8 .cfa: sp 0 +
STACK CFI INIT 26fac 24 .cfa: sp 0 +
STACK CFI 26fb0 .cfa: sp 32 +
STACK CFI 26fb8 .cfa: x29 32 + x19: .cfa -16 + ^ .ra: .cfa -24 + ^ x29: .cfa -32 + ^
STACK CFI 26fc4 .cfa: sp 32 +
STACK CFI 26fcc .cfa: sp 0 +
STACK CFI INIT 26fd0 2c .cfa: sp 0 +
STACK CFI 26fd4 .cfa: sp 32 +
STACK CFI 26fdc .cfa: x29 32 + x19: .cfa -16 + ^ .ra: .cfa -24 + ^ x29: .cfa -32 + ^
STACK CFI 26ff0 .cfa: sp 32 +
STACK CFI 26ff8 .cfa: sp 0 +
STACK CFI INIT 26ffc 28 .cfa: sp 0 +
STACK CFI INIT 27024 4 .cfa: sp 0 +
STACK CFI INIT 27028 8 .cfa: sp 0 +
STACK CFI INIT 27f30 8 .cfa: sp 0 +
STACK CFI INIT 27f38 28 .cfa: sp 0 +
STACK CFI 27f3c .cfa: sp 32 +
STACK CFI 27f44 .cfa: x29 32 + x19: .cfa -16 + ^ .ra: .cfa -24 + ^ x29: .cfa -32 + ^
STACK CFI 27f54 .cfa: sp 32 +
STACK CFI 27f5c .cfa: sp 0 +
STACK CFI INIT 27f60 2c .cfa: sp 0 +
STACK CFI INIT 27f8c 4 .cfa: sp 0 +
STACK CFI INIT 27f90 4 .cfa: sp 0 +
STACK CFI INIT 27f94 4 .cfa: sp 0 +
STACK CFI INIT 27f98 4 .cfa: sp 0 +
STACK CFI INIT 27f9c 4 .cfa: sp 0 +
STACK CFI INIT 27fa0 8 .cfa: sp 0 +
STACK CFI INIT 27fa8 4 .cfa: sp 0 +
STACK CFI INIT 28160 4 .cfa: sp 0 +
STACK CFI INIT 28164 60 .cfa: sp 0 +
STACK CFI 28168 .cfa: sp 32 +
STACK CFI 28170 .cfa: x29 32 + x19: .cfa -8 + ^ x20: .cfa -16 + ^ .ra: .cfa -24 + ^ x29: .cfa -32 + ^
STACK CFI 28190 .cfa: sp 32 +
STACK CFI 28198 .cfa: sp 0 +
STACK CFI 2819c .cfa: x29 32 +
STACK CFI 281b8 .cfa: sp 32 +
STACK CFI 281c0 .cfa: sp 0 +
STACK CFI INIT 281c4 70 .cfa: sp 0 +
STACK CFI 281c8 .cfa: sp 32 +
STACK CFI 281d0 .cfa: x29 32 + x19: .cfa -8 + ^ x20: .cfa -16 + ^ .ra: .cfa -24 + ^ x29: .cfa -32 + ^
STACK CFI 281f8 .cfa: sp 32 +
STACK CFI 28200 .cfa: sp 0 +
STACK CFI 28204 .cfa: x29 32 +
STACK CFI 28228 .cfa: sp 32 +
STACK CFI 28230 .cfa: sp 0 +
STACK CFI INIT 28234 10 .cfa: sp 0 +
STACK CFI INIT 28244 30 .cfa: sp 0 +
STACK CFI 28248 .cfa: sp 32 +
STACK CFI 28250 .cfa: x29 32 + x19: .cfa -16 + ^ .ra: .cfa -24 + ^ x29: .cfa -32 + ^
STACK CFI 28268 .cfa: sp 32 +
STACK CFI 28270 .cfa: sp 0 +
STACK CFI INIT 28274 4 .cfa: sp 0 +
STACK CFI INIT 28278 4 .cfa: sp 0 +
STACK CFI INIT 2827c 150 .cfa: sp 0 +
STACK CFI 28280 .cfa: sp 64 +
STACK CFI 2828c .cfa: x29 32 + x19: .cfa -8 + ^ x20: .cfa -16 + ^ .ra: .cfa -24 + ^ x29: .cfa -32 + ^
STACK CFI 28354 .cfa: sp 64 +
STACK CFI 28360 .cfa: sp 0 +
STACK CFI 28364 .cfa: x29 32 +
STACK CFI INIT 283cc 48 .cfa: sp 0 +
STACK CFI 283d0 .cfa: sp 32 +
STACK CFI 283d8 .cfa: x29 32 + x19: .cfa -16 + ^ .ra: .cfa -24 + ^ x29: .cfa -32 + ^
STACK CFI 283fc .cfa: sp 32 +
STACK CFI 28404 .cfa: sp 0 +
STACK CFI 28408 .cfa: sp 32 +
STACK CFI 28410 .cfa: sp 0 +
STACK CFI INIT 2937c 15c .cfa: sp 0 +
STACK CFI 29380 .cfa: sp 80 +
STACK CFI 29398 .cfa: x29 40 + x19: .cfa -8 + ^ x20: .cfa -16 + ^ x21: .cfa -24 + ^ .ra: .cfa -32 + ^ x29: .cfa -40 + ^ v8: .cfa -48 + ^ v9: .cfa -56 + ^ v10: .cfa -64 + ^
STACK CFI 294b8 .cfa: sp 80 +
STACK CFI 294d0 .cfa: sp 0 +
STACK CFI 294d4 .cfa: x29 40 +
STACK CFI INIT 296bc 400 .cfa: sp 0 +
STACK CFI 296c0 .cfa: sp 32 +
STACK CFI 296c8 .cfa: x29 32 + x19: .cfa -8 + ^ x20: .cfa -16 + ^ .ra: .cfa -24 + ^ x29: .cfa -32 + ^
STACK CFI 29a58 .cfa: sp 32 +
STACK CFI 29a60 .cfa: sp 0 +
STACK CFI 29a64 .cfa: x29 32 +
STACK CFI 29a7c .cfa: sp 32 +
STACK CFI 29a84 .cfa: sp 0 +
STACK CFI 29a88 .cfa: x29 32 +
STACK CFI 29aa0 .cfa: sp 32 +
STACK CFI 29aa8 .cfa: sp 0 +
STACK CFI 29aac .cfa: x29 32 +
STACK CFI 29ab0 .cfa: sp 32 +
STACK CFI 29ab8 .cfa: sp 0 +
STACK CFI INIT 2d18c 98 .cfa: sp 0 +
STACK CFI 2d190 .cfa: sp 48 +
STACK CFI 2d19c .cfa: x29 48 + x19: .cfa -8 + ^ x20: .cfa -16 + ^ x21: .cfa -32 + ^ .ra: .cfa -40 + ^ x29: .cfa -48 + ^
STACK CFI 2d200 .cfa: sp 48 +
STACK CFI 2d20c .cfa: sp 0 +
STACK CFI 2d210 .cfa: x29 48 +
STACK CFI 2d214 .cfa: sp 48 +
STACK CFI 2d220 .cfa: sp 0 +
STACK CFI INIT 2d224 68 .cfa: sp 0 +
STACK CFI 2d284 .cfa: sp 16 +
STACK CFI 2d288 .cfa: x29 16 + .ra: .cfa -8 + ^ x29: .cfa -16 + ^
STACK CFI INIT 2d28c ec .cfa: sp 0 +
STACK CFI 2d290 .cfa: sp 96 +
STACK CFI 2d2a4 .cfa: x29 48 + x19: .cfa -8 + ^ x20: .cfa -16 + ^ x21: .cfa -24 + ^ x22: .cfa -32 + ^ .ra: .cfa -40 + ^ x29: .cfa -48 + ^ v8: .cfa -56 + ^ v9: .cfa -64 + ^
STACK CFI 2d35c .cfa: sp 96 +
STACK CFI 2d370 .cfa: sp 0 +
STACK CFI 2d374 .cfa: x29 48 +
STACK CFI INIT 2d378 864 .cfa: sp 0 +
STACK CFI 2d37c .cfa: sp 64 +
STACK CFI 2d38c .cfa: x29 48 + x19: .cfa -8 + ^ x20: .cfa -16 + ^ x21: .cfa -32 + ^ .ra: .cfa -40 + ^ x29: .cfa -48 + ^ v8: .cfa -56 + ^ v9: .cfa -64 + ^
STACK CFI 2d3fc .cfa: sp 64 +
STACK CFI 2d40c .cfa: sp 0 +
STACK CFI 2d410 .cfa: x29 48 +
STACK CFI 2d420 .cfa: sp 64 +
STACK CFI 2d430 .cfa: sp 0 +
STACK CFI 2d434 .cfa: x29 48 +
STACK CFI 2d4cc .cfa: sp 64 +
STACK CFI 2d4dc .cfa: sp 0 +
STACK CFI 2d4e0 .cfa: x29 48 +
STACK CFI 2d518 .cfa: sp 64 +
STACK CFI 2d528 .cfa: sp 0 +
STACK CFI 2d52c .cfa: x29 48 +
STACK CFI 2d55c .cfa: sp 64 +
STACK CFI 2d56c .cfa: sp 0 +
STACK CFI 2d570 .cfa: x29 48 +
STACK CFI 2d5bc .cfa: sp 64 +
STACK CFI 2d5cc .cfa: sp 0 +
STACK CFI 2d5d0 .cfa: x29 48 +
STACK CFI 2d5dc .cfa: sp 64 +
STACK CFI 2d5ec .cfa: sp 0 +
STACK CFI 2d5f0 .cfa: x29 48 +
STACK CFI 2d650 .cfa: sp 64 +
STACK CFI 2d660 .cfa: sp 0 +
STACK CFI 2d664 .cfa: x29 48 +
STACK CFI 2d694 .cfa: sp 64 +
STACK CFI 2d6a4 .cfa: sp 0 +
STACK CFI 2d6a8 .cfa: x29 48 +
STACK CFI 2d6d8 .cfa: sp 64 +
STACK CFI 2d6e8 .cfa: sp 0 +
STACK CFI 2d6ec .cfa: x29 48 +
STACK CFI 2d794 .cfa: sp 64 +
STACK CFI 2d7a4 .cfa: sp 0 +
STACK CFI 2d7a8 .cfa: x29 48 +
STACK CFI 2d864 .cfa: sp 64 +
STACK CFI 2d874 .cfa: sp 0 +
STACK CFI 2d878 .cfa: x29 48 +
STACK CFI 2d8a0 .cfa: sp 64 +
STACK CFI 2d8b0 .cfa: sp 0 +
STACK CFI 2d8b4 .cfa: x29 48 +
STACK CFI 2d8bc .cfa: sp 64 +
STACK CFI 2d8cc .cfa: sp 0 +
STACK CFI 2d8d0 .cfa: x29 48 +
STACK CFI 2d930 .cfa: sp 64 +
STACK CFI 2d940 .cfa: sp 0 +
STACK CFI 2d944 .cfa: x29 48 +
STACK CFI 2d95c .cfa: sp 64 +
STACK CFI 2d96c .cfa: sp 0 +
STACK CFI 2d970 .cfa: x29 48 +
STACK CFI 2d988 .cfa: sp 64 +
STACK CFI 2d998 .cfa: sp 0 +
STACK CFI 2d99c .cfa: x29 48 +
STACK CFI 2d9b4 .cfa: sp 64 +
STACK CFI 2d9c4 .cfa: sp 0 +
STACK CFI 2d9c8 .cfa: x29 48 +
STACK CFI 2d9e0 .cfa: sp 64 +
STACK CFI 2d9f0 .cfa: sp 0 +
STACK CFI 2d9f4 .cfa: x29 48 +
STACK CFI 2da0c .cfa: sp 64 +
STACK CFI 2da1c .cfa: sp 0 +
STACK CFI 2da20 .cfa: x29 48 +
STACK CFI 2da38 .cfa: sp 64 +
STACK CFI 2da48 .cfa: sp 0 +
STACK CFI 2da4c .cfa: x29 48 +
STACK CFI 2da64 .cfa: sp 64 +
STACK CFI 2da74 .cfa: sp 0 +
STACK CFI 2da78 .cfa: x29 48 +
STACK CFI 2da90 .cfa: sp 64 +
STACK CFI 2daa0 .cfa: sp 0 +
STACK CFI 2daa4 .cfa: x29 48 +
STACK CFI 2dabc .cfa: sp 64 +
STACK CFI 2dacc .cfa: sp 0 +
STACK CFI 2dad0 .cfa: x29 48 +
STACK CFI 2dae8 .cfa: sp 64 +
STACK CFI 2daf8 .cfa: sp 0 +
STACK CFI 2dafc .cfa: x29 48 +
STACK CFI 2db14 .cfa: sp 64 +
STACK CFI 2db24 .cfa: sp 0 +
STACK CFI 2db28 .cfa: x29 48 +
STACK CFI 2db40 .cfa: sp 64 +
STACK CFI 2db50 .cfa: sp 0 +
STACK CFI 2db54 .cfa: x29 48 +
STACK CFI 2db6c .cfa: sp 64 +
STACK CFI 2db7c .cfa: sp 0 +
STACK CFI 2db80 .cfa: x29 48 +
STACK CFI 2dbac .cfa: sp 64 +
STACK CFI 2dbbc .cfa: sp 0 +
STACK CFI 2dbc0 .cfa: x29 48 +
STACK CFI 2dbc8 .cfa: sp 64 +
STACK CFI 2dbd8 .cfa: sp 0 +
STACK CFI INIT 2dc50 98 .cfa: sp 0 +
STACK CFI 2dc54 .cfa: sp 48 +
STACK CFI 2dc60 .cfa: x29 48 + x19: .cfa -8 + ^ x20: .cfa -16 + ^ x21: .cfa -24 + ^ x22: .cfa -32 + ^ .ra: .cfa -40 + ^ x29: .cfa -48 + ^
STACK CFI 2dc68 .cfa: sp 48 +
STACK CFI 2dc74 .cfa: sp 0 +
STACK CFI 2dc78 .cfa: x29 48 +
STACK CFI 2dc9c .cfa: sp 48 +
STACK CFI 2dca8 .cfa: sp 0 +
STACK CFI 2dcac .cfa: x29 48 +
STACK CFI 2dcd8 .cfa: sp 48 +
STACK CFI 2dce4 .cfa: sp 0 +
STACK CFI INIT 2dce8 54 .cfa: sp 0 +
STACK CFI 2dcf8 .cfa: sp 32 +
STACK CFI 2dd00 .cfa: x29 32 + x19: .cfa -8 + ^ x20: .cfa -16 + ^ .ra: .cfa -24 + ^ x29: .cfa -32 + ^
STACK CFI 2dd30 .cfa: sp 32 +
STACK CFI 2dd38 .cfa: sp 0 +
STACK CFI INIT 2dd3c 88 .cfa: sp 0 +
STACK CFI 2dd40 .cfa: sp 48 +
STACK CFI 2dd4c .cfa: x29 48 + x19: .cfa -8 + ^ x20: .cfa -16 + ^ x21: .cfa -32 + ^ .ra: .cfa -40 + ^ x29: .cfa -48 + ^
STACK CFI 2dd6c .cfa: sp 48 +
STACK CFI 2dd78 .cfa: sp 0 +
STACK CFI 2dd7c .cfa: x29 48 +
STACK CFI 2dda4 .cfa: sp 48 +
STACK CFI 2ddb0 .cfa: sp 0 +
STACK CFI 2ddb4 .cfa: sp 48 +
STACK CFI 2ddc0 .cfa: sp 0 +
STACK CFI INIT 2ddc4 4 .cfa: sp 0 +
STACK CFI INIT 2ddc8 c .cfa: sp 0 +
STACK CFI 2ddcc .cfa: sp 16 +
STACK CFI 2ddd0 .cfa: x29 16 + .ra: .cfa -8 + ^ x29: .cfa -16 + ^
STACK CFI INIT 2ddd4 88 .cfa: sp 0 +
STACK CFI 2dddc .cfa: sp 48 +
STACK CFI 2dde8 .cfa: x29 48 + x19: .cfa -8 + ^ x20: .cfa -16 + ^ x21: .cfa -24 + ^ x22: .cfa -32 + ^ .ra: .cfa -40 + ^ x29: .cfa -48 + ^
STACK CFI 2de4c .cfa: sp 48 +
STACK CFI 2de58 .cfa: sp 0 +
STACK CFI INIT 2deac 30 .cfa: sp 0 +
STACK CFI 2deb0 .cfa: sp 32 +
STACK CFI 2deb8 .cfa: x29 32 + x19: .cfa -16 + ^ .ra: .cfa -24 + ^ x29: .cfa -32 + ^
STACK CFI 2ded0 .cfa: sp 32 +
STACK CFI 2ded8 .cfa: sp 0 +
STACK CFI INIT 2edc4 40 .cfa: sp 0 +
STACK CFI INIT 2f084 14 .cfa: sp 0 +
STACK CFI 2f088 .cfa: sp 16 +
STACK CFI 2f08c .cfa: x29 16 + .ra: .cfa -8 + ^ x29: .cfa -16 + ^
STACK CFI INIT 2f4b0 bc .cfa: sp 0 +
STACK CFI 2f4b4 .cfa: sp 80 +
STACK CFI 2f4c4 .cfa: x29 48 + x19: .cfa -8 + ^ x20: .cfa -16 + ^ x21: .cfa -32 + ^ .ra: .cfa -40 + ^ x29: .cfa -48 + ^
STACK CFI 2f554 .cfa: sp 80 +
STACK CFI 2f564 .cfa: sp 0 +
STACK CFI 2f568 .cfa: x29 48 +
STACK CFI INIT 2fe5c 18c .cfa: sp 0 +
STACK CFI 2fe60 .cfa: sp 80 +
STACK CFI 2fe70 .cfa: x29 48 + x19: .cfa -8 + ^ x20: .cfa -16 + ^ x21: .cfa -32 + ^ .ra: .cfa -40 + ^ x29: .cfa -48 + ^
STACK CFI 2ffd0 .cfa: sp 80 +
STACK CFI 2ffe0 .cfa: sp 0 +
STACK CFI 2ffe4 .cfa: x29 48 +
STACK CFI INIT 30a64 b4 .cfa: sp 0 +
STACK CFI 30a68 .cfa: sp 80 +
STACK CFI 30a78 .cfa: x29 48 + x19: .cfa -8 + ^ x20: .cfa -16 + ^ x21: .cfa -24 + ^ x22: .cfa -32 + ^ .ra: .cfa -40 + ^ x29: .cfa -48 + ^
STACK CFI 30b00 .cfa: sp 80 +
STACK CFI 30b10 .cfa: sp 0 +
STACK CFI 30b14 .cfa: x29 48 +
STACK CFI INIT 30c04 8 .cfa: sp 0 +
STACK CFI INIT 30c0c 68 .cfa: sp 0 +
STACK CFI 30c10 .cfa: sp 48 +
STACK CFI 30c1c .cfa: x29 48 + x19: .cfa -8 + ^ x20: .cfa -16 + ^ x21: .cfa -32 + ^ .ra: .cfa -40 + ^ x29: .cfa -48 + ^
STACK CFI 30c54 .cfa: sp 48 +
STACK CFI 30c60 .cfa: sp 0 +
STACK CFI 30c64 .cfa: sp 48 +
STACK CFI 30c70 .cfa: sp 0 +
STACK CFI INIT 335d4 14 .cfa: sp 0 +
STACK CFI 335d8 .cfa: sp 16 +
STACK CFI 335dc .cfa: x29 16 + .ra: .cfa -8 + ^ x29: .cfa -16 + ^
STACK CFI INIT 335e8 54 .cfa: sp 0 +
STACK CFI 335ec .cfa: sp 32 +
STACK CFI 335f4 .cfa: x29 32 + x19: .cfa -8 + ^ x20: .cfa -16 + ^ .ra: .cfa -24 + ^ x29: .cfa -32 + ^
STACK CFI 33624 .cfa: sp 32 +
STACK CFI 3362c .cfa: sp 0 +
STACK CFI 33630 .cfa: sp 32 +
STACK CFI 33638 .cfa: sp 0 +
STACK CFI INIT 34c20 14 .cfa: sp 0 +
STACK CFI INIT 34c34 14 .cfa: sp 0 +
STACK CFI INIT 34d9c 4 .cfa: sp 0 +
STACK CFI INIT 34da0 14 .cfa: sp 0 +
STACK CFI INIT 34db4 8 .cfa: sp 0 +
STACK CFI INIT 34dbc 14 .cfa: sp 0 +
STACK CFI INIT 34dd0 4 .cfa: sp 0 +
STACK CFI INIT 34dd4 14 .cfa: sp 0 +
STACK CFI INIT 34f18 7c .cfa: sp 0 +
STACK CFI 34f1c .cfa: sp 48 +
STACK CFI 34f28 .cfa: x29 48 + x19: .cfa -8 + ^ x20: .cfa -16 + ^ x21: .cfa -24 + ^ x22: .cfa -32 + ^ .ra: .cfa -40 + ^ x29: .cfa -48 + ^
STACK CFI 34f30 .cfa: sp 48 +
STACK CFI 34f3c .cfa: sp 0 +
STACK CFI 34f40 .cfa: x29 48 +
STACK CFI 34f84 .cfa: sp 48 +
STACK CFI 34f90 .cfa: sp 0 +
STACK CFI INIT 34f94 68 .cfa: sp 0 +
STACK CFI 34f98 .cfa: sp 48 +
STACK CFI 34fa4 .cfa: x29 48 + x19: .cfa -8 + ^ x20: .cfa -16 + ^ x21: .cfa -32 + ^ .ra: .cfa -40 + ^ x29: .cfa -48 + ^
STACK CFI 34fdc .cfa: sp 48 +
STACK CFI 34fe8 .cfa: sp 0 +
STACK CFI 34fec .cfa: sp 48 +
STACK CFI 34ff8 .cfa: sp 0 +
STACK CFI INIT 34ffc 14 .cfa: sp 0 +
STACK CFI INIT 35348 68 .cfa: sp 0 +
STACK CFI 3534c .cfa: sp 48 +
STACK CFI 35358 .cfa: x29 48 + x19: .cfa -8 + ^ x20: .cfa -16 + ^ x21: .cfa -32 + ^ .ra: .cfa -40 + ^ x29: .cfa -48 + ^
STACK CFI 35390 .cfa: sp 48 +
STACK CFI 3539c .cfa: sp 0 +
STACK CFI 353a0 .cfa: sp 48 +
STACK CFI 353ac .cfa: sp 0 +
STACK CFI INIT 353b0 14 .cfa: sp 0 +
STACK CFI 353b4 .cfa: sp 16 +
STACK CFI 353b8 .cfa: x29 16 + .ra: .cfa -8 + ^ x29: .cfa -16 + ^
STACK CFI INIT 35de4 64 .cfa: sp 0 +
STACK CFI 35de8 .cfa: sp 32 +
STACK CFI 35df0 .cfa: x29 32 + x19: .cfa -16 + ^ .ra: .cfa -24 + ^ x29: .cfa -32 + ^
STACK CFI 35e3c .cfa: sp 32 +
STACK CFI 35e44 .cfa: sp 0 +
STACK CFI INIT 35e48 6c .cfa: sp 0 +
STACK CFI 35e4c .cfa: sp 32 +
STACK CFI 35e54 .cfa: x29 32 + x19: .cfa -16 + ^ .ra: .cfa -24 + ^ x29: .cfa -32 + ^
STACK CFI 35ea8 .cfa: sp 32 +
STACK CFI 35eb0 .cfa: sp 0 +
STACK CFI INIT 35eb4 c0 .cfa: sp 0 +
STACK CFI 35eb8 .cfa: sp 64 +
STACK CFI 35ec4 .cfa: x29 32 + x19: .cfa -8 + ^ x20: .cfa -16 + ^ .ra: .cfa -24 + ^ x29: .cfa -32 + ^
STACK CFI 35f60 .cfa: sp 64 +
STACK CFI 35f6c .cfa: sp 0 +
STACK CFI 35f70 .cfa: x29 32 +
STACK CFI INIT 35f74 64 .cfa: sp 0 +
STACK CFI 35f78 .cfa: sp 32 +
STACK CFI 35f80 .cfa: x29 32 + x19: .cfa -16 + ^ .ra: .cfa -24 + ^ x29: .cfa -32 + ^
STACK CFI 35fcc .cfa: sp 32 +
STACK CFI 35fd4 .cfa: sp 0 +
STACK CFI INIT 35fd8 6c .cfa: sp 0 +
STACK CFI 35fdc .cfa: sp 32 +
STACK CFI 35fe4 .cfa: x29 32 + x19: .cfa -16 + ^ .ra: .cfa -24 + ^ x29: .cfa -32 + ^
STACK CFI 36038 .cfa: sp 32 +
STACK CFI 36040 .cfa: sp 0 +
STACK CFI INIT 36274 a8 .cfa: sp 0 +
STACK CFI 36278 .cfa: sp 64 +
STACK CFI 36288 .cfa: x29 64 + x19: .cfa -8 + ^ x20: .cfa -16 + ^ x21: .cfa -24 + ^ x22: .cfa -32 + ^ x23: .cfa -48 + ^ .ra: .cfa -56 + ^ x29: .cfa -64 + ^
STACK CFI 36308 .cfa: sp 64 +
STACK CFI 36318 .cfa: sp 0 +
STACK CFI INIT 3631c ac .cfa: sp 0 +
STACK CFI 36320 .cfa: sp 64 +
STACK CFI 36330 .cfa: x29 64 + x19: .cfa -8 + ^ x20: .cfa -16 + ^ x21: .cfa -24 + ^ x22: .cfa -32 + ^ x23: .cfa -48 + ^ .ra: .cfa -56 + ^ x29: .cfa -64 + ^
STACK CFI 363ac .cfa: sp 64 +
STACK CFI 363bc .cfa: sp 0 +
STACK CFI 363c0 .cfa: x29 64 +
STACK CFI INIT 363c8 110 .cfa: sp 0 +
STACK CFI 363cc .cfa: sp 64 +
STACK CFI 363dc .cfa: x29 64 + x19: .cfa -8 + ^ x20: .cfa -16 + ^ x21: .cfa -24 + ^ x22: .cfa -32 + ^ x23: .cfa -40 + ^ x24: .cfa -48 + ^ .ra: .cfa -56 + ^ x29: .cfa -64 + ^
STACK CFI 364bc .cfa: sp 64 +
STACK CFI 364cc .cfa: sp 0 +
STACK CFI 364d0 .cfa: x29 64 +
STACK CFI INIT 364d8 290 .cfa: sp 0 +
STACK CFI 364dc .cfa: sp 48 +
STACK CFI 364e8 .cfa: x29 48 + x19: .cfa -8 + ^ x20: .cfa -16 + ^ x21: .cfa -24 + ^ x22: .cfa -32 + ^ .ra: .cfa -40 + ^ x29: .cfa -48 + ^
STACK CFI 36758 .cfa: sp 48 +
STACK CFI 36764 .cfa: sp 0 +
STACK CFI INIT 36d40 4 .cfa: sp 0 +
STACK CFI INIT 38308 8 .cfa: sp 0 +
STACK CFI INIT 38310 14 .cfa: sp 0 +
STACK CFI INIT 38324 4 .cfa: sp 0 +
STACK CFI INIT 38328 14 .cfa: sp 0 +
STACK CFI INIT 3833c 298 .cfa: sp 0 +
STACK CFI 38340 .cfa: sp 112 +
STACK CFI 38354 .cfa: x29 48 + x19: .cfa -8 + ^ x20: .cfa -16 + ^ x21: .cfa -32 + ^ .ra: .cfa -40 + ^ x29: .cfa -48 + ^ v8: .cfa -56 + ^ v9: .cfa -64 + ^
STACK CFI 385b8 .cfa: sp 112 +
STACK CFI 385cc .cfa: sp 0 +
STACK CFI 385d0 .cfa: x29 48 +
STACK CFI INIT 385d4 1b0 .cfa: sp 0 +
STACK CFI INIT 38784 1c .cfa: sp 0 +
STACK CFI INIT 387a0 3c .cfa: sp 0 +
STACK CFI 387a4 .cfa: sp 32 +
STACK CFI 387ac .cfa: x29 32 + x19: .cfa -16 + ^ .ra: .cfa -24 + ^ x29: .cfa -32 + ^
STACK CFI 387b8 .cfa: sp 32 +
STACK CFI 387c0 .cfa: sp 0 +
STACK CFI 387c4 .cfa: x29 32 +
STACK CFI 387d0 .cfa: sp 32 +
STACK CFI 387d8 .cfa: sp 0 +
STACK CFI INIT 387dc 4c .cfa: sp 0 +
STACK CFI 387e0 .cfa: sp 32 +
STACK CFI 387e8 .cfa: x29 32 + x19: .cfa -8 + ^ x20: .cfa -16 + ^ .ra: .cfa -24 + ^ x29: .cfa -32 + ^
STACK CFI 38810 .cfa: sp 32 +
STACK CFI 38818 .cfa: sp 0 +
STACK CFI 3881c .cfa: sp 32 +
STACK CFI 38824 .cfa: sp 0 +
STACK CFI INIT 38a48 64 .cfa: sp 0 +
STACK CFI 38a4c .cfa: sp 32 +
STACK CFI 38a54 .cfa: x29 32 + x19: .cfa -16 + ^ .ra: .cfa -24 + ^ x29: .cfa -32 + ^
STACK CFI 38a80 .cfa: sp 32 +
STACK CFI 38a88 .cfa: sp 0 +
STACK CFI 38a8c .cfa: x29 32 +
STACK CFI 38aa0 .cfa: sp 32 +
STACK CFI 38aa8 .cfa: sp 0 +
STACK CFI INIT 38cb4 24 .cfa: sp 0 +
STACK CFI 38cb8 .cfa: sp 32 +
STACK CFI 38cc0 .cfa: x29 32 + x19: .cfa -16 + ^ .ra: .cfa -24 + ^ x29: .cfa -32 + ^
STACK CFI 38ccc .cfa: sp 32 +
STACK CFI 38cd4 .cfa: sp 0 +
STACK CFI INIT 38cd8 24 .cfa: sp 0 +
STACK CFI 38cdc .cfa: sp 32 +
STACK CFI 38ce4 .cfa: x29 32 + x19: .cfa -16 + ^ .ra: .cfa -24 + ^ x29: .cfa -32 + ^
STACK CFI 38cf0 .cfa: sp 32 +
STACK CFI 38cf8 .cfa: sp 0 +
STACK CFI INIT 38cfc 8 .cfa: sp 0 +
STACK CFI INIT 38d04 24 .cfa: sp 0 +
STACK CFI 38d08 .cfa: sp 32 +
STACK CFI 38d10 .cfa: x29 32 + x19: .cfa -16 + ^ .ra: .cfa -24 + ^ x29: .cfa -32 + ^
STACK CFI 38d1c .cfa: sp 32 +
STACK CFI 38d24 .cfa: sp 0 +
STACK CFI INIT 38d28 28 .cfa: sp 0 +
STACK CFI 38d2c .cfa: sp 32 +
STACK CFI 38d34 .cfa: x29 32 + x19: .cfa -16 + ^ .ra: .cfa -24 + ^ x29: .cfa -32 + ^
STACK CFI 38d44 .cfa: sp 32 +
STACK CFI 38d4c .cfa: sp 0 +
STACK CFI INIT 39028 8 .cfa: sp 0 +
STACK CFI INIT 39030 24 .cfa: sp 0 +
STACK CFI 39034 .cfa: sp 32 +
STACK CFI 3903c .cfa: x29 32 + x19: .cfa -16 + ^ .ra: .cfa -24 + ^ x29: .cfa -32 + ^
STACK CFI 39048 .cfa: sp 32 +
STACK CFI 39050 .cfa: sp 0 +
STACK CFI INIT 39054 28 .cfa: sp 0 +
STACK CFI 39058 .cfa: sp 32 +
STACK CFI 39060 .cfa: x29 32 + x19: .cfa -16 + ^ .ra: .cfa -24 + ^ x29: .cfa -32 + ^
STACK CFI 39070 .cfa: sp 32 +
STACK CFI 39078 .cfa: sp 0 +
STACK CFI INIT 392cc 8 .cfa: sp 0 +
STACK CFI INIT 392d4 24 .cfa: sp 0 +
STACK CFI 392d8 .cfa: sp 32 +
STACK CFI 392e0 .cfa: x29 32 + x19: .cfa -16 + ^ .ra: .cfa -24 + ^ x29: .cfa -32 + ^
STACK CFI 392ec .cfa: sp 32 +
STACK CFI 392f4 .cfa: sp 0 +
STACK CFI INIT 392f8 28 .cfa: sp 0 +
STACK CFI 392fc .cfa: sp 32 +
STACK CFI 39304 .cfa: x29 32 + x19: .cfa -16 + ^ .ra: .cfa -24 + ^ x29: .cfa -32 + ^
STACK CFI 39314 .cfa: sp 32 +
STACK CFI 3931c .cfa: sp 0 +
STACK CFI INIT 39320 8 .cfa: sp 0 +
STACK CFI INIT 39328 24 .cfa: sp 0 +
STACK CFI 3932c .cfa: sp 32 +
STACK CFI 39334 .cfa: x29 32 + x19: .cfa -16 + ^ .ra: .cfa -24 + ^ x29: .cfa -32 + ^
STACK CFI 39340 .cfa: sp 32 +
STACK CFI 39348 .cfa: sp 0 +
STACK CFI INIT 3934c 28 .cfa: sp 0 +
STACK CFI 39350 .cfa: sp 32 +
STACK CFI 39358 .cfa: x29 32 + x19: .cfa -16 + ^ .ra: .cfa -24 + ^ x29: .cfa -32 + ^
STACK CFI 39368 .cfa: sp 32 +
STACK CFI 39370 .cfa: sp 0 +
STACK CFI INIT 39744 1f8 .cfa: sp 0 +
STACK CFI 39748 .cfa: sp 112 +
STACK CFI 39768 .cfa: x29 72 + x19: .cfa -8 + ^ x20: .cfa -16 + ^ x21: .cfa -24 + ^ x22: .cfa -32 + ^ x23: .cfa -40 + ^ x24: .cfa -48 + ^ x25: .cfa -56 + ^ .ra: .cfa -64 + ^ x29: .cfa -72 + ^ v8: .cfa -80 + ^ v9: .cfa -88 + ^ v10: .cfa -96 + ^
STACK CFI 39914 .cfa: sp 112 +
STACK CFI 39934 .cfa: sp 0 +
STACK CFI 39938 .cfa: x29 72 +
STACK CFI INIT 39a88 4 .cfa: sp 0 +
STACK CFI INIT 3ab64 4 .cfa: sp 0 +
STACK CFI INIT 3ab68 14 .cfa: sp 0 +
STACK CFI INIT 3b05c c .cfa: sp 0 +
STACK CFI INIT 3b068 24c .cfa: sp 0 +
STACK CFI INIT 3b2b4 a0 .cfa: sp 0 +
STACK CFI 3b2c0 .cfa: sp 32 +
STACK CFI 3b318 .cfa: sp 0 +
STACK CFI 3b31c .cfa: sp 32 +
STACK CFI 3b324 .cfa: sp 0 +
STACK CFI 3b328 .cfa: sp 32 +
STACK CFI 3b33c .cfa: sp 0 +
STACK CFI 3b340 .cfa: sp 32 +
STACK CFI 3b350 .cfa: sp 0 +
STACK CFI INIT 3b354 38 .cfa: sp 0 +
STACK CFI 3b360 .cfa: sp 32 +
STACK CFI 3b388 .cfa: sp 0 +
STACK CFI INIT 3b620 7c .cfa: sp 0 +
STACK CFI 3b624 .cfa: sp 32 +
STACK CFI 3b62c .cfa: x29 32 + x19: .cfa -16 + ^ .ra: .cfa -24 + ^ x29: .cfa -32 + ^
STACK CFI 3b658 .cfa: sp 32 +
STACK CFI 3b660 .cfa: sp 0 +
STACK CFI 3b664 .cfa: x29 32 +
STACK CFI 3b690 .cfa: sp 32 +
STACK CFI 3b698 .cfa: sp 0 +
STACK CFI INIT 3b6ec 2c .cfa: sp 0 +
STACK CFI 3b6f0 .cfa: sp 32 +
STACK CFI 3b6f8 .cfa: x29 32 + x19: .cfa -16 + ^ .ra: .cfa -24 + ^ x29: .cfa -32 + ^
STACK CFI 3b70c .cfa: sp 32 +
STACK CFI 3b714 .cfa: sp 0 +
STACK CFI INIT 3bed8 64 .cfa: sp 0 +
STACK CFI 3bedc .cfa: sp 32 +
STACK CFI 3bee4 .cfa: x29 32 + x19: .cfa -16 + ^ .ra: .cfa -24 + ^ x29: .cfa -32 + ^
STACK CFI 3bf00 .cfa: sp 32 +
STACK CFI 3bf08 .cfa: sp 0 +
STACK CFI 3bf0c .cfa: x29 32 +
STACK CFI 3bf30 .cfa: sp 32 +
STACK CFI 3bf38 .cfa: sp 0 +
STACK CFI INIT 3c078 570 .cfa: sp 0 +
STACK CFI 3c07c .cfa: sp 176 +
STACK CFI 3c090 .cfa: x29 64 + x19: .cfa -8 + ^ x20: .cfa -16 + ^ x21: .cfa -24 + ^ x22: .cfa -32 + ^ x23: .cfa -40 + ^ x24: .cfa -48 + ^ .ra: .cfa -56 + ^ x29: .cfa -64 + ^
STACK CFI 3c2c0 .cfa: sp 176 +
STACK CFI 3c2d4 .cfa: sp 0 +
STACK CFI 3c2d8 .cfa: x29 64 +
STACK CFI 3c324 .cfa: sp 176 +
STACK CFI 3c338 .cfa: sp 0 +
STACK CFI 3c33c .cfa: x29 64 +
STACK CFI 3c374 .cfa: sp 176 +
STACK CFI 3c388 .cfa: sp 0 +
STACK CFI 3c38c .cfa: x29 64 +
STACK CFI 3c3a4 .cfa: sp 176 +
STACK CFI 3c3b8 .cfa: sp 0 +
STACK CFI 3c3bc .cfa: x29 64 +
STACK CFI 3c3dc .cfa: sp 176 +
STACK CFI 3c3f0 .cfa: sp 0 +
STACK CFI 3c3f4 .cfa: x29 64 +
STACK CFI 3c40c .cfa: sp 176 +
STACK CFI 3c420 .cfa: sp 0 +
STACK CFI 3c424 .cfa: x29 64 +
STACK CFI 3c438 .cfa: sp 176 +
STACK CFI 3c44c .cfa: sp 0 +
STACK CFI 3c450 .cfa: x29 64 +
STACK CFI 3c464 .cfa: sp 176 +
STACK CFI 3c478 .cfa: sp 0 +
STACK CFI 3c47c .cfa: x29 64 +
STACK CFI 3c48c .cfa: sp 176 +
STACK CFI 3c4a0 .cfa: sp 0 +
STACK CFI 3c4a4 .cfa: x29 64 +
STACK CFI 3c4b4 .cfa: sp 176 +
STACK CFI 3c4c8 .cfa: sp 0 +
STACK CFI 3c4cc .cfa: x29 64 +
STACK CFI 3c4e4 .cfa: sp 176 +
STACK CFI 3c4f8 .cfa: sp 0 +
STACK CFI 3c4fc .cfa: x29 64 +
STACK CFI 3c510 .cfa: sp 176 +
STACK CFI 3c524 .cfa: sp 0 +
STACK CFI 3c528 .cfa: x29 64 +
STACK CFI 3c540 .cfa: sp 176 +
STACK CFI 3c554 .cfa: sp 0 +
STACK CFI 3c558 .cfa: x29 64 +
STACK CFI 3c584 .cfa: sp 176 +
STACK CFI 3c598 .cfa: sp 0 +
STACK CFI 3c59c .cfa: x29 64 +
STACK CFI 3c5b0 .cfa: sp 176 +
STACK CFI 3c5c4 .cfa: sp 0 +
STACK CFI 3c5c8 .cfa: x29 64 +
STACK CFI INIT 3c5e8 228 .cfa: sp 0 +
STACK CFI INIT 3c810 2dc .cfa: sp 0 +
STACK CFI INIT 3caec 53c .cfa: sp 0 +
STACK CFI INIT 3d028 78 .cfa: sp 0 +
STACK CFI 3d02c .cfa: sp 48 +
STACK CFI 3d038 .cfa: x29 48 + x19: .cfa -8 + ^ x20: .cfa -16 + ^ x21: .cfa -24 + ^ x22: .cfa -32 + ^ .ra: .cfa -40 + ^ x29: .cfa -48 + ^
STACK CFI 3d080 .cfa: sp 48 +
STACK CFI 3d08c .cfa: sp 0 +
STACK CFI 3d090 .cfa: sp 48 +
STACK CFI 3d09c .cfa: sp 0 +
STACK CFI INIT 3d0a0 8c .cfa: sp 0 +
STACK CFI 3d0a4 .cfa: sp 32 +
STACK CFI 3d0ac .cfa: x29 32 + x19: .cfa -16 + ^ .ra: .cfa -24 + ^ x29: .cfa -32 + ^
STACK CFI 3d0e0 .cfa: sp 32 +
STACK CFI 3d0e8 .cfa: sp 0 +
STACK CFI 3d0ec .cfa: x29 32 +
STACK CFI 3d120 .cfa: sp 32 +
STACK CFI 3d128 .cfa: sp 0 +
STACK CFI INIT 3d12c 24 .cfa: sp 0 +
STACK CFI 3d130 .cfa: sp 32 +
STACK CFI 3d138 .cfa: x29 32 + x19: .cfa -16 + ^ .ra: .cfa -24 + ^ x29: .cfa -32 + ^
STACK CFI 3d144 .cfa: sp 32 +
STACK CFI 3d14c .cfa: sp 0 +
STACK CFI INIT 3d150 150 .cfa: sp 0 +
STACK CFI 3d154 .cfa: sp 48 +
STACK CFI 3d160 .cfa: x29 48 + x19: .cfa -8 + ^ x20: .cfa -16 + ^ x21: .cfa -24 + ^ x22: .cfa -32 + ^ .ra: .cfa -40 + ^ x29: .cfa -48 + ^
STACK CFI 3d290 .cfa: sp 48 +
STACK CFI 3d29c .cfa: sp 0 +
STACK CFI INIT 3d2a0 68 .cfa: sp 0 +
STACK CFI 3d2a4 .cfa: sp 64 +
STACK CFI 3d2b0 .cfa: x29 32 + x19: .cfa -16 + ^ .ra: .cfa -24 + ^ x29: .cfa -32 + ^
STACK CFI 3d2f4 .cfa: sp 64 +
STACK CFI 3d300 .cfa: sp 0 +
STACK CFI 3d304 .cfa: x29 32 +
STACK CFI INIT 3d308 90 .cfa: sp 0 +
STACK CFI 3d30c .cfa: sp 32 +
STACK CFI 3d314 .cfa: x29 32 + x19: .cfa -8 + ^ x20: .cfa -16 + ^ .ra: .cfa -24 + ^ x29: .cfa -32 + ^
STACK CFI 3d340 .cfa: sp 32 +
STACK CFI 3d348 .cfa: sp 0 +
STACK CFI 3d34c .cfa: x29 32 +
STACK CFI 3d38c .cfa: sp 32 +
STACK CFI 3d394 .cfa: sp 0 +
STACK CFI INIT 3d398 ec .cfa: sp 0 +
STACK CFI 3d39c .cfa: sp 112 +
STACK CFI 3d3ac .cfa: x29 48 + x19: .cfa -8 + ^ x20: .cfa -16 + ^ x21: .cfa -32 + ^ .ra: .cfa -40 + ^ x29: .cfa -48 + ^
STACK CFI 3d46c .cfa: sp 112 +
STACK CFI 3d47c .cfa: sp 0 +
STACK CFI 3d480 .cfa: x29 48 +
STACK CFI INIT 3d484 ec .cfa: sp 0 +
STACK CFI 3d488 .cfa: sp 112 +
STACK CFI 3d498 .cfa: x29 48 + x19: .cfa -8 + ^ x20: .cfa -16 + ^ x21: .cfa -32 + ^ .ra: .cfa -40 + ^ x29: .cfa -48 + ^
STACK CFI 3d558 .cfa: sp 112 +
STACK CFI 3d568 .cfa: sp 0 +
STACK CFI 3d56c .cfa: x29 48 +
STACK CFI INIT 3d570 48 .cfa: sp 0 +
STACK CFI 3d574 .cfa: sp 32 +
STACK CFI 3d57c .cfa: x29 32 + x19: .cfa -8 + ^ x20: .cfa -16 + ^ .ra: .cfa -24 + ^ x29: .cfa -32 + ^
STACK CFI 3d5a0 .cfa: sp 32 +
STACK CFI 3d5a8 .cfa: sp 0 +
STACK CFI 3d5ac .cfa: x29 32 +
STACK CFI INIT 3d5b8 98 .cfa: sp 0 +
STACK CFI 3d5bc .cfa: sp 80 +
STACK CFI 3d5c8 .cfa: x29 32 + x19: .cfa -16 + ^ .ra: .cfa -24 + ^ x29: .cfa -32 + ^
STACK CFI 3d63c .cfa: sp 80 +
STACK CFI 3d648 .cfa: sp 0 +
STACK CFI 3d64c .cfa: x29 32 +
STACK CFI INIT 3d650 260 .cfa: sp 0 +
STACK CFI 3d654 .cfa: sp 112 +
STACK CFI 3d66c .cfa: x29 80 + x19: .cfa -8 + ^ x20: .cfa -16 + ^ x21: .cfa -24 + ^ x22: .cfa -32 + ^ x23: .cfa -40 + ^ x24: .cfa -48 + ^ x25: .cfa -64 + ^ .ra: .cfa -72 + ^ x29: .cfa -80 + ^
STACK CFI 3d850 .cfa: sp 112 +
STACK CFI 3d868 .cfa: sp 0 +
STACK CFI 3d86c .cfa: x29 80 +
STACK CFI INIT 3d8b0 150 .cfa: sp 0 +
STACK CFI 3d8b4 .cfa: sp 48 +
STACK CFI 3d8c0 .cfa: x29 48 + x19: .cfa -8 + ^ x20: .cfa -16 + ^ x21: .cfa -24 + ^ x22: .cfa -32 + ^ .ra: .cfa -40 + ^ x29: .cfa -48 + ^
STACK CFI 3d9f0 .cfa: sp 48 +
STACK CFI 3d9fc .cfa: sp 0 +
STACK CFI INIT 3da00 1e0 .cfa: sp 0 +
STACK CFI 3da04 .cfa: sp 96 +
STACK CFI 3da18 .cfa: x29 64 + x19: .cfa -8 + ^ x20: .cfa -16 + ^ x21: .cfa -24 + ^ x22: .cfa -32 + ^ x23: .cfa -40 + ^ x24: .cfa -48 + ^ .ra: .cfa -56 + ^ x29: .cfa -64 + ^
STACK CFI 3db98 .cfa: sp 96 +
STACK CFI 3dbac .cfa: sp 0 +
STACK CFI 3dbb0 .cfa: x29 64 +
STACK CFI INIT 3dbe0 284 .cfa: sp 0 +
STACK CFI 3dbe4 .cfa: sp 112 +
STACK CFI 3dbfc .cfa: x29 80 + x19: .cfa -8 + ^ x20: .cfa -16 + ^ x21: .cfa -24 + ^ x22: .cfa -32 + ^ x23: .cfa -40 + ^ x24: .cfa -48 + ^ x25: .cfa -64 + ^ .ra: .cfa -72 + ^ x29: .cfa -80 + ^
STACK CFI 3de04 .cfa: sp 112 +
STACK CFI 3de1c .cfa: sp 0 +
STACK CFI 3de20 .cfa: x29 80 +
STACK CFI INIT 3de64 208 .cfa: sp 0 +
STACK CFI 3de68 .cfa: sp 96 +
STACK CFI 3de7c .cfa: x29 64 + x19: .cfa -8 + ^ x20: .cfa -16 + ^ x21: .cfa -24 + ^ x22: .cfa -32 + ^ x23: .cfa -40 + ^ x24: .cfa -48 + ^ .ra: .cfa -56 + ^ x29: .cfa -64 + ^
STACK CFI 3e024 .cfa: sp 96 +
STACK CFI 3e038 .cfa: sp 0 +
STACK CFI 3e03c .cfa: x29 64 +
STACK CFI INIT 3e06c 360 .cfa: sp 0 +
STACK CFI 3e070 .cfa: sp 160 +
STACK CFI 3e08c .cfa: x29 96 + x19: .cfa -8 + ^ x20: .cfa -16 + ^ x21: .cfa -24 + ^ x22: .cfa -32 + ^ x23: .cfa -40 + ^ x24: .cfa -48 + ^ x25: .cfa -56 + ^ x26: .cfa -64 + ^ x27: .cfa -72 + ^ x28: .cfa -80 + ^ .ra: .cfa -88 + ^ x29: .cfa -96 + ^
STACK CFI 3e358 .cfa: sp 160 +
STACK CFI 3e374 .cfa: sp 0 +
STACK CFI 3e378 .cfa: x29 96 +
STACK CFI INIT 3e3cc 314 .cfa: sp 0 +
STACK CFI 3e3d0 .cfa: sp 144 +
STACK CFI 3e3ec .cfa: x29 96 + x19: .cfa -8 + ^ x20: .cfa -16 + ^ x21: .cfa -24 + ^ x22: .cfa -32 + ^ x23: .cfa -40 + ^ x24: .cfa -48 + ^ x25: .cfa -56 + ^ x26: .cfa -64 + ^ x27: .cfa -72 + ^ x28: .cfa -80 + ^ .ra: .cfa -88 + ^ x29: .cfa -96 + ^
STACK CFI 3e668 .cfa: sp 144 +
STACK CFI 3e684 .cfa: sp 0 +
STACK CFI 3e688 .cfa: x29 96 +
STACK CFI INIT 3e6e0 290 .cfa: sp 0 +
STACK CFI 3e6e4 .cfa: sp 128 +
STACK CFI 3e6fc .cfa: x29 80 + x19: .cfa -8 + ^ x20: .cfa -16 + ^ x21: .cfa -24 + ^ x22: .cfa -32 + ^ x23: .cfa -40 + ^ x24: .cfa -48 + ^ x25: .cfa -56 + ^ x26: .cfa -64 + ^ .ra: .cfa -72 + ^ x29: .cfa -80 + ^
STACK CFI 3e950 .cfa: sp 128 +
STACK CFI 3e968 .cfa: sp 0 +
STACK CFI 3e96c .cfa: x29 80 +
STACK CFI INIT 3e970 ddc .cfa: sp 0 +
STACK CFI 3e974 .cfa: sp 144 +
STACK CFI 3e990 .cfa: x29 96 + x19: .cfa -8 + ^ x20: .cfa -16 + ^ x21: .cfa -24 + ^ x22: .cfa -32 + ^ x23: .cfa -40 + ^ x24: .cfa -48 + ^ x25: .cfa -56 + ^ x26: .cfa -64 + ^ x27: .cfa -72 + ^ x28: .cfa -80 + ^ .ra: .cfa -88 + ^ x29: .cfa -96 + ^
STACK CFI 3f624 .cfa: sp 144 +
STACK CFI 3f640 .cfa: sp 0 +
STACK CFI 3f644 .cfa: x29 96 +
STACK CFI INIT 3f74c 1d0 .cfa: sp 0 +
STACK CFI 3f750 .cfa: sp 80 +
STACK CFI 3f764 .cfa: x29 80 + x19: .cfa -8 + ^ x20: .cfa -16 + ^ x21: .cfa -24 + ^ x22: .cfa -32 + ^ x23: .cfa -40 + ^ x24: .cfa -48 + ^ x25: .cfa -64 + ^ .ra: .cfa -72 + ^ x29: .cfa -80 + ^
STACK CFI 3f904 .cfa: sp 80 +
STACK CFI 3f918 .cfa: sp 0 +
STACK CFI INIT 3f91c 23c .cfa: sp 0 +
STACK CFI 3f920 .cfa: sp 112 +
STACK CFI 3f934 .cfa: x29 64 + x19: .cfa -8 + ^ x20: .cfa -16 + ^ x21: .cfa -24 + ^ x22: .cfa -32 + ^ x23: .cfa -40 + ^ x24: .cfa -48 + ^ .ra: .cfa -56 + ^ x29: .cfa -64 + ^
STACK CFI 3fb10 .cfa: sp 112 +
STACK CFI 3fb24 .cfa: sp 0 +
STACK CFI 3fb28 .cfa: x29 64 +
STACK CFI INIT 3fb58 30c .cfa: sp 0 +
STACK CFI 3fb5c .cfa: sp 80 +
STACK CFI 3fb70 .cfa: x29 64 + x19: .cfa -8 + ^ x20: .cfa -16 + ^ x21: .cfa -24 + ^ x22: .cfa -32 + ^ x23: .cfa -40 + ^ x24: .cfa -48 + ^ .ra: .cfa -56 + ^ x29: .cfa -64 + ^
STACK CFI 3fcec .cfa: sp 80 +
STACK CFI 3fd00 .cfa: sp 0 +
STACK CFI 3fd04 .cfa: x29 64 +
STACK CFI INIT 3fe64 178 .cfa: sp 0 +
STACK CFI 3fe68 .cfa: sp 80 +
STACK CFI 3fe7c .cfa: x29 64 + x19: .cfa -8 + ^ x20: .cfa -16 + ^ x21: .cfa -24 + ^ x22: .cfa -32 + ^ x23: .cfa -40 + ^ x24: .cfa -48 + ^ .ra: .cfa -56 + ^ x29: .cfa -64 + ^
STACK CFI 3ffc0 .cfa: sp 80 +
STACK CFI 3ffd4 .cfa: sp 0 +
STACK CFI 3ffd8 .cfa: x29 64 +
STACK CFI INIT 3ffdc 178 .cfa: sp 0 +
STACK CFI 3ffe0 .cfa: sp 80 +
STACK CFI 3fff4 .cfa: x29 64 + x19: .cfa -8 + ^ x20: .cfa -16 + ^ x21: .cfa -24 + ^ x22: .cfa -32 + ^ x23: .cfa -40 + ^ x24: .cfa -48 + ^ .ra: .cfa -56 + ^ x29: .cfa -64 + ^
STACK CFI 40138 .cfa: sp 80 +
STACK CFI 4014c .cfa: sp 0 +
STACK CFI 40150 .cfa: x29 64 +
STACK CFI INIT 40154 240 .cfa: sp 0 +
STACK CFI 40158 .cfa: sp 96 +
STACK CFI 40170 .cfa: x29 96 + x19: .cfa -8 + ^ x20: .cfa -16 + ^ x21: .cfa -24 + ^ x22: .cfa -32 + ^ x23: .cfa -40 + ^ x24: .cfa -48 + ^ x25: .cfa -56 + ^ x26: .cfa -64 + ^ x27: .cfa -72 + ^ x28: .cfa -80 + ^ .ra: .cfa -88 + ^ x29: .cfa -96 + ^
STACK CFI 40378 .cfa: sp 96 +
STACK CFI 40390 .cfa: sp 0 +
STACK CFI INIT 41008 154 .cfa: sp 0 +
STACK CFI 4100c .cfa: sp 96 +
STACK CFI 41020 .cfa: x29 64 + x19: .cfa -8 + ^ x20: .cfa -16 + ^ x21: .cfa -24 + ^ x22: .cfa -32 + ^ x23: .cfa -48 + ^ .ra: .cfa -56 + ^ x29: .cfa -64 + ^
STACK CFI 41100 .cfa: sp 96 +
STACK CFI 41114 .cfa: sp 0 +
STACK CFI 41118 .cfa: x29 64 +
STACK CFI INIT 413c8 44 .cfa: sp 0 +
STACK CFI 413cc .cfa: sp 32 +
STACK CFI 413d4 .cfa: x29 32 + x19: .cfa -16 + ^ .ra: .cfa -24 + ^ x29: .cfa -32 + ^
STACK CFI 413f0 .cfa: sp 32 +
STACK CFI 413f8 .cfa: sp 0 +
STACK CFI 413fc .cfa: x29 32 +
STACK CFI 41400 .cfa: sp 32 +
STACK CFI 41408 .cfa: sp 0 +
STACK CFI INIT 4140c 1d0 .cfa: sp 0 +
STACK CFI 41410 .cfa: sp 64 +
STACK CFI 41420 .cfa: x29 64 + x19: .cfa -8 + ^ x20: .cfa -16 + ^ x21: .cfa -24 + ^ x22: .cfa -32 + ^ x23: .cfa -40 + ^ x24: .cfa -48 + ^ .ra: .cfa -56 + ^ x29: .cfa -64 + ^
STACK CFI 414e0 .cfa: sp 64 +
STACK CFI 414f0 .cfa: sp 0 +
STACK CFI 414f4 .cfa: x29 64 +
STACK CFI INIT 415dc 17c .cfa: sp 0 +
STACK CFI INIT 41b10 a0 .cfa: sp 0 +
STACK CFI 41b14 .cfa: sp 48 +
STACK CFI 41b20 .cfa: x29 48 + x19: .cfa -8 + ^ x20: .cfa -16 + ^ x21: .cfa -24 + ^ x22: .cfa -32 + ^ .ra: .cfa -40 + ^ x29: .cfa -48 + ^
STACK CFI 41b8c .cfa: sp 48 +
STACK CFI 41b98 .cfa: sp 0 +
STACK CFI 41b9c .cfa: sp 48 +
STACK CFI 41ba8 .cfa: sp 0 +
STACK CFI 41bac .cfa: x29 48 +
STACK CFI INIT 42864 158 .cfa: sp 0 +
STACK CFI 42868 .cfa: sp 96 +
STACK CFI 4287c .cfa: x29 64 + x19: .cfa -8 + ^ x20: .cfa -16 + ^ x21: .cfa -24 + ^ x22: .cfa -32 + ^ x23: .cfa -48 + ^ .ra: .cfa -56 + ^ x29: .cfa -64 + ^
STACK CFI 42960 .cfa: sp 96 +
STACK CFI 42974 .cfa: sp 0 +
STACK CFI 42978 .cfa: x29 64 +
STACK CFI INIT 429bc 190 .cfa: sp 0 +
STACK CFI INIT 43648 1dc .cfa: sp 0 +
STACK CFI 4364c .cfa: sp 80 +
STACK CFI 43660 .cfa: x29 80 + x19: .cfa -8 + ^ x20: .cfa -16 + ^ x21: .cfa -24 + ^ x22: .cfa -32 + ^ x23: .cfa -40 + ^ x24: .cfa -48 + ^ x25: .cfa -64 + ^ .ra: .cfa -72 + ^ x29: .cfa -80 + ^
STACK CFI 4380c .cfa: sp 80 +
STACK CFI 43820 .cfa: sp 0 +
STACK CFI INIT 44c54 124 .cfa: sp 0 +
STACK CFI 44c84 .cfa: sp 32 +
STACK CFI 44c8c .cfa: x29 32 + x19: .cfa -8 + ^ x20: .cfa -16 + ^ .ra: .cfa -24 + ^ x29: .cfa -32 + ^
STACK CFI 44d6c .cfa: sp 32 +
STACK CFI 44d74 .cfa: sp 0 +
STACK CFI INIT 454d4 320 .cfa: sp 0 +
STACK CFI 454d8 .cfa: sp 64 +
STACK CFI 454e8 .cfa: x29 64 + x19: .cfa -8 + ^ x20: .cfa -16 + ^ x21: .cfa -24 + ^ x22: .cfa -32 + ^ x23: .cfa -40 + ^ x24: .cfa -48 + ^ .ra: .cfa -56 + ^ x29: .cfa -64 + ^
STACK CFI 45564 .cfa: sp 64 +
STACK CFI 45574 .cfa: sp 0 +
STACK CFI 45578 .cfa: x29 64 +
STACK CFI 4574c .cfa: sp 64 +
STACK CFI 4575c .cfa: sp 0 +
STACK CFI 45760 .cfa: x29 64 +
STACK CFI 45770 .cfa: sp 64 +
STACK CFI 45780 .cfa: sp 0 +
STACK CFI 45784 .cfa: x29 64 +
STACK CFI INIT 457f4 a0 .cfa: sp 0 +
STACK CFI 457f8 .cfa: sp 48 +
STACK CFI 45804 .cfa: x29 48 + x19: .cfa -8 + ^ x20: .cfa -16 + ^ x21: .cfa -24 + ^ x22: .cfa -32 + ^ .ra: .cfa -40 + ^ x29: .cfa -48 + ^
STACK CFI 45870 .cfa: sp 48 +
STACK CFI 4587c .cfa: sp 0 +
STACK CFI 45880 .cfa: sp 48 +
STACK CFI 4588c .cfa: sp 0 +
STACK CFI 45890 .cfa: x29 48 +
STACK CFI INIT 46744 160 .cfa: sp 0 +
STACK CFI 46748 .cfa: sp 64 +
STACK CFI 46758 .cfa: x29 64 + x19: .cfa -8 + ^ x20: .cfa -16 + ^ x21: .cfa -24 + ^ x22: .cfa -32 + ^ x23: .cfa -48 + ^ .ra: .cfa -56 + ^ x29: .cfa -64 + ^
STACK CFI 46850 .cfa: sp 64 +
STACK CFI 46860 .cfa: sp 0 +
STACK CFI 46864 .cfa: x29 64 +
STACK CFI INIT 468a4 214 .cfa: sp 0 +
STACK CFI 468a8 .cfa: sp 128 +
STACK CFI 468c4 .cfa: x29 96 + x19: .cfa -8 + ^ x20: .cfa -16 + ^ x21: .cfa -24 + ^ x22: .cfa -32 + ^ x23: .cfa -40 + ^ x24: .cfa -48 + ^ x25: .cfa -56 + ^ x26: .cfa -64 + ^ x27: .cfa -80 + ^ .ra: .cfa -88 + ^ x29: .cfa -96 + ^
STACK CFI 46a40 .cfa: sp 128 +
STACK CFI 46a5c .cfa: sp 0 +
STACK CFI 46a60 .cfa: x29 96 +
STACK CFI INIT 48754 290 .cfa: sp 0 +
STACK CFI 48758 .cfa: sp 16 +
STACK CFI 4875c .cfa: x29 16 + .ra: .cfa -8 + ^ x29: .cfa -16 + ^
STACK CFI 487e8 .cfa: sp 16 +
STACK CFI 487ec .cfa: sp 0 +
STACK CFI 487f0 .cfa: x29 16 +
STACK CFI 48840 .cfa: sp 16 +
STACK CFI 48844 .cfa: sp 0 +
STACK CFI 48848 .cfa: x29 16 +
STACK CFI 489ac .cfa: sp 16 +
STACK CFI 489b0 .cfa: sp 0 +
STACK CFI 489b4 .cfa: x29 16 +
STACK CFI INIT 489e4 158 .cfa: sp 0 +
STACK CFI 489e8 .cfa: sp 112 +
STACK CFI 48a04 .cfa: x29 96 + x19: .cfa -8 + ^ x20: .cfa -16 + ^ x21: .cfa -24 + ^ x22: .cfa -32 + ^ x23: .cfa -40 + ^ x24: .cfa -48 + ^ x25: .cfa -56 + ^ x26: .cfa -64 + ^ x27: .cfa -72 + ^ x28: .cfa -80 + ^ .ra: .cfa -88 + ^ x29: .cfa -96 + ^
STACK CFI 48aec .cfa: sp 112 +
STACK CFI 48af0 .cfa: x29 96 +
STACK CFI 48af8 .cfa: sp 112 +
STACK CFI 48b14 .cfa: sp 0 +
STACK CFI 48b18 .cfa: x29 96 +
STACK CFI 48b38 .cfa: sp 112 +
STACK CFI INIT 48b3c e54 .cfa: sp 0 +
STACK CFI 48b40 .cfa: sp 192 +
STACK CFI 48b5c .cfa: x29 96 + x19: .cfa -8 + ^ x20: .cfa -16 + ^ x21: .cfa -24 + ^ x22: .cfa -32 + ^ x23: .cfa -40 + ^ x24: .cfa -48 + ^ x25: .cfa -56 + ^ x26: .cfa -64 + ^ x27: .cfa -72 + ^ x28: .cfa -80 + ^ .ra: .cfa -88 + ^ x29: .cfa -96 + ^
STACK CFI 49878 .cfa: sp 192 +
STACK CFI 49894 .cfa: sp 0 +
STACK CFI 49898 .cfa: x29 96 +
STACK CFI INIT 49990 1068 .cfa: sp 0 +
STACK CFI 49994 .cfa: sp 288 +
STACK CFI 499b0 .cfa: x29 96 + x19: .cfa -8 + ^ x20: .cfa -16 + ^ x21: .cfa -24 + ^ x22: .cfa -32 + ^ x23: .cfa -40 + ^ x24: .cfa -48 + ^ x25: .cfa -56 + ^ x26: .cfa -64 + ^ x27: .cfa -72 + ^ x28: .cfa -80 + ^ .ra: .cfa -88 + ^ x29: .cfa -96 + ^
STACK CFI 4a740 .cfa: sp 288 +
STACK CFI 4a75c .cfa: sp 0 +
STACK CFI 4a760 .cfa: x29 96 +
STACK CFI INIT 4a9f8 520 .cfa: sp 0 +
STACK CFI 4a9fc .cfa: sp 144 +
STACK CFI 4aa18 .cfa: x29 96 + x19: .cfa -8 + ^ x20: .cfa -16 + ^ x21: .cfa -24 + ^ x22: .cfa -32 + ^ x23: .cfa -40 + ^ x24: .cfa -48 + ^ x25: .cfa -56 + ^ x26: .cfa -64 + ^ x27: .cfa -72 + ^ x28: .cfa -80 + ^ .ra: .cfa -88 + ^ x29: .cfa -96 + ^
STACK CFI 4aef4 .cfa: sp 144 +
STACK CFI 4af10 .cfa: sp 0 +
STACK CFI 4af14 .cfa: x29 96 +
STACK CFI INIT 4b8b8 136c .cfa: sp 0 +
STACK CFI 4b8bc .cfa: sp 224 +
STACK CFI 4b8d8 .cfa: x29 96 + x19: .cfa -8 + ^ x20: .cfa -16 + ^ x21: .cfa -24 + ^ x22: .cfa -32 + ^ x23: .cfa -40 + ^ x24: .cfa -48 + ^ x25: .cfa -56 + ^ x26: .cfa -64 + ^ x27: .cfa -72 + ^ x28: .cfa -80 + ^ .ra: .cfa -88 + ^ x29: .cfa -96 + ^
STACK CFI 4cc00 .cfa: sp 224 +
STACK CFI 4cc1c .cfa: sp 0 +
STACK CFI 4cc20 .cfa: x29 96 +
STACK CFI INIT 4cc24 1b8 .cfa: sp 0 +
STACK CFI INIT 21c48 944 .cfa: sp 0 +
STACK CFI 21c4c .cfa: sp 416 +
STACK CFI 21c68 .cfa: x29 96 + x19: .cfa -8 + ^ x20: .cfa -16 + ^ x21: .cfa -24 + ^ x22: .cfa -32 + ^ x23: .cfa -40 + ^ x24: .cfa -48 + ^ x25: .cfa -56 + ^ x26: .cfa -64 + ^ x27: .cfa -72 + ^ x28: .cfa -80 + ^ .ra: .cfa -88 + ^ x29: .cfa -96 + ^
STACK CFI 224c0 .cfa: sp 416 +
STACK CFI 224dc .cfa: sp 0 +
STACK CFI 224e0 .cfa: x29 96 +
STACK CFI INIT 2258c 944 .cfa: sp 0 +
STACK CFI 22590 .cfa: sp 416 +
STACK CFI 225ac .cfa: x29 96 + x19: .cfa -8 + ^ x20: .cfa -16 + ^ x21: .cfa -24 + ^ x22: .cfa -32 + ^ x23: .cfa -40 + ^ x24: .cfa -48 + ^ x25: .cfa -56 + ^ x26: .cfa -64 + ^ x27: .cfa -72 + ^ x28: .cfa -80 + ^ .ra: .cfa -88 + ^ x29: .cfa -96 + ^
STACK CFI 22e04 .cfa: sp 416 +
STACK CFI 22e20 .cfa: sp 0 +
STACK CFI 22e24 .cfa: x29 96 +
STACK CFI INIT 22fbc 74 .cfa: sp 0 +
STACK CFI 22fc0 .cfa: sp 48 +
STACK CFI 22fcc .cfa: x29 32 + x19: .cfa -8 + ^ x20: .cfa -16 + ^ .ra: .cfa -24 + ^ x29: .cfa -32 + ^
STACK CFI 23018 .cfa: sp 48 +
STACK CFI 23024 .cfa: sp 0 +
STACK CFI 23028 .cfa: x29 32 +
STACK CFI INIT 230c0 618 .cfa: sp 0 +
STACK CFI 230c4 .cfa: sp 368 +
STACK CFI 230e0 .cfa: x29 96 + x19: .cfa -8 + ^ x20: .cfa -16 + ^ x21: .cfa -24 + ^ x22: .cfa -32 + ^ x23: .cfa -40 + ^ x24: .cfa -48 + ^ x25: .cfa -56 + ^ x26: .cfa -64 + ^ x27: .cfa -72 + ^ x28: .cfa -80 + ^ .ra: .cfa -88 + ^ x29: .cfa -96 + ^
STACK CFI 2364c .cfa: sp 368 +
STACK CFI 23668 .cfa: sp 0 +
STACK CFI 2366c .cfa: x29 96 +
STACK CFI INIT 236d8 f68 .cfa: sp 0 +
STACK CFI 236dc .cfa: sp 96 +
STACK CFI 236f4 .cfa: x29 96 + x19: .cfa -8 + ^ x20: .cfa -16 + ^ x21: .cfa -24 + ^ x22: .cfa -32 + ^ x23: .cfa -40 + ^ x24: .cfa -48 + ^ x25: .cfa -56 + ^ x26: .cfa -64 + ^ x27: .cfa -72 + ^ x28: .cfa -80 + ^ .ra: .cfa -88 + ^ x29: .cfa -96 + ^
STACK CFI 244ec .cfa: sp 96 +
STACK CFI 24504 .cfa: sp 0 +
STACK CFI 24508 .cfa: x29 96 +
STACK CFI INIT 24918 bd4 .cfa: sp 0 +
STACK CFI 2491c .cfa: sp 240 +
STACK CFI 24938 .cfa: x29 96 + x19: .cfa -8 + ^ x20: .cfa -16 + ^ x21: .cfa -24 + ^ x22: .cfa -32 + ^ x23: .cfa -40 + ^ x24: .cfa -48 + ^ x25: .cfa -56 + ^ x26: .cfa -64 + ^ x27: .cfa -72 + ^ x28: .cfa -80 + ^ .ra: .cfa -88 + ^ x29: .cfa -96 + ^
STACK CFI 24d14 .cfa: sp 240 +
STACK CFI 24d30 .cfa: sp 0 +
STACK CFI 24d34 .cfa: x29 96 +
STACK CFI 25394 .cfa: sp 240 +
STACK CFI 253b0 .cfa: sp 0 +
STACK CFI 253b4 .cfa: x29 96 +
STACK CFI INIT 25528 50 .cfa: sp 0 +
STACK CFI 2552c .cfa: sp 32 +
STACK CFI 25534 .cfa: x29 32 + x19: .cfa -8 + ^ x20: .cfa -16 + ^ .ra: .cfa -24 + ^ x29: .cfa -32 + ^
STACK CFI INIT 25a78 43c .cfa: sp 0 +
STACK CFI 25a7c .cfa: sp 256 +
STACK CFI 25a98 .cfa: x29 96 + x19: .cfa -8 + ^ x20: .cfa -16 + ^ x21: .cfa -24 + ^ x22: .cfa -32 + ^ x23: .cfa -40 + ^ x24: .cfa -48 + ^ x25: .cfa -56 + ^ x26: .cfa -64 + ^ x27: .cfa -72 + ^ x28: .cfa -80 + ^ .ra: .cfa -88 + ^ x29: .cfa -96 + ^
STACK CFI 25d88 .cfa: sp 256 +
STACK CFI 25da4 .cfa: sp 0 +
STACK CFI 25da8 .cfa: x29 96 +
STACK CFI INIT 25f04 74 .cfa: sp 0 +
STACK CFI 25f08 .cfa: sp 48 +
STACK CFI 25f14 .cfa: x29 32 + x19: .cfa -8 + ^ x20: .cfa -16 + ^ .ra: .cfa -24 + ^ x29: .cfa -32 + ^
STACK CFI 25f60 .cfa: sp 48 +
STACK CFI 25f6c .cfa: sp 0 +
STACK CFI 25f70 .cfa: x29 32 +
STACK CFI INIT 25ff8 154 .cfa: sp 0 +
STACK CFI 25ffc .cfa: sp 384 +
STACK CFI 26010 .cfa: x29 64 + x19: .cfa -8 + ^ x20: .cfa -16 + ^ x21: .cfa -24 + ^ x22: .cfa -32 + ^ x23: .cfa -40 + ^ x28: .cfa -48 + ^ .ra: .cfa -56 + ^ x29: .cfa -64 + ^
STACK CFI 260f4 .cfa: sp 384 +
STACK CFI 26108 .cfa: sp 0 +
STACK CFI 2610c .cfa: x29 64 +
STACK CFI INIT 2614c 12c .cfa: sp 0 +
STACK CFI 26150 .cfa: sp 80 +
STACK CFI 26164 .cfa: x29 80 + x19: .cfa -8 + ^ x20: .cfa -16 + ^ x21: .cfa -24 + ^ x22: .cfa -32 + ^ x23: .cfa -40 + ^ x24: .cfa -48 + ^ x25: .cfa -56 + ^ x26: .cfa -64 + ^ .ra: .cfa -72 + ^ x29: .cfa -80 + ^
STACK CFI 2622c .cfa: sp 80 +
STACK CFI 26240 .cfa: sp 0 +
STACK CFI 26244 .cfa: x29 80 +
STACK CFI INIT 2631c 1a4 .cfa: sp 0 +
STACK CFI 26320 .cfa: sp 112 +
STACK CFI 26338 .cfa: x29 80 + x19: .cfa -8 + ^ x20: .cfa -16 + ^ x21: .cfa -24 + ^ x22: .cfa -32 + ^ x23: .cfa -40 + ^ x24: .cfa -48 + ^ x25: .cfa -56 + ^ x26: .cfa -64 + ^ .ra: .cfa -72 + ^ x29: .cfa -80 + ^
STACK CFI 26428 .cfa: sp 112 +
STACK CFI 26440 .cfa: sp 0 +
STACK CFI 26444 .cfa: x29 80 +
STACK CFI INIT 264c0 1dc .cfa: sp 0 +
STACK CFI 264c4 .cfa: sp 128 +
STACK CFI 264e0 .cfa: x29 96 + x19: .cfa -8 + ^ x20: .cfa -16 + ^ x21: .cfa -24 + ^ x22: .cfa -32 + ^ x23: .cfa -40 + ^ x24: .cfa -48 + ^ x25: .cfa -56 + ^ x26: .cfa -64 + ^ x27: .cfa -80 + ^ .ra: .cfa -88 + ^ x29: .cfa -96 + ^
STACK CFI 2664c .cfa: sp 128 +
STACK CFI 26668 .cfa: sp 0 +
STACK CFI 2666c .cfa: x29 96 +
STACK CFI INIT 2669c 178 .cfa: sp 0 +
STACK CFI 266a0 .cfa: sp 80 +
STACK CFI 266b4 .cfa: x29 80 + x19: .cfa -8 + ^ x20: .cfa -16 + ^ x21: .cfa -24 + ^ x22: .cfa -32 + ^ x23: .cfa -40 + ^ x24: .cfa -48 + ^ x25: .cfa -64 + ^ .ra: .cfa -72 + ^ x29: .cfa -80 + ^
STACK CFI 267e0 .cfa: sp 80 +
STACK CFI 267f4 .cfa: sp 0 +
STACK CFI 267f8 .cfa: x29 80 +
STACK CFI INIT 26bfc 244 .cfa: sp 0 +
STACK CFI 26c00 .cfa: sp 96 +
STACK CFI 26c10 .cfa: x29 48 + x19: .cfa -8 + ^ x20: .cfa -16 + ^ x21: .cfa -32 + ^ .ra: .cfa -40 + ^ x29: .cfa -48 + ^
STACK CFI 26d40 .cfa: sp 96 +
STACK CFI 26d50 .cfa: sp 0 +
STACK CFI 26d54 .cfa: x29 48 +
STACK CFI 26dcc .cfa: sp 96 +
STACK CFI 26ddc .cfa: sp 0 +
STACK CFI 26de0 .cfa: x29 48 +
STACK CFI INIT 26e48 164 .cfa: sp 0 +
STACK CFI 26e4c .cfa: sp 32 +
STACK CFI 26e54 .cfa: x29 32 + x19: .cfa -16 + ^ .ra: .cfa -24 + ^ x29: .cfa -32 + ^
STACK CFI 26f28 .cfa: sp 32 +
STACK CFI 26f30 .cfa: sp 0 +
STACK CFI 26f34 .cfa: x29 32 +
STACK CFI INIT 27030 c28 .cfa: sp 0 +
STACK CFI 27034 .cfa: sp 112 +
STACK CFI 27050 .cfa: x29 96 + x19: .cfa -8 + ^ x20: .cfa -16 + ^ x21: .cfa -24 + ^ x22: .cfa -32 + ^ x23: .cfa -40 + ^ x24: .cfa -48 + ^ x25: .cfa -56 + ^ x26: .cfa -64 + ^ x27: .cfa -72 + ^ x28: .cfa -80 + ^ .ra: .cfa -88 + ^ x29: .cfa -96 + ^ v8: .cfa -104 + ^ v9: .cfa -112 + ^
STACK CFI 27b9c .cfa: sp 112 +
STACK CFI 27bb8 .cfa: sp 0 +
STACK CFI 27bbc .cfa: x29 96 +
STACK CFI INIT 27c58 2d8 .cfa: sp 0 +
STACK CFI 27c5c .cfa: sp 496 +
STACK CFI 27c70 .cfa: x29 64 + x19: .cfa -8 + ^ x20: .cfa -16 + ^ x21: .cfa -24 + ^ x22: .cfa -32 + ^ x28: .cfa -48 + ^ .ra: .cfa -56 + ^ x29: .cfa -64 + ^
STACK CFI 27f10 .cfa: sp 496 +
STACK CFI 27f24 .cfa: sp 0 +
STACK CFI 27f28 .cfa: x29 64 +
STACK CFI INIT 27fac 148 .cfa: sp 0 +
STACK CFI 27fb0 .cfa: sp 96 +
STACK CFI 27fc0 .cfa: x29 48 + x19: .cfa -8 + ^ x20: .cfa -16 + ^ x21: .cfa -32 + ^ .ra: .cfa -40 + ^ x29: .cfa -48 + ^
STACK CFI 280a8 .cfa: sp 96 +
STACK CFI 280b8 .cfa: sp 0 +
STACK CFI 280bc .cfa: x29 48 +
STACK CFI INIT 280f4 6c .cfa: sp 0 +
STACK CFI 280f8 .cfa: sp 32 +
STACK CFI 28100 .cfa: x29 32 + x19: .cfa -16 + ^ .ra: .cfa -24 + ^ x29: .cfa -32 + ^
STACK CFI 28150 .cfa: sp 32 +
STACK CFI 28158 .cfa: sp 0 +
STACK CFI 2815c .cfa: x29 32 +
STACK CFI INIT 28414 1d4 .cfa: sp 0 +
STACK CFI 28418 .cfa: sp 80 +
STACK CFI 28428 .cfa: x29 48 + x19: .cfa -8 + ^ x20: .cfa -16 + ^ x21: .cfa -32 + ^ .ra: .cfa -40 + ^ x29: .cfa -48 + ^
STACK CFI 28594 .cfa: sp 80 +
STACK CFI 285a4 .cfa: sp 0 +
STACK CFI 285a8 .cfa: x29 48 +
STACK CFI INIT 285e8 198 .cfa: sp 0 +
STACK CFI 285ec .cfa: sp 80 +
STACK CFI 285fc .cfa: x29 48 + x19: .cfa -8 + ^ x20: .cfa -16 + ^ x21: .cfa -32 + ^ .ra: .cfa -40 + ^ x29: .cfa -48 + ^
STACK CFI 2872c .cfa: sp 80 +
STACK CFI 2873c .cfa: sp 0 +
STACK CFI 28740 .cfa: x29 48 +
STACK CFI INIT 28780 1d8 .cfa: sp 0 +
STACK CFI 28784 .cfa: sp 80 +
STACK CFI 28794 .cfa: x29 48 + x19: .cfa -8 + ^ x20: .cfa -16 + ^ x21: .cfa -32 + ^ .ra: .cfa -40 + ^ x29: .cfa -48 + ^
STACK CFI 28904 .cfa: sp 80 +
STACK CFI 28914 .cfa: sp 0 +
STACK CFI 28918 .cfa: x29 48 +
STACK CFI INIT 28958 18c .cfa: sp 0 +
STACK CFI 2895c .cfa: sp 80 +
STACK CFI 2896c .cfa: x29 48 + x19: .cfa -8 + ^ x20: .cfa -16 + ^ x21: .cfa -32 + ^ .ra: .cfa -40 + ^ x29: .cfa -48 + ^
STACK CFI 28a90 .cfa: sp 80 +
STACK CFI 28aa0 .cfa: sp 0 +
STACK CFI 28aa4 .cfa: x29 48 +
STACK CFI INIT 28ae4 178 .cfa: sp 0 +
STACK CFI 28ae8 .cfa: sp 80 +
STACK CFI 28af8 .cfa: x29 48 + x19: .cfa -8 + ^ x20: .cfa -16 + ^ x21: .cfa -32 + ^ .ra: .cfa -40 + ^ x29: .cfa -48 + ^
STACK CFI 28c08 .cfa: sp 80 +
STACK CFI 28c18 .cfa: sp 0 +
STACK CFI 28c1c .cfa: x29 48 +
STACK CFI INIT 28c5c 2e0 .cfa: sp 0 +
STACK CFI 28c60 .cfa: sp 48 +
STACK CFI 28c6c .cfa: x29 48 + x19: .cfa -8 + ^ x20: .cfa -16 + ^ x21: .cfa -24 + ^ x28: .cfa -32 + ^ .ra: .cfa -40 + ^ x29: .cfa -48 + ^
STACK CFI 28e60 .cfa: sp 48 +
STACK CFI 28e6c .cfa: sp 0 +
STACK CFI 28e70 .cfa: x29 48 +
STACK CFI INIT 28f3c 1d0 .cfa: sp 0 +
STACK CFI 28f40 .cfa: sp 144 +
STACK CFI 28f4c .cfa: x29 32 + x19: .cfa -8 + ^ x20: .cfa -16 + ^ .ra: .cfa -24 + ^ x29: .cfa -32 + ^
STACK CFI 2905c .cfa: sp 144 +
STACK CFI 29068 .cfa: sp 0 +
STACK CFI 2906c .cfa: x29 32 +
STACK CFI INIT 2910c 270 .cfa: sp 0 +
STACK CFI 29110 .cfa: sp 192 +
STACK CFI 29124 .cfa: x29 64 + x19: .cfa -8 + ^ x20: .cfa -16 + ^ x21: .cfa -24 + ^ x22: .cfa -32 + ^ x23: .cfa -40 + ^ x24: .cfa -48 + ^ .ra: .cfa -56 + ^ x29: .cfa -64 + ^
STACK CFI 2930c .cfa: sp 192 +
STACK CFI 29320 .cfa: sp 0 +
STACK CFI 29324 .cfa: x29 64 +
STACK CFI INIT 294d8 1e4 .cfa: sp 0 +
STACK CFI 294dc .cfa: sp 192 +
STACK CFI 294f0 .cfa: x29 64 + x19: .cfa -8 + ^ x20: .cfa -16 + ^ x21: .cfa -24 + ^ x22: .cfa -32 + ^ x23: .cfa -48 + ^ .ra: .cfa -56 + ^ x29: .cfa -64 + ^
STACK CFI 2964c .cfa: sp 192 +
STACK CFI 29660 .cfa: sp 0 +
STACK CFI 29664 .cfa: x29 64 +
STACK CFI INIT 29abc 50c .cfa: sp 0 +
STACK CFI 29ac0 .cfa: sp 48 +
STACK CFI 29acc .cfa: x29 48 + x19: .cfa -8 + ^ x20: .cfa -16 + ^ x21: .cfa -32 + ^ .ra: .cfa -40 + ^ x29: .cfa -48 + ^
STACK CFI 29d74 .cfa: sp 48 +
STACK CFI 29d80 .cfa: sp 0 +
STACK CFI 29d84 .cfa: x29 48 +
STACK CFI 29d8c .cfa: sp 48 +
STACK CFI 29d98 .cfa: sp 0 +
STACK CFI 29d9c .cfa: x29 48 +
STACK CFI INIT 29fc8 23ac .cfa: sp 0 +
STACK CFI 29fcc .cfa: sp 160 +
STACK CFI 29ff4 .cfa: x29 96 + x19: .cfa -8 + ^ x20: .cfa -16 + ^ x21: .cfa -24 + ^ x22: .cfa -32 + ^ x23: .cfa -40 + ^ x24: .cfa -48 + ^ x25: .cfa -56 + ^ x26: .cfa -64 + ^ x27: .cfa -72 + ^ x28: .cfa -80 + ^ .ra: .cfa -88 + ^ x29: .cfa -96 + ^ v8: .cfa -104 + ^ v9: .cfa -112 + ^ v10: .cfa -120 + ^ v11: .cfa -128 + ^ v12: .cfa -136 + ^ v13: .cfa -144 + ^ v14: .cfa -152 + ^ v15: .cfa -160 + ^
STACK CFI 2bfb8 .cfa: sp 160 +
STACK CFI 2bfe0 .cfa: sp 0 +
STACK CFI 2bfe4 .cfa: x29 96 +
STACK CFI INIT 2c374 e18 .cfa: sp 0 +
STACK CFI 2c378 .cfa: sp 96 +
STACK CFI 2c390 .cfa: x29 96 + x19: .cfa -8 + ^ x20: .cfa -16 + ^ x21: .cfa -24 + ^ x22: .cfa -32 + ^ x23: .cfa -40 + ^ x24: .cfa -48 + ^ x25: .cfa -56 + ^ x26: .cfa -64 + ^ x27: .cfa -72 + ^ x28: .cfa -80 + ^ .ra: .cfa -88 + ^ x29: .cfa -96 + ^
STACK CFI 2cd68 .cfa: sp 96 +
STACK CFI 2cd80 .cfa: sp 0 +
STACK CFI 2cd84 .cfa: x29 96 +
STACK CFI INIT 2dbdc 74 .cfa: sp 0 +
STACK CFI 2dbe0 .cfa: sp 48 +
STACK CFI 2dbec .cfa: x29 32 + x19: .cfa -8 + ^ x20: .cfa -16 + ^ .ra: .cfa -24 + ^ x29: .cfa -32 + ^
STACK CFI 2dc38 .cfa: sp 48 +
STACK CFI 2dc44 .cfa: sp 0 +
STACK CFI 2dc48 .cfa: x29 32 +
STACK CFI INIT 2de5c 50 .cfa: sp 0 +
STACK CFI 2de60 .cfa: sp 32 +
STACK CFI 2de68 .cfa: x29 32 + x19: .cfa -8 + ^ x20: .cfa -16 + ^ .ra: .cfa -24 + ^ x29: .cfa -32 + ^
STACK CFI INIT 2dedc b8 .cfa: sp 0 +
STACK CFI 2dee0 .cfa: sp 32 +
STACK CFI 2dee8 .cfa: x29 32 + x19: .cfa -16 + ^ .ra: .cfa -24 + ^ x29: .cfa -32 + ^
STACK CFI 2df84 .cfa: sp 32 +
STACK CFI 2df8c .cfa: sp 0 +
STACK CFI 2df90 .cfa: x29 32 +
STACK CFI INIT 2df94 c0 .cfa: sp 0 +
STACK CFI 2df98 .cfa: sp 32 +
STACK CFI 2dfa0 .cfa: x29 32 + x19: .cfa -16 + ^ .ra: .cfa -24 + ^ x29: .cfa -32 + ^
STACK CFI 2e044 .cfa: sp 32 +
STACK CFI 2e04c .cfa: sp 0 +
STACK CFI 2e050 .cfa: x29 32 +
STACK CFI INIT 2e054 d70 .cfa: sp 0 +
STACK CFI 2e058 .cfa: sp 144 +
STACK CFI 2e074 .cfa: x29 96 + x19: .cfa -8 + ^ x20: .cfa -16 + ^ x21: .cfa -24 + ^ x22: .cfa -32 + ^ x23: .cfa -40 + ^ x24: .cfa -48 + ^ x25: .cfa -56 + ^ x26: .cfa -64 + ^ x27: .cfa -80 + ^ .ra: .cfa -88 + ^ x29: .cfa -96 + ^
STACK CFI 2ed4c .cfa: sp 144 +
STACK CFI 2ed68 .cfa: sp 0 +
STACK CFI 2ed6c .cfa: x29 96 +
STACK CFI INIT 2ee04 bc .cfa: sp 0 +
STACK CFI 2ee08 .cfa: sp 32 +
STACK CFI 2ee10 .cfa: x29 32 + x19: .cfa -8 + ^ x20: .cfa -16 + ^ .ra: .cfa -24 + ^ x29: .cfa -32 + ^
STACK CFI 2eeb0 .cfa: sp 32 +
STACK CFI 2eeb8 .cfa: sp 0 +
STACK CFI 2eebc .cfa: x29 32 +
STACK CFI INIT 2eec0 c4 .cfa: sp 0 +
STACK CFI 2eec4 .cfa: sp 32 +
STACK CFI 2eecc .cfa: x29 32 + x19: .cfa -8 + ^ x20: .cfa -16 + ^ .ra: .cfa -24 + ^ x29: .cfa -32 + ^
STACK CFI 2ef74 .cfa: sp 32 +
STACK CFI 2ef7c .cfa: sp 0 +
STACK CFI 2ef80 .cfa: x29 32 +
STACK CFI INIT 2ef84 100 .cfa: sp 0 +
STACK CFI 2ef88 .cfa: sp 64 +
STACK CFI 2ef94 .cfa: x29 32 + x19: .cfa -8 + ^ x20: .cfa -16 + ^ .ra: .cfa -24 + ^ x29: .cfa -32 + ^
STACK CFI 2f03c .cfa: sp 64 +
STACK CFI 2f048 .cfa: sp 0 +
STACK CFI 2f04c .cfa: x29 32 +
STACK CFI INIT 2f098 74 .cfa: sp 0 +
STACK CFI 2f09c .cfa: sp 32 +
STACK CFI 2f0a4 .cfa: x29 32 + x19: .cfa -16 + ^ .ra: .cfa -24 + ^ x29: .cfa -32 + ^
STACK CFI 2f0fc .cfa: sp 32 +
STACK CFI 2f104 .cfa: sp 0 +
STACK CFI 2f108 .cfa: x29 32 +
STACK CFI INIT 2f10c 3a4 .cfa: sp 0 +
STACK CFI 2f110 .cfa: sp 144 +
STACK CFI 2f124 .cfa: x29 40 + x19: .cfa -8 + ^ x20: .cfa -16 + ^ x21: .cfa -24 + ^ .ra: .cfa -32 + ^ x29: .cfa -40 + ^ v8: .cfa -48 + ^
STACK CFI 2f43c .cfa: sp 144 +
STACK CFI 2f450 .cfa: sp 0 +
STACK CFI 2f454 .cfa: x29 40 +
STACK CFI INIT 2f56c 6c .cfa: sp 0 +
STACK CFI 2f570 .cfa: sp 32 +
STACK CFI 2f578 .cfa: x29 32 + x19: .cfa -16 + ^ .ra: .cfa -24 + ^ x29: .cfa -32 + ^
STACK CFI 2f5c8 .cfa: sp 32 +
STACK CFI 2f5d0 .cfa: sp 0 +
STACK CFI 2f5d4 .cfa: x29 32 +
STACK CFI INIT 2f5d8 74 .cfa: sp 0 +
STACK CFI 2f5dc .cfa: sp 32 +
STACK CFI 2f5e4 .cfa: x29 32 + x19: .cfa -16 + ^ .ra: .cfa -24 + ^ x29: .cfa -32 + ^
STACK CFI 2f63c .cfa: sp 32 +
STACK CFI 2f644 .cfa: sp 0 +
STACK CFI 2f648 .cfa: x29 32 +
STACK CFI INIT 2f64c 74 .cfa: sp 0 +
STACK CFI 2f650 .cfa: sp 32 +
STACK CFI 2f658 .cfa: x29 32 + x19: .cfa -16 + ^ .ra: .cfa -24 + ^ x29: .cfa -32 + ^
STACK CFI 2f6b0 .cfa: sp 32 +
STACK CFI 2f6b8 .cfa: sp 0 +
STACK CFI 2f6bc .cfa: x29 32 +
STACK CFI INIT 2f6c0 79c .cfa: sp 0 +
STACK CFI 2f6c4 .cfa: sp 160 +
STACK CFI 2f6dc .cfa: x29 40 + x19: .cfa -8 + ^ x20: .cfa -16 + ^ x21: .cfa -24 + ^ .ra: .cfa -32 + ^ x29: .cfa -40 + ^ v8: .cfa -48 + ^ v9: .cfa -56 + ^ v10: .cfa -64 + ^
STACK CFI 2fdc4 .cfa: sp 160 +
STACK CFI 2fddc .cfa: sp 0 +
STACK CFI 2fde0 .cfa: x29 40 +
STACK CFI INIT 2ffe8 6c .cfa: sp 0 +
STACK CFI 2ffec .cfa: sp 32 +
STACK CFI 2fff4 .cfa: x29 32 + x19: .cfa -16 + ^ .ra: .cfa -24 + ^ x29: .cfa -32 + ^
STACK CFI 30044 .cfa: sp 32 +
STACK CFI 3004c .cfa: sp 0 +
STACK CFI 30050 .cfa: x29 32 +
STACK CFI INIT 30054 74 .cfa: sp 0 +
STACK CFI 30058 .cfa: sp 32 +
STACK CFI 30060 .cfa: x29 32 + x19: .cfa -16 + ^ .ra: .cfa -24 + ^ x29: .cfa -32 + ^
STACK CFI 300b8 .cfa: sp 32 +
STACK CFI 300c0 .cfa: sp 0 +
STACK CFI 300c4 .cfa: x29 32 +
STACK CFI INIT 300c8 e8 .cfa: sp 0 +
STACK CFI 300cc .cfa: sp 48 +
STACK CFI 300d8 .cfa: x29 48 + x19: .cfa -8 + ^ x20: .cfa -16 + ^ x21: .cfa -32 + ^ .ra: .cfa -40 + ^ x29: .cfa -48 + ^
STACK CFI 3019c .cfa: sp 48 +
STACK CFI 301a8 .cfa: sp 0 +
STACK CFI 301ac .cfa: x29 48 +
STACK CFI INIT 301b0 f0 .cfa: sp 0 +
STACK CFI 301b4 .cfa: sp 48 +
STACK CFI 301c0 .cfa: x29 48 + x19: .cfa -8 + ^ x20: .cfa -16 + ^ x21: .cfa -32 + ^ .ra: .cfa -40 + ^ x29: .cfa -48 + ^
STACK CFI 3028c .cfa: sp 48 +
STACK CFI 30298 .cfa: sp 0 +
STACK CFI 3029c .cfa: x29 48 +
STACK CFI INIT 302a0 7c4 .cfa: sp 0 +
STACK CFI 302a4 .cfa: sp 96 +
STACK CFI 302bc .cfa: x29 96 + x19: .cfa -8 + ^ x20: .cfa -16 + ^ x21: .cfa -24 + ^ x22: .cfa -32 + ^ x23: .cfa -40 + ^ x24: .cfa -48 + ^ x25: .cfa -56 + ^ x26: .cfa -64 + ^ x28: .cfa -80 + ^ .ra: .cfa -88 + ^ x29: .cfa -96 + ^
STACK CFI 309b0 .cfa: sp 96 +
STACK CFI 309c8 .cfa: sp 0 +
STACK CFI 309cc .cfa: x29 96 +
STACK CFI INIT 30b18 ec .cfa: sp 0 +
STACK CFI 30b1c .cfa: sp 48 +
STACK CFI 30b28 .cfa: x29 48 + x19: .cfa -8 + ^ x20: .cfa -16 + ^ x21: .cfa -24 + ^ x22: .cfa -32 + ^ .ra: .cfa -40 + ^ x29: .cfa -48 + ^
STACK CFI 30bf0 .cfa: sp 48 +
STACK CFI 30bfc .cfa: sp 0 +
STACK CFI 30c00 .cfa: x29 48 +
STACK CFI INIT 30c74 270 .cfa: sp 0 +
STACK CFI 30c78 .cfa: sp 176 +
STACK CFI 30c88 .cfa: x29 48 + x19: .cfa -8 + ^ x20: .cfa -16 + ^ x21: .cfa -24 + ^ x22: .cfa -32 + ^ .ra: .cfa -40 + ^ x29: .cfa -48 + ^
STACK CFI 30e64 .cfa: sp 176 +
STACK CFI 30e74 .cfa: sp 0 +
STACK CFI 30e78 .cfa: x29 48 +
STACK CFI INIT 30ee4 1b0c .cfa: sp 0 +
STACK CFI 30ee8 .cfa: sp 144 +
STACK CFI 30f0c .cfa: x29 96 + x19: .cfa -8 + ^ x20: .cfa -16 + ^ x21: .cfa -24 + ^ x22: .cfa -32 + ^ x23: .cfa -40 + ^ x24: .cfa -48 + ^ x25: .cfa -56 + ^ x26: .cfa -64 + ^ x27: .cfa -72 + ^ x28: .cfa -80 + ^ .ra: .cfa -88 + ^ x29: .cfa -96 + ^ v8: .cfa -104 + ^ v9: .cfa -112 + ^ v10: .cfa -120 + ^ v11: .cfa -128 + ^ v12: .cfa -136 + ^ v13: .cfa -144 + ^
STACK CFI 326a0 .cfa: sp 144 +
STACK CFI 326c4 .cfa: sp 0 +
STACK CFI 326c8 .cfa: x29 96 +
STACK CFI INIT 329f0 74 .cfa: sp 0 +
STACK CFI 329f4 .cfa: sp 48 +
STACK CFI 32a00 .cfa: x29 32 + x19: .cfa -8 + ^ x20: .cfa -16 + ^ .ra: .cfa -24 + ^ x29: .cfa -32 + ^
STACK CFI 32a4c .cfa: sp 48 +
STACK CFI 32a58 .cfa: sp 0 +
STACK CFI 32a5c .cfa: x29 32 +
STACK CFI INIT 32a64 74 .cfa: sp 0 +
STACK CFI 32a68 .cfa: sp 48 +
STACK CFI 32a74 .cfa: x29 32 + x19: .cfa -8 + ^ x20: .cfa -16 + ^ .ra: .cfa -24 + ^ x29: .cfa -32 + ^
STACK CFI 32ac0 .cfa: sp 48 +
STACK CFI 32acc .cfa: sp 0 +
STACK CFI 32ad0 .cfa: x29 32 +
STACK CFI INIT 32ad8 a88 .cfa: sp 0 +
STACK CFI 32adc .cfa: sp 96 +
STACK CFI 32af4 .cfa: x29 96 + x19: .cfa -8 + ^ x20: .cfa -16 + ^ x21: .cfa -24 + ^ x22: .cfa -32 + ^ x23: .cfa -40 + ^ x24: .cfa -48 + ^ x25: .cfa -56 + ^ x26: .cfa -64 + ^ x27: .cfa -72 + ^ x28: .cfa -80 + ^ .ra: .cfa -88 + ^ x29: .cfa -96 + ^
STACK CFI 33424 .cfa: sp 96 +
STACK CFI 3343c .cfa: sp 0 +
STACK CFI 33440 .cfa: x29 96 +
STACK CFI INIT 33560 74 .cfa: sp 0 +
STACK CFI 33564 .cfa: sp 48 +
STACK CFI 33570 .cfa: x29 32 + x19: .cfa -8 + ^ x20: .cfa -16 + ^ .ra: .cfa -24 + ^ x29: .cfa -32 + ^
STACK CFI 335bc .cfa: sp 48 +
STACK CFI 335c8 .cfa: sp 0 +
STACK CFI 335cc .cfa: x29 32 +
STACK CFI INIT 3363c 104c .cfa: sp 0 +
STACK CFI 33640 .cfa: sp 80 +
STACK CFI 33654 .cfa: x29 80 + x19: .cfa -8 + ^ x20: .cfa -16 + ^ x21: .cfa -24 + ^ x22: .cfa -32 + ^ x23: .cfa -40 + ^ x24: .cfa -48 + ^ x28: .cfa -64 + ^ .ra: .cfa -72 + ^ x29: .cfa -80 + ^
STACK CFI 33c7c .cfa: sp 80 +
STACK CFI 33c90 .cfa: sp 0 +
STACK CFI 33c94 .cfa: x29 80 +
STACK CFI INIT 34688 78 .cfa: sp 0 +
STACK CFI 3468c .cfa: sp 32 +
STACK CFI 34694 .cfa: x29 32 + x19: .cfa -8 + ^ x20: .cfa -16 + ^ .ra: .cfa -24 + ^ x29: .cfa -32 + ^
STACK CFI 346a0 .cfa: sp 32 +
STACK CFI 346a8 .cfa: sp 0 +
STACK CFI 346ac .cfa: x29 32 +
STACK CFI INIT 34700 78 .cfa: sp 0 +
STACK CFI 34704 .cfa: sp 32 +
STACK CFI 3470c .cfa: x29 32 + x19: .cfa -8 + ^ x20: .cfa -16 + ^ .ra: .cfa -24 + ^ x29: .cfa -32 + ^
STACK CFI 34714 .cfa: sp 32 +
STACK CFI 3471c .cfa: sp 0 +
STACK CFI 34720 .cfa: x29 32 +
STACK CFI INIT 34778 74 .cfa: sp 0 +
STACK CFI 3477c .cfa: sp 48 +
STACK CFI 34788 .cfa: x29 32 + x19: .cfa -8 + ^ x20: .cfa -16 + ^ .ra: .cfa -24 + ^ x29: .cfa -32 + ^
STACK CFI 347d4 .cfa: sp 48 +
STACK CFI 347e0 .cfa: sp 0 +
STACK CFI 347e4 .cfa: x29 32 +
STACK CFI INIT 347ec 78 .cfa: sp 0 +
STACK CFI 347f0 .cfa: sp 32 +
STACK CFI 347f8 .cfa: x29 32 + x19: .cfa -8 + ^ x20: .cfa -16 + ^ .ra: .cfa -24 + ^ x29: .cfa -32 + ^
STACK CFI 34804 .cfa: sp 32 +
STACK CFI 3480c .cfa: sp 0 +
STACK CFI 34810 .cfa: x29 32 +
STACK CFI INIT 34864 78 .cfa: sp 0 +
STACK CFI 34868 .cfa: sp 32 +
STACK CFI 34870 .cfa: x29 32 + x19: .cfa -8 + ^ x20: .cfa -16 + ^ .ra: .cfa -24 + ^ x29: .cfa -32 + ^
STACK CFI 34878 .cfa: sp 32 +
STACK CFI 34880 .cfa: sp 0 +
STACK CFI 34884 .cfa: x29 32 +
STACK CFI INIT 348dc 74 .cfa: sp 0 +
STACK CFI 348e0 .cfa: sp 48 +
STACK CFI 348ec .cfa: x29 32 + x19: .cfa -8 + ^ x20: .cfa -16 + ^ .ra: .cfa -24 + ^ x29: .cfa -32 + ^
STACK CFI 34938 .cfa: sp 48 +
STACK CFI 34944 .cfa: sp 0 +
STACK CFI 34948 .cfa: x29 32 +
STACK CFI INIT 34950 168 .cfa: sp 0 +
STACK CFI 34954 .cfa: sp 384 +
STACK CFI 34968 .cfa: x29 64 + x19: .cfa -8 + ^ x20: .cfa -16 + ^ x21: .cfa -24 + ^ x22: .cfa -32 + ^ x23: .cfa -40 + ^ x28: .cfa -48 + ^ .ra: .cfa -56 + ^ x29: .cfa -64 + ^
STACK CFI 34a60 .cfa: sp 384 +
STACK CFI 34a74 .cfa: sp 0 +
STACK CFI 34a78 .cfa: x29 64 +
STACK CFI INIT 34ab8 168 .cfa: sp 0 +
STACK CFI 34abc .cfa: sp 384 +
STACK CFI 34ad0 .cfa: x29 64 + x19: .cfa -8 + ^ x20: .cfa -16 + ^ x21: .cfa -24 + ^ x22: .cfa -32 + ^ x23: .cfa -40 + ^ x28: .cfa -48 + ^ .ra: .cfa -56 + ^ x29: .cfa -64 + ^
STACK CFI 34bc8 .cfa: sp 384 +
STACK CFI 34bdc .cfa: sp 0 +
STACK CFI 34be0 .cfa: x29 64 +
STACK CFI INIT 34c48 154 .cfa: sp 0 +
STACK CFI 34c4c .cfa: sp 384 +
STACK CFI 34c60 .cfa: x29 64 + x19: .cfa -8 + ^ x20: .cfa -16 + ^ x21: .cfa -24 + ^ x22: .cfa -32 + ^ x23: .cfa -40 + ^ x28: .cfa -48 + ^ .ra: .cfa -56 + ^ x29: .cfa -64 + ^
STACK CFI 34d44 .cfa: sp 384 +
STACK CFI 34d58 .cfa: sp 0 +
STACK CFI 34d5c .cfa: x29 64 +
STACK CFI INIT 34de8 130 .cfa: sp 0 +
STACK CFI 34dec .cfa: sp 96 +
STACK CFI 34e00 .cfa: x29 64 + x19: .cfa -8 + ^ x20: .cfa -16 + ^ x21: .cfa -24 + ^ x22: .cfa -32 + ^ x23: .cfa -40 + ^ x24: .cfa -48 + ^ .ra: .cfa -56 + ^ x29: .cfa -64 + ^
STACK CFI 34ea0 .cfa: sp 96 +
STACK CFI 34eb4 .cfa: sp 0 +
STACK CFI 34eb8 .cfa: x29 64 +
STACK CFI INIT 35010 338 .cfa: sp 0 +
STACK CFI 35014 .cfa: sp 176 +
STACK CFI 35030 .cfa: x29 96 + x19: .cfa -8 + ^ x20: .cfa -16 + ^ x21: .cfa -24 + ^ x22: .cfa -32 + ^ x23: .cfa -40 + ^ x24: .cfa -48 + ^ x25: .cfa -56 + ^ x26: .cfa -64 + ^ x27: .cfa -72 + ^ x28: .cfa -80 + ^ .ra: .cfa -88 + ^ x29: .cfa -96 + ^
STACK CFI 35288 .cfa: sp 176 +
STACK CFI 352a4 .cfa: sp 0 +
STACK CFI 352a8 .cfa: x29 96 +
STACK CFI INIT 353c4 a20 .cfa: sp 0 +
STACK CFI 353c8 .cfa: sp 48 +
STACK CFI 353d4 .cfa: x29 48 + x19: .cfa -8 + ^ x20: .cfa -16 + ^ x21: .cfa -24 + ^ x28: .cfa -32 + ^ .ra: .cfa -40 + ^ x29: .cfa -48 + ^
STACK CFI 35b3c .cfa: sp 48 +
STACK CFI 35b48 .cfa: sp 0 +
STACK CFI 35b4c .cfa: x29 48 +
STACK CFI INIT 36044 a8 .cfa: sp 0 +
STACK CFI 36048 .cfa: sp 432 +
STACK CFI 36058 .cfa: x29 48 + x19: .cfa -8 + ^ x20: .cfa -16 + ^ x21: .cfa -24 + ^ x28: .cfa -32 + ^ .ra: .cfa -40 + ^ x29: .cfa -48 + ^
STACK CFI 360b0 .cfa: sp 432 +
STACK CFI 360c0 .cfa: sp 0 +
STACK CFI 360c4 .cfa: x29 48 +
STACK CFI INIT 360ec 188 .cfa: sp 0 +
STACK CFI 360f0 .cfa: sp 80 +
STACK CFI 360fc .cfa: x29 32 + x19: .cfa -8 + ^ x20: .cfa -16 + ^ .ra: .cfa -24 + ^ x29: .cfa -32 + ^
STACK CFI 36214 .cfa: sp 80 +
STACK CFI 36220 .cfa: sp 0 +
STACK CFI 36224 .cfa: x29 32 +
STACK CFI INIT 36768 26c .cfa: sp 0 +
STACK CFI 3676c .cfa: sp 192 +
STACK CFI 36780 .cfa: x29 64 + x19: .cfa -8 + ^ x20: .cfa -16 + ^ x21: .cfa -24 + ^ x22: .cfa -32 + ^ x23: .cfa -48 + ^ .ra: .cfa -56 + ^ x29: .cfa -64 + ^
STACK CFI 36940 .cfa: sp 192 +
STACK CFI 36954 .cfa: sp 0 +
STACK CFI 36958 .cfa: x29 64 +
STACK CFI INIT 369d4 6c .cfa: sp 0 +
STACK CFI 369d8 .cfa: sp 32 +
STACK CFI 369e0 .cfa: x29 32 + x19: .cfa -16 + ^ .ra: .cfa -24 + ^ x29: .cfa -32 + ^
STACK CFI 36a30 .cfa: sp 32 +
STACK CFI 36a38 .cfa: sp 0 +
STACK CFI 36a3c .cfa: x29 32 +
STACK CFI INIT 36a40 74 .cfa: sp 0 +
STACK CFI 36a44 .cfa: sp 32 +
STACK CFI 36a4c .cfa: x29 32 + x19: .cfa -16 + ^ .ra: .cfa -24 + ^ x29: .cfa -32 + ^
STACK CFI 36aa4 .cfa: sp 32 +
STACK CFI 36aac .cfa: sp 0 +
STACK CFI 36ab0 .cfa: x29 32 +
STACK CFI INIT 36ab4 28c .cfa: sp 0 +
STACK CFI 36ab8 .cfa: sp 112 +
STACK CFI 36acc .cfa: x29 40 + x19: .cfa -8 + ^ x20: .cfa -16 + ^ x21: .cfa -24 + ^ .ra: .cfa -32 + ^ x29: .cfa -40 + ^ v8: .cfa -48 + ^
STACK CFI 36cd4 .cfa: sp 112 +
STACK CFI 36ce8 .cfa: sp 0 +
STACK CFI 36cec .cfa: x29 40 +
STACK CFI INIT 36d44 6c .cfa: sp 0 +
STACK CFI 36d48 .cfa: sp 32 +
STACK CFI 36d50 .cfa: x29 32 + x19: .cfa -16 + ^ .ra: .cfa -24 + ^ x29: .cfa -32 + ^
STACK CFI 36da0 .cfa: sp 32 +
STACK CFI 36da8 .cfa: sp 0 +
STACK CFI 36dac .cfa: x29 32 +
STACK CFI INIT 36db0 74 .cfa: sp 0 +
STACK CFI 36db4 .cfa: sp 32 +
STACK CFI 36dbc .cfa: x29 32 + x19: .cfa -16 + ^ .ra: .cfa -24 + ^ x29: .cfa -32 + ^
STACK CFI 36e14 .cfa: sp 32 +
STACK CFI 36e1c .cfa: sp 0 +
STACK CFI 36e20 .cfa: x29 32 +
STACK CFI INIT 36e24 100c .cfa: sp 0 +
STACK CFI 36e28 .cfa: sp 96 +
STACK CFI 36e40 .cfa: x29 96 + x19: .cfa -8 + ^ x20: .cfa -16 + ^ x21: .cfa -24 + ^ x22: .cfa -32 + ^ x23: .cfa -40 + ^ x24: .cfa -48 + ^ x25: .cfa -56 + ^ x26: .cfa -64 + ^ x27: .cfa -72 + ^ x28: .cfa -80 + ^ .ra: .cfa -88 + ^ x29: .cfa -96 + ^
STACK CFI 37d0c .cfa: sp 96 +
STACK CFI 37d24 .cfa: sp 0 +
STACK CFI 37d28 .cfa: x29 96 +
STACK CFI INIT 37e30 464 .cfa: sp 0 +
STACK CFI 37e34 .cfa: sp 48 +
STACK CFI 37e40 .cfa: x29 48 + x19: .cfa -8 + ^ x20: .cfa -16 + ^ x21: .cfa -32 + ^ .ra: .cfa -40 + ^ x29: .cfa -48 + ^
STACK CFI 3803c .cfa: sp 48 +
STACK CFI 38048 .cfa: sp 0 +
STACK CFI 3804c .cfa: x29 48 +
STACK CFI 38058 .cfa: sp 48 +
STACK CFI 38064 .cfa: sp 0 +
STACK CFI 38068 .cfa: x29 48 +
STACK CFI INIT 38294 74 .cfa: sp 0 +
STACK CFI 38298 .cfa: sp 48 +
STACK CFI 382a4 .cfa: x29 32 + x19: .cfa -8 + ^ x20: .cfa -16 + ^ .ra: .cfa -24 + ^ x29: .cfa -32 + ^
STACK CFI 382f0 .cfa: sp 48 +
STACK CFI 382fc .cfa: sp 0 +
STACK CFI 38300 .cfa: x29 32 +
STACK CFI INIT 38828 134 .cfa: sp 0 +
STACK CFI 3882c .cfa: sp 80 +
STACK CFI 38838 .cfa: x29 32 + x19: .cfa -8 + ^ x20: .cfa -16 + ^ .ra: .cfa -24 + ^ x29: .cfa -32 + ^
STACK CFI 38868 .cfa: sp 80 +
STACK CFI 38874 .cfa: sp 0 +
STACK CFI 38878 .cfa: x29 32 +
STACK CFI INIT 3895c 78 .cfa: sp 0 +
STACK CFI 38960 .cfa: sp 32 +
STACK CFI 38968 .cfa: x29 32 + x19: .cfa -8 + ^ x20: .cfa -16 + ^ .ra: .cfa -24 + ^ x29: .cfa -32 + ^
STACK CFI 38974 .cfa: sp 32 +
STACK CFI 3897c .cfa: sp 0 +
STACK CFI 38980 .cfa: x29 32 +
STACK CFI INIT 389d4 74 .cfa: sp 0 +
STACK CFI 389d8 .cfa: sp 48 +
STACK CFI 389e4 .cfa: x29 32 + x19: .cfa -8 + ^ x20: .cfa -16 + ^ .ra: .cfa -24 + ^ x29: .cfa -32 + ^
STACK CFI 38a30 .cfa: sp 48 +
STACK CFI 38a3c .cfa: sp 0 +
STACK CFI 38a40 .cfa: x29 32 +
STACK CFI INIT 38aac 208 .cfa: sp 0 +
STACK CFI 38ab0 .cfa: sp 112 +
STACK CFI 38ac0 .cfa: x29 48 + x19: .cfa -8 + ^ x20: .cfa -16 + ^ x21: .cfa -32 + ^ .ra: .cfa -40 + ^ x29: .cfa -48 + ^
STACK CFI 38b5c .cfa: sp 112 +
STACK CFI 38b6c .cfa: sp 0 +
STACK CFI 38b70 .cfa: x29 48 +
STACK CFI INIT 38d50 2d8 .cfa: sp 0 +
STACK CFI 38d54 .cfa: sp 128 +
STACK CFI 38d68 .cfa: x29 64 + x19: .cfa -8 + ^ x20: .cfa -16 + ^ x21: .cfa -24 + ^ x22: .cfa -32 + ^ x23: .cfa -48 + ^ .ra: .cfa -56 + ^ x29: .cfa -64 + ^
STACK CFI 38ed4 .cfa: sp 128 +
STACK CFI 38ee8 .cfa: sp 0 +
STACK CFI 38eec .cfa: x29 64 +
STACK CFI INIT 3907c 250 .cfa: sp 0 +
STACK CFI 39080 .cfa: sp 112 +
STACK CFI 39090 .cfa: x29 48 + x19: .cfa -8 + ^ x20: .cfa -16 + ^ x21: .cfa -32 + ^ .ra: .cfa -40 + ^ x29: .cfa -48 + ^
STACK CFI 39174 .cfa: sp 112 +
STACK CFI 39184 .cfa: sp 0 +
STACK CFI 39188 .cfa: x29 48 +
STACK CFI INIT 39374 1b8 .cfa: sp 0 +
STACK CFI 39378 .cfa: sp 160 +
STACK CFI 39394 .cfa: x29 72 + x19: .cfa -8 + ^ x20: .cfa -16 + ^ x21: .cfa -24 + ^ x22: .cfa -32 + ^ x23: .cfa -40 + ^ x24: .cfa -48 + ^ x25: .cfa -56 + ^ .ra: .cfa -64 + ^ x29: .cfa -72 + ^ v8: .cfa -80 + ^
STACK CFI 39418 .cfa: sp 160 +
STACK CFI 39434 .cfa: sp 0 +
STACK CFI 39438 .cfa: x29 72 +
STACK CFI INIT 3952c 16c .cfa: sp 0 +
STACK CFI 39530 .cfa: sp 64 +
STACK CFI 39540 .cfa: x29 48 + x19: .cfa -8 + ^ x20: .cfa -16 + ^ x21: .cfa -24 + ^ x22: .cfa -32 + ^ .ra: .cfa -40 + ^ x29: .cfa -48 + ^
STACK CFI 39638 .cfa: sp 64 +
STACK CFI 39648 .cfa: sp 0 +
STACK CFI 3964c .cfa: x29 48 +
STACK CFI INIT 39698 ac .cfa: sp 0 +
STACK CFI 3969c .cfa: sp 64 +
STACK CFI 396ac .cfa: x29 48 + x19: .cfa -8 + ^ x20: .cfa -16 + ^ x21: .cfa -32 + ^ .ra: .cfa -40 + ^ x29: .cfa -48 + ^
STACK CFI 39708 .cfa: sp 64 +
STACK CFI 39718 .cfa: sp 0 +
STACK CFI 3971c .cfa: x29 48 +
STACK CFI INIT 3993c 48 .cfa: sp 0 +
STACK CFI 39940 .cfa: sp 32 +
STACK CFI 39948 .cfa: x29 32 + x19: .cfa -16 + ^ .ra: .cfa -24 + ^ x29: .cfa -32 + ^
STACK CFI 39974 .cfa: sp 32 +
STACK CFI 3997c .cfa: sp 0 +
STACK CFI 39980 .cfa: x29 32 +
STACK CFI INIT 39984 50 .cfa: sp 0 +
STACK CFI 39988 .cfa: sp 32 +
STACK CFI 39990 .cfa: x29 32 + x19: .cfa -16 + ^ .ra: .cfa -24 + ^ x29: .cfa -32 + ^
STACK CFI 399c4 .cfa: sp 32 +
STACK CFI 399cc .cfa: sp 0 +
STACK CFI 399d0 .cfa: x29 32 +
STACK CFI INIT 399d4 b4 .cfa: sp 0 +
STACK CFI 399d8 .cfa: sp 48 +
STACK CFI 399e4 .cfa: x29 48 + x19: .cfa -8 + ^ x20: .cfa -16 + ^ x21: .cfa -32 + ^ .ra: .cfa -40 + ^ x29: .cfa -48 + ^
STACK CFI 39a64 .cfa: sp 48 +
STACK CFI 39a70 .cfa: sp 0 +
STACK CFI 39a74 .cfa: x29 48 +
STACK CFI INIT 39a8c 2bc .cfa: sp 0 +
STACK CFI 39a90 .cfa: sp 128 +
STACK CFI 39aa4 .cfa: x29 64 + x19: .cfa -8 + ^ x20: .cfa -16 + ^ x21: .cfa -24 + ^ x22: .cfa -32 + ^ x23: .cfa -48 + ^ .ra: .cfa -56 + ^ x29: .cfa -64 + ^
STACK CFI 39bf4 .cfa: sp 128 +
STACK CFI 39c08 .cfa: sp 0 +
STACK CFI 39c0c .cfa: x29 64 +
STACK CFI INIT 39d48 2bc .cfa: sp 0 +
STACK CFI 39d4c .cfa: sp 128 +
STACK CFI 39d60 .cfa: x29 64 + x19: .cfa -8 + ^ x20: .cfa -16 + ^ x21: .cfa -24 + ^ x22: .cfa -32 + ^ x23: .cfa -48 + ^ .ra: .cfa -56 + ^ x29: .cfa -64 + ^
STACK CFI 39eb0 .cfa: sp 128 +
STACK CFI 39ec4 .cfa: sp 0 +
STACK CFI 39ec8 .cfa: x29 64 +
STACK CFI INIT 3a004 278 .cfa: sp 0 +
STACK CFI 3a008 .cfa: sp 128 +
STACK CFI 3a01c .cfa: x29 64 + x19: .cfa -8 + ^ x20: .cfa -16 + ^ x21: .cfa -24 + ^ x22: .cfa -32 + ^ x23: .cfa -48 + ^ .ra: .cfa -56 + ^ x29: .cfa -64 + ^
STACK CFI 3a128 .cfa: sp 128 +
STACK CFI 3a13c .cfa: sp 0 +
STACK CFI 3a140 .cfa: x29 64 +
STACK CFI INIT 3a27c 2c8 .cfa: sp 0 +
STACK CFI 3a280 .cfa: sp 128 +
STACK CFI 3a294 .cfa: x29 64 + x19: .cfa -8 + ^ x20: .cfa -16 + ^ x21: .cfa -24 + ^ x22: .cfa -32 + ^ x23: .cfa -48 + ^ .ra: .cfa -56 + ^ x29: .cfa -64 + ^
STACK CFI 3a3f0 .cfa: sp 128 +
STACK CFI 3a404 .cfa: sp 0 +
STACK CFI 3a408 .cfa: x29 64 +
STACK CFI INIT 3a544 4cc .cfa: sp 0 +
STACK CFI 3a548 .cfa: sp 128 +
STACK CFI 3a55c .cfa: x29 64 + x19: .cfa -8 + ^ x20: .cfa -16 + ^ x21: .cfa -24 + ^ x22: .cfa -32 + ^ x23: .cfa -48 + ^ .ra: .cfa -56 + ^ x29: .cfa -64 + ^
STACK CFI 3a868 .cfa: sp 128 +
STACK CFI 3a87c .cfa: sp 0 +
STACK CFI 3a880 .cfa: x29 64 +
STACK CFI INIT 3aa10 154 .cfa: sp 0 +
STACK CFI 3aa14 .cfa: sp 384 +
STACK CFI 3aa28 .cfa: x29 64 + x19: .cfa -8 + ^ x20: .cfa -16 + ^ x21: .cfa -24 + ^ x22: .cfa -32 + ^ x23: .cfa -40 + ^ x28: .cfa -48 + ^ .ra: .cfa -56 + ^ x29: .cfa -64 + ^
STACK CFI 3ab0c .cfa: sp 384 +
STACK CFI 3ab20 .cfa: sp 0 +
STACK CFI 3ab24 .cfa: x29 64 +
STACK CFI INIT 3ab7c 4e0 .cfa: sp 0 +
STACK CFI 3ab80 .cfa: sp 64 +
STACK CFI 3ab90 .cfa: x29 64 + x19: .cfa -8 + ^ x20: .cfa -16 + ^ x21: .cfa -24 + ^ x22: .cfa -32 + ^ x23: .cfa -40 + ^ x24: .cfa -48 + ^ .ra: .cfa -56 + ^ x29: .cfa -64 + ^
STACK CFI 3b030 .cfa: sp 64 +
STACK CFI 3b040 .cfa: sp 0 +
STACK CFI 3b044 .cfa: x29 64 +
STACK CFI INIT 3b38c 294 .cfa: sp 0 +
STACK CFI 3b390 .cfa: sp 240 +
STACK CFI 3b3a8 .cfa: x29 80 + x19: .cfa -8 + ^ x20: .cfa -16 + ^ x21: .cfa -24 + ^ x22: .cfa -32 + ^ x23: .cfa -40 + ^ x24: .cfa -48 + ^ x25: .cfa -64 + ^ .ra: .cfa -72 + ^ x29: .cfa -80 + ^
STACK CFI 3b548 .cfa: sp 240 +
STACK CFI 3b560 .cfa: sp 0 +
STACK CFI 3b564 .cfa: x29 80 +
STACK CFI INIT 3b69c 50 .cfa: sp 0 +
STACK CFI 3b6a0 .cfa: sp 32 +
STACK CFI 3b6a8 .cfa: x29 32 + x19: .cfa -8 + ^ x20: .cfa -16 + ^ .ra: .cfa -24 + ^ x29: .cfa -32 + ^
STACK CFI INIT 3b718 7c0 .cfa: sp 0 +
STACK CFI 3b71c .cfa: sp 320 +
STACK CFI 3b738 .cfa: x29 96 + x19: .cfa -8 + ^ x20: .cfa -16 + ^ x21: .cfa -24 + ^ x22: .cfa -32 + ^ x23: .cfa -40 + ^ x24: .cfa -48 + ^ x25: .cfa -56 + ^ x26: .cfa -64 + ^ x27: .cfa -72 + ^ x28: .cfa -80 + ^ .ra: .cfa -88 + ^ x29: .cfa -96 + ^
STACK CFI 3bd88 .cfa: sp 320 +
STACK CFI 3bda4 .cfa: sp 0 +
STACK CFI 3bda8 .cfa: x29 96 +
STACK CFI INIT 3bf3c 13c .cfa: sp 0 +
STACK CFI 3bf40 .cfa: sp 80 +
STACK CFI 3bf54 .cfa: x29 80 + x19: .cfa -8 + ^ x20: .cfa -16 + ^ x21: .cfa -24 + ^ x22: .cfa -32 + ^ x23: .cfa -40 + ^ x24: .cfa -48 + ^ x28: .cfa -64 + ^ .ra: .cfa -72 + ^ x29: .cfa -80 + ^
STACK CFI 3bfe8 .cfa: sp 80 +
STACK CFI 3bffc .cfa: sp 0 +
STACK CFI 3c000 .cfa: x29 80 +
STACK CFI INIT 40394 c74 .cfa: sp 0 +
STACK CFI 40398 .cfa: sp 96 +
STACK CFI 403b0 .cfa: x29 96 + x19: .cfa -8 + ^ x20: .cfa -16 + ^ x21: .cfa -24 + ^ x22: .cfa -32 + ^ x23: .cfa -40 + ^ x24: .cfa -48 + ^ x25: .cfa -56 + ^ x26: .cfa -64 + ^ x27: .cfa -72 + ^ x28: .cfa -80 + ^ .ra: .cfa -88 + ^ x29: .cfa -96 + ^
STACK CFI 40e28 .cfa: sp 96 +
STACK CFI 40e40 .cfa: sp 0 +
STACK CFI 40e44 .cfa: x29 96 +
STACK CFI INIT 4115c 26c .cfa: sp 0 +
STACK CFI 41160 .cfa: sp 128 +
STACK CFI 41170 .cfa: x29 48 + x19: .cfa -8 + ^ x20: .cfa -16 + ^ x21: .cfa -24 + ^ x22: .cfa -32 + ^ .ra: .cfa -40 + ^ x29: .cfa -48 + ^
STACK CFI 41314 .cfa: sp 128 +
STACK CFI 41324 .cfa: sp 0 +
STACK CFI 41328 .cfa: x29 48 +
STACK CFI INIT 41758 3b8 .cfa: sp 0 +
STACK CFI 4175c .cfa: sp 96 +
STACK CFI 41774 .cfa: x29 96 + x19: .cfa -8 + ^ x20: .cfa -16 + ^ x21: .cfa -24 + ^ x22: .cfa -32 + ^ x23: .cfa -40 + ^ x24: .cfa -48 + ^ x25: .cfa -56 + ^ x26: .cfa -64 + ^ x27: .cfa -72 + ^ x28: .cfa -80 + ^ .ra: .cfa -88 + ^ x29: .cfa -96 + ^
STACK CFI 41ab0 .cfa: sp 96 +
STACK CFI 41ac8 .cfa: sp 0 +
STACK CFI 41acc .cfa: x29 96 +
STACK CFI INIT 41bb0 cb4 .cfa: sp 0 +
STACK CFI 41bb4 .cfa: sp 96 +
STACK CFI 41bcc .cfa: x29 96 + x19: .cfa -8 + ^ x20: .cfa -16 + ^ x21: .cfa -24 + ^ x22: .cfa -32 + ^ x23: .cfa -40 + ^ x24: .cfa -48 + ^ x25: .cfa -56 + ^ x26: .cfa -64 + ^ x27: .cfa -72 + ^ x28: .cfa -80 + ^ .ra: .cfa -88 + ^ x29: .cfa -96 + ^
STACK CFI 42674 .cfa: sp 96 +
STACK CFI 4268c .cfa: sp 0 +
STACK CFI 42690 .cfa: x29 96 +
STACK CFI INIT 42b4c afc .cfa: sp 0 +
STACK CFI 42b50 .cfa: sp 96 +
STACK CFI 42b68 .cfa: x29 96 + x19: .cfa -8 + ^ x20: .cfa -16 + ^ x21: .cfa -24 + ^ x22: .cfa -32 + ^ x23: .cfa -40 + ^ x24: .cfa -48 + ^ x25: .cfa -56 + ^ x26: .cfa -64 + ^ x27: .cfa -72 + ^ x28: .cfa -80 + ^ .ra: .cfa -88 + ^ x29: .cfa -96 + ^
STACK CFI 435bc .cfa: sp 96 +
STACK CFI 435d4 .cfa: sp 0 +
STACK CFI 435d8 .cfa: x29 96 +
STACK CFI INIT 43824 1430 .cfa: sp 0 +
STACK CFI 43828 .cfa: sp 96 +
STACK CFI 43840 .cfa: x29 96 + x19: .cfa -8 + ^ x20: .cfa -16 + ^ x21: .cfa -24 + ^ x22: .cfa -32 + ^ x23: .cfa -40 + ^ x24: .cfa -48 + ^ x25: .cfa -56 + ^ x26: .cfa -64 + ^ x27: .cfa -72 + ^ x28: .cfa -80 + ^ .ra: .cfa -88 + ^ x29: .cfa -96 + ^
STACK CFI 44adc .cfa: sp 96 +
STACK CFI 44af4 .cfa: sp 0 +
STACK CFI 44af8 .cfa: x29 96 +
STACK CFI INIT 44d78 75c .cfa: sp 0 +
STACK CFI 44d7c .cfa: sp 368 +
STACK CFI 44d98 .cfa: x29 96 + x19: .cfa -8 + ^ x20: .cfa -16 + ^ x21: .cfa -24 + ^ x22: .cfa -32 + ^ x23: .cfa -40 + ^ x24: .cfa -48 + ^ x25: .cfa -56 + ^ x26: .cfa -64 + ^ x27: .cfa -72 + ^ x28: .cfa -80 + ^ .ra: .cfa -88 + ^ x29: .cfa -96 + ^
STACK CFI 44e4c .cfa: sp 368 +
STACK CFI 44e68 .cfa: sp 0 +
STACK CFI 44e6c .cfa: x29 96 +
STACK CFI 44ec0 .cfa: sp 368 +
STACK CFI 44edc .cfa: sp 0 +
STACK CFI 44ee0 .cfa: x29 96 +
STACK CFI INIT 45894 eb0 .cfa: sp 0 +
STACK CFI 45898 .cfa: sp 96 +
STACK CFI 458b0 .cfa: x29 96 + x19: .cfa -8 + ^ x20: .cfa -16 + ^ x21: .cfa -24 + ^ x22: .cfa -32 + ^ x23: .cfa -40 + ^ x24: .cfa -48 + ^ x25: .cfa -56 + ^ x26: .cfa -64 + ^ x27: .cfa -72 + ^ x28: .cfa -80 + ^ .ra: .cfa -88 + ^ x29: .cfa -96 + ^
STACK CFI 46558 .cfa: sp 96 +
STACK CFI 46570 .cfa: sp 0 +
STACK CFI 46574 .cfa: x29 96 +
STACK CFI INIT 46ab8 1c9c .cfa: sp 0 +
STACK CFI 46abc .cfa: sp 112 +
STACK CFI 46ad8 .cfa: x29 96 + x19: .cfa -8 + ^ x20: .cfa -16 + ^ x21: .cfa -24 + ^ x22: .cfa -32 + ^ x23: .cfa -40 + ^ x24: .cfa -48 + ^ x25: .cfa -56 + ^ x26: .cfa -64 + ^ x27: .cfa -72 + ^ x28: .cfa -80 + ^ .ra: .cfa -88 + ^ x29: .cfa -96 + ^ v8: .cfa -112 + ^
STACK CFI 46ec0 .cfa: sp 112 +
STACK CFI 46edc .cfa: sp 0 +
STACK CFI 46ee0 .cfa: x29 96 +
STACK CFI INIT 4af18 9a0 .cfa: sp 0 +
STACK CFI 4af1c .cfa: sp 144 +
STACK CFI 4af34 .cfa: x29 80 + x19: .cfa -8 + ^ x20: .cfa -16 + ^ x21: .cfa -24 + ^ x22: .cfa -32 + ^ x23: .cfa -40 + ^ x24: .cfa -48 + ^ x25: .cfa -64 + ^ .ra: .cfa -72 + ^ x29: .cfa -80 + ^
STACK CFI 4b834 .cfa: sp 144 +
STACK CFI 4b84c .cfa: sp 0 +
STACK CFI 4b850 .cfa: x29 80 +
STACK CFI INIT 4cddc 57c .cfa: sp 0 +
STACK CFI 4cde0 .cfa: sp 96 +
STACK CFI 4cdf8 .cfa: x29 96 + x19: .cfa -8 + ^ x20: .cfa -16 + ^ x21: .cfa -24 + ^ x22: .cfa -32 + ^ x23: .cfa -40 + ^ x24: .cfa -48 + ^ x25: .cfa -56 + ^ x26: .cfa -64 + ^ x27: .cfa -72 + ^ x28: .cfa -80 + ^ .ra: .cfa -88 + ^ x29: .cfa -96 + ^
STACK CFI 4d2bc .cfa: sp 96 +
STACK CFI 4d2d4 .cfa: sp 0 +
STACK CFI 4d2d8 .cfa: x29 96 +
STACK CFI INIT 4d358 67c .cfa: sp 0 +
STACK CFI 4d35c .cfa: sp 96 +
STACK CFI 4d374 .cfa: x29 96 + x19: .cfa -8 + ^ x20: .cfa -16 + ^ x21: .cfa -24 + ^ x22: .cfa -32 + ^ x23: .cfa -40 + ^ x24: .cfa -48 + ^ x25: .cfa -56 + ^ x26: .cfa -64 + ^ x27: .cfa -72 + ^ x28: .cfa -80 + ^ .ra: .cfa -88 + ^ x29: .cfa -96 + ^
STACK CFI 4d938 .cfa: sp 96 +
STACK CFI 4d950 .cfa: sp 0 +
STACK CFI 4d954 .cfa: x29 96 +
