MODULE Linux arm64 B3F198EF621B0BEC0F6AD00166C38DC20 raydeeux.skipeditorobjects.android64.so
INFO CODE_ID EF98F1B31B62EC0B0F6AD00166C38DC2757ED53A
INFO GENERATOR mozilla/dump_syms 2.3.4
PUBLIC 117b0 0 __on_dlclose
PUBLIC 117c0 0 __emutls_unregister_key
PUBLIC 117c8 0 __on_dlclose_late
PUBLIC 117d0 0 __atexit_handler_wrapper
PUBLIC 117e4 0 atexit
PUBLIC 11800 0 pthread_atfork
PUBLIC 11810 0 __aarch64_ldadd8_relax
PUBLIC 11840 0 init_have_lse_atomics
PUBLIC 118d8 0 __init_cpu_features_constructor
PUBLIC 11b84 0 __init_cpu_features
PUBLIC 11c10 0 __aarch64_ldadd8_acq_rel
PUBLIC 11c40 0 geodeExecFunction17<(anonymous namespace)::ExecFuncUnique17>(geode::ModStateEvent*)
PUBLIC 121ac 0 __cxx_global_var_init.1
PUBLIC 12620 0 geode::modifier::ModifyBase<geode::modifier::ModifyDerive<MyEditButtonBar, EditButtonBar> >::~ModifyBase()
PUBLIC 12638 0 __cxx_global_var_init.2
PUBLIC 12aac 0 geode::modifier::ModifyBase<geode::modifier::ModifyDerive<MyEditorUI, EditorUI> >::~ModifyBase()
PUBLIC 12ac4 0 MyButtonSettingV3::parse(std::__ndk1::basic_string<char, std::__ndk1::char_traits<char>, std::__ndk1::allocator<char> > const&, std::__ndk1::basic_string<char, std::__ndk1::char_traits<char>, std::__ndk1::allocator<char> > const&, matjson::Value const&)
PUBLIC 12e48 0 geode::impl::ResultData<void, std::__ndk1::basic_string<char, std::__ndk1::char_traits<char>, std::__ndk1::allocator<char> > >::~ResultData()
PUBLIC 12ebc 0 __clang_call_terminate
PUBLIC 12ecc 0 std::__ndk1::shared_ptr<geode::SettingV3>::~shared_ptr[abi:ne190000]()
PUBLIC 12f1c 0 std::__ndk1::shared_ptr<MyButtonSettingV3>::~shared_ptr[abi:ne190000]()
PUBLIC 12f6c 0 std::__throw_bad_array_new_length([abi:ne190000], void)
PUBLIC 12fa0 0 std::__ndk1::__shared_ptr_emplace<MyButtonSettingV3, std::__ndk1::allocator<MyButtonSettingV3> >::~__shared_ptr_emplace()
PUBLIC 12fb0 0 std::__ndk1::__shared_ptr_emplace<MyButtonSettingV3, std::__ndk1::allocator<MyButtonSettingV3> >::~__shared_ptr_emplace()
PUBLIC 12fe0 0 std::__ndk1::__shared_ptr_emplace<MyButtonSettingV3, std::__ndk1::allocator<MyButtonSettingV3> >::__on_zero_shared()
PUBLIC 12fec 0 std::__ndk1::__shared_ptr_emplace<MyButtonSettingV3, std::__ndk1::allocator<MyButtonSettingV3> >::__on_zero_shared_weak()
PUBLIC 12ff0 0 std::__ndk1::__throw_bad_variant_access[abi:ne190000]()
PUBLIC 13024 0 geode::UnwrapException::~UnwrapException()
PUBLIC 13048 0 std::__ndk1::basic_string<char, std::__ndk1::char_traits<char>, std::__ndk1::allocator<char> >::__init_copy_ctor_external(char const*, unsigned long)
PUBLIC 130dc 0 std::__ndk1::basic_string<char, std::__ndk1::char_traits<char>, std::__ndk1::allocator<char> >::__throw_length_error[abi:ne190000]() const
PUBLIC 130f0 0 std::__ndk1::__throw_length_error[abi:ne190000](char const*)
PUBLIC 13140 0 std::length_error::length_error[abi:ne190000](char const*)
PUBLIC 13170 0 std::__ndk1::__function::__base<geode::Result<std::__ndk1::shared_ptr<geode::SettingV3>, std::__ndk1::basic_string<char, std::__ndk1::char_traits<char>, std::__ndk1::allocator<char> > >(std::__ndk1::basic_string<char, std::__ndk1::char_traits<char>, std::__ndk1::allocator<char> > const&, std::__ndk1::basic_string<char, std::__ndk1::char_traits<char>, std::__ndk1::allocator<char> > const&, matjson::Value const&)>::~__base()
PUBLIC 13174 0 std::__ndk1::__function::__func<geode::Result<std::__ndk1::shared_ptr<geode::SettingV3>, std::__ndk1::basic_string<char, std::__ndk1::char_traits<char>, std::__ndk1::allocator<char> > > (*)(std::__ndk1::basic_string<char, std::__ndk1::char_traits<char>, std::__ndk1::allocator<char> > const&, std::__ndk1::basic_string<char, std::__ndk1::char_traits<char>, std::__ndk1::allocator<char> > const&, matjson::Value const&), std::__ndk1::allocator<geode::Result<std::__ndk1::shared_ptr<geode::SettingV3>, std::__ndk1::basic_string<char, std::__ndk1::char_traits<char>, std::__ndk1::allocator<char> > > (*)(std::__ndk1::basic_string<char, std::__ndk1::char_traits<char>, std::__ndk1::allocator<char> > const&, std::__ndk1::basic_string<char, std::__ndk1::char_traits<char>, std::__ndk1::allocator<char> > const&, matjson::Value const&)>, geode::Result<std::__ndk1::shared_ptr<geode::SettingV3>, std::__ndk1::basic_string<char, std::__ndk1::char_traits<char>, std::__ndk1::allocator<char> > >(std::__ndk1::basic_string<char, std::__ndk1::char_traits<char>, std::__ndk1::allocator<char> > const&, std::__ndk1::basic_string<char, std::__ndk1::char_traits<char>, std::__ndk1::allocator<char> > const&, matjson::Value const&)>::~__func()
PUBLIC 13178 0 std::__ndk1::__function::__func<geode::Result<std::__ndk1::shared_ptr<geode::SettingV3>, std::__ndk1::basic_string<char, std::__ndk1::char_traits<char>, std::__ndk1::allocator<char> > > (*)(std::__ndk1::basic_string<char, std::__ndk1::char_traits<char>, std::__ndk1::allocator<char> > const&, std::__ndk1::basic_string<char, std::__ndk1::char_traits<char>, std::__ndk1::allocator<char> > const&, matjson::Value const&), std::__ndk1::allocator<geode::Result<std::__ndk1::shared_ptr<geode::SettingV3>, std::__ndk1::basic_string<char, std::__ndk1::char_traits<char>, std::__ndk1::allocator<char> > > (*)(std::__ndk1::basic_string<char, std::__ndk1::char_traits<char>, std::__ndk1::allocator<char> > const&, std::__ndk1::basic_string<char, std::__ndk1::char_traits<char>, std::__ndk1::allocator<char> > const&, matjson::Value const&)>, geode::Result<std::__ndk1::shared_ptr<geode::SettingV3>, std::__ndk1::basic_string<char, std::__ndk1::char_traits<char>, std::__ndk1::allocator<char> > >(std::__ndk1::basic_string<char, std::__ndk1::char_traits<char>, std::__ndk1::allocator<char> > const&, std::__ndk1::basic_string<char, std::__ndk1::char_traits<char>, std::__ndk1::allocator<char> > const&, matjson::Value const&)>::__clone() const
PUBLIC 131ac 0 std::__ndk1::__function::__func<geode::Result<std::__ndk1::shared_ptr<geode::SettingV3>, std::__ndk1::basic_string<char, std::__ndk1::char_traits<char>, std::__ndk1::allocator<char> > > (*)(std::__ndk1::basic_string<char, std::__ndk1::char_traits<char>, std::__ndk1::allocator<char> > const&, std::__ndk1::basic_string<char, std::__ndk1::char_traits<char>, std::__ndk1::allocator<char> > const&, matjson::Value const&), std::__ndk1::allocator<geode::Result<std::__ndk1::shared_ptr<geode::SettingV3>, std::__ndk1::basic_string<char, std::__ndk1::char_traits<char>, std::__ndk1::allocator<char> > > (*)(std::__ndk1::basic_string<char, std::__ndk1::char_traits<char>, std::__ndk1::allocator<char> > const&, std::__ndk1::basic_string<char, std::__ndk1::char_traits<char>, std::__ndk1::allocator<char> > const&, matjson::Value const&)>, geode::Result<std::__ndk1::shared_ptr<geode::SettingV3>, std::__ndk1::basic_string<char, std::__ndk1::char_traits<char>, std::__ndk1::allocator<char> > >(std::__ndk1::basic_string<char, std::__ndk1::char_traits<char>, std::__ndk1::allocator<char> > const&, std::__ndk1::basic_string<char, std::__ndk1::char_traits<char>, std::__ndk1::allocator<char> > const&, matjson::Value const&)>::__clone(std::__ndk1::__function::__base<geode::Result<std::__ndk1::shared_ptr<geode::SettingV3>, std::__ndk1::basic_string<char, std::__ndk1::char_traits<char>, std::__ndk1::allocator<char> > >(std::__ndk1::basic_string<char, std::__ndk1::char_traits<char>, std::__ndk1::allocator<char> > const&, std::__ndk1::basic_string<char, std::__ndk1::char_traits<char>, std::__ndk1::allocator<char> > const&, matjson::Value const&)>*) const
PUBLIC 131c0 0 std::__ndk1::__function::__func<geode::Result<std::__ndk1::shared_ptr<geode::SettingV3>, std::__ndk1::basic_string<char, std::__ndk1::char_traits<char>, std::__ndk1::allocator<char> > > (*)(std::__ndk1::basic_string<char, std::__ndk1::char_traits<char>, std::__ndk1::allocator<char> > const&, std::__ndk1::basic_string<char, std::__ndk1::char_traits<char>, std::__ndk1::allocator<char> > const&, matjson::Value const&), std::__ndk1::allocator<geode::Result<std::__ndk1::shared_ptr<geode::SettingV3>, std::__ndk1::basic_string<char, std::__ndk1::char_traits<char>, std::__ndk1::allocator<char> > > (*)(std::__ndk1::basic_string<char, std::__ndk1::char_traits<char>, std::__ndk1::allocator<char> > const&, std::__ndk1::basic_string<char, std::__ndk1::char_traits<char>, std::__ndk1::allocator<char> > const&, matjson::Value const&)>, geode::Result<std::__ndk1::shared_ptr<geode::SettingV3>, std::__ndk1::basic_string<char, std::__ndk1::char_traits<char>, std::__ndk1::allocator<char> > >(std::__ndk1::basic_string<char, std::__ndk1::char_traits<char>, std::__ndk1::allocator<char> > const&, std::__ndk1::basic_string<char, std::__ndk1::char_traits<char>, std::__ndk1::allocator<char> > const&, matjson::Value const&)>::destroy()
PUBLIC 131c4 0 std::__ndk1::__function::__func<geode::Result<std::__ndk1::shared_ptr<geode::SettingV3>, std::__ndk1::basic_string<char, std::__ndk1::char_traits<char>, std::__ndk1::allocator<char> > > (*)(std::__ndk1::basic_string<char, std::__ndk1::char_traits<char>, std::__ndk1::allocator<char> > const&, std::__ndk1::basic_string<char, std::__ndk1::char_traits<char>, std::__ndk1::allocator<char> > const&, matjson::Value const&), std::__ndk1::allocator<geode::Result<std::__ndk1::shared_ptr<geode::SettingV3>, std::__ndk1::basic_string<char, std::__ndk1::char_traits<char>, std::__ndk1::allocator<char> > > (*)(std::__ndk1::basic_string<char, std::__ndk1::char_traits<char>, std::__ndk1::allocator<char> > const&, std::__ndk1::basic_string<char, std::__ndk1::char_traits<char>, std::__ndk1::allocator<char> > const&, matjson::Value const&)>, geode::Result<std::__ndk1::shared_ptr<geode::SettingV3>, std::__ndk1::basic_string<char, std::__ndk1::char_traits<char>, std::__ndk1::allocator<char> > >(std::__ndk1::basic_string<char, std::__ndk1::char_traits<char>, std::__ndk1::allocator<char> > const&, std::__ndk1::basic_string<char, std::__ndk1::char_traits<char>, std::__ndk1::allocator<char> > const&, matjson::Value const&)>::destroy_deallocate()
PUBLIC 131c8 0 std::__ndk1::__function::__func<geode::Result<std::__ndk1::shared_ptr<geode::SettingV3>, std::__ndk1::basic_string<char, std::__ndk1::char_traits<char>, std::__ndk1::allocator<char> > > (*)(std::__ndk1::basic_string<char, std::__ndk1::char_traits<char>, std::__ndk1::allocator<char> > const&, std::__ndk1::basic_string<char, std::__ndk1::char_traits<char>, std::__ndk1::allocator<char> > const&, matjson::Value const&), std::__ndk1::allocator<geode::Result<std::__ndk1::shared_ptr<geode::SettingV3>, std::__ndk1::basic_string<char, std::__ndk1::char_traits<char>, std::__ndk1::allocator<char> > > (*)(std::__ndk1::basic_string<char, std::__ndk1::char_traits<char>, std::__ndk1::allocator<char> > const&, std::__ndk1::basic_string<char, std::__ndk1::char_traits<char>, std::__ndk1::allocator<char> > const&, matjson::Value const&)>, geode::Result<std::__ndk1::shared_ptr<geode::SettingV3>, std::__ndk1::basic_string<char, std::__ndk1::char_traits<char>, std::__ndk1::allocator<char> > >(std::__ndk1::basic_string<char, std::__ndk1::char_traits<char>, std::__ndk1::allocator<char> > const&, std::__ndk1::basic_string<char, std::__ndk1::char_traits<char>, std::__ndk1::allocator<char> > const&, matjson::Value const&)>::operator()(std::__ndk1::basic_string<char, std::__ndk1::char_traits<char>, std::__ndk1::allocator<char> > const&, std::__ndk1::basic_string<char, std::__ndk1::char_traits<char>, std::__ndk1::allocator<char> > const&, matjson::Value const&)
PUBLIC 131dc 0 std::__ndk1::__function::__func<geode::Result<std::__ndk1::shared_ptr<geode::SettingV3>, std::__ndk1::basic_string<char, std::__ndk1::char_traits<char>, std::__ndk1::allocator<char> > > (*)(std::__ndk1::basic_string<char, std::__ndk1::char_traits<char>, std::__ndk1::allocator<char> > const&, std::__ndk1::basic_string<char, std::__ndk1::char_traits<char>, std::__ndk1::allocator<char> > const&, matjson::Value const&), std::__ndk1::allocator<geode::Result<std::__ndk1::shared_ptr<geode::SettingV3>, std::__ndk1::basic_string<char, std::__ndk1::char_traits<char>, std::__ndk1::allocator<char> > > (*)(std::__ndk1::basic_string<char, std::__ndk1::char_traits<char>, std::__ndk1::allocator<char> > const&, std::__ndk1::basic_string<char, std::__ndk1::char_traits<char>, std::__ndk1::allocator<char> > const&, matjson::Value const&)>, geode::Result<std::__ndk1::shared_ptr<geode::SettingV3>, std::__ndk1::basic_string<char, std::__ndk1::char_traits<char>, std::__ndk1::allocator<char> > >(std::__ndk1::basic_string<char, std::__ndk1::char_traits<char>, std::__ndk1::allocator<char> > const&, std::__ndk1::basic_string<char, std::__ndk1::char_traits<char>, std::__ndk1::allocator<char> > const&, matjson::Value const&)>::target(std::type_info const&) const
PUBLIC 131f8 0 std::__ndk1::__function::__func<geode::Result<std::__ndk1::shared_ptr<geode::SettingV3>, std::__ndk1::basic_string<char, std::__ndk1::char_traits<char>, std::__ndk1::allocator<char> > > (*)(std::__ndk1::basic_string<char, std::__ndk1::char_traits<char>, std::__ndk1::allocator<char> > const&, std::__ndk1::basic_string<char, std::__ndk1::char_traits<char>, std::__ndk1::allocator<char> > const&, matjson::Value const&), std::__ndk1::allocator<geode::Result<std::__ndk1::shared_ptr<geode::SettingV3>, std::__ndk1::basic_string<char, std::__ndk1::char_traits<char>, std::__ndk1::allocator<char> > > (*)(std::__ndk1::basic_string<char, std::__ndk1::char_traits<char>, std::__ndk1::allocator<char> > const&, std::__ndk1::basic_string<char, std::__ndk1::char_traits<char>, std::__ndk1::allocator<char> > const&, matjson::Value const&)>, geode::Result<std::__ndk1::shared_ptr<geode::SettingV3>, std::__ndk1::basic_string<char, std::__ndk1::char_traits<char>, std::__ndk1::allocator<char> > >(std::__ndk1::basic_string<char, std::__ndk1::char_traits<char>, std::__ndk1::allocator<char> > const&, std::__ndk1::basic_string<char, std::__ndk1::char_traits<char>, std::__ndk1::allocator<char> > const&, matjson::Value const&)>::target_type() const
PUBLIC 13204 0 std::__ndk1::__variant_detail::__visitation::__base::__dispatcher<(unsigned long)0>::__dispatch[abi:ne190000]<std::__ndk1::__variant_detail::__dtor<std::__ndk1::__variant_detail::__traits<std::__ndk1::monostate, std::__ndk1::basic_string<char, std::__ndk1::char_traits<char>, std::__ndk1::allocator<char> > >, (std::__ndk1::__variant_detail::_Trait)1>::__destroy[abi:ne190000]()::{lambda(auto:1&)#1}, std::__ndk1::__variant_detail::__base<(std::__ndk1::__variant_detail::__traits<std::__ndk1::monostate, std::__ndk1::basic_string<char, std::__ndk1::char_traits<char>, std::__ndk1::allocator<char> > >)1, std::__ndk1::__variant_detail::__traits, std::__ndk1::allocator<char> >&>(std::__ndk1::__variant_detail::__dtor<std::__ndk1::__variant_detail::__traits<std::__ndk1::monostate, std::__ndk1::basic_string<char, std::__ndk1::char_traits<char>, std::__ndk1::allocator<char> > >, (std::__ndk1::__variant_detail::_Trait)1>, std::__ndk1::__variant_detail::__base<(std::__ndk1::__variant_detail::__traits<std::__ndk1::monostate, std::__ndk1::basic_string<char, std::__ndk1::char_traits<char>, std::__ndk1::allocator<char> > >)1, std::__ndk1::__variant_detail::__traits, std::__ndk1::allocator<char> >&)
PUBLIC 13208 0 std::__ndk1::__variant_detail::__visitation::__base::__dispatcher<(unsigned long)1>::__dispatch[abi:ne190000]<std::__ndk1::__variant_detail::__dtor<std::__ndk1::__variant_detail::__traits<std::__ndk1::monostate, std::__ndk1::basic_string<char, std::__ndk1::char_traits<char>, std::__ndk1::allocator<char> > >, (std::__ndk1::__variant_detail::_Trait)1>::__destroy[abi:ne190000]()::{lambda(auto:1&)#1}, std::__ndk1::__variant_detail::__base<(std::__ndk1::__variant_detail::__traits<std::__ndk1::monostate, std::__ndk1::basic_string<char, std::__ndk1::char_traits<char>, std::__ndk1::allocator<char> > >)1, std::__ndk1::__variant_detail::__traits, std::__ndk1::allocator<char> >&>(std::__ndk1::__variant_detail::__dtor<std::__ndk1::__variant_detail::__traits<std::__ndk1::monostate, std::__ndk1::basic_string<char, std::__ndk1::char_traits<char>, std::__ndk1::allocator<char> > >, (std::__ndk1::__variant_detail::_Trait)1>, std::__ndk1::__variant_detail::__base<(std::__ndk1::__variant_detail::__traits<std::__ndk1::monostate, std::__ndk1::basic_string<char, std::__ndk1::char_traits<char>, std::__ndk1::allocator<char> > >)1, std::__ndk1::__variant_detail::__traits, std::__ndk1::allocator<char> >&)
PUBLIC 1321c 0 std::__ndk1::__fs::filesystem::path::operator/=[abi:ne190000](std::__ndk1::__fs::filesystem::path const&)
PUBLIC 13304 0 std::__ndk1::basic_string<char, std::__ndk1::char_traits<char>, std::__ndk1::allocator<char> >::__assign_no_alias<true>(char const*, unsigned long)
PUBLIC 133b0 0 std::__ndk1::basic_string<char, std::__ndk1::char_traits<char>, std::__ndk1::allocator<char> >::__assign_no_alias<false>(char const*, unsigned long)
PUBLIC 134ec 0 _ZNSt6__ndk112basic_stringIcNS_11char_traitsIcEENS_9allocatorIcEEE6appendB8ne190000IPKcTnNS_9enable_ifIXsr31__has_forward_iterator_categoryIT_EE5valueEiE4typeELi0EEERS5_SA_SA_
PUBLIC 13830 0 geode::EventListener<geode::ModStateFilter>::getPool() const
PUBLIC 13834 0 geode::EventListener<geode::ModStateFilter>::handle(geode::Event*)
PUBLIC 13998 0 geode::EventListener<geode::ModStateFilter>::~EventListener()
PUBLIC 139f4 0 geode::EventListener<geode::ModStateFilter>::~EventListener()
PUBLIC 13a58 0 std::__ndk1::__function::__base<void (geode::ModStateEvent*)>::~__base()
PUBLIC 13a5c 0 std::__ndk1::__function::__func<void (*)(geode::ModStateEvent*), std::__ndk1::allocator<void (*)(geode::ModStateEvent*)>, void (geode::ModStateEvent*)>::~__func()
PUBLIC 13a60 0 std::__ndk1::__function::__func<void (*)(geode::ModStateEvent*), std::__ndk1::allocator<void (*)(geode::ModStateEvent*)>, void (geode::ModStateEvent*)>::__clone() const
PUBLIC 13a94 0 std::__ndk1::__function::__func<void (*)(geode::ModStateEvent*), std::__ndk1::allocator<void (*)(geode::ModStateEvent*)>, void (geode::ModStateEvent*)>::__clone(std::__ndk1::__function::__base<void (geode::ModStateEvent*)>*) const
PUBLIC 13aa8 0 std::__ndk1::__function::__func<void (*)(geode::ModStateEvent*), std::__ndk1::allocator<void (*)(geode::ModStateEvent*)>, void (geode::ModStateEvent*)>::destroy()
PUBLIC 13aac 0 std::__ndk1::__function::__func<void (*)(geode::ModStateEvent*), std::__ndk1::allocator<void (*)(geode::ModStateEvent*)>, void (geode::ModStateEvent*)>::destroy_deallocate()
PUBLIC 13ab0 0 std::__ndk1::__function::__func<void (*)(geode::ModStateEvent*), std::__ndk1::allocator<void (*)(geode::ModStateEvent*)>, void (geode::ModStateEvent*)>::operator()(geode::ModStateEvent*&&)
PUBLIC 13ac0 0 std::__ndk1::__function::__func<void (*)(geode::ModStateEvent*), std::__ndk1::allocator<void (*)(geode::ModStateEvent*)>, void (geode::ModStateEvent*)>::target(std::type_info const&) const
PUBLIC 13adc 0 std::__ndk1::__function::__func<void (*)(geode::ModStateEvent*), std::__ndk1::allocator<void (*)(geode::ModStateEvent*)>, void (geode::ModStateEvent*)>::target_type() const
PUBLIC 13ae8 0 geode::cast::traverseTypeinfoFor(void*, geode::cast::ClassTypeinfoType const*, char const*)
PUBLIC 13be0 0 geode::modifier::ModifyDerive<MyEditButtonBar, EditButtonBar>::apply()
PUBLIC 13fd0 0 std::__ndk1::shared_ptr<geode::Hook>::~shared_ptr[abi:ne190000]()
PUBLIC 14020 0 geode::impl::ResultData<geode::Hook*, std::__ndk1::basic_string<char, std::__ndk1::char_traits<char>, std::__ndk1::allocator<char> > >::~ResultData()
PUBLIC 14094 0 std::__ndk1::vector<std::__ndk1::basic_string<char, std::__ndk1::char_traits<char>, std::__ndk1::allocator<char> >, std::__ndk1::allocator<std::__ndk1::basic_string<char, std::__ndk1::char_traits<char>, std::__ndk1::allocator<char> > > >::~vector[abi:ne190000]()
PUBLIC 14110 0 geode::modifier::ModifyBase<geode::modifier::ModifyDerive<MyEditButtonBar, EditButtonBar> >::apply()
PUBLIC 14114 0 _ZN5geode15UnwrapExceptionC2IRPNS_4HookEQsr4implE18IsStringStreamableIT_EEENS_4impl5OkTagEOS5_
PUBLIC 14268 0 std::__ndk1::basic_stringstream<char, std::__ndk1::char_traits<char>, std::__ndk1::allocator<char> >::basic_stringstream[abi:ne190000]()
PUBLIC m 1439c 0 std::__ndk1::basic_stringstream<char, std::__ndk1::char_traits<char>, std::__ndk1::allocator<char> >::~basic_stringstream()
PUBLIC 1441c 0 std::__ndk1::__put_character_sequence[abi:ne190000]<char, std::__ndk1::char_traits<char> >(std::__ndk1::basic_ostream<char, std::__ndk1::char_traits<char> >, std::__ndk1::basic_ostream const*, unsigned long)
PUBLIC 145c0 0 std::__ndk1::__pad_and_output[abi:ne190000]<char, std::__ndk1::char_traits<char> >(std::__ndk1::char_traits<char>, std::__ndk1::ostreambuf_iterator const*, std::__ndk1::ostreambuf_iterator const, std::__ndk1::ostreambuf_iterator const, std::__ndk1::ios_base&, std::__ndk1::ostreambuf_iterator)
PUBLIC 147ac 0 std::__ndk1::basic_stringbuf<char, std::__ndk1::char_traits<char>, std::__ndk1::allocator<char> >::str[abi:ne190000]() &&
PUBLIC 1491c 0 std::__ndk1::basic_stringbuf<char, std::__ndk1::char_traits<char>, std::__ndk1::allocator<char> >::__init_buf_ptrs[abi:ne190000]()
PUBLIC 14a64 0 std::__ndk1::basic_string<char, std::__ndk1::char_traits<char>, std::__ndk1::allocator<char> >::__erase_external_with_move(unsigned long, unsigned long)
PUBLIC 14aec 0 std::__ndk1::vector<std::__ndk1::basic_string<char, std::__ndk1::char_traits<char>, std::__ndk1::allocator<char> >, std::__ndk1::allocator<std::__ndk1::basic_string<char, std::__ndk1::char_traits<char>, std::__ndk1::allocator<char> > > >::__push_back_slow_path<std::__ndk1::basic_string<char, std::__ndk1::char_traits<char>, std::__ndk1::allocator<char> > const&>(std::__ndk1::basic_string<char, std::__ndk1::char_traits<char>, std::__ndk1::allocator<char> > const&)
PUBLIC 14c9c 0 std::__ndk1::__split_buffer<std::__ndk1::basic_string<char, std::__ndk1::char_traits<char>, std::__ndk1::allocator<char> >, std::__ndk1::allocator<std::__ndk1::basic_string<char, std::__ndk1::char_traits<char>, std::__ndk1::allocator<char> > >&>::~__split_buffer()
PUBLIC 14d04 0 std::__ndk1::vector<std::__ndk1::basic_string<char, std::__ndk1::char_traits<char>, std::__ndk1::allocator<char> >, std::__ndk1::allocator<std::__ndk1::basic_string<char, std::__ndk1::char_traits<char>, std::__ndk1::allocator<char> > > >::__throw_length_error[abi:ne190000]() const
PUBLIC 14d18 0 std::__ndk1::__variant_detail::__visitation::__base::__dispatcher<(unsigned long)0>::__dispatch[abi:ne190000]<std::__ndk1::__variant_detail::__dtor<std::__ndk1::__variant_detail::__traits<geode::Hook*, std::__ndk1::basic_string<char, std::__ndk1::char_traits<char>, std::__ndk1::allocator<char> > >, (std::__ndk1::__variant_detail::_Trait)1>::__destroy[abi:ne190000]()::{lambda(auto:1&)#1}, std::__ndk1::__variant_detail::__base<(std::__ndk1::__variant_detail::__traits<geode::Hook*, std::__ndk1::basic_string<char, std::__ndk1::char_traits<char>, std::__ndk1::allocator<char> > >)1, geode::Hook, std::__ndk1::allocator<char> >&>(std::__ndk1::__variant_detail::__dtor<std::__ndk1::__variant_detail::__traits<geode::Hook*, std::__ndk1::basic_string<char, std::__ndk1::char_traits<char>, std::__ndk1::allocator<char> > >, (std::__ndk1::__variant_detail::_Trait)1>, std::__ndk1::__variant_detail::__base<(std::__ndk1::__variant_detail::__traits<geode::Hook*, std::__ndk1::basic_string<char, std::__ndk1::char_traits<char>, std::__ndk1::allocator<char> > >)1, geode::Hook, std::__ndk1::allocator<char> >&)
PUBLIC 14d1c 0 std::__ndk1::__variant_detail::__visitation::__base::__dispatcher<(unsigned long)1>::__dispatch[abi:ne190000]<std::__ndk1::__variant_detail::__dtor<std::__ndk1::__variant_detail::__traits<geode::Hook*, std::__ndk1::basic_string<char, std::__ndk1::char_traits<char>, std::__ndk1::allocator<char> > >, (std::__ndk1::__variant_detail::_Trait)1>::__destroy[abi:ne190000]()::{lambda(auto:1&)#1}, std::__ndk1::__variant_detail::__base<(std::__ndk1::__variant_detail::__traits<geode::Hook*, std::__ndk1::basic_string<char, std::__ndk1::char_traits<char>, std::__ndk1::allocator<char> > >)1, geode::Hook, std::__ndk1::allocator<char> >&>(std::__ndk1::__variant_detail::__dtor<std::__ndk1::__variant_detail::__traits<geode::Hook*, std::__ndk1::basic_string<char, std::__ndk1::char_traits<char>, std::__ndk1::allocator<char> > >, (std::__ndk1::__variant_detail::_Trait)1>, std::__ndk1::__variant_detail::__base<(std::__ndk1::__variant_detail::__traits<geode::Hook*, std::__ndk1::basic_string<char, std::__ndk1::char_traits<char>, std::__ndk1::allocator<char> > >)1, geode::Hook, std::__ndk1::allocator<char> >&)
PUBLIC 14d30 0 std::__ndk1::__tree<std::__ndk1::__value_type<std::__ndk1::basic_string<char, std::__ndk1::char_traits<char>, std::__ndk1::allocator<char> >, std::__ndk1::shared_ptr<geode::Hook> >, std::__ndk1::__map_value_compare<std::__ndk1::basic_string<char, std::__ndk1::char_traits<char>, std::__ndk1::allocator<char> >, std::__ndk1::__value_type<std::__ndk1::basic_string<char, std::__ndk1::char_traits<char>, std::__ndk1::allocator<char> >, std::__ndk1::shared_ptr<geode::Hook> >, std::__ndk1::less<std::__ndk1::basic_string<char, std::__ndk1::char_traits<char>, std::__ndk1::allocator<char> > >, true>, std::__ndk1::allocator<std::__ndk1::__value_type<std::__ndk1::basic_string<char, std::__ndk1::char_traits<char>, std::__ndk1::allocator<char> >, std::__ndk1::shared_ptr<geode::Hook> > > >::find<std::__ndk1::basic_string<char, std::__ndk1::char_traits<char>, std::__ndk1::allocator<char> > >(std::__ndk1::basic_string<char, std::__ndk1::char_traits<char>, std::__ndk1::allocator<char> > const&)
PUBLIC 14e58 0 std::__ndk1::__tree<std::__ndk1::__value_type<std::__ndk1::basic_string<char, std::__ndk1::char_traits<char>, std::__ndk1::allocator<char> >, std::__ndk1::shared_ptr<geode::Hook> >, std::__ndk1::__map_value_compare<std::__ndk1::basic_string<char, std::__ndk1::char_traits<char>, std::__ndk1::allocator<char> >, std::__ndk1::__value_type<std::__ndk1::basic_string<char, std::__ndk1::char_traits<char>, std::__ndk1::allocator<char> >, std::__ndk1::shared_ptr<geode::Hook> >, std::__ndk1::less<std::__ndk1::basic_string<char, std::__ndk1::char_traits<char>, std::__ndk1::allocator<char> > >, true>, std::__ndk1::allocator<std::__ndk1::__value_type<std::__ndk1::basic_string<char, std::__ndk1::char_traits<char>, std::__ndk1::allocator<char> >, std::__ndk1::shared_ptr<geode::Hook> > > >::erase(std::__ndk1::__tree_const_iterator<std::__ndk1::__value_type<std::__ndk1::basic_string<char, std::__ndk1::char_traits<char>, std::__ndk1::allocator<char> >, std::__ndk1::shared_ptr<geode::Hook> >, std::__ndk1::__tree_node<std::__ndk1::__value_type<std::__ndk1::basic_string<char, std::__ndk1::char_traits<char>, std::__ndk1::allocator<char> >, std::__ndk1::shared_ptr<geode::Hook> >, void*>*, long>)
PUBLIC 152fc 0 std::__ndk1::__tree<std::__ndk1::__value_type<std::__ndk1::basic_string<char, std::__ndk1::char_traits<char>, std::__ndk1::allocator<char> >, std::__ndk1::shared_ptr<geode::Hook> >, std::__ndk1::__map_value_compare<std::__ndk1::basic_string<char, std::__ndk1::char_traits<char>, std::__ndk1::allocator<char> >, std::__ndk1::__value_type<std::__ndk1::basic_string<char, std::__ndk1::char_traits<char>, std::__ndk1::allocator<char> >, std::__ndk1::shared_ptr<geode::Hook> >, std::__ndk1::less<std::__ndk1::basic_string<char, std::__ndk1::char_traits<char>, std::__ndk1::allocator<char> > >, true>, std::__ndk1::allocator<std::__ndk1::__value_type<std::__ndk1::basic_string<char, std::__ndk1::char_traits<char>, std::__ndk1::allocator<char> >, std::__ndk1::shared_ptr<geode::Hook> > > >::destroy(std::__ndk1::__tree_node<std::__ndk1::__value_type<std::__ndk1::basic_string<char, std::__ndk1::char_traits<char>, std::__ndk1::allocator<char> >, std::__ndk1::shared_ptr<geode::Hook> >, void*>*)
PUBLIC 15380 0 geode::modifier::AsStaticFunction_loadFromItems<MyEditButtonBar, void (MyEditButtonBar::*)(cocos2d::CCArray*, int, int, bool)>::Impl<void (MyEditButtonBar::*)(cocos2d::CCArray*, int, int, bool)>::function(MyEditButtonBar*, cocos2d::CCArray*, int, int, bool)
PUBLIC 158a8 0 std::__ndk1::shared_ptr<tulip::hook::CallingConvention>::~shared_ptr[abi:ne190000]()
PUBLIC 158f8 0 tulip::hook::HandlerMetadata::~HandlerMetadata()
PUBLIC 1595c 0 std::__ndk1::vector<tulip::hook::AbstractType, std::__ndk1::allocator<tulip::hook::AbstractType> >::__throw_length_error[abi:ne190000]() const
PUBLIC 15970 0 geode::Mod::getSettingValue<bool>(std::__ndk1::basic_string_view<char, std::__ndk1::char_traits<char> >) const
PUBLIC 15aa4 0 std::__ndk1::shared_ptr<geode::BoolSettingV3>::~shared_ptr[abi:ne190000]()
PUBLIC 15af4 0 std::__ndk1::__tree<std::__ndk1::__value_type<std::__ndk1::basic_string<char, std::__ndk1::char_traits<char>, std::__ndk1::allocator<char> >, std::__ndk1::shared_ptr<geode::Hook> >, std::__ndk1::__map_value_compare<std::__ndk1::basic_string<char, std::__ndk1::char_traits<char>, std::__ndk1::allocator<char> >, std::__ndk1::__value_type<std::__ndk1::basic_string<char, std::__ndk1::char_traits<char>, std::__ndk1::allocator<char> >, std::__ndk1::shared_ptr<geode::Hook> >, std::__ndk1::less<std::__ndk1::basic_string<char, std::__ndk1::char_traits<char>, std::__ndk1::allocator<char> > >, true>, std::__ndk1::allocator<std::__ndk1::__value_type<std::__ndk1::basic_string<char, std::__ndk1::char_traits<char>, std::__ndk1::allocator<char> >, std::__ndk1::shared_ptr<geode::Hook> > > >::__emplace_unique_key_args<std::__ndk1::basic_string<char, std::__ndk1::char_traits<char>, std::__ndk1::allocator<char> >, std::__ndk1::piecewise_construct_t const&, std::__ndk1::tuple<std::__ndk1::basic_string<char, std::__ndk1::char_traits<char>, std::__ndk1::allocator<char> >&&>, std::__ndk1::tuple<> >(std::__ndk1::basic_string<char, std::__ndk1::char_traits<char>, std::__ndk1::allocator<char> > const&, std::__ndk1::piecewise_construct_t const&, std::__ndk1::tuple<std::__ndk1::basic_string<char, std::__ndk1::char_traits<char>, std::__ndk1::allocator<char> >&&>, std::__ndk1::tuple<>)
PUBLIC 15c5c 0 std::__ndk1::__tree_balance_after_insert[abi:ne190000]<std::__ndk1::__tree_node_base<void*>*>(std::__ndk1::__tree_node_base<void*>*, std::__ndk1::__tree_node_base<void*>*)
PUBLIC 15e04 0 geode::modifier::ModifyDerive<MyEditorUI, EditorUI>::apply()
PUBLIC 16434 0 geode::modifier::ModifyBase<geode::modifier::ModifyDerive<MyEditorUI, EditorUI> >::apply()
PUBLIC 16438 0 geode::modifier::AsStaticFunction_getCreateBtn<MyEditorUI, CreateMenuItem* (MyEditorUI::*)(int, int)>::Impl<CreateMenuItem* (MyEditorUI::*)(int, int)>::function(MyEditorUI*, int, int)
PUBLIC 165fc 0 geode::modifier::AsStaticFunction_toggleMode<MyEditorUI, void (MyEditorUI::*)(cocos2d::CCObject*)>::Impl<void (MyEditorUI::*)(cocos2d::CCObject*)>::function(MyEditorUI*, cocos2d::CCObject*)
PUBLIC 168d4 0 geode::Mod::getSavedValue<bool>(std::__ndk1::basic_string_view<char, std::__ndk1::char_traits<char> >)
PUBLIC 16a5c 0 geode::impl::ResultData<matjson::Value&, std::__ndk1::basic_string<char, std::__ndk1::char_traits<char>, std::__ndk1::allocator<char> > >::~ResultData()
PUBLIC 16ad0 0 std::__ndk1::__variant_detail::__visitation::__base::__dispatcher<(unsigned long)0>::__dispatch[abi:ne190000]<std::__ndk1::__variant_detail::__dtor<std::__ndk1::__variant_detail::__traits<std::__ndk1::reference_wrapper<matjson::Value>, std::__ndk1::basic_string<char, std::__ndk1::char_traits<char>, std::__ndk1::allocator<char> > >, (std::__ndk1::__variant_detail::_Trait)1>::__destroy[abi:ne190000]()::{lambda(auto:1&)#1}, std::__ndk1::__variant_detail::__base<(std::__ndk1::__variant_detail::__traits<std::__ndk1::reference_wrapper<matjson::Value>, std::__ndk1::basic_string<char, std::__ndk1::char_traits<char>, std::__ndk1::allocator<char> > >)1, matjson::Value, std::__ndk1::allocator<char> >&>(std::__ndk1::__variant_detail::__dtor<std::__ndk1::__variant_detail::__traits<std::__ndk1::reference_wrapper<matjson::Value>, std::__ndk1::basic_string<char, std::__ndk1::char_traits<char>, std::__ndk1::allocator<char> > >, (std::__ndk1::__variant_detail::_Trait)1>, std::__ndk1::__variant_detail::__base<(std::__ndk1::__variant_detail::__traits<std::__ndk1::reference_wrapper<matjson::Value>, std::__ndk1::basic_string<char, std::__ndk1::char_traits<char>, std::__ndk1::allocator<char> > >)1, matjson::Value, std::__ndk1::allocator<char> >&)
PUBLIC 16ad4 0 std::__ndk1::__variant_detail::__visitation::__base::__dispatcher<(unsigned long)1>::__dispatch[abi:ne190000]<std::__ndk1::__variant_detail::__dtor<std::__ndk1::__variant_detail::__traits<std::__ndk1::reference_wrapper<matjson::Value>, std::__ndk1::basic_string<char, std::__ndk1::char_traits<char>, std::__ndk1::allocator<char> > >, (std::__ndk1::__variant_detail::_Trait)1>::__destroy[abi:ne190000]()::{lambda(auto:1&)#1}, std::__ndk1::__variant_detail::__base<(std::__ndk1::__variant_detail::__traits<std::__ndk1::reference_wrapper<matjson::Value>, std::__ndk1::basic_string<char, std::__ndk1::char_traits<char>, std::__ndk1::allocator<char> > >)1, matjson::Value, std::__ndk1::allocator<char> >&>(std::__ndk1::__variant_detail::__dtor<std::__ndk1::__variant_detail::__traits<std::__ndk1::reference_wrapper<matjson::Value>, std::__ndk1::basic_string<char, std::__ndk1::char_traits<char>, std::__ndk1::allocator<char> > >, (std::__ndk1::__variant_detail::_Trait)1>, std::__ndk1::__variant_detail::__base<(std::__ndk1::__variant_detail::__traits<std::__ndk1::reference_wrapper<matjson::Value>, std::__ndk1::basic_string<char, std::__ndk1::char_traits<char>, std::__ndk1::allocator<char> > >)1, matjson::Value, std::__ndk1::allocator<char> >&)
PUBLIC 16ae8 0 std::__ndk1::__variant_detail::__visitation::__base::__dispatcher<(unsigned long)0>::__dispatch[abi:ne190000]<std::__ndk1::__variant_detail::__dtor<std::__ndk1::__variant_detail::__traits<bool, std::__ndk1::basic_string<char, std::__ndk1::char_traits<char>, std::__ndk1::allocator<char> > >, (std::__ndk1::__variant_detail::_Trait)1>::__destroy[abi:ne190000]()::{lambda(auto:1&)#1}, std::__ndk1::__variant_detail::__base<(std::__ndk1::__variant_detail::__traits<bool, std::__ndk1::basic_string<char, std::__ndk1::char_traits<char>, std::__ndk1::allocator<char> > >)1, bool, std::__ndk1::allocator<char> >&>(std::__ndk1::__variant_detail::__dtor<std::__ndk1::__variant_detail::__traits<bool, std::__ndk1::basic_string<char, std::__ndk1::char_traits<char>, std::__ndk1::allocator<char> > >, (std::__ndk1::__variant_detail::_Trait)1>, std::__ndk1::__variant_detail::__base<(std::__ndk1::__variant_detail::__traits<bool, std::__ndk1::basic_string<char, std::__ndk1::char_traits<char>, std::__ndk1::allocator<char> > >)1, bool, std::__ndk1::allocator<char> >&)
PUBLIC 16aec 0 std::__ndk1::__variant_detail::__visitation::__base::__dispatcher<(unsigned long)1>::__dispatch[abi:ne190000]<std::__ndk1::__variant_detail::__dtor<std::__ndk1::__variant_detail::__traits<bool, std::__ndk1::basic_string<char, std::__ndk1::char_traits<char>, std::__ndk1::allocator<char> > >, (std::__ndk1::__variant_detail::_Trait)1>::__destroy[abi:ne190000]()::{lambda(auto:1&)#1}, std::__ndk1::__variant_detail::__base<(std::__ndk1::__variant_detail::__traits<bool, std::__ndk1::basic_string<char, std::__ndk1::char_traits<char>, std::__ndk1::allocator<char> > >)1, bool, std::__ndk1::allocator<char> >&>(std::__ndk1::__variant_detail::__dtor<std::__ndk1::__variant_detail::__traits<bool, std::__ndk1::basic_string<char, std::__ndk1::char_traits<char>, std::__ndk1::allocator<char> > >, (std::__ndk1::__variant_detail::_Trait)1>, std::__ndk1::__variant_detail::__base<(std::__ndk1::__variant_detail::__traits<bool, std::__ndk1::basic_string<char, std::__ndk1::char_traits<char>, std::__ndk1::allocator<char> > >)1, bool, std::__ndk1::allocator<char> >&)
PUBLIC 16b00 0 std::__ndk1::__function::__base<void (FLAlertLayer*, bool)>::~__base()
PUBLIC 16b04 0 std::__ndk1::__function::__func<MyEditorUI::toggleMode(cocos2d::CCObject*)::{lambda(FLAlertLayer*, bool)#1}, std::__ndk1::allocator<MyEditorUI::toggleMode(cocos2d::CCObject*)::{lambda(FLAlertLayer*, bool)#1}>, void (FLAlertLayer*, bool)>::~__func()
PUBLIC 16b08 0 std::__ndk1::__function::__func<MyEditorUI::toggleMode(cocos2d::CCObject*)::{lambda(FLAlertLayer*, bool)#1}, std::__ndk1::allocator<MyEditorUI::toggleMode(cocos2d::CCObject*)::{lambda(FLAlertLayer*, bool)#1}>, void (FLAlertLayer*, bool)>::__clone() const
PUBLIC 16b2c 0 std::__ndk1::__function::__func<MyEditorUI::toggleMode(cocos2d::CCObject*)::{lambda(FLAlertLayer*, bool)#1}, std::__ndk1::allocator<MyEditorUI::toggleMode(cocos2d::CCObject*)::{lambda(FLAlertLayer*, bool)#1}>, void (FLAlertLayer*, bool)>::__clone(std::__ndk1::__function::__base<void (FLAlertLayer*, bool)>*) const
PUBLIC 16b3c 0 std::__ndk1::__function::__func<MyEditorUI::toggleMode(cocos2d::CCObject*)::{lambda(FLAlertLayer*, bool)#1}, std::__ndk1::allocator<MyEditorUI::toggleMode(cocos2d::CCObject*)::{lambda(FLAlertLayer*, bool)#1}>, void (FLAlertLayer*, bool)>::destroy()
PUBLIC 16b40 0 std::__ndk1::__function::__func<MyEditorUI::toggleMode(cocos2d::CCObject*)::{lambda(FLAlertLayer*, bool)#1}, std::__ndk1::allocator<MyEditorUI::toggleMode(cocos2d::CCObject*)::{lambda(FLAlertLayer*, bool)#1}>, void (FLAlertLayer*, bool)>::destroy_deallocate()
PUBLIC 16b44 0 std::__ndk1::__function::__func<MyEditorUI::toggleMode(cocos2d::CCObject*)::{lambda(FLAlertLayer*, bool)#1}, std::__ndk1::allocator<MyEditorUI::toggleMode(cocos2d::CCObject*)::{lambda(FLAlertLayer*, bool)#1}>, void (FLAlertLayer*, bool)>::operator()(FLAlertLayer*&&, bool&&)
PUBLIC 16c14 0 std::__ndk1::__function::__func<MyEditorUI::toggleMode(cocos2d::CCObject*)::{lambda(FLAlertLayer*, bool)#1}, std::__ndk1::allocator<MyEditorUI::toggleMode(cocos2d::CCObject*)::{lambda(FLAlertLayer*, bool)#1}>, void (FLAlertLayer*, bool)>::target(std::type_info const&) const
PUBLIC 16c30 0 std::__ndk1::__function::__func<MyEditorUI::toggleMode(cocos2d::CCObject*)::{lambda(FLAlertLayer*, bool)#1}, std::__ndk1::allocator<MyEditorUI::toggleMode(cocos2d::CCObject*)::{lambda(FLAlertLayer*, bool)#1}>, void (FLAlertLayer*, bool)>::target_type() const
PUBLIC 16c3c 0 _GLOBAL__sub_I_main.cpp
PUBLIC 16d54 0 MyButtonSettingV3::createNode(float)
PUBLIC 17388 0 MyButtonSettingV3::~MyButtonSettingV3()
PUBLIC 173ac 0 MyButtonSettingV3::load(matjson::Value const&)
PUBLIC 173b4 0 MyButtonSettingV3::save(matjson::Value&) const
PUBLIC 173bc 0 MyButtonSettingV3::isDefaultValue() const
PUBLIC 173c4 0 MyButtonSettingV3::reset()
PUBLIC 173c8 0 cocos2d::CCCopying::copyWithZone(cocos2d::CCZone*)
PUBLIC 173d0 0 MyButtonSettingNodeV3::~MyButtonSettingNodeV3()
PUBLIC 1748c 0 MyButtonSettingNodeV3::~MyButtonSettingNodeV3()
PUBLIC 17558 0 MyButtonSettingNodeV3::onCommit()
PUBLIC 1755c 0 MyButtonSettingNodeV3::onResetToDefault()
PUBLIC 17560 0 MyButtonSettingNodeV3::hasUncommittedChanges() const
PUBLIC 17568 0 MyButtonSettingNodeV3::hasNonDefaultValue() const
PUBLIC 17570 0 MyButtonSettingNodeV3::onButton(cocos2d::CCObject*)
PUBLIC 17844 0 std::__ndk1::__throw_bad_optional_access[abi:ne190000]()
PUBLIC 17878 0 std::__ndk1::vector<std::__ndk1::basic_string<char, std::__ndk1::char_traits<char>, std::__ndk1::allocator<char> >, std::__ndk1::allocator<std::__ndk1::basic_string<char, std::__ndk1::char_traits<char>, std::__ndk1::allocator<char> > > >::__throw_out_of_range[abi:ne190000]() const
PUBLIC 17884 0 std::__ndk1::__throw_out_of_range[abi:ne190000](char const*)
PUBLIC 178d4 0 std::out_of_range::out_of_range[abi:ne190000](char const*)
PUBLIC 17904 0 std::__ndk1::__throw_bad_weak_ptr[abi:ne190000]()
PUBLIC 17938 0 std::__ndk1::basic_regex<char, std::__ndk1::regex_traits<char> >::~basic_regex()
PUBLIC 17998 0 Utils::initVector(bool)
PUBLIC m 1a71c 0 std::__ndk1::basic_ifstream<char, std::__ndk1::char_traits<char> >::~basic_ifstream()
PUBLIC 1a76c 0 Utils::randomInt(int const&, int const&)
PUBLIC 1a8b8 0 std::__ndk1::shared_ptr<std::__ndk1::__empty_state<char> >::~shared_ptr[abi:ne190000]()
PUBLIC 1a90c 0 std::__ndk1::__variant_detail::__visitation::__base::__dispatcher<(unsigned long)0>::__dispatch[abi:ne190000]<std::__ndk1::__variant_detail::__dtor<std::__ndk1::__variant_detail::__traits<int, std::__ndk1::basic_string<char, std::__ndk1::char_traits<char>, std::__ndk1::allocator<char> > >, (std::__ndk1::__variant_detail::_Trait)1>::__destroy[abi:ne190000]()::{lambda(auto:1&)#1}, std::__ndk1::__variant_detail::__base<(std::__ndk1::__variant_detail::__traits<int, std::__ndk1::basic_string<char, std::__ndk1::char_traits<char>, std::__ndk1::allocator<char> > >)1, int, std::__ndk1::allocator<char> >&>(std::__ndk1::__variant_detail::__dtor<std::__ndk1::__variant_detail::__traits<int, std::__ndk1::basic_string<char, std::__ndk1::char_traits<char>, std::__ndk1::allocator<char> > >, (std::__ndk1::__variant_detail::_Trait)1>, std::__ndk1::__variant_detail::__base<(std::__ndk1::__variant_detail::__traits<int, std::__ndk1::basic_string<char, std::__ndk1::char_traits<char>, std::__ndk1::allocator<char> > >)1, int, std::__ndk1::allocator<char> >&)
PUBLIC 1a910 0 std::__ndk1::__variant_detail::__visitation::__base::__dispatcher<(unsigned long)1>::__dispatch[abi:ne190000]<std::__ndk1::__variant_detail::__dtor<std::__ndk1::__variant_detail::__traits<int, std::__ndk1::basic_string<char, std::__ndk1::char_traits<char>, std::__ndk1::allocator<char> > >, (std::__ndk1::__variant_detail::_Trait)1>::__destroy[abi:ne190000]()::{lambda(auto:1&)#1}, std::__ndk1::__variant_detail::__base<(std::__ndk1::__variant_detail::__traits<int, std::__ndk1::basic_string<char, std::__ndk1::char_traits<char>, std::__ndk1::allocator<char> > >)1, int, std::__ndk1::allocator<char> >&>(std::__ndk1::__variant_detail::__dtor<std::__ndk1::__variant_detail::__traits<int, std::__ndk1::basic_string<char, std::__ndk1::char_traits<char>, std::__ndk1::allocator<char> > >, (std::__ndk1::__variant_detail::_Trait)1>, std::__ndk1::__variant_detail::__base<(std::__ndk1::__variant_detail::__traits<int, std::__ndk1::basic_string<char, std::__ndk1::char_traits<char>, std::__ndk1::allocator<char> > >)1, int, std::__ndk1::allocator<char> >&)
PUBLIC 1a924 0 std::__ndk1::vector<int, std::__ndk1::allocator<int> >::__throw_length_error[abi:ne190000]() const
PUBLIC 1a938 0 std::__ndk1::basic_regex<char, std::__ndk1::regex_traits<char> >::__parse<char const*>(char const*, char const*)
PUBLIC 1affc 0 std::__ndk1::__throw_regex_error[abi:ne190000]<(std::__ndk1::regex_constants::error_type)17>()
PUBLIC 1b048 0 std::__ndk1::basic_regex<char, std::__ndk1::regex_traits<char> >::__parse_ecma_exp<char const*>(char const*, char const*)
PUBLIC 1b2b4 0 std::__ndk1::basic_regex<char, std::__ndk1::regex_traits<char> >::__parse_basic_reg_exp<char const*>(char const*, char const*)
PUBLIC 1b45c 0 std::__ndk1::basic_regex<char, std::__ndk1::regex_traits<char> >::__parse_extended_reg_exp<char const*>(char const*, char const*)
PUBLIC 1b5cc 0 std::__ndk1::__throw_regex_error[abi:ne190000]<(std::__ndk1::regex_constants::error_type)14>()
PUBLIC 1b618 0 std::__ndk1::__end_state<char>::~__end_state()
PUBLIC 1b61c 0 std::__ndk1::__end_state<char>::__exec(std::__ndk1::__state<char>&) const
PUBLIC 1b628 0 std::__ndk1::__node<char>::__exec_split(bool, std::__ndk1::__state<char>&) const
PUBLIC 1b62c 0 std::__ndk1::__node<char>::__exec(std::__ndk1::__state<char>&) const
PUBLIC 1b630 0 std::__ndk1::__shared_ptr_pointer<std::__ndk1::__empty_state<char>*, std::__ndk1::shared_ptr<std::__ndk1::__empty_state<char> >::__shared_ptr_default_delete<std::__ndk1::__empty_state<char>, std::__ndk1::__empty_state<char> >, std::__ndk1::allocator<std::__ndk1::__empty_state<char> > >::~__shared_ptr_pointer()
PUBLIC 1b654 0 std::__ndk1::__shared_ptr_pointer<std::__ndk1::__empty_state<char>*, std::__ndk1::shared_ptr<std::__ndk1::__empty_state<char> >::__shared_ptr_default_delete<std::__ndk1::__empty_state<char>, std::__ndk1::__empty_state<char> >, std::__ndk1::allocator<std::__ndk1::__empty_state<char> > >::__on_zero_shared()
PUBLIC 1b66c 0 std::__ndk1::__shared_ptr_pointer<std::__ndk1::__empty_state<char>*, std::__ndk1::shared_ptr<std::__ndk1::__empty_state<char> >::__shared_ptr_default_delete<std::__ndk1::__empty_state<char>, std::__ndk1::__empty_state<char> >, std::__ndk1::allocator<std::__ndk1::__empty_state<char> > >::__get_deleter(std::type_info const&) const
PUBLIC 1b688 0 std::__ndk1::__shared_ptr_pointer<std::__ndk1::__empty_state<char>*, std::__ndk1::shared_ptr<std::__ndk1::__empty_state<char> >::__shared_ptr_default_delete<std::__ndk1::__empty_state<char>, std::__ndk1::__empty_state<char> >, std::__ndk1::allocator<std::__ndk1::__empty_state<char> > >::__on_zero_shared_weak()
PUBLIC 1b68c 0 std::__ndk1::__empty_state<char>::~__empty_state()
PUBLIC 1b6d4 0 std::__ndk1::__empty_state<char>::__exec(std::__ndk1::__state<char>&) const
PUBLIC 1b6e8 0 std::__ndk1::__owns_one_state<char>::~__owns_one_state()
PUBLIC 1b730 0 std::__ndk1::basic_regex<char, std::__ndk1::regex_traits<char> >::__parse_assertion<char const*>(char const*, char const*)
PUBLIC 1ba94 0 std::__ndk1::basic_regex<char, std::__ndk1::regex_traits<char> >::__parse_atom<char const*>(char const*, char const*)
PUBLIC 1c0d8 0 std::__ndk1::basic_regex<char, std::__ndk1::regex_traits<char> >::__parse_ERE_dupl_symbol<char const*>(char const*, char const*, std::__ndk1::__owns_one_state<char>*, unsigned int, unsigned int)
PUBLIC 1c4cc 0 std::__ndk1::basic_regex<char, std::__ndk1::regex_traits<char> >::basic_regex[abi:ne190000]()
PUBLIC 1c538 0 std::__ndk1::basic_regex<char, std::__ndk1::regex_traits<char> >::__push_lookahead(std::__ndk1::basic_regex<char, std::__ndk1::regex_traits<char> > const&, bool, unsigned int)
PUBLIC 1c5ec 0 std::__ndk1::__throw_regex_error[abi:ne190000]<(std::__ndk1::regex_constants::error_type)6>()
PUBLIC 1c638 0 std::__ndk1::__l_anchor_multiline<char>::~__l_anchor_multiline()
PUBLIC 1c680 0 std::__ndk1::__l_anchor_multiline<char>::__exec(std::__ndk1::__state<char>&) const
PUBLIC 1c6e4 0 std::__ndk1::__r_anchor_multiline<char>::~__r_anchor_multiline()
PUBLIC 1c72c 0 std::__ndk1::__r_anchor_multiline<char>::__exec(std::__ndk1::__state<char>&) const
PUBLIC 1c780 0 std::__ndk1::__word_boundary<char, std::__ndk1::regex_traits<char> >::~__word_boundary()
PUBLIC 1c7dc 0 std::__ndk1::__word_boundary<char, std::__ndk1::regex_traits<char> >::~__word_boundary()
PUBLIC 1c834 0 std::__ndk1::__word_boundary<char, std::__ndk1::regex_traits<char> >::__exec(std::__ndk1::__state<char>&) const
PUBLIC 1c944 0 std::__ndk1::__lookahead<char, std::__ndk1::regex_traits<char> >::~__lookahead()
PUBLIC 1c9d4 0 std::__ndk1::__lookahead<char, std::__ndk1::regex_traits<char> >::~__lookahead()
PUBLIC 1ca60 0 std::__ndk1::__lookahead<char, std::__ndk1::regex_traits<char> >::__exec(std::__ndk1::__state<char>&) const
PUBLIC 1cc30 0 std::__ndk1::basic_regex<char, std::__ndk1::regex_traits<char> >::__match_at_start_ecma<std::__ndk1::allocator<std::__ndk1::sub_match<char const*> > >(char const*, char const*, std::__ndk1::match_results<char const*, std::__ndk1::allocator<std::__ndk1::sub_match<char const*> > >&, std::__ndk1::regex_constants::match_flag_type, bool) const
PUBLIC 1d07c 0 std::__ndk1::vector<std::__ndk1::sub_match<char const*>, std::__ndk1::allocator<std::__ndk1::sub_match<char const*> > >::assign(unsigned long, std::__ndk1::sub_match<char const*> const&)
PUBLIC 1d244 0 std::__ndk1::vector<std::__ndk1::sub_match<char const*>, std::__ndk1::allocator<std::__ndk1::sub_match<char const*> > >::__throw_length_error[abi:ne190000]() const
PUBLIC 1d258 0 std::__ndk1::__state<char>::~__state()
PUBLIC 1d29c 0 std::__ndk1::__throw_regex_error[abi:ne190000]<(std::__ndk1::regex_constants::error_type)12>()
PUBLIC 1d2e8 0 std::__ndk1::__state<char>::__state(std::__ndk1::__state<char> const&)
PUBLIC 1d458 0 std::__ndk1::__throw_regex_error[abi:ne190000]<(std::__ndk1::regex_constants::error_type)16>()
PUBLIC 1d4a4 0 std::__ndk1::vector<std::__ndk1::__state<char>, std::__ndk1::allocator<std::__ndk1::__state<char> > >::~vector[abi:ne190000]()
PUBLIC 1d53c 0 std::__ndk1::vector<std::__ndk1::__state<char>, std::__ndk1::allocator<std::__ndk1::__state<char> > >::__push_back_slow_path<std::__ndk1::__state<char> >(std::__ndk1::__state<char>&&)
PUBLIC 1d708 0 std::__ndk1::vector<std::__ndk1::__state<char>, std::__ndk1::allocator<std::__ndk1::__state<char> > >::__throw_length_error[abi:ne190000]() const
PUBLIC 1d71c 0 std::__ndk1::vector<std::__ndk1::sub_match<char const*>, std::__ndk1::allocator<std::__ndk1::sub_match<char const*> > >::__append(unsigned long, std::__ndk1::sub_match<char const*> const&)
PUBLIC 1d8a4 0 std::__ndk1::vector<std::__ndk1::pair<unsigned long, char const*>, std::__ndk1::allocator<std::__ndk1::pair<unsigned long, char const*> > >::__append(unsigned long)
PUBLIC 1d9cc 0 std::__ndk1::vector<std::__ndk1::pair<unsigned long, char const*>, std::__ndk1::allocator<std::__ndk1::pair<unsigned long, char const*> > >::__throw_length_error[abi:ne190000]() const
PUBLIC 1d9e0 0 std::__ndk1::basic_regex<char, std::__ndk1::regex_traits<char> >::__parse_bracket_expression<char const*>(char const*, char const*)
PUBLIC 1eaf4 0 std::__ndk1::__throw_regex_error[abi:ne190000]<(std::__ndk1::regex_constants::error_type)11>()
PUBLIC 1eb40 0 std::__ndk1::__match_any_but_newline<char>::~__match_any_but_newline()
PUBLIC 1eb88 0 std::__ndk1::__throw_regex_error[abi:ne190000]<(std::__ndk1::regex_constants::error_type)3>()
PUBLIC 1ebd4 0 std::__ndk1::basic_regex<char, std::__ndk1::regex_traits<char> >::__parse_character_escape<char const*>(char const*, char const*, std::__ndk1::basic_string<char, std::__ndk1::char_traits<char>, std::__ndk1::allocator<char> >*)
PUBLIC 1f0e0 0 std::__ndk1::basic_regex<char, std::__ndk1::regex_traits<char> >::__push_char(char)
PUBLIC 1f220 0 std::__ndk1::__throw_regex_error[abi:ne190000]<(std::__ndk1::regex_constants::error_type)4>()
PUBLIC 1f26c 0 std::__ndk1::basic_regex<char, std::__ndk1::regex_traits<char> >::__push_back_ref(int)
PUBLIC 1f334 0 std::__ndk1::__match_char_icase<char, std::__ndk1::regex_traits<char> >::~__match_char_icase()
PUBLIC 1f390 0 std::__ndk1::__match_char_icase<char, std::__ndk1::regex_traits<char> >::~__match_char_icase()
PUBLIC 1f3e8 0 std::__ndk1::__match_char_icase<char, std::__ndk1::regex_traits<char> >::__exec(std::__ndk1::__state<char>&) const
PUBLIC 1f468 0 std::__ndk1::__match_char_collate<char, std::__ndk1::regex_traits<char> >::~__match_char_collate()
PUBLIC 1f4c4 0 std::__ndk1::__match_char_collate<char, std::__ndk1::regex_traits<char> >::~__match_char_collate()
PUBLIC 1f51c 0 std::__ndk1::__match_char_collate<char, std::__ndk1::regex_traits<char> >::__exec(std::__ndk1::__state<char>&) const
PUBLIC 1f564 0 std::__ndk1::__match_char<char>::~__match_char()
PUBLIC 1f5ac 0 std::__ndk1::__match_char<char>::__exec(std::__ndk1::__state<char>&) const
PUBLIC 1f5f4 0 std::__ndk1::__back_ref_icase<char, std::__ndk1::regex_traits<char> >::~__back_ref_icase()
PUBLIC 1f650 0 std::__ndk1::__back_ref_icase<char, std::__ndk1::regex_traits<char> >::~__back_ref_icase()
PUBLIC 1f6a8 0 std::__ndk1::__back_ref_icase<char, std::__ndk1::regex_traits<char> >::__exec(std::__ndk1::__state<char>&) const
PUBLIC 1f7a0 0 std::__ndk1::__back_ref_collate<char, std::__ndk1::regex_traits<char> >::~__back_ref_collate()
PUBLIC 1f7fc 0 std::__ndk1::__back_ref_collate<char, std::__ndk1::regex_traits<char> >::~__back_ref_collate()
PUBLIC 1f854 0 std::__ndk1::__back_ref_collate<char, std::__ndk1::regex_traits<char> >::__exec(std::__ndk1::__state<char>&) const
PUBLIC 1f8dc 0 std::__ndk1::__back_ref<char>::~__back_ref()
PUBLIC 1f924 0 std::__ndk1::__back_ref<char>::__exec(std::__ndk1::__state<char>&) const
PUBLIC 1f9ec 0 std::__ndk1::__bracket_expression<char, std::__ndk1::regex_traits<char> >::__add_char[abi:ne190000](char)
PUBLIC 1fb70 0 std::__ndk1::__bracket_expression<char, std::__ndk1::regex_traits<char> >::__bracket_expression[abi:ne190000](std::__ndk1::regex_traits<char> const&, std::__ndk1::__node<char>*, bool, bool, bool)
PUBLIC 1fd48 0 std::__ndk1::vector<std::__ndk1::pair<std::__ndk1::basic_string<char, std::__ndk1::char_traits<char>, std::__ndk1::allocator<char> >, std::__ndk1::basic_string<char, std::__ndk1::char_traits<char>, std::__ndk1::allocator<char> > >, std::__ndk1::allocator<std::__ndk1::pair<std::__ndk1::basic_string<char, std::__ndk1::char_traits<char>, std::__ndk1::allocator<char> >, std::__ndk1::basic_string<char, std::__ndk1::char_traits<char>, std::__ndk1::allocator<char> > > > >::~vector[abi:ne190000]()
PUBLIC 1fdf4 0 std::__ndk1::__bracket_expression<char, std::__ndk1::regex_traits<char> >::~__bracket_expression()
PUBLIC 1ff48 0 std::__ndk1::__bracket_expression<char, std::__ndk1::regex_traits<char> >::~__bracket_expression()
PUBLIC 1ff6c 0 std::__ndk1::__bracket_expression<char, std::__ndk1::regex_traits<char> >::__exec(std::__ndk1::__state<char>&) const
PUBLIC 20ba0 0 std::__ndk1::pair<std::__ndk1::basic_string<char, std::__ndk1::char_traits<char>, std::__ndk1::allocator<char> >, std::__ndk1::basic_string<char, std::__ndk1::char_traits<char>, std::__ndk1::allocator<char> > >::~pair()
PUBLIC 20be4 0 std::__ndk1::regex_traits<char>::__transform_primary<char*>(char*, char*, char) const
PUBLIC 20db8 0 std::__ndk1::vector<char, std::__ndk1::allocator<char> >::__throw_length_error[abi:ne190000]() const
PUBLIC 20dcc 0 std::__ndk1::__throw_regex_error[abi:ne190000]<(std::__ndk1::regex_constants::error_type)5>()
PUBLIC 20e18 0 std::__ndk1::basic_regex<char, std::__ndk1::regex_traits<char> >::__parse_class_escape<char const*>(char const*, char const*, std::__ndk1::basic_string<char, std::__ndk1::char_traits<char>, std::__ndk1::allocator<char> >&, std::__ndk1::__bracket_expression<char, std::__ndk1::regex_traits<char> >*)
PUBLIC 21128 0 std::__ndk1::basic_regex<char, std::__ndk1::regex_traits<char> >::__parse_awk_escape<char const*>(char const*, char const*, std::__ndk1::basic_string<char, std::__ndk1::char_traits<char>, std::__ndk1::allocator<char> >*)
PUBLIC 215ec 0 std::__ndk1::__bracket_expression<char, std::__ndk1::regex_traits<char> >::__add_digraph[abi:ne190000](char, char)
PUBLIC 21804 0 std::__ndk1::__throw_regex_error[abi:ne190000]<(std::__ndk1::regex_constants::error_type)1>()
PUBLIC 21850 0 std::__ndk1::regex_traits<char>::__lookup_collatename<char const*>(char const*, char const*, char) const
PUBLIC 21b18 0 std::__ndk1::__throw_regex_error[abi:ne190000]<(std::__ndk1::regex_constants::error_type)2>()
PUBLIC 21b64 0 std::__ndk1::regex_traits<char>::transform<std::__ndk1::__wrap_iter<char*> >(std::__ndk1::__wrap_iter<char*>, std::__ndk1::__wrap_iter<char*>) const
PUBLIC 21d28 0 std::__ndk1::__throw_regex_error[abi:ne190000]<(std::__ndk1::regex_constants::error_type)9>()
PUBLIC 21d74 0 std::__ndk1::vector<std::__ndk1::pair<std::__ndk1::basic_string<char, std::__ndk1::char_traits<char>, std::__ndk1::allocator<char> >, std::__ndk1::basic_string<char, std::__ndk1::char_traits<char>, std::__ndk1::allocator<char> > >, std::__ndk1::allocator<std::__ndk1::pair<std::__ndk1::basic_string<char, std::__ndk1::char_traits<char>, std::__ndk1::allocator<char> >, std::__ndk1::basic_string<char, std::__ndk1::char_traits<char>, std::__ndk1::allocator<char> > > > >::__push_back_slow_path<std::__ndk1::pair<std::__ndk1::basic_string<char, std::__ndk1::char_traits<char>, std::__ndk1::allocator<char> >, std::__ndk1::basic_string<char, std::__ndk1::char_traits<char>, std::__ndk1::allocator<char> > > >(std::__ndk1::pair<std::__ndk1::basic_string<char, std::__ndk1::char_traits<char>, std::__ndk1::allocator<char> >, std::__ndk1::basic_string<char, std::__ndk1::char_traits<char>, std::__ndk1::allocator<char> > >&&)
PUBLIC 21f1c 0 std::__ndk1::vector<std::__ndk1::pair<std::__ndk1::basic_string<char, std::__ndk1::char_traits<char>, std::__ndk1::allocator<char> >, std::__ndk1::basic_string<char, std::__ndk1::char_traits<char>, std::__ndk1::allocator<char> > >, std::__ndk1::allocator<std::__ndk1::pair<std::__ndk1::basic_string<char, std::__ndk1::char_traits<char>, std::__ndk1::allocator<char> >, std::__ndk1::basic_string<char, std::__ndk1::char_traits<char>, std::__ndk1::allocator<char> > > > >::__throw_length_error[abi:ne190000]() const
PUBLIC 21f30 0 std::__ndk1::vector<std::__ndk1::pair<char, char>, std::__ndk1::allocator<std::__ndk1::pair<char, char> > >::__throw_length_error[abi:ne190000]() const
PUBLIC 21f44 0 std::__ndk1::__begin_marked_subexpression<char>::~__begin_marked_subexpression()
PUBLIC 21f8c 0 std::__ndk1::__begin_marked_subexpression<char>::__exec(std::__ndk1::__state<char>&) const
PUBLIC 21fbc 0 std::__ndk1::__end_marked_subexpression<char>::~__end_marked_subexpression()
PUBLIC 22004 0 std::__ndk1::__end_marked_subexpression<char>::__exec(std::__ndk1::__state<char>&) const
PUBLIC 2203c 0 std::__ndk1::basic_regex<char, std::__ndk1::regex_traits<char> >::__push_loop(unsigned long, unsigned long, std::__ndk1::__owns_one_state<char>*, unsigned long, unsigned long, bool)
PUBLIC 2217c 0 std::__ndk1::__throw_regex_error[abi:ne190000]<(std::__ndk1::regex_constants::error_type)8>()
PUBLIC 221c8 0 std::__ndk1::__throw_regex_error[abi:ne190000]<(std::__ndk1::regex_constants::error_type)7>()
PUBLIC 22214 0 std::__ndk1::__loop<char>::~__loop()
PUBLIC 2227c 0 std::__ndk1::__loop<char>::__exec(std::__ndk1::__state<char>&) const
PUBLIC 22440 0 std::__ndk1::__loop<char>::__exec_split(bool, std::__ndk1::__state<char>&) const
PUBLIC 22504 0 std::__ndk1::__owns_two_states<char>::~__owns_two_states()
PUBLIC 2256c 0 std::__ndk1::__repeat_one_loop<char>::~__repeat_one_loop()
PUBLIC 22570 0 std::__ndk1::__repeat_one_loop<char>::__exec(std::__ndk1::__state<char>&) const
PUBLIC 22584 0 std::__ndk1::__owns_two_states<char>::~__owns_two_states()
PUBLIC 225f0 0 std::__ndk1::__alternate<char>::~__alternate()
PUBLIC 22658 0 std::__ndk1::__alternate<char>::__exec(std::__ndk1::__state<char>&) const
PUBLIC 22664 0 std::__ndk1::__alternate<char>::__exec_split(bool, std::__ndk1::__state<char>&) const
PUBLIC 22688 0 std::__ndk1::__node<char>::~__node()
PUBLIC 2268c 0 std::__ndk1::__empty_non_own_state<char>::~__empty_non_own_state()
PUBLIC 22690 0 std::__ndk1::__empty_non_own_state<char>::__exec(std::__ndk1::__state<char>&) const
PUBLIC 226a4 0 std::__ndk1::__throw_regex_error[abi:ne190000]<(std::__ndk1::regex_constants::error_type)15>()
PUBLIC 226f0 0 std::__ndk1::basic_regex<char, std::__ndk1::regex_traits<char> >::__parse_nondupl_RE<char const*>(char const*, char const*)
PUBLIC 229ec 0 std::__ndk1::basic_regex<char, std::__ndk1::regex_traits<char> >::__parse_RE_dupl_symbol<char const*>(char const*, char const*, std::__ndk1::__owns_one_state<char>*, unsigned int, unsigned int)
PUBLIC 22c5c 0 std::__ndk1::__owns_one_state<char>::~__owns_one_state()
PUBLIC 22c88 0 std::__ndk1::__match_any<char>::~__match_any()
PUBLIC 22cd0 0 std::__ndk1::__match_any<char>::__exec(std::__ndk1::__state<char>&) const
PUBLIC 22d10 0 std::__ndk1::basic_regex<char, std::__ndk1::regex_traits<char> >::__test_back_ref(char)
PUBLIC 22d70 0 std::__ndk1::basic_regex<char, std::__ndk1::regex_traits<char> >::__parse_ERE_expression<char const*>(char const*, char const*)
PUBLIC 230bc 0 std::__ndk1::deque<std::__ndk1::__state<char>, std::__ndk1::allocator<std::__ndk1::__state<char> > >::~deque[abi:ne190000]()
PUBLIC 23284 0 std::__ndk1::deque<std::__ndk1::__state<char>, std::__ndk1::allocator<std::__ndk1::__state<char> > >::__add_back_capacity()
PUBLIC 2385c 0 std::__ndk1::__split_buffer<std::__ndk1::__state<char>*, std::__ndk1::allocator<std::__ndk1::__state<char>*> >::push_back(std::__ndk1::__state<char>*&&)
PUBLIC 239e4 0 std::__ndk1::__split_buffer<std::__ndk1::__state<char>*, std::__ndk1::allocator<std::__ndk1::__state<char>*> >::push_front(std::__ndk1::__state<char>*&&)
PUBLIC 23b70 0 std::__ndk1::vector<std::__ndk1::sub_match<std::__ndk1::__wrap_iter<char const*> >, std::__ndk1::allocator<std::__ndk1::sub_match<std::__ndk1::__wrap_iter<char const*> > > >::__throw_length_error[abi:ne190000]() const
PUBLIC 23b84 0 std::__ndk1::uniform_int_distribution<int>::operator()<std::__ndk1::mersenne_twister_engine<unsigned long, (unsigned long)32, (unsigned long)624, (unsigned long)397, (unsigned long)31, (unsigned long)2567483615, (unsigned long)11, (unsigned long)4294967295, (unsigned long)7, (unsigned long)2636928640, (unsigned long)15, (unsigned long)4022730752, (unsigned long)18, (unsigned long)1812433253> >(std::__ndk1::mersenne_twister_engine<unsigned long, (unsigned long)32, (unsigned long)624, (unsigned long)397, (unsigned long)31, (unsigned long)2567483615, (unsigned long)11, (unsigned long)4294967295, (unsigned long)7, (unsigned long)2636928640, (unsigned long)15, (unsigned long)4022730752, (unsigned long)18, (unsigned long)1812433253>&, std::__ndk1::uniform_int_distribution<int>::param_type const&)
PUBLIC 23cc0 0 std::__ndk1::__independent_bits_engine<std::__ndk1::mersenne_twister_engine<unsigned long, (unsigned long)32, (unsigned long)624, (unsigned long)397, (unsigned long)31, (unsigned long)2567483615, (unsigned long)11, (unsigned long)4294967295, (unsigned long)7, (unsigned long)2636928640, (unsigned long)15, (unsigned long)4022730752, (unsigned long)18, (unsigned long)1812433253>, unsigned int>::__eval(std::__ndk1::integral_constant<bool, true>)
PUBLIC 23ec0 0 _GLOBAL__sub_I_Utils.cpp
PUBLIC 23f9c 0 geode::getMod()
PUBLIC m 23fd8 0 geodeImplicitEntry
PUBLIC 24014 0 std::__ndk1::unordered_map<void*, bool, std::__ndk1::hash<void*>, std::__ndk1::equal_to<void*>, std::__ndk1::allocator<std::__ndk1::pair<void* const, bool> > >::~unordered_map[abi:ne190000]()
PUBLIC 24060 0 wrapFunction(unsigned long, tulip::hook::WrapperMetadata const&)
PUBLIC 24194 0 geode::impl::ResultData<void*, std::__ndk1::basic_string<char, std::__ndk1::char_traits<char>, std::__ndk1::allocator<char> > >::unwrapErr() &
PUBLIC 2420c 0 geode::impl::ResultData<void*, std::__ndk1::basic_string<char, std::__ndk1::char_traits<char>, std::__ndk1::allocator<char> > >::~ResultData()
PUBLIC 24280 0 tulip::hook::WrapperMetadata::~WrapperMetadata()
PUBLIC 242e4 0 cocos2d::CCObject::~CCObject()
PUBLIC 24308 0 cocos2d::CCNode::CCNode()
PUBLIC 24564 0 cocos2d::CCNode::~CCNode()
PUBLIC 24588 0 FLAlertLayer::create(FLAlertLayerProtocol*, char const*, gd::string, char const*, char const*, float)
PUBLIC 24740 0 tulip::hook::AbstractFunction::from<FLAlertLayer*, FLAlertLayerProtocol*, char const*, gd::string, char const*, char const*, float>(FLAlertLayer* (*)(FLAlertLayerProtocol*, char const*, gd::string, char const*, char const*, float))
PUBLIC 24b10 0 FLAlertLayer::create(char const*, gd::string const&, char const*)
PUBLIC 24bbc 0 CCMenuItemSpriteExtra::create(cocos2d::CCNode*, cocos2d::CCObject*, void (cocos2d::CCObject::*)(cocos2d::CCObject*))
PUBLIC 24bd0 0 cocos2d::CCObject::update(float)
PUBLIC 24bd4 0 cocos2d::CCNode::~CCNode()
PUBLIC 24e74 0 cocos2d::CCObject::~CCObject()
PUBLIC 25368 0 _ZN5geode15UnwrapExceptionC2IRPvQsr4implE18IsStringStreamableIT_EEENS_4impl5OkTagEOS4_
PUBLIC 254bc 0 _ZN5geode15UnwrapExceptionC2IRNSt6__ndk112basic_stringIcNS2_11char_traitsIcEENS2_9allocatorIcEEEEQsr4implE18IsStringStreamableIT_EEENS_4impl6ErrTagEOSA_
PUBLIC 25624 0 std::__ndk1::__variant_detail::__visitation::__base::__dispatcher<(unsigned long)0>::__dispatch[abi:ne190000]<std::__ndk1::__variant_detail::__dtor<std::__ndk1::__variant_detail::__traits<void*, std::__ndk1::basic_string<char, std::__ndk1::char_traits<char>, std::__ndk1::allocator<char> > >, (std::__ndk1::__variant_detail::_Trait)1>::__destroy[abi:ne190000]()::{lambda(auto:1&)#1}, std::__ndk1::__variant_detail::__base<(std::__ndk1::__variant_detail::__traits<void*, std::__ndk1::basic_string<char, std::__ndk1::char_traits<char>, std::__ndk1::allocator<char> > >)1, std::__ndk1::__variant_detail::__traits, std::__ndk1::allocator<char> >&>(std::__ndk1::__variant_detail::__dtor<std::__ndk1::__variant_detail::__traits<void*, std::__ndk1::basic_string<char, std::__ndk1::char_traits<char>, std::__ndk1::allocator<char> > >, (std::__ndk1::__variant_detail::_Trait)1>, std::__ndk1::__variant_detail::__base<(std::__ndk1::__variant_detail::__traits<void*, std::__ndk1::basic_string<char, std::__ndk1::char_traits<char>, std::__ndk1::allocator<char> > >)1, std::__ndk1::__variant_detail::__traits, std::__ndk1::allocator<char> >&)
PUBLIC 25628 0 std::__ndk1::__variant_detail::__visitation::__base::__dispatcher<(unsigned long)1>::__dispatch[abi:ne190000]<std::__ndk1::__variant_detail::__dtor<std::__ndk1::__variant_detail::__traits<void*, std::__ndk1::basic_string<char, std::__ndk1::char_traits<char>, std::__ndk1::allocator<char> > >, (std::__ndk1::__variant_detail::_Trait)1>::__destroy[abi:ne190000]()::{lambda(auto:1&)#1}, std::__ndk1::__variant_detail::__base<(std::__ndk1::__variant_detail::__traits<void*, std::__ndk1::basic_string<char, std::__ndk1::char_traits<char>, std::__ndk1::allocator<char> > >)1, std::__ndk1::__variant_detail::__traits, std::__ndk1::allocator<char> >&>(std::__ndk1::__variant_detail::__dtor<std::__ndk1::__variant_detail::__traits<void*, std::__ndk1::basic_string<char, std::__ndk1::char_traits<char>, std::__ndk1::allocator<char> > >, (std::__ndk1::__variant_detail::_Trait)1>, std::__ndk1::__variant_detail::__base<(std::__ndk1::__variant_detail::__traits<void*, std::__ndk1::basic_string<char, std::__ndk1::char_traits<char>, std::__ndk1::allocator<char> > >)1, std::__ndk1::__variant_detail::__traits, std::__ndk1::allocator<char> >&)
PUBLIC 2563c 0 std::__ndk1::__hash_table<std::__ndk1::__hash_value_type<void*, bool>, std::__ndk1::__unordered_map_hasher<void*, std::__ndk1::__hash_value_type<void*, bool>, std::__ndk1::hash<void*>, std::__ndk1::equal_to<void*>, true>, std::__ndk1::__unordered_map_equal<void*, std::__ndk1::__hash_value_type<void*, bool>, std::__ndk1::equal_to<void*>, std::__ndk1::hash<void*>, true>, std::__ndk1::allocator<std::__ndk1::__hash_value_type<void*, bool> > >::__emplace_unique_key_args<void*, std::__ndk1::piecewise_construct_t const&, std::__ndk1::tuple<void* const&>, std::__ndk1::tuple<> >(void* const&, std::__ndk1::piecewise_construct_t const&, std::__ndk1::tuple<void* const&>, std::__ndk1::tuple<>)
PUBLIC 25b50 0 <.plt ELF section in raydeeux.skipeditorobjects.android64.so>
STACK CFI INIT 117b0 10 .cfa: sp 0 +
STACK CFI INIT 117c0 8 .cfa: sp 0 +
STACK CFI INIT 117c8 8 .cfa: sp 0 +
STACK CFI INIT 117d0 14 .cfa: sp 0 +
STACK CFI INIT 117e4 1c .cfa: sp 0 +
STACK CFI INIT 11800 10 .cfa: sp 0 +
STACK CFI INIT 11810 30 .cfa: sp 0 +
STACK CFI INIT 11840 98 .cfa: sp 0 +
STACK CFI INIT 118d8 2ac .cfa: sp 0 +
STACK CFI INIT 11b84 8c .cfa: sp 0 +
STACK CFI INIT 11c10 30 .cfa: sp 0 +
STACK CFI INIT 12620 18 .cfa: sp 0 +
STACK CFI INIT 12aac 18 .cfa: sp 0 +
STACK CFI INIT 12ebc 10 .cfa: sp 0 +
STACK CFI 12ec0 .cfa: sp 16 +
STACK CFI 12ec4 .cfa: x29 16 + .ra: .cfa -8 + ^ x29: .cfa -16 + ^
STACK CFI INIT 12ecc 50 .cfa: sp 0 +
STACK CFI 12ed0 .cfa: sp 32 +
STACK CFI 12ed8 .cfa: x29 32 + x19: .cfa -16 + ^ .ra: .cfa -24 + ^ x29: .cfa -32 + ^
STACK CFI 12ef0 .cfa: sp 32 +
STACK CFI 12ef8 .cfa: sp 0 +
STACK CFI 12efc .cfa: x29 32 +
STACK CFI 12f10 .cfa: sp 32 +
STACK CFI 12f18 .cfa: sp 0 +
STACK CFI INIT 12f1c 50 .cfa: sp 0 +
STACK CFI 12f20 .cfa: sp 32 +
STACK CFI 12f28 .cfa: x29 32 + x19: .cfa -16 + ^ .ra: .cfa -24 + ^ x29: .cfa -32 + ^
STACK CFI 12f40 .cfa: sp 32 +
STACK CFI 12f48 .cfa: sp 0 +
STACK CFI 12f4c .cfa: x29 32 +
STACK CFI 12f60 .cfa: sp 32 +
STACK CFI 12f68 .cfa: sp 0 +
STACK CFI INIT 12f6c 34 .cfa: sp 0 +
STACK CFI 12f70 .cfa: sp 32 +
STACK CFI 12f78 .cfa: x29 32 + x19: .cfa -16 + ^ .ra: .cfa -24 + ^ x29: .cfa -32 + ^
STACK CFI INIT 12fa0 10 .cfa: sp 0 +
STACK CFI INIT 12fb0 30 .cfa: sp 0 +
STACK CFI 12fb4 .cfa: sp 32 +
STACK CFI 12fbc .cfa: x29 32 + x19: .cfa -16 + ^ .ra: .cfa -24 + ^ x29: .cfa -32 + ^
STACK CFI 12fd4 .cfa: sp 32 +
STACK CFI 12fdc .cfa: sp 0 +
STACK CFI INIT 12fe0 c .cfa: sp 0 +
STACK CFI INIT 12fec 4 .cfa: sp 0 +
STACK CFI INIT 12ff0 34 .cfa: sp 0 +
STACK CFI 12ff4 .cfa: sp 16 +
STACK CFI 12ff8 .cfa: x29 16 + .ra: .cfa -8 + ^ x29: .cfa -16 + ^
STACK CFI INIT 13024 24 .cfa: sp 0 +
STACK CFI 13028 .cfa: sp 32 +
STACK CFI 13030 .cfa: x29 32 + x19: .cfa -16 + ^ .ra: .cfa -24 + ^ x29: .cfa -32 + ^
STACK CFI 1303c .cfa: sp 32 +
STACK CFI 13044 .cfa: sp 0 +
STACK CFI INIT 13048 94 .cfa: sp 0 +
STACK CFI 1304c .cfa: sp 48 +
STACK CFI 13058 .cfa: x29 48 + x19: .cfa -8 + ^ x20: .cfa -16 + ^ x21: .cfa -24 + ^ x22: .cfa -32 + ^ .ra: .cfa -40 + ^ x29: .cfa -48 + ^
STACK CFI 13070 .cfa: sp 48 +
STACK CFI 1307c .cfa: sp 0 +
STACK CFI 13080 .cfa: x29 48 +
STACK CFI 130c4 .cfa: sp 48 +
STACK CFI 130d0 .cfa: sp 0 +
STACK CFI 130d4 .cfa: x29 48 +
STACK CFI INIT 130dc 14 .cfa: sp 0 +
STACK CFI 130e0 .cfa: sp 16 +
STACK CFI 130e4 .cfa: x29 16 + .ra: .cfa -8 + ^ x29: .cfa -16 + ^
STACK CFI INIT 13140 30 .cfa: sp 0 +
STACK CFI 13144 .cfa: sp 32 +
STACK CFI 1314c .cfa: x29 32 + x19: .cfa -16 + ^ .ra: .cfa -24 + ^ x29: .cfa -32 + ^
STACK CFI 13164 .cfa: sp 32 +
STACK CFI 1316c .cfa: sp 0 +
STACK CFI INIT 13170 4 .cfa: sp 0 +
STACK CFI INIT 13174 4 .cfa: sp 0 +
STACK CFI INIT 13178 34 .cfa: sp 0 +
STACK CFI 1317c .cfa: sp 32 +
STACK CFI 13184 .cfa: x29 32 + x19: .cfa -16 + ^ .ra: .cfa -24 + ^ x29: .cfa -32 + ^
STACK CFI 131a0 .cfa: sp 32 +
STACK CFI 131a8 .cfa: sp 0 +
STACK CFI INIT 131ac 14 .cfa: sp 0 +
STACK CFI INIT 131c0 4 .cfa: sp 0 +
STACK CFI INIT 131c4 4 .cfa: sp 0 +
STACK CFI INIT 131c8 14 .cfa: sp 0 +
STACK CFI INIT 131dc 1c .cfa: sp 0 +
STACK CFI INIT 131f8 c .cfa: sp 0 +
STACK CFI INIT 13204 4 .cfa: sp 0 +
STACK CFI INIT 13208 14 .cfa: sp 0 +
STACK CFI INIT 1321c e8 .cfa: sp 0 +
STACK CFI 13220 .cfa: sp 32 +
STACK CFI 13228 .cfa: x29 32 + x19: .cfa -8 + ^ x20: .cfa -16 + ^ .ra: .cfa -24 + ^ x29: .cfa -32 + ^
STACK CFI 13268 .cfa: sp 32 +
STACK CFI 13270 .cfa: sp 0 +
STACK CFI 13274 .cfa: x29 32 +
STACK CFI 132b0 .cfa: sp 32 +
STACK CFI 132b8 .cfa: sp 0 +
STACK CFI 132bc .cfa: x29 32 +
STACK CFI 132dc .cfa: sp 32 +
STACK CFI 132e4 .cfa: sp 0 +
STACK CFI 132e8 .cfa: x29 32 +
STACK CFI 132f8 .cfa: sp 32 +
STACK CFI 13300 .cfa: sp 0 +
STACK CFI INIT 13304 ac .cfa: sp 0 +
STACK CFI 13308 .cfa: sp 64 +
STACK CFI 13318 .cfa: x29 64 + x19: .cfa -8 + ^ x20: .cfa -16 + ^ x21: .cfa -24 + ^ x22: .cfa -32 + ^ x23: .cfa -48 + ^ .ra: .cfa -56 + ^ x29: .cfa -64 + ^
STACK CFI 13394 .cfa: sp 64 +
STACK CFI 133a4 .cfa: sp 0 +
STACK CFI 133a8 .cfa: x29 64 +
STACK CFI INIT 133b0 13c .cfa: sp 0 +
STACK CFI 133b4 .cfa: sp 64 +
STACK CFI 133c4 .cfa: x29 64 + x19: .cfa -8 + ^ x20: .cfa -16 + ^ x21: .cfa -24 + ^ x22: .cfa -32 + ^ x23: .cfa -40 + ^ x24: .cfa -48 + ^ .ra: .cfa -56 + ^ x29: .cfa -64 + ^
STACK CFI 134a4 .cfa: sp 64 +
STACK CFI 134b4 .cfa: sp 0 +
STACK CFI 134b8 .cfa: x29 64 +
STACK CFI INIT 13830 4 .cfa: sp 0 +
STACK CFI INIT 13998 5c .cfa: sp 0 +
STACK CFI 1399c .cfa: sp 32 +
STACK CFI 139a4 .cfa: x29 32 + x19: .cfa -16 + ^ .ra: .cfa -24 + ^ x29: .cfa -32 + ^
STACK CFI 139e8 .cfa: sp 32 +
STACK CFI 139f0 .cfa: sp 0 +
STACK CFI INIT 139f4 64 .cfa: sp 0 +
STACK CFI 139f8 .cfa: sp 32 +
STACK CFI 13a00 .cfa: x29 32 + x19: .cfa -16 + ^ .ra: .cfa -24 + ^ x29: .cfa -32 + ^
STACK CFI 13a4c .cfa: sp 32 +
STACK CFI 13a54 .cfa: sp 0 +
STACK CFI INIT 13a58 4 .cfa: sp 0 +
STACK CFI INIT 13a5c 4 .cfa: sp 0 +
STACK CFI INIT 13a60 34 .cfa: sp 0 +
STACK CFI 13a64 .cfa: sp 32 +
STACK CFI 13a6c .cfa: x29 32 + x19: .cfa -16 + ^ .ra: .cfa -24 + ^ x29: .cfa -32 + ^
STACK CFI 13a88 .cfa: sp 32 +
STACK CFI 13a90 .cfa: sp 0 +
STACK CFI INIT 13a94 14 .cfa: sp 0 +
STACK CFI INIT 13aa8 4 .cfa: sp 0 +
STACK CFI INIT 13aac 4 .cfa: sp 0 +
STACK CFI INIT 13ab0 10 .cfa: sp 0 +
STACK CFI INIT 13ac0 1c .cfa: sp 0 +
STACK CFI INIT 13adc c .cfa: sp 0 +
STACK CFI INIT 13ae8 f8 .cfa: sp 0 +
STACK CFI 13aec .cfa: sp 64 +
STACK CFI 13afc .cfa: x29 64 + x19: .cfa -8 + ^ x20: .cfa -16 + ^ x21: .cfa -24 + ^ x22: .cfa -32 + ^ x23: .cfa -48 + ^ .ra: .cfa -56 + ^ x29: .cfa -64 + ^
STACK CFI 13b58 .cfa: sp 64 +
STACK CFI 13b68 .cfa: sp 0 +
STACK CFI 13b6c .cfa: x29 64 +
STACK CFI 13b88 .cfa: sp 64 +
STACK CFI 13b98 .cfa: sp 0 +
STACK CFI 13b9c .cfa: x29 64 +
STACK CFI 13bcc .cfa: sp 64 +
STACK CFI 13bdc .cfa: sp 0 +
STACK CFI INIT 13fd0 50 .cfa: sp 0 +
STACK CFI 13fd4 .cfa: sp 32 +
STACK CFI 13fdc .cfa: x29 32 + x19: .cfa -16 + ^ .ra: .cfa -24 + ^ x29: .cfa -32 + ^
STACK CFI 13ff4 .cfa: sp 32 +
STACK CFI 13ffc .cfa: sp 0 +
STACK CFI 14000 .cfa: x29 32 +
STACK CFI 14014 .cfa: sp 32 +
STACK CFI 1401c .cfa: sp 0 +
STACK CFI INIT 14094 7c .cfa: sp 0 +
STACK CFI 14098 .cfa: sp 48 +
STACK CFI 140a4 .cfa: x29 48 + x19: .cfa -8 + ^ x20: .cfa -16 + ^ x21: .cfa -32 + ^ .ra: .cfa -40 + ^ x29: .cfa -48 + ^
STACK CFI 140f0 .cfa: sp 48 +
STACK CFI 140fc .cfa: sp 0 +
STACK CFI 14100 .cfa: sp 48 +
STACK CFI 1410c .cfa: sp 0 +
STACK CFI INIT 14110 4 .cfa: sp 0 +
STACK CFI INIT 1439c 80 .cfa: sp 0 +
STACK CFI 143a0 .cfa: sp 48 +
STACK CFI 143ac .cfa: x29 48 + x19: .cfa -8 + ^ x20: .cfa -16 + ^ x21: .cfa -32 + ^ .ra: .cfa -40 + ^ x29: .cfa -48 + ^
STACK CFI 1440c .cfa: sp 48 +
STACK CFI 14418 .cfa: sp 0 +
STACK CFI INIT 1491c 148 .cfa: sp 0 +
STACK CFI 14920 .cfa: sp 48 +
STACK CFI 1492c .cfa: x29 48 + x19: .cfa -8 + ^ x20: .cfa -16 + ^ x21: .cfa -32 + ^ .ra: .cfa -40 + ^ x29: .cfa -48 + ^
STACK CFI 14a54 .cfa: sp 48 +
STACK CFI 14a60 .cfa: sp 0 +
STACK CFI INIT 14a64 88 .cfa: sp 0 +
STACK CFI 14a6c .cfa: sp 48 +
STACK CFI 14a78 .cfa: x29 48 + x19: .cfa -8 + ^ x20: .cfa -16 + ^ x21: .cfa -24 + ^ x22: .cfa -32 + ^ .ra: .cfa -40 + ^ x29: .cfa -48 + ^
STACK CFI 14adc .cfa: sp 48 +
STACK CFI 14ae8 .cfa: sp 0 +
STACK CFI INIT 14c9c 68 .cfa: sp 0 +
STACK CFI 14ca0 .cfa: sp 32 +
STACK CFI 14ca8 .cfa: x29 32 + x19: .cfa -8 + ^ x20: .cfa -16 + ^ .ra: .cfa -24 + ^ x29: .cfa -32 + ^
STACK CFI 14cc0 .cfa: sp 32 +
STACK CFI 14cc8 .cfa: sp 0 +
STACK CFI 14ccc .cfa: x29 32 +
STACK CFI 14cf8 .cfa: sp 32 +
STACK CFI 14d00 .cfa: sp 0 +
STACK CFI INIT 14d04 14 .cfa: sp 0 +
STACK CFI 14d08 .cfa: sp 16 +
STACK CFI 14d0c .cfa: x29 16 + .ra: .cfa -8 + ^ x29: .cfa -16 + ^
STACK CFI INIT 14d18 4 .cfa: sp 0 +
STACK CFI INIT 14d1c 14 .cfa: sp 0 +
STACK CFI INIT 14d30 128 .cfa: sp 0 +
STACK CFI 14d34 .cfa: sp 64 +
STACK CFI 14d44 .cfa: x29 64 + x19: .cfa -8 + ^ x20: .cfa -16 + ^ x21: .cfa -24 + ^ x22: .cfa -32 + ^ x23: .cfa -40 + ^ x24: .cfa -48 + ^ .ra: .cfa -56 + ^ x29: .cfa -64 + ^
STACK CFI 14e44 .cfa: sp 64 +
STACK CFI 14e54 .cfa: sp 0 +
STACK CFI INIT 14e58 4a4 .cfa: sp 0 +
STACK CFI 14e5c .cfa: sp 32 +
STACK CFI 14e64 .cfa: x29 32 + x19: .cfa -8 + ^ x20: .cfa -16 + ^ .ra: .cfa -24 + ^ x29: .cfa -32 + ^
STACK CFI 15244 .cfa: sp 32 +
STACK CFI 1524c .cfa: sp 0 +
STACK CFI 15250 .cfa: x29 32 +
STACK CFI INIT 152fc 84 .cfa: sp 0 +
STACK CFI 15304 .cfa: sp 32 +
STACK CFI 1530c .cfa: x29 32 + x19: .cfa -8 + ^ x20: .cfa -16 + ^ .ra: .cfa -24 + ^ x29: .cfa -32 + ^
STACK CFI 1534c .cfa: sp 32 +
STACK CFI 15354 .cfa: sp 0 +
STACK CFI 1535c .cfa: x29 32 +
STACK CFI INIT 158a8 50 .cfa: sp 0 +
STACK CFI 158ac .cfa: sp 32 +
STACK CFI 158b4 .cfa: x29 32 + x19: .cfa -16 + ^ .ra: .cfa -24 + ^ x29: .cfa -32 + ^
STACK CFI 158cc .cfa: sp 32 +
STACK CFI 158d4 .cfa: sp 0 +
STACK CFI 158d8 .cfa: x29 32 +
STACK CFI 158ec .cfa: sp 32 +
STACK CFI 158f4 .cfa: sp 0 +
STACK CFI INIT 158f8 64 .cfa: sp 0 +
STACK CFI 158fc .cfa: sp 32 +
STACK CFI 15904 .cfa: x29 32 + x19: .cfa -16 + ^ .ra: .cfa -24 + ^ x29: .cfa -32 + ^
STACK CFI 15930 .cfa: sp 32 +
STACK CFI 15938 .cfa: sp 0 +
STACK CFI 1593c .cfa: x29 32 +
STACK CFI 15950 .cfa: sp 32 +
STACK CFI 15958 .cfa: sp 0 +
STACK CFI INIT 1595c 14 .cfa: sp 0 +
STACK CFI 15960 .cfa: sp 16 +
STACK CFI 15964 .cfa: x29 16 + .ra: .cfa -8 + ^ x29: .cfa -16 + ^
STACK CFI INIT 15970 134 .cfa: sp 0 +
STACK CFI 15974 .cfa: sp 80 +
STACK CFI 15984 .cfa: x29 48 + x19: .cfa -8 + ^ x20: .cfa -16 + ^ x21: .cfa -24 + ^ x22: .cfa -32 + ^ .ra: .cfa -40 + ^ x29: .cfa -48 + ^
STACK CFI 15a8c .cfa: sp 80 +
STACK CFI 15a9c .cfa: sp 0 +
STACK CFI 15aa0 .cfa: x29 48 +
STACK CFI INIT 15aa4 50 .cfa: sp 0 +
STACK CFI 15aa8 .cfa: sp 32 +
STACK CFI 15ab0 .cfa: x29 32 + x19: .cfa -16 + ^ .ra: .cfa -24 + ^ x29: .cfa -32 + ^
STACK CFI 15ac8 .cfa: sp 32 +
STACK CFI 15ad0 .cfa: sp 0 +
STACK CFI 15ad4 .cfa: x29 32 +
STACK CFI 15ae8 .cfa: sp 32 +
STACK CFI 15af0 .cfa: sp 0 +
STACK CFI INIT 15af4 168 .cfa: sp 0 +
STACK CFI 15af8 .cfa: sp 80 +
STACK CFI 15b0c .cfa: x29 80 + x19: .cfa -8 + ^ x20: .cfa -16 + ^ x21: .cfa -24 + ^ x22: .cfa -32 + ^ x23: .cfa -40 + ^ x24: .cfa -48 + ^ x25: .cfa -56 + ^ x26: .cfa -64 + ^ .ra: .cfa -72 + ^ x29: .cfa -80 + ^
STACK CFI 15c44 .cfa: sp 80 +
STACK CFI 15c58 .cfa: sp 0 +
STACK CFI INIT 15c5c 1a8 .cfa: sp 0 +
STACK CFI INIT 16434 4 .cfa: sp 0 +
STACK CFI INIT 16ad0 4 .cfa: sp 0 +
STACK CFI INIT 16ad4 14 .cfa: sp 0 +
STACK CFI INIT 16ae8 4 .cfa: sp 0 +
STACK CFI INIT 16aec 14 .cfa: sp 0 +
STACK CFI INIT 16b00 4 .cfa: sp 0 +
STACK CFI INIT 16b04 4 .cfa: sp 0 +
STACK CFI INIT 16b08 24 .cfa: sp 0 +
STACK CFI 16b0c .cfa: sp 16 +
STACK CFI 16b10 .cfa: x29 16 + .ra: .cfa -8 + ^ x29: .cfa -16 + ^
STACK CFI 16b24 .cfa: sp 16 +
STACK CFI 16b28 .cfa: sp 0 +
STACK CFI INIT 16b2c 10 .cfa: sp 0 +
STACK CFI INIT 16b3c 4 .cfa: sp 0 +
STACK CFI INIT 16b40 4 .cfa: sp 0 +
STACK CFI INIT 16c14 1c .cfa: sp 0 +
STACK CFI INIT 16c30 c .cfa: sp 0 +
STACK CFI INIT 17388 24 .cfa: sp 0 +
STACK CFI 1738c .cfa: sp 32 +
STACK CFI 17394 .cfa: x29 32 + x19: .cfa -16 + ^ .ra: .cfa -24 + ^ x29: .cfa -32 + ^
STACK CFI 173a0 .cfa: sp 32 +
STACK CFI 173a8 .cfa: sp 0 +
STACK CFI INIT 173ac 8 .cfa: sp 0 +
STACK CFI INIT 173b4 8 .cfa: sp 0 +
STACK CFI INIT 173bc 8 .cfa: sp 0 +
STACK CFI INIT 173c4 4 .cfa: sp 0 +
STACK CFI INIT 173c8 8 .cfa: sp 0 +
STACK CFI INIT 173d0 bc .cfa: sp 0 +
STACK CFI 173d4 .cfa: sp 32 +
STACK CFI 173dc .cfa: x29 32 + x19: .cfa -8 + ^ x20: .cfa -16 + ^ .ra: .cfa -24 + ^ x29: .cfa -32 + ^
STACK CFI 17418 .cfa: sp 32 +
STACK CFI 17420 .cfa: sp 0 +
STACK CFI 17424 .cfa: x29 32 +
STACK CFI 17480 .cfa: sp 32 +
STACK CFI 17488 .cfa: sp 0 +
STACK CFI INIT 1748c cc .cfa: sp 0 +
STACK CFI 17490 .cfa: sp 32 +
STACK CFI 17498 .cfa: x29 32 + x19: .cfa -8 + ^ x20: .cfa -16 + ^ .ra: .cfa -24 + ^ x29: .cfa -32 + ^
STACK CFI 174dc .cfa: sp 32 +
STACK CFI 174e4 .cfa: sp 0 +
STACK CFI 174e8 .cfa: x29 32 +
STACK CFI 1754c .cfa: sp 32 +
STACK CFI 17554 .cfa: sp 0 +
STACK CFI INIT 17558 4 .cfa: sp 0 +
STACK CFI INIT 1755c 4 .cfa: sp 0 +
STACK CFI INIT 17560 8 .cfa: sp 0 +
STACK CFI INIT 17568 8 .cfa: sp 0 +
STACK CFI INIT 17844 34 .cfa: sp 0 +
STACK CFI 17848 .cfa: sp 16 +
STACK CFI 1784c .cfa: x29 16 + .ra: .cfa -8 + ^ x29: .cfa -16 + ^
STACK CFI INIT 17878 c .cfa: sp 0 +
STACK CFI 1787c .cfa: sp 16 +
STACK CFI 17880 .cfa: x29 16 + .ra: .cfa -8 + ^ x29: .cfa -16 + ^
STACK CFI INIT 178d4 30 .cfa: sp 0 +
STACK CFI 178d8 .cfa: sp 32 +
STACK CFI 178e0 .cfa: x29 32 + x19: .cfa -16 + ^ .ra: .cfa -24 + ^ x29: .cfa -32 + ^
STACK CFI 178f8 .cfa: sp 32 +
STACK CFI 17900 .cfa: sp 0 +
STACK CFI INIT 17904 34 .cfa: sp 0 +
STACK CFI 17908 .cfa: sp 16 +
STACK CFI 1790c .cfa: x29 16 + .ra: .cfa -8 + ^ x29: .cfa -16 + ^
STACK CFI INIT 17938 60 .cfa: sp 0 +
STACK CFI 1793c .cfa: sp 32 +
STACK CFI 17944 .cfa: x29 32 + x19: .cfa -8 + ^ x20: .cfa -16 + ^ .ra: .cfa -24 + ^ x29: .cfa -32 + ^
STACK CFI 17964 .cfa: sp 32 +
STACK CFI 1796c .cfa: sp 0 +
STACK CFI 17970 .cfa: x29 32 +
STACK CFI 1798c .cfa: sp 32 +
STACK CFI 17994 .cfa: sp 0 +
STACK CFI INIT 1a71c 50 .cfa: sp 0 +
STACK CFI 1a720 .cfa: sp 32 +
STACK CFI 1a728 .cfa: x29 32 + x19: .cfa -8 + ^ x20: .cfa -16 + ^ .ra: .cfa -24 + ^ x29: .cfa -32 + ^
STACK CFI 1a760 .cfa: sp 32 +
STACK CFI 1a768 .cfa: sp 0 +
STACK CFI INIT 1a8b8 54 .cfa: sp 0 +
STACK CFI 1a8bc .cfa: sp 32 +
STACK CFI 1a8c4 .cfa: x29 32 + x19: .cfa -16 + ^ .ra: .cfa -24 + ^ x29: .cfa -32 + ^
STACK CFI 1a8e0 .cfa: sp 32 +
STACK CFI 1a8e8 .cfa: sp 0 +
STACK CFI 1a8ec .cfa: x29 32 +
STACK CFI 1a900 .cfa: sp 32 +
STACK CFI 1a908 .cfa: sp 0 +
STACK CFI INIT 1a90c 4 .cfa: sp 0 +
STACK CFI INIT 1a910 14 .cfa: sp 0 +
STACK CFI INIT 1a924 14 .cfa: sp 0 +
STACK CFI 1a928 .cfa: sp 16 +
STACK CFI 1a92c .cfa: x29 16 + .ra: .cfa -8 + ^ x29: .cfa -16 + ^
STACK CFI INIT 1b048 26c .cfa: sp 0 +
STACK CFI 1b04c .cfa: sp 112 +
STACK CFI 1b068 .cfa: x29 96 + x19: .cfa -8 + ^ x20: .cfa -16 + ^ x21: .cfa -24 + ^ x22: .cfa -32 + ^ x23: .cfa -40 + ^ x24: .cfa -48 + ^ x25: .cfa -56 + ^ x26: .cfa -64 + ^ x27: .cfa -72 + ^ x28: .cfa -80 + ^ .ra: .cfa -88 + ^ x29: .cfa -96 + ^
STACK CFI 1b294 .cfa: sp 112 +
STACK CFI 1b2b0 .cfa: sp 0 +
STACK CFI INIT 1b2b4 1a8 .cfa: sp 0 +
STACK CFI 1b2b8 .cfa: sp 64 +
STACK CFI 1b2c8 .cfa: x29 64 + x19: .cfa -8 + ^ x20: .cfa -16 + ^ x21: .cfa -24 + ^ x22: .cfa -32 + ^ x23: .cfa -48 + ^ .ra: .cfa -56 + ^ x29: .cfa -64 + ^
STACK CFI 1b34c .cfa: sp 64 +
STACK CFI 1b35c .cfa: sp 0 +
STACK CFI 1b360 .cfa: x29 64 +
STACK CFI 1b368 .cfa: sp 64 +
STACK CFI 1b378 .cfa: sp 0 +
STACK CFI 1b37c .cfa: x29 64 +
STACK CFI 1b444 .cfa: sp 64 +
STACK CFI 1b454 .cfa: sp 0 +
STACK CFI 1b458 .cfa: x29 64 +
STACK CFI INIT 1b45c 170 .cfa: sp 0 +
STACK CFI 1b460 .cfa: sp 96 +
STACK CFI 1b478 .cfa: x29 96 + x19: .cfa -8 + ^ x20: .cfa -16 + ^ x21: .cfa -24 + ^ x22: .cfa -32 + ^ x23: .cfa -40 + ^ x24: .cfa -48 + ^ x25: .cfa -56 + ^ x26: .cfa -64 + ^ x27: .cfa -80 + ^ .ra: .cfa -88 + ^ x29: .cfa -96 + ^
STACK CFI 1b5ac .cfa: sp 96 +
STACK CFI 1b5c4 .cfa: sp 0 +
STACK CFI 1b5c8 .cfa: x29 96 +
STACK CFI INIT 1b618 4 .cfa: sp 0 +
STACK CFI INIT 1b61c c .cfa: sp 0 +
STACK CFI INIT 1b628 4 .cfa: sp 0 +
STACK CFI INIT 1b62c 4 .cfa: sp 0 +
STACK CFI INIT 1b630 24 .cfa: sp 0 +
STACK CFI 1b634 .cfa: sp 32 +
STACK CFI 1b63c .cfa: x29 32 + x19: .cfa -16 + ^ .ra: .cfa -24 + ^ x29: .cfa -32 + ^
STACK CFI 1b648 .cfa: sp 32 +
STACK CFI 1b650 .cfa: sp 0 +
STACK CFI INIT 1b654 18 .cfa: sp 0 +
STACK CFI INIT 1b66c 1c .cfa: sp 0 +
STACK CFI INIT 1b688 4 .cfa: sp 0 +
STACK CFI INIT 1b68c 48 .cfa: sp 0 +
STACK CFI 1b6a8 .cfa: sp 32 +
STACK CFI 1b6b0 .cfa: x29 32 + x19: .cfa -16 + ^ .ra: .cfa -24 + ^ x29: .cfa -32 + ^
STACK CFI 1b6c8 .cfa: sp 32 +
STACK CFI 1b6d0 .cfa: sp 0 +
STACK CFI INIT 1b6d4 14 .cfa: sp 0 +
STACK CFI INIT 1b6e8 48 .cfa: sp 0 +
STACK CFI 1b704 .cfa: sp 32 +
STACK CFI 1b70c .cfa: x29 32 + x19: .cfa -16 + ^ .ra: .cfa -24 + ^ x29: .cfa -32 + ^
STACK CFI 1b724 .cfa: sp 32 +
STACK CFI 1b72c .cfa: sp 0 +
STACK CFI INIT 1c0d8 3f4 .cfa: sp 0 +
STACK CFI 1c0dc .cfa: sp 32 +
STACK CFI 1c0e4 .cfa: x29 32 + x19: .cfa -16 + ^ .ra: .cfa -24 + ^ x29: .cfa -32 + ^
STACK CFI 1c230 .cfa: sp 32 +
STACK CFI 1c238 .cfa: sp 0 +
STACK CFI 1c23c .cfa: x29 32 +
STACK CFI 1c244 .cfa: sp 32 +
STACK CFI 1c24c .cfa: sp 0 +
STACK CFI 1c250 .cfa: x29 32 +
STACK CFI 1c28c .cfa: sp 32 +
STACK CFI 1c294 .cfa: sp 0 +
STACK CFI 1c298 .cfa: x29 32 +
STACK CFI 1c2d4 .cfa: sp 32 +
STACK CFI 1c2dc .cfa: sp 0 +
STACK CFI 1c2e0 .cfa: x29 32 +
STACK CFI 1c30c .cfa: sp 32 +
STACK CFI 1c314 .cfa: sp 0 +
STACK CFI 1c318 .cfa: x29 32 +
STACK CFI 1c334 .cfa: sp 32 +
STACK CFI 1c33c .cfa: sp 0 +
STACK CFI 1c340 .cfa: x29 32 +
STACK CFI 1c3a4 .cfa: sp 32 +
STACK CFI 1c3ac .cfa: sp 0 +
STACK CFI 1c3b0 .cfa: x29 32 +
STACK CFI 1c480 .cfa: sp 32 +
STACK CFI 1c488 .cfa: sp 0 +
STACK CFI 1c48c .cfa: x29 32 +
STACK CFI 1c4b8 .cfa: sp 32 +
STACK CFI 1c4c0 .cfa: sp 0 +
STACK CFI 1c4c4 .cfa: x29 32 +
STACK CFI INIT 1c538 b4 .cfa: sp 0 +
STACK CFI 1c53c .cfa: sp 64 +
STACK CFI 1c54c .cfa: x29 64 + x19: .cfa -8 + ^ x20: .cfa -16 + ^ x21: .cfa -24 + ^ x22: .cfa -32 + ^ x23: .cfa -48 + ^ .ra: .cfa -56 + ^ x29: .cfa -64 + ^
STACK CFI 1c5d8 .cfa: sp 64 +
STACK CFI 1c5e8 .cfa: sp 0 +
STACK CFI INIT 1c638 48 .cfa: sp 0 +
STACK CFI 1c654 .cfa: sp 32 +
STACK CFI 1c65c .cfa: x29 32 + x19: .cfa -16 + ^ .ra: .cfa -24 + ^ x29: .cfa -32 + ^
STACK CFI 1c674 .cfa: sp 32 +
STACK CFI 1c67c .cfa: sp 0 +
STACK CFI INIT 1c680 64 .cfa: sp 0 +
STACK CFI INIT 1c6e4 48 .cfa: sp 0 +
STACK CFI 1c700 .cfa: sp 32 +
STACK CFI 1c708 .cfa: x29 32 + x19: .cfa -16 + ^ .ra: .cfa -24 + ^ x29: .cfa -32 + ^
STACK CFI 1c720 .cfa: sp 32 +
STACK CFI 1c728 .cfa: sp 0 +
STACK CFI INIT 1c72c 54 .cfa: sp 0 +
STACK CFI INIT 1c780 5c .cfa: sp 0 +
STACK CFI 1c784 .cfa: sp 32 +
STACK CFI 1c78c .cfa: x29 32 + x19: .cfa -16 + ^ .ra: .cfa -24 + ^ x29: .cfa -32 + ^
STACK CFI 1c7c4 .cfa: sp 32 +
STACK CFI 1c7cc .cfa: sp 0 +
STACK CFI 1c7d0 .cfa: sp 32 +
STACK CFI 1c7d8 .cfa: sp 0 +
STACK CFI INIT 1c7dc 58 .cfa: sp 0 +
STACK CFI 1c7e0 .cfa: sp 32 +
STACK CFI 1c7e8 .cfa: x29 32 + x19: .cfa -16 + ^ .ra: .cfa -24 + ^ x29: .cfa -32 + ^
STACK CFI 1c828 .cfa: sp 32 +
STACK CFI 1c830 .cfa: sp 0 +
STACK CFI INIT 1c834 110 .cfa: sp 0 +
STACK CFI INIT 1c944 90 .cfa: sp 0 +
STACK CFI 1c948 .cfa: sp 32 +
STACK CFI 1c950 .cfa: x29 32 + x19: .cfa -8 + ^ x20: .cfa -16 + ^ .ra: .cfa -24 + ^ x29: .cfa -32 + ^
STACK CFI 1c9bc .cfa: sp 32 +
STACK CFI 1c9c4 .cfa: sp 0 +
STACK CFI 1c9c8 .cfa: sp 32 +
STACK CFI 1c9d0 .cfa: sp 0 +
STACK CFI INIT 1c9d4 8c .cfa: sp 0 +
STACK CFI 1c9d8 .cfa: sp 32 +
STACK CFI 1c9e0 .cfa: x29 32 + x19: .cfa -8 + ^ x20: .cfa -16 + ^ .ra: .cfa -24 + ^ x29: .cfa -32 + ^
STACK CFI 1ca54 .cfa: sp 32 +
STACK CFI 1ca5c .cfa: sp 0 +
STACK CFI INIT 1d07c 1c8 .cfa: sp 0 +
STACK CFI 1d080 .cfa: sp 48 +
STACK CFI 1d08c .cfa: x29 48 + x19: .cfa -8 + ^ x20: .cfa -16 + ^ x21: .cfa -24 + ^ x22: .cfa -32 + ^ .ra: .cfa -40 + ^ x29: .cfa -48 + ^
STACK CFI 1d214 .cfa: sp 48 +
STACK CFI 1d220 .cfa: sp 0 +
STACK CFI 1d224 .cfa: x29 48 +
STACK CFI 1d230 .cfa: sp 48 +
STACK CFI 1d23c .cfa: sp 0 +
STACK CFI 1d240 .cfa: x29 48 +
STACK CFI INIT 1d244 14 .cfa: sp 0 +
STACK CFI 1d248 .cfa: sp 16 +
STACK CFI 1d24c .cfa: x29 16 + .ra: .cfa -8 + ^ x29: .cfa -16 + ^
STACK CFI INIT 1d258 44 .cfa: sp 0 +
STACK CFI 1d25c .cfa: sp 32 +
STACK CFI 1d264 .cfa: x29 32 + x19: .cfa -16 + ^ .ra: .cfa -24 + ^ x29: .cfa -32 + ^
STACK CFI 1d284 .cfa: sp 32 +
STACK CFI 1d28c .cfa: sp 0 +
STACK CFI 1d290 .cfa: sp 32 +
STACK CFI 1d298 .cfa: sp 0 +
STACK CFI INIT 1d4a4 98 .cfa: sp 0 +
STACK CFI 1d4a8 .cfa: sp 48 +
STACK CFI 1d4b4 .cfa: x29 48 + x19: .cfa -8 + ^ x20: .cfa -16 + ^ x21: .cfa -32 + ^ .ra: .cfa -40 + ^ x29: .cfa -48 + ^
STACK CFI 1d4d4 .cfa: sp 48 +
STACK CFI 1d4e0 .cfa: sp 0 +
STACK CFI 1d4e4 .cfa: x29 48 +
STACK CFI 1d51c .cfa: sp 48 +
STACK CFI 1d528 .cfa: sp 0 +
STACK CFI 1d52c .cfa: sp 48 +
STACK CFI 1d538 .cfa: sp 0 +
STACK CFI INIT 1d53c 1cc .cfa: sp 0 +
STACK CFI 1d540 .cfa: sp 64 +
STACK CFI 1d550 .cfa: x29 64 + x19: .cfa -8 + ^ x20: .cfa -16 + ^ x21: .cfa -24 + ^ x22: .cfa -32 + ^ x23: .cfa -40 + ^ x24: .cfa -48 + ^ .ra: .cfa -56 + ^ x29: .cfa -64 + ^
STACK CFI 1d6ec .cfa: sp 64 +
STACK CFI 1d6fc .cfa: sp 0 +
STACK CFI 1d700 .cfa: x29 64 +
STACK CFI INIT 1d708 14 .cfa: sp 0 +
STACK CFI 1d70c .cfa: sp 16 +
STACK CFI 1d710 .cfa: x29 16 + .ra: .cfa -8 + ^ x29: .cfa -16 + ^
STACK CFI INIT 1d71c 188 .cfa: sp 0 +
STACK CFI 1d720 .cfa: sp 64 +
STACK CFI 1d730 .cfa: x29 64 + x19: .cfa -8 + ^ x20: .cfa -16 + ^ x21: .cfa -24 + ^ x22: .cfa -32 + ^ x23: .cfa -40 + ^ x24: .cfa -48 + ^ .ra: .cfa -56 + ^ x29: .cfa -64 + ^
STACK CFI 1d874 .cfa: sp 64 +
STACK CFI 1d884 .cfa: sp 0 +
STACK CFI 1d888 .cfa: sp 64 +
STACK CFI 1d898 .cfa: sp 0 +
STACK CFI 1d89c .cfa: x29 64 +
STACK CFI INIT 1d8a4 128 .cfa: sp 0 +
STACK CFI 1d8a8 .cfa: sp 80 +
STACK CFI 1d8bc .cfa: x29 80 + x19: .cfa -8 + ^ x20: .cfa -16 + ^ x21: .cfa -24 + ^ x22: .cfa -32 + ^ x23: .cfa -40 + ^ x24: .cfa -48 + ^ x25: .cfa -64 + ^ .ra: .cfa -72 + ^ x29: .cfa -80 + ^
STACK CFI 1d994 .cfa: sp 80 +
STACK CFI 1d9a8 .cfa: sp 0 +
STACK CFI 1d9ac .cfa: sp 80 +
STACK CFI 1d9c0 .cfa: sp 0 +
STACK CFI 1d9c4 .cfa: x29 80 +
STACK CFI INIT 1d9cc 14 .cfa: sp 0 +
STACK CFI 1d9d0 .cfa: sp 16 +
STACK CFI 1d9d4 .cfa: x29 16 + .ra: .cfa -8 + ^ x29: .cfa -16 + ^
STACK CFI INIT 1eb40 48 .cfa: sp 0 +
STACK CFI 1eb5c .cfa: sp 32 +
STACK CFI 1eb64 .cfa: x29 32 + x19: .cfa -16 + ^ .ra: .cfa -24 + ^ x29: .cfa -32 + ^
STACK CFI 1eb7c .cfa: sp 32 +
STACK CFI 1eb84 .cfa: sp 0 +
STACK CFI INIT 1ebd4 50c .cfa: sp 0 +
STACK CFI 1ebd8 .cfa: sp 32 +
STACK CFI 1ebe0 .cfa: x29 32 + x19: .cfa -16 + ^ .ra: .cfa -24 + ^ x29: .cfa -32 + ^
STACK CFI 1ed28 .cfa: sp 32 +
STACK CFI 1ed30 .cfa: sp 0 +
STACK CFI 1ed34 .cfa: x29 32 +
STACK CFI 1eea4 .cfa: sp 32 +
STACK CFI 1eeac .cfa: sp 0 +
STACK CFI 1eeb0 .cfa: x29 32 +
STACK CFI 1eecc .cfa: sp 32 +
STACK CFI 1eed4 .cfa: sp 0 +
STACK CFI 1eed8 .cfa: x29 32 +
STACK CFI 1ef34 .cfa: sp 32 +
STACK CFI 1ef3c .cfa: sp 0 +
STACK CFI 1ef40 .cfa: x29 32 +
STACK CFI 1ef5c .cfa: sp 32 +
STACK CFI 1ef64 .cfa: sp 0 +
STACK CFI 1ef68 .cfa: x29 32 +
STACK CFI 1ef84 .cfa: sp 32 +
STACK CFI 1ef8c .cfa: sp 0 +
STACK CFI 1ef90 .cfa: x29 32 +
STACK CFI 1efac .cfa: sp 32 +
STACK CFI 1efb4 .cfa: sp 0 +
STACK CFI 1efb8 .cfa: x29 32 +
STACK CFI 1efd0 .cfa: sp 32 +
STACK CFI 1efd8 .cfa: sp 0 +
STACK CFI 1efdc .cfa: x29 32 +
STACK CFI 1eff8 .cfa: sp 32 +
STACK CFI 1f000 .cfa: sp 0 +
STACK CFI 1f004 .cfa: x29 32 +
STACK CFI 1f020 .cfa: sp 32 +
STACK CFI 1f028 .cfa: sp 0 +
STACK CFI 1f02c .cfa: x29 32 +
STACK CFI 1f048 .cfa: sp 32 +
STACK CFI 1f050 .cfa: sp 0 +
STACK CFI 1f054 .cfa: x29 32 +
STACK CFI 1f0a8 .cfa: sp 32 +
STACK CFI 1f0b0 .cfa: sp 0 +
STACK CFI 1f0b4 .cfa: x29 32 +
STACK CFI 1f0d0 .cfa: sp 32 +
STACK CFI 1f0d8 .cfa: sp 0 +
STACK CFI 1f0dc .cfa: x29 32 +
STACK CFI INIT 1f26c c8 .cfa: sp 0 +
STACK CFI 1f270 .cfa: sp 48 +
STACK CFI 1f27c .cfa: x29 48 + x19: .cfa -8 + ^ x20: .cfa -16 + ^ x21: .cfa -32 + ^ .ra: .cfa -40 + ^ x29: .cfa -48 + ^
STACK CFI 1f324 .cfa: sp 48 +
STACK CFI 1f330 .cfa: sp 0 +
STACK CFI INIT 1f334 5c .cfa: sp 0 +
STACK CFI 1f338 .cfa: sp 32 +
STACK CFI 1f340 .cfa: x29 32 + x19: .cfa -16 + ^ .ra: .cfa -24 + ^ x29: .cfa -32 + ^
STACK CFI 1f378 .cfa: sp 32 +
STACK CFI 1f380 .cfa: sp 0 +
STACK CFI 1f384 .cfa: sp 32 +
STACK CFI 1f38c .cfa: sp 0 +
STACK CFI INIT 1f390 58 .cfa: sp 0 +
STACK CFI 1f394 .cfa: sp 32 +
STACK CFI 1f39c .cfa: x29 32 + x19: .cfa -16 + ^ .ra: .cfa -24 + ^ x29: .cfa -32 + ^
STACK CFI 1f3dc .cfa: sp 32 +
STACK CFI 1f3e4 .cfa: sp 0 +
STACK CFI INIT 1f3e8 80 .cfa: sp 0 +
STACK CFI 1f3ec .cfa: sp 32 +
STACK CFI 1f3f4 .cfa: x29 32 + x19: .cfa -8 + ^ x20: .cfa -16 + ^ .ra: .cfa -24 + ^ x29: .cfa -32 + ^
STACK CFI 1f444 .cfa: sp 32 +
STACK CFI 1f44c .cfa: sp 0 +
STACK CFI 1f450 .cfa: x29 32 +
STACK CFI 1f45c .cfa: sp 32 +
STACK CFI 1f464 .cfa: sp 0 +
STACK CFI INIT 1f468 5c .cfa: sp 0 +
STACK CFI 1f46c .cfa: sp 32 +
STACK CFI 1f474 .cfa: x29 32 + x19: .cfa -16 + ^ .ra: .cfa -24 + ^ x29: .cfa -32 + ^
STACK CFI 1f4ac .cfa: sp 32 +
STACK CFI 1f4b4 .cfa: sp 0 +
STACK CFI 1f4b8 .cfa: sp 32 +
STACK CFI 1f4c0 .cfa: sp 0 +
STACK CFI INIT 1f4c4 58 .cfa: sp 0 +
STACK CFI 1f4c8 .cfa: sp 32 +
STACK CFI 1f4d0 .cfa: x29 32 + x19: .cfa -16 + ^ .ra: .cfa -24 + ^ x29: .cfa -32 + ^
STACK CFI 1f510 .cfa: sp 32 +
STACK CFI 1f518 .cfa: sp 0 +
STACK CFI INIT 1f51c 48 .cfa: sp 0 +
STACK CFI INIT 1f564 48 .cfa: sp 0 +
STACK CFI 1f580 .cfa: sp 32 +
STACK CFI 1f588 .cfa: x29 32 + x19: .cfa -16 + ^ .ra: .cfa -24 + ^ x29: .cfa -32 + ^
STACK CFI 1f5a0 .cfa: sp 32 +
STACK CFI 1f5a8 .cfa: sp 0 +
STACK CFI INIT 1f5ac 48 .cfa: sp 0 +
STACK CFI INIT 1f5f4 5c .cfa: sp 0 +
STACK CFI 1f5f8 .cfa: sp 32 +
STACK CFI 1f600 .cfa: x29 32 + x19: .cfa -16 + ^ .ra: .cfa -24 + ^ x29: .cfa -32 + ^
STACK CFI 1f638 .cfa: sp 32 +
STACK CFI 1f640 .cfa: sp 0 +
STACK CFI 1f644 .cfa: sp 32 +
STACK CFI 1f64c .cfa: sp 0 +
STACK CFI INIT 1f650 58 .cfa: sp 0 +
STACK CFI 1f654 .cfa: sp 32 +
STACK CFI 1f65c .cfa: x29 32 + x19: .cfa -16 + ^ .ra: .cfa -24 + ^ x29: .cfa -32 + ^
STACK CFI 1f69c .cfa: sp 32 +
STACK CFI 1f6a4 .cfa: sp 0 +
STACK CFI INIT 1f6a8 f8 .cfa: sp 0 +
STACK CFI 1f6ac .cfa: sp 64 +
STACK CFI 1f6bc .cfa: x29 64 + x19: .cfa -8 + ^ x20: .cfa -16 + ^ x21: .cfa -24 + ^ x22: .cfa -32 + ^ x23: .cfa -40 + ^ x24: .cfa -48 + ^ .ra: .cfa -56 + ^ x29: .cfa -64 + ^
STACK CFI 1f700 .cfa: sp 64 +
STACK CFI 1f710 .cfa: sp 0 +
STACK CFI 1f714 .cfa: x29 64 +
STACK CFI 1f78c .cfa: sp 64 +
STACK CFI 1f79c .cfa: sp 0 +
STACK CFI INIT 1f7a0 5c .cfa: sp 0 +
STACK CFI 1f7a4 .cfa: sp 32 +
STACK CFI 1f7ac .cfa: x29 32 + x19: .cfa -16 + ^ .ra: .cfa -24 + ^ x29: .cfa -32 + ^
STACK CFI 1f7e4 .cfa: sp 32 +
STACK CFI 1f7ec .cfa: sp 0 +
STACK CFI 1f7f0 .cfa: sp 32 +
STACK CFI 1f7f8 .cfa: sp 0 +
STACK CFI INIT 1f7fc 58 .cfa: sp 0 +
STACK CFI 1f800 .cfa: sp 32 +
STACK CFI 1f808 .cfa: x29 32 + x19: .cfa -16 + ^ .ra: .cfa -24 + ^ x29: .cfa -32 + ^
STACK CFI 1f848 .cfa: sp 32 +
STACK CFI 1f850 .cfa: sp 0 +
STACK CFI INIT 1f854 88 .cfa: sp 0 +
STACK CFI INIT 1f8dc 48 .cfa: sp 0 +
STACK CFI 1f8f8 .cfa: sp 32 +
STACK CFI 1f900 .cfa: x29 32 + x19: .cfa -16 + ^ .ra: .cfa -24 + ^ x29: .cfa -32 + ^
STACK CFI 1f918 .cfa: sp 32 +
STACK CFI 1f920 .cfa: sp 0 +
STACK CFI INIT 1f924 c8 .cfa: sp 0 +
STACK CFI 1f928 .cfa: sp 48 +
STACK CFI 1f934 .cfa: x29 48 + x19: .cfa -8 + ^ x20: .cfa -16 + ^ x21: .cfa -24 + ^ x22: .cfa -32 + ^ .ra: .cfa -40 + ^ x29: .cfa -48 + ^
STACK CFI 1f9b0 .cfa: sp 48 +
STACK CFI 1f9bc .cfa: sp 0 +
STACK CFI 1f9c0 .cfa: x29 48 +
STACK CFI 1f9d8 .cfa: sp 48 +
STACK CFI 1f9e4 .cfa: sp 0 +
STACK CFI 1f9e8 .cfa: x29 48 +
STACK CFI INIT 1f9ec 184 .cfa: sp 0 +
STACK CFI 1f9f0 .cfa: sp 64 +
STACK CFI 1fa00 .cfa: x29 64 + x19: .cfa -8 + ^ x20: .cfa -16 + ^ x21: .cfa -24 + ^ x22: .cfa -32 + ^ x23: .cfa -40 + ^ x24: .cfa -48 + ^ .ra: .cfa -56 + ^ x29: .cfa -64 + ^
STACK CFI 1fa48 .cfa: sp 64 +
STACK CFI 1fa58 .cfa: sp 0 +
STACK CFI 1fa5c .cfa: x29 64 +
STACK CFI 1fb40 .cfa: sp 64 +
STACK CFI 1fb50 .cfa: sp 0 +
STACK CFI 1fb54 .cfa: x29 64 +
STACK CFI 1fb58 .cfa: sp 64 +
STACK CFI 1fb68 .cfa: sp 0 +
STACK CFI 1fb6c .cfa: x29 64 +
STACK CFI INIT 1fd48 ac .cfa: sp 0 +
STACK CFI 1fd4c .cfa: sp 48 +
STACK CFI 1fd58 .cfa: x29 48 + x19: .cfa -8 + ^ x20: .cfa -16 + ^ x21: .cfa -24 + ^ x22: .cfa -32 + ^ .ra: .cfa -40 + ^ x29: .cfa -48 + ^
STACK CFI 1fd78 .cfa: sp 48 +
STACK CFI 1fd84 .cfa: sp 0 +
STACK CFI 1fd88 .cfa: x29 48 +
STACK CFI 1fdd4 .cfa: sp 48 +
STACK CFI 1fde0 .cfa: sp 0 +
STACK CFI 1fde4 .cfa: sp 48 +
STACK CFI 1fdf0 .cfa: sp 0 +
STACK CFI INIT 1fdf4 154 .cfa: sp 0 +
STACK CFI 1fdf8 .cfa: sp 48 +
STACK CFI 1fe04 .cfa: x29 48 + x19: .cfa -8 + ^ x20: .cfa -16 + ^ x21: .cfa -24 + ^ x22: .cfa -32 + ^ .ra: .cfa -40 + ^ x29: .cfa -48 + ^
STACK CFI 1ff28 .cfa: sp 48 +
STACK CFI 1ff34 .cfa: sp 0 +
STACK CFI 1ff38 .cfa: sp 48 +
STACK CFI 1ff44 .cfa: sp 0 +
STACK CFI INIT 1ff48 24 .cfa: sp 0 +
STACK CFI 1ff4c .cfa: sp 32 +
STACK CFI 1ff54 .cfa: x29 32 + x19: .cfa -16 + ^ .ra: .cfa -24 + ^ x29: .cfa -32 + ^
STACK CFI 1ff60 .cfa: sp 32 +
STACK CFI 1ff68 .cfa: sp 0 +
STACK CFI INIT 20ba0 44 .cfa: sp 0 +
STACK CFI 20ba4 .cfa: sp 32 +
STACK CFI 20bac .cfa: x29 32 + x19: .cfa -16 + ^ .ra: .cfa -24 + ^ x29: .cfa -32 + ^
STACK CFI 20bc8 .cfa: sp 32 +
STACK CFI 20bd0 .cfa: sp 0 +
STACK CFI 20bd4 .cfa: x29 32 +
STACK CFI 20bd8 .cfa: sp 32 +
STACK CFI 20be0 .cfa: sp 0 +
STACK CFI INIT 20db8 14 .cfa: sp 0 +
STACK CFI 20dbc .cfa: sp 16 +
STACK CFI 20dc0 .cfa: x29 16 + .ra: .cfa -8 + ^ x29: .cfa -16 + ^
STACK CFI INIT 20e18 310 .cfa: sp 0 +
STACK CFI 20e1c .cfa: sp 80 +
STACK CFI 20e30 .cfa: x29 80 + x19: .cfa -8 + ^ x20: .cfa -16 + ^ x21: .cfa -24 + ^ x22: .cfa -32 + ^ x23: .cfa -40 + ^ x24: .cfa -48 + ^ x25: .cfa -64 + ^ .ra: .cfa -72 + ^ x29: .cfa -80 + ^
STACK CFI 20f18 .cfa: sp 80 +
STACK CFI 20f2c .cfa: sp 0 +
STACK CFI 20f30 .cfa: x29 80 +
STACK CFI 20f84 .cfa: sp 80 +
STACK CFI 20f98 .cfa: sp 0 +
STACK CFI 20f9c .cfa: x29 80 +
STACK CFI 21108 .cfa: sp 80 +
STACK CFI 2111c .cfa: sp 0 +
STACK CFI 21120 .cfa: x29 80 +
STACK CFI INIT 21128 4c4 .cfa: sp 0 +
STACK CFI 2112c .cfa: sp 32 +
STACK CFI 21134 .cfa: x29 32 + x19: .cfa -16 + ^ .ra: .cfa -24 + ^ x29: .cfa -32 + ^
STACK CFI 21188 .cfa: sp 32 +
STACK CFI 21190 .cfa: sp 0 +
STACK CFI 21194 .cfa: x29 32 +
STACK CFI 211d4 .cfa: sp 32 +
STACK CFI 211dc .cfa: sp 0 +
STACK CFI 211e0 .cfa: x29 32 +
STACK CFI 21210 .cfa: sp 32 +
STACK CFI 21218 .cfa: sp 0 +
STACK CFI 2121c .cfa: x29 32 +
STACK CFI 2124c .cfa: sp 32 +
STACK CFI 21254 .cfa: sp 0 +
STACK CFI 21258 .cfa: x29 32 +
STACK CFI 21268 .cfa: sp 32 +
STACK CFI 21270 .cfa: sp 0 +
STACK CFI 21274 .cfa: x29 32 +
STACK CFI 21294 .cfa: sp 32 +
STACK CFI 2129c .cfa: sp 0 +
STACK CFI 212a0 .cfa: x29 32 +
STACK CFI 212c0 .cfa: sp 32 +
STACK CFI 212c8 .cfa: sp 0 +
STACK CFI 212cc .cfa: x29 32 +
STACK CFI 212ec .cfa: sp 32 +
STACK CFI 212f4 .cfa: sp 0 +
STACK CFI 212f8 .cfa: x29 32 +
STACK CFI 21318 .cfa: sp 32 +
STACK CFI 21320 .cfa: sp 0 +
STACK CFI 21324 .cfa: x29 32 +
STACK CFI 213a8 .cfa: sp 32 +
STACK CFI 213b0 .cfa: sp 0 +
STACK CFI 213b4 .cfa: x29 32 +
STACK CFI 213c4 .cfa: sp 32 +
STACK CFI 213cc .cfa: sp 0 +
STACK CFI 213d0 .cfa: x29 32 +
STACK CFI 213e0 .cfa: sp 32 +
STACK CFI 213e8 .cfa: sp 0 +
STACK CFI 213ec .cfa: x29 32 +
STACK CFI 213fc .cfa: sp 32 +
STACK CFI 21404 .cfa: sp 0 +
STACK CFI 21408 .cfa: x29 32 +
STACK CFI 21418 .cfa: sp 32 +
STACK CFI 21420 .cfa: sp 0 +
STACK CFI 21424 .cfa: x29 32 +
STACK CFI 21434 .cfa: sp 32 +
STACK CFI 2143c .cfa: sp 0 +
STACK CFI 21440 .cfa: x29 32 +
STACK CFI 21450 .cfa: sp 32 +
STACK CFI 21458 .cfa: sp 0 +
STACK CFI 2145c .cfa: x29 32 +
STACK CFI 2146c .cfa: sp 32 +
STACK CFI 21474 .cfa: sp 0 +
STACK CFI 21478 .cfa: x29 32 +
STACK CFI 2149c .cfa: sp 32 +
STACK CFI 214a4 .cfa: sp 0 +
STACK CFI 214a8 .cfa: x29 32 +
STACK CFI 214c0 .cfa: sp 32 +
STACK CFI 214c8 .cfa: sp 0 +
STACK CFI 214cc .cfa: x29 32 +
STACK CFI 214e4 .cfa: sp 32 +
STACK CFI 214ec .cfa: sp 0 +
STACK CFI 214f0 .cfa: x29 32 +
STACK CFI 21508 .cfa: sp 32 +
STACK CFI 21510 .cfa: sp 0 +
STACK CFI 21514 .cfa: x29 32 +
STACK CFI 2152c .cfa: sp 32 +
STACK CFI 21534 .cfa: sp 0 +
STACK CFI 21538 .cfa: x29 32 +
STACK CFI 21550 .cfa: sp 32 +
STACK CFI 21558 .cfa: sp 0 +
STACK CFI 2155c .cfa: x29 32 +
STACK CFI 21574 .cfa: sp 32 +
STACK CFI 2157c .cfa: sp 0 +
STACK CFI 21580 .cfa: x29 32 +
STACK CFI 21598 .cfa: sp 32 +
STACK CFI 215a0 .cfa: sp 0 +
STACK CFI 215a4 .cfa: x29 32 +
STACK CFI 215bc .cfa: sp 32 +
STACK CFI 215c4 .cfa: sp 0 +
STACK CFI 215c8 .cfa: x29 32 +
STACK CFI 215dc .cfa: sp 32 +
STACK CFI 215e4 .cfa: sp 0 +
STACK CFI 215e8 .cfa: x29 32 +
STACK CFI INIT 215ec 218 .cfa: sp 0 +
STACK CFI 215f0 .cfa: sp 80 +
STACK CFI 21604 .cfa: x29 80 + x19: .cfa -8 + ^ x20: .cfa -16 + ^ x21: .cfa -24 + ^ x22: .cfa -32 + ^ x23: .cfa -40 + ^ x24: .cfa -48 + ^ x25: .cfa -64 + ^ .ra: .cfa -72 + ^ x29: .cfa -80 + ^
STACK CFI 21740 .cfa: sp 80 +
STACK CFI 21754 .cfa: sp 0 +
STACK CFI 21758 .cfa: x29 80 +
STACK CFI 217e4 .cfa: sp 80 +
STACK CFI 217f8 .cfa: sp 0 +
STACK CFI 217fc .cfa: x29 80 +
STACK CFI INIT 21d74 1a8 .cfa: sp 0 +
STACK CFI 21d78 .cfa: sp 64 +
STACK CFI 21d88 .cfa: x29 64 + x19: .cfa -8 + ^ x20: .cfa -16 + ^ x21: .cfa -24 + ^ x22: .cfa -32 + ^ x23: .cfa -40 + ^ x24: .cfa -48 + ^ .ra: .cfa -56 + ^ x29: .cfa -64 + ^
STACK CFI 21f00 .cfa: sp 64 +
STACK CFI 21f10 .cfa: sp 0 +
STACK CFI 21f14 .cfa: x29 64 +
STACK CFI INIT 21f1c 14 .cfa: sp 0 +
STACK CFI 21f20 .cfa: sp 16 +
STACK CFI 21f24 .cfa: x29 16 + .ra: .cfa -8 + ^ x29: .cfa -16 + ^
STACK CFI INIT 21f30 14 .cfa: sp 0 +
STACK CFI 21f34 .cfa: sp 16 +
STACK CFI 21f38 .cfa: x29 16 + .ra: .cfa -8 + ^ x29: .cfa -16 + ^
STACK CFI INIT 21f44 48 .cfa: sp 0 +
STACK CFI 21f60 .cfa: sp 32 +
STACK CFI 21f68 .cfa: x29 32 + x19: .cfa -16 + ^ .ra: .cfa -24 + ^ x29: .cfa -32 + ^
STACK CFI 21f80 .cfa: sp 32 +
STACK CFI 21f88 .cfa: sp 0 +
STACK CFI INIT 21f8c 30 .cfa: sp 0 +
STACK CFI INIT 21fbc 48 .cfa: sp 0 +
STACK CFI 21fd8 .cfa: sp 32 +
STACK CFI 21fe0 .cfa: x29 32 + x19: .cfa -16 + ^ .ra: .cfa -24 + ^ x29: .cfa -32 + ^
STACK CFI 21ff8 .cfa: sp 32 +
STACK CFI 22000 .cfa: sp 0 +
STACK CFI INIT 22004 38 .cfa: sp 0 +
STACK CFI INIT 22214 68 .cfa: sp 0 +
STACK CFI 22218 .cfa: sp 32 +
STACK CFI 22220 .cfa: x29 32 + x19: .cfa -16 + ^ .ra: .cfa -24 + ^ x29: .cfa -32 + ^
STACK CFI 22270 .cfa: sp 32 +
STACK CFI 22278 .cfa: sp 0 +
STACK CFI INIT 2227c 1c4 .cfa: sp 0 +
STACK CFI INIT 22440 c4 .cfa: sp 0 +
STACK CFI INIT 22504 68 .cfa: sp 0 +
STACK CFI 22508 .cfa: sp 32 +
STACK CFI 22510 .cfa: x29 32 + x19: .cfa -16 + ^ .ra: .cfa -24 + ^ x29: .cfa -32 + ^
STACK CFI 22560 .cfa: sp 32 +
STACK CFI 22568 .cfa: sp 0 +
STACK CFI INIT 2256c 4 .cfa: sp 0 +
STACK CFI INIT 22570 14 .cfa: sp 0 +
STACK CFI INIT 22584 6c .cfa: sp 0 +
STACK CFI 22588 .cfa: sp 32 +
STACK CFI 22590 .cfa: x29 32 + x19: .cfa -16 + ^ .ra: .cfa -24 + ^ x29: .cfa -32 + ^
STACK CFI 225d8 .cfa: sp 32 +
STACK CFI 225e0 .cfa: sp 0 +
STACK CFI 225e4 .cfa: sp 32 +
STACK CFI 225ec .cfa: sp 0 +
STACK CFI INIT 225f0 68 .cfa: sp 0 +
STACK CFI 225f4 .cfa: sp 32 +
STACK CFI 225fc .cfa: x29 32 + x19: .cfa -16 + ^ .ra: .cfa -24 + ^ x29: .cfa -32 + ^
STACK CFI 2264c .cfa: sp 32 +
STACK CFI 22654 .cfa: sp 0 +
STACK CFI INIT 22658 c .cfa: sp 0 +
STACK CFI INIT 22664 24 .cfa: sp 0 +
STACK CFI INIT 22688 4 .cfa: sp 0 +
STACK CFI INIT 2268c 4 .cfa: sp 0 +
STACK CFI INIT 22690 14 .cfa: sp 0 +
STACK CFI INIT 226f0 2fc .cfa: sp 0 +
STACK CFI 226f4 .cfa: sp 64 +
STACK CFI 22704 .cfa: x29 64 + x19: .cfa -8 + ^ x20: .cfa -16 + ^ x21: .cfa -24 + ^ x22: .cfa -32 + ^ x23: .cfa -40 + ^ x24: .cfa -48 + ^ .ra: .cfa -56 + ^ x29: .cfa -64 + ^
STACK CFI 22880 .cfa: sp 64 +
STACK CFI 22890 .cfa: sp 0 +
STACK CFI 22894 .cfa: x29 64 +
STACK CFI 228d8 .cfa: sp 64 +
STACK CFI 228e8 .cfa: sp 0 +
STACK CFI 228ec .cfa: x29 64 +
STACK CFI 229bc .cfa: sp 64 +
STACK CFI 229cc .cfa: sp 0 +
STACK CFI 229d0 .cfa: sp 64 +
STACK CFI 229e0 .cfa: sp 0 +
STACK CFI 229e4 .cfa: x29 64 +
STACK CFI INIT 229ec 270 .cfa: sp 0 +
STACK CFI 229f0 .cfa: sp 32 +
STACK CFI 229f8 .cfa: x29 32 + x19: .cfa -16 + ^ .ra: .cfa -24 + ^ x29: .cfa -32 + ^
STACK CFI 22a30 .cfa: sp 32 +
STACK CFI 22a38 .cfa: sp 0 +
STACK CFI 22a3c .cfa: x29 32 +
STACK CFI 22b84 .cfa: sp 32 +
STACK CFI 22b8c .cfa: sp 0 +
STACK CFI 22b90 .cfa: x29 32 +
STACK CFI 22bcc .cfa: sp 32 +
STACK CFI 22bd4 .cfa: sp 0 +
STACK CFI 22bd8 .cfa: x29 32 +
STACK CFI 22c4c .cfa: sp 32 +
STACK CFI 22c54 .cfa: sp 0 +
STACK CFI 22c58 .cfa: x29 32 +
STACK CFI INIT 22c5c 2c .cfa: sp 0 +
STACK CFI INIT 22c88 48 .cfa: sp 0 +
STACK CFI 22ca4 .cfa: sp 32 +
STACK CFI 22cac .cfa: x29 32 + x19: .cfa -16 + ^ .ra: .cfa -24 + ^ x29: .cfa -32 + ^
STACK CFI 22cc4 .cfa: sp 32 +
STACK CFI 22ccc .cfa: sp 0 +
STACK CFI INIT 22cd0 40 .cfa: sp 0 +
STACK CFI INIT 22d10 60 .cfa: sp 0 +
STACK CFI 22d14 .cfa: sp 16 +
STACK CFI 22d18 .cfa: x29 16 + .ra: .cfa -8 + ^ x29: .cfa -16 + ^
STACK CFI 22d58 .cfa: sp 16 +
STACK CFI 22d5c .cfa: sp 0 +
STACK CFI 22d60 .cfa: x29 16 +
STACK CFI 22d64 .cfa: sp 16 +
STACK CFI 22d68 .cfa: sp 0 +
STACK CFI 22d6c .cfa: x29 16 +
STACK CFI INIT 22d70 34c .cfa: sp 0 +
STACK CFI 22d74 .cfa: sp 80 +
STACK CFI 22d88 .cfa: x29 80 + x19: .cfa -8 + ^ x20: .cfa -16 + ^ x21: .cfa -24 + ^ x22: .cfa -32 + ^ x23: .cfa -40 + ^ x24: .cfa -48 + ^ x25: .cfa -64 + ^ .ra: .cfa -72 + ^ x29: .cfa -80 + ^
STACK CFI 23084 .cfa: sp 80 +
STACK CFI 23098 .cfa: sp 0 +
STACK CFI 2309c .cfa: x29 80 +
STACK CFI 230a0 .cfa: sp 80 +
STACK CFI 230b4 .cfa: sp 0 +
STACK CFI 230b8 .cfa: x29 80 +
STACK CFI INIT 230bc 1c8 .cfa: sp 0 +
STACK CFI 230c0 .cfa: sp 80 +
STACK CFI 230d4 .cfa: x29 80 + x19: .cfa -8 + ^ x20: .cfa -16 + ^ x21: .cfa -24 + ^ x22: .cfa -32 + ^ x23: .cfa -40 + ^ x24: .cfa -48 + ^ x25: .cfa -64 + ^ .ra: .cfa -72 + ^ x29: .cfa -80 + ^
STACK CFI 23254 .cfa: sp 80 +
STACK CFI 23268 .cfa: sp 0 +
STACK CFI 2326c .cfa: sp 80 +
STACK CFI 23280 .cfa: sp 0 +
STACK CFI INIT 2385c 188 .cfa: sp 0 +
STACK CFI 23860 .cfa: sp 80 +
STACK CFI 23874 .cfa: x29 80 + x19: .cfa -8 + ^ x20: .cfa -16 + ^ x21: .cfa -24 + ^ x22: .cfa -32 + ^ x23: .cfa -40 + ^ x24: .cfa -48 + ^ x25: .cfa -64 + ^ .ra: .cfa -72 + ^ x29: .cfa -80 + ^
STACK CFI 239c8 .cfa: sp 80 +
STACK CFI 239dc .cfa: sp 0 +
STACK CFI 239e0 .cfa: x29 80 +
STACK CFI INIT 239e4 18c .cfa: sp 0 +
STACK CFI 239e8 .cfa: sp 64 +
STACK CFI 239f8 .cfa: x29 64 + x19: .cfa -8 + ^ x20: .cfa -16 + ^ x21: .cfa -24 + ^ x22: .cfa -32 + ^ x23: .cfa -40 + ^ x24: .cfa -48 + ^ .ra: .cfa -56 + ^ x29: .cfa -64 + ^
STACK CFI 23b58 .cfa: sp 64 +
STACK CFI 23b68 .cfa: sp 0 +
STACK CFI 23b6c .cfa: x29 64 +
STACK CFI INIT 23b70 14 .cfa: sp 0 +
STACK CFI 23b74 .cfa: sp 16 +
STACK CFI 23b78 .cfa: x29 16 + .ra: .cfa -8 + ^ x29: .cfa -16 + ^
STACK CFI INIT 23b84 13c .cfa: sp 0 +
STACK CFI 23b88 .cfa: sp 128 +
STACK CFI 23b98 .cfa: x29 48 + x19: .cfa -8 + ^ x20: .cfa -16 + ^ x21: .cfa -32 + ^ .ra: .cfa -40 + ^ x29: .cfa -48 + ^
STACK CFI 23c5c .cfa: sp 128 +
STACK CFI 23c6c .cfa: sp 0 +
STACK CFI 23c70 .cfa: x29 48 +
STACK CFI INIT 23cc0 200 .cfa: sp 0 +
STACK CFI INIT 23f9c 3c .cfa: sp 0 +
STACK CFI 23fa0 .cfa: sp 32 +
STACK CFI 23fa8 .cfa: x29 32 + x19: .cfa -16 + ^ .ra: .cfa -24 + ^ x29: .cfa -32 + ^
STACK CFI 23fb4 .cfa: sp 32 +
STACK CFI 23fbc .cfa: sp 0 +
STACK CFI 23fc0 .cfa: x29 32 +
STACK CFI 23fcc .cfa: sp 32 +
STACK CFI 23fd4 .cfa: sp 0 +
STACK CFI INIT 23fd8 3c .cfa: sp 0 +
STACK CFI 23fdc .cfa: sp 32 +
STACK CFI 23fe4 .cfa: x29 32 + x19: .cfa -16 + ^ .ra: .cfa -24 + ^ x29: .cfa -32 + ^
STACK CFI 23ff0 .cfa: sp 32 +
STACK CFI 23ff8 .cfa: sp 0 +
STACK CFI 23ffc .cfa: x29 32 +
STACK CFI 24008 .cfa: sp 32 +
STACK CFI 24010 .cfa: sp 0 +
STACK CFI INIT 24014 4c .cfa: sp 0 +
STACK CFI 24018 .cfa: sp 32 +
STACK CFI 24020 .cfa: x29 32 + x19: .cfa -8 + ^ x20: .cfa -16 + ^ .ra: .cfa -24 + ^ x29: .cfa -32 + ^
STACK CFI 24048 .cfa: sp 32 +
STACK CFI 24050 .cfa: sp 0 +
STACK CFI 24054 .cfa: sp 32 +
STACK CFI 2405c .cfa: sp 0 +
STACK CFI INIT 24280 64 .cfa: sp 0 +
STACK CFI 24284 .cfa: sp 32 +
STACK CFI 2428c .cfa: x29 32 + x19: .cfa -16 + ^ .ra: .cfa -24 + ^ x29: .cfa -32 + ^
STACK CFI 242b8 .cfa: sp 32 +
STACK CFI 242c0 .cfa: sp 0 +
STACK CFI 242c4 .cfa: x29 32 +
STACK CFI 242d8 .cfa: sp 32 +
STACK CFI 242e0 .cfa: sp 0 +
STACK CFI INIT 242e4 24 .cfa: sp 0 +
STACK CFI 242e8 .cfa: sp 32 +
STACK CFI 242f0 .cfa: x29 32 + x19: .cfa -16 + ^ .ra: .cfa -24 + ^ x29: .cfa -32 + ^
STACK CFI 242fc .cfa: sp 32 +
STACK CFI 24304 .cfa: sp 0 +
STACK CFI INIT 24564 24 .cfa: sp 0 +
STACK CFI 24568 .cfa: sp 32 +
STACK CFI 24570 .cfa: x29 32 + x19: .cfa -16 + ^ .ra: .cfa -24 + ^ x29: .cfa -32 + ^
STACK CFI 2457c .cfa: sp 32 +
STACK CFI 24584 .cfa: sp 0 +
STACK CFI INIT 24bbc 14 .cfa: sp 0 +
STACK CFI INIT 24bd0 4 .cfa: sp 0 +
STACK CFI INIT 25624 4 .cfa: sp 0 +
STACK CFI INIT 25628 14 .cfa: sp 0 +
STACK CFI INIT 11c40 56c .cfa: sp 0 +
STACK CFI 11c44 .cfa: sp 480 +
STACK CFI 11c5c .cfa: x29 80 + x19: .cfa -8 + ^ x20: .cfa -16 + ^ x21: .cfa -24 + ^ x22: .cfa -32 + ^ x23: .cfa -40 + ^ x24: .cfa -48 + ^ x28: .cfa -64 + ^ .ra: .cfa -72 + ^ x29: .cfa -80 + ^
STACK CFI 12038 .cfa: sp 480 +
STACK CFI 12050 .cfa: sp 0 +
STACK CFI 12054 .cfa: x29 80 +
STACK CFI INIT 121ac 474 .cfa: sp 0 +
STACK CFI 121b0 .cfa: sp 224 +
STACK CFI 121cc .cfa: x29 96 + x19: .cfa -8 + ^ x20: .cfa -16 + ^ x21: .cfa -24 + ^ x22: .cfa -32 + ^ x23: .cfa -40 + ^ x24: .cfa -48 + ^ x25: .cfa -56 + ^ x26: .cfa -64 + ^ x27: .cfa -72 + ^ x28: .cfa -80 + ^ .ra: .cfa -88 + ^ x29: .cfa -96 + ^
STACK CFI 1242c .cfa: sp 224 +
STACK CFI 12448 .cfa: sp 0 +
STACK CFI 1244c .cfa: x29 96 +
STACK CFI 12518 .cfa: sp 224 +
STACK CFI 12534 .cfa: sp 0 +
STACK CFI 12538 .cfa: x29 96 +
STACK CFI INIT 12638 474 .cfa: sp 0 +
STACK CFI 1263c .cfa: sp 224 +
STACK CFI 12658 .cfa: x29 96 + x19: .cfa -8 + ^ x20: .cfa -16 + ^ x21: .cfa -24 + ^ x22: .cfa -32 + ^ x23: .cfa -40 + ^ x24: .cfa -48 + ^ x25: .cfa -56 + ^ x26: .cfa -64 + ^ x27: .cfa -72 + ^ x28: .cfa -80 + ^ .ra: .cfa -88 + ^ x29: .cfa -96 + ^
STACK CFI 128b8 .cfa: sp 224 +
STACK CFI 128d4 .cfa: sp 0 +
STACK CFI 128d8 .cfa: x29 96 +
STACK CFI 129a4 .cfa: sp 224 +
STACK CFI 129c0 .cfa: sp 0 +
STACK CFI 129c4 .cfa: x29 96 +
STACK CFI INIT 12ac4 384 .cfa: sp 0 +
STACK CFI 12ac8 .cfa: sp 192 +
STACK CFI 12ae4 .cfa: x29 96 + x19: .cfa -8 + ^ x20: .cfa -16 + ^ x21: .cfa -24 + ^ x22: .cfa -32 + ^ x23: .cfa -40 + ^ x24: .cfa -48 + ^ x25: .cfa -56 + ^ x26: .cfa -64 + ^ x27: .cfa -80 + ^ .ra: .cfa -88 + ^ x29: .cfa -96 + ^
STACK CFI 12d14 .cfa: sp 192 +
STACK CFI 12d30 .cfa: sp 0 +
STACK CFI 12d34 .cfa: x29 96 +
STACK CFI INIT 12e48 74 .cfa: sp 0 +
STACK CFI 12e4c .cfa: sp 48 +
STACK CFI 12e58 .cfa: x29 32 + x19: .cfa -8 + ^ x20: .cfa -16 + ^ .ra: .cfa -24 + ^ x29: .cfa -32 + ^
STACK CFI 12ea4 .cfa: sp 48 +
STACK CFI 12eb0 .cfa: sp 0 +
STACK CFI 12eb4 .cfa: x29 32 +
STACK CFI INIT 130f0 50 .cfa: sp 0 +
STACK CFI 130f4 .cfa: sp 32 +
STACK CFI 130fc .cfa: x29 32 + x19: .cfa -8 + ^ x20: .cfa -16 + ^ .ra: .cfa -24 + ^ x29: .cfa -32 + ^
STACK CFI INIT 134ec 344 .cfa: sp 0 +
STACK CFI 134f0 .cfa: sp 128 +
STACK CFI 1350c .cfa: x29 96 + x19: .cfa -8 + ^ x20: .cfa -16 + ^ x21: .cfa -24 + ^ x22: .cfa -32 + ^ x23: .cfa -40 + ^ x24: .cfa -48 + ^ x25: .cfa -56 + ^ x26: .cfa -64 + ^ x27: .cfa -72 + ^ x28: .cfa -80 + ^ .ra: .cfa -88 + ^ x29: .cfa -96 + ^
STACK CFI 13784 .cfa: sp 128 +
STACK CFI 137a0 .cfa: sp 0 +
STACK CFI 137a4 .cfa: x29 96 +
STACK CFI INIT 13834 164 .cfa: sp 0 +
STACK CFI 13838 .cfa: sp 112 +
STACK CFI 13848 .cfa: x29 48 + x19: .cfa -8 + ^ x20: .cfa -16 + ^ x21: .cfa -24 + ^ x22: .cfa -32 + ^ .ra: .cfa -40 + ^ x29: .cfa -48 + ^
STACK CFI 13934 .cfa: sp 112 +
STACK CFI 13944 .cfa: sp 0 +
STACK CFI 13948 .cfa: x29 48 +
STACK CFI INIT 13be0 3f0 .cfa: sp 0 +
STACK CFI 13be4 .cfa: sp 272 +
STACK CFI 13bf8 .cfa: x29 64 + x19: .cfa -8 + ^ x20: .cfa -16 + ^ x21: .cfa -24 + ^ x22: .cfa -32 + ^ x23: .cfa -40 + ^ x28: .cfa -48 + ^ .ra: .cfa -56 + ^ x29: .cfa -64 + ^
STACK CFI 13e94 .cfa: sp 272 +
STACK CFI 13ea8 .cfa: sp 0 +
STACK CFI 13eac .cfa: x29 64 +
STACK CFI INIT 14020 74 .cfa: sp 0 +
STACK CFI 14024 .cfa: sp 48 +
STACK CFI 14030 .cfa: x29 32 + x19: .cfa -8 + ^ x20: .cfa -16 + ^ .ra: .cfa -24 + ^ x29: .cfa -32 + ^
STACK CFI 1407c .cfa: sp 48 +
STACK CFI 14088 .cfa: sp 0 +
STACK CFI 1408c .cfa: x29 32 +
STACK CFI INIT 14114 154 .cfa: sp 0 +
STACK CFI 14118 .cfa: sp 384 +
STACK CFI 1412c .cfa: x29 64 + x19: .cfa -8 + ^ x20: .cfa -16 + ^ x21: .cfa -24 + ^ x22: .cfa -32 + ^ x23: .cfa -40 + ^ x28: .cfa -48 + ^ .ra: .cfa -56 + ^ x29: .cfa -64 + ^
STACK CFI 14210 .cfa: sp 384 +
STACK CFI 14224 .cfa: sp 0 +
STACK CFI 14228 .cfa: x29 64 +
STACK CFI INIT 14268 134 .cfa: sp 0 +
STACK CFI 1426c .cfa: sp 80 +
STACK CFI 14280 .cfa: x29 80 + x19: .cfa -8 + ^ x20: .cfa -16 + ^ x21: .cfa -24 + ^ x22: .cfa -32 + ^ x23: .cfa -40 + ^ x24: .cfa -48 + ^ x25: .cfa -56 + ^ x26: .cfa -64 + ^ .ra: .cfa -72 + ^ x29: .cfa -80 + ^
STACK CFI 14350 .cfa: sp 80 +
STACK CFI 14364 .cfa: sp 0 +
STACK CFI 14368 .cfa: x29 80 +
STACK CFI INIT 1441c 1a4 .cfa: sp 0 +
STACK CFI 14420 .cfa: sp 112 +
STACK CFI 14438 .cfa: x29 80 + x19: .cfa -8 + ^ x20: .cfa -16 + ^ x21: .cfa -24 + ^ x22: .cfa -32 + ^ x23: .cfa -40 + ^ x24: .cfa -48 + ^ x25: .cfa -56 + ^ x26: .cfa -64 + ^ .ra: .cfa -72 + ^ x29: .cfa -80 + ^
STACK CFI 14528 .cfa: sp 112 +
STACK CFI 14540 .cfa: sp 0 +
STACK CFI 14544 .cfa: x29 80 +
STACK CFI INIT 145c0 1ec .cfa: sp 0 +
STACK CFI 145c4 .cfa: sp 128 +
STACK CFI 145e0 .cfa: x29 96 + x19: .cfa -8 + ^ x20: .cfa -16 + ^ x21: .cfa -24 + ^ x22: .cfa -32 + ^ x23: .cfa -40 + ^ x24: .cfa -48 + ^ x25: .cfa -56 + ^ x26: .cfa -64 + ^ x27: .cfa -80 + ^ .ra: .cfa -88 + ^ x29: .cfa -96 + ^
STACK CFI 1475c .cfa: sp 128 +
STACK CFI 14778 .cfa: sp 0 +
STACK CFI 1477c .cfa: x29 96 +
STACK CFI INIT 147ac 170 .cfa: sp 0 +
STACK CFI 147b0 .cfa: sp 48 +
STACK CFI 147bc .cfa: x29 48 + x19: .cfa -8 + ^ x20: .cfa -16 + ^ x21: .cfa -32 + ^ .ra: .cfa -40 + ^ x29: .cfa -48 + ^
STACK CFI 148f0 .cfa: sp 48 +
STACK CFI 148fc .cfa: sp 0 +
STACK CFI 14900 .cfa: x29 48 +
STACK CFI INIT 14aec 1b0 .cfa: sp 0 +
STACK CFI 14af0 .cfa: sp 128 +
STACK CFI 14b08 .cfa: x29 80 + x19: .cfa -8 + ^ x20: .cfa -16 + ^ x21: .cfa -24 + ^ x22: .cfa -32 + ^ x23: .cfa -40 + ^ x24: .cfa -48 + ^ x25: .cfa -64 + ^ .ra: .cfa -72 + ^ x29: .cfa -80 + ^
STACK CFI 14c2c .cfa: sp 128 +
STACK CFI 14c44 .cfa: sp 0 +
STACK CFI 14c48 .cfa: x29 80 +
STACK CFI INIT 15380 528 .cfa: sp 0 +
STACK CFI 15384 .cfa: sp 192 +
STACK CFI 153a0 .cfa: x29 96 + x19: .cfa -8 + ^ x20: .cfa -16 + ^ x21: .cfa -24 + ^ x22: .cfa -32 + ^ x23: .cfa -40 + ^ x24: .cfa -48 + ^ x25: .cfa -56 + ^ x26: .cfa -64 + ^ x27: .cfa -72 + ^ x28: .cfa -80 + ^ .ra: .cfa -88 + ^ x29: .cfa -96 + ^
STACK CFI 154dc .cfa: sp 192 +
STACK CFI 154f8 .cfa: sp 0 +
STACK CFI 154fc .cfa: x29 96 +
STACK CFI 1580c .cfa: sp 192 +
STACK CFI 15828 .cfa: sp 0 +
STACK CFI 1582c .cfa: x29 96 +
STACK CFI INIT 15e04 630 .cfa: sp 0 +
STACK CFI 15e08 .cfa: sp 224 +
STACK CFI 15e20 .cfa: x29 80 + x19: .cfa -8 + ^ x20: .cfa -16 + ^ x21: .cfa -24 + ^ x22: .cfa -32 + ^ x23: .cfa -40 + ^ x24: .cfa -48 + ^ x25: .cfa -64 + ^ .ra: .cfa -72 + ^ x29: .cfa -80 + ^
STACK CFI 16244 .cfa: sp 224 +
STACK CFI 1625c .cfa: sp 0 +
STACK CFI 16260 .cfa: x29 80 +
STACK CFI INIT 16438 1c4 .cfa: sp 0 +
STACK CFI 1643c .cfa: sp 96 +
STACK CFI 16450 .cfa: x29 64 + x19: .cfa -8 + ^ x20: .cfa -16 + ^ x21: .cfa -24 + ^ x22: .cfa -32 + ^ x23: .cfa -48 + ^ .ra: .cfa -56 + ^ x29: .cfa -64 + ^
STACK CFI 16588 .cfa: sp 96 +
STACK CFI 1659c .cfa: sp 0 +
STACK CFI 165a0 .cfa: x29 64 +
STACK CFI INIT 165fc 2d8 .cfa: sp 0 +
STACK CFI 16600 .cfa: sp 144 +
STACK CFI 16610 .cfa: x29 48 + x19: .cfa -8 + ^ x20: .cfa -16 + ^ x21: .cfa -32 + ^ .ra: .cfa -40 + ^ x29: .cfa -48 + ^
STACK CFI 1683c .cfa: sp 144 +
STACK CFI 1684c .cfa: sp 0 +
STACK CFI 16850 .cfa: x29 48 +
STACK CFI INIT 168d4 188 .cfa: sp 0 +
STACK CFI 168d8 .cfa: sp 160 +
STACK CFI 168e8 .cfa: x29 48 + x19: .cfa -8 + ^ x20: .cfa -16 + ^ x21: .cfa -32 + ^ .ra: .cfa -40 + ^ x29: .cfa -48 + ^
STACK CFI 169fc .cfa: sp 160 +
STACK CFI 16a0c .cfa: sp 0 +
STACK CFI 16a10 .cfa: x29 48 +
STACK CFI INIT 16a5c 74 .cfa: sp 0 +
STACK CFI 16a60 .cfa: sp 48 +
STACK CFI 16a6c .cfa: x29 32 + x19: .cfa -8 + ^ x20: .cfa -16 + ^ .ra: .cfa -24 + ^ x29: .cfa -32 + ^
STACK CFI 16ab8 .cfa: sp 48 +
STACK CFI 16ac4 .cfa: sp 0 +
STACK CFI 16ac8 .cfa: x29 32 +
STACK CFI INIT 16b44 d0 .cfa: sp 0 +
STACK CFI 16b48 .cfa: sp 64 +
STACK CFI 16b54 .cfa: x29 32 + x19: .cfa -8 + ^ x20: .cfa -16 + ^ .ra: .cfa -24 + ^ x29: .cfa -32 + ^
STACK CFI 16bd4 .cfa: sp 64 +
STACK CFI 16be0 .cfa: sp 0 +
STACK CFI 16be4 .cfa: x29 32 +
STACK CFI INIT 16c3c 118 .cfa: sp 0 +
STACK CFI 16c40 .cfa: sp 80 +
STACK CFI 16c50 .cfa: x29 48 + x19: .cfa -8 + ^ x20: .cfa -16 + ^ x21: .cfa -32 + ^ .ra: .cfa -40 + ^ x29: .cfa -48 + ^
STACK CFI 16cd4 .cfa: sp 80 +
STACK CFI 16ce4 .cfa: sp 0 +
STACK CFI 16ce8 .cfa: x29 48 +
STACK CFI INIT 16d54 634 .cfa: sp 0 +
STACK CFI 16d58 .cfa: sp 224 +
STACK CFI 16d78 .cfa: x29 96 + x19: .cfa -8 + ^ x20: .cfa -16 + ^ x21: .cfa -24 + ^ x22: .cfa -32 + ^ x23: .cfa -40 + ^ x24: .cfa -48 + ^ x25: .cfa -56 + ^ x26: .cfa -64 + ^ x27: .cfa -72 + ^ x28: .cfa -80 + ^ .ra: .cfa -88 + ^ x29: .cfa -96 + ^ v8: .cfa -112 + ^
STACK CFI 1724c .cfa: sp 224 +
STACK CFI 1726c .cfa: sp 0 +
STACK CFI 17270 .cfa: x29 96 +
STACK CFI INIT 17570 2d4 .cfa: sp 0 +
STACK CFI 17574 .cfa: sp 128 +
STACK CFI 17584 .cfa: x29 48 + x19: .cfa -8 + ^ x20: .cfa -16 + ^ x21: .cfa -32 + ^ .ra: .cfa -40 + ^ x29: .cfa -48 + ^
STACK CFI 177a4 .cfa: sp 128 +
STACK CFI 177b4 .cfa: sp 0 +
STACK CFI 177b8 .cfa: x29 48 +
STACK CFI INIT 17884 50 .cfa: sp 0 +
STACK CFI 17888 .cfa: sp 32 +
STACK CFI 17890 .cfa: x29 32 + x19: .cfa -8 + ^ x20: .cfa -16 + ^ .ra: .cfa -24 + ^ x29: .cfa -32 + ^
STACK CFI INIT 17998 2d84 .cfa: sp 0 +
STACK CFI 1799c .cfa: sp 96 +
STACK CFI 179b4 .cfa: x29 96 + x19: .cfa -8 + ^ x20: .cfa -16 + ^ x21: .cfa -24 + ^ x22: .cfa -32 + ^ x23: .cfa -40 + ^ x24: .cfa -48 + ^ x25: .cfa -56 + ^ x26: .cfa -64 + ^ x27: .cfa -72 + ^ x28: .cfa -80 + ^ .ra: .cfa -88 + ^ x29: .cfa -96 + ^
STACK CFI 1a2b4 .cfa: sp 96 +
STACK CFI 1a2cc .cfa: sp 0 +
STACK CFI 1a2d0 .cfa: x29 96 +
STACK CFI INIT 1a76c 14c .cfa: sp 0 +
STACK CFI 1a770 .cfa: sp 48 +
STACK CFI 1a77c .cfa: x29 48 + x19: .cfa -8 + ^ x20: .cfa -16 + ^ x21: .cfa -24 + ^ x28: .cfa -32 + ^ .ra: .cfa -40 + ^ x29: .cfa -48 + ^
STACK CFI 1a864 .cfa: sp 48 +
STACK CFI 1a870 .cfa: sp 0 +
STACK CFI 1a874 .cfa: x29 48 +
STACK CFI INIT 1a938 6c4 .cfa: sp 0 +
STACK CFI 1a93c .cfa: sp 112 +
STACK CFI 1a958 .cfa: x29 96 + x19: .cfa -8 + ^ x20: .cfa -16 + ^ x21: .cfa -24 + ^ x22: .cfa -32 + ^ x23: .cfa -40 + ^ x24: .cfa -48 + ^ x25: .cfa -56 + ^ x26: .cfa -64 + ^ x27: .cfa -72 + ^ x28: .cfa -80 + ^ .ra: .cfa -88 + ^ x29: .cfa -96 + ^
STACK CFI 1aa9c .cfa: sp 112 +
STACK CFI 1aab8 .cfa: sp 0 +
STACK CFI 1aabc .cfa: x29 96 +
STACK CFI 1aac8 .cfa: sp 112 +
STACK CFI 1aae4 .cfa: sp 0 +
STACK CFI 1aae8 .cfa: x29 96 +
STACK CFI 1af84 .cfa: sp 112 +
STACK CFI 1afa0 .cfa: sp 0 +
STACK CFI 1afa4 .cfa: x29 96 +
STACK CFI INIT 1affc 4c .cfa: sp 0 +
STACK CFI 1b000 .cfa: sp 32 +
STACK CFI 1b008 .cfa: x29 32 + x19: .cfa -8 + ^ x20: .cfa -16 + ^ .ra: .cfa -24 + ^ x29: .cfa -32 + ^
STACK CFI INIT 1b5cc 4c .cfa: sp 0 +
STACK CFI 1b5d0 .cfa: sp 32 +
STACK CFI 1b5d8 .cfa: x29 32 + x19: .cfa -8 + ^ x20: .cfa -16 + ^ .ra: .cfa -24 + ^ x29: .cfa -32 + ^
STACK CFI INIT 1b730 364 .cfa: sp 0 +
STACK CFI 1b734 .cfa: sp 144 +
STACK CFI 1b748 .cfa: x29 64 + x19: .cfa -8 + ^ x20: .cfa -16 + ^ x21: .cfa -24 + ^ x22: .cfa -32 + ^ x23: .cfa -48 + ^ .ra: .cfa -56 + ^ x29: .cfa -64 + ^
STACK CFI 1b8dc .cfa: sp 144 +
STACK CFI 1b8f0 .cfa: sp 0 +
STACK CFI 1b8f4 .cfa: x29 64 +
STACK CFI INIT 1ba94 644 .cfa: sp 0 +
STACK CFI 1ba98 .cfa: sp 64 +
STACK CFI 1baa8 .cfa: x29 64 + x19: .cfa -8 + ^ x20: .cfa -16 + ^ x21: .cfa -24 + ^ x22: .cfa -32 + ^ x23: .cfa -48 + ^ .ra: .cfa -56 + ^ x29: .cfa -64 + ^
STACK CFI 1bb14 .cfa: sp 64 +
STACK CFI 1bb24 .cfa: sp 0 +
STACK CFI 1bb28 .cfa: x29 64 +
STACK CFI 1bb78 .cfa: sp 64 +
STACK CFI 1bb88 .cfa: sp 0 +
STACK CFI 1bb8c .cfa: x29 64 +
STACK CFI 1bc08 .cfa: sp 64 +
STACK CFI 1bc18 .cfa: sp 0 +
STACK CFI 1bc1c .cfa: x29 64 +
STACK CFI 1bd0c .cfa: sp 64 +
STACK CFI 1bd1c .cfa: sp 0 +
STACK CFI 1bd20 .cfa: x29 64 +
STACK CFI 1bdb0 .cfa: sp 64 +
STACK CFI 1bdc0 .cfa: sp 0 +
STACK CFI 1bdc4 .cfa: x29 64 +
STACK CFI 1bddc .cfa: sp 64 +
STACK CFI 1bdec .cfa: sp 0 +
STACK CFI 1bdf0 .cfa: x29 64 +
STACK CFI 1bf78 .cfa: sp 64 +
STACK CFI 1bf88 .cfa: sp 0 +
STACK CFI 1bf8c .cfa: x29 64 +
STACK CFI 1bfa0 .cfa: sp 64 +
STACK CFI 1bfb0 .cfa: sp 0 +
STACK CFI 1bfb4 .cfa: x29 64 +
STACK CFI 1c03c .cfa: sp 64 +
STACK CFI 1c04c .cfa: sp 0 +
STACK CFI 1c050 .cfa: x29 64 +
STACK CFI INIT 1c4cc 6c .cfa: sp 0 +
STACK CFI 1c4d0 .cfa: sp 32 +
STACK CFI 1c4d8 .cfa: x29 32 + x19: .cfa -8 + ^ x20: .cfa -16 + ^ .ra: .cfa -24 + ^ x29: .cfa -32 + ^
STACK CFI 1c518 .cfa: sp 32 +
STACK CFI 1c520 .cfa: sp 0 +
STACK CFI 1c524 .cfa: x29 32 +
STACK CFI INIT 1c5ec 4c .cfa: sp 0 +
STACK CFI 1c5f0 .cfa: sp 32 +
STACK CFI 1c5f8 .cfa: x29 32 + x19: .cfa -8 + ^ x20: .cfa -16 + ^ .ra: .cfa -24 + ^ x29: .cfa -32 + ^
STACK CFI INIT 1ca60 1d0 .cfa: sp 0 +
STACK CFI 1ca64 .cfa: sp 176 +
STACK CFI 1ca74 .cfa: x29 48 + x19: .cfa -8 + ^ x20: .cfa -16 + ^ x21: .cfa -24 + ^ x22: .cfa -32 + ^ .ra: .cfa -40 + ^ x29: .cfa -48 + ^
STACK CFI 1cbc8 .cfa: sp 176 +
STACK CFI 1cbd8 .cfa: sp 0 +
STACK CFI 1cbdc .cfa: x29 48 +
STACK CFI 1cbec .cfa: sp 176 +
STACK CFI 1cbfc .cfa: sp 0 +
STACK CFI 1cc00 .cfa: x29 48 +
STACK CFI INIT 1cc30 44c .cfa: sp 0 +
STACK CFI 1cc34 .cfa: sp 256 +
STACK CFI 1cc50 .cfa: x29 96 + x19: .cfa -8 + ^ x20: .cfa -16 + ^ x21: .cfa -24 + ^ x22: .cfa -32 + ^ x23: .cfa -40 + ^ x24: .cfa -48 + ^ x25: .cfa -56 + ^ x26: .cfa -64 + ^ x27: .cfa -72 + ^ x28: .cfa -80 + ^ .ra: .cfa -88 + ^ x29: .cfa -96 + ^
STACK CFI 1cf80 .cfa: sp 256 +
STACK CFI 1cf9c .cfa: sp 0 +
STACK CFI 1cfa0 .cfa: x29 96 +
STACK CFI INIT 1d29c 4c .cfa: sp 0 +
STACK CFI 1d2a0 .cfa: sp 32 +
STACK CFI 1d2a8 .cfa: x29 32 + x19: .cfa -8 + ^ x20: .cfa -16 + ^ .ra: .cfa -24 + ^ x29: .cfa -32 + ^
STACK CFI INIT 1d2e8 170 .cfa: sp 0 +
STACK CFI 1d2ec .cfa: sp 80 +
STACK CFI 1d300 .cfa: x29 80 + x19: .cfa -8 + ^ x20: .cfa -16 + ^ x21: .cfa -24 + ^ x22: .cfa -32 + ^ x23: .cfa -40 + ^ x24: .cfa -48 + ^ x25: .cfa -64 + ^ .ra: .cfa -72 + ^ x29: .cfa -80 + ^
STACK CFI 1d3f4 .cfa: sp 80 +
STACK CFI 1d408 .cfa: sp 0 +
STACK CFI 1d40c .cfa: x29 80 +
STACK CFI INIT 1d458 4c .cfa: sp 0 +
STACK CFI 1d45c .cfa: sp 32 +
STACK CFI 1d464 .cfa: x29 32 + x19: .cfa -8 + ^ x20: .cfa -16 + ^ .ra: .cfa -24 + ^ x29: .cfa -32 + ^
STACK CFI INIT 1d9e0 1114 .cfa: sp 0 +
STACK CFI 1d9e4 .cfa: sp 432 +
STACK CFI 1da00 .cfa: x29 96 + x19: .cfa -8 + ^ x20: .cfa -16 + ^ x21: .cfa -24 + ^ x22: .cfa -32 + ^ x23: .cfa -40 + ^ x24: .cfa -48 + ^ x25: .cfa -56 + ^ x26: .cfa -64 + ^ x27: .cfa -72 + ^ x28: .cfa -80 + ^ .ra: .cfa -88 + ^ x29: .cfa -96 + ^
STACK CFI 1e808 .cfa: sp 432 +
STACK CFI 1e824 .cfa: sp 0 +
STACK CFI 1e828 .cfa: x29 96 +
STACK CFI INIT 1eaf4 4c .cfa: sp 0 +
STACK CFI 1eaf8 .cfa: sp 32 +
STACK CFI 1eb00 .cfa: x29 32 + x19: .cfa -8 + ^ x20: .cfa -16 + ^ .ra: .cfa -24 + ^ x29: .cfa -32 + ^
STACK CFI INIT 1eb88 4c .cfa: sp 0 +
STACK CFI 1eb8c .cfa: sp 32 +
STACK CFI 1eb94 .cfa: x29 32 + x19: .cfa -8 + ^ x20: .cfa -16 + ^ .ra: .cfa -24 + ^ x29: .cfa -32 + ^
STACK CFI INIT 1f0e0 140 .cfa: sp 0 +
STACK CFI 1f0e4 .cfa: sp 48 +
STACK CFI 1f0f0 .cfa: x29 48 + x19: .cfa -8 + ^ x20: .cfa -16 + ^ x21: .cfa -32 + ^ .ra: .cfa -40 + ^ x29: .cfa -48 + ^
STACK CFI 1f1d0 .cfa: sp 48 +
STACK CFI 1f1dc .cfa: sp 0 +
STACK CFI 1f1e0 .cfa: x29 48 +
STACK CFI INIT 1f220 4c .cfa: sp 0 +
STACK CFI 1f224 .cfa: sp 32 +
STACK CFI 1f22c .cfa: x29 32 + x19: .cfa -8 + ^ x20: .cfa -16 + ^ .ra: .cfa -24 + ^ x29: .cfa -32 + ^
STACK CFI INIT 1fb70 1d8 .cfa: sp 0 +
STACK CFI 1fb74 .cfa: sp 128 +
STACK CFI 1fb8c .cfa: x29 80 + x19: .cfa -8 + ^ x20: .cfa -16 + ^ x21: .cfa -24 + ^ x22: .cfa -32 + ^ x23: .cfa -40 + ^ x24: .cfa -48 + ^ x25: .cfa -64 + ^ .ra: .cfa -72 + ^ x29: .cfa -80 + ^
STACK CFI 1fc7c .cfa: sp 128 +
STACK CFI 1fc94 .cfa: sp 0 +
STACK CFI 1fc98 .cfa: x29 80 +
STACK CFI INIT 1ff6c c34 .cfa: sp 0 +
STACK CFI 1ff70 .cfa: sp 256 +
STACK CFI 1ff8c .cfa: x29 96 + x19: .cfa -8 + ^ x20: .cfa -16 + ^ x21: .cfa -24 + ^ x22: .cfa -32 + ^ x23: .cfa -40 + ^ x24: .cfa -48 + ^ x25: .cfa -56 + ^ x26: .cfa -64 + ^ x27: .cfa -72 + ^ x28: .cfa -80 + ^ .ra: .cfa -88 + ^ x29: .cfa -96 + ^
STACK CFI 20924 .cfa: sp 256 +
STACK CFI 20940 .cfa: sp 0 +
STACK CFI 20944 .cfa: x29 96 +
STACK CFI INIT 20be4 1d4 .cfa: sp 0 +
STACK CFI 20be8 .cfa: sp 112 +
STACK CFI 20c00 .cfa: x29 80 + x19: .cfa -8 + ^ x20: .cfa -16 + ^ x21: .cfa -24 + ^ x22: .cfa -32 + ^ x23: .cfa -40 + ^ x24: .cfa -48 + ^ x25: .cfa -56 + ^ x26: .cfa -64 + ^ .ra: .cfa -72 + ^ x29: .cfa -80 + ^
STACK CFI 20d3c .cfa: sp 112 +
STACK CFI 20d54 .cfa: sp 0 +
STACK CFI 20d58 .cfa: x29 80 +
STACK CFI INIT 20dcc 4c .cfa: sp 0 +
STACK CFI 20dd0 .cfa: sp 32 +
STACK CFI 20dd8 .cfa: x29 32 + x19: .cfa -8 + ^ x20: .cfa -16 + ^ .ra: .cfa -24 + ^ x29: .cfa -32 + ^
STACK CFI INIT 21804 4c .cfa: sp 0 +
STACK CFI 21808 .cfa: sp 32 +
STACK CFI 21810 .cfa: x29 32 + x19: .cfa -8 + ^ x20: .cfa -16 + ^ .ra: .cfa -24 + ^ x29: .cfa -32 + ^
STACK CFI INIT 21850 2c8 .cfa: sp 0 +
STACK CFI 21854 .cfa: sp 144 +
STACK CFI 2186c .cfa: x29 80 + x19: .cfa -8 + ^ x20: .cfa -16 + ^ x21: .cfa -24 + ^ x22: .cfa -32 + ^ x23: .cfa -40 + ^ x24: .cfa -48 + ^ x25: .cfa -56 + ^ x26: .cfa -64 + ^ .ra: .cfa -72 + ^ x29: .cfa -80 + ^
STACK CFI 21a84 .cfa: sp 144 +
STACK CFI 21a9c .cfa: sp 0 +
STACK CFI 21aa0 .cfa: x29 80 +
STACK CFI INIT 21b18 4c .cfa: sp 0 +
STACK CFI 21b1c .cfa: sp 32 +
STACK CFI 21b24 .cfa: x29 32 + x19: .cfa -8 + ^ x20: .cfa -16 + ^ .ra: .cfa -24 + ^ x29: .cfa -32 + ^
STACK CFI INIT 21b64 1c4 .cfa: sp 0 +
STACK CFI 21b68 .cfa: sp 112 +
STACK CFI 21b80 .cfa: x29 80 + x19: .cfa -8 + ^ x20: .cfa -16 + ^ x21: .cfa -24 + ^ x22: .cfa -32 + ^ x23: .cfa -40 + ^ x24: .cfa -48 + ^ x25: .cfa -64 + ^ .ra: .cfa -72 + ^ x29: .cfa -80 + ^
STACK CFI 21cc4 .cfa: sp 112 +
STACK CFI 21cdc .cfa: sp 0 +
STACK CFI 21ce0 .cfa: x29 80 +
STACK CFI INIT 21d28 4c .cfa: sp 0 +
STACK CFI 21d2c .cfa: sp 32 +
STACK CFI 21d34 .cfa: x29 32 + x19: .cfa -8 + ^ x20: .cfa -16 + ^ .ra: .cfa -24 + ^ x29: .cfa -32 + ^
STACK CFI INIT 2203c 140 .cfa: sp 0 +
STACK CFI 22040 .cfa: sp 96 +
STACK CFI 22058 .cfa: x29 96 + x19: .cfa -8 + ^ x20: .cfa -16 + ^ x21: .cfa -24 + ^ x22: .cfa -32 + ^ x23: .cfa -40 + ^ x24: .cfa -48 + ^ x25: .cfa -56 + ^ x26: .cfa -64 + ^ x27: .cfa -72 + ^ x28: .cfa -80 + ^ .ra: .cfa -88 + ^ x29: .cfa -96 + ^
STACK CFI 22114 .cfa: sp 96 +
STACK CFI 2212c .cfa: sp 0 +
STACK CFI 22130 .cfa: x29 96 +
STACK CFI INIT 2217c 4c .cfa: sp 0 +
STACK CFI 22180 .cfa: sp 32 +
STACK CFI 22188 .cfa: x29 32 + x19: .cfa -8 + ^ x20: .cfa -16 + ^ .ra: .cfa -24 + ^ x29: .cfa -32 + ^
STACK CFI INIT 221c8 4c .cfa: sp 0 +
STACK CFI 221cc .cfa: sp 32 +
STACK CFI 221d4 .cfa: x29 32 + x19: .cfa -8 + ^ x20: .cfa -16 + ^ .ra: .cfa -24 + ^ x29: .cfa -32 + ^
STACK CFI INIT 226a4 4c .cfa: sp 0 +
STACK CFI 226a8 .cfa: sp 32 +
STACK CFI 226b0 .cfa: x29 32 + x19: .cfa -8 + ^ x20: .cfa -16 + ^ .ra: .cfa -24 + ^ x29: .cfa -32 + ^
STACK CFI INIT 23284 5d8 .cfa: sp 0 +
STACK CFI 23288 .cfa: sp 112 +
STACK CFI 232a4 .cfa: x29 96 + x19: .cfa -8 + ^ x20: .cfa -16 + ^ x21: .cfa -24 + ^ x22: .cfa -32 + ^ x23: .cfa -40 + ^ x24: .cfa -48 + ^ x25: .cfa -56 + ^ x26: .cfa -64 + ^ x27: .cfa -80 + ^ .ra: .cfa -88 + ^ x29: .cfa -96 + ^
STACK CFI 233fc .cfa: sp 112 +
STACK CFI 23418 .cfa: sp 0 +
STACK CFI 2341c .cfa: x29 96 +
STACK CFI 23744 .cfa: sp 112 +
STACK CFI 23760 .cfa: sp 0 +
STACK CFI 23764 .cfa: x29 96 +
STACK CFI INIT 23ec0 dc .cfa: sp 0 +
STACK CFI 23ec4 .cfa: sp 32 +
STACK CFI 23ecc .cfa: x29 32 + x19: .cfa -16 + ^ .ra: .cfa -24 + ^ x29: .cfa -32 + ^
STACK CFI 23f58 .cfa: sp 32 +
STACK CFI 23f60 .cfa: sp 0 +
STACK CFI 23f64 .cfa: x29 32 +
STACK CFI INIT 24060 134 .cfa: sp 0 +
STACK CFI 24064 .cfa: sp 80 +
STACK CFI 24070 .cfa: x29 32 + x19: .cfa -8 + ^ x20: .cfa -16 + ^ .ra: .cfa -24 + ^ x29: .cfa -32 + ^
STACK CFI 240a0 .cfa: sp 80 +
STACK CFI 240ac .cfa: sp 0 +
STACK CFI 240b0 .cfa: x29 32 +
STACK CFI INIT 24194 78 .cfa: sp 0 +
STACK CFI 24198 .cfa: sp 32 +
STACK CFI 241a0 .cfa: x29 32 + x19: .cfa -8 + ^ x20: .cfa -16 + ^ .ra: .cfa -24 + ^ x29: .cfa -32 + ^
STACK CFI 241ac .cfa: sp 32 +
STACK CFI 241b4 .cfa: sp 0 +
STACK CFI 241b8 .cfa: x29 32 +
STACK CFI INIT 2420c 74 .cfa: sp 0 +
STACK CFI 24210 .cfa: sp 48 +
STACK CFI 2421c .cfa: x29 32 + x19: .cfa -8 + ^ x20: .cfa -16 + ^ .ra: .cfa -24 + ^ x29: .cfa -32 + ^
STACK CFI 24268 .cfa: sp 48 +
STACK CFI 24274 .cfa: sp 0 +
STACK CFI 24278 .cfa: x29 32 +
STACK CFI INIT 24308 25c .cfa: sp 0 +
STACK CFI 2430c .cfa: sp 128 +
STACK CFI 2431c .cfa: x29 48 + x19: .cfa -8 + ^ x20: .cfa -16 + ^ x21: .cfa -32 + ^ .ra: .cfa -40 + ^ x29: .cfa -48 + ^
STACK CFI 24404 .cfa: sp 128 +
STACK CFI 24414 .cfa: sp 0 +
STACK CFI 24418 .cfa: x29 48 +
STACK CFI INIT 24588 1b8 .cfa: sp 0 +
STACK CFI 2458c .cfa: sp 160 +
STACK CFI 245a8 .cfa: x29 72 + x19: .cfa -8 + ^ x20: .cfa -16 + ^ x21: .cfa -24 + ^ x22: .cfa -32 + ^ x23: .cfa -40 + ^ x24: .cfa -48 + ^ x25: .cfa -56 + ^ .ra: .cfa -64 + ^ x29: .cfa -72 + ^ v8: .cfa -80 + ^
STACK CFI 2462c .cfa: sp 160 +
STACK CFI 24648 .cfa: sp 0 +
STACK CFI 2464c .cfa: x29 72 +
STACK CFI INIT 24740 3d0 .cfa: sp 0 +
STACK CFI 24744 .cfa: sp 96 +
STACK CFI 2475c .cfa: x29 80 + x19: .cfa -8 + ^ x20: .cfa -16 + ^ x21: .cfa -24 + ^ x22: .cfa -32 + ^ x23: .cfa -40 + ^ x24: .cfa -48 + ^ x25: .cfa -64 + ^ .ra: .cfa -72 + ^ x29: .cfa -80 + ^
STACK CFI 24a8c .cfa: sp 96 +
STACK CFI 24aa4 .cfa: sp 0 +
STACK CFI 24aa8 .cfa: x29 80 +
STACK CFI INIT 24b10 ac .cfa: sp 0 +
STACK CFI 24b14 .cfa: sp 64 +
STACK CFI 24b24 .cfa: x29 48 + x19: .cfa -8 + ^ x20: .cfa -16 + ^ x21: .cfa -32 + ^ .ra: .cfa -40 + ^ x29: .cfa -48 + ^
STACK CFI 24b80 .cfa: sp 64 +
STACK CFI 24b90 .cfa: sp 0 +
STACK CFI 24b94 .cfa: x29 48 +
STACK CFI INIT 24bd4 2a0 .cfa: sp 0 +
STACK CFI 24bd8 .cfa: sp 144 +
STACK CFI 24bec .cfa: x29 64 + x19: .cfa -8 + ^ x20: .cfa -16 + ^ x21: .cfa -24 + ^ x22: .cfa -32 + ^ x23: .cfa -48 + ^ .ra: .cfa -56 + ^ x29: .cfa -64 + ^
STACK CFI 24d20 .cfa: sp 144 +
STACK CFI 24d34 .cfa: sp 0 +
STACK CFI 24d38 .cfa: x29 64 +
STACK CFI INIT 24e74 4f4 .cfa: sp 0 +
STACK CFI 24e78 .cfa: sp 144 +
STACK CFI 24e8c .cfa: x29 64 + x19: .cfa -8 + ^ x20: .cfa -16 + ^ x21: .cfa -24 + ^ x22: .cfa -32 + ^ x23: .cfa -48 + ^ .ra: .cfa -56 + ^ x29: .cfa -64 + ^
STACK CFI 251c0 .cfa: sp 144 +
STACK CFI 251d4 .cfa: sp 0 +
STACK CFI 251d8 .cfa: x29 64 +
STACK CFI INIT 25368 154 .cfa: sp 0 +
STACK CFI 2536c .cfa: sp 384 +
STACK CFI 25380 .cfa: x29 64 + x19: .cfa -8 + ^ x20: .cfa -16 + ^ x21: .cfa -24 + ^ x22: .cfa -32 + ^ x23: .cfa -40 + ^ x28: .cfa -48 + ^ .ra: .cfa -56 + ^ x29: .cfa -64 + ^
STACK CFI 25464 .cfa: sp 384 +
STACK CFI 25478 .cfa: sp 0 +
STACK CFI 2547c .cfa: x29 64 +
STACK CFI INIT 254bc 168 .cfa: sp 0 +
STACK CFI 254c0 .cfa: sp 384 +
STACK CFI 254d4 .cfa: x29 64 + x19: .cfa -8 + ^ x20: .cfa -16 + ^ x21: .cfa -24 + ^ x22: .cfa -32 + ^ x23: .cfa -40 + ^ x28: .cfa -48 + ^ .ra: .cfa -56 + ^ x29: .cfa -64 + ^
STACK CFI 255cc .cfa: sp 384 +
STACK CFI 255e0 .cfa: sp 0 +
STACK CFI 255e4 .cfa: x29 64 +
STACK CFI INIT 2563c 50c .cfa: sp 0 +
STACK CFI 25640 .cfa: sp 64 +
STACK CFI 25650 .cfa: x29 64 + x19: .cfa -8 + ^ x20: .cfa -16 + ^ x21: .cfa -24 + ^ x22: .cfa -32 + ^ x23: .cfa -40 + ^ x24: .cfa -48 + ^ .ra: .cfa -56 + ^ x29: .cfa -64 + ^
STACK CFI 25770 .cfa: sp 64 +
STACK CFI 25780 .cfa: sp 0 +
STACK CFI 25784 .cfa: x29 64 +
STACK CFI 25b1c .cfa: sp 64 +
STACK CFI 25b2c .cfa: sp 0 +
STACK CFI 25b30 .cfa: x29 64 +
