MODULE Linux arm64 B232EBA44E012D87AB6A22629032E9F10 dasshu.better-gauntlets.android64.so
INFO CODE_ID A4EB32B2014E872DAB6A22629032E9F17F0FB267
INFO GENERATOR mozilla/dump_syms 2.3.4
PUBLIC 13970 0 __on_dlclose
PUBLIC 13980 0 __emutls_unregister_key
PUBLIC 13988 0 __on_dlclose_late
PUBLIC 13990 0 __atexit_handler_wrapper
PUBLIC 139a4 0 atexit
PUBLIC 139c0 0 pthread_atfork
PUBLIC 139d0 0 unwind_phase2
PUBLIC 13b04 0 _Unwind_Resume
PUBLIC 13b88 0 unwind_phase2_forced
PUBLIC m 13c7c 0 __unw_init_local
PUBLIC m 13d24 0 __unw_get_reg
PUBLIC 13da0 0 __unw_step_stage2
PUBLIC m 13db4 0 __unw_get_proc_info
PUBLIC m 13df4 0 __unw_resume
PUBLIC 13e1c 0 libunwind::CFI_Parser<libunwind::LocalAddressSpace>::decodeFDE(libunwind::LocalAddressSpace&, unsigned long, libunwind::CFI_Parser<libunwind::LocalAddressSpace>::FDE_Info*, libunwind::CFI_Parser<libunwind::LocalAddressSpace>::CIE_Info*, bool)
PUBLIC 13fac 0 libunwind::CFI_Parser<libunwind::LocalAddressSpace>::parseCIE(libunwind::LocalAddressSpace&, unsigned long, libunwind::CFI_Parser<libunwind::LocalAddressSpace>::CIE_Info*)
PUBLIC 14274 0 libunwind::AbstractUnwindCursor::~AbstractUnwindCursor()
PUBLIC 1427c 0 libunwind::UnwindCursor<libunwind::LocalAddressSpace, libunwind::Registers_arm64>::~UnwindCursor()
PUBLIC 14284 0 libunwind::UnwindCursor<libunwind::LocalAddressSpace, libunwind::Registers_arm64>::validReg(int)
PUBLIC 142c8 0 libunwind::UnwindCursor<libunwind::LocalAddressSpace, libunwind::Registers_arm64>::getReg(int)
PUBLIC 143b0 0 libunwind::UnwindCursor<libunwind::LocalAddressSpace, libunwind::Registers_arm64>::setReg(int, unsigned long)
PUBLIC 14498 0 libunwind::UnwindCursor<libunwind::LocalAddressSpace, libunwind::Registers_arm64>::validFloatReg(int)
PUBLIC 144ac 0 libunwind::UnwindCursor<libunwind::LocalAddressSpace, libunwind::Registers_arm64>::getFloatReg(int)
PUBLIC 144bc 0 libunwind::UnwindCursor<libunwind::LocalAddressSpace, libunwind::Registers_arm64>::setFloatReg(int, double)
PUBLIC 144cc 0 libunwind::UnwindCursor<libunwind::LocalAddressSpace, libunwind::Registers_arm64>::step(bool)
PUBLIC 145bc 0 libunwind::UnwindCursor<libunwind::LocalAddressSpace, libunwind::Registers_arm64>::getInfo(unw_proc_info_t*)
PUBLIC 14600 0 libunwind::UnwindCursor<libunwind::LocalAddressSpace, libunwind::Registers_arm64>::jumpto()
PUBLIC 1460c 0 libunwind::UnwindCursor<libunwind::LocalAddressSpace, libunwind::Registers_arm64>::isSignalFrame()
PUBLIC 14618 0 libunwind::UnwindCursor<libunwind::LocalAddressSpace, libunwind::Registers_arm64>::getFunctionName(char*, unsigned long, unsigned long*)
PUBLIC 14644 0 libunwind::UnwindCursor<libunwind::LocalAddressSpace, libunwind::Registers_arm64>::setInfoBasedOnIPRegister(bool)
PUBLIC 148c4 0 libunwind::UnwindCursor<libunwind::LocalAddressSpace, libunwind::Registers_arm64>::getRegisterName(int)
PUBLIC 148d0 0 libunwind::UnwindCursor<libunwind::LocalAddressSpace, libunwind::Registers_arm64>::stepThroughSigReturn(libunwind::Registers_arm64&)
PUBLIC 149f0 0 libunwind::DwarfInstructions<libunwind::LocalAddressSpace, libunwind::Registers_arm64>::stepWithDwarf(libunwind::LocalAddressSpace&, unsigned long, unsigned long, libunwind::Registers_arm64&, bool&, bool)
PUBLIC 14e78 0 libunwind::CFI_Parser<libunwind::LocalAddressSpace>::parseFDEInstructions(libunwind::LocalAddressSpace&, libunwind::CFI_Parser<libunwind::LocalAddressSpace>::FDE_Info const&, libunwind::CFI_Parser<libunwind::LocalAddressSpace>::CIE_Info const&, unsigned long, int, libunwind::CFI_Parser<libunwind::LocalAddressSpace>::PrologInfo*)
PUBLIC 15ac0 0 libunwind::DwarfInstructions<libunwind::LocalAddressSpace, libunwind::Registers_arm64>::getCFA(libunwind::LocalAddressSpace&, libunwind::CFI_Parser<libunwind::LocalAddressSpace>::PrologInfo const&, libunwind::Registers_arm64 const&)
PUBLIC 15bf4 0 libunwind::DwarfInstructions<libunwind::LocalAddressSpace, libunwind::Registers_arm64>::getSavedRegister(libunwind::LocalAddressSpace&, libunwind::Registers_arm64 const&, unsigned long, libunwind::CFI_Parser<libunwind::LocalAddressSpace>::RegisterLocation const&)
PUBLIC 15e04 0 libunwind::LocalAddressSpace::getEncodedP(unsigned long&, unsigned long, unsigned char, unsigned long)
PUBLIC 16190 0 libunwind::LocalAddressSpace::getULEB128(unsigned long&, unsigned long)
PUBLIC 16358 0 libunwind::DwarfInstructions<libunwind::LocalAddressSpace, libunwind::Registers_arm64>::evaluateExpression(unsigned long, libunwind::LocalAddressSpace&, libunwind::Registers_arm64 const&, unsigned long)
PUBLIC 16d14 0 libunwind::UnwindCursor<libunwind::LocalAddressSpace, libunwind::Registers_arm64>::getInfoFromDwarfSection(unsigned long, libunwind::UnwindInfoSections const&, unsigned int)
PUBLIC 16fe8 0 libunwind::findUnwindSectionsByPhdr(dl_phdr_info*, unsigned long, void*)
PUBLIC 1711c 0 libunwind::EHHeaderParser<libunwind::LocalAddressSpace>::decodeEHHdr(libunwind::LocalAddressSpace&, unsigned long, unsigned long, libunwind::EHHeaderParser<libunwind::LocalAddressSpace>::EHHeaderInfo&)
PUBLIC 1723c 0 libunwind::CFI_Parser<libunwind::LocalAddressSpace>::findFDE(libunwind::LocalAddressSpace&, unsigned long, unsigned long, unsigned long, unsigned long, libunwind::CFI_Parser<libunwind::LocalAddressSpace>::FDE_Info*, libunwind::CFI_Parser<libunwind::LocalAddressSpace>::CIE_Info*)
PUBLIC 17404 0 libunwind::EHHeaderParser<libunwind::LocalAddressSpace>::findFDE(libunwind::LocalAddressSpace&, unsigned long, unsigned long, unsigned int, libunwind::CFI_Parser<libunwind::LocalAddressSpace>::FDE_Info*, libunwind::CFI_Parser<libunwind::LocalAddressSpace>::CIE_Info*)
PUBLIC 1756c 0 libunwind::EHHeaderParser<libunwind::LocalAddressSpace>::getTableEntrySize(unsigned char)
PUBLIC 17668 0 libunwind::Registers_arm64::getRegisterName(int)
PUBLIC 17698 0 __libunwind_Registers_arm64_jumpto
PUBLIC m 17728 0 __unw_getcontext
PUBLIC 177d0 0 __aarch64_ldadd8_relax
PUBLIC 17800 0 init_have_lse_atomics
PUBLIC 17898 0 __init_cpu_features_constructor
PUBLIC 17e34 0 __init_cpu_features
PUBLIC 17ec0 0 __aarch64_ldadd8_acq_rel
PUBLIC 17ef0 0 RedesignedGauntletLayer::editGauntletSingle(std::__ndk1::basic_string<char, std::__ndk1::char_traits<char>, std::__ndk1::allocator<char> >, cocos2d::_ccColor3B, cocos2d::_ccColor3B, cocos2d::_ccColor3B)
PUBLIC 18c18 0 __cxx_global_var_init
PUBLIC 18c78 0 geode::modifier::ModifyBase<geode::modifier::ModifyDerive<RedesignedGauntletLayer, GauntletLayer> >::~ModifyBase()
PUBLIC 18c94 0 __clang_call_terminate
PUBLIC 18ca4 0 std::__ndk1::basic_string<char, std::__ndk1::char_traits<char>, std::__ndk1::allocator<char> >::__throw_length_error[abi:ne180000]() const
PUBLIC 18cb8 0 std::__ndk1::__throw_length_error[abi:ne180000](char const*)
PUBLIC 18d08 0 std::length_error::length_error[abi:ne180000](char const*)
PUBLIC 18d38 0 std::__throw_bad_array_new_length([abi:ne180000], void)
PUBLIC 18d6c 0 geode::modifier::ModifyBase<geode::modifier::ModifyDerive<RedesignedGauntletLayer, GauntletLayer> >::ModifyBase()
PUBLIC 19168 0 geode::modifier::ModifyDerive<RedesignedGauntletLayer, GauntletLayer>::apply()
PUBLIC 197e0 0 std::__ndk1::shared_ptr<geode::Hook>::~shared_ptr[abi:ne180000]()
PUBLIC 19830 0 geode::impl::ResultData<geode::Hook*, std::__ndk1::basic_string<char, std::__ndk1::char_traits<char>, std::__ndk1::allocator<char> > >::~ResultData()
PUBLIC 198a4 0 std::__ndk1::vector<std::__ndk1::basic_string<char, std::__ndk1::char_traits<char>, std::__ndk1::allocator<char> >, std::__ndk1::allocator<std::__ndk1::basic_string<char, std::__ndk1::char_traits<char>, std::__ndk1::allocator<char> > > >::~vector[abi:ne180000]()
PUBLIC 19920 0 geode::modifier::ModifyBase<geode::modifier::ModifyDerive<RedesignedGauntletLayer, GauntletLayer> >::apply()
PUBLIC 19924 0 _ZN5geode15UnwrapExceptionC2IRPNS_4HookEQsr4implE18IsStringStreamableIT_EEENS_4impl5OkTagEOS5_
PUBLIC 19a78 0 std::__ndk1::__throw_bad_variant_access[abi:ne180000]()
PUBLIC 19aac 0 std::__ndk1::basic_stringstream<char, std::__ndk1::char_traits<char>, std::__ndk1::allocator<char> >::basic_stringstream[abi:ne180000]()
PUBLIC m 19bd8 0 std::__ndk1::basic_stringstream<char, std::__ndk1::char_traits<char>, std::__ndk1::allocator<char> >::~basic_stringstream()
PUBLIC 19c58 0 geode::UnwrapException::~UnwrapException()
PUBLIC 19c7c 0 std::__ndk1::__put_character_sequence[abi:ne180000]<char, std::__ndk1::char_traits<char> >(std::__ndk1::basic_ostream<char, std::__ndk1::char_traits<char> >, std::__ndk1::basic_ostream const*, unsigned long)
PUBLIC 19e20 0 std::__ndk1::__pad_and_output[abi:ne180000]<char, std::__ndk1::char_traits<char> >(std::__ndk1::char_traits<char>, std::__ndk1::ostreambuf_iterator const*, std::__ndk1::ostreambuf_iterator const, std::__ndk1::ostreambuf_iterator const, std::__ndk1::ios_base&, std::__ndk1::ostreambuf_iterator)
PUBLIC 19ffc 0 std::__ndk1::basic_stringbuf<char, std::__ndk1::char_traits<char>, std::__ndk1::allocator<char> >::str[abi:ne180000]() &&
PUBLIC 1a174 0 std::__ndk1::basic_stringbuf<char, std::__ndk1::char_traits<char>, std::__ndk1::allocator<char> >::__init_buf_ptrs[abi:ne180000]()
PUBLIC 1a2bc 0 std::__ndk1::vector<std::__ndk1::basic_string<char, std::__ndk1::char_traits<char>, std::__ndk1::allocator<char> >, std::__ndk1::allocator<std::__ndk1::basic_string<char, std::__ndk1::char_traits<char>, std::__ndk1::allocator<char> > > >::__push_back_slow_path<std::__ndk1::basic_string<char, std::__ndk1::char_traits<char>, std::__ndk1::allocator<char> > const&>(std::__ndk1::basic_string<char, std::__ndk1::char_traits<char>, std::__ndk1::allocator<char> > const&)
PUBLIC 1a4e4 0 std::__ndk1::basic_string<char, std::__ndk1::char_traits<char>, std::__ndk1::allocator<char> >::__init_copy_ctor_external(char const*, unsigned long)
PUBLIC 1a564 0 std::__ndk1::__split_buffer<std::__ndk1::basic_string<char, std::__ndk1::char_traits<char>, std::__ndk1::allocator<char> >, std::__ndk1::allocator<std::__ndk1::basic_string<char, std::__ndk1::char_traits<char>, std::__ndk1::allocator<char> > >&>::~__split_buffer()
PUBLIC 1a5cc 0 std::__ndk1::vector<std::__ndk1::basic_string<char, std::__ndk1::char_traits<char>, std::__ndk1::allocator<char> >, std::__ndk1::allocator<std::__ndk1::basic_string<char, std::__ndk1::char_traits<char>, std::__ndk1::allocator<char> > > >::__throw_length_error[abi:ne180000]() const
PUBLIC 1a5e0 0 std::__ndk1::__variant_detail::__visitation::__base::__dispatcher<(unsigned long)0>::__dispatch[abi:ne180000]<std::__ndk1::__variant_detail::__dtor<std::__ndk1::__variant_detail::__traits<geode::Hook*, std::__ndk1::basic_string<char, std::__ndk1::char_traits<char>, std::__ndk1::allocator<char> > >, (std::__ndk1::__variant_detail::_Trait)1>::__destroy[abi:ne180000]()::{lambda(auto:1&)#1}, std::__ndk1::__variant_detail::__base<(std::__ndk1::__variant_detail::__traits<geode::Hook*, std::__ndk1::basic_string<char, std::__ndk1::char_traits<char>, std::__ndk1::allocator<char> > >)1, geode::Hook, std::__ndk1::allocator<char> >&>(std::__ndk1::__variant_detail::__dtor<std::__ndk1::__variant_detail::__traits<geode::Hook*, std::__ndk1::basic_string<char, std::__ndk1::char_traits<char>, std::__ndk1::allocator<char> > >, (std::__ndk1::__variant_detail::_Trait)1>, std::__ndk1::__variant_detail::__base<(std::__ndk1::__variant_detail::__traits<geode::Hook*, std::__ndk1::basic_string<char, std::__ndk1::char_traits<char>, std::__ndk1::allocator<char> > >)1, geode::Hook, std::__ndk1::allocator<char> >&)
PUBLIC 1a5e4 0 std::__ndk1::__variant_detail::__visitation::__base::__dispatcher<(unsigned long)1>::__dispatch[abi:ne180000]<std::__ndk1::__variant_detail::__dtor<std::__ndk1::__variant_detail::__traits<geode::Hook*, std::__ndk1::basic_string<char, std::__ndk1::char_traits<char>, std::__ndk1::allocator<char> > >, (std::__ndk1::__variant_detail::_Trait)1>::__destroy[abi:ne180000]()::{lambda(auto:1&)#1}, std::__ndk1::__variant_detail::__base<(std::__ndk1::__variant_detail::__traits<geode::Hook*, std::__ndk1::basic_string<char, std::__ndk1::char_traits<char>, std::__ndk1::allocator<char> > >)1, geode::Hook, std::__ndk1::allocator<char> >&>(std::__ndk1::__variant_detail::__dtor<std::__ndk1::__variant_detail::__traits<geode::Hook*, std::__ndk1::basic_string<char, std::__ndk1::char_traits<char>, std::__ndk1::allocator<char> > >, (std::__ndk1::__variant_detail::_Trait)1>, std::__ndk1::__variant_detail::__base<(std::__ndk1::__variant_detail::__traits<geode::Hook*, std::__ndk1::basic_string<char, std::__ndk1::char_traits<char>, std::__ndk1::allocator<char> > >)1, geode::Hook, std::__ndk1::allocator<char> >&)
PUBLIC 1a5f8 0 std::__ndk1::__tree<std::__ndk1::__value_type<std::__ndk1::basic_string<char, std::__ndk1::char_traits<char>, std::__ndk1::allocator<char> >, std::__ndk1::shared_ptr<geode::Hook> >, std::__ndk1::__map_value_compare<std::__ndk1::basic_string<char, std::__ndk1::char_traits<char>, std::__ndk1::allocator<char> >, std::__ndk1::__value_type<std::__ndk1::basic_string<char, std::__ndk1::char_traits<char>, std::__ndk1::allocator<char> >, std::__ndk1::shared_ptr<geode::Hook> >, std::__ndk1::less<std::__ndk1::basic_string<char, std::__ndk1::char_traits<char>, std::__ndk1::allocator<char> > >, true>, std::__ndk1::allocator<std::__ndk1::__value_type<std::__ndk1::basic_string<char, std::__ndk1::char_traits<char>, std::__ndk1::allocator<char> >, std::__ndk1::shared_ptr<geode::Hook> > > >::find<std::__ndk1::basic_string<char, std::__ndk1::char_traits<char>, std::__ndk1::allocator<char> > >(std::__ndk1::basic_string<char, std::__ndk1::char_traits<char>, std::__ndk1::allocator<char> > const&)
PUBLIC 1a718 0 std::__ndk1::__tree<std::__ndk1::__value_type<std::__ndk1::basic_string<char, std::__ndk1::char_traits<char>, std::__ndk1::allocator<char> >, std::__ndk1::shared_ptr<geode::Hook> >, std::__ndk1::__map_value_compare<std::__ndk1::basic_string<char, std::__ndk1::char_traits<char>, std::__ndk1::allocator<char> >, std::__ndk1::__value_type<std::__ndk1::basic_string<char, std::__ndk1::char_traits<char>, std::__ndk1::allocator<char> >, std::__ndk1::shared_ptr<geode::Hook> >, std::__ndk1::less<std::__ndk1::basic_string<char, std::__ndk1::char_traits<char>, std::__ndk1::allocator<char> > >, true>, std::__ndk1::allocator<std::__ndk1::__value_type<std::__ndk1::basic_string<char, std::__ndk1::char_traits<char>, std::__ndk1::allocator<char> >, std::__ndk1::shared_ptr<geode::Hook> > > >::erase(std::__ndk1::__tree_const_iterator<std::__ndk1::__value_type<std::__ndk1::basic_string<char, std::__ndk1::char_traits<char>, std::__ndk1::allocator<char> >, std::__ndk1::shared_ptr<geode::Hook> >, std::__ndk1::__tree_node<std::__ndk1::__value_type<std::__ndk1::basic_string<char, std::__ndk1::char_traits<char>, std::__ndk1::allocator<char> >, std::__ndk1::shared_ptr<geode::Hook> >, void*>*, long>)
PUBLIC 1a7ec 0 std::__ndk1::__tree_remove[abi:ne180000]<std::__ndk1::__tree_node_base<void*>*>(std::__ndk1::__tree_node_base<void*>*, std::__ndk1::__tree_node_base<void*>*)
PUBLIC 1abb4 0 std::__ndk1::__tree<std::__ndk1::__value_type<std::__ndk1::basic_string<char, std::__ndk1::char_traits<char>, std::__ndk1::allocator<char> >, std::__ndk1::shared_ptr<geode::Hook> >, std::__ndk1::__map_value_compare<std::__ndk1::basic_string<char, std::__ndk1::char_traits<char>, std::__ndk1::allocator<char> >, std::__ndk1::__value_type<std::__ndk1::basic_string<char, std::__ndk1::char_traits<char>, std::__ndk1::allocator<char> >, std::__ndk1::shared_ptr<geode::Hook> >, std::__ndk1::less<std::__ndk1::basic_string<char, std::__ndk1::char_traits<char>, std::__ndk1::allocator<char> > >, true>, std::__ndk1::allocator<std::__ndk1::__value_type<std::__ndk1::basic_string<char, std::__ndk1::char_traits<char>, std::__ndk1::allocator<char> >, std::__ndk1::shared_ptr<geode::Hook> > > >::destroy(std::__ndk1::__tree_node<std::__ndk1::__value_type<std::__ndk1::basic_string<char, std::__ndk1::char_traits<char>, std::__ndk1::allocator<char> >, std::__ndk1::shared_ptr<geode::Hook> >, void*>*)
PUBLIC 1ac40 0 geode::Hook::create<void (*)(RedesignedGauntletLayer*, cocos2d::CCArray*, char const*, int)>(void*, void (*)(RedesignedGauntletLayer*, cocos2d::CCArray*, char const*, int), std::__ndk1::basic_string<char, std::__ndk1::char_traits<char>, std::__ndk1::allocator<char> > const&, tulip::hook::TulipConvention, tulip::hook::HookMetadata const&)
PUBLIC 1ad58 0 geode::modifier::AsStaticFunction_loadLevelsFinished<RedesignedGauntletLayer, void (RedesignedGauntletLayer::*)(cocos2d::CCArray*, char const*, int)>::Impl<void (RedesignedGauntletLayer::*)(cocos2d::CCArray*, char const*, int)>::function(RedesignedGauntletLayer*, cocos2d::CCArray*, char const*, int)
PUBLIC 1ad98 0 geode::Hook::create<bool (*)(RedesignedGauntletLayer*, GauntletType)>(void*, bool (*)(RedesignedGauntletLayer*, GauntletType), std::__ndk1::basic_string<char, std::__ndk1::char_traits<char>, std::__ndk1::allocator<char> > const&, tulip::hook::TulipConvention, tulip::hook::HookMetadata const&)
PUBLIC 1af1c 0 geode::modifier::AsStaticFunction_init<RedesignedGauntletLayer, bool (RedesignedGauntletLayer::*)(GauntletType)>::Impl<bool (RedesignedGauntletLayer::*)(GauntletType)>::function(RedesignedGauntletLayer*, GauntletType)
PUBLIC 1af20 0 geode::Hook::create<void (*)(RedesignedGauntletLayer*, cocos2d::CCArray*)>(void*, void (*)(RedesignedGauntletLayer*, cocos2d::CCArray*), std::__ndk1::basic_string<char, std::__ndk1::char_traits<char>, std::__ndk1::allocator<char> > const&, tulip::hook::TulipConvention, tulip::hook::HookMetadata const&)
PUBLIC 1b0a4 0 geode::modifier::AsStaticFunction_setupGauntlet<RedesignedGauntletLayer, void (RedesignedGauntletLayer::*)(cocos2d::CCArray*)>::Impl<void (RedesignedGauntletLayer::*)(cocos2d::CCArray*)>::function(RedesignedGauntletLayer*, cocos2d::CCArray*)
PUBLIC 1b0a8 0 geode::addresser::Addresser::addressOfVirtual<void, GauntletLayer, cocos2d::CCArray*, char const*, int>(void (GauntletLayer::*)(cocos2d::CCArray*, char const*, int))
PUBLIC 1b194 0 GauntletLayer::GauntletLayer(geode::ZeroConstructorType)
PUBLIC 1b22c 0 tulip::hook::AbstractFunction::from<void, RedesignedGauntletLayer*, cocos2d::CCArray*, char const*, int>(void (*)(RedesignedGauntletLayer*, cocos2d::CCArray*, char const*, int))
PUBLIC 1b500 0 std::__ndk1::shared_ptr<tulip::hook::CallingConvention>::~shared_ptr[abi:ne180000]()
PUBLIC 1b550 0 tulip::hook::HandlerMetadata::~HandlerMetadata()
PUBLIC 1b5b4 0 std::__ndk1::vector<tulip::hook::AbstractType, std::__ndk1::allocator<tulip::hook::AbstractType> >::__throw_length_error[abi:ne180000]() const
PUBLIC 1b5c8 0 std::__ndk1::__tree<std::__ndk1::__value_type<std::__ndk1::basic_string<char, std::__ndk1::char_traits<char>, std::__ndk1::allocator<char> >, std::__ndk1::shared_ptr<geode::Hook> >, std::__ndk1::__map_value_compare<std::__ndk1::basic_string<char, std::__ndk1::char_traits<char>, std::__ndk1::allocator<char> >, std::__ndk1::__value_type<std::__ndk1::basic_string<char, std::__ndk1::char_traits<char>, std::__ndk1::allocator<char> >, std::__ndk1::shared_ptr<geode::Hook> >, std::__ndk1::less<std::__ndk1::basic_string<char, std::__ndk1::char_traits<char>, std::__ndk1::allocator<char> > >, true>, std::__ndk1::allocator<std::__ndk1::__value_type<std::__ndk1::basic_string<char, std::__ndk1::char_traits<char>, std::__ndk1::allocator<char> >, std::__ndk1::shared_ptr<geode::Hook> > > >::__emplace_unique_key_args<std::__ndk1::basic_string<char, std::__ndk1::char_traits<char>, std::__ndk1::allocator<char> >, std::__ndk1::piecewise_construct_t const&, std::__ndk1::tuple<std::__ndk1::basic_string<char, std::__ndk1::char_traits<char>, std::__ndk1::allocator<char> >&&>, std::__ndk1::tuple<> >(std::__ndk1::basic_string<char, std::__ndk1::char_traits<char>, std::__ndk1::allocator<char> > const&, std::__ndk1::piecewise_construct_t const&, std::__ndk1::tuple<std::__ndk1::basic_string<char, std::__ndk1::char_traits<char>, std::__ndk1::allocator<char> >&&>, std::__ndk1::tuple<>)
PUBLIC 1b740 0 std::__ndk1::__tree_balance_after_insert[abi:ne180000]<std::__ndk1::__tree_node_base<void*>*>(std::__ndk1::__tree_node_base<void*>*, std::__ndk1::__tree_node_base<void*>*)
PUBLIC 1b8f0 0 geode::Ref<keybinds::Bind>::~Ref()
PUBLIC 1b910 0 keybinds::BindableAction::~BindableAction()
PUBLIC 1b9d4 0 std::__ndk1::vector<geode::Ref<keybinds::Bind>, std::__ndk1::allocator<geode::Ref<keybinds::Bind> > >::~vector[abi:ne180000]()
PUBLIC 1ba58 0 std::__ndk1::__exception_guard_exceptions<std::__ndk1::vector<geode::Ref<keybinds::Bind>, std::__ndk1::allocator<geode::Ref<keybinds::Bind> > >::__destroy_vector>::~__exception_guard_exceptions[abi:ne180000]()
PUBLIC 1baec 0 std::__ndk1::__exception_guard_exceptions<std::__ndk1::_AllocatorDestroyRangeReverse<std::__ndk1::allocator<geode::Ref<keybinds::Bind> >, geode::Ref<keybinds::Bind>*> >::~__exception_guard_exceptions[abi:ne180000]()
PUBLIC 1bb34 0 _GLOBAL__sub_I_GL_Keybinds.cpp
PUBLIC 1cc5c 0 RedesignedGauntletLayer::editGauntletFallback()
PUBLIC 1cd7c 0 RedesignedGauntletLayer::editFireGauntlet()
PUBLIC 1d004 0 geode::Mod::getSettingValue<bool>(std::__ndk1::basic_string_view<char, std::__ndk1::char_traits<char> >) const
PUBLIC 1d138 0 geode::cast::traverseTypeinfoFor(void*, geode::cast::ClassTypeinfoType const*, char const*)
PUBLIC 1d23c 0 RedesignedGauntletLayer::editIceGauntlet()
PUBLIC 1d438 0 RedesignedGauntletLayer::editPoisonGauntlet()
PUBLIC 1d6c8 0 RedesignedGauntletLayer::editShadowGauntlet()
PUBLIC 1d8b8 0 RedesignedGauntletLayer::editLavaGauntlet()
PUBLIC 1db44 0 RedesignedGauntletLayer::editBonusGauntlet()
PUBLIC 1dd44 0 RedesignedGauntletLayer::editChaosGauntlet()
PUBLIC 1df40 0 RedesignedGauntletLayer::editDemonGauntlet()
PUBLIC 1e33c 0 RedesignedGauntletLayer::editTimeGauntlet()
PUBLIC 1e62c 0 RedesignedGauntletLayer::editCrystalGauntlet()
PUBLIC 1e8c0 0 RedesignedGauntletLayer::editMagicGauntlet()
PUBLIC 1ecf8 0 RedesignedGauntletLayer::editSpikeGauntlet()
PUBLIC 1ef8c 0 RedesignedGauntletLayer::editMonsterGauntlet()
PUBLIC 1f0ac 0 RedesignedGauntletLayer::editDoomGauntlet()
PUBLIC 1f2ac 0 RedesignedGauntletLayer::editDeathGauntlet()
PUBLIC 1f3c4 0 RedesignedGauntletLayer::editForestGauntlet()
PUBLIC 1f5cc 0 RedesignedGauntletLayer::editRuneGauntlet()
PUBLIC 1f6d8 0 RedesignedGauntletLayer::editForceGauntlet()
PUBLIC 1f7f0 0 RedesignedGauntletLayer::editSpookyGauntlet()
PUBLIC 1f90c 0 RedesignedGauntletLayer::editDragonGauntlet()
PUBLIC 1fa24 0 RedesignedGauntletLayer::editWaterGauntlet()
PUBLIC 1fb3c 0 RedesignedGauntletLayer::editHauntedGauntlet()
PUBLIC 1fc58 0 RedesignedGauntletLayer::editAcidGauntlet()
PUBLIC 1fd68 0 RedesignedGauntletLayer::editWitchGauntlet()
PUBLIC 1fe80 0 RedesignedGauntletLayer::editPowerGauntlet()
PUBLIC 1ff98 0 RedesignedGauntletLayer::editPotionGauntlet()
PUBLIC 200b4 0 RedesignedGauntletLayer::editSnakeGauntlet()
PUBLIC 201cc 0 RedesignedGauntletLayer::editToxicGauntlet()
PUBLIC 202e0 0 RedesignedGauntletLayer::editHalloweenGauntlet()
PUBLIC 203f4 0 RedesignedGauntletLayer::editTreasureGauntlet()
PUBLIC 2050c 0 RedesignedGauntletLayer::editGhostGauntlet()
PUBLIC 20624 0 RedesignedGauntletLayer::editSpiderGauntlet()
PUBLIC 20740 0 RedesignedGauntletLayer::editGemGauntlet()
PUBLIC 20850 0 RedesignedGauntletLayer::editInfernoGauntlet()
PUBLIC 2096c 0 RedesignedGauntletLayer::editPortalGauntlet()
PUBLIC 20a88 0 RedesignedGauntletLayer::editStrangeGauntlet()
PUBLIC 20ba8 0 RedesignedGauntletLayer::editFantasyGauntlet()
PUBLIC 20cc8 0 RedesignedGauntletLayer::editChristmasGauntlet()
PUBLIC 20ed0 0 RedesignedGauntletLayer::editSurpriseGauntlet()
PUBLIC 20fec 0 RedesignedGauntletLayer::editMysteryGauntlet()
PUBLIC 21108 0 RedesignedGauntletLayer::editCursedGauntlet()
PUBLIC 21220 0 RedesignedGauntletLayer::editCyborgGauntlet()
PUBLIC 2133c 0 RedesignedGauntletLayer::editCastleGauntlet()
PUBLIC 21458 0 RedesignedGauntletLayer::editGraveGauntlet()
PUBLIC 21570 0 RedesignedGauntletLayer::editTempleGauntlet()
PUBLIC 2168c 0 RedesignedGauntletLayer::editWorldGauntlet()
PUBLIC 217a4 0 RedesignedGauntletLayer::editGalaxyGauntlet()
PUBLIC 218d8 0 RedesignedGauntletLayer::editUniverseGauntlet()
PUBLIC 21a10 0 RedesignedGauntletLayer::editDiscordGauntlet()
PUBLIC 21b30 0 RedesignedGauntletLayer::editSplitGauntlet()
PUBLIC 21c48 0 RedesignedGauntletLayer::editNCSGauntlet1()
PUBLIC 21d78 0 RedesignedGauntletLayer::editNCSGauntlet2()
PUBLIC 21eac 0 RedesignedGauntletLayer::editSpaceGauntlet()
PUBLIC 21fc4 0 RedesignedGauntletLayer::editCosmosGauntlet()
PUBLIC 220dc 0 RedesignedGauntletLayer::defineKeybind(char const*, std::__ndk1::function<void ()>)
PUBLIC 222d4 0 cocos2d::CCNode::addEventListener<keybinds::InvokeBindFilter, char const*&>(std::__ndk1::function<keybinds::InvokeBindFilter::Callback>, char const*&)
PUBLIC 22454 0 RedesignedGauntletLayer::gauntletLevel(int)
PUBLIC 22760 0 geode::cocos::CCArrayExt<cocos2d::CCNode*, cocos2d::CCNode>::~CCArrayExt()
PUBLIC 2277c 0 RedesignedGauntletLayer::init(GauntletType)
PUBLIC 22cc0 0 RedesignedGauntletLayer::editGauntlets()
PUBLIC 23928 0 RedesignedGauntletLayer::setupGauntlet(cocos2d::CCArray*)
PUBLIC 2450c 0 RedesignedGauntletLayer::gauntletVault(cocos2d::CCObject*)
PUBLIC 24654 0 cocos2d::CCSequence::create(cocos2d::CCFiniteTimeAction*, ...)
PUBLIC 246ec 0 geode::modifier::FieldIntermediate<RedesignedGauntletLayer, GauntletLayer>::self()
PUBLIC 24874 0 geode::modifier::FieldContainer::getField(unsigned long)
PUBLIC 24b2c 0 geode::modifier::FieldContainer::setField(unsigned long, unsigned long, std::__ndk1::function<void (void*)>)
PUBLIC 24c40 0 geode::modifier::FieldIntermediate<RedesignedGauntletLayer, GauntletLayer>::fieldDestructor(void*)
PUBLIC 24c44 0 std::__ndk1::vector<void*, std::__ndk1::allocator<void*> >::__throw_length_error[abi:ne180000]() const
PUBLIC 24c58 0 std::__ndk1::vector<std::__ndk1::function<void (void*)>, std::__ndk1::allocator<std::__ndk1::function<void (void*)> > >::__push_back_slow_path<std::__ndk1::function<void (void*)> >(std::__ndk1::function<void (void*)>&&)
PUBLIC 24e84 0 std::__ndk1::vector<std::__ndk1::function<void (void*)>, std::__ndk1::allocator<std::__ndk1::function<void (void*)> > >::__throw_length_error[abi:ne180000]() const
PUBLIC 24e98 0 std::__ndk1::vector<void*, std::__ndk1::allocator<void*> >::__throw_out_of_range[abi:ne180000]() const
PUBLIC 24eac 0 std::__ndk1::__throw_out_of_range[abi:ne180000](char const*)
PUBLIC 24efc 0 std::out_of_range::out_of_range[abi:ne180000](char const*)
PUBLIC 24f2c 0 std::__ndk1::vector<std::__ndk1::function<void (void*)>, std::__ndk1::allocator<std::__ndk1::function<void (void*)> > >::__throw_out_of_range[abi:ne180000]() const
PUBLIC 24f40 0 std::__ndk1::__function::__base<void (void*)>::~__base()
PUBLIC 24f44 0 std::__ndk1::__function::__func<void (*)(void*), std::__ndk1::allocator<void (*)(void*)>, void (void*)>::~__func()
PUBLIC 24f48 0 std::__ndk1::__function::__func<void (*)(void*), std::__ndk1::allocator<void (*)(void*)>, void (void*)>::__clone() const
PUBLIC 24f80 0 std::__ndk1::__function::__func<void (*)(void*), std::__ndk1::allocator<void (*)(void*)>, void (void*)>::__clone(std::__ndk1::__function::__base<void (void*)>*) const
PUBLIC 24f98 0 std::__ndk1::__function::__func<void (*)(void*), std::__ndk1::allocator<void (*)(void*)>, void (void*)>::destroy()
PUBLIC 24f9c 0 std::__ndk1::__function::__func<void (*)(void*), std::__ndk1::allocator<void (*)(void*)>, void (void*)>::destroy_deallocate()
PUBLIC 24fa0 0 std::__ndk1::__function::__func<void (*)(void*), std::__ndk1::allocator<void (*)(void*)>, void (void*)>::operator()(void*&&)
PUBLIC 24fb0 0 std::__ndk1::__function::__func<void (*)(void*), std::__ndk1::allocator<void (*)(void*)>, void (void*)>::target(std::type_info const&) const
PUBLIC 24fcc 0 std::__ndk1::__function::__func<void (*)(void*), std::__ndk1::allocator<void (*)(void*)>, void (void*)>::target_type() const
PUBLIC 24fd8 0 std::__ndk1::vector<cocos2d::CCSprite*, std::__ndk1::allocator<cocos2d::CCSprite*> >::__throw_length_error[abi:ne180000]() const
PUBLIC 24fec 0 std::__ndk1::__throw_bad_function_call[abi:ne180000]()
PUBLIC 25020 0 std::__ndk1::bad_function_call::~bad_function_call()
PUBLIC 25044 0 cocos2d::CCNode::addEventListener<keybinds::InvokeBindFilter, char const*&>(std::__ndk1::basic_string<char, std::__ndk1::char_traits<char>, std::__ndk1::allocator<char> > const&, std::__ndk1::function<keybinds::InvokeBindFilter::Callback>, char const*&)
PUBLIC 252e0 0 geode::EventListener<keybinds::InvokeBindFilter>::EventListener(std::__ndk1::function<geode::ListenerResult(keybinds::InvokeBindEvent*)>, keybinds::InvokeBindFilter)
PUBLIC 2540c 0 geode::EventListener<keybinds::InvokeBindFilter>::getPool() const
PUBLIC 25410 0 geode::EventListener<keybinds::InvokeBindFilter>::handle(geode::Event*)
PUBLIC 25584 0 geode::EventListener<keybinds::InvokeBindFilter>::~EventListener()
PUBLIC 255f0 0 geode::EventListener<keybinds::InvokeBindFilter>::~EventListener()
PUBLIC 25664 0 std::__ndk1::__function::__func<RedesignedGauntletLayer::defineKeybind(char const*, std::__ndk1::function<void ()>)::$_0, std::__ndk1::allocator<RedesignedGauntletLayer::defineKeybind(char const*, std::__ndk1::function<void ()>)::$_0>, geode::ListenerResult(keybinds::InvokeBindEvent*)>::~__func()
PUBLIC 256b0 0 std::__ndk1::__function::__func<RedesignedGauntletLayer::defineKeybind(char const*, std::__ndk1::function<void ()>)::$_0, std::__ndk1::allocator<RedesignedGauntletLayer::defineKeybind(char const*, std::__ndk1::function<void ()>)::$_0>, geode::ListenerResult(keybinds::InvokeBindEvent*)>::~__func()
PUBLIC 2570c 0 std::__ndk1::__function::__func<RedesignedGauntletLayer::defineKeybind(char const*, std::__ndk1::function<void ()>)::$_0, std::__ndk1::allocator<RedesignedGauntletLayer::defineKeybind(char const*, std::__ndk1::function<void ()>)::$_0>, geode::ListenerResult(keybinds::InvokeBindEvent*)>::__clone() const
PUBLIC 257a0 0 std::__ndk1::__function::__func<RedesignedGauntletLayer::defineKeybind(char const*, std::__ndk1::function<void ()>)::$_0, std::__ndk1::allocator<RedesignedGauntletLayer::defineKeybind(char const*, std::__ndk1::function<void ()>)::$_0>, geode::ListenerResult(keybinds::InvokeBindEvent*)>::__clone(std::__ndk1::__function::__base<geode::ListenerResult(keybinds::InvokeBindEvent*)>*) const
PUBLIC 2581c 0 std::__ndk1::__function::__func<RedesignedGauntletLayer::defineKeybind(char const*, std::__ndk1::function<void ()>)::$_0, std::__ndk1::allocator<RedesignedGauntletLayer::defineKeybind(char const*, std::__ndk1::function<void ()>)::$_0>, geode::ListenerResult(keybinds::InvokeBindEvent*)>::destroy()
PUBLIC 2585c 0 std::__ndk1::__function::__func<RedesignedGauntletLayer::defineKeybind(char const*, std::__ndk1::function<void ()>)::$_0, std::__ndk1::allocator<RedesignedGauntletLayer::defineKeybind(char const*, std::__ndk1::function<void ()>)::$_0>, geode::ListenerResult(keybinds::InvokeBindEvent*)>::destroy_deallocate()
PUBLIC 258ac 0 std::__ndk1::__function::__func<RedesignedGauntletLayer::defineKeybind(char const*, std::__ndk1::function<void ()>)::$_0, std::__ndk1::allocator<RedesignedGauntletLayer::defineKeybind(char const*, std::__ndk1::function<void ()>)::$_0>, geode::ListenerResult(keybinds::InvokeBindEvent*)>::operator()(keybinds::InvokeBindEvent*&&)
PUBLIC 258f4 0 std::__ndk1::__function::__func<RedesignedGauntletLayer::defineKeybind(char const*, std::__ndk1::function<void ()>)::$_0, std::__ndk1::allocator<RedesignedGauntletLayer::defineKeybind(char const*, std::__ndk1::function<void ()>)::$_0>, geode::ListenerResult(keybinds::InvokeBindEvent*)>::target(std::type_info const&) const
PUBLIC 25910 0 std::__ndk1::__function::__func<RedesignedGauntletLayer::defineKeybind(char const*, std::__ndk1::function<void ()>)::$_0, std::__ndk1::allocator<RedesignedGauntletLayer::defineKeybind(char const*, std::__ndk1::function<void ()>)::$_0>, geode::ListenerResult(keybinds::InvokeBindEvent*)>::target_type() const
PUBLIC 2591c 0 std::__ndk1::__function::__func<RedesignedGauntletLayer::setupGauntlet(cocos2d::CCArray*)::$_0, std::__ndk1::allocator<RedesignedGauntletLayer::setupGauntlet(cocos2d::CCArray*)::$_0>, void ()>::~__func()
PUBLIC 25920 0 std::__ndk1::__function::__func<RedesignedGauntletLayer::setupGauntlet(cocos2d::CCArray*)::$_0, std::__ndk1::allocator<RedesignedGauntletLayer::setupGauntlet(cocos2d::CCArray*)::$_0>, void ()>::__clone() const
PUBLIC 25954 0 std::__ndk1::__function::__func<RedesignedGauntletLayer::setupGauntlet(cocos2d::CCArray*)::$_0, std::__ndk1::allocator<RedesignedGauntletLayer::setupGauntlet(cocos2d::CCArray*)::$_0>, void ()>::__clone(std::__ndk1::__function::__base<void ()>*) const
PUBLIC 25968 0 std::__ndk1::__function::__func<RedesignedGauntletLayer::setupGauntlet(cocos2d::CCArray*)::$_0, std::__ndk1::allocator<RedesignedGauntletLayer::setupGauntlet(cocos2d::CCArray*)::$_0>, void ()>::destroy()
PUBLIC 2596c 0 std::__ndk1::__function::__func<RedesignedGauntletLayer::setupGauntlet(cocos2d::CCArray*)::$_0, std::__ndk1::allocator<RedesignedGauntletLayer::setupGauntlet(cocos2d::CCArray*)::$_0>, void ()>::destroy_deallocate()
PUBLIC 25970 0 std::__ndk1::__function::__func<RedesignedGauntletLayer::setupGauntlet(cocos2d::CCArray*)::$_0, std::__ndk1::allocator<RedesignedGauntletLayer::setupGauntlet(cocos2d::CCArray*)::$_0>, void ()>::operator()()
PUBLIC 2597c 0 std::__ndk1::__function::__func<RedesignedGauntletLayer::setupGauntlet(cocos2d::CCArray*)::$_0, std::__ndk1::allocator<RedesignedGauntletLayer::setupGauntlet(cocos2d::CCArray*)::$_0>, void ()>::target(std::type_info const&) const
PUBLIC 25998 0 std::__ndk1::__function::__func<RedesignedGauntletLayer::setupGauntlet(cocos2d::CCArray*)::$_0, std::__ndk1::allocator<RedesignedGauntletLayer::setupGauntlet(cocos2d::CCArray*)::$_0>, void ()>::target_type() const
PUBLIC 259a4 0 std::__ndk1::__function::__func<RedesignedGauntletLayer::setupGauntlet(cocos2d::CCArray*)::$_1, std::__ndk1::allocator<RedesignedGauntletLayer::setupGauntlet(cocos2d::CCArray*)::$_1>, void ()>::~__func()
PUBLIC 259a8 0 std::__ndk1::__function::__func<RedesignedGauntletLayer::setupGauntlet(cocos2d::CCArray*)::$_1, std::__ndk1::allocator<RedesignedGauntletLayer::setupGauntlet(cocos2d::CCArray*)::$_1>, void ()>::__clone() const
PUBLIC 259dc 0 std::__ndk1::__function::__func<RedesignedGauntletLayer::setupGauntlet(cocos2d::CCArray*)::$_1, std::__ndk1::allocator<RedesignedGauntletLayer::setupGauntlet(cocos2d::CCArray*)::$_1>, void ()>::__clone(std::__ndk1::__function::__base<void ()>*) const
PUBLIC 259f0 0 std::__ndk1::__function::__func<RedesignedGauntletLayer::setupGauntlet(cocos2d::CCArray*)::$_1, std::__ndk1::allocator<RedesignedGauntletLayer::setupGauntlet(cocos2d::CCArray*)::$_1>, void ()>::destroy()
PUBLIC 259f4 0 std::__ndk1::__function::__func<RedesignedGauntletLayer::setupGauntlet(cocos2d::CCArray*)::$_1, std::__ndk1::allocator<RedesignedGauntletLayer::setupGauntlet(cocos2d::CCArray*)::$_1>, void ()>::destroy_deallocate()
PUBLIC 259f8 0 std::__ndk1::__function::__func<RedesignedGauntletLayer::setupGauntlet(cocos2d::CCArray*)::$_1, std::__ndk1::allocator<RedesignedGauntletLayer::setupGauntlet(cocos2d::CCArray*)::$_1>, void ()>::operator()()
PUBLIC 25a04 0 std::__ndk1::__function::__func<RedesignedGauntletLayer::setupGauntlet(cocos2d::CCArray*)::$_1, std::__ndk1::allocator<RedesignedGauntletLayer::setupGauntlet(cocos2d::CCArray*)::$_1>, void ()>::target(std::type_info const&) const
PUBLIC 25a20 0 std::__ndk1::__function::__func<RedesignedGauntletLayer::setupGauntlet(cocos2d::CCArray*)::$_1, std::__ndk1::allocator<RedesignedGauntletLayer::setupGauntlet(cocos2d::CCArray*)::$_1>, void ()>::target_type() const
PUBLIC 25a2c 0 std::__ndk1::__function::__func<RedesignedGauntletLayer::setupGauntlet(cocos2d::CCArray*)::$_2, std::__ndk1::allocator<RedesignedGauntletLayer::setupGauntlet(cocos2d::CCArray*)::$_2>, void ()>::~__func()
PUBLIC 25a30 0 std::__ndk1::__function::__func<RedesignedGauntletLayer::setupGauntlet(cocos2d::CCArray*)::$_2, std::__ndk1::allocator<RedesignedGauntletLayer::setupGauntlet(cocos2d::CCArray*)::$_2>, void ()>::__clone() const
PUBLIC 25a64 0 std::__ndk1::__function::__func<RedesignedGauntletLayer::setupGauntlet(cocos2d::CCArray*)::$_2, std::__ndk1::allocator<RedesignedGauntletLayer::setupGauntlet(cocos2d::CCArray*)::$_2>, void ()>::__clone(std::__ndk1::__function::__base<void ()>*) const
PUBLIC 25a78 0 std::__ndk1::__function::__func<RedesignedGauntletLayer::setupGauntlet(cocos2d::CCArray*)::$_2, std::__ndk1::allocator<RedesignedGauntletLayer::setupGauntlet(cocos2d::CCArray*)::$_2>, void ()>::destroy()
PUBLIC 25a7c 0 std::__ndk1::__function::__func<RedesignedGauntletLayer::setupGauntlet(cocos2d::CCArray*)::$_2, std::__ndk1::allocator<RedesignedGauntletLayer::setupGauntlet(cocos2d::CCArray*)::$_2>, void ()>::destroy_deallocate()
PUBLIC 25a80 0 std::__ndk1::__function::__func<RedesignedGauntletLayer::setupGauntlet(cocos2d::CCArray*)::$_2, std::__ndk1::allocator<RedesignedGauntletLayer::setupGauntlet(cocos2d::CCArray*)::$_2>, void ()>::operator()()
PUBLIC 25a8c 0 std::__ndk1::__function::__func<RedesignedGauntletLayer::setupGauntlet(cocos2d::CCArray*)::$_2, std::__ndk1::allocator<RedesignedGauntletLayer::setupGauntlet(cocos2d::CCArray*)::$_2>, void ()>::target(std::type_info const&) const
PUBLIC 25aa8 0 std::__ndk1::__function::__func<RedesignedGauntletLayer::setupGauntlet(cocos2d::CCArray*)::$_2, std::__ndk1::allocator<RedesignedGauntletLayer::setupGauntlet(cocos2d::CCArray*)::$_2>, void ()>::target_type() const
PUBLIC 25ab4 0 std::__ndk1::__function::__func<RedesignedGauntletLayer::setupGauntlet(cocos2d::CCArray*)::$_3, std::__ndk1::allocator<RedesignedGauntletLayer::setupGauntlet(cocos2d::CCArray*)::$_3>, void ()>::~__func()
PUBLIC 25ab8 0 std::__ndk1::__function::__func<RedesignedGauntletLayer::setupGauntlet(cocos2d::CCArray*)::$_3, std::__ndk1::allocator<RedesignedGauntletLayer::setupGauntlet(cocos2d::CCArray*)::$_3>, void ()>::__clone() const
PUBLIC 25aec 0 std::__ndk1::__function::__func<RedesignedGauntletLayer::setupGauntlet(cocos2d::CCArray*)::$_3, std::__ndk1::allocator<RedesignedGauntletLayer::setupGauntlet(cocos2d::CCArray*)::$_3>, void ()>::__clone(std::__ndk1::__function::__base<void ()>*) const
PUBLIC 25b00 0 std::__ndk1::__function::__func<RedesignedGauntletLayer::setupGauntlet(cocos2d::CCArray*)::$_3, std::__ndk1::allocator<RedesignedGauntletLayer::setupGauntlet(cocos2d::CCArray*)::$_3>, void ()>::destroy()
PUBLIC 25b04 0 std::__ndk1::__function::__func<RedesignedGauntletLayer::setupGauntlet(cocos2d::CCArray*)::$_3, std::__ndk1::allocator<RedesignedGauntletLayer::setupGauntlet(cocos2d::CCArray*)::$_3>, void ()>::destroy_deallocate()
PUBLIC 25b08 0 std::__ndk1::__function::__func<RedesignedGauntletLayer::setupGauntlet(cocos2d::CCArray*)::$_3, std::__ndk1::allocator<RedesignedGauntletLayer::setupGauntlet(cocos2d::CCArray*)::$_3>, void ()>::operator()()
PUBLIC 25b14 0 std::__ndk1::__function::__func<RedesignedGauntletLayer::setupGauntlet(cocos2d::CCArray*)::$_3, std::__ndk1::allocator<RedesignedGauntletLayer::setupGauntlet(cocos2d::CCArray*)::$_3>, void ()>::target(std::type_info const&) const
PUBLIC 25b30 0 std::__ndk1::__function::__func<RedesignedGauntletLayer::setupGauntlet(cocos2d::CCArray*)::$_3, std::__ndk1::allocator<RedesignedGauntletLayer::setupGauntlet(cocos2d::CCArray*)::$_3>, void ()>::target_type() const
PUBLIC 25b3c 0 std::__ndk1::__function::__base<void ()>::~__base()
PUBLIC 25b40 0 std::__ndk1::__function::__func<RedesignedGauntletLayer::setupGauntlet(cocos2d::CCArray*)::$_4, std::__ndk1::allocator<RedesignedGauntletLayer::setupGauntlet(cocos2d::CCArray*)::$_4>, void ()>::~__func()
PUBLIC 25b44 0 std::__ndk1::__function::__func<RedesignedGauntletLayer::setupGauntlet(cocos2d::CCArray*)::$_4, std::__ndk1::allocator<RedesignedGauntletLayer::setupGauntlet(cocos2d::CCArray*)::$_4>, void ()>::__clone() const
PUBLIC 25b78 0 std::__ndk1::__function::__func<RedesignedGauntletLayer::setupGauntlet(cocos2d::CCArray*)::$_4, std::__ndk1::allocator<RedesignedGauntletLayer::setupGauntlet(cocos2d::CCArray*)::$_4>, void ()>::__clone(std::__ndk1::__function::__base<void ()>*) const
PUBLIC 25b8c 0 std::__ndk1::__function::__func<RedesignedGauntletLayer::setupGauntlet(cocos2d::CCArray*)::$_4, std::__ndk1::allocator<RedesignedGauntletLayer::setupGauntlet(cocos2d::CCArray*)::$_4>, void ()>::destroy()
PUBLIC 25b90 0 std::__ndk1::__function::__func<RedesignedGauntletLayer::setupGauntlet(cocos2d::CCArray*)::$_4, std::__ndk1::allocator<RedesignedGauntletLayer::setupGauntlet(cocos2d::CCArray*)::$_4>, void ()>::destroy_deallocate()
PUBLIC 25b94 0 std::__ndk1::__function::__func<RedesignedGauntletLayer::setupGauntlet(cocos2d::CCArray*)::$_4, std::__ndk1::allocator<RedesignedGauntletLayer::setupGauntlet(cocos2d::CCArray*)::$_4>, void ()>::operator()()
PUBLIC 25ba0 0 std::__ndk1::__function::__func<RedesignedGauntletLayer::setupGauntlet(cocos2d::CCArray*)::$_4, std::__ndk1::allocator<RedesignedGauntletLayer::setupGauntlet(cocos2d::CCArray*)::$_4>, void ()>::target(std::type_info const&) const
PUBLIC 25bbc 0 std::__ndk1::__function::__func<RedesignedGauntletLayer::setupGauntlet(cocos2d::CCArray*)::$_4, std::__ndk1::allocator<RedesignedGauntletLayer::setupGauntlet(cocos2d::CCArray*)::$_4>, void ()>::target_type() const
PUBLIC 25bc8 0 __cxx_global_var_init
PUBLIC 26048 0 geode::modifier::ModifyBase<geode::modifier::ModifyDerive<RedesignedGauntletNode, GauntletNode> >::~ModifyBase()
PUBLIC 26064 0 geode::modifier::ModifyDerive<RedesignedGauntletNode, GauntletNode>::apply()
PUBLIC 263a4 0 geode::modifier::ModifyBase<geode::modifier::ModifyDerive<RedesignedGauntletNode, GauntletNode> >::apply()
PUBLIC 263a8 0 geode::modifier::AsStaticFunction_frameForType<RedesignedGauntletNode, gd::string (*)(GauntletType)>::Impl<gd::string (*)(GauntletType)>::function(GauntletType)
PUBLIC 263c4 0 __cxx_global_var_init.1
PUBLIC 26424 0 geode::modifier::ModifyBase<geode::modifier::ModifyDerive<GauntletSelectLayerHook, GauntletSelectLayer> >::~ModifyBase()
PUBLIC 26440 0 __cxx_global_var_init.2
PUBLIC 264a0 0 geode::modifier::ModifyBase<geode::modifier::ModifyDerive<RedesignedGauntletSelectLayer, GauntletSelectLayer> >::~ModifyBase()
PUBLIC 264bc 0 geode::modifier::ModifyBase<geode::modifier::ModifyDerive<GauntletSelectLayerHook, GauntletSelectLayer> >::ModifyBase()
PUBLIC 268b8 0 geode::modifier::ModifyDerive<GauntletSelectLayerHook, GauntletSelectLayer>::apply()
PUBLIC 26b58 0 geode::modifier::ModifyBase<geode::modifier::ModifyDerive<GauntletSelectLayerHook, GauntletSelectLayer> >::apply()
PUBLIC 26b5c 0 geode::Hook::create<bool (*)(GauntletSelectLayerHook*, int)>(void*, bool (*)(GauntletSelectLayerHook*, int), std::__ndk1::basic_string<char, std::__ndk1::char_traits<char>, std::__ndk1::allocator<char> > const&, tulip::hook::TulipConvention, tulip::hook::HookMetadata const&)
PUBLIC 26ce0 0 geode::modifier::AsStaticFunction_init<GauntletSelectLayerHook, bool (GauntletSelectLayerHook::*)(int)>::Impl<bool (GauntletSelectLayerHook::*)(int)>::function(GauntletSelectLayerHook*, int)
PUBLIC 26ce4 0 GauntletSelectLayerHook::init(int)
PUBLIC 279ec 0 geode::modifier::ModifyBase<geode::modifier::ModifyDerive<RedesignedGauntletSelectLayer, GauntletSelectLayer> >::ModifyBase()
PUBLIC 27de8 0 geode::modifier::ModifyDerive<RedesignedGauntletSelectLayer, GauntletSelectLayer>::apply()
PUBLIC 28488 0 geode::modifier::ModifyBase<geode::modifier::ModifyDerive<RedesignedGauntletSelectLayer, GauntletSelectLayer> >::apply()
PUBLIC 2848c 0 geode::Hook::create<void (*)(RedesignedGauntletSelectLayer*, cocos2d::CCObject*)>(void*, void (*)(RedesignedGauntletSelectLayer*, cocos2d::CCObject*), std::__ndk1::basic_string<char, std::__ndk1::char_traits<char>, std::__ndk1::allocator<char> > const&, tulip::hook::TulipConvention, tulip::hook::HookMetadata const&)
PUBLIC 28610 0 geode::modifier::AsStaticFunction_onBack<RedesignedGauntletSelectLayer, void (RedesignedGauntletSelectLayer::*)(cocos2d::CCObject*)>::Impl<void (RedesignedGauntletSelectLayer::*)(cocos2d::CCObject*)>::function(RedesignedGauntletSelectLayer*, cocos2d::CCObject*)
PUBLIC 28648 0 geode::Hook::create<void (*)(RedesignedGauntletSelectLayer*)>(void*, void (*)(RedesignedGauntletSelectLayer*), std::__ndk1::basic_string<char, std::__ndk1::char_traits<char>, std::__ndk1::allocator<char> > const&, tulip::hook::TulipConvention, tulip::hook::HookMetadata const&)
PUBLIC 2877c 0 geode::modifier::AsStaticFunction_setupGauntlets<RedesignedGauntletSelectLayer, void (RedesignedGauntletSelectLayer::*)()>::Impl<void (RedesignedGauntletSelectLayer::*)()>::function(RedesignedGauntletSelectLayer*)
PUBLIC 28780 0 geode::modifier::AsStaticFunction_updateArrows<RedesignedGauntletSelectLayer, void (RedesignedGauntletSelectLayer::*)()>::Impl<void (RedesignedGauntletSelectLayer::*)()>::function(RedesignedGauntletSelectLayer*)
PUBLIC 287c8 0 geode::modifier::FieldIntermediate<RedesignedGauntletSelectLayer, GauntletSelectLayer>::self()
PUBLIC 28958 0 geode::modifier::FieldIntermediate<RedesignedGauntletSelectLayer, GauntletSelectLayer>::fieldDestructor(void*)
PUBLIC 28970 0 RedesignedGauntletSelectLayer::setupGauntlets()
PUBLIC 29b18 0 RedesignedGauntletSelectLayer::onDot(cocos2d::CCObject*)
PUBLIC 29ba8 0 RedesignedGauntletSelectLayer::updateDots()
PUBLIC 29d10 0 RedesignedGauntletSelectLayer::findCurrentGauntletPageUsing(cocos2d::CCArray*)
PUBLIC 29e24 0 RedesignedGauntletSelectLayer::defineKeybind(char const*, std::__ndk1::function<void ()>)
PUBLIC 2a01c 0 geode::cocos::CCArrayExt<cocos2d::CCSprite*, cocos2d::CCSprite>::~CCArrayExt()
PUBLIC 2a03c 0 std::__ndk1::vector<CCMenuItemSpriteExtra*, std::__ndk1::allocator<CCMenuItemSpriteExtra*> >::__throw_length_error[abi:ne180000]() const
PUBLIC 2a050 0 std::__ndk1::__function::__func<RedesignedGauntletSelectLayer::defineKeybind(char const*, std::__ndk1::function<void ()>)::{lambda(keybinds::InvokeBindEvent*)#1}, std::__ndk1::allocator<RedesignedGauntletSelectLayer::defineKeybind(char const*, std::__ndk1::function<void ()>)::{lambda(keybinds::InvokeBindEvent*)#1}>, geode::ListenerResult(keybinds::InvokeBindEvent*)>::~__func()
PUBLIC 2a09c 0 std::__ndk1::__function::__func<RedesignedGauntletSelectLayer::defineKeybind(char const*, std::__ndk1::function<void ()>)::{lambda(keybinds::InvokeBindEvent*)#1}, std::__ndk1::allocator<RedesignedGauntletSelectLayer::defineKeybind(char const*, std::__ndk1::function<void ()>)::{lambda(keybinds::InvokeBindEvent*)#1}>, geode::ListenerResult(keybinds::InvokeBindEvent*)>::~__func()
PUBLIC 2a0f8 0 std::__ndk1::__function::__func<RedesignedGauntletSelectLayer::defineKeybind(char const*, std::__ndk1::function<void ()>)::{lambda(keybinds::InvokeBindEvent*)#1}, std::__ndk1::allocator<RedesignedGauntletSelectLayer::defineKeybind(char const*, std::__ndk1::function<void ()>)::{lambda(keybinds::InvokeBindEvent*)#1}>, geode::ListenerResult(keybinds::InvokeBindEvent*)>::__clone() const
PUBLIC 2a18c 0 std::__ndk1::__function::__func<RedesignedGauntletSelectLayer::defineKeybind(char const*, std::__ndk1::function<void ()>)::{lambda(keybinds::InvokeBindEvent*)#1}, std::__ndk1::allocator<RedesignedGauntletSelectLayer::defineKeybind(char const*, std::__ndk1::function<void ()>)::{lambda(keybinds::InvokeBindEvent*)#1}>, geode::ListenerResult(keybinds::InvokeBindEvent*)>::__clone(std::__ndk1::__function::__base<geode::ListenerResult(keybinds::InvokeBindEvent*)>*) const
PUBLIC 2a208 0 std::__ndk1::__function::__func<RedesignedGauntletSelectLayer::defineKeybind(char const*, std::__ndk1::function<void ()>)::{lambda(keybinds::InvokeBindEvent*)#1}, std::__ndk1::allocator<RedesignedGauntletSelectLayer::defineKeybind(char const*, std::__ndk1::function<void ()>)::{lambda(keybinds::InvokeBindEvent*)#1}>, geode::ListenerResult(keybinds::InvokeBindEvent*)>::destroy()
PUBLIC 2a248 0 std::__ndk1::__function::__func<RedesignedGauntletSelectLayer::defineKeybind(char const*, std::__ndk1::function<void ()>)::{lambda(keybinds::InvokeBindEvent*)#1}, std::__ndk1::allocator<RedesignedGauntletSelectLayer::defineKeybind(char const*, std::__ndk1::function<void ()>)::{lambda(keybinds::InvokeBindEvent*)#1}>, geode::ListenerResult(keybinds::InvokeBindEvent*)>::destroy_deallocate()
PUBLIC 2a298 0 std::__ndk1::__function::__func<RedesignedGauntletSelectLayer::defineKeybind(char const*, std::__ndk1::function<void ()>)::{lambda(keybinds::InvokeBindEvent*)#1}, std::__ndk1::allocator<RedesignedGauntletSelectLayer::defineKeybind(char const*, std::__ndk1::function<void ()>)::{lambda(keybinds::InvokeBindEvent*)#1}>, geode::ListenerResult(keybinds::InvokeBindEvent*)>::operator()(keybinds::InvokeBindEvent*&&)
PUBLIC 2a2e0 0 std::__ndk1::__function::__func<RedesignedGauntletSelectLayer::defineKeybind(char const*, std::__ndk1::function<void ()>)::{lambda(keybinds::InvokeBindEvent*)#1}, std::__ndk1::allocator<RedesignedGauntletSelectLayer::defineKeybind(char const*, std::__ndk1::function<void ()>)::{lambda(keybinds::InvokeBindEvent*)#1}>, geode::ListenerResult(keybinds::InvokeBindEvent*)>::target(std::type_info const&) const
PUBLIC 2a2fc 0 std::__ndk1::__function::__func<RedesignedGauntletSelectLayer::defineKeybind(char const*, std::__ndk1::function<void ()>)::{lambda(keybinds::InvokeBindEvent*)#1}, std::__ndk1::allocator<RedesignedGauntletSelectLayer::defineKeybind(char const*, std::__ndk1::function<void ()>)::{lambda(keybinds::InvokeBindEvent*)#1}>, geode::ListenerResult(keybinds::InvokeBindEvent*)>::target_type() const
PUBLIC 2a308 0 std::__ndk1::__function::__func<RedesignedGauntletSelectLayer::setupGauntlets()::{lambda()#1}, std::__ndk1::allocator<RedesignedGauntletSelectLayer::setupGauntlets()::{lambda()#1}>, void ()>::~__func()
PUBLIC 2a30c 0 std::__ndk1::__function::__func<RedesignedGauntletSelectLayer::setupGauntlets()::{lambda()#1}, std::__ndk1::allocator<RedesignedGauntletSelectLayer::setupGauntlets()::{lambda()#1}>, void ()>::__clone() const
PUBLIC 2a340 0 std::__ndk1::__function::__func<RedesignedGauntletSelectLayer::setupGauntlets()::{lambda()#1}, std::__ndk1::allocator<RedesignedGauntletSelectLayer::setupGauntlets()::{lambda()#1}>, void ()>::__clone(std::__ndk1::__function::__base<void ()>*) const
PUBLIC 2a354 0 std::__ndk1::__function::__func<RedesignedGauntletSelectLayer::setupGauntlets()::{lambda()#1}, std::__ndk1::allocator<RedesignedGauntletSelectLayer::setupGauntlets()::{lambda()#1}>, void ()>::destroy()
PUBLIC 2a358 0 std::__ndk1::__function::__func<RedesignedGauntletSelectLayer::setupGauntlets()::{lambda()#1}, std::__ndk1::allocator<RedesignedGauntletSelectLayer::setupGauntlets()::{lambda()#1}>, void ()>::destroy_deallocate()
PUBLIC 2a35c 0 std::__ndk1::__function::__func<RedesignedGauntletSelectLayer::setupGauntlets()::{lambda()#1}, std::__ndk1::allocator<RedesignedGauntletSelectLayer::setupGauntlets()::{lambda()#1}>, void ()>::operator()()
PUBLIC 2a368 0 std::__ndk1::__function::__func<RedesignedGauntletSelectLayer::setupGauntlets()::{lambda()#1}, std::__ndk1::allocator<RedesignedGauntletSelectLayer::setupGauntlets()::{lambda()#1}>, void ()>::target(std::type_info const&) const
PUBLIC 2a384 0 std::__ndk1::__function::__func<RedesignedGauntletSelectLayer::setupGauntlets()::{lambda()#1}, std::__ndk1::allocator<RedesignedGauntletSelectLayer::setupGauntlets()::{lambda()#1}>, void ()>::target_type() const
PUBLIC 2a390 0 std::__ndk1::__function::__func<RedesignedGauntletSelectLayer::setupGauntlets()::{lambda()#2}, std::__ndk1::allocator<RedesignedGauntletSelectLayer::setupGauntlets()::{lambda()#2}>, void ()>::~__func()
PUBLIC 2a394 0 std::__ndk1::__function::__func<RedesignedGauntletSelectLayer::setupGauntlets()::{lambda()#2}, std::__ndk1::allocator<RedesignedGauntletSelectLayer::setupGauntlets()::{lambda()#2}>, void ()>::__clone() const
PUBLIC 2a3c8 0 std::__ndk1::__function::__func<RedesignedGauntletSelectLayer::setupGauntlets()::{lambda()#2}, std::__ndk1::allocator<RedesignedGauntletSelectLayer::setupGauntlets()::{lambda()#2}>, void ()>::__clone(std::__ndk1::__function::__base<void ()>*) const
PUBLIC 2a3dc 0 std::__ndk1::__function::__func<RedesignedGauntletSelectLayer::setupGauntlets()::{lambda()#2}, std::__ndk1::allocator<RedesignedGauntletSelectLayer::setupGauntlets()::{lambda()#2}>, void ()>::destroy()
PUBLIC 2a3e0 0 std::__ndk1::__function::__func<RedesignedGauntletSelectLayer::setupGauntlets()::{lambda()#2}, std::__ndk1::allocator<RedesignedGauntletSelectLayer::setupGauntlets()::{lambda()#2}>, void ()>::destroy_deallocate()
PUBLIC 2a3e4 0 std::__ndk1::__function::__func<RedesignedGauntletSelectLayer::setupGauntlets()::{lambda()#2}, std::__ndk1::allocator<RedesignedGauntletSelectLayer::setupGauntlets()::{lambda()#2}>, void ()>::operator()()
PUBLIC 2a3f0 0 std::__ndk1::__function::__func<RedesignedGauntletSelectLayer::setupGauntlets()::{lambda()#2}, std::__ndk1::allocator<RedesignedGauntletSelectLayer::setupGauntlets()::{lambda()#2}>, void ()>::target(std::type_info const&) const
PUBLIC 2a40c 0 std::__ndk1::__function::__func<RedesignedGauntletSelectLayer::setupGauntlets()::{lambda()#2}, std::__ndk1::allocator<RedesignedGauntletSelectLayer::setupGauntlets()::{lambda()#2}>, void ()>::target_type() const
PUBLIC 2a418 0 std::__ndk1::__function::__func<RedesignedGauntletSelectLayer::setupGauntlets()::{lambda()#3}, std::__ndk1::allocator<RedesignedGauntletSelectLayer::setupGauntlets()::{lambda()#3}>, void ()>::~__func()
PUBLIC 2a41c 0 std::__ndk1::__function::__func<RedesignedGauntletSelectLayer::setupGauntlets()::{lambda()#3}, std::__ndk1::allocator<RedesignedGauntletSelectLayer::setupGauntlets()::{lambda()#3}>, void ()>::__clone() const
PUBLIC 2a450 0 std::__ndk1::__function::__func<RedesignedGauntletSelectLayer::setupGauntlets()::{lambda()#3}, std::__ndk1::allocator<RedesignedGauntletSelectLayer::setupGauntlets()::{lambda()#3}>, void ()>::__clone(std::__ndk1::__function::__base<void ()>*) const
PUBLIC 2a464 0 std::__ndk1::__function::__func<RedesignedGauntletSelectLayer::setupGauntlets()::{lambda()#3}, std::__ndk1::allocator<RedesignedGauntletSelectLayer::setupGauntlets()::{lambda()#3}>, void ()>::destroy()
PUBLIC 2a468 0 std::__ndk1::__function::__func<RedesignedGauntletSelectLayer::setupGauntlets()::{lambda()#3}, std::__ndk1::allocator<RedesignedGauntletSelectLayer::setupGauntlets()::{lambda()#3}>, void ()>::destroy_deallocate()
PUBLIC 2a46c 0 std::__ndk1::__function::__func<RedesignedGauntletSelectLayer::setupGauntlets()::{lambda()#3}, std::__ndk1::allocator<RedesignedGauntletSelectLayer::setupGauntlets()::{lambda()#3}>, void ()>::operator()()
PUBLIC 2a478 0 std::__ndk1::__function::__func<RedesignedGauntletSelectLayer::setupGauntlets()::{lambda()#3}, std::__ndk1::allocator<RedesignedGauntletSelectLayer::setupGauntlets()::{lambda()#3}>, void ()>::target(std::type_info const&) const
PUBLIC 2a494 0 std::__ndk1::__function::__func<RedesignedGauntletSelectLayer::setupGauntlets()::{lambda()#3}, std::__ndk1::allocator<RedesignedGauntletSelectLayer::setupGauntlets()::{lambda()#3}>, void ()>::target_type() const
PUBLIC 2a4a0 0 RedesignedGauntletSelectLayer::pressGauntlet(int)
PUBLIC 2a770 0 std::__ndk1::__function::__func<RedesignedGauntletSelectLayer::setupGauntlets()::{lambda()#4}, std::__ndk1::allocator<RedesignedGauntletSelectLayer::setupGauntlets()::{lambda()#4}>, void ()>::~__func()
PUBLIC 2a774 0 std::__ndk1::__function::__func<RedesignedGauntletSelectLayer::setupGauntlets()::{lambda()#4}, std::__ndk1::allocator<RedesignedGauntletSelectLayer::setupGauntlets()::{lambda()#4}>, void ()>::__clone() const
PUBLIC 2a7a8 0 std::__ndk1::__function::__func<RedesignedGauntletSelectLayer::setupGauntlets()::{lambda()#4}, std::__ndk1::allocator<RedesignedGauntletSelectLayer::setupGauntlets()::{lambda()#4}>, void ()>::__clone(std::__ndk1::__function::__base<void ()>*) const
PUBLIC 2a7bc 0 std::__ndk1::__function::__func<RedesignedGauntletSelectLayer::setupGauntlets()::{lambda()#4}, std::__ndk1::allocator<RedesignedGauntletSelectLayer::setupGauntlets()::{lambda()#4}>, void ()>::destroy()
PUBLIC 2a7c0 0 std::__ndk1::__function::__func<RedesignedGauntletSelectLayer::setupGauntlets()::{lambda()#4}, std::__ndk1::allocator<RedesignedGauntletSelectLayer::setupGauntlets()::{lambda()#4}>, void ()>::destroy_deallocate()
PUBLIC 2a7c4 0 std::__ndk1::__function::__func<RedesignedGauntletSelectLayer::setupGauntlets()::{lambda()#4}, std::__ndk1::allocator<RedesignedGauntletSelectLayer::setupGauntlets()::{lambda()#4}>, void ()>::operator()()
PUBLIC 2a7d0 0 std::__ndk1::__function::__func<RedesignedGauntletSelectLayer::setupGauntlets()::{lambda()#4}, std::__ndk1::allocator<RedesignedGauntletSelectLayer::setupGauntlets()::{lambda()#4}>, void ()>::target(std::type_info const&) const
PUBLIC 2a7ec 0 std::__ndk1::__function::__func<RedesignedGauntletSelectLayer::setupGauntlets()::{lambda()#4}, std::__ndk1::allocator<RedesignedGauntletSelectLayer::setupGauntlets()::{lambda()#4}>, void ()>::target_type() const
PUBLIC 2a7f8 0 std::__ndk1::__function::__func<RedesignedGauntletSelectLayer::setupGauntlets()::{lambda()#5}, std::__ndk1::allocator<RedesignedGauntletSelectLayer::setupGauntlets()::{lambda()#5}>, void ()>::~__func()
PUBLIC 2a7fc 0 std::__ndk1::__function::__func<RedesignedGauntletSelectLayer::setupGauntlets()::{lambda()#5}, std::__ndk1::allocator<RedesignedGauntletSelectLayer::setupGauntlets()::{lambda()#5}>, void ()>::__clone() const
PUBLIC 2a830 0 std::__ndk1::__function::__func<RedesignedGauntletSelectLayer::setupGauntlets()::{lambda()#5}, std::__ndk1::allocator<RedesignedGauntletSelectLayer::setupGauntlets()::{lambda()#5}>, void ()>::__clone(std::__ndk1::__function::__base<void ()>*) const
PUBLIC 2a844 0 std::__ndk1::__function::__func<RedesignedGauntletSelectLayer::setupGauntlets()::{lambda()#5}, std::__ndk1::allocator<RedesignedGauntletSelectLayer::setupGauntlets()::{lambda()#5}>, void ()>::destroy()
PUBLIC 2a848 0 std::__ndk1::__function::__func<RedesignedGauntletSelectLayer::setupGauntlets()::{lambda()#5}, std::__ndk1::allocator<RedesignedGauntletSelectLayer::setupGauntlets()::{lambda()#5}>, void ()>::destroy_deallocate()
PUBLIC 2a84c 0 std::__ndk1::__function::__func<RedesignedGauntletSelectLayer::setupGauntlets()::{lambda()#5}, std::__ndk1::allocator<RedesignedGauntletSelectLayer::setupGauntlets()::{lambda()#5}>, void ()>::operator()()
PUBLIC 2a858 0 std::__ndk1::__function::__func<RedesignedGauntletSelectLayer::setupGauntlets()::{lambda()#5}, std::__ndk1::allocator<RedesignedGauntletSelectLayer::setupGauntlets()::{lambda()#5}>, void ()>::target(std::type_info const&) const
PUBLIC 2a874 0 std::__ndk1::__function::__func<RedesignedGauntletSelectLayer::setupGauntlets()::{lambda()#5}, std::__ndk1::allocator<RedesignedGauntletSelectLayer::setupGauntlets()::{lambda()#5}>, void ()>::target_type() const
PUBLIC 2a880 0 _GLOBAL__sub_I_GSL_Keybinds.cpp
PUBLIC m 2ba20 0 geodeImplicitEntry
PUBLIC 2ba5c 0 wrapFunction(unsigned long, tulip::hook::WrapperMetadata const&)
PUBLIC 2bb90 0 geode::impl::ResultData<void*, std::__ndk1::basic_string<char, std::__ndk1::char_traits<char>, std::__ndk1::allocator<char> > >::unwrapErr() &
PUBLIC 2bc08 0 geode::impl::ResultData<void*, std::__ndk1::basic_string<char, std::__ndk1::char_traits<char>, std::__ndk1::allocator<char> > >::~ResultData()
PUBLIC 2bc7c 0 tulip::hook::WrapperMetadata::~WrapperMetadata()
PUBLIC 2bce0 0 cocos2d::CCDictionary::objectForKey(gd::string const&)
PUBLIC 2be30 0 tulip::hook::AbstractFunction::from<cocos2d::CCObject*, cocos2d::CCDictionary*, gd::string const&>(cocos2d::CCObject* (*)(cocos2d::CCDictionary*, gd::string const&))
PUBLIC 2bed8 0 GameToolbox::particleFromString(gd::string const&, cocos2d::CCParticleSystemQuad*, bool)
PUBLIC 2c038 0 tulip::hook::AbstractFunction::from<cocos2d::CCParticleSystemQuad*, gd::string const&, cocos2d::CCParticleSystemQuad*, bool>(cocos2d::CCParticleSystemQuad* (*)(gd::string const&, cocos2d::CCParticleSystemQuad*, bool))
PUBLIC 2c140 0 GJSearchObject::create(SearchType, gd::string)
PUBLIC 2c2c0 0 tulip::hook::AbstractFunction::from<GJSearchObject*, SearchType, gd::string>(GJSearchObject* (*)(SearchType, gd::string))
PUBLIC 2c364 0 _ZN5geode15UnwrapExceptionC2IRPvQsr4implE18IsStringStreamableIT_EEENS_4impl5OkTagEOS4_
PUBLIC 2c4b8 0 _ZN5geode15UnwrapExceptionC2IRNSt6__ndk112basic_stringIcNS2_11char_traitsIcEENS2_9allocatorIcEEEEQsr4implE18IsStringStreamableIT_EEENS_4impl6ErrTagEOSA_
PUBLIC 2c620 0 std::__ndk1::__variant_detail::__visitation::__base::__dispatcher<(unsigned long)0>::__dispatch[abi:ne180000]<std::__ndk1::__variant_detail::__dtor<std::__ndk1::__variant_detail::__traits<void*, std::__ndk1::basic_string<char, std::__ndk1::char_traits<char>, std::__ndk1::allocator<char> > >, (std::__ndk1::__variant_detail::_Trait)1>::__destroy[abi:ne180000]()::{lambda(auto:1&)#1}, std::__ndk1::__variant_detail::__base<(std::__ndk1::__variant_detail::__traits<void*, std::__ndk1::basic_string<char, std::__ndk1::char_traits<char>, std::__ndk1::allocator<char> > >)1, std::__ndk1::__variant_detail::__traits, std::__ndk1::allocator<char> >&>(std::__ndk1::__variant_detail::__dtor<std::__ndk1::__variant_detail::__traits<void*, std::__ndk1::basic_string<char, std::__ndk1::char_traits<char>, std::__ndk1::allocator<char> > >, (std::__ndk1::__variant_detail::_Trait)1>, std::__ndk1::__variant_detail::__base<(std::__ndk1::__variant_detail::__traits<void*, std::__ndk1::basic_string<char, std::__ndk1::char_traits<char>, std::__ndk1::allocator<char> > >)1, std::__ndk1::__variant_detail::__traits, std::__ndk1::allocator<char> >&)
PUBLIC 2c624 0 std::__ndk1::__variant_detail::__visitation::__base::__dispatcher<(unsigned long)1>::__dispatch[abi:ne180000]<std::__ndk1::__variant_detail::__dtor<std::__ndk1::__variant_detail::__traits<void*, std::__ndk1::basic_string<char, std::__ndk1::char_traits<char>, std::__ndk1::allocator<char> > >, (std::__ndk1::__variant_detail::_Trait)1>::__destroy[abi:ne180000]()::{lambda(auto:1&)#1}, std::__ndk1::__variant_detail::__base<(std::__ndk1::__variant_detail::__traits<void*, std::__ndk1::basic_string<char, std::__ndk1::char_traits<char>, std::__ndk1::allocator<char> > >)1, std::__ndk1::__variant_detail::__traits, std::__ndk1::allocator<char> >&>(std::__ndk1::__variant_detail::__dtor<std::__ndk1::__variant_detail::__traits<void*, std::__ndk1::basic_string<char, std::__ndk1::char_traits<char>, std::__ndk1::allocator<char> > >, (std::__ndk1::__variant_detail::_Trait)1>, std::__ndk1::__variant_detail::__base<(std::__ndk1::__variant_detail::__traits<void*, std::__ndk1::basic_string<char, std::__ndk1::char_traits<char>, std::__ndk1::allocator<char> > >)1, std::__ndk1::__variant_detail::__traits, std::__ndk1::allocator<char> >&)
PUBLIC 2c638 0 __udivti3
PUBLIC 2c644 0 __udivmodti4
PUBLIC m 2c890 0 __eqtf2
PUBLIC 2c930 0 __unordtf2
PUBLIC 2c968 0 fmt::v11::detail::write_loc(fmt::v11::basic_appender<char>, fmt::v11::loc_value, fmt::v11::format_specs const&, fmt::v11::detail::locale_ref)
PUBLIC 2cbfc 0 fmt::v11::format_facet<std::__ndk1::locale>::~format_facet()
PUBLIC 2cc78 0 fmt::v11::report_error(char const*)
PUBLIC 2ccc8 0 fmt::v11::format_error::runtime_error(char const*)
PUBLIC 2ccf4 0 fmt::v11::format_facet<std::__ndk1::locale>::do_put(fmt::v11::basic_appender<char>, fmt::v11::loc_value, fmt::v11::format_specs const&) const
PUBLIC 2d4b4 0 fmt::v11::detail::loc_writer<char>::~loc_writer()
PUBLIC 2d518 0 fmt::v11::detail::vformat_to<char>(fmt::v11::detail::buffer<char>&, fmt::v11::basic_string_view<char>, fmt::v11::detail::vformat_args<char>::type, fmt::v11::detail::locale_ref)
PUBLIC 2da88 0 fmt::v11::detail::is_printable(unsigned int)
PUBLIC 2dcb0 0 fmt::v11::detail::dragonbox::to_decimal<float>(float)
PUBLIC 2df8c 0 fmt::v11::detail::dragonbox::to_decimal<double>(double)
PUBLIC 2e4c8 0 fmt::v11::basic_memory_buffer<char, (unsigned long)500, std::__ndk1::allocator<char> >::grow(fmt::v11::detail::buffer<char>&, unsigned long)
PUBLIC 2e540 0 fmt::v11::format_facet<std::__ndk1::locale>::~format_facet()
PUBLIC 2e5cc 0 fmt::v11::format_error::~format_error()
PUBLIC 2e5f0 0 fmt::v11::detail::copy_noinline<char, char const*, fmt::v11::basic_appender<char> >(char const*, char const*, fmt::v11::basic_appender<char>)
PUBLIC 2e740 0 fmt::v11::detail::default_arg_formatter<char>::operator()<bool>(bool)
PUBLIC 2e7a8 0 fmt::v11::detail::default_arg_formatter<char>::operator()<char>(char)
PUBLIC 2e838 0 fmt::v11::detail::default_arg_formatter<char>::operator()<float>(float)
PUBLIC 2e924 0 fmt::v11::detail::default_arg_formatter<char>::operator()<double>(double)
PUBLIC 2ea10 0 fmt::v11::detail::default_arg_formatter<char>::operator()<char const*>(char const*)
PUBLIC 2ea58 0 fmt::v11::detail::default_arg_formatter<char>::operator()<void const*>(void const*)
PUBLIC 2eaf0 0 _ZN3fmt3v116detail5writeIcNS0_14basic_appenderIcEEiTnNSt6__ndk19enable_ifIXaaaasr11is_integralIT1_EE5valuentsr3std7is_sameIS7_bEE5valuentsr3std7is_sameIS7_T_EE5valueEiE4typeELi0EEET0_SB_S7_
PUBLIC 2ed50 0 fmt::v11::detail::copy_noinline<char, char*, fmt::v11::basic_appender<char> >(char*, char*, fmt::v11::basic_appender<char>)
PUBLIC 2eea0 0 _ZN3fmt3v116detail5writeIcNS0_14basic_appenderIcEEjTnNSt6__ndk19enable_ifIXaaaasr11is_integralIT1_EE5valuentsr3std7is_sameIS7_bEE5valuentsr3std7is_sameIS7_T_EE5valueEiE4typeELi0EEET0_SB_S7_
PUBLIC 2f080 0 _ZN3fmt3v116detail5writeIcNS0_14basic_appenderIcEExTnNSt6__ndk19enable_ifIXaaaasr11is_integralIT1_EE5valuentsr3std7is_sameIS7_bEE5valuentsr3std7is_sameIS7_T_EE5valueEiE4typeELi0EEET0_SB_S7_
PUBLIC 2f304 0 _ZN3fmt3v116detail5writeIcNS0_14basic_appenderIcEEyTnNSt6__ndk19enable_ifIXaaaasr11is_integralIT1_EE5valuentsr3std7is_sameIS7_bEE5valuentsr3std7is_sameIS7_T_EE5valueEiE4typeELi0EEET0_SB_S7_
PUBLIC 2f50c 0 _ZN3fmt3v116detail5writeIcNS0_14basic_appenderIcEEnTnNSt6__ndk19enable_ifIXaaaasr11is_integralIT1_EE5valuentsr3std7is_sameIS7_bEE5valuentsr3std7is_sameIS7_T_EE5valueEiE4typeELi0EEET0_SB_S7_
PUBLIC 2f86c 0 _ZN3fmt3v116detail5writeIcNS0_14basic_appenderIcEEoTnNSt6__ndk19enable_ifIXaaaasr11is_integralIT1_EE5valuentsr3std7is_sameIS7_bEE5valuentsr3std7is_sameIS7_T_EE5valueEiE4typeELi0EEET0_SB_S7_
PUBLIC 2fb80 0 _ZN3fmt3v116detail5writeIcNS0_14basic_appenderIcEEbTnNSt6__ndk19enable_ifIXsr3std7is_sameIT1_bEE5valueEiE4typeELi0EEET0_SA_S7_RKNS0_12format_specsENS1_10locale_refE
PUBLIC 2fe10 0 fmt::v11::detail::write_int_noinline<char, fmt::v11::basic_appender<char>, unsigned int>(fmt::v11::basic_appender<char>, fmt::v11::detail::write_int_arg<unsigned int>, fmt::v11::format_specs const&, fmt::v11::detail::locale_ref)
PUBLIC 30bec 0 fmt::v11::detail::fill<char, fmt::v11::basic_appender<char> >(fmt::v11::basic_appender<char>, unsigned long, fmt::v11::detail::fill_t const&)
PUBLIC 30dbc 0 fmt::v11::detail::write_padded<char, (fmt::v11::align::type)1, fmt::v11::basic_appender<char>, fmt::v11::detail::write_char<char, fmt::v11::basic_appender<char> >(fmt::v11::basic_appender<char>, char, fmt::v11::format_specs const&)::{lambda(fmt::v11::basic_appender<char>&)#1}>(fmt::v11::basic_appender<char>, fmt::v11::format_specs const&, unsigned long, unsigned long, fmt::v11::detail::write_char<char, fmt::v11::basic_appender<char> >(fmt::v11::basic_appender<char>, char, fmt::v11::format_specs const&)::{lambda(fmt::v11::basic_appender<char>&)#1})
PUBLIC 30ff8 0 fmt::v11::detail::write_escaped_cp<fmt::v11::basic_appender<char>, char>(fmt::v11::basic_appender<char>, fmt::v11::detail::find_escape_result<char> const&)
PUBLIC 31304 0 fmt::v11::detail::write_codepoint<(unsigned long)2, char, fmt::v11::basic_appender<char> >(fmt::v11::basic_appender<char>, char, unsigned int)
PUBLIC 3147c 0 fmt::v11::detail::write_codepoint<(unsigned long)8, char, fmt::v11::basic_appender<char> >(fmt::v11::basic_appender<char>, char, unsigned int)
PUBLIC 315f4 0 fmt::v11::detail::write_padded<char, (fmt::v11::align::type)1, fmt::v11::basic_appender<char>, fmt::v11::detail::write_nonfinite<char, fmt::v11::basic_appender<char> >(fmt::v11::basic_appender<char>, bool, fmt::v11::format_specs, fmt::v11::sign::type)::{lambda(fmt::v11::basic_appender<char>&)#1}>(fmt::v11::basic_appender<char>, fmt::v11::format_specs const&, unsigned long, unsigned long, fmt::v11::detail::write_nonfinite<char, fmt::v11::basic_appender<char> >(fmt::v11::basic_appender<char>, bool, fmt::v11::format_specs, fmt::v11::sign::type)::{lambda(fmt::v11::basic_appender<char>&)#1})
PUBLIC 31834 0 fmt::v11::detail::do_write_float<char, fmt::v11::basic_appender<char>, fmt::v11::detail::dragonbox::decimal_fp<float>, fmt::v11::detail::digit_grouping<char> >(fmt::v11::basic_appender<char>, fmt::v11::detail::dragonbox::decimal_fp<float> const&, fmt::v11::format_specs const&, fmt::v11::detail::float_specs, fmt::v11::detail::locale_ref)
PUBLIC 324a8 0 fmt::v11::detail::do_write_float<char, fmt::v11::basic_appender<char>, fmt::v11::detail::dragonbox::decimal_fp<float>, fmt::v11::detail::digit_grouping<char> >(fmt::v11::basic_appender<char>, fmt::v11::detail::dragonbox::decimal_fp<float> const&, fmt::v11::format_specs const&, fmt::v11::detail::float_specs, fmt::v11::detail::locale_ref)::{lambda(fmt::v11::basic_appender<char>(fmt::v11::basic_appender<char>))#1}::operator() const
PUBLIC 325fc 0 fmt::v11::detail::digit_grouping<char>::digit_grouping(fmt::v11::detail::locale_ref, bool)
PUBLIC 32868 0 fmt::v11::detail::digit_grouping<char>::~digit_grouping()
PUBLIC 328ac 0 fmt::v11::detail::write_exponent<char, fmt::v11::basic_appender<char> >(int, fmt::v11::basic_appender<char>)
PUBLIC 32a7c 0 _ZN3fmt3v116detail17write_significandIcjTnNSt6__ndk19enable_ifIXsr3std11is_integralIT0_EE5valueEiE4typeELi0EEEPT_S9_S5_iiS8_
PUBLIC 32bf8 0 std::__ndk1::basic_string<char, std::__ndk1::char_traits<char>, std::__ndk1::allocator<char> >::__assign_no_alias<true>(char const*, unsigned long)
PUBLIC 32ca4 0 std::__ndk1::basic_string<char, std::__ndk1::char_traits<char>, std::__ndk1::allocator<char> >::__assign_no_alias<false>(char const*, unsigned long)
PUBLIC 32db4 0 fmt::v11::detail::digit_grouping<char>::apply<fmt::v11::basic_appender<char>, char>(fmt::v11::basic_appender<char>, fmt::v11::basic_string_view<char>) const
PUBLIC 3316c 0 fmt::v11::basic_memory_buffer<int, (unsigned long)500, std::__ndk1::allocator<int> >::grow(fmt::v11::detail::buffer<int>&, unsigned long)
PUBLIC 3320c 0 fmt::v11::detail::do_write_float<char, fmt::v11::basic_appender<char>, fmt::v11::detail::dragonbox::decimal_fp<double>, fmt::v11::detail::digit_grouping<char> >(fmt::v11::basic_appender<char>, fmt::v11::detail::dragonbox::decimal_fp<double> const&, fmt::v11::format_specs const&, fmt::v11::detail::float_specs, fmt::v11::detail::locale_ref)
PUBLIC 33ec0 0 fmt::v11::detail::do_write_float<char, fmt::v11::basic_appender<char>, fmt::v11::detail::dragonbox::decimal_fp<double>, fmt::v11::detail::digit_grouping<char> >(fmt::v11::basic_appender<char>, fmt::v11::detail::dragonbox::decimal_fp<double> const&, fmt::v11::format_specs const&, fmt::v11::detail::float_specs, fmt::v11::detail::locale_ref)::{lambda(fmt::v11::basic_appender<char>(fmt::v11::basic_appender<char>))#1}::operator() const
PUBLIC 34018 0 _ZN3fmt3v116detail17write_significandIcmTnNSt6__ndk19enable_ifIXsr3std11is_integralIT0_EE5valueEiE4typeELi0EEEPT_S9_S5_iiS8_
PUBLIC 341a8 0 fmt::v11::detail::write_float<char, fmt::v11::basic_appender<char>, long double>(fmt::v11::basic_appender<char>, long double, fmt::v11::format_specs, fmt::v11::detail::locale_ref)
PUBLIC 34ca4 0 fmt::v11::detail::write_padded<char, (fmt::v11::align::type)2, fmt::v11::basic_appender<char>, fmt::v11::detail::write_bytes<char, (fmt::v11::align::type)2, fmt::v11::basic_appender<char> >(fmt::v11::basic_appender<char>, fmt::v11::basic_string_view<char>, fmt::v11::format_specs const&)::{lambda(fmt::v11::basic_appender<char>&)#1}>(fmt::v11::basic_appender<char>, fmt::v11::format_specs const&, unsigned long, unsigned long, fmt::v11::detail::write_bytes<char, (fmt::v11::align::type)2, fmt::v11::basic_appender<char> >(fmt::v11::basic_appender<char>, fmt::v11::basic_string_view<char>, fmt::v11::format_specs const&)::{lambda(fmt::v11::basic_appender<char>&)#1})
PUBLIC 34e80 0 fmt::v11::detail::format_dragon(fmt::v11::detail::basic_fp<unsigned __int128>, unsigned int, int, fmt::v11::detail::buffer<char>&, int&)
PUBLIC 362b0 0 fmt::v11::detail::bigint::operator<<=(int)
PUBLIC 363d4 0 fmt::v11::detail::bigint::assign_pow10(int)
PUBLIC 36b30 0 fmt::v11::detail::bigint::divmod_assign(fmt::v11::detail::bigint const&)
PUBLIC 36e50 0 fmt::v11::basic_memory_buffer<unsigned int, (unsigned long)32, std::__ndk1::allocator<unsigned int> >::grow(fmt::v11::detail::buffer<unsigned int>&, unsigned long)
PUBLIC 36ef0 0 fmt::v11::detail::do_write_float<char, fmt::v11::basic_appender<char>, fmt::v11::detail::big_decimal_fp, fmt::v11::detail::digit_grouping<char> >(fmt::v11::basic_appender<char>, fmt::v11::detail::big_decimal_fp const&, fmt::v11::format_specs const&, fmt::v11::detail::float_specs, fmt::v11::detail::locale_ref)
PUBLIC 37da0 0 fmt::v11::detail::do_write_float<char, fmt::v11::basic_appender<char>, fmt::v11::detail::big_decimal_fp, fmt::v11::detail::digit_grouping<char> >(fmt::v11::basic_appender<char>, fmt::v11::detail::big_decimal_fp const&, fmt::v11::format_specs const&, fmt::v11::detail::float_specs, fmt::v11::detail::locale_ref)::{lambda(fmt::v11::basic_appender<char>(fmt::v11::basic_appender<char>))#1}::operator() const
PUBLIC 37f00 0 fmt::v11::detail::write_padded<char, (fmt::v11::align::type)2, fmt::v11::basic_appender<char>, fmt::v11::detail::write_ptr<char, fmt::v11::basic_appender<char>, unsigned long>(fmt::v11::basic_appender<char>, unsigned long, fmt::v11::format_specs const*)::{lambda(fmt::v11::basic_appender<char>&)#1}>(fmt::v11::basic_appender<char>, fmt::v11::format_specs const&, unsigned long, unsigned long, fmt::v11::detail::write_ptr<char, fmt::v11::basic_appender<char>, unsigned long>(fmt::v11::basic_appender<char>, unsigned long, fmt::v11::format_specs const*)::{lambda(fmt::v11::basic_appender<char>&)#1})
PUBLIC 38114 0 fmt::v11::detail::parse_replacement_field<char, fmt::v11::detail::vformat_to<char>(fmt::v11::detail::buffer<char>&, fmt::v11::basic_string_view<char>, fmt::v11::detail::vformat_args<char>::type, fmt::v11::detail::locale_ref)::format_handler&>(char const*, char const*, fmt::v11::detail::vformat_to<char>(fmt::v11::detail::buffer<char>&, fmt::v11::basic_string_view<char>, fmt::v11::detail::vformat_args<char>::type, fmt::v11::detail::locale_ref)::format_handler&)
PUBLIC 39db0 0 fmt::v11::detail::parse_dynamic_spec<char>(char const*, char const*, int&, fmt::v11::detail::arg_ref<char>&, fmt::v11::basic_format_parse_context<char>&)
PUBLIC 3a040 0 fmt::v11::basic_format_args<fmt::v11::context>::get<char>(fmt::v11::basic_string_view<char>) const
PUBLIC 3a198 0 fmt::v11::detail::write_int_noinline<char, fmt::v11::basic_appender<char>, unsigned long>(fmt::v11::basic_appender<char>, fmt::v11::detail::write_int_arg<unsigned long>, fmt::v11::format_specs const&, fmt::v11::detail::locale_ref)
PUBLIC 3afec 0 fmt::v11::detail::write_int_noinline<char, fmt::v11::basic_appender<char>, unsigned __int128>(fmt::v11::basic_appender<char>, fmt::v11::detail::write_int_arg<unsigned __int128>, fmt::v11::format_specs const&, fmt::v11::detail::locale_ref)
PUBLIC 3c054 0 _ZN3fmt3v116detail15format_hexfloatIdTnNSt6__ndk19enable_ifIXntsr16is_double_doubleIT_EE5valueEiE4typeELi0EEEvS5_NS0_12format_specsERNS1_6bufferIcEE
PUBLIC 3c574 0 fmt::v11::detail::format_float<double>(double, int, fmt::v11::detail::float_specs, fmt::v11::detail::buffer<char>&)
PUBLIC 3cf14 0 fmt::v11::detail::write<char, fmt::v11::basic_appender<char> >(fmt::v11::basic_appender<char>, fmt::v11::basic_string_view<char>, fmt::v11::format_specs const&)
PUBLIC 3e280 0 fmt::v11::detail::for_each_codepoint<fmt::v11::detail::compute_width(fmt::v11::basic_string_view<char>)::count_code_points>(fmt::v11::basic_string_view<char>, fmt::v11::detail::compute_width(fmt::v11::basic_string_view<char>)::count_code_points)::{lambda(char const*, char const*)#1}::operator()(char const*, char const*) const
PUBLIC 3e438 0 fmt::v11::detail::write_int<fmt::v11::basic_appender<char>, unsigned long, char>(fmt::v11::basic_appender<char>, unsigned long, unsigned int, fmt::v11::format_specs const&, fmt::v11::detail::digit_grouping<char> const&)
PUBLIC 3e9b4 0 fmt::v11::detail::write_int<fmt::v11::basic_appender<char>, unsigned __int128, char>(fmt::v11::basic_appender<char>, unsigned __int128, unsigned int, fmt::v11::format_specs const&, fmt::v11::detail::digit_grouping<char> const&)
PUBLIC 3f030 0 <.plt ELF section in dasshu.better-gauntlets.android64.so>
STACK CFI INIT 13970 10 .cfa: sp 0 +
STACK CFI INIT 13980 8 .cfa: sp 0 +
STACK CFI INIT 13988 8 .cfa: sp 0 +
STACK CFI INIT 13990 14 .cfa: sp 0 +
STACK CFI INIT 139a4 1c .cfa: sp 0 +
STACK CFI INIT 139c0 10 .cfa: sp 0 +
STACK CFI INIT 139d0 134 .cfa: sp 0 +
STACK CFI INIT 13b04 84 .cfa: sp 0 +
STACK CFI INIT 13b88 f4 .cfa: sp 0 +
STACK CFI INIT 13c7c a8 .cfa: sp 0 +
STACK CFI INIT 13d24 7c .cfa: sp 0 +
STACK CFI INIT 13da0 14 .cfa: sp 0 +
STACK CFI INIT 13db4 40 .cfa: sp 0 +
STACK CFI INIT 13df4 28 .cfa: sp 0 +
STACK CFI INIT 13e1c 190 .cfa: sp 0 +
STACK CFI INIT 13fac 2c8 .cfa: sp 0 +
STACK CFI INIT 14274 8 .cfa: sp 0 +
STACK CFI INIT 1427c 8 .cfa: sp 0 +
STACK CFI INIT 14284 44 .cfa: sp 0 +
STACK CFI INIT 142c8 e8 .cfa: sp 0 +
STACK CFI INIT 143b0 e8 .cfa: sp 0 +
STACK CFI INIT 14498 14 .cfa: sp 0 +
STACK CFI INIT 144ac 10 .cfa: sp 0 +
STACK CFI INIT 144bc 10 .cfa: sp 0 +
STACK CFI INIT 144cc f0 .cfa: sp 0 +
STACK CFI INIT 145bc 44 .cfa: sp 0 +
STACK CFI INIT 14600 c .cfa: sp 0 +
STACK CFI INIT 1460c c .cfa: sp 0 +
STACK CFI INIT 14618 2c .cfa: sp 0 +
STACK CFI INIT 14644 280 .cfa: sp 0 +
STACK CFI INIT 148c4 c .cfa: sp 0 +
STACK CFI INIT 148d0 120 .cfa: sp 0 +
STACK CFI INIT 149f0 488 .cfa: sp 0 +
STACK CFI INIT 14e78 c48 .cfa: sp 0 +
STACK CFI INIT 15ac0 134 .cfa: sp 0 +
STACK CFI INIT 15bf4 210 .cfa: sp 0 +
STACK CFI INIT 15e04 38c .cfa: sp 0 +
STACK CFI INIT 16190 1c8 .cfa: sp 0 +
STACK CFI INIT 16358 9bc .cfa: sp 0 +
STACK CFI INIT 16d14 2d4 .cfa: sp 0 +
STACK CFI INIT 16fe8 134 .cfa: sp 0 +
STACK CFI INIT 1711c 120 .cfa: sp 0 +
STACK CFI INIT 1723c 1c8 .cfa: sp 0 +
STACK CFI INIT 17404 168 .cfa: sp 0 +
STACK CFI INIT 1756c fc .cfa: sp 0 +
STACK CFI INIT 17668 30 .cfa: sp 0 +
STACK CFI INIT 177d0 30 .cfa: sp 0 +
STACK CFI INIT 17800 98 .cfa: sp 0 +
STACK CFI INIT 17898 59c .cfa: sp 0 +
STACK CFI INIT 17e34 8c .cfa: sp 0 +
STACK CFI INIT 17ec0 30 .cfa: sp 0 +
STACK CFI INIT 18c18 60 .cfa: sp 0 +
STACK CFI 18c28 .cfa: sp 32 +
STACK CFI 18c30 .cfa: x29 32 + x19: .cfa -16 + ^ .ra: .cfa -24 + ^ x29: .cfa -32 + ^
STACK CFI 18c68 .cfa: sp 32 +
STACK CFI 18c70 .cfa: sp 0 +
STACK CFI INIT 18c78 1c .cfa: sp 0 +
STACK CFI INIT 18c94 10 .cfa: sp 0 +
STACK CFI 18c98 .cfa: sp 16 +
STACK CFI 18c9c .cfa: x29 16 + .ra: .cfa -8 + ^ x29: .cfa -16 + ^
STACK CFI INIT 18ca4 14 .cfa: sp 0 +
STACK CFI 18ca8 .cfa: sp 16 +
STACK CFI 18cac .cfa: x29 16 + .ra: .cfa -8 + ^ x29: .cfa -16 + ^
STACK CFI INIT 18d08 30 .cfa: sp 0 +
STACK CFI 18d0c .cfa: sp 32 +
STACK CFI 18d14 .cfa: x29 32 + x19: .cfa -16 + ^ .ra: .cfa -24 + ^ x29: .cfa -32 + ^
STACK CFI 18d2c .cfa: sp 32 +
STACK CFI 18d34 .cfa: sp 0 +
STACK CFI INIT 18d38 34 .cfa: sp 0 +
STACK CFI 18d3c .cfa: sp 32 +
STACK CFI 18d44 .cfa: x29 32 + x19: .cfa -16 + ^ .ra: .cfa -24 + ^ x29: .cfa -32 + ^
STACK CFI INIT 197e0 50 .cfa: sp 0 +
STACK CFI 197e4 .cfa: sp 32 +
STACK CFI 197ec .cfa: x29 32 + x19: .cfa -16 + ^ .ra: .cfa -24 + ^ x29: .cfa -32 + ^
STACK CFI 19804 .cfa: sp 32 +
STACK CFI 1980c .cfa: sp 0 +
STACK CFI 19810 .cfa: x29 32 +
STACK CFI 19824 .cfa: sp 32 +
STACK CFI 1982c .cfa: sp 0 +
STACK CFI INIT 198a4 7c .cfa: sp 0 +
STACK CFI 198a8 .cfa: sp 48 +
STACK CFI 198b4 .cfa: x29 48 + x19: .cfa -8 + ^ x20: .cfa -16 + ^ x21: .cfa -32 + ^ .ra: .cfa -40 + ^ x29: .cfa -48 + ^
STACK CFI 19900 .cfa: sp 48 +
STACK CFI 1990c .cfa: sp 0 +
STACK CFI 19910 .cfa: sp 48 +
STACK CFI 1991c .cfa: sp 0 +
STACK CFI INIT 19920 4 .cfa: sp 0 +
STACK CFI INIT 19a78 34 .cfa: sp 0 +
STACK CFI 19a7c .cfa: sp 16 +
STACK CFI 19a80 .cfa: x29 16 + .ra: .cfa -8 + ^ x29: .cfa -16 + ^
STACK CFI INIT 19bd8 80 .cfa: sp 0 +
STACK CFI 19bdc .cfa: sp 48 +
STACK CFI 19be8 .cfa: x29 48 + x19: .cfa -8 + ^ x20: .cfa -16 + ^ x21: .cfa -32 + ^ .ra: .cfa -40 + ^ x29: .cfa -48 + ^
STACK CFI 19c48 .cfa: sp 48 +
STACK CFI 19c54 .cfa: sp 0 +
STACK CFI INIT 19c58 24 .cfa: sp 0 +
STACK CFI 19c5c .cfa: sp 32 +
STACK CFI 19c64 .cfa: x29 32 + x19: .cfa -16 + ^ .ra: .cfa -24 + ^ x29: .cfa -32 + ^
STACK CFI 19c70 .cfa: sp 32 +
STACK CFI 19c78 .cfa: sp 0 +
STACK CFI INIT 1a174 148 .cfa: sp 0 +
STACK CFI 1a178 .cfa: sp 48 +
STACK CFI 1a184 .cfa: x29 48 + x19: .cfa -8 + ^ x20: .cfa -16 + ^ x21: .cfa -32 + ^ .ra: .cfa -40 + ^ x29: .cfa -48 + ^
STACK CFI 1a2ac .cfa: sp 48 +
STACK CFI 1a2b8 .cfa: sp 0 +
STACK CFI INIT 1a4e4 80 .cfa: sp 0 +
STACK CFI 1a4e8 .cfa: sp 48 +
STACK CFI 1a4f4 .cfa: x29 48 + x19: .cfa -8 + ^ x20: .cfa -16 + ^ x21: .cfa -24 + ^ x22: .cfa -32 + ^ .ra: .cfa -40 + ^ x29: .cfa -48 + ^
STACK CFI 1a50c .cfa: sp 48 +
STACK CFI 1a518 .cfa: sp 0 +
STACK CFI 1a51c .cfa: x29 48 +
STACK CFI 1a54c .cfa: sp 48 +
STACK CFI 1a558 .cfa: sp 0 +
STACK CFI 1a55c .cfa: x29 48 +
STACK CFI INIT 1a564 68 .cfa: sp 0 +
STACK CFI 1a568 .cfa: sp 32 +
STACK CFI 1a570 .cfa: x29 32 + x19: .cfa -8 + ^ x20: .cfa -16 + ^ .ra: .cfa -24 + ^ x29: .cfa -32 + ^
STACK CFI 1a588 .cfa: sp 32 +
STACK CFI 1a590 .cfa: sp 0 +
STACK CFI 1a594 .cfa: x29 32 +
STACK CFI 1a5c0 .cfa: sp 32 +
STACK CFI 1a5c8 .cfa: sp 0 +
STACK CFI INIT 1a5cc 14 .cfa: sp 0 +
STACK CFI 1a5d0 .cfa: sp 16 +
STACK CFI 1a5d4 .cfa: x29 16 + .ra: .cfa -8 + ^ x29: .cfa -16 + ^
STACK CFI INIT 1a5e0 4 .cfa: sp 0 +
STACK CFI INIT 1a5e4 14 .cfa: sp 0 +
STACK CFI INIT 1a5f8 120 .cfa: sp 0 +
STACK CFI 1a5fc .cfa: sp 64 +
STACK CFI 1a60c .cfa: x29 64 + x19: .cfa -8 + ^ x20: .cfa -16 + ^ x21: .cfa -24 + ^ x22: .cfa -32 + ^ x23: .cfa -40 + ^ x24: .cfa -48 + ^ .ra: .cfa -56 + ^ x29: .cfa -64 + ^
STACK CFI 1a704 .cfa: sp 64 +
STACK CFI 1a714 .cfa: sp 0 +
STACK CFI INIT 1a718 d4 .cfa: sp 0 +
STACK CFI 1a71c .cfa: sp 48 +
STACK CFI 1a728 .cfa: x29 48 + x19: .cfa -8 + ^ x20: .cfa -16 + ^ x21: .cfa -32 + ^ .ra: .cfa -40 + ^ x29: .cfa -48 + ^
STACK CFI 1a7b8 .cfa: sp 48 +
STACK CFI 1a7c4 .cfa: sp 0 +
STACK CFI 1a7c8 .cfa: x29 48 +
STACK CFI INIT 1a7ec 3c8 .cfa: sp 0 +
STACK CFI INIT 1abb4 8c .cfa: sp 0 +
STACK CFI 1abbc .cfa: sp 32 +
STACK CFI 1abc4 .cfa: x29 32 + x19: .cfa -8 + ^ x20: .cfa -16 + ^ .ra: .cfa -24 + ^ x29: .cfa -32 + ^
STACK CFI 1ac0c .cfa: sp 32 +
STACK CFI 1ac14 .cfa: sp 0 +
STACK CFI 1ac1c .cfa: x29 32 +
STACK CFI INIT 1ad58 40 .cfa: sp 0 +
STACK CFI 1ad5c .cfa: sp 32 +
STACK CFI 1ad64 .cfa: x29 32 + x19: .cfa -16 + ^ .ra: .cfa -24 + ^ x29: .cfa -32 + ^
STACK CFI 1ad7c .cfa: sp 32 +
STACK CFI 1ad84 .cfa: sp 0 +
STACK CFI 1ad88 .cfa: x29 32 +
STACK CFI 1ad8c .cfa: sp 32 +
STACK CFI 1ad94 .cfa: sp 0 +
STACK CFI INIT 1af1c 4 .cfa: sp 0 +
STACK CFI INIT 1b0a4 4 .cfa: sp 0 +
STACK CFI INIT 1b194 98 .cfa: sp 0 +
STACK CFI INIT 1b500 50 .cfa: sp 0 +
STACK CFI 1b504 .cfa: sp 32 +
STACK CFI 1b50c .cfa: x29 32 + x19: .cfa -16 + ^ .ra: .cfa -24 + ^ x29: .cfa -32 + ^
STACK CFI 1b524 .cfa: sp 32 +
STACK CFI 1b52c .cfa: sp 0 +
STACK CFI 1b530 .cfa: x29 32 +
STACK CFI 1b544 .cfa: sp 32 +
STACK CFI 1b54c .cfa: sp 0 +
STACK CFI INIT 1b550 64 .cfa: sp 0 +
STACK CFI 1b554 .cfa: sp 32 +
STACK CFI 1b55c .cfa: x29 32 + x19: .cfa -16 + ^ .ra: .cfa -24 + ^ x29: .cfa -32 + ^
STACK CFI 1b588 .cfa: sp 32 +
STACK CFI 1b590 .cfa: sp 0 +
STACK CFI 1b594 .cfa: x29 32 +
STACK CFI 1b5a8 .cfa: sp 32 +
STACK CFI 1b5b0 .cfa: sp 0 +
STACK CFI INIT 1b5b4 14 .cfa: sp 0 +
STACK CFI 1b5b8 .cfa: sp 16 +
STACK CFI 1b5bc .cfa: x29 16 + .ra: .cfa -8 + ^ x29: .cfa -16 + ^
STACK CFI INIT 1b5c8 178 .cfa: sp 0 +
STACK CFI 1b5cc .cfa: sp 80 +
STACK CFI 1b5e0 .cfa: x29 80 + x19: .cfa -8 + ^ x20: .cfa -16 + ^ x21: .cfa -24 + ^ x22: .cfa -32 + ^ x23: .cfa -40 + ^ x24: .cfa -48 + ^ x25: .cfa -56 + ^ x26: .cfa -64 + ^ .ra: .cfa -72 + ^ x29: .cfa -80 + ^
STACK CFI 1b728 .cfa: sp 80 +
STACK CFI 1b73c .cfa: sp 0 +
STACK CFI INIT 1b740 1b0 .cfa: sp 0 +
STACK CFI INIT 1d138 104 .cfa: sp 0 +
STACK CFI 1d13c .cfa: sp 64 +
STACK CFI 1d14c .cfa: x29 64 + x19: .cfa -8 + ^ x20: .cfa -16 + ^ x21: .cfa -24 + ^ x22: .cfa -32 + ^ x23: .cfa -48 + ^ .ra: .cfa -56 + ^ x29: .cfa -64 + ^
STACK CFI 1d1a8 .cfa: sp 64 +
STACK CFI 1d1b8 .cfa: sp 0 +
STACK CFI 1d1bc .cfa: x29 64 +
STACK CFI 1d1d8 .cfa: sp 64 +
STACK CFI 1d1e8 .cfa: sp 0 +
STACK CFI 1d1ec .cfa: x29 64 +
STACK CFI 1d228 .cfa: sp 64 +
STACK CFI 1d238 .cfa: sp 0 +
STACK CFI INIT 24654 98 .cfa: sp 0 +
STACK CFI 24658 .cfa: sp 304 +
STACK CFI 24664 .cfa: x29 32 + x19: .cfa -8 + ^ x28: .cfa -16 + ^ .ra: .cfa -24 + ^ x29: .cfa -32 + ^
STACK CFI 246d8 .cfa: sp 304 +
STACK CFI 246e4 .cfa: sp 0 +
STACK CFI 246e8 .cfa: x29 32 +
STACK CFI INIT 24c40 4 .cfa: sp 0 +
STACK CFI INIT 24c44 14 .cfa: sp 0 +
STACK CFI 24c48 .cfa: sp 16 +
STACK CFI 24c4c .cfa: x29 16 + .ra: .cfa -8 + ^ x29: .cfa -16 + ^
STACK CFI INIT 24e84 14 .cfa: sp 0 +
STACK CFI 24e88 .cfa: sp 16 +
STACK CFI 24e8c .cfa: x29 16 + .ra: .cfa -8 + ^ x29: .cfa -16 + ^
STACK CFI INIT 24e98 14 .cfa: sp 0 +
STACK CFI 24e9c .cfa: sp 16 +
STACK CFI 24ea0 .cfa: x29 16 + .ra: .cfa -8 + ^ x29: .cfa -16 + ^
STACK CFI INIT 24efc 30 .cfa: sp 0 +
STACK CFI 24f00 .cfa: sp 32 +
STACK CFI 24f08 .cfa: x29 32 + x19: .cfa -16 + ^ .ra: .cfa -24 + ^ x29: .cfa -32 + ^
STACK CFI 24f20 .cfa: sp 32 +
STACK CFI 24f28 .cfa: sp 0 +
STACK CFI INIT 24f2c 14 .cfa: sp 0 +
STACK CFI 24f30 .cfa: sp 16 +
STACK CFI 24f34 .cfa: x29 16 + .ra: .cfa -8 + ^ x29: .cfa -16 + ^
STACK CFI INIT 24f40 4 .cfa: sp 0 +
STACK CFI INIT 24f44 4 .cfa: sp 0 +
STACK CFI INIT 24f48 38 .cfa: sp 0 +
STACK CFI 24f4c .cfa: sp 32 +
STACK CFI 24f54 .cfa: x29 32 + x19: .cfa -16 + ^ .ra: .cfa -24 + ^ x29: .cfa -32 + ^
STACK CFI 24f74 .cfa: sp 32 +
STACK CFI 24f7c .cfa: sp 0 +
STACK CFI INIT 24f80 18 .cfa: sp 0 +
STACK CFI INIT 24f98 4 .cfa: sp 0 +
STACK CFI INIT 24f9c 4 .cfa: sp 0 +
STACK CFI INIT 24fa0 10 .cfa: sp 0 +
STACK CFI INIT 24fb0 1c .cfa: sp 0 +
STACK CFI INIT 24fcc c .cfa: sp 0 +
STACK CFI INIT 24fd8 14 .cfa: sp 0 +
STACK CFI 24fdc .cfa: sp 16 +
STACK CFI 24fe0 .cfa: x29 16 + .ra: .cfa -8 + ^ x29: .cfa -16 + ^
STACK CFI INIT 24fec 34 .cfa: sp 0 +
STACK CFI 24ff0 .cfa: sp 16 +
STACK CFI 24ff4 .cfa: x29 16 + .ra: .cfa -8 + ^ x29: .cfa -16 + ^
STACK CFI INIT 25020 24 .cfa: sp 0 +
STACK CFI 25024 .cfa: sp 32 +
STACK CFI 2502c .cfa: x29 32 + x19: .cfa -16 + ^ .ra: .cfa -24 + ^ x29: .cfa -32 + ^
STACK CFI 25038 .cfa: sp 32 +
STACK CFI 25040 .cfa: sp 0 +
STACK CFI INIT 2540c 4 .cfa: sp 0 +
STACK CFI INIT 25584 6c .cfa: sp 0 +
STACK CFI 25588 .cfa: sp 32 +
STACK CFI 25590 .cfa: x29 32 + x19: .cfa -16 + ^ .ra: .cfa -24 + ^ x29: .cfa -32 + ^
STACK CFI 255e4 .cfa: sp 32 +
STACK CFI 255ec .cfa: sp 0 +
STACK CFI INIT 255f0 74 .cfa: sp 0 +
STACK CFI 255f4 .cfa: sp 32 +
STACK CFI 255fc .cfa: x29 32 + x19: .cfa -16 + ^ .ra: .cfa -24 + ^ x29: .cfa -32 + ^
STACK CFI 25658 .cfa: sp 32 +
STACK CFI 25660 .cfa: sp 0 +
STACK CFI INIT 25664 4c .cfa: sp 0 +
STACK CFI INIT 256b0 5c .cfa: sp 0 +
STACK CFI 256b4 .cfa: sp 32 +
STACK CFI 256bc .cfa: x29 32 + x19: .cfa -16 + ^ .ra: .cfa -24 + ^ x29: .cfa -32 + ^
STACK CFI 25700 .cfa: sp 32 +
STACK CFI 25708 .cfa: sp 0 +
STACK CFI INIT 257a0 7c .cfa: sp 0 +
STACK CFI 257a4 .cfa: sp 32 +
STACK CFI 257ac .cfa: x29 32 + x19: .cfa -16 + ^ .ra: .cfa -24 + ^ x29: .cfa -32 + ^
STACK CFI 257e4 .cfa: sp 32 +
STACK CFI 257ec .cfa: sp 0 +
STACK CFI 257f0 .cfa: x29 32 +
STACK CFI 257f4 .cfa: sp 32 +
STACK CFI 257fc .cfa: sp 0 +
STACK CFI 25800 .cfa: x29 32 +
STACK CFI 25810 .cfa: sp 32 +
STACK CFI 25818 .cfa: sp 0 +
STACK CFI INIT 2581c 40 .cfa: sp 0 +
STACK CFI INIT 2585c 50 .cfa: sp 0 +
STACK CFI 25860 .cfa: sp 32 +
STACK CFI 25868 .cfa: x29 32 + x19: .cfa -16 + ^ .ra: .cfa -24 + ^ x29: .cfa -32 + ^
STACK CFI 258a0 .cfa: sp 32 +
STACK CFI 258a8 .cfa: sp 0 +
STACK CFI INIT 258ac 48 .cfa: sp 0 +
STACK CFI 258b0 .cfa: sp 32 +
STACK CFI 258b8 .cfa: x29 32 + x19: .cfa -16 + ^ .ra: .cfa -24 + ^ x29: .cfa -32 + ^
STACK CFI 258e4 .cfa: sp 32 +
STACK CFI 258ec .cfa: sp 0 +
STACK CFI 258f0 .cfa: x29 32 +
STACK CFI INIT 258f4 1c .cfa: sp 0 +
STACK CFI INIT 25910 c .cfa: sp 0 +
STACK CFI INIT 2591c 4 .cfa: sp 0 +
STACK CFI INIT 25920 34 .cfa: sp 0 +
STACK CFI 25924 .cfa: sp 32 +
STACK CFI 2592c .cfa: x29 32 + x19: .cfa -16 + ^ .ra: .cfa -24 + ^ x29: .cfa -32 + ^
STACK CFI 25948 .cfa: sp 32 +
STACK CFI 25950 .cfa: sp 0 +
STACK CFI INIT 25954 14 .cfa: sp 0 +
STACK CFI INIT 25968 4 .cfa: sp 0 +
STACK CFI INIT 2596c 4 .cfa: sp 0 +
STACK CFI INIT 25970 c .cfa: sp 0 +
STACK CFI INIT 2597c 1c .cfa: sp 0 +
STACK CFI INIT 25998 c .cfa: sp 0 +
STACK CFI INIT 259a4 4 .cfa: sp 0 +
STACK CFI INIT 259a8 34 .cfa: sp 0 +
STACK CFI 259ac .cfa: sp 32 +
STACK CFI 259b4 .cfa: x29 32 + x19: .cfa -16 + ^ .ra: .cfa -24 + ^ x29: .cfa -32 + ^
STACK CFI 259d0 .cfa: sp 32 +
STACK CFI 259d8 .cfa: sp 0 +
STACK CFI INIT 259dc 14 .cfa: sp 0 +
STACK CFI INIT 259f0 4 .cfa: sp 0 +
STACK CFI INIT 259f4 4 .cfa: sp 0 +
STACK CFI INIT 259f8 c .cfa: sp 0 +
STACK CFI INIT 25a04 1c .cfa: sp 0 +
STACK CFI INIT 25a20 c .cfa: sp 0 +
STACK CFI INIT 25a2c 4 .cfa: sp 0 +
STACK CFI INIT 25a30 34 .cfa: sp 0 +
STACK CFI 25a34 .cfa: sp 32 +
STACK CFI 25a3c .cfa: x29 32 + x19: .cfa -16 + ^ .ra: .cfa -24 + ^ x29: .cfa -32 + ^
STACK CFI 25a58 .cfa: sp 32 +
STACK CFI 25a60 .cfa: sp 0 +
STACK CFI INIT 25a64 14 .cfa: sp 0 +
STACK CFI INIT 25a78 4 .cfa: sp 0 +
STACK CFI INIT 25a7c 4 .cfa: sp 0 +
STACK CFI INIT 25a80 c .cfa: sp 0 +
STACK CFI INIT 25a8c 1c .cfa: sp 0 +
STACK CFI INIT 25aa8 c .cfa: sp 0 +
STACK CFI INIT 25ab4 4 .cfa: sp 0 +
STACK CFI INIT 25ab8 34 .cfa: sp 0 +
STACK CFI 25abc .cfa: sp 32 +
STACK CFI 25ac4 .cfa: x29 32 + x19: .cfa -16 + ^ .ra: .cfa -24 + ^ x29: .cfa -32 + ^
STACK CFI 25ae0 .cfa: sp 32 +
STACK CFI 25ae8 .cfa: sp 0 +
STACK CFI INIT 25aec 14 .cfa: sp 0 +
STACK CFI INIT 25b00 4 .cfa: sp 0 +
STACK CFI INIT 25b04 4 .cfa: sp 0 +
STACK CFI INIT 25b08 c .cfa: sp 0 +
STACK CFI INIT 25b14 1c .cfa: sp 0 +
STACK CFI INIT 25b30 c .cfa: sp 0 +
STACK CFI INIT 25b3c 4 .cfa: sp 0 +
STACK CFI INIT 25b40 4 .cfa: sp 0 +
STACK CFI INIT 25b44 34 .cfa: sp 0 +
STACK CFI 25b48 .cfa: sp 32 +
STACK CFI 25b50 .cfa: x29 32 + x19: .cfa -16 + ^ .ra: .cfa -24 + ^ x29: .cfa -32 + ^
STACK CFI 25b6c .cfa: sp 32 +
STACK CFI 25b74 .cfa: sp 0 +
STACK CFI INIT 25b78 14 .cfa: sp 0 +
STACK CFI INIT 25b8c 4 .cfa: sp 0 +
STACK CFI INIT 25b90 4 .cfa: sp 0 +
STACK CFI INIT 25b94 c .cfa: sp 0 +
STACK CFI INIT 25ba0 1c .cfa: sp 0 +
STACK CFI INIT 25bbc c .cfa: sp 0 +
STACK CFI INIT 26048 1c .cfa: sp 0 +
STACK CFI INIT 263a4 4 .cfa: sp 0 +
STACK CFI INIT 263a8 1c .cfa: sp 0 +
STACK CFI INIT 263c4 60 .cfa: sp 0 +
STACK CFI 263d4 .cfa: sp 32 +
STACK CFI 263dc .cfa: x29 32 + x19: .cfa -16 + ^ .ra: .cfa -24 + ^ x29: .cfa -32 + ^
STACK CFI 26414 .cfa: sp 32 +
STACK CFI 2641c .cfa: sp 0 +
STACK CFI INIT 26424 1c .cfa: sp 0 +
STACK CFI INIT 26440 60 .cfa: sp 0 +
STACK CFI 26450 .cfa: sp 32 +
STACK CFI 26458 .cfa: x29 32 + x19: .cfa -16 + ^ .ra: .cfa -24 + ^ x29: .cfa -32 + ^
STACK CFI 26490 .cfa: sp 32 +
STACK CFI 26498 .cfa: sp 0 +
STACK CFI INIT 264a0 1c .cfa: sp 0 +
STACK CFI INIT 26b58 4 .cfa: sp 0 +
STACK CFI INIT 26ce0 4 .cfa: sp 0 +
STACK CFI INIT 28488 4 .cfa: sp 0 +
STACK CFI INIT 28610 38 .cfa: sp 0 +
STACK CFI 28614 .cfa: sp 32 +
STACK CFI 2861c .cfa: x29 32 + x19: .cfa -8 + ^ x20: .cfa -16 + ^ .ra: .cfa -24 + ^ x29: .cfa -32 + ^
STACK CFI 2863c .cfa: sp 32 +
STACK CFI 28644 .cfa: sp 0 +
STACK CFI INIT 2877c 4 .cfa: sp 0 +
STACK CFI INIT 28780 48 .cfa: sp 0 +
STACK CFI 28784 .cfa: sp 32 +
STACK CFI 2878c .cfa: x29 32 + x19: .cfa -16 + ^ .ra: .cfa -24 + ^ x29: .cfa -32 + ^
STACK CFI 287b0 .cfa: sp 32 +
STACK CFI 287b8 .cfa: sp 0 +
STACK CFI 287bc .cfa: sp 32 +
STACK CFI 287c4 .cfa: sp 0 +
STACK CFI INIT 28958 18 .cfa: sp 0 +
STACK CFI INIT 29b18 90 .cfa: sp 0 +
STACK CFI 29b1c .cfa: sp 48 +
STACK CFI 29b28 .cfa: x29 48 + x19: .cfa -8 + ^ x20: .cfa -16 + ^ x21: .cfa -32 + ^ .ra: .cfa -40 + ^ x29: .cfa -48 + ^
STACK CFI 29b98 .cfa: sp 48 +
STACK CFI 29ba4 .cfa: sp 0 +
STACK CFI INIT 29ba8 168 .cfa: sp 0 +
STACK CFI 29bac .cfa: sp 96 +
STACK CFI 29bc4 .cfa: x29 96 + x19: .cfa -8 + ^ x20: .cfa -16 + ^ x21: .cfa -24 + ^ x22: .cfa -32 + ^ x23: .cfa -40 + ^ x24: .cfa -48 + ^ x25: .cfa -56 + ^ x26: .cfa -64 + ^ x27: .cfa -72 + ^ x28: .cfa -80 + ^ .ra: .cfa -88 + ^ x29: .cfa -96 + ^
STACK CFI 29cf4 .cfa: sp 96 +
STACK CFI 29d0c .cfa: sp 0 +
STACK CFI INIT 2a03c 14 .cfa: sp 0 +
STACK CFI 2a040 .cfa: sp 16 +
STACK CFI 2a044 .cfa: x29 16 + .ra: .cfa -8 + ^ x29: .cfa -16 + ^
STACK CFI INIT 2a050 4c .cfa: sp 0 +
STACK CFI INIT 2a09c 5c .cfa: sp 0 +
STACK CFI 2a0a0 .cfa: sp 32 +
STACK CFI 2a0a8 .cfa: x29 32 + x19: .cfa -16 + ^ .ra: .cfa -24 + ^ x29: .cfa -32 + ^
STACK CFI 2a0ec .cfa: sp 32 +
STACK CFI 2a0f4 .cfa: sp 0 +
STACK CFI INIT 2a18c 7c .cfa: sp 0 +
STACK CFI 2a190 .cfa: sp 32 +
STACK CFI 2a198 .cfa: x29 32 + x19: .cfa -16 + ^ .ra: .cfa -24 + ^ x29: .cfa -32 + ^
STACK CFI 2a1d0 .cfa: sp 32 +
STACK CFI 2a1d8 .cfa: sp 0 +
STACK CFI 2a1dc .cfa: x29 32 +
STACK CFI 2a1e0 .cfa: sp 32 +
STACK CFI 2a1e8 .cfa: sp 0 +
STACK CFI 2a1ec .cfa: x29 32 +
STACK CFI 2a1fc .cfa: sp 32 +
STACK CFI 2a204 .cfa: sp 0 +
STACK CFI INIT 2a208 40 .cfa: sp 0 +
STACK CFI INIT 2a248 50 .cfa: sp 0 +
STACK CFI 2a24c .cfa: sp 32 +
STACK CFI 2a254 .cfa: x29 32 + x19: .cfa -16 + ^ .ra: .cfa -24 + ^ x29: .cfa -32 + ^
STACK CFI 2a28c .cfa: sp 32 +
STACK CFI 2a294 .cfa: sp 0 +
STACK CFI INIT 2a298 48 .cfa: sp 0 +
STACK CFI 2a29c .cfa: sp 32 +
STACK CFI 2a2a4 .cfa: x29 32 + x19: .cfa -16 + ^ .ra: .cfa -24 + ^ x29: .cfa -32 + ^
STACK CFI 2a2d0 .cfa: sp 32 +
STACK CFI 2a2d8 .cfa: sp 0 +
STACK CFI 2a2dc .cfa: x29 32 +
STACK CFI INIT 2a2e0 1c .cfa: sp 0 +
STACK CFI INIT 2a2fc c .cfa: sp 0 +
STACK CFI INIT 2a308 4 .cfa: sp 0 +
STACK CFI INIT 2a30c 34 .cfa: sp 0 +
STACK CFI 2a310 .cfa: sp 32 +
STACK CFI 2a318 .cfa: x29 32 + x19: .cfa -16 + ^ .ra: .cfa -24 + ^ x29: .cfa -32 + ^
STACK CFI 2a334 .cfa: sp 32 +
STACK CFI 2a33c .cfa: sp 0 +
STACK CFI INIT 2a340 14 .cfa: sp 0 +
STACK CFI INIT 2a354 4 .cfa: sp 0 +
STACK CFI INIT 2a358 4 .cfa: sp 0 +
STACK CFI INIT 2a35c c .cfa: sp 0 +
STACK CFI INIT 2a368 1c .cfa: sp 0 +
STACK CFI INIT 2a384 c .cfa: sp 0 +
STACK CFI INIT 2a390 4 .cfa: sp 0 +
STACK CFI INIT 2a394 34 .cfa: sp 0 +
STACK CFI 2a398 .cfa: sp 32 +
STACK CFI 2a3a0 .cfa: x29 32 + x19: .cfa -16 + ^ .ra: .cfa -24 + ^ x29: .cfa -32 + ^
STACK CFI 2a3bc .cfa: sp 32 +
STACK CFI 2a3c4 .cfa: sp 0 +
STACK CFI INIT 2a3c8 14 .cfa: sp 0 +
STACK CFI INIT 2a3dc 4 .cfa: sp 0 +
STACK CFI INIT 2a3e0 4 .cfa: sp 0 +
STACK CFI INIT 2a3e4 c .cfa: sp 0 +
STACK CFI INIT 2a3f0 1c .cfa: sp 0 +
STACK CFI INIT 2a40c c .cfa: sp 0 +
STACK CFI INIT 2a418 4 .cfa: sp 0 +
STACK CFI INIT 2a41c 34 .cfa: sp 0 +
STACK CFI 2a420 .cfa: sp 32 +
STACK CFI 2a428 .cfa: x29 32 + x19: .cfa -16 + ^ .ra: .cfa -24 + ^ x29: .cfa -32 + ^
STACK CFI 2a444 .cfa: sp 32 +
STACK CFI 2a44c .cfa: sp 0 +
STACK CFI INIT 2a450 14 .cfa: sp 0 +
STACK CFI INIT 2a464 4 .cfa: sp 0 +
STACK CFI INIT 2a468 4 .cfa: sp 0 +
STACK CFI INIT 2a46c c .cfa: sp 0 +
STACK CFI INIT 2a478 1c .cfa: sp 0 +
STACK CFI INIT 2a494 c .cfa: sp 0 +
STACK CFI INIT 2a770 4 .cfa: sp 0 +
STACK CFI INIT 2a774 34 .cfa: sp 0 +
STACK CFI 2a778 .cfa: sp 32 +
STACK CFI 2a780 .cfa: x29 32 + x19: .cfa -16 + ^ .ra: .cfa -24 + ^ x29: .cfa -32 + ^
STACK CFI 2a79c .cfa: sp 32 +
STACK CFI 2a7a4 .cfa: sp 0 +
STACK CFI INIT 2a7a8 14 .cfa: sp 0 +
STACK CFI INIT 2a7bc 4 .cfa: sp 0 +
STACK CFI INIT 2a7c0 4 .cfa: sp 0 +
STACK CFI INIT 2a7c4 c .cfa: sp 0 +
STACK CFI INIT 2a7d0 1c .cfa: sp 0 +
STACK CFI INIT 2a7ec c .cfa: sp 0 +
STACK CFI INIT 2a7f8 4 .cfa: sp 0 +
STACK CFI INIT 2a7fc 34 .cfa: sp 0 +
STACK CFI 2a800 .cfa: sp 32 +
STACK CFI 2a808 .cfa: x29 32 + x19: .cfa -16 + ^ .ra: .cfa -24 + ^ x29: .cfa -32 + ^
STACK CFI 2a824 .cfa: sp 32 +
STACK CFI 2a82c .cfa: sp 0 +
STACK CFI INIT 2a830 14 .cfa: sp 0 +
STACK CFI INIT 2a844 4 .cfa: sp 0 +
STACK CFI INIT 2a848 4 .cfa: sp 0 +
STACK CFI INIT 2a84c c .cfa: sp 0 +
STACK CFI INIT 2a858 1c .cfa: sp 0 +
STACK CFI INIT 2a874 c .cfa: sp 0 +
STACK CFI INIT 2ba20 3c .cfa: sp 0 +
STACK CFI 2ba24 .cfa: sp 32 +
STACK CFI 2ba2c .cfa: x29 32 + x19: .cfa -16 + ^ .ra: .cfa -24 + ^ x29: .cfa -32 + ^
STACK CFI 2ba38 .cfa: sp 32 +
STACK CFI 2ba40 .cfa: sp 0 +
STACK CFI 2ba44 .cfa: x29 32 +
STACK CFI 2ba50 .cfa: sp 32 +
STACK CFI 2ba58 .cfa: sp 0 +
STACK CFI INIT 2bc7c 64 .cfa: sp 0 +
STACK CFI 2bc80 .cfa: sp 32 +
STACK CFI 2bc88 .cfa: x29 32 + x19: .cfa -16 + ^ .ra: .cfa -24 + ^ x29: .cfa -32 + ^
STACK CFI 2bcb4 .cfa: sp 32 +
STACK CFI 2bcbc .cfa: sp 0 +
STACK CFI 2bcc0 .cfa: x29 32 +
STACK CFI 2bcd4 .cfa: sp 32 +
STACK CFI 2bcdc .cfa: sp 0 +
STACK CFI INIT 2c620 4 .cfa: sp 0 +
STACK CFI INIT 2c624 14 .cfa: sp 0 +
STACK CFI INIT 2c638 c .cfa: sp 0 +
STACK CFI INIT 2c644 24c .cfa: sp 0 +
STACK CFI INIT 2c890 a0 .cfa: sp 0 +
STACK CFI 2c89c .cfa: sp 32 +
STACK CFI 2c8f4 .cfa: sp 0 +
STACK CFI 2c8f8 .cfa: sp 32 +
STACK CFI 2c900 .cfa: sp 0 +
STACK CFI 2c904 .cfa: sp 32 +
STACK CFI 2c918 .cfa: sp 0 +
STACK CFI 2c91c .cfa: sp 32 +
STACK CFI 2c92c .cfa: sp 0 +
STACK CFI INIT 2c930 38 .cfa: sp 0 +
STACK CFI 2c93c .cfa: sp 32 +
STACK CFI 2c964 .cfa: sp 0 +
STACK CFI INIT 2cbfc 7c .cfa: sp 0 +
STACK CFI 2cc00 .cfa: sp 32 +
STACK CFI 2cc08 .cfa: x29 32 + x19: .cfa -16 + ^ .ra: .cfa -24 + ^ x29: .cfa -32 + ^
STACK CFI 2cc34 .cfa: sp 32 +
STACK CFI 2cc3c .cfa: sp 0 +
STACK CFI 2cc40 .cfa: x29 32 +
STACK CFI 2cc6c .cfa: sp 32 +
STACK CFI 2cc74 .cfa: sp 0 +
STACK CFI INIT 2ccc8 2c .cfa: sp 0 +
STACK CFI 2cccc .cfa: sp 32 +
STACK CFI 2ccd4 .cfa: x29 32 + x19: .cfa -16 + ^ .ra: .cfa -24 + ^ x29: .cfa -32 + ^
STACK CFI 2cce8 .cfa: sp 32 +
STACK CFI 2ccf0 .cfa: sp 0 +
STACK CFI INIT 2d4b4 64 .cfa: sp 0 +
STACK CFI 2d4b8 .cfa: sp 32 +
STACK CFI 2d4c0 .cfa: x29 32 + x19: .cfa -16 + ^ .ra: .cfa -24 + ^ x29: .cfa -32 + ^
STACK CFI 2d4dc .cfa: sp 32 +
STACK CFI 2d4e4 .cfa: sp 0 +
STACK CFI 2d4e8 .cfa: x29 32 +
STACK CFI 2d50c .cfa: sp 32 +
STACK CFI 2d514 .cfa: sp 0 +
STACK CFI INIT 2d518 570 .cfa: sp 0 +
STACK CFI 2d51c .cfa: sp 176 +
STACK CFI 2d530 .cfa: x29 64 + x19: .cfa -8 + ^ x20: .cfa -16 + ^ x21: .cfa -24 + ^ x22: .cfa -32 + ^ x23: .cfa -40 + ^ x24: .cfa -48 + ^ .ra: .cfa -56 + ^ x29: .cfa -64 + ^
STACK CFI 2d760 .cfa: sp 176 +
STACK CFI 2d774 .cfa: sp 0 +
STACK CFI 2d778 .cfa: x29 64 +
STACK CFI 2d7c4 .cfa: sp 176 +
STACK CFI 2d7d8 .cfa: sp 0 +
STACK CFI 2d7dc .cfa: x29 64 +
STACK CFI 2d814 .cfa: sp 176 +
STACK CFI 2d828 .cfa: sp 0 +
STACK CFI 2d82c .cfa: x29 64 +
STACK CFI 2d844 .cfa: sp 176 +
STACK CFI 2d858 .cfa: sp 0 +
STACK CFI 2d85c .cfa: x29 64 +
STACK CFI 2d87c .cfa: sp 176 +
STACK CFI 2d890 .cfa: sp 0 +
STACK CFI 2d894 .cfa: x29 64 +
STACK CFI 2d8ac .cfa: sp 176 +
STACK CFI 2d8c0 .cfa: sp 0 +
STACK CFI 2d8c4 .cfa: x29 64 +
STACK CFI 2d8d8 .cfa: sp 176 +
STACK CFI 2d8ec .cfa: sp 0 +
STACK CFI 2d8f0 .cfa: x29 64 +
STACK CFI 2d904 .cfa: sp 176 +
STACK CFI 2d918 .cfa: sp 0 +
STACK CFI 2d91c .cfa: x29 64 +
STACK CFI 2d92c .cfa: sp 176 +
STACK CFI 2d940 .cfa: sp 0 +
STACK CFI 2d944 .cfa: x29 64 +
STACK CFI 2d954 .cfa: sp 176 +
STACK CFI 2d968 .cfa: sp 0 +
STACK CFI 2d96c .cfa: x29 64 +
STACK CFI 2d984 .cfa: sp 176 +
STACK CFI 2d998 .cfa: sp 0 +
STACK CFI 2d99c .cfa: x29 64 +
STACK CFI 2d9b0 .cfa: sp 176 +
STACK CFI 2d9c4 .cfa: sp 0 +
STACK CFI 2d9c8 .cfa: x29 64 +
STACK CFI 2d9e0 .cfa: sp 176 +
STACK CFI 2d9f4 .cfa: sp 0 +
STACK CFI 2d9f8 .cfa: x29 64 +
STACK CFI 2da24 .cfa: sp 176 +
STACK CFI 2da38 .cfa: sp 0 +
STACK CFI 2da3c .cfa: x29 64 +
STACK CFI 2da50 .cfa: sp 176 +
STACK CFI 2da64 .cfa: sp 0 +
STACK CFI 2da68 .cfa: x29 64 +
STACK CFI INIT 2da88 228 .cfa: sp 0 +
STACK CFI INIT 2dcb0 2dc .cfa: sp 0 +
STACK CFI INIT 2df8c 53c .cfa: sp 0 +
STACK CFI INIT 2e4c8 78 .cfa: sp 0 +
STACK CFI 2e4cc .cfa: sp 48 +
STACK CFI 2e4d8 .cfa: x29 48 + x19: .cfa -8 + ^ x20: .cfa -16 + ^ x21: .cfa -24 + ^ x22: .cfa -32 + ^ .ra: .cfa -40 + ^ x29: .cfa -48 + ^
STACK CFI 2e520 .cfa: sp 48 +
STACK CFI 2e52c .cfa: sp 0 +
STACK CFI 2e530 .cfa: sp 48 +
STACK CFI 2e53c .cfa: sp 0 +
STACK CFI INIT 2e540 8c .cfa: sp 0 +
STACK CFI 2e544 .cfa: sp 32 +
STACK CFI 2e54c .cfa: x29 32 + x19: .cfa -16 + ^ .ra: .cfa -24 + ^ x29: .cfa -32 + ^
STACK CFI 2e580 .cfa: sp 32 +
STACK CFI 2e588 .cfa: sp 0 +
STACK CFI 2e58c .cfa: x29 32 +
STACK CFI 2e5c0 .cfa: sp 32 +
STACK CFI 2e5c8 .cfa: sp 0 +
STACK CFI INIT 2e5cc 24 .cfa: sp 0 +
STACK CFI 2e5d0 .cfa: sp 32 +
STACK CFI 2e5d8 .cfa: x29 32 + x19: .cfa -16 + ^ .ra: .cfa -24 + ^ x29: .cfa -32 + ^
STACK CFI 2e5e4 .cfa: sp 32 +
STACK CFI 2e5ec .cfa: sp 0 +
STACK CFI INIT 2e5f0 150 .cfa: sp 0 +
STACK CFI 2e5f4 .cfa: sp 48 +
STACK CFI 2e600 .cfa: x29 48 + x19: .cfa -8 + ^ x20: .cfa -16 + ^ x21: .cfa -24 + ^ x22: .cfa -32 + ^ .ra: .cfa -40 + ^ x29: .cfa -48 + ^
STACK CFI 2e730 .cfa: sp 48 +
STACK CFI 2e73c .cfa: sp 0 +
STACK CFI INIT 2e740 68 .cfa: sp 0 +
STACK CFI 2e744 .cfa: sp 64 +
STACK CFI 2e750 .cfa: x29 32 + x19: .cfa -16 + ^ .ra: .cfa -24 + ^ x29: .cfa -32 + ^
STACK CFI 2e794 .cfa: sp 64 +
STACK CFI 2e7a0 .cfa: sp 0 +
STACK CFI 2e7a4 .cfa: x29 32 +
STACK CFI INIT 2e7a8 90 .cfa: sp 0 +
STACK CFI 2e7ac .cfa: sp 32 +
STACK CFI 2e7b4 .cfa: x29 32 + x19: .cfa -8 + ^ x20: .cfa -16 + ^ .ra: .cfa -24 + ^ x29: .cfa -32 + ^
STACK CFI 2e7e0 .cfa: sp 32 +
STACK CFI 2e7e8 .cfa: sp 0 +
STACK CFI 2e7ec .cfa: x29 32 +
STACK CFI 2e82c .cfa: sp 32 +
STACK CFI 2e834 .cfa: sp 0 +
STACK CFI INIT 2e838 ec .cfa: sp 0 +
STACK CFI 2e83c .cfa: sp 112 +
STACK CFI 2e84c .cfa: x29 48 + x19: .cfa -8 + ^ x20: .cfa -16 + ^ x21: .cfa -32 + ^ .ra: .cfa -40 + ^ x29: .cfa -48 + ^
STACK CFI 2e90c .cfa: sp 112 +
STACK CFI 2e91c .cfa: sp 0 +
STACK CFI 2e920 .cfa: x29 48 +
STACK CFI INIT 2e924 ec .cfa: sp 0 +
STACK CFI 2e928 .cfa: sp 112 +
STACK CFI 2e938 .cfa: x29 48 + x19: .cfa -8 + ^ x20: .cfa -16 + ^ x21: .cfa -32 + ^ .ra: .cfa -40 + ^ x29: .cfa -48 + ^
STACK CFI 2e9f8 .cfa: sp 112 +
STACK CFI 2ea08 .cfa: sp 0 +
STACK CFI 2ea0c .cfa: x29 48 +
STACK CFI INIT 2ea10 48 .cfa: sp 0 +
STACK CFI 2ea14 .cfa: sp 32 +
STACK CFI 2ea1c .cfa: x29 32 + x19: .cfa -8 + ^ x20: .cfa -16 + ^ .ra: .cfa -24 + ^ x29: .cfa -32 + ^
STACK CFI 2ea40 .cfa: sp 32 +
STACK CFI 2ea48 .cfa: sp 0 +
STACK CFI 2ea4c .cfa: x29 32 +
STACK CFI INIT 2ea58 98 .cfa: sp 0 +
STACK CFI 2ea5c .cfa: sp 80 +
STACK CFI 2ea68 .cfa: x29 32 + x19: .cfa -16 + ^ .ra: .cfa -24 + ^ x29: .cfa -32 + ^
STACK CFI 2eadc .cfa: sp 80 +
STACK CFI 2eae8 .cfa: sp 0 +
STACK CFI 2eaec .cfa: x29 32 +
STACK CFI INIT 2eaf0 260 .cfa: sp 0 +
STACK CFI 2eaf4 .cfa: sp 112 +
STACK CFI 2eb0c .cfa: x29 80 + x19: .cfa -8 + ^ x20: .cfa -16 + ^ x21: .cfa -24 + ^ x22: .cfa -32 + ^ x23: .cfa -40 + ^ x24: .cfa -48 + ^ x25: .cfa -64 + ^ .ra: .cfa -72 + ^ x29: .cfa -80 + ^
STACK CFI 2ecf0 .cfa: sp 112 +
STACK CFI 2ed08 .cfa: sp 0 +
STACK CFI 2ed0c .cfa: x29 80 +
STACK CFI INIT 2ed50 150 .cfa: sp 0 +
STACK CFI 2ed54 .cfa: sp 48 +
STACK CFI 2ed60 .cfa: x29 48 + x19: .cfa -8 + ^ x20: .cfa -16 + ^ x21: .cfa -24 + ^ x22: .cfa -32 + ^ .ra: .cfa -40 + ^ x29: .cfa -48 + ^
STACK CFI 2ee90 .cfa: sp 48 +
STACK CFI 2ee9c .cfa: sp 0 +
STACK CFI INIT 2eea0 1e0 .cfa: sp 0 +
STACK CFI 2eea4 .cfa: sp 96 +
STACK CFI 2eeb8 .cfa: x29 64 + x19: .cfa -8 + ^ x20: .cfa -16 + ^ x21: .cfa -24 + ^ x22: .cfa -32 + ^ x23: .cfa -40 + ^ x24: .cfa -48 + ^ .ra: .cfa -56 + ^ x29: .cfa -64 + ^
STACK CFI 2f038 .cfa: sp 96 +
STACK CFI 2f04c .cfa: sp 0 +
STACK CFI 2f050 .cfa: x29 64 +
STACK CFI INIT 2f080 284 .cfa: sp 0 +
STACK CFI 2f084 .cfa: sp 112 +
STACK CFI 2f09c .cfa: x29 80 + x19: .cfa -8 + ^ x20: .cfa -16 + ^ x21: .cfa -24 + ^ x22: .cfa -32 + ^ x23: .cfa -40 + ^ x24: .cfa -48 + ^ x25: .cfa -64 + ^ .ra: .cfa -72 + ^ x29: .cfa -80 + ^
STACK CFI 2f2a4 .cfa: sp 112 +
STACK CFI 2f2bc .cfa: sp 0 +
STACK CFI 2f2c0 .cfa: x29 80 +
STACK CFI INIT 2f304 208 .cfa: sp 0 +
STACK CFI 2f308 .cfa: sp 96 +
STACK CFI 2f31c .cfa: x29 64 + x19: .cfa -8 + ^ x20: .cfa -16 + ^ x21: .cfa -24 + ^ x22: .cfa -32 + ^ x23: .cfa -40 + ^ x24: .cfa -48 + ^ .ra: .cfa -56 + ^ x29: .cfa -64 + ^
STACK CFI 2f4c4 .cfa: sp 96 +
STACK CFI 2f4d8 .cfa: sp 0 +
STACK CFI 2f4dc .cfa: x29 64 +
STACK CFI INIT 2f50c 360 .cfa: sp 0 +
STACK CFI 2f510 .cfa: sp 160 +
STACK CFI 2f52c .cfa: x29 96 + x19: .cfa -8 + ^ x20: .cfa -16 + ^ x21: .cfa -24 + ^ x22: .cfa -32 + ^ x23: .cfa -40 + ^ x24: .cfa -48 + ^ x25: .cfa -56 + ^ x26: .cfa -64 + ^ x27: .cfa -72 + ^ x28: .cfa -80 + ^ .ra: .cfa -88 + ^ x29: .cfa -96 + ^
STACK CFI 2f7f8 .cfa: sp 160 +
STACK CFI 2f814 .cfa: sp 0 +
STACK CFI 2f818 .cfa: x29 96 +
STACK CFI INIT 2f86c 314 .cfa: sp 0 +
STACK CFI 2f870 .cfa: sp 144 +
STACK CFI 2f88c .cfa: x29 96 + x19: .cfa -8 + ^ x20: .cfa -16 + ^ x21: .cfa -24 + ^ x22: .cfa -32 + ^ x23: .cfa -40 + ^ x24: .cfa -48 + ^ x25: .cfa -56 + ^ x26: .cfa -64 + ^ x27: .cfa -72 + ^ x28: .cfa -80 + ^ .ra: .cfa -88 + ^ x29: .cfa -96 + ^
STACK CFI 2fb08 .cfa: sp 144 +
STACK CFI 2fb24 .cfa: sp 0 +
STACK CFI 2fb28 .cfa: x29 96 +
STACK CFI INIT 2fb80 290 .cfa: sp 0 +
STACK CFI 2fb84 .cfa: sp 128 +
STACK CFI 2fb9c .cfa: x29 80 + x19: .cfa -8 + ^ x20: .cfa -16 + ^ x21: .cfa -24 + ^ x22: .cfa -32 + ^ x23: .cfa -40 + ^ x24: .cfa -48 + ^ x25: .cfa -56 + ^ x26: .cfa -64 + ^ .ra: .cfa -72 + ^ x29: .cfa -80 + ^
STACK CFI 2fdf0 .cfa: sp 128 +
STACK CFI 2fe08 .cfa: sp 0 +
STACK CFI 2fe0c .cfa: x29 80 +
STACK CFI INIT 2fe10 ddc .cfa: sp 0 +
STACK CFI 2fe14 .cfa: sp 144 +
STACK CFI 2fe30 .cfa: x29 96 + x19: .cfa -8 + ^ x20: .cfa -16 + ^ x21: .cfa -24 + ^ x22: .cfa -32 + ^ x23: .cfa -40 + ^ x24: .cfa -48 + ^ x25: .cfa -56 + ^ x26: .cfa -64 + ^ x27: .cfa -72 + ^ x28: .cfa -80 + ^ .ra: .cfa -88 + ^ x29: .cfa -96 + ^
STACK CFI 30ac4 .cfa: sp 144 +
STACK CFI 30ae0 .cfa: sp 0 +
STACK CFI 30ae4 .cfa: x29 96 +
STACK CFI INIT 30bec 1d0 .cfa: sp 0 +
STACK CFI 30bf0 .cfa: sp 80 +
STACK CFI 30c04 .cfa: x29 80 + x19: .cfa -8 + ^ x20: .cfa -16 + ^ x21: .cfa -24 + ^ x22: .cfa -32 + ^ x23: .cfa -40 + ^ x24: .cfa -48 + ^ x25: .cfa -64 + ^ .ra: .cfa -72 + ^ x29: .cfa -80 + ^
STACK CFI 30da4 .cfa: sp 80 +
STACK CFI 30db8 .cfa: sp 0 +
STACK CFI INIT 30dbc 23c .cfa: sp 0 +
STACK CFI 30dc0 .cfa: sp 112 +
STACK CFI 30dd4 .cfa: x29 64 + x19: .cfa -8 + ^ x20: .cfa -16 + ^ x21: .cfa -24 + ^ x22: .cfa -32 + ^ x23: .cfa -40 + ^ x24: .cfa -48 + ^ .ra: .cfa -56 + ^ x29: .cfa -64 + ^
STACK CFI 30fb0 .cfa: sp 112 +
STACK CFI 30fc4 .cfa: sp 0 +
STACK CFI 30fc8 .cfa: x29 64 +
STACK CFI INIT 30ff8 30c .cfa: sp 0 +
STACK CFI 30ffc .cfa: sp 80 +
STACK CFI 31010 .cfa: x29 64 + x19: .cfa -8 + ^ x20: .cfa -16 + ^ x21: .cfa -24 + ^ x22: .cfa -32 + ^ x23: .cfa -40 + ^ x24: .cfa -48 + ^ .ra: .cfa -56 + ^ x29: .cfa -64 + ^
STACK CFI 3118c .cfa: sp 80 +
STACK CFI 311a0 .cfa: sp 0 +
STACK CFI 311a4 .cfa: x29 64 +
STACK CFI INIT 31304 178 .cfa: sp 0 +
STACK CFI 31308 .cfa: sp 80 +
STACK CFI 3131c .cfa: x29 64 + x19: .cfa -8 + ^ x20: .cfa -16 + ^ x21: .cfa -24 + ^ x22: .cfa -32 + ^ x23: .cfa -40 + ^ x24: .cfa -48 + ^ .ra: .cfa -56 + ^ x29: .cfa -64 + ^
STACK CFI 31460 .cfa: sp 80 +
STACK CFI 31474 .cfa: sp 0 +
STACK CFI 31478 .cfa: x29 64 +
STACK CFI INIT 3147c 178 .cfa: sp 0 +
STACK CFI 31480 .cfa: sp 80 +
STACK CFI 31494 .cfa: x29 64 + x19: .cfa -8 + ^ x20: .cfa -16 + ^ x21: .cfa -24 + ^ x22: .cfa -32 + ^ x23: .cfa -40 + ^ x24: .cfa -48 + ^ .ra: .cfa -56 + ^ x29: .cfa -64 + ^
STACK CFI 315d8 .cfa: sp 80 +
STACK CFI 315ec .cfa: sp 0 +
STACK CFI 315f0 .cfa: x29 64 +
STACK CFI INIT 315f4 240 .cfa: sp 0 +
STACK CFI 315f8 .cfa: sp 96 +
STACK CFI 31610 .cfa: x29 96 + x19: .cfa -8 + ^ x20: .cfa -16 + ^ x21: .cfa -24 + ^ x22: .cfa -32 + ^ x23: .cfa -40 + ^ x24: .cfa -48 + ^ x25: .cfa -56 + ^ x26: .cfa -64 + ^ x27: .cfa -72 + ^ x28: .cfa -80 + ^ .ra: .cfa -88 + ^ x29: .cfa -96 + ^
STACK CFI 31818 .cfa: sp 96 +
STACK CFI 31830 .cfa: sp 0 +
STACK CFI INIT 324a8 154 .cfa: sp 0 +
STACK CFI 324ac .cfa: sp 96 +
STACK CFI 324c0 .cfa: x29 64 + x19: .cfa -8 + ^ x20: .cfa -16 + ^ x21: .cfa -24 + ^ x22: .cfa -32 + ^ x23: .cfa -48 + ^ .ra: .cfa -56 + ^ x29: .cfa -64 + ^
STACK CFI 325a0 .cfa: sp 96 +
STACK CFI 325b4 .cfa: sp 0 +
STACK CFI 325b8 .cfa: x29 64 +
STACK CFI INIT 32868 44 .cfa: sp 0 +
STACK CFI 3286c .cfa: sp 32 +
STACK CFI 32874 .cfa: x29 32 + x19: .cfa -16 + ^ .ra: .cfa -24 + ^ x29: .cfa -32 + ^
STACK CFI 32890 .cfa: sp 32 +
STACK CFI 32898 .cfa: sp 0 +
STACK CFI 3289c .cfa: x29 32 +
STACK CFI 328a0 .cfa: sp 32 +
STACK CFI 328a8 .cfa: sp 0 +
STACK CFI INIT 328ac 1d0 .cfa: sp 0 +
STACK CFI 328b0 .cfa: sp 64 +
STACK CFI 328c0 .cfa: x29 64 + x19: .cfa -8 + ^ x20: .cfa -16 + ^ x21: .cfa -24 + ^ x22: .cfa -32 + ^ x23: .cfa -40 + ^ x24: .cfa -48 + ^ .ra: .cfa -56 + ^ x29: .cfa -64 + ^
STACK CFI 32980 .cfa: sp 64 +
STACK CFI 32990 .cfa: sp 0 +
STACK CFI 32994 .cfa: x29 64 +
STACK CFI INIT 32a7c 17c .cfa: sp 0 +
STACK CFI INIT 32bf8 ac .cfa: sp 0 +
STACK CFI 32bfc .cfa: sp 64 +
STACK CFI 32c0c .cfa: x29 64 + x19: .cfa -8 + ^ x20: .cfa -16 + ^ x21: .cfa -24 + ^ x22: .cfa -32 + ^ x23: .cfa -48 + ^ .ra: .cfa -56 + ^ x29: .cfa -64 + ^
STACK CFI 32c88 .cfa: sp 64 +
STACK CFI 32c98 .cfa: sp 0 +
STACK CFI 32c9c .cfa: x29 64 +
STACK CFI INIT 32ca4 110 .cfa: sp 0 +
STACK CFI 32ca8 .cfa: sp 64 +
STACK CFI 32cb8 .cfa: x29 64 + x19: .cfa -8 + ^ x20: .cfa -16 + ^ x21: .cfa -24 + ^ x22: .cfa -32 + ^ x23: .cfa -40 + ^ x24: .cfa -48 + ^ .ra: .cfa -56 + ^ x29: .cfa -64 + ^
STACK CFI 32d98 .cfa: sp 64 +
STACK CFI 32da8 .cfa: sp 0 +
STACK CFI 32dac .cfa: x29 64 +
STACK CFI INIT 3316c a0 .cfa: sp 0 +
STACK CFI 33170 .cfa: sp 48 +
STACK CFI 3317c .cfa: x29 48 + x19: .cfa -8 + ^ x20: .cfa -16 + ^ x21: .cfa -24 + ^ x22: .cfa -32 + ^ .ra: .cfa -40 + ^ x29: .cfa -48 + ^
STACK CFI 331e8 .cfa: sp 48 +
STACK CFI 331f4 .cfa: sp 0 +
STACK CFI 331f8 .cfa: sp 48 +
STACK CFI 33204 .cfa: sp 0 +
STACK CFI 33208 .cfa: x29 48 +
STACK CFI INIT 33ec0 158 .cfa: sp 0 +
STACK CFI 33ec4 .cfa: sp 96 +
STACK CFI 33ed8 .cfa: x29 64 + x19: .cfa -8 + ^ x20: .cfa -16 + ^ x21: .cfa -24 + ^ x22: .cfa -32 + ^ x23: .cfa -48 + ^ .ra: .cfa -56 + ^ x29: .cfa -64 + ^
STACK CFI 33fbc .cfa: sp 96 +
STACK CFI 33fd0 .cfa: sp 0 +
STACK CFI 33fd4 .cfa: x29 64 +
STACK CFI INIT 34018 190 .cfa: sp 0 +
STACK CFI INIT 34ca4 1dc .cfa: sp 0 +
STACK CFI 34ca8 .cfa: sp 80 +
STACK CFI 34cbc .cfa: x29 80 + x19: .cfa -8 + ^ x20: .cfa -16 + ^ x21: .cfa -24 + ^ x22: .cfa -32 + ^ x23: .cfa -40 + ^ x24: .cfa -48 + ^ x25: .cfa -64 + ^ .ra: .cfa -72 + ^ x29: .cfa -80 + ^
STACK CFI 34e68 .cfa: sp 80 +
STACK CFI 34e7c .cfa: sp 0 +
STACK CFI INIT 362b0 124 .cfa: sp 0 +
STACK CFI 362e0 .cfa: sp 32 +
STACK CFI 362e8 .cfa: x29 32 + x19: .cfa -8 + ^ x20: .cfa -16 + ^ .ra: .cfa -24 + ^ x29: .cfa -32 + ^
STACK CFI 363c8 .cfa: sp 32 +
STACK CFI 363d0 .cfa: sp 0 +
STACK CFI INIT 36b30 320 .cfa: sp 0 +
STACK CFI 36b34 .cfa: sp 64 +
STACK CFI 36b44 .cfa: x29 64 + x19: .cfa -8 + ^ x20: .cfa -16 + ^ x21: .cfa -24 + ^ x22: .cfa -32 + ^ x23: .cfa -40 + ^ x24: .cfa -48 + ^ .ra: .cfa -56 + ^ x29: .cfa -64 + ^
STACK CFI 36bc0 .cfa: sp 64 +
STACK CFI 36bd0 .cfa: sp 0 +
STACK CFI 36bd4 .cfa: x29 64 +
STACK CFI 36da8 .cfa: sp 64 +
STACK CFI 36db8 .cfa: sp 0 +
STACK CFI 36dbc .cfa: x29 64 +
STACK CFI 36dcc .cfa: sp 64 +
STACK CFI 36ddc .cfa: sp 0 +
STACK CFI 36de0 .cfa: x29 64 +
STACK CFI INIT 36e50 a0 .cfa: sp 0 +
STACK CFI 36e54 .cfa: sp 48 +
STACK CFI 36e60 .cfa: x29 48 + x19: .cfa -8 + ^ x20: .cfa -16 + ^ x21: .cfa -24 + ^ x22: .cfa -32 + ^ .ra: .cfa -40 + ^ x29: .cfa -48 + ^
STACK CFI 36ecc .cfa: sp 48 +
STACK CFI 36ed8 .cfa: sp 0 +
STACK CFI 36edc .cfa: sp 48 +
STACK CFI 36ee8 .cfa: sp 0 +
STACK CFI 36eec .cfa: x29 48 +
STACK CFI INIT 37da0 160 .cfa: sp 0 +
STACK CFI 37da4 .cfa: sp 64 +
STACK CFI 37db4 .cfa: x29 64 + x19: .cfa -8 + ^ x20: .cfa -16 + ^ x21: .cfa -24 + ^ x22: .cfa -32 + ^ x23: .cfa -48 + ^ .ra: .cfa -56 + ^ x29: .cfa -64 + ^
STACK CFI 37eac .cfa: sp 64 +
STACK CFI 37ebc .cfa: sp 0 +
STACK CFI 37ec0 .cfa: x29 64 +
STACK CFI INIT 37f00 214 .cfa: sp 0 +
STACK CFI 37f04 .cfa: sp 128 +
STACK CFI 37f20 .cfa: x29 96 + x19: .cfa -8 + ^ x20: .cfa -16 + ^ x21: .cfa -24 + ^ x22: .cfa -32 + ^ x23: .cfa -40 + ^ x24: .cfa -48 + ^ x25: .cfa -56 + ^ x26: .cfa -64 + ^ x27: .cfa -80 + ^ .ra: .cfa -88 + ^ x29: .cfa -96 + ^
STACK CFI 3809c .cfa: sp 128 +
STACK CFI 380b8 .cfa: sp 0 +
STACK CFI 380bc .cfa: x29 96 +
STACK CFI INIT 39db0 290 .cfa: sp 0 +
STACK CFI 39db4 .cfa: sp 16 +
STACK CFI 39db8 .cfa: x29 16 + .ra: .cfa -8 + ^ x29: .cfa -16 + ^
STACK CFI 39e44 .cfa: sp 16 +
STACK CFI 39e48 .cfa: sp 0 +
STACK CFI 39e4c .cfa: x29 16 +
STACK CFI 39e9c .cfa: sp 16 +
STACK CFI 39ea0 .cfa: sp 0 +
STACK CFI 39ea4 .cfa: x29 16 +
STACK CFI 3a008 .cfa: sp 16 +
STACK CFI 3a00c .cfa: sp 0 +
STACK CFI 3a010 .cfa: x29 16 +
STACK CFI INIT 3a040 158 .cfa: sp 0 +
STACK CFI 3a044 .cfa: sp 112 +
STACK CFI 3a060 .cfa: x29 96 + x19: .cfa -8 + ^ x20: .cfa -16 + ^ x21: .cfa -24 + ^ x22: .cfa -32 + ^ x23: .cfa -40 + ^ x24: .cfa -48 + ^ x25: .cfa -56 + ^ x26: .cfa -64 + ^ x27: .cfa -72 + ^ x28: .cfa -80 + ^ .ra: .cfa -88 + ^ x29: .cfa -96 + ^
STACK CFI 3a148 .cfa: sp 112 +
STACK CFI 3a14c .cfa: x29 96 +
STACK CFI 3a154 .cfa: sp 112 +
STACK CFI 3a170 .cfa: sp 0 +
STACK CFI 3a174 .cfa: x29 96 +
STACK CFI 3a194 .cfa: sp 112 +
STACK CFI INIT 3a198 e54 .cfa: sp 0 +
STACK CFI 3a19c .cfa: sp 192 +
STACK CFI 3a1b8 .cfa: x29 96 + x19: .cfa -8 + ^ x20: .cfa -16 + ^ x21: .cfa -24 + ^ x22: .cfa -32 + ^ x23: .cfa -40 + ^ x24: .cfa -48 + ^ x25: .cfa -56 + ^ x26: .cfa -64 + ^ x27: .cfa -72 + ^ x28: .cfa -80 + ^ .ra: .cfa -88 + ^ x29: .cfa -96 + ^
STACK CFI 3aed4 .cfa: sp 192 +
STACK CFI 3aef0 .cfa: sp 0 +
STACK CFI 3aef4 .cfa: x29 96 +
STACK CFI INIT 3afec 1068 .cfa: sp 0 +
STACK CFI 3aff0 .cfa: sp 288 +
STACK CFI 3b00c .cfa: x29 96 + x19: .cfa -8 + ^ x20: .cfa -16 + ^ x21: .cfa -24 + ^ x22: .cfa -32 + ^ x23: .cfa -40 + ^ x24: .cfa -48 + ^ x25: .cfa -56 + ^ x26: .cfa -64 + ^ x27: .cfa -72 + ^ x28: .cfa -80 + ^ .ra: .cfa -88 + ^ x29: .cfa -96 + ^
STACK CFI 3bd9c .cfa: sp 288 +
STACK CFI 3bdb8 .cfa: sp 0 +
STACK CFI 3bdbc .cfa: x29 96 +
STACK CFI INIT 3c054 520 .cfa: sp 0 +
STACK CFI 3c058 .cfa: sp 144 +
STACK CFI 3c074 .cfa: x29 96 + x19: .cfa -8 + ^ x20: .cfa -16 + ^ x21: .cfa -24 + ^ x22: .cfa -32 + ^ x23: .cfa -40 + ^ x24: .cfa -48 + ^ x25: .cfa -56 + ^ x26: .cfa -64 + ^ x27: .cfa -72 + ^ x28: .cfa -80 + ^ .ra: .cfa -88 + ^ x29: .cfa -96 + ^
STACK CFI 3c550 .cfa: sp 144 +
STACK CFI 3c56c .cfa: sp 0 +
STACK CFI 3c570 .cfa: x29 96 +
STACK CFI INIT 3cf14 136c .cfa: sp 0 +
STACK CFI 3cf18 .cfa: sp 224 +
STACK CFI 3cf34 .cfa: x29 96 + x19: .cfa -8 + ^ x20: .cfa -16 + ^ x21: .cfa -24 + ^ x22: .cfa -32 + ^ x23: .cfa -40 + ^ x24: .cfa -48 + ^ x25: .cfa -56 + ^ x26: .cfa -64 + ^ x27: .cfa -72 + ^ x28: .cfa -80 + ^ .ra: .cfa -88 + ^ x29: .cfa -96 + ^
STACK CFI 3e25c .cfa: sp 224 +
STACK CFI 3e278 .cfa: sp 0 +
STACK CFI 3e27c .cfa: x29 96 +
STACK CFI INIT 3e280 1b8 .cfa: sp 0 +
STACK CFI INIT 17ef0 d28 .cfa: sp 0 +
STACK CFI 17ef4 .cfa: sp 256 +
STACK CFI 17f10 .cfa: x29 96 + x19: .cfa -8 + ^ x20: .cfa -16 + ^ x21: .cfa -24 + ^ x22: .cfa -32 + ^ x23: .cfa -40 + ^ x24: .cfa -48 + ^ x25: .cfa -56 + ^ x26: .cfa -64 + ^ x27: .cfa -72 + ^ x28: .cfa -80 + ^ .ra: .cfa -88 + ^ x29: .cfa -96 + ^
STACK CFI 18b5c .cfa: sp 256 +
STACK CFI 18b78 .cfa: sp 0 +
STACK CFI 18b7c .cfa: x29 96 +
STACK CFI INIT 18cb8 50 .cfa: sp 0 +
STACK CFI 18cbc .cfa: sp 32 +
STACK CFI 18cc4 .cfa: x29 32 + x19: .cfa -8 + ^ x20: .cfa -16 + ^ .ra: .cfa -24 + ^ x29: .cfa -32 + ^
STACK CFI INIT 18d6c 3fc .cfa: sp 0 +
STACK CFI 18d70 .cfa: sp 224 +
STACK CFI 18d8c .cfa: x29 96 + x19: .cfa -8 + ^ x20: .cfa -16 + ^ x21: .cfa -24 + ^ x22: .cfa -32 + ^ x23: .cfa -40 + ^ x24: .cfa -48 + ^ x25: .cfa -56 + ^ x26: .cfa -64 + ^ x27: .cfa -72 + ^ x28: .cfa -80 + ^ .ra: .cfa -88 + ^ x29: .cfa -96 + ^
STACK CFI 19064 .cfa: sp 224 +
STACK CFI 19080 .cfa: sp 0 +
STACK CFI 19084 .cfa: x29 96 +
STACK CFI INIT 19168 678 .cfa: sp 0 +
STACK CFI 1916c .cfa: sp 176 +
STACK CFI 19180 .cfa: x29 64 + x19: .cfa -8 + ^ x20: .cfa -16 + ^ x21: .cfa -24 + ^ x22: .cfa -32 + ^ x23: .cfa -40 + ^ x24: .cfa -48 + ^ .ra: .cfa -56 + ^ x29: .cfa -64 + ^
STACK CFI 19624 .cfa: sp 176 +
STACK CFI 19638 .cfa: sp 0 +
STACK CFI 1963c .cfa: x29 64 +
STACK CFI INIT 19830 74 .cfa: sp 0 +
STACK CFI 19834 .cfa: sp 48 +
STACK CFI 19840 .cfa: x29 32 + x19: .cfa -8 + ^ x20: .cfa -16 + ^ .ra: .cfa -24 + ^ x29: .cfa -32 + ^
STACK CFI 1988c .cfa: sp 48 +
STACK CFI 19898 .cfa: sp 0 +
STACK CFI 1989c .cfa: x29 32 +
STACK CFI INIT 19924 154 .cfa: sp 0 +
STACK CFI 19928 .cfa: sp 384 +
STACK CFI 1993c .cfa: x29 64 + x19: .cfa -8 + ^ x20: .cfa -16 + ^ x21: .cfa -24 + ^ x22: .cfa -32 + ^ x23: .cfa -40 + ^ x28: .cfa -48 + ^ .ra: .cfa -56 + ^ x29: .cfa -64 + ^
STACK CFI 19a20 .cfa: sp 384 +
STACK CFI 19a34 .cfa: sp 0 +
STACK CFI 19a38 .cfa: x29 64 +
STACK CFI INIT 19aac 12c .cfa: sp 0 +
STACK CFI 19ab0 .cfa: sp 80 +
STACK CFI 19ac4 .cfa: x29 80 + x19: .cfa -8 + ^ x20: .cfa -16 + ^ x21: .cfa -24 + ^ x22: .cfa -32 + ^ x23: .cfa -40 + ^ x24: .cfa -48 + ^ x25: .cfa -56 + ^ x26: .cfa -64 + ^ .ra: .cfa -72 + ^ x29: .cfa -80 + ^
STACK CFI 19b8c .cfa: sp 80 +
STACK CFI 19ba0 .cfa: sp 0 +
STACK CFI 19ba4 .cfa: x29 80 +
STACK CFI INIT 19c7c 1a4 .cfa: sp 0 +
STACK CFI 19c80 .cfa: sp 112 +
STACK CFI 19c98 .cfa: x29 80 + x19: .cfa -8 + ^ x20: .cfa -16 + ^ x21: .cfa -24 + ^ x22: .cfa -32 + ^ x23: .cfa -40 + ^ x24: .cfa -48 + ^ x25: .cfa -56 + ^ x26: .cfa -64 + ^ .ra: .cfa -72 + ^ x29: .cfa -80 + ^
STACK CFI 19d88 .cfa: sp 112 +
STACK CFI 19da0 .cfa: sp 0 +
STACK CFI 19da4 .cfa: x29 80 +
STACK CFI INIT 19e20 1dc .cfa: sp 0 +
STACK CFI 19e24 .cfa: sp 128 +
STACK CFI 19e40 .cfa: x29 96 + x19: .cfa -8 + ^ x20: .cfa -16 + ^ x21: .cfa -24 + ^ x22: .cfa -32 + ^ x23: .cfa -40 + ^ x24: .cfa -48 + ^ x25: .cfa -56 + ^ x26: .cfa -64 + ^ x27: .cfa -80 + ^ .ra: .cfa -88 + ^ x29: .cfa -96 + ^
STACK CFI 19fac .cfa: sp 128 +
STACK CFI 19fc8 .cfa: sp 0 +
STACK CFI 19fcc .cfa: x29 96 +
STACK CFI INIT 19ffc 178 .cfa: sp 0 +
STACK CFI 1a000 .cfa: sp 80 +
STACK CFI 1a014 .cfa: x29 80 + x19: .cfa -8 + ^ x20: .cfa -16 + ^ x21: .cfa -24 + ^ x22: .cfa -32 + ^ x23: .cfa -40 + ^ x24: .cfa -48 + ^ x25: .cfa -64 + ^ .ra: .cfa -72 + ^ x29: .cfa -80 + ^
STACK CFI 1a140 .cfa: sp 80 +
STACK CFI 1a154 .cfa: sp 0 +
STACK CFI 1a158 .cfa: x29 80 +
STACK CFI INIT 1a2bc 228 .cfa: sp 0 +
STACK CFI 1a2c0 .cfa: sp 128 +
STACK CFI 1a2d8 .cfa: x29 80 + x19: .cfa -8 + ^ x20: .cfa -16 + ^ x21: .cfa -24 + ^ x22: .cfa -32 + ^ x23: .cfa -40 + ^ x24: .cfa -48 + ^ x25: .cfa -64 + ^ .ra: .cfa -72 + ^ x29: .cfa -80 + ^
STACK CFI 1a474 .cfa: sp 128 +
STACK CFI 1a48c .cfa: sp 0 +
STACK CFI 1a490 .cfa: x29 80 +
STACK CFI INIT 1ac40 118 .cfa: sp 0 +
STACK CFI 1ac44 .cfa: sp 144 +
STACK CFI 1ac5c .cfa: x29 80 + x19: .cfa -8 + ^ x20: .cfa -16 + ^ x21: .cfa -24 + ^ x22: .cfa -32 + ^ x23: .cfa -40 + ^ x24: .cfa -48 + ^ x25: .cfa -64 + ^ .ra: .cfa -72 + ^ x29: .cfa -80 + ^
STACK CFI 1ad04 .cfa: sp 144 +
STACK CFI 1ad1c .cfa: sp 0 +
STACK CFI 1ad20 .cfa: x29 80 +
STACK CFI INIT 1ad98 184 .cfa: sp 0 +
STACK CFI 1ad9c .cfa: sp 144 +
STACK CFI 1adb4 .cfa: x29 80 + x19: .cfa -8 + ^ x20: .cfa -16 + ^ x21: .cfa -24 + ^ x22: .cfa -32 + ^ x23: .cfa -40 + ^ x24: .cfa -48 + ^ x25: .cfa -56 + ^ x26: .cfa -64 + ^ .ra: .cfa -72 + ^ x29: .cfa -80 + ^
STACK CFI 1aeb4 .cfa: sp 144 +
STACK CFI 1aecc .cfa: sp 0 +
STACK CFI 1aed0 .cfa: x29 80 +
STACK CFI INIT 1af20 184 .cfa: sp 0 +
STACK CFI 1af24 .cfa: sp 160 +
STACK CFI 1af3c .cfa: x29 80 + x19: .cfa -8 + ^ x20: .cfa -16 + ^ x21: .cfa -24 + ^ x22: .cfa -32 + ^ x23: .cfa -40 + ^ x24: .cfa -48 + ^ x25: .cfa -56 + ^ x26: .cfa -64 + ^ .ra: .cfa -72 + ^ x29: .cfa -80 + ^
STACK CFI 1b03c .cfa: sp 160 +
STACK CFI 1b054 .cfa: sp 0 +
STACK CFI 1b058 .cfa: x29 80 +
STACK CFI INIT 1b0a8 ec .cfa: sp 0 +
STACK CFI 1b0ac .cfa: sp 48 +
STACK CFI 1b0b8 .cfa: x29 48 + x19: .cfa -8 + ^ x20: .cfa -16 + ^ x21: .cfa -24 + ^ x22: .cfa -32 + ^ .ra: .cfa -40 + ^ x29: .cfa -48 + ^
STACK CFI 1b104 .cfa: sp 48 +
STACK CFI 1b110 .cfa: sp 0 +
STACK CFI 1b114 .cfa: x29 48 +
STACK CFI 1b118 .cfa: sp 48 +
STACK CFI 1b124 .cfa: sp 0 +
STACK CFI 1b128 .cfa: x29 48 +
STACK CFI INIT 1b22c 2d4 .cfa: sp 0 +
STACK CFI 1b230 .cfa: sp 96 +
STACK CFI 1b248 .cfa: x29 80 + x19: .cfa -8 + ^ x20: .cfa -16 + ^ x21: .cfa -24 + ^ x22: .cfa -32 + ^ x23: .cfa -40 + ^ x24: .cfa -48 + ^ x25: .cfa -64 + ^ .ra: .cfa -72 + ^ x29: .cfa -80 + ^
STACK CFI 1b49c .cfa: sp 96 +
STACK CFI 1b4b4 .cfa: sp 0 +
STACK CFI 1b4b8 .cfa: x29 80 +
STACK CFI INIT 1b8f0 20 .cfa: sp 0 +
STACK CFI 1b8f4 .cfa: sp 16 +
STACK CFI 1b8f8 .cfa: x29 16 + .ra: .cfa -8 + ^ x29: .cfa -16 + ^
STACK CFI 1b904 .cfa: sp 16 +
STACK CFI 1b908 .cfa: sp 0 +
STACK CFI 1b90c .cfa: x29 16 +
STACK CFI INIT 1b910 c4 .cfa: sp 0 +
STACK CFI 1b914 .cfa: sp 48 +
STACK CFI 1b920 .cfa: x29 48 + x19: .cfa -8 + ^ x20: .cfa -16 + ^ x21: .cfa -32 + ^ .ra: .cfa -40 + ^ x29: .cfa -48 + ^
STACK CFI 1b98c .cfa: sp 48 +
STACK CFI 1b998 .cfa: sp 0 +
STACK CFI 1b99c .cfa: x29 48 +
STACK CFI 1b9c0 .cfa: sp 48 +
STACK CFI 1b9cc .cfa: sp 0 +
STACK CFI 1b9d0 .cfa: x29 48 +
STACK CFI INIT 1b9d4 84 .cfa: sp 0 +
STACK CFI 1b9d8 .cfa: sp 48 +
STACK CFI 1b9e4 .cfa: x29 48 + x19: .cfa -8 + ^ x20: .cfa -16 + ^ x21: .cfa -32 + ^ .ra: .cfa -40 + ^ x29: .cfa -48 + ^
STACK CFI 1ba04 .cfa: sp 48 +
STACK CFI 1ba10 .cfa: sp 0 +
STACK CFI 1ba14 .cfa: x29 48 +
STACK CFI 1ba34 .cfa: sp 48 +
STACK CFI 1ba40 .cfa: sp 0 +
STACK CFI 1ba44 .cfa: sp 48 +
STACK CFI 1ba50 .cfa: sp 0 +
STACK CFI 1ba54 .cfa: x29 48 +
STACK CFI INIT 1ba58 94 .cfa: sp 0 +
STACK CFI 1ba5c .cfa: sp 48 +
STACK CFI 1ba68 .cfa: x29 48 + x19: .cfa -8 + ^ x20: .cfa -16 + ^ x21: .cfa -24 + ^ x22: .cfa -32 + ^ .ra: .cfa -40 + ^ x29: .cfa -48 + ^
STACK CFI 1ba70 .cfa: sp 48 +
STACK CFI 1ba7c .cfa: sp 0 +
STACK CFI 1ba80 .cfa: x29 48 +
STACK CFI 1baa4 .cfa: sp 48 +
STACK CFI 1bab0 .cfa: sp 0 +
STACK CFI 1bab4 .cfa: x29 48 +
STACK CFI 1bad8 .cfa: sp 48 +
STACK CFI 1bae4 .cfa: sp 0 +
STACK CFI 1bae8 .cfa: x29 48 +
STACK CFI INIT 1baec 48 .cfa: sp 0 +
STACK CFI 1baf0 .cfa: sp 32 +
STACK CFI 1baf8 .cfa: x29 32 + x19: .cfa -8 + ^ x20: .cfa -16 + ^ .ra: .cfa -24 + ^ x29: .cfa -32 + ^
STACK CFI 1bb00 .cfa: sp 32 +
STACK CFI 1bb08 .cfa: sp 0 +
STACK CFI 1bb0c .cfa: x29 32 +
STACK CFI INIT 1bb34 1128 .cfa: sp 0 +
STACK CFI 1bb38 .cfa: sp 480 +
STACK CFI 1bb50 .cfa: x29 80 + x19: .cfa -8 + ^ x20: .cfa -16 + ^ x21: .cfa -24 + ^ x22: .cfa -32 + ^ x23: .cfa -40 + ^ x24: .cfa -48 + ^ x28: .cfa -64 + ^ .ra: .cfa -72 + ^ x29: .cfa -80 + ^
STACK CFI 1ca50 .cfa: sp 480 +
STACK CFI 1ca68 .cfa: sp 0 +
STACK CFI 1ca6c .cfa: x29 80 +
STACK CFI INIT 1cc5c 120 .cfa: sp 0 +
STACK CFI 1cc60 .cfa: sp 96 +
STACK CFI 1cc70 .cfa: x29 48 + x19: .cfa -8 + ^ x20: .cfa -16 + ^ x21: .cfa -32 + ^ .ra: .cfa -40 + ^ x29: .cfa -48 + ^
STACK CFI 1cd38 .cfa: sp 96 +
STACK CFI 1cd48 .cfa: sp 0 +
STACK CFI 1cd4c .cfa: x29 48 +
STACK CFI INIT 1cd7c 288 .cfa: sp 0 +
STACK CFI 1cd80 .cfa: sp 112 +
STACK CFI 1cd94 .cfa: x29 64 + x19: .cfa -8 + ^ x20: .cfa -16 + ^ x21: .cfa -24 + ^ x22: .cfa -32 + ^ x23: .cfa -48 + ^ .ra: .cfa -56 + ^ x29: .cfa -64 + ^
STACK CFI 1cfa8 .cfa: sp 112 +
STACK CFI 1cfbc .cfa: sp 0 +
STACK CFI 1cfc0 .cfa: x29 64 +
STACK CFI INIT 1d004 134 .cfa: sp 0 +
STACK CFI 1d008 .cfa: sp 80 +
STACK CFI 1d018 .cfa: x29 48 + x19: .cfa -8 + ^ x20: .cfa -16 + ^ x21: .cfa -24 + ^ x22: .cfa -32 + ^ .ra: .cfa -40 + ^ x29: .cfa -48 + ^
STACK CFI 1d11c .cfa: sp 80 +
STACK CFI 1d12c .cfa: sp 0 +
STACK CFI 1d130 .cfa: x29 48 +
STACK CFI INIT 1d23c 1fc .cfa: sp 0 +
STACK CFI 1d240 .cfa: sp 112 +
STACK CFI 1d254 .cfa: x29 64 + x19: .cfa -8 + ^ x20: .cfa -16 + ^ x21: .cfa -24 + ^ x22: .cfa -32 + ^ x23: .cfa -48 + ^ .ra: .cfa -56 + ^ x29: .cfa -64 + ^
STACK CFI 1d3e0 .cfa: sp 112 +
STACK CFI 1d3f4 .cfa: sp 0 +
STACK CFI 1d3f8 .cfa: x29 64 +
STACK CFI INIT 1d438 290 .cfa: sp 0 +
STACK CFI 1d43c .cfa: sp 112 +
STACK CFI 1d450 .cfa: x29 64 + x19: .cfa -8 + ^ x20: .cfa -16 + ^ x21: .cfa -24 + ^ x22: .cfa -32 + ^ x23: .cfa -48 + ^ .ra: .cfa -56 + ^ x29: .cfa -64 + ^
STACK CFI 1d66c .cfa: sp 112 +
STACK CFI 1d680 .cfa: sp 0 +
STACK CFI 1d684 .cfa: x29 64 +
STACK CFI INIT 1d6c8 1f0 .cfa: sp 0 +
STACK CFI 1d6cc .cfa: sp 96 +
STACK CFI 1d6dc .cfa: x29 48 + x19: .cfa -8 + ^ x20: .cfa -16 + ^ x21: .cfa -24 + ^ x22: .cfa -32 + ^ .ra: .cfa -40 + ^ x29: .cfa -48 + ^
STACK CFI 1d864 .cfa: sp 96 +
STACK CFI 1d874 .cfa: sp 0 +
STACK CFI 1d878 .cfa: x29 48 +
STACK CFI INIT 1d8b8 28c .cfa: sp 0 +
STACK CFI 1d8bc .cfa: sp 112 +
STACK CFI 1d8d0 .cfa: x29 64 + x19: .cfa -8 + ^ x20: .cfa -16 + ^ x21: .cfa -24 + ^ x22: .cfa -32 + ^ x23: .cfa -48 + ^ .ra: .cfa -56 + ^ x29: .cfa -64 + ^
STACK CFI 1dae8 .cfa: sp 112 +
STACK CFI 1dafc .cfa: sp 0 +
STACK CFI 1db00 .cfa: x29 64 +
STACK CFI INIT 1db44 200 .cfa: sp 0 +
STACK CFI 1db48 .cfa: sp 112 +
STACK CFI 1db5c .cfa: x29 64 + x19: .cfa -8 + ^ x20: .cfa -16 + ^ x21: .cfa -24 + ^ x22: .cfa -32 + ^ x23: .cfa -48 + ^ .ra: .cfa -56 + ^ x29: .cfa -64 + ^
STACK CFI 1dcec .cfa: sp 112 +
STACK CFI 1dd00 .cfa: sp 0 +
STACK CFI 1dd04 .cfa: x29 64 +
STACK CFI INIT 1dd44 1fc .cfa: sp 0 +
STACK CFI 1dd48 .cfa: sp 112 +
STACK CFI 1dd5c .cfa: x29 64 + x19: .cfa -8 + ^ x20: .cfa -16 + ^ x21: .cfa -24 + ^ x22: .cfa -32 + ^ x23: .cfa -48 + ^ .ra: .cfa -56 + ^ x29: .cfa -64 + ^
STACK CFI 1dee8 .cfa: sp 112 +
STACK CFI 1defc .cfa: sp 0 +
STACK CFI 1df00 .cfa: x29 64 +
STACK CFI INIT 1df40 3fc .cfa: sp 0 +
STACK CFI 1df44 .cfa: sp 96 +
STACK CFI 1df54 .cfa: x29 48 + x19: .cfa -8 + ^ x20: .cfa -16 + ^ x21: .cfa -24 + ^ x22: .cfa -32 + ^ .ra: .cfa -40 + ^ x29: .cfa -48 + ^
STACK CFI 1e2d8 .cfa: sp 96 +
STACK CFI 1e2e8 .cfa: sp 0 +
STACK CFI 1e2ec .cfa: x29 48 +
STACK CFI INIT 1e33c 2f0 .cfa: sp 0 +
STACK CFI 1e340 .cfa: sp 96 +
STACK CFI 1e350 .cfa: x29 48 + x19: .cfa -8 + ^ x20: .cfa -16 + ^ x21: .cfa -24 + ^ x22: .cfa -32 + ^ .ra: .cfa -40 + ^ x29: .cfa -48 + ^
STACK CFI 1e5d0 .cfa: sp 96 +
STACK CFI 1e5e0 .cfa: sp 0 +
STACK CFI 1e5e4 .cfa: x29 48 +
STACK CFI INIT 1e62c 294 .cfa: sp 0 +
STACK CFI 1e630 .cfa: sp 112 +
STACK CFI 1e644 .cfa: x29 64 + x19: .cfa -8 + ^ x20: .cfa -16 + ^ x21: .cfa -24 + ^ x22: .cfa -32 + ^ x23: .cfa -48 + ^ .ra: .cfa -56 + ^ x29: .cfa -64 + ^
STACK CFI 1e864 .cfa: sp 112 +
STACK CFI 1e878 .cfa: sp 0 +
STACK CFI 1e87c .cfa: x29 64 +
STACK CFI INIT 1e8c0 438 .cfa: sp 0 +
STACK CFI 1e8c4 .cfa: sp 112 +
STACK CFI 1e8d8 .cfa: x29 64 + x19: .cfa -8 + ^ x20: .cfa -16 + ^ x21: .cfa -24 + ^ x22: .cfa -32 + ^ x23: .cfa -48 + ^ .ra: .cfa -56 + ^ x29: .cfa -64 + ^
STACK CFI 1ec90 .cfa: sp 112 +
STACK CFI 1eca4 .cfa: sp 0 +
STACK CFI 1eca8 .cfa: x29 64 +
STACK CFI INIT 1ecf8 294 .cfa: sp 0 +
STACK CFI 1ecfc .cfa: sp 112 +
STACK CFI 1ed10 .cfa: x29 64 + x19: .cfa -8 + ^ x20: .cfa -16 + ^ x21: .cfa -24 + ^ x22: .cfa -32 + ^ x23: .cfa -48 + ^ .ra: .cfa -56 + ^ x29: .cfa -64 + ^
STACK CFI 1ef30 .cfa: sp 112 +
STACK CFI 1ef44 .cfa: sp 0 +
STACK CFI 1ef48 .cfa: x29 64 +
STACK CFI INIT 1ef8c 120 .cfa: sp 0 +
STACK CFI 1ef90 .cfa: sp 96 +
STACK CFI 1efa0 .cfa: x29 48 + x19: .cfa -8 + ^ x20: .cfa -16 + ^ x21: .cfa -32 + ^ .ra: .cfa -40 + ^ x29: .cfa -48 + ^
STACK CFI 1f068 .cfa: sp 96 +
STACK CFI 1f078 .cfa: sp 0 +
STACK CFI 1f07c .cfa: x29 48 +
STACK CFI INIT 1f0ac 200 .cfa: sp 0 +
STACK CFI 1f0b0 .cfa: sp 112 +
STACK CFI 1f0c4 .cfa: x29 64 + x19: .cfa -8 + ^ x20: .cfa -16 + ^ x21: .cfa -24 + ^ x22: .cfa -32 + ^ x23: .cfa -48 + ^ .ra: .cfa -56 + ^ x29: .cfa -64 + ^
STACK CFI 1f254 .cfa: sp 112 +
STACK CFI 1f268 .cfa: sp 0 +
STACK CFI 1f26c .cfa: x29 64 +
STACK CFI INIT 1f2ac 118 .cfa: sp 0 +
STACK CFI 1f2b0 .cfa: sp 96 +
STACK CFI 1f2c0 .cfa: x29 48 + x19: .cfa -8 + ^ x20: .cfa -16 + ^ x21: .cfa -32 + ^ .ra: .cfa -40 + ^ x29: .cfa -48 + ^
STACK CFI 1f380 .cfa: sp 96 +
STACK CFI 1f390 .cfa: sp 0 +
STACK CFI 1f394 .cfa: x29 48 +
STACK CFI INIT 1f3c4 208 .cfa: sp 0 +
STACK CFI 1f3c8 .cfa: sp 112 +
STACK CFI 1f3dc .cfa: x29 64 + x19: .cfa -8 + ^ x20: .cfa -16 + ^ x21: .cfa -24 + ^ x22: .cfa -32 + ^ x23: .cfa -48 + ^ .ra: .cfa -56 + ^ x29: .cfa -64 + ^
STACK CFI 1f574 .cfa: sp 112 +
STACK CFI 1f588 .cfa: sp 0 +
STACK CFI 1f58c .cfa: x29 64 +
STACK CFI INIT 1f5cc 10c .cfa: sp 0 +
STACK CFI 1f5d0 .cfa: sp 96 +
STACK CFI 1f5e0 .cfa: x29 48 + x19: .cfa -8 + ^ x20: .cfa -16 + ^ x21: .cfa -32 + ^ .ra: .cfa -40 + ^ x29: .cfa -48 + ^
STACK CFI 1f694 .cfa: sp 96 +
STACK CFI 1f6a4 .cfa: sp 0 +
STACK CFI 1f6a8 .cfa: x29 48 +
STACK CFI INIT 1f6d8 118 .cfa: sp 0 +
STACK CFI 1f6dc .cfa: sp 96 +
STACK CFI 1f6ec .cfa: x29 48 + x19: .cfa -8 + ^ x20: .cfa -16 + ^ x21: .cfa -32 + ^ .ra: .cfa -40 + ^ x29: .cfa -48 + ^
STACK CFI 1f7ac .cfa: sp 96 +
STACK CFI 1f7bc .cfa: sp 0 +
STACK CFI 1f7c0 .cfa: x29 48 +
STACK CFI INIT 1f7f0 11c .cfa: sp 0 +
STACK CFI 1f7f4 .cfa: sp 96 +
STACK CFI 1f804 .cfa: x29 48 + x19: .cfa -8 + ^ x20: .cfa -16 + ^ x21: .cfa -32 + ^ .ra: .cfa -40 + ^ x29: .cfa -48 + ^
STACK CFI 1f8c8 .cfa: sp 96 +
STACK CFI 1f8d8 .cfa: sp 0 +
STACK CFI 1f8dc .cfa: x29 48 +
STACK CFI INIT 1f90c 118 .cfa: sp 0 +
STACK CFI 1f910 .cfa: sp 96 +
STACK CFI 1f920 .cfa: x29 48 + x19: .cfa -8 + ^ x20: .cfa -16 + ^ x21: .cfa -32 + ^ .ra: .cfa -40 + ^ x29: .cfa -48 + ^
STACK CFI 1f9e0 .cfa: sp 96 +
STACK CFI 1f9f0 .cfa: sp 0 +
STACK CFI 1f9f4 .cfa: x29 48 +
STACK CFI INIT 1fa24 118 .cfa: sp 0 +
STACK CFI 1fa28 .cfa: sp 96 +
STACK CFI 1fa38 .cfa: x29 48 + x19: .cfa -8 + ^ x20: .cfa -16 + ^ x21: .cfa -32 + ^ .ra: .cfa -40 + ^ x29: .cfa -48 + ^
STACK CFI 1faf8 .cfa: sp 96 +
STACK CFI 1fb08 .cfa: sp 0 +
STACK CFI 1fb0c .cfa: x29 48 +
STACK CFI INIT 1fb3c 11c .cfa: sp 0 +
STACK CFI 1fb40 .cfa: sp 96 +
STACK CFI 1fb50 .cfa: x29 48 + x19: .cfa -8 + ^ x20: .cfa -16 + ^ x21: .cfa -32 + ^ .ra: .cfa -40 + ^ x29: .cfa -48 + ^
STACK CFI 1fc14 .cfa: sp 96 +
STACK CFI 1fc24 .cfa: sp 0 +
STACK CFI 1fc28 .cfa: x29 48 +
STACK CFI INIT 1fc58 110 .cfa: sp 0 +
STACK CFI 1fc5c .cfa: sp 96 +
STACK CFI 1fc6c .cfa: x29 48 + x19: .cfa -8 + ^ x20: .cfa -16 + ^ x21: .cfa -32 + ^ .ra: .cfa -40 + ^ x29: .cfa -48 + ^
STACK CFI 1fd24 .cfa: sp 96 +
STACK CFI 1fd34 .cfa: sp 0 +
STACK CFI 1fd38 .cfa: x29 48 +
STACK CFI INIT 1fd68 118 .cfa: sp 0 +
STACK CFI 1fd6c .cfa: sp 96 +
STACK CFI 1fd7c .cfa: x29 48 + x19: .cfa -8 + ^ x20: .cfa -16 + ^ x21: .cfa -32 + ^ .ra: .cfa -40 + ^ x29: .cfa -48 + ^
STACK CFI 1fe3c .cfa: sp 96 +
STACK CFI 1fe4c .cfa: sp 0 +
STACK CFI 1fe50 .cfa: x29 48 +
STACK CFI INIT 1fe80 118 .cfa: sp 0 +
STACK CFI 1fe84 .cfa: sp 96 +
STACK CFI 1fe94 .cfa: x29 48 + x19: .cfa -8 + ^ x20: .cfa -16 + ^ x21: .cfa -32 + ^ .ra: .cfa -40 + ^ x29: .cfa -48 + ^
STACK CFI 1ff54 .cfa: sp 96 +
STACK CFI 1ff64 .cfa: sp 0 +
STACK CFI 1ff68 .cfa: x29 48 +
STACK CFI INIT 1ff98 11c .cfa: sp 0 +
STACK CFI 1ff9c .cfa: sp 96 +
STACK CFI 1ffac .cfa: x29 48 + x19: .cfa -8 + ^ x20: .cfa -16 + ^ x21: .cfa -32 + ^ .ra: .cfa -40 + ^ x29: .cfa -48 + ^
STACK CFI 20070 .cfa: sp 96 +
STACK CFI 20080 .cfa: sp 0 +
STACK CFI 20084 .cfa: x29 48 +
STACK CFI INIT 200b4 118 .cfa: sp 0 +
STACK CFI 200b8 .cfa: sp 96 +
STACK CFI 200c8 .cfa: x29 48 + x19: .cfa -8 + ^ x20: .cfa -16 + ^ x21: .cfa -32 + ^ .ra: .cfa -40 + ^ x29: .cfa -48 + ^
STACK CFI 20188 .cfa: sp 96 +
STACK CFI 20198 .cfa: sp 0 +
STACK CFI 2019c .cfa: x29 48 +
STACK CFI INIT 201cc 114 .cfa: sp 0 +
STACK CFI 201d0 .cfa: sp 96 +
STACK CFI 201e0 .cfa: x29 48 + x19: .cfa -8 + ^ x20: .cfa -16 + ^ x21: .cfa -32 + ^ .ra: .cfa -40 + ^ x29: .cfa -48 + ^
STACK CFI 2029c .cfa: sp 96 +
STACK CFI 202ac .cfa: sp 0 +
STACK CFI 202b0 .cfa: x29 48 +
STACK CFI INIT 202e0 114 .cfa: sp 0 +
STACK CFI 202e4 .cfa: sp 96 +
STACK CFI 202f4 .cfa: x29 48 + x19: .cfa -8 + ^ x20: .cfa -16 + ^ x21: .cfa -32 + ^ .ra: .cfa -40 + ^ x29: .cfa -48 + ^
STACK CFI 203b0 .cfa: sp 96 +
STACK CFI 203c0 .cfa: sp 0 +
STACK CFI 203c4 .cfa: x29 48 +
STACK CFI INIT 203f4 118 .cfa: sp 0 +
STACK CFI 203f8 .cfa: sp 96 +
STACK CFI 20408 .cfa: x29 48 + x19: .cfa -8 + ^ x20: .cfa -16 + ^ x21: .cfa -32 + ^ .ra: .cfa -40 + ^ x29: .cfa -48 + ^
STACK CFI 204c8 .cfa: sp 96 +
STACK CFI 204d8 .cfa: sp 0 +
STACK CFI 204dc .cfa: x29 48 +
STACK CFI INIT 2050c 118 .cfa: sp 0 +
STACK CFI 20510 .cfa: sp 96 +
STACK CFI 20520 .cfa: x29 48 + x19: .cfa -8 + ^ x20: .cfa -16 + ^ x21: .cfa -32 + ^ .ra: .cfa -40 + ^ x29: .cfa -48 + ^
STACK CFI 205e0 .cfa: sp 96 +
STACK CFI 205f0 .cfa: sp 0 +
STACK CFI 205f4 .cfa: x29 48 +
STACK CFI INIT 20624 11c .cfa: sp 0 +
STACK CFI 20628 .cfa: sp 96 +
STACK CFI 20638 .cfa: x29 48 + x19: .cfa -8 + ^ x20: .cfa -16 + ^ x21: .cfa -32 + ^ .ra: .cfa -40 + ^ x29: .cfa -48 + ^
STACK CFI 206fc .cfa: sp 96 +
STACK CFI 2070c .cfa: sp 0 +
STACK CFI 20710 .cfa: x29 48 +
STACK CFI INIT 20740 110 .cfa: sp 0 +
STACK CFI 20744 .cfa: sp 96 +
STACK CFI 20754 .cfa: x29 48 + x19: .cfa -8 + ^ x20: .cfa -16 + ^ x21: .cfa -32 + ^ .ra: .cfa -40 + ^ x29: .cfa -48 + ^
STACK CFI 2080c .cfa: sp 96 +
STACK CFI 2081c .cfa: sp 0 +
STACK CFI 20820 .cfa: x29 48 +
STACK CFI INIT 20850 11c .cfa: sp 0 +
STACK CFI 20854 .cfa: sp 96 +
STACK CFI 20864 .cfa: x29 48 + x19: .cfa -8 + ^ x20: .cfa -16 + ^ x21: .cfa -32 + ^ .ra: .cfa -40 + ^ x29: .cfa -48 + ^
STACK CFI 20928 .cfa: sp 96 +
STACK CFI 20938 .cfa: sp 0 +
STACK CFI 2093c .cfa: x29 48 +
STACK CFI INIT 2096c 11c .cfa: sp 0 +
STACK CFI 20970 .cfa: sp 96 +
STACK CFI 20980 .cfa: x29 48 + x19: .cfa -8 + ^ x20: .cfa -16 + ^ x21: .cfa -32 + ^ .ra: .cfa -40 + ^ x29: .cfa -48 + ^
STACK CFI 20a44 .cfa: sp 96 +
STACK CFI 20a54 .cfa: sp 0 +
STACK CFI 20a58 .cfa: x29 48 +
STACK CFI INIT 20a88 120 .cfa: sp 0 +
STACK CFI 20a8c .cfa: sp 96 +
STACK CFI 20a9c .cfa: x29 48 + x19: .cfa -8 + ^ x20: .cfa -16 + ^ x21: .cfa -32 + ^ .ra: .cfa -40 + ^ x29: .cfa -48 + ^
STACK CFI 20b64 .cfa: sp 96 +
STACK CFI 20b74 .cfa: sp 0 +
STACK CFI 20b78 .cfa: x29 48 +
STACK CFI INIT 20ba8 120 .cfa: sp 0 +
STACK CFI 20bac .cfa: sp 96 +
STACK CFI 20bbc .cfa: x29 48 + x19: .cfa -8 + ^ x20: .cfa -16 + ^ x21: .cfa -32 + ^ .ra: .cfa -40 + ^ x29: .cfa -48 + ^
STACK CFI 20c84 .cfa: sp 96 +
STACK CFI 20c94 .cfa: sp 0 +
STACK CFI 20c98 .cfa: x29 48 +
STACK CFI INIT 20cc8 208 .cfa: sp 0 +
STACK CFI 20ccc .cfa: sp 112 +
STACK CFI 20ce0 .cfa: x29 64 + x19: .cfa -8 + ^ x20: .cfa -16 + ^ x21: .cfa -24 + ^ x22: .cfa -32 + ^ x23: .cfa -48 + ^ .ra: .cfa -56 + ^ x29: .cfa -64 + ^
STACK CFI 20e78 .cfa: sp 112 +
STACK CFI 20e8c .cfa: sp 0 +
STACK CFI 20e90 .cfa: x29 64 +
STACK CFI INIT 20ed0 11c .cfa: sp 0 +
STACK CFI 20ed4 .cfa: sp 96 +
STACK CFI 20ee4 .cfa: x29 48 + x19: .cfa -8 + ^ x20: .cfa -16 + ^ x21: .cfa -32 + ^ .ra: .cfa -40 + ^ x29: .cfa -48 + ^
STACK CFI 20fa8 .cfa: sp 96 +
STACK CFI 20fb8 .cfa: sp 0 +
STACK CFI 20fbc .cfa: x29 48 +
STACK CFI INIT 20fec 11c .cfa: sp 0 +
STACK CFI 20ff0 .cfa: sp 96 +
STACK CFI 21000 .cfa: x29 48 + x19: .cfa -8 + ^ x20: .cfa -16 + ^ x21: .cfa -32 + ^ .ra: .cfa -40 + ^ x29: .cfa -48 + ^
STACK CFI 210c4 .cfa: sp 96 +
STACK CFI 210d4 .cfa: sp 0 +
STACK CFI 210d8 .cfa: x29 48 +
STACK CFI INIT 21108 118 .cfa: sp 0 +
STACK CFI 2110c .cfa: sp 96 +
STACK CFI 2111c .cfa: x29 48 + x19: .cfa -8 + ^ x20: .cfa -16 + ^ x21: .cfa -32 + ^ .ra: .cfa -40 + ^ x29: .cfa -48 + ^
STACK CFI 211dc .cfa: sp 96 +
STACK CFI 211ec .cfa: sp 0 +
STACK CFI 211f0 .cfa: x29 48 +
STACK CFI INIT 21220 11c .cfa: sp 0 +
STACK CFI 21224 .cfa: sp 96 +
STACK CFI 21234 .cfa: x29 48 + x19: .cfa -8 + ^ x20: .cfa -16 + ^ x21: .cfa -32 + ^ .ra: .cfa -40 + ^ x29: .cfa -48 + ^
STACK CFI 212f8 .cfa: sp 96 +
STACK CFI 21308 .cfa: sp 0 +
STACK CFI 2130c .cfa: x29 48 +
STACK CFI INIT 2133c 11c .cfa: sp 0 +
STACK CFI 21340 .cfa: sp 96 +
STACK CFI 21350 .cfa: x29 48 + x19: .cfa -8 + ^ x20: .cfa -16 + ^ x21: .cfa -32 + ^ .ra: .cfa -40 + ^ x29: .cfa -48 + ^
STACK CFI 21414 .cfa: sp 96 +
STACK CFI 21424 .cfa: sp 0 +
STACK CFI 21428 .cfa: x29 48 +
STACK CFI INIT 21458 118 .cfa: sp 0 +
STACK CFI 2145c .cfa: sp 96 +
STACK CFI 2146c .cfa: x29 48 + x19: .cfa -8 + ^ x20: .cfa -16 + ^ x21: .cfa -32 + ^ .ra: .cfa -40 + ^ x29: .cfa -48 + ^
STACK CFI 2152c .cfa: sp 96 +
STACK CFI 2153c .cfa: sp 0 +
STACK CFI 21540 .cfa: x29 48 +
STACK CFI INIT 21570 11c .cfa: sp 0 +
STACK CFI 21574 .cfa: sp 96 +
STACK CFI 21584 .cfa: x29 48 + x19: .cfa -8 + ^ x20: .cfa -16 + ^ x21: .cfa -32 + ^ .ra: .cfa -40 + ^ x29: .cfa -48 + ^
STACK CFI 21648 .cfa: sp 96 +
STACK CFI 21658 .cfa: sp 0 +
STACK CFI 2165c .cfa: x29 48 +
STACK CFI INIT 2168c 118 .cfa: sp 0 +
STACK CFI 21690 .cfa: sp 96 +
STACK CFI 216a0 .cfa: x29 48 + x19: .cfa -8 + ^ x20: .cfa -16 + ^ x21: .cfa -32 + ^ .ra: .cfa -40 + ^ x29: .cfa -48 + ^
STACK CFI 21760 .cfa: sp 96 +
STACK CFI 21770 .cfa: sp 0 +
STACK CFI 21774 .cfa: x29 48 +
STACK CFI INIT 217a4 134 .cfa: sp 0 +
STACK CFI 217a8 .cfa: sp 96 +
STACK CFI 217b8 .cfa: x29 48 + x19: .cfa -8 + ^ x20: .cfa -16 + ^ x21: .cfa -24 + ^ x22: .cfa -32 + ^ .ra: .cfa -40 + ^ x29: .cfa -48 + ^
STACK CFI 21894 .cfa: sp 96 +
STACK CFI 218a4 .cfa: sp 0 +
STACK CFI 218a8 .cfa: x29 48 +
STACK CFI INIT 218d8 138 .cfa: sp 0 +
STACK CFI 218dc .cfa: sp 96 +
STACK CFI 218ec .cfa: x29 48 + x19: .cfa -8 + ^ x20: .cfa -16 + ^ x21: .cfa -24 + ^ x22: .cfa -32 + ^ .ra: .cfa -40 + ^ x29: .cfa -48 + ^
STACK CFI 219cc .cfa: sp 96 +
STACK CFI 219dc .cfa: sp 0 +
STACK CFI 219e0 .cfa: x29 48 +
STACK CFI INIT 21a10 120 .cfa: sp 0 +
STACK CFI 21a14 .cfa: sp 96 +
STACK CFI 21a24 .cfa: x29 48 + x19: .cfa -8 + ^ x20: .cfa -16 + ^ x21: .cfa -32 + ^ .ra: .cfa -40 + ^ x29: .cfa -48 + ^
STACK CFI 21aec .cfa: sp 96 +
STACK CFI 21afc .cfa: sp 0 +
STACK CFI 21b00 .cfa: x29 48 +
STACK CFI INIT 21b30 118 .cfa: sp 0 +
STACK CFI 21b34 .cfa: sp 96 +
STACK CFI 21b44 .cfa: x29 48 + x19: .cfa -8 + ^ x20: .cfa -16 + ^ x21: .cfa -32 + ^ .ra: .cfa -40 + ^ x29: .cfa -48 + ^
STACK CFI 21c04 .cfa: sp 96 +
STACK CFI 21c14 .cfa: sp 0 +
STACK CFI 21c18 .cfa: x29 48 +
STACK CFI INIT 21c48 130 .cfa: sp 0 +
STACK CFI 21c4c .cfa: sp 96 +
STACK CFI 21c5c .cfa: x29 48 + x19: .cfa -8 + ^ x20: .cfa -16 + ^ x21: .cfa -24 + ^ x22: .cfa -32 + ^ .ra: .cfa -40 + ^ x29: .cfa -48 + ^
STACK CFI 21d34 .cfa: sp 96 +
STACK CFI 21d44 .cfa: sp 0 +
STACK CFI 21d48 .cfa: x29 48 +
STACK CFI INIT 21d78 134 .cfa: sp 0 +
STACK CFI 21d7c .cfa: sp 96 +
STACK CFI 21d8c .cfa: x29 48 + x19: .cfa -8 + ^ x20: .cfa -16 + ^ x21: .cfa -24 + ^ x22: .cfa -32 + ^ .ra: .cfa -40 + ^ x29: .cfa -48 + ^
STACK CFI 21e68 .cfa: sp 96 +
STACK CFI 21e78 .cfa: sp 0 +
STACK CFI 21e7c .cfa: x29 48 +
STACK CFI INIT 21eac 118 .cfa: sp 0 +
STACK CFI 21eb0 .cfa: sp 96 +
STACK CFI 21ec0 .cfa: x29 48 + x19: .cfa -8 + ^ x20: .cfa -16 + ^ x21: .cfa -32 + ^ .ra: .cfa -40 + ^ x29: .cfa -48 + ^
STACK CFI 21f80 .cfa: sp 96 +
STACK CFI 21f90 .cfa: sp 0 +
STACK CFI 21f94 .cfa: x29 48 +
STACK CFI INIT 21fc4 118 .cfa: sp 0 +
STACK CFI 21fc8 .cfa: sp 96 +
STACK CFI 21fd8 .cfa: x29 48 + x19: .cfa -8 + ^ x20: .cfa -16 + ^ x21: .cfa -32 + ^ .ra: .cfa -40 + ^ x29: .cfa -48 + ^
STACK CFI 22098 .cfa: sp 96 +
STACK CFI 220a8 .cfa: sp 0 +
STACK CFI 220ac .cfa: x29 48 +
STACK CFI INIT 220dc 1f8 .cfa: sp 0 +
STACK CFI 220e0 .cfa: sp 176 +
STACK CFI 220f0 .cfa: x29 48 + x19: .cfa -8 + ^ x20: .cfa -16 + ^ x21: .cfa -32 + ^ .ra: .cfa -40 + ^ x29: .cfa -48 + ^
STACK CFI 22234 .cfa: sp 176 +
STACK CFI 22244 .cfa: sp 0 +
STACK CFI 22248 .cfa: x29 48 +
STACK CFI INIT 222d4 180 .cfa: sp 0 +
STACK CFI 222d8 .cfa: sp 144 +
STACK CFI 222e8 .cfa: x29 48 + x19: .cfa -8 + ^ x20: .cfa -16 + ^ x21: .cfa -32 + ^ .ra: .cfa -40 + ^ x29: .cfa -48 + ^
STACK CFI 223b8 .cfa: sp 144 +
STACK CFI 223c8 .cfa: sp 0 +
STACK CFI 223cc .cfa: x29 48 +
STACK CFI INIT 22454 30c .cfa: sp 0 +
STACK CFI 22458 .cfa: sp 96 +
STACK CFI 22470 .cfa: x29 96 + x19: .cfa -8 + ^ x20: .cfa -16 + ^ x21: .cfa -24 + ^ x22: .cfa -32 + ^ x23: .cfa -40 + ^ x24: .cfa -48 + ^ x25: .cfa -56 + ^ x26: .cfa -64 + ^ x28: .cfa -80 + ^ .ra: .cfa -88 + ^ x29: .cfa -96 + ^
STACK CFI 226e0 .cfa: sp 96 +
STACK CFI 226f8 .cfa: sp 0 +
STACK CFI 226fc .cfa: x29 96 +
STACK CFI INIT 22760 1c .cfa: sp 0 +
STACK CFI 22764 .cfa: sp 16 +
STACK CFI 22768 .cfa: x29 16 + .ra: .cfa -8 + ^ x29: .cfa -16 + ^
STACK CFI 22770 .cfa: sp 16 +
STACK CFI 22774 .cfa: sp 0 +
STACK CFI 22778 .cfa: x29 16 +
STACK CFI INIT 2277c 544 .cfa: sp 0 +
STACK CFI 22780 .cfa: sp 112 +
STACK CFI 22798 .cfa: x29 56 + x19: .cfa -8 + ^ x20: .cfa -16 + ^ x21: .cfa -24 + ^ x22: .cfa -32 + ^ x23: .cfa -40 + ^ .ra: .cfa -48 + ^ x29: .cfa -56 + ^ v8: .cfa -64 + ^
STACK CFI 22c74 .cfa: sp 112 +
STACK CFI 22c8c .cfa: sp 0 +
STACK CFI 22c90 .cfa: x29 56 +
STACK CFI INIT 22cc0 c68 .cfa: sp 0 +
STACK CFI 22cc4 .cfa: sp 144 +
STACK CFI 22ce8 .cfa: x29 96 + x19: .cfa -8 + ^ x20: .cfa -16 + ^ x21: .cfa -24 + ^ x22: .cfa -32 + ^ x23: .cfa -40 + ^ x24: .cfa -48 + ^ x25: .cfa -56 + ^ x26: .cfa -64 + ^ x27: .cfa -72 + ^ x28: .cfa -80 + ^ .ra: .cfa -88 + ^ x29: .cfa -96 + ^ v8: .cfa -104 + ^ v9: .cfa -112 + ^ v10: .cfa -120 + ^ v11: .cfa -128 + ^ v12: .cfa -136 + ^ v13: .cfa -144 + ^
STACK CFI 23844 .cfa: sp 144 +
STACK CFI 23868 .cfa: sp 0 +
STACK CFI 2386c .cfa: x29 96 +
STACK CFI INIT 23928 be4 .cfa: sp 0 +
STACK CFI 2392c .cfa: sp 112 +
STACK CFI 23948 .cfa: x29 96 + x19: .cfa -8 + ^ x20: .cfa -16 + ^ x21: .cfa -24 + ^ x22: .cfa -32 + ^ x23: .cfa -40 + ^ x24: .cfa -48 + ^ x25: .cfa -56 + ^ x26: .cfa -64 + ^ x27: .cfa -72 + ^ x28: .cfa -80 + ^ .ra: .cfa -88 + ^ x29: .cfa -96 + ^ v8: .cfa -112 + ^
STACK CFI 2430c .cfa: sp 112 +
STACK CFI 24328 .cfa: sp 0 +
STACK CFI 2432c .cfa: x29 96 +
STACK CFI INIT 2450c 148 .cfa: sp 0 +
STACK CFI 24510 .cfa: sp 96 +
STACK CFI 24520 .cfa: x29 48 + x19: .cfa -8 + ^ x20: .cfa -16 + ^ x21: .cfa -32 + ^ .ra: .cfa -40 + ^ x29: .cfa -48 + ^
STACK CFI 245f0 .cfa: sp 96 +
STACK CFI 24600 .cfa: sp 0 +
STACK CFI 24604 .cfa: x29 48 +
STACK CFI INIT 246ec 188 .cfa: sp 0 +
STACK CFI 246f0 .cfa: sp 112 +
STACK CFI 24700 .cfa: x29 48 + x19: .cfa -8 + ^ x20: .cfa -16 + ^ x21: .cfa -24 + ^ x22: .cfa -32 + ^ .ra: .cfa -40 + ^ x29: .cfa -48 + ^
STACK CFI 247d0 .cfa: sp 112 +
STACK CFI 247e0 .cfa: sp 0 +
STACK CFI 247e4 .cfa: x29 48 +
STACK CFI INIT 24874 2b8 .cfa: sp 0 +
STACK CFI 24878 .cfa: sp 160 +
STACK CFI 24894 .cfa: x29 96 + x19: .cfa -8 + ^ x20: .cfa -16 + ^ x21: .cfa -24 + ^ x22: .cfa -32 + ^ x23: .cfa -40 + ^ x24: .cfa -48 + ^ x25: .cfa -56 + ^ x26: .cfa -64 + ^ x27: .cfa -72 + ^ x28: .cfa -80 + ^ .ra: .cfa -88 + ^ x29: .cfa -96 + ^
STACK CFI 248cc .cfa: sp 160 +
STACK CFI 248e8 .cfa: sp 0 +
STACK CFI 248ec .cfa: x29 96 +
STACK CFI INIT 24b2c 114 .cfa: sp 0 +
STACK CFI 24b30 .cfa: sp 64 +
STACK CFI 24b40 .cfa: x29 64 + x19: .cfa -8 + ^ x20: .cfa -16 + ^ x21: .cfa -24 + ^ x22: .cfa -32 + ^ x23: .cfa -48 + ^ .ra: .cfa -56 + ^ x29: .cfa -64 + ^
STACK CFI 24c1c .cfa: sp 64 +
STACK CFI 24c2c .cfa: sp 0 +
STACK CFI 24c30 .cfa: x29 64 +
STACK CFI INIT 24c58 22c .cfa: sp 0 +
STACK CFI 24c5c .cfa: sp 96 +
STACK CFI 24c74 .cfa: x29 96 + x19: .cfa -8 + ^ x20: .cfa -16 + ^ x21: .cfa -24 + ^ x22: .cfa -32 + ^ x23: .cfa -40 + ^ x24: .cfa -48 + ^ x25: .cfa -56 + ^ x26: .cfa -64 + ^ x27: .cfa -80 + ^ .ra: .cfa -88 + ^ x29: .cfa -96 + ^
STACK CFI 24e18 .cfa: sp 96 +
STACK CFI 24e30 .cfa: sp 0 +
STACK CFI 24e34 .cfa: x29 96 +
STACK CFI INIT 24eac 50 .cfa: sp 0 +
STACK CFI 24eb0 .cfa: sp 32 +
STACK CFI 24eb8 .cfa: x29 32 + x19: .cfa -8 + ^ x20: .cfa -16 + ^ .ra: .cfa -24 + ^ x29: .cfa -32 + ^
STACK CFI INIT 25044 29c .cfa: sp 0 +
STACK CFI 25048 .cfa: sp 208 +
STACK CFI 25060 .cfa: x29 80 + x19: .cfa -8 + ^ x20: .cfa -16 + ^ x21: .cfa -24 + ^ x22: .cfa -32 + ^ x23: .cfa -40 + ^ x24: .cfa -48 + ^ x25: .cfa -56 + ^ x26: .cfa -64 + ^ .ra: .cfa -72 + ^ x29: .cfa -80 + ^
STACK CFI 251ec .cfa: sp 208 +
STACK CFI 25204 .cfa: sp 0 +
STACK CFI 25208 .cfa: x29 80 +
STACK CFI INIT 252e0 12c .cfa: sp 0 +
STACK CFI 252e4 .cfa: sp 48 +
STACK CFI 252f0 .cfa: x29 48 + x19: .cfa -8 + ^ x20: .cfa -16 + ^ x21: .cfa -32 + ^ .ra: .cfa -40 + ^ x29: .cfa -48 + ^
STACK CFI 2538c .cfa: sp 48 +
STACK CFI 25398 .cfa: sp 0 +
STACK CFI 2539c .cfa: x29 48 +
STACK CFI INIT 25410 174 .cfa: sp 0 +
STACK CFI 25414 .cfa: sp 112 +
STACK CFI 25424 .cfa: x29 48 + x19: .cfa -8 + ^ x20: .cfa -16 + ^ x21: .cfa -32 + ^ .ra: .cfa -40 + ^ x29: .cfa -48 + ^
STACK CFI 25520 .cfa: sp 112 +
STACK CFI 25530 .cfa: sp 0 +
STACK CFI 25534 .cfa: x29 48 +
STACK CFI INIT 2570c 94 .cfa: sp 0 +
STACK CFI 25710 .cfa: sp 32 +
STACK CFI 25718 .cfa: x29 32 + x19: .cfa -8 + ^ x20: .cfa -16 + ^ .ra: .cfa -24 + ^ x29: .cfa -32 + ^
STACK CFI 25760 .cfa: sp 32 +
STACK CFI 25768 .cfa: sp 0 +
STACK CFI 2576c .cfa: x29 32 +
STACK CFI 25780 .cfa: sp 32 +
STACK CFI 25788 .cfa: sp 0 +
STACK CFI 2578c .cfa: x29 32 +
STACK CFI INIT 25bc8 480 .cfa: sp 0 +
STACK CFI 25bcc .cfa: sp 224 +
STACK CFI 25be8 .cfa: x29 96 + x19: .cfa -8 + ^ x20: .cfa -16 + ^ x21: .cfa -24 + ^ x22: .cfa -32 + ^ x23: .cfa -40 + ^ x24: .cfa -48 + ^ x25: .cfa -56 + ^ x26: .cfa -64 + ^ x27: .cfa -80 + ^ .ra: .cfa -88 + ^ x29: .cfa -96 + ^
STACK CFI 25e54 .cfa: sp 224 +
STACK CFI 25e70 .cfa: sp 0 +
STACK CFI 25e74 .cfa: x29 96 +
STACK CFI 25f40 .cfa: sp 224 +
STACK CFI 25f5c .cfa: sp 0 +
STACK CFI 25f60 .cfa: x29 96 +
STACK CFI INIT 26064 340 .cfa: sp 0 +
STACK CFI 26068 .cfa: sp 240 +
STACK CFI 2607c .cfa: x29 64 + x19: .cfa -8 + ^ x20: .cfa -16 + ^ x21: .cfa -24 + ^ x22: .cfa -32 + ^ x23: .cfa -48 + ^ .ra: .cfa -56 + ^ x29: .cfa -64 + ^
STACK CFI 2628c .cfa: sp 240 +
STACK CFI 262a0 .cfa: sp 0 +
STACK CFI 262a4 .cfa: x29 64 +
STACK CFI INIT 264bc 3fc .cfa: sp 0 +
STACK CFI 264c0 .cfa: sp 224 +
STACK CFI 264dc .cfa: x29 96 + x19: .cfa -8 + ^ x20: .cfa -16 + ^ x21: .cfa -24 + ^ x22: .cfa -32 + ^ x23: .cfa -40 + ^ x24: .cfa -48 + ^ x25: .cfa -56 + ^ x26: .cfa -64 + ^ x27: .cfa -72 + ^ x28: .cfa -80 + ^ .ra: .cfa -88 + ^ x29: .cfa -96 + ^
STACK CFI 267b4 .cfa: sp 224 +
STACK CFI 267d0 .cfa: sp 0 +
STACK CFI 267d4 .cfa: x29 96 +
STACK CFI INIT 268b8 2a0 .cfa: sp 0 +
STACK CFI 268bc .cfa: sp 176 +
STACK CFI 268d0 .cfa: x29 64 + x19: .cfa -8 + ^ x20: .cfa -16 + ^ x21: .cfa -24 + ^ x22: .cfa -32 + ^ x23: .cfa -48 + ^ .ra: .cfa -56 + ^ x29: .cfa -64 + ^
STACK CFI 26a80 .cfa: sp 176 +
STACK CFI 26a94 .cfa: sp 0 +
STACK CFI 26a98 .cfa: x29 64 +
STACK CFI INIT 26b5c 184 .cfa: sp 0 +
STACK CFI 26b60 .cfa: sp 144 +
STACK CFI 26b78 .cfa: x29 80 + x19: .cfa -8 + ^ x20: .cfa -16 + ^ x21: .cfa -24 + ^ x22: .cfa -32 + ^ x23: .cfa -40 + ^ x24: .cfa -48 + ^ x25: .cfa -56 + ^ x26: .cfa -64 + ^ .ra: .cfa -72 + ^ x29: .cfa -80 + ^
STACK CFI 26c78 .cfa: sp 144 +
STACK CFI 26c90 .cfa: sp 0 +
STACK CFI 26c94 .cfa: x29 80 +
STACK CFI INIT 26ce4 d08 .cfa: sp 0 +
STACK CFI 26ce8 .cfa: sp 112 +
STACK CFI 26d04 .cfa: x29 96 + x19: .cfa -8 + ^ x20: .cfa -16 + ^ x21: .cfa -24 + ^ x22: .cfa -32 + ^ x23: .cfa -40 + ^ x24: .cfa -48 + ^ x25: .cfa -56 + ^ x26: .cfa -64 + ^ x27: .cfa -72 + ^ x28: .cfa -80 + ^ .ra: .cfa -88 + ^ x29: .cfa -96 + ^ v8: .cfa -104 + ^ v9: .cfa -112 + ^
STACK CFI 27934 .cfa: sp 112 +
STACK CFI 27950 .cfa: sp 0 +
STACK CFI 27954 .cfa: x29 96 +
STACK CFI INIT 279ec 3fc .cfa: sp 0 +
STACK CFI 279f0 .cfa: sp 224 +
STACK CFI 27a0c .cfa: x29 96 + x19: .cfa -8 + ^ x20: .cfa -16 + ^ x21: .cfa -24 + ^ x22: .cfa -32 + ^ x23: .cfa -40 + ^ x24: .cfa -48 + ^ x25: .cfa -56 + ^ x26: .cfa -64 + ^ x27: .cfa -72 + ^ x28: .cfa -80 + ^ .ra: .cfa -88 + ^ x29: .cfa -96 + ^
STACK CFI 27ce4 .cfa: sp 224 +
STACK CFI 27d00 .cfa: sp 0 +
STACK CFI 27d04 .cfa: x29 96 +
STACK CFI INIT 27de8 6a0 .cfa: sp 0 +
STACK CFI 27dec .cfa: sp 176 +
STACK CFI 27e00 .cfa: x29 64 + x19: .cfa -8 + ^ x20: .cfa -16 + ^ x21: .cfa -24 + ^ x22: .cfa -32 + ^ x23: .cfa -40 + ^ x24: .cfa -48 + ^ .ra: .cfa -56 + ^ x29: .cfa -64 + ^
STACK CFI 282c8 .cfa: sp 176 +
STACK CFI 282dc .cfa: sp 0 +
STACK CFI 282e0 .cfa: x29 64 +
STACK CFI INIT 2848c 184 .cfa: sp 0 +
STACK CFI 28490 .cfa: sp 160 +
STACK CFI 284a8 .cfa: x29 80 + x19: .cfa -8 + ^ x20: .cfa -16 + ^ x21: .cfa -24 + ^ x22: .cfa -32 + ^ x23: .cfa -40 + ^ x24: .cfa -48 + ^ x25: .cfa -56 + ^ x26: .cfa -64 + ^ .ra: .cfa -72 + ^ x29: .cfa -80 + ^
STACK CFI 285a8 .cfa: sp 160 +
STACK CFI 285c0 .cfa: sp 0 +
STACK CFI 285c4 .cfa: x29 80 +
STACK CFI INIT 28648 134 .cfa: sp 0 +
STACK CFI 2864c .cfa: sp 128 +
STACK CFI 28660 .cfa: x29 64 + x19: .cfa -8 + ^ x20: .cfa -16 + ^ x21: .cfa -24 + ^ x22: .cfa -32 + ^ x23: .cfa -40 + ^ x24: .cfa -48 + ^ .ra: .cfa -56 + ^ x29: .cfa -64 + ^
STACK CFI 2872c .cfa: sp 128 +
STACK CFI 28740 .cfa: sp 0 +
STACK CFI 28744 .cfa: x29 64 +
STACK CFI INIT 287c8 190 .cfa: sp 0 +
STACK CFI 287cc .cfa: sp 112 +
STACK CFI 287dc .cfa: x29 48 + x19: .cfa -8 + ^ x20: .cfa -16 + ^ x21: .cfa -24 + ^ x22: .cfa -32 + ^ .ra: .cfa -40 + ^ x29: .cfa -48 + ^
STACK CFI 288b4 .cfa: sp 112 +
STACK CFI 288c4 .cfa: sp 0 +
STACK CFI 288c8 .cfa: x29 48 +
STACK CFI INIT 28970 11a8 .cfa: sp 0 +
STACK CFI 28974 .cfa: sp 128 +
STACK CFI 28994 .cfa: x29 96 + x19: .cfa -8 + ^ x20: .cfa -16 + ^ x21: .cfa -24 + ^ x22: .cfa -32 + ^ x23: .cfa -40 + ^ x24: .cfa -48 + ^ x25: .cfa -56 + ^ x26: .cfa -64 + ^ x27: .cfa -72 + ^ x28: .cfa -80 + ^ .ra: .cfa -88 + ^ x29: .cfa -96 + ^ v8: .cfa -104 + ^ v9: .cfa -112 + ^ v10: .cfa -120 + ^ v11: .cfa -128 + ^
STACK CFI 298ac .cfa: sp 128 +
STACK CFI 298cc .cfa: sp 0 +
STACK CFI 298d0 .cfa: x29 96 +
STACK CFI INIT 29d10 114 .cfa: sp 0 +
STACK CFI 29d14 .cfa: sp 80 +
STACK CFI 29d28 .cfa: x29 64 + x19: .cfa -8 + ^ x20: .cfa -16 + ^ x21: .cfa -24 + ^ x22: .cfa -32 + ^ x23: .cfa -40 + ^ x24: .cfa -48 + ^ .ra: .cfa -56 + ^ x29: .cfa -64 + ^
STACK CFI 29dd8 .cfa: sp 80 +
STACK CFI 29dec .cfa: sp 0 +
STACK CFI 29df0 .cfa: x29 64 +
STACK CFI INIT 29e24 1f8 .cfa: sp 0 +
STACK CFI 29e28 .cfa: sp 176 +
STACK CFI 29e38 .cfa: x29 48 + x19: .cfa -8 + ^ x20: .cfa -16 + ^ x21: .cfa -32 + ^ .ra: .cfa -40 + ^ x29: .cfa -48 + ^
STACK CFI 29f7c .cfa: sp 176 +
STACK CFI 29f8c .cfa: sp 0 +
STACK CFI 29f90 .cfa: x29 48 +
STACK CFI INIT 2a01c 20 .cfa: sp 0 +
STACK CFI 2a020 .cfa: sp 16 +
STACK CFI 2a024 .cfa: x29 16 + .ra: .cfa -8 + ^ x29: .cfa -16 + ^
STACK CFI 2a030 .cfa: sp 16 +
STACK CFI 2a034 .cfa: sp 0 +
STACK CFI 2a038 .cfa: x29 16 +
STACK CFI INIT 2a0f8 94 .cfa: sp 0 +
STACK CFI 2a0fc .cfa: sp 32 +
STACK CFI 2a104 .cfa: x29 32 + x19: .cfa -8 + ^ x20: .cfa -16 + ^ .ra: .cfa -24 + ^ x29: .cfa -32 + ^
STACK CFI 2a14c .cfa: sp 32 +
STACK CFI 2a154 .cfa: sp 0 +
STACK CFI 2a158 .cfa: x29 32 +
STACK CFI 2a16c .cfa: sp 32 +
STACK CFI 2a174 .cfa: sp 0 +
STACK CFI 2a178 .cfa: x29 32 +
STACK CFI INIT 2a4a0 2d0 .cfa: sp 0 +
STACK CFI 2a4a4 .cfa: sp 96 +
STACK CFI 2a4bc .cfa: x29 96 + x19: .cfa -8 + ^ x20: .cfa -16 + ^ x21: .cfa -24 + ^ x22: .cfa -32 + ^ x23: .cfa -40 + ^ x24: .cfa -48 + ^ x25: .cfa -56 + ^ x26: .cfa -64 + ^ x27: .cfa -72 + ^ x28: .cfa -80 + ^ .ra: .cfa -88 + ^ x29: .cfa -96 + ^
STACK CFI 2a674 .cfa: sp 96 +
STACK CFI 2a68c .cfa: sp 0 +
STACK CFI 2a690 .cfa: x29 96 +
STACK CFI INIT 2a880 11a0 .cfa: sp 0 +
STACK CFI 2a884 .cfa: sp 448 +
STACK CFI 2a89c .cfa: x29 80 + x19: .cfa -8 + ^ x20: .cfa -16 + ^ x21: .cfa -24 + ^ x22: .cfa -32 + ^ x23: .cfa -40 + ^ x24: .cfa -48 + ^ x28: .cfa -64 + ^ .ra: .cfa -72 + ^ x29: .cfa -80 + ^
STACK CFI 2b814 .cfa: sp 448 +
STACK CFI 2b82c .cfa: sp 0 +
STACK CFI 2b830 .cfa: x29 80 +
STACK CFI INIT 2ba5c 134 .cfa: sp 0 +
STACK CFI 2ba60 .cfa: sp 80 +
STACK CFI 2ba6c .cfa: x29 32 + x19: .cfa -8 + ^ x20: .cfa -16 + ^ .ra: .cfa -24 + ^ x29: .cfa -32 + ^
STACK CFI 2ba9c .cfa: sp 80 +
STACK CFI 2baa8 .cfa: sp 0 +
STACK CFI 2baac .cfa: x29 32 +
STACK CFI INIT 2bb90 78 .cfa: sp 0 +
STACK CFI 2bb94 .cfa: sp 32 +
STACK CFI 2bb9c .cfa: x29 32 + x19: .cfa -8 + ^ x20: .cfa -16 + ^ .ra: .cfa -24 + ^ x29: .cfa -32 + ^
STACK CFI 2bba8 .cfa: sp 32 +
STACK CFI 2bbb0 .cfa: sp 0 +
STACK CFI 2bbb4 .cfa: x29 32 +
STACK CFI INIT 2bc08 74 .cfa: sp 0 +
STACK CFI 2bc0c .cfa: sp 48 +
STACK CFI 2bc18 .cfa: x29 32 + x19: .cfa -8 + ^ x20: .cfa -16 + ^ .ra: .cfa -24 + ^ x29: .cfa -32 + ^
STACK CFI 2bc64 .cfa: sp 48 +
STACK CFI 2bc70 .cfa: sp 0 +
STACK CFI 2bc74 .cfa: x29 32 +
STACK CFI INIT 2bce0 150 .cfa: sp 0 +
STACK CFI 2bce4 .cfa: sp 128 +
STACK CFI 2bcf4 .cfa: x29 48 + x19: .cfa -8 + ^ x20: .cfa -16 + ^ x21: .cfa -24 + ^ x22: .cfa -32 + ^ .ra: .cfa -40 + ^ x29: .cfa -48 + ^
STACK CFI 2bd3c .cfa: sp 128 +
STACK CFI 2bd4c .cfa: sp 0 +
STACK CFI 2bd50 .cfa: x29 48 +
STACK CFI INIT 2be30 a8 .cfa: sp 0 +
STACK CFI 2be34 .cfa: sp 64 +
STACK CFI 2be44 .cfa: x29 48 + x19: .cfa -8 + ^ x20: .cfa -16 + ^ x21: .cfa -32 + ^ .ra: .cfa -40 + ^ x29: .cfa -48 + ^
STACK CFI 2beac .cfa: sp 64 +
STACK CFI 2bebc .cfa: sp 0 +
STACK CFI 2bec0 .cfa: x29 48 +
STACK CFI INIT 2bed8 160 .cfa: sp 0 +
STACK CFI 2bedc .cfa: sp 144 +
STACK CFI 2bef0 .cfa: x29 64 + x19: .cfa -8 + ^ x20: .cfa -16 + ^ x21: .cfa -24 + ^ x22: .cfa -32 + ^ x23: .cfa -48 + ^ .ra: .cfa -56 + ^ x29: .cfa -64 + ^
STACK CFI 2bf40 .cfa: sp 144 +
STACK CFI 2bf54 .cfa: sp 0 +
STACK CFI 2bf58 .cfa: x29 64 +
STACK CFI INIT 2c038 108 .cfa: sp 0 +
STACK CFI 2c03c .cfa: sp 64 +
STACK CFI 2c04c .cfa: x29 48 + x19: .cfa -8 + ^ x20: .cfa -16 + ^ x21: .cfa -24 + ^ x22: .cfa -32 + ^ .ra: .cfa -40 + ^ x29: .cfa -48 + ^
STACK CFI 2c0f8 .cfa: sp 64 +
STACK CFI 2c108 .cfa: sp 0 +
STACK CFI 2c10c .cfa: x29 48 +
STACK CFI INIT 2c140 180 .cfa: sp 0 +
STACK CFI 2c144 .cfa: sp 128 +
STACK CFI 2c154 .cfa: x29 48 + x19: .cfa -8 + ^ x20: .cfa -16 + ^ x21: .cfa -24 + ^ x22: .cfa -32 + ^ .ra: .cfa -40 + ^ x29: .cfa -48 + ^
STACK CFI 2c1b8 .cfa: sp 128 +
STACK CFI 2c1c8 .cfa: sp 0 +
STACK CFI 2c1cc .cfa: x29 48 +
STACK CFI INIT 2c2c0 a4 .cfa: sp 0 +
STACK CFI 2c2c4 .cfa: sp 48 +
STACK CFI 2c2d0 .cfa: x29 48 + x19: .cfa -8 + ^ x20: .cfa -16 + ^ x21: .cfa -32 + ^ .ra: .cfa -40 + ^ x29: .cfa -48 + ^
STACK CFI 2c33c .cfa: sp 48 +
STACK CFI 2c348 .cfa: sp 0 +
STACK CFI 2c34c .cfa: x29 48 +
STACK CFI INIT 2c364 154 .cfa: sp 0 +
STACK CFI 2c368 .cfa: sp 384 +
STACK CFI 2c37c .cfa: x29 64 + x19: .cfa -8 + ^ x20: .cfa -16 + ^ x21: .cfa -24 + ^ x22: .cfa -32 + ^ x23: .cfa -40 + ^ x28: .cfa -48 + ^ .ra: .cfa -56 + ^ x29: .cfa -64 + ^
STACK CFI 2c460 .cfa: sp 384 +
STACK CFI 2c474 .cfa: sp 0 +
STACK CFI 2c478 .cfa: x29 64 +
STACK CFI INIT 2c4b8 168 .cfa: sp 0 +
STACK CFI 2c4bc .cfa: sp 384 +
STACK CFI 2c4d0 .cfa: x29 64 + x19: .cfa -8 + ^ x20: .cfa -16 + ^ x21: .cfa -24 + ^ x22: .cfa -32 + ^ x23: .cfa -40 + ^ x28: .cfa -48 + ^ .ra: .cfa -56 + ^ x29: .cfa -64 + ^
STACK CFI 2c5c8 .cfa: sp 384 +
STACK CFI 2c5dc .cfa: sp 0 +
STACK CFI 2c5e0 .cfa: x29 64 +
STACK CFI INIT 2c968 294 .cfa: sp 0 +
STACK CFI 2c96c .cfa: sp 240 +
STACK CFI 2c984 .cfa: x29 80 + x19: .cfa -8 + ^ x20: .cfa -16 + ^ x21: .cfa -24 + ^ x22: .cfa -32 + ^ x23: .cfa -40 + ^ x24: .cfa -48 + ^ x25: .cfa -64 + ^ .ra: .cfa -72 + ^ x29: .cfa -80 + ^
STACK CFI 2cb24 .cfa: sp 240 +
STACK CFI 2cb3c .cfa: sp 0 +
STACK CFI 2cb40 .cfa: x29 80 +
STACK CFI INIT 2cc78 50 .cfa: sp 0 +
STACK CFI 2cc7c .cfa: sp 32 +
STACK CFI 2cc84 .cfa: x29 32 + x19: .cfa -8 + ^ x20: .cfa -16 + ^ .ra: .cfa -24 + ^ x29: .cfa -32 + ^
STACK CFI INIT 2ccf4 7c0 .cfa: sp 0 +
STACK CFI 2ccf8 .cfa: sp 320 +
STACK CFI 2cd14 .cfa: x29 96 + x19: .cfa -8 + ^ x20: .cfa -16 + ^ x21: .cfa -24 + ^ x22: .cfa -32 + ^ x23: .cfa -40 + ^ x24: .cfa -48 + ^ x25: .cfa -56 + ^ x26: .cfa -64 + ^ x27: .cfa -72 + ^ x28: .cfa -80 + ^ .ra: .cfa -88 + ^ x29: .cfa -96 + ^
STACK CFI 2d364 .cfa: sp 320 +
STACK CFI 2d380 .cfa: sp 0 +
STACK CFI 2d384 .cfa: x29 96 +
STACK CFI INIT 31834 c74 .cfa: sp 0 +
STACK CFI 31838 .cfa: sp 96 +
STACK CFI 31850 .cfa: x29 96 + x19: .cfa -8 + ^ x20: .cfa -16 + ^ x21: .cfa -24 + ^ x22: .cfa -32 + ^ x23: .cfa -40 + ^ x24: .cfa -48 + ^ x25: .cfa -56 + ^ x26: .cfa -64 + ^ x27: .cfa -72 + ^ x28: .cfa -80 + ^ .ra: .cfa -88 + ^ x29: .cfa -96 + ^
STACK CFI 322c8 .cfa: sp 96 +
STACK CFI 322e0 .cfa: sp 0 +
STACK CFI 322e4 .cfa: x29 96 +
STACK CFI INIT 325fc 26c .cfa: sp 0 +
STACK CFI 32600 .cfa: sp 128 +
STACK CFI 32610 .cfa: x29 48 + x19: .cfa -8 + ^ x20: .cfa -16 + ^ x21: .cfa -24 + ^ x22: .cfa -32 + ^ .ra: .cfa -40 + ^ x29: .cfa -48 + ^
STACK CFI 327b4 .cfa: sp 128 +
STACK CFI 327c4 .cfa: sp 0 +
STACK CFI 327c8 .cfa: x29 48 +
STACK CFI INIT 32db4 3b8 .cfa: sp 0 +
STACK CFI 32db8 .cfa: sp 96 +
STACK CFI 32dd0 .cfa: x29 96 + x19: .cfa -8 + ^ x20: .cfa -16 + ^ x21: .cfa -24 + ^ x22: .cfa -32 + ^ x23: .cfa -40 + ^ x24: .cfa -48 + ^ x25: .cfa -56 + ^ x26: .cfa -64 + ^ x27: .cfa -72 + ^ x28: .cfa -80 + ^ .ra: .cfa -88 + ^ x29: .cfa -96 + ^
STACK CFI 3310c .cfa: sp 96 +
STACK CFI 33124 .cfa: sp 0 +
STACK CFI 33128 .cfa: x29 96 +
STACK CFI INIT 3320c cb4 .cfa: sp 0 +
STACK CFI 33210 .cfa: sp 96 +
STACK CFI 33228 .cfa: x29 96 + x19: .cfa -8 + ^ x20: .cfa -16 + ^ x21: .cfa -24 + ^ x22: .cfa -32 + ^ x23: .cfa -40 + ^ x24: .cfa -48 + ^ x25: .cfa -56 + ^ x26: .cfa -64 + ^ x27: .cfa -72 + ^ x28: .cfa -80 + ^ .ra: .cfa -88 + ^ x29: .cfa -96 + ^
STACK CFI 33cd0 .cfa: sp 96 +
STACK CFI 33ce8 .cfa: sp 0 +
STACK CFI 33cec .cfa: x29 96 +
STACK CFI INIT 341a8 afc .cfa: sp 0 +
STACK CFI 341ac .cfa: sp 96 +
STACK CFI 341c4 .cfa: x29 96 + x19: .cfa -8 + ^ x20: .cfa -16 + ^ x21: .cfa -24 + ^ x22: .cfa -32 + ^ x23: .cfa -40 + ^ x24: .cfa -48 + ^ x25: .cfa -56 + ^ x26: .cfa -64 + ^ x27: .cfa -72 + ^ x28: .cfa -80 + ^ .ra: .cfa -88 + ^ x29: .cfa -96 + ^
STACK CFI 34c18 .cfa: sp 96 +
STACK CFI 34c30 .cfa: sp 0 +
STACK CFI 34c34 .cfa: x29 96 +
STACK CFI INIT 34e80 1430 .cfa: sp 0 +
STACK CFI 34e84 .cfa: sp 96 +
STACK CFI 34e9c .cfa: x29 96 + x19: .cfa -8 + ^ x20: .cfa -16 + ^ x21: .cfa -24 + ^ x22: .cfa -32 + ^ x23: .cfa -40 + ^ x24: .cfa -48 + ^ x25: .cfa -56 + ^ x26: .cfa -64 + ^ x27: .cfa -72 + ^ x28: .cfa -80 + ^ .ra: .cfa -88 + ^ x29: .cfa -96 + ^
STACK CFI 36138 .cfa: sp 96 +
STACK CFI 36150 .cfa: sp 0 +
STACK CFI 36154 .cfa: x29 96 +
STACK CFI INIT 363d4 75c .cfa: sp 0 +
STACK CFI 363d8 .cfa: sp 368 +
STACK CFI 363f4 .cfa: x29 96 + x19: .cfa -8 + ^ x20: .cfa -16 + ^ x21: .cfa -24 + ^ x22: .cfa -32 + ^ x23: .cfa -40 + ^ x24: .cfa -48 + ^ x25: .cfa -56 + ^ x26: .cfa -64 + ^ x27: .cfa -72 + ^ x28: .cfa -80 + ^ .ra: .cfa -88 + ^ x29: .cfa -96 + ^
STACK CFI 364a8 .cfa: sp 368 +
STACK CFI 364c4 .cfa: sp 0 +
STACK CFI 364c8 .cfa: x29 96 +
STACK CFI 3651c .cfa: sp 368 +
STACK CFI 36538 .cfa: sp 0 +
STACK CFI 3653c .cfa: x29 96 +
STACK CFI INIT 36ef0 eb0 .cfa: sp 0 +
STACK CFI 36ef4 .cfa: sp 96 +
STACK CFI 36f0c .cfa: x29 96 + x19: .cfa -8 + ^ x20: .cfa -16 + ^ x21: .cfa -24 + ^ x22: .cfa -32 + ^ x23: .cfa -40 + ^ x24: .cfa -48 + ^ x25: .cfa -56 + ^ x26: .cfa -64 + ^ x27: .cfa -72 + ^ x28: .cfa -80 + ^ .ra: .cfa -88 + ^ x29: .cfa -96 + ^
STACK CFI 37bb4 .cfa: sp 96 +
STACK CFI 37bcc .cfa: sp 0 +
STACK CFI 37bd0 .cfa: x29 96 +
STACK CFI INIT 38114 1c9c .cfa: sp 0 +
STACK CFI 38118 .cfa: sp 112 +
STACK CFI 38134 .cfa: x29 96 + x19: .cfa -8 + ^ x20: .cfa -16 + ^ x21: .cfa -24 + ^ x22: .cfa -32 + ^ x23: .cfa -40 + ^ x24: .cfa -48 + ^ x25: .cfa -56 + ^ x26: .cfa -64 + ^ x27: .cfa -72 + ^ x28: .cfa -80 + ^ .ra: .cfa -88 + ^ x29: .cfa -96 + ^ v8: .cfa -112 + ^
STACK CFI 3851c .cfa: sp 112 +
STACK CFI 38538 .cfa: sp 0 +
STACK CFI 3853c .cfa: x29 96 +
STACK CFI INIT 3c574 9a0 .cfa: sp 0 +
STACK CFI 3c578 .cfa: sp 144 +
STACK CFI 3c590 .cfa: x29 80 + x19: .cfa -8 + ^ x20: .cfa -16 + ^ x21: .cfa -24 + ^ x22: .cfa -32 + ^ x23: .cfa -40 + ^ x24: .cfa -48 + ^ x25: .cfa -64 + ^ .ra: .cfa -72 + ^ x29: .cfa -80 + ^
STACK CFI 3ce90 .cfa: sp 144 +
STACK CFI 3cea8 .cfa: sp 0 +
STACK CFI 3ceac .cfa: x29 80 +
STACK CFI INIT 3e438 57c .cfa: sp 0 +
STACK CFI 3e43c .cfa: sp 96 +
STACK CFI 3e454 .cfa: x29 96 + x19: .cfa -8 + ^ x20: .cfa -16 + ^ x21: .cfa -24 + ^ x22: .cfa -32 + ^ x23: .cfa -40 + ^ x24: .cfa -48 + ^ x25: .cfa -56 + ^ x26: .cfa -64 + ^ x27: .cfa -72 + ^ x28: .cfa -80 + ^ .ra: .cfa -88 + ^ x29: .cfa -96 + ^
STACK CFI 3e918 .cfa: sp 96 +
STACK CFI 3e930 .cfa: sp 0 +
STACK CFI 3e934 .cfa: x29 96 +
STACK CFI INIT 3e9b4 67c .cfa: sp 0 +
STACK CFI 3e9b8 .cfa: sp 96 +
STACK CFI 3e9d0 .cfa: x29 96 + x19: .cfa -8 + ^ x20: .cfa -16 + ^ x21: .cfa -24 + ^ x22: .cfa -32 + ^ x23: .cfa -40 + ^ x24: .cfa -48 + ^ x25: .cfa -56 + ^ x26: .cfa -64 + ^ x27: .cfa -72 + ^ x28: .cfa -80 + ^ .ra: .cfa -88 + ^ x29: .cfa -96 + ^
STACK CFI 3ef94 .cfa: sp 96 +
STACK CFI 3efac .cfa: sp 0 +
STACK CFI 3efb0 .cfa: x29 96 +
