MODULE Linux arm64 09764F016908C0AC85EDD1D798818BB50 hiimjustin000.manager_viewer.android64.so
INFO CODE_ID 014F76090869ACC085EDD1D798818BB5A96E7BF4
INFO GENERATOR mozilla/dump_syms 2.3.4
PUBLIC 16be0 0 __on_dlclose
PUBLIC 16bf0 0 __emutls_unregister_key
PUBLIC 16bf8 0 __on_dlclose_late
PUBLIC 16c00 0 __atexit_handler_wrapper
PUBLIC 16c14 0 atexit
PUBLIC 16c30 0 pthread_atfork
PUBLIC 16c40 0 __aarch64_ldadd8_relax
PUBLIC 16c70 0 init_have_lse_atomics
PUBLIC 16d08 0 __init_cpu_features_constructor
PUBLIC 172a4 0 __init_cpu_features
PUBLIC 17330 0 __aarch64_ldadd8_acq_rel
PUBLIC 17360 0 __cxx_global_var_init.1
PUBLIC 177e0 0 geode::modifier::ModifyBase<geode::modifier::ModifyDerive<LVMenuLayer, MenuLayer> >::~ModifyBase()
PUBLIC 177fc 0 std::__ndk1::__function::__func<geodeExecFunction14<(anonymous namespace)::ExecFuncUnique14>()::{lambda()#1}, std::__ndk1::allocator<geodeExecFunction14<(anonymous namespace)::ExecFuncUnique14>()::{lambda()#1}>, void ()>::~__func()
PUBLIC 17800 0 std::__ndk1::__function::__func<geodeExecFunction14<(anonymous namespace)::ExecFuncUnique14>()::{lambda()#1}, std::__ndk1::allocator<geodeExecFunction14<(anonymous namespace)::ExecFuncUnique14>()::{lambda()#1}>, void ()>::__clone() const
PUBLIC 17824 0 std::__ndk1::__function::__func<geodeExecFunction14<(anonymous namespace)::ExecFuncUnique14>()::{lambda()#1}, std::__ndk1::allocator<geodeExecFunction14<(anonymous namespace)::ExecFuncUnique14>()::{lambda()#1}>, void ()>::__clone(std::__ndk1::__function::__base<void ()>*) const
PUBLIC 17834 0 std::__ndk1::__function::__func<geodeExecFunction14<(anonymous namespace)::ExecFuncUnique14>()::{lambda()#1}, std::__ndk1::allocator<geodeExecFunction14<(anonymous namespace)::ExecFuncUnique14>()::{lambda()#1}>, void ()>::destroy()
PUBLIC 17838 0 std::__ndk1::__function::__func<geodeExecFunction14<(anonymous namespace)::ExecFuncUnique14>()::{lambda()#1}, std::__ndk1::allocator<geodeExecFunction14<(anonymous namespace)::ExecFuncUnique14>()::{lambda()#1}>, void ()>::destroy_deallocate()
PUBLIC 1783c 0 std::__ndk1::__function::__func<geodeExecFunction14<(anonymous namespace)::ExecFuncUnique14>()::{lambda()#1}, std::__ndk1::allocator<geodeExecFunction14<(anonymous namespace)::ExecFuncUnique14>()::{lambda()#1}>, void ()>::operator()()
PUBLIC 17a54 0 std::__ndk1::__function::__func<geodeExecFunction14<(anonymous namespace)::ExecFuncUnique14>()::{lambda()#1}, std::__ndk1::allocator<geodeExecFunction14<(anonymous namespace)::ExecFuncUnique14>()::{lambda()#1}>, void ()>::target(std::type_info const&) const
PUBLIC 17a70 0 std::__ndk1::__function::__func<geodeExecFunction14<(anonymous namespace)::ExecFuncUnique14>()::{lambda()#1}, std::__ndk1::allocator<geodeExecFunction14<(anonymous namespace)::ExecFuncUnique14>()::{lambda()#1}>, void ()>::target_type() const
PUBLIC 17a7c 0 std::__throw_bad_array_new_length([abi:ne180000], void)
PUBLIC 17ab0 0 __clang_call_terminate
PUBLIC 17ac0 0 std::__ndk1::__fs::filesystem::path::operator/=[abi:ne180000](std::__ndk1::__fs::filesystem::path const&)
PUBLIC 17ba8 0 std::__ndk1::basic_string<char, std::__ndk1::char_traits<char>, std::__ndk1::allocator<char> >::__init_copy_ctor_external(char const*, unsigned long)
PUBLIC 17c28 0 std::__ndk1::basic_string<char, std::__ndk1::char_traits<char>, std::__ndk1::allocator<char> >::__throw_length_error[abi:ne180000]() const
PUBLIC 17c3c 0 std::__ndk1::__throw_length_error[abi:ne180000](char const*)
PUBLIC 17c8c 0 std::length_error::length_error[abi:ne180000](char const*)
PUBLIC 17cbc 0 std::__ndk1::basic_string<char, std::__ndk1::char_traits<char>, std::__ndk1::allocator<char> >::__assign_no_alias<true>(char const*, unsigned long)
PUBLIC 17d68 0 std::__ndk1::basic_string<char, std::__ndk1::char_traits<char>, std::__ndk1::allocator<char> >::__assign_no_alias<false>(char const*, unsigned long)
PUBLIC 17e78 0 _ZNSt6__ndk112basic_stringIcNS_11char_traitsIcEENS_9allocatorIcEEE6appendB8ne180000IPKcTnNS_9enable_ifIXsr31__has_forward_iterator_categoryIT_EE5valueEiE4typeELi0EEERS5_SA_SA_
PUBLIC 1817c 0 std::__ndk1::__function::__base<void ()>::~__base()
PUBLIC 18180 0 std::__ndk1::__function::__func<geodeExecFunction14<(anonymous namespace)::ExecFuncUnique14>()::{lambda()#2}, std::__ndk1::allocator<geodeExecFunction14<(anonymous namespace)::ExecFuncUnique14>()::{lambda()#2}>, void ()>::~__func()
PUBLIC 18184 0 std::__ndk1::__function::__func<geodeExecFunction14<(anonymous namespace)::ExecFuncUnique14>()::{lambda()#2}, std::__ndk1::allocator<geodeExecFunction14<(anonymous namespace)::ExecFuncUnique14>()::{lambda()#2}>, void ()>::__clone() const
PUBLIC 181a8 0 std::__ndk1::__function::__func<geodeExecFunction14<(anonymous namespace)::ExecFuncUnique14>()::{lambda()#2}, std::__ndk1::allocator<geodeExecFunction14<(anonymous namespace)::ExecFuncUnique14>()::{lambda()#2}>, void ()>::__clone(std::__ndk1::__function::__base<void ()>*) const
PUBLIC 181b8 0 std::__ndk1::__function::__func<geodeExecFunction14<(anonymous namespace)::ExecFuncUnique14>()::{lambda()#2}, std::__ndk1::allocator<geodeExecFunction14<(anonymous namespace)::ExecFuncUnique14>()::{lambda()#2}>, void ()>::destroy()
PUBLIC 181bc 0 std::__ndk1::__function::__func<geodeExecFunction14<(anonymous namespace)::ExecFuncUnique14>()::{lambda()#2}, std::__ndk1::allocator<geodeExecFunction14<(anonymous namespace)::ExecFuncUnique14>()::{lambda()#2}>, void ()>::destroy_deallocate()
PUBLIC 181c0 0 std::__ndk1::__function::__func<geodeExecFunction14<(anonymous namespace)::ExecFuncUnique14>()::{lambda()#2}, std::__ndk1::allocator<geodeExecFunction14<(anonymous namespace)::ExecFuncUnique14>()::{lambda()#2}>, void ()>::operator()()
PUBLIC 18670 0 std::__ndk1::__function::__func<geodeExecFunction14<(anonymous namespace)::ExecFuncUnique14>()::{lambda()#2}, std::__ndk1::allocator<geodeExecFunction14<(anonymous namespace)::ExecFuncUnique14>()::{lambda()#2}>, void ()>::target(std::type_info const&) const
PUBLIC 1868c 0 std::__ndk1::__function::__func<geodeExecFunction14<(anonymous namespace)::ExecFuncUnique14>()::{lambda()#2}, std::__ndk1::allocator<geodeExecFunction14<(anonymous namespace)::ExecFuncUnique14>()::{lambda()#2}>, void ()>::target_type() const
PUBLIC 18698 0 geode::modifier::ModifyDerive<LVMenuLayer, MenuLayer>::apply()
PUBLIC 189a0 0 std::__ndk1::shared_ptr<geode::Hook>::~shared_ptr[abi:ne180000]()
PUBLIC 189f0 0 geode::impl::ResultData<geode::Hook*, std::__ndk1::basic_string<char, std::__ndk1::char_traits<char>, std::__ndk1::allocator<char> > >::~ResultData()
PUBLIC 18a64 0 std::__ndk1::vector<std::__ndk1::basic_string<char, std::__ndk1::char_traits<char>, std::__ndk1::allocator<char> >, std::__ndk1::allocator<std::__ndk1::basic_string<char, std::__ndk1::char_traits<char>, std::__ndk1::allocator<char> > > >::~vector[abi:ne180000]()
PUBLIC 18ae0 0 geode::modifier::ModifyBase<geode::modifier::ModifyDerive<LVMenuLayer, MenuLayer> >::apply()
PUBLIC 18ae4 0 _ZN5geode15UnwrapExceptionC2IRPNS_4HookEQsr4implE18IsStringStreamableIT_EEENS_4impl5OkTagEOS5_
PUBLIC 18c38 0 std::__ndk1::__throw_bad_variant_access[abi:ne180000]()
PUBLIC 18c6c 0 std::__ndk1::basic_stringstream<char, std::__ndk1::char_traits<char>, std::__ndk1::allocator<char> >::basic_stringstream[abi:ne180000]()
PUBLIC m 18d98 0 std::__ndk1::basic_stringstream<char, std::__ndk1::char_traits<char>, std::__ndk1::allocator<char> >::~basic_stringstream()
PUBLIC 18e18 0 geode::UnwrapException::~UnwrapException()
PUBLIC 18e3c 0 std::__ndk1::__put_character_sequence[abi:ne180000]<char, std::__ndk1::char_traits<char> >(std::__ndk1::basic_ostream<char, std::__ndk1::char_traits<char> >, std::__ndk1::basic_ostream const*, unsigned long)
PUBLIC 18fe0 0 std::__ndk1::__pad_and_output[abi:ne180000]<char, std::__ndk1::char_traits<char> >(std::__ndk1::char_traits<char>, std::__ndk1::ostreambuf_iterator const*, std::__ndk1::ostreambuf_iterator const, std::__ndk1::ostreambuf_iterator const, std::__ndk1::ios_base&, std::__ndk1::ostreambuf_iterator)
PUBLIC 191bc 0 std::__ndk1::basic_stringbuf<char, std::__ndk1::char_traits<char>, std::__ndk1::allocator<char> >::str[abi:ne180000]() &&
PUBLIC 19334 0 std::__ndk1::basic_stringbuf<char, std::__ndk1::char_traits<char>, std::__ndk1::allocator<char> >::__init_buf_ptrs[abi:ne180000]()
PUBLIC 1947c 0 std::__ndk1::vector<std::__ndk1::basic_string<char, std::__ndk1::char_traits<char>, std::__ndk1::allocator<char> >, std::__ndk1::allocator<std::__ndk1::basic_string<char, std::__ndk1::char_traits<char>, std::__ndk1::allocator<char> > > >::__push_back_slow_path<std::__ndk1::basic_string<char, std::__ndk1::char_traits<char>, std::__ndk1::allocator<char> > const&>(std::__ndk1::basic_string<char, std::__ndk1::char_traits<char>, std::__ndk1::allocator<char> > const&)
PUBLIC 196a4 0 std::__ndk1::__split_buffer<std::__ndk1::basic_string<char, std::__ndk1::char_traits<char>, std::__ndk1::allocator<char> >, std::__ndk1::allocator<std::__ndk1::basic_string<char, std::__ndk1::char_traits<char>, std::__ndk1::allocator<char> > >&>::~__split_buffer()
PUBLIC 1970c 0 std::__ndk1::vector<std::__ndk1::basic_string<char, std::__ndk1::char_traits<char>, std::__ndk1::allocator<char> >, std::__ndk1::allocator<std::__ndk1::basic_string<char, std::__ndk1::char_traits<char>, std::__ndk1::allocator<char> > > >::__throw_length_error[abi:ne180000]() const
PUBLIC 19720 0 std::__ndk1::__variant_detail::__visitation::__base::__dispatcher<(unsigned long)0>::__dispatch[abi:ne180000]<std::__ndk1::__variant_detail::__dtor<std::__ndk1::__variant_detail::__traits<geode::Hook*, std::__ndk1::basic_string<char, std::__ndk1::char_traits<char>, std::__ndk1::allocator<char> > >, (std::__ndk1::__variant_detail::_Trait)1>::__destroy[abi:ne180000]()::{lambda(auto:1&)#1}, std::__ndk1::__variant_detail::__base<(std::__ndk1::__variant_detail::__traits<geode::Hook*, std::__ndk1::basic_string<char, std::__ndk1::char_traits<char>, std::__ndk1::allocator<char> > >)1, geode::Hook, std::__ndk1::allocator<char> >&>(std::__ndk1::__variant_detail::__dtor<std::__ndk1::__variant_detail::__traits<geode::Hook*, std::__ndk1::basic_string<char, std::__ndk1::char_traits<char>, std::__ndk1::allocator<char> > >, (std::__ndk1::__variant_detail::_Trait)1>, std::__ndk1::__variant_detail::__base<(std::__ndk1::__variant_detail::__traits<geode::Hook*, std::__ndk1::basic_string<char, std::__ndk1::char_traits<char>, std::__ndk1::allocator<char> > >)1, geode::Hook, std::__ndk1::allocator<char> >&)
PUBLIC 19724 0 std::__ndk1::__variant_detail::__visitation::__base::__dispatcher<(unsigned long)1>::__dispatch[abi:ne180000]<std::__ndk1::__variant_detail::__dtor<std::__ndk1::__variant_detail::__traits<geode::Hook*, std::__ndk1::basic_string<char, std::__ndk1::char_traits<char>, std::__ndk1::allocator<char> > >, (std::__ndk1::__variant_detail::_Trait)1>::__destroy[abi:ne180000]()::{lambda(auto:1&)#1}, std::__ndk1::__variant_detail::__base<(std::__ndk1::__variant_detail::__traits<geode::Hook*, std::__ndk1::basic_string<char, std::__ndk1::char_traits<char>, std::__ndk1::allocator<char> > >)1, geode::Hook, std::__ndk1::allocator<char> >&>(std::__ndk1::__variant_detail::__dtor<std::__ndk1::__variant_detail::__traits<geode::Hook*, std::__ndk1::basic_string<char, std::__ndk1::char_traits<char>, std::__ndk1::allocator<char> > >, (std::__ndk1::__variant_detail::_Trait)1>, std::__ndk1::__variant_detail::__base<(std::__ndk1::__variant_detail::__traits<geode::Hook*, std::__ndk1::basic_string<char, std::__ndk1::char_traits<char>, std::__ndk1::allocator<char> > >)1, geode::Hook, std::__ndk1::allocator<char> >&)
PUBLIC 19738 0 std::__ndk1::__tree<std::__ndk1::__value_type<std::__ndk1::basic_string<char, std::__ndk1::char_traits<char>, std::__ndk1::allocator<char> >, std::__ndk1::shared_ptr<geode::Hook> >, std::__ndk1::__map_value_compare<std::__ndk1::basic_string<char, std::__ndk1::char_traits<char>, std::__ndk1::allocator<char> >, std::__ndk1::__value_type<std::__ndk1::basic_string<char, std::__ndk1::char_traits<char>, std::__ndk1::allocator<char> >, std::__ndk1::shared_ptr<geode::Hook> >, std::__ndk1::less<std::__ndk1::basic_string<char, std::__ndk1::char_traits<char>, std::__ndk1::allocator<char> > >, true>, std::__ndk1::allocator<std::__ndk1::__value_type<std::__ndk1::basic_string<char, std::__ndk1::char_traits<char>, std::__ndk1::allocator<char> >, std::__ndk1::shared_ptr<geode::Hook> > > >::find<std::__ndk1::basic_string<char, std::__ndk1::char_traits<char>, std::__ndk1::allocator<char> > >(std::__ndk1::basic_string<char, std::__ndk1::char_traits<char>, std::__ndk1::allocator<char> > const&)
PUBLIC 19858 0 std::__ndk1::__tree<std::__ndk1::__value_type<std::__ndk1::basic_string<char, std::__ndk1::char_traits<char>, std::__ndk1::allocator<char> >, std::__ndk1::shared_ptr<geode::Hook> >, std::__ndk1::__map_value_compare<std::__ndk1::basic_string<char, std::__ndk1::char_traits<char>, std::__ndk1::allocator<char> >, std::__ndk1::__value_type<std::__ndk1::basic_string<char, std::__ndk1::char_traits<char>, std::__ndk1::allocator<char> >, std::__ndk1::shared_ptr<geode::Hook> >, std::__ndk1::less<std::__ndk1::basic_string<char, std::__ndk1::char_traits<char>, std::__ndk1::allocator<char> > >, true>, std::__ndk1::allocator<std::__ndk1::__value_type<std::__ndk1::basic_string<char, std::__ndk1::char_traits<char>, std::__ndk1::allocator<char> >, std::__ndk1::shared_ptr<geode::Hook> > > >::erase(std::__ndk1::__tree_const_iterator<std::__ndk1::__value_type<std::__ndk1::basic_string<char, std::__ndk1::char_traits<char>, std::__ndk1::allocator<char> >, std::__ndk1::shared_ptr<geode::Hook> >, std::__ndk1::__tree_node<std::__ndk1::__value_type<std::__ndk1::basic_string<char, std::__ndk1::char_traits<char>, std::__ndk1::allocator<char> >, std::__ndk1::shared_ptr<geode::Hook> >, void*>*, long>)
PUBLIC 1992c 0 std::__ndk1::__tree_remove[abi:ne180000]<std::__ndk1::__tree_node_base<void*>*>(std::__ndk1::__tree_node_base<void*>*, std::__ndk1::__tree_node_base<void*>*)
PUBLIC 19cf4 0 std::__ndk1::__tree<std::__ndk1::__value_type<std::__ndk1::basic_string<char, std::__ndk1::char_traits<char>, std::__ndk1::allocator<char> >, std::__ndk1::shared_ptr<geode::Hook> >, std::__ndk1::__map_value_compare<std::__ndk1::basic_string<char, std::__ndk1::char_traits<char>, std::__ndk1::allocator<char> >, std::__ndk1::__value_type<std::__ndk1::basic_string<char, std::__ndk1::char_traits<char>, std::__ndk1::allocator<char> >, std::__ndk1::shared_ptr<geode::Hook> >, std::__ndk1::less<std::__ndk1::basic_string<char, std::__ndk1::char_traits<char>, std::__ndk1::allocator<char> > >, true>, std::__ndk1::allocator<std::__ndk1::__value_type<std::__ndk1::basic_string<char, std::__ndk1::char_traits<char>, std::__ndk1::allocator<char> >, std::__ndk1::shared_ptr<geode::Hook> > > >::destroy(std::__ndk1::__tree_node<std::__ndk1::__value_type<std::__ndk1::basic_string<char, std::__ndk1::char_traits<char>, std::__ndk1::allocator<char> >, std::__ndk1::shared_ptr<geode::Hook> >, void*>*)
PUBLIC 19d80 0 geode::modifier::AsStaticFunction_init<LVMenuLayer, bool (LVMenuLayer::*)()>::Impl<bool (LVMenuLayer::*)()>::function(LVMenuLayer*)
PUBLIC 19ecc 0 geode::addresser::Addresser::addressOfVirtual<bool, MenuLayer, >(bool (MenuLayer::*)())
PUBLIC 19f74 0 MenuLayer::MenuLayer(geode::ZeroConstructorType)
PUBLIC 1a010 0 std::__ndk1::shared_ptr<tulip::hook::CallingConvention>::~shared_ptr[abi:ne180000]()
PUBLIC 1a060 0 tulip::hook::HandlerMetadata::~HandlerMetadata()
PUBLIC 1a0c4 0 LVMenuLayer::onLibraryViewer(cocos2d::CCObject*)
PUBLIC 1a204 0 std::__ndk1::__tree<std::__ndk1::__value_type<std::__ndk1::basic_string<char, std::__ndk1::char_traits<char>, std::__ndk1::allocator<char> >, std::__ndk1::shared_ptr<geode::Hook> >, std::__ndk1::__map_value_compare<std::__ndk1::basic_string<char, std::__ndk1::char_traits<char>, std::__ndk1::allocator<char> >, std::__ndk1::__value_type<std::__ndk1::basic_string<char, std::__ndk1::char_traits<char>, std::__ndk1::allocator<char> >, std::__ndk1::shared_ptr<geode::Hook> >, std::__ndk1::less<std::__ndk1::basic_string<char, std::__ndk1::char_traits<char>, std::__ndk1::allocator<char> > >, true>, std::__ndk1::allocator<std::__ndk1::__value_type<std::__ndk1::basic_string<char, std::__ndk1::char_traits<char>, std::__ndk1::allocator<char> >, std::__ndk1::shared_ptr<geode::Hook> > > >::__emplace_unique_key_args<std::__ndk1::basic_string<char, std::__ndk1::char_traits<char>, std::__ndk1::allocator<char> >, std::__ndk1::piecewise_construct_t const&, std::__ndk1::tuple<std::__ndk1::basic_string<char, std::__ndk1::char_traits<char>, std::__ndk1::allocator<char> >&&>, std::__ndk1::tuple<> >(std::__ndk1::basic_string<char, std::__ndk1::char_traits<char>, std::__ndk1::allocator<char> > const&, std::__ndk1::piecewise_construct_t const&, std::__ndk1::tuple<std::__ndk1::basic_string<char, std::__ndk1::char_traits<char>, std::__ndk1::allocator<char> >&&>, std::__ndk1::tuple<>)
PUBLIC 1a37c 0 std::__ndk1::__tree_balance_after_insert[abi:ne180000]<std::__ndk1::__tree_node_base<void*>*>(std::__ndk1::__tree_node_base<void*>*, std::__ndk1::__tree_node_base<void*>*)
PUBLIC 1a52c 0 _GLOBAL__sub_I_main.cpp
PUBLIC 1a804 0 iterateDLPhdr(dl_phdr_info*, unsigned long, void*)
PUBLIC 1ab94 0 std::__ndk1::vector<ModuleAndAddress, std::__ndk1::allocator<ModuleAndAddress> >::__throw_length_error[abi:ne180000]() const
PUBLIC 1aba8 0 ImGuiCocos::~ImGuiCocos()
PUBLIC 1ac3c 0 ImGuiCocos::ImGuiCocos()
PUBLIC 1adfc 0 ImGuiCocos::setup()
PUBLIC 1b188 0 std::__ndk1::__fs::filesystem::operator/[abi:ne180000](std::__ndk1::__fs::filesystem::path const&, std::__ndk1::__fs::filesystem::path const)
PUBLIC 1b1fc 0 geode::Mod::get<void>()
PUBLIC 1b238 0 std::__ndk1::__fs::filesystem::path::path[abi:ne180000]<char [10], void>(std::__ndk1::__fs::filesystem::path::format)
PUBLIC 1b288 0 ImGuiCocos::drawFrame()
PUBLIC 1b3e4 0 ImGuiCocos::newFrame()
PUBLIC 1b4f0 0 ImGuiCocos::renderFrame() const
PUBLIC 1be44 0 hasExtension(std::__ndk1::basic_string_view<char, std::__ndk1::char_traits<char> >)
PUBLIC 1bf8c 0 std::__ndk1::__function::__func<ImGuiCocos::ImGuiCocos()::$_0, std::__ndk1::allocator<ImGuiCocos::ImGuiCocos()::$_0>, void ()>::~__func()
PUBLIC 1bf90 0 std::__ndk1::__function::__func<ImGuiCocos::ImGuiCocos()::$_0, std::__ndk1::allocator<ImGuiCocos::ImGuiCocos()::$_0>, void ()>::__clone() const
PUBLIC 1bfb4 0 std::__ndk1::__function::__func<ImGuiCocos::ImGuiCocos()::$_0, std::__ndk1::allocator<ImGuiCocos::ImGuiCocos()::$_0>, void ()>::__clone(std::__ndk1::__function::__base<void ()>*) const
PUBLIC 1bfc4 0 std::__ndk1::__function::__func<ImGuiCocos::ImGuiCocos()::$_0, std::__ndk1::allocator<ImGuiCocos::ImGuiCocos()::$_0>, void ()>::destroy()
PUBLIC 1bfc8 0 std::__ndk1::__function::__func<ImGuiCocos::ImGuiCocos()::$_0, std::__ndk1::allocator<ImGuiCocos::ImGuiCocos()::$_0>, void ()>::destroy_deallocate()
PUBLIC 1bfcc 0 std::__ndk1::__function::__func<ImGuiCocos::ImGuiCocos()::$_0, std::__ndk1::allocator<ImGuiCocos::ImGuiCocos()::$_0>, void ()>::operator()()
PUBLIC 1bfd0 0 std::__ndk1::__function::__func<ImGuiCocos::ImGuiCocos()::$_0, std::__ndk1::allocator<ImGuiCocos::ImGuiCocos()::$_0>, void ()>::target(std::type_info const&) const
PUBLIC 1bfec 0 std::__ndk1::__function::__func<ImGuiCocos::ImGuiCocos()::$_0, std::__ndk1::allocator<ImGuiCocos::ImGuiCocos()::$_0>, void ()>::target_type() const
PUBLIC 1bff8 0 std::__ndk1::__function::__value_func<void ()>::swap[abi:ne180000](std::__ndk1::__function::__value_func<void ()>&)
PUBLIC 1c190 0 std::__ndk1::__throw_bad_function_call[abi:ne180000]()
PUBLIC 1c1c4 0 std::__ndk1::bad_function_call::~bad_function_call()
PUBLIC 1c1e8 0 __cxx_global_var_init
PUBLIC 1c624 0 __cxx_global_var_init.1
PUBLIC 1ca60 0 __cxx_global_var_init.2
PUBLIC 1ce9c 0 __cxx_global_var_init.3
PUBLIC 1d2d8 0 __cxx_global_var_init.4
PUBLIC 1d714 0 geode::modifier::ModifyBase<geode::modifier::ModifyDerive<hook13<(anonymous namespace)::hook13Parent>, cocos2d::CCMouseDispatcher> >::~ModifyBase()
PUBLIC 1d730 0 geode::modifier::ModifyBase<geode::modifier::ModifyDerive<hook42<(anonymous namespace)::hook42Parent>, cocos2d::CCIMEDispatcher> >::~ModifyBase()
PUBLIC 1d74c 0 geode::modifier::ModifyBase<geode::modifier::ModifyDerive<hook100<(anonymous namespace)::hook100Parent>, cocos2d::CCKeyboardDispatcher> >::~ModifyBase()
PUBLIC 1d768 0 geode::modifier::ModifyBase<geode::modifier::ModifyDerive<hook120<(anonymous namespace)::hook120Parent>, cocos2d::CCTouchDispatcher> >::~ModifyBase()
PUBLIC 1d784 0 geode::modifier::ModifyBase<geode::modifier::ModifyDerive<hook177<(anonymous namespace)::hook177Parent>, cocos2d::CCDirector> >::~ModifyBase()
PUBLIC 1d7a0 0 geode::modifier::ModifyDerive<hook13<(anonymous namespace)::hook13Parent>, cocos2d::CCMouseDispatcher>::apply()
PUBLIC 1db70 0 geode::modifier::ModifyBase<geode::modifier::ModifyDerive<hook13<(anonymous namespace)::hook13Parent>, cocos2d::CCMouseDispatcher> >::apply()
PUBLIC 1db74 0 geode::modifier::AsStaticFunction_dispatchScrollMSG<hook13<(anonymous namespace)::hook13Parent>, bool (hook13<(anonymous namespace)::hook13Parent>::*)(float, float)>::Impl<bool (hook13<(anonymous namespace)::hook13Parent>::*)(float, float)>::function(hook13<(anonymous namespace)::hook13Parent>*, float, float)
PUBLIC 1dd34 0 geode::modifier::ModifyDerive<hook42<(anonymous namespace)::hook42Parent>, cocos2d::CCIMEDispatcher>::apply()
PUBLIC 1e3ac 0 geode::modifier::ModifyBase<geode::modifier::ModifyDerive<hook42<(anonymous namespace)::hook42Parent>, cocos2d::CCIMEDispatcher> >::apply()
PUBLIC 1e3b0 0 geode::modifier::AsStaticFunction_dispatchDeleteBackward<hook42<(anonymous namespace)::hook42Parent>, void (hook42<(anonymous namespace)::hook42Parent>::*)()>::Impl<void (hook42<(anonymous namespace)::hook42Parent>::*)()>::function(hook42<(anonymous namespace)::hook42Parent>*)
PUBLIC 1e4c4 0 geode::modifier::AsStaticFunction_dispatchInsertText<hook42<(anonymous namespace)::hook42Parent>, void (hook42<(anonymous namespace)::hook42Parent>::*)(char const*, int, cocos2d::enumKeyCodes)>::Impl<void (hook42<(anonymous namespace)::hook42Parent>::*)(char const*, int, cocos2d::enumKeyCodes)>::function(hook42<(anonymous namespace)::hook42Parent>*, char const*, int, cocos2d::enumKeyCodes)
PUBLIC 1e6c8 0 geode::modifier::ModifyDerive<hook100<(anonymous namespace)::hook100Parent>, cocos2d::CCKeyboardDispatcher>::apply()
PUBLIC 1eab4 0 geode::modifier::ModifyBase<geode::modifier::ModifyDerive<hook100<(anonymous namespace)::hook100Parent>, cocos2d::CCKeyboardDispatcher> >::apply()
PUBLIC 1eab8 0 geode::modifier::AsStaticFunction_dispatchKeyboardMSG<hook100<(anonymous namespace)::hook100Parent>, bool (hook100<(anonymous namespace)::hook100Parent>::*)(cocos2d::enumKeyCodes, bool, bool)>::Impl<bool (hook100<(anonymous namespace)::hook100Parent>::*)(cocos2d::enumKeyCodes, bool, bool)>::function(hook100<(anonymous namespace)::hook100Parent>*, cocos2d::enumKeyCodes, bool, bool)
PUBLIC 1ed4c 0 geode::modifier::ModifyDerive<hook120<(anonymous namespace)::hook120Parent>, cocos2d::CCTouchDispatcher>::apply()
PUBLIC 1f12c 0 geode::modifier::ModifyBase<geode::modifier::ModifyDerive<hook120<(anonymous namespace)::hook120Parent>, cocos2d::CCTouchDispatcher> >::apply()
PUBLIC 1f130 0 geode::modifier::AsStaticFunction_touches<hook120<(anonymous namespace)::hook120Parent>, void (hook120<(anonymous namespace)::hook120Parent>::*)(cocos2d::CCSet*, cocos2d::CCEvent*, unsigned int)>::Impl<void (hook120<(anonymous namespace)::hook120Parent>::*)(cocos2d::CCSet*, cocos2d::CCEvent*, unsigned int)>::function(hook120<(anonymous namespace)::hook120Parent>*, cocos2d::CCSet*, cocos2d::CCEvent*, unsigned int)
PUBLIC 1f3f4 0 geode::modifier::ModifyDerive<hook177<(anonymous namespace)::hook177Parent>, cocos2d::CCDirector>::apply()
PUBLIC 1f734 0 geode::modifier::ModifyBase<geode::modifier::ModifyDerive<hook177<(anonymous namespace)::hook177Parent>, cocos2d::CCDirector> >::apply()
PUBLIC 1f738 0 geode::modifier::AsStaticFunction_drawScene<hook177<(anonymous namespace)::hook177Parent>, void (hook177<(anonymous namespace)::hook177Parent>::*)()>::Impl<void (hook177<(anonymous namespace)::hook177Parent>::*)()>::function(hook177<(anonymous namespace)::hook177Parent>*)
PUBLIC 1f85c 0 ImGuiIO::AddInputCharactersUTF8(char const*)
PUBLIC 1f9b4 0 ImTextCharFromUtf8(unsigned int*, char const*, char const*)
PUBLIC 1fb18 0 ImGuiIO::AddKeyAnalogEvent(ImGuiKey, bool, float)
PUBLIC 1fdf4 0 ImGuiIO::AddMousePosEvent(float, float)
PUBLIC 1ffc0 0 ImGuiIO::AddMouseButtonEvent(int, bool)
PUBLIC 20394 0 ImGui::DebugLog(char const*, ...)
PUBLIC 2042c 0 ImGui::MemAlloc(unsigned long)
PUBLIC 204fc 0 ImGui::MemFree(void*)
PUBLIC 20598 0 ImFormatString(char*, unsigned long, char const*, ...)
PUBLIC 20654 0 ImFormatStringToTempBufferV(char const**, char const**, char const*, std::__va_list)
PUBLIC 20838 0 ImFileLoadToMemory(char const*, char const*, unsigned long*, int)
PUBLIC 20abc 0 ImGuiTextBuffer::append(char const*, char const*)
PUBLIC 20ba8 0 ImVector<char>::reserve(int)
PUBLIC 20d50 0 ImGuiTextBuffer::appendf(char const*, ...)
PUBLIC 20de4 0 ImGuiTextBuffer::appendfv(char const*, std::__va_list)
PUBLIC 20f14 0 ImGuiTextIndex::append(char const*, int, int)
PUBLIC 21058 0 ImGui::GetColorU32(int, float)
PUBLIC 21110 0 ImGui::ErrorLog(char const*)
PUBLIC 21310 0 ImGui::RenderText(ImVec2, char const*, char const*, bool)
PUBLIC 2155c 0 ImGui::LogRenderedText(ImVec2 const*, char const*, char const*)
PUBLIC 21734 0 ImGui::RenderTextWrapped(ImVec2, char const*, char const*, float)
PUBLIC 21918 0 ImGui::RenderTextClippedEx(ImDrawList*, ImVec2 const&, ImVec2 const&, char const*, char const*, ImVec2 const*, ImVec2 const&, ImRect const*)
PUBLIC 21d48 0 ImGui::RenderTextEllipsis(ImDrawList*, ImVec2 const&, ImVec2 const&, float, float, char const*, char const*, ImVec2 const*)
PUBLIC 2216c 0 ImGui::RenderFrame(ImVec2, ImVec2, unsigned int, bool, float)
PUBLIC 223cc 0 ImGui::RenderFrameBorder(ImVec2, ImVec2, float)
PUBLIC 225d8 0 ImGui::RenderNavCursor(ImRect const&, unsigned int, int)
PUBLIC 228d4 0 ImGui::Initialize()
PUBLIC 22ee8 0 ImGui::Shutdown()
PUBLIC 24d68 0 ImGuiContext::ImGuiContext(ImFontAtlas*)
PUBLIC 25b10 0 ImVector<char>::~ImVector()
PUBLIC 25bb4 0 ImGuiIDStackTool::~ImGuiIDStackTool()
PUBLIC 25c54 0 ImGuiTextIndex::~ImGuiTextIndex()
PUBLIC 25cf4 0 ImGuiTextBuffer::~ImGuiTextBuffer()
PUBLIC 25d98 0 ImVector<ImGuiContextHook>::~ImVector()
PUBLIC 25e38 0 ImChunkStream<ImGuiTableSettings>::~ImChunkStream()
PUBLIC 25edc 0 ImChunkStream<ImGuiWindowSettings>::~ImChunkStream()
PUBLIC 25f7c 0 ImVector<ImGuiSettingsHandler>::~ImVector()
PUBLIC 2601c 0 ImVector<unsigned int>::~ImVector()
PUBLIC 260c0 0 ImGuiInputTextDeactivatedState::~ImGuiInputTextDeactivatedState()
PUBLIC 26160 0 ImPool<ImGuiMultiSelectState>::~ImPool()
PUBLIC 262c4 0 ImVector<ImGuiMultiSelectTempData>::~ImVector()
PUBLIC 26364 0 ImVector<ImGuiShrinkWidthItem>::~ImVector()
PUBLIC 26404 0 ImVector<ImGuiPtrOrIndex>::~ImVector()
PUBLIC 264a4 0 ImPool<ImGuiTabBar>::~ImPool()
PUBLIC 26608 0 ImVector<ImDrawChannel>::~ImVector()
PUBLIC 266a8 0 ImVector<float>::~ImVector()
PUBLIC 26748 0 ImPool<ImGuiTable>::~ImPool()
PUBLIC 268ac 0 ImVector<ImGuiTableTempData>::~ImVector()
PUBLIC 2694c 0 ImVector<ImGuiListClipperData>::~ImVector()
PUBLIC 269ec 0 ImVector<unsigned char>::~ImVector()
PUBLIC 26a8c 0 ImVector<ImGuiFocusScopeData>::~ImVector()
PUBLIC 26b2c 0 ImVector<ImGuiViewportP*>::~ImVector()
PUBLIC 26bcc 0 ImVector<ImGuiTreeNodeStackData>::~ImVector()
PUBLIC 26c6c 0 ImVector<ImGuiPopupData>::~ImVector()
PUBLIC 26d0c 0 ImVector<ImGuiGroupData>::~ImVector()
PUBLIC 26dac 0 ImVector<int>::~ImVector()
PUBLIC 26e50 0 ImVector<ImFont*>::~ImVector()
PUBLIC 26ef0 0 ImVector<ImGuiStyleMod>::~ImVector()
PUBLIC 26f90 0 ImVector<ImGuiColorMod>::~ImVector()
PUBLIC 27030 0 ImGuiKeyRoutingTable::~ImGuiKeyRoutingTable()
PUBLIC 27190 0 ImGuiStorage::~ImGuiStorage()
PUBLIC 27230 0 ImVector<ImGuiWindowStackData>::~ImVector()
PUBLIC 272d0 0 ImVector<ImGuiWindow*>::~ImVector()
PUBLIC 27370 0 ImVector<ImGuiInputEvent>::~ImVector()
PUBLIC 27410 0 ImDrawListSharedData::~ImDrawListSharedData()
PUBLIC 274b0 0 ImGuiIO::~ImGuiIO()
PUBLIC 27550 0 WindowSettingsHandler_ClearAll(ImGuiContext*, ImGuiSettingsHandler*)
PUBLIC 2768c 0 WindowSettingsHandler_ReadOpen(ImGuiContext*, ImGuiSettingsHandler*, char const*)
PUBLIC 27798 0 WindowSettingsHandler_ReadLine(ImGuiContext*, ImGuiSettingsHandler*, void*, char const*)
PUBLIC 278ac 0 WindowSettingsHandler_ApplyAll(ImGuiContext*, ImGuiSettingsHandler*)
PUBLIC 279a4 0 WindowSettingsHandler_WriteAll(ImGuiContext*, ImGuiSettingsHandler*, ImGuiTextBuffer*)
PUBLIC 27bf8 0 Platform_GetClipboardTextFn_DefaultImpl(ImGuiContext*)
PUBLIC 27c14 0 Platform_SetClipboardTextFn_DefaultImpl(ImGuiContext*, char const*)
PUBLIC 27d58 0 Platform_OpenInShellFn_DefaultImpl(ImGuiContext*, char const*)
PUBLIC 27e10 0 Platform_SetImeDataFn_DefaultImpl(ImGuiContext*, ImGuiViewport*, ImGuiPlatformImeData*)
PUBLIC 27e14 0 ImGuiKeyRoutingTable::Clear()
PUBLIC 27fb0 0 ImPool<ImGuiTabBar>::Clear()
PUBLIC 282a8 0 ImPool<ImGuiTable>::Clear()
PUBLIC 28470 0 ImPool<ImGuiMultiSelectState>::Clear()
PUBLIC 285dc 0 ImVector<ImGuiMultiSelectTempData>::clear_destruct()
PUBLIC 2877c 0 ImDrawList::~ImDrawList()
PUBLIC 28c98 0 ImVector<ImGuiOldColumns>::~ImVector()
PUBLIC 28d38 0 ImGuiWindowTempData::~ImGuiWindowTempData()
PUBLIC 28f34 0 ImVector<unsigned short>::reserve(int)
PUBLIC 290d8 0 ImGui::SetActiveID(unsigned int, ImGuiWindow*)
PUBLIC 2921c 0 ImGui::IsItemHovered(int)
PUBLIC 29538 0 ImGui::ItemHoverable(ImRect const&, unsigned int, int)
PUBLIC 29914 0 ImGui::IsMouseHoveringRect(ImVec2 const&, ImVec2 const&, bool)
PUBLIC 299b8 0 ImGui::SetTooltip(char const*, ...)
PUBLIC 29aa4 0 ImGui::GetKeyChordName(int)
PUBLIC 29c90 0 GetViewportBgFgDrawList(ImGuiViewportP*, unsigned long, char const*)
PUBLIC 29e6c 0 ImGui::FocusWindow(ImGuiWindow*, int)
PUBLIC 2a4b0 0 ImGui::IsWindowAbove(ImGuiWindow*, ImGuiWindow*)
PUBLIC 2a518 0 ImGui::NewFrame()
PUBLIC 31118 0 ImGui::Begin(char const*, bool*, int)
PUBLIC 364ac 0 ImGui::PopClipRect()
PUBLIC 365bc 0 ImGui::End()
PUBLIC 369fc 0 ImVector<ImGuiWindow*>::reserve(int)
PUBLIC 36ba0 0 AddWindowToSortBuffer(ImVector<ImGuiWindow*>*, ImGuiWindow*)
PUBLIC 36c84 0 ImGui::Render()
PUBLIC 389a0 0 ImGui::NavInitWindow(ImGuiWindow*, bool)
PUBLIC 38b00 0 ImGui::EndChild()
PUBLIC 38cc8 0 ImGui::ItemSize(ImVec2 const&, float)
PUBLIC 38de4 0 ImGui::ItemAdd(ImRect const&, unsigned int, ImRect const*, int)
PUBLIC 39690 0 ImGui::CalcWindowNextAutoFitSize(ImGuiWindow*)
PUBLIC 397a8 0 CalcWindowAutoFitSize(ImGuiWindow*, ImVec2 const&)
PUBLIC 399b0 0 CalcWindowSizeAfterConstraint(ImGuiWindow*, ImVec2 const&)
PUBLIC 39b54 0 ImGui::FindBestWindowPosForPopup(ImGuiWindow*)
PUBLIC 3a068 0 CalcNextScrollFromScrollTargetAndClamp(ImGuiWindow*)
PUBLIC 3a370 0 ImGui::DebugLocateItemResolveWithLastItem()
PUBLIC 3a4c8 0 SetWindowActiveForSkipRefresh(ImGuiWindow*)
PUBLIC 3a52c 0 ImGui::LogFinish()
PUBLIC 3a690 0 ImGui::ErrorRecoveryTryToRecoverWindowState(ImGuiErrorRecoveryState const*)
PUBLIC 3addc 0 ImGui::SetNavFocusScope(unsigned int)
PUBLIC 3afb8 0 ImGui::PushFont(ImFont*)
PUBLIC 3b320 0 ImGui::PopFont()
PUBLIC 3b4a0 0 ImGui::PushItemFlag(int, bool)
PUBLIC 3b53c 0 ImGui::IsWindowHovered(int)
PUBLIC 3b720 0 ImGui::NavMoveRequestSubmit(ImGuiDir, ImGuiDir, int, int)
PUBLIC 3b7e0 0 ImGui::NavMoveRequestResolveWithLastItem(ImGuiNavItemData*)
PUBLIC 3b860 0 ImGui::NavApplyItemToResult(ImGuiNavItemData*)
PUBLIC 3b8b0 0 ImGui::ScrollToRectEx(ImGuiWindow*, ImRect const&, int)
PUBLIC 3bc38 0 ImGui::DebugHookIdInfo(unsigned int, int, void const*, void const*)
PUBLIC 3be80 0 ImGui::PushID(char const*)
PUBLIC 3bfa0 0 ImGui::IsKeyDown(ImGuiKey, unsigned int)
PUBLIC 3c0d0 0 ImGui::TestKeyOwner(ImGuiKey, unsigned int)
PUBLIC 3c1cc 0 ImGui::IsKeyPressed(ImGuiKey, int, unsigned int)
PUBLIC 3c520 0 ImGui::IsKeyReleased(ImGuiKey, unsigned int)
PUBLIC 3c62c 0 ImGui::IsMouseClicked(int, int, unsigned int)
PUBLIC 3c7d8 0 ImGui::Shortcut(int, int, unsigned int)
PUBLIC 3ce30 0 ImGui::EndGroup()
PUBLIC 3d19c 0 ImGui::BeginErrorTooltip()
PUBLIC 3d5a0 0 ImGui::BeginTooltipEx(int, int)
PUBLIC 3d748 0 ImGui::OpenPopupEx(unsigned int, int)
PUBLIC 3d940 0 ImGui::NavCalcPreferredRefPos()
PUBLIC 3db50 0 ImGui::ClosePopupToLevel(int, bool)
PUBLIC 3dd70 0 ImGui::CloseCurrentPopup()
PUBLIC 3de44 0 ImGui::BeginPopupEx(unsigned int, int)
PUBLIC 3df70 0 ImGui::FindBestWindowPosForPopupEx(ImVec2 const&, ImVec2 const&, ImGuiDir*, ImRect const&, ImRect const&, ImGuiPopupPositionPolicy)
PUBLIC 3e534 0 ImGui::SetNavID(unsigned int, ImGuiNavLayer, unsigned int, ImRect const&)
PUBLIC 3e5c4 0 ImGui::SetFocusID(unsigned int, ImGuiWindow*)
PUBLIC 3e718 0 ImGui::NavMoveRequestResolveWithPastTreeNode(ImGuiNavItemData*, ImGuiTreeNodeStackData*)
PUBLIC 3e7b8 0 ImGui::LogText(char const*, ...)
PUBLIC 3e904 0 ImGui::SaveIniSettingsToMemory(unsigned long*)
PUBLIC 3e9f8 0 ImGui::CreateNewWindowSettings(char const*)
PUBLIC 3ebb0 0 ImGui::DebugLogV(char const*, std::__va_list)
PUBLIC 3ecd8 0 MallocWrapper(unsigned long, void*)
PUBLIC 3ecdc 0 FreeWrapper(void*, void*)
PUBLIC 3ece0 0 ImVector<ImDrawList*>::~ImVector()
PUBLIC 3ed80 0 ChildWindowComparer(void const*, void const*)
PUBLIC 3edc4 0 ImVector<ImDrawList*>::reserve(int)
PUBLIC 3ef68 0 ImGui::RenderDimmedBackgroundBehindWindow(ImGuiWindow*, unsigned int)
PUBLIC 3f29c 0 ImVector<ImDrawCmd>::reserve(int)
PUBLIC 3f440 0 AddWindowToDrawData(ImGuiWindow*, int)
PUBLIC 3f4f4 0 CalcResizePosSizeFromAnyCorner(ImGuiWindow*, ImVec2 const&, ImVec2 const&, ImVec2*, ImVec2*)
PUBLIC 3f5b8 0 GetResizeBorderRect(ImGuiWindow*, int, float, float)
PUBLIC 3f688 0 ImVector<ImVec2>::reserve(int)
PUBLIC 3f82c 0 ImVector<ImGuiKeyRoutingData>::reserve(int)
PUBLIC 3f9d0 0 LockWheelingWindow(ImGuiWindow*, float)
PUBLIC 3faa8 0 ImGui::ErrorCheckNewFrameSanityChecks()::$_0::__invoke(ImGuiContext*)
PUBLIC 3fab8 0 ImGui::ErrorCheckNewFrameSanityChecks()::$_1::__invoke(ImGuiContext*, char const*)
PUBLIC 3fac8 0 ImGui::NavScoreItem(ImGuiNavItemData*)
PUBLIC 3fe20 0 ImGui::NavRestoreLayer(ImGuiNavLayer)
PUBLIC 3ff50 0 ImVector<ImGuiStackLevelInfo>::reserve(int)
PUBLIC 400f4 0 ImVector<unsigned int>::reserve(int)
PUBLIC 40298 0 ImVector<ImGuiInputEvent>::reserve(int)
PUBLIC 40444 0 ImVector<int>::reserve(int)
PUBLIC 405e8 0 ImVector<ImGuiColorMod>::reserve(int)
PUBLIC 40794 0 ImVector<ImGuiStyleMod>::reserve(int)
PUBLIC 40940 0 ImGuiContext::~ImGuiContext()
PUBLIC 422ac 0 ImGuiTable::~ImGuiTable()
PUBLIC 42544 0 ImGuiTableTempData::~ImGuiTableTempData()
PUBLIC 426b0 0 ImVector<ImGuiWindowStackData>::reserve(int)
PUBLIC 4285c 0 ImVector<ImGuiPopupData>::reserve(int)
PUBLIC 42a08 0 ImVector<float>::reserve(int)
PUBLIC 42ba8 0 ImVector<ImGuiFocusScopeData>::reserve(int)
PUBLIC 42d4c 0 ImVector<ImGuiSettingsHandler>::reserve(int)
PUBLIC 42ef8 0 ImGui::TextEx(char const*, char const*, int)
PUBLIC 433a4 0 ImGui::Text(char const*, ...)
PUBLIC 43470 0 ImGui::TextColored(ImVec4 const&, char const*, ...)
PUBLIC 4367c 0 ImGui::BulletText(char const*, ...)
PUBLIC 43714 0 ImGui::BulletTextV(char const*, std::__va_list)
PUBLIC 439d8 0 ImGui::ButtonBehavior(ImRect const&, unsigned int, bool*, bool*, int)
PUBLIC 44410 0 ImGui::ButtonEx(char const*, ImVec2 const&, int)
PUBLIC 448e0 0 ImGui::ArrowButtonEx(char const*, ImGuiDir, ImVec2, int)
PUBLIC 44d38 0 ImGui::CloseButton(unsigned int, ImVec2 const&)
PUBLIC 4514c 0 ImGui::CollapseButton(unsigned int, ImVec2 const&)
PUBLIC 455c4 0 ImGui::Scrollbar(ImGuiAxis)
PUBLIC 45d6c 0 ImGui::SeparatorEx(int, float)
PUBLIC 462cc 0 ImGui::SeparatorTextEx(unsigned int, char const*, char const*, float)
PUBLIC 46660 0 ShrinkWidthItemComparer(void const*, void const*)
PUBLIC 46690 0 ImGui::BeginCombo(char const*, char const*, int)
PUBLIC 474e4 0 ImGui::Selectable(char const*, bool, int, ImVec2 const&)
PUBLIC 4889c 0 ImGuiInputTextState::ImGuiInputTextState()
PUBLIC 489ac 0 ImGuiInputTextState::~ImGuiInputTextState()
PUBLIC 48c64 0 ImGui::InputTextDeactivateHook(unsigned int)
PUBLIC 49014 0 ImGui::TreePop()
PUBLIC 49138 0 ImGui::MultiSelectAddSetAll(ImGuiMultiSelectTempData*, bool)
PUBLIC 494d8 0 ImGui::EndMultiSelect()
PUBLIC 4a0e4 0 BoxSelectPreStartDrag(unsigned int, long long)
PUBLIC 4a138 0 ImGui::MultiSelectAddSetRange(ImGuiMultiSelectTempData*, bool, int, long long, long long)
PUBLIC 4a3f4 0 ImGui::MenuItemEx(char const*, char const*, char const*, bool, bool)
PUBLIC 4ae38 0 ImGui::EndTabBar()
PUBLIC 4afec 0 ImGui::TabBarLayout(ImGuiTabBar*)
PUBLIC 4ce00 0 TabItemComparerBySection(void const*, void const*)
PUBLIC 4ce48 0 ImGui::EndTable()
PUBLIC 50804 0 ImGui::TableEndRow(ImGuiTable*)
PUBLIC 51134 0 ImGui::TableSettingsCreate(unsigned int, int)
PUBLIC 513b0 0 TableSettingsHandler_ClearAll(ImGuiContext*, ImGuiSettingsHandler*)
PUBLIC 514c8 0 TableSettingsHandler_ReadOpen(ImGuiContext*, ImGuiSettingsHandler*, char const*)
PUBLIC 5161c 0 TableSettingsHandler_ReadLine(ImGuiContext*, ImGuiSettingsHandler*, void*, char const*)
PUBLIC 51938 0 TableSettingsHandler_ApplyAll(ImGuiContext*, ImGuiSettingsHandler*)
PUBLIC 5198c 0 TableSettingsHandler_WriteAll(ImGuiContext*, ImGuiSettingsHandler*, ImGuiTextBuffer*)
PUBLIC 51dd8 0 ImGui::TableGcCompactTransientBuffers(ImGuiTable*)
PUBLIC 51ff8 0 ImGui::TableGcCompactSettings()
PUBLIC 5249c 0 ImGui::EndColumns()
PUBLIC 52b3c 0 ImGui::StyleColorsDark(ImGuiStyle*)
PUBLIC 52d94 0 ImDrawList::_ResetForNewFrame()
PUBLIC 53ab0 0 ImDrawListSplitter::Merge(ImDrawList*)
PUBLIC 541ac 0 ImDrawList::_ClearFreeMemory()
PUBLIC 5467c 0 ImDrawListSplitter::ClearFreeMemory()
PUBLIC 548f8 0 ImDrawList::AddDrawCmd()
PUBLIC 54b54 0 ImDrawList::PushClipRect(ImVec2 const&, ImVec2 const&, bool)
PUBLIC 54e54 0 ImDrawList::PopClipRect()
PUBLIC 54f1c 0 ImDrawList::PushTextureID(unsigned long long)
PUBLIC 551b8 0 ImDrawList::PrimReserve(int, int)
PUBLIC 555dc 0 ImDrawList::AddPolyline(ImVec2 const*, int, unsigned int, int, float)
PUBLIC 55fb8 0 ImDrawList::AddConvexPolyFilled(ImVec2 const*, int, unsigned int)
PUBLIC 56544 0 ImDrawList::_PathArcToFastEx(ImVec2 const&, float, int, int, int)
PUBLIC 56ba0 0 ImDrawList::_PathArcToN(ImVec2 const&, float, float, float, int)
PUBLIC 5718c 0 ImDrawList::PathArcToFast(ImVec2 const&, float, int, int)
PUBLIC 573bc 0 ImDrawList::PathArcTo(ImVec2 const&, float, float, float, int)
PUBLIC 57cec 0 ImDrawList::PathRect(ImVec2 const&, ImVec2 const&, float, int)
PUBLIC 585bc 0 ImDrawList::AddLine(ImVec2 const&, ImVec2 const&, unsigned int, float)
PUBLIC 589b0 0 ImDrawList::AddRect(ImVec2 const&, ImVec2 const&, unsigned int, float, int, float)
PUBLIC 58a80 0 ImDrawList::AddRectFilled(ImVec2 const&, ImVec2 const&, unsigned int, float, int)
PUBLIC 58bb0 0 ImDrawList::AddTriangleFilled(ImVec2 const&, ImVec2 const&, ImVec2 const&, unsigned int)
PUBLIC 59144 0 ImFont::RenderText(ImDrawList*, float, ImVec2 const&, unsigned int, ImVec4 const&, char const*, char const*, float, bool) const
PUBLIC 59888 0 ImDrawList::AddImage(unsigned long long, ImVec2 const&, ImVec2 const&, ImVec2 const&, ImVec2 const&, unsigned int)
PUBLIC 59b64 0 ImDrawListSplitter::Split(ImDrawList*, int)
PUBLIC 5a0bc 0 ImDrawListSplitter::SetCurrentChannel(ImDrawList*, int)
PUBLIC 5a18c 0 ImDrawData::Clear()
PUBLIC 5a344 0 ImGui::AddDrawListToDrawDataEx(ImDrawData*, ImVector<ImDrawList*>*, ImDrawList*)
PUBLIC 5a5e8 0 ImFontAtlas::~ImFontAtlas()
PUBLIC 5a804 0 ImFontAtlas::Clear()
PUBLIC 5ab10 0 ImFontAtlas::ClearInputData()
PUBLIC 5adc8 0 ImFontAtlas::GetTexDataAsRGBA32(unsigned char**, int*, int*, int*)
PUBLIC 5bbdc 0 ImFontAtlas::AddFont(ImFontConfig const*)
PUBLIC 5c39c 0 ImFontAtlas::AddFontFromFileTTF(char const*, float, ImFontConfig const*, unsigned short const*)
PUBLIC 5c578 0 ImFontAtlas::AddCustomRectRegular(int, int)
PUBLIC 5c7c8 0 ImFontAtlasBuildWithStbTruetype(ImFontAtlas*)
PUBLIC 6ab18 0 stbrp_pack_rects(stbrp_context*, stbrp_rect*, int)
PUBLIC 6b080 0 ImVector<stbrp_rect>::~ImVector()
PUBLIC m 6b128 0 ImFont::~ImFont()
PUBLIC 6b550 0 ImFont::CalcWordWrapPositionA(float, char const*, char const*, float) const
PUBLIC 6b764 0 ImFont::CalcTextSizeA(float, float, float, char const*, char const*, char const**) const
PUBLIC 6ba68 0 ImFont::RenderChar(ImDrawList*, float, ImVec2 const&, unsigned int, unsigned short) const
PUBLIC 6bbe8 0 ImGui::RenderCheckMark(ImDrawList*, ImVec2, unsigned int, float)
PUBLIC 6c1d4 0 stbtt_FindGlyphIndex(stbtt_fontinfo const*, int)
PUBLIC 6c43c 0 stbtt_GetGlyphBitmapBoxSubpixel(stbtt_fontinfo const*, int, float, float, float, float, int*, int*, int*, int*)
PUBLIC 6c694 0 ImVector<stbtt_packedchar>::~ImVector()
PUBLIC 6c73c 0 ImVector<ImFontBuildDstData>::~ImVector()
PUBLIC 6c7e4 0 ImVector<ImFontBuildSrcData>::~ImVector()
PUBLIC 6c88c 0 stbtt__cff_index_get(stbtt__buf, int)
PUBLIC 6c9f4 0 stbtt__dict_get_ints(stbtt__buf*, int, int, unsigned int*)
PUBLIC 6cc48 0 stbtt__get_subrs(stbtt__buf, stbtt__buf)
PUBLIC 6ce5c 0 stbtt__cff_int(stbtt__buf*)
PUBLIC 6d014 0 stbtt__run_charstring(stbtt_fontinfo const*, int, stbtt__csctx*)
PUBLIC 6e064 0 stbtt__csctx_rmove_to(stbtt__csctx*, float, float)
PUBLIC 6e264 0 stbtt__csctx_rccurve_to(stbtt__csctx*, float, float, float, float, float, float)
PUBLIC 6e460 0 stbtt_GetGlyphShape(stbtt_fontinfo const*, int, stbtt_vertex**)
PUBLIC 6f020 0 stbtt__tesselate_curve(stbtt__point*, int*, float, float, float, float, float, float, float, int)
PUBLIC 6f14c 0 stbtt__tesselate_cubic(stbtt__point*, int*, float, float, float, float, float, float, float, float, float, int)
PUBLIC 6f2e0 0 stbtt__sort_edges_quicksort(stbtt__edge*, int)
PUBLIC 6f4dc 0 rect_height_compare(void const*, void const*)
PUBLIC 6f518 0 rect_original_order(void const*, void const*)
PUBLIC m 6f530 0 geodeImplicitEntry
PUBLIC 6f56c 0 std::__ndk1::unordered_map<void*, bool, std::__ndk1::hash<void*>, std::__ndk1::equal_to<void*>, std::__ndk1::allocator<std::__ndk1::pair<void* const, bool> > >::~unordered_map[abi:ne180000]()
PUBLIC 6f5b8 0 wrapFunction(unsigned long, tulip::hook::WrapperMetadata const&)
PUBLIC 6f6ec 0 geode::impl::ResultData<void*, std::__ndk1::basic_string<char, std::__ndk1::char_traits<char>, std::__ndk1::allocator<char> > >::unwrapErr() &
PUBLIC 6f764 0 geode::impl::ResultData<void*, std::__ndk1::basic_string<char, std::__ndk1::char_traits<char>, std::__ndk1::allocator<char> > >::~ResultData()
PUBLIC 6f7d8 0 tulip::hook::WrapperMetadata::~WrapperMetadata()
PUBLIC 6f83c 0 cocos2d::CCObject::~CCObject()
PUBLIC 6f860 0 cocos2d::CCTexture2D::~CCTexture2D()
PUBLIC 6fad0 0 cocos2d::CCTexture2D::~CCTexture2D()
PUBLIC 6faf4 0 cocos2d::CCTexture2D::CCTexture2D()
PUBLIC 6fd20 0 cocos2d::CCCopying::copyWithZone(cocos2d::CCZone*)
PUBLIC 6fd28 0 cocos2d::CCObject::update(float)
PUBLIC 6fd2c 0 cocos2d::CCObject::~CCObject()
PUBLIC 70220 0 _ZN5geode15UnwrapExceptionC2IRPvQsr4implE18IsStringStreamableIT_EEENS_4impl5OkTagEOS4_
PUBLIC 70374 0 _ZN5geode15UnwrapExceptionC2IRNSt6__ndk112basic_stringIcNS2_11char_traitsIcEENS2_9allocatorIcEEEEQsr4implE18IsStringStreamableIT_EEENS_4impl6ErrTagEOSA_
PUBLIC 704dc 0 std::__ndk1::__variant_detail::__visitation::__base::__dispatcher<(unsigned long)0>::__dispatch[abi:ne180000]<std::__ndk1::__variant_detail::__dtor<std::__ndk1::__variant_detail::__traits<void*, std::__ndk1::basic_string<char, std::__ndk1::char_traits<char>, std::__ndk1::allocator<char> > >, (std::__ndk1::__variant_detail::_Trait)1>::__destroy[abi:ne180000]()::{lambda(auto:1&)#1}, std::__ndk1::__variant_detail::__base<(std::__ndk1::__variant_detail::__traits<void*, std::__ndk1::basic_string<char, std::__ndk1::char_traits<char>, std::__ndk1::allocator<char> > >)1, std::__ndk1::__variant_detail::__traits, std::__ndk1::allocator<char> >&>(std::__ndk1::__variant_detail::__dtor<std::__ndk1::__variant_detail::__traits<void*, std::__ndk1::basic_string<char, std::__ndk1::char_traits<char>, std::__ndk1::allocator<char> > >, (std::__ndk1::__variant_detail::_Trait)1>, std::__ndk1::__variant_detail::__base<(std::__ndk1::__variant_detail::__traits<void*, std::__ndk1::basic_string<char, std::__ndk1::char_traits<char>, std::__ndk1::allocator<char> > >)1, std::__ndk1::__variant_detail::__traits, std::__ndk1::allocator<char> >&)
PUBLIC 704e0 0 std::__ndk1::__variant_detail::__visitation::__base::__dispatcher<(unsigned long)1>::__dispatch[abi:ne180000]<std::__ndk1::__variant_detail::__dtor<std::__ndk1::__variant_detail::__traits<void*, std::__ndk1::basic_string<char, std::__ndk1::char_traits<char>, std::__ndk1::allocator<char> > >, (std::__ndk1::__variant_detail::_Trait)1>::__destroy[abi:ne180000]()::{lambda(auto:1&)#1}, std::__ndk1::__variant_detail::__base<(std::__ndk1::__variant_detail::__traits<void*, std::__ndk1::basic_string<char, std::__ndk1::char_traits<char>, std::__ndk1::allocator<char> > >)1, std::__ndk1::__variant_detail::__traits, std::__ndk1::allocator<char> >&>(std::__ndk1::__variant_detail::__dtor<std::__ndk1::__variant_detail::__traits<void*, std::__ndk1::basic_string<char, std::__ndk1::char_traits<char>, std::__ndk1::allocator<char> > >, (std::__ndk1::__variant_detail::_Trait)1>, std::__ndk1::__variant_detail::__base<(std::__ndk1::__variant_detail::__traits<void*, std::__ndk1::basic_string<char, std::__ndk1::char_traits<char>, std::__ndk1::allocator<char> > >)1, std::__ndk1::__variant_detail::__traits, std::__ndk1::allocator<char> >&)
PUBLIC 704f4 0 std::__ndk1::__hash_table<std::__ndk1::__hash_value_type<void*, bool>, std::__ndk1::__unordered_map_hasher<void*, std::__ndk1::__hash_value_type<void*, bool>, std::__ndk1::hash<void*>, std::__ndk1::equal_to<void*>, true>, std::__ndk1::__unordered_map_equal<void*, std::__ndk1::__hash_value_type<void*, bool>, std::__ndk1::equal_to<void*>, std::__ndk1::hash<void*>, true>, std::__ndk1::allocator<std::__ndk1::__hash_value_type<void*, bool> > >::__emplace_unique_key_args<void*, std::__ndk1::piecewise_construct_t const&, std::__ndk1::tuple<void* const&>, std::__ndk1::tuple<> >(void* const&, std::__ndk1::piecewise_construct_t const&, std::__ndk1::tuple<void* const&>, std::__ndk1::tuple<>)
PUBLIC 70a00 0 __udivti3
PUBLIC 70a0c 0 __udivmodti4
PUBLIC m 70c58 0 __eqtf2
PUBLIC 70cf8 0 __unordtf2
PUBLIC 70d30 0 fmt::v11::detail::write_loc(fmt::v11::basic_appender<char>, fmt::v11::loc_value, fmt::v11::format_specs const&, fmt::v11::detail::locale_ref)
PUBLIC 70fc4 0 fmt::v11::format_facet<std::__ndk1::locale>::~format_facet()
PUBLIC 71040 0 fmt::v11::report_error(char const*)
PUBLIC 71090 0 fmt::v11::format_error::runtime_error(char const*)
PUBLIC 710bc 0 fmt::v11::format_facet<std::__ndk1::locale>::do_put(fmt::v11::basic_appender<char>, fmt::v11::loc_value, fmt::v11::format_specs const&) const
PUBLIC 7187c 0 fmt::v11::detail::loc_writer<char>::~loc_writer()
PUBLIC 718e0 0 fmt::v11::detail::vformat_to<char>(fmt::v11::detail::buffer<char>&, fmt::v11::basic_string_view<char>, fmt::v11::detail::vformat_args<char>::type, fmt::v11::detail::locale_ref)
PUBLIC 71e50 0 fmt::v11::detail::is_printable(unsigned int)
PUBLIC 72078 0 fmt::v11::detail::dragonbox::to_decimal<float>(float)
PUBLIC 72354 0 fmt::v11::detail::dragonbox::to_decimal<double>(double)
PUBLIC 72890 0 fmt::v11::basic_memory_buffer<char, (unsigned long)500, std::__ndk1::allocator<char> >::grow(fmt::v11::detail::buffer<char>&, unsigned long)
PUBLIC 72908 0 fmt::v11::format_facet<std::__ndk1::locale>::~format_facet()
PUBLIC 72994 0 fmt::v11::format_error::~format_error()
PUBLIC 729b8 0 fmt::v11::detail::copy_noinline<char, char const*, fmt::v11::basic_appender<char> >(char const*, char const*, fmt::v11::basic_appender<char>)
PUBLIC 72b08 0 fmt::v11::detail::default_arg_formatter<char>::operator()<bool>(bool)
PUBLIC 72b70 0 fmt::v11::detail::default_arg_formatter<char>::operator()<char>(char)
PUBLIC 72c00 0 fmt::v11::detail::default_arg_formatter<char>::operator()<float>(float)
PUBLIC 72cec 0 fmt::v11::detail::default_arg_formatter<char>::operator()<double>(double)
PUBLIC 72dd8 0 fmt::v11::detail::default_arg_formatter<char>::operator()<char const*>(char const*)
PUBLIC 72e20 0 fmt::v11::detail::default_arg_formatter<char>::operator()<void const*>(void const*)
PUBLIC 72eb8 0 _ZN3fmt3v116detail5writeIcNS0_14basic_appenderIcEEiTnNSt6__ndk19enable_ifIXaaaasr11is_integralIT1_EE5valuentsr3std7is_sameIS7_bEE5valuentsr3std7is_sameIS7_T_EE5valueEiE4typeELi0EEET0_SB_S7_
PUBLIC 73118 0 fmt::v11::detail::copy_noinline<char, char*, fmt::v11::basic_appender<char> >(char*, char*, fmt::v11::basic_appender<char>)
PUBLIC 73268 0 _ZN3fmt3v116detail5writeIcNS0_14basic_appenderIcEEjTnNSt6__ndk19enable_ifIXaaaasr11is_integralIT1_EE5valuentsr3std7is_sameIS7_bEE5valuentsr3std7is_sameIS7_T_EE5valueEiE4typeELi0EEET0_SB_S7_
PUBLIC 73448 0 _ZN3fmt3v116detail5writeIcNS0_14basic_appenderIcEExTnNSt6__ndk19enable_ifIXaaaasr11is_integralIT1_EE5valuentsr3std7is_sameIS7_bEE5valuentsr3std7is_sameIS7_T_EE5valueEiE4typeELi0EEET0_SB_S7_
PUBLIC 736cc 0 _ZN3fmt3v116detail5writeIcNS0_14basic_appenderIcEEyTnNSt6__ndk19enable_ifIXaaaasr11is_integralIT1_EE5valuentsr3std7is_sameIS7_bEE5valuentsr3std7is_sameIS7_T_EE5valueEiE4typeELi0EEET0_SB_S7_
PUBLIC 738d4 0 _ZN3fmt3v116detail5writeIcNS0_14basic_appenderIcEEnTnNSt6__ndk19enable_ifIXaaaasr11is_integralIT1_EE5valuentsr3std7is_sameIS7_bEE5valuentsr3std7is_sameIS7_T_EE5valueEiE4typeELi0EEET0_SB_S7_
PUBLIC 73c34 0 _ZN3fmt3v116detail5writeIcNS0_14basic_appenderIcEEoTnNSt6__ndk19enable_ifIXaaaasr11is_integralIT1_EE5valuentsr3std7is_sameIS7_bEE5valuentsr3std7is_sameIS7_T_EE5valueEiE4typeELi0EEET0_SB_S7_
PUBLIC 73f48 0 _ZN3fmt3v116detail5writeIcNS0_14basic_appenderIcEEbTnNSt6__ndk19enable_ifIXsr3std7is_sameIT1_bEE5valueEiE4typeELi0EEET0_SA_S7_RKNS0_12format_specsENS1_10locale_refE
PUBLIC 741d8 0 fmt::v11::detail::write_int_noinline<char, fmt::v11::basic_appender<char>, unsigned int>(fmt::v11::basic_appender<char>, fmt::v11::detail::write_int_arg<unsigned int>, fmt::v11::format_specs const&, fmt::v11::detail::locale_ref)
PUBLIC 74fb4 0 fmt::v11::detail::fill<char, fmt::v11::basic_appender<char> >(fmt::v11::basic_appender<char>, unsigned long, fmt::v11::detail::fill_t const&)
PUBLIC 75184 0 fmt::v11::detail::write_padded<char, (fmt::v11::align::type)1, fmt::v11::basic_appender<char>, fmt::v11::detail::write_char<char, fmt::v11::basic_appender<char> >(fmt::v11::basic_appender<char>, char, fmt::v11::format_specs const&)::{lambda(fmt::v11::basic_appender<char>&)#1}>(fmt::v11::basic_appender<char>, fmt::v11::format_specs const&, unsigned long, unsigned long, fmt::v11::detail::write_char<char, fmt::v11::basic_appender<char> >(fmt::v11::basic_appender<char>, char, fmt::v11::format_specs const&)::{lambda(fmt::v11::basic_appender<char>&)#1})
PUBLIC 753c0 0 fmt::v11::detail::write_escaped_cp<fmt::v11::basic_appender<char>, char>(fmt::v11::basic_appender<char>, fmt::v11::detail::find_escape_result<char> const&)
PUBLIC 756cc 0 fmt::v11::detail::write_codepoint<(unsigned long)2, char, fmt::v11::basic_appender<char> >(fmt::v11::basic_appender<char>, char, unsigned int)
PUBLIC 75844 0 fmt::v11::detail::write_codepoint<(unsigned long)8, char, fmt::v11::basic_appender<char> >(fmt::v11::basic_appender<char>, char, unsigned int)
PUBLIC 759bc 0 fmt::v11::detail::write_padded<char, (fmt::v11::align::type)1, fmt::v11::basic_appender<char>, fmt::v11::detail::write_nonfinite<char, fmt::v11::basic_appender<char> >(fmt::v11::basic_appender<char>, bool, fmt::v11::format_specs, fmt::v11::sign::type)::{lambda(fmt::v11::basic_appender<char>&)#1}>(fmt::v11::basic_appender<char>, fmt::v11::format_specs const&, unsigned long, unsigned long, fmt::v11::detail::write_nonfinite<char, fmt::v11::basic_appender<char> >(fmt::v11::basic_appender<char>, bool, fmt::v11::format_specs, fmt::v11::sign::type)::{lambda(fmt::v11::basic_appender<char>&)#1})
PUBLIC 75bfc 0 fmt::v11::detail::do_write_float<char, fmt::v11::basic_appender<char>, fmt::v11::detail::dragonbox::decimal_fp<float>, fmt::v11::detail::digit_grouping<char> >(fmt::v11::basic_appender<char>, fmt::v11::detail::dragonbox::decimal_fp<float> const&, fmt::v11::format_specs const&, fmt::v11::detail::float_specs, fmt::v11::detail::locale_ref)
PUBLIC 76870 0 fmt::v11::detail::do_write_float<char, fmt::v11::basic_appender<char>, fmt::v11::detail::dragonbox::decimal_fp<float>, fmt::v11::detail::digit_grouping<char> >(fmt::v11::basic_appender<char>, fmt::v11::detail::dragonbox::decimal_fp<float> const&, fmt::v11::format_specs const&, fmt::v11::detail::float_specs, fmt::v11::detail::locale_ref)::{lambda(fmt::v11::basic_appender<char>(fmt::v11::basic_appender<char>))#1}::operator() const
PUBLIC 769c4 0 fmt::v11::detail::digit_grouping<char>::digit_grouping(fmt::v11::detail::locale_ref, bool)
PUBLIC 76c30 0 fmt::v11::detail::digit_grouping<char>::~digit_grouping()
PUBLIC 76c74 0 fmt::v11::detail::write_exponent<char, fmt::v11::basic_appender<char> >(int, fmt::v11::basic_appender<char>)
PUBLIC 76e44 0 _ZN3fmt3v116detail17write_significandIcjTnNSt6__ndk19enable_ifIXsr3std11is_integralIT0_EE5valueEiE4typeELi0EEEPT_S9_S5_iiS8_
PUBLIC 76fc0 0 fmt::v11::detail::digit_grouping<char>::apply<fmt::v11::basic_appender<char>, char>(fmt::v11::basic_appender<char>, fmt::v11::basic_string_view<char>) const
PUBLIC 77378 0 fmt::v11::basic_memory_buffer<int, (unsigned long)500, std::__ndk1::allocator<int> >::grow(fmt::v11::detail::buffer<int>&, unsigned long)
PUBLIC 77418 0 fmt::v11::detail::do_write_float<char, fmt::v11::basic_appender<char>, fmt::v11::detail::dragonbox::decimal_fp<double>, fmt::v11::detail::digit_grouping<char> >(fmt::v11::basic_appender<char>, fmt::v11::detail::dragonbox::decimal_fp<double> const&, fmt::v11::format_specs const&, fmt::v11::detail::float_specs, fmt::v11::detail::locale_ref)
PUBLIC 780cc 0 fmt::v11::detail::do_write_float<char, fmt::v11::basic_appender<char>, fmt::v11::detail::dragonbox::decimal_fp<double>, fmt::v11::detail::digit_grouping<char> >(fmt::v11::basic_appender<char>, fmt::v11::detail::dragonbox::decimal_fp<double> const&, fmt::v11::format_specs const&, fmt::v11::detail::float_specs, fmt::v11::detail::locale_ref)::{lambda(fmt::v11::basic_appender<char>(fmt::v11::basic_appender<char>))#1}::operator() const
PUBLIC 78224 0 _ZN3fmt3v116detail17write_significandIcmTnNSt6__ndk19enable_ifIXsr3std11is_integralIT0_EE5valueEiE4typeELi0EEEPT_S9_S5_iiS8_
PUBLIC 783b4 0 fmt::v11::detail::write_float<char, fmt::v11::basic_appender<char>, long double>(fmt::v11::basic_appender<char>, long double, fmt::v11::format_specs, fmt::v11::detail::locale_ref)
PUBLIC 78eb0 0 fmt::v11::detail::write_padded<char, (fmt::v11::align::type)2, fmt::v11::basic_appender<char>, fmt::v11::detail::write_bytes<char, (fmt::v11::align::type)2, fmt::v11::basic_appender<char> >(fmt::v11::basic_appender<char>, fmt::v11::basic_string_view<char>, fmt::v11::format_specs const&)::{lambda(fmt::v11::basic_appender<char>&)#1}>(fmt::v11::basic_appender<char>, fmt::v11::format_specs const&, unsigned long, unsigned long, fmt::v11::detail::write_bytes<char, (fmt::v11::align::type)2, fmt::v11::basic_appender<char> >(fmt::v11::basic_appender<char>, fmt::v11::basic_string_view<char>, fmt::v11::format_specs const&)::{lambda(fmt::v11::basic_appender<char>&)#1})
PUBLIC 7908c 0 fmt::v11::detail::format_dragon(fmt::v11::detail::basic_fp<unsigned __int128>, unsigned int, int, fmt::v11::detail::buffer<char>&, int&)
PUBLIC 7a4bc 0 fmt::v11::detail::bigint::operator<<=(int)
PUBLIC 7a5e0 0 fmt::v11::detail::bigint::assign_pow10(int)
PUBLIC 7ad3c 0 fmt::v11::detail::bigint::divmod_assign(fmt::v11::detail::bigint const&)
PUBLIC 7b05c 0 fmt::v11::basic_memory_buffer<unsigned int, (unsigned long)32, std::__ndk1::allocator<unsigned int> >::grow(fmt::v11::detail::buffer<unsigned int>&, unsigned long)
PUBLIC 7b0fc 0 fmt::v11::detail::do_write_float<char, fmt::v11::basic_appender<char>, fmt::v11::detail::big_decimal_fp, fmt::v11::detail::digit_grouping<char> >(fmt::v11::basic_appender<char>, fmt::v11::detail::big_decimal_fp const&, fmt::v11::format_specs const&, fmt::v11::detail::float_specs, fmt::v11::detail::locale_ref)
PUBLIC 7bfac 0 fmt::v11::detail::do_write_float<char, fmt::v11::basic_appender<char>, fmt::v11::detail::big_decimal_fp, fmt::v11::detail::digit_grouping<char> >(fmt::v11::basic_appender<char>, fmt::v11::detail::big_decimal_fp const&, fmt::v11::format_specs const&, fmt::v11::detail::float_specs, fmt::v11::detail::locale_ref)::{lambda(fmt::v11::basic_appender<char>(fmt::v11::basic_appender<char>))#1}::operator() const
PUBLIC 7c10c 0 fmt::v11::detail::write_padded<char, (fmt::v11::align::type)2, fmt::v11::basic_appender<char>, fmt::v11::detail::write_ptr<char, fmt::v11::basic_appender<char>, unsigned long>(fmt::v11::basic_appender<char>, unsigned long, fmt::v11::format_specs const*)::{lambda(fmt::v11::basic_appender<char>&)#1}>(fmt::v11::basic_appender<char>, fmt::v11::format_specs const&, unsigned long, unsigned long, fmt::v11::detail::write_ptr<char, fmt::v11::basic_appender<char>, unsigned long>(fmt::v11::basic_appender<char>, unsigned long, fmt::v11::format_specs const*)::{lambda(fmt::v11::basic_appender<char>&)#1})
PUBLIC 7c320 0 fmt::v11::detail::parse_replacement_field<char, fmt::v11::detail::vformat_to<char>(fmt::v11::detail::buffer<char>&, fmt::v11::basic_string_view<char>, fmt::v11::detail::vformat_args<char>::type, fmt::v11::detail::locale_ref)::format_handler&>(char const*, char const*, fmt::v11::detail::vformat_to<char>(fmt::v11::detail::buffer<char>&, fmt::v11::basic_string_view<char>, fmt::v11::detail::vformat_args<char>::type, fmt::v11::detail::locale_ref)::format_handler&)
PUBLIC 7dfbc 0 fmt::v11::detail::parse_dynamic_spec<char>(char const*, char const*, int&, fmt::v11::detail::arg_ref<char>&, fmt::v11::basic_format_parse_context<char>&)
PUBLIC 7e24c 0 fmt::v11::basic_format_args<fmt::v11::context>::get<char>(fmt::v11::basic_string_view<char>) const
PUBLIC 7e3a4 0 fmt::v11::detail::write_int_noinline<char, fmt::v11::basic_appender<char>, unsigned long>(fmt::v11::basic_appender<char>, fmt::v11::detail::write_int_arg<unsigned long>, fmt::v11::format_specs const&, fmt::v11::detail::locale_ref)
PUBLIC 7f1f8 0 fmt::v11::detail::write_int_noinline<char, fmt::v11::basic_appender<char>, unsigned __int128>(fmt::v11::basic_appender<char>, fmt::v11::detail::write_int_arg<unsigned __int128>, fmt::v11::format_specs const&, fmt::v11::detail::locale_ref)
PUBLIC 80260 0 _ZN3fmt3v116detail15format_hexfloatIdTnNSt6__ndk19enable_ifIXntsr16is_double_doubleIT_EE5valueEiE4typeELi0EEEvS5_NS0_12format_specsERNS1_6bufferIcEE
PUBLIC 80780 0 fmt::v11::detail::format_float<double>(double, int, fmt::v11::detail::float_specs, fmt::v11::detail::buffer<char>&)
PUBLIC 81120 0 fmt::v11::detail::write<char, fmt::v11::basic_appender<char> >(fmt::v11::basic_appender<char>, fmt::v11::basic_string_view<char>, fmt::v11::format_specs const&)
PUBLIC 8248c 0 fmt::v11::detail::for_each_codepoint<fmt::v11::detail::compute_width(fmt::v11::basic_string_view<char>)::count_code_points>(fmt::v11::basic_string_view<char>, fmt::v11::detail::compute_width(fmt::v11::basic_string_view<char>)::count_code_points)::{lambda(char const*, char const*)#1}::operator()(char const*, char const*) const
PUBLIC 82644 0 fmt::v11::detail::write_int<fmt::v11::basic_appender<char>, unsigned long, char>(fmt::v11::basic_appender<char>, unsigned long, unsigned int, fmt::v11::format_specs const&, fmt::v11::detail::digit_grouping<char> const&)
PUBLIC 82bc0 0 fmt::v11::detail::write_int<fmt::v11::basic_appender<char>, unsigned __int128, char>(fmt::v11::basic_appender<char>, unsigned __int128, unsigned int, fmt::v11::format_specs const&, fmt::v11::detail::digit_grouping<char> const&)
PUBLIC 83240 0 <.plt ELF section in hiimjustin000.manager_viewer.android64.so>
STACK CFI INIT 16be0 10 .cfa: sp 0 +
STACK CFI INIT 16bf0 8 .cfa: sp 0 +
STACK CFI INIT 16bf8 8 .cfa: sp 0 +
STACK CFI INIT 16c00 14 .cfa: sp 0 +
STACK CFI INIT 16c14 1c .cfa: sp 0 +
STACK CFI INIT 16c30 10 .cfa: sp 0 +
STACK CFI INIT 16c40 30 .cfa: sp 0 +
STACK CFI INIT 16c70 98 .cfa: sp 0 +
STACK CFI INIT 16d08 59c .cfa: sp 0 +
STACK CFI INIT 172a4 8c .cfa: sp 0 +
STACK CFI INIT 17330 30 .cfa: sp 0 +
STACK CFI INIT 177e0 1c .cfa: sp 0 +
STACK CFI INIT 177fc 4 .cfa: sp 0 +
STACK CFI INIT 17800 24 .cfa: sp 0 +
STACK CFI 17804 .cfa: sp 16 +
STACK CFI 17808 .cfa: x29 16 + .ra: .cfa -8 + ^ x29: .cfa -16 + ^
STACK CFI 1781c .cfa: sp 16 +
STACK CFI 17820 .cfa: sp 0 +
STACK CFI INIT 17824 10 .cfa: sp 0 +
STACK CFI INIT 17834 4 .cfa: sp 0 +
STACK CFI INIT 17838 4 .cfa: sp 0 +
STACK CFI INIT 17a54 1c .cfa: sp 0 +
STACK CFI INIT 17a70 c .cfa: sp 0 +
STACK CFI INIT 17a7c 34 .cfa: sp 0 +
STACK CFI 17a80 .cfa: sp 32 +
STACK CFI 17a88 .cfa: x29 32 + x19: .cfa -16 + ^ .ra: .cfa -24 + ^ x29: .cfa -32 + ^
STACK CFI INIT 17ab0 10 .cfa: sp 0 +
STACK CFI 17ab4 .cfa: sp 16 +
STACK CFI 17ab8 .cfa: x29 16 + .ra: .cfa -8 + ^ x29: .cfa -16 + ^
STACK CFI INIT 17ac0 e8 .cfa: sp 0 +
STACK CFI 17ac4 .cfa: sp 32 +
STACK CFI 17acc .cfa: x29 32 + x19: .cfa -8 + ^ x20: .cfa -16 + ^ .ra: .cfa -24 + ^ x29: .cfa -32 + ^
STACK CFI 17b0c .cfa: sp 32 +
STACK CFI 17b14 .cfa: sp 0 +
STACK CFI 17b18 .cfa: x29 32 +
STACK CFI 17b54 .cfa: sp 32 +
STACK CFI 17b5c .cfa: sp 0 +
STACK CFI 17b60 .cfa: x29 32 +
STACK CFI 17b80 .cfa: sp 32 +
STACK CFI 17b88 .cfa: sp 0 +
STACK CFI 17b8c .cfa: x29 32 +
STACK CFI 17b9c .cfa: sp 32 +
STACK CFI 17ba4 .cfa: sp 0 +
STACK CFI INIT 17ba8 80 .cfa: sp 0 +
STACK CFI 17bac .cfa: sp 48 +
STACK CFI 17bb8 .cfa: x29 48 + x19: .cfa -8 + ^ x20: .cfa -16 + ^ x21: .cfa -24 + ^ x22: .cfa -32 + ^ .ra: .cfa -40 + ^ x29: .cfa -48 + ^
STACK CFI 17bd0 .cfa: sp 48 +
STACK CFI 17bdc .cfa: sp 0 +
STACK CFI 17be0 .cfa: x29 48 +
STACK CFI 17c10 .cfa: sp 48 +
STACK CFI 17c1c .cfa: sp 0 +
STACK CFI 17c20 .cfa: x29 48 +
STACK CFI INIT 17c28 14 .cfa: sp 0 +
STACK CFI 17c2c .cfa: sp 16 +
STACK CFI 17c30 .cfa: x29 16 + .ra: .cfa -8 + ^ x29: .cfa -16 + ^
STACK CFI INIT 17c8c 30 .cfa: sp 0 +
STACK CFI 17c90 .cfa: sp 32 +
STACK CFI 17c98 .cfa: x29 32 + x19: .cfa -16 + ^ .ra: .cfa -24 + ^ x29: .cfa -32 + ^
STACK CFI 17cb0 .cfa: sp 32 +
STACK CFI 17cb8 .cfa: sp 0 +
STACK CFI INIT 17cbc ac .cfa: sp 0 +
STACK CFI 17cc0 .cfa: sp 64 +
STACK CFI 17cd0 .cfa: x29 64 + x19: .cfa -8 + ^ x20: .cfa -16 + ^ x21: .cfa -24 + ^ x22: .cfa -32 + ^ x23: .cfa -48 + ^ .ra: .cfa -56 + ^ x29: .cfa -64 + ^
STACK CFI 17d4c .cfa: sp 64 +
STACK CFI 17d5c .cfa: sp 0 +
STACK CFI 17d60 .cfa: x29 64 +
STACK CFI INIT 17d68 110 .cfa: sp 0 +
STACK CFI 17d6c .cfa: sp 64 +
STACK CFI 17d7c .cfa: x29 64 + x19: .cfa -8 + ^ x20: .cfa -16 + ^ x21: .cfa -24 + ^ x22: .cfa -32 + ^ x23: .cfa -40 + ^ x24: .cfa -48 + ^ .ra: .cfa -56 + ^ x29: .cfa -64 + ^
STACK CFI 17e5c .cfa: sp 64 +
STACK CFI 17e6c .cfa: sp 0 +
STACK CFI 17e70 .cfa: x29 64 +
STACK CFI INIT 1817c 4 .cfa: sp 0 +
STACK CFI INIT 18180 4 .cfa: sp 0 +
STACK CFI INIT 18184 24 .cfa: sp 0 +
STACK CFI 18188 .cfa: sp 16 +
STACK CFI 1818c .cfa: x29 16 + .ra: .cfa -8 + ^ x29: .cfa -16 + ^
STACK CFI 181a0 .cfa: sp 16 +
STACK CFI 181a4 .cfa: sp 0 +
STACK CFI INIT 181a8 10 .cfa: sp 0 +
STACK CFI INIT 181b8 4 .cfa: sp 0 +
STACK CFI INIT 181bc 4 .cfa: sp 0 +
STACK CFI INIT 18670 1c .cfa: sp 0 +
STACK CFI INIT 1868c c .cfa: sp 0 +
STACK CFI INIT 189a0 50 .cfa: sp 0 +
STACK CFI 189a4 .cfa: sp 32 +
STACK CFI 189ac .cfa: x29 32 + x19: .cfa -16 + ^ .ra: .cfa -24 + ^ x29: .cfa -32 + ^
STACK CFI 189c4 .cfa: sp 32 +
STACK CFI 189cc .cfa: sp 0 +
STACK CFI 189d0 .cfa: x29 32 +
STACK CFI 189e4 .cfa: sp 32 +
STACK CFI 189ec .cfa: sp 0 +
STACK CFI INIT 18a64 7c .cfa: sp 0 +
STACK CFI 18a68 .cfa: sp 48 +
STACK CFI 18a74 .cfa: x29 48 + x19: .cfa -8 + ^ x20: .cfa -16 + ^ x21: .cfa -32 + ^ .ra: .cfa -40 + ^ x29: .cfa -48 + ^
STACK CFI 18ac0 .cfa: sp 48 +
STACK CFI 18acc .cfa: sp 0 +
STACK CFI 18ad0 .cfa: sp 48 +
STACK CFI 18adc .cfa: sp 0 +
STACK CFI INIT 18ae0 4 .cfa: sp 0 +
STACK CFI INIT 18c38 34 .cfa: sp 0 +
STACK CFI 18c3c .cfa: sp 16 +
STACK CFI 18c40 .cfa: x29 16 + .ra: .cfa -8 + ^ x29: .cfa -16 + ^
STACK CFI INIT 18d98 80 .cfa: sp 0 +
STACK CFI 18d9c .cfa: sp 48 +
STACK CFI 18da8 .cfa: x29 48 + x19: .cfa -8 + ^ x20: .cfa -16 + ^ x21: .cfa -32 + ^ .ra: .cfa -40 + ^ x29: .cfa -48 + ^
STACK CFI 18e08 .cfa: sp 48 +
STACK CFI 18e14 .cfa: sp 0 +
STACK CFI INIT 18e18 24 .cfa: sp 0 +
STACK CFI 18e1c .cfa: sp 32 +
STACK CFI 18e24 .cfa: x29 32 + x19: .cfa -16 + ^ .ra: .cfa -24 + ^ x29: .cfa -32 + ^
STACK CFI 18e30 .cfa: sp 32 +
STACK CFI 18e38 .cfa: sp 0 +
STACK CFI INIT 19334 148 .cfa: sp 0 +
STACK CFI 19338 .cfa: sp 48 +
STACK CFI 19344 .cfa: x29 48 + x19: .cfa -8 + ^ x20: .cfa -16 + ^ x21: .cfa -32 + ^ .ra: .cfa -40 + ^ x29: .cfa -48 + ^
STACK CFI 1946c .cfa: sp 48 +
STACK CFI 19478 .cfa: sp 0 +
STACK CFI INIT 196a4 68 .cfa: sp 0 +
STACK CFI 196a8 .cfa: sp 32 +
STACK CFI 196b0 .cfa: x29 32 + x19: .cfa -8 + ^ x20: .cfa -16 + ^ .ra: .cfa -24 + ^ x29: .cfa -32 + ^
STACK CFI 196c8 .cfa: sp 32 +
STACK CFI 196d0 .cfa: sp 0 +
STACK CFI 196d4 .cfa: x29 32 +
STACK CFI 19700 .cfa: sp 32 +
STACK CFI 19708 .cfa: sp 0 +
STACK CFI INIT 1970c 14 .cfa: sp 0 +
STACK CFI 19710 .cfa: sp 16 +
STACK CFI 19714 .cfa: x29 16 + .ra: .cfa -8 + ^ x29: .cfa -16 + ^
STACK CFI INIT 19720 4 .cfa: sp 0 +
STACK CFI INIT 19724 14 .cfa: sp 0 +
STACK CFI INIT 19738 120 .cfa: sp 0 +
STACK CFI 1973c .cfa: sp 64 +
STACK CFI 1974c .cfa: x29 64 + x19: .cfa -8 + ^ x20: .cfa -16 + ^ x21: .cfa -24 + ^ x22: .cfa -32 + ^ x23: .cfa -40 + ^ x24: .cfa -48 + ^ .ra: .cfa -56 + ^ x29: .cfa -64 + ^
STACK CFI 19844 .cfa: sp 64 +
STACK CFI 19854 .cfa: sp 0 +
STACK CFI INIT 19858 d4 .cfa: sp 0 +
STACK CFI 1985c .cfa: sp 48 +
STACK CFI 19868 .cfa: x29 48 + x19: .cfa -8 + ^ x20: .cfa -16 + ^ x21: .cfa -32 + ^ .ra: .cfa -40 + ^ x29: .cfa -48 + ^
STACK CFI 198f8 .cfa: sp 48 +
STACK CFI 19904 .cfa: sp 0 +
STACK CFI 19908 .cfa: x29 48 +
STACK CFI INIT 1992c 3c8 .cfa: sp 0 +
STACK CFI INIT 19cf4 8c .cfa: sp 0 +
STACK CFI 19cfc .cfa: sp 32 +
STACK CFI 19d04 .cfa: x29 32 + x19: .cfa -8 + ^ x20: .cfa -16 + ^ .ra: .cfa -24 + ^ x29: .cfa -32 + ^
STACK CFI 19d4c .cfa: sp 32 +
STACK CFI 19d54 .cfa: sp 0 +
STACK CFI 19d5c .cfa: x29 32 +
STACK CFI INIT 19f74 9c .cfa: sp 0 +
STACK CFI INIT 1a010 50 .cfa: sp 0 +
STACK CFI 1a014 .cfa: sp 32 +
STACK CFI 1a01c .cfa: x29 32 + x19: .cfa -16 + ^ .ra: .cfa -24 + ^ x29: .cfa -32 + ^
STACK CFI 1a034 .cfa: sp 32 +
STACK CFI 1a03c .cfa: sp 0 +
STACK CFI 1a040 .cfa: x29 32 +
STACK CFI 1a054 .cfa: sp 32 +
STACK CFI 1a05c .cfa: sp 0 +
STACK CFI INIT 1a060 64 .cfa: sp 0 +
STACK CFI 1a064 .cfa: sp 32 +
STACK CFI 1a06c .cfa: x29 32 + x19: .cfa -16 + ^ .ra: .cfa -24 + ^ x29: .cfa -32 + ^
STACK CFI 1a098 .cfa: sp 32 +
STACK CFI 1a0a0 .cfa: sp 0 +
STACK CFI 1a0a4 .cfa: x29 32 +
STACK CFI 1a0b8 .cfa: sp 32 +
STACK CFI 1a0c0 .cfa: sp 0 +
STACK CFI INIT 1a204 178 .cfa: sp 0 +
STACK CFI 1a208 .cfa: sp 80 +
STACK CFI 1a21c .cfa: x29 80 + x19: .cfa -8 + ^ x20: .cfa -16 + ^ x21: .cfa -24 + ^ x22: .cfa -32 + ^ x23: .cfa -40 + ^ x24: .cfa -48 + ^ x25: .cfa -56 + ^ x26: .cfa -64 + ^ .ra: .cfa -72 + ^ x29: .cfa -80 + ^
STACK CFI 1a364 .cfa: sp 80 +
STACK CFI 1a378 .cfa: sp 0 +
STACK CFI INIT 1a37c 1b0 .cfa: sp 0 +
STACK CFI INIT 1ab94 14 .cfa: sp 0 +
STACK CFI 1ab98 .cfa: sp 16 +
STACK CFI 1ab9c .cfa: x29 16 + .ra: .cfa -8 + ^ x29: .cfa -16 + ^
STACK CFI INIT 1aba8 94 .cfa: sp 0 +
STACK CFI 1abac .cfa: sp 32 +
STACK CFI 1abb4 .cfa: x29 32 + x19: .cfa -16 + ^ .ra: .cfa -24 + ^ x29: .cfa -32 + ^
STACK CFI 1ac08 .cfa: sp 32 +
STACK CFI 1ac10 .cfa: sp 0 +
STACK CFI 1ac14 .cfa: x29 32 +
STACK CFI 1ac24 .cfa: sp 32 +
STACK CFI 1ac2c .cfa: sp 0 +
STACK CFI 1ac30 .cfa: sp 32 +
STACK CFI 1ac38 .cfa: sp 0 +
STACK CFI INIT 1b1fc 3c .cfa: sp 0 +
STACK CFI 1b200 .cfa: sp 32 +
STACK CFI 1b208 .cfa: x29 32 + x19: .cfa -16 + ^ .ra: .cfa -24 + ^ x29: .cfa -32 + ^
STACK CFI 1b214 .cfa: sp 32 +
STACK CFI 1b21c .cfa: sp 0 +
STACK CFI 1b220 .cfa: x29 32 +
STACK CFI 1b22c .cfa: sp 32 +
STACK CFI 1b234 .cfa: sp 0 +
STACK CFI INIT 1b288 15c .cfa: sp 0 +
STACK CFI 1b28c .cfa: sp 48 +
STACK CFI 1b298 .cfa: x29 48 + x19: .cfa -8 + ^ x20: .cfa -16 + ^ x21: .cfa -32 + ^ .ra: .cfa -40 + ^ x29: .cfa -48 + ^
STACK CFI 1b3d0 .cfa: sp 48 +
STACK CFI 1b3dc .cfa: sp 0 +
STACK CFI 1b3e0 .cfa: x29 48 +
STACK CFI INIT 1b3e4 10c .cfa: sp 0 +
STACK CFI 1b3e8 .cfa: sp 64 +
STACK CFI 1b3f8 .cfa: x29 48 + x19: .cfa -8 + ^ x20: .cfa -16 + ^ x21: .cfa -24 + ^ x22: .cfa -32 + ^ .ra: .cfa -40 + ^ x29: .cfa -48 + ^
STACK CFI 1b4d8 .cfa: sp 64 +
STACK CFI 1b4e8 .cfa: sp 0 +
STACK CFI 1b4ec .cfa: x29 48 +
STACK CFI INIT 1bf8c 4 .cfa: sp 0 +
STACK CFI INIT 1bf90 24 .cfa: sp 0 +
STACK CFI 1bf94 .cfa: sp 16 +
STACK CFI 1bf98 .cfa: x29 16 + .ra: .cfa -8 + ^ x29: .cfa -16 + ^
STACK CFI 1bfac .cfa: sp 16 +
STACK CFI 1bfb0 .cfa: sp 0 +
STACK CFI INIT 1bfb4 10 .cfa: sp 0 +
STACK CFI INIT 1bfc4 4 .cfa: sp 0 +
STACK CFI INIT 1bfc8 4 .cfa: sp 0 +
STACK CFI INIT 1bfcc 4 .cfa: sp 0 +
STACK CFI INIT 1bfd0 1c .cfa: sp 0 +
STACK CFI INIT 1bfec c .cfa: sp 0 +
STACK CFI INIT 1c190 34 .cfa: sp 0 +
STACK CFI 1c194 .cfa: sp 16 +
STACK CFI 1c198 .cfa: x29 16 + .ra: .cfa -8 + ^ x29: .cfa -16 + ^
STACK CFI INIT 1c1c4 24 .cfa: sp 0 +
STACK CFI 1c1c8 .cfa: sp 32 +
STACK CFI 1c1d0 .cfa: x29 32 + x19: .cfa -16 + ^ .ra: .cfa -24 + ^ x29: .cfa -32 + ^
STACK CFI 1c1dc .cfa: sp 32 +
STACK CFI 1c1e4 .cfa: sp 0 +
STACK CFI INIT 1d714 1c .cfa: sp 0 +
STACK CFI INIT 1d730 1c .cfa: sp 0 +
STACK CFI INIT 1d74c 1c .cfa: sp 0 +
STACK CFI INIT 1d768 1c .cfa: sp 0 +
STACK CFI INIT 1d784 1c .cfa: sp 0 +
STACK CFI INIT 1db70 4 .cfa: sp 0 +
STACK CFI INIT 1e3ac 4 .cfa: sp 0 +
STACK CFI INIT 1eab4 4 .cfa: sp 0 +
STACK CFI INIT 1f12c 4 .cfa: sp 0 +
STACK CFI INIT 1f734 4 .cfa: sp 0 +
STACK CFI INIT 1f85c 158 .cfa: sp 0 +
STACK CFI 1f860 .cfa: sp 144 +
STACK CFI 1f880 .cfa: x29 96 + x19: .cfa -8 + ^ x20: .cfa -16 + ^ x21: .cfa -24 + ^ x22: .cfa -32 + ^ x23: .cfa -40 + ^ x24: .cfa -48 + ^ x25: .cfa -56 + ^ x26: .cfa -64 + ^ x27: .cfa -72 + ^ x28: .cfa -80 + ^ .ra: .cfa -88 + ^ x29: .cfa -96 + ^ v8: .cfa -112 + ^
STACK CFI 1f98c .cfa: sp 144 +
STACK CFI 1f9ac .cfa: sp 0 +
STACK CFI 1f9b0 .cfa: x29 96 +
STACK CFI INIT 1f9b4 164 .cfa: sp 0 +
STACK CFI INIT 1fb18 2dc .cfa: sp 0 +
STACK CFI 1fb1c .cfa: sp 96 +
STACK CFI 1fb38 .cfa: x29 72 + x19: .cfa -8 + ^ x20: .cfa -16 + ^ x21: .cfa -24 + ^ x22: .cfa -32 + ^ x23: .cfa -40 + ^ x24: .cfa -48 + ^ x25: .cfa -56 + ^ .ra: .cfa -64 + ^ x29: .cfa -72 + ^ v8: .cfa -80 + ^
STACK CFI 1fdd0 .cfa: sp 96 +
STACK CFI 1fdec .cfa: sp 0 +
STACK CFI 1fdf0 .cfa: x29 72 +
STACK CFI INIT 1fdf4 1cc .cfa: sp 0 +
STACK CFI 1fe04 .cfa: sp 64 +
STACK CFI 1fe14 .cfa: x29 48 + x19: .cfa -8 + ^ x20: .cfa -16 + ^ x21: .cfa -24 + ^ x22: .cfa -32 + ^ .ra: .cfa -40 + ^ x29: .cfa -48 + ^ v8: .cfa -56 + ^ v9: .cfa -64 + ^
STACK CFI 1ffac .cfa: sp 64 +
STACK CFI 1ffbc .cfa: sp 0 +
STACK CFI INIT 1ffc0 3d4 .cfa: sp 0 +
STACK CFI 1ffc4 .cfa: sp 96 +
STACK CFI 1ffdc .cfa: x29 80 + x19: .cfa -8 + ^ x20: .cfa -16 + ^ x21: .cfa -24 + ^ x22: .cfa -32 + ^ x23: .cfa -40 + ^ x24: .cfa -48 + ^ x25: .cfa -64 + ^ .ra: .cfa -72 + ^ x29: .cfa -80 + ^
STACK CFI 202ec .cfa: sp 96 +
STACK CFI 20304 .cfa: sp 0 +
STACK CFI 20308 .cfa: x29 80 +
STACK CFI INIT 20394 98 .cfa: sp 0 +
STACK CFI 20398 .cfa: sp 304 +
STACK CFI 203a4 .cfa: x29 32 + x19: .cfa -8 + ^ x28: .cfa -16 + ^ .ra: .cfa -24 + ^ x29: .cfa -32 + ^
STACK CFI 20418 .cfa: sp 304 +
STACK CFI 20424 .cfa: sp 0 +
STACK CFI 20428 .cfa: x29 32 +
STACK CFI INIT 2042c d0 .cfa: sp 0 +
STACK CFI 20430 .cfa: sp 32 +
STACK CFI 20438 .cfa: x29 32 + x19: .cfa -16 + ^ .ra: .cfa -24 + ^ x29: .cfa -32 + ^
STACK CFI 204f0 .cfa: sp 32 +
STACK CFI 204f8 .cfa: sp 0 +
STACK CFI INIT 204fc 9c .cfa: sp 0 +
STACK CFI INIT 20598 bc .cfa: sp 0 +
STACK CFI 2059c .cfa: sp 304 +
STACK CFI 205ac .cfa: x29 48 + x19: .cfa -8 + ^ x20: .cfa -16 + ^ x21: .cfa -24 + ^ x28: .cfa -32 + ^ .ra: .cfa -40 + ^ x29: .cfa -48 + ^
STACK CFI 2063c .cfa: sp 304 +
STACK CFI 2064c .cfa: sp 0 +
STACK CFI 20650 .cfa: x29 48 +
STACK CFI INIT 20654 1e4 .cfa: sp 0 +
STACK CFI 20658 .cfa: sp 112 +
STACK CFI 2066c .cfa: x29 64 + x19: .cfa -8 + ^ x20: .cfa -16 + ^ x21: .cfa -24 + ^ x22: .cfa -32 + ^ x23: .cfa -40 + ^ x24: .cfa -48 + ^ .ra: .cfa -56 + ^ x29: .cfa -64 + ^
STACK CFI 20758 .cfa: sp 112 +
STACK CFI 2076c .cfa: sp 0 +
STACK CFI 20770 .cfa: x29 64 +
STACK CFI INIT 20838 284 .cfa: sp 0 +
STACK CFI 2083c .cfa: sp 80 +
STACK CFI 20850 .cfa: x29 80 + x19: .cfa -8 + ^ x20: .cfa -16 + ^ x21: .cfa -24 + ^ x22: .cfa -32 + ^ x23: .cfa -40 + ^ x24: .cfa -48 + ^ x25: .cfa -64 + ^ .ra: .cfa -72 + ^ x29: .cfa -80 + ^
STACK CFI 2089c .cfa: sp 80 +
STACK CFI 208b0 .cfa: sp 0 +
STACK CFI 208b4 .cfa: x29 80 +
STACK CFI 209e8 .cfa: sp 80 +
STACK CFI 209fc .cfa: sp 0 +
STACK CFI 20a00 .cfa: x29 80 +
STACK CFI 20aa4 .cfa: sp 80 +
STACK CFI 20ab8 .cfa: sp 0 +
STACK CFI INIT 20abc ec .cfa: sp 0 +
STACK CFI 20ac0 .cfa: sp 64 +
STACK CFI 20ad0 .cfa: x29 64 + x19: .cfa -8 + ^ x20: .cfa -16 + ^ x21: .cfa -24 + ^ x22: .cfa -32 + ^ x23: .cfa -48 + ^ .ra: .cfa -56 + ^ x29: .cfa -64 + ^
STACK CFI 20b6c .cfa: sp 64 +
STACK CFI 20b7c .cfa: sp 0 +
STACK CFI 20b80 .cfa: x29 64 +
STACK CFI INIT 20ba8 1a8 .cfa: sp 0 +
STACK CFI 20bb8 .cfa: sp 48 +
STACK CFI 20bc4 .cfa: x29 48 + x19: .cfa -8 + ^ x20: .cfa -16 + ^ x21: .cfa -24 + ^ x22: .cfa -32 + ^ .ra: .cfa -40 + ^ x29: .cfa -48 + ^
STACK CFI 20d40 .cfa: sp 48 +
STACK CFI 20d4c .cfa: sp 0 +
STACK CFI INIT 20d50 94 .cfa: sp 0 +
STACK CFI 20d54 .cfa: sp 288 +
STACK CFI 20d60 .cfa: x29 32 + x19: .cfa -8 + ^ x28: .cfa -16 + ^ .ra: .cfa -24 + ^ x29: .cfa -32 + ^
STACK CFI 20dd0 .cfa: sp 288 +
STACK CFI 20ddc .cfa: sp 0 +
STACK CFI 20de0 .cfa: x29 32 +
STACK CFI INIT 20de4 130 .cfa: sp 0 +
STACK CFI 20de8 .cfa: sp 144 +
STACK CFI 20dfc .cfa: x29 64 + x19: .cfa -8 + ^ x20: .cfa -16 + ^ x21: .cfa -24 + ^ x22: .cfa -32 + ^ x23: .cfa -40 + ^ x24: .cfa -48 + ^ .ra: .cfa -56 + ^ x29: .cfa -64 + ^
STACK CFI 20ef8 .cfa: sp 144 +
STACK CFI 20f0c .cfa: sp 0 +
STACK CFI 20f10 .cfa: x29 64 +
STACK CFI INIT 20f14 144 .cfa: sp 0 +
STACK CFI 20f20 .cfa: sp 64 +
STACK CFI 20f30 .cfa: x29 64 + x19: .cfa -8 + ^ x20: .cfa -16 + ^ x21: .cfa -24 + ^ x22: .cfa -32 + ^ x23: .cfa -48 + ^ .ra: .cfa -56 + ^ x29: .cfa -64 + ^
STACK CFI 21044 .cfa: sp 64 +
STACK CFI 21054 .cfa: sp 0 +
STACK CFI INIT 21058 b8 .cfa: sp 0 +
STACK CFI INIT 21110 200 .cfa: sp 0 +
STACK CFI 21114 .cfa: sp 80 +
STACK CFI 21128 .cfa: x29 64 + x19: .cfa -8 + ^ x20: .cfa -16 + ^ x21: .cfa -24 + ^ x22: .cfa -32 + ^ x23: .cfa -40 + ^ x24: .cfa -48 + ^ .ra: .cfa -56 + ^ x29: .cfa -64 + ^
STACK CFI 211cc .cfa: sp 80 +
STACK CFI 211e0 .cfa: sp 0 +
STACK CFI 211e4 .cfa: x29 64 +
STACK CFI INIT 21310 24c .cfa: sp 0 +
STACK CFI 21314 .cfa: sp 128 +
STACK CFI 21330 .cfa: x29 72 + x19: .cfa -8 + ^ x20: .cfa -16 + ^ x21: .cfa -24 + ^ x22: .cfa -32 + ^ x23: .cfa -40 + ^ x24: .cfa -48 + ^ x25: .cfa -56 + ^ .ra: .cfa -64 + ^ x29: .cfa -72 + ^ v8: .cfa -80 + ^
STACK CFI 214e0 .cfa: sp 128 +
STACK CFI 214fc .cfa: sp 0 +
STACK CFI 21500 .cfa: x29 72 +
STACK CFI INIT 2155c 1d8 .cfa: sp 0 +
STACK CFI 21560 .cfa: sp 112 +
STACK CFI 2157c .cfa: x29 96 + x19: .cfa -8 + ^ x20: .cfa -16 + ^ x21: .cfa -24 + ^ x22: .cfa -32 + ^ x23: .cfa -40 + ^ x24: .cfa -48 + ^ x25: .cfa -56 + ^ x26: .cfa -64 + ^ x27: .cfa -72 + ^ x28: .cfa -80 + ^ .ra: .cfa -88 + ^ x29: .cfa -96 + ^ v8: .cfa -112 + ^
STACK CFI 21714 .cfa: sp 112 +
STACK CFI 21730 .cfa: sp 0 +
STACK CFI INIT 21734 1e4 .cfa: sp 0 +
STACK CFI 21738 .cfa: sp 144 +
STACK CFI 21754 .cfa: x29 80 + x19: .cfa -8 + ^ x20: .cfa -16 + ^ x21: .cfa -24 + ^ x22: .cfa -32 + ^ x23: .cfa -40 + ^ x24: .cfa -48 + ^ x25: .cfa -64 + ^ .ra: .cfa -72 + ^ x29: .cfa -80 + ^ v8: .cfa -88 + ^ v9: .cfa -96 + ^
STACK CFI 218d0 .cfa: sp 144 +
STACK CFI 218ec .cfa: sp 0 +
STACK CFI 218f0 .cfa: x29 80 +
STACK CFI INIT 21918 430 .cfa: sp 0 +
STACK CFI 2191c .cfa: sp 192 +
STACK CFI 2193c .cfa: x29 88 + x19: .cfa -8 + ^ x20: .cfa -16 + ^ x21: .cfa -24 + ^ x22: .cfa -32 + ^ x23: .cfa -40 + ^ x24: .cfa -48 + ^ x25: .cfa -56 + ^ x26: .cfa -64 + ^ x27: .cfa -72 + ^ .ra: .cfa -80 + ^ x29: .cfa -88 + ^ v8: .cfa -96 + ^
STACK CFI 21d20 .cfa: sp 192 +
STACK CFI 21d40 .cfa: sp 0 +
STACK CFI 21d44 .cfa: x29 88 +
STACK CFI INIT 21d48 424 .cfa: sp 0 +
STACK CFI 21d4c .cfa: sp 208 +
STACK CFI 21d78 .cfa: x29 96 + x19: .cfa -8 + ^ x20: .cfa -16 + ^ x21: .cfa -24 + ^ x22: .cfa -32 + ^ x23: .cfa -40 + ^ x24: .cfa -48 + ^ x25: .cfa -56 + ^ x26: .cfa -64 + ^ x27: .cfa -72 + ^ x28: .cfa -80 + ^ .ra: .cfa -88 + ^ x29: .cfa -96 + ^ v8: .cfa -104 + ^ v9: .cfa -112 + ^ v10: .cfa -120 + ^ v11: .cfa -128 + ^ v12: .cfa -136 + ^ v13: .cfa -144 + ^ v14: .cfa -152 + ^ v15: .cfa -160 + ^
STACK CFI 22138 .cfa: sp 208 +
STACK CFI 22164 .cfa: sp 0 +
STACK CFI 22168 .cfa: x29 96 +
STACK CFI INIT 2216c 260 .cfa: sp 0 +
STACK CFI 22170 .cfa: sp 176 +
STACK CFI 22194 .cfa: x29 64 + x19: .cfa -8 + ^ x20: .cfa -16 + ^ x21: .cfa -24 + ^ x22: .cfa -32 + ^ x23: .cfa -48 + ^ .ra: .cfa -56 + ^ x29: .cfa -64 + ^ v8: .cfa -72 + ^ v9: .cfa -80 + ^ v10: .cfa -88 + ^ v11: .cfa -96 + ^ v12: .cfa -104 + ^ v13: .cfa -112 + ^ v14: .cfa -120 + ^ v15: .cfa -128 + ^
STACK CFI 223a0 .cfa: sp 176 +
STACK CFI 223c4 .cfa: sp 0 +
STACK CFI 223c8 .cfa: x29 64 +
STACK CFI INIT 223cc 20c .cfa: sp 0 +
STACK CFI 223d0 .cfa: sp 160 +
STACK CFI 223f0 .cfa: x29 48 + x19: .cfa -8 + ^ x20: .cfa -16 + ^ x21: .cfa -32 + ^ .ra: .cfa -40 + ^ x29: .cfa -48 + ^ v8: .cfa -56 + ^ v9: .cfa -64 + ^ v10: .cfa -72 + ^ v11: .cfa -80 + ^ v12: .cfa -88 + ^ v13: .cfa -96 + ^ v14: .cfa -104 + ^ v15: .cfa -112 + ^
STACK CFI 225b0 .cfa: sp 160 +
STACK CFI 225d0 .cfa: sp 0 +
STACK CFI 225d4 .cfa: x29 48 +
STACK CFI INIT 225d8 2fc .cfa: sp 0 +
STACK CFI 225dc .cfa: sp 96 +
STACK CFI 225f4 .cfa: x29 56 + x19: .cfa -8 + ^ x20: .cfa -16 + ^ x21: .cfa -24 + ^ x22: .cfa -32 + ^ x23: .cfa -40 + ^ .ra: .cfa -48 + ^ x29: .cfa -56 + ^ v8: .cfa -64 + ^
STACK CFI 228b4 .cfa: sp 96 +
STACK CFI 228cc .cfa: sp 0 +
STACK CFI 228d0 .cfa: x29 56 +
STACK CFI INIT 25b10 a4 .cfa: sp 0 +
STACK CFI INIT 25bb4 a0 .cfa: sp 0 +
STACK CFI INIT 25c54 a0 .cfa: sp 0 +
STACK CFI INIT 25cf4 a4 .cfa: sp 0 +
STACK CFI INIT 25d98 a0 .cfa: sp 0 +
STACK CFI INIT 25e38 a4 .cfa: sp 0 +
STACK CFI INIT 25edc a0 .cfa: sp 0 +
STACK CFI INIT 25f7c a0 .cfa: sp 0 +
STACK CFI INIT 2601c a4 .cfa: sp 0 +
STACK CFI INIT 260c0 a0 .cfa: sp 0 +
STACK CFI INIT 26160 164 .cfa: sp 0 +
STACK CFI 26164 .cfa: sp 32 +
STACK CFI 2616c .cfa: x29 32 + x19: .cfa -8 + ^ x20: .cfa -16 + ^ .ra: .cfa -24 + ^ x29: .cfa -32 + ^
STACK CFI 26254 .cfa: sp 32 +
STACK CFI 2625c .cfa: sp 0 +
STACK CFI 26260 .cfa: x29 32 +
STACK CFI 262b8 .cfa: sp 32 +
STACK CFI 262c0 .cfa: sp 0 +
STACK CFI INIT 262c4 a0 .cfa: sp 0 +
STACK CFI INIT 26364 a0 .cfa: sp 0 +
STACK CFI INIT 26404 a0 .cfa: sp 0 +
STACK CFI INIT 264a4 164 .cfa: sp 0 +
STACK CFI 264a8 .cfa: sp 32 +
STACK CFI 264b0 .cfa: x29 32 + x19: .cfa -8 + ^ x20: .cfa -16 + ^ .ra: .cfa -24 + ^ x29: .cfa -32 + ^
STACK CFI 26598 .cfa: sp 32 +
STACK CFI 265a0 .cfa: sp 0 +
STACK CFI 265a4 .cfa: x29 32 +
STACK CFI 265fc .cfa: sp 32 +
STACK CFI 26604 .cfa: sp 0 +
STACK CFI INIT 26608 a0 .cfa: sp 0 +
STACK CFI INIT 266a8 a0 .cfa: sp 0 +
STACK CFI INIT 26748 164 .cfa: sp 0 +
STACK CFI 2674c .cfa: sp 32 +
STACK CFI 26754 .cfa: x29 32 + x19: .cfa -8 + ^ x20: .cfa -16 + ^ .ra: .cfa -24 + ^ x29: .cfa -32 + ^
STACK CFI 2683c .cfa: sp 32 +
STACK CFI 26844 .cfa: sp 0 +
STACK CFI 26848 .cfa: x29 32 +
STACK CFI 268a0 .cfa: sp 32 +
STACK CFI 268a8 .cfa: sp 0 +
STACK CFI INIT 268ac a0 .cfa: sp 0 +
STACK CFI INIT 2694c a0 .cfa: sp 0 +
STACK CFI INIT 269ec a0 .cfa: sp 0 +
STACK CFI INIT 26a8c a0 .cfa: sp 0 +
STACK CFI INIT 26b2c a0 .cfa: sp 0 +
STACK CFI INIT 26bcc a0 .cfa: sp 0 +
STACK CFI INIT 26c6c a0 .cfa: sp 0 +
STACK CFI INIT 26d0c a0 .cfa: sp 0 +
STACK CFI INIT 26dac a4 .cfa: sp 0 +
STACK CFI INIT 26e50 a0 .cfa: sp 0 +
STACK CFI INIT 26ef0 a0 .cfa: sp 0 +
STACK CFI INIT 26f90 a0 .cfa: sp 0 +
STACK CFI INIT 27030 160 .cfa: sp 0 +
STACK CFI 27034 .cfa: sp 32 +
STACK CFI 2703c .cfa: x29 32 + x19: .cfa -8 + ^ x20: .cfa -16 + ^ .ra: .cfa -24 + ^ x29: .cfa -32 + ^
STACK CFI 27120 .cfa: sp 32 +
STACK CFI 27128 .cfa: sp 0 +
STACK CFI 2712c .cfa: x29 32 +
STACK CFI 27184 .cfa: sp 32 +
STACK CFI 2718c .cfa: sp 0 +
STACK CFI INIT 27190 a0 .cfa: sp 0 +
STACK CFI INIT 27230 a0 .cfa: sp 0 +
STACK CFI INIT 272d0 a0 .cfa: sp 0 +
STACK CFI INIT 27370 a0 .cfa: sp 0 +
STACK CFI INIT 27410 a0 .cfa: sp 0 +
STACK CFI INIT 274b0 a0 .cfa: sp 0 +
STACK CFI INIT 27550 13c .cfa: sp 0 +
STACK CFI 27554 .cfa: sp 32 +
STACK CFI 2755c .cfa: x29 32 + x19: .cfa -16 + ^ .ra: .cfa -24 + ^ x29: .cfa -32 + ^
STACK CFI 27680 .cfa: sp 32 +
STACK CFI 27688 .cfa: sp 0 +
STACK CFI INIT 2768c 10c .cfa: sp 0 +
STACK CFI 27690 .cfa: sp 32 +
STACK CFI 27698 .cfa: x29 32 + x19: .cfa -16 + ^ .ra: .cfa -24 + ^ x29: .cfa -32 + ^
STACK CFI 2776c .cfa: sp 32 +
STACK CFI 27774 .cfa: sp 0 +
STACK CFI 27778 .cfa: x29 32 +
STACK CFI 2778c .cfa: sp 32 +
STACK CFI 27794 .cfa: sp 0 +
STACK CFI INIT 27798 114 .cfa: sp 0 +
STACK CFI 2779c .cfa: sp 80 +
STACK CFI 277ac .cfa: x29 48 + x19: .cfa -8 + ^ x20: .cfa -16 + ^ x21: .cfa -32 + ^ .ra: .cfa -40 + ^ x29: .cfa -48 + ^
STACK CFI 27894 .cfa: sp 80 +
STACK CFI 278a4 .cfa: sp 0 +
STACK CFI 278a8 .cfa: x29 48 +
STACK CFI INIT 278ac f8 .cfa: sp 0 +
STACK CFI INIT 279a4 254 .cfa: sp 0 +
STACK CFI 279a8 .cfa: sp 96 +
STACK CFI 279c0 .cfa: x29 96 + x19: .cfa -8 + ^ x20: .cfa -16 + ^ x21: .cfa -24 + ^ x22: .cfa -32 + ^ x23: .cfa -40 + ^ x24: .cfa -48 + ^ x25: .cfa -56 + ^ x26: .cfa -64 + ^ x27: .cfa -72 + ^ x28: .cfa -80 + ^ .ra: .cfa -88 + ^ x29: .cfa -96 + ^
STACK CFI 27bdc .cfa: sp 96 +
STACK CFI 27bf4 .cfa: sp 0 +
STACK CFI INIT 27bf8 1c .cfa: sp 0 +
STACK CFI INIT 27c14 144 .cfa: sp 0 +
STACK CFI 27c18 .cfa: sp 64 +
STACK CFI 27c28 .cfa: x29 64 + x19: .cfa -8 + ^ x20: .cfa -16 + ^ x21: .cfa -24 + ^ x22: .cfa -32 + ^ x23: .cfa -48 + ^ .ra: .cfa -56 + ^ x29: .cfa -64 + ^
STACK CFI 27d44 .cfa: sp 64 +
STACK CFI 27d54 .cfa: sp 0 +
STACK CFI INIT 27d58 b8 .cfa: sp 0 +
STACK CFI 27d5c .cfa: sp 80 +
STACK CFI 27d68 .cfa: x29 32 + x19: .cfa -16 + ^ .ra: .cfa -24 + ^ x29: .cfa -32 + ^
STACK CFI 27dd4 .cfa: sp 80 +
STACK CFI 27de0 .cfa: sp 0 +
STACK CFI 27de4 .cfa: x29 32 +
STACK CFI INIT 27e10 4 .cfa: sp 0 +
STACK CFI INIT 27e14 19c .cfa: sp 0 +
STACK CFI 27e18 .cfa: sp 32 +
STACK CFI 27e20 .cfa: x29 32 + x19: .cfa -8 + ^ x20: .cfa -16 + ^ .ra: .cfa -24 + ^ x29: .cfa -32 + ^
STACK CFI 27fa4 .cfa: sp 32 +
STACK CFI 27fac .cfa: sp 0 +
STACK CFI INIT 27fb0 2f8 .cfa: sp 0 +
STACK CFI 27fb4 .cfa: sp 96 +
STACK CFI 27fcc .cfa: x29 96 + x19: .cfa -8 + ^ x20: .cfa -16 + ^ x21: .cfa -24 + ^ x22: .cfa -32 + ^ x23: .cfa -40 + ^ x24: .cfa -48 + ^ x25: .cfa -56 + ^ x26: .cfa -64 + ^ x27: .cfa -72 + ^ x28: .cfa -80 + ^ .ra: .cfa -88 + ^ x29: .cfa -96 + ^
STACK CFI 2828c .cfa: sp 96 +
STACK CFI 282a4 .cfa: sp 0 +
STACK CFI INIT 282a8 1c8 .cfa: sp 0 +
STACK CFI 282ac .cfa: sp 48 +
STACK CFI 282b8 .cfa: x29 48 + x19: .cfa -8 + ^ x20: .cfa -16 + ^ x21: .cfa -24 + ^ x22: .cfa -32 + ^ .ra: .cfa -40 + ^ x29: .cfa -48 + ^
STACK CFI 28460 .cfa: sp 48 +
STACK CFI 2846c .cfa: sp 0 +
STACK CFI INIT 28470 16c .cfa: sp 0 +
STACK CFI 28474 .cfa: sp 32 +
STACK CFI 2847c .cfa: x29 32 + x19: .cfa -8 + ^ x20: .cfa -16 + ^ .ra: .cfa -24 + ^ x29: .cfa -32 + ^
STACK CFI 285d0 .cfa: sp 32 +
STACK CFI 285d8 .cfa: sp 0 +
STACK CFI INIT 285dc 1a0 .cfa: sp 0 +
STACK CFI 285e0 .cfa: sp 80 +
STACK CFI 285f4 .cfa: x29 80 + x19: .cfa -8 + ^ x20: .cfa -16 + ^ x21: .cfa -24 + ^ x22: .cfa -32 + ^ x23: .cfa -40 + ^ x24: .cfa -48 + ^ x25: .cfa -56 + ^ x26: .cfa -64 + ^ .ra: .cfa -72 + ^ x29: .cfa -80 + ^
STACK CFI 28764 .cfa: sp 80 +
STACK CFI 28778 .cfa: sp 0 +
STACK CFI INIT 28c98 a0 .cfa: sp 0 +
STACK CFI INIT 28d38 1fc .cfa: sp 0 +
STACK CFI 28d3c .cfa: sp 32 +
STACK CFI 28d44 .cfa: x29 32 + x19: .cfa -8 + ^ x20: .cfa -16 + ^ .ra: .cfa -24 + ^ x29: .cfa -32 + ^
STACK CFI 28ec4 .cfa: sp 32 +
STACK CFI 28ecc .cfa: sp 0 +
STACK CFI 28ed0 .cfa: x29 32 +
STACK CFI 28f28 .cfa: sp 32 +
STACK CFI 28f30 .cfa: sp 0 +
STACK CFI INIT 28f34 1a4 .cfa: sp 0 +
STACK CFI 28f44 .cfa: sp 48 +
STACK CFI 28f50 .cfa: x29 48 + x19: .cfa -8 + ^ x20: .cfa -16 + ^ x21: .cfa -24 + ^ x22: .cfa -32 + ^ .ra: .cfa -40 + ^ x29: .cfa -48 + ^
STACK CFI 290c8 .cfa: sp 48 +
STACK CFI 290d4 .cfa: sp 0 +
STACK CFI INIT 290d8 144 .cfa: sp 0 +
STACK CFI 290dc .cfa: sp 48 +
STACK CFI 290e8 .cfa: x29 48 + x19: .cfa -8 + ^ x20: .cfa -16 + ^ x21: .cfa -24 + ^ x22: .cfa -32 + ^ .ra: .cfa -40 + ^ x29: .cfa -48 + ^
STACK CFI 2920c .cfa: sp 48 +
STACK CFI 29218 .cfa: sp 0 +
STACK CFI INIT 2921c 31c .cfa: sp 0 +
STACK CFI 29220 .cfa: sp 64 +
STACK CFI 29230 .cfa: x29 64 + x19: .cfa -8 + ^ x20: .cfa -16 + ^ x21: .cfa -24 + ^ x22: .cfa -32 + ^ x23: .cfa -48 + ^ .ra: .cfa -56 + ^ x29: .cfa -64 + ^
STACK CFI 292ac .cfa: sp 64 +
STACK CFI 292bc .cfa: sp 0 +
STACK CFI 292c0 .cfa: x29 64 +
STACK CFI 2950c .cfa: sp 64 +
STACK CFI 2951c .cfa: sp 0 +
STACK CFI 29520 .cfa: x29 64 +
STACK CFI 29524 .cfa: sp 64 +
STACK CFI 29534 .cfa: sp 0 +
STACK CFI INIT 29538 3dc .cfa: sp 0 +
STACK CFI 2953c .cfa: sp 128 +
STACK CFI 29558 .cfa: x29 96 + x19: .cfa -8 + ^ x20: .cfa -16 + ^ x21: .cfa -24 + ^ x22: .cfa -32 + ^ x23: .cfa -40 + ^ x24: .cfa -48 + ^ x25: .cfa -56 + ^ x26: .cfa -64 + ^ x27: .cfa -80 + ^ .ra: .cfa -88 + ^ x29: .cfa -96 + ^
STACK CFI 296d8 .cfa: sp 128 +
STACK CFI 296f4 .cfa: sp 0 +
STACK CFI 296f8 .cfa: x29 96 +
STACK CFI INIT 29914 a4 .cfa: sp 0 +
STACK CFI INIT 299b8 ec .cfa: sp 0 +
STACK CFI 299bc .cfa: sp 368 +
STACK CFI 299cc .cfa: x29 48 + x19: .cfa -8 + ^ x20: .cfa -16 + ^ x28: .cfa -32 + ^ .ra: .cfa -40 + ^ x29: .cfa -48 + ^
STACK CFI 29a8c .cfa: sp 368 +
STACK CFI 29a9c .cfa: sp 0 +
STACK CFI 29aa0 .cfa: x29 48 +
STACK CFI INIT 29aa4 1ec .cfa: sp 0 +
STACK CFI 29aa8 .cfa: sp 48 +
STACK CFI 29ab4 .cfa: x29 48 + x19: .cfa -8 + ^ x20: .cfa -16 + ^ x21: .cfa -24 + ^ x22: .cfa -32 + ^ .ra: .cfa -40 + ^ x29: .cfa -48 + ^
STACK CFI 29c5c .cfa: sp 48 +
STACK CFI 29c68 .cfa: sp 0 +
STACK CFI 29c6c .cfa: x29 48 +
STACK CFI INIT 29c90 1dc .cfa: sp 0 +
STACK CFI 29c94 .cfa: sp 96 +
STACK CFI 29cac .cfa: x29 80 + x19: .cfa -8 + ^ x20: .cfa -16 + ^ x21: .cfa -24 + ^ x22: .cfa -32 + ^ x23: .cfa -40 + ^ x24: .cfa -48 + ^ x25: .cfa -56 + ^ x26: .cfa -64 + ^ .ra: .cfa -72 + ^ x29: .cfa -80 + ^
STACK CFI 29cfc .cfa: sp 96 +
STACK CFI 29d14 .cfa: sp 0 +
STACK CFI 29d18 .cfa: x29 80 +
STACK CFI INIT 29e6c 644 .cfa: sp 0 +
STACK CFI 29e70 .cfa: sp 64 +
STACK CFI 29e80 .cfa: x29 64 + x19: .cfa -8 + ^ x20: .cfa -16 + ^ x21: .cfa -24 + ^ x22: .cfa -32 + ^ x23: .cfa -48 + ^ .ra: .cfa -56 + ^ x29: .cfa -64 + ^
STACK CFI 2a234 .cfa: sp 64 +
STACK CFI 2a244 .cfa: sp 0 +
STACK CFI 2a248 .cfa: x29 64 +
STACK CFI 2a268 .cfa: sp 64 +
STACK CFI 2a278 .cfa: sp 0 +
STACK CFI 2a27c .cfa: x29 64 +
STACK CFI 2a49c .cfa: sp 64 +
STACK CFI 2a4ac .cfa: sp 0 +
STACK CFI INIT 2a4b0 68 .cfa: sp 0 +
STACK CFI INIT 2a518 6c00 .cfa: sp 0 +
STACK CFI 2a51c .cfa: sp 400 +
STACK CFI 2a540 .cfa: x29 96 + x19: .cfa -8 + ^ x20: .cfa -16 + ^ x21: .cfa -24 + ^ x22: .cfa -32 + ^ x23: .cfa -40 + ^ x24: .cfa -48 + ^ x25: .cfa -56 + ^ x26: .cfa -64 + ^ x27: .cfa -72 + ^ x28: .cfa -80 + ^ .ra: .cfa -88 + ^ x29: .cfa -96 + ^ v8: .cfa -104 + ^ v9: .cfa -112 + ^ v10: .cfa -120 + ^ v11: .cfa -128 + ^
STACK CFI 310dc .cfa: sp 400 +
STACK CFI 31100 .cfa: sp 0 +
STACK CFI 31104 .cfa: x29 96 +
STACK CFI INIT 364ac 110 .cfa: sp 0 +
STACK CFI 364b0 .cfa: sp 32 +
STACK CFI 364b8 .cfa: x29 32 + x19: .cfa -16 + ^ .ra: .cfa -24 + ^ x29: .cfa -32 + ^
STACK CFI 365a4 .cfa: sp 32 +
STACK CFI 365ac .cfa: sp 0 +
STACK CFI 365b0 .cfa: x29 32 +
STACK CFI INIT 365bc 440 .cfa: sp 0 +
STACK CFI 365c0 .cfa: sp 80 +
STACK CFI 365d4 .cfa: x29 80 + x19: .cfa -8 + ^ x20: .cfa -16 + ^ x21: .cfa -24 + ^ x22: .cfa -32 + ^ x23: .cfa -40 + ^ x24: .cfa -48 + ^ x25: .cfa -64 + ^ .ra: .cfa -72 + ^ x29: .cfa -80 + ^
STACK CFI 36604 .cfa: sp 80 +
STACK CFI 36618 .cfa: sp 0 +
STACK CFI 3661c .cfa: x29 80 +
STACK CFI 36958 .cfa: sp 80 +
STACK CFI 3696c .cfa: sp 0 +
STACK CFI 36970 .cfa: x29 80 +
STACK CFI 369d8 .cfa: sp 80 +
STACK CFI 369ec .cfa: sp 0 +
STACK CFI 369f0 .cfa: x29 80 +
STACK CFI INIT 369fc 1a4 .cfa: sp 0 +
STACK CFI 36a0c .cfa: sp 48 +
STACK CFI 36a18 .cfa: x29 48 + x19: .cfa -8 + ^ x20: .cfa -16 + ^ x21: .cfa -24 + ^ x22: .cfa -32 + ^ .ra: .cfa -40 + ^ x29: .cfa -48 + ^
STACK CFI 36b90 .cfa: sp 48 +
STACK CFI 36b9c .cfa: sp 0 +
STACK CFI INIT 36ba0 e4 .cfa: sp 0 +
STACK CFI 36ba4 .cfa: sp 48 +
STACK CFI 36bb0 .cfa: x29 48 + x19: .cfa -8 + ^ x20: .cfa -16 + ^ x21: .cfa -24 + ^ x22: .cfa -32 + ^ .ra: .cfa -40 + ^ x29: .cfa -48 + ^
STACK CFI 36c74 .cfa: sp 48 +
STACK CFI 36c80 .cfa: sp 0 +
STACK CFI INIT 36c84 1d1c .cfa: sp 0 +
STACK CFI 36c88 .cfa: sp 304 +
STACK CFI 36cb4 .cfa: x29 96 + x19: .cfa -8 + ^ x20: .cfa -16 + ^ x21: .cfa -24 + ^ x22: .cfa -32 + ^ x23: .cfa -40 + ^ x24: .cfa -48 + ^ x25: .cfa -56 + ^ x26: .cfa -64 + ^ x27: .cfa -72 + ^ x28: .cfa -80 + ^ .ra: .cfa -88 + ^ x29: .cfa -96 + ^ v8: .cfa -104 + ^ v9: .cfa -112 + ^ v10: .cfa -120 + ^ v11: .cfa -128 + ^ v12: .cfa -136 + ^ v13: .cfa -144 + ^ v14: .cfa -152 + ^ v15: .cfa -160 + ^
STACK CFI 38040 .cfa: sp 304 +
STACK CFI 3806c .cfa: sp 0 +
STACK CFI 38070 .cfa: x29 96 +
STACK CFI INIT 389a0 160 .cfa: sp 0 +
STACK CFI 389a4 .cfa: sp 48 +
STACK CFI 389b0 .cfa: x29 48 + x19: .cfa -8 + ^ x20: .cfa -16 + ^ x21: .cfa -24 + ^ x22: .cfa -32 + ^ .ra: .cfa -40 + ^ x29: .cfa -48 + ^
STACK CFI 389fc .cfa: sp 48 +
STACK CFI 38a08 .cfa: sp 0 +
STACK CFI 38a0c .cfa: x29 48 +
STACK CFI 38ab0 .cfa: sp 48 +
STACK CFI 38abc .cfa: sp 0 +
STACK CFI 38ac0 .cfa: x29 48 +
STACK CFI 38ad0 .cfa: sp 48 +
STACK CFI 38adc .cfa: sp 0 +
STACK CFI 38ae0 .cfa: x29 48 +
STACK CFI 38af0 .cfa: sp 48 +
STACK CFI 38afc .cfa: sp 0 +
STACK CFI INIT 38b00 1c8 .cfa: sp 0 +
STACK CFI 38b04 .cfa: sp 144 +
STACK CFI 38b20 .cfa: x29 80 + x19: .cfa -8 + ^ x20: .cfa -16 + ^ x21: .cfa -24 + ^ x22: .cfa -32 + ^ x23: .cfa -40 + ^ x24: .cfa -48 + ^ x25: .cfa -56 + ^ x26: .cfa -64 + ^ .ra: .cfa -72 + ^ x29: .cfa -80 + ^ v8: .cfa -88 + ^ v9: .cfa -96 + ^
STACK CFI 38ca4 .cfa: sp 144 +
STACK CFI 38cc0 .cfa: sp 0 +
STACK CFI 38cc4 .cfa: x29 80 +
STACK CFI INIT 38cc8 11c .cfa: sp 0 +
STACK CFI INIT 38de4 8ac .cfa: sp 0 +
STACK CFI 38de8 .cfa: sp 160 +
STACK CFI 38e04 .cfa: x29 96 + x19: .cfa -8 + ^ x20: .cfa -16 + ^ x21: .cfa -24 + ^ x22: .cfa -32 + ^ x23: .cfa -40 + ^ x24: .cfa -48 + ^ x25: .cfa -56 + ^ x26: .cfa -64 + ^ x27: .cfa -80 + ^ .ra: .cfa -88 + ^ x29: .cfa -96 + ^
STACK CFI 39194 .cfa: sp 160 +
STACK CFI 391b0 .cfa: sp 0 +
STACK CFI 391b4 .cfa: x29 96 +
STACK CFI INIT 39690 118 .cfa: sp 0 +
STACK CFI 39694 .cfa: sp 48 +
STACK CFI 396a0 .cfa: x29 32 + x19: .cfa -8 + ^ x20: .cfa -16 + ^ .ra: .cfa -24 + ^ x29: .cfa -32 + ^
STACK CFI 39794 .cfa: sp 48 +
STACK CFI 397a0 .cfa: sp 0 +
STACK CFI 397a4 .cfa: x29 32 +
STACK CFI INIT 397a8 208 .cfa: sp 0 +
STACK CFI 397d8 .cfa: sp 112 +
STACK CFI 397e8 .cfa: x29 48 + x19: .cfa -8 + ^ x20: .cfa -16 + ^ x21: .cfa -32 + ^ .ra: .cfa -40 + ^ x29: .cfa -48 + ^
STACK CFI 39998 .cfa: sp 112 +
STACK CFI 399a8 .cfa: sp 0 +
STACK CFI INIT 399b0 1a4 .cfa: sp 0 +
STACK CFI 399b4 .cfa: sp 96 +
STACK CFI 399c4 .cfa: x29 48 + x19: .cfa -8 + ^ x20: .cfa -16 + ^ x21: .cfa -32 + ^ .ra: .cfa -40 + ^ x29: .cfa -48 + ^
STACK CFI 39b3c .cfa: sp 96 +
STACK CFI 39b4c .cfa: sp 0 +
STACK CFI 39b50 .cfa: x29 48 +
STACK CFI INIT 39b54 514 .cfa: sp 0 +
STACK CFI 39b58 .cfa: sp 160 +
STACK CFI 39b6c .cfa: x29 64 + x19: .cfa -8 + ^ x20: .cfa -16 + ^ x21: .cfa -24 + ^ x22: .cfa -32 + ^ x23: .cfa -48 + ^ .ra: .cfa -56 + ^ x29: .cfa -64 + ^
STACK CFI 39c98 .cfa: sp 160 +
STACK CFI 39cac .cfa: sp 0 +
STACK CFI 39cb0 .cfa: x29 64 +
STACK CFI INIT 3a068 308 .cfa: sp 0 +
STACK CFI INIT 3a370 158 .cfa: sp 0 +
STACK CFI 3a374 .cfa: sp 112 +
STACK CFI 3a388 .cfa: x29 40 + x19: .cfa -8 + ^ x20: .cfa -16 + ^ x21: .cfa -24 + ^ .ra: .cfa -32 + ^ x29: .cfa -40 + ^ v8: .cfa -48 + ^
STACK CFI 3a4ac .cfa: sp 112 +
STACK CFI 3a4c0 .cfa: sp 0 +
STACK CFI 3a4c4 .cfa: x29 40 +
STACK CFI INIT 3a4c8 64 .cfa: sp 0 +
STACK CFI 3a4cc .cfa: sp 48 +
STACK CFI 3a4d8 .cfa: x29 48 + x19: .cfa -8 + ^ x20: .cfa -16 + ^ x21: .cfa -32 + ^ .ra: .cfa -40 + ^ x29: .cfa -48 + ^
STACK CFI 3a51c .cfa: sp 48 +
STACK CFI 3a528 .cfa: sp 0 +
STACK CFI INIT 3a52c 164 .cfa: sp 0 +
STACK CFI 3a530 .cfa: sp 48 +
STACK CFI 3a53c .cfa: x29 48 + x19: .cfa -8 + ^ x20: .cfa -16 + ^ x21: .cfa -24 + ^ x22: .cfa -32 + ^ .ra: .cfa -40 + ^ x29: .cfa -48 + ^
STACK CFI 3a680 .cfa: sp 48 +
STACK CFI 3a68c .cfa: sp 0 +
STACK CFI INIT 3a690 74c .cfa: sp 0 +
STACK CFI 3a694 .cfa: sp 112 +
STACK CFI 3a6b0 .cfa: x29 96 + x19: .cfa -8 + ^ x20: .cfa -16 + ^ x21: .cfa -24 + ^ x22: .cfa -32 + ^ x23: .cfa -40 + ^ x24: .cfa -48 + ^ x25: .cfa -56 + ^ x26: .cfa -64 + ^ x27: .cfa -72 + ^ x28: .cfa -80 + ^ .ra: .cfa -88 + ^ x29: .cfa -96 + ^ v8: .cfa -112 + ^
STACK CFI 3adbc .cfa: sp 112 +
STACK CFI 3add8 .cfa: sp 0 +
STACK CFI INIT 3addc 1dc .cfa: sp 0 +
STACK CFI 3ade0 .cfa: sp 64 +
STACK CFI 3adf0 .cfa: x29 64 + x19: .cfa -8 + ^ x20: .cfa -16 + ^ x21: .cfa -24 + ^ x22: .cfa -32 + ^ x23: .cfa -40 + ^ x24: .cfa -48 + ^ .ra: .cfa -56 + ^ x29: .cfa -64 + ^
STACK CFI 3afa4 .cfa: sp 64 +
STACK CFI 3afb4 .cfa: sp 0 +
STACK CFI INIT 3afb8 368 .cfa: sp 0 +
STACK CFI 3afbc .cfa: sp 64 +
STACK CFI 3afcc .cfa: x29 64 + x19: .cfa -8 + ^ x20: .cfa -16 + ^ x21: .cfa -24 + ^ x22: .cfa -32 + ^ x23: .cfa -40 + ^ x24: .cfa -48 + ^ .ra: .cfa -56 + ^ x29: .cfa -64 + ^
STACK CFI 3b288 .cfa: sp 64 +
STACK CFI 3b298 .cfa: sp 0 +
STACK CFI 3b29c .cfa: x29 64 +
STACK CFI 3b2f0 .cfa: sp 64 +
STACK CFI 3b300 .cfa: sp 0 +
STACK CFI 3b304 .cfa: x29 64 +
STACK CFI 3b30c .cfa: sp 64 +
STACK CFI 3b31c .cfa: sp 0 +
STACK CFI INIT 3b320 180 .cfa: sp 0 +
STACK CFI INIT 3b4a0 9c .cfa: sp 0 +
STACK CFI 3b4a4 .cfa: sp 48 +
STACK CFI 3b4b0 .cfa: x29 48 + x19: .cfa -8 + ^ x20: .cfa -16 + ^ x21: .cfa -32 + ^ .ra: .cfa -40 + ^ x29: .cfa -48 + ^
STACK CFI 3b52c .cfa: sp 48 +
STACK CFI 3b538 .cfa: sp 0 +
STACK CFI INIT 3b53c 1e4 .cfa: sp 0 +
STACK CFI 3b540 .cfa: sp 48 +
STACK CFI 3b54c .cfa: x29 48 + x19: .cfa -8 + ^ x20: .cfa -16 + ^ x21: .cfa -32 + ^ .ra: .cfa -40 + ^ x29: .cfa -48 + ^
STACK CFI 3b5e8 .cfa: sp 48 +
STACK CFI 3b5f4 .cfa: sp 0 +
STACK CFI 3b5f8 .cfa: x29 48 +
STACK CFI 3b6f0 .cfa: sp 48 +
STACK CFI 3b6fc .cfa: sp 0 +
STACK CFI 3b700 .cfa: x29 48 +
STACK CFI 3b704 .cfa: sp 48 +
STACK CFI 3b710 .cfa: sp 0 +
STACK CFI 3b714 .cfa: x29 48 +
STACK CFI INIT 3b720 c0 .cfa: sp 0 +
STACK CFI INIT 3b7e0 80 .cfa: sp 0 +
STACK CFI INIT 3b860 50 .cfa: sp 0 +
STACK CFI INIT 3b8b0 388 .cfa: sp 0 +
STACK CFI 3b8b4 .cfa: sp 112 +
STACK CFI 3b8cc .cfa: x29 56 + x19: .cfa -8 + ^ x20: .cfa -16 + ^ x21: .cfa -24 + ^ x22: .cfa -32 + ^ x23: .cfa -40 + ^ .ra: .cfa -48 + ^ x29: .cfa -56 + ^ v8: .cfa -64 + ^
STACK CFI 3bc18 .cfa: sp 112 +
STACK CFI 3bc30 .cfa: sp 0 +
STACK CFI 3bc34 .cfa: x29 56 +
STACK CFI INIT 3bc38 248 .cfa: sp 0 +
STACK CFI 3bc3c .cfa: sp 160 +
STACK CFI 3bc54 .cfa: x29 80 + x19: .cfa -8 + ^ x20: .cfa -16 + ^ x21: .cfa -24 + ^ x22: .cfa -32 + ^ x23: .cfa -40 + ^ x24: .cfa -48 + ^ x25: .cfa -64 + ^ .ra: .cfa -72 + ^ x29: .cfa -80 + ^
STACK CFI 3be60 .cfa: sp 160 +
STACK CFI 3be78 .cfa: sp 0 +
STACK CFI 3be7c .cfa: x29 80 +
STACK CFI INIT 3be80 120 .cfa: sp 0 +
STACK CFI 3be84 .cfa: sp 48 +
STACK CFI 3be90 .cfa: x29 48 + x19: .cfa -8 + ^ x20: .cfa -16 + ^ x21: .cfa -32 + ^ .ra: .cfa -40 + ^ x29: .cfa -48 + ^
STACK CFI 3bf90 .cfa: sp 48 +
STACK CFI 3bf9c .cfa: sp 0 +
STACK CFI INIT 3bfa0 130 .cfa: sp 0 +
STACK CFI INIT 3c0d0 fc .cfa: sp 0 +
STACK CFI INIT 3c1cc 354 .cfa: sp 0 +
STACK CFI INIT 3c520 10c .cfa: sp 0 +
STACK CFI INIT 3c62c 1ac .cfa: sp 0 +
STACK CFI INIT 3c7d8 658 .cfa: sp 0 +
STACK CFI 3c7dc .cfa: sp 128 +
STACK CFI 3c7f8 .cfa: x29 96 + x19: .cfa -8 + ^ x20: .cfa -16 + ^ x21: .cfa -24 + ^ x22: .cfa -32 + ^ x23: .cfa -40 + ^ x24: .cfa -48 + ^ x25: .cfa -56 + ^ x26: .cfa -64 + ^ x27: .cfa -72 + ^ x28: .cfa -80 + ^ .ra: .cfa -88 + ^ x29: .cfa -96 + ^
STACK CFI 3cdc8 .cfa: sp 128 +
STACK CFI 3cde4 .cfa: sp 0 +
STACK CFI 3cde8 .cfa: x29 96 +
STACK CFI INIT 3ce30 36c .cfa: sp 0 +
STACK CFI 3ce34 .cfa: sp 176 +
STACK CFI 3ce50 .cfa: x29 80 + x19: .cfa -8 + ^ x20: .cfa -16 + ^ x21: .cfa -24 + ^ x22: .cfa -32 + ^ x23: .cfa -40 + ^ x24: .cfa -48 + ^ x25: .cfa -56 + ^ x26: .cfa -64 + ^ .ra: .cfa -72 + ^ x29: .cfa -80 + ^ v8: .cfa -96 + ^
STACK CFI 3d15c .cfa: sp 176 +
STACK CFI 3d178 .cfa: sp 0 +
STACK CFI 3d17c .cfa: x29 80 +
STACK CFI INIT 3d19c 404 .cfa: sp 0 +
STACK CFI 3d1a0 .cfa: sp 128 +
STACK CFI 3d1b8 .cfa: x29 80 + x19: .cfa -8 + ^ x20: .cfa -16 + ^ x21: .cfa -24 + ^ x22: .cfa -32 + ^ x23: .cfa -40 + ^ x24: .cfa -48 + ^ x25: .cfa -64 + ^ .ra: .cfa -72 + ^ x29: .cfa -80 + ^
STACK CFI 3d410 .cfa: sp 128 +
STACK CFI 3d428 .cfa: sp 0 +
STACK CFI 3d42c .cfa: x29 80 +
STACK CFI INIT 3d5a0 1a8 .cfa: sp 0 +
STACK CFI 3d5a4 .cfa: sp 112 +
STACK CFI 3d5b8 .cfa: x29 64 + x19: .cfa -8 + ^ x20: .cfa -16 + ^ x21: .cfa -24 + ^ x22: .cfa -32 + ^ x23: .cfa -40 + ^ x24: .cfa -48 + ^ .ra: .cfa -56 + ^ x29: .cfa -64 + ^
STACK CFI 3d72c .cfa: sp 112 +
STACK CFI 3d740 .cfa: sp 0 +
STACK CFI 3d744 .cfa: x29 64 +
STACK CFI INIT 3d748 1f8 .cfa: sp 0 +
STACK CFI 3d74c .cfa: sp 128 +
STACK CFI 3d768 .cfa: x29 96 + x19: .cfa -8 + ^ x20: .cfa -16 + ^ x21: .cfa -24 + ^ x22: .cfa -32 + ^ x23: .cfa -40 + ^ x24: .cfa -48 + ^ x25: .cfa -56 + ^ x26: .cfa -64 + ^ x27: .cfa -72 + ^ x28: .cfa -80 + ^ .ra: .cfa -88 + ^ x29: .cfa -96 + ^
STACK CFI 3d908 .cfa: sp 128 +
STACK CFI 3d924 .cfa: sp 0 +
STACK CFI 3d928 .cfa: x29 96 +
STACK CFI INIT 3d940 210 .cfa: sp 0 +
STACK CFI 3d944 .cfa: sp 48 +
STACK CFI 3d950 .cfa: x29 32 + x19: .cfa -8 + ^ x20: .cfa -16 + ^ .ra: .cfa -24 + ^ x29: .cfa -32 + ^
STACK CFI 3d9d8 .cfa: sp 48 +
STACK CFI 3d9e4 .cfa: sp 0 +
STACK CFI 3d9e8 .cfa: x29 32 +
STACK CFI 3db34 .cfa: sp 48 +
STACK CFI 3db40 .cfa: sp 0 +
STACK CFI 3db44 .cfa: x29 32 +
STACK CFI INIT 3db50 220 .cfa: sp 0 +
STACK CFI 3db54 .cfa: sp 80 +
STACK CFI 3db68 .cfa: x29 80 + x19: .cfa -8 + ^ x20: .cfa -16 + ^ x21: .cfa -24 + ^ x22: .cfa -32 + ^ x23: .cfa -40 + ^ x24: .cfa -48 + ^ x25: .cfa -56 + ^ x26: .cfa -64 + ^ .ra: .cfa -72 + ^ x29: .cfa -80 + ^
STACK CFI 3dc88 .cfa: sp 80 +
STACK CFI 3dc9c .cfa: sp 0 +
STACK CFI 3dca0 .cfa: sp 80 +
STACK CFI 3dcb4 .cfa: sp 0 +
STACK CFI 3dcb8 .cfa: x29 80 +
STACK CFI 3dcc8 .cfa: sp 80 +
STACK CFI 3dcdc .cfa: sp 0 +
STACK CFI 3dce0 .cfa: x29 80 +
STACK CFI 3dd58 .cfa: sp 80 +
STACK CFI 3dd6c .cfa: sp 0 +
STACK CFI INIT 3dd70 d4 .cfa: sp 0 +
STACK CFI 3dd74 .cfa: sp 32 +
STACK CFI 3dd7c .cfa: x29 32 + x19: .cfa -8 + ^ x20: .cfa -16 + ^ .ra: .cfa -24 + ^ x29: .cfa -32 + ^
STACK CFI 3de38 .cfa: sp 32 +
STACK CFI 3de40 .cfa: sp 0 +
STACK CFI INIT 3de44 12c .cfa: sp 0 +
STACK CFI 3de48 .cfa: sp 80 +
STACK CFI 3de58 .cfa: x29 48 + x19: .cfa -8 + ^ x20: .cfa -16 + ^ x21: .cfa -32 + ^ .ra: .cfa -40 + ^ x29: .cfa -48 + ^
STACK CFI 3ded0 .cfa: sp 80 +
STACK CFI 3dee0 .cfa: sp 0 +
STACK CFI 3dee4 .cfa: x29 48 +
STACK CFI INIT 3df70 5c4 .cfa: sp 0 +
STACK CFI INIT 3e534 90 .cfa: sp 0 +
STACK CFI 3e538 .cfa: sp 64 +
STACK CFI 3e548 .cfa: x29 64 + x19: .cfa -8 + ^ x20: .cfa -16 + ^ x21: .cfa -24 + ^ x22: .cfa -32 + ^ x23: .cfa -48 + ^ .ra: .cfa -56 + ^ x29: .cfa -64 + ^
STACK CFI 3e5b0 .cfa: sp 64 +
STACK CFI 3e5c0 .cfa: sp 0 +
STACK CFI INIT 3e5c4 154 .cfa: sp 0 +
STACK CFI 3e5c8 .cfa: sp 80 +
STACK CFI 3e5dc .cfa: x29 80 + x19: .cfa -8 + ^ x20: .cfa -16 + ^ x21: .cfa -24 + ^ x22: .cfa -32 + ^ x23: .cfa -40 + ^ x24: .cfa -48 + ^ x25: .cfa -64 + ^ .ra: .cfa -72 + ^ x29: .cfa -80 + ^
STACK CFI 3e700 .cfa: sp 80 +
STACK CFI 3e714 .cfa: sp 0 +
STACK CFI INIT 3e718 a0 .cfa: sp 0 +
STACK CFI INIT 3e7b8 14c .cfa: sp 0 +
STACK CFI 3e7bc .cfa: sp 368 +
STACK CFI 3e7d0 .cfa: x29 64 + x19: .cfa -8 + ^ x20: .cfa -16 + ^ x21: .cfa -24 + ^ x22: .cfa -32 + ^ x28: .cfa -48 + ^ .ra: .cfa -56 + ^ x29: .cfa -64 + ^
STACK CFI 3e8c0 .cfa: sp 368 +
STACK CFI 3e8d4 .cfa: sp 0 +
STACK CFI 3e8d8 .cfa: x29 64 +
STACK CFI INIT 3e904 f4 .cfa: sp 0 +
STACK CFI 3e908 .cfa: sp 64 +
STACK CFI 3e918 .cfa: x29 64 + x19: .cfa -8 + ^ x20: .cfa -16 + ^ x21: .cfa -24 + ^ x22: .cfa -32 + ^ x23: .cfa -48 + ^ .ra: .cfa -56 + ^ x29: .cfa -64 + ^
STACK CFI 3e9e4 .cfa: sp 64 +
STACK CFI 3e9f4 .cfa: sp 0 +
STACK CFI INIT 3e9f8 1b8 .cfa: sp 0 +
STACK CFI 3e9fc .cfa: sp 80 +
STACK CFI 3ea10 .cfa: x29 80 + x19: .cfa -8 + ^ x20: .cfa -16 + ^ x21: .cfa -24 + ^ x22: .cfa -32 + ^ x23: .cfa -40 + ^ x24: .cfa -48 + ^ x25: .cfa -64 + ^ .ra: .cfa -72 + ^ x29: .cfa -80 + ^
STACK CFI 3eb98 .cfa: sp 80 +
STACK CFI 3ebac .cfa: sp 0 +
STACK CFI INIT 3ebb0 128 .cfa: sp 0 +
STACK CFI 3ebb4 .cfa: sp 128 +
STACK CFI 3ebcc .cfa: x29 80 + x19: .cfa -8 + ^ x20: .cfa -16 + ^ x21: .cfa -24 + ^ x22: .cfa -32 + ^ x23: .cfa -40 + ^ x24: .cfa -48 + ^ x25: .cfa -64 + ^ .ra: .cfa -72 + ^ x29: .cfa -80 + ^
STACK CFI 3ecb8 .cfa: sp 128 +
STACK CFI 3ecd0 .cfa: sp 0 +
STACK CFI 3ecd4 .cfa: x29 80 +
STACK CFI INIT 3ecd8 4 .cfa: sp 0 +
STACK CFI INIT 3ecdc 4 .cfa: sp 0 +
STACK CFI INIT 3ece0 a0 .cfa: sp 0 +
STACK CFI INIT 3ed80 44 .cfa: sp 0 +
STACK CFI INIT 3edc4 1a4 .cfa: sp 0 +
STACK CFI 3edd4 .cfa: sp 48 +
STACK CFI 3ede0 .cfa: x29 48 + x19: .cfa -8 + ^ x20: .cfa -16 + ^ x21: .cfa -24 + ^ x22: .cfa -32 + ^ .ra: .cfa -40 + ^ x29: .cfa -48 + ^
STACK CFI 3ef58 .cfa: sp 48 +
STACK CFI 3ef64 .cfa: sp 0 +
STACK CFI INIT 3ef68 334 .cfa: sp 0 +
STACK CFI 3ef6c .cfa: sp 160 +
STACK CFI 3ef7c .cfa: x29 48 + x19: .cfa -8 + ^ x20: .cfa -16 + ^ x21: .cfa -32 + ^ .ra: .cfa -40 + ^ x29: .cfa -48 + ^
STACK CFI 3f26c .cfa: sp 160 +
STACK CFI 3f27c .cfa: sp 0 +
STACK CFI 3f280 .cfa: x29 48 +
STACK CFI INIT 3f29c 1a4 .cfa: sp 0 +
STACK CFI 3f2ac .cfa: sp 48 +
STACK CFI 3f2b8 .cfa: x29 48 + x19: .cfa -8 + ^ x20: .cfa -16 + ^ x21: .cfa -24 + ^ x22: .cfa -32 + ^ .ra: .cfa -40 + ^ x29: .cfa -48 + ^
STACK CFI 3f430 .cfa: sp 48 +
STACK CFI 3f43c .cfa: sp 0 +
STACK CFI INIT 3f440 b4 .cfa: sp 0 +
STACK CFI 3f444 .cfa: sp 48 +
STACK CFI 3f450 .cfa: x29 48 + x19: .cfa -8 + ^ x20: .cfa -16 + ^ x21: .cfa -32 + ^ .ra: .cfa -40 + ^ x29: .cfa -48 + ^
STACK CFI 3f4e4 .cfa: sp 48 +
STACK CFI 3f4f0 .cfa: sp 0 +
STACK CFI INIT 3f4f4 c4 .cfa: sp 0 +
STACK CFI 3f4f8 .cfa: sp 80 +
STACK CFI 3f50c .cfa: x29 48 + x19: .cfa -8 + ^ x20: .cfa -16 + ^ x21: .cfa -32 + ^ .ra: .cfa -40 + ^ x29: .cfa -48 + ^ v8: .cfa -56 + ^ v9: .cfa -64 + ^ v10: .cfa -72 + ^ v11: .cfa -80 + ^
STACK CFI 3f5a0 .cfa: sp 80 +
STACK CFI 3f5b4 .cfa: sp 0 +
STACK CFI INIT 3f5b8 d0 .cfa: sp 0 +
STACK CFI INIT 3f688 1a4 .cfa: sp 0 +
STACK CFI 3f698 .cfa: sp 48 +
STACK CFI 3f6a4 .cfa: x29 48 + x19: .cfa -8 + ^ x20: .cfa -16 + ^ x21: .cfa -24 + ^ x22: .cfa -32 + ^ .ra: .cfa -40 + ^ x29: .cfa -48 + ^
STACK CFI 3f81c .cfa: sp 48 +
STACK CFI 3f828 .cfa: sp 0 +
STACK CFI INIT 3f82c 1a4 .cfa: sp 0 +
STACK CFI 3f83c .cfa: sp 48 +
STACK CFI 3f848 .cfa: x29 48 + x19: .cfa -8 + ^ x20: .cfa -16 + ^ x21: .cfa -24 + ^ x22: .cfa -32 + ^ .ra: .cfa -40 + ^ x29: .cfa -48 + ^
STACK CFI 3f9c0 .cfa: sp 48 +
STACK CFI 3f9cc .cfa: sp 0 +
STACK CFI INIT 3f9d0 d8 .cfa: sp 0 +
STACK CFI 3f9d4 .cfa: sp 48 +
STACK CFI 3f9e0 .cfa: x29 48 + x19: .cfa -8 + ^ x20: .cfa -16 + ^ x21: .cfa -32 + ^ .ra: .cfa -40 + ^ x29: .cfa -48 + ^
STACK CFI 3fa20 .cfa: sp 48 +
STACK CFI 3fa2c .cfa: sp 0 +
STACK CFI 3fa30 .cfa: x29 48 +
STACK CFI 3fa98 .cfa: sp 48 +
STACK CFI 3faa4 .cfa: sp 0 +
STACK CFI INIT 3faa8 10 .cfa: sp 0 +
STACK CFI INIT 3fab8 10 .cfa: sp 0 +
STACK CFI INIT 3fac8 358 .cfa: sp 0 +
STACK CFI INIT 3fe20 130 .cfa: sp 0 +
STACK CFI 3fe24 .cfa: sp 64 +
STACK CFI 3fe34 .cfa: x29 64 + x19: .cfa -8 + ^ x20: .cfa -16 + ^ x21: .cfa -24 + ^ x22: .cfa -32 + ^ x23: .cfa -40 + ^ x24: .cfa -48 + ^ .ra: .cfa -56 + ^ x29: .cfa -64 + ^
STACK CFI 3ff20 .cfa: sp 64 +
STACK CFI 3ff30 .cfa: sp 0 +
STACK CFI 3ff34 .cfa: x29 64 +
STACK CFI 3ff3c .cfa: sp 64 +
STACK CFI 3ff4c .cfa: sp 0 +
STACK CFI INIT 3ff50 1a4 .cfa: sp 0 +
STACK CFI 3ff60 .cfa: sp 48 +
STACK CFI 3ff6c .cfa: x29 48 + x19: .cfa -8 + ^ x20: .cfa -16 + ^ x21: .cfa -24 + ^ x22: .cfa -32 + ^ .ra: .cfa -40 + ^ x29: .cfa -48 + ^
STACK CFI 400e4 .cfa: sp 48 +
STACK CFI 400f0 .cfa: sp 0 +
STACK CFI INIT 400f4 1a4 .cfa: sp 0 +
STACK CFI 40104 .cfa: sp 48 +
STACK CFI 40110 .cfa: x29 48 + x19: .cfa -8 + ^ x20: .cfa -16 + ^ x21: .cfa -24 + ^ x22: .cfa -32 + ^ .ra: .cfa -40 + ^ x29: .cfa -48 + ^
STACK CFI 40288 .cfa: sp 48 +
STACK CFI 40294 .cfa: sp 0 +
STACK CFI INIT 40298 1ac .cfa: sp 0 +
STACK CFI 402a8 .cfa: sp 48 +
STACK CFI 402b4 .cfa: x29 48 + x19: .cfa -8 + ^ x20: .cfa -16 + ^ x21: .cfa -24 + ^ x22: .cfa -32 + ^ .ra: .cfa -40 + ^ x29: .cfa -48 + ^
STACK CFI 40434 .cfa: sp 48 +
STACK CFI 40440 .cfa: sp 0 +
STACK CFI INIT 40444 1a4 .cfa: sp 0 +
STACK CFI 40454 .cfa: sp 48 +
STACK CFI 40460 .cfa: x29 48 + x19: .cfa -8 + ^ x20: .cfa -16 + ^ x21: .cfa -24 + ^ x22: .cfa -32 + ^ .ra: .cfa -40 + ^ x29: .cfa -48 + ^
STACK CFI 405d8 .cfa: sp 48 +
STACK CFI 405e4 .cfa: sp 0 +
STACK CFI INIT 405e8 1ac .cfa: sp 0 +
STACK CFI 405f8 .cfa: sp 48 +
STACK CFI 40604 .cfa: x29 48 + x19: .cfa -8 + ^ x20: .cfa -16 + ^ x21: .cfa -24 + ^ x22: .cfa -32 + ^ .ra: .cfa -40 + ^ x29: .cfa -48 + ^
STACK CFI 40784 .cfa: sp 48 +
STACK CFI 40790 .cfa: sp 0 +
STACK CFI INIT 40794 1ac .cfa: sp 0 +
STACK CFI 407a4 .cfa: sp 48 +
STACK CFI 407b0 .cfa: x29 48 + x19: .cfa -8 + ^ x20: .cfa -16 + ^ x21: .cfa -24 + ^ x22: .cfa -32 + ^ .ra: .cfa -40 + ^ x29: .cfa -48 + ^
STACK CFI 40930 .cfa: sp 48 +
STACK CFI 4093c .cfa: sp 0 +
STACK CFI INIT 40940 196c .cfa: sp 0 +
STACK CFI 40944 .cfa: sp 32 +
STACK CFI 4094c .cfa: x29 32 + x19: .cfa -8 + ^ x20: .cfa -16 + ^ .ra: .cfa -24 + ^ x29: .cfa -32 + ^
STACK CFI 4223c .cfa: sp 32 +
STACK CFI 42244 .cfa: sp 0 +
STACK CFI 42248 .cfa: x29 32 +
STACK CFI 422a0 .cfa: sp 32 +
STACK CFI 422a8 .cfa: sp 0 +
STACK CFI INIT 422ac 298 .cfa: sp 0 +
STACK CFI 422b0 .cfa: sp 32 +
STACK CFI 422b8 .cfa: x29 32 + x19: .cfa -8 + ^ x20: .cfa -16 + ^ .ra: .cfa -24 + ^ x29: .cfa -32 + ^
STACK CFI 424d4 .cfa: sp 32 +
STACK CFI 424dc .cfa: sp 0 +
STACK CFI 424e0 .cfa: x29 32 +
STACK CFI 42538 .cfa: sp 32 +
STACK CFI 42540 .cfa: sp 0 +
STACK CFI INIT 426b0 1ac .cfa: sp 0 +
STACK CFI 426c0 .cfa: sp 48 +
STACK CFI 426cc .cfa: x29 48 + x19: .cfa -8 + ^ x20: .cfa -16 + ^ x21: .cfa -24 + ^ x22: .cfa -32 + ^ .ra: .cfa -40 + ^ x29: .cfa -48 + ^
STACK CFI 4284c .cfa: sp 48 +
STACK CFI 42858 .cfa: sp 0 +
STACK CFI INIT 4285c 1ac .cfa: sp 0 +
STACK CFI 4286c .cfa: sp 48 +
STACK CFI 42878 .cfa: x29 48 + x19: .cfa -8 + ^ x20: .cfa -16 + ^ x21: .cfa -24 + ^ x22: .cfa -32 + ^ .ra: .cfa -40 + ^ x29: .cfa -48 + ^
STACK CFI 429f8 .cfa: sp 48 +
STACK CFI 42a04 .cfa: sp 0 +
STACK CFI INIT 42a08 1a0 .cfa: sp 0 +
STACK CFI 42a18 .cfa: sp 48 +
STACK CFI 42a24 .cfa: x29 48 + x19: .cfa -8 + ^ x20: .cfa -16 + ^ x21: .cfa -32 + ^ .ra: .cfa -40 + ^ x29: .cfa -48 + ^
STACK CFI 42b98 .cfa: sp 48 +
STACK CFI 42ba4 .cfa: sp 0 +
STACK CFI INIT 42ba8 1a4 .cfa: sp 0 +
STACK CFI 42bb8 .cfa: sp 48 +
STACK CFI 42bc4 .cfa: x29 48 + x19: .cfa -8 + ^ x20: .cfa -16 + ^ x21: .cfa -24 + ^ x22: .cfa -32 + ^ .ra: .cfa -40 + ^ x29: .cfa -48 + ^
STACK CFI 42d3c .cfa: sp 48 +
STACK CFI 42d48 .cfa: sp 0 +
STACK CFI INIT 42d4c 1ac .cfa: sp 0 +
STACK CFI 42d5c .cfa: sp 48 +
STACK CFI 42d68 .cfa: x29 48 + x19: .cfa -8 + ^ x20: .cfa -16 + ^ x21: .cfa -24 + ^ x22: .cfa -32 + ^ .ra: .cfa -40 + ^ x29: .cfa -48 + ^
STACK CFI 42ee8 .cfa: sp 48 +
STACK CFI 42ef4 .cfa: sp 0 +
STACK CFI INIT 42ef8 4ac .cfa: sp 0 +
STACK CFI 42efc .cfa: sp 208 +
STACK CFI 42f28 .cfa: x29 96 + x19: .cfa -8 + ^ x20: .cfa -16 + ^ x21: .cfa -24 + ^ x22: .cfa -32 + ^ x23: .cfa -40 + ^ x24: .cfa -48 + ^ x25: .cfa -56 + ^ x26: .cfa -64 + ^ x27: .cfa -72 + ^ x28: .cfa -80 + ^ .ra: .cfa -88 + ^ x29: .cfa -96 + ^ v8: .cfa -104 + ^ v9: .cfa -112 + ^ v10: .cfa -120 + ^ v11: .cfa -128 + ^ v12: .cfa -136 + ^ v13: .cfa -144 + ^ v14: .cfa -152 + ^ v15: .cfa -160 + ^
STACK CFI 43370 .cfa: sp 208 +
STACK CFI 4339c .cfa: sp 0 +
STACK CFI 433a0 .cfa: x29 96 +
STACK CFI INIT 433a4 cc .cfa: sp 0 +
STACK CFI 433a8 .cfa: sp 320 +
STACK CFI 433b4 .cfa: x29 32 + x19: .cfa -8 + ^ x28: .cfa -16 + ^ .ra: .cfa -24 + ^ x29: .cfa -32 + ^
STACK CFI 4345c .cfa: sp 320 +
STACK CFI 43468 .cfa: sp 0 +
STACK CFI 4346c .cfa: x29 32 +
STACK CFI INIT 43470 20c .cfa: sp 0 +
STACK CFI 43474 .cfa: sp 400 +
STACK CFI 43490 .cfa: x29 96 + x19: .cfa -8 + ^ x20: .cfa -16 + ^ x21: .cfa -24 + ^ x22: .cfa -32 + ^ x23: .cfa -40 + ^ x24: .cfa -48 + ^ x25: .cfa -56 + ^ x26: .cfa -64 + ^ x28: .cfa -80 + ^ .ra: .cfa -88 + ^ x29: .cfa -96 + ^
STACK CFI 43658 .cfa: sp 400 +
STACK CFI 43674 .cfa: sp 0 +
STACK CFI 43678 .cfa: x29 96 +
STACK CFI INIT 4367c 98 .cfa: sp 0 +
STACK CFI 43680 .cfa: sp 304 +
STACK CFI 4368c .cfa: x29 32 + x19: .cfa -8 + ^ x28: .cfa -16 + ^ .ra: .cfa -24 + ^ x29: .cfa -32 + ^
STACK CFI 43700 .cfa: sp 304 +
STACK CFI 4370c .cfa: sp 0 +
STACK CFI 43710 .cfa: x29 32 +
STACK CFI INIT 43714 2c4 .cfa: sp 0 +
STACK CFI 43718 .cfa: sp 192 +
STACK CFI 43738 .cfa: x29 56 + x19: .cfa -8 + ^ x20: .cfa -16 + ^ x21: .cfa -24 + ^ x22: .cfa -32 + ^ x23: .cfa -40 + ^ .ra: .cfa -48 + ^ x29: .cfa -56 + ^ v8: .cfa -64 + ^ v9: .cfa -72 + ^ v10: .cfa -80 + ^ v11: .cfa -88 + ^ v12: .cfa -96 + ^
STACK CFI 439b0 .cfa: sp 192 +
STACK CFI 439d0 .cfa: sp 0 +
STACK CFI 439d4 .cfa: x29 56 +
STACK CFI INIT 439d8 a38 .cfa: sp 0 +
STACK CFI 439dc .cfa: sp 144 +
STACK CFI 439f8 .cfa: x29 96 + x19: .cfa -8 + ^ x20: .cfa -16 + ^ x21: .cfa -24 + ^ x22: .cfa -32 + ^ x23: .cfa -40 + ^ x24: .cfa -48 + ^ x25: .cfa -56 + ^ x26: .cfa -64 + ^ x27: .cfa -72 + ^ x28: .cfa -80 + ^ .ra: .cfa -88 + ^ x29: .cfa -96 + ^
STACK CFI 443e4 .cfa: sp 144 +
STACK CFI 44400 .cfa: sp 0 +
STACK CFI 44404 .cfa: x29 96 +
STACK CFI INIT 44410 4d0 .cfa: sp 0 +
STACK CFI 44414 .cfa: sp 160 +
STACK CFI 44430 .cfa: x29 96 + x19: .cfa -8 + ^ x20: .cfa -16 + ^ x21: .cfa -24 + ^ x22: .cfa -32 + ^ x23: .cfa -40 + ^ x24: .cfa -48 + ^ x25: .cfa -56 + ^ x26: .cfa -64 + ^ x27: .cfa -72 + ^ x28: .cfa -80 + ^ .ra: .cfa -88 + ^ x29: .cfa -96 + ^
STACK CFI 448b4 .cfa: sp 160 +
STACK CFI 448d0 .cfa: sp 0 +
STACK CFI 448d4 .cfa: x29 96 +
STACK CFI INIT 448e0 458 .cfa: sp 0 +
STACK CFI 448e4 .cfa: sp 208 +
STACK CFI 44904 .cfa: x29 96 + x19: .cfa -8 + ^ x20: .cfa -16 + ^ x21: .cfa -24 + ^ x22: .cfa -32 + ^ x23: .cfa -40 + ^ x24: .cfa -48 + ^ x25: .cfa -56 + ^ x26: .cfa -64 + ^ x27: .cfa -80 + ^ .ra: .cfa -88 + ^ x29: .cfa -96 + ^ v8: .cfa -104 + ^ v9: .cfa -112 + ^
STACK CFI 44d10 .cfa: sp 208 +
STACK CFI 44d30 .cfa: sp 0 +
STACK CFI 44d34 .cfa: x29 96 +
STACK CFI INIT 44d38 414 .cfa: sp 0 +
STACK CFI 44d3c .cfa: sp 240 +
STACK CFI 44d60 .cfa: x29 96 + x19: .cfa -8 + ^ x20: .cfa -16 + ^ x21: .cfa -24 + ^ x22: .cfa -32 + ^ x23: .cfa -40 + ^ x24: .cfa -48 + ^ x25: .cfa -56 + ^ x26: .cfa -64 + ^ x27: .cfa -72 + ^ x28: .cfa -80 + ^ .ra: .cfa -88 + ^ x29: .cfa -96 + ^ v8: .cfa -104 + ^ v9: .cfa -112 + ^ v10: .cfa -128 + ^
STACK CFI 45120 .cfa: sp 240 +
STACK CFI 45144 .cfa: sp 0 +
STACK CFI 45148 .cfa: x29 96 +
STACK CFI INIT 4514c 478 .cfa: sp 0 +
STACK CFI 45150 .cfa: sp 144 +
STACK CFI 45168 .cfa: x29 80 + x19: .cfa -8 + ^ x20: .cfa -16 + ^ x21: .cfa -24 + ^ x22: .cfa -32 + ^ x23: .cfa -40 + ^ x24: .cfa -48 + ^ x25: .cfa -56 + ^ x26: .cfa -64 + ^ .ra: .cfa -72 + ^ x29: .cfa -80 + ^
STACK CFI 455a4 .cfa: sp 144 +
STACK CFI 455bc .cfa: sp 0 +
STACK CFI 455c0 .cfa: x29 80 +
STACK CFI INIT 455c4 7a8 .cfa: sp 0 +
STACK CFI 455c8 .cfa: sp 240 +
STACK CFI 455f4 .cfa: x29 96 + x19: .cfa -8 + ^ x20: .cfa -16 + ^ x21: .cfa -24 + ^ x22: .cfa -32 + ^ x23: .cfa -40 + ^ x24: .cfa -48 + ^ x25: .cfa -56 + ^ x26: .cfa -64 + ^ x27: .cfa -72 + ^ x28: .cfa -80 + ^ .ra: .cfa -88 + ^ x29: .cfa -96 + ^ v8: .cfa -104 + ^ v9: .cfa -112 + ^ v10: .cfa -120 + ^ v11: .cfa -128 + ^ v12: .cfa -136 + ^ v13: .cfa -144 + ^ v14: .cfa -152 + ^ v15: .cfa -160 + ^
STACK CFI 45cac .cfa: sp 240 +
STACK CFI 45cd8 .cfa: sp 0 +
STACK CFI 45cdc .cfa: x29 96 +
STACK CFI INIT 45d6c 560 .cfa: sp 0 +
STACK CFI 45d70 .cfa: sp 144 +
STACK CFI 45d90 .cfa: x29 80 + x19: .cfa -8 + ^ x20: .cfa -16 + ^ x21: .cfa -24 + ^ x22: .cfa -32 + ^ x23: .cfa -40 + ^ x24: .cfa -48 + ^ x25: .cfa -56 + ^ x26: .cfa -64 + ^ .ra: .cfa -72 + ^ x29: .cfa -80 + ^ v8: .cfa -88 + ^ v9: .cfa -96 + ^ v10: .cfa -104 + ^ v11: .cfa -112 + ^
STACK CFI 45dc8 .cfa: sp 144 +
STACK CFI 45de8 .cfa: sp 0 +
STACK CFI 45dec .cfa: x29 80 +
STACK CFI INIT 462cc 394 .cfa: sp 0 +
STACK CFI 462d0 .cfa: sp 208 +
STACK CFI 462f8 .cfa: x29 80 + x19: .cfa -8 + ^ x20: .cfa -16 + ^ x21: .cfa -24 + ^ x22: .cfa -32 + ^ x23: .cfa -40 + ^ x24: .cfa -48 + ^ x25: .cfa -56 + ^ x26: .cfa -64 + ^ .ra: .cfa -72 + ^ x29: .cfa -80 + ^ v8: .cfa -88 + ^ v9: .cfa -96 + ^ v10: .cfa -104 + ^ v11: .cfa -112 + ^ v12: .cfa -120 + ^ v13: .cfa -128 + ^ v14: .cfa -144 + ^
STACK CFI 46630 .cfa: sp 208 +
STACK CFI 46658 .cfa: sp 0 +
STACK CFI 4665c .cfa: x29 80 +
STACK CFI INIT 46660 30 .cfa: sp 0 +
STACK CFI INIT 46690 e54 .cfa: sp 0 +
STACK CFI 46694 .cfa: sp 336 +
STACK CFI 466c0 .cfa: x29 96 + x19: .cfa -8 + ^ x20: .cfa -16 + ^ x21: .cfa -24 + ^ x22: .cfa -32 + ^ x23: .cfa -40 + ^ x24: .cfa -48 + ^ x25: .cfa -56 + ^ x26: .cfa -64 + ^ x27: .cfa -72 + ^ x28: .cfa -80 + ^ .ra: .cfa -88 + ^ x29: .cfa -96 + ^ v8: .cfa -104 + ^ v9: .cfa -112 + ^ v10: .cfa -120 + ^ v11: .cfa -128 + ^ v12: .cfa -136 + ^ v13: .cfa -144 + ^ v14: .cfa -152 + ^ v15: .cfa -160 + ^
STACK CFI 470c0 .cfa: sp 336 +
STACK CFI 470ec .cfa: sp 0 +
STACK CFI 470f0 .cfa: x29 96 +
STACK CFI INIT 474e4 13b8 .cfa: sp 0 +
STACK CFI 474e8 .cfa: sp 352 +
STACK CFI 47510 .cfa: x29 96 + x19: .cfa -8 + ^ x20: .cfa -16 + ^ x21: .cfa -24 + ^ x22: .cfa -32 + ^ x23: .cfa -40 + ^ x24: .cfa -48 + ^ x25: .cfa -56 + ^ x26: .cfa -64 + ^ x27: .cfa -72 + ^ x28: .cfa -80 + ^ .ra: .cfa -88 + ^ x29: .cfa -96 + ^ v8: .cfa -104 + ^ v9: .cfa -112 + ^ v10: .cfa -120 + ^ v11: .cfa -128 + ^ v12: .cfa -136 + ^ v13: .cfa -144 + ^
STACK CFI 4754c .cfa: sp 352 +
STACK CFI 47574 .cfa: sp 0 +
STACK CFI 47578 .cfa: x29 96 +
STACK CFI INIT 489ac 2b8 .cfa: sp 0 +
STACK CFI 489b0 .cfa: sp 48 +
STACK CFI 489bc .cfa: x29 48 + x19: .cfa -8 + ^ x20: .cfa -16 + ^ x21: .cfa -32 + ^ .ra: .cfa -40 + ^ x29: .cfa -48 + ^
STACK CFI 48be8 .cfa: sp 48 +
STACK CFI 48bf4 .cfa: sp 0 +
STACK CFI 48bf8 .cfa: x29 48 +
STACK CFI 48c54 .cfa: sp 48 +
STACK CFI 48c60 .cfa: sp 0 +
STACK CFI INIT 48c64 3b0 .cfa: sp 0 +
STACK CFI 48c68 .cfa: sp 80 +
STACK CFI 48c7c .cfa: x29 80 + x19: .cfa -8 + ^ x20: .cfa -16 + ^ x21: .cfa -24 + ^ x22: .cfa -32 + ^ x23: .cfa -40 + ^ x24: .cfa -48 + ^ x25: .cfa -64 + ^ .ra: .cfa -72 + ^ x29: .cfa -80 + ^
STACK CFI 48f78 .cfa: sp 80 +
STACK CFI 48f8c .cfa: sp 0 +
STACK CFI 48f90 .cfa: x29 80 +
STACK CFI 48ffc .cfa: sp 80 +
STACK CFI 49010 .cfa: sp 0 +
STACK CFI INIT 49014 124 .cfa: sp 0 +
STACK CFI 49018 .cfa: sp 48 +
STACK CFI 49024 .cfa: x29 48 + x19: .cfa -8 + ^ x20: .cfa -16 + ^ x21: .cfa -24 + ^ x22: .cfa -32 + ^ .ra: .cfa -40 + ^ x29: .cfa -48 + ^
STACK CFI 490dc .cfa: sp 48 +
STACK CFI 490e8 .cfa: sp 0 +
STACK CFI 490ec .cfa: x29 48 +
STACK CFI 490f0 .cfa: sp 48 +
STACK CFI 490fc .cfa: sp 0 +
STACK CFI 49100 .cfa: x29 48 +
STACK CFI INIT 49138 3a0 .cfa: sp 0 +
STACK CFI 4913c .cfa: sp 96 +
STACK CFI 49150 .cfa: x29 64 + x19: .cfa -8 + ^ x20: .cfa -16 + ^ x21: .cfa -24 + ^ x22: .cfa -32 + ^ x23: .cfa -48 + ^ .ra: .cfa -56 + ^ x29: .cfa -64 + ^
STACK CFI 494bc .cfa: sp 96 +
STACK CFI 494d0 .cfa: sp 0 +
STACK CFI 494d4 .cfa: x29 64 +
STACK CFI INIT 494d8 c0c .cfa: sp 0 +
STACK CFI 494dc .cfa: sp 256 +
STACK CFI 49508 .cfa: x29 96 + x19: .cfa -8 + ^ x20: .cfa -16 + ^ x21: .cfa -24 + ^ x22: .cfa -32 + ^ x23: .cfa -40 + ^ x24: .cfa -48 + ^ x25: .cfa -56 + ^ x26: .cfa -64 + ^ x27: .cfa -72 + ^ x28: .cfa -80 + ^ .ra: .cfa -88 + ^ x29: .cfa -96 + ^ v8: .cfa -104 + ^ v9: .cfa -112 + ^ v10: .cfa -120 + ^ v11: .cfa -128 + ^ v12: .cfa -136 + ^ v13: .cfa -144 + ^ v14: .cfa -160 + ^
STACK CFI 4a074 .cfa: sp 256 +
STACK CFI 4a0a0 .cfa: sp 0 +
STACK CFI 4a0a4 .cfa: x29 96 +
STACK CFI INIT 4a0e4 54 .cfa: sp 0 +
STACK CFI INIT 4a138 2bc .cfa: sp 0 +
STACK CFI 4a13c .cfa: sp 112 +
STACK CFI 4a158 .cfa: x29 96 + x19: .cfa -8 + ^ x20: .cfa -16 + ^ x21: .cfa -24 + ^ x22: .cfa -32 + ^ x23: .cfa -40 + ^ x24: .cfa -48 + ^ x25: .cfa -56 + ^ x26: .cfa -64 + ^ x27: .cfa -72 + ^ x28: .cfa -80 + ^ .ra: .cfa -88 + ^ x29: .cfa -96 + ^
STACK CFI 4a3d0 .cfa: sp 112 +
STACK CFI 4a3ec .cfa: sp 0 +
STACK CFI 4a3f0 .cfa: x29 96 +
STACK CFI INIT 4a3f4 a44 .cfa: sp 0 +
STACK CFI 4a3f8 .cfa: sp 208 +
STACK CFI 4a424 .cfa: x29 96 + x19: .cfa -8 + ^ x20: .cfa -16 + ^ x21: .cfa -24 + ^ x22: .cfa -32 + ^ x23: .cfa -40 + ^ x24: .cfa -48 + ^ x25: .cfa -56 + ^ x26: .cfa -64 + ^ x27: .cfa -72 + ^ x28: .cfa -80 + ^ .ra: .cfa -88 + ^ x29: .cfa -96 + ^ v8: .cfa -104 + ^ v9: .cfa -112 + ^ v10: .cfa -120 + ^ v11: .cfa -128 + ^ v12: .cfa -136 + ^ v13: .cfa -144 + ^ v14: .cfa -160 + ^
STACK CFI 4a464 .cfa: sp 208 +
STACK CFI 4a490 .cfa: sp 0 +
STACK CFI 4a494 .cfa: x29 96 +
STACK CFI INIT 4ae38 1b4 .cfa: sp 0 +
STACK CFI 4ae3c .cfa: sp 48 +
STACK CFI 4ae48 .cfa: x29 48 + x19: .cfa -8 + ^ x20: .cfa -16 + ^ x21: .cfa -24 + ^ x22: .cfa -32 + ^ .ra: .cfa -40 + ^ x29: .cfa -48 + ^
STACK CFI 4ae5c .cfa: sp 48 +
STACK CFI 4ae68 .cfa: sp 0 +
STACK CFI 4ae6c .cfa: x29 48 +
STACK CFI 4aef8 .cfa: sp 48 +
STACK CFI 4af04 .cfa: sp 0 +
STACK CFI 4af08 .cfa: x29 48 +
STACK CFI 4af10 .cfa: sp 48 +
STACK CFI 4af1c .cfa: sp 0 +
STACK CFI 4af20 .cfa: x29 48 +
STACK CFI 4afb0 .cfa: sp 48 +
STACK CFI 4afbc .cfa: sp 0 +
STACK CFI 4afc0 .cfa: x29 48 +
STACK CFI 4afdc .cfa: sp 48 +
STACK CFI 4afe8 .cfa: sp 0 +
STACK CFI INIT 4afec 1e14 .cfa: sp 0 +
STACK CFI 4aff0 .cfa: sp 384 +
STACK CFI 4b01c .cfa: x29 96 + x19: .cfa -8 + ^ x20: .cfa -16 + ^ x21: .cfa -24 + ^ x22: .cfa -32 + ^ x23: .cfa -40 + ^ x24: .cfa -48 + ^ x25: .cfa -56 + ^ x26: .cfa -64 + ^ x27: .cfa -72 + ^ x28: .cfa -80 + ^ .ra: .cfa -88 + ^ x29: .cfa -96 + ^ v8: .cfa -104 + ^ v9: .cfa -112 + ^ v10: .cfa -120 + ^ v11: .cfa -128 + ^ v12: .cfa -136 + ^ v13: .cfa -144 + ^ v14: .cfa -152 + ^ v15: .cfa -160 + ^
STACK CFI 4cd88 .cfa: sp 384 +
STACK CFI 4cdb4 .cfa: sp 0 +
STACK CFI 4cdb8 .cfa: x29 96 +
STACK CFI INIT 4ce00 48 .cfa: sp 0 +
STACK CFI INIT 4ce48 39bc .cfa: sp 0 +
STACK CFI 4ce4c .cfa: sp 448 +
STACK CFI 4ce78 .cfa: x29 96 + x19: .cfa -8 + ^ x20: .cfa -16 + ^ x21: .cfa -24 + ^ x22: .cfa -32 + ^ x23: .cfa -40 + ^ x24: .cfa -48 + ^ x25: .cfa -56 + ^ x26: .cfa -64 + ^ x27: .cfa -72 + ^ x28: .cfa -80 + ^ .ra: .cfa -88 + ^ x29: .cfa -96 + ^ v8: .cfa -104 + ^ v9: .cfa -112 + ^ v10: .cfa -120 + ^ v11: .cfa -128 + ^ v12: .cfa -136 + ^ v13: .cfa -144 + ^ v14: .cfa -152 + ^ v15: .cfa -160 + ^
STACK CFI 50760 .cfa: sp 448 +
STACK CFI 5078c .cfa: sp 0 +
STACK CFI 50790 .cfa: x29 96 +
STACK CFI INIT 50804 930 .cfa: sp 0 +
STACK CFI 50808 .cfa: sp 192 +
STACK CFI 50830 .cfa: x29 96 + x19: .cfa -8 + ^ x20: .cfa -16 + ^ x21: .cfa -24 + ^ x22: .cfa -32 + ^ x23: .cfa -40 + ^ x24: .cfa -48 + ^ x25: .cfa -56 + ^ x26: .cfa -64 + ^ x27: .cfa -72 + ^ x28: .cfa -80 + ^ .ra: .cfa -88 + ^ x29: .cfa -96 + ^ v8: .cfa -104 + ^ v9: .cfa -112 + ^ v10: .cfa -120 + ^ v11: .cfa -128 + ^ v12: .cfa -136 + ^ v13: .cfa -144 + ^
STACK CFI 51104 .cfa: sp 192 +
STACK CFI 5112c .cfa: sp 0 +
STACK CFI 51130 .cfa: x29 96 +
STACK CFI INIT 51134 27c .cfa: sp 0 +
STACK CFI 51138 .cfa: sp 96 +
STACK CFI 51150 .cfa: x29 96 + x19: .cfa -8 + ^ x20: .cfa -16 + ^ x21: .cfa -24 + ^ x22: .cfa -32 + ^ x23: .cfa -40 + ^ x24: .cfa -48 + ^ x25: .cfa -56 + ^ x26: .cfa -64 + ^ x27: .cfa -72 + ^ x28: .cfa -80 + ^ .ra: .cfa -88 + ^ x29: .cfa -96 + ^
STACK CFI 51394 .cfa: sp 96 +
STACK CFI 513ac .cfa: sp 0 +
STACK CFI INIT 513b0 118 .cfa: sp 0 +
STACK CFI 513b4 .cfa: sp 32 +
STACK CFI 513bc .cfa: x29 32 + x19: .cfa -16 + ^ .ra: .cfa -24 + ^ x29: .cfa -32 + ^
STACK CFI 514bc .cfa: sp 32 +
STACK CFI 514c4 .cfa: sp 0 +
STACK CFI INIT 514c8 154 .cfa: sp 0 +
STACK CFI 514cc .cfa: sp 48 +
STACK CFI 514d8 .cfa: x29 32 + x19: .cfa -16 + ^ .ra: .cfa -24 + ^ x29: .cfa -32 + ^
STACK CFI 5159c .cfa: sp 48 +
STACK CFI 515a8 .cfa: sp 0 +
STACK CFI 515ac .cfa: x29 32 +
STACK CFI INIT 5161c 31c .cfa: sp 0 +
STACK CFI 51620 .cfa: sp 80 +
STACK CFI 51630 .cfa: x29 48 + x19: .cfa -8 + ^ x20: .cfa -16 + ^ x21: .cfa -24 + ^ x22: .cfa -32 + ^ .ra: .cfa -40 + ^ x29: .cfa -48 + ^
STACK CFI 51920 .cfa: sp 80 +
STACK CFI 51930 .cfa: sp 0 +
STACK CFI 51934 .cfa: x29 48 +
STACK CFI INIT 51938 54 .cfa: sp 0 +
STACK CFI INIT 5198c 44c .cfa: sp 0 +
STACK CFI 51990 .cfa: sp 112 +
STACK CFI 519ac .cfa: x29 96 + x19: .cfa -8 + ^ x20: .cfa -16 + ^ x21: .cfa -24 + ^ x22: .cfa -32 + ^ x23: .cfa -40 + ^ x24: .cfa -48 + ^ x25: .cfa -56 + ^ x26: .cfa -64 + ^ x27: .cfa -72 + ^ x28: .cfa -80 + ^ .ra: .cfa -88 + ^ x29: .cfa -96 + ^
STACK CFI 51db8 .cfa: sp 112 +
STACK CFI 51dd4 .cfa: sp 0 +
STACK CFI INIT 51dd8 220 .cfa: sp 0 +
STACK CFI 51ddc .cfa: sp 64 +
STACK CFI 51dec .cfa: x29 64 + x19: .cfa -8 + ^ x20: .cfa -16 + ^ x21: .cfa -24 + ^ x22: .cfa -32 + ^ x23: .cfa -48 + ^ .ra: .cfa -56 + ^ x29: .cfa -64 + ^
STACK CFI 51fe4 .cfa: sp 64 +
STACK CFI 51ff4 .cfa: sp 0 +
STACK CFI INIT 5249c 6a0 .cfa: sp 0 +
STACK CFI 524a0 .cfa: sp 224 +
STACK CFI 524cc .cfa: x29 96 + x19: .cfa -8 + ^ x20: .cfa -16 + ^ x21: .cfa -24 + ^ x22: .cfa -32 + ^ x23: .cfa -40 + ^ x24: .cfa -48 + ^ x25: .cfa -56 + ^ x26: .cfa -64 + ^ x27: .cfa -72 + ^ x28: .cfa -80 + ^ .ra: .cfa -88 + ^ x29: .cfa -96 + ^ v8: .cfa -104 + ^ v9: .cfa -112 + ^ v10: .cfa -120 + ^ v11: .cfa -128 + ^ v12: .cfa -136 + ^ v13: .cfa -144 + ^ v14: .cfa -152 + ^ v15: .cfa -160 + ^
STACK CFI 52630 .cfa: sp 224 +
STACK CFI 5265c .cfa: sp 0 +
STACK CFI 52660 .cfa: x29 96 +
STACK CFI INIT 52b3c 258 .cfa: sp 0 +
STACK CFI INIT 52d94 d1c .cfa: sp 0 +
STACK CFI 52d98 .cfa: sp 144 +
STACK CFI 52dac .cfa: x29 64 + x19: .cfa -8 + ^ x20: .cfa -16 + ^ x21: .cfa -24 + ^ x22: .cfa -32 + ^ x23: .cfa -40 + ^ x24: .cfa -48 + ^ .ra: .cfa -56 + ^ x29: .cfa -64 + ^
STACK CFI 53a94 .cfa: sp 144 +
STACK CFI 53aa8 .cfa: sp 0 +
STACK CFI 53aac .cfa: x29 64 +
STACK CFI INIT 53ab0 6fc .cfa: sp 0 +
STACK CFI 53ac0 .cfa: sp 96 +
STACK CFI 53ad8 .cfa: x29 96 + x19: .cfa -8 + ^ x20: .cfa -16 + ^ x21: .cfa -24 + ^ x22: .cfa -32 + ^ x23: .cfa -40 + ^ x24: .cfa -48 + ^ x25: .cfa -56 + ^ x26: .cfa -64 + ^ x27: .cfa -80 + ^ .ra: .cfa -88 + ^ x29: .cfa -96 + ^
STACK CFI 54190 .cfa: sp 96 +
STACK CFI 541a8 .cfa: sp 0 +
STACK CFI INIT 541ac 4d0 .cfa: sp 0 +
STACK CFI 541b0 .cfa: sp 48 +
STACK CFI 541bc .cfa: x29 48 + x19: .cfa -8 + ^ x20: .cfa -16 + ^ x21: .cfa -32 + ^ .ra: .cfa -40 + ^ x29: .cfa -48 + ^
STACK CFI 5466c .cfa: sp 48 +
STACK CFI 54678 .cfa: sp 0 +
STACK CFI INIT 5467c 27c .cfa: sp 0 +
STACK CFI 54680 .cfa: sp 96 +
STACK CFI 54698 .cfa: x29 96 + x19: .cfa -8 + ^ x20: .cfa -16 + ^ x21: .cfa -24 + ^ x22: .cfa -32 + ^ x23: .cfa -40 + ^ x24: .cfa -48 + ^ x25: .cfa -56 + ^ x26: .cfa -64 + ^ x27: .cfa -72 + ^ x28: .cfa -80 + ^ .ra: .cfa -88 + ^ x29: .cfa -96 + ^
STACK CFI 548dc .cfa: sp 96 +
STACK CFI 548f4 .cfa: sp 0 +
STACK CFI INIT 548f8 25c .cfa: sp 0 +
STACK CFI 548fc .cfa: sp 160 +
STACK CFI 54918 .cfa: x29 96 + x19: .cfa -8 + ^ x20: .cfa -16 + ^ x21: .cfa -24 + ^ x22: .cfa -32 + ^ x23: .cfa -40 + ^ x24: .cfa -48 + ^ x25: .cfa -56 + ^ x26: .cfa -64 + ^ x27: .cfa -80 + ^ .ra: .cfa -88 + ^ x29: .cfa -96 + ^
STACK CFI 54b30 .cfa: sp 160 +
STACK CFI 54b4c .cfa: sp 0 +
STACK CFI 54b50 .cfa: x29 96 +
STACK CFI INIT 54b54 300 .cfa: sp 0 +
STACK CFI 54b58 .cfa: sp 96 +
STACK CFI 54b70 .cfa: x29 64 + x19: .cfa -8 + ^ x20: .cfa -16 + ^ x21: .cfa -24 + ^ x22: .cfa -32 + ^ x23: .cfa -48 + ^ .ra: .cfa -56 + ^ x29: .cfa -64 + ^ v8: .cfa -72 + ^ v9: .cfa -80 + ^ v10: .cfa -88 + ^ v11: .cfa -96 + ^
STACK CFI 54db8 .cfa: sp 96 +
STACK CFI 54dd0 .cfa: sp 0 +
STACK CFI 54dd4 .cfa: x29 64 +
STACK CFI 54e2c .cfa: sp 96 +
STACK CFI 54e44 .cfa: sp 0 +
STACK CFI 54e48 .cfa: x29 64 +
STACK CFI INIT 54e54 c8 .cfa: sp 0 +
STACK CFI INIT 54f1c 29c .cfa: sp 0 +
STACK CFI 54f20 .cfa: sp 64 +
STACK CFI 54f30 .cfa: x29 64 + x19: .cfa -8 + ^ x20: .cfa -16 + ^ x21: .cfa -24 + ^ x22: .cfa -32 + ^ x23: .cfa -40 + ^ x24: .cfa -48 + ^ .ra: .cfa -56 + ^ x29: .cfa -64 + ^
STACK CFI 55120 .cfa: sp 64 +
STACK CFI 55130 .cfa: sp 0 +
STACK CFI 55134 .cfa: x29 64 +
STACK CFI 55188 .cfa: sp 64 +
STACK CFI 55198 .cfa: sp 0 +
STACK CFI 5519c .cfa: x29 64 +
STACK CFI 551a4 .cfa: sp 64 +
STACK CFI 551b4 .cfa: sp 0 +
STACK CFI INIT 551b8 424 .cfa: sp 0 +
STACK CFI 551bc .cfa: sp 96 +
STACK CFI 551d4 .cfa: x29 96 + x19: .cfa -8 + ^ x20: .cfa -16 + ^ x21: .cfa -24 + ^ x22: .cfa -32 + ^ x23: .cfa -40 + ^ x24: .cfa -48 + ^ x25: .cfa -56 + ^ x26: .cfa -64 + ^ x27: .cfa -80 + ^ .ra: .cfa -88 + ^ x29: .cfa -96 + ^
STACK CFI 555c0 .cfa: sp 96 +
STACK CFI 555d8 .cfa: sp 0 +
STACK CFI INIT 555dc 9dc .cfa: sp 0 +
STACK CFI 555e8 .cfa: sp 160 +
STACK CFI 5560c .cfa: x29 96 + x19: .cfa -8 + ^ x20: .cfa -16 + ^ x21: .cfa -24 + ^ x22: .cfa -32 + ^ x23: .cfa -40 + ^ x24: .cfa -48 + ^ x25: .cfa -56 + ^ x26: .cfa -64 + ^ x27: .cfa -72 + ^ x28: .cfa -80 + ^ .ra: .cfa -88 + ^ x29: .cfa -96 + ^ v8: .cfa -104 + ^ v9: .cfa -112 + ^ v10: .cfa -128 + ^
STACK CFI 55f90 .cfa: sp 160 +
STACK CFI 55fb4 .cfa: sp 0 +
STACK CFI INIT 55fb8 58c .cfa: sp 0 +
STACK CFI 55fc4 .cfa: sp 112 +
STACK CFI 55fe0 .cfa: x29 96 + x19: .cfa -8 + ^ x20: .cfa -16 + ^ x21: .cfa -24 + ^ x22: .cfa -32 + ^ x23: .cfa -40 + ^ x24: .cfa -48 + ^ x25: .cfa -56 + ^ x26: .cfa -64 + ^ x27: .cfa -72 + ^ x28: .cfa -80 + ^ .ra: .cfa -88 + ^ x29: .cfa -96 + ^ v8: .cfa -112 + ^
STACK CFI 56524 .cfa: sp 112 +
STACK CFI 56540 .cfa: sp 0 +
STACK CFI INIT 56544 65c .cfa: sp 0 +
STACK CFI 56548 .cfa: sp 128 +
STACK CFI 56564 .cfa: x29 96 + x19: .cfa -8 + ^ x20: .cfa -16 + ^ x21: .cfa -24 + ^ x22: .cfa -32 + ^ x23: .cfa -40 + ^ x24: .cfa -48 + ^ x25: .cfa -56 + ^ x26: .cfa -64 + ^ x27: .cfa -72 + ^ x28: .cfa -80 + ^ .ra: .cfa -88 + ^ x29: .cfa -96 + ^
STACK CFI 56b80 .cfa: sp 128 +
STACK CFI 56b9c .cfa: sp 0 +
STACK CFI INIT 56ba0 5ec .cfa: sp 0 +
STACK CFI 56ba4 .cfa: sp 176 +
STACK CFI 56bd0 .cfa: x29 96 + x19: .cfa -8 + ^ x20: .cfa -16 + ^ x21: .cfa -24 + ^ x22: .cfa -32 + ^ x23: .cfa -40 + ^ x24: .cfa -48 + ^ x25: .cfa -56 + ^ x26: .cfa -64 + ^ x27: .cfa -72 + ^ x28: .cfa -80 + ^ .ra: .cfa -88 + ^ x29: .cfa -96 + ^ v8: .cfa -104 + ^ v9: .cfa -112 + ^ v10: .cfa -120 + ^ v11: .cfa -128 + ^ v12: .cfa -136 + ^ v13: .cfa -144 + ^ v14: .cfa -152 + ^ v15: .cfa -160 + ^
STACK CFI 5715c .cfa: sp 176 +
STACK CFI 57188 .cfa: sp 0 +
STACK CFI INIT 5718c 230 .cfa: sp 0 +
STACK CFI 57190 .cfa: sp 64 +
STACK CFI 571a0 .cfa: x29 64 + x19: .cfa -8 + ^ x20: .cfa -16 + ^ x21: .cfa -24 + ^ x22: .cfa -32 + ^ x23: .cfa -40 + ^ x24: .cfa -48 + ^ .ra: .cfa -56 + ^ x29: .cfa -64 + ^
STACK CFI 571e8 .cfa: sp 64 +
STACK CFI 571f8 .cfa: sp 0 +
STACK CFI 571fc .cfa: x29 64 +
STACK CFI 573a8 .cfa: sp 64 +
STACK CFI 573b8 .cfa: sp 0 +
STACK CFI INIT 573bc 930 .cfa: sp 0 +
STACK CFI 573c0 .cfa: sp 144 +
STACK CFI 573e8 .cfa: x29 88 + x19: .cfa -8 + ^ x20: .cfa -16 + ^ x21: .cfa -24 + ^ x22: .cfa -32 + ^ x23: .cfa -40 + ^ x24: .cfa -48 + ^ x25: .cfa -56 + ^ x26: .cfa -64 + ^ x27: .cfa -72 + ^ .ra: .cfa -80 + ^ x29: .cfa -88 + ^ v8: .cfa -96 + ^ v9: .cfa -104 + ^ v10: .cfa -112 + ^ v11: .cfa -120 + ^ v12: .cfa -128 + ^
STACK CFI 577e0 .cfa: sp 144 +
STACK CFI 57808 .cfa: sp 0 +
STACK CFI 5780c .cfa: x29 88 +
STACK CFI 578f8 .cfa: sp 144 +
STACK CFI 57920 .cfa: sp 0 +
STACK CFI 57924 .cfa: x29 88 +
STACK CFI INIT 57cec 8d0 .cfa: sp 0 +
STACK CFI 57cf0 .cfa: sp 144 +
STACK CFI 57d10 .cfa: x29 96 + x19: .cfa -8 + ^ x20: .cfa -16 + ^ x21: .cfa -24 + ^ x22: .cfa -32 + ^ x23: .cfa -40 + ^ x24: .cfa -48 + ^ x25: .cfa -56 + ^ x26: .cfa -64 + ^ x27: .cfa -72 + ^ x28: .cfa -80 + ^ .ra: .cfa -88 + ^ x29: .cfa -96 + ^ v8: .cfa -104 + ^ v9: .cfa -112 + ^
STACK CFI 58594 .cfa: sp 144 +
STACK CFI 585b4 .cfa: sp 0 +
STACK CFI 585b8 .cfa: x29 96 +
STACK CFI INIT 585bc 3f4 .cfa: sp 0 +
STACK CFI 585c8 .cfa: sp 96 +
STACK CFI 585e0 .cfa: x29 80 + x19: .cfa -8 + ^ x20: .cfa -16 + ^ x21: .cfa -24 + ^ x22: .cfa -32 + ^ x23: .cfa -40 + ^ x24: .cfa -48 + ^ x25: .cfa -56 + ^ x26: .cfa -64 + ^ .ra: .cfa -72 + ^ x29: .cfa -80 + ^ v8: .cfa -88 + ^ v9: .cfa -96 + ^
STACK CFI 58994 .cfa: sp 96 +
STACK CFI 589ac .cfa: sp 0 +
STACK CFI INIT 589b0 d0 .cfa: sp 0 +
STACK CFI 589b4 .cfa: sp 80 +
STACK CFI 589c8 .cfa: x29 40 + x19: .cfa -8 + ^ x20: .cfa -16 + ^ x21: .cfa -24 + ^ .ra: .cfa -32 + ^ x29: .cfa -40 + ^ v8: .cfa -48 + ^
STACK CFI 58a64 .cfa: sp 80 +
STACK CFI 58a78 .cfa: sp 0 +
STACK CFI 58a7c .cfa: x29 40 +
STACK CFI INIT 58a80 130 .cfa: sp 0 +
STACK CFI 58a8c .cfa: sp 48 +
STACK CFI 58a98 .cfa: x29 48 + x19: .cfa -8 + ^ x20: .cfa -16 + ^ x21: .cfa -24 + ^ x22: .cfa -32 + ^ .ra: .cfa -40 + ^ x29: .cfa -48 + ^
STACK CFI 58ba0 .cfa: sp 48 +
STACK CFI 58bac .cfa: sp 0 +
STACK CFI INIT 58bb0 594 .cfa: sp 0 +
STACK CFI 58bbc .cfa: sp 96 +
STACK CFI 58bd4 .cfa: x29 96 + x19: .cfa -8 + ^ x20: .cfa -16 + ^ x21: .cfa -24 + ^ x22: .cfa -32 + ^ x23: .cfa -40 + ^ x24: .cfa -48 + ^ x25: .cfa -56 + ^ x26: .cfa -64 + ^ x27: .cfa -72 + ^ x28: .cfa -80 + ^ .ra: .cfa -88 + ^ x29: .cfa -96 + ^
STACK CFI 59128 .cfa: sp 96 +
STACK CFI 59140 .cfa: sp 0 +
STACK CFI INIT 59144 744 .cfa: sp 0 +
STACK CFI 59148 .cfa: sp 224 +
STACK CFI 59174 .cfa: x29 96 + x19: .cfa -8 + ^ x20: .cfa -16 + ^ x21: .cfa -24 + ^ x22: .cfa -32 + ^ x23: .cfa -40 + ^ x24: .cfa -48 + ^ x25: .cfa -56 + ^ x26: .cfa -64 + ^ x27: .cfa -72 + ^ x28: .cfa -80 + ^ .ra: .cfa -88 + ^ x29: .cfa -96 + ^ v8: .cfa -104 + ^ v9: .cfa -112 + ^ v10: .cfa -120 + ^ v11: .cfa -128 + ^ v12: .cfa -136 + ^ v13: .cfa -144 + ^ v14: .cfa -152 + ^ v15: .cfa -160 + ^
STACK CFI 59844 .cfa: sp 224 +
STACK CFI 59870 .cfa: sp 0 +
STACK CFI 59874 .cfa: x29 96 +
STACK CFI INIT 59888 2dc .cfa: sp 0 +
STACK CFI 5988c .cfa: sp 64 +
STACK CFI 5989c .cfa: x29 64 + x19: .cfa -8 + ^ x20: .cfa -16 + ^ x21: .cfa -24 + ^ x22: .cfa -32 + ^ x23: .cfa -40 + ^ x24: .cfa -48 + ^ .ra: .cfa -56 + ^ x29: .cfa -64 + ^
STACK CFI 5998c .cfa: sp 64 +
STACK CFI 5999c .cfa: sp 0 +
STACK CFI 599a0 .cfa: x29 64 +
STACK CFI 59ab0 .cfa: sp 64 +
STACK CFI 59ac0 .cfa: sp 0 +
STACK CFI 59ac4 .cfa: x29 64 +
STACK CFI 59b34 .cfa: sp 64 +
STACK CFI 59b44 .cfa: sp 0 +
STACK CFI 59b48 .cfa: x29 64 +
STACK CFI 59b50 .cfa: sp 64 +
STACK CFI 59b60 .cfa: sp 0 +
STACK CFI INIT 59b64 558 .cfa: sp 0 +
STACK CFI 59b68 .cfa: sp 96 +
STACK CFI 59b80 .cfa: x29 96 + x19: .cfa -8 + ^ x20: .cfa -16 + ^ x21: .cfa -24 + ^ x22: .cfa -32 + ^ x23: .cfa -40 + ^ x24: .cfa -48 + ^ x25: .cfa -56 + ^ x26: .cfa -64 + ^ x27: .cfa -72 + ^ x28: .cfa -80 + ^ .ra: .cfa -88 + ^ x29: .cfa -96 + ^
STACK CFI 5a0a0 .cfa: sp 96 +
STACK CFI 5a0b8 .cfa: sp 0 +
STACK CFI INIT 5a0bc d0 .cfa: sp 0 +
STACK CFI INIT 5a18c 1b8 .cfa: sp 0 +
STACK CFI 5a190 .cfa: sp 48 +
STACK CFI 5a19c .cfa: x29 48 + x19: .cfa -8 + ^ x20: .cfa -16 + ^ x21: .cfa -24 + ^ x22: .cfa -32 + ^ .ra: .cfa -40 + ^ x29: .cfa -48 + ^
STACK CFI 5a334 .cfa: sp 48 +
STACK CFI 5a340 .cfa: sp 0 +
STACK CFI INIT 5a344 2a4 .cfa: sp 0 +
STACK CFI 5a350 .cfa: sp 80 +
STACK CFI 5a364 .cfa: x29 80 + x19: .cfa -8 + ^ x20: .cfa -16 + ^ x21: .cfa -24 + ^ x22: .cfa -32 + ^ x23: .cfa -40 + ^ x24: .cfa -48 + ^ x25: .cfa -64 + ^ .ra: .cfa -72 + ^ x29: .cfa -80 + ^
STACK CFI 5a5d0 .cfa: sp 80 +
STACK CFI 5a5e4 .cfa: sp 0 +
STACK CFI INIT 5a5e8 21c .cfa: sp 0 +
STACK CFI 5a5ec .cfa: sp 48 +
STACK CFI 5a5f8 .cfa: x29 48 + x19: .cfa -8 + ^ x20: .cfa -16 + ^ x21: .cfa -32 + ^ .ra: .cfa -40 + ^ x29: .cfa -48 + ^
STACK CFI 5a788 .cfa: sp 48 +
STACK CFI 5a794 .cfa: sp 0 +
STACK CFI 5a798 .cfa: x29 48 +
STACK CFI 5a7f4 .cfa: sp 48 +
STACK CFI 5a800 .cfa: sp 0 +
STACK CFI INIT 5a804 30c .cfa: sp 0 +
STACK CFI 5a808 .cfa: sp 96 +
STACK CFI 5a820 .cfa: x29 96 + x19: .cfa -8 + ^ x20: .cfa -16 + ^ x21: .cfa -24 + ^ x22: .cfa -32 + ^ x23: .cfa -40 + ^ x24: .cfa -48 + ^ x25: .cfa -56 + ^ x26: .cfa -64 + ^ x27: .cfa -80 + ^ .ra: .cfa -88 + ^ x29: .cfa -96 + ^
STACK CFI 5aaf4 .cfa: sp 96 +
STACK CFI 5ab0c .cfa: sp 0 +
STACK CFI INIT 5ab10 2b8 .cfa: sp 0 +
STACK CFI 5ab14 .cfa: sp 96 +
STACK CFI 5ab2c .cfa: x29 96 + x19: .cfa -8 + ^ x20: .cfa -16 + ^ x21: .cfa -24 + ^ x22: .cfa -32 + ^ x23: .cfa -40 + ^ x24: .cfa -48 + ^ x25: .cfa -56 + ^ x26: .cfa -64 + ^ x27: .cfa -80 + ^ .ra: .cfa -88 + ^ x29: .cfa -96 + ^
STACK CFI 5adac .cfa: sp 96 +
STACK CFI 5adc4 .cfa: sp 0 +
STACK CFI INIT 5adc8 e14 .cfa: sp 0 +
STACK CFI 5adcc .cfa: sp 480 +
STACK CFI 5adec .cfa: x29 96 + x19: .cfa -8 + ^ x20: .cfa -16 + ^ x21: .cfa -24 + ^ x22: .cfa -32 + ^ x23: .cfa -40 + ^ x24: .cfa -48 + ^ x25: .cfa -56 + ^ x26: .cfa -64 + ^ x27: .cfa -72 + ^ x28: .cfa -80 + ^ .ra: .cfa -88 + ^ x29: .cfa -96 + ^ v8: .cfa -112 + ^
STACK CFI 5b4a4 .cfa: sp 480 +
STACK CFI 5b4c4 .cfa: sp 0 +
STACK CFI 5b4c8 .cfa: x29 96 +
STACK CFI INIT 5bbdc 7c0 .cfa: sp 0 +
STACK CFI 5bbe0 .cfa: sp 80 +
STACK CFI 5bbf4 .cfa: x29 80 + x19: .cfa -8 + ^ x20: .cfa -16 + ^ x21: .cfa -24 + ^ x22: .cfa -32 + ^ x23: .cfa -40 + ^ x24: .cfa -48 + ^ x25: .cfa -64 + ^ .ra: .cfa -72 + ^ x29: .cfa -80 + ^
STACK CFI 5c384 .cfa: sp 80 +
STACK CFI 5c398 .cfa: sp 0 +
STACK CFI INIT 5c39c 1dc .cfa: sp 0 +
STACK CFI 5c3a0 .cfa: sp 416 +
STACK CFI 5c3bc .cfa: x29 80 + x19: .cfa -8 + ^ x20: .cfa -16 + ^ x21: .cfa -24 + ^ x22: .cfa -32 + ^ x23: .cfa -40 + ^ x24: .cfa -48 + ^ x25: .cfa -56 + ^ x28: .cfa -64 + ^ .ra: .cfa -72 + ^ x29: .cfa -80 + ^ v8: .cfa -96 + ^
STACK CFI 5c554 .cfa: sp 416 +
STACK CFI 5c570 .cfa: sp 0 +
STACK CFI 5c574 .cfa: x29 80 +
STACK CFI INIT 5c578 250 .cfa: sp 0 +
STACK CFI 5c57c .cfa: sp 112 +
STACK CFI 5c594 .cfa: x29 80 + x19: .cfa -8 + ^ x20: .cfa -16 + ^ x21: .cfa -24 + ^ x22: .cfa -32 + ^ x23: .cfa -40 + ^ x24: .cfa -48 + ^ x25: .cfa -56 + ^ x26: .cfa -64 + ^ .ra: .cfa -72 + ^ x29: .cfa -80 + ^
STACK CFI 5c7a8 .cfa: sp 112 +
STACK CFI 5c7c0 .cfa: sp 0 +
STACK CFI 5c7c4 .cfa: x29 80 +
STACK CFI INIT 6ab18 568 .cfa: sp 0 +
STACK CFI 6ab1c .cfa: sp 128 +
STACK CFI 6ab38 .cfa: x29 96 + x19: .cfa -8 + ^ x20: .cfa -16 + ^ x21: .cfa -24 + ^ x22: .cfa -32 + ^ x23: .cfa -40 + ^ x24: .cfa -48 + ^ x25: .cfa -56 + ^ x26: .cfa -64 + ^ x27: .cfa -72 + ^ x28: .cfa -80 + ^ .ra: .cfa -88 + ^ x29: .cfa -96 + ^
STACK CFI 6b060 .cfa: sp 128 +
STACK CFI 6b07c .cfa: sp 0 +
STACK CFI INIT 6b080 a8 .cfa: sp 0 +
STACK CFI INIT 6b128 428 .cfa: sp 0 +
STACK CFI 6b12c .cfa: sp 48 +
STACK CFI 6b138 .cfa: x29 48 + x19: .cfa -8 + ^ x20: .cfa -16 + ^ x21: .cfa -32 + ^ .ra: .cfa -40 + ^ x29: .cfa -48 + ^
STACK CFI 6b4d4 .cfa: sp 48 +
STACK CFI 6b4e0 .cfa: sp 0 +
STACK CFI 6b4e4 .cfa: x29 48 +
STACK CFI 6b540 .cfa: sp 48 +
STACK CFI 6b54c .cfa: sp 0 +
STACK CFI INIT 6b550 214 .cfa: sp 0 +
STACK CFI 6b554 .cfa: sp 160 +
STACK CFI 6b57c .cfa: x29 96 + x19: .cfa -8 + ^ x20: .cfa -16 + ^ x21: .cfa -24 + ^ x22: .cfa -32 + ^ x23: .cfa -40 + ^ x24: .cfa -48 + ^ x25: .cfa -56 + ^ x26: .cfa -64 + ^ x27: .cfa -72 + ^ x28: .cfa -80 + ^ .ra: .cfa -88 + ^ x29: .cfa -96 + ^ v8: .cfa -104 + ^ v9: .cfa -112 + ^ v10: .cfa -120 + ^ v11: .cfa -128 + ^ v12: .cfa -136 + ^ v13: .cfa -144 + ^
STACK CFI 6b734 .cfa: sp 160 +
STACK CFI 6b75c .cfa: sp 0 +
STACK CFI 6b760 .cfa: x29 96 +
STACK CFI INIT 6b764 304 .cfa: sp 0 +
STACK CFI 6b768 .cfa: sp 144 +
STACK CFI 6b790 .cfa: x29 72 + x19: .cfa -8 + ^ x20: .cfa -16 + ^ x21: .cfa -24 + ^ x22: .cfa -32 + ^ x23: .cfa -40 + ^ x24: .cfa -48 + ^ x25: .cfa -56 + ^ .ra: .cfa -64 + ^ x29: .cfa -72 + ^ v8: .cfa -80 + ^ v9: .cfa -88 + ^ v10: .cfa -96 + ^ v11: .cfa -104 + ^ v12: .cfa -112 + ^ v13: .cfa -120 + ^ v14: .cfa -128 + ^
STACK CFI 6b968 .cfa: sp 144 +
STACK CFI 6b990 .cfa: sp 0 +
STACK CFI 6b994 .cfa: x29 72 +
STACK CFI INIT 6ba68 180 .cfa: sp 0 +
STACK CFI 6ba6c .cfa: sp 80 +
STACK CFI 6ba7c .cfa: x29 48 + x19: .cfa -8 + ^ x20: .cfa -16 + ^ x21: .cfa -32 + ^ .ra: .cfa -40 + ^ x29: .cfa -48 + ^
STACK CFI 6bab0 .cfa: sp 80 +
STACK CFI 6bac0 .cfa: sp 0 +
STACK CFI 6bac4 .cfa: x29 48 +
STACK CFI 6bbd4 .cfa: sp 80 +
STACK CFI 6bbe4 .cfa: sp 0 +
STACK CFI INIT 6bbe8 5ec .cfa: sp 0 +
STACK CFI 6bbec .cfa: sp 128 +
STACK CFI 6bc0c .cfa: x29 80 + x19: .cfa -8 + ^ x20: .cfa -16 + ^ x21: .cfa -24 + ^ x22: .cfa -32 + ^ x23: .cfa -40 + ^ x24: .cfa -48 + ^ x25: .cfa -64 + ^ .ra: .cfa -72 + ^ x29: .cfa -80 + ^ v8: .cfa -88 + ^ v9: .cfa -96 + ^ v10: .cfa -104 + ^ v11: .cfa -112 + ^ v12: .cfa -120 + ^ v13: .cfa -128 + ^
STACK CFI 6c1b0 .cfa: sp 128 +
STACK CFI 6c1d0 .cfa: sp 0 +
STACK CFI INIT 6c1d4 268 .cfa: sp 0 +
STACK CFI INIT 6c43c 258 .cfa: sp 0 +
STACK CFI 6c440 .cfa: sp 144 +
STACK CFI 6c458 .cfa: x29 64 + x19: .cfa -8 + ^ x20: .cfa -16 + ^ x21: .cfa -24 + ^ x22: .cfa -32 + ^ x23: .cfa -48 + ^ .ra: .cfa -56 + ^ x29: .cfa -64 + ^ v8: .cfa -72 + ^ v9: .cfa -80 + ^
STACK CFI 6c5b4 .cfa: sp 144 +
STACK CFI 6c5cc .cfa: sp 0 +
STACK CFI 6c5d0 .cfa: x29 64 +
STACK CFI INIT 6c694 a8 .cfa: sp 0 +
STACK CFI INIT 6c73c a8 .cfa: sp 0 +
STACK CFI INIT 6c7e4 a8 .cfa: sp 0 +
STACK CFI INIT 6c88c 168 .cfa: sp 0 +
STACK CFI INIT 6c9f4 254 .cfa: sp 0 +
STACK CFI 6c9f8 .cfa: sp 80 +
STACK CFI 6ca08 .cfa: x29 48 + x19: .cfa -8 + ^ x20: .cfa -16 + ^ x21: .cfa -24 + ^ x22: .cfa -32 + ^ .ra: .cfa -40 + ^ x29: .cfa -48 + ^
STACK CFI 6cc30 .cfa: sp 80 +
STACK CFI 6cc40 .cfa: sp 0 +
STACK CFI 6cc44 .cfa: x29 48 +
STACK CFI INIT 6cc48 214 .cfa: sp 0 +
STACK CFI 6cc4c .cfa: sp 112 +
STACK CFI 6cc5c .cfa: x29 48 + x19: .cfa -8 + ^ x20: .cfa -16 + ^ x21: .cfa -24 + ^ x22: .cfa -32 + ^ .ra: .cfa -40 + ^ x29: .cfa -48 + ^
STACK CFI 6ce44 .cfa: sp 112 +
STACK CFI 6ce54 .cfa: sp 0 +
STACK CFI 6ce58 .cfa: x29 48 +
STACK CFI INIT 6ce5c 1b8 .cfa: sp 0 +
STACK CFI INIT 6d014 1050 .cfa: sp 0 +
STACK CFI 6d018 .cfa: sp 160 +
STACK CFI 6d040 .cfa: x29 96 + x19: .cfa -8 + ^ x20: .cfa -16 + ^ x21: .cfa -24 + ^ x22: .cfa -32 + ^ x23: .cfa -40 + ^ x24: .cfa -48 + ^ x25: .cfa -56 + ^ x26: .cfa -64 + ^ x27: .cfa -72 + ^ x28: .cfa -80 + ^ .ra: .cfa -88 + ^ x29: .cfa -96 + ^ v8: .cfa -104 + ^ v9: .cfa -112 + ^ v10: .cfa -120 + ^ v11: .cfa -128 + ^ v12: .cfa -136 + ^ v13: .cfa -144 + ^ v14: .cfa -160 + ^
STACK CFI 6df58 .cfa: sp 160 +
STACK CFI 6df80 .cfa: sp 0 +
STACK CFI 6df84 .cfa: x29 96 +
STACK CFI INIT 6e064 200 .cfa: sp 0 +
STACK CFI INIT 6e264 1fc .cfa: sp 0 +
STACK CFI INIT 6e460 bc0 .cfa: sp 0 +
STACK CFI 6e464 .cfa: sp 320 +
STACK CFI 6e48c .cfa: x29 96 + x19: .cfa -8 + ^ x20: .cfa -16 + ^ x21: .cfa -24 + ^ x22: .cfa -32 + ^ x23: .cfa -40 + ^ x24: .cfa -48 + ^ x25: .cfa -56 + ^ x26: .cfa -64 + ^ x27: .cfa -72 + ^ x28: .cfa -80 + ^ .ra: .cfa -88 + ^ x29: .cfa -96 + ^ v8: .cfa -104 + ^ v9: .cfa -112 + ^ v10: .cfa -120 + ^ v11: .cfa -128 + ^ v12: .cfa -136 + ^ v13: .cfa -144 + ^
STACK CFI 6e644 .cfa: sp 320 +
STACK CFI 6e66c .cfa: sp 0 +
STACK CFI 6e670 .cfa: x29 96 +
STACK CFI INIT 6f020 12c .cfa: sp 0 +
STACK CFI 6f02c .cfa: sp 112 +
STACK CFI 6f048 .cfa: x29 48 + x19: .cfa -8 + ^ x20: .cfa -16 + ^ x21: .cfa -32 + ^ .ra: .cfa -40 + ^ x29: .cfa -48 + ^ v8: .cfa -56 + ^ v9: .cfa -64 + ^ v10: .cfa -72 + ^ v11: .cfa -80 + ^ v12: .cfa -88 + ^ v13: .cfa -96 + ^ v14: .cfa -104 + ^ v15: .cfa -112 + ^
STACK CFI 6f12c .cfa: sp 112 +
STACK CFI 6f148 .cfa: sp 0 +
STACK CFI INIT 6f14c 194 .cfa: sp 0 +
STACK CFI 6f158 .cfa: sp 128 +
STACK CFI 6f178 .cfa: x29 48 + x19: .cfa -8 + ^ x20: .cfa -16 + ^ x21: .cfa -32 + ^ .ra: .cfa -40 + ^ x29: .cfa -48 + ^ v8: .cfa -56 + ^ v9: .cfa -64 + ^ v10: .cfa -72 + ^ v11: .cfa -80 + ^ v12: .cfa -88 + ^ v13: .cfa -96 + ^ v14: .cfa -104 + ^ v15: .cfa -112 + ^
STACK CFI 6f2bc .cfa: sp 128 +
STACK CFI 6f2dc .cfa: sp 0 +
STACK CFI INIT 6f2e0 1fc .cfa: sp 0 +
STACK CFI 6f2e4 .cfa: sp 96 +
STACK CFI 6f2f8 .cfa: x29 64 + x19: .cfa -8 + ^ x20: .cfa -16 + ^ x21: .cfa -24 + ^ x22: .cfa -32 + ^ x23: .cfa -40 + ^ x24: .cfa -48 + ^ .ra: .cfa -56 + ^ x29: .cfa -64 + ^
STACK CFI 6f4c0 .cfa: sp 96 +
STACK CFI 6f4d4 .cfa: sp 0 +
STACK CFI 6f4d8 .cfa: x29 64 +
STACK CFI INIT 6f4dc 3c .cfa: sp 0 +
STACK CFI INIT 6f518 18 .cfa: sp 0 +
STACK CFI INIT 6f530 3c .cfa: sp 0 +
STACK CFI 6f534 .cfa: sp 32 +
STACK CFI 6f53c .cfa: x29 32 + x19: .cfa -16 + ^ .ra: .cfa -24 + ^ x29: .cfa -32 + ^
STACK CFI 6f548 .cfa: sp 32 +
STACK CFI 6f550 .cfa: sp 0 +
STACK CFI 6f554 .cfa: x29 32 +
STACK CFI 6f560 .cfa: sp 32 +
STACK CFI 6f568 .cfa: sp 0 +
STACK CFI INIT 6f56c 4c .cfa: sp 0 +
STACK CFI 6f570 .cfa: sp 32 +
STACK CFI 6f578 .cfa: x29 32 + x19: .cfa -8 + ^ x20: .cfa -16 + ^ .ra: .cfa -24 + ^ x29: .cfa -32 + ^
STACK CFI 6f5a0 .cfa: sp 32 +
STACK CFI 6f5a8 .cfa: sp 0 +
STACK CFI 6f5ac .cfa: sp 32 +
STACK CFI 6f5b4 .cfa: sp 0 +
STACK CFI INIT 6f7d8 64 .cfa: sp 0 +
STACK CFI 6f7dc .cfa: sp 32 +
STACK CFI 6f7e4 .cfa: x29 32 + x19: .cfa -16 + ^ .ra: .cfa -24 + ^ x29: .cfa -32 + ^
STACK CFI 6f810 .cfa: sp 32 +
STACK CFI 6f818 .cfa: sp 0 +
STACK CFI 6f81c .cfa: x29 32 +
STACK CFI 6f830 .cfa: sp 32 +
STACK CFI 6f838 .cfa: sp 0 +
STACK CFI INIT 6f83c 24 .cfa: sp 0 +
STACK CFI 6f840 .cfa: sp 32 +
STACK CFI 6f848 .cfa: x29 32 + x19: .cfa -16 + ^ .ra: .cfa -24 + ^ x29: .cfa -32 + ^
STACK CFI 6f854 .cfa: sp 32 +
STACK CFI 6f85c .cfa: sp 0 +
STACK CFI INIT 6fad0 24 .cfa: sp 0 +
STACK CFI 6fad4 .cfa: sp 32 +
STACK CFI 6fadc .cfa: x29 32 + x19: .cfa -16 + ^ .ra: .cfa -24 + ^ x29: .cfa -32 + ^
STACK CFI 6fae8 .cfa: sp 32 +
STACK CFI 6faf0 .cfa: sp 0 +
STACK CFI INIT 6fd20 8 .cfa: sp 0 +
STACK CFI INIT 6fd28 4 .cfa: sp 0 +
STACK CFI INIT 704dc 4 .cfa: sp 0 +
STACK CFI INIT 704e0 14 .cfa: sp 0 +
STACK CFI INIT 70a00 c .cfa: sp 0 +
STACK CFI INIT 70a0c 24c .cfa: sp 0 +
STACK CFI INIT 70c58 a0 .cfa: sp 0 +
STACK CFI 70c64 .cfa: sp 32 +
STACK CFI 70cbc .cfa: sp 0 +
STACK CFI 70cc0 .cfa: sp 32 +
STACK CFI 70cc8 .cfa: sp 0 +
STACK CFI 70ccc .cfa: sp 32 +
STACK CFI 70ce0 .cfa: sp 0 +
STACK CFI 70ce4 .cfa: sp 32 +
STACK CFI 70cf4 .cfa: sp 0 +
STACK CFI INIT 70cf8 38 .cfa: sp 0 +
STACK CFI 70d04 .cfa: sp 32 +
STACK CFI 70d2c .cfa: sp 0 +
STACK CFI INIT 70fc4 7c .cfa: sp 0 +
STACK CFI 70fc8 .cfa: sp 32 +
STACK CFI 70fd0 .cfa: x29 32 + x19: .cfa -16 + ^ .ra: .cfa -24 + ^ x29: .cfa -32 + ^
STACK CFI 70ffc .cfa: sp 32 +
STACK CFI 71004 .cfa: sp 0 +
STACK CFI 71008 .cfa: x29 32 +
STACK CFI 71034 .cfa: sp 32 +
STACK CFI 7103c .cfa: sp 0 +
STACK CFI INIT 71090 2c .cfa: sp 0 +
STACK CFI 71094 .cfa: sp 32 +
STACK CFI 7109c .cfa: x29 32 + x19: .cfa -16 + ^ .ra: .cfa -24 + ^ x29: .cfa -32 + ^
STACK CFI 710b0 .cfa: sp 32 +
STACK CFI 710b8 .cfa: sp 0 +
STACK CFI INIT 7187c 64 .cfa: sp 0 +
STACK CFI 71880 .cfa: sp 32 +
STACK CFI 71888 .cfa: x29 32 + x19: .cfa -16 + ^ .ra: .cfa -24 + ^ x29: .cfa -32 + ^
STACK CFI 718a4 .cfa: sp 32 +
STACK CFI 718ac .cfa: sp 0 +
STACK CFI 718b0 .cfa: x29 32 +
STACK CFI 718d4 .cfa: sp 32 +
STACK CFI 718dc .cfa: sp 0 +
STACK CFI INIT 718e0 570 .cfa: sp 0 +
STACK CFI 718e4 .cfa: sp 176 +
STACK CFI 718f8 .cfa: x29 64 + x19: .cfa -8 + ^ x20: .cfa -16 + ^ x21: .cfa -24 + ^ x22: .cfa -32 + ^ x23: .cfa -40 + ^ x24: .cfa -48 + ^ .ra: .cfa -56 + ^ x29: .cfa -64 + ^
STACK CFI 71b28 .cfa: sp 176 +
STACK CFI 71b3c .cfa: sp 0 +
STACK CFI 71b40 .cfa: x29 64 +
STACK CFI 71b8c .cfa: sp 176 +
STACK CFI 71ba0 .cfa: sp 0 +
STACK CFI 71ba4 .cfa: x29 64 +
STACK CFI 71bdc .cfa: sp 176 +
STACK CFI 71bf0 .cfa: sp 0 +
STACK CFI 71bf4 .cfa: x29 64 +
STACK CFI 71c0c .cfa: sp 176 +
STACK CFI 71c20 .cfa: sp 0 +
STACK CFI 71c24 .cfa: x29 64 +
STACK CFI 71c44 .cfa: sp 176 +
STACK CFI 71c58 .cfa: sp 0 +
STACK CFI 71c5c .cfa: x29 64 +
STACK CFI 71c74 .cfa: sp 176 +
STACK CFI 71c88 .cfa: sp 0 +
STACK CFI 71c8c .cfa: x29 64 +
STACK CFI 71ca0 .cfa: sp 176 +
STACK CFI 71cb4 .cfa: sp 0 +
STACK CFI 71cb8 .cfa: x29 64 +
STACK CFI 71ccc .cfa: sp 176 +
STACK CFI 71ce0 .cfa: sp 0 +
STACK CFI 71ce4 .cfa: x29 64 +
STACK CFI 71cf4 .cfa: sp 176 +
STACK CFI 71d08 .cfa: sp 0 +
STACK CFI 71d0c .cfa: x29 64 +
STACK CFI 71d1c .cfa: sp 176 +
STACK CFI 71d30 .cfa: sp 0 +
STACK CFI 71d34 .cfa: x29 64 +
STACK CFI 71d4c .cfa: sp 176 +
STACK CFI 71d60 .cfa: sp 0 +
STACK CFI 71d64 .cfa: x29 64 +
STACK CFI 71d78 .cfa: sp 176 +
STACK CFI 71d8c .cfa: sp 0 +
STACK CFI 71d90 .cfa: x29 64 +
STACK CFI 71da8 .cfa: sp 176 +
STACK CFI 71dbc .cfa: sp 0 +
STACK CFI 71dc0 .cfa: x29 64 +
STACK CFI 71dec .cfa: sp 176 +
STACK CFI 71e00 .cfa: sp 0 +
STACK CFI 71e04 .cfa: x29 64 +
STACK CFI 71e18 .cfa: sp 176 +
STACK CFI 71e2c .cfa: sp 0 +
STACK CFI 71e30 .cfa: x29 64 +
STACK CFI INIT 71e50 228 .cfa: sp 0 +
STACK CFI INIT 72078 2dc .cfa: sp 0 +
STACK CFI INIT 72354 53c .cfa: sp 0 +
STACK CFI INIT 72890 78 .cfa: sp 0 +
STACK CFI 72894 .cfa: sp 48 +
STACK CFI 728a0 .cfa: x29 48 + x19: .cfa -8 + ^ x20: .cfa -16 + ^ x21: .cfa -24 + ^ x22: .cfa -32 + ^ .ra: .cfa -40 + ^ x29: .cfa -48 + ^
STACK CFI 728e8 .cfa: sp 48 +
STACK CFI 728f4 .cfa: sp 0 +
STACK CFI 728f8 .cfa: sp 48 +
STACK CFI 72904 .cfa: sp 0 +
STACK CFI INIT 72908 8c .cfa: sp 0 +
STACK CFI 7290c .cfa: sp 32 +
STACK CFI 72914 .cfa: x29 32 + x19: .cfa -16 + ^ .ra: .cfa -24 + ^ x29: .cfa -32 + ^
STACK CFI 72948 .cfa: sp 32 +
STACK CFI 72950 .cfa: sp 0 +
STACK CFI 72954 .cfa: x29 32 +
STACK CFI 72988 .cfa: sp 32 +
STACK CFI 72990 .cfa: sp 0 +
STACK CFI INIT 72994 24 .cfa: sp 0 +
STACK CFI 72998 .cfa: sp 32 +
STACK CFI 729a0 .cfa: x29 32 + x19: .cfa -16 + ^ .ra: .cfa -24 + ^ x29: .cfa -32 + ^
STACK CFI 729ac .cfa: sp 32 +
STACK CFI 729b4 .cfa: sp 0 +
STACK CFI INIT 729b8 150 .cfa: sp 0 +
STACK CFI 729bc .cfa: sp 48 +
STACK CFI 729c8 .cfa: x29 48 + x19: .cfa -8 + ^ x20: .cfa -16 + ^ x21: .cfa -24 + ^ x22: .cfa -32 + ^ .ra: .cfa -40 + ^ x29: .cfa -48 + ^
STACK CFI 72af8 .cfa: sp 48 +
STACK CFI 72b04 .cfa: sp 0 +
STACK CFI INIT 72b08 68 .cfa: sp 0 +
STACK CFI 72b0c .cfa: sp 64 +
STACK CFI 72b18 .cfa: x29 32 + x19: .cfa -16 + ^ .ra: .cfa -24 + ^ x29: .cfa -32 + ^
STACK CFI 72b5c .cfa: sp 64 +
STACK CFI 72b68 .cfa: sp 0 +
STACK CFI 72b6c .cfa: x29 32 +
STACK CFI INIT 72b70 90 .cfa: sp 0 +
STACK CFI 72b74 .cfa: sp 32 +
STACK CFI 72b7c .cfa: x29 32 + x19: .cfa -8 + ^ x20: .cfa -16 + ^ .ra: .cfa -24 + ^ x29: .cfa -32 + ^
STACK CFI 72ba8 .cfa: sp 32 +
STACK CFI 72bb0 .cfa: sp 0 +
STACK CFI 72bb4 .cfa: x29 32 +
STACK CFI 72bf4 .cfa: sp 32 +
STACK CFI 72bfc .cfa: sp 0 +
STACK CFI INIT 72c00 ec .cfa: sp 0 +
STACK CFI 72c04 .cfa: sp 112 +
STACK CFI 72c14 .cfa: x29 48 + x19: .cfa -8 + ^ x20: .cfa -16 + ^ x21: .cfa -32 + ^ .ra: .cfa -40 + ^ x29: .cfa -48 + ^
STACK CFI 72cd4 .cfa: sp 112 +
STACK CFI 72ce4 .cfa: sp 0 +
STACK CFI 72ce8 .cfa: x29 48 +
STACK CFI INIT 72cec ec .cfa: sp 0 +
STACK CFI 72cf0 .cfa: sp 112 +
STACK CFI 72d00 .cfa: x29 48 + x19: .cfa -8 + ^ x20: .cfa -16 + ^ x21: .cfa -32 + ^ .ra: .cfa -40 + ^ x29: .cfa -48 + ^
STACK CFI 72dc0 .cfa: sp 112 +
STACK CFI 72dd0 .cfa: sp 0 +
STACK CFI 72dd4 .cfa: x29 48 +
STACK CFI INIT 72dd8 48 .cfa: sp 0 +
STACK CFI 72ddc .cfa: sp 32 +
STACK CFI 72de4 .cfa: x29 32 + x19: .cfa -8 + ^ x20: .cfa -16 + ^ .ra: .cfa -24 + ^ x29: .cfa -32 + ^
STACK CFI 72e08 .cfa: sp 32 +
STACK CFI 72e10 .cfa: sp 0 +
STACK CFI 72e14 .cfa: x29 32 +
STACK CFI INIT 72e20 98 .cfa: sp 0 +
STACK CFI 72e24 .cfa: sp 80 +
STACK CFI 72e30 .cfa: x29 32 + x19: .cfa -16 + ^ .ra: .cfa -24 + ^ x29: .cfa -32 + ^
STACK CFI 72ea4 .cfa: sp 80 +
STACK CFI 72eb0 .cfa: sp 0 +
STACK CFI 72eb4 .cfa: x29 32 +
STACK CFI INIT 72eb8 260 .cfa: sp 0 +
STACK CFI 72ebc .cfa: sp 112 +
STACK CFI 72ed4 .cfa: x29 80 + x19: .cfa -8 + ^ x20: .cfa -16 + ^ x21: .cfa -24 + ^ x22: .cfa -32 + ^ x23: .cfa -40 + ^ x24: .cfa -48 + ^ x25: .cfa -64 + ^ .ra: .cfa -72 + ^ x29: .cfa -80 + ^
STACK CFI 730b8 .cfa: sp 112 +
STACK CFI 730d0 .cfa: sp 0 +
STACK CFI 730d4 .cfa: x29 80 +
STACK CFI INIT 73118 150 .cfa: sp 0 +
STACK CFI 7311c .cfa: sp 48 +
STACK CFI 73128 .cfa: x29 48 + x19: .cfa -8 + ^ x20: .cfa -16 + ^ x21: .cfa -24 + ^ x22: .cfa -32 + ^ .ra: .cfa -40 + ^ x29: .cfa -48 + ^
STACK CFI 73258 .cfa: sp 48 +
STACK CFI 73264 .cfa: sp 0 +
STACK CFI INIT 73268 1e0 .cfa: sp 0 +
STACK CFI 7326c .cfa: sp 96 +
STACK CFI 73280 .cfa: x29 64 + x19: .cfa -8 + ^ x20: .cfa -16 + ^ x21: .cfa -24 + ^ x22: .cfa -32 + ^ x23: .cfa -40 + ^ x24: .cfa -48 + ^ .ra: .cfa -56 + ^ x29: .cfa -64 + ^
STACK CFI 73400 .cfa: sp 96 +
STACK CFI 73414 .cfa: sp 0 +
STACK CFI 73418 .cfa: x29 64 +
STACK CFI INIT 73448 284 .cfa: sp 0 +
STACK CFI 7344c .cfa: sp 112 +
STACK CFI 73464 .cfa: x29 80 + x19: .cfa -8 + ^ x20: .cfa -16 + ^ x21: .cfa -24 + ^ x22: .cfa -32 + ^ x23: .cfa -40 + ^ x24: .cfa -48 + ^ x25: .cfa -64 + ^ .ra: .cfa -72 + ^ x29: .cfa -80 + ^
STACK CFI 7366c .cfa: sp 112 +
STACK CFI 73684 .cfa: sp 0 +
STACK CFI 73688 .cfa: x29 80 +
STACK CFI INIT 736cc 208 .cfa: sp 0 +
STACK CFI 736d0 .cfa: sp 96 +
STACK CFI 736e4 .cfa: x29 64 + x19: .cfa -8 + ^ x20: .cfa -16 + ^ x21: .cfa -24 + ^ x22: .cfa -32 + ^ x23: .cfa -40 + ^ x24: .cfa -48 + ^ .ra: .cfa -56 + ^ x29: .cfa -64 + ^
STACK CFI 7388c .cfa: sp 96 +
STACK CFI 738a0 .cfa: sp 0 +
STACK CFI 738a4 .cfa: x29 64 +
STACK CFI INIT 738d4 360 .cfa: sp 0 +
STACK CFI 738d8 .cfa: sp 160 +
STACK CFI 738f4 .cfa: x29 96 + x19: .cfa -8 + ^ x20: .cfa -16 + ^ x21: .cfa -24 + ^ x22: .cfa -32 + ^ x23: .cfa -40 + ^ x24: .cfa -48 + ^ x25: .cfa -56 + ^ x26: .cfa -64 + ^ x27: .cfa -72 + ^ x28: .cfa -80 + ^ .ra: .cfa -88 + ^ x29: .cfa -96 + ^
STACK CFI 73bc0 .cfa: sp 160 +
STACK CFI 73bdc .cfa: sp 0 +
STACK CFI 73be0 .cfa: x29 96 +
STACK CFI INIT 73c34 314 .cfa: sp 0 +
STACK CFI 73c38 .cfa: sp 144 +
STACK CFI 73c54 .cfa: x29 96 + x19: .cfa -8 + ^ x20: .cfa -16 + ^ x21: .cfa -24 + ^ x22: .cfa -32 + ^ x23: .cfa -40 + ^ x24: .cfa -48 + ^ x25: .cfa -56 + ^ x26: .cfa -64 + ^ x27: .cfa -72 + ^ x28: .cfa -80 + ^ .ra: .cfa -88 + ^ x29: .cfa -96 + ^
STACK CFI 73ed0 .cfa: sp 144 +
STACK CFI 73eec .cfa: sp 0 +
STACK CFI 73ef0 .cfa: x29 96 +
STACK CFI INIT 73f48 290 .cfa: sp 0 +
STACK CFI 73f4c .cfa: sp 128 +
STACK CFI 73f64 .cfa: x29 80 + x19: .cfa -8 + ^ x20: .cfa -16 + ^ x21: .cfa -24 + ^ x22: .cfa -32 + ^ x23: .cfa -40 + ^ x24: .cfa -48 + ^ x25: .cfa -56 + ^ x26: .cfa -64 + ^ .ra: .cfa -72 + ^ x29: .cfa -80 + ^
STACK CFI 741b8 .cfa: sp 128 +
STACK CFI 741d0 .cfa: sp 0 +
STACK CFI 741d4 .cfa: x29 80 +
STACK CFI INIT 741d8 ddc .cfa: sp 0 +
STACK CFI 741dc .cfa: sp 144 +
STACK CFI 741f8 .cfa: x29 96 + x19: .cfa -8 + ^ x20: .cfa -16 + ^ x21: .cfa -24 + ^ x22: .cfa -32 + ^ x23: .cfa -40 + ^ x24: .cfa -48 + ^ x25: .cfa -56 + ^ x26: .cfa -64 + ^ x27: .cfa -72 + ^ x28: .cfa -80 + ^ .ra: .cfa -88 + ^ x29: .cfa -96 + ^
STACK CFI 74e8c .cfa: sp 144 +
STACK CFI 74ea8 .cfa: sp 0 +
STACK CFI 74eac .cfa: x29 96 +
STACK CFI INIT 74fb4 1d0 .cfa: sp 0 +
STACK CFI 74fb8 .cfa: sp 80 +
STACK CFI 74fcc .cfa: x29 80 + x19: .cfa -8 + ^ x20: .cfa -16 + ^ x21: .cfa -24 + ^ x22: .cfa -32 + ^ x23: .cfa -40 + ^ x24: .cfa -48 + ^ x25: .cfa -64 + ^ .ra: .cfa -72 + ^ x29: .cfa -80 + ^
STACK CFI 7516c .cfa: sp 80 +
STACK CFI 75180 .cfa: sp 0 +
STACK CFI INIT 75184 23c .cfa: sp 0 +
STACK CFI 75188 .cfa: sp 112 +
STACK CFI 7519c .cfa: x29 64 + x19: .cfa -8 + ^ x20: .cfa -16 + ^ x21: .cfa -24 + ^ x22: .cfa -32 + ^ x23: .cfa -40 + ^ x24: .cfa -48 + ^ .ra: .cfa -56 + ^ x29: .cfa -64 + ^
STACK CFI 75378 .cfa: sp 112 +
STACK CFI 7538c .cfa: sp 0 +
STACK CFI 75390 .cfa: x29 64 +
STACK CFI INIT 753c0 30c .cfa: sp 0 +
STACK CFI 753c4 .cfa: sp 80 +
STACK CFI 753d8 .cfa: x29 64 + x19: .cfa -8 + ^ x20: .cfa -16 + ^ x21: .cfa -24 + ^ x22: .cfa -32 + ^ x23: .cfa -40 + ^ x24: .cfa -48 + ^ .ra: .cfa -56 + ^ x29: .cfa -64 + ^
STACK CFI 75554 .cfa: sp 80 +
STACK CFI 75568 .cfa: sp 0 +
STACK CFI 7556c .cfa: x29 64 +
STACK CFI INIT 756cc 178 .cfa: sp 0 +
STACK CFI 756d0 .cfa: sp 80 +
STACK CFI 756e4 .cfa: x29 64 + x19: .cfa -8 + ^ x20: .cfa -16 + ^ x21: .cfa -24 + ^ x22: .cfa -32 + ^ x23: .cfa -40 + ^ x24: .cfa -48 + ^ .ra: .cfa -56 + ^ x29: .cfa -64 + ^
STACK CFI 75828 .cfa: sp 80 +
STACK CFI 7583c .cfa: sp 0 +
STACK CFI 75840 .cfa: x29 64 +
STACK CFI INIT 75844 178 .cfa: sp 0 +
STACK CFI 75848 .cfa: sp 80 +
STACK CFI 7585c .cfa: x29 64 + x19: .cfa -8 + ^ x20: .cfa -16 + ^ x21: .cfa -24 + ^ x22: .cfa -32 + ^ x23: .cfa -40 + ^ x24: .cfa -48 + ^ .ra: .cfa -56 + ^ x29: .cfa -64 + ^
STACK CFI 759a0 .cfa: sp 80 +
STACK CFI 759b4 .cfa: sp 0 +
STACK CFI 759b8 .cfa: x29 64 +
STACK CFI INIT 759bc 240 .cfa: sp 0 +
STACK CFI 759c0 .cfa: sp 96 +
STACK CFI 759d8 .cfa: x29 96 + x19: .cfa -8 + ^ x20: .cfa -16 + ^ x21: .cfa -24 + ^ x22: .cfa -32 + ^ x23: .cfa -40 + ^ x24: .cfa -48 + ^ x25: .cfa -56 + ^ x26: .cfa -64 + ^ x27: .cfa -72 + ^ x28: .cfa -80 + ^ .ra: .cfa -88 + ^ x29: .cfa -96 + ^
STACK CFI 75be0 .cfa: sp 96 +
STACK CFI 75bf8 .cfa: sp 0 +
STACK CFI INIT 76870 154 .cfa: sp 0 +
STACK CFI 76874 .cfa: sp 96 +
STACK CFI 76888 .cfa: x29 64 + x19: .cfa -8 + ^ x20: .cfa -16 + ^ x21: .cfa -24 + ^ x22: .cfa -32 + ^ x23: .cfa -48 + ^ .ra: .cfa -56 + ^ x29: .cfa -64 + ^
STACK CFI 76968 .cfa: sp 96 +
STACK CFI 7697c .cfa: sp 0 +
STACK CFI 76980 .cfa: x29 64 +
STACK CFI INIT 76c30 44 .cfa: sp 0 +
STACK CFI 76c34 .cfa: sp 32 +
STACK CFI 76c3c .cfa: x29 32 + x19: .cfa -16 + ^ .ra: .cfa -24 + ^ x29: .cfa -32 + ^
STACK CFI 76c58 .cfa: sp 32 +
STACK CFI 76c60 .cfa: sp 0 +
STACK CFI 76c64 .cfa: x29 32 +
STACK CFI 76c68 .cfa: sp 32 +
STACK CFI 76c70 .cfa: sp 0 +
STACK CFI INIT 76c74 1d0 .cfa: sp 0 +
STACK CFI 76c78 .cfa: sp 64 +
STACK CFI 76c88 .cfa: x29 64 + x19: .cfa -8 + ^ x20: .cfa -16 + ^ x21: .cfa -24 + ^ x22: .cfa -32 + ^ x23: .cfa -40 + ^ x24: .cfa -48 + ^ .ra: .cfa -56 + ^ x29: .cfa -64 + ^
STACK CFI 76d48 .cfa: sp 64 +
STACK CFI 76d58 .cfa: sp 0 +
STACK CFI 76d5c .cfa: x29 64 +
STACK CFI INIT 76e44 17c .cfa: sp 0 +
STACK CFI INIT 77378 a0 .cfa: sp 0 +
STACK CFI 7737c .cfa: sp 48 +
STACK CFI 77388 .cfa: x29 48 + x19: .cfa -8 + ^ x20: .cfa -16 + ^ x21: .cfa -24 + ^ x22: .cfa -32 + ^ .ra: .cfa -40 + ^ x29: .cfa -48 + ^
STACK CFI 773f4 .cfa: sp 48 +
STACK CFI 77400 .cfa: sp 0 +
STACK CFI 77404 .cfa: sp 48 +
STACK CFI 77410 .cfa: sp 0 +
STACK CFI 77414 .cfa: x29 48 +
STACK CFI INIT 780cc 158 .cfa: sp 0 +
STACK CFI 780d0 .cfa: sp 96 +
STACK CFI 780e4 .cfa: x29 64 + x19: .cfa -8 + ^ x20: .cfa -16 + ^ x21: .cfa -24 + ^ x22: .cfa -32 + ^ x23: .cfa -48 + ^ .ra: .cfa -56 + ^ x29: .cfa -64 + ^
STACK CFI 781c8 .cfa: sp 96 +
STACK CFI 781dc .cfa: sp 0 +
STACK CFI 781e0 .cfa: x29 64 +
STACK CFI INIT 78224 190 .cfa: sp 0 +
STACK CFI INIT 78eb0 1dc .cfa: sp 0 +
STACK CFI 78eb4 .cfa: sp 80 +
STACK CFI 78ec8 .cfa: x29 80 + x19: .cfa -8 + ^ x20: .cfa -16 + ^ x21: .cfa -24 + ^ x22: .cfa -32 + ^ x23: .cfa -40 + ^ x24: .cfa -48 + ^ x25: .cfa -64 + ^ .ra: .cfa -72 + ^ x29: .cfa -80 + ^
STACK CFI 79074 .cfa: sp 80 +
STACK CFI 79088 .cfa: sp 0 +
STACK CFI INIT 7a4bc 124 .cfa: sp 0 +
STACK CFI 7a4ec .cfa: sp 32 +
STACK CFI 7a4f4 .cfa: x29 32 + x19: .cfa -8 + ^ x20: .cfa -16 + ^ .ra: .cfa -24 + ^ x29: .cfa -32 + ^
STACK CFI 7a5d4 .cfa: sp 32 +
STACK CFI 7a5dc .cfa: sp 0 +
STACK CFI INIT 7ad3c 320 .cfa: sp 0 +
STACK CFI 7ad40 .cfa: sp 64 +
STACK CFI 7ad50 .cfa: x29 64 + x19: .cfa -8 + ^ x20: .cfa -16 + ^ x21: .cfa -24 + ^ x22: .cfa -32 + ^ x23: .cfa -40 + ^ x24: .cfa -48 + ^ .ra: .cfa -56 + ^ x29: .cfa -64 + ^
STACK CFI 7adcc .cfa: sp 64 +
STACK CFI 7addc .cfa: sp 0 +
STACK CFI 7ade0 .cfa: x29 64 +
STACK CFI 7afb4 .cfa: sp 64 +
STACK CFI 7afc4 .cfa: sp 0 +
STACK CFI 7afc8 .cfa: x29 64 +
STACK CFI 7afd8 .cfa: sp 64 +
STACK CFI 7afe8 .cfa: sp 0 +
STACK CFI 7afec .cfa: x29 64 +
STACK CFI INIT 7b05c a0 .cfa: sp 0 +
STACK CFI 7b060 .cfa: sp 48 +
STACK CFI 7b06c .cfa: x29 48 + x19: .cfa -8 + ^ x20: .cfa -16 + ^ x21: .cfa -24 + ^ x22: .cfa -32 + ^ .ra: .cfa -40 + ^ x29: .cfa -48 + ^
STACK CFI 7b0d8 .cfa: sp 48 +
STACK CFI 7b0e4 .cfa: sp 0 +
STACK CFI 7b0e8 .cfa: sp 48 +
STACK CFI 7b0f4 .cfa: sp 0 +
STACK CFI 7b0f8 .cfa: x29 48 +
STACK CFI INIT 7bfac 160 .cfa: sp 0 +
STACK CFI 7bfb0 .cfa: sp 64 +
STACK CFI 7bfc0 .cfa: x29 64 + x19: .cfa -8 + ^ x20: .cfa -16 + ^ x21: .cfa -24 + ^ x22: .cfa -32 + ^ x23: .cfa -48 + ^ .ra: .cfa -56 + ^ x29: .cfa -64 + ^
STACK CFI 7c0b8 .cfa: sp 64 +
STACK CFI 7c0c8 .cfa: sp 0 +
STACK CFI 7c0cc .cfa: x29 64 +
STACK CFI INIT 7c10c 214 .cfa: sp 0 +
STACK CFI 7c110 .cfa: sp 128 +
STACK CFI 7c12c .cfa: x29 96 + x19: .cfa -8 + ^ x20: .cfa -16 + ^ x21: .cfa -24 + ^ x22: .cfa -32 + ^ x23: .cfa -40 + ^ x24: .cfa -48 + ^ x25: .cfa -56 + ^ x26: .cfa -64 + ^ x27: .cfa -80 + ^ .ra: .cfa -88 + ^ x29: .cfa -96 + ^
STACK CFI 7c2a8 .cfa: sp 128 +
STACK CFI 7c2c4 .cfa: sp 0 +
STACK CFI 7c2c8 .cfa: x29 96 +
STACK CFI INIT 7dfbc 290 .cfa: sp 0 +
STACK CFI 7dfc0 .cfa: sp 16 +
STACK CFI 7dfc4 .cfa: x29 16 + .ra: .cfa -8 + ^ x29: .cfa -16 + ^
STACK CFI 7e050 .cfa: sp 16 +
STACK CFI 7e054 .cfa: sp 0 +
STACK CFI 7e058 .cfa: x29 16 +
STACK CFI 7e0a8 .cfa: sp 16 +
STACK CFI 7e0ac .cfa: sp 0 +
STACK CFI 7e0b0 .cfa: x29 16 +
STACK CFI 7e214 .cfa: sp 16 +
STACK CFI 7e218 .cfa: sp 0 +
STACK CFI 7e21c .cfa: x29 16 +
STACK CFI INIT 7e24c 158 .cfa: sp 0 +
STACK CFI 7e250 .cfa: sp 112 +
STACK CFI 7e26c .cfa: x29 96 + x19: .cfa -8 + ^ x20: .cfa -16 + ^ x21: .cfa -24 + ^ x22: .cfa -32 + ^ x23: .cfa -40 + ^ x24: .cfa -48 + ^ x25: .cfa -56 + ^ x26: .cfa -64 + ^ x27: .cfa -72 + ^ x28: .cfa -80 + ^ .ra: .cfa -88 + ^ x29: .cfa -96 + ^
STACK CFI 7e354 .cfa: sp 112 +
STACK CFI 7e358 .cfa: x29 96 +
STACK CFI 7e360 .cfa: sp 112 +
STACK CFI 7e37c .cfa: sp 0 +
STACK CFI 7e380 .cfa: x29 96 +
STACK CFI 7e3a0 .cfa: sp 112 +
STACK CFI INIT 7e3a4 e54 .cfa: sp 0 +
STACK CFI 7e3a8 .cfa: sp 192 +
STACK CFI 7e3c4 .cfa: x29 96 + x19: .cfa -8 + ^ x20: .cfa -16 + ^ x21: .cfa -24 + ^ x22: .cfa -32 + ^ x23: .cfa -40 + ^ x24: .cfa -48 + ^ x25: .cfa -56 + ^ x26: .cfa -64 + ^ x27: .cfa -72 + ^ x28: .cfa -80 + ^ .ra: .cfa -88 + ^ x29: .cfa -96 + ^
STACK CFI 7f0e0 .cfa: sp 192 +
STACK CFI 7f0fc .cfa: sp 0 +
STACK CFI 7f100 .cfa: x29 96 +
STACK CFI INIT 7f1f8 1068 .cfa: sp 0 +
STACK CFI 7f1fc .cfa: sp 288 +
STACK CFI 7f218 .cfa: x29 96 + x19: .cfa -8 + ^ x20: .cfa -16 + ^ x21: .cfa -24 + ^ x22: .cfa -32 + ^ x23: .cfa -40 + ^ x24: .cfa -48 + ^ x25: .cfa -56 + ^ x26: .cfa -64 + ^ x27: .cfa -72 + ^ x28: .cfa -80 + ^ .ra: .cfa -88 + ^ x29: .cfa -96 + ^
STACK CFI 7ffa8 .cfa: sp 288 +
STACK CFI 7ffc4 .cfa: sp 0 +
STACK CFI 7ffc8 .cfa: x29 96 +
STACK CFI INIT 80260 520 .cfa: sp 0 +
STACK CFI 80264 .cfa: sp 144 +
STACK CFI 80280 .cfa: x29 96 + x19: .cfa -8 + ^ x20: .cfa -16 + ^ x21: .cfa -24 + ^ x22: .cfa -32 + ^ x23: .cfa -40 + ^ x24: .cfa -48 + ^ x25: .cfa -56 + ^ x26: .cfa -64 + ^ x27: .cfa -72 + ^ x28: .cfa -80 + ^ .ra: .cfa -88 + ^ x29: .cfa -96 + ^
STACK CFI 8075c .cfa: sp 144 +
STACK CFI 80778 .cfa: sp 0 +
STACK CFI 8077c .cfa: x29 96 +
STACK CFI INIT 81120 136c .cfa: sp 0 +
STACK CFI 81124 .cfa: sp 224 +
STACK CFI 81140 .cfa: x29 96 + x19: .cfa -8 + ^ x20: .cfa -16 + ^ x21: .cfa -24 + ^ x22: .cfa -32 + ^ x23: .cfa -40 + ^ x24: .cfa -48 + ^ x25: .cfa -56 + ^ x26: .cfa -64 + ^ x27: .cfa -72 + ^ x28: .cfa -80 + ^ .ra: .cfa -88 + ^ x29: .cfa -96 + ^
STACK CFI 82468 .cfa: sp 224 +
STACK CFI 82484 .cfa: sp 0 +
STACK CFI 82488 .cfa: x29 96 +
STACK CFI INIT 8248c 1b8 .cfa: sp 0 +
STACK CFI INIT 17360 480 .cfa: sp 0 +
STACK CFI 17364 .cfa: sp 224 +
STACK CFI 17380 .cfa: x29 96 + x19: .cfa -8 + ^ x20: .cfa -16 + ^ x21: .cfa -24 + ^ x22: .cfa -32 + ^ x23: .cfa -40 + ^ x24: .cfa -48 + ^ x25: .cfa -56 + ^ x26: .cfa -64 + ^ x27: .cfa -80 + ^ .ra: .cfa -88 + ^ x29: .cfa -96 + ^
STACK CFI 175ec .cfa: sp 224 +
STACK CFI 17608 .cfa: sp 0 +
STACK CFI 1760c .cfa: x29 96 +
STACK CFI 176d8 .cfa: sp 224 +
STACK CFI 176f4 .cfa: sp 0 +
STACK CFI 176f8 .cfa: x29 96 +
STACK CFI INIT 1783c 218 .cfa: sp 0 +
STACK CFI 17840 .cfa: sp 160 +
STACK CFI 17850 .cfa: x29 48 + x19: .cfa -8 + ^ x20: .cfa -16 + ^ x21: .cfa -32 + ^ .ra: .cfa -40 + ^ x29: .cfa -48 + ^
STACK CFI 179b0 .cfa: sp 160 +
STACK CFI 179c0 .cfa: sp 0 +
STACK CFI 179c4 .cfa: x29 48 +
STACK CFI INIT 17c3c 50 .cfa: sp 0 +
STACK CFI 17c40 .cfa: sp 32 +
STACK CFI 17c48 .cfa: x29 32 + x19: .cfa -8 + ^ x20: .cfa -16 + ^ .ra: .cfa -24 + ^ x29: .cfa -32 + ^
STACK CFI INIT 17e78 304 .cfa: sp 0 +
STACK CFI 17e7c .cfa: sp 128 +
STACK CFI 17e98 .cfa: x29 96 + x19: .cfa -8 + ^ x20: .cfa -16 + ^ x21: .cfa -24 + ^ x22: .cfa -32 + ^ x23: .cfa -40 + ^ x24: .cfa -48 + ^ x25: .cfa -56 + ^ x26: .cfa -64 + ^ x27: .cfa -72 + ^ x28: .cfa -80 + ^ .ra: .cfa -88 + ^ x29: .cfa -96 + ^
STACK CFI 180fc .cfa: sp 128 +
STACK CFI 18118 .cfa: sp 0 +
STACK CFI 1811c .cfa: x29 96 +
STACK CFI INIT 181c0 4b0 .cfa: sp 0 +
STACK CFI 181c4 .cfa: sp 96 +
STACK CFI 181dc .cfa: x29 96 + x19: .cfa -8 + ^ x20: .cfa -16 + ^ x21: .cfa -24 + ^ x22: .cfa -32 + ^ x23: .cfa -40 + ^ x24: .cfa -48 + ^ x25: .cfa -56 + ^ x26: .cfa -64 + ^ x27: .cfa -72 + ^ x28: .cfa -80 + ^ .ra: .cfa -88 + ^ x29: .cfa -96 + ^
STACK CFI 18574 .cfa: sp 96 +
STACK CFI 1858c .cfa: sp 0 +
STACK CFI 18590 .cfa: x29 96 +
STACK CFI INIT 18698 308 .cfa: sp 0 +
STACK CFI 1869c .cfa: sp 176 +
STACK CFI 186b0 .cfa: x29 64 + x19: .cfa -8 + ^ x20: .cfa -16 + ^ x21: .cfa -24 + ^ x22: .cfa -32 + ^ x23: .cfa -48 + ^ .ra: .cfa -56 + ^ x29: .cfa -64 + ^
STACK CFI 18898 .cfa: sp 176 +
STACK CFI 188ac .cfa: sp 0 +
STACK CFI 188b0 .cfa: x29 64 +
STACK CFI INIT 189f0 74 .cfa: sp 0 +
STACK CFI 189f4 .cfa: sp 48 +
STACK CFI 18a00 .cfa: x29 32 + x19: .cfa -8 + ^ x20: .cfa -16 + ^ .ra: .cfa -24 + ^ x29: .cfa -32 + ^
STACK CFI 18a4c .cfa: sp 48 +
STACK CFI 18a58 .cfa: sp 0 +
STACK CFI 18a5c .cfa: x29 32 +
STACK CFI INIT 18ae4 154 .cfa: sp 0 +
STACK CFI 18ae8 .cfa: sp 384 +
STACK CFI 18afc .cfa: x29 64 + x19: .cfa -8 + ^ x20: .cfa -16 + ^ x21: .cfa -24 + ^ x22: .cfa -32 + ^ x23: .cfa -40 + ^ x28: .cfa -48 + ^ .ra: .cfa -56 + ^ x29: .cfa -64 + ^
STACK CFI 18be0 .cfa: sp 384 +
STACK CFI 18bf4 .cfa: sp 0 +
STACK CFI 18bf8 .cfa: x29 64 +
STACK CFI INIT 18c6c 12c .cfa: sp 0 +
STACK CFI 18c70 .cfa: sp 80 +
STACK CFI 18c84 .cfa: x29 80 + x19: .cfa -8 + ^ x20: .cfa -16 + ^ x21: .cfa -24 + ^ x22: .cfa -32 + ^ x23: .cfa -40 + ^ x24: .cfa -48 + ^ x25: .cfa -56 + ^ x26: .cfa -64 + ^ .ra: .cfa -72 + ^ x29: .cfa -80 + ^
STACK CFI 18d4c .cfa: sp 80 +
STACK CFI 18d60 .cfa: sp 0 +
STACK CFI 18d64 .cfa: x29 80 +
STACK CFI INIT 18e3c 1a4 .cfa: sp 0 +
STACK CFI 18e40 .cfa: sp 112 +
STACK CFI 18e58 .cfa: x29 80 + x19: .cfa -8 + ^ x20: .cfa -16 + ^ x21: .cfa -24 + ^ x22: .cfa -32 + ^ x23: .cfa -40 + ^ x24: .cfa -48 + ^ x25: .cfa -56 + ^ x26: .cfa -64 + ^ .ra: .cfa -72 + ^ x29: .cfa -80 + ^
STACK CFI 18f48 .cfa: sp 112 +
STACK CFI 18f60 .cfa: sp 0 +
STACK CFI 18f64 .cfa: x29 80 +
STACK CFI INIT 18fe0 1dc .cfa: sp 0 +
STACK CFI 18fe4 .cfa: sp 128 +
STACK CFI 19000 .cfa: x29 96 + x19: .cfa -8 + ^ x20: .cfa -16 + ^ x21: .cfa -24 + ^ x22: .cfa -32 + ^ x23: .cfa -40 + ^ x24: .cfa -48 + ^ x25: .cfa -56 + ^ x26: .cfa -64 + ^ x27: .cfa -80 + ^ .ra: .cfa -88 + ^ x29: .cfa -96 + ^
STACK CFI 1916c .cfa: sp 128 +
STACK CFI 19188 .cfa: sp 0 +
STACK CFI 1918c .cfa: x29 96 +
STACK CFI INIT 191bc 178 .cfa: sp 0 +
STACK CFI 191c0 .cfa: sp 80 +
STACK CFI 191d4 .cfa: x29 80 + x19: .cfa -8 + ^ x20: .cfa -16 + ^ x21: .cfa -24 + ^ x22: .cfa -32 + ^ x23: .cfa -40 + ^ x24: .cfa -48 + ^ x25: .cfa -64 + ^ .ra: .cfa -72 + ^ x29: .cfa -80 + ^
STACK CFI 19300 .cfa: sp 80 +
STACK CFI 19314 .cfa: sp 0 +
STACK CFI 19318 .cfa: x29 80 +
STACK CFI INIT 1947c 228 .cfa: sp 0 +
STACK CFI 19480 .cfa: sp 128 +
STACK CFI 19498 .cfa: x29 80 + x19: .cfa -8 + ^ x20: .cfa -16 + ^ x21: .cfa -24 + ^ x22: .cfa -32 + ^ x23: .cfa -40 + ^ x24: .cfa -48 + ^ x25: .cfa -64 + ^ .ra: .cfa -72 + ^ x29: .cfa -80 + ^
STACK CFI 19634 .cfa: sp 128 +
STACK CFI 1964c .cfa: sp 0 +
STACK CFI 19650 .cfa: x29 80 +
STACK CFI INIT 19d80 14c .cfa: sp 0 +
STACK CFI 19d84 .cfa: sp 80 +
STACK CFI 19d94 .cfa: x29 48 + x19: .cfa -8 + ^ x20: .cfa -16 + ^ x21: .cfa -24 + ^ x22: .cfa -32 + ^ .ra: .cfa -40 + ^ x29: .cfa -48 + ^
STACK CFI 19e88 .cfa: sp 80 +
STACK CFI 19e98 .cfa: sp 0 +
STACK CFI 19e9c .cfa: x29 48 +
STACK CFI INIT 19ecc a8 .cfa: sp 0 +
STACK CFI 19ed0 .cfa: sp 32 +
STACK CFI 19ed8 .cfa: x29 32 + x19: .cfa -16 + ^ .ra: .cfa -24 + ^ x29: .cfa -32 + ^
STACK CFI 19f0c .cfa: sp 32 +
STACK CFI 19f14 .cfa: sp 0 +
STACK CFI 19f18 .cfa: x29 32 +
STACK CFI 19f1c .cfa: sp 32 +
STACK CFI 19f24 .cfa: sp 0 +
STACK CFI 19f28 .cfa: x29 32 +
STACK CFI INIT 1a0c4 140 .cfa: sp 0 +
STACK CFI 1a0c8 .cfa: sp 48 +
STACK CFI 1a0d4 .cfa: x29 48 + x19: .cfa -8 + ^ x20: .cfa -16 + ^ x21: .cfa -32 + ^ .ra: .cfa -40 + ^ x29: .cfa -48 + ^
STACK CFI 1a184 .cfa: sp 48 +
STACK CFI 1a190 .cfa: sp 0 +
STACK CFI 1a194 .cfa: sp 48 +
STACK CFI 1a1a0 .cfa: sp 0 +
STACK CFI 1a1a4 .cfa: x29 48 +
STACK CFI INIT 1a52c 2d8 .cfa: sp 0 +
STACK CFI 1a530 .cfa: sp 160 +
STACK CFI 1a540 .cfa: x29 48 + x19: .cfa -8 + ^ x20: .cfa -16 + ^ x21: .cfa -32 + ^ .ra: .cfa -40 + ^ x29: .cfa -48 + ^
STACK CFI 1a738 .cfa: sp 160 +
STACK CFI 1a748 .cfa: sp 0 +
STACK CFI 1a74c .cfa: x29 48 +
STACK CFI INIT 1a804 390 .cfa: sp 0 +
STACK CFI 1a808 .cfa: sp 192 +
STACK CFI 1a824 .cfa: x29 96 + x19: .cfa -8 + ^ x20: .cfa -16 + ^ x21: .cfa -24 + ^ x22: .cfa -32 + ^ x23: .cfa -40 + ^ x24: .cfa -48 + ^ x25: .cfa -56 + ^ x26: .cfa -64 + ^ x27: .cfa -72 + ^ x28: .cfa -80 + ^ .ra: .cfa -88 + ^ x29: .cfa -96 + ^
STACK CFI 1aa90 .cfa: sp 192 +
STACK CFI 1aaac .cfa: sp 0 +
STACK CFI 1aab0 .cfa: x29 96 +
STACK CFI INIT 1ac3c 1c0 .cfa: sp 0 +
STACK CFI 1ac40 .cfa: sp 128 +
STACK CFI 1ac54 .cfa: x29 64 + x19: .cfa -8 + ^ x20: .cfa -16 + ^ x21: .cfa -24 + ^ x22: .cfa -32 + ^ x23: .cfa -48 + ^ .ra: .cfa -56 + ^ x29: .cfa -64 + ^
STACK CFI 1ad64 .cfa: sp 128 +
STACK CFI 1ad78 .cfa: sp 0 +
STACK CFI 1ad7c .cfa: x29 64 +
STACK CFI INIT 1adfc 38c .cfa: sp 0 +
STACK CFI 1ae00 .cfa: sp 160 +
STACK CFI 1ae14 .cfa: x29 64 + x19: .cfa -8 + ^ x20: .cfa -16 + ^ x21: .cfa -24 + ^ x22: .cfa -32 + ^ x23: .cfa -48 + ^ .ra: .cfa -56 + ^ x29: .cfa -64 + ^
STACK CFI 1afe0 .cfa: sp 160 +
STACK CFI 1aff4 .cfa: sp 0 +
STACK CFI 1aff8 .cfa: x29 64 +
STACK CFI INIT 1b188 74 .cfa: sp 0 +
STACK CFI 1b18c .cfa: sp 32 +
STACK CFI 1b194 .cfa: x29 32 + x19: .cfa -8 + ^ x20: .cfa -16 + ^ .ra: .cfa -24 + ^ x29: .cfa -32 + ^
STACK CFI 1b1d4 .cfa: sp 32 +
STACK CFI 1b1dc .cfa: sp 0 +
STACK CFI 1b1e0 .cfa: x29 32 +
STACK CFI INIT 1b238 50 .cfa: sp 0 +
STACK CFI 1b23c .cfa: sp 32 +
STACK CFI 1b244 .cfa: x29 32 + x19: .cfa -8 + ^ x20: .cfa -16 + ^ .ra: .cfa -24 + ^ x29: .cfa -32 + ^
STACK CFI 1b260 .cfa: sp 32 +
STACK CFI 1b268 .cfa: sp 0 +
STACK CFI 1b26c .cfa: x29 32 +
STACK CFI INIT 1b4f0 954 .cfa: sp 0 +
STACK CFI 1b4f4 .cfa: sp 480 +
STACK CFI 1b520 .cfa: x29 96 + x19: .cfa -8 + ^ x20: .cfa -16 + ^ x21: .cfa -24 + ^ x22: .cfa -32 + ^ x23: .cfa -40 + ^ x24: .cfa -48 + ^ x25: .cfa -56 + ^ x26: .cfa -64 + ^ x27: .cfa -72 + ^ x28: .cfa -80 + ^ .ra: .cfa -88 + ^ x29: .cfa -96 + ^ v8: .cfa -104 + ^ v9: .cfa -112 + ^ v10: .cfa -120 + ^ v11: .cfa -128 + ^ v12: .cfa -136 + ^ v13: .cfa -144 + ^ v14: .cfa -152 + ^ v15: .cfa -160 + ^
STACK CFI 1bdb8 .cfa: sp 480 +
STACK CFI 1bde4 .cfa: sp 0 +
STACK CFI 1bde8 .cfa: x29 96 +
STACK CFI INIT 1be44 148 .cfa: sp 0 +
STACK CFI 1be48 .cfa: sp 64 +
STACK CFI 1be58 .cfa: x29 64 + x19: .cfa -8 + ^ x20: .cfa -16 + ^ x21: .cfa -24 + ^ x22: .cfa -32 + ^ x23: .cfa -40 + ^ x24: .cfa -48 + ^ .ra: .cfa -56 + ^ x29: .cfa -64 + ^
STACK CFI 1bf18 .cfa: sp 64 +
STACK CFI 1bf28 .cfa: sp 0 +
STACK CFI 1bf2c .cfa: x29 64 +
STACK CFI 1bf30 .cfa: sp 64 +
STACK CFI 1bf40 .cfa: sp 0 +
STACK CFI 1bf44 .cfa: x29 64 +
STACK CFI INIT 1bff8 198 .cfa: sp 0 +
STACK CFI 1bffc .cfa: sp 96 +
STACK CFI 1c00c .cfa: x29 48 + x19: .cfa -8 + ^ x20: .cfa -16 + ^ x21: .cfa -32 + ^ .ra: .cfa -40 + ^ x29: .cfa -48 + ^
STACK CFI 1c0e8 .cfa: sp 96 +
STACK CFI 1c0f8 .cfa: sp 0 +
STACK CFI 1c0fc .cfa: x29 48 +
STACK CFI INIT 1c1e8 43c .cfa: sp 0 +
STACK CFI 1c1ec .cfa: sp 224 +
STACK CFI 1c208 .cfa: x29 96 + x19: .cfa -8 + ^ x20: .cfa -16 + ^ x21: .cfa -24 + ^ x22: .cfa -32 + ^ x23: .cfa -40 + ^ x24: .cfa -48 + ^ x25: .cfa -56 + ^ x26: .cfa -64 + ^ x27: .cfa -72 + ^ x28: .cfa -80 + ^ .ra: .cfa -88 + ^ x29: .cfa -96 + ^
STACK CFI 1c51c .cfa: sp 224 +
STACK CFI 1c538 .cfa: sp 0 +
STACK CFI 1c53c .cfa: x29 96 +
STACK CFI INIT 1c624 43c .cfa: sp 0 +
STACK CFI 1c628 .cfa: sp 224 +
STACK CFI 1c644 .cfa: x29 96 + x19: .cfa -8 + ^ x20: .cfa -16 + ^ x21: .cfa -24 + ^ x22: .cfa -32 + ^ x23: .cfa -40 + ^ x24: .cfa -48 + ^ x25: .cfa -56 + ^ x26: .cfa -64 + ^ x27: .cfa -72 + ^ x28: .cfa -80 + ^ .ra: .cfa -88 + ^ x29: .cfa -96 + ^
STACK CFI 1c958 .cfa: sp 224 +
STACK CFI 1c974 .cfa: sp 0 +
STACK CFI 1c978 .cfa: x29 96 +
STACK CFI INIT 1ca60 43c .cfa: sp 0 +
STACK CFI 1ca64 .cfa: sp 224 +
STACK CFI 1ca80 .cfa: x29 96 + x19: .cfa -8 + ^ x20: .cfa -16 + ^ x21: .cfa -24 + ^ x22: .cfa -32 + ^ x23: .cfa -40 + ^ x24: .cfa -48 + ^ x25: .cfa -56 + ^ x26: .cfa -64 + ^ x27: .cfa -72 + ^ x28: .cfa -80 + ^ .ra: .cfa -88 + ^ x29: .cfa -96 + ^
STACK CFI 1cd94 .cfa: sp 224 +
STACK CFI 1cdb0 .cfa: sp 0 +
STACK CFI 1cdb4 .cfa: x29 96 +
STACK CFI INIT 1ce9c 43c .cfa: sp 0 +
STACK CFI 1cea0 .cfa: sp 224 +
STACK CFI 1cebc .cfa: x29 96 + x19: .cfa -8 + ^ x20: .cfa -16 + ^ x21: .cfa -24 + ^ x22: .cfa -32 + ^ x23: .cfa -40 + ^ x24: .cfa -48 + ^ x25: .cfa -56 + ^ x26: .cfa -64 + ^ x27: .cfa -72 + ^ x28: .cfa -80 + ^ .ra: .cfa -88 + ^ x29: .cfa -96 + ^
STACK CFI 1d1d0 .cfa: sp 224 +
STACK CFI 1d1ec .cfa: sp 0 +
STACK CFI 1d1f0 .cfa: x29 96 +
STACK CFI INIT 1d2d8 43c .cfa: sp 0 +
STACK CFI 1d2dc .cfa: sp 224 +
STACK CFI 1d2f8 .cfa: x29 96 + x19: .cfa -8 + ^ x20: .cfa -16 + ^ x21: .cfa -24 + ^ x22: .cfa -32 + ^ x23: .cfa -40 + ^ x24: .cfa -48 + ^ x25: .cfa -56 + ^ x26: .cfa -64 + ^ x27: .cfa -72 + ^ x28: .cfa -80 + ^ .ra: .cfa -88 + ^ x29: .cfa -96 + ^
STACK CFI 1d60c .cfa: sp 224 +
STACK CFI 1d628 .cfa: sp 0 +
STACK CFI 1d62c .cfa: x29 96 +
STACK CFI INIT 1d7a0 3d0 .cfa: sp 0 +
STACK CFI 1d7a4 .cfa: sp 272 +
STACK CFI 1d7b8 .cfa: x29 64 + x19: .cfa -8 + ^ x20: .cfa -16 + ^ x21: .cfa -24 + ^ x22: .cfa -32 + ^ x23: .cfa -40 + ^ x28: .cfa -48 + ^ .ra: .cfa -56 + ^ x29: .cfa -64 + ^
STACK CFI 1da38 .cfa: sp 272 +
STACK CFI 1da4c .cfa: sp 0 +
STACK CFI 1da50 .cfa: x29 64 +
STACK CFI INIT 1db74 1c0 .cfa: sp 0 +
STACK CFI 1db78 .cfa: sp 96 +
STACK CFI 1db90 .cfa: x29 64 + x19: .cfa -8 + ^ x20: .cfa -16 + ^ x21: .cfa -24 + ^ x22: .cfa -32 + ^ x23: .cfa -40 + ^ x24: .cfa -48 + ^ .ra: .cfa -56 + ^ x29: .cfa -64 + ^ v8: .cfa -72 + ^ v9: .cfa -80 + ^ v10: .cfa -88 + ^ v11: .cfa -96 + ^
STACK CFI 1dc0c .cfa: sp 96 +
STACK CFI 1dc24 .cfa: sp 0 +
STACK CFI 1dc28 .cfa: x29 64 +
STACK CFI 1dcb8 .cfa: sp 96 +
STACK CFI 1dcd0 .cfa: sp 0 +
STACK CFI 1dcd4 .cfa: x29 64 +
STACK CFI INIT 1dd34 678 .cfa: sp 0 +
STACK CFI 1dd38 .cfa: sp 304 +
STACK CFI 1dd54 .cfa: x29 96 + x19: .cfa -8 + ^ x20: .cfa -16 + ^ x21: .cfa -24 + ^ x22: .cfa -32 + ^ x23: .cfa -40 + ^ x24: .cfa -48 + ^ x25: .cfa -56 + ^ x26: .cfa -64 + ^ x28: .cfa -80 + ^ .ra: .cfa -88 + ^ x29: .cfa -96 + ^
STACK CFI 1e1cc .cfa: sp 304 +
STACK CFI 1e1e8 .cfa: sp 0 +
STACK CFI 1e1ec .cfa: x29 96 +
STACK CFI INIT 1e3b0 114 .cfa: sp 0 +
STACK CFI 1e3b4 .cfa: sp 32 +
STACK CFI 1e3bc .cfa: x29 32 + x19: .cfa -8 + ^ x20: .cfa -16 + ^ .ra: .cfa -24 + ^ x29: .cfa -32 + ^
STACK CFI 1e400 .cfa: sp 32 +
STACK CFI 1e408 .cfa: sp 0 +
STACK CFI 1e40c .cfa: x29 32 +
STACK CFI 1e44c .cfa: sp 32 +
STACK CFI 1e454 .cfa: sp 0 +
STACK CFI 1e458 .cfa: sp 32 +
STACK CFI 1e460 .cfa: sp 0 +
STACK CFI 1e464 .cfa: x29 32 +
STACK CFI INIT 1e4c4 204 .cfa: sp 0 +
STACK CFI 1e4c8 .cfa: sp 96 +
STACK CFI 1e4dc .cfa: x29 64 + x19: .cfa -8 + ^ x20: .cfa -16 + ^ x21: .cfa -24 + ^ x22: .cfa -32 + ^ x23: .cfa -40 + ^ x24: .cfa -48 + ^ .ra: .cfa -56 + ^ x29: .cfa -64 + ^
STACK CFI 1e584 .cfa: sp 96 +
STACK CFI 1e598 .cfa: sp 0 +
STACK CFI 1e59c .cfa: x29 64 +
STACK CFI 1e60c .cfa: sp 96 +
STACK CFI 1e620 .cfa: sp 0 +
STACK CFI 1e624 .cfa: x29 64 +
STACK CFI INIT 1e6c8 3ec .cfa: sp 0 +
STACK CFI 1e6cc .cfa: sp 288 +
STACK CFI 1e6e4 .cfa: x29 80 + x19: .cfa -8 + ^ x20: .cfa -16 + ^ x21: .cfa -24 + ^ x22: .cfa -32 + ^ x23: .cfa -40 + ^ x24: .cfa -48 + ^ x28: .cfa -64 + ^ .ra: .cfa -72 + ^ x29: .cfa -80 + ^
STACK CFI 1e978 .cfa: sp 288 +
STACK CFI 1e990 .cfa: sp 0 +
STACK CFI 1e994 .cfa: x29 80 +
STACK CFI INIT 1eab8 294 .cfa: sp 0 +
STACK CFI 1eabc .cfa: sp 64 +
STACK CFI 1eacc .cfa: x29 64 + x19: .cfa -8 + ^ x20: .cfa -16 + ^ x21: .cfa -24 + ^ x22: .cfa -32 + ^ x23: .cfa -40 + ^ x24: .cfa -48 + ^ .ra: .cfa -56 + ^ x29: .cfa -64 + ^
STACK CFI 1eb60 .cfa: sp 64 +
STACK CFI 1eb70 .cfa: sp 0 +
STACK CFI 1eb74 .cfa: x29 64 +
STACK CFI 1ebb0 .cfa: sp 64 +
STACK CFI 1ebc0 .cfa: sp 0 +
STACK CFI 1ebc4 .cfa: x29 64 +
STACK CFI INIT 1ed4c 3e0 .cfa: sp 0 +
STACK CFI 1ed50 .cfa: sp 256 +
STACK CFI 1ed64 .cfa: x29 64 + x19: .cfa -8 + ^ x20: .cfa -16 + ^ x21: .cfa -24 + ^ x22: .cfa -32 + ^ x23: .cfa -40 + ^ x24: .cfa -48 + ^ .ra: .cfa -56 + ^ x29: .cfa -64 + ^
STACK CFI 1eff4 .cfa: sp 256 +
STACK CFI 1f008 .cfa: sp 0 +
STACK CFI 1f00c .cfa: x29 64 +
STACK CFI INIT 1f130 2c4 .cfa: sp 0 +
STACK CFI 1f134 .cfa: sp 144 +
STACK CFI 1f154 .cfa: x29 96 + x19: .cfa -8 + ^ x20: .cfa -16 + ^ x21: .cfa -24 + ^ x22: .cfa -32 + ^ x23: .cfa -40 + ^ x24: .cfa -48 + ^ x25: .cfa -56 + ^ x26: .cfa -64 + ^ x27: .cfa -80 + ^ .ra: .cfa -88 + ^ x29: .cfa -96 + ^ v8: .cfa -104 + ^ v9: .cfa -112 + ^
STACK CFI 1f280 .cfa: sp 144 +
STACK CFI 1f2a0 .cfa: sp 0 +
STACK CFI 1f2a4 .cfa: x29 96 +
STACK CFI 1f310 .cfa: sp 144 +
STACK CFI 1f330 .cfa: sp 0 +
STACK CFI 1f334 .cfa: x29 96 +
STACK CFI INIT 1f3f4 340 .cfa: sp 0 +
STACK CFI 1f3f8 .cfa: sp 240 +
STACK CFI 1f40c .cfa: x29 64 + x19: .cfa -8 + ^ x20: .cfa -16 + ^ x21: .cfa -24 + ^ x22: .cfa -32 + ^ x23: .cfa -48 + ^ .ra: .cfa -56 + ^ x29: .cfa -64 + ^
STACK CFI 1f61c .cfa: sp 240 +
STACK CFI 1f630 .cfa: sp 0 +
STACK CFI 1f634 .cfa: x29 64 +
STACK CFI INIT 1f738 124 .cfa: sp 0 +
STACK CFI 1f73c .cfa: sp 32 +
STACK CFI 1f744 .cfa: x29 32 + x19: .cfa -16 + ^ .ra: .cfa -24 + ^ x29: .cfa -32 + ^
STACK CFI 1f774 .cfa: sp 32 +
STACK CFI 1f77c .cfa: sp 0 +
STACK CFI 1f780 .cfa: sp 32 +
STACK CFI 1f788 .cfa: sp 0 +
STACK CFI 1f78c .cfa: x29 32 +
STACK CFI 1f820 .cfa: sp 32 +
STACK CFI 1f828 .cfa: sp 0 +
STACK CFI 1f82c .cfa: x29 32 +
STACK CFI INIT 228d4 614 .cfa: sp 0 +
STACK CFI 228d8 .cfa: sp 80 +
STACK CFI 228ec .cfa: x29 80 + x19: .cfa -8 + ^ x20: .cfa -16 + ^ x21: .cfa -24 + ^ x22: .cfa -32 + ^ x23: .cfa -40 + ^ x24: .cfa -48 + ^ x25: .cfa -56 + ^ x26: .cfa -64 + ^ .ra: .cfa -72 + ^ x29: .cfa -80 + ^
STACK CFI 22eb8 .cfa: sp 80 +
STACK CFI 22ecc .cfa: sp 0 +
STACK CFI 22ed0 .cfa: x29 80 +
STACK CFI INIT 22ee8 1e80 .cfa: sp 0 +
STACK CFI 22eec .cfa: sp 144 +
STACK CFI 22f08 .cfa: x29 96 + x19: .cfa -8 + ^ x20: .cfa -16 + ^ x21: .cfa -24 + ^ x22: .cfa -32 + ^ x23: .cfa -40 + ^ x24: .cfa -48 + ^ x25: .cfa -56 + ^ x26: .cfa -64 + ^ x27: .cfa -72 + ^ x28: .cfa -80 + ^ .ra: .cfa -88 + ^ x29: .cfa -96 + ^
STACK CFI 24d40 .cfa: sp 144 +
STACK CFI 24d5c .cfa: sp 0 +
STACK CFI 24d60 .cfa: x29 96 +
STACK CFI INIT 24d68 da8 .cfa: sp 0 +
STACK CFI 24d6c .cfa: sp 272 +
STACK CFI 24d8c .cfa: x29 96 + x19: .cfa -8 + ^ x20: .cfa -16 + ^ x21: .cfa -24 + ^ x22: .cfa -32 + ^ x23: .cfa -40 + ^ x24: .cfa -48 + ^ x25: .cfa -56 + ^ x26: .cfa -64 + ^ x27: .cfa -72 + ^ x28: .cfa -80 + ^ .ra: .cfa -88 + ^ x29: .cfa -96 + ^ v8: .cfa -104 + ^ v9: .cfa -112 + ^
STACK CFI 25934 .cfa: sp 272 +
STACK CFI 25954 .cfa: sp 0 +
STACK CFI 25958 .cfa: x29 96 +
STACK CFI INIT 2877c 51c .cfa: sp 0 +
STACK CFI 28780 .cfa: sp 32 +
STACK CFI 28788 .cfa: x29 32 + x19: .cfa -8 + ^ x20: .cfa -16 + ^ .ra: .cfa -24 + ^ x29: .cfa -32 + ^
STACK CFI 28c20 .cfa: sp 32 +
STACK CFI 28c28 .cfa: sp 0 +
STACK CFI 28c2c .cfa: x29 32 +
STACK CFI 28c84 .cfa: sp 32 +
STACK CFI 28c8c .cfa: sp 0 +
STACK CFI 28c90 .cfa: x29 32 +
STACK CFI INIT 31118 5394 .cfa: sp 0 +
STACK CFI 3111c .cfa: sp 160 +
STACK CFI 31144 .cfa: x29 96 + x19: .cfa -8 + ^ x20: .cfa -16 + ^ x21: .cfa -24 + ^ x22: .cfa -32 + ^ x23: .cfa -40 + ^ x24: .cfa -48 + ^ x25: .cfa -56 + ^ x26: .cfa -64 + ^ x27: .cfa -72 + ^ x28: .cfa -80 + ^ .ra: .cfa -88 + ^ x29: .cfa -96 + ^ v8: .cfa -104 + ^ v9: .cfa -112 + ^ v10: .cfa -120 + ^ v11: .cfa -128 + ^ v12: .cfa -136 + ^ v13: .cfa -144 + ^ v14: .cfa -152 + ^ v15: .cfa -160 + ^
STACK CFI 32ba4 .cfa: sp 160 +
STACK CFI 32bcc .cfa: sp 0 +
STACK CFI 32bd0 .cfa: x29 96 +
STACK CFI INIT 42544 16c .cfa: sp 0 +
STACK CFI 42548 .cfa: sp 32 +
STACK CFI 42550 .cfa: x29 32 + x19: .cfa -8 + ^ x20: .cfa -16 + ^ .ra: .cfa -24 + ^ x29: .cfa -32 + ^
STACK CFI 4263c .cfa: sp 32 +
STACK CFI 42644 .cfa: sp 0 +
STACK CFI 42648 .cfa: x29 32 +
STACK CFI 426a0 .cfa: sp 32 +
STACK CFI 426a8 .cfa: sp 0 +
STACK CFI 426ac .cfa: x29 32 +
STACK CFI INIT 4889c 110 .cfa: sp 0 +
STACK CFI 488a0 .cfa: sp 32 +
STACK CFI 488a8 .cfa: x29 32 + x19: .cfa -8 + ^ x20: .cfa -16 + ^ .ra: .cfa -24 + ^ x29: .cfa -32 + ^
STACK CFI 4897c .cfa: sp 32 +
STACK CFI 48984 .cfa: sp 0 +
STACK CFI 48988 .cfa: x29 32 +
STACK CFI INIT 51ff8 4a4 .cfa: sp 0 +
STACK CFI 51ffc .cfa: sp 128 +
STACK CFI 52018 .cfa: x29 96 + x19: .cfa -8 + ^ x20: .cfa -16 + ^ x21: .cfa -24 + ^ x22: .cfa -32 + ^ x23: .cfa -40 + ^ x24: .cfa -48 + ^ x25: .cfa -56 + ^ x26: .cfa -64 + ^ x27: .cfa -72 + ^ x28: .cfa -80 + ^ .ra: .cfa -88 + ^ x29: .cfa -96 + ^
STACK CFI 52448 .cfa: sp 128 +
STACK CFI 52464 .cfa: sp 0 +
STACK CFI 52468 .cfa: x29 96 +
STACK CFI INIT 5c7c8 e350 .cfa: sp 0 +
STACK CFI 5c7cc .cfa: sp 160 +
STACK CFI 5c7f4 .cfa: x29 96 + x19: .cfa -8 + ^ x20: .cfa -16 + ^ x21: .cfa -24 + ^ x22: .cfa -32 + ^ x23: .cfa -40 + ^ x24: .cfa -48 + ^ x25: .cfa -56 + ^ x26: .cfa -64 + ^ x27: .cfa -72 + ^ x28: .cfa -80 + ^ .ra: .cfa -88 + ^ x29: .cfa -96 + ^ v8: .cfa -104 + ^ v9: .cfa -112 + ^ v10: .cfa -120 + ^ v11: .cfa -128 + ^ v12: .cfa -136 + ^ v13: .cfa -144 + ^ v14: .cfa -152 + ^ v15: .cfa -160 + ^
STACK CFI 6a9fc .cfa: sp 160 +
STACK CFI 6aa24 .cfa: sp 0 +
STACK CFI 6aa28 .cfa: x29 96 +
STACK CFI INIT 6f5b8 134 .cfa: sp 0 +
STACK CFI 6f5bc .cfa: sp 80 +
STACK CFI 6f5c8 .cfa: x29 32 + x19: .cfa -8 + ^ x20: .cfa -16 + ^ .ra: .cfa -24 + ^ x29: .cfa -32 + ^
STACK CFI 6f5f8 .cfa: sp 80 +
STACK CFI 6f604 .cfa: sp 0 +
STACK CFI 6f608 .cfa: x29 32 +
STACK CFI INIT 6f6ec 78 .cfa: sp 0 +
STACK CFI 6f6f0 .cfa: sp 32 +
STACK CFI 6f6f8 .cfa: x29 32 + x19: .cfa -8 + ^ x20: .cfa -16 + ^ .ra: .cfa -24 + ^ x29: .cfa -32 + ^
STACK CFI 6f704 .cfa: sp 32 +
STACK CFI 6f70c .cfa: sp 0 +
STACK CFI 6f710 .cfa: x29 32 +
STACK CFI INIT 6f764 74 .cfa: sp 0 +
STACK CFI 6f768 .cfa: sp 48 +
STACK CFI 6f774 .cfa: x29 32 + x19: .cfa -8 + ^ x20: .cfa -16 + ^ .ra: .cfa -24 + ^ x29: .cfa -32 + ^
STACK CFI 6f7c0 .cfa: sp 48 +
STACK CFI 6f7cc .cfa: sp 0 +
STACK CFI 6f7d0 .cfa: x29 32 +
STACK CFI INIT 6f860 270 .cfa: sp 0 +
STACK CFI 6f864 .cfa: sp 144 +
STACK CFI 6f878 .cfa: x29 64 + x19: .cfa -8 + ^ x20: .cfa -16 + ^ x21: .cfa -24 + ^ x22: .cfa -32 + ^ x23: .cfa -48 + ^ .ra: .cfa -56 + ^ x29: .cfa -64 + ^
STACK CFI 6f97c .cfa: sp 144 +
STACK CFI 6f990 .cfa: sp 0 +
STACK CFI 6f994 .cfa: x29 64 +
STACK CFI INIT 6faf4 22c .cfa: sp 0 +
STACK CFI 6faf8 .cfa: sp 128 +
STACK CFI 6fb08 .cfa: x29 48 + x19: .cfa -8 + ^ x20: .cfa -16 + ^ x21: .cfa -32 + ^ .ra: .cfa -40 + ^ x29: .cfa -48 + ^
STACK CFI 6fbc0 .cfa: sp 128 +
STACK CFI 6fbd0 .cfa: sp 0 +
STACK CFI 6fbd4 .cfa: x29 48 +
STACK CFI INIT 6fd2c 4f4 .cfa: sp 0 +
STACK CFI 6fd30 .cfa: sp 144 +
STACK CFI 6fd44 .cfa: x29 64 + x19: .cfa -8 + ^ x20: .cfa -16 + ^ x21: .cfa -24 + ^ x22: .cfa -32 + ^ x23: .cfa -48 + ^ .ra: .cfa -56 + ^ x29: .cfa -64 + ^
STACK CFI 70078 .cfa: sp 144 +
STACK CFI 7008c .cfa: sp 0 +
STACK CFI 70090 .cfa: x29 64 +
STACK CFI INIT 70220 154 .cfa: sp 0 +
STACK CFI 70224 .cfa: sp 384 +
STACK CFI 70238 .cfa: x29 64 + x19: .cfa -8 + ^ x20: .cfa -16 + ^ x21: .cfa -24 + ^ x22: .cfa -32 + ^ x23: .cfa -40 + ^ x28: .cfa -48 + ^ .ra: .cfa -56 + ^ x29: .cfa -64 + ^
STACK CFI 7031c .cfa: sp 384 +
STACK CFI 70330 .cfa: sp 0 +
STACK CFI 70334 .cfa: x29 64 +
STACK CFI INIT 70374 168 .cfa: sp 0 +
STACK CFI 70378 .cfa: sp 384 +
STACK CFI 7038c .cfa: x29 64 + x19: .cfa -8 + ^ x20: .cfa -16 + ^ x21: .cfa -24 + ^ x22: .cfa -32 + ^ x23: .cfa -40 + ^ x28: .cfa -48 + ^ .ra: .cfa -56 + ^ x29: .cfa -64 + ^
STACK CFI 70484 .cfa: sp 384 +
STACK CFI 70498 .cfa: sp 0 +
STACK CFI 7049c .cfa: x29 64 +
STACK CFI INIT 704f4 50c .cfa: sp 0 +
STACK CFI 704f8 .cfa: sp 64 +
STACK CFI 70508 .cfa: x29 64 + x19: .cfa -8 + ^ x20: .cfa -16 + ^ x21: .cfa -24 + ^ x22: .cfa -32 + ^ x23: .cfa -40 + ^ x24: .cfa -48 + ^ .ra: .cfa -56 + ^ x29: .cfa -64 + ^
STACK CFI 70628 .cfa: sp 64 +
STACK CFI 70638 .cfa: sp 0 +
STACK CFI 7063c .cfa: x29 64 +
STACK CFI 709d4 .cfa: sp 64 +
STACK CFI 709e4 .cfa: sp 0 +
STACK CFI 709e8 .cfa: x29 64 +
STACK CFI INIT 70d30 294 .cfa: sp 0 +
STACK CFI 70d34 .cfa: sp 240 +
STACK CFI 70d4c .cfa: x29 80 + x19: .cfa -8 + ^ x20: .cfa -16 + ^ x21: .cfa -24 + ^ x22: .cfa -32 + ^ x23: .cfa -40 + ^ x24: .cfa -48 + ^ x25: .cfa -64 + ^ .ra: .cfa -72 + ^ x29: .cfa -80 + ^
STACK CFI 70eec .cfa: sp 240 +
STACK CFI 70f04 .cfa: sp 0 +
STACK CFI 70f08 .cfa: x29 80 +
STACK CFI INIT 71040 50 .cfa: sp 0 +
STACK CFI 71044 .cfa: sp 32 +
STACK CFI 7104c .cfa: x29 32 + x19: .cfa -8 + ^ x20: .cfa -16 + ^ .ra: .cfa -24 + ^ x29: .cfa -32 + ^
STACK CFI INIT 710bc 7c0 .cfa: sp 0 +
STACK CFI 710c0 .cfa: sp 320 +
STACK CFI 710dc .cfa: x29 96 + x19: .cfa -8 + ^ x20: .cfa -16 + ^ x21: .cfa -24 + ^ x22: .cfa -32 + ^ x23: .cfa -40 + ^ x24: .cfa -48 + ^ x25: .cfa -56 + ^ x26: .cfa -64 + ^ x27: .cfa -72 + ^ x28: .cfa -80 + ^ .ra: .cfa -88 + ^ x29: .cfa -96 + ^
STACK CFI 7172c .cfa: sp 320 +
STACK CFI 71748 .cfa: sp 0 +
STACK CFI 7174c .cfa: x29 96 +
STACK CFI INIT 75bfc c74 .cfa: sp 0 +
STACK CFI 75c00 .cfa: sp 96 +
STACK CFI 75c18 .cfa: x29 96 + x19: .cfa -8 + ^ x20: .cfa -16 + ^ x21: .cfa -24 + ^ x22: .cfa -32 + ^ x23: .cfa -40 + ^ x24: .cfa -48 + ^ x25: .cfa -56 + ^ x26: .cfa -64 + ^ x27: .cfa -72 + ^ x28: .cfa -80 + ^ .ra: .cfa -88 + ^ x29: .cfa -96 + ^
STACK CFI 76690 .cfa: sp 96 +
STACK CFI 766a8 .cfa: sp 0 +
STACK CFI 766ac .cfa: x29 96 +
STACK CFI INIT 769c4 26c .cfa: sp 0 +
STACK CFI 769c8 .cfa: sp 128 +
STACK CFI 769d8 .cfa: x29 48 + x19: .cfa -8 + ^ x20: .cfa -16 + ^ x21: .cfa -24 + ^ x22: .cfa -32 + ^ .ra: .cfa -40 + ^ x29: .cfa -48 + ^
STACK CFI 76b7c .cfa: sp 128 +
STACK CFI 76b8c .cfa: sp 0 +
STACK CFI 76b90 .cfa: x29 48 +
STACK CFI INIT 76fc0 3b8 .cfa: sp 0 +
STACK CFI 76fc4 .cfa: sp 96 +
STACK CFI 76fdc .cfa: x29 96 + x19: .cfa -8 + ^ x20: .cfa -16 + ^ x21: .cfa -24 + ^ x22: .cfa -32 + ^ x23: .cfa -40 + ^ x24: .cfa -48 + ^ x25: .cfa -56 + ^ x26: .cfa -64 + ^ x27: .cfa -72 + ^ x28: .cfa -80 + ^ .ra: .cfa -88 + ^ x29: .cfa -96 + ^
STACK CFI 77318 .cfa: sp 96 +
STACK CFI 77330 .cfa: sp 0 +
STACK CFI 77334 .cfa: x29 96 +
STACK CFI INIT 77418 cb4 .cfa: sp 0 +
STACK CFI 7741c .cfa: sp 96 +
STACK CFI 77434 .cfa: x29 96 + x19: .cfa -8 + ^ x20: .cfa -16 + ^ x21: .cfa -24 + ^ x22: .cfa -32 + ^ x23: .cfa -40 + ^ x24: .cfa -48 + ^ x25: .cfa -56 + ^ x26: .cfa -64 + ^ x27: .cfa -72 + ^ x28: .cfa -80 + ^ .ra: .cfa -88 + ^ x29: .cfa -96 + ^
STACK CFI 77edc .cfa: sp 96 +
STACK CFI 77ef4 .cfa: sp 0 +
STACK CFI 77ef8 .cfa: x29 96 +
STACK CFI INIT 783b4 afc .cfa: sp 0 +
STACK CFI 783b8 .cfa: sp 96 +
STACK CFI 783d0 .cfa: x29 96 + x19: .cfa -8 + ^ x20: .cfa -16 + ^ x21: .cfa -24 + ^ x22: .cfa -32 + ^ x23: .cfa -40 + ^ x24: .cfa -48 + ^ x25: .cfa -56 + ^ x26: .cfa -64 + ^ x27: .cfa -72 + ^ x28: .cfa -80 + ^ .ra: .cfa -88 + ^ x29: .cfa -96 + ^
STACK CFI 78e24 .cfa: sp 96 +
STACK CFI 78e3c .cfa: sp 0 +
STACK CFI 78e40 .cfa: x29 96 +
STACK CFI INIT 7908c 1430 .cfa: sp 0 +
STACK CFI 79090 .cfa: sp 96 +
STACK CFI 790a8 .cfa: x29 96 + x19: .cfa -8 + ^ x20: .cfa -16 + ^ x21: .cfa -24 + ^ x22: .cfa -32 + ^ x23: .cfa -40 + ^ x24: .cfa -48 + ^ x25: .cfa -56 + ^ x26: .cfa -64 + ^ x27: .cfa -72 + ^ x28: .cfa -80 + ^ .ra: .cfa -88 + ^ x29: .cfa -96 + ^
STACK CFI 7a344 .cfa: sp 96 +
STACK CFI 7a35c .cfa: sp 0 +
STACK CFI 7a360 .cfa: x29 96 +
STACK CFI INIT 7a5e0 75c .cfa: sp 0 +
STACK CFI 7a5e4 .cfa: sp 368 +
STACK CFI 7a600 .cfa: x29 96 + x19: .cfa -8 + ^ x20: .cfa -16 + ^ x21: .cfa -24 + ^ x22: .cfa -32 + ^ x23: .cfa -40 + ^ x24: .cfa -48 + ^ x25: .cfa -56 + ^ x26: .cfa -64 + ^ x27: .cfa -72 + ^ x28: .cfa -80 + ^ .ra: .cfa -88 + ^ x29: .cfa -96 + ^
STACK CFI 7a6b4 .cfa: sp 368 +
STACK CFI 7a6d0 .cfa: sp 0 +
STACK CFI 7a6d4 .cfa: x29 96 +
STACK CFI 7a728 .cfa: sp 368 +
STACK CFI 7a744 .cfa: sp 0 +
STACK CFI 7a748 .cfa: x29 96 +
STACK CFI INIT 7b0fc eb0 .cfa: sp 0 +
STACK CFI 7b100 .cfa: sp 96 +
STACK CFI 7b118 .cfa: x29 96 + x19: .cfa -8 + ^ x20: .cfa -16 + ^ x21: .cfa -24 + ^ x22: .cfa -32 + ^ x23: .cfa -40 + ^ x24: .cfa -48 + ^ x25: .cfa -56 + ^ x26: .cfa -64 + ^ x27: .cfa -72 + ^ x28: .cfa -80 + ^ .ra: .cfa -88 + ^ x29: .cfa -96 + ^
STACK CFI 7bdc0 .cfa: sp 96 +
STACK CFI 7bdd8 .cfa: sp 0 +
STACK CFI 7bddc .cfa: x29 96 +
STACK CFI INIT 7c320 1c9c .cfa: sp 0 +
STACK CFI 7c324 .cfa: sp 112 +
STACK CFI 7c340 .cfa: x29 96 + x19: .cfa -8 + ^ x20: .cfa -16 + ^ x21: .cfa -24 + ^ x22: .cfa -32 + ^ x23: .cfa -40 + ^ x24: .cfa -48 + ^ x25: .cfa -56 + ^ x26: .cfa -64 + ^ x27: .cfa -72 + ^ x28: .cfa -80 + ^ .ra: .cfa -88 + ^ x29: .cfa -96 + ^ v8: .cfa -112 + ^
STACK CFI 7c728 .cfa: sp 112 +
STACK CFI 7c744 .cfa: sp 0 +
STACK CFI 7c748 .cfa: x29 96 +
STACK CFI INIT 80780 9a0 .cfa: sp 0 +
STACK CFI 80784 .cfa: sp 144 +
STACK CFI 8079c .cfa: x29 80 + x19: .cfa -8 + ^ x20: .cfa -16 + ^ x21: .cfa -24 + ^ x22: .cfa -32 + ^ x23: .cfa -40 + ^ x24: .cfa -48 + ^ x25: .cfa -64 + ^ .ra: .cfa -72 + ^ x29: .cfa -80 + ^
STACK CFI 8109c .cfa: sp 144 +
STACK CFI 810b4 .cfa: sp 0 +
STACK CFI 810b8 .cfa: x29 80 +
STACK CFI INIT 82644 57c .cfa: sp 0 +
STACK CFI 82648 .cfa: sp 96 +
STACK CFI 82660 .cfa: x29 96 + x19: .cfa -8 + ^ x20: .cfa -16 + ^ x21: .cfa -24 + ^ x22: .cfa -32 + ^ x23: .cfa -40 + ^ x24: .cfa -48 + ^ x25: .cfa -56 + ^ x26: .cfa -64 + ^ x27: .cfa -72 + ^ x28: .cfa -80 + ^ .ra: .cfa -88 + ^ x29: .cfa -96 + ^
STACK CFI 82b24 .cfa: sp 96 +
STACK CFI 82b3c .cfa: sp 0 +
STACK CFI 82b40 .cfa: x29 96 +
STACK CFI INIT 82bc0 67c .cfa: sp 0 +
STACK CFI 82bc4 .cfa: sp 96 +
STACK CFI 82bdc .cfa: x29 96 + x19: .cfa -8 + ^ x20: .cfa -16 + ^ x21: .cfa -24 + ^ x22: .cfa -32 + ^ x23: .cfa -40 + ^ x24: .cfa -48 + ^ x25: .cfa -56 + ^ x26: .cfa -64 + ^ x27: .cfa -72 + ^ x28: .cfa -80 + ^ .ra: .cfa -88 + ^ x29: .cfa -96 + ^
STACK CFI 831a0 .cfa: sp 96 +
STACK CFI 831b8 .cfa: sp 0 +
STACK CFI 831bc .cfa: x29 96 +
