MODULE Linux arm64 5C765680606E9969D8857ADCEE8C76020 ml5.shopping-list.android64.so
INFO CODE_ID 8056765C6E606999D8857ADCEE8C76021EC020FE
INFO GENERATOR mozilla/dump_syms 2.3.4
PUBLIC 189f0 0 __on_dlclose
PUBLIC 18a00 0 __emutls_unregister_key
PUBLIC 18a08 0 __on_dlclose_late
PUBLIC 18a10 0 __atexit_handler_wrapper
PUBLIC 18a24 0 atexit
PUBLIC 18a40 0 pthread_atfork
PUBLIC 18a50 0 unwind_phase2
PUBLIC 18b84 0 _Unwind_Resume
PUBLIC 18c08 0 unwind_phase2_forced
PUBLIC m 18cfc 0 __unw_init_local
PUBLIC m 18da4 0 __unw_get_reg
PUBLIC 18e20 0 __unw_step_stage2
PUBLIC m 18e34 0 __unw_get_proc_info
PUBLIC m 18e74 0 __unw_resume
PUBLIC 18e9c 0 libunwind::CFI_Parser<libunwind::LocalAddressSpace>::decodeFDE(libunwind::LocalAddressSpace&, unsigned long, libunwind::CFI_Parser<libunwind::LocalAddressSpace>::FDE_Info*, libunwind::CFI_Parser<libunwind::LocalAddressSpace>::CIE_Info*, bool)
PUBLIC 1902c 0 libunwind::CFI_Parser<libunwind::LocalAddressSpace>::parseCIE(libunwind::LocalAddressSpace&, unsigned long, libunwind::CFI_Parser<libunwind::LocalAddressSpace>::CIE_Info*)
PUBLIC 192f4 0 libunwind::AbstractUnwindCursor::~AbstractUnwindCursor()
PUBLIC 192fc 0 libunwind::UnwindCursor<libunwind::LocalAddressSpace, libunwind::Registers_arm64>::~UnwindCursor()
PUBLIC 19304 0 libunwind::UnwindCursor<libunwind::LocalAddressSpace, libunwind::Registers_arm64>::validReg(int)
PUBLIC 19348 0 libunwind::UnwindCursor<libunwind::LocalAddressSpace, libunwind::Registers_arm64>::getReg(int)
PUBLIC 19430 0 libunwind::UnwindCursor<libunwind::LocalAddressSpace, libunwind::Registers_arm64>::setReg(int, unsigned long)
PUBLIC 19518 0 libunwind::UnwindCursor<libunwind::LocalAddressSpace, libunwind::Registers_arm64>::validFloatReg(int)
PUBLIC 1952c 0 libunwind::UnwindCursor<libunwind::LocalAddressSpace, libunwind::Registers_arm64>::getFloatReg(int)
PUBLIC 1953c 0 libunwind::UnwindCursor<libunwind::LocalAddressSpace, libunwind::Registers_arm64>::setFloatReg(int, double)
PUBLIC 1954c 0 libunwind::UnwindCursor<libunwind::LocalAddressSpace, libunwind::Registers_arm64>::step(bool)
PUBLIC 1963c 0 libunwind::UnwindCursor<libunwind::LocalAddressSpace, libunwind::Registers_arm64>::getInfo(unw_proc_info_t*)
PUBLIC 19680 0 libunwind::UnwindCursor<libunwind::LocalAddressSpace, libunwind::Registers_arm64>::jumpto()
PUBLIC 1968c 0 libunwind::UnwindCursor<libunwind::LocalAddressSpace, libunwind::Registers_arm64>::isSignalFrame()
PUBLIC 19698 0 libunwind::UnwindCursor<libunwind::LocalAddressSpace, libunwind::Registers_arm64>::getFunctionName(char*, unsigned long, unsigned long*)
PUBLIC 196c4 0 libunwind::UnwindCursor<libunwind::LocalAddressSpace, libunwind::Registers_arm64>::setInfoBasedOnIPRegister(bool)
PUBLIC 19944 0 libunwind::UnwindCursor<libunwind::LocalAddressSpace, libunwind::Registers_arm64>::getRegisterName(int)
PUBLIC 19950 0 libunwind::UnwindCursor<libunwind::LocalAddressSpace, libunwind::Registers_arm64>::stepThroughSigReturn(libunwind::Registers_arm64&)
PUBLIC 19a70 0 libunwind::DwarfInstructions<libunwind::LocalAddressSpace, libunwind::Registers_arm64>::stepWithDwarf(libunwind::LocalAddressSpace&, unsigned long, unsigned long, libunwind::Registers_arm64&, bool&, bool)
PUBLIC 19ef8 0 libunwind::CFI_Parser<libunwind::LocalAddressSpace>::parseFDEInstructions(libunwind::LocalAddressSpace&, libunwind::CFI_Parser<libunwind::LocalAddressSpace>::FDE_Info const&, libunwind::CFI_Parser<libunwind::LocalAddressSpace>::CIE_Info const&, unsigned long, int, libunwind::CFI_Parser<libunwind::LocalAddressSpace>::PrologInfo*)
PUBLIC 1ab40 0 libunwind::DwarfInstructions<libunwind::LocalAddressSpace, libunwind::Registers_arm64>::getCFA(libunwind::LocalAddressSpace&, libunwind::CFI_Parser<libunwind::LocalAddressSpace>::PrologInfo const&, libunwind::Registers_arm64 const&)
PUBLIC 1ac74 0 libunwind::DwarfInstructions<libunwind::LocalAddressSpace, libunwind::Registers_arm64>::getSavedRegister(libunwind::LocalAddressSpace&, libunwind::Registers_arm64 const&, unsigned long, libunwind::CFI_Parser<libunwind::LocalAddressSpace>::RegisterLocation const&)
PUBLIC 1ae84 0 libunwind::LocalAddressSpace::getEncodedP(unsigned long&, unsigned long, unsigned char, unsigned long)
PUBLIC 1b210 0 libunwind::LocalAddressSpace::getULEB128(unsigned long&, unsigned long)
PUBLIC 1b3d8 0 libunwind::DwarfInstructions<libunwind::LocalAddressSpace, libunwind::Registers_arm64>::evaluateExpression(unsigned long, libunwind::LocalAddressSpace&, libunwind::Registers_arm64 const&, unsigned long)
PUBLIC 1bd94 0 libunwind::UnwindCursor<libunwind::LocalAddressSpace, libunwind::Registers_arm64>::getInfoFromDwarfSection(unsigned long, libunwind::UnwindInfoSections const&, unsigned int)
PUBLIC 1c068 0 libunwind::findUnwindSectionsByPhdr(dl_phdr_info*, unsigned long, void*)
PUBLIC 1c19c 0 libunwind::EHHeaderParser<libunwind::LocalAddressSpace>::decodeEHHdr(libunwind::LocalAddressSpace&, unsigned long, unsigned long, libunwind::EHHeaderParser<libunwind::LocalAddressSpace>::EHHeaderInfo&)
PUBLIC 1c2bc 0 libunwind::CFI_Parser<libunwind::LocalAddressSpace>::findFDE(libunwind::LocalAddressSpace&, unsigned long, unsigned long, unsigned long, unsigned long, libunwind::CFI_Parser<libunwind::LocalAddressSpace>::FDE_Info*, libunwind::CFI_Parser<libunwind::LocalAddressSpace>::CIE_Info*)
PUBLIC 1c484 0 libunwind::EHHeaderParser<libunwind::LocalAddressSpace>::findFDE(libunwind::LocalAddressSpace&, unsigned long, unsigned long, unsigned int, libunwind::CFI_Parser<libunwind::LocalAddressSpace>::FDE_Info*, libunwind::CFI_Parser<libunwind::LocalAddressSpace>::CIE_Info*)
PUBLIC 1c5ec 0 libunwind::EHHeaderParser<libunwind::LocalAddressSpace>::getTableEntrySize(unsigned char)
PUBLIC 1c6e8 0 libunwind::Registers_arm64::getRegisterName(int)
PUBLIC 1c718 0 __libunwind_Registers_arm64_jumpto
PUBLIC m 1c7a8 0 __unw_getcontext
PUBLIC 1c850 0 __aarch64_ldadd8_relax
PUBLIC 1c880 0 init_have_lse_atomics
PUBLIC 1c918 0 __init_cpu_features_constructor
PUBLIC 1ceb4 0 __init_cpu_features
PUBLIC 1cf40 0 __aarch64_ldadd8_acq_rel
PUBLIC 1cf70 0 std::__ndk1::vector<std::__ndk1::pair<std::__ndk1::basic_string<char, std::__ndk1::char_traits<char>, std::__ndk1::allocator<char> >, int>, std::__ndk1::allocator<std::__ndk1::pair<std::__ndk1::basic_string<char, std::__ndk1::char_traits<char>, std::__ndk1::allocator<char> >, int> > >::~vector[abi:ne180000]()
PUBLIC 1cfec 0 ShopRewardsListAlert::setup(ShopType)
PUBLIC 1e078 0 geode::Mod::getSettingValue<bool>(std::__ndk1::basic_string_view<char, std::__ndk1::char_traits<char> >) const
PUBLIC 1e1ac 0 ShopRewardsListAlert::onInfoButton(cocos2d::CCObject*)
PUBLIC 1f0a8 0 ShopRewardsListAlert::onPageButton(cocos2d::CCObject*)
PUBLIC 1f188 0 ShopRewardsListAlert::createIconPage(int, int)
PUBLIC 1f724 0 ShopRewardsListAlert::onSelectButton(cocos2d::CCObject*)
PUBLIC 1fbdc 0 ShopRewardsListAlert::onSelectAll(cocos2d::CCObject*)
PUBLIC 1ffd0 0 ShopRewardsListAlert::onDeselectAll(cocos2d::CCObject*)
PUBLIC 2016c 0 geode::Popup<ShopType>::setTitle(std::__ndk1::basic_string<char, std::__ndk1::char_traits<char>, std::__ndk1::allocator<char> > const&, char const*, float, float)
PUBLIC 202bc 0 geode::cocos::CCArrayExt<GJStoreItem*, GJStoreItem>::~CCArrayExt()
PUBLIC 202d8 0 ShopRewardsListAlert::createItem(cocos2d::CCMenu*, int, std::__ndk1::map<int, int, std::__ndk1::less<int>, std::__ndk1::allocator<std::__ndk1::pair<int const, int> > >, bool)
PUBLIC 20870 0 std::__ndk1::map<int, int, std::__ndk1::less<int>, std::__ndk1::allocator<std::__ndk1::pair<int const, int> > >::map[abi:ne180000](std::initializer_list<std::__ndk1::pair<int const, int> >, std::__ndk1::less<int> const&)
PUBLIC 209e0 0 ShopRewardsListAlert::onNavButton(cocos2d::CCObject*)
PUBLIC 214c8 0 geode::cocos::CCArrayExt<CCMenuItemSpriteExtra*, CCMenuItemSpriteExtra>::~CCArrayExt()
PUBLIC 214e4 0 ShopRewardsListAlert::onIcon(cocos2d::CCObject*)
PUBLIC 21adc 0 ShopRewardsListAlert::onPath(cocos2d::CCObject*)
PUBLIC 2232c 0 ShopRewardsListAlert::create(ShopType)
PUBLIC 224c4 0 cocos2d::CCCopying::copyWithZone(cocos2d::CCZone*)
PUBLIC 224cc 0 ShopRewardsListAlert::~ShopRewardsListAlert()
PUBLIC 22584 0 ShopRewardsListAlert::~ShopRewardsListAlert()
PUBLIC 22644 0 geode::Popup<ShopType>::registerWithTouchDispatcher()
PUBLIC 22670 0 geode::Popup<ShopType>::keyDown(cocos2d::enumKeyCodes)
PUBLIC 22698 0 cocos2d::CCLayerRGBA::setOpacityModifyRGB(bool)
PUBLIC 2269c 0 cocos2d::CCLayerRGBA::isOpacityModifyRGB()
PUBLIC 226a4 0 geode::Popup<ShopType>::onClose(cocos2d::CCObject*)
PUBLIC 227ec 0 {virtual override thunk({offset(-320)}, ShopRewardsListAlert::~ShopRewardsListAlert())}
PUBLIC 228a8 0 {virtual override thunk({offset(-320)}, ShopRewardsListAlert::~ShopRewardsListAlert())}
PUBLIC 2296c 0 {virtual override thunk({offset(-344)}, geode::Popup<ShopType>::keyDown(cocos2d::enumKeyCodes))}
PUBLIC 22998 0 cocos2d::CCKeyboardDelegate::keyUp(cocos2d::enumKeyCodes)
PUBLIC 2299c 0 cocos2d::CCMouseDelegate::rightKeyDown()
PUBLIC 229a0 0 cocos2d::CCMouseDelegate::rightKeyUp()
PUBLIC 229a4 0 cocos2d::CCMouseDelegate::scrollWheel(float, float)
PUBLIC 229a8 0 {virtual override thunk({offset(-408)}, cocos2d::CCLayerRGBA::setOpacityModifyRGB(bool))}
PUBLIC 229ac 0 {virtual override thunk({offset(-408)}, cocos2d::CCLayerRGBA::isOpacityModifyRGB())}
PUBLIC 229b4 0 std::__ndk1::__exception_guard_exceptions<std::__ndk1::vector<std::__ndk1::pair<std::__ndk1::basic_string<char, std::__ndk1::char_traits<char>, std::__ndk1::allocator<char> >, int>, std::__ndk1::allocator<std::__ndk1::pair<std::__ndk1::basic_string<char, std::__ndk1::char_traits<char>, std::__ndk1::allocator<char> >, int> > >::__destroy_vector>::~__exception_guard_exceptions[abi:ne180000]()
PUBLIC 22a40 0 __clang_call_terminate
PUBLIC 22a50 0 std::__ndk1::__throw_length_error[abi:ne180000](char const*)
PUBLIC 22aa0 0 std::length_error::length_error[abi:ne180000](char const*)
PUBLIC 22ad0 0 std::__throw_bad_array_new_length([abi:ne180000], void)
PUBLIC 22b04 0 std::__ndk1::__exception_guard_exceptions<std::__ndk1::_AllocatorDestroyRangeReverse<std::__ndk1::allocator<std::__ndk1::pair<std::__ndk1::basic_string<char, std::__ndk1::char_traits<char>, std::__ndk1::allocator<char> >, int> >, std::__ndk1::pair<std::__ndk1::basic_string<char, std::__ndk1::char_traits<char>, std::__ndk1::allocator<char> >, int>*> >::~__exception_guard_exceptions[abi:ne180000]()
PUBLIC 22b64 0 std::__ndk1::basic_string<char, std::__ndk1::char_traits<char>, std::__ndk1::allocator<char> >::__init_copy_ctor_external(char const*, unsigned long)
PUBLIC 22be4 0 std::__ndk1::basic_string<char, std::__ndk1::char_traits<char>, std::__ndk1::allocator<char> >::__throw_length_error[abi:ne180000]() const
PUBLIC 22bf8 0 std::__ndk1::vector<GJStoreItem*, std::__ndk1::allocator<GJStoreItem*> >::__throw_length_error[abi:ne180000]() const
PUBLIC 22c0c 0 std::__ndk1::__introsort<std::__ndk1::_ClassicAlgPolicy, ShopRewardsListAlert::createIconPage(int, int)::$_0&, GJStoreItem**, false>(GJStoreItem**, GJStoreItem**, ShopRewardsListAlert::createIconPage(int, int)::$_0&, std::__ndk1::iterator_traits<GJStoreItem**>::difference_type, bool)
PUBLIC 23f30 0 _ZNSt6__ndk124__sort5_maybe_branchlessB8ne180000INS_17_ClassicAlgPolicyERZN20ShopRewardsListAlert14createIconPageEiiE3$_0PP11GJStoreItemTnNS_9enable_ifIXntsr21__use_branchless_sortIT0_T1_EE5valueEiE4typeELi0EEEvSA_SA_SA_SA_SA_S9_
PUBLIC 241f0 0 std::__ndk1::__sort3[abi:ne180000]<std::__ndk1::_ClassicAlgPolicy, ShopRewardsListAlert::createIconPage(int, int)::$_0&, GJStoreItem**>(GJStoreItem**, GJStoreItem**, GJStoreItem**, ShopRewardsListAlert::createIconPage(int, int)::$_0&)
PUBLIC 2451c 0 std::__ndk1::__insertion_sort_incomplete[abi:ne180000]<std::__ndk1::_ClassicAlgPolicy, ShopRewardsListAlert::createIconPage(int, int)::$_0&, GJStoreItem**>(GJStoreItem**, GJStoreItem**, ShopRewardsListAlert::createIconPage(int, int)::$_0&)
PUBLIC 24860 0 std::__ndk1::__sort4[abi:ne180000]<std::__ndk1::_ClassicAlgPolicy, ShopRewardsListAlert::createIconPage(int, int)::$_0&, GJStoreItem**>(GJStoreItem**, GJStoreItem**, GJStoreItem**, GJStoreItem**, ShopRewardsListAlert::createIconPage(int, int)::$_0&)
PUBLIC 24a74 0 std::__ndk1::__tree<std::__ndk1::__value_type<int, int>, std::__ndk1::__map_value_compare<int, std::__ndk1::__value_type<int, int>, std::__ndk1::less<int>, true>, std::__ndk1::allocator<std::__ndk1::__value_type<int, int> > >::destroy(std::__ndk1::__tree_node<std::__ndk1::__value_type<int, int>, void*>*)
PUBLIC 24ab8 0 std::__ndk1::__throw_out_of_range[abi:ne180000](char const*)
PUBLIC 24b08 0 std::out_of_range::out_of_range[abi:ne180000](char const*)
PUBLIC 24b38 0 IconParameters::~IconParameters()
PUBLIC 24b5c 0 cocos2d::CCObject::update(float)
PUBLIC 24b60 0 std::__ndk1::vector<int, std::__ndk1::allocator<int> >::__throw_length_error[abi:ne180000]() const
PUBLIC 24b74 0 geode::Popup<ShopType>::~Popup()
PUBLIC 24be0 0 geode::Popup<ShopType>::~Popup()
PUBLIC 24be4 0 {virtual override thunk({offset(-320)}, geode::Popup<ShopType>::~Popup())}
PUBLIC 24c50 0 {virtual override thunk({offset(-320)}, geode::Popup<ShopType>::~Popup())}
PUBLIC 24c54 0 geode::cast::traverseTypeinfoFor(void*, geode::cast::ClassTypeinfoType const*, char const*)
PUBLIC 24d58 0 std::__ndk1::__tree_balance_after_insert[abi:ne180000]<std::__ndk1::__tree_node_base<void*>*>(std::__ndk1::__tree_node_base<void*>*, std::__ndk1::__tree_node_base<void*>*)
PUBLIC 24f08 0 geode::Popup<ShopType>::initBase(float, float, ShopType, char const*, cocos2d::CCRect, bool)
PUBLIC 2521c 0 geode::Popup<ShopType>::CloseEvent::~CloseEvent()
PUBLIC 2527c 0 geode::Popup<ShopType>::CloseEvent::~CloseEvent()
PUBLIC 252ec 0 std::__ndk1::__shared_ptr_emplace<geode::Popup<ShopType>::CloseEvent::Impl, std::__ndk1::allocator<geode::Popup<ShopType>::CloseEvent::Impl> >::~__shared_ptr_emplace()
PUBLIC 252fc 0 std::__ndk1::__shared_ptr_emplace<geode::Popup<ShopType>::CloseEvent::Impl, std::__ndk1::allocator<geode::Popup<ShopType>::CloseEvent::Impl> >::~__shared_ptr_emplace()
PUBLIC 2532c 0 std::__ndk1::__shared_ptr_emplace<geode::Popup<ShopType>::CloseEvent::Impl, std::__ndk1::allocator<geode::Popup<ShopType>::CloseEvent::Impl> >::__on_zero_shared()
PUBLIC 25330 0 std::__ndk1::__shared_ptr_emplace<geode::Popup<ShopType>::CloseEvent::Impl, std::__ndk1::allocator<geode::Popup<ShopType>::CloseEvent::Impl> >::__on_zero_shared_weak()
PUBLIC 25334 0 _GLOBAL__sub_I_ShopListAlert.cpp
PUBLIC 25fe4 0 __cxx_global_var_init
PUBLIC 26468 0 geode::modifier::ModifyBase<geode::modifier::ModifyDerive<ModLayer, GJGarageLayer> >::~ModifyBase()
PUBLIC 26480 0 __cxx_global_var_init.1
PUBLIC 26904 0 geode::modifier::ModifyBase<geode::modifier::ModifyDerive<ShopLayer, GJShopLayer> >::~ModifyBase()
PUBLIC 2691c 0 geode::modifier::ModifyDerive<ModLayer, GJGarageLayer>::apply()
PUBLIC 26c24 0 std::__ndk1::shared_ptr<geode::Hook>::~shared_ptr[abi:ne180000]()
PUBLIC 26c74 0 geode::impl::ResultData<geode::Hook*, std::__ndk1::basic_string<char, std::__ndk1::char_traits<char>, std::__ndk1::allocator<char> > >::~ResultData()
PUBLIC 26ce8 0 std::__ndk1::vector<std::__ndk1::basic_string<char, std::__ndk1::char_traits<char>, std::__ndk1::allocator<char> >, std::__ndk1::allocator<std::__ndk1::basic_string<char, std::__ndk1::char_traits<char>, std::__ndk1::allocator<char> > > >::~vector[abi:ne180000]()
PUBLIC 26d64 0 geode::modifier::ModifyBase<geode::modifier::ModifyDerive<ModLayer, GJGarageLayer> >::apply()
PUBLIC 26d68 0 _ZN5geode15UnwrapExceptionC2IRPNS_4HookEQsr4implE18IsStringStreamableIT_EEENS_4impl5OkTagEOS5_
PUBLIC 26ebc 0 std::__ndk1::__throw_bad_variant_access[abi:ne180000]()
PUBLIC 26ef0 0 std::__ndk1::basic_stringstream<char, std::__ndk1::char_traits<char>, std::__ndk1::allocator<char> >::basic_stringstream[abi:ne180000]()
PUBLIC m 2701c 0 std::__ndk1::basic_stringstream<char, std::__ndk1::char_traits<char>, std::__ndk1::allocator<char> >::~basic_stringstream()
PUBLIC 2709c 0 geode::UnwrapException::~UnwrapException()
PUBLIC 270c0 0 std::__ndk1::__put_character_sequence[abi:ne180000]<char, std::__ndk1::char_traits<char> >(std::__ndk1::basic_ostream<char, std::__ndk1::char_traits<char> >, std::__ndk1::basic_ostream const*, unsigned long)
PUBLIC 27264 0 std::__ndk1::__pad_and_output[abi:ne180000]<char, std::__ndk1::char_traits<char> >(std::__ndk1::char_traits<char>, std::__ndk1::ostreambuf_iterator const*, std::__ndk1::ostreambuf_iterator const, std::__ndk1::ostreambuf_iterator const, std::__ndk1::ios_base&, std::__ndk1::ostreambuf_iterator)
PUBLIC 27440 0 std::__ndk1::basic_stringbuf<char, std::__ndk1::char_traits<char>, std::__ndk1::allocator<char> >::str[abi:ne180000]() &&
PUBLIC 275b8 0 std::__ndk1::basic_stringbuf<char, std::__ndk1::char_traits<char>, std::__ndk1::allocator<char> >::__init_buf_ptrs[abi:ne180000]()
PUBLIC 27700 0 std::__ndk1::vector<std::__ndk1::basic_string<char, std::__ndk1::char_traits<char>, std::__ndk1::allocator<char> >, std::__ndk1::allocator<std::__ndk1::basic_string<char, std::__ndk1::char_traits<char>, std::__ndk1::allocator<char> > > >::__push_back_slow_path<std::__ndk1::basic_string<char, std::__ndk1::char_traits<char>, std::__ndk1::allocator<char> > const&>(std::__ndk1::basic_string<char, std::__ndk1::char_traits<char>, std::__ndk1::allocator<char> > const&)
PUBLIC 27924 0 std::__ndk1::__split_buffer<std::__ndk1::basic_string<char, std::__ndk1::char_traits<char>, std::__ndk1::allocator<char> >, std::__ndk1::allocator<std::__ndk1::basic_string<char, std::__ndk1::char_traits<char>, std::__ndk1::allocator<char> > >&>::~__split_buffer()
PUBLIC 2798c 0 std::__ndk1::vector<std::__ndk1::basic_string<char, std::__ndk1::char_traits<char>, std::__ndk1::allocator<char> >, std::__ndk1::allocator<std::__ndk1::basic_string<char, std::__ndk1::char_traits<char>, std::__ndk1::allocator<char> > > >::__throw_length_error[abi:ne180000]() const
PUBLIC 279a0 0 std::__ndk1::__variant_detail::__visitation::__base::__dispatcher<(unsigned long)0>::__dispatch[abi:ne180000]<std::__ndk1::__variant_detail::__dtor<std::__ndk1::__variant_detail::__traits<geode::Hook*, std::__ndk1::basic_string<char, std::__ndk1::char_traits<char>, std::__ndk1::allocator<char> > >, (std::__ndk1::__variant_detail::_Trait)1>::__destroy[abi:ne180000]()::{lambda(auto:1&)#1}, std::__ndk1::__variant_detail::__base<(std::__ndk1::__variant_detail::__traits<geode::Hook*, std::__ndk1::basic_string<char, std::__ndk1::char_traits<char>, std::__ndk1::allocator<char> > >)1, geode::Hook, std::__ndk1::allocator<char> >&>(std::__ndk1::__variant_detail::__dtor<std::__ndk1::__variant_detail::__traits<geode::Hook*, std::__ndk1::basic_string<char, std::__ndk1::char_traits<char>, std::__ndk1::allocator<char> > >, (std::__ndk1::__variant_detail::_Trait)1>, std::__ndk1::__variant_detail::__base<(std::__ndk1::__variant_detail::__traits<geode::Hook*, std::__ndk1::basic_string<char, std::__ndk1::char_traits<char>, std::__ndk1::allocator<char> > >)1, geode::Hook, std::__ndk1::allocator<char> >&)
PUBLIC 279a4 0 std::__ndk1::__variant_detail::__visitation::__base::__dispatcher<(unsigned long)1>::__dispatch[abi:ne180000]<std::__ndk1::__variant_detail::__dtor<std::__ndk1::__variant_detail::__traits<geode::Hook*, std::__ndk1::basic_string<char, std::__ndk1::char_traits<char>, std::__ndk1::allocator<char> > >, (std::__ndk1::__variant_detail::_Trait)1>::__destroy[abi:ne180000]()::{lambda(auto:1&)#1}, std::__ndk1::__variant_detail::__base<(std::__ndk1::__variant_detail::__traits<geode::Hook*, std::__ndk1::basic_string<char, std::__ndk1::char_traits<char>, std::__ndk1::allocator<char> > >)1, geode::Hook, std::__ndk1::allocator<char> >&>(std::__ndk1::__variant_detail::__dtor<std::__ndk1::__variant_detail::__traits<geode::Hook*, std::__ndk1::basic_string<char, std::__ndk1::char_traits<char>, std::__ndk1::allocator<char> > >, (std::__ndk1::__variant_detail::_Trait)1>, std::__ndk1::__variant_detail::__base<(std::__ndk1::__variant_detail::__traits<geode::Hook*, std::__ndk1::basic_string<char, std::__ndk1::char_traits<char>, std::__ndk1::allocator<char> > >)1, geode::Hook, std::__ndk1::allocator<char> >&)
PUBLIC 279b8 0 std::__ndk1::__tree<std::__ndk1::__value_type<std::__ndk1::basic_string<char, std::__ndk1::char_traits<char>, std::__ndk1::allocator<char> >, std::__ndk1::shared_ptr<geode::Hook> >, std::__ndk1::__map_value_compare<std::__ndk1::basic_string<char, std::__ndk1::char_traits<char>, std::__ndk1::allocator<char> >, std::__ndk1::__value_type<std::__ndk1::basic_string<char, std::__ndk1::char_traits<char>, std::__ndk1::allocator<char> >, std::__ndk1::shared_ptr<geode::Hook> >, std::__ndk1::less<std::__ndk1::basic_string<char, std::__ndk1::char_traits<char>, std::__ndk1::allocator<char> > >, true>, std::__ndk1::allocator<std::__ndk1::__value_type<std::__ndk1::basic_string<char, std::__ndk1::char_traits<char>, std::__ndk1::allocator<char> >, std::__ndk1::shared_ptr<geode::Hook> > > >::find<std::__ndk1::basic_string<char, std::__ndk1::char_traits<char>, std::__ndk1::allocator<char> > >(std::__ndk1::basic_string<char, std::__ndk1::char_traits<char>, std::__ndk1::allocator<char> > const&)
PUBLIC 27ad8 0 std::__ndk1::__tree<std::__ndk1::__value_type<std::__ndk1::basic_string<char, std::__ndk1::char_traits<char>, std::__ndk1::allocator<char> >, std::__ndk1::shared_ptr<geode::Hook> >, std::__ndk1::__map_value_compare<std::__ndk1::basic_string<char, std::__ndk1::char_traits<char>, std::__ndk1::allocator<char> >, std::__ndk1::__value_type<std::__ndk1::basic_string<char, std::__ndk1::char_traits<char>, std::__ndk1::allocator<char> >, std::__ndk1::shared_ptr<geode::Hook> >, std::__ndk1::less<std::__ndk1::basic_string<char, std::__ndk1::char_traits<char>, std::__ndk1::allocator<char> > >, true>, std::__ndk1::allocator<std::__ndk1::__value_type<std::__ndk1::basic_string<char, std::__ndk1::char_traits<char>, std::__ndk1::allocator<char> >, std::__ndk1::shared_ptr<geode::Hook> > > >::erase(std::__ndk1::__tree_const_iterator<std::__ndk1::__value_type<std::__ndk1::basic_string<char, std::__ndk1::char_traits<char>, std::__ndk1::allocator<char> >, std::__ndk1::shared_ptr<geode::Hook> >, std::__ndk1::__tree_node<std::__ndk1::__value_type<std::__ndk1::basic_string<char, std::__ndk1::char_traits<char>, std::__ndk1::allocator<char> >, std::__ndk1::shared_ptr<geode::Hook> >, void*>*, long>)
PUBLIC 27f7c 0 std::__ndk1::__tree<std::__ndk1::__value_type<std::__ndk1::basic_string<char, std::__ndk1::char_traits<char>, std::__ndk1::allocator<char> >, std::__ndk1::shared_ptr<geode::Hook> >, std::__ndk1::__map_value_compare<std::__ndk1::basic_string<char, std::__ndk1::char_traits<char>, std::__ndk1::allocator<char> >, std::__ndk1::__value_type<std::__ndk1::basic_string<char, std::__ndk1::char_traits<char>, std::__ndk1::allocator<char> >, std::__ndk1::shared_ptr<geode::Hook> >, std::__ndk1::less<std::__ndk1::basic_string<char, std::__ndk1::char_traits<char>, std::__ndk1::allocator<char> > >, true>, std::__ndk1::allocator<std::__ndk1::__value_type<std::__ndk1::basic_string<char, std::__ndk1::char_traits<char>, std::__ndk1::allocator<char> >, std::__ndk1::shared_ptr<geode::Hook> > > >::destroy(std::__ndk1::__tree_node<std::__ndk1::__value_type<std::__ndk1::basic_string<char, std::__ndk1::char_traits<char>, std::__ndk1::allocator<char> >, std::__ndk1::shared_ptr<geode::Hook> >, void*>*)
PUBLIC 28000 0 geode::modifier::AsStaticFunction_init<ModLayer, bool (ModLayer::*)()>::Impl<bool (ModLayer::*)()>::function(ModLayer*)
PUBLIC 28214 0 geode::addresser::Addresser::addressOfVirtual<bool, GJGarageLayer, >(bool (GJGarageLayer::*)())
PUBLIC 282bc 0 GJGarageLayer::GJGarageLayer(geode::ZeroConstructorType)
PUBLIC 28370 0 std::__ndk1::shared_ptr<tulip::hook::CallingConvention>::~shared_ptr[abi:ne180000]()
PUBLIC 283c0 0 tulip::hook::HandlerMetadata::~HandlerMetadata()
PUBLIC 28424 0 ModLayer::onShopListButton(cocos2d::CCObject*)
PUBLIC 28444 0 std::__ndk1::__hash_table<std::__ndk1::__hash_value_type<std::__ndk1::basic_string<char, std::__ndk1::char_traits<char>, std::__ndk1::allocator<char> >, void (*)(cocos2d::CCNode*)>, std::__ndk1::__unordered_map_hasher<std::__ndk1::basic_string<char, std::__ndk1::char_traits<char>, std::__ndk1::allocator<char> >, std::__ndk1::__hash_value_type<std::__ndk1::basic_string<char, std::__ndk1::char_traits<char>, std::__ndk1::allocator<char> >, void (*)(cocos2d::CCNode*)>, std::__ndk1::hash<std::__ndk1::basic_string<char, std::__ndk1::char_traits<char>, std::__ndk1::allocator<char> > >, std::__ndk1::equal_to<std::__ndk1::basic_string<char, std::__ndk1::char_traits<char>, std::__ndk1::allocator<char> > >, true>, std::__ndk1::__unordered_map_equal<std::__ndk1::basic_string<char, std::__ndk1::char_traits<char>, std::__ndk1::allocator<char> >, std::__ndk1::__hash_value_type<std::__ndk1::basic_string<char, std::__ndk1::char_traits<char>, std::__ndk1::allocator<char> >, void (*)(cocos2d::CCNode*)>, std::__ndk1::equal_to<std::__ndk1::basic_string<char, std::__ndk1::char_traits<char>, std::__ndk1::allocator<char> > >, std::__ndk1::hash<std::__ndk1::basic_string<char, std::__ndk1::char_traits<char>, std::__ndk1::allocator<char> > >, true>, std::__ndk1::allocator<std::__ndk1::__hash_value_type<std::__ndk1::basic_string<char, std::__ndk1::char_traits<char>, std::__ndk1::allocator<char> >, void (*)(cocos2d::CCNode*)> > >::find<std::__ndk1::basic_string<char, std::__ndk1::char_traits<char>, std::__ndk1::allocator<char> > >(std::__ndk1::basic_string<char, std::__ndk1::char_traits<char>, std::__ndk1::allocator<char> > const&) const
PUBLIC 28a80 0 std::__ndk1::__tree<std::__ndk1::__value_type<std::__ndk1::basic_string<char, std::__ndk1::char_traits<char>, std::__ndk1::allocator<char> >, std::__ndk1::shared_ptr<geode::Hook> >, std::__ndk1::__map_value_compare<std::__ndk1::basic_string<char, std::__ndk1::char_traits<char>, std::__ndk1::allocator<char> >, std::__ndk1::__value_type<std::__ndk1::basic_string<char, std::__ndk1::char_traits<char>, std::__ndk1::allocator<char> >, std::__ndk1::shared_ptr<geode::Hook> >, std::__ndk1::less<std::__ndk1::basic_string<char, std::__ndk1::char_traits<char>, std::__ndk1::allocator<char> > >, true>, std::__ndk1::allocator<std::__ndk1::__value_type<std::__ndk1::basic_string<char, std::__ndk1::char_traits<char>, std::__ndk1::allocator<char> >, std::__ndk1::shared_ptr<geode::Hook> > > >::__emplace_unique_key_args<std::__ndk1::basic_string<char, std::__ndk1::char_traits<char>, std::__ndk1::allocator<char> >, std::__ndk1::piecewise_construct_t const&, std::__ndk1::tuple<std::__ndk1::basic_string<char, std::__ndk1::char_traits<char>, std::__ndk1::allocator<char> >&&>, std::__ndk1::tuple<> >(std::__ndk1::basic_string<char, std::__ndk1::char_traits<char>, std::__ndk1::allocator<char> > const&, std::__ndk1::piecewise_construct_t const&, std::__ndk1::tuple<std::__ndk1::basic_string<char, std::__ndk1::char_traits<char>, std::__ndk1::allocator<char> >&&>, std::__ndk1::tuple<>)
PUBLIC 28be8 0 geode::modifier::ModifyDerive<ShopLayer, GJShopLayer>::apply()
PUBLIC 28f30 0 geode::modifier::ModifyBase<geode::modifier::ModifyDerive<ShopLayer, GJShopLayer> >::apply()
PUBLIC 28f34 0 geode::modifier::AsStaticFunction_init<ShopLayer, bool (ShopLayer::*)(ShopType)>::Impl<bool (ShopLayer::*)(ShopType)>::function(ShopLayer*, ShopType)
PUBLIC 2917c 0 ShopLayer::onInfoButton(cocos2d::CCObject*)
PUBLIC m 2919c 0 geodeImplicitEntry
PUBLIC 291d8 0 std::__ndk1::unordered_map<void*, bool, std::__ndk1::hash<void*>, std::__ndk1::equal_to<void*>, std::__ndk1::allocator<std::__ndk1::pair<void* const, bool> > >::~unordered_map[abi:ne180000]()
PUBLIC 29224 0 wrapFunction(unsigned long, tulip::hook::WrapperMetadata const&)
PUBLIC 29358 0 geode::impl::ResultData<void*, std::__ndk1::basic_string<char, std::__ndk1::char_traits<char>, std::__ndk1::allocator<char> > >::unwrapErr() &
PUBLIC 293d0 0 geode::impl::ResultData<void*, std::__ndk1::basic_string<char, std::__ndk1::char_traits<char>, std::__ndk1::allocator<char> > >::~ResultData()
PUBLIC 29444 0 tulip::hook::WrapperMetadata::~WrapperMetadata()
PUBLIC 294a8 0 cocos2d::CCObject::CCObject()
PUBLIC 296cc 0 cocos2d::CCObject::~CCObject()
PUBLIC 296f0 0 cocos2d::CCNode::~CCNode()
PUBLIC 29714 0 {virtual override thunk({offset(-320)}, cocos2d::CCLayer::~CCLayer())}
PUBLIC 2971c 0 cocos2d::CCLayer::~CCLayer()
PUBLIC 29740 0 {virtual override thunk({offset(-320)}, cocos2d::CCLayer::~CCLayer())}
PUBLIC 29768 0 cocos2d::CCLayerRGBA::~CCLayerRGBA()
PUBLIC 29a68 0 {virtual override thunk({offset(-320)}, cocos2d::CCLayerRGBA::~CCLayerRGBA())}
PUBLIC 29a70 0 cocos2d::CCLayerRGBA::~CCLayerRGBA()
PUBLIC 29a94 0 {virtual override thunk({offset(-320)}, cocos2d::CCLayerRGBA::~CCLayerRGBA())}
PUBLIC 29abc 0 cocos2d::CCLayerColor::CCLayerColor()
PUBLIC 29d20 0 {virtual override thunk({offset(-320)}, cocos2d::CCLayerColor::~CCLayerColor())}
PUBLIC 29d28 0 cocos2d::CCLayerColor::~CCLayerColor()
PUBLIC 29d4c 0 {virtual override thunk({offset(-320)}, cocos2d::CCLayerColor::~CCLayerColor())}
PUBLIC 29d74 0 {virtual override thunk({offset(-320)}, FLAlertLayer::~FLAlertLayer())}
PUBLIC 29d7c 0 FLAlertLayer::~FLAlertLayer()
PUBLIC 29da0 0 {virtual override thunk({offset(-320)}, FLAlertLayer::~FLAlertLayer())}
PUBLIC 29dc8 0 FLAlertLayer::create(FLAlertLayerProtocol*, char const*, gd::string, char const*, char const*, float)
PUBLIC 29f80 0 tulip::hook::AbstractFunction::from<FLAlertLayer*, FLAlertLayerProtocol*, char const*, gd::string, char const*, char const*, float>(FLAlertLayer* (*)(FLAlertLayerProtocol*, char const*, gd::string, char const*, char const*, float))
PUBLIC 2a0ec 0 CCMenuItemToggler::createWithStandardSprites(cocos2d::CCObject*, void (cocos2d::CCObject::*)(cocos2d::CCObject*), float)
PUBLIC 2a2e4 0 TextArea::setString(gd::string)
PUBLIC 2a45c 0 tulip::hook::AbstractFunction::from<void, TextArea*, gd::string>(void (*)(TextArea*, gd::string))
PUBLIC 2a500 0 cocos2d::CCLayerColor::~CCLayerColor()
PUBLIC 2a7e4 0 FLAlertLayer::~FLAlertLayer()
PUBLIC 2aac8 0 cocos2d::CCNode::~CCNode()
PUBLIC 2ad68 0 cocos2d::CCLayer::~CCLayer()
PUBLIC 2b058 0 cocos2d::CCObject::~CCObject()
PUBLIC 2b54c 0 _ZN5geode15UnwrapExceptionC2IRPvQsr4implE18IsStringStreamableIT_EEENS_4impl5OkTagEOS4_
PUBLIC 2b6a0 0 _ZN5geode15UnwrapExceptionC2IRNSt6__ndk112basic_stringIcNS2_11char_traitsIcEENS2_9allocatorIcEEEEQsr4implE18IsStringStreamableIT_EEENS_4impl6ErrTagEOSA_
PUBLIC 2b808 0 std::__ndk1::__variant_detail::__visitation::__base::__dispatcher<(unsigned long)0>::__dispatch[abi:ne180000]<std::__ndk1::__variant_detail::__dtor<std::__ndk1::__variant_detail::__traits<void*, std::__ndk1::basic_string<char, std::__ndk1::char_traits<char>, std::__ndk1::allocator<char> > >, (std::__ndk1::__variant_detail::_Trait)1>::__destroy[abi:ne180000]()::{lambda(auto:1&)#1}, std::__ndk1::__variant_detail::__base<(std::__ndk1::__variant_detail::__traits<void*, std::__ndk1::basic_string<char, std::__ndk1::char_traits<char>, std::__ndk1::allocator<char> > >)1, std::__ndk1::__variant_detail::__traits, std::__ndk1::allocator<char> >&>(std::__ndk1::__variant_detail::__dtor<std::__ndk1::__variant_detail::__traits<void*, std::__ndk1::basic_string<char, std::__ndk1::char_traits<char>, std::__ndk1::allocator<char> > >, (std::__ndk1::__variant_detail::_Trait)1>, std::__ndk1::__variant_detail::__base<(std::__ndk1::__variant_detail::__traits<void*, std::__ndk1::basic_string<char, std::__ndk1::char_traits<char>, std::__ndk1::allocator<char> > >)1, std::__ndk1::__variant_detail::__traits, std::__ndk1::allocator<char> >&)
PUBLIC 2b80c 0 std::__ndk1::__variant_detail::__visitation::__base::__dispatcher<(unsigned long)1>::__dispatch[abi:ne180000]<std::__ndk1::__variant_detail::__dtor<std::__ndk1::__variant_detail::__traits<void*, std::__ndk1::basic_string<char, std::__ndk1::char_traits<char>, std::__ndk1::allocator<char> > >, (std::__ndk1::__variant_detail::_Trait)1>::__destroy[abi:ne180000]()::{lambda(auto:1&)#1}, std::__ndk1::__variant_detail::__base<(std::__ndk1::__variant_detail::__traits<void*, std::__ndk1::basic_string<char, std::__ndk1::char_traits<char>, std::__ndk1::allocator<char> > >)1, std::__ndk1::__variant_detail::__traits, std::__ndk1::allocator<char> >&>(std::__ndk1::__variant_detail::__dtor<std::__ndk1::__variant_detail::__traits<void*, std::__ndk1::basic_string<char, std::__ndk1::char_traits<char>, std::__ndk1::allocator<char> > >, (std::__ndk1::__variant_detail::_Trait)1>, std::__ndk1::__variant_detail::__base<(std::__ndk1::__variant_detail::__traits<void*, std::__ndk1::basic_string<char, std::__ndk1::char_traits<char>, std::__ndk1::allocator<char> > >)1, std::__ndk1::__variant_detail::__traits, std::__ndk1::allocator<char> >&)
PUBLIC 2b820 0 std::__ndk1::__hash_table<std::__ndk1::__hash_value_type<void*, bool>, std::__ndk1::__unordered_map_hasher<void*, std::__ndk1::__hash_value_type<void*, bool>, std::__ndk1::hash<void*>, std::__ndk1::equal_to<void*>, true>, std::__ndk1::__unordered_map_equal<void*, std::__ndk1::__hash_value_type<void*, bool>, std::__ndk1::equal_to<void*>, std::__ndk1::hash<void*>, true>, std::__ndk1::allocator<std::__ndk1::__hash_value_type<void*, bool> > >::__emplace_unique_key_args<void*, std::__ndk1::piecewise_construct_t const&, std::__ndk1::tuple<void* const&>, std::__ndk1::tuple<> >(void* const&, std::__ndk1::piecewise_construct_t const&, std::__ndk1::tuple<void* const&>, std::__ndk1::tuple<>)
PUBLIC 2bd2c 0 __udivti3
PUBLIC 2bd38 0 __udivmodti4
PUBLIC m 2bf84 0 __eqtf2
PUBLIC 2c024 0 __unordtf2
PUBLIC 2c05c 0 fmt::v11::detail::write_loc(fmt::v11::basic_appender<char>, fmt::v11::loc_value, fmt::v11::format_specs const&, fmt::v11::detail::locale_ref)
PUBLIC 2c2f0 0 fmt::v11::format_facet<std::__ndk1::locale>::~format_facet()
PUBLIC 2c36c 0 fmt::v11::report_error(char const*)
PUBLIC 2c3bc 0 fmt::v11::format_error::runtime_error(char const*)
PUBLIC 2c3e8 0 fmt::v11::format_facet<std::__ndk1::locale>::do_put(fmt::v11::basic_appender<char>, fmt::v11::loc_value, fmt::v11::format_specs const&) const
PUBLIC 2cba8 0 fmt::v11::detail::loc_writer<char>::~loc_writer()
PUBLIC 2cc0c 0 fmt::v11::detail::vformat_to<char>(fmt::v11::detail::buffer<char>&, fmt::v11::basic_string_view<char>, fmt::v11::detail::vformat_args<char>::type, fmt::v11::detail::locale_ref)
PUBLIC 2d17c 0 fmt::v11::detail::is_printable(unsigned int)
PUBLIC 2d3a4 0 fmt::v11::detail::dragonbox::to_decimal<float>(float)
PUBLIC 2d680 0 fmt::v11::detail::dragonbox::to_decimal<double>(double)
PUBLIC 2dbbc 0 fmt::v11::basic_memory_buffer<char, (unsigned long)500, std::__ndk1::allocator<char> >::grow(fmt::v11::detail::buffer<char>&, unsigned long)
PUBLIC 2dc34 0 fmt::v11::format_facet<std::__ndk1::locale>::~format_facet()
PUBLIC 2dcc0 0 fmt::v11::format_error::~format_error()
PUBLIC 2dce4 0 fmt::v11::detail::copy_noinline<char, char const*, fmt::v11::basic_appender<char> >(char const*, char const*, fmt::v11::basic_appender<char>)
PUBLIC 2de34 0 fmt::v11::detail::default_arg_formatter<char>::operator()<bool>(bool)
PUBLIC 2de9c 0 fmt::v11::detail::default_arg_formatter<char>::operator()<char>(char)
PUBLIC 2df2c 0 fmt::v11::detail::default_arg_formatter<char>::operator()<float>(float)
PUBLIC 2e018 0 fmt::v11::detail::default_arg_formatter<char>::operator()<double>(double)
PUBLIC 2e104 0 fmt::v11::detail::default_arg_formatter<char>::operator()<char const*>(char const*)
PUBLIC 2e14c 0 fmt::v11::detail::default_arg_formatter<char>::operator()<void const*>(void const*)
PUBLIC 2e1e4 0 _ZN3fmt3v116detail5writeIcNS0_14basic_appenderIcEEiTnNSt6__ndk19enable_ifIXaaaasr11is_integralIT1_EE5valuentsr3std7is_sameIS7_bEE5valuentsr3std7is_sameIS7_T_EE5valueEiE4typeELi0EEET0_SB_S7_
PUBLIC 2e444 0 fmt::v11::detail::copy_noinline<char, char*, fmt::v11::basic_appender<char> >(char*, char*, fmt::v11::basic_appender<char>)
PUBLIC 2e594 0 _ZN3fmt3v116detail5writeIcNS0_14basic_appenderIcEEjTnNSt6__ndk19enable_ifIXaaaasr11is_integralIT1_EE5valuentsr3std7is_sameIS7_bEE5valuentsr3std7is_sameIS7_T_EE5valueEiE4typeELi0EEET0_SB_S7_
PUBLIC 2e774 0 _ZN3fmt3v116detail5writeIcNS0_14basic_appenderIcEExTnNSt6__ndk19enable_ifIXaaaasr11is_integralIT1_EE5valuentsr3std7is_sameIS7_bEE5valuentsr3std7is_sameIS7_T_EE5valueEiE4typeELi0EEET0_SB_S7_
PUBLIC 2e9f8 0 _ZN3fmt3v116detail5writeIcNS0_14basic_appenderIcEEyTnNSt6__ndk19enable_ifIXaaaasr11is_integralIT1_EE5valuentsr3std7is_sameIS7_bEE5valuentsr3std7is_sameIS7_T_EE5valueEiE4typeELi0EEET0_SB_S7_
PUBLIC 2ec00 0 _ZN3fmt3v116detail5writeIcNS0_14basic_appenderIcEEnTnNSt6__ndk19enable_ifIXaaaasr11is_integralIT1_EE5valuentsr3std7is_sameIS7_bEE5valuentsr3std7is_sameIS7_T_EE5valueEiE4typeELi0EEET0_SB_S7_
PUBLIC 2ef60 0 _ZN3fmt3v116detail5writeIcNS0_14basic_appenderIcEEoTnNSt6__ndk19enable_ifIXaaaasr11is_integralIT1_EE5valuentsr3std7is_sameIS7_bEE5valuentsr3std7is_sameIS7_T_EE5valueEiE4typeELi0EEET0_SB_S7_
PUBLIC 2f274 0 _ZN3fmt3v116detail5writeIcNS0_14basic_appenderIcEEbTnNSt6__ndk19enable_ifIXsr3std7is_sameIT1_bEE5valueEiE4typeELi0EEET0_SA_S7_RKNS0_12format_specsENS1_10locale_refE
PUBLIC 2f504 0 fmt::v11::detail::write_int_noinline<char, fmt::v11::basic_appender<char>, unsigned int>(fmt::v11::basic_appender<char>, fmt::v11::detail::write_int_arg<unsigned int>, fmt::v11::format_specs const&, fmt::v11::detail::locale_ref)
PUBLIC 302e0 0 fmt::v11::detail::fill<char, fmt::v11::basic_appender<char> >(fmt::v11::basic_appender<char>, unsigned long, fmt::v11::detail::fill_t const&)
PUBLIC 304b0 0 fmt::v11::detail::write_padded<char, (fmt::v11::align::type)1, fmt::v11::basic_appender<char>, fmt::v11::detail::write_char<char, fmt::v11::basic_appender<char> >(fmt::v11::basic_appender<char>, char, fmt::v11::format_specs const&)::{lambda(fmt::v11::basic_appender<char>&)#1}>(fmt::v11::basic_appender<char>, fmt::v11::format_specs const&, unsigned long, unsigned long, fmt::v11::detail::write_char<char, fmt::v11::basic_appender<char> >(fmt::v11::basic_appender<char>, char, fmt::v11::format_specs const&)::{lambda(fmt::v11::basic_appender<char>&)#1})
PUBLIC 306ec 0 fmt::v11::detail::write_escaped_cp<fmt::v11::basic_appender<char>, char>(fmt::v11::basic_appender<char>, fmt::v11::detail::find_escape_result<char> const&)
PUBLIC 309f8 0 fmt::v11::detail::write_codepoint<(unsigned long)2, char, fmt::v11::basic_appender<char> >(fmt::v11::basic_appender<char>, char, unsigned int)
PUBLIC 30b70 0 fmt::v11::detail::write_codepoint<(unsigned long)8, char, fmt::v11::basic_appender<char> >(fmt::v11::basic_appender<char>, char, unsigned int)
PUBLIC 30ce8 0 fmt::v11::detail::write_padded<char, (fmt::v11::align::type)1, fmt::v11::basic_appender<char>, fmt::v11::detail::write_nonfinite<char, fmt::v11::basic_appender<char> >(fmt::v11::basic_appender<char>, bool, fmt::v11::format_specs, fmt::v11::sign::type)::{lambda(fmt::v11::basic_appender<char>&)#1}>(fmt::v11::basic_appender<char>, fmt::v11::format_specs const&, unsigned long, unsigned long, fmt::v11::detail::write_nonfinite<char, fmt::v11::basic_appender<char> >(fmt::v11::basic_appender<char>, bool, fmt::v11::format_specs, fmt::v11::sign::type)::{lambda(fmt::v11::basic_appender<char>&)#1})
PUBLIC 30f28 0 fmt::v11::detail::do_write_float<char, fmt::v11::basic_appender<char>, fmt::v11::detail::dragonbox::decimal_fp<float>, fmt::v11::detail::digit_grouping<char> >(fmt::v11::basic_appender<char>, fmt::v11::detail::dragonbox::decimal_fp<float> const&, fmt::v11::format_specs const&, fmt::v11::detail::float_specs, fmt::v11::detail::locale_ref)
PUBLIC 31b9c 0 fmt::v11::detail::do_write_float<char, fmt::v11::basic_appender<char>, fmt::v11::detail::dragonbox::decimal_fp<float>, fmt::v11::detail::digit_grouping<char> >(fmt::v11::basic_appender<char>, fmt::v11::detail::dragonbox::decimal_fp<float> const&, fmt::v11::format_specs const&, fmt::v11::detail::float_specs, fmt::v11::detail::locale_ref)::{lambda(fmt::v11::basic_appender<char>(fmt::v11::basic_appender<char>))#1}::operator() const
PUBLIC 31cf0 0 fmt::v11::detail::digit_grouping<char>::digit_grouping(fmt::v11::detail::locale_ref, bool)
PUBLIC 31f5c 0 fmt::v11::detail::digit_grouping<char>::~digit_grouping()
PUBLIC 31fa0 0 fmt::v11::detail::write_exponent<char, fmt::v11::basic_appender<char> >(int, fmt::v11::basic_appender<char>)
PUBLIC 32170 0 _ZN3fmt3v116detail17write_significandIcjTnNSt6__ndk19enable_ifIXsr3std11is_integralIT0_EE5valueEiE4typeELi0EEEPT_S9_S5_iiS8_
PUBLIC 322ec 0 std::__ndk1::basic_string<char, std::__ndk1::char_traits<char>, std::__ndk1::allocator<char> >::__assign_no_alias<true>(char const*, unsigned long)
PUBLIC 32398 0 std::__ndk1::basic_string<char, std::__ndk1::char_traits<char>, std::__ndk1::allocator<char> >::__assign_no_alias<false>(char const*, unsigned long)
PUBLIC 324a8 0 fmt::v11::detail::digit_grouping<char>::apply<fmt::v11::basic_appender<char>, char>(fmt::v11::basic_appender<char>, fmt::v11::basic_string_view<char>) const
PUBLIC 32860 0 fmt::v11::basic_memory_buffer<int, (unsigned long)500, std::__ndk1::allocator<int> >::grow(fmt::v11::detail::buffer<int>&, unsigned long)
PUBLIC 32900 0 fmt::v11::detail::do_write_float<char, fmt::v11::basic_appender<char>, fmt::v11::detail::dragonbox::decimal_fp<double>, fmt::v11::detail::digit_grouping<char> >(fmt::v11::basic_appender<char>, fmt::v11::detail::dragonbox::decimal_fp<double> const&, fmt::v11::format_specs const&, fmt::v11::detail::float_specs, fmt::v11::detail::locale_ref)
PUBLIC 335b4 0 fmt::v11::detail::do_write_float<char, fmt::v11::basic_appender<char>, fmt::v11::detail::dragonbox::decimal_fp<double>, fmt::v11::detail::digit_grouping<char> >(fmt::v11::basic_appender<char>, fmt::v11::detail::dragonbox::decimal_fp<double> const&, fmt::v11::format_specs const&, fmt::v11::detail::float_specs, fmt::v11::detail::locale_ref)::{lambda(fmt::v11::basic_appender<char>(fmt::v11::basic_appender<char>))#1}::operator() const
PUBLIC 3370c 0 _ZN3fmt3v116detail17write_significandIcmTnNSt6__ndk19enable_ifIXsr3std11is_integralIT0_EE5valueEiE4typeELi0EEEPT_S9_S5_iiS8_
PUBLIC 3389c 0 fmt::v11::detail::write_float<char, fmt::v11::basic_appender<char>, long double>(fmt::v11::basic_appender<char>, long double, fmt::v11::format_specs, fmt::v11::detail::locale_ref)
PUBLIC 34398 0 fmt::v11::detail::write_padded<char, (fmt::v11::align::type)2, fmt::v11::basic_appender<char>, fmt::v11::detail::write_bytes<char, (fmt::v11::align::type)2, fmt::v11::basic_appender<char> >(fmt::v11::basic_appender<char>, fmt::v11::basic_string_view<char>, fmt::v11::format_specs const&)::{lambda(fmt::v11::basic_appender<char>&)#1}>(fmt::v11::basic_appender<char>, fmt::v11::format_specs const&, unsigned long, unsigned long, fmt::v11::detail::write_bytes<char, (fmt::v11::align::type)2, fmt::v11::basic_appender<char> >(fmt::v11::basic_appender<char>, fmt::v11::basic_string_view<char>, fmt::v11::format_specs const&)::{lambda(fmt::v11::basic_appender<char>&)#1})
PUBLIC 34574 0 fmt::v11::detail::format_dragon(fmt::v11::detail::basic_fp<unsigned __int128>, unsigned int, int, fmt::v11::detail::buffer<char>&, int&)
PUBLIC 359a4 0 fmt::v11::detail::bigint::operator<<=(int)
PUBLIC 35ac8 0 fmt::v11::detail::bigint::assign_pow10(int)
PUBLIC 36224 0 fmt::v11::detail::bigint::divmod_assign(fmt::v11::detail::bigint const&)
PUBLIC 36544 0 fmt::v11::basic_memory_buffer<unsigned int, (unsigned long)32, std::__ndk1::allocator<unsigned int> >::grow(fmt::v11::detail::buffer<unsigned int>&, unsigned long)
PUBLIC 365e4 0 fmt::v11::detail::do_write_float<char, fmt::v11::basic_appender<char>, fmt::v11::detail::big_decimal_fp, fmt::v11::detail::digit_grouping<char> >(fmt::v11::basic_appender<char>, fmt::v11::detail::big_decimal_fp const&, fmt::v11::format_specs const&, fmt::v11::detail::float_specs, fmt::v11::detail::locale_ref)
PUBLIC 37494 0 fmt::v11::detail::do_write_float<char, fmt::v11::basic_appender<char>, fmt::v11::detail::big_decimal_fp, fmt::v11::detail::digit_grouping<char> >(fmt::v11::basic_appender<char>, fmt::v11::detail::big_decimal_fp const&, fmt::v11::format_specs const&, fmt::v11::detail::float_specs, fmt::v11::detail::locale_ref)::{lambda(fmt::v11::basic_appender<char>(fmt::v11::basic_appender<char>))#1}::operator() const
PUBLIC 375f4 0 fmt::v11::detail::write_padded<char, (fmt::v11::align::type)2, fmt::v11::basic_appender<char>, fmt::v11::detail::write_ptr<char, fmt::v11::basic_appender<char>, unsigned long>(fmt::v11::basic_appender<char>, unsigned long, fmt::v11::format_specs const*)::{lambda(fmt::v11::basic_appender<char>&)#1}>(fmt::v11::basic_appender<char>, fmt::v11::format_specs const&, unsigned long, unsigned long, fmt::v11::detail::write_ptr<char, fmt::v11::basic_appender<char>, unsigned long>(fmt::v11::basic_appender<char>, unsigned long, fmt::v11::format_specs const*)::{lambda(fmt::v11::basic_appender<char>&)#1})
PUBLIC 37808 0 fmt::v11::detail::parse_replacement_field<char, fmt::v11::detail::vformat_to<char>(fmt::v11::detail::buffer<char>&, fmt::v11::basic_string_view<char>, fmt::v11::detail::vformat_args<char>::type, fmt::v11::detail::locale_ref)::format_handler&>(char const*, char const*, fmt::v11::detail::vformat_to<char>(fmt::v11::detail::buffer<char>&, fmt::v11::basic_string_view<char>, fmt::v11::detail::vformat_args<char>::type, fmt::v11::detail::locale_ref)::format_handler&)
PUBLIC 394a4 0 fmt::v11::detail::parse_dynamic_spec<char>(char const*, char const*, int&, fmt::v11::detail::arg_ref<char>&, fmt::v11::basic_format_parse_context<char>&)
PUBLIC 39734 0 fmt::v11::basic_format_args<fmt::v11::context>::get<char>(fmt::v11::basic_string_view<char>) const
PUBLIC 3988c 0 fmt::v11::detail::write_int_noinline<char, fmt::v11::basic_appender<char>, unsigned long>(fmt::v11::basic_appender<char>, fmt::v11::detail::write_int_arg<unsigned long>, fmt::v11::format_specs const&, fmt::v11::detail::locale_ref)
PUBLIC 3a6e0 0 fmt::v11::detail::write_int_noinline<char, fmt::v11::basic_appender<char>, unsigned __int128>(fmt::v11::basic_appender<char>, fmt::v11::detail::write_int_arg<unsigned __int128>, fmt::v11::format_specs const&, fmt::v11::detail::locale_ref)
PUBLIC 3b748 0 _ZN3fmt3v116detail15format_hexfloatIdTnNSt6__ndk19enable_ifIXntsr16is_double_doubleIT_EE5valueEiE4typeELi0EEEvS5_NS0_12format_specsERNS1_6bufferIcEE
PUBLIC 3bc68 0 fmt::v11::detail::format_float<double>(double, int, fmt::v11::detail::float_specs, fmt::v11::detail::buffer<char>&)
PUBLIC 3c608 0 fmt::v11::detail::write<char, fmt::v11::basic_appender<char> >(fmt::v11::basic_appender<char>, fmt::v11::basic_string_view<char>, fmt::v11::format_specs const&)
PUBLIC 3d974 0 fmt::v11::detail::for_each_codepoint<fmt::v11::detail::compute_width(fmt::v11::basic_string_view<char>)::count_code_points>(fmt::v11::basic_string_view<char>, fmt::v11::detail::compute_width(fmt::v11::basic_string_view<char>)::count_code_points)::{lambda(char const*, char const*)#1}::operator()(char const*, char const*) const
PUBLIC 3db2c 0 fmt::v11::detail::write_int<fmt::v11::basic_appender<char>, unsigned long, char>(fmt::v11::basic_appender<char>, unsigned long, unsigned int, fmt::v11::format_specs const&, fmt::v11::detail::digit_grouping<char> const&)
PUBLIC 3e0a8 0 fmt::v11::detail::write_int<fmt::v11::basic_appender<char>, unsigned __int128, char>(fmt::v11::basic_appender<char>, unsigned __int128, unsigned int, fmt::v11::format_specs const&, fmt::v11::detail::digit_grouping<char> const&)
PUBLIC 3e730 0 <.plt ELF section in ml5.shopping-list.android64.so>
STACK CFI INIT 189f0 10 .cfa: sp 0 +
STACK CFI INIT 18a00 8 .cfa: sp 0 +
STACK CFI INIT 18a08 8 .cfa: sp 0 +
STACK CFI INIT 18a10 14 .cfa: sp 0 +
STACK CFI INIT 18a24 1c .cfa: sp 0 +
STACK CFI INIT 18a40 10 .cfa: sp 0 +
STACK CFI INIT 18a50 134 .cfa: sp 0 +
STACK CFI INIT 18b84 84 .cfa: sp 0 +
STACK CFI INIT 18c08 f4 .cfa: sp 0 +
STACK CFI INIT 18cfc a8 .cfa: sp 0 +
STACK CFI INIT 18da4 7c .cfa: sp 0 +
STACK CFI INIT 18e20 14 .cfa: sp 0 +
STACK CFI INIT 18e34 40 .cfa: sp 0 +
STACK CFI INIT 18e74 28 .cfa: sp 0 +
STACK CFI INIT 18e9c 190 .cfa: sp 0 +
STACK CFI INIT 1902c 2c8 .cfa: sp 0 +
STACK CFI INIT 192f4 8 .cfa: sp 0 +
STACK CFI INIT 192fc 8 .cfa: sp 0 +
STACK CFI INIT 19304 44 .cfa: sp 0 +
STACK CFI INIT 19348 e8 .cfa: sp 0 +
STACK CFI INIT 19430 e8 .cfa: sp 0 +
STACK CFI INIT 19518 14 .cfa: sp 0 +
STACK CFI INIT 1952c 10 .cfa: sp 0 +
STACK CFI INIT 1953c 10 .cfa: sp 0 +
STACK CFI INIT 1954c f0 .cfa: sp 0 +
STACK CFI INIT 1963c 44 .cfa: sp 0 +
STACK CFI INIT 19680 c .cfa: sp 0 +
STACK CFI INIT 1968c c .cfa: sp 0 +
STACK CFI INIT 19698 2c .cfa: sp 0 +
STACK CFI INIT 196c4 280 .cfa: sp 0 +
STACK CFI INIT 19944 c .cfa: sp 0 +
STACK CFI INIT 19950 120 .cfa: sp 0 +
STACK CFI INIT 19a70 488 .cfa: sp 0 +
STACK CFI INIT 19ef8 c48 .cfa: sp 0 +
STACK CFI INIT 1ab40 134 .cfa: sp 0 +
STACK CFI INIT 1ac74 210 .cfa: sp 0 +
STACK CFI INIT 1ae84 38c .cfa: sp 0 +
STACK CFI INIT 1b210 1c8 .cfa: sp 0 +
STACK CFI INIT 1b3d8 9bc .cfa: sp 0 +
STACK CFI INIT 1bd94 2d4 .cfa: sp 0 +
STACK CFI INIT 1c068 134 .cfa: sp 0 +
STACK CFI INIT 1c19c 120 .cfa: sp 0 +
STACK CFI INIT 1c2bc 1c8 .cfa: sp 0 +
STACK CFI INIT 1c484 168 .cfa: sp 0 +
STACK CFI INIT 1c5ec fc .cfa: sp 0 +
STACK CFI INIT 1c6e8 30 .cfa: sp 0 +
STACK CFI INIT 1c850 30 .cfa: sp 0 +
STACK CFI INIT 1c880 98 .cfa: sp 0 +
STACK CFI INIT 1c918 59c .cfa: sp 0 +
STACK CFI INIT 1ceb4 8c .cfa: sp 0 +
STACK CFI INIT 1cf40 30 .cfa: sp 0 +
STACK CFI INIT 1cf70 7c .cfa: sp 0 +
STACK CFI 1cf74 .cfa: sp 48 +
STACK CFI 1cf80 .cfa: x29 48 + x19: .cfa -8 + ^ x20: .cfa -16 + ^ x21: .cfa -32 + ^ .ra: .cfa -40 + ^ x29: .cfa -48 + ^
STACK CFI 1cfcc .cfa: sp 48 +
STACK CFI 1cfd8 .cfa: sp 0 +
STACK CFI 1cfdc .cfa: sp 48 +
STACK CFI 1cfe8 .cfa: sp 0 +
STACK CFI INIT 1f0a8 e0 .cfa: sp 0 +
STACK CFI 1f0ac .cfa: sp 48 +
STACK CFI 1f0b8 .cfa: x29 48 + x19: .cfa -8 + ^ x20: .cfa -16 + ^ x21: .cfa -24 + ^ x22: .cfa -32 + ^ .ra: .cfa -40 + ^ x29: .cfa -48 + ^
STACK CFI 1f178 .cfa: sp 48 +
STACK CFI 1f184 .cfa: sp 0 +
STACK CFI INIT 2016c 150 .cfa: sp 0 +
STACK CFI 20170 .cfa: sp 64 +
STACK CFI 2017c .cfa: x29 32 + x19: .cfa -8 + ^ x20: .cfa -16 + ^ .ra: .cfa -24 + ^ x29: .cfa -32 + ^
STACK CFI 20244 .cfa: sp 64 +
STACK CFI 20250 .cfa: sp 0 +
STACK CFI 20254 .cfa: x29 32 +
STACK CFI INIT 224c4 8 .cfa: sp 0 +
STACK CFI INIT 22644 2c .cfa: sp 0 +
STACK CFI 22648 .cfa: sp 32 +
STACK CFI 22650 .cfa: x29 32 + x19: .cfa -16 + ^ .ra: .cfa -24 + ^ x29: .cfa -32 + ^
STACK CFI 22664 .cfa: sp 32 +
STACK CFI 2266c .cfa: sp 0 +
STACK CFI INIT 22670 28 .cfa: sp 0 +
STACK CFI INIT 22698 4 .cfa: sp 0 +
STACK CFI INIT 2269c 8 .cfa: sp 0 +
STACK CFI INIT 2296c 2c .cfa: sp 0 +
STACK CFI INIT 22998 4 .cfa: sp 0 +
STACK CFI INIT 2299c 4 .cfa: sp 0 +
STACK CFI INIT 229a0 4 .cfa: sp 0 +
STACK CFI INIT 229a4 4 .cfa: sp 0 +
STACK CFI INIT 229a8 4 .cfa: sp 0 +
STACK CFI INIT 229ac 8 .cfa: sp 0 +
STACK CFI INIT 229b4 8c .cfa: sp 0 +
STACK CFI 229b8 .cfa: sp 48 +
STACK CFI 229c4 .cfa: x29 48 + x19: .cfa -8 + ^ x20: .cfa -16 + ^ x21: .cfa -24 + ^ x22: .cfa -32 + ^ .ra: .cfa -40 + ^ x29: .cfa -48 + ^
STACK CFI 229cc .cfa: sp 48 +
STACK CFI 229d8 .cfa: sp 0 +
STACK CFI 229dc .cfa: x29 48 +
STACK CFI 22a30 .cfa: sp 48 +
STACK CFI 22a3c .cfa: sp 0 +
STACK CFI INIT 22a40 10 .cfa: sp 0 +
STACK CFI 22a44 .cfa: sp 16 +
STACK CFI 22a48 .cfa: x29 16 + .ra: .cfa -8 + ^ x29: .cfa -16 + ^
STACK CFI INIT 22aa0 30 .cfa: sp 0 +
STACK CFI 22aa4 .cfa: sp 32 +
STACK CFI 22aac .cfa: x29 32 + x19: .cfa -16 + ^ .ra: .cfa -24 + ^ x29: .cfa -32 + ^
STACK CFI 22ac4 .cfa: sp 32 +
STACK CFI 22acc .cfa: sp 0 +
STACK CFI INIT 22ad0 34 .cfa: sp 0 +
STACK CFI 22ad4 .cfa: sp 32 +
STACK CFI 22adc .cfa: x29 32 + x19: .cfa -16 + ^ .ra: .cfa -24 + ^ x29: .cfa -32 + ^
STACK CFI INIT 22b04 60 .cfa: sp 0 +
STACK CFI 22b14 .cfa: sp 32 +
STACK CFI 22b1c .cfa: x29 32 + x19: .cfa -8 + ^ x20: .cfa -16 + ^ .ra: .cfa -24 + ^ x29: .cfa -32 + ^
STACK CFI 22b58 .cfa: sp 32 +
STACK CFI 22b60 .cfa: sp 0 +
STACK CFI INIT 22b64 80 .cfa: sp 0 +
STACK CFI 22b68 .cfa: sp 48 +
STACK CFI 22b74 .cfa: x29 48 + x19: .cfa -8 + ^ x20: .cfa -16 + ^ x21: .cfa -24 + ^ x22: .cfa -32 + ^ .ra: .cfa -40 + ^ x29: .cfa -48 + ^
STACK CFI 22b8c .cfa: sp 48 +
STACK CFI 22b98 .cfa: sp 0 +
STACK CFI 22b9c .cfa: x29 48 +
STACK CFI 22bcc .cfa: sp 48 +
STACK CFI 22bd8 .cfa: sp 0 +
STACK CFI 22bdc .cfa: x29 48 +
STACK CFI INIT 22be4 14 .cfa: sp 0 +
STACK CFI 22be8 .cfa: sp 16 +
STACK CFI 22bec .cfa: x29 16 + .ra: .cfa -8 + ^ x29: .cfa -16 + ^
STACK CFI INIT 22bf8 14 .cfa: sp 0 +
STACK CFI 22bfc .cfa: sp 16 +
STACK CFI 22c00 .cfa: x29 16 + .ra: .cfa -8 + ^ x29: .cfa -16 + ^
STACK CFI INIT 22c0c 1324 .cfa: sp 0 +
STACK CFI 22c10 .cfa: sp 128 +
STACK CFI 22c2c .cfa: x29 96 + x19: .cfa -8 + ^ x20: .cfa -16 + ^ x21: .cfa -24 + ^ x22: .cfa -32 + ^ x23: .cfa -40 + ^ x24: .cfa -48 + ^ x25: .cfa -56 + ^ x26: .cfa -64 + ^ x27: .cfa -72 + ^ x28: .cfa -80 + ^ .ra: .cfa -88 + ^ x29: .cfa -96 + ^
STACK CFI 2357c .cfa: sp 128 +
STACK CFI 23598 .cfa: sp 0 +
STACK CFI 2359c .cfa: x29 96 +
STACK CFI 2362c .cfa: sp 128 +
STACK CFI 23648 .cfa: sp 0 +
STACK CFI 2364c .cfa: x29 96 +
STACK CFI 2365c .cfa: sp 128 +
STACK CFI 23678 .cfa: sp 0 +
STACK CFI 2367c .cfa: x29 96 +
STACK CFI 23f10 .cfa: sp 128 +
STACK CFI 23f2c .cfa: sp 0 +
STACK CFI INIT 23f30 2c0 .cfa: sp 0 +
STACK CFI 23f34 .cfa: sp 64 +
STACK CFI 23f44 .cfa: x29 64 + x19: .cfa -8 + ^ x20: .cfa -16 + ^ x21: .cfa -24 + ^ x22: .cfa -32 + ^ x23: .cfa -48 + ^ .ra: .cfa -56 + ^ x29: .cfa -64 + ^
STACK CFI 241b0 .cfa: sp 64 +
STACK CFI 241c0 .cfa: sp 0 +
STACK CFI 241c4 .cfa: x29 64 +
STACK CFI 241dc .cfa: sp 64 +
STACK CFI 241ec .cfa: sp 0 +
STACK CFI INIT 241f0 32c .cfa: sp 0 +
STACK CFI INIT 2451c 344 .cfa: sp 0 +
STACK CFI 24520 .cfa: sp 48 +
STACK CFI 2452c .cfa: x29 48 + x19: .cfa -8 + ^ x20: .cfa -16 + ^ x21: .cfa -32 + ^ .ra: .cfa -40 + ^ x29: .cfa -48 + ^
STACK CFI 24544 .cfa: sp 48 +
STACK CFI 24550 .cfa: sp 0 +
STACK CFI 24554 .cfa: x29 48 +
STACK CFI 24584 .cfa: sp 48 +
STACK CFI 24590 .cfa: sp 0 +
STACK CFI 24594 .cfa: x29 48 +
STACK CFI 24630 .cfa: sp 48 +
STACK CFI 2463c .cfa: sp 0 +
STACK CFI 24640 .cfa: x29 48 +
STACK CFI 24808 .cfa: sp 48 +
STACK CFI 24814 .cfa: sp 0 +
STACK CFI 24818 .cfa: x29 48 +
STACK CFI 24834 .cfa: sp 48 +
STACK CFI 24840 .cfa: sp 0 +
STACK CFI 24844 .cfa: x29 48 +
STACK CFI 24850 .cfa: sp 48 +
STACK CFI 2485c .cfa: sp 0 +
STACK CFI INIT 24860 214 .cfa: sp 0 +
STACK CFI 24864 .cfa: sp 48 +
STACK CFI 24870 .cfa: x29 48 + x19: .cfa -8 + ^ x20: .cfa -16 + ^ x21: .cfa -24 + ^ x22: .cfa -32 + ^ .ra: .cfa -40 + ^ x29: .cfa -48 + ^
STACK CFI 24a3c .cfa: sp 48 +
STACK CFI 24a48 .cfa: sp 0 +
STACK CFI 24a4c .cfa: x29 48 +
STACK CFI 24a64 .cfa: sp 48 +
STACK CFI 24a70 .cfa: sp 0 +
STACK CFI INIT 24a74 44 .cfa: sp 0 +
STACK CFI 24a7c .cfa: sp 32 +
STACK CFI 24a84 .cfa: x29 32 + x19: .cfa -8 + ^ x20: .cfa -16 + ^ .ra: .cfa -24 + ^ x29: .cfa -32 + ^
STACK CFI 24aa8 .cfa: sp 32 +
STACK CFI 24ab0 .cfa: sp 0 +
STACK CFI INIT 24b08 30 .cfa: sp 0 +
STACK CFI 24b0c .cfa: sp 32 +
STACK CFI 24b14 .cfa: x29 32 + x19: .cfa -16 + ^ .ra: .cfa -24 + ^ x29: .cfa -32 + ^
STACK CFI 24b2c .cfa: sp 32 +
STACK CFI 24b34 .cfa: sp 0 +
STACK CFI INIT 24b38 24 .cfa: sp 0 +
STACK CFI 24b3c .cfa: sp 32 +
STACK CFI 24b44 .cfa: x29 32 + x19: .cfa -16 + ^ .ra: .cfa -24 + ^ x29: .cfa -32 + ^
STACK CFI 24b50 .cfa: sp 32 +
STACK CFI 24b58 .cfa: sp 0 +
STACK CFI INIT 24b5c 4 .cfa: sp 0 +
STACK CFI INIT 24b60 14 .cfa: sp 0 +
STACK CFI 24b64 .cfa: sp 16 +
STACK CFI 24b68 .cfa: x29 16 + .ra: .cfa -8 + ^ x29: .cfa -16 + ^
STACK CFI INIT 24be0 4 .cfa: sp 0 +
STACK CFI INIT 24c50 4 .cfa: sp 0 +
STACK CFI INIT 24c54 104 .cfa: sp 0 +
STACK CFI 24c58 .cfa: sp 64 +
STACK CFI 24c68 .cfa: x29 64 + x19: .cfa -8 + ^ x20: .cfa -16 + ^ x21: .cfa -24 + ^ x22: .cfa -32 + ^ x23: .cfa -48 + ^ .ra: .cfa -56 + ^ x29: .cfa -64 + ^
STACK CFI 24cc4 .cfa: sp 64 +
STACK CFI 24cd4 .cfa: sp 0 +
STACK CFI 24cd8 .cfa: x29 64 +
STACK CFI 24cf4 .cfa: sp 64 +
STACK CFI 24d04 .cfa: sp 0 +
STACK CFI 24d08 .cfa: x29 64 +
STACK CFI 24d44 .cfa: sp 64 +
STACK CFI 24d54 .cfa: sp 0 +
STACK CFI INIT 24d58 1b0 .cfa: sp 0 +
STACK CFI INIT 24f08 314 .cfa: sp 0 +
STACK CFI 24f0c .cfa: sp 128 +
STACK CFI 24f24 .cfa: x29 64 + x19: .cfa -8 + ^ x20: .cfa -16 + ^ x21: .cfa -24 + ^ x22: .cfa -32 + ^ x23: .cfa -40 + ^ x24: .cfa -48 + ^ .ra: .cfa -56 + ^ x29: .cfa -64 + ^ v8: .cfa -72 + ^ v9: .cfa -80 + ^
STACK CFI 25160 .cfa: sp 128 +
STACK CFI 25178 .cfa: sp 0 +
STACK CFI 2517c .cfa: x29 64 +
STACK CFI INIT 2521c 60 .cfa: sp 0 +
STACK CFI 25220 .cfa: sp 32 +
STACK CFI 25228 .cfa: x29 32 + x19: .cfa -8 + ^ x20: .cfa -16 + ^ .ra: .cfa -24 + ^ x29: .cfa -32 + ^
STACK CFI 25248 .cfa: sp 32 +
STACK CFI 25250 .cfa: sp 0 +
STACK CFI 25254 .cfa: x29 32 +
STACK CFI 25270 .cfa: sp 32 +
STACK CFI 25278 .cfa: sp 0 +
STACK CFI INIT 2527c 70 .cfa: sp 0 +
STACK CFI 25280 .cfa: sp 32 +
STACK CFI 25288 .cfa: x29 32 + x19: .cfa -8 + ^ x20: .cfa -16 + ^ .ra: .cfa -24 + ^ x29: .cfa -32 + ^
STACK CFI 252b0 .cfa: sp 32 +
STACK CFI 252b8 .cfa: sp 0 +
STACK CFI 252bc .cfa: x29 32 +
STACK CFI 252e0 .cfa: sp 32 +
STACK CFI 252e8 .cfa: sp 0 +
STACK CFI INIT 252ec 10 .cfa: sp 0 +
STACK CFI INIT 252fc 30 .cfa: sp 0 +
STACK CFI 25300 .cfa: sp 32 +
STACK CFI 25308 .cfa: x29 32 + x19: .cfa -16 + ^ .ra: .cfa -24 + ^ x29: .cfa -32 + ^
STACK CFI 25320 .cfa: sp 32 +
STACK CFI 25328 .cfa: sp 0 +
STACK CFI INIT 2532c 4 .cfa: sp 0 +
STACK CFI INIT 25330 4 .cfa: sp 0 +
STACK CFI INIT 26468 18 .cfa: sp 0 +
STACK CFI INIT 26904 18 .cfa: sp 0 +
STACK CFI INIT 26c24 50 .cfa: sp 0 +
STACK CFI 26c28 .cfa: sp 32 +
STACK CFI 26c30 .cfa: x29 32 + x19: .cfa -16 + ^ .ra: .cfa -24 + ^ x29: .cfa -32 + ^
STACK CFI 26c48 .cfa: sp 32 +
STACK CFI 26c50 .cfa: sp 0 +
STACK CFI 26c54 .cfa: x29 32 +
STACK CFI 26c68 .cfa: sp 32 +
STACK CFI 26c70 .cfa: sp 0 +
STACK CFI INIT 26ce8 7c .cfa: sp 0 +
STACK CFI 26cec .cfa: sp 48 +
STACK CFI 26cf8 .cfa: x29 48 + x19: .cfa -8 + ^ x20: .cfa -16 + ^ x21: .cfa -32 + ^ .ra: .cfa -40 + ^ x29: .cfa -48 + ^
STACK CFI 26d44 .cfa: sp 48 +
STACK CFI 26d50 .cfa: sp 0 +
STACK CFI 26d54 .cfa: sp 48 +
STACK CFI 26d60 .cfa: sp 0 +
STACK CFI INIT 26d64 4 .cfa: sp 0 +
STACK CFI INIT 26ebc 34 .cfa: sp 0 +
STACK CFI 26ec0 .cfa: sp 16 +
STACK CFI 26ec4 .cfa: x29 16 + .ra: .cfa -8 + ^ x29: .cfa -16 + ^
STACK CFI INIT 2701c 80 .cfa: sp 0 +
STACK CFI 27020 .cfa: sp 48 +
STACK CFI 2702c .cfa: x29 48 + x19: .cfa -8 + ^ x20: .cfa -16 + ^ x21: .cfa -32 + ^ .ra: .cfa -40 + ^ x29: .cfa -48 + ^
STACK CFI 2708c .cfa: sp 48 +
STACK CFI 27098 .cfa: sp 0 +
STACK CFI INIT 2709c 24 .cfa: sp 0 +
STACK CFI 270a0 .cfa: sp 32 +
STACK CFI 270a8 .cfa: x29 32 + x19: .cfa -16 + ^ .ra: .cfa -24 + ^ x29: .cfa -32 + ^
STACK CFI 270b4 .cfa: sp 32 +
STACK CFI 270bc .cfa: sp 0 +
STACK CFI INIT 275b8 148 .cfa: sp 0 +
STACK CFI 275bc .cfa: sp 48 +
STACK CFI 275c8 .cfa: x29 48 + x19: .cfa -8 + ^ x20: .cfa -16 + ^ x21: .cfa -32 + ^ .ra: .cfa -40 + ^ x29: .cfa -48 + ^
STACK CFI 276f0 .cfa: sp 48 +
STACK CFI 276fc .cfa: sp 0 +
STACK CFI INIT 27924 68 .cfa: sp 0 +
STACK CFI 27928 .cfa: sp 32 +
STACK CFI 27930 .cfa: x29 32 + x19: .cfa -8 + ^ x20: .cfa -16 + ^ .ra: .cfa -24 + ^ x29: .cfa -32 + ^
STACK CFI 27948 .cfa: sp 32 +
STACK CFI 27950 .cfa: sp 0 +
STACK CFI 27954 .cfa: x29 32 +
STACK CFI 27980 .cfa: sp 32 +
STACK CFI 27988 .cfa: sp 0 +
STACK CFI INIT 2798c 14 .cfa: sp 0 +
STACK CFI 27990 .cfa: sp 16 +
STACK CFI 27994 .cfa: x29 16 + .ra: .cfa -8 + ^ x29: .cfa -16 + ^
STACK CFI INIT 279a0 4 .cfa: sp 0 +
STACK CFI INIT 279a4 14 .cfa: sp 0 +
STACK CFI INIT 279b8 120 .cfa: sp 0 +
STACK CFI 279bc .cfa: sp 64 +
STACK CFI 279cc .cfa: x29 64 + x19: .cfa -8 + ^ x20: .cfa -16 + ^ x21: .cfa -24 + ^ x22: .cfa -32 + ^ x23: .cfa -40 + ^ x24: .cfa -48 + ^ .ra: .cfa -56 + ^ x29: .cfa -64 + ^
STACK CFI 27ac4 .cfa: sp 64 +
STACK CFI 27ad4 .cfa: sp 0 +
STACK CFI INIT 27ad8 4a4 .cfa: sp 0 +
STACK CFI 27adc .cfa: sp 32 +
STACK CFI 27ae4 .cfa: x29 32 + x19: .cfa -8 + ^ x20: .cfa -16 + ^ .ra: .cfa -24 + ^ x29: .cfa -32 + ^
STACK CFI 27ec4 .cfa: sp 32 +
STACK CFI 27ecc .cfa: sp 0 +
STACK CFI 27ed0 .cfa: x29 32 +
STACK CFI INIT 27f7c 84 .cfa: sp 0 +
STACK CFI 27f84 .cfa: sp 32 +
STACK CFI 27f8c .cfa: x29 32 + x19: .cfa -8 + ^ x20: .cfa -16 + ^ .ra: .cfa -24 + ^ x29: .cfa -32 + ^
STACK CFI 27fcc .cfa: sp 32 +
STACK CFI 27fd4 .cfa: sp 0 +
STACK CFI 27fdc .cfa: x29 32 +
STACK CFI INIT 282bc b4 .cfa: sp 0 +
STACK CFI 282c0 .cfa: sp 32 +
STACK CFI 282c8 .cfa: x29 32 + x19: .cfa -16 + ^ .ra: .cfa -24 + ^ x29: .cfa -32 + ^
STACK CFI 28364 .cfa: sp 32 +
STACK CFI 2836c .cfa: sp 0 +
STACK CFI INIT 28370 50 .cfa: sp 0 +
STACK CFI 28374 .cfa: sp 32 +
STACK CFI 2837c .cfa: x29 32 + x19: .cfa -16 + ^ .ra: .cfa -24 + ^ x29: .cfa -32 + ^
STACK CFI 28394 .cfa: sp 32 +
STACK CFI 2839c .cfa: sp 0 +
STACK CFI 283a0 .cfa: x29 32 +
STACK CFI 283b4 .cfa: sp 32 +
STACK CFI 283bc .cfa: sp 0 +
STACK CFI INIT 283c0 64 .cfa: sp 0 +
STACK CFI 283c4 .cfa: sp 32 +
STACK CFI 283cc .cfa: x29 32 + x19: .cfa -16 + ^ .ra: .cfa -24 + ^ x29: .cfa -32 + ^
STACK CFI 283f8 .cfa: sp 32 +
STACK CFI 28400 .cfa: sp 0 +
STACK CFI 28404 .cfa: x29 32 +
STACK CFI 28418 .cfa: sp 32 +
STACK CFI 28420 .cfa: sp 0 +
STACK CFI INIT 28424 20 .cfa: sp 0 +
STACK CFI 28428 .cfa: sp 16 +
STACK CFI 2842c .cfa: x29 16 + .ra: .cfa -8 + ^ x29: .cfa -16 + ^
STACK CFI 2843c .cfa: sp 16 +
STACK CFI 28440 .cfa: sp 0 +
STACK CFI INIT 28444 63c .cfa: sp 0 +
STACK CFI 28448 .cfa: sp 64 +
STACK CFI 28458 .cfa: x29 64 + x19: .cfa -8 + ^ x20: .cfa -16 + ^ x21: .cfa -24 + ^ x22: .cfa -32 + ^ x23: .cfa -40 + ^ x24: .cfa -48 + ^ .ra: .cfa -56 + ^ x29: .cfa -64 + ^
STACK CFI 28838 .cfa: sp 64 +
STACK CFI 28848 .cfa: sp 0 +
STACK CFI 2884c .cfa: x29 64 +
STACK CFI 289bc .cfa: sp 64 +
STACK CFI 289cc .cfa: sp 0 +
STACK CFI 289d0 .cfa: x29 64 +
STACK CFI 289d4 .cfa: sp 64 +
STACK CFI 289e4 .cfa: sp 0 +
STACK CFI 289e8 .cfa: x29 64 +
STACK CFI INIT 28a80 168 .cfa: sp 0 +
STACK CFI 28a84 .cfa: sp 80 +
STACK CFI 28a98 .cfa: x29 80 + x19: .cfa -8 + ^ x20: .cfa -16 + ^ x21: .cfa -24 + ^ x22: .cfa -32 + ^ x23: .cfa -40 + ^ x24: .cfa -48 + ^ x25: .cfa -56 + ^ x26: .cfa -64 + ^ .ra: .cfa -72 + ^ x29: .cfa -80 + ^
STACK CFI 28bd0 .cfa: sp 80 +
STACK CFI 28be4 .cfa: sp 0 +
STACK CFI INIT 28f30 4 .cfa: sp 0 +
STACK CFI INIT 2917c 20 .cfa: sp 0 +
STACK CFI 29180 .cfa: sp 16 +
STACK CFI 29184 .cfa: x29 16 + .ra: .cfa -8 + ^ x29: .cfa -16 + ^
STACK CFI 29194 .cfa: sp 16 +
STACK CFI 29198 .cfa: sp 0 +
STACK CFI INIT 2919c 3c .cfa: sp 0 +
STACK CFI 291a0 .cfa: sp 32 +
STACK CFI 291a8 .cfa: x29 32 + x19: .cfa -16 + ^ .ra: .cfa -24 + ^ x29: .cfa -32 + ^
STACK CFI 291b4 .cfa: sp 32 +
STACK CFI 291bc .cfa: sp 0 +
STACK CFI 291c0 .cfa: x29 32 +
STACK CFI 291cc .cfa: sp 32 +
STACK CFI 291d4 .cfa: sp 0 +
STACK CFI INIT 291d8 4c .cfa: sp 0 +
STACK CFI 291dc .cfa: sp 32 +
STACK CFI 291e4 .cfa: x29 32 + x19: .cfa -8 + ^ x20: .cfa -16 + ^ .ra: .cfa -24 + ^ x29: .cfa -32 + ^
STACK CFI 2920c .cfa: sp 32 +
STACK CFI 29214 .cfa: sp 0 +
STACK CFI 29218 .cfa: sp 32 +
STACK CFI 29220 .cfa: sp 0 +
STACK CFI INIT 29444 64 .cfa: sp 0 +
STACK CFI 29448 .cfa: sp 32 +
STACK CFI 29450 .cfa: x29 32 + x19: .cfa -16 + ^ .ra: .cfa -24 + ^ x29: .cfa -32 + ^
STACK CFI 2947c .cfa: sp 32 +
STACK CFI 29484 .cfa: sp 0 +
STACK CFI 29488 .cfa: x29 32 +
STACK CFI 2949c .cfa: sp 32 +
STACK CFI 294a4 .cfa: sp 0 +
STACK CFI INIT 296cc 24 .cfa: sp 0 +
STACK CFI 296d0 .cfa: sp 32 +
STACK CFI 296d8 .cfa: x29 32 + x19: .cfa -16 + ^ .ra: .cfa -24 + ^ x29: .cfa -32 + ^
STACK CFI 296e4 .cfa: sp 32 +
STACK CFI 296ec .cfa: sp 0 +
STACK CFI INIT 296f0 24 .cfa: sp 0 +
STACK CFI 296f4 .cfa: sp 32 +
STACK CFI 296fc .cfa: x29 32 + x19: .cfa -16 + ^ .ra: .cfa -24 + ^ x29: .cfa -32 + ^
STACK CFI 29708 .cfa: sp 32 +
STACK CFI 29710 .cfa: sp 0 +
STACK CFI INIT 29714 8 .cfa: sp 0 +
STACK CFI INIT 2971c 24 .cfa: sp 0 +
STACK CFI 29720 .cfa: sp 32 +
STACK CFI 29728 .cfa: x29 32 + x19: .cfa -16 + ^ .ra: .cfa -24 + ^ x29: .cfa -32 + ^
STACK CFI 29734 .cfa: sp 32 +
STACK CFI 2973c .cfa: sp 0 +
STACK CFI INIT 29740 28 .cfa: sp 0 +
STACK CFI 29744 .cfa: sp 32 +
STACK CFI 2974c .cfa: x29 32 + x19: .cfa -16 + ^ .ra: .cfa -24 + ^ x29: .cfa -32 + ^
STACK CFI 2975c .cfa: sp 32 +
STACK CFI 29764 .cfa: sp 0 +
STACK CFI INIT 29a68 8 .cfa: sp 0 +
STACK CFI INIT 29a70 24 .cfa: sp 0 +
STACK CFI 29a74 .cfa: sp 32 +
STACK CFI 29a7c .cfa: x29 32 + x19: .cfa -16 + ^ .ra: .cfa -24 + ^ x29: .cfa -32 + ^
STACK CFI 29a88 .cfa: sp 32 +
STACK CFI 29a90 .cfa: sp 0 +
STACK CFI INIT 29a94 28 .cfa: sp 0 +
STACK CFI 29a98 .cfa: sp 32 +
STACK CFI 29aa0 .cfa: x29 32 + x19: .cfa -16 + ^ .ra: .cfa -24 + ^ x29: .cfa -32 + ^
STACK CFI 29ab0 .cfa: sp 32 +
STACK CFI 29ab8 .cfa: sp 0 +
STACK CFI INIT 29d20 8 .cfa: sp 0 +
STACK CFI INIT 29d28 24 .cfa: sp 0 +
STACK CFI 29d2c .cfa: sp 32 +
STACK CFI 29d34 .cfa: x29 32 + x19: .cfa -16 + ^ .ra: .cfa -24 + ^ x29: .cfa -32 + ^
STACK CFI 29d40 .cfa: sp 32 +
STACK CFI 29d48 .cfa: sp 0 +
STACK CFI INIT 29d4c 28 .cfa: sp 0 +
STACK CFI 29d50 .cfa: sp 32 +
STACK CFI 29d58 .cfa: x29 32 + x19: .cfa -16 + ^ .ra: .cfa -24 + ^ x29: .cfa -32 + ^
STACK CFI 29d68 .cfa: sp 32 +
STACK CFI 29d70 .cfa: sp 0 +
STACK CFI INIT 29d74 8 .cfa: sp 0 +
STACK CFI INIT 29d7c 24 .cfa: sp 0 +
STACK CFI 29d80 .cfa: sp 32 +
STACK CFI 29d88 .cfa: x29 32 + x19: .cfa -16 + ^ .ra: .cfa -24 + ^ x29: .cfa -32 + ^
STACK CFI 29d94 .cfa: sp 32 +
STACK CFI 29d9c .cfa: sp 0 +
STACK CFI INIT 29da0 28 .cfa: sp 0 +
STACK CFI 29da4 .cfa: sp 32 +
STACK CFI 29dac .cfa: x29 32 + x19: .cfa -16 + ^ .ra: .cfa -24 + ^ x29: .cfa -32 + ^
STACK CFI 29dbc .cfa: sp 32 +
STACK CFI 29dc4 .cfa: sp 0 +
STACK CFI INIT 2a0ec 1f8 .cfa: sp 0 +
STACK CFI 2a0f0 .cfa: sp 112 +
STACK CFI 2a110 .cfa: x29 72 + x19: .cfa -8 + ^ x20: .cfa -16 + ^ x21: .cfa -24 + ^ x22: .cfa -32 + ^ x23: .cfa -40 + ^ x24: .cfa -48 + ^ x25: .cfa -56 + ^ .ra: .cfa -64 + ^ x29: .cfa -72 + ^ v8: .cfa -80 + ^ v9: .cfa -88 + ^ v10: .cfa -96 + ^
STACK CFI 2a2bc .cfa: sp 112 +
STACK CFI 2a2dc .cfa: sp 0 +
STACK CFI 2a2e0 .cfa: x29 72 +
STACK CFI INIT 2b808 4 .cfa: sp 0 +
STACK CFI INIT 2b80c 14 .cfa: sp 0 +
STACK CFI INIT 2bd2c c .cfa: sp 0 +
STACK CFI INIT 2bd38 24c .cfa: sp 0 +
STACK CFI INIT 2bf84 a0 .cfa: sp 0 +
STACK CFI 2bf90 .cfa: sp 32 +
STACK CFI 2bfe8 .cfa: sp 0 +
STACK CFI 2bfec .cfa: sp 32 +
STACK CFI 2bff4 .cfa: sp 0 +
STACK CFI 2bff8 .cfa: sp 32 +
STACK CFI 2c00c .cfa: sp 0 +
STACK CFI 2c010 .cfa: sp 32 +
STACK CFI 2c020 .cfa: sp 0 +
STACK CFI INIT 2c024 38 .cfa: sp 0 +
STACK CFI 2c030 .cfa: sp 32 +
STACK CFI 2c058 .cfa: sp 0 +
STACK CFI INIT 2c2f0 7c .cfa: sp 0 +
STACK CFI 2c2f4 .cfa: sp 32 +
STACK CFI 2c2fc .cfa: x29 32 + x19: .cfa -16 + ^ .ra: .cfa -24 + ^ x29: .cfa -32 + ^
STACK CFI 2c328 .cfa: sp 32 +
STACK CFI 2c330 .cfa: sp 0 +
STACK CFI 2c334 .cfa: x29 32 +
STACK CFI 2c360 .cfa: sp 32 +
STACK CFI 2c368 .cfa: sp 0 +
STACK CFI INIT 2c3bc 2c .cfa: sp 0 +
STACK CFI 2c3c0 .cfa: sp 32 +
STACK CFI 2c3c8 .cfa: x29 32 + x19: .cfa -16 + ^ .ra: .cfa -24 + ^ x29: .cfa -32 + ^
STACK CFI 2c3dc .cfa: sp 32 +
STACK CFI 2c3e4 .cfa: sp 0 +
STACK CFI INIT 2cba8 64 .cfa: sp 0 +
STACK CFI 2cbac .cfa: sp 32 +
STACK CFI 2cbb4 .cfa: x29 32 + x19: .cfa -16 + ^ .ra: .cfa -24 + ^ x29: .cfa -32 + ^
STACK CFI 2cbd0 .cfa: sp 32 +
STACK CFI 2cbd8 .cfa: sp 0 +
STACK CFI 2cbdc .cfa: x29 32 +
STACK CFI 2cc00 .cfa: sp 32 +
STACK CFI 2cc08 .cfa: sp 0 +
STACK CFI INIT 2cc0c 570 .cfa: sp 0 +
STACK CFI 2cc10 .cfa: sp 176 +
STACK CFI 2cc24 .cfa: x29 64 + x19: .cfa -8 + ^ x20: .cfa -16 + ^ x21: .cfa -24 + ^ x22: .cfa -32 + ^ x23: .cfa -40 + ^ x24: .cfa -48 + ^ .ra: .cfa -56 + ^ x29: .cfa -64 + ^
STACK CFI 2ce54 .cfa: sp 176 +
STACK CFI 2ce68 .cfa: sp 0 +
STACK CFI 2ce6c .cfa: x29 64 +
STACK CFI 2ceb8 .cfa: sp 176 +
STACK CFI 2cecc .cfa: sp 0 +
STACK CFI 2ced0 .cfa: x29 64 +
STACK CFI 2cf08 .cfa: sp 176 +
STACK CFI 2cf1c .cfa: sp 0 +
STACK CFI 2cf20 .cfa: x29 64 +
STACK CFI 2cf38 .cfa: sp 176 +
STACK CFI 2cf4c .cfa: sp 0 +
STACK CFI 2cf50 .cfa: x29 64 +
STACK CFI 2cf70 .cfa: sp 176 +
STACK CFI 2cf84 .cfa: sp 0 +
STACK CFI 2cf88 .cfa: x29 64 +
STACK CFI 2cfa0 .cfa: sp 176 +
STACK CFI 2cfb4 .cfa: sp 0 +
STACK CFI 2cfb8 .cfa: x29 64 +
STACK CFI 2cfcc .cfa: sp 176 +
STACK CFI 2cfe0 .cfa: sp 0 +
STACK CFI 2cfe4 .cfa: x29 64 +
STACK CFI 2cff8 .cfa: sp 176 +
STACK CFI 2d00c .cfa: sp 0 +
STACK CFI 2d010 .cfa: x29 64 +
STACK CFI 2d020 .cfa: sp 176 +
STACK CFI 2d034 .cfa: sp 0 +
STACK CFI 2d038 .cfa: x29 64 +
STACK CFI 2d048 .cfa: sp 176 +
STACK CFI 2d05c .cfa: sp 0 +
STACK CFI 2d060 .cfa: x29 64 +
STACK CFI 2d078 .cfa: sp 176 +
STACK CFI 2d08c .cfa: sp 0 +
STACK CFI 2d090 .cfa: x29 64 +
STACK CFI 2d0a4 .cfa: sp 176 +
STACK CFI 2d0b8 .cfa: sp 0 +
STACK CFI 2d0bc .cfa: x29 64 +
STACK CFI 2d0d4 .cfa: sp 176 +
STACK CFI 2d0e8 .cfa: sp 0 +
STACK CFI 2d0ec .cfa: x29 64 +
STACK CFI 2d118 .cfa: sp 176 +
STACK CFI 2d12c .cfa: sp 0 +
STACK CFI 2d130 .cfa: x29 64 +
STACK CFI 2d144 .cfa: sp 176 +
STACK CFI 2d158 .cfa: sp 0 +
STACK CFI 2d15c .cfa: x29 64 +
STACK CFI INIT 2d17c 228 .cfa: sp 0 +
STACK CFI INIT 2d3a4 2dc .cfa: sp 0 +
STACK CFI INIT 2d680 53c .cfa: sp 0 +
STACK CFI INIT 2dbbc 78 .cfa: sp 0 +
STACK CFI 2dbc0 .cfa: sp 48 +
STACK CFI 2dbcc .cfa: x29 48 + x19: .cfa -8 + ^ x20: .cfa -16 + ^ x21: .cfa -24 + ^ x22: .cfa -32 + ^ .ra: .cfa -40 + ^ x29: .cfa -48 + ^
STACK CFI 2dc14 .cfa: sp 48 +
STACK CFI 2dc20 .cfa: sp 0 +
STACK CFI 2dc24 .cfa: sp 48 +
STACK CFI 2dc30 .cfa: sp 0 +
STACK CFI INIT 2dc34 8c .cfa: sp 0 +
STACK CFI 2dc38 .cfa: sp 32 +
STACK CFI 2dc40 .cfa: x29 32 + x19: .cfa -16 + ^ .ra: .cfa -24 + ^ x29: .cfa -32 + ^
STACK CFI 2dc74 .cfa: sp 32 +
STACK CFI 2dc7c .cfa: sp 0 +
STACK CFI 2dc80 .cfa: x29 32 +
STACK CFI 2dcb4 .cfa: sp 32 +
STACK CFI 2dcbc .cfa: sp 0 +
STACK CFI INIT 2dcc0 24 .cfa: sp 0 +
STACK CFI 2dcc4 .cfa: sp 32 +
STACK CFI 2dccc .cfa: x29 32 + x19: .cfa -16 + ^ .ra: .cfa -24 + ^ x29: .cfa -32 + ^
STACK CFI 2dcd8 .cfa: sp 32 +
STACK CFI 2dce0 .cfa: sp 0 +
STACK CFI INIT 2dce4 150 .cfa: sp 0 +
STACK CFI 2dce8 .cfa: sp 48 +
STACK CFI 2dcf4 .cfa: x29 48 + x19: .cfa -8 + ^ x20: .cfa -16 + ^ x21: .cfa -24 + ^ x22: .cfa -32 + ^ .ra: .cfa -40 + ^ x29: .cfa -48 + ^
STACK CFI 2de24 .cfa: sp 48 +
STACK CFI 2de30 .cfa: sp 0 +
STACK CFI INIT 2de34 68 .cfa: sp 0 +
STACK CFI 2de38 .cfa: sp 64 +
STACK CFI 2de44 .cfa: x29 32 + x19: .cfa -16 + ^ .ra: .cfa -24 + ^ x29: .cfa -32 + ^
STACK CFI 2de88 .cfa: sp 64 +
STACK CFI 2de94 .cfa: sp 0 +
STACK CFI 2de98 .cfa: x29 32 +
STACK CFI INIT 2de9c 90 .cfa: sp 0 +
STACK CFI 2dea0 .cfa: sp 32 +
STACK CFI 2dea8 .cfa: x29 32 + x19: .cfa -8 + ^ x20: .cfa -16 + ^ .ra: .cfa -24 + ^ x29: .cfa -32 + ^
STACK CFI 2ded4 .cfa: sp 32 +
STACK CFI 2dedc .cfa: sp 0 +
STACK CFI 2dee0 .cfa: x29 32 +
STACK CFI 2df20 .cfa: sp 32 +
STACK CFI 2df28 .cfa: sp 0 +
STACK CFI INIT 2df2c ec .cfa: sp 0 +
STACK CFI 2df30 .cfa: sp 112 +
STACK CFI 2df40 .cfa: x29 48 + x19: .cfa -8 + ^ x20: .cfa -16 + ^ x21: .cfa -32 + ^ .ra: .cfa -40 + ^ x29: .cfa -48 + ^
STACK CFI 2e000 .cfa: sp 112 +
STACK CFI 2e010 .cfa: sp 0 +
STACK CFI 2e014 .cfa: x29 48 +
STACK CFI INIT 2e018 ec .cfa: sp 0 +
STACK CFI 2e01c .cfa: sp 112 +
STACK CFI 2e02c .cfa: x29 48 + x19: .cfa -8 + ^ x20: .cfa -16 + ^ x21: .cfa -32 + ^ .ra: .cfa -40 + ^ x29: .cfa -48 + ^
STACK CFI 2e0ec .cfa: sp 112 +
STACK CFI 2e0fc .cfa: sp 0 +
STACK CFI 2e100 .cfa: x29 48 +
STACK CFI INIT 2e104 48 .cfa: sp 0 +
STACK CFI 2e108 .cfa: sp 32 +
STACK CFI 2e110 .cfa: x29 32 + x19: .cfa -8 + ^ x20: .cfa -16 + ^ .ra: .cfa -24 + ^ x29: .cfa -32 + ^
STACK CFI 2e134 .cfa: sp 32 +
STACK CFI 2e13c .cfa: sp 0 +
STACK CFI 2e140 .cfa: x29 32 +
STACK CFI INIT 2e14c 98 .cfa: sp 0 +
STACK CFI 2e150 .cfa: sp 80 +
STACK CFI 2e15c .cfa: x29 32 + x19: .cfa -16 + ^ .ra: .cfa -24 + ^ x29: .cfa -32 + ^
STACK CFI 2e1d0 .cfa: sp 80 +
STACK CFI 2e1dc .cfa: sp 0 +
STACK CFI 2e1e0 .cfa: x29 32 +
STACK CFI INIT 2e1e4 260 .cfa: sp 0 +
STACK CFI 2e1e8 .cfa: sp 112 +
STACK CFI 2e200 .cfa: x29 80 + x19: .cfa -8 + ^ x20: .cfa -16 + ^ x21: .cfa -24 + ^ x22: .cfa -32 + ^ x23: .cfa -40 + ^ x24: .cfa -48 + ^ x25: .cfa -64 + ^ .ra: .cfa -72 + ^ x29: .cfa -80 + ^
STACK CFI 2e3e4 .cfa: sp 112 +
STACK CFI 2e3fc .cfa: sp 0 +
STACK CFI 2e400 .cfa: x29 80 +
STACK CFI INIT 2e444 150 .cfa: sp 0 +
STACK CFI 2e448 .cfa: sp 48 +
STACK CFI 2e454 .cfa: x29 48 + x19: .cfa -8 + ^ x20: .cfa -16 + ^ x21: .cfa -24 + ^ x22: .cfa -32 + ^ .ra: .cfa -40 + ^ x29: .cfa -48 + ^
STACK CFI 2e584 .cfa: sp 48 +
STACK CFI 2e590 .cfa: sp 0 +
STACK CFI INIT 2e594 1e0 .cfa: sp 0 +
STACK CFI 2e598 .cfa: sp 96 +
STACK CFI 2e5ac .cfa: x29 64 + x19: .cfa -8 + ^ x20: .cfa -16 + ^ x21: .cfa -24 + ^ x22: .cfa -32 + ^ x23: .cfa -40 + ^ x24: .cfa -48 + ^ .ra: .cfa -56 + ^ x29: .cfa -64 + ^
STACK CFI 2e72c .cfa: sp 96 +
STACK CFI 2e740 .cfa: sp 0 +
STACK CFI 2e744 .cfa: x29 64 +
STACK CFI INIT 2e774 284 .cfa: sp 0 +
STACK CFI 2e778 .cfa: sp 112 +
STACK CFI 2e790 .cfa: x29 80 + x19: .cfa -8 + ^ x20: .cfa -16 + ^ x21: .cfa -24 + ^ x22: .cfa -32 + ^ x23: .cfa -40 + ^ x24: .cfa -48 + ^ x25: .cfa -64 + ^ .ra: .cfa -72 + ^ x29: .cfa -80 + ^
STACK CFI 2e998 .cfa: sp 112 +
STACK CFI 2e9b0 .cfa: sp 0 +
STACK CFI 2e9b4 .cfa: x29 80 +
STACK CFI INIT 2e9f8 208 .cfa: sp 0 +
STACK CFI 2e9fc .cfa: sp 96 +
STACK CFI 2ea10 .cfa: x29 64 + x19: .cfa -8 + ^ x20: .cfa -16 + ^ x21: .cfa -24 + ^ x22: .cfa -32 + ^ x23: .cfa -40 + ^ x24: .cfa -48 + ^ .ra: .cfa -56 + ^ x29: .cfa -64 + ^
STACK CFI 2ebb8 .cfa: sp 96 +
STACK CFI 2ebcc .cfa: sp 0 +
STACK CFI 2ebd0 .cfa: x29 64 +
STACK CFI INIT 2ec00 360 .cfa: sp 0 +
STACK CFI 2ec04 .cfa: sp 160 +
STACK CFI 2ec20 .cfa: x29 96 + x19: .cfa -8 + ^ x20: .cfa -16 + ^ x21: .cfa -24 + ^ x22: .cfa -32 + ^ x23: .cfa -40 + ^ x24: .cfa -48 + ^ x25: .cfa -56 + ^ x26: .cfa -64 + ^ x27: .cfa -72 + ^ x28: .cfa -80 + ^ .ra: .cfa -88 + ^ x29: .cfa -96 + ^
STACK CFI 2eeec .cfa: sp 160 +
STACK CFI 2ef08 .cfa: sp 0 +
STACK CFI 2ef0c .cfa: x29 96 +
STACK CFI INIT 2ef60 314 .cfa: sp 0 +
STACK CFI 2ef64 .cfa: sp 144 +
STACK CFI 2ef80 .cfa: x29 96 + x19: .cfa -8 + ^ x20: .cfa -16 + ^ x21: .cfa -24 + ^ x22: .cfa -32 + ^ x23: .cfa -40 + ^ x24: .cfa -48 + ^ x25: .cfa -56 + ^ x26: .cfa -64 + ^ x27: .cfa -72 + ^ x28: .cfa -80 + ^ .ra: .cfa -88 + ^ x29: .cfa -96 + ^
STACK CFI 2f1fc .cfa: sp 144 +
STACK CFI 2f218 .cfa: sp 0 +
STACK CFI 2f21c .cfa: x29 96 +
STACK CFI INIT 2f274 290 .cfa: sp 0 +
STACK CFI 2f278 .cfa: sp 128 +
STACK CFI 2f290 .cfa: x29 80 + x19: .cfa -8 + ^ x20: .cfa -16 + ^ x21: .cfa -24 + ^ x22: .cfa -32 + ^ x23: .cfa -40 + ^ x24: .cfa -48 + ^ x25: .cfa -56 + ^ x26: .cfa -64 + ^ .ra: .cfa -72 + ^ x29: .cfa -80 + ^
STACK CFI 2f4e4 .cfa: sp 128 +
STACK CFI 2f4fc .cfa: sp 0 +
STACK CFI 2f500 .cfa: x29 80 +
STACK CFI INIT 2f504 ddc .cfa: sp 0 +
STACK CFI 2f508 .cfa: sp 144 +
STACK CFI 2f524 .cfa: x29 96 + x19: .cfa -8 + ^ x20: .cfa -16 + ^ x21: .cfa -24 + ^ x22: .cfa -32 + ^ x23: .cfa -40 + ^ x24: .cfa -48 + ^ x25: .cfa -56 + ^ x26: .cfa -64 + ^ x27: .cfa -72 + ^ x28: .cfa -80 + ^ .ra: .cfa -88 + ^ x29: .cfa -96 + ^
STACK CFI 301b8 .cfa: sp 144 +
STACK CFI 301d4 .cfa: sp 0 +
STACK CFI 301d8 .cfa: x29 96 +
STACK CFI INIT 302e0 1d0 .cfa: sp 0 +
STACK CFI 302e4 .cfa: sp 80 +
STACK CFI 302f8 .cfa: x29 80 + x19: .cfa -8 + ^ x20: .cfa -16 + ^ x21: .cfa -24 + ^ x22: .cfa -32 + ^ x23: .cfa -40 + ^ x24: .cfa -48 + ^ x25: .cfa -64 + ^ .ra: .cfa -72 + ^ x29: .cfa -80 + ^
STACK CFI 30498 .cfa: sp 80 +
STACK CFI 304ac .cfa: sp 0 +
STACK CFI INIT 304b0 23c .cfa: sp 0 +
STACK CFI 304b4 .cfa: sp 112 +
STACK CFI 304c8 .cfa: x29 64 + x19: .cfa -8 + ^ x20: .cfa -16 + ^ x21: .cfa -24 + ^ x22: .cfa -32 + ^ x23: .cfa -40 + ^ x24: .cfa -48 + ^ .ra: .cfa -56 + ^ x29: .cfa -64 + ^
STACK CFI 306a4 .cfa: sp 112 +
STACK CFI 306b8 .cfa: sp 0 +
STACK CFI 306bc .cfa: x29 64 +
STACK CFI INIT 306ec 30c .cfa: sp 0 +
STACK CFI 306f0 .cfa: sp 80 +
STACK CFI 30704 .cfa: x29 64 + x19: .cfa -8 + ^ x20: .cfa -16 + ^ x21: .cfa -24 + ^ x22: .cfa -32 + ^ x23: .cfa -40 + ^ x24: .cfa -48 + ^ .ra: .cfa -56 + ^ x29: .cfa -64 + ^
STACK CFI 30880 .cfa: sp 80 +
STACK CFI 30894 .cfa: sp 0 +
STACK CFI 30898 .cfa: x29 64 +
STACK CFI INIT 309f8 178 .cfa: sp 0 +
STACK CFI 309fc .cfa: sp 80 +
STACK CFI 30a10 .cfa: x29 64 + x19: .cfa -8 + ^ x20: .cfa -16 + ^ x21: .cfa -24 + ^ x22: .cfa -32 + ^ x23: .cfa -40 + ^ x24: .cfa -48 + ^ .ra: .cfa -56 + ^ x29: .cfa -64 + ^
STACK CFI 30b54 .cfa: sp 80 +
STACK CFI 30b68 .cfa: sp 0 +
STACK CFI 30b6c .cfa: x29 64 +
STACK CFI INIT 30b70 178 .cfa: sp 0 +
STACK CFI 30b74 .cfa: sp 80 +
STACK CFI 30b88 .cfa: x29 64 + x19: .cfa -8 + ^ x20: .cfa -16 + ^ x21: .cfa -24 + ^ x22: .cfa -32 + ^ x23: .cfa -40 + ^ x24: .cfa -48 + ^ .ra: .cfa -56 + ^ x29: .cfa -64 + ^
STACK CFI 30ccc .cfa: sp 80 +
STACK CFI 30ce0 .cfa: sp 0 +
STACK CFI 30ce4 .cfa: x29 64 +
STACK CFI INIT 30ce8 240 .cfa: sp 0 +
STACK CFI 30cec .cfa: sp 96 +
STACK CFI 30d04 .cfa: x29 96 + x19: .cfa -8 + ^ x20: .cfa -16 + ^ x21: .cfa -24 + ^ x22: .cfa -32 + ^ x23: .cfa -40 + ^ x24: .cfa -48 + ^ x25: .cfa -56 + ^ x26: .cfa -64 + ^ x27: .cfa -72 + ^ x28: .cfa -80 + ^ .ra: .cfa -88 + ^ x29: .cfa -96 + ^
STACK CFI 30f0c .cfa: sp 96 +
STACK CFI 30f24 .cfa: sp 0 +
STACK CFI INIT 31b9c 154 .cfa: sp 0 +
STACK CFI 31ba0 .cfa: sp 96 +
STACK CFI 31bb4 .cfa: x29 64 + x19: .cfa -8 + ^ x20: .cfa -16 + ^ x21: .cfa -24 + ^ x22: .cfa -32 + ^ x23: .cfa -48 + ^ .ra: .cfa -56 + ^ x29: .cfa -64 + ^
STACK CFI 31c94 .cfa: sp 96 +
STACK CFI 31ca8 .cfa: sp 0 +
STACK CFI 31cac .cfa: x29 64 +
STACK CFI INIT 31f5c 44 .cfa: sp 0 +
STACK CFI 31f60 .cfa: sp 32 +
STACK CFI 31f68 .cfa: x29 32 + x19: .cfa -16 + ^ .ra: .cfa -24 + ^ x29: .cfa -32 + ^
STACK CFI 31f84 .cfa: sp 32 +
STACK CFI 31f8c .cfa: sp 0 +
STACK CFI 31f90 .cfa: x29 32 +
STACK CFI 31f94 .cfa: sp 32 +
STACK CFI 31f9c .cfa: sp 0 +
STACK CFI INIT 31fa0 1d0 .cfa: sp 0 +
STACK CFI 31fa4 .cfa: sp 64 +
STACK CFI 31fb4 .cfa: x29 64 + x19: .cfa -8 + ^ x20: .cfa -16 + ^ x21: .cfa -24 + ^ x22: .cfa -32 + ^ x23: .cfa -40 + ^ x24: .cfa -48 + ^ .ra: .cfa -56 + ^ x29: .cfa -64 + ^
STACK CFI 32074 .cfa: sp 64 +
STACK CFI 32084 .cfa: sp 0 +
STACK CFI 32088 .cfa: x29 64 +
STACK CFI INIT 32170 17c .cfa: sp 0 +
STACK CFI INIT 322ec ac .cfa: sp 0 +
STACK CFI 322f0 .cfa: sp 64 +
STACK CFI 32300 .cfa: x29 64 + x19: .cfa -8 + ^ x20: .cfa -16 + ^ x21: .cfa -24 + ^ x22: .cfa -32 + ^ x23: .cfa -48 + ^ .ra: .cfa -56 + ^ x29: .cfa -64 + ^
STACK CFI 3237c .cfa: sp 64 +
STACK CFI 3238c .cfa: sp 0 +
STACK CFI 32390 .cfa: x29 64 +
STACK CFI INIT 32398 110 .cfa: sp 0 +
STACK CFI 3239c .cfa: sp 64 +
STACK CFI 323ac .cfa: x29 64 + x19: .cfa -8 + ^ x20: .cfa -16 + ^ x21: .cfa -24 + ^ x22: .cfa -32 + ^ x23: .cfa -40 + ^ x24: .cfa -48 + ^ .ra: .cfa -56 + ^ x29: .cfa -64 + ^
STACK CFI 3248c .cfa: sp 64 +
STACK CFI 3249c .cfa: sp 0 +
STACK CFI 324a0 .cfa: x29 64 +
STACK CFI INIT 32860 a0 .cfa: sp 0 +
STACK CFI 32864 .cfa: sp 48 +
STACK CFI 32870 .cfa: x29 48 + x19: .cfa -8 + ^ x20: .cfa -16 + ^ x21: .cfa -24 + ^ x22: .cfa -32 + ^ .ra: .cfa -40 + ^ x29: .cfa -48 + ^
STACK CFI 328dc .cfa: sp 48 +
STACK CFI 328e8 .cfa: sp 0 +
STACK CFI 328ec .cfa: sp 48 +
STACK CFI 328f8 .cfa: sp 0 +
STACK CFI 328fc .cfa: x29 48 +
STACK CFI INIT 335b4 158 .cfa: sp 0 +
STACK CFI 335b8 .cfa: sp 96 +
STACK CFI 335cc .cfa: x29 64 + x19: .cfa -8 + ^ x20: .cfa -16 + ^ x21: .cfa -24 + ^ x22: .cfa -32 + ^ x23: .cfa -48 + ^ .ra: .cfa -56 + ^ x29: .cfa -64 + ^
STACK CFI 336b0 .cfa: sp 96 +
STACK CFI 336c4 .cfa: sp 0 +
STACK CFI 336c8 .cfa: x29 64 +
STACK CFI INIT 3370c 190 .cfa: sp 0 +
STACK CFI INIT 34398 1dc .cfa: sp 0 +
STACK CFI 3439c .cfa: sp 80 +
STACK CFI 343b0 .cfa: x29 80 + x19: .cfa -8 + ^ x20: .cfa -16 + ^ x21: .cfa -24 + ^ x22: .cfa -32 + ^ x23: .cfa -40 + ^ x24: .cfa -48 + ^ x25: .cfa -64 + ^ .ra: .cfa -72 + ^ x29: .cfa -80 + ^
STACK CFI 3455c .cfa: sp 80 +
STACK CFI 34570 .cfa: sp 0 +
STACK CFI INIT 359a4 124 .cfa: sp 0 +
STACK CFI 359d4 .cfa: sp 32 +
STACK CFI 359dc .cfa: x29 32 + x19: .cfa -8 + ^ x20: .cfa -16 + ^ .ra: .cfa -24 + ^ x29: .cfa -32 + ^
STACK CFI 35abc .cfa: sp 32 +
STACK CFI 35ac4 .cfa: sp 0 +
STACK CFI INIT 36224 320 .cfa: sp 0 +
STACK CFI 36228 .cfa: sp 64 +
STACK CFI 36238 .cfa: x29 64 + x19: .cfa -8 + ^ x20: .cfa -16 + ^ x21: .cfa -24 + ^ x22: .cfa -32 + ^ x23: .cfa -40 + ^ x24: .cfa -48 + ^ .ra: .cfa -56 + ^ x29: .cfa -64 + ^
STACK CFI 362b4 .cfa: sp 64 +
STACK CFI 362c4 .cfa: sp 0 +
STACK CFI 362c8 .cfa: x29 64 +
STACK CFI 3649c .cfa: sp 64 +
STACK CFI 364ac .cfa: sp 0 +
STACK CFI 364b0 .cfa: x29 64 +
STACK CFI 364c0 .cfa: sp 64 +
STACK CFI 364d0 .cfa: sp 0 +
STACK CFI 364d4 .cfa: x29 64 +
STACK CFI INIT 36544 a0 .cfa: sp 0 +
STACK CFI 36548 .cfa: sp 48 +
STACK CFI 36554 .cfa: x29 48 + x19: .cfa -8 + ^ x20: .cfa -16 + ^ x21: .cfa -24 + ^ x22: .cfa -32 + ^ .ra: .cfa -40 + ^ x29: .cfa -48 + ^
STACK CFI 365c0 .cfa: sp 48 +
STACK CFI 365cc .cfa: sp 0 +
STACK CFI 365d0 .cfa: sp 48 +
STACK CFI 365dc .cfa: sp 0 +
STACK CFI 365e0 .cfa: x29 48 +
STACK CFI INIT 37494 160 .cfa: sp 0 +
STACK CFI 37498 .cfa: sp 64 +
STACK CFI 374a8 .cfa: x29 64 + x19: .cfa -8 + ^ x20: .cfa -16 + ^ x21: .cfa -24 + ^ x22: .cfa -32 + ^ x23: .cfa -48 + ^ .ra: .cfa -56 + ^ x29: .cfa -64 + ^
STACK CFI 375a0 .cfa: sp 64 +
STACK CFI 375b0 .cfa: sp 0 +
STACK CFI 375b4 .cfa: x29 64 +
STACK CFI INIT 375f4 214 .cfa: sp 0 +
STACK CFI 375f8 .cfa: sp 128 +
STACK CFI 37614 .cfa: x29 96 + x19: .cfa -8 + ^ x20: .cfa -16 + ^ x21: .cfa -24 + ^ x22: .cfa -32 + ^ x23: .cfa -40 + ^ x24: .cfa -48 + ^ x25: .cfa -56 + ^ x26: .cfa -64 + ^ x27: .cfa -80 + ^ .ra: .cfa -88 + ^ x29: .cfa -96 + ^
STACK CFI 37790 .cfa: sp 128 +
STACK CFI 377ac .cfa: sp 0 +
STACK CFI 377b0 .cfa: x29 96 +
STACK CFI INIT 394a4 290 .cfa: sp 0 +
STACK CFI 394a8 .cfa: sp 16 +
STACK CFI 394ac .cfa: x29 16 + .ra: .cfa -8 + ^ x29: .cfa -16 + ^
STACK CFI 39538 .cfa: sp 16 +
STACK CFI 3953c .cfa: sp 0 +
STACK CFI 39540 .cfa: x29 16 +
STACK CFI 39590 .cfa: sp 16 +
STACK CFI 39594 .cfa: sp 0 +
STACK CFI 39598 .cfa: x29 16 +
STACK CFI 396fc .cfa: sp 16 +
STACK CFI 39700 .cfa: sp 0 +
STACK CFI 39704 .cfa: x29 16 +
STACK CFI INIT 39734 158 .cfa: sp 0 +
STACK CFI 39738 .cfa: sp 112 +
STACK CFI 39754 .cfa: x29 96 + x19: .cfa -8 + ^ x20: .cfa -16 + ^ x21: .cfa -24 + ^ x22: .cfa -32 + ^ x23: .cfa -40 + ^ x24: .cfa -48 + ^ x25: .cfa -56 + ^ x26: .cfa -64 + ^ x27: .cfa -72 + ^ x28: .cfa -80 + ^ .ra: .cfa -88 + ^ x29: .cfa -96 + ^
STACK CFI 3983c .cfa: sp 112 +
STACK CFI 39840 .cfa: x29 96 +
STACK CFI 39848 .cfa: sp 112 +
STACK CFI 39864 .cfa: sp 0 +
STACK CFI 39868 .cfa: x29 96 +
STACK CFI 39888 .cfa: sp 112 +
STACK CFI INIT 3988c e54 .cfa: sp 0 +
STACK CFI 39890 .cfa: sp 192 +
STACK CFI 398ac .cfa: x29 96 + x19: .cfa -8 + ^ x20: .cfa -16 + ^ x21: .cfa -24 + ^ x22: .cfa -32 + ^ x23: .cfa -40 + ^ x24: .cfa -48 + ^ x25: .cfa -56 + ^ x26: .cfa -64 + ^ x27: .cfa -72 + ^ x28: .cfa -80 + ^ .ra: .cfa -88 + ^ x29: .cfa -96 + ^
STACK CFI 3a5c8 .cfa: sp 192 +
STACK CFI 3a5e4 .cfa: sp 0 +
STACK CFI 3a5e8 .cfa: x29 96 +
STACK CFI INIT 3a6e0 1068 .cfa: sp 0 +
STACK CFI 3a6e4 .cfa: sp 288 +
STACK CFI 3a700 .cfa: x29 96 + x19: .cfa -8 + ^ x20: .cfa -16 + ^ x21: .cfa -24 + ^ x22: .cfa -32 + ^ x23: .cfa -40 + ^ x24: .cfa -48 + ^ x25: .cfa -56 + ^ x26: .cfa -64 + ^ x27: .cfa -72 + ^ x28: .cfa -80 + ^ .ra: .cfa -88 + ^ x29: .cfa -96 + ^
STACK CFI 3b490 .cfa: sp 288 +
STACK CFI 3b4ac .cfa: sp 0 +
STACK CFI 3b4b0 .cfa: x29 96 +
STACK CFI INIT 3b748 520 .cfa: sp 0 +
STACK CFI 3b74c .cfa: sp 144 +
STACK CFI 3b768 .cfa: x29 96 + x19: .cfa -8 + ^ x20: .cfa -16 + ^ x21: .cfa -24 + ^ x22: .cfa -32 + ^ x23: .cfa -40 + ^ x24: .cfa -48 + ^ x25: .cfa -56 + ^ x26: .cfa -64 + ^ x27: .cfa -72 + ^ x28: .cfa -80 + ^ .ra: .cfa -88 + ^ x29: .cfa -96 + ^
STACK CFI 3bc44 .cfa: sp 144 +
STACK CFI 3bc60 .cfa: sp 0 +
STACK CFI 3bc64 .cfa: x29 96 +
STACK CFI INIT 3c608 136c .cfa: sp 0 +
STACK CFI 3c60c .cfa: sp 224 +
STACK CFI 3c628 .cfa: x29 96 + x19: .cfa -8 + ^ x20: .cfa -16 + ^ x21: .cfa -24 + ^ x22: .cfa -32 + ^ x23: .cfa -40 + ^ x24: .cfa -48 + ^ x25: .cfa -56 + ^ x26: .cfa -64 + ^ x27: .cfa -72 + ^ x28: .cfa -80 + ^ .ra: .cfa -88 + ^ x29: .cfa -96 + ^
STACK CFI 3d950 .cfa: sp 224 +
STACK CFI 3d96c .cfa: sp 0 +
STACK CFI 3d970 .cfa: x29 96 +
STACK CFI INIT 3d974 1b8 .cfa: sp 0 +
STACK CFI INIT 1cfec 108c .cfa: sp 0 +
STACK CFI 1cff0 .cfa: sp 256 +
STACK CFI 1d014 .cfa: x29 96 + x19: .cfa -8 + ^ x20: .cfa -16 + ^ x21: .cfa -24 + ^ x22: .cfa -32 + ^ x23: .cfa -40 + ^ x24: .cfa -48 + ^ x25: .cfa -56 + ^ x26: .cfa -64 + ^ x27: .cfa -72 + ^ x28: .cfa -80 + ^ .ra: .cfa -88 + ^ x29: .cfa -96 + ^ v8: .cfa -104 + ^ v9: .cfa -112 + ^ v10: .cfa -120 + ^ v11: .cfa -128 + ^
STACK CFI 1df74 .cfa: sp 256 +
STACK CFI 1df98 .cfa: sp 0 +
STACK CFI 1df9c .cfa: x29 96 +
STACK CFI INIT 1e078 134 .cfa: sp 0 +
STACK CFI 1e07c .cfa: sp 80 +
STACK CFI 1e08c .cfa: x29 48 + x19: .cfa -8 + ^ x20: .cfa -16 + ^ x21: .cfa -24 + ^ x22: .cfa -32 + ^ .ra: .cfa -40 + ^ x29: .cfa -48 + ^
STACK CFI 1e190 .cfa: sp 80 +
STACK CFI 1e1a0 .cfa: sp 0 +
STACK CFI 1e1a4 .cfa: x29 48 +
STACK CFI INIT 1e1ac efc .cfa: sp 0 +
STACK CFI 1e1b0 .cfa: sp 48 +
STACK CFI 1e1bc .cfa: x29 48 + x19: .cfa -8 + ^ x20: .cfa -16 + ^ x21: .cfa -24 + ^ x28: .cfa -32 + ^ .ra: .cfa -40 + ^ x29: .cfa -48 + ^
STACK CFI 1eac0 .cfa: sp 48 +
STACK CFI 1eacc .cfa: sp 0 +
STACK CFI 1ead0 .cfa: x29 48 +
STACK CFI INIT 1f188 59c .cfa: sp 0 +
STACK CFI 1f18c .cfa: sp 176 +
STACK CFI 1f1a8 .cfa: x29 96 + x19: .cfa -8 + ^ x20: .cfa -16 + ^ x21: .cfa -24 + ^ x22: .cfa -32 + ^ x23: .cfa -40 + ^ x24: .cfa -48 + ^ x25: .cfa -56 + ^ x26: .cfa -64 + ^ x27: .cfa -72 + ^ x28: .cfa -80 + ^ .ra: .cfa -88 + ^ x29: .cfa -96 + ^
STACK CFI 1f650 .cfa: sp 176 +
STACK CFI 1f66c .cfa: sp 0 +
STACK CFI 1f670 .cfa: x29 96 +
STACK CFI INIT 1f724 4b8 .cfa: sp 0 +
STACK CFI 1f728 .cfa: sp 176 +
STACK CFI 1f744 .cfa: x29 96 + x19: .cfa -8 + ^ x20: .cfa -16 + ^ x21: .cfa -24 + ^ x22: .cfa -32 + ^ x23: .cfa -40 + ^ x24: .cfa -48 + ^ x25: .cfa -56 + ^ x26: .cfa -64 + ^ x27: .cfa -72 + ^ x28: .cfa -80 + ^ .ra: .cfa -88 + ^ x29: .cfa -96 + ^
STACK CFI 1fb3c .cfa: sp 176 +
STACK CFI 1fb58 .cfa: sp 0 +
STACK CFI 1fb5c .cfa: x29 96 +
STACK CFI INIT 1fbdc 3f4 .cfa: sp 0 +
STACK CFI 1fbe0 .cfa: sp 160 +
STACK CFI 1fbf8 .cfa: x29 80 + x19: .cfa -8 + ^ x20: .cfa -16 + ^ x21: .cfa -24 + ^ x22: .cfa -32 + ^ x23: .cfa -40 + ^ x24: .cfa -48 + ^ x25: .cfa -56 + ^ x26: .cfa -64 + ^ .ra: .cfa -72 + ^ x29: .cfa -80 + ^
STACK CFI 1ff78 .cfa: sp 160 +
STACK CFI 1ff90 .cfa: sp 0 +
STACK CFI 1ff94 .cfa: x29 80 +
STACK CFI INIT 1ffd0 19c .cfa: sp 0 +
STACK CFI 1ffd4 .cfa: sp 160 +
STACK CFI 1ffec .cfa: x29 80 + x19: .cfa -8 + ^ x20: .cfa -16 + ^ x21: .cfa -24 + ^ x22: .cfa -32 + ^ x23: .cfa -40 + ^ x24: .cfa -48 + ^ x25: .cfa -56 + ^ x26: .cfa -64 + ^ .ra: .cfa -72 + ^ x29: .cfa -80 + ^
STACK CFI 20120 .cfa: sp 160 +
STACK CFI 20138 .cfa: sp 0 +
STACK CFI 2013c .cfa: x29 80 +
STACK CFI INIT 202bc 1c .cfa: sp 0 +
STACK CFI 202c0 .cfa: sp 16 +
STACK CFI 202c4 .cfa: x29 16 + .ra: .cfa -8 + ^ x29: .cfa -16 + ^
STACK CFI 202cc .cfa: sp 16 +
STACK CFI 202d0 .cfa: sp 0 +
STACK CFI 202d4 .cfa: x29 16 +
STACK CFI INIT 202d8 598 .cfa: sp 0 +
STACK CFI 202dc .cfa: sp 256 +
STACK CFI 20300 .cfa: x29 96 + x19: .cfa -8 + ^ x20: .cfa -16 + ^ x21: .cfa -24 + ^ x22: .cfa -32 + ^ x23: .cfa -40 + ^ x24: .cfa -48 + ^ x25: .cfa -56 + ^ x26: .cfa -64 + ^ x27: .cfa -72 + ^ x28: .cfa -80 + ^ .ra: .cfa -88 + ^ x29: .cfa -96 + ^ v8: .cfa -104 + ^ v9: .cfa -112 + ^ v10: .cfa -128 + ^
STACK CFI 207e0 .cfa: sp 256 +
STACK CFI 20804 .cfa: sp 0 +
STACK CFI 20808 .cfa: x29 96 +
STACK CFI INIT 20870 170 .cfa: sp 0 +
STACK CFI 20874 .cfa: sp 80 +
STACK CFI 20888 .cfa: x29 80 + x19: .cfa -8 + ^ x20: .cfa -16 + ^ x21: .cfa -24 + ^ x22: .cfa -32 + ^ x23: .cfa -40 + ^ x24: .cfa -48 + ^ x25: .cfa -64 + ^ .ra: .cfa -72 + ^ x29: .cfa -80 + ^
STACK CFI 209b0 .cfa: sp 80 +
STACK CFI 209c4 .cfa: sp 0 +
STACK CFI 209c8 .cfa: x29 80 +
STACK CFI INIT 209e0 ae8 .cfa: sp 0 +
STACK CFI 209e4 .cfa: sp 288 +
STACK CFI 20a08 .cfa: x29 96 + x19: .cfa -8 + ^ x20: .cfa -16 + ^ x21: .cfa -24 + ^ x22: .cfa -32 + ^ x23: .cfa -40 + ^ x24: .cfa -48 + ^ x25: .cfa -56 + ^ x26: .cfa -64 + ^ x27: .cfa -72 + ^ x28: .cfa -80 + ^ .ra: .cfa -88 + ^ x29: .cfa -96 + ^ v8: .cfa -104 + ^ v9: .cfa -112 + ^ v10: .cfa -120 + ^ v11: .cfa -128 + ^
STACK CFI 213bc .cfa: sp 288 +
STACK CFI 213e0 .cfa: sp 0 +
STACK CFI 213e4 .cfa: x29 96 +
STACK CFI INIT 214c8 1c .cfa: sp 0 +
STACK CFI 214cc .cfa: sp 16 +
STACK CFI 214d0 .cfa: x29 16 + .ra: .cfa -8 + ^ x29: .cfa -16 + ^
STACK CFI 214d8 .cfa: sp 16 +
STACK CFI 214dc .cfa: sp 0 +
STACK CFI 214e0 .cfa: x29 16 +
STACK CFI INIT 214e4 5f8 .cfa: sp 0 +
STACK CFI 214e8 .cfa: sp 144 +
STACK CFI 21508 .cfa: x29 88 + x19: .cfa -8 + ^ x20: .cfa -16 + ^ x21: .cfa -24 + ^ x22: .cfa -32 + ^ x23: .cfa -40 + ^ x24: .cfa -48 + ^ x25: .cfa -56 + ^ x26: .cfa -64 + ^ x27: .cfa -72 + ^ .ra: .cfa -80 + ^ x29: .cfa -88 + ^ v8: .cfa -96 + ^
STACK CFI 21a38 .cfa: sp 144 +
STACK CFI 21a58 .cfa: sp 0 +
STACK CFI 21a5c .cfa: x29 88 +
STACK CFI INIT 21adc 850 .cfa: sp 0 +
STACK CFI 21ae0 .cfa: sp 112 +
STACK CFI 21afc .cfa: x29 96 + x19: .cfa -8 + ^ x20: .cfa -16 + ^ x21: .cfa -24 + ^ x22: .cfa -32 + ^ x23: .cfa -40 + ^ x24: .cfa -48 + ^ x25: .cfa -56 + ^ x26: .cfa -64 + ^ x27: .cfa -72 + ^ x28: .cfa -80 + ^ .ra: .cfa -88 + ^ x29: .cfa -96 + ^ v8: .cfa -112 + ^
STACK CFI 22224 .cfa: sp 112 +
STACK CFI 22240 .cfa: sp 0 +
STACK CFI 22244 .cfa: x29 96 +
STACK CFI INIT 2232c 198 .cfa: sp 0 +
STACK CFI 22330 .cfa: sp 80 +
STACK CFI 22340 .cfa: x29 48 + x19: .cfa -8 + ^ x20: .cfa -16 + ^ x21: .cfa -32 + ^ .ra: .cfa -40 + ^ x29: .cfa -48 + ^
STACK CFI 22488 .cfa: sp 80 +
STACK CFI 22498 .cfa: sp 0 +
STACK CFI 2249c .cfa: x29 48 +
STACK CFI INIT 224cc b8 .cfa: sp 0 +
STACK CFI 224d0 .cfa: sp 32 +
STACK CFI 224d8 .cfa: x29 32 + x19: .cfa -16 + ^ .ra: .cfa -24 + ^ x29: .cfa -32 + ^
STACK CFI 22574 .cfa: sp 32 +
STACK CFI 2257c .cfa: sp 0 +
STACK CFI 22580 .cfa: x29 32 +
STACK CFI INIT 22584 c0 .cfa: sp 0 +
STACK CFI 22588 .cfa: sp 32 +
STACK CFI 22590 .cfa: x29 32 + x19: .cfa -16 + ^ .ra: .cfa -24 + ^ x29: .cfa -32 + ^
STACK CFI 22634 .cfa: sp 32 +
STACK CFI 2263c .cfa: sp 0 +
STACK CFI 22640 .cfa: x29 32 +
STACK CFI INIT 226a4 148 .cfa: sp 0 +
STACK CFI 226a8 .cfa: sp 96 +
STACK CFI 226b8 .cfa: x29 48 + x19: .cfa -8 + ^ x20: .cfa -16 + ^ x21: .cfa -32 + ^ .ra: .cfa -40 + ^ x29: .cfa -48 + ^
STACK CFI 227a0 .cfa: sp 96 +
STACK CFI 227b0 .cfa: sp 0 +
STACK CFI 227b4 .cfa: x29 48 +
STACK CFI INIT 227ec bc .cfa: sp 0 +
STACK CFI 227f0 .cfa: sp 32 +
STACK CFI 227f8 .cfa: x29 32 + x19: .cfa -8 + ^ x20: .cfa -16 + ^ .ra: .cfa -24 + ^ x29: .cfa -32 + ^
STACK CFI 22898 .cfa: sp 32 +
STACK CFI 228a0 .cfa: sp 0 +
STACK CFI 228a4 .cfa: x29 32 +
STACK CFI INIT 228a8 c4 .cfa: sp 0 +
STACK CFI 228ac .cfa: sp 32 +
STACK CFI 228b4 .cfa: x29 32 + x19: .cfa -8 + ^ x20: .cfa -16 + ^ .ra: .cfa -24 + ^ x29: .cfa -32 + ^
STACK CFI 2295c .cfa: sp 32 +
STACK CFI 22964 .cfa: sp 0 +
STACK CFI 22968 .cfa: x29 32 +
STACK CFI INIT 22a50 50 .cfa: sp 0 +
STACK CFI 22a54 .cfa: sp 32 +
STACK CFI 22a5c .cfa: x29 32 + x19: .cfa -8 + ^ x20: .cfa -16 + ^ .ra: .cfa -24 + ^ x29: .cfa -32 + ^
STACK CFI INIT 24ab8 50 .cfa: sp 0 +
STACK CFI 24abc .cfa: sp 32 +
STACK CFI 24ac4 .cfa: x29 32 + x19: .cfa -8 + ^ x20: .cfa -16 + ^ .ra: .cfa -24 + ^ x29: .cfa -32 + ^
STACK CFI INIT 24b74 6c .cfa: sp 0 +
STACK CFI 24b78 .cfa: sp 32 +
STACK CFI 24b80 .cfa: x29 32 + x19: .cfa -16 + ^ .ra: .cfa -24 + ^ x29: .cfa -32 + ^
STACK CFI 24bd0 .cfa: sp 32 +
STACK CFI 24bd8 .cfa: sp 0 +
STACK CFI 24bdc .cfa: x29 32 +
STACK CFI INIT 24be4 6c .cfa: sp 0 +
STACK CFI 24be8 .cfa: sp 32 +
STACK CFI 24bf0 .cfa: x29 32 + x19: .cfa -16 + ^ .ra: .cfa -24 + ^ x29: .cfa -32 + ^
STACK CFI 24c40 .cfa: sp 32 +
STACK CFI 24c48 .cfa: sp 0 +
STACK CFI 24c4c .cfa: x29 32 +
STACK CFI INIT 25334 cb0 .cfa: sp 0 +
STACK CFI 25338 .cfa: sp 96 +
STACK CFI 25350 .cfa: x29 96 + x19: .cfa -8 + ^ x20: .cfa -16 + ^ x21: .cfa -24 + ^ x22: .cfa -32 + ^ x23: .cfa -40 + ^ x24: .cfa -48 + ^ x25: .cfa -56 + ^ x26: .cfa -64 + ^ x27: .cfa -72 + ^ x28: .cfa -80 + ^ .ra: .cfa -88 + ^ x29: .cfa -96 + ^
STACK CFI 25cc4 .cfa: sp 96 +
STACK CFI 25cdc .cfa: sp 0 +
STACK CFI 25ce0 .cfa: x29 96 +
STACK CFI INIT 25fe4 484 .cfa: sp 0 +
STACK CFI 25fe8 .cfa: sp 224 +
STACK CFI 26004 .cfa: x29 96 + x19: .cfa -8 + ^ x20: .cfa -16 + ^ x21: .cfa -24 + ^ x22: .cfa -32 + ^ x23: .cfa -40 + ^ x24: .cfa -48 + ^ x25: .cfa -56 + ^ x26: .cfa -64 + ^ x27: .cfa -72 + ^ x28: .cfa -80 + ^ .ra: .cfa -88 + ^ x29: .cfa -96 + ^
STACK CFI 26274 .cfa: sp 224 +
STACK CFI 26290 .cfa: sp 0 +
STACK CFI 26294 .cfa: x29 96 +
STACK CFI 26360 .cfa: sp 224 +
STACK CFI 2637c .cfa: sp 0 +
STACK CFI 26380 .cfa: x29 96 +
STACK CFI INIT 26480 484 .cfa: sp 0 +
STACK CFI 26484 .cfa: sp 224 +
STACK CFI 264a0 .cfa: x29 96 + x19: .cfa -8 + ^ x20: .cfa -16 + ^ x21: .cfa -24 + ^ x22: .cfa -32 + ^ x23: .cfa -40 + ^ x24: .cfa -48 + ^ x25: .cfa -56 + ^ x26: .cfa -64 + ^ x27: .cfa -72 + ^ x28: .cfa -80 + ^ .ra: .cfa -88 + ^ x29: .cfa -96 + ^
STACK CFI 26710 .cfa: sp 224 +
STACK CFI 2672c .cfa: sp 0 +
STACK CFI 26730 .cfa: x29 96 +
STACK CFI 267fc .cfa: sp 224 +
STACK CFI 26818 .cfa: sp 0 +
STACK CFI 2681c .cfa: x29 96 +
STACK CFI INIT 2691c 308 .cfa: sp 0 +
STACK CFI 26920 .cfa: sp 192 +
STACK CFI 26934 .cfa: x29 64 + x19: .cfa -8 + ^ x20: .cfa -16 + ^ x21: .cfa -24 + ^ x22: .cfa -32 + ^ x23: .cfa -48 + ^ .ra: .cfa -56 + ^ x29: .cfa -64 + ^
STACK CFI 26b1c .cfa: sp 192 +
STACK CFI 26b30 .cfa: sp 0 +
STACK CFI 26b34 .cfa: x29 64 +
STACK CFI INIT 26c74 74 .cfa: sp 0 +
STACK CFI 26c78 .cfa: sp 48 +
STACK CFI 26c84 .cfa: x29 32 + x19: .cfa -8 + ^ x20: .cfa -16 + ^ .ra: .cfa -24 + ^ x29: .cfa -32 + ^
STACK CFI 26cd0 .cfa: sp 48 +
STACK CFI 26cdc .cfa: sp 0 +
STACK CFI 26ce0 .cfa: x29 32 +
STACK CFI INIT 26d68 154 .cfa: sp 0 +
STACK CFI 26d6c .cfa: sp 384 +
STACK CFI 26d80 .cfa: x29 64 + x19: .cfa -8 + ^ x20: .cfa -16 + ^ x21: .cfa -24 + ^ x22: .cfa -32 + ^ x23: .cfa -40 + ^ x28: .cfa -48 + ^ .ra: .cfa -56 + ^ x29: .cfa -64 + ^
STACK CFI 26e64 .cfa: sp 384 +
STACK CFI 26e78 .cfa: sp 0 +
STACK CFI 26e7c .cfa: x29 64 +
STACK CFI INIT 26ef0 12c .cfa: sp 0 +
STACK CFI 26ef4 .cfa: sp 80 +
STACK CFI 26f08 .cfa: x29 80 + x19: .cfa -8 + ^ x20: .cfa -16 + ^ x21: .cfa -24 + ^ x22: .cfa -32 + ^ x23: .cfa -40 + ^ x24: .cfa -48 + ^ x25: .cfa -56 + ^ x26: .cfa -64 + ^ .ra: .cfa -72 + ^ x29: .cfa -80 + ^
STACK CFI 26fd0 .cfa: sp 80 +
STACK CFI 26fe4 .cfa: sp 0 +
STACK CFI 26fe8 .cfa: x29 80 +
STACK CFI INIT 270c0 1a4 .cfa: sp 0 +
STACK CFI 270c4 .cfa: sp 112 +
STACK CFI 270dc .cfa: x29 80 + x19: .cfa -8 + ^ x20: .cfa -16 + ^ x21: .cfa -24 + ^ x22: .cfa -32 + ^ x23: .cfa -40 + ^ x24: .cfa -48 + ^ x25: .cfa -56 + ^ x26: .cfa -64 + ^ .ra: .cfa -72 + ^ x29: .cfa -80 + ^
STACK CFI 271cc .cfa: sp 112 +
STACK CFI 271e4 .cfa: sp 0 +
STACK CFI 271e8 .cfa: x29 80 +
STACK CFI INIT 27264 1dc .cfa: sp 0 +
STACK CFI 27268 .cfa: sp 128 +
STACK CFI 27284 .cfa: x29 96 + x19: .cfa -8 + ^ x20: .cfa -16 + ^ x21: .cfa -24 + ^ x22: .cfa -32 + ^ x23: .cfa -40 + ^ x24: .cfa -48 + ^ x25: .cfa -56 + ^ x26: .cfa -64 + ^ x27: .cfa -80 + ^ .ra: .cfa -88 + ^ x29: .cfa -96 + ^
STACK CFI 273f0 .cfa: sp 128 +
STACK CFI 2740c .cfa: sp 0 +
STACK CFI 27410 .cfa: x29 96 +
STACK CFI INIT 27440 178 .cfa: sp 0 +
STACK CFI 27444 .cfa: sp 80 +
STACK CFI 27458 .cfa: x29 80 + x19: .cfa -8 + ^ x20: .cfa -16 + ^ x21: .cfa -24 + ^ x22: .cfa -32 + ^ x23: .cfa -40 + ^ x24: .cfa -48 + ^ x25: .cfa -64 + ^ .ra: .cfa -72 + ^ x29: .cfa -80 + ^
STACK CFI 27584 .cfa: sp 80 +
STACK CFI 27598 .cfa: sp 0 +
STACK CFI 2759c .cfa: x29 80 +
STACK CFI INIT 27700 224 .cfa: sp 0 +
STACK CFI 27704 .cfa: sp 128 +
STACK CFI 2771c .cfa: x29 80 + x19: .cfa -8 + ^ x20: .cfa -16 + ^ x21: .cfa -24 + ^ x22: .cfa -32 + ^ x23: .cfa -40 + ^ x24: .cfa -48 + ^ x25: .cfa -64 + ^ .ra: .cfa -72 + ^ x29: .cfa -80 + ^
STACK CFI 278b8 .cfa: sp 128 +
STACK CFI 278d0 .cfa: sp 0 +
STACK CFI 278d4 .cfa: x29 80 +
STACK CFI INIT 28000 214 .cfa: sp 0 +
STACK CFI 28004 .cfa: sp 112 +
STACK CFI 2801c .cfa: x29 80 + x19: .cfa -8 + ^ x20: .cfa -16 + ^ x21: .cfa -24 + ^ x22: .cfa -32 + ^ x23: .cfa -40 + ^ x24: .cfa -48 + ^ x25: .cfa -56 + ^ x26: .cfa -64 + ^ .ra: .cfa -72 + ^ x29: .cfa -80 + ^
STACK CFI 281ac .cfa: sp 112 +
STACK CFI 281c4 .cfa: sp 0 +
STACK CFI 281c8 .cfa: x29 80 +
STACK CFI INIT 28214 a8 .cfa: sp 0 +
STACK CFI 28218 .cfa: sp 32 +
STACK CFI 28220 .cfa: x29 32 + x19: .cfa -16 + ^ .ra: .cfa -24 + ^ x29: .cfa -32 + ^
STACK CFI 28254 .cfa: sp 32 +
STACK CFI 2825c .cfa: sp 0 +
STACK CFI 28260 .cfa: x29 32 +
STACK CFI 28264 .cfa: sp 32 +
STACK CFI 2826c .cfa: sp 0 +
STACK CFI 28270 .cfa: x29 32 +
STACK CFI INIT 28be8 348 .cfa: sp 0 +
STACK CFI 28bec .cfa: sp 192 +
STACK CFI 28c00 .cfa: x29 64 + x19: .cfa -8 + ^ x20: .cfa -16 + ^ x21: .cfa -24 + ^ x22: .cfa -32 + ^ x23: .cfa -48 + ^ .ra: .cfa -56 + ^ x29: .cfa -64 + ^
STACK CFI 28e0c .cfa: sp 192 +
STACK CFI 28e20 .cfa: sp 0 +
STACK CFI 28e24 .cfa: x29 64 +
STACK CFI INIT 28f34 248 .cfa: sp 0 +
STACK CFI 28f38 .cfa: sp 128 +
STACK CFI 28f50 .cfa: x29 80 + x19: .cfa -8 + ^ x20: .cfa -16 + ^ x21: .cfa -24 + ^ x22: .cfa -32 + ^ x23: .cfa -40 + ^ x24: .cfa -48 + ^ x25: .cfa -56 + ^ x26: .cfa -64 + ^ .ra: .cfa -72 + ^ x29: .cfa -80 + ^
STACK CFI 29110 .cfa: sp 128 +
STACK CFI 29128 .cfa: sp 0 +
STACK CFI 2912c .cfa: x29 80 +
STACK CFI INIT 29224 134 .cfa: sp 0 +
STACK CFI 29228 .cfa: sp 80 +
STACK CFI 29234 .cfa: x29 32 + x19: .cfa -8 + ^ x20: .cfa -16 + ^ .ra: .cfa -24 + ^ x29: .cfa -32 + ^
STACK CFI 29264 .cfa: sp 80 +
STACK CFI 29270 .cfa: sp 0 +
STACK CFI 29274 .cfa: x29 32 +
STACK CFI INIT 29358 78 .cfa: sp 0 +
STACK CFI 2935c .cfa: sp 32 +
STACK CFI 29364 .cfa: x29 32 + x19: .cfa -8 + ^ x20: .cfa -16 + ^ .ra: .cfa -24 + ^ x29: .cfa -32 + ^
STACK CFI 29370 .cfa: sp 32 +
STACK CFI 29378 .cfa: sp 0 +
STACK CFI 2937c .cfa: x29 32 +
STACK CFI INIT 293d0 74 .cfa: sp 0 +
STACK CFI 293d4 .cfa: sp 48 +
STACK CFI 293e0 .cfa: x29 32 + x19: .cfa -8 + ^ x20: .cfa -16 + ^ .ra: .cfa -24 + ^ x29: .cfa -32 + ^
STACK CFI 2942c .cfa: sp 48 +
STACK CFI 29438 .cfa: sp 0 +
STACK CFI 2943c .cfa: x29 32 +
STACK CFI INIT 294a8 224 .cfa: sp 0 +
STACK CFI 294ac .cfa: sp 128 +
STACK CFI 294bc .cfa: x29 48 + x19: .cfa -8 + ^ x20: .cfa -16 + ^ x21: .cfa -32 + ^ .ra: .cfa -40 + ^ x29: .cfa -48 + ^
STACK CFI 2956c .cfa: sp 128 +
STACK CFI 2957c .cfa: sp 0 +
STACK CFI 29580 .cfa: x29 48 +
STACK CFI INIT 29768 300 .cfa: sp 0 +
STACK CFI 2976c .cfa: sp 144 +
STACK CFI 29780 .cfa: x29 64 + x19: .cfa -8 + ^ x20: .cfa -16 + ^ x21: .cfa -24 + ^ x22: .cfa -32 + ^ x23: .cfa -48 + ^ .ra: .cfa -56 + ^ x29: .cfa -64 + ^
STACK CFI 29914 .cfa: sp 144 +
STACK CFI 29928 .cfa: sp 0 +
STACK CFI 2992c .cfa: x29 64 +
STACK CFI INIT 29abc 264 .cfa: sp 0 +
STACK CFI 29ac0 .cfa: sp 128 +
STACK CFI 29ad0 .cfa: x29 48 + x19: .cfa -8 + ^ x20: .cfa -16 + ^ x21: .cfa -32 + ^ .ra: .cfa -40 + ^ x29: .cfa -48 + ^
STACK CFI 29bc8 .cfa: sp 128 +
STACK CFI 29bd8 .cfa: sp 0 +
STACK CFI 29bdc .cfa: x29 48 +
STACK CFI INIT 29dc8 1b8 .cfa: sp 0 +
STACK CFI 29dcc .cfa: sp 160 +
STACK CFI 29de8 .cfa: x29 72 + x19: .cfa -8 + ^ x20: .cfa -16 + ^ x21: .cfa -24 + ^ x22: .cfa -32 + ^ x23: .cfa -40 + ^ x24: .cfa -48 + ^ x25: .cfa -56 + ^ .ra: .cfa -64 + ^ x29: .cfa -72 + ^ v8: .cfa -80 + ^
STACK CFI 29e6c .cfa: sp 160 +
STACK CFI 29e88 .cfa: sp 0 +
STACK CFI 29e8c .cfa: x29 72 +
STACK CFI INIT 29f80 16c .cfa: sp 0 +
STACK CFI 29f84 .cfa: sp 64 +
STACK CFI 29f94 .cfa: x29 48 + x19: .cfa -8 + ^ x20: .cfa -16 + ^ x21: .cfa -24 + ^ x22: .cfa -32 + ^ .ra: .cfa -40 + ^ x29: .cfa -48 + ^
STACK CFI 2a08c .cfa: sp 64 +
STACK CFI 2a09c .cfa: sp 0 +
STACK CFI 2a0a0 .cfa: x29 48 +
STACK CFI INIT 2a2e4 178 .cfa: sp 0 +
STACK CFI 2a2e8 .cfa: sp 128 +
STACK CFI 2a2f8 .cfa: x29 48 + x19: .cfa -8 + ^ x20: .cfa -16 + ^ x21: .cfa -24 + ^ x22: .cfa -32 + ^ .ra: .cfa -40 + ^ x29: .cfa -48 + ^
STACK CFI 2a354 .cfa: sp 128 +
STACK CFI 2a364 .cfa: sp 0 +
STACK CFI 2a368 .cfa: x29 48 +
STACK CFI INIT 2a45c a4 .cfa: sp 0 +
STACK CFI 2a460 .cfa: sp 48 +
STACK CFI 2a46c .cfa: x29 48 + x19: .cfa -8 + ^ x20: .cfa -16 + ^ x21: .cfa -32 + ^ .ra: .cfa -40 + ^ x29: .cfa -48 + ^
STACK CFI 2a4d8 .cfa: sp 48 +
STACK CFI 2a4e4 .cfa: sp 0 +
STACK CFI 2a4e8 .cfa: x29 48 +
STACK CFI INIT 2a500 2e4 .cfa: sp 0 +
STACK CFI 2a504 .cfa: sp 144 +
STACK CFI 2a518 .cfa: x29 64 + x19: .cfa -8 + ^ x20: .cfa -16 + ^ x21: .cfa -24 + ^ x22: .cfa -32 + ^ x23: .cfa -48 + ^ .ra: .cfa -56 + ^ x29: .cfa -64 + ^
STACK CFI 2a690 .cfa: sp 144 +
STACK CFI 2a6a4 .cfa: sp 0 +
STACK CFI 2a6a8 .cfa: x29 64 +
STACK CFI INIT 2a7e4 2e4 .cfa: sp 0 +
STACK CFI 2a7e8 .cfa: sp 144 +
STACK CFI 2a7fc .cfa: x29 64 + x19: .cfa -8 + ^ x20: .cfa -16 + ^ x21: .cfa -24 + ^ x22: .cfa -32 + ^ x23: .cfa -48 + ^ .ra: .cfa -56 + ^ x29: .cfa -64 + ^
STACK CFI 2a974 .cfa: sp 144 +
STACK CFI 2a988 .cfa: sp 0 +
STACK CFI 2a98c .cfa: x29 64 +
STACK CFI INIT 2aac8 2a0 .cfa: sp 0 +
STACK CFI 2aacc .cfa: sp 144 +
STACK CFI 2aae0 .cfa: x29 64 + x19: .cfa -8 + ^ x20: .cfa -16 + ^ x21: .cfa -24 + ^ x22: .cfa -32 + ^ x23: .cfa -48 + ^ .ra: .cfa -56 + ^ x29: .cfa -64 + ^
STACK CFI 2ac14 .cfa: sp 144 +
STACK CFI 2ac28 .cfa: sp 0 +
STACK CFI 2ac2c .cfa: x29 64 +
STACK CFI INIT 2ad68 2f0 .cfa: sp 0 +
STACK CFI 2ad6c .cfa: sp 144 +
STACK CFI 2ad80 .cfa: x29 64 + x19: .cfa -8 + ^ x20: .cfa -16 + ^ x21: .cfa -24 + ^ x22: .cfa -32 + ^ x23: .cfa -48 + ^ .ra: .cfa -56 + ^ x29: .cfa -64 + ^
STACK CFI 2af04 .cfa: sp 144 +
STACK CFI 2af18 .cfa: sp 0 +
STACK CFI 2af1c .cfa: x29 64 +
STACK CFI INIT 2b058 4f4 .cfa: sp 0 +
STACK CFI 2b05c .cfa: sp 144 +
STACK CFI 2b070 .cfa: x29 64 + x19: .cfa -8 + ^ x20: .cfa -16 + ^ x21: .cfa -24 + ^ x22: .cfa -32 + ^ x23: .cfa -48 + ^ .ra: .cfa -56 + ^ x29: .cfa -64 + ^
STACK CFI 2b3a4 .cfa: sp 144 +
STACK CFI 2b3b8 .cfa: sp 0 +
STACK CFI 2b3bc .cfa: x29 64 +
STACK CFI INIT 2b54c 154 .cfa: sp 0 +
STACK CFI 2b550 .cfa: sp 384 +
STACK CFI 2b564 .cfa: x29 64 + x19: .cfa -8 + ^ x20: .cfa -16 + ^ x21: .cfa -24 + ^ x22: .cfa -32 + ^ x23: .cfa -40 + ^ x28: .cfa -48 + ^ .ra: .cfa -56 + ^ x29: .cfa -64 + ^
STACK CFI 2b648 .cfa: sp 384 +
STACK CFI 2b65c .cfa: sp 0 +
STACK CFI 2b660 .cfa: x29 64 +
STACK CFI INIT 2b6a0 168 .cfa: sp 0 +
STACK CFI 2b6a4 .cfa: sp 384 +
STACK CFI 2b6b8 .cfa: x29 64 + x19: .cfa -8 + ^ x20: .cfa -16 + ^ x21: .cfa -24 + ^ x22: .cfa -32 + ^ x23: .cfa -40 + ^ x28: .cfa -48 + ^ .ra: .cfa -56 + ^ x29: .cfa -64 + ^
STACK CFI 2b7b0 .cfa: sp 384 +
STACK CFI 2b7c4 .cfa: sp 0 +
STACK CFI 2b7c8 .cfa: x29 64 +
STACK CFI INIT 2b820 50c .cfa: sp 0 +
STACK CFI 2b824 .cfa: sp 64 +
STACK CFI 2b834 .cfa: x29 64 + x19: .cfa -8 + ^ x20: .cfa -16 + ^ x21: .cfa -24 + ^ x22: .cfa -32 + ^ x23: .cfa -40 + ^ x24: .cfa -48 + ^ .ra: .cfa -56 + ^ x29: .cfa -64 + ^
STACK CFI 2b954 .cfa: sp 64 +
STACK CFI 2b964 .cfa: sp 0 +
STACK CFI 2b968 .cfa: x29 64 +
STACK CFI 2bd00 .cfa: sp 64 +
STACK CFI 2bd10 .cfa: sp 0 +
STACK CFI 2bd14 .cfa: x29 64 +
STACK CFI INIT 2c05c 294 .cfa: sp 0 +
STACK CFI 2c060 .cfa: sp 240 +
STACK CFI 2c078 .cfa: x29 80 + x19: .cfa -8 + ^ x20: .cfa -16 + ^ x21: .cfa -24 + ^ x22: .cfa -32 + ^ x23: .cfa -40 + ^ x24: .cfa -48 + ^ x25: .cfa -64 + ^ .ra: .cfa -72 + ^ x29: .cfa -80 + ^
STACK CFI 2c218 .cfa: sp 240 +
STACK CFI 2c230 .cfa: sp 0 +
STACK CFI 2c234 .cfa: x29 80 +
STACK CFI INIT 2c36c 50 .cfa: sp 0 +
STACK CFI 2c370 .cfa: sp 32 +
STACK CFI 2c378 .cfa: x29 32 + x19: .cfa -8 + ^ x20: .cfa -16 + ^ .ra: .cfa -24 + ^ x29: .cfa -32 + ^
STACK CFI INIT 2c3e8 7c0 .cfa: sp 0 +
STACK CFI 2c3ec .cfa: sp 320 +
STACK CFI 2c408 .cfa: x29 96 + x19: .cfa -8 + ^ x20: .cfa -16 + ^ x21: .cfa -24 + ^ x22: .cfa -32 + ^ x23: .cfa -40 + ^ x24: .cfa -48 + ^ x25: .cfa -56 + ^ x26: .cfa -64 + ^ x27: .cfa -72 + ^ x28: .cfa -80 + ^ .ra: .cfa -88 + ^ x29: .cfa -96 + ^
STACK CFI 2ca58 .cfa: sp 320 +
STACK CFI 2ca74 .cfa: sp 0 +
STACK CFI 2ca78 .cfa: x29 96 +
STACK CFI INIT 30f28 c74 .cfa: sp 0 +
STACK CFI 30f2c .cfa: sp 96 +
STACK CFI 30f44 .cfa: x29 96 + x19: .cfa -8 + ^ x20: .cfa -16 + ^ x21: .cfa -24 + ^ x22: .cfa -32 + ^ x23: .cfa -40 + ^ x24: .cfa -48 + ^ x25: .cfa -56 + ^ x26: .cfa -64 + ^ x27: .cfa -72 + ^ x28: .cfa -80 + ^ .ra: .cfa -88 + ^ x29: .cfa -96 + ^
STACK CFI 319bc .cfa: sp 96 +
STACK CFI 319d4 .cfa: sp 0 +
STACK CFI 319d8 .cfa: x29 96 +
STACK CFI INIT 31cf0 26c .cfa: sp 0 +
STACK CFI 31cf4 .cfa: sp 128 +
STACK CFI 31d04 .cfa: x29 48 + x19: .cfa -8 + ^ x20: .cfa -16 + ^ x21: .cfa -24 + ^ x22: .cfa -32 + ^ .ra: .cfa -40 + ^ x29: .cfa -48 + ^
STACK CFI 31ea8 .cfa: sp 128 +
STACK CFI 31eb8 .cfa: sp 0 +
STACK CFI 31ebc .cfa: x29 48 +
STACK CFI INIT 324a8 3b8 .cfa: sp 0 +
STACK CFI 324ac .cfa: sp 96 +
STACK CFI 324c4 .cfa: x29 96 + x19: .cfa -8 + ^ x20: .cfa -16 + ^ x21: .cfa -24 + ^ x22: .cfa -32 + ^ x23: .cfa -40 + ^ x24: .cfa -48 + ^ x25: .cfa -56 + ^ x26: .cfa -64 + ^ x27: .cfa -72 + ^ x28: .cfa -80 + ^ .ra: .cfa -88 + ^ x29: .cfa -96 + ^
STACK CFI 32800 .cfa: sp 96 +
STACK CFI 32818 .cfa: sp 0 +
STACK CFI 3281c .cfa: x29 96 +
STACK CFI INIT 32900 cb4 .cfa: sp 0 +
STACK CFI 32904 .cfa: sp 96 +
STACK CFI 3291c .cfa: x29 96 + x19: .cfa -8 + ^ x20: .cfa -16 + ^ x21: .cfa -24 + ^ x22: .cfa -32 + ^ x23: .cfa -40 + ^ x24: .cfa -48 + ^ x25: .cfa -56 + ^ x26: .cfa -64 + ^ x27: .cfa -72 + ^ x28: .cfa -80 + ^ .ra: .cfa -88 + ^ x29: .cfa -96 + ^
STACK CFI 333c4 .cfa: sp 96 +
STACK CFI 333dc .cfa: sp 0 +
STACK CFI 333e0 .cfa: x29 96 +
STACK CFI INIT 3389c afc .cfa: sp 0 +
STACK CFI 338a0 .cfa: sp 96 +
STACK CFI 338b8 .cfa: x29 96 + x19: .cfa -8 + ^ x20: .cfa -16 + ^ x21: .cfa -24 + ^ x22: .cfa -32 + ^ x23: .cfa -40 + ^ x24: .cfa -48 + ^ x25: .cfa -56 + ^ x26: .cfa -64 + ^ x27: .cfa -72 + ^ x28: .cfa -80 + ^ .ra: .cfa -88 + ^ x29: .cfa -96 + ^
STACK CFI 3430c .cfa: sp 96 +
STACK CFI 34324 .cfa: sp 0 +
STACK CFI 34328 .cfa: x29 96 +
STACK CFI INIT 34574 1430 .cfa: sp 0 +
STACK CFI 34578 .cfa: sp 96 +
STACK CFI 34590 .cfa: x29 96 + x19: .cfa -8 + ^ x20: .cfa -16 + ^ x21: .cfa -24 + ^ x22: .cfa -32 + ^ x23: .cfa -40 + ^ x24: .cfa -48 + ^ x25: .cfa -56 + ^ x26: .cfa -64 + ^ x27: .cfa -72 + ^ x28: .cfa -80 + ^ .ra: .cfa -88 + ^ x29: .cfa -96 + ^
STACK CFI 3582c .cfa: sp 96 +
STACK CFI 35844 .cfa: sp 0 +
STACK CFI 35848 .cfa: x29 96 +
STACK CFI INIT 35ac8 75c .cfa: sp 0 +
STACK CFI 35acc .cfa: sp 368 +
STACK CFI 35ae8 .cfa: x29 96 + x19: .cfa -8 + ^ x20: .cfa -16 + ^ x21: .cfa -24 + ^ x22: .cfa -32 + ^ x23: .cfa -40 + ^ x24: .cfa -48 + ^ x25: .cfa -56 + ^ x26: .cfa -64 + ^ x27: .cfa -72 + ^ x28: .cfa -80 + ^ .ra: .cfa -88 + ^ x29: .cfa -96 + ^
STACK CFI 35b9c .cfa: sp 368 +
STACK CFI 35bb8 .cfa: sp 0 +
STACK CFI 35bbc .cfa: x29 96 +
STACK CFI 35c10 .cfa: sp 368 +
STACK CFI 35c2c .cfa: sp 0 +
STACK CFI 35c30 .cfa: x29 96 +
STACK CFI INIT 365e4 eb0 .cfa: sp 0 +
STACK CFI 365e8 .cfa: sp 96 +
STACK CFI 36600 .cfa: x29 96 + x19: .cfa -8 + ^ x20: .cfa -16 + ^ x21: .cfa -24 + ^ x22: .cfa -32 + ^ x23: .cfa -40 + ^ x24: .cfa -48 + ^ x25: .cfa -56 + ^ x26: .cfa -64 + ^ x27: .cfa -72 + ^ x28: .cfa -80 + ^ .ra: .cfa -88 + ^ x29: .cfa -96 + ^
STACK CFI 372a8 .cfa: sp 96 +
STACK CFI 372c0 .cfa: sp 0 +
STACK CFI 372c4 .cfa: x29 96 +
STACK CFI INIT 37808 1c9c .cfa: sp 0 +
STACK CFI 3780c .cfa: sp 112 +
STACK CFI 37828 .cfa: x29 96 + x19: .cfa -8 + ^ x20: .cfa -16 + ^ x21: .cfa -24 + ^ x22: .cfa -32 + ^ x23: .cfa -40 + ^ x24: .cfa -48 + ^ x25: .cfa -56 + ^ x26: .cfa -64 + ^ x27: .cfa -72 + ^ x28: .cfa -80 + ^ .ra: .cfa -88 + ^ x29: .cfa -96 + ^ v8: .cfa -112 + ^
STACK CFI 37c10 .cfa: sp 112 +
STACK CFI 37c2c .cfa: sp 0 +
STACK CFI 37c30 .cfa: x29 96 +
STACK CFI INIT 3bc68 9a0 .cfa: sp 0 +
STACK CFI 3bc6c .cfa: sp 144 +
STACK CFI 3bc84 .cfa: x29 80 + x19: .cfa -8 + ^ x20: .cfa -16 + ^ x21: .cfa -24 + ^ x22: .cfa -32 + ^ x23: .cfa -40 + ^ x24: .cfa -48 + ^ x25: .cfa -64 + ^ .ra: .cfa -72 + ^ x29: .cfa -80 + ^
STACK CFI 3c584 .cfa: sp 144 +
STACK CFI 3c59c .cfa: sp 0 +
STACK CFI 3c5a0 .cfa: x29 80 +
STACK CFI INIT 3db2c 57c .cfa: sp 0 +
STACK CFI 3db30 .cfa: sp 96 +
STACK CFI 3db48 .cfa: x29 96 + x19: .cfa -8 + ^ x20: .cfa -16 + ^ x21: .cfa -24 + ^ x22: .cfa -32 + ^ x23: .cfa -40 + ^ x24: .cfa -48 + ^ x25: .cfa -56 + ^ x26: .cfa -64 + ^ x27: .cfa -72 + ^ x28: .cfa -80 + ^ .ra: .cfa -88 + ^ x29: .cfa -96 + ^
STACK CFI 3e00c .cfa: sp 96 +
STACK CFI 3e024 .cfa: sp 0 +
STACK CFI 3e028 .cfa: x29 96 +
STACK CFI INIT 3e0a8 67c .cfa: sp 0 +
STACK CFI 3e0ac .cfa: sp 96 +
STACK CFI 3e0c4 .cfa: x29 96 + x19: .cfa -8 + ^ x20: .cfa -16 + ^ x21: .cfa -24 + ^ x22: .cfa -32 + ^ x23: .cfa -40 + ^ x24: .cfa -48 + ^ x25: .cfa -56 + ^ x26: .cfa -64 + ^ x27: .cfa -72 + ^ x28: .cfa -80 + ^ .ra: .cfa -88 + ^ x29: .cfa -96 + ^
STACK CFI 3e688 .cfa: sp 96 +
STACK CFI 3e6a0 .cfa: sp 0 +
STACK CFI 3e6a4 .cfa: x29 96 +
