MODULE Linux arm64 BF15D186236F4C0C62A581E962A0667E0 naxrin.garage_in_editor.android64.so
INFO CODE_ID 86D115BF6F230C4C62A581E962A0667E9D7C126F
INFO GENERATOR mozilla/dump_syms 2.3.4
PUBLIC 52b0 0 __on_dlclose
PUBLIC 52c0 0 __emutls_unregister_key
PUBLIC 52c8 0 __on_dlclose_late
PUBLIC 52d0 0 __atexit_handler_wrapper
PUBLIC 52e4 0 atexit
PUBLIC 5300 0 pthread_atfork
PUBLIC 5310 0 unwind_phase2
PUBLIC 5444 0 _Unwind_Resume
PUBLIC 54c8 0 unwind_phase2_forced
PUBLIC m 55bc 0 __unw_init_local
PUBLIC m 5664 0 __unw_get_reg
PUBLIC 56e0 0 __unw_step_stage2
PUBLIC m 56f4 0 __unw_get_proc_info
PUBLIC m 5734 0 __unw_resume
PUBLIC 575c 0 libunwind::CFI_Parser<libunwind::LocalAddressSpace>::decodeFDE(libunwind::LocalAddressSpace&, unsigned long, libunwind::CFI_Parser<libunwind::LocalAddressSpace>::FDE_Info*, libunwind::CFI_Parser<libunwind::LocalAddressSpace>::CIE_Info*, bool)
PUBLIC 58ec 0 libunwind::CFI_Parser<libunwind::LocalAddressSpace>::parseCIE(libunwind::LocalAddressSpace&, unsigned long, libunwind::CFI_Parser<libunwind::LocalAddressSpace>::CIE_Info*)
PUBLIC 5bb4 0 libunwind::AbstractUnwindCursor::~AbstractUnwindCursor()
PUBLIC 5bbc 0 libunwind::UnwindCursor<libunwind::LocalAddressSpace, libunwind::Registers_arm64>::~UnwindCursor()
PUBLIC 5bc4 0 libunwind::UnwindCursor<libunwind::LocalAddressSpace, libunwind::Registers_arm64>::validReg(int)
PUBLIC 5c08 0 libunwind::UnwindCursor<libunwind::LocalAddressSpace, libunwind::Registers_arm64>::getReg(int)
PUBLIC 5cf0 0 libunwind::UnwindCursor<libunwind::LocalAddressSpace, libunwind::Registers_arm64>::setReg(int, unsigned long)
PUBLIC 5dd8 0 libunwind::UnwindCursor<libunwind::LocalAddressSpace, libunwind::Registers_arm64>::validFloatReg(int)
PUBLIC 5dec 0 libunwind::UnwindCursor<libunwind::LocalAddressSpace, libunwind::Registers_arm64>::getFloatReg(int)
PUBLIC 5dfc 0 libunwind::UnwindCursor<libunwind::LocalAddressSpace, libunwind::Registers_arm64>::setFloatReg(int, double)
PUBLIC 5e0c 0 libunwind::UnwindCursor<libunwind::LocalAddressSpace, libunwind::Registers_arm64>::step(bool)
PUBLIC 5efc 0 libunwind::UnwindCursor<libunwind::LocalAddressSpace, libunwind::Registers_arm64>::getInfo(unw_proc_info_t*)
PUBLIC 5f40 0 libunwind::UnwindCursor<libunwind::LocalAddressSpace, libunwind::Registers_arm64>::jumpto()
PUBLIC 5f4c 0 libunwind::UnwindCursor<libunwind::LocalAddressSpace, libunwind::Registers_arm64>::isSignalFrame()
PUBLIC 5f58 0 libunwind::UnwindCursor<libunwind::LocalAddressSpace, libunwind::Registers_arm64>::getFunctionName(char*, unsigned long, unsigned long*)
PUBLIC 5f84 0 libunwind::UnwindCursor<libunwind::LocalAddressSpace, libunwind::Registers_arm64>::setInfoBasedOnIPRegister(bool)
PUBLIC 61c0 0 libunwind::UnwindCursor<libunwind::LocalAddressSpace, libunwind::Registers_arm64>::getRegisterName(int)
PUBLIC 61cc 0 libunwind::UnwindCursor<libunwind::LocalAddressSpace, libunwind::Registers_arm64>::stepThroughSigReturn(libunwind::Registers_arm64&)
PUBLIC 62ec 0 libunwind::DwarfInstructions<libunwind::LocalAddressSpace, libunwind::Registers_arm64>::stepWithDwarf(libunwind::LocalAddressSpace&, unsigned long, unsigned long, libunwind::Registers_arm64&, bool&, bool)
PUBLIC 6780 0 libunwind::CFI_Parser<libunwind::LocalAddressSpace>::parseFDEInstructions(libunwind::LocalAddressSpace&, libunwind::CFI_Parser<libunwind::LocalAddressSpace>::FDE_Info const&, libunwind::CFI_Parser<libunwind::LocalAddressSpace>::CIE_Info const&, unsigned long, int, libunwind::CFI_Parser<libunwind::LocalAddressSpace>::PrologInfo*)
PUBLIC 72f8 0 libunwind::DwarfInstructions<libunwind::LocalAddressSpace, libunwind::Registers_arm64>::getCFA(libunwind::LocalAddressSpace&, libunwind::CFI_Parser<libunwind::LocalAddressSpace>::PrologInfo const&, libunwind::Registers_arm64 const&)
PUBLIC 742c 0 libunwind::DwarfInstructions<libunwind::LocalAddressSpace, libunwind::Registers_arm64>::getSavedRegister(libunwind::LocalAddressSpace&, libunwind::Registers_arm64 const&, unsigned long, libunwind::CFI_Parser<libunwind::LocalAddressSpace>::RegisterLocation const&)
PUBLIC 763c 0 libunwind::LocalAddressSpace::getEncodedP(unsigned long&, unsigned long, unsigned char, unsigned long)
PUBLIC 79c8 0 libunwind::LocalAddressSpace::getULEB128(unsigned long&, unsigned long)
PUBLIC 7b90 0 libunwind::DwarfInstructions<libunwind::LocalAddressSpace, libunwind::Registers_arm64>::evaluateExpression(unsigned long, libunwind::LocalAddressSpace&, libunwind::Registers_arm64 const&, unsigned long)
PUBLIC 8554 0 libunwind::UnwindCursor<libunwind::LocalAddressSpace, libunwind::Registers_arm64>::getInfoFromDwarfSection(unsigned long, libunwind::UnwindInfoSections const&, unsigned int)
PUBLIC 8828 0 libunwind::findUnwindSectionsByPhdr(dl_phdr_info*, unsigned long, void*)
PUBLIC 8958 0 libunwind::EHHeaderParser<libunwind::LocalAddressSpace>::decodeEHHdr(libunwind::LocalAddressSpace&, unsigned long, unsigned long, libunwind::EHHeaderParser<libunwind::LocalAddressSpace>::EHHeaderInfo&)
PUBLIC 8a78 0 libunwind::CFI_Parser<libunwind::LocalAddressSpace>::findFDE(libunwind::LocalAddressSpace&, unsigned long, unsigned long, unsigned long, unsigned long, libunwind::CFI_Parser<libunwind::LocalAddressSpace>::FDE_Info*, libunwind::CFI_Parser<libunwind::LocalAddressSpace>::CIE_Info*)
PUBLIC 8c40 0 libunwind::EHHeaderParser<libunwind::LocalAddressSpace>::findFDE(libunwind::LocalAddressSpace&, unsigned long, unsigned long, unsigned int, libunwind::CFI_Parser<libunwind::LocalAddressSpace>::FDE_Info*, libunwind::CFI_Parser<libunwind::LocalAddressSpace>::CIE_Info*)
PUBLIC 8da8 0 libunwind::EHHeaderParser<libunwind::LocalAddressSpace>::getTableEntrySize(unsigned char)
PUBLIC 8ea4 0 libunwind::Registers_arm64::getRegisterName(int)
PUBLIC 8ed4 0 __libunwind_Registers_arm64_jumpto
PUBLIC m 8f64 0 __unw_getcontext
PUBLIC 9000 0 __aarch64_ldadd8_relax
PUBLIC 9030 0 init_have_lse_atomics
PUBLIC 90c8 0 __init_cpu_features_constructor
PUBLIC 9374 0 __init_cpu_features
PUBLIC 9400 0 __aarch64_ldadd8_acq_rel
PUBLIC 9430 0 __cxx_global_var_init
PUBLIC 987c 0 __cxx_global_var_init.1
PUBLIC 9cc8 0 geode::modifier::ModifyBase<geode::modifier::ModifyDerive<hook6<(anonymous namespace)::hook6Parent>, EditLevelLayer> >::~ModifyBase()
PUBLIC 9ce0 0 geode::modifier::ModifyBase<geode::modifier::ModifyDerive<hook44<(anonymous namespace)::hook44Parent>, LevelSelectLayer> >::~ModifyBase()
PUBLIC 9cf8 0 geode::modifier::ModifyDerive<hook6<(anonymous namespace)::hook6Parent>, EditLevelLayer>::apply()
PUBLIC a03c 0 std::__ndk1::shared_ptr<geode::Hook>::~shared_ptr[abi:ne190000]()
PUBLIC a08c 0 geode::impl::ResultData<geode::Hook*, std::__ndk1::basic_string<char, std::__ndk1::char_traits<char>, std::__ndk1::allocator<char> > >::~ResultData()
PUBLIC a100 0 std::__ndk1::vector<std::__ndk1::basic_string<char, std::__ndk1::char_traits<char>, std::__ndk1::allocator<char> >, std::__ndk1::allocator<std::__ndk1::basic_string<char, std::__ndk1::char_traits<char>, std::__ndk1::allocator<char> > > >::~vector[abi:ne190000]()
PUBLIC a17c 0 geode::modifier::ModifyBase<geode::modifier::ModifyDerive<hook6<(anonymous namespace)::hook6Parent>, EditLevelLayer> >::apply()
PUBLIC a180 0 __clang_call_terminate
PUBLIC a190 0 _ZN5geode15UnwrapExceptionC2IRPNS_4HookEQsr4implE18IsStringStreamableIT_EEENS_4impl5OkTagEOS5_
PUBLIC a2e4 0 std::__ndk1::__throw_bad_variant_access[abi:ne190000]()
PUBLIC a318 0 std::__ndk1::basic_stringstream<char, std::__ndk1::char_traits<char>, std::__ndk1::allocator<char> >::basic_stringstream[abi:ne190000]()
PUBLIC m a44c 0 std::__ndk1::basic_stringstream<char, std::__ndk1::char_traits<char>, std::__ndk1::allocator<char> >::~basic_stringstream()
PUBLIC a4cc 0 geode::UnwrapException::~UnwrapException()
PUBLIC a4f0 0 std::__ndk1::__put_character_sequence[abi:ne190000]<char, std::__ndk1::char_traits<char> >(std::__ndk1::basic_ostream<char, std::__ndk1::char_traits<char> >, std::__ndk1::basic_ostream const*, unsigned long)
PUBLIC a694 0 std::__ndk1::__pad_and_output[abi:ne190000]<char, std::__ndk1::char_traits<char> >(std::__ndk1::char_traits<char>, std::__ndk1::ostreambuf_iterator const*, std::__ndk1::ostreambuf_iterator const, std::__ndk1::ostreambuf_iterator const, std::__ndk1::ios_base&, std::__ndk1::ostreambuf_iterator)
PUBLIC a880 0 std::__ndk1::basic_string<char, std::__ndk1::char_traits<char>, std::__ndk1::allocator<char> >::__throw_length_error[abi:ne190000]() const
PUBLIC a894 0 std::__ndk1::__throw_length_error[abi:ne190000](char const*)
PUBLIC a8e4 0 std::length_error::length_error[abi:ne190000](char const*)
PUBLIC a914 0 std::__throw_bad_array_new_length([abi:ne190000], void)
PUBLIC a948 0 std::__ndk1::basic_stringbuf<char, std::__ndk1::char_traits<char>, std::__ndk1::allocator<char> >::str[abi:ne190000]() &&
PUBLIC aab8 0 std::__ndk1::basic_stringbuf<char, std::__ndk1::char_traits<char>, std::__ndk1::allocator<char> >::__init_buf_ptrs[abi:ne190000]()
PUBLIC ac00 0 std::__ndk1::basic_string<char, std::__ndk1::char_traits<char>, std::__ndk1::allocator<char> >::__erase_external_with_move(unsigned long, unsigned long)
PUBLIC ac88 0 std::__ndk1::vector<std::__ndk1::basic_string<char, std::__ndk1::char_traits<char>, std::__ndk1::allocator<char> >, std::__ndk1::allocator<std::__ndk1::basic_string<char, std::__ndk1::char_traits<char>, std::__ndk1::allocator<char> > > >::__push_back_slow_path<std::__ndk1::basic_string<char, std::__ndk1::char_traits<char>, std::__ndk1::allocator<char> > const&>(std::__ndk1::basic_string<char, std::__ndk1::char_traits<char>, std::__ndk1::allocator<char> > const&)
PUBLIC ae34 0 std::__ndk1::basic_string<char, std::__ndk1::char_traits<char>, std::__ndk1::allocator<char> >::__init_copy_ctor_external(char const*, unsigned long)
PUBLIC aec8 0 std::__ndk1::__split_buffer<std::__ndk1::basic_string<char, std::__ndk1::char_traits<char>, std::__ndk1::allocator<char> >, std::__ndk1::allocator<std::__ndk1::basic_string<char, std::__ndk1::char_traits<char>, std::__ndk1::allocator<char> > >&>::~__split_buffer()
PUBLIC af30 0 std::__ndk1::vector<std::__ndk1::basic_string<char, std::__ndk1::char_traits<char>, std::__ndk1::allocator<char> >, std::__ndk1::allocator<std::__ndk1::basic_string<char, std::__ndk1::char_traits<char>, std::__ndk1::allocator<char> > > >::__throw_length_error[abi:ne190000]() const
PUBLIC af44 0 std::__ndk1::__variant_detail::__visitation::__base::__dispatcher<(unsigned long)0>::__dispatch[abi:ne190000]<std::__ndk1::__variant_detail::__dtor<std::__ndk1::__variant_detail::__traits<geode::Hook*, std::__ndk1::basic_string<char, std::__ndk1::char_traits<char>, std::__ndk1::allocator<char> > >, (std::__ndk1::__variant_detail::_Trait)1>::__destroy[abi:ne190000]()::{lambda(auto:1&)#1}, std::__ndk1::__variant_detail::__base<(std::__ndk1::__variant_detail::__traits<geode::Hook*, std::__ndk1::basic_string<char, std::__ndk1::char_traits<char>, std::__ndk1::allocator<char> > >)1, geode::Hook, std::__ndk1::allocator<char> >&>(std::__ndk1::__variant_detail::__dtor<std::__ndk1::__variant_detail::__traits<geode::Hook*, std::__ndk1::basic_string<char, std::__ndk1::char_traits<char>, std::__ndk1::allocator<char> > >, (std::__ndk1::__variant_detail::_Trait)1>, std::__ndk1::__variant_detail::__base<(std::__ndk1::__variant_detail::__traits<geode::Hook*, std::__ndk1::basic_string<char, std::__ndk1::char_traits<char>, std::__ndk1::allocator<char> > >)1, geode::Hook, std::__ndk1::allocator<char> >&)
PUBLIC af48 0 std::__ndk1::__variant_detail::__visitation::__base::__dispatcher<(unsigned long)1>::__dispatch[abi:ne190000]<std::__ndk1::__variant_detail::__dtor<std::__ndk1::__variant_detail::__traits<geode::Hook*, std::__ndk1::basic_string<char, std::__ndk1::char_traits<char>, std::__ndk1::allocator<char> > >, (std::__ndk1::__variant_detail::_Trait)1>::__destroy[abi:ne190000]()::{lambda(auto:1&)#1}, std::__ndk1::__variant_detail::__base<(std::__ndk1::__variant_detail::__traits<geode::Hook*, std::__ndk1::basic_string<char, std::__ndk1::char_traits<char>, std::__ndk1::allocator<char> > >)1, geode::Hook, std::__ndk1::allocator<char> >&>(std::__ndk1::__variant_detail::__dtor<std::__ndk1::__variant_detail::__traits<geode::Hook*, std::__ndk1::basic_string<char, std::__ndk1::char_traits<char>, std::__ndk1::allocator<char> > >, (std::__ndk1::__variant_detail::_Trait)1>, std::__ndk1::__variant_detail::__base<(std::__ndk1::__variant_detail::__traits<geode::Hook*, std::__ndk1::basic_string<char, std::__ndk1::char_traits<char>, std::__ndk1::allocator<char> > >)1, geode::Hook, std::__ndk1::allocator<char> >&)
PUBLIC af5c 0 std::__ndk1::__tree<std::__ndk1::__value_type<std::__ndk1::basic_string<char, std::__ndk1::char_traits<char>, std::__ndk1::allocator<char> >, std::__ndk1::shared_ptr<geode::Hook> >, std::__ndk1::__map_value_compare<std::__ndk1::basic_string<char, std::__ndk1::char_traits<char>, std::__ndk1::allocator<char> >, std::__ndk1::__value_type<std::__ndk1::basic_string<char, std::__ndk1::char_traits<char>, std::__ndk1::allocator<char> >, std::__ndk1::shared_ptr<geode::Hook> >, std::__ndk1::less<std::__ndk1::basic_string<char, std::__ndk1::char_traits<char>, std::__ndk1::allocator<char> > >, true>, std::__ndk1::allocator<std::__ndk1::__value_type<std::__ndk1::basic_string<char, std::__ndk1::char_traits<char>, std::__ndk1::allocator<char> >, std::__ndk1::shared_ptr<geode::Hook> > > >::find<std::__ndk1::basic_string<char, std::__ndk1::char_traits<char>, std::__ndk1::allocator<char> > >(std::__ndk1::basic_string<char, std::__ndk1::char_traits<char>, std::__ndk1::allocator<char> > const&)
PUBLIC b084 0 std::__ndk1::__tree<std::__ndk1::__value_type<std::__ndk1::basic_string<char, std::__ndk1::char_traits<char>, std::__ndk1::allocator<char> >, std::__ndk1::shared_ptr<geode::Hook> >, std::__ndk1::__map_value_compare<std::__ndk1::basic_string<char, std::__ndk1::char_traits<char>, std::__ndk1::allocator<char> >, std::__ndk1::__value_type<std::__ndk1::basic_string<char, std::__ndk1::char_traits<char>, std::__ndk1::allocator<char> >, std::__ndk1::shared_ptr<geode::Hook> >, std::__ndk1::less<std::__ndk1::basic_string<char, std::__ndk1::char_traits<char>, std::__ndk1::allocator<char> > >, true>, std::__ndk1::allocator<std::__ndk1::__value_type<std::__ndk1::basic_string<char, std::__ndk1::char_traits<char>, std::__ndk1::allocator<char> >, std::__ndk1::shared_ptr<geode::Hook> > > >::erase(std::__ndk1::__tree_const_iterator<std::__ndk1::__value_type<std::__ndk1::basic_string<char, std::__ndk1::char_traits<char>, std::__ndk1::allocator<char> >, std::__ndk1::shared_ptr<geode::Hook> >, std::__ndk1::__tree_node<std::__ndk1::__value_type<std::__ndk1::basic_string<char, std::__ndk1::char_traits<char>, std::__ndk1::allocator<char> >, std::__ndk1::shared_ptr<geode::Hook> >, void*>*, long>)
PUBLIC b528 0 std::__ndk1::__tree<std::__ndk1::__value_type<std::__ndk1::basic_string<char, std::__ndk1::char_traits<char>, std::__ndk1::allocator<char> >, std::__ndk1::shared_ptr<geode::Hook> >, std::__ndk1::__map_value_compare<std::__ndk1::basic_string<char, std::__ndk1::char_traits<char>, std::__ndk1::allocator<char> >, std::__ndk1::__value_type<std::__ndk1::basic_string<char, std::__ndk1::char_traits<char>, std::__ndk1::allocator<char> >, std::__ndk1::shared_ptr<geode::Hook> >, std::__ndk1::less<std::__ndk1::basic_string<char, std::__ndk1::char_traits<char>, std::__ndk1::allocator<char> > >, true>, std::__ndk1::allocator<std::__ndk1::__value_type<std::__ndk1::basic_string<char, std::__ndk1::char_traits<char>, std::__ndk1::allocator<char> >, std::__ndk1::shared_ptr<geode::Hook> > > >::destroy(std::__ndk1::__tree_node<std::__ndk1::__value_type<std::__ndk1::basic_string<char, std::__ndk1::char_traits<char>, std::__ndk1::allocator<char> >, std::__ndk1::shared_ptr<geode::Hook> >, void*>*)
PUBLIC b5ac 0 geode::modifier::AsStaticFunction_init<hook6<(anonymous namespace)::hook6Parent>, bool (hook6<(anonymous namespace)::hook6Parent>::*)(GJGameLevel*)>::Impl<bool (hook6<(anonymous namespace)::hook6Parent>::*)(GJGameLevel*)>::function(hook6<(anonymous namespace)::hook6Parent>*, GJGameLevel*)
PUBLIC b7f0 0 std::__ndk1::shared_ptr<tulip::hook::CallingConvention>::~shared_ptr[abi:ne190000]()
PUBLIC b840 0 tulip::hook::HandlerMetadata::~HandlerMetadata()
PUBLIC b8a4 0 geode::Mod::getSettingValue<double>(std::__ndk1::basic_string_view<char, std::__ndk1::char_traits<char> >) const
PUBLIC b9dc 0 geode::Mod::getSettingValue<bool>(std::__ndk1::basic_string_view<char, std::__ndk1::char_traits<char> >) const
PUBLIC bb04 0 geode::cast::traverseTypeinfoFor(void*, geode::cast::ClassTypeinfoType const*, char const*)
PUBLIC bbfc 0 std::__ndk1::__tree<std::__ndk1::__value_type<std::__ndk1::basic_string<char, std::__ndk1::char_traits<char>, std::__ndk1::allocator<char> >, std::__ndk1::shared_ptr<geode::Hook> >, std::__ndk1::__map_value_compare<std::__ndk1::basic_string<char, std::__ndk1::char_traits<char>, std::__ndk1::allocator<char> >, std::__ndk1::__value_type<std::__ndk1::basic_string<char, std::__ndk1::char_traits<char>, std::__ndk1::allocator<char> >, std::__ndk1::shared_ptr<geode::Hook> >, std::__ndk1::less<std::__ndk1::basic_string<char, std::__ndk1::char_traits<char>, std::__ndk1::allocator<char> > >, true>, std::__ndk1::allocator<std::__ndk1::__value_type<std::__ndk1::basic_string<char, std::__ndk1::char_traits<char>, std::__ndk1::allocator<char> >, std::__ndk1::shared_ptr<geode::Hook> > > >::__emplace_unique_key_args<std::__ndk1::basic_string<char, std::__ndk1::char_traits<char>, std::__ndk1::allocator<char> >, std::__ndk1::piecewise_construct_t const&, std::__ndk1::tuple<std::__ndk1::basic_string<char, std::__ndk1::char_traits<char>, std::__ndk1::allocator<char> >&&>, std::__ndk1::tuple<> >(std::__ndk1::basic_string<char, std::__ndk1::char_traits<char>, std::__ndk1::allocator<char> > const&, std::__ndk1::piecewise_construct_t const&, std::__ndk1::tuple<std::__ndk1::basic_string<char, std::__ndk1::char_traits<char>, std::__ndk1::allocator<char> >&&>, std::__ndk1::tuple<>)
PUBLIC bd64 0 std::__ndk1::__tree_balance_after_insert[abi:ne190000]<std::__ndk1::__tree_node_base<void*>*>(std::__ndk1::__tree_node_base<void*>*, std::__ndk1::__tree_node_base<void*>*)
PUBLIC bf0c 0 geode::modifier::ModifyDerive<hook44<(anonymous namespace)::hook44Parent>, LevelSelectLayer>::apply()
PUBLIC c244 0 geode::modifier::ModifyBase<geode::modifier::ModifyDerive<hook44<(anonymous namespace)::hook44Parent>, LevelSelectLayer> >::apply()
PUBLIC c248 0 geode::modifier::AsStaticFunction_init<hook44<(anonymous namespace)::hook44Parent>, bool (hook44<(anonymous namespace)::hook44Parent>::*)(int)>::Impl<bool (hook44<(anonymous namespace)::hook44Parent>::*)(int)>::function(hook44<(anonymous namespace)::hook44Parent>*, int)
PUBLIC c444 0 geode::getMod()
PUBLIC m c480 0 geodeImplicitEntry
PUBLIC c4bc 0 CCMenuItemSpriteExtra::create(cocos2d::CCNode*, cocos2d::CCObject*, void (cocos2d::CCObject::*)(cocos2d::CCObject*))
PUBLIC c4d0 0 <.plt ELF section in naxrin.garage_in_editor.android64.so>
STACK CFI INIT 52b0 10 .cfa: sp 0 +
STACK CFI INIT 52c0 8 .cfa: sp 0 +
STACK CFI INIT 52c8 8 .cfa: sp 0 +
STACK CFI INIT 52d0 14 .cfa: sp 0 +
STACK CFI INIT 52e4 1c .cfa: sp 0 +
STACK CFI INIT 5300 10 .cfa: sp 0 +
STACK CFI INIT 5310 134 .cfa: sp 0 +
STACK CFI INIT 5444 84 .cfa: sp 0 +
STACK CFI INIT 54c8 f4 .cfa: sp 0 +
STACK CFI INIT 55bc a8 .cfa: sp 0 +
STACK CFI INIT 5664 7c .cfa: sp 0 +
STACK CFI INIT 56e0 14 .cfa: sp 0 +
STACK CFI INIT 56f4 40 .cfa: sp 0 +
STACK CFI INIT 5734 28 .cfa: sp 0 +
STACK CFI INIT 575c 190 .cfa: sp 0 +
STACK CFI INIT 58ec 2c8 .cfa: sp 0 +
STACK CFI INIT 5bb4 8 .cfa: sp 0 +
STACK CFI INIT 5bbc 8 .cfa: sp 0 +
STACK CFI INIT 5bc4 44 .cfa: sp 0 +
STACK CFI INIT 5c08 e8 .cfa: sp 0 +
STACK CFI INIT 5cf0 e8 .cfa: sp 0 +
STACK CFI INIT 5dd8 14 .cfa: sp 0 +
STACK CFI INIT 5dec 10 .cfa: sp 0 +
STACK CFI INIT 5dfc 10 .cfa: sp 0 +
STACK CFI INIT 5e0c f0 .cfa: sp 0 +
STACK CFI INIT 5efc 44 .cfa: sp 0 +
STACK CFI INIT 5f40 c .cfa: sp 0 +
STACK CFI INIT 5f4c c .cfa: sp 0 +
STACK CFI INIT 5f58 2c .cfa: sp 0 +
STACK CFI INIT 5f84 23c .cfa: sp 0 +
STACK CFI INIT 61c0 c .cfa: sp 0 +
STACK CFI INIT 61cc 120 .cfa: sp 0 +
STACK CFI INIT 62ec 494 .cfa: sp 0 +
STACK CFI INIT 6780 b78 .cfa: sp 0 +
STACK CFI INIT 72f8 134 .cfa: sp 0 +
STACK CFI INIT 742c 210 .cfa: sp 0 +
STACK CFI INIT 763c 38c .cfa: sp 0 +
STACK CFI INIT 79c8 1c8 .cfa: sp 0 +
STACK CFI INIT 7b90 9c4 .cfa: sp 0 +
STACK CFI INIT 8554 2d4 .cfa: sp 0 +
STACK CFI INIT 8828 130 .cfa: sp 0 +
STACK CFI INIT 8958 120 .cfa: sp 0 +
STACK CFI INIT 8a78 1c8 .cfa: sp 0 +
STACK CFI INIT 8c40 168 .cfa: sp 0 +
STACK CFI INIT 8da8 fc .cfa: sp 0 +
STACK CFI INIT 8ea4 30 .cfa: sp 0 +
STACK CFI INIT 9000 30 .cfa: sp 0 +
STACK CFI INIT 9030 98 .cfa: sp 0 +
STACK CFI INIT 90c8 2ac .cfa: sp 0 +
STACK CFI INIT 9374 8c .cfa: sp 0 +
STACK CFI INIT 9400 30 .cfa: sp 0 +
STACK CFI INIT 9cc8 18 .cfa: sp 0 +
STACK CFI INIT 9ce0 18 .cfa: sp 0 +
STACK CFI INIT a03c 50 .cfa: sp 0 +
STACK CFI a040 .cfa: sp 32 +
STACK CFI a048 .cfa: x29 32 + x19: .cfa -16 + ^ .ra: .cfa -24 + ^ x29: .cfa -32 + ^
STACK CFI a060 .cfa: sp 32 +
STACK CFI a068 .cfa: sp 0 +
STACK CFI a06c .cfa: x29 32 +
STACK CFI a080 .cfa: sp 32 +
STACK CFI a088 .cfa: sp 0 +
STACK CFI INIT a100 7c .cfa: sp 0 +
STACK CFI a104 .cfa: sp 48 +
STACK CFI a110 .cfa: x29 48 + x19: .cfa -8 + ^ x20: .cfa -16 + ^ x21: .cfa -32 + ^ .ra: .cfa -40 + ^ x29: .cfa -48 + ^
STACK CFI a15c .cfa: sp 48 +
STACK CFI a168 .cfa: sp 0 +
STACK CFI a16c .cfa: sp 48 +
STACK CFI a178 .cfa: sp 0 +
STACK CFI INIT a17c 4 .cfa: sp 0 +
STACK CFI INIT a180 10 .cfa: sp 0 +
STACK CFI a184 .cfa: sp 16 +
STACK CFI a188 .cfa: x29 16 + .ra: .cfa -8 + ^ x29: .cfa -16 + ^
STACK CFI INIT a2e4 34 .cfa: sp 0 +
STACK CFI a2e8 .cfa: sp 16 +
STACK CFI a2ec .cfa: x29 16 + .ra: .cfa -8 + ^ x29: .cfa -16 + ^
STACK CFI INIT a44c 80 .cfa: sp 0 +
STACK CFI a450 .cfa: sp 48 +
STACK CFI a45c .cfa: x29 48 + x19: .cfa -8 + ^ x20: .cfa -16 + ^ x21: .cfa -32 + ^ .ra: .cfa -40 + ^ x29: .cfa -48 + ^
STACK CFI a4bc .cfa: sp 48 +
STACK CFI a4c8 .cfa: sp 0 +
STACK CFI INIT a4cc 24 .cfa: sp 0 +
STACK CFI a4d0 .cfa: sp 32 +
STACK CFI a4d8 .cfa: x29 32 + x19: .cfa -16 + ^ .ra: .cfa -24 + ^ x29: .cfa -32 + ^
STACK CFI a4e4 .cfa: sp 32 +
STACK CFI a4ec .cfa: sp 0 +
STACK CFI INIT a880 14 .cfa: sp 0 +
STACK CFI a884 .cfa: sp 16 +
STACK CFI a888 .cfa: x29 16 + .ra: .cfa -8 + ^ x29: .cfa -16 + ^
STACK CFI INIT a8e4 30 .cfa: sp 0 +
STACK CFI a8e8 .cfa: sp 32 +
STACK CFI a8f0 .cfa: x29 32 + x19: .cfa -16 + ^ .ra: .cfa -24 + ^ x29: .cfa -32 + ^
STACK CFI a908 .cfa: sp 32 +
STACK CFI a910 .cfa: sp 0 +
STACK CFI INIT a914 34 .cfa: sp 0 +
STACK CFI a918 .cfa: sp 32 +
STACK CFI a920 .cfa: x29 32 + x19: .cfa -16 + ^ .ra: .cfa -24 + ^ x29: .cfa -32 + ^
STACK CFI INIT aab8 148 .cfa: sp 0 +
STACK CFI aabc .cfa: sp 48 +
STACK CFI aac8 .cfa: x29 48 + x19: .cfa -8 + ^ x20: .cfa -16 + ^ x21: .cfa -32 + ^ .ra: .cfa -40 + ^ x29: .cfa -48 + ^
STACK CFI abf0 .cfa: sp 48 +
STACK CFI abfc .cfa: sp 0 +
STACK CFI INIT ac00 88 .cfa: sp 0 +
STACK CFI ac08 .cfa: sp 48 +
STACK CFI ac14 .cfa: x29 48 + x19: .cfa -8 + ^ x20: .cfa -16 + ^ x21: .cfa -24 + ^ x22: .cfa -32 + ^ .ra: .cfa -40 + ^ x29: .cfa -48 + ^
STACK CFI ac78 .cfa: sp 48 +
STACK CFI ac84 .cfa: sp 0 +
STACK CFI INIT ae34 94 .cfa: sp 0 +
STACK CFI ae38 .cfa: sp 48 +
STACK CFI ae44 .cfa: x29 48 + x19: .cfa -8 + ^ x20: .cfa -16 + ^ x21: .cfa -24 + ^ x22: .cfa -32 + ^ .ra: .cfa -40 + ^ x29: .cfa -48 + ^
STACK CFI ae5c .cfa: sp 48 +
STACK CFI ae68 .cfa: sp 0 +
STACK CFI ae6c .cfa: x29 48 +
STACK CFI aeb0 .cfa: sp 48 +
STACK CFI aebc .cfa: sp 0 +
STACK CFI aec0 .cfa: x29 48 +
STACK CFI INIT aec8 68 .cfa: sp 0 +
STACK CFI aecc .cfa: sp 32 +
STACK CFI aed4 .cfa: x29 32 + x19: .cfa -8 + ^ x20: .cfa -16 + ^ .ra: .cfa -24 + ^ x29: .cfa -32 + ^
STACK CFI aeec .cfa: sp 32 +
STACK CFI aef4 .cfa: sp 0 +
STACK CFI aef8 .cfa: x29 32 +
STACK CFI af24 .cfa: sp 32 +
STACK CFI af2c .cfa: sp 0 +
STACK CFI INIT af30 14 .cfa: sp 0 +
STACK CFI af34 .cfa: sp 16 +
STACK CFI af38 .cfa: x29 16 + .ra: .cfa -8 + ^ x29: .cfa -16 + ^
STACK CFI INIT af44 4 .cfa: sp 0 +
STACK CFI INIT af48 14 .cfa: sp 0 +
STACK CFI INIT af5c 128 .cfa: sp 0 +
STACK CFI af60 .cfa: sp 64 +
STACK CFI af70 .cfa: x29 64 + x19: .cfa -8 + ^ x20: .cfa -16 + ^ x21: .cfa -24 + ^ x22: .cfa -32 + ^ x23: .cfa -40 + ^ x24: .cfa -48 + ^ .ra: .cfa -56 + ^ x29: .cfa -64 + ^
STACK CFI b070 .cfa: sp 64 +
STACK CFI b080 .cfa: sp 0 +
STACK CFI INIT b084 4a4 .cfa: sp 0 +
STACK CFI b088 .cfa: sp 32 +
STACK CFI b090 .cfa: x29 32 + x19: .cfa -8 + ^ x20: .cfa -16 + ^ .ra: .cfa -24 + ^ x29: .cfa -32 + ^
STACK CFI b470 .cfa: sp 32 +
STACK CFI b478 .cfa: sp 0 +
STACK CFI b47c .cfa: x29 32 +
STACK CFI INIT b528 84 .cfa: sp 0 +
STACK CFI b530 .cfa: sp 32 +
STACK CFI b538 .cfa: x29 32 + x19: .cfa -8 + ^ x20: .cfa -16 + ^ .ra: .cfa -24 + ^ x29: .cfa -32 + ^
STACK CFI b578 .cfa: sp 32 +
STACK CFI b580 .cfa: sp 0 +
STACK CFI b588 .cfa: x29 32 +
STACK CFI INIT b7f0 50 .cfa: sp 0 +
STACK CFI b7f4 .cfa: sp 32 +
STACK CFI b7fc .cfa: x29 32 + x19: .cfa -16 + ^ .ra: .cfa -24 + ^ x29: .cfa -32 + ^
STACK CFI b814 .cfa: sp 32 +
STACK CFI b81c .cfa: sp 0 +
STACK CFI b820 .cfa: x29 32 +
STACK CFI b834 .cfa: sp 32 +
STACK CFI b83c .cfa: sp 0 +
STACK CFI INIT b840 64 .cfa: sp 0 +
STACK CFI b844 .cfa: sp 32 +
STACK CFI b84c .cfa: x29 32 + x19: .cfa -16 + ^ .ra: .cfa -24 + ^ x29: .cfa -32 + ^
STACK CFI b878 .cfa: sp 32 +
STACK CFI b880 .cfa: sp 0 +
STACK CFI b884 .cfa: x29 32 +
STACK CFI b898 .cfa: sp 32 +
STACK CFI b8a0 .cfa: sp 0 +
STACK CFI INIT b8a4 138 .cfa: sp 0 +
STACK CFI b8a8 .cfa: sp 96 +
STACK CFI b8bc .cfa: x29 48 + x19: .cfa -8 + ^ x20: .cfa -16 + ^ x21: .cfa -24 + ^ x22: .cfa -32 + ^ .ra: .cfa -40 + ^ x29: .cfa -48 + ^ v8: .cfa -64 + ^
STACK CFI b9c0 .cfa: sp 96 +
STACK CFI b9d4 .cfa: sp 0 +
STACK CFI b9d8 .cfa: x29 48 +
STACK CFI INIT b9dc 128 .cfa: sp 0 +
STACK CFI b9e0 .cfa: sp 80 +
STACK CFI b9f0 .cfa: x29 48 + x19: .cfa -8 + ^ x20: .cfa -16 + ^ x21: .cfa -24 + ^ x22: .cfa -32 + ^ .ra: .cfa -40 + ^ x29: .cfa -48 + ^
STACK CFI baec .cfa: sp 80 +
STACK CFI bafc .cfa: sp 0 +
STACK CFI bb00 .cfa: x29 48 +
STACK CFI INIT bb04 f8 .cfa: sp 0 +
STACK CFI bb08 .cfa: sp 64 +
STACK CFI bb18 .cfa: x29 64 + x19: .cfa -8 + ^ x20: .cfa -16 + ^ x21: .cfa -24 + ^ x22: .cfa -32 + ^ x23: .cfa -48 + ^ .ra: .cfa -56 + ^ x29: .cfa -64 + ^
STACK CFI bb74 .cfa: sp 64 +
STACK CFI bb84 .cfa: sp 0 +
STACK CFI bb88 .cfa: x29 64 +
STACK CFI bba4 .cfa: sp 64 +
STACK CFI bbb4 .cfa: sp 0 +
STACK CFI bbb8 .cfa: x29 64 +
STACK CFI bbe8 .cfa: sp 64 +
STACK CFI bbf8 .cfa: sp 0 +
STACK CFI INIT bbfc 168 .cfa: sp 0 +
STACK CFI bc00 .cfa: sp 80 +
STACK CFI bc14 .cfa: x29 80 + x19: .cfa -8 + ^ x20: .cfa -16 + ^ x21: .cfa -24 + ^ x22: .cfa -32 + ^ x23: .cfa -40 + ^ x24: .cfa -48 + ^ x25: .cfa -56 + ^ x26: .cfa -64 + ^ .ra: .cfa -72 + ^ x29: .cfa -80 + ^
STACK CFI bd4c .cfa: sp 80 +
STACK CFI bd60 .cfa: sp 0 +
STACK CFI INIT bd64 1a8 .cfa: sp 0 +
STACK CFI INIT c244 4 .cfa: sp 0 +
STACK CFI INIT c444 3c .cfa: sp 0 +
STACK CFI c448 .cfa: sp 32 +
STACK CFI c450 .cfa: x29 32 + x19: .cfa -16 + ^ .ra: .cfa -24 + ^ x29: .cfa -32 + ^
STACK CFI c45c .cfa: sp 32 +
STACK CFI c464 .cfa: sp 0 +
STACK CFI c468 .cfa: x29 32 +
STACK CFI c474 .cfa: sp 32 +
STACK CFI c47c .cfa: sp 0 +
STACK CFI INIT c480 3c .cfa: sp 0 +
STACK CFI c484 .cfa: sp 32 +
STACK CFI c48c .cfa: x29 32 + x19: .cfa -16 + ^ .ra: .cfa -24 + ^ x29: .cfa -32 + ^
STACK CFI c498 .cfa: sp 32 +
STACK CFI c4a0 .cfa: sp 0 +
STACK CFI c4a4 .cfa: x29 32 +
STACK CFI c4b0 .cfa: sp 32 +
STACK CFI c4b8 .cfa: sp 0 +
STACK CFI INIT c4bc 14 .cfa: sp 0 +
STACK CFI INIT 9430 44c .cfa: sp 0 +
STACK CFI 9434 .cfa: sp 224 +
STACK CFI 9450 .cfa: x29 96 + x19: .cfa -8 + ^ x20: .cfa -16 + ^ x21: .cfa -24 + ^ x22: .cfa -32 + ^ x23: .cfa -40 + ^ x24: .cfa -48 + ^ x25: .cfa -56 + ^ x26: .cfa -64 + ^ x27: .cfa -72 + ^ x28: .cfa -80 + ^ .ra: .cfa -88 + ^ x29: .cfa -96 + ^
STACK CFI 9764 .cfa: sp 224 +
STACK CFI 9780 .cfa: sp 0 +
STACK CFI 9784 .cfa: x29 96 +
STACK CFI INIT 987c 44c .cfa: sp 0 +
STACK CFI 9880 .cfa: sp 224 +
STACK CFI 989c .cfa: x29 96 + x19: .cfa -8 + ^ x20: .cfa -16 + ^ x21: .cfa -24 + ^ x22: .cfa -32 + ^ x23: .cfa -40 + ^ x24: .cfa -48 + ^ x25: .cfa -56 + ^ x26: .cfa -64 + ^ x27: .cfa -72 + ^ x28: .cfa -80 + ^ .ra: .cfa -88 + ^ x29: .cfa -96 + ^
STACK CFI 9bb0 .cfa: sp 224 +
STACK CFI 9bcc .cfa: sp 0 +
STACK CFI 9bd0 .cfa: x29 96 +
STACK CFI INIT 9cf8 344 .cfa: sp 0 +
STACK CFI 9cfc .cfa: sp 208 +
STACK CFI 9d10 .cfa: x29 64 + x19: .cfa -8 + ^ x20: .cfa -16 + ^ x21: .cfa -24 + ^ x22: .cfa -32 + ^ x23: .cfa -48 + ^ .ra: .cfa -56 + ^ x29: .cfa -64 + ^
STACK CFI 9f18 .cfa: sp 208 +
STACK CFI 9f2c .cfa: sp 0 +
STACK CFI 9f30 .cfa: x29 64 +
STACK CFI INIT a08c 74 .cfa: sp 0 +
STACK CFI a090 .cfa: sp 48 +
STACK CFI a09c .cfa: x29 32 + x19: .cfa -8 + ^ x20: .cfa -16 + ^ .ra: .cfa -24 + ^ x29: .cfa -32 + ^
STACK CFI a0e8 .cfa: sp 48 +
STACK CFI a0f4 .cfa: sp 0 +
STACK CFI a0f8 .cfa: x29 32 +
STACK CFI INIT a190 154 .cfa: sp 0 +
STACK CFI a194 .cfa: sp 384 +
STACK CFI a1a8 .cfa: x29 64 + x19: .cfa -8 + ^ x20: .cfa -16 + ^ x21: .cfa -24 + ^ x22: .cfa -32 + ^ x23: .cfa -40 + ^ x28: .cfa -48 + ^ .ra: .cfa -56 + ^ x29: .cfa -64 + ^
STACK CFI a28c .cfa: sp 384 +
STACK CFI a2a0 .cfa: sp 0 +
STACK CFI a2a4 .cfa: x29 64 +
STACK CFI INIT a318 134 .cfa: sp 0 +
STACK CFI a31c .cfa: sp 80 +
STACK CFI a330 .cfa: x29 80 + x19: .cfa -8 + ^ x20: .cfa -16 + ^ x21: .cfa -24 + ^ x22: .cfa -32 + ^ x23: .cfa -40 + ^ x24: .cfa -48 + ^ x25: .cfa -56 + ^ x26: .cfa -64 + ^ .ra: .cfa -72 + ^ x29: .cfa -80 + ^
STACK CFI a400 .cfa: sp 80 +
STACK CFI a414 .cfa: sp 0 +
STACK CFI a418 .cfa: x29 80 +
STACK CFI INIT a4f0 1a4 .cfa: sp 0 +
STACK CFI a4f4 .cfa: sp 112 +
STACK CFI a50c .cfa: x29 80 + x19: .cfa -8 + ^ x20: .cfa -16 + ^ x21: .cfa -24 + ^ x22: .cfa -32 + ^ x23: .cfa -40 + ^ x24: .cfa -48 + ^ x25: .cfa -56 + ^ x26: .cfa -64 + ^ .ra: .cfa -72 + ^ x29: .cfa -80 + ^
STACK CFI a5fc .cfa: sp 112 +
STACK CFI a614 .cfa: sp 0 +
STACK CFI a618 .cfa: x29 80 +
STACK CFI INIT a694 1ec .cfa: sp 0 +
STACK CFI a698 .cfa: sp 128 +
STACK CFI a6b4 .cfa: x29 96 + x19: .cfa -8 + ^ x20: .cfa -16 + ^ x21: .cfa -24 + ^ x22: .cfa -32 + ^ x23: .cfa -40 + ^ x24: .cfa -48 + ^ x25: .cfa -56 + ^ x26: .cfa -64 + ^ x27: .cfa -80 + ^ .ra: .cfa -88 + ^ x29: .cfa -96 + ^
STACK CFI a830 .cfa: sp 128 +
STACK CFI a84c .cfa: sp 0 +
STACK CFI a850 .cfa: x29 96 +
STACK CFI INIT a894 50 .cfa: sp 0 +
STACK CFI a898 .cfa: sp 32 +
STACK CFI a8a0 .cfa: x29 32 + x19: .cfa -8 + ^ x20: .cfa -16 + ^ .ra: .cfa -24 + ^ x29: .cfa -32 + ^
STACK CFI INIT a948 170 .cfa: sp 0 +
STACK CFI a94c .cfa: sp 48 +
STACK CFI a958 .cfa: x29 48 + x19: .cfa -8 + ^ x20: .cfa -16 + ^ x21: .cfa -32 + ^ .ra: .cfa -40 + ^ x29: .cfa -48 + ^
STACK CFI aa8c .cfa: sp 48 +
STACK CFI aa98 .cfa: sp 0 +
STACK CFI aa9c .cfa: x29 48 +
STACK CFI INIT ac88 1ac .cfa: sp 0 +
STACK CFI ac8c .cfa: sp 128 +
STACK CFI aca4 .cfa: x29 80 + x19: .cfa -8 + ^ x20: .cfa -16 + ^ x21: .cfa -24 + ^ x22: .cfa -32 + ^ x23: .cfa -40 + ^ x24: .cfa -48 + ^ x25: .cfa -64 + ^ .ra: .cfa -72 + ^ x29: .cfa -80 + ^
STACK CFI adc8 .cfa: sp 128 +
STACK CFI ade0 .cfa: sp 0 +
STACK CFI ade4 .cfa: x29 80 +
STACK CFI INIT b5ac 244 .cfa: sp 0 +
STACK CFI b5b0 .cfa: sp 128 +
STACK CFI b5c8 .cfa: x29 64 + x19: .cfa -8 + ^ x20: .cfa -16 + ^ x21: .cfa -24 + ^ x22: .cfa -32 + ^ x23: .cfa -40 + ^ x24: .cfa -48 + ^ .ra: .cfa -56 + ^ x29: .cfa -64 + ^ v8: .cfa -80 + ^
STACK CFI b780 .cfa: sp 128 +
STACK CFI b798 .cfa: sp 0 +
STACK CFI b79c .cfa: x29 64 +
STACK CFI INIT bf0c 338 .cfa: sp 0 +
STACK CFI bf10 .cfa: sp 192 +
STACK CFI bf24 .cfa: x29 64 + x19: .cfa -8 + ^ x20: .cfa -16 + ^ x21: .cfa -24 + ^ x22: .cfa -32 + ^ x23: .cfa -40 + ^ x24: .cfa -48 + ^ .ra: .cfa -56 + ^ x29: .cfa -64 + ^
STACK CFI c120 .cfa: sp 192 +
STACK CFI c134 .cfa: sp 0 +
STACK CFI c138 .cfa: x29 64 +
STACK CFI INIT c248 1fc .cfa: sp 0 +
STACK CFI c24c .cfa: sp 112 +
STACK CFI c264 .cfa: x29 56 + x19: .cfa -8 + ^ x20: .cfa -16 + ^ x21: .cfa -24 + ^ x22: .cfa -32 + ^ x23: .cfa -40 + ^ .ra: .cfa -48 + ^ x29: .cfa -56 + ^ v8: .cfa -64 + ^
STACK CFI c3f8 .cfa: sp 112 +
STACK CFI c410 .cfa: sp 0 +
STACK CFI c414 .cfa: x29 56 +
