MODULE Linux arm64 1609C52A96E0499E1295D57569354E050 hiimjasmine00.smart_bpm_trigger.android64.so
INFO CODE_ID 2AC50916E0969E491295D57569354E0530DAF86A
INFO GENERATOR mozilla/dump_syms 2.3.4
PUBLIC f0c0 0 __on_dlclose
PUBLIC f0d0 0 __emutls_unregister_key
PUBLIC f0d8 0 __on_dlclose_late
PUBLIC f0e0 0 __atexit_handler_wrapper
PUBLIC f0f4 0 atexit
PUBLIC f110 0 pthread_atfork
PUBLIC f120 0 __aarch64_ldadd8_acq_rel
PUBLIC f150 0 init_have_lse_atomics
PUBLIC f1e8 0 __init_cpu_features_constructor
PUBLIC f784 0 __init_cpu_features
PUBLIC f810 0 __aarch64_ldadd8_relax
PUBLIC f840 0 __cxx_global_var_init
PUBLIC 10050 0 geode::modifier::ModifyBase<geode::modifier::ModifyDerive<SBTDrawGridLayer, DrawGridLayer> >::~ModifyBase()
PUBLIC 1006c 0 geode::modifier::FieldIntermediate<SBTDrawGridLayer, DrawGridLayer>::self()
PUBLIC 10200 0 geode::modifier::FieldContainer::getField(unsigned long)
PUBLIC 104b8 0 geode::modifier::FieldContainer::setField(unsigned long, unsigned long, std::__ndk1::function<void (void*)>)
PUBLIC 105cc 0 geode::modifier::FieldIntermediate<SBTDrawGridLayer, DrawGridLayer>::fieldDestructor(void*)
PUBLIC 10620 0 std::__ndk1::vector<void*, std::__ndk1::allocator<void*> >::__throw_length_error[abi:ne180000]() const
PUBLIC 10634 0 __clang_call_terminate
PUBLIC 10644 0 std::__ndk1::__throw_length_error[abi:ne180000](char const*)
PUBLIC 10694 0 std::length_error::length_error[abi:ne180000](char const*)
PUBLIC 106c4 0 std::__throw_bad_array_new_length([abi:ne180000], void)
PUBLIC 106f8 0 std::__ndk1::vector<std::__ndk1::function<void (void*)>, std::__ndk1::allocator<std::__ndk1::function<void (void*)> > >::__push_back_slow_path<std::__ndk1::function<void (void*)> >(std::__ndk1::function<void (void*)>&&)
PUBLIC 10924 0 std::__ndk1::vector<std::__ndk1::function<void (void*)>, std::__ndk1::allocator<std::__ndk1::function<void (void*)> > >::__throw_length_error[abi:ne180000]() const
PUBLIC 10938 0 std::__ndk1::vector<void*, std::__ndk1::allocator<void*> >::__throw_out_of_range[abi:ne180000]() const
PUBLIC 1094c 0 std::__ndk1::__throw_out_of_range[abi:ne180000](char const*)
PUBLIC 1099c 0 std::out_of_range::out_of_range[abi:ne180000](char const*)
PUBLIC 109cc 0 std::__ndk1::vector<std::__ndk1::function<void (void*)>, std::__ndk1::allocator<std::__ndk1::function<void (void*)> > >::__throw_out_of_range[abi:ne180000]() const
PUBLIC 109e0 0 std::__ndk1::__function::__base<void (void*)>::~__base()
PUBLIC 109e4 0 std::__ndk1::__function::__func<void (*)(void*), std::__ndk1::allocator<void (*)(void*)>, void (void*)>::~__func()
PUBLIC 109e8 0 std::__ndk1::__function::__func<void (*)(void*), std::__ndk1::allocator<void (*)(void*)>, void (void*)>::__clone() const
PUBLIC 10a20 0 std::__ndk1::__function::__func<void (*)(void*), std::__ndk1::allocator<void (*)(void*)>, void (void*)>::__clone(std::__ndk1::__function::__base<void (void*)>*) const
PUBLIC 10a38 0 std::__ndk1::__function::__func<void (*)(void*), std::__ndk1::allocator<void (*)(void*)>, void (void*)>::destroy()
PUBLIC 10a3c 0 std::__ndk1::__function::__func<void (*)(void*), std::__ndk1::allocator<void (*)(void*)>, void (void*)>::destroy_deallocate()
PUBLIC 10a40 0 std::__ndk1::__function::__func<void (*)(void*), std::__ndk1::allocator<void (*)(void*)>, void (void*)>::operator()(void*&&)
PUBLIC 10a50 0 std::__ndk1::__function::__func<void (*)(void*), std::__ndk1::allocator<void (*)(void*)>, void (void*)>::target(std::type_info const&) const
PUBLIC 10a6c 0 std::__ndk1::__function::__func<void (*)(void*), std::__ndk1::allocator<void (*)(void*)>, void (void*)>::target_type() const
PUBLIC 10a78 0 std::__ndk1::vector<float, std::__ndk1::allocator<float> >::__throw_length_error[abi:ne180000]() const
PUBLIC 10a8c 0 geode::modifier::ModifyDerive<SBTDrawGridLayer, DrawGridLayer>::apply()
PUBLIC 10da8 0 std::__ndk1::shared_ptr<geode::Hook>::~shared_ptr[abi:ne180000]()
PUBLIC 10df8 0 geode::impl::ResultData<geode::Hook*, std::__ndk1::basic_string<char, std::__ndk1::char_traits<char>, std::__ndk1::allocator<char> > >::~ResultData()
PUBLIC 10e6c 0 std::__ndk1::vector<std::__ndk1::basic_string<char, std::__ndk1::char_traits<char>, std::__ndk1::allocator<char> >, std::__ndk1::allocator<std::__ndk1::basic_string<char, std::__ndk1::char_traits<char>, std::__ndk1::allocator<char> > > >::~vector[abi:ne180000]()
PUBLIC 10ee8 0 geode::modifier::ModifyBase<geode::modifier::ModifyDerive<SBTDrawGridLayer, DrawGridLayer> >::apply()
PUBLIC 10eec 0 std::__ndk1::basic_string<char, std::__ndk1::char_traits<char>, std::__ndk1::allocator<char> >::__throw_length_error[abi:ne180000]() const
PUBLIC 10f00 0 std::__ndk1::__tree<std::__ndk1::__value_type<std::__ndk1::basic_string<char, std::__ndk1::char_traits<char>, std::__ndk1::allocator<char> >, std::__ndk1::shared_ptr<geode::Hook> >, std::__ndk1::__map_value_compare<std::__ndk1::basic_string<char, std::__ndk1::char_traits<char>, std::__ndk1::allocator<char> >, std::__ndk1::__value_type<std::__ndk1::basic_string<char, std::__ndk1::char_traits<char>, std::__ndk1::allocator<char> >, std::__ndk1::shared_ptr<geode::Hook> >, std::__ndk1::less<std::__ndk1::basic_string<char, std::__ndk1::char_traits<char>, std::__ndk1::allocator<char> > >, true>, std::__ndk1::allocator<std::__ndk1::__value_type<std::__ndk1::basic_string<char, std::__ndk1::char_traits<char>, std::__ndk1::allocator<char> >, std::__ndk1::shared_ptr<geode::Hook> > > >::find<std::__ndk1::basic_string<char, std::__ndk1::char_traits<char>, std::__ndk1::allocator<char> > >(std::__ndk1::basic_string<char, std::__ndk1::char_traits<char>, std::__ndk1::allocator<char> > const&)
PUBLIC 11020 0 std::__ndk1::__tree<std::__ndk1::__value_type<std::__ndk1::basic_string<char, std::__ndk1::char_traits<char>, std::__ndk1::allocator<char> >, std::__ndk1::shared_ptr<geode::Hook> >, std::__ndk1::__map_value_compare<std::__ndk1::basic_string<char, std::__ndk1::char_traits<char>, std::__ndk1::allocator<char> >, std::__ndk1::__value_type<std::__ndk1::basic_string<char, std::__ndk1::char_traits<char>, std::__ndk1::allocator<char> >, std::__ndk1::shared_ptr<geode::Hook> >, std::__ndk1::less<std::__ndk1::basic_string<char, std::__ndk1::char_traits<char>, std::__ndk1::allocator<char> > >, true>, std::__ndk1::allocator<std::__ndk1::__value_type<std::__ndk1::basic_string<char, std::__ndk1::char_traits<char>, std::__ndk1::allocator<char> >, std::__ndk1::shared_ptr<geode::Hook> > > >::__emplace_unique_key_args<std::__ndk1::basic_string<char, std::__ndk1::char_traits<char>, std::__ndk1::allocator<char> >, std::__ndk1::piecewise_construct_t const&, std::__ndk1::tuple<std::__ndk1::basic_string<char, std::__ndk1::char_traits<char>, std::__ndk1::allocator<char> > const&>, std::__ndk1::tuple<> >(std::__ndk1::basic_string<char, std::__ndk1::char_traits<char>, std::__ndk1::allocator<char> > const&, std::__ndk1::piecewise_construct_t const&, std::__ndk1::tuple<std::__ndk1::basic_string<char, std::__ndk1::char_traits<char>, std::__ndk1::allocator<char> > const&>, std::__ndk1::tuple<>)
PUBLIC 11214 0 std::__ndk1::unique_ptr<std::__ndk1::__tree_node<std::__ndk1::__value_type<std::__ndk1::basic_string<char, std::__ndk1::char_traits<char>, std::__ndk1::allocator<char> >, std::__ndk1::shared_ptr<geode::Hook> >, void*>, std::__ndk1::__tree_node_destructor<std::__ndk1::allocator<std::__ndk1::__tree_node<std::__ndk1::__value_type<std::__ndk1::basic_string<char, std::__ndk1::char_traits<char>, std::__ndk1::allocator<char> >, std::__ndk1::shared_ptr<geode::Hook> >, void*> > > >::~unique_ptr[abi:ne180000]()
PUBLIC 11290 0 std::__ndk1::basic_string<char, std::__ndk1::char_traits<char>, std::__ndk1::allocator<char> >::__init_copy_ctor_external(char const*, unsigned long)
PUBLIC 11310 0 std::__ndk1::__tree_balance_after_insert[abi:ne180000]<std::__ndk1::__tree_node_base<void*>*>(std::__ndk1::__tree_node_base<void*>*, std::__ndk1::__tree_node_base<void*>*)
PUBLIC 114c0 0 _ZN5geode15UnwrapExceptionC2IRNSt6__ndk112basic_stringIcNS2_11char_traitsIcEENS2_9allocatorIcEEEEQsr4implE18IsStringStreamableIT_EEENS_4impl6ErrTagEOSA_
PUBLIC 11628 0 std::__ndk1::__throw_bad_variant_access[abi:ne180000]()
PUBLIC 1165c 0 std::__ndk1::basic_stringstream<char, std::__ndk1::char_traits<char>, std::__ndk1::allocator<char> >::basic_stringstream[abi:ne180000]()
PUBLIC m 11788 0 std::__ndk1::basic_stringstream<char, std::__ndk1::char_traits<char>, std::__ndk1::allocator<char> >::~basic_stringstream()
PUBLIC 11808 0 geode::UnwrapException::~UnwrapException()
PUBLIC 1182c 0 std::__ndk1::__put_character_sequence[abi:ne180000]<char, std::__ndk1::char_traits<char> >(std::__ndk1::basic_ostream<char, std::__ndk1::char_traits<char> >, std::__ndk1::basic_ostream const*, unsigned long)
PUBLIC 119d0 0 std::__ndk1::__pad_and_output[abi:ne180000]<char, std::__ndk1::char_traits<char> >(std::__ndk1::char_traits<char>, std::__ndk1::ostreambuf_iterator const*, std::__ndk1::ostreambuf_iterator const, std::__ndk1::ostreambuf_iterator const, std::__ndk1::ios_base&, std::__ndk1::ostreambuf_iterator)
PUBLIC 11bac 0 std::__ndk1::basic_stringbuf<char, std::__ndk1::char_traits<char>, std::__ndk1::allocator<char> >::str[abi:ne180000]() &&
PUBLIC 11d24 0 std::__ndk1::basic_stringbuf<char, std::__ndk1::char_traits<char>, std::__ndk1::allocator<char> >::__init_buf_ptrs[abi:ne180000]()
PUBLIC 11e6c 0 geode::EventListener<geode::SettingChangedFilterV3>::EventListener(std::__ndk1::function<void (std::__ndk1::shared_ptr<geode::SettingV3>)>, geode::SettingChangedFilterV3)
PUBLIC 11f60 0 geode::SettingChangedFilterV3::~SettingChangedFilterV3()
PUBLIC 11fb0 0 std::__ndk1::__function::__base<void (std::__ndk1::shared_ptr<geode::SettingV3>)>::~__base()
PUBLIC 11fb4 0 std::__ndk1::__function::__func<geode::listenForSettingChangesV3<bool, SBTDrawGridLayer::onModify(geode::modifier::ModifyBase<geode::modifier::ModifyDerive<SBTDrawGridLayer, DrawGridLayer> >&)::{lambda(bool)#1}>(std::__ndk1::basic_string_view<char, std::__ndk1::char_traits<char> >, SBTDrawGridLayer::onModify(geode::modifier::ModifyBase<geode::modifier::ModifyDerive<SBTDrawGridLayer, DrawGridLayer> >&)::{lambda(bool)#1}&&, geode::Mod*)::{lambda(std::__ndk1::shared_ptr<geode::SettingV3>)#1}, std::__ndk1::allocator<geode::listenForSettingChangesV3<bool, SBTDrawGridLayer::onModify(geode::modifier::ModifyBase<geode::modifier::ModifyDerive<SBTDrawGridLayer, DrawGridLayer> >&)::{lambda(bool)#1}>(std::__ndk1::basic_string_view<char, std::__ndk1::char_traits<char> >, SBTDrawGridLayer::onModify(geode::modifier::ModifyBase<geode::modifier::ModifyDerive<SBTDrawGridLayer, DrawGridLayer> >&)::{lambda(bool)#1}&&, geode::Mod*)::{lambda(std::__ndk1::shared_ptr<geode::SettingV3>)#1}>, void (std::__ndk1::shared_ptr<geode::SettingV3>)>::~__func()
PUBLIC 11fb8 0 std::__ndk1::__function::__func<geode::listenForSettingChangesV3<bool, SBTDrawGridLayer::onModify(geode::modifier::ModifyBase<geode::modifier::ModifyDerive<SBTDrawGridLayer, DrawGridLayer> >&)::{lambda(bool)#1}>(std::__ndk1::basic_string_view<char, std::__ndk1::char_traits<char> >, SBTDrawGridLayer::onModify(geode::modifier::ModifyBase<geode::modifier::ModifyDerive<SBTDrawGridLayer, DrawGridLayer> >&)::{lambda(bool)#1}&&, geode::Mod*)::{lambda(std::__ndk1::shared_ptr<geode::SettingV3>)#1}, std::__ndk1::allocator<geode::listenForSettingChangesV3<bool, SBTDrawGridLayer::onModify(geode::modifier::ModifyBase<geode::modifier::ModifyDerive<SBTDrawGridLayer, DrawGridLayer> >&)::{lambda(bool)#1}>(std::__ndk1::basic_string_view<char, std::__ndk1::char_traits<char> >, SBTDrawGridLayer::onModify(geode::modifier::ModifyBase<geode::modifier::ModifyDerive<SBTDrawGridLayer, DrawGridLayer> >&)::{lambda(bool)#1}&&, geode::Mod*)::{lambda(std::__ndk1::shared_ptr<geode::SettingV3>)#1}>, void (std::__ndk1::shared_ptr<geode::SettingV3>)>::__clone() const
PUBLIC 11fec 0 std::__ndk1::__function::__func<geode::listenForSettingChangesV3<bool, SBTDrawGridLayer::onModify(geode::modifier::ModifyBase<geode::modifier::ModifyDerive<SBTDrawGridLayer, DrawGridLayer> >&)::{lambda(bool)#1}>(std::__ndk1::basic_string_view<char, std::__ndk1::char_traits<char> >, SBTDrawGridLayer::onModify(geode::modifier::ModifyBase<geode::modifier::ModifyDerive<SBTDrawGridLayer, DrawGridLayer> >&)::{lambda(bool)#1}&&, geode::Mod*)::{lambda(std::__ndk1::shared_ptr<geode::SettingV3>)#1}, std::__ndk1::allocator<geode::listenForSettingChangesV3<bool, SBTDrawGridLayer::onModify(geode::modifier::ModifyBase<geode::modifier::ModifyDerive<SBTDrawGridLayer, DrawGridLayer> >&)::{lambda(bool)#1}>(std::__ndk1::basic_string_view<char, std::__ndk1::char_traits<char> >, SBTDrawGridLayer::onModify(geode::modifier::ModifyBase<geode::modifier::ModifyDerive<SBTDrawGridLayer, DrawGridLayer> >&)::{lambda(bool)#1}&&, geode::Mod*)::{lambda(std::__ndk1::shared_ptr<geode::SettingV3>)#1}>, void (std::__ndk1::shared_ptr<geode::SettingV3>)>::__clone(std::__ndk1::__function::__base<void (std::__ndk1::shared_ptr<geode::SettingV3>)>*) const
PUBLIC 12000 0 std::__ndk1::__function::__func<geode::listenForSettingChangesV3<bool, SBTDrawGridLayer::onModify(geode::modifier::ModifyBase<geode::modifier::ModifyDerive<SBTDrawGridLayer, DrawGridLayer> >&)::{lambda(bool)#1}>(std::__ndk1::basic_string_view<char, std::__ndk1::char_traits<char> >, SBTDrawGridLayer::onModify(geode::modifier::ModifyBase<geode::modifier::ModifyDerive<SBTDrawGridLayer, DrawGridLayer> >&)::{lambda(bool)#1}&&, geode::Mod*)::{lambda(std::__ndk1::shared_ptr<geode::SettingV3>)#1}, std::__ndk1::allocator<geode::listenForSettingChangesV3<bool, SBTDrawGridLayer::onModify(geode::modifier::ModifyBase<geode::modifier::ModifyDerive<SBTDrawGridLayer, DrawGridLayer> >&)::{lambda(bool)#1}>(std::__ndk1::basic_string_view<char, std::__ndk1::char_traits<char> >, SBTDrawGridLayer::onModify(geode::modifier::ModifyBase<geode::modifier::ModifyDerive<SBTDrawGridLayer, DrawGridLayer> >&)::{lambda(bool)#1}&&, geode::Mod*)::{lambda(std::__ndk1::shared_ptr<geode::SettingV3>)#1}>, void (std::__ndk1::shared_ptr<geode::SettingV3>)>::destroy()
PUBLIC 12004 0 std::__ndk1::__function::__func<geode::listenForSettingChangesV3<bool, SBTDrawGridLayer::onModify(geode::modifier::ModifyBase<geode::modifier::ModifyDerive<SBTDrawGridLayer, DrawGridLayer> >&)::{lambda(bool)#1}>(std::__ndk1::basic_string_view<char, std::__ndk1::char_traits<char> >, SBTDrawGridLayer::onModify(geode::modifier::ModifyBase<geode::modifier::ModifyDerive<SBTDrawGridLayer, DrawGridLayer> >&)::{lambda(bool)#1}&&, geode::Mod*)::{lambda(std::__ndk1::shared_ptr<geode::SettingV3>)#1}, std::__ndk1::allocator<geode::listenForSettingChangesV3<bool, SBTDrawGridLayer::onModify(geode::modifier::ModifyBase<geode::modifier::ModifyDerive<SBTDrawGridLayer, DrawGridLayer> >&)::{lambda(bool)#1}>(std::__ndk1::basic_string_view<char, std::__ndk1::char_traits<char> >, SBTDrawGridLayer::onModify(geode::modifier::ModifyBase<geode::modifier::ModifyDerive<SBTDrawGridLayer, DrawGridLayer> >&)::{lambda(bool)#1}&&, geode::Mod*)::{lambda(std::__ndk1::shared_ptr<geode::SettingV3>)#1}>, void (std::__ndk1::shared_ptr<geode::SettingV3>)>::destroy_deallocate()
PUBLIC 12008 0 std::__ndk1::__function::__func<geode::listenForSettingChangesV3<bool, SBTDrawGridLayer::onModify(geode::modifier::ModifyBase<geode::modifier::ModifyDerive<SBTDrawGridLayer, DrawGridLayer> >&)::{lambda(bool)#1}>(std::__ndk1::basic_string_view<char, std::__ndk1::char_traits<char> >, SBTDrawGridLayer::onModify(geode::modifier::ModifyBase<geode::modifier::ModifyDerive<SBTDrawGridLayer, DrawGridLayer> >&)::{lambda(bool)#1}&&, geode::Mod*)::{lambda(std::__ndk1::shared_ptr<geode::SettingV3>)#1}, std::__ndk1::allocator<geode::listenForSettingChangesV3<bool, SBTDrawGridLayer::onModify(geode::modifier::ModifyBase<geode::modifier::ModifyDerive<SBTDrawGridLayer, DrawGridLayer> >&)::{lambda(bool)#1}>(std::__ndk1::basic_string_view<char, std::__ndk1::char_traits<char> >, SBTDrawGridLayer::onModify(geode::modifier::ModifyBase<geode::modifier::ModifyDerive<SBTDrawGridLayer, DrawGridLayer> >&)::{lambda(bool)#1}&&, geode::Mod*)::{lambda(std::__ndk1::shared_ptr<geode::SettingV3>)#1}>, void (std::__ndk1::shared_ptr<geode::SettingV3>)>::operator()(std::__ndk1::shared_ptr<geode::SettingV3>&&)
PUBLIC 12250 0 std::__ndk1::__function::__func<geode::listenForSettingChangesV3<bool, SBTDrawGridLayer::onModify(geode::modifier::ModifyBase<geode::modifier::ModifyDerive<SBTDrawGridLayer, DrawGridLayer> >&)::{lambda(bool)#1}>(std::__ndk1::basic_string_view<char, std::__ndk1::char_traits<char> >, SBTDrawGridLayer::onModify(geode::modifier::ModifyBase<geode::modifier::ModifyDerive<SBTDrawGridLayer, DrawGridLayer> >&)::{lambda(bool)#1}&&, geode::Mod*)::{lambda(std::__ndk1::shared_ptr<geode::SettingV3>)#1}, std::__ndk1::allocator<geode::listenForSettingChangesV3<bool, SBTDrawGridLayer::onModify(geode::modifier::ModifyBase<geode::modifier::ModifyDerive<SBTDrawGridLayer, DrawGridLayer> >&)::{lambda(bool)#1}>(std::__ndk1::basic_string_view<char, std::__ndk1::char_traits<char> >, SBTDrawGridLayer::onModify(geode::modifier::ModifyBase<geode::modifier::ModifyDerive<SBTDrawGridLayer, DrawGridLayer> >&)::{lambda(bool)#1}&&, geode::Mod*)::{lambda(std::__ndk1::shared_ptr<geode::SettingV3>)#1}>, void (std::__ndk1::shared_ptr<geode::SettingV3>)>::target(std::type_info const&) const
PUBLIC 1226c 0 std::__ndk1::__function::__func<geode::listenForSettingChangesV3<bool, SBTDrawGridLayer::onModify(geode::modifier::ModifyBase<geode::modifier::ModifyDerive<SBTDrawGridLayer, DrawGridLayer> >&)::{lambda(bool)#1}>(std::__ndk1::basic_string_view<char, std::__ndk1::char_traits<char> >, SBTDrawGridLayer::onModify(geode::modifier::ModifyBase<geode::modifier::ModifyDerive<SBTDrawGridLayer, DrawGridLayer> >&)::{lambda(bool)#1}&&, geode::Mod*)::{lambda(std::__ndk1::shared_ptr<geode::SettingV3>)#1}, std::__ndk1::allocator<geode::listenForSettingChangesV3<bool, SBTDrawGridLayer::onModify(geode::modifier::ModifyBase<geode::modifier::ModifyDerive<SBTDrawGridLayer, DrawGridLayer> >&)::{lambda(bool)#1}>(std::__ndk1::basic_string_view<char, std::__ndk1::char_traits<char> >, SBTDrawGridLayer::onModify(geode::modifier::ModifyBase<geode::modifier::ModifyDerive<SBTDrawGridLayer, DrawGridLayer> >&)::{lambda(bool)#1}&&, geode::Mod*)::{lambda(std::__ndk1::shared_ptr<geode::SettingV3>)#1}>, void (std::__ndk1::shared_ptr<geode::SettingV3>)>::target_type() const
PUBLIC 12278 0 std::__ndk1::shared_ptr<geode::SettingV3>::~shared_ptr[abi:ne180000]()
PUBLIC 122c8 0 std::__ndk1::shared_ptr<geode::BoolSettingV3>::~shared_ptr[abi:ne180000]()
PUBLIC 12318 0 geode::cast::traverseTypeinfoFor(void*, geode::cast::ClassTypeinfoType const*, char const*)
PUBLIC 1241c 0 geode::impl::ResultData<void, std::__ndk1::basic_string<char, std::__ndk1::char_traits<char>, std::__ndk1::allocator<char> > >::~ResultData()
PUBLIC 12490 0 std::__ndk1::__variant_detail::__visitation::__base::__dispatcher<(unsigned long)0>::__dispatch[abi:ne180000]<std::__ndk1::__variant_detail::__dtor<std::__ndk1::__variant_detail::__traits<std::__ndk1::monostate, std::__ndk1::basic_string<char, std::__ndk1::char_traits<char>, std::__ndk1::allocator<char> > >, (std::__ndk1::__variant_detail::_Trait)1>::__destroy[abi:ne180000]()::{lambda(auto:1&)#1}, std::__ndk1::__variant_detail::__base<(std::__ndk1::__variant_detail::__traits<std::__ndk1::monostate, std::__ndk1::basic_string<char, std::__ndk1::char_traits<char>, std::__ndk1::allocator<char> > >)1, std::__ndk1::__variant_detail::__traits, std::__ndk1::allocator<char> >&>(std::__ndk1::__variant_detail::__dtor<std::__ndk1::__variant_detail::__traits<std::__ndk1::monostate, std::__ndk1::basic_string<char, std::__ndk1::char_traits<char>, std::__ndk1::allocator<char> > >, (std::__ndk1::__variant_detail::_Trait)1>, std::__ndk1::__variant_detail::__base<(std::__ndk1::__variant_detail::__traits<std::__ndk1::monostate, std::__ndk1::basic_string<char, std::__ndk1::char_traits<char>, std::__ndk1::allocator<char> > >)1, std::__ndk1::__variant_detail::__traits, std::__ndk1::allocator<char> >&)
PUBLIC 12494 0 std::__ndk1::__variant_detail::__visitation::__base::__dispatcher<(unsigned long)1>::__dispatch[abi:ne180000]<std::__ndk1::__variant_detail::__dtor<std::__ndk1::__variant_detail::__traits<std::__ndk1::monostate, std::__ndk1::basic_string<char, std::__ndk1::char_traits<char>, std::__ndk1::allocator<char> > >, (std::__ndk1::__variant_detail::_Trait)1>::__destroy[abi:ne180000]()::{lambda(auto:1&)#1}, std::__ndk1::__variant_detail::__base<(std::__ndk1::__variant_detail::__traits<std::__ndk1::monostate, std::__ndk1::basic_string<char, std::__ndk1::char_traits<char>, std::__ndk1::allocator<char> > >)1, std::__ndk1::__variant_detail::__traits, std::__ndk1::allocator<char> >&>(std::__ndk1::__variant_detail::__dtor<std::__ndk1::__variant_detail::__traits<std::__ndk1::monostate, std::__ndk1::basic_string<char, std::__ndk1::char_traits<char>, std::__ndk1::allocator<char> > >, (std::__ndk1::__variant_detail::_Trait)1>, std::__ndk1::__variant_detail::__base<(std::__ndk1::__variant_detail::__traits<std::__ndk1::monostate, std::__ndk1::basic_string<char, std::__ndk1::char_traits<char>, std::__ndk1::allocator<char> > >)1, std::__ndk1::__variant_detail::__traits, std::__ndk1::allocator<char> >&)
PUBLIC 124a8 0 geode::EventListener<geode::SettingChangedFilterV3>::getPool() const
PUBLIC 124ac 0 geode::EventListener<geode::SettingChangedFilterV3>::handle(geode::Event*)
PUBLIC 12620 0 geode::EventListener<geode::SettingChangedFilterV3>::~EventListener()
PUBLIC 126bc 0 geode::EventListener<geode::SettingChangedFilterV3>::~EventListener()
PUBLIC 12760 0 _ZN5geode15UnwrapExceptionC2IRPNS_4HookEQsr4implE18IsStringStreamableIT_EEENS_4impl5OkTagEOS5_
PUBLIC 128b4 0 std::__ndk1::vector<std::__ndk1::basic_string<char, std::__ndk1::char_traits<char>, std::__ndk1::allocator<char> >, std::__ndk1::allocator<std::__ndk1::basic_string<char, std::__ndk1::char_traits<char>, std::__ndk1::allocator<char> > > >::__push_back_slow_path<std::__ndk1::basic_string<char, std::__ndk1::char_traits<char>, std::__ndk1::allocator<char> > const&>(std::__ndk1::basic_string<char, std::__ndk1::char_traits<char>, std::__ndk1::allocator<char> > const&)
PUBLIC 12adc 0 std::__ndk1::__split_buffer<std::__ndk1::basic_string<char, std::__ndk1::char_traits<char>, std::__ndk1::allocator<char> >, std::__ndk1::allocator<std::__ndk1::basic_string<char, std::__ndk1::char_traits<char>, std::__ndk1::allocator<char> > >&>::~__split_buffer()
PUBLIC 12b44 0 std::__ndk1::vector<std::__ndk1::basic_string<char, std::__ndk1::char_traits<char>, std::__ndk1::allocator<char> >, std::__ndk1::allocator<std::__ndk1::basic_string<char, std::__ndk1::char_traits<char>, std::__ndk1::allocator<char> > > >::__throw_length_error[abi:ne180000]() const
PUBLIC 12b58 0 std::__ndk1::__variant_detail::__visitation::__base::__dispatcher<(unsigned long)0>::__dispatch[abi:ne180000]<std::__ndk1::__variant_detail::__dtor<std::__ndk1::__variant_detail::__traits<geode::Hook*, std::__ndk1::basic_string<char, std::__ndk1::char_traits<char>, std::__ndk1::allocator<char> > >, (std::__ndk1::__variant_detail::_Trait)1>::__destroy[abi:ne180000]()::{lambda(auto:1&)#1}, std::__ndk1::__variant_detail::__base<(std::__ndk1::__variant_detail::__traits<geode::Hook*, std::__ndk1::basic_string<char, std::__ndk1::char_traits<char>, std::__ndk1::allocator<char> > >)1, geode::Hook, std::__ndk1::allocator<char> >&>(std::__ndk1::__variant_detail::__dtor<std::__ndk1::__variant_detail::__traits<geode::Hook*, std::__ndk1::basic_string<char, std::__ndk1::char_traits<char>, std::__ndk1::allocator<char> > >, (std::__ndk1::__variant_detail::_Trait)1>, std::__ndk1::__variant_detail::__base<(std::__ndk1::__variant_detail::__traits<geode::Hook*, std::__ndk1::basic_string<char, std::__ndk1::char_traits<char>, std::__ndk1::allocator<char> > >)1, geode::Hook, std::__ndk1::allocator<char> >&)
PUBLIC 12b5c 0 std::__ndk1::__variant_detail::__visitation::__base::__dispatcher<(unsigned long)1>::__dispatch[abi:ne180000]<std::__ndk1::__variant_detail::__dtor<std::__ndk1::__variant_detail::__traits<geode::Hook*, std::__ndk1::basic_string<char, std::__ndk1::char_traits<char>, std::__ndk1::allocator<char> > >, (std::__ndk1::__variant_detail::_Trait)1>::__destroy[abi:ne180000]()::{lambda(auto:1&)#1}, std::__ndk1::__variant_detail::__base<(std::__ndk1::__variant_detail::__traits<geode::Hook*, std::__ndk1::basic_string<char, std::__ndk1::char_traits<char>, std::__ndk1::allocator<char> > >)1, geode::Hook, std::__ndk1::allocator<char> >&>(std::__ndk1::__variant_detail::__dtor<std::__ndk1::__variant_detail::__traits<geode::Hook*, std::__ndk1::basic_string<char, std::__ndk1::char_traits<char>, std::__ndk1::allocator<char> > >, (std::__ndk1::__variant_detail::_Trait)1>, std::__ndk1::__variant_detail::__base<(std::__ndk1::__variant_detail::__traits<geode::Hook*, std::__ndk1::basic_string<char, std::__ndk1::char_traits<char>, std::__ndk1::allocator<char> > >)1, geode::Hook, std::__ndk1::allocator<char> >&)
PUBLIC 12b70 0 std::__ndk1::__tree<std::__ndk1::__value_type<std::__ndk1::basic_string<char, std::__ndk1::char_traits<char>, std::__ndk1::allocator<char> >, std::__ndk1::shared_ptr<geode::Hook> >, std::__ndk1::__map_value_compare<std::__ndk1::basic_string<char, std::__ndk1::char_traits<char>, std::__ndk1::allocator<char> >, std::__ndk1::__value_type<std::__ndk1::basic_string<char, std::__ndk1::char_traits<char>, std::__ndk1::allocator<char> >, std::__ndk1::shared_ptr<geode::Hook> >, std::__ndk1::less<std::__ndk1::basic_string<char, std::__ndk1::char_traits<char>, std::__ndk1::allocator<char> > >, true>, std::__ndk1::allocator<std::__ndk1::__value_type<std::__ndk1::basic_string<char, std::__ndk1::char_traits<char>, std::__ndk1::allocator<char> >, std::__ndk1::shared_ptr<geode::Hook> > > >::erase(std::__ndk1::__tree_const_iterator<std::__ndk1::__value_type<std::__ndk1::basic_string<char, std::__ndk1::char_traits<char>, std::__ndk1::allocator<char> >, std::__ndk1::shared_ptr<geode::Hook> >, std::__ndk1::__tree_node<std::__ndk1::__value_type<std::__ndk1::basic_string<char, std::__ndk1::char_traits<char>, std::__ndk1::allocator<char> >, std::__ndk1::shared_ptr<geode::Hook> >, void*>*, long>)
PUBLIC 12c44 0 std::__ndk1::__tree_remove[abi:ne180000]<std::__ndk1::__tree_node_base<void*>*>(std::__ndk1::__tree_node_base<void*>*, std::__ndk1::__tree_node_base<void*>*)
PUBLIC 1300c 0 std::__ndk1::__tree<std::__ndk1::__value_type<std::__ndk1::basic_string<char, std::__ndk1::char_traits<char>, std::__ndk1::allocator<char> >, std::__ndk1::shared_ptr<geode::Hook> >, std::__ndk1::__map_value_compare<std::__ndk1::basic_string<char, std::__ndk1::char_traits<char>, std::__ndk1::allocator<char> >, std::__ndk1::__value_type<std::__ndk1::basic_string<char, std::__ndk1::char_traits<char>, std::__ndk1::allocator<char> >, std::__ndk1::shared_ptr<geode::Hook> >, std::__ndk1::less<std::__ndk1::basic_string<char, std::__ndk1::char_traits<char>, std::__ndk1::allocator<char> > >, true>, std::__ndk1::allocator<std::__ndk1::__value_type<std::__ndk1::basic_string<char, std::__ndk1::char_traits<char>, std::__ndk1::allocator<char> >, std::__ndk1::shared_ptr<geode::Hook> > > >::destroy(std::__ndk1::__tree_node<std::__ndk1::__value_type<std::__ndk1::basic_string<char, std::__ndk1::char_traits<char>, std::__ndk1::allocator<char> >, std::__ndk1::shared_ptr<geode::Hook> >, void*>*)
PUBLIC 13098 0 geode::modifier::AsStaticFunction_draw<SBTDrawGridLayer, void (SBTDrawGridLayer::*)()>::Impl<void (SBTDrawGridLayer::*)()>::function(SBTDrawGridLayer*)
PUBLIC 14728 0 geode::addresser::Addresser::addressOfVirtual<void, DrawGridLayer, >(void (DrawGridLayer::*)())
PUBLIC 147f0 0 DrawGridLayer::DrawGridLayer(geode::ZeroConstructorType)
PUBLIC 148d4 0 geode::stl::unordered_map<int, AudioLineGuideGameObject*, geode::stl::hash<int>, geode::stl::equal_to<int>, std::__ndk1::allocator<std::__ndk1::pair<int const, AudioLineGuideGameObject*> > >::~unordered_map()
PUBLIC 1494c 0 std::__ndk1::shared_ptr<tulip::hook::CallingConvention>::~shared_ptr[abi:ne180000]()
PUBLIC 1499c 0 tulip::hook::HandlerMetadata::~HandlerMetadata()
PUBLIC 14a00 0 std::__ndk1::unordered_map<int, AudioLineGuideGameObject*, std::__ndk1::hash<int>, std::__ndk1::equal_to<int>, std::__ndk1::allocator<std::__ndk1::pair<int const, AudioLineGuideGameObject*> > >::~unordered_map[abi:ne180000]()
PUBLIC 14a4c 0 geode::stl::_Hashtable<int, std::__ndk1::pair<int const, AudioLineGuideGameObject*>, std::__ndk1::allocator<std::__ndk1::pair<int const, AudioLineGuideGameObject*> >, geode::stl::__detail::_Select1st, geode::stl::equal_to<int>, geode::stl::hash<int>, geode::stl::__detail::_Mod_range_hashing, geode::stl::__detail::_Default_ranged_hash, geode::stl::__detail::_Prime_rehash_policy, geode::stl::__detail::_Hashtable_traits<false, false, true> >::_M_insert_unique_node(unsigned long, unsigned long, geode::stl::__detail::_Hash_node<std::__ndk1::pair<int const, AudioLineGuideGameObject*>, false>*)
PUBLIC 14d2c 0 std::__ndk1::vector<cocos2d::CCPoint, std::__ndk1::allocator<cocos2d::CCPoint> >::__throw_length_error[abi:ne180000]() const
PUBLIC 14d40 0 std::__ndk1::__tree<std::__ndk1::__value_type<std::__ndk1::basic_string<char, std::__ndk1::char_traits<char>, std::__ndk1::allocator<char> >, std::__ndk1::shared_ptr<geode::Hook> >, std::__ndk1::__map_value_compare<std::__ndk1::basic_string<char, std::__ndk1::char_traits<char>, std::__ndk1::allocator<char> >, std::__ndk1::__value_type<std::__ndk1::basic_string<char, std::__ndk1::char_traits<char>, std::__ndk1::allocator<char> >, std::__ndk1::shared_ptr<geode::Hook> >, std::__ndk1::less<std::__ndk1::basic_string<char, std::__ndk1::char_traits<char>, std::__ndk1::allocator<char> > >, true>, std::__ndk1::allocator<std::__ndk1::__value_type<std::__ndk1::basic_string<char, std::__ndk1::char_traits<char>, std::__ndk1::allocator<char> >, std::__ndk1::shared_ptr<geode::Hook> > > >::__emplace_unique_key_args<std::__ndk1::basic_string<char, std::__ndk1::char_traits<char>, std::__ndk1::allocator<char> >, std::__ndk1::piecewise_construct_t const&, std::__ndk1::tuple<std::__ndk1::basic_string<char, std::__ndk1::char_traits<char>, std::__ndk1::allocator<char> >&&>, std::__ndk1::tuple<> >(std::__ndk1::basic_string<char, std::__ndk1::char_traits<char>, std::__ndk1::allocator<char> > const&, std::__ndk1::piecewise_construct_t const&, std::__ndk1::tuple<std::__ndk1::basic_string<char, std::__ndk1::char_traits<char>, std::__ndk1::allocator<char> >&&>, std::__ndk1::tuple<>)
PUBLIC 14eb8 0 __cxx_global_var_init
PUBLIC 1568c 0 geode::modifier::ModifyBase<geode::modifier::ModifyDerive<SBTEditorUI, EditorUI> >::~ModifyBase()
PUBLIC 156a8 0 geode::modifier::ModifyDerive<SBTEditorUI, EditorUI>::apply()
PUBLIC 15b34 0 geode::modifier::ModifyBase<geode::modifier::ModifyDerive<SBTEditorUI, EditorUI> >::apply()
PUBLIC 15b38 0 geode::modifier::ModifyBase<geode::modifier::ModifyDerive<SBTEditorUI, EditorUI> >::getHook(std::__ndk1::basic_string_view<char, std::__ndk1::char_traits<char> >)
PUBLIC 15ce8 0 std::__ndk1::__function::__func<geode::listenForSettingChangesV3<bool, SBTEditorUI::onModify(geode::modifier::ModifyBase<geode::modifier::ModifyDerive<SBTEditorUI, EditorUI> >&)::{lambda(bool)#1}>(std::__ndk1::basic_string_view<char, std::__ndk1::char_traits<char> >, SBTEditorUI::onModify(geode::modifier::ModifyBase<geode::modifier::ModifyDerive<SBTEditorUI, EditorUI> >&)::{lambda(bool)#1}&&, geode::Mod*)::{lambda(std::__ndk1::shared_ptr<geode::SettingV3>)#1}, std::__ndk1::allocator<geode::listenForSettingChangesV3<bool, SBTEditorUI::onModify(geode::modifier::ModifyBase<geode::modifier::ModifyDerive<SBTEditorUI, EditorUI> >&)::{lambda(bool)#1}>(std::__ndk1::basic_string_view<char, std::__ndk1::char_traits<char> >, SBTEditorUI::onModify(geode::modifier::ModifyBase<geode::modifier::ModifyDerive<SBTEditorUI, EditorUI> >&)::{lambda(bool)#1}&&, geode::Mod*)::{lambda(std::__ndk1::shared_ptr<geode::SettingV3>)#1}>, void (std::__ndk1::shared_ptr<geode::SettingV3>)>::~__func()
PUBLIC 15cec 0 std::__ndk1::__function::__func<geode::listenForSettingChangesV3<bool, SBTEditorUI::onModify(geode::modifier::ModifyBase<geode::modifier::ModifyDerive<SBTEditorUI, EditorUI> >&)::{lambda(bool)#1}>(std::__ndk1::basic_string_view<char, std::__ndk1::char_traits<char> >, SBTEditorUI::onModify(geode::modifier::ModifyBase<geode::modifier::ModifyDerive<SBTEditorUI, EditorUI> >&)::{lambda(bool)#1}&&, geode::Mod*)::{lambda(std::__ndk1::shared_ptr<geode::SettingV3>)#1}, std::__ndk1::allocator<geode::listenForSettingChangesV3<bool, SBTEditorUI::onModify(geode::modifier::ModifyBase<geode::modifier::ModifyDerive<SBTEditorUI, EditorUI> >&)::{lambda(bool)#1}>(std::__ndk1::basic_string_view<char, std::__ndk1::char_traits<char> >, SBTEditorUI::onModify(geode::modifier::ModifyBase<geode::modifier::ModifyDerive<SBTEditorUI, EditorUI> >&)::{lambda(bool)#1}&&, geode::Mod*)::{lambda(std::__ndk1::shared_ptr<geode::SettingV3>)#1}>, void (std::__ndk1::shared_ptr<geode::SettingV3>)>::__clone() const
PUBLIC 15d24 0 std::__ndk1::__function::__func<geode::listenForSettingChangesV3<bool, SBTEditorUI::onModify(geode::modifier::ModifyBase<geode::modifier::ModifyDerive<SBTEditorUI, EditorUI> >&)::{lambda(bool)#1}>(std::__ndk1::basic_string_view<char, std::__ndk1::char_traits<char> >, SBTEditorUI::onModify(geode::modifier::ModifyBase<geode::modifier::ModifyDerive<SBTEditorUI, EditorUI> >&)::{lambda(bool)#1}&&, geode::Mod*)::{lambda(std::__ndk1::shared_ptr<geode::SettingV3>)#1}, std::__ndk1::allocator<geode::listenForSettingChangesV3<bool, SBTEditorUI::onModify(geode::modifier::ModifyBase<geode::modifier::ModifyDerive<SBTEditorUI, EditorUI> >&)::{lambda(bool)#1}>(std::__ndk1::basic_string_view<char, std::__ndk1::char_traits<char> >, SBTEditorUI::onModify(geode::modifier::ModifyBase<geode::modifier::ModifyDerive<SBTEditorUI, EditorUI> >&)::{lambda(bool)#1}&&, geode::Mod*)::{lambda(std::__ndk1::shared_ptr<geode::SettingV3>)#1}>, void (std::__ndk1::shared_ptr<geode::SettingV3>)>::__clone(std::__ndk1::__function::__base<void (std::__ndk1::shared_ptr<geode::SettingV3>)>*) const
PUBLIC 15d3c 0 std::__ndk1::__function::__func<geode::listenForSettingChangesV3<bool, SBTEditorUI::onModify(geode::modifier::ModifyBase<geode::modifier::ModifyDerive<SBTEditorUI, EditorUI> >&)::{lambda(bool)#1}>(std::__ndk1::basic_string_view<char, std::__ndk1::char_traits<char> >, SBTEditorUI::onModify(geode::modifier::ModifyBase<geode::modifier::ModifyDerive<SBTEditorUI, EditorUI> >&)::{lambda(bool)#1}&&, geode::Mod*)::{lambda(std::__ndk1::shared_ptr<geode::SettingV3>)#1}, std::__ndk1::allocator<geode::listenForSettingChangesV3<bool, SBTEditorUI::onModify(geode::modifier::ModifyBase<geode::modifier::ModifyDerive<SBTEditorUI, EditorUI> >&)::{lambda(bool)#1}>(std::__ndk1::basic_string_view<char, std::__ndk1::char_traits<char> >, SBTEditorUI::onModify(geode::modifier::ModifyBase<geode::modifier::ModifyDerive<SBTEditorUI, EditorUI> >&)::{lambda(bool)#1}&&, geode::Mod*)::{lambda(std::__ndk1::shared_ptr<geode::SettingV3>)#1}>, void (std::__ndk1::shared_ptr<geode::SettingV3>)>::destroy()
PUBLIC 15d40 0 std::__ndk1::__function::__func<geode::listenForSettingChangesV3<bool, SBTEditorUI::onModify(geode::modifier::ModifyBase<geode::modifier::ModifyDerive<SBTEditorUI, EditorUI> >&)::{lambda(bool)#1}>(std::__ndk1::basic_string_view<char, std::__ndk1::char_traits<char> >, SBTEditorUI::onModify(geode::modifier::ModifyBase<geode::modifier::ModifyDerive<SBTEditorUI, EditorUI> >&)::{lambda(bool)#1}&&, geode::Mod*)::{lambda(std::__ndk1::shared_ptr<geode::SettingV3>)#1}, std::__ndk1::allocator<geode::listenForSettingChangesV3<bool, SBTEditorUI::onModify(geode::modifier::ModifyBase<geode::modifier::ModifyDerive<SBTEditorUI, EditorUI> >&)::{lambda(bool)#1}>(std::__ndk1::basic_string_view<char, std::__ndk1::char_traits<char> >, SBTEditorUI::onModify(geode::modifier::ModifyBase<geode::modifier::ModifyDerive<SBTEditorUI, EditorUI> >&)::{lambda(bool)#1}&&, geode::Mod*)::{lambda(std::__ndk1::shared_ptr<geode::SettingV3>)#1}>, void (std::__ndk1::shared_ptr<geode::SettingV3>)>::destroy_deallocate()
PUBLIC 15d44 0 std::__ndk1::__function::__func<geode::listenForSettingChangesV3<bool, SBTEditorUI::onModify(geode::modifier::ModifyBase<geode::modifier::ModifyDerive<SBTEditorUI, EditorUI> >&)::{lambda(bool)#1}>(std::__ndk1::basic_string_view<char, std::__ndk1::char_traits<char> >, SBTEditorUI::onModify(geode::modifier::ModifyBase<geode::modifier::ModifyDerive<SBTEditorUI, EditorUI> >&)::{lambda(bool)#1}&&, geode::Mod*)::{lambda(std::__ndk1::shared_ptr<geode::SettingV3>)#1}, std::__ndk1::allocator<geode::listenForSettingChangesV3<bool, SBTEditorUI::onModify(geode::modifier::ModifyBase<geode::modifier::ModifyDerive<SBTEditorUI, EditorUI> >&)::{lambda(bool)#1}>(std::__ndk1::basic_string_view<char, std::__ndk1::char_traits<char> >, SBTEditorUI::onModify(geode::modifier::ModifyBase<geode::modifier::ModifyDerive<SBTEditorUI, EditorUI> >&)::{lambda(bool)#1}&&, geode::Mod*)::{lambda(std::__ndk1::shared_ptr<geode::SettingV3>)#1}>, void (std::__ndk1::shared_ptr<geode::SettingV3>)>::operator()(std::__ndk1::shared_ptr<geode::SettingV3>&&)
PUBLIC 1606c 0 std::__ndk1::__function::__func<geode::listenForSettingChangesV3<bool, SBTEditorUI::onModify(geode::modifier::ModifyBase<geode::modifier::ModifyDerive<SBTEditorUI, EditorUI> >&)::{lambda(bool)#1}>(std::__ndk1::basic_string_view<char, std::__ndk1::char_traits<char> >, SBTEditorUI::onModify(geode::modifier::ModifyBase<geode::modifier::ModifyDerive<SBTEditorUI, EditorUI> >&)::{lambda(bool)#1}&&, geode::Mod*)::{lambda(std::__ndk1::shared_ptr<geode::SettingV3>)#1}, std::__ndk1::allocator<geode::listenForSettingChangesV3<bool, SBTEditorUI::onModify(geode::modifier::ModifyBase<geode::modifier::ModifyDerive<SBTEditorUI, EditorUI> >&)::{lambda(bool)#1}>(std::__ndk1::basic_string_view<char, std::__ndk1::char_traits<char> >, SBTEditorUI::onModify(geode::modifier::ModifyBase<geode::modifier::ModifyDerive<SBTEditorUI, EditorUI> >&)::{lambda(bool)#1}&&, geode::Mod*)::{lambda(std::__ndk1::shared_ptr<geode::SettingV3>)#1}>, void (std::__ndk1::shared_ptr<geode::SettingV3>)>::target(std::type_info const&) const
PUBLIC 16088 0 std::__ndk1::__function::__func<geode::listenForSettingChangesV3<bool, SBTEditorUI::onModify(geode::modifier::ModifyBase<geode::modifier::ModifyDerive<SBTEditorUI, EditorUI> >&)::{lambda(bool)#1}>(std::__ndk1::basic_string_view<char, std::__ndk1::char_traits<char> >, SBTEditorUI::onModify(geode::modifier::ModifyBase<geode::modifier::ModifyDerive<SBTEditorUI, EditorUI> >&)::{lambda(bool)#1}&&, geode::Mod*)::{lambda(std::__ndk1::shared_ptr<geode::SettingV3>)#1}, std::__ndk1::allocator<geode::listenForSettingChangesV3<bool, SBTEditorUI::onModify(geode::modifier::ModifyBase<geode::modifier::ModifyDerive<SBTEditorUI, EditorUI> >&)::{lambda(bool)#1}>(std::__ndk1::basic_string_view<char, std::__ndk1::char_traits<char> >, SBTEditorUI::onModify(geode::modifier::ModifyBase<geode::modifier::ModifyDerive<SBTEditorUI, EditorUI> >&)::{lambda(bool)#1}&&, geode::Mod*)::{lambda(std::__ndk1::shared_ptr<geode::SettingV3>)#1}>, void (std::__ndk1::shared_ptr<geode::SettingV3>)>::target_type() const
PUBLIC 16094 0 geode::Hook::create<void (*)(SBTEditorUI*)>(void*, void (*)(SBTEditorUI*), std::__ndk1::basic_string<char, std::__ndk1::char_traits<char>, std::__ndk1::allocator<char> > const&, tulip::hook::TulipConvention, tulip::hook::HookMetadata const&)
PUBLIC 161c8 0 geode::modifier::AsStaticFunction_createMoveMenu<SBTEditorUI, void (SBTEditorUI::*)()>::Impl<void (SBTEditorUI::*)()>::function(SBTEditorUI*)
PUBLIC 1639c 0 geode::modifier::AsStaticFunction_updateButtons<SBTEditorUI, void (SBTEditorUI::*)()>::Impl<void (SBTEditorUI::*)()>::function(SBTEditorUI*)
PUBLIC 164d8 0 geode::modifier::FieldIntermediate<SBTEditorUI, EditorUI>::self()
PUBLIC 16664 0 SBTEditorUI::onSnapGuideline(cocos2d::CCObject*)
PUBLIC 16b6c 0 geode::modifier::FieldIntermediate<SBTEditorUI, EditorUI>::fieldDestructor(void*)
PUBLIC 16b70 0 geode::cocos::CCArrayExt<GameObject*, GameObject>::~CCArrayExt()
PUBLIC 16b8c 0 __cxx_global_var_init
PUBLIC 1700c 0 geode::modifier::ModifyBase<geode::modifier::ModifyDerive<SBTLevelEditorLayer, LevelEditorLayer> >::~ModifyBase()
PUBLIC 17028 0 geode::modifier::ModifyDerive<SBTLevelEditorLayer, LevelEditorLayer>::apply()
PUBLIC 173b0 0 geode::modifier::ModifyBase<geode::modifier::ModifyDerive<SBTLevelEditorLayer, LevelEditorLayer> >::apply()
PUBLIC 173b4 0 geode::modifier::AsStaticFunction_removeSpecial<SBTLevelEditorLayer, void (SBTLevelEditorLayer::*)(GameObject*)>::Impl<void (SBTLevelEditorLayer::*)(GameObject*)>::function(SBTLevelEditorLayer*, GameObject*)
PUBLIC 174a4 0 geodeExecFunction6<(anonymous namespace)::ExecFuncUnique6>(geode::ModStateEvent*)
PUBLIC 174c0 0 _ZN15SmartBPMTrigger3getITn14TemplateStringXtlS1_ILm8EEtlA8_cLc101ELc110ELc97ELc98ELc108ELc101ELc100EEEEbEET0_PN5geode3ModE
PUBLIC 175ac 0 geode::EventListener<geode::ModStateFilter>::getPool() const
PUBLIC 175b0 0 geode::EventListener<geode::ModStateFilter>::handle(geode::Event*)
PUBLIC 17724 0 geode::EventListener<geode::ModStateFilter>::~EventListener()
PUBLIC 17780 0 geode::EventListener<geode::ModStateFilter>::~EventListener()
PUBLIC 177e4 0 std::__ndk1::__function::__base<void (geode::ModStateEvent*)>::~__base()
PUBLIC 177e8 0 std::__ndk1::__function::__func<void (*)(geode::ModStateEvent*), std::__ndk1::allocator<void (*)(geode::ModStateEvent*)>, void (geode::ModStateEvent*)>::~__func()
PUBLIC 177ec 0 std::__ndk1::__function::__func<void (*)(geode::ModStateEvent*), std::__ndk1::allocator<void (*)(geode::ModStateEvent*)>, void (geode::ModStateEvent*)>::__clone() const
PUBLIC 17820 0 std::__ndk1::__function::__func<void (*)(geode::ModStateEvent*), std::__ndk1::allocator<void (*)(geode::ModStateEvent*)>, void (geode::ModStateEvent*)>::__clone(std::__ndk1::__function::__base<void (geode::ModStateEvent*)>*) const
PUBLIC 17834 0 std::__ndk1::__function::__func<void (*)(geode::ModStateEvent*), std::__ndk1::allocator<void (*)(geode::ModStateEvent*)>, void (geode::ModStateEvent*)>::destroy()
PUBLIC 17838 0 std::__ndk1::__function::__func<void (*)(geode::ModStateEvent*), std::__ndk1::allocator<void (*)(geode::ModStateEvent*)>, void (geode::ModStateEvent*)>::destroy_deallocate()
PUBLIC 1783c 0 std::__ndk1::__function::__func<void (*)(geode::ModStateEvent*), std::__ndk1::allocator<void (*)(geode::ModStateEvent*)>, void (geode::ModStateEvent*)>::operator()(geode::ModStateEvent*&&)
PUBLIC 1784c 0 std::__ndk1::__function::__func<void (*)(geode::ModStateEvent*), std::__ndk1::allocator<void (*)(geode::ModStateEvent*)>, void (geode::ModStateEvent*)>::target(std::type_info const&) const
PUBLIC 17868 0 std::__ndk1::__function::__func<void (*)(geode::ModStateEvent*), std::__ndk1::allocator<void (*)(geode::ModStateEvent*)>, void (geode::ModStateEvent*)>::target_type() const
PUBLIC 17874 0 SmartBPMTrigger::getInternal<bool>(geode::Mod*, std::__ndk1::basic_string_view<char, std::__ndk1::char_traits<char> >)
PUBLIC 1791c 0 _ZN5geode25listenForSettingChangesV3IbZN15SmartBPMTrigger3getITn14TemplateStringXtlS3_ILm8EEtlA8_cLc101ELc110ELc97ELc98ELc108ELc101ELc100EEEEbEET0_PNS_3ModEEUlbE_EEPNS_13EventListenerINS_22SettingChangedFilterV3EEENSt6__ndk117basic_string_viewIcNSE_11char_traitsIcEEEEOS6_S8_
PUBLIC 17b68 0 _ZNSt6__ndk110__function6__funcIZN5geode25listenForSettingChangesV3IbZN15SmartBPMTrigger3getITn14TemplateStringXtlS6_ILm8EEtlA8_cLc101ELc110ELc97ELc98ELc108ELc101ELc100EEEEbEET0_PNS2_3ModEEUlbE_EEPNS2_13EventListenerINS2_22SettingChangedFilterV3EEENS_17basic_string_viewIcNS_11char_traitsIcEEEEOS9_SB_EUlNS_10shared_ptrINS2_9SettingV3EEEE_NS_9allocatorISP_EEFvSO_EED0Ev
PUBLIC 17b6c 0 _ZNKSt6__ndk110__function6__funcIZN5geode25listenForSettingChangesV3IbZN15SmartBPMTrigger3getITn14TemplateStringXtlS6_ILm8EEtlA8_cLc101ELc110ELc97ELc98ELc108ELc101ELc100EEEEbEET0_PNS2_3ModEEUlbE_EEPNS2_13EventListenerINS2_22SettingChangedFilterV3EEENS_17basic_string_viewIcNS_11char_traitsIcEEEEOS9_SB_EUlNS_10shared_ptrINS2_9SettingV3EEEE_NS_9allocatorISP_EEFvSO_EE7__cloneEv
PUBLIC 17ba4 0 _ZNKSt6__ndk110__function6__funcIZN5geode25listenForSettingChangesV3IbZN15SmartBPMTrigger3getITn14TemplateStringXtlS6_ILm8EEtlA8_cLc101ELc110ELc97ELc98ELc108ELc101ELc100EEEEbEET0_PNS2_3ModEEUlbE_EEPNS2_13EventListenerINS2_22SettingChangedFilterV3EEENS_17basic_string_viewIcNS_11char_traitsIcEEEEOS9_SB_EUlNS_10shared_ptrINS2_9SettingV3EEEE_NS_9allocatorISP_EEFvSO_EE7__cloneEPNS0_6__baseISS_EE
PUBLIC 17bbc 0 _ZNSt6__ndk110__function6__funcIZN5geode25listenForSettingChangesV3IbZN15SmartBPMTrigger3getITn14TemplateStringXtlS6_ILm8EEtlA8_cLc101ELc110ELc97ELc98ELc108ELc101ELc100EEEEbEET0_PNS2_3ModEEUlbE_EEPNS2_13EventListenerINS2_22SettingChangedFilterV3EEENS_17basic_string_viewIcNS_11char_traitsIcEEEEOS9_SB_EUlNS_10shared_ptrINS2_9SettingV3EEEE_NS_9allocatorISP_EEFvSO_EE7destroyEv
PUBLIC 17bc0 0 _ZNSt6__ndk110__function6__funcIZN5geode25listenForSettingChangesV3IbZN15SmartBPMTrigger3getITn14TemplateStringXtlS6_ILm8EEtlA8_cLc101ELc110ELc97ELc98ELc108ELc101ELc100EEEEbEET0_PNS2_3ModEEUlbE_EEPNS2_13EventListenerINS2_22SettingChangedFilterV3EEENS_17basic_string_viewIcNS_11char_traitsIcEEEEOS9_SB_EUlNS_10shared_ptrINS2_9SettingV3EEEE_NS_9allocatorISP_EEFvSO_EE18destroy_deallocateEv
PUBLIC 17bc4 0 _ZNSt6__ndk110__function6__funcIZN5geode25listenForSettingChangesV3IbZN15SmartBPMTrigger3getITn14TemplateStringXtlS6_ILm8EEtlA8_cLc101ELc110ELc97ELc98ELc108ELc101ELc100EEEEbEET0_PNS2_3ModEEUlbE_EEPNS2_13EventListenerINS2_22SettingChangedFilterV3EEENS_17basic_string_viewIcNS_11char_traitsIcEEEEOS9_SB_EUlNS_10shared_ptrINS2_9SettingV3EEEE_NS_9allocatorISP_EEFvSO_EEclEOSO_
PUBLIC 17cb4 0 _ZNKSt6__ndk110__function6__funcIZN5geode25listenForSettingChangesV3IbZN15SmartBPMTrigger3getITn14TemplateStringXtlS6_ILm8EEtlA8_cLc101ELc110ELc97ELc98ELc108ELc101ELc100EEEEbEET0_PNS2_3ModEEUlbE_EEPNS2_13EventListenerINS2_22SettingChangedFilterV3EEENS_17basic_string_viewIcNS_11char_traitsIcEEEEOS9_SB_EUlNS_10shared_ptrINS2_9SettingV3EEEE_NS_9allocatorISP_EEFvSO_EE6targetERKSt9type_info
PUBLIC 17cd0 0 _ZNKSt6__ndk110__function6__funcIZN5geode25listenForSettingChangesV3IbZN15SmartBPMTrigger3getITn14TemplateStringXtlS6_ILm8EEtlA8_cLc101ELc110ELc97ELc98ELc108ELc101ELc100EEEEbEET0_PNS2_3ModEEUlbE_EEPNS2_13EventListenerINS2_22SettingChangedFilterV3EEENS_17basic_string_viewIcNS_11char_traitsIcEEEEOS9_SB_EUlNS_10shared_ptrINS2_9SettingV3EEEE_NS_9allocatorISP_EEFvSO_EE11target_typeEv
PUBLIC 17cdc 0 SmartBPMTrigger::getInternal<cocos2d::_ccColor4B>(geode::Mod*, std::__ndk1::basic_string_view<char, std::__ndk1::char_traits<char> >)
PUBLIC 17d78 0 _ZN5geode25listenForSettingChangesV3IN7cocos2d10_ccColor4BEZN15SmartBPMTrigger3getITn14TemplateStringXtlS5_ILm23EEtlA23_cLc98ELc101ELc97ELc116ELc115ELc45ELc112ELc101ELc114ELc45ELc109ELc105ELc110ELc117ELc116ELc101ELc45ELc99ELc111ELc108ELc111ELc114EEEES2_EET0_PNS_3ModEEUlS2_E_EEPNS_13EventListenerINS_22SettingChangedFilterV3EEENSt6__ndk117basic_string_viewIcNSG_11char_traitsIcEEEEOS8_SA_
PUBLIC 17fc4 0 _ZNSt6__ndk110__function6__funcIZN5geode25listenForSettingChangesV3IN7cocos2d10_ccColor4BEZN15SmartBPMTrigger3getITn14TemplateStringXtlS8_ILm23EEtlA23_cLc98ELc101ELc97ELc116ELc115ELc45ELc112ELc101ELc114ELc45ELc109ELc105ELc110ELc117ELc116ELc101ELc45ELc99ELc111ELc108ELc111ELc114EEEES5_EET0_PNS2_3ModEEUlS5_E_EEPNS2_13EventListenerINS2_22SettingChangedFilterV3EEENS_17basic_string_viewIcNS_11char_traitsIcEEEEOSB_SD_EUlNS_10shared_ptrINS2_9SettingV3EEEE_NS_9allocatorISR_EEFvSQ_EED0Ev
PUBLIC 17fc8 0 _ZNKSt6__ndk110__function6__funcIZN5geode25listenForSettingChangesV3IN7cocos2d10_ccColor4BEZN15SmartBPMTrigger3getITn14TemplateStringXtlS8_ILm23EEtlA23_cLc98ELc101ELc97ELc116ELc115ELc45ELc112ELc101ELc114ELc45ELc109ELc105ELc110ELc117ELc116ELc101ELc45ELc99ELc111ELc108ELc111ELc114EEEES5_EET0_PNS2_3ModEEUlS5_E_EEPNS2_13EventListenerINS2_22SettingChangedFilterV3EEENS_17basic_string_viewIcNS_11char_traitsIcEEEEOSB_SD_EUlNS_10shared_ptrINS2_9SettingV3EEEE_NS_9allocatorISR_EEFvSQ_EE7__cloneEv
PUBLIC 18000 0 _ZNKSt6__ndk110__function6__funcIZN5geode25listenForSettingChangesV3IN7cocos2d10_ccColor4BEZN15SmartBPMTrigger3getITn14TemplateStringXtlS8_ILm23EEtlA23_cLc98ELc101ELc97ELc116ELc115ELc45ELc112ELc101ELc114ELc45ELc109ELc105ELc110ELc117ELc116ELc101ELc45ELc99ELc111ELc108ELc111ELc114EEEES5_EET0_PNS2_3ModEEUlS5_E_EEPNS2_13EventListenerINS2_22SettingChangedFilterV3EEENS_17basic_string_viewIcNS_11char_traitsIcEEEEOSB_SD_EUlNS_10shared_ptrINS2_9SettingV3EEEE_NS_9allocatorISR_EEFvSQ_EE7__cloneEPNS0_6__baseISU_EE
PUBLIC 18018 0 _ZNSt6__ndk110__function6__funcIZN5geode25listenForSettingChangesV3IN7cocos2d10_ccColor4BEZN15SmartBPMTrigger3getITn14TemplateStringXtlS8_ILm23EEtlA23_cLc98ELc101ELc97ELc116ELc115ELc45ELc112ELc101ELc114ELc45ELc109ELc105ELc110ELc117ELc116ELc101ELc45ELc99ELc111ELc108ELc111ELc114EEEES5_EET0_PNS2_3ModEEUlS5_E_EEPNS2_13EventListenerINS2_22SettingChangedFilterV3EEENS_17basic_string_viewIcNS_11char_traitsIcEEEEOSB_SD_EUlNS_10shared_ptrINS2_9SettingV3EEEE_NS_9allocatorISR_EEFvSQ_EE7destroyEv
PUBLIC 1801c 0 _ZNSt6__ndk110__function6__funcIZN5geode25listenForSettingChangesV3IN7cocos2d10_ccColor4BEZN15SmartBPMTrigger3getITn14TemplateStringXtlS8_ILm23EEtlA23_cLc98ELc101ELc97ELc116ELc115ELc45ELc112ELc101ELc114ELc45ELc109ELc105ELc110ELc117ELc116ELc101ELc45ELc99ELc111ELc108ELc111ELc114EEEES5_EET0_PNS2_3ModEEUlS5_E_EEPNS2_13EventListenerINS2_22SettingChangedFilterV3EEENS_17basic_string_viewIcNS_11char_traitsIcEEEEOSB_SD_EUlNS_10shared_ptrINS2_9SettingV3EEEE_NS_9allocatorISR_EEFvSQ_EE18destroy_deallocateEv
PUBLIC 18020 0 _ZNSt6__ndk110__function6__funcIZN5geode25listenForSettingChangesV3IN7cocos2d10_ccColor4BEZN15SmartBPMTrigger3getITn14TemplateStringXtlS8_ILm23EEtlA23_cLc98ELc101ELc97ELc116ELc115ELc45ELc112ELc101ELc114ELc45ELc109ELc105ELc110ELc117ELc116ELc101ELc45ELc99ELc111ELc108ELc111ELc114EEEES5_EET0_PNS2_3ModEEUlS5_E_EEPNS2_13EventListenerINS2_22SettingChangedFilterV3EEENS_17basic_string_viewIcNS_11char_traitsIcEEEEOSB_SD_EUlNS_10shared_ptrINS2_9SettingV3EEEE_NS_9allocatorISR_EEFvSQ_EEclEOSQ_
PUBLIC 18114 0 _ZNKSt6__ndk110__function6__funcIZN5geode25listenForSettingChangesV3IN7cocos2d10_ccColor4BEZN15SmartBPMTrigger3getITn14TemplateStringXtlS8_ILm23EEtlA23_cLc98ELc101ELc97ELc116ELc115ELc45ELc112ELc101ELc114ELc45ELc109ELc105ELc110ELc117ELc116ELc101ELc45ELc99ELc111ELc108ELc111ELc114EEEES5_EET0_PNS2_3ModEEUlS5_E_EEPNS2_13EventListenerINS2_22SettingChangedFilterV3EEENS_17basic_string_viewIcNS_11char_traitsIcEEEEOSB_SD_EUlNS_10shared_ptrINS2_9SettingV3EEEE_NS_9allocatorISR_EEFvSQ_EE6targetERKSt9type_info
PUBLIC 18130 0 _ZNKSt6__ndk110__function6__funcIZN5geode25listenForSettingChangesV3IN7cocos2d10_ccColor4BEZN15SmartBPMTrigger3getITn14TemplateStringXtlS8_ILm23EEtlA23_cLc98ELc101ELc97ELc116ELc115ELc45ELc112ELc101ELc114ELc45ELc109ELc105ELc110ELc117ELc116ELc101ELc45ELc99ELc111ELc108ELc111ELc114EEEES5_EET0_PNS2_3ModEEUlS5_E_EEPNS2_13EventListenerINS2_22SettingChangedFilterV3EEENS_17basic_string_viewIcNS_11char_traitsIcEEEEOSB_SD_EUlNS_10shared_ptrINS2_9SettingV3EEEE_NS_9allocatorISR_EEFvSQ_EE11target_typeEv
PUBLIC 1813c 0 SmartBPMTrigger::getInternal<float>(geode::Mod*, std::__ndk1::basic_string_view<char, std::__ndk1::char_traits<char> >)
PUBLIC 181dc 0 _ZN5geode25listenForSettingChangesV3IfZN15SmartBPMTrigger3getITn14TemplateStringXtlS3_ILm23EEtlA23_cLc98ELc101ELc97ELc116ELc115ELc45ELc112ELc101ELc114ELc45ELc109ELc105ELc110ELc117ELc116ELc101ELc45ELc119ELc105ELc100ELc116ELc104EEEEfEET0_PNS_3ModEEUlfE_EEPNS_13EventListenerINS_22SettingChangedFilterV3EEENSt6__ndk117basic_string_viewIcNSE_11char_traitsIcEEEEOS6_S8_
PUBLIC 18428 0 _ZNSt6__ndk110__function6__funcIZN5geode25listenForSettingChangesV3IfZN15SmartBPMTrigger3getITn14TemplateStringXtlS6_ILm23EEtlA23_cLc98ELc101ELc97ELc116ELc115ELc45ELc112ELc101ELc114ELc45ELc109ELc105ELc110ELc117ELc116ELc101ELc45ELc119ELc105ELc100ELc116ELc104EEEEfEET0_PNS2_3ModEEUlfE_EEPNS2_13EventListenerINS2_22SettingChangedFilterV3EEENS_17basic_string_viewIcNS_11char_traitsIcEEEEOS9_SB_EUlNS_10shared_ptrINS2_9SettingV3EEEE_NS_9allocatorISP_EEFvSO_EED0Ev
PUBLIC 1842c 0 _ZNKSt6__ndk110__function6__funcIZN5geode25listenForSettingChangesV3IfZN15SmartBPMTrigger3getITn14TemplateStringXtlS6_ILm23EEtlA23_cLc98ELc101ELc97ELc116ELc115ELc45ELc112ELc101ELc114ELc45ELc109ELc105ELc110ELc117ELc116ELc101ELc45ELc119ELc105ELc100ELc116ELc104EEEEfEET0_PNS2_3ModEEUlfE_EEPNS2_13EventListenerINS2_22SettingChangedFilterV3EEENS_17basic_string_viewIcNS_11char_traitsIcEEEEOS9_SB_EUlNS_10shared_ptrINS2_9SettingV3EEEE_NS_9allocatorISP_EEFvSO_EE7__cloneEv
PUBLIC 18464 0 _ZNKSt6__ndk110__function6__funcIZN5geode25listenForSettingChangesV3IfZN15SmartBPMTrigger3getITn14TemplateStringXtlS6_ILm23EEtlA23_cLc98ELc101ELc97ELc116ELc115ELc45ELc112ELc101ELc114ELc45ELc109ELc105ELc110ELc117ELc116ELc101ELc45ELc119ELc105ELc100ELc116ELc104EEEEfEET0_PNS2_3ModEEUlfE_EEPNS2_13EventListenerINS2_22SettingChangedFilterV3EEENS_17basic_string_viewIcNS_11char_traitsIcEEEEOS9_SB_EUlNS_10shared_ptrINS2_9SettingV3EEEE_NS_9allocatorISP_EEFvSO_EE7__cloneEPNS0_6__baseISS_EE
PUBLIC 1847c 0 _ZNSt6__ndk110__function6__funcIZN5geode25listenForSettingChangesV3IfZN15SmartBPMTrigger3getITn14TemplateStringXtlS6_ILm23EEtlA23_cLc98ELc101ELc97ELc116ELc115ELc45ELc112ELc101ELc114ELc45ELc109ELc105ELc110ELc117ELc116ELc101ELc45ELc119ELc105ELc100ELc116ELc104EEEEfEET0_PNS2_3ModEEUlfE_EEPNS2_13EventListenerINS2_22SettingChangedFilterV3EEENS_17basic_string_viewIcNS_11char_traitsIcEEEEOS9_SB_EUlNS_10shared_ptrINS2_9SettingV3EEEE_NS_9allocatorISP_EEFvSO_EE7destroyEv
PUBLIC 18480 0 _ZNSt6__ndk110__function6__funcIZN5geode25listenForSettingChangesV3IfZN15SmartBPMTrigger3getITn14TemplateStringXtlS6_ILm23EEtlA23_cLc98ELc101ELc97ELc116ELc115ELc45ELc112ELc101ELc114ELc45ELc109ELc105ELc110ELc117ELc116ELc101ELc45ELc119ELc105ELc100ELc116ELc104EEEEfEET0_PNS2_3ModEEUlfE_EEPNS2_13EventListenerINS2_22SettingChangedFilterV3EEENS_17basic_string_viewIcNS_11char_traitsIcEEEEOS9_SB_EUlNS_10shared_ptrINS2_9SettingV3EEEE_NS_9allocatorISP_EEFvSO_EE18destroy_deallocateEv
PUBLIC 18484 0 _ZNSt6__ndk110__function6__funcIZN5geode25listenForSettingChangesV3IfZN15SmartBPMTrigger3getITn14TemplateStringXtlS6_ILm23EEtlA23_cLc98ELc101ELc97ELc116ELc115ELc45ELc112ELc101ELc114ELc45ELc109ELc105ELc110ELc117ELc116ELc101ELc45ELc119ELc105ELc100ELc116ELc104EEEEfEET0_PNS2_3ModEEUlfE_EEPNS2_13EventListenerINS2_22SettingChangedFilterV3EEENS_17basic_string_viewIcNS_11char_traitsIcEEEEOS9_SB_EUlNS_10shared_ptrINS2_9SettingV3EEEE_NS_9allocatorISP_EEFvSO_EEclEOSO_
PUBLIC 18578 0 _ZNKSt6__ndk110__function6__funcIZN5geode25listenForSettingChangesV3IfZN15SmartBPMTrigger3getITn14TemplateStringXtlS6_ILm23EEtlA23_cLc98ELc101ELc97ELc116ELc115ELc45ELc112ELc101ELc114ELc45ELc109ELc105ELc110ELc117ELc116ELc101ELc45ELc119ELc105ELc100ELc116ELc104EEEEfEET0_PNS2_3ModEEUlfE_EEPNS2_13EventListenerINS2_22SettingChangedFilterV3EEENS_17basic_string_viewIcNS_11char_traitsIcEEEEOS9_SB_EUlNS_10shared_ptrINS2_9SettingV3EEEE_NS_9allocatorISP_EEFvSO_EE6targetERKSt9type_info
PUBLIC 18594 0 _ZNKSt6__ndk110__function6__funcIZN5geode25listenForSettingChangesV3IfZN15SmartBPMTrigger3getITn14TemplateStringXtlS6_ILm23EEtlA23_cLc98ELc101ELc97ELc116ELc115ELc45ELc112ELc101ELc114ELc45ELc109ELc105ELc110ELc117ELc116ELc101ELc45ELc119ELc105ELc100ELc116ELc104EEEEfEET0_PNS2_3ModEEUlfE_EEPNS2_13EventListenerINS2_22SettingChangedFilterV3EEENS_17basic_string_viewIcNS_11char_traitsIcEEEEOS9_SB_EUlNS_10shared_ptrINS2_9SettingV3EEEE_NS_9allocatorISP_EEFvSO_EE11target_typeEv
PUBLIC 185a0 0 _ZN5geode25listenForSettingChangesV3IN7cocos2d10_ccColor4BEZN15SmartBPMTrigger3getITn14TemplateStringXtlS5_ILm20EEtlA20_cLc98ELc101ELc97ELc116ELc115ELc45ELc112ELc101ELc114ELc45ELc98ELc97ELc114ELc45ELc99ELc111ELc108ELc111ELc114EEEES2_EET0_PNS_3ModEEUlS2_E_EEPNS_13EventListenerINS_22SettingChangedFilterV3EEENSt6__ndk117basic_string_viewIcNSG_11char_traitsIcEEEEOS8_SA_
PUBLIC 187ec 0 _ZNSt6__ndk110__function6__funcIZN5geode25listenForSettingChangesV3IN7cocos2d10_ccColor4BEZN15SmartBPMTrigger3getITn14TemplateStringXtlS8_ILm20EEtlA20_cLc98ELc101ELc97ELc116ELc115ELc45ELc112ELc101ELc114ELc45ELc98ELc97ELc114ELc45ELc99ELc111ELc108ELc111ELc114EEEES5_EET0_PNS2_3ModEEUlS5_E_EEPNS2_13EventListenerINS2_22SettingChangedFilterV3EEENS_17basic_string_viewIcNS_11char_traitsIcEEEEOSB_SD_EUlNS_10shared_ptrINS2_9SettingV3EEEE_NS_9allocatorISR_EEFvSQ_EED0Ev
PUBLIC 187f0 0 _ZNKSt6__ndk110__function6__funcIZN5geode25listenForSettingChangesV3IN7cocos2d10_ccColor4BEZN15SmartBPMTrigger3getITn14TemplateStringXtlS8_ILm20EEtlA20_cLc98ELc101ELc97ELc116ELc115ELc45ELc112ELc101ELc114ELc45ELc98ELc97ELc114ELc45ELc99ELc111ELc108ELc111ELc114EEEES5_EET0_PNS2_3ModEEUlS5_E_EEPNS2_13EventListenerINS2_22SettingChangedFilterV3EEENS_17basic_string_viewIcNS_11char_traitsIcEEEEOSB_SD_EUlNS_10shared_ptrINS2_9SettingV3EEEE_NS_9allocatorISR_EEFvSQ_EE7__cloneEv
PUBLIC 18828 0 _ZNKSt6__ndk110__function6__funcIZN5geode25listenForSettingChangesV3IN7cocos2d10_ccColor4BEZN15SmartBPMTrigger3getITn14TemplateStringXtlS8_ILm20EEtlA20_cLc98ELc101ELc97ELc116ELc115ELc45ELc112ELc101ELc114ELc45ELc98ELc97ELc114ELc45ELc99ELc111ELc108ELc111ELc114EEEES5_EET0_PNS2_3ModEEUlS5_E_EEPNS2_13EventListenerINS2_22SettingChangedFilterV3EEENS_17basic_string_viewIcNS_11char_traitsIcEEEEOSB_SD_EUlNS_10shared_ptrINS2_9SettingV3EEEE_NS_9allocatorISR_EEFvSQ_EE7__cloneEPNS0_6__baseISU_EE
PUBLIC 18840 0 _ZNSt6__ndk110__function6__funcIZN5geode25listenForSettingChangesV3IN7cocos2d10_ccColor4BEZN15SmartBPMTrigger3getITn14TemplateStringXtlS8_ILm20EEtlA20_cLc98ELc101ELc97ELc116ELc115ELc45ELc112ELc101ELc114ELc45ELc98ELc97ELc114ELc45ELc99ELc111ELc108ELc111ELc114EEEES5_EET0_PNS2_3ModEEUlS5_E_EEPNS2_13EventListenerINS2_22SettingChangedFilterV3EEENS_17basic_string_viewIcNS_11char_traitsIcEEEEOSB_SD_EUlNS_10shared_ptrINS2_9SettingV3EEEE_NS_9allocatorISR_EEFvSQ_EE7destroyEv
PUBLIC 18844 0 _ZNSt6__ndk110__function6__funcIZN5geode25listenForSettingChangesV3IN7cocos2d10_ccColor4BEZN15SmartBPMTrigger3getITn14TemplateStringXtlS8_ILm20EEtlA20_cLc98ELc101ELc97ELc116ELc115ELc45ELc112ELc101ELc114ELc45ELc98ELc97ELc114ELc45ELc99ELc111ELc108ELc111ELc114EEEES5_EET0_PNS2_3ModEEUlS5_E_EEPNS2_13EventListenerINS2_22SettingChangedFilterV3EEENS_17basic_string_viewIcNS_11char_traitsIcEEEEOSB_SD_EUlNS_10shared_ptrINS2_9SettingV3EEEE_NS_9allocatorISR_EEFvSQ_EE18destroy_deallocateEv
PUBLIC 18848 0 _ZNSt6__ndk110__function6__funcIZN5geode25listenForSettingChangesV3IN7cocos2d10_ccColor4BEZN15SmartBPMTrigger3getITn14TemplateStringXtlS8_ILm20EEtlA20_cLc98ELc101ELc97ELc116ELc115ELc45ELc112ELc101ELc114ELc45ELc98ELc97ELc114ELc45ELc99ELc111ELc108ELc111ELc114EEEES5_EET0_PNS2_3ModEEUlS5_E_EEPNS2_13EventListenerINS2_22SettingChangedFilterV3EEENS_17basic_string_viewIcNS_11char_traitsIcEEEEOSB_SD_EUlNS_10shared_ptrINS2_9SettingV3EEEE_NS_9allocatorISR_EEFvSQ_EEclEOSQ_
PUBLIC 1893c 0 _ZNKSt6__ndk110__function6__funcIZN5geode25listenForSettingChangesV3IN7cocos2d10_ccColor4BEZN15SmartBPMTrigger3getITn14TemplateStringXtlS8_ILm20EEtlA20_cLc98ELc101ELc97ELc116ELc115ELc45ELc112ELc101ELc114ELc45ELc98ELc97ELc114ELc45ELc99ELc111ELc108ELc111ELc114EEEES5_EET0_PNS2_3ModEEUlS5_E_EEPNS2_13EventListenerINS2_22SettingChangedFilterV3EEENS_17basic_string_viewIcNS_11char_traitsIcEEEEOSB_SD_EUlNS_10shared_ptrINS2_9SettingV3EEEE_NS_9allocatorISR_EEFvSQ_EE6targetERKSt9type_info
PUBLIC 18958 0 _ZNKSt6__ndk110__function6__funcIZN5geode25listenForSettingChangesV3IN7cocos2d10_ccColor4BEZN15SmartBPMTrigger3getITn14TemplateStringXtlS8_ILm20EEtlA20_cLc98ELc101ELc97ELc116ELc115ELc45ELc112ELc101ELc114ELc45ELc98ELc97ELc114ELc45ELc99ELc111ELc108ELc111ELc114EEEES5_EET0_PNS2_3ModEEUlS5_E_EEPNS2_13EventListenerINS2_22SettingChangedFilterV3EEENS_17basic_string_viewIcNS_11char_traitsIcEEEEOSB_SD_EUlNS_10shared_ptrINS2_9SettingV3EEEE_NS_9allocatorISR_EEFvSQ_EE11target_typeEv
PUBLIC 18964 0 _ZN5geode25listenForSettingChangesV3IfZN15SmartBPMTrigger3getITn14TemplateStringXtlS3_ILm20EEtlA20_cLc98ELc101ELc97ELc116ELc115ELc45ELc112ELc101ELc114ELc45ELc98ELc97ELc114ELc45ELc119ELc105ELc100ELc116ELc104EEEEfEET0_PNS_3ModEEUlfE_EEPNS_13EventListenerINS_22SettingChangedFilterV3EEENSt6__ndk117basic_string_viewIcNSE_11char_traitsIcEEEEOS6_S8_
PUBLIC 18bb0 0 _ZNSt6__ndk110__function6__funcIZN5geode25listenForSettingChangesV3IfZN15SmartBPMTrigger3getITn14TemplateStringXtlS6_ILm20EEtlA20_cLc98ELc101ELc97ELc116ELc115ELc45ELc112ELc101ELc114ELc45ELc98ELc97ELc114ELc45ELc119ELc105ELc100ELc116ELc104EEEEfEET0_PNS2_3ModEEUlfE_EEPNS2_13EventListenerINS2_22SettingChangedFilterV3EEENS_17basic_string_viewIcNS_11char_traitsIcEEEEOS9_SB_EUlNS_10shared_ptrINS2_9SettingV3EEEE_NS_9allocatorISP_EEFvSO_EED0Ev
PUBLIC 18bb4 0 _ZNKSt6__ndk110__function6__funcIZN5geode25listenForSettingChangesV3IfZN15SmartBPMTrigger3getITn14TemplateStringXtlS6_ILm20EEtlA20_cLc98ELc101ELc97ELc116ELc115ELc45ELc112ELc101ELc114ELc45ELc98ELc97ELc114ELc45ELc119ELc105ELc100ELc116ELc104EEEEfEET0_PNS2_3ModEEUlfE_EEPNS2_13EventListenerINS2_22SettingChangedFilterV3EEENS_17basic_string_viewIcNS_11char_traitsIcEEEEOS9_SB_EUlNS_10shared_ptrINS2_9SettingV3EEEE_NS_9allocatorISP_EEFvSO_EE7__cloneEv
PUBLIC 18bec 0 _ZNKSt6__ndk110__function6__funcIZN5geode25listenForSettingChangesV3IfZN15SmartBPMTrigger3getITn14TemplateStringXtlS6_ILm20EEtlA20_cLc98ELc101ELc97ELc116ELc115ELc45ELc112ELc101ELc114ELc45ELc98ELc97ELc114ELc45ELc119ELc105ELc100ELc116ELc104EEEEfEET0_PNS2_3ModEEUlfE_EEPNS2_13EventListenerINS2_22SettingChangedFilterV3EEENS_17basic_string_viewIcNS_11char_traitsIcEEEEOS9_SB_EUlNS_10shared_ptrINS2_9SettingV3EEEE_NS_9allocatorISP_EEFvSO_EE7__cloneEPNS0_6__baseISS_EE
PUBLIC 18c04 0 _ZNSt6__ndk110__function6__funcIZN5geode25listenForSettingChangesV3IfZN15SmartBPMTrigger3getITn14TemplateStringXtlS6_ILm20EEtlA20_cLc98ELc101ELc97ELc116ELc115ELc45ELc112ELc101ELc114ELc45ELc98ELc97ELc114ELc45ELc119ELc105ELc100ELc116ELc104EEEEfEET0_PNS2_3ModEEUlfE_EEPNS2_13EventListenerINS2_22SettingChangedFilterV3EEENS_17basic_string_viewIcNS_11char_traitsIcEEEEOS9_SB_EUlNS_10shared_ptrINS2_9SettingV3EEEE_NS_9allocatorISP_EEFvSO_EE7destroyEv
PUBLIC 18c08 0 _ZNSt6__ndk110__function6__funcIZN5geode25listenForSettingChangesV3IfZN15SmartBPMTrigger3getITn14TemplateStringXtlS6_ILm20EEtlA20_cLc98ELc101ELc97ELc116ELc115ELc45ELc112ELc101ELc114ELc45ELc98ELc97ELc114ELc45ELc119ELc105ELc100ELc116ELc104EEEEfEET0_PNS2_3ModEEUlfE_EEPNS2_13EventListenerINS2_22SettingChangedFilterV3EEENS_17basic_string_viewIcNS_11char_traitsIcEEEEOS9_SB_EUlNS_10shared_ptrINS2_9SettingV3EEEE_NS_9allocatorISP_EEFvSO_EE18destroy_deallocateEv
PUBLIC 18c0c 0 _ZNSt6__ndk110__function6__funcIZN5geode25listenForSettingChangesV3IfZN15SmartBPMTrigger3getITn14TemplateStringXtlS6_ILm20EEtlA20_cLc98ELc101ELc97ELc116ELc115ELc45ELc112ELc101ELc114ELc45ELc98ELc97ELc114ELc45ELc119ELc105ELc100ELc116ELc104EEEEfEET0_PNS2_3ModEEUlfE_EEPNS2_13EventListenerINS2_22SettingChangedFilterV3EEENS_17basic_string_viewIcNS_11char_traitsIcEEEEOS9_SB_EUlNS_10shared_ptrINS2_9SettingV3EEEE_NS_9allocatorISP_EEFvSO_EEclEOSO_
PUBLIC 18d00 0 _ZNKSt6__ndk110__function6__funcIZN5geode25listenForSettingChangesV3IfZN15SmartBPMTrigger3getITn14TemplateStringXtlS6_ILm20EEtlA20_cLc98ELc101ELc97ELc116ELc115ELc45ELc112ELc101ELc114ELc45ELc98ELc97ELc114ELc45ELc119ELc105ELc100ELc116ELc104EEEEfEET0_PNS2_3ModEEUlfE_EEPNS2_13EventListenerINS2_22SettingChangedFilterV3EEENS_17basic_string_viewIcNS_11char_traitsIcEEEEOS9_SB_EUlNS_10shared_ptrINS2_9SettingV3EEEE_NS_9allocatorISP_EEFvSO_EE6targetERKSt9type_info
PUBLIC 18d1c 0 _ZNKSt6__ndk110__function6__funcIZN5geode25listenForSettingChangesV3IfZN15SmartBPMTrigger3getITn14TemplateStringXtlS6_ILm20EEtlA20_cLc98ELc101ELc97ELc116ELc115ELc45ELc112ELc101ELc114ELc45ELc98ELc97ELc114ELc45ELc119ELc105ELc100ELc116ELc104EEEEfEET0_PNS2_3ModEEUlfE_EEPNS2_13EventListenerINS2_22SettingChangedFilterV3EEENS_17basic_string_viewIcNS_11char_traitsIcEEEEOS9_SB_EUlNS_10shared_ptrINS2_9SettingV3EEEE_NS_9allocatorISP_EEFvSO_EE11target_typeEv
PUBLIC 18d28 0 _GLOBAL__sub_I_SmartBPMTrigger.cpp
PUBLIC 18e54 0 geode::getMod()
PUBLIC m 18e90 0 geodeImplicitEntry
PUBLIC 18ecc 0 std::__ndk1::unordered_map<void*, bool, std::__ndk1::hash<void*>, std::__ndk1::equal_to<void*>, std::__ndk1::allocator<std::__ndk1::pair<void* const, bool> > >::~unordered_map[abi:ne180000]()
PUBLIC 18f18 0 wrapFunction(unsigned long, tulip::hook::WrapperMetadata const&)
PUBLIC 1904c 0 geode::impl::ResultData<void*, std::__ndk1::basic_string<char, std::__ndk1::char_traits<char>, std::__ndk1::allocator<char> > >::unwrapErr() &
PUBLIC 190c4 0 geode::impl::ResultData<void*, std::__ndk1::basic_string<char, std::__ndk1::char_traits<char>, std::__ndk1::allocator<char> > >::~ResultData()
PUBLIC 19138 0 tulip::hook::WrapperMetadata::~WrapperMetadata()
PUBLIC 1919c 0 cocos2d::CCObject::~CCObject()
PUBLIC 191c0 0 cocos2d::CCNode::~CCNode()
PUBLIC 191e4 0 {virtual override thunk({offset(-320)}, cocos2d::CCLayer::~CCLayer())}
PUBLIC 191ec 0 cocos2d::CCLayer::~CCLayer()
PUBLIC 19210 0 {virtual override thunk({offset(-320)}, cocos2d::CCLayer::~CCLayer())}
PUBLIC 19238 0 cocos2d::CCDictionary::valueForKey(gd::string const&)
PUBLIC 19388 0 tulip::hook::AbstractFunction::from<cocos2d::CCString const*, cocos2d::CCDictionary*, gd::string const&>(cocos2d::CCString const* (*)(cocos2d::CCDictionary*, gd::string const&))
PUBLIC 19430 0 cocos2d::CCCopying::copyWithZone(cocos2d::CCZone*)
PUBLIC 19438 0 cocos2d::CCObject::update(float)
PUBLIC 1943c 0 cocos2d::CCKeyboardDelegate::keyUp(cocos2d::enumKeyCodes)
PUBLIC 19440 0 cocos2d::CCMouseDelegate::rightKeyDown()
PUBLIC 19444 0 cocos2d::CCMouseDelegate::rightKeyUp()
PUBLIC 19448 0 cocos2d::CCMouseDelegate::scrollWheel(float, float)
PUBLIC 1944c 0 cocos2d::CCNode::~CCNode()
PUBLIC 196c4 0 cocos2d::CCLayer::~CCLayer()
PUBLIC 1998c 0 cocos2d::CCObject::~CCObject()
PUBLIC 19e58 0 _ZN5geode15UnwrapExceptionC2IRPvQsr4implE18IsStringStreamableIT_EEENS_4impl5OkTagEOS4_
PUBLIC 19fac 0 std::__ndk1::__variant_detail::__visitation::__base::__dispatcher<(unsigned long)0>::__dispatch[abi:ne180000]<std::__ndk1::__variant_detail::__dtor<std::__ndk1::__variant_detail::__traits<void*, std::__ndk1::basic_string<char, std::__ndk1::char_traits<char>, std::__ndk1::allocator<char> > >, (std::__ndk1::__variant_detail::_Trait)1>::__destroy[abi:ne180000]()::{lambda(auto:1&)#1}, std::__ndk1::__variant_detail::__base<(std::__ndk1::__variant_detail::__traits<void*, std::__ndk1::basic_string<char, std::__ndk1::char_traits<char>, std::__ndk1::allocator<char> > >)1, std::__ndk1::__variant_detail::__traits, std::__ndk1::allocator<char> >&>(std::__ndk1::__variant_detail::__dtor<std::__ndk1::__variant_detail::__traits<void*, std::__ndk1::basic_string<char, std::__ndk1::char_traits<char>, std::__ndk1::allocator<char> > >, (std::__ndk1::__variant_detail::_Trait)1>, std::__ndk1::__variant_detail::__base<(std::__ndk1::__variant_detail::__traits<void*, std::__ndk1::basic_string<char, std::__ndk1::char_traits<char>, std::__ndk1::allocator<char> > >)1, std::__ndk1::__variant_detail::__traits, std::__ndk1::allocator<char> >&)
PUBLIC 19fb0 0 std::__ndk1::__variant_detail::__visitation::__base::__dispatcher<(unsigned long)1>::__dispatch[abi:ne180000]<std::__ndk1::__variant_detail::__dtor<std::__ndk1::__variant_detail::__traits<void*, std::__ndk1::basic_string<char, std::__ndk1::char_traits<char>, std::__ndk1::allocator<char> > >, (std::__ndk1::__variant_detail::_Trait)1>::__destroy[abi:ne180000]()::{lambda(auto:1&)#1}, std::__ndk1::__variant_detail::__base<(std::__ndk1::__variant_detail::__traits<void*, std::__ndk1::basic_string<char, std::__ndk1::char_traits<char>, std::__ndk1::allocator<char> > >)1, std::__ndk1::__variant_detail::__traits, std::__ndk1::allocator<char> >&>(std::__ndk1::__variant_detail::__dtor<std::__ndk1::__variant_detail::__traits<void*, std::__ndk1::basic_string<char, std::__ndk1::char_traits<char>, std::__ndk1::allocator<char> > >, (std::__ndk1::__variant_detail::_Trait)1>, std::__ndk1::__variant_detail::__base<(std::__ndk1::__variant_detail::__traits<void*, std::__ndk1::basic_string<char, std::__ndk1::char_traits<char>, std::__ndk1::allocator<char> > >)1, std::__ndk1::__variant_detail::__traits, std::__ndk1::allocator<char> >&)
PUBLIC 19fc4 0 std::__ndk1::__hash_table<std::__ndk1::__hash_value_type<void*, bool>, std::__ndk1::__unordered_map_hasher<void*, std::__ndk1::__hash_value_type<void*, bool>, std::__ndk1::hash<void*>, std::__ndk1::equal_to<void*>, true>, std::__ndk1::__unordered_map_equal<void*, std::__ndk1::__hash_value_type<void*, bool>, std::__ndk1::equal_to<void*>, std::__ndk1::hash<void*>, true>, std::__ndk1::allocator<std::__ndk1::__hash_value_type<void*, bool> > >::__emplace_unique_key_args<void*, std::__ndk1::piecewise_construct_t const&, std::__ndk1::tuple<void* const&>, std::__ndk1::tuple<> >(void* const&, std::__ndk1::piecewise_construct_t const&, std::__ndk1::tuple<void* const&>, std::__ndk1::tuple<>)
PUBLIC 1a4b0 0 <.plt ELF section in hiimjasmine00.smart_bpm_trigger.android64.so>
STACK CFI INIT f0c0 10 .cfa: sp 0 +
STACK CFI INIT f0d0 8 .cfa: sp 0 +
STACK CFI INIT f0d8 8 .cfa: sp 0 +
STACK CFI INIT f0e0 14 .cfa: sp 0 +
STACK CFI INIT f0f4 1c .cfa: sp 0 +
STACK CFI INIT f110 10 .cfa: sp 0 +
STACK CFI INIT f120 30 .cfa: sp 0 +
STACK CFI INIT f150 98 .cfa: sp 0 +
STACK CFI INIT f1e8 59c .cfa: sp 0 +
STACK CFI INIT f784 8c .cfa: sp 0 +
STACK CFI INIT f810 30 .cfa: sp 0 +
STACK CFI INIT 10050 1c .cfa: sp 0 +
STACK CFI INIT 105cc 54 .cfa: sp 0 +
STACK CFI 105d0 .cfa: sp 32 +
STACK CFI 105d8 .cfa: x29 32 + x19: .cfa -16 + ^ .ra: .cfa -24 + ^ x29: .cfa -32 + ^
STACK CFI 10608 .cfa: sp 32 +
STACK CFI 10610 .cfa: sp 0 +
STACK CFI 10614 .cfa: sp 32 +
STACK CFI 1061c .cfa: sp 0 +
STACK CFI INIT 10620 14 .cfa: sp 0 +
STACK CFI 10624 .cfa: sp 16 +
STACK CFI 10628 .cfa: x29 16 + .ra: .cfa -8 + ^ x29: .cfa -16 + ^
STACK CFI INIT 10634 10 .cfa: sp 0 +
STACK CFI 10638 .cfa: sp 16 +
STACK CFI 1063c .cfa: x29 16 + .ra: .cfa -8 + ^ x29: .cfa -16 + ^
STACK CFI INIT 10694 30 .cfa: sp 0 +
STACK CFI 10698 .cfa: sp 32 +
STACK CFI 106a0 .cfa: x29 32 + x19: .cfa -16 + ^ .ra: .cfa -24 + ^ x29: .cfa -32 + ^
STACK CFI 106b8 .cfa: sp 32 +
STACK CFI 106c0 .cfa: sp 0 +
STACK CFI INIT 106c4 34 .cfa: sp 0 +
STACK CFI 106c8 .cfa: sp 32 +
STACK CFI 106d0 .cfa: x29 32 + x19: .cfa -16 + ^ .ra: .cfa -24 + ^ x29: .cfa -32 + ^
STACK CFI INIT 10924 14 .cfa: sp 0 +
STACK CFI 10928 .cfa: sp 16 +
STACK CFI 1092c .cfa: x29 16 + .ra: .cfa -8 + ^ x29: .cfa -16 + ^
STACK CFI INIT 10938 14 .cfa: sp 0 +
STACK CFI 1093c .cfa: sp 16 +
STACK CFI 10940 .cfa: x29 16 + .ra: .cfa -8 + ^ x29: .cfa -16 + ^
STACK CFI INIT 1099c 30 .cfa: sp 0 +
STACK CFI 109a0 .cfa: sp 32 +
STACK CFI 109a8 .cfa: x29 32 + x19: .cfa -16 + ^ .ra: .cfa -24 + ^ x29: .cfa -32 + ^
STACK CFI 109c0 .cfa: sp 32 +
STACK CFI 109c8 .cfa: sp 0 +
STACK CFI INIT 109cc 14 .cfa: sp 0 +
STACK CFI 109d0 .cfa: sp 16 +
STACK CFI 109d4 .cfa: x29 16 + .ra: .cfa -8 + ^ x29: .cfa -16 + ^
STACK CFI INIT 109e0 4 .cfa: sp 0 +
STACK CFI INIT 109e4 4 .cfa: sp 0 +
STACK CFI INIT 109e8 38 .cfa: sp 0 +
STACK CFI 109ec .cfa: sp 32 +
STACK CFI 109f4 .cfa: x29 32 + x19: .cfa -16 + ^ .ra: .cfa -24 + ^ x29: .cfa -32 + ^
STACK CFI 10a14 .cfa: sp 32 +
STACK CFI 10a1c .cfa: sp 0 +
STACK CFI INIT 10a20 18 .cfa: sp 0 +
STACK CFI INIT 10a38 4 .cfa: sp 0 +
STACK CFI INIT 10a3c 4 .cfa: sp 0 +
STACK CFI INIT 10a40 10 .cfa: sp 0 +
STACK CFI INIT 10a50 1c .cfa: sp 0 +
STACK CFI INIT 10a6c c .cfa: sp 0 +
STACK CFI INIT 10a78 14 .cfa: sp 0 +
STACK CFI 10a7c .cfa: sp 16 +
STACK CFI 10a80 .cfa: x29 16 + .ra: .cfa -8 + ^ x29: .cfa -16 + ^
STACK CFI INIT 10da8 50 .cfa: sp 0 +
STACK CFI 10dac .cfa: sp 32 +
STACK CFI 10db4 .cfa: x29 32 + x19: .cfa -16 + ^ .ra: .cfa -24 + ^ x29: .cfa -32 + ^
STACK CFI 10dcc .cfa: sp 32 +
STACK CFI 10dd4 .cfa: sp 0 +
STACK CFI 10dd8 .cfa: x29 32 +
STACK CFI 10dec .cfa: sp 32 +
STACK CFI 10df4 .cfa: sp 0 +
STACK CFI INIT 10e6c 7c .cfa: sp 0 +
STACK CFI 10e70 .cfa: sp 48 +
STACK CFI 10e7c .cfa: x29 48 + x19: .cfa -8 + ^ x20: .cfa -16 + ^ x21: .cfa -32 + ^ .ra: .cfa -40 + ^ x29: .cfa -48 + ^
STACK CFI 10ec8 .cfa: sp 48 +
STACK CFI 10ed4 .cfa: sp 0 +
STACK CFI 10ed8 .cfa: sp 48 +
STACK CFI 10ee4 .cfa: sp 0 +
STACK CFI INIT 10ee8 4 .cfa: sp 0 +
STACK CFI INIT 10eec 14 .cfa: sp 0 +
STACK CFI 10ef0 .cfa: sp 16 +
STACK CFI 10ef4 .cfa: x29 16 + .ra: .cfa -8 + ^ x29: .cfa -16 + ^
STACK CFI INIT 10f00 120 .cfa: sp 0 +
STACK CFI 10f04 .cfa: sp 64 +
STACK CFI 10f14 .cfa: x29 64 + x19: .cfa -8 + ^ x20: .cfa -16 + ^ x21: .cfa -24 + ^ x22: .cfa -32 + ^ x23: .cfa -40 + ^ x24: .cfa -48 + ^ .ra: .cfa -56 + ^ x29: .cfa -64 + ^
STACK CFI 1100c .cfa: sp 64 +
STACK CFI 1101c .cfa: sp 0 +
STACK CFI INIT 11214 7c .cfa: sp 0 +
STACK CFI 11218 .cfa: sp 32 +
STACK CFI 11220 .cfa: x29 32 + x19: .cfa -8 + ^ x20: .cfa -16 + ^ .ra: .cfa -24 + ^ x29: .cfa -32 + ^
STACK CFI 11278 .cfa: sp 32 +
STACK CFI 11280 .cfa: sp 0 +
STACK CFI 11284 .cfa: sp 32 +
STACK CFI 1128c .cfa: sp 0 +
STACK CFI INIT 11290 80 .cfa: sp 0 +
STACK CFI 11294 .cfa: sp 48 +
STACK CFI 112a0 .cfa: x29 48 + x19: .cfa -8 + ^ x20: .cfa -16 + ^ x21: .cfa -24 + ^ x22: .cfa -32 + ^ .ra: .cfa -40 + ^ x29: .cfa -48 + ^
STACK CFI 112b8 .cfa: sp 48 +
STACK CFI 112c4 .cfa: sp 0 +
STACK CFI 112c8 .cfa: x29 48 +
STACK CFI 112f8 .cfa: sp 48 +
STACK CFI 11304 .cfa: sp 0 +
STACK CFI 11308 .cfa: x29 48 +
STACK CFI INIT 11310 1b0 .cfa: sp 0 +
STACK CFI INIT 11628 34 .cfa: sp 0 +
STACK CFI 1162c .cfa: sp 16 +
STACK CFI 11630 .cfa: x29 16 + .ra: .cfa -8 + ^ x29: .cfa -16 + ^
STACK CFI INIT 11788 80 .cfa: sp 0 +
STACK CFI 1178c .cfa: sp 48 +
STACK CFI 11798 .cfa: x29 48 + x19: .cfa -8 + ^ x20: .cfa -16 + ^ x21: .cfa -32 + ^ .ra: .cfa -40 + ^ x29: .cfa -48 + ^
STACK CFI 117f8 .cfa: sp 48 +
STACK CFI 11804 .cfa: sp 0 +
STACK CFI INIT 11808 24 .cfa: sp 0 +
STACK CFI 1180c .cfa: sp 32 +
STACK CFI 11814 .cfa: x29 32 + x19: .cfa -16 + ^ .ra: .cfa -24 + ^ x29: .cfa -32 + ^
STACK CFI 11820 .cfa: sp 32 +
STACK CFI 11828 .cfa: sp 0 +
STACK CFI INIT 11d24 148 .cfa: sp 0 +
STACK CFI 11d28 .cfa: sp 48 +
STACK CFI 11d34 .cfa: x29 48 + x19: .cfa -8 + ^ x20: .cfa -16 + ^ x21: .cfa -32 + ^ .ra: .cfa -40 + ^ x29: .cfa -48 + ^
STACK CFI 11e5c .cfa: sp 48 +
STACK CFI 11e68 .cfa: sp 0 +
STACK CFI INIT 11f60 50 .cfa: sp 0 +
STACK CFI 11f64 .cfa: sp 32 +
STACK CFI 11f6c .cfa: x29 32 + x19: .cfa -16 + ^ .ra: .cfa -24 + ^ x29: .cfa -32 + ^
STACK CFI 11f84 .cfa: sp 32 +
STACK CFI 11f8c .cfa: sp 0 +
STACK CFI 11f90 .cfa: x29 32 +
STACK CFI 11fa4 .cfa: sp 32 +
STACK CFI 11fac .cfa: sp 0 +
STACK CFI INIT 11fb0 4 .cfa: sp 0 +
STACK CFI INIT 11fb4 4 .cfa: sp 0 +
STACK CFI INIT 11fb8 34 .cfa: sp 0 +
STACK CFI 11fbc .cfa: sp 32 +
STACK CFI 11fc4 .cfa: x29 32 + x19: .cfa -16 + ^ .ra: .cfa -24 + ^ x29: .cfa -32 + ^
STACK CFI 11fe0 .cfa: sp 32 +
STACK CFI 11fe8 .cfa: sp 0 +
STACK CFI INIT 11fec 14 .cfa: sp 0 +
STACK CFI INIT 12000 4 .cfa: sp 0 +
STACK CFI INIT 12004 4 .cfa: sp 0 +
STACK CFI INIT 12250 1c .cfa: sp 0 +
STACK CFI INIT 1226c c .cfa: sp 0 +
STACK CFI INIT 12278 50 .cfa: sp 0 +
STACK CFI 1227c .cfa: sp 32 +
STACK CFI 12284 .cfa: x29 32 + x19: .cfa -16 + ^ .ra: .cfa -24 + ^ x29: .cfa -32 + ^
STACK CFI 1229c .cfa: sp 32 +
STACK CFI 122a4 .cfa: sp 0 +
STACK CFI 122a8 .cfa: x29 32 +
STACK CFI 122bc .cfa: sp 32 +
STACK CFI 122c4 .cfa: sp 0 +
STACK CFI INIT 122c8 50 .cfa: sp 0 +
STACK CFI 122cc .cfa: sp 32 +
STACK CFI 122d4 .cfa: x29 32 + x19: .cfa -16 + ^ .ra: .cfa -24 + ^ x29: .cfa -32 + ^
STACK CFI 122ec .cfa: sp 32 +
STACK CFI 122f4 .cfa: sp 0 +
STACK CFI 122f8 .cfa: x29 32 +
STACK CFI 1230c .cfa: sp 32 +
STACK CFI 12314 .cfa: sp 0 +
STACK CFI INIT 12318 104 .cfa: sp 0 +
STACK CFI 1231c .cfa: sp 64 +
STACK CFI 1232c .cfa: x29 64 + x19: .cfa -8 + ^ x20: .cfa -16 + ^ x21: .cfa -24 + ^ x22: .cfa -32 + ^ x23: .cfa -48 + ^ .ra: .cfa -56 + ^ x29: .cfa -64 + ^
STACK CFI 12388 .cfa: sp 64 +
STACK CFI 12398 .cfa: sp 0 +
STACK CFI 1239c .cfa: x29 64 +
STACK CFI 123b8 .cfa: sp 64 +
STACK CFI 123c8 .cfa: sp 0 +
STACK CFI 123cc .cfa: x29 64 +
STACK CFI 12408 .cfa: sp 64 +
STACK CFI 12418 .cfa: sp 0 +
STACK CFI INIT 12490 4 .cfa: sp 0 +
STACK CFI INIT 12494 14 .cfa: sp 0 +
STACK CFI INIT 124a8 4 .cfa: sp 0 +
STACK CFI INIT 12620 9c .cfa: sp 0 +
STACK CFI 12624 .cfa: sp 32 +
STACK CFI 1262c .cfa: x29 32 + x19: .cfa -8 + ^ x20: .cfa -16 + ^ .ra: .cfa -24 + ^ x29: .cfa -32 + ^
STACK CFI 126b0 .cfa: sp 32 +
STACK CFI 126b8 .cfa: sp 0 +
STACK CFI INIT 126bc a4 .cfa: sp 0 +
STACK CFI 126c0 .cfa: sp 32 +
STACK CFI 126c8 .cfa: x29 32 + x19: .cfa -8 + ^ x20: .cfa -16 + ^ .ra: .cfa -24 + ^ x29: .cfa -32 + ^
STACK CFI 12754 .cfa: sp 32 +
STACK CFI 1275c .cfa: sp 0 +
STACK CFI INIT 12adc 68 .cfa: sp 0 +
STACK CFI 12ae0 .cfa: sp 32 +
STACK CFI 12ae8 .cfa: x29 32 + x19: .cfa -8 + ^ x20: .cfa -16 + ^ .ra: .cfa -24 + ^ x29: .cfa -32 + ^
STACK CFI 12b00 .cfa: sp 32 +
STACK CFI 12b08 .cfa: sp 0 +
STACK CFI 12b0c .cfa: x29 32 +
STACK CFI 12b38 .cfa: sp 32 +
STACK CFI 12b40 .cfa: sp 0 +
STACK CFI INIT 12b44 14 .cfa: sp 0 +
STACK CFI 12b48 .cfa: sp 16 +
STACK CFI 12b4c .cfa: x29 16 + .ra: .cfa -8 + ^ x29: .cfa -16 + ^
STACK CFI INIT 12b58 4 .cfa: sp 0 +
STACK CFI INIT 12b5c 14 .cfa: sp 0 +
STACK CFI INIT 12b70 d4 .cfa: sp 0 +
STACK CFI 12b74 .cfa: sp 48 +
STACK CFI 12b80 .cfa: x29 48 + x19: .cfa -8 + ^ x20: .cfa -16 + ^ x21: .cfa -32 + ^ .ra: .cfa -40 + ^ x29: .cfa -48 + ^
STACK CFI 12c10 .cfa: sp 48 +
STACK CFI 12c1c .cfa: sp 0 +
STACK CFI 12c20 .cfa: x29 48 +
STACK CFI INIT 12c44 3c8 .cfa: sp 0 +
STACK CFI INIT 1300c 8c .cfa: sp 0 +
STACK CFI 13014 .cfa: sp 32 +
STACK CFI 1301c .cfa: x29 32 + x19: .cfa -8 + ^ x20: .cfa -16 + ^ .ra: .cfa -24 + ^ x29: .cfa -32 + ^
STACK CFI 13064 .cfa: sp 32 +
STACK CFI 1306c .cfa: sp 0 +
STACK CFI 13074 .cfa: x29 32 +
STACK CFI INIT 148d4 78 .cfa: sp 0 +
STACK CFI 148d8 .cfa: sp 48 +
STACK CFI 148e4 .cfa: x29 48 + x19: .cfa -8 + ^ x20: .cfa -16 + ^ x21: .cfa -32 + ^ .ra: .cfa -40 + ^ x29: .cfa -48 + ^
STACK CFI 1492c .cfa: sp 48 +
STACK CFI 14938 .cfa: sp 0 +
STACK CFI 1493c .cfa: sp 48 +
STACK CFI 14948 .cfa: sp 0 +
STACK CFI INIT 1494c 50 .cfa: sp 0 +
STACK CFI 14950 .cfa: sp 32 +
STACK CFI 14958 .cfa: x29 32 + x19: .cfa -16 + ^ .ra: .cfa -24 + ^ x29: .cfa -32 + ^
STACK CFI 14970 .cfa: sp 32 +
STACK CFI 14978 .cfa: sp 0 +
STACK CFI 1497c .cfa: x29 32 +
STACK CFI 14990 .cfa: sp 32 +
STACK CFI 14998 .cfa: sp 0 +
STACK CFI INIT 1499c 64 .cfa: sp 0 +
STACK CFI 149a0 .cfa: sp 32 +
STACK CFI 149a8 .cfa: x29 32 + x19: .cfa -16 + ^ .ra: .cfa -24 + ^ x29: .cfa -32 + ^
STACK CFI 149d4 .cfa: sp 32 +
STACK CFI 149dc .cfa: sp 0 +
STACK CFI 149e0 .cfa: x29 32 +
STACK CFI 149f4 .cfa: sp 32 +
STACK CFI 149fc .cfa: sp 0 +
STACK CFI INIT 14a00 4c .cfa: sp 0 +
STACK CFI 14a04 .cfa: sp 32 +
STACK CFI 14a0c .cfa: x29 32 + x19: .cfa -8 + ^ x20: .cfa -16 + ^ .ra: .cfa -24 + ^ x29: .cfa -32 + ^
STACK CFI 14a34 .cfa: sp 32 +
STACK CFI 14a3c .cfa: sp 0 +
STACK CFI 14a40 .cfa: sp 32 +
STACK CFI 14a48 .cfa: sp 0 +
STACK CFI INIT 14d2c 14 .cfa: sp 0 +
STACK CFI 14d30 .cfa: sp 16 +
STACK CFI 14d34 .cfa: x29 16 + .ra: .cfa -8 + ^ x29: .cfa -16 + ^
STACK CFI INIT 14d40 178 .cfa: sp 0 +
STACK CFI 14d44 .cfa: sp 80 +
STACK CFI 14d58 .cfa: x29 80 + x19: .cfa -8 + ^ x20: .cfa -16 + ^ x21: .cfa -24 + ^ x22: .cfa -32 + ^ x23: .cfa -40 + ^ x24: .cfa -48 + ^ x25: .cfa -56 + ^ x26: .cfa -64 + ^ .ra: .cfa -72 + ^ x29: .cfa -80 + ^
STACK CFI 14ea0 .cfa: sp 80 +
STACK CFI 14eb4 .cfa: sp 0 +
STACK CFI INIT 1568c 1c .cfa: sp 0 +
STACK CFI INIT 15b34 4 .cfa: sp 0 +
STACK CFI INIT 15ce8 4 .cfa: sp 0 +
STACK CFI INIT 15cec 38 .cfa: sp 0 +
STACK CFI 15cf0 .cfa: sp 32 +
STACK CFI 15cf8 .cfa: x29 32 + x19: .cfa -16 + ^ .ra: .cfa -24 + ^ x29: .cfa -32 + ^
STACK CFI 15d18 .cfa: sp 32 +
STACK CFI 15d20 .cfa: sp 0 +
STACK CFI INIT 15d24 18 .cfa: sp 0 +
STACK CFI INIT 15d3c 4 .cfa: sp 0 +
STACK CFI INIT 15d40 4 .cfa: sp 0 +
STACK CFI INIT 1606c 1c .cfa: sp 0 +
STACK CFI INIT 16088 c .cfa: sp 0 +
STACK CFI INIT 1639c 13c .cfa: sp 0 +
STACK CFI 163a0 .cfa: sp 64 +
STACK CFI 163b0 .cfa: x29 48 + x19: .cfa -8 + ^ x20: .cfa -16 + ^ x21: .cfa -32 + ^ .ra: .cfa -40 + ^ x29: .cfa -48 + ^
STACK CFI 164c0 .cfa: sp 64 +
STACK CFI 164d0 .cfa: sp 0 +
STACK CFI 164d4 .cfa: x29 48 +
STACK CFI INIT 16b6c 4 .cfa: sp 0 +
STACK CFI INIT 1700c 1c .cfa: sp 0 +
STACK CFI INIT 173b0 4 .cfa: sp 0 +
STACK CFI INIT 173b4 f0 .cfa: sp 0 +
STACK CFI 173b8 .cfa: sp 32 +
STACK CFI 173c0 .cfa: x29 32 + x19: .cfa -8 + ^ x20: .cfa -16 + ^ .ra: .cfa -24 + ^ x29: .cfa -32 + ^
STACK CFI 17498 .cfa: sp 32 +
STACK CFI 174a0 .cfa: sp 0 +
STACK CFI INIT 174a4 1c .cfa: sp 0 +
STACK CFI 174a8 .cfa: sp 16 +
STACK CFI 174ac .cfa: x29 16 + .ra: .cfa -8 + ^ x29: .cfa -16 + ^
STACK CFI 174b8 .cfa: sp 16 +
STACK CFI 174bc .cfa: sp 0 +
STACK CFI INIT 175ac 4 .cfa: sp 0 +
STACK CFI INIT 17724 5c .cfa: sp 0 +
STACK CFI 17728 .cfa: sp 32 +
STACK CFI 17730 .cfa: x29 32 + x19: .cfa -16 + ^ .ra: .cfa -24 + ^ x29: .cfa -32 + ^
STACK CFI 17774 .cfa: sp 32 +
STACK CFI 1777c .cfa: sp 0 +
STACK CFI INIT 17780 64 .cfa: sp 0 +
STACK CFI 17784 .cfa: sp 32 +
STACK CFI 1778c .cfa: x29 32 + x19: .cfa -16 + ^ .ra: .cfa -24 + ^ x29: .cfa -32 + ^
STACK CFI 177d8 .cfa: sp 32 +
STACK CFI 177e0 .cfa: sp 0 +
STACK CFI INIT 177e4 4 .cfa: sp 0 +
STACK CFI INIT 177e8 4 .cfa: sp 0 +
STACK CFI INIT 177ec 34 .cfa: sp 0 +
STACK CFI 177f0 .cfa: sp 32 +
STACK CFI 177f8 .cfa: x29 32 + x19: .cfa -16 + ^ .ra: .cfa -24 + ^ x29: .cfa -32 + ^
STACK CFI 17814 .cfa: sp 32 +
STACK CFI 1781c .cfa: sp 0 +
STACK CFI INIT 17820 14 .cfa: sp 0 +
STACK CFI INIT 17834 4 .cfa: sp 0 +
STACK CFI INIT 17838 4 .cfa: sp 0 +
STACK CFI INIT 1783c 10 .cfa: sp 0 +
STACK CFI INIT 1784c 1c .cfa: sp 0 +
STACK CFI INIT 17868 c .cfa: sp 0 +
STACK CFI INIT 17874 a8 .cfa: sp 0 +
STACK CFI 17878 .cfa: sp 80 +
STACK CFI 17888 .cfa: x29 48 + x19: .cfa -8 + ^ x20: .cfa -16 + ^ x21: .cfa -24 + ^ x22: .cfa -32 + ^ .ra: .cfa -40 + ^ x29: .cfa -48 + ^
STACK CFI 17904 .cfa: sp 80 +
STACK CFI 17914 .cfa: sp 0 +
STACK CFI 17918 .cfa: x29 48 +
STACK CFI INIT 17b68 4 .cfa: sp 0 +
STACK CFI INIT 17b6c 38 .cfa: sp 0 +
STACK CFI 17b70 .cfa: sp 32 +
STACK CFI 17b78 .cfa: x29 32 + x19: .cfa -16 + ^ .ra: .cfa -24 + ^ x29: .cfa -32 + ^
STACK CFI 17b98 .cfa: sp 32 +
STACK CFI 17ba0 .cfa: sp 0 +
STACK CFI INIT 17ba4 18 .cfa: sp 0 +
STACK CFI INIT 17bbc 4 .cfa: sp 0 +
STACK CFI INIT 17bc0 4 .cfa: sp 0 +
STACK CFI INIT 17cb4 1c .cfa: sp 0 +
STACK CFI INIT 17cd0 c .cfa: sp 0 +
STACK CFI INIT 17cdc 9c .cfa: sp 0 +
STACK CFI 17ce0 .cfa: sp 80 +
STACK CFI 17cf0 .cfa: x29 48 + x19: .cfa -8 + ^ x20: .cfa -16 + ^ x21: .cfa -32 + ^ .ra: .cfa -40 + ^ x29: .cfa -48 + ^
STACK CFI 17d60 .cfa: sp 80 +
STACK CFI 17d70 .cfa: sp 0 +
STACK CFI 17d74 .cfa: x29 48 +
STACK CFI INIT 17fc4 4 .cfa: sp 0 +
STACK CFI INIT 17fc8 38 .cfa: sp 0 +
STACK CFI 17fcc .cfa: sp 32 +
STACK CFI 17fd4 .cfa: x29 32 + x19: .cfa -16 + ^ .ra: .cfa -24 + ^ x29: .cfa -32 + ^
STACK CFI 17ff4 .cfa: sp 32 +
STACK CFI 17ffc .cfa: sp 0 +
STACK CFI INIT 18000 18 .cfa: sp 0 +
STACK CFI INIT 18018 4 .cfa: sp 0 +
STACK CFI INIT 1801c 4 .cfa: sp 0 +
STACK CFI INIT 18114 1c .cfa: sp 0 +
STACK CFI INIT 18130 c .cfa: sp 0 +
STACK CFI INIT 1813c a0 .cfa: sp 0 +
STACK CFI 18140 .cfa: sp 80 +
STACK CFI 18150 .cfa: x29 32 + x19: .cfa -8 + ^ x20: .cfa -16 + ^ .ra: .cfa -24 + ^ x29: .cfa -32 + ^ v8: .cfa -48 + ^
STACK CFI 181c4 .cfa: sp 80 +
STACK CFI 181d4 .cfa: sp 0 +
STACK CFI 181d8 .cfa: x29 32 +
STACK CFI INIT 18428 4 .cfa: sp 0 +
STACK CFI INIT 1842c 38 .cfa: sp 0 +
STACK CFI 18430 .cfa: sp 32 +
STACK CFI 18438 .cfa: x29 32 + x19: .cfa -16 + ^ .ra: .cfa -24 + ^ x29: .cfa -32 + ^
STACK CFI 18458 .cfa: sp 32 +
STACK CFI 18460 .cfa: sp 0 +
STACK CFI INIT 18464 18 .cfa: sp 0 +
STACK CFI INIT 1847c 4 .cfa: sp 0 +
STACK CFI INIT 18480 4 .cfa: sp 0 +
STACK CFI INIT 18578 1c .cfa: sp 0 +
STACK CFI INIT 18594 c .cfa: sp 0 +
STACK CFI INIT 187ec 4 .cfa: sp 0 +
STACK CFI INIT 187f0 38 .cfa: sp 0 +
STACK CFI 187f4 .cfa: sp 32 +
STACK CFI 187fc .cfa: x29 32 + x19: .cfa -16 + ^ .ra: .cfa -24 + ^ x29: .cfa -32 + ^
STACK CFI 1881c .cfa: sp 32 +
STACK CFI 18824 .cfa: sp 0 +
STACK CFI INIT 18828 18 .cfa: sp 0 +
STACK CFI INIT 18840 4 .cfa: sp 0 +
STACK CFI INIT 18844 4 .cfa: sp 0 +
STACK CFI INIT 1893c 1c .cfa: sp 0 +
STACK CFI INIT 18958 c .cfa: sp 0 +
STACK CFI INIT 18bb0 4 .cfa: sp 0 +
STACK CFI INIT 18bb4 38 .cfa: sp 0 +
STACK CFI 18bb8 .cfa: sp 32 +
STACK CFI 18bc0 .cfa: x29 32 + x19: .cfa -16 + ^ .ra: .cfa -24 + ^ x29: .cfa -32 + ^
STACK CFI 18be0 .cfa: sp 32 +
STACK CFI 18be8 .cfa: sp 0 +
STACK CFI INIT 18bec 18 .cfa: sp 0 +
STACK CFI INIT 18c04 4 .cfa: sp 0 +
STACK CFI INIT 18c08 4 .cfa: sp 0 +
STACK CFI INIT 18d00 1c .cfa: sp 0 +
STACK CFI INIT 18d1c c .cfa: sp 0 +
STACK CFI INIT 18e54 3c .cfa: sp 0 +
STACK CFI 18e58 .cfa: sp 32 +
STACK CFI 18e60 .cfa: x29 32 + x19: .cfa -16 + ^ .ra: .cfa -24 + ^ x29: .cfa -32 + ^
STACK CFI 18e6c .cfa: sp 32 +
STACK CFI 18e74 .cfa: sp 0 +
STACK CFI 18e78 .cfa: x29 32 +
STACK CFI 18e84 .cfa: sp 32 +
STACK CFI 18e8c .cfa: sp 0 +
STACK CFI INIT 18e90 3c .cfa: sp 0 +
STACK CFI 18e94 .cfa: sp 32 +
STACK CFI 18e9c .cfa: x29 32 + x19: .cfa -16 + ^ .ra: .cfa -24 + ^ x29: .cfa -32 + ^
STACK CFI 18ea8 .cfa: sp 32 +
STACK CFI 18eb0 .cfa: sp 0 +
STACK CFI 18eb4 .cfa: x29 32 +
STACK CFI 18ec0 .cfa: sp 32 +
STACK CFI 18ec8 .cfa: sp 0 +
STACK CFI INIT 18ecc 4c .cfa: sp 0 +
STACK CFI 18ed0 .cfa: sp 32 +
STACK CFI 18ed8 .cfa: x29 32 + x19: .cfa -8 + ^ x20: .cfa -16 + ^ .ra: .cfa -24 + ^ x29: .cfa -32 + ^
STACK CFI 18f00 .cfa: sp 32 +
STACK CFI 18f08 .cfa: sp 0 +
STACK CFI 18f0c .cfa: sp 32 +
STACK CFI 18f14 .cfa: sp 0 +
STACK CFI INIT 19138 64 .cfa: sp 0 +
STACK CFI 1913c .cfa: sp 32 +
STACK CFI 19144 .cfa: x29 32 + x19: .cfa -16 + ^ .ra: .cfa -24 + ^ x29: .cfa -32 + ^
STACK CFI 19170 .cfa: sp 32 +
STACK CFI 19178 .cfa: sp 0 +
STACK CFI 1917c .cfa: x29 32 +
STACK CFI 19190 .cfa: sp 32 +
STACK CFI 19198 .cfa: sp 0 +
STACK CFI INIT 1919c 24 .cfa: sp 0 +
STACK CFI 191a0 .cfa: sp 32 +
STACK CFI 191a8 .cfa: x29 32 + x19: .cfa -16 + ^ .ra: .cfa -24 + ^ x29: .cfa -32 + ^
STACK CFI 191b4 .cfa: sp 32 +
STACK CFI 191bc .cfa: sp 0 +
STACK CFI INIT 191c0 24 .cfa: sp 0 +
STACK CFI 191c4 .cfa: sp 32 +
STACK CFI 191cc .cfa: x29 32 + x19: .cfa -16 + ^ .ra: .cfa -24 + ^ x29: .cfa -32 + ^
STACK CFI 191d8 .cfa: sp 32 +
STACK CFI 191e0 .cfa: sp 0 +
STACK CFI INIT 191e4 8 .cfa: sp 0 +
STACK CFI INIT 191ec 24 .cfa: sp 0 +
STACK CFI 191f0 .cfa: sp 32 +
STACK CFI 191f8 .cfa: x29 32 + x19: .cfa -16 + ^ .ra: .cfa -24 + ^ x29: .cfa -32 + ^
STACK CFI 19204 .cfa: sp 32 +
STACK CFI 1920c .cfa: sp 0 +
STACK CFI INIT 19210 28 .cfa: sp 0 +
STACK CFI 19214 .cfa: sp 32 +
STACK CFI 1921c .cfa: x29 32 + x19: .cfa -16 + ^ .ra: .cfa -24 + ^ x29: .cfa -32 + ^
STACK CFI 1922c .cfa: sp 32 +
STACK CFI 19234 .cfa: sp 0 +
STACK CFI INIT 19430 8 .cfa: sp 0 +
STACK CFI INIT 19438 4 .cfa: sp 0 +
STACK CFI INIT 1943c 4 .cfa: sp 0 +
STACK CFI INIT 19440 4 .cfa: sp 0 +
STACK CFI INIT 19444 4 .cfa: sp 0 +
STACK CFI INIT 19448 4 .cfa: sp 0 +
STACK CFI INIT 19fac 4 .cfa: sp 0 +
STACK CFI INIT 19fb0 14 .cfa: sp 0 +
STACK CFI INIT f840 810 .cfa: sp 0 +
STACK CFI f844 .cfa: sp 256 +
STACK CFI f860 .cfa: x29 96 + x19: .cfa -8 + ^ x20: .cfa -16 + ^ x21: .cfa -24 + ^ x22: .cfa -32 + ^ x23: .cfa -40 + ^ x24: .cfa -48 + ^ x25: .cfa -56 + ^ x26: .cfa -64 + ^ x27: .cfa -80 + ^ .ra: .cfa -88 + ^ x29: .cfa -96 + ^
STACK CFI f9b8 .cfa: sp 256 +
STACK CFI f9d4 .cfa: sp 0 +
STACK CFI f9d8 .cfa: x29 96 +
STACK CFI fe34 .cfa: sp 256 +
STACK CFI fe50 .cfa: sp 0 +
STACK CFI fe54 .cfa: x29 96 +
STACK CFI INIT 1006c 194 .cfa: sp 0 +
STACK CFI 10070 .cfa: sp 112 +
STACK CFI 10080 .cfa: x29 48 + x19: .cfa -8 + ^ x20: .cfa -16 + ^ x21: .cfa -24 + ^ x22: .cfa -32 + ^ .ra: .cfa -40 + ^ x29: .cfa -48 + ^
STACK CFI 1015c .cfa: sp 112 +
STACK CFI 1016c .cfa: sp 0 +
STACK CFI 10170 .cfa: x29 48 +
STACK CFI INIT 10200 2b8 .cfa: sp 0 +
STACK CFI 10204 .cfa: sp 160 +
STACK CFI 10220 .cfa: x29 96 + x19: .cfa -8 + ^ x20: .cfa -16 + ^ x21: .cfa -24 + ^ x22: .cfa -32 + ^ x23: .cfa -40 + ^ x24: .cfa -48 + ^ x25: .cfa -56 + ^ x26: .cfa -64 + ^ x27: .cfa -72 + ^ x28: .cfa -80 + ^ .ra: .cfa -88 + ^ x29: .cfa -96 + ^
STACK CFI 10258 .cfa: sp 160 +
STACK CFI 10274 .cfa: sp 0 +
STACK CFI 10278 .cfa: x29 96 +
STACK CFI INIT 104b8 114 .cfa: sp 0 +
STACK CFI 104bc .cfa: sp 64 +
STACK CFI 104cc .cfa: x29 64 + x19: .cfa -8 + ^ x20: .cfa -16 + ^ x21: .cfa -24 + ^ x22: .cfa -32 + ^ x23: .cfa -48 + ^ .ra: .cfa -56 + ^ x29: .cfa -64 + ^
STACK CFI 105a8 .cfa: sp 64 +
STACK CFI 105b8 .cfa: sp 0 +
STACK CFI 105bc .cfa: x29 64 +
STACK CFI INIT 10644 50 .cfa: sp 0 +
STACK CFI 10648 .cfa: sp 32 +
STACK CFI 10650 .cfa: x29 32 + x19: .cfa -8 + ^ x20: .cfa -16 + ^ .ra: .cfa -24 + ^ x29: .cfa -32 + ^
STACK CFI INIT 106f8 22c .cfa: sp 0 +
STACK CFI 106fc .cfa: sp 96 +
STACK CFI 10714 .cfa: x29 96 + x19: .cfa -8 + ^ x20: .cfa -16 + ^ x21: .cfa -24 + ^ x22: .cfa -32 + ^ x23: .cfa -40 + ^ x24: .cfa -48 + ^ x25: .cfa -56 + ^ x26: .cfa -64 + ^ x27: .cfa -80 + ^ .ra: .cfa -88 + ^ x29: .cfa -96 + ^
STACK CFI 108b8 .cfa: sp 96 +
STACK CFI 108d0 .cfa: sp 0 +
STACK CFI 108d4 .cfa: x29 96 +
STACK CFI INIT 1094c 50 .cfa: sp 0 +
STACK CFI 10950 .cfa: sp 32 +
STACK CFI 10958 .cfa: x29 32 + x19: .cfa -8 + ^ x20: .cfa -16 + ^ .ra: .cfa -24 + ^ x29: .cfa -32 + ^
STACK CFI INIT 10a8c 31c .cfa: sp 0 +
STACK CFI 10a90 .cfa: sp 192 +
STACK CFI 10aa4 .cfa: x29 64 + x19: .cfa -8 + ^ x20: .cfa -16 + ^ x21: .cfa -24 + ^ x22: .cfa -32 + ^ x23: .cfa -48 + ^ .ra: .cfa -56 + ^ x29: .cfa -64 + ^
STACK CFI 10ca0 .cfa: sp 192 +
STACK CFI 10cb4 .cfa: sp 0 +
STACK CFI 10cb8 .cfa: x29 64 +
STACK CFI INIT 10df8 74 .cfa: sp 0 +
STACK CFI 10dfc .cfa: sp 48 +
STACK CFI 10e08 .cfa: x29 32 + x19: .cfa -8 + ^ x20: .cfa -16 + ^ .ra: .cfa -24 + ^ x29: .cfa -32 + ^
STACK CFI 10e54 .cfa: sp 48 +
STACK CFI 10e60 .cfa: sp 0 +
STACK CFI 10e64 .cfa: x29 32 +
STACK CFI INIT 11020 1f4 .cfa: sp 0 +
STACK CFI 11024 .cfa: sp 128 +
STACK CFI 11040 .cfa: x29 96 + x19: .cfa -8 + ^ x20: .cfa -16 + ^ x21: .cfa -24 + ^ x22: .cfa -32 + ^ x23: .cfa -40 + ^ x24: .cfa -48 + ^ x25: .cfa -56 + ^ x26: .cfa -64 + ^ x27: .cfa -72 + ^ x28: .cfa -80 + ^ .ra: .cfa -88 + ^ x29: .cfa -96 + ^
STACK CFI 111cc .cfa: sp 128 +
STACK CFI 111e8 .cfa: sp 0 +
STACK CFI 111ec .cfa: x29 96 +
STACK CFI INIT 114c0 168 .cfa: sp 0 +
STACK CFI 114c4 .cfa: sp 384 +
STACK CFI 114d8 .cfa: x29 64 + x19: .cfa -8 + ^ x20: .cfa -16 + ^ x21: .cfa -24 + ^ x22: .cfa -32 + ^ x23: .cfa -40 + ^ x28: .cfa -48 + ^ .ra: .cfa -56 + ^ x29: .cfa -64 + ^
STACK CFI 115d0 .cfa: sp 384 +
STACK CFI 115e4 .cfa: sp 0 +
STACK CFI 115e8 .cfa: x29 64 +
STACK CFI INIT 1165c 12c .cfa: sp 0 +
STACK CFI 11660 .cfa: sp 80 +
STACK CFI 11674 .cfa: x29 80 + x19: .cfa -8 + ^ x20: .cfa -16 + ^ x21: .cfa -24 + ^ x22: .cfa -32 + ^ x23: .cfa -40 + ^ x24: .cfa -48 + ^ x25: .cfa -56 + ^ x26: .cfa -64 + ^ .ra: .cfa -72 + ^ x29: .cfa -80 + ^
STACK CFI 1173c .cfa: sp 80 +
STACK CFI 11750 .cfa: sp 0 +
STACK CFI 11754 .cfa: x29 80 +
STACK CFI INIT 1182c 1a4 .cfa: sp 0 +
STACK CFI 11830 .cfa: sp 112 +
STACK CFI 11848 .cfa: x29 80 + x19: .cfa -8 + ^ x20: .cfa -16 + ^ x21: .cfa -24 + ^ x22: .cfa -32 + ^ x23: .cfa -40 + ^ x24: .cfa -48 + ^ x25: .cfa -56 + ^ x26: .cfa -64 + ^ .ra: .cfa -72 + ^ x29: .cfa -80 + ^
STACK CFI 11938 .cfa: sp 112 +
STACK CFI 11950 .cfa: sp 0 +
STACK CFI 11954 .cfa: x29 80 +
STACK CFI INIT 119d0 1dc .cfa: sp 0 +
STACK CFI 119d4 .cfa: sp 128 +
STACK CFI 119f0 .cfa: x29 96 + x19: .cfa -8 + ^ x20: .cfa -16 + ^ x21: .cfa -24 + ^ x22: .cfa -32 + ^ x23: .cfa -40 + ^ x24: .cfa -48 + ^ x25: .cfa -56 + ^ x26: .cfa -64 + ^ x27: .cfa -80 + ^ .ra: .cfa -88 + ^ x29: .cfa -96 + ^
STACK CFI 11b5c .cfa: sp 128 +
STACK CFI 11b78 .cfa: sp 0 +
STACK CFI 11b7c .cfa: x29 96 +
STACK CFI INIT 11bac 178 .cfa: sp 0 +
STACK CFI 11bb0 .cfa: sp 80 +
STACK CFI 11bc4 .cfa: x29 80 + x19: .cfa -8 + ^ x20: .cfa -16 + ^ x21: .cfa -24 + ^ x22: .cfa -32 + ^ x23: .cfa -40 + ^ x24: .cfa -48 + ^ x25: .cfa -64 + ^ .ra: .cfa -72 + ^ x29: .cfa -80 + ^
STACK CFI 11cf0 .cfa: sp 80 +
STACK CFI 11d04 .cfa: sp 0 +
STACK CFI 11d08 .cfa: x29 80 +
STACK CFI INIT 11e6c f4 .cfa: sp 0 +
STACK CFI 11e70 .cfa: sp 48 +
STACK CFI 11e7c .cfa: x29 48 + x19: .cfa -8 + ^ x20: .cfa -16 + ^ x21: .cfa -32 + ^ .ra: .cfa -40 + ^ x29: .cfa -48 + ^
STACK CFI 11ee8 .cfa: sp 48 +
STACK CFI 11ef4 .cfa: sp 0 +
STACK CFI 11ef8 .cfa: x29 48 +
STACK CFI INIT 12008 248 .cfa: sp 0 +
STACK CFI 1200c .cfa: sp 160 +
STACK CFI 1201c .cfa: x29 48 + x19: .cfa -8 + ^ x20: .cfa -16 + ^ x21: .cfa -24 + ^ x22: .cfa -32 + ^ .ra: .cfa -40 + ^ x29: .cfa -48 + ^
STACK CFI 12198 .cfa: sp 160 +
STACK CFI 121a8 .cfa: sp 0 +
STACK CFI 121ac .cfa: x29 48 +
STACK CFI 121f4 .cfa: sp 160 +
STACK CFI 12204 .cfa: sp 0 +
STACK CFI 12208 .cfa: x29 48 +
STACK CFI INIT 1241c 74 .cfa: sp 0 +
STACK CFI 12420 .cfa: sp 48 +
STACK CFI 1242c .cfa: x29 32 + x19: .cfa -8 + ^ x20: .cfa -16 + ^ .ra: .cfa -24 + ^ x29: .cfa -32 + ^
STACK CFI 12478 .cfa: sp 48 +
STACK CFI 12484 .cfa: sp 0 +
STACK CFI 12488 .cfa: x29 32 +
STACK CFI INIT 124ac 174 .cfa: sp 0 +
STACK CFI 124b0 .cfa: sp 112 +
STACK CFI 124c0 .cfa: x29 48 + x19: .cfa -8 + ^ x20: .cfa -16 + ^ x21: .cfa -32 + ^ .ra: .cfa -40 + ^ x29: .cfa -48 + ^
STACK CFI 125bc .cfa: sp 112 +
STACK CFI 125cc .cfa: sp 0 +
STACK CFI 125d0 .cfa: x29 48 +
STACK CFI INIT 12760 154 .cfa: sp 0 +
STACK CFI 12764 .cfa: sp 384 +
STACK CFI 12778 .cfa: x29 64 + x19: .cfa -8 + ^ x20: .cfa -16 + ^ x21: .cfa -24 + ^ x22: .cfa -32 + ^ x23: .cfa -40 + ^ x28: .cfa -48 + ^ .ra: .cfa -56 + ^ x29: .cfa -64 + ^
STACK CFI 1285c .cfa: sp 384 +
STACK CFI 12870 .cfa: sp 0 +
STACK CFI 12874 .cfa: x29 64 +
STACK CFI INIT 128b4 228 .cfa: sp 0 +
STACK CFI 128b8 .cfa: sp 128 +
STACK CFI 128d0 .cfa: x29 80 + x19: .cfa -8 + ^ x20: .cfa -16 + ^ x21: .cfa -24 + ^ x22: .cfa -32 + ^ x23: .cfa -40 + ^ x24: .cfa -48 + ^ x25: .cfa -64 + ^ .ra: .cfa -72 + ^ x29: .cfa -80 + ^
STACK CFI 12a6c .cfa: sp 128 +
STACK CFI 12a84 .cfa: sp 0 +
STACK CFI 12a88 .cfa: x29 80 +
STACK CFI INIT 13098 1690 .cfa: sp 0 +
STACK CFI 1309c .cfa: sp 256 +
STACK CFI 130c8 .cfa: x29 96 + x19: .cfa -8 + ^ x20: .cfa -16 + ^ x21: .cfa -24 + ^ x22: .cfa -32 + ^ x23: .cfa -40 + ^ x24: .cfa -48 + ^ x25: .cfa -56 + ^ x26: .cfa -64 + ^ x27: .cfa -72 + ^ x28: .cfa -80 + ^ .ra: .cfa -88 + ^ x29: .cfa -96 + ^ v8: .cfa -104 + ^ v9: .cfa -112 + ^ v10: .cfa -120 + ^ v11: .cfa -128 + ^ v12: .cfa -136 + ^ v13: .cfa -144 + ^ v14: .cfa -152 + ^ v15: .cfa -160 + ^
STACK CFI 14234 .cfa: sp 256 +
STACK CFI 14260 .cfa: sp 0 +
STACK CFI 14264 .cfa: x29 96 +
STACK CFI INIT 14728 c8 .cfa: sp 0 +
STACK CFI 1472c .cfa: sp 32 +
STACK CFI 14734 .cfa: x29 32 + x19: .cfa -8 + ^ x20: .cfa -16 + ^ .ra: .cfa -24 + ^ x29: .cfa -32 + ^
STACK CFI 14768 .cfa: sp 32 +
STACK CFI 14770 .cfa: sp 0 +
STACK CFI 14774 .cfa: x29 32 +
STACK CFI 14778 .cfa: sp 32 +
STACK CFI 14780 .cfa: sp 0 +
STACK CFI 14784 .cfa: x29 32 +
STACK CFI INIT 147f0 e4 .cfa: sp 0 +
STACK CFI 147f4 .cfa: sp 32 +
STACK CFI 147fc .cfa: x29 32 + x19: .cfa -8 + ^ x20: .cfa -16 + ^ .ra: .cfa -24 + ^ x29: .cfa -32 + ^
STACK CFI 14898 .cfa: sp 32 +
STACK CFI 148a0 .cfa: sp 0 +
STACK CFI 148a4 .cfa: x29 32 +
STACK CFI INIT 14a4c 2e0 .cfa: sp 0 +
STACK CFI 14a50 .cfa: sp 80 +
STACK CFI 14a64 .cfa: x29 80 + x19: .cfa -8 + ^ x20: .cfa -16 + ^ x21: .cfa -24 + ^ x22: .cfa -32 + ^ x23: .cfa -40 + ^ x24: .cfa -48 + ^ x25: .cfa -64 + ^ .ra: .cfa -72 + ^ x29: .cfa -80 + ^
STACK CFI 14cd0 .cfa: sp 80 +
STACK CFI 14ce4 .cfa: sp 0 +
STACK CFI 14ce8 .cfa: x29 80 +
STACK CFI INIT 14eb8 7d4 .cfa: sp 0 +
STACK CFI 14ebc .cfa: sp 288 +
STACK CFI 14ed8 .cfa: x29 96 + x19: .cfa -8 + ^ x20: .cfa -16 + ^ x21: .cfa -24 + ^ x22: .cfa -32 + ^ x23: .cfa -40 + ^ x24: .cfa -48 + ^ x25: .cfa -56 + ^ x26: .cfa -64 + ^ x27: .cfa -72 + ^ x28: .cfa -80 + ^ .ra: .cfa -88 + ^ x29: .cfa -96 + ^
STACK CFI 15040 .cfa: sp 288 +
STACK CFI 1505c .cfa: sp 0 +
STACK CFI 15060 .cfa: x29 96 +
STACK CFI 154dc .cfa: sp 288 +
STACK CFI 154f8 .cfa: sp 0 +
STACK CFI 154fc .cfa: x29 96 +
STACK CFI INIT 156a8 48c .cfa: sp 0 +
STACK CFI 156ac .cfa: sp 160 +
STACK CFI 156c0 .cfa: x29 64 + x19: .cfa -8 + ^ x20: .cfa -16 + ^ x21: .cfa -24 + ^ x22: .cfa -32 + ^ x23: .cfa -40 + ^ x24: .cfa -48 + ^ .ra: .cfa -56 + ^ x29: .cfa -64 + ^
STACK CFI 159e0 .cfa: sp 160 +
STACK CFI 159f4 .cfa: sp 0 +
STACK CFI 159f8 .cfa: x29 64 +
STACK CFI INIT 15b38 1b0 .cfa: sp 0 +
STACK CFI 15b3c .cfa: sp 112 +
STACK CFI 15b50 .cfa: x29 64 + x19: .cfa -8 + ^ x20: .cfa -16 + ^ x21: .cfa -24 + ^ x22: .cfa -32 + ^ x23: .cfa -48 + ^ .ra: .cfa -56 + ^ x29: .cfa -64 + ^
STACK CFI 15c38 .cfa: sp 112 +
STACK CFI 15c4c .cfa: sp 0 +
STACK CFI 15c50 .cfa: x29 64 +
STACK CFI INIT 15d44 328 .cfa: sp 0 +
STACK CFI 15d48 .cfa: sp 176 +
STACK CFI 15d5c .cfa: x29 64 + x19: .cfa -8 + ^ x20: .cfa -16 + ^ x21: .cfa -24 + ^ x22: .cfa -32 + ^ x23: .cfa -48 + ^ .ra: .cfa -56 + ^ x29: .cfa -64 + ^
STACK CFI 15fa4 .cfa: sp 176 +
STACK CFI 15fb8 .cfa: sp 0 +
STACK CFI 15fbc .cfa: x29 64 +
STACK CFI 16004 .cfa: sp 176 +
STACK CFI 16018 .cfa: sp 0 +
STACK CFI 1601c .cfa: x29 64 +
STACK CFI INIT 16094 134 .cfa: sp 0 +
STACK CFI 16098 .cfa: sp 128 +
STACK CFI 160ac .cfa: x29 64 + x19: .cfa -8 + ^ x20: .cfa -16 + ^ x21: .cfa -24 + ^ x22: .cfa -32 + ^ x23: .cfa -40 + ^ x24: .cfa -48 + ^ .ra: .cfa -56 + ^ x29: .cfa -64 + ^
STACK CFI 16178 .cfa: sp 128 +
STACK CFI 1618c .cfa: sp 0 +
STACK CFI 16190 .cfa: x29 64 +
STACK CFI INIT 161c8 1d4 .cfa: sp 0 +
STACK CFI 161cc .cfa: sp 112 +
STACK CFI 161dc .cfa: x29 48 + x19: .cfa -8 + ^ x20: .cfa -16 + ^ x21: .cfa -24 + ^ x22: .cfa -32 + ^ .ra: .cfa -40 + ^ x29: .cfa -48 + ^
STACK CFI 16330 .cfa: sp 112 +
STACK CFI 16340 .cfa: sp 0 +
STACK CFI 16344 .cfa: x29 48 +
STACK CFI INIT 164d8 18c .cfa: sp 0 +
STACK CFI 164dc .cfa: sp 112 +
STACK CFI 164ec .cfa: x29 48 + x19: .cfa -8 + ^ x20: .cfa -16 + ^ x21: .cfa -32 + ^ .ra: .cfa -40 + ^ x29: .cfa -48 + ^
STACK CFI 165bc .cfa: sp 112 +
STACK CFI 165cc .cfa: sp 0 +
STACK CFI 165d0 .cfa: x29 48 +
STACK CFI INIT 16664 508 .cfa: sp 0 +
STACK CFI 16668 .cfa: sp 192 +
STACK CFI 16688 .cfa: x29 96 + x19: .cfa -8 + ^ x20: .cfa -16 + ^ x21: .cfa -24 + ^ x22: .cfa -32 + ^ x23: .cfa -40 + ^ x24: .cfa -48 + ^ x25: .cfa -56 + ^ x26: .cfa -64 + ^ x27: .cfa -72 + ^ x28: .cfa -80 + ^ .ra: .cfa -88 + ^ x29: .cfa -96 + ^ v8: .cfa -104 + ^ v9: .cfa -112 + ^
STACK CFI 16a54 .cfa: sp 192 +
STACK CFI 16a74 .cfa: sp 0 +
STACK CFI 16a78 .cfa: x29 96 +
STACK CFI INIT 16b70 1c .cfa: sp 0 +
STACK CFI 16b74 .cfa: sp 16 +
STACK CFI 16b78 .cfa: x29 16 + .ra: .cfa -8 + ^ x29: .cfa -16 + ^
STACK CFI 16b80 .cfa: sp 16 +
STACK CFI 16b84 .cfa: sp 0 +
STACK CFI 16b88 .cfa: x29 16 +
STACK CFI INIT 16b8c 480 .cfa: sp 0 +
STACK CFI 16b90 .cfa: sp 224 +
STACK CFI 16bac .cfa: x29 96 + x19: .cfa -8 + ^ x20: .cfa -16 + ^ x21: .cfa -24 + ^ x22: .cfa -32 + ^ x23: .cfa -40 + ^ x24: .cfa -48 + ^ x25: .cfa -56 + ^ x26: .cfa -64 + ^ x27: .cfa -80 + ^ .ra: .cfa -88 + ^ x29: .cfa -96 + ^
STACK CFI 16e18 .cfa: sp 224 +
STACK CFI 16e34 .cfa: sp 0 +
STACK CFI 16e38 .cfa: x29 96 +
STACK CFI 16f04 .cfa: sp 224 +
STACK CFI 16f20 .cfa: sp 0 +
STACK CFI 16f24 .cfa: x29 96 +
STACK CFI INIT 17028 388 .cfa: sp 0 +
STACK CFI 1702c .cfa: sp 256 +
STACK CFI 17040 .cfa: x29 64 + x19: .cfa -8 + ^ x20: .cfa -16 + ^ x21: .cfa -24 + ^ x22: .cfa -32 + ^ x23: .cfa -48 + ^ .ra: .cfa -56 + ^ x29: .cfa -64 + ^
STACK CFI 17284 .cfa: sp 256 +
STACK CFI 17298 .cfa: sp 0 +
STACK CFI 1729c .cfa: x29 64 +
STACK CFI INIT 174c0 ec .cfa: sp 0 +
STACK CFI 174c4 .cfa: sp 64 +
STACK CFI 174d4 .cfa: x29 48 + x19: .cfa -8 + ^ x20: .cfa -16 + ^ x21: .cfa -32 + ^ .ra: .cfa -40 + ^ x29: .cfa -48 + ^
STACK CFI 17510 .cfa: sp 64 +
STACK CFI 17520 .cfa: sp 0 +
STACK CFI 17524 .cfa: x29 48 +
STACK CFI INIT 175b0 174 .cfa: sp 0 +
STACK CFI 175b4 .cfa: sp 112 +
STACK CFI 175c4 .cfa: x29 48 + x19: .cfa -8 + ^ x20: .cfa -16 + ^ x21: .cfa -32 + ^ .ra: .cfa -40 + ^ x29: .cfa -48 + ^
STACK CFI 176c0 .cfa: sp 112 +
STACK CFI 176d0 .cfa: sp 0 +
STACK CFI 176d4 .cfa: x29 48 +
STACK CFI INIT 1791c 24c .cfa: sp 0 +
STACK CFI 17920 .cfa: sp 224 +
STACK CFI 17938 .cfa: x29 80 + x19: .cfa -8 + ^ x20: .cfa -16 + ^ x21: .cfa -24 + ^ x22: .cfa -32 + ^ x23: .cfa -40 + ^ x24: .cfa -48 + ^ x25: .cfa -64 + ^ .ra: .cfa -72 + ^ x29: .cfa -80 + ^
STACK CFI 17aac .cfa: sp 224 +
STACK CFI 17ac4 .cfa: sp 0 +
STACK CFI 17ac8 .cfa: x29 80 +
STACK CFI INIT 17bc4 f0 .cfa: sp 0 +
STACK CFI 17bc8 .cfa: sp 32 +
STACK CFI 17bd0 .cfa: x29 32 + x19: .cfa -8 + ^ x20: .cfa -16 + ^ .ra: .cfa -24 + ^ x29: .cfa -32 + ^
STACK CFI 17c50 .cfa: sp 32 +
STACK CFI 17c58 .cfa: sp 0 +
STACK CFI 17c5c .cfa: x29 32 +
STACK CFI 17ca4 .cfa: sp 32 +
STACK CFI 17cac .cfa: sp 0 +
STACK CFI 17cb0 .cfa: x29 32 +
STACK CFI INIT 17d78 24c .cfa: sp 0 +
STACK CFI 17d7c .cfa: sp 224 +
STACK CFI 17d94 .cfa: x29 80 + x19: .cfa -8 + ^ x20: .cfa -16 + ^ x21: .cfa -24 + ^ x22: .cfa -32 + ^ x23: .cfa -40 + ^ x24: .cfa -48 + ^ x25: .cfa -64 + ^ .ra: .cfa -72 + ^ x29: .cfa -80 + ^
STACK CFI 17f08 .cfa: sp 224 +
STACK CFI 17f20 .cfa: sp 0 +
STACK CFI 17f24 .cfa: x29 80 +
STACK CFI INIT 18020 f4 .cfa: sp 0 +
STACK CFI 18024 .cfa: sp 32 +
STACK CFI 1802c .cfa: x29 32 + x19: .cfa -8 + ^ x20: .cfa -16 + ^ .ra: .cfa -24 + ^ x29: .cfa -32 + ^
STACK CFI 180b0 .cfa: sp 32 +
STACK CFI 180b8 .cfa: sp 0 +
STACK CFI 180bc .cfa: x29 32 +
STACK CFI 18104 .cfa: sp 32 +
STACK CFI 1810c .cfa: sp 0 +
STACK CFI 18110 .cfa: x29 32 +
STACK CFI INIT 181dc 24c .cfa: sp 0 +
STACK CFI 181e0 .cfa: sp 224 +
STACK CFI 181f8 .cfa: x29 80 + x19: .cfa -8 + ^ x20: .cfa -16 + ^ x21: .cfa -24 + ^ x22: .cfa -32 + ^ x23: .cfa -40 + ^ x24: .cfa -48 + ^ x25: .cfa -64 + ^ .ra: .cfa -72 + ^ x29: .cfa -80 + ^
STACK CFI 1836c .cfa: sp 224 +
STACK CFI 18384 .cfa: sp 0 +
STACK CFI 18388 .cfa: x29 80 +
STACK CFI INIT 18484 f4 .cfa: sp 0 +
STACK CFI 18488 .cfa: sp 32 +
STACK CFI 18490 .cfa: x29 32 + x19: .cfa -8 + ^ x20: .cfa -16 + ^ .ra: .cfa -24 + ^ x29: .cfa -32 + ^
STACK CFI 18514 .cfa: sp 32 +
STACK CFI 1851c .cfa: sp 0 +
STACK CFI 18520 .cfa: x29 32 +
STACK CFI 18568 .cfa: sp 32 +
STACK CFI 18570 .cfa: sp 0 +
STACK CFI 18574 .cfa: x29 32 +
STACK CFI INIT 185a0 24c .cfa: sp 0 +
STACK CFI 185a4 .cfa: sp 224 +
STACK CFI 185bc .cfa: x29 80 + x19: .cfa -8 + ^ x20: .cfa -16 + ^ x21: .cfa -24 + ^ x22: .cfa -32 + ^ x23: .cfa -40 + ^ x24: .cfa -48 + ^ x25: .cfa -64 + ^ .ra: .cfa -72 + ^ x29: .cfa -80 + ^
STACK CFI 18730 .cfa: sp 224 +
STACK CFI 18748 .cfa: sp 0 +
STACK CFI 1874c .cfa: x29 80 +
STACK CFI INIT 18848 f4 .cfa: sp 0 +
STACK CFI 1884c .cfa: sp 32 +
STACK CFI 18854 .cfa: x29 32 + x19: .cfa -8 + ^ x20: .cfa -16 + ^ .ra: .cfa -24 + ^ x29: .cfa -32 + ^
STACK CFI 188d8 .cfa: sp 32 +
STACK CFI 188e0 .cfa: sp 0 +
STACK CFI 188e4 .cfa: x29 32 +
STACK CFI 1892c .cfa: sp 32 +
STACK CFI 18934 .cfa: sp 0 +
STACK CFI 18938 .cfa: x29 32 +
STACK CFI INIT 18964 24c .cfa: sp 0 +
STACK CFI 18968 .cfa: sp 224 +
STACK CFI 18980 .cfa: x29 80 + x19: .cfa -8 + ^ x20: .cfa -16 + ^ x21: .cfa -24 + ^ x22: .cfa -32 + ^ x23: .cfa -40 + ^ x24: .cfa -48 + ^ x25: .cfa -64 + ^ .ra: .cfa -72 + ^ x29: .cfa -80 + ^
STACK CFI 18af4 .cfa: sp 224 +
STACK CFI 18b0c .cfa: sp 0 +
STACK CFI 18b10 .cfa: x29 80 +
STACK CFI INIT 18c0c f4 .cfa: sp 0 +
STACK CFI 18c10 .cfa: sp 32 +
STACK CFI 18c18 .cfa: x29 32 + x19: .cfa -8 + ^ x20: .cfa -16 + ^ .ra: .cfa -24 + ^ x29: .cfa -32 + ^
STACK CFI 18c9c .cfa: sp 32 +
STACK CFI 18ca4 .cfa: sp 0 +
STACK CFI 18ca8 .cfa: x29 32 +
STACK CFI 18cf0 .cfa: sp 32 +
STACK CFI 18cf8 .cfa: sp 0 +
STACK CFI 18cfc .cfa: x29 32 +
STACK CFI INIT 18d28 12c .cfa: sp 0 +
STACK CFI 18d2c .cfa: sp 80 +
STACK CFI 18d3c .cfa: x29 48 + x19: .cfa -8 + ^ x20: .cfa -16 + ^ x21: .cfa -32 + ^ .ra: .cfa -40 + ^ x29: .cfa -48 + ^
STACK CFI 18dd4 .cfa: sp 80 +
STACK CFI 18de4 .cfa: sp 0 +
STACK CFI 18de8 .cfa: x29 48 +
STACK CFI INIT 18f18 134 .cfa: sp 0 +
STACK CFI 18f1c .cfa: sp 80 +
STACK CFI 18f28 .cfa: x29 32 + x19: .cfa -8 + ^ x20: .cfa -16 + ^ .ra: .cfa -24 + ^ x29: .cfa -32 + ^
STACK CFI 18f58 .cfa: sp 80 +
STACK CFI 18f64 .cfa: sp 0 +
STACK CFI 18f68 .cfa: x29 32 +
STACK CFI INIT 1904c 78 .cfa: sp 0 +
STACK CFI 19050 .cfa: sp 32 +
STACK CFI 19058 .cfa: x29 32 + x19: .cfa -8 + ^ x20: .cfa -16 + ^ .ra: .cfa -24 + ^ x29: .cfa -32 + ^
STACK CFI 19064 .cfa: sp 32 +
STACK CFI 1906c .cfa: sp 0 +
STACK CFI 19070 .cfa: x29 32 +
STACK CFI INIT 190c4 74 .cfa: sp 0 +
STACK CFI 190c8 .cfa: sp 48 +
STACK CFI 190d4 .cfa: x29 32 + x19: .cfa -8 + ^ x20: .cfa -16 + ^ .ra: .cfa -24 + ^ x29: .cfa -32 + ^
STACK CFI 19120 .cfa: sp 48 +
STACK CFI 1912c .cfa: sp 0 +
STACK CFI 19130 .cfa: x29 32 +
STACK CFI INIT 19238 150 .cfa: sp 0 +
STACK CFI 1923c .cfa: sp 128 +
STACK CFI 1924c .cfa: x29 48 + x19: .cfa -8 + ^ x20: .cfa -16 + ^ x21: .cfa -24 + ^ x22: .cfa -32 + ^ .ra: .cfa -40 + ^ x29: .cfa -48 + ^
STACK CFI 19294 .cfa: sp 128 +
STACK CFI 192a4 .cfa: sp 0 +
STACK CFI 192a8 .cfa: x29 48 +
STACK CFI INIT 19388 a8 .cfa: sp 0 +
STACK CFI 1938c .cfa: sp 64 +
STACK CFI 1939c .cfa: x29 48 + x19: .cfa -8 + ^ x20: .cfa -16 + ^ x21: .cfa -32 + ^ .ra: .cfa -40 + ^ x29: .cfa -48 + ^
STACK CFI 19404 .cfa: sp 64 +
STACK CFI 19414 .cfa: sp 0 +
STACK CFI 19418 .cfa: x29 48 +
STACK CFI INIT 1944c 278 .cfa: sp 0 +
STACK CFI 19450 .cfa: sp 128 +
STACK CFI 19464 .cfa: x29 64 + x19: .cfa -8 + ^ x20: .cfa -16 + ^ x21: .cfa -24 + ^ x22: .cfa -32 + ^ x23: .cfa -48 + ^ .ra: .cfa -56 + ^ x29: .cfa -64 + ^
STACK CFI 19570 .cfa: sp 128 +
STACK CFI 19584 .cfa: sp 0 +
STACK CFI 19588 .cfa: x29 64 +
STACK CFI INIT 196c4 2c8 .cfa: sp 0 +
STACK CFI 196c8 .cfa: sp 128 +
STACK CFI 196dc .cfa: x29 64 + x19: .cfa -8 + ^ x20: .cfa -16 + ^ x21: .cfa -24 + ^ x22: .cfa -32 + ^ x23: .cfa -48 + ^ .ra: .cfa -56 + ^ x29: .cfa -64 + ^
STACK CFI 19838 .cfa: sp 128 +
STACK CFI 1984c .cfa: sp 0 +
STACK CFI 19850 .cfa: x29 64 +
STACK CFI INIT 1998c 4cc .cfa: sp 0 +
STACK CFI 19990 .cfa: sp 128 +
STACK CFI 199a4 .cfa: x29 64 + x19: .cfa -8 + ^ x20: .cfa -16 + ^ x21: .cfa -24 + ^ x22: .cfa -32 + ^ x23: .cfa -48 + ^ .ra: .cfa -56 + ^ x29: .cfa -64 + ^
STACK CFI 19cb0 .cfa: sp 128 +
STACK CFI 19cc4 .cfa: sp 0 +
STACK CFI 19cc8 .cfa: x29 64 +
STACK CFI INIT 19e58 154 .cfa: sp 0 +
STACK CFI 19e5c .cfa: sp 384 +
STACK CFI 19e70 .cfa: x29 64 + x19: .cfa -8 + ^ x20: .cfa -16 + ^ x21: .cfa -24 + ^ x22: .cfa -32 + ^ x23: .cfa -40 + ^ x28: .cfa -48 + ^ .ra: .cfa -56 + ^ x29: .cfa -64 + ^
STACK CFI 19f54 .cfa: sp 384 +
STACK CFI 19f68 .cfa: sp 0 +
STACK CFI 19f6c .cfa: x29 64 +
STACK CFI INIT 19fc4 4e0 .cfa: sp 0 +
STACK CFI 19fc8 .cfa: sp 64 +
STACK CFI 19fd8 .cfa: x29 64 + x19: .cfa -8 + ^ x20: .cfa -16 + ^ x21: .cfa -24 + ^ x22: .cfa -32 + ^ x23: .cfa -40 + ^ x24: .cfa -48 + ^ .ra: .cfa -56 + ^ x29: .cfa -64 + ^
STACK CFI 1a478 .cfa: sp 64 +
STACK CFI 1a488 .cfa: sp 0 +
STACK CFI 1a48c .cfa: x29 64 +
