MODULE Linux arm64 B32DDBBC7A83739910AE29556DDEF4DB0 firee.prism.android64.so
INFO CODE_ID BCDB2DB3837A997310AE29556DDEF4DB1F6A1DD7
INFO GENERATOR mozilla/dump_syms 2.3.4
PUBLIC 65f30 0 __on_dlclose
PUBLIC 65f40 0 __emutls_unregister_key
PUBLIC 65f48 0 __on_dlclose_late
PUBLIC 65f50 0 __atexit_handler_wrapper
PUBLIC 65f64 0 atexit
PUBLIC 65f80 0 pthread_atfork
PUBLIC 65f90 0 __aarch64_ldadd8_relax
PUBLIC 65fc0 0 init_have_lse_atomics
PUBLIC 66058 0 __init_cpu_features_constructor
PUBLIC 665f4 0 __init_cpu_features
PUBLIC 66680 0 __aarch64_ldadd8_acq_rel
FUNC 666b0 398 0 SettingHackValue::createNode(float)
FUNC 66a48 50 0 std::__ndk1::shared_ptr<SettingHackValue>::~shared_ptr[abi:ne180000]()
FUNC 66a98 50 0 std::__ndk1::shared_ptr<geode::SettingV3>::~shared_ptr[abi:ne180000]()
FUNC 66ae8 a8 0 SettingHackValue::~SettingHackValue()
FUNC 66b90 b0 0 SettingHackValue::~SettingHackValue()
FUNC 66c40 160 0 geode::SettingBaseValueV3<std::__ndk1::vector<matjson::Value, std::__ndk1::allocator<matjson::Value> >, std::__ndk1::vector<matjson::Value, std::__ndk1::allocator<matjson::Value> > >::load(matjson::Value const&)
FUNC 66da0 fc 0 geode::SettingBaseValueV3<std::__ndk1::vector<matjson::Value, std::__ndk1::allocator<matjson::Value> >, std::__ndk1::vector<matjson::Value, std::__ndk1::allocator<matjson::Value> > >::save(matjson::Value&) const
FUNC 66e9c 78 0 geode::SettingBaseValueV3<std::__ndk1::vector<matjson::Value, std::__ndk1::allocator<matjson::Value> >, std::__ndk1::vector<matjson::Value, std::__ndk1::allocator<matjson::Value> > >::isDefaultValue() const
FUNC 66f14 d4 0 geode::SettingBaseValueV3<std::__ndk1::vector<matjson::Value, std::__ndk1::allocator<matjson::Value> >, std::__ndk1::vector<matjson::Value, std::__ndk1::allocator<matjson::Value> > >::reset()
FUNC 66fe8 8 0 geode::SettingBaseValueV3<std::__ndk1::vector<matjson::Value, std::__ndk1::allocator<matjson::Value> >, std::__ndk1::vector<matjson::Value, std::__ndk1::allocator<matjson::Value> > >::isValid(std::__ndk1::vector<matjson::Value, std::__ndk1::allocator<matjson::Value> >) const
FUNC 66ff0 8 0 cocos2d::CCCopying::copyWithZone(cocos2d::CCZone*)
FUNC 66ff8 9c 0 geode::SettingValueNodeV3<SettingHackValue>::~SettingValueNodeV3()
FUNC 67094 a4 0 SettingHackNode::~SettingHackNode()
FUNC 67138 284 0 geode::SettingValueNodeV3<SettingHackValue>::updateState(cocos2d::CCNode*)
FUNC 673bc 208 0 geode::SettingValueNodeV3<SettingHackValue>::onCommit()
FUNC 675c4 140 0 geode::SettingValueNodeV3<SettingHackValue>::onResetToDefault()
FUNC 67704 184 0 geode::SettingValueNodeV3<SettingHackValue>::hasUncommittedChanges() const
FUNC 67888 184 0 geode::SettingValueNodeV3<SettingHackValue>::hasNonDefaultValue() const
FUNC 67a0c a4 0 geode::SettingValueNodeV3<SettingHackValue>::~SettingValueNodeV3()
FUNC 67ab0 68 0 std::__ndk1::vector<matjson::Value, std::__ndk1::allocator<matjson::Value> >::~vector[abi:ne180000]()
FUNC 67b18 74 0 geode::impl::ResultData<void, std::__ndk1::basic_string<char, std::__ndk1::char_traits<char>, std::__ndk1::allocator<char> > >::~ResultData()
FUNC 67b8c 11c 0 std::__ndk1::vector<matjson::Value, std::__ndk1::allocator<matjson::Value> >::__init_with_size[abi:ne180000]<matjson::Value*, std::__ndk1::vector<matjson::Value, std::__ndk1::allocator<matjson::Value> >::__init_with_size[abi:ne180000]>(matjson::Value*, std::__ndk1::vector<matjson::Value, std::__ndk1::allocator<matjson::Value> >::__init_with_size[abi:ne180000], unsigned long)
FUNC 67ca8 7c 0 std::__ndk1::__exception_guard_exceptions<std::__ndk1::vector<matjson::Value, std::__ndk1::allocator<matjson::Value> >::__destroy_vector>::~__exception_guard_exceptions[abi:ne180000]()
FUNC 67d24 14 0 std::__ndk1::vector<matjson::Value, std::__ndk1::allocator<matjson::Value> >::__throw_length_error[abi:ne180000]() const
PUBLIC 67d38 0 __clang_call_terminate
FUNC 67d48 50 0 std::__ndk1::__throw_length_error[abi:ne180000](char const*)
FUNC 67d98 30 0 std::length_error::length_error[abi:ne180000](char const*)
FUNC 67dc8 34 0 std::__throw_bad_array_new_length([abi:ne180000], void)
FUNC 67dfc 34 0 std::__ndk1::__throw_bad_variant_access[abi:ne180000]()
FUNC 67e30 24 0 geode::UnwrapException::~UnwrapException()
FUNC 67e54 4 0 std::__ndk1::__variant_detail::__visitation::__base::__dispatcher<(unsigned long)0>::__dispatch[abi:ne180000]<std::__ndk1::__variant_detail::__dtor<std::__ndk1::__variant_detail::__traits<std::__ndk1::monostate, std::__ndk1::basic_string<char, std::__ndk1::char_traits<char>, std::__ndk1::allocator<char> > >, (std::__ndk1::__variant_detail::_Trait)1>::__destroy[abi:ne180000]()::{lambda(auto:1&)#1}, std::__ndk1::__variant_detail::__base<(std::__ndk1::__variant_detail::__traits<std::__ndk1::monostate, std::__ndk1::basic_string<char, std::__ndk1::char_traits<char>, std::__ndk1::allocator<char> > >)1, std::__ndk1::__variant_detail::__traits, std::__ndk1::allocator<char> >&>(std::__ndk1::__variant_detail::__dtor<std::__ndk1::__variant_detail::__traits<std::__ndk1::monostate, std::__ndk1::basic_string<char, std::__ndk1::char_traits<char>, std::__ndk1::allocator<char> > >, (std::__ndk1::__variant_detail::_Trait)1>, std::__ndk1::__variant_detail::__base<(std::__ndk1::__variant_detail::__traits<std::__ndk1::monostate, std::__ndk1::basic_string<char, std::__ndk1::char_traits<char>, std::__ndk1::allocator<char> > >)1, std::__ndk1::__variant_detail::__traits, std::__ndk1::allocator<char> >&)
FUNC 67e58 14 0 std::__ndk1::__variant_detail::__visitation::__base::__dispatcher<(unsigned long)1>::__dispatch[abi:ne180000]<std::__ndk1::__variant_detail::__dtor<std::__ndk1::__variant_detail::__traits<std::__ndk1::monostate, std::__ndk1::basic_string<char, std::__ndk1::char_traits<char>, std::__ndk1::allocator<char> > >, (std::__ndk1::__variant_detail::_Trait)1>::__destroy[abi:ne180000]()::{lambda(auto:1&)#1}, std::__ndk1::__variant_detail::__base<(std::__ndk1::__variant_detail::__traits<std::__ndk1::monostate, std::__ndk1::basic_string<char, std::__ndk1::char_traits<char>, std::__ndk1::allocator<char> > >)1, std::__ndk1::__variant_detail::__traits, std::__ndk1::allocator<char> >&>(std::__ndk1::__variant_detail::__dtor<std::__ndk1::__variant_detail::__traits<std::__ndk1::monostate, std::__ndk1::basic_string<char, std::__ndk1::char_traits<char>, std::__ndk1::allocator<char> > >, (std::__ndk1::__variant_detail::_Trait)1>, std::__ndk1::__variant_detail::__base<(std::__ndk1::__variant_detail::__traits<std::__ndk1::monostate, std::__ndk1::basic_string<char, std::__ndk1::char_traits<char>, std::__ndk1::allocator<char> > >)1, std::__ndk1::__variant_detail::__traits, std::__ndk1::allocator<char> >&)
FUNC 67e6c 158 0 geode::SettingBaseValueV3<std::__ndk1::vector<matjson::Value, std::__ndk1::allocator<matjson::Value> >, std::__ndk1::vector<matjson::Value, std::__ndk1::allocator<matjson::Value> > >::setValue(std::__ndk1::vector<matjson::Value, std::__ndk1::allocator<matjson::Value> >)
FUNC 67fc4 2c0 0 std::__ndk1::vector<matjson::Value, std::__ndk1::allocator<matjson::Value> >::__assign_with_size[abi:ne180000]<matjson::Value*, std::__ndk1::vector<matjson::Value, std::__ndk1::allocator<matjson::Value> >::__assign_with_size[abi:ne180000]>(matjson::Value*, std::__ndk1::vector<matjson::Value, std::__ndk1::allocator<matjson::Value> >::__assign_with_size[abi:ne180000], long)
FUNC 68284 10 0 std::__ndk1::__shared_ptr_emplace<geode::SettingValueNodeV3<SettingHackValue>::Impl, std::__ndk1::allocator<geode::SettingValueNodeV3<SettingHackValue>::Impl> >::~__shared_ptr_emplace()
FUNC 68294 30 0 std::__ndk1::__shared_ptr_emplace<geode::SettingValueNodeV3<SettingHackValue>::Impl, std::__ndk1::allocator<geode::SettingValueNodeV3<SettingHackValue>::Impl> >::~__shared_ptr_emplace()
FUNC 682c4 68 0 std::__ndk1::__shared_ptr_emplace<geode::SettingValueNodeV3<SettingHackValue>::Impl, std::__ndk1::allocator<geode::SettingValueNodeV3<SettingHackValue>::Impl> >::__on_zero_shared()
FUNC 6832c 4 0 std::__ndk1::__shared_ptr_emplace<geode::SettingValueNodeV3<SettingHackValue>::Impl, std::__ndk1::allocator<geode::SettingValueNodeV3<SettingHackValue>::Impl> >::__on_zero_shared_weak()
FUNC 68330 5c 0 geode::SettingBaseValueV3<std::__ndk1::vector<matjson::Value, std::__ndk1::allocator<matjson::Value> >, std::__ndk1::vector<matjson::Value, std::__ndk1::allocator<matjson::Value> > >::~SettingBaseValueV3()
FUNC 6838c 4 0 geode::SettingBaseValueV3<std::__ndk1::vector<matjson::Value, std::__ndk1::allocator<matjson::Value> >, std::__ndk1::vector<matjson::Value, std::__ndk1::allocator<matjson::Value> > >::~SettingBaseValueV3()
FUNC 68390 34 0 std::__ndk1::__throw_bad_weak_ptr[abi:ne180000]()
FUNC 683c4 74 0 geode::impl::ResultData<std::__ndk1::vector<matjson::Value, std::__ndk1::allocator<matjson::Value> >, std::__ndk1::basic_string<char, std::__ndk1::char_traits<char>, std::__ndk1::allocator<char> > >::~ResultData()
FUNC 68438 208 0 _ZN7matjson9SerializeINSt6__ndk16vectorINS_5ValueENS1_9allocatorIS3_EEEEE8fromJsonERKS3_QrQS9__Xcldtfp_2asIT_EEE
FUNC 68640 e0 0 std::__ndk1::vector<matjson::Value, std::__ndk1::allocator<matjson::Value> >::reserve(unsigned long)
FUNC 68720 74 0 geode::impl::ResultData<matjson::Value, std::__ndk1::basic_string<char, std::__ndk1::char_traits<char>, std::__ndk1::allocator<char> > >::~ResultData()
FUNC 68794 14 0 std::__ndk1::basic_string<char, std::__ndk1::char_traits<char>, std::__ndk1::allocator<char> >::__throw_length_error[abi:ne180000]() const
FUNC 687a8 168 0 _ZN5geode15UnwrapExceptionC2IRNSt6__ndk112basic_stringIcNS2_11char_traitsIcEENS2_9allocatorIcEEEEQsr4implE18IsStringStreamableIT_EEENS_4impl6ErrTagEOSA_
FUNC 68910 124 0 std::__ndk1::basic_stringstream<char, std::__ndk1::char_traits<char>, std::__ndk1::allocator<char> >::basic_stringstream[abi:ne180000]()
FUNC 68a34 80 0 std::__ndk1::basic_stringstream<char, std::__ndk1::char_traits<char>, std::__ndk1::allocator<char> >::~basic_stringstream()
FUNC 68ab4 198 0 std::__ndk1::__put_character_sequence[abi:ne180000]<char, std::__ndk1::char_traits<char> >(std::__ndk1::basic_ostream<char, std::__ndk1::char_traits<char> >, std::__ndk1::basic_ostream const*, unsigned long)
FUNC 68c4c 1b4 0 std::__ndk1::__pad_and_output[abi:ne180000]<char, std::__ndk1::char_traits<char> >(std::__ndk1::char_traits<char>, std::__ndk1::ostreambuf_iterator const*, std::__ndk1::ostreambuf_iterator const, std::__ndk1::ostreambuf_iterator const, std::__ndk1::ios_base&, std::__ndk1::ostreambuf_iterator)
FUNC 68e00 15c 0 std::__ndk1::basic_stringbuf<char, std::__ndk1::char_traits<char>, std::__ndk1::allocator<char> >::str[abi:ne180000]() &&
FUNC 68f5c 148 0 std::__ndk1::basic_stringbuf<char, std::__ndk1::char_traits<char>, std::__ndk1::allocator<char> >::__init_buf_ptrs[abi:ne180000]()
FUNC 690a4 11c 0 std::__ndk1::vector<matjson::Value, std::__ndk1::allocator<matjson::Value> >::__emplace_back_slow_path<matjson::Value>(matjson::Value&&)
FUNC 691c0 8 0 std::__ndk1::__variant_detail::__visitation::__base::__dispatcher<(unsigned long)0>::__dispatch[abi:ne180000]<std::__ndk1::__variant_detail::__dtor<std::__ndk1::__variant_detail::__traits<matjson::Value, std::__ndk1::basic_string<char, std::__ndk1::char_traits<char>, std::__ndk1::allocator<char> > >, (std::__ndk1::__variant_detail::_Trait)1>::__destroy[abi:ne180000]()::{lambda(auto:1&)#1}, std::__ndk1::__variant_detail::__base<(std::__ndk1::__variant_detail::__traits<matjson::Value, std::__ndk1::basic_string<char, std::__ndk1::char_traits<char>, std::__ndk1::allocator<char> > >)1, matjson, std::__ndk1::allocator<char> >&>(std::__ndk1::__variant_detail::__dtor<std::__ndk1::__variant_detail::__traits<matjson::Value, std::__ndk1::basic_string<char, std::__ndk1::char_traits<char>, std::__ndk1::allocator<char> > >, (std::__ndk1::__variant_detail::_Trait)1>, std::__ndk1::__variant_detail::__base<(std::__ndk1::__variant_detail::__traits<matjson::Value, std::__ndk1::basic_string<char, std::__ndk1::char_traits<char>, std::__ndk1::allocator<char> > >)1, matjson, std::__ndk1::allocator<char> >&)
FUNC 691c8 14 0 std::__ndk1::__variant_detail::__visitation::__base::__dispatcher<(unsigned long)1>::__dispatch[abi:ne180000]<std::__ndk1::__variant_detail::__dtor<std::__ndk1::__variant_detail::__traits<matjson::Value, std::__ndk1::basic_string<char, std::__ndk1::char_traits<char>, std::__ndk1::allocator<char> > >, (std::__ndk1::__variant_detail::_Trait)1>::__destroy[abi:ne180000]()::{lambda(auto:1&)#1}, std::__ndk1::__variant_detail::__base<(std::__ndk1::__variant_detail::__traits<matjson::Value, std::__ndk1::basic_string<char, std::__ndk1::char_traits<char>, std::__ndk1::allocator<char> > >)1, matjson, std::__ndk1::allocator<char> >&>(std::__ndk1::__variant_detail::__dtor<std::__ndk1::__variant_detail::__traits<matjson::Value, std::__ndk1::basic_string<char, std::__ndk1::char_traits<char>, std::__ndk1::allocator<char> > >, (std::__ndk1::__variant_detail::_Trait)1>, std::__ndk1::__variant_detail::__base<(std::__ndk1::__variant_detail::__traits<matjson::Value, std::__ndk1::basic_string<char, std::__ndk1::char_traits<char>, std::__ndk1::allocator<char> > >)1, matjson, std::__ndk1::allocator<char> >&)
FUNC 691dc 68 0 std::__ndk1::__variant_detail::__visitation::__base::__dispatcher<(unsigned long)0>::__dispatch[abi:ne180000]<std::__ndk1::__variant_detail::__dtor<std::__ndk1::__variant_detail::__traits<std::__ndk1::vector<matjson::Value, std::__ndk1::allocator<matjson> >, std::__ndk1::basic_string<char, std::__ndk1::char_traits<char>, matjson::Value<char> > >, (std::__ndk1::__variant_detail::_Trait)1>::__destroy[abi:ne180000]()::{lambda(auto:1&)#1}, std::__ndk1::__variant_detail::__base<(std::__ndk1::__variant_detail::__traits<std::__ndk1::vector<matjson::Value, std::__ndk1::allocator<matjson> >, std::__ndk1::basic_string<char, std::__ndk1::char_traits<char>, matjson::Value<char> > >)1, std::__ndk1::allocator<matjson>, matjson::Value<char> >&>(std::__ndk1::__variant_detail::__dtor<std::__ndk1::__variant_detail::__traits<std::__ndk1::vector<matjson::Value, std::__ndk1::allocator<matjson> >, std::__ndk1::basic_string<char, std::__ndk1::char_traits<char>, matjson::Value<char> > >, (std::__ndk1::__variant_detail::_Trait)1>, std::__ndk1::__variant_detail::__base<(std::__ndk1::__variant_detail::__traits<std::__ndk1::vector<matjson::Value, std::__ndk1::allocator<matjson> >, std::__ndk1::basic_string<char, std::__ndk1::char_traits<char>, matjson::Value<char> > >)1, std::__ndk1::allocator<matjson>, matjson::Value<char> >&)
FUNC 69244 14 0 std::__ndk1::__variant_detail::__visitation::__base::__dispatcher<(unsigned long)1>::__dispatch[abi:ne180000]<std::__ndk1::__variant_detail::__dtor<std::__ndk1::__variant_detail::__traits<std::__ndk1::vector<matjson::Value, std::__ndk1::allocator<matjson> >, std::__ndk1::basic_string<char, std::__ndk1::char_traits<char>, matjson::Value<char> > >, (std::__ndk1::__variant_detail::_Trait)1>::__destroy[abi:ne180000]()::{lambda(auto:1&)#1}, std::__ndk1::__variant_detail::__base<(std::__ndk1::__variant_detail::__traits<std::__ndk1::vector<matjson::Value, std::__ndk1::allocator<matjson> >, std::__ndk1::basic_string<char, std::__ndk1::char_traits<char>, matjson::Value<char> > >)1, std::__ndk1::allocator<matjson>, matjson::Value<char> >&>(std::__ndk1::__variant_detail::__dtor<std::__ndk1::__variant_detail::__traits<std::__ndk1::vector<matjson::Value, std::__ndk1::allocator<matjson> >, std::__ndk1::basic_string<char, std::__ndk1::char_traits<char>, matjson::Value<char> > >, (std::__ndk1::__variant_detail::_Trait)1>, std::__ndk1::__variant_detail::__base<(std::__ndk1::__variant_detail::__traits<std::__ndk1::vector<matjson::Value, std::__ndk1::allocator<matjson> >, std::__ndk1::basic_string<char, std::__ndk1::char_traits<char>, matjson::Value<char> > >)1, std::__ndk1::allocator<matjson>, matjson::Value<char> >&)
FUNC 69258 400 0 __cxx_global_var_init
FUNC 69658 1c 0 geode::modifier::ModifyBase<geode::modifier::ModifyDerive<hook9<(anonymous namespace)::hook9Parent>, GameManager> >::~ModifyBase()
FUNC 69674 788 0 geode::modifier::ModifyDerive<hook9<(anonymous namespace)::hook9Parent>, GameManager>::apply()
FUNC 69dfc 50 0 std::__ndk1::shared_ptr<geode::Hook>::~shared_ptr[abi:ne180000]()
FUNC 69e4c 74 0 geode::impl::ResultData<geode::Hook*, std::__ndk1::basic_string<char, std::__ndk1::char_traits<char>, std::__ndk1::allocator<char> > >::~ResultData()
FUNC 69ec0 7c 0 std::__ndk1::vector<std::__ndk1::basic_string<char, std::__ndk1::char_traits<char>, std::__ndk1::allocator<char> >, std::__ndk1::allocator<std::__ndk1::basic_string<char, std::__ndk1::char_traits<char>, std::__ndk1::allocator<char> > > >::~vector[abi:ne180000]()
FUNC 69f3c 4 0 geode::modifier::ModifyBase<geode::modifier::ModifyDerive<hook9<(anonymous namespace)::hook9Parent>, GameManager> >::apply()
FUNC 69f40 154 0 _ZN5geode15UnwrapExceptionC2IRPNS_4HookEQsr4implE18IsStringStreamableIT_EEENS_4impl5OkTagEOS5_
FUNC 6a094 21c 0 std::__ndk1::vector<std::__ndk1::basic_string<char, std::__ndk1::char_traits<char>, std::__ndk1::allocator<char> >, std::__ndk1::allocator<std::__ndk1::basic_string<char, std::__ndk1::char_traits<char>, std::__ndk1::allocator<char> > > >::__push_back_slow_path<std::__ndk1::basic_string<char, std::__ndk1::char_traits<char>, std::__ndk1::allocator<char> > const&>(std::__ndk1::basic_string<char, std::__ndk1::char_traits<char>, std::__ndk1::allocator<char> > const&)
FUNC 6a2b0 70 0 std::__ndk1::basic_string<char, std::__ndk1::char_traits<char>, std::__ndk1::allocator<char> >::__init_copy_ctor_external(char const*, unsigned long)
FUNC 6a320 68 0 std::__ndk1::__split_buffer<std::__ndk1::basic_string<char, std::__ndk1::char_traits<char>, std::__ndk1::allocator<char> >, std::__ndk1::allocator<std::__ndk1::basic_string<char, std::__ndk1::char_traits<char>, std::__ndk1::allocator<char> > >&>::~__split_buffer()
FUNC 6a388 14 0 std::__ndk1::vector<std::__ndk1::basic_string<char, std::__ndk1::char_traits<char>, std::__ndk1::allocator<char> >, std::__ndk1::allocator<std::__ndk1::basic_string<char, std::__ndk1::char_traits<char>, std::__ndk1::allocator<char> > > >::__throw_length_error[abi:ne180000]() const
FUNC 6a39c 4 0 std::__ndk1::__variant_detail::__visitation::__base::__dispatcher<(unsigned long)0>::__dispatch[abi:ne180000]<std::__ndk1::__variant_detail::__dtor<std::__ndk1::__variant_detail::__traits<geode::Hook*, std::__ndk1::basic_string<char, std::__ndk1::char_traits<char>, std::__ndk1::allocator<char> > >, (std::__ndk1::__variant_detail::_Trait)1>::__destroy[abi:ne180000]()::{lambda(auto:1&)#1}, std::__ndk1::__variant_detail::__base<(std::__ndk1::__variant_detail::__traits<geode::Hook*, std::__ndk1::basic_string<char, std::__ndk1::char_traits<char>, std::__ndk1::allocator<char> > >)1, geode::Hook, std::__ndk1::allocator<char> >&>(std::__ndk1::__variant_detail::__dtor<std::__ndk1::__variant_detail::__traits<geode::Hook*, std::__ndk1::basic_string<char, std::__ndk1::char_traits<char>, std::__ndk1::allocator<char> > >, (std::__ndk1::__variant_detail::_Trait)1>, std::__ndk1::__variant_detail::__base<(std::__ndk1::__variant_detail::__traits<geode::Hook*, std::__ndk1::basic_string<char, std::__ndk1::char_traits<char>, std::__ndk1::allocator<char> > >)1, geode::Hook, std::__ndk1::allocator<char> >&)
FUNC 6a3a0 14 0 std::__ndk1::__variant_detail::__visitation::__base::__dispatcher<(unsigned long)1>::__dispatch[abi:ne180000]<std::__ndk1::__variant_detail::__dtor<std::__ndk1::__variant_detail::__traits<geode::Hook*, std::__ndk1::basic_string<char, std::__ndk1::char_traits<char>, std::__ndk1::allocator<char> > >, (std::__ndk1::__variant_detail::_Trait)1>::__destroy[abi:ne180000]()::{lambda(auto:1&)#1}, std::__ndk1::__variant_detail::__base<(std::__ndk1::__variant_detail::__traits<geode::Hook*, std::__ndk1::basic_string<char, std::__ndk1::char_traits<char>, std::__ndk1::allocator<char> > >)1, geode::Hook, std::__ndk1::allocator<char> >&>(std::__ndk1::__variant_detail::__dtor<std::__ndk1::__variant_detail::__traits<geode::Hook*, std::__ndk1::basic_string<char, std::__ndk1::char_traits<char>, std::__ndk1::allocator<char> > >, (std::__ndk1::__variant_detail::_Trait)1>, std::__ndk1::__variant_detail::__base<(std::__ndk1::__variant_detail::__traits<geode::Hook*, std::__ndk1::basic_string<char, std::__ndk1::char_traits<char>, std::__ndk1::allocator<char> > >)1, geode::Hook, std::__ndk1::allocator<char> >&)
FUNC 6a3b4 fc 0 std::__ndk1::__tree<std::__ndk1::__value_type<std::__ndk1::basic_string<char, std::__ndk1::char_traits<char>, std::__ndk1::allocator<char> >, std::__ndk1::shared_ptr<geode::Hook> >, std::__ndk1::__map_value_compare<std::__ndk1::basic_string<char, std::__ndk1::char_traits<char>, std::__ndk1::allocator<char> >, std::__ndk1::__value_type<std::__ndk1::basic_string<char, std::__ndk1::char_traits<char>, std::__ndk1::allocator<char> >, std::__ndk1::shared_ptr<geode::Hook> >, std::__ndk1::less<std::__ndk1::basic_string<char, std::__ndk1::char_traits<char>, std::__ndk1::allocator<char> > >, true>, std::__ndk1::allocator<std::__ndk1::__value_type<std::__ndk1::basic_string<char, std::__ndk1::char_traits<char>, std::__ndk1::allocator<char> >, std::__ndk1::shared_ptr<geode::Hook> > > >::find<std::__ndk1::basic_string<char, std::__ndk1::char_traits<char>, std::__ndk1::allocator<char> > >(std::__ndk1::basic_string<char, std::__ndk1::char_traits<char>, std::__ndk1::allocator<char> > const&)
FUNC 6a4b0 d4 0 std::__ndk1::__tree<std::__ndk1::__value_type<std::__ndk1::basic_string<char, std::__ndk1::char_traits<char>, std::__ndk1::allocator<char> >, std::__ndk1::shared_ptr<geode::Hook> >, std::__ndk1::__map_value_compare<std::__ndk1::basic_string<char, std::__ndk1::char_traits<char>, std::__ndk1::allocator<char> >, std::__ndk1::__value_type<std::__ndk1::basic_string<char, std::__ndk1::char_traits<char>, std::__ndk1::allocator<char> >, std::__ndk1::shared_ptr<geode::Hook> >, std::__ndk1::less<std::__ndk1::basic_string<char, std::__ndk1::char_traits<char>, std::__ndk1::allocator<char> > >, true>, std::__ndk1::allocator<std::__ndk1::__value_type<std::__ndk1::basic_string<char, std::__ndk1::char_traits<char>, std::__ndk1::allocator<char> >, std::__ndk1::shared_ptr<geode::Hook> > > >::erase(std::__ndk1::__tree_const_iterator<std::__ndk1::__value_type<std::__ndk1::basic_string<char, std::__ndk1::char_traits<char>, std::__ndk1::allocator<char> >, std::__ndk1::shared_ptr<geode::Hook> >, std::__ndk1::__tree_node<std::__ndk1::__value_type<std::__ndk1::basic_string<char, std::__ndk1::char_traits<char>, std::__ndk1::allocator<char> >, std::__ndk1::shared_ptr<geode::Hook> >, void*>*, long>)
FUNC 6a584 388 0 std::__ndk1::__tree_remove[abi:ne180000]<std::__ndk1::__tree_node_base<void*>*>(std::__ndk1::__tree_node_base<void*>*, std::__ndk1::__tree_node_base<void*>*)
FUNC 6a90c 8c 0 std::__ndk1::__tree<std::__ndk1::__value_type<std::__ndk1::basic_string<char, std::__ndk1::char_traits<char>, std::__ndk1::allocator<char> >, std::__ndk1::shared_ptr<geode::Hook> >, std::__ndk1::__map_value_compare<std::__ndk1::basic_string<char, std::__ndk1::char_traits<char>, std::__ndk1::allocator<char> >, std::__ndk1::__value_type<std::__ndk1::basic_string<char, std::__ndk1::char_traits<char>, std::__ndk1::allocator<char> >, std::__ndk1::shared_ptr<geode::Hook> >, std::__ndk1::less<std::__ndk1::basic_string<char, std::__ndk1::char_traits<char>, std::__ndk1::allocator<char> > >, true>, std::__ndk1::allocator<std::__ndk1::__value_type<std::__ndk1::basic_string<char, std::__ndk1::char_traits<char>, std::__ndk1::allocator<char> >, std::__ndk1::shared_ptr<geode::Hook> > > >::destroy(std::__ndk1::__tree_node<std::__ndk1::__value_type<std::__ndk1::basic_string<char, std::__ndk1::char_traits<char>, std::__ndk1::allocator<char> >, std::__ndk1::shared_ptr<geode::Hook> >, void*>*)
FUNC 6a998 11c 0 geode::modifier::AsStaticFunction_isColorUnlocked<hook9<(anonymous namespace)::hook9Parent>, bool (hook9<(anonymous namespace)::hook9Parent>::*)(int, UnlockType)>::Impl<bool (hook9<(anonymous namespace)::hook9Parent>::*)(int, UnlockType)>::function(hook9<(anonymous namespace)::hook9Parent>*, int, UnlockType)
FUNC 6aab4 128 0 geode::modifier::AsStaticFunction_isIconUnlocked<hook9<(anonymous namespace)::hook9Parent>, bool (hook9<(anonymous namespace)::hook9Parent>::*)(int, IconType)>::Impl<bool (hook9<(anonymous namespace)::hook9Parent>::*)(int, IconType)>::function(hook9<(anonymous namespace)::hook9Parent>*, int, IconType)
FUNC 6abdc 50 0 std::__ndk1::shared_ptr<tulip::hook::CallingConvention>::~shared_ptr[abi:ne180000]()
FUNC 6ac2c 64 0 tulip::hook::HandlerMetadata::~HandlerMetadata()
FUNC 6ac90 104 0 std::__ndk1::__tree<std::__ndk1::__value_type<std::__ndk1::basic_string<char, std::__ndk1::char_traits<char>, std::__ndk1::allocator<char> >, std::__ndk1::shared_ptr<geode::Hook> >, std::__ndk1::__map_value_compare<std::__ndk1::basic_string<char, std::__ndk1::char_traits<char>, std::__ndk1::allocator<char> >, std::__ndk1::__value_type<std::__ndk1::basic_string<char, std::__ndk1::char_traits<char>, std::__ndk1::allocator<char> >, std::__ndk1::shared_ptr<geode::Hook> >, std::__ndk1::less<std::__ndk1::basic_string<char, std::__ndk1::char_traits<char>, std::__ndk1::allocator<char> > >, true>, std::__ndk1::allocator<std::__ndk1::__value_type<std::__ndk1::basic_string<char, std::__ndk1::char_traits<char>, std::__ndk1::allocator<char> >, std::__ndk1::shared_ptr<geode::Hook> > > >::__find_equal<std::__ndk1::basic_string<char, std::__ndk1::char_traits<char>, std::__ndk1::allocator<char> > >(std::__ndk1::__tree_end_node<std::__ndk1::__tree_node_base<void*>*>*&, std::__ndk1::basic_string<char, std::__ndk1::char_traits<char>, std::__ndk1::allocator<char> > const&)
FUNC 6ad94 19c 0 std::__ndk1::__tree_balance_after_insert[abi:ne180000]<std::__ndk1::__tree_node_base<void*>*>(std::__ndk1::__tree_node_base<void*>*, std::__ndk1::__tree_node_base<void*>*)
FUNC 6af30 400 0 __cxx_global_var_init
FUNC 6b330 400 0 __cxx_global_var_init.1
FUNC 6b730 1c 0 geode::modifier::ModifyBase<geode::modifier::ModifyDerive<hook10<(anonymous namespace)::hook10Parent>, EditLevelLayer> >::~ModifyBase()
FUNC 6b74c 1c 0 geode::modifier::ModifyBase<geode::modifier::ModifyDerive<hook29<(anonymous namespace)::hook29Parent>, LevelInfoLayer> >::~ModifyBase()
FUNC 6b768 3d4 0 geode::modifier::ModifyDerive<hook10<(anonymous namespace)::hook10Parent>, EditLevelLayer>::apply()
FUNC 6bb3c 4 0 geode::modifier::ModifyBase<geode::modifier::ModifyDerive<hook10<(anonymous namespace)::hook10Parent>, EditLevelLayer> >::apply()
FUNC 6bb40 274 0 geode::modifier::AsStaticFunction_onShare<hook10<(anonymous namespace)::hook10Parent>, void (hook10<(anonymous namespace)::hook10Parent>::*)(cocos2d::CCObject*)>::Impl<void (hook10<(anonymous namespace)::hook10Parent>::*)(cocos2d::CCObject*)>::function(hook10<(anonymous namespace)::hook10Parent>*, cocos2d::CCObject*)
FUNC 6bdb4 404 0 geode::modifier::ModifyDerive<hook29<(anonymous namespace)::hook29Parent>, LevelInfoLayer>::apply()
FUNC 6c1b8 4 0 geode::modifier::ModifyBase<geode::modifier::ModifyDerive<hook29<(anonymous namespace)::hook29Parent>, LevelInfoLayer> >::apply()
FUNC 6c1bc 1d8 0 geode::modifier::AsStaticFunction_init<hook29<(anonymous namespace)::hook29Parent>, bool (hook29<(anonymous namespace)::hook29Parent>::*)(GJGameLevel*, bool)>::Impl<bool (hook29<(anonymous namespace)::hook29Parent>::*)(GJGameLevel*, bool)>::function(hook29<(anonymous namespace)::hook29Parent>*, GJGameLevel*, bool)
FUNC 6c394 400 0 __cxx_global_var_init
FUNC 6c794 400 0 __cxx_global_var_init.1
FUNC 6cb94 400 0 __cxx_global_var_init.2
FUNC 6cf94 400 0 __cxx_global_var_init.3
FUNC 6d394 400 0 __cxx_global_var_init.4
FUNC 6d794 1c 0 geode::modifier::ModifyBase<geode::modifier::ModifyDerive<hook17<(anonymous namespace)::hook17Parent>, GameStatsManager> >::~ModifyBase()
FUNC 6d7b0 1c 0 geode::modifier::ModifyBase<geode::modifier::ModifyDerive<hook34<(anonymous namespace)::hook34Parent>, cocos2d::CCScheduler> >::~ModifyBase()
FUNC 6d7cc 1c 0 geode::modifier::ModifyBase<geode::modifier::ModifyDerive<hook67<(anonymous namespace)::hook67Parent>, PlayLayer> >::~ModifyBase()
FUNC 6d7e8 1c 0 geode::modifier::ModifyBase<geode::modifier::ModifyDerive<hook92<(anonymous namespace)::hook92Parent>, GameObject> >::~ModifyBase()
FUNC 6d804 1c 0 geode::modifier::ModifyBase<geode::modifier::ModifyDerive<hook106<(anonymous namespace)::hook106Parent>, GJGameLevel> >::~ModifyBase()
FUNC 6d820 414 0 geode::modifier::ModifyDerive<hook17<(anonymous namespace)::hook17Parent>, GameStatsManager>::apply()
FUNC 6dc34 4 0 geode::modifier::ModifyBase<geode::modifier::ModifyDerive<hook17<(anonymous namespace)::hook17Parent>, GameStatsManager> >::apply()
FUNC 6dc38 16c 0 geode::modifier::AsStaticFunction_isItemUnlocked<hook17<(anonymous namespace)::hook17Parent>, bool (hook17<(anonymous namespace)::hook17Parent>::*)(UnlockType, int)>::Impl<bool (hook17<(anonymous namespace)::hook17Parent>::*)(UnlockType, int)>::function(hook17<(anonymous namespace)::hook17Parent>*, UnlockType, int)
FUNC 6dda4 3d4 0 geode::modifier::ModifyDerive<hook34<(anonymous namespace)::hook34Parent>, cocos2d::CCScheduler>::apply()
FUNC 6e178 4 0 geode::modifier::ModifyBase<geode::modifier::ModifyDerive<hook34<(anonymous namespace)::hook34Parent>, cocos2d::CCScheduler> >::apply()
FUNC 6e17c 364 0 geode::modifier::AsStaticFunction_update<hook34<(anonymous namespace)::hook34Parent>, void (hook34<(anonymous namespace)::hook34Parent>::*)(float)>::Impl<void (hook34<(anonymous namespace)::hook34Parent>::*)(float)>::function(hook34<(anonymous namespace)::hook34Parent>*, float)
FUNC 6e4e0 d4 0 geode::addresser::Addresser::addressOfVirtual<void, cocos2d::CCScheduler, float>(void (cocos2d::CCScheduler::*)(float))
FUNC 6e5b4 28c 0 Utils::setPrecision(float, int)
FUNC 6e840 7c 0 std::__ndk1::basic_ostringstream<char, std::__ndk1::char_traits<char>, std::__ndk1::allocator<char> >::~basic_ostringstream()
FUNC 6e8bc 3c0 0 geode::modifier::ModifyDerive<hook67<(anonymous namespace)::hook67Parent>, PlayLayer>::apply()
FUNC 6ec7c 4 0 geode::modifier::ModifyBase<geode::modifier::ModifyDerive<hook67<(anonymous namespace)::hook67Parent>, PlayLayer> >::apply()
FUNC 6ec80 4f8 0 geode::modifier::AsStaticFunction_addObject<hook67<(anonymous namespace)::hook67Parent>, void (hook67<(anonymous namespace)::hook67Parent>::*)(GameObject*)>::Impl<void (hook67<(anonymous namespace)::hook67Parent>::*)(GameObject*)>::function(hook67<(anonymous namespace)::hook67Parent>*, GameObject*)
FUNC 6f178 4c 0 std::__ndk1::__hash_table<int, std::__ndk1::hash<int>, std::__ndk1::equal_to<int>, std::__ndk1::allocator<int> >::~__hash_table()
FUNC 6f1c4 3e8 0 std::__ndk1::__hash_table<int, std::__ndk1::hash<int>, std::__ndk1::equal_to<int>, std::__ndk1::allocator<int> >::__emplace_unique_key_args<int, int const&>(int const&, int const&)
FUNC 6f5ac 3ac 0 geode::modifier::ModifyDerive<hook92<(anonymous namespace)::hook92Parent>, GameObject>::apply()
FUNC 6f958 4 0 geode::modifier::ModifyBase<geode::modifier::ModifyDerive<hook92<(anonymous namespace)::hook92Parent>, GameObject> >::apply()
FUNC 6f95c b8 0 geode::addresser::getVirtual<void (GameObject::*)(bool)>(void (GameObject::*)(bool))
FUNC 6fa14 22c 0 geode::modifier::AsStaticFunction_setVisible<hook92<(anonymous namespace)::hook92Parent>, void (hook92<(anonymous namespace)::hook92Parent>::*)(bool)>::Impl<void (hook92<(anonymous namespace)::hook92Parent>::*)(bool)>::function(hook92<(anonymous namespace)::hook92Parent>*, bool)
FUNC 6fc40 dc 0 GameObject::GameObject(geode::ZeroConstructorType)
FUNC 6fd1c 474 0 geode::modifier::ModifyDerive<hook106<(anonymous namespace)::hook106Parent>, GJGameLevel>::apply()
FUNC 70190 4 0 geode::modifier::ModifyBase<geode::modifier::ModifyDerive<hook106<(anonymous namespace)::hook106Parent>, GJGameLevel> >::apply()
FUNC 70194 24c 0 geode::modifier::AsStaticFunction_savePercentage<hook106<(anonymous namespace)::hook106Parent>, void (hook106<(anonymous namespace)::hook106Parent>::*)(int, bool, int, int, bool)>::Impl<void (hook106<(anonymous namespace)::hook106Parent>::*)(int, bool, int, int, bool)>::function(hook106<(anonymous namespace)::hook106Parent>*, int, bool, int, int, bool)
FUNC 703e0 18 0 std::__ndk1::vector<std::__ndk1::pair<cocos2d::CCRect, cocos2d::CCRect>, std::__ndk1::allocator<std::__ndk1::pair<cocos2d::CCRect, cocos2d::CCRect> > >::~vector[abi:ne180000]()
FUNC 703f8 120 0 drawPlayerHitboxes(cocos2d::CCDrawNode*, std::__ndk1::pair<cocos2d::CCRect, cocos2d::CCRect>, bool)
FUNC 70518 444 0 __cxx_global_var_init.1
FUNC 7095c 1c 0 geode::modifier::ModifyBase<geode::modifier::ModifyDerive<ShaderMiscHacks, ShaderLayer> >::~ModifyBase()
FUNC 70978 444 0 __cxx_global_var_init.2
FUNC 70dbc 1c 0 geode::modifier::ModifyBase<geode::modifier::ModifyDerive<GJBGLMiscHacks, GJBaseGameLayer> >::~ModifyBase()
FUNC 70dd8 400 0 __cxx_global_var_init.3
FUNC 711d8 1c 0 _GLOBAL__sub_I_Misc.cpp
FUNC 711f4 1c 0 geode::modifier::ModifyBase<geode::modifier::ModifyDerive<hook82<(anonymous namespace)::hook82Parent>, LevelEditorLayer> >::~ModifyBase()
FUNC 71210 444 0 __cxx_global_var_init.4
FUNC 71654 1c 0 geode::modifier::ModifyBase<geode::modifier::ModifyDerive<PLMiscHacks, PlayLayer> >::~ModifyBase()
FUNC 71670 444 0 __cxx_global_var_init.5
FUNC 71ab4 1c 0 geode::modifier::ModifyBase<geode::modifier::ModifyDerive<DrawMiscHacks, cocos2d::CCDrawNode> >::~ModifyBase()
FUNC 71ad0 388 0 geode::modifier::ModifyDerive<ShaderMiscHacks, ShaderLayer>::apply()
FUNC 71e58 4 0 geode::modifier::ModifyBase<geode::modifier::ModifyDerive<ShaderMiscHacks, ShaderLayer> >::apply()
FUNC 71e5c 134 0 geode::modifier::AsStaticFunction_performCalculations<ShaderMiscHacks, void (ShaderMiscHacks::*)()>::Impl<void (ShaderMiscHacks::*)()>::function(ShaderMiscHacks*)
FUNC 71f90 14 0 std::__ndk1::vector<tulip::hook::AbstractType, std::__ndk1::allocator<tulip::hook::AbstractType> >::__throw_length_error[abi:ne180000]() const
FUNC 71fa4 52c 0 geode::modifier::ModifyDerive<GJBGLMiscHacks, GJBaseGameLayer>::apply()
FUNC 724d0 4 0 geode::modifier::ModifyBase<geode::modifier::ModifyDerive<GJBGLMiscHacks, GJBaseGameLayer> >::apply()
FUNC 724d4 6c 0 geode::addresser::getVirtual<void (GJBaseGameLayer::*)(float)>(void (GJBaseGameLayer::*)(float))
FUNC 72540 184 0 geode::Hook::create<void (*)(GJBGLMiscHacks*, float)>(void*, void (*)(GJBGLMiscHacks*, float), std::__ndk1::basic_string<char, std::__ndk1::char_traits<char>, std::__ndk1::allocator<char> > const&, tulip::hook::TulipConvention, tulip::hook::HookMetadata const&)
FUNC 726c4 2d4 0 geode::modifier::AsStaticFunction_update<GJBGLMiscHacks, void (GJBGLMiscHacks::*)(float)>::Impl<void (GJBGLMiscHacks::*)(float)>::function(GJBGLMiscHacks*, float)
FUNC 72998 460 0 geode::modifier::AsStaticFunction_processCommands<GJBGLMiscHacks, void (GJBGLMiscHacks::*)(float)>::Impl<void (GJBGLMiscHacks::*)(float)>::function(GJBGLMiscHacks*, float)
FUNC 72df8 8c 0 _ZN5geode9addresser9Addresser14cachedInstanceI15GJBaseGameLayerEEPT_vQ18HasZeroConstructorIS4_E
FUNC 72e84 71c 0 GJBaseGameLayer::GJBaseGameLayer(geode::ZeroConstructorType)
FUNC 735a0 550 0 GJGameState::GJGameState()
FUNC 73af0 78 0 geode::stl::unordered_map<int, int, geode::stl::hash<int>, geode::stl::equal_to<int>, std::__ndk1::allocator<std::__ndk1::pair<int const, int> > >::~unordered_map()
FUNC 73b68 78 0 geode::stl::unordered_set<int, geode::stl::hash<int>, geode::stl::equal_to<int>, std::__ndk1::allocator<int> >::~unordered_set()
FUNC 73be0 84 0 geode::stl::unordered_map<int, gd::string, geode::stl::hash<int>, geode::stl::equal_to<int>, std::__ndk1::allocator<std::__ndk1::pair<int const, gd::string> > >::~unordered_map()
FUNC 73c64 1c 0 gd::map<std::__ndk1::pair<int, int>, int>::~map()
FUNC 73c80 8c 0 geode::stl::unordered_map<int, gd::vector<LabelGameObject*>, geode::stl::hash<int>, geode::stl::equal_to<int>, std::__ndk1::allocator<std::__ndk1::pair<int const, gd::vector<LabelGameObject*> > > >::~unordered_map()
FUNC 73d0c 78 0 geode::stl::unordered_map<int, std::__ndk1::pair<int, int>, geode::stl::hash<int>, geode::stl::equal_to<int>, std::__ndk1::allocator<std::__ndk1::pair<int const, std::__ndk1::pair<int, int> > > >::~unordered_map()
FUNC 73d84 8c 0 geode::stl::unordered_map<int, gd::vector<GameObject*>, geode::stl::hash<int>, geode::stl::equal_to<int>, std::__ndk1::allocator<std::__ndk1::pair<int const, gd::vector<GameObject*> > > >::~unordered_map()
FUNC 73e10 78 0 geode::stl::unordered_map<int, cocos2d::CCPoint, geode::stl::hash<int>, geode::stl::equal_to<int>, std::__ndk1::allocator<std::__ndk1::pair<int const, cocos2d::CCPoint> > >::~unordered_map()
FUNC 73e88 104 0 gd::vector<geode::stl::unordered_map<int, int, geode::stl::hash<int>, geode::stl::equal_to<int>, std::__ndk1::allocator<std::__ndk1::pair<int const, int> > > >::~vector()
FUNC 73f8c 440 0 GJGameState::~GJGameState()
FUNC 743cc 78 0 geode::stl::unordered_map<int, SongChannelState, geode::stl::hash<int>, geode::stl::equal_to<int>, std::__ndk1::allocator<std::__ndk1::pair<int const, SongChannelState> > >::~unordered_map()
FUNC 74444 1c 0 gd::map<std::__ndk1::pair<int, int>, SFXTriggerInstance>::~map()
FUNC 74460 90 0 geode::stl::unordered_map<int, std::__ndk1::vector<int, std::__ndk1::allocator<int> >, geode::stl::hash<int>, geode::stl::equal_to<int>, std::__ndk1::allocator<std::__ndk1::pair<int const, std::__ndk1::vector<int, std::__ndk1::allocator<int> > > > >::~unordered_map()
FUNC 744f0 98 0 gd::vector<EnterEffectInstance>::~vector()
FUNC 74588 60 0 geode::stl::unordered_map<int, std::__ndk1::vector<EnterEffectInstance, std::__ndk1::allocator<EnterEffectInstance> >, geode::stl::hash<int>, geode::stl::equal_to<int>, std::__ndk1::allocator<std::__ndk1::pair<int const, std::__ndk1::vector<EnterEffectInstance, std::__ndk1::allocator<EnterEffectInstance> > > > >::~unordered_map()
FUNC 745e8 1c 0 gd::map<std::__ndk1::pair<GJGameEvent, int>, int>::~map()
FUNC 74604 1c 0 gd::map<std::__ndk1::pair<GJGameEvent, int>, gd::vector<EventTriggerInstance> >::~map()
FUNC 74620 78 0 geode::stl::unordered_map<int, EnhancedGameObject*, geode::stl::hash<int>, geode::stl::equal_to<int>, std::__ndk1::allocator<std::__ndk1::pair<int const, EnhancedGameObject*> > >::~unordered_map()
FUNC 74698 78 0 geode::stl::unordered_map<int, GameObjectPhysics, geode::stl::hash<int>, geode::stl::equal_to<int>, std::__ndk1::allocator<std::__ndk1::pair<int const, GameObjectPhysics> > >::~unordered_map()
FUNC 74710 78 0 geode::stl::unordered_map<int, GJValueTween, geode::stl::hash<int>, geode::stl::equal_to<int>, std::__ndk1::allocator<std::__ndk1::pair<int const, GJValueTween> > >::~unordered_map()
FUNC 74788 78 0 geode::stl::unordered_map<int, bool, geode::stl::hash<int>, geode::stl::equal_to<int>, std::__ndk1::allocator<std::__ndk1::pair<int const, bool> > >::~unordered_map()
FUNC 74800 1cc 0 gd::map<std::__ndk1::pair<GJGameEvent, int>, gd::vector<EventTriggerInstance> >::map(std::__ndk1::map<std::__ndk1::pair<GJGameEvent, int>, gd::vector<EventTriggerInstance>, std::__ndk1::less<std::__ndk1::pair<GJGameEvent, int> >, std::__ndk1::allocator<std::__ndk1::pair<std::__ndk1::pair<GJGameEvent, int> const, gd::vector<EventTriggerInstance> > > >)
FUNC 749cc 250 0 gd::map<std::__ndk1::pair<GJGameEvent, int>, gd::vector<EventTriggerInstance> >::insert_pair(std::__ndk1::pair<std::__ndk1::pair<GJGameEvent, int>, gd::vector<EventTriggerInstance> > const&)
FUNC 74c1c 80 0 std::__ndk1::pair<std::__ndk1::pair<GJGameEvent, int>, gd::vector<EventTriggerInstance> >::~pair()
FUNC 74c9c 80 0 std::__ndk1::pair<std::__ndk1::pair<GJGameEvent, int> const, gd::vector<EventTriggerInstance> >::~pair()
FUNC 74d1c 194 0 gd::vector<EventTriggerInstance>::vector(gd::vector<EventTriggerInstance> const&)
FUNC 74eb0 250 0 geode::stl::_rb_insert_rebalance(bool, geode::stl::_rb_tree_base*, geode::stl::_rb_tree_base*, geode::stl::_rb_tree_base&)
FUNC 75100 1c8 0 gd::vector<EventTriggerInstance>::operator=(gd::vector<EventTriggerInstance> const&)
FUNC 752c8 80 0 gd::vector<EventTriggerInstance>::~vector()
FUNC 75348 98 0 std::__ndk1::__tree<std::__ndk1::__value_type<std::__ndk1::pair<GJGameEvent, int>, gd::vector<EventTriggerInstance> >, std::__ndk1::__map_value_compare<std::__ndk1::pair<GJGameEvent, int>, std::__ndk1::__value_type<std::__ndk1::pair<GJGameEvent, int>, gd::vector<EventTriggerInstance> >, std::__ndk1::less<std::__ndk1::pair<GJGameEvent, int> >, true>, std::__ndk1::allocator<std::__ndk1::__value_type<std::__ndk1::pair<GJGameEvent, int>, gd::vector<EventTriggerInstance> > > >::destroy(std::__ndk1::__tree_node<std::__ndk1::__value_type<std::__ndk1::pair<GJGameEvent, int>, gd::vector<EventTriggerInstance> >, void*>*)
FUNC 753e0 4c 0 gd::map<std::__ndk1::pair<int, int>, SFXTriggerInstance>::erase(geode::stl::_rb_tree_node<std::__ndk1::pair<std::__ndk1::pair<int, int>, SFXTriggerInstance> >*)
FUNC 7542c 4c 0 gd::map<int, EnterEffectAnimValue>::erase(geode::stl::_rb_tree_node<std::__ndk1::pair<int, EnterEffectAnimValue> >*)
FUNC 75478 88 0 geode::stl::__detail::_Hashtable_alloc<std::__ndk1::allocator<geode::stl::__detail::_Hash_node<std::__ndk1::pair<int const, std::__ndk1::vector<EnterEffectInstance, std::__ndk1::allocator<EnterEffectInstance> > >, false> > >::_M_deallocate_nodes(geode::stl::__detail::_Hash_node<std::__ndk1::pair<int const, std::__ndk1::vector<EnterEffectInstance, std::__ndk1::allocator<EnterEffectInstance> > >, false>*)
FUNC 75500 4c 0 gd::map<std::__ndk1::pair<GJGameEvent, int>, int>::erase(geode::stl::_rb_tree_node<std::__ndk1::pair<std::__ndk1::pair<GJGameEvent, int>, int> >*)
FUNC 7554c a8 0 gd::map<std::__ndk1::pair<GJGameEvent, int>, gd::vector<EventTriggerInstance> >::erase(geode::stl::_rb_tree_node<std::__ndk1::pair<std::__ndk1::pair<GJGameEvent, int>, gd::vector<EventTriggerInstance> > >*)
FUNC 755f4 4c 0 gd::map<std::__ndk1::pair<int, int>, int>::erase(geode::stl::_rb_tree_node<std::__ndk1::pair<std::__ndk1::pair<int, int>, int> >*)
FUNC 75640 14 0 std::__ndk1::vector<std::__ndk1::pair<cocos2d::CCRect, cocos2d::CCRect>, std::__ndk1::allocator<std::__ndk1::pair<cocos2d::CCRect, cocos2d::CCRect> > >::__throw_length_error[abi:ne180000]() const
FUNC 75654 3d8 0 geode::modifier::ModifyDerive<hook82<(anonymous namespace)::hook82Parent>, LevelEditorLayer>::apply()
FUNC 75a2c 4 0 geode::modifier::ModifyBase<geode::modifier::ModifyDerive<hook82<(anonymous namespace)::hook82Parent>, LevelEditorLayer> >::apply()
FUNC 75a30 b8 0 geode::addresser::getVirtual<void (LevelEditorLayer::*)(float)>(void (LevelEditorLayer::*)(float))
FUNC 75ae8 328 0 geode::modifier::AsStaticFunction_updateVisibility<hook82<(anonymous namespace)::hook82Parent>, void (hook82<(anonymous namespace)::hook82Parent>::*)(float)>::Impl<void (hook82<(anonymous namespace)::hook82Parent>::*)(float)>::function(hook82<(anonymous namespace)::hook82Parent>*, float)
FUNC 75e10 78 0 LevelEditorLayer::LevelEditorLayer(geode::ZeroConstructorType)
FUNC 75e88 718 0 GJBaseGameLayer::GJBaseGameLayer(geode::ZeroConstructorType, unsigned long)
FUNC 765a0 18c 0 geode::modifier::FieldIntermediate<hook82<(anonymous namespace)::hook82Parent>, LevelEditorLayer>::operator->()
FUNC 7672c 290 0 geode::modifier::FieldContainer::getField(unsigned long)
FUNC 769bc 114 0 geode::modifier::FieldContainer::setField(unsigned long, unsigned long, std::__ndk1::function<void (void*)>)
FUNC 76ad0 4 0 geode::modifier::FieldIntermediate<hook82<(anonymous namespace)::hook82Parent>, LevelEditorLayer>::fieldDestructor(void*)
FUNC 76ad4 14 0 std::__ndk1::vector<void*, std::__ndk1::allocator<void*> >::__throw_length_error[abi:ne180000]() const
FUNC 76ae8 200 0 std::__ndk1::vector<std::__ndk1::function<void (void*)>, std::__ndk1::allocator<std::__ndk1::function<void (void*)> > >::__push_back_slow_path<std::__ndk1::function<void (void*)> >(std::__ndk1::function<void (void*)>&&)
FUNC 76ce8 14 0 std::__ndk1::vector<std::__ndk1::function<void (void*)>, std::__ndk1::allocator<std::__ndk1::function<void (void*)> > >::__throw_length_error[abi:ne180000]() const
FUNC 76cfc 14 0 std::__ndk1::vector<void*, std::__ndk1::allocator<void*> >::__throw_out_of_range[abi:ne180000]() const
FUNC 76d10 50 0 std::__ndk1::__throw_out_of_range[abi:ne180000](char const*)
FUNC 76d60 30 0 std::out_of_range::out_of_range[abi:ne180000](char const*)
FUNC 76d90 14 0 std::__ndk1::vector<std::__ndk1::function<void (void*)>, std::__ndk1::allocator<std::__ndk1::function<void (void*)> > >::__throw_out_of_range[abi:ne180000]() const
FUNC 76da4 4 0 std::__ndk1::__function::__base<void (void*)>::~__base()
FUNC 76da8 4 0 std::__ndk1::__function::__func<void (*)(void*), std::__ndk1::allocator<void (*)(void*)>, void (void*)>::~__func()
FUNC 76dac 38 0 std::__ndk1::__function::__func<void (*)(void*), std::__ndk1::allocator<void (*)(void*)>, void (void*)>::__clone() const
FUNC 76de4 18 0 std::__ndk1::__function::__func<void (*)(void*), std::__ndk1::allocator<void (*)(void*)>, void (void*)>::__clone(std::__ndk1::__function::__base<void (void*)>*) const
FUNC 76dfc 4 0 std::__ndk1::__function::__func<void (*)(void*), std::__ndk1::allocator<void (*)(void*)>, void (void*)>::destroy()
FUNC 76e00 4 0 std::__ndk1::__function::__func<void (*)(void*), std::__ndk1::allocator<void (*)(void*)>, void (void*)>::destroy_deallocate()
FUNC 76e04 10 0 std::__ndk1::__function::__func<void (*)(void*), std::__ndk1::allocator<void (*)(void*)>, void (void*)>::operator()(void*&&)
FUNC 76e14 1c 0 std::__ndk1::__function::__func<void (*)(void*), std::__ndk1::allocator<void (*)(void*)>, void (void*)>::target(std::type_info const&) const
FUNC 76e30 c 0 std::__ndk1::__function::__func<void (*)(void*), std::__ndk1::allocator<void (*)(void*)>, void (void*)>::target_type() const
FUNC 76e3c 814 0 geode::modifier::ModifyDerive<PLMiscHacks, PlayLayer>::apply()
FUNC 77650 4 0 geode::modifier::ModifyBase<geode::modifier::ModifyDerive<PLMiscHacks, PlayLayer> >::apply()
FUNC 77654 6c 0 geode::addresser::getVirtual<void (PlayLayer::*)(float)>(void (PlayLayer::*)(float))
FUNC 776c0 184 0 geode::Hook::create<void (*)(PLMiscHacks*, float)>(void*, void (*)(PLMiscHacks*, float), std::__ndk1::basic_string<char, std::__ndk1::char_traits<char>, std::__ndk1::allocator<char> > const&, tulip::hook::TulipConvention, tulip::hook::HookMetadata const&)
FUNC 77844 124 0 geode::modifier::AsStaticFunction_postUpdate<PLMiscHacks, void (PLMiscHacks::*)(float)>::Impl<void (PLMiscHacks::*)(float)>::function(PLMiscHacks*, float)
FUNC 77968 3fc 0 geode::modifier::AsStaticFunction_updateVisibility<PLMiscHacks, void (PLMiscHacks::*)(float)>::Impl<void (PLMiscHacks::*)(float)>::function(PLMiscHacks*, float)
FUNC 77d64 24 0 geode::modifier::AsStaticFunction_resetLevel<PLMiscHacks, void (PLMiscHacks::*)()>::Impl<void (PLMiscHacks::*)()>::function(PLMiscHacks*)
FUNC 77d88 8c 0 _ZN5geode9addresser9Addresser14cachedInstanceI9PlayLayerEEPT_vQ18HasZeroConstructorIS4_E
FUNC 77e14 94 0 PlayLayer::PlayLayer(geode::ZeroConstructorType)
FUNC 77ea8 468 0 geode::modifier::ModifyDerive<DrawMiscHacks, cocos2d::CCDrawNode>::apply()
FUNC 78310 4 0 geode::modifier::ModifyBase<geode::modifier::ModifyDerive<DrawMiscHacks, cocos2d::CCDrawNode> >::apply()
FUNC 78314 17c 0 geode::modifier::AsStaticFunction_drawPolygon<DrawMiscHacks, bool (DrawMiscHacks::*)(cocos2d::CCPoint*, unsigned int, cocos2d::_ccColor4F const&, float, cocos2d::_ccColor4F const&)>::Impl<bool (DrawMiscHacks::*)(cocos2d::CCPoint*, unsigned int, cocos2d::_ccColor4F const&, float, cocos2d::_ccColor4F const&)>::function(DrawMiscHacks*, cocos2d::CCPoint*, unsigned int, cocos2d::_ccColor4F const&, float, cocos2d::_ccColor4F const&)
FUNC 78490 e4 0 geode::cast::traverseTypeinfoFor(void*, geode::cast::ClassTypeinfoType const*, char const*)
FUNC 78574 444 0 __cxx_global_var_init
FUNC 789b8 1c 0 geode::modifier::ModifyBase<geode::modifier::ModifyDerive<POPlayerHacks, PlayerObject> >::~ModifyBase()
FUNC 789d4 400 0 __cxx_global_var_init.1
FUNC 78dd4 400 0 __cxx_global_var_init.2
FUNC 791d4 400 0 __cxx_global_var_init.4
FUNC 795d4 1c 0 geode::modifier::ModifyBase<geode::modifier::ModifyDerive<hook69<(anonymous namespace)::hook69Parent>, HardStreak> >::~ModifyBase()
FUNC 795f0 1c 0 geode::modifier::ModifyBase<geode::modifier::ModifyDerive<hook84<(anonymous namespace)::hook84Parent>, MenuGameLayer> >::~ModifyBase()
FUNC 7960c 444 0 __cxx_global_var_init.3
FUNC 79a50 1c 0 geode::modifier::ModifyBase<geode::modifier::ModifyDerive<GJBGLPlayerHacks, GJBaseGameLayer> >::~ModifyBase()
FUNC 79a6c 1c 0 geode::modifier::ModifyBase<geode::modifier::ModifyDerive<hook161<(anonymous namespace)::hook161Parent>, cocos2d::CCDrawNode> >::~ModifyBase()
FUNC 79a88 13d8 0 geode::modifier::ModifyDerive<POPlayerHacks, PlayerObject>::apply()
FUNC 7ae60 4 0 geode::modifier::ModifyBase<geode::modifier::ModifyDerive<POPlayerHacks, PlayerObject> >::apply()
FUNC 7ae64 b8 0 geode::addresser::getVirtual<void (PlayerObject::*)(float)>(void (PlayerObject::*)(float))
FUNC 7af1c 33c 0 geode::modifier::AsStaticFunction_update<POPlayerHacks, void (POPlayerHacks::*)(float)>::Impl<void (POPlayerHacks::*)(float)>::function(POPlayerHacks*, float)
FUNC 7b258 1dc 0 geode::modifier::AsStaticFunction_activateStreak<POPlayerHacks, void (POPlayerHacks::*)()>::Impl<void (POPlayerHacks::*)()>::function(POPlayerHacks*)
FUNC 7b434 20c 0 geode::modifier::AsStaticFunction_collidedWithObject<POPlayerHacks, void (POPlayerHacks::*)(float, GameObject*, cocos2d::CCRect, bool)>::Impl<void (POPlayerHacks::*)(float, GameObject*, cocos2d::CCRect, bool)>::function(POPlayerHacks*, float, GameObject*, cocos2d::CCRect, bool)
FUNC 7b640 144 0 geode::modifier::AsStaticFunction_playerDestroyed<POPlayerHacks, void (POPlayerHacks::*)(bool)>::Impl<void (POPlayerHacks::*)(bool)>::function(POPlayerHacks*, bool)
FUNC 7b784 138 0 geode::modifier::AsStaticFunction_pushButton<POPlayerHacks, bool (POPlayerHacks::*)(PlayerButton)>::Impl<bool (POPlayerHacks::*)(PlayerButton)>::function(POPlayerHacks*, PlayerButton)
FUNC 7b8bc 14c 0 geode::modifier::AsStaticFunction_runNormalRotation<POPlayerHacks, void (POPlayerHacks::*)(bool, float)>::Impl<void (POPlayerHacks::*)(bool, float)>::function(POPlayerHacks*, bool, float)
FUNC 7ba08 2b0 0 PlayerObject::PlayerObject(geode::ZeroConstructorType)
FUNC 7bcb8 1c 0 gd::map<int, bool>::~map()
FUNC 7bcd4 78 0 geode::stl::unordered_map<int, GameObject*, geode::stl::hash<int>, geode::stl::equal_to<int>, std::__ndk1::allocator<std::__ndk1::pair<int const, GameObject*> > >::~unordered_map()
FUNC 7bd4c 78 0 geode::stl::unordered_map<int, GJPointDouble, geode::stl::hash<int>, geode::stl::equal_to<int>, std::__ndk1::allocator<std::__ndk1::pair<int const, GJPointDouble> > >::~unordered_map()
FUNC 7bdc4 48 0 GameObject::~GameObject()
FUNC 7be0c 4c 0 gd::map<int, bool>::erase(geode::stl::_rb_tree_node<std::__ndk1::pair<int, bool> >*)
FUNC 7be58 3d4 0 geode::modifier::ModifyDerive<hook69<(anonymous namespace)::hook69Parent>, HardStreak>::apply()
FUNC 7c22c 4 0 geode::modifier::ModifyBase<geode::modifier::ModifyDerive<hook69<(anonymous namespace)::hook69Parent>, HardStreak> >::apply()
FUNC 7c230 1e0 0 geode::modifier::AsStaticFunction_updateStroke<hook69<(anonymous namespace)::hook69Parent>, void (hook69<(anonymous namespace)::hook69Parent>::*)(float)>::Impl<void (hook69<(anonymous namespace)::hook69Parent>::*)(float)>::function(hook69<(anonymous namespace)::hook69Parent>*, float)
FUNC 7c410 3ac 0 geode::modifier::ModifyDerive<hook84<(anonymous namespace)::hook84Parent>, MenuGameLayer>::apply()
FUNC 7c7bc 4 0 geode::modifier::ModifyBase<geode::modifier::ModifyDerive<hook84<(anonymous namespace)::hook84Parent>, MenuGameLayer> >::apply()
FUNC 7c7c0 a8 0 geode::addresser::getVirtual<void (MenuGameLayer::*)(float)>(void (MenuGameLayer::*)(float))
FUNC 7c868 174 0 geode::modifier::AsStaticFunction_update<hook84<(anonymous namespace)::hook84Parent>, void (hook84<(anonymous namespace)::hook84Parent>::*)(float)>::Impl<void (hook84<(anonymous namespace)::hook84Parent>::*)(float)>::function(hook84<(anonymous namespace)::hook84Parent>*, float)
FUNC 7c9dc 98 0 MenuGameLayer::MenuGameLayer(geode::ZeroConstructorType)
FUNC 7ca74 188 0 geode::modifier::FieldIntermediate<hook84<(anonymous namespace)::hook84Parent>, MenuGameLayer>::operator->()
FUNC 7cbfc 4 0 geode::modifier::FieldIntermediate<hook84<(anonymous namespace)::hook84Parent>, MenuGameLayer>::fieldDestructor(void*)
FUNC 7cc00 750 0 geode::modifier::ModifyDerive<GJBGLPlayerHacks, GJBaseGameLayer>::apply()
FUNC 7d350 4 0 geode::modifier::ModifyBase<geode::modifier::ModifyDerive<GJBGLPlayerHacks, GJBaseGameLayer> >::apply()
FUNC 7d354 2e4 0 geode::modifier::AsStaticFunction_processCommands<GJBGLPlayerHacks, void (GJBGLPlayerHacks::*)(float)>::Impl<void (GJBGLPlayerHacks::*)(float)>::function(GJBGLPlayerHacks*, float)
FUNC 7d638 200 0 geode::modifier::AsStaticFunction_toggleFlipped<GJBGLPlayerHacks, void (GJBGLPlayerHacks::*)(bool, bool)>::Impl<void (GJBGLPlayerHacks::*)(bool, bool)>::function(GJBGLPlayerHacks*, bool, bool)
FUNC 7d838 188 0 geode::modifier::FieldIntermediate<GJBGLPlayerHacks, GJBaseGameLayer>::self()
FUNC 7d9c0 4 0 geode::modifier::FieldIntermediate<GJBGLPlayerHacks, GJBaseGameLayer>::fieldDestructor(void*)
FUNC 7d9c4 468 0 geode::modifier::ModifyDerive<hook161<(anonymous namespace)::hook161Parent>, cocos2d::CCDrawNode>::apply()
FUNC 7de2c 4 0 geode::modifier::ModifyBase<geode::modifier::ModifyDerive<hook161<(anonymous namespace)::hook161Parent>, cocos2d::CCDrawNode> >::apply()
FUNC 7de30 204 0 geode::modifier::AsStaticFunction_drawPolygon<hook161<(anonymous namespace)::hook161Parent>, bool (hook161<(anonymous namespace)::hook161Parent>::*)(cocos2d::CCPoint*, unsigned int, cocos2d::_ccColor4F const&, float, cocos2d::_ccColor4F const&)>::Impl<bool (hook161<(anonymous namespace)::hook161Parent>::*)(cocos2d::CCPoint*, unsigned int, cocos2d::_ccColor4F const&, float, cocos2d::_ccColor4F const&)>::function(hook161<(anonymous namespace)::hook161Parent>*, cocos2d::CCPoint*, unsigned int, cocos2d::_ccColor4F const&, float, cocos2d::_ccColor4F const&)
FUNC 7e034 21dc 0 SelectMacroUI::init(float, float, Dropdown*)
FUNC 80210 140 0 MacroFile::MacroFile(MacroFile const&)
FUNC 80350 6c 0 MacroFile::~MacroFile()
FUNC 803bc 30 0 SelectMacroUI::keyDown(cocos2d::enumKeyCodes)
FUNC 803ec 34 0 {virtual override thunk({offset(-344)}, SelectMacroUI::keyDown(cocos2d::enumKeyCodes))}
FUNC 80420 10 0 SelectMacroUI::keybackClicked()
FUNC 80430 108 0 SelectMacroUI::onClose(cocos2d::CCObject*)
FUNC 80538 11c 0 SelectMacroUI::onClick(cocos2d::CCObject*)
FUNC 80654 dc 0 MacroItemCell::onError(cocos2d::CCObject*)
FUNC 80730 33c 0 MacroItemCell::onSelect(cocos2d::CCObject*)
FUNC 80a6c 158 0 MacroItemCell::onTrash(cocos2d::CCObject*)
FUNC 80bc4 240 0 MacroItemCell::onInfo(cocos2d::CCObject*)
FUNC 80e04 c4 0 Hacks::getHack(std::__ndk1::basic_string<char, std::__ndk1::char_traits<char>, std::__ndk1::allocator<char> > const&)
FUNC 80ec8 8c 0 std::__ndk1::basic_string<char, std::__ndk1::char_traits<char>, std::__ndk1::allocator<char> >::basic_string[abi:ne180000]<0>()
FUNC 80f54 b8 0 MacroItemCell::draw()
FUNC 8100c 894 0 CreateMacroUI::setup()
FUNC 818a0 dc 0 CreateMacroUI::onLeftFPS(cocos2d::CCObject*)
FUNC 8197c dc 0 CreateMacroUI::onRightFPS(cocos2d::CCObject*)
FUNC 81a58 b4 0 CreateMacroUI::onInfo(cocos2d::CCObject*)
FUNC 81b0c 334 0 CreateMacroUI::onCreate(cocos2d::CCObject*)
FUNC 81e40 334 0 CreateMacroUI::onCreateJSON(cocos2d::CCObject*)
FUNC 82174 90c 0 MacroManager::createMacro(std::__ndk1::basic_string<char, std::__ndk1::char_traits<char>, std::__ndk1::allocator<char> >, std::__ndk1::basic_string<char, std::__ndk1::char_traits<char>, std::__ndk1::allocator<char> >, std::__ndk1::basic_string<char, std::__ndk1::char_traits<char>, std::__ndk1::allocator<char> >, bool)
FUNC 82a80 12c 0 CreateMacroUI::onClick(cocos2d::CCObject*)
FUNC 82bac f4 0 QuartzMacro::QuartzMacro()
FUNC 82ca0 b0 0 gdr::Replay<QuartzMacro, QuartzInput>::~Replay()
FUNC 82d50 c4 0 PlayerToFrame(PlayerObject*, int, bool, bool, int)
FUNC 82e14 c0 0 UpdatePlayerType(PlayerObject*, PlayerFrame, MacroType)
FUNC 82ed4 2a0 0 GotoFrameUI::setup()
FUNC 83174 150 0 geode::Popup<>::setTitle(std::__ndk1::basic_string<char, std::__ndk1::char_traits<char>, std::__ndk1::allocator<char> > const&, char const*, float, float)
FUNC 832c4 dc 0 GotoFrameUI::onInfoBtn(cocos2d::CCObject*)
FUNC 833a0 224 0 GotoFrameUI::gotoFrameBtn(cocos2d::CCObject*)
FUNC 835c4 104 0 ClearFramesUI::setup()
FUNC 836c8 b4 0 ClearFramesUI::onInfoBtn(cocos2d::CCObject*)
FUNC 8377c 1d4 0 QuartzPlayLayer::resetLevel()
FUNC 83950 138 0 Hacks::setPitch(float)
FUNC 83a88 74 0 GotoFrameUI::~GotoFrameUI()
FUNC 83afc 2c 0 geode::Popup<>::registerWithTouchDispatcher()
FUNC 83b28 28 0 geode::Popup<>::keyDown(cocos2d::enumKeyCodes)
FUNC 83b50 4 0 cocos2d::CCLayerRGBA::setOpacityModifyRGB(bool)
FUNC 83b54 8 0 cocos2d::CCLayerRGBA::isOpacityModifyRGB()
FUNC 83b5c 148 0 geode::Popup<>::onClose(cocos2d::CCObject*)
FUNC 83ca4 6c 0 {virtual override thunk({offset(-320)}, GotoFrameUI::~GotoFrameUI())}
FUNC 83d10 74 0 {virtual override thunk({offset(-320)}, GotoFrameUI::~GotoFrameUI())}
FUNC 83d84 2c 0 {virtual override thunk({offset(-344)}, geode::Popup<>::keyDown(cocos2d::enumKeyCodes))}
FUNC 83db0 4 0 cocos2d::CCKeyboardDelegate::keyUp(cocos2d::enumKeyCodes)
FUNC 83db4 4 0 cocos2d::CCMouseDelegate::rightKeyDown()
FUNC 83db8 4 0 cocos2d::CCMouseDelegate::rightKeyUp()
FUNC 83dbc 4 0 cocos2d::CCMouseDelegate::scrollWheel(float, float)
FUNC 83dc0 4 0 {virtual override thunk({offset(-408)}, cocos2d::CCLayerRGBA::setOpacityModifyRGB(bool))}
FUNC 83dc4 8 0 {virtual override thunk({offset(-408)}, cocos2d::CCLayerRGBA::isOpacityModifyRGB())}
FUNC 83dcc 6c 0 geode::Popup<>::~Popup()
FUNC 83e38 74 0 ClearFramesUI::~ClearFramesUI()
FUNC 83eac 6c 0 {virtual override thunk({offset(-320)}, ClearFramesUI::~ClearFramesUI())}
FUNC 83f18 74 0 {virtual override thunk({offset(-320)}, ClearFramesUI::~ClearFramesUI())}
FUNC 83f8c 24 0 SelectMacroUI::~SelectMacroUI()
FUNC 83fb0 8 0 {virtual override thunk({offset(-320)}, SelectMacroUI::~SelectMacroUI())}
FUNC 83fb8 28 0 {virtual override thunk({offset(-320)}, SelectMacroUI::~SelectMacroUI())}
FUNC 83fe0 98 0 MacroItemCell::~MacroItemCell()
FUNC 84078 a0 0 MacroItemCell::~MacroItemCell()
FUNC 84118 9c 0 {virtual override thunk({offset(-320)}, MacroItemCell::~MacroItemCell())}
FUNC 841b4 a4 0 {virtual override thunk({offset(-320)}, MacroItemCell::~MacroItemCell())}
FUNC 84258 24 0 CreateMacroUI::~CreateMacroUI()
FUNC 8427c 8 0 {virtual override thunk({offset(-320)}, CreateMacroUI::~CreateMacroUI())}
FUNC 84284 28 0 {virtual override thunk({offset(-320)}, CreateMacroUI::~CreateMacroUI())}
FUNC 842ac 444 0 __cxx_global_var_init.47
FUNC 846f0 1c 0 geode::modifier::ModifyBase<geode::modifier::ModifyDerive<QuartzPlayLayer, PlayLayer> >::~ModifyBase()
FUNC 8470c 444 0 __cxx_global_var_init.48
FUNC 84b50 1c 0 geode::modifier::ModifyBase<geode::modifier::ModifyDerive<QuartzGJBGL, GJBaseGameLayer> >::~ModifyBase()
FUNC 84b6c 34 0 __cxx_global_var_init.49
FUNC 84ba0 400 0 __cxx_global_var_init.50
FUNC 84fa0 3c 0 _GLOBAL__sub_I_Quartz.cpp
FUNC 84fdc 1c 0 geode::modifier::ModifyBase<geode::modifier::ModifyDerive<hook1335<(anonymous namespace)::hook1335Parent>, PlayerObject> >::~ModifyBase()
FUNC 84ff8 1c 0 geode::modifier::ModifyBase<geode::modifier::ModifyDerive<hook1347<(anonymous namespace)::hook1347Parent>, EndLevelLayer> >::~ModifyBase()
FUNC 85014 50 0 std::__ndk1::__fs::filesystem::directory_iterator::~directory_iterator[abi:ne180000]()
FUNC 85064 888 0 gdr::Replay<QuartzMacro, QuartzInput>::importData(std::__ndk1::vector<unsigned char, std::__ndk1::allocator<unsigned char> > const&, bool, bool)
FUNC 858ec 50 0 std::__ndk1::basic_ifstream<char, std::__ndk1::char_traits<char> >::~basic_ifstream()
FUNC 8593c 14 0 std::__ndk1::basic_string<char, std::__ndk1::char_traits<char>, std::__ndk1::allocator<char> >::__throw_out_of_range[abi:ne180000]() const
FUNC 85950 14 0 std::__ndk1::vector<unsigned char, std::__ndk1::allocator<unsigned char> >::__throw_length_error[abi:ne180000]() const
FUNC 85964 4 0 gdr::Replay<QuartzMacro, QuartzInput>::parseExtension(std::__ndk1::map<std::__ndk1::basic_string<char, std::__ndk1::char_traits<char>, std::__ndk1::allocator<char> >, nlohmann::json_abi_v3_11_3::basic_json<std::__ndk1::map, std::__ndk1::vector, std::__ndk1::basic_string<char, std::__ndk1::char_traits<char>, std::__ndk1::allocator<char> >, bool, long, unsigned long, double, std::__ndk1::allocator, nlohmann::json_abi_v3_11_3::adl_serializer, std::__ndk1::vector<unsigned char, std::__ndk1::allocator<unsigned char> >, void>, std::__ndk1::less<void>, std::__ndk1::allocator<std::__ndk1::pair<std::__ndk1::basic_string<char, std::__ndk1::char_traits<char>, std::__ndk1::allocator<char> > const, nlohmann::json_abi_v3_11_3::basic_json<std::__ndk1::map, std::__ndk1::vector, std::__ndk1::basic_string<char, std::__ndk1::char_traits<char>, std::__ndk1::allocator<char> >, bool, long, unsigned long, double, std::__ndk1::allocator, nlohmann::json_abi_v3_11_3::adl_serializer, std::__ndk1::vector<unsigned char, std::__ndk1::allocator<unsigned char> >, void> > > >)
FUNC 85968 14 0 gdr::Replay<QuartzMacro, QuartzInput>::saveExtension() const
FUNC 8597c 14 0 std::__ndk1::vector<MacroFile, std::__ndk1::allocator<MacroFile> >::__throw_length_error[abi:ne180000]() const
FUNC 85990 324 0 nlohmann::json_abi_v3_11_3::basic_json<std::__ndk1::map, std::__ndk1::vector, std::__ndk1::basic_string<char, std::__ndk1::char_traits<char>, std::__ndk1::allocator<char> >, bool, long, unsigned long, double, std::__ndk1::allocator, nlohmann::json_abi_v3_11_3::adl_serializer, std::__ndk1::vector<unsigned char, std::__ndk1::allocator<unsigned char> >, void>::from_msgpack<std::__ndk1::vector const<unsigned char, std::__ndk1::allocator<unsigned char> >&>(std::__ndk1::vector const<unsigned char, std::__ndk1::allocator<unsigned char> >&, bool, bool)
FUNC 85cb4 1c 0 nlohmann::json_abi_v3_11_3::basic_json<std::__ndk1::map, std::__ndk1::vector, std::__ndk1::basic_string<char, std::__ndk1::char_traits<char>, std::__ndk1::allocator<char> >, bool, long, unsigned long, double, std::__ndk1::allocator, nlohmann::json_abi_v3_11_3::adl_serializer, std::__ndk1::vector<unsigned char, std::__ndk1::allocator<unsigned char> >, void>::~basic_json()
FUNC 85cd0 160 0 nlohmann::json_abi_v3_11_3::basic_json<std::__ndk1::map, std::__ndk1::vector, std::__ndk1::basic_string<char, std::__ndk1::char_traits<char>, std::__ndk1::allocator<char> >, bool, long, unsigned long, double, std::__ndk1::allocator, nlohmann::json_abi_v3_11_3::adl_serializer, std::__ndk1::vector<unsigned char, std::__ndk1::allocator<unsigned char> >, void>::accept<std::__ndk1::vector const<unsigned char, std::__ndk1::allocator<unsigned char> >&>(std::__ndk1::vector const<unsigned char, std::__ndk1::allocator<unsigned char> >&, bool)
FUNC 85e30 1cc 0 nlohmann::json_abi_v3_11_3::basic_json<std::__ndk1::map, std::__ndk1::vector, std::__ndk1::basic_string<char, std::__ndk1::char_traits<char>, std::__ndk1::allocator<char> >, bool, long, unsigned long, double, std::__ndk1::allocator, nlohmann::json_abi_v3_11_3::adl_serializer, std::__ndk1::vector<unsigned char, std::__ndk1::allocator<unsigned char> >, void>::parse<std::__ndk1::vector const<unsigned char, std::__ndk1::allocator<unsigned char> >&>(std::__ndk1::vector const<unsigned char, std::__ndk1::allocator<unsigned char> >&, std::__ndk1::function<bool (int, nlohmann::json_abi_v3_11_3::detail::parse_event_t, nlohmann::json_abi_v3_11_3::basic_json<std::__ndk1::map, std::__ndk1::vector, std::__ndk1::basic_string<char, std::__ndk1::char_traits<char>, std::__ndk1::allocator<char> >, bool, long, unsigned long, double, std::__ndk1::allocator, nlohmann::json_abi_v3_11_3::adl_serializer, std::__ndk1::vector<unsigned char, std::__ndk1::allocator<unsigned char> >, void>&)>, bool, bool)
FUNC 85ffc 128 0 nlohmann::json_abi_v3_11_3::basic_json<std::__ndk1::map, std::__ndk1::vector, std::__ndk1::basic_string<char, std::__ndk1::char_traits<char>, std::__ndk1::allocator<char> >, bool, long, unsigned long, double, std::__ndk1::allocator, nlohmann::json_abi_v3_11_3::adl_serializer, std::__ndk1::vector<unsigned char, std::__ndk1::allocator<unsigned char> >, void>::operator[]<char const>(char const*)
FUNC 86124 194 0 nlohmann::json_abi_v3_11_3::detail::iter_impl<nlohmann::json_abi_v3_11_3::basic_json<std::__ndk1::map, std::__ndk1::vector, std::__ndk1::basic_string<char, std::__ndk1::char_traits<char>, std::__ndk1::allocator<char> >, bool, long, unsigned long, double, std::__ndk1::allocator, nlohmann::json_abi_v3_11_3::adl_serializer, std::__ndk1::vector<unsigned char, std::__ndk1::allocator<unsigned char> >, void> >::operator*() const
FUNC 862b8 128 0 nlohmann::json_abi_v3_11_3::basic_json<std::__ndk1::map, std::__ndk1::vector, std::__ndk1::basic_string<char, std::__ndk1::char_traits<char>, std::__ndk1::allocator<char> >, bool, long, unsigned long, double, std::__ndk1::allocator, nlohmann::json_abi_v3_11_3::adl_serializer, std::__ndk1::vector<unsigned char, std::__ndk1::allocator<unsigned char> >, void>::operator[]<char const>(char const*) const
FUNC 863e0 1ff0 0 QuartzInput::parseExtension(std::__ndk1::map<std::__ndk1::basic_string<char, std::__ndk1::char_traits<char>, std::__ndk1::allocator<char> >, nlohmann::json_abi_v3_11_3::basic_json<std::__ndk1::map, std::__ndk1::vector, std::__ndk1::basic_string<char, std::__ndk1::char_traits<char>, std::__ndk1::allocator<char> >, bool, long, unsigned long, double, std::__ndk1::allocator, nlohmann::json_abi_v3_11_3::adl_serializer, std::__ndk1::vector<unsigned char, std::__ndk1::allocator<unsigned char> >, void>, std::__ndk1::less<void>, std::__ndk1::allocator<std::__ndk1::pair<std::__ndk1::basic_string<char, std::__ndk1::char_traits<char>, std::__ndk1::allocator<char> > const, nlohmann::json_abi_v3_11_3::basic_json<std::__ndk1::map, std::__ndk1::vector, std::__ndk1::basic_string<char, std::__ndk1::char_traits<char>, std::__ndk1::allocator<char> >, bool, long, unsigned long, double, std::__ndk1::allocator, nlohmann::json_abi_v3_11_3::adl_serializer, std::__ndk1::vector<unsigned char, std::__ndk1::allocator<unsigned char> >, void> > > >)
FUNC 883d0 ec 0 nlohmann::json_abi_v3_11_3::basic_json<std::__ndk1::map, std::__ndk1::vector, std::__ndk1::basic_string<char, std::__ndk1::char_traits<char>, std::__ndk1::allocator<char> >, bool, long, unsigned long, double, std::__ndk1::allocator, nlohmann::json_abi_v3_11_3::adl_serializer, std::__ndk1::vector<unsigned char, std::__ndk1::allocator<unsigned char> >, void>::json_value::json_value(nlohmann::json_abi_v3_11_3::detail::value_t)
FUNC 884bc bc 0 nlohmann::json_abi_v3_11_3::basic_json<std::__ndk1::map, std::__ndk1::vector, std::__ndk1::basic_string<char, std::__ndk1::char_traits<char>, std::__ndk1::allocator<char> >, bool, long, unsigned long, double, std::__ndk1::allocator, nlohmann::json_abi_v3_11_3::adl_serializer, std::__ndk1::vector<unsigned char, std::__ndk1::allocator<unsigned char> >, void>::create<std::__ndk1::basic_string<char, std::__ndk1::char_traits<char>, std::__ndk1::allocator<char> >, char const (&) [1]>(char const (&) [1])
FUNC 88578 100 0 nlohmann::json_abi_v3_11_3::detail::concat<std::__ndk1::basic_string<char, std::__ndk1::char_traits<char>, std::__ndk1::allocator<char> >, std::__ndk1::basic_string<char, std::__ndk1::char_traits<char>, std::__ndk1::allocator<char> >, std::__ndk1::basic_string<char, std::__ndk1::char_traits<char>, std::__ndk1::allocator<char> >, std::__ndk1::basic_string<char, std::__ndk1::char_traits<char>, std::__ndk1::allocator<char> > const&>(std::__ndk1::basic_string<char, std::__ndk1::char_traits<char>, std::__ndk1::allocator<char> >&&, std::__ndk1::basic_string<char, std::__ndk1::char_traits<char>, std::__ndk1::allocator<char> >, std::__ndk1::basic_string<char, std::__ndk1::char_traits<char>, std::__ndk1::allocator<char> > const&)
FUNC 88678 154 0 nlohmann::json_abi_v3_11_3::detail::concat<std::__ndk1::basic_string<char, std::__ndk1::char_traits<char>, std::__ndk1::allocator<char> >, char const (&) [17], std::__ndk1::basic_string<char, std::__ndk1::char_traits<char>, std::__ndk1::allocator<char> > const&, char, std::__ndk1::basic_string<char, std::__ndk1::char_traits<char>, std::__ndk1::allocator<char> >, char const (&) [3]>(char const (&) [17], std::__ndk1::basic_string<char, std::__ndk1::char_traits<char>, std::__ndk1::allocator<char> > const&, char, std::__ndk1::basic_string<char, std::__ndk1::char_traits<char>, std::__ndk1::allocator<char> >, char const (&) [3])
FUNC 887cc 8 0 nlohmann::json_abi_v3_11_3::detail::exception::what() const
FUNC 887d4 38 0 nlohmann::json_abi_v3_11_3::detail::exception::~exception()
FUNC 8880c 5c8 0 nlohmann::json_abi_v3_11_3::detail::binary_reader<nlohmann::json_abi_v3_11_3::basic_json<std::__ndk1::map, std::__ndk1::vector, std::__ndk1::basic_string<char, std::__ndk1::char_traits<char>, std::__ndk1::allocator<char> >, bool, long, unsigned long, double, std::__ndk1::allocator, nlohmann::json_abi_v3_11_3::adl_serializer, std::__ndk1::vector<unsigned char, std::__ndk1::allocator<unsigned char> >, void>, nlohmann::json_abi_v3_11_3::detail::iterator_input_adapter<std::__ndk1::__wrap_iter<unsigned char const*> >, nlohmann::json_abi_v3_11_3::detail::json_sax_dom_parser<nlohmann::json_abi_v3_11_3::basic_json<std::__ndk1::map, std::__ndk1::vector, std::__ndk1::basic_string<char, std::__ndk1::char_traits<char>, std::__ndk1::allocator<char> >, bool, long, unsigned long, double, std::__ndk1::allocator, nlohmann::json_abi_v3_11_3::adl_serializer, std::__ndk1::vector<unsigned char, std::__ndk1::allocator<unsigned char> >, void> > >::sax_parse(nlohmann::json_abi_v3_11_3::detail::input_format_t, nlohmann::json_abi_v3_11_3::detail::json_sax_dom_parser<nlohmann::json_abi_v3_11_3::basic_json<std::__ndk1::map, std::__ndk1::vector, std::__ndk1::basic_string<char, std::__ndk1::char_traits<char>, std::__ndk1::allocator<char> >, bool, long, unsigned long, double, std::__ndk1::allocator, nlohmann::json_abi_v3_11_3::adl_serializer, std::__ndk1::vector<unsigned char, std::__ndk1::allocator<unsigned char> >, void> >*, bool, nlohmann::json_abi_v3_11_3::detail::cbor_tag_handler_t)
FUNC 88dd4 288 0 nlohmann::json_abi_v3_11_3::basic_json<std::__ndk1::map, std::__ndk1::vector, std::__ndk1::basic_string<char, std::__ndk1::char_traits<char>, std::__ndk1::allocator<char> >, bool, long, unsigned long, double, std::__ndk1::allocator, nlohmann::json_abi_v3_11_3::adl_serializer, std::__ndk1::vector<unsigned char, std::__ndk1::allocator<unsigned char> >, void>::basic_json(nlohmann::json_abi_v3_11_3::basic_json<std::__ndk1::map, std::__ndk1::vector, std::__ndk1::basic_string<char, std::__ndk1::char_traits<char>, std::__ndk1::allocator<char> >, bool, long, unsigned long, double, std::__ndk1::allocator, nlohmann::json_abi_v3_11_3::adl_serializer, std::__ndk1::vector<unsigned char, std::__ndk1::allocator<unsigned char> >, void> const&)
FUNC 8905c d38 0 nlohmann::json_abi_v3_11_3::detail::binary_reader<nlohmann::json_abi_v3_11_3::basic_json<std::__ndk1::map, std::__ndk1::vector, std::__ndk1::basic_string<char, std::__ndk1::char_traits<char>, std::__ndk1::allocator<char> >, bool, long, unsigned long, double, std::__ndk1::allocator, nlohmann::json_abi_v3_11_3::adl_serializer, std::__ndk1::vector<unsigned char, std::__ndk1::allocator<unsigned char> >, void>, nlohmann::json_abi_v3_11_3::detail::iterator_input_adapter<std::__ndk1::__wrap_iter<unsigned char const*> >, nlohmann::json_abi_v3_11_3::detail::json_sax_dom_parser<nlohmann::json_abi_v3_11_3::basic_json<std::__ndk1::map, std::__ndk1::vector, std::__ndk1::basic_string<char, std::__ndk1::char_traits<char>, std::__ndk1::allocator<char> >, bool, long, unsigned long, double, std::__ndk1::allocator, nlohmann::json_abi_v3_11_3::adl_serializer, std::__ndk1::vector<unsigned char, std::__ndk1::allocator<unsigned char> >, void> > >::parse_cbor_internal(bool, nlohmann::json_abi_v3_11_3::detail::cbor_tag_handler_t)
FUNC 89d94 6b8 0 nlohmann::json_abi_v3_11_3::detail::binary_reader<nlohmann::json_abi_v3_11_3::basic_json<std::__ndk1::map, std::__ndk1::vector, std::__ndk1::basic_string<char, std::__ndk1::char_traits<char>, std::__ndk1::allocator<char> >, bool, long, unsigned long, double, std::__ndk1::allocator, nlohmann::json_abi_v3_11_3::adl_serializer, std::__ndk1::vector<unsigned char, std::__ndk1::allocator<unsigned char> >, void>, nlohmann::json_abi_v3_11_3::detail::iterator_input_adapter<std::__ndk1::__wrap_iter<unsigned char const*> >, nlohmann::json_abi_v3_11_3::detail::json_sax_dom_parser<nlohmann::json_abi_v3_11_3::basic_json<std::__ndk1::map, std::__ndk1::vector, std::__ndk1::basic_string<char, std::__ndk1::char_traits<char>, std::__ndk1::allocator<char> >, bool, long, unsigned long, double, std::__ndk1::allocator, nlohmann::json_abi_v3_11_3::adl_serializer, std::__ndk1::vector<unsigned char, std::__ndk1::allocator<unsigned char> >, void> > >::parse_msgpack_internal()
FUNC 8a44c 54 0 nlohmann::json_abi_v3_11_3::detail::json_sax_dom_parser<nlohmann::json_abi_v3_11_3::basic_json<std::__ndk1::map, std::__ndk1::vector, std::__ndk1::basic_string<char, std::__ndk1::char_traits<char>, std::__ndk1::allocator<char> >, bool, long, unsigned long, double, std::__ndk1::allocator, nlohmann::json_abi_v3_11_3::adl_serializer, std::__ndk1::vector<unsigned char, std::__ndk1::allocator<unsigned char> >, void> >::parse_error<nlohmann::json_abi_v3_11_3::detail::parse_error>(unsigned long, std::__ndk1::basic_string<char, std::__ndk1::char_traits<char>, std::__ndk1::allocator<char> > const&, nlohmann::json_abi_v3_11_3::detail::parse_error const&)
FUNC 8a4a0 e4 0 nlohmann::json_abi_v3_11_3::detail::binary_reader<nlohmann::json_abi_v3_11_3::basic_json<std::__ndk1::map, std::__ndk1::vector, std::__ndk1::basic_string<char, std::__ndk1::char_traits<char>, std::__ndk1::allocator<char> >, bool, long, unsigned long, double, std::__ndk1::allocator, nlohmann::json_abi_v3_11_3::adl_serializer, std::__ndk1::vector<unsigned char, std::__ndk1::allocator<unsigned char> >, void>, nlohmann::json_abi_v3_11_3::detail::iterator_input_adapter<std::__ndk1::__wrap_iter<unsigned char const*> >, nlohmann::json_abi_v3_11_3::detail::json_sax_dom_parser<nlohmann::json_abi_v3_11_3::basic_json<std::__ndk1::map, std::__ndk1::vector, std::__ndk1::basic_string<char, std::__ndk1::char_traits<char>, std::__ndk1::allocator<char> >, bool, long, unsigned long, double, std::__ndk1::allocator, nlohmann::json_abi_v3_11_3::adl_serializer, std::__ndk1::vector<unsigned char, std::__ndk1::allocator<unsigned char> >, void> > >::get_token_string() const
FUNC 8a584 314 0 _ZN8nlohmann16json_abi_v3_11_36detail11parse_error6createIDnTnNSt6__ndk19enable_ifIXsr21is_basic_json_contextIT_EE5valueEiE4typeELi0EEES2_imRKNS4_12basic_stringIcNS4_11char_traitsIcEENS4_9allocatorIcEEEES6_
FUNC 8a898 12c 0 nlohmann::json_abi_v3_11_3::detail::binary_reader<nlohmann::json_abi_v3_11_3::basic_json<std::__ndk1::map, std::__ndk1::vector, std::__ndk1::basic_string<char, std::__ndk1::char_traits<char>, std::__ndk1::allocator<char> >, bool, long, unsigned long, double, std::__ndk1::allocator, nlohmann::json_abi_v3_11_3::adl_serializer, std::__ndk1::vector<unsigned char, std::__ndk1::allocator<unsigned char> >, void>, nlohmann::json_abi_v3_11_3::detail::iterator_input_adapter<std::__ndk1::__wrap_iter<unsigned char const*> >, nlohmann::json_abi_v3_11_3::detail::json_sax_dom_parser<nlohmann::json_abi_v3_11_3::basic_json<std::__ndk1::map, std::__ndk1::vector, std::__ndk1::basic_string<char, std::__ndk1::char_traits<char>, std::__ndk1::allocator<char> >, bool, long, unsigned long, double, std::__ndk1::allocator, nlohmann::json_abi_v3_11_3::adl_serializer, std::__ndk1::vector<unsigned char, std::__ndk1::allocator<unsigned char> >, void> > >::exception_message(nlohmann::json_abi_v3_11_3::detail::input_format_t, std::__ndk1::basic_string<char, std::__ndk1::char_traits<char>, std::__ndk1::allocator<char> > const&, std::__ndk1::basic_string<char, std::__ndk1::char_traits<char>, std::__ndk1::allocator<char> > const&) const
FUNC 8a9c4 1e4 0 nlohmann::json_abi_v3_11_3::detail::binary_reader<nlohmann::json_abi_v3_11_3::basic_json<std::__ndk1::map, std::__ndk1::vector, std::__ndk1::basic_string<char, std::__ndk1::char_traits<char>, std::__ndk1::allocator<char> >, bool, long, unsigned long, double, std::__ndk1::allocator, nlohmann::json_abi_v3_11_3::adl_serializer, std::__ndk1::vector<unsigned char, std::__ndk1::allocator<unsigned char> >, void>, nlohmann::json_abi_v3_11_3::detail::iterator_input_adapter<std::__ndk1::__wrap_iter<unsigned char const*> >, nlohmann::json_abi_v3_11_3::detail::json_sax_dom_parser<nlohmann::json_abi_v3_11_3::basic_json<std::__ndk1::map, std::__ndk1::vector, std::__ndk1::basic_string<char, std::__ndk1::char_traits<char>, std::__ndk1::allocator<char> >, bool, long, unsigned long, double, std::__ndk1::allocator, nlohmann::json_abi_v3_11_3::adl_serializer, std::__ndk1::vector<unsigned char, std::__ndk1::allocator<unsigned char> >, void> > >::get_number<int, true>(nlohmann::json_abi_v3_11_3::detail::input_format_t, int&)
FUNC 8aba8 2ec 0 nlohmann::json_abi_v3_11_3::detail::json_sax_dom_parser<nlohmann::json_abi_v3_11_3::basic_json<std::__ndk1::map, std::__ndk1::vector, std::__ndk1::basic_string<char, std::__ndk1::char_traits<char>, std::__ndk1::allocator<char> >, bool, long, unsigned long, double, std::__ndk1::allocator, nlohmann::json_abi_v3_11_3::adl_serializer, std::__ndk1::vector<unsigned char, std::__ndk1::allocator<unsigned char> >, void> >::start_object(unsigned long)
FUNC 8ae94 1f4 0 nlohmann::json_abi_v3_11_3::detail::binary_reader<nlohmann::json_abi_v3_11_3::basic_json<std::__ndk1::map, std::__ndk1::vector, std::__ndk1::basic_string<char, std::__ndk1::char_traits<char>, std::__ndk1::allocator<char> >, bool, long, unsigned long, double, std::__ndk1::allocator, nlohmann::json_abi_v3_11_3::adl_serializer, std::__ndk1::vector<unsigned char, std::__ndk1::allocator<unsigned char> >, void>, nlohmann::json_abi_v3_11_3::detail::iterator_input_adapter<std::__ndk1::__wrap_iter<unsigned char const*> >, nlohmann::json_abi_v3_11_3::detail::json_sax_dom_parser<nlohmann::json_abi_v3_11_3::basic_json<std::__ndk1::map, std::__ndk1::vector, std::__ndk1::basic_string<char, std::__ndk1::char_traits<char>, std::__ndk1::allocator<char> >, bool, long, unsigned long, double, std::__ndk1::allocator, nlohmann::json_abi_v3_11_3::adl_serializer, std::__ndk1::vector<unsigned char, std::__ndk1::allocator<unsigned char> >, void> > >::parse_bson_element_list(bool)
FUNC 8b088 244 0 nlohmann::json_abi_v3_11_3::detail::binary_reader<nlohmann::json_abi_v3_11_3::basic_json<std::__ndk1::map, std::__ndk1::vector, std::__ndk1::basic_string<char, std::__ndk1::char_traits<char>, std::__ndk1::allocator<char> >, bool, long, unsigned long, double, std::__ndk1::allocator, nlohmann::json_abi_v3_11_3::adl_serializer, std::__ndk1::vector<unsigned char, std::__ndk1::allocator<unsigned char> >, void>, nlohmann::json_abi_v3_11_3::detail::iterator_input_adapter<std::__ndk1::__wrap_iter<unsigned char const*> >, nlohmann::json_abi_v3_11_3::detail::json_sax_dom_parser<nlohmann::json_abi_v3_11_3::basic_json<std::__ndk1::map, std::__ndk1::vector, std::__ndk1::basic_string<char, std::__ndk1::char_traits<char>, std::__ndk1::allocator<char> >, bool, long, unsigned long, double, std::__ndk1::allocator, nlohmann::json_abi_v3_11_3::adl_serializer, std::__ndk1::vector<unsigned char, std::__ndk1::allocator<unsigned char> >, void> > >::unexpect_eof(nlohmann::json_abi_v3_11_3::detail::input_format_t, char const*) const
FUNC 8b2cc 164 0 nlohmann::json_abi_v3_11_3::detail::json_sax_dom_parser<nlohmann::json_abi_v3_11_3::basic_json<std::__ndk1::map, std::__ndk1::vector, std::__ndk1::basic_string<char, std::__ndk1::char_traits<char>, std::__ndk1::allocator<char> >, bool, long, unsigned long, double, std::__ndk1::allocator, nlohmann::json_abi_v3_11_3::adl_serializer, std::__ndk1::vector<unsigned char, std::__ndk1::allocator<unsigned char> >, void> >::handle_value<nlohmann::json_abi_v3_11_3::detail::value_t>(nlohmann::json_abi_v3_11_3::detail::value_t&&)
FUNC 8b430 1ec 0 _ZN8nlohmann16json_abi_v3_11_36detail12out_of_range6createIPNS0_10basic_jsonINSt6__ndk13mapENS5_6vectorENS5_12basic_stringIcNS5_11char_traitsIcEENS5_9allocatorIcEEEEblmdSB_NS0_14adl_serializerENS7_IhNSB_IhEEEEvEETnNS5_9enable_ifIXsr21is_basic_json_contextIT_EE5valueEiE4typeELi0EEES2_iRKSD_SK_
FUNC 8b61c b0 0 nlohmann::json_abi_v3_11_3::detail::concat<std::__ndk1::basic_string<char, std::__ndk1::char_traits<char>, std::__ndk1::allocator<char> >, char const (&) [24], std::__ndk1::basic_string<char, std::__ndk1::char_traits<char>, std::__ndk1::allocator<char> > >(char const (&) [24], std::__ndk1::basic_string<char, std::__ndk1::char_traits<char>, std::__ndk1::allocator<char> >)
FUNC 8b6cc 14 0 std::__ndk1::vector<nlohmann::json_abi_v3_11_3::basic_json<std::__ndk1::map, std::__ndk1::vector, std::__ndk1::basic_string<char, std::__ndk1::char_traits<char>, std::__ndk1::allocator<char> >, bool, long, unsigned long, double, std::__ndk1::allocator, nlohmann::json_abi_v3_11_3::adl_serializer, std::__ndk1::vector<unsigned char, std::__ndk1::allocator<unsigned char> >, void>*, std::__ndk1::allocator<nlohmann::json_abi_v3_11_3::basic_json<std::__ndk1::map, std::__ndk1::vector, std::__ndk1::basic_string<char, std::__ndk1::char_traits<char>, std::__ndk1::allocator<char> >, bool, long, unsigned long, double, std::__ndk1::allocator, nlohmann::json_abi_v3_11_3::adl_serializer, std::__ndk1::vector<unsigned char, std::__ndk1::allocator<unsigned char> >, void>*> >::__throw_length_error[abi:ne180000]() const
FUNC 8b6e0 1b4 0 std::__ndk1::vector<nlohmann::json_abi_v3_11_3::basic_json<std::__ndk1::map, std::__ndk1::vector, std::__ndk1::basic_string<char, std::__ndk1::char_traits<char>, std::__ndk1::allocator<char> >, bool, long, unsigned long, double, std::__ndk1::allocator, nlohmann::json_abi_v3_11_3::adl_serializer, std::__ndk1::vector<unsigned char, std::__ndk1::allocator<unsigned char> >, void>, std::__ndk1::allocator<nlohmann::json_abi_v3_11_3::basic_json<std::__ndk1::map, std::__ndk1::vector, std::__ndk1::basic_string<char, std::__ndk1::char_traits<char>, std::__ndk1::allocator<char> >, bool, long, unsigned long, double, std::__ndk1::allocator, nlohmann::json_abi_v3_11_3::adl_serializer, std::__ndk1::vector<unsigned char, std::__ndk1::allocator<unsigned char> >, void> > >::__emplace_back_slow_path<nlohmann::json_abi_v3_11_3::detail::value_t>(nlohmann::json_abi_v3_11_3::detail::value_t&&)
FUNC 8b894 58 0 std::__ndk1::__split_buffer<nlohmann::json_abi_v3_11_3::basic_json<std::__ndk1::map, std::__ndk1::vector, std::__ndk1::basic_string<char, std::__ndk1::char_traits<char>, std::__ndk1::allocator<char> >, bool, long, unsigned long, double, std::__ndk1::allocator, nlohmann::json_abi_v3_11_3::adl_serializer, std::__ndk1::vector<unsigned char, std::__ndk1::allocator<unsigned char> >, void>, std::__ndk1::allocator<nlohmann::json_abi_v3_11_3::basic_json<std::__ndk1::map, std::__ndk1::vector, std::__ndk1::basic_string<char, std::__ndk1::char_traits<char>, std::__ndk1::allocator<char> >, bool, long, unsigned long, double, std::__ndk1::allocator, nlohmann::json_abi_v3_11_3::adl_serializer, std::__ndk1::vector<unsigned char, std::__ndk1::allocator<unsigned char> >, void> >&>::~__split_buffer()
FUNC 8b8ec 14 0 std::__ndk1::vector<nlohmann::json_abi_v3_11_3::basic_json<std::__ndk1::map, std::__ndk1::vector, std::__ndk1::basic_string<char, std::__ndk1::char_traits<char>, std::__ndk1::allocator<char> >, bool, long, unsigned long, double, std::__ndk1::allocator, nlohmann::json_abi_v3_11_3::adl_serializer, std::__ndk1::vector<unsigned char, std::__ndk1::allocator<unsigned char> >, void>, std::__ndk1::allocator<nlohmann::json_abi_v3_11_3::basic_json<std::__ndk1::map, std::__ndk1::vector, std::__ndk1::basic_string<char, std::__ndk1::char_traits<char>, std::__ndk1::allocator<char> >, bool, long, unsigned long, double, std::__ndk1::allocator, nlohmann::json_abi_v3_11_3::adl_serializer, std::__ndk1::vector<unsigned char, std::__ndk1::allocator<unsigned char> >, void> > >::__throw_length_error[abi:ne180000]() const
FUNC 8b900 38 0 nlohmann::json_abi_v3_11_3::detail::out_of_range::~out_of_range()
FUNC 8b938 74 0 nlohmann::json_abi_v3_11_3::detail::json_sax_dom_parser<nlohmann::json_abi_v3_11_3::basic_json<std::__ndk1::map, std::__ndk1::vector, std::__ndk1::basic_string<char, std::__ndk1::char_traits<char>, std::__ndk1::allocator<char> >, bool, long, unsigned long, double, std::__ndk1::allocator, nlohmann::json_abi_v3_11_3::adl_serializer, std::__ndk1::vector<unsigned char, std::__ndk1::allocator<unsigned char> >, void> >::key(std::__ndk1::basic_string<char, std::__ndk1::char_traits<char>, std::__ndk1::allocator<char> >&)
FUNC 8b9ac 680 0 nlohmann::json_abi_v3_11_3::detail::binary_reader<nlohmann::json_abi_v3_11_3::basic_json<std::__ndk1::map, std::__ndk1::vector, std::__ndk1::basic_string<char, std::__ndk1::char_traits<char>, std::__ndk1::allocator<char> >, bool, long, unsigned long, double, std::__ndk1::allocator, nlohmann::json_abi_v3_11_3::adl_serializer, std::__ndk1::vector<unsigned char, std::__ndk1::allocator<unsigned char> >, void>, nlohmann::json_abi_v3_11_3::detail::iterator_input_adapter<std::__ndk1::__wrap_iter<unsigned char const*> >, nlohmann::json_abi_v3_11_3::detail::json_sax_dom_parser<nlohmann::json_abi_v3_11_3::basic_json<std::__ndk1::map, std::__ndk1::vector, std::__ndk1::basic_string<char, std::__ndk1::char_traits<char>, std::__ndk1::allocator<char> >, bool, long, unsigned long, double, std::__ndk1::allocator, nlohmann::json_abi_v3_11_3::adl_serializer, std::__ndk1::vector<unsigned char, std::__ndk1::allocator<unsigned char> >, void> > >::parse_bson_element_internal(unsigned long, unsigned long)
FUNC 8c02c 130 0 std::__ndk1::__tree<std::__ndk1::__value_type<std::__ndk1::basic_string<char, std::__ndk1::char_traits<char>, std::__ndk1::allocator<char> >, nlohmann::json_abi_v3_11_3::basic_json<std::__ndk1::map, std::__ndk1::vector, std::__ndk1::basic_string<char, std::__ndk1::char_traits<char>, std::__ndk1::allocator<char> >, bool, long, unsigned long, double, std::__ndk1::allocator, nlohmann::json_abi_v3_11_3::adl_serializer, std::__ndk1::vector<unsigned char, std::__ndk1::allocator<unsigned char> >, void> >, std::__ndk1::__map_value_compare<std::__ndk1::basic_string<char, std::__ndk1::char_traits<char>, std::__ndk1::allocator<char> >, std::__ndk1::__value_type<std::__ndk1::basic_string<char, std::__ndk1::char_traits<char>, std::__ndk1::allocator<char> >, nlohmann::json_abi_v3_11_3::basic_json<std::__ndk1::map, std::__ndk1::vector, std::__ndk1::basic_string<char, std::__ndk1::char_traits<char>, std::__ndk1::allocator<char> >, bool, long, unsigned long, double, std::__ndk1::allocator, nlohmann::json_abi_v3_11_3::adl_serializer, std::__ndk1::vector<unsigned char, std::__ndk1::allocator<unsigned char> >, void> >, std::__ndk1::less<void>, true>, std::__ndk1::allocator<std::__ndk1::__value_type<std::__ndk1::basic_string<char, std::__ndk1::char_traits<char>, std::__ndk1::allocator<char> >, nlohmann::json_abi_v3_11_3::basic_json<std::__ndk1::map, std::__ndk1::vector, std::__ndk1::basic_string<char, std::__ndk1::char_traits<char>, std::__ndk1::allocator<char> >, bool, long, unsigned long, double, std::__ndk1::allocator, nlohmann::json_abi_v3_11_3::adl_serializer, std::__ndk1::vector<unsigned char, std::__ndk1::allocator<unsigned char> >, void> > > >::__emplace_unique_key_args<std::__ndk1::basic_string<char, std::__ndk1::char_traits<char>, std::__ndk1::allocator<char> >, std::__ndk1::piecewise_construct_t const&, std::__ndk1::tuple<std::__ndk1::basic_string<char, std::__ndk1::char_traits<char>, std::__ndk1::allocator<char> > const&>, std::__ndk1::tuple<> >(std::__ndk1::basic_string<char, std::__ndk1::char_traits<char>, std::__ndk1::allocator<char> > const&, std::__ndk1::piecewise_construct_t const&, std::__ndk1::tuple<std::__ndk1::basic_string<char, std::__ndk1::char_traits<char>, std::__ndk1::allocator<char> > const&>, std::__ndk1::tuple<>)
FUNC 8c15c 104 0 std::__ndk1::__tree<std::__ndk1::__value_type<std::__ndk1::basic_string<char, std::__ndk1::char_traits<char>, std::__ndk1::allocator<char> >, nlohmann::json_abi_v3_11_3::basic_json<std::__ndk1::map, std::__ndk1::vector, std::__ndk1::basic_string<char, std::__ndk1::char_traits<char>, std::__ndk1::allocator<char> >, bool, long, unsigned long, double, std::__ndk1::allocator, nlohmann::json_abi_v3_11_3::adl_serializer, std::__ndk1::vector<unsigned char, std::__ndk1::allocator<unsigned char> >, void> >, std::__ndk1::__map_value_compare<std::__ndk1::basic_string<char, std::__ndk1::char_traits<char>, std::__ndk1::allocator<char> >, std::__ndk1::__value_type<std::__ndk1::basic_string<char, std::__ndk1::char_traits<char>, std::__ndk1::allocator<char> >, nlohmann::json_abi_v3_11_3::basic_json<std::__ndk1::map, std::__ndk1::vector, std::__ndk1::basic_string<char, std::__ndk1::char_traits<char>, std::__ndk1::allocator<char> >, bool, long, unsigned long, double, std::__ndk1::allocator, nlohmann::json_abi_v3_11_3::adl_serializer, std::__ndk1::vector<unsigned char, std::__ndk1::allocator<unsigned char> >, void> >, std::__ndk1::less<void>, true>, std::__ndk1::allocator<std::__ndk1::__value_type<std::__ndk1::basic_string<char, std::__ndk1::char_traits<char>, std::__ndk1::allocator<char> >, nlohmann::json_abi_v3_11_3::basic_json<std::__ndk1::map, std::__ndk1::vector, std::__ndk1::basic_string<char, std::__ndk1::char_traits<char>, std::__ndk1::allocator<char> >, bool, long, unsigned long, double, std::__ndk1::allocator, nlohmann::json_abi_v3_11_3::adl_serializer, std::__ndk1::vector<unsigned char, std::__ndk1::allocator<unsigned char> >, void> > > >::__find_equal<std::__ndk1::basic_string<char, std::__ndk1::char_traits<char>, std::__ndk1::allocator<char> > >(std::__ndk1::__tree_end_node<std::__ndk1::__tree_node_base<void*>*>*&, std::__ndk1::basic_string<char, std::__ndk1::char_traits<char>, std::__ndk1::allocator<char> > const&)
FUNC 8c260 5c 0 std::__ndk1::unique_ptr<std::__ndk1::__tree_node<std::__ndk1::__value_type<std::__ndk1::basic_string<char, std::__ndk1::char_traits<char>, std::__ndk1::allocator<char> >, nlohmann::json_abi_v3_11_3::basic_json<std::__ndk1::map, std::__ndk1::vector, std::__ndk1::basic_string<char, std::__ndk1::char_traits<char>, std::__ndk1::allocator<char> >, bool, long, unsigned long, double, std::__ndk1::allocator, nlohmann::json_abi_v3_11_3::adl_serializer, std::__ndk1::vector<unsigned char, std::__ndk1::allocator<unsigned char> >, void> >, void*>, std::__ndk1::__tree_node_destructor<std::__ndk1::allocator<std::__ndk1::__tree_node<std::__ndk1::__value_type<std::__ndk1::basic_string<char, std::__ndk1::char_traits<char>, std::__ndk1::allocator<char> >, nlohmann::json_abi_v3_11_3::basic_json<std::__ndk1::map, std::__ndk1::vector, std::__ndk1::basic_string<char, std::__ndk1::char_traits<char>, std::__ndk1::allocator<char> >, bool, long, unsigned long, double, std::__ndk1::allocator, nlohmann::json_abi_v3_11_3::adl_serializer, std::__ndk1::vector<unsigned char, std::__ndk1::allocator<unsigned char> >, void> >, void*> > > >::~unique_ptr[abi:ne180000]()
FUNC 8c2bc 44 0 std::__ndk1::pair<std::__ndk1::basic_string<char, std::__ndk1::char_traits<char>, std::__ndk1::allocator<char> > const, nlohmann::json_abi_v3_11_3::basic_json<std::__ndk1::map, std::__ndk1::vector, std::__ndk1::basic_string<char, std::__ndk1::char_traits<char>, std::__ndk1::allocator<char> >, bool, long, unsigned long, double, std::__ndk1::allocator, nlohmann::json_abi_v3_11_3::adl_serializer, std::__ndk1::vector<unsigned char, std::__ndk1::allocator<unsigned char> >, void> >::~pair()
FUNC 8c300 344 0 nlohmann::json_abi_v3_11_3::detail::binary_reader<nlohmann::json_abi_v3_11_3::basic_json<std::__ndk1::map, std::__ndk1::vector, std::__ndk1::basic_string<char, std::__ndk1::char_traits<char>, std::__ndk1::allocator<char> >, bool, long, unsigned long, double, std::__ndk1::allocator, nlohmann::json_abi_v3_11_3::adl_serializer, std::__ndk1::vector<unsigned char, std::__ndk1::allocator<unsigned char> >, void>, nlohmann::json_abi_v3_11_3::detail::iterator_input_adapter<std::__ndk1::__wrap_iter<unsigned char const*> >, nlohmann::json_abi_v3_11_3::detail::json_sax_dom_parser<nlohmann::json_abi_v3_11_3::basic_json<std::__ndk1::map, std::__ndk1::vector, std::__ndk1::basic_string<char, std::__ndk1::char_traits<char>, std::__ndk1::allocator<char> >, bool, long, unsigned long, double, std::__ndk1::allocator, nlohmann::json_abi_v3_11_3::adl_serializer, std::__ndk1::vector<unsigned char, std::__ndk1::allocator<unsigned char> >, void> > >::get_bson_string<int>(int, std::__ndk1::basic_string<char, std::__ndk1::char_traits<char>, std::__ndk1::allocator<char> >&)
FUNC 8c644 308 0 nlohmann::json_abi_v3_11_3::detail::binary_reader<nlohmann::json_abi_v3_11_3::basic_json<std::__ndk1::map, std::__ndk1::vector, std::__ndk1::basic_string<char, std::__ndk1::char_traits<char>, std::__ndk1::allocator<char> >, bool, long, unsigned long, double, std::__ndk1::allocator, nlohmann::json_abi_v3_11_3::adl_serializer, std::__ndk1::vector<unsigned char, std::__ndk1::allocator<unsigned char> >, void>, nlohmann::json_abi_v3_11_3::detail::iterator_input_adapter<std::__ndk1::__wrap_iter<unsigned char const*> >, nlohmann::json_abi_v3_11_3::detail::json_sax_dom_parser<nlohmann::json_abi_v3_11_3::basic_json<std::__ndk1::map, std::__ndk1::vector, std::__ndk1::basic_string<char, std::__ndk1::char_traits<char>, std::__ndk1::allocator<char> >, bool, long, unsigned long, double, std::__ndk1::allocator, nlohmann::json_abi_v3_11_3::adl_serializer, std::__ndk1::vector<unsigned char, std::__ndk1::allocator<unsigned char> >, void> > >::get_bson_binary<int>(int, nlohmann::json_abi_v3_11_3::byte_container_with_subtype<std::__ndk1::vector<unsigned char, std::__ndk1::allocator<unsigned char> > >&)
FUNC 8c94c a4 0 snprintf(char*, unsigned long pass_object_size1, char const*, ...)
FUNC 8c9f0 134 0 nlohmann::json_abi_v3_11_3::detail::json_sax_dom_parser<nlohmann::json_abi_v3_11_3::basic_json<std::__ndk1::map, std::__ndk1::vector, std::__ndk1::basic_string<char, std::__ndk1::char_traits<char>, std::__ndk1::allocator<char> >, bool, long, unsigned long, double, std::__ndk1::allocator, nlohmann::json_abi_v3_11_3::adl_serializer, std::__ndk1::vector<unsigned char, std::__ndk1::allocator<unsigned char> >, void> >::handle_value<double&>(double&)
FUNC 8cb24 438 0 nlohmann::json_abi_v3_11_3::basic_json<std::__ndk1::map, std::__ndk1::vector, std::__ndk1::basic_string<char, std::__ndk1::char_traits<char>, std::__ndk1::allocator<char> >, bool, long, unsigned long, double, std::__ndk1::allocator, nlohmann::json_abi_v3_11_3::adl_serializer, std::__ndk1::vector<unsigned char, std::__ndk1::allocator<unsigned char> >, void>::json_value::destroy(nlohmann::json_abi_v3_11_3::detail::value_t)
FUNC 8cf5c dc 0 std::__ndk1::vector<nlohmann::json_abi_v3_11_3::basic_json<std::__ndk1::map, std::__ndk1::vector, std::__ndk1::basic_string<char, std::__ndk1::char_traits<char>, std::__ndk1::allocator<char> >, bool, long, unsigned long, double, std::__ndk1::allocator, nlohmann::json_abi_v3_11_3::adl_serializer, std::__ndk1::vector<unsigned char, std::__ndk1::allocator<unsigned char> >, void>, std::__ndk1::allocator<nlohmann::json_abi_v3_11_3::basic_json<std::__ndk1::map, std::__ndk1::vector, std::__ndk1::basic_string<char, std::__ndk1::char_traits<char>, std::__ndk1::allocator<char> >, bool, long, unsigned long, double, std::__ndk1::allocator, nlohmann::json_abi_v3_11_3::adl_serializer, std::__ndk1::vector<unsigned char, std::__ndk1::allocator<unsigned char> >, void> > >::reserve(unsigned long)
FUNC 8d038 64 0 std::__ndk1::vector<nlohmann::json_abi_v3_11_3::basic_json<std::__ndk1::map, std::__ndk1::vector, std::__ndk1::basic_string<char, std::__ndk1::char_traits<char>, std::__ndk1::allocator<char> >, bool, long, unsigned long, double, std::__ndk1::allocator, nlohmann::json_abi_v3_11_3::adl_serializer, std::__ndk1::vector<unsigned char, std::__ndk1::allocator<unsigned char> >, void>, std::__ndk1::allocator<nlohmann::json_abi_v3_11_3::basic_json<std::__ndk1::map, std::__ndk1::vector, std::__ndk1::basic_string<char, std::__ndk1::char_traits<char>, std::__ndk1::allocator<char> >, bool, long, unsigned long, double, std::__ndk1::allocator, nlohmann::json_abi_v3_11_3::adl_serializer, std::__ndk1::vector<unsigned char, std::__ndk1::allocator<unsigned char> >, void> > >::~vector[abi:ne180000]()
FUNC 8d09c 120 0 std::__ndk1::vector<nlohmann::json_abi_v3_11_3::basic_json<std::__ndk1::map, std::__ndk1::vector, std::__ndk1::basic_string<char, std::__ndk1::char_traits<char>, std::__ndk1::allocator<char> >, bool, long, unsigned long, double, std::__ndk1::allocator, nlohmann::json_abi_v3_11_3::adl_serializer, std::__ndk1::vector<unsigned char, std::__ndk1::allocator<unsigned char> >, void>, std::__ndk1::allocator<nlohmann::json_abi_v3_11_3::basic_json<std::__ndk1::map, std::__ndk1::vector, std::__ndk1::basic_string<char, std::__ndk1::char_traits<char>, std::__ndk1::allocator<char> >, bool, long, unsigned long, double, std::__ndk1::allocator, nlohmann::json_abi_v3_11_3::adl_serializer, std::__ndk1::vector<unsigned char, std::__ndk1::allocator<unsigned char> >, void> > >::__push_back_slow_path<nlohmann::json_abi_v3_11_3::basic_json<std::__ndk1::map, std::__ndk1::vector, std::__ndk1::basic_string<char, std::__ndk1::char_traits<char>, std::__ndk1::allocator<char> >, bool, long, unsigned long, double, std::__ndk1::allocator, nlohmann::json_abi_v3_11_3::adl_serializer, std::__ndk1::vector<unsigned char, std::__ndk1::allocator<unsigned char> >, void> >(nlohmann::json_abi_v3_11_3::basic_json<std::__ndk1::map, std::__ndk1::vector, std::__ndk1::basic_string<char, std::__ndk1::char_traits<char>, std::__ndk1::allocator<char> >, bool, long, unsigned long, double, std::__ndk1::allocator, nlohmann::json_abi_v3_11_3::adl_serializer, std::__ndk1::vector<unsigned char, std::__ndk1::allocator<unsigned char> >, void>&&)
FUNC 8d1bc 68 0 std::__ndk1::__tree<std::__ndk1::__value_type<std::__ndk1::basic_string<char, std::__ndk1::char_traits<char>, std::__ndk1::allocator<char> >, nlohmann::json_abi_v3_11_3::basic_json<std::__ndk1::map, std::__ndk1::vector, std::__ndk1::basic_string<char, std::__ndk1::char_traits<char>, std::__ndk1::allocator<char> >, bool, long, unsigned long, double, std::__ndk1::allocator, nlohmann::json_abi_v3_11_3::adl_serializer, std::__ndk1::vector<unsigned char, std::__ndk1::allocator<unsigned char> >, void> >, std::__ndk1::__map_value_compare<std::__ndk1::basic_string<char, std::__ndk1::char_traits<char>, std::__ndk1::allocator<char> >, std::__ndk1::__value_type<std::__ndk1::basic_string<char, std::__ndk1::char_traits<char>, std::__ndk1::allocator<char> >, nlohmann::json_abi_v3_11_3::basic_json<std::__ndk1::map, std::__ndk1::vector, std::__ndk1::basic_string<char, std::__ndk1::char_traits<char>, std::__ndk1::allocator<char> >, bool, long, unsigned long, double, std::__ndk1::allocator, nlohmann::json_abi_v3_11_3::adl_serializer, std::__ndk1::vector<unsigned char, std::__ndk1::allocator<unsigned char> >, void> >, std::__ndk1::less<void>, true>, std::__ndk1::allocator<std::__ndk1::__value_type<std::__ndk1::basic_string<char, std::__ndk1::char_traits<char>, std::__ndk1::allocator<char> >, nlohmann::json_abi_v3_11_3::basic_json<std::__ndk1::map, std::__ndk1::vector, std::__ndk1::basic_string<char, std::__ndk1::char_traits<char>, std::__ndk1::allocator<char> >, bool, long, unsigned long, double, std::__ndk1::allocator, nlohmann::json_abi_v3_11_3::adl_serializer, std::__ndk1::vector<unsigned char, std::__ndk1::allocator<unsigned char> >, void> > > >::destroy(std::__ndk1::__tree_node<std::__ndk1::__value_type<std::__ndk1::basic_string<char, std::__ndk1::char_traits<char>, std::__ndk1::allocator<char> >, nlohmann::json_abi_v3_11_3::basic_json<std::__ndk1::map, std::__ndk1::vector, std::__ndk1::basic_string<char, std::__ndk1::char_traits<char>, std::__ndk1::allocator<char> >, bool, long, unsigned long, double, std::__ndk1::allocator, nlohmann::json_abi_v3_11_3::adl_serializer, std::__ndk1::vector<unsigned char, std::__ndk1::allocator<unsigned char> >, void> >, void*>*)
FUNC 8d224 11c 0 std::__ndk1::vector<nlohmann::json_abi_v3_11_3::basic_json<std::__ndk1::map, std::__ndk1::vector, std::__ndk1::basic_string<char, std::__ndk1::char_traits<char>, std::__ndk1::allocator<char> >, bool, long, unsigned long, double, std::__ndk1::allocator, nlohmann::json_abi_v3_11_3::adl_serializer, std::__ndk1::vector<unsigned char, std::__ndk1::allocator<unsigned char> >, void>, std::__ndk1::allocator<nlohmann::json_abi_v3_11_3::basic_json<std::__ndk1::map, std::__ndk1::vector, std::__ndk1::basic_string<char, std::__ndk1::char_traits<char>, std::__ndk1::allocator<char> >, bool, long, unsigned long, double, std::__ndk1::allocator, nlohmann::json_abi_v3_11_3::adl_serializer, std::__ndk1::vector<unsigned char, std::__ndk1::allocator<unsigned char> >, void> > >::__emplace_back_slow_path<double&>(double&)
FUNC 8d340 b0 0 nlohmann::json_abi_v3_11_3::detail::concat<std::__ndk1::basic_string<char, std::__ndk1::char_traits<char>, std::__ndk1::allocator<char> >, char const (&) [38], std::__ndk1::basic_string<char, std::__ndk1::char_traits<char>, std::__ndk1::allocator<char> > >(char const (&) [38], std::__ndk1::basic_string<char, std::__ndk1::char_traits<char>, std::__ndk1::allocator<char> >)
FUNC 8d3f0 274 0 nlohmann::json_abi_v3_11_3::detail::json_sax_dom_parser<nlohmann::json_abi_v3_11_3::basic_json<std::__ndk1::map, std::__ndk1::vector, std::__ndk1::basic_string<char, std::__ndk1::char_traits<char>, std::__ndk1::allocator<char> >, bool, long, unsigned long, double, std::__ndk1::allocator, nlohmann::json_abi_v3_11_3::adl_serializer, std::__ndk1::vector<unsigned char, std::__ndk1::allocator<unsigned char> >, void> >::handle_value<std::__ndk1::basic_string<char, std::__ndk1::char_traits<char>, std::__ndk1::allocator<char> >&>(std::__ndk1::basic_string<char, std::__ndk1::char_traits<char>, std::__ndk1::allocator<char> >&)
FUNC 8d664 1c 0 nlohmann::json_abi_v3_11_3::basic_json<std::__ndk1::map, std::__ndk1::vector, std::__ndk1::basic_string<char, std::__ndk1::char_traits<char>, std::__ndk1::allocator<char> >, bool, long, unsigned long, double, std::__ndk1::allocator, nlohmann::json_abi_v3_11_3::adl_serializer, std::__ndk1::vector<unsigned char, std::__ndk1::allocator<unsigned char> >, void>::data::~data()
FUNC 8d680 200 0 std::__ndk1::vector<nlohmann::json_abi_v3_11_3::basic_json<std::__ndk1::map, std::__ndk1::vector, std::__ndk1::basic_string<char, std::__ndk1::char_traits<char>, std::__ndk1::allocator<char> >, bool, long, unsigned long, double, std::__ndk1::allocator, nlohmann::json_abi_v3_11_3::adl_serializer, std::__ndk1::vector<unsigned char, std::__ndk1::allocator<unsigned char> >, void>, std::__ndk1::allocator<nlohmann::json_abi_v3_11_3::basic_json<std::__ndk1::map, std::__ndk1::vector, std::__ndk1::basic_string<char, std::__ndk1::char_traits<char>, std::__ndk1::allocator<char> >, bool, long, unsigned long, double, std::__ndk1::allocator, nlohmann::json_abi_v3_11_3::adl_serializer, std::__ndk1::vector<unsigned char, std::__ndk1::allocator<unsigned char> >, void> > >::__emplace_back_slow_path<std::__ndk1::basic_string<char, std::__ndk1::char_traits<char>, std::__ndk1::allocator<char> >&>(std::__ndk1::basic_string<char, std::__ndk1::char_traits<char>, std::__ndk1::allocator<char> >&)
FUNC 8d880 2ec 0 nlohmann::json_abi_v3_11_3::detail::json_sax_dom_parser<nlohmann::json_abi_v3_11_3::basic_json<std::__ndk1::map, std::__ndk1::vector, std::__ndk1::basic_string<char, std::__ndk1::char_traits<char>, std::__ndk1::allocator<char> >, bool, long, unsigned long, double, std::__ndk1::allocator, nlohmann::json_abi_v3_11_3::adl_serializer, std::__ndk1::vector<unsigned char, std::__ndk1::allocator<unsigned char> >, void> >::start_array(unsigned long)
FUNC 8db6c b0 0 nlohmann::json_abi_v3_11_3::detail::concat<std::__ndk1::basic_string<char, std::__ndk1::char_traits<char>, std::__ndk1::allocator<char> >, char const (&) [23], std::__ndk1::basic_string<char, std::__ndk1::char_traits<char>, std::__ndk1::allocator<char> > >(char const (&) [23], std::__ndk1::basic_string<char, std::__ndk1::char_traits<char>, std::__ndk1::allocator<char> >)
FUNC 8dc1c b0 0 nlohmann::json_abi_v3_11_3::detail::concat<std::__ndk1::basic_string<char, std::__ndk1::char_traits<char>, std::__ndk1::allocator<char> >, char const (&) [42], std::__ndk1::basic_string<char, std::__ndk1::char_traits<char>, std::__ndk1::allocator<char> > >(char const (&) [42], std::__ndk1::basic_string<char, std::__ndk1::char_traits<char>, std::__ndk1::allocator<char> >)
FUNC 8dccc 6c 0 nlohmann::json_abi_v3_11_3::detail::binary_reader<nlohmann::json_abi_v3_11_3::basic_json<std::__ndk1::map, std::__ndk1::vector, std::__ndk1::basic_string<char, std::__ndk1::char_traits<char>, std::__ndk1::allocator<char> >, bool, long, unsigned long, double, std::__ndk1::allocator, nlohmann::json_abi_v3_11_3::adl_serializer, std::__ndk1::vector<unsigned char, std::__ndk1::allocator<unsigned char> >, void>, nlohmann::json_abi_v3_11_3::detail::iterator_input_adapter<std::__ndk1::__wrap_iter<unsigned char const*> >, nlohmann::json_abi_v3_11_3::detail::json_sax_dom_parser<nlohmann::json_abi_v3_11_3::basic_json<std::__ndk1::map, std::__ndk1::vector, std::__ndk1::basic_string<char, std::__ndk1::char_traits<char>, std::__ndk1::allocator<char> >, bool, long, unsigned long, double, std::__ndk1::allocator, nlohmann::json_abi_v3_11_3::adl_serializer, std::__ndk1::vector<unsigned char, std::__ndk1::allocator<unsigned char> >, void> > >::get_number<unsigned char, false>(nlohmann::json_abi_v3_11_3::detail::input_format_t, unsigned char&)
FUNC 8dd38 238 0 nlohmann::json_abi_v3_11_3::detail::binary_reader<nlohmann::json_abi_v3_11_3::basic_json<std::__ndk1::map, std::__ndk1::vector, std::__ndk1::basic_string<char, std::__ndk1::char_traits<char>, std::__ndk1::allocator<char> >, bool, long, unsigned long, double, std::__ndk1::allocator, nlohmann::json_abi_v3_11_3::adl_serializer, std::__ndk1::vector<unsigned char, std::__ndk1::allocator<unsigned char> >, void>, nlohmann::json_abi_v3_11_3::detail::iterator_input_adapter<std::__ndk1::__wrap_iter<unsigned char const*> >, nlohmann::json_abi_v3_11_3::detail::json_sax_dom_parser<nlohmann::json_abi_v3_11_3::basic_json<std::__ndk1::map, std::__ndk1::vector, std::__ndk1::basic_string<char, std::__ndk1::char_traits<char>, std::__ndk1::allocator<char> >, bool, long, unsigned long, double, std::__ndk1::allocator, nlohmann::json_abi_v3_11_3::adl_serializer, std::__ndk1::vector<unsigned char, std::__ndk1::allocator<unsigned char> >, void> > >::get_binary<int>(nlohmann::json_abi_v3_11_3::detail::input_format_t, int, nlohmann::json_abi_v3_11_3::byte_container_with_subtype<std::__ndk1::vector<unsigned char, std::__ndk1::allocator<unsigned char> > >&)
FUNC 8df70 184 0 nlohmann::json_abi_v3_11_3::detail::json_sax_dom_parser<nlohmann::json_abi_v3_11_3::basic_json<std::__ndk1::map, std::__ndk1::vector, std::__ndk1::basic_string<char, std::__ndk1::char_traits<char>, std::__ndk1::allocator<char> >, bool, long, unsigned long, double, std::__ndk1::allocator, nlohmann::json_abi_v3_11_3::adl_serializer, std::__ndk1::vector<unsigned char, std::__ndk1::allocator<unsigned char> >, void> >::handle_value<nlohmann::json_abi_v3_11_3::byte_container_with_subtype<std::__ndk1::vector<unsigned char, std::__ndk1::allocator<unsigned char> > > >(nlohmann::json_abi_v3_11_3::byte_container_with_subtype<std::__ndk1::vector<unsigned char, std::__ndk1::allocator<unsigned char> > >&&)
FUNC 8e0f4 12c 0 nlohmann::json_abi_v3_11_3::detail::external_constructor<(nlohmann::json_abi_v3_11_3::detail::value_t)8>::construct<nlohmann::json_abi_v3_11_3::basic_json<std::__ndk1::map, std::__ndk1::vector, std::__ndk1::basic_string<char, std::__ndk1::char_traits<char>, std::__ndk1::allocator<char> >, bool, long, unsigned long, double, std::__ndk1::allocator, nlohmann::json_abi_v3_11_3::adl_serializer, std::__ndk1::vector<unsigned char, std::__ndk1::allocator<unsigned char> >, void> >(nlohmann::json_abi_v3_11_3::basic_json<std::__ndk1::map, std::__ndk1::vector, std::__ndk1::basic_string<char, std::__ndk1::char_traits<char>, std::__ndk1::allocator<char> >, bool, long, unsigned long, double, std::__ndk1::allocator, nlohmann::json_abi_v3_11_3::adl_serializer, std::__ndk1::vector<unsigned char, std::__ndk1::allocator<unsigned char> >, void>&, nlohmann::json_abi_v3_11_3::basic_json<std::__ndk1::map, std::__ndk1::vector, std::__ndk1::basic_string<char, std::__ndk1::char_traits<char>, std::__ndk1::allocator<char> >, bool, long, unsigned long, double, std::__ndk1::allocator, nlohmann::json_abi_v3_11_3::adl_serializer, std::__ndk1::vector<unsigned char, std::__ndk1::allocator<unsigned char> >, void> const::binary_t&)
FUNC 8e220 1bc 0 std::__ndk1::vector<nlohmann::json_abi_v3_11_3::basic_json<std::__ndk1::map, std::__ndk1::vector, std::__ndk1::basic_string<char, std::__ndk1::char_traits<char>, std::__ndk1::allocator<char> >, bool, long, unsigned long, double, std::__ndk1::allocator, nlohmann::json_abi_v3_11_3::adl_serializer, std::__ndk1::vector<unsigned char, std::__ndk1::allocator<unsigned char> >, void>, std::__ndk1::allocator<nlohmann::json_abi_v3_11_3::basic_json<std::__ndk1::map, std::__ndk1::vector, std::__ndk1::basic_string<char, std::__ndk1::char_traits<char>, std::__ndk1::allocator<char> >, bool, long, unsigned long, double, std::__ndk1::allocator, nlohmann::json_abi_v3_11_3::adl_serializer, std::__ndk1::vector<unsigned char, std::__ndk1::allocator<unsigned char> >, void> > >::__emplace_back_slow_path<nlohmann::json_abi_v3_11_3::byte_container_with_subtype<std::__ndk1::vector<unsigned char, std::__ndk1::allocator<unsigned char> > > >(nlohmann::json_abi_v3_11_3::byte_container_with_subtype<std::__ndk1::vector<unsigned char, std::__ndk1::allocator<unsigned char> > >&&)
FUNC 8e3dc 134 0 nlohmann::json_abi_v3_11_3::detail::json_sax_dom_parser<nlohmann::json_abi_v3_11_3::basic_json<std::__ndk1::map, std::__ndk1::vector, std::__ndk1::basic_string<char, std::__ndk1::char_traits<char>, std::__ndk1::allocator<char> >, bool, long, unsigned long, double, std::__ndk1::allocator, nlohmann::json_abi_v3_11_3::adl_serializer, std::__ndk1::vector<unsigned char, std::__ndk1::allocator<unsigned char> >, void> >::handle_value<bool&>(bool&)
FUNC 8e510 118 0 std::__ndk1::vector<nlohmann::json_abi_v3_11_3::basic_json<std::__ndk1::map, std::__ndk1::vector, std::__ndk1::basic_string<char, std::__ndk1::char_traits<char>, std::__ndk1::allocator<char> >, bool, long, unsigned long, double, std::__ndk1::allocator, nlohmann::json_abi_v3_11_3::adl_serializer, std::__ndk1::vector<unsigned char, std::__ndk1::allocator<unsigned char> >, void>, std::__ndk1::allocator<nlohmann::json_abi_v3_11_3::basic_json<std::__ndk1::map, std::__ndk1::vector, std::__ndk1::basic_string<char, std::__ndk1::char_traits<char>, std::__ndk1::allocator<char> >, bool, long, unsigned long, double, std::__ndk1::allocator, nlohmann::json_abi_v3_11_3::adl_serializer, std::__ndk1::vector<unsigned char, std::__ndk1::allocator<unsigned char> >, void> > >::__emplace_back_slow_path<bool&>(bool&)
FUNC 8e628 110 0 nlohmann::json_abi_v3_11_3::detail::json_sax_dom_parser<nlohmann::json_abi_v3_11_3::basic_json<std::__ndk1::map, std::__ndk1::vector, std::__ndk1::basic_string<char, std::__ndk1::char_traits<char>, std::__ndk1::allocator<char> >, bool, long, unsigned long, double, std::__ndk1::allocator, nlohmann::json_abi_v3_11_3::adl_serializer, std::__ndk1::vector<unsigned char, std::__ndk1::allocator<unsigned char> >, void> >::handle_value<std::nullptr_t>(std::nullptr_t&&)
FUNC 8e738 110 0 std::__ndk1::vector<nlohmann::json_abi_v3_11_3::basic_json<std::__ndk1::map, std::__ndk1::vector, std::__ndk1::basic_string<char, std::__ndk1::char_traits<char>, std::__ndk1::allocator<char> >, bool, long, unsigned long, double, std::__ndk1::allocator, nlohmann::json_abi_v3_11_3::adl_serializer, std::__ndk1::vector<unsigned char, std::__ndk1::allocator<unsigned char> >, void>, std::__ndk1::allocator<nlohmann::json_abi_v3_11_3::basic_json<std::__ndk1::map, std::__ndk1::vector, std::__ndk1::basic_string<char, std::__ndk1::char_traits<char>, std::__ndk1::allocator<char> >, bool, long, unsigned long, double, std::__ndk1::allocator, nlohmann::json_abi_v3_11_3::adl_serializer, std::__ndk1::vector<unsigned char, std::__ndk1::allocator<unsigned char> >, void> > >::__emplace_back_slow_path<std::nullptr_t>(std::nullptr_t&&)
FUNC 8e848 134 0 nlohmann::json_abi_v3_11_3::detail::json_sax_dom_parser<nlohmann::json_abi_v3_11_3::basic_json<std::__ndk1::map, std::__ndk1::vector, std::__ndk1::basic_string<char, std::__ndk1::char_traits<char>, std::__ndk1::allocator<char> >, bool, long, unsigned long, double, std::__ndk1::allocator, nlohmann::json_abi_v3_11_3::adl_serializer, std::__ndk1::vector<unsigned char, std::__ndk1::allocator<unsigned char> >, void> >::handle_value<long&>(long&)
FUNC 8e97c 118 0 std::__ndk1::vector<nlohmann::json_abi_v3_11_3::basic_json<std::__ndk1::map, std::__ndk1::vector, std::__ndk1::basic_string<char, std::__ndk1::char_traits<char>, std::__ndk1::allocator<char> >, bool, long, unsigned long, double, std::__ndk1::allocator, nlohmann::json_abi_v3_11_3::adl_serializer, std::__ndk1::vector<unsigned char, std::__ndk1::allocator<unsigned char> >, void>, std::__ndk1::allocator<nlohmann::json_abi_v3_11_3::basic_json<std::__ndk1::map, std::__ndk1::vector, std::__ndk1::basic_string<char, std::__ndk1::char_traits<char>, std::__ndk1::allocator<char> >, bool, long, unsigned long, double, std::__ndk1::allocator, nlohmann::json_abi_v3_11_3::adl_serializer, std::__ndk1::vector<unsigned char, std::__ndk1::allocator<unsigned char> >, void> > >::__emplace_back_slow_path<long&>(long&)
FUNC 8ea94 100 0 nlohmann::json_abi_v3_11_3::detail::binary_reader<nlohmann::json_abi_v3_11_3::basic_json<std::__ndk1::map, std::__ndk1::vector, std::__ndk1::basic_string<char, std::__ndk1::char_traits<char>, std::__ndk1::allocator<char> >, bool, long, unsigned long, double, std::__ndk1::allocator, nlohmann::json_abi_v3_11_3::adl_serializer, std::__ndk1::vector<unsigned char, std::__ndk1::allocator<unsigned char> >, void>, nlohmann::json_abi_v3_11_3::detail::iterator_input_adapter<std::__ndk1::__wrap_iter<unsigned char const*> >, nlohmann::json_abi_v3_11_3::detail::json_sax_dom_parser<nlohmann::json_abi_v3_11_3::basic_json<std::__ndk1::map, std::__ndk1::vector, std::__ndk1::basic_string<char, std::__ndk1::char_traits<char>, std::__ndk1::allocator<char> >, bool, long, unsigned long, double, std::__ndk1::allocator, nlohmann::json_abi_v3_11_3::adl_serializer, std::__ndk1::vector<unsigned char, std::__ndk1::allocator<unsigned char> >, void> > >::get_number<unsigned short, false>(nlohmann::json_abi_v3_11_3::detail::input_format_t, unsigned short&)
FUNC 8eb94 1fc 0 nlohmann::json_abi_v3_11_3::detail::binary_reader<nlohmann::json_abi_v3_11_3::basic_json<std::__ndk1::map, std::__ndk1::vector, std::__ndk1::basic_string<char, std::__ndk1::char_traits<char>, std::__ndk1::allocator<char> >, bool, long, unsigned long, double, std::__ndk1::allocator, nlohmann::json_abi_v3_11_3::adl_serializer, std::__ndk1::vector<unsigned char, std::__ndk1::allocator<unsigned char> >, void>, nlohmann::json_abi_v3_11_3::detail::iterator_input_adapter<std::__ndk1::__wrap_iter<unsigned char const*> >, nlohmann::json_abi_v3_11_3::detail::json_sax_dom_parser<nlohmann::json_abi_v3_11_3::basic_json<std::__ndk1::map, std::__ndk1::vector, std::__ndk1::basic_string<char, std::__ndk1::char_traits<char>, std::__ndk1::allocator<char> >, bool, long, unsigned long, double, std::__ndk1::allocator, nlohmann::json_abi_v3_11_3::adl_serializer, std::__ndk1::vector<unsigned char, std::__ndk1::allocator<unsigned char> >, void> > >::get_number<unsigned int, false>(nlohmann::json_abi_v3_11_3::detail::input_format_t, unsigned int&)
FUNC 8ed90 10c 0 nlohmann::json_abi_v3_11_3::detail::binary_reader<nlohmann::json_abi_v3_11_3::basic_json<std::__ndk1::map, std::__ndk1::vector, std::__ndk1::basic_string<char, std::__ndk1::char_traits<char>, std::__ndk1::allocator<char> >, bool, long, unsigned long, double, std::__ndk1::allocator, nlohmann::json_abi_v3_11_3::adl_serializer, std::__ndk1::vector<unsigned char, std::__ndk1::allocator<unsigned char> >, void>, nlohmann::json_abi_v3_11_3::detail::iterator_input_adapter<std::__ndk1::__wrap_iter<unsigned char const*> >, nlohmann::json_abi_v3_11_3::detail::json_sax_dom_parser<nlohmann::json_abi_v3_11_3::basic_json<std::__ndk1::map, std::__ndk1::vector, std::__ndk1::basic_string<char, std::__ndk1::char_traits<char>, std::__ndk1::allocator<char> >, bool, long, unsigned long, double, std::__ndk1::allocator, nlohmann::json_abi_v3_11_3::adl_serializer, std::__ndk1::vector<unsigned char, std::__ndk1::allocator<unsigned char> >, void> > >::get_number<unsigned long, false>(nlohmann::json_abi_v3_11_3::detail::input_format_t, unsigned long&)
FUNC 8ee9c 674 0 nlohmann::json_abi_v3_11_3::detail::binary_reader<nlohmann::json_abi_v3_11_3::basic_json<std::__ndk1::map, std::__ndk1::vector, std::__ndk1::basic_string<char, std::__ndk1::char_traits<char>, std::__ndk1::allocator<char> >, bool, long, unsigned long, double, std::__ndk1::allocator, nlohmann::json_abi_v3_11_3::adl_serializer, std::__ndk1::vector<unsigned char, std::__ndk1::allocator<unsigned char> >, void>, nlohmann::json_abi_v3_11_3::detail::iterator_input_adapter<std::__ndk1::__wrap_iter<unsigned char const*> >, nlohmann::json_abi_v3_11_3::detail::json_sax_dom_parser<nlohmann::json_abi_v3_11_3::basic_json<std::__ndk1::map, std::__ndk1::vector, std::__ndk1::basic_string<char, std::__ndk1::char_traits<char>, std::__ndk1::allocator<char> >, bool, long, unsigned long, double, std::__ndk1::allocator, nlohmann::json_abi_v3_11_3::adl_serializer, std::__ndk1::vector<unsigned char, std::__ndk1::allocator<unsigned char> >, void> > >::get_cbor_binary(nlohmann::json_abi_v3_11_3::byte_container_with_subtype<std::__ndk1::vector<unsigned char, std::__ndk1::allocator<unsigned char> > >&)
FUNC 8f510 730 0 nlohmann::json_abi_v3_11_3::detail::binary_reader<nlohmann::json_abi_v3_11_3::basic_json<std::__ndk1::map, std::__ndk1::vector, std::__ndk1::basic_string<char, std::__ndk1::char_traits<char>, std::__ndk1::allocator<char> >, bool, long, unsigned long, double, std::__ndk1::allocator, nlohmann::json_abi_v3_11_3::adl_serializer, std::__ndk1::vector<unsigned char, std::__ndk1::allocator<unsigned char> >, void>, nlohmann::json_abi_v3_11_3::detail::iterator_input_adapter<std::__ndk1::__wrap_iter<unsigned char const*> >, nlohmann::json_abi_v3_11_3::detail::json_sax_dom_parser<nlohmann::json_abi_v3_11_3::basic_json<std::__ndk1::map, std::__ndk1::vector, std::__ndk1::basic_string<char, std::__ndk1::char_traits<char>, std::__ndk1::allocator<char> >, bool, long, unsigned long, double, std::__ndk1::allocator, nlohmann::json_abi_v3_11_3::adl_serializer, std::__ndk1::vector<unsigned char, std::__ndk1::allocator<unsigned char> >, void> > >::get_cbor_string(std::__ndk1::basic_string<char, std::__ndk1::char_traits<char>, std::__ndk1::allocator<char> >&)
FUNC 8fc40 cc 0 nlohmann::json_abi_v3_11_3::detail::binary_reader<nlohmann::json_abi_v3_11_3::basic_json<std::__ndk1::map, std::__ndk1::vector, std::__ndk1::basic_string<char, std::__ndk1::char_traits<char>, std::__ndk1::allocator<char> >, bool, long, unsigned long, double, std::__ndk1::allocator, nlohmann::json_abi_v3_11_3::adl_serializer, std::__ndk1::vector<unsigned char, std::__ndk1::allocator<unsigned char> >, void>, nlohmann::json_abi_v3_11_3::detail::iterator_input_adapter<std::__ndk1::__wrap_iter<unsigned char const*> >, nlohmann::json_abi_v3_11_3::detail::json_sax_dom_parser<nlohmann::json_abi_v3_11_3::basic_json<std::__ndk1::map, std::__ndk1::vector, std::__ndk1::basic_string<char, std::__ndk1::char_traits<char>, std::__ndk1::allocator<char> >, bool, long, unsigned long, double, std::__ndk1::allocator, nlohmann::json_abi_v3_11_3::adl_serializer, std::__ndk1::vector<unsigned char, std::__ndk1::allocator<unsigned char> >, void> > >::get_cbor_array(unsigned long, nlohmann::json_abi_v3_11_3::detail::cbor_tag_handler_t)
FUNC 8fd0c 26c 0 nlohmann::json_abi_v3_11_3::detail::binary_reader<nlohmann::json_abi_v3_11_3::basic_json<std::__ndk1::map, std::__ndk1::vector, std::__ndk1::basic_string<char, std::__ndk1::char_traits<char>, std::__ndk1::allocator<char> >, bool, long, unsigned long, double, std::__ndk1::allocator, nlohmann::json_abi_v3_11_3::adl_serializer, std::__ndk1::vector<unsigned char, std::__ndk1::allocator<unsigned char> >, void>, nlohmann::json_abi_v3_11_3::detail::iterator_input_adapter<std::__ndk1::__wrap_iter<unsigned char const*> >, nlohmann::json_abi_v3_11_3::detail::json_sax_dom_parser<nlohmann::json_abi_v3_11_3::basic_json<std::__ndk1::map, std::__ndk1::vector, std::__ndk1::basic_string<char, std::__ndk1::char_traits<char>, std::__ndk1::allocator<char> >, bool, long, unsigned long, double, std::__ndk1::allocator, nlohmann::json_abi_v3_11_3::adl_serializer, std::__ndk1::vector<unsigned char, std::__ndk1::allocator<unsigned char> >, void> > >::get_cbor_object(unsigned long, nlohmann::json_abi_v3_11_3::detail::cbor_tag_handler_t)
FUNC 8ff78 b0 0 nlohmann::json_abi_v3_11_3::detail::concat<std::__ndk1::basic_string<char, std::__ndk1::char_traits<char>, std::__ndk1::allocator<char> >, char const (&) [17], std::__ndk1::basic_string<char, std::__ndk1::char_traits<char>, std::__ndk1::allocator<char> >&>(char const (&) [17], std::__ndk1::basic_string<char, std::__ndk1::char_traits<char>, std::__ndk1::allocator<char> >&)
FUNC 90028 54 0 nlohmann::json_abi_v3_11_3::detail::binary_reader<nlohmann::json_abi_v3_11_3::basic_json<std::__ndk1::map, std::__ndk1::vector, std::__ndk1::basic_string<char, std::__ndk1::char_traits<char>, std::__ndk1::allocator<char> >, bool, long, unsigned long, double, std::__ndk1::allocator, nlohmann::json_abi_v3_11_3::adl_serializer, std::__ndk1::vector<unsigned char, std::__ndk1::allocator<unsigned char> >, void>, nlohmann::json_abi_v3_11_3::detail::iterator_input_adapter<std::__ndk1::__wrap_iter<unsigned char const*> >, nlohmann::json_abi_v3_11_3::detail::json_sax_dom_parser<nlohmann::json_abi_v3_11_3::basic_json<std::__ndk1::map, std::__ndk1::vector, std::__ndk1::basic_string<char, std::__ndk1::char_traits<char>, std::__ndk1::allocator<char> >, bool, long, unsigned long, double, std::__ndk1::allocator, nlohmann::json_abi_v3_11_3::adl_serializer, std::__ndk1::vector<unsigned char, std::__ndk1::allocator<unsigned char> >, void> > >::parse_cbor_internal(bool, nlohmann::json_abi_v3_11_3::detail::cbor_tag_handler_t)::{lambda()#1}::operator()() const
FUNC 9007c 1fc 0 nlohmann::json_abi_v3_11_3::detail::binary_reader<nlohmann::json_abi_v3_11_3::basic_json<std::__ndk1::map, std::__ndk1::vector, std::__ndk1::basic_string<char, std::__ndk1::char_traits<char>, std::__ndk1::allocator<char> >, bool, long, unsigned long, double, std::__ndk1::allocator, nlohmann::json_abi_v3_11_3::adl_serializer, std::__ndk1::vector<unsigned char, std::__ndk1::allocator<unsigned char> >, void>, nlohmann::json_abi_v3_11_3::detail::iterator_input_adapter<std::__ndk1::__wrap_iter<unsigned char const*> >, nlohmann::json_abi_v3_11_3::detail::json_sax_dom_parser<nlohmann::json_abi_v3_11_3::basic_json<std::__ndk1::map, std::__ndk1::vector, std::__ndk1::basic_string<char, std::__ndk1::char_traits<char>, std::__ndk1::allocator<char> >, bool, long, unsigned long, double, std::__ndk1::allocator, nlohmann::json_abi_v3_11_3::adl_serializer, std::__ndk1::vector<unsigned char, std::__ndk1::allocator<unsigned char> >, void> > >::get_number<float, false>(nlohmann::json_abi_v3_11_3::detail::input_format_t, float&)
FUNC 90278 10c 0 nlohmann::json_abi_v3_11_3::detail::binary_reader<nlohmann::json_abi_v3_11_3::basic_json<std::__ndk1::map, std::__ndk1::vector, std::__ndk1::basic_string<char, std::__ndk1::char_traits<char>, std::__ndk1::allocator<char> >, bool, long, unsigned long, double, std::__ndk1::allocator, nlohmann::json_abi_v3_11_3::adl_serializer, std::__ndk1::vector<unsigned char, std::__ndk1::allocator<unsigned char> >, void>, nlohmann::json_abi_v3_11_3::detail::iterator_input_adapter<std::__ndk1::__wrap_iter<unsigned char const*> >, nlohmann::json_abi_v3_11_3::detail::json_sax_dom_parser<nlohmann::json_abi_v3_11_3::basic_json<std::__ndk1::map, std::__ndk1::vector, std::__ndk1::basic_string<char, std::__ndk1::char_traits<char>, std::__ndk1::allocator<char> >, bool, long, unsigned long, double, std::__ndk1::allocator, nlohmann::json_abi_v3_11_3::adl_serializer, std::__ndk1::vector<unsigned char, std::__ndk1::allocator<unsigned char> >, void> > >::get_number<double, false>(nlohmann::json_abi_v3_11_3::detail::input_format_t, double&)
FUNC 90384 134 0 nlohmann::json_abi_v3_11_3::detail::json_sax_dom_parser<nlohmann::json_abi_v3_11_3::basic_json<std::__ndk1::map, std::__ndk1::vector, std::__ndk1::basic_string<char, std::__ndk1::char_traits<char>, std::__ndk1::allocator<char> >, bool, long, unsigned long, double, std::__ndk1::allocator, nlohmann::json_abi_v3_11_3::adl_serializer, std::__ndk1::vector<unsigned char, std::__ndk1::allocator<unsigned char> >, void> >::handle_value<unsigned long&>(unsigned long&)
FUNC 904b8 118 0 std::__ndk1::vector<nlohmann::json_abi_v3_11_3::basic_json<std::__ndk1::map, std::__ndk1::vector, std::__ndk1::basic_string<char, std::__ndk1::char_traits<char>, std::__ndk1::allocator<char> >, bool, long, unsigned long, double, std::__ndk1::allocator, nlohmann::json_abi_v3_11_3::adl_serializer, std::__ndk1::vector<unsigned char, std::__ndk1::allocator<unsigned char> >, void>, std::__ndk1::allocator<nlohmann::json_abi_v3_11_3::basic_json<std::__ndk1::map, std::__ndk1::vector, std::__ndk1::basic_string<char, std::__ndk1::char_traits<char>, std::__ndk1::allocator<char> >, bool, long, unsigned long, double, std::__ndk1::allocator, nlohmann::json_abi_v3_11_3::adl_serializer, std::__ndk1::vector<unsigned char, std::__ndk1::allocator<unsigned char> >, void> > >::__emplace_back_slow_path<unsigned long&>(unsigned long&)
FUNC 905d0 234 0 nlohmann::json_abi_v3_11_3::detail::binary_reader<nlohmann::json_abi_v3_11_3::basic_json<std::__ndk1::map, std::__ndk1::vector, std::__ndk1::basic_string<char, std::__ndk1::char_traits<char>, std::__ndk1::allocator<char> >, bool, long, unsigned long, double, std::__ndk1::allocator, nlohmann::json_abi_v3_11_3::adl_serializer, std::__ndk1::vector<unsigned char, std::__ndk1::allocator<unsigned char> >, void>, nlohmann::json_abi_v3_11_3::detail::iterator_input_adapter<std::__ndk1::__wrap_iter<unsigned char const*> >, nlohmann::json_abi_v3_11_3::detail::json_sax_dom_parser<nlohmann::json_abi_v3_11_3::basic_json<std::__ndk1::map, std::__ndk1::vector, std::__ndk1::basic_string<char, std::__ndk1::char_traits<char>, std::__ndk1::allocator<char> >, bool, long, unsigned long, double, std::__ndk1::allocator, nlohmann::json_abi_v3_11_3::adl_serializer, std::__ndk1::vector<unsigned char, std::__ndk1::allocator<unsigned char> >, void> > >::get_binary<unsigned int>(nlohmann::json_abi_v3_11_3::detail::input_format_t, unsigned int, nlohmann::json_abi_v3_11_3::byte_container_with_subtype<std::__ndk1::vector<unsigned char, std::__ndk1::allocator<unsigned char> > >&)
FUNC 90804 234 0 nlohmann::json_abi_v3_11_3::detail::binary_reader<nlohmann::json_abi_v3_11_3::basic_json<std::__ndk1::map, std::__ndk1::vector, std::__ndk1::basic_string<char, std::__ndk1::char_traits<char>, std::__ndk1::allocator<char> >, bool, long, unsigned long, double, std::__ndk1::allocator, nlohmann::json_abi_v3_11_3::adl_serializer, std::__ndk1::vector<unsigned char, std::__ndk1::allocator<unsigned char> >, void>, nlohmann::json_abi_v3_11_3::detail::iterator_input_adapter<std::__ndk1::__wrap_iter<unsigned char const*> >, nlohmann::json_abi_v3_11_3::detail::json_sax_dom_parser<nlohmann::json_abi_v3_11_3::basic_json<std::__ndk1::map, std::__ndk1::vector, std::__ndk1::basic_string<char, std::__ndk1::char_traits<char>, std::__ndk1::allocator<char> >, bool, long, unsigned long, double, std::__ndk1::allocator, nlohmann::json_abi_v3_11_3::adl_serializer, std::__ndk1::vector<unsigned char, std::__ndk1::allocator<unsigned char> >, void> > >::get_binary<unsigned char>(nlohmann::json_abi_v3_11_3::detail::input_format_t, unsigned char, nlohmann::json_abi_v3_11_3::byte_container_with_subtype<std::__ndk1::vector<unsigned char, std::__ndk1::allocator<unsigned char> > >&)
FUNC 90a38 234 0 nlohmann::json_abi_v3_11_3::detail::binary_reader<nlohmann::json_abi_v3_11_3::basic_json<std::__ndk1::map, std::__ndk1::vector, std::__ndk1::basic_string<char, std::__ndk1::char_traits<char>, std::__ndk1::allocator<char> >, bool, long, unsigned long, double, std::__ndk1::allocator, nlohmann::json_abi_v3_11_3::adl_serializer, std::__ndk1::vector<unsigned char, std::__ndk1::allocator<unsigned char> >, void>, nlohmann::json_abi_v3_11_3::detail::iterator_input_adapter<std::__ndk1::__wrap_iter<unsigned char const*> >, nlohmann::json_abi_v3_11_3::detail::json_sax_dom_parser<nlohmann::json_abi_v3_11_3::basic_json<std::__ndk1::map, std::__ndk1::vector, std::__ndk1::basic_string<char, std::__ndk1::char_traits<char>, std::__ndk1::allocator<char> >, bool, long, unsigned long, double, std::__ndk1::allocator, nlohmann::json_abi_v3_11_3::adl_serializer, std::__ndk1::vector<unsigned char, std::__ndk1::allocator<unsigned char> >, void> > >::get_binary<unsigned short>(nlohmann::json_abi_v3_11_3::detail::input_format_t, unsigned short, nlohmann::json_abi_v3_11_3::byte_container_with_subtype<std::__ndk1::vector<unsigned char, std::__ndk1::allocator<unsigned char> > >&)
FUNC 90c6c 234 0 nlohmann::json_abi_v3_11_3::detail::binary_reader<nlohmann::json_abi_v3_11_3::basic_json<std::__ndk1::map, std::__ndk1::vector, std::__ndk1::basic_string<char, std::__ndk1::char_traits<char>, std::__ndk1::allocator<char> >, bool, long, unsigned long, double, std::__ndk1::allocator, nlohmann::json_abi_v3_11_3::adl_serializer, std::__ndk1::vector<unsigned char, std::__ndk1::allocator<unsigned char> >, void>, nlohmann::json_abi_v3_11_3::detail::iterator_input_adapter<std::__ndk1::__wrap_iter<unsigned char const*> >, nlohmann::json_abi_v3_11_3::detail::json_sax_dom_parser<nlohmann::json_abi_v3_11_3::basic_json<std::__ndk1::map, std::__ndk1::vector, std::__ndk1::basic_string<char, std::__ndk1::char_traits<char>, std::__ndk1::allocator<char> >, bool, long, unsigned long, double, std::__ndk1::allocator, nlohmann::json_abi_v3_11_3::adl_serializer, std::__ndk1::vector<unsigned char, std::__ndk1::allocator<unsigned char> >, void> > >::get_binary<unsigned long>(nlohmann::json_abi_v3_11_3::detail::input_format_t, unsigned long, nlohmann::json_abi_v3_11_3::byte_container_with_subtype<std::__ndk1::vector<unsigned char, std::__ndk1::allocator<unsigned char> > >&)
FUNC 90ea0 360 0 std::__ndk1::vector<unsigned char, std::__ndk1::allocator<unsigned char> >::__insert_with_size[abi:ne180000]<std::__ndk1::__wrap_iter<unsigned char*>, unsigned char*>(std::__ndk1::vector<unsigned char, std::__ndk1::allocator<unsigned char> >::__insert_with_size[abi:ne180000]<unsigned char const*>, std::__ndk1::__wrap_iter<unsigned char*>, unsigned char*, long)
FUNC 91200 c0 0 nlohmann::json_abi_v3_11_3::detail::binary_reader<nlohmann::json_abi_v3_11_3::basic_json<std::__ndk1::map, std::__ndk1::vector, std::__ndk1::basic_string<char, std::__ndk1::char_traits<char>, std::__ndk1::allocator<char> >, bool, long, unsigned long, double, std::__ndk1::allocator, nlohmann::json_abi_v3_11_3::adl_serializer, std::__ndk1::vector<unsigned char, std::__ndk1::allocator<unsigned char> >, void>, nlohmann::json_abi_v3_11_3::detail::iterator_input_adapter<std::__ndk1::__wrap_iter<unsigned char const*> >, nlohmann::json_abi_v3_11_3::detail::json_sax_dom_parser<nlohmann::json_abi_v3_11_3::basic_json<std::__ndk1::map, std::__ndk1::vector, std::__ndk1::basic_string<char, std::__ndk1::char_traits<char>, std::__ndk1::allocator<char> >, bool, long, unsigned long, double, std::__ndk1::allocator, nlohmann::json_abi_v3_11_3::adl_serializer, std::__ndk1::vector<unsigned char, std::__ndk1::allocator<unsigned char> >, void> > >::get_string<unsigned int>(nlohmann::json_abi_v3_11_3::detail::input_format_t, unsigned int, std::__ndk1::basic_string<char, std::__ndk1::char_traits<char>, std::__ndk1::allocator<char> >&)
FUNC 912c0 b8 0 nlohmann::json_abi_v3_11_3::detail::binary_reader<nlohmann::json_abi_v3_11_3::basic_json<std::__ndk1::map, std::__ndk1::vector, std::__ndk1::basic_string<char, std::__ndk1::char_traits<char>, std::__ndk1::allocator<char> >, bool, long, unsigned long, double, std::__ndk1::allocator, nlohmann::json_abi_v3_11_3::adl_serializer, std::__ndk1::vector<unsigned char, std::__ndk1::allocator<unsigned char> >, void>, nlohmann::json_abi_v3_11_3::detail::iterator_input_adapter<std::__ndk1::__wrap_iter<unsigned char const*> >, nlohmann::json_abi_v3_11_3::detail::json_sax_dom_parser<nlohmann::json_abi_v3_11_3::basic_json<std::__ndk1::map, std::__ndk1::vector, std::__ndk1::basic_string<char, std::__ndk1::char_traits<char>, std::__ndk1::allocator<char> >, bool, long, unsigned long, double, std::__ndk1::allocator, nlohmann::json_abi_v3_11_3::adl_serializer, std::__ndk1::vector<unsigned char, std::__ndk1::allocator<unsigned char> >, void> > >::get_string<unsigned short>(nlohmann::json_abi_v3_11_3::detail::input_format_t, unsigned short, std::__ndk1::basic_string<char, std::__ndk1::char_traits<char>, std::__ndk1::allocator<char> >&)
FUNC 91378 194 0 nlohmann::json_abi_v3_11_3::detail::binary_reader<nlohmann::json_abi_v3_11_3::basic_json<std::__ndk1::map, std::__ndk1::vector, std::__ndk1::basic_string<char, std::__ndk1::char_traits<char>, std::__ndk1::allocator<char> >, bool, long, unsigned long, double, std::__ndk1::allocator, nlohmann::json_abi_v3_11_3::adl_serializer, std::__ndk1::vector<unsigned char, std::__ndk1::allocator<unsigned char> >, void>, nlohmann::json_abi_v3_11_3::detail::iterator_input_adapter<std::__ndk1::__wrap_iter<unsigned char const*> >, nlohmann::json_abi_v3_11_3::detail::json_sax_dom_parser<nlohmann::json_abi_v3_11_3::basic_json<std::__ndk1::map, std::__ndk1::vector, std::__ndk1::basic_string<char, std::__ndk1::char_traits<char>, std::__ndk1::allocator<char> >, bool, long, unsigned long, double, std::__ndk1::allocator, nlohmann::json_abi_v3_11_3::adl_serializer, std::__ndk1::vector<unsigned char, std::__ndk1::allocator<unsigned char> >, void> > >::get_msgpack_object(unsigned long)
FUNC 9150c 60 0 nlohmann::json_abi_v3_11_3::detail::binary_reader<nlohmann::json_abi_v3_11_3::basic_json<std::__ndk1::map, std::__ndk1::vector, std::__ndk1::basic_string<char, std::__ndk1::char_traits<char>, std::__ndk1::allocator<char> >, bool, long, unsigned long, double, std::__ndk1::allocator, nlohmann::json_abi_v3_11_3::adl_serializer, std::__ndk1::vector<unsigned char, std::__ndk1::allocator<unsigned char> >, void>, nlohmann::json_abi_v3_11_3::detail::iterator_input_adapter<std::__ndk1::__wrap_iter<unsigned char const*> >, nlohmann::json_abi_v3_11_3::detail::json_sax_dom_parser<nlohmann::json_abi_v3_11_3::basic_json<std::__ndk1::map, std::__ndk1::vector, std::__ndk1::basic_string<char, std::__ndk1::char_traits<char>, std::__ndk1::allocator<char> >, bool, long, unsigned long, double, std::__ndk1::allocator, nlohmann::json_abi_v3_11_3::adl_serializer, std::__ndk1::vector<unsigned char, std::__ndk1::allocator<unsigned char> >, void> > >::get_msgpack_array(unsigned long)
FUNC 9156c 564 0 nlohmann::json_abi_v3_11_3::detail::binary_reader<nlohmann::json_abi_v3_11_3::basic_json<std::__ndk1::map, std::__ndk1::vector, std::__ndk1::basic_string<char, std::__ndk1::char_traits<char>, std::__ndk1::allocator<char> >, bool, long, unsigned long, double, std::__ndk1::allocator, nlohmann::json_abi_v3_11_3::adl_serializer, std::__ndk1::vector<unsigned char, std::__ndk1::allocator<unsigned char> >, void>, nlohmann::json_abi_v3_11_3::detail::iterator_input_adapter<std::__ndk1::__wrap_iter<unsigned char const*> >, nlohmann::json_abi_v3_11_3::detail::json_sax_dom_parser<nlohmann::json_abi_v3_11_3::basic_json<std::__ndk1::map, std::__ndk1::vector, std::__ndk1::basic_string<char, std::__ndk1::char_traits<char>, std::__ndk1::allocator<char> >, bool, long, unsigned long, double, std::__ndk1::allocator, nlohmann::json_abi_v3_11_3::adl_serializer, std::__ndk1::vector<unsigned char, std::__ndk1::allocator<unsigned char> >, void> > >::get_msgpack_string(std::__ndk1::basic_string<char, std::__ndk1::char_traits<char>, std::__ndk1::allocator<char> >&)
FUNC 91ad0 558 0 nlohmann::json_abi_v3_11_3::detail::binary_reader<nlohmann::json_abi_v3_11_3::basic_json<std::__ndk1::map, std::__ndk1::vector, std::__ndk1::basic_string<char, std::__ndk1::char_traits<char>, std::__ndk1::allocator<char> >, bool, long, unsigned long, double, std::__ndk1::allocator, nlohmann::json_abi_v3_11_3::adl_serializer, std::__ndk1::vector<unsigned char, std::__ndk1::allocator<unsigned char> >, void>, nlohmann::json_abi_v3_11_3::detail::iterator_input_adapter<std::__ndk1::__wrap_iter<unsigned char const*> >, nlohmann::json_abi_v3_11_3::detail::json_sax_dom_parser<nlohmann::json_abi_v3_11_3::basic_json<std::__ndk1::map, std::__ndk1::vector, std::__ndk1::basic_string<char, std::__ndk1::char_traits<char>, std::__ndk1::allocator<char> >, bool, long, unsigned long, double, std::__ndk1::allocator, nlohmann::json_abi_v3_11_3::adl_serializer, std::__ndk1::vector<unsigned char, std::__ndk1::allocator<unsigned char> >, void> > >::get_msgpack_binary(nlohmann::json_abi_v3_11_3::byte_container_with_subtype<std::__ndk1::vector<unsigned char, std::__ndk1::allocator<unsigned char> > >&)
FUNC 92028 6c 0 nlohmann::json_abi_v3_11_3::detail::binary_reader<nlohmann::json_abi_v3_11_3::basic_json<std::__ndk1::map, std::__ndk1::vector, std::__ndk1::basic_string<char, std::__ndk1::char_traits<char>, std::__ndk1::allocator<char> >, bool, long, unsigned long, double, std::__ndk1::allocator, nlohmann::json_abi_v3_11_3::adl_serializer, std::__ndk1::vector<unsigned char, std::__ndk1::allocator<unsigned char> >, void>, nlohmann::json_abi_v3_11_3::detail::iterator_input_adapter<std::__ndk1::__wrap_iter<unsigned char const*> >, nlohmann::json_abi_v3_11_3::detail::json_sax_dom_parser<nlohmann::json_abi_v3_11_3::basic_json<std::__ndk1::map, std::__ndk1::vector, std::__ndk1::basic_string<char, std::__ndk1::char_traits<char>, std::__ndk1::allocator<char> >, bool, long, unsigned long, double, std::__ndk1::allocator, nlohmann::json_abi_v3_11_3::adl_serializer, std::__ndk1::vector<unsigned char, std::__ndk1::allocator<unsigned char> >, void> > >::get_number<signed char, false>(nlohmann::json_abi_v3_11_3::detail::input_format_t, signed char&)
FUNC 92094 100 0 nlohmann::json_abi_v3_11_3::detail::binary_reader<nlohmann::json_abi_v3_11_3::basic_json<std::__ndk1::map, std::__ndk1::vector, std::__ndk1::basic_string<char, std::__ndk1::char_traits<char>, std::__ndk1::allocator<char> >, bool, long, unsigned long, double, std::__ndk1::allocator, nlohmann::json_abi_v3_11_3::adl_serializer, std::__ndk1::vector<unsigned char, std::__ndk1::allocator<unsigned char> >, void>, nlohmann::json_abi_v3_11_3::detail::iterator_input_adapter<std::__ndk1::__wrap_iter<unsigned char const*> >, nlohmann::json_abi_v3_11_3::detail::json_sax_dom_parser<nlohmann::json_abi_v3_11_3::basic_json<std::__ndk1::map, std::__ndk1::vector, std::__ndk1::basic_string<char, std::__ndk1::char_traits<char>, std::__ndk1::allocator<char> >, bool, long, unsigned long, double, std::__ndk1::allocator, nlohmann::json_abi_v3_11_3::adl_serializer, std::__ndk1::vector<unsigned char, std::__ndk1::allocator<unsigned char> >, void> > >::get_number<short, false>(nlohmann::json_abi_v3_11_3::detail::input_format_t, short&)
FUNC 92194 1fc 0 nlohmann::json_abi_v3_11_3::detail::binary_reader<nlohmann::json_abi_v3_11_3::basic_json<std::__ndk1::map, std::__ndk1::vector, std::__ndk1::basic_string<char, std::__ndk1::char_traits<char>, std::__ndk1::allocator<char> >, bool, long, unsigned long, double, std::__ndk1::allocator, nlohmann::json_abi_v3_11_3::adl_serializer, std::__ndk1::vector<unsigned char, std::__ndk1::allocator<unsigned char> >, void>, nlohmann::json_abi_v3_11_3::detail::iterator_input_adapter<std::__ndk1::__wrap_iter<unsigned char const*> >, nlohmann::json_abi_v3_11_3::detail::json_sax_dom_parser<nlohmann::json_abi_v3_11_3::basic_json<std::__ndk1::map, std::__ndk1::vector, std::__ndk1::basic_string<char, std::__ndk1::char_traits<char>, std::__ndk1::allocator<char> >, bool, long, unsigned long, double, std::__ndk1::allocator, nlohmann::json_abi_v3_11_3::adl_serializer, std::__ndk1::vector<unsigned char, std::__ndk1::allocator<unsigned char> >, void> > >::get_number<int, false>(nlohmann::json_abi_v3_11_3::detail::input_format_t, int&)
FUNC 92390 10c 0 nlohmann::json_abi_v3_11_3::detail::binary_reader<nlohmann::json_abi_v3_11_3::basic_json<std::__ndk1::map, std::__ndk1::vector, std::__ndk1::basic_string<char, std::__ndk1::char_traits<char>, std::__ndk1::allocator<char> >, bool, long, unsigned long, double, std::__ndk1::allocator, nlohmann::json_abi_v3_11_3::adl_serializer, std::__ndk1::vector<unsigned char, std::__ndk1::allocator<unsigned char> >, void>, nlohmann::json_abi_v3_11_3::detail::iterator_input_adapter<std::__ndk1::__wrap_iter<unsigned char const*> >, nlohmann::json_abi_v3_11_3::detail::json_sax_dom_parser<nlohmann::json_abi_v3_11_3::basic_json<std::__ndk1::map, std::__ndk1::vector, std::__ndk1::basic_string<char, std::__ndk1::char_traits<char>, std::__ndk1::allocator<char> >, bool, long, unsigned long, double, std::__ndk1::allocator, nlohmann::json_abi_v3_11_3::adl_serializer, std::__ndk1::vector<unsigned char, std::__ndk1::allocator<unsigned char> >, void> > >::get_number<long, false>(nlohmann::json_abi_v3_11_3::detail::input_format_t, long&)
FUNC 9249c be4 0 nlohmann::json_abi_v3_11_3::detail::binary_reader<nlohmann::json_abi_v3_11_3::basic_json<std::__ndk1::map, std::__ndk1::vector, std::__ndk1::basic_string<char, std::__ndk1::char_traits<char>, std::__ndk1::allocator<char> >, bool, long, unsigned long, double, std::__ndk1::allocator, nlohmann::json_abi_v3_11_3::adl_serializer, std::__ndk1::vector<unsigned char, std::__ndk1::allocator<unsigned char> >, void>, nlohmann::json_abi_v3_11_3::detail::iterator_input_adapter<std::__ndk1::__wrap_iter<unsigned char const*> >, nlohmann::json_abi_v3_11_3::detail::json_sax_dom_parser<nlohmann::json_abi_v3_11_3::basic_json<std::__ndk1::map, std::__ndk1::vector, std::__ndk1::basic_string<char, std::__ndk1::char_traits<char>, std::__ndk1::allocator<char> >, bool, long, unsigned long, double, std::__ndk1::allocator, nlohmann::json_abi_v3_11_3::adl_serializer, std::__ndk1::vector<unsigned char, std::__ndk1::allocator<unsigned char> >, void> > >::get_ubjson_value(unsigned long)
FUNC 93080 844 0 nlohmann::json_abi_v3_11_3::detail::binary_reader<nlohmann::json_abi_v3_11_3::basic_json<std::__ndk1::map, std::__ndk1::vector, std::__ndk1::basic_string<char, std::__ndk1::char_traits<char>, std::__ndk1::allocator<char> >, bool, long, unsigned long, double, std::__ndk1::allocator, nlohmann::json_abi_v3_11_3::adl_serializer, std::__ndk1::vector<unsigned char, std::__ndk1::allocator<unsigned char> >, void>, nlohmann::json_abi_v3_11_3::detail::iterator_input_adapter<std::__ndk1::__wrap_iter<unsigned char const*> >, nlohmann::json_abi_v3_11_3::detail::json_sax_dom_parser<nlohmann::json_abi_v3_11_3::basic_json<std::__ndk1::map, std::__ndk1::vector, std::__ndk1::basic_string<char, std::__ndk1::char_traits<char>, std::__ndk1::allocator<char> >, bool, long, unsigned long, double, std::__ndk1::allocator, nlohmann::json_abi_v3_11_3::adl_serializer, std::__ndk1::vector<unsigned char, std::__ndk1::allocator<unsigned char> >, void> > >::get_ubjson_high_precision_number()
FUNC 938c4 b0 0 nlohmann::json_abi_v3_11_3::detail::concat<std::__ndk1::basic_string<char, std::__ndk1::char_traits<char>, std::__ndk1::allocator<char> >, char const (&) [58], std::__ndk1::basic_string<char, std::__ndk1::char_traits<char>, std::__ndk1::allocator<char> >&>(char const (&) [58], std::__ndk1::basic_string<char, std::__ndk1::char_traits<char>, std::__ndk1::allocator<char> >&)
FUNC 93974 bc8 0 nlohmann::json_abi_v3_11_3::detail::binary_reader<nlohmann::json_abi_v3_11_3::basic_json<std::__ndk1::map, std::__ndk1::vector, std::__ndk1::basic_string<char, std::__ndk1::char_traits<char>, std::__ndk1::allocator<char> >, bool, long, unsigned long, double, std::__ndk1::allocator, nlohmann::json_abi_v3_11_3::adl_serializer, std::__ndk1::vector<unsigned char, std::__ndk1::allocator<unsigned char> >, void>, nlohmann::json_abi_v3_11_3::detail::iterator_input_adapter<std::__ndk1::__wrap_iter<unsigned char const*> >, nlohmann::json_abi_v3_11_3::detail::json_sax_dom_parser<nlohmann::json_abi_v3_11_3::basic_json<std::__ndk1::map, std::__ndk1::vector, std::__ndk1::basic_string<char, std::__ndk1::char_traits<char>, std::__ndk1::allocator<char> >, bool, long, unsigned long, double, std::__ndk1::allocator, nlohmann::json_abi_v3_11_3::adl_serializer, std::__ndk1::vector<unsigned char, std::__ndk1::allocator<unsigned char> >, void> > >::get_ubjson_string(std::__ndk1::basic_string<char, std::__ndk1::char_traits<char>, std::__ndk1::allocator<char> >&, bool)
FUNC 9453c 5c4 0 nlohmann::json_abi_v3_11_3::detail::binary_reader<nlohmann::json_abi_v3_11_3::basic_json<std::__ndk1::map, std::__ndk1::vector, std::__ndk1::basic_string<char, std::__ndk1::char_traits<char>, std::__ndk1::allocator<char> >, bool, long, unsigned long, double, std::__ndk1::allocator, nlohmann::json_abi_v3_11_3::adl_serializer, std::__ndk1::vector<unsigned char, std::__ndk1::allocator<unsigned char> >, void>, nlohmann::json_abi_v3_11_3::detail::iterator_input_adapter<std::__ndk1::__wrap_iter<unsigned char const*> >, nlohmann::json_abi_v3_11_3::detail::json_sax_dom_parser<nlohmann::json_abi_v3_11_3::basic_json<std::__ndk1::map, std::__ndk1::vector, std::__ndk1::basic_string<char, std::__ndk1::char_traits<char>, std::__ndk1::allocator<char> >, bool, long, unsigned long, double, std::__ndk1::allocator, nlohmann::json_abi_v3_11_3::adl_serializer, std::__ndk1::vector<unsigned char, std::__ndk1::allocator<unsigned char> >, void> > >::get_ubjson_array()
FUNC 94b00 68c 0 nlohmann::json_abi_v3_11_3::detail::binary_reader<nlohmann::json_abi_v3_11_3::basic_json<std::__ndk1::map, std::__ndk1::vector, std::__ndk1::basic_string<char, std::__ndk1::char_traits<char>, std::__ndk1::allocator<char> >, bool, long, unsigned long, double, std::__ndk1::allocator, nlohmann::json_abi_v3_11_3::adl_serializer, std::__ndk1::vector<unsigned char, std::__ndk1::allocator<unsigned char> >, void>, nlohmann::json_abi_v3_11_3::detail::iterator_input_adapter<std::__ndk1::__wrap_iter<unsigned char const*> >, nlohmann::json_abi_v3_11_3::detail::json_sax_dom_parser<nlohmann::json_abi_v3_11_3::basic_json<std::__ndk1::map, std::__ndk1::vector, std::__ndk1::basic_string<char, std::__ndk1::char_traits<char>, std::__ndk1::allocator<char> >, bool, long, unsigned long, double, std::__ndk1::allocator, nlohmann::json_abi_v3_11_3::adl_serializer, std::__ndk1::vector<unsigned char, std::__ndk1::allocator<unsigned char> >, void> > >::get_ubjson_object()
FUNC 9518c 15dc 0 nlohmann::json_abi_v3_11_3::detail::binary_reader<nlohmann::json_abi_v3_11_3::basic_json<std::__ndk1::map, std::__ndk1::vector, std::__ndk1::basic_string<char, std::__ndk1::char_traits<char>, std::__ndk1::allocator<char> >, bool, long, unsigned long, double, std::__ndk1::allocator, nlohmann::json_abi_v3_11_3::adl_serializer, std::__ndk1::vector<unsigned char, std::__ndk1::allocator<unsigned char> >, void>, nlohmann::json_abi_v3_11_3::detail::iterator_input_adapter<std::__ndk1::__wrap_iter<unsigned char const*> >, nlohmann::json_abi_v3_11_3::detail::json_sax_dom_parser<nlohmann::json_abi_v3_11_3::basic_json<std::__ndk1::map, std::__ndk1::vector, std::__ndk1::basic_string<char, std::__ndk1::char_traits<char>, std::__ndk1::allocator<char> >, bool, long, unsigned long, double, std::__ndk1::allocator, nlohmann::json_abi_v3_11_3::adl_serializer, std::__ndk1::vector<unsigned char, std::__ndk1::allocator<unsigned char> >, void> > >::get_ubjson_size_value(unsigned long&, bool&, unsigned long)
FUNC 96768 2ac 0 nlohmann::json_abi_v3_11_3::detail::lexer<nlohmann::json_abi_v3_11_3::basic_json<std::__ndk1::map, std::__ndk1::vector, std::__ndk1::basic_string<char, std::__ndk1::char_traits<char>, std::__ndk1::allocator<char> >, bool, long, unsigned long, double, std::__ndk1::allocator, nlohmann::json_abi_v3_11_3::adl_serializer, std::__ndk1::vector<unsigned char, std::__ndk1::allocator<unsigned char> >, void>, nlohmann::json_abi_v3_11_3::detail::iterator_input_adapter<std::__ndk1::__wrap_iter<char const*> > >::scan()
FUNC 96a14 100 0 nlohmann::json_abi_v3_11_3::detail::lexer<nlohmann::json_abi_v3_11_3::basic_json<std::__ndk1::map, std::__ndk1::vector, std::__ndk1::basic_string<char, std::__ndk1::char_traits<char>, std::__ndk1::allocator<char> >, bool, long, unsigned long, double, std::__ndk1::allocator, nlohmann::json_abi_v3_11_3::adl_serializer, std::__ndk1::vector<unsigned char, std::__ndk1::allocator<unsigned char> >, void>, nlohmann::json_abi_v3_11_3::detail::iterator_input_adapter<std::__ndk1::__wrap_iter<char const*> > >::get_token_string() const
FUNC 96b14 b0 0 nlohmann::json_abi_v3_11_3::detail::concat<std::__ndk1::basic_string<char, std::__ndk1::char_traits<char>, std::__ndk1::allocator<char> >, char const (&) [22], std::__ndk1::basic_string<char, std::__ndk1::char_traits<char>, std::__ndk1::allocator<char> > >(char const (&) [22], std::__ndk1::basic_string<char, std::__ndk1::char_traits<char>, std::__ndk1::allocator<char> >)
FUNC 96bc4 44 0 nlohmann::json_abi_v3_11_3::detail::lexer<nlohmann::json_abi_v3_11_3::basic_json<std::__ndk1::map, std::__ndk1::vector, std::__ndk1::basic_string<char, std::__ndk1::char_traits<char>, std::__ndk1::allocator<char> >, bool, long, unsigned long, double, std::__ndk1::allocator, nlohmann::json_abi_v3_11_3::adl_serializer, std::__ndk1::vector<unsigned char, std::__ndk1::allocator<unsigned char> >, void>, nlohmann::json_abi_v3_11_3::detail::iterator_input_adapter<std::__ndk1::__wrap_iter<char const*> > >::~lexer()
FUNC 96c08 54 0 nlohmann::json_abi_v3_11_3::detail::json_sax_dom_parser<nlohmann::json_abi_v3_11_3::basic_json<std::__ndk1::map, std::__ndk1::vector, std::__ndk1::basic_string<char, std::__ndk1::char_traits<char>, std::__ndk1::allocator<char> >, bool, long, unsigned long, double, std::__ndk1::allocator, nlohmann::json_abi_v3_11_3::adl_serializer, std::__ndk1::vector<unsigned char, std::__ndk1::allocator<unsigned char> >, void> >::parse_error<nlohmann::json_abi_v3_11_3::detail::out_of_range>(unsigned long, std::__ndk1::basic_string<char, std::__ndk1::char_traits<char>, std::__ndk1::allocator<char> > const&, nlohmann::json_abi_v3_11_3::detail::out_of_range const&)
FUNC 96c5c 1ec 0 _ZN8nlohmann16json_abi_v3_11_36detail12out_of_range6createIDnTnNSt6__ndk19enable_ifIXsr21is_basic_json_contextIT_EE5valueEiE4typeELi0EEES2_iRKNS4_12basic_stringIcNS4_11char_traitsIcEENS4_9allocatorIcEEEES6_
FUNC 96e48 54c 0 nlohmann::json_abi_v3_11_3::detail::binary_reader<nlohmann::json_abi_v3_11_3::basic_json<std::__ndk1::map, std::__ndk1::vector, std::__ndk1::basic_string<char, std::__ndk1::char_traits<char>, std::__ndk1::allocator<char> >, bool, long, unsigned long, double, std::__ndk1::allocator, nlohmann::json_abi_v3_11_3::adl_serializer, std::__ndk1::vector<unsigned char, std::__ndk1::allocator<unsigned char> >, void>, nlohmann::json_abi_v3_11_3::detail::iterator_input_adapter<std::__ndk1::__wrap_iter<unsigned char const*> >, nlohmann::json_abi_v3_11_3::detail::json_sax_dom_parser<nlohmann::json_abi_v3_11_3::basic_json<std::__ndk1::map, std::__ndk1::vector, std::__ndk1::basic_string<char, std::__ndk1::char_traits<char>, std::__ndk1::allocator<char> >, bool, long, unsigned long, double, std::__ndk1::allocator, nlohmann::json_abi_v3_11_3::adl_serializer, std::__ndk1::vector<unsigned char, std::__ndk1::allocator<unsigned char> >, void> > >::get_ubjson_ndarray_size(std::__ndk1::vector&<unsigned long, std::__ndk1::allocator<unsigned long> >)
FUNC 97394 48 0 nlohmann::json_abi_v3_11_3::detail::out_of_range::out_of_range(nlohmann::json_abi_v3_11_3::detail::out_of_range const&)
FUNC 973dc 85c 0 nlohmann::json_abi_v3_11_3::detail::binary_reader<nlohmann::json_abi_v3_11_3::basic_json<std::__ndk1::map, std::__ndk1::vector, std::__ndk1::basic_string<char, std::__ndk1::char_traits<char>, std::__ndk1::allocator<char> >, bool, long, unsigned long, double, std::__ndk1::allocator, nlohmann::json_abi_v3_11_3::adl_serializer, std::__ndk1::vector<unsigned char, std::__ndk1::allocator<unsigned char> >, void>, nlohmann::json_abi_v3_11_3::detail::iterator_input_adapter<std::__ndk1::__wrap_iter<unsigned char const*> >, nlohmann::json_abi_v3_11_3::detail::json_sax_dom_parser<nlohmann::json_abi_v3_11_3::basic_json<std::__ndk1::map, std::__ndk1::vector, std::__ndk1::basic_string<char, std::__ndk1::char_traits<char>, std::__ndk1::allocator<char> >, bool, long, unsigned long, double, std::__ndk1::allocator, nlohmann::json_abi_v3_11_3::adl_serializer, std::__ndk1::vector<unsigned char, std::__ndk1::allocator<unsigned char> >, void> > >::get_ubjson_size_type(std::__ndk1::pair<unsigned long, unsigned long>&, bool)
FUNC 97c38 f0 0 nlohmann::json_abi_v3_11_3::detail::concat<std::__ndk1::basic_string<char, std::__ndk1::char_traits<char>, std::__ndk1::allocator<char> >, char const (&) [10], std::__ndk1::basic_string<char, std::__ndk1::char_traits<char>, std::__ndk1::allocator<char> >&, char const (&) [41]>(char const (&) [10], std::__ndk1::basic_string<char, std::__ndk1::char_traits<char>, std::__ndk1::allocator<char> >&, char const (&) [41])
FUNC 97d28 b0 0 nlohmann::json_abi_v3_11_3::detail::concat<std::__ndk1::basic_string<char, std::__ndk1::char_traits<char>, std::__ndk1::allocator<char> >, char const (&) [51], std::__ndk1::basic_string<char, std::__ndk1::char_traits<char>, std::__ndk1::allocator<char> >&>(char const (&) [51], std::__ndk1::basic_string<char, std::__ndk1::char_traits<char>, std::__ndk1::allocator<char> >&)
FUNC 97dd8 14 0 std::__ndk1::vector<unsigned long, std::__ndk1::allocator<unsigned long> >::__throw_length_error[abi:ne180000]() const
FUNC 97dec 14 0 std::__ndk1::vector<unsigned long, std::__ndk1::allocator<unsigned long> >::__throw_out_of_range[abi:ne180000]() const
FUNC 97e00 14 0 std::__ndk1::vector<char, std::__ndk1::allocator<char> >::__throw_length_error[abi:ne180000]() const
FUNC 97e14 100 0 nlohmann::json_abi_v3_11_3::detail::lexer<nlohmann::json_abi_v3_11_3::basic_json<std::__ndk1::map, std::__ndk1::vector, std::__ndk1::basic_string<char, std::__ndk1::char_traits<char>, std::__ndk1::allocator<char> >, bool, long, unsigned long, double, std::__ndk1::allocator, nlohmann::json_abi_v3_11_3::adl_serializer, std::__ndk1::vector<unsigned char, std::__ndk1::allocator<unsigned char> >, void>, nlohmann::json_abi_v3_11_3::detail::iterator_input_adapter<std::__ndk1::__wrap_iter<char const*> > >::scan_comment()
FUNC 97f14 57c 0 nlohmann::json_abi_v3_11_3::detail::lexer<nlohmann::json_abi_v3_11_3::basic_json<std::__ndk1::map, std::__ndk1::vector, std::__ndk1::basic_string<char, std::__ndk1::char_traits<char>, std::__ndk1::allocator<char> >, bool, long, unsigned long, double, std::__ndk1::allocator, nlohmann::json_abi_v3_11_3::adl_serializer, std::__ndk1::vector<unsigned char, std::__ndk1::allocator<unsigned char> >, void>, nlohmann::json_abi_v3_11_3::detail::iterator_input_adapter<std::__ndk1::__wrap_iter<char const*> > >::scan_string()
FUNC 98490 394 0 nlohmann::json_abi_v3_11_3::detail::lexer<nlohmann::json_abi_v3_11_3::basic_json<std::__ndk1::map, std::__ndk1::vector, std::__ndk1::basic_string<char, std::__ndk1::char_traits<char>, std::__ndk1::allocator<char> >, bool, long, unsigned long, double, std::__ndk1::allocator, nlohmann::json_abi_v3_11_3::adl_serializer, std::__ndk1::vector<unsigned char, std::__ndk1::allocator<unsigned char> >, void>, nlohmann::json_abi_v3_11_3::detail::iterator_input_adapter<std::__ndk1::__wrap_iter<char const*> > >::scan_number()
FUNC 98824 200 0 nlohmann::json_abi_v3_11_3::detail::lexer<nlohmann::json_abi_v3_11_3::basic_json<std::__ndk1::map, std::__ndk1::vector, std::__ndk1::basic_string<char, std::__ndk1::char_traits<char>, std::__ndk1::allocator<char> >, bool, long, unsigned long, double, std::__ndk1::allocator, nlohmann::json_abi_v3_11_3::adl_serializer, std::__ndk1::vector<unsigned char, std::__ndk1::allocator<unsigned char> >, void>, nlohmann::json_abi_v3_11_3::detail::iterator_input_adapter<std::__ndk1::__wrap_iter<char const*> > >::get()
FUNC 98a24 128 0 nlohmann::json_abi_v3_11_3::detail::lexer<nlohmann::json_abi_v3_11_3::basic_json<std::__ndk1::map, std::__ndk1::vector, std::__ndk1::basic_string<char, std::__ndk1::char_traits<char>, std::__ndk1::allocator<char> >, bool, long, unsigned long, double, std::__ndk1::allocator, nlohmann::json_abi_v3_11_3::adl_serializer, std::__ndk1::vector<unsigned char, std::__ndk1::allocator<unsigned char> >, void>, nlohmann::json_abi_v3_11_3::detail::iterator_input_adapter<std::__ndk1::__wrap_iter<char const*> > >::get_codepoint()
FUNC 98b4c 128 0 std::__ndk1::basic_string<char, std::__ndk1::char_traits<char>, std::__ndk1::allocator<char> >::__assign_external(char const*, unsigned long)
FUNC 98c74 54 0 nlohmann::json_abi_v3_11_3::detail::parse_error::parse_error(nlohmann::json_abi_v3_11_3::detail::parse_error const&)
FUNC 98cc8 38 0 nlohmann::json_abi_v3_11_3::detail::parse_error::~parse_error()
FUNC 98d00 1bc 0 nlohmann::json_abi_v3_11_3::detail::concat<std::__ndk1::basic_string<char, std::__ndk1::char_traits<char>, std::__ndk1::allocator<char> >, std::__ndk1::basic_string<char, std::__ndk1::char_traits<char>, std::__ndk1::allocator<char> >, char const (&) [12], std::__ndk1::basic_string<char, std::__ndk1::char_traits<char>, std::__ndk1::allocator<char> >, char const (&) [3], std::__ndk1::basic_string<char, std::__ndk1::char_traits<char>, std::__ndk1::allocator<char> >, std::__ndk1::basic_string<char, std::__ndk1::char_traits<char>, std::__ndk1::allocator<char> > const&>(std::__ndk1::basic_string<char, std::__ndk1::char_traits<char>, std::__ndk1::allocator<char> >&&, char const (&) [12], std::__ndk1::basic_string<char, std::__ndk1::char_traits<char>, std::__ndk1::allocator<char> >, char const (&) [3], std::__ndk1::basic_string<char, std::__ndk1::char_traits<char>, std::__ndk1::allocator<char> >, std::__ndk1::basic_string<char, std::__ndk1::char_traits<char>, std::__ndk1::allocator<char> > const&)
FUNC 98ebc 158 0 nlohmann::json_abi_v3_11_3::detail::concat<std::__ndk1::basic_string<char, std::__ndk1::char_traits<char>, std::__ndk1::allocator<char> >, std::__ndk1::basic_string<char, std::__ndk1::char_traits<char>, std::__ndk1::allocator<char> >&, char, std::__ndk1::basic_string<char, std::__ndk1::char_traits<char>, std::__ndk1::allocator<char> > const&, char const (&) [3], std::__ndk1::basic_string<char, std::__ndk1::char_traits<char>, std::__ndk1::allocator<char> > const&>(std::__ndk1::basic_string<char, std::__ndk1::char_traits<char>, std::__ndk1::allocator<char> >&, char, std::__ndk1::basic_string<char, std::__ndk1::char_traits<char>, std::__ndk1::allocator<char> > const&, char const (&) [3], std::__ndk1::basic_string<char, std::__ndk1::char_traits<char>, std::__ndk1::allocator<char> > const&)
FUNC 99014 124 0 std::__ndk1::array<std::__ndk1::pair<unsigned long, std::__ndk1::basic_string<char, std::__ndk1::char_traits<char>, std::__ndk1::allocator<char> > >, (unsigned long)11>::~array()
FUNC 99138 29c 0 std::__ndk1::__tree<std::__ndk1::__value_type<std::__ndk1::basic_string<char, std::__ndk1::char_traits<char>, std::__ndk1::allocator<char> >, nlohmann::json_abi_v3_11_3::basic_json<std::__ndk1::map, std::__ndk1::vector, std::__ndk1::basic_string<char, std::__ndk1::char_traits<char>, std::__ndk1::allocator<char> >, bool, long, unsigned long, double, std::__ndk1::allocator, nlohmann::json_abi_v3_11_3::adl_serializer, std::__ndk1::vector<unsigned char, std::__ndk1::allocator<unsigned char> >, void> >, std::__ndk1::__map_value_compare<std::__ndk1::basic_string<char, std::__ndk1::char_traits<char>, std::__ndk1::allocator<char> >, std::__ndk1::__value_type<std::__ndk1::basic_string<char, std::__ndk1::char_traits<char>, std::__ndk1::allocator<char> >, nlohmann::json_abi_v3_11_3::basic_json<std::__ndk1::map, std::__ndk1::vector, std::__ndk1::basic_string<char, std::__ndk1::char_traits<char>, std::__ndk1::allocator<char> >, bool, long, unsigned long, double, std::__ndk1::allocator, nlohmann::json_abi_v3_11_3::adl_serializer, std::__ndk1::vector<unsigned char, std::__ndk1::allocator<unsigned char> >, void> >, std::__ndk1::less<void>, true>, std::__ndk1::allocator<std::__ndk1::__value_type<std::__ndk1::basic_string<char, std::__ndk1::char_traits<char>, std::__ndk1::allocator<char> >, nlohmann::json_abi_v3_11_3::basic_json<std::__ndk1::map, std::__ndk1::vector, std::__ndk1::basic_string<char, std::__ndk1::char_traits<char>, std::__ndk1::allocator<char> >, bool, long, unsigned long, double, std::__ndk1::allocator, nlohmann::json_abi_v3_11_3::adl_serializer, std::__ndk1::vector<unsigned char, std::__ndk1::allocator<unsigned char> >, void> > > >::__find_equal<std::__ndk1::basic_string<char, std::__ndk1::char_traits<char>, std::__ndk1::allocator<char> > >(std::__ndk1::__tree_const_iterator<std::__ndk1::__value_type<std::__ndk1::basic_string<char, std::__ndk1::char_traits<char>, std::__ndk1::allocator<char> >, nlohmann::json_abi_v3_11_3::basic_json<std::__ndk1::map, std::__ndk1::vector, std::__ndk1::basic_string<char, std::__ndk1::char_traits<char>, std::__ndk1::allocator<char> >, bool, long, unsigned long, double, std::__ndk1::allocator, nlohmann::json_abi_v3_11_3::adl_serializer, std::__ndk1::vector<unsigned char, std::__ndk1::allocator<unsigned char> >, void> >, std::__ndk1::__tree_node<std::__ndk1::__value_type<std::__ndk1::basic_string<char, std::__ndk1::char_traits<char>, std::__ndk1::allocator<char> >, nlohmann::json_abi_v3_11_3::basic_json<std::__ndk1::map, std::__ndk1::vector, std::__ndk1::basic_string<char, std::__ndk1::char_traits<char>, std::__ndk1::allocator<char> >, bool, long, unsigned long, double, std::__ndk1::allocator, nlohmann::json_abi_v3_11_3::adl_serializer, std::__ndk1::vector<unsigned char, std::__ndk1::allocator<unsigned char> >, void> >, void*>*, long>, std::__ndk1::__tree_end_node<std::__ndk1::__tree_node_base<void*>*>*&, std::__ndk1::__tree_node_base<void*>*&, std::__ndk1::basic_string<char, std::__ndk1::char_traits<char>, std::__ndk1::allocator<char> > const&)
FUNC 993d4 a8 0 std::__ndk1::__tree<std::__ndk1::__value_type<std::__ndk1::basic_string<char, std::__ndk1::char_traits<char>, std::__ndk1::allocator<char> >, nlohmann::json_abi_v3_11_3::basic_json<std::__ndk1::map, std::__ndk1::vector, std::__ndk1::basic_string<char, std::__ndk1::char_traits<char>, std::__ndk1::allocator<char> >, bool, long, unsigned long, double, std::__ndk1::allocator, nlohmann::json_abi_v3_11_3::adl_serializer, std::__ndk1::vector<unsigned char, std::__ndk1::allocator<unsigned char> >, void> >, std::__ndk1::__map_value_compare<std::__ndk1::basic_string<char, std::__ndk1::char_traits<char>, std::__ndk1::allocator<char> >, std::__ndk1::__value_type<std::__ndk1::basic_string<char, std::__ndk1::char_traits<char>, std::__ndk1::allocator<char> >, nlohmann::json_abi_v3_11_3::basic_json<std::__ndk1::map, std::__ndk1::vector, std::__ndk1::basic_string<char, std::__ndk1::char_traits<char>, std::__ndk1::allocator<char> >, bool, long, unsigned long, double, std::__ndk1::allocator, nlohmann::json_abi_v3_11_3::adl_serializer, std::__ndk1::vector<unsigned char, std::__ndk1::allocator<unsigned char> >, void> >, std::__ndk1::less<void>, true>, std::__ndk1::allocator<std::__ndk1::__value_type<std::__ndk1::basic_string<char, std::__ndk1::char_traits<char>, std::__ndk1::allocator<char> >, nlohmann::json_abi_v3_11_3::basic_json<std::__ndk1::map, std::__ndk1::vector, std::__ndk1::basic_string<char, std::__ndk1::char_traits<char>, std::__ndk1::allocator<char> >, bool, long, unsigned long, double, std::__ndk1::allocator, nlohmann::json_abi_v3_11_3::adl_serializer, std::__ndk1::vector<unsigned char, std::__ndk1::allocator<unsigned char> >, void> > > >::__construct_node<std::__ndk1::pair<std::__ndk1::basic_string<char, std::__ndk1::char_traits<char>, std::__ndk1::allocator<char> > const, nlohmann::json_abi_v3_11_3::basic_json<std::__ndk1::map, std::__ndk1::vector, std::__ndk1::basic_string<char, std::__ndk1::char_traits<char>, std::__ndk1::allocator<char> >, bool, long, unsigned long, double, std::__ndk1::allocator, nlohmann::json_abi_v3_11_3::adl_serializer, std::__ndk1::vector<unsigned char, std::__ndk1::allocator<unsigned char> >, void> > const&>(std::__ndk1::pair<std::__ndk1::basic_string<char, std::__ndk1::char_traits<char>, std::__ndk1::allocator<char> > const, nlohmann::json_abi_v3_11_3::basic_json<std::__ndk1::map, std::__ndk1::vector, std::__ndk1::basic_string<char, std::__ndk1::char_traits<char>, std::__ndk1::allocator<char> >, bool, long, unsigned long, double, std::__ndk1::allocator, nlohmann::json_abi_v3_11_3::adl_serializer, std::__ndk1::vector<unsigned char, std::__ndk1::allocator<unsigned char> >, void> > const&)
FUNC 9947c 130 0 std::__ndk1::vector<nlohmann::json_abi_v3_11_3::basic_json<std::__ndk1::map, std::__ndk1::vector, std::__ndk1::basic_string<char, std::__ndk1::char_traits<char>, std::__ndk1::allocator<char> >, bool, long, unsigned long, double, std::__ndk1::allocator, nlohmann::json_abi_v3_11_3::adl_serializer, std::__ndk1::vector<unsigned char, std::__ndk1::allocator<unsigned char> >, void>, std::__ndk1::allocator<nlohmann::json_abi_v3_11_3::basic_json<std::__ndk1::map, std::__ndk1::vector, std::__ndk1::basic_string<char, std::__ndk1::char_traits<char>, std::__ndk1::allocator<char> >, bool, long, unsigned long, double, std::__ndk1::allocator, nlohmann::json_abi_v3_11_3::adl_serializer, std::__ndk1::vector<unsigned char, std::__ndk1::allocator<unsigned char> >, void> > >::__init_with_size[abi:ne180000]<nlohmann::json_abi_v3_11_3::basic_json<std::__ndk1::map, std::__ndk1::vector, std::__ndk1::basic_string<char, std::__ndk1::char_traits<char>, std::__ndk1::allocator<char> >, bool, long, unsigned long, double, std::__ndk1::allocator, nlohmann::json_abi_v3_11_3::adl_serializer, std::__ndk1::vector<unsigned char, std::__ndk1::allocator<unsigned char> >, void>*, std::__ndk1::vector<nlohmann::json_abi_v3_11_3::basic_json<std::__ndk1::map, std::__ndk1::vector, std::__ndk1::basic_string<char, std::__ndk1::char_traits<char>, std::__ndk1::allocator<char> >, bool, long, unsigned long, double, std::__ndk1::allocator, nlohmann::json_abi_v3_11_3::adl_serializer, std::__ndk1::vector<unsigned char, std::__ndk1::allocator<unsigned char> >, void>, std::__ndk1::allocator<nlohmann::json_abi_v3_11_3::basic_json<std::__ndk1::map, std::__ndk1::vector, std::__ndk1::basic_string<char, std::__ndk1::char_traits<char>, std::__ndk1::allocator<char> >, bool, long, unsigned long, double, std::__ndk1::allocator, nlohmann::json_abi_v3_11_3::adl_serializer, std::__ndk1::vector<unsigned char, std::__ndk1::allocator<unsigned char> >, void> > >::__init_with_size[abi:ne180000]>(nlohmann::json_abi_v3_11_3::basic_json<std::__ndk1::map, std::__ndk1::vector, std::__ndk1::basic_string<char, std::__ndk1::char_traits<char>, std::__ndk1::allocator<char> >, bool, long, unsigned long, double, std::__ndk1::allocator, nlohmann::json_abi_v3_11_3::adl_serializer, std::__ndk1::vector<unsigned char, std::__ndk1::allocator<unsigned char> >, void>*, std::__ndk1::vector<nlohmann::json_abi_v3_11_3::basic_json<std::__ndk1::map, std::__ndk1::vector, std::__ndk1::basic_string<char, std::__ndk1::char_traits<char>, std::__ndk1::allocator<char> >, bool, long, unsigned long, double, std::__ndk1::allocator, nlohmann::json_abi_v3_11_3::adl_serializer, std::__ndk1::vector<unsigned char, std::__ndk1::allocator<unsigned char> >, void>, std::__ndk1::allocator<nlohmann::json_abi_v3_11_3::basic_json<std::__ndk1::map, std::__ndk1::vector, std::__ndk1::basic_string<char, std::__ndk1::char_traits<char>, std::__ndk1::allocator<char> >, bool, long, unsigned long, double, std::__ndk1::allocator, nlohmann::json_abi_v3_11_3::adl_serializer, std::__ndk1::vector<unsigned char, std::__ndk1::allocator<unsigned char> >, void> > >::__init_with_size[abi:ne180000], unsigned long)
FUNC 995ac 74 0 std::__ndk1::__exception_guard_exceptions<std::__ndk1::vector<nlohmann::json_abi_v3_11_3::basic_json<std::__ndk1::map, std::__ndk1::vector, std::__ndk1::basic_string<char, std::__ndk1::char_traits<char>, std::__ndk1::allocator<char> >, bool, long, unsigned long, double, std::__ndk1::allocator, nlohmann::json_abi_v3_11_3::adl_serializer, std::__ndk1::vector<unsigned char, std::__ndk1::allocator<unsigned char> >, void>, std::__ndk1::allocator<nlohmann::json_abi_v3_11_3::basic_json<std::__ndk1::map, std::__ndk1::vector, std::__ndk1::basic_string<char, std::__ndk1::char_traits<char>, std::__ndk1::allocator<char> >, bool, long, unsigned long, double, std::__ndk1::allocator, nlohmann::json_abi_v3_11_3::adl_serializer, std::__ndk1::vector<unsigned char, std::__ndk1::allocator<unsigned char> >, void> > >::__destroy_vector>::~__exception_guard_exceptions[abi:ne180000]()
FUNC 99620 48 0 std::__ndk1::__exception_guard_exceptions<std::__ndk1::_AllocatorDestroyRangeReverse<std::__ndk1::allocator<nlohmann::json_abi_v3_11_3::basic_json<std::__ndk1::map, std::__ndk1::vector, std::__ndk1::basic_string<char, std::__ndk1::char_traits<char>, std::__ndk1::allocator<char> >, bool, long, unsigned long, double, std::__ndk1::allocator, nlohmann::json_abi_v3_11_3::adl_serializer, std::__ndk1::vector<unsigned char, std::__ndk1::allocator<unsigned char> >, void> >, nlohmann::json_abi_v3_11_3::basic_json<std::__ndk1::map, std::__ndk1::vector, std::__ndk1::basic_string<char, std::__ndk1::char_traits<char>, std::__ndk1::allocator<char> >, bool, long, unsigned long, double, std::__ndk1::allocator, nlohmann::json_abi_v3_11_3::adl_serializer, std::__ndk1::vector<unsigned char, std::__ndk1::allocator<unsigned char> >, void>*> >::~__exception_guard_exceptions[abi:ne180000]()
FUNC 99668 b8 0 nlohmann::json_abi_v3_11_3::basic_json<std::__ndk1::map, std::__ndk1::vector, std::__ndk1::basic_string<char, std::__ndk1::char_traits<char>, std::__ndk1::allocator<char> >, bool, long, unsigned long, double, std::__ndk1::allocator, nlohmann::json_abi_v3_11_3::adl_serializer, std::__ndk1::vector<unsigned char, std::__ndk1::allocator<unsigned char> >, void>::create<nlohmann::json_abi_v3_11_3::byte_container_with_subtype<std::__ndk1::vector<unsigned char, std::__ndk1::allocator<unsigned char> > >, nlohmann::json_abi_v3_11_3::byte_container_with_subtype<std::__ndk1::vector<unsigned char, std::__ndk1::allocator<unsigned char> > > const&>(nlohmann::json_abi_v3_11_3::byte_container_with_subtype<std::__ndk1::vector<unsigned char, std::__ndk1::allocator<unsigned char> > > const&)
FUNC 99720 144 0 nlohmann::json_abi_v3_11_3::basic_json<std::__ndk1::map, std::__ndk1::vector, std::__ndk1::basic_string<char, std::__ndk1::char_traits<char>, std::__ndk1::allocator<char> >, bool, long, unsigned long, double, std::__ndk1::allocator, nlohmann::json_abi_v3_11_3::adl_serializer, std::__ndk1::vector<unsigned char, std::__ndk1::allocator<unsigned char> >, void>::parser<nlohmann::json_abi_v3_11_3::detail::iterator_input_adapter<std::__ndk1::__wrap_iter<unsigned char const*> > >(nlohmann::json_abi_v3_11_3::detail::iterator_input_adapter<std::__ndk1::__wrap_iter<unsigned char const*> >, std::__ndk1::function<bool (int, nlohmann::json_abi_v3_11_3::detail::parse_event_t, nlohmann::json_abi_v3_11_3::basic_json<std::__ndk1::map, std::__ndk1::vector, std::__ndk1::basic_string<char, std::__ndk1::char_traits<char>, std::__ndk1::allocator<char> >, bool, long, unsigned long, double, std::__ndk1::allocator, nlohmann::json_abi_v3_11_3::adl_serializer, std::__ndk1::vector<unsigned char, std::__ndk1::allocator<unsigned char> >, void>&)>, bool, bool)
FUNC 99864 74 0 nlohmann::json_abi_v3_11_3::detail::parser<nlohmann::json_abi_v3_11_3::basic_json<std::__ndk1::map, std::__ndk1::vector, std::__ndk1::basic_string<char, std::__ndk1::char_traits<char>, std::__ndk1::allocator<char> >, bool, long, unsigned long, double, std::__ndk1::allocator, nlohmann::json_abi_v3_11_3::adl_serializer, std::__ndk1::vector<unsigned char, std::__ndk1::allocator<unsigned char> >, void>, nlohmann::json_abi_v3_11_3::detail::iterator_input_adapter<std::__ndk1::__wrap_iter<unsigned char const*> > >::~parser()
FUNC 998d8 130 0 nlohmann::json_abi_v3_11_3::detail::parser<nlohmann::json_abi_v3_11_3::basic_json<std::__ndk1::map, std::__ndk1::vector, std::__ndk1::basic_string<char, std::__ndk1::char_traits<char>, std::__ndk1::allocator<char> >, bool, long, unsigned long, double, std::__ndk1::allocator, nlohmann::json_abi_v3_11_3::adl_serializer, std::__ndk1::vector<unsigned char, std::__ndk1::allocator<unsigned char> >, void>, nlohmann::json_abi_v3_11_3::detail::iterator_input_adapter<std::__ndk1::__wrap_iter<unsigned char const*> > >::parser(nlohmann::json_abi_v3_11_3::detail::iterator_input_adapter<std::__ndk1::__wrap_iter<unsigned char const*> >&&, std::__ndk1::function<bool (int, nlohmann::json_abi_v3_11_3::detail::parse_event_t, nlohmann::json_abi_v3_11_3::basic_json<std::__ndk1::map, std::__ndk1::vector, std::__ndk1::basic_string<char, std::__ndk1::char_traits<char>, std::__ndk1::allocator<char> >, bool, long, unsigned long, double, std::__ndk1::allocator, nlohmann::json_abi_v3_11_3::adl_serializer, std::__ndk1::vector<unsigned char, std::__ndk1::allocator<unsigned char> >, void>&)>, bool, bool)
FUNC 99a08 44 0 nlohmann::json_abi_v3_11_3::detail::lexer<nlohmann::json_abi_v3_11_3::basic_json<std::__ndk1::map, std::__ndk1::vector, std::__ndk1::basic_string<char, std::__ndk1::char_traits<char>, std::__ndk1::allocator<char> >, bool, long, unsigned long, double, std::__ndk1::allocator, nlohmann::json_abi_v3_11_3::adl_serializer, std::__ndk1::vector<unsigned char, std::__ndk1::allocator<unsigned char> >, void>, nlohmann::json_abi_v3_11_3::detail::iterator_input_adapter<std::__ndk1::__wrap_iter<unsigned char const*> > >::~lexer()
FUNC 99a4c 2a8 0 nlohmann::json_abi_v3_11_3::detail::lexer<nlohmann::json_abi_v3_11_3::basic_json<std::__ndk1::map, std::__ndk1::vector, std::__ndk1::basic_string<char, std::__ndk1::char_traits<char>, std::__ndk1::allocator<char> >, bool, long, unsigned long, double, std::__ndk1::allocator, nlohmann::json_abi_v3_11_3::adl_serializer, std::__ndk1::vector<unsigned char, std::__ndk1::allocator<unsigned char> >, void>, nlohmann::json_abi_v3_11_3::detail::iterator_input_adapter<std::__ndk1::__wrap_iter<unsigned char const*> > >::scan()
FUNC 99cf4 100 0 nlohmann::json_abi_v3_11_3::detail::lexer<nlohmann::json_abi_v3_11_3::basic_json<std::__ndk1::map, std::__ndk1::vector, std::__ndk1::basic_string<char, std::__ndk1::char_traits<char>, std::__ndk1::allocator<char> >, bool, long, unsigned long, double, std::__ndk1::allocator, nlohmann::json_abi_v3_11_3::adl_serializer, std::__ndk1::vector<unsigned char, std::__ndk1::allocator<unsigned char> >, void>, nlohmann::json_abi_v3_11_3::detail::iterator_input_adapter<std::__ndk1::__wrap_iter<unsigned char const*> > >::scan_comment()
FUNC 99df4 5c4 0 nlohmann::json_abi_v3_11_3::detail::lexer<nlohmann::json_abi_v3_11_3::basic_json<std::__ndk1::map, std::__ndk1::vector, std::__ndk1::basic_string<char, std::__ndk1::char_traits<char>, std::__ndk1::allocator<char> >, bool, long, unsigned long, double, std::__ndk1::allocator, nlohmann::json_abi_v3_11_3::adl_serializer, std::__ndk1::vector<unsigned char, std::__ndk1::allocator<unsigned char> >, void>, nlohmann::json_abi_v3_11_3::detail::iterator_input_adapter<std::__ndk1::__wrap_iter<unsigned char const*> > >::scan_string()
FUNC 9a3b8 394 0 nlohmann::json_abi_v3_11_3::detail::lexer<nlohmann::json_abi_v3_11_3::basic_json<std::__ndk1::map, std::__ndk1::vector, std::__ndk1::basic_string<char, std::__ndk1::char_traits<char>, std::__ndk1::allocator<char> >, bool, long, unsigned long, double, std::__ndk1::allocator, nlohmann::json_abi_v3_11_3::adl_serializer, std::__ndk1::vector<unsigned char, std::__ndk1::allocator<unsigned char> >, void>, nlohmann::json_abi_v3_11_3::detail::iterator_input_adapter<std::__ndk1::__wrap_iter<unsigned char const*> > >::scan_number()
FUNC 9a74c 200 0 nlohmann::json_abi_v3_11_3::detail::lexer<nlohmann::json_abi_v3_11_3::basic_json<std::__ndk1::map, std::__ndk1::vector, std::__ndk1::basic_string<char, std::__ndk1::char_traits<char>, std::__ndk1::allocator<char> >, bool, long, unsigned long, double, std::__ndk1::allocator, nlohmann::json_abi_v3_11_3::adl_serializer, std::__ndk1::vector<unsigned char, std::__ndk1::allocator<unsigned char> >, void>, nlohmann::json_abi_v3_11_3::detail::iterator_input_adapter<std::__ndk1::__wrap_iter<unsigned char const*> > >::get()
FUNC 9a94c 170 0 nlohmann::json_abi_v3_11_3::detail::lexer<nlohmann::json_abi_v3_11_3::basic_json<std::__ndk1::map, std::__ndk1::vector, std::__ndk1::basic_string<char, std::__ndk1::char_traits<char>, std::__ndk1::allocator<char> >, bool, long, unsigned long, double, std::__ndk1::allocator, nlohmann::json_abi_v3_11_3::adl_serializer, std::__ndk1::vector<unsigned char, std::__ndk1::allocator<unsigned char> >, void>, nlohmann::json_abi_v3_11_3::detail::iterator_input_adapter<std::__ndk1::__wrap_iter<unsigned char const*> > >::get_codepoint()
FUNC 9aabc 1b8 0 nlohmann::json_abi_v3_11_3::detail::parser<nlohmann::json_abi_v3_11_3::basic_json<std::__ndk1::map, std::__ndk1::vector, std::__ndk1::basic_string<char, std::__ndk1::char_traits<char>, std::__ndk1::allocator<char> >, bool, long, unsigned long, double, std::__ndk1::allocator, nlohmann::json_abi_v3_11_3::adl_serializer, std::__ndk1::vector<unsigned char, std::__ndk1::allocator<unsigned char> >, void>, nlohmann::json_abi_v3_11_3::detail::iterator_input_adapter<std::__ndk1::__wrap_iter<unsigned char const*> > >::sax_parse<nlohmann::json_abi_v3_11_3::detail::json_sax_acceptor<nlohmann::json_abi_v3_11_3::basic_json<std::__ndk1::map, std::__ndk1::vector, std::__ndk1::basic_string<char, std::__ndk1::char_traits<char>, std::__ndk1::allocator<char> >, bool, long, unsigned long, double, std::__ndk1::allocator, nlohmann::json_abi_v3_11_3::adl_serializer, std::__ndk1::vector<unsigned char, std::__ndk1::allocator<unsigned char> >, void> > >(nlohmann::json_abi_v3_11_3::detail::json_sax_acceptor<nlohmann::json_abi_v3_11_3::basic_json<std::__ndk1::map, std::__ndk1::vector, std::__ndk1::basic_string<char, std::__ndk1::char_traits<char>, std::__ndk1::allocator<char> >, bool, long, unsigned long, double, std::__ndk1::allocator, nlohmann::json_abi_v3_11_3::adl_serializer, std::__ndk1::vector<unsigned char, std::__ndk1::allocator<unsigned char> >, void> >*, bool)
FUNC 9ac74 940 0 nlohmann::json_abi_v3_11_3::detail::parser<nlohmann::json_abi_v3_11_3::basic_json<std::__ndk1::map, std::__ndk1::vector, std::__ndk1::basic_string<char, std::__ndk1::char_traits<char>, std::__ndk1::allocator<char> >, bool, long, unsigned long, double, std::__ndk1::allocator, nlohmann::json_abi_v3_11_3::adl_serializer, std::__ndk1::vector<unsigned char, std::__ndk1::allocator<unsigned char> >, void>, nlohmann::json_abi_v3_11_3::detail::iterator_input_adapter<std::__ndk1::__wrap_iter<unsigned char const*> > >::sax_parse_internal<nlohmann::json_abi_v3_11_3::detail::json_sax_acceptor<nlohmann::json_abi_v3_11_3::basic_json<std::__ndk1::map, std::__ndk1::vector, std::__ndk1::basic_string<char, std::__ndk1::char_traits<char>, std::__ndk1::allocator<char> >, bool, long, unsigned long, double, std::__ndk1::allocator, nlohmann::json_abi_v3_11_3::adl_serializer, std::__ndk1::vector<unsigned char, std::__ndk1::allocator<unsigned char> >, void> > >(nlohmann::json_abi_v3_11_3::detail::json_sax_acceptor<nlohmann::json_abi_v3_11_3::basic_json<std::__ndk1::map, std::__ndk1::vector, std::__ndk1::basic_string<char, std::__ndk1::char_traits<char>, std::__ndk1::allocator<char> >, bool, long, unsigned long, double, std::__ndk1::allocator, nlohmann::json_abi_v3_11_3::adl_serializer, std::__ndk1::vector<unsigned char, std::__ndk1::allocator<unsigned char> >, void> >*)
FUNC 9b5b4 100 0 nlohmann::json_abi_v3_11_3::detail::lexer<nlohmann::json_abi_v3_11_3::basic_json<std::__ndk1::map, std::__ndk1::vector, std::__ndk1::basic_string<char, std::__ndk1::char_traits<char>, std::__ndk1::allocator<char> >, bool, long, unsigned long, double, std::__ndk1::allocator, nlohmann::json_abi_v3_11_3::adl_serializer, std::__ndk1::vector<unsigned char, std::__ndk1::allocator<unsigned char> >, void>, nlohmann::json_abi_v3_11_3::detail::iterator_input_adapter<std::__ndk1::__wrap_iter<unsigned char const*> > >::get_token_string() const
FUNC 9b6b4 26c 0 _ZN8nlohmann16json_abi_v3_11_36detail11parse_error6createIDnTnNSt6__ndk19enable_ifIXsr21is_basic_json_contextIT_EE5valueEiE4typeELi0EEES2_iRKNS1_10position_tERKNS4_12basic_stringIcNS4_11char_traitsIcEENS4_9allocatorIcEEEES6_
FUNC 9b920 3a4 0 nlohmann::json_abi_v3_11_3::detail::parser<nlohmann::json_abi_v3_11_3::basic_json<std::__ndk1::map, std::__ndk1::vector, std::__ndk1::basic_string<char, std::__ndk1::char_traits<char>, std::__ndk1::allocator<char> >, bool, long, unsigned long, double, std::__ndk1::allocator, nlohmann::json_abi_v3_11_3::adl_serializer, std::__ndk1::vector<unsigned char, std::__ndk1::allocator<unsigned char> >, void>, nlohmann::json_abi_v3_11_3::detail::iterator_input_adapter<std::__ndk1::__wrap_iter<unsigned char const*> > >::exception_message(nlohmann::json_abi_v3_11_3::detail::lexer_base<nlohmann::json_abi_v3_11_3::basic_json<std::__ndk1::map, std::__ndk1::vector, std::__ndk1::basic_string<char, std::__ndk1::char_traits<char>, std::__ndk1::allocator<char> >, bool, long, unsigned long, double, std::__ndk1::allocator, nlohmann::json_abi_v3_11_3::adl_serializer, std::__ndk1::vector<unsigned char, std::__ndk1::allocator<unsigned char> >, void> >::token_type, std::__ndk1::basic_string<char, std::__ndk1::char_traits<char>, std::__ndk1::allocator<char> > const&)
FUNC 9bcc4 c4 0 nlohmann::json_abi_v3_11_3::detail::concat<std::__ndk1::basic_string<char, std::__ndk1::char_traits<char>, std::__ndk1::allocator<char> >, char const (&) [26], std::__ndk1::basic_string<char, std::__ndk1::char_traits<char>, std::__ndk1::allocator<char> >, char>(char const (&) [26], std::__ndk1::basic_string<char, std::__ndk1::char_traits<char>, std::__ndk1::allocator<char> >, char)
FUNC 9bd88 104 0 std::__ndk1::vector<bool, std::__ndk1::allocator<bool> >::reserve(unsigned long)
FUNC 9be8c 14 0 std::__ndk1::vector<bool, std::__ndk1::allocator<bool> >::__throw_length_error[abi:ne180000]() const
FUNC 9bea0 f0 0 nlohmann::json_abi_v3_11_3::detail::parse_error::position_string(nlohmann::json_abi_v3_11_3::detail::position_t const&)
FUNC 9bf90 12c 0 nlohmann::json_abi_v3_11_3::detail::concat<std::__ndk1::basic_string<char, std::__ndk1::char_traits<char>, std::__ndk1::allocator<char> >, char const (&) [10], std::__ndk1::basic_string<char, std::__ndk1::char_traits<char>, std::__ndk1::allocator<char> >, char const (&) [10], std::__ndk1::basic_string<char, std::__ndk1::char_traits<char>, std::__ndk1::allocator<char> > >(char const (&) [10], std::__ndk1::basic_string<char, std::__ndk1::char_traits<char>, std::__ndk1::allocator<char> >, char const (&) [10], std::__ndk1::basic_string<char, std::__ndk1::char_traits<char>, std::__ndk1::allocator<char> >)
FUNC 9c0bc c4 0 nlohmann::json_abi_v3_11_3::detail::concat<std::__ndk1::basic_string<char, std::__ndk1::char_traits<char>, std::__ndk1::allocator<char> >, char const (&) [15], std::__ndk1::basic_string<char, std::__ndk1::char_traits<char>, std::__ndk1::allocator<char> > const&, char>(char const (&) [15], std::__ndk1::basic_string<char, std::__ndk1::char_traits<char>, std::__ndk1::allocator<char> > const&, char)
FUNC 9c180 104 0 nlohmann::json_abi_v3_11_3::detail::concat<std::__ndk1::basic_string<char, std::__ndk1::char_traits<char>, std::__ndk1::allocator<char> >, char const*, char const (&) [15], std::__ndk1::basic_string<char, std::__ndk1::char_traits<char>, std::__ndk1::allocator<char> >, char>(char const*, char const (&) [15], std::__ndk1::basic_string<char, std::__ndk1::char_traits<char>, std::__ndk1::allocator<char> >, char)
FUNC 9c284 5e8 0 nlohmann::json_abi_v3_11_3::detail::parser<nlohmann::json_abi_v3_11_3::basic_json<std::__ndk1::map, std::__ndk1::vector, std::__ndk1::basic_string<char, std::__ndk1::char_traits<char>, std::__ndk1::allocator<char> >, bool, long, unsigned long, double, std::__ndk1::allocator, nlohmann::json_abi_v3_11_3::adl_serializer, std::__ndk1::vector<unsigned char, std::__ndk1::allocator<unsigned char> >, void>, nlohmann::json_abi_v3_11_3::detail::iterator_input_adapter<std::__ndk1::__wrap_iter<unsigned char const*> > >::parse(bool, nlohmann::json_abi_v3_11_3::basic_json<std::__ndk1::map, std::__ndk1::vector, std::__ndk1::basic_string<char, std::__ndk1::char_traits<char>, std::__ndk1::allocator<char> >, bool, long, unsigned long, double, std::__ndk1::allocator, nlohmann::json_abi_v3_11_3::adl_serializer, std::__ndk1::vector<unsigned char, std::__ndk1::allocator<unsigned char> >, void>&)
FUNC 9c86c 1c0 0 nlohmann::json_abi_v3_11_3::detail::json_sax_dom_callback_parser<nlohmann::json_abi_v3_11_3::basic_json<std::__ndk1::map, std::__ndk1::vector, std::__ndk1::basic_string<char, std::__ndk1::char_traits<char>, std::__ndk1::allocator<char> >, bool, long, unsigned long, double, std::__ndk1::allocator, nlohmann::json_abi_v3_11_3::adl_serializer, std::__ndk1::vector<unsigned char, std::__ndk1::allocator<unsigned char> >, void> >::json_sax_dom_callback_parser(nlohmann::json_abi_v3_11_3::basic_json<std::__ndk1::map, std::__ndk1::vector, std::__ndk1::basic_string<char, std::__ndk1::char_traits<char>, std::__ndk1::allocator<char> >, bool, long, unsigned long, double, std::__ndk1::allocator, nlohmann::json_abi_v3_11_3::adl_serializer, std::__ndk1::vector<unsigned char, std::__ndk1::allocator<unsigned char> >, void>&, std::__ndk1::function<bool (int, nlohmann::json_abi_v3_11_3::detail::parse_event_t, nlohmann::json_abi_v3_11_3::basic_json<std::__ndk1::map, std::__ndk1::vector, std::__ndk1::basic_string<char, std::__ndk1::char_traits<char>, std::__ndk1::allocator<char> >, bool, long, unsigned long, double, std::__ndk1::allocator, nlohmann::json_abi_v3_11_3::adl_serializer, std::__ndk1::vector<unsigned char, std::__ndk1::allocator<unsigned char> >, void>&)>, bool)
FUNC 9ca2c db0 0 nlohmann::json_abi_v3_11_3::detail::parser<nlohmann::json_abi_v3_11_3::basic_json<std::__ndk1::map, std::__ndk1::vector, std::__ndk1::basic_string<char, std::__ndk1::char_traits<char>, std::__ndk1::allocator<char> >, bool, long, unsigned long, double, std::__ndk1::allocator, nlohmann::json_abi_v3_11_3::adl_serializer, std::__ndk1::vector<unsigned char, std::__ndk1::allocator<unsigned char> >, void>, nlohmann::json_abi_v3_11_3::detail::iterator_input_adapter<std::__ndk1::__wrap_iter<unsigned char const*> > >::sax_parse_internal<nlohmann::json_abi_v3_11_3::detail::json_sax_dom_callback_parser<nlohmann::json_abi_v3_11_3::basic_json<std::__ndk1::map, std::__ndk1::vector, std::__ndk1::basic_string<char, std::__ndk1::char_traits<char>, std::__ndk1::allocator<char> >, bool, long, unsigned long, double, std::__ndk1::allocator, nlohmann::json_abi_v3_11_3::adl_serializer, std::__ndk1::vector<unsigned char, std::__ndk1::allocator<unsigned char> >, void> > >(nlohmann::json_abi_v3_11_3::detail::json_sax_dom_callback_parser<nlohmann::json_abi_v3_11_3::basic_json<std::__ndk1::map, std::__ndk1::vector, std::__ndk1::basic_string<char, std::__ndk1::char_traits<char>, std::__ndk1::allocator<char> >, bool, long, unsigned long, double, std::__ndk1::allocator, nlohmann::json_abi_v3_11_3::adl_serializer, std::__ndk1::vector<unsigned char, std::__ndk1::allocator<unsigned char> >, void> >*)
FUNC 9d7dc 54 0 nlohmann::json_abi_v3_11_3::detail::json_sax_dom_callback_parser<nlohmann::json_abi_v3_11_3::basic_json<std::__ndk1::map, std::__ndk1::vector, std::__ndk1::basic_string<char, std::__ndk1::char_traits<char>, std::__ndk1::allocator<char> >, bool, long, unsigned long, double, std::__ndk1::allocator, nlohmann::json_abi_v3_11_3::adl_serializer, std::__ndk1::vector<unsigned char, std::__ndk1::allocator<unsigned char> >, void> >::parse_error<nlohmann::json_abi_v3_11_3::detail::parse_error>(unsigned long, std::__ndk1::basic_string<char, std::__ndk1::char_traits<char>, std::__ndk1::allocator<char> > const&, nlohmann::json_abi_v3_11_3::detail::parse_error const&)
FUNC 9d830 8c 0 nlohmann::json_abi_v3_11_3::detail::json_sax_dom_callback_parser<nlohmann::json_abi_v3_11_3::basic_json<std::__ndk1::map, std::__ndk1::vector, std::__ndk1::basic_string<char, std::__ndk1::char_traits<char>, std::__ndk1::allocator<char> >, bool, long, unsigned long, double, std::__ndk1::allocator, nlohmann::json_abi_v3_11_3::adl_serializer, std::__ndk1::vector<unsigned char, std::__ndk1::allocator<unsigned char> >, void> >::~json_sax_dom_callback_parser()
FUNC 9d8bc dcc 0 nlohmann::json_abi_v3_11_3::detail::parser<nlohmann::json_abi_v3_11_3::basic_json<std::__ndk1::map, std::__ndk1::vector, std::__ndk1::basic_string<char, std::__ndk1::char_traits<char>, std::__ndk1::allocator<char> >, bool, long, unsigned long, double, std::__ndk1::allocator, nlohmann::json_abi_v3_11_3::adl_serializer, std::__ndk1::vector<unsigned char, std::__ndk1::allocator<unsigned char> >, void>, nlohmann::json_abi_v3_11_3::detail::iterator_input_adapter<std::__ndk1::__wrap_iter<unsigned char const*> > >::sax_parse_internal<nlohmann::json_abi_v3_11_3::detail::json_sax_dom_parser<nlohmann::json_abi_v3_11_3::basic_json<std::__ndk1::map, std::__ndk1::vector, std::__ndk1::basic_string<char, std::__ndk1::char_traits<char>, std::__ndk1::allocator<char> >, bool, long, unsigned long, double, std::__ndk1::allocator, nlohmann::json_abi_v3_11_3::adl_serializer, std::__ndk1::vector<unsigned char, std::__ndk1::allocator<unsigned char> >, void> > >(nlohmann::json_abi_v3_11_3::detail::json_sax_dom_parser<nlohmann::json_abi_v3_11_3::basic_json<std::__ndk1::map, std::__ndk1::vector, std::__ndk1::basic_string<char, std::__ndk1::char_traits<char>, std::__ndk1::allocator<char> >, bool, long, unsigned long, double, std::__ndk1::allocator, nlohmann::json_abi_v3_11_3::adl_serializer, std::__ndk1::vector<unsigned char, std::__ndk1::allocator<unsigned char> >, void> >*)
FUNC 9e688 3d8 0 nlohmann::json_abi_v3_11_3::detail::json_sax_dom_callback_parser<nlohmann::json_abi_v3_11_3::basic_json<std::__ndk1::map, std::__ndk1::vector, std::__ndk1::basic_string<char, std::__ndk1::char_traits<char>, std::__ndk1::allocator<char> >, bool, long, unsigned long, double, std::__ndk1::allocator, nlohmann::json_abi_v3_11_3::adl_serializer, std::__ndk1::vector<unsigned char, std::__ndk1::allocator<unsigned char> >, void> >::start_object(unsigned long)
FUNC 9ea60 294 0 nlohmann::json_abi_v3_11_3::detail::json_sax_dom_callback_parser<nlohmann::json_abi_v3_11_3::basic_json<std::__ndk1::map, std::__ndk1::vector, std::__ndk1::basic_string<char, std::__ndk1::char_traits<char>, std::__ndk1::allocator<char> >, bool, long, unsigned long, double, std::__ndk1::allocator, nlohmann::json_abi_v3_11_3::adl_serializer, std::__ndk1::vector<unsigned char, std::__ndk1::allocator<unsigned char> >, void> >::end_object()
FUNC 9ecf4 260 0 nlohmann::json_abi_v3_11_3::detail::json_sax_dom_callback_parser<nlohmann::json_abi_v3_11_3::basic_json<std::__ndk1::map, std::__ndk1::vector, std::__ndk1::basic_string<char, std::__ndk1::char_traits<char>, std::__ndk1::allocator<char> >, bool, long, unsigned long, double, std::__ndk1::allocator, nlohmann::json_abi_v3_11_3::adl_serializer, std::__ndk1::vector<unsigned char, std::__ndk1::allocator<unsigned char> >, void> >::key(std::__ndk1::basic_string<char, std::__ndk1::char_traits<char>, std::__ndk1::allocator<char> >&)
FUNC 9ef54 3dc 0 nlohmann::json_abi_v3_11_3::detail::json_sax_dom_callback_parser<nlohmann::json_abi_v3_11_3::basic_json<std::__ndk1::map, std::__ndk1::vector, std::__ndk1::basic_string<char, std::__ndk1::char_traits<char>, std::__ndk1::allocator<char> >, bool, long, unsigned long, double, std::__ndk1::allocator, nlohmann::json_abi_v3_11_3::adl_serializer, std::__ndk1::vector<unsigned char, std::__ndk1::allocator<unsigned char> >, void> >::start_array(unsigned long)
FUNC 9f330 190 0 nlohmann::json_abi_v3_11_3::detail::json_sax_dom_callback_parser<nlohmann::json_abi_v3_11_3::basic_json<std::__ndk1::map, std::__ndk1::vector, std::__ndk1::basic_string<char, std::__ndk1::char_traits<char>, std::__ndk1::allocator<char> >, bool, long, unsigned long, double, std::__ndk1::allocator, nlohmann::json_abi_v3_11_3::adl_serializer, std::__ndk1::vector<unsigned char, std::__ndk1::allocator<unsigned char> >, void> >::end_array()
FUNC 9f4c0 54 0 nlohmann::json_abi_v3_11_3::detail::json_sax_dom_callback_parser<nlohmann::json_abi_v3_11_3::basic_json<std::__ndk1::map, std::__ndk1::vector, std::__ndk1::basic_string<char, std::__ndk1::char_traits<char>, std::__ndk1::allocator<char> >, bool, long, unsigned long, double, std::__ndk1::allocator, nlohmann::json_abi_v3_11_3::adl_serializer, std::__ndk1::vector<unsigned char, std::__ndk1::allocator<unsigned char> >, void> >::parse_error<nlohmann::json_abi_v3_11_3::detail::out_of_range>(unsigned long, std::__ndk1::basic_string<char, std::__ndk1::char_traits<char>, std::__ndk1::allocator<char> > const&, nlohmann::json_abi_v3_11_3::detail::out_of_range const&)
FUNC 9f514 250 0 nlohmann::json_abi_v3_11_3::detail::json_sax_dom_callback_parser<nlohmann::json_abi_v3_11_3::basic_json<std::__ndk1::map, std::__ndk1::vector, std::__ndk1::basic_string<char, std::__ndk1::char_traits<char>, std::__ndk1::allocator<char> >, bool, long, unsigned long, double, std::__ndk1::allocator, nlohmann::json_abi_v3_11_3::adl_serializer, std::__ndk1::vector<unsigned char, std::__ndk1::allocator<unsigned char> >, void> >::handle_value<nlohmann::json_abi_v3_11_3::detail::value_t>(nlohmann::json_abi_v3_11_3::detail::value_t&&, bool)
FUNC 9f764 34 0 std::__ndk1::__throw_bad_function_call[abi:ne180000]()
FUNC 9f798 24 0 std::__ndk1::bad_function_call::~bad_function_call()
FUNC 9f7bc 120 0 std::__ndk1::vector<nlohmann::json_abi_v3_11_3::basic_json<std::__ndk1::map, std::__ndk1::vector, std::__ndk1::basic_string<char, std::__ndk1::char_traits<char>, std::__ndk1::allocator<char> >, bool, long, unsigned long, double, std::__ndk1::allocator, nlohmann::json_abi_v3_11_3::adl_serializer, std::__ndk1::vector<unsigned char, std::__ndk1::allocator<unsigned char> >, void>, std::__ndk1::allocator<nlohmann::json_abi_v3_11_3::basic_json<std::__ndk1::map, std::__ndk1::vector, std::__ndk1::basic_string<char, std::__ndk1::char_traits<char>, std::__ndk1::allocator<char> >, bool, long, unsigned long, double, std::__ndk1::allocator, nlohmann::json_abi_v3_11_3::adl_serializer, std::__ndk1::vector<unsigned char, std::__ndk1::allocator<unsigned char> >, void> > >::__emplace_back_slow_path<nlohmann::json_abi_v3_11_3::basic_json<std::__ndk1::map, std::__ndk1::vector, std::__ndk1::basic_string<char, std::__ndk1::char_traits<char>, std::__ndk1::allocator<char> >, bool, long, unsigned long, double, std::__ndk1::allocator, nlohmann::json_abi_v3_11_3::adl_serializer, std::__ndk1::vector<unsigned char, std::__ndk1::allocator<unsigned char> >, void> >(nlohmann::json_abi_v3_11_3::basic_json<std::__ndk1::map, std::__ndk1::vector, std::__ndk1::basic_string<char, std::__ndk1::char_traits<char>, std::__ndk1::allocator<char> >, bool, long, unsigned long, double, std::__ndk1::allocator, nlohmann::json_abi_v3_11_3::adl_serializer, std::__ndk1::vector<unsigned char, std::__ndk1::allocator<unsigned char> >, void>&&)
FUNC 9f8dc 12c 0 nlohmann::json_abi_v3_11_3::detail::iter_impl<nlohmann::json_abi_v3_11_3::basic_json<std::__ndk1::map, std::__ndk1::vector, std::__ndk1::basic_string<char, std::__ndk1::char_traits<char>, std::__ndk1::allocator<char> >, bool, long, unsigned long, double, std::__ndk1::allocator, nlohmann::json_abi_v3_11_3::adl_serializer, std::__ndk1::vector<unsigned char, std::__ndk1::allocator<unsigned char> >, void> >::operator->() const
FUNC 9fa08 390 0 _ZN8nlohmann16json_abi_v3_11_310basic_jsonINSt6__ndk13mapENS2_6vectorENS2_12basic_stringIcNS2_11char_traitsIcEENS2_9allocatorIcEEEEblmdS8_NS0_14adl_serializerENS4_IhNS8_IhEEEEvE5eraseINS0_6detail9iter_implISE_EETnNS2_9enable_ifIXoosr3std7is_sameIT_SI_EE5valuesr3std7is_sameISK_NSH_IKSE_EEEE5valueEiE4typeELi0EEESK_SK_
FUNC 9fd98 1e0 0 _ZN8nlohmann16json_abi_v3_11_36detail16invalid_iterator6createIPNS0_10basic_jsonINSt6__ndk13mapENS5_6vectorENS5_12basic_stringIcNS5_11char_traitsIcEENS5_9allocatorIcEEEEblmdSB_NS0_14adl_serializerENS7_IhNSB_IhEEEEvEETnNS5_9enable_ifIXsr21is_basic_json_contextIT_EE5valueEiE4typeELi0EEES2_iRKSD_SK_
FUNC 9ff78 38 0 nlohmann::json_abi_v3_11_3::detail::invalid_iterator::~invalid_iterator()
FUNC 9ffb0 1e8 0 _ZN8nlohmann16json_abi_v3_11_36detail10type_error6createIPNS0_10basic_jsonINSt6__ndk13mapENS5_6vectorENS5_12basic_stringIcNS5_11char_traitsIcEENS5_9allocatorIcEEEEblmdSB_NS0_14adl_serializerENS7_IhNSB_IhEEEEvEETnNS5_9enable_ifIXsr21is_basic_json_contextIT_EE5valueEiE4typeELi0EEES2_iRKSD_SK_
FUNC a0198 a8 0 nlohmann::json_abi_v3_11_3::detail::concat<std::__ndk1::basic_string<char, std::__ndk1::char_traits<char>, std::__ndk1::allocator<char> >, char const (&) [25], char const*>(char const (&) [25], char const*)
FUNC a0240 2c 0 nlohmann::json_abi_v3_11_3::basic_json<std::__ndk1::map, std::__ndk1::vector, std::__ndk1::basic_string<char, std::__ndk1::char_traits<char>, std::__ndk1::allocator<char> >, bool, long, unsigned long, double, std::__ndk1::allocator, nlohmann::json_abi_v3_11_3::adl_serializer, std::__ndk1::vector<unsigned char, std::__ndk1::allocator<unsigned char> >, void>::type_name() const
FUNC a026c 30 0 nlohmann::json_abi_v3_11_3::detail::exception::~exception()
FUNC a029c a0 0 std::__ndk1::__tree<std::__ndk1::__value_type<std::__ndk1::basic_string<char, std::__ndk1::char_traits<char>, std::__ndk1::allocator<char> >, nlohmann::json_abi_v3_11_3::basic_json<std::__ndk1::map, std::__ndk1::vector, std::__ndk1::basic_string<char, std::__ndk1::char_traits<char>, std::__ndk1::allocator<char> >, bool, long, unsigned long, double, std::__ndk1::allocator, nlohmann::json_abi_v3_11_3::adl_serializer, std::__ndk1::vector<unsigned char, std::__ndk1::allocator<unsigned char> >, void> >, std::__ndk1::__map_value_compare<std::__ndk1::basic_string<char, std::__ndk1::char_traits<char>, std::__ndk1::allocator<char> >, std::__ndk1::__value_type<std::__ndk1::basic_string<char, std::__ndk1::char_traits<char>, std::__ndk1::allocator<char> >, nlohmann::json_abi_v3_11_3::basic_json<std::__ndk1::map, std::__ndk1::vector, std::__ndk1::basic_string<char, std::__ndk1::char_traits<char>, std::__ndk1::allocator<char> >, bool, long, unsigned long, double, std::__ndk1::allocator, nlohmann::json_abi_v3_11_3::adl_serializer, std::__ndk1::vector<unsigned char, std::__ndk1::allocator<unsigned char> >, void> >, std::__ndk1::less<void>, true>, std::__ndk1::allocator<std::__ndk1::__value_type<std::__ndk1::basic_string<char, std::__ndk1::char_traits<char>, std::__ndk1::allocator<char> >, nlohmann::json_abi_v3_11_3::basic_json<std::__ndk1::map, std::__ndk1::vector, std::__ndk1::basic_string<char, std::__ndk1::char_traits<char>, std::__ndk1::allocator<char> >, bool, long, unsigned long, double, std::__ndk1::allocator, nlohmann::json_abi_v3_11_3::adl_serializer, std::__ndk1::vector<unsigned char, std::__ndk1::allocator<unsigned char> >, void> > > >::erase(std::__ndk1::__tree_const_iterator<std::__ndk1::__value_type<std::__ndk1::basic_string<char, std::__ndk1::char_traits<char>, std::__ndk1::allocator<char> >, nlohmann::json_abi_v3_11_3::basic_json<std::__ndk1::map, std::__ndk1::vector, std::__ndk1::basic_string<char, std::__ndk1::char_traits<char>, std::__ndk1::allocator<char> >, bool, long, unsigned long, double, std::__ndk1::allocator, nlohmann::json_abi_v3_11_3::adl_serializer, std::__ndk1::vector<unsigned char, std::__ndk1::allocator<unsigned char> >, void> >, std::__ndk1::__tree_node<std::__ndk1::__value_type<std::__ndk1::basic_string<char, std::__ndk1::char_traits<char>, std::__ndk1::allocator<char> >, nlohmann::json_abi_v3_11_3::basic_json<std::__ndk1::map, std::__ndk1::vector, std::__ndk1::basic_string<char, std::__ndk1::char_traits<char>, std::__ndk1::allocator<char> >, bool, long, unsigned long, double, std::__ndk1::allocator, nlohmann::json_abi_v3_11_3::adl_serializer, std::__ndk1::vector<unsigned char, std::__ndk1::allocator<unsigned char> >, void> >, void*>*, long>)
FUNC a033c 38 0 nlohmann::json_abi_v3_11_3::detail::type_error::~type_error()
FUNC a0374 24c 0 nlohmann::json_abi_v3_11_3::detail::json_sax_dom_callback_parser<nlohmann::json_abi_v3_11_3::basic_json<std::__ndk1::map, std::__ndk1::vector, std::__ndk1::basic_string<char, std::__ndk1::char_traits<char>, std::__ndk1::allocator<char> >, bool, long, unsigned long, double, std::__ndk1::allocator, nlohmann::json_abi_v3_11_3::adl_serializer, std::__ndk1::vector<unsigned char, std::__ndk1::allocator<unsigned char> >, void> >::handle_value<double&>(double&, bool)
FUNC a05c0 248 0 nlohmann::json_abi_v3_11_3::detail::json_sax_dom_callback_parser<nlohmann::json_abi_v3_11_3::basic_json<std::__ndk1::map, std::__ndk1::vector, std::__ndk1::basic_string<char, std::__ndk1::char_traits<char>, std::__ndk1::allocator<char> >, bool, long, unsigned long, double, std::__ndk1::allocator, nlohmann::json_abi_v3_11_3::adl_serializer, std::__ndk1::vector<unsigned char, std::__ndk1::allocator<unsigned char> >, void> >::handle_value<bool&>(bool&, bool)
FUNC a0808 244 0 nlohmann::json_abi_v3_11_3::detail::json_sax_dom_callback_parser<nlohmann::json_abi_v3_11_3::basic_json<std::__ndk1::map, std::__ndk1::vector, std::__ndk1::basic_string<char, std::__ndk1::char_traits<char>, std::__ndk1::allocator<char> >, bool, long, unsigned long, double, std::__ndk1::allocator, nlohmann::json_abi_v3_11_3::adl_serializer, std::__ndk1::vector<unsigned char, std::__ndk1::allocator<unsigned char> >, void> >::handle_value<std::nullptr_t>(std::nullptr_t&&, bool)
FUNC a0a4c 244 0 nlohmann::json_abi_v3_11_3::detail::json_sax_dom_callback_parser<nlohmann::json_abi_v3_11_3::basic_json<std::__ndk1::map, std::__ndk1::vector, std::__ndk1::basic_string<char, std::__ndk1::char_traits<char>, std::__ndk1::allocator<char> >, bool, long, unsigned long, double, std::__ndk1::allocator, nlohmann::json_abi_v3_11_3::adl_serializer, std::__ndk1::vector<unsigned char, std::__ndk1::allocator<unsigned char> >, void> >::handle_value<long&>(long&, bool)
FUNC a0c90 2b0 0 nlohmann::json_abi_v3_11_3::detail::json_sax_dom_callback_parser<nlohmann::json_abi_v3_11_3::basic_json<std::__ndk1::map, std::__ndk1::vector, std::__ndk1::basic_string<char, std::__ndk1::char_traits<char>, std::__ndk1::allocator<char> >, bool, long, unsigned long, double, std::__ndk1::allocator, nlohmann::json_abi_v3_11_3::adl_serializer, std::__ndk1::vector<unsigned char, std::__ndk1::allocator<unsigned char> >, void> >::handle_value<std::__ndk1::basic_string<char, std::__ndk1::char_traits<char>, std::__ndk1::allocator<char> >&>(std::__ndk1::basic_string<char, std::__ndk1::char_traits<char>, std::__ndk1::allocator<char> >&, bool)
FUNC a0f40 248 0 nlohmann::json_abi_v3_11_3::detail::json_sax_dom_callback_parser<nlohmann::json_abi_v3_11_3::basic_json<std::__ndk1::map, std::__ndk1::vector, std::__ndk1::basic_string<char, std::__ndk1::char_traits<char>, std::__ndk1::allocator<char> >, bool, long, unsigned long, double, std::__ndk1::allocator, nlohmann::json_abi_v3_11_3::adl_serializer, std::__ndk1::vector<unsigned char, std::__ndk1::allocator<unsigned char> >, void> >::handle_value<unsigned long&>(unsigned long&, bool)
FUNC a1188 1e0 0 nlohmann::json_abi_v3_11_3::basic_json<std::__ndk1::map, std::__ndk1::vector, std::__ndk1::basic_string<char, std::__ndk1::char_traits<char>, std::__ndk1::allocator<char> >, bool, long, unsigned long, double, std::__ndk1::allocator, nlohmann::json_abi_v3_11_3::adl_serializer, std::__ndk1::vector<unsigned char, std::__ndk1::allocator<unsigned char> >, void>::operator[](std::__ndk1::basic_string<char, std::__ndk1::char_traits<char>, std::__ndk1::allocator<char> >)
FUNC a1368 a8 0 nlohmann::json_abi_v3_11_3::detail::concat<std::__ndk1::basic_string<char, std::__ndk1::char_traits<char>, std::__ndk1::allocator<char> >, char const (&) [51], char const*>(char const (&) [51], char const*)
FUNC a1410 17c 0 _ZN8nlohmann16json_abi_v3_11_36detail9from_jsonINS0_10basic_jsonINSt6__ndk13mapENS4_6vectorENS4_12basic_stringIcNS4_11char_traitsIcEENS4_9allocatorIcEEEEblmdSA_NS0_14adl_serializerENS6_IhNSA_IhEEEEvEEfTnNS4_9enable_ifIXaaaaaaaasr3std13is_arithmeticIT0_EE5valuentsr3std7is_sameISI_NT_17number_unsigned_tEEE5valuentsr3std7is_sameISI_NSJ_16number_integer_tEEE5valuentsr3std7is_sameISI_NSJ_14number_float_tEEE5valuentsr3std7is_sameISI_NSJ_9boolean_tEEE5valueEiE4typeELi0EEEvRKSJ_RSI_
FUNC a158c 1e8 0 _ZN8nlohmann16json_abi_v3_11_36detail10type_error6createIPKNS0_10basic_jsonINSt6__ndk13mapENS5_6vectorENS5_12basic_stringIcNS5_11char_traitsIcEENS5_9allocatorIcEEEEblmdSB_NS0_14adl_serializerENS7_IhNSB_IhEEEEvEETnNS5_9enable_ifIXsr21is_basic_json_contextIT_EE5valueEiE4typeELi0EEES2_iRKSD_SL_
FUNC a1774 a8 0 nlohmann::json_abi_v3_11_3::detail::concat<std::__ndk1::basic_string<char, std::__ndk1::char_traits<char>, std::__ndk1::allocator<char> >, char const (&) [29], char const*>(char const (&) [29], char const*)
FUNC a181c 1c4 0 nlohmann::json_abi_v3_11_3::detail::from_json<nlohmann::json_abi_v3_11_3::basic_json<std::__ndk1::map, std::__ndk1::vector, std::__ndk1::basic_string<char, std::__ndk1::char_traits<char>, std::__ndk1::allocator<char> >, bool, long, unsigned long, double, std::__ndk1::allocator, nlohmann::json_abi_v3_11_3::adl_serializer, std::__ndk1::vector<unsigned char, std::__ndk1::allocator<unsigned char> >, void> >(nlohmann::json_abi_v3_11_3::basic_json<std::__ndk1::map, std::__ndk1::vector, std::__ndk1::basic_string<char, std::__ndk1::char_traits<char>, std::__ndk1::allocator<char> >, bool, long, unsigned long, double, std::__ndk1::allocator, nlohmann::json_abi_v3_11_3::adl_serializer, std::__ndk1::vector<unsigned char, std::__ndk1::allocator<unsigned char> >, void> const&, nlohmann::json_abi_v3_11_3::basic_json<std::__ndk1::map, std::__ndk1::vector, std::__ndk1::basic_string<char, std::__ndk1::char_traits<char>, std::__ndk1::allocator<char> >, bool, long, unsigned long, double, std::__ndk1::allocator, nlohmann::json_abi_v3_11_3::adl_serializer, std::__ndk1::vector<unsigned char, std::__ndk1::allocator<unsigned char> >, void>&::string_t)
FUNC a19e0 ac 0 std::__ndk1::basic_string<char, std::__ndk1::char_traits<char>, std::__ndk1::allocator<char> >::__assign_no_alias<true>(char const*, unsigned long)
FUNC a1a8c 100 0 std::__ndk1::basic_string<char, std::__ndk1::char_traits<char>, std::__ndk1::allocator<char> >::__assign_no_alias<false>(char const*, unsigned long)
FUNC a1b8c 15c 0 _ZN8nlohmann16json_abi_v3_11_36detail9from_jsonINS0_10basic_jsonINSt6__ndk13mapENS4_6vectorENS4_12basic_stringIcNS4_11char_traitsIcEENS4_9allocatorIcEEEEblmdSA_NS0_14adl_serializerENS6_IhNSA_IhEEEEvEEjTnNS4_9enable_ifIXaaaaaaaasr3std13is_arithmeticIT0_EE5valuentsr3std7is_sameISI_NT_17number_unsigned_tEEE5valuentsr3std7is_sameISI_NSJ_16number_integer_tEEE5valuentsr3std7is_sameISI_NSJ_14number_float_tEEE5valuentsr3std7is_sameISI_NSJ_9boolean_tEEE5valueEiE4typeELi0EEEvRKSJ_RSI_
FUNC a1ce8 15c 0 _ZN8nlohmann16json_abi_v3_11_36detail9from_jsonINS0_10basic_jsonINSt6__ndk13mapENS4_6vectorENS4_12basic_stringIcNS4_11char_traitsIcEENS4_9allocatorIcEEEEblmdSA_NS0_14adl_serializerENS6_IhNSA_IhEEEEvEEiTnNS4_9enable_ifIXaaaaaaaasr3std13is_arithmeticIT0_EE5valuentsr3std7is_sameISI_NT_17number_unsigned_tEEE5valuentsr3std7is_sameISI_NSJ_16number_integer_tEEE5valuentsr3std7is_sameISI_NSJ_14number_float_tEEE5valuentsr3std7is_sameISI_NSJ_9boolean_tEEE5valueEiE4typeELi0EEEvRKSJ_RSI_
FUNC a1e44 11c 0 nlohmann::json_abi_v3_11_3::detail::from_json<nlohmann::json_abi_v3_11_3::basic_json<std::__ndk1::map, std::__ndk1::vector, std::__ndk1::basic_string<char, std::__ndk1::char_traits<char>, std::__ndk1::allocator<char> >, bool, long, unsigned long, double, std::__ndk1::allocator, nlohmann::json_abi_v3_11_3::adl_serializer, std::__ndk1::vector<unsigned char, std::__ndk1::allocator<unsigned char> >, void> >(nlohmann::json_abi_v3_11_3::basic_json<std::__ndk1::map, std::__ndk1::vector, std::__ndk1::basic_string<char, std::__ndk1::char_traits<char>, std::__ndk1::allocator<char> >, bool, long, unsigned long, double, std::__ndk1::allocator, nlohmann::json_abi_v3_11_3::adl_serializer, std::__ndk1::vector<unsigned char, std::__ndk1::allocator<unsigned char> >, void> const&, nlohmann::json_abi_v3_11_3::basic_json<std::__ndk1::map, std::__ndk1::vector, std::__ndk1::basic_string<char, std::__ndk1::char_traits<char>, std::__ndk1::allocator<char> >, bool, long, unsigned long, double, std::__ndk1::allocator, nlohmann::json_abi_v3_11_3::adl_serializer, std::__ndk1::vector<unsigned char, std::__ndk1::allocator<unsigned char> >, void>&::boolean_t)
FUNC a1f60 a8 0 nlohmann::json_abi_v3_11_3::detail::concat<std::__ndk1::basic_string<char, std::__ndk1::char_traits<char>, std::__ndk1::allocator<char> >, char const (&) [30], char const*>(char const (&) [30], char const*)
FUNC a2008 fc 0 std::__ndk1::__tree<std::__ndk1::__value_type<std::__ndk1::basic_string<char, std::__ndk1::char_traits<char>, std::__ndk1::allocator<char> >, nlohmann::json_abi_v3_11_3::basic_json<std::__ndk1::map, std::__ndk1::vector, std::__ndk1::basic_string<char, std::__ndk1::char_traits<char>, std::__ndk1::allocator<char> >, bool, long, unsigned long, double, std::__ndk1::allocator, nlohmann::json_abi_v3_11_3::adl_serializer, std::__ndk1::vector<unsigned char, std::__ndk1::allocator<unsigned char> >, void> >, std::__ndk1::__map_value_compare<std::__ndk1::basic_string<char, std::__ndk1::char_traits<char>, std::__ndk1::allocator<char> >, std::__ndk1::__value_type<std::__ndk1::basic_string<char, std::__ndk1::char_traits<char>, std::__ndk1::allocator<char> >, nlohmann::json_abi_v3_11_3::basic_json<std::__ndk1::map, std::__ndk1::vector, std::__ndk1::basic_string<char, std::__ndk1::char_traits<char>, std::__ndk1::allocator<char> >, bool, long, unsigned long, double, std::__ndk1::allocator, nlohmann::json_abi_v3_11_3::adl_serializer, std::__ndk1::vector<unsigned char, std::__ndk1::allocator<unsigned char> >, void> >, std::__ndk1::less<void>, true>, std::__ndk1::allocator<std::__ndk1::__value_type<std::__ndk1::basic_string<char, std::__ndk1::char_traits<char>, std::__ndk1::allocator<char> >, nlohmann::json_abi_v3_11_3::basic_json<std::__ndk1::map, std::__ndk1::vector, std::__ndk1::basic_string<char, std::__ndk1::char_traits<char>, std::__ndk1::allocator<char> >, bool, long, unsigned long, double, std::__ndk1::allocator, nlohmann::json_abi_v3_11_3::adl_serializer, std::__ndk1::vector<unsigned char, std::__ndk1::allocator<unsigned char> >, void> > > >::find<char [10]>(char const (&) [10])
FUNC a2104 198 0 _ZN8nlohmann16json_abi_v3_11_36detail9from_jsonINS0_10basic_jsonINSt6__ndk13mapENS4_6vectorENS4_12basic_stringIcNS4_11char_traitsIcEENS4_9allocatorIcEEEEblmdSA_NS0_14adl_serializerENS6_IhNSA_IhEEEEvEENS5_ISC_SG_NS4_4lessIvEENSA_INS4_4pairIKSC_SG_EEEEEETnNS4_9enable_ifIXsr28is_constructible_object_typeIT_T0_EE5valueEiE4typeELi0EEEvRKSP_RSQ_
FUNC a229c 188 0 _ZNSt6__ndk19transformB8ne180000INS_20__map_const_iteratorINS_21__tree_const_iteratorINS_12__value_typeINS_12basic_stringIcNS_11char_traitsIcEENS_9allocatorIcEEEEN8nlohmann16json_abi_v3_11_310basic_jsonINS_3mapENS_6vectorES9_blmdS7_NSB_14adl_serializerENSE_IhNS7_IhEEEEvEEEEPNS_11__tree_nodeISJ_PvEElEEEENS_15insert_iteratorINSD_IS9_SI_NS_4lessIvEENS7_INS_4pairIKS9_SI_EEEEEEEEZNSB_6detail9from_jsonISI_SX_TnNS_9enable_ifIXsr28is_constructible_object_typeIT_T0_EE5valueEiE4typeELi0EEEvRKS12_RS13_EUlRKSV_E_EES13_S12_S12_S13_T1_
FUNC a2424 134 0 std::__ndk1::__tree<std::__ndk1::__value_type<std::__ndk1::basic_string<char, std::__ndk1::char_traits<char>, std::__ndk1::allocator<char> >, nlohmann::json_abi_v3_11_3::basic_json<std::__ndk1::map, std::__ndk1::vector, std::__ndk1::basic_string<char, std::__ndk1::char_traits<char>, std::__ndk1::allocator<char> >, bool, long, unsigned long, double, std::__ndk1::allocator, nlohmann::json_abi_v3_11_3::adl_serializer, std::__ndk1::vector<unsigned char, std::__ndk1::allocator<unsigned char> >, void> >, std::__ndk1::__map_value_compare<std::__ndk1::basic_string<char, std::__ndk1::char_traits<char>, std::__ndk1::allocator<char> >, std::__ndk1::__value_type<std::__ndk1::basic_string<char, std::__ndk1::char_traits<char>, std::__ndk1::allocator<char> >, nlohmann::json_abi_v3_11_3::basic_json<std::__ndk1::map, std::__ndk1::vector, std::__ndk1::basic_string<char, std::__ndk1::char_traits<char>, std::__ndk1::allocator<char> >, bool, long, unsigned long, double, std::__ndk1::allocator, nlohmann::json_abi_v3_11_3::adl_serializer, std::__ndk1::vector<unsigned char, std::__ndk1::allocator<unsigned char> >, void> >, std::__ndk1::less<void>, true>, std::__ndk1::allocator<std::__ndk1::__value_type<std::__ndk1::basic_string<char, std::__ndk1::char_traits<char>, std::__ndk1::allocator<char> >, nlohmann::json_abi_v3_11_3::basic_json<std::__ndk1::map, std::__ndk1::vector, std::__ndk1::basic_string<char, std::__ndk1::char_traits<char>, std::__ndk1::allocator<char> >, bool, long, unsigned long, double, std::__ndk1::allocator, nlohmann::json_abi_v3_11_3::adl_serializer, std::__ndk1::vector<unsigned char, std::__ndk1::allocator<unsigned char> >, void> > > >::__emplace_hint_unique_key_args<std::__ndk1::basic_string<char, std::__ndk1::char_traits<char>, std::__ndk1::allocator<char> >, std::__ndk1::pair<std::__ndk1::basic_string<char, std::__ndk1::char_traits<char>, std::__ndk1::allocator<char> > const, nlohmann::json_abi_v3_11_3::basic_json<std::__ndk1::map, std::__ndk1::vector, std::__ndk1::basic_string<char, std::__ndk1::char_traits<char>, std::__ndk1::allocator<char> >, bool, long, unsigned long, double, std::__ndk1::allocator, nlohmann::json_abi_v3_11_3::adl_serializer, std::__ndk1::vector<unsigned char, std::__ndk1::allocator<unsigned char> >, void> > >(std::__ndk1::__tree_const_iterator<std::__ndk1::__value_type<std::__ndk1::basic_string<char, std::__ndk1::char_traits<char>, std::__ndk1::allocator<char> >, nlohmann::json_abi_v3_11_3::basic_json<std::__ndk1::map, std::__ndk1::vector, std::__ndk1::basic_string<char, std::__ndk1::char_traits<char>, std::__ndk1::allocator<char> >, bool, long, unsigned long, double, std::__ndk1::allocator, nlohmann::json_abi_v3_11_3::adl_serializer, std::__ndk1::vector<unsigned char, std::__ndk1::allocator<unsigned char> >, void> >, std::__ndk1::__tree_node<std::__ndk1::__value_type<std::__ndk1::basic_string<char, std::__ndk1::char_traits<char>, std::__ndk1::allocator<char> >, nlohmann::json_abi_v3_11_3::basic_json<std::__ndk1::map, std::__ndk1::vector, std::__ndk1::basic_string<char, std::__ndk1::char_traits<char>, std::__ndk1::allocator<char> >, bool, long, unsigned long, double, std::__ndk1::allocator, nlohmann::json_abi_v3_11_3::adl_serializer, std::__ndk1::vector<unsigned char, std::__ndk1::allocator<unsigned char> >, void> >, void*>*, long>, std::__ndk1::basic_string<char, std::__ndk1::char_traits<char>, std::__ndk1::allocator<char> > const&, std::__ndk1::pair<std::__ndk1::basic_string<char, std::__ndk1::char_traits<char>, std::__ndk1::allocator<char> > const, nlohmann::json_abi_v3_11_3::basic_json<std::__ndk1::map, std::__ndk1::vector, std::__ndk1::basic_string<char, std::__ndk1::char_traits<char>, std::__ndk1::allocator<char> >, bool, long, unsigned long, double, std::__ndk1::allocator, nlohmann::json_abi_v3_11_3::adl_serializer, std::__ndk1::vector<unsigned char, std::__ndk1::allocator<unsigned char> >, void> >&&)
FUNC a2558 140 0 _ZNK8nlohmann16json_abi_v3_11_36detail9iter_implINS0_10basic_jsonINSt6__ndk13mapENS4_6vectorENS4_12basic_stringIcNS4_11char_traitsIcEENS4_9allocatorIcEEEEblmdSA_NS0_14adl_serializerENS6_IhNSA_IhEEEEvEEEeqISH_TnNS4_9enable_ifIXoosr3std7is_sameIT_SH_EE5valuesr3std7is_sameISK_NS2_IKSG_EEEE5valueEDnE4typeELDn0EEEbRKSK_
FUNC a2698 c80 0 QuartzInput::saveExtension() const
FUNC a3318 4 0 gdr::Input::parseExtension(std::__ndk1::map<std::__ndk1::basic_string<char, std::__ndk1::char_traits<char>, std::__ndk1::allocator<char> >, nlohmann::json_abi_v3_11_3::basic_json<std::__ndk1::map, std::__ndk1::vector, std::__ndk1::basic_string<char, std::__ndk1::char_traits<char>, std::__ndk1::allocator<char> >, bool, long, unsigned long, double, std::__ndk1::allocator, nlohmann::json_abi_v3_11_3::adl_serializer, std::__ndk1::vector<unsigned char, std::__ndk1::allocator<unsigned char> >, void>, std::__ndk1::less<void>, std::__ndk1::allocator<std::__ndk1::pair<std::__ndk1::basic_string<char, std::__ndk1::char_traits<char>, std::__ndk1::allocator<char> > const, nlohmann::json_abi_v3_11_3::basic_json<std::__ndk1::map, std::__ndk1::vector, std::__ndk1::basic_string<char, std::__ndk1::char_traits<char>, std::__ndk1::allocator<char> >, bool, long, unsigned long, double, std::__ndk1::allocator, nlohmann::json_abi_v3_11_3::adl_serializer, std::__ndk1::vector<unsigned char, std::__ndk1::allocator<unsigned char> >, void> > > >)
FUNC a331c 14 0 gdr::Input::saveExtension() const
FUNC a3330 cc 0 Hacks::isHackEnabled(std::__ndk1::basic_string<char, std::__ndk1::char_traits<char>, std::__ndk1::allocator<char> > const&)
FUNC a33fc 1c 0 nlohmann::json_abi_v3_11_3::detail::json_ref<nlohmann::json_abi_v3_11_3::basic_json<std::__ndk1::map, std::__ndk1::vector, std::__ndk1::basic_string<char, std::__ndk1::char_traits<char>, std::__ndk1::allocator<char> >, bool, long, unsigned long, double, std::__ndk1::allocator, nlohmann::json_abi_v3_11_3::adl_serializer, std::__ndk1::vector<unsigned char, std::__ndk1::allocator<unsigned char> >, void> >::~json_ref()
FUNC a3418 340 0 nlohmann::json_abi_v3_11_3::basic_json<std::__ndk1::map, std::__ndk1::vector, std::__ndk1::basic_string<char, std::__ndk1::char_traits<char>, std::__ndk1::allocator<char> >, bool, long, unsigned long, double, std::__ndk1::allocator, nlohmann::json_abi_v3_11_3::adl_serializer, std::__ndk1::vector<unsigned char, std::__ndk1::allocator<unsigned char> >, void>::basic_json(std::initializer_list<nlohmann::json_abi_v3_11_3::detail::json_ref<nlohmann::json_abi_v3_11_3::basic_json<std::__ndk1::map, std::__ndk1::vector, std::__ndk1::basic_string<char, std::__ndk1::char_traits<char>, std::__ndk1::allocator<char> >, bool, long, unsigned long, double, std::__ndk1::allocator, nlohmann::json_abi_v3_11_3::adl_serializer, std::__ndk1::vector<unsigned char, std::__ndk1::allocator<unsigned char> >, void> > >, bool, nlohmann::json_abi_v3_11_3::detail::value_t)
FUNC a3758 11c 0 std::__ndk1::map<std::__ndk1::basic_string<char, std::__ndk1::char_traits<char>, std::__ndk1::allocator<char> >, nlohmann::json_abi_v3_11_3::basic_json<std::__ndk1::map, std::__ndk1::vector, std::__ndk1::basic_string<char, std::__ndk1::char_traits<char>, std::__ndk1::allocator<char> >, bool, long, unsigned long, double, std::__ndk1::allocator, nlohmann::json_abi_v3_11_3::adl_serializer, std::__ndk1::vector<unsigned char, std::__ndk1::allocator<unsigned char> >, void>, std::__ndk1::less<void>, std::__ndk1::allocator<std::__ndk1::pair<std::__ndk1::basic_string<char, std::__ndk1::char_traits<char>, std::__ndk1::allocator<char> > const, nlohmann::json_abi_v3_11_3::basic_json<std::__ndk1::map, std::__ndk1::vector, std::__ndk1::basic_string<char, std::__ndk1::char_traits<char>, std::__ndk1::allocator<char> >, bool, long, unsigned long, double, std::__ndk1::allocator, nlohmann::json_abi_v3_11_3::adl_serializer, std::__ndk1::vector<unsigned char, std::__ndk1::allocator<unsigned char> >, void> > > >::map[abi:ne180000](std::initializer_list<std::__ndk1::pair<std::__ndk1::basic_string<char, std::__ndk1::char_traits<char>, std::__ndk1::allocator<char> > const, nlohmann::json_abi_v3_11_3::basic_json<std::__ndk1::map, std::__ndk1::vector, std::__ndk1::basic_string<char, std::__ndk1::char_traits<char>, std::__ndk1::allocator<char> >, bool, long, unsigned long, double, std::__ndk1::allocator, nlohmann::json_abi_v3_11_3::adl_serializer, std::__ndk1::vector<unsigned char, std::__ndk1::allocator<unsigned char> >, void> > >, std::__ndk1::less<void> const&)
FUNC a3874 bc 0 nlohmann::json_abi_v3_11_3::basic_json<std::__ndk1::map, std::__ndk1::vector, std::__ndk1::basic_string<char, std::__ndk1::char_traits<char>, std::__ndk1::allocator<char> >, bool, long, unsigned long, double, std::__ndk1::allocator, nlohmann::json_abi_v3_11_3::adl_serializer, std::__ndk1::vector<unsigned char, std::__ndk1::allocator<unsigned char> >, void>::create<std::__ndk1::basic_string<char, std::__ndk1::char_traits<char>, std::__ndk1::allocator<char> >, char const (&) [3]>(char const (&) [3])
FUNC a3930 bc 0 nlohmann::json_abi_v3_11_3::basic_json<std::__ndk1::map, std::__ndk1::vector, std::__ndk1::basic_string<char, std::__ndk1::char_traits<char>, std::__ndk1::allocator<char> >, bool, long, unsigned long, double, std::__ndk1::allocator, nlohmann::json_abi_v3_11_3::adl_serializer, std::__ndk1::vector<unsigned char, std::__ndk1::allocator<unsigned char> >, void>::create<std::__ndk1::basic_string<char, std::__ndk1::char_traits<char>, std::__ndk1::allocator<char> >, char const (&) [9]>(char const (&) [9])
FUNC a39ec bc 0 nlohmann::json_abi_v3_11_3::basic_json<std::__ndk1::map, std::__ndk1::vector, std::__ndk1::basic_string<char, std::__ndk1::char_traits<char>, std::__ndk1::allocator<char> >, bool, long, unsigned long, double, std::__ndk1::allocator, nlohmann::json_abi_v3_11_3::adl_serializer, std::__ndk1::vector<unsigned char, std::__ndk1::allocator<unsigned char> >, void>::create<std::__ndk1::basic_string<char, std::__ndk1::char_traits<char>, std::__ndk1::allocator<char> >, char const (&) [5]>(char const (&) [5])
FUNC a3aa8 bc 0 nlohmann::json_abi_v3_11_3::basic_json<std::__ndk1::map, std::__ndk1::vector, std::__ndk1::basic_string<char, std::__ndk1::char_traits<char>, std::__ndk1::allocator<char> >, bool, long, unsigned long, double, std::__ndk1::allocator, nlohmann::json_abi_v3_11_3::adl_serializer, std::__ndk1::vector<unsigned char, std::__ndk1::allocator<unsigned char> >, void>::create<std::__ndk1::basic_string<char, std::__ndk1::char_traits<char>, std::__ndk1::allocator<char> >, char const (&) [4]>(char const (&) [4])
FUNC a3b64 bc 0 nlohmann::json_abi_v3_11_3::basic_json<std::__ndk1::map, std::__ndk1::vector, std::__ndk1::basic_string<char, std::__ndk1::char_traits<char>, std::__ndk1::allocator<char> >, bool, long, unsigned long, double, std::__ndk1::allocator, nlohmann::json_abi_v3_11_3::adl_serializer, std::__ndk1::vector<unsigned char, std::__ndk1::allocator<unsigned char> >, void>::create<std::__ndk1::basic_string<char, std::__ndk1::char_traits<char>, std::__ndk1::allocator<char> >, char const (&) [10]>(char const (&) [10])
FUNC a3c20 bc 0 nlohmann::json_abi_v3_11_3::basic_json<std::__ndk1::map, std::__ndk1::vector, std::__ndk1::basic_string<char, std::__ndk1::char_traits<char>, std::__ndk1::allocator<char> >, bool, long, unsigned long, double, std::__ndk1::allocator, nlohmann::json_abi_v3_11_3::adl_serializer, std::__ndk1::vector<unsigned char, std::__ndk1::allocator<unsigned char> >, void>::create<std::__ndk1::basic_string<char, std::__ndk1::char_traits<char>, std::__ndk1::allocator<char> >, char const (&) [8]>(char const (&) [8])
FUNC a3cdc 1e8 0 _ZN8nlohmann16json_abi_v3_11_36detail10type_error6createIDnTnNSt6__ndk19enable_ifIXsr21is_basic_json_contextIT_EE5valueEiE4typeELi0EEES2_iRKNS4_12basic_stringIcNS4_11char_traitsIcEENS4_9allocatorIcEEEES6_
FUNC a3ec4 120 0 nlohmann::json_abi_v3_11_3::basic_json<std::__ndk1::map, std::__ndk1::vector, std::__ndk1::basic_string<char, std::__ndk1::char_traits<char>, std::__ndk1::allocator<char> >, bool, long, unsigned long, double, std::__ndk1::allocator, nlohmann::json_abi_v3_11_3::adl_serializer, std::__ndk1::vector<unsigned char, std::__ndk1::allocator<unsigned char> >, void>::operator[](unsigned long) const
FUNC a3fe4 a8 0 nlohmann::json_abi_v3_11_3::detail::concat<std::__ndk1::basic_string<char, std::__ndk1::char_traits<char>, std::__ndk1::allocator<char> >, char const (&) [52], char const*>(char const (&) [52], char const*)
FUNC a408c 158 0 std::__ndk1::vector<nlohmann::json_abi_v3_11_3::basic_json<std::__ndk1::map, std::__ndk1::vector, std::__ndk1::basic_string<char, std::__ndk1::char_traits<char>, std::__ndk1::allocator<char> >, bool, long, unsigned long, double, std::__ndk1::allocator, nlohmann::json_abi_v3_11_3::adl_serializer, std::__ndk1::vector<unsigned char, std::__ndk1::allocator<unsigned char> >, void>, std::__ndk1::allocator<nlohmann::json_abi_v3_11_3::basic_json<std::__ndk1::map, std::__ndk1::vector, std::__ndk1::basic_string<char, std::__ndk1::char_traits<char>, std::__ndk1::allocator<char> >, bool, long, unsigned long, double, std::__ndk1::allocator, nlohmann::json_abi_v3_11_3::adl_serializer, std::__ndk1::vector<unsigned char, std::__ndk1::allocator<unsigned char> >, void> > >::__init_with_size[abi:ne180000]<nlohmann::json_abi_v3_11_3::detail::json_ref<nlohmann::json_abi_v3_11_3::basic_json<std::__ndk1::map, std::__ndk1::vector, std::__ndk1::basic_string<char, std::__ndk1::char_traits<char>, std::__ndk1::allocator<char> >, bool, long, unsigned long, double, std::__ndk1::allocator, nlohmann::json_abi_v3_11_3::adl_serializer, std::__ndk1::vector<unsigned char, std::__ndk1::allocator<unsigned char> >, void> > const*, nlohmann::json_abi_v3_11_3::detail::json_ref<nlohmann::json_abi_v3_11_3::basic_json<std::__ndk1::map, std::__ndk1::vector, std::__ndk1::basic_string<char, std::__ndk1::char_traits<char>, std::__ndk1::allocator<char> >, bool, long, unsigned long, double, std::__ndk1::allocator, nlohmann::json_abi_v3_11_3::adl_serializer, std::__ndk1::vector<unsigned char, std::__ndk1::allocator<unsigned char> >, void> > const>(nlohmann::json_abi_v3_11_3::detail::json_ref<nlohmann::json_abi_v3_11_3::basic_json<std::__ndk1::map, std::__ndk1::vector, std::__ndk1::basic_string<char, std::__ndk1::char_traits<char>, std::__ndk1::allocator<char> >, bool, long, unsigned long, double, std::__ndk1::allocator, nlohmann::json_abi_v3_11_3::adl_serializer, std::__ndk1::vector<unsigned char, std::__ndk1::allocator<unsigned char> >, void> > const*, nlohmann::json_abi_v3_11_3::detail::json_ref<nlohmann::json_abi_v3_11_3::basic_json<std::__ndk1::map, std::__ndk1::vector, std::__ndk1::basic_string<char, std::__ndk1::char_traits<char>, std::__ndk1::allocator<char> >, bool, long, unsigned long, double, std::__ndk1::allocator, nlohmann::json_abi_v3_11_3::adl_serializer, std::__ndk1::vector<unsigned char, std::__ndk1::allocator<unsigned char> >, void> > const, unsigned long)
FUNC a41e4 120 0 nlohmann::json_abi_v3_11_3::basic_json<std::__ndk1::map, std::__ndk1::vector, std::__ndk1::basic_string<char, std::__ndk1::char_traits<char>, std::__ndk1::allocator<char> >, bool, long, unsigned long, double, std::__ndk1::allocator, nlohmann::json_abi_v3_11_3::adl_serializer, std::__ndk1::vector<unsigned char, std::__ndk1::allocator<unsigned char> >, void>::operator[](std::__ndk1::basic_string<char, std::__ndk1::char_traits<char>, std::__ndk1::allocator<char> > const&) const
FUNC a4304 fc 0 std::__ndk1::__tree<std::__ndk1::__value_type<std::__ndk1::basic_string<char, std::__ndk1::char_traits<char>, std::__ndk1::allocator<char> >, nlohmann::json_abi_v3_11_3::basic_json<std::__ndk1::map, std::__ndk1::vector, std::__ndk1::basic_string<char, std::__ndk1::char_traits<char>, std::__ndk1::allocator<char> >, bool, long, unsigned long, double, std::__ndk1::allocator, nlohmann::json_abi_v3_11_3::adl_serializer, std::__ndk1::vector<unsigned char, std::__ndk1::allocator<unsigned char> >, void> >, std::__ndk1::__map_value_compare<std::__ndk1::basic_string<char, std::__ndk1::char_traits<char>, std::__ndk1::allocator<char> >, std::__ndk1::__value_type<std::__ndk1::basic_string<char, std::__ndk1::char_traits<char>, std::__ndk1::allocator<char> >, nlohmann::json_abi_v3_11_3::basic_json<std::__ndk1::map, std::__ndk1::vector, std::__ndk1::basic_string<char, std::__ndk1::char_traits<char>, std::__ndk1::allocator<char> >, bool, long, unsigned long, double, std::__ndk1::allocator, nlohmann::json_abi_v3_11_3::adl_serializer, std::__ndk1::vector<unsigned char, std::__ndk1::allocator<unsigned char> >, void> >, std::__ndk1::less<void>, true>, std::__ndk1::allocator<std::__ndk1::__value_type<std::__ndk1::basic_string<char, std::__ndk1::char_traits<char>, std::__ndk1::allocator<char> >, nlohmann::json_abi_v3_11_3::basic_json<std::__ndk1::map, std::__ndk1::vector, std::__ndk1::basic_string<char, std::__ndk1::char_traits<char>, std::__ndk1::allocator<char> >, bool, long, unsigned long, double, std::__ndk1::allocator, nlohmann::json_abi_v3_11_3::adl_serializer, std::__ndk1::vector<unsigned char, std::__ndk1::allocator<unsigned char> >, void> > > >::find<std::__ndk1::basic_string<char, std::__ndk1::char_traits<char>, std::__ndk1::allocator<char> > >(std::__ndk1::basic_string<char, std::__ndk1::char_traits<char>, std::__ndk1::allocator<char> > const&)
FUNC a4400 fc 0 std::__ndk1::__tree<std::__ndk1::__value_type<std::__ndk1::basic_string<char, std::__ndk1::char_traits<char>, std::__ndk1::allocator<char> >, nlohmann::json_abi_v3_11_3::basic_json<std::__ndk1::map, std::__ndk1::vector, std::__ndk1::basic_string<char, std::__ndk1::char_traits<char>, std::__ndk1::allocator<char> >, bool, long, unsigned long, double, std::__ndk1::allocator, nlohmann::json_abi_v3_11_3::adl_serializer, std::__ndk1::vector<unsigned char, std::__ndk1::allocator<unsigned char> >, void> >, std::__ndk1::__map_value_compare<std::__ndk1::basic_string<char, std::__ndk1::char_traits<char>, std::__ndk1::allocator<char> >, std::__ndk1::__value_type<std::__ndk1::basic_string<char, std::__ndk1::char_traits<char>, std::__ndk1::allocator<char> >, nlohmann::json_abi_v3_11_3::basic_json<std::__ndk1::map, std::__ndk1::vector, std::__ndk1::basic_string<char, std::__ndk1::char_traits<char>, std::__ndk1::allocator<char> >, bool, long, unsigned long, double, std::__ndk1::allocator, nlohmann::json_abi_v3_11_3::adl_serializer, std::__ndk1::vector<unsigned char, std::__ndk1::allocator<unsigned char> >, void> >, std::__ndk1::less<void>, true>, std::__ndk1::allocator<std::__ndk1::__value_type<std::__ndk1::basic_string<char, std::__ndk1::char_traits<char>, std::__ndk1::allocator<char> >, nlohmann::json_abi_v3_11_3::basic_json<std::__ndk1::map, std::__ndk1::vector, std::__ndk1::basic_string<char, std::__ndk1::char_traits<char>, std::__ndk1::allocator<char> >, bool, long, unsigned long, double, std::__ndk1::allocator, nlohmann::json_abi_v3_11_3::adl_serializer, std::__ndk1::vector<unsigned char, std::__ndk1::allocator<unsigned char> >, void> > > >::find<char [7]>(char const (&) [7]) const
FUNC a44fc fc 0 std::__ndk1::__tree<std::__ndk1::__value_type<std::__ndk1::basic_string<char, std::__ndk1::char_traits<char>, std::__ndk1::allocator<char> >, nlohmann::json_abi_v3_11_3::basic_json<std::__ndk1::map, std::__ndk1::vector, std::__ndk1::basic_string<char, std::__ndk1::char_traits<char>, std::__ndk1::allocator<char> >, bool, long, unsigned long, double, std::__ndk1::allocator, nlohmann::json_abi_v3_11_3::adl_serializer, std::__ndk1::vector<unsigned char, std::__ndk1::allocator<unsigned char> >, void> >, std::__ndk1::__map_value_compare<std::__ndk1::basic_string<char, std::__ndk1::char_traits<char>, std::__ndk1::allocator<char> >, std::__ndk1::__value_type<std::__ndk1::basic_string<char, std::__ndk1::char_traits<char>, std::__ndk1::allocator<char> >, nlohmann::json_abi_v3_11_3::basic_json<std::__ndk1::map, std::__ndk1::vector, std::__ndk1::basic_string<char, std::__ndk1::char_traits<char>, std::__ndk1::allocator<char> >, bool, long, unsigned long, double, std::__ndk1::allocator, nlohmann::json_abi_v3_11_3::adl_serializer, std::__ndk1::vector<unsigned char, std::__ndk1::allocator<unsigned char> >, void> >, std::__ndk1::less<void>, true>, std::__ndk1::allocator<std::__ndk1::__value_type<std::__ndk1::basic_string<char, std::__ndk1::char_traits<char>, std::__ndk1::allocator<char> >, nlohmann::json_abi_v3_11_3::basic_json<std::__ndk1::map, std::__ndk1::vector, std::__ndk1::basic_string<char, std::__ndk1::char_traits<char>, std::__ndk1::allocator<char> >, bool, long, unsigned long, double, std::__ndk1::allocator, nlohmann::json_abi_v3_11_3::adl_serializer, std::__ndk1::vector<unsigned char, std::__ndk1::allocator<unsigned char> >, void> > > >::find<char [11]>(char const (&) [11]) const
FUNC a45f8 3d4 0 nlohmann::json_abi_v3_11_3::operator==(nlohmann::json_abi_v3_11_3::basic_json<std::__ndk1::map, std::__ndk1::vector, std::__ndk1::basic_string<char, std::__ndk1::char_traits<char>, std::__ndk1::allocator<char> >, bool, long, unsigned long, double, std::__ndk1::allocator, nlohmann::json_abi_v3_11_3::adl_serializer, std::__ndk1::vector<unsigned char, std::__ndk1::allocator<unsigned char> >, void> const&, nlohmann::json_abi_v3_11_3::basic_json<std::__ndk1::map, std::__ndk1::vector, std::__ndk1::basic_string<char, std::__ndk1::char_traits<char>, std::__ndk1::allocator<char> >, bool, long, unsigned long, double, std::__ndk1::allocator, nlohmann::json_abi_v3_11_3::adl_serializer, std::__ndk1::vector<unsigned char, std::__ndk1::allocator<unsigned char> >, void> const&)
FUNC a49cc 78 0 nlohmann::json_abi_v3_11_3::basic_json<std::__ndk1::map, std::__ndk1::vector, std::__ndk1::basic_string<char, std::__ndk1::char_traits<char>, std::__ndk1::allocator<char> >, bool, long, unsigned long, double, std::__ndk1::allocator, nlohmann::json_abi_v3_11_3::adl_serializer, std::__ndk1::vector<unsigned char, std::__ndk1::allocator<unsigned char> >, void>::compares_unordered(nlohmann::json_abi_v3_11_3::basic_json<std::__ndk1::map, std::__ndk1::vector, std::__ndk1::basic_string<char, std::__ndk1::char_traits<char>, std::__ndk1::allocator<char> >, bool, long, unsigned long, double, std::__ndk1::allocator, nlohmann::json_abi_v3_11_3::adl_serializer, std::__ndk1::vector<unsigned char, std::__ndk1::allocator<unsigned char> >, void> const&, nlohmann::json_abi_v3_11_3::basic_json<std::__ndk1::map, std::__ndk1::vector, std::__ndk1::basic_string<char, std::__ndk1::char_traits<char>, std::__ndk1::allocator<char> >, bool, long, unsigned long, double, std::__ndk1::allocator, nlohmann::json_abi_v3_11_3::adl_serializer, std::__ndk1::vector<unsigned char, std::__ndk1::allocator<unsigned char> >, void> const&, bool)
FUNC a4a44 fc 0 std::__ndk1::__tree<std::__ndk1::__value_type<std::__ndk1::basic_string<char, std::__ndk1::char_traits<char>, std::__ndk1::allocator<char> >, nlohmann::json_abi_v3_11_3::basic_json<std::__ndk1::map, std::__ndk1::vector, std::__ndk1::basic_string<char, std::__ndk1::char_traits<char>, std::__ndk1::allocator<char> >, bool, long, unsigned long, double, std::__ndk1::allocator, nlohmann::json_abi_v3_11_3::adl_serializer, std::__ndk1::vector<unsigned char, std::__ndk1::allocator<unsigned char> >, void> >, std::__ndk1::__map_value_compare<std::__ndk1::basic_string<char, std::__ndk1::char_traits<char>, std::__ndk1::allocator<char> >, std::__ndk1::__value_type<std::__ndk1::basic_string<char, std::__ndk1::char_traits<char>, std::__ndk1::allocator<char> >, nlohmann::json_abi_v3_11_3::basic_json<std::__ndk1::map, std::__ndk1::vector, std::__ndk1::basic_string<char, std::__ndk1::char_traits<char>, std::__ndk1::allocator<char> >, bool, long, unsigned long, double, std::__ndk1::allocator, nlohmann::json_abi_v3_11_3::adl_serializer, std::__ndk1::vector<unsigned char, std::__ndk1::allocator<unsigned char> >, void> >, std::__ndk1::less<void>, true>, std::__ndk1::allocator<std::__ndk1::__value_type<std::__ndk1::basic_string<char, std::__ndk1::char_traits<char>, std::__ndk1::allocator<char> >, nlohmann::json_abi_v3_11_3::basic_json<std::__ndk1::map, std::__ndk1::vector, std::__ndk1::basic_string<char, std::__ndk1::char_traits<char>, std::__ndk1::allocator<char> >, bool, long, unsigned long, double, std::__ndk1::allocator, nlohmann::json_abi_v3_11_3::adl_serializer, std::__ndk1::vector<unsigned char, std::__ndk1::allocator<unsigned char> >, void> > > >::find<char [9]>(char const (&) [9]) const
FUNC a4b40 fc 0 std::__ndk1::__tree<std::__ndk1::__value_type<std::__ndk1::basic_string<char, std::__ndk1::char_traits<char>, std::__ndk1::allocator<char> >, nlohmann::json_abi_v3_11_3::basic_json<std::__ndk1::map, std::__ndk1::vector, std::__ndk1::basic_string<char, std::__ndk1::char_traits<char>, std::__ndk1::allocator<char> >, bool, long, unsigned long, double, std::__ndk1::allocator, nlohmann::json_abi_v3_11_3::adl_serializer, std::__ndk1::vector<unsigned char, std::__ndk1::allocator<unsigned char> >, void> >, std::__ndk1::__map_value_compare<std::__ndk1::basic_string<char, std::__ndk1::char_traits<char>, std::__ndk1::allocator<char> >, std::__ndk1::__value_type<std::__ndk1::basic_string<char, std::__ndk1::char_traits<char>, std::__ndk1::allocator<char> >, nlohmann::json_abi_v3_11_3::basic_json<std::__ndk1::map, std::__ndk1::vector, std::__ndk1::basic_string<char, std::__ndk1::char_traits<char>, std::__ndk1::allocator<char> >, bool, long, unsigned long, double, std::__ndk1::allocator, nlohmann::json_abi_v3_11_3::adl_serializer, std::__ndk1::vector<unsigned char, std::__ndk1::allocator<unsigned char> >, void> >, std::__ndk1::less<void>, true>, std::__ndk1::allocator<std::__ndk1::__value_type<std::__ndk1::basic_string<char, std::__ndk1::char_traits<char>, std::__ndk1::allocator<char> >, nlohmann::json_abi_v3_11_3::basic_json<std::__ndk1::map, std::__ndk1::vector, std::__ndk1::basic_string<char, std::__ndk1::char_traits<char>, std::__ndk1::allocator<char> >, bool, long, unsigned long, double, std::__ndk1::allocator, nlohmann::json_abi_v3_11_3::adl_serializer, std::__ndk1::vector<unsigned char, std::__ndk1::allocator<unsigned char> >, void> > > >::find<char [6]>(char const (&) [6])
FUNC a4c3c 200 0 gdr::Replay<QuartzMacro, QuartzInput>::Replay(gdr::Replay<QuartzMacro, QuartzInput> const&)
FUNC a4e3c 44 0 gdr::Bot::~Bot()
FUNC a4e80 c0 0 std::__ndk1::vector<MacroFile, std::__ndk1::allocator<MacroFile> >::__destroy_vector::operator()[abi:ne180000]()
FUNC a4f40 14 0 std::__ndk1::vector<QuartzInput, std::__ndk1::allocator<QuartzInput> >::__throw_length_error[abi:ne180000]() const
FUNC a4f54 11c 0 std::__ndk1::vector<matjson::Value, std::__ndk1::allocator<matjson::Value> >::__push_back_slow_path<matjson::Value>(matjson::Value&&)
FUNC a5070 110 0 std::__ndk1::basic_ofstream<char, std::__ndk1::char_traits<char> >::basic_ofstream(std::__ndk1::basic_string<char, std::__ndk1::char_traits<char>, std::__ndk1::allocator<char> > const&, unsigned int)
FUNC a5180 b90 0 gdr::Replay<QuartzMacro, QuartzInput>::exportData(bool)
FUNC a5d10 50 0 std::__ndk1::basic_ofstream<char, std::__ndk1::char_traits<char> >::~basic_ofstream()
FUNC a5d60 2ec 0 _ZNSt6__ndk112basic_stringIcNS_11char_traitsIcEENS_9allocatorIcEEE6appendB8ne180000IPKcTnNS_9enable_ifIXsr31__has_forward_iterator_categoryIT_EE5valueEiE4typeELi0EEERS5_SA_SA_
FUNC a604c 188 0 nlohmann::json_abi_v3_11_3::basic_json<std::__ndk1::map, std::__ndk1::vector, std::__ndk1::basic_string<char, std::__ndk1::char_traits<char>, std::__ndk1::allocator<char> >, bool, long, unsigned long, double, std::__ndk1::allocator, nlohmann::json_abi_v3_11_3::adl_serializer, std::__ndk1::vector<unsigned char, std::__ndk1::allocator<unsigned char> >, void>::push_back(nlohmann::json_abi_v3_11_3::basic_json<std::__ndk1::map, std::__ndk1::vector, std::__ndk1::basic_string<char, std::__ndk1::char_traits<char>, std::__ndk1::allocator<char> >, bool, long, unsigned long, double, std::__ndk1::allocator, nlohmann::json_abi_v3_11_3::adl_serializer, std::__ndk1::vector<unsigned char, std::__ndk1::allocator<unsigned char> >, void> const&)
FUNC a61d4 2c8 0 nlohmann::json_abi_v3_11_3::basic_json<std::__ndk1::map, std::__ndk1::vector, std::__ndk1::basic_string<char, std::__ndk1::char_traits<char>, std::__ndk1::allocator<char> >, bool, long, unsigned long, double, std::__ndk1::allocator, nlohmann::json_abi_v3_11_3::adl_serializer, std::__ndk1::vector<unsigned char, std::__ndk1::allocator<unsigned char> >, void>::dump(int, char, bool, nlohmann::json_abi_v3_11_3::detail::error_handler_t) const
FUNC a649c f8 0 nlohmann::json_abi_v3_11_3::basic_json<std::__ndk1::map, std::__ndk1::vector, std::__ndk1::basic_string<char, std::__ndk1::char_traits<char>, std::__ndk1::allocator<char> >, bool, long, unsigned long, double, std::__ndk1::allocator, nlohmann::json_abi_v3_11_3::adl_serializer, std::__ndk1::vector<unsigned char, std::__ndk1::allocator<unsigned char> >, void>::to_msgpack(nlohmann::json_abi_v3_11_3::basic_json<std::__ndk1::map, std::__ndk1::vector, std::__ndk1::basic_string<char, std::__ndk1::char_traits<char>, std::__ndk1::allocator<char> >, bool, long, unsigned long, double, std::__ndk1::allocator, nlohmann::json_abi_v3_11_3::adl_serializer, std::__ndk1::vector<unsigned char, std::__ndk1::allocator<unsigned char> >, void> const&)
FUNC a6594 1b0 0 std::__ndk1::vector<nlohmann::json_abi_v3_11_3::basic_json<std::__ndk1::map, std::__ndk1::vector, std::__ndk1::basic_string<char, std::__ndk1::char_traits<char>, std::__ndk1::allocator<char> >, bool, long, unsigned long, double, std::__ndk1::allocator, nlohmann::json_abi_v3_11_3::adl_serializer, std::__ndk1::vector<unsigned char, std::__ndk1::allocator<unsigned char> >, void>, std::__ndk1::allocator<nlohmann::json_abi_v3_11_3::basic_json<std::__ndk1::map, std::__ndk1::vector, std::__ndk1::basic_string<char, std::__ndk1::char_traits<char>, std::__ndk1::allocator<char> >, bool, long, unsigned long, double, std::__ndk1::allocator, nlohmann::json_abi_v3_11_3::adl_serializer, std::__ndk1::vector<unsigned char, std::__ndk1::allocator<unsigned char> >, void> > >::__push_back_slow_path<nlohmann::json_abi_v3_11_3::basic_json<std::__ndk1::map, std::__ndk1::vector, std::__ndk1::basic_string<char, std::__ndk1::char_traits<char>, std::__ndk1::allocator<char> >, bool, long, unsigned long, double, std::__ndk1::allocator, nlohmann::json_abi_v3_11_3::adl_serializer, std::__ndk1::vector<unsigned char, std::__ndk1::allocator<unsigned char> >, void> const&>(nlohmann::json_abi_v3_11_3::basic_json<std::__ndk1::map, std::__ndk1::vector, std::__ndk1::basic_string<char, std::__ndk1::char_traits<char>, std::__ndk1::allocator<char> >, bool, long, unsigned long, double, std::__ndk1::allocator, nlohmann::json_abi_v3_11_3::adl_serializer, std::__ndk1::vector<unsigned char, std::__ndk1::allocator<unsigned char> >, void> const&)
FUNC a6744 50 0 std::__ndk1::shared_ptr<nlohmann::json_abi_v3_11_3::detail::output_adapter_protocol<char> >::~shared_ptr[abi:ne180000]()
FUNC a6794 50 0 nlohmann::json_abi_v3_11_3::detail::output_adapter<char, std::__ndk1::basic_string<char, std::__ndk1::char_traits<char>, std::__ndk1::allocator<char> > >::~output_adapter()
FUNC a67e4 ff4 0 nlohmann::json_abi_v3_11_3::detail::serializer<nlohmann::json_abi_v3_11_3::basic_json<std::__ndk1::map, std::__ndk1::vector, std::__ndk1::basic_string<char, std::__ndk1::char_traits<char>, std::__ndk1::allocator<char> >, bool, long, unsigned long, double, std::__ndk1::allocator, nlohmann::json_abi_v3_11_3::adl_serializer, std::__ndk1::vector<unsigned char, std::__ndk1::allocator<unsigned char> >, void> >::dump(nlohmann::json_abi_v3_11_3::basic_json<std::__ndk1::map, std::__ndk1::vector, std::__ndk1::basic_string<char, std::__ndk1::char_traits<char>, std::__ndk1::allocator<char> >, bool, long, unsigned long, double, std::__ndk1::allocator, nlohmann::json_abi_v3_11_3::adl_serializer, std::__ndk1::vector<unsigned char, std::__ndk1::allocator<unsigned char> >, void> const&, bool, bool, unsigned int, unsigned int)
FUNC a77d8 64 0 nlohmann::json_abi_v3_11_3::detail::serializer<nlohmann::json_abi_v3_11_3::basic_json<std::__ndk1::map, std::__ndk1::vector, std::__ndk1::basic_string<char, std::__ndk1::char_traits<char>, std::__ndk1::allocator<char> >, bool, long, unsigned long, double, std::__ndk1::allocator, nlohmann::json_abi_v3_11_3::adl_serializer, std::__ndk1::vector<unsigned char, std::__ndk1::allocator<unsigned char> >, void> >::~serializer()
FUNC a783c 10 0 std::__ndk1::__shared_ptr_emplace<nlohmann::json_abi_v3_11_3::detail::output_string_adapter<char, std::__ndk1::basic_string<char, std::__ndk1::char_traits<char>, std::__ndk1::allocator<char> > >, std::__ndk1::allocator<nlohmann::json_abi_v3_11_3::detail::output_string_adapter<char, std::__ndk1::basic_string<char, std::__ndk1::char_traits<char>, std::__ndk1::allocator<char> > > > >::~__shared_ptr_emplace()
FUNC a784c 30 0 std::__ndk1::__shared_ptr_emplace<nlohmann::json_abi_v3_11_3::detail::output_string_adapter<char, std::__ndk1::basic_string<char, std::__ndk1::char_traits<char>, std::__ndk1::allocator<char> > >, std::__ndk1::allocator<nlohmann::json_abi_v3_11_3::detail::output_string_adapter<char, std::__ndk1::basic_string<char, std::__ndk1::char_traits<char>, std::__ndk1::allocator<char> > > > >::~__shared_ptr_emplace()
FUNC a787c c 0 std::__ndk1::__shared_ptr_emplace<nlohmann::json_abi_v3_11_3::detail::output_string_adapter<char, std::__ndk1::basic_string<char, std::__ndk1::char_traits<char>, std::__ndk1::allocator<char> > >, std::__ndk1::allocator<nlohmann::json_abi_v3_11_3::detail::output_string_adapter<char, std::__ndk1::basic_string<char, std::__ndk1::char_traits<char>, std::__ndk1::allocator<char> > > > >::__on_zero_shared()
FUNC a7888 4 0 std::__ndk1::__shared_ptr_emplace<nlohmann::json_abi_v3_11_3::detail::output_string_adapter<char, std::__ndk1::basic_string<char, std::__ndk1::char_traits<char>, std::__ndk1::allocator<char> > >, std::__ndk1::allocator<nlohmann::json_abi_v3_11_3::detail::output_string_adapter<char, std::__ndk1::basic_string<char, std::__ndk1::char_traits<char>, std::__ndk1::allocator<char> > > > >::__on_zero_shared_weak()
FUNC a788c 8 0 nlohmann::json_abi_v3_11_3::detail::output_string_adapter<char, std::__ndk1::basic_string<char, std::__ndk1::char_traits<char>, std::__ndk1::allocator<char> > >::write_character(char)
FUNC a7894 8 0 nlohmann::json_abi_v3_11_3::detail::output_string_adapter<char, std::__ndk1::basic_string<char, std::__ndk1::char_traits<char>, std::__ndk1::allocator<char> > >::write_characters(char const*, unsigned long)
FUNC a789c 4 0 nlohmann::json_abi_v3_11_3::detail::output_adapter_protocol<char>::~output_adapter_protocol()
FUNC a78a0 4 0 nlohmann::json_abi_v3_11_3::detail::output_string_adapter<char, std::__ndk1::basic_string<char, std::__ndk1::char_traits<char>, std::__ndk1::allocator<char> > >::~output_string_adapter()
FUNC a78a4 66c 0 nlohmann::json_abi_v3_11_3::detail::serializer<nlohmann::json_abi_v3_11_3::basic_json<std::__ndk1::map, std::__ndk1::vector, std::__ndk1::basic_string<char, std::__ndk1::char_traits<char>, std::__ndk1::allocator<char> >, bool, long, unsigned long, double, std::__ndk1::allocator, nlohmann::json_abi_v3_11_3::adl_serializer, std::__ndk1::vector<unsigned char, std::__ndk1::allocator<unsigned char> >, void> >::dump_escaped(std::__ndk1::basic_string<char, std::__ndk1::char_traits<char>, std::__ndk1::allocator<char> > const&, bool)
FUNC a7f10 1bc 0 _ZN8nlohmann16json_abi_v3_11_36detail10serializerINS0_10basic_jsonINSt6__ndk13mapENS4_6vectorENS4_12basic_stringIcNS4_11char_traitsIcEENS4_9allocatorIcEEEEblmdSA_NS0_14adl_serializerENS6_IhNSA_IhEEEEvEEE12dump_integerIlTnNS4_9enable_ifIXoooooosr3std11is_integralIT_EE5valuesr3std7is_sameISK_mEE5valuesr3std7is_sameISK_lEE5valuesr3std7is_sameISK_hEE5valueEiE4typeELi0EEEvSK_
FUNC a80cc 130 0 nlohmann::json_abi_v3_11_3::detail::serializer<nlohmann::json_abi_v3_11_3::basic_json<std::__ndk1::map, std::__ndk1::vector, std::__ndk1::basic_string<char, std::__ndk1::char_traits<char>, std::__ndk1::allocator<char> >, bool, long, unsigned long, double, std::__ndk1::allocator, nlohmann::json_abi_v3_11_3::adl_serializer, std::__ndk1::vector<unsigned char, std::__ndk1::allocator<unsigned char> >, void> >::dump_float(double)
FUNC a81fc 12c 0 nlohmann::json_abi_v3_11_3::detail::concat<std::__ndk1::basic_string<char, std::__ndk1::char_traits<char>, std::__ndk1::allocator<char> >, char const (&) [29], std::__ndk1::basic_string<char, std::__ndk1::char_traits<char>, std::__ndk1::allocator<char> >, char const (&) [5], std::__ndk1::basic_string<char, std::__ndk1::char_traits<char>, std::__ndk1::allocator<char> > >(char const (&) [29], std::__ndk1::basic_string<char, std::__ndk1::char_traits<char>, std::__ndk1::allocator<char> >, char const (&) [5], std::__ndk1::basic_string<char, std::__ndk1::char_traits<char>, std::__ndk1::allocator<char> >)
FUNC a8328 b0 0 nlohmann::json_abi_v3_11_3::detail::concat<std::__ndk1::basic_string<char, std::__ndk1::char_traits<char>, std::__ndk1::allocator<char> >, char const (&) [39], std::__ndk1::basic_string<char, std::__ndk1::char_traits<char>, std::__ndk1::allocator<char> > >(char const (&) [39], std::__ndk1::basic_string<char, std::__ndk1::char_traits<char>, std::__ndk1::allocator<char> >)
FUNC a83d8 1f0 0 nlohmann::json_abi_v3_11_3::detail::dtoa_impl::grisu2<double>(char*, int&, int&, double)
FUNC a85c8 1d0 0 nlohmann::json_abi_v3_11_3::detail::dtoa_impl::format_buffer(char*, int, int, int, int)
FUNC a8798 2e0 0 nlohmann::json_abi_v3_11_3::detail::dtoa_impl::grisu2_digit_gen(char*, int&, int&, nlohmann::json_abi_v3_11_3::detail::dtoa_impl::diyfp, nlohmann::json_abi_v3_11_3::detail::dtoa_impl::diyfp, nlohmann::json_abi_v3_11_3::detail::dtoa_impl::diyfp)
FUNC a8a78 108 0 nlohmann::json_abi_v3_11_3::basic_json<std::__ndk1::map, std::__ndk1::vector, std::__ndk1::basic_string<char, std::__ndk1::char_traits<char>, std::__ndk1::allocator<char> >, bool, long, unsigned long, double, std::__ndk1::allocator, nlohmann::json_abi_v3_11_3::adl_serializer, std::__ndk1::vector<unsigned char, std::__ndk1::allocator<unsigned char> >, void>::to_msgpack(nlohmann::json_abi_v3_11_3::basic_json<std::__ndk1::map, std::__ndk1::vector, std::__ndk1::basic_string<char, std::__ndk1::char_traits<char>, std::__ndk1::allocator<char> >, bool, long, unsigned long, double, std::__ndk1::allocator, nlohmann::json_abi_v3_11_3::adl_serializer, std::__ndk1::vector<unsigned char, std::__ndk1::allocator<unsigned char> >, void> const&, nlohmann::json_abi_v3_11_3::detail::output_adapter<unsigned char, std::__ndk1::basic_string<unsigned char, std::__ndk1::char_traits<unsigned char>, std::__ndk1::allocator<unsigned char> > >)
FUNC a8b80 50 0 nlohmann::json_abi_v3_11_3::detail::output_adapter<unsigned char, std::__ndk1::basic_string<unsigned char, std::__ndk1::char_traits<unsigned char>, std::__ndk1::allocator<unsigned char> > >::~output_adapter()
FUNC a8bd0 928 0 nlohmann::json_abi_v3_11_3::detail::binary_writer<nlohmann::json_abi_v3_11_3::basic_json<std::__ndk1::map, std::__ndk1::vector, std::__ndk1::basic_string<char, std::__ndk1::char_traits<char>, std::__ndk1::allocator<char> >, bool, long, unsigned long, double, std::__ndk1::allocator, nlohmann::json_abi_v3_11_3::adl_serializer, std::__ndk1::vector<unsigned char, std::__ndk1::allocator<unsigned char> >, void>, unsigned char>::write_msgpack(nlohmann::json_abi_v3_11_3::basic_json<std::__ndk1::map, std::__ndk1::vector, std::__ndk1::basic_string<char, std::__ndk1::char_traits<char>, std::__ndk1::allocator<char> >, bool, long, unsigned long, double, std::__ndk1::allocator, nlohmann::json_abi_v3_11_3::adl_serializer, std::__ndk1::vector<unsigned char, std::__ndk1::allocator<unsigned char> >, void> const&)
FUNC a94f8 50 0 nlohmann::json_abi_v3_11_3::detail::binary_writer<nlohmann::json_abi_v3_11_3::basic_json<std::__ndk1::map, std::__ndk1::vector, std::__ndk1::basic_string<char, std::__ndk1::char_traits<char>, std::__ndk1::allocator<char> >, bool, long, unsigned long, double, std::__ndk1::allocator, nlohmann::json_abi_v3_11_3::adl_serializer, std::__ndk1::vector<unsigned char, std::__ndk1::allocator<unsigned char> >, void>, unsigned char>::~binary_writer()
FUNC a9548 50 0 std::__ndk1::shared_ptr<nlohmann::json_abi_v3_11_3::detail::output_adapter_protocol<unsigned char> >::~shared_ptr[abi:ne180000]()
FUNC a9598 94 0 nlohmann::json_abi_v3_11_3::detail::binary_writer<nlohmann::json_abi_v3_11_3::basic_json<std::__ndk1::map, std::__ndk1::vector, std::__ndk1::basic_string<char, std::__ndk1::char_traits<char>, std::__ndk1::allocator<char> >, bool, long, unsigned long, double, std::__ndk1::allocator, nlohmann::json_abi_v3_11_3::adl_serializer, std::__ndk1::vector<unsigned char, std::__ndk1::allocator<unsigned char> >, void>, unsigned char>::write_number<unsigned short>(unsigned short, bool)
FUNC a962c 94 0 nlohmann::json_abi_v3_11_3::detail::binary_writer<nlohmann::json_abi_v3_11_3::basic_json<std::__ndk1::map, std::__ndk1::vector, std::__ndk1::basic_string<char, std::__ndk1::char_traits<char>, std::__ndk1::allocator<char> >, bool, long, unsigned long, double, std::__ndk1::allocator, nlohmann::json_abi_v3_11_3::adl_serializer, std::__ndk1::vector<unsigned char, std::__ndk1::allocator<unsigned char> >, void>, unsigned char>::write_number<unsigned int>(unsigned int, bool)
FUNC a96c0 94 0 nlohmann::json_abi_v3_11_3::detail::binary_writer<nlohmann::json_abi_v3_11_3::basic_json<std::__ndk1::map, std::__ndk1::vector, std::__ndk1::basic_string<char, std::__ndk1::char_traits<char>, std::__ndk1::allocator<char> >, bool, long, unsigned long, double, std::__ndk1::allocator, nlohmann::json_abi_v3_11_3::adl_serializer, std::__ndk1::vector<unsigned char, std::__ndk1::allocator<unsigned char> >, void>, unsigned char>::write_number<unsigned long>(unsigned long, bool)
FUNC a9754 94 0 nlohmann::json_abi_v3_11_3::detail::binary_writer<nlohmann::json_abi_v3_11_3::basic_json<std::__ndk1::map, std::__ndk1::vector, std::__ndk1::basic_string<char, std::__ndk1::char_traits<char>, std::__ndk1::allocator<char> >, bool, long, unsigned long, double, std::__ndk1::allocator, nlohmann::json_abi_v3_11_3::adl_serializer, std::__ndk1::vector<unsigned char, std::__ndk1::allocator<unsigned char> >, void>, unsigned char>::write_number<short>(short, bool)
FUNC a97e8 94 0 nlohmann::json_abi_v3_11_3::detail::binary_writer<nlohmann::json_abi_v3_11_3::basic_json<std::__ndk1::map, std::__ndk1::vector, std::__ndk1::basic_string<char, std::__ndk1::char_traits<char>, std::__ndk1::allocator<char> >, bool, long, unsigned long, double, std::__ndk1::allocator, nlohmann::json_abi_v3_11_3::adl_serializer, std::__ndk1::vector<unsigned char, std::__ndk1::allocator<unsigned char> >, void>, unsigned char>::write_number<int>(int, bool)
FUNC a987c 94 0 nlohmann::json_abi_v3_11_3::detail::binary_writer<nlohmann::json_abi_v3_11_3::basic_json<std::__ndk1::map, std::__ndk1::vector, std::__ndk1::basic_string<char, std::__ndk1::char_traits<char>, std::__ndk1::allocator<char> >, bool, long, unsigned long, double, std::__ndk1::allocator, nlohmann::json_abi_v3_11_3::adl_serializer, std::__ndk1::vector<unsigned char, std::__ndk1::allocator<unsigned char> >, void>, unsigned char>::write_number<long>(long, bool)
FUNC a9910 158 0 nlohmann::json_abi_v3_11_3::detail::binary_writer<nlohmann::json_abi_v3_11_3::basic_json<std::__ndk1::map, std::__ndk1::vector, std::__ndk1::basic_string<char, std::__ndk1::char_traits<char>, std::__ndk1::allocator<char> >, bool, long, unsigned long, double, std::__ndk1::allocator, nlohmann::json_abi_v3_11_3::adl_serializer, std::__ndk1::vector<unsigned char, std::__ndk1::allocator<unsigned char> >, void>, unsigned char>::write_compact_float(double, nlohmann::json_abi_v3_11_3::detail::input_format_t)
FUNC a9a68 10 0 std::__ndk1::__shared_ptr_emplace<nlohmann::json_abi_v3_11_3::detail::output_vector_adapter<unsigned char, std::__ndk1::allocator<unsigned char> >, std::__ndk1::allocator<nlohmann::json_abi_v3_11_3::detail::output_vector_adapter<unsigned char, std::__ndk1::allocator<unsigned char> > > >::~__shared_ptr_emplace()
FUNC a9a78 30 0 std::__ndk1::__shared_ptr_emplace<nlohmann::json_abi_v3_11_3::detail::output_vector_adapter<unsigned char, std::__ndk1::allocator<unsigned char> >, std::__ndk1::allocator<nlohmann::json_abi_v3_11_3::detail::output_vector_adapter<unsigned char, std::__ndk1::allocator<unsigned char> > > >::~__shared_ptr_emplace()
FUNC a9aa8 c 0 std::__ndk1::__shared_ptr_emplace<nlohmann::json_abi_v3_11_3::detail::output_vector_adapter<unsigned char, std::__ndk1::allocator<unsigned char> >, std::__ndk1::allocator<nlohmann::json_abi_v3_11_3::detail::output_vector_adapter<unsigned char, std::__ndk1::allocator<unsigned char> > > >::__on_zero_shared()
FUNC a9ab4 4 0 std::__ndk1::__shared_ptr_emplace<nlohmann::json_abi_v3_11_3::detail::output_vector_adapter<unsigned char, std::__ndk1::allocator<unsigned char> >, std::__ndk1::allocator<nlohmann::json_abi_v3_11_3::detail::output_vector_adapter<unsigned char, std::__ndk1::allocator<unsigned char> > > >::__on_zero_shared_weak()
FUNC a9ab8 198 0 nlohmann::json_abi_v3_11_3::detail::output_vector_adapter<unsigned char, std::__ndk1::allocator<unsigned char> >::write_character(unsigned char)
FUNC a9c50 18 0 nlohmann::json_abi_v3_11_3::detail::output_vector_adapter<unsigned char, std::__ndk1::allocator<unsigned char> >::write_characters(unsigned char const*, unsigned long)
FUNC a9c68 4 0 nlohmann::json_abi_v3_11_3::detail::output_adapter_protocol<unsigned char>::~output_adapter_protocol()
FUNC a9c6c 4 0 nlohmann::json_abi_v3_11_3::detail::output_vector_adapter<unsigned char, std::__ndk1::allocator<unsigned char> >::~output_vector_adapter()
FUNC a9c70 2e8 0 std::__ndk1::vector<unsigned char, std::__ndk1::allocator<unsigned char> >::__insert_with_size[abi:ne180000]<unsigned char const*, unsigned char const>(unsigned char const*<unsigned char const>, unsigned char const*, unsigned char const, long)
FUNC a9f58 128 0 gdr::Replay<QuartzMacro, QuartzInput>::Replay(std::__ndk1::basic_string<char, std::__ndk1::char_traits<char>, std::__ndk1::allocator<char> > const&, std::__ndk1::basic_string<char, std::__ndk1::char_traits<char>, std::__ndk1::allocator<char> > const&)
FUNC aa080 10c 0 std::__ndk1::vector<QuartzInput, std::__ndk1::allocator<QuartzInput> >::__init_with_size[abi:ne180000]<QuartzInput*, std::__ndk1::vector<QuartzInput, std::__ndk1::allocator<QuartzInput> >::__init_with_size[abi:ne180000]>(QuartzInput*, std::__ndk1::vector<QuartzInput, std::__ndk1::allocator<QuartzInput> >::__init_with_size[abi:ne180000], unsigned long)
FUNC aa18c 1b8 0 std::__ndk1::vector<QuartzInput, std::__ndk1::allocator<QuartzInput> >::__push_back_slow_path<QuartzInput const&>(QuartzInput const&)
FUNC aa344 314 0 QuartzPlayLayer::RecreateInputState(int, bool, bool)
FUNC aa658 3c 0 std::__ndk1::__tree<std::__ndk1::__value_type<CheckpointObject*, int>, std::__ndk1::__map_value_compare<CheckpointObject*, std::__ndk1::__value_type<CheckpointObject*, int>, std::__ndk1::less<CheckpointObject*>, true>, std::__ndk1::allocator<std::__ndk1::__value_type<CheckpointObject*, int> > >::destroy(std::__ndk1::__tree_node<std::__ndk1::__value_type<CheckpointObject*, int>, void*>*)
FUNC aa694 98 0 geode::log::debug<int&>(fmt::v11::basic_format_string<char, fmt::v11::type_identity<std::__ndk1::conditional<IsWrappedCocos<int&>, decltype ((wrapCocosObj<int&>)((std::declval<int&>)())), int&>::type>::type>, int&)
FUNC aa72c 1b8 0 geode::modifier::FieldIntermediate<QuartzPlayLayer, PlayLayer>::self()
FUNC aa8e4 30 0 geode::modifier::FieldIntermediate<QuartzPlayLayer, PlayLayer>::fieldDestructor(void*)
FUNC aa914 4 0 geode::Popup<>::~Popup()
FUNC aa918 6c 0 {virtual override thunk({offset(-320)}, geode::Popup<>::~Popup())}
FUNC aa984 4 0 {virtual override thunk({offset(-320)}, geode::Popup<>::~Popup())}
FUNC aa988 4 0 std::__ndk1::__function::__base<void (FLAlertLayer*, bool)>::~__base()
FUNC aa98c 4 0 std::__ndk1::__function::__func<MacroItemCell::onTrash(cocos2d::CCObject*)::$_0, std::__ndk1::allocator<MacroItemCell::onTrash(cocos2d::CCObject*)::$_0>, void (FLAlertLayer*, bool)>::~__func()
FUNC aa990 34 0 std::__ndk1::__function::__func<MacroItemCell::onTrash(cocos2d::CCObject*)::$_0, std::__ndk1::allocator<MacroItemCell::onTrash(cocos2d::CCObject*)::$_0>, void (FLAlertLayer*, bool)>::__clone() const
FUNC aa9c4 14 0 std::__ndk1::__function::__func<MacroItemCell::onTrash(cocos2d::CCObject*)::$_0, std::__ndk1::allocator<MacroItemCell::onTrash(cocos2d::CCObject*)::$_0>, void (FLAlertLayer*, bool)>::__clone(std::__ndk1::__function::__base<void (FLAlertLayer*, bool)>*) const
FUNC aa9d8 4 0 std::__ndk1::__function::__func<MacroItemCell::onTrash(cocos2d::CCObject*)::$_0, std::__ndk1::allocator<MacroItemCell::onTrash(cocos2d::CCObject*)::$_0>, void (FLAlertLayer*, bool)>::destroy()
FUNC aa9dc 4 0 std::__ndk1::__function::__func<MacroItemCell::onTrash(cocos2d::CCObject*)::$_0, std::__ndk1::allocator<MacroItemCell::onTrash(cocos2d::CCObject*)::$_0>, void (FLAlertLayer*, bool)>::destroy_deallocate()
FUNC aa9e0 738 0 std::__ndk1::__function::__func<MacroItemCell::onTrash(cocos2d::CCObject*)::$_0, std::__ndk1::allocator<MacroItemCell::onTrash(cocos2d::CCObject*)::$_0>, void (FLAlertLayer*, bool)>::operator()(FLAlertLayer*&&, bool&&)
FUNC ab118 1c 0 std::__ndk1::__function::__func<MacroItemCell::onTrash(cocos2d::CCObject*)::$_0, std::__ndk1::allocator<MacroItemCell::onTrash(cocos2d::CCObject*)::$_0>, void (FLAlertLayer*, bool)>::target(std::type_info const&) const
FUNC ab134 c 0 std::__ndk1::__function::__func<MacroItemCell::onTrash(cocos2d::CCObject*)::$_0, std::__ndk1::allocator<MacroItemCell::onTrash(cocos2d::CCObject*)::$_0>, void (FLAlertLayer*, bool)>::target_type() const
FUNC ab140 f18 0 geode::modifier::ModifyDerive<QuartzPlayLayer, PlayLayer>::apply()
FUNC ac058 4 0 geode::modifier::ModifyBase<geode::modifier::ModifyDerive<QuartzPlayLayer, PlayLayer> >::apply()
FUNC ac05c 76c 0 geode::modifier::AsStaticFunction_postUpdate<QuartzPlayLayer, void (QuartzPlayLayer::*)(float)>::Impl<void (QuartzPlayLayer::*)(float)>::function(QuartzPlayLayer*, float)
FUNC ac7c8 184 0 geode::Hook::create<void (*)(QuartzPlayLayer*, CheckpointObject*)>(void*, void (*)(QuartzPlayLayer*, CheckpointObject*), std::__ndk1::basic_string<char, std::__ndk1::char_traits<char>, std::__ndk1::allocator<char> > const&, tulip::hook::TulipConvention, tulip::hook::HookMetadata const&)
FUNC ac94c 880 0 geode::modifier::AsStaticFunction_loadFromCheckpoint<QuartzPlayLayer, void (QuartzPlayLayer::*)(CheckpointObject*)>::Impl<void (QuartzPlayLayer::*)(CheckpointObject*)>::function(QuartzPlayLayer*, CheckpointObject*)
FUNC ad1cc 134 0 geode::Hook::create<void (*)(QuartzPlayLayer*)>(void*, void (*)(QuartzPlayLayer*), std::__ndk1::basic_string<char, std::__ndk1::char_traits<char>, std::__ndk1::allocator<char> > const&, tulip::hook::TulipConvention, tulip::hook::HookMetadata const&)
FUNC ad300 15c 0 geode::modifier::AsStaticFunction_onQuit<QuartzPlayLayer, void (QuartzPlayLayer::*)()>::Impl<void (QuartzPlayLayer::*)()>::function(QuartzPlayLayer*)
FUNC ad45c 4 0 geode::modifier::AsStaticFunction_resetLevel<QuartzPlayLayer, void (QuartzPlayLayer::*)()>::Impl<void (QuartzPlayLayer::*)()>::function(QuartzPlayLayer*)
FUNC ad460 169c 0 geode::modifier::AsStaticFunction_startGame<QuartzPlayLayer, void (QuartzPlayLayer::*)()>::Impl<void (QuartzPlayLayer::*)()>::function(QuartzPlayLayer*)
FUNC aeafc 100 0 geode::modifier::AsStaticFunction_storeCheckpoint<QuartzPlayLayer, void (QuartzPlayLayer::*)(CheckpointObject*)>::Impl<void (QuartzPlayLayer::*)(CheckpointObject*)>::function(QuartzPlayLayer*, CheckpointObject*)
FUNC aebfc 74 0 geode::impl::ResultData<std::__ndk1::vector<matjson::Value, std::__ndk1::allocator<matjson::Value> >&, std::__ndk1::basic_string<char, std::__ndk1::char_traits<char>, std::__ndk1::allocator<char> > >::~ResultData()
FUNC aec70 53c 0 MacroManager::getMacro(std::__ndk1::basic_string<char, std::__ndk1::char_traits<char>, std::__ndk1::allocator<char> >)
FUNC af1ac 14 0 std::__ndk1::__variant_detail::__visitation::__base::__dispatcher<(unsigned long)0>::__dispatch[abi:ne180000]<std::__ndk1::__variant_detail::__dtor<std::__ndk1::__variant_detail::__traits<std::__ndk1::basic_string<char, std::__ndk1::char_traits<char>, std::__ndk1::allocator<char> >, std::__ndk1::allocator<char> >, (std::__ndk1::__variant_detail::_Trait)1>::__destroy[abi:ne180000]()::{lambda(auto:1&)#1}, std::__ndk1::__variant_detail::__base<(std::__ndk1::__variant_detail::__traits<std::__ndk1::basic_string<char, std::__ndk1::char_traits<char>, std::__ndk1::allocator<char> >, std::__ndk1::allocator<char> >)1, std::__ndk1::allocator<char>, std::__ndk1::allocator<char> >&>(std::__ndk1::__variant_detail::__dtor<std::__ndk1::__variant_detail::__traits<std::__ndk1::basic_string<char, std::__ndk1::char_traits<char>, std::__ndk1::allocator<char> >, std::__ndk1::allocator<char> >, (std::__ndk1::__variant_detail::_Trait)1>, std::__ndk1::__variant_detail::__base<(std::__ndk1::__variant_detail::__traits<std::__ndk1::basic_string<char, std::__ndk1::char_traits<char>, std::__ndk1::allocator<char> >, std::__ndk1::allocator<char> >)1, std::__ndk1::allocator<char>, std::__ndk1::allocator<char> >&)
FUNC af1c0 14 0 std::__ndk1::__variant_detail::__visitation::__base::__dispatcher<(unsigned long)1>::__dispatch[abi:ne180000]<std::__ndk1::__variant_detail::__dtor<std::__ndk1::__variant_detail::__traits<std::__ndk1::basic_string<char, std::__ndk1::char_traits<char>, std::__ndk1::allocator<char> >, std::__ndk1::allocator<char> >, (std::__ndk1::__variant_detail::_Trait)1>::__destroy[abi:ne180000]()::{lambda(auto:1&)#1}, std::__ndk1::__variant_detail::__base<(std::__ndk1::__variant_detail::__traits<std::__ndk1::basic_string<char, std::__ndk1::char_traits<char>, std::__ndk1::allocator<char> >, std::__ndk1::allocator<char> >)1, std::__ndk1::allocator<char>, std::__ndk1::allocator<char> >&>(std::__ndk1::__variant_detail::__dtor<std::__ndk1::__variant_detail::__traits<std::__ndk1::basic_string<char, std::__ndk1::char_traits<char>, std::__ndk1::allocator<char> >, std::__ndk1::allocator<char> >, (std::__ndk1::__variant_detail::_Trait)1>, std::__ndk1::__variant_detail::__base<(std::__ndk1::__variant_detail::__traits<std::__ndk1::basic_string<char, std::__ndk1::char_traits<char>, std::__ndk1::allocator<char> >, std::__ndk1::allocator<char> >)1, std::__ndk1::allocator<char>, std::__ndk1::allocator<char> >&)
FUNC af1d4 4 0 std::__ndk1::__variant_detail::__visitation::__base::__dispatcher<(unsigned long)0>::__dispatch[abi:ne180000]<std::__ndk1::__variant_detail::__dtor<std::__ndk1::__variant_detail::__traits<std::__ndk1::reference_wrapper<std::__ndk1::vector<matjson::Value, std::__ndk1::allocator<matjson> > >, std::__ndk1::basic_string<char, std::__ndk1::char_traits<char>, matjson::Value<char> > >, (std::__ndk1::__variant_detail::_Trait)1>::__destroy[abi:ne180000]()::{lambda(auto:1&)#1}, std::__ndk1::__variant_detail::__base<(std::__ndk1::__variant_detail::__traits<std::__ndk1::reference_wrapper<std::__ndk1::vector<matjson::Value, std::__ndk1::allocator<matjson> > >, std::__ndk1::basic_string<char, std::__ndk1::char_traits<char>, matjson::Value<char> > >)1, std::__ndk1::vector<matjson::Value, std::__ndk1::allocator<matjson> >, matjson::Value<char> >&>(std::__ndk1::__variant_detail::__dtor<std::__ndk1::__variant_detail::__traits<std::__ndk1::reference_wrapper<std::__ndk1::vector<matjson::Value, std::__ndk1::allocator<matjson> > >, std::__ndk1::basic_string<char, std::__ndk1::char_traits<char>, matjson::Value<char> > >, (std::__ndk1::__variant_detail::_Trait)1>, std::__ndk1::__variant_detail::__base<(std::__ndk1::__variant_detail::__traits<std::__ndk1::reference_wrapper<std::__ndk1::vector<matjson::Value, std::__ndk1::allocator<matjson> > >, std::__ndk1::basic_string<char, std::__ndk1::char_traits<char>, matjson::Value<char> > >)1, std::__ndk1::vector<matjson::Value, std::__ndk1::allocator<matjson> >, matjson::Value<char> >&)
FUNC af1d8 14 0 std::__ndk1::__variant_detail::__visitation::__base::__dispatcher<(unsigned long)1>::__dispatch[abi:ne180000]<std::__ndk1::__variant_detail::__dtor<std::__ndk1::__variant_detail::__traits<std::__ndk1::reference_wrapper<std::__ndk1::vector<matjson::Value, std::__ndk1::allocator<matjson> > >, std::__ndk1::basic_string<char, std::__ndk1::char_traits<char>, matjson::Value<char> > >, (std::__ndk1::__variant_detail::_Trait)1>::__destroy[abi:ne180000]()::{lambda(auto:1&)#1}, std::__ndk1::__variant_detail::__base<(std::__ndk1::__variant_detail::__traits<std::__ndk1::reference_wrapper<std::__ndk1::vector<matjson::Value, std::__ndk1::allocator<matjson> > >, std::__ndk1::basic_string<char, std::__ndk1::char_traits<char>, matjson::Value<char> > >)1, std::__ndk1::vector<matjson::Value, std::__ndk1::allocator<matjson> >, matjson::Value<char> >&>(std::__ndk1::__variant_detail::__dtor<std::__ndk1::__variant_detail::__traits<std::__ndk1::reference_wrapper<std::__ndk1::vector<matjson::Value, std::__ndk1::allocator<matjson> > >, std::__ndk1::basic_string<char, std::__ndk1::char_traits<char>, matjson::Value<char> > >, (std::__ndk1::__variant_detail::_Trait)1>, std::__ndk1::__variant_detail::__base<(std::__ndk1::__variant_detail::__traits<std::__ndk1::reference_wrapper<std::__ndk1::vector<matjson::Value, std::__ndk1::allocator<matjson> > >, std::__ndk1::basic_string<char, std::__ndk1::char_traits<char>, matjson::Value<char> > >)1, std::__ndk1::vector<matjson::Value, std::__ndk1::allocator<matjson> >, matjson::Value<char> >&)
FUNC af1ec 114 0 std::__ndk1::basic_ifstream<char, std::__ndk1::char_traits<char> >::basic_ifstream(std::__ndk1::basic_string<char, std::__ndk1::char_traits<char>, std::__ndk1::allocator<char> > const&, unsigned int)
FUNC af300 148 0 gdr::Replay<QuartzMacro, QuartzInput>::operator=(gdr::Replay<QuartzMacro, QuartzInput>&&)
FUNC af448 344 0 QuartzPlayLayer::onSliderSelect(cocos2d::CCObject*)
FUNC af78c 3e8 0 QuartzPlayLayer::nextFrame(cocos2d::CCObject*)
FUNC afb74 40c 0 QuartzPlayLayer::prevFrame(cocos2d::CCObject*)
FUNC aff80 74 0 QuartzPlayLayer::toggleFramePlayback(cocos2d::CCObject*)
FUNC afff4 304 0 QuartzPlayLayer::markInputP1(cocos2d::CCObject*)
FUNC b02f8 304 0 QuartzPlayLayer::markInputP2(cocos2d::CCObject*)
FUNC b05fc 148 0 QuartzPlayLayer::gotoBtn(cocos2d::CCObject*)
FUNC b0744 148 0 QuartzPlayLayer::clearBtn(cocos2d::CCObject*)
FUNC b088c 148 0 QuartzPlayLayer::onSpeedhackBtn(cocos2d::CCObject*)
FUNC b09d4 fdc 0 std::__ndk1::__introsort<std::__ndk1::_ClassicAlgPolicy, QuartzPlayLayer::startGame()::{lambda(QuartzInput const, QuartzInput const)#1}&, QuartzInput*, false>(QuartzInput*, QuartzInput*, QuartzPlayLayer::startGame()::{lambda(QuartzInput const, QuartzInput const)#1}&, std::__ndk1::iterator_traits<QuartzInput*>::difference_type, bool)
FUNC b19b0 494 0 std::__ndk1::__sort3[abi:ne180000]<std::__ndk1::_ClassicAlgPolicy, QuartzPlayLayer::startGame()::{lambda(QuartzInput const, QuartzInput const)#1}&, QuartzPlayLayer*>(QuartzPlayLayer*, QuartzPlayLayer*, QuartzPlayLayer*, QuartzPlayLayer::startGame()::{lambda(QuartzInput const, QuartzInput const)#1}&)
FUNC b1e44 32c 0 std::__ndk1::__insertion_sort_incomplete[abi:ne180000]<std::__ndk1::_ClassicAlgPolicy, QuartzPlayLayer::startGame()::{lambda(QuartzInput const, QuartzInput const)#1}&, QuartzPlayLayer*>(QuartzPlayLayer*, QuartzPlayLayer*, QuartzPlayLayer::startGame()::{lambda(QuartzInput const, QuartzInput const)#1}&)
FUNC b2170 30c 0 std::__ndk1::__sort4[abi:ne180000]<std::__ndk1::_ClassicAlgPolicy, QuartzPlayLayer::startGame()::{lambda(QuartzInput const, QuartzInput const)#1}&, QuartzPlayLayer*>(QuartzPlayLayer*, QuartzPlayLayer*, QuartzPlayLayer*, QuartzPlayLayer*, QuartzPlayLayer::startGame()::{lambda(QuartzInput const, QuartzInput const)#1}&)
FUNC b247c 3f4 0 std::__ndk1::__sort5[abi:ne180000]<std::__ndk1::_ClassicAlgPolicy, QuartzPlayLayer::startGame()::{lambda(QuartzInput const, QuartzInput const)#1}&, QuartzPlayLayer*>(QuartzPlayLayer*, QuartzPlayLayer*, QuartzPlayLayer*, QuartzPlayLayer*, QuartzPlayLayer*, QuartzPlayLayer::startGame()::{lambda(QuartzInput const, QuartzInput const)#1}&)
FUNC b2870 504 0 std::__ndk1::vector<QuartzInput, std::__ndk1::allocator<QuartzInput> >::insert(std::__ndk1::__wrap_iter<QuartzInput const*>, QuartzInput const&)
FUNC b2d74 28c 0 geode::Popup<>::initBase(float, float, char const*, cocos2d::CCRect, bool)
FUNC b3000 8ec 0 geode::modifier::ModifyDerive<QuartzGJBGL, GJBaseGameLayer>::apply()
FUNC b38ec 4 0 geode::modifier::ModifyBase<geode::modifier::ModifyDerive<QuartzGJBGL, GJBaseGameLayer> >::apply()
FUNC b38f0 184 0 geode::Hook::create<void (*)(QuartzGJBGL*, float)>(void*, void (*)(QuartzGJBGL*, float), std::__ndk1::basic_string<char, std::__ndk1::char_traits<char>, std::__ndk1::allocator<char> > const&, tulip::hook::TulipConvention, tulip::hook::HookMetadata const&)
FUNC b3a74 14 0 geode::modifier::AsStaticFunction_update<QuartzGJBGL, void (QuartzGJBGL::*)(float)>::Impl<void (QuartzGJBGL::*)(float)>::function(QuartzGJBGL*, float)
FUNC b3a88 424 0 geode::modifier::AsStaticFunction_handleButton<QuartzGJBGL, void (QuartzGJBGL::*)(bool, int, bool)>::Impl<void (QuartzGJBGL::*)(bool, int, bool)>::function(QuartzGJBGL*, bool, int, bool)
FUNC b3eac 10d0 0 geode::modifier::AsStaticFunction_processCommands<QuartzGJBGL, void (QuartzGJBGL::*)(float)>::Impl<void (QuartzGJBGL::*)(float)>::function(QuartzGJBGL*, float)
FUNC b4f7c 1d4 0 std::__ndk1::vector<PlayerFrame, std::__ndk1::allocator<PlayerFrame> >::push_back[abi:ne180000](PlayerFrame&&)
FUNC b5150 14 0 std::__ndk1::vector<PlayerFrame, std::__ndk1::allocator<PlayerFrame> >::__throw_length_error[abi:ne180000]() const
FUNC b5164 50 0 geode::Popup<>::CloseEvent::~CloseEvent()
FUNC b51b4 58 0 geode::Popup<>::CloseEvent::~CloseEvent()
FUNC b520c 10 0 std::__ndk1::__shared_ptr_emplace<geode::Popup<>::CloseEvent::Impl, std::__ndk1::allocator<geode::Popup<>::CloseEvent::Impl> >::~__shared_ptr_emplace()
FUNC b521c 30 0 std::__ndk1::__shared_ptr_emplace<geode::Popup<>::CloseEvent::Impl, std::__ndk1::allocator<geode::Popup<>::CloseEvent::Impl> >::~__shared_ptr_emplace()
FUNC b524c 4 0 std::__ndk1::__shared_ptr_emplace<geode::Popup<>::CloseEvent::Impl, std::__ndk1::allocator<geode::Popup<>::CloseEvent::Impl> >::__on_zero_shared()
FUNC b5250 4 0 std::__ndk1::__shared_ptr_emplace<geode::Popup<>::CloseEvent::Impl, std::__ndk1::allocator<geode::Popup<>::CloseEvent::Impl> >::__on_zero_shared_weak()
FUNC b5254 4 0 geode::modifier::ModifyDerive<hook1335<(anonymous namespace)::hook1335Parent>, PlayerObject>::apply()
FUNC b5258 4 0 geode::modifier::ModifyBase<geode::modifier::ModifyDerive<hook1335<(anonymous namespace)::hook1335Parent>, PlayerObject> >::apply()
FUNC b525c 394 0 geode::modifier::ModifyDerive<hook1347<(anonymous namespace)::hook1347Parent>, EndLevelLayer>::apply()
FUNC b55f0 4 0 geode::modifier::ModifyBase<geode::modifier::ModifyDerive<hook1347<(anonymous namespace)::hook1347Parent>, EndLevelLayer> >::apply()
FUNC b55f4 6c 0 geode::addresser::getVirtual<void (EndLevelLayer::*)()>(void (EndLevelLayer::*)())
FUNC b5660 178 0 geode::modifier::AsStaticFunction_customSetup<hook1347<(anonymous namespace)::hook1347Parent>, void (hook1347<(anonymous namespace)::hook1347Parent>::*)()>::Impl<void (hook1347<(anonymous namespace)::hook1347Parent>::*)()>::function(hook1347<(anonymous namespace)::hook1347Parent>*)
FUNC b57d8 8c 0 _ZN5geode9addresser9Addresser14cachedInstanceI13EndLevelLayerEEPT_vQ18HasZeroConstructorIS4_E
FUNC b5864 90 0 EndLevelLayer::EndLevelLayer(geode::ZeroConstructorType)
FUNC b58f4 9f4 0 Lang::get(int)
FUNC b62e8 3c8 0 Hacks::readFile(std::__ndk1::basic_string<char, std::__ndk1::char_traits<char>, std::__ndk1::allocator<char> > const&)
FUNC b66b0 74 0 geode::impl::ResultData<matjson::Value, matjson::ParseError>::~ResultData()
FUNC b6724 78 0 std::__ndk1::unique_ptr<Lang, std::__ndk1::default_delete<Lang> >::~unique_ptr[abi:ne180000]()
FUNC b679c 8 0 std::__ndk1::__variant_detail::__visitation::__base::__dispatcher<(unsigned long)0>::__dispatch[abi:ne180000]<std::__ndk1::__variant_detail::__dtor<std::__ndk1::__variant_detail::__traits<matjson::Value, std::__ndk1::__variant_detail::__traits::ParseError>, (std::__ndk1::__variant_detail::_Trait)1>::__destroy[abi:ne180000]()::{lambda(auto:1&)#1}, std::__ndk1::__variant_detail::__base<(std::__ndk1::__variant_detail::__traits<matjson::Value, std::__ndk1::__variant_detail::__traits::ParseError>)1, matjson, matjson::Value>&>(std::__ndk1::__variant_detail::__dtor<std::__ndk1::__variant_detail::__traits<matjson::Value, std::__ndk1::__variant_detail::__traits::ParseError>, (std::__ndk1::__variant_detail::_Trait)1>, std::__ndk1::__variant_detail::__base<(std::__ndk1::__variant_detail::__traits<matjson::Value, std::__ndk1::__variant_detail::__traits::ParseError>)1, matjson, matjson::Value>&)
FUNC b67a4 14 0 std::__ndk1::__variant_detail::__visitation::__base::__dispatcher<(unsigned long)1>::__dispatch[abi:ne180000]<std::__ndk1::__variant_detail::__dtor<std::__ndk1::__variant_detail::__traits<matjson::Value, std::__ndk1::__variant_detail::__traits::ParseError>, (std::__ndk1::__variant_detail::_Trait)1>::__destroy[abi:ne180000]()::{lambda(auto:1&)#1}, std::__ndk1::__variant_detail::__base<(std::__ndk1::__variant_detail::__traits<matjson::Value, std::__ndk1::__variant_detail::__traits::ParseError>)1, matjson, matjson::Value>&>(std::__ndk1::__variant_detail::__dtor<std::__ndk1::__variant_detail::__traits<matjson::Value, std::__ndk1::__variant_detail::__traits::ParseError>, (std::__ndk1::__variant_detail::_Trait)1>, std::__ndk1::__variant_detail::__base<(std::__ndk1::__variant_detail::__traits<matjson::Value, std::__ndk1::__variant_detail::__traits::ParseError>)1, matjson, matjson::Value>&)
FUNC b67b8 2a8 0 BrownAlertDelegate::init(float, float, char const*, char const*)
FUNC b6a60 28 0 BrownAlertDelegate::keyDown(cocos2d::enumKeyCodes)
FUNC b6a88 2c 0 {virtual override thunk({offset(-344)}, BrownAlertDelegate::keyDown(cocos2d::enumKeyCodes))}
FUNC b6ab4 11c 0 BrownAlertDelegate::onClose(cocos2d::CCObject*)
FUNC b6bd0 bf4 0 Themes::addToCurrentThemes()
FUNC b77c4 74 0 geode::impl::ResultData<matjson::Value&, std::__ndk1::basic_string<char, std::__ndk1::char_traits<char>, std::__ndk1::allocator<char> > >::~ResultData()
FUNC b7838 9ac 0 Themes::getCurrentTheme()
FUNC b81e4 18 0 _ZNO5geode4impl10ResultDataIN7matjson5ValueENS2_10ParseErrorEE15unwrapOrDefaultEvQsr3stdE21default_initializableIT_E
FUNC b81fc 294 0 Hacks::readFile(std::__ndk1::basic_string<char, std::__ndk1::char_traits<char>, std::__ndk1::allocator<char> > const&, bool)
FUNC b8490 3dc 0 Themes::RGBAToCC(matjson::Value, cocos2d::CCNodeRGBA*)
FUNC b886c 3dc 0 Themes::RGBAToCC(matjson::Value, cocos2d::CCLabelBMFont*)
FUNC b8c48 418 0 Themes::RGBAToCC(matjson::Value, Label*)
FUNC b9060 4 0 std::__ndk1::__variant_detail::__visitation::__base::__dispatcher<(unsigned long)0>::__dispatch[abi:ne180000]<std::__ndk1::__variant_detail::__dtor<std::__ndk1::__variant_detail::__traits<std::__ndk1::reference_wrapper<matjson::Value>, std::__ndk1::basic_string<char, std::__ndk1::char_traits<char>, std::__ndk1::allocator<char> > >, (std::__ndk1::__variant_detail::_Trait)1>::__destroy[abi:ne180000]()::{lambda(auto:1&)#1}, std::__ndk1::__variant_detail::__base<(std::__ndk1::__variant_detail::__traits<std::__ndk1::reference_wrapper<matjson::Value>, std::__ndk1::basic_string<char, std::__ndk1::char_traits<char>, std::__ndk1::allocator<char> > >)1, matjson::Value, std::__ndk1::allocator<char> >&>(std::__ndk1::__variant_detail::__dtor<std::__ndk1::__variant_detail::__traits<std::__ndk1::reference_wrapper<matjson::Value>, std::__ndk1::basic_string<char, std::__ndk1::char_traits<char>, std::__ndk1::allocator<char> > >, (std::__ndk1::__variant_detail::_Trait)1>, std::__ndk1::__variant_detail::__base<(std::__ndk1::__variant_detail::__traits<std::__ndk1::reference_wrapper<matjson::Value>, std::__ndk1::basic_string<char, std::__ndk1::char_traits<char>, std::__ndk1::allocator<char> > >)1, matjson::Value, std::__ndk1::allocator<char> >&)
FUNC b9064 14 0 std::__ndk1::__variant_detail::__visitation::__base::__dispatcher<(unsigned long)1>::__dispatch[abi:ne180000]<std::__ndk1::__variant_detail::__dtor<std::__ndk1::__variant_detail::__traits<std::__ndk1::reference_wrapper<matjson::Value>, std::__ndk1::basic_string<char, std::__ndk1::char_traits<char>, std::__ndk1::allocator<char> > >, (std::__ndk1::__variant_detail::_Trait)1>::__destroy[abi:ne180000]()::{lambda(auto:1&)#1}, std::__ndk1::__variant_detail::__base<(std::__ndk1::__variant_detail::__traits<std::__ndk1::reference_wrapper<matjson::Value>, std::__ndk1::basic_string<char, std::__ndk1::char_traits<char>, std::__ndk1::allocator<char> > >)1, matjson::Value, std::__ndk1::allocator<char> >&>(std::__ndk1::__variant_detail::__dtor<std::__ndk1::__variant_detail::__traits<std::__ndk1::reference_wrapper<matjson::Value>, std::__ndk1::basic_string<char, std::__ndk1::char_traits<char>, std::__ndk1::allocator<char> > >, (std::__ndk1::__variant_detail::_Trait)1>, std::__ndk1::__variant_detail::__base<(std::__ndk1::__variant_detail::__traits<std::__ndk1::reference_wrapper<matjson::Value>, std::__ndk1::basic_string<char, std::__ndk1::char_traits<char>, std::__ndk1::allocator<char> > >)1, matjson::Value, std::__ndk1::allocator<char> >&)
FUNC b9078 4 0 std::__ndk1::__variant_detail::__visitation::__base::__dispatcher<(unsigned long)0>::__dispatch[abi:ne180000]<std::__ndk1::__variant_detail::__dtor<std::__ndk1::__variant_detail::__traits<double, std::__ndk1::basic_string<char, std::__ndk1::char_traits<char>, std::__ndk1::allocator<char> > >, (std::__ndk1::__variant_detail::_Trait)1>::__destroy[abi:ne180000]()::{lambda(auto:1&)#1}, std::__ndk1::__variant_detail::__base<(std::__ndk1::__variant_detail::__traits<double, std::__ndk1::basic_string<char, std::__ndk1::char_traits<char>, std::__ndk1::allocator<char> > >)1, double, std::__ndk1::allocator<char> >&>(std::__ndk1::__variant_detail::__dtor<std::__ndk1::__variant_detail::__traits<double, std::__ndk1::basic_string<char, std::__ndk1::char_traits<char>, std::__ndk1::allocator<char> > >, (std::__ndk1::__variant_detail::_Trait)1>, std::__ndk1::__variant_detail::__base<(std::__ndk1::__variant_detail::__traits<double, std::__ndk1::basic_string<char, std::__ndk1::char_traits<char>, std::__ndk1::allocator<char> > >)1, double, std::__ndk1::allocator<char> >&)
FUNC b907c 14 0 std::__ndk1::__variant_detail::__visitation::__base::__dispatcher<(unsigned long)1>::__dispatch[abi:ne180000]<std::__ndk1::__variant_detail::__dtor<std::__ndk1::__variant_detail::__traits<double, std::__ndk1::basic_string<char, std::__ndk1::char_traits<char>, std::__ndk1::allocator<char> > >, (std::__ndk1::__variant_detail::_Trait)1>::__destroy[abi:ne180000]()::{lambda(auto:1&)#1}, std::__ndk1::__variant_detail::__base<(std::__ndk1::__variant_detail::__traits<double, std::__ndk1::basic_string<char, std::__ndk1::char_traits<char>, std::__ndk1::allocator<char> > >)1, double, std::__ndk1::allocator<char> >&>(std::__ndk1::__variant_detail::__dtor<std::__ndk1::__variant_detail::__traits<double, std::__ndk1::basic_string<char, std::__ndk1::char_traits<char>, std::__ndk1::allocator<char> > >, (std::__ndk1::__variant_detail::_Trait)1>, std::__ndk1::__variant_detail::__base<(std::__ndk1::__variant_detail::__traits<double, std::__ndk1::basic_string<char, std::__ndk1::char_traits<char>, std::__ndk1::allocator<char> > >)1, double, std::__ndk1::allocator<char> >&)
FUNC b9090 1c 0 _GLOBAL__sub_I_Themes.cpp
FUNC b90ac 64 0 CreditUser::~CreditUser()
FUNC b9110 4c 0 std::__ndk1::vector<CreditUser, std::__ndk1::allocator<CreditUser> >::~vector[abi:ne180000]()
FUNC b915c 590 0 CreditsMenu::renderPage()
FUNC b96ec 10c 0 CreditUser::CreditUser(CreditUser const&)
FUNC b97f8 6f4 0 CreditsMenu::onLinkClick(cocos2d::CCObject*)
FUNC b9eec 38 0 CreditsMenu::nextPage(cocos2d::CCObject*)
FUNC b9f24 3c 0 CreditsMenu::prevPage(cocos2d::CCObject*)
FUNC b9f60 8fc 0 CreditsMenu::setup()
FUNC ba85c a8 0 std::__ndk1::vector<std::__ndk1::vector<CreditUser, std::__ndk1::allocator<CreditUser> >, std::__ndk1::allocator<std::__ndk1::vector<CreditUser, std::__ndk1::allocator<CreditUser> > > >::~vector[abi:ne180000]()
FUNC ba904 64 0 CreditsMenu::onLinkClick(cocos2d::CCObject*)::$_0::~$_0()
FUNC ba968 64 0 CreditsMenu::onLinkClick(cocos2d::CCObject*)::$_1::~$_1()
FUNC ba9cc 144 0 CreditsMenu::create()
FUNC bab10 c8 0 CreditsMenu::~CreditsMenu()
FUNC babd8 d0 0 CreditsMenu::~CreditsMenu()
FUNC baca8 d4 0 {virtual override thunk({offset(-320)}, CreditsMenu::~CreditsMenu())}
FUNC bad7c dc 0 {virtual override thunk({offset(-320)}, CreditsMenu::~CreditsMenu())}
FUNC bae58 400 0 __cxx_global_var_init.93
FUNC bb258 1644 0 _GLOBAL__sub_I_CreditsMenu.cpp
FUNC bc89c 1c 0 geode::modifier::ModifyBase<geode::modifier::ModifyDerive<hook459<(anonymous namespace)::hook459Parent>, EndLevelLayer> >::~ModifyBase()
FUNC bc8b8 14 0 std::__ndk1::vector<CreditUser, std::__ndk1::allocator<CreditUser> >::__throw_length_error[abi:ne180000]() const
FUNC bc8cc 88 0 std::__ndk1::__exception_guard_exceptions<std::__ndk1::_AllocatorDestroyRangeReverse<std::__ndk1::allocator<CreditUser>, CreditUser*> >::~__exception_guard_exceptions[abi:ne180000]()
FUNC bc954 b4 0 std::__ndk1::vector<CreditUser, std::__ndk1::allocator<CreditUser> >::__destroy_vector::operator()[abi:ne180000]()
FUNC bca08 394 0 geode::modifier::ModifyDerive<hook459<(anonymous namespace)::hook459Parent>, EndLevelLayer>::apply()
FUNC bcd9c 4 0 geode::modifier::ModifyBase<geode::modifier::ModifyDerive<hook459<(anonymous namespace)::hook459Parent>, EndLevelLayer> >::apply()
FUNC bcda0 2a0 0 geode::modifier::AsStaticFunction_customSetup<hook459<(anonymous namespace)::hook459Parent>, void (hook459<(anonymous namespace)::hook459Parent>::*)()>::Impl<void (hook459<(anonymous namespace)::hook459Parent>::*)()>::function(hook459<(anonymous namespace)::hook459Parent>*)
FUNC bd040 a0 0 std::__ndk1::__split_buffer<CreditUser, std::__ndk1::allocator<CreditUser>&>::~__split_buffer()
FUNC bd0e0 144 0 std::__ndk1::vector<CreditUser, std::__ndk1::allocator<CreditUser> >::__init_with_size[abi:ne180000]<CreditUser*, std::__ndk1::vector<CreditUser, std::__ndk1::allocator<CreditUser> >::__init_with_size[abi:ne180000]>(CreditUser*, std::__ndk1::vector<CreditUser, std::__ndk1::allocator<CreditUser> >::__init_with_size[abi:ne180000], unsigned long)
FUNC bd224 a4 0 std::__ndk1::__split_buffer<std::__ndk1::vector<CreditUser, std::__ndk1::allocator<CreditUser> >, std::__ndk1::allocator<std::__ndk1::vector<CreditUser, std::__ndk1::allocator<CreditUser> > >&>::~__split_buffer()
FUNC bd2c8 14 0 std::__ndk1::vector<std::__ndk1::vector<CreditUser, std::__ndk1::allocator<CreditUser> >, std::__ndk1::allocator<std::__ndk1::vector<CreditUser, std::__ndk1::allocator<CreditUser> > > >::__throw_length_error[abi:ne180000]() const
FUNC bd2dc 70 0 std::__ndk1::__function::__func<CreditsMenu::onLinkClick(cocos2d::CCObject*)::$_0, std::__ndk1::allocator<CreditsMenu::onLinkClick(cocos2d::CCObject*)::$_0>, void (FLAlertLayer*, bool)>::~__func()
FUNC bd34c 70 0 std::__ndk1::__function::__func<CreditsMenu::onLinkClick(cocos2d::CCObject*)::$_0, std::__ndk1::allocator<CreditsMenu::onLinkClick(cocos2d::CCObject*)::$_0>, void (FLAlertLayer*, bool)>::~__func()
FUNC bd3bc 54 0 std::__ndk1::__function::__func<CreditsMenu::onLinkClick(cocos2d::CCObject*)::$_0, std::__ndk1::allocator<CreditsMenu::onLinkClick(cocos2d::CCObject*)::$_0>, void (FLAlertLayer*, bool)>::__clone() const
FUNC bd410 1c 0 std::__ndk1::__function::__func<CreditsMenu::onLinkClick(cocos2d::CCObject*)::$_0, std::__ndk1::allocator<CreditsMenu::onLinkClick(cocos2d::CCObject*)::$_0>, void (FLAlertLayer*, bool)>::__clone(std::__ndk1::__function::__base<void (FLAlertLayer*, bool)>*) const
FUNC bd42c 64 0 std::__ndk1::__function::__func<CreditsMenu::onLinkClick(cocos2d::CCObject*)::$_0, std::__ndk1::allocator<CreditsMenu::onLinkClick(cocos2d::CCObject*)::$_0>, void (FLAlertLayer*, bool)>::destroy()
FUNC bd490 64 0 std::__ndk1::__function::__func<CreditsMenu::onLinkClick(cocos2d::CCObject*)::$_0, std::__ndk1::allocator<CreditsMenu::onLinkClick(cocos2d::CCObject*)::$_0>, void (FLAlertLayer*, bool)>::destroy_deallocate()
FUNC bd4f4 14 0 std::__ndk1::__function::__func<CreditsMenu::onLinkClick(cocos2d::CCObject*)::$_0, std::__ndk1::allocator<CreditsMenu::onLinkClick(cocos2d::CCObject*)::$_0>, void (FLAlertLayer*, bool)>::operator()(FLAlertLayer*&&, bool&&)
FUNC bd508 1c 0 std::__ndk1::__function::__func<CreditsMenu::onLinkClick(cocos2d::CCObject*)::$_0, std::__ndk1::allocator<CreditsMenu::onLinkClick(cocos2d::CCObject*)::$_0>, void (FLAlertLayer*, bool)>::target(std::type_info const&) const
FUNC bd524 c 0 std::__ndk1::__function::__func<CreditsMenu::onLinkClick(cocos2d::CCObject*)::$_0, std::__ndk1::allocator<CreditsMenu::onLinkClick(cocos2d::CCObject*)::$_0>, void (FLAlertLayer*, bool)>::target_type() const
FUNC bd530 70 0 std::__ndk1::__function::__func<CreditsMenu::onLinkClick(cocos2d::CCObject*)::$_1, std::__ndk1::allocator<CreditsMenu::onLinkClick(cocos2d::CCObject*)::$_1>, void (FLAlertLayer*, bool)>::~__func()
FUNC bd5a0 70 0 std::__ndk1::__function::__func<CreditsMenu::onLinkClick(cocos2d::CCObject*)::$_1, std::__ndk1::allocator<CreditsMenu::onLinkClick(cocos2d::CCObject*)::$_1>, void (FLAlertLayer*, bool)>::~__func()
FUNC bd610 54 0 std::__ndk1::__function::__func<CreditsMenu::onLinkClick(cocos2d::CCObject*)::$_1, std::__ndk1::allocator<CreditsMenu::onLinkClick(cocos2d::CCObject*)::$_1>, void (FLAlertLayer*, bool)>::__clone() const
FUNC bd664 1c 0 std::__ndk1::__function::__func<CreditsMenu::onLinkClick(cocos2d::CCObject*)::$_1, std::__ndk1::allocator<CreditsMenu::onLinkClick(cocos2d::CCObject*)::$_1>, void (FLAlertLayer*, bool)>::__clone(std::__ndk1::__function::__base<void (FLAlertLayer*, bool)>*) const
FUNC bd680 64 0 std::__ndk1::__function::__func<CreditsMenu::onLinkClick(cocos2d::CCObject*)::$_1, std::__ndk1::allocator<CreditsMenu::onLinkClick(cocos2d::CCObject*)::$_1>, void (FLAlertLayer*, bool)>::destroy()
FUNC bd6e4 64 0 std::__ndk1::__function::__func<CreditsMenu::onLinkClick(cocos2d::CCObject*)::$_1, std::__ndk1::allocator<CreditsMenu::onLinkClick(cocos2d::CCObject*)::$_1>, void (FLAlertLayer*, bool)>::destroy_deallocate()
FUNC bd748 34 0 std::__ndk1::__function::__func<CreditsMenu::onLinkClick(cocos2d::CCObject*)::$_1, std::__ndk1::allocator<CreditsMenu::onLinkClick(cocos2d::CCObject*)::$_1>, void (FLAlertLayer*, bool)>::operator()(FLAlertLayer*&&, bool&&)
FUNC bd77c 1c 0 std::__ndk1::__function::__func<CreditsMenu::onLinkClick(cocos2d::CCObject*)::$_1, std::__ndk1::allocator<CreditsMenu::onLinkClick(cocos2d::CCObject*)::$_1>, void (FLAlertLayer*, bool)>::target(std::type_info const&) const
FUNC bd798 c 0 std::__ndk1::__function::__func<CreditsMenu::onLinkClick(cocos2d::CCObject*)::$_1, std::__ndk1::allocator<CreditsMenu::onLinkClick(cocos2d::CCObject*)::$_1>, void (FLAlertLayer*, bool)>::target_type() const
FUNC bd7a4 6cc 0 Dropdown::onToggle(cocos2d::CCObject*)
FUNC bde70 d8 0 Utils::getNodeName(cocos2d::CCObject*)
FUNC bdf48 99c 0 Dropdown::create(std::__ndk1::vector<matjson::Value, std::__ndk1::allocator<matjson::Value> >, HackItem*, void (cocos2d::CCObject::*)(cocos2d::CCObject*), void (cocos2d::CCObject::*)(cocos2d::CCObject*))
FUNC be8e4 74 0 geode::impl::ResultData<std::__ndk1::basic_string<char, std::__ndk1::char_traits<char>, std::__ndk1::allocator<char> >, std::__ndk1::basic_string<char, std::__ndk1::char_traits<char>, std::__ndk1::allocator<char> > >::~ResultData()
FUNC be958 34 0 std::__ndk1::basic_string<char, std::__ndk1::char_traits<char>, std::__ndk1::allocator<char> >::__assign_external(char const*)
FUNC be98c 94 0 Dropdown::~Dropdown()
FUNC bea20 9c 0 Dropdown::~Dropdown()
FUNC beabc 4 0 cocos2d::CCMenu::setOpacityModifyRGB(bool)
FUNC beac0 8 0 cocos2d::CCMenu::isOpacityModifyRGB()
FUNC beac8 8 0 cocos2d::CCMenu::isEnabled()
FUNC bead0 8 0 cocos2d::CCMenu::setEnabled(bool)
FUNC bead8 98 0 {virtual override thunk({offset(-320)}, Dropdown::~Dropdown())}
FUNC beb70 a0 0 {virtual override thunk({offset(-320)}, Dropdown::~Dropdown())}
FUNC bec10 4 0 {virtual override thunk({offset(-408)}, cocos2d::CCMenu::setOpacityModifyRGB(bool))}
FUNC bec14 8 0 {virtual override thunk({offset(-408)}, cocos2d::CCMenu::isOpacityModifyRGB())}
FUNC bec1c 1c8 0 geode::Mod::setSettingValue<bool>(std::__ndk1::basic_string_view<char, std::__ndk1::char_traits<char> >, bool const&)
FUNC bede4 50 0 std::__ndk1::shared_ptr<geode::BoolSettingV3>::~shared_ptr[abi:ne180000]()
FUNC bee34 298 0 PrismUI::ButtonState(int, bool)
FUNC bf0cc 118 0 PrismUI::GetTheme()
FUNC bf1e4 1c4 0 PrismUIButton::createCheckbox(bool)
FUNC bf3a8 20bc 0 PrismUIButton::init(HackItem*)
FUNC c1464 74 0 std::__ndk1::operator==[abi:ne180000]<char, std::__ndk1::char_traits<char>, std::__ndk1::allocator<char> >(std::__ndk1::basic_string<char, std::__ndk1::char_traits<char>, std::__ndk1::allocator<char> > const&, std::__ndk1::basic_string const*)
FUNC c14d8 1dc 0 Label::create(char const*, int)
FUNC c16b4 378 0 Lang::name(std::__ndk1::basic_string<char, std::__ndk1::char_traits<char>, std::__ndk1::allocator<char> >)
FUNC c1a2c 1864 0 PrismUIButton::onBoolBtn(cocos2d::CCObject*)
FUNC c3290 74 0 geode::impl::ResultData<matjson::Value const&, std::__ndk1::basic_string<char, std::__ndk1::char_traits<char>, std::__ndk1::allocator<char> > >::~ResultData()
FUNC c3304 338 0 PrismUIButton::onIncBtn(cocos2d::CCObject*)
FUNC c363c 338 0 PrismUIButton::onDecBtn(cocos2d::CCObject*)
FUNC c3974 674 0 Utils::enumKeyToString(cocos2d::enumKeyCodes)
FUNC c3fe8 134 0 PrismUIButton::onCharBtn(cocos2d::CCObject*)
FUNC c411c 520 0 PrismUIButton::onFloatBtn(cocos2d::CCObject*)
FUNC c463c 1868 0 PrismUIButton::onBtn(cocos2d::CCObject*)
FUNC c5ea4 74 0 geode::impl::ResultData<std::__ndk1::vector<matjson::Value, std::__ndk1::allocator<matjson::Value> > const&, std::__ndk1::basic_string<char, std::__ndk1::char_traits<char>, std::__ndk1::allocator<char> > >::~ResultData()
FUNC c5f18 84 0 std::__ndk1::vector<matjson::Value, std::__ndk1::allocator<matjson::Value> >::operator=[abi:ne180000](std::__ndk1::vector<matjson::Value, std::__ndk1::allocator<matjson::Value> >&&)
FUNC c5f9c 904 0 PrismUIButton::onDropdownBtn(cocos2d::CCObject*)
FUNC c68a0 1cc 0 geode::Mod::getSavedValue<SettingHackStruct>(std::__ndk1::basic_string_view<char, std::__ndk1::char_traits<char> >)
FUNC c6a6c 68 0 SettingHackStruct::~SettingHackStruct()
FUNC c6ad4 30 0 CharUI::keyDown(cocos2d::enumKeyCodes)
FUNC c6b04 34 0 {virtual override thunk({offset(-344)}, CharUI::keyDown(cocos2d::enumKeyCodes))}
FUNC c6b38 2cc 0 CharUI::setup()
FUNC c6e04 258 0 CharUI::onConfirm(cocos2d::CCObject*)
FUNC c705c 1f0 0 PrismUIButton::intChanged()
FUNC c724c 50 0 geode::Task<geode::Result<std::__ndk1::__fs::filesystem::path, std::__ndk1::basic_string<char, std::__ndk1::char_traits<char>, std::__ndk1::allocator<char> > >, std::__ndk1::monostate>::~Task()
FUNC c729c 58 0 geode::utils::file::FilePickOptions::~FilePickOptions()
FUNC c72f4 80 0 geode::utils::file::FilePickOptions::Filter::~Filter()
FUNC c7374 114 0 std::__ndk1::vector<matjson::Value, std::__ndk1::allocator<matjson::Value> >::vector[abi:ne180000](std::initializer_list<matjson::Value>)
FUNC c7488 6e4 0 MacroManager::exportMacro(std::__ndk1::basic_string<char, std::__ndk1::char_traits<char>, std::__ndk1::allocator<char> >, QuartzMacro)
FUNC c7b6c 54 0 std::__ndk1::basic_string<char, std::__ndk1::char_traits<char>, std::__ndk1::allocator<char> >::ends_with[abi:ne180000](char const*) const
FUNC c7bc0 9c 0 std::__ndk1::basic_string<char, std::__ndk1::char_traits<char>, std::__ndk1::allocator<char> >::substr[abi:ne180000](unsigned long, unsigned long) const
FUNC c7c5c d0 0 std::__ndk1::operator+[abi:ne180000]<char, std::__ndk1::char_traits<char>, std::__ndk1::allocator<char> >(std::__ndk1::allocator<char> const&, std::__ndk1::basic_string const*)
FUNC c7d2c 7c 0 std::__ndk1::basic_istringstream<char, std::__ndk1::char_traits<char>, std::__ndk1::allocator<char> >::~basic_istringstream()
FUNC c7da8 cd8 0 PrismUIButton::onInfoBtn(cocos2d::CCObject*)
FUNC c8a80 954 0 PrismUIButton::textChanged(CCTextInputNode*)
FUNC c93d4 124 0 std::__ndk1::basic_istringstream<char, std::__ndk1::char_traits<char>, std::__ndk1::allocator<char> >::basic_istringstream[abi:ne180000](std::__ndk1::basic_string<char, std::__ndk1::char_traits<char>, std::__ndk1::allocator<char> >&&, unsigned int)
FUNC c94f8 8 0 {virtual override thunk({offset(-320)}, PrismUIButton::textChanged(CCTextInputNode*))}
FUNC c9500 104 0 PrismUIButton::textInputOpened(CCTextInputNode*)
FUNC c9604 8 0 {virtual override thunk({offset(-320)}, PrismUIButton::textInputOpened(CCTextInputNode*))}
FUNC c960c 50 0 PrismUIButton::allowTextInput(CCTextInputNode*)
FUNC c965c 50 0 {virtual override thunk({offset(-320)}, PrismUIButton::allowTextInput(CCTextInputNode*))}
FUNC c96ac 334 0 PrismUIButton::textInputClosed(CCTextInputNode*)
FUNC c99e0 8 0 {virtual override thunk({offset(-320)}, PrismUIButton::textInputClosed(CCTextInputNode*))}
FUNC c99e8 1754 0 PrismUI::RegenCategory()
FUNC cb13c 444 0 PrismUI::CreateButton(char const*, int)
FUNC cb580 1a4 0 PrismUI::onSideButton(cocos2d::CCObject*)
FUNC cb724 da4 0 PrismUI::init(float, float)
FUNC cc4c8 30 0 PrismUI::keyDown(cocos2d::enumKeyCodes)
FUNC cc4f8 34 0 {virtual override thunk({offset(-344)}, PrismUI::keyDown(cocos2d::enumKeyCodes))}
FUNC cc52c 10 0 PrismUI::keybackClicked()
FUNC cc53c 1b0 0 PrismUI::onClose(cocos2d::CCObject*)
FUNC cc6ec 118 0 PrismUI::create()
FUNC cc804 ac 0 PrismUIButton::~PrismUIButton()
FUNC cc8b0 b4 0 PrismUIButton::~PrismUIButton()
FUNC cc964 4 0 cocos2d::CCKeyboardDelegate::keyDown(cocos2d::enumKeyCodes)
FUNC cc968 24 0 CharUI::~CharUI()
FUNC cc98c 8 0 {virtual override thunk({offset(-320)}, CharUI::~CharUI())}
FUNC cc994 28 0 {virtual override thunk({offset(-320)}, CharUI::~CharUI())}
FUNC cc9bc c0 0 PrismUI::~PrismUI()
FUNC cca7c c8 0 PrismUI::~PrismUI()
FUNC ccb44 cc 0 {virtual override thunk({offset(-320)}, PrismUI::~PrismUI())}
FUNC ccc10 d4 0 {virtual override thunk({offset(-320)}, PrismUI::~PrismUI())}
FUNC ccce4 6b4 0 Label::create(std::__ndk1::basic_string<char, std::__ndk1::char_traits<char>, std::__ndk1::allocator<char> >, char const*, bool)
FUNC cd398 24 0 Label::~Label()
FUNC cd3bc 2e8 0 Utils::utf8ToUtf32(std::__ndk1::basic_string<char, std::__ndk1::char_traits<char>, std::__ndk1::allocator<char> > const&)
FUNC cd6a4 12c 0 Utils::utf32ToUtf8(std::__ndk1::vector<unsigned int, std::__ndk1::allocator<unsigned int> > const&)
FUNC cd7d0 14 0 std::__ndk1::vector<unsigned int, std::__ndk1::allocator<unsigned int> >::__throw_length_error[abi:ne180000]() const
FUNC cd7e4 188 0 Lang::find(std::__ndk1::basic_string<char, std::__ndk1::char_traits<char>, std::__ndk1::allocator<char> >)
FUNC cd96c 4 0 std::__ndk1::__variant_detail::__visitation::__base::__dispatcher<(unsigned long)0>::__dispatch[abi:ne180000]<std::__ndk1::__variant_detail::__dtor<std::__ndk1::__variant_detail::__traits<long, std::__ndk1::basic_string<char, std::__ndk1::char_traits<char>, std::__ndk1::allocator<char> > >, (std::__ndk1::__variant_detail::_Trait)1>::__destroy[abi:ne180000]()::{lambda(auto:1&)#1}, std::__ndk1::__variant_detail::__base<(std::__ndk1::__variant_detail::__traits<long, std::__ndk1::basic_string<char, std::__ndk1::char_traits<char>, std::__ndk1::allocator<char> > >)1, long, std::__ndk1::allocator<char> >&>(std::__ndk1::__variant_detail::__dtor<std::__ndk1::__variant_detail::__traits<long, std::__ndk1::basic_string<char, std::__ndk1::char_traits<char>, std::__ndk1::allocator<char> > >, (std::__ndk1::__variant_detail::_Trait)1>, std::__ndk1::__variant_detail::__base<(std::__ndk1::__variant_detail::__traits<long, std::__ndk1::basic_string<char, std::__ndk1::char_traits<char>, std::__ndk1::allocator<char> > >)1, long, std::__ndk1::allocator<char> >&)
FUNC cd970 14 0 std::__ndk1::__variant_detail::__visitation::__base::__dispatcher<(unsigned long)1>::__dispatch[abi:ne180000]<std::__ndk1::__variant_detail::__dtor<std::__ndk1::__variant_detail::__traits<long, std::__ndk1::basic_string<char, std::__ndk1::char_traits<char>, std::__ndk1::allocator<char> > >, (std::__ndk1::__variant_detail::_Trait)1>::__destroy[abi:ne180000]()::{lambda(auto:1&)#1}, std::__ndk1::__variant_detail::__base<(std::__ndk1::__variant_detail::__traits<long, std::__ndk1::basic_string<char, std::__ndk1::char_traits<char>, std::__ndk1::allocator<char> > >)1, long, std::__ndk1::allocator<char> >&>(std::__ndk1::__variant_detail::__dtor<std::__ndk1::__variant_detail::__traits<long, std::__ndk1::basic_string<char, std::__ndk1::char_traits<char>, std::__ndk1::allocator<char> > >, (std::__ndk1::__variant_detail::_Trait)1>, std::__ndk1::__variant_detail::__base<(std::__ndk1::__variant_detail::__traits<long, std::__ndk1::basic_string<char, std::__ndk1::char_traits<char>, std::__ndk1::allocator<char> > >)1, long, std::__ndk1::allocator<char> >&)
FUNC cd984 4 0 std::__ndk1::__variant_detail::__visitation::__base::__dispatcher<(unsigned long)0>::__dispatch[abi:ne180000]<std::__ndk1::__variant_detail::__dtor<std::__ndk1::__variant_detail::__traits<std::__ndk1::reference_wrapper<matjson::Value const>, std::__ndk1::basic_string<char, std::__ndk1::char_traits<char>, std::__ndk1::allocator<char> > >, (std::__ndk1::__variant_detail::_Trait)1>::__destroy[abi:ne180000]()::{lambda(auto:1&)#1}, std::__ndk1::__variant_detail::__base<(std::__ndk1::__variant_detail::__traits<std::__ndk1::reference_wrapper<matjson::Value const>, std::__ndk1::basic_string<char, std::__ndk1::char_traits<char>, std::__ndk1::allocator<char> > >)1, matjson::Value const, std::__ndk1::allocator<char> >&>(std::__ndk1::__variant_detail::__dtor<std::__ndk1::__variant_detail::__traits<std::__ndk1::reference_wrapper<matjson::Value const>, std::__ndk1::basic_string<char, std::__ndk1::char_traits<char>, std::__ndk1::allocator<char> > >, (std::__ndk1::__variant_detail::_Trait)1>, std::__ndk1::__variant_detail::__base<(std::__ndk1::__variant_detail::__traits<std::__ndk1::reference_wrapper<matjson::Value const>, std::__ndk1::basic_string<char, std::__ndk1::char_traits<char>, std::__ndk1::allocator<char> > >)1, matjson::Value const, std::__ndk1::allocator<char> >&)
FUNC cd988 14 0 std::__ndk1::__variant_detail::__visitation::__base::__dispatcher<(unsigned long)1>::__dispatch[abi:ne180000]<std::__ndk1::__variant_detail::__dtor<std::__ndk1::__variant_detail::__traits<std::__ndk1::reference_wrapper<matjson::Value const>, std::__ndk1::basic_string<char, std::__ndk1::char_traits<char>, std::__ndk1::allocator<char> > >, (std::__ndk1::__variant_detail::_Trait)1>::__destroy[abi:ne180000]()::{lambda(auto:1&)#1}, std::__ndk1::__variant_detail::__base<(std::__ndk1::__variant_detail::__traits<std::__ndk1::reference_wrapper<matjson::Value const>, std::__ndk1::basic_string<char, std::__ndk1::char_traits<char>, std::__ndk1::allocator<char> > >)1, matjson::Value const, std::__ndk1::allocator<char> >&>(std::__ndk1::__variant_detail::__dtor<std::__ndk1::__variant_detail::__traits<std::__ndk1::reference_wrapper<matjson::Value const>, std::__ndk1::basic_string<char, std::__ndk1::char_traits<char>, std::__ndk1::allocator<char> > >, (std::__ndk1::__variant_detail::_Trait)1>, std::__ndk1::__variant_detail::__base<(std::__ndk1::__variant_detail::__traits<std::__ndk1::reference_wrapper<matjson::Value const>, std::__ndk1::basic_string<char, std::__ndk1::char_traits<char>, std::__ndk1::allocator<char> > >)1, matjson::Value const, std::__ndk1::allocator<char> >&)
FUNC cd99c b80 0 Utils::stringKeyArray()
FUNC ce51c 70 0 std::__ndk1::unordered_map<std::__ndk1::basic_string<char, std::__ndk1::char_traits<char>, std::__ndk1::allocator<char> >, cocos2d::enumKeyCodes, std::__ndk1::hash<std::__ndk1::basic_string<char, std::__ndk1::char_traits<char>, std::__ndk1::allocator<char> > >, std::__ndk1::equal_to<std::__ndk1::basic_string<char, std::__ndk1::char_traits<char>, std::__ndk1::allocator<char> > >, std::__ndk1::allocator<std::__ndk1::pair<std::__ndk1::basic_string<char, std::__ndk1::char_traits<char>, std::__ndk1::allocator<char> > const, cocos2d::enumKeyCodes> > >::~unordered_map[abi:ne180000]()
FUNC ce58c 70 0 std::__ndk1::unordered_map<cocos2d::enumKeyCodes, std::__ndk1::basic_string<char, std::__ndk1::char_traits<char>, std::__ndk1::allocator<char> >, std::__ndk1::hash<cocos2d::enumKeyCodes>, std::__ndk1::equal_to<cocos2d::enumKeyCodes>, std::__ndk1::allocator<std::__ndk1::pair<cocos2d::enumKeyCodes const, std::__ndk1::basic_string<char, std::__ndk1::char_traits<char>, std::__ndk1::allocator<char> > > > >::~unordered_map[abi:ne180000]()
FUNC ce5fc 70 0 std::__ndk1::__hash_table<std::__ndk1::__hash_value_type<std::__ndk1::basic_string<char, std::__ndk1::char_traits<char>, std::__ndk1::allocator<char> >, cocos2d::enumKeyCodes>, std::__ndk1::__unordered_map_hasher<std::__ndk1::basic_string<char, std::__ndk1::char_traits<char>, std::__ndk1::allocator<char> >, std::__ndk1::__hash_value_type<std::__ndk1::basic_string<char, std::__ndk1::char_traits<char>, std::__ndk1::allocator<char> >, cocos2d::enumKeyCodes>, std::__ndk1::hash<std::__ndk1::basic_string<char, std::__ndk1::char_traits<char>, std::__ndk1::allocator<char> > >, std::__ndk1::equal_to<std::__ndk1::basic_string<char, std::__ndk1::char_traits<char>, std::__ndk1::allocator<char> > >, true>, std::__ndk1::__unordered_map_equal<std::__ndk1::basic_string<char, std::__ndk1::char_traits<char>, std::__ndk1::allocator<char> >, std::__ndk1::__hash_value_type<std::__ndk1::basic_string<char, std::__ndk1::char_traits<char>, std::__ndk1::allocator<char> >, cocos2d::enumKeyCodes>, std::__ndk1::equal_to<std::__ndk1::basic_string<char, std::__ndk1::char_traits<char>, std::__ndk1::allocator<char> > >, std::__ndk1::hash<std::__ndk1::basic_string<char, std::__ndk1::char_traits<char>, std::__ndk1::allocator<char> > >, true>, std::__ndk1::allocator<std::__ndk1::__hash_value_type<std::__ndk1::basic_string<char, std::__ndk1::char_traits<char>, std::__ndk1::allocator<char> >, cocos2d::enumKeyCodes> > >::~__hash_table()
FUNC ce66c 40c 0 std::__ndk1::__hash_table<std::__ndk1::__hash_value_type<std::__ndk1::basic_string<char, std::__ndk1::char_traits<char>, std::__ndk1::allocator<char> >, cocos2d::enumKeyCodes>, std::__ndk1::__unordered_map_hasher<std::__ndk1::basic_string<char, std::__ndk1::char_traits<char>, std::__ndk1::allocator<char> >, std::__ndk1::__hash_value_type<std::__ndk1::basic_string<char, std::__ndk1::char_traits<char>, std::__ndk1::allocator<char> >, cocos2d::enumKeyCodes>, std::__ndk1::hash<std::__ndk1::basic_string<char, std::__ndk1::char_traits<char>, std::__ndk1::allocator<char> > >, std::__ndk1::equal_to<std::__ndk1::basic_string<char, std::__ndk1::char_traits<char>, std::__ndk1::allocator<char> > >, true>, std::__ndk1::__unordered_map_equal<std::__ndk1::basic_string<char, std::__ndk1::char_traits<char>, std::__ndk1::allocator<char> >, std::__ndk1::__hash_value_type<std::__ndk1::basic_string<char, std::__ndk1::char_traits<char>, std::__ndk1::allocator<char> >, cocos2d::enumKeyCodes>, std::__ndk1::equal_to<std::__ndk1::basic_string<char, std::__ndk1::char_traits<char>, std::__ndk1::allocator<char> > >, std::__ndk1::hash<std::__ndk1::basic_string<char, std::__ndk1::char_traits<char>, std::__ndk1::allocator<char> > >, true>, std::__ndk1::allocator<std::__ndk1::__hash_value_type<std::__ndk1::basic_string<char, std::__ndk1::char_traits<char>, std::__ndk1::allocator<char> >, cocos2d::enumKeyCodes> > >::__emplace_unique_key_args<std::__ndk1::basic_string<char, std::__ndk1::char_traits<char>, std::__ndk1::allocator<char> >, std::__ndk1::pair<std::__ndk1::basic_string<char, std::__ndk1::char_traits<char>, std::__ndk1::allocator<char> > const, cocos2d::enumKeyCodes> const&>(std::__ndk1::basic_string<char, std::__ndk1::char_traits<char>, std::__ndk1::allocator<char> > const&, std::__ndk1::pair<std::__ndk1::basic_string<char, std::__ndk1::char_traits<char>, std::__ndk1::allocator<char> > const, cocos2d::enumKeyCodes> const&)
FUNC cea78 50 0 std::__ndk1::unique_ptr<std::__ndk1::__hash_node<std::__ndk1::__hash_value_type<std::__ndk1::basic_string<char, std::__ndk1::char_traits<char>, std::__ndk1::allocator<char> >, cocos2d::enumKeyCodes>, void*>, std::__ndk1::__hash_node_destructor<std::__ndk1::allocator<std::__ndk1::__hash_node<std::__ndk1::__hash_value_type<std::__ndk1::basic_string<char, std::__ndk1::char_traits<char>, std::__ndk1::allocator<char> >, cocos2d::enumKeyCodes>, void*> > > >::~unique_ptr[abi:ne180000]()
FUNC ceac8 438 0 std::__ndk1::__murmur2_or_cityhash<unsigned long, (unsigned long)64>::operator()[abi:ne180000](void const*, unsigned long) const
FUNC cef00 15c 0 std::__ndk1::__hash_table<std::__ndk1::__hash_value_type<std::__ndk1::basic_string<char, std::__ndk1::char_traits<char>, std::__ndk1::allocator<char> >, cocos2d::enumKeyCodes>, std::__ndk1::__unordered_map_hasher<std::__ndk1::basic_string<char, std::__ndk1::char_traits<char>, std::__ndk1::allocator<char> >, std::__ndk1::__hash_value_type<std::__ndk1::basic_string<char, std::__ndk1::char_traits<char>, std::__ndk1::allocator<char> >, cocos2d::enumKeyCodes>, std::__ndk1::hash<std::__ndk1::basic_string<char, std::__ndk1::char_traits<char>, std::__ndk1::allocator<char> > >, std::__ndk1::equal_to<std::__ndk1::basic_string<char, std::__ndk1::char_traits<char>, std::__ndk1::allocator<char> > >, true>, std::__ndk1::__unordered_map_equal<std::__ndk1::basic_string<char, std::__ndk1::char_traits<char>, std::__ndk1::allocator<char> >, std::__ndk1::__hash_value_type<std::__ndk1::basic_string<char, std::__ndk1::char_traits<char>, std::__ndk1::allocator<char> >, cocos2d::enumKeyCodes>, std::__ndk1::equal_to<std::__ndk1::basic_string<char, std::__ndk1::char_traits<char>, std::__ndk1::allocator<char> > >, std::__ndk1::hash<std::__ndk1::basic_string<char, std::__ndk1::char_traits<char>, std::__ndk1::allocator<char> > >, true>, std::__ndk1::allocator<std::__ndk1::__hash_value_type<std::__ndk1::basic_string<char, std::__ndk1::char_traits<char>, std::__ndk1::allocator<char> >, cocos2d::enumKeyCodes> > >::__do_rehash<true>(unsigned long)
FUNC cf05c 50 0 std::__ndk1::unique_ptr<std::__ndk1::__hash_node<std::__ndk1::__hash_value_type<cocos2d::enumKeyCodes, std::__ndk1::basic_string<char, std::__ndk1::char_traits<char>, std::__ndk1::allocator<char> > >, void*>, std::__ndk1::__hash_node_destructor<std::__ndk1::allocator<std::__ndk1::__hash_node<std::__ndk1::__hash_value_type<cocos2d::enumKeyCodes, std::__ndk1::basic_string<char, std::__ndk1::char_traits<char>, std::__ndk1::allocator<char> > >, void*> > > >::~unique_ptr[abi:ne180000]()
FUNC cf0ac 4 0 std::__ndk1::__variant_detail::__visitation::__base::__dispatcher<(unsigned long)0>::__dispatch[abi:ne180000]<std::__ndk1::__variant_detail::__dtor<std::__ndk1::__variant_detail::__traits<std::__ndk1::reference_wrapper<std::__ndk1::vector<matjson::Value, std::__ndk1::allocator<matjson> > const>, std::__ndk1::basic_string<char, std::__ndk1::char_traits<char>, matjson::Value<char> > >, (std::__ndk1::__variant_detail::_Trait)1>::__destroy[abi:ne180000]()::{lambda(auto:1&)#1}, std::__ndk1::__variant_detail::__base<(std::__ndk1::__variant_detail::__traits<std::__ndk1::reference_wrapper<std::__ndk1::vector<matjson::Value, std::__ndk1::allocator<matjson> > const>, std::__ndk1::basic_string<char, std::__ndk1::char_traits<char>, matjson::Value<char> > >)1, std::__ndk1::vector<matjson::Value, std::__ndk1::allocator<matjson> > const, matjson::Value<char> >&>(std::__ndk1::__variant_detail::__dtor<std::__ndk1::__variant_detail::__traits<std::__ndk1::reference_wrapper<std::__ndk1::vector<matjson::Value, std::__ndk1::allocator<matjson> > const>, std::__ndk1::basic_string<char, std::__ndk1::char_traits<char>, matjson::Value<char> > >, (std::__ndk1::__variant_detail::_Trait)1>, std::__ndk1::__variant_detail::__base<(std::__ndk1::__variant_detail::__traits<std::__ndk1::reference_wrapper<std::__ndk1::vector<matjson::Value, std::__ndk1::allocator<matjson> > const>, std::__ndk1::basic_string<char, std::__ndk1::char_traits<char>, matjson::Value<char> > >)1, std::__ndk1::vector<matjson::Value, std::__ndk1::allocator<matjson> > const, matjson::Value<char> >&)
FUNC cf0b0 14 0 std::__ndk1::__variant_detail::__visitation::__base::__dispatcher<(unsigned long)1>::__dispatch[abi:ne180000]<std::__ndk1::__variant_detail::__dtor<std::__ndk1::__variant_detail::__traits<std::__ndk1::reference_wrapper<std::__ndk1::vector<matjson::Value, std::__ndk1::allocator<matjson> > const>, std::__ndk1::basic_string<char, std::__ndk1::char_traits<char>, matjson::Value<char> > >, (std::__ndk1::__variant_detail::_Trait)1>::__destroy[abi:ne180000]()::{lambda(auto:1&)#1}, std::__ndk1::__variant_detail::__base<(std::__ndk1::__variant_detail::__traits<std::__ndk1::reference_wrapper<std::__ndk1::vector<matjson::Value, std::__ndk1::allocator<matjson> > const>, std::__ndk1::basic_string<char, std::__ndk1::char_traits<char>, matjson::Value<char> > >)1, std::__ndk1::vector<matjson::Value, std::__ndk1::allocator<matjson> > const, matjson::Value<char> >&>(std::__ndk1::__variant_detail::__dtor<std::__ndk1::__variant_detail::__traits<std::__ndk1::reference_wrapper<std::__ndk1::vector<matjson::Value, std::__ndk1::allocator<matjson> > const>, std::__ndk1::basic_string<char, std::__ndk1::char_traits<char>, matjson::Value<char> > >, (std::__ndk1::__variant_detail::_Trait)1>, std::__ndk1::__variant_detail::__base<(std::__ndk1::__variant_detail::__traits<std::__ndk1::reference_wrapper<std::__ndk1::vector<matjson::Value, std::__ndk1::allocator<matjson> > const>, std::__ndk1::basic_string<char, std::__ndk1::char_traits<char>, matjson::Value<char> > >)1, std::__ndk1::vector<matjson::Value, std::__ndk1::allocator<matjson> > const, matjson::Value<char> >&)
FUNC cf0c4 3c 0 Hacks::applyPatches(std::__ndk1::basic_string<char, std::__ndk1::char_traits<char>, std::__ndk1::allocator<char> >, std::__ndk1::vector<matjson::Value, std::__ndk1::allocator<matjson::Value> > const&, bool)::{lambda(geode::Patch*)#1}::~{lambda(geode::Patch*)#1}()
FUNC cf100 74 0 geode::impl::ResultData<geode::Patch*, std::__ndk1::basic_string<char, std::__ndk1::char_traits<char>, std::__ndk1::allocator<char> > >::~ResultData()
FUNC cf174 1ec 0 fmt::v11::detail::value<fmt::v11::context>::format_custom_arg<std::__ndk1::optional<std::__ndk1::basic_string<char, std::__ndk1::char_traits<char>, std::__ndk1::allocator<char> > >, fmt::v11::formatter<std::__ndk1::optional<std::__ndk1::basic_string<char, std::__ndk1::char_traits<char>, std::__ndk1::allocator<char> > >, char, void> >(void*, fmt::v11::basic_format_parse_context<char>&, fmt::v11::context&)
FUNC cf360 4a4 0 fmt::v11::detail::parse_format_specs<char>(char const*, char const*, fmt::v11::detail::dynamic_format_specs<char>&, fmt::v11::basic_format_parse_context<char>&, fmt::v11::detail::type)
FUNC cf804 1a4 0 fmt::v11::detail::parse_dynamic_spec<char>(char const*, char const*, int&, fmt::v11::detail::arg_ref<char>&, fmt::v11::basic_format_parse_context<char>&)
FUNC cf9a8 17c 0 fmt::v11::detail::do_parse_arg_id<char, fmt::v11::detail::dynamic_spec_id_handler<char>&>(char const*, char const*, fmt::v11::detail::dynamic_spec_id_handler<char>&)
FUNC cfb24 150 0 fmt::v11::detail::copy_noinline<char, char const*, fmt::v11::basic_appender<char> >(char const*, char const*, fmt::v11::basic_appender<char>)
FUNC cfc74 114 0 fmt::v11::detail::handle_dynamic_spec<fmt::v11::detail::width_checker, fmt::v11::context>(int&, fmt::v11::detail::arg_ref<fmt::v11::context::char_type>, fmt::v11::context&)
FUNC cfd88 114 0 fmt::v11::detail::handle_dynamic_spec<fmt::v11::detail::precision_checker, fmt::v11::context>(int&, fmt::v11::detail::arg_ref<fmt::v11::context::char_type>, fmt::v11::context&)
FUNC cfe9c 27c 0 fmt::v11::detail::write<char, fmt::v11::basic_appender<char> >(fmt::v11::basic_appender<char>, fmt::v11::basic_string_view<char>, fmt::v11::format_specs const&)
FUNC d0118 200 0 fmt::v11::detail::write_escaped_string<char, fmt::v11::detail::counting_iterator>(fmt::v11::detail::counting_iterator, fmt::v11::basic_string_view<char>)
FUNC d0318 20c 0 fmt::v11::detail::write_padded<char, (fmt::v11::align::type)1, fmt::v11::basic_appender<char>, fmt::v11::detail::write<char, fmt::v11::basic_appender<char> >(fmt::v11::basic_appender<char>, fmt::v11::basic_string_view<char>, fmt::v11::format_specs const&)::{lambda(fmt::v11::basic_appender<char>)#1}>(fmt::v11::basic_appender<char>, fmt::v11::format_specs const&, unsigned long, unsigned long, fmt::v11::detail::write<char, fmt::v11::basic_appender<char> >(fmt::v11::basic_appender<char>, fmt::v11::basic_string_view<char>, fmt::v11::format_specs const&)::{lambda(fmt::v11::basic_appender<char>&&)#1})
FUNC d0524 3ac 0 fmt::v11::detail::for_each_codepoint<fmt::v11::detail::code_point_index(fmt::v11::basic_string_view<char>, unsigned long)::{lambda(unsigned int, fmt::v11::basic_string_view<char>)#1}>(fmt::v11::basic_string_view<char>, fmt::v11::detail::code_point_index(fmt::v11::basic_string_view<char>, unsigned long)::{lambda(unsigned int, fmt::v11::basic_string_view<char>)#1})
FUNC d08d0 194 0 fmt::v11::detail::write_escaped_cp<fmt::v11::detail::counting_iterator, char>(fmt::v11::detail::counting_iterator, fmt::v11::detail::find_escape_result<char> const&)
FUNC d0a64 17c 0 fmt::v11::detail::for_each_codepoint<fmt::v11::detail::find_escape(char const*, char const*)::{lambda(unsigned int, fmt::v11::basic_string_view<char>)#1}>(fmt::v11::basic_string_view<char>, fmt::v11::detail::find_escape(char const*, char const*)::{lambda(unsigned int, fmt::v11::basic_string_view<char>)#1})::{lambda(char const*, char const*)#1}::operator()(char const*, char const*) const
FUNC d0be0 1b8 0 fmt::v11::detail::for_each_codepoint<fmt::v11::detail::compute_width(fmt::v11::basic_string_view<char>)::count_code_points>(fmt::v11::basic_string_view<char>, fmt::v11::detail::compute_width(fmt::v11::basic_string_view<char>)::count_code_points)::{lambda(char const*, char const*)#1}::operator()(char const*, char const*) const
FUNC d0d98 1d0 0 fmt::v11::detail::fill<char, fmt::v11::basic_appender<char> >(fmt::v11::basic_appender<char>, unsigned long, fmt::v11::detail::fill_t const&)
FUNC d0f68 380 0 fmt::v11::detail::write_escaped_string<char, fmt::v11::basic_appender<char> >(fmt::v11::basic_appender<char>, fmt::v11::basic_string_view<char>)
FUNC d12e8 1e4 0 fmt::v11::detail::write_escaped_cp<fmt::v11::basic_appender<char>, char>(fmt::v11::basic_appender<char>, fmt::v11::detail::find_escape_result<char> const&)
FUNC d14cc 178 0 fmt::v11::detail::write_codepoint<(unsigned long)2, char, fmt::v11::basic_appender<char> >(fmt::v11::basic_appender<char>, char, unsigned int)
FUNC d1644 178 0 fmt::v11::detail::write_codepoint<(unsigned long)4, char, fmt::v11::basic_appender<char> >(fmt::v11::basic_appender<char>, char, unsigned int)
FUNC d17bc 178 0 fmt::v11::detail::write_codepoint<(unsigned long)8, char, fmt::v11::basic_appender<char> >(fmt::v11::basic_appender<char>, char, unsigned int)
FUNC d1934 94 0 fmt::v11::detail::get_dynamic_spec<fmt::v11::detail::width_checker, fmt::v11::basic_format_arg<fmt::v11::context> >(fmt::v11::basic_format_arg<fmt::v11::context>)
FUNC d19c8 158 0 fmt::v11::basic_format_args<fmt::v11::context>::get<char>(fmt::v11::basic_string_view<char>) const
FUNC d1b20 94 0 fmt::v11::detail::get_dynamic_spec<fmt::v11::detail::precision_checker, fmt::v11::basic_format_arg<fmt::v11::context> >(fmt::v11::basic_format_arg<fmt::v11::context>)
FUNC d1bb4 50 0 std::__ndk1::shared_ptr<geode::Patch>::~shared_ptr[abi:ne180000]()
FUNC d1c04 4 0 std::__ndk1::__variant_detail::__visitation::__base::__dispatcher<(unsigned long)0>::__dispatch[abi:ne180000]<std::__ndk1::__variant_detail::__dtor<std::__ndk1::__variant_detail::__traits<geode::Patch*, std::__ndk1::basic_string<char, std::__ndk1::char_traits<char>, std::__ndk1::allocator<char> > >, (std::__ndk1::__variant_detail::_Trait)1>::__destroy[abi:ne180000]()::{lambda(auto:1&)#1}, std::__ndk1::__variant_detail::__base<(std::__ndk1::__variant_detail::__traits<geode::Patch*, std::__ndk1::basic_string<char, std::__ndk1::char_traits<char>, std::__ndk1::allocator<char> > >)1, geode::Patch, std::__ndk1::allocator<char> >&>(std::__ndk1::__variant_detail::__dtor<std::__ndk1::__variant_detail::__traits<geode::Patch*, std::__ndk1::basic_string<char, std::__ndk1::char_traits<char>, std::__ndk1::allocator<char> > >, (std::__ndk1::__variant_detail::_Trait)1>, std::__ndk1::__variant_detail::__base<(std::__ndk1::__variant_detail::__traits<geode::Patch*, std::__ndk1::basic_string<char, std::__ndk1::char_traits<char>, std::__ndk1::allocator<char> > >)1, geode::Patch, std::__ndk1::allocator<char> >&)
FUNC d1c08 14 0 std::__ndk1::__variant_detail::__visitation::__base::__dispatcher<(unsigned long)1>::__dispatch[abi:ne180000]<std::__ndk1::__variant_detail::__dtor<std::__ndk1::__variant_detail::__traits<geode::Patch*, std::__ndk1::basic_string<char, std::__ndk1::char_traits<char>, std::__ndk1::allocator<char> > >, (std::__ndk1::__variant_detail::_Trait)1>::__destroy[abi:ne180000]()::{lambda(auto:1&)#1}, std::__ndk1::__variant_detail::__base<(std::__ndk1::__variant_detail::__traits<geode::Patch*, std::__ndk1::basic_string<char, std::__ndk1::char_traits<char>, std::__ndk1::allocator<char> > >)1, geode::Patch, std::__ndk1::allocator<char> >&>(std::__ndk1::__variant_detail::__dtor<std::__ndk1::__variant_detail::__traits<geode::Patch*, std::__ndk1::basic_string<char, std::__ndk1::char_traits<char>, std::__ndk1::allocator<char> > >, (std::__ndk1::__variant_detail::_Trait)1>, std::__ndk1::__variant_detail::__base<(std::__ndk1::__variant_detail::__traits<geode::Patch*, std::__ndk1::basic_string<char, std::__ndk1::char_traits<char>, std::__ndk1::allocator<char> > >)1, geode::Patch, std::__ndk1::allocator<char> >&)
FUNC d1c1c 44 0 std::__ndk1::__exception_guard_exceptions<std::__ndk1::vector<geode::utils::file::FilePickOptions::Filter, std::__ndk1::allocator<geode::utils::file::FilePickOptions::Filter> >::__destroy_vector>::~__exception_guard_exceptions[abi:ne180000]()
FUNC d1c60 20c 0 std::__ndk1::__uninitialized_allocator_copy_impl[abi:ne180000]<std::__ndk1::allocator<geode::utils::file::FilePickOptions::Filter>, geode::utils::file::FilePickOptions const*, geode::utils::file::FilePickOptions const, geode::utils::file::FilePickOptions*>(std::__ndk1::allocator<geode::utils::file::FilePickOptions::Filter>&, geode::utils::file::FilePickOptions const*, geode::utils::file::FilePickOptions const, geode::utils::file::FilePickOptions*)
FUNC d1e6c a4 0 std::__ndk1::__exception_guard_exceptions<std::__ndk1::_AllocatorDestroyRangeReverse<std::__ndk1::allocator<geode::utils::file::FilePickOptions::Filter>, geode::utils::file::FilePickOptions::Filter*> >::~__exception_guard_exceptions[abi:ne180000]()
FUNC d1f10 70 0 std::__ndk1::__hash_table<std::__ndk1::basic_string<char, std::__ndk1::char_traits<char>, std::__ndk1::allocator<char> >, std::__ndk1::hash<std::__ndk1::basic_string<char, std::__ndk1::char_traits<char>, std::__ndk1::allocator<char> > >, std::__ndk1::equal_to<std::__ndk1::basic_string<char, std::__ndk1::char_traits<char>, std::__ndk1::allocator<char> > >, std::__ndk1::allocator<std::__ndk1::basic_string<char, std::__ndk1::char_traits<char>, std::__ndk1::allocator<char> > > >::~__hash_table()
FUNC d1f80 15c 0 std::__ndk1::__hash_table<std::__ndk1::basic_string<char, std::__ndk1::char_traits<char>, std::__ndk1::allocator<char> >, std::__ndk1::hash<std::__ndk1::basic_string<char, std::__ndk1::char_traits<char>, std::__ndk1::allocator<char> > >, std::__ndk1::equal_to<std::__ndk1::basic_string<char, std::__ndk1::char_traits<char>, std::__ndk1::allocator<char> > >, std::__ndk1::allocator<std::__ndk1::basic_string<char, std::__ndk1::char_traits<char>, std::__ndk1::allocator<char> > > >::__do_rehash<true>(unsigned long)
FUNC d20dc 3d8 0 std::__ndk1::__hash_table<std::__ndk1::basic_string<char, std::__ndk1::char_traits<char>, std::__ndk1::allocator<char> >, std::__ndk1::hash<std::__ndk1::basic_string<char, std::__ndk1::char_traits<char>, std::__ndk1::allocator<char> > >, std::__ndk1::equal_to<std::__ndk1::basic_string<char, std::__ndk1::char_traits<char>, std::__ndk1::allocator<char> > >, std::__ndk1::allocator<std::__ndk1::basic_string<char, std::__ndk1::char_traits<char>, std::__ndk1::allocator<char> > > >::__emplace_unique_key_args<std::__ndk1::basic_string<char, std::__ndk1::char_traits<char>, std::__ndk1::allocator<char> >, std::__ndk1::basic_string<char, std::__ndk1::char_traits<char>, std::__ndk1::allocator<char> > const&>(std::__ndk1::basic_string<char, std::__ndk1::char_traits<char>, std::__ndk1::allocator<char> > const&, std::__ndk1::basic_string<char, std::__ndk1::char_traits<char>, std::__ndk1::allocator<char> > const&)
FUNC d24b4 50 0 std::__ndk1::unique_ptr<std::__ndk1::__hash_node<std::__ndk1::basic_string<char, std::__ndk1::char_traits<char>, std::__ndk1::allocator<char> >, void*>, std::__ndk1::__hash_node_destructor<std::__ndk1::allocator<std::__ndk1::__hash_node<std::__ndk1::basic_string<char, std::__ndk1::char_traits<char>, std::__ndk1::allocator<char> >, void*> > > >::~unique_ptr[abi:ne180000]()
FUNC d2504 a4 0 std::__ndk1::vector<geode::utils::file::FilePickOptions::Filter, std::__ndk1::allocator<geode::utils::file::FilePickOptions::Filter> >::__base_destruct_at_end[abi:ne180000](geode::utils::file::FilePickOptions::Filter*)
FUNC d25a8 4 0 std::__ndk1::__variant_detail::__visitation::__base::__dispatcher<(unsigned long)0>::__dispatch[abi:ne180000]<std::__ndk1::__variant_detail::__dtor<std::__ndk1::__variant_detail::__traits<float, std::__ndk1::basic_string<char, std::__ndk1::char_traits<char>, std::__ndk1::allocator<char> > >, (std::__ndk1::__variant_detail::_Trait)1>::__destroy[abi:ne180000]()::{lambda(auto:1&)#1}, std::__ndk1::__variant_detail::__base<(std::__ndk1::__variant_detail::__traits<float, std::__ndk1::basic_string<char, std::__ndk1::char_traits<char>, std::__ndk1::allocator<char> > >)1, float, std::__ndk1::allocator<char> >&>(std::__ndk1::__variant_detail::__dtor<std::__ndk1::__variant_detail::__traits<float, std::__ndk1::basic_string<char, std::__ndk1::char_traits<char>, std::__ndk1::allocator<char> > >, (std::__ndk1::__variant_detail::_Trait)1>, std::__ndk1::__variant_detail::__base<(std::__ndk1::__variant_detail::__traits<float, std::__ndk1::basic_string<char, std::__ndk1::char_traits<char>, std::__ndk1::allocator<char> > >)1, float, std::__ndk1::allocator<char> >&)
FUNC d25ac 14 0 std::__ndk1::__variant_detail::__visitation::__base::__dispatcher<(unsigned long)1>::__dispatch[abi:ne180000]<std::__ndk1::__variant_detail::__dtor<std::__ndk1::__variant_detail::__traits<float, std::__ndk1::basic_string<char, std::__ndk1::char_traits<char>, std::__ndk1::allocator<char> > >, (std::__ndk1::__variant_detail::_Trait)1>::__destroy[abi:ne180000]()::{lambda(auto:1&)#1}, std::__ndk1::__variant_detail::__base<(std::__ndk1::__variant_detail::__traits<float, std::__ndk1::basic_string<char, std::__ndk1::char_traits<char>, std::__ndk1::allocator<char> > >)1, float, std::__ndk1::allocator<char> >&>(std::__ndk1::__variant_detail::__dtor<std::__ndk1::__variant_detail::__traits<float, std::__ndk1::basic_string<char, std::__ndk1::char_traits<char>, std::__ndk1::allocator<char> > >, (std::__ndk1::__variant_detail::_Trait)1>, std::__ndk1::__variant_detail::__base<(std::__ndk1::__variant_detail::__traits<float, std::__ndk1::basic_string<char, std::__ndk1::char_traits<char>, std::__ndk1::allocator<char> > >)1, float, std::__ndk1::allocator<char> >&)
FUNC d25c0 21c 0 geode::Task<geode::Result<std::__ndk1::__fs::filesystem::path, std::__ndk1::basic_string<char, std::__ndk1::char_traits<char>, std::__ndk1::allocator<char> > >, std::__ndk1::monostate>::setListener(geode::EventListenerProtocol*)
FUNC d27dc 4 0 geode::EventListener<geode::Task<geode::Result<std::__ndk1::__fs::filesystem::path, std::__ndk1::basic_string<char, std::__ndk1::char_traits<char>, std::__ndk1::allocator<char> > >, std::__ndk1::monostate> >::getPool() const
FUNC d27e0 1ac 0 geode::EventListener<geode::Task<geode::Result<std::__ndk1::__fs::filesystem::path, std::__ndk1::basic_string<char, std::__ndk1::char_traits<char>, std::__ndk1::allocator<char> > >, std::__ndk1::monostate> >::handle(geode::Event*)
FUNC d298c 8c 0 geode::EventListener<geode::Task<geode::Result<std::__ndk1::__fs::filesystem::path, std::__ndk1::basic_string<char, std::__ndk1::char_traits<char>, std::__ndk1::allocator<char> > >, std::__ndk1::monostate> >::~EventListener()
FUNC d2a18 94 0 geode::EventListener<geode::Task<geode::Result<std::__ndk1::__fs::filesystem::path, std::__ndk1::basic_string<char, std::__ndk1::char_traits<char>, std::__ndk1::allocator<char> > >, std::__ndk1::monostate> >::~EventListener()
FUNC d2aac 50 0 geode::Task<geode::Result<std::__ndk1::__fs::filesystem::path, std::__ndk1::basic_string<char, std::__ndk1::char_traits<char>, std::__ndk1::allocator<char> > >, std::__ndk1::monostate>::setListener(geode::EventListenerProtocol*)::{lambda()#1}::~{lambda()#1}()
FUNC d2afc 50 0 geode::Task<geode::Result<std::__ndk1::__fs::filesystem::path, std::__ndk1::basic_string<char, std::__ndk1::char_traits<char>, std::__ndk1::allocator<char> > >, std::__ndk1::monostate>::setListener(geode::EventListenerProtocol*)::{lambda()#2}::~{lambda()#2}()
FUNC d2b4c 5c 0 std::__ndk1::__function::__func<geode::Task<geode::Result<std::__ndk1::__fs::filesystem::path, std::__ndk1::basic_string<char, std::__ndk1::char_traits<char>, std::__ndk1::allocator<char> > >, std::__ndk1::monostate>::setListener(geode::EventListenerProtocol*)::{lambda()#1}, std::__ndk1::allocator<geode::Task<geode::Result<std::__ndk1::__fs::filesystem::path, std::__ndk1::basic_string<char, std::__ndk1::char_traits<char>, std::__ndk1::allocator<char> > >, std::__ndk1::monostate>::setListener(geode::EventListenerProtocol*)::{lambda()#1}>, void ()>::~__func()
FUNC d2ba8 5c 0 std::__ndk1::__function::__func<geode::Task<geode::Result<std::__ndk1::__fs::filesystem::path, std::__ndk1::basic_string<char, std::__ndk1::char_traits<char>, std::__ndk1::allocator<char> > >, std::__ndk1::monostate>::setListener(geode::EventListenerProtocol*)::{lambda()#1}, std::__ndk1::allocator<geode::Task<geode::Result<std::__ndk1::__fs::filesystem::path, std::__ndk1::basic_string<char, std::__ndk1::char_traits<char>, std::__ndk1::allocator<char> > >, std::__ndk1::monostate>::setListener(geode::EventListenerProtocol*)::{lambda()#1}>, void ()>::~__func()
FUNC d2c04 58 0 std::__ndk1::__function::__func<geode::Task<geode::Result<std::__ndk1::__fs::filesystem::path, std::__ndk1::basic_string<char, std::__ndk1::char_traits<char>, std::__ndk1::allocator<char> > >, std::__ndk1::monostate>::setListener(geode::EventListenerProtocol*)::{lambda()#1}, std::__ndk1::allocator<geode::Task<geode::Result<std::__ndk1::__fs::filesystem::path, std::__ndk1::basic_string<char, std::__ndk1::char_traits<char>, std::__ndk1::allocator<char> > >, std::__ndk1::monostate>::setListener(geode::EventListenerProtocol*)::{lambda()#1}>, void ()>::__clone() const
FUNC d2c5c 4c 0 std::__ndk1::__function::__func<geode::Task<geode::Result<std::__ndk1::__fs::filesystem::path, std::__ndk1::basic_string<char, std::__ndk1::char_traits<char>, std::__ndk1::allocator<char> > >, std::__ndk1::monostate>::setListener(geode::EventListenerProtocol*)::{lambda()#1}, std::__ndk1::allocator<geode::Task<geode::Result<std::__ndk1::__fs::filesystem::path, std::__ndk1::basic_string<char, std::__ndk1::char_traits<char>, std::__ndk1::allocator<char> > >, std::__ndk1::monostate>::setListener(geode::EventListenerProtocol*)::{lambda()#1}>, void ()>::__clone(std::__ndk1::__function::__base<void ()>*) const
FUNC d2ca8 50 0 std::__ndk1::__function::__func<geode::Task<geode::Result<std::__ndk1::__fs::filesystem::path, std::__ndk1::basic_string<char, std::__ndk1::char_traits<char>, std::__ndk1::allocator<char> > >, std::__ndk1::monostate>::setListener(geode::EventListenerProtocol*)::{lambda()#1}, std::__ndk1::allocator<geode::Task<geode::Result<std::__ndk1::__fs::filesystem::path, std::__ndk1::basic_string<char, std::__ndk1::char_traits<char>, std::__ndk1::allocator<char> > >, std::__ndk1::monostate>::setListener(geode::EventListenerProtocol*)::{lambda()#1}>, void ()>::destroy()
FUNC d2cf8 50 0 std::__ndk1::__function::__func<geode::Task<geode::Result<std::__ndk1::__fs::filesystem::path, std::__ndk1::basic_string<char, std::__ndk1::char_traits<char>, std::__ndk1::allocator<char> > >, std::__ndk1::monostate>::setListener(geode::EventListenerProtocol*)::{lambda()#1}, std::__ndk1::allocator<geode::Task<geode::Result<std::__ndk1::__fs::filesystem::path, std::__ndk1::basic_string<char, std::__ndk1::char_traits<char>, std::__ndk1::allocator<char> > >, std::__ndk1::monostate>::setListener(geode::EventListenerProtocol*)::{lambda()#1}>, void ()>::destroy_deallocate()
FUNC d2d48 198 0 std::__ndk1::__function::__func<geode::Task<geode::Result<std::__ndk1::__fs::filesystem::path, std::__ndk1::basic_string<char, std::__ndk1::char_traits<char>, std::__ndk1::allocator<char> > >, std::__ndk1::monostate>::setListener(geode::EventListenerProtocol*)::{lambda()#1}, std::__ndk1::allocator<geode::Task<geode::Result<std::__ndk1::__fs::filesystem::path, std::__ndk1::basic_string<char, std::__ndk1::char_traits<char>, std::__ndk1::allocator<char> > >, std::__ndk1::monostate>::setListener(geode::EventListenerProtocol*)::{lambda()#1}>, void ()>::operator()()
FUNC d2ee0 1c 0 std::__ndk1::__function::__func<geode::Task<geode::Result<std::__ndk1::__fs::filesystem::path, std::__ndk1::basic_string<char, std::__ndk1::char_traits<char>, std::__ndk1::allocator<char> > >, std::__ndk1::monostate>::setListener(geode::EventListenerProtocol*)::{lambda()#1}, std::__ndk1::allocator<geode::Task<geode::Result<std::__ndk1::__fs::filesystem::path, std::__ndk1::basic_string<char, std::__ndk1::char_traits<char>, std::__ndk1::allocator<char> > >, std::__ndk1::monostate>::setListener(geode::EventListenerProtocol*)::{lambda()#1}>, void ()>::target(std::type_info const&) const
FUNC d2efc c 0 std::__ndk1::__function::__func<geode::Task<geode::Result<std::__ndk1::__fs::filesystem::path, std::__ndk1::basic_string<char, std::__ndk1::char_traits<char>, std::__ndk1::allocator<char> > >, std::__ndk1::monostate>::setListener(geode::EventListenerProtocol*)::{lambda()#1}, std::__ndk1::allocator<geode::Task<geode::Result<std::__ndk1::__fs::filesystem::path, std::__ndk1::basic_string<char, std::__ndk1::char_traits<char>, std::__ndk1::allocator<char> > >, std::__ndk1::monostate>::setListener(geode::EventListenerProtocol*)::{lambda()#1}>, void ()>::target_type() const
FUNC d2f08 50 0 geode::Task<geode::Result<std::__ndk1::__fs::filesystem::path, std::__ndk1::basic_string<char, std::__ndk1::char_traits<char>, std::__ndk1::allocator<char> > >, std::__ndk1::monostate>::Event::~Event()
FUNC d2f58 58 0 geode::Task<geode::Result<std::__ndk1::__fs::filesystem::path, std::__ndk1::basic_string<char, std::__ndk1::char_traits<char>, std::__ndk1::allocator<char> > >, std::__ndk1::monostate>::Event::~Event()
FUNC d2fb0 5c 0 std::__ndk1::__function::__func<geode::Task<geode::Result<std::__ndk1::__fs::filesystem::path, std::__ndk1::basic_string<char, std::__ndk1::char_traits<char>, std::__ndk1::allocator<char> > >, std::__ndk1::monostate>::setListener(geode::EventListenerProtocol*)::{lambda()#2}, std::__ndk1::allocator<geode::Task<geode::Result<std::__ndk1::__fs::filesystem::path, std::__ndk1::basic_string<char, std::__ndk1::char_traits<char>, std::__ndk1::allocator<char> > >, std::__ndk1::monostate>::setListener(geode::EventListenerProtocol*)::{lambda()#2}>, void ()>::~__func()
FUNC d300c 5c 0 std::__ndk1::__function::__func<geode::Task<geode::Result<std::__ndk1::__fs::filesystem::path, std::__ndk1::basic_string<char, std::__ndk1::char_traits<char>, std::__ndk1::allocator<char> > >, std::__ndk1::monostate>::setListener(geode::EventListenerProtocol*)::{lambda()#2}, std::__ndk1::allocator<geode::Task<geode::Result<std::__ndk1::__fs::filesystem::path, std::__ndk1::basic_string<char, std::__ndk1::char_traits<char>, std::__ndk1::allocator<char> > >, std::__ndk1::monostate>::setListener(geode::EventListenerProtocol*)::{lambda()#2}>, void ()>::~__func()
FUNC d3068 58 0 std::__ndk1::__function::__func<geode::Task<geode::Result<std::__ndk1::__fs::filesystem::path, std::__ndk1::basic_string<char, std::__ndk1::char_traits<char>, std::__ndk1::allocator<char> > >, std::__ndk1::monostate>::setListener(geode::EventListenerProtocol*)::{lambda()#2}, std::__ndk1::allocator<geode::Task<geode::Result<std::__ndk1::__fs::filesystem::path, std::__ndk1::basic_string<char, std::__ndk1::char_traits<char>, std::__ndk1::allocator<char> > >, std::__ndk1::monostate>::setListener(geode::EventListenerProtocol*)::{lambda()#2}>, void ()>::__clone() const
FUNC d30c0 4c 0 std::__ndk1::__function::__func<geode::Task<geode::Result<std::__ndk1::__fs::filesystem::path, std::__ndk1::basic_string<char, std::__ndk1::char_traits<char>, std::__ndk1::allocator<char> > >, std::__ndk1::monostate>::setListener(geode::EventListenerProtocol*)::{lambda()#2}, std::__ndk1::allocator<geode::Task<geode::Result<std::__ndk1::__fs::filesystem::path, std::__ndk1::basic_string<char, std::__ndk1::char_traits<char>, std::__ndk1::allocator<char> > >, std::__ndk1::monostate>::setListener(geode::EventListenerProtocol*)::{lambda()#2}>, void ()>::__clone(std::__ndk1::__function::__base<void ()>*) const
FUNC d310c 50 0 std::__ndk1::__function::__func<geode::Task<geode::Result<std::__ndk1::__fs::filesystem::path, std::__ndk1::basic_string<char, std::__ndk1::char_traits<char>, std::__ndk1::allocator<char> > >, std::__ndk1::monostate>::setListener(geode::EventListenerProtocol*)::{lambda()#2}, std::__ndk1::allocator<geode::Task<geode::Result<std::__ndk1::__fs::filesystem::path, std::__ndk1::basic_string<char, std::__ndk1::char_traits<char>, std::__ndk1::allocator<char> > >, std::__ndk1::monostate>::setListener(geode::EventListenerProtocol*)::{lambda()#2}>, void ()>::destroy()
FUNC d315c 50 0 std::__ndk1::__function::__func<geode::Task<geode::Result<std::__ndk1::__fs::filesystem::path, std::__ndk1::basic_string<char, std::__ndk1::char_traits<char>, std::__ndk1::allocator<char> > >, std::__ndk1::monostate>::setListener(geode::EventListenerProtocol*)::{lambda()#2}, std::__ndk1::allocator<geode::Task<geode::Result<std::__ndk1::__fs::filesystem::path, std::__ndk1::basic_string<char, std::__ndk1::char_traits<char>, std::__ndk1::allocator<char> > >, std::__ndk1::monostate>::setListener(geode::EventListenerProtocol*)::{lambda()#2}>, void ()>::destroy_deallocate()
FUNC d31ac 188 0 std::__ndk1::__function::__func<geode::Task<geode::Result<std::__ndk1::__fs::filesystem::path, std::__ndk1::basic_string<char, std::__ndk1::char_traits<char>, std::__ndk1::allocator<char> > >, std::__ndk1::monostate>::setListener(geode::EventListenerProtocol*)::{lambda()#2}, std::__ndk1::allocator<geode::Task<geode::Result<std::__ndk1::__fs::filesystem::path, std::__ndk1::basic_string<char, std::__ndk1::char_traits<char>, std::__ndk1::allocator<char> > >, std::__ndk1::monostate>::setListener(geode::EventListenerProtocol*)::{lambda()#2}>, void ()>::operator()()
FUNC d3334 1c 0 std::__ndk1::__function::__func<geode::Task<geode::Result<std::__ndk1::__fs::filesystem::path, std::__ndk1::basic_string<char, std::__ndk1::char_traits<char>, std::__ndk1::allocator<char> > >, std::__ndk1::monostate>::setListener(geode::EventListenerProtocol*)::{lambda()#2}, std::__ndk1::allocator<geode::Task<geode::Result<std::__ndk1::__fs::filesystem::path, std::__ndk1::basic_string<char, std::__ndk1::char_traits<char>, std::__ndk1::allocator<char> > >, std::__ndk1::monostate>::setListener(geode::EventListenerProtocol*)::{lambda()#2}>, void ()>::target(std::type_info const&) const
FUNC d3350 c 0 std::__ndk1::__function::__func<geode::Task<geode::Result<std::__ndk1::__fs::filesystem::path, std::__ndk1::basic_string<char, std::__ndk1::char_traits<char>, std::__ndk1::allocator<char> > >, std::__ndk1::monostate>::setListener(geode::EventListenerProtocol*)::{lambda()#2}, std::__ndk1::allocator<geode::Task<geode::Result<std::__ndk1::__fs::filesystem::path, std::__ndk1::basic_string<char, std::__ndk1::char_traits<char>, std::__ndk1::allocator<char> > >, std::__ndk1::monostate>::setListener(geode::EventListenerProtocol*)::{lambda()#2}>, void ()>::target_type() const
FUNC d335c 74 0 geode::impl::ResultData<SettingHackStruct, std::__ndk1::basic_string<char, std::__ndk1::char_traits<char>, std::__ndk1::allocator<char> > >::~ResultData()
FUNC d33d0 1f4 0 matjson::Serialize<SettingHackStruct>::fromJson(matjson::Value const&)
FUNC d35c4 68 0 std::__ndk1::__variant_detail::__visitation::__base::__dispatcher<(unsigned long)0>::__dispatch[abi:ne180000]<std::__ndk1::__variant_detail::__dtor<std::__ndk1::__variant_detail::__traits<SettingHackStruct, std::__ndk1::basic_string<char, std::__ndk1::char_traits<char>, std::__ndk1::allocator<char> > >, (std::__ndk1::__variant_detail::_Trait)1>::__destroy[abi:ne180000]()::{lambda(auto:1&)#1}, std::__ndk1::__variant_detail::__base<(std::__ndk1::__variant_detail::__traits<SettingHackStruct, std::__ndk1::basic_string<char, std::__ndk1::char_traits<char>, std::__ndk1::allocator<char> > >)1, std::__ndk1::__variant_detail::__traits, std::__ndk1::allocator<char> >&>(std::__ndk1::__variant_detail::__dtor<std::__ndk1::__variant_detail::__traits<SettingHackStruct, std::__ndk1::basic_string<char, std::__ndk1::char_traits<char>, std::__ndk1::allocator<char> > >, (std::__ndk1::__variant_detail::_Trait)1>, std::__ndk1::__variant_detail::__base<(std::__ndk1::__variant_detail::__traits<SettingHackStruct, std::__ndk1::basic_string<char, std::__ndk1::char_traits<char>, std::__ndk1::allocator<char> > >)1, std::__ndk1::__variant_detail::__traits, std::__ndk1::allocator<char> >&)
FUNC d362c 14 0 std::__ndk1::__variant_detail::__visitation::__base::__dispatcher<(unsigned long)1>::__dispatch[abi:ne180000]<std::__ndk1::__variant_detail::__dtor<std::__ndk1::__variant_detail::__traits<SettingHackStruct, std::__ndk1::basic_string<char, std::__ndk1::char_traits<char>, std::__ndk1::allocator<char> > >, (std::__ndk1::__variant_detail::_Trait)1>::__destroy[abi:ne180000]()::{lambda(auto:1&)#1}, std::__ndk1::__variant_detail::__base<(std::__ndk1::__variant_detail::__traits<SettingHackStruct, std::__ndk1::basic_string<char, std::__ndk1::char_traits<char>, std::__ndk1::allocator<char> > >)1, std::__ndk1::__variant_detail::__traits, std::__ndk1::allocator<char> >&>(std::__ndk1::__variant_detail::__dtor<std::__ndk1::__variant_detail::__traits<SettingHackStruct, std::__ndk1::basic_string<char, std::__ndk1::char_traits<char>, std::__ndk1::allocator<char> > >, (std::__ndk1::__variant_detail::_Trait)1>, std::__ndk1::__variant_detail::__base<(std::__ndk1::__variant_detail::__traits<SettingHackStruct, std::__ndk1::basic_string<char, std::__ndk1::char_traits<char>, std::__ndk1::allocator<char> > >)1, std::__ndk1::__variant_detail::__traits, std::__ndk1::allocator<char> >&)
FUNC d3640 4 0 std::__ndk1::__function::__func<PrismUIButton::onBtn(cocos2d::CCObject*)::$_0, std::__ndk1::allocator<PrismUIButton::onBtn(cocos2d::CCObject*)::$_0>, void (FLAlertLayer*, bool)>::~__func()
FUNC d3644 38 0 std::__ndk1::__function::__func<PrismUIButton::onBtn(cocos2d::CCObject*)::$_0, std::__ndk1::allocator<PrismUIButton::onBtn(cocos2d::CCObject*)::$_0>, void (FLAlertLayer*, bool)>::__clone() const
FUNC d367c 18 0 std::__ndk1::__function::__func<PrismUIButton::onBtn(cocos2d::CCObject*)::$_0, std::__ndk1::allocator<PrismUIButton::onBtn(cocos2d::CCObject*)::$_0>, void (FLAlertLayer*, bool)>::__clone(std::__ndk1::__function::__base<void (FLAlertLayer*, bool)>*) const
FUNC d3694 4 0 std::__ndk1::__function::__func<PrismUIButton::onBtn(cocos2d::CCObject*)::$_0, std::__ndk1::allocator<PrismUIButton::onBtn(cocos2d::CCObject*)::$_0>, void (FLAlertLayer*, bool)>::destroy()
FUNC d3698 4 0 std::__ndk1::__function::__func<PrismUIButton::onBtn(cocos2d::CCObject*)::$_0, std::__ndk1::allocator<PrismUIButton::onBtn(cocos2d::CCObject*)::$_0>, void (FLAlertLayer*, bool)>::destroy_deallocate()
FUNC d369c 9c 0 std::__ndk1::__function::__func<PrismUIButton::onBtn(cocos2d::CCObject*)::$_0, std::__ndk1::allocator<PrismUIButton::onBtn(cocos2d::CCObject*)::$_0>, void (FLAlertLayer*, bool)>::operator()(FLAlertLayer*&&, bool&&)
FUNC d3738 1c 0 std::__ndk1::__function::__func<PrismUIButton::onBtn(cocos2d::CCObject*)::$_0, std::__ndk1::allocator<PrismUIButton::onBtn(cocos2d::CCObject*)::$_0>, void (FLAlertLayer*, bool)>::target(std::type_info const&) const
FUNC d3754 c 0 std::__ndk1::__function::__func<PrismUIButton::onBtn(cocos2d::CCObject*)::$_0, std::__ndk1::allocator<PrismUIButton::onBtn(cocos2d::CCObject*)::$_0>, void (FLAlertLayer*, bool)>::target_type() const
FUNC d3760 1cac 0 Hacks::processJSON(bool)
FUNC d540c b0 0 HackItem::~HackItem()
FUNC d54bc e0 0 Utils::keyToEnumKey(std::__ndk1::basic_string<char, std::__ndk1::char_traits<char>, std::__ndk1::allocator<char> >)
FUNC d559c 260 0 std::__ndk1::vector<HackItem, std::__ndk1::allocator<HackItem> >::__assign_with_size[abi:ne180000]<HackItem const*, HackItem const>(HackItem const*, HackItem const, long)
FUNC d57fc 178 0 HackItem::HackItem(HackItem const&)
FUNC d5974 b0 0 _ZNSt6__ndk112__destroy_atB8ne180000I8HackItemTnNS_9enable_ifIXntsr8is_arrayIT_EE5valueEiE4typeELi0EEEvPS3_
FUNC d5a24 1c4 0 HackItem::operator=(HackItem const&)
FUNC d5be8 14 0 std::__ndk1::vector<HackItem, std::__ndk1::allocator<HackItem> >::__throw_length_error[abi:ne180000]() const
FUNC d5bfc 160 0 Utils::arrayContainsString(std::__ndk1::vector<matjson::Value, std::__ndk1::allocator<matjson::Value> > const&, std::__ndk1::basic_string<char, std::__ndk1::char_traits<char>, std::__ndk1::allocator<char> > const&)::{lambda(matjson::Value const&)#1}::operator()(matjson::Value const&) const
FUNC d5d5c 4 0 std::__ndk1::__variant_detail::__visitation::__base::__dispatcher<(unsigned long)0>::__dispatch[abi:ne180000]<std::__ndk1::__variant_detail::__dtor<std::__ndk1::__variant_detail::__traits<bool, std::__ndk1::basic_string<char, std::__ndk1::char_traits<char>, std::__ndk1::allocator<char> > >, (std::__ndk1::__variant_detail::_Trait)1>::__destroy[abi:ne180000]()::{lambda(auto:1&)#1}, std::__ndk1::__variant_detail::__base<(std::__ndk1::__variant_detail::__traits<bool, std::__ndk1::basic_string<char, std::__ndk1::char_traits<char>, std::__ndk1::allocator<char> > >)1, bool, std::__ndk1::allocator<char> >&>(std::__ndk1::__variant_detail::__dtor<std::__ndk1::__variant_detail::__traits<bool, std::__ndk1::basic_string<char, std::__ndk1::char_traits<char>, std::__ndk1::allocator<char> > >, (std::__ndk1::__variant_detail::_Trait)1>, std::__ndk1::__variant_detail::__base<(std::__ndk1::__variant_detail::__traits<bool, std::__ndk1::basic_string<char, std::__ndk1::char_traits<char>, std::__ndk1::allocator<char> > >)1, bool, std::__ndk1::allocator<char> >&)
FUNC d5d60 14 0 std::__ndk1::__variant_detail::__visitation::__base::__dispatcher<(unsigned long)1>::__dispatch[abi:ne180000]<std::__ndk1::__variant_detail::__dtor<std::__ndk1::__variant_detail::__traits<bool, std::__ndk1::basic_string<char, std::__ndk1::char_traits<char>, std::__ndk1::allocator<char> > >, (std::__ndk1::__variant_detail::_Trait)1>::__destroy[abi:ne180000]()::{lambda(auto:1&)#1}, std::__ndk1::__variant_detail::__base<(std::__ndk1::__variant_detail::__traits<bool, std::__ndk1::basic_string<char, std::__ndk1::char_traits<char>, std::__ndk1::allocator<char> > >)1, bool, std::__ndk1::allocator<char> >&>(std::__ndk1::__variant_detail::__dtor<std::__ndk1::__variant_detail::__traits<bool, std::__ndk1::basic_string<char, std::__ndk1::char_traits<char>, std::__ndk1::allocator<char> > >, (std::__ndk1::__variant_detail::_Trait)1>, std::__ndk1::__variant_detail::__base<(std::__ndk1::__variant_detail::__traits<bool, std::__ndk1::basic_string<char, std::__ndk1::char_traits<char>, std::__ndk1::allocator<char> > >)1, bool, std::__ndk1::allocator<char> >&)
FUNC d5d74 268 0 std::__ndk1::vector<HackItem, std::__ndk1::allocator<HackItem> >::__push_back_slow_path<HackItem const&>(HackItem const&)
FUNC d5fdc 54 0 std::__ndk1::__split_buffer<HackItem, std::__ndk1::allocator<HackItem>&>::~__split_buffer()
FUNC d6030 1bc 0 std::__ndk1::__hash_table<std::__ndk1::__hash_value_type<std::__ndk1::basic_string<char, std::__ndk1::char_traits<char>, std::__ndk1::allocator<char> >, cocos2d::enumKeyCodes>, std::__ndk1::__unordered_map_hasher<std::__ndk1::basic_string<char, std::__ndk1::char_traits<char>, std::__ndk1::allocator<char> >, std::__ndk1::__hash_value_type<std::__ndk1::basic_string<char, std::__ndk1::char_traits<char>, std::__ndk1::allocator<char> >, cocos2d::enumKeyCodes>, std::__ndk1::hash<std::__ndk1::basic_string<char, std::__ndk1::char_traits<char>, std::__ndk1::allocator<char> > >, std::__ndk1::equal_to<std::__ndk1::basic_string<char, std::__ndk1::char_traits<char>, std::__ndk1::allocator<char> > >, true>, std::__ndk1::__unordered_map_equal<std::__ndk1::basic_string<char, std::__ndk1::char_traits<char>, std::__ndk1::allocator<char> >, std::__ndk1::__hash_value_type<std::__ndk1::basic_string<char, std::__ndk1::char_traits<char>, std::__ndk1::allocator<char> >, cocos2d::enumKeyCodes>, std::__ndk1::equal_to<std::__ndk1::basic_string<char, std::__ndk1::char_traits<char>, std::__ndk1::allocator<char> > >, std::__ndk1::hash<std::__ndk1::basic_string<char, std::__ndk1::char_traits<char>, std::__ndk1::allocator<char> > >, true>, std::__ndk1::allocator<std::__ndk1::__hash_value_type<std::__ndk1::basic_string<char, std::__ndk1::char_traits<char>, std::__ndk1::allocator<char> >, cocos2d::enumKeyCodes> > >::find<std::__ndk1::basic_string<char, std::__ndk1::char_traits<char>, std::__ndk1::allocator<char> > >(std::__ndk1::basic_string<char, std::__ndk1::char_traits<char>, std::__ndk1::allocator<char> > const&)
FUNC d61ec 168 0 std::__ndk1::__function::__value_func<void (geode::Task<geode::Result<std::__ndk1::__fs::filesystem::path, std::__ndk1::basic_string<char, std::__ndk1::char_traits<char>, std::__ndk1::allocator<char> > >, std::__ndk1::monostate>::Event*)>::swap[abi:ne180000](std::__ndk1::__function::__value_func<void (geode::Task<geode::Result<std::__ndk1::__fs::filesystem::path, std::__ndk1::basic_string<char, std::__ndk1::char_traits<char>, std::__ndk1::allocator<char> > >, std::__ndk1::monostate>::Event*)>&)
FUNC d6354 4 0 std::__ndk1::__function::__func<geode::Task<geode::Result<std::__ndk1::__fs::filesystem::path, std::__ndk1::basic_string<char, std::__ndk1::char_traits<char>, std::__ndk1::allocator<char> > >, std::__ndk1::monostate>::listen<PrismUIButton::onBtn(cocos2d::CCObject*)::$_1, geode::Task<geode::Result<std::__ndk1::__fs::filesystem::path, std::__ndk1::basic_string<char, std::__ndk1::char_traits<char>, std::__ndk1::allocator<char> > >, std::__ndk1::monostate>::listen<PrismUIButton::onBtn(cocos2d::CCObject*)::$_1>(PrismUIButton::onBtn(cocos2d::CCObject*)::$_1&&) const::{lambda(auto:1 const&)#1}, geode::Task<geode::Result<std::__ndk1::__fs::filesystem::path, std::__ndk1::basic_string<char, std::__ndk1::char_traits<char>, std::__ndk1::allocator<char> > >, std::__ndk1::monostate>::listen<PrismUIButton::onBtn(cocos2d::CCObject*)::$_1>(PrismUIButton::onBtn(cocos2d::CCObject*)::$_1&&) const::{lambda()#1}>(PrismUIButton::onBtn(cocos2d::CCObject*)::$_1&&, geode::Task<geode::Result<std::__ndk1::__fs::filesystem::path, std::__ndk1::basic_string<char, std::__ndk1::char_traits<char>, std::__ndk1::allocator<char> > >, std::__ndk1::monostate>::listen<PrismUIButton::onBtn(cocos2d::CCObject*)::$_1>(PrismUIButton::onBtn(cocos2d::CCObject*)::$_1&&) const::{lambda(auto:1 const&)#1}, geode::Task<geode::Result<std::__ndk1::__fs::filesystem::path, std::__ndk1::basic_string<char, std::__ndk1::char_traits<char>, std::__ndk1::allocator<char> > >, std::__ndk1::monostate>::listen<PrismUIButton::onBtn(cocos2d::CCObject*)::$_1>(PrismUIButton::onBtn(cocos2d::CCObject*)::$_1&&) const::{lambda()#1}&&) const::{lambda(geode::Task<geode::Result<std::__ndk1::__fs::filesystem::path, std::__ndk1::basic_string<char, std::__ndk1::char_traits<char>, std::__ndk1::allocator<char> > >, std::__ndk1::monostate>::Event*)#1}, std::__ndk1::allocator<geode::Task<geode::Result<std::__ndk1::__fs::filesystem::path, std::__ndk1::basic_string<char, std::__ndk1::char_traits<char>, std::__ndk1::allocator<char> > >, std::__ndk1::monostate>::listen<PrismUIButton::onBtn(cocos2d::CCObject*)::$_1, geode::Task<geode::Result<std::__ndk1::__fs::filesystem::path, std::__ndk1::basic_string<char, std::__ndk1::char_traits<char>, std::__ndk1::allocator<char> > >, std::__ndk1::monostate>::listen<PrismUIButton::onBtn(cocos2d::CCObject*)::$_1>(PrismUIButton::onBtn(cocos2d::CCObject*)::$_1&&) const::{lambda(auto:1 const&)#1}, geode::Task<geode::Result<std::__ndk1::__fs::filesystem::path, std::__ndk1::basic_string<char, std::__ndk1::char_traits<char>, std::__ndk1::allocator<char> > >, std::__ndk1::monostate>::listen<PrismUIButton::onBtn(cocos2d::CCObject*)::$_1>(PrismUIButton::onBtn(cocos2d::CCObject*)::$_1&&) const::{lambda()#1}>(PrismUIButton::onBtn(cocos2d::CCObject*)::$_1&&, geode::Task<geode::Result<std::__ndk1::__fs::filesystem::path, std::__ndk1::basic_string<char, std::__ndk1::char_traits<char>, std::__ndk1::allocator<char> > >, std::__ndk1::monostate>::listen<PrismUIButton::onBtn(cocos2d::CCObject*)::$_1>(PrismUIButton::onBtn(cocos2d::CCObject*)::$_1&&) const::{lambda(auto:1 const&)#1}, geode::Task<geode::Result<std::__ndk1::__fs::filesystem::path, std::__ndk1::basic_string<char, std::__ndk1::char_traits<char>, std::__ndk1::allocator<char> > >, std::__ndk1::monostate>::listen<PrismUIButton::onBtn(cocos2d::CCObject*)::$_1>(PrismUIButton::onBtn(cocos2d::CCObject*)::$_1&&) const::{lambda()#1}&&) const::{lambda(geode::Task<geode::Result<std::__ndk1::__fs::filesystem::path, std::__ndk1::basic_string<char, std::__ndk1::char_traits<char>, std::__ndk1::allocator<char> > >, std::__ndk1::monostate>::Event*)#1}>, void (geode::Task<geode::Result<std::__ndk1::__fs::filesystem::path, std::__ndk1::basic_string<char, std::__ndk1::char_traits<char>, std::__ndk1::allocator<char> > >, std::__ndk1::monostate>::Event*)>::~__func()
FUNC d6358 38 0 std::__ndk1::__function::__func<geode::Task<geode::Result<std::__ndk1::__fs::filesystem::path, std::__ndk1::basic_string<char, std::__ndk1::char_traits<char>, std::__ndk1::allocator<char> > >, std::__ndk1::monostate>::listen<PrismUIButton::onBtn(cocos2d::CCObject*)::$_1, geode::Task<geode::Result<std::__ndk1::__fs::filesystem::path, std::__ndk1::basic_string<char, std::__ndk1::char_traits<char>, std::__ndk1::allocator<char> > >, std::__ndk1::monostate>::listen<PrismUIButton::onBtn(cocos2d::CCObject*)::$_1>(PrismUIButton::onBtn(cocos2d::CCObject*)::$_1&&) const::{lambda(auto:1 const&)#1}, geode::Task<geode::Result<std::__ndk1::__fs::filesystem::path, std::__ndk1::basic_string<char, std::__ndk1::char_traits<char>, std::__ndk1::allocator<char> > >, std::__ndk1::monostate>::listen<PrismUIButton::onBtn(cocos2d::CCObject*)::$_1>(PrismUIButton::onBtn(cocos2d::CCObject*)::$_1&&) const::{lambda()#1}>(PrismUIButton::onBtn(cocos2d::CCObject*)::$_1&&, geode::Task<geode::Result<std::__ndk1::__fs::filesystem::path, std::__ndk1::basic_string<char, std::__ndk1::char_traits<char>, std::__ndk1::allocator<char> > >, std::__ndk1::monostate>::listen<PrismUIButton::onBtn(cocos2d::CCObject*)::$_1>(PrismUIButton::onBtn(cocos2d::CCObject*)::$_1&&) const::{lambda(auto:1 const&)#1}, geode::Task<geode::Result<std::__ndk1::__fs::filesystem::path, std::__ndk1::basic_string<char, std::__ndk1::char_traits<char>, std::__ndk1::allocator<char> > >, std::__ndk1::monostate>::listen<PrismUIButton::onBtn(cocos2d::CCObject*)::$_1>(PrismUIButton::onBtn(cocos2d::CCObject*)::$_1&&) const::{lambda()#1}&&) const::{lambda(geode::Task<geode::Result<std::__ndk1::__fs::filesystem::path, std::__ndk1::basic_string<char, std::__ndk1::char_traits<char>, std::__ndk1::allocator<char> > >, std::__ndk1::monostate>::Event*)#1}, std::__ndk1::allocator<geode::Task<geode::Result<std::__ndk1::__fs::filesystem::path, std::__ndk1::basic_string<char, std::__ndk1::char_traits<char>, std::__ndk1::allocator<char> > >, std::__ndk1::monostate>::listen<PrismUIButton::onBtn(cocos2d::CCObject*)::$_1, geode::Task<geode::Result<std::__ndk1::__fs::filesystem::path, std::__ndk1::basic_string<char, std::__ndk1::char_traits<char>, std::__ndk1::allocator<char> > >, std::__ndk1::monostate>::listen<PrismUIButton::onBtn(cocos2d::CCObject*)::$_1>(PrismUIButton::onBtn(cocos2d::CCObject*)::$_1&&) const::{lambda(auto:1 const&)#1}, geode::Task<geode::Result<std::__ndk1::__fs::filesystem::path, std::__ndk1::basic_string<char, std::__ndk1::char_traits<char>, std::__ndk1::allocator<char> > >, std::__ndk1::monostate>::listen<PrismUIButton::onBtn(cocos2d::CCObject*)::$_1>(PrismUIButton::onBtn(cocos2d::CCObject*)::$_1&&) const::{lambda()#1}>(PrismUIButton::onBtn(cocos2d::CCObject*)::$_1&&, geode::Task<geode::Result<std::__ndk1::__fs::filesystem::path, std::__ndk1::basic_string<char, std::__ndk1::char_traits<char>, std::__ndk1::allocator<char> > >, std::__ndk1::monostate>::listen<PrismUIButton::onBtn(cocos2d::CCObject*)::$_1>(PrismUIButton::onBtn(cocos2d::CCObject*)::$_1&&) const::{lambda(auto:1 const&)#1}, geode::Task<geode::Result<std::__ndk1::__fs::filesystem::path, std::__ndk1::basic_string<char, std::__ndk1::char_traits<char>, std::__ndk1::allocator<char> > >, std::__ndk1::monostate>::listen<PrismUIButton::onBtn(cocos2d::CCObject*)::$_1>(PrismUIButton::onBtn(cocos2d::CCObject*)::$_1&&) const::{lambda()#1}&&) const::{lambda(geode::Task<geode::Result<std::__ndk1::__fs::filesystem::path, std::__ndk1::basic_string<char, std::__ndk1::char_traits<char>, std::__ndk1::allocator<char> > >, std::__ndk1::monostate>::Event*)#1}>, void (geode::Task<geode::Result<std::__ndk1::__fs::filesystem::path, std::__ndk1::basic_string<char, std::__ndk1::char_traits<char>, std::__ndk1::allocator<char> > >, std::__ndk1::monostate>::Event*)>::__clone() const
FUNC d6390 18 0 std::__ndk1::__function::__func<geode::Task<geode::Result<std::__ndk1::__fs::filesystem::path, std::__ndk1::basic_string<char, std::__ndk1::char_traits<char>, std::__ndk1::allocator<char> > >, std::__ndk1::monostate>::listen<PrismUIButton::onBtn(cocos2d::CCObject*)::$_1, geode::Task<geode::Result<std::__ndk1::__fs::filesystem::path, std::__ndk1::basic_string<char, std::__ndk1::char_traits<char>, std::__ndk1::allocator<char> > >, std::__ndk1::monostate>::listen<PrismUIButton::onBtn(cocos2d::CCObject*)::$_1>(PrismUIButton::onBtn(cocos2d::CCObject*)::$_1&&) const::{lambda(auto:1 const&)#1}, geode::Task<geode::Result<std::__ndk1::__fs::filesystem::path, std::__ndk1::basic_string<char, std::__ndk1::char_traits<char>, std::__ndk1::allocator<char> > >, std::__ndk1::monostate>::listen<PrismUIButton::onBtn(cocos2d::CCObject*)::$_1>(PrismUIButton::onBtn(cocos2d::CCObject*)::$_1&&) const::{lambda()#1}>(PrismUIButton::onBtn(cocos2d::CCObject*)::$_1&&, geode::Task<geode::Result<std::__ndk1::__fs::filesystem::path, std::__ndk1::basic_string<char, std::__ndk1::char_traits<char>, std::__ndk1::allocator<char> > >, std::__ndk1::monostate>::listen<PrismUIButton::onBtn(cocos2d::CCObject*)::$_1>(PrismUIButton::onBtn(cocos2d::CCObject*)::$_1&&) const::{lambda(auto:1 const&)#1}, geode::Task<geode::Result<std::__ndk1::__fs::filesystem::path, std::__ndk1::basic_string<char, std::__ndk1::char_traits<char>, std::__ndk1::allocator<char> > >, std::__ndk1::monostate>::listen<PrismUIButton::onBtn(cocos2d::CCObject*)::$_1>(PrismUIButton::onBtn(cocos2d::CCObject*)::$_1&&) const::{lambda()#1}&&) const::{lambda(geode::Task<geode::Result<std::__ndk1::__fs::filesystem::path, std::__ndk1::basic_string<char, std::__ndk1::char_traits<char>, std::__ndk1::allocator<char> > >, std::__ndk1::monostate>::Event*)#1}, std::__ndk1::allocator<geode::Task<geode::Result<std::__ndk1::__fs::filesystem::path, std::__ndk1::basic_string<char, std::__ndk1::char_traits<char>, std::__ndk1::allocator<char> > >, std::__ndk1::monostate>::listen<PrismUIButton::onBtn(cocos2d::CCObject*)::$_1, geode::Task<geode::Result<std::__ndk1::__fs::filesystem::path, std::__ndk1::basic_string<char, std::__ndk1::char_traits<char>, std::__ndk1::allocator<char> > >, std::__ndk1::monostate>::listen<PrismUIButton::onBtn(cocos2d::CCObject*)::$_1>(PrismUIButton::onBtn(cocos2d::CCObject*)::$_1&&) const::{lambda(auto:1 const&)#1}, geode::Task<geode::Result<std::__ndk1::__fs::filesystem::path, std::__ndk1::basic_string<char, std::__ndk1::char_traits<char>, std::__ndk1::allocator<char> > >, std::__ndk1::monostate>::listen<PrismUIButton::onBtn(cocos2d::CCObject*)::$_1>(PrismUIButton::onBtn(cocos2d::CCObject*)::$_1&&) const::{lambda()#1}>(PrismUIButton::onBtn(cocos2d::CCObject*)::$_1&&, geode::Task<geode::Result<std::__ndk1::__fs::filesystem::path, std::__ndk1::basic_string<char, std::__ndk1::char_traits<char>, std::__ndk1::allocator<char> > >, std::__ndk1::monostate>::listen<PrismUIButton::onBtn(cocos2d::CCObject*)::$_1>(PrismUIButton::onBtn(cocos2d::CCObject*)::$_1&&) const::{lambda(auto:1 const&)#1}, geode::Task<geode::Result<std::__ndk1::__fs::filesystem::path, std::__ndk1::basic_string<char, std::__ndk1::char_traits<char>, std::__ndk1::allocator<char> > >, std::__ndk1::monostate>::listen<PrismUIButton::onBtn(cocos2d::CCObject*)::$_1>(PrismUIButton::onBtn(cocos2d::CCObject*)::$_1&&) const::{lambda()#1}&&) const::{lambda(geode::Task<geode::Result<std::__ndk1::__fs::filesystem::path, std::__ndk1::basic_string<char, std::__ndk1::char_traits<char>, std::__ndk1::allocator<char> > >, std::__ndk1::monostate>::Event*)#1}>, void (geode::Task<geode::Result<std::__ndk1::__fs::filesystem::path, std::__ndk1::basic_string<char, std::__ndk1::char_traits<char>, std::__ndk1::allocator<char> > >, std::__ndk1::monostate>::Event*)>::__clone(std::__ndk1::__function::__base<void (geode::Task<geode::Result<std::__ndk1::__fs::filesystem::path, std::__ndk1::basic_string<char, std::__ndk1::char_traits<char>, std::__ndk1::allocator<char> > >, std::__ndk1::monostate>::Event*)>*) const
FUNC d63a8 4 0 std::__ndk1::__function::__func<geode::Task<geode::Result<std::__ndk1::__fs::filesystem::path, std::__ndk1::basic_string<char, std::__ndk1::char_traits<char>, std::__ndk1::allocator<char> > >, std::__ndk1::monostate>::listen<PrismUIButton::onBtn(cocos2d::CCObject*)::$_1, geode::Task<geode::Result<std::__ndk1::__fs::filesystem::path, std::__ndk1::basic_string<char, std::__ndk1::char_traits<char>, std::__ndk1::allocator<char> > >, std::__ndk1::monostate>::listen<PrismUIButton::onBtn(cocos2d::CCObject*)::$_1>(PrismUIButton::onBtn(cocos2d::CCObject*)::$_1&&) const::{lambda(auto:1 const&)#1}, geode::Task<geode::Result<std::__ndk1::__fs::filesystem::path, std::__ndk1::basic_string<char, std::__ndk1::char_traits<char>, std::__ndk1::allocator<char> > >, std::__ndk1::monostate>::listen<PrismUIButton::onBtn(cocos2d::CCObject*)::$_1>(PrismUIButton::onBtn(cocos2d::CCObject*)::$_1&&) const::{lambda()#1}>(PrismUIButton::onBtn(cocos2d::CCObject*)::$_1&&, geode::Task<geode::Result<std::__ndk1::__fs::filesystem::path, std::__ndk1::basic_string<char, std::__ndk1::char_traits<char>, std::__ndk1::allocator<char> > >, std::__ndk1::monostate>::listen<PrismUIButton::onBtn(cocos2d::CCObject*)::$_1>(PrismUIButton::onBtn(cocos2d::CCObject*)::$_1&&) const::{lambda(auto:1 const&)#1}, geode::Task<geode::Result<std::__ndk1::__fs::filesystem::path, std::__ndk1::basic_string<char, std::__ndk1::char_traits<char>, std::__ndk1::allocator<char> > >, std::__ndk1::monostate>::listen<PrismUIButton::onBtn(cocos2d::CCObject*)::$_1>(PrismUIButton::onBtn(cocos2d::CCObject*)::$_1&&) const::{lambda()#1}&&) const::{lambda(geode::Task<geode::Result<std::__ndk1::__fs::filesystem::path, std::__ndk1::basic_string<char, std::__ndk1::char_traits<char>, std::__ndk1::allocator<char> > >, std::__ndk1::monostate>::Event*)#1}, std::__ndk1::allocator<geode::Task<geode::Result<std::__ndk1::__fs::filesystem::path, std::__ndk1::basic_string<char, std::__ndk1::char_traits<char>, std::__ndk1::allocator<char> > >, std::__ndk1::monostate>::listen<PrismUIButton::onBtn(cocos2d::CCObject*)::$_1, geode::Task<geode::Result<std::__ndk1::__fs::filesystem::path, std::__ndk1::basic_string<char, std::__ndk1::char_traits<char>, std::__ndk1::allocator<char> > >, std::__ndk1::monostate>::listen<PrismUIButton::onBtn(cocos2d::CCObject*)::$_1>(PrismUIButton::onBtn(cocos2d::CCObject*)::$_1&&) const::{lambda(auto:1 const&)#1}, geode::Task<geode::Result<std::__ndk1::__fs::filesystem::path, std::__ndk1::basic_string<char, std::__ndk1::char_traits<char>, std::__ndk1::allocator<char> > >, std::__ndk1::monostate>::listen<PrismUIButton::onBtn(cocos2d::CCObject*)::$_1>(PrismUIButton::onBtn(cocos2d::CCObject*)::$_1&&) const::{lambda()#1}>(PrismUIButton::onBtn(cocos2d::CCObject*)::$_1&&, geode::Task<geode::Result<std::__ndk1::__fs::filesystem::path, std::__ndk1::basic_string<char, std::__ndk1::char_traits<char>, std::__ndk1::allocator<char> > >, std::__ndk1::monostate>::listen<PrismUIButton::onBtn(cocos2d::CCObject*)::$_1>(PrismUIButton::onBtn(cocos2d::CCObject*)::$_1&&) const::{lambda(auto:1 const&)#1}, geode::Task<geode::Result<std::__ndk1::__fs::filesystem::path, std::__ndk1::basic_string<char, std::__ndk1::char_traits<char>, std::__ndk1::allocator<char> > >, std::__ndk1::monostate>::listen<PrismUIButton::onBtn(cocos2d::CCObject*)::$_1>(PrismUIButton::onBtn(cocos2d::CCObject*)::$_1&&) const::{lambda()#1}&&) const::{lambda(geode::Task<geode::Result<std::__ndk1::__fs::filesystem::path, std::__ndk1::basic_string<char, std::__ndk1::char_traits<char>, std::__ndk1::allocator<char> > >, std::__ndk1::monostate>::Event*)#1}>, void (geode::Task<geode::Result<std::__ndk1::__fs::filesystem::path, std::__ndk1::basic_string<char, std::__ndk1::char_traits<char>, std::__ndk1::allocator<char> > >, std::__ndk1::monostate>::Event*)>::destroy()
FUNC d63ac 4 0 std::__ndk1::__function::__func<geode::Task<geode::Result<std::__ndk1::__fs::filesystem::path, std::__ndk1::basic_string<char, std::__ndk1::char_traits<char>, std::__ndk1::allocator<char> > >, std::__ndk1::monostate>::listen<PrismUIButton::onBtn(cocos2d::CCObject*)::$_1, geode::Task<geode::Result<std::__ndk1::__fs::filesystem::path, std::__ndk1::basic_string<char, std::__ndk1::char_traits<char>, std::__ndk1::allocator<char> > >, std::__ndk1::monostate>::listen<PrismUIButton::onBtn(cocos2d::CCObject*)::$_1>(PrismUIButton::onBtn(cocos2d::CCObject*)::$_1&&) const::{lambda(auto:1 const&)#1}, geode::Task<geode::Result<std::__ndk1::__fs::filesystem::path, std::__ndk1::basic_string<char, std::__ndk1::char_traits<char>, std::__ndk1::allocator<char> > >, std::__ndk1::monostate>::listen<PrismUIButton::onBtn(cocos2d::CCObject*)::$_1>(PrismUIButton::onBtn(cocos2d::CCObject*)::$_1&&) const::{lambda()#1}>(PrismUIButton::onBtn(cocos2d::CCObject*)::$_1&&, geode::Task<geode::Result<std::__ndk1::__fs::filesystem::path, std::__ndk1::basic_string<char, std::__ndk1::char_traits<char>, std::__ndk1::allocator<char> > >, std::__ndk1::monostate>::listen<PrismUIButton::onBtn(cocos2d::CCObject*)::$_1>(PrismUIButton::onBtn(cocos2d::CCObject*)::$_1&&) const::{lambda(auto:1 const&)#1}, geode::Task<geode::Result<std::__ndk1::__fs::filesystem::path, std::__ndk1::basic_string<char, std::__ndk1::char_traits<char>, std::__ndk1::allocator<char> > >, std::__ndk1::monostate>::listen<PrismUIButton::onBtn(cocos2d::CCObject*)::$_1>(PrismUIButton::onBtn(cocos2d::CCObject*)::$_1&&) const::{lambda()#1}&&) const::{lambda(geode::Task<geode::Result<std::__ndk1::__fs::filesystem::path, std::__ndk1::basic_string<char, std::__ndk1::char_traits<char>, std::__ndk1::allocator<char> > >, std::__ndk1::monostate>::Event*)#1}, std::__ndk1::allocator<geode::Task<geode::Result<std::__ndk1::__fs::filesystem::path, std::__ndk1::basic_string<char, std::__ndk1::char_traits<char>, std::__ndk1::allocator<char> > >, std::__ndk1::monostate>::listen<PrismUIButton::onBtn(cocos2d::CCObject*)::$_1, geode::Task<geode::Result<std::__ndk1::__fs::filesystem::path, std::__ndk1::basic_string<char, std::__ndk1::char_traits<char>, std::__ndk1::allocator<char> > >, std::__ndk1::monostate>::listen<PrismUIButton::onBtn(cocos2d::CCObject*)::$_1>(PrismUIButton::onBtn(cocos2d::CCObject*)::$_1&&) const::{lambda(auto:1 const&)#1}, geode::Task<geode::Result<std::__ndk1::__fs::filesystem::path, std::__ndk1::basic_string<char, std::__ndk1::char_traits<char>, std::__ndk1::allocator<char> > >, std::__ndk1::monostate>::listen<PrismUIButton::onBtn(cocos2d::CCObject*)::$_1>(PrismUIButton::onBtn(cocos2d::CCObject*)::$_1&&) const::{lambda()#1}>(PrismUIButton::onBtn(cocos2d::CCObject*)::$_1&&, geode::Task<geode::Result<std::__ndk1::__fs::filesystem::path, std::__ndk1::basic_string<char, std::__ndk1::char_traits<char>, std::__ndk1::allocator<char> > >, std::__ndk1::monostate>::listen<PrismUIButton::onBtn(cocos2d::CCObject*)::$_1>(PrismUIButton::onBtn(cocos2d::CCObject*)::$_1&&) const::{lambda(auto:1 const&)#1}, geode::Task<geode::Result<std::__ndk1::__fs::filesystem::path, std::__ndk1::basic_string<char, std::__ndk1::char_traits<char>, std::__ndk1::allocator<char> > >, std::__ndk1::monostate>::listen<PrismUIButton::onBtn(cocos2d::CCObject*)::$_1>(PrismUIButton::onBtn(cocos2d::CCObject*)::$_1&&) const::{lambda()#1}&&) const::{lambda(geode::Task<geode::Result<std::__ndk1::__fs::filesystem::path, std::__ndk1::basic_string<char, std::__ndk1::char_traits<char>, std::__ndk1::allocator<char> > >, std::__ndk1::monostate>::Event*)#1}>, void (geode::Task<geode::Result<std::__ndk1::__fs::filesystem::path, std::__ndk1::basic_string<char, std::__ndk1::char_traits<char>, std::__ndk1::allocator<char> > >, std::__ndk1::monostate>::Event*)>::destroy_deallocate()
FUNC d63b0 97c 0 std::__ndk1::__function::__func<geode::Task<geode::Result<std::__ndk1::__fs::filesystem::path, std::__ndk1::basic_string<char, std::__ndk1::char_traits<char>, std::__ndk1::allocator<char> > >, std::__ndk1::monostate>::listen<PrismUIButton::onBtn(cocos2d::CCObject*)::$_1, geode::Task<geode::Result<std::__ndk1::__fs::filesystem::path, std::__ndk1::basic_string<char, std::__ndk1::char_traits<char>, std::__ndk1::allocator<char> > >, std::__ndk1::monostate>::listen<PrismUIButton::onBtn(cocos2d::CCObject*)::$_1>(PrismUIButton::onBtn(cocos2d::CCObject*)::$_1&&) const::{lambda(auto:1 const&)#1}, geode::Task<geode::Result<std::__ndk1::__fs::filesystem::path, std::__ndk1::basic_string<char, std::__ndk1::char_traits<char>, std::__ndk1::allocator<char> > >, std::__ndk1::monostate>::listen<PrismUIButton::onBtn(cocos2d::CCObject*)::$_1>(PrismUIButton::onBtn(cocos2d::CCObject*)::$_1&&) const::{lambda()#1}>(PrismUIButton::onBtn(cocos2d::CCObject*)::$_1&&, geode::Task<geode::Result<std::__ndk1::__fs::filesystem::path, std::__ndk1::basic_string<char, std::__ndk1::char_traits<char>, std::__ndk1::allocator<char> > >, std::__ndk1::monostate>::listen<PrismUIButton::onBtn(cocos2d::CCObject*)::$_1>(PrismUIButton::onBtn(cocos2d::CCObject*)::$_1&&) const::{lambda(auto:1 const&)#1}, geode::Task<geode::Result<std::__ndk1::__fs::filesystem::path, std::__ndk1::basic_string<char, std::__ndk1::char_traits<char>, std::__ndk1::allocator<char> > >, std::__ndk1::monostate>::listen<PrismUIButton::onBtn(cocos2d::CCObject*)::$_1>(PrismUIButton::onBtn(cocos2d::CCObject*)::$_1&&) const::{lambda()#1}&&) const::{lambda(geode::Task<geode::Result<std::__ndk1::__fs::filesystem::path, std::__ndk1::basic_string<char, std::__ndk1::char_traits<char>, std::__ndk1::allocator<char> > >, std::__ndk1::monostate>::Event*)#1}, std::__ndk1::allocator<geode::Task<geode::Result<std::__ndk1::__fs::filesystem::path, std::__ndk1::basic_string<char, std::__ndk1::char_traits<char>, std::__ndk1::allocator<char> > >, std::__ndk1::monostate>::listen<PrismUIButton::onBtn(cocos2d::CCObject*)::$_1, geode::Task<geode::Result<std::__ndk1::__fs::filesystem::path, std::__ndk1::basic_string<char, std::__ndk1::char_traits<char>, std::__ndk1::allocator<char> > >, std::__ndk1::monostate>::listen<PrismUIButton::onBtn(cocos2d::CCObject*)::$_1>(PrismUIButton::onBtn(cocos2d::CCObject*)::$_1&&) const::{lambda(auto:1 const&)#1}, geode::Task<geode::Result<std::__ndk1::__fs::filesystem::path, std::__ndk1::basic_string<char, std::__ndk1::char_traits<char>, std::__ndk1::allocator<char> > >, std::__ndk1::monostate>::listen<PrismUIButton::onBtn(cocos2d::CCObject*)::$_1>(PrismUIButton::onBtn(cocos2d::CCObject*)::$_1&&) const::{lambda()#1}>(PrismUIButton::onBtn(cocos2d::CCObject*)::$_1&&, geode::Task<geode::Result<std::__ndk1::__fs::filesystem::path, std::__ndk1::basic_string<char, std::__ndk1::char_traits<char>, std::__ndk1::allocator<char> > >, std::__ndk1::monostate>::listen<PrismUIButton::onBtn(cocos2d::CCObject*)::$_1>(PrismUIButton::onBtn(cocos2d::CCObject*)::$_1&&) const::{lambda(auto:1 const&)#1}, geode::Task<geode::Result<std::__ndk1::__fs::filesystem::path, std::__ndk1::basic_string<char, std::__ndk1::char_traits<char>, std::__ndk1::allocator<char> > >, std::__ndk1::monostate>::listen<PrismUIButton::onBtn(cocos2d::CCObject*)::$_1>(PrismUIButton::onBtn(cocos2d::CCObject*)::$_1&&) const::{lambda()#1}&&) const::{lambda(geode::Task<geode::Result<std::__ndk1::__fs::filesystem::path, std::__ndk1::basic_string<char, std::__ndk1::char_traits<char>, std::__ndk1::allocator<char> > >, std::__ndk1::monostate>::Event*)#1}>, void (geode::Task<geode::Result<std::__ndk1::__fs::filesystem::path, std::__ndk1::basic_string<char, std::__ndk1::char_traits<char>, std::__ndk1::allocator<char> > >, std::__ndk1::monostate>::Event*)>::operator()(geode::Task<geode::Result<std::__ndk1::__fs::filesystem::path, std::__ndk1::basic_string<char, std::__ndk1::char_traits<char>, std::__ndk1::allocator<char> > >, std::__ndk1::monostate>::Event*&&)
FUNC d6d2c 1c 0 std::__ndk1::__function::__func<geode::Task<geode::Result<std::__ndk1::__fs::filesystem::path, std::__ndk1::basic_string<char, std::__ndk1::char_traits<char>, std::__ndk1::allocator<char> > >, std::__ndk1::monostate>::listen<PrismUIButton::onBtn(cocos2d::CCObject*)::$_1, geode::Task<geode::Result<std::__ndk1::__fs::filesystem::path, std::__ndk1::basic_string<char, std::__ndk1::char_traits<char>, std::__ndk1::allocator<char> > >, std::__ndk1::monostate>::listen<PrismUIButton::onBtn(cocos2d::CCObject*)::$_1>(PrismUIButton::onBtn(cocos2d::CCObject*)::$_1&&) const::{lambda(auto:1 const&)#1}, geode::Task<geode::Result<std::__ndk1::__fs::filesystem::path, std::__ndk1::basic_string<char, std::__ndk1::char_traits<char>, std::__ndk1::allocator<char> > >, std::__ndk1::monostate>::listen<PrismUIButton::onBtn(cocos2d::CCObject*)::$_1>(PrismUIButton::onBtn(cocos2d::CCObject*)::$_1&&) const::{lambda()#1}>(PrismUIButton::onBtn(cocos2d::CCObject*)::$_1&&, geode::Task<geode::Result<std::__ndk1::__fs::filesystem::path, std::__ndk1::basic_string<char, std::__ndk1::char_traits<char>, std::__ndk1::allocator<char> > >, std::__ndk1::monostate>::listen<PrismUIButton::onBtn(cocos2d::CCObject*)::$_1>(PrismUIButton::onBtn(cocos2d::CCObject*)::$_1&&) const::{lambda(auto:1 const&)#1}, geode::Task<geode::Result<std::__ndk1::__fs::filesystem::path, std::__ndk1::basic_string<char, std::__ndk1::char_traits<char>, std::__ndk1::allocator<char> > >, std::__ndk1::monostate>::listen<PrismUIButton::onBtn(cocos2d::CCObject*)::$_1>(PrismUIButton::onBtn(cocos2d::CCObject*)::$_1&&) const::{lambda()#1}&&) const::{lambda(geode::Task<geode::Result<std::__ndk1::__fs::filesystem::path, std::__ndk1::basic_string<char, std::__ndk1::char_traits<char>, std::__ndk1::allocator<char> > >, std::__ndk1::monostate>::Event*)#1}, std::__ndk1::allocator<geode::Task<geode::Result<std::__ndk1::__fs::filesystem::path, std::__ndk1::basic_string<char, std::__ndk1::char_traits<char>, std::__ndk1::allocator<char> > >, std::__ndk1::monostate>::listen<PrismUIButton::onBtn(cocos2d::CCObject*)::$_1, geode::Task<geode::Result<std::__ndk1::__fs::filesystem::path, std::__ndk1::basic_string<char, std::__ndk1::char_traits<char>, std::__ndk1::allocator<char> > >, std::__ndk1::monostate>::listen<PrismUIButton::onBtn(cocos2d::CCObject*)::$_1>(PrismUIButton::onBtn(cocos2d::CCObject*)::$_1&&) const::{lambda(auto:1 const&)#1}, geode::Task<geode::Result<std::__ndk1::__fs::filesystem::path, std::__ndk1::basic_string<char, std::__ndk1::char_traits<char>, std::__ndk1::allocator<char> > >, std::__ndk1::monostate>::listen<PrismUIButton::onBtn(cocos2d::CCObject*)::$_1>(PrismUIButton::onBtn(cocos2d::CCObject*)::$_1&&) const::{lambda()#1}>(PrismUIButton::onBtn(cocos2d::CCObject*)::$_1&&, geode::Task<geode::Result<std::__ndk1::__fs::filesystem::path, std::__ndk1::basic_string<char, std::__ndk1::char_traits<char>, std::__ndk1::allocator<char> > >, std::__ndk1::monostate>::listen<PrismUIButton::onBtn(cocos2d::CCObject*)::$_1>(PrismUIButton::onBtn(cocos2d::CCObject*)::$_1&&) const::{lambda(auto:1 const&)#1}, geode::Task<geode::Result<std::__ndk1::__fs::filesystem::path, std::__ndk1::basic_string<char, std::__ndk1::char_traits<char>, std::__ndk1::allocator<char> > >, std::__ndk1::monostate>::listen<PrismUIButton::onBtn(cocos2d::CCObject*)::$_1>(PrismUIButton::onBtn(cocos2d::CCObject*)::$_1&&) const::{lambda()#1}&&) const::{lambda(geode::Task<geode::Result<std::__ndk1::__fs::filesystem::path, std::__ndk1::basic_string<char, std::__ndk1::char_traits<char>, std::__ndk1::allocator<char> > >, std::__ndk1::monostate>::Event*)#1}>, void (geode::Task<geode::Result<std::__ndk1::__fs::filesystem::path, std::__ndk1::basic_string<char, std::__ndk1::char_traits<char>, std::__ndk1::allocator<char> > >, std::__ndk1::monostate>::Event*)>::target(std::type_info const&) const
FUNC d6d48 c 0 std::__ndk1::__function::__func<geode::Task<geode::Result<std::__ndk1::__fs::filesystem::path, std::__ndk1::basic_string<char, std::__ndk1::char_traits<char>, std::__ndk1::allocator<char> > >, std::__ndk1::monostate>::listen<PrismUIButton::onBtn(cocos2d::CCObject*)::$_1, geode::Task<geode::Result<std::__ndk1::__fs::filesystem::path, std::__ndk1::basic_string<char, std::__ndk1::char_traits<char>, std::__ndk1::allocator<char> > >, std::__ndk1::monostate>::listen<PrismUIButton::onBtn(cocos2d::CCObject*)::$_1>(PrismUIButton::onBtn(cocos2d::CCObject*)::$_1&&) const::{lambda(auto:1 const&)#1}, geode::Task<geode::Result<std::__ndk1::__fs::filesystem::path, std::__ndk1::basic_string<char, std::__ndk1::char_traits<char>, std::__ndk1::allocator<char> > >, std::__ndk1::monostate>::listen<PrismUIButton::onBtn(cocos2d::CCObject*)::$_1>(PrismUIButton::onBtn(cocos2d::CCObject*)::$_1&&) const::{lambda()#1}>(PrismUIButton::onBtn(cocos2d::CCObject*)::$_1&&, geode::Task<geode::Result<std::__ndk1::__fs::filesystem::path, std::__ndk1::basic_string<char, std::__ndk1::char_traits<char>, std::__ndk1::allocator<char> > >, std::__ndk1::monostate>::listen<PrismUIButton::onBtn(cocos2d::CCObject*)::$_1>(PrismUIButton::onBtn(cocos2d::CCObject*)::$_1&&) const::{lambda(auto:1 const&)#1}, geode::Task<geode::Result<std::__ndk1::__fs::filesystem::path, std::__ndk1::basic_string<char, std::__ndk1::char_traits<char>, std::__ndk1::allocator<char> > >, std::__ndk1::monostate>::listen<PrismUIButton::onBtn(cocos2d::CCObject*)::$_1>(PrismUIButton::onBtn(cocos2d::CCObject*)::$_1&&) const::{lambda()#1}&&) const::{lambda(geode::Task<geode::Result<std::__ndk1::__fs::filesystem::path, std::__ndk1::basic_string<char, std::__ndk1::char_traits<char>, std::__ndk1::allocator<char> > >, std::__ndk1::monostate>::Event*)#1}, std::__ndk1::allocator<geode::Task<geode::Result<std::__ndk1::__fs::filesystem::path, std::__ndk1::basic_string<char, std::__ndk1::char_traits<char>, std::__ndk1::allocator<char> > >, std::__ndk1::monostate>::listen<PrismUIButton::onBtn(cocos2d::CCObject*)::$_1, geode::Task<geode::Result<std::__ndk1::__fs::filesystem::path, std::__ndk1::basic_string<char, std::__ndk1::char_traits<char>, std::__ndk1::allocator<char> > >, std::__ndk1::monostate>::listen<PrismUIButton::onBtn(cocos2d::CCObject*)::$_1>(PrismUIButton::onBtn(cocos2d::CCObject*)::$_1&&) const::{lambda(auto:1 const&)#1}, geode::Task<geode::Result<std::__ndk1::__fs::filesystem::path, std::__ndk1::basic_string<char, std::__ndk1::char_traits<char>, std::__ndk1::allocator<char> > >, std::__ndk1::monostate>::listen<PrismUIButton::onBtn(cocos2d::CCObject*)::$_1>(PrismUIButton::onBtn(cocos2d::CCObject*)::$_1&&) const::{lambda()#1}>(PrismUIButton::onBtn(cocos2d::CCObject*)::$_1&&, geode::Task<geode::Result<std::__ndk1::__fs::filesystem::path, std::__ndk1::basic_string<char, std::__ndk1::char_traits<char>, std::__ndk1::allocator<char> > >, std::__ndk1::monostate>::listen<PrismUIButton::onBtn(cocos2d::CCObject*)::$_1>(PrismUIButton::onBtn(cocos2d::CCObject*)::$_1&&) const::{lambda(auto:1 const&)#1}, geode::Task<geode::Result<std::__ndk1::__fs::filesystem::path, std::__ndk1::basic_string<char, std::__ndk1::char_traits<char>, std::__ndk1::allocator<char> > >, std::__ndk1::monostate>::listen<PrismUIButton::onBtn(cocos2d::CCObject*)::$_1>(PrismUIButton::onBtn(cocos2d::CCObject*)::$_1&&) const::{lambda()#1}&&) const::{lambda(geode::Task<geode::Result<std::__ndk1::__fs::filesystem::path, std::__ndk1::basic_string<char, std::__ndk1::char_traits<char>, std::__ndk1::allocator<char> > >, std::__ndk1::monostate>::Event*)#1}>, void (geode::Task<geode::Result<std::__ndk1::__fs::filesystem::path, std::__ndk1::basic_string<char, std::__ndk1::char_traits<char>, std::__ndk1::allocator<char> > >, std::__ndk1::monostate>::Event*)>::target_type() const
FUNC d6d54 20c 0 _ZN5geode15UnwrapExceptionC2IRNSt6__ndk14__fs10filesystem4pathEQsr4implE18IsStringStreamableIT_EEENS_4impl5OkTagEOS7_
FUNC d6f60 4 0 std::__ndk1::__function::__func<geode::Task<geode::Result<std::__ndk1::__fs::filesystem::path, std::__ndk1::basic_string<char, std::__ndk1::char_traits<char>, std::__ndk1::allocator<char> > >, std::__ndk1::monostate>::listen<PrismUIButton::onBtn(cocos2d::CCObject*)::$_1, geode::Task<geode::Result<std::__ndk1::__fs::filesystem::path, std::__ndk1::basic_string<char, std::__ndk1::char_traits<char>, std::__ndk1::allocator<char> > >, std::__ndk1::monostate>::listen<PrismUIButton::onBtn(cocos2d::CCObject*)::$_1>(PrismUIButton::onBtn(cocos2d::CCObject*)::$_1&&) const::{lambda(auto:1 const&)#1}, geode::Task<geode::Result<std::__ndk1::__fs::filesystem::path, std::__ndk1::basic_string<char, std::__ndk1::char_traits<char>, std::__ndk1::allocator<char> > >, std::__ndk1::monostate>::listen<PrismUIButton::onBtn(cocos2d::CCObject*)::$_1>(PrismUIButton::onBtn(cocos2d::CCObject*)::$_1&&) const::{lambda()#1}>(PrismUIButton::onBtn(cocos2d::CCObject*)::$_1&&, geode::Task<geode::Result<std::__ndk1::__fs::filesystem::path, std::__ndk1::basic_string<char, std::__ndk1::char_traits<char>, std::__ndk1::allocator<char> > >, std::__ndk1::monostate>::listen<PrismUIButton::onBtn(cocos2d::CCObject*)::$_1>(PrismUIButton::onBtn(cocos2d::CCObject*)::$_1&&) const::{lambda(auto:1 const&)#1}, geode::Task<geode::Result<std::__ndk1::__fs::filesystem::path, std::__ndk1::basic_string<char, std::__ndk1::char_traits<char>, std::__ndk1::allocator<char> > >, std::__ndk1::monostate>::listen<PrismUIButton::onBtn(cocos2d::CCObject*)::$_1>(PrismUIButton::onBtn(cocos2d::CCObject*)::$_1&&) const::{lambda()#1}&&) const::{lambda(geode::Task<geode::Result<std::__ndk1::__fs::filesystem::path, std::__ndk1::basic_string<char, std::__ndk1::char_traits<char>, std::__ndk1::allocator<char> > >, std::__ndk1::monostate>::Event*)#1}::operator()(geode::Task<geode::Result<std::__ndk1::__fs::filesystem::path, std::__ndk1::basic_string<char, std::__ndk1::char_traits<char>, std::__ndk1::allocator<char> > >, std::__ndk1::monostate>::Event*)::{lambda()#1}, std::__ndk1::allocator<geode::Task<geode::Result<std::__ndk1::__fs::filesystem::path, std::__ndk1::basic_string<char, std::__ndk1::char_traits<char>, std::__ndk1::allocator<char> > >, std::__ndk1::monostate>::listen<PrismUIButton::onBtn(cocos2d::CCObject*)::$_1, geode::Task<geode::Result<std::__ndk1::__fs::filesystem::path, std::__ndk1::basic_string<char, std::__ndk1::char_traits<char>, std::__ndk1::allocator<char> > >, std::__ndk1::monostate>::listen<PrismUIButton::onBtn(cocos2d::CCObject*)::$_1>(PrismUIButton::onBtn(cocos2d::CCObject*)::$_1&&) const::{lambda(auto:1 const&)#1}, geode::Task<geode::Result<std::__ndk1::__fs::filesystem::path, std::__ndk1::basic_string<char, std::__ndk1::char_traits<char>, std::__ndk1::allocator<char> > >, std::__ndk1::monostate>::listen<PrismUIButton::onBtn(cocos2d::CCObject*)::$_1>(PrismUIButton::onBtn(cocos2d::CCObject*)::$_1&&) const::{lambda()#1}>(PrismUIButton::onBtn(cocos2d::CCObject*)::$_1&&, geode::Task<geode::Result<std::__ndk1::__fs::filesystem::path, std::__ndk1::basic_string<char, std::__ndk1::char_traits<char>, std::__ndk1::allocator<char> > >, std::__ndk1::monostate>::listen<PrismUIButton::onBtn(cocos2d::CCObject*)::$_1>(PrismUIButton::onBtn(cocos2d::CCObject*)::$_1&&) const::{lambda(auto:1 const&)#1}, geode::Task<geode::Result<std::__ndk1::__fs::filesystem::path, std::__ndk1::basic_string<char, std::__ndk1::char_traits<char>, std::__ndk1::allocator<char> > >, std::__ndk1::monostate>::listen<PrismUIButton::onBtn(cocos2d::CCObject*)::$_1>(PrismUIButton::onBtn(cocos2d::CCObject*)::$_1&&) const::{lambda()#1}&&) const::{lambda(geode::Task<geode::Result<std::__ndk1::__fs::filesystem::path, std::__ndk1::basic_string<char, std::__ndk1::char_traits<char>, std::__ndk1::allocator<char> > >, std::__ndk1::monostate>::Event*)#1}::operator()(geode::Task<geode::Result<std::__ndk1::__fs::filesystem::path, std::__ndk1::basic_string<char, std::__ndk1::char_traits<char>, std::__ndk1::allocator<char> > >, std::__ndk1::monostate>::Event*)::{lambda()#1}>, void ()>::~__func()
FUNC d6f64 34 0 std::__ndk1::__function::__func<geode::Task<geode::Result<std::__ndk1::__fs::filesystem::path, std::__ndk1::basic_string<char, std::__ndk1::char_traits<char>, std::__ndk1::allocator<char> > >, std::__ndk1::monostate>::listen<PrismUIButton::onBtn(cocos2d::CCObject*)::$_1, geode::Task<geode::Result<std::__ndk1::__fs::filesystem::path, std::__ndk1::basic_string<char, std::__ndk1::char_traits<char>, std::__ndk1::allocator<char> > >, std::__ndk1::monostate>::listen<PrismUIButton::onBtn(cocos2d::CCObject*)::$_1>(PrismUIButton::onBtn(cocos2d::CCObject*)::$_1&&) const::{lambda(auto:1 const&)#1}, geode::Task<geode::Result<std::__ndk1::__fs::filesystem::path, std::__ndk1::basic_string<char, std::__ndk1::char_traits<char>, std::__ndk1::allocator<char> > >, std::__ndk1::monostate>::listen<PrismUIButton::onBtn(cocos2d::CCObject*)::$_1>(PrismUIButton::onBtn(cocos2d::CCObject*)::$_1&&) const::{lambda()#1}>(PrismUIButton::onBtn(cocos2d::CCObject*)::$_1&&, geode::Task<geode::Result<std::__ndk1::__fs::filesystem::path, std::__ndk1::basic_string<char, std::__ndk1::char_traits<char>, std::__ndk1::allocator<char> > >, std::__ndk1::monostate>::listen<PrismUIButton::onBtn(cocos2d::CCObject*)::$_1>(PrismUIButton::onBtn(cocos2d::CCObject*)::$_1&&) const::{lambda(auto:1 const&)#1}, geode::Task<geode::Result<std::__ndk1::__fs::filesystem::path, std::__ndk1::basic_string<char, std::__ndk1::char_traits<char>, std::__ndk1::allocator<char> > >, std::__ndk1::monostate>::listen<PrismUIButton::onBtn(cocos2d::CCObject*)::$_1>(PrismUIButton::onBtn(cocos2d::CCObject*)::$_1&&) const::{lambda()#1}&&) const::{lambda(geode::Task<geode::Result<std::__ndk1::__fs::filesystem::path, std::__ndk1::basic_string<char, std::__ndk1::char_traits<char>, std::__ndk1::allocator<char> > >, std::__ndk1::monostate>::Event*)#1}::operator()(geode::Task<geode::Result<std::__ndk1::__fs::filesystem::path, std::__ndk1::basic_string<char, std::__ndk1::char_traits<char>, std::__ndk1::allocator<char> > >, std::__ndk1::monostate>::Event*)::{lambda()#1}, std::__ndk1::allocator<geode::Task<geode::Result<std::__ndk1::__fs::filesystem::path, std::__ndk1::basic_string<char, std::__ndk1::char_traits<char>, std::__ndk1::allocator<char> > >, std::__ndk1::monostate>::listen<PrismUIButton::onBtn(cocos2d::CCObject*)::$_1, geode::Task<geode::Result<std::__ndk1::__fs::filesystem::path, std::__ndk1::basic_string<char, std::__ndk1::char_traits<char>, std::__ndk1::allocator<char> > >, std::__ndk1::monostate>::listen<PrismUIButton::onBtn(cocos2d::CCObject*)::$_1>(PrismUIButton::onBtn(cocos2d::CCObject*)::$_1&&) const::{lambda(auto:1 const&)#1}, geode::Task<geode::Result<std::__ndk1::__fs::filesystem::path, std::__ndk1::basic_string<char, std::__ndk1::char_traits<char>, std::__ndk1::allocator<char> > >, std::__ndk1::monostate>::listen<PrismUIButton::onBtn(cocos2d::CCObject*)::$_1>(PrismUIButton::onBtn(cocos2d::CCObject*)::$_1&&) const::{lambda()#1}>(PrismUIButton::onBtn(cocos2d::CCObject*)::$_1&&, geode::Task<geode::Result<std::__ndk1::__fs::filesystem::path, std::__ndk1::basic_string<char, std::__ndk1::char_traits<char>, std::__ndk1::allocator<char> > >, std::__ndk1::monostate>::listen<PrismUIButton::onBtn(cocos2d::CCObject*)::$_1>(PrismUIButton::onBtn(cocos2d::CCObject*)::$_1&&) const::{lambda(auto:1 const&)#1}, geode::Task<geode::Result<std::__ndk1::__fs::filesystem::path, std::__ndk1::basic_string<char, std::__ndk1::char_traits<char>, std::__ndk1::allocator<char> > >, std::__ndk1::monostate>::listen<PrismUIButton::onBtn(cocos2d::CCObject*)::$_1>(PrismUIButton::onBtn(cocos2d::CCObject*)::$_1&&) const::{lambda()#1}&&) const::{lambda(geode::Task<geode::Result<std::__ndk1::__fs::filesystem::path, std::__ndk1::basic_string<char, std::__ndk1::char_traits<char>, std::__ndk1::allocator<char> > >, std::__ndk1::monostate>::Event*)#1}::operator()(geode::Task<geode::Result<std::__ndk1::__fs::filesystem::path, std::__ndk1::basic_string<char, std::__ndk1::char_traits<char>, std::__ndk1::allocator<char> > >, std::__ndk1::monostate>::Event*)::{lambda()#1}>, void ()>::__clone() const
FUNC d6f98 14 0 _ZNKSt6__ndk110__function6__funcIZZNK5geode4TaskINS2_6ResultINS_4__fs10filesystem4pathENS_12basic_stringIcNS_11char_traitsIcEENS_9allocatorIcEEEEEENS_9monostateEE6listenIZN13PrismUIButton5onBtnEPN7cocos2d8CCObjectEE3$_1ZNKSG_6listenISM_EEvOT_EUlRKSO_E_ZNKSN_ISM_EEvSP_EUlvE_EEvSP_OT0_OT1_ENUlPNSG_5EventEE_clESZ_EUlvE_NSB_IS11_EEFvvEE7__cloneEPNS0_6__baseIS13_EE
FUNC d6fac 4 0 std::__ndk1::__function::__func<geode::Task<geode::Result<std::__ndk1::__fs::filesystem::path, std::__ndk1::basic_string<char, std::__ndk1::char_traits<char>, std::__ndk1::allocator<char> > >, std::__ndk1::monostate>::listen<PrismUIButton::onBtn(cocos2d::CCObject*)::$_1, geode::Task<geode::Result<std::__ndk1::__fs::filesystem::path, std::__ndk1::basic_string<char, std::__ndk1::char_traits<char>, std::__ndk1::allocator<char> > >, std::__ndk1::monostate>::listen<PrismUIButton::onBtn(cocos2d::CCObject*)::$_1>(PrismUIButton::onBtn(cocos2d::CCObject*)::$_1&&) const::{lambda(auto:1 const&)#1}, geode::Task<geode::Result<std::__ndk1::__fs::filesystem::path, std::__ndk1::basic_string<char, std::__ndk1::char_traits<char>, std::__ndk1::allocator<char> > >, std::__ndk1::monostate>::listen<PrismUIButton::onBtn(cocos2d::CCObject*)::$_1>(PrismUIButton::onBtn(cocos2d::CCObject*)::$_1&&) const::{lambda()#1}>(PrismUIButton::onBtn(cocos2d::CCObject*)::$_1&&, geode::Task<geode::Result<std::__ndk1::__fs::filesystem::path, std::__ndk1::basic_string<char, std::__ndk1::char_traits<char>, std::__ndk1::allocator<char> > >, std::__ndk1::monostate>::listen<PrismUIButton::onBtn(cocos2d::CCObject*)::$_1>(PrismUIButton::onBtn(cocos2d::CCObject*)::$_1&&) const::{lambda(auto:1 const&)#1}, geode::Task<geode::Result<std::__ndk1::__fs::filesystem::path, std::__ndk1::basic_string<char, std::__ndk1::char_traits<char>, std::__ndk1::allocator<char> > >, std::__ndk1::monostate>::listen<PrismUIButton::onBtn(cocos2d::CCObject*)::$_1>(PrismUIButton::onBtn(cocos2d::CCObject*)::$_1&&) const::{lambda()#1}&&) const::{lambda(geode::Task<geode::Result<std::__ndk1::__fs::filesystem::path, std::__ndk1::basic_string<char, std::__ndk1::char_traits<char>, std::__ndk1::allocator<char> > >, std::__ndk1::monostate>::Event*)#1}::operator()(geode::Task<geode::Result<std::__ndk1::__fs::filesystem::path, std::__ndk1::basic_string<char, std::__ndk1::char_traits<char>, std::__ndk1::allocator<char> > >, std::__ndk1::monostate>::Event*)::{lambda()#1}, std::__ndk1::allocator<geode::Task<geode::Result<std::__ndk1::__fs::filesystem::path, std::__ndk1::basic_string<char, std::__ndk1::char_traits<char>, std::__ndk1::allocator<char> > >, std::__ndk1::monostate>::listen<PrismUIButton::onBtn(cocos2d::CCObject*)::$_1, geode::Task<geode::Result<std::__ndk1::__fs::filesystem::path, std::__ndk1::basic_string<char, std::__ndk1::char_traits<char>, std::__ndk1::allocator<char> > >, std::__ndk1::monostate>::listen<PrismUIButton::onBtn(cocos2d::CCObject*)::$_1>(PrismUIButton::onBtn(cocos2d::CCObject*)::$_1&&) const::{lambda(auto:1 const&)#1}, geode::Task<geode::Result<std::__ndk1::__fs::filesystem::path, std::__ndk1::basic_string<char, std::__ndk1::char_traits<char>, std::__ndk1::allocator<char> > >, std::__ndk1::monostate>::listen<PrismUIButton::onBtn(cocos2d::CCObject*)::$_1>(PrismUIButton::onBtn(cocos2d::CCObject*)::$_1&&) const::{lambda()#1}>(PrismUIButton::onBtn(cocos2d::CCObject*)::$_1&&, geode::Task<geode::Result<std::__ndk1::__fs::filesystem::path, std::__ndk1::basic_string<char, std::__ndk1::char_traits<char>, std::__ndk1::allocator<char> > >, std::__ndk1::monostate>::listen<PrismUIButton::onBtn(cocos2d::CCObject*)::$_1>(PrismUIButton::onBtn(cocos2d::CCObject*)::$_1&&) const::{lambda(auto:1 const&)#1}, geode::Task<geode::Result<std::__ndk1::__fs::filesystem::path, std::__ndk1::basic_string<char, std::__ndk1::char_traits<char>, std::__ndk1::allocator<char> > >, std::__ndk1::monostate>::listen<PrismUIButton::onBtn(cocos2d::CCObject*)::$_1>(PrismUIButton::onBtn(cocos2d::CCObject*)::$_1&&) const::{lambda()#1}&&) const::{lambda(geode::Task<geode::Result<std::__ndk1::__fs::filesystem::path, std::__ndk1::basic_string<char, std::__ndk1::char_traits<char>, std::__ndk1::allocator<char> > >, std::__ndk1::monostate>::Event*)#1}::operator()(geode::Task<geode::Result<std::__ndk1::__fs::filesystem::path, std::__ndk1::basic_string<char, std::__ndk1::char_traits<char>, std::__ndk1::allocator<char> > >, std::__ndk1::monostate>::Event*)::{lambda()#1}>, void ()>::destroy()
FUNC d6fb0 4 0 std::__ndk1::__function::__func<geode::Task<geode::Result<std::__ndk1::__fs::filesystem::path, std::__ndk1::basic_string<char, std::__ndk1::char_traits<char>, std::__ndk1::allocator<char> > >, std::__ndk1::monostate>::listen<PrismUIButton::onBtn(cocos2d::CCObject*)::$_1, geode::Task<geode::Result<std::__ndk1::__fs::filesystem::path, std::__ndk1::basic_string<char, std::__ndk1::char_traits<char>, std::__ndk1::allocator<char> > >, std::__ndk1::monostate>::listen<PrismUIButton::onBtn(cocos2d::CCObject*)::$_1>(PrismUIButton::onBtn(cocos2d::CCObject*)::$_1&&) const::{lambda(auto:1 const&)#1}, geode::Task<geode::Result<std::__ndk1::__fs::filesystem::path, std::__ndk1::basic_string<char, std::__ndk1::char_traits<char>, std::__ndk1::allocator<char> > >, std::__ndk1::monostate>::listen<PrismUIButton::onBtn(cocos2d::CCObject*)::$_1>(PrismUIButton::onBtn(cocos2d::CCObject*)::$_1&&) const::{lambda()#1}>(PrismUIButton::onBtn(cocos2d::CCObject*)::$_1&&, geode::Task<geode::Result<std::__ndk1::__fs::filesystem::path, std::__ndk1::basic_string<char, std::__ndk1::char_traits<char>, std::__ndk1::allocator<char> > >, std::__ndk1::monostate>::listen<PrismUIButton::onBtn(cocos2d::CCObject*)::$_1>(PrismUIButton::onBtn(cocos2d::CCObject*)::$_1&&) const::{lambda(auto:1 const&)#1}, geode::Task<geode::Result<std::__ndk1::__fs::filesystem::path, std::__ndk1::basic_string<char, std::__ndk1::char_traits<char>, std::__ndk1::allocator<char> > >, std::__ndk1::monostate>::listen<PrismUIButton::onBtn(cocos2d::CCObject*)::$_1>(PrismUIButton::onBtn(cocos2d::CCObject*)::$_1&&) const::{lambda()#1}&&) const::{lambda(geode::Task<geode::Result<std::__ndk1::__fs::filesystem::path, std::__ndk1::basic_string<char, std::__ndk1::char_traits<char>, std::__ndk1::allocator<char> > >, std::__ndk1::monostate>::Event*)#1}::operator()(geode::Task<geode::Result<std::__ndk1::__fs::filesystem::path, std::__ndk1::basic_string<char, std::__ndk1::char_traits<char>, std::__ndk1::allocator<char> > >, std::__ndk1::monostate>::Event*)::{lambda()#1}, std::__ndk1::allocator<geode::Task<geode::Result<std::__ndk1::__fs::filesystem::path, std::__ndk1::basic_string<char, std::__ndk1::char_traits<char>, std::__ndk1::allocator<char> > >, std::__ndk1::monostate>::listen<PrismUIButton::onBtn(cocos2d::CCObject*)::$_1, geode::Task<geode::Result<std::__ndk1::__fs::filesystem::path, std::__ndk1::basic_string<char, std::__ndk1::char_traits<char>, std::__ndk1::allocator<char> > >, std::__ndk1::monostate>::listen<PrismUIButton::onBtn(cocos2d::CCObject*)::$_1>(PrismUIButton::onBtn(cocos2d::CCObject*)::$_1&&) const::{lambda(auto:1 const&)#1}, geode::Task<geode::Result<std::__ndk1::__fs::filesystem::path, std::__ndk1::basic_string<char, std::__ndk1::char_traits<char>, std::__ndk1::allocator<char> > >, std::__ndk1::monostate>::listen<PrismUIButton::onBtn(cocos2d::CCObject*)::$_1>(PrismUIButton::onBtn(cocos2d::CCObject*)::$_1&&) const::{lambda()#1}>(PrismUIButton::onBtn(cocos2d::CCObject*)::$_1&&, geode::Task<geode::Result<std::__ndk1::__fs::filesystem::path, std::__ndk1::basic_string<char, std::__ndk1::char_traits<char>, std::__ndk1::allocator<char> > >, std::__ndk1::monostate>::listen<PrismUIButton::onBtn(cocos2d::CCObject*)::$_1>(PrismUIButton::onBtn(cocos2d::CCObject*)::$_1&&) const::{lambda(auto:1 const&)#1}, geode::Task<geode::Result<std::__ndk1::__fs::filesystem::path, std::__ndk1::basic_string<char, std::__ndk1::char_traits<char>, std::__ndk1::allocator<char> > >, std::__ndk1::monostate>::listen<PrismUIButton::onBtn(cocos2d::CCObject*)::$_1>(PrismUIButton::onBtn(cocos2d::CCObject*)::$_1&&) const::{lambda()#1}&&) const::{lambda(geode::Task<geode::Result<std::__ndk1::__fs::filesystem::path, std::__ndk1::basic_string<char, std::__ndk1::char_traits<char>, std::__ndk1::allocator<char> > >, std::__ndk1::monostate>::Event*)#1}::operator()(geode::Task<geode::Result<std::__ndk1::__fs::filesystem::path, std::__ndk1::basic_string<char, std::__ndk1::char_traits<char>, std::__ndk1::allocator<char> > >, std::__ndk1::monostate>::Event*)::{lambda()#1}>, void ()>::destroy_deallocate()
FUNC d6fb4 18 0 std::__ndk1::__function::__func<geode::Task<geode::Result<std::__ndk1::__fs::filesystem::path, std::__ndk1::basic_string<char, std::__ndk1::char_traits<char>, std::__ndk1::allocator<char> > >, std::__ndk1::monostate>::listen<PrismUIButton::onBtn(cocos2d::CCObject*)::$_1, geode::Task<geode::Result<std::__ndk1::__fs::filesystem::path, std::__ndk1::basic_string<char, std::__ndk1::char_traits<char>, std::__ndk1::allocator<char> > >, std::__ndk1::monostate>::listen<PrismUIButton::onBtn(cocos2d::CCObject*)::$_1>(PrismUIButton::onBtn(cocos2d::CCObject*)::$_1&&) const::{lambda(auto:1 const&)#1}, geode::Task<geode::Result<std::__ndk1::__fs::filesystem::path, std::__ndk1::basic_string<char, std::__ndk1::char_traits<char>, std::__ndk1::allocator<char> > >, std::__ndk1::monostate>::listen<PrismUIButton::onBtn(cocos2d::CCObject*)::$_1>(PrismUIButton::onBtn(cocos2d::CCObject*)::$_1&&) const::{lambda()#1}>(PrismUIButton::onBtn(cocos2d::CCObject*)::$_1&&, geode::Task<geode::Result<std::__ndk1::__fs::filesystem::path, std::__ndk1::basic_string<char, std::__ndk1::char_traits<char>, std::__ndk1::allocator<char> > >, std::__ndk1::monostate>::listen<PrismUIButton::onBtn(cocos2d::CCObject*)::$_1>(PrismUIButton::onBtn(cocos2d::CCObject*)::$_1&&) const::{lambda(auto:1 const&)#1}, geode::Task<geode::Result<std::__ndk1::__fs::filesystem::path, std::__ndk1::basic_string<char, std::__ndk1::char_traits<char>, std::__ndk1::allocator<char> > >, std::__ndk1::monostate>::listen<PrismUIButton::onBtn(cocos2d::CCObject*)::$_1>(PrismUIButton::onBtn(cocos2d::CCObject*)::$_1&&) const::{lambda()#1}&&) const::{lambda(geode::Task<geode::Result<std::__ndk1::__fs::filesystem::path, std::__ndk1::basic_string<char, std::__ndk1::char_traits<char>, std::__ndk1::allocator<char> > >, std::__ndk1::monostate>::Event*)#1}::operator()(geode::Task<geode::Result<std::__ndk1::__fs::filesystem::path, std::__ndk1::basic_string<char, std::__ndk1::char_traits<char>, std::__ndk1::allocator<char> > >, std::__ndk1::monostate>::Event*)::{lambda()#1}, std::__ndk1::allocator<geode::Task<geode::Result<std::__ndk1::__fs::filesystem::path, std::__ndk1::basic_string<char, std::__ndk1::char_traits<char>, std::__ndk1::allocator<char> > >, std::__ndk1::monostate>::listen<PrismUIButton::onBtn(cocos2d::CCObject*)::$_1, geode::Task<geode::Result<std::__ndk1::__fs::filesystem::path, std::__ndk1::basic_string<char, std::__ndk1::char_traits<char>, std::__ndk1::allocator<char> > >, std::__ndk1::monostate>::listen<PrismUIButton::onBtn(cocos2d::CCObject*)::$_1>(PrismUIButton::onBtn(cocos2d::CCObject*)::$_1&&) const::{lambda(auto:1 const&)#1}, geode::Task<geode::Result<std::__ndk1::__fs::filesystem::path, std::__ndk1::basic_string<char, std::__ndk1::char_traits<char>, std::__ndk1::allocator<char> > >, std::__ndk1::monostate>::listen<PrismUIButton::onBtn(cocos2d::CCObject*)::$_1>(PrismUIButton::onBtn(cocos2d::CCObject*)::$_1&&) const::{lambda()#1}>(PrismUIButton::onBtn(cocos2d::CCObject*)::$_1&&, geode::Task<geode::Result<std::__ndk1::__fs::filesystem::path, std::__ndk1::basic_string<char, std::__ndk1::char_traits<char>, std::__ndk1::allocator<char> > >, std::__ndk1::monostate>::listen<PrismUIButton::onBtn(cocos2d::CCObject*)::$_1>(PrismUIButton::onBtn(cocos2d::CCObject*)::$_1&&) const::{lambda(auto:1 const&)#1}, geode::Task<geode::Result<std::__ndk1::__fs::filesystem::path, std::__ndk1::basic_string<char, std::__ndk1::char_traits<char>, std::__ndk1::allocator<char> > >, std::__ndk1::monostate>::listen<PrismUIButton::onBtn(cocos2d::CCObject*)::$_1>(PrismUIButton::onBtn(cocos2d::CCObject*)::$_1&&) const::{lambda()#1}&&) const::{lambda(geode::Task<geode::Result<std::__ndk1::__fs::filesystem::path, std::__ndk1::basic_string<char, std::__ndk1::char_traits<char>, std::__ndk1::allocator<char> > >, std::__ndk1::monostate>::Event*)#1}::operator()(geode::Task<geode::Result<std::__ndk1::__fs::filesystem::path, std::__ndk1::basic_string<char, std::__ndk1::char_traits<char>, std::__ndk1::allocator<char> > >, std::__ndk1::monostate>::Event*)::{lambda()#1}>, void ()>::operator()()
FUNC d6fcc 1c 0 std::__ndk1::__function::__func<geode::Task<geode::Result<std::__ndk1::__fs::filesystem::path, std::__ndk1::basic_string<char, std::__ndk1::char_traits<char>, std::__ndk1::allocator<char> > >, std::__ndk1::monostate>::listen<PrismUIButton::onBtn(cocos2d::CCObject*)::$_1, geode::Task<geode::Result<std::__ndk1::__fs::filesystem::path, std::__ndk1::basic_string<char, std::__ndk1::char_traits<char>, std::__ndk1::allocator<char> > >, std::__ndk1::monostate>::listen<PrismUIButton::onBtn(cocos2d::CCObject*)::$_1>(PrismUIButton::onBtn(cocos2d::CCObject*)::$_1&&) const::{lambda(auto:1 const&)#1}, geode::Task<geode::Result<std::__ndk1::__fs::filesystem::path, std::__ndk1::basic_string<char, std::__ndk1::char_traits<char>, std::__ndk1::allocator<char> > >, std::__ndk1::monostate>::listen<PrismUIButton::onBtn(cocos2d::CCObject*)::$_1>(PrismUIButton::onBtn(cocos2d::CCObject*)::$_1&&) const::{lambda()#1}>(PrismUIButton::onBtn(cocos2d::CCObject*)::$_1&&, geode::Task<geode::Result<std::__ndk1::__fs::filesystem::path, std::__ndk1::basic_string<char, std::__ndk1::char_traits<char>, std::__ndk1::allocator<char> > >, std::__ndk1::monostate>::listen<PrismUIButton::onBtn(cocos2d::CCObject*)::$_1>(PrismUIButton::onBtn(cocos2d::CCObject*)::$_1&&) const::{lambda(auto:1 const&)#1}, geode::Task<geode::Result<std::__ndk1::__fs::filesystem::path, std::__ndk1::basic_string<char, std::__ndk1::char_traits<char>, std::__ndk1::allocator<char> > >, std::__ndk1::monostate>::listen<PrismUIButton::onBtn(cocos2d::CCObject*)::$_1>(PrismUIButton::onBtn(cocos2d::CCObject*)::$_1&&) const::{lambda()#1}&&) const::{lambda(geode::Task<geode::Result<std::__ndk1::__fs::filesystem::path, std::__ndk1::basic_string<char, std::__ndk1::char_traits<char>, std::__ndk1::allocator<char> > >, std::__ndk1::monostate>::Event*)#1}::operator()(geode::Task<geode::Result<std::__ndk1::__fs::filesystem::path, std::__ndk1::basic_string<char, std::__ndk1::char_traits<char>, std::__ndk1::allocator<char> > >, std::__ndk1::monostate>::Event*)::{lambda()#1}, std::__ndk1::allocator<geode::Task<geode::Result<std::__ndk1::__fs::filesystem::path, std::__ndk1::basic_string<char, std::__ndk1::char_traits<char>, std::__ndk1::allocator<char> > >, std::__ndk1::monostate>::listen<PrismUIButton::onBtn(cocos2d::CCObject*)::$_1, geode::Task<geode::Result<std::__ndk1::__fs::filesystem::path, std::__ndk1::basic_string<char, std::__ndk1::char_traits<char>, std::__ndk1::allocator<char> > >, std::__ndk1::monostate>::listen<PrismUIButton::onBtn(cocos2d::CCObject*)::$_1>(PrismUIButton::onBtn(cocos2d::CCObject*)::$_1&&) const::{lambda(auto:1 const&)#1}, geode::Task<geode::Result<std::__ndk1::__fs::filesystem::path, std::__ndk1::basic_string<char, std::__ndk1::char_traits<char>, std::__ndk1::allocator<char> > >, std::__ndk1::monostate>::listen<PrismUIButton::onBtn(cocos2d::CCObject*)::$_1>(PrismUIButton::onBtn(cocos2d::CCObject*)::$_1&&) const::{lambda()#1}>(PrismUIButton::onBtn(cocos2d::CCObject*)::$_1&&, geode::Task<geode::Result<std::__ndk1::__fs::filesystem::path, std::__ndk1::basic_string<char, std::__ndk1::char_traits<char>, std::__ndk1::allocator<char> > >, std::__ndk1::monostate>::listen<PrismUIButton::onBtn(cocos2d::CCObject*)::$_1>(PrismUIButton::onBtn(cocos2d::CCObject*)::$_1&&) const::{lambda(auto:1 const&)#1}, geode::Task<geode::Result<std::__ndk1::__fs::filesystem::path, std::__ndk1::basic_string<char, std::__ndk1::char_traits<char>, std::__ndk1::allocator<char> > >, std::__ndk1::monostate>::listen<PrismUIButton::onBtn(cocos2d::CCObject*)::$_1>(PrismUIButton::onBtn(cocos2d::CCObject*)::$_1&&) const::{lambda()#1}&&) const::{lambda(geode::Task<geode::Result<std::__ndk1::__fs::filesystem::path, std::__ndk1::basic_string<char, std::__ndk1::char_traits<char>, std::__ndk1::allocator<char> > >, std::__ndk1::monostate>::Event*)#1}::operator()(geode::Task<geode::Result<std::__ndk1::__fs::filesystem::path, std::__ndk1::basic_string<char, std::__ndk1::char_traits<char>, std::__ndk1::allocator<char> > >, std::__ndk1::monostate>::Event*)::{lambda()#1}>, void ()>::target(std::type_info const&) const
FUNC d6fe8 c 0 std::__ndk1::__function::__func<geode::Task<geode::Result<std::__ndk1::__fs::filesystem::path, std::__ndk1::basic_string<char, std::__ndk1::char_traits<char>, std::__ndk1::allocator<char> > >, std::__ndk1::monostate>::listen<PrismUIButton::onBtn(cocos2d::CCObject*)::$_1, geode::Task<geode::Result<std::__ndk1::__fs::filesystem::path, std::__ndk1::basic_string<char, std::__ndk1::char_traits<char>, std::__ndk1::allocator<char> > >, std::__ndk1::monostate>::listen<PrismUIButton::onBtn(cocos2d::CCObject*)::$_1>(PrismUIButton::onBtn(cocos2d::CCObject*)::$_1&&) const::{lambda(auto:1 const&)#1}, geode::Task<geode::Result<std::__ndk1::__fs::filesystem::path, std::__ndk1::basic_string<char, std::__ndk1::char_traits<char>, std::__ndk1::allocator<char> > >, std::__ndk1::monostate>::listen<PrismUIButton::onBtn(cocos2d::CCObject*)::$_1>(PrismUIButton::onBtn(cocos2d::CCObject*)::$_1&&) const::{lambda()#1}>(PrismUIButton::onBtn(cocos2d::CCObject*)::$_1&&, geode::Task<geode::Result<std::__ndk1::__fs::filesystem::path, std::__ndk1::basic_string<char, std::__ndk1::char_traits<char>, std::__ndk1::allocator<char> > >, std::__ndk1::monostate>::listen<PrismUIButton::onBtn(cocos2d::CCObject*)::$_1>(PrismUIButton::onBtn(cocos2d::CCObject*)::$_1&&) const::{lambda(auto:1 const&)#1}, geode::Task<geode::Result<std::__ndk1::__fs::filesystem::path, std::__ndk1::basic_string<char, std::__ndk1::char_traits<char>, std::__ndk1::allocator<char> > >, std::__ndk1::monostate>::listen<PrismUIButton::onBtn(cocos2d::CCObject*)::$_1>(PrismUIButton::onBtn(cocos2d::CCObject*)::$_1&&) const::{lambda()#1}&&) const::{lambda(geode::Task<geode::Result<std::__ndk1::__fs::filesystem::path, std::__ndk1::basic_string<char, std::__ndk1::char_traits<char>, std::__ndk1::allocator<char> > >, std::__ndk1::monostate>::Event*)#1}::operator()(geode::Task<geode::Result<std::__ndk1::__fs::filesystem::path, std::__ndk1::basic_string<char, std::__ndk1::char_traits<char>, std::__ndk1::allocator<char> > >, std::__ndk1::monostate>::Event*)::{lambda()#1}, std::__ndk1::allocator<geode::Task<geode::Result<std::__ndk1::__fs::filesystem::path, std::__ndk1::basic_string<char, std::__ndk1::char_traits<char>, std::__ndk1::allocator<char> > >, std::__ndk1::monostate>::listen<PrismUIButton::onBtn(cocos2d::CCObject*)::$_1, geode::Task<geode::Result<std::__ndk1::__fs::filesystem::path, std::__ndk1::basic_string<char, std::__ndk1::char_traits<char>, std::__ndk1::allocator<char> > >, std::__ndk1::monostate>::listen<PrismUIButton::onBtn(cocos2d::CCObject*)::$_1>(PrismUIButton::onBtn(cocos2d::CCObject*)::$_1&&) const::{lambda(auto:1 const&)#1}, geode::Task<geode::Result<std::__ndk1::__fs::filesystem::path, std::__ndk1::basic_string<char, std::__ndk1::char_traits<char>, std::__ndk1::allocator<char> > >, std::__ndk1::monostate>::listen<PrismUIButton::onBtn(cocos2d::CCObject*)::$_1>(PrismUIButton::onBtn(cocos2d::CCObject*)::$_1&&) const::{lambda()#1}>(PrismUIButton::onBtn(cocos2d::CCObject*)::$_1&&, geode::Task<geode::Result<std::__ndk1::__fs::filesystem::path, std::__ndk1::basic_string<char, std::__ndk1::char_traits<char>, std::__ndk1::allocator<char> > >, std::__ndk1::monostate>::listen<PrismUIButton::onBtn(cocos2d::CCObject*)::$_1>(PrismUIButton::onBtn(cocos2d::CCObject*)::$_1&&) const::{lambda(auto:1 const&)#1}, geode::Task<geode::Result<std::__ndk1::__fs::filesystem::path, std::__ndk1::basic_string<char, std::__ndk1::char_traits<char>, std::__ndk1::allocator<char> > >, std::__ndk1::monostate>::listen<PrismUIButton::onBtn(cocos2d::CCObject*)::$_1>(PrismUIButton::onBtn(cocos2d::CCObject*)::$_1&&) const::{lambda()#1}&&) const::{lambda(geode::Task<geode::Result<std::__ndk1::__fs::filesystem::path, std::__ndk1::basic_string<char, std::__ndk1::char_traits<char>, std::__ndk1::allocator<char> > >, std::__ndk1::monostate>::Event*)#1}::operator()(geode::Task<geode::Result<std::__ndk1::__fs::filesystem::path, std::__ndk1::basic_string<char, std::__ndk1::char_traits<char>, std::__ndk1::allocator<char> > >, std::__ndk1::monostate>::Event*)::{lambda()#1}>, void ()>::target_type() const
FUNC d6ff4 4 0 std::__ndk1::__function::__base<void (geode::Task<geode::Result<std::__ndk1::__fs::filesystem::path, std::__ndk1::basic_string<char, std::__ndk1::char_traits<char>, std::__ndk1::allocator<char> > >, std::__ndk1::monostate>::Event*)>::~__base()
FUNC d6ff8 4 0 std::__ndk1::__function::__func<geode::Task<geode::Result<std::__ndk1::__fs::filesystem::path, std::__ndk1::basic_string<char, std::__ndk1::char_traits<char>, std::__ndk1::allocator<char> > >, std::__ndk1::monostate>::listen<PrismUIButton::onBtn(cocos2d::CCObject*)::$_2, geode::Task<geode::Result<std::__ndk1::__fs::filesystem::path, std::__ndk1::basic_string<char, std::__ndk1::char_traits<char>, std::__ndk1::allocator<char> > >, std::__ndk1::monostate>::listen<PrismUIButton::onBtn(cocos2d::CCObject*)::$_2>(PrismUIButton::onBtn(cocos2d::CCObject*)::$_2&&) const::{lambda(auto:1 const&)#1}, geode::Task<geode::Result<std::__ndk1::__fs::filesystem::path, std::__ndk1::basic_string<char, std::__ndk1::char_traits<char>, std::__ndk1::allocator<char> > >, std::__ndk1::monostate>::listen<PrismUIButton::onBtn(cocos2d::CCObject*)::$_2>(PrismUIButton::onBtn(cocos2d::CCObject*)::$_2&&) const::{lambda()#1}>(PrismUIButton::onBtn(cocos2d::CCObject*)::$_2&&, geode::Task<geode::Result<std::__ndk1::__fs::filesystem::path, std::__ndk1::basic_string<char, std::__ndk1::char_traits<char>, std::__ndk1::allocator<char> > >, std::__ndk1::monostate>::listen<PrismUIButton::onBtn(cocos2d::CCObject*)::$_2>(PrismUIButton::onBtn(cocos2d::CCObject*)::$_2&&) const::{lambda(auto:1 const&)#1}, geode::Task<geode::Result<std::__ndk1::__fs::filesystem::path, std::__ndk1::basic_string<char, std::__ndk1::char_traits<char>, std::__ndk1::allocator<char> > >, std::__ndk1::monostate>::listen<PrismUIButton::onBtn(cocos2d::CCObject*)::$_2>(PrismUIButton::onBtn(cocos2d::CCObject*)::$_2&&) const::{lambda()#1}&&) const::{lambda(geode::Task<geode::Result<std::__ndk1::__fs::filesystem::path, std::__ndk1::basic_string<char, std::__ndk1::char_traits<char>, std::__ndk1::allocator<char> > >, std::__ndk1::monostate>::Event*)#1}, std::__ndk1::allocator<geode::Task<geode::Result<std::__ndk1::__fs::filesystem::path, std::__ndk1::basic_string<char, std::__ndk1::char_traits<char>, std::__ndk1::allocator<char> > >, std::__ndk1::monostate>::listen<PrismUIButton::onBtn(cocos2d::CCObject*)::$_2, geode::Task<geode::Result<std::__ndk1::__fs::filesystem::path, std::__ndk1::basic_string<char, std::__ndk1::char_traits<char>, std::__ndk1::allocator<char> > >, std::__ndk1::monostate>::listen<PrismUIButton::onBtn(cocos2d::CCObject*)::$_2>(PrismUIButton::onBtn(cocos2d::CCObject*)::$_2&&) const::{lambda(auto:1 const&)#1}, geode::Task<geode::Result<std::__ndk1::__fs::filesystem::path, std::__ndk1::basic_string<char, std::__ndk1::char_traits<char>, std::__ndk1::allocator<char> > >, std::__ndk1::monostate>::listen<PrismUIButton::onBtn(cocos2d::CCObject*)::$_2>(PrismUIButton::onBtn(cocos2d::CCObject*)::$_2&&) const::{lambda()#1}>(PrismUIButton::onBtn(cocos2d::CCObject*)::$_2&&, geode::Task<geode::Result<std::__ndk1::__fs::filesystem::path, std::__ndk1::basic_string<char, std::__ndk1::char_traits<char>, std::__ndk1::allocator<char> > >, std::__ndk1::monostate>::listen<PrismUIButton::onBtn(cocos2d::CCObject*)::$_2>(PrismUIButton::onBtn(cocos2d::CCObject*)::$_2&&) const::{lambda(auto:1 const&)#1}, geode::Task<geode::Result<std::__ndk1::__fs::filesystem::path, std::__ndk1::basic_string<char, std::__ndk1::char_traits<char>, std::__ndk1::allocator<char> > >, std::__ndk1::monostate>::listen<PrismUIButton::onBtn(cocos2d::CCObject*)::$_2>(PrismUIButton::onBtn(cocos2d::CCObject*)::$_2&&) const::{lambda()#1}&&) const::{lambda(geode::Task<geode::Result<std::__ndk1::__fs::filesystem::path, std::__ndk1::basic_string<char, std::__ndk1::char_traits<char>, std::__ndk1::allocator<char> > >, std::__ndk1::monostate>::Event*)#1}>, void (geode::Task<geode::Result<std::__ndk1::__fs::filesystem::path, std::__ndk1::basic_string<char, std::__ndk1::char_traits<char>, std::__ndk1::allocator<char> > >, std::__ndk1::monostate>::Event*)>::~__func()
FUNC d6ffc 38 0 std::__ndk1::__function::__func<geode::Task<geode::Result<std::__ndk1::__fs::filesystem::path, std::__ndk1::basic_string<char, std::__ndk1::char_traits<char>, std::__ndk1::allocator<char> > >, std::__ndk1::monostate>::listen<PrismUIButton::onBtn(cocos2d::CCObject*)::$_2, geode::Task<geode::Result<std::__ndk1::__fs::filesystem::path, std::__ndk1::basic_string<char, std::__ndk1::char_traits<char>, std::__ndk1::allocator<char> > >, std::__ndk1::monostate>::listen<PrismUIButton::onBtn(cocos2d::CCObject*)::$_2>(PrismUIButton::onBtn(cocos2d::CCObject*)::$_2&&) const::{lambda(auto:1 const&)#1}, geode::Task<geode::Result<std::__ndk1::__fs::filesystem::path, std::__ndk1::basic_string<char, std::__ndk1::char_traits<char>, std::__ndk1::allocator<char> > >, std::__ndk1::monostate>::listen<PrismUIButton::onBtn(cocos2d::CCObject*)::$_2>(PrismUIButton::onBtn(cocos2d::CCObject*)::$_2&&) const::{lambda()#1}>(PrismUIButton::onBtn(cocos2d::CCObject*)::$_2&&, geode::Task<geode::Result<std::__ndk1::__fs::filesystem::path, std::__ndk1::basic_string<char, std::__ndk1::char_traits<char>, std::__ndk1::allocator<char> > >, std::__ndk1::monostate>::listen<PrismUIButton::onBtn(cocos2d::CCObject*)::$_2>(PrismUIButton::onBtn(cocos2d::CCObject*)::$_2&&) const::{lambda(auto:1 const&)#1}, geode::Task<geode::Result<std::__ndk1::__fs::filesystem::path, std::__ndk1::basic_string<char, std::__ndk1::char_traits<char>, std::__ndk1::allocator<char> > >, std::__ndk1::monostate>::listen<PrismUIButton::onBtn(cocos2d::CCObject*)::$_2>(PrismUIButton::onBtn(cocos2d::CCObject*)::$_2&&) const::{lambda()#1}&&) const::{lambda(geode::Task<geode::Result<std::__ndk1::__fs::filesystem::path, std::__ndk1::basic_string<char, std::__ndk1::char_traits<char>, std::__ndk1::allocator<char> > >, std::__ndk1::monostate>::Event*)#1}, std::__ndk1::allocator<geode::Task<geode::Result<std::__ndk1::__fs::filesystem::path, std::__ndk1::basic_string<char, std::__ndk1::char_traits<char>, std::__ndk1::allocator<char> > >, std::__ndk1::monostate>::listen<PrismUIButton::onBtn(cocos2d::CCObject*)::$_2, geode::Task<geode::Result<std::__ndk1::__fs::filesystem::path, std::__ndk1::basic_string<char, std::__ndk1::char_traits<char>, std::__ndk1::allocator<char> > >, std::__ndk1::monostate>::listen<PrismUIButton::onBtn(cocos2d::CCObject*)::$_2>(PrismUIButton::onBtn(cocos2d::CCObject*)::$_2&&) const::{lambda(auto:1 const&)#1}, geode::Task<geode::Result<std::__ndk1::__fs::filesystem::path, std::__ndk1::basic_string<char, std::__ndk1::char_traits<char>, std::__ndk1::allocator<char> > >, std::__ndk1::monostate>::listen<PrismUIButton::onBtn(cocos2d::CCObject*)::$_2>(PrismUIButton::onBtn(cocos2d::CCObject*)::$_2&&) const::{lambda()#1}>(PrismUIButton::onBtn(cocos2d::CCObject*)::$_2&&, geode::Task<geode::Result<std::__ndk1::__fs::filesystem::path, std::__ndk1::basic_string<char, std::__ndk1::char_traits<char>, std::__ndk1::allocator<char> > >, std::__ndk1::monostate>::listen<PrismUIButton::onBtn(cocos2d::CCObject*)::$_2>(PrismUIButton::onBtn(cocos2d::CCObject*)::$_2&&) const::{lambda(auto:1 const&)#1}, geode::Task<geode::Result<std::__ndk1::__fs::filesystem::path, std::__ndk1::basic_string<char, std::__ndk1::char_traits<char>, std::__ndk1::allocator<char> > >, std::__ndk1::monostate>::listen<PrismUIButton::onBtn(cocos2d::CCObject*)::$_2>(PrismUIButton::onBtn(cocos2d::CCObject*)::$_2&&) const::{lambda()#1}&&) const::{lambda(geode::Task<geode::Result<std::__ndk1::__fs::filesystem::path, std::__ndk1::basic_string<char, std::__ndk1::char_traits<char>, std::__ndk1::allocator<char> > >, std::__ndk1::monostate>::Event*)#1}>, void (geode::Task<geode::Result<std::__ndk1::__fs::filesystem::path, std::__ndk1::basic_string<char, std::__ndk1::char_traits<char>, std::__ndk1::allocator<char> > >, std::__ndk1::monostate>::Event*)>::__clone() const
FUNC d7034 18 0 std::__ndk1::__function::__func<geode::Task<geode::Result<std::__ndk1::__fs::filesystem::path, std::__ndk1::basic_string<char, std::__ndk1::char_traits<char>, std::__ndk1::allocator<char> > >, std::__ndk1::monostate>::listen<PrismUIButton::onBtn(cocos2d::CCObject*)::$_2, geode::Task<geode::Result<std::__ndk1::__fs::filesystem::path, std::__ndk1::basic_string<char, std::__ndk1::char_traits<char>, std::__ndk1::allocator<char> > >, std::__ndk1::monostate>::listen<PrismUIButton::onBtn(cocos2d::CCObject*)::$_2>(PrismUIButton::onBtn(cocos2d::CCObject*)::$_2&&) const::{lambda(auto:1 const&)#1}, geode::Task<geode::Result<std::__ndk1::__fs::filesystem::path, std::__ndk1::basic_string<char, std::__ndk1::char_traits<char>, std::__ndk1::allocator<char> > >, std::__ndk1::monostate>::listen<PrismUIButton::onBtn(cocos2d::CCObject*)::$_2>(PrismUIButton::onBtn(cocos2d::CCObject*)::$_2&&) const::{lambda()#1}>(PrismUIButton::onBtn(cocos2d::CCObject*)::$_2&&, geode::Task<geode::Result<std::__ndk1::__fs::filesystem::path, std::__ndk1::basic_string<char, std::__ndk1::char_traits<char>, std::__ndk1::allocator<char> > >, std::__ndk1::monostate>::listen<PrismUIButton::onBtn(cocos2d::CCObject*)::$_2>(PrismUIButton::onBtn(cocos2d::CCObject*)::$_2&&) const::{lambda(auto:1 const&)#1}, geode::Task<geode::Result<std::__ndk1::__fs::filesystem::path, std::__ndk1::basic_string<char, std::__ndk1::char_traits<char>, std::__ndk1::allocator<char> > >, std::__ndk1::monostate>::listen<PrismUIButton::onBtn(cocos2d::CCObject*)::$_2>(PrismUIButton::onBtn(cocos2d::CCObject*)::$_2&&) const::{lambda()#1}&&) const::{lambda(geode::Task<geode::Result<std::__ndk1::__fs::filesystem::path, std::__ndk1::basic_string<char, std::__ndk1::char_traits<char>, std::__ndk1::allocator<char> > >, std::__ndk1::monostate>::Event*)#1}, std::__ndk1::allocator<geode::Task<geode::Result<std::__ndk1::__fs::filesystem::path, std::__ndk1::basic_string<char, std::__ndk1::char_traits<char>, std::__ndk1::allocator<char> > >, std::__ndk1::monostate>::listen<PrismUIButton::onBtn(cocos2d::CCObject*)::$_2, geode::Task<geode::Result<std::__ndk1::__fs::filesystem::path, std::__ndk1::basic_string<char, std::__ndk1::char_traits<char>, std::__ndk1::allocator<char> > >, std::__ndk1::monostate>::listen<PrismUIButton::onBtn(cocos2d::CCObject*)::$_2>(PrismUIButton::onBtn(cocos2d::CCObject*)::$_2&&) const::{lambda(auto:1 const&)#1}, geode::Task<geode::Result<std::__ndk1::__fs::filesystem::path, std::__ndk1::basic_string<char, std::__ndk1::char_traits<char>, std::__ndk1::allocator<char> > >, std::__ndk1::monostate>::listen<PrismUIButton::onBtn(cocos2d::CCObject*)::$_2>(PrismUIButton::onBtn(cocos2d::CCObject*)::$_2&&) const::{lambda()#1}>(PrismUIButton::onBtn(cocos2d::CCObject*)::$_2&&, geode::Task<geode::Result<std::__ndk1::__fs::filesystem::path, std::__ndk1::basic_string<char, std::__ndk1::char_traits<char>, std::__ndk1::allocator<char> > >, std::__ndk1::monostate>::listen<PrismUIButton::onBtn(cocos2d::CCObject*)::$_2>(PrismUIButton::onBtn(cocos2d::CCObject*)::$_2&&) const::{lambda(auto:1 const&)#1}, geode::Task<geode::Result<std::__ndk1::__fs::filesystem::path, std::__ndk1::basic_string<char, std::__ndk1::char_traits<char>, std::__ndk1::allocator<char> > >, std::__ndk1::monostate>::listen<PrismUIButton::onBtn(cocos2d::CCObject*)::$_2>(PrismUIButton::onBtn(cocos2d::CCObject*)::$_2&&) const::{lambda()#1}&&) const::{lambda(geode::Task<geode::Result<std::__ndk1::__fs::filesystem::path, std::__ndk1::basic_string<char, std::__ndk1::char_traits<char>, std::__ndk1::allocator<char> > >, std::__ndk1::monostate>::Event*)#1}>, void (geode::Task<geode::Result<std::__ndk1::__fs::filesystem::path, std::__ndk1::basic_string<char, std::__ndk1::char_traits<char>, std::__ndk1::allocator<char> > >, std::__ndk1::monostate>::Event*)>::__clone(std::__ndk1::__function::__base<void (geode::Task<geode::Result<std::__ndk1::__fs::filesystem::path, std::__ndk1::basic_string<char, std::__ndk1::char_traits<char>, std::__ndk1::allocator<char> > >, std::__ndk1::monostate>::Event*)>*) const
FUNC d704c 4 0 std::__ndk1::__function::__func<geode::Task<geode::Result<std::__ndk1::__fs::filesystem::path, std::__ndk1::basic_string<char, std::__ndk1::char_traits<char>, std::__ndk1::allocator<char> > >, std::__ndk1::monostate>::listen<PrismUIButton::onBtn(cocos2d::CCObject*)::$_2, geode::Task<geode::Result<std::__ndk1::__fs::filesystem::path, std::__ndk1::basic_string<char, std::__ndk1::char_traits<char>, std::__ndk1::allocator<char> > >, std::__ndk1::monostate>::listen<PrismUIButton::onBtn(cocos2d::CCObject*)::$_2>(PrismUIButton::onBtn(cocos2d::CCObject*)::$_2&&) const::{lambda(auto:1 const&)#1}, geode::Task<geode::Result<std::__ndk1::__fs::filesystem::path, std::__ndk1::basic_string<char, std::__ndk1::char_traits<char>, std::__ndk1::allocator<char> > >, std::__ndk1::monostate>::listen<PrismUIButton::onBtn(cocos2d::CCObject*)::$_2>(PrismUIButton::onBtn(cocos2d::CCObject*)::$_2&&) const::{lambda()#1}>(PrismUIButton::onBtn(cocos2d::CCObject*)::$_2&&, geode::Task<geode::Result<std::__ndk1::__fs::filesystem::path, std::__ndk1::basic_string<char, std::__ndk1::char_traits<char>, std::__ndk1::allocator<char> > >, std::__ndk1::monostate>::listen<PrismUIButton::onBtn(cocos2d::CCObject*)::$_2>(PrismUIButton::onBtn(cocos2d::CCObject*)::$_2&&) const::{lambda(auto:1 const&)#1}, geode::Task<geode::Result<std::__ndk1::__fs::filesystem::path, std::__ndk1::basic_string<char, std::__ndk1::char_traits<char>, std::__ndk1::allocator<char> > >, std::__ndk1::monostate>::listen<PrismUIButton::onBtn(cocos2d::CCObject*)::$_2>(PrismUIButton::onBtn(cocos2d::CCObject*)::$_2&&) const::{lambda()#1}&&) const::{lambda(geode::Task<geode::Result<std::__ndk1::__fs::filesystem::path, std::__ndk1::basic_string<char, std::__ndk1::char_traits<char>, std::__ndk1::allocator<char> > >, std::__ndk1::monostate>::Event*)#1}, std::__ndk1::allocator<geode::Task<geode::Result<std::__ndk1::__fs::filesystem::path, std::__ndk1::basic_string<char, std::__ndk1::char_traits<char>, std::__ndk1::allocator<char> > >, std::__ndk1::monostate>::listen<PrismUIButton::onBtn(cocos2d::CCObject*)::$_2, geode::Task<geode::Result<std::__ndk1::__fs::filesystem::path, std::__ndk1::basic_string<char, std::__ndk1::char_traits<char>, std::__ndk1::allocator<char> > >, std::__ndk1::monostate>::listen<PrismUIButton::onBtn(cocos2d::CCObject*)::$_2>(PrismUIButton::onBtn(cocos2d::CCObject*)::$_2&&) const::{lambda(auto:1 const&)#1}, geode::Task<geode::Result<std::__ndk1::__fs::filesystem::path, std::__ndk1::basic_string<char, std::__ndk1::char_traits<char>, std::__ndk1::allocator<char> > >, std::__ndk1::monostate>::listen<PrismUIButton::onBtn(cocos2d::CCObject*)::$_2>(PrismUIButton::onBtn(cocos2d::CCObject*)::$_2&&) const::{lambda()#1}>(PrismUIButton::onBtn(cocos2d::CCObject*)::$_2&&, geode::Task<geode::Result<std::__ndk1::__fs::filesystem::path, std::__ndk1::basic_string<char, std::__ndk1::char_traits<char>, std::__ndk1::allocator<char> > >, std::__ndk1::monostate>::listen<PrismUIButton::onBtn(cocos2d::CCObject*)::$_2>(PrismUIButton::onBtn(cocos2d::CCObject*)::$_2&&) const::{lambda(auto:1 const&)#1}, geode::Task<geode::Result<std::__ndk1::__fs::filesystem::path, std::__ndk1::basic_string<char, std::__ndk1::char_traits<char>, std::__ndk1::allocator<char> > >, std::__ndk1::monostate>::listen<PrismUIButton::onBtn(cocos2d::CCObject*)::$_2>(PrismUIButton::onBtn(cocos2d::CCObject*)::$_2&&) const::{lambda()#1}&&) const::{lambda(geode::Task<geode::Result<std::__ndk1::__fs::filesystem::path, std::__ndk1::basic_string<char, std::__ndk1::char_traits<char>, std::__ndk1::allocator<char> > >, std::__ndk1::monostate>::Event*)#1}>, void (geode::Task<geode::Result<std::__ndk1::__fs::filesystem::path, std::__ndk1::basic_string<char, std::__ndk1::char_traits<char>, std::__ndk1::allocator<char> > >, std::__ndk1::monostate>::Event*)>::destroy()
FUNC d7050 4 0 std::__ndk1::__function::__func<geode::Task<geode::Result<std::__ndk1::__fs::filesystem::path, std::__ndk1::basic_string<char, std::__ndk1::char_traits<char>, std::__ndk1::allocator<char> > >, std::__ndk1::monostate>::listen<PrismUIButton::onBtn(cocos2d::CCObject*)::$_2, geode::Task<geode::Result<std::__ndk1::__fs::filesystem::path, std::__ndk1::basic_string<char, std::__ndk1::char_traits<char>, std::__ndk1::allocator<char> > >, std::__ndk1::monostate>::listen<PrismUIButton::onBtn(cocos2d::CCObject*)::$_2>(PrismUIButton::onBtn(cocos2d::CCObject*)::$_2&&) const::{lambda(auto:1 const&)#1}, geode::Task<geode::Result<std::__ndk1::__fs::filesystem::path, std::__ndk1::basic_string<char, std::__ndk1::char_traits<char>, std::__ndk1::allocator<char> > >, std::__ndk1::monostate>::listen<PrismUIButton::onBtn(cocos2d::CCObject*)::$_2>(PrismUIButton::onBtn(cocos2d::CCObject*)::$_2&&) const::{lambda()#1}>(PrismUIButton::onBtn(cocos2d::CCObject*)::$_2&&, geode::Task<geode::Result<std::__ndk1::__fs::filesystem::path, std::__ndk1::basic_string<char, std::__ndk1::char_traits<char>, std::__ndk1::allocator<char> > >, std::__ndk1::monostate>::listen<PrismUIButton::onBtn(cocos2d::CCObject*)::$_2>(PrismUIButton::onBtn(cocos2d::CCObject*)::$_2&&) const::{lambda(auto:1 const&)#1}, geode::Task<geode::Result<std::__ndk1::__fs::filesystem::path, std::__ndk1::basic_string<char, std::__ndk1::char_traits<char>, std::__ndk1::allocator<char> > >, std::__ndk1::monostate>::listen<PrismUIButton::onBtn(cocos2d::CCObject*)::$_2>(PrismUIButton::onBtn(cocos2d::CCObject*)::$_2&&) const::{lambda()#1}&&) const::{lambda(geode::Task<geode::Result<std::__ndk1::__fs::filesystem::path, std::__ndk1::basic_string<char, std::__ndk1::char_traits<char>, std::__ndk1::allocator<char> > >, std::__ndk1::monostate>::Event*)#1}, std::__ndk1::allocator<geode::Task<geode::Result<std::__ndk1::__fs::filesystem::path, std::__ndk1::basic_string<char, std::__ndk1::char_traits<char>, std::__ndk1::allocator<char> > >, std::__ndk1::monostate>::listen<PrismUIButton::onBtn(cocos2d::CCObject*)::$_2, geode::Task<geode::Result<std::__ndk1::__fs::filesystem::path, std::__ndk1::basic_string<char, std::__ndk1::char_traits<char>, std::__ndk1::allocator<char> > >, std::__ndk1::monostate>::listen<PrismUIButton::onBtn(cocos2d::CCObject*)::$_2>(PrismUIButton::onBtn(cocos2d::CCObject*)::$_2&&) const::{lambda(auto:1 const&)#1}, geode::Task<geode::Result<std::__ndk1::__fs::filesystem::path, std::__ndk1::basic_string<char, std::__ndk1::char_traits<char>, std::__ndk1::allocator<char> > >, std::__ndk1::monostate>::listen<PrismUIButton::onBtn(cocos2d::CCObject*)::$_2>(PrismUIButton::onBtn(cocos2d::CCObject*)::$_2&&) const::{lambda()#1}>(PrismUIButton::onBtn(cocos2d::CCObject*)::$_2&&, geode::Task<geode::Result<std::__ndk1::__fs::filesystem::path, std::__ndk1::basic_string<char, std::__ndk1::char_traits<char>, std::__ndk1::allocator<char> > >, std::__ndk1::monostate>::listen<PrismUIButton::onBtn(cocos2d::CCObject*)::$_2>(PrismUIButton::onBtn(cocos2d::CCObject*)::$_2&&) const::{lambda(auto:1 const&)#1}, geode::Task<geode::Result<std::__ndk1::__fs::filesystem::path, std::__ndk1::basic_string<char, std::__ndk1::char_traits<char>, std::__ndk1::allocator<char> > >, std::__ndk1::monostate>::listen<PrismUIButton::onBtn(cocos2d::CCObject*)::$_2>(PrismUIButton::onBtn(cocos2d::CCObject*)::$_2&&) const::{lambda()#1}&&) const::{lambda(geode::Task<geode::Result<std::__ndk1::__fs::filesystem::path, std::__ndk1::basic_string<char, std::__ndk1::char_traits<char>, std::__ndk1::allocator<char> > >, std::__ndk1::monostate>::Event*)#1}>, void (geode::Task<geode::Result<std::__ndk1::__fs::filesystem::path, std::__ndk1::basic_string<char, std::__ndk1::char_traits<char>, std::__ndk1::allocator<char> > >, std::__ndk1::monostate>::Event*)>::destroy_deallocate()
FUNC d7054 97c 0 std::__ndk1::__function::__func<geode::Task<geode::Result<std::__ndk1::__fs::filesystem::path, std::__ndk1::basic_string<char, std::__ndk1::char_traits<char>, std::__ndk1::allocator<char> > >, std::__ndk1::monostate>::listen<PrismUIButton::onBtn(cocos2d::CCObject*)::$_2, geode::Task<geode::Result<std::__ndk1::__fs::filesystem::path, std::__ndk1::basic_string<char, std::__ndk1::char_traits<char>, std::__ndk1::allocator<char> > >, std::__ndk1::monostate>::listen<PrismUIButton::onBtn(cocos2d::CCObject*)::$_2>(PrismUIButton::onBtn(cocos2d::CCObject*)::$_2&&) const::{lambda(auto:1 const&)#1}, geode::Task<geode::Result<std::__ndk1::__fs::filesystem::path, std::__ndk1::basic_string<char, std::__ndk1::char_traits<char>, std::__ndk1::allocator<char> > >, std::__ndk1::monostate>::listen<PrismUIButton::onBtn(cocos2d::CCObject*)::$_2>(PrismUIButton::onBtn(cocos2d::CCObject*)::$_2&&) const::{lambda()#1}>(PrismUIButton::onBtn(cocos2d::CCObject*)::$_2&&, geode::Task<geode::Result<std::__ndk1::__fs::filesystem::path, std::__ndk1::basic_string<char, std::__ndk1::char_traits<char>, std::__ndk1::allocator<char> > >, std::__ndk1::monostate>::listen<PrismUIButton::onBtn(cocos2d::CCObject*)::$_2>(PrismUIButton::onBtn(cocos2d::CCObject*)::$_2&&) const::{lambda(auto:1 const&)#1}, geode::Task<geode::Result<std::__ndk1::__fs::filesystem::path, std::__ndk1::basic_string<char, std::__ndk1::char_traits<char>, std::__ndk1::allocator<char> > >, std::__ndk1::monostate>::listen<PrismUIButton::onBtn(cocos2d::CCObject*)::$_2>(PrismUIButton::onBtn(cocos2d::CCObject*)::$_2&&) const::{lambda()#1}&&) const::{lambda(geode::Task<geode::Result<std::__ndk1::__fs::filesystem::path, std::__ndk1::basic_string<char, std::__ndk1::char_traits<char>, std::__ndk1::allocator<char> > >, std::__ndk1::monostate>::Event*)#1}, std::__ndk1::allocator<geode::Task<geode::Result<std::__ndk1::__fs::filesystem::path, std::__ndk1::basic_string<char, std::__ndk1::char_traits<char>, std::__ndk1::allocator<char> > >, std::__ndk1::monostate>::listen<PrismUIButton::onBtn(cocos2d::CCObject*)::$_2, geode::Task<geode::Result<std::__ndk1::__fs::filesystem::path, std::__ndk1::basic_string<char, std::__ndk1::char_traits<char>, std::__ndk1::allocator<char> > >, std::__ndk1::monostate>::listen<PrismUIButton::onBtn(cocos2d::CCObject*)::$_2>(PrismUIButton::onBtn(cocos2d::CCObject*)::$_2&&) const::{lambda(auto:1 const&)#1}, geode::Task<geode::Result<std::__ndk1::__fs::filesystem::path, std::__ndk1::basic_string<char, std::__ndk1::char_traits<char>, std::__ndk1::allocator<char> > >, std::__ndk1::monostate>::listen<PrismUIButton::onBtn(cocos2d::CCObject*)::$_2>(PrismUIButton::onBtn(cocos2d::CCObject*)::$_2&&) const::{lambda()#1}>(PrismUIButton::onBtn(cocos2d::CCObject*)::$_2&&, geode::Task<geode::Result<std::__ndk1::__fs::filesystem::path, std::__ndk1::basic_string<char, std::__ndk1::char_traits<char>, std::__ndk1::allocator<char> > >, std::__ndk1::monostate>::listen<PrismUIButton::onBtn(cocos2d::CCObject*)::$_2>(PrismUIButton::onBtn(cocos2d::CCObject*)::$_2&&) const::{lambda(auto:1 const&)#1}, geode::Task<geode::Result<std::__ndk1::__fs::filesystem::path, std::__ndk1::basic_string<char, std::__ndk1::char_traits<char>, std::__ndk1::allocator<char> > >, std::__ndk1::monostate>::listen<PrismUIButton::onBtn(cocos2d::CCObject*)::$_2>(PrismUIButton::onBtn(cocos2d::CCObject*)::$_2&&) const::{lambda()#1}&&) const::{lambda(geode::Task<geode::Result<std::__ndk1::__fs::filesystem::path, std::__ndk1::basic_string<char, std::__ndk1::char_traits<char>, std::__ndk1::allocator<char> > >, std::__ndk1::monostate>::Event*)#1}>, void (geode::Task<geode::Result<std::__ndk1::__fs::filesystem::path, std::__ndk1::basic_string<char, std::__ndk1::char_traits<char>, std::__ndk1::allocator<char> > >, std::__ndk1::monostate>::Event*)>::operator()(geode::Task<geode::Result<std::__ndk1::__fs::filesystem::path, std::__ndk1::basic_string<char, std::__ndk1::char_traits<char>, std::__ndk1::allocator<char> > >, std::__ndk1::monostate>::Event*&&)
FUNC d79d0 1c 0 std::__ndk1::__function::__func<geode::Task<geode::Result<std::__ndk1::__fs::filesystem::path, std::__ndk1::basic_string<char, std::__ndk1::char_traits<char>, std::__ndk1::allocator<char> > >, std::__ndk1::monostate>::listen<PrismUIButton::onBtn(cocos2d::CCObject*)::$_2, geode::Task<geode::Result<std::__ndk1::__fs::filesystem::path, std::__ndk1::basic_string<char, std::__ndk1::char_traits<char>, std::__ndk1::allocator<char> > >, std::__ndk1::monostate>::listen<PrismUIButton::onBtn(cocos2d::CCObject*)::$_2>(PrismUIButton::onBtn(cocos2d::CCObject*)::$_2&&) const::{lambda(auto:1 const&)#1}, geode::Task<geode::Result<std::__ndk1::__fs::filesystem::path, std::__ndk1::basic_string<char, std::__ndk1::char_traits<char>, std::__ndk1::allocator<char> > >, std::__ndk1::monostate>::listen<PrismUIButton::onBtn(cocos2d::CCObject*)::$_2>(PrismUIButton::onBtn(cocos2d::CCObject*)::$_2&&) const::{lambda()#1}>(PrismUIButton::onBtn(cocos2d::CCObject*)::$_2&&, geode::Task<geode::Result<std::__ndk1::__fs::filesystem::path, std::__ndk1::basic_string<char, std::__ndk1::char_traits<char>, std::__ndk1::allocator<char> > >, std::__ndk1::monostate>::listen<PrismUIButton::onBtn(cocos2d::CCObject*)::$_2>(PrismUIButton::onBtn(cocos2d::CCObject*)::$_2&&) const::{lambda(auto:1 const&)#1}, geode::Task<geode::Result<std::__ndk1::__fs::filesystem::path, std::__ndk1::basic_string<char, std::__ndk1::char_traits<char>, std::__ndk1::allocator<char> > >, std::__ndk1::monostate>::listen<PrismUIButton::onBtn(cocos2d::CCObject*)::$_2>(PrismUIButton::onBtn(cocos2d::CCObject*)::$_2&&) const::{lambda()#1}&&) const::{lambda(geode::Task<geode::Result<std::__ndk1::__fs::filesystem::path, std::__ndk1::basic_string<char, std::__ndk1::char_traits<char>, std::__ndk1::allocator<char> > >, std::__ndk1::monostate>::Event*)#1}, std::__ndk1::allocator<geode::Task<geode::Result<std::__ndk1::__fs::filesystem::path, std::__ndk1::basic_string<char, std::__ndk1::char_traits<char>, std::__ndk1::allocator<char> > >, std::__ndk1::monostate>::listen<PrismUIButton::onBtn(cocos2d::CCObject*)::$_2, geode::Task<geode::Result<std::__ndk1::__fs::filesystem::path, std::__ndk1::basic_string<char, std::__ndk1::char_traits<char>, std::__ndk1::allocator<char> > >, std::__ndk1::monostate>::listen<PrismUIButton::onBtn(cocos2d::CCObject*)::$_2>(PrismUIButton::onBtn(cocos2d::CCObject*)::$_2&&) const::{lambda(auto:1 const&)#1}, geode::Task<geode::Result<std::__ndk1::__fs::filesystem::path, std::__ndk1::basic_string<char, std::__ndk1::char_traits<char>, std::__ndk1::allocator<char> > >, std::__ndk1::monostate>::listen<PrismUIButton::onBtn(cocos2d::CCObject*)::$_2>(PrismUIButton::onBtn(cocos2d::CCObject*)::$_2&&) const::{lambda()#1}>(PrismUIButton::onBtn(cocos2d::CCObject*)::$_2&&, geode::Task<geode::Result<std::__ndk1::__fs::filesystem::path, std::__ndk1::basic_string<char, std::__ndk1::char_traits<char>, std::__ndk1::allocator<char> > >, std::__ndk1::monostate>::listen<PrismUIButton::onBtn(cocos2d::CCObject*)::$_2>(PrismUIButton::onBtn(cocos2d::CCObject*)::$_2&&) const::{lambda(auto:1 const&)#1}, geode::Task<geode::Result<std::__ndk1::__fs::filesystem::path, std::__ndk1::basic_string<char, std::__ndk1::char_traits<char>, std::__ndk1::allocator<char> > >, std::__ndk1::monostate>::listen<PrismUIButton::onBtn(cocos2d::CCObject*)::$_2>(PrismUIButton::onBtn(cocos2d::CCObject*)::$_2&&) const::{lambda()#1}&&) const::{lambda(geode::Task<geode::Result<std::__ndk1::__fs::filesystem::path, std::__ndk1::basic_string<char, std::__ndk1::char_traits<char>, std::__ndk1::allocator<char> > >, std::__ndk1::monostate>::Event*)#1}>, void (geode::Task<geode::Result<std::__ndk1::__fs::filesystem::path, std::__ndk1::basic_string<char, std::__ndk1::char_traits<char>, std::__ndk1::allocator<char> > >, std::__ndk1::monostate>::Event*)>::target(std::type_info const&) const
FUNC d79ec c 0 std::__ndk1::__function::__func<geode::Task<geode::Result<std::__ndk1::__fs::filesystem::path, std::__ndk1::basic_string<char, std::__ndk1::char_traits<char>, std::__ndk1::allocator<char> > >, std::__ndk1::monostate>::listen<PrismUIButton::onBtn(cocos2d::CCObject*)::$_2, geode::Task<geode::Result<std::__ndk1::__fs::filesystem::path, std::__ndk1::basic_string<char, std::__ndk1::char_traits<char>, std::__ndk1::allocator<char> > >, std::__ndk1::monostate>::listen<PrismUIButton::onBtn(cocos2d::CCObject*)::$_2>(PrismUIButton::onBtn(cocos2d::CCObject*)::$_2&&) const::{lambda(auto:1 const&)#1}, geode::Task<geode::Result<std::__ndk1::__fs::filesystem::path, std::__ndk1::basic_string<char, std::__ndk1::char_traits<char>, std::__ndk1::allocator<char> > >, std::__ndk1::monostate>::listen<PrismUIButton::onBtn(cocos2d::CCObject*)::$_2>(PrismUIButton::onBtn(cocos2d::CCObject*)::$_2&&) const::{lambda()#1}>(PrismUIButton::onBtn(cocos2d::CCObject*)::$_2&&, geode::Task<geode::Result<std::__ndk1::__fs::filesystem::path, std::__ndk1::basic_string<char, std::__ndk1::char_traits<char>, std::__ndk1::allocator<char> > >, std::__ndk1::monostate>::listen<PrismUIButton::onBtn(cocos2d::CCObject*)::$_2>(PrismUIButton::onBtn(cocos2d::CCObject*)::$_2&&) const::{lambda(auto:1 const&)#1}, geode::Task<geode::Result<std::__ndk1::__fs::filesystem::path, std::__ndk1::basic_string<char, std::__ndk1::char_traits<char>, std::__ndk1::allocator<char> > >, std::__ndk1::monostate>::listen<PrismUIButton::onBtn(cocos2d::CCObject*)::$_2>(PrismUIButton::onBtn(cocos2d::CCObject*)::$_2&&) const::{lambda()#1}&&) const::{lambda(geode::Task<geode::Result<std::__ndk1::__fs::filesystem::path, std::__ndk1::basic_string<char, std::__ndk1::char_traits<char>, std::__ndk1::allocator<char> > >, std::__ndk1::monostate>::Event*)#1}, std::__ndk1::allocator<geode::Task<geode::Result<std::__ndk1::__fs::filesystem::path, std::__ndk1::basic_string<char, std::__ndk1::char_traits<char>, std::__ndk1::allocator<char> > >, std::__ndk1::monostate>::listen<PrismUIButton::onBtn(cocos2d::CCObject*)::$_2, geode::Task<geode::Result<std::__ndk1::__fs::filesystem::path, std::__ndk1::basic_string<char, std::__ndk1::char_traits<char>, std::__ndk1::allocator<char> > >, std::__ndk1::monostate>::listen<PrismUIButton::onBtn(cocos2d::CCObject*)::$_2>(PrismUIButton::onBtn(cocos2d::CCObject*)::$_2&&) const::{lambda(auto:1 const&)#1}, geode::Task<geode::Result<std::__ndk1::__fs::filesystem::path, std::__ndk1::basic_string<char, std::__ndk1::char_traits<char>, std::__ndk1::allocator<char> > >, std::__ndk1::monostate>::listen<PrismUIButton::onBtn(cocos2d::CCObject*)::$_2>(PrismUIButton::onBtn(cocos2d::CCObject*)::$_2&&) const::{lambda()#1}>(PrismUIButton::onBtn(cocos2d::CCObject*)::$_2&&, geode::Task<geode::Result<std::__ndk1::__fs::filesystem::path, std::__ndk1::basic_string<char, std::__ndk1::char_traits<char>, std::__ndk1::allocator<char> > >, std::__ndk1::monostate>::listen<PrismUIButton::onBtn(cocos2d::CCObject*)::$_2>(PrismUIButton::onBtn(cocos2d::CCObject*)::$_2&&) const::{lambda(auto:1 const&)#1}, geode::Task<geode::Result<std::__ndk1::__fs::filesystem::path, std::__ndk1::basic_string<char, std::__ndk1::char_traits<char>, std::__ndk1::allocator<char> > >, std::__ndk1::monostate>::listen<PrismUIButton::onBtn(cocos2d::CCObject*)::$_2>(PrismUIButton::onBtn(cocos2d::CCObject*)::$_2&&) const::{lambda()#1}&&) const::{lambda(geode::Task<geode::Result<std::__ndk1::__fs::filesystem::path, std::__ndk1::basic_string<char, std::__ndk1::char_traits<char>, std::__ndk1::allocator<char> > >, std::__ndk1::monostate>::Event*)#1}>, void (geode::Task<geode::Result<std::__ndk1::__fs::filesystem::path, std::__ndk1::basic_string<char, std::__ndk1::char_traits<char>, std::__ndk1::allocator<char> > >, std::__ndk1::monostate>::Event*)>::target_type() const
FUNC d79f8 4 0 std::__ndk1::__function::__base<void ()>::~__base()
FUNC d79fc 4 0 std::__ndk1::__function::__func<geode::Task<geode::Result<std::__ndk1::__fs::filesystem::path, std::__ndk1::basic_string<char, std::__ndk1::char_traits<char>, std::__ndk1::allocator<char> > >, std::__ndk1::monostate>::listen<PrismUIButton::onBtn(cocos2d::CCObject*)::$_2, geode::Task<geode::Result<std::__ndk1::__fs::filesystem::path, std::__ndk1::basic_string<char, std::__ndk1::char_traits<char>, std::__ndk1::allocator<char> > >, std::__ndk1::monostate>::listen<PrismUIButton::onBtn(cocos2d::CCObject*)::$_2>(PrismUIButton::onBtn(cocos2d::CCObject*)::$_2&&) const::{lambda(auto:1 const&)#1}, geode::Task<geode::Result<std::__ndk1::__fs::filesystem::path, std::__ndk1::basic_string<char, std::__ndk1::char_traits<char>, std::__ndk1::allocator<char> > >, std::__ndk1::monostate>::listen<PrismUIButton::onBtn(cocos2d::CCObject*)::$_2>(PrismUIButton::onBtn(cocos2d::CCObject*)::$_2&&) const::{lambda()#1}>(PrismUIButton::onBtn(cocos2d::CCObject*)::$_2&&, geode::Task<geode::Result<std::__ndk1::__fs::filesystem::path, std::__ndk1::basic_string<char, std::__ndk1::char_traits<char>, std::__ndk1::allocator<char> > >, std::__ndk1::monostate>::listen<PrismUIButton::onBtn(cocos2d::CCObject*)::$_2>(PrismUIButton::onBtn(cocos2d::CCObject*)::$_2&&) const::{lambda(auto:1 const&)#1}, geode::Task<geode::Result<std::__ndk1::__fs::filesystem::path, std::__ndk1::basic_string<char, std::__ndk1::char_traits<char>, std::__ndk1::allocator<char> > >, std::__ndk1::monostate>::listen<PrismUIButton::onBtn(cocos2d::CCObject*)::$_2>(PrismUIButton::onBtn(cocos2d::CCObject*)::$_2&&) const::{lambda()#1}&&) const::{lambda(geode::Task<geode::Result<std::__ndk1::__fs::filesystem::path, std::__ndk1::basic_string<char, std::__ndk1::char_traits<char>, std::__ndk1::allocator<char> > >, std::__ndk1::monostate>::Event*)#1}::operator()(geode::Task<geode::Result<std::__ndk1::__fs::filesystem::path, std::__ndk1::basic_string<char, std::__ndk1::char_traits<char>, std::__ndk1::allocator<char> > >, std::__ndk1::monostate>::Event*)::{lambda()#1}, std::__ndk1::allocator<geode::Task<geode::Result<std::__ndk1::__fs::filesystem::path, std::__ndk1::basic_string<char, std::__ndk1::char_traits<char>, std::__ndk1::allocator<char> > >, std::__ndk1::monostate>::listen<PrismUIButton::onBtn(cocos2d::CCObject*)::$_2, geode::Task<geode::Result<std::__ndk1::__fs::filesystem::path, std::__ndk1::basic_string<char, std::__ndk1::char_traits<char>, std::__ndk1::allocator<char> > >, std::__ndk1::monostate>::listen<PrismUIButton::onBtn(cocos2d::CCObject*)::$_2>(PrismUIButton::onBtn(cocos2d::CCObject*)::$_2&&) const::{lambda(auto:1 const&)#1}, geode::Task<geode::Result<std::__ndk1::__fs::filesystem::path, std::__ndk1::basic_string<char, std::__ndk1::char_traits<char>, std::__ndk1::allocator<char> > >, std::__ndk1::monostate>::listen<PrismUIButton::onBtn(cocos2d::CCObject*)::$_2>(PrismUIButton::onBtn(cocos2d::CCObject*)::$_2&&) const::{lambda()#1}>(PrismUIButton::onBtn(cocos2d::CCObject*)::$_2&&, geode::Task<geode::Result<std::__ndk1::__fs::filesystem::path, std::__ndk1::basic_string<char, std::__ndk1::char_traits<char>, std::__ndk1::allocator<char> > >, std::__ndk1::monostate>::listen<PrismUIButton::onBtn(cocos2d::CCObject*)::$_2>(PrismUIButton::onBtn(cocos2d::CCObject*)::$_2&&) const::{lambda(auto:1 const&)#1}, geode::Task<geode::Result<std::__ndk1::__fs::filesystem::path, std::__ndk1::basic_string<char, std::__ndk1::char_traits<char>, std::__ndk1::allocator<char> > >, std::__ndk1::monostate>::listen<PrismUIButton::onBtn(cocos2d::CCObject*)::$_2>(PrismUIButton::onBtn(cocos2d::CCObject*)::$_2&&) const::{lambda()#1}&&) const::{lambda(geode::Task<geode::Result<std::__ndk1::__fs::filesystem::path, std::__ndk1::basic_string<char, std::__ndk1::char_traits<char>, std::__ndk1::allocator<char> > >, std::__ndk1::monostate>::Event*)#1}::operator()(geode::Task<geode::Result<std::__ndk1::__fs::filesystem::path, std::__ndk1::basic_string<char, std::__ndk1::char_traits<char>, std::__ndk1::allocator<char> > >, std::__ndk1::monostate>::Event*)::{lambda()#1}>, void ()>::~__func()
FUNC d7a00 34 0 std::__ndk1::__function::__func<geode::Task<geode::Result<std::__ndk1::__fs::filesystem::path, std::__ndk1::basic_string<char, std::__ndk1::char_traits<char>, std::__ndk1::allocator<char> > >, std::__ndk1::monostate>::listen<PrismUIButton::onBtn(cocos2d::CCObject*)::$_2, geode::Task<geode::Result<std::__ndk1::__fs::filesystem::path, std::__ndk1::basic_string<char, std::__ndk1::char_traits<char>, std::__ndk1::allocator<char> > >, std::__ndk1::monostate>::listen<PrismUIButton::onBtn(cocos2d::CCObject*)::$_2>(PrismUIButton::onBtn(cocos2d::CCObject*)::$_2&&) const::{lambda(auto:1 const&)#1}, geode::Task<geode::Result<std::__ndk1::__fs::filesystem::path, std::__ndk1::basic_string<char, std::__ndk1::char_traits<char>, std::__ndk1::allocator<char> > >, std::__ndk1::monostate>::listen<PrismUIButton::onBtn(cocos2d::CCObject*)::$_2>(PrismUIButton::onBtn(cocos2d::CCObject*)::$_2&&) const::{lambda()#1}>(PrismUIButton::onBtn(cocos2d::CCObject*)::$_2&&, geode::Task<geode::Result<std::__ndk1::__fs::filesystem::path, std::__ndk1::basic_string<char, std::__ndk1::char_traits<char>, std::__ndk1::allocator<char> > >, std::__ndk1::monostate>::listen<PrismUIButton::onBtn(cocos2d::CCObject*)::$_2>(PrismUIButton::onBtn(cocos2d::CCObject*)::$_2&&) const::{lambda(auto:1 const&)#1}, geode::Task<geode::Result<std::__ndk1::__fs::filesystem::path, std::__ndk1::basic_string<char, std::__ndk1::char_traits<char>, std::__ndk1::allocator<char> > >, std::__ndk1::monostate>::listen<PrismUIButton::onBtn(cocos2d::CCObject*)::$_2>(PrismUIButton::onBtn(cocos2d::CCObject*)::$_2&&) const::{lambda()#1}&&) const::{lambda(geode::Task<geode::Result<std::__ndk1::__fs::filesystem::path, std::__ndk1::basic_string<char, std::__ndk1::char_traits<char>, std::__ndk1::allocator<char> > >, std::__ndk1::monostate>::Event*)#1}::operator()(geode::Task<geode::Result<std::__ndk1::__fs::filesystem::path, std::__ndk1::basic_string<char, std::__ndk1::char_traits<char>, std::__ndk1::allocator<char> > >, std::__ndk1::monostate>::Event*)::{lambda()#1}, std::__ndk1::allocator<geode::Task<geode::Result<std::__ndk1::__fs::filesystem::path, std::__ndk1::basic_string<char, std::__ndk1::char_traits<char>, std::__ndk1::allocator<char> > >, std::__ndk1::monostate>::listen<PrismUIButton::onBtn(cocos2d::CCObject*)::$_2, geode::Task<geode::Result<std::__ndk1::__fs::filesystem::path, std::__ndk1::basic_string<char, std::__ndk1::char_traits<char>, std::__ndk1::allocator<char> > >, std::__ndk1::monostate>::listen<PrismUIButton::onBtn(cocos2d::CCObject*)::$_2>(PrismUIButton::onBtn(cocos2d::CCObject*)::$_2&&) const::{lambda(auto:1 const&)#1}, geode::Task<geode::Result<std::__ndk1::__fs::filesystem::path, std::__ndk1::basic_string<char, std::__ndk1::char_traits<char>, std::__ndk1::allocator<char> > >, std::__ndk1::monostate>::listen<PrismUIButton::onBtn(cocos2d::CCObject*)::$_2>(PrismUIButton::onBtn(cocos2d::CCObject*)::$_2&&) const::{lambda()#1}>(PrismUIButton::onBtn(cocos2d::CCObject*)::$_2&&, geode::Task<geode::Result<std::__ndk1::__fs::filesystem::path, std::__ndk1::basic_string<char, std::__ndk1::char_traits<char>, std::__ndk1::allocator<char> > >, std::__ndk1::monostate>::listen<PrismUIButton::onBtn(cocos2d::CCObject*)::$_2>(PrismUIButton::onBtn(cocos2d::CCObject*)::$_2&&) const::{lambda(auto:1 const&)#1}, geode::Task<geode::Result<std::__ndk1::__fs::filesystem::path, std::__ndk1::basic_string<char, std::__ndk1::char_traits<char>, std::__ndk1::allocator<char> > >, std::__ndk1::monostate>::listen<PrismUIButton::onBtn(cocos2d::CCObject*)::$_2>(PrismUIButton::onBtn(cocos2d::CCObject*)::$_2&&) const::{lambda()#1}&&) const::{lambda(geode::Task<geode::Result<std::__ndk1::__fs::filesystem::path, std::__ndk1::basic_string<char, std::__ndk1::char_traits<char>, std::__ndk1::allocator<char> > >, std::__ndk1::monostate>::Event*)#1}::operator()(geode::Task<geode::Result<std::__ndk1::__fs::filesystem::path, std::__ndk1::basic_string<char, std::__ndk1::char_traits<char>, std::__ndk1::allocator<char> > >, std::__ndk1::monostate>::Event*)::{lambda()#1}>, void ()>::__clone() const
FUNC d7a34 14 0 _ZNKSt6__ndk110__function6__funcIZZNK5geode4TaskINS2_6ResultINS_4__fs10filesystem4pathENS_12basic_stringIcNS_11char_traitsIcEENS_9allocatorIcEEEEEENS_9monostateEE6listenIZN13PrismUIButton5onBtnEPN7cocos2d8CCObjectEE3$_2ZNKSG_6listenISM_EEvOT_EUlRKSO_E_ZNKSN_ISM_EEvSP_EUlvE_EEvSP_OT0_OT1_ENUlPNSG_5EventEE_clESZ_EUlvE_NSB_IS11_EEFvvEE7__cloneEPNS0_6__baseIS13_EE
FUNC d7a48 4 0 std::__ndk1::__function::__func<geode::Task<geode::Result<std::__ndk1::__fs::filesystem::path, std::__ndk1::basic_string<char, std::__ndk1::char_traits<char>, std::__ndk1::allocator<char> > >, std::__ndk1::monostate>::listen<PrismUIButton::onBtn(cocos2d::CCObject*)::$_2, geode::Task<geode::Result<std::__ndk1::__fs::filesystem::path, std::__ndk1::basic_string<char, std::__ndk1::char_traits<char>, std::__ndk1::allocator<char> > >, std::__ndk1::monostate>::listen<PrismUIButton::onBtn(cocos2d::CCObject*)::$_2>(PrismUIButton::onBtn(cocos2d::CCObject*)::$_2&&) const::{lambda(auto:1 const&)#1}, geode::Task<geode::Result<std::__ndk1::__fs::filesystem::path, std::__ndk1::basic_string<char, std::__ndk1::char_traits<char>, std::__ndk1::allocator<char> > >, std::__ndk1::monostate>::listen<PrismUIButton::onBtn(cocos2d::CCObject*)::$_2>(PrismUIButton::onBtn(cocos2d::CCObject*)::$_2&&) const::{lambda()#1}>(PrismUIButton::onBtn(cocos2d::CCObject*)::$_2&&, geode::Task<geode::Result<std::__ndk1::__fs::filesystem::path, std::__ndk1::basic_string<char, std::__ndk1::char_traits<char>, std::__ndk1::allocator<char> > >, std::__ndk1::monostate>::listen<PrismUIButton::onBtn(cocos2d::CCObject*)::$_2>(PrismUIButton::onBtn(cocos2d::CCObject*)::$_2&&) const::{lambda(auto:1 const&)#1}, geode::Task<geode::Result<std::__ndk1::__fs::filesystem::path, std::__ndk1::basic_string<char, std::__ndk1::char_traits<char>, std::__ndk1::allocator<char> > >, std::__ndk1::monostate>::listen<PrismUIButton::onBtn(cocos2d::CCObject*)::$_2>(PrismUIButton::onBtn(cocos2d::CCObject*)::$_2&&) const::{lambda()#1}&&) const::{lambda(geode::Task<geode::Result<std::__ndk1::__fs::filesystem::path, std::__ndk1::basic_string<char, std::__ndk1::char_traits<char>, std::__ndk1::allocator<char> > >, std::__ndk1::monostate>::Event*)#1}::operator()(geode::Task<geode::Result<std::__ndk1::__fs::filesystem::path, std::__ndk1::basic_string<char, std::__ndk1::char_traits<char>, std::__ndk1::allocator<char> > >, std::__ndk1::monostate>::Event*)::{lambda()#1}, std::__ndk1::allocator<geode::Task<geode::Result<std::__ndk1::__fs::filesystem::path, std::__ndk1::basic_string<char, std::__ndk1::char_traits<char>, std::__ndk1::allocator<char> > >, std::__ndk1::monostate>::listen<PrismUIButton::onBtn(cocos2d::CCObject*)::$_2, geode::Task<geode::Result<std::__ndk1::__fs::filesystem::path, std::__ndk1::basic_string<char, std::__ndk1::char_traits<char>, std::__ndk1::allocator<char> > >, std::__ndk1::monostate>::listen<PrismUIButton::onBtn(cocos2d::CCObject*)::$_2>(PrismUIButton::onBtn(cocos2d::CCObject*)::$_2&&) const::{lambda(auto:1 const&)#1}, geode::Task<geode::Result<std::__ndk1::__fs::filesystem::path, std::__ndk1::basic_string<char, std::__ndk1::char_traits<char>, std::__ndk1::allocator<char> > >, std::__ndk1::monostate>::listen<PrismUIButton::onBtn(cocos2d::CCObject*)::$_2>(PrismUIButton::onBtn(cocos2d::CCObject*)::$_2&&) const::{lambda()#1}>(PrismUIButton::onBtn(cocos2d::CCObject*)::$_2&&, geode::Task<geode::Result<std::__ndk1::__fs::filesystem::path, std::__ndk1::basic_string<char, std::__ndk1::char_traits<char>, std::__ndk1::allocator<char> > >, std::__ndk1::monostate>::listen<PrismUIButton::onBtn(cocos2d::CCObject*)::$_2>(PrismUIButton::onBtn(cocos2d::CCObject*)::$_2&&) const::{lambda(auto:1 const&)#1}, geode::Task<geode::Result<std::__ndk1::__fs::filesystem::path, std::__ndk1::basic_string<char, std::__ndk1::char_traits<char>, std::__ndk1::allocator<char> > >, std::__ndk1::monostate>::listen<PrismUIButton::onBtn(cocos2d::CCObject*)::$_2>(PrismUIButton::onBtn(cocos2d::CCObject*)::$_2&&) const::{lambda()#1}&&) const::{lambda(geode::Task<geode::Result<std::__ndk1::__fs::filesystem::path, std::__ndk1::basic_string<char, std::__ndk1::char_traits<char>, std::__ndk1::allocator<char> > >, std::__ndk1::monostate>::Event*)#1}::operator()(geode::Task<geode::Result<std::__ndk1::__fs::filesystem::path, std::__ndk1::basic_string<char, std::__ndk1::char_traits<char>, std::__ndk1::allocator<char> > >, std::__ndk1::monostate>::Event*)::{lambda()#1}>, void ()>::destroy()
FUNC d7a4c 4 0 std::__ndk1::__function::__func<geode::Task<geode::Result<std::__ndk1::__fs::filesystem::path, std::__ndk1::basic_string<char, std::__ndk1::char_traits<char>, std::__ndk1::allocator<char> > >, std::__ndk1::monostate>::listen<PrismUIButton::onBtn(cocos2d::CCObject*)::$_2, geode::Task<geode::Result<std::__ndk1::__fs::filesystem::path, std::__ndk1::basic_string<char, std::__ndk1::char_traits<char>, std::__ndk1::allocator<char> > >, std::__ndk1::monostate>::listen<PrismUIButton::onBtn(cocos2d::CCObject*)::$_2>(PrismUIButton::onBtn(cocos2d::CCObject*)::$_2&&) const::{lambda(auto:1 const&)#1}, geode::Task<geode::Result<std::__ndk1::__fs::filesystem::path, std::__ndk1::basic_string<char, std::__ndk1::char_traits<char>, std::__ndk1::allocator<char> > >, std::__ndk1::monostate>::listen<PrismUIButton::onBtn(cocos2d::CCObject*)::$_2>(PrismUIButton::onBtn(cocos2d::CCObject*)::$_2&&) const::{lambda()#1}>(PrismUIButton::onBtn(cocos2d::CCObject*)::$_2&&, geode::Task<geode::Result<std::__ndk1::__fs::filesystem::path, std::__ndk1::basic_string<char, std::__ndk1::char_traits<char>, std::__ndk1::allocator<char> > >, std::__ndk1::monostate>::listen<PrismUIButton::onBtn(cocos2d::CCObject*)::$_2>(PrismUIButton::onBtn(cocos2d::CCObject*)::$_2&&) const::{lambda(auto:1 const&)#1}, geode::Task<geode::Result<std::__ndk1::__fs::filesystem::path, std::__ndk1::basic_string<char, std::__ndk1::char_traits<char>, std::__ndk1::allocator<char> > >, std::__ndk1::monostate>::listen<PrismUIButton::onBtn(cocos2d::CCObject*)::$_2>(PrismUIButton::onBtn(cocos2d::CCObject*)::$_2&&) const::{lambda()#1}&&) const::{lambda(geode::Task<geode::Result<std::__ndk1::__fs::filesystem::path, std::__ndk1::basic_string<char, std::__ndk1::char_traits<char>, std::__ndk1::allocator<char> > >, std::__ndk1::monostate>::Event*)#1}::operator()(geode::Task<geode::Result<std::__ndk1::__fs::filesystem::path, std::__ndk1::basic_string<char, std::__ndk1::char_traits<char>, std::__ndk1::allocator<char> > >, std::__ndk1::monostate>::Event*)::{lambda()#1}, std::__ndk1::allocator<geode::Task<geode::Result<std::__ndk1::__fs::filesystem::path, std::__ndk1::basic_string<char, std::__ndk1::char_traits<char>, std::__ndk1::allocator<char> > >, std::__ndk1::monostate>::listen<PrismUIButton::onBtn(cocos2d::CCObject*)::$_2, geode::Task<geode::Result<std::__ndk1::__fs::filesystem::path, std::__ndk1::basic_string<char, std::__ndk1::char_traits<char>, std::__ndk1::allocator<char> > >, std::__ndk1::monostate>::listen<PrismUIButton::onBtn(cocos2d::CCObject*)::$_2>(PrismUIButton::onBtn(cocos2d::CCObject*)::$_2&&) const::{lambda(auto:1 const&)#1}, geode::Task<geode::Result<std::__ndk1::__fs::filesystem::path, std::__ndk1::basic_string<char, std::__ndk1::char_traits<char>, std::__ndk1::allocator<char> > >, std::__ndk1::monostate>::listen<PrismUIButton::onBtn(cocos2d::CCObject*)::$_2>(PrismUIButton::onBtn(cocos2d::CCObject*)::$_2&&) const::{lambda()#1}>(PrismUIButton::onBtn(cocos2d::CCObject*)::$_2&&, geode::Task<geode::Result<std::__ndk1::__fs::filesystem::path, std::__ndk1::basic_string<char, std::__ndk1::char_traits<char>, std::__ndk1::allocator<char> > >, std::__ndk1::monostate>::listen<PrismUIButton::onBtn(cocos2d::CCObject*)::$_2>(PrismUIButton::onBtn(cocos2d::CCObject*)::$_2&&) const::{lambda(auto:1 const&)#1}, geode::Task<geode::Result<std::__ndk1::__fs::filesystem::path, std::__ndk1::basic_string<char, std::__ndk1::char_traits<char>, std::__ndk1::allocator<char> > >, std::__ndk1::monostate>::listen<PrismUIButton::onBtn(cocos2d::CCObject*)::$_2>(PrismUIButton::onBtn(cocos2d::CCObject*)::$_2&&) const::{lambda()#1}&&) const::{lambda(geode::Task<geode::Result<std::__ndk1::__fs::filesystem::path, std::__ndk1::basic_string<char, std::__ndk1::char_traits<char>, std::__ndk1::allocator<char> > >, std::__ndk1::monostate>::Event*)#1}::operator()(geode::Task<geode::Result<std::__ndk1::__fs::filesystem::path, std::__ndk1::basic_string<char, std::__ndk1::char_traits<char>, std::__ndk1::allocator<char> > >, std::__ndk1::monostate>::Event*)::{lambda()#1}>, void ()>::destroy_deallocate()
FUNC d7a50 18 0 std::__ndk1::__function::__func<geode::Task<geode::Result<std::__ndk1::__fs::filesystem::path, std::__ndk1::basic_string<char, std::__ndk1::char_traits<char>, std::__ndk1::allocator<char> > >, std::__ndk1::monostate>::listen<PrismUIButton::onBtn(cocos2d::CCObject*)::$_2, geode::Task<geode::Result<std::__ndk1::__fs::filesystem::path, std::__ndk1::basic_string<char, std::__ndk1::char_traits<char>, std::__ndk1::allocator<char> > >, std::__ndk1::monostate>::listen<PrismUIButton::onBtn(cocos2d::CCObject*)::$_2>(PrismUIButton::onBtn(cocos2d::CCObject*)::$_2&&) const::{lambda(auto:1 const&)#1}, geode::Task<geode::Result<std::__ndk1::__fs::filesystem::path, std::__ndk1::basic_string<char, std::__ndk1::char_traits<char>, std::__ndk1::allocator<char> > >, std::__ndk1::monostate>::listen<PrismUIButton::onBtn(cocos2d::CCObject*)::$_2>(PrismUIButton::onBtn(cocos2d::CCObject*)::$_2&&) const::{lambda()#1}>(PrismUIButton::onBtn(cocos2d::CCObject*)::$_2&&, geode::Task<geode::Result<std::__ndk1::__fs::filesystem::path, std::__ndk1::basic_string<char, std::__ndk1::char_traits<char>, std::__ndk1::allocator<char> > >, std::__ndk1::monostate>::listen<PrismUIButton::onBtn(cocos2d::CCObject*)::$_2>(PrismUIButton::onBtn(cocos2d::CCObject*)::$_2&&) const::{lambda(auto:1 const&)#1}, geode::Task<geode::Result<std::__ndk1::__fs::filesystem::path, std::__ndk1::basic_string<char, std::__ndk1::char_traits<char>, std::__ndk1::allocator<char> > >, std::__ndk1::monostate>::listen<PrismUIButton::onBtn(cocos2d::CCObject*)::$_2>(PrismUIButton::onBtn(cocos2d::CCObject*)::$_2&&) const::{lambda()#1}&&) const::{lambda(geode::Task<geode::Result<std::__ndk1::__fs::filesystem::path, std::__ndk1::basic_string<char, std::__ndk1::char_traits<char>, std::__ndk1::allocator<char> > >, std::__ndk1::monostate>::Event*)#1}::operator()(geode::Task<geode::Result<std::__ndk1::__fs::filesystem::path, std::__ndk1::basic_string<char, std::__ndk1::char_traits<char>, std::__ndk1::allocator<char> > >, std::__ndk1::monostate>::Event*)::{lambda()#1}, std::__ndk1::allocator<geode::Task<geode::Result<std::__ndk1::__fs::filesystem::path, std::__ndk1::basic_string<char, std::__ndk1::char_traits<char>, std::__ndk1::allocator<char> > >, std::__ndk1::monostate>::listen<PrismUIButton::onBtn(cocos2d::CCObject*)::$_2, geode::Task<geode::Result<std::__ndk1::__fs::filesystem::path, std::__ndk1::basic_string<char, std::__ndk1::char_traits<char>, std::__ndk1::allocator<char> > >, std::__ndk1::monostate>::listen<PrismUIButton::onBtn(cocos2d::CCObject*)::$_2>(PrismUIButton::onBtn(cocos2d::CCObject*)::$_2&&) const::{lambda(auto:1 const&)#1}, geode::Task<geode::Result<std::__ndk1::__fs::filesystem::path, std::__ndk1::basic_string<char, std::__ndk1::char_traits<char>, std::__ndk1::allocator<char> > >, std::__ndk1::monostate>::listen<PrismUIButton::onBtn(cocos2d::CCObject*)::$_2>(PrismUIButton::onBtn(cocos2d::CCObject*)::$_2&&) const::{lambda()#1}>(PrismUIButton::onBtn(cocos2d::CCObject*)::$_2&&, geode::Task<geode::Result<std::__ndk1::__fs::filesystem::path, std::__ndk1::basic_string<char, std::__ndk1::char_traits<char>, std::__ndk1::allocator<char> > >, std::__ndk1::monostate>::listen<PrismUIButton::onBtn(cocos2d::CCObject*)::$_2>(PrismUIButton::onBtn(cocos2d::CCObject*)::$_2&&) const::{lambda(auto:1 const&)#1}, geode::Task<geode::Result<std::__ndk1::__fs::filesystem::path, std::__ndk1::basic_string<char, std::__ndk1::char_traits<char>, std::__ndk1::allocator<char> > >, std::__ndk1::monostate>::listen<PrismUIButton::onBtn(cocos2d::CCObject*)::$_2>(PrismUIButton::onBtn(cocos2d::CCObject*)::$_2&&) const::{lambda()#1}&&) const::{lambda(geode::Task<geode::Result<std::__ndk1::__fs::filesystem::path, std::__ndk1::basic_string<char, std::__ndk1::char_traits<char>, std::__ndk1::allocator<char> > >, std::__ndk1::monostate>::Event*)#1}::operator()(geode::Task<geode::Result<std::__ndk1::__fs::filesystem::path, std::__ndk1::basic_string<char, std::__ndk1::char_traits<char>, std::__ndk1::allocator<char> > >, std::__ndk1::monostate>::Event*)::{lambda()#1}>, void ()>::operator()()
FUNC d7a68 1c 0 std::__ndk1::__function::__func<geode::Task<geode::Result<std::__ndk1::__fs::filesystem::path, std::__ndk1::basic_string<char, std::__ndk1::char_traits<char>, std::__ndk1::allocator<char> > >, std::__ndk1::monostate>::listen<PrismUIButton::onBtn(cocos2d::CCObject*)::$_2, geode::Task<geode::Result<std::__ndk1::__fs::filesystem::path, std::__ndk1::basic_string<char, std::__ndk1::char_traits<char>, std::__ndk1::allocator<char> > >, std::__ndk1::monostate>::listen<PrismUIButton::onBtn(cocos2d::CCObject*)::$_2>(PrismUIButton::onBtn(cocos2d::CCObject*)::$_2&&) const::{lambda(auto:1 const&)#1}, geode::Task<geode::Result<std::__ndk1::__fs::filesystem::path, std::__ndk1::basic_string<char, std::__ndk1::char_traits<char>, std::__ndk1::allocator<char> > >, std::__ndk1::monostate>::listen<PrismUIButton::onBtn(cocos2d::CCObject*)::$_2>(PrismUIButton::onBtn(cocos2d::CCObject*)::$_2&&) const::{lambda()#1}>(PrismUIButton::onBtn(cocos2d::CCObject*)::$_2&&, geode::Task<geode::Result<std::__ndk1::__fs::filesystem::path, std::__ndk1::basic_string<char, std::__ndk1::char_traits<char>, std::__ndk1::allocator<char> > >, std::__ndk1::monostate>::listen<PrismUIButton::onBtn(cocos2d::CCObject*)::$_2>(PrismUIButton::onBtn(cocos2d::CCObject*)::$_2&&) const::{lambda(auto:1 const&)#1}, geode::Task<geode::Result<std::__ndk1::__fs::filesystem::path, std::__ndk1::basic_string<char, std::__ndk1::char_traits<char>, std::__ndk1::allocator<char> > >, std::__ndk1::monostate>::listen<PrismUIButton::onBtn(cocos2d::CCObject*)::$_2>(PrismUIButton::onBtn(cocos2d::CCObject*)::$_2&&) const::{lambda()#1}&&) const::{lambda(geode::Task<geode::Result<std::__ndk1::__fs::filesystem::path, std::__ndk1::basic_string<char, std::__ndk1::char_traits<char>, std::__ndk1::allocator<char> > >, std::__ndk1::monostate>::Event*)#1}::operator()(geode::Task<geode::Result<std::__ndk1::__fs::filesystem::path, std::__ndk1::basic_string<char, std::__ndk1::char_traits<char>, std::__ndk1::allocator<char> > >, std::__ndk1::monostate>::Event*)::{lambda()#1}, std::__ndk1::allocator<geode::Task<geode::Result<std::__ndk1::__fs::filesystem::path, std::__ndk1::basic_string<char, std::__ndk1::char_traits<char>, std::__ndk1::allocator<char> > >, std::__ndk1::monostate>::listen<PrismUIButton::onBtn(cocos2d::CCObject*)::$_2, geode::Task<geode::Result<std::__ndk1::__fs::filesystem::path, std::__ndk1::basic_string<char, std::__ndk1::char_traits<char>, std::__ndk1::allocator<char> > >, std::__ndk1::monostate>::listen<PrismUIButton::onBtn(cocos2d::CCObject*)::$_2>(PrismUIButton::onBtn(cocos2d::CCObject*)::$_2&&) const::{lambda(auto:1 const&)#1}, geode::Task<geode::Result<std::__ndk1::__fs::filesystem::path, std::__ndk1::basic_string<char, std::__ndk1::char_traits<char>, std::__ndk1::allocator<char> > >, std::__ndk1::monostate>::listen<PrismUIButton::onBtn(cocos2d::CCObject*)::$_2>(PrismUIButton::onBtn(cocos2d::CCObject*)::$_2&&) const::{lambda()#1}>(PrismUIButton::onBtn(cocos2d::CCObject*)::$_2&&, geode::Task<geode::Result<std::__ndk1::__fs::filesystem::path, std::__ndk1::basic_string<char, std::__ndk1::char_traits<char>, std::__ndk1::allocator<char> > >, std::__ndk1::monostate>::listen<PrismUIButton::onBtn(cocos2d::CCObject*)::$_2>(PrismUIButton::onBtn(cocos2d::CCObject*)::$_2&&) const::{lambda(auto:1 const&)#1}, geode::Task<geode::Result<std::__ndk1::__fs::filesystem::path, std::__ndk1::basic_string<char, std::__ndk1::char_traits<char>, std::__ndk1::allocator<char> > >, std::__ndk1::monostate>::listen<PrismUIButton::onBtn(cocos2d::CCObject*)::$_2>(PrismUIButton::onBtn(cocos2d::CCObject*)::$_2&&) const::{lambda()#1}&&) const::{lambda(geode::Task<geode::Result<std::__ndk1::__fs::filesystem::path, std::__ndk1::basic_string<char, std::__ndk1::char_traits<char>, std::__ndk1::allocator<char> > >, std::__ndk1::monostate>::Event*)#1}::operator()(geode::Task<geode::Result<std::__ndk1::__fs::filesystem::path, std::__ndk1::basic_string<char, std::__ndk1::char_traits<char>, std::__ndk1::allocator<char> > >, std::__ndk1::monostate>::Event*)::{lambda()#1}>, void ()>::target(std::type_info const&) const
FUNC d7a84 c 0 std::__ndk1::__function::__func<geode::Task<geode::Result<std::__ndk1::__fs::filesystem::path, std::__ndk1::basic_string<char, std::__ndk1::char_traits<char>, std::__ndk1::allocator<char> > >, std::__ndk1::monostate>::listen<PrismUIButton::onBtn(cocos2d::CCObject*)::$_2, geode::Task<geode::Result<std::__ndk1::__fs::filesystem::path, std::__ndk1::basic_string<char, std::__ndk1::char_traits<char>, std::__ndk1::allocator<char> > >, std::__ndk1::monostate>::listen<PrismUIButton::onBtn(cocos2d::CCObject*)::$_2>(PrismUIButton::onBtn(cocos2d::CCObject*)::$_2&&) const::{lambda(auto:1 const&)#1}, geode::Task<geode::Result<std::__ndk1::__fs::filesystem::path, std::__ndk1::basic_string<char, std::__ndk1::char_traits<char>, std::__ndk1::allocator<char> > >, std::__ndk1::monostate>::listen<PrismUIButton::onBtn(cocos2d::CCObject*)::$_2>(PrismUIButton::onBtn(cocos2d::CCObject*)::$_2&&) const::{lambda()#1}>(PrismUIButton::onBtn(cocos2d::CCObject*)::$_2&&, geode::Task<geode::Result<std::__ndk1::__fs::filesystem::path, std::__ndk1::basic_string<char, std::__ndk1::char_traits<char>, std::__ndk1::allocator<char> > >, std::__ndk1::monostate>::listen<PrismUIButton::onBtn(cocos2d::CCObject*)::$_2>(PrismUIButton::onBtn(cocos2d::CCObject*)::$_2&&) const::{lambda(auto:1 const&)#1}, geode::Task<geode::Result<std::__ndk1::__fs::filesystem::path, std::__ndk1::basic_string<char, std::__ndk1::char_traits<char>, std::__ndk1::allocator<char> > >, std::__ndk1::monostate>::listen<PrismUIButton::onBtn(cocos2d::CCObject*)::$_2>(PrismUIButton::onBtn(cocos2d::CCObject*)::$_2&&) const::{lambda()#1}&&) const::{lambda(geode::Task<geode::Result<std::__ndk1::__fs::filesystem::path, std::__ndk1::basic_string<char, std::__ndk1::char_traits<char>, std::__ndk1::allocator<char> > >, std::__ndk1::monostate>::Event*)#1}::operator()(geode::Task<geode::Result<std::__ndk1::__fs::filesystem::path, std::__ndk1::basic_string<char, std::__ndk1::char_traits<char>, std::__ndk1::allocator<char> > >, std::__ndk1::monostate>::Event*)::{lambda()#1}, std::__ndk1::allocator<geode::Task<geode::Result<std::__ndk1::__fs::filesystem::path, std::__ndk1::basic_string<char, std::__ndk1::char_traits<char>, std::__ndk1::allocator<char> > >, std::__ndk1::monostate>::listen<PrismUIButton::onBtn(cocos2d::CCObject*)::$_2, geode::Task<geode::Result<std::__ndk1::__fs::filesystem::path, std::__ndk1::basic_string<char, std::__ndk1::char_traits<char>, std::__ndk1::allocator<char> > >, std::__ndk1::monostate>::listen<PrismUIButton::onBtn(cocos2d::CCObject*)::$_2>(PrismUIButton::onBtn(cocos2d::CCObject*)::$_2&&) const::{lambda(auto:1 const&)#1}, geode::Task<geode::Result<std::__ndk1::__fs::filesystem::path, std::__ndk1::basic_string<char, std::__ndk1::char_traits<char>, std::__ndk1::allocator<char> > >, std::__ndk1::monostate>::listen<PrismUIButton::onBtn(cocos2d::CCObject*)::$_2>(PrismUIButton::onBtn(cocos2d::CCObject*)::$_2&&) const::{lambda()#1}>(PrismUIButton::onBtn(cocos2d::CCObject*)::$_2&&, geode::Task<geode::Result<std::__ndk1::__fs::filesystem::path, std::__ndk1::basic_string<char, std::__ndk1::char_traits<char>, std::__ndk1::allocator<char> > >, std::__ndk1::monostate>::listen<PrismUIButton::onBtn(cocos2d::CCObject*)::$_2>(PrismUIButton::onBtn(cocos2d::CCObject*)::$_2&&) const::{lambda(auto:1 const&)#1}, geode::Task<geode::Result<std::__ndk1::__fs::filesystem::path, std::__ndk1::basic_string<char, std::__ndk1::char_traits<char>, std::__ndk1::allocator<char> > >, std::__ndk1::monostate>::listen<PrismUIButton::onBtn(cocos2d::CCObject*)::$_2>(PrismUIButton::onBtn(cocos2d::CCObject*)::$_2&&) const::{lambda()#1}&&) const::{lambda(geode::Task<geode::Result<std::__ndk1::__fs::filesystem::path, std::__ndk1::basic_string<char, std::__ndk1::char_traits<char>, std::__ndk1::allocator<char> > >, std::__ndk1::monostate>::Event*)#1}::operator()(geode::Task<geode::Result<std::__ndk1::__fs::filesystem::path, std::__ndk1::basic_string<char, std::__ndk1::char_traits<char>, std::__ndk1::allocator<char> > >, std::__ndk1::monostate>::Event*)::{lambda()#1}>, void ()>::target_type() const
FUNC d7a90 1d4 0 fmt::v11::detail::value<fmt::v11::context>::format_custom_arg<geode::VersionInfo, fmt::v11::formatter<geode::VersionInfo, char, void> >(void*, fmt::v11::basic_format_parse_context<char>&, fmt::v11::context&)
FUNC d7c64 1c 0 _GLOBAL__sub_I_PrismUI.cpp
FUNC d7c80 68 0 std::__ndk1::vector<HackItem, std::__ndk1::allocator<HackItem> >::~vector[abi:ne180000]()
FUNC d7ce8 25c 0 Hacks::Settings::settingContainsHack(std::__ndk1::vector<matjson::Value, std::__ndk1::allocator<matjson::Value> > const&, std::__ndk1::basic_string<char, std::__ndk1::char_traits<char>, std::__ndk1::allocator<char> > const&)
FUNC d7f44 2e8 0 Hacks::Settings::getSettingValue(std::__ndk1::vector<matjson::Value, std::__ndk1::allocator<matjson::Value> > const&, std::__ndk1::basic_string<char, std::__ndk1::char_traits<char>, std::__ndk1::allocator<char> > const&)
FUNC d822c 968 0 Hacks::Settings::setSettingValue(SettingHackStruct*, HackItem const&, matjson::Value const&)
FUNC d8b94 634 0 Hacks::isCheating()
FUNC d91c8 170 0 proceedWithReset(LevelInfoLayer*, GJGameLevel*, bool, bool)
FUNC d9338 3cc 0 Hacks::resetLevel(LevelInfoLayer*, GJGameLevel*)
FUNC d9704 350 0 Hacks::setTPS(int)
FUNC d9a54 69c 0 __cxx_global_var_init.28
FUNC da0f0 1c 0 geode::modifier::ModifyBase<geode::modifier::ModifyDerive<PrismTPS, GJBaseGameLayer> >::~ModifyBase()
FUNC da10c 54 0 std::__ndk1::__split_buffer<matjson::Value, std::__ndk1::allocator<matjson::Value>&>::~__split_buffer()
FUNC da160 8c 0 std::__ndk1::__exception_guard_exceptions<std::__ndk1::vector<std::__ndk1::basic_string<char, std::__ndk1::char_traits<char>, std::__ndk1::allocator<char> >, std::__ndk1::allocator<std::__ndk1::basic_string<char, std::__ndk1::char_traits<char>, std::__ndk1::allocator<char> > > >::__destroy_vector>::~__exception_guard_exceptions[abi:ne180000]()
FUNC da1ec 60 0 std::__ndk1::__exception_guard_exceptions<std::__ndk1::_AllocatorDestroyRangeReverse<std::__ndk1::allocator<std::__ndk1::basic_string<char, std::__ndk1::char_traits<char>, std::__ndk1::allocator<char> > >, std::__ndk1::basic_string<char, std::__ndk1::char_traits<char>, std::__ndk1::allocator<char> >*> >::~__exception_guard_exceptions[abi:ne180000]()
FUNC da24c 1d4 0 fmt::v11::detail::value<fmt::v11::context>::format_custom_arg<gd::string, fmt::v11::formatter<gd::string, char, void> >(void*, fmt::v11::basic_format_parse_context<char>&, fmt::v11::context&)
FUNC da420 4 0 std::__ndk1::__function::__func<proceedWithReset(LevelInfoLayer*, GJGameLevel*, bool, bool)::$_0, std::__ndk1::allocator<proceedWithReset(LevelInfoLayer*, GJGameLevel*, bool, bool)::$_0>, void (FLAlertLayer*, bool)>::~__func()
FUNC da424 40 0 std::__ndk1::__function::__func<proceedWithReset(LevelInfoLayer*, GJGameLevel*, bool, bool)::$_0, std::__ndk1::allocator<proceedWithReset(LevelInfoLayer*, GJGameLevel*, bool, bool)::$_0>, void (FLAlertLayer*, bool)>::__clone() const
FUNC da464 20 0 std::__ndk1::__function::__func<proceedWithReset(LevelInfoLayer*, GJGameLevel*, bool, bool)::$_0, std::__ndk1::allocator<proceedWithReset(LevelInfoLayer*, GJGameLevel*, bool, bool)::$_0>, void (FLAlertLayer*, bool)>::__clone(std::__ndk1::__function::__base<void (FLAlertLayer*, bool)>*) const
FUNC da484 4 0 std::__ndk1::__function::__func<proceedWithReset(LevelInfoLayer*, GJGameLevel*, bool, bool)::$_0, std::__ndk1::allocator<proceedWithReset(LevelInfoLayer*, GJGameLevel*, bool, bool)::$_0>, void (FLAlertLayer*, bool)>::destroy()
FUNC da488 4 0 std::__ndk1::__function::__func<proceedWithReset(LevelInfoLayer*, GJGameLevel*, bool, bool)::$_0, std::__ndk1::allocator<proceedWithReset(LevelInfoLayer*, GJGameLevel*, bool, bool)::$_0>, void (FLAlertLayer*, bool)>::destroy_deallocate()
FUNC da48c 330 0 std::__ndk1::__function::__func<proceedWithReset(LevelInfoLayer*, GJGameLevel*, bool, bool)::$_0, std::__ndk1::allocator<proceedWithReset(LevelInfoLayer*, GJGameLevel*, bool, bool)::$_0>, void (FLAlertLayer*, bool)>::operator()(FLAlertLayer*&&, bool&&)
FUNC da7bc 1c 0 std::__ndk1::__function::__func<proceedWithReset(LevelInfoLayer*, GJGameLevel*, bool, bool)::$_0, std::__ndk1::allocator<proceedWithReset(LevelInfoLayer*, GJGameLevel*, bool, bool)::$_0>, void (FLAlertLayer*, bool)>::target(std::type_info const&) const
FUNC da7d8 c 0 std::__ndk1::__function::__func<proceedWithReset(LevelInfoLayer*, GJGameLevel*, bool, bool)::$_0, std::__ndk1::allocator<proceedWithReset(LevelInfoLayer*, GJGameLevel*, bool, bool)::$_0>, void (FLAlertLayer*, bool)>::target_type() const
FUNC da7e4 4 0 std::__ndk1::__function::__func<Hacks::resetLevel(LevelInfoLayer*, GJGameLevel*)::$_0, std::__ndk1::allocator<Hacks::resetLevel(LevelInfoLayer*, GJGameLevel*)::$_0>, void (FLAlertLayer*, bool)>::~__func()
FUNC da7e8 38 0 std::__ndk1::__function::__func<Hacks::resetLevel(LevelInfoLayer*, GJGameLevel*)::$_0, std::__ndk1::allocator<Hacks::resetLevel(LevelInfoLayer*, GJGameLevel*)::$_0>, void (FLAlertLayer*, bool)>::__clone() const
FUNC da820 18 0 std::__ndk1::__function::__func<Hacks::resetLevel(LevelInfoLayer*, GJGameLevel*)::$_0, std::__ndk1::allocator<Hacks::resetLevel(LevelInfoLayer*, GJGameLevel*)::$_0>, void (FLAlertLayer*, bool)>::__clone(std::__ndk1::__function::__base<void (FLAlertLayer*, bool)>*) const
FUNC da838 4 0 std::__ndk1::__function::__func<Hacks::resetLevel(LevelInfoLayer*, GJGameLevel*)::$_0, std::__ndk1::allocator<Hacks::resetLevel(LevelInfoLayer*, GJGameLevel*)::$_0>, void (FLAlertLayer*, bool)>::destroy()
FUNC da83c 4 0 std::__ndk1::__function::__func<Hacks::resetLevel(LevelInfoLayer*, GJGameLevel*)::$_0, std::__ndk1::allocator<Hacks::resetLevel(LevelInfoLayer*, GJGameLevel*)::$_0>, void (FLAlertLayer*, bool)>::destroy_deallocate()
FUNC da840 20 0 std::__ndk1::__function::__func<Hacks::resetLevel(LevelInfoLayer*, GJGameLevel*)::$_0, std::__ndk1::allocator<Hacks::resetLevel(LevelInfoLayer*, GJGameLevel*)::$_0>, void (FLAlertLayer*, bool)>::operator()(FLAlertLayer*&&, bool&&)
FUNC da860 1c 0 std::__ndk1::__function::__func<Hacks::resetLevel(LevelInfoLayer*, GJGameLevel*)::$_0, std::__ndk1::allocator<Hacks::resetLevel(LevelInfoLayer*, GJGameLevel*)::$_0>, void (FLAlertLayer*, bool)>::target(std::type_info const&) const
FUNC da87c c 0 std::__ndk1::__function::__func<Hacks::resetLevel(LevelInfoLayer*, GJGameLevel*)::$_0, std::__ndk1::allocator<Hacks::resetLevel(LevelInfoLayer*, GJGameLevel*)::$_0>, void (FLAlertLayer*, bool)>::target_type() const
FUNC da888 4 0 std::__ndk1::__function::__func<Hacks::resetLevel(LevelInfoLayer*, GJGameLevel*)::$_1, std::__ndk1::allocator<Hacks::resetLevel(LevelInfoLayer*, GJGameLevel*)::$_1>, void (FLAlertLayer*, bool)>::~__func()
FUNC da88c 38 0 std::__ndk1::__function::__func<Hacks::resetLevel(LevelInfoLayer*, GJGameLevel*)::$_1, std::__ndk1::allocator<Hacks::resetLevel(LevelInfoLayer*, GJGameLevel*)::$_1>, void (FLAlertLayer*, bool)>::__clone() const
FUNC da8c4 18 0 std::__ndk1::__function::__func<Hacks::resetLevel(LevelInfoLayer*, GJGameLevel*)::$_1, std::__ndk1::allocator<Hacks::resetLevel(LevelInfoLayer*, GJGameLevel*)::$_1>, void (FLAlertLayer*, bool)>::__clone(std::__ndk1::__function::__base<void (FLAlertLayer*, bool)>*) const
FUNC da8dc 4 0 std::__ndk1::__function::__func<Hacks::resetLevel(LevelInfoLayer*, GJGameLevel*)::$_1, std::__ndk1::allocator<Hacks::resetLevel(LevelInfoLayer*, GJGameLevel*)::$_1>, void (FLAlertLayer*, bool)>::destroy()
FUNC da8e0 4 0 std::__ndk1::__function::__func<Hacks::resetLevel(LevelInfoLayer*, GJGameLevel*)::$_1, std::__ndk1::allocator<Hacks::resetLevel(LevelInfoLayer*, GJGameLevel*)::$_1>, void (FLAlertLayer*, bool)>::destroy_deallocate()
FUNC da8e4 1d4 0 std::__ndk1::__function::__func<Hacks::resetLevel(LevelInfoLayer*, GJGameLevel*)::$_1, std::__ndk1::allocator<Hacks::resetLevel(LevelInfoLayer*, GJGameLevel*)::$_1>, void (FLAlertLayer*, bool)>::operator()(FLAlertLayer*&&, bool&&)
FUNC daab8 1c 0 std::__ndk1::__function::__func<Hacks::resetLevel(LevelInfoLayer*, GJGameLevel*)::$_1, std::__ndk1::allocator<Hacks::resetLevel(LevelInfoLayer*, GJGameLevel*)::$_1>, void (FLAlertLayer*, bool)>::target(std::type_info const&) const
FUNC daad4 c 0 std::__ndk1::__function::__func<Hacks::resetLevel(LevelInfoLayer*, GJGameLevel*)::$_1, std::__ndk1::allocator<Hacks::resetLevel(LevelInfoLayer*, GJGameLevel*)::$_1>, void (FLAlertLayer*, bool)>::target_type() const
FUNC daae0 4 0 std::__ndk1::__function::__func<Hacks::resetLevel(LevelInfoLayer*, GJGameLevel*)::$_1::operator()<FLAlertLayer*>(FLAlertLayer*, bool) const::{lambda(auto:1, bool)#1}, std::__ndk1::allocator<Hacks::resetLevel(LevelInfoLayer*, GJGameLevel*)::$_1::operator()<FLAlertLayer*>(FLAlertLayer*, bool) const::{lambda(auto:1, bool)#1}>, void (FLAlertLayer*, bool)>::~__func()
FUNC daae4 38 0 std::__ndk1::__function::__func<Hacks::resetLevel(LevelInfoLayer*, GJGameLevel*)::$_1::operator()<FLAlertLayer*>(FLAlertLayer*, bool) const::{lambda(auto:1, bool)#1}, std::__ndk1::allocator<Hacks::resetLevel(LevelInfoLayer*, GJGameLevel*)::$_1::operator()<FLAlertLayer*>(FLAlertLayer*, bool) const::{lambda(auto:1, bool)#1}>, void (FLAlertLayer*, bool)>::__clone() const
FUNC dab1c 18 0 std::__ndk1::__function::__func<Hacks::resetLevel(LevelInfoLayer*, GJGameLevel*)::$_1::operator()<FLAlertLayer*>(FLAlertLayer*, bool) const::{lambda(auto:1, bool)#1}, std::__ndk1::allocator<Hacks::resetLevel(LevelInfoLayer*, GJGameLevel*)::$_1::operator()<FLAlertLayer*>(FLAlertLayer*, bool) const::{lambda(auto:1, bool)#1}>, void (FLAlertLayer*, bool)>::__clone(std::__ndk1::__function::__base<void (FLAlertLayer*, bool)>*) const
FUNC dab34 4 0 std::__ndk1::__function::__func<Hacks::resetLevel(LevelInfoLayer*, GJGameLevel*)::$_1::operator()<FLAlertLayer*>(FLAlertLayer*, bool) const::{lambda(auto:1, bool)#1}, std::__ndk1::allocator<Hacks::resetLevel(LevelInfoLayer*, GJGameLevel*)::$_1::operator()<FLAlertLayer*>(FLAlertLayer*, bool) const::{lambda(auto:1, bool)#1}>, void (FLAlertLayer*, bool)>::destroy()
FUNC dab38 4 0 std::__ndk1::__function::__func<Hacks::resetLevel(LevelInfoLayer*, GJGameLevel*)::$_1::operator()<FLAlertLayer*>(FLAlertLayer*, bool) const::{lambda(auto:1, bool)#1}, std::__ndk1::allocator<Hacks::resetLevel(LevelInfoLayer*, GJGameLevel*)::$_1::operator()<FLAlertLayer*>(FLAlertLayer*, bool) const::{lambda(auto:1, bool)#1}>, void (FLAlertLayer*, bool)>::destroy_deallocate()
FUNC dab3c 4c 0 std::__ndk1::__function::__func<Hacks::resetLevel(LevelInfoLayer*, GJGameLevel*)::$_1::operator()<FLAlertLayer*>(FLAlertLayer*, bool) const::{lambda(auto:1, bool)#1}, std::__ndk1::allocator<Hacks::resetLevel(LevelInfoLayer*, GJGameLevel*)::$_1::operator()<FLAlertLayer*>(FLAlertLayer*, bool) const::{lambda(auto:1, bool)#1}>, void (FLAlertLayer*, bool)>::operator()(FLAlertLayer*&&, bool&&)
FUNC dab88 1c 0 std::__ndk1::__function::__func<Hacks::resetLevel(LevelInfoLayer*, GJGameLevel*)::$_1::operator()<FLAlertLayer*>(FLAlertLayer*, bool) const::{lambda(auto:1, bool)#1}, std::__ndk1::allocator<Hacks::resetLevel(LevelInfoLayer*, GJGameLevel*)::$_1::operator()<FLAlertLayer*>(FLAlertLayer*, bool) const::{lambda(auto:1, bool)#1}>, void (FLAlertLayer*, bool)>::target(std::type_info const&) const
FUNC daba4 c 0 std::__ndk1::__function::__func<Hacks::resetLevel(LevelInfoLayer*, GJGameLevel*)::$_1::operator()<FLAlertLayer*>(FLAlertLayer*, bool) const::{lambda(auto:1, bool)#1}, std::__ndk1::allocator<Hacks::resetLevel(LevelInfoLayer*, GJGameLevel*)::$_1::operator()<FLAlertLayer*>(FLAlertLayer*, bool) const::{lambda(auto:1, bool)#1}>, void (FLAlertLayer*, bool)>::target_type() const
FUNC dabb0 3d8 0 geode::modifier::ModifyDerive<PrismTPS, GJBaseGameLayer>::apply()
FUNC daf88 4 0 geode::modifier::ModifyBase<geode::modifier::ModifyDerive<PrismTPS, GJBaseGameLayer> >::apply()
FUNC daf8c 7c 0 std::__ndk1::unique_ptr<std::__ndk1::__tree_node<std::__ndk1::__value_type<std::__ndk1::basic_string<char, std::__ndk1::char_traits<char>, std::__ndk1::allocator<char> >, std::__ndk1::shared_ptr<geode::Hook> >, void*>, std::__ndk1::__tree_node_destructor<std::__ndk1::allocator<std::__ndk1::__tree_node<std::__ndk1::__value_type<std::__ndk1::basic_string<char, std::__ndk1::char_traits<char>, std::__ndk1::allocator<char> >, std::__ndk1::shared_ptr<geode::Hook> >, void*> > > >::~unique_ptr[abi:ne180000]()
FUNC db008 8c 0 geode::modifier::AsStaticFunction_getModifiedDelta<PrismTPS, float (PrismTPS::*)(float)>::Impl<float (PrismTPS::*)(float)>::function(PrismTPS*, float)
FUNC db094 1c 0 _GLOBAL__sub_I_hacks.cpp
FUNC db0b0 7d4 0 geodeExecFunction117<(anonymous namespace)::ExecFuncUnique117>(geode::ModStateEvent*)
FUNC db884 400 0 __cxx_global_var_init.6
FUNC dbc84 400 0 __cxx_global_var_init.7
FUNC dc084 400 0 __cxx_global_var_init.8
FUNC dc484 400 0 __cxx_global_var_init.9
FUNC dc884 400 0 __cxx_global_var_init.10
FUNC dcc84 2f4 0 _GLOBAL__sub_I_main.cpp
FUNC dcf78 1c 0 geode::modifier::ModifyBase<geode::modifier::ModifyDerive<hook54<(anonymous namespace)::hook54Parent>, MenuLayer> >::~ModifyBase()
FUNC dcf94 1c 0 geode::modifier::ModifyBase<geode::modifier::ModifyDerive<hook151<(anonymous namespace)::hook151Parent>, cocos2d::CCKeyboardDispatcher> >::~ModifyBase()
FUNC dcfb0 1c 0 geode::modifier::ModifyBase<geode::modifier::ModifyDerive<hook202<(anonymous namespace)::hook202Parent>, PauseLayer> >::~ModifyBase()
FUNC dcfcc 1c 0 geode::modifier::ModifyBase<geode::modifier::ModifyDerive<hook227<(anonymous namespace)::hook227Parent>, EditorUI> >::~ModifyBase()
FUNC dcfe8 1c 0 geode::modifier::ModifyBase<geode::modifier::ModifyDerive<hook234<(anonymous namespace)::hook234Parent>, EditLevelLayer> >::~ModifyBase()
FUNC dd004 444 0 __cxx_global_var_init.11
FUNC dd448 1c 0 geode::modifier::ModifyBase<geode::modifier::ModifyDerive<PrismPlayLayer, PlayLayer> >::~ModifyBase()
FUNC dd464 c4 0 std::__ndk1::__fs::filesystem::path::operator/=[abi:ne180000](std::__ndk1::__fs::filesystem::path const&)
FUNC dd528 35c 0 geode::modifier::ModifyDerive<hook54<(anonymous namespace)::hook54Parent>, MenuLayer>::apply()
FUNC dd884 4 0 geode::modifier::ModifyBase<geode::modifier::ModifyDerive<hook54<(anonymous namespace)::hook54Parent>, MenuLayer> >::apply()
FUNC dd888 a8 0 geode::addresser::getVirtual<bool (MenuLayer::*)()>(bool (MenuLayer::*)())
FUNC dd930 6e8 0 geode::modifier::AsStaticFunction_init<hook54<(anonymous namespace)::hook54Parent>, bool (hook54<(anonymous namespace)::hook54Parent>::*)()>::Impl<bool (hook54<(anonymous namespace)::hook54Parent>::*)()>::function(hook54<(anonymous namespace)::hook54Parent>*)
FUNC de018 9c 0 MenuLayer::MenuLayer(geode::ZeroConstructorType)
FUNC de0b4 140 0 geode::Mod::getSettingValue<bool>(std::__ndk1::basic_string_view<char, std::__ndk1::char_traits<char> >) const
FUNC de1f4 24 0 PrismButton::~PrismButton()
FUNC de218 3e8 0 PrismButton::update(float)
FUNC de600 158 0 PrismButton::ccTouchBegan(cocos2d::CCTouch*, cocos2d::CCEvent*)
FUNC de758 90 0 PrismButton::ccTouchMoved(cocos2d::CCTouch*, cocos2d::CCEvent*)
FUNC de7e8 148 0 PrismButton::ccTouchEnded(cocos2d::CCTouch*, cocos2d::CCEvent*)
FUNC de930 c 0 PrismButton::ccTouchCancelled(cocos2d::CCTouch*, cocos2d::CCEvent*)
FUNC de93c 8 0 {virtual override thunk({offset(-320)}, PrismButton::~PrismButton())}
FUNC de944 28 0 {virtual override thunk({offset(-320)}, PrismButton::~PrismButton())}
FUNC de96c 8 0 {virtual override thunk({offset(-320)}, PrismButton::ccTouchBegan(cocos2d::CCTouch*, cocos2d::CCEvent*))}
FUNC de974 9c 0 {virtual override thunk({offset(-320)}, PrismButton::ccTouchMoved(cocos2d::CCTouch*, cocos2d::CCEvent*))}
FUNC dea10 8 0 {virtual override thunk({offset(-320)}, PrismButton::ccTouchEnded(cocos2d::CCTouch*, cocos2d::CCEvent*))}
FUNC dea18 10 0 {virtual override thunk({offset(-320)}, PrismButton::ccTouchCancelled(cocos2d::CCTouch*, cocos2d::CCEvent*))}
FUNC dea28 1d4 0 fmt::v11::detail::value<fmt::v11::context>::format_custom_arg<cocos2d::CCPoint, fmt::v11::formatter<cocos2d::CCPoint, char, void> >(void*, fmt::v11::basic_format_parse_context<char>&, fmt::v11::context&)
FUNC debfc f4 0 PrismButton::onButtonClicked(cocos2d::CCObject*)
FUNC decf0 550 0 SettingHackValue::parse(std::__ndk1::basic_string<char, std::__ndk1::char_traits<char>, std::__ndk1::allocator<char> > const&, std::__ndk1::basic_string<char, std::__ndk1::char_traits<char>, std::__ndk1::allocator<char> > const&, matjson::Value const&)
FUNC df240 10 0 std::__ndk1::__shared_ptr_emplace<SettingHackValue, std::__ndk1::allocator<SettingHackValue> >::~__shared_ptr_emplace()
FUNC df250 30 0 std::__ndk1::__shared_ptr_emplace<SettingHackValue, std::__ndk1::allocator<SettingHackValue> >::~__shared_ptr_emplace()
FUNC df280 c 0 std::__ndk1::__shared_ptr_emplace<SettingHackValue, std::__ndk1::allocator<SettingHackValue> >::__on_zero_shared()
FUNC df28c 4 0 std::__ndk1::__shared_ptr_emplace<SettingHackValue, std::__ndk1::allocator<SettingHackValue> >::__on_zero_shared_weak()
FUNC df290 10 0 std::__ndk1::__shared_ptr_emplace<geode::SettingBaseValueV3<std::__ndk1::vector<matjson::Value, std::__ndk1::allocator<matjson::Value> >, std::__ndk1::vector<matjson::Value, std::__ndk1::allocator<matjson::Value> > >::Impl, std::__ndk1::allocator<geode::SettingBaseValueV3<std::__ndk1::vector<matjson::Value, std::__ndk1::allocator<matjson::Value> >, std::__ndk1::vector<matjson::Value, std::__ndk1::allocator<matjson::Value> > >::Impl> >::~__shared_ptr_emplace()
FUNC df2a0 30 0 std::__ndk1::__shared_ptr_emplace<geode::SettingBaseValueV3<std::__ndk1::vector<matjson::Value, std::__ndk1::allocator<matjson::Value> >, std::__ndk1::vector<matjson::Value, std::__ndk1::allocator<matjson::Value> > >::Impl, std::__ndk1::allocator<geode::SettingBaseValueV3<std::__ndk1::vector<matjson::Value, std::__ndk1::allocator<matjson::Value> >, std::__ndk1::vector<matjson::Value, std::__ndk1::allocator<matjson::Value> > >::Impl> >::~__shared_ptr_emplace()
FUNC df2d0 a0 0 std::__ndk1::__shared_ptr_emplace<geode::SettingBaseValueV3<std::__ndk1::vector<matjson::Value, std::__ndk1::allocator<matjson::Value> >, std::__ndk1::vector<matjson::Value, std::__ndk1::allocator<matjson::Value> > >::Impl, std::__ndk1::allocator<geode::SettingBaseValueV3<std::__ndk1::vector<matjson::Value, std::__ndk1::allocator<matjson::Value> >, std::__ndk1::vector<matjson::Value, std::__ndk1::allocator<matjson::Value> > >::Impl> >::__on_zero_shared()
FUNC df370 4 0 std::__ndk1::__shared_ptr_emplace<geode::SettingBaseValueV3<std::__ndk1::vector<matjson::Value, std::__ndk1::allocator<matjson::Value> >, std::__ndk1::vector<matjson::Value, std::__ndk1::allocator<matjson::Value> > >::Impl, std::__ndk1::allocator<geode::SettingBaseValueV3<std::__ndk1::vector<matjson::Value, std::__ndk1::allocator<matjson::Value> >, std::__ndk1::vector<matjson::Value, std::__ndk1::allocator<matjson::Value> > >::Impl> >::__on_zero_shared_weak()
FUNC df374 17c 0 geode::JsonExpectedValue::tryGet<std::__ndk1::vector<matjson::Value, std::__ndk1::allocator<matjson::Value> > >()
FUNC df4f0 4 0 std::__ndk1::__function::__base<geode::Result<std::__ndk1::shared_ptr<geode::SettingV3>, std::__ndk1::basic_string<char, std::__ndk1::char_traits<char>, std::__ndk1::allocator<char> > >(std::__ndk1::basic_string<char, std::__ndk1::char_traits<char>, std::__ndk1::allocator<char> > const&, std::__ndk1::basic_string<char, std::__ndk1::char_traits<char>, std::__ndk1::allocator<char> > const&, matjson::Value const&)>::~__base()
FUNC df4f4 4 0 std::__ndk1::__function::__func<geode::Result<std::__ndk1::shared_ptr<geode::SettingV3>, std::__ndk1::basic_string<char, std::__ndk1::char_traits<char>, std::__ndk1::allocator<char> > > (*)(std::__ndk1::basic_string<char, std::__ndk1::char_traits<char>, std::__ndk1::allocator<char> > const&, std::__ndk1::basic_string<char, std::__ndk1::char_traits<char>, std::__ndk1::allocator<char> > const&, matjson::Value const&), std::__ndk1::allocator<geode::Result<std::__ndk1::shared_ptr<geode::SettingV3>, std::__ndk1::basic_string<char, std::__ndk1::char_traits<char>, std::__ndk1::allocator<char> > > (*)(std::__ndk1::basic_string<char, std::__ndk1::char_traits<char>, std::__ndk1::allocator<char> > const&, std::__ndk1::basic_string<char, std::__ndk1::char_traits<char>, std::__ndk1::allocator<char> > const&, matjson::Value const&)>, geode::Result<std::__ndk1::shared_ptr<geode::SettingV3>, std::__ndk1::basic_string<char, std::__ndk1::char_traits<char>, std::__ndk1::allocator<char> > >(std::__ndk1::basic_string<char, std::__ndk1::char_traits<char>, std::__ndk1::allocator<char> > const&, std::__ndk1::basic_string<char, std::__ndk1::char_traits<char>, std::__ndk1::allocator<char> > const&, matjson::Value const&)>::~__func()
FUNC df4f8 34 0 std::__ndk1::__function::__func<geode::Result<std::__ndk1::shared_ptr<geode::SettingV3>, std::__ndk1::basic_string<char, std::__ndk1::char_traits<char>, std::__ndk1::allocator<char> > > (*)(std::__ndk1::basic_string<char, std::__ndk1::char_traits<char>, std::__ndk1::allocator<char> > const&, std::__ndk1::basic_string<char, std::__ndk1::char_traits<char>, std::__ndk1::allocator<char> > const&, matjson::Value const&), std::__ndk1::allocator<geode::Result<std::__ndk1::shared_ptr<geode::SettingV3>, std::__ndk1::basic_string<char, std::__ndk1::char_traits<char>, std::__ndk1::allocator<char> > > (*)(std::__ndk1::basic_string<char, std::__ndk1::char_traits<char>, std::__ndk1::allocator<char> > const&, std::__ndk1::basic_string<char, std::__ndk1::char_traits<char>, std::__ndk1::allocator<char> > const&, matjson::Value const&)>, geode::Result<std::__ndk1::shared_ptr<geode::SettingV3>, std::__ndk1::basic_string<char, std::__ndk1::char_traits<char>, std::__ndk1::allocator<char> > >(std::__ndk1::basic_string<char, std::__ndk1::char_traits<char>, std::__ndk1::allocator<char> > const&, std::__ndk1::basic_string<char, std::__ndk1::char_traits<char>, std::__ndk1::allocator<char> > const&, matjson::Value const&)>::__clone() const
FUNC df52c 14 0 std::__ndk1::__function::__func<geode::Result<std::__ndk1::shared_ptr<geode::SettingV3>, std::__ndk1::basic_string<char, std::__ndk1::char_traits<char>, std::__ndk1::allocator<char> > > (*)(std::__ndk1::basic_string<char, std::__ndk1::char_traits<char>, std::__ndk1::allocator<char> > const&, std::__ndk1::basic_string<char, std::__ndk1::char_traits<char>, std::__ndk1::allocator<char> > const&, matjson::Value const&), std::__ndk1::allocator<geode::Result<std::__ndk1::shared_ptr<geode::SettingV3>, std::__ndk1::basic_string<char, std::__ndk1::char_traits<char>, std::__ndk1::allocator<char> > > (*)(std::__ndk1::basic_string<char, std::__ndk1::char_traits<char>, std::__ndk1::allocator<char> > const&, std::__ndk1::basic_string<char, std::__ndk1::char_traits<char>, std::__ndk1::allocator<char> > const&, matjson::Value const&)>, geode::Result<std::__ndk1::shared_ptr<geode::SettingV3>, std::__ndk1::basic_string<char, std::__ndk1::char_traits<char>, std::__ndk1::allocator<char> > >(std::__ndk1::basic_string<char, std::__ndk1::char_traits<char>, std::__ndk1::allocator<char> > const&, std::__ndk1::basic_string<char, std::__ndk1::char_traits<char>, std::__ndk1::allocator<char> > const&, matjson::Value const&)>::__clone(std::__ndk1::__function::__base<geode::Result<std::__ndk1::shared_ptr<geode::SettingV3>, std::__ndk1::basic_string<char, std::__ndk1::char_traits<char>, std::__ndk1::allocator<char> > >(std::__ndk1::basic_string<char, std::__ndk1::char_traits<char>, std::__ndk1::allocator<char> > const&, std::__ndk1::basic_string<char, std::__ndk1::char_traits<char>, std::__ndk1::allocator<char> > const&, matjson::Value const&)>*) const
FUNC df540 4 0 std::__ndk1::__function::__func<geode::Result<std::__ndk1::shared_ptr<geode::SettingV3>, std::__ndk1::basic_string<char, std::__ndk1::char_traits<char>, std::__ndk1::allocator<char> > > (*)(std::__ndk1::basic_string<char, std::__ndk1::char_traits<char>, std::__ndk1::allocator<char> > const&, std::__ndk1::basic_string<char, std::__ndk1::char_traits<char>, std::__ndk1::allocator<char> > const&, matjson::Value const&), std::__ndk1::allocator<geode::Result<std::__ndk1::shared_ptr<geode::SettingV3>, std::__ndk1::basic_string<char, std::__ndk1::char_traits<char>, std::__ndk1::allocator<char> > > (*)(std::__ndk1::basic_string<char, std::__ndk1::char_traits<char>, std::__ndk1::allocator<char> > const&, std::__ndk1::basic_string<char, std::__ndk1::char_traits<char>, std::__ndk1::allocator<char> > const&, matjson::Value const&)>, geode::Result<std::__ndk1::shared_ptr<geode::SettingV3>, std::__ndk1::basic_string<char, std::__ndk1::char_traits<char>, std::__ndk1::allocator<char> > >(std::__ndk1::basic_string<char, std::__ndk1::char_traits<char>, std::__ndk1::allocator<char> > const&, std::__ndk1::basic_string<char, std::__ndk1::char_traits<char>, std::__ndk1::allocator<char> > const&, matjson::Value const&)>::destroy()
FUNC df544 4 0 std::__ndk1::__function::__func<geode::Result<std::__ndk1::shared_ptr<geode::SettingV3>, std::__ndk1::basic_string<char, std::__ndk1::char_traits<char>, std::__ndk1::allocator<char> > > (*)(std::__ndk1::basic_string<char, std::__ndk1::char_traits<char>, std::__ndk1::allocator<char> > const&, std::__ndk1::basic_string<char, std::__ndk1::char_traits<char>, std::__ndk1::allocator<char> > const&, matjson::Value const&), std::__ndk1::allocator<geode::Result<std::__ndk1::shared_ptr<geode::SettingV3>, std::__ndk1::basic_string<char, std::__ndk1::char_traits<char>, std::__ndk1::allocator<char> > > (*)(std::__ndk1::basic_string<char, std::__ndk1::char_traits<char>, std::__ndk1::allocator<char> > const&, std::__ndk1::basic_string<char, std::__ndk1::char_traits<char>, std::__ndk1::allocator<char> > const&, matjson::Value const&)>, geode::Result<std::__ndk1::shared_ptr<geode::SettingV3>, std::__ndk1::basic_string<char, std::__ndk1::char_traits<char>, std::__ndk1::allocator<char> > >(std::__ndk1::basic_string<char, std::__ndk1::char_traits<char>, std::__ndk1::allocator<char> > const&, std::__ndk1::basic_string<char, std::__ndk1::char_traits<char>, std::__ndk1::allocator<char> > const&, matjson::Value const&)>::destroy_deallocate()
FUNC df548 14 0 std::__ndk1::__function::__func<geode::Result<std::__ndk1::shared_ptr<geode::SettingV3>, std::__ndk1::basic_string<char, std::__ndk1::char_traits<char>, std::__ndk1::allocator<char> > > (*)(std::__ndk1::basic_string<char, std::__ndk1::char_traits<char>, std::__ndk1::allocator<char> > const&, std::__ndk1::basic_string<char, std::__ndk1::char_traits<char>, std::__ndk1::allocator<char> > const&, matjson::Value const&), std::__ndk1::allocator<geode::Result<std::__ndk1::shared_ptr<geode::SettingV3>, std::__ndk1::basic_string<char, std::__ndk1::char_traits<char>, std::__ndk1::allocator<char> > > (*)(std::__ndk1::basic_string<char, std::__ndk1::char_traits<char>, std::__ndk1::allocator<char> > const&, std::__ndk1::basic_string<char, std::__ndk1::char_traits<char>, std::__ndk1::allocator<char> > const&, matjson::Value const&)>, geode::Result<std::__ndk1::shared_ptr<geode::SettingV3>, std::__ndk1::basic_string<char, std::__ndk1::char_traits<char>, std::__ndk1::allocator<char> > >(std::__ndk1::basic_string<char, std::__ndk1::char_traits<char>, std::__ndk1::allocator<char> > const&, std::__ndk1::basic_string<char, std::__ndk1::char_traits<char>, std::__ndk1::allocator<char> > const&, matjson::Value const&)>::operator()(std::__ndk1::basic_string<char, std::__ndk1::char_traits<char>, std::__ndk1::allocator<char> > const&, std::__ndk1::basic_string<char, std::__ndk1::char_traits<char>, std::__ndk1::allocator<char> > const&, matjson::Value const&)
FUNC df55c 1c 0 std::__ndk1::__function::__func<geode::Result<std::__ndk1::shared_ptr<geode::SettingV3>, std::__ndk1::basic_string<char, std::__ndk1::char_traits<char>, std::__ndk1::allocator<char> > > (*)(std::__ndk1::basic_string<char, std::__ndk1::char_traits<char>, std::__ndk1::allocator<char> > const&, std::__ndk1::basic_string<char, std::__ndk1::char_traits<char>, std::__ndk1::allocator<char> > const&, matjson::Value const&), std::__ndk1::allocator<geode::Result<std::__ndk1::shared_ptr<geode::SettingV3>, std::__ndk1::basic_string<char, std::__ndk1::char_traits<char>, std::__ndk1::allocator<char> > > (*)(std::__ndk1::basic_string<char, std::__ndk1::char_traits<char>, std::__ndk1::allocator<char> > const&, std::__ndk1::basic_string<char, std::__ndk1::char_traits<char>, std::__ndk1::allocator<char> > const&, matjson::Value const&)>, geode::Result<std::__ndk1::shared_ptr<geode::SettingV3>, std::__ndk1::basic_string<char, std::__ndk1::char_traits<char>, std::__ndk1::allocator<char> > >(std::__ndk1::basic_string<char, std::__ndk1::char_traits<char>, std::__ndk1::allocator<char> > const&, std::__ndk1::basic_string<char, std::__ndk1::char_traits<char>, std::__ndk1::allocator<char> > const&, matjson::Value const&)>::target(std::type_info const&) const
