MODULE Linux arm64 0345777BE13F38779B679373EF9CCF510 saritahhh.trailcut.android64.so
INFO CODE_ID 7B7745033FE177389B679373EF9CCF5182B48914
INFO GENERATOR mozilla/dump_syms 2.3.4
PUBLIC 5560 0 __on_dlclose
PUBLIC 5570 0 __emutls_unregister_key
PUBLIC 5578 0 __on_dlclose_late
PUBLIC 5580 0 __atexit_handler_wrapper
PUBLIC 5594 0 atexit
PUBLIC 55b0 0 pthread_atfork
PUBLIC 55c0 0 __aarch64_ldadd8_acq_rel
PUBLIC 55f0 0 init_have_lse_atomics
PUBLIC 5688 0 __init_cpu_features_constructor
PUBLIC 5c24 0 __init_cpu_features
PUBLIC 5cb0 0 __aarch64_ldadd8_relax
PUBLIC 5ce0 0 std::__ndk1::unordered_map<cocos2d::CCMotionStreak*, bool, std::__ndk1::hash<cocos2d::CCMotionStreak*>, std::__ndk1::equal_to<cocos2d::CCMotionStreak*>, std::__ndk1::allocator<std::__ndk1::pair<cocos2d::CCMotionStreak* const, bool> > >::~unordered_map[abi:ne180000]()
PUBLIC 5d2c 0 geodeExecFunction19<(anonymous namespace)::ExecFuncUnique19>(geode::ModStateEvent*)
PUBLIC 5fac 0 __cxx_global_var_init.3
PUBLIC 6430 0 geode::modifier::ModifyBase<geode::modifier::ModifyDerive<EpicTrailMod, cocos2d::CCMotionStreak> >::~ModifyBase()
PUBLIC 6448 0 __cxx_global_var_init.4
PUBLIC 68cc 0 geode::modifier::ModifyBase<geode::modifier::ModifyDerive<LePlayerObjete, PlayerObject> >::~ModifyBase()
PUBLIC 68e4 0 __clang_call_terminate
PUBLIC 68f4 0 geode::cast::traverseTypeinfoFor(void*, geode::cast::ClassTypeinfoType const*, char const*)
PUBLIC 69ec 0 geode::SettingChangedFilterV3::~SettingChangedFilterV3()
PUBLIC 6a3c 0 std::__ndk1::__function::__base<void (std::__ndk1::shared_ptr<geode::SettingV3>)>::~__base()
PUBLIC 6a40 0 std::__ndk1::__function::__func<geode::listenForSettingChangesV3<double, geodeExecFunction19<(anonymous namespace)::ExecFuncUnique19>(geode::ModStateEvent*)::{lambda(double)#1}>(std::__ndk1::basic_string_view<char, std::__ndk1::char_traits<char> >, geodeExecFunction19<(anonymous namespace)::ExecFuncUnique19>(geode::ModStateEvent*)::{lambda(double)#1}&&, geode::Mod*)::{lambda(std::__ndk1::shared_ptr<geode::SettingV3>)#1}, std::__ndk1::allocator<geode::listenForSettingChangesV3<double, geodeExecFunction19<(anonymous namespace)::ExecFuncUnique19>(geode::ModStateEvent*)::{lambda(double)#1}>(std::__ndk1::basic_string_view<char, std::__ndk1::char_traits<char> >, geodeExecFunction19<(anonymous namespace)::ExecFuncUnique19>(geode::ModStateEvent*)::{lambda(double)#1}&&, geode::Mod*)::{lambda(std::__ndk1::shared_ptr<geode::SettingV3>)#1}>, void (std::__ndk1::shared_ptr<geode::SettingV3>)>::~__func()
PUBLIC 6a44 0 std::__ndk1::__function::__func<geode::listenForSettingChangesV3<double, geodeExecFunction19<(anonymous namespace)::ExecFuncUnique19>(geode::ModStateEvent*)::{lambda(double)#1}>(std::__ndk1::basic_string_view<char, std::__ndk1::char_traits<char> >, geodeExecFunction19<(anonymous namespace)::ExecFuncUnique19>(geode::ModStateEvent*)::{lambda(double)#1}&&, geode::Mod*)::{lambda(std::__ndk1::shared_ptr<geode::SettingV3>)#1}, std::__ndk1::allocator<geode::listenForSettingChangesV3<double, geodeExecFunction19<(anonymous namespace)::ExecFuncUnique19>(geode::ModStateEvent*)::{lambda(double)#1}>(std::__ndk1::basic_string_view<char, std::__ndk1::char_traits<char> >, geodeExecFunction19<(anonymous namespace)::ExecFuncUnique19>(geode::ModStateEvent*)::{lambda(double)#1}&&, geode::Mod*)::{lambda(std::__ndk1::shared_ptr<geode::SettingV3>)#1}>, void (std::__ndk1::shared_ptr<geode::SettingV3>)>::__clone() const
PUBLIC 6a7c 0 std::__ndk1::__function::__func<geode::listenForSettingChangesV3<double, geodeExecFunction19<(anonymous namespace)::ExecFuncUnique19>(geode::ModStateEvent*)::{lambda(double)#1}>(std::__ndk1::basic_string_view<char, std::__ndk1::char_traits<char> >, geodeExecFunction19<(anonymous namespace)::ExecFuncUnique19>(geode::ModStateEvent*)::{lambda(double)#1}&&, geode::Mod*)::{lambda(std::__ndk1::shared_ptr<geode::SettingV3>)#1}, std::__ndk1::allocator<geode::listenForSettingChangesV3<double, geodeExecFunction19<(anonymous namespace)::ExecFuncUnique19>(geode::ModStateEvent*)::{lambda(double)#1}>(std::__ndk1::basic_string_view<char, std::__ndk1::char_traits<char> >, geodeExecFunction19<(anonymous namespace)::ExecFuncUnique19>(geode::ModStateEvent*)::{lambda(double)#1}&&, geode::Mod*)::{lambda(std::__ndk1::shared_ptr<geode::SettingV3>)#1}>, void (std::__ndk1::shared_ptr<geode::SettingV3>)>::__clone(std::__ndk1::__function::__base<void (std::__ndk1::shared_ptr<geode::SettingV3>)>*) const
PUBLIC 6a94 0 std::__ndk1::__function::__func<geode::listenForSettingChangesV3<double, geodeExecFunction19<(anonymous namespace)::ExecFuncUnique19>(geode::ModStateEvent*)::{lambda(double)#1}>(std::__ndk1::basic_string_view<char, std::__ndk1::char_traits<char> >, geodeExecFunction19<(anonymous namespace)::ExecFuncUnique19>(geode::ModStateEvent*)::{lambda(double)#1}&&, geode::Mod*)::{lambda(std::__ndk1::shared_ptr<geode::SettingV3>)#1}, std::__ndk1::allocator<geode::listenForSettingChangesV3<double, geodeExecFunction19<(anonymous namespace)::ExecFuncUnique19>(geode::ModStateEvent*)::{lambda(double)#1}>(std::__ndk1::basic_string_view<char, std::__ndk1::char_traits<char> >, geodeExecFunction19<(anonymous namespace)::ExecFuncUnique19>(geode::ModStateEvent*)::{lambda(double)#1}&&, geode::Mod*)::{lambda(std::__ndk1::shared_ptr<geode::SettingV3>)#1}>, void (std::__ndk1::shared_ptr<geode::SettingV3>)>::destroy()
PUBLIC 6a98 0 std::__ndk1::__function::__func<geode::listenForSettingChangesV3<double, geodeExecFunction19<(anonymous namespace)::ExecFuncUnique19>(geode::ModStateEvent*)::{lambda(double)#1}>(std::__ndk1::basic_string_view<char, std::__ndk1::char_traits<char> >, geodeExecFunction19<(anonymous namespace)::ExecFuncUnique19>(geode::ModStateEvent*)::{lambda(double)#1}&&, geode::Mod*)::{lambda(std::__ndk1::shared_ptr<geode::SettingV3>)#1}, std::__ndk1::allocator<geode::listenForSettingChangesV3<double, geodeExecFunction19<(anonymous namespace)::ExecFuncUnique19>(geode::ModStateEvent*)::{lambda(double)#1}>(std::__ndk1::basic_string_view<char, std::__ndk1::char_traits<char> >, geodeExecFunction19<(anonymous namespace)::ExecFuncUnique19>(geode::ModStateEvent*)::{lambda(double)#1}&&, geode::Mod*)::{lambda(std::__ndk1::shared_ptr<geode::SettingV3>)#1}>, void (std::__ndk1::shared_ptr<geode::SettingV3>)>::destroy_deallocate()
PUBLIC 6a9c 0 std::__ndk1::__function::__func<geode::listenForSettingChangesV3<double, geodeExecFunction19<(anonymous namespace)::ExecFuncUnique19>(geode::ModStateEvent*)::{lambda(double)#1}>(std::__ndk1::basic_string_view<char, std::__ndk1::char_traits<char> >, geodeExecFunction19<(anonymous namespace)::ExecFuncUnique19>(geode::ModStateEvent*)::{lambda(double)#1}&&, geode::Mod*)::{lambda(std::__ndk1::shared_ptr<geode::SettingV3>)#1}, std::__ndk1::allocator<geode::listenForSettingChangesV3<double, geodeExecFunction19<(anonymous namespace)::ExecFuncUnique19>(geode::ModStateEvent*)::{lambda(double)#1}>(std::__ndk1::basic_string_view<char, std::__ndk1::char_traits<char> >, geodeExecFunction19<(anonymous namespace)::ExecFuncUnique19>(geode::ModStateEvent*)::{lambda(double)#1}&&, geode::Mod*)::{lambda(std::__ndk1::shared_ptr<geode::SettingV3>)#1}>, void (std::__ndk1::shared_ptr<geode::SettingV3>)>::operator()(std::__ndk1::shared_ptr<geode::SettingV3>&&)
PUBLIC 6b88 0 std::__ndk1::__function::__func<geode::listenForSettingChangesV3<double, geodeExecFunction19<(anonymous namespace)::ExecFuncUnique19>(geode::ModStateEvent*)::{lambda(double)#1}>(std::__ndk1::basic_string_view<char, std::__ndk1::char_traits<char> >, geodeExecFunction19<(anonymous namespace)::ExecFuncUnique19>(geode::ModStateEvent*)::{lambda(double)#1}&&, geode::Mod*)::{lambda(std::__ndk1::shared_ptr<geode::SettingV3>)#1}, std::__ndk1::allocator<geode::listenForSettingChangesV3<double, geodeExecFunction19<(anonymous namespace)::ExecFuncUnique19>(geode::ModStateEvent*)::{lambda(double)#1}>(std::__ndk1::basic_string_view<char, std::__ndk1::char_traits<char> >, geodeExecFunction19<(anonymous namespace)::ExecFuncUnique19>(geode::ModStateEvent*)::{lambda(double)#1}&&, geode::Mod*)::{lambda(std::__ndk1::shared_ptr<geode::SettingV3>)#1}>, void (std::__ndk1::shared_ptr<geode::SettingV3>)>::target(std::type_info const&) const
PUBLIC 6ba4 0 std::__ndk1::__function::__func<geode::listenForSettingChangesV3<double, geodeExecFunction19<(anonymous namespace)::ExecFuncUnique19>(geode::ModStateEvent*)::{lambda(double)#1}>(std::__ndk1::basic_string_view<char, std::__ndk1::char_traits<char> >, geodeExecFunction19<(anonymous namespace)::ExecFuncUnique19>(geode::ModStateEvent*)::{lambda(double)#1}&&, geode::Mod*)::{lambda(std::__ndk1::shared_ptr<geode::SettingV3>)#1}, std::__ndk1::allocator<geode::listenForSettingChangesV3<double, geodeExecFunction19<(anonymous namespace)::ExecFuncUnique19>(geode::ModStateEvent*)::{lambda(double)#1}>(std::__ndk1::basic_string_view<char, std::__ndk1::char_traits<char> >, geodeExecFunction19<(anonymous namespace)::ExecFuncUnique19>(geode::ModStateEvent*)::{lambda(double)#1}&&, geode::Mod*)::{lambda(std::__ndk1::shared_ptr<geode::SettingV3>)#1}>, void (std::__ndk1::shared_ptr<geode::SettingV3>)>::target_type() const
PUBLIC 6bb0 0 std::__throw_bad_array_new_length([abi:ne180000], void)
PUBLIC 6be4 0 std::__ndk1::basic_string<char, std::__ndk1::char_traits<char>, std::__ndk1::allocator<char> >::__throw_length_error[abi:ne180000]() const
PUBLIC 6bf8 0 std::__ndk1::__throw_length_error[abi:ne180000](char const*)
PUBLIC 6c48 0 std::length_error::length_error[abi:ne180000](char const*)
PUBLIC 6c78 0 geode::EventListener<geode::SettingChangedFilterV3>::getPool() const
PUBLIC 6c7c 0 geode::EventListener<geode::SettingChangedFilterV3>::handle(geode::Event*)
PUBLIC 6de0 0 geode::EventListener<geode::SettingChangedFilterV3>::~EventListener()
PUBLIC 6e7c 0 geode::EventListener<geode::SettingChangedFilterV3>::~EventListener()
PUBLIC 6f20 0 geode::EventListener<geode::ModStateFilter>::getPool() const
PUBLIC 6f24 0 geode::EventListener<geode::ModStateFilter>::handle(geode::Event*)
PUBLIC 7088 0 geode::EventListener<geode::ModStateFilter>::~EventListener()
PUBLIC 70e4 0 geode::EventListener<geode::ModStateFilter>::~EventListener()
PUBLIC 7148 0 std::__ndk1::__function::__base<void (geode::ModStateEvent*)>::~__base()
PUBLIC 714c 0 std::__ndk1::__function::__func<void (*)(geode::ModStateEvent*), std::__ndk1::allocator<void (*)(geode::ModStateEvent*)>, void (geode::ModStateEvent*)>::~__func()
PUBLIC 7150 0 std::__ndk1::__function::__func<void (*)(geode::ModStateEvent*), std::__ndk1::allocator<void (*)(geode::ModStateEvent*)>, void (geode::ModStateEvent*)>::__clone() const
PUBLIC 7184 0 std::__ndk1::__function::__func<void (*)(geode::ModStateEvent*), std::__ndk1::allocator<void (*)(geode::ModStateEvent*)>, void (geode::ModStateEvent*)>::__clone(std::__ndk1::__function::__base<void (geode::ModStateEvent*)>*) const
PUBLIC 7198 0 std::__ndk1::__function::__func<void (*)(geode::ModStateEvent*), std::__ndk1::allocator<void (*)(geode::ModStateEvent*)>, void (geode::ModStateEvent*)>::destroy()
PUBLIC 719c 0 std::__ndk1::__function::__func<void (*)(geode::ModStateEvent*), std::__ndk1::allocator<void (*)(geode::ModStateEvent*)>, void (geode::ModStateEvent*)>::destroy_deallocate()
PUBLIC 71a0 0 std::__ndk1::__function::__func<void (*)(geode::ModStateEvent*), std::__ndk1::allocator<void (*)(geode::ModStateEvent*)>, void (geode::ModStateEvent*)>::operator()(geode::ModStateEvent*&&)
PUBLIC 71b0 0 std::__ndk1::__function::__func<void (*)(geode::ModStateEvent*), std::__ndk1::allocator<void (*)(geode::ModStateEvent*)>, void (geode::ModStateEvent*)>::target(std::type_info const&) const
PUBLIC 71cc 0 std::__ndk1::__function::__func<void (*)(geode::ModStateEvent*), std::__ndk1::allocator<void (*)(geode::ModStateEvent*)>, void (geode::ModStateEvent*)>::target_type() const
PUBLIC 71d8 0 geode::modifier::ModifyDerive<EpicTrailMod, cocos2d::CCMotionStreak>::apply()
PUBLIC 7544 0 std::__ndk1::shared_ptr<geode::Hook>::~shared_ptr[abi:ne180000]()
PUBLIC 7594 0 geode::impl::ResultData<geode::Hook*, std::__ndk1::basic_string<char, std::__ndk1::char_traits<char>, std::__ndk1::allocator<char> > >::~ResultData()
PUBLIC 7608 0 std::__ndk1::vector<std::__ndk1::basic_string<char, std::__ndk1::char_traits<char>, std::__ndk1::allocator<char> >, std::__ndk1::allocator<std::__ndk1::basic_string<char, std::__ndk1::char_traits<char>, std::__ndk1::allocator<char> > > >::~vector[abi:ne180000]()
PUBLIC 7684 0 geode::modifier::ModifyBase<geode::modifier::ModifyDerive<EpicTrailMod, cocos2d::CCMotionStreak> >::apply()
PUBLIC 7688 0 _ZN5geode15UnwrapExceptionC2IRPNS_4HookEQsr4implE18IsStringStreamableIT_EEENS_4impl5OkTagEOS5_
PUBLIC 7d84 0 std::__ndk1::__throw_bad_variant_access[abi:ne180000]()
PUBLIC m 7db8 0 std::__ndk1::basic_stringstream<char, std::__ndk1::char_traits<char>, std::__ndk1::allocator<char> >::~basic_stringstream()
PUBLIC 7e38 0 geode::UnwrapException::~UnwrapException()
PUBLIC 7e5c 0 std::__ndk1::vector<std::__ndk1::basic_string<char, std::__ndk1::char_traits<char>, std::__ndk1::allocator<char> >, std::__ndk1::allocator<std::__ndk1::basic_string<char, std::__ndk1::char_traits<char>, std::__ndk1::allocator<char> > > >::__push_back_slow_path<std::__ndk1::basic_string<char, std::__ndk1::char_traits<char>, std::__ndk1::allocator<char> > const&>(std::__ndk1::basic_string<char, std::__ndk1::char_traits<char>, std::__ndk1::allocator<char> > const&)
PUBLIC 8080 0 std::__ndk1::basic_string<char, std::__ndk1::char_traits<char>, std::__ndk1::allocator<char> >::__init_copy_ctor_external(char const*, unsigned long)
PUBLIC 80fc 0 std::__ndk1::__split_buffer<std::__ndk1::basic_string<char, std::__ndk1::char_traits<char>, std::__ndk1::allocator<char> >, std::__ndk1::allocator<std::__ndk1::basic_string<char, std::__ndk1::char_traits<char>, std::__ndk1::allocator<char> > >&>::~__split_buffer()
PUBLIC 8164 0 std::__ndk1::vector<std::__ndk1::basic_string<char, std::__ndk1::char_traits<char>, std::__ndk1::allocator<char> >, std::__ndk1::allocator<std::__ndk1::basic_string<char, std::__ndk1::char_traits<char>, std::__ndk1::allocator<char> > > >::__throw_length_error[abi:ne180000]() const
PUBLIC 8178 0 std::__ndk1::__variant_detail::__visitation::__base::__dispatcher<(unsigned long)0>::__dispatch[abi:ne180000]<std::__ndk1::__variant_detail::__dtor<std::__ndk1::__variant_detail::__traits<geode::Hook*, std::__ndk1::basic_string<char, std::__ndk1::char_traits<char>, std::__ndk1::allocator<char> > >, (std::__ndk1::__variant_detail::_Trait)1>::__destroy[abi:ne180000]()::{lambda(auto:1&)#1}, std::__ndk1::__variant_detail::__base<(std::__ndk1::__variant_detail::__traits<geode::Hook*, std::__ndk1::basic_string<char, std::__ndk1::char_traits<char>, std::__ndk1::allocator<char> > >)1, geode::Hook, std::__ndk1::allocator<char> >&>(std::__ndk1::__variant_detail::__dtor<std::__ndk1::__variant_detail::__traits<geode::Hook*, std::__ndk1::basic_string<char, std::__ndk1::char_traits<char>, std::__ndk1::allocator<char> > >, (std::__ndk1::__variant_detail::_Trait)1>, std::__ndk1::__variant_detail::__base<(std::__ndk1::__variant_detail::__traits<geode::Hook*, std::__ndk1::basic_string<char, std::__ndk1::char_traits<char>, std::__ndk1::allocator<char> > >)1, geode::Hook, std::__ndk1::allocator<char> >&)
PUBLIC 817c 0 std::__ndk1::__variant_detail::__visitation::__base::__dispatcher<(unsigned long)1>::__dispatch[abi:ne180000]<std::__ndk1::__variant_detail::__dtor<std::__ndk1::__variant_detail::__traits<geode::Hook*, std::__ndk1::basic_string<char, std::__ndk1::char_traits<char>, std::__ndk1::allocator<char> > >, (std::__ndk1::__variant_detail::_Trait)1>::__destroy[abi:ne180000]()::{lambda(auto:1&)#1}, std::__ndk1::__variant_detail::__base<(std::__ndk1::__variant_detail::__traits<geode::Hook*, std::__ndk1::basic_string<char, std::__ndk1::char_traits<char>, std::__ndk1::allocator<char> > >)1, geode::Hook, std::__ndk1::allocator<char> >&>(std::__ndk1::__variant_detail::__dtor<std::__ndk1::__variant_detail::__traits<geode::Hook*, std::__ndk1::basic_string<char, std::__ndk1::char_traits<char>, std::__ndk1::allocator<char> > >, (std::__ndk1::__variant_detail::_Trait)1>, std::__ndk1::__variant_detail::__base<(std::__ndk1::__variant_detail::__traits<geode::Hook*, std::__ndk1::basic_string<char, std::__ndk1::char_traits<char>, std::__ndk1::allocator<char> > >)1, geode::Hook, std::__ndk1::allocator<char> >&)
PUBLIC 8190 0 std::__ndk1::__tree<std::__ndk1::__value_type<std::__ndk1::basic_string<char, std::__ndk1::char_traits<char>, std::__ndk1::allocator<char> >, std::__ndk1::shared_ptr<geode::Hook> >, std::__ndk1::__map_value_compare<std::__ndk1::basic_string<char, std::__ndk1::char_traits<char>, std::__ndk1::allocator<char> >, std::__ndk1::__value_type<std::__ndk1::basic_string<char, std::__ndk1::char_traits<char>, std::__ndk1::allocator<char> >, std::__ndk1::shared_ptr<geode::Hook> >, std::__ndk1::less<std::__ndk1::basic_string<char, std::__ndk1::char_traits<char>, std::__ndk1::allocator<char> > >, true>, std::__ndk1::allocator<std::__ndk1::__value_type<std::__ndk1::basic_string<char, std::__ndk1::char_traits<char>, std::__ndk1::allocator<char> >, std::__ndk1::shared_ptr<geode::Hook> > > >::find<std::__ndk1::basic_string<char, std::__ndk1::char_traits<char>, std::__ndk1::allocator<char> > >(std::__ndk1::basic_string<char, std::__ndk1::char_traits<char>, std::__ndk1::allocator<char> > const&)
PUBLIC 82b0 0 std::__ndk1::__tree<std::__ndk1::__value_type<std::__ndk1::basic_string<char, std::__ndk1::char_traits<char>, std::__ndk1::allocator<char> >, std::__ndk1::shared_ptr<geode::Hook> >, std::__ndk1::__map_value_compare<std::__ndk1::basic_string<char, std::__ndk1::char_traits<char>, std::__ndk1::allocator<char> >, std::__ndk1::__value_type<std::__ndk1::basic_string<char, std::__ndk1::char_traits<char>, std::__ndk1::allocator<char> >, std::__ndk1::shared_ptr<geode::Hook> >, std::__ndk1::less<std::__ndk1::basic_string<char, std::__ndk1::char_traits<char>, std::__ndk1::allocator<char> > >, true>, std::__ndk1::allocator<std::__ndk1::__value_type<std::__ndk1::basic_string<char, std::__ndk1::char_traits<char>, std::__ndk1::allocator<char> >, std::__ndk1::shared_ptr<geode::Hook> > > >::erase(std::__ndk1::__tree_const_iterator<std::__ndk1::__value_type<std::__ndk1::basic_string<char, std::__ndk1::char_traits<char>, std::__ndk1::allocator<char> >, std::__ndk1::shared_ptr<geode::Hook> >, std::__ndk1::__tree_node<std::__ndk1::__value_type<std::__ndk1::basic_string<char, std::__ndk1::char_traits<char>, std::__ndk1::allocator<char> >, std::__ndk1::shared_ptr<geode::Hook> >, void*>*, long>)
PUBLIC 8754 0 std::__ndk1::__tree<std::__ndk1::__value_type<std::__ndk1::basic_string<char, std::__ndk1::char_traits<char>, std::__ndk1::allocator<char> >, std::__ndk1::shared_ptr<geode::Hook> >, std::__ndk1::__map_value_compare<std::__ndk1::basic_string<char, std::__ndk1::char_traits<char>, std::__ndk1::allocator<char> >, std::__ndk1::__value_type<std::__ndk1::basic_string<char, std::__ndk1::char_traits<char>, std::__ndk1::allocator<char> >, std::__ndk1::shared_ptr<geode::Hook> >, std::__ndk1::less<std::__ndk1::basic_string<char, std::__ndk1::char_traits<char>, std::__ndk1::allocator<char> > >, true>, std::__ndk1::allocator<std::__ndk1::__value_type<std::__ndk1::basic_string<char, std::__ndk1::char_traits<char>, std::__ndk1::allocator<char> >, std::__ndk1::shared_ptr<geode::Hook> > > >::destroy(std::__ndk1::__tree_node<std::__ndk1::__value_type<std::__ndk1::basic_string<char, std::__ndk1::char_traits<char>, std::__ndk1::allocator<char> >, std::__ndk1::shared_ptr<geode::Hook> >, void*>*)
PUBLIC 87d8 0 geode::modifier::AsStaticFunction_update<EpicTrailMod, void (EpicTrailMod::*)(float)>::Impl<void (EpicTrailMod::*)(float)>::function(EpicTrailMod*, float)
PUBLIC 8bc0 0 geode::addresser::Addresser::addressOfVirtual<void, cocos2d::CCMotionStreak, float>(void (cocos2d::CCMotionStreak::*)(float))
PUBLIC 8c68 0 cocos2d::CCMotionStreak::CCMotionStreak(geode::ZeroConstructorType)
PUBLIC 8cf4 0 std::__ndk1::shared_ptr<tulip::hook::CallingConvention>::~shared_ptr[abi:ne180000]()
PUBLIC 8d44 0 tulip::hook::HandlerMetadata::~HandlerMetadata()
PUBLIC 8da8 0 std::__ndk1::__hash_table<std::__ndk1::__hash_value_type<cocos2d::CCMotionStreak*, bool>, std::__ndk1::__unordered_map_hasher<cocos2d::CCMotionStreak*, std::__ndk1::__hash_value_type<cocos2d::CCMotionStreak*, bool>, std::__ndk1::hash<cocos2d::CCMotionStreak*>, std::__ndk1::equal_to<cocos2d::CCMotionStreak*>, true>, std::__ndk1::__unordered_map_equal<cocos2d::CCMotionStreak*, std::__ndk1::__hash_value_type<cocos2d::CCMotionStreak*, bool>, std::__ndk1::equal_to<cocos2d::CCMotionStreak*>, std::__ndk1::hash<cocos2d::CCMotionStreak*>, true>, std::__ndk1::allocator<std::__ndk1::__hash_value_type<cocos2d::CCMotionStreak*, bool> > >::__do_rehash<true>(unsigned long)
PUBLIC 8f70 0 geode::modifier::FieldIntermediate<EpicTrailMod, cocos2d::CCMotionStreak>::self()
PUBLIC 95c8 0 geode::modifier::FieldIntermediate<EpicTrailMod, cocos2d::CCMotionStreak>::fieldDestructor(void*)
PUBLIC 95cc 0 std::__ndk1::vector<void*, std::__ndk1::allocator<void*> >::__throw_length_error[abi:ne180000]() const
PUBLIC 95e0 0 std::__ndk1::vector<std::__ndk1::function<void (void*)>, std::__ndk1::allocator<std::__ndk1::function<void (void*)> > >::__throw_length_error[abi:ne180000]() const
PUBLIC 95f4 0 std::__ndk1::vector<void*, std::__ndk1::allocator<void*> >::__throw_out_of_range[abi:ne180000]() const
PUBLIC 9600 0 std::__ndk1::__throw_out_of_range[abi:ne180000](char const*)
PUBLIC 9648 0 std::out_of_range::out_of_range[abi:ne180000](char const*)
PUBLIC 9680 0 std::__ndk1::vector<std::__ndk1::function<void (void*)>, std::__ndk1::allocator<std::__ndk1::function<void (void*)> > >::__throw_out_of_range[abi:ne180000]() const
PUBLIC 968c 0 std::__ndk1::__function::__base<void (void*)>::~__base()
PUBLIC 9690 0 std::__ndk1::__function::__func<void (*)(void*), std::__ndk1::allocator<void (*)(void*)>, void (void*)>::~__func()
PUBLIC 9694 0 std::__ndk1::__function::__func<void (*)(void*), std::__ndk1::allocator<void (*)(void*)>, void (void*)>::__clone() const
PUBLIC 96cc 0 std::__ndk1::__function::__func<void (*)(void*), std::__ndk1::allocator<void (*)(void*)>, void (void*)>::__clone(std::__ndk1::__function::__base<void (void*)>*) const
PUBLIC 96e4 0 std::__ndk1::__function::__func<void (*)(void*), std::__ndk1::allocator<void (*)(void*)>, void (void*)>::destroy()
PUBLIC 96e8 0 std::__ndk1::__function::__func<void (*)(void*), std::__ndk1::allocator<void (*)(void*)>, void (void*)>::destroy_deallocate()
PUBLIC 96ec 0 std::__ndk1::__function::__func<void (*)(void*), std::__ndk1::allocator<void (*)(void*)>, void (void*)>::operator()(void*&&)
PUBLIC 96fc 0 std::__ndk1::__function::__func<void (*)(void*), std::__ndk1::allocator<void (*)(void*)>, void (void*)>::target(std::type_info const&) const
PUBLIC 9718 0 std::__ndk1::__function::__func<void (*)(void*), std::__ndk1::allocator<void (*)(void*)>, void (void*)>::target_type() const
PUBLIC 9724 0 std::__ndk1::__tree<std::__ndk1::__value_type<std::__ndk1::basic_string<char, std::__ndk1::char_traits<char>, std::__ndk1::allocator<char> >, std::__ndk1::shared_ptr<geode::Hook> >, std::__ndk1::__map_value_compare<std::__ndk1::basic_string<char, std::__ndk1::char_traits<char>, std::__ndk1::allocator<char> >, std::__ndk1::__value_type<std::__ndk1::basic_string<char, std::__ndk1::char_traits<char>, std::__ndk1::allocator<char> >, std::__ndk1::shared_ptr<geode::Hook> >, std::__ndk1::less<std::__ndk1::basic_string<char, std::__ndk1::char_traits<char>, std::__ndk1::allocator<char> > >, true>, std::__ndk1::allocator<std::__ndk1::__value_type<std::__ndk1::basic_string<char, std::__ndk1::char_traits<char>, std::__ndk1::allocator<char> >, std::__ndk1::shared_ptr<geode::Hook> > > >::__emplace_unique_key_args<std::__ndk1::basic_string<char, std::__ndk1::char_traits<char>, std::__ndk1::allocator<char> >, std::__ndk1::piecewise_construct_t const&, std::__ndk1::tuple<std::__ndk1::basic_string<char, std::__ndk1::char_traits<char>, std::__ndk1::allocator<char> >&&>, std::__ndk1::tuple<> >(std::__ndk1::basic_string<char, std::__ndk1::char_traits<char>, std::__ndk1::allocator<char> > const&, std::__ndk1::piecewise_construct_t const&, std::__ndk1::tuple<std::__ndk1::basic_string<char, std::__ndk1::char_traits<char>, std::__ndk1::allocator<char> >&&>, std::__ndk1::tuple<>)
PUBLIC 9a38 0 geode::modifier::ModifyDerive<LePlayerObjete, PlayerObject>::apply()
PUBLIC a5c0 0 geode::modifier::ModifyBase<geode::modifier::ModifyDerive<LePlayerObjete, PlayerObject> >::apply()
PUBLIC a5c4 0 geode::modifier::AsStaticFunction_update<LePlayerObjete, void (LePlayerObjete::*)(float)>::Impl<void (LePlayerObjete::*)(float)>::function(LePlayerObjete*, float)
PUBLIC a650 0 geode::modifier::AsStaticFunction_setVisible<LePlayerObjete, void (LePlayerObjete::*)(bool)>::Impl<void (LePlayerObjete::*)(bool)>::function(LePlayerObjete*, bool)
PUBLIC a684 0 geode::modifier::AsStaticFunction_activateStreak<LePlayerObjete, void (LePlayerObjete::*)()>::Impl<void (LePlayerObjete::*)()>::function(LePlayerObjete*)
PUBLIC a730 0 geode::modifier::AsStaticFunction_hitGround<LePlayerObjete, void (LePlayerObjete::*)(GameObject*, bool)>::Impl<void (LePlayerObjete::*)(GameObject*, bool)>::function(LePlayerObjete*, GameObject*, bool)
PUBLIC a7b8 0 geode::addresser::Addresser::addressOfVirtual<void, PlayerObject, float>(void (PlayerObject::*)(float))
PUBLIC a880 0 PlayerObject::PlayerObject(geode::ZeroConstructorType)
PUBLIC ab40 0 geode::stl::unordered_set<int, geode::stl::hash<int>, geode::stl::equal_to<int>, std::__ndk1::allocator<int> >::~unordered_set()
PUBLIC abb8 0 geode::stl::unordered_map<int, GameObject*, geode::stl::hash<int>, geode::stl::equal_to<int>, std::__ndk1::allocator<std::__ndk1::pair<int const, GameObject*> > >::~unordered_map()
PUBLIC ac30 0 geode::stl::unordered_map<int, GJPointDouble, geode::stl::hash<int>, geode::stl::equal_to<int>, std::__ndk1::allocator<std::__ndk1::pair<int const, GJPointDouble> > >::~unordered_map()
PUBLIC aca8 0 GameObject::~GameObject()
PUBLIC acf0 0 gd::map<int, bool>::erase(geode::stl::_rb_tree_node<std::__ndk1::pair<int, bool> >*)
PUBLIC ad3c 0 std::__ndk1::__hash_table<std::__ndk1::__hash_value_type<cocos2d::CCMotionStreak*, bool>, std::__ndk1::__unordered_map_hasher<cocos2d::CCMotionStreak*, std::__ndk1::__hash_value_type<cocos2d::CCMotionStreak*, bool>, std::__ndk1::hash<cocos2d::CCMotionStreak*>, std::__ndk1::equal_to<cocos2d::CCMotionStreak*>, true>, std::__ndk1::__unordered_map_equal<cocos2d::CCMotionStreak*, std::__ndk1::__hash_value_type<cocos2d::CCMotionStreak*, bool>, std::__ndk1::equal_to<cocos2d::CCMotionStreak*>, std::__ndk1::hash<cocos2d::CCMotionStreak*>, true>, std::__ndk1::allocator<std::__ndk1::__hash_value_type<cocos2d::CCMotionStreak*, bool> > >::__emplace_unique_key_args<cocos2d::CCMotionStreak*, std::__ndk1::piecewise_construct_t const&, std::__ndk1::tuple<cocos2d::CCMotionStreak* const&>, std::__ndk1::tuple<> >(cocos2d::CCMotionStreak* const&, std::__ndk1::piecewise_construct_t const&, std::__ndk1::tuple<cocos2d::CCMotionStreak* const&>, std::__ndk1::tuple<>)
PUBLIC b07c 0 geode::addresser::Addresser::addressOfVirtual<void, PlayerObject, bool>(void (PlayerObject::*)(bool))
PUBLIC b144 0 _GLOBAL__sub_I_main.cpp
PUBLIC m b3ac 0 geodeImplicitEntry
PUBLIC b3f0 0 <.plt ELF section in saritahhh.trailcut.android64.so>
STACK CFI INIT 5560 10 .cfa: sp 0 +
STACK CFI INIT 5570 8 .cfa: sp 0 +
STACK CFI INIT 5578 8 .cfa: sp 0 +
STACK CFI INIT 5580 14 .cfa: sp 0 +
STACK CFI INIT 5594 1c .cfa: sp 0 +
STACK CFI INIT 55b0 10 .cfa: sp 0 +
STACK CFI INIT 55c0 30 .cfa: sp 0 +
STACK CFI INIT 55f0 98 .cfa: sp 0 +
STACK CFI INIT 5688 59c .cfa: sp 0 +
STACK CFI INIT 5c24 8c .cfa: sp 0 +
STACK CFI INIT 5cb0 30 .cfa: sp 0 +
STACK CFI INIT 5ce0 4c .cfa: sp 0 +
STACK CFI 5ce4 .cfa: sp 32 +
STACK CFI 5cec .cfa: x29 32 + x19: .cfa -8 + ^ x20: .cfa -16 + ^ .ra: .cfa -24 + ^ x29: .cfa -32 + ^
STACK CFI 5d14 .cfa: sp 32 +
STACK CFI 5d1c .cfa: sp 0 +
STACK CFI 5d20 .cfa: sp 32 +
STACK CFI 5d28 .cfa: sp 0 +
STACK CFI INIT 6430 18 .cfa: sp 0 +
STACK CFI INIT 68cc 18 .cfa: sp 0 +
STACK CFI INIT 68e4 10 .cfa: sp 0 +
STACK CFI 68e8 .cfa: sp 16 +
STACK CFI 68ec .cfa: x29 16 + .ra: .cfa -8 + ^ x29: .cfa -16 + ^
STACK CFI INIT 68f4 f8 .cfa: sp 0 +
STACK CFI 68f8 .cfa: sp 64 +
STACK CFI 6908 .cfa: x29 64 + x19: .cfa -8 + ^ x20: .cfa -16 + ^ x21: .cfa -24 + ^ x22: .cfa -32 + ^ x23: .cfa -48 + ^ .ra: .cfa -56 + ^ x29: .cfa -64 + ^
STACK CFI 6964 .cfa: sp 64 +
STACK CFI 6974 .cfa: sp 0 +
STACK CFI 6978 .cfa: x29 64 +
STACK CFI 6994 .cfa: sp 64 +
STACK CFI 69a4 .cfa: sp 0 +
STACK CFI 69a8 .cfa: x29 64 +
STACK CFI 69d8 .cfa: sp 64 +
STACK CFI 69e8 .cfa: sp 0 +
STACK CFI INIT 69ec 50 .cfa: sp 0 +
STACK CFI 69f0 .cfa: sp 32 +
STACK CFI 69f8 .cfa: x29 32 + x19: .cfa -16 + ^ .ra: .cfa -24 + ^ x29: .cfa -32 + ^
STACK CFI 6a10 .cfa: sp 32 +
STACK CFI 6a18 .cfa: sp 0 +
STACK CFI 6a1c .cfa: x29 32 +
STACK CFI 6a30 .cfa: sp 32 +
STACK CFI 6a38 .cfa: sp 0 +
STACK CFI INIT 6a3c 4 .cfa: sp 0 +
STACK CFI INIT 6a40 4 .cfa: sp 0 +
STACK CFI INIT 6a44 38 .cfa: sp 0 +
STACK CFI 6a48 .cfa: sp 32 +
STACK CFI 6a50 .cfa: x29 32 + x19: .cfa -16 + ^ .ra: .cfa -24 + ^ x29: .cfa -32 + ^
STACK CFI 6a70 .cfa: sp 32 +
STACK CFI 6a78 .cfa: sp 0 +
STACK CFI INIT 6a7c 18 .cfa: sp 0 +
STACK CFI INIT 6a94 4 .cfa: sp 0 +
STACK CFI INIT 6a98 4 .cfa: sp 0 +
STACK CFI INIT 6a9c ec .cfa: sp 0 +
STACK CFI 6aa0 .cfa: sp 32 +
STACK CFI 6aa8 .cfa: x29 32 + x19: .cfa -8 + ^ x20: .cfa -16 + ^ .ra: .cfa -24 + ^ x29: .cfa -32 + ^
STACK CFI 6b28 .cfa: sp 32 +
STACK CFI 6b30 .cfa: sp 0 +
STACK CFI 6b34 .cfa: x29 32 +
STACK CFI 6b7c .cfa: sp 32 +
STACK CFI 6b84 .cfa: sp 0 +
STACK CFI INIT 6b88 1c .cfa: sp 0 +
STACK CFI INIT 6ba4 c .cfa: sp 0 +
STACK CFI INIT 6bb0 34 .cfa: sp 0 +
STACK CFI 6bb4 .cfa: sp 32 +
STACK CFI 6bbc .cfa: x29 32 + x19: .cfa -16 + ^ .ra: .cfa -24 + ^ x29: .cfa -32 + ^
STACK CFI INIT 6be4 14 .cfa: sp 0 +
STACK CFI 6be8 .cfa: sp 16 +
STACK CFI 6bec .cfa: x29 16 + .ra: .cfa -8 + ^ x29: .cfa -16 + ^
STACK CFI INIT 6c48 30 .cfa: sp 0 +
STACK CFI 6c4c .cfa: sp 32 +
STACK CFI 6c54 .cfa: x29 32 + x19: .cfa -16 + ^ .ra: .cfa -24 + ^ x29: .cfa -32 + ^
STACK CFI 6c6c .cfa: sp 32 +
STACK CFI 6c74 .cfa: sp 0 +
STACK CFI INIT 6c78 4 .cfa: sp 0 +
STACK CFI INIT 6de0 9c .cfa: sp 0 +
STACK CFI 6de4 .cfa: sp 32 +
STACK CFI 6dec .cfa: x29 32 + x19: .cfa -8 + ^ x20: .cfa -16 + ^ .ra: .cfa -24 + ^ x29: .cfa -32 + ^
STACK CFI 6e70 .cfa: sp 32 +
STACK CFI 6e78 .cfa: sp 0 +
STACK CFI INIT 6e7c a4 .cfa: sp 0 +
STACK CFI 6e80 .cfa: sp 32 +
STACK CFI 6e88 .cfa: x29 32 + x19: .cfa -8 + ^ x20: .cfa -16 + ^ .ra: .cfa -24 + ^ x29: .cfa -32 + ^
STACK CFI 6f14 .cfa: sp 32 +
STACK CFI 6f1c .cfa: sp 0 +
STACK CFI INIT 6f20 4 .cfa: sp 0 +
STACK CFI INIT 7088 5c .cfa: sp 0 +
STACK CFI 708c .cfa: sp 32 +
STACK CFI 7094 .cfa: x29 32 + x19: .cfa -16 + ^ .ra: .cfa -24 + ^ x29: .cfa -32 + ^
STACK CFI 70d8 .cfa: sp 32 +
STACK CFI 70e0 .cfa: sp 0 +
STACK CFI INIT 70e4 64 .cfa: sp 0 +
STACK CFI 70e8 .cfa: sp 32 +
STACK CFI 70f0 .cfa: x29 32 + x19: .cfa -16 + ^ .ra: .cfa -24 + ^ x29: .cfa -32 + ^
STACK CFI 713c .cfa: sp 32 +
STACK CFI 7144 .cfa: sp 0 +
STACK CFI INIT 7148 4 .cfa: sp 0 +
STACK CFI INIT 714c 4 .cfa: sp 0 +
STACK CFI INIT 7150 34 .cfa: sp 0 +
STACK CFI 7154 .cfa: sp 32 +
STACK CFI 715c .cfa: x29 32 + x19: .cfa -16 + ^ .ra: .cfa -24 + ^ x29: .cfa -32 + ^
STACK CFI 7178 .cfa: sp 32 +
STACK CFI 7180 .cfa: sp 0 +
STACK CFI INIT 7184 14 .cfa: sp 0 +
STACK CFI INIT 7198 4 .cfa: sp 0 +
STACK CFI INIT 719c 4 .cfa: sp 0 +
STACK CFI INIT 71a0 10 .cfa: sp 0 +
STACK CFI INIT 71b0 1c .cfa: sp 0 +
STACK CFI INIT 71cc c .cfa: sp 0 +
STACK CFI INIT 7544 50 .cfa: sp 0 +
STACK CFI 7548 .cfa: sp 32 +
STACK CFI 7550 .cfa: x29 32 + x19: .cfa -16 + ^ .ra: .cfa -24 + ^ x29: .cfa -32 + ^
STACK CFI 7568 .cfa: sp 32 +
STACK CFI 7570 .cfa: sp 0 +
STACK CFI 7574 .cfa: x29 32 +
STACK CFI 7588 .cfa: sp 32 +
STACK CFI 7590 .cfa: sp 0 +
STACK CFI INIT 7608 7c .cfa: sp 0 +
STACK CFI 760c .cfa: sp 48 +
STACK CFI 7618 .cfa: x29 48 + x19: .cfa -8 + ^ x20: .cfa -16 + ^ x21: .cfa -32 + ^ .ra: .cfa -40 + ^ x29: .cfa -48 + ^
STACK CFI 7664 .cfa: sp 48 +
STACK CFI 7670 .cfa: sp 0 +
STACK CFI 7674 .cfa: sp 48 +
STACK CFI 7680 .cfa: sp 0 +
STACK CFI INIT 7684 4 .cfa: sp 0 +
STACK CFI INIT 7d84 34 .cfa: sp 0 +
STACK CFI 7d88 .cfa: sp 16 +
STACK CFI 7d8c .cfa: x29 16 + .ra: .cfa -8 + ^ x29: .cfa -16 + ^
STACK CFI INIT 7db8 80 .cfa: sp 0 +
STACK CFI 7dbc .cfa: sp 48 +
STACK CFI 7dc8 .cfa: x29 48 + x19: .cfa -8 + ^ x20: .cfa -16 + ^ x21: .cfa -32 + ^ .ra: .cfa -40 + ^ x29: .cfa -48 + ^
STACK CFI 7e28 .cfa: sp 48 +
STACK CFI 7e34 .cfa: sp 0 +
STACK CFI INIT 7e38 24 .cfa: sp 0 +
STACK CFI 7e3c .cfa: sp 32 +
STACK CFI 7e44 .cfa: x29 32 + x19: .cfa -16 + ^ .ra: .cfa -24 + ^ x29: .cfa -32 + ^
STACK CFI 7e50 .cfa: sp 32 +
STACK CFI 7e58 .cfa: sp 0 +
STACK CFI INIT 8080 7c .cfa: sp 0 +
STACK CFI 8084 .cfa: sp 48 +
STACK CFI 8090 .cfa: x29 48 + x19: .cfa -8 + ^ x20: .cfa -16 + ^ x21: .cfa -24 + ^ x22: .cfa -32 + ^ .ra: .cfa -40 + ^ x29: .cfa -48 + ^
STACK CFI 80a8 .cfa: sp 48 +
STACK CFI 80b4 .cfa: sp 0 +
STACK CFI 80b8 .cfa: x29 48 +
STACK CFI 80e8 .cfa: sp 48 +
STACK CFI 80f4 .cfa: sp 0 +
STACK CFI 80f8 .cfa: x29 48 +
STACK CFI INIT 80fc 68 .cfa: sp 0 +
STACK CFI 8100 .cfa: sp 32 +
STACK CFI 8108 .cfa: x29 32 + x19: .cfa -8 + ^ x20: .cfa -16 + ^ .ra: .cfa -24 + ^ x29: .cfa -32 + ^
STACK CFI 8120 .cfa: sp 32 +
STACK CFI 8128 .cfa: sp 0 +
STACK CFI 812c .cfa: x29 32 +
STACK CFI 8158 .cfa: sp 32 +
STACK CFI 8160 .cfa: sp 0 +
STACK CFI INIT 8164 14 .cfa: sp 0 +
STACK CFI 8168 .cfa: sp 16 +
STACK CFI 816c .cfa: x29 16 + .ra: .cfa -8 + ^ x29: .cfa -16 + ^
STACK CFI INIT 8178 4 .cfa: sp 0 +
STACK CFI INIT 817c 14 .cfa: sp 0 +
STACK CFI INIT 8190 120 .cfa: sp 0 +
STACK CFI 8194 .cfa: sp 64 +
STACK CFI 81a4 .cfa: x29 64 + x19: .cfa -8 + ^ x20: .cfa -16 + ^ x21: .cfa -24 + ^ x22: .cfa -32 + ^ x23: .cfa -40 + ^ x24: .cfa -48 + ^ .ra: .cfa -56 + ^ x29: .cfa -64 + ^
STACK CFI 829c .cfa: sp 64 +
STACK CFI 82ac .cfa: sp 0 +
STACK CFI INIT 82b0 4a4 .cfa: sp 0 +
STACK CFI 82b4 .cfa: sp 32 +
STACK CFI 82bc .cfa: x29 32 + x19: .cfa -8 + ^ x20: .cfa -16 + ^ .ra: .cfa -24 + ^ x29: .cfa -32 + ^
STACK CFI 869c .cfa: sp 32 +
STACK CFI 86a4 .cfa: sp 0 +
STACK CFI 86a8 .cfa: x29 32 +
STACK CFI INIT 8754 84 .cfa: sp 0 +
STACK CFI 875c .cfa: sp 32 +
STACK CFI 8764 .cfa: x29 32 + x19: .cfa -8 + ^ x20: .cfa -16 + ^ .ra: .cfa -24 + ^ x29: .cfa -32 + ^
STACK CFI 87a4 .cfa: sp 32 +
STACK CFI 87ac .cfa: sp 0 +
STACK CFI 87b4 .cfa: x29 32 +
STACK CFI INIT 8c68 8c .cfa: sp 0 +
STACK CFI INIT 8cf4 50 .cfa: sp 0 +
STACK CFI 8cf8 .cfa: sp 32 +
STACK CFI 8d00 .cfa: x29 32 + x19: .cfa -16 + ^ .ra: .cfa -24 + ^ x29: .cfa -32 + ^
STACK CFI 8d18 .cfa: sp 32 +
STACK CFI 8d20 .cfa: sp 0 +
STACK CFI 8d24 .cfa: x29 32 +
STACK CFI 8d38 .cfa: sp 32 +
STACK CFI 8d40 .cfa: sp 0 +
STACK CFI INIT 8d44 64 .cfa: sp 0 +
STACK CFI 8d48 .cfa: sp 32 +
STACK CFI 8d50 .cfa: x29 32 + x19: .cfa -16 + ^ .ra: .cfa -24 + ^ x29: .cfa -32 + ^
STACK CFI 8d7c .cfa: sp 32 +
STACK CFI 8d84 .cfa: sp 0 +
STACK CFI 8d88 .cfa: x29 32 +
STACK CFI 8d9c .cfa: sp 32 +
STACK CFI 8da4 .cfa: sp 0 +
STACK CFI INIT 8da8 1c8 .cfa: sp 0 +
STACK CFI 8dac .cfa: sp 32 +
STACK CFI 8db4 .cfa: x29 32 + x19: .cfa -8 + ^ x20: .cfa -16 + ^ .ra: .cfa -24 + ^ x29: .cfa -32 + ^
STACK CFI 8eb8 .cfa: sp 32 +
STACK CFI 8ec0 .cfa: sp 0 +
STACK CFI 8ec4 .cfa: x29 32 +
STACK CFI INIT 95c8 4 .cfa: sp 0 +
STACK CFI INIT 95cc 14 .cfa: sp 0 +
STACK CFI 95d0 .cfa: sp 16 +
STACK CFI 95d4 .cfa: x29 16 + .ra: .cfa -8 + ^ x29: .cfa -16 + ^
STACK CFI INIT 95e0 14 .cfa: sp 0 +
STACK CFI 95e4 .cfa: sp 16 +
STACK CFI 95e8 .cfa: x29 16 + .ra: .cfa -8 + ^ x29: .cfa -16 + ^
STACK CFI INIT 95f4 c .cfa: sp 0 +
STACK CFI 95f8 .cfa: sp 16 +
STACK CFI 95fc .cfa: x29 16 + .ra: .cfa -8 + ^ x29: .cfa -16 + ^
STACK CFI INIT 9648 38 .cfa: sp 0 +
STACK CFI 964c .cfa: sp 32 +
STACK CFI 9654 .cfa: x29 32 + x19: .cfa -16 + ^ .ra: .cfa -24 + ^ x29: .cfa -32 + ^
STACK CFI 9674 .cfa: sp 32 +
STACK CFI 967c .cfa: sp 0 +
STACK CFI INIT 9680 c .cfa: sp 0 +
STACK CFI 9684 .cfa: sp 16 +
STACK CFI 9688 .cfa: x29 16 + .ra: .cfa -8 + ^ x29: .cfa -16 + ^
STACK CFI INIT 968c 4 .cfa: sp 0 +
STACK CFI INIT 9690 4 .cfa: sp 0 +
STACK CFI INIT 9694 38 .cfa: sp 0 +
STACK CFI 9698 .cfa: sp 32 +
STACK CFI 96a0 .cfa: x29 32 + x19: .cfa -16 + ^ .ra: .cfa -24 + ^ x29: .cfa -32 + ^
STACK CFI 96c0 .cfa: sp 32 +
STACK CFI 96c8 .cfa: sp 0 +
STACK CFI INIT 96cc 18 .cfa: sp 0 +
STACK CFI INIT 96e4 4 .cfa: sp 0 +
STACK CFI INIT 96e8 4 .cfa: sp 0 +
STACK CFI INIT 96ec 10 .cfa: sp 0 +
STACK CFI INIT 96fc 1c .cfa: sp 0 +
STACK CFI INIT 9718 c .cfa: sp 0 +
STACK CFI INIT 9724 314 .cfa: sp 0 +
STACK CFI 9728 .cfa: sp 96 +
STACK CFI 9740 .cfa: x29 96 + x19: .cfa -8 + ^ x20: .cfa -16 + ^ x21: .cfa -24 + ^ x22: .cfa -32 + ^ x23: .cfa -40 + ^ x24: .cfa -48 + ^ x25: .cfa -56 + ^ x26: .cfa -64 + ^ x27: .cfa -80 + ^ .ra: .cfa -88 + ^ x29: .cfa -96 + ^
STACK CFI 99fc .cfa: sp 96 +
STACK CFI 9a14 .cfa: sp 0 +
STACK CFI 9a18 .cfa: x29 96 +
STACK CFI INIT a5c0 4 .cfa: sp 0 +
STACK CFI INIT a5c4 8c .cfa: sp 0 +
STACK CFI a5c8 .cfa: sp 48 +
STACK CFI a5d4 .cfa: x29 32 + x19: .cfa -8 + ^ x20: .cfa -16 + ^ .ra: .cfa -24 + ^ x29: .cfa -32 + ^
STACK CFI a63c .cfa: sp 48 +
STACK CFI a648 .cfa: sp 0 +
STACK CFI a64c .cfa: x29 32 +
STACK CFI INIT a650 34 .cfa: sp 0 +
STACK CFI a654 .cfa: sp 32 +
STACK CFI a65c .cfa: x29 32 + x19: .cfa -8 + ^ x20: .cfa -16 + ^ .ra: .cfa -24 + ^ x29: .cfa -32 + ^
STACK CFI a678 .cfa: sp 32 +
STACK CFI a680 .cfa: sp 0 +
STACK CFI INIT a684 ac .cfa: sp 0 +
STACK CFI a688 .cfa: sp 48 +
STACK CFI a694 .cfa: x29 32 + x19: .cfa -8 + ^ x20: .cfa -16 + ^ .ra: .cfa -24 + ^ x29: .cfa -32 + ^
STACK CFI a6f0 .cfa: sp 48 +
STACK CFI a6fc .cfa: sp 0 +
STACK CFI a700 .cfa: x29 32 +
STACK CFI a71c .cfa: sp 48 +
STACK CFI a728 .cfa: sp 0 +
STACK CFI a72c .cfa: x29 32 +
STACK CFI INIT a730 88 .cfa: sp 0 +
STACK CFI a734 .cfa: sp 48 +
STACK CFI a740 .cfa: x29 32 + x19: .cfa -8 + ^ x20: .cfa -16 + ^ .ra: .cfa -24 + ^ x29: .cfa -32 + ^
STACK CFI a7a4 .cfa: sp 48 +
STACK CFI a7b0 .cfa: sp 0 +
STACK CFI a7b4 .cfa: x29 32 +
STACK CFI INIT ab40 78 .cfa: sp 0 +
STACK CFI ab44 .cfa: sp 48 +
STACK CFI ab50 .cfa: x29 48 + x19: .cfa -8 + ^ x20: .cfa -16 + ^ x21: .cfa -32 + ^ .ra: .cfa -40 + ^ x29: .cfa -48 + ^
STACK CFI ab98 .cfa: sp 48 +
STACK CFI aba4 .cfa: sp 0 +
STACK CFI aba8 .cfa: sp 48 +
STACK CFI abb4 .cfa: sp 0 +
STACK CFI INIT abb8 78 .cfa: sp 0 +
STACK CFI abbc .cfa: sp 48 +
STACK CFI abc8 .cfa: x29 48 + x19: .cfa -8 + ^ x20: .cfa -16 + ^ x21: .cfa -32 + ^ .ra: .cfa -40 + ^ x29: .cfa -48 + ^
STACK CFI ac10 .cfa: sp 48 +
STACK CFI ac1c .cfa: sp 0 +
STACK CFI ac20 .cfa: sp 48 +
STACK CFI ac2c .cfa: sp 0 +
STACK CFI INIT ac30 78 .cfa: sp 0 +
STACK CFI ac34 .cfa: sp 48 +
STACK CFI ac40 .cfa: x29 48 + x19: .cfa -8 + ^ x20: .cfa -16 + ^ x21: .cfa -32 + ^ .ra: .cfa -40 + ^ x29: .cfa -48 + ^
STACK CFI ac88 .cfa: sp 48 +
STACK CFI ac94 .cfa: sp 0 +
STACK CFI ac98 .cfa: sp 48 +
STACK CFI aca4 .cfa: sp 0 +
STACK CFI INIT aca8 48 .cfa: sp 0 +
STACK CFI acac .cfa: sp 32 +
STACK CFI acb4 .cfa: x29 32 + x19: .cfa -16 + ^ .ra: .cfa -24 + ^ x29: .cfa -32 + ^
STACK CFI ace4 .cfa: sp 32 +
STACK CFI acec .cfa: sp 0 +
STACK CFI INIT acf0 4c .cfa: sp 0 +
STACK CFI acf8 .cfa: sp 32 +
STACK CFI ad00 .cfa: x29 32 + x19: .cfa -16 + ^ .ra: .cfa -24 + ^ x29: .cfa -32 + ^
STACK CFI ad30 .cfa: sp 32 +
STACK CFI ad38 .cfa: sp 0 +
STACK CFI INIT b3ac 3c .cfa: sp 0 +
STACK CFI b3b0 .cfa: sp 32 +
STACK CFI b3b8 .cfa: x29 32 + x19: .cfa -16 + ^ .ra: .cfa -24 + ^ x29: .cfa -32 + ^
STACK CFI b3c4 .cfa: sp 32 +
STACK CFI b3cc .cfa: sp 0 +
STACK CFI b3d0 .cfa: x29 32 +
STACK CFI b3dc .cfa: sp 32 +
STACK CFI b3e4 .cfa: sp 0 +
STACK CFI INIT 5d2c 280 .cfa: sp 0 +
STACK CFI 5d30 .cfa: sp 176 +
STACK CFI 5d40 .cfa: x29 48 + x19: .cfa -8 + ^ x20: .cfa -16 + ^ x21: .cfa -24 + ^ x22: .cfa -32 + ^ .ra: .cfa -40 + ^ x29: .cfa -48 + ^
STACK CFI 5ec4 .cfa: sp 176 +
STACK CFI 5ed4 .cfa: sp 0 +
STACK CFI 5ed8 .cfa: x29 48 +
STACK CFI INIT 5fac 484 .cfa: sp 0 +
STACK CFI 5fb0 .cfa: sp 224 +
STACK CFI 5fcc .cfa: x29 96 + x19: .cfa -8 + ^ x20: .cfa -16 + ^ x21: .cfa -24 + ^ x22: .cfa -32 + ^ x23: .cfa -40 + ^ x24: .cfa -48 + ^ x25: .cfa -56 + ^ x26: .cfa -64 + ^ x27: .cfa -72 + ^ x28: .cfa -80 + ^ .ra: .cfa -88 + ^ x29: .cfa -96 + ^
STACK CFI 623c .cfa: sp 224 +
STACK CFI 6258 .cfa: sp 0 +
STACK CFI 625c .cfa: x29 96 +
STACK CFI 6328 .cfa: sp 224 +
STACK CFI 6344 .cfa: sp 0 +
STACK CFI 6348 .cfa: x29 96 +
STACK CFI INIT 6448 484 .cfa: sp 0 +
STACK CFI 644c .cfa: sp 224 +
STACK CFI 6468 .cfa: x29 96 + x19: .cfa -8 + ^ x20: .cfa -16 + ^ x21: .cfa -24 + ^ x22: .cfa -32 + ^ x23: .cfa -40 + ^ x24: .cfa -48 + ^ x25: .cfa -56 + ^ x26: .cfa -64 + ^ x27: .cfa -72 + ^ x28: .cfa -80 + ^ .ra: .cfa -88 + ^ x29: .cfa -96 + ^
STACK CFI 66d8 .cfa: sp 224 +
STACK CFI 66f4 .cfa: sp 0 +
STACK CFI 66f8 .cfa: x29 96 +
STACK CFI 67c4 .cfa: sp 224 +
STACK CFI 67e0 .cfa: sp 0 +
STACK CFI 67e4 .cfa: x29 96 +
STACK CFI INIT 6bf8 50 .cfa: sp 0 +
STACK CFI 6bfc .cfa: sp 32 +
STACK CFI 6c04 .cfa: x29 32 + x19: .cfa -8 + ^ x20: .cfa -16 + ^ .ra: .cfa -24 + ^ x29: .cfa -32 + ^
STACK CFI INIT 6c7c 164 .cfa: sp 0 +
STACK CFI 6c80 .cfa: sp 112 +
STACK CFI 6c90 .cfa: x29 48 + x19: .cfa -8 + ^ x20: .cfa -16 + ^ x21: .cfa -24 + ^ x22: .cfa -32 + ^ .ra: .cfa -40 + ^ x29: .cfa -48 + ^
STACK CFI 6d7c .cfa: sp 112 +
STACK CFI 6d8c .cfa: sp 0 +
STACK CFI 6d90 .cfa: x29 48 +
STACK CFI INIT 6f24 164 .cfa: sp 0 +
STACK CFI 6f28 .cfa: sp 112 +
STACK CFI 6f38 .cfa: x29 48 + x19: .cfa -8 + ^ x20: .cfa -16 + ^ x21: .cfa -24 + ^ x22: .cfa -32 + ^ .ra: .cfa -40 + ^ x29: .cfa -48 + ^
STACK CFI 7024 .cfa: sp 112 +
STACK CFI 7034 .cfa: sp 0 +
STACK CFI 7038 .cfa: x29 48 +
STACK CFI INIT 71d8 36c .cfa: sp 0 +
STACK CFI 71dc .cfa: sp 240 +
STACK CFI 71f0 .cfa: x29 64 + x19: .cfa -8 + ^ x20: .cfa -16 + ^ x21: .cfa -24 + ^ x22: .cfa -32 + ^ x23: .cfa -48 + ^ .ra: .cfa -56 + ^ x29: .cfa -64 + ^
STACK CFI 7420 .cfa: sp 240 +
STACK CFI 7434 .cfa: sp 0 +
STACK CFI 7438 .cfa: x29 64 +
STACK CFI INIT 7594 74 .cfa: sp 0 +
STACK CFI 7598 .cfa: sp 48 +
STACK CFI 75a4 .cfa: x29 32 + x19: .cfa -8 + ^ x20: .cfa -16 + ^ .ra: .cfa -24 + ^ x29: .cfa -32 + ^
STACK CFI 75f0 .cfa: sp 48 +
STACK CFI 75fc .cfa: sp 0 +
STACK CFI 7600 .cfa: x29 32 +
STACK CFI INIT 7688 6fc .cfa: sp 0 +
STACK CFI 768c .cfa: sp 496 +
STACK CFI 76a8 .cfa: x29 96 + x19: .cfa -8 + ^ x20: .cfa -16 + ^ x21: .cfa -24 + ^ x22: .cfa -32 + ^ x23: .cfa -40 + ^ x24: .cfa -48 + ^ x25: .cfa -56 + ^ x26: .cfa -64 + ^ x27: .cfa -72 + ^ x28: .cfa -80 + ^ .ra: .cfa -88 + ^ x29: .cfa -96 + ^
STACK CFI 7c58 .cfa: sp 496 +
STACK CFI 7c74 .cfa: sp 0 +
STACK CFI 7c78 .cfa: x29 96 +
STACK CFI INIT 7e5c 224 .cfa: sp 0 +
STACK CFI 7e60 .cfa: sp 128 +
STACK CFI 7e78 .cfa: x29 80 + x19: .cfa -8 + ^ x20: .cfa -16 + ^ x21: .cfa -24 + ^ x22: .cfa -32 + ^ x23: .cfa -40 + ^ x24: .cfa -48 + ^ x25: .cfa -64 + ^ .ra: .cfa -72 + ^ x29: .cfa -80 + ^
STACK CFI 8014 .cfa: sp 128 +
STACK CFI 802c .cfa: sp 0 +
STACK CFI 8030 .cfa: x29 80 +
STACK CFI INIT 87d8 3e8 .cfa: sp 0 +
STACK CFI 87dc .cfa: sp 96 +
STACK CFI 87f4 .cfa: x29 80 + x19: .cfa -8 + ^ x20: .cfa -16 + ^ x21: .cfa -24 + ^ x22: .cfa -32 + ^ x23: .cfa -40 + ^ x24: .cfa -48 + ^ x25: .cfa -56 + ^ x26: .cfa -64 + ^ .ra: .cfa -72 + ^ x29: .cfa -80 + ^ v8: .cfa -96 + ^
STACK CFI 8b90 .cfa: sp 96 +
STACK CFI 8ba8 .cfa: sp 0 +
STACK CFI 8bac .cfa: x29 80 +
STACK CFI INIT 8bc0 a8 .cfa: sp 0 +
STACK CFI 8bc4 .cfa: sp 32 +
STACK CFI 8bcc .cfa: x29 32 + x19: .cfa -16 + ^ .ra: .cfa -24 + ^ x29: .cfa -32 + ^
STACK CFI 8c00 .cfa: sp 32 +
STACK CFI 8c08 .cfa: sp 0 +
STACK CFI 8c0c .cfa: x29 32 +
STACK CFI 8c10 .cfa: sp 32 +
STACK CFI 8c18 .cfa: sp 0 +
STACK CFI 8c1c .cfa: x29 32 +
STACK CFI INIT 8f70 658 .cfa: sp 0 +
STACK CFI 8f74 .cfa: sp 224 +
STACK CFI 8f90 .cfa: x29 96 + x19: .cfa -8 + ^ x20: .cfa -16 + ^ x21: .cfa -24 + ^ x22: .cfa -32 + ^ x23: .cfa -40 + ^ x24: .cfa -48 + ^ x25: .cfa -56 + ^ x26: .cfa -64 + ^ x27: .cfa -72 + ^ x28: .cfa -80 + ^ .ra: .cfa -88 + ^ x29: .cfa -96 + ^
STACK CFI 9458 .cfa: sp 224 +
STACK CFI 9474 .cfa: sp 0 +
STACK CFI 9478 .cfa: x29 96 +
STACK CFI INIT 9600 48 .cfa: sp 0 +
STACK CFI 9604 .cfa: sp 32 +
STACK CFI 960c .cfa: x29 32 + x19: .cfa -8 + ^ x20: .cfa -16 + ^ .ra: .cfa -24 + ^ x29: .cfa -32 + ^
STACK CFI INIT 9a38 b88 .cfa: sp 0 +
STACK CFI 9a3c .cfa: sp 288 +
STACK CFI 9a58 .cfa: x29 96 + x19: .cfa -8 + ^ x20: .cfa -16 + ^ x21: .cfa -24 + ^ x22: .cfa -32 + ^ x23: .cfa -40 + ^ x24: .cfa -48 + ^ x25: .cfa -56 + ^ x26: .cfa -64 + ^ x28: .cfa -80 + ^ .ra: .cfa -88 + ^ x29: .cfa -96 + ^
STACK CFI a288 .cfa: sp 288 +
STACK CFI a2a4 .cfa: sp 0 +
STACK CFI a2a8 .cfa: x29 96 +
STACK CFI INIT a7b8 c8 .cfa: sp 0 +
STACK CFI a7bc .cfa: sp 32 +
STACK CFI a7c4 .cfa: x29 32 + x19: .cfa -8 + ^ x20: .cfa -16 + ^ .ra: .cfa -24 + ^ x29: .cfa -32 + ^
STACK CFI a7f8 .cfa: sp 32 +
STACK CFI a800 .cfa: sp 0 +
STACK CFI a804 .cfa: x29 32 +
STACK CFI a808 .cfa: sp 32 +
STACK CFI a810 .cfa: sp 0 +
STACK CFI a814 .cfa: x29 32 +
STACK CFI INIT a880 2c0 .cfa: sp 0 +
STACK CFI a884 .cfa: sp 48 +
STACK CFI a890 .cfa: x29 32 + x19: .cfa -8 + ^ x20: .cfa -16 + ^ .ra: .cfa -24 + ^ x29: .cfa -32 + ^ v8: .cfa -48 + ^
STACK CFI aa9c .cfa: sp 48 +
STACK CFI aaa8 .cfa: sp 0 +
STACK CFI aaac .cfa: x29 32 +
STACK CFI INIT ad3c 340 .cfa: sp 0 +
STACK CFI ad40 .cfa: sp 80 +
STACK CFI ad54 .cfa: x29 80 + x19: .cfa -8 + ^ x20: .cfa -16 + ^ x21: .cfa -24 + ^ x22: .cfa -32 + ^ x23: .cfa -40 + ^ x24: .cfa -48 + ^ x25: .cfa -56 + ^ x26: .cfa -64 + ^ .ra: .cfa -72 + ^ x29: .cfa -80 + ^
STACK CFI b050 .cfa: sp 80 +
STACK CFI b064 .cfa: sp 0 +
STACK CFI b068 .cfa: x29 80 +
STACK CFI INIT b07c c8 .cfa: sp 0 +
STACK CFI b080 .cfa: sp 32 +
STACK CFI b088 .cfa: x29 32 + x19: .cfa -8 + ^ x20: .cfa -16 + ^ .ra: .cfa -24 + ^ x29: .cfa -32 + ^
STACK CFI b0bc .cfa: sp 32 +
STACK CFI b0c4 .cfa: sp 0 +
STACK CFI b0c8 .cfa: x29 32 +
STACK CFI b0cc .cfa: sp 32 +
STACK CFI b0d4 .cfa: sp 0 +
STACK CFI b0d8 .cfa: x29 32 +
STACK CFI INIT b144 268 .cfa: sp 0 +
STACK CFI b148 .cfa: sp 96 +
STACK CFI b160 .cfa: x29 56 + x19: .cfa -8 + ^ x20: .cfa -16 + ^ x21: .cfa -24 + ^ x22: .cfa -32 + ^ x23: .cfa -40 + ^ .ra: .cfa -48 + ^ x29: .cfa -56 + ^ v8: .cfa -64 + ^
STACK CFI b324 .cfa: sp 96 +
STACK CFI b33c .cfa: sp 0 +
STACK CFI b340 .cfa: x29 56 +
