MODULE Linux arm64 8ADD7CF48A0EE23FF5F2725EBAE8DED70 taswert.showaudioassets.android64.so
INFO CODE_ID F47CDD8A0E8A3FE2F5F2725EBAE8DED77407FCE2
INFO GENERATOR mozilla/dump_syms 2.3.4
PUBLIC 34a0 0 __on_dlclose
PUBLIC 34b0 0 __emutls_unregister_key
PUBLIC 34b8 0 __on_dlclose_late
PUBLIC 34c0 0 __atexit_handler_wrapper
PUBLIC 34d4 0 atexit
PUBLIC 34f0 0 pthread_atfork
PUBLIC 3500 0 __aarch64_ldadd8_relax
PUBLIC 3530 0 init_have_lse_atomics
PUBLIC 35c8 0 __init_cpu_features_constructor
PUBLIC 3b64 0 __init_cpu_features
PUBLIC 3bf0 0 __aarch64_ldadd8_acq_rel
PUBLIC 3c20 0 __cxx_global_var_init
PUBLIC 47c0 0 geode::modifier::ModifyBase<geode::modifier::ModifyDerive<hook6<(anonymous namespace)::hook6Parent>, CustomSongLayer> >::~ModifyBase()
PUBLIC 47d8 0 geode::modifier::ModifyDerive<hook6<(anonymous namespace)::hook6Parent>, CustomSongLayer>::apply()
PUBLIC 4da4 0 std::__ndk1::shared_ptr<geode::Hook>::~shared_ptr[abi:ne180000]()
PUBLIC 4df4 0 geode::impl::ResultData<geode::Hook*, std::__ndk1::basic_string<char, std::__ndk1::char_traits<char>, std::__ndk1::allocator<char> > >::~ResultData()
PUBLIC 4e68 0 std::__ndk1::vector<std::__ndk1::basic_string<char, std::__ndk1::char_traits<char>, std::__ndk1::allocator<char> >, std::__ndk1::allocator<std::__ndk1::basic_string<char, std::__ndk1::char_traits<char>, std::__ndk1::allocator<char> > > >::~vector[abi:ne180000]()
PUBLIC 4ee4 0 geode::modifier::ModifyBase<geode::modifier::ModifyDerive<hook6<(anonymous namespace)::hook6Parent>, CustomSongLayer> >::apply()
PUBLIC 4ee8 0 __clang_call_terminate
PUBLIC 4ef8 0 _ZN5geode15UnwrapExceptionC2IRPNS_4HookEQsr4implE18IsStringStreamableIT_EEENS_4impl5OkTagEOS5_
PUBLIC 504c 0 std::__ndk1::__throw_bad_variant_access[abi:ne180000]()
PUBLIC 5080 0 std::__ndk1::basic_stringstream<char, std::__ndk1::char_traits<char>, std::__ndk1::allocator<char> >::basic_stringstream[abi:ne180000]()
PUBLIC m 51ac 0 std::__ndk1::basic_stringstream<char, std::__ndk1::char_traits<char>, std::__ndk1::allocator<char> >::~basic_stringstream()
PUBLIC 522c 0 geode::UnwrapException::~UnwrapException()
PUBLIC 5250 0 std::__ndk1::__put_character_sequence[abi:ne180000]<char, std::__ndk1::char_traits<char> >(std::__ndk1::basic_ostream<char, std::__ndk1::char_traits<char> >, std::__ndk1::basic_ostream const*, unsigned long)
PUBLIC 53f4 0 std::__ndk1::__pad_and_output[abi:ne180000]<char, std::__ndk1::char_traits<char> >(std::__ndk1::char_traits<char>, std::__ndk1::ostreambuf_iterator const*, std::__ndk1::ostreambuf_iterator const, std::__ndk1::ostreambuf_iterator const, std::__ndk1::ios_base&, std::__ndk1::ostreambuf_iterator)
PUBLIC 55d0 0 std::__ndk1::basic_string<char, std::__ndk1::char_traits<char>, std::__ndk1::allocator<char> >::__throw_length_error[abi:ne180000]() const
PUBLIC 55e4 0 std::__ndk1::__throw_length_error[abi:ne180000](char const*)
PUBLIC 5634 0 std::length_error::length_error[abi:ne180000](char const*)
PUBLIC 5664 0 std::__throw_bad_array_new_length([abi:ne180000], void)
PUBLIC 5698 0 std::__ndk1::basic_stringbuf<char, std::__ndk1::char_traits<char>, std::__ndk1::allocator<char> >::str[abi:ne180000]() &&
PUBLIC 5810 0 std::__ndk1::basic_stringbuf<char, std::__ndk1::char_traits<char>, std::__ndk1::allocator<char> >::__init_buf_ptrs[abi:ne180000]()
PUBLIC 5958 0 std::__ndk1::basic_string<char, std::__ndk1::char_traits<char>, std::__ndk1::allocator<char> >::__init_copy_ctor_external(char const*, unsigned long)
PUBLIC 59d8 0 std::__ndk1::__split_buffer<std::__ndk1::basic_string<char, std::__ndk1::char_traits<char>, std::__ndk1::allocator<char> >, std::__ndk1::allocator<std::__ndk1::basic_string<char, std::__ndk1::char_traits<char>, std::__ndk1::allocator<char> > >&>::~__split_buffer()
PUBLIC 5a40 0 std::__ndk1::vector<std::__ndk1::basic_string<char, std::__ndk1::char_traits<char>, std::__ndk1::allocator<char> >, std::__ndk1::allocator<std::__ndk1::basic_string<char, std::__ndk1::char_traits<char>, std::__ndk1::allocator<char> > > >::__throw_length_error[abi:ne180000]() const
PUBLIC 5a54 0 std::__ndk1::__variant_detail::__visitation::__base::__dispatcher<(unsigned long)0>::__dispatch[abi:ne180000]<std::__ndk1::__variant_detail::__dtor<std::__ndk1::__variant_detail::__traits<geode::Hook*, std::__ndk1::basic_string<char, std::__ndk1::char_traits<char>, std::__ndk1::allocator<char> > >, (std::__ndk1::__variant_detail::_Trait)1>::__destroy[abi:ne180000]()::{lambda(auto:1&)#1}, std::__ndk1::__variant_detail::__base<(std::__ndk1::__variant_detail::__traits<geode::Hook*, std::__ndk1::basic_string<char, std::__ndk1::char_traits<char>, std::__ndk1::allocator<char> > >)1, geode::Hook, std::__ndk1::allocator<char> >&>(std::__ndk1::__variant_detail::__dtor<std::__ndk1::__variant_detail::__traits<geode::Hook*, std::__ndk1::basic_string<char, std::__ndk1::char_traits<char>, std::__ndk1::allocator<char> > >, (std::__ndk1::__variant_detail::_Trait)1>, std::__ndk1::__variant_detail::__base<(std::__ndk1::__variant_detail::__traits<geode::Hook*, std::__ndk1::basic_string<char, std::__ndk1::char_traits<char>, std::__ndk1::allocator<char> > >)1, geode::Hook, std::__ndk1::allocator<char> >&)
PUBLIC 5a58 0 std::__ndk1::__variant_detail::__visitation::__base::__dispatcher<(unsigned long)1>::__dispatch[abi:ne180000]<std::__ndk1::__variant_detail::__dtor<std::__ndk1::__variant_detail::__traits<geode::Hook*, std::__ndk1::basic_string<char, std::__ndk1::char_traits<char>, std::__ndk1::allocator<char> > >, (std::__ndk1::__variant_detail::_Trait)1>::__destroy[abi:ne180000]()::{lambda(auto:1&)#1}, std::__ndk1::__variant_detail::__base<(std::__ndk1::__variant_detail::__traits<geode::Hook*, std::__ndk1::basic_string<char, std::__ndk1::char_traits<char>, std::__ndk1::allocator<char> > >)1, geode::Hook, std::__ndk1::allocator<char> >&>(std::__ndk1::__variant_detail::__dtor<std::__ndk1::__variant_detail::__traits<geode::Hook*, std::__ndk1::basic_string<char, std::__ndk1::char_traits<char>, std::__ndk1::allocator<char> > >, (std::__ndk1::__variant_detail::_Trait)1>, std::__ndk1::__variant_detail::__base<(std::__ndk1::__variant_detail::__traits<geode::Hook*, std::__ndk1::basic_string<char, std::__ndk1::char_traits<char>, std::__ndk1::allocator<char> > >)1, geode::Hook, std::__ndk1::allocator<char> >&)
PUBLIC 5a6c 0 std::__ndk1::__tree<std::__ndk1::__value_type<std::__ndk1::basic_string<char, std::__ndk1::char_traits<char>, std::__ndk1::allocator<char> >, std::__ndk1::shared_ptr<geode::Hook> >, std::__ndk1::__map_value_compare<std::__ndk1::basic_string<char, std::__ndk1::char_traits<char>, std::__ndk1::allocator<char> >, std::__ndk1::__value_type<std::__ndk1::basic_string<char, std::__ndk1::char_traits<char>, std::__ndk1::allocator<char> >, std::__ndk1::shared_ptr<geode::Hook> >, std::__ndk1::less<std::__ndk1::basic_string<char, std::__ndk1::char_traits<char>, std::__ndk1::allocator<char> > >, true>, std::__ndk1::allocator<std::__ndk1::__value_type<std::__ndk1::basic_string<char, std::__ndk1::char_traits<char>, std::__ndk1::allocator<char> >, std::__ndk1::shared_ptr<geode::Hook> > > >::destroy(std::__ndk1::__tree_node<std::__ndk1::__value_type<std::__ndk1::basic_string<char, std::__ndk1::char_traits<char>, std::__ndk1::allocator<char> >, std::__ndk1::shared_ptr<geode::Hook> >, void*>*)
PUBLIC 5af0 0 geode::modifier::AsStaticFunction_show<hook6<(anonymous namespace)::hook6Parent>, void (hook6<(anonymous namespace)::hook6Parent>::*)()>::Impl<void (hook6<(anonymous namespace)::hook6Parent>::*)()>::function(hook6<(anonymous namespace)::hook6Parent>*)
PUBLIC 5c40 0 geode::modifier::AsStaticFunction_onSearch<hook6<(anonymous namespace)::hook6Parent>, void (hook6<(anonymous namespace)::hook6Parent>::*)(cocos2d::CCObject*)>::Impl<void (hook6<(anonymous namespace)::hook6Parent>::*)(cocos2d::CCObject*)>::function(hook6<(anonymous namespace)::hook6Parent>*, cocos2d::CCObject*)
PUBLIC 5cb8 0 geode::addresser::Addresser::addressOfVirtual<void, CustomSongLayer, >(void (CustomSongLayer::*)())
PUBLIC 5d60 0 CustomSongLayer::CustomSongLayer(geode::ZeroConstructorType)
PUBLIC 5dfc 0 std::__ndk1::shared_ptr<tulip::hook::CallingConvention>::~shared_ptr[abi:ne180000]()
PUBLIC 5e4c 0 tulip::hook::HandlerMetadata::~HandlerMetadata()
PUBLIC 5eb0 0 std::__ndk1::__tree<std::__ndk1::__value_type<std::__ndk1::basic_string<char, std::__ndk1::char_traits<char>, std::__ndk1::allocator<char> >, std::__ndk1::shared_ptr<geode::Hook> >, std::__ndk1::__map_value_compare<std::__ndk1::basic_string<char, std::__ndk1::char_traits<char>, std::__ndk1::allocator<char> >, std::__ndk1::__value_type<std::__ndk1::basic_string<char, std::__ndk1::char_traits<char>, std::__ndk1::allocator<char> >, std::__ndk1::shared_ptr<geode::Hook> >, std::__ndk1::less<std::__ndk1::basic_string<char, std::__ndk1::char_traits<char>, std::__ndk1::allocator<char> > >, true>, std::__ndk1::allocator<std::__ndk1::__value_type<std::__ndk1::basic_string<char, std::__ndk1::char_traits<char>, std::__ndk1::allocator<char> >, std::__ndk1::shared_ptr<geode::Hook> > > >::__emplace_unique_key_args<std::__ndk1::basic_string<char, std::__ndk1::char_traits<char>, std::__ndk1::allocator<char> >, std::__ndk1::piecewise_construct_t const&, std::__ndk1::tuple<std::__ndk1::basic_string<char, std::__ndk1::char_traits<char>, std::__ndk1::allocator<char> >&&>, std::__ndk1::tuple<> >(std::__ndk1::basic_string<char, std::__ndk1::char_traits<char>, std::__ndk1::allocator<char> > const&, std::__ndk1::piecewise_construct_t const&, std::__ndk1::tuple<std::__ndk1::basic_string<char, std::__ndk1::char_traits<char>, std::__ndk1::allocator<char> >&&>, std::__ndk1::tuple<>)
PUBLIC 6018 0 std::__ndk1::__tree_balance_after_insert[abi:ne180000]<std::__ndk1::__tree_node_base<void*>*>(std::__ndk1::__tree_node_base<void*>*, std::__ndk1::__tree_node_base<void*>*)
PUBLIC m 61c8 0 geodeImplicitEntry
PUBLIC 6204 0 wrapFunction(unsigned long, tulip::hook::WrapperMetadata const&)
PUBLIC 6338 0 geode::impl::ResultData<void*, std::__ndk1::basic_string<char, std::__ndk1::char_traits<char>, std::__ndk1::allocator<char> > >::unwrapErr() &
PUBLIC 63b0 0 geode::impl::ResultData<void*, std::__ndk1::basic_string<char, std::__ndk1::char_traits<char>, std::__ndk1::allocator<char> > >::~ResultData()
PUBLIC 6424 0 tulip::hook::WrapperMetadata::~WrapperMetadata()
PUBLIC 6488 0 CustomSongWidget::updateWithMultiAssets(gd::string, gd::string, int)
PUBLIC 6634 0 tulip::hook::AbstractFunction::from<void, CustomSongWidget*, gd::string, gd::string, int>(void (*)(CustomSongWidget*, gd::string, gd::string, int))
PUBLIC 6744 0 _ZN5geode15UnwrapExceptionC2IRPvQsr4implE18IsStringStreamableIT_EEENS_4impl5OkTagEOS4_
PUBLIC 6898 0 _ZN5geode15UnwrapExceptionC2IRNSt6__ndk112basic_stringIcNS2_11char_traitsIcEENS2_9allocatorIcEEEEQsr4implE18IsStringStreamableIT_EEENS_4impl6ErrTagEOSA_
PUBLIC 6a00 0 std::__ndk1::__variant_detail::__visitation::__base::__dispatcher<(unsigned long)0>::__dispatch[abi:ne180000]<std::__ndk1::__variant_detail::__dtor<std::__ndk1::__variant_detail::__traits<void*, std::__ndk1::basic_string<char, std::__ndk1::char_traits<char>, std::__ndk1::allocator<char> > >, (std::__ndk1::__variant_detail::_Trait)1>::__destroy[abi:ne180000]()::{lambda(auto:1&)#1}, std::__ndk1::__variant_detail::__base<(std::__ndk1::__variant_detail::__traits<void*, std::__ndk1::basic_string<char, std::__ndk1::char_traits<char>, std::__ndk1::allocator<char> > >)1, std::__ndk1::__variant_detail::__traits, std::__ndk1::allocator<char> >&>(std::__ndk1::__variant_detail::__dtor<std::__ndk1::__variant_detail::__traits<void*, std::__ndk1::basic_string<char, std::__ndk1::char_traits<char>, std::__ndk1::allocator<char> > >, (std::__ndk1::__variant_detail::_Trait)1>, std::__ndk1::__variant_detail::__base<(std::__ndk1::__variant_detail::__traits<void*, std::__ndk1::basic_string<char, std::__ndk1::char_traits<char>, std::__ndk1::allocator<char> > >)1, std::__ndk1::__variant_detail::__traits, std::__ndk1::allocator<char> >&)
PUBLIC 6a04 0 std::__ndk1::__variant_detail::__visitation::__base::__dispatcher<(unsigned long)1>::__dispatch[abi:ne180000]<std::__ndk1::__variant_detail::__dtor<std::__ndk1::__variant_detail::__traits<void*, std::__ndk1::basic_string<char, std::__ndk1::char_traits<char>, std::__ndk1::allocator<char> > >, (std::__ndk1::__variant_detail::_Trait)1>::__destroy[abi:ne180000]()::{lambda(auto:1&)#1}, std::__ndk1::__variant_detail::__base<(std::__ndk1::__variant_detail::__traits<void*, std::__ndk1::basic_string<char, std::__ndk1::char_traits<char>, std::__ndk1::allocator<char> > >)1, std::__ndk1::__variant_detail::__traits, std::__ndk1::allocator<char> >&>(std::__ndk1::__variant_detail::__dtor<std::__ndk1::__variant_detail::__traits<void*, std::__ndk1::basic_string<char, std::__ndk1::char_traits<char>, std::__ndk1::allocator<char> > >, (std::__ndk1::__variant_detail::_Trait)1>, std::__ndk1::__variant_detail::__base<(std::__ndk1::__variant_detail::__traits<void*, std::__ndk1::basic_string<char, std::__ndk1::char_traits<char>, std::__ndk1::allocator<char> > >)1, std::__ndk1::__variant_detail::__traits, std::__ndk1::allocator<char> >&)
PUBLIC 6a20 0 <.plt ELF section in taswert.showaudioassets.android64.so>
STACK CFI INIT 34a0 10 .cfa: sp 0 +
STACK CFI INIT 34b0 8 .cfa: sp 0 +
STACK CFI INIT 34b8 8 .cfa: sp 0 +
STACK CFI INIT 34c0 14 .cfa: sp 0 +
STACK CFI INIT 34d4 1c .cfa: sp 0 +
STACK CFI INIT 34f0 10 .cfa: sp 0 +
STACK CFI INIT 3500 30 .cfa: sp 0 +
STACK CFI INIT 3530 98 .cfa: sp 0 +
STACK CFI INIT 35c8 59c .cfa: sp 0 +
STACK CFI INIT 3b64 8c .cfa: sp 0 +
STACK CFI INIT 3bf0 30 .cfa: sp 0 +
STACK CFI INIT 47c0 18 .cfa: sp 0 +
STACK CFI INIT 4da4 50 .cfa: sp 0 +
STACK CFI 4da8 .cfa: sp 32 +
STACK CFI 4db0 .cfa: x29 32 + x19: .cfa -16 + ^ .ra: .cfa -24 + ^ x29: .cfa -32 + ^
STACK CFI 4dc8 .cfa: sp 32 +
STACK CFI 4dd0 .cfa: sp 0 +
STACK CFI 4dd4 .cfa: x29 32 +
STACK CFI 4de8 .cfa: sp 32 +
STACK CFI 4df0 .cfa: sp 0 +
STACK CFI INIT 4e68 7c .cfa: sp 0 +
STACK CFI 4e6c .cfa: sp 48 +
STACK CFI 4e78 .cfa: x29 48 + x19: .cfa -8 + ^ x20: .cfa -16 + ^ x21: .cfa -32 + ^ .ra: .cfa -40 + ^ x29: .cfa -48 + ^
STACK CFI 4ec4 .cfa: sp 48 +
STACK CFI 4ed0 .cfa: sp 0 +
STACK CFI 4ed4 .cfa: sp 48 +
STACK CFI 4ee0 .cfa: sp 0 +
STACK CFI INIT 4ee4 4 .cfa: sp 0 +
STACK CFI INIT 4ee8 10 .cfa: sp 0 +
STACK CFI 4eec .cfa: sp 16 +
STACK CFI 4ef0 .cfa: x29 16 + .ra: .cfa -8 + ^ x29: .cfa -16 + ^
STACK CFI INIT 504c 34 .cfa: sp 0 +
STACK CFI 5050 .cfa: sp 16 +
STACK CFI 5054 .cfa: x29 16 + .ra: .cfa -8 + ^ x29: .cfa -16 + ^
STACK CFI INIT 51ac 80 .cfa: sp 0 +
STACK CFI 51b0 .cfa: sp 48 +
STACK CFI 51bc .cfa: x29 48 + x19: .cfa -8 + ^ x20: .cfa -16 + ^ x21: .cfa -32 + ^ .ra: .cfa -40 + ^ x29: .cfa -48 + ^
STACK CFI 521c .cfa: sp 48 +
STACK CFI 5228 .cfa: sp 0 +
STACK CFI INIT 522c 24 .cfa: sp 0 +
STACK CFI 5230 .cfa: sp 32 +
STACK CFI 5238 .cfa: x29 32 + x19: .cfa -16 + ^ .ra: .cfa -24 + ^ x29: .cfa -32 + ^
STACK CFI 5244 .cfa: sp 32 +
STACK CFI 524c .cfa: sp 0 +
STACK CFI INIT 55d0 14 .cfa: sp 0 +
STACK CFI 55d4 .cfa: sp 16 +
STACK CFI 55d8 .cfa: x29 16 + .ra: .cfa -8 + ^ x29: .cfa -16 + ^
STACK CFI INIT 5634 30 .cfa: sp 0 +
STACK CFI 5638 .cfa: sp 32 +
STACK CFI 5640 .cfa: x29 32 + x19: .cfa -16 + ^ .ra: .cfa -24 + ^ x29: .cfa -32 + ^
STACK CFI 5658 .cfa: sp 32 +
STACK CFI 5660 .cfa: sp 0 +
STACK CFI INIT 5664 34 .cfa: sp 0 +
STACK CFI 5668 .cfa: sp 32 +
STACK CFI 5670 .cfa: x29 32 + x19: .cfa -16 + ^ .ra: .cfa -24 + ^ x29: .cfa -32 + ^
STACK CFI INIT 5810 148 .cfa: sp 0 +
STACK CFI 5814 .cfa: sp 48 +
STACK CFI 5820 .cfa: x29 48 + x19: .cfa -8 + ^ x20: .cfa -16 + ^ x21: .cfa -32 + ^ .ra: .cfa -40 + ^ x29: .cfa -48 + ^
STACK CFI 5948 .cfa: sp 48 +
STACK CFI 5954 .cfa: sp 0 +
STACK CFI INIT 5958 80 .cfa: sp 0 +
STACK CFI 595c .cfa: sp 48 +
STACK CFI 5968 .cfa: x29 48 + x19: .cfa -8 + ^ x20: .cfa -16 + ^ x21: .cfa -24 + ^ x22: .cfa -32 + ^ .ra: .cfa -40 + ^ x29: .cfa -48 + ^
STACK CFI 5980 .cfa: sp 48 +
STACK CFI 598c .cfa: sp 0 +
STACK CFI 5990 .cfa: x29 48 +
STACK CFI 59c0 .cfa: sp 48 +
STACK CFI 59cc .cfa: sp 0 +
STACK CFI 59d0 .cfa: x29 48 +
STACK CFI INIT 59d8 68 .cfa: sp 0 +
STACK CFI 59dc .cfa: sp 32 +
STACK CFI 59e4 .cfa: x29 32 + x19: .cfa -8 + ^ x20: .cfa -16 + ^ .ra: .cfa -24 + ^ x29: .cfa -32 + ^
STACK CFI 59fc .cfa: sp 32 +
STACK CFI 5a04 .cfa: sp 0 +
STACK CFI 5a08 .cfa: x29 32 +
STACK CFI 5a34 .cfa: sp 32 +
STACK CFI 5a3c .cfa: sp 0 +
STACK CFI INIT 5a40 14 .cfa: sp 0 +
STACK CFI 5a44 .cfa: sp 16 +
STACK CFI 5a48 .cfa: x29 16 + .ra: .cfa -8 + ^ x29: .cfa -16 + ^
STACK CFI INIT 5a54 4 .cfa: sp 0 +
STACK CFI INIT 5a58 14 .cfa: sp 0 +
STACK CFI INIT 5a6c 84 .cfa: sp 0 +
STACK CFI 5a74 .cfa: sp 32 +
STACK CFI 5a7c .cfa: x29 32 + x19: .cfa -8 + ^ x20: .cfa -16 + ^ .ra: .cfa -24 + ^ x29: .cfa -32 + ^
STACK CFI 5abc .cfa: sp 32 +
STACK CFI 5ac4 .cfa: sp 0 +
STACK CFI 5acc .cfa: x29 32 +
STACK CFI INIT 5c40 78 .cfa: sp 0 +
STACK CFI 5c44 .cfa: sp 32 +
STACK CFI 5c4c .cfa: x29 32 + x19: .cfa -8 + ^ x20: .cfa -16 + ^ .ra: .cfa -24 + ^ x29: .cfa -32 + ^
STACK CFI 5cac .cfa: sp 32 +
STACK CFI 5cb4 .cfa: sp 0 +
STACK CFI INIT 5d60 9c .cfa: sp 0 +
STACK CFI 5d64 .cfa: sp 32 +
STACK CFI 5d6c .cfa: x29 32 + x19: .cfa -16 + ^ .ra: .cfa -24 + ^ x29: .cfa -32 + ^
STACK CFI 5df0 .cfa: sp 32 +
STACK CFI 5df8 .cfa: sp 0 +
STACK CFI INIT 5dfc 50 .cfa: sp 0 +
STACK CFI 5e00 .cfa: sp 32 +
STACK CFI 5e08 .cfa: x29 32 + x19: .cfa -16 + ^ .ra: .cfa -24 + ^ x29: .cfa -32 + ^
STACK CFI 5e20 .cfa: sp 32 +
STACK CFI 5e28 .cfa: sp 0 +
STACK CFI 5e2c .cfa: x29 32 +
STACK CFI 5e40 .cfa: sp 32 +
STACK CFI 5e48 .cfa: sp 0 +
STACK CFI INIT 5e4c 64 .cfa: sp 0 +
STACK CFI 5e50 .cfa: sp 32 +
STACK CFI 5e58 .cfa: x29 32 + x19: .cfa -16 + ^ .ra: .cfa -24 + ^ x29: .cfa -32 + ^
STACK CFI 5e84 .cfa: sp 32 +
STACK CFI 5e8c .cfa: sp 0 +
STACK CFI 5e90 .cfa: x29 32 +
STACK CFI 5ea4 .cfa: sp 32 +
STACK CFI 5eac .cfa: sp 0 +
STACK CFI INIT 5eb0 168 .cfa: sp 0 +
STACK CFI 5eb4 .cfa: sp 80 +
STACK CFI 5ec8 .cfa: x29 80 + x19: .cfa -8 + ^ x20: .cfa -16 + ^ x21: .cfa -24 + ^ x22: .cfa -32 + ^ x23: .cfa -40 + ^ x24: .cfa -48 + ^ x25: .cfa -56 + ^ x26: .cfa -64 + ^ .ra: .cfa -72 + ^ x29: .cfa -80 + ^
STACK CFI 6000 .cfa: sp 80 +
STACK CFI 6014 .cfa: sp 0 +
STACK CFI INIT 6018 1b0 .cfa: sp 0 +
STACK CFI INIT 61c8 3c .cfa: sp 0 +
STACK CFI 61cc .cfa: sp 32 +
STACK CFI 61d4 .cfa: x29 32 + x19: .cfa -16 + ^ .ra: .cfa -24 + ^ x29: .cfa -32 + ^
STACK CFI 61e0 .cfa: sp 32 +
STACK CFI 61e8 .cfa: sp 0 +
STACK CFI 61ec .cfa: x29 32 +
STACK CFI 61f8 .cfa: sp 32 +
STACK CFI 6200 .cfa: sp 0 +
STACK CFI INIT 6424 64 .cfa: sp 0 +
STACK CFI 6428 .cfa: sp 32 +
STACK CFI 6430 .cfa: x29 32 + x19: .cfa -16 + ^ .ra: .cfa -24 + ^ x29: .cfa -32 + ^
STACK CFI 645c .cfa: sp 32 +
STACK CFI 6464 .cfa: sp 0 +
STACK CFI 6468 .cfa: x29 32 +
STACK CFI 647c .cfa: sp 32 +
STACK CFI 6484 .cfa: sp 0 +
STACK CFI INIT 6a00 4 .cfa: sp 0 +
STACK CFI INIT 6a04 14 .cfa: sp 0 +
STACK CFI INIT 3c20 ba0 .cfa: sp 0 +
STACK CFI 3c24 .cfa: sp 240 +
STACK CFI 3c40 .cfa: x29 96 + x19: .cfa -8 + ^ x20: .cfa -16 + ^ x21: .cfa -24 + ^ x22: .cfa -32 + ^ x23: .cfa -40 + ^ x24: .cfa -48 + ^ x25: .cfa -56 + ^ x26: .cfa -64 + ^ x27: .cfa -72 + ^ x28: .cfa -80 + ^ .ra: .cfa -88 + ^ x29: .cfa -96 + ^
STACK CFI 4668 .cfa: sp 240 +
STACK CFI 4684 .cfa: sp 0 +
STACK CFI 4688 .cfa: x29 96 +
STACK CFI INIT 47d8 5cc .cfa: sp 0 +
STACK CFI 47dc .cfa: sp 288 +
STACK CFI 47f8 .cfa: x29 96 + x19: .cfa -8 + ^ x20: .cfa -16 + ^ x21: .cfa -24 + ^ x22: .cfa -32 + ^ x23: .cfa -40 + ^ x24: .cfa -48 + ^ x25: .cfa -56 + ^ x26: .cfa -64 + ^ x28: .cfa -80 + ^ .ra: .cfa -88 + ^ x29: .cfa -96 + ^
STACK CFI 4bdc .cfa: sp 288 +
STACK CFI 4bf8 .cfa: sp 0 +
STACK CFI 4bfc .cfa: x29 96 +
STACK CFI INIT 4df4 74 .cfa: sp 0 +
STACK CFI 4df8 .cfa: sp 48 +
STACK CFI 4e04 .cfa: x29 32 + x19: .cfa -8 + ^ x20: .cfa -16 + ^ .ra: .cfa -24 + ^ x29: .cfa -32 + ^
STACK CFI 4e50 .cfa: sp 48 +
STACK CFI 4e5c .cfa: sp 0 +
STACK CFI 4e60 .cfa: x29 32 +
STACK CFI INIT 4ef8 154 .cfa: sp 0 +
STACK CFI 4efc .cfa: sp 384 +
STACK CFI 4f10 .cfa: x29 64 + x19: .cfa -8 + ^ x20: .cfa -16 + ^ x21: .cfa -24 + ^ x22: .cfa -32 + ^ x23: .cfa -40 + ^ x28: .cfa -48 + ^ .ra: .cfa -56 + ^ x29: .cfa -64 + ^
STACK CFI 4ff4 .cfa: sp 384 +
STACK CFI 5008 .cfa: sp 0 +
STACK CFI 500c .cfa: x29 64 +
STACK CFI INIT 5080 12c .cfa: sp 0 +
STACK CFI 5084 .cfa: sp 80 +
STACK CFI 5098 .cfa: x29 80 + x19: .cfa -8 + ^ x20: .cfa -16 + ^ x21: .cfa -24 + ^ x22: .cfa -32 + ^ x23: .cfa -40 + ^ x24: .cfa -48 + ^ x25: .cfa -56 + ^ x26: .cfa -64 + ^ .ra: .cfa -72 + ^ x29: .cfa -80 + ^
STACK CFI 5160 .cfa: sp 80 +
STACK CFI 5174 .cfa: sp 0 +
STACK CFI 5178 .cfa: x29 80 +
STACK CFI INIT 5250 1a4 .cfa: sp 0 +
STACK CFI 5254 .cfa: sp 112 +
STACK CFI 526c .cfa: x29 80 + x19: .cfa -8 + ^ x20: .cfa -16 + ^ x21: .cfa -24 + ^ x22: .cfa -32 + ^ x23: .cfa -40 + ^ x24: .cfa -48 + ^ x25: .cfa -56 + ^ x26: .cfa -64 + ^ .ra: .cfa -72 + ^ x29: .cfa -80 + ^
STACK CFI 535c .cfa: sp 112 +
STACK CFI 5374 .cfa: sp 0 +
STACK CFI 5378 .cfa: x29 80 +
STACK CFI INIT 53f4 1dc .cfa: sp 0 +
STACK CFI 53f8 .cfa: sp 128 +
STACK CFI 5414 .cfa: x29 96 + x19: .cfa -8 + ^ x20: .cfa -16 + ^ x21: .cfa -24 + ^ x22: .cfa -32 + ^ x23: .cfa -40 + ^ x24: .cfa -48 + ^ x25: .cfa -56 + ^ x26: .cfa -64 + ^ x27: .cfa -80 + ^ .ra: .cfa -88 + ^ x29: .cfa -96 + ^
STACK CFI 5580 .cfa: sp 128 +
STACK CFI 559c .cfa: sp 0 +
STACK CFI 55a0 .cfa: x29 96 +
STACK CFI INIT 55e4 50 .cfa: sp 0 +
STACK CFI 55e8 .cfa: sp 32 +
STACK CFI 55f0 .cfa: x29 32 + x19: .cfa -8 + ^ x20: .cfa -16 + ^ .ra: .cfa -24 + ^ x29: .cfa -32 + ^
STACK CFI INIT 5698 178 .cfa: sp 0 +
STACK CFI 569c .cfa: sp 80 +
STACK CFI 56b0 .cfa: x29 80 + x19: .cfa -8 + ^ x20: .cfa -16 + ^ x21: .cfa -24 + ^ x22: .cfa -32 + ^ x23: .cfa -40 + ^ x24: .cfa -48 + ^ x25: .cfa -64 + ^ .ra: .cfa -72 + ^ x29: .cfa -80 + ^
STACK CFI 57dc .cfa: sp 80 +
STACK CFI 57f0 .cfa: sp 0 +
STACK CFI 57f4 .cfa: x29 80 +
STACK CFI INIT 5af0 150 .cfa: sp 0 +
STACK CFI 5af4 .cfa: sp 96 +
STACK CFI 5b04 .cfa: x29 48 + x19: .cfa -8 + ^ x20: .cfa -16 + ^ x21: .cfa -32 + ^ .ra: .cfa -40 + ^ x29: .cfa -48 + ^
STACK CFI 5bd4 .cfa: sp 96 +
STACK CFI 5be4 .cfa: sp 0 +
STACK CFI 5be8 .cfa: x29 48 +
STACK CFI INIT 5cb8 a8 .cfa: sp 0 +
STACK CFI 5cbc .cfa: sp 32 +
STACK CFI 5cc4 .cfa: x29 32 + x19: .cfa -16 + ^ .ra: .cfa -24 + ^ x29: .cfa -32 + ^
STACK CFI 5cf8 .cfa: sp 32 +
STACK CFI 5d00 .cfa: sp 0 +
STACK CFI 5d04 .cfa: x29 32 +
STACK CFI 5d08 .cfa: sp 32 +
STACK CFI 5d10 .cfa: sp 0 +
STACK CFI 5d14 .cfa: x29 32 +
STACK CFI INIT 6204 134 .cfa: sp 0 +
STACK CFI 6208 .cfa: sp 80 +
STACK CFI 6214 .cfa: x29 32 + x19: .cfa -8 + ^ x20: .cfa -16 + ^ .ra: .cfa -24 + ^ x29: .cfa -32 + ^
STACK CFI 6244 .cfa: sp 80 +
STACK CFI 6250 .cfa: sp 0 +
STACK CFI 6254 .cfa: x29 32 +
STACK CFI INIT 6338 78 .cfa: sp 0 +
STACK CFI 633c .cfa: sp 32 +
STACK CFI 6344 .cfa: x29 32 + x19: .cfa -8 + ^ x20: .cfa -16 + ^ .ra: .cfa -24 + ^ x29: .cfa -32 + ^
STACK CFI 6350 .cfa: sp 32 +
STACK CFI 6358 .cfa: sp 0 +
STACK CFI 635c .cfa: x29 32 +
STACK CFI INIT 63b0 74 .cfa: sp 0 +
STACK CFI 63b4 .cfa: sp 48 +
STACK CFI 63c0 .cfa: x29 32 + x19: .cfa -8 + ^ x20: .cfa -16 + ^ .ra: .cfa -24 + ^ x29: .cfa -32 + ^
STACK CFI 640c .cfa: sp 48 +
STACK CFI 6418 .cfa: sp 0 +
STACK CFI 641c .cfa: x29 32 +
STACK CFI INIT 6488 1ac .cfa: sp 0 +
STACK CFI 648c .cfa: sp 160 +
STACK CFI 64a0 .cfa: x29 64 + x19: .cfa -8 + ^ x20: .cfa -16 + ^ x21: .cfa -24 + ^ x22: .cfa -32 + ^ x23: .cfa -40 + ^ x24: .cfa -48 + ^ .ra: .cfa -56 + ^ x29: .cfa -64 + ^
STACK CFI 6520 .cfa: sp 160 +
STACK CFI 6534 .cfa: sp 0 +
STACK CFI 6538 .cfa: x29 64 +
STACK CFI INIT 6634 110 .cfa: sp 0 +
STACK CFI 6638 .cfa: sp 64 +
STACK CFI 6648 .cfa: x29 48 + x19: .cfa -8 + ^ x20: .cfa -16 + ^ x21: .cfa -24 + ^ x22: .cfa -32 + ^ .ra: .cfa -40 + ^ x29: .cfa -48 + ^
STACK CFI 66fc .cfa: sp 64 +
STACK CFI 670c .cfa: sp 0 +
STACK CFI 6710 .cfa: x29 48 +
STACK CFI INIT 6744 154 .cfa: sp 0 +
STACK CFI 6748 .cfa: sp 384 +
STACK CFI 675c .cfa: x29 64 + x19: .cfa -8 + ^ x20: .cfa -16 + ^ x21: .cfa -24 + ^ x22: .cfa -32 + ^ x23: .cfa -40 + ^ x28: .cfa -48 + ^ .ra: .cfa -56 + ^ x29: .cfa -64 + ^
STACK CFI 6840 .cfa: sp 384 +
STACK CFI 6854 .cfa: sp 0 +
STACK CFI 6858 .cfa: x29 64 +
STACK CFI INIT 6898 168 .cfa: sp 0 +
STACK CFI 689c .cfa: sp 384 +
STACK CFI 68b0 .cfa: x29 64 + x19: .cfa -8 + ^ x20: .cfa -16 + ^ x21: .cfa -24 + ^ x22: .cfa -32 + ^ x23: .cfa -40 + ^ x28: .cfa -48 + ^ .ra: .cfa -56 + ^ x29: .cfa -64 + ^
STACK CFI 69a8 .cfa: sp 384 +
STACK CFI 69bc .cfa: sp 0 +
STACK CFI 69c0 .cfa: x29 64 +
