MODULE Linux arm64 61177FC1BA91A48FBCD2D10C01CB12D90 raydeeux.skipeditorobjects.android64.so
INFO CODE_ID C17F176191BA8FA4BCD2D10C01CB12D9B805F3C1
INFO GENERATOR mozilla/dump_syms 2.3.4
PUBLIC 115f0 0 __on_dlclose
PUBLIC 11600 0 __emutls_unregister_key
PUBLIC 11608 0 __on_dlclose_late
PUBLIC 11610 0 __atexit_handler_wrapper
PUBLIC 11624 0 atexit
PUBLIC 11640 0 pthread_atfork
PUBLIC 11650 0 __aarch64_ldadd8_relax
PUBLIC 11680 0 init_have_lse_atomics
PUBLIC 11718 0 __init_cpu_features_constructor
PUBLIC 11cb4 0 __init_cpu_features
PUBLIC 11d40 0 __aarch64_ldadd8_acq_rel
PUBLIC 11d70 0 geodeExecFunction17<(anonymous namespace)::ExecFuncUnique17>(geode::ModStateEvent*)
PUBLIC 122dc 0 __cxx_global_var_init.1
PUBLIC 12760 0 geode::modifier::ModifyBase<geode::modifier::ModifyDerive<MyEditButtonBar, EditButtonBar> >::~ModifyBase()
PUBLIC 12778 0 __cxx_global_var_init.2
PUBLIC 12bfc 0 geode::modifier::ModifyBase<geode::modifier::ModifyDerive<MyEditorUI, EditorUI> >::~ModifyBase()
PUBLIC 12c14 0 MyButtonSettingV3::parse(std::__ndk1::basic_string<char, std::__ndk1::char_traits<char>, std::__ndk1::allocator<char> > const&, std::__ndk1::basic_string<char, std::__ndk1::char_traits<char>, std::__ndk1::allocator<char> > const&, matjson::Value const&)
PUBLIC 12f98 0 geode::impl::ResultData<void, std::__ndk1::basic_string<char, std::__ndk1::char_traits<char>, std::__ndk1::allocator<char> > >::~ResultData()
PUBLIC 1300c 0 __clang_call_terminate
PUBLIC 1301c 0 std::__ndk1::shared_ptr<geode::SettingV3>::~shared_ptr[abi:ne180000]()
PUBLIC 1306c 0 std::__ndk1::shared_ptr<MyButtonSettingV3>::~shared_ptr[abi:ne180000]()
PUBLIC 130bc 0 std::__throw_bad_array_new_length([abi:ne180000], void)
PUBLIC 130f0 0 std::__ndk1::__shared_ptr_emplace<MyButtonSettingV3, std::__ndk1::allocator<MyButtonSettingV3> >::~__shared_ptr_emplace()
PUBLIC 13100 0 std::__ndk1::__shared_ptr_emplace<MyButtonSettingV3, std::__ndk1::allocator<MyButtonSettingV3> >::~__shared_ptr_emplace()
PUBLIC 13130 0 std::__ndk1::__shared_ptr_emplace<MyButtonSettingV3, std::__ndk1::allocator<MyButtonSettingV3> >::__on_zero_shared()
PUBLIC 1313c 0 std::__ndk1::__shared_ptr_emplace<MyButtonSettingV3, std::__ndk1::allocator<MyButtonSettingV3> >::__on_zero_shared_weak()
PUBLIC 13140 0 std::__ndk1::__throw_bad_variant_access[abi:ne180000]()
PUBLIC 13174 0 geode::UnwrapException::~UnwrapException()
PUBLIC 13198 0 std::__ndk1::basic_string<char, std::__ndk1::char_traits<char>, std::__ndk1::allocator<char> >::__init_copy_ctor_external(char const*, unsigned long)
PUBLIC 13218 0 std::__ndk1::basic_string<char, std::__ndk1::char_traits<char>, std::__ndk1::allocator<char> >::__throw_length_error[abi:ne180000]() const
PUBLIC 1322c 0 std::__ndk1::__throw_length_error[abi:ne180000](char const*)
PUBLIC 1327c 0 std::length_error::length_error[abi:ne180000](char const*)
PUBLIC 132ac 0 std::__ndk1::__function::__base<geode::Result<std::__ndk1::shared_ptr<geode::SettingV3>, std::__ndk1::basic_string<char, std::__ndk1::char_traits<char>, std::__ndk1::allocator<char> > >(std::__ndk1::basic_string<char, std::__ndk1::char_traits<char>, std::__ndk1::allocator<char> > const&, std::__ndk1::basic_string<char, std::__ndk1::char_traits<char>, std::__ndk1::allocator<char> > const&, matjson::Value const&)>::~__base()
PUBLIC 132b0 0 std::__ndk1::__function::__func<geode::Result<std::__ndk1::shared_ptr<geode::SettingV3>, std::__ndk1::basic_string<char, std::__ndk1::char_traits<char>, std::__ndk1::allocator<char> > > (*)(std::__ndk1::basic_string<char, std::__ndk1::char_traits<char>, std::__ndk1::allocator<char> > const&, std::__ndk1::basic_string<char, std::__ndk1::char_traits<char>, std::__ndk1::allocator<char> > const&, matjson::Value const&), std::__ndk1::allocator<geode::Result<std::__ndk1::shared_ptr<geode::SettingV3>, std::__ndk1::basic_string<char, std::__ndk1::char_traits<char>, std::__ndk1::allocator<char> > > (*)(std::__ndk1::basic_string<char, std::__ndk1::char_traits<char>, std::__ndk1::allocator<char> > const&, std::__ndk1::basic_string<char, std::__ndk1::char_traits<char>, std::__ndk1::allocator<char> > const&, matjson::Value const&)>, geode::Result<std::__ndk1::shared_ptr<geode::SettingV3>, std::__ndk1::basic_string<char, std::__ndk1::char_traits<char>, std::__ndk1::allocator<char> > >(std::__ndk1::basic_string<char, std::__ndk1::char_traits<char>, std::__ndk1::allocator<char> > const&, std::__ndk1::basic_string<char, std::__ndk1::char_traits<char>, std::__ndk1::allocator<char> > const&, matjson::Value const&)>::~__func()
PUBLIC 132b4 0 std::__ndk1::__function::__func<geode::Result<std::__ndk1::shared_ptr<geode::SettingV3>, std::__ndk1::basic_string<char, std::__ndk1::char_traits<char>, std::__ndk1::allocator<char> > > (*)(std::__ndk1::basic_string<char, std::__ndk1::char_traits<char>, std::__ndk1::allocator<char> > const&, std::__ndk1::basic_string<char, std::__ndk1::char_traits<char>, std::__ndk1::allocator<char> > const&, matjson::Value const&), std::__ndk1::allocator<geode::Result<std::__ndk1::shared_ptr<geode::SettingV3>, std::__ndk1::basic_string<char, std::__ndk1::char_traits<char>, std::__ndk1::allocator<char> > > (*)(std::__ndk1::basic_string<char, std::__ndk1::char_traits<char>, std::__ndk1::allocator<char> > const&, std::__ndk1::basic_string<char, std::__ndk1::char_traits<char>, std::__ndk1::allocator<char> > const&, matjson::Value const&)>, geode::Result<std::__ndk1::shared_ptr<geode::SettingV3>, std::__ndk1::basic_string<char, std::__ndk1::char_traits<char>, std::__ndk1::allocator<char> > >(std::__ndk1::basic_string<char, std::__ndk1::char_traits<char>, std::__ndk1::allocator<char> > const&, std::__ndk1::basic_string<char, std::__ndk1::char_traits<char>, std::__ndk1::allocator<char> > const&, matjson::Value const&)>::__clone() const
PUBLIC 132e8 0 std::__ndk1::__function::__func<geode::Result<std::__ndk1::shared_ptr<geode::SettingV3>, std::__ndk1::basic_string<char, std::__ndk1::char_traits<char>, std::__ndk1::allocator<char> > > (*)(std::__ndk1::basic_string<char, std::__ndk1::char_traits<char>, std::__ndk1::allocator<char> > const&, std::__ndk1::basic_string<char, std::__ndk1::char_traits<char>, std::__ndk1::allocator<char> > const&, matjson::Value const&), std::__ndk1::allocator<geode::Result<std::__ndk1::shared_ptr<geode::SettingV3>, std::__ndk1::basic_string<char, std::__ndk1::char_traits<char>, std::__ndk1::allocator<char> > > (*)(std::__ndk1::basic_string<char, std::__ndk1::char_traits<char>, std::__ndk1::allocator<char> > const&, std::__ndk1::basic_string<char, std::__ndk1::char_traits<char>, std::__ndk1::allocator<char> > const&, matjson::Value const&)>, geode::Result<std::__ndk1::shared_ptr<geode::SettingV3>, std::__ndk1::basic_string<char, std::__ndk1::char_traits<char>, std::__ndk1::allocator<char> > >(std::__ndk1::basic_string<char, std::__ndk1::char_traits<char>, std::__ndk1::allocator<char> > const&, std::__ndk1::basic_string<char, std::__ndk1::char_traits<char>, std::__ndk1::allocator<char> > const&, matjson::Value const&)>::__clone(std::__ndk1::__function::__base<geode::Result<std::__ndk1::shared_ptr<geode::SettingV3>, std::__ndk1::basic_string<char, std::__ndk1::char_traits<char>, std::__ndk1::allocator<char> > >(std::__ndk1::basic_string<char, std::__ndk1::char_traits<char>, std::__ndk1::allocator<char> > const&, std::__ndk1::basic_string<char, std::__ndk1::char_traits<char>, std::__ndk1::allocator<char> > const&, matjson::Value const&)>*) const
PUBLIC 132fc 0 std::__ndk1::__function::__func<geode::Result<std::__ndk1::shared_ptr<geode::SettingV3>, std::__ndk1::basic_string<char, std::__ndk1::char_traits<char>, std::__ndk1::allocator<char> > > (*)(std::__ndk1::basic_string<char, std::__ndk1::char_traits<char>, std::__ndk1::allocator<char> > const&, std::__ndk1::basic_string<char, std::__ndk1::char_traits<char>, std::__ndk1::allocator<char> > const&, matjson::Value const&), std::__ndk1::allocator<geode::Result<std::__ndk1::shared_ptr<geode::SettingV3>, std::__ndk1::basic_string<char, std::__ndk1::char_traits<char>, std::__ndk1::allocator<char> > > (*)(std::__ndk1::basic_string<char, std::__ndk1::char_traits<char>, std::__ndk1::allocator<char> > const&, std::__ndk1::basic_string<char, std::__ndk1::char_traits<char>, std::__ndk1::allocator<char> > const&, matjson::Value const&)>, geode::Result<std::__ndk1::shared_ptr<geode::SettingV3>, std::__ndk1::basic_string<char, std::__ndk1::char_traits<char>, std::__ndk1::allocator<char> > >(std::__ndk1::basic_string<char, std::__ndk1::char_traits<char>, std::__ndk1::allocator<char> > const&, std::__ndk1::basic_string<char, std::__ndk1::char_traits<char>, std::__ndk1::allocator<char> > const&, matjson::Value const&)>::destroy()
PUBLIC 13300 0 std::__ndk1::__function::__func<geode::Result<std::__ndk1::shared_ptr<geode::SettingV3>, std::__ndk1::basic_string<char, std::__ndk1::char_traits<char>, std::__ndk1::allocator<char> > > (*)(std::__ndk1::basic_string<char, std::__ndk1::char_traits<char>, std::__ndk1::allocator<char> > const&, std::__ndk1::basic_string<char, std::__ndk1::char_traits<char>, std::__ndk1::allocator<char> > const&, matjson::Value const&), std::__ndk1::allocator<geode::Result<std::__ndk1::shared_ptr<geode::SettingV3>, std::__ndk1::basic_string<char, std::__ndk1::char_traits<char>, std::__ndk1::allocator<char> > > (*)(std::__ndk1::basic_string<char, std::__ndk1::char_traits<char>, std::__ndk1::allocator<char> > const&, std::__ndk1::basic_string<char, std::__ndk1::char_traits<char>, std::__ndk1::allocator<char> > const&, matjson::Value const&)>, geode::Result<std::__ndk1::shared_ptr<geode::SettingV3>, std::__ndk1::basic_string<char, std::__ndk1::char_traits<char>, std::__ndk1::allocator<char> > >(std::__ndk1::basic_string<char, std::__ndk1::char_traits<char>, std::__ndk1::allocator<char> > const&, std::__ndk1::basic_string<char, std::__ndk1::char_traits<char>, std::__ndk1::allocator<char> > const&, matjson::Value const&)>::destroy_deallocate()
PUBLIC 13304 0 std::__ndk1::__function::__func<geode::Result<std::__ndk1::shared_ptr<geode::SettingV3>, std::__ndk1::basic_string<char, std::__ndk1::char_traits<char>, std::__ndk1::allocator<char> > > (*)(std::__ndk1::basic_string<char, std::__ndk1::char_traits<char>, std::__ndk1::allocator<char> > const&, std::__ndk1::basic_string<char, std::__ndk1::char_traits<char>, std::__ndk1::allocator<char> > const&, matjson::Value const&), std::__ndk1::allocator<geode::Result<std::__ndk1::shared_ptr<geode::SettingV3>, std::__ndk1::basic_string<char, std::__ndk1::char_traits<char>, std::__ndk1::allocator<char> > > (*)(std::__ndk1::basic_string<char, std::__ndk1::char_traits<char>, std::__ndk1::allocator<char> > const&, std::__ndk1::basic_string<char, std::__ndk1::char_traits<char>, std::__ndk1::allocator<char> > const&, matjson::Value const&)>, geode::Result<std::__ndk1::shared_ptr<geode::SettingV3>, std::__ndk1::basic_string<char, std::__ndk1::char_traits<char>, std::__ndk1::allocator<char> > >(std::__ndk1::basic_string<char, std::__ndk1::char_traits<char>, std::__ndk1::allocator<char> > const&, std::__ndk1::basic_string<char, std::__ndk1::char_traits<char>, std::__ndk1::allocator<char> > const&, matjson::Value const&)>::operator()(std::__ndk1::basic_string<char, std::__ndk1::char_traits<char>, std::__ndk1::allocator<char> > const&, std::__ndk1::basic_string<char, std::__ndk1::char_traits<char>, std::__ndk1::allocator<char> > const&, matjson::Value const&)
PUBLIC 13318 0 std::__ndk1::__function::__func<geode::Result<std::__ndk1::shared_ptr<geode::SettingV3>, std::__ndk1::basic_string<char, std::__ndk1::char_traits<char>, std::__ndk1::allocator<char> > > (*)(std::__ndk1::basic_string<char, std::__ndk1::char_traits<char>, std::__ndk1::allocator<char> > const&, std::__ndk1::basic_string<char, std::__ndk1::char_traits<char>, std::__ndk1::allocator<char> > const&, matjson::Value const&), std::__ndk1::allocator<geode::Result<std::__ndk1::shared_ptr<geode::SettingV3>, std::__ndk1::basic_string<char, std::__ndk1::char_traits<char>, std::__ndk1::allocator<char> > > (*)(std::__ndk1::basic_string<char, std::__ndk1::char_traits<char>, std::__ndk1::allocator<char> > const&, std::__ndk1::basic_string<char, std::__ndk1::char_traits<char>, std::__ndk1::allocator<char> > const&, matjson::Value const&)>, geode::Result<std::__ndk1::shared_ptr<geode::SettingV3>, std::__ndk1::basic_string<char, std::__ndk1::char_traits<char>, std::__ndk1::allocator<char> > >(std::__ndk1::basic_string<char, std::__ndk1::char_traits<char>, std::__ndk1::allocator<char> > const&, std::__ndk1::basic_string<char, std::__ndk1::char_traits<char>, std::__ndk1::allocator<char> > const&, matjson::Value const&)>::target(std::type_info const&) const
PUBLIC 13334 0 std::__ndk1::__function::__func<geode::Result<std::__ndk1::shared_ptr<geode::SettingV3>, std::__ndk1::basic_string<char, std::__ndk1::char_traits<char>, std::__ndk1::allocator<char> > > (*)(std::__ndk1::basic_string<char, std::__ndk1::char_traits<char>, std::__ndk1::allocator<char> > const&, std::__ndk1::basic_string<char, std::__ndk1::char_traits<char>, std::__ndk1::allocator<char> > const&, matjson::Value const&), std::__ndk1::allocator<geode::Result<std::__ndk1::shared_ptr<geode::SettingV3>, std::__ndk1::basic_string<char, std::__ndk1::char_traits<char>, std::__ndk1::allocator<char> > > (*)(std::__ndk1::basic_string<char, std::__ndk1::char_traits<char>, std::__ndk1::allocator<char> > const&, std::__ndk1::basic_string<char, std::__ndk1::char_traits<char>, std::__ndk1::allocator<char> > const&, matjson::Value const&)>, geode::Result<std::__ndk1::shared_ptr<geode::SettingV3>, std::__ndk1::basic_string<char, std::__ndk1::char_traits<char>, std::__ndk1::allocator<char> > >(std::__ndk1::basic_string<char, std::__ndk1::char_traits<char>, std::__ndk1::allocator<char> > const&, std::__ndk1::basic_string<char, std::__ndk1::char_traits<char>, std::__ndk1::allocator<char> > const&, matjson::Value const&)>::target_type() const
PUBLIC 13340 0 std::__ndk1::__variant_detail::__visitation::__base::__dispatcher<(unsigned long)0>::__dispatch[abi:ne180000]<std::__ndk1::__variant_detail::__dtor<std::__ndk1::__variant_detail::__traits<std::__ndk1::monostate, std::__ndk1::basic_string<char, std::__ndk1::char_traits<char>, std::__ndk1::allocator<char> > >, (std::__ndk1::__variant_detail::_Trait)1>::__destroy[abi:ne180000]()::{lambda(auto:1&)#1}, std::__ndk1::__variant_detail::__base<(std::__ndk1::__variant_detail::__traits<std::__ndk1::monostate, std::__ndk1::basic_string<char, std::__ndk1::char_traits<char>, std::__ndk1::allocator<char> > >)1, std::__ndk1::__variant_detail::__traits, std::__ndk1::allocator<char> >&>(std::__ndk1::__variant_detail::__dtor<std::__ndk1::__variant_detail::__traits<std::__ndk1::monostate, std::__ndk1::basic_string<char, std::__ndk1::char_traits<char>, std::__ndk1::allocator<char> > >, (std::__ndk1::__variant_detail::_Trait)1>, std::__ndk1::__variant_detail::__base<(std::__ndk1::__variant_detail::__traits<std::__ndk1::monostate, std::__ndk1::basic_string<char, std::__ndk1::char_traits<char>, std::__ndk1::allocator<char> > >)1, std::__ndk1::__variant_detail::__traits, std::__ndk1::allocator<char> >&)
PUBLIC 13344 0 std::__ndk1::__variant_detail::__visitation::__base::__dispatcher<(unsigned long)1>::__dispatch[abi:ne180000]<std::__ndk1::__variant_detail::__dtor<std::__ndk1::__variant_detail::__traits<std::__ndk1::monostate, std::__ndk1::basic_string<char, std::__ndk1::char_traits<char>, std::__ndk1::allocator<char> > >, (std::__ndk1::__variant_detail::_Trait)1>::__destroy[abi:ne180000]()::{lambda(auto:1&)#1}, std::__ndk1::__variant_detail::__base<(std::__ndk1::__variant_detail::__traits<std::__ndk1::monostate, std::__ndk1::basic_string<char, std::__ndk1::char_traits<char>, std::__ndk1::allocator<char> > >)1, std::__ndk1::__variant_detail::__traits, std::__ndk1::allocator<char> >&>(std::__ndk1::__variant_detail::__dtor<std::__ndk1::__variant_detail::__traits<std::__ndk1::monostate, std::__ndk1::basic_string<char, std::__ndk1::char_traits<char>, std::__ndk1::allocator<char> > >, (std::__ndk1::__variant_detail::_Trait)1>, std::__ndk1::__variant_detail::__base<(std::__ndk1::__variant_detail::__traits<std::__ndk1::monostate, std::__ndk1::basic_string<char, std::__ndk1::char_traits<char>, std::__ndk1::allocator<char> > >)1, std::__ndk1::__variant_detail::__traits, std::__ndk1::allocator<char> >&)
PUBLIC 13358 0 std::__ndk1::__fs::filesystem::path::operator/=[abi:ne180000](std::__ndk1::__fs::filesystem::path const&)
PUBLIC 13440 0 std::__ndk1::basic_string<char, std::__ndk1::char_traits<char>, std::__ndk1::allocator<char> >::__assign_no_alias<true>(char const*, unsigned long)
PUBLIC 134ec 0 std::__ndk1::basic_string<char, std::__ndk1::char_traits<char>, std::__ndk1::allocator<char> >::__assign_no_alias<false>(char const*, unsigned long)
PUBLIC 135fc 0 _ZNSt6__ndk112basic_stringIcNS_11char_traitsIcEENS_9allocatorIcEEE6appendB8ne180000IPKcTnNS_9enable_ifIXsr31__has_forward_iterator_categoryIT_EE5valueEiE4typeELi0EEERS5_SA_SA_
PUBLIC 13900 0 geode::EventListener<geode::ModStateFilter>::getPool() const
PUBLIC 13904 0 geode::EventListener<geode::ModStateFilter>::handle(geode::Event*)
PUBLIC 13a68 0 geode::EventListener<geode::ModStateFilter>::~EventListener()
PUBLIC 13ac4 0 geode::EventListener<geode::ModStateFilter>::~EventListener()
PUBLIC 13b28 0 std::__ndk1::__function::__base<void (geode::ModStateEvent*)>::~__base()
PUBLIC 13b2c 0 std::__ndk1::__function::__func<void (*)(geode::ModStateEvent*), std::__ndk1::allocator<void (*)(geode::ModStateEvent*)>, void (geode::ModStateEvent*)>::~__func()
PUBLIC 13b30 0 std::__ndk1::__function::__func<void (*)(geode::ModStateEvent*), std::__ndk1::allocator<void (*)(geode::ModStateEvent*)>, void (geode::ModStateEvent*)>::__clone() const
PUBLIC 13b64 0 std::__ndk1::__function::__func<void (*)(geode::ModStateEvent*), std::__ndk1::allocator<void (*)(geode::ModStateEvent*)>, void (geode::ModStateEvent*)>::__clone(std::__ndk1::__function::__base<void (geode::ModStateEvent*)>*) const
PUBLIC 13b78 0 std::__ndk1::__function::__func<void (*)(geode::ModStateEvent*), std::__ndk1::allocator<void (*)(geode::ModStateEvent*)>, void (geode::ModStateEvent*)>::destroy()
PUBLIC 13b7c 0 std::__ndk1::__function::__func<void (*)(geode::ModStateEvent*), std::__ndk1::allocator<void (*)(geode::ModStateEvent*)>, void (geode::ModStateEvent*)>::destroy_deallocate()
PUBLIC 13b80 0 std::__ndk1::__function::__func<void (*)(geode::ModStateEvent*), std::__ndk1::allocator<void (*)(geode::ModStateEvent*)>, void (geode::ModStateEvent*)>::operator()(geode::ModStateEvent*&&)
PUBLIC 13b90 0 std::__ndk1::__function::__func<void (*)(geode::ModStateEvent*), std::__ndk1::allocator<void (*)(geode::ModStateEvent*)>, void (geode::ModStateEvent*)>::target(std::type_info const&) const
PUBLIC 13bac 0 std::__ndk1::__function::__func<void (*)(geode::ModStateEvent*), std::__ndk1::allocator<void (*)(geode::ModStateEvent*)>, void (geode::ModStateEvent*)>::target_type() const
PUBLIC 13bb8 0 geode::cast::traverseTypeinfoFor(void*, geode::cast::ClassTypeinfoType const*, char const*)
PUBLIC 13cb0 0 geode::modifier::ModifyDerive<MyEditButtonBar, EditButtonBar>::apply()
PUBLIC 140b4 0 std::__ndk1::shared_ptr<geode::Hook>::~shared_ptr[abi:ne180000]()
PUBLIC 14104 0 geode::impl::ResultData<geode::Hook*, std::__ndk1::basic_string<char, std::__ndk1::char_traits<char>, std::__ndk1::allocator<char> > >::~ResultData()
PUBLIC 14178 0 std::__ndk1::vector<std::__ndk1::basic_string<char, std::__ndk1::char_traits<char>, std::__ndk1::allocator<char> >, std::__ndk1::allocator<std::__ndk1::basic_string<char, std::__ndk1::char_traits<char>, std::__ndk1::allocator<char> > > >::~vector[abi:ne180000]()
PUBLIC 141f4 0 geode::modifier::ModifyBase<geode::modifier::ModifyDerive<MyEditButtonBar, EditButtonBar> >::apply()
PUBLIC 141f8 0 _ZN5geode15UnwrapExceptionC2IRPNS_4HookEQsr4implE18IsStringStreamableIT_EEENS_4impl5OkTagEOS5_
PUBLIC 1434c 0 std::__ndk1::basic_stringstream<char, std::__ndk1::char_traits<char>, std::__ndk1::allocator<char> >::basic_stringstream[abi:ne180000]()
PUBLIC m 14478 0 std::__ndk1::basic_stringstream<char, std::__ndk1::char_traits<char>, std::__ndk1::allocator<char> >::~basic_stringstream()
PUBLIC 144f8 0 std::__ndk1::__put_character_sequence[abi:ne180000]<char, std::__ndk1::char_traits<char> >(std::__ndk1::basic_ostream<char, std::__ndk1::char_traits<char> >, std::__ndk1::basic_ostream const*, unsigned long)
PUBLIC 1469c 0 std::__ndk1::__pad_and_output[abi:ne180000]<char, std::__ndk1::char_traits<char> >(std::__ndk1::char_traits<char>, std::__ndk1::ostreambuf_iterator const*, std::__ndk1::ostreambuf_iterator const, std::__ndk1::ostreambuf_iterator const, std::__ndk1::ios_base&, std::__ndk1::ostreambuf_iterator)
PUBLIC 14878 0 std::__ndk1::basic_stringbuf<char, std::__ndk1::char_traits<char>, std::__ndk1::allocator<char> >::str[abi:ne180000]() &&
PUBLIC 149f0 0 std::__ndk1::basic_stringbuf<char, std::__ndk1::char_traits<char>, std::__ndk1::allocator<char> >::__init_buf_ptrs[abi:ne180000]()
PUBLIC 14b38 0 std::__ndk1::vector<std::__ndk1::basic_string<char, std::__ndk1::char_traits<char>, std::__ndk1::allocator<char> >, std::__ndk1::allocator<std::__ndk1::basic_string<char, std::__ndk1::char_traits<char>, std::__ndk1::allocator<char> > > >::__push_back_slow_path<std::__ndk1::basic_string<char, std::__ndk1::char_traits<char>, std::__ndk1::allocator<char> > const&>(std::__ndk1::basic_string<char, std::__ndk1::char_traits<char>, std::__ndk1::allocator<char> > const&)
PUBLIC 14d60 0 std::__ndk1::__split_buffer<std::__ndk1::basic_string<char, std::__ndk1::char_traits<char>, std::__ndk1::allocator<char> >, std::__ndk1::allocator<std::__ndk1::basic_string<char, std::__ndk1::char_traits<char>, std::__ndk1::allocator<char> > >&>::~__split_buffer()
PUBLIC 14dc8 0 std::__ndk1::vector<std::__ndk1::basic_string<char, std::__ndk1::char_traits<char>, std::__ndk1::allocator<char> >, std::__ndk1::allocator<std::__ndk1::basic_string<char, std::__ndk1::char_traits<char>, std::__ndk1::allocator<char> > > >::__throw_length_error[abi:ne180000]() const
PUBLIC 14ddc 0 std::__ndk1::__variant_detail::__visitation::__base::__dispatcher<(unsigned long)0>::__dispatch[abi:ne180000]<std::__ndk1::__variant_detail::__dtor<std::__ndk1::__variant_detail::__traits<geode::Hook*, std::__ndk1::basic_string<char, std::__ndk1::char_traits<char>, std::__ndk1::allocator<char> > >, (std::__ndk1::__variant_detail::_Trait)1>::__destroy[abi:ne180000]()::{lambda(auto:1&)#1}, std::__ndk1::__variant_detail::__base<(std::__ndk1::__variant_detail::__traits<geode::Hook*, std::__ndk1::basic_string<char, std::__ndk1::char_traits<char>, std::__ndk1::allocator<char> > >)1, geode::Hook, std::__ndk1::allocator<char> >&>(std::__ndk1::__variant_detail::__dtor<std::__ndk1::__variant_detail::__traits<geode::Hook*, std::__ndk1::basic_string<char, std::__ndk1::char_traits<char>, std::__ndk1::allocator<char> > >, (std::__ndk1::__variant_detail::_Trait)1>, std::__ndk1::__variant_detail::__base<(std::__ndk1::__variant_detail::__traits<geode::Hook*, std::__ndk1::basic_string<char, std::__ndk1::char_traits<char>, std::__ndk1::allocator<char> > >)1, geode::Hook, std::__ndk1::allocator<char> >&)
PUBLIC 14de0 0 std::__ndk1::__variant_detail::__visitation::__base::__dispatcher<(unsigned long)1>::__dispatch[abi:ne180000]<std::__ndk1::__variant_detail::__dtor<std::__ndk1::__variant_detail::__traits<geode::Hook*, std::__ndk1::basic_string<char, std::__ndk1::char_traits<char>, std::__ndk1::allocator<char> > >, (std::__ndk1::__variant_detail::_Trait)1>::__destroy[abi:ne180000]()::{lambda(auto:1&)#1}, std::__ndk1::__variant_detail::__base<(std::__ndk1::__variant_detail::__traits<geode::Hook*, std::__ndk1::basic_string<char, std::__ndk1::char_traits<char>, std::__ndk1::allocator<char> > >)1, geode::Hook, std::__ndk1::allocator<char> >&>(std::__ndk1::__variant_detail::__dtor<std::__ndk1::__variant_detail::__traits<geode::Hook*, std::__ndk1::basic_string<char, std::__ndk1::char_traits<char>, std::__ndk1::allocator<char> > >, (std::__ndk1::__variant_detail::_Trait)1>, std::__ndk1::__variant_detail::__base<(std::__ndk1::__variant_detail::__traits<geode::Hook*, std::__ndk1::basic_string<char, std::__ndk1::char_traits<char>, std::__ndk1::allocator<char> > >)1, geode::Hook, std::__ndk1::allocator<char> >&)
PUBLIC 14df4 0 std::__ndk1::__tree<std::__ndk1::__value_type<std::__ndk1::basic_string<char, std::__ndk1::char_traits<char>, std::__ndk1::allocator<char> >, std::__ndk1::shared_ptr<geode::Hook> >, std::__ndk1::__map_value_compare<std::__ndk1::basic_string<char, std::__ndk1::char_traits<char>, std::__ndk1::allocator<char> >, std::__ndk1::__value_type<std::__ndk1::basic_string<char, std::__ndk1::char_traits<char>, std::__ndk1::allocator<char> >, std::__ndk1::shared_ptr<geode::Hook> >, std::__ndk1::less<std::__ndk1::basic_string<char, std::__ndk1::char_traits<char>, std::__ndk1::allocator<char> > >, true>, std::__ndk1::allocator<std::__ndk1::__value_type<std::__ndk1::basic_string<char, std::__ndk1::char_traits<char>, std::__ndk1::allocator<char> >, std::__ndk1::shared_ptr<geode::Hook> > > >::find<std::__ndk1::basic_string<char, std::__ndk1::char_traits<char>, std::__ndk1::allocator<char> > >(std::__ndk1::basic_string<char, std::__ndk1::char_traits<char>, std::__ndk1::allocator<char> > const&)
PUBLIC 14f14 0 std::__ndk1::__tree<std::__ndk1::__value_type<std::__ndk1::basic_string<char, std::__ndk1::char_traits<char>, std::__ndk1::allocator<char> >, std::__ndk1::shared_ptr<geode::Hook> >, std::__ndk1::__map_value_compare<std::__ndk1::basic_string<char, std::__ndk1::char_traits<char>, std::__ndk1::allocator<char> >, std::__ndk1::__value_type<std::__ndk1::basic_string<char, std::__ndk1::char_traits<char>, std::__ndk1::allocator<char> >, std::__ndk1::shared_ptr<geode::Hook> >, std::__ndk1::less<std::__ndk1::basic_string<char, std::__ndk1::char_traits<char>, std::__ndk1::allocator<char> > >, true>, std::__ndk1::allocator<std::__ndk1::__value_type<std::__ndk1::basic_string<char, std::__ndk1::char_traits<char>, std::__ndk1::allocator<char> >, std::__ndk1::shared_ptr<geode::Hook> > > >::erase(std::__ndk1::__tree_const_iterator<std::__ndk1::__value_type<std::__ndk1::basic_string<char, std::__ndk1::char_traits<char>, std::__ndk1::allocator<char> >, std::__ndk1::shared_ptr<geode::Hook> >, std::__ndk1::__tree_node<std::__ndk1::__value_type<std::__ndk1::basic_string<char, std::__ndk1::char_traits<char>, std::__ndk1::allocator<char> >, std::__ndk1::shared_ptr<geode::Hook> >, void*>*, long>)
PUBLIC 153b8 0 std::__ndk1::__tree<std::__ndk1::__value_type<std::__ndk1::basic_string<char, std::__ndk1::char_traits<char>, std::__ndk1::allocator<char> >, std::__ndk1::shared_ptr<geode::Hook> >, std::__ndk1::__map_value_compare<std::__ndk1::basic_string<char, std::__ndk1::char_traits<char>, std::__ndk1::allocator<char> >, std::__ndk1::__value_type<std::__ndk1::basic_string<char, std::__ndk1::char_traits<char>, std::__ndk1::allocator<char> >, std::__ndk1::shared_ptr<geode::Hook> >, std::__ndk1::less<std::__ndk1::basic_string<char, std::__ndk1::char_traits<char>, std::__ndk1::allocator<char> > >, true>, std::__ndk1::allocator<std::__ndk1::__value_type<std::__ndk1::basic_string<char, std::__ndk1::char_traits<char>, std::__ndk1::allocator<char> >, std::__ndk1::shared_ptr<geode::Hook> > > >::destroy(std::__ndk1::__tree_node<std::__ndk1::__value_type<std::__ndk1::basic_string<char, std::__ndk1::char_traits<char>, std::__ndk1::allocator<char> >, std::__ndk1::shared_ptr<geode::Hook> >, void*>*)
PUBLIC 1543c 0 geode::modifier::AsStaticFunction_loadFromItems<MyEditButtonBar, void (MyEditButtonBar::*)(cocos2d::CCArray*, int, int, bool)>::Impl<void (MyEditButtonBar::*)(cocos2d::CCArray*, int, int, bool)>::function(MyEditButtonBar*, cocos2d::CCArray*, int, int, bool)
PUBLIC 15978 0 std::__ndk1::shared_ptr<tulip::hook::CallingConvention>::~shared_ptr[abi:ne180000]()
PUBLIC 159c8 0 tulip::hook::HandlerMetadata::~HandlerMetadata()
PUBLIC 15a2c 0 std::__ndk1::vector<tulip::hook::AbstractType, std::__ndk1::allocator<tulip::hook::AbstractType> >::__throw_length_error[abi:ne180000]() const
PUBLIC 15a40 0 geode::Mod::getSettingValue<bool>(std::__ndk1::basic_string_view<char, std::__ndk1::char_traits<char> >) const
PUBLIC 15b7c 0 std::__ndk1::shared_ptr<geode::BoolSettingV3>::~shared_ptr[abi:ne180000]()
PUBLIC 15bcc 0 std::__ndk1::__tree<std::__ndk1::__value_type<std::__ndk1::basic_string<char, std::__ndk1::char_traits<char>, std::__ndk1::allocator<char> >, std::__ndk1::shared_ptr<geode::Hook> >, std::__ndk1::__map_value_compare<std::__ndk1::basic_string<char, std::__ndk1::char_traits<char>, std::__ndk1::allocator<char> >, std::__ndk1::__value_type<std::__ndk1::basic_string<char, std::__ndk1::char_traits<char>, std::__ndk1::allocator<char> >, std::__ndk1::shared_ptr<geode::Hook> >, std::__ndk1::less<std::__ndk1::basic_string<char, std::__ndk1::char_traits<char>, std::__ndk1::allocator<char> > >, true>, std::__ndk1::allocator<std::__ndk1::__value_type<std::__ndk1::basic_string<char, std::__ndk1::char_traits<char>, std::__ndk1::allocator<char> >, std::__ndk1::shared_ptr<geode::Hook> > > >::__emplace_unique_key_args<std::__ndk1::basic_string<char, std::__ndk1::char_traits<char>, std::__ndk1::allocator<char> >, std::__ndk1::piecewise_construct_t const&, std::__ndk1::tuple<std::__ndk1::basic_string<char, std::__ndk1::char_traits<char>, std::__ndk1::allocator<char> >&&>, std::__ndk1::tuple<> >(std::__ndk1::basic_string<char, std::__ndk1::char_traits<char>, std::__ndk1::allocator<char> > const&, std::__ndk1::piecewise_construct_t const&, std::__ndk1::tuple<std::__ndk1::basic_string<char, std::__ndk1::char_traits<char>, std::__ndk1::allocator<char> >&&>, std::__ndk1::tuple<>)
PUBLIC 15d34 0 std::__ndk1::__tree_balance_after_insert[abi:ne180000]<std::__ndk1::__tree_node_base<void*>*>(std::__ndk1::__tree_node_base<void*>*, std::__ndk1::__tree_node_base<void*>*)
PUBLIC 15ee4 0 geode::modifier::ModifyDerive<MyEditorUI, EditorUI>::apply()
PUBLIC 16538 0 geode::modifier::ModifyBase<geode::modifier::ModifyDerive<MyEditorUI, EditorUI> >::apply()
PUBLIC 1653c 0 geode::modifier::AsStaticFunction_getCreateBtn<MyEditorUI, CreateMenuItem* (MyEditorUI::*)(int, int)>::Impl<CreateMenuItem* (MyEditorUI::*)(int, int)>::function(MyEditorUI*, int, int)
PUBLIC 16700 0 geode::modifier::AsStaticFunction_toggleMode<MyEditorUI, void (MyEditorUI::*)(cocos2d::CCObject*)>::Impl<void (MyEditorUI::*)(cocos2d::CCObject*)>::function(MyEditorUI*, cocos2d::CCObject*)
PUBLIC 169d4 0 geode::Mod::getSavedValue<bool>(std::__ndk1::basic_string_view<char, std::__ndk1::char_traits<char> >)
PUBLIC 16b64 0 geode::impl::ResultData<matjson::Value&, std::__ndk1::basic_string<char, std::__ndk1::char_traits<char>, std::__ndk1::allocator<char> > >::~ResultData()
PUBLIC 16bd8 0 std::__ndk1::__variant_detail::__visitation::__base::__dispatcher<(unsigned long)0>::__dispatch[abi:ne180000]<std::__ndk1::__variant_detail::__dtor<std::__ndk1::__variant_detail::__traits<std::__ndk1::reference_wrapper<matjson::Value>, std::__ndk1::basic_string<char, std::__ndk1::char_traits<char>, std::__ndk1::allocator<char> > >, (std::__ndk1::__variant_detail::_Trait)1>::__destroy[abi:ne180000]()::{lambda(auto:1&)#1}, std::__ndk1::__variant_detail::__base<(std::__ndk1::__variant_detail::__traits<std::__ndk1::reference_wrapper<matjson::Value>, std::__ndk1::basic_string<char, std::__ndk1::char_traits<char>, std::__ndk1::allocator<char> > >)1, matjson::Value, std::__ndk1::allocator<char> >&>(std::__ndk1::__variant_detail::__dtor<std::__ndk1::__variant_detail::__traits<std::__ndk1::reference_wrapper<matjson::Value>, std::__ndk1::basic_string<char, std::__ndk1::char_traits<char>, std::__ndk1::allocator<char> > >, (std::__ndk1::__variant_detail::_Trait)1>, std::__ndk1::__variant_detail::__base<(std::__ndk1::__variant_detail::__traits<std::__ndk1::reference_wrapper<matjson::Value>, std::__ndk1::basic_string<char, std::__ndk1::char_traits<char>, std::__ndk1::allocator<char> > >)1, matjson::Value, std::__ndk1::allocator<char> >&)
PUBLIC 16bdc 0 std::__ndk1::__variant_detail::__visitation::__base::__dispatcher<(unsigned long)1>::__dispatch[abi:ne180000]<std::__ndk1::__variant_detail::__dtor<std::__ndk1::__variant_detail::__traits<std::__ndk1::reference_wrapper<matjson::Value>, std::__ndk1::basic_string<char, std::__ndk1::char_traits<char>, std::__ndk1::allocator<char> > >, (std::__ndk1::__variant_detail::_Trait)1>::__destroy[abi:ne180000]()::{lambda(auto:1&)#1}, std::__ndk1::__variant_detail::__base<(std::__ndk1::__variant_detail::__traits<std::__ndk1::reference_wrapper<matjson::Value>, std::__ndk1::basic_string<char, std::__ndk1::char_traits<char>, std::__ndk1::allocator<char> > >)1, matjson::Value, std::__ndk1::allocator<char> >&>(std::__ndk1::__variant_detail::__dtor<std::__ndk1::__variant_detail::__traits<std::__ndk1::reference_wrapper<matjson::Value>, std::__ndk1::basic_string<char, std::__ndk1::char_traits<char>, std::__ndk1::allocator<char> > >, (std::__ndk1::__variant_detail::_Trait)1>, std::__ndk1::__variant_detail::__base<(std::__ndk1::__variant_detail::__traits<std::__ndk1::reference_wrapper<matjson::Value>, std::__ndk1::basic_string<char, std::__ndk1::char_traits<char>, std::__ndk1::allocator<char> > >)1, matjson::Value, std::__ndk1::allocator<char> >&)
PUBLIC 16bf0 0 std::__ndk1::__variant_detail::__visitation::__base::__dispatcher<(unsigned long)0>::__dispatch[abi:ne180000]<std::__ndk1::__variant_detail::__dtor<std::__ndk1::__variant_detail::__traits<bool, std::__ndk1::basic_string<char, std::__ndk1::char_traits<char>, std::__ndk1::allocator<char> > >, (std::__ndk1::__variant_detail::_Trait)1>::__destroy[abi:ne180000]()::{lambda(auto:1&)#1}, std::__ndk1::__variant_detail::__base<(std::__ndk1::__variant_detail::__traits<bool, std::__ndk1::basic_string<char, std::__ndk1::char_traits<char>, std::__ndk1::allocator<char> > >)1, bool, std::__ndk1::allocator<char> >&>(std::__ndk1::__variant_detail::__dtor<std::__ndk1::__variant_detail::__traits<bool, std::__ndk1::basic_string<char, std::__ndk1::char_traits<char>, std::__ndk1::allocator<char> > >, (std::__ndk1::__variant_detail::_Trait)1>, std::__ndk1::__variant_detail::__base<(std::__ndk1::__variant_detail::__traits<bool, std::__ndk1::basic_string<char, std::__ndk1::char_traits<char>, std::__ndk1::allocator<char> > >)1, bool, std::__ndk1::allocator<char> >&)
PUBLIC 16bf4 0 std::__ndk1::__variant_detail::__visitation::__base::__dispatcher<(unsigned long)1>::__dispatch[abi:ne180000]<std::__ndk1::__variant_detail::__dtor<std::__ndk1::__variant_detail::__traits<bool, std::__ndk1::basic_string<char, std::__ndk1::char_traits<char>, std::__ndk1::allocator<char> > >, (std::__ndk1::__variant_detail::_Trait)1>::__destroy[abi:ne180000]()::{lambda(auto:1&)#1}, std::__ndk1::__variant_detail::__base<(std::__ndk1::__variant_detail::__traits<bool, std::__ndk1::basic_string<char, std::__ndk1::char_traits<char>, std::__ndk1::allocator<char> > >)1, bool, std::__ndk1::allocator<char> >&>(std::__ndk1::__variant_detail::__dtor<std::__ndk1::__variant_detail::__traits<bool, std::__ndk1::basic_string<char, std::__ndk1::char_traits<char>, std::__ndk1::allocator<char> > >, (std::__ndk1::__variant_detail::_Trait)1>, std::__ndk1::__variant_detail::__base<(std::__ndk1::__variant_detail::__traits<bool, std::__ndk1::basic_string<char, std::__ndk1::char_traits<char>, std::__ndk1::allocator<char> > >)1, bool, std::__ndk1::allocator<char> >&)
PUBLIC 16c08 0 std::__ndk1::__function::__base<void (FLAlertLayer*, bool)>::~__base()
PUBLIC 16c0c 0 std::__ndk1::__function::__func<MyEditorUI::toggleMode(cocos2d::CCObject*)::{lambda(FLAlertLayer*, bool)#1}, std::__ndk1::allocator<MyEditorUI::toggleMode(cocos2d::CCObject*)::{lambda(FLAlertLayer*, bool)#1}>, void (FLAlertLayer*, bool)>::~__func()
PUBLIC 16c10 0 std::__ndk1::__function::__func<MyEditorUI::toggleMode(cocos2d::CCObject*)::{lambda(FLAlertLayer*, bool)#1}, std::__ndk1::allocator<MyEditorUI::toggleMode(cocos2d::CCObject*)::{lambda(FLAlertLayer*, bool)#1}>, void (FLAlertLayer*, bool)>::__clone() const
PUBLIC 16c34 0 std::__ndk1::__function::__func<MyEditorUI::toggleMode(cocos2d::CCObject*)::{lambda(FLAlertLayer*, bool)#1}, std::__ndk1::allocator<MyEditorUI::toggleMode(cocos2d::CCObject*)::{lambda(FLAlertLayer*, bool)#1}>, void (FLAlertLayer*, bool)>::__clone(std::__ndk1::__function::__base<void (FLAlertLayer*, bool)>*) const
PUBLIC 16c44 0 std::__ndk1::__function::__func<MyEditorUI::toggleMode(cocos2d::CCObject*)::{lambda(FLAlertLayer*, bool)#1}, std::__ndk1::allocator<MyEditorUI::toggleMode(cocos2d::CCObject*)::{lambda(FLAlertLayer*, bool)#1}>, void (FLAlertLayer*, bool)>::destroy()
PUBLIC 16c48 0 std::__ndk1::__function::__func<MyEditorUI::toggleMode(cocos2d::CCObject*)::{lambda(FLAlertLayer*, bool)#1}, std::__ndk1::allocator<MyEditorUI::toggleMode(cocos2d::CCObject*)::{lambda(FLAlertLayer*, bool)#1}>, void (FLAlertLayer*, bool)>::destroy_deallocate()
PUBLIC 16c4c 0 std::__ndk1::__function::__func<MyEditorUI::toggleMode(cocos2d::CCObject*)::{lambda(FLAlertLayer*, bool)#1}, std::__ndk1::allocator<MyEditorUI::toggleMode(cocos2d::CCObject*)::{lambda(FLAlertLayer*, bool)#1}>, void (FLAlertLayer*, bool)>::operator()(FLAlertLayer*&&, bool&&)
PUBLIC 16d1c 0 std::__ndk1::__function::__func<MyEditorUI::toggleMode(cocos2d::CCObject*)::{lambda(FLAlertLayer*, bool)#1}, std::__ndk1::allocator<MyEditorUI::toggleMode(cocos2d::CCObject*)::{lambda(FLAlertLayer*, bool)#1}>, void (FLAlertLayer*, bool)>::target(std::type_info const&) const
PUBLIC 16d38 0 std::__ndk1::__function::__func<MyEditorUI::toggleMode(cocos2d::CCObject*)::{lambda(FLAlertLayer*, bool)#1}, std::__ndk1::allocator<MyEditorUI::toggleMode(cocos2d::CCObject*)::{lambda(FLAlertLayer*, bool)#1}>, void (FLAlertLayer*, bool)>::target_type() const
PUBLIC 16d44 0 _GLOBAL__sub_I_main.cpp
PUBLIC 16e70 0 MyButtonSettingV3::createNode(float)
PUBLIC 174a8 0 MyButtonSettingV3::~MyButtonSettingV3()
PUBLIC 174cc 0 MyButtonSettingV3::load(matjson::Value const&)
PUBLIC 174d4 0 MyButtonSettingV3::save(matjson::Value&) const
PUBLIC 174dc 0 MyButtonSettingV3::isDefaultValue() const
PUBLIC 174e4 0 MyButtonSettingV3::reset()
PUBLIC 174e8 0 cocos2d::CCCopying::copyWithZone(cocos2d::CCZone*)
PUBLIC 174f0 0 MyButtonSettingNodeV3::~MyButtonSettingNodeV3()
PUBLIC 175ac 0 MyButtonSettingNodeV3::~MyButtonSettingNodeV3()
PUBLIC 17678 0 MyButtonSettingNodeV3::onCommit()
PUBLIC 1767c 0 MyButtonSettingNodeV3::onResetToDefault()
PUBLIC 17680 0 MyButtonSettingNodeV3::hasUncommittedChanges() const
PUBLIC 17688 0 MyButtonSettingNodeV3::hasNonDefaultValue() const
PUBLIC 17690 0 MyButtonSettingNodeV3::onButton(cocos2d::CCObject*)
PUBLIC 1793c 0 std::__ndk1::__throw_bad_optional_access[abi:ne180000]()
PUBLIC 17970 0 std::__ndk1::vector<std::__ndk1::basic_string<char, std::__ndk1::char_traits<char>, std::__ndk1::allocator<char> >, std::__ndk1::allocator<std::__ndk1::basic_string<char, std::__ndk1::char_traits<char>, std::__ndk1::allocator<char> > > >::__throw_out_of_range[abi:ne180000]() const
PUBLIC 1797c 0 std::__ndk1::__throw_out_of_range[abi:ne180000](char const*)
PUBLIC 179cc 0 std::out_of_range::out_of_range[abi:ne180000](char const*)
PUBLIC 179fc 0 std::__ndk1::__throw_bad_weak_ptr[abi:ne180000]()
PUBLIC 17a30 0 std::__ndk1::basic_regex<char, std::__ndk1::regex_traits<char> >::~basic_regex()
PUBLIC 17a90 0 Utils::initVector(bool)
PUBLIC 1a834 0 geode::impl::ResultData<int, std::__ndk1::basic_string<char, std::__ndk1::char_traits<char>, std::__ndk1::allocator<char> > >::~ResultData()
PUBLIC m 1a8a8 0 std::__ndk1::basic_ifstream<char, std::__ndk1::char_traits<char> >::~basic_ifstream()
PUBLIC 1a8f8 0 Utils::randomInt(int const&, int const&)
PUBLIC 1aa44 0 std::__ndk1::shared_ptr<std::__ndk1::__empty_state<char> >::~shared_ptr[abi:ne180000]()
PUBLIC 1aa98 0 std::__ndk1::vector<int, std::__ndk1::allocator<int> >::__throw_length_error[abi:ne180000]() const
PUBLIC 1aaac 0 std::__ndk1::__variant_detail::__visitation::__base::__dispatcher<(unsigned long)0>::__dispatch[abi:ne180000]<std::__ndk1::__variant_detail::__dtor<std::__ndk1::__variant_detail::__traits<int, std::__ndk1::basic_string<char, std::__ndk1::char_traits<char>, std::__ndk1::allocator<char> > >, (std::__ndk1::__variant_detail::_Trait)1>::__destroy[abi:ne180000]()::{lambda(auto:1&)#1}, std::__ndk1::__variant_detail::__base<(std::__ndk1::__variant_detail::__traits<int, std::__ndk1::basic_string<char, std::__ndk1::char_traits<char>, std::__ndk1::allocator<char> > >)1, int, std::__ndk1::allocator<char> >&>(std::__ndk1::__variant_detail::__dtor<std::__ndk1::__variant_detail::__traits<int, std::__ndk1::basic_string<char, std::__ndk1::char_traits<char>, std::__ndk1::allocator<char> > >, (std::__ndk1::__variant_detail::_Trait)1>, std::__ndk1::__variant_detail::__base<(std::__ndk1::__variant_detail::__traits<int, std::__ndk1::basic_string<char, std::__ndk1::char_traits<char>, std::__ndk1::allocator<char> > >)1, int, std::__ndk1::allocator<char> >&)
PUBLIC 1aab0 0 std::__ndk1::__variant_detail::__visitation::__base::__dispatcher<(unsigned long)1>::__dispatch[abi:ne180000]<std::__ndk1::__variant_detail::__dtor<std::__ndk1::__variant_detail::__traits<int, std::__ndk1::basic_string<char, std::__ndk1::char_traits<char>, std::__ndk1::allocator<char> > >, (std::__ndk1::__variant_detail::_Trait)1>::__destroy[abi:ne180000]()::{lambda(auto:1&)#1}, std::__ndk1::__variant_detail::__base<(std::__ndk1::__variant_detail::__traits<int, std::__ndk1::basic_string<char, std::__ndk1::char_traits<char>, std::__ndk1::allocator<char> > >)1, int, std::__ndk1::allocator<char> >&>(std::__ndk1::__variant_detail::__dtor<std::__ndk1::__variant_detail::__traits<int, std::__ndk1::basic_string<char, std::__ndk1::char_traits<char>, std::__ndk1::allocator<char> > >, (std::__ndk1::__variant_detail::_Trait)1>, std::__ndk1::__variant_detail::__base<(std::__ndk1::__variant_detail::__traits<int, std::__ndk1::basic_string<char, std::__ndk1::char_traits<char>, std::__ndk1::allocator<char> > >)1, int, std::__ndk1::allocator<char> >&)
PUBLIC 1aac4 0 std::__ndk1::basic_regex<char, std::__ndk1::regex_traits<char> >::__parse<char const*>(char const*, char const*)
PUBLIC 1b188 0 std::__ndk1::__throw_regex_error[abi:ne180000]<(std::__ndk1::regex_constants::error_type)17>()
PUBLIC 1b1d4 0 std::__ndk1::basic_regex<char, std::__ndk1::regex_traits<char> >::__parse_ecma_exp<char const*>(char const*, char const*)
PUBLIC 1b440 0 std::__ndk1::basic_regex<char, std::__ndk1::regex_traits<char> >::__parse_basic_reg_exp<char const*>(char const*, char const*)
PUBLIC 1b5e8 0 std::__ndk1::basic_regex<char, std::__ndk1::regex_traits<char> >::__parse_extended_reg_exp<char const*>(char const*, char const*)
PUBLIC 1b758 0 std::__ndk1::__throw_regex_error[abi:ne180000]<(std::__ndk1::regex_constants::error_type)14>()
PUBLIC 1b7a4 0 std::__ndk1::__end_state<char>::~__end_state()
PUBLIC 1b7a8 0 std::__ndk1::__end_state<char>::__exec(std::__ndk1::__state<char>&) const
PUBLIC 1b7b4 0 std::__ndk1::__node<char>::__exec_split(bool, std::__ndk1::__state<char>&) const
PUBLIC 1b7b8 0 std::__ndk1::__node<char>::__exec(std::__ndk1::__state<char>&) const
PUBLIC 1b7bc 0 std::__ndk1::__shared_ptr_pointer<std::__ndk1::__empty_state<char>*, std::__ndk1::shared_ptr<std::__ndk1::__empty_state<char> >::__shared_ptr_default_delete<std::__ndk1::__empty_state<char>, std::__ndk1::__empty_state<char> >, std::__ndk1::allocator<std::__ndk1::__empty_state<char> > >::~__shared_ptr_pointer()
PUBLIC 1b7e0 0 std::__ndk1::__shared_ptr_pointer<std::__ndk1::__empty_state<char>*, std::__ndk1::shared_ptr<std::__ndk1::__empty_state<char> >::__shared_ptr_default_delete<std::__ndk1::__empty_state<char>, std::__ndk1::__empty_state<char> >, std::__ndk1::allocator<std::__ndk1::__empty_state<char> > >::__on_zero_shared()
PUBLIC 1b7f8 0 std::__ndk1::__shared_ptr_pointer<std::__ndk1::__empty_state<char>*, std::__ndk1::shared_ptr<std::__ndk1::__empty_state<char> >::__shared_ptr_default_delete<std::__ndk1::__empty_state<char>, std::__ndk1::__empty_state<char> >, std::__ndk1::allocator<std::__ndk1::__empty_state<char> > >::__get_deleter(std::type_info const&) const
PUBLIC 1b814 0 std::__ndk1::__shared_ptr_pointer<std::__ndk1::__empty_state<char>*, std::__ndk1::shared_ptr<std::__ndk1::__empty_state<char> >::__shared_ptr_default_delete<std::__ndk1::__empty_state<char>, std::__ndk1::__empty_state<char> >, std::__ndk1::allocator<std::__ndk1::__empty_state<char> > >::__on_zero_shared_weak()
PUBLIC 1b818 0 std::__ndk1::__empty_state<char>::~__empty_state()
PUBLIC 1b860 0 std::__ndk1::__empty_state<char>::__exec(std::__ndk1::__state<char>&) const
PUBLIC 1b874 0 std::__ndk1::__owns_one_state<char>::~__owns_one_state()
PUBLIC 1b8bc 0 std::__ndk1::basic_regex<char, std::__ndk1::regex_traits<char> >::__parse_assertion<char const*>(char const*, char const*)
PUBLIC 1bc20 0 std::__ndk1::basic_regex<char, std::__ndk1::regex_traits<char> >::__parse_atom<char const*>(char const*, char const*)
PUBLIC 1c264 0 std::__ndk1::basic_regex<char, std::__ndk1::regex_traits<char> >::__parse_ERE_dupl_symbol<char const*>(char const*, char const*, std::__ndk1::__owns_one_state<char>*, unsigned int, unsigned int)
PUBLIC 1c658 0 std::__ndk1::basic_regex<char, std::__ndk1::regex_traits<char> >::basic_regex[abi:ne180000]()
PUBLIC 1c6c4 0 std::__ndk1::basic_regex<char, std::__ndk1::regex_traits<char> >::__push_lookahead(std::__ndk1::basic_regex<char, std::__ndk1::regex_traits<char> > const&, bool, unsigned int)
PUBLIC 1c778 0 std::__ndk1::__throw_regex_error[abi:ne180000]<(std::__ndk1::regex_constants::error_type)6>()
PUBLIC 1c7c4 0 std::__ndk1::__l_anchor_multiline<char>::~__l_anchor_multiline()
PUBLIC 1c80c 0 std::__ndk1::__l_anchor_multiline<char>::__exec(std::__ndk1::__state<char>&) const
PUBLIC 1c870 0 std::__ndk1::__r_anchor_multiline<char>::~__r_anchor_multiline()
PUBLIC 1c8b8 0 std::__ndk1::__r_anchor_multiline<char>::__exec(std::__ndk1::__state<char>&) const
PUBLIC 1c90c 0 std::__ndk1::__word_boundary<char, std::__ndk1::regex_traits<char> >::~__word_boundary()
PUBLIC 1c968 0 std::__ndk1::__word_boundary<char, std::__ndk1::regex_traits<char> >::~__word_boundary()
PUBLIC 1c9c0 0 std::__ndk1::__word_boundary<char, std::__ndk1::regex_traits<char> >::__exec(std::__ndk1::__state<char>&) const
PUBLIC 1cad0 0 std::__ndk1::__lookahead<char, std::__ndk1::regex_traits<char> >::~__lookahead()
PUBLIC 1cb60 0 std::__ndk1::__lookahead<char, std::__ndk1::regex_traits<char> >::~__lookahead()
PUBLIC 1cbec 0 std::__ndk1::__lookahead<char, std::__ndk1::regex_traits<char> >::__exec(std::__ndk1::__state<char>&) const
PUBLIC 1cdc0 0 std::__ndk1::basic_regex<char, std::__ndk1::regex_traits<char> >::__match_at_start_ecma<std::__ndk1::allocator<std::__ndk1::sub_match<char const*> > >(char const*, char const*, std::__ndk1::match_results<char const*, std::__ndk1::allocator<std::__ndk1::sub_match<char const*> > >&, std::__ndk1::regex_constants::match_flag_type, bool) const
PUBLIC 1d20c 0 std::__ndk1::vector<std::__ndk1::sub_match<char const*>, std::__ndk1::allocator<std::__ndk1::sub_match<char const*> > >::assign(unsigned long, std::__ndk1::sub_match<char const*> const&)
PUBLIC 1d3d4 0 std::__ndk1::vector<std::__ndk1::sub_match<char const*>, std::__ndk1::allocator<std::__ndk1::sub_match<char const*> > >::__throw_length_error[abi:ne180000]() const
PUBLIC 1d3e8 0 std::__ndk1::__state<char>::~__state()
PUBLIC 1d42c 0 std::__ndk1::__throw_regex_error[abi:ne180000]<(std::__ndk1::regex_constants::error_type)12>()
PUBLIC 1d478 0 std::__ndk1::__state<char>::__state(std::__ndk1::__state<char> const&)
PUBLIC 1d5e8 0 std::__ndk1::__throw_regex_error[abi:ne180000]<(std::__ndk1::regex_constants::error_type)16>()
PUBLIC 1d634 0 std::__ndk1::vector<std::__ndk1::__state<char>, std::__ndk1::allocator<std::__ndk1::__state<char> > >::~vector[abi:ne180000]()
PUBLIC 1d6cc 0 std::__ndk1::vector<std::__ndk1::__state<char>, std::__ndk1::allocator<std::__ndk1::__state<char> > >::__push_back_slow_path<std::__ndk1::__state<char> >(std::__ndk1::__state<char>&&)
PUBLIC 1d8a8 0 std::__ndk1::vector<std::__ndk1::__state<char>, std::__ndk1::allocator<std::__ndk1::__state<char> > >::__throw_length_error[abi:ne180000]() const
PUBLIC 1d8bc 0 std::__ndk1::vector<std::__ndk1::sub_match<char const*>, std::__ndk1::allocator<std::__ndk1::sub_match<char const*> > >::__append(unsigned long, std::__ndk1::sub_match<char const*> const&)
PUBLIC 1da64 0 std::__ndk1::vector<std::__ndk1::pair<unsigned long, char const*>, std::__ndk1::allocator<std::__ndk1::pair<unsigned long, char const*> > >::__append(unsigned long)
PUBLIC 1db90 0 std::__ndk1::vector<std::__ndk1::pair<unsigned long, char const*>, std::__ndk1::allocator<std::__ndk1::pair<unsigned long, char const*> > >::__throw_length_error[abi:ne180000]() const
PUBLIC 1dba4 0 std::__ndk1::basic_regex<char, std::__ndk1::regex_traits<char> >::__parse_bracket_expression<char const*>(char const*, char const*)
PUBLIC 1ec98 0 std::__ndk1::__throw_regex_error[abi:ne180000]<(std::__ndk1::regex_constants::error_type)11>()
PUBLIC 1ece4 0 std::__ndk1::__match_any_but_newline<char>::~__match_any_but_newline()
PUBLIC 1ed2c 0 std::__ndk1::__throw_regex_error[abi:ne180000]<(std::__ndk1::regex_constants::error_type)3>()
PUBLIC 1ed78 0 std::__ndk1::basic_regex<char, std::__ndk1::regex_traits<char> >::__parse_character_escape<char const*>(char const*, char const*, std::__ndk1::basic_string<char, std::__ndk1::char_traits<char>, std::__ndk1::allocator<char> >*)
PUBLIC 1f284 0 std::__ndk1::basic_regex<char, std::__ndk1::regex_traits<char> >::__push_char(char)
PUBLIC 1f3c4 0 std::__ndk1::__throw_regex_error[abi:ne180000]<(std::__ndk1::regex_constants::error_type)4>()
PUBLIC 1f410 0 std::__ndk1::basic_regex<char, std::__ndk1::regex_traits<char> >::__push_back_ref(int)
PUBLIC 1f4d8 0 std::__ndk1::__match_char_icase<char, std::__ndk1::regex_traits<char> >::~__match_char_icase()
PUBLIC 1f534 0 std::__ndk1::__match_char_icase<char, std::__ndk1::regex_traits<char> >::~__match_char_icase()
PUBLIC 1f58c 0 std::__ndk1::__match_char_icase<char, std::__ndk1::regex_traits<char> >::__exec(std::__ndk1::__state<char>&) const
PUBLIC 1f60c 0 std::__ndk1::__match_char_collate<char, std::__ndk1::regex_traits<char> >::~__match_char_collate()
PUBLIC 1f668 0 std::__ndk1::__match_char_collate<char, std::__ndk1::regex_traits<char> >::~__match_char_collate()
PUBLIC 1f6c0 0 std::__ndk1::__match_char_collate<char, std::__ndk1::regex_traits<char> >::__exec(std::__ndk1::__state<char>&) const
PUBLIC 1f708 0 std::__ndk1::__match_char<char>::~__match_char()
PUBLIC 1f750 0 std::__ndk1::__match_char<char>::__exec(std::__ndk1::__state<char>&) const
PUBLIC 1f798 0 std::__ndk1::__back_ref_icase<char, std::__ndk1::regex_traits<char> >::~__back_ref_icase()
PUBLIC 1f7f4 0 std::__ndk1::__back_ref_icase<char, std::__ndk1::regex_traits<char> >::~__back_ref_icase()
PUBLIC 1f84c 0 std::__ndk1::__back_ref_icase<char, std::__ndk1::regex_traits<char> >::__exec(std::__ndk1::__state<char>&) const
PUBLIC 1f944 0 std::__ndk1::__back_ref_collate<char, std::__ndk1::regex_traits<char> >::~__back_ref_collate()
PUBLIC 1f9a0 0 std::__ndk1::__back_ref_collate<char, std::__ndk1::regex_traits<char> >::~__back_ref_collate()
PUBLIC 1f9f8 0 std::__ndk1::__back_ref_collate<char, std::__ndk1::regex_traits<char> >::__exec(std::__ndk1::__state<char>&) const
PUBLIC 1fa88 0 std::__ndk1::__back_ref<char>::~__back_ref()
PUBLIC 1fad0 0 std::__ndk1::__back_ref<char>::__exec(std::__ndk1::__state<char>&) const
PUBLIC 1fba0 0 std::__ndk1::__bracket_expression<char, std::__ndk1::regex_traits<char> >::__add_char[abi:ne180000](char)
PUBLIC 20050 0 std::__ndk1::__bracket_expression<char, std::__ndk1::regex_traits<char> >::__bracket_expression[abi:ne180000](std::__ndk1::regex_traits<char> const&, std::__ndk1::__node<char>*, bool, bool, bool)
PUBLIC 2022c 0 std::__ndk1::vector<std::__ndk1::pair<std::__ndk1::basic_string<char, std::__ndk1::char_traits<char>, std::__ndk1::allocator<char> >, std::__ndk1::basic_string<char, std::__ndk1::char_traits<char>, std::__ndk1::allocator<char> > >, std::__ndk1::allocator<std::__ndk1::pair<std::__ndk1::basic_string<char, std::__ndk1::char_traits<char>, std::__ndk1::allocator<char> >, std::__ndk1::basic_string<char, std::__ndk1::char_traits<char>, std::__ndk1::allocator<char> > > > >::~vector[abi:ne180000]()
PUBLIC 202d0 0 std::__ndk1::__bracket_expression<char, std::__ndk1::regex_traits<char> >::~__bracket_expression()
PUBLIC 2041c 0 std::__ndk1::__bracket_expression<char, std::__ndk1::regex_traits<char> >::~__bracket_expression()
PUBLIC 20440 0 std::__ndk1::__bracket_expression<char, std::__ndk1::regex_traits<char> >::__exec(std::__ndk1::__state<char>&) const
PUBLIC 210ac 0 std::__ndk1::pair<std::__ndk1::basic_string<char, std::__ndk1::char_traits<char>, std::__ndk1::allocator<char> >, std::__ndk1::basic_string<char, std::__ndk1::char_traits<char>, std::__ndk1::allocator<char> > >::~pair()
PUBLIC 210f0 0 std::__ndk1::regex_traits<char>::__transform_primary<char*>(char*, char*, char) const
PUBLIC 212b4 0 std::__ndk1::vector<char, std::__ndk1::allocator<char> >::__throw_length_error[abi:ne180000]() const
PUBLIC 212c8 0 std::__ndk1::__throw_regex_error[abi:ne180000]<(std::__ndk1::regex_constants::error_type)5>()
PUBLIC 21314 0 std::__ndk1::basic_regex<char, std::__ndk1::regex_traits<char> >::__parse_class_escape<char const*>(char const*, char const*, std::__ndk1::basic_string<char, std::__ndk1::char_traits<char>, std::__ndk1::allocator<char> >&, std::__ndk1::__bracket_expression<char, std::__ndk1::regex_traits<char> >*)
PUBLIC 218dc 0 std::__ndk1::basic_regex<char, std::__ndk1::regex_traits<char> >::__parse_awk_escape<char const*>(char const*, char const*, std::__ndk1::basic_string<char, std::__ndk1::char_traits<char>, std::__ndk1::allocator<char> >*)
PUBLIC 21da0 0 std::__ndk1::__bracket_expression<char, std::__ndk1::regex_traits<char> >::__add_digraph[abi:ne180000](char, char)
PUBLIC 221c0 0 std::__ndk1::__throw_regex_error[abi:ne180000]<(std::__ndk1::regex_constants::error_type)1>()
PUBLIC 2220c 0 std::__ndk1::regex_traits<char>::__lookup_collatename<char const*>(char const*, char const*, char) const
PUBLIC 224c0 0 std::__ndk1::__throw_regex_error[abi:ne180000]<(std::__ndk1::regex_constants::error_type)2>()
PUBLIC 2250c 0 std::__ndk1::regex_traits<char>::transform<std::__ndk1::__wrap_iter<char*> >(std::__ndk1::__wrap_iter<char*>, std::__ndk1::__wrap_iter<char*>) const
PUBLIC 226c0 0 std::__ndk1::__throw_regex_error[abi:ne180000]<(std::__ndk1::regex_constants::error_type)9>()
PUBLIC 2270c 0 std::__ndk1::vector<std::__ndk1::pair<std::__ndk1::basic_string<char, std::__ndk1::char_traits<char>, std::__ndk1::allocator<char> >, std::__ndk1::basic_string<char, std::__ndk1::char_traits<char>, std::__ndk1::allocator<char> > >, std::__ndk1::allocator<std::__ndk1::pair<std::__ndk1::basic_string<char, std::__ndk1::char_traits<char>, std::__ndk1::allocator<char> >, std::__ndk1::basic_string<char, std::__ndk1::char_traits<char>, std::__ndk1::allocator<char> > > > >::__push_back_slow_path<std::__ndk1::pair<std::__ndk1::basic_string<char, std::__ndk1::char_traits<char>, std::__ndk1::allocator<char> >, std::__ndk1::basic_string<char, std::__ndk1::char_traits<char>, std::__ndk1::allocator<char> > > >(std::__ndk1::pair<std::__ndk1::basic_string<char, std::__ndk1::char_traits<char>, std::__ndk1::allocator<char> >, std::__ndk1::basic_string<char, std::__ndk1::char_traits<char>, std::__ndk1::allocator<char> > >&&)
PUBLIC 228b4 0 std::__ndk1::vector<std::__ndk1::pair<std::__ndk1::basic_string<char, std::__ndk1::char_traits<char>, std::__ndk1::allocator<char> >, std::__ndk1::basic_string<char, std::__ndk1::char_traits<char>, std::__ndk1::allocator<char> > >, std::__ndk1::allocator<std::__ndk1::pair<std::__ndk1::basic_string<char, std::__ndk1::char_traits<char>, std::__ndk1::allocator<char> >, std::__ndk1::basic_string<char, std::__ndk1::char_traits<char>, std::__ndk1::allocator<char> > > > >::__throw_length_error[abi:ne180000]() const
PUBLIC 228c8 0 std::__ndk1::vector<std::__ndk1::pair<char, char>, std::__ndk1::allocator<std::__ndk1::pair<char, char> > >::__throw_length_error[abi:ne180000]() const
PUBLIC 228dc 0 std::__ndk1::__begin_marked_subexpression<char>::~__begin_marked_subexpression()
PUBLIC 22924 0 std::__ndk1::__begin_marked_subexpression<char>::__exec(std::__ndk1::__state<char>&) const
PUBLIC 22954 0 std::__ndk1::__end_marked_subexpression<char>::~__end_marked_subexpression()
PUBLIC 2299c 0 std::__ndk1::__end_marked_subexpression<char>::__exec(std::__ndk1::__state<char>&) const
PUBLIC 229d4 0 std::__ndk1::basic_regex<char, std::__ndk1::regex_traits<char> >::__push_loop(unsigned long, unsigned long, std::__ndk1::__owns_one_state<char>*, unsigned long, unsigned long, bool)
PUBLIC 22b14 0 std::__ndk1::__throw_regex_error[abi:ne180000]<(std::__ndk1::regex_constants::error_type)8>()
PUBLIC 22b60 0 std::__ndk1::__throw_regex_error[abi:ne180000]<(std::__ndk1::regex_constants::error_type)7>()
PUBLIC 22bac 0 std::__ndk1::__loop<char>::~__loop()
PUBLIC 22c14 0 std::__ndk1::__loop<char>::__exec(std::__ndk1::__state<char>&) const
PUBLIC 22dd8 0 std::__ndk1::__loop<char>::__exec_split(bool, std::__ndk1::__state<char>&) const
PUBLIC 22e9c 0 std::__ndk1::__owns_two_states<char>::~__owns_two_states()
PUBLIC 22f04 0 std::__ndk1::__repeat_one_loop<char>::~__repeat_one_loop()
PUBLIC 22f08 0 std::__ndk1::__repeat_one_loop<char>::__exec(std::__ndk1::__state<char>&) const
PUBLIC 22f1c 0 std::__ndk1::__owns_two_states<char>::~__owns_two_states()
PUBLIC 22f88 0 std::__ndk1::__alternate<char>::~__alternate()
PUBLIC 22ff0 0 std::__ndk1::__alternate<char>::__exec(std::__ndk1::__state<char>&) const
PUBLIC 22ffc 0 std::__ndk1::__alternate<char>::__exec_split(bool, std::__ndk1::__state<char>&) const
PUBLIC 23020 0 std::__ndk1::__node<char>::~__node()
PUBLIC 23024 0 std::__ndk1::__empty_non_own_state<char>::~__empty_non_own_state()
PUBLIC 23028 0 std::__ndk1::__empty_non_own_state<char>::__exec(std::__ndk1::__state<char>&) const
PUBLIC 2303c 0 std::__ndk1::__throw_regex_error[abi:ne180000]<(std::__ndk1::regex_constants::error_type)15>()
PUBLIC 23088 0 std::__ndk1::basic_regex<char, std::__ndk1::regex_traits<char> >::__parse_nondupl_RE<char const*>(char const*, char const*)
PUBLIC 23384 0 std::__ndk1::basic_regex<char, std::__ndk1::regex_traits<char> >::__parse_RE_dupl_symbol<char const*>(char const*, char const*, std::__ndk1::__owns_one_state<char>*, unsigned int, unsigned int)
PUBLIC 235f4 0 std::__ndk1::__owns_one_state<char>::~__owns_one_state()
PUBLIC 23620 0 std::__ndk1::__match_any<char>::~__match_any()
PUBLIC 23668 0 std::__ndk1::__match_any<char>::__exec(std::__ndk1::__state<char>&) const
PUBLIC 236a8 0 std::__ndk1::basic_regex<char, std::__ndk1::regex_traits<char> >::__test_back_ref(char)
PUBLIC 23708 0 std::__ndk1::basic_regex<char, std::__ndk1::regex_traits<char> >::__parse_ERE_expression<char const*>(char const*, char const*)
PUBLIC 23a54 0 std::__ndk1::deque<std::__ndk1::__state<char>, std::__ndk1::allocator<std::__ndk1::__state<char> > >::~deque[abi:ne180000]()
PUBLIC 23c1c 0 std::__ndk1::deque<std::__ndk1::__state<char>, std::__ndk1::allocator<std::__ndk1::__state<char> > >::__add_back_capacity()
PUBLIC 2420c 0 std::__ndk1::__split_buffer<std::__ndk1::__state<char>*, std::__ndk1::allocator<std::__ndk1::__state<char>*> >::push_back(std::__ndk1::__state<char>*&&)
PUBLIC 24394 0 std::__ndk1::__split_buffer<std::__ndk1::__state<char>*, std::__ndk1::allocator<std::__ndk1::__state<char>*> >::push_front(std::__ndk1::__state<char>*&&)
PUBLIC 24520 0 std::__ndk1::vector<std::__ndk1::sub_match<std::__ndk1::__wrap_iter<char const*> >, std::__ndk1::allocator<std::__ndk1::sub_match<std::__ndk1::__wrap_iter<char const*> > > >::__throw_length_error[abi:ne180000]() const
PUBLIC 24534 0 std::__ndk1::uniform_int_distribution<int>::operator()<std::__ndk1::mersenne_twister_engine<unsigned long, (unsigned long)32, (unsigned long)624, (unsigned long)397, (unsigned long)31, (unsigned long)2567483615, (unsigned long)11, (unsigned long)4294967295, (unsigned long)7, (unsigned long)2636928640, (unsigned long)15, (unsigned long)4022730752, (unsigned long)18, (unsigned long)1812433253> >(std::__ndk1::mersenne_twister_engine<unsigned long, (unsigned long)32, (unsigned long)624, (unsigned long)397, (unsigned long)31, (unsigned long)2567483615, (unsigned long)11, (unsigned long)4294967295, (unsigned long)7, (unsigned long)2636928640, (unsigned long)15, (unsigned long)4022730752, (unsigned long)18, (unsigned long)1812433253>&, std::__ndk1::uniform_int_distribution<int>::param_type const&)
PUBLIC 24674 0 std::__ndk1::__independent_bits_engine<std::__ndk1::mersenne_twister_engine<unsigned long, (unsigned long)32, (unsigned long)624, (unsigned long)397, (unsigned long)31, (unsigned long)2567483615, (unsigned long)11, (unsigned long)4294967295, (unsigned long)7, (unsigned long)2636928640, (unsigned long)15, (unsigned long)4022730752, (unsigned long)18, (unsigned long)1812433253>, unsigned int>::__eval(std::__ndk1::integral_constant<bool, true>)
PUBLIC 24874 0 _GLOBAL__sub_I_Utils.cpp
PUBLIC m 24950 0 geodeImplicitEntry
PUBLIC 2498c 0 std::__ndk1::unordered_map<void*, bool, std::__ndk1::hash<void*>, std::__ndk1::equal_to<void*>, std::__ndk1::allocator<std::__ndk1::pair<void* const, bool> > >::~unordered_map[abi:ne180000]()
PUBLIC 249d8 0 wrapFunction(unsigned long, tulip::hook::WrapperMetadata const&)
PUBLIC 24b0c 0 geode::impl::ResultData<void*, std::__ndk1::basic_string<char, std::__ndk1::char_traits<char>, std::__ndk1::allocator<char> > >::unwrapErr() &
PUBLIC 24b84 0 geode::impl::ResultData<void*, std::__ndk1::basic_string<char, std::__ndk1::char_traits<char>, std::__ndk1::allocator<char> > >::~ResultData()
PUBLIC 24bf8 0 tulip::hook::WrapperMetadata::~WrapperMetadata()
PUBLIC 24c5c 0 cocos2d::CCObject::~CCObject()
PUBLIC 24c80 0 cocos2d::CCNode::CCNode()
PUBLIC 24edc 0 cocos2d::CCNode::~CCNode()
PUBLIC 24f00 0 FLAlertLayer::create(FLAlertLayerProtocol*, char const*, gd::string, char const*, char const*, float)
PUBLIC 250b8 0 tulip::hook::AbstractFunction::from<FLAlertLayer*, FLAlertLayerProtocol*, char const*, gd::string, char const*, char const*, float>(FLAlertLayer* (*)(FLAlertLayerProtocol*, char const*, gd::string, char const*, char const*, float))
PUBLIC 2559c 0 cocos2d::CCObject::update(float)
PUBLIC 255a0 0 cocos2d::CCNode::~CCNode()
PUBLIC 25840 0 cocos2d::CCObject::~CCObject()
PUBLIC 25d34 0 _ZN5geode15UnwrapExceptionC2IRPvQsr4implE18IsStringStreamableIT_EEENS_4impl5OkTagEOS4_
PUBLIC 25e88 0 _ZN5geode15UnwrapExceptionC2IRNSt6__ndk112basic_stringIcNS2_11char_traitsIcEENS2_9allocatorIcEEEEQsr4implE18IsStringStreamableIT_EEENS_4impl6ErrTagEOSA_
PUBLIC 25ff0 0 std::__ndk1::__variant_detail::__visitation::__base::__dispatcher<(unsigned long)0>::__dispatch[abi:ne180000]<std::__ndk1::__variant_detail::__dtor<std::__ndk1::__variant_detail::__traits<void*, std::__ndk1::basic_string<char, std::__ndk1::char_traits<char>, std::__ndk1::allocator<char> > >, (std::__ndk1::__variant_detail::_Trait)1>::__destroy[abi:ne180000]()::{lambda(auto:1&)#1}, std::__ndk1::__variant_detail::__base<(std::__ndk1::__variant_detail::__traits<void*, std::__ndk1::basic_string<char, std::__ndk1::char_traits<char>, std::__ndk1::allocator<char> > >)1, std::__ndk1::__variant_detail::__traits, std::__ndk1::allocator<char> >&>(std::__ndk1::__variant_detail::__dtor<std::__ndk1::__variant_detail::__traits<void*, std::__ndk1::basic_string<char, std::__ndk1::char_traits<char>, std::__ndk1::allocator<char> > >, (std::__ndk1::__variant_detail::_Trait)1>, std::__ndk1::__variant_detail::__base<(std::__ndk1::__variant_detail::__traits<void*, std::__ndk1::basic_string<char, std::__ndk1::char_traits<char>, std::__ndk1::allocator<char> > >)1, std::__ndk1::__variant_detail::__traits, std::__ndk1::allocator<char> >&)
PUBLIC 25ff4 0 std::__ndk1::__variant_detail::__visitation::__base::__dispatcher<(unsigned long)1>::__dispatch[abi:ne180000]<std::__ndk1::__variant_detail::__dtor<std::__ndk1::__variant_detail::__traits<void*, std::__ndk1::basic_string<char, std::__ndk1::char_traits<char>, std::__ndk1::allocator<char> > >, (std::__ndk1::__variant_detail::_Trait)1>::__destroy[abi:ne180000]()::{lambda(auto:1&)#1}, std::__ndk1::__variant_detail::__base<(std::__ndk1::__variant_detail::__traits<void*, std::__ndk1::basic_string<char, std::__ndk1::char_traits<char>, std::__ndk1::allocator<char> > >)1, std::__ndk1::__variant_detail::__traits, std::__ndk1::allocator<char> >&>(std::__ndk1::__variant_detail::__dtor<std::__ndk1::__variant_detail::__traits<void*, std::__ndk1::basic_string<char, std::__ndk1::char_traits<char>, std::__ndk1::allocator<char> > >, (std::__ndk1::__variant_detail::_Trait)1>, std::__ndk1::__variant_detail::__base<(std::__ndk1::__variant_detail::__traits<void*, std::__ndk1::basic_string<char, std::__ndk1::char_traits<char>, std::__ndk1::allocator<char> > >)1, std::__ndk1::__variant_detail::__traits, std::__ndk1::allocator<char> >&)
PUBLIC 26008 0 std::__ndk1::__hash_table<std::__ndk1::__hash_value_type<void*, bool>, std::__ndk1::__unordered_map_hasher<void*, std::__ndk1::__hash_value_type<void*, bool>, std::__ndk1::hash<void*>, std::__ndk1::equal_to<void*>, true>, std::__ndk1::__unordered_map_equal<void*, std::__ndk1::__hash_value_type<void*, bool>, std::__ndk1::equal_to<void*>, std::__ndk1::hash<void*>, true>, std::__ndk1::allocator<std::__ndk1::__hash_value_type<void*, bool> > >::__emplace_unique_key_args<void*, std::__ndk1::piecewise_construct_t const&, std::__ndk1::tuple<void* const&>, std::__ndk1::tuple<> >(void* const&, std::__ndk1::piecewise_construct_t const&, std::__ndk1::tuple<void* const&>, std::__ndk1::tuple<>)
PUBLIC 26520 0 <.plt ELF section in raydeeux.skipeditorobjects.android64.so>
STACK CFI INIT 115f0 10 .cfa: sp 0 +
STACK CFI INIT 11600 8 .cfa: sp 0 +
STACK CFI INIT 11608 8 .cfa: sp 0 +
STACK CFI INIT 11610 14 .cfa: sp 0 +
STACK CFI INIT 11624 1c .cfa: sp 0 +
STACK CFI INIT 11640 10 .cfa: sp 0 +
STACK CFI INIT 11650 30 .cfa: sp 0 +
STACK CFI INIT 11680 98 .cfa: sp 0 +
STACK CFI INIT 11718 59c .cfa: sp 0 +
STACK CFI INIT 11cb4 8c .cfa: sp 0 +
STACK CFI INIT 11d40 30 .cfa: sp 0 +
STACK CFI INIT 12760 18 .cfa: sp 0 +
STACK CFI INIT 12bfc 18 .cfa: sp 0 +
STACK CFI INIT 1300c 10 .cfa: sp 0 +
STACK CFI 13010 .cfa: sp 16 +
STACK CFI 13014 .cfa: x29 16 + .ra: .cfa -8 + ^ x29: .cfa -16 + ^
STACK CFI INIT 1301c 50 .cfa: sp 0 +
STACK CFI 13020 .cfa: sp 32 +
STACK CFI 13028 .cfa: x29 32 + x19: .cfa -16 + ^ .ra: .cfa -24 + ^ x29: .cfa -32 + ^
STACK CFI 13040 .cfa: sp 32 +
STACK CFI 13048 .cfa: sp 0 +
STACK CFI 1304c .cfa: x29 32 +
STACK CFI 13060 .cfa: sp 32 +
STACK CFI 13068 .cfa: sp 0 +
STACK CFI INIT 1306c 50 .cfa: sp 0 +
STACK CFI 13070 .cfa: sp 32 +
STACK CFI 13078 .cfa: x29 32 + x19: .cfa -16 + ^ .ra: .cfa -24 + ^ x29: .cfa -32 + ^
STACK CFI 13090 .cfa: sp 32 +
STACK CFI 13098 .cfa: sp 0 +
STACK CFI 1309c .cfa: x29 32 +
STACK CFI 130b0 .cfa: sp 32 +
STACK CFI 130b8 .cfa: sp 0 +
STACK CFI INIT 130bc 34 .cfa: sp 0 +
STACK CFI 130c0 .cfa: sp 32 +
STACK CFI 130c8 .cfa: x29 32 + x19: .cfa -16 + ^ .ra: .cfa -24 + ^ x29: .cfa -32 + ^
STACK CFI INIT 130f0 10 .cfa: sp 0 +
STACK CFI INIT 13100 30 .cfa: sp 0 +
STACK CFI 13104 .cfa: sp 32 +
STACK CFI 1310c .cfa: x29 32 + x19: .cfa -16 + ^ .ra: .cfa -24 + ^ x29: .cfa -32 + ^
STACK CFI 13124 .cfa: sp 32 +
STACK CFI 1312c .cfa: sp 0 +
STACK CFI INIT 13130 c .cfa: sp 0 +
STACK CFI INIT 1313c 4 .cfa: sp 0 +
STACK CFI INIT 13140 34 .cfa: sp 0 +
STACK CFI 13144 .cfa: sp 16 +
STACK CFI 13148 .cfa: x29 16 + .ra: .cfa -8 + ^ x29: .cfa -16 + ^
STACK CFI INIT 13174 24 .cfa: sp 0 +
STACK CFI 13178 .cfa: sp 32 +
STACK CFI 13180 .cfa: x29 32 + x19: .cfa -16 + ^ .ra: .cfa -24 + ^ x29: .cfa -32 + ^
STACK CFI 1318c .cfa: sp 32 +
STACK CFI 13194 .cfa: sp 0 +
STACK CFI INIT 13198 80 .cfa: sp 0 +
STACK CFI 1319c .cfa: sp 48 +
STACK CFI 131a8 .cfa: x29 48 + x19: .cfa -8 + ^ x20: .cfa -16 + ^ x21: .cfa -24 + ^ x22: .cfa -32 + ^ .ra: .cfa -40 + ^ x29: .cfa -48 + ^
STACK CFI 131c0 .cfa: sp 48 +
STACK CFI 131cc .cfa: sp 0 +
STACK CFI 131d0 .cfa: x29 48 +
STACK CFI 13200 .cfa: sp 48 +
STACK CFI 1320c .cfa: sp 0 +
STACK CFI 13210 .cfa: x29 48 +
STACK CFI INIT 13218 14 .cfa: sp 0 +
STACK CFI 1321c .cfa: sp 16 +
STACK CFI 13220 .cfa: x29 16 + .ra: .cfa -8 + ^ x29: .cfa -16 + ^
STACK CFI INIT 1327c 30 .cfa: sp 0 +
STACK CFI 13280 .cfa: sp 32 +
STACK CFI 13288 .cfa: x29 32 + x19: .cfa -16 + ^ .ra: .cfa -24 + ^ x29: .cfa -32 + ^
STACK CFI 132a0 .cfa: sp 32 +
STACK CFI 132a8 .cfa: sp 0 +
STACK CFI INIT 132ac 4 .cfa: sp 0 +
STACK CFI INIT 132b0 4 .cfa: sp 0 +
STACK CFI INIT 132b4 34 .cfa: sp 0 +
STACK CFI 132b8 .cfa: sp 32 +
STACK CFI 132c0 .cfa: x29 32 + x19: .cfa -16 + ^ .ra: .cfa -24 + ^ x29: .cfa -32 + ^
STACK CFI 132dc .cfa: sp 32 +
STACK CFI 132e4 .cfa: sp 0 +
STACK CFI INIT 132e8 14 .cfa: sp 0 +
STACK CFI INIT 132fc 4 .cfa: sp 0 +
STACK CFI INIT 13300 4 .cfa: sp 0 +
STACK CFI INIT 13304 14 .cfa: sp 0 +
STACK CFI INIT 13318 1c .cfa: sp 0 +
STACK CFI INIT 13334 c .cfa: sp 0 +
STACK CFI INIT 13340 4 .cfa: sp 0 +
STACK CFI INIT 13344 14 .cfa: sp 0 +
STACK CFI INIT 13358 e8 .cfa: sp 0 +
STACK CFI 1335c .cfa: sp 32 +
STACK CFI 13364 .cfa: x29 32 + x19: .cfa -8 + ^ x20: .cfa -16 + ^ .ra: .cfa -24 + ^ x29: .cfa -32 + ^
STACK CFI 133a4 .cfa: sp 32 +
STACK CFI 133ac .cfa: sp 0 +
STACK CFI 133b0 .cfa: x29 32 +
STACK CFI 133ec .cfa: sp 32 +
STACK CFI 133f4 .cfa: sp 0 +
STACK CFI 133f8 .cfa: x29 32 +
STACK CFI 13418 .cfa: sp 32 +
STACK CFI 13420 .cfa: sp 0 +
STACK CFI 13424 .cfa: x29 32 +
STACK CFI 13434 .cfa: sp 32 +
STACK CFI 1343c .cfa: sp 0 +
STACK CFI INIT 13440 ac .cfa: sp 0 +
STACK CFI 13444 .cfa: sp 64 +
STACK CFI 13454 .cfa: x29 64 + x19: .cfa -8 + ^ x20: .cfa -16 + ^ x21: .cfa -24 + ^ x22: .cfa -32 + ^ x23: .cfa -48 + ^ .ra: .cfa -56 + ^ x29: .cfa -64 + ^
STACK CFI 134d0 .cfa: sp 64 +
STACK CFI 134e0 .cfa: sp 0 +
STACK CFI 134e4 .cfa: x29 64 +
STACK CFI INIT 134ec 110 .cfa: sp 0 +
STACK CFI 134f0 .cfa: sp 64 +
STACK CFI 13500 .cfa: x29 64 + x19: .cfa -8 + ^ x20: .cfa -16 + ^ x21: .cfa -24 + ^ x22: .cfa -32 + ^ x23: .cfa -40 + ^ x24: .cfa -48 + ^ .ra: .cfa -56 + ^ x29: .cfa -64 + ^
STACK CFI 135e0 .cfa: sp 64 +
STACK CFI 135f0 .cfa: sp 0 +
STACK CFI 135f4 .cfa: x29 64 +
STACK CFI INIT 13900 4 .cfa: sp 0 +
STACK CFI INIT 13a68 5c .cfa: sp 0 +
STACK CFI 13a6c .cfa: sp 32 +
STACK CFI 13a74 .cfa: x29 32 + x19: .cfa -16 + ^ .ra: .cfa -24 + ^ x29: .cfa -32 + ^
STACK CFI 13ab8 .cfa: sp 32 +
STACK CFI 13ac0 .cfa: sp 0 +
STACK CFI INIT 13ac4 64 .cfa: sp 0 +
STACK CFI 13ac8 .cfa: sp 32 +
STACK CFI 13ad0 .cfa: x29 32 + x19: .cfa -16 + ^ .ra: .cfa -24 + ^ x29: .cfa -32 + ^
STACK CFI 13b1c .cfa: sp 32 +
STACK CFI 13b24 .cfa: sp 0 +
STACK CFI INIT 13b28 4 .cfa: sp 0 +
STACK CFI INIT 13b2c 4 .cfa: sp 0 +
STACK CFI INIT 13b30 34 .cfa: sp 0 +
STACK CFI 13b34 .cfa: sp 32 +
STACK CFI 13b3c .cfa: x29 32 + x19: .cfa -16 + ^ .ra: .cfa -24 + ^ x29: .cfa -32 + ^
STACK CFI 13b58 .cfa: sp 32 +
STACK CFI 13b60 .cfa: sp 0 +
STACK CFI INIT 13b64 14 .cfa: sp 0 +
STACK CFI INIT 13b78 4 .cfa: sp 0 +
STACK CFI INIT 13b7c 4 .cfa: sp 0 +
STACK CFI INIT 13b80 10 .cfa: sp 0 +
STACK CFI INIT 13b90 1c .cfa: sp 0 +
STACK CFI INIT 13bac c .cfa: sp 0 +
STACK CFI INIT 13bb8 f8 .cfa: sp 0 +
STACK CFI 13bbc .cfa: sp 64 +
STACK CFI 13bcc .cfa: x29 64 + x19: .cfa -8 + ^ x20: .cfa -16 + ^ x21: .cfa -24 + ^ x22: .cfa -32 + ^ x23: .cfa -48 + ^ .ra: .cfa -56 + ^ x29: .cfa -64 + ^
STACK CFI 13c28 .cfa: sp 64 +
STACK CFI 13c38 .cfa: sp 0 +
STACK CFI 13c3c .cfa: x29 64 +
STACK CFI 13c58 .cfa: sp 64 +
STACK CFI 13c68 .cfa: sp 0 +
STACK CFI 13c6c .cfa: x29 64 +
STACK CFI 13c9c .cfa: sp 64 +
STACK CFI 13cac .cfa: sp 0 +
STACK CFI INIT 140b4 50 .cfa: sp 0 +
STACK CFI 140b8 .cfa: sp 32 +
STACK CFI 140c0 .cfa: x29 32 + x19: .cfa -16 + ^ .ra: .cfa -24 + ^ x29: .cfa -32 + ^
STACK CFI 140d8 .cfa: sp 32 +
STACK CFI 140e0 .cfa: sp 0 +
STACK CFI 140e4 .cfa: x29 32 +
STACK CFI 140f8 .cfa: sp 32 +
STACK CFI 14100 .cfa: sp 0 +
STACK CFI INIT 14178 7c .cfa: sp 0 +
STACK CFI 1417c .cfa: sp 48 +
STACK CFI 14188 .cfa: x29 48 + x19: .cfa -8 + ^ x20: .cfa -16 + ^ x21: .cfa -32 + ^ .ra: .cfa -40 + ^ x29: .cfa -48 + ^
STACK CFI 141d4 .cfa: sp 48 +
STACK CFI 141e0 .cfa: sp 0 +
STACK CFI 141e4 .cfa: sp 48 +
STACK CFI 141f0 .cfa: sp 0 +
STACK CFI INIT 141f4 4 .cfa: sp 0 +
STACK CFI INIT 14478 80 .cfa: sp 0 +
STACK CFI 1447c .cfa: sp 48 +
STACK CFI 14488 .cfa: x29 48 + x19: .cfa -8 + ^ x20: .cfa -16 + ^ x21: .cfa -32 + ^ .ra: .cfa -40 + ^ x29: .cfa -48 + ^
STACK CFI 144e8 .cfa: sp 48 +
STACK CFI 144f4 .cfa: sp 0 +
STACK CFI INIT 149f0 148 .cfa: sp 0 +
STACK CFI 149f4 .cfa: sp 48 +
STACK CFI 14a00 .cfa: x29 48 + x19: .cfa -8 + ^ x20: .cfa -16 + ^ x21: .cfa -32 + ^ .ra: .cfa -40 + ^ x29: .cfa -48 + ^
STACK CFI 14b28 .cfa: sp 48 +
STACK CFI 14b34 .cfa: sp 0 +
STACK CFI INIT 14d60 68 .cfa: sp 0 +
STACK CFI 14d64 .cfa: sp 32 +
STACK CFI 14d6c .cfa: x29 32 + x19: .cfa -8 + ^ x20: .cfa -16 + ^ .ra: .cfa -24 + ^ x29: .cfa -32 + ^
STACK CFI 14d84 .cfa: sp 32 +
STACK CFI 14d8c .cfa: sp 0 +
STACK CFI 14d90 .cfa: x29 32 +
STACK CFI 14dbc .cfa: sp 32 +
STACK CFI 14dc4 .cfa: sp 0 +
STACK CFI INIT 14dc8 14 .cfa: sp 0 +
STACK CFI 14dcc .cfa: sp 16 +
STACK CFI 14dd0 .cfa: x29 16 + .ra: .cfa -8 + ^ x29: .cfa -16 + ^
STACK CFI INIT 14ddc 4 .cfa: sp 0 +
STACK CFI INIT 14de0 14 .cfa: sp 0 +
STACK CFI INIT 14df4 120 .cfa: sp 0 +
STACK CFI 14df8 .cfa: sp 64 +
STACK CFI 14e08 .cfa: x29 64 + x19: .cfa -8 + ^ x20: .cfa -16 + ^ x21: .cfa -24 + ^ x22: .cfa -32 + ^ x23: .cfa -40 + ^ x24: .cfa -48 + ^ .ra: .cfa -56 + ^ x29: .cfa -64 + ^
STACK CFI 14f00 .cfa: sp 64 +
STACK CFI 14f10 .cfa: sp 0 +
STACK CFI INIT 14f14 4a4 .cfa: sp 0 +
STACK CFI 14f18 .cfa: sp 32 +
STACK CFI 14f20 .cfa: x29 32 + x19: .cfa -8 + ^ x20: .cfa -16 + ^ .ra: .cfa -24 + ^ x29: .cfa -32 + ^
STACK CFI 15300 .cfa: sp 32 +
STACK CFI 15308 .cfa: sp 0 +
STACK CFI 1530c .cfa: x29 32 +
STACK CFI INIT 153b8 84 .cfa: sp 0 +
STACK CFI 153c0 .cfa: sp 32 +
STACK CFI 153c8 .cfa: x29 32 + x19: .cfa -8 + ^ x20: .cfa -16 + ^ .ra: .cfa -24 + ^ x29: .cfa -32 + ^
STACK CFI 15408 .cfa: sp 32 +
STACK CFI 15410 .cfa: sp 0 +
STACK CFI 15418 .cfa: x29 32 +
STACK CFI INIT 15978 50 .cfa: sp 0 +
STACK CFI 1597c .cfa: sp 32 +
STACK CFI 15984 .cfa: x29 32 + x19: .cfa -16 + ^ .ra: .cfa -24 + ^ x29: .cfa -32 + ^
STACK CFI 1599c .cfa: sp 32 +
STACK CFI 159a4 .cfa: sp 0 +
STACK CFI 159a8 .cfa: x29 32 +
STACK CFI 159bc .cfa: sp 32 +
STACK CFI 159c4 .cfa: sp 0 +
STACK CFI INIT 159c8 64 .cfa: sp 0 +
STACK CFI 159cc .cfa: sp 32 +
STACK CFI 159d4 .cfa: x29 32 + x19: .cfa -16 + ^ .ra: .cfa -24 + ^ x29: .cfa -32 + ^
STACK CFI 15a00 .cfa: sp 32 +
STACK CFI 15a08 .cfa: sp 0 +
STACK CFI 15a0c .cfa: x29 32 +
STACK CFI 15a20 .cfa: sp 32 +
STACK CFI 15a28 .cfa: sp 0 +
STACK CFI INIT 15a2c 14 .cfa: sp 0 +
STACK CFI 15a30 .cfa: sp 16 +
STACK CFI 15a34 .cfa: x29 16 + .ra: .cfa -8 + ^ x29: .cfa -16 + ^
STACK CFI INIT 15a40 13c .cfa: sp 0 +
STACK CFI 15a44 .cfa: sp 80 +
STACK CFI 15a54 .cfa: x29 48 + x19: .cfa -8 + ^ x20: .cfa -16 + ^ x21: .cfa -24 + ^ x22: .cfa -32 + ^ .ra: .cfa -40 + ^ x29: .cfa -48 + ^
STACK CFI 15b64 .cfa: sp 80 +
STACK CFI 15b74 .cfa: sp 0 +
STACK CFI 15b78 .cfa: x29 48 +
STACK CFI INIT 15b7c 50 .cfa: sp 0 +
STACK CFI 15b80 .cfa: sp 32 +
STACK CFI 15b88 .cfa: x29 32 + x19: .cfa -16 + ^ .ra: .cfa -24 + ^ x29: .cfa -32 + ^
STACK CFI 15ba0 .cfa: sp 32 +
STACK CFI 15ba8 .cfa: sp 0 +
STACK CFI 15bac .cfa: x29 32 +
STACK CFI 15bc0 .cfa: sp 32 +
STACK CFI 15bc8 .cfa: sp 0 +
STACK CFI INIT 15bcc 168 .cfa: sp 0 +
STACK CFI 15bd0 .cfa: sp 80 +
STACK CFI 15be4 .cfa: x29 80 + x19: .cfa -8 + ^ x20: .cfa -16 + ^ x21: .cfa -24 + ^ x22: .cfa -32 + ^ x23: .cfa -40 + ^ x24: .cfa -48 + ^ x25: .cfa -56 + ^ x26: .cfa -64 + ^ .ra: .cfa -72 + ^ x29: .cfa -80 + ^
STACK CFI 15d1c .cfa: sp 80 +
STACK CFI 15d30 .cfa: sp 0 +
STACK CFI INIT 15d34 1b0 .cfa: sp 0 +
STACK CFI INIT 16538 4 .cfa: sp 0 +
STACK CFI INIT 16bd8 4 .cfa: sp 0 +
STACK CFI INIT 16bdc 14 .cfa: sp 0 +
STACK CFI INIT 16bf0 4 .cfa: sp 0 +
STACK CFI INIT 16bf4 14 .cfa: sp 0 +
STACK CFI INIT 16c08 4 .cfa: sp 0 +
STACK CFI INIT 16c0c 4 .cfa: sp 0 +
STACK CFI INIT 16c10 24 .cfa: sp 0 +
STACK CFI 16c14 .cfa: sp 16 +
STACK CFI 16c18 .cfa: x29 16 + .ra: .cfa -8 + ^ x29: .cfa -16 + ^
STACK CFI 16c2c .cfa: sp 16 +
STACK CFI 16c30 .cfa: sp 0 +
STACK CFI INIT 16c34 10 .cfa: sp 0 +
STACK CFI INIT 16c44 4 .cfa: sp 0 +
STACK CFI INIT 16c48 4 .cfa: sp 0 +
STACK CFI INIT 16d1c 1c .cfa: sp 0 +
STACK CFI INIT 16d38 c .cfa: sp 0 +
STACK CFI INIT 174a8 24 .cfa: sp 0 +
STACK CFI 174ac .cfa: sp 32 +
STACK CFI 174b4 .cfa: x29 32 + x19: .cfa -16 + ^ .ra: .cfa -24 + ^ x29: .cfa -32 + ^
STACK CFI 174c0 .cfa: sp 32 +
STACK CFI 174c8 .cfa: sp 0 +
STACK CFI INIT 174cc 8 .cfa: sp 0 +
STACK CFI INIT 174d4 8 .cfa: sp 0 +
STACK CFI INIT 174dc 8 .cfa: sp 0 +
STACK CFI INIT 174e4 4 .cfa: sp 0 +
STACK CFI INIT 174e8 8 .cfa: sp 0 +
STACK CFI INIT 174f0 bc .cfa: sp 0 +
STACK CFI 174f4 .cfa: sp 32 +
STACK CFI 174fc .cfa: x29 32 + x19: .cfa -8 + ^ x20: .cfa -16 + ^ .ra: .cfa -24 + ^ x29: .cfa -32 + ^
STACK CFI 17538 .cfa: sp 32 +
STACK CFI 17540 .cfa: sp 0 +
STACK CFI 17544 .cfa: x29 32 +
STACK CFI 175a0 .cfa: sp 32 +
STACK CFI 175a8 .cfa: sp 0 +
STACK CFI INIT 175ac cc .cfa: sp 0 +
STACK CFI 175b0 .cfa: sp 32 +
STACK CFI 175b8 .cfa: x29 32 + x19: .cfa -8 + ^ x20: .cfa -16 + ^ .ra: .cfa -24 + ^ x29: .cfa -32 + ^
STACK CFI 175fc .cfa: sp 32 +
STACK CFI 17604 .cfa: sp 0 +
STACK CFI 17608 .cfa: x29 32 +
STACK CFI 1766c .cfa: sp 32 +
STACK CFI 17674 .cfa: sp 0 +
STACK CFI INIT 17678 4 .cfa: sp 0 +
STACK CFI INIT 1767c 4 .cfa: sp 0 +
STACK CFI INIT 17680 8 .cfa: sp 0 +
STACK CFI INIT 17688 8 .cfa: sp 0 +
STACK CFI INIT 1793c 34 .cfa: sp 0 +
STACK CFI 17940 .cfa: sp 16 +
STACK CFI 17944 .cfa: x29 16 + .ra: .cfa -8 + ^ x29: .cfa -16 + ^
STACK CFI INIT 17970 c .cfa: sp 0 +
STACK CFI 17974 .cfa: sp 16 +
STACK CFI 17978 .cfa: x29 16 + .ra: .cfa -8 + ^ x29: .cfa -16 + ^
STACK CFI INIT 179cc 30 .cfa: sp 0 +
STACK CFI 179d0 .cfa: sp 32 +
STACK CFI 179d8 .cfa: x29 32 + x19: .cfa -16 + ^ .ra: .cfa -24 + ^ x29: .cfa -32 + ^
STACK CFI 179f0 .cfa: sp 32 +
STACK CFI 179f8 .cfa: sp 0 +
STACK CFI INIT 179fc 34 .cfa: sp 0 +
STACK CFI 17a00 .cfa: sp 16 +
STACK CFI 17a04 .cfa: x29 16 + .ra: .cfa -8 + ^ x29: .cfa -16 + ^
STACK CFI INIT 17a30 60 .cfa: sp 0 +
STACK CFI 17a34 .cfa: sp 32 +
STACK CFI 17a3c .cfa: x29 32 + x19: .cfa -8 + ^ x20: .cfa -16 + ^ .ra: .cfa -24 + ^ x29: .cfa -32 + ^
STACK CFI 17a5c .cfa: sp 32 +
STACK CFI 17a64 .cfa: sp 0 +
STACK CFI 17a68 .cfa: x29 32 +
STACK CFI 17a84 .cfa: sp 32 +
STACK CFI 17a8c .cfa: sp 0 +
STACK CFI INIT 1a8a8 50 .cfa: sp 0 +
STACK CFI 1a8ac .cfa: sp 32 +
STACK CFI 1a8b4 .cfa: x29 32 + x19: .cfa -8 + ^ x20: .cfa -16 + ^ .ra: .cfa -24 + ^ x29: .cfa -32 + ^
STACK CFI 1a8ec .cfa: sp 32 +
STACK CFI 1a8f4 .cfa: sp 0 +
STACK CFI INIT 1aa44 54 .cfa: sp 0 +
STACK CFI 1aa48 .cfa: sp 32 +
STACK CFI 1aa50 .cfa: x29 32 + x19: .cfa -16 + ^ .ra: .cfa -24 + ^ x29: .cfa -32 + ^
STACK CFI 1aa6c .cfa: sp 32 +
STACK CFI 1aa74 .cfa: sp 0 +
STACK CFI 1aa78 .cfa: x29 32 +
STACK CFI 1aa8c .cfa: sp 32 +
STACK CFI 1aa94 .cfa: sp 0 +
STACK CFI INIT 1aa98 14 .cfa: sp 0 +
STACK CFI 1aa9c .cfa: sp 16 +
STACK CFI 1aaa0 .cfa: x29 16 + .ra: .cfa -8 + ^ x29: .cfa -16 + ^
STACK CFI INIT 1aaac 4 .cfa: sp 0 +
STACK CFI INIT 1aab0 14 .cfa: sp 0 +
STACK CFI INIT 1b1d4 26c .cfa: sp 0 +
STACK CFI 1b1d8 .cfa: sp 112 +
STACK CFI 1b1f4 .cfa: x29 96 + x19: .cfa -8 + ^ x20: .cfa -16 + ^ x21: .cfa -24 + ^ x22: .cfa -32 + ^ x23: .cfa -40 + ^ x24: .cfa -48 + ^ x25: .cfa -56 + ^ x26: .cfa -64 + ^ x27: .cfa -72 + ^ x28: .cfa -80 + ^ .ra: .cfa -88 + ^ x29: .cfa -96 + ^
STACK CFI 1b420 .cfa: sp 112 +
STACK CFI 1b43c .cfa: sp 0 +
STACK CFI INIT 1b440 1a8 .cfa: sp 0 +
STACK CFI 1b444 .cfa: sp 64 +
STACK CFI 1b454 .cfa: x29 64 + x19: .cfa -8 + ^ x20: .cfa -16 + ^ x21: .cfa -24 + ^ x22: .cfa -32 + ^ x23: .cfa -48 + ^ .ra: .cfa -56 + ^ x29: .cfa -64 + ^
STACK CFI 1b4d8 .cfa: sp 64 +
STACK CFI 1b4e8 .cfa: sp 0 +
STACK CFI 1b4ec .cfa: x29 64 +
STACK CFI 1b4f4 .cfa: sp 64 +
STACK CFI 1b504 .cfa: sp 0 +
STACK CFI 1b508 .cfa: x29 64 +
STACK CFI 1b5d0 .cfa: sp 64 +
STACK CFI 1b5e0 .cfa: sp 0 +
STACK CFI 1b5e4 .cfa: x29 64 +
STACK CFI INIT 1b5e8 170 .cfa: sp 0 +
STACK CFI 1b5ec .cfa: sp 96 +
STACK CFI 1b604 .cfa: x29 96 + x19: .cfa -8 + ^ x20: .cfa -16 + ^ x21: .cfa -24 + ^ x22: .cfa -32 + ^ x23: .cfa -40 + ^ x24: .cfa -48 + ^ x25: .cfa -56 + ^ x26: .cfa -64 + ^ x27: .cfa -80 + ^ .ra: .cfa -88 + ^ x29: .cfa -96 + ^
STACK CFI 1b738 .cfa: sp 96 +
STACK CFI 1b750 .cfa: sp 0 +
STACK CFI 1b754 .cfa: x29 96 +
STACK CFI INIT 1b7a4 4 .cfa: sp 0 +
STACK CFI INIT 1b7a8 c .cfa: sp 0 +
STACK CFI INIT 1b7b4 4 .cfa: sp 0 +
STACK CFI INIT 1b7b8 4 .cfa: sp 0 +
STACK CFI INIT 1b7bc 24 .cfa: sp 0 +
STACK CFI 1b7c0 .cfa: sp 32 +
STACK CFI 1b7c8 .cfa: x29 32 + x19: .cfa -16 + ^ .ra: .cfa -24 + ^ x29: .cfa -32 + ^
STACK CFI 1b7d4 .cfa: sp 32 +
STACK CFI 1b7dc .cfa: sp 0 +
STACK CFI INIT 1b7e0 18 .cfa: sp 0 +
STACK CFI INIT 1b7f8 1c .cfa: sp 0 +
STACK CFI INIT 1b814 4 .cfa: sp 0 +
STACK CFI INIT 1b818 48 .cfa: sp 0 +
STACK CFI 1b834 .cfa: sp 32 +
STACK CFI 1b83c .cfa: x29 32 + x19: .cfa -16 + ^ .ra: .cfa -24 + ^ x29: .cfa -32 + ^
STACK CFI 1b854 .cfa: sp 32 +
STACK CFI 1b85c .cfa: sp 0 +
STACK CFI INIT 1b860 14 .cfa: sp 0 +
STACK CFI INIT 1b874 48 .cfa: sp 0 +
STACK CFI 1b890 .cfa: sp 32 +
STACK CFI 1b898 .cfa: x29 32 + x19: .cfa -16 + ^ .ra: .cfa -24 + ^ x29: .cfa -32 + ^
STACK CFI 1b8b0 .cfa: sp 32 +
STACK CFI 1b8b8 .cfa: sp 0 +
STACK CFI INIT 1c264 3f4 .cfa: sp 0 +
STACK CFI 1c268 .cfa: sp 32 +
STACK CFI 1c270 .cfa: x29 32 + x19: .cfa -16 + ^ .ra: .cfa -24 + ^ x29: .cfa -32 + ^
STACK CFI 1c3bc .cfa: sp 32 +
STACK CFI 1c3c4 .cfa: sp 0 +
STACK CFI 1c3c8 .cfa: x29 32 +
STACK CFI 1c3d0 .cfa: sp 32 +
STACK CFI 1c3d8 .cfa: sp 0 +
STACK CFI 1c3dc .cfa: x29 32 +
STACK CFI 1c418 .cfa: sp 32 +
STACK CFI 1c420 .cfa: sp 0 +
STACK CFI 1c424 .cfa: x29 32 +
STACK CFI 1c460 .cfa: sp 32 +
STACK CFI 1c468 .cfa: sp 0 +
STACK CFI 1c46c .cfa: x29 32 +
STACK CFI 1c498 .cfa: sp 32 +
STACK CFI 1c4a0 .cfa: sp 0 +
STACK CFI 1c4a4 .cfa: x29 32 +
STACK CFI 1c4c0 .cfa: sp 32 +
STACK CFI 1c4c8 .cfa: sp 0 +
STACK CFI 1c4cc .cfa: x29 32 +
STACK CFI 1c530 .cfa: sp 32 +
STACK CFI 1c538 .cfa: sp 0 +
STACK CFI 1c53c .cfa: x29 32 +
STACK CFI 1c60c .cfa: sp 32 +
STACK CFI 1c614 .cfa: sp 0 +
STACK CFI 1c618 .cfa: x29 32 +
STACK CFI 1c644 .cfa: sp 32 +
STACK CFI 1c64c .cfa: sp 0 +
STACK CFI 1c650 .cfa: x29 32 +
STACK CFI INIT 1c6c4 b4 .cfa: sp 0 +
STACK CFI 1c6c8 .cfa: sp 64 +
STACK CFI 1c6d8 .cfa: x29 64 + x19: .cfa -8 + ^ x20: .cfa -16 + ^ x21: .cfa -24 + ^ x22: .cfa -32 + ^ x23: .cfa -48 + ^ .ra: .cfa -56 + ^ x29: .cfa -64 + ^
STACK CFI 1c764 .cfa: sp 64 +
STACK CFI 1c774 .cfa: sp 0 +
STACK CFI INIT 1c7c4 48 .cfa: sp 0 +
STACK CFI 1c7e0 .cfa: sp 32 +
STACK CFI 1c7e8 .cfa: x29 32 + x19: .cfa -16 + ^ .ra: .cfa -24 + ^ x29: .cfa -32 + ^
STACK CFI 1c800 .cfa: sp 32 +
STACK CFI 1c808 .cfa: sp 0 +
STACK CFI INIT 1c80c 64 .cfa: sp 0 +
STACK CFI INIT 1c870 48 .cfa: sp 0 +
STACK CFI 1c88c .cfa: sp 32 +
STACK CFI 1c894 .cfa: x29 32 + x19: .cfa -16 + ^ .ra: .cfa -24 + ^ x29: .cfa -32 + ^
STACK CFI 1c8ac .cfa: sp 32 +
STACK CFI 1c8b4 .cfa: sp 0 +
STACK CFI INIT 1c8b8 54 .cfa: sp 0 +
STACK CFI INIT 1c90c 5c .cfa: sp 0 +
STACK CFI 1c910 .cfa: sp 32 +
STACK CFI 1c918 .cfa: x29 32 + x19: .cfa -16 + ^ .ra: .cfa -24 + ^ x29: .cfa -32 + ^
STACK CFI 1c950 .cfa: sp 32 +
STACK CFI 1c958 .cfa: sp 0 +
STACK CFI 1c95c .cfa: sp 32 +
STACK CFI 1c964 .cfa: sp 0 +
STACK CFI INIT 1c968 58 .cfa: sp 0 +
STACK CFI 1c96c .cfa: sp 32 +
STACK CFI 1c974 .cfa: x29 32 + x19: .cfa -16 + ^ .ra: .cfa -24 + ^ x29: .cfa -32 + ^
STACK CFI 1c9b4 .cfa: sp 32 +
STACK CFI 1c9bc .cfa: sp 0 +
STACK CFI INIT 1c9c0 110 .cfa: sp 0 +
STACK CFI INIT 1cad0 90 .cfa: sp 0 +
STACK CFI 1cad4 .cfa: sp 32 +
STACK CFI 1cadc .cfa: x29 32 + x19: .cfa -8 + ^ x20: .cfa -16 + ^ .ra: .cfa -24 + ^ x29: .cfa -32 + ^
STACK CFI 1cb48 .cfa: sp 32 +
STACK CFI 1cb50 .cfa: sp 0 +
STACK CFI 1cb54 .cfa: sp 32 +
STACK CFI 1cb5c .cfa: sp 0 +
STACK CFI INIT 1cb60 8c .cfa: sp 0 +
STACK CFI 1cb64 .cfa: sp 32 +
STACK CFI 1cb6c .cfa: x29 32 + x19: .cfa -8 + ^ x20: .cfa -16 + ^ .ra: .cfa -24 + ^ x29: .cfa -32 + ^
STACK CFI 1cbe0 .cfa: sp 32 +
STACK CFI 1cbe8 .cfa: sp 0 +
STACK CFI INIT 1d20c 1c8 .cfa: sp 0 +
STACK CFI 1d210 .cfa: sp 48 +
STACK CFI 1d21c .cfa: x29 48 + x19: .cfa -8 + ^ x20: .cfa -16 + ^ x21: .cfa -24 + ^ x22: .cfa -32 + ^ .ra: .cfa -40 + ^ x29: .cfa -48 + ^
STACK CFI 1d3a4 .cfa: sp 48 +
STACK CFI 1d3b0 .cfa: sp 0 +
STACK CFI 1d3b4 .cfa: x29 48 +
STACK CFI 1d3c0 .cfa: sp 48 +
STACK CFI 1d3cc .cfa: sp 0 +
STACK CFI 1d3d0 .cfa: x29 48 +
STACK CFI INIT 1d3d4 14 .cfa: sp 0 +
STACK CFI 1d3d8 .cfa: sp 16 +
STACK CFI 1d3dc .cfa: x29 16 + .ra: .cfa -8 + ^ x29: .cfa -16 + ^
STACK CFI INIT 1d3e8 44 .cfa: sp 0 +
STACK CFI 1d3ec .cfa: sp 32 +
STACK CFI 1d3f4 .cfa: x29 32 + x19: .cfa -16 + ^ .ra: .cfa -24 + ^ x29: .cfa -32 + ^
STACK CFI 1d414 .cfa: sp 32 +
STACK CFI 1d41c .cfa: sp 0 +
STACK CFI 1d420 .cfa: sp 32 +
STACK CFI 1d428 .cfa: sp 0 +
STACK CFI INIT 1d634 98 .cfa: sp 0 +
STACK CFI 1d638 .cfa: sp 48 +
STACK CFI 1d644 .cfa: x29 48 + x19: .cfa -8 + ^ x20: .cfa -16 + ^ x21: .cfa -32 + ^ .ra: .cfa -40 + ^ x29: .cfa -48 + ^
STACK CFI 1d664 .cfa: sp 48 +
STACK CFI 1d670 .cfa: sp 0 +
STACK CFI 1d674 .cfa: x29 48 +
STACK CFI 1d6ac .cfa: sp 48 +
STACK CFI 1d6b8 .cfa: sp 0 +
STACK CFI 1d6bc .cfa: sp 48 +
STACK CFI 1d6c8 .cfa: sp 0 +
STACK CFI INIT 1d6cc 1dc .cfa: sp 0 +
STACK CFI 1d6d0 .cfa: sp 48 +
STACK CFI 1d6dc .cfa: x29 48 + x19: .cfa -8 + ^ x20: .cfa -16 + ^ x21: .cfa -24 + ^ x22: .cfa -32 + ^ .ra: .cfa -40 + ^ x29: .cfa -48 + ^
STACK CFI 1d890 .cfa: sp 48 +
STACK CFI 1d89c .cfa: sp 0 +
STACK CFI 1d8a0 .cfa: x29 48 +
STACK CFI INIT 1d8a8 14 .cfa: sp 0 +
STACK CFI 1d8ac .cfa: sp 16 +
STACK CFI 1d8b0 .cfa: x29 16 + .ra: .cfa -8 + ^ x29: .cfa -16 + ^
STACK CFI INIT 1d8bc 1a8 .cfa: sp 0 +
STACK CFI 1d8c0 .cfa: sp 64 +
STACK CFI 1d8d0 .cfa: x29 64 + x19: .cfa -8 + ^ x20: .cfa -16 + ^ x21: .cfa -24 + ^ x22: .cfa -32 + ^ x23: .cfa -40 + ^ x24: .cfa -48 + ^ .ra: .cfa -56 + ^ x29: .cfa -64 + ^
STACK CFI 1da34 .cfa: sp 64 +
STACK CFI 1da44 .cfa: sp 0 +
STACK CFI 1da48 .cfa: sp 64 +
STACK CFI 1da58 .cfa: sp 0 +
STACK CFI 1da5c .cfa: x29 64 +
STACK CFI INIT 1da64 12c .cfa: sp 0 +
STACK CFI 1da68 .cfa: sp 64 +
STACK CFI 1da78 .cfa: x29 64 + x19: .cfa -8 + ^ x20: .cfa -16 + ^ x21: .cfa -24 + ^ x22: .cfa -32 + ^ x23: .cfa -40 + ^ x24: .cfa -48 + ^ .ra: .cfa -56 + ^ x29: .cfa -64 + ^
STACK CFI 1db60 .cfa: sp 64 +
STACK CFI 1db70 .cfa: sp 0 +
STACK CFI 1db74 .cfa: sp 64 +
STACK CFI 1db84 .cfa: sp 0 +
STACK CFI 1db88 .cfa: x29 64 +
STACK CFI INIT 1db90 14 .cfa: sp 0 +
STACK CFI 1db94 .cfa: sp 16 +
STACK CFI 1db98 .cfa: x29 16 + .ra: .cfa -8 + ^ x29: .cfa -16 + ^
STACK CFI INIT 1ece4 48 .cfa: sp 0 +
STACK CFI 1ed00 .cfa: sp 32 +
STACK CFI 1ed08 .cfa: x29 32 + x19: .cfa -16 + ^ .ra: .cfa -24 + ^ x29: .cfa -32 + ^
STACK CFI 1ed20 .cfa: sp 32 +
STACK CFI 1ed28 .cfa: sp 0 +
STACK CFI INIT 1ed78 50c .cfa: sp 0 +
STACK CFI 1ed7c .cfa: sp 32 +
STACK CFI 1ed84 .cfa: x29 32 + x19: .cfa -16 + ^ .ra: .cfa -24 + ^ x29: .cfa -32 + ^
STACK CFI 1eecc .cfa: sp 32 +
STACK CFI 1eed4 .cfa: sp 0 +
STACK CFI 1eed8 .cfa: x29 32 +
STACK CFI 1f048 .cfa: sp 32 +
STACK CFI 1f050 .cfa: sp 0 +
STACK CFI 1f054 .cfa: x29 32 +
STACK CFI 1f070 .cfa: sp 32 +
STACK CFI 1f078 .cfa: sp 0 +
STACK CFI 1f07c .cfa: x29 32 +
STACK CFI 1f0d8 .cfa: sp 32 +
STACK CFI 1f0e0 .cfa: sp 0 +
STACK CFI 1f0e4 .cfa: x29 32 +
STACK CFI 1f100 .cfa: sp 32 +
STACK CFI 1f108 .cfa: sp 0 +
STACK CFI 1f10c .cfa: x29 32 +
STACK CFI 1f128 .cfa: sp 32 +
STACK CFI 1f130 .cfa: sp 0 +
STACK CFI 1f134 .cfa: x29 32 +
STACK CFI 1f150 .cfa: sp 32 +
STACK CFI 1f158 .cfa: sp 0 +
STACK CFI 1f15c .cfa: x29 32 +
STACK CFI 1f174 .cfa: sp 32 +
STACK CFI 1f17c .cfa: sp 0 +
STACK CFI 1f180 .cfa: x29 32 +
STACK CFI 1f19c .cfa: sp 32 +
STACK CFI 1f1a4 .cfa: sp 0 +
STACK CFI 1f1a8 .cfa: x29 32 +
STACK CFI 1f1c4 .cfa: sp 32 +
STACK CFI 1f1cc .cfa: sp 0 +
STACK CFI 1f1d0 .cfa: x29 32 +
STACK CFI 1f1ec .cfa: sp 32 +
STACK CFI 1f1f4 .cfa: sp 0 +
STACK CFI 1f1f8 .cfa: x29 32 +
STACK CFI 1f24c .cfa: sp 32 +
STACK CFI 1f254 .cfa: sp 0 +
STACK CFI 1f258 .cfa: x29 32 +
STACK CFI 1f274 .cfa: sp 32 +
STACK CFI 1f27c .cfa: sp 0 +
STACK CFI 1f280 .cfa: x29 32 +
STACK CFI INIT 1f410 c8 .cfa: sp 0 +
STACK CFI 1f414 .cfa: sp 48 +
STACK CFI 1f420 .cfa: x29 48 + x19: .cfa -8 + ^ x20: .cfa -16 + ^ x21: .cfa -32 + ^ .ra: .cfa -40 + ^ x29: .cfa -48 + ^
STACK CFI 1f4c8 .cfa: sp 48 +
STACK CFI 1f4d4 .cfa: sp 0 +
STACK CFI INIT 1f4d8 5c .cfa: sp 0 +
STACK CFI 1f4dc .cfa: sp 32 +
STACK CFI 1f4e4 .cfa: x29 32 + x19: .cfa -16 + ^ .ra: .cfa -24 + ^ x29: .cfa -32 + ^
STACK CFI 1f51c .cfa: sp 32 +
STACK CFI 1f524 .cfa: sp 0 +
STACK CFI 1f528 .cfa: sp 32 +
STACK CFI 1f530 .cfa: sp 0 +
STACK CFI INIT 1f534 58 .cfa: sp 0 +
STACK CFI 1f538 .cfa: sp 32 +
STACK CFI 1f540 .cfa: x29 32 + x19: .cfa -16 + ^ .ra: .cfa -24 + ^ x29: .cfa -32 + ^
STACK CFI 1f580 .cfa: sp 32 +
STACK CFI 1f588 .cfa: sp 0 +
STACK CFI INIT 1f58c 80 .cfa: sp 0 +
STACK CFI 1f590 .cfa: sp 32 +
STACK CFI 1f598 .cfa: x29 32 + x19: .cfa -8 + ^ x20: .cfa -16 + ^ .ra: .cfa -24 + ^ x29: .cfa -32 + ^
STACK CFI 1f5e8 .cfa: sp 32 +
STACK CFI 1f5f0 .cfa: sp 0 +
STACK CFI 1f5f4 .cfa: x29 32 +
STACK CFI 1f600 .cfa: sp 32 +
STACK CFI 1f608 .cfa: sp 0 +
STACK CFI INIT 1f60c 5c .cfa: sp 0 +
STACK CFI 1f610 .cfa: sp 32 +
STACK CFI 1f618 .cfa: x29 32 + x19: .cfa -16 + ^ .ra: .cfa -24 + ^ x29: .cfa -32 + ^
STACK CFI 1f650 .cfa: sp 32 +
STACK CFI 1f658 .cfa: sp 0 +
STACK CFI 1f65c .cfa: sp 32 +
STACK CFI 1f664 .cfa: sp 0 +
STACK CFI INIT 1f668 58 .cfa: sp 0 +
STACK CFI 1f66c .cfa: sp 32 +
STACK CFI 1f674 .cfa: x29 32 + x19: .cfa -16 + ^ .ra: .cfa -24 + ^ x29: .cfa -32 + ^
STACK CFI 1f6b4 .cfa: sp 32 +
STACK CFI 1f6bc .cfa: sp 0 +
STACK CFI INIT 1f6c0 48 .cfa: sp 0 +
STACK CFI INIT 1f708 48 .cfa: sp 0 +
STACK CFI 1f724 .cfa: sp 32 +
STACK CFI 1f72c .cfa: x29 32 + x19: .cfa -16 + ^ .ra: .cfa -24 + ^ x29: .cfa -32 + ^
STACK CFI 1f744 .cfa: sp 32 +
STACK CFI 1f74c .cfa: sp 0 +
STACK CFI INIT 1f750 48 .cfa: sp 0 +
STACK CFI INIT 1f798 5c .cfa: sp 0 +
STACK CFI 1f79c .cfa: sp 32 +
STACK CFI 1f7a4 .cfa: x29 32 + x19: .cfa -16 + ^ .ra: .cfa -24 + ^ x29: .cfa -32 + ^
STACK CFI 1f7dc .cfa: sp 32 +
STACK CFI 1f7e4 .cfa: sp 0 +
STACK CFI 1f7e8 .cfa: sp 32 +
STACK CFI 1f7f0 .cfa: sp 0 +
STACK CFI INIT 1f7f4 58 .cfa: sp 0 +
STACK CFI 1f7f8 .cfa: sp 32 +
STACK CFI 1f800 .cfa: x29 32 + x19: .cfa -16 + ^ .ra: .cfa -24 + ^ x29: .cfa -32 + ^
STACK CFI 1f840 .cfa: sp 32 +
STACK CFI 1f848 .cfa: sp 0 +
STACK CFI INIT 1f84c f8 .cfa: sp 0 +
STACK CFI 1f850 .cfa: sp 64 +
STACK CFI 1f860 .cfa: x29 64 + x19: .cfa -8 + ^ x20: .cfa -16 + ^ x21: .cfa -24 + ^ x22: .cfa -32 + ^ x23: .cfa -40 + ^ x24: .cfa -48 + ^ .ra: .cfa -56 + ^ x29: .cfa -64 + ^
STACK CFI 1f8a4 .cfa: sp 64 +
STACK CFI 1f8b4 .cfa: sp 0 +
STACK CFI 1f8b8 .cfa: x29 64 +
STACK CFI 1f930 .cfa: sp 64 +
STACK CFI 1f940 .cfa: sp 0 +
STACK CFI INIT 1f944 5c .cfa: sp 0 +
STACK CFI 1f948 .cfa: sp 32 +
STACK CFI 1f950 .cfa: x29 32 + x19: .cfa -16 + ^ .ra: .cfa -24 + ^ x29: .cfa -32 + ^
STACK CFI 1f988 .cfa: sp 32 +
STACK CFI 1f990 .cfa: sp 0 +
STACK CFI 1f994 .cfa: sp 32 +
STACK CFI 1f99c .cfa: sp 0 +
STACK CFI INIT 1f9a0 58 .cfa: sp 0 +
STACK CFI 1f9a4 .cfa: sp 32 +
STACK CFI 1f9ac .cfa: x29 32 + x19: .cfa -16 + ^ .ra: .cfa -24 + ^ x29: .cfa -32 + ^
STACK CFI 1f9ec .cfa: sp 32 +
STACK CFI 1f9f4 .cfa: sp 0 +
STACK CFI INIT 1f9f8 90 .cfa: sp 0 +
STACK CFI INIT 1fa88 48 .cfa: sp 0 +
STACK CFI 1faa4 .cfa: sp 32 +
STACK CFI 1faac .cfa: x29 32 + x19: .cfa -16 + ^ .ra: .cfa -24 + ^ x29: .cfa -32 + ^
STACK CFI 1fac4 .cfa: sp 32 +
STACK CFI 1facc .cfa: sp 0 +
STACK CFI INIT 1fad0 d0 .cfa: sp 0 +
STACK CFI 1fad4 .cfa: sp 48 +
STACK CFI 1fae0 .cfa: x29 48 + x19: .cfa -8 + ^ x20: .cfa -16 + ^ x21: .cfa -24 + ^ x22: .cfa -32 + ^ .ra: .cfa -40 + ^ x29: .cfa -48 + ^
STACK CFI 1fb64 .cfa: sp 48 +
STACK CFI 1fb70 .cfa: sp 0 +
STACK CFI 1fb74 .cfa: x29 48 +
STACK CFI 1fb8c .cfa: sp 48 +
STACK CFI 1fb98 .cfa: sp 0 +
STACK CFI 1fb9c .cfa: x29 48 +
STACK CFI INIT 1fba0 4b0 .cfa: sp 0 +
STACK CFI 1fba4 .cfa: sp 80 +
STACK CFI 1fbb8 .cfa: x29 80 + x19: .cfa -8 + ^ x20: .cfa -16 + ^ x21: .cfa -24 + ^ x22: .cfa -32 + ^ x23: .cfa -40 + ^ x24: .cfa -48 + ^ x25: .cfa -64 + ^ .ra: .cfa -72 + ^ x29: .cfa -80 + ^
STACK CFI 1fbec .cfa: sp 80 +
STACK CFI 1fc00 .cfa: sp 0 +
STACK CFI 1fc04 .cfa: x29 80 +
STACK CFI 1ffc4 .cfa: sp 80 +
STACK CFI 1ffd8 .cfa: sp 0 +
STACK CFI 1ffdc .cfa: x29 80 +
STACK CFI 20034 .cfa: sp 80 +
STACK CFI 20048 .cfa: sp 0 +
STACK CFI 2004c .cfa: x29 80 +
STACK CFI INIT 2022c a4 .cfa: sp 0 +
STACK CFI 20230 .cfa: sp 48 +
STACK CFI 2023c .cfa: x29 48 + x19: .cfa -8 + ^ x20: .cfa -16 + ^ x21: .cfa -32 + ^ .ra: .cfa -40 + ^ x29: .cfa -48 + ^
STACK CFI 2025c .cfa: sp 48 +
STACK CFI 20268 .cfa: sp 0 +
STACK CFI 2026c .cfa: x29 48 +
STACK CFI 202b0 .cfa: sp 48 +
STACK CFI 202bc .cfa: sp 0 +
STACK CFI 202c0 .cfa: sp 48 +
STACK CFI 202cc .cfa: sp 0 +
STACK CFI INIT 202d0 14c .cfa: sp 0 +
STACK CFI 202d4 .cfa: sp 48 +
STACK CFI 202e0 .cfa: x29 48 + x19: .cfa -8 + ^ x20: .cfa -16 + ^ x21: .cfa -32 + ^ .ra: .cfa -40 + ^ x29: .cfa -48 + ^
STACK CFI 203fc .cfa: sp 48 +
STACK CFI 20408 .cfa: sp 0 +
STACK CFI 2040c .cfa: sp 48 +
STACK CFI 20418 .cfa: sp 0 +
STACK CFI INIT 2041c 24 .cfa: sp 0 +
STACK CFI 20420 .cfa: sp 32 +
STACK CFI 20428 .cfa: x29 32 + x19: .cfa -16 + ^ .ra: .cfa -24 + ^ x29: .cfa -32 + ^
STACK CFI 20434 .cfa: sp 32 +
STACK CFI 2043c .cfa: sp 0 +
STACK CFI INIT 210ac 44 .cfa: sp 0 +
STACK CFI 210b0 .cfa: sp 32 +
STACK CFI 210b8 .cfa: x29 32 + x19: .cfa -16 + ^ .ra: .cfa -24 + ^ x29: .cfa -32 + ^
STACK CFI 210d4 .cfa: sp 32 +
STACK CFI 210dc .cfa: sp 0 +
STACK CFI 210e0 .cfa: x29 32 +
STACK CFI 210e4 .cfa: sp 32 +
STACK CFI 210ec .cfa: sp 0 +
STACK CFI INIT 212b4 14 .cfa: sp 0 +
STACK CFI 212b8 .cfa: sp 16 +
STACK CFI 212bc .cfa: x29 16 + .ra: .cfa -8 + ^ x29: .cfa -16 + ^
STACK CFI INIT 21314 5c8 .cfa: sp 0 +
STACK CFI 21318 .cfa: sp 80 +
STACK CFI 2132c .cfa: x29 80 + x19: .cfa -8 + ^ x20: .cfa -16 + ^ x21: .cfa -24 + ^ x22: .cfa -32 + ^ x23: .cfa -40 + ^ x24: .cfa -48 + ^ x25: .cfa -56 + ^ x26: .cfa -64 + ^ .ra: .cfa -72 + ^ x29: .cfa -80 + ^
STACK CFI 2141c .cfa: sp 80 +
STACK CFI 21430 .cfa: sp 0 +
STACK CFI 21434 .cfa: x29 80 +
STACK CFI 21488 .cfa: sp 80 +
STACK CFI 2149c .cfa: sp 0 +
STACK CFI 214a0 .cfa: x29 80 +
STACK CFI 218bc .cfa: sp 80 +
STACK CFI 218d0 .cfa: sp 0 +
STACK CFI 218d4 .cfa: x29 80 +
STACK CFI INIT 218dc 4c4 .cfa: sp 0 +
STACK CFI 218e0 .cfa: sp 32 +
STACK CFI 218e8 .cfa: x29 32 + x19: .cfa -16 + ^ .ra: .cfa -24 + ^ x29: .cfa -32 + ^
STACK CFI 2193c .cfa: sp 32 +
STACK CFI 21944 .cfa: sp 0 +
STACK CFI 21948 .cfa: x29 32 +
STACK CFI 21988 .cfa: sp 32 +
STACK CFI 21990 .cfa: sp 0 +
STACK CFI 21994 .cfa: x29 32 +
STACK CFI 219c4 .cfa: sp 32 +
STACK CFI 219cc .cfa: sp 0 +
STACK CFI 219d0 .cfa: x29 32 +
STACK CFI 21a00 .cfa: sp 32 +
STACK CFI 21a08 .cfa: sp 0 +
STACK CFI 21a0c .cfa: x29 32 +
STACK CFI 21a1c .cfa: sp 32 +
STACK CFI 21a24 .cfa: sp 0 +
STACK CFI 21a28 .cfa: x29 32 +
STACK CFI 21a48 .cfa: sp 32 +
STACK CFI 21a50 .cfa: sp 0 +
STACK CFI 21a54 .cfa: x29 32 +
STACK CFI 21a74 .cfa: sp 32 +
STACK CFI 21a7c .cfa: sp 0 +
STACK CFI 21a80 .cfa: x29 32 +
STACK CFI 21aa0 .cfa: sp 32 +
STACK CFI 21aa8 .cfa: sp 0 +
STACK CFI 21aac .cfa: x29 32 +
STACK CFI 21acc .cfa: sp 32 +
STACK CFI 21ad4 .cfa: sp 0 +
STACK CFI 21ad8 .cfa: x29 32 +
STACK CFI 21b5c .cfa: sp 32 +
STACK CFI 21b64 .cfa: sp 0 +
STACK CFI 21b68 .cfa: x29 32 +
STACK CFI 21b78 .cfa: sp 32 +
STACK CFI 21b80 .cfa: sp 0 +
STACK CFI 21b84 .cfa: x29 32 +
STACK CFI 21b94 .cfa: sp 32 +
STACK CFI 21b9c .cfa: sp 0 +
STACK CFI 21ba0 .cfa: x29 32 +
STACK CFI 21bb0 .cfa: sp 32 +
STACK CFI 21bb8 .cfa: sp 0 +
STACK CFI 21bbc .cfa: x29 32 +
STACK CFI 21bcc .cfa: sp 32 +
STACK CFI 21bd4 .cfa: sp 0 +
STACK CFI 21bd8 .cfa: x29 32 +
STACK CFI 21be8 .cfa: sp 32 +
STACK CFI 21bf0 .cfa: sp 0 +
STACK CFI 21bf4 .cfa: x29 32 +
STACK CFI 21c04 .cfa: sp 32 +
STACK CFI 21c0c .cfa: sp 0 +
STACK CFI 21c10 .cfa: x29 32 +
STACK CFI 21c20 .cfa: sp 32 +
STACK CFI 21c28 .cfa: sp 0 +
STACK CFI 21c2c .cfa: x29 32 +
STACK CFI 21c50 .cfa: sp 32 +
STACK CFI 21c58 .cfa: sp 0 +
STACK CFI 21c5c .cfa: x29 32 +
STACK CFI 21c74 .cfa: sp 32 +
STACK CFI 21c7c .cfa: sp 0 +
STACK CFI 21c80 .cfa: x29 32 +
STACK CFI 21c98 .cfa: sp 32 +
STACK CFI 21ca0 .cfa: sp 0 +
STACK CFI 21ca4 .cfa: x29 32 +
STACK CFI 21cbc .cfa: sp 32 +
STACK CFI 21cc4 .cfa: sp 0 +
STACK CFI 21cc8 .cfa: x29 32 +
STACK CFI 21ce0 .cfa: sp 32 +
STACK CFI 21ce8 .cfa: sp 0 +
STACK CFI 21cec .cfa: x29 32 +
STACK CFI 21d04 .cfa: sp 32 +
STACK CFI 21d0c .cfa: sp 0 +
STACK CFI 21d10 .cfa: x29 32 +
STACK CFI 21d28 .cfa: sp 32 +
STACK CFI 21d30 .cfa: sp 0 +
STACK CFI 21d34 .cfa: x29 32 +
STACK CFI 21d4c .cfa: sp 32 +
STACK CFI 21d54 .cfa: sp 0 +
STACK CFI 21d58 .cfa: x29 32 +
STACK CFI 21d70 .cfa: sp 32 +
STACK CFI 21d78 .cfa: sp 0 +
STACK CFI 21d7c .cfa: x29 32 +
STACK CFI 21d90 .cfa: sp 32 +
STACK CFI 21d98 .cfa: sp 0 +
STACK CFI 21d9c .cfa: x29 32 +
STACK CFI INIT 21da0 420 .cfa: sp 0 +
STACK CFI 21da4 .cfa: sp 80 +
STACK CFI 21db8 .cfa: x29 80 + x19: .cfa -8 + ^ x20: .cfa -16 + ^ x21: .cfa -24 + ^ x22: .cfa -32 + ^ x23: .cfa -40 + ^ x24: .cfa -48 + ^ x25: .cfa -64 + ^ .ra: .cfa -72 + ^ x29: .cfa -80 + ^
STACK CFI 21e0c .cfa: sp 80 +
STACK CFI 21e20 .cfa: sp 0 +
STACK CFI 21e24 .cfa: x29 80 +
STACK CFI 21fcc .cfa: sp 80 +
STACK CFI 21fe0 .cfa: sp 0 +
STACK CFI 21fe4 .cfa: x29 80 +
STACK CFI 221a0 .cfa: sp 80 +
STACK CFI 221b4 .cfa: sp 0 +
STACK CFI 221b8 .cfa: x29 80 +
STACK CFI INIT 2270c 1a8 .cfa: sp 0 +
STACK CFI 22710 .cfa: sp 48 +
STACK CFI 2271c .cfa: x29 48 + x19: .cfa -8 + ^ x20: .cfa -16 + ^ x21: .cfa -24 + ^ x22: .cfa -32 + ^ .ra: .cfa -40 + ^ x29: .cfa -48 + ^
STACK CFI 2289c .cfa: sp 48 +
STACK CFI 228a8 .cfa: sp 0 +
STACK CFI 228ac .cfa: x29 48 +
STACK CFI INIT 228b4 14 .cfa: sp 0 +
STACK CFI 228b8 .cfa: sp 16 +
STACK CFI 228bc .cfa: x29 16 + .ra: .cfa -8 + ^ x29: .cfa -16 + ^
STACK CFI INIT 228c8 14 .cfa: sp 0 +
STACK CFI 228cc .cfa: sp 16 +
STACK CFI 228d0 .cfa: x29 16 + .ra: .cfa -8 + ^ x29: .cfa -16 + ^
STACK CFI INIT 228dc 48 .cfa: sp 0 +
STACK CFI 228f8 .cfa: sp 32 +
STACK CFI 22900 .cfa: x29 32 + x19: .cfa -16 + ^ .ra: .cfa -24 + ^ x29: .cfa -32 + ^
STACK CFI 22918 .cfa: sp 32 +
STACK CFI 22920 .cfa: sp 0 +
STACK CFI INIT 22924 30 .cfa: sp 0 +
STACK CFI INIT 22954 48 .cfa: sp 0 +
STACK CFI 22970 .cfa: sp 32 +
STACK CFI 22978 .cfa: x29 32 + x19: .cfa -16 + ^ .ra: .cfa -24 + ^ x29: .cfa -32 + ^
STACK CFI 22990 .cfa: sp 32 +
STACK CFI 22998 .cfa: sp 0 +
STACK CFI INIT 2299c 38 .cfa: sp 0 +
STACK CFI INIT 22bac 68 .cfa: sp 0 +
STACK CFI 22bb0 .cfa: sp 32 +
STACK CFI 22bb8 .cfa: x29 32 + x19: .cfa -16 + ^ .ra: .cfa -24 + ^ x29: .cfa -32 + ^
STACK CFI 22c08 .cfa: sp 32 +
STACK CFI 22c10 .cfa: sp 0 +
STACK CFI INIT 22c14 1c4 .cfa: sp 0 +
STACK CFI INIT 22dd8 c4 .cfa: sp 0 +
STACK CFI INIT 22e9c 68 .cfa: sp 0 +
STACK CFI 22ea0 .cfa: sp 32 +
STACK CFI 22ea8 .cfa: x29 32 + x19: .cfa -16 + ^ .ra: .cfa -24 + ^ x29: .cfa -32 + ^
STACK CFI 22ef8 .cfa: sp 32 +
STACK CFI 22f00 .cfa: sp 0 +
STACK CFI INIT 22f04 4 .cfa: sp 0 +
STACK CFI INIT 22f08 14 .cfa: sp 0 +
STACK CFI INIT 22f1c 6c .cfa: sp 0 +
STACK CFI 22f20 .cfa: sp 32 +
STACK CFI 22f28 .cfa: x29 32 + x19: .cfa -16 + ^ .ra: .cfa -24 + ^ x29: .cfa -32 + ^
STACK CFI 22f70 .cfa: sp 32 +
STACK CFI 22f78 .cfa: sp 0 +
STACK CFI 22f7c .cfa: sp 32 +
STACK CFI 22f84 .cfa: sp 0 +
STACK CFI INIT 22f88 68 .cfa: sp 0 +
STACK CFI 22f8c .cfa: sp 32 +
STACK CFI 22f94 .cfa: x29 32 + x19: .cfa -16 + ^ .ra: .cfa -24 + ^ x29: .cfa -32 + ^
STACK CFI 22fe4 .cfa: sp 32 +
STACK CFI 22fec .cfa: sp 0 +
STACK CFI INIT 22ff0 c .cfa: sp 0 +
STACK CFI INIT 22ffc 24 .cfa: sp 0 +
STACK CFI INIT 23020 4 .cfa: sp 0 +
STACK CFI INIT 23024 4 .cfa: sp 0 +
STACK CFI INIT 23028 14 .cfa: sp 0 +
STACK CFI INIT 23088 2fc .cfa: sp 0 +
STACK CFI 2308c .cfa: sp 64 +
STACK CFI 2309c .cfa: x29 64 + x19: .cfa -8 + ^ x20: .cfa -16 + ^ x21: .cfa -24 + ^ x22: .cfa -32 + ^ x23: .cfa -40 + ^ x24: .cfa -48 + ^ .ra: .cfa -56 + ^ x29: .cfa -64 + ^
STACK CFI 23218 .cfa: sp 64 +
STACK CFI 23228 .cfa: sp 0 +
STACK CFI 2322c .cfa: x29 64 +
STACK CFI 23270 .cfa: sp 64 +
STACK CFI 23280 .cfa: sp 0 +
STACK CFI 23284 .cfa: x29 64 +
STACK CFI 23354 .cfa: sp 64 +
STACK CFI 23364 .cfa: sp 0 +
STACK CFI 23368 .cfa: sp 64 +
STACK CFI 23378 .cfa: sp 0 +
STACK CFI 2337c .cfa: x29 64 +
STACK CFI INIT 23384 270 .cfa: sp 0 +
STACK CFI 23388 .cfa: sp 32 +
STACK CFI 23390 .cfa: x29 32 + x19: .cfa -16 + ^ .ra: .cfa -24 + ^ x29: .cfa -32 + ^
STACK CFI 233c8 .cfa: sp 32 +
STACK CFI 233d0 .cfa: sp 0 +
STACK CFI 233d4 .cfa: x29 32 +
STACK CFI 2351c .cfa: sp 32 +
STACK CFI 23524 .cfa: sp 0 +
STACK CFI 23528 .cfa: x29 32 +
STACK CFI 23564 .cfa: sp 32 +
STACK CFI 2356c .cfa: sp 0 +
STACK CFI 23570 .cfa: x29 32 +
STACK CFI 235e4 .cfa: sp 32 +
STACK CFI 235ec .cfa: sp 0 +
STACK CFI 235f0 .cfa: x29 32 +
STACK CFI INIT 235f4 2c .cfa: sp 0 +
STACK CFI INIT 23620 48 .cfa: sp 0 +
STACK CFI 2363c .cfa: sp 32 +
STACK CFI 23644 .cfa: x29 32 + x19: .cfa -16 + ^ .ra: .cfa -24 + ^ x29: .cfa -32 + ^
STACK CFI 2365c .cfa: sp 32 +
STACK CFI 23664 .cfa: sp 0 +
STACK CFI INIT 23668 40 .cfa: sp 0 +
STACK CFI INIT 236a8 60 .cfa: sp 0 +
STACK CFI 236ac .cfa: sp 16 +
STACK CFI 236b0 .cfa: x29 16 + .ra: .cfa -8 + ^ x29: .cfa -16 + ^
STACK CFI 236f0 .cfa: sp 16 +
STACK CFI 236f4 .cfa: sp 0 +
STACK CFI 236f8 .cfa: x29 16 +
STACK CFI 236fc .cfa: sp 16 +
STACK CFI 23700 .cfa: sp 0 +
STACK CFI 23704 .cfa: x29 16 +
STACK CFI INIT 23708 34c .cfa: sp 0 +
STACK CFI 2370c .cfa: sp 80 +
STACK CFI 23720 .cfa: x29 80 + x19: .cfa -8 + ^ x20: .cfa -16 + ^ x21: .cfa -24 + ^ x22: .cfa -32 + ^ x23: .cfa -40 + ^ x24: .cfa -48 + ^ x25: .cfa -64 + ^ .ra: .cfa -72 + ^ x29: .cfa -80 + ^
STACK CFI 23a1c .cfa: sp 80 +
STACK CFI 23a30 .cfa: sp 0 +
STACK CFI 23a34 .cfa: x29 80 +
STACK CFI 23a38 .cfa: sp 80 +
STACK CFI 23a4c .cfa: sp 0 +
STACK CFI 23a50 .cfa: x29 80 +
STACK CFI INIT 23a54 1c8 .cfa: sp 0 +
STACK CFI 23a58 .cfa: sp 80 +
STACK CFI 23a6c .cfa: x29 80 + x19: .cfa -8 + ^ x20: .cfa -16 + ^ x21: .cfa -24 + ^ x22: .cfa -32 + ^ x23: .cfa -40 + ^ x24: .cfa -48 + ^ x25: .cfa -64 + ^ .ra: .cfa -72 + ^ x29: .cfa -80 + ^
STACK CFI 23bec .cfa: sp 80 +
STACK CFI 23c00 .cfa: sp 0 +
STACK CFI 23c04 .cfa: sp 80 +
STACK CFI 23c18 .cfa: sp 0 +
STACK CFI INIT 2420c 188 .cfa: sp 0 +
STACK CFI 24210 .cfa: sp 80 +
STACK CFI 24224 .cfa: x29 80 + x19: .cfa -8 + ^ x20: .cfa -16 + ^ x21: .cfa -24 + ^ x22: .cfa -32 + ^ x23: .cfa -40 + ^ x24: .cfa -48 + ^ x25: .cfa -64 + ^ .ra: .cfa -72 + ^ x29: .cfa -80 + ^
STACK CFI 24378 .cfa: sp 80 +
STACK CFI 2438c .cfa: sp 0 +
STACK CFI 24390 .cfa: x29 80 +
STACK CFI INIT 24394 18c .cfa: sp 0 +
STACK CFI 24398 .cfa: sp 64 +
STACK CFI 243a8 .cfa: x29 64 + x19: .cfa -8 + ^ x20: .cfa -16 + ^ x21: .cfa -24 + ^ x22: .cfa -32 + ^ x23: .cfa -40 + ^ x24: .cfa -48 + ^ .ra: .cfa -56 + ^ x29: .cfa -64 + ^
STACK CFI 24508 .cfa: sp 64 +
STACK CFI 24518 .cfa: sp 0 +
STACK CFI 2451c .cfa: x29 64 +
STACK CFI INIT 24520 14 .cfa: sp 0 +
STACK CFI 24524 .cfa: sp 16 +
STACK CFI 24528 .cfa: x29 16 + .ra: .cfa -8 + ^ x29: .cfa -16 + ^
STACK CFI INIT 24534 140 .cfa: sp 0 +
STACK CFI 24538 .cfa: sp 128 +
STACK CFI 24548 .cfa: x29 48 + x19: .cfa -8 + ^ x20: .cfa -16 + ^ x21: .cfa -32 + ^ .ra: .cfa -40 + ^ x29: .cfa -48 + ^
STACK CFI 24610 .cfa: sp 128 +
STACK CFI 24620 .cfa: sp 0 +
STACK CFI 24624 .cfa: x29 48 +
STACK CFI INIT 24674 200 .cfa: sp 0 +
STACK CFI INIT 24950 3c .cfa: sp 0 +
STACK CFI 24954 .cfa: sp 32 +
STACK CFI 2495c .cfa: x29 32 + x19: .cfa -16 + ^ .ra: .cfa -24 + ^ x29: .cfa -32 + ^
STACK CFI 24968 .cfa: sp 32 +
STACK CFI 24970 .cfa: sp 0 +
STACK CFI 24974 .cfa: x29 32 +
STACK CFI 24980 .cfa: sp 32 +
STACK CFI 24988 .cfa: sp 0 +
STACK CFI INIT 2498c 4c .cfa: sp 0 +
STACK CFI 24990 .cfa: sp 32 +
STACK CFI 24998 .cfa: x29 32 + x19: .cfa -8 + ^ x20: .cfa -16 + ^ .ra: .cfa -24 + ^ x29: .cfa -32 + ^
STACK CFI 249c0 .cfa: sp 32 +
STACK CFI 249c8 .cfa: sp 0 +
STACK CFI 249cc .cfa: sp 32 +
STACK CFI 249d4 .cfa: sp 0 +
STACK CFI INIT 24bf8 64 .cfa: sp 0 +
STACK CFI 24bfc .cfa: sp 32 +
STACK CFI 24c04 .cfa: x29 32 + x19: .cfa -16 + ^ .ra: .cfa -24 + ^ x29: .cfa -32 + ^
STACK CFI 24c30 .cfa: sp 32 +
STACK CFI 24c38 .cfa: sp 0 +
STACK CFI 24c3c .cfa: x29 32 +
STACK CFI 24c50 .cfa: sp 32 +
STACK CFI 24c58 .cfa: sp 0 +
STACK CFI INIT 24c5c 24 .cfa: sp 0 +
STACK CFI 24c60 .cfa: sp 32 +
STACK CFI 24c68 .cfa: x29 32 + x19: .cfa -16 + ^ .ra: .cfa -24 + ^ x29: .cfa -32 + ^
STACK CFI 24c74 .cfa: sp 32 +
STACK CFI 24c7c .cfa: sp 0 +
STACK CFI INIT 24edc 24 .cfa: sp 0 +
STACK CFI 24ee0 .cfa: sp 32 +
STACK CFI 24ee8 .cfa: x29 32 + x19: .cfa -16 + ^ .ra: .cfa -24 + ^ x29: .cfa -32 + ^
STACK CFI 24ef4 .cfa: sp 32 +
STACK CFI 24efc .cfa: sp 0 +
STACK CFI INIT 2559c 4 .cfa: sp 0 +
STACK CFI INIT 25ff0 4 .cfa: sp 0 +
STACK CFI INIT 25ff4 14 .cfa: sp 0 +
STACK CFI INIT 11d70 56c .cfa: sp 0 +
STACK CFI 11d74 .cfa: sp 480 +
STACK CFI 11d8c .cfa: x29 80 + x19: .cfa -8 + ^ x20: .cfa -16 + ^ x21: .cfa -24 + ^ x22: .cfa -32 + ^ x23: .cfa -40 + ^ x24: .cfa -48 + ^ x28: .cfa -64 + ^ .ra: .cfa -72 + ^ x29: .cfa -80 + ^
STACK CFI 12168 .cfa: sp 480 +
STACK CFI 12180 .cfa: sp 0 +
STACK CFI 12184 .cfa: x29 80 +
STACK CFI INIT 122dc 484 .cfa: sp 0 +
STACK CFI 122e0 .cfa: sp 224 +
STACK CFI 122fc .cfa: x29 96 + x19: .cfa -8 + ^ x20: .cfa -16 + ^ x21: .cfa -24 + ^ x22: .cfa -32 + ^ x23: .cfa -40 + ^ x24: .cfa -48 + ^ x25: .cfa -56 + ^ x26: .cfa -64 + ^ x27: .cfa -72 + ^ x28: .cfa -80 + ^ .ra: .cfa -88 + ^ x29: .cfa -96 + ^
STACK CFI 1256c .cfa: sp 224 +
STACK CFI 12588 .cfa: sp 0 +
STACK CFI 1258c .cfa: x29 96 +
STACK CFI 12658 .cfa: sp 224 +
STACK CFI 12674 .cfa: sp 0 +
STACK CFI 12678 .cfa: x29 96 +
STACK CFI INIT 12778 484 .cfa: sp 0 +
STACK CFI 1277c .cfa: sp 224 +
STACK CFI 12798 .cfa: x29 96 + x19: .cfa -8 + ^ x20: .cfa -16 + ^ x21: .cfa -24 + ^ x22: .cfa -32 + ^ x23: .cfa -40 + ^ x24: .cfa -48 + ^ x25: .cfa -56 + ^ x26: .cfa -64 + ^ x27: .cfa -72 + ^ x28: .cfa -80 + ^ .ra: .cfa -88 + ^ x29: .cfa -96 + ^
STACK CFI 12a08 .cfa: sp 224 +
STACK CFI 12a24 .cfa: sp 0 +
STACK CFI 12a28 .cfa: x29 96 +
STACK CFI 12af4 .cfa: sp 224 +
STACK CFI 12b10 .cfa: sp 0 +
STACK CFI 12b14 .cfa: x29 96 +
STACK CFI INIT 12c14 384 .cfa: sp 0 +
STACK CFI 12c18 .cfa: sp 192 +
STACK CFI 12c34 .cfa: x29 96 + x19: .cfa -8 + ^ x20: .cfa -16 + ^ x21: .cfa -24 + ^ x22: .cfa -32 + ^ x23: .cfa -40 + ^ x24: .cfa -48 + ^ x25: .cfa -56 + ^ x26: .cfa -64 + ^ x27: .cfa -80 + ^ .ra: .cfa -88 + ^ x29: .cfa -96 + ^
STACK CFI 12e64 .cfa: sp 192 +
STACK CFI 12e80 .cfa: sp 0 +
STACK CFI 12e84 .cfa: x29 96 +
STACK CFI INIT 12f98 74 .cfa: sp 0 +
STACK CFI 12f9c .cfa: sp 48 +
STACK CFI 12fa8 .cfa: x29 32 + x19: .cfa -8 + ^ x20: .cfa -16 + ^ .ra: .cfa -24 + ^ x29: .cfa -32 + ^
STACK CFI 12ff4 .cfa: sp 48 +
STACK CFI 13000 .cfa: sp 0 +
STACK CFI 13004 .cfa: x29 32 +
STACK CFI INIT 1322c 50 .cfa: sp 0 +
STACK CFI 13230 .cfa: sp 32 +
STACK CFI 13238 .cfa: x29 32 + x19: .cfa -8 + ^ x20: .cfa -16 + ^ .ra: .cfa -24 + ^ x29: .cfa -32 + ^
STACK CFI INIT 135fc 304 .cfa: sp 0 +
STACK CFI 13600 .cfa: sp 128 +
STACK CFI 1361c .cfa: x29 96 + x19: .cfa -8 + ^ x20: .cfa -16 + ^ x21: .cfa -24 + ^ x22: .cfa -32 + ^ x23: .cfa -40 + ^ x24: .cfa -48 + ^ x25: .cfa -56 + ^ x26: .cfa -64 + ^ x27: .cfa -72 + ^ x28: .cfa -80 + ^ .ra: .cfa -88 + ^ x29: .cfa -96 + ^
STACK CFI 13880 .cfa: sp 128 +
STACK CFI 1389c .cfa: sp 0 +
STACK CFI 138a0 .cfa: x29 96 +
STACK CFI INIT 13904 164 .cfa: sp 0 +
STACK CFI 13908 .cfa: sp 112 +
STACK CFI 13918 .cfa: x29 48 + x19: .cfa -8 + ^ x20: .cfa -16 + ^ x21: .cfa -24 + ^ x22: .cfa -32 + ^ .ra: .cfa -40 + ^ x29: .cfa -48 + ^
STACK CFI 13a04 .cfa: sp 112 +
STACK CFI 13a14 .cfa: sp 0 +
STACK CFI 13a18 .cfa: x29 48 +
STACK CFI INIT 13cb0 404 .cfa: sp 0 +
STACK CFI 13cb4 .cfa: sp 272 +
STACK CFI 13cc8 .cfa: x29 64 + x19: .cfa -8 + ^ x20: .cfa -16 + ^ x21: .cfa -24 + ^ x22: .cfa -32 + ^ x23: .cfa -40 + ^ x28: .cfa -48 + ^ .ra: .cfa -56 + ^ x29: .cfa -64 + ^
STACK CFI 13f78 .cfa: sp 272 +
STACK CFI 13f8c .cfa: sp 0 +
STACK CFI 13f90 .cfa: x29 64 +
STACK CFI INIT 14104 74 .cfa: sp 0 +
STACK CFI 14108 .cfa: sp 48 +
STACK CFI 14114 .cfa: x29 32 + x19: .cfa -8 + ^ x20: .cfa -16 + ^ .ra: .cfa -24 + ^ x29: .cfa -32 + ^
STACK CFI 14160 .cfa: sp 48 +
STACK CFI 1416c .cfa: sp 0 +
STACK CFI 14170 .cfa: x29 32 +
STACK CFI INIT 141f8 154 .cfa: sp 0 +
STACK CFI 141fc .cfa: sp 384 +
STACK CFI 14210 .cfa: x29 64 + x19: .cfa -8 + ^ x20: .cfa -16 + ^ x21: .cfa -24 + ^ x22: .cfa -32 + ^ x23: .cfa -40 + ^ x28: .cfa -48 + ^ .ra: .cfa -56 + ^ x29: .cfa -64 + ^
STACK CFI 142f4 .cfa: sp 384 +
STACK CFI 14308 .cfa: sp 0 +
STACK CFI 1430c .cfa: x29 64 +
STACK CFI INIT 1434c 12c .cfa: sp 0 +
STACK CFI 14350 .cfa: sp 80 +
STACK CFI 14364 .cfa: x29 80 + x19: .cfa -8 + ^ x20: .cfa -16 + ^ x21: .cfa -24 + ^ x22: .cfa -32 + ^ x23: .cfa -40 + ^ x24: .cfa -48 + ^ x25: .cfa -56 + ^ x26: .cfa -64 + ^ .ra: .cfa -72 + ^ x29: .cfa -80 + ^
STACK CFI 1442c .cfa: sp 80 +
STACK CFI 14440 .cfa: sp 0 +
STACK CFI 14444 .cfa: x29 80 +
STACK CFI INIT 144f8 1a4 .cfa: sp 0 +
STACK CFI 144fc .cfa: sp 112 +
STACK CFI 14514 .cfa: x29 80 + x19: .cfa -8 + ^ x20: .cfa -16 + ^ x21: .cfa -24 + ^ x22: .cfa -32 + ^ x23: .cfa -40 + ^ x24: .cfa -48 + ^ x25: .cfa -56 + ^ x26: .cfa -64 + ^ .ra: .cfa -72 + ^ x29: .cfa -80 + ^
STACK CFI 14604 .cfa: sp 112 +
STACK CFI 1461c .cfa: sp 0 +
STACK CFI 14620 .cfa: x29 80 +
STACK CFI INIT 1469c 1dc .cfa: sp 0 +
STACK CFI 146a0 .cfa: sp 128 +
STACK CFI 146bc .cfa: x29 96 + x19: .cfa -8 + ^ x20: .cfa -16 + ^ x21: .cfa -24 + ^ x22: .cfa -32 + ^ x23: .cfa -40 + ^ x24: .cfa -48 + ^ x25: .cfa -56 + ^ x26: .cfa -64 + ^ x27: .cfa -80 + ^ .ra: .cfa -88 + ^ x29: .cfa -96 + ^
STACK CFI 14828 .cfa: sp 128 +
STACK CFI 14844 .cfa: sp 0 +
STACK CFI 14848 .cfa: x29 96 +
STACK CFI INIT 14878 178 .cfa: sp 0 +
STACK CFI 1487c .cfa: sp 80 +
STACK CFI 14890 .cfa: x29 80 + x19: .cfa -8 + ^ x20: .cfa -16 + ^ x21: .cfa -24 + ^ x22: .cfa -32 + ^ x23: .cfa -40 + ^ x24: .cfa -48 + ^ x25: .cfa -64 + ^ .ra: .cfa -72 + ^ x29: .cfa -80 + ^
STACK CFI 149bc .cfa: sp 80 +
STACK CFI 149d0 .cfa: sp 0 +
STACK CFI 149d4 .cfa: x29 80 +
STACK CFI INIT 14b38 228 .cfa: sp 0 +
STACK CFI 14b3c .cfa: sp 128 +
STACK CFI 14b54 .cfa: x29 80 + x19: .cfa -8 + ^ x20: .cfa -16 + ^ x21: .cfa -24 + ^ x22: .cfa -32 + ^ x23: .cfa -40 + ^ x24: .cfa -48 + ^ x25: .cfa -64 + ^ .ra: .cfa -72 + ^ x29: .cfa -80 + ^
STACK CFI 14cf0 .cfa: sp 128 +
STACK CFI 14d08 .cfa: sp 0 +
STACK CFI 14d0c .cfa: x29 80 +
STACK CFI INIT 1543c 53c .cfa: sp 0 +
STACK CFI 15440 .cfa: sp 192 +
STACK CFI 1545c .cfa: x29 96 + x19: .cfa -8 + ^ x20: .cfa -16 + ^ x21: .cfa -24 + ^ x22: .cfa -32 + ^ x23: .cfa -40 + ^ x24: .cfa -48 + ^ x25: .cfa -56 + ^ x26: .cfa -64 + ^ x27: .cfa -72 + ^ x28: .cfa -80 + ^ .ra: .cfa -88 + ^ x29: .cfa -96 + ^
STACK CFI 1559c .cfa: sp 192 +
STACK CFI 155b8 .cfa: sp 0 +
STACK CFI 155bc .cfa: x29 96 +
STACK CFI 158d4 .cfa: sp 192 +
STACK CFI 158f0 .cfa: sp 0 +
STACK CFI 158f4 .cfa: x29 96 +
STACK CFI INIT 15ee4 654 .cfa: sp 0 +
STACK CFI 15ee8 .cfa: sp 224 +
STACK CFI 15f00 .cfa: x29 80 + x19: .cfa -8 + ^ x20: .cfa -16 + ^ x21: .cfa -24 + ^ x22: .cfa -32 + ^ x23: .cfa -40 + ^ x24: .cfa -48 + ^ x25: .cfa -64 + ^ .ra: .cfa -72 + ^ x29: .cfa -80 + ^
STACK CFI 16348 .cfa: sp 224 +
STACK CFI 16360 .cfa: sp 0 +
STACK CFI 16364 .cfa: x29 80 +
STACK CFI INIT 1653c 1c4 .cfa: sp 0 +
STACK CFI 16540 .cfa: sp 96 +
STACK CFI 16554 .cfa: x29 64 + x19: .cfa -8 + ^ x20: .cfa -16 + ^ x21: .cfa -24 + ^ x22: .cfa -32 + ^ x23: .cfa -48 + ^ .ra: .cfa -56 + ^ x29: .cfa -64 + ^
STACK CFI 1668c .cfa: sp 96 +
STACK CFI 166a0 .cfa: sp 0 +
STACK CFI 166a4 .cfa: x29 64 +
STACK CFI INIT 16700 2d4 .cfa: sp 0 +
STACK CFI 16704 .cfa: sp 144 +
STACK CFI 16714 .cfa: x29 48 + x19: .cfa -8 + ^ x20: .cfa -16 + ^ x21: .cfa -32 + ^ .ra: .cfa -40 + ^ x29: .cfa -48 + ^
STACK CFI 1693c .cfa: sp 144 +
STACK CFI 1694c .cfa: sp 0 +
STACK CFI 16950 .cfa: x29 48 +
STACK CFI INIT 169d4 190 .cfa: sp 0 +
STACK CFI 169d8 .cfa: sp 160 +
STACK CFI 169e8 .cfa: x29 48 + x19: .cfa -8 + ^ x20: .cfa -16 + ^ x21: .cfa -32 + ^ .ra: .cfa -40 + ^ x29: .cfa -48 + ^
STACK CFI 16b04 .cfa: sp 160 +
STACK CFI 16b14 .cfa: sp 0 +
STACK CFI 16b18 .cfa: x29 48 +
STACK CFI INIT 16b64 74 .cfa: sp 0 +
STACK CFI 16b68 .cfa: sp 48 +
STACK CFI 16b74 .cfa: x29 32 + x19: .cfa -8 + ^ x20: .cfa -16 + ^ .ra: .cfa -24 + ^ x29: .cfa -32 + ^
STACK CFI 16bc0 .cfa: sp 48 +
STACK CFI 16bcc .cfa: sp 0 +
STACK CFI 16bd0 .cfa: x29 32 +
STACK CFI INIT 16c4c d0 .cfa: sp 0 +
STACK CFI 16c50 .cfa: sp 64 +
STACK CFI 16c5c .cfa: x29 32 + x19: .cfa -8 + ^ x20: .cfa -16 + ^ .ra: .cfa -24 + ^ x29: .cfa -32 + ^
STACK CFI 16cdc .cfa: sp 64 +
STACK CFI 16ce8 .cfa: sp 0 +
STACK CFI 16cec .cfa: x29 32 +
STACK CFI INIT 16d44 12c .cfa: sp 0 +
STACK CFI 16d48 .cfa: sp 80 +
STACK CFI 16d58 .cfa: x29 48 + x19: .cfa -8 + ^ x20: .cfa -16 + ^ x21: .cfa -32 + ^ .ra: .cfa -40 + ^ x29: .cfa -48 + ^
STACK CFI 16df0 .cfa: sp 80 +
STACK CFI 16e00 .cfa: sp 0 +
STACK CFI 16e04 .cfa: x29 48 +
STACK CFI INIT 16e70 638 .cfa: sp 0 +
STACK CFI 16e74 .cfa: sp 224 +
STACK CFI 16e94 .cfa: x29 96 + x19: .cfa -8 + ^ x20: .cfa -16 + ^ x21: .cfa -24 + ^ x22: .cfa -32 + ^ x23: .cfa -40 + ^ x24: .cfa -48 + ^ x25: .cfa -56 + ^ x26: .cfa -64 + ^ x27: .cfa -72 + ^ x28: .cfa -80 + ^ .ra: .cfa -88 + ^ x29: .cfa -96 + ^ v8: .cfa -112 + ^
STACK CFI 1736c .cfa: sp 224 +
STACK CFI 1738c .cfa: sp 0 +
STACK CFI 17390 .cfa: x29 96 +
STACK CFI INIT 17690 2ac .cfa: sp 0 +
STACK CFI 17694 .cfa: sp 128 +
STACK CFI 176a4 .cfa: x29 48 + x19: .cfa -8 + ^ x20: .cfa -16 + ^ x21: .cfa -32 + ^ .ra: .cfa -40 + ^ x29: .cfa -48 + ^
STACK CFI 1786c .cfa: sp 128 +
STACK CFI 1787c .cfa: sp 0 +
STACK CFI 17880 .cfa: x29 48 +
STACK CFI INIT 1797c 50 .cfa: sp 0 +
STACK CFI 17980 .cfa: sp 32 +
STACK CFI 17988 .cfa: x29 32 + x19: .cfa -8 + ^ x20: .cfa -16 + ^ .ra: .cfa -24 + ^ x29: .cfa -32 + ^
STACK CFI INIT 17a90 2da4 .cfa: sp 0 +
STACK CFI 17a94 .cfa: sp 96 +
STACK CFI 17aac .cfa: x29 96 + x19: .cfa -8 + ^ x20: .cfa -16 + ^ x21: .cfa -24 + ^ x22: .cfa -32 + ^ x23: .cfa -40 + ^ x24: .cfa -48 + ^ x25: .cfa -56 + ^ x26: .cfa -64 + ^ x27: .cfa -72 + ^ x28: .cfa -80 + ^ .ra: .cfa -88 + ^ x29: .cfa -96 + ^
STACK CFI 1a3e4 .cfa: sp 96 +
STACK CFI 1a3fc .cfa: sp 0 +
STACK CFI 1a400 .cfa: x29 96 +
STACK CFI INIT 1a834 74 .cfa: sp 0 +
STACK CFI 1a838 .cfa: sp 48 +
STACK CFI 1a844 .cfa: x29 32 + x19: .cfa -8 + ^ x20: .cfa -16 + ^ .ra: .cfa -24 + ^ x29: .cfa -32 + ^
STACK CFI 1a890 .cfa: sp 48 +
STACK CFI 1a89c .cfa: sp 0 +
STACK CFI 1a8a0 .cfa: x29 32 +
STACK CFI INIT 1a8f8 14c .cfa: sp 0 +
STACK CFI 1a8fc .cfa: sp 48 +
STACK CFI 1a908 .cfa: x29 48 + x19: .cfa -8 + ^ x20: .cfa -16 + ^ x21: .cfa -24 + ^ x28: .cfa -32 + ^ .ra: .cfa -40 + ^ x29: .cfa -48 + ^
STACK CFI 1a9f0 .cfa: sp 48 +
STACK CFI 1a9fc .cfa: sp 0 +
STACK CFI 1aa00 .cfa: x29 48 +
STACK CFI INIT 1aac4 6c4 .cfa: sp 0 +
STACK CFI 1aac8 .cfa: sp 112 +
STACK CFI 1aae4 .cfa: x29 96 + x19: .cfa -8 + ^ x20: .cfa -16 + ^ x21: .cfa -24 + ^ x22: .cfa -32 + ^ x23: .cfa -40 + ^ x24: .cfa -48 + ^ x25: .cfa -56 + ^ x26: .cfa -64 + ^ x27: .cfa -72 + ^ x28: .cfa -80 + ^ .ra: .cfa -88 + ^ x29: .cfa -96 + ^
STACK CFI 1ac28 .cfa: sp 112 +
STACK CFI 1ac44 .cfa: sp 0 +
STACK CFI 1ac48 .cfa: x29 96 +
STACK CFI 1ac54 .cfa: sp 112 +
STACK CFI 1ac70 .cfa: sp 0 +
STACK CFI 1ac74 .cfa: x29 96 +
STACK CFI 1b110 .cfa: sp 112 +
STACK CFI 1b12c .cfa: sp 0 +
STACK CFI 1b130 .cfa: x29 96 +
STACK CFI INIT 1b188 4c .cfa: sp 0 +
STACK CFI 1b18c .cfa: sp 32 +
STACK CFI 1b194 .cfa: x29 32 + x19: .cfa -8 + ^ x20: .cfa -16 + ^ .ra: .cfa -24 + ^ x29: .cfa -32 + ^
STACK CFI INIT 1b758 4c .cfa: sp 0 +
STACK CFI 1b75c .cfa: sp 32 +
STACK CFI 1b764 .cfa: x29 32 + x19: .cfa -8 + ^ x20: .cfa -16 + ^ .ra: .cfa -24 + ^ x29: .cfa -32 + ^
STACK CFI INIT 1b8bc 364 .cfa: sp 0 +
STACK CFI 1b8c0 .cfa: sp 144 +
STACK CFI 1b8d4 .cfa: x29 64 + x19: .cfa -8 + ^ x20: .cfa -16 + ^ x21: .cfa -24 + ^ x22: .cfa -32 + ^ x23: .cfa -48 + ^ .ra: .cfa -56 + ^ x29: .cfa -64 + ^
STACK CFI 1ba68 .cfa: sp 144 +
STACK CFI 1ba7c .cfa: sp 0 +
STACK CFI 1ba80 .cfa: x29 64 +
STACK CFI INIT 1bc20 644 .cfa: sp 0 +
STACK CFI 1bc24 .cfa: sp 64 +
STACK CFI 1bc34 .cfa: x29 64 + x19: .cfa -8 + ^ x20: .cfa -16 + ^ x21: .cfa -24 + ^ x22: .cfa -32 + ^ x23: .cfa -48 + ^ .ra: .cfa -56 + ^ x29: .cfa -64 + ^
STACK CFI 1bca0 .cfa: sp 64 +
STACK CFI 1bcb0 .cfa: sp 0 +
STACK CFI 1bcb4 .cfa: x29 64 +
STACK CFI 1bd04 .cfa: sp 64 +
STACK CFI 1bd14 .cfa: sp 0 +
STACK CFI 1bd18 .cfa: x29 64 +
STACK CFI 1bd94 .cfa: sp 64 +
STACK CFI 1bda4 .cfa: sp 0 +
STACK CFI 1bda8 .cfa: x29 64 +
STACK CFI 1be98 .cfa: sp 64 +
STACK CFI 1bea8 .cfa: sp 0 +
STACK CFI 1beac .cfa: x29 64 +
STACK CFI 1bf3c .cfa: sp 64 +
STACK CFI 1bf4c .cfa: sp 0 +
STACK CFI 1bf50 .cfa: x29 64 +
STACK CFI 1bf68 .cfa: sp 64 +
STACK CFI 1bf78 .cfa: sp 0 +
STACK CFI 1bf7c .cfa: x29 64 +
STACK CFI 1c104 .cfa: sp 64 +
STACK CFI 1c114 .cfa: sp 0 +
STACK CFI 1c118 .cfa: x29 64 +
STACK CFI 1c12c .cfa: sp 64 +
STACK CFI 1c13c .cfa: sp 0 +
STACK CFI 1c140 .cfa: x29 64 +
STACK CFI 1c1c8 .cfa: sp 64 +
STACK CFI 1c1d8 .cfa: sp 0 +
STACK CFI 1c1dc .cfa: x29 64 +
STACK CFI INIT 1c658 6c .cfa: sp 0 +
STACK CFI 1c65c .cfa: sp 32 +
STACK CFI 1c664 .cfa: x29 32 + x19: .cfa -8 + ^ x20: .cfa -16 + ^ .ra: .cfa -24 + ^ x29: .cfa -32 + ^
STACK CFI 1c6a4 .cfa: sp 32 +
STACK CFI 1c6ac .cfa: sp 0 +
STACK CFI 1c6b0 .cfa: x29 32 +
STACK CFI INIT 1c778 4c .cfa: sp 0 +
STACK CFI 1c77c .cfa: sp 32 +
STACK CFI 1c784 .cfa: x29 32 + x19: .cfa -8 + ^ x20: .cfa -16 + ^ .ra: .cfa -24 + ^ x29: .cfa -32 + ^
STACK CFI INIT 1cbec 1d4 .cfa: sp 0 +
STACK CFI 1cbf0 .cfa: sp 176 +
STACK CFI 1cc00 .cfa: x29 48 + x19: .cfa -8 + ^ x20: .cfa -16 + ^ x21: .cfa -24 + ^ x22: .cfa -32 + ^ .ra: .cfa -40 + ^ x29: .cfa -48 + ^
STACK CFI 1cd58 .cfa: sp 176 +
STACK CFI 1cd68 .cfa: sp 0 +
STACK CFI 1cd6c .cfa: x29 48 +
STACK CFI 1cd7c .cfa: sp 176 +
STACK CFI 1cd8c .cfa: sp 0 +
STACK CFI 1cd90 .cfa: x29 48 +
STACK CFI INIT 1cdc0 44c .cfa: sp 0 +
STACK CFI 1cdc4 .cfa: sp 256 +
STACK CFI 1cde0 .cfa: x29 96 + x19: .cfa -8 + ^ x20: .cfa -16 + ^ x21: .cfa -24 + ^ x22: .cfa -32 + ^ x23: .cfa -40 + ^ x24: .cfa -48 + ^ x25: .cfa -56 + ^ x26: .cfa -64 + ^ x27: .cfa -72 + ^ x28: .cfa -80 + ^ .ra: .cfa -88 + ^ x29: .cfa -96 + ^
STACK CFI 1d110 .cfa: sp 256 +
STACK CFI 1d12c .cfa: sp 0 +
STACK CFI 1d130 .cfa: x29 96 +
STACK CFI INIT 1d42c 4c .cfa: sp 0 +
STACK CFI 1d430 .cfa: sp 32 +
STACK CFI 1d438 .cfa: x29 32 + x19: .cfa -8 + ^ x20: .cfa -16 + ^ .ra: .cfa -24 + ^ x29: .cfa -32 + ^
STACK CFI INIT 1d478 170 .cfa: sp 0 +
STACK CFI 1d47c .cfa: sp 80 +
STACK CFI 1d490 .cfa: x29 80 + x19: .cfa -8 + ^ x20: .cfa -16 + ^ x21: .cfa -24 + ^ x22: .cfa -32 + ^ x23: .cfa -40 + ^ x24: .cfa -48 + ^ x25: .cfa -64 + ^ .ra: .cfa -72 + ^ x29: .cfa -80 + ^
STACK CFI 1d584 .cfa: sp 80 +
STACK CFI 1d598 .cfa: sp 0 +
STACK CFI 1d59c .cfa: x29 80 +
STACK CFI INIT 1d5e8 4c .cfa: sp 0 +
STACK CFI 1d5ec .cfa: sp 32 +
STACK CFI 1d5f4 .cfa: x29 32 + x19: .cfa -8 + ^ x20: .cfa -16 + ^ .ra: .cfa -24 + ^ x29: .cfa -32 + ^
STACK CFI INIT 1dba4 10f4 .cfa: sp 0 +
STACK CFI 1dba8 .cfa: sp 432 +
STACK CFI 1dbc4 .cfa: x29 96 + x19: .cfa -8 + ^ x20: .cfa -16 + ^ x21: .cfa -24 + ^ x22: .cfa -32 + ^ x23: .cfa -40 + ^ x24: .cfa -48 + ^ x25: .cfa -56 + ^ x26: .cfa -64 + ^ x27: .cfa -72 + ^ x28: .cfa -80 + ^ .ra: .cfa -88 + ^ x29: .cfa -96 + ^
STACK CFI 1e9ac .cfa: sp 432 +
STACK CFI 1e9c8 .cfa: sp 0 +
STACK CFI 1e9cc .cfa: x29 96 +
STACK CFI INIT 1ec98 4c .cfa: sp 0 +
STACK CFI 1ec9c .cfa: sp 32 +
STACK CFI 1eca4 .cfa: x29 32 + x19: .cfa -8 + ^ x20: .cfa -16 + ^ .ra: .cfa -24 + ^ x29: .cfa -32 + ^
STACK CFI INIT 1ed2c 4c .cfa: sp 0 +
STACK CFI 1ed30 .cfa: sp 32 +
STACK CFI 1ed38 .cfa: x29 32 + x19: .cfa -8 + ^ x20: .cfa -16 + ^ .ra: .cfa -24 + ^ x29: .cfa -32 + ^
STACK CFI INIT 1f284 140 .cfa: sp 0 +
STACK CFI 1f288 .cfa: sp 48 +
STACK CFI 1f294 .cfa: x29 48 + x19: .cfa -8 + ^ x20: .cfa -16 + ^ x21: .cfa -32 + ^ .ra: .cfa -40 + ^ x29: .cfa -48 + ^
STACK CFI 1f374 .cfa: sp 48 +
STACK CFI 1f380 .cfa: sp 0 +
STACK CFI 1f384 .cfa: x29 48 +
STACK CFI INIT 1f3c4 4c .cfa: sp 0 +
STACK CFI 1f3c8 .cfa: sp 32 +
STACK CFI 1f3d0 .cfa: x29 32 + x19: .cfa -8 + ^ x20: .cfa -16 + ^ .ra: .cfa -24 + ^ x29: .cfa -32 + ^
STACK CFI INIT 20050 1dc .cfa: sp 0 +
STACK CFI 20054 .cfa: sp 128 +
STACK CFI 2006c .cfa: x29 80 + x19: .cfa -8 + ^ x20: .cfa -16 + ^ x21: .cfa -24 + ^ x22: .cfa -32 + ^ x23: .cfa -40 + ^ x24: .cfa -48 + ^ x25: .cfa -64 + ^ .ra: .cfa -72 + ^ x29: .cfa -80 + ^
STACK CFI 20160 .cfa: sp 128 +
STACK CFI 20178 .cfa: sp 0 +
STACK CFI 2017c .cfa: x29 80 +
STACK CFI INIT 20440 c6c .cfa: sp 0 +
STACK CFI 20444 .cfa: sp 256 +
STACK CFI 20460 .cfa: x29 96 + x19: .cfa -8 + ^ x20: .cfa -16 + ^ x21: .cfa -24 + ^ x22: .cfa -32 + ^ x23: .cfa -40 + ^ x24: .cfa -48 + ^ x25: .cfa -56 + ^ x26: .cfa -64 + ^ x27: .cfa -72 + ^ x28: .cfa -80 + ^ .ra: .cfa -88 + ^ x29: .cfa -96 + ^
STACK CFI 20fe8 .cfa: sp 256 +
STACK CFI 21004 .cfa: sp 0 +
STACK CFI 21008 .cfa: x29 96 +
STACK CFI INIT 210f0 1c4 .cfa: sp 0 +
STACK CFI 210f4 .cfa: sp 112 +
STACK CFI 2110c .cfa: x29 80 + x19: .cfa -8 + ^ x20: .cfa -16 + ^ x21: .cfa -24 + ^ x22: .cfa -32 + ^ x23: .cfa -40 + ^ x24: .cfa -48 + ^ x25: .cfa -56 + ^ x26: .cfa -64 + ^ .ra: .cfa -72 + ^ x29: .cfa -80 + ^
STACK CFI 21238 .cfa: sp 112 +
STACK CFI 21250 .cfa: sp 0 +
STACK CFI 21254 .cfa: x29 80 +
STACK CFI INIT 212c8 4c .cfa: sp 0 +
STACK CFI 212cc .cfa: sp 32 +
STACK CFI 212d4 .cfa: x29 32 + x19: .cfa -8 + ^ x20: .cfa -16 + ^ .ra: .cfa -24 + ^ x29: .cfa -32 + ^
STACK CFI INIT 221c0 4c .cfa: sp 0 +
STACK CFI 221c4 .cfa: sp 32 +
STACK CFI 221cc .cfa: x29 32 + x19: .cfa -8 + ^ x20: .cfa -16 + ^ .ra: .cfa -24 + ^ x29: .cfa -32 + ^
STACK CFI INIT 2220c 2b4 .cfa: sp 0 +
STACK CFI 22210 .cfa: sp 144 +
STACK CFI 22228 .cfa: x29 80 + x19: .cfa -8 + ^ x20: .cfa -16 + ^ x21: .cfa -24 + ^ x22: .cfa -32 + ^ x23: .cfa -40 + ^ x24: .cfa -48 + ^ x25: .cfa -56 + ^ x26: .cfa -64 + ^ .ra: .cfa -72 + ^ x29: .cfa -80 + ^
STACK CFI 2242c .cfa: sp 144 +
STACK CFI 22444 .cfa: sp 0 +
STACK CFI 22448 .cfa: x29 80 +
STACK CFI INIT 224c0 4c .cfa: sp 0 +
STACK CFI 224c4 .cfa: sp 32 +
STACK CFI 224cc .cfa: x29 32 + x19: .cfa -8 + ^ x20: .cfa -16 + ^ .ra: .cfa -24 + ^ x29: .cfa -32 + ^
STACK CFI INIT 2250c 1b4 .cfa: sp 0 +
STACK CFI 22510 .cfa: sp 112 +
STACK CFI 22528 .cfa: x29 80 + x19: .cfa -8 + ^ x20: .cfa -16 + ^ x21: .cfa -24 + ^ x22: .cfa -32 + ^ x23: .cfa -40 + ^ x24: .cfa -48 + ^ x25: .cfa -64 + ^ .ra: .cfa -72 + ^ x29: .cfa -80 + ^
STACK CFI 2265c .cfa: sp 112 +
STACK CFI 22674 .cfa: sp 0 +
STACK CFI 22678 .cfa: x29 80 +
STACK CFI INIT 226c0 4c .cfa: sp 0 +
STACK CFI 226c4 .cfa: sp 32 +
STACK CFI 226cc .cfa: x29 32 + x19: .cfa -8 + ^ x20: .cfa -16 + ^ .ra: .cfa -24 + ^ x29: .cfa -32 + ^
STACK CFI INIT 229d4 140 .cfa: sp 0 +
STACK CFI 229d8 .cfa: sp 96 +
STACK CFI 229f0 .cfa: x29 96 + x19: .cfa -8 + ^ x20: .cfa -16 + ^ x21: .cfa -24 + ^ x22: .cfa -32 + ^ x23: .cfa -40 + ^ x24: .cfa -48 + ^ x25: .cfa -56 + ^ x26: .cfa -64 + ^ x27: .cfa -72 + ^ x28: .cfa -80 + ^ .ra: .cfa -88 + ^ x29: .cfa -96 + ^
STACK CFI 22aac .cfa: sp 96 +
STACK CFI 22ac4 .cfa: sp 0 +
STACK CFI 22ac8 .cfa: x29 96 +
STACK CFI INIT 22b14 4c .cfa: sp 0 +
STACK CFI 22b18 .cfa: sp 32 +
STACK CFI 22b20 .cfa: x29 32 + x19: .cfa -8 + ^ x20: .cfa -16 + ^ .ra: .cfa -24 + ^ x29: .cfa -32 + ^
STACK CFI INIT 22b60 4c .cfa: sp 0 +
STACK CFI 22b64 .cfa: sp 32 +
STACK CFI 22b6c .cfa: x29 32 + x19: .cfa -8 + ^ x20: .cfa -16 + ^ .ra: .cfa -24 + ^ x29: .cfa -32 + ^
STACK CFI INIT 2303c 4c .cfa: sp 0 +
STACK CFI 23040 .cfa: sp 32 +
STACK CFI 23048 .cfa: x29 32 + x19: .cfa -8 + ^ x20: .cfa -16 + ^ .ra: .cfa -24 + ^ x29: .cfa -32 + ^
STACK CFI INIT 23c1c 5f0 .cfa: sp 0 +
STACK CFI 23c20 .cfa: sp 112 +
STACK CFI 23c3c .cfa: x29 96 + x19: .cfa -8 + ^ x20: .cfa -16 + ^ x21: .cfa -24 + ^ x22: .cfa -32 + ^ x23: .cfa -40 + ^ x24: .cfa -48 + ^ x25: .cfa -56 + ^ x26: .cfa -64 + ^ x27: .cfa -80 + ^ .ra: .cfa -88 + ^ x29: .cfa -96 + ^
STACK CFI 23ee0 .cfa: sp 112 +
STACK CFI 23efc .cfa: sp 0 +
STACK CFI 23f00 .cfa: x29 96 +
STACK CFI 240f4 .cfa: sp 112 +
STACK CFI 24110 .cfa: sp 0 +
STACK CFI 24114 .cfa: x29 96 +
STACK CFI INIT 24874 dc .cfa: sp 0 +
STACK CFI 24878 .cfa: sp 32 +
STACK CFI 24880 .cfa: x29 32 + x19: .cfa -16 + ^ .ra: .cfa -24 + ^ x29: .cfa -32 + ^
STACK CFI 2490c .cfa: sp 32 +
STACK CFI 24914 .cfa: sp 0 +
STACK CFI 24918 .cfa: x29 32 +
STACK CFI INIT 249d8 134 .cfa: sp 0 +
STACK CFI 249dc .cfa: sp 80 +
STACK CFI 249e8 .cfa: x29 32 + x19: .cfa -8 + ^ x20: .cfa -16 + ^ .ra: .cfa -24 + ^ x29: .cfa -32 + ^
STACK CFI 24a18 .cfa: sp 80 +
STACK CFI 24a24 .cfa: sp 0 +
STACK CFI 24a28 .cfa: x29 32 +
STACK CFI INIT 24b0c 78 .cfa: sp 0 +
STACK CFI 24b10 .cfa: sp 32 +
STACK CFI 24b18 .cfa: x29 32 + x19: .cfa -8 + ^ x20: .cfa -16 + ^ .ra: .cfa -24 + ^ x29: .cfa -32 + ^
STACK CFI 24b24 .cfa: sp 32 +
STACK CFI 24b2c .cfa: sp 0 +
STACK CFI 24b30 .cfa: x29 32 +
STACK CFI INIT 24b84 74 .cfa: sp 0 +
STACK CFI 24b88 .cfa: sp 48 +
STACK CFI 24b94 .cfa: x29 32 + x19: .cfa -8 + ^ x20: .cfa -16 + ^ .ra: .cfa -24 + ^ x29: .cfa -32 + ^
STACK CFI 24be0 .cfa: sp 48 +
STACK CFI 24bec .cfa: sp 0 +
STACK CFI 24bf0 .cfa: x29 32 +
STACK CFI INIT 24c80 25c .cfa: sp 0 +
STACK CFI 24c84 .cfa: sp 128 +
STACK CFI 24c94 .cfa: x29 48 + x19: .cfa -8 + ^ x20: .cfa -16 + ^ x21: .cfa -32 + ^ .ra: .cfa -40 + ^ x29: .cfa -48 + ^
STACK CFI 24d7c .cfa: sp 128 +
STACK CFI 24d8c .cfa: sp 0 +
STACK CFI 24d90 .cfa: x29 48 +
STACK CFI INIT 24f00 1b8 .cfa: sp 0 +
STACK CFI 24f04 .cfa: sp 160 +
STACK CFI 24f20 .cfa: x29 72 + x19: .cfa -8 + ^ x20: .cfa -16 + ^ x21: .cfa -24 + ^ x22: .cfa -32 + ^ x23: .cfa -40 + ^ x24: .cfa -48 + ^ x25: .cfa -56 + ^ .ra: .cfa -64 + ^ x29: .cfa -72 + ^ v8: .cfa -80 + ^
STACK CFI 24fa4 .cfa: sp 160 +
STACK CFI 24fc0 .cfa: sp 0 +
STACK CFI 24fc4 .cfa: x29 72 +
STACK CFI INIT 250b8 4e4 .cfa: sp 0 +
STACK CFI 250bc .cfa: sp 96 +
STACK CFI 250d4 .cfa: x29 80 + x19: .cfa -8 + ^ x20: .cfa -16 + ^ x21: .cfa -24 + ^ x22: .cfa -32 + ^ x23: .cfa -40 + ^ x24: .cfa -48 + ^ x25: .cfa -64 + ^ .ra: .cfa -72 + ^ x29: .cfa -80 + ^
STACK CFI 25518 .cfa: sp 96 +
STACK CFI 25530 .cfa: sp 0 +
STACK CFI 25534 .cfa: x29 80 +
STACK CFI INIT 255a0 2a0 .cfa: sp 0 +
STACK CFI 255a4 .cfa: sp 144 +
STACK CFI 255b8 .cfa: x29 64 + x19: .cfa -8 + ^ x20: .cfa -16 + ^ x21: .cfa -24 + ^ x22: .cfa -32 + ^ x23: .cfa -48 + ^ .ra: .cfa -56 + ^ x29: .cfa -64 + ^
STACK CFI 256ec .cfa: sp 144 +
STACK CFI 25700 .cfa: sp 0 +
STACK CFI 25704 .cfa: x29 64 +
STACK CFI INIT 25840 4f4 .cfa: sp 0 +
STACK CFI 25844 .cfa: sp 144 +
STACK CFI 25858 .cfa: x29 64 + x19: .cfa -8 + ^ x20: .cfa -16 + ^ x21: .cfa -24 + ^ x22: .cfa -32 + ^ x23: .cfa -48 + ^ .ra: .cfa -56 + ^ x29: .cfa -64 + ^
STACK CFI 25b8c .cfa: sp 144 +
STACK CFI 25ba0 .cfa: sp 0 +
STACK CFI 25ba4 .cfa: x29 64 +
STACK CFI INIT 25d34 154 .cfa: sp 0 +
STACK CFI 25d38 .cfa: sp 384 +
STACK CFI 25d4c .cfa: x29 64 + x19: .cfa -8 + ^ x20: .cfa -16 + ^ x21: .cfa -24 + ^ x22: .cfa -32 + ^ x23: .cfa -40 + ^ x28: .cfa -48 + ^ .ra: .cfa -56 + ^ x29: .cfa -64 + ^
STACK CFI 25e30 .cfa: sp 384 +
STACK CFI 25e44 .cfa: sp 0 +
STACK CFI 25e48 .cfa: x29 64 +
STACK CFI INIT 25e88 168 .cfa: sp 0 +
STACK CFI 25e8c .cfa: sp 384 +
STACK CFI 25ea0 .cfa: x29 64 + x19: .cfa -8 + ^ x20: .cfa -16 + ^ x21: .cfa -24 + ^ x22: .cfa -32 + ^ x23: .cfa -40 + ^ x28: .cfa -48 + ^ .ra: .cfa -56 + ^ x29: .cfa -64 + ^
STACK CFI 25f98 .cfa: sp 384 +
STACK CFI 25fac .cfa: sp 0 +
STACK CFI 25fb0 .cfa: x29 64 +
STACK CFI INIT 26008 50c .cfa: sp 0 +
STACK CFI 2600c .cfa: sp 64 +
STACK CFI 2601c .cfa: x29 64 + x19: .cfa -8 + ^ x20: .cfa -16 + ^ x21: .cfa -24 + ^ x22: .cfa -32 + ^ x23: .cfa -40 + ^ x24: .cfa -48 + ^ .ra: .cfa -56 + ^ x29: .cfa -64 + ^
STACK CFI 2613c .cfa: sp 64 +
STACK CFI 2614c .cfa: sp 0 +
STACK CFI 26150 .cfa: x29 64 +
STACK CFI 264e8 .cfa: sp 64 +
STACK CFI 264f8 .cfa: sp 0 +
STACK CFI 264fc .cfa: x29 64 +
