MODULE Linux arm64 F1B2EA1C35E6DEC237885609845064010 mat.circle-tool.android64.so
INFO CODE_ID 1CEAB2F1E635C2DE3788560984506401E1673688
INFO GENERATOR mozilla/dump_syms 2.3.4
PUBLIC 15f30 0 __on_dlclose
PUBLIC 15f40 0 __emutls_unregister_key
PUBLIC 15f48 0 __on_dlclose_late
PUBLIC 15f50 0 __atexit_handler_wrapper
PUBLIC 15f64 0 atexit
PUBLIC 15f80 0 pthread_atfork
PUBLIC 15f90 0 __aarch64_ldadd8_relax
PUBLIC 15fc0 0 init_have_lse_atomics
PUBLIC 16058 0 __init_cpu_features_constructor
PUBLIC 165f4 0 __init_cpu_features
PUBLIC 16680 0 __aarch64_ldadd8_acq_rel
PUBLIC 166b0 0 __cxx_global_var_init
PUBLIC 17284 0 geode::modifier::ModifyBase<geode::modifier::ModifyDerive<MyEditorUI, EditorUI> >::~ModifyBase()
PUBLIC 1729c 0 geode::modifier::ModifyDerive<MyEditorUI, EditorUI>::apply()
PUBLIC 176d8 0 std::__ndk1::shared_ptr<geode::Hook>::~shared_ptr[abi:ne180000]()
PUBLIC 17728 0 geode::impl::ResultData<geode::Hook*, std::__ndk1::basic_string<char, std::__ndk1::char_traits<char>, std::__ndk1::allocator<char> > >::~ResultData()
PUBLIC 1779c 0 std::__ndk1::vector<std::__ndk1::basic_string<char, std::__ndk1::char_traits<char>, std::__ndk1::allocator<char> >, std::__ndk1::allocator<std::__ndk1::basic_string<char, std::__ndk1::char_traits<char>, std::__ndk1::allocator<char> > > >::~vector[abi:ne180000]()
PUBLIC 17818 0 geode::modifier::ModifyBase<geode::modifier::ModifyDerive<MyEditorUI, EditorUI> >::apply()
PUBLIC 1781c 0 __clang_call_terminate
PUBLIC 1782c 0 _ZN5geode15UnwrapExceptionC2IRPNS_4HookEQsr4implE18IsStringStreamableIT_EEENS_4impl5OkTagEOS5_
PUBLIC 17980 0 std::__ndk1::__throw_bad_variant_access[abi:ne180000]()
PUBLIC 179b4 0 std::__ndk1::basic_stringstream<char, std::__ndk1::char_traits<char>, std::__ndk1::allocator<char> >::basic_stringstream[abi:ne180000]()
PUBLIC m 17ae0 0 std::__ndk1::basic_stringstream<char, std::__ndk1::char_traits<char>, std::__ndk1::allocator<char> >::~basic_stringstream()
PUBLIC 17b60 0 geode::UnwrapException::~UnwrapException()
PUBLIC 17b84 0 std::__ndk1::__put_character_sequence[abi:ne180000]<char, std::__ndk1::char_traits<char> >(std::__ndk1::basic_ostream<char, std::__ndk1::char_traits<char> >, std::__ndk1::basic_ostream const*, unsigned long)
PUBLIC 17d28 0 std::__ndk1::__pad_and_output[abi:ne180000]<char, std::__ndk1::char_traits<char> >(std::__ndk1::char_traits<char>, std::__ndk1::ostreambuf_iterator const*, std::__ndk1::ostreambuf_iterator const, std::__ndk1::ostreambuf_iterator const, std::__ndk1::ios_base&, std::__ndk1::ostreambuf_iterator)
PUBLIC 17f04 0 std::__ndk1::basic_string<char, std::__ndk1::char_traits<char>, std::__ndk1::allocator<char> >::__throw_length_error[abi:ne180000]() const
PUBLIC 17f18 0 std::__ndk1::__throw_length_error[abi:ne180000](char const*)
PUBLIC 17f68 0 std::length_error::length_error[abi:ne180000](char const*)
PUBLIC 17f98 0 std::__throw_bad_array_new_length([abi:ne180000], void)
PUBLIC 17fcc 0 std::__ndk1::basic_stringbuf<char, std::__ndk1::char_traits<char>, std::__ndk1::allocator<char> >::str[abi:ne180000]() &&
PUBLIC 18144 0 std::__ndk1::basic_stringbuf<char, std::__ndk1::char_traits<char>, std::__ndk1::allocator<char> >::__init_buf_ptrs[abi:ne180000]()
PUBLIC 1828c 0 std::__ndk1::basic_string<char, std::__ndk1::char_traits<char>, std::__ndk1::allocator<char> >::__init_copy_ctor_external(char const*, unsigned long)
PUBLIC 1830c 0 std::__ndk1::__split_buffer<std::__ndk1::basic_string<char, std::__ndk1::char_traits<char>, std::__ndk1::allocator<char> >, std::__ndk1::allocator<std::__ndk1::basic_string<char, std::__ndk1::char_traits<char>, std::__ndk1::allocator<char> > >&>::~__split_buffer()
PUBLIC 18374 0 std::__ndk1::vector<std::__ndk1::basic_string<char, std::__ndk1::char_traits<char>, std::__ndk1::allocator<char> >, std::__ndk1::allocator<std::__ndk1::basic_string<char, std::__ndk1::char_traits<char>, std::__ndk1::allocator<char> > > >::__throw_length_error[abi:ne180000]() const
PUBLIC 18388 0 std::__ndk1::__variant_detail::__visitation::__base::__dispatcher<(unsigned long)0>::__dispatch[abi:ne180000]<std::__ndk1::__variant_detail::__dtor<std::__ndk1::__variant_detail::__traits<geode::Hook*, std::__ndk1::basic_string<char, std::__ndk1::char_traits<char>, std::__ndk1::allocator<char> > >, (std::__ndk1::__variant_detail::_Trait)1>::__destroy[abi:ne180000]()::{lambda(auto:1&)#1}, std::__ndk1::__variant_detail::__base<(std::__ndk1::__variant_detail::__traits<geode::Hook*, std::__ndk1::basic_string<char, std::__ndk1::char_traits<char>, std::__ndk1::allocator<char> > >)1, geode::Hook, std::__ndk1::allocator<char> >&>(std::__ndk1::__variant_detail::__dtor<std::__ndk1::__variant_detail::__traits<geode::Hook*, std::__ndk1::basic_string<char, std::__ndk1::char_traits<char>, std::__ndk1::allocator<char> > >, (std::__ndk1::__variant_detail::_Trait)1>, std::__ndk1::__variant_detail::__base<(std::__ndk1::__variant_detail::__traits<geode::Hook*, std::__ndk1::basic_string<char, std::__ndk1::char_traits<char>, std::__ndk1::allocator<char> > >)1, geode::Hook, std::__ndk1::allocator<char> >&)
PUBLIC 1838c 0 std::__ndk1::__variant_detail::__visitation::__base::__dispatcher<(unsigned long)1>::__dispatch[abi:ne180000]<std::__ndk1::__variant_detail::__dtor<std::__ndk1::__variant_detail::__traits<geode::Hook*, std::__ndk1::basic_string<char, std::__ndk1::char_traits<char>, std::__ndk1::allocator<char> > >, (std::__ndk1::__variant_detail::_Trait)1>::__destroy[abi:ne180000]()::{lambda(auto:1&)#1}, std::__ndk1::__variant_detail::__base<(std::__ndk1::__variant_detail::__traits<geode::Hook*, std::__ndk1::basic_string<char, std::__ndk1::char_traits<char>, std::__ndk1::allocator<char> > >)1, geode::Hook, std::__ndk1::allocator<char> >&>(std::__ndk1::__variant_detail::__dtor<std::__ndk1::__variant_detail::__traits<geode::Hook*, std::__ndk1::basic_string<char, std::__ndk1::char_traits<char>, std::__ndk1::allocator<char> > >, (std::__ndk1::__variant_detail::_Trait)1>, std::__ndk1::__variant_detail::__base<(std::__ndk1::__variant_detail::__traits<geode::Hook*, std::__ndk1::basic_string<char, std::__ndk1::char_traits<char>, std::__ndk1::allocator<char> > >)1, geode::Hook, std::__ndk1::allocator<char> >&)
PUBLIC 183a0 0 std::__ndk1::__tree<std::__ndk1::__value_type<std::__ndk1::basic_string<char, std::__ndk1::char_traits<char>, std::__ndk1::allocator<char> >, std::__ndk1::shared_ptr<geode::Hook> >, std::__ndk1::__map_value_compare<std::__ndk1::basic_string<char, std::__ndk1::char_traits<char>, std::__ndk1::allocator<char> >, std::__ndk1::__value_type<std::__ndk1::basic_string<char, std::__ndk1::char_traits<char>, std::__ndk1::allocator<char> >, std::__ndk1::shared_ptr<geode::Hook> >, std::__ndk1::less<std::__ndk1::basic_string<char, std::__ndk1::char_traits<char>, std::__ndk1::allocator<char> > >, true>, std::__ndk1::allocator<std::__ndk1::__value_type<std::__ndk1::basic_string<char, std::__ndk1::char_traits<char>, std::__ndk1::allocator<char> >, std::__ndk1::shared_ptr<geode::Hook> > > >::destroy(std::__ndk1::__tree_node<std::__ndk1::__value_type<std::__ndk1::basic_string<char, std::__ndk1::char_traits<char>, std::__ndk1::allocator<char> >, std::__ndk1::shared_ptr<geode::Hook> >, void*>*)
PUBLIC 18424 0 geode::modifier::AsStaticFunction_createMoveMenu<MyEditorUI, void (MyEditorUI::*)()>::Impl<void (MyEditorUI::*)()>::function(MyEditorUI*)
PUBLIC 184b8 0 std::__ndk1::shared_ptr<tulip::hook::CallingConvention>::~shared_ptr[abi:ne180000]()
PUBLIC 18508 0 tulip::hook::HandlerMetadata::~HandlerMetadata()
PUBLIC 1856c 0 MyEditorUI::on_circle_tool(cocos2d::CCObject*)
PUBLIC 1877c 0 cocos2d::CCCopying::copyWithZone(cocos2d::CCZone*)
PUBLIC 18784 0 CircleToolPopup::~CircleToolPopup()
PUBLIC 187a8 0 CircleToolPopup::init()
PUBLIC 18f90 0 CircleToolPopup::keyBackClicked()
PUBLIC 18fcc 0 cocos2d::CCLayerRGBA::setOpacityModifyRGB(bool)
PUBLIC 18fd0 0 cocos2d::CCLayerRGBA::isOpacityModifyRGB()
PUBLIC 18fd8 0 CircleToolPopup::FLAlert_Clicked(FLAlertLayer*, bool)
PUBLIC 18fe4 0 {virtual override thunk({offset(-320)}, CircleToolPopup::~CircleToolPopup())}
PUBLIC 18fec 0 {virtual override thunk({offset(-320)}, CircleToolPopup::~CircleToolPopup())}
PUBLIC 19014 0 {virtual override thunk({offset(-336)}, CircleToolPopup::keyBackClicked())}
PUBLIC 19054 0 cocos2d::CCKeyboardDelegate::keyUp(cocos2d::enumKeyCodes)
PUBLIC 19058 0 cocos2d::CCMouseDelegate::rightKeyDown()
PUBLIC 1905c 0 cocos2d::CCMouseDelegate::rightKeyUp()
PUBLIC 19060 0 cocos2d::CCMouseDelegate::scrollWheel(float, float)
PUBLIC 19064 0 {virtual override thunk({offset(-408)}, cocos2d::CCLayerRGBA::setOpacityModifyRGB(bool))}
PUBLIC 19068 0 {virtual override thunk({offset(-408)}, cocos2d::CCLayerRGBA::isOpacityModifyRGB())}
PUBLIC 19070 0 {virtual override thunk({offset(-640)}, CircleToolPopup::FLAlert_Clicked(FLAlertLayer*, bool))}
PUBLIC 19080 0 CircleToolPopup::on_close(cocos2d::CCObject*)
PUBLIC 1908c 0 FloatInputNode::create<cocos2d::CCSize, float, char const*>(cocos2d::CCSize, float, char const*)
PUBLIC 19234 0 CircleToolPopup::on_apply(cocos2d::CCObject*)
PUBLIC 194cc 0 CircleToolPopup::update_labels()
PUBLIC 19798 0 CircleToolPopup::on_info(cocos2d::CCObject*)
PUBLIC 1984c 0 CircleToolPopup::on_info2(cocos2d::CCObject*)
PUBLIC 19900 0 std::__ndk1::__function::__base<void (TextInputNode&)>::~__base()
PUBLIC 19904 0 std::__ndk1::__function::__func<TextInputNode::callback::{lambda(auto:1&)#1}, std::__ndk1::allocator<TextInputNode::callback::{lambda(auto:1&)#1}>, void (TextInputNode&)>::~__func()
PUBLIC 19908 0 std::__ndk1::__function::__func<TextInputNode::callback::{lambda(auto:1&)#1}, std::__ndk1::allocator<TextInputNode::callback::{lambda(auto:1&)#1}>, void (TextInputNode&)>::__clone() const
PUBLIC 1992c 0 std::__ndk1::__function::__func<TextInputNode::callback::{lambda(auto:1&)#1}, std::__ndk1::allocator<TextInputNode::callback::{lambda(auto:1&)#1}>, void (TextInputNode&)>::__clone(std::__ndk1::__function::__base<void (TextInputNode&)>*) const
PUBLIC 1993c 0 std::__ndk1::__function::__func<TextInputNode::callback::{lambda(auto:1&)#1}, std::__ndk1::allocator<TextInputNode::callback::{lambda(auto:1&)#1}>, void (TextInputNode&)>::destroy()
PUBLIC 19940 0 std::__ndk1::__function::__func<TextInputNode::callback::{lambda(auto:1&)#1}, std::__ndk1::allocator<TextInputNode::callback::{lambda(auto:1&)#1}>, void (TextInputNode&)>::destroy_deallocate()
PUBLIC 19944 0 std::__ndk1::__function::__func<TextInputNode::callback::{lambda(auto:1&)#1}, std::__ndk1::allocator<TextInputNode::callback::{lambda(auto:1&)#1}>, void (TextInputNode&)>::operator()(TextInputNode&)
PUBLIC 19948 0 std::__ndk1::__function::__func<TextInputNode::callback::{lambda(auto:1&)#1}, std::__ndk1::allocator<TextInputNode::callback::{lambda(auto:1&)#1}>, void (TextInputNode&)>::target(std::type_info const&) const
PUBLIC 19964 0 std::__ndk1::__function::__func<TextInputNode::callback::{lambda(auto:1&)#1}, std::__ndk1::allocator<TextInputNode::callback::{lambda(auto:1&)#1}>, void (TextInputNode&)>::target_type() const
PUBLIC 19970 0 std::__ndk1::__function::__func<FloatInputNode::callback::{lambda(auto:1&)#1}, std::__ndk1::allocator<FloatInputNode::callback::{lambda(auto:1&)#1}>, void (FloatInputNode&)>::~__func()
PUBLIC 19974 0 std::__ndk1::__function::__func<FloatInputNode::callback::{lambda(auto:1&)#1}, std::__ndk1::allocator<FloatInputNode::callback::{lambda(auto:1&)#1}>, void (FloatInputNode&)>::__clone() const
PUBLIC 19998 0 std::__ndk1::__function::__func<FloatInputNode::callback::{lambda(auto:1&)#1}, std::__ndk1::allocator<FloatInputNode::callback::{lambda(auto:1&)#1}>, void (FloatInputNode&)>::__clone(std::__ndk1::__function::__base<void (FloatInputNode&)>*) const
PUBLIC 199a8 0 std::__ndk1::__function::__func<FloatInputNode::callback::{lambda(auto:1&)#1}, std::__ndk1::allocator<FloatInputNode::callback::{lambda(auto:1&)#1}>, void (FloatInputNode&)>::destroy()
PUBLIC 199ac 0 std::__ndk1::__function::__func<FloatInputNode::callback::{lambda(auto:1&)#1}, std::__ndk1::allocator<FloatInputNode::callback::{lambda(auto:1&)#1}>, void (FloatInputNode&)>::destroy_deallocate()
PUBLIC 199b0 0 std::__ndk1::__function::__func<FloatInputNode::callback::{lambda(auto:1&)#1}, std::__ndk1::allocator<FloatInputNode::callback::{lambda(auto:1&)#1}>, void (FloatInputNode&)>::operator()(FloatInputNode&)
PUBLIC 199b4 0 std::__ndk1::__function::__func<FloatInputNode::callback::{lambda(auto:1&)#1}, std::__ndk1::allocator<FloatInputNode::callback::{lambda(auto:1&)#1}>, void (FloatInputNode&)>::target(std::type_info const&) const
PUBLIC 199d0 0 std::__ndk1::__function::__func<FloatInputNode::callback::{lambda(auto:1&)#1}, std::__ndk1::allocator<FloatInputNode::callback::{lambda(auto:1&)#1}>, void (FloatInputNode&)>::target_type() const
PUBLIC 199dc 0 std::__ndk1::__function::__func<CircleToolPopup::init()::{lambda(FloatInputNode&)#1}, std::__ndk1::allocator<CircleToolPopup::init()::{lambda(FloatInputNode&)#1}>, void (FloatInputNode&)>::~__func()
PUBLIC 199e0 0 std::__ndk1::__function::__func<CircleToolPopup::init()::{lambda(FloatInputNode&)#1}, std::__ndk1::allocator<CircleToolPopup::init()::{lambda(FloatInputNode&)#1}>, void (FloatInputNode&)>::__clone() const
PUBLIC 19a14 0 std::__ndk1::__function::__func<CircleToolPopup::init()::{lambda(FloatInputNode&)#1}, std::__ndk1::allocator<CircleToolPopup::init()::{lambda(FloatInputNode&)#1}>, void (FloatInputNode&)>::__clone(std::__ndk1::__function::__base<void (FloatInputNode&)>*) const
PUBLIC 19a28 0 std::__ndk1::__function::__func<CircleToolPopup::init()::{lambda(FloatInputNode&)#1}, std::__ndk1::allocator<CircleToolPopup::init()::{lambda(FloatInputNode&)#1}>, void (FloatInputNode&)>::destroy()
PUBLIC 19a2c 0 std::__ndk1::__function::__func<CircleToolPopup::init()::{lambda(FloatInputNode&)#1}, std::__ndk1::allocator<CircleToolPopup::init()::{lambda(FloatInputNode&)#1}>, void (FloatInputNode&)>::destroy_deallocate()
PUBLIC 19a30 0 std::__ndk1::__function::__func<CircleToolPopup::init()::{lambda(FloatInputNode&)#1}, std::__ndk1::allocator<CircleToolPopup::init()::{lambda(FloatInputNode&)#1}>, void (FloatInputNode&)>::operator()(FloatInputNode&)
PUBLIC 19ae0 0 std::__ndk1::__function::__func<CircleToolPopup::init()::{lambda(FloatInputNode&)#1}, std::__ndk1::allocator<CircleToolPopup::init()::{lambda(FloatInputNode&)#1}>, void (FloatInputNode&)>::target(std::type_info const&) const
PUBLIC 19afc 0 std::__ndk1::__function::__func<CircleToolPopup::init()::{lambda(FloatInputNode&)#1}, std::__ndk1::allocator<CircleToolPopup::init()::{lambda(FloatInputNode&)#1}>, void (FloatInputNode&)>::target_type() const
PUBLIC 19b08 0 std::__ndk1::__function::__value_func<void (FloatInputNode&)>::swap[abi:ne180000](std::__ndk1::__function::__value_func<void (FloatInputNode&)>&)
PUBLIC 19ca0 0 std::__ndk1::__function::__func<CircleToolPopup::init()::{lambda(FloatInputNode&)#2}, std::__ndk1::allocator<CircleToolPopup::init()::{lambda(FloatInputNode&)#2}>, void (FloatInputNode&)>::~__func()
PUBLIC 19ca4 0 std::__ndk1::__function::__func<CircleToolPopup::init()::{lambda(FloatInputNode&)#2}, std::__ndk1::allocator<CircleToolPopup::init()::{lambda(FloatInputNode&)#2}>, void (FloatInputNode&)>::__clone() const
PUBLIC 19cd8 0 std::__ndk1::__function::__func<CircleToolPopup::init()::{lambda(FloatInputNode&)#2}, std::__ndk1::allocator<CircleToolPopup::init()::{lambda(FloatInputNode&)#2}>, void (FloatInputNode&)>::__clone(std::__ndk1::__function::__base<void (FloatInputNode&)>*) const
PUBLIC 19cec 0 std::__ndk1::__function::__func<CircleToolPopup::init()::{lambda(FloatInputNode&)#2}, std::__ndk1::allocator<CircleToolPopup::init()::{lambda(FloatInputNode&)#2}>, void (FloatInputNode&)>::destroy()
PUBLIC 19cf0 0 std::__ndk1::__function::__func<CircleToolPopup::init()::{lambda(FloatInputNode&)#2}, std::__ndk1::allocator<CircleToolPopup::init()::{lambda(FloatInputNode&)#2}>, void (FloatInputNode&)>::destroy_deallocate()
PUBLIC 19cf4 0 std::__ndk1::__function::__func<CircleToolPopup::init()::{lambda(FloatInputNode&)#2}, std::__ndk1::allocator<CircleToolPopup::init()::{lambda(FloatInputNode&)#2}>, void (FloatInputNode&)>::operator()(FloatInputNode&)
PUBLIC 19db0 0 std::__ndk1::__function::__func<CircleToolPopup::init()::{lambda(FloatInputNode&)#2}, std::__ndk1::allocator<CircleToolPopup::init()::{lambda(FloatInputNode&)#2}>, void (FloatInputNode&)>::target(std::type_info const&) const
PUBLIC 19dcc 0 std::__ndk1::__function::__func<CircleToolPopup::init()::{lambda(FloatInputNode&)#2}, std::__ndk1::allocator<CircleToolPopup::init()::{lambda(FloatInputNode&)#2}>, void (FloatInputNode&)>::target_type() const
PUBLIC 19dd8 0 std::__ndk1::__function::__base<void (FloatInputNode&)>::~__base()
PUBLIC 19ddc 0 std::__ndk1::__function::__func<CircleToolPopup::init()::{lambda(FloatInputNode&)#3}, std::__ndk1::allocator<CircleToolPopup::init()::{lambda(FloatInputNode&)#3}>, void (FloatInputNode&)>::~__func()
PUBLIC 19de0 0 std::__ndk1::__function::__func<CircleToolPopup::init()::{lambda(FloatInputNode&)#3}, std::__ndk1::allocator<CircleToolPopup::init()::{lambda(FloatInputNode&)#3}>, void (FloatInputNode&)>::__clone() const
PUBLIC 19e14 0 std::__ndk1::__function::__func<CircleToolPopup::init()::{lambda(FloatInputNode&)#3}, std::__ndk1::allocator<CircleToolPopup::init()::{lambda(FloatInputNode&)#3}>, void (FloatInputNode&)>::__clone(std::__ndk1::__function::__base<void (FloatInputNode&)>*) const
PUBLIC 19e28 0 std::__ndk1::__function::__func<CircleToolPopup::init()::{lambda(FloatInputNode&)#3}, std::__ndk1::allocator<CircleToolPopup::init()::{lambda(FloatInputNode&)#3}>, void (FloatInputNode&)>::destroy()
PUBLIC 19e2c 0 std::__ndk1::__function::__func<CircleToolPopup::init()::{lambda(FloatInputNode&)#3}, std::__ndk1::allocator<CircleToolPopup::init()::{lambda(FloatInputNode&)#3}>, void (FloatInputNode&)>::destroy_deallocate()
PUBLIC 19e30 0 std::__ndk1::__function::__func<CircleToolPopup::init()::{lambda(FloatInputNode&)#3}, std::__ndk1::allocator<CircleToolPopup::init()::{lambda(FloatInputNode&)#3}>, void (FloatInputNode&)>::operator()(FloatInputNode&)
PUBLIC 19ee0 0 std::__ndk1::__function::__func<CircleToolPopup::init()::{lambda(FloatInputNode&)#3}, std::__ndk1::allocator<CircleToolPopup::init()::{lambda(FloatInputNode&)#3}>, void (FloatInputNode&)>::target(std::type_info const&) const
PUBLIC 19efc 0 std::__ndk1::__function::__func<CircleToolPopup::init()::{lambda(FloatInputNode&)#3}, std::__ndk1::allocator<CircleToolPopup::init()::{lambda(FloatInputNode&)#3}>, void (FloatInputNode&)>::target_type() const
PUBLIC 19f08 0 CircleToolPopup::perform()
PUBLIC 1a144 0 geode::cocos::CCArrayExt<GameObject*>::~CCArrayExt()
PUBLIC 1a160 0 std::__ndk1::__tree_balance_after_insert[abi:ne180000]<std::__ndk1::__tree_node_base<void*>*>(std::__ndk1::__tree_node_base<void*>*, std::__ndk1::__tree_node_base<void*>*)
PUBLIC 1a310 0 TextInputNode::init(cocos2d::CCSize, float, std::__ndk1::basic_string<char, std::__ndk1::char_traits<char>, std::__ndk1::allocator<char> > const&)
PUBLIC 1a454 0 TextInputNode::textChanged(CCTextInputNode*)
PUBLIC 1a478 0 {virtual override thunk({offset(-320)}, TextInputNode::textChanged(CCTextInputNode*))}
PUBLIC 1a4a0 0 FloatInputNode::textChanged(CCTextInputNode*)
PUBLIC 1a4c4 0 {virtual override thunk({offset(-320)}, FloatInputNode::textChanged(CCTextInputNode*))}
PUBLIC 1a4ec 0 FloatInputNode::set_value(float)
PUBLIC 1a6e8 0 parse_float(std::__ndk1::basic_string_view<char, std::__ndk1::char_traits<char> >)
PUBLIC 1a8cc 0 TextInputNode::~TextInputNode()
PUBLIC 1a930 0 TextInputNode::~TextInputNode()
PUBLIC 1a99c 0 FloatInputNode::~FloatInputNode()
PUBLIC 1aa44 0 FloatInputNode::~FloatInputNode()
PUBLIC 1aaf4 0 std::__ndk1::__throw_bad_function_call[abi:ne180000]()
PUBLIC 1ab28 0 std::__ndk1::bad_function_call::~bad_function_call()
PUBLIC m 1ab4c 0 geodeImplicitEntry
PUBLIC 1ab88 0 cocos2d::CCDestructor::~CCDestructor()
PUBLIC 1ac84 0 wrapFunction(unsigned long, tulip::hook::WrapperMetadata const&)
PUBLIC 1adb8 0 geode::impl::ResultData<void*, std::__ndk1::basic_string<char, std::__ndk1::char_traits<char>, std::__ndk1::allocator<char> > >::unwrapErr() &
PUBLIC 1ae30 0 geode::impl::ResultData<void*, std::__ndk1::basic_string<char, std::__ndk1::char_traits<char>, std::__ndk1::allocator<char> > >::~ResultData()
PUBLIC 1aea4 0 tulip::hook::WrapperMetadata::~WrapperMetadata()
PUBLIC 1af08 0 cocos2d::CCObject::CCObject()
PUBLIC 1b07c 0 cocos2d::CCNode::CCNode()
PUBLIC 1b210 0 cocos2d::CCNode::~CCNode()
PUBLIC 1b234 0 {virtual override thunk({offset(-320)}, cocos2d::CCLayer::~CCLayer())}
PUBLIC 1b23c 0 cocos2d::CCLayer::~CCLayer()
PUBLIC 1b260 0 {virtual override thunk({offset(-320)}, cocos2d::CCLayer::~CCLayer())}
PUBLIC 1b288 0 cocos2d::CCObject::~CCObject()
PUBLIC 1b2ac 0 cocos2d::CCLayerColor::CCLayerColor()
PUBLIC 1b6ac 0 cocos2d::CCLayerRGBA::~CCLayerRGBA()
PUBLIC 1b8f8 0 {virtual override thunk({offset(-320)}, cocos2d::CCLayerColor::~CCLayerColor())}
PUBLIC 1b900 0 cocos2d::CCLayerColor::~CCLayerColor()
PUBLIC 1b924 0 {virtual override thunk({offset(-320)}, cocos2d::CCLayerColor::~CCLayerColor())}
PUBLIC 1b94c 0 {virtual override thunk({offset(-320)}, cocos2d::CCLayerRGBA::~CCLayerRGBA())}
PUBLIC 1b954 0 cocos2d::CCLayerRGBA::~CCLayerRGBA()
PUBLIC 1b978 0 {virtual override thunk({offset(-320)}, cocos2d::CCLayerRGBA::~CCLayerRGBA())}
PUBLIC 1b9a0 0 {virtual override thunk({offset(-320)}, FLAlertLayer::~FLAlertLayer())}
PUBLIC 1b9a8 0 FLAlertLayer::~FLAlertLayer()
PUBLIC 1b9cc 0 {virtual override thunk({offset(-320)}, FLAlertLayer::~FLAlertLayer())}
PUBLIC 1b9f4 0 FLAlertLayer::create(FLAlertLayerProtocol*, char const*, gd::string, char const*, char const*, float)
PUBLIC 1bbac 0 tulip::hook::AbstractFunction::from<FLAlertLayer*, FLAlertLayerProtocol*, char const*, gd::string, char const*, char const*, float>(FLAlertLayer* (*)(FLAlertLayerProtocol*, char const*, gd::string, char const*, char const*, float))
PUBLIC 1bd18 0 TextInputDelegate::textChanged(CCTextInputNode*)
PUBLIC 1bd1c 0 TextInputDelegate::textInputOpened(CCTextInputNode*)
PUBLIC 1bd20 0 TextInputDelegate::textInputClosed(CCTextInputNode*)
PUBLIC 1bd24 0 TextInputDelegate::textInputShouldOffset(CCTextInputNode*, float)
PUBLIC 1bd28 0 TextInputDelegate::textInputReturn(CCTextInputNode*)
PUBLIC 1bd2c 0 TextInputDelegate::allowTextInput(CCTextInputNode*)
PUBLIC 1bd34 0 TextInputDelegate::enterPressed(CCTextInputNode*)
PUBLIC 1bd38 0 CCTextInputNode::setAllowedChars(gd::string)
PUBLIC 1beb0 0 tulip::hook::AbstractFunction::from<void, CCTextInputNode*, gd::string>(void (*)(CCTextInputNode*, gd::string))
PUBLIC 1bf54 0 CCTextInputNode::setString(gd::string)
PUBLIC 1c0cc 0 UndoObject::~UndoObject()
PUBLIC 1c114 0 UndoObject::~UndoObject()
PUBLIC 1c164 0 UndoObject::createWithArray(cocos2d::CCArray*, UndoCommand)
PUBLIC 1c1fc 0 cocos2d::CCObject::update(float)
PUBLIC 1c200 0 cocos2d::CCLayer::~CCLayer()
PUBLIC 1c444 0 cocos2d::CCLayerColor::~CCLayerColor()
PUBLIC 1c698 0 FLAlertLayer::~FLAlertLayer()
PUBLIC 1c94c 0 cocos2d::CCNode::~CCNode()
PUBLIC 1cb70 0 cocos2d::CCObject::~CCObject()
PUBLIC 1cd94 0 _ZN5geode15UnwrapExceptionC2IRPvQsr4implE18IsStringStreamableIT_EEENS_4impl5OkTagEOS4_
PUBLIC 1cee8 0 _ZN5geode15UnwrapExceptionC2IRNSt6__ndk112basic_stringIcNS2_11char_traitsIcEENS2_9allocatorIcEEEEQsr4implE18IsStringStreamableIT_EEENS_4impl6ErrTagEOSA_
PUBLIC 1d050 0 std::__ndk1::__variant_detail::__visitation::__base::__dispatcher<(unsigned long)0>::__dispatch[abi:ne180000]<std::__ndk1::__variant_detail::__dtor<std::__ndk1::__variant_detail::__traits<void*, std::__ndk1::basic_string<char, std::__ndk1::char_traits<char>, std::__ndk1::allocator<char> > >, (std::__ndk1::__variant_detail::_Trait)1>::__destroy[abi:ne180000]()::{lambda(auto:1&)#1}, std::__ndk1::__variant_detail::__base<(std::__ndk1::__variant_detail::__traits<void*, std::__ndk1::basic_string<char, std::__ndk1::char_traits<char>, std::__ndk1::allocator<char> > >)1, std::__ndk1::__variant_detail::__traits, std::__ndk1::allocator<char> >&>(std::__ndk1::__variant_detail::__dtor<std::__ndk1::__variant_detail::__traits<void*, std::__ndk1::basic_string<char, std::__ndk1::char_traits<char>, std::__ndk1::allocator<char> > >, (std::__ndk1::__variant_detail::_Trait)1>, std::__ndk1::__variant_detail::__base<(std::__ndk1::__variant_detail::__traits<void*, std::__ndk1::basic_string<char, std::__ndk1::char_traits<char>, std::__ndk1::allocator<char> > >)1, std::__ndk1::__variant_detail::__traits, std::__ndk1::allocator<char> >&)
PUBLIC 1d054 0 std::__ndk1::__variant_detail::__visitation::__base::__dispatcher<(unsigned long)1>::__dispatch[abi:ne180000]<std::__ndk1::__variant_detail::__dtor<std::__ndk1::__variant_detail::__traits<void*, std::__ndk1::basic_string<char, std::__ndk1::char_traits<char>, std::__ndk1::allocator<char> > >, (std::__ndk1::__variant_detail::_Trait)1>::__destroy[abi:ne180000]()::{lambda(auto:1&)#1}, std::__ndk1::__variant_detail::__base<(std::__ndk1::__variant_detail::__traits<void*, std::__ndk1::basic_string<char, std::__ndk1::char_traits<char>, std::__ndk1::allocator<char> > >)1, std::__ndk1::__variant_detail::__traits, std::__ndk1::allocator<char> >&>(std::__ndk1::__variant_detail::__dtor<std::__ndk1::__variant_detail::__traits<void*, std::__ndk1::basic_string<char, std::__ndk1::char_traits<char>, std::__ndk1::allocator<char> > >, (std::__ndk1::__variant_detail::_Trait)1>, std::__ndk1::__variant_detail::__base<(std::__ndk1::__variant_detail::__traits<void*, std::__ndk1::basic_string<char, std::__ndk1::char_traits<char>, std::__ndk1::allocator<char> > >)1, std::__ndk1::__variant_detail::__traits, std::__ndk1::allocator<char> >&)
PUBLIC 1d068 0 std::__ndk1::__hash_table<std::__ndk1::__hash_value_type<void*, bool>, std::__ndk1::__unordered_map_hasher<void*, std::__ndk1::__hash_value_type<void*, bool>, std::__ndk1::hash<void*>, std::__ndk1::equal_to<void*>, true>, std::__ndk1::__unordered_map_equal<void*, std::__ndk1::__hash_value_type<void*, bool>, std::__ndk1::equal_to<void*>, std::__ndk1::hash<void*>, true>, std::__ndk1::allocator<std::__ndk1::__hash_value_type<void*, bool> > >::__emplace_unique_key_args<void*, std::__ndk1::piecewise_construct_t const&, std::__ndk1::tuple<void* const&>, std::__ndk1::tuple<> >(void* const&, std::__ndk1::piecewise_construct_t const&, std::__ndk1::tuple<void* const&>, std::__ndk1::tuple<>)
PUBLIC 1d548 0 std::__ndk1::__hash_table<std::__ndk1::__hash_value_type<void*, bool>, std::__ndk1::__unordered_map_hasher<void*, std::__ndk1::__hash_value_type<void*, bool>, std::__ndk1::hash<void*>, std::__ndk1::equal_to<void*>, true>, std::__ndk1::__unordered_map_equal<void*, std::__ndk1::__hash_value_type<void*, bool>, std::__ndk1::equal_to<void*>, std::__ndk1::hash<void*>, true>, std::__ndk1::allocator<std::__ndk1::__hash_value_type<void*, bool> > >::find<void*>(void* const&)
PUBLIC 1d658 0 std::__ndk1::__hash_table<std::__ndk1::__hash_value_type<void*, bool>, std::__ndk1::__unordered_map_hasher<void*, std::__ndk1::__hash_value_type<void*, bool>, std::__ndk1::hash<void*>, std::__ndk1::equal_to<void*>, true>, std::__ndk1::__unordered_map_equal<void*, std::__ndk1::__hash_value_type<void*, bool>, std::__ndk1::equal_to<void*>, std::__ndk1::hash<void*>, true>, std::__ndk1::allocator<std::__ndk1::__hash_value_type<void*, bool> > >::remove(std::__ndk1::__hash_const_iterator<std::__ndk1::__hash_node<std::__ndk1::__hash_value_type<void*, bool>, void*>*>)
PUBLIC 1d78c 0 __udivti3
PUBLIC 1d798 0 __udivmodti4
PUBLIC m 1d9e4 0 __eqtf2
PUBLIC 1da84 0 __unordtf2
PUBLIC 1dabc 0 fmt::v11::detail::write_loc(fmt::v11::basic_appender<char>, fmt::v11::loc_value, fmt::v11::format_specs const&, fmt::v11::detail::locale_ref)
PUBLIC 1dd50 0 fmt::v11::format_facet<std::__ndk1::locale>::~format_facet()
PUBLIC 1ddcc 0 fmt::v11::report_error(char const*)
PUBLIC 1de1c 0 fmt::v11::format_error::runtime_error(char const*)
PUBLIC 1de48 0 fmt::v11::format_facet<std::__ndk1::locale>::do_put(fmt::v11::basic_appender<char>, fmt::v11::loc_value, fmt::v11::format_specs const&) const
PUBLIC 1e608 0 fmt::v11::detail::loc_writer<char>::~loc_writer()
PUBLIC 1e66c 0 fmt::v11::detail::vformat_to<char>(fmt::v11::detail::buffer<char>&, fmt::v11::basic_string_view<char>, fmt::v11::detail::vformat_args<char>::type, fmt::v11::detail::locale_ref)
PUBLIC 1ebdc 0 fmt::v11::detail::is_printable(unsigned int)
PUBLIC 1ee04 0 fmt::v11::detail::dragonbox::to_decimal<float>(float)
PUBLIC 1f0e0 0 fmt::v11::detail::dragonbox::to_decimal<double>(double)
PUBLIC 1f61c 0 fmt::v11::basic_memory_buffer<char, (unsigned long)500, std::__ndk1::allocator<char> >::grow(fmt::v11::detail::buffer<char>&, unsigned long)
PUBLIC 1f694 0 fmt::v11::format_facet<std::__ndk1::locale>::~format_facet()
PUBLIC 1f720 0 fmt::v11::format_error::~format_error()
PUBLIC 1f744 0 fmt::v11::detail::copy_noinline<char, char const*, fmt::v11::basic_appender<char> >(char const*, char const*, fmt::v11::basic_appender<char>)
PUBLIC 1f894 0 fmt::v11::detail::default_arg_formatter<char>::operator()<bool>(bool)
PUBLIC 1f8fc 0 fmt::v11::detail::default_arg_formatter<char>::operator()<char>(char)
PUBLIC 1f98c 0 fmt::v11::detail::default_arg_formatter<char>::operator()<float>(float)
PUBLIC 1fa78 0 fmt::v11::detail::default_arg_formatter<char>::operator()<double>(double)
PUBLIC 1fb64 0 fmt::v11::detail::default_arg_formatter<char>::operator()<char const*>(char const*)
PUBLIC 1fbac 0 fmt::v11::detail::default_arg_formatter<char>::operator()<void const*>(void const*)
PUBLIC 1fc44 0 _ZN3fmt3v116detail5writeIcNS0_14basic_appenderIcEEiTnNSt6__ndk19enable_ifIXaaaasr11is_integralIT1_EE5valuentsr3std7is_sameIS7_bEE5valuentsr3std7is_sameIS7_T_EE5valueEiE4typeELi0EEET0_SB_S7_
PUBLIC 1fea4 0 fmt::v11::detail::copy_noinline<char, char*, fmt::v11::basic_appender<char> >(char*, char*, fmt::v11::basic_appender<char>)
PUBLIC 1fff4 0 _ZN3fmt3v116detail5writeIcNS0_14basic_appenderIcEEjTnNSt6__ndk19enable_ifIXaaaasr11is_integralIT1_EE5valuentsr3std7is_sameIS7_bEE5valuentsr3std7is_sameIS7_T_EE5valueEiE4typeELi0EEET0_SB_S7_
PUBLIC 201d4 0 _ZN3fmt3v116detail5writeIcNS0_14basic_appenderIcEExTnNSt6__ndk19enable_ifIXaaaasr11is_integralIT1_EE5valuentsr3std7is_sameIS7_bEE5valuentsr3std7is_sameIS7_T_EE5valueEiE4typeELi0EEET0_SB_S7_
PUBLIC 20458 0 _ZN3fmt3v116detail5writeIcNS0_14basic_appenderIcEEyTnNSt6__ndk19enable_ifIXaaaasr11is_integralIT1_EE5valuentsr3std7is_sameIS7_bEE5valuentsr3std7is_sameIS7_T_EE5valueEiE4typeELi0EEET0_SB_S7_
PUBLIC 20660 0 _ZN3fmt3v116detail5writeIcNS0_14basic_appenderIcEEnTnNSt6__ndk19enable_ifIXaaaasr11is_integralIT1_EE5valuentsr3std7is_sameIS7_bEE5valuentsr3std7is_sameIS7_T_EE5valueEiE4typeELi0EEET0_SB_S7_
PUBLIC 209c0 0 _ZN3fmt3v116detail5writeIcNS0_14basic_appenderIcEEoTnNSt6__ndk19enable_ifIXaaaasr11is_integralIT1_EE5valuentsr3std7is_sameIS7_bEE5valuentsr3std7is_sameIS7_T_EE5valueEiE4typeELi0EEET0_SB_S7_
PUBLIC 20cd4 0 _ZN3fmt3v116detail5writeIcNS0_14basic_appenderIcEEbTnNSt6__ndk19enable_ifIXsr3std7is_sameIT1_bEE5valueEiE4typeELi0EEET0_SA_S7_RKNS0_12format_specsENS1_10locale_refE
PUBLIC 20f64 0 fmt::v11::detail::write_int_noinline<char, fmt::v11::basic_appender<char>, unsigned int>(fmt::v11::basic_appender<char>, fmt::v11::detail::write_int_arg<unsigned int>, fmt::v11::format_specs const&, fmt::v11::detail::locale_ref)
PUBLIC 21d40 0 fmt::v11::detail::fill<char, fmt::v11::basic_appender<char> >(fmt::v11::basic_appender<char>, unsigned long, fmt::v11::detail::fill_t const&)
PUBLIC 21f10 0 fmt::v11::detail::write_padded<char, (fmt::v11::align::type)1, fmt::v11::basic_appender<char>, fmt::v11::detail::write_char<char, fmt::v11::basic_appender<char> >(fmt::v11::basic_appender<char>, char, fmt::v11::format_specs const&)::{lambda(fmt::v11::basic_appender<char>&)#1}>(fmt::v11::basic_appender<char>, fmt::v11::format_specs const&, unsigned long, unsigned long, fmt::v11::detail::write_char<char, fmt::v11::basic_appender<char> >(fmt::v11::basic_appender<char>, char, fmt::v11::format_specs const&)::{lambda(fmt::v11::basic_appender<char>&)#1})
PUBLIC 2214c 0 fmt::v11::detail::write_escaped_cp<fmt::v11::basic_appender<char>, char>(fmt::v11::basic_appender<char>, fmt::v11::detail::find_escape_result<char> const&)
PUBLIC 22458 0 fmt::v11::detail::write_codepoint<(unsigned long)2, char, fmt::v11::basic_appender<char> >(fmt::v11::basic_appender<char>, char, unsigned int)
PUBLIC 225d0 0 fmt::v11::detail::write_codepoint<(unsigned long)8, char, fmt::v11::basic_appender<char> >(fmt::v11::basic_appender<char>, char, unsigned int)
PUBLIC 22748 0 fmt::v11::detail::write_padded<char, (fmt::v11::align::type)1, fmt::v11::basic_appender<char>, fmt::v11::detail::write_nonfinite<char, fmt::v11::basic_appender<char> >(fmt::v11::basic_appender<char>, bool, fmt::v11::format_specs, fmt::v11::sign::type)::{lambda(fmt::v11::basic_appender<char>&)#1}>(fmt::v11::basic_appender<char>, fmt::v11::format_specs const&, unsigned long, unsigned long, fmt::v11::detail::write_nonfinite<char, fmt::v11::basic_appender<char> >(fmt::v11::basic_appender<char>, bool, fmt::v11::format_specs, fmt::v11::sign::type)::{lambda(fmt::v11::basic_appender<char>&)#1})
PUBLIC 22988 0 fmt::v11::detail::do_write_float<char, fmt::v11::basic_appender<char>, fmt::v11::detail::dragonbox::decimal_fp<float>, fmt::v11::detail::digit_grouping<char> >(fmt::v11::basic_appender<char>, fmt::v11::detail::dragonbox::decimal_fp<float> const&, fmt::v11::format_specs const&, fmt::v11::detail::float_specs, fmt::v11::detail::locale_ref)
PUBLIC 235fc 0 fmt::v11::detail::do_write_float<char, fmt::v11::basic_appender<char>, fmt::v11::detail::dragonbox::decimal_fp<float>, fmt::v11::detail::digit_grouping<char> >(fmt::v11::basic_appender<char>, fmt::v11::detail::dragonbox::decimal_fp<float> const&, fmt::v11::format_specs const&, fmt::v11::detail::float_specs, fmt::v11::detail::locale_ref)::{lambda(fmt::v11::basic_appender<char>(fmt::v11::basic_appender<char>))#1}::operator() const
PUBLIC 23750 0 fmt::v11::detail::digit_grouping<char>::digit_grouping(fmt::v11::detail::locale_ref, bool)
PUBLIC 239bc 0 fmt::v11::detail::digit_grouping<char>::~digit_grouping()
PUBLIC 23a00 0 fmt::v11::detail::write_exponent<char, fmt::v11::basic_appender<char> >(int, fmt::v11::basic_appender<char>)
PUBLIC 23bd0 0 _ZN3fmt3v116detail17write_significandIcjTnNSt6__ndk19enable_ifIXsr3std11is_integralIT0_EE5valueEiE4typeELi0EEEPT_S9_S5_iiS8_
PUBLIC 23d4c 0 std::__ndk1::basic_string<char, std::__ndk1::char_traits<char>, std::__ndk1::allocator<char> >::__assign_no_alias<true>(char const*, unsigned long)
PUBLIC 23df8 0 std::__ndk1::basic_string<char, std::__ndk1::char_traits<char>, std::__ndk1::allocator<char> >::__assign_no_alias<false>(char const*, unsigned long)
PUBLIC 23f08 0 fmt::v11::detail::digit_grouping<char>::apply<fmt::v11::basic_appender<char>, char>(fmt::v11::basic_appender<char>, fmt::v11::basic_string_view<char>) const
PUBLIC 242c0 0 fmt::v11::basic_memory_buffer<int, (unsigned long)500, std::__ndk1::allocator<int> >::grow(fmt::v11::detail::buffer<int>&, unsigned long)
PUBLIC 24360 0 fmt::v11::detail::do_write_float<char, fmt::v11::basic_appender<char>, fmt::v11::detail::dragonbox::decimal_fp<double>, fmt::v11::detail::digit_grouping<char> >(fmt::v11::basic_appender<char>, fmt::v11::detail::dragonbox::decimal_fp<double> const&, fmt::v11::format_specs const&, fmt::v11::detail::float_specs, fmt::v11::detail::locale_ref)
PUBLIC 25014 0 fmt::v11::detail::do_write_float<char, fmt::v11::basic_appender<char>, fmt::v11::detail::dragonbox::decimal_fp<double>, fmt::v11::detail::digit_grouping<char> >(fmt::v11::basic_appender<char>, fmt::v11::detail::dragonbox::decimal_fp<double> const&, fmt::v11::format_specs const&, fmt::v11::detail::float_specs, fmt::v11::detail::locale_ref)::{lambda(fmt::v11::basic_appender<char>(fmt::v11::basic_appender<char>))#1}::operator() const
PUBLIC 2516c 0 _ZN3fmt3v116detail17write_significandIcmTnNSt6__ndk19enable_ifIXsr3std11is_integralIT0_EE5valueEiE4typeELi0EEEPT_S9_S5_iiS8_
PUBLIC 252fc 0 fmt::v11::detail::write_float<char, fmt::v11::basic_appender<char>, long double>(fmt::v11::basic_appender<char>, long double, fmt::v11::format_specs, fmt::v11::detail::locale_ref)
PUBLIC 25df8 0 fmt::v11::detail::write_padded<char, (fmt::v11::align::type)2, fmt::v11::basic_appender<char>, fmt::v11::detail::write_bytes<char, (fmt::v11::align::type)2, fmt::v11::basic_appender<char> >(fmt::v11::basic_appender<char>, fmt::v11::basic_string_view<char>, fmt::v11::format_specs const&)::{lambda(fmt::v11::basic_appender<char>&)#1}>(fmt::v11::basic_appender<char>, fmt::v11::format_specs const&, unsigned long, unsigned long, fmt::v11::detail::write_bytes<char, (fmt::v11::align::type)2, fmt::v11::basic_appender<char> >(fmt::v11::basic_appender<char>, fmt::v11::basic_string_view<char>, fmt::v11::format_specs const&)::{lambda(fmt::v11::basic_appender<char>&)#1})
PUBLIC 25fd4 0 fmt::v11::detail::format_dragon(fmt::v11::detail::basic_fp<unsigned __int128>, unsigned int, int, fmt::v11::detail::buffer<char>&, int&)
PUBLIC 27404 0 fmt::v11::detail::bigint::operator<<=(int)
PUBLIC 27528 0 fmt::v11::detail::bigint::assign_pow10(int)
PUBLIC 27c84 0 fmt::v11::detail::bigint::divmod_assign(fmt::v11::detail::bigint const&)
PUBLIC 27fa4 0 fmt::v11::basic_memory_buffer<unsigned int, (unsigned long)32, std::__ndk1::allocator<unsigned int> >::grow(fmt::v11::detail::buffer<unsigned int>&, unsigned long)
PUBLIC 28044 0 fmt::v11::detail::do_write_float<char, fmt::v11::basic_appender<char>, fmt::v11::detail::big_decimal_fp, fmt::v11::detail::digit_grouping<char> >(fmt::v11::basic_appender<char>, fmt::v11::detail::big_decimal_fp const&, fmt::v11::format_specs const&, fmt::v11::detail::float_specs, fmt::v11::detail::locale_ref)
PUBLIC 28ef4 0 fmt::v11::detail::do_write_float<char, fmt::v11::basic_appender<char>, fmt::v11::detail::big_decimal_fp, fmt::v11::detail::digit_grouping<char> >(fmt::v11::basic_appender<char>, fmt::v11::detail::big_decimal_fp const&, fmt::v11::format_specs const&, fmt::v11::detail::float_specs, fmt::v11::detail::locale_ref)::{lambda(fmt::v11::basic_appender<char>(fmt::v11::basic_appender<char>))#1}::operator() const
PUBLIC 29054 0 fmt::v11::detail::write_padded<char, (fmt::v11::align::type)2, fmt::v11::basic_appender<char>, fmt::v11::detail::write_ptr<char, fmt::v11::basic_appender<char>, unsigned long>(fmt::v11::basic_appender<char>, unsigned long, fmt::v11::format_specs const*)::{lambda(fmt::v11::basic_appender<char>&)#1}>(fmt::v11::basic_appender<char>, fmt::v11::format_specs const&, unsigned long, unsigned long, fmt::v11::detail::write_ptr<char, fmt::v11::basic_appender<char>, unsigned long>(fmt::v11::basic_appender<char>, unsigned long, fmt::v11::format_specs const*)::{lambda(fmt::v11::basic_appender<char>&)#1})
PUBLIC 29268 0 fmt::v11::detail::parse_replacement_field<char, fmt::v11::detail::vformat_to<char>(fmt::v11::detail::buffer<char>&, fmt::v11::basic_string_view<char>, fmt::v11::detail::vformat_args<char>::type, fmt::v11::detail::locale_ref)::format_handler&>(char const*, char const*, fmt::v11::detail::vformat_to<char>(fmt::v11::detail::buffer<char>&, fmt::v11::basic_string_view<char>, fmt::v11::detail::vformat_args<char>::type, fmt::v11::detail::locale_ref)::format_handler&)
PUBLIC 2af04 0 fmt::v11::detail::parse_dynamic_spec<char>(char const*, char const*, int&, fmt::v11::detail::arg_ref<char>&, fmt::v11::basic_format_parse_context<char>&)
PUBLIC 2b194 0 fmt::v11::basic_format_args<fmt::v11::context>::get<char>(fmt::v11::basic_string_view<char>) const
PUBLIC 2b2ec 0 fmt::v11::detail::write_int_noinline<char, fmt::v11::basic_appender<char>, unsigned long>(fmt::v11::basic_appender<char>, fmt::v11::detail::write_int_arg<unsigned long>, fmt::v11::format_specs const&, fmt::v11::detail::locale_ref)
PUBLIC 2c140 0 fmt::v11::detail::write_int_noinline<char, fmt::v11::basic_appender<char>, unsigned __int128>(fmt::v11::basic_appender<char>, fmt::v11::detail::write_int_arg<unsigned __int128>, fmt::v11::format_specs const&, fmt::v11::detail::locale_ref)
PUBLIC 2d1a8 0 _ZN3fmt3v116detail15format_hexfloatIdTnNSt6__ndk19enable_ifIXntsr16is_double_doubleIT_EE5valueEiE4typeELi0EEEvS5_NS0_12format_specsERNS1_6bufferIcEE
PUBLIC 2d6c8 0 fmt::v11::detail::format_float<double>(double, int, fmt::v11::detail::float_specs, fmt::v11::detail::buffer<char>&)
PUBLIC 2e068 0 fmt::v11::detail::write<char, fmt::v11::basic_appender<char> >(fmt::v11::basic_appender<char>, fmt::v11::basic_string_view<char>, fmt::v11::format_specs const&)
PUBLIC 2f3d4 0 fmt::v11::detail::for_each_codepoint<fmt::v11::detail::compute_width(fmt::v11::basic_string_view<char>)::count_code_points>(fmt::v11::basic_string_view<char>, fmt::v11::detail::compute_width(fmt::v11::basic_string_view<char>)::count_code_points)::{lambda(char const*, char const*)#1}::operator()(char const*, char const*) const
PUBLIC 2f58c 0 fmt::v11::detail::write_int<fmt::v11::basic_appender<char>, unsigned long, char>(fmt::v11::basic_appender<char>, unsigned long, unsigned int, fmt::v11::format_specs const&, fmt::v11::detail::digit_grouping<char> const&)
PUBLIC 2fb08 0 fmt::v11::detail::write_int<fmt::v11::basic_appender<char>, unsigned __int128, char>(fmt::v11::basic_appender<char>, unsigned __int128, unsigned int, fmt::v11::format_specs const&, fmt::v11::detail::digit_grouping<char> const&)
PUBLIC 30184 0 __CortexA53843419_26008
PUBLIC 30190 0 <.plt ELF section in mat.circle-tool.android64.so>
STACK CFI INIT 15f30 10 .cfa: sp 0 +
STACK CFI INIT 15f40 8 .cfa: sp 0 +
STACK CFI INIT 15f48 8 .cfa: sp 0 +
STACK CFI INIT 15f50 14 .cfa: sp 0 +
STACK CFI INIT 15f64 1c .cfa: sp 0 +
STACK CFI INIT 15f80 10 .cfa: sp 0 +
STACK CFI INIT 15f90 30 .cfa: sp 0 +
STACK CFI INIT 15fc0 98 .cfa: sp 0 +
STACK CFI INIT 16058 59c .cfa: sp 0 +
STACK CFI INIT 165f4 8c .cfa: sp 0 +
STACK CFI INIT 16680 30 .cfa: sp 0 +
STACK CFI INIT 17284 18 .cfa: sp 0 +
STACK CFI INIT 176d8 50 .cfa: sp 0 +
STACK CFI 176dc .cfa: sp 32 +
STACK CFI 176e4 .cfa: x29 32 + x19: .cfa -16 + ^ .ra: .cfa -24 + ^ x29: .cfa -32 + ^
STACK CFI 176fc .cfa: sp 32 +
STACK CFI 17704 .cfa: sp 0 +
STACK CFI 17708 .cfa: x29 32 +
STACK CFI 1771c .cfa: sp 32 +
STACK CFI 17724 .cfa: sp 0 +
STACK CFI INIT 1779c 7c .cfa: sp 0 +
STACK CFI 177a0 .cfa: sp 48 +
STACK CFI 177ac .cfa: x29 48 + x19: .cfa -8 + ^ x20: .cfa -16 + ^ x21: .cfa -32 + ^ .ra: .cfa -40 + ^ x29: .cfa -48 + ^
STACK CFI 177f8 .cfa: sp 48 +
STACK CFI 17804 .cfa: sp 0 +
STACK CFI 17808 .cfa: sp 48 +
STACK CFI 17814 .cfa: sp 0 +
STACK CFI INIT 17818 4 .cfa: sp 0 +
STACK CFI INIT 1781c 10 .cfa: sp 0 +
STACK CFI 17820 .cfa: sp 16 +
STACK CFI 17824 .cfa: x29 16 + .ra: .cfa -8 + ^ x29: .cfa -16 + ^
STACK CFI INIT 17980 34 .cfa: sp 0 +
STACK CFI 17984 .cfa: sp 16 +
STACK CFI 17988 .cfa: x29 16 + .ra: .cfa -8 + ^ x29: .cfa -16 + ^
STACK CFI INIT 17ae0 80 .cfa: sp 0 +
STACK CFI 17ae4 .cfa: sp 48 +
STACK CFI 17af0 .cfa: x29 48 + x19: .cfa -8 + ^ x20: .cfa -16 + ^ x21: .cfa -32 + ^ .ra: .cfa -40 + ^ x29: .cfa -48 + ^
STACK CFI 17b50 .cfa: sp 48 +
STACK CFI 17b5c .cfa: sp 0 +
STACK CFI INIT 17b60 24 .cfa: sp 0 +
STACK CFI 17b64 .cfa: sp 32 +
STACK CFI 17b6c .cfa: x29 32 + x19: .cfa -16 + ^ .ra: .cfa -24 + ^ x29: .cfa -32 + ^
STACK CFI 17b78 .cfa: sp 32 +
STACK CFI 17b80 .cfa: sp 0 +
STACK CFI INIT 17f04 14 .cfa: sp 0 +
STACK CFI 17f08 .cfa: sp 16 +
STACK CFI 17f0c .cfa: x29 16 + .ra: .cfa -8 + ^ x29: .cfa -16 + ^
STACK CFI INIT 17f68 30 .cfa: sp 0 +
STACK CFI 17f6c .cfa: sp 32 +
STACK CFI 17f74 .cfa: x29 32 + x19: .cfa -16 + ^ .ra: .cfa -24 + ^ x29: .cfa -32 + ^
STACK CFI 17f8c .cfa: sp 32 +
STACK CFI 17f94 .cfa: sp 0 +
STACK CFI INIT 17f98 34 .cfa: sp 0 +
STACK CFI 17f9c .cfa: sp 32 +
STACK CFI 17fa4 .cfa: x29 32 + x19: .cfa -16 + ^ .ra: .cfa -24 + ^ x29: .cfa -32 + ^
STACK CFI INIT 18144 148 .cfa: sp 0 +
STACK CFI 18148 .cfa: sp 48 +
STACK CFI 18154 .cfa: x29 48 + x19: .cfa -8 + ^ x20: .cfa -16 + ^ x21: .cfa -32 + ^ .ra: .cfa -40 + ^ x29: .cfa -48 + ^
STACK CFI 1827c .cfa: sp 48 +
STACK CFI 18288 .cfa: sp 0 +
STACK CFI INIT 1828c 80 .cfa: sp 0 +
STACK CFI 18290 .cfa: sp 48 +
STACK CFI 1829c .cfa: x29 48 + x19: .cfa -8 + ^ x20: .cfa -16 + ^ x21: .cfa -24 + ^ x22: .cfa -32 + ^ .ra: .cfa -40 + ^ x29: .cfa -48 + ^
STACK CFI 182b4 .cfa: sp 48 +
STACK CFI 182c0 .cfa: sp 0 +
STACK CFI 182c4 .cfa: x29 48 +
STACK CFI 182f4 .cfa: sp 48 +
STACK CFI 18300 .cfa: sp 0 +
STACK CFI 18304 .cfa: x29 48 +
STACK CFI INIT 1830c 68 .cfa: sp 0 +
STACK CFI 18310 .cfa: sp 32 +
STACK CFI 18318 .cfa: x29 32 + x19: .cfa -8 + ^ x20: .cfa -16 + ^ .ra: .cfa -24 + ^ x29: .cfa -32 + ^
STACK CFI 18330 .cfa: sp 32 +
STACK CFI 18338 .cfa: sp 0 +
STACK CFI 1833c .cfa: x29 32 +
STACK CFI 18368 .cfa: sp 32 +
STACK CFI 18370 .cfa: sp 0 +
STACK CFI INIT 18374 14 .cfa: sp 0 +
STACK CFI 18378 .cfa: sp 16 +
STACK CFI 1837c .cfa: x29 16 + .ra: .cfa -8 + ^ x29: .cfa -16 + ^
STACK CFI INIT 18388 4 .cfa: sp 0 +
STACK CFI INIT 1838c 14 .cfa: sp 0 +
STACK CFI INIT 183a0 84 .cfa: sp 0 +
STACK CFI 183a8 .cfa: sp 32 +
STACK CFI 183b0 .cfa: x29 32 + x19: .cfa -8 + ^ x20: .cfa -16 + ^ .ra: .cfa -24 + ^ x29: .cfa -32 + ^
STACK CFI 183f0 .cfa: sp 32 +
STACK CFI 183f8 .cfa: sp 0 +
STACK CFI 18400 .cfa: x29 32 +
STACK CFI INIT 18424 94 .cfa: sp 0 +
STACK CFI 18428 .cfa: sp 32 +
STACK CFI 18430 .cfa: x29 32 + x19: .cfa -8 + ^ x20: .cfa -16 + ^ .ra: .cfa -24 + ^ x29: .cfa -32 + ^
STACK CFI 184ac .cfa: sp 32 +
STACK CFI 184b4 .cfa: sp 0 +
STACK CFI INIT 184b8 50 .cfa: sp 0 +
STACK CFI 184bc .cfa: sp 32 +
STACK CFI 184c4 .cfa: x29 32 + x19: .cfa -16 + ^ .ra: .cfa -24 + ^ x29: .cfa -32 + ^
STACK CFI 184dc .cfa: sp 32 +
STACK CFI 184e4 .cfa: sp 0 +
STACK CFI 184e8 .cfa: x29 32 +
STACK CFI 184fc .cfa: sp 32 +
STACK CFI 18504 .cfa: sp 0 +
STACK CFI INIT 18508 64 .cfa: sp 0 +
STACK CFI 1850c .cfa: sp 32 +
STACK CFI 18514 .cfa: x29 32 + x19: .cfa -16 + ^ .ra: .cfa -24 + ^ x29: .cfa -32 + ^
STACK CFI 18540 .cfa: sp 32 +
STACK CFI 18548 .cfa: sp 0 +
STACK CFI 1854c .cfa: x29 32 +
STACK CFI 18560 .cfa: sp 32 +
STACK CFI 18568 .cfa: sp 0 +
STACK CFI INIT 1877c 8 .cfa: sp 0 +
STACK CFI INIT 18784 24 .cfa: sp 0 +
STACK CFI 18788 .cfa: sp 32 +
STACK CFI 18790 .cfa: x29 32 + x19: .cfa -16 + ^ .ra: .cfa -24 + ^ x29: .cfa -32 + ^
STACK CFI 1879c .cfa: sp 32 +
STACK CFI 187a4 .cfa: sp 0 +
STACK CFI INIT 187a8 7e8 .cfa: sp 0 +
STACK CFI 187ac .cfa: sp 240 +
STACK CFI 187c8 .cfa: x29 80 + x19: .cfa -8 + ^ x20: .cfa -16 + ^ x21: .cfa -24 + ^ x22: .cfa -32 + ^ x23: .cfa -40 + ^ x24: .cfa -48 + ^ x25: .cfa -56 + ^ x26: .cfa -64 + ^ .ra: .cfa -72 + ^ x29: .cfa -80 + ^ v8: .cfa -96 + ^
STACK CFI 18f6c .cfa: sp 240 +
STACK CFI 18f88 .cfa: sp 0 +
STACK CFI 18f8c .cfa: x29 80 +
STACK CFI INIT 18f90 3c .cfa: sp 0 +
STACK CFI 18f94 .cfa: sp 32 +
STACK CFI 18f9c .cfa: x29 32 + x19: .cfa -16 + ^ .ra: .cfa -24 + ^ x29: .cfa -32 + ^
STACK CFI 18fc0 .cfa: sp 32 +
STACK CFI 18fc8 .cfa: sp 0 +
STACK CFI INIT 18fcc 4 .cfa: sp 0 +
STACK CFI INIT 18fd0 8 .cfa: sp 0 +
STACK CFI INIT 18fd8 c .cfa: sp 0 +
STACK CFI INIT 18fe4 8 .cfa: sp 0 +
STACK CFI INIT 18fec 28 .cfa: sp 0 +
STACK CFI 18ff0 .cfa: sp 32 +
STACK CFI 18ff8 .cfa: x29 32 + x19: .cfa -16 + ^ .ra: .cfa -24 + ^ x29: .cfa -32 + ^
STACK CFI 19008 .cfa: sp 32 +
STACK CFI 19010 .cfa: sp 0 +
STACK CFI INIT 19014 40 .cfa: sp 0 +
STACK CFI 19018 .cfa: sp 32 +
STACK CFI 19020 .cfa: x29 32 + x19: .cfa -16 + ^ .ra: .cfa -24 + ^ x29: .cfa -32 + ^
STACK CFI 19048 .cfa: sp 32 +
STACK CFI 19050 .cfa: sp 0 +
STACK CFI INIT 19054 4 .cfa: sp 0 +
STACK CFI INIT 19058 4 .cfa: sp 0 +
STACK CFI INIT 1905c 4 .cfa: sp 0 +
STACK CFI INIT 19060 4 .cfa: sp 0 +
STACK CFI INIT 19064 4 .cfa: sp 0 +
STACK CFI INIT 19068 8 .cfa: sp 0 +
STACK CFI INIT 19070 10 .cfa: sp 0 +
STACK CFI INIT 19080 c .cfa: sp 0 +
STACK CFI INIT 19900 4 .cfa: sp 0 +
STACK CFI INIT 19904 4 .cfa: sp 0 +
STACK CFI INIT 19908 24 .cfa: sp 0 +
STACK CFI 1990c .cfa: sp 16 +
STACK CFI 19910 .cfa: x29 16 + .ra: .cfa -8 + ^ x29: .cfa -16 + ^
STACK CFI 19924 .cfa: sp 16 +
STACK CFI 19928 .cfa: sp 0 +
STACK CFI INIT 1992c 10 .cfa: sp 0 +
STACK CFI INIT 1993c 4 .cfa: sp 0 +
STACK CFI INIT 19940 4 .cfa: sp 0 +
STACK CFI INIT 19944 4 .cfa: sp 0 +
STACK CFI INIT 19948 1c .cfa: sp 0 +
STACK CFI INIT 19964 c .cfa: sp 0 +
STACK CFI INIT 19970 4 .cfa: sp 0 +
STACK CFI INIT 19974 24 .cfa: sp 0 +
STACK CFI 19978 .cfa: sp 16 +
STACK CFI 1997c .cfa: x29 16 + .ra: .cfa -8 + ^ x29: .cfa -16 + ^
STACK CFI 19990 .cfa: sp 16 +
STACK CFI 19994 .cfa: sp 0 +
STACK CFI INIT 19998 10 .cfa: sp 0 +
STACK CFI INIT 199a8 4 .cfa: sp 0 +
STACK CFI INIT 199ac 4 .cfa: sp 0 +
STACK CFI INIT 199b0 4 .cfa: sp 0 +
STACK CFI INIT 199b4 1c .cfa: sp 0 +
STACK CFI INIT 199d0 c .cfa: sp 0 +
STACK CFI INIT 199dc 4 .cfa: sp 0 +
STACK CFI INIT 199e0 34 .cfa: sp 0 +
STACK CFI 199e4 .cfa: sp 32 +
STACK CFI 199ec .cfa: x29 32 + x19: .cfa -16 + ^ .ra: .cfa -24 + ^ x29: .cfa -32 + ^
STACK CFI 19a08 .cfa: sp 32 +
STACK CFI 19a10 .cfa: sp 0 +
STACK CFI INIT 19a14 14 .cfa: sp 0 +
STACK CFI INIT 19a28 4 .cfa: sp 0 +
STACK CFI INIT 19a2c 4 .cfa: sp 0 +
STACK CFI INIT 19ae0 1c .cfa: sp 0 +
STACK CFI INIT 19afc c .cfa: sp 0 +
STACK CFI INIT 19ca0 4 .cfa: sp 0 +
STACK CFI INIT 19ca4 34 .cfa: sp 0 +
STACK CFI 19ca8 .cfa: sp 32 +
STACK CFI 19cb0 .cfa: x29 32 + x19: .cfa -16 + ^ .ra: .cfa -24 + ^ x29: .cfa -32 + ^
STACK CFI 19ccc .cfa: sp 32 +
STACK CFI 19cd4 .cfa: sp 0 +
STACK CFI INIT 19cd8 14 .cfa: sp 0 +
STACK CFI INIT 19cec 4 .cfa: sp 0 +
STACK CFI INIT 19cf0 4 .cfa: sp 0 +
STACK CFI INIT 19db0 1c .cfa: sp 0 +
STACK CFI INIT 19dcc c .cfa: sp 0 +
STACK CFI INIT 19dd8 4 .cfa: sp 0 +
STACK CFI INIT 19ddc 4 .cfa: sp 0 +
STACK CFI INIT 19de0 34 .cfa: sp 0 +
STACK CFI 19de4 .cfa: sp 32 +
STACK CFI 19dec .cfa: x29 32 + x19: .cfa -16 + ^ .ra: .cfa -24 + ^ x29: .cfa -32 + ^
STACK CFI 19e08 .cfa: sp 32 +
STACK CFI 19e10 .cfa: sp 0 +
STACK CFI INIT 19e14 14 .cfa: sp 0 +
STACK CFI INIT 19e28 4 .cfa: sp 0 +
STACK CFI INIT 19e2c 4 .cfa: sp 0 +
STACK CFI INIT 19ee0 1c .cfa: sp 0 +
STACK CFI INIT 19efc c .cfa: sp 0 +
STACK CFI INIT 1a160 1b0 .cfa: sp 0 +
STACK CFI INIT 1a310 144 .cfa: sp 0 +
STACK CFI 1a314 .cfa: sp 96 +
STACK CFI 1a328 .cfa: x29 64 + x19: .cfa -8 + ^ x20: .cfa -16 + ^ x21: .cfa -24 + ^ x22: .cfa -32 + ^ x23: .cfa -48 + ^ .ra: .cfa -56 + ^ x29: .cfa -64 + ^
STACK CFI 1a438 .cfa: sp 96 +
STACK CFI 1a44c .cfa: sp 0 +
STACK CFI 1a450 .cfa: x29 64 +
STACK CFI INIT 1a454 24 .cfa: sp 0 +
STACK CFI 1a470 .cfa: sp 16 +
STACK CFI 1a474 .cfa: x29 16 + .ra: .cfa -8 + ^ x29: .cfa -16 + ^
STACK CFI INIT 1a478 28 .cfa: sp 0 +
STACK CFI 1a498 .cfa: sp 16 +
STACK CFI 1a49c .cfa: x29 16 + .ra: .cfa -8 + ^ x29: .cfa -16 + ^
STACK CFI INIT 1a4a0 24 .cfa: sp 0 +
STACK CFI 1a4bc .cfa: sp 16 +
STACK CFI 1a4c0 .cfa: x29 16 + .ra: .cfa -8 + ^ x29: .cfa -16 + ^
STACK CFI INIT 1a4c4 28 .cfa: sp 0 +
STACK CFI 1a4e4 .cfa: sp 16 +
STACK CFI 1a4e8 .cfa: x29 16 + .ra: .cfa -8 + ^ x29: .cfa -16 + ^
STACK CFI INIT 1a8cc 64 .cfa: sp 0 +
STACK CFI 1a8d0 .cfa: sp 32 +
STACK CFI 1a8d8 .cfa: x29 32 + x19: .cfa -16 + ^ .ra: .cfa -24 + ^ x29: .cfa -32 + ^
STACK CFI 1a924 .cfa: sp 32 +
STACK CFI 1a92c .cfa: sp 0 +
STACK CFI INIT 1a930 6c .cfa: sp 0 +
STACK CFI 1a934 .cfa: sp 32 +
STACK CFI 1a93c .cfa: x29 32 + x19: .cfa -16 + ^ .ra: .cfa -24 + ^ x29: .cfa -32 + ^
STACK CFI 1a990 .cfa: sp 32 +
STACK CFI 1a998 .cfa: sp 0 +
STACK CFI INIT 1a99c a8 .cfa: sp 0 +
STACK CFI 1a9a0 .cfa: sp 32 +
STACK CFI 1a9a8 .cfa: x29 32 + x19: .cfa -16 + ^ .ra: .cfa -24 + ^ x29: .cfa -32 + ^
STACK CFI 1aa38 .cfa: sp 32 +
STACK CFI 1aa40 .cfa: sp 0 +
STACK CFI INIT 1aa44 b0 .cfa: sp 0 +
STACK CFI 1aa48 .cfa: sp 32 +
STACK CFI 1aa50 .cfa: x29 32 + x19: .cfa -16 + ^ .ra: .cfa -24 + ^ x29: .cfa -32 + ^
STACK CFI 1aae8 .cfa: sp 32 +
STACK CFI 1aaf0 .cfa: sp 0 +
STACK CFI INIT 1aaf4 34 .cfa: sp 0 +
STACK CFI 1aaf8 .cfa: sp 16 +
STACK CFI 1aafc .cfa: x29 16 + .ra: .cfa -8 + ^ x29: .cfa -16 + ^
STACK CFI INIT 1ab28 24 .cfa: sp 0 +
STACK CFI 1ab2c .cfa: sp 32 +
STACK CFI 1ab34 .cfa: x29 32 + x19: .cfa -16 + ^ .ra: .cfa -24 + ^ x29: .cfa -32 + ^
STACK CFI 1ab40 .cfa: sp 32 +
STACK CFI 1ab48 .cfa: sp 0 +
STACK CFI INIT 1ab4c 3c .cfa: sp 0 +
STACK CFI 1ab50 .cfa: sp 32 +
STACK CFI 1ab58 .cfa: x29 32 + x19: .cfa -16 + ^ .ra: .cfa -24 + ^ x29: .cfa -32 + ^
STACK CFI 1ab64 .cfa: sp 32 +
STACK CFI 1ab6c .cfa: sp 0 +
STACK CFI 1ab70 .cfa: x29 32 +
STACK CFI 1ab7c .cfa: sp 32 +
STACK CFI 1ab84 .cfa: sp 0 +
STACK CFI INIT 1aea4 64 .cfa: sp 0 +
STACK CFI 1aea8 .cfa: sp 32 +
STACK CFI 1aeb0 .cfa: x29 32 + x19: .cfa -16 + ^ .ra: .cfa -24 + ^ x29: .cfa -32 + ^
STACK CFI 1aedc .cfa: sp 32 +
STACK CFI 1aee4 .cfa: sp 0 +
STACK CFI 1aee8 .cfa: x29 32 +
STACK CFI 1aefc .cfa: sp 32 +
STACK CFI 1af04 .cfa: sp 0 +
STACK CFI INIT 1b210 24 .cfa: sp 0 +
STACK CFI 1b214 .cfa: sp 32 +
STACK CFI 1b21c .cfa: x29 32 + x19: .cfa -16 + ^ .ra: .cfa -24 + ^ x29: .cfa -32 + ^
STACK CFI 1b228 .cfa: sp 32 +
STACK CFI 1b230 .cfa: sp 0 +
STACK CFI INIT 1b234 8 .cfa: sp 0 +
STACK CFI INIT 1b23c 24 .cfa: sp 0 +
STACK CFI 1b240 .cfa: sp 32 +
STACK CFI 1b248 .cfa: x29 32 + x19: .cfa -16 + ^ .ra: .cfa -24 + ^ x29: .cfa -32 + ^
STACK CFI 1b254 .cfa: sp 32 +
STACK CFI 1b25c .cfa: sp 0 +
STACK CFI INIT 1b260 28 .cfa: sp 0 +
STACK CFI 1b264 .cfa: sp 32 +
STACK CFI 1b26c .cfa: x29 32 + x19: .cfa -16 + ^ .ra: .cfa -24 + ^ x29: .cfa -32 + ^
STACK CFI 1b27c .cfa: sp 32 +
STACK CFI 1b284 .cfa: sp 0 +
STACK CFI INIT 1b288 24 .cfa: sp 0 +
STACK CFI 1b28c .cfa: sp 32 +
STACK CFI 1b294 .cfa: x29 32 + x19: .cfa -16 + ^ .ra: .cfa -24 + ^ x29: .cfa -32 + ^
STACK CFI 1b2a0 .cfa: sp 32 +
STACK CFI 1b2a8 .cfa: sp 0 +
STACK CFI INIT 1b8f8 8 .cfa: sp 0 +
STACK CFI INIT 1b900 24 .cfa: sp 0 +
STACK CFI 1b904 .cfa: sp 32 +
STACK CFI 1b90c .cfa: x29 32 + x19: .cfa -16 + ^ .ra: .cfa -24 + ^ x29: .cfa -32 + ^
STACK CFI 1b918 .cfa: sp 32 +
STACK CFI 1b920 .cfa: sp 0 +
STACK CFI INIT 1b924 28 .cfa: sp 0 +
STACK CFI 1b928 .cfa: sp 32 +
STACK CFI 1b930 .cfa: x29 32 + x19: .cfa -16 + ^ .ra: .cfa -24 + ^ x29: .cfa -32 + ^
STACK CFI 1b940 .cfa: sp 32 +
STACK CFI 1b948 .cfa: sp 0 +
STACK CFI INIT 1b94c 8 .cfa: sp 0 +
STACK CFI INIT 1b954 24 .cfa: sp 0 +
STACK CFI 1b958 .cfa: sp 32 +
STACK CFI 1b960 .cfa: x29 32 + x19: .cfa -16 + ^ .ra: .cfa -24 + ^ x29: .cfa -32 + ^
STACK CFI 1b96c .cfa: sp 32 +
STACK CFI 1b974 .cfa: sp 0 +
STACK CFI INIT 1b978 28 .cfa: sp 0 +
STACK CFI 1b97c .cfa: sp 32 +
STACK CFI 1b984 .cfa: x29 32 + x19: .cfa -16 + ^ .ra: .cfa -24 + ^ x29: .cfa -32 + ^
STACK CFI 1b994 .cfa: sp 32 +
STACK CFI 1b99c .cfa: sp 0 +
STACK CFI INIT 1b9a0 8 .cfa: sp 0 +
STACK CFI INIT 1b9a8 24 .cfa: sp 0 +
STACK CFI 1b9ac .cfa: sp 32 +
STACK CFI 1b9b4 .cfa: x29 32 + x19: .cfa -16 + ^ .ra: .cfa -24 + ^ x29: .cfa -32 + ^
STACK CFI 1b9c0 .cfa: sp 32 +
STACK CFI 1b9c8 .cfa: sp 0 +
STACK CFI INIT 1b9cc 28 .cfa: sp 0 +
STACK CFI 1b9d0 .cfa: sp 32 +
STACK CFI 1b9d8 .cfa: x29 32 + x19: .cfa -16 + ^ .ra: .cfa -24 + ^ x29: .cfa -32 + ^
STACK CFI 1b9e8 .cfa: sp 32 +
STACK CFI 1b9f0 .cfa: sp 0 +
STACK CFI INIT 1bd18 4 .cfa: sp 0 +
STACK CFI INIT 1bd1c 4 .cfa: sp 0 +
STACK CFI INIT 1bd20 4 .cfa: sp 0 +
STACK CFI INIT 1bd24 4 .cfa: sp 0 +
STACK CFI INIT 1bd28 4 .cfa: sp 0 +
STACK CFI INIT 1bd2c 8 .cfa: sp 0 +
STACK CFI INIT 1bd34 4 .cfa: sp 0 +
STACK CFI INIT 1c1fc 4 .cfa: sp 0 +
STACK CFI INIT 1d050 4 .cfa: sp 0 +
STACK CFI INIT 1d054 14 .cfa: sp 0 +
STACK CFI INIT 1d548 110 .cfa: sp 0 +
STACK CFI INIT 1d658 134 .cfa: sp 0 +
STACK CFI INIT 1d78c c .cfa: sp 0 +
STACK CFI INIT 1d798 24c .cfa: sp 0 +
STACK CFI INIT 1d9e4 a0 .cfa: sp 0 +
STACK CFI 1d9f0 .cfa: sp 32 +
STACK CFI 1da48 .cfa: sp 0 +
STACK CFI 1da4c .cfa: sp 32 +
STACK CFI 1da54 .cfa: sp 0 +
STACK CFI 1da58 .cfa: sp 32 +
STACK CFI 1da6c .cfa: sp 0 +
STACK CFI 1da70 .cfa: sp 32 +
STACK CFI 1da80 .cfa: sp 0 +
STACK CFI INIT 1da84 38 .cfa: sp 0 +
STACK CFI 1da90 .cfa: sp 32 +
STACK CFI 1dab8 .cfa: sp 0 +
STACK CFI INIT 1dd50 7c .cfa: sp 0 +
STACK CFI 1dd54 .cfa: sp 32 +
STACK CFI 1dd5c .cfa: x29 32 + x19: .cfa -16 + ^ .ra: .cfa -24 + ^ x29: .cfa -32 + ^
STACK CFI 1dd88 .cfa: sp 32 +
STACK CFI 1dd90 .cfa: sp 0 +
STACK CFI 1dd94 .cfa: x29 32 +
STACK CFI 1ddc0 .cfa: sp 32 +
STACK CFI 1ddc8 .cfa: sp 0 +
STACK CFI INIT 1de1c 2c .cfa: sp 0 +
STACK CFI 1de20 .cfa: sp 32 +
STACK CFI 1de28 .cfa: x29 32 + x19: .cfa -16 + ^ .ra: .cfa -24 + ^ x29: .cfa -32 + ^
STACK CFI 1de3c .cfa: sp 32 +
STACK CFI 1de44 .cfa: sp 0 +
STACK CFI INIT 1e608 64 .cfa: sp 0 +
STACK CFI 1e60c .cfa: sp 32 +
STACK CFI 1e614 .cfa: x29 32 + x19: .cfa -16 + ^ .ra: .cfa -24 + ^ x29: .cfa -32 + ^
STACK CFI 1e630 .cfa: sp 32 +
STACK CFI 1e638 .cfa: sp 0 +
STACK CFI 1e63c .cfa: x29 32 +
STACK CFI 1e660 .cfa: sp 32 +
STACK CFI 1e668 .cfa: sp 0 +
STACK CFI INIT 1e66c 570 .cfa: sp 0 +
STACK CFI 1e670 .cfa: sp 176 +
STACK CFI 1e684 .cfa: x29 64 + x19: .cfa -8 + ^ x20: .cfa -16 + ^ x21: .cfa -24 + ^ x22: .cfa -32 + ^ x23: .cfa -40 + ^ x24: .cfa -48 + ^ .ra: .cfa -56 + ^ x29: .cfa -64 + ^
STACK CFI 1e8b4 .cfa: sp 176 +
STACK CFI 1e8c8 .cfa: sp 0 +
STACK CFI 1e8cc .cfa: x29 64 +
STACK CFI 1e918 .cfa: sp 176 +
STACK CFI 1e92c .cfa: sp 0 +
STACK CFI 1e930 .cfa: x29 64 +
STACK CFI 1e968 .cfa: sp 176 +
STACK CFI 1e97c .cfa: sp 0 +
STACK CFI 1e980 .cfa: x29 64 +
STACK CFI 1e998 .cfa: sp 176 +
STACK CFI 1e9ac .cfa: sp 0 +
STACK CFI 1e9b0 .cfa: x29 64 +
STACK CFI 1e9d0 .cfa: sp 176 +
STACK CFI 1e9e4 .cfa: sp 0 +
STACK CFI 1e9e8 .cfa: x29 64 +
STACK CFI 1ea00 .cfa: sp 176 +
STACK CFI 1ea14 .cfa: sp 0 +
STACK CFI 1ea18 .cfa: x29 64 +
STACK CFI 1ea2c .cfa: sp 176 +
STACK CFI 1ea40 .cfa: sp 0 +
STACK CFI 1ea44 .cfa: x29 64 +
STACK CFI 1ea58 .cfa: sp 176 +
STACK CFI 1ea6c .cfa: sp 0 +
STACK CFI 1ea70 .cfa: x29 64 +
STACK CFI 1ea80 .cfa: sp 176 +
STACK CFI 1ea94 .cfa: sp 0 +
STACK CFI 1ea98 .cfa: x29 64 +
STACK CFI 1eaa8 .cfa: sp 176 +
STACK CFI 1eabc .cfa: sp 0 +
STACK CFI 1eac0 .cfa: x29 64 +
STACK CFI 1ead8 .cfa: sp 176 +
STACK CFI 1eaec .cfa: sp 0 +
STACK CFI 1eaf0 .cfa: x29 64 +
STACK CFI 1eb04 .cfa: sp 176 +
STACK CFI 1eb18 .cfa: sp 0 +
STACK CFI 1eb1c .cfa: x29 64 +
STACK CFI 1eb34 .cfa: sp 176 +
STACK CFI 1eb48 .cfa: sp 0 +
STACK CFI 1eb4c .cfa: x29 64 +
STACK CFI 1eb78 .cfa: sp 176 +
STACK CFI 1eb8c .cfa: sp 0 +
STACK CFI 1eb90 .cfa: x29 64 +
STACK CFI 1eba4 .cfa: sp 176 +
STACK CFI 1ebb8 .cfa: sp 0 +
STACK CFI 1ebbc .cfa: x29 64 +
STACK CFI INIT 1ebdc 228 .cfa: sp 0 +
STACK CFI INIT 1ee04 2dc .cfa: sp 0 +
STACK CFI INIT 1f0e0 53c .cfa: sp 0 +
STACK CFI INIT 1f61c 78 .cfa: sp 0 +
STACK CFI 1f620 .cfa: sp 48 +
STACK CFI 1f62c .cfa: x29 48 + x19: .cfa -8 + ^ x20: .cfa -16 + ^ x21: .cfa -24 + ^ x22: .cfa -32 + ^ .ra: .cfa -40 + ^ x29: .cfa -48 + ^
STACK CFI 1f674 .cfa: sp 48 +
STACK CFI 1f680 .cfa: sp 0 +
STACK CFI 1f684 .cfa: sp 48 +
STACK CFI 1f690 .cfa: sp 0 +
STACK CFI INIT 1f694 8c .cfa: sp 0 +
STACK CFI 1f698 .cfa: sp 32 +
STACK CFI 1f6a0 .cfa: x29 32 + x19: .cfa -16 + ^ .ra: .cfa -24 + ^ x29: .cfa -32 + ^
STACK CFI 1f6d4 .cfa: sp 32 +
STACK CFI 1f6dc .cfa: sp 0 +
STACK CFI 1f6e0 .cfa: x29 32 +
STACK CFI 1f714 .cfa: sp 32 +
STACK CFI 1f71c .cfa: sp 0 +
STACK CFI INIT 1f720 24 .cfa: sp 0 +
STACK CFI 1f724 .cfa: sp 32 +
STACK CFI 1f72c .cfa: x29 32 + x19: .cfa -16 + ^ .ra: .cfa -24 + ^ x29: .cfa -32 + ^
STACK CFI 1f738 .cfa: sp 32 +
STACK CFI 1f740 .cfa: sp 0 +
STACK CFI INIT 1f744 150 .cfa: sp 0 +
STACK CFI 1f748 .cfa: sp 48 +
STACK CFI 1f754 .cfa: x29 48 + x19: .cfa -8 + ^ x20: .cfa -16 + ^ x21: .cfa -24 + ^ x22: .cfa -32 + ^ .ra: .cfa -40 + ^ x29: .cfa -48 + ^
STACK CFI 1f884 .cfa: sp 48 +
STACK CFI 1f890 .cfa: sp 0 +
STACK CFI INIT 1f894 68 .cfa: sp 0 +
STACK CFI 1f898 .cfa: sp 64 +
STACK CFI 1f8a4 .cfa: x29 32 + x19: .cfa -16 + ^ .ra: .cfa -24 + ^ x29: .cfa -32 + ^
STACK CFI 1f8e8 .cfa: sp 64 +
STACK CFI 1f8f4 .cfa: sp 0 +
STACK CFI 1f8f8 .cfa: x29 32 +
STACK CFI INIT 1f8fc 90 .cfa: sp 0 +
STACK CFI 1f900 .cfa: sp 32 +
STACK CFI 1f908 .cfa: x29 32 + x19: .cfa -8 + ^ x20: .cfa -16 + ^ .ra: .cfa -24 + ^ x29: .cfa -32 + ^
STACK CFI 1f934 .cfa: sp 32 +
STACK CFI 1f93c .cfa: sp 0 +
STACK CFI 1f940 .cfa: x29 32 +
STACK CFI 1f980 .cfa: sp 32 +
STACK CFI 1f988 .cfa: sp 0 +
STACK CFI INIT 1f98c ec .cfa: sp 0 +
STACK CFI 1f990 .cfa: sp 112 +
STACK CFI 1f9a0 .cfa: x29 48 + x19: .cfa -8 + ^ x20: .cfa -16 + ^ x21: .cfa -32 + ^ .ra: .cfa -40 + ^ x29: .cfa -48 + ^
STACK CFI 1fa60 .cfa: sp 112 +
STACK CFI 1fa70 .cfa: sp 0 +
STACK CFI 1fa74 .cfa: x29 48 +
STACK CFI INIT 1fa78 ec .cfa: sp 0 +
STACK CFI 1fa7c .cfa: sp 112 +
STACK CFI 1fa8c .cfa: x29 48 + x19: .cfa -8 + ^ x20: .cfa -16 + ^ x21: .cfa -32 + ^ .ra: .cfa -40 + ^ x29: .cfa -48 + ^
STACK CFI 1fb4c .cfa: sp 112 +
STACK CFI 1fb5c .cfa: sp 0 +
STACK CFI 1fb60 .cfa: x29 48 +
STACK CFI INIT 1fb64 48 .cfa: sp 0 +
STACK CFI 1fb68 .cfa: sp 32 +
STACK CFI 1fb70 .cfa: x29 32 + x19: .cfa -8 + ^ x20: .cfa -16 + ^ .ra: .cfa -24 + ^ x29: .cfa -32 + ^
STACK CFI 1fb94 .cfa: sp 32 +
STACK CFI 1fb9c .cfa: sp 0 +
STACK CFI 1fba0 .cfa: x29 32 +
STACK CFI INIT 1fbac 98 .cfa: sp 0 +
STACK CFI 1fbb0 .cfa: sp 80 +
STACK CFI 1fbbc .cfa: x29 32 + x19: .cfa -16 + ^ .ra: .cfa -24 + ^ x29: .cfa -32 + ^
STACK CFI 1fc30 .cfa: sp 80 +
STACK CFI 1fc3c .cfa: sp 0 +
STACK CFI 1fc40 .cfa: x29 32 +
STACK CFI INIT 1fc44 260 .cfa: sp 0 +
STACK CFI 1fc48 .cfa: sp 112 +
STACK CFI 1fc60 .cfa: x29 80 + x19: .cfa -8 + ^ x20: .cfa -16 + ^ x21: .cfa -24 + ^ x22: .cfa -32 + ^ x23: .cfa -40 + ^ x24: .cfa -48 + ^ x25: .cfa -64 + ^ .ra: .cfa -72 + ^ x29: .cfa -80 + ^
STACK CFI 1fe44 .cfa: sp 112 +
STACK CFI 1fe5c .cfa: sp 0 +
STACK CFI 1fe60 .cfa: x29 80 +
STACK CFI INIT 1fea4 150 .cfa: sp 0 +
STACK CFI 1fea8 .cfa: sp 48 +
STACK CFI 1feb4 .cfa: x29 48 + x19: .cfa -8 + ^ x20: .cfa -16 + ^ x21: .cfa -24 + ^ x22: .cfa -32 + ^ .ra: .cfa -40 + ^ x29: .cfa -48 + ^
STACK CFI 1ffe4 .cfa: sp 48 +
STACK CFI 1fff0 .cfa: sp 0 +
STACK CFI INIT 1fff4 1e0 .cfa: sp 0 +
STACK CFI 1fff8 .cfa: sp 96 +
STACK CFI 2000c .cfa: x29 64 + x19: .cfa -8 + ^ x20: .cfa -16 + ^ x21: .cfa -24 + ^ x22: .cfa -32 + ^ x23: .cfa -40 + ^ x24: .cfa -48 + ^ .ra: .cfa -56 + ^ x29: .cfa -64 + ^
STACK CFI 2018c .cfa: sp 96 +
STACK CFI 201a0 .cfa: sp 0 +
STACK CFI 201a4 .cfa: x29 64 +
STACK CFI INIT 201d4 284 .cfa: sp 0 +
STACK CFI 201d8 .cfa: sp 112 +
STACK CFI 201f0 .cfa: x29 80 + x19: .cfa -8 + ^ x20: .cfa -16 + ^ x21: .cfa -24 + ^ x22: .cfa -32 + ^ x23: .cfa -40 + ^ x24: .cfa -48 + ^ x25: .cfa -64 + ^ .ra: .cfa -72 + ^ x29: .cfa -80 + ^
STACK CFI 203f8 .cfa: sp 112 +
STACK CFI 20410 .cfa: sp 0 +
STACK CFI 20414 .cfa: x29 80 +
STACK CFI INIT 20458 208 .cfa: sp 0 +
STACK CFI 2045c .cfa: sp 96 +
STACK CFI 20470 .cfa: x29 64 + x19: .cfa -8 + ^ x20: .cfa -16 + ^ x21: .cfa -24 + ^ x22: .cfa -32 + ^ x23: .cfa -40 + ^ x24: .cfa -48 + ^ .ra: .cfa -56 + ^ x29: .cfa -64 + ^
STACK CFI 20618 .cfa: sp 96 +
STACK CFI 2062c .cfa: sp 0 +
STACK CFI 20630 .cfa: x29 64 +
STACK CFI INIT 20660 360 .cfa: sp 0 +
STACK CFI 20664 .cfa: sp 160 +
STACK CFI 20680 .cfa: x29 96 + x19: .cfa -8 + ^ x20: .cfa -16 + ^ x21: .cfa -24 + ^ x22: .cfa -32 + ^ x23: .cfa -40 + ^ x24: .cfa -48 + ^ x25: .cfa -56 + ^ x26: .cfa -64 + ^ x27: .cfa -72 + ^ x28: .cfa -80 + ^ .ra: .cfa -88 + ^ x29: .cfa -96 + ^
STACK CFI 2094c .cfa: sp 160 +
STACK CFI 20968 .cfa: sp 0 +
STACK CFI 2096c .cfa: x29 96 +
STACK CFI INIT 209c0 314 .cfa: sp 0 +
STACK CFI 209c4 .cfa: sp 144 +
STACK CFI 209e0 .cfa: x29 96 + x19: .cfa -8 + ^ x20: .cfa -16 + ^ x21: .cfa -24 + ^ x22: .cfa -32 + ^ x23: .cfa -40 + ^ x24: .cfa -48 + ^ x25: .cfa -56 + ^ x26: .cfa -64 + ^ x27: .cfa -72 + ^ x28: .cfa -80 + ^ .ra: .cfa -88 + ^ x29: .cfa -96 + ^
STACK CFI 20c5c .cfa: sp 144 +
STACK CFI 20c78 .cfa: sp 0 +
STACK CFI 20c7c .cfa: x29 96 +
STACK CFI INIT 20cd4 290 .cfa: sp 0 +
STACK CFI 20cd8 .cfa: sp 128 +
STACK CFI 20cf0 .cfa: x29 80 + x19: .cfa -8 + ^ x20: .cfa -16 + ^ x21: .cfa -24 + ^ x22: .cfa -32 + ^ x23: .cfa -40 + ^ x24: .cfa -48 + ^ x25: .cfa -56 + ^ x26: .cfa -64 + ^ .ra: .cfa -72 + ^ x29: .cfa -80 + ^
STACK CFI 20f44 .cfa: sp 128 +
STACK CFI 20f5c .cfa: sp 0 +
STACK CFI 20f60 .cfa: x29 80 +
STACK CFI INIT 20f64 ddc .cfa: sp 0 +
STACK CFI 20f68 .cfa: sp 144 +
STACK CFI 20f84 .cfa: x29 96 + x19: .cfa -8 + ^ x20: .cfa -16 + ^ x21: .cfa -24 + ^ x22: .cfa -32 + ^ x23: .cfa -40 + ^ x24: .cfa -48 + ^ x25: .cfa -56 + ^ x26: .cfa -64 + ^ x27: .cfa -72 + ^ x28: .cfa -80 + ^ .ra: .cfa -88 + ^ x29: .cfa -96 + ^
STACK CFI 21c18 .cfa: sp 144 +
STACK CFI 21c34 .cfa: sp 0 +
STACK CFI 21c38 .cfa: x29 96 +
STACK CFI INIT 21d40 1d0 .cfa: sp 0 +
STACK CFI 21d44 .cfa: sp 80 +
STACK CFI 21d58 .cfa: x29 80 + x19: .cfa -8 + ^ x20: .cfa -16 + ^ x21: .cfa -24 + ^ x22: .cfa -32 + ^ x23: .cfa -40 + ^ x24: .cfa -48 + ^ x25: .cfa -64 + ^ .ra: .cfa -72 + ^ x29: .cfa -80 + ^
STACK CFI 21ef8 .cfa: sp 80 +
STACK CFI 21f0c .cfa: sp 0 +
STACK CFI INIT 21f10 23c .cfa: sp 0 +
STACK CFI 21f14 .cfa: sp 112 +
STACK CFI 21f28 .cfa: x29 64 + x19: .cfa -8 + ^ x20: .cfa -16 + ^ x21: .cfa -24 + ^ x22: .cfa -32 + ^ x23: .cfa -40 + ^ x24: .cfa -48 + ^ .ra: .cfa -56 + ^ x29: .cfa -64 + ^
STACK CFI 22104 .cfa: sp 112 +
STACK CFI 22118 .cfa: sp 0 +
STACK CFI 2211c .cfa: x29 64 +
STACK CFI INIT 2214c 30c .cfa: sp 0 +
STACK CFI 22150 .cfa: sp 80 +
STACK CFI 22164 .cfa: x29 64 + x19: .cfa -8 + ^ x20: .cfa -16 + ^ x21: .cfa -24 + ^ x22: .cfa -32 + ^ x23: .cfa -40 + ^ x24: .cfa -48 + ^ .ra: .cfa -56 + ^ x29: .cfa -64 + ^
STACK CFI 222e0 .cfa: sp 80 +
STACK CFI 222f4 .cfa: sp 0 +
STACK CFI 222f8 .cfa: x29 64 +
STACK CFI INIT 22458 178 .cfa: sp 0 +
STACK CFI 2245c .cfa: sp 80 +
STACK CFI 22470 .cfa: x29 64 + x19: .cfa -8 + ^ x20: .cfa -16 + ^ x21: .cfa -24 + ^ x22: .cfa -32 + ^ x23: .cfa -40 + ^ x24: .cfa -48 + ^ .ra: .cfa -56 + ^ x29: .cfa -64 + ^
STACK CFI 225b4 .cfa: sp 80 +
STACK CFI 225c8 .cfa: sp 0 +
STACK CFI 225cc .cfa: x29 64 +
STACK CFI INIT 225d0 178 .cfa: sp 0 +
STACK CFI 225d4 .cfa: sp 80 +
STACK CFI 225e8 .cfa: x29 64 + x19: .cfa -8 + ^ x20: .cfa -16 + ^ x21: .cfa -24 + ^ x22: .cfa -32 + ^ x23: .cfa -40 + ^ x24: .cfa -48 + ^ .ra: .cfa -56 + ^ x29: .cfa -64 + ^
STACK CFI 2272c .cfa: sp 80 +
STACK CFI 22740 .cfa: sp 0 +
STACK CFI 22744 .cfa: x29 64 +
STACK CFI INIT 22748 240 .cfa: sp 0 +
STACK CFI 2274c .cfa: sp 96 +
STACK CFI 22764 .cfa: x29 96 + x19: .cfa -8 + ^ x20: .cfa -16 + ^ x21: .cfa -24 + ^ x22: .cfa -32 + ^ x23: .cfa -40 + ^ x24: .cfa -48 + ^ x25: .cfa -56 + ^ x26: .cfa -64 + ^ x27: .cfa -72 + ^ x28: .cfa -80 + ^ .ra: .cfa -88 + ^ x29: .cfa -96 + ^
STACK CFI 2296c .cfa: sp 96 +
STACK CFI 22984 .cfa: sp 0 +
STACK CFI INIT 235fc 154 .cfa: sp 0 +
STACK CFI 23600 .cfa: sp 96 +
STACK CFI 23614 .cfa: x29 64 + x19: .cfa -8 + ^ x20: .cfa -16 + ^ x21: .cfa -24 + ^ x22: .cfa -32 + ^ x23: .cfa -48 + ^ .ra: .cfa -56 + ^ x29: .cfa -64 + ^
STACK CFI 236f4 .cfa: sp 96 +
STACK CFI 23708 .cfa: sp 0 +
STACK CFI 2370c .cfa: x29 64 +
STACK CFI INIT 239bc 44 .cfa: sp 0 +
STACK CFI 239c0 .cfa: sp 32 +
STACK CFI 239c8 .cfa: x29 32 + x19: .cfa -16 + ^ .ra: .cfa -24 + ^ x29: .cfa -32 + ^
STACK CFI 239e4 .cfa: sp 32 +
STACK CFI 239ec .cfa: sp 0 +
STACK CFI 239f0 .cfa: x29 32 +
STACK CFI 239f4 .cfa: sp 32 +
STACK CFI 239fc .cfa: sp 0 +
STACK CFI INIT 23a00 1d0 .cfa: sp 0 +
STACK CFI 23a04 .cfa: sp 64 +
STACK CFI 23a14 .cfa: x29 64 + x19: .cfa -8 + ^ x20: .cfa -16 + ^ x21: .cfa -24 + ^ x22: .cfa -32 + ^ x23: .cfa -40 + ^ x24: .cfa -48 + ^ .ra: .cfa -56 + ^ x29: .cfa -64 + ^
STACK CFI 23ad4 .cfa: sp 64 +
STACK CFI 23ae4 .cfa: sp 0 +
STACK CFI 23ae8 .cfa: x29 64 +
STACK CFI INIT 23bd0 17c .cfa: sp 0 +
STACK CFI INIT 23d4c ac .cfa: sp 0 +
STACK CFI 23d50 .cfa: sp 64 +
STACK CFI 23d60 .cfa: x29 64 + x19: .cfa -8 + ^ x20: .cfa -16 + ^ x21: .cfa -24 + ^ x22: .cfa -32 + ^ x23: .cfa -48 + ^ .ra: .cfa -56 + ^ x29: .cfa -64 + ^
STACK CFI 23ddc .cfa: sp 64 +
STACK CFI 23dec .cfa: sp 0 +
STACK CFI 23df0 .cfa: x29 64 +
STACK CFI INIT 23df8 110 .cfa: sp 0 +
STACK CFI 23dfc .cfa: sp 64 +
STACK CFI 23e0c .cfa: x29 64 + x19: .cfa -8 + ^ x20: .cfa -16 + ^ x21: .cfa -24 + ^ x22: .cfa -32 + ^ x23: .cfa -40 + ^ x24: .cfa -48 + ^ .ra: .cfa -56 + ^ x29: .cfa -64 + ^
STACK CFI 23eec .cfa: sp 64 +
STACK CFI 23efc .cfa: sp 0 +
STACK CFI 23f00 .cfa: x29 64 +
STACK CFI INIT 242c0 a0 .cfa: sp 0 +
STACK CFI 242c4 .cfa: sp 48 +
STACK CFI 242d0 .cfa: x29 48 + x19: .cfa -8 + ^ x20: .cfa -16 + ^ x21: .cfa -24 + ^ x22: .cfa -32 + ^ .ra: .cfa -40 + ^ x29: .cfa -48 + ^
STACK CFI 2433c .cfa: sp 48 +
STACK CFI 24348 .cfa: sp 0 +
STACK CFI 2434c .cfa: sp 48 +
STACK CFI 24358 .cfa: sp 0 +
STACK CFI 2435c .cfa: x29 48 +
STACK CFI INIT 25014 158 .cfa: sp 0 +
STACK CFI 25018 .cfa: sp 96 +
STACK CFI 2502c .cfa: x29 64 + x19: .cfa -8 + ^ x20: .cfa -16 + ^ x21: .cfa -24 + ^ x22: .cfa -32 + ^ x23: .cfa -48 + ^ .ra: .cfa -56 + ^ x29: .cfa -64 + ^
STACK CFI 25110 .cfa: sp 96 +
STACK CFI 25124 .cfa: sp 0 +
STACK CFI 25128 .cfa: x29 64 +
STACK CFI INIT 2516c 190 .cfa: sp 0 +
STACK CFI INIT 25df8 1dc .cfa: sp 0 +
STACK CFI 25dfc .cfa: sp 80 +
STACK CFI 25e10 .cfa: x29 80 + x19: .cfa -8 + ^ x20: .cfa -16 + ^ x21: .cfa -24 + ^ x22: .cfa -32 + ^ x23: .cfa -40 + ^ x24: .cfa -48 + ^ x25: .cfa -64 + ^ .ra: .cfa -72 + ^ x29: .cfa -80 + ^
STACK CFI 25fbc .cfa: sp 80 +
STACK CFI 25fd0 .cfa: sp 0 +
STACK CFI INIT 27404 124 .cfa: sp 0 +
STACK CFI 27434 .cfa: sp 32 +
STACK CFI 2743c .cfa: x29 32 + x19: .cfa -8 + ^ x20: .cfa -16 + ^ .ra: .cfa -24 + ^ x29: .cfa -32 + ^
STACK CFI 2751c .cfa: sp 32 +
STACK CFI 27524 .cfa: sp 0 +
STACK CFI INIT 27c84 320 .cfa: sp 0 +
STACK CFI 27c88 .cfa: sp 64 +
STACK CFI 27c98 .cfa: x29 64 + x19: .cfa -8 + ^ x20: .cfa -16 + ^ x21: .cfa -24 + ^ x22: .cfa -32 + ^ x23: .cfa -40 + ^ x24: .cfa -48 + ^ .ra: .cfa -56 + ^ x29: .cfa -64 + ^
STACK CFI 27d14 .cfa: sp 64 +
STACK CFI 27d24 .cfa: sp 0 +
STACK CFI 27d28 .cfa: x29 64 +
STACK CFI 27efc .cfa: sp 64 +
STACK CFI 27f0c .cfa: sp 0 +
STACK CFI 27f10 .cfa: x29 64 +
STACK CFI 27f20 .cfa: sp 64 +
STACK CFI 27f30 .cfa: sp 0 +
STACK CFI 27f34 .cfa: x29 64 +
STACK CFI INIT 27fa4 a0 .cfa: sp 0 +
STACK CFI 27fa8 .cfa: sp 48 +
STACK CFI 27fb4 .cfa: x29 48 + x19: .cfa -8 + ^ x20: .cfa -16 + ^ x21: .cfa -24 + ^ x22: .cfa -32 + ^ .ra: .cfa -40 + ^ x29: .cfa -48 + ^
STACK CFI 28020 .cfa: sp 48 +
STACK CFI 2802c .cfa: sp 0 +
STACK CFI 28030 .cfa: sp 48 +
STACK CFI 2803c .cfa: sp 0 +
STACK CFI 28040 .cfa: x29 48 +
STACK CFI INIT 28ef4 160 .cfa: sp 0 +
STACK CFI 28ef8 .cfa: sp 64 +
STACK CFI 28f08 .cfa: x29 64 + x19: .cfa -8 + ^ x20: .cfa -16 + ^ x21: .cfa -24 + ^ x22: .cfa -32 + ^ x23: .cfa -48 + ^ .ra: .cfa -56 + ^ x29: .cfa -64 + ^
STACK CFI 29000 .cfa: sp 64 +
STACK CFI 29010 .cfa: sp 0 +
STACK CFI 29014 .cfa: x29 64 +
STACK CFI INIT 29054 214 .cfa: sp 0 +
STACK CFI 29058 .cfa: sp 128 +
STACK CFI 29074 .cfa: x29 96 + x19: .cfa -8 + ^ x20: .cfa -16 + ^ x21: .cfa -24 + ^ x22: .cfa -32 + ^ x23: .cfa -40 + ^ x24: .cfa -48 + ^ x25: .cfa -56 + ^ x26: .cfa -64 + ^ x27: .cfa -80 + ^ .ra: .cfa -88 + ^ x29: .cfa -96 + ^
STACK CFI 291f0 .cfa: sp 128 +
STACK CFI 2920c .cfa: sp 0 +
STACK CFI 29210 .cfa: x29 96 +
STACK CFI INIT 2af04 290 .cfa: sp 0 +
STACK CFI 2af08 .cfa: sp 16 +
STACK CFI 2af0c .cfa: x29 16 + .ra: .cfa -8 + ^ x29: .cfa -16 + ^
STACK CFI 2af98 .cfa: sp 16 +
STACK CFI 2af9c .cfa: sp 0 +
STACK CFI 2afa0 .cfa: x29 16 +
STACK CFI 2aff0 .cfa: sp 16 +
STACK CFI 2aff4 .cfa: sp 0 +
STACK CFI 2aff8 .cfa: x29 16 +
STACK CFI 2b15c .cfa: sp 16 +
STACK CFI 2b160 .cfa: sp 0 +
STACK CFI 2b164 .cfa: x29 16 +
STACK CFI INIT 2b194 158 .cfa: sp 0 +
STACK CFI 2b198 .cfa: sp 112 +
STACK CFI 2b1b4 .cfa: x29 96 + x19: .cfa -8 + ^ x20: .cfa -16 + ^ x21: .cfa -24 + ^ x22: .cfa -32 + ^ x23: .cfa -40 + ^ x24: .cfa -48 + ^ x25: .cfa -56 + ^ x26: .cfa -64 + ^ x27: .cfa -72 + ^ x28: .cfa -80 + ^ .ra: .cfa -88 + ^ x29: .cfa -96 + ^
STACK CFI 2b29c .cfa: sp 112 +
STACK CFI 2b2a0 .cfa: x29 96 +
STACK CFI 2b2a8 .cfa: sp 112 +
STACK CFI 2b2c4 .cfa: sp 0 +
STACK CFI 2b2c8 .cfa: x29 96 +
STACK CFI 2b2e8 .cfa: sp 112 +
STACK CFI INIT 2b2ec e54 .cfa: sp 0 +
STACK CFI 2b2f0 .cfa: sp 192 +
STACK CFI 2b30c .cfa: x29 96 + x19: .cfa -8 + ^ x20: .cfa -16 + ^ x21: .cfa -24 + ^ x22: .cfa -32 + ^ x23: .cfa -40 + ^ x24: .cfa -48 + ^ x25: .cfa -56 + ^ x26: .cfa -64 + ^ x27: .cfa -72 + ^ x28: .cfa -80 + ^ .ra: .cfa -88 + ^ x29: .cfa -96 + ^
STACK CFI 2c028 .cfa: sp 192 +
STACK CFI 2c044 .cfa: sp 0 +
STACK CFI 2c048 .cfa: x29 96 +
STACK CFI INIT 2c140 1068 .cfa: sp 0 +
STACK CFI 2c144 .cfa: sp 288 +
STACK CFI 2c160 .cfa: x29 96 + x19: .cfa -8 + ^ x20: .cfa -16 + ^ x21: .cfa -24 + ^ x22: .cfa -32 + ^ x23: .cfa -40 + ^ x24: .cfa -48 + ^ x25: .cfa -56 + ^ x26: .cfa -64 + ^ x27: .cfa -72 + ^ x28: .cfa -80 + ^ .ra: .cfa -88 + ^ x29: .cfa -96 + ^
STACK CFI 2cef0 .cfa: sp 288 +
STACK CFI 2cf0c .cfa: sp 0 +
STACK CFI 2cf10 .cfa: x29 96 +
STACK CFI INIT 2d1a8 520 .cfa: sp 0 +
STACK CFI 2d1ac .cfa: sp 144 +
STACK CFI 2d1c8 .cfa: x29 96 + x19: .cfa -8 + ^ x20: .cfa -16 + ^ x21: .cfa -24 + ^ x22: .cfa -32 + ^ x23: .cfa -40 + ^ x24: .cfa -48 + ^ x25: .cfa -56 + ^ x26: .cfa -64 + ^ x27: .cfa -72 + ^ x28: .cfa -80 + ^ .ra: .cfa -88 + ^ x29: .cfa -96 + ^
STACK CFI 2d6a4 .cfa: sp 144 +
STACK CFI 2d6c0 .cfa: sp 0 +
STACK CFI 2d6c4 .cfa: x29 96 +
STACK CFI INIT 2e068 136c .cfa: sp 0 +
STACK CFI 2e06c .cfa: sp 224 +
STACK CFI 2e088 .cfa: x29 96 + x19: .cfa -8 + ^ x20: .cfa -16 + ^ x21: .cfa -24 + ^ x22: .cfa -32 + ^ x23: .cfa -40 + ^ x24: .cfa -48 + ^ x25: .cfa -56 + ^ x26: .cfa -64 + ^ x27: .cfa -72 + ^ x28: .cfa -80 + ^ .ra: .cfa -88 + ^ x29: .cfa -96 + ^
STACK CFI 2f3b0 .cfa: sp 224 +
STACK CFI 2f3cc .cfa: sp 0 +
STACK CFI 2f3d0 .cfa: x29 96 +
STACK CFI INIT 2f3d4 1b8 .cfa: sp 0 +
STACK CFI INIT 166b0 bd4 .cfa: sp 0 +
STACK CFI 166b4 .cfa: sp 240 +
STACK CFI 166d0 .cfa: x29 96 + x19: .cfa -8 + ^ x20: .cfa -16 + ^ x21: .cfa -24 + ^ x22: .cfa -32 + ^ x23: .cfa -40 + ^ x24: .cfa -48 + ^ x25: .cfa -56 + ^ x26: .cfa -64 + ^ x27: .cfa -72 + ^ x28: .cfa -80 + ^ .ra: .cfa -88 + ^ x29: .cfa -96 + ^
STACK CFI 16aac .cfa: sp 240 +
STACK CFI 16ac8 .cfa: sp 0 +
STACK CFI 16acc .cfa: x29 96 +
STACK CFI 1712c .cfa: sp 240 +
STACK CFI 17148 .cfa: sp 0 +
STACK CFI 1714c .cfa: x29 96 +
STACK CFI INIT 1729c 43c .cfa: sp 0 +
STACK CFI 172a0 .cfa: sp 256 +
STACK CFI 172bc .cfa: x29 96 + x19: .cfa -8 + ^ x20: .cfa -16 + ^ x21: .cfa -24 + ^ x22: .cfa -32 + ^ x23: .cfa -40 + ^ x24: .cfa -48 + ^ x25: .cfa -56 + ^ x26: .cfa -64 + ^ x27: .cfa -72 + ^ x28: .cfa -80 + ^ .ra: .cfa -88 + ^ x29: .cfa -96 + ^
STACK CFI 175ac .cfa: sp 256 +
STACK CFI 175c8 .cfa: sp 0 +
STACK CFI 175cc .cfa: x29 96 +
STACK CFI INIT 17728 74 .cfa: sp 0 +
STACK CFI 1772c .cfa: sp 48 +
STACK CFI 17738 .cfa: x29 32 + x19: .cfa -8 + ^ x20: .cfa -16 + ^ .ra: .cfa -24 + ^ x29: .cfa -32 + ^
STACK CFI 17784 .cfa: sp 48 +
STACK CFI 17790 .cfa: sp 0 +
STACK CFI 17794 .cfa: x29 32 +
STACK CFI INIT 1782c 154 .cfa: sp 0 +
STACK CFI 17830 .cfa: sp 384 +
STACK CFI 17844 .cfa: x29 64 + x19: .cfa -8 + ^ x20: .cfa -16 + ^ x21: .cfa -24 + ^ x22: .cfa -32 + ^ x23: .cfa -40 + ^ x28: .cfa -48 + ^ .ra: .cfa -56 + ^ x29: .cfa -64 + ^
STACK CFI 17928 .cfa: sp 384 +
STACK CFI 1793c .cfa: sp 0 +
STACK CFI 17940 .cfa: x29 64 +
STACK CFI INIT 179b4 12c .cfa: sp 0 +
STACK CFI 179b8 .cfa: sp 80 +
STACK CFI 179cc .cfa: x29 80 + x19: .cfa -8 + ^ x20: .cfa -16 + ^ x21: .cfa -24 + ^ x22: .cfa -32 + ^ x23: .cfa -40 + ^ x24: .cfa -48 + ^ x25: .cfa -56 + ^ x26: .cfa -64 + ^ .ra: .cfa -72 + ^ x29: .cfa -80 + ^
STACK CFI 17a94 .cfa: sp 80 +
STACK CFI 17aa8 .cfa: sp 0 +
STACK CFI 17aac .cfa: x29 80 +
STACK CFI INIT 17b84 1a4 .cfa: sp 0 +
STACK CFI 17b88 .cfa: sp 112 +
STACK CFI 17ba0 .cfa: x29 80 + x19: .cfa -8 + ^ x20: .cfa -16 + ^ x21: .cfa -24 + ^ x22: .cfa -32 + ^ x23: .cfa -40 + ^ x24: .cfa -48 + ^ x25: .cfa -56 + ^ x26: .cfa -64 + ^ .ra: .cfa -72 + ^ x29: .cfa -80 + ^
STACK CFI 17c90 .cfa: sp 112 +
STACK CFI 17ca8 .cfa: sp 0 +
STACK CFI 17cac .cfa: x29 80 +
STACK CFI INIT 17d28 1dc .cfa: sp 0 +
STACK CFI 17d2c .cfa: sp 128 +
STACK CFI 17d48 .cfa: x29 96 + x19: .cfa -8 + ^ x20: .cfa -16 + ^ x21: .cfa -24 + ^ x22: .cfa -32 + ^ x23: .cfa -40 + ^ x24: .cfa -48 + ^ x25: .cfa -56 + ^ x26: .cfa -64 + ^ x27: .cfa -80 + ^ .ra: .cfa -88 + ^ x29: .cfa -96 + ^
STACK CFI 17eb4 .cfa: sp 128 +
STACK CFI 17ed0 .cfa: sp 0 +
STACK CFI 17ed4 .cfa: x29 96 +
STACK CFI INIT 17f18 50 .cfa: sp 0 +
STACK CFI 17f1c .cfa: sp 32 +
STACK CFI 17f24 .cfa: x29 32 + x19: .cfa -8 + ^ x20: .cfa -16 + ^ .ra: .cfa -24 + ^ x29: .cfa -32 + ^
STACK CFI INIT 17fcc 178 .cfa: sp 0 +
STACK CFI 17fd0 .cfa: sp 80 +
STACK CFI 17fe4 .cfa: x29 80 + x19: .cfa -8 + ^ x20: .cfa -16 + ^ x21: .cfa -24 + ^ x22: .cfa -32 + ^ x23: .cfa -40 + ^ x24: .cfa -48 + ^ x25: .cfa -64 + ^ .ra: .cfa -72 + ^ x29: .cfa -80 + ^
STACK CFI 18110 .cfa: sp 80 +
STACK CFI 18124 .cfa: sp 0 +
STACK CFI 18128 .cfa: x29 80 +
STACK CFI INIT 1856c 210 .cfa: sp 0 +
STACK CFI 18570 .cfa: sp 80 +
STACK CFI 18580 .cfa: x29 48 + x19: .cfa -8 + ^ x20: .cfa -16 + ^ x21: .cfa -32 + ^ .ra: .cfa -40 + ^ x29: .cfa -48 + ^
STACK CFI 1867c .cfa: sp 80 +
STACK CFI 1868c .cfa: sp 0 +
STACK CFI 18690 .cfa: x29 48 +
STACK CFI 18708 .cfa: sp 80 +
STACK CFI 18718 .cfa: sp 0 +
STACK CFI 1871c .cfa: x29 48 +
STACK CFI INIT 1908c 1a8 .cfa: sp 0 +
STACK CFI 19090 .cfa: sp 96 +
STACK CFI 190a0 .cfa: x29 48 + x19: .cfa -8 + ^ x20: .cfa -16 + ^ x21: .cfa -24 + ^ x22: .cfa -32 + ^ .ra: .cfa -40 + ^ x29: .cfa -48 + ^
STACK CFI 191c8 .cfa: sp 96 +
STACK CFI 191d8 .cfa: sp 0 +
STACK CFI 191dc .cfa: x29 48 +
STACK CFI INIT 19234 298 .cfa: sp 0 +
STACK CFI 19238 .cfa: sp 176 +
STACK CFI 1924c .cfa: x29 48 + x19: .cfa -8 + ^ x20: .cfa -16 + ^ x21: .cfa -24 + ^ x22: .cfa -32 + ^ .ra: .cfa -40 + ^ x29: .cfa -48 + ^ v8: .cfa -56 + ^ v9: .cfa -64 + ^
STACK CFI 193b4 .cfa: sp 176 +
STACK CFI 193c8 .cfa: sp 0 +
STACK CFI 193cc .cfa: x29 48 +
STACK CFI 193e0 .cfa: sp 176 +
STACK CFI 193f4 .cfa: sp 0 +
STACK CFI 193f8 .cfa: x29 48 +
STACK CFI INIT 194cc 2cc .cfa: sp 0 +
STACK CFI 194d0 .cfa: sp 192 +
STACK CFI 194e0 .cfa: x29 48 + x19: .cfa -8 + ^ x20: .cfa -16 + ^ x21: .cfa -24 + ^ x22: .cfa -32 + ^ .ra: .cfa -40 + ^ x29: .cfa -48 + ^
STACK CFI 196a4 .cfa: sp 192 +
STACK CFI 196b4 .cfa: sp 0 +
STACK CFI 196b8 .cfa: x29 48 +
STACK CFI INIT 19798 b4 .cfa: sp 0 +
STACK CFI 1979c .cfa: sp 48 +
STACK CFI 197a8 .cfa: x29 32 + x19: .cfa -8 + ^ x20: .cfa -16 + ^ .ra: .cfa -24 + ^ x29: .cfa -32 + ^
STACK CFI 19814 .cfa: sp 48 +
STACK CFI 19820 .cfa: sp 0 +
STACK CFI 19824 .cfa: x29 32 +
STACK CFI INIT 1984c b4 .cfa: sp 0 +
STACK CFI 19850 .cfa: sp 48 +
STACK CFI 1985c .cfa: x29 32 + x19: .cfa -8 + ^ x20: .cfa -16 + ^ .ra: .cfa -24 + ^ x29: .cfa -32 + ^
STACK CFI 198c8 .cfa: sp 48 +
STACK CFI 198d4 .cfa: sp 0 +
STACK CFI 198d8 .cfa: x29 32 +
STACK CFI INIT 19a30 b0 .cfa: sp 0 +
STACK CFI 19a34 .cfa: sp 64 +
STACK CFI 19a44 .cfa: x29 48 + x19: .cfa -8 + ^ x20: .cfa -16 + ^ x21: .cfa -32 + ^ .ra: .cfa -40 + ^ x29: .cfa -48 + ^
STACK CFI 19aa4 .cfa: sp 64 +
STACK CFI 19ab4 .cfa: sp 0 +
STACK CFI 19ab8 .cfa: x29 48 +
STACK CFI INIT 19b08 198 .cfa: sp 0 +
STACK CFI 19b0c .cfa: sp 96 +
STACK CFI 19b1c .cfa: x29 48 + x19: .cfa -8 + ^ x20: .cfa -16 + ^ x21: .cfa -32 + ^ .ra: .cfa -40 + ^ x29: .cfa -48 + ^
STACK CFI 19bf8 .cfa: sp 96 +
STACK CFI 19c08 .cfa: sp 0 +
STACK CFI 19c0c .cfa: x29 48 +
STACK CFI INIT 19cf4 bc .cfa: sp 0 +
STACK CFI 19cf8 .cfa: sp 64 +
STACK CFI 19d08 .cfa: x29 48 + x19: .cfa -8 + ^ x20: .cfa -16 + ^ x21: .cfa -32 + ^ .ra: .cfa -40 + ^ x29: .cfa -48 + ^
STACK CFI 19d74 .cfa: sp 64 +
STACK CFI 19d84 .cfa: sp 0 +
STACK CFI 19d88 .cfa: x29 48 +
STACK CFI INIT 19e30 b0 .cfa: sp 0 +
STACK CFI 19e34 .cfa: sp 64 +
STACK CFI 19e44 .cfa: x29 48 + x19: .cfa -8 + ^ x20: .cfa -16 + ^ x21: .cfa -32 + ^ .ra: .cfa -40 + ^ x29: .cfa -48 + ^
STACK CFI 19ea4 .cfa: sp 64 +
STACK CFI 19eb4 .cfa: sp 0 +
STACK CFI 19eb8 .cfa: x29 48 +
STACK CFI INIT 19f08 23c .cfa: sp 0 +
STACK CFI 19f0c .cfa: sp 192 +
STACK CFI 19f34 .cfa: x29 96 + x19: .cfa -8 + ^ x20: .cfa -16 + ^ x21: .cfa -24 + ^ x22: .cfa -32 + ^ x23: .cfa -40 + ^ x24: .cfa -48 + ^ x25: .cfa -56 + ^ x26: .cfa -64 + ^ x27: .cfa -72 + ^ x28: .cfa -80 + ^ .ra: .cfa -88 + ^ x29: .cfa -96 + ^ v8: .cfa -104 + ^ v9: .cfa -112 + ^ v10: .cfa -120 + ^ v11: .cfa -128 + ^ v12: .cfa -144 + ^
STACK CFI 1a0e4 .cfa: sp 192 +
STACK CFI 1a10c .cfa: sp 0 +
STACK CFI 1a110 .cfa: x29 96 +
STACK CFI INIT 1a144 1c .cfa: sp 0 +
STACK CFI 1a148 .cfa: sp 16 +
STACK CFI 1a14c .cfa: x29 16 + .ra: .cfa -8 + ^ x29: .cfa -16 + ^
STACK CFI 1a154 .cfa: sp 16 +
STACK CFI 1a158 .cfa: sp 0 +
STACK CFI 1a15c .cfa: x29 16 +
STACK CFI INIT 1a4ec 1fc .cfa: sp 0 +
STACK CFI 1a4f0 .cfa: sp 80 +
STACK CFI 1a504 .cfa: x29 80 + x19: .cfa -8 + ^ x20: .cfa -16 + ^ x21: .cfa -24 + ^ x22: .cfa -32 + ^ x23: .cfa -40 + ^ x24: .cfa -48 + ^ x25: .cfa -56 + ^ x28: .cfa -64 + ^ .ra: .cfa -72 + ^ x29: .cfa -80 + ^
STACK CFI 1a668 .cfa: sp 80 +
STACK CFI 1a67c .cfa: sp 0 +
STACK CFI 1a680 .cfa: x29 80 +
STACK CFI INIT 1a6e8 1e4 .cfa: sp 0 +
STACK CFI 1a6ec .cfa: sp 384 +
STACK CFI 1a700 .cfa: x29 64 + x19: .cfa -8 + ^ x20: .cfa -16 + ^ x21: .cfa -24 + ^ x22: .cfa -32 + ^ x23: .cfa -40 + ^ x28: .cfa -48 + ^ .ra: .cfa -56 + ^ x29: .cfa -64 + ^
STACK CFI 1a864 .cfa: sp 384 +
STACK CFI 1a878 .cfa: sp 0 +
STACK CFI 1a87c .cfa: x29 64 +
STACK CFI INIT 1ab88 fc .cfa: sp 0 +
STACK CFI 1ab8c .cfa: sp 96 +
STACK CFI 1ab9c .cfa: x29 48 + x19: .cfa -8 + ^ x20: .cfa -16 + ^ x21: .cfa -32 + ^ .ra: .cfa -40 + ^ x29: .cfa -48 + ^
STACK CFI 1ac14 .cfa: sp 96 +
STACK CFI 1ac24 .cfa: sp 0 +
STACK CFI 1ac28 .cfa: x29 48 +
STACK CFI INIT 1ac84 134 .cfa: sp 0 +
STACK CFI 1ac88 .cfa: sp 80 +
STACK CFI 1ac94 .cfa: x29 32 + x19: .cfa -8 + ^ x20: .cfa -16 + ^ .ra: .cfa -24 + ^ x29: .cfa -32 + ^
STACK CFI 1acc4 .cfa: sp 80 +
STACK CFI 1acd0 .cfa: sp 0 +
STACK CFI 1acd4 .cfa: x29 32 +
STACK CFI INIT 1adb8 78 .cfa: sp 0 +
STACK CFI 1adbc .cfa: sp 32 +
STACK CFI 1adc4 .cfa: x29 32 + x19: .cfa -8 + ^ x20: .cfa -16 + ^ .ra: .cfa -24 + ^ x29: .cfa -32 + ^
STACK CFI 1add0 .cfa: sp 32 +
STACK CFI 1add8 .cfa: sp 0 +
STACK CFI 1addc .cfa: x29 32 +
STACK CFI INIT 1ae30 74 .cfa: sp 0 +
STACK CFI 1ae34 .cfa: sp 48 +
STACK CFI 1ae40 .cfa: x29 32 + x19: .cfa -8 + ^ x20: .cfa -16 + ^ .ra: .cfa -24 + ^ x29: .cfa -32 + ^
STACK CFI 1ae8c .cfa: sp 48 +
STACK CFI 1ae98 .cfa: sp 0 +
STACK CFI 1ae9c .cfa: x29 32 +
STACK CFI INIT 1af08 174 .cfa: sp 0 +
STACK CFI 1af0c .cfa: sp 112 +
STACK CFI 1af1c .cfa: x29 48 + x19: .cfa -8 + ^ x20: .cfa -16 + ^ x21: .cfa -32 + ^ .ra: .cfa -40 + ^ x29: .cfa -48 + ^
STACK CFI 1af68 .cfa: sp 112 +
STACK CFI 1af78 .cfa: sp 0 +
STACK CFI 1af7c .cfa: x29 48 +
STACK CFI INIT 1b07c 194 .cfa: sp 0 +
STACK CFI 1b080 .cfa: sp 112 +
STACK CFI 1b090 .cfa: x29 48 + x19: .cfa -8 + ^ x20: .cfa -16 + ^ x21: .cfa -32 + ^ .ra: .cfa -40 + ^ x29: .cfa -48 + ^
STACK CFI 1b0fc .cfa: sp 112 +
STACK CFI 1b10c .cfa: sp 0 +
STACK CFI 1b110 .cfa: x29 48 +
STACK CFI INIT 1b2ac 400 .cfa: sp 0 +
STACK CFI 1b2b0 .cfa: sp 112 +
STACK CFI 1b2c0 .cfa: x29 48 + x19: .cfa -8 + ^ x20: .cfa -16 + ^ x21: .cfa -32 + ^ .ra: .cfa -40 + ^ x29: .cfa -48 + ^
STACK CFI 1b3e0 .cfa: sp 112 +
STACK CFI 1b3f0 .cfa: sp 0 +
STACK CFI 1b3f4 .cfa: x29 48 +
STACK CFI INIT 1b6ac 24c .cfa: sp 0 +
STACK CFI 1b6b0 .cfa: sp 128 +
STACK CFI 1b6c4 .cfa: x29 64 + x19: .cfa -8 + ^ x20: .cfa -16 + ^ x21: .cfa -24 + ^ x22: .cfa -32 + ^ x23: .cfa -48 + ^ .ra: .cfa -56 + ^ x29: .cfa -64 + ^
STACK CFI 1b794 .cfa: sp 128 +
STACK CFI 1b7a8 .cfa: sp 0 +
STACK CFI 1b7ac .cfa: x29 64 +
STACK CFI INIT 1b9f4 1b8 .cfa: sp 0 +
STACK CFI 1b9f8 .cfa: sp 160 +
STACK CFI 1ba14 .cfa: x29 72 + x19: .cfa -8 + ^ x20: .cfa -16 + ^ x21: .cfa -24 + ^ x22: .cfa -32 + ^ x23: .cfa -40 + ^ x24: .cfa -48 + ^ x25: .cfa -56 + ^ .ra: .cfa -64 + ^ x29: .cfa -72 + ^ v8: .cfa -80 + ^
STACK CFI 1ba98 .cfa: sp 160 +
STACK CFI 1bab4 .cfa: sp 0 +
STACK CFI 1bab8 .cfa: x29 72 +
STACK CFI INIT 1bbac 16c .cfa: sp 0 +
STACK CFI 1bbb0 .cfa: sp 64 +
STACK CFI 1bbc0 .cfa: x29 48 + x19: .cfa -8 + ^ x20: .cfa -16 + ^ x21: .cfa -24 + ^ x22: .cfa -32 + ^ .ra: .cfa -40 + ^ x29: .cfa -48 + ^
STACK CFI 1bcb8 .cfa: sp 64 +
STACK CFI 1bcc8 .cfa: sp 0 +
STACK CFI 1bccc .cfa: x29 48 +
STACK CFI INIT 1bd38 178 .cfa: sp 0 +
STACK CFI 1bd3c .cfa: sp 128 +
STACK CFI 1bd4c .cfa: x29 48 + x19: .cfa -8 + ^ x20: .cfa -16 + ^ x21: .cfa -24 + ^ x22: .cfa -32 + ^ .ra: .cfa -40 + ^ x29: .cfa -48 + ^
STACK CFI 1bda8 .cfa: sp 128 +
STACK CFI 1bdb8 .cfa: sp 0 +
STACK CFI 1bdbc .cfa: x29 48 +
STACK CFI INIT 1beb0 a4 .cfa: sp 0 +
STACK CFI 1beb4 .cfa: sp 48 +
STACK CFI 1bec0 .cfa: x29 48 + x19: .cfa -8 + ^ x20: .cfa -16 + ^ x21: .cfa -32 + ^ .ra: .cfa -40 + ^ x29: .cfa -48 + ^
STACK CFI 1bf2c .cfa: sp 48 +
STACK CFI 1bf38 .cfa: sp 0 +
STACK CFI 1bf3c .cfa: x29 48 +
STACK CFI INIT 1bf54 178 .cfa: sp 0 +
STACK CFI 1bf58 .cfa: sp 128 +
STACK CFI 1bf68 .cfa: x29 48 + x19: .cfa -8 + ^ x20: .cfa -16 + ^ x21: .cfa -24 + ^ x22: .cfa -32 + ^ .ra: .cfa -40 + ^ x29: .cfa -48 + ^
STACK CFI 1bfc4 .cfa: sp 128 +
STACK CFI 1bfd4 .cfa: sp 0 +
STACK CFI 1bfd8 .cfa: x29 48 +
STACK CFI INIT 1c0cc 48 .cfa: sp 0 +
STACK CFI 1c0d0 .cfa: sp 32 +
STACK CFI 1c0d8 .cfa: x29 32 + x19: .cfa -16 + ^ .ra: .cfa -24 + ^ x29: .cfa -32 + ^
STACK CFI 1c104 .cfa: sp 32 +
STACK CFI 1c10c .cfa: sp 0 +
STACK CFI 1c110 .cfa: x29 32 +
STACK CFI INIT 1c114 50 .cfa: sp 0 +
STACK CFI 1c118 .cfa: sp 32 +
STACK CFI 1c120 .cfa: x29 32 + x19: .cfa -16 + ^ .ra: .cfa -24 + ^ x29: .cfa -32 + ^
STACK CFI 1c154 .cfa: sp 32 +
STACK CFI 1c15c .cfa: sp 0 +
STACK CFI 1c160 .cfa: x29 32 +
STACK CFI INIT 1c164 98 .cfa: sp 0 +
STACK CFI 1c168 .cfa: sp 48 +
STACK CFI 1c174 .cfa: x29 48 + x19: .cfa -8 + ^ x20: .cfa -16 + ^ x21: .cfa -32 + ^ .ra: .cfa -40 + ^ x29: .cfa -48 + ^
STACK CFI 1c1d8 .cfa: sp 48 +
STACK CFI 1c1e4 .cfa: sp 0 +
STACK CFI 1c1e8 .cfa: x29 48 +
STACK CFI INIT 1c200 244 .cfa: sp 0 +
STACK CFI 1c204 .cfa: sp 128 +
STACK CFI 1c218 .cfa: x29 64 + x19: .cfa -8 + ^ x20: .cfa -16 + ^ x21: .cfa -24 + ^ x22: .cfa -32 + ^ x23: .cfa -48 + ^ .ra: .cfa -56 + ^ x29: .cfa -64 + ^
STACK CFI 1c2e0 .cfa: sp 128 +
STACK CFI 1c2f4 .cfa: sp 0 +
STACK CFI 1c2f8 .cfa: x29 64 +
STACK CFI INIT 1c444 254 .cfa: sp 0 +
STACK CFI 1c448 .cfa: sp 128 +
STACK CFI 1c45c .cfa: x29 64 + x19: .cfa -8 + ^ x20: .cfa -16 + ^ x21: .cfa -24 + ^ x22: .cfa -32 + ^ x23: .cfa -48 + ^ .ra: .cfa -56 + ^ x29: .cfa -64 + ^
STACK CFI 1c534 .cfa: sp 128 +
STACK CFI 1c548 .cfa: sp 0 +
STACK CFI 1c54c .cfa: x29 64 +
STACK CFI INIT 1c698 2b4 .cfa: sp 0 +
STACK CFI 1c69c .cfa: sp 128 +
STACK CFI 1c6b0 .cfa: x29 64 + x19: .cfa -8 + ^ x20: .cfa -16 + ^ x21: .cfa -24 + ^ x22: .cfa -32 + ^ x23: .cfa -40 + ^ x24: .cfa -48 + ^ .ra: .cfa -56 + ^ x29: .cfa -64 + ^
STACK CFI 1c7e8 .cfa: sp 128 +
STACK CFI 1c7fc .cfa: sp 0 +
STACK CFI 1c800 .cfa: x29 64 +
STACK CFI INIT 1c94c 224 .cfa: sp 0 +
STACK CFI 1c950 .cfa: sp 128 +
STACK CFI 1c964 .cfa: x29 64 + x19: .cfa -8 + ^ x20: .cfa -16 + ^ x21: .cfa -24 + ^ x22: .cfa -32 + ^ x23: .cfa -48 + ^ .ra: .cfa -56 + ^ x29: .cfa -64 + ^
STACK CFI 1ca0c .cfa: sp 128 +
STACK CFI 1ca20 .cfa: sp 0 +
STACK CFI 1ca24 .cfa: x29 64 +
STACK CFI INIT 1cb70 224 .cfa: sp 0 +
STACK CFI 1cb74 .cfa: sp 128 +
STACK CFI 1cb88 .cfa: x29 64 + x19: .cfa -8 + ^ x20: .cfa -16 + ^ x21: .cfa -24 + ^ x22: .cfa -32 + ^ x23: .cfa -48 + ^ .ra: .cfa -56 + ^ x29: .cfa -64 + ^
STACK CFI 1cc30 .cfa: sp 128 +
STACK CFI 1cc44 .cfa: sp 0 +
STACK CFI 1cc48 .cfa: x29 64 +
STACK CFI INIT 1cd94 154 .cfa: sp 0 +
STACK CFI 1cd98 .cfa: sp 384 +
STACK CFI 1cdac .cfa: x29 64 + x19: .cfa -8 + ^ x20: .cfa -16 + ^ x21: .cfa -24 + ^ x22: .cfa -32 + ^ x23: .cfa -40 + ^ x28: .cfa -48 + ^ .ra: .cfa -56 + ^ x29: .cfa -64 + ^
STACK CFI 1ce90 .cfa: sp 384 +
STACK CFI 1cea4 .cfa: sp 0 +
STACK CFI 1cea8 .cfa: x29 64 +
STACK CFI INIT 1cee8 168 .cfa: sp 0 +
STACK CFI 1ceec .cfa: sp 384 +
STACK CFI 1cf00 .cfa: x29 64 + x19: .cfa -8 + ^ x20: .cfa -16 + ^ x21: .cfa -24 + ^ x22: .cfa -32 + ^ x23: .cfa -40 + ^ x28: .cfa -48 + ^ .ra: .cfa -56 + ^ x29: .cfa -64 + ^
STACK CFI 1cff8 .cfa: sp 384 +
STACK CFI 1d00c .cfa: sp 0 +
STACK CFI 1d010 .cfa: x29 64 +
STACK CFI INIT 1d068 4e0 .cfa: sp 0 +
STACK CFI 1d06c .cfa: sp 64 +
STACK CFI 1d07c .cfa: x29 64 + x19: .cfa -8 + ^ x20: .cfa -16 + ^ x21: .cfa -24 + ^ x22: .cfa -32 + ^ x23: .cfa -40 + ^ x24: .cfa -48 + ^ .ra: .cfa -56 + ^ x29: .cfa -64 + ^
STACK CFI 1d51c .cfa: sp 64 +
STACK CFI 1d52c .cfa: sp 0 +
STACK CFI 1d530 .cfa: x29 64 +
STACK CFI INIT 1dabc 294 .cfa: sp 0 +
STACK CFI 1dac0 .cfa: sp 240 +
STACK CFI 1dad8 .cfa: x29 80 + x19: .cfa -8 + ^ x20: .cfa -16 + ^ x21: .cfa -24 + ^ x22: .cfa -32 + ^ x23: .cfa -40 + ^ x24: .cfa -48 + ^ x25: .cfa -64 + ^ .ra: .cfa -72 + ^ x29: .cfa -80 + ^
STACK CFI 1dc78 .cfa: sp 240 +
STACK CFI 1dc90 .cfa: sp 0 +
STACK CFI 1dc94 .cfa: x29 80 +
STACK CFI INIT 1ddcc 50 .cfa: sp 0 +
STACK CFI 1ddd0 .cfa: sp 32 +
STACK CFI 1ddd8 .cfa: x29 32 + x19: .cfa -8 + ^ x20: .cfa -16 + ^ .ra: .cfa -24 + ^ x29: .cfa -32 + ^
STACK CFI INIT 1de48 7c0 .cfa: sp 0 +
STACK CFI 1de4c .cfa: sp 320 +
STACK CFI 1de68 .cfa: x29 96 + x19: .cfa -8 + ^ x20: .cfa -16 + ^ x21: .cfa -24 + ^ x22: .cfa -32 + ^ x23: .cfa -40 + ^ x24: .cfa -48 + ^ x25: .cfa -56 + ^ x26: .cfa -64 + ^ x27: .cfa -72 + ^ x28: .cfa -80 + ^ .ra: .cfa -88 + ^ x29: .cfa -96 + ^
STACK CFI 1e4b8 .cfa: sp 320 +
STACK CFI 1e4d4 .cfa: sp 0 +
STACK CFI 1e4d8 .cfa: x29 96 +
STACK CFI INIT 22988 c74 .cfa: sp 0 +
STACK CFI 2298c .cfa: sp 96 +
STACK CFI 229a4 .cfa: x29 96 + x19: .cfa -8 + ^ x20: .cfa -16 + ^ x21: .cfa -24 + ^ x22: .cfa -32 + ^ x23: .cfa -40 + ^ x24: .cfa -48 + ^ x25: .cfa -56 + ^ x26: .cfa -64 + ^ x27: .cfa -72 + ^ x28: .cfa -80 + ^ .ra: .cfa -88 + ^ x29: .cfa -96 + ^
STACK CFI 2341c .cfa: sp 96 +
STACK CFI 23434 .cfa: sp 0 +
STACK CFI 23438 .cfa: x29 96 +
STACK CFI INIT 23750 26c .cfa: sp 0 +
STACK CFI 23754 .cfa: sp 128 +
STACK CFI 23764 .cfa: x29 48 + x19: .cfa -8 + ^ x20: .cfa -16 + ^ x21: .cfa -24 + ^ x22: .cfa -32 + ^ .ra: .cfa -40 + ^ x29: .cfa -48 + ^
STACK CFI 23908 .cfa: sp 128 +
STACK CFI 23918 .cfa: sp 0 +
STACK CFI 2391c .cfa: x29 48 +
STACK CFI INIT 23f08 3b8 .cfa: sp 0 +
STACK CFI 23f0c .cfa: sp 96 +
STACK CFI 23f24 .cfa: x29 96 + x19: .cfa -8 + ^ x20: .cfa -16 + ^ x21: .cfa -24 + ^ x22: .cfa -32 + ^ x23: .cfa -40 + ^ x24: .cfa -48 + ^ x25: .cfa -56 + ^ x26: .cfa -64 + ^ x27: .cfa -72 + ^ x28: .cfa -80 + ^ .ra: .cfa -88 + ^ x29: .cfa -96 + ^
STACK CFI 24260 .cfa: sp 96 +
STACK CFI 24278 .cfa: sp 0 +
STACK CFI 2427c .cfa: x29 96 +
STACK CFI INIT 24360 cb4 .cfa: sp 0 +
STACK CFI 24364 .cfa: sp 96 +
STACK CFI 2437c .cfa: x29 96 + x19: .cfa -8 + ^ x20: .cfa -16 + ^ x21: .cfa -24 + ^ x22: .cfa -32 + ^ x23: .cfa -40 + ^ x24: .cfa -48 + ^ x25: .cfa -56 + ^ x26: .cfa -64 + ^ x27: .cfa -72 + ^ x28: .cfa -80 + ^ .ra: .cfa -88 + ^ x29: .cfa -96 + ^
STACK CFI 24e24 .cfa: sp 96 +
STACK CFI 24e3c .cfa: sp 0 +
STACK CFI 24e40 .cfa: x29 96 +
STACK CFI INIT 252fc afc .cfa: sp 0 +
STACK CFI 25300 .cfa: sp 96 +
STACK CFI 25318 .cfa: x29 96 + x19: .cfa -8 + ^ x20: .cfa -16 + ^ x21: .cfa -24 + ^ x22: .cfa -32 + ^ x23: .cfa -40 + ^ x24: .cfa -48 + ^ x25: .cfa -56 + ^ x26: .cfa -64 + ^ x27: .cfa -72 + ^ x28: .cfa -80 + ^ .ra: .cfa -88 + ^ x29: .cfa -96 + ^
STACK CFI 25d6c .cfa: sp 96 +
STACK CFI 25d84 .cfa: sp 0 +
STACK CFI 25d88 .cfa: x29 96 +
STACK CFI INIT 25fd4 1430 .cfa: sp 0 +
STACK CFI 25fd8 .cfa: sp 96 +
STACK CFI 25ff0 .cfa: x29 96 + x19: .cfa -8 + ^ x20: .cfa -16 + ^ x21: .cfa -24 + ^ x22: .cfa -32 + ^ x23: .cfa -40 + ^ x24: .cfa -48 + ^ x25: .cfa -56 + ^ x26: .cfa -64 + ^ x27: .cfa -72 + ^ x28: .cfa -80 + ^ .ra: .cfa -88 + ^ x29: .cfa -96 + ^
STACK CFI 2728c .cfa: sp 96 +
STACK CFI 272a4 .cfa: sp 0 +
STACK CFI 272a8 .cfa: x29 96 +
STACK CFI INIT 27528 75c .cfa: sp 0 +
STACK CFI 2752c .cfa: sp 368 +
STACK CFI 27548 .cfa: x29 96 + x19: .cfa -8 + ^ x20: .cfa -16 + ^ x21: .cfa -24 + ^ x22: .cfa -32 + ^ x23: .cfa -40 + ^ x24: .cfa -48 + ^ x25: .cfa -56 + ^ x26: .cfa -64 + ^ x27: .cfa -72 + ^ x28: .cfa -80 + ^ .ra: .cfa -88 + ^ x29: .cfa -96 + ^
STACK CFI 275fc .cfa: sp 368 +
STACK CFI 27618 .cfa: sp 0 +
STACK CFI 2761c .cfa: x29 96 +
STACK CFI 27670 .cfa: sp 368 +
STACK CFI 2768c .cfa: sp 0 +
STACK CFI 27690 .cfa: x29 96 +
STACK CFI INIT 28044 eb0 .cfa: sp 0 +
STACK CFI 28048 .cfa: sp 96 +
STACK CFI 28060 .cfa: x29 96 + x19: .cfa -8 + ^ x20: .cfa -16 + ^ x21: .cfa -24 + ^ x22: .cfa -32 + ^ x23: .cfa -40 + ^ x24: .cfa -48 + ^ x25: .cfa -56 + ^ x26: .cfa -64 + ^ x27: .cfa -72 + ^ x28: .cfa -80 + ^ .ra: .cfa -88 + ^ x29: .cfa -96 + ^
STACK CFI 28d08 .cfa: sp 96 +
STACK CFI 28d20 .cfa: sp 0 +
STACK CFI 28d24 .cfa: x29 96 +
STACK CFI INIT 29268 1c9c .cfa: sp 0 +
STACK CFI 2926c .cfa: sp 112 +
STACK CFI 29288 .cfa: x29 96 + x19: .cfa -8 + ^ x20: .cfa -16 + ^ x21: .cfa -24 + ^ x22: .cfa -32 + ^ x23: .cfa -40 + ^ x24: .cfa -48 + ^ x25: .cfa -56 + ^ x26: .cfa -64 + ^ x27: .cfa -72 + ^ x28: .cfa -80 + ^ .ra: .cfa -88 + ^ x29: .cfa -96 + ^ v8: .cfa -112 + ^
STACK CFI 29670 .cfa: sp 112 +
STACK CFI 2968c .cfa: sp 0 +
STACK CFI 29690 .cfa: x29 96 +
STACK CFI INIT 2d6c8 9a0 .cfa: sp 0 +
STACK CFI 2d6cc .cfa: sp 144 +
STACK CFI 2d6e4 .cfa: x29 80 + x19: .cfa -8 + ^ x20: .cfa -16 + ^ x21: .cfa -24 + ^ x22: .cfa -32 + ^ x23: .cfa -40 + ^ x24: .cfa -48 + ^ x25: .cfa -64 + ^ .ra: .cfa -72 + ^ x29: .cfa -80 + ^
STACK CFI 2dfe4 .cfa: sp 144 +
STACK CFI 2dffc .cfa: sp 0 +
STACK CFI 2e000 .cfa: x29 80 +
STACK CFI INIT 2f58c 57c .cfa: sp 0 +
STACK CFI 2f590 .cfa: sp 96 +
STACK CFI 2f5a8 .cfa: x29 96 + x19: .cfa -8 + ^ x20: .cfa -16 + ^ x21: .cfa -24 + ^ x22: .cfa -32 + ^ x23: .cfa -40 + ^ x24: .cfa -48 + ^ x25: .cfa -56 + ^ x26: .cfa -64 + ^ x27: .cfa -72 + ^ x28: .cfa -80 + ^ .ra: .cfa -88 + ^ x29: .cfa -96 + ^
STACK CFI 2fa6c .cfa: sp 96 +
STACK CFI 2fa84 .cfa: sp 0 +
STACK CFI 2fa88 .cfa: x29 96 +
STACK CFI INIT 2fb08 67c .cfa: sp 0 +
STACK CFI 2fb0c .cfa: sp 96 +
STACK CFI 2fb24 .cfa: x29 96 + x19: .cfa -8 + ^ x20: .cfa -16 + ^ x21: .cfa -24 + ^ x22: .cfa -32 + ^ x23: .cfa -40 + ^ x24: .cfa -48 + ^ x25: .cfa -56 + ^ x26: .cfa -64 + ^ x27: .cfa -72 + ^ x28: .cfa -80 + ^ .ra: .cfa -88 + ^ x29: .cfa -96 + ^
STACK CFI 300e8 .cfa: sp 96 +
STACK CFI 30100 .cfa: sp 0 +
STACK CFI 30104 .cfa: x29 96 +
