MODULE Linux arm64 DD357454CF11B0A2CB183A3515A9BF140 catgirldev.ingame-progress-bar-color.android64.so
INFO CODE_ID 547435DD11CFA2B0CB183A3515A9BF146C6E55B2
INFO GENERATOR mozilla/dump_syms 2.3.4
FILE 0 /home/runner/work/progress-bar-thingy/progress-bar-thingy/geode-sdk-clone/loader/include/Geode/loader/SettingV3.hpp
FILE 1 /home/runner/work/progress-bar-thingy/progress-bar-thingy/geode-sdk-clone/loader/include/Geode/platform/ItaniumCast.hpp
FILE 2 /usr/local/lib/android/sdk/ndk/28.0.13004108/toolchains/llvm/prebuilt/linux-x86_64/sysroot/usr/include/c++/v1/ostream
FILE 3 /usr/local/lib/android/sdk/ndk/28.0.13004108/toolchains/llvm/prebuilt/linux-x86_64/sysroot/usr/include/c++/v1/variant
FILE 4 /usr/local/lib/android/sdk/ndk/28.0.13004108/toolchains/llvm/prebuilt/linux-x86_64/sysroot/usr/include/c++/v1/__tree
FILE 5 /usr/local/lib/android/sdk/ndk/28.0.13004108/toolchains/llvm/prebuilt/linux-x86_64/sysroot/usr/include/c++/v1/locale
FILE 6 /usr/local/lib/android/sdk/ndk/28.0.13004108/toolchains/llvm/prebuilt/linux-x86_64/sysroot/usr/include/c++/v1/stdexcept
FILE 7 /usr/local/lib/android/sdk/ndk/28.0.13004108/toolchains/llvm/prebuilt/linux-x86_64/sysroot/usr/include/c++/v1/new
FILE 8 /home/runner/work/progress-bar-thingy/progress-bar-thingy/build/bindings/bindings/Geode/modify/PlayLayer.hpp
FILE 9 /home/runner/work/progress-bar-thingy/progress-bar-thingy/src/util/utils.hpp
FILE 10 /home/runner/work/progress-bar-thingy/progress-bar-thingy/geode-sdk-clone/loader/include/Geode/modify/Modify.hpp
FILE 11 /usr/local/lib/android/sdk/ndk/28.0.13004108/toolchains/llvm/prebuilt/linux-x86_64/sysroot/usr/include/c++/v1/string
FILE 12 /home/runner/work/progress-bar-thingy/progress-bar-thingy/cpm-cache/result/ade45dec94899c25150383d6c6c26347d72a4fec/include/Geode/Result.hpp
FILE 13 /usr/local/lib/android/sdk/ndk/28.0.13004108/toolchains/llvm/prebuilt/linux-x86_64/sysroot/usr/include/c++/v1/vector
FILE 14 /usr/local/lib/android/sdk/ndk/28.0.13004108/toolchains/llvm/prebuilt/linux-x86_64/sysroot/usr/include/c++/v1/__split_buffer
FILE 15 /usr/local/lib/android/sdk/ndk/28.0.13004108/toolchains/llvm/prebuilt/linux-x86_64/sysroot/usr/include/c++/v1/__memory/shared_ptr.h
FILE 16 /home/runner/work/progress-bar-thingy/progress-bar-thingy/geode-sdk-clone/loader/include/Geode/loader/Hook.hpp
FILE 17 /home/runner/work/progress-bar-thingy/progress-bar-thingy/geode-sdk-clone/loader/include/Geode/loader/Mod.hpp
FILE 18 /usr/local/lib/android/sdk/ndk/28.0.13004108/toolchains/llvm/prebuilt/linux-x86_64/sysroot/usr/include/c++/v1/sstream
FILE 19 /home/runner/work/progress-bar-thingy/progress-bar-thingy/cpm-cache/tuliphook/8d0d2aa407f52cdee9f79187fca5c9affddf8dd5/include/tulip/HandlerData.hpp
FILE 20 /usr/local/lib/android/sdk/ndk/28.0.13004108/toolchains/llvm/prebuilt/linux-x86_64/sysroot/usr/include/c++/v1/__functional/hash.h
FILE 21 /usr/local/lib/android/sdk/ndk/28.0.13004108/toolchains/llvm/prebuilt/linux-x86_64/sysroot/usr/include/c++/v1/__utility/pair.h
FILE 22 /usr/local/lib/android/sdk/ndk/28.0.13004108/toolchains/llvm/prebuilt/linux-x86_64/sysroot/usr/include/c++/v1/unordered_map
FILE 23 /usr/local/lib/android/sdk/ndk/28.0.13004108/toolchains/llvm/prebuilt/linux-x86_64/sysroot/usr/include/c++/v1/__memory/unique_ptr.h
FILE 24 /usr/local/lib/android/sdk/ndk/28.0.13004108/toolchains/llvm/prebuilt/linux-x86_64/sysroot/usr/include/c++/v1/__hash_table
FILE 25 /home/runner/work/progress-bar-thingy/progress-bar-thingy/geode-sdk-clone/loader/include/Geode/loader/Event.hpp
FILE 26 /usr/local/lib/android/sdk/ndk/28.0.13004108/toolchains/llvm/prebuilt/linux-x86_64/sysroot/usr/include/c++/v1/__functional/function.h
FILE 27 /home/runner/work/progress-bar-thingy/progress-bar-thingy/src/util/color.hpp
FILE 28 /home/runner/work/progress-bar-thingy/progress-bar-thingy/geode-sdk-clone/entry.cpp
FILE 29 /home/runner/work/progress-bar-thingy/progress-bar-thingy/build/bindings/bindings/Geode/GeneratedSource.cpp
PUBLIC 7f70 0 __on_dlclose
PUBLIC 7f80 0 __emutls_unregister_key
PUBLIC 7f88 0 __on_dlclose_late
PUBLIC 7f90 0 __atexit_handler_wrapper
PUBLIC 7fa4 0 atexit
PUBLIC 7fc0 0 pthread_atfork
PUBLIC 7fd0 0 __aarch64_ldadd8_relax
PUBLIC 8000 0 init_have_lse_atomics
PUBLIC 8098 0 __init_cpu_features_constructor
PUBLIC 8344 0 __init_cpu_features
PUBLIC 83d0 0 __aarch64_ldadd8_acq_rel
FUNC 8400 ac8 0 __cxx_global_var_init
843c a8c 446 10
FUNC 8ec8 18 0 geode::modifier::ModifyBase<geode::modifier::ModifyDerive<canvas, PlayLayer> >::~ModifyBase()
8ec8 18 200 10
FUNC 8ee0 710 0 geode::modifier::ModifyDerive<canvas, PlayLayer>::apply()
8ee0 2c 1276 8
8f0c 1a0 1365 8
90ac 1b0 1386 8
925c 1d4 1404 8
9430 28 1408 8
9458 24 1365 8
947c 24 1386 8
94a0 24 1404 8
94c4 30 1365 8
94f4 30 1386 8
9524 48 1404 8
956c 14 1386 8
9580 14 1365 8
9594 5c 1404 8
FUNC 95f0 30 0 geode::Mod::get<void>()
95f0 c 302 17
95fc c 303 17
9608 c 304 17
9614 c 306 17
FUNC 9620 50 0 std::__ndk1::shared_ptr<geode::Hook>::~shared_ptr[abi:ne190000]()
9620 c 649 15
962c 8 650 15
9634 10 651 15
9644 c 652 15
9650 20 651 15
FUNC 9670 74 0 geode::impl::ResultData<geode::Hook*, std::__ndk1::basic_string<char, std::__ndk1::char_traits<char>, std::__ndk1::allocator<char> > >::~ResultData()
9670 74 422 12
FUNC 96e4 7c 0 std::__ndk1::vector<std::__ndk1::basic_string<char, std::__ndk1::char_traits<char>, std::__ndk1::allocator<char> >, std::__ndk1::allocator<std::__ndk1::basic_string<char, std::__ndk1::char_traits<char>, std::__ndk1::allocator<char> > > >::~vector[abi:ne190000]()
96e4 7c 502 13
FUNC 9760 4 0 geode::modifier::ModifyBase<geode::modifier::ModifyDerive<canvas, PlayLayer> >::apply()
9760 4 416 10
PUBLIC 9764 0 __clang_call_terminate
FUNC 9774 154 0 _ZN5geode15UnwrapExceptionC2IRPNS_4HookEQsr4implE18IsStringStreamableIT_EEENS_4impl5OkTagEOS5_
9774 20 404 12
9794 48 403 12
97dc 5c 402 12
9838 4 403 12
983c 18 402 12
9854 34 404 12
9888 40 402 12
FUNC 98c8 34 0 std::__ndk1::__throw_bad_variant_access[abi:ne190000]()
98c8 8 296 3
98d0 2c 298 3
FUNC 98fc 128 0 std::__ndk1::basic_stringstream<char, std::__ndk1::char_traits<char>, std::__ndk1::allocator<char> >::basic_stringstream[abi:ne190000]()
98fc 28 1149 18
9924 4 1148 18
9928 fc 1149 18
FUNC 9a24 80 0 std::__ndk1::basic_stringstream<char, std::__ndk1::char_traits<char>, std::__ndk1::allocator<char> >::~basic_stringstream()
9a24 80 1271 18
FUNC 9aa4 24 0 geode::UnwrapException::~UnwrapException()
9aa4 24 413 12
FUNC 9ac8 198 0 std::__ndk1::__put_character_sequence[abi:ne190000]<char, std::__ndk1::char_traits<char> >(std::__ndk1::basic_ostream<char, std::__ndk1::char_traits<char> >, std::__ndk1::basic_ostream const*, unsigned long)
9ac8 34 666 2
9afc c 670 2
9b08 8 671 2
9b10 c 674 2
9b1c 4 679 2
9b20 4 674 2
9b24 4 676 2
9b28 54 679 2
9b7c 10 676 2
9b8c 10 673 2
9b9c 1c 681 2
9bb8 8 684 2
9bc0 38 688 2
9bf8 10 679 2
9c08 18 684 2
9c20 10 685 2
9c30 30 686 2
FUNC 9c60 1c4 0 std::__ndk1::__pad_and_output[abi:ne190000]<char, std::__ndk1::char_traits<char> >(std::__ndk1::char_traits<char>, std::__ndk1::ostreambuf_iterator const*, std::__ndk1::ostreambuf_iterator const, std::__ndk1::ostreambuf_iterator const, std::__ndk1::ios_base&, std::__ndk1::ostreambuf_iterator)
9c60 30 1246 5
9c90 4 1247 5
9c94 4 1250 5
9c98 4 1249 5
9c9c 10 1255 5
9cac c 1251 5
9cb8 8 1256 5
9cc0 1c 1257 5
9cdc 8 1262 5
9ce4 60 1263 5
9d44 28 1264 5
9d6c 1c 1268 5
9d88 4 1269 5
9d8c 8 1270 5
9d94 20 1271 5
9db4 c 1276 5
9dc0 34 1278 5
9df4 30 1268 5
FUNC 9e24 14 0 std::__ndk1::basic_string<char, std::__ndk1::char_traits<char>, std::__ndk1::allocator<char> >::__throw_length_error[abi:ne190000]() const
9e24 8 2130 11
9e2c c 2131 11
FUNC 9e38 50 0 std::__ndk1::__throw_length_error[abi:ne190000](char const*)
9e38 10 238 6
9e48 40 240 6
FUNC 9e88 30 0 std::length_error::length_error[abi:ne190000](char const*)
9e88 30 151 6
FUNC 9eb8 34 0 std::__throw_bad_array_new_length([abi:ne190000], void)
9eb8 c 172 7
9ec4 28 174 7
FUNC 9eec 15c 0 std::__ndk1::basic_stringbuf<char, std::__ndk1::char_traits<char>, std::__ndk1::allocator<char> >::str[abi:ne190000]() &&
9eec 10 465 18
9efc 4c 466 18
9f48 24 467 18
9f6c 8 470 18
9f74 4 471 18
9f78 8 470 18
9f80 8 471 18
9f88 8 470 18
9f90 20 471 18
9fb0 1c 472 18
9fcc 20 471 18
9fec 28 472 18
a014 8 473 18
a01c 2c 475 18
FUNC a048 148 0 std::__ndk1::basic_stringbuf<char, std::__ndk1::char_traits<char>, std::__ndk1::allocator<char> >::__init_buf_ptrs[abi:ne190000]()
a048 10 707 18
a058 8 709 18
a060 4 711 18
a064 4 709 18
a068 4 708 18
a06c 8 710 18
a074 4 709 18
a078 4 710 18
a07c 4 711 18
a080 4 712 18
a084 4 713 18
a088 4 712 18
a08c 4 713 18
a090 4 715 18
a094 20 717 18
a0b4 4 716 18
a0b8 4 717 18
a0bc 4 716 18
a0c0 3c 717 18
a0fc 14 718 18
a110 4 719 18
a114 4 718 18
a118 4 719 18
a11c 8 718 18
a124 4 719 18
a128 48 720 18
a170 4 721 18
a174 4 724 18
a178 8 725 18
a180 10 728 18
FUNC a190 88 0 std::__ndk1::basic_string<char, std::__ndk1::char_traits<char>, std::__ndk1::allocator<char> >::__erase_external_with_move(unsigned long, unsigned long)
a190 14 3132 11
a1a4 10 3133 11
a1b4 4 3134 11
a1b8 4 3133 11
a1bc c 3135 11
a1c8 4 3137 11
a1cc 4 3138 11
a1d0 8 3136 11
a1d8 c 3138 11
a1e4 30 3139 11
a214 4 3141 11
FUNC a218 84 0 std::__ndk1::basic_string<char, std::__ndk1::char_traits<char>, std::__ndk1::allocator<char> >::__init_copy_ctor_external(char const*, unsigned long)
a218 14 2244 11
a22c 8 2249 11
a234 10 2251 11
a244 8 2253 11
a24c 24 2255 11
a270 8 2259 11
a278 4 2258 11
a27c 4 2259 11
a280 14 2262 11
a294 8 2254 11
FUNC a29c 68 0 std::__ndk1::__split_buffer<std::__ndk1::basic_string<char, std::__ndk1::char_traits<char>, std::__ndk1::allocator<char> >, std::__ndk1::allocator<std::__ndk1::basic_string<char, std::__ndk1::char_traits<char>, std::__ndk1::allocator<char> > >&>::~__split_buffer()
a29c c 352 14
a2a8 10 353 14
a2b8 8 354 14
a2c0 c 355 14
a2cc 2c 353 14
a2f8 c 356 14
FUNC a304 14 0 std::__ndk1::vector<std::__ndk1::basic_string<char, std::__ndk1::char_traits<char>, std::__ndk1::allocator<char> >, std::__ndk1::allocator<std::__ndk1::basic_string<char, std::__ndk1::char_traits<char>, std::__ndk1::allocator<char> > > >::__throw_length_error[abi:ne190000]() const
a304 14 941 13
FUNC a318 4 0 std::__ndk1::__variant_detail::__visitation::__base::__dispatcher<(unsigned long)0>::__dispatch[abi:ne190000]<std::__ndk1::__variant_detail::__dtor<std::__ndk1::__variant_detail::__traits<geode::Hook*, std::__ndk1::basic_string<char, std::__ndk1::char_traits<char>, std::__ndk1::allocator<char> > >, (std::__ndk1::__variant_detail::_Trait)1>::__destroy[abi:ne190000]()::{lambda(auto:1&)#1}, std::__ndk1::__variant_detail::__base<(std::__ndk1::__variant_detail::__traits<geode::Hook*, std::__ndk1::basic_string<char, std::__ndk1::char_traits<char>, std::__ndk1::allocator<char> > >)1, geode::Hook, std::__ndk1::allocator<char> >&>(std::__ndk1::__variant_detail::__dtor<std::__ndk1::__variant_detail::__traits<geode::Hook*, std::__ndk1::basic_string<char, std::__ndk1::char_traits<char>, std::__ndk1::allocator<char> > >, (std::__ndk1::__variant_detail::_Trait)1>, std::__ndk1::__variant_detail::__base<(std::__ndk1::__variant_detail::__traits<geode::Hook*, std::__ndk1::basic_string<char, std::__ndk1::char_traits<char>, std::__ndk1::allocator<char> > >)1, geode::Hook, std::__ndk1::allocator<char> >&)
a318 4 536 3
FUNC a31c 14 0 std::__ndk1::__variant_detail::__visitation::__base::__dispatcher<(unsigned long)1>::__dispatch[abi:ne190000]<std::__ndk1::__variant_detail::__dtor<std::__ndk1::__variant_detail::__traits<geode::Hook*, std::__ndk1::basic_string<char, std::__ndk1::char_traits<char>, std::__ndk1::allocator<char> > >, (std::__ndk1::__variant_detail::_Trait)1>::__destroy[abi:ne190000]()::{lambda(auto:1&)#1}, std::__ndk1::__variant_detail::__base<(std::__ndk1::__variant_detail::__traits<geode::Hook*, std::__ndk1::basic_string<char, std::__ndk1::char_traits<char>, std::__ndk1::allocator<char> > >)1, geode::Hook, std::__ndk1::allocator<char> >&>(std::__ndk1::__variant_detail::__dtor<std::__ndk1::__variant_detail::__traits<geode::Hook*, std::__ndk1::basic_string<char, std::__ndk1::char_traits<char>, std::__ndk1::allocator<char> > >, (std::__ndk1::__variant_detail::_Trait)1>, std::__ndk1::__variant_detail::__base<(std::__ndk1::__variant_detail::__traits<geode::Hook*, std::__ndk1::basic_string<char, std::__ndk1::char_traits<char>, std::__ndk1::allocator<char> > >)1, geode::Hook, std::__ndk1::allocator<char> >&)
a31c 14 536 3
FUNC a330 84 0 std::__ndk1::__tree<std::__ndk1::__value_type<std::__ndk1::basic_string<char, std::__ndk1::char_traits<char>, std::__ndk1::allocator<char> >, std::__ndk1::shared_ptr<geode::Hook> >, std::__ndk1::__map_value_compare<std::__ndk1::basic_string<char, std::__ndk1::char_traits<char>, std::__ndk1::allocator<char> >, std::__ndk1::__value_type<std::__ndk1::basic_string<char, std::__ndk1::char_traits<char>, std::__ndk1::allocator<char> >, std::__ndk1::shared_ptr<geode::Hook> >, std::__ndk1::less<std::__ndk1::basic_string<char, std::__ndk1::char_traits<char>, std::__ndk1::allocator<char> > >, true>, std::__ndk1::allocator<std::__ndk1::__value_type<std::__ndk1::basic_string<char, std::__ndk1::char_traits<char>, std::__ndk1::allocator<char> >, std::__ndk1::shared_ptr<geode::Hook> > > >::destroy(std::__ndk1::__tree_node<std::__ndk1::__value_type<std::__ndk1::basic_string<char, std::__ndk1::char_traits<char>, std::__ndk1::allocator<char> >, std::__ndk1::shared_ptr<geode::Hook> >, void*>*)
a330 14 1542 4
a344 8 1543 4
a34c 8 1544 4
a354 28 1546 4
a37c 10 1547 4
a38c 4 1549 4
a390 24 1546 4
FUNC a3b4 134 0 geode::Hook::create<void (*)(canvas*)>(void*, void (*)(canvas*), std::__ndk1::basic_string<char, std::__ndk1::char_traits<char>, std::__ndk1::allocator<char> > const&, tulip::hook::TulipConvention, tulip::hook::HookMetadata const&)
a3b4 28 58 16
a3dc 20 60 16
a3fc 30 61 16
a42c 1c 63 16
a448 7c 70 16
a4c4 24 59 16
FUNC a4e8 64 0 geode::modifier::AsStaticFunction_resetLevel<canvas, void (canvas::*)()>::Impl<void (canvas::*)()>::function(canvas*)
a4e8 64 425 8
FUNC a54c 60 0 geode::modifier::AsStaticFunction_startGame<canvas, void (canvas::*)()>::Impl<void (canvas::*)()>::function(canvas*)
a54c 60 530 8
FUNC a5ac 2a4 0 geode::modifier::AsStaticFunction_updateProgressbar<canvas, void (canvas::*)()>::Impl<void (canvas::*)()>::function(canvas*)
a5ac 2a4 620 8
FUNC a850 50 0 std::__ndk1::shared_ptr<tulip::hook::CallingConvention>::~shared_ptr[abi:ne190000]()
a850 c 649 15
a85c 8 650 15
a864 10 651 15
a874 c 652 15
a880 20 651 15
FUNC a8a0 64 0 tulip::hook::HandlerMetadata::~HandlerMetadata()
a8a0 64 12 19
FUNC a904 5dc 0 Catgirl::updateSettings()
a904 24 91 9
a928 68 92 9
a990 68 93 9
a9f8 68 94 9
aa60 2c 96 9
aa8c 8 97 9
aa94 4 96 9
aa98 1c 97 9
aab4 8 98 9
aabc 4 97 9
aac0 18 98 9
aad8 10 100 9
aae8 14 102 9
aafc c 103 9
ab08 4 102 9
ab0c c 103 9
ab18 c 104 9
ab24 4 103 9
ab28 10 104 9
ab38 24 112 9
ab5c 60 92 9
abbc 60 93 9
ac1c 60 94 9
ac7c 48 96 9
acc4 48 97 9
ad0c 48 98 9
ad54 40 102 9
ad94 40 103 9
add4 54 104 9
ae28 10 103 9
ae38 10 102 9
ae48 10 98 9
ae58 10 97 9
ae68 10 96 9
ae78 10 94 9
ae88 10 93 9
ae98 48 92 9
FUNC aee0 468 0 getWorkingMode(std::__ndk1::basic_string<char, std::__ndk1::char_traits<char>, std::__ndk1::allocator<char> > const&)
aee0 2c 59 9
af0c 10 60 9
af1c 134 70 9
b050 3c 71 9
b08c 20 60 9
b0ac 20 61 9
b0cc 4 60 9
b0d0 1c 62 9
b0ec 28 63 9
b114 4 60 9
b118 c 63 9
b124 1c 64 9
b140 4 60 9
b144 20 65 9
b164 4 60 9
b168 18 66 9
b180 1c8 60 9
FUNC b348 80 0 _Z14fastGetSettingITn11TemplateStrXtlS0_ILj17EEtlA18_cLc112ELc114ELc97ELc99ELc116ELc105ELc99ELc101ELc45ELc111ELc118ELc101ELc114ELc114ELc105ELc100ELc101EEEEbET0_v
b348 c 27 9
b354 14 28 9
b368 10 31 9
b378 18 28 9
b390 8 30 9
b398 30 28 9
FUNC b3c8 b8 0 _ZNSt6__ndk14pairIKNS_12basic_stringIcNS_11char_traitsIcEENS_9allocatorIcEEEE11WorkingModeEC2B8ne190000IRA13_KcS8_TnNS_9enable_ifIXclsr10_CheckArgsE23__is_pair_constructibleIT_T0_EEEiE4typeELi0EEEOSF_OSG_
b3c8 9c 173 21
b464 14 174 21
b478 8 173 21
FUNC b480 b8 0 _ZNSt6__ndk14pairIKNS_12basic_stringIcNS_11char_traitsIcEENS_9allocatorIcEEEE11WorkingModeEC2B8ne190000IRA7_KcS8_TnNS_9enable_ifIXclsr10_CheckArgsE23__is_pair_constructibleIT_T0_EEEiE4typeELi0EEEOSF_OSG_
b480 9c 173 21
b51c 14 174 21
b530 8 173 21
FUNC b538 5a4 0 std::__ndk1::unordered_map<std::__ndk1::basic_string<char, std::__ndk1::char_traits<char>, std::__ndk1::allocator<char> >, WorkingMode, std::__ndk1::hash<std::__ndk1::basic_string<char, std::__ndk1::char_traits<char>, std::__ndk1::allocator<char> > >, std::__ndk1::equal_to<std::__ndk1::basic_string<char, std::__ndk1::char_traits<char>, std::__ndk1::allocator<char> > >, std::__ndk1::allocator<std::__ndk1::pair<std::__ndk1::basic_string<char, std::__ndk1::char_traits<char>, std::__ndk1::allocator<char> > const, WorkingMode> > >::unordered_map(std::initializer_list<std::__ndk1::pair<std::__ndk1::basic_string<char, std::__ndk1::char_traits<char>, std::__ndk1::allocator<char> > const, WorkingMode> >)
b538 48 1687 22
b580 4d4 1688 22
ba54 34 1689 22
ba88 34 1688 22
babc 20 1689 22
FUNC badc 70 0 std::__ndk1::unordered_map<std::__ndk1::basic_string<char, std::__ndk1::char_traits<char>, std::__ndk1::allocator<char> >, WorkingMode, std::__ndk1::hash<std::__ndk1::basic_string<char, std::__ndk1::char_traits<char>, std::__ndk1::allocator<char> > >, std::__ndk1::equal_to<std::__ndk1::basic_string<char, std::__ndk1::char_traits<char>, std::__ndk1::allocator<char> > >, std::__ndk1::allocator<std::__ndk1::pair<std::__ndk1::basic_string<char, std::__ndk1::char_traits<char>, std::__ndk1::allocator<char> > const, WorkingMode> > >::~unordered_map[abi:ne190000]()
badc 10 1181 22
baec 60 1183 22
FUNC bb4c 68 0 std::__ndk1::__hash_table<std::__ndk1::__hash_value_type<std::__ndk1::basic_string<char, std::__ndk1::char_traits<char>, std::__ndk1::allocator<char> >, WorkingMode>, std::__ndk1::__unordered_map_hasher<std::__ndk1::basic_string<char, std::__ndk1::char_traits<char>, std::__ndk1::allocator<char> >, std::__ndk1::__hash_value_type<std::__ndk1::basic_string<char, std::__ndk1::char_traits<char>, std::__ndk1::allocator<char> >, WorkingMode>, std::__ndk1::hash<std::__ndk1::basic_string<char, std::__ndk1::char_traits<char>, std::__ndk1::allocator<char> > >, std::__ndk1::equal_to<std::__ndk1::basic_string<char, std::__ndk1::char_traits<char>, std::__ndk1::allocator<char> > >, true>, std::__ndk1::__unordered_map_equal<std::__ndk1::basic_string<char, std::__ndk1::char_traits<char>, std::__ndk1::allocator<char> >, std::__ndk1::__hash_value_type<std::__ndk1::basic_string<char, std::__ndk1::char_traits<char>, std::__ndk1::allocator<char> >, WorkingMode>, std::__ndk1::equal_to<std::__ndk1::basic_string<char, std::__ndk1::char_traits<char>, std::__ndk1::allocator<char> > >, std::__ndk1::hash<std::__ndk1::basic_string<char, std::__ndk1::char_traits<char>, std::__ndk1::allocator<char> > >, true>, std::__ndk1::allocator<std::__ndk1::__hash_value_type<std::__ndk1::basic_string<char, std::__ndk1::char_traits<char>, std::__ndk1::allocator<char> >, WorkingMode> > >::~__hash_table()
bb4c c 1105 24
bb58 c 1111 24
bb64 1c 1112 24
bb80 28 1111 24
bba8 c 1112 24
FUNC bbb4 50 0 std::__ndk1::unique_ptr<std::__ndk1::__hash_node<std::__ndk1::__hash_value_type<std::__ndk1::basic_string<char, std::__ndk1::char_traits<char>, std::__ndk1::allocator<char> >, WorkingMode>, void*>, std::__ndk1::__hash_node_destructor<std::__ndk1::allocator<std::__ndk1::__hash_node<std::__ndk1::__hash_value_type<std::__ndk1::basic_string<char, std::__ndk1::char_traits<char>, std::__ndk1::allocator<char> >, WorkingMode>, void*> > > >::~unique_ptr[abi:ne190000]()
bbb4 50 249 23
FUNC bc04 444 0 std::__ndk1::__murmur2_or_cityhash<unsigned long, (unsigned long)64>::operator()[abi:ne190000](void const*, unsigned long) const
bc04 8 91 20
bc0c 8 92 20
bc14 4c 93 20
bc60 4 127 20
bc64 4 103 20
bc68 8 97 20
bc70 b8 98 20
bd28 a4 95 20
bdcc 4 127 20
bdd0 14 106 20
bde4 4 107 20
bde8 4 103 20
bdec c 106 20
bdf8 4 104 20
bdfc 8 106 20
be04 c 107 20
be10 c 108 20
be1c 8 106 20
be24 4 109 20
be28 c 106 20
be34 4 104 20
be38 4 107 20
be3c 4 108 20
be40 4 107 20
be44 4 108 20
be48 4 109 20
be4c 8 107 20
be54 4 108 20
be58 4 107 20
be5c 8 108 20
be64 4 107 20
be68 4 112 20
be6c 4 107 20
be70 4 108 20
be74 4 113 20
be78 4 107 20
be7c 4 108 20
be80 4 107 20
be84 8 108 20
be8c 4 113 20
be90 8 114 20
be98 4 118 20
be9c 4 114 20
bea0 4 119 20
bea4 4 118 20
bea8 4 115 20
beac 4 124 20
beb0 4 114 20
beb4 4 117 20
beb8 4 114 20
bebc 4 118 20
bec0 4 115 20
bec4 4 117 20
bec8 4 114 20
becc 4 119 20
bed0 4 115 20
bed4 8 120 20
bedc 4 115 20
bee0 4 120 20
bee4 4 117 20
bee8 4 119 20
beec 4 124 20
bef0 4 119 20
bef4 4 120 20
bef8 10 119 20
bf08 4 116 20
bf0c 8 120 20
bf14 4 119 20
bf18 8 120 20
bf20 8 119 20
bf28 c 120 20
bf34 8 119 20
bf3c 4 120 20
bf40 4 124 20
bf44 4 125 20
bf48 4 126 20
bf4c 8 125 20
bf54 4 126 20
bf58 8 125 20
bf60 4 126 20
bf64 8 125 20
bf6c 8 126 20
bf74 4 125 20
bf78 4 126 20
bf7c 4 125 20
bf80 4 126 20
bf84 1c 125 20
bfa0 4 127 20
bfa4 98 93 20
c03c c 127 20
FUNC c048 180 0 geode::Mod::getSettingValue<std::__ndk1::basic_string<char, std::__ndk1::char_traits<char>, std::__ndk1::allocator<char> > >(std::__ndk1::basic_string_view<char, std::__ndk1::char_traits<char> >) const
c048 24 238 17
c06c 78 240 17
c0e4 30 241 17
c114 1c 240 17
c130 8 243 17
c138 24 244 17
c15c 6c 240 17
FUNC c1c8 1b4 0 _ZN5geode25listenForSettingChangesV3INSt6__ndk112basic_stringIcNS1_11char_traitsIcEENS1_9allocatorIcEEEEZ14fastGetSettingITn11TemplateStrXtlS9_ILj19EEtlA20_cLc110ELc111ELc114ELc109ELc97ELc108ELc45ELc119ELc111ELc114ELc107ELc105ELc110ELc103ELc45ELc109ELc111ELc100ELc101EEEES7_ET0_vEUlS7_E_EEPNS_13EventListenerINS_22SettingChangedFilterV3EEENS1_17basic_string_viewIcS4_EEOSC_PNS_3ModE
c1c8 1c 735 0
c1e4 10 737 0
c1f4 8 738 0
c1fc 4 737 0
c200 10 738 0
c210 14 743 0
c224 4 738 0
c228 28 743 0
c250 12c 737 0
FUNC c37c e8 0 geode::EventListener<geode::SettingChangedFilterV3>::EventListener(std::__ndk1::function<void (std::__ndk1::shared_ptr<geode::SettingV3>)>, geode::SettingChangedFilterV3)
c37c 14 158 25
c390 8 157 25
c398 8 158 25
c3a0 4 157 25
c3a4 4 156 25
c3a8 44 157 25
c3ec 4 159 25
c3f0 8 160 25
c3f8 1c 161 25
c414 4 157 25
c418 4c 161 25
FUNC c464 50 0 geode::SettingChangedFilterV3::~SettingChangedFilterV3()
c464 50 651 0
FUNC c4b4 4 0 _ZNSt6__ndk110__function6__funcIZN5geode25listenForSettingChangesV3INS_12basic_stringIcNS_11char_traitsIcEENS_9allocatorIcEEEEZ14fastGetSettingITn11TemplateStrXtlSB_ILj19EEtlA20_cLc110ELc111ELc114ELc109ELc97ELc108ELc45ELc119ELc111ELc114ELc107ELc105ELc110ELc103ELc45ELc109ELc111ELc100ELc101EEEES9_ET0_vEUlS9_E_EEPNS2_13EventListenerINS2_22SettingChangedFilterV3EEENS_17basic_string_viewIcS6_EEOSE_PNS2_3ModEEUlNS_10shared_ptrINS2_9SettingV3EEEE_NS7_ISS_EEFvSR_EED0Ev
c4b4 4 253 26
FUNC c4b8 38 0 _ZNKSt6__ndk110__function6__funcIZN5geode25listenForSettingChangesV3INS_12basic_stringIcNS_11char_traitsIcEENS_9allocatorIcEEEEZ14fastGetSettingITn11TemplateStrXtlSB_ILj19EEtlA20_cLc110ELc111ELc114ELc109ELc97ELc108ELc45ELc119ELc111ELc114ELc107ELc105ELc110ELc103ELc45ELc109ELc111ELc100ELc101EEEES9_ET0_vEUlS9_E_EEPNS2_13EventListenerINS2_22SettingChangedFilterV3EEENS_17basic_string_viewIcS6_EEOSE_PNS2_3ModEEUlNS_10shared_ptrINS2_9SettingV3EEEE_NS7_ISS_EEFvSR_EE7__cloneEv
c4b8 10 280 26
c4c8 8 285 26
c4d0 14 286 26
c4e4 c 288 26
FUNC c4f0 18 0 _ZNKSt6__ndk110__function6__funcIZN5geode25listenForSettingChangesV3INS_12basic_stringIcNS_11char_traitsIcEENS_9allocatorIcEEEEZ14fastGetSettingITn11TemplateStrXtlSB_ILj19EEtlA20_cLc110ELc111ELc114ELc109ELc97ELc108ELc45ELc119ELc111ELc114ELc107ELc105ELc110ELc103ELc45ELc109ELc111ELc100ELc101EEEES9_ET0_vEUlS9_E_EEPNS2_13EventListenerINS2_22SettingChangedFilterV3EEENS_17basic_string_viewIcS6_EEOSE_PNS2_3ModEEUlNS_10shared_ptrINS2_9SettingV3EEEE_NS7_ISS_EEFvSR_EE7__cloneEPNS0_6__baseISU_EE
c4f0 14 292 26
c504 4 293 26
FUNC c508 4 0 _ZNSt6__ndk110__function6__funcIZN5geode25listenForSettingChangesV3INS_12basic_stringIcNS_11char_traitsIcEENS_9allocatorIcEEEEZ14fastGetSettingITn11TemplateStrXtlSB_ILj19EEtlA20_cLc110ELc111ELc114ELc109ELc97ELc108ELc45ELc119ELc111ELc114ELc107ELc105ELc110ELc103ELc45ELc109ELc111ELc100ELc101EEEES9_ET0_vEUlS9_E_EEPNS2_13EventListenerINS2_22SettingChangedFilterV3EEENS_17basic_string_viewIcS6_EEOSE_PNS2_3ModEEUlNS_10shared_ptrINS2_9SettingV3EEEE_NS7_ISS_EEFvSR_EE7destroyEv
c508 4 298 26
FUNC c50c 4 0 _ZNSt6__ndk110__function6__funcIZN5geode25listenForSettingChangesV3INS_12basic_stringIcNS_11char_traitsIcEENS_9allocatorIcEEEEZ14fastGetSettingITn11TemplateStrXtlSB_ILj19EEtlA20_cLc110ELc111ELc114ELc109ELc97ELc108ELc45ELc119ELc111ELc114ELc107ELc105ELc110ELc103ELc45ELc109ELc111ELc100ELc101EEEES9_ET0_vEUlS9_E_EEPNS2_13EventListenerINS2_22SettingChangedFilterV3EEENS_17basic_string_viewIcS6_EEOSE_PNS2_3ModEEUlNS_10shared_ptrINS2_9SettingV3EEEE_NS7_ISS_EEFvSR_EE18destroy_deallocateEv
c50c 4 306 26
FUNC c510 1f4 0 _ZNSt6__ndk110__function6__funcIZN5geode25listenForSettingChangesV3INS_12basic_stringIcNS_11char_traitsIcEENS_9allocatorIcEEEEZ14fastGetSettingITn11TemplateStrXtlSB_ILj19EEtlA20_cLc110ELc111ELc114ELc109ELc97ELc108ELc45ELc119ELc111ELc114ELc107ELc105ELc110ELc103ELc45ELc109ELc111ELc100ELc101EEEES9_ET0_vEUlS9_E_EEPNS2_13EventListenerINS2_22SettingChangedFilterV3EEENS_17basic_string_viewIcS6_EEOSE_PNS2_3ModEEUlNS_10shared_ptrINS2_9SettingV3EEEE_NS7_ISS_EEFvSR_EEclEOSR_
c510 20 310 26
c530 1d4 311 26
FUNC c704 1c 0 _ZNKSt6__ndk110__function6__funcIZN5geode25listenForSettingChangesV3INS_12basic_stringIcNS_11char_traitsIcEENS_9allocatorIcEEEEZ14fastGetSettingITn11TemplateStrXtlSB_ILj19EEtlA20_cLc110ELc111ELc114ELc109ELc97ELc108ELc45ELc119ELc111ELc114ELc107ELc105ELc110ELc103ELc45ELc109ELc111ELc100ELc101EEEES9_ET0_vEUlS9_E_EEPNS2_13EventListenerINS2_22SettingChangedFilterV3EEENS_17basic_string_viewIcS6_EEOSE_PNS2_3ModEEUlNS_10shared_ptrINS2_9SettingV3EEEE_NS7_ISS_EEFvSR_EE6targetERKSt9type_info
c704 18 318 26
c71c 4 321 26
FUNC c720 c 0 _ZNKSt6__ndk110__function6__funcIZN5geode25listenForSettingChangesV3INS_12basic_stringIcNS_11char_traitsIcEENS_9allocatorIcEEEEZ14fastGetSettingITn11TemplateStrXtlSB_ILj19EEtlA20_cLc110ELc111ELc114ELc109ELc97ELc108ELc45ELc119ELc111ELc114ELc107ELc105ELc110ELc103ELc45ELc109ELc111ELc100ELc101EEEES9_ET0_vEUlS9_E_EEPNS2_13EventListenerINS2_22SettingChangedFilterV3EEENS_17basic_string_viewIcS6_EEOSE_PNS2_3ModEEUlNS_10shared_ptrINS2_9SettingV3EEEE_NS7_ISS_EEFvSR_EE11target_typeEv
c720 c 325 26
FUNC c72c 50 0 std::__ndk1::shared_ptr<geode::SettingV3>::~shared_ptr[abi:ne190000]()
c72c c 649 15
c738 8 650 15
c740 10 651 15
c750 c 652 15
c75c 20 651 15
FUNC c77c 50 0 std::__ndk1::shared_ptr<geode::StringSettingV3>::~shared_ptr[abi:ne190000]()
c77c c 649 15
c788 8 650 15
c790 10 651 15
c7a0 c 652 15
c7ac 20 651 15
FUNC c7cc d8 0 geode::cast::traverseTypeinfoFor(void*, geode::cast::ClassTypeinfoType const*, char const*)
c7cc 14 57 1
c7e0 c 59 1
c7ec 1c 60 1
c808 4 64 1
c80c 4 65 1
c810 8 64 1
c818 c 65 1
c824 4 67 1
c828 4 60 1
c82c 4 59 1
c830 c 60 1
c83c 18 69 1
c854 18 80 1
c86c c 71 1
c878 4 73 1
c87c 4 74 1
c880 4 73 1
c884 8 74 1
c88c 18 71 1
FUNC c8a4 ac 0 std::__ndk1::basic_string<char, std::__ndk1::char_traits<char>, std::__ndk1::allocator<char> >::__assign_no_alias<true>(char const*, unsigned long)
c8a4 18 2462 11
c8bc c 2464 11
c8c8 c 2469 11
c8d4 14 2470 11
c8e8 44 2476 11
c92c 1c 2478 11
c948 8 2476 11
FUNC c950 11c 0 std::__ndk1::basic_string<char, std::__ndk1::char_traits<char>, std::__ndk1::allocator<char> >::__assign_no_alias<false>(char const*, unsigned long)
c950 14 2462 11
c964 10 2463 11
c974 8 2464 11
c97c 4 2468 11
c980 4 2469 11
c984 14 2470 11
c998 b0 2476 11
ca48 1c 2478 11
ca64 8 2476 11
FUNC ca6c 4 0 geode::EventListener<geode::SettingChangedFilterV3>::getPool() const
ca6c 4 148 25
FUNC ca70 164 0 geode::EventListener<geode::SettingChangedFilterV3>::handle(geode::Event*)
ca70 28 138 25
ca98 c 139 25
caa4 34 140 25
cad8 88 141 25
cb60 24 145 25
cb84 50 141 25
FUNC cbd4 8c 0 geode::EventListener<geode::SettingChangedFilterV3>::~EventListener()
cbd4 8c 131 25
FUNC cc60 94 0 geode::EventListener<geode::SettingChangedFilterV3>::~EventListener()
cc60 94 131 25
FUNC ccf4 1b8 0 _ZN5geode25listenForSettingChangesV3INSt6__ndk112basic_stringIcNS1_11char_traitsIcEENS1_9allocatorIcEEEEZ14fastGetSettingITn11TemplateStrXtlS9_ILj21EEtlA22_cLc112ELc114ELc97ELc99ELc116ELc105ELc99ELc101ELc45ELc119ELc111ELc114ELc107ELc105ELc110ELc103ELc45ELc109ELc111ELc100ELc101EEEES7_ET0_vEUlS7_E_EEPNS_13EventListenerINS_22SettingChangedFilterV3EEENS1_17basic_string_viewIcS4_EEOSC_PNS_3ModE
ccf4 1c 735 0
cd10 10 737 0
cd20 8 738 0
cd28 4 737 0
cd2c 10 738 0
cd3c 14 743 0
cd50 4 738 0
cd54 2c 743 0
cd80 12c 737 0
FUNC ceac 4 0 _ZNSt6__ndk110__function6__funcIZN5geode25listenForSettingChangesV3INS_12basic_stringIcNS_11char_traitsIcEENS_9allocatorIcEEEEZ14fastGetSettingITn11TemplateStrXtlSB_ILj21EEtlA22_cLc112ELc114ELc97ELc99ELc116ELc105ELc99ELc101ELc45ELc119ELc111ELc114ELc107ELc105ELc110ELc103ELc45ELc109ELc111ELc100ELc101EEEES9_ET0_vEUlS9_E_EEPNS2_13EventListenerINS2_22SettingChangedFilterV3EEENS_17basic_string_viewIcS6_EEOSE_PNS2_3ModEEUlNS_10shared_ptrINS2_9SettingV3EEEE_NS7_ISS_EEFvSR_EED0Ev
ceac 4 253 26
FUNC ceb0 38 0 _ZNKSt6__ndk110__function6__funcIZN5geode25listenForSettingChangesV3INS_12basic_stringIcNS_11char_traitsIcEENS_9allocatorIcEEEEZ14fastGetSettingITn11TemplateStrXtlSB_ILj21EEtlA22_cLc112ELc114ELc97ELc99ELc116ELc105ELc99ELc101ELc45ELc119ELc111ELc114ELc107ELc105ELc110ELc103ELc45ELc109ELc111ELc100ELc101EEEES9_ET0_vEUlS9_E_EEPNS2_13EventListenerINS2_22SettingChangedFilterV3EEENS_17basic_string_viewIcS6_EEOSE_PNS2_3ModEEUlNS_10shared_ptrINS2_9SettingV3EEEE_NS7_ISS_EEFvSR_EE7__cloneEv
ceb0 10 280 26
cec0 8 285 26
cec8 14 286 26
cedc c 288 26
FUNC cee8 18 0 _ZNKSt6__ndk110__function6__funcIZN5geode25listenForSettingChangesV3INS_12basic_stringIcNS_11char_traitsIcEENS_9allocatorIcEEEEZ14fastGetSettingITn11TemplateStrXtlSB_ILj21EEtlA22_cLc112ELc114ELc97ELc99ELc116ELc105ELc99ELc101ELc45ELc119ELc111ELc114ELc107ELc105ELc110ELc103ELc45ELc109ELc111ELc100ELc101EEEES9_ET0_vEUlS9_E_EEPNS2_13EventListenerINS2_22SettingChangedFilterV3EEENS_17basic_string_viewIcS6_EEOSE_PNS2_3ModEEUlNS_10shared_ptrINS2_9SettingV3EEEE_NS7_ISS_EEFvSR_EE7__cloneEPNS0_6__baseISU_EE
cee8 14 292 26
cefc 4 293 26
FUNC cf00 4 0 _ZNSt6__ndk110__function6__funcIZN5geode25listenForSettingChangesV3INS_12basic_stringIcNS_11char_traitsIcEENS_9allocatorIcEEEEZ14fastGetSettingITn11TemplateStrXtlSB_ILj21EEtlA22_cLc112ELc114ELc97ELc99ELc116ELc105ELc99ELc101ELc45ELc119ELc111ELc114ELc107ELc105ELc110ELc103ELc45ELc109ELc111ELc100ELc101EEEES9_ET0_vEUlS9_E_EEPNS2_13EventListenerINS2_22SettingChangedFilterV3EEENS_17basic_string_viewIcS6_EEOSE_PNS2_3ModEEUlNS_10shared_ptrINS2_9SettingV3EEEE_NS7_ISS_EEFvSR_EE7destroyEv
cf00 4 298 26
FUNC cf04 4 0 _ZNSt6__ndk110__function6__funcIZN5geode25listenForSettingChangesV3INS_12basic_stringIcNS_11char_traitsIcEENS_9allocatorIcEEEEZ14fastGetSettingITn11TemplateStrXtlSB_ILj21EEtlA22_cLc112ELc114ELc97ELc99ELc116ELc105ELc99ELc101ELc45ELc119ELc111ELc114ELc107ELc105ELc110ELc103ELc45ELc109ELc111ELc100ELc101EEEES9_ET0_vEUlS9_E_EEPNS2_13EventListenerINS2_22SettingChangedFilterV3EEENS_17basic_string_viewIcS6_EEOSE_PNS2_3ModEEUlNS_10shared_ptrINS2_9SettingV3EEEE_NS7_ISS_EEFvSR_EE18destroy_deallocateEv
cf04 4 306 26
FUNC cf08 1f4 0 _ZNSt6__ndk110__function6__funcIZN5geode25listenForSettingChangesV3INS_12basic_stringIcNS_11char_traitsIcEENS_9allocatorIcEEEEZ14fastGetSettingITn11TemplateStrXtlSB_ILj21EEtlA22_cLc112ELc114ELc97ELc99ELc116ELc105ELc99ELc101ELc45ELc119ELc111ELc114ELc107ELc105ELc110ELc103ELc45ELc109ELc111ELc100ELc101EEEES9_ET0_vEUlS9_E_EEPNS2_13EventListenerINS2_22SettingChangedFilterV3EEENS_17basic_string_viewIcS6_EEOSE_PNS2_3ModEEUlNS_10shared_ptrINS2_9SettingV3EEEE_NS7_ISS_EEFvSR_EEclEOSR_
cf08 20 310 26
cf28 1d4 311 26
FUNC d0fc 1c 0 _ZNKSt6__ndk110__function6__funcIZN5geode25listenForSettingChangesV3INS_12basic_stringIcNS_11char_traitsIcEENS_9allocatorIcEEEEZ14fastGetSettingITn11TemplateStrXtlSB_ILj21EEtlA22_cLc112ELc114ELc97ELc99ELc116ELc105ELc99ELc101ELc45ELc119ELc111ELc114ELc107ELc105ELc110ELc103ELc45ELc109ELc111ELc100ELc101EEEES9_ET0_vEUlS9_E_EEPNS2_13EventListenerINS2_22SettingChangedFilterV3EEENS_17basic_string_viewIcS6_EEOSE_PNS2_3ModEEUlNS_10shared_ptrINS2_9SettingV3EEEE_NS7_ISS_EEFvSR_EE6targetERKSt9type_info
d0fc 18 318 26
d114 4 321 26
FUNC d118 c 0 _ZNKSt6__ndk110__function6__funcIZN5geode25listenForSettingChangesV3INS_12basic_stringIcNS_11char_traitsIcEENS_9allocatorIcEEEEZ14fastGetSettingITn11TemplateStrXtlSB_ILj21EEtlA22_cLc112ELc114ELc97ELc99ELc116ELc105ELc99ELc101ELc45ELc119ELc111ELc114ELc107ELc105ELc110ELc103ELc45ELc109ELc111ELc100ELc101EEEES9_ET0_vEUlS9_E_EEPNS2_13EventListenerINS2_22SettingChangedFilterV3EEENS_17basic_string_viewIcS6_EEOSE_PNS2_3ModEEUlNS_10shared_ptrINS2_9SettingV3EEEE_NS7_ISS_EEFvSR_EE11target_typeEv
d118 c 325 26
FUNC d124 1b0 0 _ZN5geode25listenForSettingChangesV3INSt6__ndk112basic_stringIcNS1_11char_traitsIcEENS1_9allocatorIcEEEEZ14fastGetSettingITn11TemplateStrXtlS9_ILj17EEtlA18_cLc101ELc110ELc98ELc121ELc45ELc119ELc111ELc114ELc107ELc105ELc110ELc103ELc45ELc109ELc111ELc100ELc101EEEES7_ET0_vEUlS7_E_EEPNS_13EventListenerINS_22SettingChangedFilterV3EEENS1_17basic_string_viewIcS4_EEOSC_PNS_3ModE
d124 1c 735 0
d140 10 737 0
d150 8 738 0
d158 4 737 0
d15c 10 738 0
d16c 14 743 0
d180 4 738 0
d184 24 743 0
d1a8 12c 737 0
FUNC d2d4 4 0 _ZNSt6__ndk110__function6__funcIZN5geode25listenForSettingChangesV3INS_12basic_stringIcNS_11char_traitsIcEENS_9allocatorIcEEEEZ14fastGetSettingITn11TemplateStrXtlSB_ILj17EEtlA18_cLc101ELc110ELc98ELc121ELc45ELc119ELc111ELc114ELc107ELc105ELc110ELc103ELc45ELc109ELc111ELc100ELc101EEEES9_ET0_vEUlS9_E_EEPNS2_13EventListenerINS2_22SettingChangedFilterV3EEENS_17basic_string_viewIcS6_EEOSE_PNS2_3ModEEUlNS_10shared_ptrINS2_9SettingV3EEEE_NS7_ISS_EEFvSR_EED0Ev
d2d4 4 253 26
FUNC d2d8 38 0 _ZNKSt6__ndk110__function6__funcIZN5geode25listenForSettingChangesV3INS_12basic_stringIcNS_11char_traitsIcEENS_9allocatorIcEEEEZ14fastGetSettingITn11TemplateStrXtlSB_ILj17EEtlA18_cLc101ELc110ELc98ELc121ELc45ELc119ELc111ELc114ELc107ELc105ELc110ELc103ELc45ELc109ELc111ELc100ELc101EEEES9_ET0_vEUlS9_E_EEPNS2_13EventListenerINS2_22SettingChangedFilterV3EEENS_17basic_string_viewIcS6_EEOSE_PNS2_3ModEEUlNS_10shared_ptrINS2_9SettingV3EEEE_NS7_ISS_EEFvSR_EE7__cloneEv
d2d8 10 280 26
d2e8 8 285 26
d2f0 14 286 26
d304 c 288 26
FUNC d310 18 0 _ZNKSt6__ndk110__function6__funcIZN5geode25listenForSettingChangesV3INS_12basic_stringIcNS_11char_traitsIcEENS_9allocatorIcEEEEZ14fastGetSettingITn11TemplateStrXtlSB_ILj17EEtlA18_cLc101ELc110ELc98ELc121ELc45ELc119ELc111ELc114ELc107ELc105ELc110ELc103ELc45ELc109ELc111ELc100ELc101EEEES9_ET0_vEUlS9_E_EEPNS2_13EventListenerINS2_22SettingChangedFilterV3EEENS_17basic_string_viewIcS6_EEOSE_PNS2_3ModEEUlNS_10shared_ptrINS2_9SettingV3EEEE_NS7_ISS_EEFvSR_EE7__cloneEPNS0_6__baseISU_EE
d310 14 292 26
d324 4 293 26
FUNC d328 4 0 _ZNSt6__ndk110__function6__funcIZN5geode25listenForSettingChangesV3INS_12basic_stringIcNS_11char_traitsIcEENS_9allocatorIcEEEEZ14fastGetSettingITn11TemplateStrXtlSB_ILj17EEtlA18_cLc101ELc110ELc98ELc121ELc45ELc119ELc111ELc114ELc107ELc105ELc110ELc103ELc45ELc109ELc111ELc100ELc101EEEES9_ET0_vEUlS9_E_EEPNS2_13EventListenerINS2_22SettingChangedFilterV3EEENS_17basic_string_viewIcS6_EEOSE_PNS2_3ModEEUlNS_10shared_ptrINS2_9SettingV3EEEE_NS7_ISS_EEFvSR_EE7destroyEv
d328 4 298 26
FUNC d32c 4 0 _ZNSt6__ndk110__function6__funcIZN5geode25listenForSettingChangesV3INS_12basic_stringIcNS_11char_traitsIcEENS_9allocatorIcEEEEZ14fastGetSettingITn11TemplateStrXtlSB_ILj17EEtlA18_cLc101ELc110ELc98ELc121ELc45ELc119ELc111ELc114ELc107ELc105ELc110ELc103ELc45ELc109ELc111ELc100ELc101EEEES9_ET0_vEUlS9_E_EEPNS2_13EventListenerINS2_22SettingChangedFilterV3EEENS_17basic_string_viewIcS6_EEOSE_PNS2_3ModEEUlNS_10shared_ptrINS2_9SettingV3EEEE_NS7_ISS_EEFvSR_EE18destroy_deallocateEv
d32c 4 306 26
FUNC d330 1f4 0 _ZNSt6__ndk110__function6__funcIZN5geode25listenForSettingChangesV3INS_12basic_stringIcNS_11char_traitsIcEENS_9allocatorIcEEEEZ14fastGetSettingITn11TemplateStrXtlSB_ILj17EEtlA18_cLc101ELc110ELc98ELc121ELc45ELc119ELc111ELc114ELc107ELc105ELc110ELc103ELc45ELc109ELc111ELc100ELc101EEEES9_ET0_vEUlS9_E_EEPNS2_13EventListenerINS2_22SettingChangedFilterV3EEENS_17basic_string_viewIcS6_EEOSE_PNS2_3ModEEUlNS_10shared_ptrINS2_9SettingV3EEEE_NS7_ISS_EEFvSR_EEclEOSR_
d330 20 310 26
d350 1d4 311 26
FUNC d524 1c 0 _ZNKSt6__ndk110__function6__funcIZN5geode25listenForSettingChangesV3INS_12basic_stringIcNS_11char_traitsIcEENS_9allocatorIcEEEEZ14fastGetSettingITn11TemplateStrXtlSB_ILj17EEtlA18_cLc101ELc110ELc98ELc121ELc45ELc119ELc111ELc114ELc107ELc105ELc110ELc103ELc45ELc109ELc111ELc100ELc101EEEES9_ET0_vEUlS9_E_EEPNS2_13EventListenerINS2_22SettingChangedFilterV3EEENS_17basic_string_viewIcS6_EEOSE_PNS2_3ModEEUlNS_10shared_ptrINS2_9SettingV3EEEE_NS7_ISS_EEFvSR_EE6targetERKSt9type_info
d524 18 318 26
d53c 4 321 26
FUNC d540 c 0 _ZNKSt6__ndk110__function6__funcIZN5geode25listenForSettingChangesV3INS_12basic_stringIcNS_11char_traitsIcEENS_9allocatorIcEEEEZ14fastGetSettingITn11TemplateStrXtlSB_ILj17EEtlA18_cLc101ELc110ELc98ELc121ELc45ELc119ELc111ELc114ELc107ELc105ELc110ELc103ELc45ELc109ELc111ELc100ELc101EEEES9_ET0_vEUlS9_E_EEPNS2_13EventListenerINS2_22SettingChangedFilterV3EEENS_17basic_string_viewIcS6_EEOSE_PNS2_3ModEEUlNS_10shared_ptrINS2_9SettingV3EEEE_NS7_ISS_EEFvSR_EE11target_typeEv
d540 c 325 26
FUNC d54c 11c 0 geode::Mod::getSettingValue<cocos2d::_ccColor3B>(std::__ndk1::basic_string_view<char, std::__ndk1::char_traits<char> >) const
d54c 20 238 17
d56c 94 240 17
d600 10 241 17
d610 2c 240 17
d63c 2c 244 17
FUNC d668 1b4 0 _ZN5geode25listenForSettingChangesV3IN7cocos2d10_ccColor3BEZ14fastGetSettingITn11TemplateStrXtlS4_ILj19EEtlA20_cLc110ELc111ELc114ELc109ELc97ELc108ELc45ELc99ELc117ELc115ELc116ELc111ELc109ELc45ELc99ELc111ELc108ELc111ELc114EEEES2_ET0_vEUlS2_E_EEPNS_13EventListenerINS_22SettingChangedFilterV3EEENSt6__ndk117basic_string_viewIcNSD_11char_traitsIcEEEEOS7_PNS_3ModE
d668 1c 735 0
d684 10 737 0
d694 8 738 0
d69c 4 737 0
d6a0 10 738 0
d6b0 14 743 0
d6c4 4 738 0
d6c8 28 743 0
d6f0 12c 737 0
FUNC d81c 4 0 _ZNSt6__ndk110__function6__funcIZN5geode25listenForSettingChangesV3IN7cocos2d10_ccColor3BEZ14fastGetSettingITn11TemplateStrXtlS7_ILj19EEtlA20_cLc110ELc111ELc114ELc109ELc97ELc108ELc45ELc99ELc117ELc115ELc116ELc111ELc109ELc45ELc99ELc111ELc108ELc111ELc114EEEES5_ET0_vEUlS5_E_EEPNS2_13EventListenerINS2_22SettingChangedFilterV3EEENS_17basic_string_viewIcNS_11char_traitsIcEEEEOSA_PNS2_3ModEEUlNS_10shared_ptrINS2_9SettingV3EEEE_NS_9allocatorISQ_EEFvSP_EED0Ev
d81c 4 253 26
FUNC d820 38 0 _ZNKSt6__ndk110__function6__funcIZN5geode25listenForSettingChangesV3IN7cocos2d10_ccColor3BEZ14fastGetSettingITn11TemplateStrXtlS7_ILj19EEtlA20_cLc110ELc111ELc114ELc109ELc97ELc108ELc45ELc99ELc117ELc115ELc116ELc111ELc109ELc45ELc99ELc111ELc108ELc111ELc114EEEES5_ET0_vEUlS5_E_EEPNS2_13EventListenerINS2_22SettingChangedFilterV3EEENS_17basic_string_viewIcNS_11char_traitsIcEEEEOSA_PNS2_3ModEEUlNS_10shared_ptrINS2_9SettingV3EEEE_NS_9allocatorISQ_EEFvSP_EE7__cloneEv
d820 10 280 26
d830 8 285 26
d838 14 286 26
d84c c 288 26
FUNC d858 18 0 _ZNKSt6__ndk110__function6__funcIZN5geode25listenForSettingChangesV3IN7cocos2d10_ccColor3BEZ14fastGetSettingITn11TemplateStrXtlS7_ILj19EEtlA20_cLc110ELc111ELc114ELc109ELc97ELc108ELc45ELc99ELc117ELc115ELc116ELc111ELc109ELc45ELc99ELc111ELc108ELc111ELc114EEEES5_ET0_vEUlS5_E_EEPNS2_13EventListenerINS2_22SettingChangedFilterV3EEENS_17basic_string_viewIcNS_11char_traitsIcEEEEOSA_PNS2_3ModEEUlNS_10shared_ptrINS2_9SettingV3EEEE_NS_9allocatorISQ_EEFvSP_EE7__cloneEPNS0_6__baseIST_EE
d858 14 292 26
d86c 4 293 26
FUNC d870 4 0 _ZNSt6__ndk110__function6__funcIZN5geode25listenForSettingChangesV3IN7cocos2d10_ccColor3BEZ14fastGetSettingITn11TemplateStrXtlS7_ILj19EEtlA20_cLc110ELc111ELc114ELc109ELc97ELc108ELc45ELc99ELc117ELc115ELc116ELc111ELc109ELc45ELc99ELc111ELc108ELc111ELc114EEEES5_ET0_vEUlS5_E_EEPNS2_13EventListenerINS2_22SettingChangedFilterV3EEENS_17basic_string_viewIcNS_11char_traitsIcEEEEOSA_PNS2_3ModEEUlNS_10shared_ptrINS2_9SettingV3EEEE_NS_9allocatorISQ_EEFvSP_EE7destroyEv
d870 4 298 26
FUNC d874 4 0 _ZNSt6__ndk110__function6__funcIZN5geode25listenForSettingChangesV3IN7cocos2d10_ccColor3BEZ14fastGetSettingITn11TemplateStrXtlS7_ILj19EEtlA20_cLc110ELc111ELc114ELc109ELc97ELc108ELc45ELc99ELc117ELc115ELc116ELc111ELc109ELc45ELc99ELc111ELc108ELc111ELc114EEEES5_ET0_vEUlS5_E_EEPNS2_13EventListenerINS2_22SettingChangedFilterV3EEENS_17basic_string_viewIcNS_11char_traitsIcEEEEOSA_PNS2_3ModEEUlNS_10shared_ptrINS2_9SettingV3EEEE_NS_9allocatorISQ_EEFvSP_EE18destroy_deallocateEv
d874 4 306 26
FUNC d878 e8 0 _ZNSt6__ndk110__function6__funcIZN5geode25listenForSettingChangesV3IN7cocos2d10_ccColor3BEZ14fastGetSettingITn11TemplateStrXtlS7_ILj19EEtlA20_cLc110ELc111ELc114ELc109ELc97ELc108ELc45ELc99ELc117ELc115ELc116ELc111ELc109ELc45ELc99ELc111ELc108ELc111ELc114EEEES5_ET0_vEUlS5_E_EEPNS2_13EventListenerINS2_22SettingChangedFilterV3EEENS_17basic_string_viewIcNS_11char_traitsIcEEEEOSA_PNS2_3ModEEUlNS_10shared_ptrINS2_9SettingV3EEEE_NS_9allocatorISQ_EEFvSP_EEclEOSP_
d878 c 310 26
d884 dc 311 26
FUNC d960 1c 0 _ZNKSt6__ndk110__function6__funcIZN5geode25listenForSettingChangesV3IN7cocos2d10_ccColor3BEZ14fastGetSettingITn11TemplateStrXtlS7_ILj19EEtlA20_cLc110ELc111ELc114ELc109ELc97ELc108ELc45ELc99ELc117ELc115ELc116ELc111ELc109ELc45ELc99ELc111ELc108ELc111ELc114EEEES5_ET0_vEUlS5_E_EEPNS2_13EventListenerINS2_22SettingChangedFilterV3EEENS_17basic_string_viewIcNS_11char_traitsIcEEEEOSA_PNS2_3ModEEUlNS_10shared_ptrINS2_9SettingV3EEEE_NS_9allocatorISQ_EEFvSP_EE6targetERKSt9type_info
d960 18 318 26
d978 4 321 26
FUNC d97c c 0 _ZNKSt6__ndk110__function6__funcIZN5geode25listenForSettingChangesV3IN7cocos2d10_ccColor3BEZ14fastGetSettingITn11TemplateStrXtlS7_ILj19EEtlA20_cLc110ELc111ELc114ELc109ELc97ELc108ELc45ELc99ELc117ELc115ELc116ELc111ELc109ELc45ELc99ELc111ELc108ELc111ELc114EEEES5_ET0_vEUlS5_E_EEPNS2_13EventListenerINS2_22SettingChangedFilterV3EEENS_17basic_string_viewIcNS_11char_traitsIcEEEEOSA_PNS2_3ModEEUlNS_10shared_ptrINS2_9SettingV3EEEE_NS_9allocatorISQ_EEFvSP_EE11target_typeEv
d97c c 325 26
FUNC d988 1b8 0 _ZN5geode25listenForSettingChangesV3IN7cocos2d10_ccColor3BEZ14fastGetSettingITn11TemplateStrXtlS4_ILj21EEtlA22_cLc112ELc114ELc97ELc99ELc116ELc105ELc99ELc101ELc45ELc99ELc117ELc115ELc116ELc111ELc109ELc45ELc99ELc111ELc108ELc111ELc114EEEES2_ET0_vEUlS2_E_EEPNS_13EventListenerINS_22SettingChangedFilterV3EEENSt6__ndk117basic_string_viewIcNSD_11char_traitsIcEEEEOS7_PNS_3ModE
d988 1c 735 0
d9a4 10 737 0
d9b4 8 738 0
d9bc 4 737 0
d9c0 10 738 0
d9d0 14 743 0
d9e4 4 738 0
d9e8 2c 743 0
da14 12c 737 0
FUNC db40 4 0 _ZNSt6__ndk110__function6__funcIZN5geode25listenForSettingChangesV3IN7cocos2d10_ccColor3BEZ14fastGetSettingITn11TemplateStrXtlS7_ILj21EEtlA22_cLc112ELc114ELc97ELc99ELc116ELc105ELc99ELc101ELc45ELc99ELc117ELc115ELc116ELc111ELc109ELc45ELc99ELc111ELc108ELc111ELc114EEEES5_ET0_vEUlS5_E_EEPNS2_13EventListenerINS2_22SettingChangedFilterV3EEENS_17basic_string_viewIcNS_11char_traitsIcEEEEOSA_PNS2_3ModEEUlNS_10shared_ptrINS2_9SettingV3EEEE_NS_9allocatorISQ_EEFvSP_EED0Ev
db40 4 253 26
FUNC db44 38 0 _ZNKSt6__ndk110__function6__funcIZN5geode25listenForSettingChangesV3IN7cocos2d10_ccColor3BEZ14fastGetSettingITn11TemplateStrXtlS7_ILj21EEtlA22_cLc112ELc114ELc97ELc99ELc116ELc105ELc99ELc101ELc45ELc99ELc117ELc115ELc116ELc111ELc109ELc45ELc99ELc111ELc108ELc111ELc114EEEES5_ET0_vEUlS5_E_EEPNS2_13EventListenerINS2_22SettingChangedFilterV3EEENS_17basic_string_viewIcNS_11char_traitsIcEEEEOSA_PNS2_3ModEEUlNS_10shared_ptrINS2_9SettingV3EEEE_NS_9allocatorISQ_EEFvSP_EE7__cloneEv
db44 10 280 26
db54 8 285 26
db5c 14 286 26
db70 c 288 26
FUNC db7c 18 0 _ZNKSt6__ndk110__function6__funcIZN5geode25listenForSettingChangesV3IN7cocos2d10_ccColor3BEZ14fastGetSettingITn11TemplateStrXtlS7_ILj21EEtlA22_cLc112ELc114ELc97ELc99ELc116ELc105ELc99ELc101ELc45ELc99ELc117ELc115ELc116ELc111ELc109ELc45ELc99ELc111ELc108ELc111ELc114EEEES5_ET0_vEUlS5_E_EEPNS2_13EventListenerINS2_22SettingChangedFilterV3EEENS_17basic_string_viewIcNS_11char_traitsIcEEEEOSA_PNS2_3ModEEUlNS_10shared_ptrINS2_9SettingV3EEEE_NS_9allocatorISQ_EEFvSP_EE7__cloneEPNS0_6__baseIST_EE
db7c 14 292 26
db90 4 293 26
FUNC db94 4 0 _ZNSt6__ndk110__function6__funcIZN5geode25listenForSettingChangesV3IN7cocos2d10_ccColor3BEZ14fastGetSettingITn11TemplateStrXtlS7_ILj21EEtlA22_cLc112ELc114ELc97ELc99ELc116ELc105ELc99ELc101ELc45ELc99ELc117ELc115ELc116ELc111ELc109ELc45ELc99ELc111ELc108ELc111ELc114EEEES5_ET0_vEUlS5_E_EEPNS2_13EventListenerINS2_22SettingChangedFilterV3EEENS_17basic_string_viewIcNS_11char_traitsIcEEEEOSA_PNS2_3ModEEUlNS_10shared_ptrINS2_9SettingV3EEEE_NS_9allocatorISQ_EEFvSP_EE7destroyEv
db94 4 298 26
FUNC db98 4 0 _ZNSt6__ndk110__function6__funcIZN5geode25listenForSettingChangesV3IN7cocos2d10_ccColor3BEZ14fastGetSettingITn11TemplateStrXtlS7_ILj21EEtlA22_cLc112ELc114ELc97ELc99ELc116ELc105ELc99ELc101ELc45ELc99ELc117ELc115ELc116ELc111ELc109ELc45ELc99ELc111ELc108ELc111ELc114EEEES5_ET0_vEUlS5_E_EEPNS2_13EventListenerINS2_22SettingChangedFilterV3EEENS_17basic_string_viewIcNS_11char_traitsIcEEEEOSA_PNS2_3ModEEUlNS_10shared_ptrINS2_9SettingV3EEEE_NS_9allocatorISQ_EEFvSP_EE18destroy_deallocateEv
db98 4 306 26
FUNC db9c e8 0 _ZNSt6__ndk110__function6__funcIZN5geode25listenForSettingChangesV3IN7cocos2d10_ccColor3BEZ14fastGetSettingITn11TemplateStrXtlS7_ILj21EEtlA22_cLc112ELc114ELc97ELc99ELc116ELc105ELc99ELc101ELc45ELc99ELc117ELc115ELc116ELc111ELc109ELc45ELc99ELc111ELc108ELc111ELc114EEEES5_ET0_vEUlS5_E_EEPNS2_13EventListenerINS2_22SettingChangedFilterV3EEENS_17basic_string_viewIcNS_11char_traitsIcEEEEOSA_PNS2_3ModEEUlNS_10shared_ptrINS2_9SettingV3EEEE_NS_9allocatorISQ_EEFvSP_EEclEOSP_
db9c c 310 26
dba8 dc 311 26
FUNC dc84 1c 0 _ZNKSt6__ndk110__function6__funcIZN5geode25listenForSettingChangesV3IN7cocos2d10_ccColor3BEZ14fastGetSettingITn11TemplateStrXtlS7_ILj21EEtlA22_cLc112ELc114ELc97ELc99ELc116ELc105ELc99ELc101ELc45ELc99ELc117ELc115ELc116ELc111ELc109ELc45ELc99ELc111ELc108ELc111ELc114EEEES5_ET0_vEUlS5_E_EEPNS2_13EventListenerINS2_22SettingChangedFilterV3EEENS_17basic_string_viewIcNS_11char_traitsIcEEEEOSA_PNS2_3ModEEUlNS_10shared_ptrINS2_9SettingV3EEEE_NS_9allocatorISQ_EEFvSP_EE6targetERKSt9type_info
dc84 18 318 26
dc9c 4 321 26
FUNC dca0 c 0 _ZNKSt6__ndk110__function6__funcIZN5geode25listenForSettingChangesV3IN7cocos2d10_ccColor3BEZ14fastGetSettingITn11TemplateStrXtlS7_ILj21EEtlA22_cLc112ELc114ELc97ELc99ELc116ELc105ELc99ELc101ELc45ELc99ELc117ELc115ELc116ELc111ELc109ELc45ELc99ELc111ELc108ELc111ELc114EEEES5_ET0_vEUlS5_E_EEPNS2_13EventListenerINS2_22SettingChangedFilterV3EEENS_17basic_string_viewIcNS_11char_traitsIcEEEEOSA_PNS2_3ModEEUlNS_10shared_ptrINS2_9SettingV3EEEE_NS_9allocatorISQ_EEFvSP_EE11target_typeEv
dca0 c 325 26
FUNC dcac 1b0 0 _ZN5geode25listenForSettingChangesV3IN7cocos2d10_ccColor3BEZ14fastGetSettingITn11TemplateStrXtlS4_ILj17EEtlA18_cLc101ELc110ELc98ELc121ELc45ELc99ELc117ELc115ELc116ELc111ELc109ELc45ELc99ELc111ELc108ELc111ELc114EEEES2_ET0_vEUlS2_E_EEPNS_13EventListenerINS_22SettingChangedFilterV3EEENSt6__ndk117basic_string_viewIcNSD_11char_traitsIcEEEEOS7_PNS_3ModE
dcac 1c 735 0
dcc8 10 737 0
dcd8 8 738 0
dce0 4 737 0
dce4 10 738 0
dcf4 14 743 0
dd08 4 738 0
dd0c 24 743 0
dd30 12c 737 0
FUNC de5c 4 0 _ZNSt6__ndk110__function6__funcIZN5geode25listenForSettingChangesV3IN7cocos2d10_ccColor3BEZ14fastGetSettingITn11TemplateStrXtlS7_ILj17EEtlA18_cLc101ELc110ELc98ELc121ELc45ELc99ELc117ELc115ELc116ELc111ELc109ELc45ELc99ELc111ELc108ELc111ELc114EEEES5_ET0_vEUlS5_E_EEPNS2_13EventListenerINS2_22SettingChangedFilterV3EEENS_17basic_string_viewIcNS_11char_traitsIcEEEEOSA_PNS2_3ModEEUlNS_10shared_ptrINS2_9SettingV3EEEE_NS_9allocatorISQ_EEFvSP_EED0Ev
de5c 4 253 26
FUNC de60 38 0 _ZNKSt6__ndk110__function6__funcIZN5geode25listenForSettingChangesV3IN7cocos2d10_ccColor3BEZ14fastGetSettingITn11TemplateStrXtlS7_ILj17EEtlA18_cLc101ELc110ELc98ELc121ELc45ELc99ELc117ELc115ELc116ELc111ELc109ELc45ELc99ELc111ELc108ELc111ELc114EEEES5_ET0_vEUlS5_E_EEPNS2_13EventListenerINS2_22SettingChangedFilterV3EEENS_17basic_string_viewIcNS_11char_traitsIcEEEEOSA_PNS2_3ModEEUlNS_10shared_ptrINS2_9SettingV3EEEE_NS_9allocatorISQ_EEFvSP_EE7__cloneEv
de60 10 280 26
de70 8 285 26
de78 14 286 26
de8c c 288 26
FUNC de98 18 0 _ZNKSt6__ndk110__function6__funcIZN5geode25listenForSettingChangesV3IN7cocos2d10_ccColor3BEZ14fastGetSettingITn11TemplateStrXtlS7_ILj17EEtlA18_cLc101ELc110ELc98ELc121ELc45ELc99ELc117ELc115ELc116ELc111ELc109ELc45ELc99ELc111ELc108ELc111ELc114EEEES5_ET0_vEUlS5_E_EEPNS2_13EventListenerINS2_22SettingChangedFilterV3EEENS_17basic_string_viewIcNS_11char_traitsIcEEEEOSA_PNS2_3ModEEUlNS_10shared_ptrINS2_9SettingV3EEEE_NS_9allocatorISQ_EEFvSP_EE7__cloneEPNS0_6__baseIST_EE
de98 14 292 26
deac 4 293 26
FUNC deb0 4 0 _ZNSt6__ndk110__function6__funcIZN5geode25listenForSettingChangesV3IN7cocos2d10_ccColor3BEZ14fastGetSettingITn11TemplateStrXtlS7_ILj17EEtlA18_cLc101ELc110ELc98ELc121ELc45ELc99ELc117ELc115ELc116ELc111ELc109ELc45ELc99ELc111ELc108ELc111ELc114EEEES5_ET0_vEUlS5_E_EEPNS2_13EventListenerINS2_22SettingChangedFilterV3EEENS_17basic_string_viewIcNS_11char_traitsIcEEEEOSA_PNS2_3ModEEUlNS_10shared_ptrINS2_9SettingV3EEEE_NS_9allocatorISQ_EEFvSP_EE7destroyEv
deb0 4 298 26
FUNC deb4 4 0 _ZNSt6__ndk110__function6__funcIZN5geode25listenForSettingChangesV3IN7cocos2d10_ccColor3BEZ14fastGetSettingITn11TemplateStrXtlS7_ILj17EEtlA18_cLc101ELc110ELc98ELc121ELc45ELc99ELc117ELc115ELc116ELc111ELc109ELc45ELc99ELc111ELc108ELc111ELc114EEEES5_ET0_vEUlS5_E_EEPNS2_13EventListenerINS2_22SettingChangedFilterV3EEENS_17basic_string_viewIcNS_11char_traitsIcEEEEOSA_PNS2_3ModEEUlNS_10shared_ptrINS2_9SettingV3EEEE_NS_9allocatorISQ_EEFvSP_EE18destroy_deallocateEv
deb4 4 306 26
FUNC deb8 e8 0 _ZNSt6__ndk110__function6__funcIZN5geode25listenForSettingChangesV3IN7cocos2d10_ccColor3BEZ14fastGetSettingITn11TemplateStrXtlS7_ILj17EEtlA18_cLc101ELc110ELc98ELc121ELc45ELc99ELc117ELc115ELc116ELc111ELc109ELc45ELc99ELc111ELc108ELc111ELc114EEEES5_ET0_vEUlS5_E_EEPNS2_13EventListenerINS2_22SettingChangedFilterV3EEENS_17basic_string_viewIcNS_11char_traitsIcEEEEOSA_PNS2_3ModEEUlNS_10shared_ptrINS2_9SettingV3EEEE_NS_9allocatorISQ_EEFvSP_EEclEOSP_
deb8 c 310 26
dec4 dc 311 26
FUNC dfa0 1c 0 _ZNKSt6__ndk110__function6__funcIZN5geode25listenForSettingChangesV3IN7cocos2d10_ccColor3BEZ14fastGetSettingITn11TemplateStrXtlS7_ILj17EEtlA18_cLc101ELc110ELc98ELc121ELc45ELc99ELc117ELc115ELc116ELc111ELc109ELc45ELc99ELc111ELc108ELc111ELc114EEEES5_ET0_vEUlS5_E_EEPNS2_13EventListenerINS2_22SettingChangedFilterV3EEENS_17basic_string_viewIcNS_11char_traitsIcEEEEOSA_PNS2_3ModEEUlNS_10shared_ptrINS2_9SettingV3EEEE_NS_9allocatorISQ_EEFvSP_EE6targetERKSt9type_info
dfa0 18 318 26
dfb8 4 321 26
FUNC dfbc c 0 _ZNKSt6__ndk110__function6__funcIZN5geode25listenForSettingChangesV3IN7cocos2d10_ccColor3BEZ14fastGetSettingITn11TemplateStrXtlS7_ILj17EEtlA18_cLc101ELc110ELc98ELc121ELc45ELc99ELc117ELc115ELc116ELc111ELc109ELc45ELc99ELc111ELc108ELc111ELc114EEEES5_ET0_vEUlS5_E_EEPNS2_13EventListenerINS2_22SettingChangedFilterV3EEENS_17basic_string_viewIcNS_11char_traitsIcEEEEOSA_PNS2_3ModEEUlNS_10shared_ptrINS2_9SettingV3EEEE_NS_9allocatorISQ_EEFvSP_EE11target_typeEv
dfbc c 325 26
FUNC dfc8 134 0 geode::Mod::getSettingValue<bool>(std::__ndk1::basic_string_view<char, std::__ndk1::char_traits<char> >) const
dfc8 18 238 17
dfe0 90 240 17
e070 8 241 17
e078 50 240 17
e0c8 8 244 17
e0d0 8 240 17
e0d8 24 244 17
FUNC e0fc 1b0 0 _ZN5geode25listenForSettingChangesV3IbZ14fastGetSettingITn11TemplateStrXtlS2_ILj17EEtlA18_cLc112ELc114ELc97ELc99ELc116ELc105ELc99ELc101ELc45ELc111ELc118ELc101ELc114ELc114ELc105ELc100ELc101EEEEbET0_vEUlbE_EEPNS_13EventListenerINS_22SettingChangedFilterV3EEENSt6__ndk117basic_string_viewIcNSB_11char_traitsIcEEEEOS5_PNS_3ModE
e0fc 1c 735 0
e118 10 737 0
e128 8 738 0
e130 4 737 0
e134 10 738 0
e144 14 743 0
e158 4 738 0
e15c 24 743 0
e180 12c 737 0
FUNC e2ac 4 0 _ZNSt6__ndk110__function6__funcIZN5geode25listenForSettingChangesV3IbZ14fastGetSettingITn11TemplateStrXtlS5_ILj17EEtlA18_cLc112ELc114ELc97ELc99ELc116ELc105ELc99ELc101ELc45ELc111ELc118ELc101ELc114ELc114ELc105ELc100ELc101EEEEbET0_vEUlbE_EEPNS2_13EventListenerINS2_22SettingChangedFilterV3EEENS_17basic_string_viewIcNS_11char_traitsIcEEEEOS8_PNS2_3ModEEUlNS_10shared_ptrINS2_9SettingV3EEEE_NS_9allocatorISO_EEFvSN_EED0Ev
e2ac 4 253 26
FUNC e2b0 38 0 _ZNKSt6__ndk110__function6__funcIZN5geode25listenForSettingChangesV3IbZ14fastGetSettingITn11TemplateStrXtlS5_ILj17EEtlA18_cLc112ELc114ELc97ELc99ELc116ELc105ELc99ELc101ELc45ELc111ELc118ELc101ELc114ELc114ELc105ELc100ELc101EEEEbET0_vEUlbE_EEPNS2_13EventListenerINS2_22SettingChangedFilterV3EEENS_17basic_string_viewIcNS_11char_traitsIcEEEEOS8_PNS2_3ModEEUlNS_10shared_ptrINS2_9SettingV3EEEE_NS_9allocatorISO_EEFvSN_EE7__cloneEv
e2b0 10 280 26
e2c0 8 285 26
e2c8 14 286 26
e2dc c 288 26
FUNC e2e8 18 0 _ZNKSt6__ndk110__function6__funcIZN5geode25listenForSettingChangesV3IbZ14fastGetSettingITn11TemplateStrXtlS5_ILj17EEtlA18_cLc112ELc114ELc97ELc99ELc116ELc105ELc99ELc101ELc45ELc111ELc118ELc101ELc114ELc114ELc105ELc100ELc101EEEEbET0_vEUlbE_EEPNS2_13EventListenerINS2_22SettingChangedFilterV3EEENS_17basic_string_viewIcNS_11char_traitsIcEEEEOS8_PNS2_3ModEEUlNS_10shared_ptrINS2_9SettingV3EEEE_NS_9allocatorISO_EEFvSN_EE7__cloneEPNS0_6__baseISR_EE
e2e8 14 292 26
e2fc 4 293 26
FUNC e300 4 0 _ZNSt6__ndk110__function6__funcIZN5geode25listenForSettingChangesV3IbZ14fastGetSettingITn11TemplateStrXtlS5_ILj17EEtlA18_cLc112ELc114ELc97ELc99ELc116ELc105ELc99ELc101ELc45ELc111ELc118ELc101ELc114ELc114ELc105ELc100ELc101EEEEbET0_vEUlbE_EEPNS2_13EventListenerINS2_22SettingChangedFilterV3EEENS_17basic_string_viewIcNS_11char_traitsIcEEEEOS8_PNS2_3ModEEUlNS_10shared_ptrINS2_9SettingV3EEEE_NS_9allocatorISO_EEFvSN_EE7destroyEv
e300 4 298 26
FUNC e304 4 0 _ZNSt6__ndk110__function6__funcIZN5geode25listenForSettingChangesV3IbZ14fastGetSettingITn11TemplateStrXtlS5_ILj17EEtlA18_cLc112ELc114ELc97ELc99ELc116ELc105ELc99ELc101ELc45ELc111ELc118ELc101ELc114ELc114ELc105ELc100ELc101EEEEbET0_vEUlbE_EEPNS2_13EventListenerINS2_22SettingChangedFilterV3EEENS_17basic_string_viewIcNS_11char_traitsIcEEEEOS8_PNS2_3ModEEUlNS_10shared_ptrINS2_9SettingV3EEEE_NS_9allocatorISO_EEFvSN_EE18destroy_deallocateEv
e304 4 306 26
FUNC e308 dc 0 _ZNSt6__ndk110__function6__funcIZN5geode25listenForSettingChangesV3IbZ14fastGetSettingITn11TemplateStrXtlS5_ILj17EEtlA18_cLc112ELc114ELc97ELc99ELc116ELc105ELc99ELc101ELc45ELc111ELc118ELc101ELc114ELc114ELc105ELc100ELc101EEEEbET0_vEUlbE_EEPNS2_13EventListenerINS2_22SettingChangedFilterV3EEENS_17basic_string_viewIcNS_11char_traitsIcEEEEOS8_PNS2_3ModEEUlNS_10shared_ptrINS2_9SettingV3EEEE_NS_9allocatorISO_EEFvSN_EEclEOSN_
e308 c 310 26
e314 d0 311 26
FUNC e3e4 1c 0 _ZNKSt6__ndk110__function6__funcIZN5geode25listenForSettingChangesV3IbZ14fastGetSettingITn11TemplateStrXtlS5_ILj17EEtlA18_cLc112ELc114ELc97ELc99ELc116ELc105ELc99ELc101ELc45ELc111ELc118ELc101ELc114ELc114ELc105ELc100ELc101EEEEbET0_vEUlbE_EEPNS2_13EventListenerINS2_22SettingChangedFilterV3EEENS_17basic_string_viewIcNS_11char_traitsIcEEEEOS8_PNS2_3ModEEUlNS_10shared_ptrINS2_9SettingV3EEEE_NS_9allocatorISO_EEFvSN_EE6targetERKSt9type_info
e3e4 18 318 26
e3fc 4 321 26
FUNC e400 c 0 _ZNKSt6__ndk110__function6__funcIZN5geode25listenForSettingChangesV3IbZ14fastGetSettingITn11TemplateStrXtlS5_ILj17EEtlA18_cLc112ELc114ELc97ELc99ELc116ELc105ELc99ELc101ELc45ELc111ELc118ELc101ELc114ELc114ELc105ELc100ELc101EEEEbET0_vEUlbE_EEPNS2_13EventListenerINS2_22SettingChangedFilterV3EEENS_17basic_string_viewIcNS_11char_traitsIcEEEEOS8_PNS2_3ModEEUlNS_10shared_ptrINS2_9SettingV3EEEE_NS_9allocatorISO_EEFvSN_EE11target_typeEv
e400 c 325 26
FUNC e40c 12c 0 geode::Mod::getSettingValue<double>(std::__ndk1::basic_string_view<char, std::__ndk1::char_traits<char> >) const
e40c 24 238 17
e430 7c 240 17
e4ac 8 241 17
e4b4 54 240 17
e508 30 244 17
FUNC e538 1b4 0 _ZN5geode25listenForSettingChangesV3IdZ14fastGetSettingITn11TemplateStrXtlS2_ILj18EEtlA19_cLc112ELc114ELc97ELc99ELc116ELc105ELc99ELc101ELc45ELc114ELc103ELc98ELc45ELc115ELc112ELc101ELc101ELc100EEEEdET0_vEUldE_EEPNS_13EventListenerINS_22SettingChangedFilterV3EEENSt6__ndk117basic_string_viewIcNSB_11char_traitsIcEEEEOS5_PNS_3ModE
e538 1c 735 0
e554 10 737 0
e564 8 738 0
e56c 4 737 0
e570 10 738 0
e580 14 743 0
e594 4 738 0
e598 28 743 0
e5c0 12c 737 0
FUNC e6ec 4 0 _ZNSt6__ndk110__function6__funcIZN5geode25listenForSettingChangesV3IdZ14fastGetSettingITn11TemplateStrXtlS5_ILj18EEtlA19_cLc112ELc114ELc97ELc99ELc116ELc105ELc99ELc101ELc45ELc114ELc103ELc98ELc45ELc115ELc112ELc101ELc101ELc100EEEEdET0_vEUldE_EEPNS2_13EventListenerINS2_22SettingChangedFilterV3EEENS_17basic_string_viewIcNS_11char_traitsIcEEEEOS8_PNS2_3ModEEUlNS_10shared_ptrINS2_9SettingV3EEEE_NS_9allocatorISO_EEFvSN_EED0Ev
e6ec 4 253 26
FUNC e6f0 38 0 _ZNKSt6__ndk110__function6__funcIZN5geode25listenForSettingChangesV3IdZ14fastGetSettingITn11TemplateStrXtlS5_ILj18EEtlA19_cLc112ELc114ELc97ELc99ELc116ELc105ELc99ELc101ELc45ELc114ELc103ELc98ELc45ELc115ELc112ELc101ELc101ELc100EEEEdET0_vEUldE_EEPNS2_13EventListenerINS2_22SettingChangedFilterV3EEENS_17basic_string_viewIcNS_11char_traitsIcEEEEOS8_PNS2_3ModEEUlNS_10shared_ptrINS2_9SettingV3EEEE_NS_9allocatorISO_EEFvSN_EE7__cloneEv
e6f0 10 280 26
e700 8 285 26
e708 14 286 26
e71c c 288 26
FUNC e728 18 0 _ZNKSt6__ndk110__function6__funcIZN5geode25listenForSettingChangesV3IdZ14fastGetSettingITn11TemplateStrXtlS5_ILj18EEtlA19_cLc112ELc114ELc97ELc99ELc116ELc105ELc99ELc101ELc45ELc114ELc103ELc98ELc45ELc115ELc112ELc101ELc101ELc100EEEEdET0_vEUldE_EEPNS2_13EventListenerINS2_22SettingChangedFilterV3EEENS_17basic_string_viewIcNS_11char_traitsIcEEEEOS8_PNS2_3ModEEUlNS_10shared_ptrINS2_9SettingV3EEEE_NS_9allocatorISO_EEFvSN_EE7__cloneEPNS0_6__baseISR_EE
e728 14 292 26
e73c 4 293 26
FUNC e740 4 0 _ZNSt6__ndk110__function6__funcIZN5geode25listenForSettingChangesV3IdZ14fastGetSettingITn11TemplateStrXtlS5_ILj18EEtlA19_cLc112ELc114ELc97ELc99ELc116ELc105ELc99ELc101ELc45ELc114ELc103ELc98ELc45ELc115ELc112ELc101ELc101ELc100EEEEdET0_vEUldE_EEPNS2_13EventListenerINS2_22SettingChangedFilterV3EEENS_17basic_string_viewIcNS_11char_traitsIcEEEEOS8_PNS2_3ModEEUlNS_10shared_ptrINS2_9SettingV3EEEE_NS_9allocatorISO_EEFvSN_EE7destroyEv
e740 4 298 26
FUNC e744 4 0 _ZNSt6__ndk110__function6__funcIZN5geode25listenForSettingChangesV3IdZ14fastGetSettingITn11TemplateStrXtlS5_ILj18EEtlA19_cLc112ELc114ELc97ELc99ELc116ELc105ELc99ELc101ELc45ELc114ELc103ELc98ELc45ELc115ELc112ELc101ELc101ELc100EEEEdET0_vEUldE_EEPNS2_13EventListenerINS2_22SettingChangedFilterV3EEENS_17basic_string_viewIcNS_11char_traitsIcEEEEOS8_PNS2_3ModEEUlNS_10shared_ptrINS2_9SettingV3EEEE_NS_9allocatorISO_EEFvSN_EE18destroy_deallocateEv
e744 4 306 26
FUNC e748 dc 0 _ZNSt6__ndk110__function6__funcIZN5geode25listenForSettingChangesV3IdZ14fastGetSettingITn11TemplateStrXtlS5_ILj18EEtlA19_cLc112ELc114ELc97ELc99ELc116ELc105ELc99ELc101ELc45ELc114ELc103ELc98ELc45ELc115ELc112ELc101ELc101ELc100EEEEdET0_vEUldE_EEPNS2_13EventListenerINS2_22SettingChangedFilterV3EEENS_17basic_string_viewIcNS_11char_traitsIcEEEEOS8_PNS2_3ModEEUlNS_10shared_ptrINS2_9SettingV3EEEE_NS_9allocatorISO_EEFvSN_EEclEOSN_
e748 c 310 26
e754 d0 311 26
FUNC e824 1c 0 _ZNKSt6__ndk110__function6__funcIZN5geode25listenForSettingChangesV3IdZ14fastGetSettingITn11TemplateStrXtlS5_ILj18EEtlA19_cLc112ELc114ELc97ELc99ELc116ELc105ELc99ELc101ELc45ELc114ELc103ELc98ELc45ELc115ELc112ELc101ELc101ELc100EEEEdET0_vEUldE_EEPNS2_13EventListenerINS2_22SettingChangedFilterV3EEENS_17basic_string_viewIcNS_11char_traitsIcEEEEOS8_PNS2_3ModEEUlNS_10shared_ptrINS2_9SettingV3EEEE_NS_9allocatorISO_EEFvSN_EE6targetERKSt9type_info
e824 18 318 26
e83c 4 321 26
FUNC e840 c 0 _ZNKSt6__ndk110__function6__funcIZN5geode25listenForSettingChangesV3IdZ14fastGetSettingITn11TemplateStrXtlS5_ILj18EEtlA19_cLc112ELc114ELc97ELc99ELc116ELc105ELc99ELc101ELc45ELc114ELc103ELc98ELc45ELc115ELc112ELc101ELc101ELc100EEEEdET0_vEUldE_EEPNS2_13EventListenerINS2_22SettingChangedFilterV3EEENS_17basic_string_viewIcNS_11char_traitsIcEEEEOS8_PNS2_3ModEEUlNS_10shared_ptrINS2_9SettingV3EEEE_NS_9allocatorISO_EEFvSN_EE11target_typeEv
e840 c 325 26
FUNC e84c 1b4 0 _ZN5geode25listenForSettingChangesV3IdZ14fastGetSettingITn11TemplateStrXtlS2_ILj14EEtlA15_cLc101ELc110ELc98ELc121ELc45ELc114ELc103ELc98ELc45ELc115ELc112ELc101ELc101ELc100EEEEdET0_vEUldE_EEPNS_13EventListenerINS_22SettingChangedFilterV3EEENSt6__ndk117basic_string_viewIcNSB_11char_traitsIcEEEEOS5_PNS_3ModE
e84c 1c 735 0
e868 10 737 0
e878 8 738 0
e880 4 737 0
e884 10 738 0
e894 14 743 0
e8a8 4 738 0
e8ac 28 743 0
e8d4 12c 737 0
FUNC ea00 4 0 _ZNSt6__ndk110__function6__funcIZN5geode25listenForSettingChangesV3IdZ14fastGetSettingITn11TemplateStrXtlS5_ILj14EEtlA15_cLc101ELc110ELc98ELc121ELc45ELc114ELc103ELc98ELc45ELc115ELc112ELc101ELc101ELc100EEEEdET0_vEUldE_EEPNS2_13EventListenerINS2_22SettingChangedFilterV3EEENS_17basic_string_viewIcNS_11char_traitsIcEEEEOS8_PNS2_3ModEEUlNS_10shared_ptrINS2_9SettingV3EEEE_NS_9allocatorISO_EEFvSN_EED0Ev
ea00 4 253 26
FUNC ea04 38 0 _ZNKSt6__ndk110__function6__funcIZN5geode25listenForSettingChangesV3IdZ14fastGetSettingITn11TemplateStrXtlS5_ILj14EEtlA15_cLc101ELc110ELc98ELc121ELc45ELc114ELc103ELc98ELc45ELc115ELc112ELc101ELc101ELc100EEEEdET0_vEUldE_EEPNS2_13EventListenerINS2_22SettingChangedFilterV3EEENS_17basic_string_viewIcNS_11char_traitsIcEEEEOS8_PNS2_3ModEEUlNS_10shared_ptrINS2_9SettingV3EEEE_NS_9allocatorISO_EEFvSN_EE7__cloneEv
ea04 10 280 26
ea14 8 285 26
ea1c 14 286 26
ea30 c 288 26
FUNC ea3c 18 0 _ZNKSt6__ndk110__function6__funcIZN5geode25listenForSettingChangesV3IdZ14fastGetSettingITn11TemplateStrXtlS5_ILj14EEtlA15_cLc101ELc110ELc98ELc121ELc45ELc114ELc103ELc98ELc45ELc115ELc112ELc101ELc101ELc100EEEEdET0_vEUldE_EEPNS2_13EventListenerINS2_22SettingChangedFilterV3EEENS_17basic_string_viewIcNS_11char_traitsIcEEEEOS8_PNS2_3ModEEUlNS_10shared_ptrINS2_9SettingV3EEEE_NS_9allocatorISO_EEFvSN_EE7__cloneEPNS0_6__baseISR_EE
ea3c 14 292 26
ea50 4 293 26
FUNC ea54 4 0 _ZNSt6__ndk110__function6__funcIZN5geode25listenForSettingChangesV3IdZ14fastGetSettingITn11TemplateStrXtlS5_ILj14EEtlA15_cLc101ELc110ELc98ELc121ELc45ELc114ELc103ELc98ELc45ELc115ELc112ELc101ELc101ELc100EEEEdET0_vEUldE_EEPNS2_13EventListenerINS2_22SettingChangedFilterV3EEENS_17basic_string_viewIcNS_11char_traitsIcEEEEOS8_PNS2_3ModEEUlNS_10shared_ptrINS2_9SettingV3EEEE_NS_9allocatorISO_EEFvSN_EE7destroyEv
ea54 4 298 26
FUNC ea58 4 0 _ZNSt6__ndk110__function6__funcIZN5geode25listenForSettingChangesV3IdZ14fastGetSettingITn11TemplateStrXtlS5_ILj14EEtlA15_cLc101ELc110ELc98ELc121ELc45ELc114ELc103ELc98ELc45ELc115ELc112ELc101ELc101ELc100EEEEdET0_vEUldE_EEPNS2_13EventListenerINS2_22SettingChangedFilterV3EEENS_17basic_string_viewIcNS_11char_traitsIcEEEEOS8_PNS2_3ModEEUlNS_10shared_ptrINS2_9SettingV3EEEE_NS_9allocatorISO_EEFvSN_EE18destroy_deallocateEv
ea58 4 306 26
FUNC ea5c dc 0 _ZNSt6__ndk110__function6__funcIZN5geode25listenForSettingChangesV3IdZ14fastGetSettingITn11TemplateStrXtlS5_ILj14EEtlA15_cLc101ELc110ELc98ELc121ELc45ELc114ELc103ELc98ELc45ELc115ELc112ELc101ELc101ELc100EEEEdET0_vEUldE_EEPNS2_13EventListenerINS2_22SettingChangedFilterV3EEENS_17basic_string_viewIcNS_11char_traitsIcEEEEOS8_PNS2_3ModEEUlNS_10shared_ptrINS2_9SettingV3EEEE_NS_9allocatorISO_EEFvSN_EEclEOSN_
ea5c c 310 26
ea68 d0 311 26
FUNC eb38 1c 0 _ZNKSt6__ndk110__function6__funcIZN5geode25listenForSettingChangesV3IdZ14fastGetSettingITn11TemplateStrXtlS5_ILj14EEtlA15_cLc101ELc110ELc98ELc121ELc45ELc114ELc103ELc98ELc45ELc115ELc112ELc101ELc101ELc100EEEEdET0_vEUldE_EEPNS2_13EventListenerINS2_22SettingChangedFilterV3EEENS_17basic_string_viewIcNS_11char_traitsIcEEEEOS8_PNS2_3ModEEUlNS_10shared_ptrINS2_9SettingV3EEEE_NS_9allocatorISO_EEFvSN_EE6targetERKSt9type_info
eb38 18 318 26
eb50 4 321 26
FUNC eb54 c 0 _ZNKSt6__ndk110__function6__funcIZN5geode25listenForSettingChangesV3IdZ14fastGetSettingITn11TemplateStrXtlS5_ILj14EEtlA15_cLc101ELc110ELc98ELc121ELc45ELc114ELc103ELc98ELc45ELc115ELc112ELc101ELc101ELc100EEEEdET0_vEUldE_EEPNS2_13EventListenerINS2_22SettingChangedFilterV3EEENS_17basic_string_viewIcNS_11char_traitsIcEEEEOS8_PNS2_3ModEEUlNS_10shared_ptrINS2_9SettingV3EEEE_NS_9allocatorISO_EEFvSN_EE11target_typeEv
eb54 c 325 26
FUNC eb60 1b0 0 _ZN5geode25listenForSettingChangesV3IdZ14fastGetSettingITn11TemplateStrXtlS2_ILj16EEtlA17_cLc110ELc111ELc114ELc109ELc97ELc108ELc45ELc114ELc103ELc98ELc45ELc115ELc112ELc101ELc101ELc100EEEEdET0_vEUldE_EEPNS_13EventListenerINS_22SettingChangedFilterV3EEENSt6__ndk117basic_string_viewIcNSB_11char_traitsIcEEEEOS5_PNS_3ModE
eb60 1c 735 0
eb7c 10 737 0
eb8c 8 738 0
eb94 4 737 0
eb98 10 738 0
eba8 14 743 0
ebbc 4 738 0
ebc0 24 743 0
ebe4 12c 737 0
FUNC ed10 4 0 std::__ndk1::__function::__base<void (std::__ndk1::shared_ptr<geode::SettingV3>)>::~__base()
ed10 4 238 26
FUNC ed14 4 0 _ZNSt6__ndk110__function6__funcIZN5geode25listenForSettingChangesV3IdZ14fastGetSettingITn11TemplateStrXtlS5_ILj16EEtlA17_cLc110ELc111ELc114ELc109ELc97ELc108ELc45ELc114ELc103ELc98ELc45ELc115ELc112ELc101ELc101ELc100EEEEdET0_vEUldE_EEPNS2_13EventListenerINS2_22SettingChangedFilterV3EEENS_17basic_string_viewIcNS_11char_traitsIcEEEEOS8_PNS2_3ModEEUlNS_10shared_ptrINS2_9SettingV3EEEE_NS_9allocatorISO_EEFvSN_EED0Ev
ed14 4 253 26
FUNC ed18 38 0 _ZNKSt6__ndk110__function6__funcIZN5geode25listenForSettingChangesV3IdZ14fastGetSettingITn11TemplateStrXtlS5_ILj16EEtlA17_cLc110ELc111ELc114ELc109ELc97ELc108ELc45ELc114ELc103ELc98ELc45ELc115ELc112ELc101ELc101ELc100EEEEdET0_vEUldE_EEPNS2_13EventListenerINS2_22SettingChangedFilterV3EEENS_17basic_string_viewIcNS_11char_traitsIcEEEEOS8_PNS2_3ModEEUlNS_10shared_ptrINS2_9SettingV3EEEE_NS_9allocatorISO_EEFvSN_EE7__cloneEv
ed18 10 280 26
ed28 8 285 26
ed30 14 286 26
ed44 c 288 26
FUNC ed50 18 0 _ZNKSt6__ndk110__function6__funcIZN5geode25listenForSettingChangesV3IdZ14fastGetSettingITn11TemplateStrXtlS5_ILj16EEtlA17_cLc110ELc111ELc114ELc109ELc97ELc108ELc45ELc114ELc103ELc98ELc45ELc115ELc112ELc101ELc101ELc100EEEEdET0_vEUldE_EEPNS2_13EventListenerINS2_22SettingChangedFilterV3EEENS_17basic_string_viewIcNS_11char_traitsIcEEEEOS8_PNS2_3ModEEUlNS_10shared_ptrINS2_9SettingV3EEEE_NS_9allocatorISO_EEFvSN_EE7__cloneEPNS0_6__baseISR_EE
ed50 14 292 26
ed64 4 293 26
FUNC ed68 4 0 _ZNSt6__ndk110__function6__funcIZN5geode25listenForSettingChangesV3IdZ14fastGetSettingITn11TemplateStrXtlS5_ILj16EEtlA17_cLc110ELc111ELc114ELc109ELc97ELc108ELc45ELc114ELc103ELc98ELc45ELc115ELc112ELc101ELc101ELc100EEEEdET0_vEUldE_EEPNS2_13EventListenerINS2_22SettingChangedFilterV3EEENS_17basic_string_viewIcNS_11char_traitsIcEEEEOS8_PNS2_3ModEEUlNS_10shared_ptrINS2_9SettingV3EEEE_NS_9allocatorISO_EEFvSN_EE7destroyEv
ed68 4 298 26
FUNC ed6c 4 0 _ZNSt6__ndk110__function6__funcIZN5geode25listenForSettingChangesV3IdZ14fastGetSettingITn11TemplateStrXtlS5_ILj16EEtlA17_cLc110ELc111ELc114ELc109ELc97ELc108ELc45ELc114ELc103ELc98ELc45ELc115ELc112ELc101ELc101ELc100EEEEdET0_vEUldE_EEPNS2_13EventListenerINS2_22SettingChangedFilterV3EEENS_17basic_string_viewIcNS_11char_traitsIcEEEEOS8_PNS2_3ModEEUlNS_10shared_ptrINS2_9SettingV3EEEE_NS_9allocatorISO_EEFvSN_EE18destroy_deallocateEv
ed6c 4 306 26
FUNC ed70 dc 0 _ZNSt6__ndk110__function6__funcIZN5geode25listenForSettingChangesV3IdZ14fastGetSettingITn11TemplateStrXtlS5_ILj16EEtlA17_cLc110ELc111ELc114ELc109ELc97ELc108ELc45ELc114ELc103ELc98ELc45ELc115ELc112ELc101ELc101ELc100EEEEdET0_vEUldE_EEPNS2_13EventListenerINS2_22SettingChangedFilterV3EEENS_17basic_string_viewIcNS_11char_traitsIcEEEEOS8_PNS2_3ModEEUlNS_10shared_ptrINS2_9SettingV3EEEE_NS_9allocatorISO_EEFvSN_EEclEOSN_
ed70 c 310 26
ed7c d0 311 26
FUNC ee4c 1c 0 _ZNKSt6__ndk110__function6__funcIZN5geode25listenForSettingChangesV3IdZ14fastGetSettingITn11TemplateStrXtlS5_ILj16EEtlA17_cLc110ELc111ELc114ELc109ELc97ELc108ELc45ELc114ELc103ELc98ELc45ELc115ELc112ELc101ELc101ELc100EEEEdET0_vEUldE_EEPNS2_13EventListenerINS2_22SettingChangedFilterV3EEENS_17basic_string_viewIcNS_11char_traitsIcEEEEOS8_PNS2_3ModEEUlNS_10shared_ptrINS2_9SettingV3EEEE_NS_9allocatorISO_EEFvSN_EE6targetERKSt9type_info
ee4c 18 318 26
ee64 4 321 26
FUNC ee68 c 0 _ZNKSt6__ndk110__function6__funcIZN5geode25listenForSettingChangesV3IdZ14fastGetSettingITn11TemplateStrXtlS5_ILj16EEtlA17_cLc110ELc111ELc114ELc109ELc97ELc108ELc45ELc114ELc103ELc98ELc45ELc115ELc112ELc101ELc101ELc100EEEEdET0_vEUldE_EEPNS2_13EventListenerINS2_22SettingChangedFilterV3EEENS_17basic_string_viewIcNS_11char_traitsIcEEEEOS8_PNS2_3ModEEUlNS_10shared_ptrINS2_9SettingV3EEEE_NS_9allocatorISO_EEFvSN_EE11target_typeEv
ee68 c 325 26
FUNC ee74 104 0 std::__ndk1::__tree<std::__ndk1::__value_type<std::__ndk1::basic_string<char, std::__ndk1::char_traits<char>, std::__ndk1::allocator<char> >, std::__ndk1::shared_ptr<geode::Hook> >, std::__ndk1::__map_value_compare<std::__ndk1::basic_string<char, std::__ndk1::char_traits<char>, std::__ndk1::allocator<char> >, std::__ndk1::__value_type<std::__ndk1::basic_string<char, std::__ndk1::char_traits<char>, std::__ndk1::allocator<char> >, std::__ndk1::shared_ptr<geode::Hook> >, std::__ndk1::less<std::__ndk1::basic_string<char, std::__ndk1::char_traits<char>, std::__ndk1::allocator<char> > >, true>, std::__ndk1::allocator<std::__ndk1::__value_type<std::__ndk1::basic_string<char, std::__ndk1::char_traits<char>, std::__ndk1::allocator<char> >, std::__ndk1::shared_ptr<geode::Hook> > > >::__find_equal<std::__ndk1::basic_string<char, std::__ndk1::char_traits<char>, std::__ndk1::allocator<char> > >(std::__ndk1::__tree_end_node<std::__ndk1::__tree_node_base<void*>*>*&, std::__ndk1::basic_string<char, std::__ndk1::char_traits<char>, std::__ndk1::allocator<char> > const&)
ee74 20 1680 4
ee94 4 1681 4
ee98 20 1683 4
eeb8 10 1686 4
eec8 50 1685 4
ef18 2c 1693 4
ef44 14 1694 4
ef58 20 1709 4
FUNC ef78 194 0 std::__ndk1::__tree_balance_after_insert[abi:ne190000]<std::__ndk1::__tree_node_base<void*>*>(std::__ndk1::__tree_node_base<void*>*, std::__ndk1::__tree_node_base<void*>*)
ef78 c 285 4
ef84 34 286 4
efb8 10 288 4
efc8 10 310 4
efd8 4 289 4
efdc c 290 4
efe8 c 297 4
eff4 34 299 4
f028 4 303 4
f02c 4 299 4
f030 8 305 4
f038 4 330 4
f03c 14 317 4
f050 2c 319 4
f07c 4 323 4
f080 4 319 4
f084 8 325 4
f08c 4 322 4
f090 4 325 4
f094 4 324 4
f098 2c 325 4
f0c4 8 330 4
f0cc 8 305 4
f0d4 4 302 4
f0d8 4 304 4
f0dc 2c 305 4
f108 4 330 4
FUNC f10c 204 0 paint()
f10c 18 150 9
f124 28 151 9
f14c 4 152 9
f150 4 154 9
f154 4 157 9
f158 4 154 9
f15c 10 157 9
f16c 8 162 9
f174 14 165 9
f188 1c 173 9
f1a4 c 179 9
f1b0 18 173 9
f1c8 14 185 9
f1dc 10 187 9
f1ec 10 175 9
f1fc 24 181 9
f220 1c 177 9
f23c 44 183 9
f280 38 198 9
f2b8 10 189 9
f2c8 20 191 9
f2e8 28 151 9
FUNC f310 124 0 colorutil::hsvToRgb(cocos2d::_ccHSVValue const&)
f310 4 17 27
f314 8 18 27
f31c 14 22 27
f330 8 23 27
f338 4 22 27
f33c 4 25 27
f340 8 22 27
f348 4 27 27
f34c 4 26 27
f350 c 22 27
f35c 4 27 27
f360 4 20 27
f364 4 31 27
f368 4 25 27
f36c 4 26 27
f370 4 27 27
f374 98 31 27
f40c 24 41 27
f430 4 42 27
FUNC f434 30 0 geode::getMod()
f434 c 11 28
f440 24 12 28
FUNC f464 30 0 geodeImplicitEntry
f464 c 16 28
f470 18 18 28
f488 c 19 28
FUNC f494 18 0 GameManager::getPlayerColor()
f494 18 4905 29
FUNC f4ac 18 0 GameManager::getPlayerColor2()
f4ac 18 4909 29
FUNC f4c4 18 0 GameManager::getPlayerGlowColor()
f4c4 18 4929 29
FUNC f4dc 18 0 PlayLayer::get()
f4dc 8 7871 29
f4e4 10 7872 29
PUBLIC f500 0 <.plt ELF section in catgirldev.ingame-progress-bar-color.android64.so>
STACK CFI INIT 7f70 10 .cfa: sp 0 +
STACK CFI INIT 7f80 8 .cfa: sp 0 +
STACK CFI INIT 7f88 8 .cfa: sp 0 +
STACK CFI INIT 7f90 14 .cfa: sp 0 +
STACK CFI INIT 7fa4 1c .cfa: sp 0 +
STACK CFI INIT 7fc0 10 .cfa: sp 0 +
STACK CFI INIT 7fd0 30 .cfa: sp 0 +
STACK CFI INIT 8000 98 .cfa: sp 0 +
STACK CFI INIT 8098 2ac .cfa: sp 0 +
STACK CFI INIT 8344 8c .cfa: sp 0 +
STACK CFI INIT 83d0 30 .cfa: sp 0 +
STACK CFI INIT 8ec8 18 .cfa: sp 0 +
STACK CFI INIT 95f0 30 .cfa: sp 0 +
STACK CFI 95f4 .cfa: sp 32 +
STACK CFI 95fc .cfa: x29 32 + x19: .cfa -16 + ^ .ra: .cfa -24 + ^ x29: .cfa -32 + ^
STACK CFI 9614 .cfa: sp 32 +
STACK CFI 961c .cfa: sp 0 +
STACK CFI INIT 9620 50 .cfa: sp 0 +
STACK CFI 9624 .cfa: sp 32 +
STACK CFI 962c .cfa: x29 32 + x19: .cfa -16 + ^ .ra: .cfa -24 + ^ x29: .cfa -32 + ^
STACK CFI 9644 .cfa: sp 32 +
STACK CFI 964c .cfa: sp 0 +
STACK CFI 9650 .cfa: x29 32 +
STACK CFI 9664 .cfa: sp 32 +
STACK CFI 966c .cfa: sp 0 +
STACK CFI INIT 96e4 7c .cfa: sp 0 +
STACK CFI 96e8 .cfa: sp 48 +
STACK CFI 96f4 .cfa: x29 48 + x19: .cfa -8 + ^ x20: .cfa -16 + ^ x21: .cfa -32 + ^ .ra: .cfa -40 + ^ x29: .cfa -48 + ^
STACK CFI 9740 .cfa: sp 48 +
STACK CFI 974c .cfa: sp 0 +
STACK CFI 9750 .cfa: sp 48 +
STACK CFI 975c .cfa: sp 0 +
STACK CFI INIT 9760 4 .cfa: sp 0 +
STACK CFI INIT 9764 10 .cfa: sp 0 +
STACK CFI 9768 .cfa: sp 16 +
STACK CFI 976c .cfa: x29 16 + .ra: .cfa -8 + ^ x29: .cfa -16 + ^
STACK CFI INIT 98c8 34 .cfa: sp 0 +
STACK CFI 98cc .cfa: sp 16 +
STACK CFI 98d0 .cfa: x29 16 + .ra: .cfa -8 + ^ x29: .cfa -16 + ^
STACK CFI INIT 9a24 80 .cfa: sp 0 +
STACK CFI 9a28 .cfa: sp 48 +
STACK CFI 9a34 .cfa: x29 48 + x19: .cfa -8 + ^ x20: .cfa -16 + ^ x21: .cfa -32 + ^ .ra: .cfa -40 + ^ x29: .cfa -48 + ^
STACK CFI 9a94 .cfa: sp 48 +
STACK CFI 9aa0 .cfa: sp 0 +
STACK CFI INIT 9aa4 24 .cfa: sp 0 +
STACK CFI 9aa8 .cfa: sp 32 +
STACK CFI 9ab0 .cfa: x29 32 + x19: .cfa -16 + ^ .ra: .cfa -24 + ^ x29: .cfa -32 + ^
STACK CFI 9abc .cfa: sp 32 +
STACK CFI 9ac4 .cfa: sp 0 +
STACK CFI INIT 9e24 14 .cfa: sp 0 +
STACK CFI 9e28 .cfa: sp 16 +
STACK CFI 9e2c .cfa: x29 16 + .ra: .cfa -8 + ^ x29: .cfa -16 + ^
STACK CFI INIT 9e88 30 .cfa: sp 0 +
STACK CFI 9e8c .cfa: sp 32 +
STACK CFI 9e94 .cfa: x29 32 + x19: .cfa -16 + ^ .ra: .cfa -24 + ^ x29: .cfa -32 + ^
STACK CFI 9eac .cfa: sp 32 +
STACK CFI 9eb4 .cfa: sp 0 +
STACK CFI INIT 9eb8 34 .cfa: sp 0 +
STACK CFI 9ebc .cfa: sp 32 +
STACK CFI 9ec4 .cfa: x29 32 + x19: .cfa -16 + ^ .ra: .cfa -24 + ^ x29: .cfa -32 + ^
STACK CFI INIT a048 148 .cfa: sp 0 +
STACK CFI a04c .cfa: sp 48 +
STACK CFI a058 .cfa: x29 48 + x19: .cfa -8 + ^ x20: .cfa -16 + ^ x21: .cfa -32 + ^ .ra: .cfa -40 + ^ x29: .cfa -48 + ^
STACK CFI a180 .cfa: sp 48 +
STACK CFI a18c .cfa: sp 0 +
STACK CFI INIT a190 88 .cfa: sp 0 +
STACK CFI a198 .cfa: sp 48 +
STACK CFI a1a4 .cfa: x29 48 + x19: .cfa -8 + ^ x20: .cfa -16 + ^ x21: .cfa -24 + ^ x22: .cfa -32 + ^ .ra: .cfa -40 + ^ x29: .cfa -48 + ^
STACK CFI a208 .cfa: sp 48 +
STACK CFI a214 .cfa: sp 0 +
STACK CFI INIT a218 84 .cfa: sp 0 +
STACK CFI a21c .cfa: sp 48 +
STACK CFI a228 .cfa: x29 48 + x19: .cfa -8 + ^ x20: .cfa -16 + ^ x21: .cfa -24 + ^ x22: .cfa -32 + ^ .ra: .cfa -40 + ^ x29: .cfa -48 + ^
STACK CFI a284 .cfa: sp 48 +
STACK CFI a290 .cfa: sp 0 +
STACK CFI a294 .cfa: x29 48 +
STACK CFI INIT a29c 68 .cfa: sp 0 +
STACK CFI a2a0 .cfa: sp 32 +
STACK CFI a2a8 .cfa: x29 32 + x19: .cfa -8 + ^ x20: .cfa -16 + ^ .ra: .cfa -24 + ^ x29: .cfa -32 + ^
STACK CFI a2c0 .cfa: sp 32 +
STACK CFI a2c8 .cfa: sp 0 +
STACK CFI a2cc .cfa: x29 32 +
STACK CFI a2f8 .cfa: sp 32 +
STACK CFI a300 .cfa: sp 0 +
STACK CFI INIT a304 14 .cfa: sp 0 +
STACK CFI a308 .cfa: sp 16 +
STACK CFI a30c .cfa: x29 16 + .ra: .cfa -8 + ^ x29: .cfa -16 + ^
STACK CFI INIT a318 4 .cfa: sp 0 +
STACK CFI INIT a31c 14 .cfa: sp 0 +
STACK CFI INIT a330 84 .cfa: sp 0 +
STACK CFI a338 .cfa: sp 32 +
STACK CFI a340 .cfa: x29 32 + x19: .cfa -8 + ^ x20: .cfa -16 + ^ .ra: .cfa -24 + ^ x29: .cfa -32 + ^
STACK CFI a380 .cfa: sp 32 +
STACK CFI a388 .cfa: sp 0 +
STACK CFI a390 .cfa: x29 32 +
STACK CFI INIT a850 50 .cfa: sp 0 +
STACK CFI a854 .cfa: sp 32 +
STACK CFI a85c .cfa: x29 32 + x19: .cfa -16 + ^ .ra: .cfa -24 + ^ x29: .cfa -32 + ^
STACK CFI a874 .cfa: sp 32 +
STACK CFI a87c .cfa: sp 0 +
STACK CFI a880 .cfa: x29 32 +
STACK CFI a894 .cfa: sp 32 +
STACK CFI a89c .cfa: sp 0 +
STACK CFI INIT a8a0 64 .cfa: sp 0 +
STACK CFI a8a4 .cfa: sp 32 +
STACK CFI a8ac .cfa: x29 32 + x19: .cfa -16 + ^ .ra: .cfa -24 + ^ x29: .cfa -32 + ^
STACK CFI a8d8 .cfa: sp 32 +
STACK CFI a8e0 .cfa: sp 0 +
STACK CFI a8e4 .cfa: x29 32 +
STACK CFI a8f8 .cfa: sp 32 +
STACK CFI a900 .cfa: sp 0 +
STACK CFI INIT b3c8 b8 .cfa: sp 0 +
STACK CFI b3cc .cfa: sp 64 +
STACK CFI b3dc .cfa: x29 64 + x19: .cfa -8 + ^ x20: .cfa -16 + ^ x21: .cfa -24 + ^ x22: .cfa -32 + ^ x23: .cfa -40 + ^ x24: .cfa -48 + ^ .ra: .cfa -56 + ^ x29: .cfa -64 + ^
STACK CFI b464 .cfa: sp 64 +
STACK CFI b474 .cfa: sp 0 +
STACK CFI b478 .cfa: x29 64 +
STACK CFI INIT b480 b8 .cfa: sp 0 +
STACK CFI b484 .cfa: sp 64 +
STACK CFI b494 .cfa: x29 64 + x19: .cfa -8 + ^ x20: .cfa -16 + ^ x21: .cfa -24 + ^ x22: .cfa -32 + ^ x23: .cfa -40 + ^ x24: .cfa -48 + ^ .ra: .cfa -56 + ^ x29: .cfa -64 + ^
STACK CFI b51c .cfa: sp 64 +
STACK CFI b52c .cfa: sp 0 +
STACK CFI b530 .cfa: x29 64 +
STACK CFI INIT badc 70 .cfa: sp 0 +
STACK CFI bae0 .cfa: sp 48 +
STACK CFI baec .cfa: x29 48 + x19: .cfa -8 + ^ x20: .cfa -16 + ^ x21: .cfa -32 + ^ .ra: .cfa -40 + ^ x29: .cfa -48 + ^
STACK CFI bb04 .cfa: sp 48 +
STACK CFI bb10 .cfa: sp 0 +
STACK CFI bb14 .cfa: x29 48 +
STACK CFI bb3c .cfa: sp 48 +
STACK CFI bb48 .cfa: sp 0 +
STACK CFI INIT bb4c 68 .cfa: sp 0 +
STACK CFI bb50 .cfa: sp 32 +
STACK CFI bb58 .cfa: x29 32 + x19: .cfa -8 + ^ x20: .cfa -16 + ^ .ra: .cfa -24 + ^ x29: .cfa -32 + ^
STACK CFI bb74 .cfa: sp 32 +
STACK CFI bb7c .cfa: sp 0 +
STACK CFI bb80 .cfa: x29 32 +
STACK CFI bba8 .cfa: sp 32 +
STACK CFI bbb0 .cfa: sp 0 +
STACK CFI INIT bbb4 50 .cfa: sp 0 +
STACK CFI bbd8 .cfa: sp 32 +
STACK CFI bbe0 .cfa: x29 32 + x19: .cfa -16 + ^ .ra: .cfa -24 + ^ x29: .cfa -32 + ^
STACK CFI bbf4 .cfa: sp 32 +
STACK CFI bbfc .cfa: sp 0 +
STACK CFI INIT bc04 444 .cfa: sp 0 +
STACK CFI INIT c464 50 .cfa: sp 0 +
STACK CFI c468 .cfa: sp 32 +
STACK CFI c470 .cfa: x29 32 + x19: .cfa -16 + ^ .ra: .cfa -24 + ^ x29: .cfa -32 + ^
STACK CFI c488 .cfa: sp 32 +
STACK CFI c490 .cfa: sp 0 +
STACK CFI c494 .cfa: x29 32 +
STACK CFI c4a8 .cfa: sp 32 +
STACK CFI c4b0 .cfa: sp 0 +
STACK CFI INIT c4b4 4 .cfa: sp 0 +
STACK CFI INIT c4b8 38 .cfa: sp 0 +
STACK CFI c4bc .cfa: sp 32 +
STACK CFI c4c4 .cfa: x29 32 + x19: .cfa -16 + ^ .ra: .cfa -24 + ^ x29: .cfa -32 + ^
STACK CFI c4e4 .cfa: sp 32 +
STACK CFI c4ec .cfa: sp 0 +
STACK CFI INIT c4f0 18 .cfa: sp 0 +
STACK CFI INIT c508 4 .cfa: sp 0 +
STACK CFI INIT c50c 4 .cfa: sp 0 +
STACK CFI INIT c704 1c .cfa: sp 0 +
STACK CFI INIT c720 c .cfa: sp 0 +
STACK CFI INIT c72c 50 .cfa: sp 0 +
STACK CFI c730 .cfa: sp 32 +
STACK CFI c738 .cfa: x29 32 + x19: .cfa -16 + ^ .ra: .cfa -24 + ^ x29: .cfa -32 + ^
STACK CFI c750 .cfa: sp 32 +
STACK CFI c758 .cfa: sp 0 +
STACK CFI c75c .cfa: x29 32 +
STACK CFI c770 .cfa: sp 32 +
STACK CFI c778 .cfa: sp 0 +
STACK CFI INIT c77c 50 .cfa: sp 0 +
STACK CFI c780 .cfa: sp 32 +
STACK CFI c788 .cfa: x29 32 + x19: .cfa -16 + ^ .ra: .cfa -24 + ^ x29: .cfa -32 + ^
STACK CFI c7a0 .cfa: sp 32 +
STACK CFI c7a8 .cfa: sp 0 +
STACK CFI c7ac .cfa: x29 32 +
STACK CFI c7c0 .cfa: sp 32 +
STACK CFI c7c8 .cfa: sp 0 +
STACK CFI INIT c7cc d8 .cfa: sp 0 +
STACK CFI c7d0 .cfa: sp 64 +
STACK CFI c7e0 .cfa: x29 64 + x19: .cfa -8 + ^ x20: .cfa -16 + ^ x21: .cfa -24 + ^ x22: .cfa -32 + ^ x23: .cfa -48 + ^ .ra: .cfa -56 + ^ x29: .cfa -64 + ^
STACK CFI c858 .cfa: sp 64 +
STACK CFI c868 .cfa: sp 0 +
STACK CFI c86c .cfa: x29 64 +
STACK CFI INIT c8a4 ac .cfa: sp 0 +
STACK CFI c8a8 .cfa: sp 64 +
STACK CFI c8b8 .cfa: x29 64 + x19: .cfa -8 + ^ x20: .cfa -16 + ^ x21: .cfa -24 + ^ x22: .cfa -32 + ^ x23: .cfa -48 + ^ .ra: .cfa -56 + ^ x29: .cfa -64 + ^
STACK CFI c934 .cfa: sp 64 +
STACK CFI c944 .cfa: sp 0 +
STACK CFI c948 .cfa: x29 64 +
STACK CFI INIT c950 11c .cfa: sp 0 +
STACK CFI c954 .cfa: sp 64 +
STACK CFI c964 .cfa: x29 64 + x19: .cfa -8 + ^ x20: .cfa -16 + ^ x21: .cfa -24 + ^ x22: .cfa -32 + ^ x23: .cfa -40 + ^ x24: .cfa -48 + ^ .ra: .cfa -56 + ^ x29: .cfa -64 + ^
STACK CFI ca50 .cfa: sp 64 +
STACK CFI ca60 .cfa: sp 0 +
STACK CFI ca64 .cfa: x29 64 +
STACK CFI INIT ca6c 4 .cfa: sp 0 +
STACK CFI INIT cbd4 8c .cfa: sp 0 +
STACK CFI cbd8 .cfa: sp 32 +
STACK CFI cbe0 .cfa: x29 32 + x19: .cfa -8 + ^ x20: .cfa -16 + ^ .ra: .cfa -24 + ^ x29: .cfa -32 + ^
STACK CFI cc54 .cfa: sp 32 +
STACK CFI cc5c .cfa: sp 0 +
STACK CFI INIT cc60 94 .cfa: sp 0 +
STACK CFI cc64 .cfa: sp 32 +
STACK CFI cc6c .cfa: x29 32 + x19: .cfa -8 + ^ x20: .cfa -16 + ^ .ra: .cfa -24 + ^ x29: .cfa -32 + ^
STACK CFI cce8 .cfa: sp 32 +
STACK CFI ccf0 .cfa: sp 0 +
STACK CFI INIT ceac 4 .cfa: sp 0 +
STACK CFI INIT ceb0 38 .cfa: sp 0 +
STACK CFI ceb4 .cfa: sp 32 +
STACK CFI cebc .cfa: x29 32 + x19: .cfa -16 + ^ .ra: .cfa -24 + ^ x29: .cfa -32 + ^
STACK CFI cedc .cfa: sp 32 +
STACK CFI cee4 .cfa: sp 0 +
STACK CFI INIT cee8 18 .cfa: sp 0 +
STACK CFI INIT cf00 4 .cfa: sp 0 +
STACK CFI INIT cf04 4 .cfa: sp 0 +
STACK CFI INIT d0fc 1c .cfa: sp 0 +
STACK CFI INIT d118 c .cfa: sp 0 +
STACK CFI INIT d2d4 4 .cfa: sp 0 +
STACK CFI INIT d2d8 38 .cfa: sp 0 +
STACK CFI d2dc .cfa: sp 32 +
STACK CFI d2e4 .cfa: x29 32 + x19: .cfa -16 + ^ .ra: .cfa -24 + ^ x29: .cfa -32 + ^
STACK CFI d304 .cfa: sp 32 +
STACK CFI d30c .cfa: sp 0 +
STACK CFI INIT d310 18 .cfa: sp 0 +
STACK CFI INIT d328 4 .cfa: sp 0 +
STACK CFI INIT d32c 4 .cfa: sp 0 +
STACK CFI INIT d524 1c .cfa: sp 0 +
STACK CFI INIT d540 c .cfa: sp 0 +
STACK CFI INIT d54c 11c .cfa: sp 0 +
STACK CFI d550 .cfa: sp 80 +
STACK CFI d560 .cfa: x29 48 + x19: .cfa -8 + ^ x20: .cfa -16 + ^ x21: .cfa -24 + ^ x22: .cfa -32 + ^ .ra: .cfa -40 + ^ x29: .cfa -48 + ^
STACK CFI d650 .cfa: sp 80 +
STACK CFI d660 .cfa: sp 0 +
STACK CFI d664 .cfa: x29 48 +
STACK CFI INIT d81c 4 .cfa: sp 0 +
STACK CFI INIT d820 38 .cfa: sp 0 +
STACK CFI d824 .cfa: sp 32 +
STACK CFI d82c .cfa: x29 32 + x19: .cfa -16 + ^ .ra: .cfa -24 + ^ x29: .cfa -32 + ^
STACK CFI d84c .cfa: sp 32 +
STACK CFI d854 .cfa: sp 0 +
STACK CFI INIT d858 18 .cfa: sp 0 +
STACK CFI INIT d870 4 .cfa: sp 0 +
STACK CFI INIT d874 4 .cfa: sp 0 +
STACK CFI INIT d878 e8 .cfa: sp 0 +
STACK CFI d87c .cfa: sp 32 +
STACK CFI d884 .cfa: x29 32 + x19: .cfa -8 + ^ x20: .cfa -16 + ^ .ra: .cfa -24 + ^ x29: .cfa -32 + ^
STACK CFI d928 .cfa: sp 32 +
STACK CFI d930 .cfa: sp 0 +
STACK CFI d934 .cfa: x29 32 +
STACK CFI d954 .cfa: sp 32 +
STACK CFI d95c .cfa: sp 0 +
STACK CFI INIT d960 1c .cfa: sp 0 +
STACK CFI INIT d97c c .cfa: sp 0 +
STACK CFI INIT db40 4 .cfa: sp 0 +
STACK CFI INIT db44 38 .cfa: sp 0 +
STACK CFI db48 .cfa: sp 32 +
STACK CFI db50 .cfa: x29 32 + x19: .cfa -16 + ^ .ra: .cfa -24 + ^ x29: .cfa -32 + ^
STACK CFI db70 .cfa: sp 32 +
STACK CFI db78 .cfa: sp 0 +
STACK CFI INIT db7c 18 .cfa: sp 0 +
STACK CFI INIT db94 4 .cfa: sp 0 +
STACK CFI INIT db98 4 .cfa: sp 0 +
STACK CFI INIT db9c e8 .cfa: sp 0 +
STACK CFI dba0 .cfa: sp 32 +
STACK CFI dba8 .cfa: x29 32 + x19: .cfa -8 + ^ x20: .cfa -16 + ^ .ra: .cfa -24 + ^ x29: .cfa -32 + ^
STACK CFI dc4c .cfa: sp 32 +
STACK CFI dc54 .cfa: sp 0 +
STACK CFI dc58 .cfa: x29 32 +
STACK CFI dc78 .cfa: sp 32 +
STACK CFI dc80 .cfa: sp 0 +
STACK CFI INIT dc84 1c .cfa: sp 0 +
STACK CFI INIT dca0 c .cfa: sp 0 +
STACK CFI INIT de5c 4 .cfa: sp 0 +
STACK CFI INIT de60 38 .cfa: sp 0 +
STACK CFI de64 .cfa: sp 32 +
STACK CFI de6c .cfa: x29 32 + x19: .cfa -16 + ^ .ra: .cfa -24 + ^ x29: .cfa -32 + ^
STACK CFI de8c .cfa: sp 32 +
STACK CFI de94 .cfa: sp 0 +
STACK CFI INIT de98 18 .cfa: sp 0 +
STACK CFI INIT deb0 4 .cfa: sp 0 +
STACK CFI INIT deb4 4 .cfa: sp 0 +
STACK CFI INIT deb8 e8 .cfa: sp 0 +
STACK CFI debc .cfa: sp 32 +
STACK CFI dec4 .cfa: x29 32 + x19: .cfa -8 + ^ x20: .cfa -16 + ^ .ra: .cfa -24 + ^ x29: .cfa -32 + ^
STACK CFI df68 .cfa: sp 32 +
STACK CFI df70 .cfa: sp 0 +
STACK CFI df74 .cfa: x29 32 +
STACK CFI df94 .cfa: sp 32 +
STACK CFI df9c .cfa: sp 0 +
STACK CFI INIT dfa0 1c .cfa: sp 0 +
STACK CFI INIT dfbc c .cfa: sp 0 +
STACK CFI INIT dfc8 134 .cfa: sp 0 +
STACK CFI dfcc .cfa: sp 80 +
STACK CFI dfdc .cfa: x29 48 + x19: .cfa -8 + ^ x20: .cfa -16 + ^ x21: .cfa -24 + ^ x22: .cfa -32 + ^ .ra: .cfa -40 + ^ x29: .cfa -48 + ^
STACK CFI e0e4 .cfa: sp 80 +
STACK CFI e0f4 .cfa: sp 0 +
STACK CFI e0f8 .cfa: x29 48 +
STACK CFI INIT e2ac 4 .cfa: sp 0 +
STACK CFI INIT e2b0 38 .cfa: sp 0 +
STACK CFI e2b4 .cfa: sp 32 +
STACK CFI e2bc .cfa: x29 32 + x19: .cfa -16 + ^ .ra: .cfa -24 + ^ x29: .cfa -32 + ^
STACK CFI e2dc .cfa: sp 32 +
STACK CFI e2e4 .cfa: sp 0 +
STACK CFI INIT e2e8 18 .cfa: sp 0 +
STACK CFI INIT e300 4 .cfa: sp 0 +
STACK CFI INIT e304 4 .cfa: sp 0 +
STACK CFI INIT e308 dc .cfa: sp 0 +
STACK CFI e30c .cfa: sp 32 +
STACK CFI e314 .cfa: x29 32 + x19: .cfa -8 + ^ x20: .cfa -16 + ^ .ra: .cfa -24 + ^ x29: .cfa -32 + ^
STACK CFI e3ac .cfa: sp 32 +
STACK CFI e3b4 .cfa: sp 0 +
STACK CFI e3b8 .cfa: x29 32 +
STACK CFI e3d8 .cfa: sp 32 +
STACK CFI e3e0 .cfa: sp 0 +
STACK CFI INIT e3e4 1c .cfa: sp 0 +
STACK CFI INIT e400 c .cfa: sp 0 +
STACK CFI INIT e40c 12c .cfa: sp 0 +
STACK CFI e410 .cfa: sp 96 +
STACK CFI e424 .cfa: x29 48 + x19: .cfa -8 + ^ x20: .cfa -16 + ^ x21: .cfa -24 + ^ x22: .cfa -32 + ^ .ra: .cfa -40 + ^ x29: .cfa -48 + ^ v8: .cfa -64 + ^
STACK CFI e51c .cfa: sp 96 +
STACK CFI e530 .cfa: sp 0 +
STACK CFI e534 .cfa: x29 48 +
STACK CFI INIT e6ec 4 .cfa: sp 0 +
STACK CFI INIT e6f0 38 .cfa: sp 0 +
STACK CFI e6f4 .cfa: sp 32 +
STACK CFI e6fc .cfa: x29 32 + x19: .cfa -16 + ^ .ra: .cfa -24 + ^ x29: .cfa -32 + ^
STACK CFI e71c .cfa: sp 32 +
STACK CFI e724 .cfa: sp 0 +
STACK CFI INIT e728 18 .cfa: sp 0 +
STACK CFI INIT e740 4 .cfa: sp 0 +
STACK CFI INIT e744 4 .cfa: sp 0 +
STACK CFI INIT e748 dc .cfa: sp 0 +
STACK CFI e74c .cfa: sp 32 +
STACK CFI e754 .cfa: x29 32 + x19: .cfa -8 + ^ x20: .cfa -16 + ^ .ra: .cfa -24 + ^ x29: .cfa -32 + ^
STACK CFI e7ec .cfa: sp 32 +
STACK CFI e7f4 .cfa: sp 0 +
STACK CFI e7f8 .cfa: x29 32 +
STACK CFI e818 .cfa: sp 32 +
STACK CFI e820 .cfa: sp 0 +
STACK CFI INIT e824 1c .cfa: sp 0 +
STACK CFI INIT e840 c .cfa: sp 0 +
STACK CFI INIT ea00 4 .cfa: sp 0 +
STACK CFI INIT ea04 38 .cfa: sp 0 +
STACK CFI ea08 .cfa: sp 32 +
STACK CFI ea10 .cfa: x29 32 + x19: .cfa -16 + ^ .ra: .cfa -24 + ^ x29: .cfa -32 + ^
STACK CFI ea30 .cfa: sp 32 +
STACK CFI ea38 .cfa: sp 0 +
STACK CFI INIT ea3c 18 .cfa: sp 0 +
STACK CFI INIT ea54 4 .cfa: sp 0 +
STACK CFI INIT ea58 4 .cfa: sp 0 +
STACK CFI INIT ea5c dc .cfa: sp 0 +
STACK CFI ea60 .cfa: sp 32 +
STACK CFI ea68 .cfa: x29 32 + x19: .cfa -8 + ^ x20: .cfa -16 + ^ .ra: .cfa -24 + ^ x29: .cfa -32 + ^
STACK CFI eb00 .cfa: sp 32 +
STACK CFI eb08 .cfa: sp 0 +
STACK CFI eb0c .cfa: x29 32 +
STACK CFI eb2c .cfa: sp 32 +
STACK CFI eb34 .cfa: sp 0 +
STACK CFI INIT eb38 1c .cfa: sp 0 +
STACK CFI INIT eb54 c .cfa: sp 0 +
STACK CFI INIT ed10 4 .cfa: sp 0 +
STACK CFI INIT ed14 4 .cfa: sp 0 +
STACK CFI INIT ed18 38 .cfa: sp 0 +
STACK CFI ed1c .cfa: sp 32 +
STACK CFI ed24 .cfa: x29 32 + x19: .cfa -16 + ^ .ra: .cfa -24 + ^ x29: .cfa -32 + ^
STACK CFI ed44 .cfa: sp 32 +
STACK CFI ed4c .cfa: sp 0 +
STACK CFI INIT ed50 18 .cfa: sp 0 +
STACK CFI INIT ed68 4 .cfa: sp 0 +
STACK CFI INIT ed6c 4 .cfa: sp 0 +
STACK CFI INIT ed70 dc .cfa: sp 0 +
STACK CFI ed74 .cfa: sp 32 +
STACK CFI ed7c .cfa: x29 32 + x19: .cfa -8 + ^ x20: .cfa -16 + ^ .ra: .cfa -24 + ^ x29: .cfa -32 + ^
STACK CFI ee14 .cfa: sp 32 +
STACK CFI ee1c .cfa: sp 0 +
STACK CFI ee20 .cfa: x29 32 +
STACK CFI ee40 .cfa: sp 32 +
STACK CFI ee48 .cfa: sp 0 +
STACK CFI INIT ee4c 1c .cfa: sp 0 +
STACK CFI INIT ee68 c .cfa: sp 0 +
STACK CFI INIT ee74 104 .cfa: sp 0 +
STACK CFI ee78 .cfa: sp 80 +
STACK CFI ee8c .cfa: x29 80 + x19: .cfa -8 + ^ x20: .cfa -16 + ^ x21: .cfa -24 + ^ x22: .cfa -32 + ^ x23: .cfa -40 + ^ x24: .cfa -48 + ^ x25: .cfa -56 + ^ x26: .cfa -64 + ^ .ra: .cfa -72 + ^ x29: .cfa -80 + ^
STACK CFI ef60 .cfa: sp 80 +
STACK CFI ef74 .cfa: sp 0 +
STACK CFI INIT ef78 194 .cfa: sp 0 +
STACK CFI INIT f310 124 .cfa: sp 0 +
STACK CFI INIT f434 30 .cfa: sp 0 +
STACK CFI f438 .cfa: sp 32 +
STACK CFI f440 .cfa: x29 32 + x19: .cfa -16 + ^ .ra: .cfa -24 + ^ x29: .cfa -32 + ^
STACK CFI f458 .cfa: sp 32 +
STACK CFI f460 .cfa: sp 0 +
STACK CFI INIT f464 30 .cfa: sp 0 +
STACK CFI f468 .cfa: sp 32 +
STACK CFI f470 .cfa: x29 32 + x19: .cfa -16 + ^ .ra: .cfa -24 + ^ x29: .cfa -32 + ^
STACK CFI f488 .cfa: sp 32 +
STACK CFI f490 .cfa: sp 0 +
STACK CFI INIT f494 18 .cfa: sp 0 +
STACK CFI INIT f4ac 18 .cfa: sp 0 +
STACK CFI INIT f4c4 18 .cfa: sp 0 +
STACK CFI INIT f4dc 18 .cfa: sp 0 +
STACK CFI f4e0 .cfa: sp 16 +
STACK CFI f4e4 .cfa: x29 16 + .ra: .cfa -8 + ^ x29: .cfa -16 + ^
STACK CFI f4ec .cfa: sp 16 +
STACK CFI f4f0 .cfa: sp 0 +
STACK CFI INIT 8400 ac8 .cfa: sp 0 +
STACK CFI 8404 .cfa: sp 240 +
STACK CFI 8420 .cfa: x29 96 + x19: .cfa -8 + ^ x20: .cfa -16 + ^ x21: .cfa -24 + ^ x22: .cfa -32 + ^ x23: .cfa -40 + ^ x24: .cfa -48 + ^ x25: .cfa -56 + ^ x26: .cfa -64 + ^ x27: .cfa -72 + ^ x28: .cfa -80 + ^ .ra: .cfa -88 + ^ x29: .cfa -96 + ^
STACK CFI 876c .cfa: sp 240 +
STACK CFI 8788 .cfa: sp 0 +
STACK CFI 878c .cfa: x29 96 +
STACK CFI 8d74 .cfa: sp 240 +
STACK CFI 8d90 .cfa: sp 0 +
STACK CFI 8d94 .cfa: x29 96 +
STACK CFI INIT 8ee0 710 .cfa: sp 0 +
STACK CFI 8ee4 .cfa: sp 176 +
STACK CFI 8ef8 .cfa: x29 64 + x19: .cfa -8 + ^ x20: .cfa -16 + ^ x21: .cfa -24 + ^ x22: .cfa -32 + ^ x23: .cfa -40 + ^ x24: .cfa -48 + ^ .ra: .cfa -56 + ^ x29: .cfa -64 + ^
STACK CFI 9440 .cfa: sp 176 +
STACK CFI 9454 .cfa: sp 0 +
STACK CFI 9458 .cfa: x29 64 +
STACK CFI INIT 9670 74 .cfa: sp 0 +
STACK CFI 9674 .cfa: sp 48 +
STACK CFI 9680 .cfa: x29 32 + x19: .cfa -8 + ^ x20: .cfa -16 + ^ .ra: .cfa -24 + ^ x29: .cfa -32 + ^
STACK CFI 96cc .cfa: sp 48 +
STACK CFI 96d8 .cfa: sp 0 +
STACK CFI 96dc .cfa: x29 32 +
STACK CFI INIT 9774 154 .cfa: sp 0 +
STACK CFI 9778 .cfa: sp 384 +
STACK CFI 978c .cfa: x29 64 + x19: .cfa -8 + ^ x20: .cfa -16 + ^ x21: .cfa -24 + ^ x22: .cfa -32 + ^ x23: .cfa -40 + ^ x28: .cfa -48 + ^ .ra: .cfa -56 + ^ x29: .cfa -64 + ^
STACK CFI 9870 .cfa: sp 384 +
STACK CFI 9884 .cfa: sp 0 +
STACK CFI 9888 .cfa: x29 64 +
STACK CFI INIT 98fc 128 .cfa: sp 0 +
STACK CFI 9900 .cfa: sp 80 +
STACK CFI 9914 .cfa: x29 80 + x19: .cfa -8 + ^ x20: .cfa -16 + ^ x21: .cfa -24 + ^ x22: .cfa -32 + ^ x23: .cfa -40 + ^ x24: .cfa -48 + ^ x25: .cfa -56 + ^ x26: .cfa -64 + ^ .ra: .cfa -72 + ^ x29: .cfa -80 + ^
STACK CFI 99e4 .cfa: sp 80 +
STACK CFI 99f8 .cfa: sp 0 +
STACK CFI 99fc .cfa: x29 80 +
STACK CFI INIT 9ac8 198 .cfa: sp 0 +
STACK CFI 9acc .cfa: sp 112 +
STACK CFI 9ae4 .cfa: x29 80 + x19: .cfa -8 + ^ x20: .cfa -16 + ^ x21: .cfa -24 + ^ x22: .cfa -32 + ^ x23: .cfa -40 + ^ x24: .cfa -48 + ^ x25: .cfa -56 + ^ x26: .cfa -64 + ^ .ra: .cfa -72 + ^ x29: .cfa -80 + ^
STACK CFI 9bd4 .cfa: sp 112 +
STACK CFI 9bec .cfa: sp 0 +
STACK CFI 9bf0 .cfa: x29 80 +
STACK CFI INIT 9c60 1c4 .cfa: sp 0 +
STACK CFI 9c64 .cfa: sp 128 +
STACK CFI 9c80 .cfa: x29 96 + x19: .cfa -8 + ^ x20: .cfa -16 + ^ x21: .cfa -24 + ^ x22: .cfa -32 + ^ x23: .cfa -40 + ^ x24: .cfa -48 + ^ x25: .cfa -56 + ^ x26: .cfa -64 + ^ x27: .cfa -80 + ^ .ra: .cfa -88 + ^ x29: .cfa -96 + ^
STACK CFI 9dd4 .cfa: sp 128 +
STACK CFI 9df0 .cfa: sp 0 +
STACK CFI 9df4 .cfa: x29 96 +
STACK CFI INIT 9e38 50 .cfa: sp 0 +
STACK CFI 9e3c .cfa: sp 32 +
STACK CFI 9e44 .cfa: x29 32 + x19: .cfa -8 + ^ x20: .cfa -16 + ^ .ra: .cfa -24 + ^ x29: .cfa -32 + ^
STACK CFI INIT 9eec 15c .cfa: sp 0 +
STACK CFI 9ef0 .cfa: sp 48 +
STACK CFI 9efc .cfa: x29 48 + x19: .cfa -8 + ^ x20: .cfa -16 + ^ x21: .cfa -32 + ^ .ra: .cfa -40 + ^ x29: .cfa -48 + ^
STACK CFI a01c .cfa: sp 48 +
STACK CFI a028 .cfa: sp 0 +
STACK CFI a02c .cfa: x29 48 +
STACK CFI INIT a3b4 134 .cfa: sp 0 +
STACK CFI a3b8 .cfa: sp 128 +
STACK CFI a3cc .cfa: x29 64 + x19: .cfa -8 + ^ x20: .cfa -16 + ^ x21: .cfa -24 + ^ x22: .cfa -32 + ^ x23: .cfa -40 + ^ x24: .cfa -48 + ^ .ra: .cfa -56 + ^ x29: .cfa -64 + ^
STACK CFI a498 .cfa: sp 128 +
STACK CFI a4ac .cfa: sp 0 +
STACK CFI a4b0 .cfa: x29 64 +
STACK CFI INIT a4e8 64 .cfa: sp 0 +
STACK CFI a4ec .cfa: sp 48 +
STACK CFI a4f8 .cfa: x29 48 + x19: .cfa -8 + ^ x20: .cfa -16 + ^ x21: .cfa -32 + ^ .ra: .cfa -40 + ^ x29: .cfa -48 + ^
STACK CFI a528 .cfa: sp 48 +
STACK CFI a534 .cfa: sp 0 +
STACK CFI a538 .cfa: x29 48 +
STACK CFI INIT a54c 60 .cfa: sp 0 +
STACK CFI a550 .cfa: sp 48 +
STACK CFI a55c .cfa: x29 48 + x19: .cfa -8 + ^ x20: .cfa -16 + ^ x21: .cfa -32 + ^ .ra: .cfa -40 + ^ x29: .cfa -48 + ^
STACK CFI a588 .cfa: sp 48 +
STACK CFI a594 .cfa: sp 0 +
STACK CFI a598 .cfa: x29 48 +
STACK CFI INIT a5ac 2a4 .cfa: sp 0 +
STACK CFI a5b0 .cfa: sp 96 +
STACK CFI a5c8 .cfa: x29 80 + x19: .cfa -8 + ^ x20: .cfa -16 + ^ x21: .cfa -24 + ^ x22: .cfa -32 + ^ x23: .cfa -40 + ^ x24: .cfa -48 + ^ x25: .cfa -64 + ^ .ra: .cfa -72 + ^ x29: .cfa -80 + ^
STACK CFI a808 .cfa: sp 96 +
STACK CFI a820 .cfa: sp 0 +
STACK CFI a824 .cfa: x29 80 +
STACK CFI INIT a904 5dc .cfa: sp 0 +
STACK CFI a908 .cfa: sp 80 +
STACK CFI a918 .cfa: x29 48 + x19: .cfa -8 + ^ x20: .cfa -16 + ^ x21: .cfa -32 + ^ .ra: .cfa -40 + ^ x29: .cfa -48 + ^
STACK CFI ab48 .cfa: sp 80 +
STACK CFI ab58 .cfa: sp 0 +
STACK CFI ab5c .cfa: x29 48 +
STACK CFI INIT aee0 468 .cfa: sp 0 +
STACK CFI aee4 .cfa: sp 320 +
STACK CFI af00 .cfa: x29 96 + x19: .cfa -8 + ^ x20: .cfa -16 + ^ x21: .cfa -24 + ^ x22: .cfa -32 + ^ x23: .cfa -40 + ^ x24: .cfa -48 + ^ x25: .cfa -56 + ^ x26: .cfa -64 + ^ x27: .cfa -72 + ^ x28: .cfa -80 + ^ .ra: .cfa -88 + ^ x29: .cfa -96 + ^
STACK CFI b06c .cfa: sp 320 +
STACK CFI b088 .cfa: sp 0 +
STACK CFI b08c .cfa: x29 96 +
STACK CFI INIT b348 80 .cfa: sp 0 +
STACK CFI b34c .cfa: sp 32 +
STACK CFI b354 .cfa: x29 32 + x19: .cfa -16 + ^ .ra: .cfa -24 + ^ x29: .cfa -32 + ^
STACK CFI b36c .cfa: sp 32 +
STACK CFI b374 .cfa: sp 0 +
STACK CFI b378 .cfa: x29 32 +
STACK CFI INIT b538 5a4 .cfa: sp 0 +
STACK CFI b53c .cfa: sp 160 +
STACK CFI b558 .cfa: x29 96 + x19: .cfa -8 + ^ x20: .cfa -16 + ^ x21: .cfa -24 + ^ x22: .cfa -32 + ^ x23: .cfa -40 + ^ x24: .cfa -48 + ^ x25: .cfa -56 + ^ x26: .cfa -64 + ^ x27: .cfa -72 + ^ x28: .cfa -80 + ^ .ra: .cfa -88 + ^ x29: .cfa -96 + ^
STACK CFI ba64 .cfa: sp 160 +
STACK CFI ba80 .cfa: sp 0 +
STACK CFI ba84 .cfa: x29 96 +
STACK CFI INIT c048 180 .cfa: sp 0 +
STACK CFI c04c .cfa: sp 96 +
STACK CFI c05c .cfa: x29 48 + x19: .cfa -8 + ^ x20: .cfa -16 + ^ x21: .cfa -24 + ^ x22: .cfa -32 + ^ .ra: .cfa -40 + ^ x29: .cfa -48 + ^
STACK CFI c148 .cfa: sp 96 +
STACK CFI c158 .cfa: sp 0 +
STACK CFI c15c .cfa: x29 48 +
STACK CFI INIT c1c8 1b4 .cfa: sp 0 +
STACK CFI c1cc .cfa: sp 176 +
STACK CFI c1dc .cfa: x29 48 + x19: .cfa -8 + ^ x20: .cfa -16 + ^ x21: .cfa -32 + ^ .ra: .cfa -40 + ^ x29: .cfa -48 + ^
STACK CFI c2e8 .cfa: sp 176 +
STACK CFI c2f8 .cfa: sp 0 +
STACK CFI c2fc .cfa: x29 48 +
STACK CFI INIT c37c e8 .cfa: sp 0 +
STACK CFI c380 .cfa: sp 48 +
STACK CFI c38c .cfa: x29 48 + x19: .cfa -8 + ^ x20: .cfa -16 + ^ x21: .cfa -32 + ^ .ra: .cfa -40 + ^ x29: .cfa -48 + ^
STACK CFI c3f8 .cfa: sp 48 +
STACK CFI c404 .cfa: sp 0 +
STACK CFI c408 .cfa: x29 48 +
STACK CFI INIT c510 1f4 .cfa: sp 0 +
STACK CFI c514 .cfa: sp 112 +
STACK CFI c524 .cfa: x29 48 + x19: .cfa -8 + ^ x20: .cfa -16 + ^ x21: .cfa -32 + ^ .ra: .cfa -40 + ^ x29: .cfa -48 + ^
STACK CFI c6a8 .cfa: sp 112 +
STACK CFI c6b8 .cfa: sp 0 +
STACK CFI c6bc .cfa: x29 48 +
STACK CFI INIT ca70 164 .cfa: sp 0 +
STACK CFI ca74 .cfa: sp 112 +
STACK CFI ca84 .cfa: x29 48 + x19: .cfa -8 + ^ x20: .cfa -16 + ^ x21: .cfa -24 + ^ x22: .cfa -32 + ^ .ra: .cfa -40 + ^ x29: .cfa -48 + ^
STACK CFI cb70 .cfa: sp 112 +
STACK CFI cb80 .cfa: sp 0 +
STACK CFI cb84 .cfa: x29 48 +
STACK CFI INIT ccf4 1b8 .cfa: sp 0 +
STACK CFI ccf8 .cfa: sp 176 +
STACK CFI cd08 .cfa: x29 48 + x19: .cfa -8 + ^ x20: .cfa -16 + ^ x21: .cfa -32 + ^ .ra: .cfa -40 + ^ x29: .cfa -48 + ^
STACK CFI ce18 .cfa: sp 176 +
STACK CFI ce28 .cfa: sp 0 +
STACK CFI ce2c .cfa: x29 48 +
STACK CFI INIT cf08 1f4 .cfa: sp 0 +
STACK CFI cf0c .cfa: sp 112 +
STACK CFI cf1c .cfa: x29 48 + x19: .cfa -8 + ^ x20: .cfa -16 + ^ x21: .cfa -32 + ^ .ra: .cfa -40 + ^ x29: .cfa -48 + ^
STACK CFI d0a0 .cfa: sp 112 +
STACK CFI d0b0 .cfa: sp 0 +
STACK CFI d0b4 .cfa: x29 48 +
STACK CFI INIT d124 1b0 .cfa: sp 0 +
STACK CFI d128 .cfa: sp 176 +
STACK CFI d138 .cfa: x29 48 + x19: .cfa -8 + ^ x20: .cfa -16 + ^ x21: .cfa -32 + ^ .ra: .cfa -40 + ^ x29: .cfa -48 + ^
STACK CFI d240 .cfa: sp 176 +
STACK CFI d250 .cfa: sp 0 +
STACK CFI d254 .cfa: x29 48 +
STACK CFI INIT d330 1f4 .cfa: sp 0 +
STACK CFI d334 .cfa: sp 112 +
STACK CFI d344 .cfa: x29 48 + x19: .cfa -8 + ^ x20: .cfa -16 + ^ x21: .cfa -32 + ^ .ra: .cfa -40 + ^ x29: .cfa -48 + ^
STACK CFI d4c8 .cfa: sp 112 +
STACK CFI d4d8 .cfa: sp 0 +
STACK CFI d4dc .cfa: x29 48 +
STACK CFI INIT d668 1b4 .cfa: sp 0 +
STACK CFI d66c .cfa: sp 176 +
STACK CFI d67c .cfa: x29 48 + x19: .cfa -8 + ^ x20: .cfa -16 + ^ x21: .cfa -32 + ^ .ra: .cfa -40 + ^ x29: .cfa -48 + ^
STACK CFI d788 .cfa: sp 176 +
STACK CFI d798 .cfa: sp 0 +
STACK CFI d79c .cfa: x29 48 +
STACK CFI INIT d988 1b8 .cfa: sp 0 +
STACK CFI d98c .cfa: sp 176 +
STACK CFI d99c .cfa: x29 48 + x19: .cfa -8 + ^ x20: .cfa -16 + ^ x21: .cfa -32 + ^ .ra: .cfa -40 + ^ x29: .cfa -48 + ^
STACK CFI daac .cfa: sp 176 +
STACK CFI dabc .cfa: sp 0 +
STACK CFI dac0 .cfa: x29 48 +
STACK CFI INIT dcac 1b0 .cfa: sp 0 +
STACK CFI dcb0 .cfa: sp 176 +
STACK CFI dcc0 .cfa: x29 48 + x19: .cfa -8 + ^ x20: .cfa -16 + ^ x21: .cfa -32 + ^ .ra: .cfa -40 + ^ x29: .cfa -48 + ^
STACK CFI ddc8 .cfa: sp 176 +
STACK CFI ddd8 .cfa: sp 0 +
STACK CFI dddc .cfa: x29 48 +
STACK CFI INIT e0fc 1b0 .cfa: sp 0 +
STACK CFI e100 .cfa: sp 176 +
STACK CFI e110 .cfa: x29 48 + x19: .cfa -8 + ^ x20: .cfa -16 + ^ x21: .cfa -32 + ^ .ra: .cfa -40 + ^ x29: .cfa -48 + ^
STACK CFI e218 .cfa: sp 176 +
STACK CFI e228 .cfa: sp 0 +
STACK CFI e22c .cfa: x29 48 +
STACK CFI INIT e538 1b4 .cfa: sp 0 +
STACK CFI e53c .cfa: sp 176 +
STACK CFI e54c .cfa: x29 48 + x19: .cfa -8 + ^ x20: .cfa -16 + ^ x21: .cfa -32 + ^ .ra: .cfa -40 + ^ x29: .cfa -48 + ^
STACK CFI e658 .cfa: sp 176 +
STACK CFI e668 .cfa: sp 0 +
STACK CFI e66c .cfa: x29 48 +
STACK CFI INIT e84c 1b4 .cfa: sp 0 +
STACK CFI e850 .cfa: sp 176 +
STACK CFI e860 .cfa: x29 48 + x19: .cfa -8 + ^ x20: .cfa -16 + ^ x21: .cfa -32 + ^ .ra: .cfa -40 + ^ x29: .cfa -48 + ^
STACK CFI e96c .cfa: sp 176 +
STACK CFI e97c .cfa: sp 0 +
STACK CFI e980 .cfa: x29 48 +
STACK CFI INIT eb60 1b0 .cfa: sp 0 +
STACK CFI eb64 .cfa: sp 176 +
STACK CFI eb74 .cfa: x29 48 + x19: .cfa -8 + ^ x20: .cfa -16 + ^ x21: .cfa -32 + ^ .ra: .cfa -40 + ^ x29: .cfa -48 + ^
STACK CFI ec7c .cfa: sp 176 +
STACK CFI ec8c .cfa: sp 0 +
STACK CFI ec90 .cfa: x29 48 +
STACK CFI INIT f10c 204 .cfa: sp 0 +
STACK CFI f110 .cfa: sp 80 +
STACK CFI f120 .cfa: x29 48 + x19: .cfa -8 + ^ x20: .cfa -16 + ^ x21: .cfa -24 + ^ x22: .cfa -32 + ^ .ra: .cfa -40 + ^ x29: .cfa -48 + ^
STACK CFI f2a4 .cfa: sp 80 +
STACK CFI f2b4 .cfa: sp 0 +
STACK CFI f2b8 .cfa: x29 48 +
