MODULE Linux arm64 1E667B65F9FF8917377F1224EA67A8450 b1rtek.gddlintegration.android64.so
INFO CODE_ID 657B661EFFF91789377F1224EA67A845DB265074
INFO GENERATOR mozilla/dump_syms 2.3.4
PUBLIC 38eb0 0 __on_dlclose
PUBLIC 38ec0 0 __emutls_unregister_key
PUBLIC 38ec8 0 __on_dlclose_late
PUBLIC 38ed0 0 __atexit_handler_wrapper
PUBLIC 38ee4 0 atexit
PUBLIC 38f00 0 pthread_atfork
PUBLIC 38f10 0 __cxx_global_var_init
PUBLIC 3bc90 0 Skillset::Skillset(std::__ndk1::basic_string<char, std::__ndk1::char_traits<char>, std::__ndk1::allocator<char> > const&, std::__ndk1::basic_string<char, std::__ndk1::char_traits<char>, std::__ndk1::allocator<char> > const&, std::__ndk1::basic_string<char, std::__ndk1::char_traits<char>, std::__ndk1::allocator<char> > const&)
PUBLIC 3bd98 0 Skillset::~Skillset()
PUBLIC 3bdfc 0 std::__ndk1::vector<Skillset, std::__ndk1::allocator<Skillset> >::~vector[abi:ne180000]()
PUBLIC 3beb8 0 __cxx_global_var_init.60
PUBLIC 3bf24 0 std::__ndk1::map<int, RatingsSpread, std::__ndk1::less<int>, std::__ndk1::allocator<std::__ndk1::pair<int const, RatingsSpread> > >::~map[abi:ne180000]()
PUBLIC 3bf2c 0 __cxx_global_var_init.61
PUBLIC 3bf98 0 std::__ndk1::map<int, Skillsets, std::__ndk1::less<int>, std::__ndk1::allocator<std::__ndk1::pair<int const, Skillsets> > >::~map[abi:ne180000]()
PUBLIC 3bfa0 0 __cxx_global_var_init.62
PUBLIC 3c00c 0 std::__ndk1::map<int, Submission, std::__ndk1::less<int>, std::__ndk1::allocator<std::__ndk1::pair<int const, Submission> > >::~map[abi:ne180000]()
PUBLIC 3c014 0 __cxx_global_var_init.63
PUBLIC 3c190 0 __cxx_global_var_init.65
PUBLIC 3c25c 0 __cxx_global_var_init.67
PUBLIC 3c528 0 std::__ndk1::vector<std::__ndk1::basic_string<char, std::__ndk1::char_traits<char>, std::__ndk1::allocator<char> >, std::__ndk1::allocator<std::__ndk1::basic_string<char, std::__ndk1::char_traits<char>, std::__ndk1::allocator<char> > > >::vector[abi:ne180000](std::initializer_list<std::__ndk1::basic_string<char, std::__ndk1::char_traits<char>, std::__ndk1::allocator<char> > >)
PUBLIC 3c680 0 std::__ndk1::vector<std::__ndk1::basic_string<char, std::__ndk1::char_traits<char>, std::__ndk1::allocator<char> >, std::__ndk1::allocator<std::__ndk1::basic_string<char, std::__ndk1::char_traits<char>, std::__ndk1::allocator<char> > > >::~vector[abi:ne180000]()
PUBLIC 3c6fc 0 __cxx_global_var_init.75
PUBLIC 3c7c0 0 std::__ndk1::map<int, GDDLRating, std::__ndk1::less<int>, std::__ndk1::allocator<std::__ndk1::pair<int const, GDDLRating> > >::~map[abi:ne180000]()
PUBLIC 3c7c8 0 std::__ndk1::vector<int, std::__ndk1::allocator<int> >::~vector[abi:ne180000]()
PUBLIC 3c7e0 0 std::__ndk1::map<int, int, std::__ndk1::less<int>, std::__ndk1::allocator<std::__ndk1::pair<int const, int> > >::~map[abi:ne180000]()
PUBLIC 3c7e8 0 geode::impl::ResultData<matjson::Value, matjson::ParseError>::~ResultData()
PUBLIC 3c85c 0 RatingsManager::populateFromSave()
PUBLIC 3d050 0 std::__ndk1::basic_stringstream<char, std::__ndk1::char_traits<char>, std::__ndk1::allocator<char> >::basic_stringstream[abi:ne180000]()
PUBLIC 3d17c 0 geode::impl::ResultData<long, std::__ndk1::basic_string<char, std::__ndk1::char_traits<char>, std::__ndk1::allocator<char> > >::~ResultData()
PUBLIC 3d1f0 0 geode::impl::ResultData<std::__ndk1::vector<matjson::Value, std::__ndk1::allocator<matjson::Value> >&, std::__ndk1::basic_string<char, std::__ndk1::char_traits<char>, std::__ndk1::allocator<char> > >::~ResultData()
PUBLIC m 3d264 0 std::__ndk1::basic_stringstream<char, std::__ndk1::char_traits<char>, std::__ndk1::allocator<char> >::~basic_stringstream()
PUBLIC m 3d2e4 0 std::__ndk1::basic_ifstream<char, std::__ndk1::char_traits<char> >::~basic_ifstream()
PUBLIC 3d334 0 RatingsManager::cacheList(bool)
PUBLIC 3d970 0 std::__ndk1::vector<matjson::Value, std::__ndk1::allocator<matjson::Value> >::~vector[abi:ne180000]()
PUBLIC 3d9d8 0 std::__ndk1::basic_fstream<char, std::__ndk1::char_traits<char> >::~basic_fstream()
PUBLIC 3da30 0 RatingsManager::getDemonTier(int)
PUBLIC 3db78 0 RatingsManager::getRating(int)
PUBLIC 3dd04 0 RatingsManager::addRatingFromResponse(int, std::__ndk1::basic_string<char, std::__ndk1::char_traits<char>, std::__ndk1::allocator<char> > const&)
PUBLIC 3dfbc 0 RatingsManager::cacheRatings(std::__ndk1::basic_string<char, std::__ndk1::char_traits<char>, std::__ndk1::allocator<char> > const&)
PUBLIC 3e920 0 RatingsManager::getTierStats()
PUBLIC 3ec04 0 RatingsManager::getCachedTier(int)
PUBLIC 3ed38 0 RatingsManager::cacheSpread(int, RatingsSpread const&)
PUBLIC 3ee58 0 RatingsManager::getSpread(int)
PUBLIC 3efd0 0 RatingsManager::cacheSkillsets(int, Skillsets const&)
PUBLIC 3f0cc 0 RatingsManager::getSkillsets(int)
PUBLIC 3f20c 0 RatingsManager::cacheSubmission(int, Submission const&)
PUBLIC 3f368 0 RatingsManager::getSubmission(int)
PUBLIC 3f490 0 std::__ndk1::basic_string<char, std::__ndk1::char_traits<char>, std::__ndk1::allocator<char> >::__throw_length_error[abi:ne180000]() const
PUBLIC 3f4a4 0 std::__ndk1::__throw_length_error[abi:ne180000](char const*)
PUBLIC 3f4f4 0 std::length_error::length_error[abi:ne180000](char const*)
PUBLIC 3f524 0 std::__throw_bad_array_new_length([abi:ne180000], void)
PUBLIC 3f558 0 __clang_call_terminate
PUBLIC 3f568 0 std::__ndk1::basic_string<char, std::__ndk1::char_traits<char>, std::__ndk1::allocator<char> >::__init_copy_ctor_external(char const*, unsigned long)
PUBLIC 3f5e8 0 std::__ndk1::__exception_guard_exceptions<std::__ndk1::vector<Skillset, std::__ndk1::allocator<Skillset> >::__destroy_vector>::~__exception_guard_exceptions[abi:ne180000]()
PUBLIC 3f6b4 0 std::__ndk1::__exception_guard_exceptions<std::__ndk1::_AllocatorDestroyRangeReverse<std::__ndk1::allocator<Skillset>, Skillset*> >::~__exception_guard_exceptions[abi:ne180000]()
PUBLIC 3f73c 0 std::__ndk1::__exception_guard_exceptions<std::__ndk1::vector<std::__ndk1::basic_string<char, std::__ndk1::char_traits<char>, std::__ndk1::allocator<char> >, std::__ndk1::allocator<std::__ndk1::basic_string<char, std::__ndk1::char_traits<char>, std::__ndk1::allocator<char> > > >::__destroy_vector>::~__exception_guard_exceptions[abi:ne180000]()
PUBLIC 3f7c8 0 std::__ndk1::vector<std::__ndk1::basic_string<char, std::__ndk1::char_traits<char>, std::__ndk1::allocator<char> >, std::__ndk1::allocator<std::__ndk1::basic_string<char, std::__ndk1::char_traits<char>, std::__ndk1::allocator<char> > > >::__throw_length_error[abi:ne180000]() const
PUBLIC 3f7dc 0 std::__ndk1::__exception_guard_exceptions<std::__ndk1::_AllocatorDestroyRangeReverse<std::__ndk1::allocator<std::__ndk1::basic_string<char, std::__ndk1::char_traits<char>, std::__ndk1::allocator<char> > >, std::__ndk1::basic_string<char, std::__ndk1::char_traits<char>, std::__ndk1::allocator<char> >*> >::~__exception_guard_exceptions[abi:ne180000]()
PUBLIC 3f83c 0 std::__ndk1::__tree<std::__ndk1::__value_type<int, int>, std::__ndk1::__map_value_compare<int, std::__ndk1::__value_type<int, int>, std::__ndk1::less<int>, true>, std::__ndk1::allocator<std::__ndk1::__value_type<int, int> > >::destroy(std::__ndk1::__tree_node<std::__ndk1::__value_type<int, int>, void*>*)
PUBLIC 3f880 0 std::__ndk1::__throw_bad_variant_access[abi:ne180000]()
PUBLIC 3f8b4 0 geode::UnwrapException::~UnwrapException()
PUBLIC 3f8d8 0 std::__ndk1::__variant_detail::__visitation::__base::__dispatcher<(unsigned long)0>::__dispatch[abi:ne180000]<std::__ndk1::__variant_detail::__dtor<std::__ndk1::__variant_detail::__traits<matjson::Value, std::__ndk1::__variant_detail::__traits::ParseError>, (std::__ndk1::__variant_detail::_Trait)1>::__destroy[abi:ne180000]()::{lambda(auto:1&)#1}, std::__ndk1::__variant_detail::__base<(std::__ndk1::__variant_detail::__traits<matjson::Value, std::__ndk1::__variant_detail::__traits::ParseError>)1, matjson, matjson::Value>&>(std::__ndk1::__variant_detail::__dtor<std::__ndk1::__variant_detail::__traits<matjson::Value, std::__ndk1::__variant_detail::__traits::ParseError>, (std::__ndk1::__variant_detail::_Trait)1>, std::__ndk1::__variant_detail::__base<(std::__ndk1::__variant_detail::__traits<matjson::Value, std::__ndk1::__variant_detail::__traits::ParseError>)1, matjson, matjson::Value>&)
PUBLIC 3f8e0 0 std::__ndk1::__variant_detail::__visitation::__base::__dispatcher<(unsigned long)1>::__dispatch[abi:ne180000]<std::__ndk1::__variant_detail::__dtor<std::__ndk1::__variant_detail::__traits<matjson::Value, std::__ndk1::__variant_detail::__traits::ParseError>, (std::__ndk1::__variant_detail::_Trait)1>::__destroy[abi:ne180000]()::{lambda(auto:1&)#1}, std::__ndk1::__variant_detail::__base<(std::__ndk1::__variant_detail::__traits<matjson::Value, std::__ndk1::__variant_detail::__traits::ParseError>)1, matjson, matjson::Value>&>(std::__ndk1::__variant_detail::__dtor<std::__ndk1::__variant_detail::__traits<matjson::Value, std::__ndk1::__variant_detail::__traits::ParseError>, (std::__ndk1::__variant_detail::_Trait)1>, std::__ndk1::__variant_detail::__base<(std::__ndk1::__variant_detail::__traits<matjson::Value, std::__ndk1::__variant_detail::__traits::ParseError>)1, matjson, matjson::Value>&)
PUBLIC 3f8f4 0 _ZN5geode15UnwrapExceptionC2IRNSt6__ndk112basic_stringIcNS2_11char_traitsIcEENS2_9allocatorIcEEEEQsr4implE18IsStringStreamableIT_EEENS_4impl6ErrTagEOSA_
PUBLIC 3fa5c 0 std::__ndk1::__put_character_sequence[abi:ne180000]<char, std::__ndk1::char_traits<char> >(std::__ndk1::basic_ostream<char, std::__ndk1::char_traits<char> >, std::__ndk1::basic_ostream const*, unsigned long)
PUBLIC 3fc00 0 std::__ndk1::__pad_and_output[abi:ne180000]<char, std::__ndk1::char_traits<char> >(std::__ndk1::char_traits<char>, std::__ndk1::ostreambuf_iterator const*, std::__ndk1::ostreambuf_iterator const, std::__ndk1::ostreambuf_iterator const, std::__ndk1::ios_base&, std::__ndk1::ostreambuf_iterator)
PUBLIC 3fddc 0 std::__ndk1::basic_stringbuf<char, std::__ndk1::char_traits<char>, std::__ndk1::allocator<char> >::str[abi:ne180000]() &&
PUBLIC 3ff54 0 std::__ndk1::basic_stringbuf<char, std::__ndk1::char_traits<char>, std::__ndk1::allocator<char> >::__init_buf_ptrs[abi:ne180000]()
PUBLIC 4009c 0 std::__ndk1::__variant_detail::__visitation::__base::__dispatcher<(unsigned long)0>::__dispatch[abi:ne180000]<std::__ndk1::__variant_detail::__dtor<std::__ndk1::__variant_detail::__traits<long, std::__ndk1::basic_string<char, std::__ndk1::char_traits<char>, std::__ndk1::allocator<char> > >, (std::__ndk1::__variant_detail::_Trait)1>::__destroy[abi:ne180000]()::{lambda(auto:1&)#1}, std::__ndk1::__variant_detail::__base<(std::__ndk1::__variant_detail::__traits<long, std::__ndk1::basic_string<char, std::__ndk1::char_traits<char>, std::__ndk1::allocator<char> > >)1, long, std::__ndk1::allocator<char> >&>(std::__ndk1::__variant_detail::__dtor<std::__ndk1::__variant_detail::__traits<long, std::__ndk1::basic_string<char, std::__ndk1::char_traits<char>, std::__ndk1::allocator<char> > >, (std::__ndk1::__variant_detail::_Trait)1>, std::__ndk1::__variant_detail::__base<(std::__ndk1::__variant_detail::__traits<long, std::__ndk1::basic_string<char, std::__ndk1::char_traits<char>, std::__ndk1::allocator<char> > >)1, long, std::__ndk1::allocator<char> >&)
PUBLIC 400a0 0 std::__ndk1::__variant_detail::__visitation::__base::__dispatcher<(unsigned long)1>::__dispatch[abi:ne180000]<std::__ndk1::__variant_detail::__dtor<std::__ndk1::__variant_detail::__traits<long, std::__ndk1::basic_string<char, std::__ndk1::char_traits<char>, std::__ndk1::allocator<char> > >, (std::__ndk1::__variant_detail::_Trait)1>::__destroy[abi:ne180000]()::{lambda(auto:1&)#1}, std::__ndk1::__variant_detail::__base<(std::__ndk1::__variant_detail::__traits<long, std::__ndk1::basic_string<char, std::__ndk1::char_traits<char>, std::__ndk1::allocator<char> > >)1, long, std::__ndk1::allocator<char> >&>(std::__ndk1::__variant_detail::__dtor<std::__ndk1::__variant_detail::__traits<long, std::__ndk1::basic_string<char, std::__ndk1::char_traits<char>, std::__ndk1::allocator<char> > >, (std::__ndk1::__variant_detail::_Trait)1>, std::__ndk1::__variant_detail::__base<(std::__ndk1::__variant_detail::__traits<long, std::__ndk1::basic_string<char, std::__ndk1::char_traits<char>, std::__ndk1::allocator<char> > >)1, long, std::__ndk1::allocator<char> >&)
PUBLIC 400b4 0 std::__ndk1::__variant_detail::__visitation::__base::__dispatcher<(unsigned long)0>::__dispatch[abi:ne180000]<std::__ndk1::__variant_detail::__dtor<std::__ndk1::__variant_detail::__traits<std::__ndk1::reference_wrapper<std::__ndk1::vector<matjson::Value, std::__ndk1::allocator<matjson> > >, std::__ndk1::basic_string<char, std::__ndk1::char_traits<char>, matjson::Value<char> > >, (std::__ndk1::__variant_detail::_Trait)1>::__destroy[abi:ne180000]()::{lambda(auto:1&)#1}, std::__ndk1::__variant_detail::__base<(std::__ndk1::__variant_detail::__traits<std::__ndk1::reference_wrapper<std::__ndk1::vector<matjson::Value, std::__ndk1::allocator<matjson> > >, std::__ndk1::basic_string<char, std::__ndk1::char_traits<char>, matjson::Value<char> > >)1, std::__ndk1::vector<matjson::Value, std::__ndk1::allocator<matjson> >, matjson::Value<char> >&>(std::__ndk1::__variant_detail::__dtor<std::__ndk1::__variant_detail::__traits<std::__ndk1::reference_wrapper<std::__ndk1::vector<matjson::Value, std::__ndk1::allocator<matjson> > >, std::__ndk1::basic_string<char, std::__ndk1::char_traits<char>, matjson::Value<char> > >, (std::__ndk1::__variant_detail::_Trait)1>, std::__ndk1::__variant_detail::__base<(std::__ndk1::__variant_detail::__traits<std::__ndk1::reference_wrapper<std::__ndk1::vector<matjson::Value, std::__ndk1::allocator<matjson> > >, std::__ndk1::basic_string<char, std::__ndk1::char_traits<char>, matjson::Value<char> > >)1, std::__ndk1::vector<matjson::Value, std::__ndk1::allocator<matjson> >, matjson::Value<char> >&)
PUBLIC 400b8 0 std::__ndk1::__variant_detail::__visitation::__base::__dispatcher<(unsigned long)1>::__dispatch[abi:ne180000]<std::__ndk1::__variant_detail::__dtor<std::__ndk1::__variant_detail::__traits<std::__ndk1::reference_wrapper<std::__ndk1::vector<matjson::Value, std::__ndk1::allocator<matjson> > >, std::__ndk1::basic_string<char, std::__ndk1::char_traits<char>, matjson::Value<char> > >, (std::__ndk1::__variant_detail::_Trait)1>::__destroy[abi:ne180000]()::{lambda(auto:1&)#1}, std::__ndk1::__variant_detail::__base<(std::__ndk1::__variant_detail::__traits<std::__ndk1::reference_wrapper<std::__ndk1::vector<matjson::Value, std::__ndk1::allocator<matjson> > >, std::__ndk1::basic_string<char, std::__ndk1::char_traits<char>, matjson::Value<char> > >)1, std::__ndk1::vector<matjson::Value, std::__ndk1::allocator<matjson> >, matjson::Value<char> >&>(std::__ndk1::__variant_detail::__dtor<std::__ndk1::__variant_detail::__traits<std::__ndk1::reference_wrapper<std::__ndk1::vector<matjson::Value, std::__ndk1::allocator<matjson> > >, std::__ndk1::basic_string<char, std::__ndk1::char_traits<char>, matjson::Value<char> > >, (std::__ndk1::__variant_detail::_Trait)1>, std::__ndk1::__variant_detail::__base<(std::__ndk1::__variant_detail::__traits<std::__ndk1::reference_wrapper<std::__ndk1::vector<matjson::Value, std::__ndk1::allocator<matjson> > >, std::__ndk1::basic_string<char, std::__ndk1::char_traits<char>, matjson::Value<char> > >)1, std::__ndk1::vector<matjson::Value, std::__ndk1::allocator<matjson> >, matjson::Value<char> >&)
PUBLIC 400cc 0 std::__ndk1::__tree_balance_after_insert[abi:ne180000]<std::__ndk1::__tree_node_base<void*>*>(std::__ndk1::__tree_node_base<void*>*, std::__ndk1::__tree_node_base<void*>*)
PUBLIC 4027c 0 std::__ndk1::__split_buffer<matjson::Value, std::__ndk1::allocator<matjson::Value>&>::~__split_buffer()
PUBLIC 402d0 0 std::__ndk1::vector<matjson::Value, std::__ndk1::allocator<matjson::Value> >::__throw_length_error[abi:ne180000]() const
PUBLIC 402e4 0 std::__ndk1::vector<matjson::Value, std::__ndk1::allocator<matjson::Value> >::__init_with_size[abi:ne180000]<matjson::Value*, std::__ndk1::vector<matjson::Value, std::__ndk1::allocator<matjson::Value> >::__init_with_size[abi:ne180000]>(matjson::Value*, std::__ndk1::vector<matjson::Value, std::__ndk1::allocator<matjson::Value> >::__init_with_size[abi:ne180000], unsigned long)
PUBLIC 40400 0 std::__ndk1::__exception_guard_exceptions<std::__ndk1::vector<matjson::Value, std::__ndk1::allocator<matjson::Value> >::__destroy_vector>::~__exception_guard_exceptions[abi:ne180000]()
PUBLIC 4047c 0 {virtual override thunk({offset(-16)}, std::__ndk1::basic_fstream<char, std::__ndk1::char_traits<char> >::~basic_fstream())}
PUBLIC 404d0 0 {virtual override thunk({virtual offset(0, -24)}, std::__ndk1::basic_fstream<char, std::__ndk1::char_traits<char> >::~basic_fstream())}
PUBLIC 40530 0 std::__ndk1::basic_fstream<char, std::__ndk1::char_traits<char> >::~basic_fstream()
PUBLIC 40590 0 {virtual override thunk({offset(-16)}, std::__ndk1::basic_fstream<char, std::__ndk1::char_traits<char> >::~basic_fstream())}
PUBLIC 405ec 0 {virtual override thunk({virtual offset(0, -24)}, std::__ndk1::basic_fstream<char, std::__ndk1::char_traits<char> >::~basic_fstream())}
PUBLIC 40654 0 std::__ndk1::basic_string<char, std::__ndk1::char_traits<char>, std::__ndk1::allocator<char> >::__throw_out_of_range[abi:ne180000]() const
PUBLIC 40668 0 std::__ndk1::__throw_out_of_range[abi:ne180000](char const*)
PUBLIC 406b8 0 std::out_of_range::out_of_range[abi:ne180000](char const*)
PUBLIC 406e8 0 std::__ndk1::basic_string<char, std::__ndk1::char_traits<char>, std::__ndk1::allocator<char> >::__assign_no_alias<true>(char const*, unsigned long)
PUBLIC 40794 0 std::__ndk1::basic_string<char, std::__ndk1::char_traits<char>, std::__ndk1::allocator<char> >::__assign_no_alias<false>(char const*, unsigned long)
PUBLIC 408a4 0 std::__ndk1::vector<std::__ndk1::basic_string<char, std::__ndk1::char_traits<char>, std::__ndk1::allocator<char> >, std::__ndk1::allocator<std::__ndk1::basic_string<char, std::__ndk1::char_traits<char>, std::__ndk1::allocator<char> > > >::__push_back_slow_path<std::__ndk1::basic_string<char, std::__ndk1::char_traits<char>, std::__ndk1::allocator<char> > const&>(std::__ndk1::basic_string<char, std::__ndk1::char_traits<char>, std::__ndk1::allocator<char> > const&)
PUBLIC 40acc 0 std::__ndk1::__split_buffer<std::__ndk1::basic_string<char, std::__ndk1::char_traits<char>, std::__ndk1::allocator<char> >, std::__ndk1::allocator<std::__ndk1::basic_string<char, std::__ndk1::char_traits<char>, std::__ndk1::allocator<char> > >&>::~__split_buffer()
PUBLIC 40b34 0 std::__ndk1::__tree<std::__ndk1::__value_type<int, int>, std::__ndk1::__map_value_compare<int, std::__ndk1::__value_type<int, int>, std::__ndk1::less<int>, true>, std::__ndk1::allocator<std::__ndk1::__value_type<int, int> > >::__assign_multi<std::__ndk1::__tree_const_iterator<std::__ndk1::__value_type<int, int>, std::__ndk1::__tree_node<std::__ndk1::__value_type<int, int>, void*>*, long> >(std::__ndk1::__tree_const_iterator<std::__ndk1::__value_type<int, int>, std::__ndk1::__tree_node<std::__ndk1::__value_type<int, int>, void*>*, long>, std::__ndk1::__tree_const_iterator<std::__ndk1::__value_type<int, int>, std::__ndk1::__tree_node<std::__ndk1::__value_type<int, int>, void*>*, long>)
PUBLIC 40e68 0 std::__ndk1::map<int, int, std::__ndk1::less<int>, std::__ndk1::allocator<std::__ndk1::pair<int const, int> > >::insert[abi:ne180000]<std::__ndk1::__map_const_iterator<std::__ndk1::__tree_const_iterator<std::__ndk1::__value_type<int, int>, std::__ndk1::__tree_node<std::__ndk1::__value_type, void*>*, long> > >(std::__ndk1::__map_const_iterator<std::__ndk1::__tree_const_iterator<std::__ndk1::__value_type<int, int>, std::__ndk1::__tree_node<std::__ndk1::__value_type, void*>*, long> >, std::__ndk1::__map_const_iterator<std::__ndk1::__tree_const_iterator<std::__ndk1::__value_type<int, int>, std::__ndk1::__tree_node<std::__ndk1::__value_type, void*>*, long> >)
PUBLIC 40f8c 0 std::__ndk1::__tree<std::__ndk1::__value_type<int, int>, std::__ndk1::__map_value_compare<int, std::__ndk1::__value_type<int, int>, std::__ndk1::less<int>, true>, std::__ndk1::allocator<std::__ndk1::__value_type<int, int> > >::__find_equal<int>(std::__ndk1::__tree_const_iterator<std::__ndk1::__value_type<int, int>, std::__ndk1::__tree_node<std::__ndk1::__value_type<int, int>, void*>*, long>, std::__ndk1::__tree_end_node<std::__ndk1::__tree_node_base<void*>*>*&, std::__ndk1::__tree_node_base<void*>*&, int const&)
PUBLIC 4113c 0 std::__ndk1::vector<std::__ndk1::pair<int, int>, std::__ndk1::allocator<std::__ndk1::pair<int, int> > >::__assign_with_size[abi:ne180000]<std::__ndk1::pair<int, int>*, std::__ndk1::vector<std::__ndk1::pair<int, int>, std::__ndk1::allocator<std::__ndk1::pair<int, int> > >::__assign_with_size[abi:ne180000]>(std::__ndk1::pair<int, int>*, std::__ndk1::vector<std::__ndk1::pair<int, int>, std::__ndk1::allocator<std::__ndk1::pair<int, int> > >::__assign_with_size[abi:ne180000], long)
PUBLIC 41488 0 std::__ndk1::vector<std::__ndk1::pair<int, int>, std::__ndk1::allocator<std::__ndk1::pair<int, int> > >::__throw_length_error[abi:ne180000]() const
PUBLIC 4149c 0 std::__ndk1::__tree<std::__ndk1::__value_type<int, RatingsSpread>, std::__ndk1::__map_value_compare<int, std::__ndk1::__value_type<int, RatingsSpread>, std::__ndk1::less<int>, true>, std::__ndk1::allocator<std::__ndk1::__value_type<int, RatingsSpread> > >::destroy(std::__ndk1::__tree_node<std::__ndk1::__value_type<int, RatingsSpread>, void*>*)
PUBLIC 414f8 0 std::__ndk1::__tree<std::__ndk1::__value_type<int, Skillsets>, std::__ndk1::__map_value_compare<int, std::__ndk1::__value_type<int, Skillsets>, std::__ndk1::less<int>, true>, std::__ndk1::allocator<std::__ndk1::__value_type<int, Skillsets> > >::destroy(std::__ndk1::__tree_node<std::__ndk1::__value_type<int, Skillsets>, void*>*)
PUBLIC 41548 0 std::__ndk1::__tree<std::__ndk1::__value_type<int, Submission>, std::__ndk1::__map_value_compare<int, std::__ndk1::__value_type<int, Submission>, std::__ndk1::less<int>, true>, std::__ndk1::allocator<std::__ndk1::__value_type<int, Submission> > >::destroy(std::__ndk1::__tree_node<std::__ndk1::__value_type<int, Submission>, void*>*)
PUBLIC 41598 0 std::__ndk1::__tree<std::__ndk1::__value_type<int, GDDLRating>, std::__ndk1::__map_value_compare<int, std::__ndk1::__value_type<int, GDDLRating>, std::__ndk1::less<int>, true>, std::__ndk1::allocator<std::__ndk1::__value_type<int, GDDLRating> > >::destroy(std::__ndk1::__tree_node<std::__ndk1::__value_type<int, GDDLRating>, void*>*)
PUBLIC 415e0 0 std::__ndk1::getline[abi:ne180000]<char, std::__ndk1::char_traits<char>, std::__ndk1::allocator<char> >(std::__ndk1::basic_istream<char, std::__ndk1::char_traits<char> >, std::__ndk1::basic_string<std::__ndk1::basic_istream, char, std::__ndk1::allocator<char> >&, std::__ndk1::basic_istream)
PUBLIC 41794 0 _GLOBAL__sub_I_RatingsManager.cpp
PUBLIC 41870 0 __aarch64_ldadd8_acq_rel
PUBLIC 418a0 0 init_have_lse_atomics
PUBLIC 41938 0 __init_cpu_features_constructor
PUBLIC 41ed4 0 __init_cpu_features
PUBLIC 41f60 0 __aarch64_ldadd8_relax
PUBLIC 41f90 0 Utils::floatToString(float, int)
PUBLIC 4217c 0 Utils::createTextInputNode(cocos2d::CCNode*, CCTextInputNode*&, std::__ndk1::basic_string<char, std::__ndk1::char_traits<char>, std::__ndk1::allocator<char> > const&, std::__ndk1::basic_string<char, std::__ndk1::char_traits<char>, std::__ndk1::allocator<char> > const&, int, cocos2d::CCPoint const&, cocos2d::CCPoint const&, int)
PUBLIC 42334 0 Utils::createLeftRightButtonsAround(cocos2d::CCNode*, cocos2d::CCPoint const&, cocos2d::CCObject*, void (cocos2d::CCObject::*)(cocos2d::CCObject*), void (cocos2d::CCObject::*)(cocos2d::CCObject*), int)
PUBLIC 425bc 0 Utils::createCheckbox(cocos2d::CCNode*, CCMenuItemToggler*&, std::__ndk1::basic_string<char, std::__ndk1::char_traits<char>, std::__ndk1::allocator<char> > const&, float, float, cocos2d::CCPoint const&, cocos2d::CCObject*, void (cocos2d::CCObject::*)(cocos2d::CCObject*), int)
PUBLIC 42764 0 Utils::getNumberWithGivenDefaultTextfieldValue(CCTextInputNode*&, int)
PUBLIC 42bb8 0 Utils::setNumberWithGivenDefaultValueTextfield(int, CCTextInputNode*&, int, std::__ndk1::basic_string<char, std::__ndk1::char_traits<char>, std::__ndk1::allocator<char> >)
PUBLIC 42cc8 0 Utils::createLabelForChoice(cocos2d::CCLayer*, cocos2d::CCLabelBMFont*&, std::__ndk1::basic_string<char, std::__ndk1::char_traits<char>, std::__ndk1::allocator<char> > const&, std::__ndk1::basic_string<char, std::__ndk1::char_traits<char>, std::__ndk1::allocator<char> > const&, float, cocos2d::CCPoint const&, cocos2d::CCPoint const&, int)
PUBLIC 42e94 0 Utils::getSpriteFromTier(int)
PUBLIC 43124 0 Utils::notExcluded(int)
PUBLIC 43250 0 std::__ndk1::shared_ptr<ExcludeRangeSettingV3>::~shared_ptr[abi:ne180000]()
PUBLIC 432a0 0 Utils::getCorrectedFPS()
PUBLIC 433f4 0 Utils::getUserAgent()
PUBLIC 438dc 0 Utils::getGrayPopupBG()
PUBLIC 43ba4 0 geode::Mod::getSettingValue<std::__ndk1::basic_string<char, std::__ndk1::char_traits<char>, std::__ndk1::allocator<char> > >(std::__ndk1::basic_string_view<char, std::__ndk1::char_traits<char> >) const
PUBLIC 43d2c 0 Utils::getGrayPopupCloseButton(float)
PUBLIC 43f30 0 std::__ndk1::__variant_detail::__visitation::__base::__dispatcher<(unsigned long)0>::__dispatch[abi:ne180000]<std::__ndk1::__variant_detail::__dtor<std::__ndk1::__variant_detail::__traits<int, std::__ndk1::basic_string<char, std::__ndk1::char_traits<char>, std::__ndk1::allocator<char> > >, (std::__ndk1::__variant_detail::_Trait)1>::__destroy[abi:ne180000]()::{lambda(auto:1&)#1}, std::__ndk1::__variant_detail::__base<(std::__ndk1::__variant_detail::__traits<int, std::__ndk1::basic_string<char, std::__ndk1::char_traits<char>, std::__ndk1::allocator<char> > >)1, int, std::__ndk1::allocator<char> >&>(std::__ndk1::__variant_detail::__dtor<std::__ndk1::__variant_detail::__traits<int, std::__ndk1::basic_string<char, std::__ndk1::char_traits<char>, std::__ndk1::allocator<char> > >, (std::__ndk1::__variant_detail::_Trait)1>, std::__ndk1::__variant_detail::__base<(std::__ndk1::__variant_detail::__traits<int, std::__ndk1::basic_string<char, std::__ndk1::char_traits<char>, std::__ndk1::allocator<char> > >)1, int, std::__ndk1::allocator<char> >&)
PUBLIC 43f34 0 std::__ndk1::__variant_detail::__visitation::__base::__dispatcher<(unsigned long)1>::__dispatch[abi:ne180000]<std::__ndk1::__variant_detail::__dtor<std::__ndk1::__variant_detail::__traits<int, std::__ndk1::basic_string<char, std::__ndk1::char_traits<char>, std::__ndk1::allocator<char> > >, (std::__ndk1::__variant_detail::_Trait)1>::__destroy[abi:ne180000]()::{lambda(auto:1&)#1}, std::__ndk1::__variant_detail::__base<(std::__ndk1::__variant_detail::__traits<int, std::__ndk1::basic_string<char, std::__ndk1::char_traits<char>, std::__ndk1::allocator<char> > >)1, int, std::__ndk1::allocator<char> >&>(std::__ndk1::__variant_detail::__dtor<std::__ndk1::__variant_detail::__traits<int, std::__ndk1::basic_string<char, std::__ndk1::char_traits<char>, std::__ndk1::allocator<char> > >, (std::__ndk1::__variant_detail::_Trait)1>, std::__ndk1::__variant_detail::__base<(std::__ndk1::__variant_detail::__traits<int, std::__ndk1::basic_string<char, std::__ndk1::char_traits<char>, std::__ndk1::allocator<char> > >)1, int, std::__ndk1::allocator<char> >&)
PUBLIC 43f48 0 std::__ndk1::__function::__value_func<void (geode::Task<geode::utils::web::WebResponse, geode::utils::web::WebProgress>::Event*)>::swap[abi:ne180000](std::__ndk1::__function::__value_func<void (geode::Task<geode::utils::web::WebResponse, geode::utils::web::WebProgress>::Event*)>&)
PUBLIC 440e0 0 std::__ndk1::__function::__base<void (geode::Task<geode::utils::web::WebResponse, geode::utils::web::WebProgress>::Event*)>::~__base()
PUBLIC 440e4 0 std::__ndk1::__function::__func<Utils::bindCacheDownloadCallback(geode::EventListener<geode::Task<geode::utils::web::WebResponse, geode::utils::web::WebProgress> >&, bool)::$_0, std::__ndk1::allocator<Utils::bindCacheDownloadCallback(geode::EventListener<geode::Task<geode::utils::web::WebResponse, geode::utils::web::WebProgress> >&, bool)::$_0>, void (geode::Task<geode::utils::web::WebResponse, geode::utils::web::WebProgress>*::Event)>::~__func()
PUBLIC 440e8 0 std::__ndk1::__function::__func<Utils::bindCacheDownloadCallback(geode::EventListener<geode::Task<geode::utils::web::WebResponse, geode::utils::web::WebProgress> >&, bool)::$_0, std::__ndk1::allocator<Utils::bindCacheDownloadCallback(geode::EventListener<geode::Task<geode::utils::web::WebResponse, geode::utils::web::WebProgress> >&, bool)::$_0>, void (geode::Task<geode::utils::web::WebResponse, geode::utils::web::WebProgress>*::Event)>::__clone() const
PUBLIC 44120 0 std::__ndk1::__function::__func<Utils::bindCacheDownloadCallback(geode::EventListener<geode::Task<geode::utils::web::WebResponse, geode::utils::web::WebProgress> >&, bool)::$_0, std::__ndk1::allocator<Utils::bindCacheDownloadCallback(geode::EventListener<geode::Task<geode::utils::web::WebResponse, geode::utils::web::WebProgress> >&, bool)::$_0>, void (geode::Task<geode::utils::web::WebResponse, geode::utils::web::WebProgress>*::Event)>::__clone(std::__ndk1::__function::__base<void (geode::Task<geode::utils::web::WebResponse, geode::utils::web::WebProgress>*::Event)>*) const
PUBLIC 44138 0 std::__ndk1::__function::__func<Utils::bindCacheDownloadCallback(geode::EventListener<geode::Task<geode::utils::web::WebResponse, geode::utils::web::WebProgress> >&, bool)::$_0, std::__ndk1::allocator<Utils::bindCacheDownloadCallback(geode::EventListener<geode::Task<geode::utils::web::WebResponse, geode::utils::web::WebProgress> >&, bool)::$_0>, void (geode::Task<geode::utils::web::WebResponse, geode::utils::web::WebProgress>*::Event)>::destroy()
PUBLIC 4413c 0 std::__ndk1::__function::__func<Utils::bindCacheDownloadCallback(geode::EventListener<geode::Task<geode::utils::web::WebResponse, geode::utils::web::WebProgress> >&, bool)::$_0, std::__ndk1::allocator<Utils::bindCacheDownloadCallback(geode::EventListener<geode::Task<geode::utils::web::WebResponse, geode::utils::web::WebProgress> >&, bool)::$_0>, void (geode::Task<geode::utils::web::WebResponse, geode::utils::web::WebProgress>*::Event)>::destroy_deallocate()
PUBLIC 44140 0 std::__ndk1::__function::__func<Utils::bindCacheDownloadCallback(geode::EventListener<geode::Task<geode::utils::web::WebResponse, geode::utils::web::WebProgress> >&, bool)::$_0, std::__ndk1::allocator<Utils::bindCacheDownloadCallback(geode::EventListener<geode::Task<geode::utils::web::WebResponse, geode::utils::web::WebProgress> >&, bool)::$_0>, void (geode::Task<geode::utils::web::WebResponse, geode::utils::web::WebProgress>*::Event)>::operator()(geode::Task<geode::utils::web::WebResponse, geode::utils::web::WebProgress>*::Event&&)
PUBLIC 44414 0 std::__ndk1::__function::__func<Utils::bindCacheDownloadCallback(geode::EventListener<geode::Task<geode::utils::web::WebResponse, geode::utils::web::WebProgress> >&, bool)::$_0, std::__ndk1::allocator<Utils::bindCacheDownloadCallback(geode::EventListener<geode::Task<geode::utils::web::WebResponse, geode::utils::web::WebProgress> >&, bool)::$_0>, void (geode::Task<geode::utils::web::WebResponse, geode::utils::web::WebProgress>*::Event)>::target(std::type_info const&) const
PUBLIC 44430 0 std::__ndk1::__function::__func<Utils::bindCacheDownloadCallback(geode::EventListener<geode::Task<geode::utils::web::WebResponse, geode::utils::web::WebProgress> >&, bool)::$_0, std::__ndk1::allocator<Utils::bindCacheDownloadCallback(geode::EventListener<geode::Task<geode::utils::web::WebResponse, geode::utils::web::WebProgress> >&, bool)::$_0>, void (geode::Task<geode::utils::web::WebResponse, geode::utils::web::WebProgress>*::Event)>::target_type() const
PUBLIC 4443c 0 std::__ndk1::__variant_detail::__visitation::__base::__dispatcher<(unsigned long)0>::__dispatch[abi:ne180000]<std::__ndk1::__variant_detail::__dtor<std::__ndk1::__variant_detail::__traits<std::__ndk1::basic_string<char, std::__ndk1::char_traits<char>, std::__ndk1::allocator<char> >, std::__ndk1::allocator<char> >, (std::__ndk1::__variant_detail::_Trait)1>::__destroy[abi:ne180000]()::{lambda(auto:1&)#1}, std::__ndk1::__variant_detail::__base<(std::__ndk1::__variant_detail::__traits<std::__ndk1::basic_string<char, std::__ndk1::char_traits<char>, std::__ndk1::allocator<char> >, std::__ndk1::allocator<char> >)1, std::__ndk1::allocator<char>, std::__ndk1::allocator<char> >&>(std::__ndk1::__variant_detail::__dtor<std::__ndk1::__variant_detail::__traits<std::__ndk1::basic_string<char, std::__ndk1::char_traits<char>, std::__ndk1::allocator<char> >, std::__ndk1::allocator<char> >, (std::__ndk1::__variant_detail::_Trait)1>, std::__ndk1::__variant_detail::__base<(std::__ndk1::__variant_detail::__traits<std::__ndk1::basic_string<char, std::__ndk1::char_traits<char>, std::__ndk1::allocator<char> >, std::__ndk1::allocator<char> >)1, std::__ndk1::allocator<char>, std::__ndk1::allocator<char> >&)
PUBLIC 44450 0 std::__ndk1::__variant_detail::__visitation::__base::__dispatcher<(unsigned long)1>::__dispatch[abi:ne180000]<std::__ndk1::__variant_detail::__dtor<std::__ndk1::__variant_detail::__traits<std::__ndk1::basic_string<char, std::__ndk1::char_traits<char>, std::__ndk1::allocator<char> >, std::__ndk1::allocator<char> >, (std::__ndk1::__variant_detail::_Trait)1>::__destroy[abi:ne180000]()::{lambda(auto:1&)#1}, std::__ndk1::__variant_detail::__base<(std::__ndk1::__variant_detail::__traits<std::__ndk1::basic_string<char, std::__ndk1::char_traits<char>, std::__ndk1::allocator<char> >, std::__ndk1::allocator<char> >)1, std::__ndk1::allocator<char>, std::__ndk1::allocator<char> >&>(std::__ndk1::__variant_detail::__dtor<std::__ndk1::__variant_detail::__traits<std::__ndk1::basic_string<char, std::__ndk1::char_traits<char>, std::__ndk1::allocator<char> >, std::__ndk1::allocator<char> >, (std::__ndk1::__variant_detail::_Trait)1>, std::__ndk1::__variant_detail::__base<(std::__ndk1::__variant_detail::__traits<std::__ndk1::basic_string<char, std::__ndk1::char_traits<char>, std::__ndk1::allocator<char> >, std::__ndk1::allocator<char> >)1, std::__ndk1::allocator<char>, std::__ndk1::allocator<char> >&)
PUBLIC 44464 0 geode::cast::traverseTypeinfoFor(void*, geode::cast::ClassTypeinfoType const*, char const*)
PUBLIC 44568 0 std::__ndk1::shared_ptr<geode::StringSettingV3>::~shared_ptr[abi:ne180000]()
PUBLIC 445b8 0 __cxx_global_var_init.77
PUBLIC 4466c 0 __cxx_global_var_init.79
PUBLIC 447a4 0 __cxx_global_var_init.82
PUBLIC 44c98 0 __cxx_global_var_init.93
PUBLIC 44d50 0 GDDLAdvancedLevelInfoPopup::init(GJGameLevel*, int)
PUBLIC 45bfc 0 GDDLAdvancedLevelInfoPopup::onClose(cocos2d::CCObject*)
PUBLIC 45c28 0 GDDLAdvancedLevelInfoPopup::onSubmitClicked(cocos2d::CCObject*)
PUBLIC 45cb4 0 GDDLAdvancedLevelInfoPopup::onOpenInBrowserClicked(cocos2d::CCObject*)
PUBLIC 45d98 0 GDDLAdvancedLevelInfoPopup::addRatingInfo()
PUBLIC 46478 0 GDDLAdvancedLevelInfoPopup::addShowcaseButton(bool)
PUBLIC 4660c 0 GDDLAdvancedLevelInfoPopup::addTierSprite(int)
PUBLIC 46754 0 GDDLAdvancedLevelInfoPopup::addBarCharts()
PUBLIC 46ac4 0 geode::Task<geode::utils::web::WebResponse, geode::utils::web::WebProgress>::~Task()
PUBLIC 46b14 0 GDDLAdvancedLevelInfoPopup::addSkillsets()
PUBLIC 46efc 0 GDDLAdvancedLevelInfoPopup::onSkillsetClicked(cocos2d::CCObject*)
PUBLIC 4733c 0 GDDLAdvancedLevelInfoPopup::onSkillsetInfo(cocos2d::CCObject*)
PUBLIC 47418 0 GDDLAdvancedLevelInfoPopup::onShowcaseClicked(cocos2d::CCObject*)
PUBLIC 47678 0 std::__ndk1::vector<BarChartData, std::__ndk1::allocator<BarChartData> >::~vector[abi:ne180000]()
PUBLIC 47700 0 RatingsSpread::~RatingsSpread()
PUBLIC 47730 0 GDDLAdvancedLevelInfoPopup::GDDLAdvancedLevelInfoPopup()
PUBLIC 47964 0 GDDLAdvancedLevelInfoPopup::~GDDLAdvancedLevelInfoPopup()
PUBLIC 47acc 0 GDDLAdvancedLevelInfoPopup::show()
PUBLIC 47af4 0 cocos2d::CCCopying::copyWithZone(cocos2d::CCZone*)
PUBLIC 47afc 0 GDDLAdvancedLevelInfoPopup::~GDDLAdvancedLevelInfoPopup()
PUBLIC 47b20 0 cocos2d::CCLayerRGBA::setOpacityModifyRGB(bool)
PUBLIC 47b24 0 cocos2d::CCLayerRGBA::isOpacityModifyRGB()
PUBLIC 47b2c 0 {virtual override thunk({offset(-320)}, GDDLAdvancedLevelInfoPopup::~GDDLAdvancedLevelInfoPopup())}
PUBLIC 47b34 0 {virtual override thunk({offset(-320)}, GDDLAdvancedLevelInfoPopup::~GDDLAdvancedLevelInfoPopup())}
PUBLIC 47b5c 0 cocos2d::CCKeyboardDelegate::keyUp(cocos2d::enumKeyCodes)
PUBLIC 47b60 0 cocos2d::CCMouseDelegate::rightKeyDown()
PUBLIC 47b64 0 cocos2d::CCMouseDelegate::rightKeyUp()
PUBLIC 47b68 0 cocos2d::CCMouseDelegate::scrollWheel(float, float)
PUBLIC 47b6c 0 {virtual override thunk({offset(-408)}, cocos2d::CCLayerRGBA::setOpacityModifyRGB(bool))}
PUBLIC 47b70 0 {virtual override thunk({offset(-408)}, cocos2d::CCLayerRGBA::isOpacityModifyRGB())}
PUBLIC 47b78 0 std::__ndk1::basic_string<char, std::__ndk1::char_traits<char>, std::__ndk1::allocator<char> >::__assign_external(char const*, unsigned long)
PUBLIC 47ca0 0 geode::EventListener<geode::Task<geode::utils::web::WebResponse, geode::utils::web::WebProgress> >::~EventListener()
PUBLIC 47d3c 0 geode::Task<geode::utils::web::WebResponse, geode::utils::web::WebProgress>::setListener(geode::EventListenerProtocol*)
PUBLIC 47f58 0 geode::EventListener<geode::Task<geode::utils::web::WebResponse, geode::utils::web::WebProgress> >::getPool() const
PUBLIC 47f5c 0 geode::EventListener<geode::Task<geode::utils::web::WebResponse, geode::utils::web::WebProgress> >::handle(geode::Event*)
PUBLIC 48128 0 geode::EventListener<geode::Task<geode::utils::web::WebResponse, geode::utils::web::WebProgress> >::~EventListener()
PUBLIC 481cc 0 geode::Task<geode::utils::web::WebResponse, geode::utils::web::WebProgress>::setListener(geode::EventListenerProtocol*)::{lambda()#1}::~{lambda()#1}()
PUBLIC 4821c 0 geode::Task<geode::utils::web::WebResponse, geode::utils::web::WebProgress>::setListener(geode::EventListenerProtocol*)::{lambda()#2}::~{lambda()#2}()
PUBLIC 4826c 0 std::__ndk1::__function::__func<geode::Task<geode::utils::web::WebResponse, geode::utils::web::WebProgress>::setListener(geode::EventListenerProtocol*)::{lambda()#1}, std::__ndk1::allocator<geode::Task<geode::utils::web::WebResponse, geode::utils::web::WebProgress>::setListener(geode::EventListenerProtocol*)::{lambda()#1}>, void ()>::~__func()
PUBLIC 482c8 0 std::__ndk1::__function::__func<geode::Task<geode::utils::web::WebResponse, geode::utils::web::WebProgress>::setListener(geode::EventListenerProtocol*)::{lambda()#1}, std::__ndk1::allocator<geode::Task<geode::utils::web::WebResponse, geode::utils::web::WebProgress>::setListener(geode::EventListenerProtocol*)::{lambda()#1}>, void ()>::~__func()
PUBLIC 48334 0 std::__ndk1::__function::__func<geode::Task<geode::utils::web::WebResponse, geode::utils::web::WebProgress>::setListener(geode::EventListenerProtocol*)::{lambda()#1}, std::__ndk1::allocator<geode::Task<geode::utils::web::WebResponse, geode::utils::web::WebProgress>::setListener(geode::EventListenerProtocol*)::{lambda()#1}>, void ()>::__clone() const
PUBLIC 4838c 0 std::__ndk1::__function::__func<geode::Task<geode::utils::web::WebResponse, geode::utils::web::WebProgress>::setListener(geode::EventListenerProtocol*)::{lambda()#1}, std::__ndk1::allocator<geode::Task<geode::utils::web::WebResponse, geode::utils::web::WebProgress>::setListener(geode::EventListenerProtocol*)::{lambda()#1}>, void ()>::__clone(std::__ndk1::__function::__base<void ()>*) const
PUBLIC 483d8 0 std::__ndk1::__function::__func<geode::Task<geode::utils::web::WebResponse, geode::utils::web::WebProgress>::setListener(geode::EventListenerProtocol*)::{lambda()#1}, std::__ndk1::allocator<geode::Task<geode::utils::web::WebResponse, geode::utils::web::WebProgress>::setListener(geode::EventListenerProtocol*)::{lambda()#1}>, void ()>::destroy()
PUBLIC 48428 0 std::__ndk1::__function::__func<geode::Task<geode::utils::web::WebResponse, geode::utils::web::WebProgress>::setListener(geode::EventListenerProtocol*)::{lambda()#1}, std::__ndk1::allocator<geode::Task<geode::utils::web::WebResponse, geode::utils::web::WebProgress>::setListener(geode::EventListenerProtocol*)::{lambda()#1}>, void ()>::destroy_deallocate()
PUBLIC 48488 0 std::__ndk1::__function::__func<geode::Task<geode::utils::web::WebResponse, geode::utils::web::WebProgress>::setListener(geode::EventListenerProtocol*)::{lambda()#1}, std::__ndk1::allocator<geode::Task<geode::utils::web::WebResponse, geode::utils::web::WebProgress>::setListener(geode::EventListenerProtocol*)::{lambda()#1}>, void ()>::operator()()
PUBLIC 48490 0 std::__ndk1::__function::__func<geode::Task<geode::utils::web::WebResponse, geode::utils::web::WebProgress>::setListener(geode::EventListenerProtocol*)::{lambda()#1}, std::__ndk1::allocator<geode::Task<geode::utils::web::WebResponse, geode::utils::web::WebProgress>::setListener(geode::EventListenerProtocol*)::{lambda()#1}>, void ()>::target(std::type_info const&) const
PUBLIC 484ac 0 std::__ndk1::__function::__func<geode::Task<geode::utils::web::WebResponse, geode::utils::web::WebProgress>::setListener(geode::EventListenerProtocol*)::{lambda()#1}, std::__ndk1::allocator<geode::Task<geode::utils::web::WebResponse, geode::utils::web::WebProgress>::setListener(geode::EventListenerProtocol*)::{lambda()#1}>, void ()>::target_type() const
PUBLIC 484b8 0 geode::Task<geode::utils::web::WebResponse, geode::utils::web::WebProgress>::setListener(geode::EventListenerProtocol*)::{lambda()#1}::operator()() const
PUBLIC 48688 0 geode::Task<geode::utils::web::WebResponse, geode::utils::web::WebProgress>::Event::~Event()
PUBLIC 486e8 0 geode::Task<geode::utils::web::WebResponse, geode::utils::web::WebProgress>::Event::~Event()
PUBLIC 48758 0 std::__ndk1::__function::__func<geode::Task<geode::utils::web::WebResponse, geode::utils::web::WebProgress>::setListener(geode::EventListenerProtocol*)::{lambda()#2}, std::__ndk1::allocator<geode::Task<geode::utils::web::WebResponse, geode::utils::web::WebProgress>::setListener(geode::EventListenerProtocol*)::{lambda()#2}>, void ()>::~__func()
PUBLIC 487b4 0 std::__ndk1::__function::__func<geode::Task<geode::utils::web::WebResponse, geode::utils::web::WebProgress>::setListener(geode::EventListenerProtocol*)::{lambda()#2}, std::__ndk1::allocator<geode::Task<geode::utils::web::WebResponse, geode::utils::web::WebProgress>::setListener(geode::EventListenerProtocol*)::{lambda()#2}>, void ()>::~__func()
PUBLIC 48820 0 std::__ndk1::__function::__func<geode::Task<geode::utils::web::WebResponse, geode::utils::web::WebProgress>::setListener(geode::EventListenerProtocol*)::{lambda()#2}, std::__ndk1::allocator<geode::Task<geode::utils::web::WebResponse, geode::utils::web::WebProgress>::setListener(geode::EventListenerProtocol*)::{lambda()#2}>, void ()>::__clone() const
PUBLIC 48878 0 std::__ndk1::__function::__func<geode::Task<geode::utils::web::WebResponse, geode::utils::web::WebProgress>::setListener(geode::EventListenerProtocol*)::{lambda()#2}, std::__ndk1::allocator<geode::Task<geode::utils::web::WebResponse, geode::utils::web::WebProgress>::setListener(geode::EventListenerProtocol*)::{lambda()#2}>, void ()>::__clone(std::__ndk1::__function::__base<void ()>*) const
PUBLIC 488c4 0 std::__ndk1::__function::__func<geode::Task<geode::utils::web::WebResponse, geode::utils::web::WebProgress>::setListener(geode::EventListenerProtocol*)::{lambda()#2}, std::__ndk1::allocator<geode::Task<geode::utils::web::WebResponse, geode::utils::web::WebProgress>::setListener(geode::EventListenerProtocol*)::{lambda()#2}>, void ()>::destroy()
PUBLIC 48914 0 std::__ndk1::__function::__func<geode::Task<geode::utils::web::WebResponse, geode::utils::web::WebProgress>::setListener(geode::EventListenerProtocol*)::{lambda()#2}, std::__ndk1::allocator<geode::Task<geode::utils::web::WebResponse, geode::utils::web::WebProgress>::setListener(geode::EventListenerProtocol*)::{lambda()#2}>, void ()>::destroy_deallocate()
PUBLIC 48974 0 std::__ndk1::__function::__func<geode::Task<geode::utils::web::WebResponse, geode::utils::web::WebProgress>::setListener(geode::EventListenerProtocol*)::{lambda()#2}, std::__ndk1::allocator<geode::Task<geode::utils::web::WebResponse, geode::utils::web::WebProgress>::setListener(geode::EventListenerProtocol*)::{lambda()#2}>, void ()>::operator()()
PUBLIC 4897c 0 std::__ndk1::__function::__func<geode::Task<geode::utils::web::WebResponse, geode::utils::web::WebProgress>::setListener(geode::EventListenerProtocol*)::{lambda()#2}, std::__ndk1::allocator<geode::Task<geode::utils::web::WebResponse, geode::utils::web::WebProgress>::setListener(geode::EventListenerProtocol*)::{lambda()#2}>, void ()>::target(std::type_info const&) const
PUBLIC 48998 0 std::__ndk1::__function::__func<geode::Task<geode::utils::web::WebResponse, geode::utils::web::WebProgress>::setListener(geode::EventListenerProtocol*)::{lambda()#2}, std::__ndk1::allocator<geode::Task<geode::utils::web::WebResponse, geode::utils::web::WebProgress>::setListener(geode::EventListenerProtocol*)::{lambda()#2}>, void ()>::target_type() const
PUBLIC 489a4 0 geode::Task<geode::utils::web::WebResponse, geode::utils::web::WebProgress>::setListener(geode::EventListenerProtocol*)::{lambda()#2}::operator()() const
PUBLIC 48b68 0 std::__ndk1::__throw_bad_function_call[abi:ne180000]()
PUBLIC 48b9c 0 std::__ndk1::bad_function_call::~bad_function_call()
PUBLIC 48bc0 0 std::__ndk1::__function::__func<GDDLAdvancedLevelInfoPopup::prepareSearchListeners()::$_0, std::__ndk1::allocator<GDDLAdvancedLevelInfoPopup::prepareSearchListeners()::$_0>, void (geode::Task<geode::utils::web::WebResponse, geode::utils::web::WebProgress>::Event*)>::~__func()
PUBLIC 48bc4 0 std::__ndk1::__function::__func<GDDLAdvancedLevelInfoPopup::prepareSearchListeners()::$_0, std::__ndk1::allocator<GDDLAdvancedLevelInfoPopup::prepareSearchListeners()::$_0>, void (geode::Task<geode::utils::web::WebResponse, geode::utils::web::WebProgress>::Event*)>::__clone() const
PUBLIC 48bf8 0 std::__ndk1::__function::__func<GDDLAdvancedLevelInfoPopup::prepareSearchListeners()::$_0, std::__ndk1::allocator<GDDLAdvancedLevelInfoPopup::prepareSearchListeners()::$_0>, void (geode::Task<geode::utils::web::WebResponse, geode::utils::web::WebProgress>::Event*)>::__clone(std::__ndk1::__function::__base<void (geode::Task<geode::utils::web::WebResponse, geode::utils::web::WebProgress>::Event*)>*) const
PUBLIC 48c0c 0 std::__ndk1::__function::__func<GDDLAdvancedLevelInfoPopup::prepareSearchListeners()::$_0, std::__ndk1::allocator<GDDLAdvancedLevelInfoPopup::prepareSearchListeners()::$_0>, void (geode::Task<geode::utils::web::WebResponse, geode::utils::web::WebProgress>::Event*)>::destroy()
PUBLIC 48c10 0 std::__ndk1::__function::__func<GDDLAdvancedLevelInfoPopup::prepareSearchListeners()::$_0, std::__ndk1::allocator<GDDLAdvancedLevelInfoPopup::prepareSearchListeners()::$_0>, void (geode::Task<geode::utils::web::WebResponse, geode::utils::web::WebProgress>::Event*)>::destroy_deallocate()
PUBLIC 48c14 0 std::__ndk1::__function::__func<GDDLAdvancedLevelInfoPopup::prepareSearchListeners()::$_0, std::__ndk1::allocator<GDDLAdvancedLevelInfoPopup::prepareSearchListeners()::$_0>, void (geode::Task<geode::utils::web::WebResponse, geode::utils::web::WebProgress>::Event*)>::operator()(geode::Task<geode::utils::web::WebResponse, geode::utils::web::WebProgress>::Event*&&)
PUBLIC 48d5c 0 std::__ndk1::__function::__func<GDDLAdvancedLevelInfoPopup::prepareSearchListeners()::$_0, std::__ndk1::allocator<GDDLAdvancedLevelInfoPopup::prepareSearchListeners()::$_0>, void (geode::Task<geode::utils::web::WebResponse, geode::utils::web::WebProgress>::Event*)>::target(std::type_info const&) const
PUBLIC 48d78 0 std::__ndk1::__function::__func<GDDLAdvancedLevelInfoPopup::prepareSearchListeners()::$_0, std::__ndk1::allocator<GDDLAdvancedLevelInfoPopup::prepareSearchListeners()::$_0>, void (geode::Task<geode::utils::web::WebResponse, geode::utils::web::WebProgress>::Event*)>::target_type() const
PUBLIC 48d84 0 geode::impl::ResultData<matjson::Value, std::__ndk1::basic_string<char, std::__ndk1::char_traits<char>, std::__ndk1::allocator<char> > >::~ResultData()
PUBLIC 48df8 0 std::__ndk1::__variant_detail::__visitation::__base::__dispatcher<(unsigned long)0>::__dispatch[abi:ne180000]<std::__ndk1::__variant_detail::__dtor<std::__ndk1::__variant_detail::__traits<matjson::Value, std::__ndk1::basic_string<char, std::__ndk1::char_traits<char>, std::__ndk1::allocator<char> > >, (std::__ndk1::__variant_detail::_Trait)1>::__destroy[abi:ne180000]()::{lambda(auto:1&)#1}, std::__ndk1::__variant_detail::__base<(std::__ndk1::__variant_detail::__traits<matjson::Value, std::__ndk1::basic_string<char, std::__ndk1::char_traits<char>, std::__ndk1::allocator<char> > >)1, matjson, std::__ndk1::allocator<char> >&>(std::__ndk1::__variant_detail::__dtor<std::__ndk1::__variant_detail::__traits<matjson::Value, std::__ndk1::basic_string<char, std::__ndk1::char_traits<char>, std::__ndk1::allocator<char> > >, (std::__ndk1::__variant_detail::_Trait)1>, std::__ndk1::__variant_detail::__base<(std::__ndk1::__variant_detail::__traits<matjson::Value, std::__ndk1::basic_string<char, std::__ndk1::char_traits<char>, std::__ndk1::allocator<char> > >)1, matjson, std::__ndk1::allocator<char> >&)
PUBLIC 48e00 0 std::__ndk1::__variant_detail::__visitation::__base::__dispatcher<(unsigned long)1>::__dispatch[abi:ne180000]<std::__ndk1::__variant_detail::__dtor<std::__ndk1::__variant_detail::__traits<matjson::Value, std::__ndk1::basic_string<char, std::__ndk1::char_traits<char>, std::__ndk1::allocator<char> > >, (std::__ndk1::__variant_detail::_Trait)1>::__destroy[abi:ne180000]()::{lambda(auto:1&)#1}, std::__ndk1::__variant_detail::__base<(std::__ndk1::__variant_detail::__traits<matjson::Value, std::__ndk1::basic_string<char, std::__ndk1::char_traits<char>, std::__ndk1::allocator<char> > >)1, matjson, std::__ndk1::allocator<char> >&>(std::__ndk1::__variant_detail::__dtor<std::__ndk1::__variant_detail::__traits<matjson::Value, std::__ndk1::basic_string<char, std::__ndk1::char_traits<char>, std::__ndk1::allocator<char> > >, (std::__ndk1::__variant_detail::_Trait)1>, std::__ndk1::__variant_detail::__base<(std::__ndk1::__variant_detail::__traits<matjson::Value, std::__ndk1::basic_string<char, std::__ndk1::char_traits<char>, std::__ndk1::allocator<char> > >)1, matjson, std::__ndk1::allocator<char> >&)
PUBLIC 48e14 0 std::__ndk1::__function::__func<GDDLAdvancedLevelInfoPopup::prepareSearchListeners()::$_1, std::__ndk1::allocator<GDDLAdvancedLevelInfoPopup::prepareSearchListeners()::$_1>, void (geode::Task<geode::utils::web::WebResponse, geode::utils::web::WebProgress>::Event*)>::~__func()
PUBLIC 48e18 0 std::__ndk1::__function::__func<GDDLAdvancedLevelInfoPopup::prepareSearchListeners()::$_1, std::__ndk1::allocator<GDDLAdvancedLevelInfoPopup::prepareSearchListeners()::$_1>, void (geode::Task<geode::utils::web::WebResponse, geode::utils::web::WebProgress>::Event*)>::__clone() const
PUBLIC 48e4c 0 std::__ndk1::__function::__func<GDDLAdvancedLevelInfoPopup::prepareSearchListeners()::$_1, std::__ndk1::allocator<GDDLAdvancedLevelInfoPopup::prepareSearchListeners()::$_1>, void (geode::Task<geode::utils::web::WebResponse, geode::utils::web::WebProgress>::Event*)>::__clone(std::__ndk1::__function::__base<void (geode::Task<geode::utils::web::WebResponse, geode::utils::web::WebProgress>::Event*)>*) const
PUBLIC 48e60 0 std::__ndk1::__function::__func<GDDLAdvancedLevelInfoPopup::prepareSearchListeners()::$_1, std::__ndk1::allocator<GDDLAdvancedLevelInfoPopup::prepareSearchListeners()::$_1>, void (geode::Task<geode::utils::web::WebResponse, geode::utils::web::WebProgress>::Event*)>::destroy()
PUBLIC 48e64 0 std::__ndk1::__function::__func<GDDLAdvancedLevelInfoPopup::prepareSearchListeners()::$_1, std::__ndk1::allocator<GDDLAdvancedLevelInfoPopup::prepareSearchListeners()::$_1>, void (geode::Task<geode::utils::web::WebResponse, geode::utils::web::WebProgress>::Event*)>::destroy_deallocate()
PUBLIC 48e68 0 std::__ndk1::__function::__func<GDDLAdvancedLevelInfoPopup::prepareSearchListeners()::$_1, std::__ndk1::allocator<GDDLAdvancedLevelInfoPopup::prepareSearchListeners()::$_1>, void (geode::Task<geode::utils::web::WebResponse, geode::utils::web::WebProgress>::Event*)>::operator()(geode::Task<geode::utils::web::WebResponse, geode::utils::web::WebProgress>::Event*&&)
PUBLIC 48fb0 0 std::__ndk1::__function::__func<GDDLAdvancedLevelInfoPopup::prepareSearchListeners()::$_1, std::__ndk1::allocator<GDDLAdvancedLevelInfoPopup::prepareSearchListeners()::$_1>, void (geode::Task<geode::utils::web::WebResponse, geode::utils::web::WebProgress>::Event*)>::target(std::type_info const&) const
PUBLIC 48fcc 0 std::__ndk1::__function::__func<GDDLAdvancedLevelInfoPopup::prepareSearchListeners()::$_1, std::__ndk1::allocator<GDDLAdvancedLevelInfoPopup::prepareSearchListeners()::$_1>, void (geode::Task<geode::utils::web::WebResponse, geode::utils::web::WebProgress>::Event*)>::target_type() const
PUBLIC 48fd8 0 __cxx_global_var_init.67
PUBLIC 49034 0 __cxx_global_var_init.68
PUBLIC 492b0 0 __cxx_global_var_init.75
PUBLIC 4930c 0 __cxx_global_var_init.76
PUBLIC 49368 0 __cxx_global_var_init.77
PUBLIC 4964c 0 __cxx_global_var_init.85
PUBLIC 49930 0 __cxx_global_var_init.88
PUBLIC 49a78 0 __cxx_global_var_init.91
PUBLIC 49ba8 0 __cxx_global_var_init.94
PUBLIC 49c04 0 __cxx_global_var_init.95
PUBLIC 49c60 0 __cxx_global_var_init.96
PUBLIC 49cbc 0 __cxx_global_var_init.97
PUBLIC 49d70 0 __cxx_global_var_init.99
PUBLIC 49dcc 0 __cxx_global_var_init.100
PUBLIC 49f2c 0 GDDLDemonSplitLayer::init()
PUBLIC 4a57c 0 GDDLDemonSplitLayer::onInfo(cocos2d::CCObject*)
PUBLIC 4a978 0 GDDLDemonSplitLayer::createTierNode(int)
PUBLIC 4af70 0 GDDLDemonSplitLayer::onClose(cocos2d::CCObject*)
PUBLIC 4af9c 0 GDDLDemonSplitLayer::onTierSearch(cocos2d::CCObject*)
PUBLIC 4b3c4 0 GDDLDemonSplitLayer::onEnter()
PUBLIC 4b414 0 GDDLDemonSplitLayer::create()
PUBLIC 4b518 0 GDDLDemonSplitLayer::show()
PUBLIC 4b540 0 GDDLDemonSplitLayer::~GDDLDemonSplitLayer()
PUBLIC 4b564 0 {virtual override thunk({offset(-320)}, GDDLDemonSplitLayer::~GDDLDemonSplitLayer())}
PUBLIC 4b56c 0 {virtual override thunk({offset(-320)}, GDDLDemonSplitLayer::~GDDLDemonSplitLayer())}
PUBLIC 4b594 0 GDDLLevelInfoPopup::init()
PUBLIC 4c118 0 GDDLLevelInfoPopup::onOpenInBrowser(cocos2d::CCObject*)
PUBLIC 4c1fc 0 GDDLLevelInfoPopup::onClose(cocos2d::CCObject*)
PUBLIC 4c228 0 GDDLLevelInfoPopup::create(int)
PUBLIC 4c320 0 GDDLLevelInfoPopup::show()
PUBLIC 4c348 0 GDDLLevelInfoPopup::~GDDLLevelInfoPopup()
PUBLIC 4c36c 0 {virtual override thunk({offset(-320)}, GDDLLevelInfoPopup::~GDDLLevelInfoPopup())}
PUBLIC 4c374 0 {virtual override thunk({offset(-320)}, GDDLLevelInfoPopup::~GDDLLevelInfoPopup())}
PUBLIC 4c39c 0 __cxx_global_var_init
PUBLIC 4c450 0 std::__ndk1::basic_string<char, std::__ndk1::char_traits<char>, std::__ndk1::allocator<char> >::basic_string[abi:ne180000]<0>()
PUBLIC 4c4ec 0 GDDLLoginLayer::init()
PUBLIC 4ce5c 0 GDDLLoginLayer::onClose(cocos2d::CCObject*)
PUBLIC 4ce88 0 geode::Mod::getSavedValue<std::__ndk1::basic_string<char, std::__ndk1::char_traits<char>, std::__ndk1::allocator<char> > >(std::__ndk1::basic_string_view<char, std::__ndk1::char_traits<char> >, std::__ndk1::basic_string<char, std::__ndk1::char_traits<char>, std::__ndk1::allocator<char> > const&)
PUBLIC 4d12c 0 GDDLLoginLayer::onLoginClicked(cocos2d::CCObject*)
PUBLIC 4d820 0 GDDLLoginLayer::saveLoginData(std::__ndk1::basic_string<char, std::__ndk1::char_traits<char>, std::__ndk1::allocator<char> > const&, std::__ndk1::basic_string<char, std::__ndk1::char_traits<char>, std::__ndk1::allocator<char> > const&, int)
PUBLIC 4dac8 0 geode::Mod::setSavedValue<std::__ndk1::basic_string<char, std::__ndk1::char_traits<char>, std::__ndk1::allocator<char> > >(std::__ndk1::basic_string_view<char, std::__ndk1::char_traits<char> >, std::__ndk1::basic_string<char, std::__ndk1::char_traits<char>, std::__ndk1::allocator<char> > const&)
PUBLIC 4dc28 0 GDDLLoginLayer::closeLoginPanel()
PUBLIC 4dc68 0 GDDLLoginLayer::create()
PUBLIC 4dd74 0 GDDLLoginLayer::GDDLLoginLayer()
PUBLIC 4def8 0 GDDLLoginLayer::~GDDLLoginLayer()
PUBLIC 4df9c 0 GDDLLoginLayer::show()
PUBLIC 4dfc4 0 GDDLLoginLayer::getUserIDFromUserSearchJSON(matjson::Value, std::__ndk1::basic_string<char, std::__ndk1::char_traits<char>, std::__ndk1::allocator<char> > const&)
PUBLIC 4e330 0 geode::impl::ResultData<long, std::__ndk1::basic_string<char, std::__ndk1::char_traits<char>, std::__ndk1::allocator<char> > >::unwrap() &&
PUBLIC 4e3a8 0 GDDLLoginLayer::~GDDLLoginLayer()
PUBLIC 4e454 0 {virtual override thunk({offset(-320)}, GDDLLoginLayer::~GDDLLoginLayer())}
PUBLIC 4e4fc 0 {virtual override thunk({offset(-320)}, GDDLLoginLayer::~GDDLLoginLayer())}
PUBLIC 4e5ac 0 geode::impl::ResultData<matjson::Value&, std::__ndk1::basic_string<char, std::__ndk1::char_traits<char>, std::__ndk1::allocator<char> > >::~ResultData()
PUBLIC 4e620 0 geode::impl::ResultData<std::__ndk1::basic_string<char, std::__ndk1::char_traits<char>, std::__ndk1::allocator<char> >, std::__ndk1::basic_string<char, std::__ndk1::char_traits<char>, std::__ndk1::allocator<char> > >::~ResultData()
PUBLIC 4e694 0 std::__ndk1::__variant_detail::__visitation::__base::__dispatcher<(unsigned long)0>::__dispatch[abi:ne180000]<std::__ndk1::__variant_detail::__dtor<std::__ndk1::__variant_detail::__traits<std::__ndk1::reference_wrapper<matjson::Value>, std::__ndk1::basic_string<char, std::__ndk1::char_traits<char>, std::__ndk1::allocator<char> > >, (std::__ndk1::__variant_detail::_Trait)1>::__destroy[abi:ne180000]()::{lambda(auto:1&)#1}, std::__ndk1::__variant_detail::__base<(std::__ndk1::__variant_detail::__traits<std::__ndk1::reference_wrapper<matjson::Value>, std::__ndk1::basic_string<char, std::__ndk1::char_traits<char>, std::__ndk1::allocator<char> > >)1, matjson::Value, std::__ndk1::allocator<char> >&>(std::__ndk1::__variant_detail::__dtor<std::__ndk1::__variant_detail::__traits<std::__ndk1::reference_wrapper<matjson::Value>, std::__ndk1::basic_string<char, std::__ndk1::char_traits<char>, std::__ndk1::allocator<char> > >, (std::__ndk1::__variant_detail::_Trait)1>, std::__ndk1::__variant_detail::__base<(std::__ndk1::__variant_detail::__traits<std::__ndk1::reference_wrapper<matjson::Value>, std::__ndk1::basic_string<char, std::__ndk1::char_traits<char>, std::__ndk1::allocator<char> > >)1, matjson::Value, std::__ndk1::allocator<char> >&)
PUBLIC 4e698 0 std::__ndk1::__variant_detail::__visitation::__base::__dispatcher<(unsigned long)1>::__dispatch[abi:ne180000]<std::__ndk1::__variant_detail::__dtor<std::__ndk1::__variant_detail::__traits<std::__ndk1::reference_wrapper<matjson::Value>, std::__ndk1::basic_string<char, std::__ndk1::char_traits<char>, std::__ndk1::allocator<char> > >, (std::__ndk1::__variant_detail::_Trait)1>::__destroy[abi:ne180000]()::{lambda(auto:1&)#1}, std::__ndk1::__variant_detail::__base<(std::__ndk1::__variant_detail::__traits<std::__ndk1::reference_wrapper<matjson::Value>, std::__ndk1::basic_string<char, std::__ndk1::char_traits<char>, std::__ndk1::allocator<char> > >)1, matjson::Value, std::__ndk1::allocator<char> >&>(std::__ndk1::__variant_detail::__dtor<std::__ndk1::__variant_detail::__traits<std::__ndk1::reference_wrapper<matjson::Value>, std::__ndk1::basic_string<char, std::__ndk1::char_traits<char>, std::__ndk1::allocator<char> > >, (std::__ndk1::__variant_detail::_Trait)1>, std::__ndk1::__variant_detail::__base<(std::__ndk1::__variant_detail::__traits<std::__ndk1::reference_wrapper<matjson::Value>, std::__ndk1::basic_string<char, std::__ndk1::char_traits<char>, std::__ndk1::allocator<char> > >)1, matjson::Value, std::__ndk1::allocator<char> >&)
PUBLIC 4e6ac 0 std::__ndk1::__function::__func<GDDLLoginLayer::prepareSearchListener()::$_0, std::__ndk1::allocator<GDDLLoginLayer::prepareSearchListener()::$_0>, void (geode::Task<geode::utils::web::WebResponse, geode::utils::web::WebProgress>::Event*)>::~__func()
PUBLIC 4e6b0 0 std::__ndk1::__function::__func<GDDLLoginLayer::prepareSearchListener()::$_0, std::__ndk1::allocator<GDDLLoginLayer::prepareSearchListener()::$_0>, void (geode::Task<geode::utils::web::WebResponse, geode::utils::web::WebProgress>::Event*)>::__clone() const
PUBLIC 4e6e4 0 std::__ndk1::__function::__func<GDDLLoginLayer::prepareSearchListener()::$_0, std::__ndk1::allocator<GDDLLoginLayer::prepareSearchListener()::$_0>, void (geode::Task<geode::utils::web::WebResponse, geode::utils::web::WebProgress>::Event*)>::__clone(std::__ndk1::__function::__base<void (geode::Task<geode::utils::web::WebResponse, geode::utils::web::WebProgress>::Event*)>*) const
PUBLIC 4e6f8 0 std::__ndk1::__function::__func<GDDLLoginLayer::prepareSearchListener()::$_0, std::__ndk1::allocator<GDDLLoginLayer::prepareSearchListener()::$_0>, void (geode::Task<geode::utils::web::WebResponse, geode::utils::web::WebProgress>::Event*)>::destroy()
PUBLIC 4e6fc 0 std::__ndk1::__function::__func<GDDLLoginLayer::prepareSearchListener()::$_0, std::__ndk1::allocator<GDDLLoginLayer::prepareSearchListener()::$_0>, void (geode::Task<geode::utils::web::WebResponse, geode::utils::web::WebProgress>::Event*)>::destroy_deallocate()
PUBLIC 4e700 0 std::__ndk1::__function::__func<GDDLLoginLayer::prepareSearchListener()::$_0, std::__ndk1::allocator<GDDLLoginLayer::prepareSearchListener()::$_0>, void (geode::Task<geode::utils::web::WebResponse, geode::utils::web::WebProgress>::Event*)>::operator()(geode::Task<geode::utils::web::WebResponse, geode::utils::web::WebProgress>::Event*&&)
PUBLIC 4f660 0 std::__ndk1::__function::__func<GDDLLoginLayer::prepareSearchListener()::$_0, std::__ndk1::allocator<GDDLLoginLayer::prepareSearchListener()::$_0>, void (geode::Task<geode::utils::web::WebResponse, geode::utils::web::WebProgress>::Event*)>::target(std::type_info const&) const
PUBLIC 4f67c 0 std::__ndk1::__function::__func<GDDLLoginLayer::prepareSearchListener()::$_0, std::__ndk1::allocator<GDDLLoginLayer::prepareSearchListener()::$_0>, void (geode::Task<geode::utils::web::WebResponse, geode::utils::web::WebProgress>::Event*)>::target_type() const
PUBLIC 4f688 0 std::__ndk1::pair<std::__ndk1::basic_string<char, std::__ndk1::char_traits<char>, std::__ndk1::allocator<char> >, std::__ndk1::basic_string<char, std::__ndk1::char_traits<char>, std::__ndk1::allocator<char> > >::~pair()
PUBLIC 4f6cc 0 geode::impl::ResultData<matjson::Value, matjson::ParseError>::unwrap() const &
PUBLIC 4f740 0 std::__ndk1::__optional_destruct_base<std::__ndk1::vector<std::__ndk1::basic_string<char, std::__ndk1::char_traits<char>, std::__ndk1::allocator<char> >, std::__ndk1::allocator<std::__ndk1::basic_string<char, std::__ndk1::char_traits<char>, std::__ndk1::allocator<char> > > >, false>::~__optional_destruct_base[abi:ne180000]()
PUBLIC 4f7c4 0 std::__ndk1::unique_ptr<std::__ndk1::__tree_node<std::__ndk1::__value_type<std::__ndk1::basic_string<char, std::__ndk1::char_traits<char>, std::__ndk1::allocator<char> >, std::__ndk1::basic_string<char, std::__ndk1::char_traits<char>, std::__ndk1::allocator<char> > >, void*>, std::__ndk1::__tree_node_destructor<std::__ndk1::allocator<std::__ndk1::__tree_node<std::__ndk1::__value_type<std::__ndk1::basic_string<char, std::__ndk1::char_traits<char>, std::__ndk1::allocator<char> >, std::__ndk1::basic_string<char, std::__ndk1::char_traits<char>, std::__ndk1::allocator<char> > >, void*> > > >::~unique_ptr[abi:ne180000]()
PUBLIC 4f820 0 std::__ndk1::__tree<std::__ndk1::__value_type<std::__ndk1::basic_string<char, std::__ndk1::char_traits<char>, std::__ndk1::allocator<char> >, std::__ndk1::basic_string<char, std::__ndk1::char_traits<char>, std::__ndk1::allocator<char> > >, std::__ndk1::__map_value_compare<std::__ndk1::basic_string<char, std::__ndk1::char_traits<char>, std::__ndk1::allocator<char> >, std::__ndk1::__value_type<std::__ndk1::basic_string<char, std::__ndk1::char_traits<char>, std::__ndk1::allocator<char> >, std::__ndk1::basic_string<char, std::__ndk1::char_traits<char>, std::__ndk1::allocator<char> > >, std::__ndk1::less<std::__ndk1::basic_string<char, std::__ndk1::char_traits<char>, std::__ndk1::allocator<char> > >, true>, std::__ndk1::allocator<std::__ndk1::__value_type<std::__ndk1::basic_string<char, std::__ndk1::char_traits<char>, std::__ndk1::allocator<char> >, std::__ndk1::basic_string<char, std::__ndk1::char_traits<char>, std::__ndk1::allocator<char> > > > >::find<std::__ndk1::basic_string<char, std::__ndk1::char_traits<char>, std::__ndk1::allocator<char> > >(std::__ndk1::basic_string<char, std::__ndk1::char_traits<char>, std::__ndk1::allocator<char> > const&) const
PUBLIC 4f940 0 std::__ndk1::__tree<std::__ndk1::__value_type<std::__ndk1::basic_string<char, std::__ndk1::char_traits<char>, std::__ndk1::allocator<char> >, std::__ndk1::basic_string<char, std::__ndk1::char_traits<char>, std::__ndk1::allocator<char> > >, std::__ndk1::__map_value_compare<std::__ndk1::basic_string<char, std::__ndk1::char_traits<char>, std::__ndk1::allocator<char> >, std::__ndk1::__value_type<std::__ndk1::basic_string<char, std::__ndk1::char_traits<char>, std::__ndk1::allocator<char> >, std::__ndk1::basic_string<char, std::__ndk1::char_traits<char>, std::__ndk1::allocator<char> > >, std::__ndk1::less<std::__ndk1::basic_string<char, std::__ndk1::char_traits<char>, std::__ndk1::allocator<char> > >, true>, std::__ndk1::allocator<std::__ndk1::__value_type<std::__ndk1::basic_string<char, std::__ndk1::char_traits<char>, std::__ndk1::allocator<char> >, std::__ndk1::basic_string<char, std::__ndk1::char_traits<char>, std::__ndk1::allocator<char> > > > >::__emplace_unique_key_args<std::__ndk1::basic_string<char, std::__ndk1::char_traits<char>, std::__ndk1::allocator<char> >, std::__ndk1::piecewise_construct_t const&, std::__ndk1::tuple<std::__ndk1::basic_string<char, std::__ndk1::char_traits<char>, std::__ndk1::allocator<char> >&&>, std::__ndk1::tuple<> >(std::__ndk1::basic_string<char, std::__ndk1::char_traits<char>, std::__ndk1::allocator<char> > const&, std::__ndk1::piecewise_construct_t const&, std::__ndk1::tuple<std::__ndk1::basic_string<char, std::__ndk1::char_traits<char>, std::__ndk1::allocator<char> >&&>, std::__ndk1::tuple<>)
PUBLIC 4faa8 0 _ZN5geode15UnwrapExceptionC2IRKN7matjson10ParseErrorEQntsr4implE18IsStringStreamableIT_EEENS_4impl6ErrTagEOS6_
PUBLIC 4fadc 0 std::__ndk1::__tree<std::__ndk1::__value_type<std::__ndk1::basic_string<char, std::__ndk1::char_traits<char>, std::__ndk1::allocator<char> >, std::__ndk1::basic_string<char, std::__ndk1::char_traits<char>, std::__ndk1::allocator<char> > >, std::__ndk1::__map_value_compare<std::__ndk1::basic_string<char, std::__ndk1::char_traits<char>, std::__ndk1::allocator<char> >, std::__ndk1::__value_type<std::__ndk1::basic_string<char, std::__ndk1::char_traits<char>, std::__ndk1::allocator<char> >, std::__ndk1::basic_string<char, std::__ndk1::char_traits<char>, std::__ndk1::allocator<char> > >, std::__ndk1::less<std::__ndk1::basic_string<char, std::__ndk1::char_traits<char>, std::__ndk1::allocator<char> > >, true>, std::__ndk1::allocator<std::__ndk1::__value_type<std::__ndk1::basic_string<char, std::__ndk1::char_traits<char>, std::__ndk1::allocator<char> >, std::__ndk1::basic_string<char, std::__ndk1::char_traits<char>, std::__ndk1::allocator<char> > > > >::destroy(std::__ndk1::__tree_node<std::__ndk1::__value_type<std::__ndk1::basic_string<char, std::__ndk1::char_traits<char>, std::__ndk1::allocator<char> >, std::__ndk1::basic_string<char, std::__ndk1::char_traits<char>, std::__ndk1::allocator<char> > >, void*>*)
PUBLIC 4fb4c 0 geode::Mod::getSavedValue<std::__ndk1::basic_string<char, std::__ndk1::char_traits<char>, std::__ndk1::allocator<char> > >(std::__ndk1::basic_string_view<char, std::__ndk1::char_traits<char> >)
PUBLIC 4fd34 0 geode::Mod::getSavedValue<int>(std::__ndk1::basic_string_view<char, std::__ndk1::char_traits<char> >)
PUBLIC 4feb8 0 matjson::Value::as<int>() const
PUBLIC 4ffbc 0 GDDLRatingSubmissionLayer::init(GJGameLevel*, int)
PUBLIC 52084 0 GDDLRatingSubmissionLayer::onClose(cocos2d::CCObject*)
PUBLIC 520b0 0 GDDLRatingSubmissionLayer::onRatingLeft(cocos2d::CCObject*)
PUBLIC 52168 0 GDDLRatingSubmissionLayer::onRatingRight(cocos2d::CCObject*)
PUBLIC 5221c 0 GDDLRatingSubmissionLayer::onRatingInfo(cocos2d::CCObject*)
PUBLIC 52428 0 GDDLRatingSubmissionLayer::onEnjoymentLeft(cocos2d::CCObject*)
PUBLIC 524e4 0 GDDLRatingSubmissionLayer::onEnjoymentRight(cocos2d::CCObject*)
PUBLIC 525a4 0 GDDLRatingSubmissionLayer::onEnjoymentInfo(cocos2d::CCObject*)
PUBLIC 52680 0 GDDLRatingSubmissionLayer::onFPSLeft(cocos2d::CCObject*)
PUBLIC 52734 0 GDDLRatingSubmissionLayer::onFPSRight(cocos2d::CCObject*)
PUBLIC 527e4 0 GDDLRatingSubmissionLayer::onFPSInfo(cocos2d::CCObject*)
PUBLIC 528c0 0 GDDLRatingSubmissionLayer::onDeviceLeft(cocos2d::CCObject*)
PUBLIC 52978 0 GDDLRatingSubmissionLayer::onDeviceRight(cocos2d::CCObject*)
PUBLIC 52a30 0 GDDLRatingSubmissionLayer::onPercentInfo(cocos2d::CCObject*)
PUBLIC 52b0c 0 GDDLRatingSubmissionLayer::onAttemptsInfo(cocos2d::CCObject*)
PUBLIC 52be8 0 GDDLRatingSubmissionLayer::onProofInfo(cocos2d::CCObject*)
PUBLIC 52cc4 0 GDDLRatingSubmissionLayer::onToggleSoloCompletion(cocos2d::CCObject*)
PUBLIC 52cd8 0 GDDLRatingSubmissionLayer::onSecondPlayerInfo(cocos2d::CCObject*)
PUBLIC 52db4 0 GDDLRatingSubmissionLayer::onSubmitClicked(cocos2d::CCObject*)
PUBLIC 539a0 0 GDDLRatingSubmissionLayer::onGuidelinesClicked(cocos2d::CCObject*)
PUBLIC 53a58 0 GDDLRatingSubmissionLayer::makeSubmissionRequest()
PUBLIC 53f78 0 GDDLRatingSubmissionLayer::GDDLRatingSubmissionLayer()
PUBLIC 54268 0 GDDLRatingSubmissionLayer::~GDDLRatingSubmissionLayer()
PUBLIC 54424 0 GDDLRatingSubmissionLayer::show()
PUBLIC 548e4 0 GDDLRatingSubmissionLayer::showAlreadySubmittedWarning()
PUBLIC 54bb4 0 geode::Mod::getSavedValue<int>(std::__ndk1::basic_string_view<char, std::__ndk1::char_traits<char> >, int const&)
PUBLIC 54d90 0 GDDLRatingSubmissionLayer::~GDDLRatingSubmissionLayer()
PUBLIC 54db4 0 {virtual override thunk({offset(-320)}, GDDLRatingSubmissionLayer::~GDDLRatingSubmissionLayer())}
PUBLIC 54dbc 0 {virtual override thunk({offset(-320)}, GDDLRatingSubmissionLayer::~GDDLRatingSubmissionLayer())}
PUBLIC 54de4 0 std::__ndk1::basic_string<char, std::__ndk1::char_traits<char>, std::__ndk1::allocator<char> >::__erase_external_with_move(unsigned long, unsigned long)
PUBLIC 54e68 0 std::__ndk1::__function::__func<GDDLRatingSubmissionLayer::prepareSubmissionListeners()::$_0, std::__ndk1::allocator<GDDLRatingSubmissionLayer::prepareSubmissionListeners()::$_0>, void (geode::Task<geode::utils::web::WebResponse, geode::utils::web::WebProgress>::Event*)>::~__func()
PUBLIC 54e6c 0 std::__ndk1::__function::__func<GDDLRatingSubmissionLayer::prepareSubmissionListeners()::$_0, std::__ndk1::allocator<GDDLRatingSubmissionLayer::prepareSubmissionListeners()::$_0>, void (geode::Task<geode::utils::web::WebResponse, geode::utils::web::WebProgress>::Event*)>::__clone() const
PUBLIC 54ea0 0 std::__ndk1::__function::__func<GDDLRatingSubmissionLayer::prepareSubmissionListeners()::$_0, std::__ndk1::allocator<GDDLRatingSubmissionLayer::prepareSubmissionListeners()::$_0>, void (geode::Task<geode::utils::web::WebResponse, geode::utils::web::WebProgress>::Event*)>::__clone(std::__ndk1::__function::__base<void (geode::Task<geode::utils::web::WebResponse, geode::utils::web::WebProgress>::Event*)>*) const
PUBLIC 54eb4 0 std::__ndk1::__function::__func<GDDLRatingSubmissionLayer::prepareSubmissionListeners()::$_0, std::__ndk1::allocator<GDDLRatingSubmissionLayer::prepareSubmissionListeners()::$_0>, void (geode::Task<geode::utils::web::WebResponse, geode::utils::web::WebProgress>::Event*)>::destroy()
PUBLIC 54eb8 0 std::__ndk1::__function::__func<GDDLRatingSubmissionLayer::prepareSubmissionListeners()::$_0, std::__ndk1::allocator<GDDLRatingSubmissionLayer::prepareSubmissionListeners()::$_0>, void (geode::Task<geode::utils::web::WebResponse, geode::utils::web::WebProgress>::Event*)>::destroy_deallocate()
PUBLIC 54ebc 0 std::__ndk1::__function::__func<GDDLRatingSubmissionLayer::prepareSubmissionListeners()::$_0, std::__ndk1::allocator<GDDLRatingSubmissionLayer::prepareSubmissionListeners()::$_0>, void (geode::Task<geode::utils::web::WebResponse, geode::utils::web::WebProgress>::Event*)>::operator()(geode::Task<geode::utils::web::WebResponse, geode::utils::web::WebProgress>::Event*&&)
PUBLIC 554d8 0 std::__ndk1::__function::__func<GDDLRatingSubmissionLayer::prepareSubmissionListeners()::$_0, std::__ndk1::allocator<GDDLRatingSubmissionLayer::prepareSubmissionListeners()::$_0>, void (geode::Task<geode::utils::web::WebResponse, geode::utils::web::WebProgress>::Event*)>::target(std::type_info const&) const
PUBLIC 554f4 0 std::__ndk1::__function::__func<GDDLRatingSubmissionLayer::prepareSubmissionListeners()::$_0, std::__ndk1::allocator<GDDLRatingSubmissionLayer::prepareSubmissionListeners()::$_0>, void (geode::Task<geode::utils::web::WebResponse, geode::utils::web::WebProgress>::Event*)>::target_type() const
PUBLIC 55500 0 geode::impl::ResultData<bool, std::__ndk1::basic_string<char, std::__ndk1::char_traits<char>, std::__ndk1::allocator<char> > >::~ResultData()
PUBLIC 55574 0 std::__ndk1::__variant_detail::__visitation::__base::__dispatcher<(unsigned long)0>::__dispatch[abi:ne180000]<std::__ndk1::__variant_detail::__dtor<std::__ndk1::__variant_detail::__traits<bool, std::__ndk1::basic_string<char, std::__ndk1::char_traits<char>, std::__ndk1::allocator<char> > >, (std::__ndk1::__variant_detail::_Trait)1>::__destroy[abi:ne180000]()::{lambda(auto:1&)#1}, std::__ndk1::__variant_detail::__base<(std::__ndk1::__variant_detail::__traits<bool, std::__ndk1::basic_string<char, std::__ndk1::char_traits<char>, std::__ndk1::allocator<char> > >)1, bool, std::__ndk1::allocator<char> >&>(std::__ndk1::__variant_detail::__dtor<std::__ndk1::__variant_detail::__traits<bool, std::__ndk1::basic_string<char, std::__ndk1::char_traits<char>, std::__ndk1::allocator<char> > >, (std::__ndk1::__variant_detail::_Trait)1>, std::__ndk1::__variant_detail::__base<(std::__ndk1::__variant_detail::__traits<bool, std::__ndk1::basic_string<char, std::__ndk1::char_traits<char>, std::__ndk1::allocator<char> > >)1, bool, std::__ndk1::allocator<char> >&)
PUBLIC 55578 0 std::__ndk1::__variant_detail::__visitation::__base::__dispatcher<(unsigned long)1>::__dispatch[abi:ne180000]<std::__ndk1::__variant_detail::__dtor<std::__ndk1::__variant_detail::__traits<bool, std::__ndk1::basic_string<char, std::__ndk1::char_traits<char>, std::__ndk1::allocator<char> > >, (std::__ndk1::__variant_detail::_Trait)1>::__destroy[abi:ne180000]()::{lambda(auto:1&)#1}, std::__ndk1::__variant_detail::__base<(std::__ndk1::__variant_detail::__traits<bool, std::__ndk1::basic_string<char, std::__ndk1::char_traits<char>, std::__ndk1::allocator<char> > >)1, bool, std::__ndk1::allocator<char> >&>(std::__ndk1::__variant_detail::__dtor<std::__ndk1::__variant_detail::__traits<bool, std::__ndk1::basic_string<char, std::__ndk1::char_traits<char>, std::__ndk1::allocator<char> > >, (std::__ndk1::__variant_detail::_Trait)1>, std::__ndk1::__variant_detail::__base<(std::__ndk1::__variant_detail::__traits<bool, std::__ndk1::basic_string<char, std::__ndk1::char_traits<char>, std::__ndk1::allocator<char> > >)1, bool, std::__ndk1::allocator<char> >&)
PUBLIC 5558c 0 std::__ndk1::__function::__func<GDDLRatingSubmissionLayer::prepareSubmissionListeners()::$_1, std::__ndk1::allocator<GDDLRatingSubmissionLayer::prepareSubmissionListeners()::$_1>, void (geode::Task<geode::utils::web::WebResponse, geode::utils::web::WebProgress>::Event*)>::~__func()
PUBLIC 55590 0 std::__ndk1::__function::__func<GDDLRatingSubmissionLayer::prepareSubmissionListeners()::$_1, std::__ndk1::allocator<GDDLRatingSubmissionLayer::prepareSubmissionListeners()::$_1>, void (geode::Task<geode::utils::web::WebResponse, geode::utils::web::WebProgress>::Event*)>::__clone() const
PUBLIC 555c4 0 std::__ndk1::__function::__func<GDDLRatingSubmissionLayer::prepareSubmissionListeners()::$_1, std::__ndk1::allocator<GDDLRatingSubmissionLayer::prepareSubmissionListeners()::$_1>, void (geode::Task<geode::utils::web::WebResponse, geode::utils::web::WebProgress>::Event*)>::__clone(std::__ndk1::__function::__base<void (geode::Task<geode::utils::web::WebResponse, geode::utils::web::WebProgress>::Event*)>*) const
PUBLIC 555d8 0 std::__ndk1::__function::__func<GDDLRatingSubmissionLayer::prepareSubmissionListeners()::$_1, std::__ndk1::allocator<GDDLRatingSubmissionLayer::prepareSubmissionListeners()::$_1>, void (geode::Task<geode::utils::web::WebResponse, geode::utils::web::WebProgress>::Event*)>::destroy()
PUBLIC 555dc 0 std::__ndk1::__function::__func<GDDLRatingSubmissionLayer::prepareSubmissionListeners()::$_1, std::__ndk1::allocator<GDDLRatingSubmissionLayer::prepareSubmissionListeners()::$_1>, void (geode::Task<geode::utils::web::WebResponse, geode::utils::web::WebProgress>::Event*)>::destroy_deallocate()
PUBLIC 555e0 0 std::__ndk1::__function::__func<GDDLRatingSubmissionLayer::prepareSubmissionListeners()::$_1, std::__ndk1::allocator<GDDLRatingSubmissionLayer::prepareSubmissionListeners()::$_1>, void (geode::Task<geode::utils::web::WebResponse, geode::utils::web::WebProgress>::Event*)>::operator()(geode::Task<geode::utils::web::WebResponse, geode::utils::web::WebProgress>::Event*&&)
PUBLIC 559bc 0 std::__ndk1::__function::__func<GDDLRatingSubmissionLayer::prepareSubmissionListeners()::$_1, std::__ndk1::allocator<GDDLRatingSubmissionLayer::prepareSubmissionListeners()::$_1>, void (geode::Task<geode::utils::web::WebResponse, geode::utils::web::WebProgress>::Event*)>::target(std::type_info const&) const
PUBLIC 559d8 0 std::__ndk1::__function::__func<GDDLRatingSubmissionLayer::prepareSubmissionListeners()::$_1, std::__ndk1::allocator<GDDLRatingSubmissionLayer::prepareSubmissionListeners()::$_1>, void (geode::Task<geode::utils::web::WebResponse, geode::utils::web::WebProgress>::Event*)>::target_type() const
PUBLIC 559e4 0 std::__ndk1::__function::__func<GDDLRatingSubmissionLayer::prepareSubmissionListeners()::$_2, std::__ndk1::allocator<GDDLRatingSubmissionLayer::prepareSubmissionListeners()::$_2>, void (geode::Task<geode::utils::web::WebResponse, geode::utils::web::WebProgress>::Event*)>::~__func()
PUBLIC 559e8 0 std::__ndk1::__function::__func<GDDLRatingSubmissionLayer::prepareSubmissionListeners()::$_2, std::__ndk1::allocator<GDDLRatingSubmissionLayer::prepareSubmissionListeners()::$_2>, void (geode::Task<geode::utils::web::WebResponse, geode::utils::web::WebProgress>::Event*)>::__clone() const
PUBLIC 55a1c 0 std::__ndk1::__function::__func<GDDLRatingSubmissionLayer::prepareSubmissionListeners()::$_2, std::__ndk1::allocator<GDDLRatingSubmissionLayer::prepareSubmissionListeners()::$_2>, void (geode::Task<geode::utils::web::WebResponse, geode::utils::web::WebProgress>::Event*)>::__clone(std::__ndk1::__function::__base<void (geode::Task<geode::utils::web::WebResponse, geode::utils::web::WebProgress>::Event*)>*) const
PUBLIC 55a30 0 std::__ndk1::__function::__func<GDDLRatingSubmissionLayer::prepareSubmissionListeners()::$_2, std::__ndk1::allocator<GDDLRatingSubmissionLayer::prepareSubmissionListeners()::$_2>, void (geode::Task<geode::utils::web::WebResponse, geode::utils::web::WebProgress>::Event*)>::destroy()
PUBLIC 55a34 0 std::__ndk1::__function::__func<GDDLRatingSubmissionLayer::prepareSubmissionListeners()::$_2, std::__ndk1::allocator<GDDLRatingSubmissionLayer::prepareSubmissionListeners()::$_2>, void (geode::Task<geode::utils::web::WebResponse, geode::utils::web::WebProgress>::Event*)>::destroy_deallocate()
PUBLIC 55a38 0 std::__ndk1::__function::__func<GDDLRatingSubmissionLayer::prepareSubmissionListeners()::$_2, std::__ndk1::allocator<GDDLRatingSubmissionLayer::prepareSubmissionListeners()::$_2>, void (geode::Task<geode::utils::web::WebResponse, geode::utils::web::WebProgress>::Event*)>::operator()(geode::Task<geode::utils::web::WebResponse, geode::utils::web::WebProgress>::Event*&&)
PUBLIC 55e3c 0 std::__ndk1::__function::__func<GDDLRatingSubmissionLayer::prepareSubmissionListeners()::$_2, std::__ndk1::allocator<GDDLRatingSubmissionLayer::prepareSubmissionListeners()::$_2>, void (geode::Task<geode::utils::web::WebResponse, geode::utils::web::WebProgress>::Event*)>::target(std::type_info const&) const
PUBLIC 55e58 0 std::__ndk1::__function::__func<GDDLRatingSubmissionLayer::prepareSubmissionListeners()::$_2, std::__ndk1::allocator<GDDLRatingSubmissionLayer::prepareSubmissionListeners()::$_2>, void (geode::Task<geode::utils::web::WebResponse, geode::utils::web::WebProgress>::Event*)>::target_type() const
PUBLIC 55e64 0 GDDLSearchLayer::init()
PUBLIC 564ac 0 GDDLSearchLayer::onClose(cocos2d::CCObject*)
PUBLIC 564f4 0 GDDLSearchLayer::onInfo(cocos2d::CCObject*)
PUBLIC 5664c 0 GDDLSearchLayer::onSwapLayout(cocos2d::CCObject*)
PUBLIC 56688 0 GDDLSearchLayer::showPage()
PUBLIC 56d6c 0 GDDLSearchLayer::loadValues()
PUBLIC 571f0 0 GDDLSearchLayer::loadPageFull()
PUBLIC 590f0 0 GDDLSearchLayer::onSearchClicked(cocos2d::CCObject*)
PUBLIC 59160 0 GDDLSearchLayer::onResetClicked(cocos2d::CCObject*)
PUBLIC 595dc 0 GDDLSearchLayer::onToggleExactMatch(cocos2d::CCObject*)
PUBLIC 59618 0 GDDLSearchLayer::onInGameRatingLeft(cocos2d::CCObject*)
PUBLIC 59660 0 GDDLSearchLayer::onInGameRatingRight(cocos2d::CCObject*)
PUBLIC 596a4 0 GDDLSearchLayer::onTierLowLeft(cocos2d::CCObject*)
PUBLIC 59750 0 GDDLSearchLayer::onTierLowRight(cocos2d::CCObject*)
PUBLIC 597f8 0 GDDLSearchLayer::onTierHighLeft(cocos2d::CCObject*)
PUBLIC 598a4 0 GDDLSearchLayer::onTierHighRight(cocos2d::CCObject*)
PUBLIC 5994c 0 GDDLSearchLayer::onEnjoymentLowLeft(cocos2d::CCObject*)
PUBLIC 599bc 0 GDDLSearchLayer::onEnjoymentLowRight(cocos2d::CCObject*)
PUBLIC 59a2c 0 GDDLSearchLayer::onEnjoymentHighLeft(cocos2d::CCObject*)
PUBLIC 59a9c 0 GDDLSearchLayer::onEnjoymentHighRight(cocos2d::CCObject*)
PUBLIC 59b0c 0 GDDLSearchLayer::onSubmissionCountLowLeft(cocos2d::CCObject*)
PUBLIC 59bb8 0 GDDLSearchLayer::onSubmissionCountLowRight(cocos2d::CCObject*)
PUBLIC 59c68 0 GDDLSearchLayer::onSubmissionCountHighLeft(cocos2d::CCObject*)
PUBLIC 59d14 0 GDDLSearchLayer::onSubmissionCountHighRight(cocos2d::CCObject*)
PUBLIC 59dc4 0 GDDLSearchLayer::onEnjSubmissionCountLowLeft(cocos2d::CCObject*)
PUBLIC 59e70 0 GDDLSearchLayer::onEnjSubmissionCountLowRight(cocos2d::CCObject*)
PUBLIC 59f20 0 GDDLSearchLayer::onEnjSubmissionCountHighLeft(cocos2d::CCObject*)
PUBLIC 59fcc 0 GDDLSearchLayer::onEnjSubmissionCountHighRight(cocos2d::CCObject*)
PUBLIC 5a07c 0 GDDLSearchLayer::onToggleNoUnrated(cocos2d::CCObject*)
PUBLIC 5a098 0 GDDLSearchLayer::onToggleNoRated(cocos2d::CCObject*)
PUBLIC 5a0b4 0 GDDLSearchLayer::onToggleCompleted(cocos2d::CCObject*)
PUBLIC 5a0b8 0 GDDLSearchLayer::onToggleNoUnratedEnj(cocos2d::CCObject*)
PUBLIC 5a0d4 0 GDDLSearchLayer::onToggleNoRatedEnj(cocos2d::CCObject*)
PUBLIC 5a0f0 0 GDDLSearchLayer::onToggleUncompleted(cocos2d::CCObject*)
PUBLIC 5a0f4 0 GDDLSearchLayer::onSortByLeft(cocos2d::CCObject*)
PUBLIC 5a1e4 0 GDDLSearchLayer::onSortByRight(cocos2d::CCObject*)
PUBLIC 5a2d8 0 GDDLSearchLayer::onSortDirectionLeft(cocos2d::CCObject*)
PUBLIC 5a3c8 0 GDDLSearchLayer::onSortDirectionRight(cocos2d::CCObject*)
PUBLIC 5a4bc 0 GDDLSearchLayer::createTierNode(int)
PUBLIC 5a8e0 0 GDDLSearchLayer::createCheckboxNode(std::__ndk1::basic_string<char, std::__ndk1::char_traits<char>, std::__ndk1::allocator<char> > const&, std::__ndk1::basic_string<char, std::__ndk1::char_traits<char>, std::__ndk1::allocator<char> > const&, CCMenuItemToggler*&, void (cocos2d::CCObject::*)(cocos2d::CCObject*))
PUBLIC 5abc4 0 GDDLSearchLayer::showLoadingCircle()
PUBLIC 5ad68 0 GDDLSearchLayer::clickOffTextfields()
PUBLIC 5aed0 0 GDDLSearchLayer::setDifficultyLabel()
PUBLIC 5b050 0 GDDLSearchLayer::setNumberFloatTextfield(float, CCTextInputNode*&)
PUBLIC 5b2c0 0 GDDLSearchLayer::saveValues()
PUBLIC 5b518 0 GDDLSearchLayer::getFloatTextfieldValue(CCTextInputNode*&, float)
PUBLIC 5b704 0 GDDLSearchLayer::cacheValues()
PUBLIC 5ba44 0 GDDLSearchLayer::restoreValues()
PUBLIC 5bcc0 0 GDDLSearchLayer::saveSettings()
PUBLIC 5c64c 0 GDDLSearchLayer::keyBackClicked()
PUBLIC 5c670 0 {virtual override thunk({offset(-336)}, GDDLSearchLayer::keyBackClicked())}
PUBLIC 5c698 0 GDDLSearchLayer::addStringToRequest(std::__ndk1::basic_string<char, std::__ndk1::char_traits<char>, std::__ndk1::allocator<char> > const&, std::__ndk1::basic_string<char, std::__ndk1::char_traits<char>, std::__ndk1::allocator<char> > const&)
PUBLIC 5ca2c 0 GDDLSearchLayer::addBoolToRequest(std::__ndk1::basic_string<char, std::__ndk1::char_traits<char>, std::__ndk1::allocator<char> > const&, bool)
PUBLIC 5ccc8 0 GDDLSearchLayer::formSearchRequest()
PUBLIC 5d824 0 GDDLSearchLayer::addValueToRequest<int>(std::__ndk1::basic_string<char, std::__ndk1::char_traits<char>, std::__ndk1::allocator<char> > const&, int, int)
PUBLIC 5daac 0 GDDLSearchLayer::addValueToRequest<float>(std::__ndk1::basic_string<char, std::__ndk1::char_traits<char>, std::__ndk1::allocator<char> > const&, float, float)
PUBLIC 5dd3c 0 geode::impl::ResultData<double, std::__ndk1::basic_string<char, std::__ndk1::char_traits<char>, std::__ndk1::allocator<char> > >::~ResultData()
PUBLIC 5ddb0 0 GDDLSearchLayer::makeASearchObjectFrom(int, int)
PUBLIC 5e010 0 GDDLSearchLayer::handleSearchObject(GJSearchObject*, GDDLBrowserLayer*, int)
PUBLIC 5e164 0 GDDLSearchLayer::onTierSearch(cocos2d::CCObject*)
PUBLIC 5e414 0 GDDLSearchLayer::requestSearchPage(int, GDDLBrowserLayer*)
PUBLIC 5e6f4 0 GDDLSearchLayer::onEnter()
PUBLIC 5e744 0 GDDLSearchLayer::create()
PUBLIC 5e88c 0 GDDLSearchLayer::~GDDLSearchLayer()
PUBLIC 5e8c0 0 GDDLSearchLayer::show()
PUBLIC 5e8e8 0 GDDLSearchLayer::loadSettings()
PUBLIC 5ef1c 0 geode::Mod::getSavedValue<bool>(std::__ndk1::basic_string_view<char, std::__ndk1::char_traits<char> >, bool const&)
PUBLIC 5f108 0 geode::Mod::getSavedValue<float>(std::__ndk1::basic_string_view<char, std::__ndk1::char_traits<char> >, float const&)
PUBLIC 5f2e8 0 GDDLSearchLayer::requestSearchFromDemonSplit(int, GDDLDemonSplitLayer*)
PUBLIC 5f448 0 GDDLSearchLayer::onExit()
PUBLIC 5f46c 0 GDDLSearchLayer::~GDDLSearchLayer()
PUBLIC 5f4a4 0 {virtual override thunk({offset(-320)}, GDDLSearchLayer::~GDDLSearchLayer())}
PUBLIC 5f4d4 0 {virtual override thunk({offset(-320)}, GDDLSearchLayer::~GDDLSearchLayer())}
PUBLIC 5f510 0 __cxx_global_var_init.207
PUBLIC 5f570 0 geode::modifier::ModifyBase<geode::modifier::ModifyDerive<GDDLBrowserLayer, LevelBrowserLayer> >::~ModifyBase()
PUBLIC 5f58c 0 std::__ndk1::vector<CCMenuItemSpriteExtra*, std::__ndk1::allocator<CCMenuItemSpriteExtra*> >::__throw_length_error[abi:ne180000]() const
PUBLIC 5f5a0 0 std::__ndk1::vector<int, std::__ndk1::allocator<int> >::__throw_length_error[abi:ne180000]() const
PUBLIC 5f5b4 0 std::__ndk1::__variant_detail::__visitation::__base::__dispatcher<(unsigned long)0>::__dispatch[abi:ne180000]<std::__ndk1::__variant_detail::__dtor<std::__ndk1::__variant_detail::__traits<double, std::__ndk1::basic_string<char, std::__ndk1::char_traits<char>, std::__ndk1::allocator<char> > >, (std::__ndk1::__variant_detail::_Trait)1>::__destroy[abi:ne180000]()::{lambda(auto:1&)#1}, std::__ndk1::__variant_detail::__base<(std::__ndk1::__variant_detail::__traits<double, std::__ndk1::basic_string<char, std::__ndk1::char_traits<char>, std::__ndk1::allocator<char> > >)1, double, std::__ndk1::allocator<char> >&>(std::__ndk1::__variant_detail::__dtor<std::__ndk1::__variant_detail::__traits<double, std::__ndk1::basic_string<char, std::__ndk1::char_traits<char>, std::__ndk1::allocator<char> > >, (std::__ndk1::__variant_detail::_Trait)1>, std::__ndk1::__variant_detail::__base<(std::__ndk1::__variant_detail::__traits<double, std::__ndk1::basic_string<char, std::__ndk1::char_traits<char>, std::__ndk1::allocator<char> > >)1, double, std::__ndk1::allocator<char> >&)
PUBLIC 5f5b8 0 std::__ndk1::__variant_detail::__visitation::__base::__dispatcher<(unsigned long)1>::__dispatch[abi:ne180000]<std::__ndk1::__variant_detail::__dtor<std::__ndk1::__variant_detail::__traits<double, std::__ndk1::basic_string<char, std::__ndk1::char_traits<char>, std::__ndk1::allocator<char> > >, (std::__ndk1::__variant_detail::_Trait)1>::__destroy[abi:ne180000]()::{lambda(auto:1&)#1}, std::__ndk1::__variant_detail::__base<(std::__ndk1::__variant_detail::__traits<double, std::__ndk1::basic_string<char, std::__ndk1::char_traits<char>, std::__ndk1::allocator<char> > >)1, double, std::__ndk1::allocator<char> >&>(std::__ndk1::__variant_detail::__dtor<std::__ndk1::__variant_detail::__traits<double, std::__ndk1::basic_string<char, std::__ndk1::char_traits<char>, std::__ndk1::allocator<char> > >, (std::__ndk1::__variant_detail::_Trait)1>, std::__ndk1::__variant_detail::__base<(std::__ndk1::__variant_detail::__traits<double, std::__ndk1::basic_string<char, std::__ndk1::char_traits<char>, std::__ndk1::allocator<char> > >)1, double, std::__ndk1::allocator<char> >&)
PUBLIC 5f5cc 0 GDDLBrowserLayer::setCorrectLabelsText()
PUBLIC 5f7b4 0 geode::modifier::FieldIntermediate<GDDLBrowserLayer, LevelBrowserLayer>::self()
PUBLIC 5f93c 0 geode::modifier::FieldContainer::getField(unsigned long)
PUBLIC 5fbf4 0 geode::modifier::FieldContainer::setField(unsigned long, unsigned long, std::__ndk1::function<void (void*)>)
PUBLIC 5fd08 0 geode::modifier::FieldIntermediate<GDDLBrowserLayer, LevelBrowserLayer>::fieldDestructor(void*)
PUBLIC 5fd0c 0 std::__ndk1::vector<void*, std::__ndk1::allocator<void*> >::__throw_length_error[abi:ne180000]() const
PUBLIC 5fd20 0 std::__ndk1::vector<std::__ndk1::function<void (void*)>, std::__ndk1::allocator<std::__ndk1::function<void (void*)> > >::__push_back_slow_path<std::__ndk1::function<void (void*)> >(std::__ndk1::function<void (void*)>&&)
PUBLIC 5ff4c 0 std::__ndk1::vector<std::__ndk1::function<void (void*)>, std::__ndk1::allocator<std::__ndk1::function<void (void*)> > >::__throw_length_error[abi:ne180000]() const
PUBLIC 5ff60 0 std::__ndk1::vector<void*, std::__ndk1::allocator<void*> >::__throw_out_of_range[abi:ne180000]() const
PUBLIC 5ff74 0 std::__ndk1::vector<std::__ndk1::function<void (void*)>, std::__ndk1::allocator<std::__ndk1::function<void (void*)> > >::__throw_out_of_range[abi:ne180000]() const
PUBLIC 5ff88 0 std::__ndk1::__function::__base<void (void*)>::~__base()
PUBLIC 5ff8c 0 std::__ndk1::__function::__func<void (*)(void*), std::__ndk1::allocator<void (*)(void*)>, void (void*)>::~__func()
PUBLIC 5ff90 0 std::__ndk1::__function::__func<void (*)(void*), std::__ndk1::allocator<void (*)(void*)>, void (void*)>::__clone() const
PUBLIC 5ffc8 0 std::__ndk1::__function::__func<void (*)(void*), std::__ndk1::allocator<void (*)(void*)>, void (void*)>::__clone(std::__ndk1::__function::__base<void (void*)>*) const
PUBLIC 5ffe0 0 std::__ndk1::__function::__func<void (*)(void*), std::__ndk1::allocator<void (*)(void*)>, void (void*)>::destroy()
PUBLIC 5ffe4 0 std::__ndk1::__function::__func<void (*)(void*), std::__ndk1::allocator<void (*)(void*)>, void (void*)>::destroy_deallocate()
PUBLIC 5ffe8 0 std::__ndk1::__function::__func<void (*)(void*), std::__ndk1::allocator<void (*)(void*)>, void (void*)>::operator()(void*&&)
PUBLIC 5fff8 0 std::__ndk1::__function::__func<void (*)(void*), std::__ndk1::allocator<void (*)(void*)>, void (void*)>::target(std::type_info const&) const
PUBLIC 60014 0 std::__ndk1::__function::__func<void (*)(void*), std::__ndk1::allocator<void (*)(void*)>, void (void*)>::target_type() const
PUBLIC 60020 0 std::__ndk1::__variant_detail::__visitation::__base::__dispatcher<(unsigned long)0>::__dispatch[abi:ne180000]<std::__ndk1::__variant_detail::__dtor<std::__ndk1::__variant_detail::__traits<float, std::__ndk1::basic_string<char, std::__ndk1::char_traits<char>, std::__ndk1::allocator<char> > >, (std::__ndk1::__variant_detail::_Trait)1>::__destroy[abi:ne180000]()::{lambda(auto:1&)#1}, std::__ndk1::__variant_detail::__base<(std::__ndk1::__variant_detail::__traits<float, std::__ndk1::basic_string<char, std::__ndk1::char_traits<char>, std::__ndk1::allocator<char> > >)1, float, std::__ndk1::allocator<char> >&>(std::__ndk1::__variant_detail::__dtor<std::__ndk1::__variant_detail::__traits<float, std::__ndk1::basic_string<char, std::__ndk1::char_traits<char>, std::__ndk1::allocator<char> > >, (std::__ndk1::__variant_detail::_Trait)1>, std::__ndk1::__variant_detail::__base<(std::__ndk1::__variant_detail::__traits<float, std::__ndk1::basic_string<char, std::__ndk1::char_traits<char>, std::__ndk1::allocator<char> > >)1, float, std::__ndk1::allocator<char> >&)
PUBLIC 60024 0 std::__ndk1::__variant_detail::__visitation::__base::__dispatcher<(unsigned long)1>::__dispatch[abi:ne180000]<std::__ndk1::__variant_detail::__dtor<std::__ndk1::__variant_detail::__traits<float, std::__ndk1::basic_string<char, std::__ndk1::char_traits<char>, std::__ndk1::allocator<char> > >, (std::__ndk1::__variant_detail::_Trait)1>::__destroy[abi:ne180000]()::{lambda(auto:1&)#1}, std::__ndk1::__variant_detail::__base<(std::__ndk1::__variant_detail::__traits<float, std::__ndk1::basic_string<char, std::__ndk1::char_traits<char>, std::__ndk1::allocator<char> > >)1, float, std::__ndk1::allocator<char> >&>(std::__ndk1::__variant_detail::__dtor<std::__ndk1::__variant_detail::__traits<float, std::__ndk1::basic_string<char, std::__ndk1::char_traits<char>, std::__ndk1::allocator<char> > >, (std::__ndk1::__variant_detail::_Trait)1>, std::__ndk1::__variant_detail::__base<(std::__ndk1::__variant_detail::__traits<float, std::__ndk1::basic_string<char, std::__ndk1::char_traits<char>, std::__ndk1::allocator<char> > >)1, float, std::__ndk1::allocator<char> >&)
PUBLIC 60038 0 geode::modifier::ModifyBase<geode::modifier::ModifyDerive<GDDLBrowserLayer, LevelBrowserLayer> >::ModifyBase()
PUBLIC 60434 0 geode::modifier::ModifyDerive<GDDLBrowserLayer, LevelBrowserLayer>::apply()
PUBLIC 60ccc 0 std::__ndk1::shared_ptr<geode::Hook>::~shared_ptr[abi:ne180000]()
PUBLIC 60d1c 0 geode::impl::ResultData<geode::Hook*, std::__ndk1::basic_string<char, std::__ndk1::char_traits<char>, std::__ndk1::allocator<char> > >::~ResultData()
PUBLIC 60d90 0 geode::modifier::ModifyBase<geode::modifier::ModifyDerive<GDDLBrowserLayer, LevelBrowserLayer> >::apply()
PUBLIC 60d94 0 _ZN5geode15UnwrapExceptionC2IRPNS_4HookEQsr4implE18IsStringStreamableIT_EEENS_4impl5OkTagEOS5_
PUBLIC 60ee8 0 std::__ndk1::__variant_detail::__visitation::__base::__dispatcher<(unsigned long)0>::__dispatch[abi:ne180000]<std::__ndk1::__variant_detail::__dtor<std::__ndk1::__variant_detail::__traits<geode::Hook*, std::__ndk1::basic_string<char, std::__ndk1::char_traits<char>, std::__ndk1::allocator<char> > >, (std::__ndk1::__variant_detail::_Trait)1>::__destroy[abi:ne180000]()::{lambda(auto:1&)#1}, std::__ndk1::__variant_detail::__base<(std::__ndk1::__variant_detail::__traits<geode::Hook*, std::__ndk1::basic_string<char, std::__ndk1::char_traits<char>, std::__ndk1::allocator<char> > >)1, geode::Hook, std::__ndk1::allocator<char> >&>(std::__ndk1::__variant_detail::__dtor<std::__ndk1::__variant_detail::__traits<geode::Hook*, std::__ndk1::basic_string<char, std::__ndk1::char_traits<char>, std::__ndk1::allocator<char> > >, (std::__ndk1::__variant_detail::_Trait)1>, std::__ndk1::__variant_detail::__base<(std::__ndk1::__variant_detail::__traits<geode::Hook*, std::__ndk1::basic_string<char, std::__ndk1::char_traits<char>, std::__ndk1::allocator<char> > >)1, geode::Hook, std::__ndk1::allocator<char> >&)
PUBLIC 60eec 0 std::__ndk1::__variant_detail::__visitation::__base::__dispatcher<(unsigned long)1>::__dispatch[abi:ne180000]<std::__ndk1::__variant_detail::__dtor<std::__ndk1::__variant_detail::__traits<geode::Hook*, std::__ndk1::basic_string<char, std::__ndk1::char_traits<char>, std::__ndk1::allocator<char> > >, (std::__ndk1::__variant_detail::_Trait)1>::__destroy[abi:ne180000]()::{lambda(auto:1&)#1}, std::__ndk1::__variant_detail::__base<(std::__ndk1::__variant_detail::__traits<geode::Hook*, std::__ndk1::basic_string<char, std::__ndk1::char_traits<char>, std::__ndk1::allocator<char> > >)1, geode::Hook, std::__ndk1::allocator<char> >&>(std::__ndk1::__variant_detail::__dtor<std::__ndk1::__variant_detail::__traits<geode::Hook*, std::__ndk1::basic_string<char, std::__ndk1::char_traits<char>, std::__ndk1::allocator<char> > >, (std::__ndk1::__variant_detail::_Trait)1>, std::__ndk1::__variant_detail::__base<(std::__ndk1::__variant_detail::__traits<geode::Hook*, std::__ndk1::basic_string<char, std::__ndk1::char_traits<char>, std::__ndk1::allocator<char> > >)1, geode::Hook, std::__ndk1::allocator<char> >&)
PUBLIC 60f00 0 std::__ndk1::__tree<std::__ndk1::__value_type<std::__ndk1::basic_string<char, std::__ndk1::char_traits<char>, std::__ndk1::allocator<char> >, std::__ndk1::shared_ptr<geode::Hook> >, std::__ndk1::__map_value_compare<std::__ndk1::basic_string<char, std::__ndk1::char_traits<char>, std::__ndk1::allocator<char> >, std::__ndk1::__value_type<std::__ndk1::basic_string<char, std::__ndk1::char_traits<char>, std::__ndk1::allocator<char> >, std::__ndk1::shared_ptr<geode::Hook> >, std::__ndk1::less<std::__ndk1::basic_string<char, std::__ndk1::char_traits<char>, std::__ndk1::allocator<char> > >, true>, std::__ndk1::allocator<std::__ndk1::__value_type<std::__ndk1::basic_string<char, std::__ndk1::char_traits<char>, std::__ndk1::allocator<char> >, std::__ndk1::shared_ptr<geode::Hook> > > >::find<std::__ndk1::basic_string<char, std::__ndk1::char_traits<char>, std::__ndk1::allocator<char> > >(std::__ndk1::basic_string<char, std::__ndk1::char_traits<char>, std::__ndk1::allocator<char> > const&)
PUBLIC 61020 0 std::__ndk1::__tree<std::__ndk1::__value_type<std::__ndk1::basic_string<char, std::__ndk1::char_traits<char>, std::__ndk1::allocator<char> >, std::__ndk1::shared_ptr<geode::Hook> >, std::__ndk1::__map_value_compare<std::__ndk1::basic_string<char, std::__ndk1::char_traits<char>, std::__ndk1::allocator<char> >, std::__ndk1::__value_type<std::__ndk1::basic_string<char, std::__ndk1::char_traits<char>, std::__ndk1::allocator<char> >, std::__ndk1::shared_ptr<geode::Hook> >, std::__ndk1::less<std::__ndk1::basic_string<char, std::__ndk1::char_traits<char>, std::__ndk1::allocator<char> > >, true>, std::__ndk1::allocator<std::__ndk1::__value_type<std::__ndk1::basic_string<char, std::__ndk1::char_traits<char>, std::__ndk1::allocator<char> >, std::__ndk1::shared_ptr<geode::Hook> > > >::erase(std::__ndk1::__tree_const_iterator<std::__ndk1::__value_type<std::__ndk1::basic_string<char, std::__ndk1::char_traits<char>, std::__ndk1::allocator<char> >, std::__ndk1::shared_ptr<geode::Hook> >, std::__ndk1::__tree_node<std::__ndk1::__value_type<std::__ndk1::basic_string<char, std::__ndk1::char_traits<char>, std::__ndk1::allocator<char> >, std::__ndk1::shared_ptr<geode::Hook> >, void*>*, long>)
PUBLIC 610f4 0 std::__ndk1::__tree_remove[abi:ne180000]<std::__ndk1::__tree_node_base<void*>*>(std::__ndk1::__tree_node_base<void*>*, std::__ndk1::__tree_node_base<void*>*)
PUBLIC 614bc 0 std::__ndk1::__tree<std::__ndk1::__value_type<std::__ndk1::basic_string<char, std::__ndk1::char_traits<char>, std::__ndk1::allocator<char> >, std::__ndk1::shared_ptr<geode::Hook> >, std::__ndk1::__map_value_compare<std::__ndk1::basic_string<char, std::__ndk1::char_traits<char>, std::__ndk1::allocator<char> >, std::__ndk1::__value_type<std::__ndk1::basic_string<char, std::__ndk1::char_traits<char>, std::__ndk1::allocator<char> >, std::__ndk1::shared_ptr<geode::Hook> >, std::__ndk1::less<std::__ndk1::basic_string<char, std::__ndk1::char_traits<char>, std::__ndk1::allocator<char> > >, true>, std::__ndk1::allocator<std::__ndk1::__value_type<std::__ndk1::basic_string<char, std::__ndk1::char_traits<char>, std::__ndk1::allocator<char> >, std::__ndk1::shared_ptr<geode::Hook> > > >::destroy(std::__ndk1::__tree_node<std::__ndk1::__value_type<std::__ndk1::basic_string<char, std::__ndk1::char_traits<char>, std::__ndk1::allocator<char> >, std::__ndk1::shared_ptr<geode::Hook> >, void*>*)
PUBLIC 61548 0 geode::Hook::create<void (*)(GDDLBrowserLayer*, cocos2d::CCArray*, char const*, int)>(void*, void (*)(GDDLBrowserLayer*, cocos2d::CCArray*, char const*, int), std::__ndk1::basic_string<char, std::__ndk1::char_traits<char>, std::__ndk1::allocator<char> > const&, tulip::hook::TulipConvention, tulip::hook::HookMetadata const&)
PUBLIC 61660 0 geode::modifier::AsStaticFunction_loadLevelsFinished<GDDLBrowserLayer, void (GDDLBrowserLayer::*)(cocos2d::CCArray*, char const*, int)>::Impl<void (GDDLBrowserLayer::*)(cocos2d::CCArray*, char const*, int)>::function(GDDLBrowserLayer*, cocos2d::CCArray*, char const*, int)
PUBLIC 61664 0 geode::Hook::create<bool (*)(GDDLBrowserLayer*, GJSearchObject*)>(void*, bool (*)(GDDLBrowserLayer*, GJSearchObject*), std::__ndk1::basic_string<char, std::__ndk1::char_traits<char>, std::__ndk1::allocator<char> > const&, tulip::hook::TulipConvention, tulip::hook::HookMetadata const&)
PUBLIC 617e8 0 geode::modifier::AsStaticFunction_init<GDDLBrowserLayer, bool (GDDLBrowserLayer::*)(GJSearchObject*)>::Impl<bool (GDDLBrowserLayer::*)(GJSearchObject*)>::function(GDDLBrowserLayer*, GJSearchObject*)
PUBLIC 61800 0 geode::Hook::create<void (*)(GDDLBrowserLayer*, cocos2d::CCObject*)>(void*, void (*)(GDDLBrowserLayer*, cocos2d::CCObject*), std::__ndk1::basic_string<char, std::__ndk1::char_traits<char>, std::__ndk1::allocator<char> > const&, tulip::hook::TulipConvention, tulip::hook::HookMetadata const&)
PUBLIC 61984 0 geode::modifier::AsStaticFunction_onNextPage<GDDLBrowserLayer, void (GDDLBrowserLayer::*)(cocos2d::CCObject*)>::Impl<void (GDDLBrowserLayer::*)(cocos2d::CCObject*)>::function(GDDLBrowserLayer*, cocos2d::CCObject*)
PUBLIC 61a30 0 geode::modifier::AsStaticFunction_onPrevPage<GDDLBrowserLayer, void (GDDLBrowserLayer::*)(cocos2d::CCObject*)>::Impl<void (GDDLBrowserLayer::*)(cocos2d::CCObject*)>::function(GDDLBrowserLayer*, cocos2d::CCObject*)
PUBLIC 61ab0 0 geode::addresser::Addresser::addressOfVirtual<void, LevelBrowserLayer, cocos2d::CCArray*, char const*, int>(void (LevelBrowserLayer::*)(cocos2d::CCArray*, char const*, int))
PUBLIC 61b9c 0 LevelBrowserLayer::LevelBrowserLayer(geode::ZeroConstructorType)
PUBLIC 61c4c 0 tulip::hook::AbstractFunction::from<void, GDDLBrowserLayer*, cocos2d::CCArray*, char const*, int>(void (*)(GDDLBrowserLayer*, cocos2d::CCArray*, char const*, int))
PUBLIC 61f20 0 std::__ndk1::shared_ptr<tulip::hook::CallingConvention>::~shared_ptr[abi:ne180000]()
PUBLIC 61f70 0 tulip::hook::HandlerMetadata::~HandlerMetadata()
PUBLIC 61fd4 0 std::__ndk1::vector<tulip::hook::AbstractType, std::__ndk1::allocator<tulip::hook::AbstractType> >::__throw_length_error[abi:ne180000]() const
PUBLIC 61fe8 0 GDDLBrowserLayer::loadLevelsFinished(cocos2d::CCArray*, char const*, int)
PUBLIC 620b4 0 std::__ndk1::__tree<std::__ndk1::__value_type<std::__ndk1::basic_string<char, std::__ndk1::char_traits<char>, std::__ndk1::allocator<char> >, std::__ndk1::shared_ptr<geode::Hook> >, std::__ndk1::__map_value_compare<std::__ndk1::basic_string<char, std::__ndk1::char_traits<char>, std::__ndk1::allocator<char> >, std::__ndk1::__value_type<std::__ndk1::basic_string<char, std::__ndk1::char_traits<char>, std::__ndk1::allocator<char> >, std::__ndk1::shared_ptr<geode::Hook> >, std::__ndk1::less<std::__ndk1::basic_string<char, std::__ndk1::char_traits<char>, std::__ndk1::allocator<char> > >, true>, std::__ndk1::allocator<std::__ndk1::__value_type<std::__ndk1::basic_string<char, std::__ndk1::char_traits<char>, std::__ndk1::allocator<char> >, std::__ndk1::shared_ptr<geode::Hook> > > >::__emplace_unique_key_args<std::__ndk1::basic_string<char, std::__ndk1::char_traits<char>, std::__ndk1::allocator<char> >, std::__ndk1::piecewise_construct_t const&, std::__ndk1::tuple<std::__ndk1::basic_string<char, std::__ndk1::char_traits<char>, std::__ndk1::allocator<char> >&&>, std::__ndk1::tuple<> >(std::__ndk1::basic_string<char, std::__ndk1::char_traits<char>, std::__ndk1::allocator<char> > const&, std::__ndk1::piecewise_construct_t const&, std::__ndk1::tuple<std::__ndk1::basic_string<char, std::__ndk1::char_traits<char>, std::__ndk1::allocator<char> >&&>, std::__ndk1::tuple<>)
PUBLIC 6222c 0 std::__ndk1::__tree<int, std::__ndk1::less<int>, std::__ndk1::allocator<int> >::destroy(std::__ndk1::__tree_node<int, void*>*)
PUBLIC 62268 0 std::__ndk1::__function::__func<GDDLSearchLayer::prepareSearchListener()::$_0, std::__ndk1::allocator<GDDLSearchLayer::prepareSearchListener()::$_0>, void (geode::Task<geode::utils::web::WebResponse, geode::utils::web::WebProgress>::Event*)>::~__func()
PUBLIC 6226c 0 std::__ndk1::__function::__func<GDDLSearchLayer::prepareSearchListener()::$_0, std::__ndk1::allocator<GDDLSearchLayer::prepareSearchListener()::$_0>, void (geode::Task<geode::utils::web::WebResponse, geode::utils::web::WebProgress>::Event*)>::__clone() const
PUBLIC 62290 0 std::__ndk1::__function::__func<GDDLSearchLayer::prepareSearchListener()::$_0, std::__ndk1::allocator<GDDLSearchLayer::prepareSearchListener()::$_0>, void (geode::Task<geode::utils::web::WebResponse, geode::utils::web::WebProgress>::Event*)>::__clone(std::__ndk1::__function::__base<void (geode::Task<geode::utils::web::WebResponse, geode::utils::web::WebProgress>::Event*)>*) const
PUBLIC 622a0 0 std::__ndk1::__function::__func<GDDLSearchLayer::prepareSearchListener()::$_0, std::__ndk1::allocator<GDDLSearchLayer::prepareSearchListener()::$_0>, void (geode::Task<geode::utils::web::WebResponse, geode::utils::web::WebProgress>::Event*)>::destroy()
PUBLIC 622a4 0 std::__ndk1::__function::__func<GDDLSearchLayer::prepareSearchListener()::$_0, std::__ndk1::allocator<GDDLSearchLayer::prepareSearchListener()::$_0>, void (geode::Task<geode::utils::web::WebResponse, geode::utils::web::WebProgress>::Event*)>::destroy_deallocate()
PUBLIC 622a8 0 std::__ndk1::__function::__func<GDDLSearchLayer::prepareSearchListener()::$_0, std::__ndk1::allocator<GDDLSearchLayer::prepareSearchListener()::$_0>, void (geode::Task<geode::utils::web::WebResponse, geode::utils::web::WebProgress>::Event*)>::operator()(geode::Task<geode::utils::web::WebResponse, geode::utils::web::WebProgress>::Event*&&)
PUBLIC 63b18 0 std::__ndk1::__function::__func<GDDLSearchLayer::prepareSearchListener()::$_0, std::__ndk1::allocator<GDDLSearchLayer::prepareSearchListener()::$_0>, void (geode::Task<geode::utils::web::WebResponse, geode::utils::web::WebProgress>::Event*)>::target(std::type_info const&) const
PUBLIC 63b34 0 std::__ndk1::__function::__func<GDDLSearchLayer::prepareSearchListener()::$_0, std::__ndk1::allocator<GDDLSearchLayer::prepareSearchListener()::$_0>, void (geode::Task<geode::utils::web::WebResponse, geode::utils::web::WebProgress>::Event*)>::target_type() const
PUBLIC 63b40 0 matjson::Value::as<float>() const
PUBLIC 63c4c 0 geode::Mod::getSavedValue<bool>(std::__ndk1::basic_string_view<char, std::__ndk1::char_traits<char> >)
PUBLIC 63dbc 0 geode::Mod::getSavedValue<float>(std::__ndk1::basic_string_view<char, std::__ndk1::char_traits<char> >)
PUBLIC 63f2c 0 __cxx_global_var_init.111
PUBLIC 63f8c 0 geode::modifier::ModifyBase<geode::modifier::ModifyDerive<GDDLRobtopLevelsLayer, LevelSelectLayer> >::~ModifyBase()
PUBLIC 63fa8 0 __cxx_global_var_init.112
PUBLIC 643e4 0 geode::modifier::ModifyBase<geode::modifier::ModifyDerive<hook30<(anonymous namespace)::hook30Parent>, MenuLayer> >::~ModifyBase()
PUBLIC 64400 0 geode::modifier::ModifyBase<geode::modifier::ModifyDerive<GDDLRobtopLevelsLayer, LevelSelectLayer> >::ModifyBase()
PUBLIC 647fc 0 geode::modifier::ModifyDerive<GDDLRobtopLevelsLayer, LevelSelectLayer>::apply()
PUBLIC 65058 0 geode::modifier::ModifyBase<geode::modifier::ModifyDerive<GDDLRobtopLevelsLayer, LevelSelectLayer> >::apply()
PUBLIC 6505c 0 geode::Hook::create<bool (*)(GDDLRobtopLevelsLayer*, int)>(void*, bool (*)(GDDLRobtopLevelsLayer*, int), std::__ndk1::basic_string<char, std::__ndk1::char_traits<char>, std::__ndk1::allocator<char> > const&, tulip::hook::TulipConvention, tulip::hook::HookMetadata const&)
PUBLIC 651e0 0 geode::modifier::AsStaticFunction_init<GDDLRobtopLevelsLayer, bool (GDDLRobtopLevelsLayer::*)(int)>::Impl<bool (GDDLRobtopLevelsLayer::*)(int)>::function(GDDLRobtopLevelsLayer*, int)
PUBLIC 651e4 0 geode::Hook::create<void (*)(GDDLRobtopLevelsLayer*, cocos2d::CCObject*)>(void*, void (*)(GDDLRobtopLevelsLayer*, cocos2d::CCObject*), std::__ndk1::basic_string<char, std::__ndk1::char_traits<char>, std::__ndk1::allocator<char> > const&, tulip::hook::TulipConvention, tulip::hook::HookMetadata const&)
PUBLIC 65368 0 geode::modifier::AsStaticFunction_onBack<GDDLRobtopLevelsLayer, void (GDDLRobtopLevelsLayer::*)(cocos2d::CCObject*)>::Impl<void (GDDLRobtopLevelsLayer::*)(cocos2d::CCObject*)>::function(GDDLRobtopLevelsLayer*, cocos2d::CCObject*)
PUBLIC 6538c 0 geode::modifier::AsStaticFunction_onNext<GDDLRobtopLevelsLayer, void (GDDLRobtopLevelsLayer::*)(cocos2d::CCObject*)>::Impl<void (GDDLRobtopLevelsLayer::*)(cocos2d::CCObject*)>::function(GDDLRobtopLevelsLayer*, cocos2d::CCObject*)
PUBLIC 65404 0 geode::modifier::AsStaticFunction_onPrev<GDDLRobtopLevelsLayer, void (GDDLRobtopLevelsLayer::*)(cocos2d::CCObject*)>::Impl<void (GDDLRobtopLevelsLayer::*)(cocos2d::CCObject*)>::function(GDDLRobtopLevelsLayer*, cocos2d::CCObject*)
PUBLIC 6547c 0 geode::modifier::ModifyDerive<hook30<(anonymous namespace)::hook30Parent>, MenuLayer>::apply()
PUBLIC 65a40 0 geode::modifier::ModifyBase<geode::modifier::ModifyDerive<hook30<(anonymous namespace)::hook30Parent>, MenuLayer> >::apply()
PUBLIC 65a44 0 geode::modifier::AsStaticFunction_init<hook30<(anonymous namespace)::hook30Parent>, bool (hook30<(anonymous namespace)::hook30Parent>::*)()>::Impl<bool (hook30<(anonymous namespace)::hook30Parent>::*)()>::function(hook30<(anonymous namespace)::hook30Parent>*)
PUBLIC 65d0c 0 geode::modifier::AsStaticFunction_onQuit<hook30<(anonymous namespace)::hook30Parent>, void (hook30<(anonymous namespace)::hook30Parent>::*)(cocos2d::CCObject*)>::Impl<void (hook30<(anonymous namespace)::hook30Parent>::*)(cocos2d::CCObject*)>::function(hook30<(anonymous namespace)::hook30Parent>*, cocos2d::CCObject*)
PUBLIC 65d24 0 geode::addresser::Addresser::addressOfVirtual<bool, MenuLayer, >(bool (MenuLayer::*)())
PUBLIC 65dcc 0 MenuLayer::MenuLayer(geode::ZeroConstructorType)
PUBLIC 65e68 0 geode::modifier::FieldIntermediate<hook30<(anonymous namespace)::hook30Parent>, MenuLayer>::operator->()
PUBLIC 66098 0 geode::modifier::FieldIntermediate<hook30<(anonymous namespace)::hook30Parent>, MenuLayer>::fieldDestructor(void*)
PUBLIC 66134 0 __cxx_global_var_init.78
PUBLIC 66194 0 geode::modifier::ModifyBase<geode::modifier::ModifyDerive<GDDLBoomScrollLayer, BoomScrollLayer> >::~ModifyBase()
PUBLIC 661b0 0 geode::modifier::ModifyBase<geode::modifier::ModifyDerive<GDDLBoomScrollLayer, BoomScrollLayer> >::ModifyBase()
PUBLIC 665ac 0 geode::modifier::ModifyDerive<GDDLBoomScrollLayer, BoomScrollLayer>::apply()
PUBLIC 6684c 0 geode::modifier::ModifyBase<geode::modifier::ModifyDerive<GDDLBoomScrollLayer, BoomScrollLayer> >::apply()
PUBLIC 66850 0 geode::Hook::create<void (*)(GDDLBoomScrollLayer*, cocos2d::CCTouch*, cocos2d::CCEvent*)>(void*, void (*)(GDDLBoomScrollLayer*, cocos2d::CCTouch*, cocos2d::CCEvent*), std::__ndk1::basic_string<char, std::__ndk1::char_traits<char>, std::__ndk1::allocator<char> > const&, tulip::hook::TulipConvention, tulip::hook::HookMetadata const&)
PUBLIC 66968 0 geode::modifier::AsStaticFunction_ccTouchEnded<GDDLBoomScrollLayer, void (GDDLBoomScrollLayer::*)(cocos2d::CCTouch*, cocos2d::CCEvent*)>::Impl<void (GDDLBoomScrollLayer::*)(cocos2d::CCTouch*, cocos2d::CCEvent*)>::function(GDDLBoomScrollLayer*, cocos2d::CCTouch*, cocos2d::CCEvent*)
PUBLIC 66a3c 0 geode::addresser::Addresser::addressOfVirtual<void, BoomScrollLayer, cocos2d::CCTouch*, cocos2d::CCEvent*>(void (BoomScrollLayer::*)(cocos2d::CCTouch*, cocos2d::CCEvent*))
PUBLIC 66b28 0 BoomScrollLayer::BoomScrollLayer(geode::ZeroConstructorType)
PUBLIC 66bbc 0 tulip::hook::AbstractFunction::from<void, GDDLBoomScrollLayer*, cocos2d::CCTouch*, cocos2d::CCEvent*>(void (*)(GDDLBoomScrollLayer*, cocos2d::CCTouch*, cocos2d::CCEvent*))
PUBLIC 66cc4 0 GDDLRobtopLevelsLayer::init(int)
PUBLIC 66df4 0 GDDLRobtopLevelsLayer::pageChanged(int)
PUBLIC 6705c 0 GDDLRobtopLevelsLayer::removeFrom(int)
PUBLIC 67214 0 GDDLRobtopLevelsLayer::addTo(int, int)
PUBLIC 67610 0 GDDLRobtopLevelsLayer::getLevelButton(int)
PUBLIC 67784 0 GDDLRobtopLevelsLayer::onGDDLInfo(cocos2d::CCObject*)
PUBLIC 678d4 0 geode::Mod::getSettingValue<bool>(std::__ndk1::basic_string_view<char, std::__ndk1::char_traits<char> >) const
PUBLIC 67a08 0 GDDLRobtopLevelsLayer::updateButton(int)
PUBLIC 67bcc 0 geode::modifier::FieldIntermediate<GDDLRobtopLevelsLayer, LevelSelectLayer>::self()
PUBLIC 67e1c 0 geode::modifier::FieldIntermediate<GDDLRobtopLevelsLayer, LevelSelectLayer>::fieldDestructor(void*)
PUBLIC 67ec4 0 std::__ndk1::__function::__func<GDDLRobtopLevelsLayer::init(int)::$_0, std::__ndk1::allocator<GDDLRobtopLevelsLayer::init(int)::$_0>, void (geode::Task<geode::utils::web::WebResponse, geode::utils::web::WebProgress>::Event*)>::~__func()
PUBLIC 67ec8 0 std::__ndk1::__function::__func<GDDLRobtopLevelsLayer::init(int)::$_0, std::__ndk1::allocator<GDDLRobtopLevelsLayer::init(int)::$_0>, void (geode::Task<geode::utils::web::WebResponse, geode::utils::web::WebProgress>::Event*)>::__clone() const
PUBLIC 67efc 0 std::__ndk1::__function::__func<GDDLRobtopLevelsLayer::init(int)::$_0, std::__ndk1::allocator<GDDLRobtopLevelsLayer::init(int)::$_0>, void (geode::Task<geode::utils::web::WebResponse, geode::utils::web::WebProgress>::Event*)>::__clone(std::__ndk1::__function::__base<void (geode::Task<geode::utils::web::WebResponse, geode::utils::web::WebProgress>::Event*)>*) const
PUBLIC 67f10 0 std::__ndk1::__function::__func<GDDLRobtopLevelsLayer::init(int)::$_0, std::__ndk1::allocator<GDDLRobtopLevelsLayer::init(int)::$_0>, void (geode::Task<geode::utils::web::WebResponse, geode::utils::web::WebProgress>::Event*)>::destroy()
PUBLIC 67f14 0 std::__ndk1::__function::__func<GDDLRobtopLevelsLayer::init(int)::$_0, std::__ndk1::allocator<GDDLRobtopLevelsLayer::init(int)::$_0>, void (geode::Task<geode::utils::web::WebResponse, geode::utils::web::WebProgress>::Event*)>::destroy_deallocate()
PUBLIC 67f18 0 std::__ndk1::__function::__func<GDDLRobtopLevelsLayer::init(int)::$_0, std::__ndk1::allocator<GDDLRobtopLevelsLayer::init(int)::$_0>, void (geode::Task<geode::utils::web::WebResponse, geode::utils::web::WebProgress>::Event*)>::operator()(geode::Task<geode::utils::web::WebResponse, geode::utils::web::WebProgress>::Event*&&)
PUBLIC 680e8 0 std::__ndk1::__function::__func<GDDLRobtopLevelsLayer::init(int)::$_0, std::__ndk1::allocator<GDDLRobtopLevelsLayer::init(int)::$_0>, void (geode::Task<geode::utils::web::WebResponse, geode::utils::web::WebProgress>::Event*)>::target(std::type_info const&) const
PUBLIC 68104 0 std::__ndk1::__function::__func<GDDLRobtopLevelsLayer::init(int)::$_0, std::__ndk1::allocator<GDDLRobtopLevelsLayer::init(int)::$_0>, void (geode::Task<geode::utils::web::WebResponse, geode::utils::web::WebProgress>::Event*)>::target_type() const
PUBLIC 68110 0 __cxx_global_var_init.77
PUBLIC 68590 0 geode::modifier::ModifyBase<geode::modifier::ModifyDerive<GDDLInfoLayer, LevelInfoLayer> >::~ModifyBase()
PUBLIC 685ac 0 geode::modifier::ModifyDerive<GDDLInfoLayer, LevelInfoLayer>::apply()
PUBLIC 68bf4 0 geode::modifier::ModifyBase<geode::modifier::ModifyDerive<GDDLInfoLayer, LevelInfoLayer> >::apply()
PUBLIC 68bf8 0 geode::modifier::AsStaticFunction_init<GDDLInfoLayer, bool (GDDLInfoLayer::*)(GJGameLevel*, bool)>::Impl<bool (GDDLInfoLayer::*)(GJGameLevel*, bool)>::function(GDDLInfoLayer*, GJGameLevel*, bool)
PUBLIC 69400 0 geode::modifier::AsStaticFunction_updateLabelValues<GDDLInfoLayer, void (GDDLInfoLayer::*)()>::Impl<void (GDDLInfoLayer::*)()>::function(GDDLInfoLayer*)
PUBLIC 6973c 0 std::__ndk1::shared_ptr<UseOldTierLabelSettingV3>::~shared_ptr[abi:ne180000]()
PUBLIC 6978c 0 std::__ndk1::shared_ptr<geode::SettingV3>::~shared_ptr[abi:ne180000]()
PUBLIC 697dc 0 std::__ndk1::shared_ptr<ButtonPositionSettingV3>::~shared_ptr[abi:ne180000]()
PUBLIC 6982c 0 GDDLInfoLayer::onGDDLInfo(cocos2d::CCObject*)
PUBLIC 69934 0 GDDLInfoLayer::updateButton(int)
PUBLIC 69c40 0 geode::modifier::FieldIntermediate<GDDLInfoLayer, LevelInfoLayer>::self()
PUBLIC 69e78 0 geode::modifier::FieldIntermediate<GDDLInfoLayer, LevelInfoLayer>::fieldDestructor(void*)
PUBLIC 69f14 0 std::__ndk1::__function::__func<GDDLInfoLayer::init(GJGameLevel*, bool)::{lambda(geode::Task<geode::utils::web::WebResponse, geode::utils::web::WebProgress>::Event*)#1}, std::__ndk1::allocator<GDDLInfoLayer::init(GJGameLevel*, bool)::{lambda(geode::Task<geode::utils::web::WebResponse, geode::utils::web::WebProgress>::Event*)#1}>, void (geode::Task<geode::utils::web::WebResponse, geode::utils::web::WebProgress>::Event*)>::~__func()
PUBLIC 69f18 0 std::__ndk1::__function::__func<GDDLInfoLayer::init(GJGameLevel*, bool)::{lambda(geode::Task<geode::utils::web::WebResponse, geode::utils::web::WebProgress>::Event*)#1}, std::__ndk1::allocator<GDDLInfoLayer::init(GJGameLevel*, bool)::{lambda(geode::Task<geode::utils::web::WebResponse, geode::utils::web::WebProgress>::Event*)#1}>, void (geode::Task<geode::utils::web::WebResponse, geode::utils::web::WebProgress>::Event*)>::__clone() const
PUBLIC 69f4c 0 std::__ndk1::__function::__func<GDDLInfoLayer::init(GJGameLevel*, bool)::{lambda(geode::Task<geode::utils::web::WebResponse, geode::utils::web::WebProgress>::Event*)#1}, std::__ndk1::allocator<GDDLInfoLayer::init(GJGameLevel*, bool)::{lambda(geode::Task<geode::utils::web::WebResponse, geode::utils::web::WebProgress>::Event*)#1}>, void (geode::Task<geode::utils::web::WebResponse, geode::utils::web::WebProgress>::Event*)>::__clone(std::__ndk1::__function::__base<void (geode::Task<geode::utils::web::WebResponse, geode::utils::web::WebProgress>::Event*)>*) const
PUBLIC 69f60 0 std::__ndk1::__function::__func<GDDLInfoLayer::init(GJGameLevel*, bool)::{lambda(geode::Task<geode::utils::web::WebResponse, geode::utils::web::WebProgress>::Event*)#1}, std::__ndk1::allocator<GDDLInfoLayer::init(GJGameLevel*, bool)::{lambda(geode::Task<geode::utils::web::WebResponse, geode::utils::web::WebProgress>::Event*)#1}>, void (geode::Task<geode::utils::web::WebResponse, geode::utils::web::WebProgress>::Event*)>::destroy()
PUBLIC 69f64 0 std::__ndk1::__function::__func<GDDLInfoLayer::init(GJGameLevel*, bool)::{lambda(geode::Task<geode::utils::web::WebResponse, geode::utils::web::WebProgress>::Event*)#1}, std::__ndk1::allocator<GDDLInfoLayer::init(GJGameLevel*, bool)::{lambda(geode::Task<geode::utils::web::WebResponse, geode::utils::web::WebProgress>::Event*)#1}>, void (geode::Task<geode::utils::web::WebResponse, geode::utils::web::WebProgress>::Event*)>::destroy_deallocate()
PUBLIC 69f68 0 std::__ndk1::__function::__func<GDDLInfoLayer::init(GJGameLevel*, bool)::{lambda(geode::Task<geode::utils::web::WebResponse, geode::utils::web::WebProgress>::Event*)#1}, std::__ndk1::allocator<GDDLInfoLayer::init(GJGameLevel*, bool)::{lambda(geode::Task<geode::utils::web::WebResponse, geode::utils::web::WebProgress>::Event*)#1}>, void (geode::Task<geode::utils::web::WebResponse, geode::utils::web::WebProgress>::Event*)>::operator()(geode::Task<geode::utils::web::WebResponse, geode::utils::web::WebProgress>::Event*&&)
PUBLIC 6a138 0 std::__ndk1::__function::__func<GDDLInfoLayer::init(GJGameLevel*, bool)::{lambda(geode::Task<geode::utils::web::WebResponse, geode::utils::web::WebProgress>::Event*)#1}, std::__ndk1::allocator<GDDLInfoLayer::init(GJGameLevel*, bool)::{lambda(geode::Task<geode::utils::web::WebResponse, geode::utils::web::WebProgress>::Event*)#1}>, void (geode::Task<geode::utils::web::WebResponse, geode::utils::web::WebProgress>::Event*)>::target(std::type_info const&) const
PUBLIC 6a154 0 std::__ndk1::__function::__func<GDDLInfoLayer::init(GJGameLevel*, bool)::{lambda(geode::Task<geode::utils::web::WebResponse, geode::utils::web::WebProgress>::Event*)#1}, std::__ndk1::allocator<GDDLInfoLayer::init(GJGameLevel*, bool)::{lambda(geode::Task<geode::utils::web::WebResponse, geode::utils::web::WebProgress>::Event*)#1}>, void (geode::Task<geode::utils::web::WebResponse, geode::utils::web::WebProgress>::Event*)>::target_type() const
PUBLIC 6a160 0 __cxx_global_var_init.101
PUBLIC 6a5e0 0 geode::modifier::ModifyBase<geode::modifier::ModifyDerive<GDDLLevelSearchLayer, LevelSearchLayer> >::~ModifyBase()
PUBLIC 6a5fc 0 geode::modifier::ModifyDerive<GDDLLevelSearchLayer, LevelSearchLayer>::apply()
PUBLIC 6a95c 0 geode::modifier::ModifyBase<geode::modifier::ModifyDerive<GDDLLevelSearchLayer, LevelSearchLayer> >::apply()
PUBLIC 6a960 0 geode::modifier::AsStaticFunction_init<GDDLLevelSearchLayer, bool (GDDLLevelSearchLayer::*)(int)>::Impl<bool (GDDLLevelSearchLayer::*)(int)>::function(GDDLLevelSearchLayer*, int)
PUBLIC 6ab10 0 GDDLLevelSearchLayer::onGDDLSearch(cocos2d::CCObject*)
PUBLIC 6ab3c 0 __cxx_global_var_init
PUBLIC 6afbc 0 geode::modifier::ModifyBase<geode::modifier::ModifyDerive<GDDLProfileMod, ProfilePage> >::~ModifyBase()
PUBLIC 6afd8 0 geode::modifier::ModifyDerive<GDDLProfileMod, ProfilePage>::apply()
PUBLIC 6b35c 0 geode::modifier::ModifyBase<geode::modifier::ModifyDerive<GDDLProfileMod, ProfilePage> >::apply()
PUBLIC 6b360 0 geode::modifier::AsStaticFunction_loadPageFromUserInfo<GDDLProfileMod, void (GDDLProfileMod::*)(GJUserScore*)>::Impl<void (GDDLProfileMod::*)(GJUserScore*)>::function(GDDLProfileMod*, GJUserScore*)
PUBLIC 6b5a0 0 GDDLProfileMod::onGDDLDemonSplit(cocos2d::CCObject*)
PUBLIC 6b5cc 0 BarChartNode::init(std::__ndk1::vector<BarChartData, std::__ndk1::allocator<BarChartData> >, cocos2d::CCSize const&, float, float)
PUBLIC 6be0c 0 BarChartNode::create(std::__ndk1::vector<BarChartData, std::__ndk1::allocator<BarChartData> > const&, cocos2d::CCSize const&, float, float)
PUBLIC 6bfcc 0 BarChartNode::~BarChartNode()
PUBLIC 6c000 0 BarChartNode::draw()
PUBLIC 6c158 0 BarChartNode::~BarChartNode()
PUBLIC 6c190 0 std::__ndk1::vector<BarChartBar, std::__ndk1::allocator<BarChartBar> >::__throw_length_error[abi:ne180000]() const
PUBLIC 6c1a4 0 std::__ndk1::vector<BarChartData, std::__ndk1::allocator<BarChartData> >::__init_with_size[abi:ne180000]<BarChartData*, std::__ndk1::vector<BarChartData, std::__ndk1::allocator<BarChartData> >::__init_with_size[abi:ne180000]>(BarChartData*, std::__ndk1::vector<BarChartData, std::__ndk1::allocator<BarChartData> >::__init_with_size[abi:ne180000], unsigned long)
PUBLIC 6c320 0 std::__ndk1::__exception_guard_exceptions<std::__ndk1::vector<BarChartData, std::__ndk1::allocator<BarChartData> >::__destroy_vector>::~__exception_guard_exceptions[abi:ne180000]()
PUBLIC 6c3b8 0 std::__ndk1::vector<BarChartData, std::__ndk1::allocator<BarChartData> >::__throw_length_error[abi:ne180000]() const
PUBLIC 6c3cc 0 std::__ndk1::__exception_guard_exceptions<std::__ndk1::_AllocatorDestroyRangeReverse<std::__ndk1::allocator<BarChartData>, BarChartData*> >::~__exception_guard_exceptions[abi:ne180000]()
PUBLIC 6c420 0 GDDLRating::GDDLRating(matjson::Value)
PUBLIC 6cb98 0 RatingsSpread::RatingsSpread(matjson::Value const&)
PUBLIC 6d478 0 geode::impl::ResultData<std::__ndk1::vector<matjson::Value, std::__ndk1::allocator<matjson::Value> > const&, std::__ndk1::basic_string<char, std::__ndk1::char_traits<char>, std::__ndk1::allocator<char> > >::~ResultData()
PUBLIC 6d4ec 0 RatingsSpread::getDiffSpreadData()
PUBLIC 6d884 0 RatingsSpread::getEnjSpreadData()
PUBLIC 6dc18 0 std::__ndk1::__variant_detail::__visitation::__base::__dispatcher<(unsigned long)0>::__dispatch[abi:ne180000]<std::__ndk1::__variant_detail::__dtor<std::__ndk1::__variant_detail::__traits<std::__ndk1::reference_wrapper<std::__ndk1::vector<matjson::Value, std::__ndk1::allocator<matjson> > const>, std::__ndk1::basic_string<char, std::__ndk1::char_traits<char>, matjson::Value<char> > >, (std::__ndk1::__variant_detail::_Trait)1>::__destroy[abi:ne180000]()::{lambda(auto:1&)#1}, std::__ndk1::__variant_detail::__base<(std::__ndk1::__variant_detail::__traits<std::__ndk1::reference_wrapper<std::__ndk1::vector<matjson::Value, std::__ndk1::allocator<matjson> > const>, std::__ndk1::basic_string<char, std::__ndk1::char_traits<char>, matjson::Value<char> > >)1, std::__ndk1::vector<matjson::Value, std::__ndk1::allocator<matjson> > const, matjson::Value<char> >&>(std::__ndk1::__variant_detail::__dtor<std::__ndk1::__variant_detail::__traits<std::__ndk1::reference_wrapper<std::__ndk1::vector<matjson::Value, std::__ndk1::allocator<matjson> > const>, std::__ndk1::basic_string<char, std::__ndk1::char_traits<char>, matjson::Value<char> > >, (std::__ndk1::__variant_detail::_Trait)1>, std::__ndk1::__variant_detail::__base<(std::__ndk1::__variant_detail::__traits<std::__ndk1::reference_wrapper<std::__ndk1::vector<matjson::Value, std::__ndk1::allocator<matjson> > const>, std::__ndk1::basic_string<char, std::__ndk1::char_traits<char>, matjson::Value<char> > >)1, std::__ndk1::vector<matjson::Value, std::__ndk1::allocator<matjson> > const, matjson::Value<char> >&)
PUBLIC 6dc1c 0 std::__ndk1::__variant_detail::__visitation::__base::__dispatcher<(unsigned long)1>::__dispatch[abi:ne180000]<std::__ndk1::__variant_detail::__dtor<std::__ndk1::__variant_detail::__traits<std::__ndk1::reference_wrapper<std::__ndk1::vector<matjson::Value, std::__ndk1::allocator<matjson> > const>, std::__ndk1::basic_string<char, std::__ndk1::char_traits<char>, matjson::Value<char> > >, (std::__ndk1::__variant_detail::_Trait)1>::__destroy[abi:ne180000]()::{lambda(auto:1&)#1}, std::__ndk1::__variant_detail::__base<(std::__ndk1::__variant_detail::__traits<std::__ndk1::reference_wrapper<std::__ndk1::vector<matjson::Value, std::__ndk1::allocator<matjson> > const>, std::__ndk1::basic_string<char, std::__ndk1::char_traits<char>, matjson::Value<char> > >)1, std::__ndk1::vector<matjson::Value, std::__ndk1::allocator<matjson> > const, matjson::Value<char> >&>(std::__ndk1::__variant_detail::__dtor<std::__ndk1::__variant_detail::__traits<std::__ndk1::reference_wrapper<std::__ndk1::vector<matjson::Value, std::__ndk1::allocator<matjson> > const>, std::__ndk1::basic_string<char, std::__ndk1::char_traits<char>, matjson::Value<char> > >, (std::__ndk1::__variant_detail::_Trait)1>, std::__ndk1::__variant_detail::__base<(std::__ndk1::__variant_detail::__traits<std::__ndk1::reference_wrapper<std::__ndk1::vector<matjson::Value, std::__ndk1::allocator<matjson> > const>, std::__ndk1::basic_string<char, std::__ndk1::char_traits<char>, matjson::Value<char> > >)1, std::__ndk1::vector<matjson::Value, std::__ndk1::allocator<matjson> > const, matjson::Value<char> >&)
PUBLIC 6dc30 0 std::__ndk1::vector<BarChartData, std::__ndk1::allocator<BarChartData> >::__push_back_slow_path<BarChartData>(BarChartData&&)
PUBLIC 6dee0 0 std::__ndk1::__split_buffer<BarChartData, std::__ndk1::allocator<BarChartData>&>::~__split_buffer()
PUBLIC 6df48 0 std::__ndk1::__exception_guard_exceptions<std::__ndk1::_AllocatorDestroyRangeReverse<std::__ndk1::allocator<BarChartData>, std::__ndk1::reverse_iterator<BarChartData*> > >::~__exception_guard_exceptions[abi:ne180000]()
PUBLIC 6df9c 0 Skillsets::Skillsets(matjson::Value const&)
PUBLIC 6e45c 0 Skillsets::getSkillsets() const
PUBLIC 6e7bc 0 std::__ndk1::__introsort<std::__ndk1::_RangeAlgPolicy, Skillsets::Skillsets(matjson::Value const&)::$_0&, std::__ndk1::pair<int, int>*, false>(std::__ndk1::pair<int, int>*, std::__ndk1::pair<int, int>*, Skillsets::Skillsets(matjson::Value const&)::$_0&, std::__ndk1::iterator_traits<std::__ndk1::pair<int, int>*>::difference_type, bool)
PUBLIC 6f304 0 std::__ndk1::__insertion_sort_incomplete[abi:ne180000]<std::__ndk1::_RangeAlgPolicy, Skillsets::Skillsets(matjson::Value const&)::$_0&, std::__ndk1::pair<int, int>*>(std::__ndk1::pair<int, int>*, std::__ndk1::pair<int, int>*, Skillsets::Skillsets(matjson::Value const&)::$_0&)
PUBLIC 6f67c 0 std::__ndk1::__sort4[abi:ne180000]<std::__ndk1::_RangeAlgPolicy, Skillsets::Skillsets(matjson::Value const&)::$_0&, std::__ndk1::pair<int, int>*>(std::__ndk1::pair<int, int>*, std::__ndk1::pair<int, int>*, std::__ndk1::pair<int, int>*, std::__ndk1::pair<int, int>*, Skillsets::Skillsets(matjson::Value const&)::$_0&)
PUBLIC 6f7f4 0 Submission::Submission(matjson::Value, bool)
PUBLIC 70898 0 Submission::describe() const
PUBLIC 71018 0 __cxx_global_var_init
PUBLIC 71238 0 ButtonPositionSettingNodeV3::init(std::__ndk1::shared_ptr<ButtonPositionSettingV3>, float)
PUBLIC 7148c 0 ButtonPositionSettingNodeV3::onPositionSettingLeft(cocos2d::CCObject*)
PUBLIC 714d8 0 ButtonPositionSettingNodeV3::onPositionSettingRight(cocos2d::CCObject*)
PUBLIC 71518 0 ButtonPositionSettingNodeV3::updateState(cocos2d::CCNode*)
PUBLIC 715d0 0 ButtonPositionSettingNodeV3::onCommit()
PUBLIC 71688 0 ButtonPositionSettingNodeV3::onResetToDefault()
PUBLIC 71694 0 ButtonPositionSettingNodeV3::hasUncommittedChanges() const
PUBLIC 71728 0 ButtonPositionSettingNodeV3::hasNonDefaultValue() const
PUBLIC 717b4 0 ButtonPositionSettingNodeV3::create(std::__ndk1::shared_ptr<ButtonPositionSettingV3>, float)
PUBLIC 7191c 0 geode::SettingNodeV3::~SettingNodeV3()
PUBLIC 7198c 0 ButtonPositionSettingNodeV3::~ButtonPositionSettingNodeV3()
PUBLIC 71a0c 0 ButtonPositionSettingV3::parse(std::__ndk1::basic_string<char, std::__ndk1::char_traits<char>, std::__ndk1::allocator<char> > const&, std::__ndk1::basic_string<char, std::__ndk1::char_traits<char>, std::__ndk1::allocator<char> > const&, matjson::Value const&)
PUBLIC 71c90 0 geode::JsonExpectedValue::ok<std::__ndk1::shared_ptr<geode::SettingV3> >(std::__ndk1::shared_ptr<geode::SettingV3>)
PUBLIC 71e04 0 ButtonPositionSettingV3::load(matjson::Value const&)
PUBLIC 71f6c 0 ButtonPositionSettingV3::save(matjson::Value&) const
PUBLIC 7200c 0 ButtonPositionSettingV3::createNode(float)
PUBLIC 72130 0 ButtonPositionSettingV3::isDefaultValue() const
PUBLIC 72140 0 ButtonPositionSettingV3::reset()
PUBLIC 72148 0 ButtonPositionSettingV3::~ButtonPositionSettingV3()
PUBLIC 7216c 0 std::__ndk1::__shared_ptr_emplace<ButtonPositionSettingV3, std::__ndk1::allocator<ButtonPositionSettingV3> >::~__shared_ptr_emplace()
PUBLIC 7217c 0 std::__ndk1::__shared_ptr_emplace<ButtonPositionSettingV3, std::__ndk1::allocator<ButtonPositionSettingV3> >::~__shared_ptr_emplace()
PUBLIC 721ac 0 std::__ndk1::__shared_ptr_emplace<ButtonPositionSettingV3, std::__ndk1::allocator<ButtonPositionSettingV3> >::__on_zero_shared()
PUBLIC 721b4 0 std::__ndk1::__shared_ptr_emplace<ButtonPositionSettingV3, std::__ndk1::allocator<ButtonPositionSettingV3> >::__on_zero_shared_weak()
PUBLIC 721b8 0 geode::impl::ResultData<void, std::__ndk1::basic_string<char, std::__ndk1::char_traits<char>, std::__ndk1::allocator<char> > >::~ResultData()
PUBLIC 7222c 0 std::__ndk1::__variant_detail::__visitation::__base::__dispatcher<(unsigned long)0>::__dispatch[abi:ne180000]<std::__ndk1::__variant_detail::__dtor<std::__ndk1::__variant_detail::__traits<std::__ndk1::monostate, std::__ndk1::basic_string<char, std::__ndk1::char_traits<char>, std::__ndk1::allocator<char> > >, (std::__ndk1::__variant_detail::_Trait)1>::__destroy[abi:ne180000]()::{lambda(auto:1&)#1}, std::__ndk1::__variant_detail::__base<(std::__ndk1::__variant_detail::__traits<std::__ndk1::monostate, std::__ndk1::basic_string<char, std::__ndk1::char_traits<char>, std::__ndk1::allocator<char> > >)1, std::__ndk1::__variant_detail::__traits, std::__ndk1::allocator<char> >&>(std::__ndk1::__variant_detail::__dtor<std::__ndk1::__variant_detail::__traits<std::__ndk1::monostate, std::__ndk1::basic_string<char, std::__ndk1::char_traits<char>, std::__ndk1::allocator<char> > >, (std::__ndk1::__variant_detail::_Trait)1>, std::__ndk1::__variant_detail::__base<(std::__ndk1::__variant_detail::__traits<std::__ndk1::monostate, std::__ndk1::basic_string<char, std::__ndk1::char_traits<char>, std::__ndk1::allocator<char> > >)1, std::__ndk1::__variant_detail::__traits, std::__ndk1::allocator<char> >&)
PUBLIC 72230 0 std::__ndk1::__variant_detail::__visitation::__base::__dispatcher<(unsigned long)1>::__dispatch[abi:ne180000]<std::__ndk1::__variant_detail::__dtor<std::__ndk1::__variant_detail::__traits<std::__ndk1::monostate, std::__ndk1::basic_string<char, std::__ndk1::char_traits<char>, std::__ndk1::allocator<char> > >, (std::__ndk1::__variant_detail::_Trait)1>::__destroy[abi:ne180000]()::{lambda(auto:1&)#1}, std::__ndk1::__variant_detail::__base<(std::__ndk1::__variant_detail::__traits<std::__ndk1::monostate, std::__ndk1::basic_string<char, std::__ndk1::char_traits<char>, std::__ndk1::allocator<char> > >)1, std::__ndk1::__variant_detail::__traits, std::__ndk1::allocator<char> >&>(std::__ndk1::__variant_detail::__dtor<std::__ndk1::__variant_detail::__traits<std::__ndk1::monostate, std::__ndk1::basic_string<char, std::__ndk1::char_traits<char>, std::__ndk1::allocator<char> > >, (std::__ndk1::__variant_detail::_Trait)1>, std::__ndk1::__variant_detail::__base<(std::__ndk1::__variant_detail::__traits<std::__ndk1::monostate, std::__ndk1::basic_string<char, std::__ndk1::char_traits<char>, std::__ndk1::allocator<char> > >)1, std::__ndk1::__variant_detail::__traits, std::__ndk1::allocator<char> >&)
PUBLIC 72244 0 std::__ndk1::__throw_bad_weak_ptr[abi:ne180000]()
PUBLIC 72278 0 std::__ndk1::__function::__base<geode::Result<std::__ndk1::shared_ptr<geode::SettingV3>, std::__ndk1::basic_string<char, std::__ndk1::char_traits<char>, std::__ndk1::allocator<char> > >(std::__ndk1::basic_string<char, std::__ndk1::char_traits<char>, std::__ndk1::allocator<char> > const&, std::__ndk1::basic_string<char, std::__ndk1::char_traits<char>, std::__ndk1::allocator<char> > const&, matjson::Value const&)>::~__base()
PUBLIC 7227c 0 std::__ndk1::__function::__func<geode::Result<std::__ndk1::shared_ptr<geode::SettingV3>, std::__ndk1::basic_string<char, std::__ndk1::char_traits<char>, std::__ndk1::allocator<char> > > (*)(std::__ndk1::basic_string<char, std::__ndk1::char_traits<char>, std::__ndk1::allocator<char> > const&, std::__ndk1::basic_string<char, std::__ndk1::char_traits<char>, std::__ndk1::allocator<char> > const&, matjson::Value const&), std::__ndk1::allocator<geode::Result<std::__ndk1::shared_ptr<geode::SettingV3>, std::__ndk1::basic_string<char, std::__ndk1::char_traits<char>, std::__ndk1::allocator<char> > > (*)(std::__ndk1::basic_string<char, std::__ndk1::char_traits<char>, std::__ndk1::allocator<char> > const&, std::__ndk1::basic_string<char, std::__ndk1::char_traits<char>, std::__ndk1::allocator<char> > const&, matjson::Value const&)>, geode::Result<std::__ndk1::shared_ptr<geode::SettingV3>, std::__ndk1::basic_string<char, std::__ndk1::char_traits<char>, std::__ndk1::allocator<char> > >(std::__ndk1::basic_string<char, std::__ndk1::char_traits<char>, std::__ndk1::allocator<char> > const&, std::__ndk1::basic_string<char, std::__ndk1::char_traits<char>, std::__ndk1::allocator<char> > const&, matjson::Value const&)>::~__func()
PUBLIC 72280 0 std::__ndk1::__function::__func<geode::Result<std::__ndk1::shared_ptr<geode::SettingV3>, std::__ndk1::basic_string<char, std::__ndk1::char_traits<char>, std::__ndk1::allocator<char> > > (*)(std::__ndk1::basic_string<char, std::__ndk1::char_traits<char>, std::__ndk1::allocator<char> > const&, std::__ndk1::basic_string<char, std::__ndk1::char_traits<char>, std::__ndk1::allocator<char> > const&, matjson::Value const&), std::__ndk1::allocator<geode::Result<std::__ndk1::shared_ptr<geode::SettingV3>, std::__ndk1::basic_string<char, std::__ndk1::char_traits<char>, std::__ndk1::allocator<char> > > (*)(std::__ndk1::basic_string<char, std::__ndk1::char_traits<char>, std::__ndk1::allocator<char> > const&, std::__ndk1::basic_string<char, std::__ndk1::char_traits<char>, std::__ndk1::allocator<char> > const&, matjson::Value const&)>, geode::Result<std::__ndk1::shared_ptr<geode::SettingV3>, std::__ndk1::basic_string<char, std::__ndk1::char_traits<char>, std::__ndk1::allocator<char> > >(std::__ndk1::basic_string<char, std::__ndk1::char_traits<char>, std::__ndk1::allocator<char> > const&, std::__ndk1::basic_string<char, std::__ndk1::char_traits<char>, std::__ndk1::allocator<char> > const&, matjson::Value const&)>::__clone() const
PUBLIC 722b4 0 std::__ndk1::__function::__func<geode::Result<std::__ndk1::shared_ptr<geode::SettingV3>, std::__ndk1::basic_string<char, std::__ndk1::char_traits<char>, std::__ndk1::allocator<char> > > (*)(std::__ndk1::basic_string<char, std::__ndk1::char_traits<char>, std::__ndk1::allocator<char> > const&, std::__ndk1::basic_string<char, std::__ndk1::char_traits<char>, std::__ndk1::allocator<char> > const&, matjson::Value const&), std::__ndk1::allocator<geode::Result<std::__ndk1::shared_ptr<geode::SettingV3>, std::__ndk1::basic_string<char, std::__ndk1::char_traits<char>, std::__ndk1::allocator<char> > > (*)(std::__ndk1::basic_string<char, std::__ndk1::char_traits<char>, std::__ndk1::allocator<char> > const&, std::__ndk1::basic_string<char, std::__ndk1::char_traits<char>, std::__ndk1::allocator<char> > const&, matjson::Value const&)>, geode::Result<std::__ndk1::shared_ptr<geode::SettingV3>, std::__ndk1::basic_string<char, std::__ndk1::char_traits<char>, std::__ndk1::allocator<char> > >(std::__ndk1::basic_string<char, std::__ndk1::char_traits<char>, std::__ndk1::allocator<char> > const&, std::__ndk1::basic_string<char, std::__ndk1::char_traits<char>, std::__ndk1::allocator<char> > const&, matjson::Value const&)>::__clone(std::__ndk1::__function::__base<geode::Result<std::__ndk1::shared_ptr<geode::SettingV3>, std::__ndk1::basic_string<char, std::__ndk1::char_traits<char>, std::__ndk1::allocator<char> > >(std::__ndk1::basic_string<char, std::__ndk1::char_traits<char>, std::__ndk1::allocator<char> > const&, std::__ndk1::basic_string<char, std::__ndk1::char_traits<char>, std::__ndk1::allocator<char> > const&, matjson::Value const&)>*) const
PUBLIC 722c8 0 std::__ndk1::__function::__func<geode::Result<std::__ndk1::shared_ptr<geode::SettingV3>, std::__ndk1::basic_string<char, std::__ndk1::char_traits<char>, std::__ndk1::allocator<char> > > (*)(std::__ndk1::basic_string<char, std::__ndk1::char_traits<char>, std::__ndk1::allocator<char> > const&, std::__ndk1::basic_string<char, std::__ndk1::char_traits<char>, std::__ndk1::allocator<char> > const&, matjson::Value const&), std::__ndk1::allocator<geode::Result<std::__ndk1::shared_ptr<geode::SettingV3>, std::__ndk1::basic_string<char, std::__ndk1::char_traits<char>, std::__ndk1::allocator<char> > > (*)(std::__ndk1::basic_string<char, std::__ndk1::char_traits<char>, std::__ndk1::allocator<char> > const&, std::__ndk1::basic_string<char, std::__ndk1::char_traits<char>, std::__ndk1::allocator<char> > const&, matjson::Value const&)>, geode::Result<std::__ndk1::shared_ptr<geode::SettingV3>, std::__ndk1::basic_string<char, std::__ndk1::char_traits<char>, std::__ndk1::allocator<char> > >(std::__ndk1::basic_string<char, std::__ndk1::char_traits<char>, std::__ndk1::allocator<char> > const&, std::__ndk1::basic_string<char, std::__ndk1::char_traits<char>, std::__ndk1::allocator<char> > const&, matjson::Value const&)>::destroy()
PUBLIC 722cc 0 std::__ndk1::__function::__func<geode::Result<std::__ndk1::shared_ptr<geode::SettingV3>, std::__ndk1::basic_string<char, std::__ndk1::char_traits<char>, std::__ndk1::allocator<char> > > (*)(std::__ndk1::basic_string<char, std::__ndk1::char_traits<char>, std::__ndk1::allocator<char> > const&, std::__ndk1::basic_string<char, std::__ndk1::char_traits<char>, std::__ndk1::allocator<char> > const&, matjson::Value const&), std::__ndk1::allocator<geode::Result<std::__ndk1::shared_ptr<geode::SettingV3>, std::__ndk1::basic_string<char, std::__ndk1::char_traits<char>, std::__ndk1::allocator<char> > > (*)(std::__ndk1::basic_string<char, std::__ndk1::char_traits<char>, std::__ndk1::allocator<char> > const&, std::__ndk1::basic_string<char, std::__ndk1::char_traits<char>, std::__ndk1::allocator<char> > const&, matjson::Value const&)>, geode::Result<std::__ndk1::shared_ptr<geode::SettingV3>, std::__ndk1::basic_string<char, std::__ndk1::char_traits<char>, std::__ndk1::allocator<char> > >(std::__ndk1::basic_string<char, std::__ndk1::char_traits<char>, std::__ndk1::allocator<char> > const&, std::__ndk1::basic_string<char, std::__ndk1::char_traits<char>, std::__ndk1::allocator<char> > const&, matjson::Value const&)>::destroy_deallocate()
PUBLIC 722d0 0 std::__ndk1::__function::__func<geode::Result<std::__ndk1::shared_ptr<geode::SettingV3>, std::__ndk1::basic_string<char, std::__ndk1::char_traits<char>, std::__ndk1::allocator<char> > > (*)(std::__ndk1::basic_string<char, std::__ndk1::char_traits<char>, std::__ndk1::allocator<char> > const&, std::__ndk1::basic_string<char, std::__ndk1::char_traits<char>, std::__ndk1::allocator<char> > const&, matjson::Value const&), std::__ndk1::allocator<geode::Result<std::__ndk1::shared_ptr<geode::SettingV3>, std::__ndk1::basic_string<char, std::__ndk1::char_traits<char>, std::__ndk1::allocator<char> > > (*)(std::__ndk1::basic_string<char, std::__ndk1::char_traits<char>, std::__ndk1::allocator<char> > const&, std::__ndk1::basic_string<char, std::__ndk1::char_traits<char>, std::__ndk1::allocator<char> > const&, matjson::Value const&)>, geode::Result<std::__ndk1::shared_ptr<geode::SettingV3>, std::__ndk1::basic_string<char, std::__ndk1::char_traits<char>, std::__ndk1::allocator<char> > >(std::__ndk1::basic_string<char, std::__ndk1::char_traits<char>, std::__ndk1::allocator<char> > const&, std::__ndk1::basic_string<char, std::__ndk1::char_traits<char>, std::__ndk1::allocator<char> > const&, matjson::Value const&)>::operator()(std::__ndk1::basic_string<char, std::__ndk1::char_traits<char>, std::__ndk1::allocator<char> > const&, std::__ndk1::basic_string<char, std::__ndk1::char_traits<char>, std::__ndk1::allocator<char> > const&, matjson::Value const&)
PUBLIC 722e4 0 std::__ndk1::__function::__func<geode::Result<std::__ndk1::shared_ptr<geode::SettingV3>, std::__ndk1::basic_string<char, std::__ndk1::char_traits<char>, std::__ndk1::allocator<char> > > (*)(std::__ndk1::basic_string<char, std::__ndk1::char_traits<char>, std::__ndk1::allocator<char> > const&, std::__ndk1::basic_string<char, std::__ndk1::char_traits<char>, std::__ndk1::allocator<char> > const&, matjson::Value const&), std::__ndk1::allocator<geode::Result<std::__ndk1::shared_ptr<geode::SettingV3>, std::__ndk1::basic_string<char, std::__ndk1::char_traits<char>, std::__ndk1::allocator<char> > > (*)(std::__ndk1::basic_string<char, std::__ndk1::char_traits<char>, std::__ndk1::allocator<char> > const&, std::__ndk1::basic_string<char, std::__ndk1::char_traits<char>, std::__ndk1::allocator<char> > const&, matjson::Value const&)>, geode::Result<std::__ndk1::shared_ptr<geode::SettingV3>, std::__ndk1::basic_string<char, std::__ndk1::char_traits<char>, std::__ndk1::allocator<char> > >(std::__ndk1::basic_string<char, std::__ndk1::char_traits<char>, std::__ndk1::allocator<char> > const&, std::__ndk1::basic_string<char, std::__ndk1::char_traits<char>, std::__ndk1::allocator<char> > const&, matjson::Value const&)>::target(std::type_info const&) const
PUBLIC 72300 0 std::__ndk1::__function::__func<geode::Result<std::__ndk1::shared_ptr<geode::SettingV3>, std::__ndk1::basic_string<char, std::__ndk1::char_traits<char>, std::__ndk1::allocator<char> > > (*)(std::__ndk1::basic_string<char, std::__ndk1::char_traits<char>, std::__ndk1::allocator<char> > const&, std::__ndk1::basic_string<char, std::__ndk1::char_traits<char>, std::__ndk1::allocator<char> > const&, matjson::Value const&), std::__ndk1::allocator<geode::Result<std::__ndk1::shared_ptr<geode::SettingV3>, std::__ndk1::basic_string<char, std::__ndk1::char_traits<char>, std::__ndk1::allocator<char> > > (*)(std::__ndk1::basic_string<char, std::__ndk1::char_traits<char>, std::__ndk1::allocator<char> > const&, std::__ndk1::basic_string<char, std::__ndk1::char_traits<char>, std::__ndk1::allocator<char> > const&, matjson::Value const&)>, geode::Result<std::__ndk1::shared_ptr<geode::SettingV3>, std::__ndk1::basic_string<char, std::__ndk1::char_traits<char>, std::__ndk1::allocator<char> > >(std::__ndk1::basic_string<char, std::__ndk1::char_traits<char>, std::__ndk1::allocator<char> > const&, std::__ndk1::basic_string<char, std::__ndk1::char_traits<char>, std::__ndk1::allocator<char> > const&, matjson::Value const&)>::target_type() const
PUBLIC 7230c 0 _GLOBAL__sub_I_ButtonPositionSettingV3.cpp
PUBLIC 72444 0 CacheResetSettingNodeV3::init(std::__ndk1::shared_ptr<DummySettingV3>, float)
PUBLIC 725dc 0 CacheResetSettingNodeV3::onCacheResetButtonClicked(cocos2d::CCObject*)
PUBLIC 72840 0 CacheResetSettingNodeV3::updateState(cocos2d::CCNode*)
PUBLIC 72844 0 CacheResetSettingNodeV3::onCommit()
PUBLIC 72848 0 CacheResetSettingNodeV3::onResetToDefault()
PUBLIC 7284c 0 CacheResetSettingNodeV3::hasUncommittedChanges() const
PUBLIC 72854 0 CacheResetSettingNodeV3::hasNonDefaultValue() const
PUBLIC 7285c 0 CacheResetSettingNodeV3::create(std::__ndk1::shared_ptr<DummySettingV3>, float)
PUBLIC 72a58 0 std::__ndk1::shared_ptr<DummySettingV3>::~shared_ptr[abi:ne180000]()
PUBLIC 72aa8 0 CacheResetSettingNodeV3::~CacheResetSettingNodeV3()
PUBLIC 72ba8 0 CacheResetSettingNodeV3::~CacheResetSettingNodeV3()
PUBLIC 72cb8 0 DummySettingLoginV3::parse(std::__ndk1::basic_string<char, std::__ndk1::char_traits<char>, std::__ndk1::allocator<char> > const&, std::__ndk1::basic_string<char, std::__ndk1::char_traits<char>, std::__ndk1::allocator<char> > const&, matjson::Value const&)
PUBLIC 72f38 0 std::__ndk1::shared_ptr<DummySettingLoginV3>::~shared_ptr[abi:ne180000]()
PUBLIC 72f88 0 DummySettingLoginV3::load(matjson::Value const&)
PUBLIC 72f90 0 DummySettingLoginV3::save(matjson::Value&) const
PUBLIC 72f98 0 DummySettingLoginV3::isDefaultValue() const
PUBLIC 72fa0 0 DummySettingLoginV3::reset()
PUBLIC 72fa4 0 DummySettingLoginV3::createNode(float)
PUBLIC 730c8 0 DummySettingLoginV3::~DummySettingLoginV3()
PUBLIC 730ec 0 std::__ndk1::__shared_ptr_emplace<DummySettingLoginV3, std::__ndk1::allocator<DummySettingLoginV3> >::~__shared_ptr_emplace()
PUBLIC 730fc 0 std::__ndk1::__shared_ptr_emplace<DummySettingLoginV3, std::__ndk1::allocator<DummySettingLoginV3> >::~__shared_ptr_emplace()
PUBLIC 7312c 0 std::__ndk1::__shared_ptr_emplace<DummySettingLoginV3, std::__ndk1::allocator<DummySettingLoginV3> >::__on_zero_shared()
PUBLIC 73138 0 std::__ndk1::__shared_ptr_emplace<DummySettingLoginV3, std::__ndk1::allocator<DummySettingLoginV3> >::__on_zero_shared_weak()
PUBLIC 7313c 0 _GLOBAL__sub_I_DummySettingLoginV3.cpp
PUBLIC 73274 0 DummySettingV3::parse(std::__ndk1::basic_string<char, std::__ndk1::char_traits<char>, std::__ndk1::allocator<char> > const&, std::__ndk1::basic_string<char, std::__ndk1::char_traits<char>, std::__ndk1::allocator<char> > const&, matjson::Value const&)
PUBLIC 734f4 0 DummySettingV3::load(matjson::Value const&)
PUBLIC 734fc 0 DummySettingV3::save(matjson::Value&) const
PUBLIC 73504 0 DummySettingV3::isDefaultValue() const
PUBLIC 7350c 0 DummySettingV3::reset()
PUBLIC 73510 0 DummySettingV3::createNode(float)
PUBLIC 73634 0 DummySettingV3::~DummySettingV3()
PUBLIC 73658 0 std::__ndk1::__shared_ptr_emplace<DummySettingV3, std::__ndk1::allocator<DummySettingV3> >::~__shared_ptr_emplace()
PUBLIC 73668 0 std::__ndk1::__shared_ptr_emplace<DummySettingV3, std::__ndk1::allocator<DummySettingV3> >::~__shared_ptr_emplace()
PUBLIC 73698 0 std::__ndk1::__shared_ptr_emplace<DummySettingV3, std::__ndk1::allocator<DummySettingV3> >::__on_zero_shared()
PUBLIC 736a0 0 std::__ndk1::__shared_ptr_emplace<DummySettingV3, std::__ndk1::allocator<DummySettingV3> >::__on_zero_shared_weak()
PUBLIC 736a4 0 _GLOBAL__sub_I_DummySettingV3.cpp
PUBLIC 737dc 0 ExcludeRangeSettingNodeV3::init(std::__ndk1::shared_ptr<ExcludeRangeSettingV3>, float)
PUBLIC 73d10 0 ExcludeRangeSettingNodeV3::onRangeBeginLeft(cocos2d::CCObject*)
PUBLIC 73d2c 0 ExcludeRangeSettingNodeV3::onRangeBeginRight(cocos2d::CCObject*)
PUBLIC 73d44 0 ExcludeRangeSettingNodeV3::onRangeEndLeft(cocos2d::CCObject*)
PUBLIC 73d60 0 ExcludeRangeSettingNodeV3::onRangeEndRight(cocos2d::CCObject*)
PUBLIC 73d78 0 ExcludeRangeSettingNodeV3::onToggleInclude(cocos2d::CCObject*)
PUBLIC 73db8 0 ExcludeRangeSettingNodeV3::updateState(cocos2d::CCNode*)
PUBLIC 73ea8 0 ExcludeRangeSettingNodeV3::onCommit()
PUBLIC 74000 0 ExcludeRangeSettingNodeV3::onResetToDefault()
PUBLIC 74010 0 ExcludeRangeSettingNodeV3::hasUncommittedChanges() const
PUBLIC 7419c 0 ExcludeRangeSettingNodeV3::hasNonDefaultValue() const
PUBLIC 74244 0 ExcludeRangeSettingNodeV3::create(std::__ndk1::shared_ptr<ExcludeRangeSettingV3>, float)
PUBLIC 743e0 0 ExcludeRangeSettingNodeV3::~ExcludeRangeSettingNodeV3()
PUBLIC 7446c 0 ExcludeRangeSettingNodeV3::~ExcludeRangeSettingNodeV3()
PUBLIC 74508 0 ExcludeRangeSettingV3::parse(std::__ndk1::basic_string<char, std::__ndk1::char_traits<char>, std::__ndk1::allocator<char> > const&, std::__ndk1::basic_string<char, std::__ndk1::char_traits<char>, std::__ndk1::allocator<char> > const&, matjson::Value const&)
PUBLIC 74794 0 ExcludeRangeSettingV3::load(matjson::Value const&)
PUBLIC 74b00 0 ExcludeRangeSettingV3::save(matjson::Value&) const
PUBLIC 74c24 0 ExcludeRangeSettingV3::createNode(float)
PUBLIC 74d48 0 ExcludeRangeSettingV3::isDefaultValue() const
PUBLIC 74d6c 0 ExcludeRangeSettingV3::reset()
PUBLIC 74d78 0 ExcludeRangeSettingV3::~ExcludeRangeSettingV3()
PUBLIC 74d9c 0 std::__ndk1::__shared_ptr_emplace<ExcludeRangeSettingV3, std::__ndk1::allocator<ExcludeRangeSettingV3> >::~__shared_ptr_emplace()
PUBLIC 74dac 0 std::__ndk1::__shared_ptr_emplace<ExcludeRangeSettingV3, std::__ndk1::allocator<ExcludeRangeSettingV3> >::~__shared_ptr_emplace()
PUBLIC 74ddc 0 std::__ndk1::__shared_ptr_emplace<ExcludeRangeSettingV3, std::__ndk1::allocator<ExcludeRangeSettingV3> >::__on_zero_shared()
PUBLIC 74de4 0 std::__ndk1::__shared_ptr_emplace<ExcludeRangeSettingV3, std::__ndk1::allocator<ExcludeRangeSettingV3> >::__on_zero_shared_weak()
PUBLIC 74de8 0 _GLOBAL__sub_I_ExcludeRangeSettingV3.cpp
PUBLIC 74f20 0 LoginSettingNodeV3::init(std::__ndk1::shared_ptr<DummySettingLoginV3>, float)
PUBLIC 75160 0 LoginSettingNodeV3::onLoginLogoutButtonClicked(cocos2d::CCObject*)
PUBLIC 751b4 0 LoginSettingNodeV3::updateState(cocos2d::CCNode*)
PUBLIC 75610 0 LoginSettingNodeV3::loggedIn()
PUBLIC 756f0 0 LoginSettingNodeV3::logOut()
PUBLIC 757e0 0 LoginSettingNodeV3::onCommit()
PUBLIC 757e4 0 LoginSettingNodeV3::onResetToDefault()
PUBLIC 757e8 0 LoginSettingNodeV3::hasUncommittedChanges() const
PUBLIC 757f0 0 LoginSettingNodeV3::hasNonDefaultValue() const
PUBLIC 757f8 0 LoginSettingNodeV3::create(std::__ndk1::shared_ptr<DummySettingLoginV3>, float)
PUBLIC 7595c 0 LoginSettingNodeV3::~LoginSettingNodeV3()
PUBLIC 759dc 0 UseOldTierLabelSettingNodeV3::init(std::__ndk1::shared_ptr<UseOldTierLabelSettingV3>, float)
PUBLIC 75e2c 0 UseOldTierLabelSettingNodeV3::onToggleEnabled(cocos2d::CCObject*)
PUBLIC 75e6c 0 UseOldTierLabelSettingNodeV3::onPositionOffsetLeft(cocos2d::CCObject*)
PUBLIC 75e8c 0 UseOldTierLabelSettingNodeV3::onPositionOffsetRight(cocos2d::CCObject*)
PUBLIC 75ea8 0 UseOldTierLabelSettingNodeV3::updateState(cocos2d::CCNode*)
PUBLIC 75f9c 0 UseOldTierLabelSettingNodeV3::onCommit()
PUBLIC 760a4 0 UseOldTierLabelSettingNodeV3::onResetToDefault()
PUBLIC 760b4 0 UseOldTierLabelSettingNodeV3::hasUncommittedChanges() const
PUBLIC 761d0 0 UseOldTierLabelSettingNodeV3::hasNonDefaultValue() const
PUBLIC 76264 0 UseOldTierLabelSettingNodeV3::create(std::__ndk1::shared_ptr<UseOldTierLabelSettingV3>, float)
PUBLIC 763d8 0 UseOldTierLabelSettingNodeV3::~UseOldTierLabelSettingNodeV3()
PUBLIC 76458 0 UseOldTierLabelSettingV3::parse(std::__ndk1::basic_string<char, std::__ndk1::char_traits<char>, std::__ndk1::allocator<char> > const&, std::__ndk1::basic_string<char, std::__ndk1::char_traits<char>, std::__ndk1::allocator<char> > const&, matjson::Value const&)
PUBLIC 766d8 0 UseOldTierLabelSettingV3::load(matjson::Value const&)
PUBLIC 7694c 0 UseOldTierLabelSettingV3::save(matjson::Value&) const
PUBLIC 76a34 0 UseOldTierLabelSettingV3::createNode(float)
PUBLIC 76b58 0 UseOldTierLabelSettingV3::isDefaultValue() const
PUBLIC 76b70 0 UseOldTierLabelSettingV3::reset()
PUBLIC 76b7c 0 UseOldTierLabelSettingV3::~UseOldTierLabelSettingV3()
PUBLIC 76ba0 0 std::__ndk1::__shared_ptr_emplace<UseOldTierLabelSettingV3, std::__ndk1::allocator<UseOldTierLabelSettingV3> >::~__shared_ptr_emplace()
PUBLIC 76bb0 0 std::__ndk1::__shared_ptr_emplace<UseOldTierLabelSettingV3, std::__ndk1::allocator<UseOldTierLabelSettingV3> >::~__shared_ptr_emplace()
PUBLIC 76be0 0 std::__ndk1::__shared_ptr_emplace<UseOldTierLabelSettingV3, std::__ndk1::allocator<UseOldTierLabelSettingV3> >::__on_zero_shared()
PUBLIC 76be8 0 std::__ndk1::__shared_ptr_emplace<UseOldTierLabelSettingV3, std::__ndk1::allocator<UseOldTierLabelSettingV3> >::__on_zero_shared_weak()
PUBLIC 76bec 0 _GLOBAL__sub_I_UseOldTierLabelSettingV3.cpp
PUBLIC m 76d24 0 geodeImplicitEntry
PUBLIC 76d60 0 std::__ndk1::unordered_map<void*, bool, std::__ndk1::hash<void*>, std::__ndk1::equal_to<void*>, std::__ndk1::allocator<std::__ndk1::pair<void* const, bool> > >::~unordered_map[abi:ne180000]()
PUBLIC 76dac 0 wrapFunction(unsigned long, tulip::hook::WrapperMetadata const&)
PUBLIC 76ee0 0 geode::impl::ResultData<void*, std::__ndk1::basic_string<char, std::__ndk1::char_traits<char>, std::__ndk1::allocator<char> > >::unwrapErr() &
PUBLIC 76f58 0 geode::impl::ResultData<void*, std::__ndk1::basic_string<char, std::__ndk1::char_traits<char>, std::__ndk1::allocator<char> > >::~ResultData()
PUBLIC 76fcc 0 tulip::hook::WrapperMetadata::~WrapperMetadata()
PUBLIC 77030 0 cocos2d::CCObject::~CCObject()
PUBLIC 77054 0 cocos2d::CCNode::CCNode()
PUBLIC 772b0 0 cocos2d::CCNode::~CCNode()
PUBLIC 772d4 0 {virtual override thunk({offset(-320)}, cocos2d::CCLayer::~CCLayer())}
PUBLIC 772dc 0 cocos2d::CCLayer::~CCLayer()
PUBLIC 77300 0 {virtual override thunk({offset(-320)}, cocos2d::CCLayer::~CCLayer())}
PUBLIC 77328 0 cocos2d::CCLayerRGBA::~CCLayerRGBA()
PUBLIC 77628 0 {virtual override thunk({offset(-320)}, cocos2d::CCLayerRGBA::~CCLayerRGBA())}
PUBLIC 77630 0 cocos2d::CCLayerRGBA::~CCLayerRGBA()
PUBLIC 77654 0 {virtual override thunk({offset(-320)}, cocos2d::CCLayerRGBA::~CCLayerRGBA())}
PUBLIC 7767c 0 cocos2d::CCLayerColor::CCLayerColor()
PUBLIC 778e0 0 {virtual override thunk({offset(-320)}, cocos2d::CCLayerColor::~CCLayerColor())}
PUBLIC 778e8 0 cocos2d::CCLayerColor::~CCLayerColor()
PUBLIC 7790c 0 {virtual override thunk({offset(-320)}, cocos2d::CCLayerColor::~CCLayerColor())}
PUBLIC 77934 0 cocos2d::ZipUtils::base64URLDecode(gd::string const&)
PUBLIC 77aa8 0 {virtual override thunk({offset(-320)}, FLAlertLayer::~FLAlertLayer())}
PUBLIC 77ab0 0 FLAlertLayer::~FLAlertLayer()
PUBLIC 77ad4 0 {virtual override thunk({offset(-320)}, FLAlertLayer::~FLAlertLayer())}
PUBLIC 77afc 0 FLAlertLayer::create(FLAlertLayerProtocol*, char const*, gd::string, char const*, char const*, float)
PUBLIC 77cb4 0 tulip::hook::AbstractFunction::from<FLAlertLayer*, FLAlertLayerProtocol*, char const*, gd::string, char const*, char const*, float>(FLAlertLayer* (*)(FLAlertLayerProtocol*, char const*, gd::string, char const*, char const*, float))
PUBLIC 78198 0 CCMenuItemToggler::createWithStandardSprites(cocos2d::CCObject*, void (cocos2d::CCObject::*)(cocos2d::CCObject*), float)
PUBLIC 78390 0 CCTextInputNode::setAllowedChars(gd::string)
PUBLIC 78508 0 tulip::hook::AbstractFunction::from<void, CCTextInputNode*, gd::string>(void (*)(CCTextInputNode*, gd::string))
PUBLIC 785ac 0 CCTextInputNode::setString(gd::string)
PUBLIC 78724 0 LevelManagerDelegate::loadLevelsFinished(cocos2d::CCArray*, char const*)
PUBLIC 78728 0 LevelManagerDelegate::loadLevelsFailed(char const*)
PUBLIC 7872c 0 GJSearchObject::create(SearchType, gd::string)
PUBLIC 788ac 0 tulip::hook::AbstractFunction::from<GJSearchObject*, SearchType, gd::string>(GJSearchObject* (*)(SearchType, gd::string))
PUBLIC 78950 0 LevelBrowserLayer::~LevelBrowserLayer()
PUBLIC 78c94 0 {virtual override thunk({offset(-320)}, LevelBrowserLayer::~LevelBrowserLayer())}
PUBLIC 78c9c 0 LevelBrowserLayer::~LevelBrowserLayer()
PUBLIC 78cc0 0 {virtual override thunk({offset(-320)}, LevelBrowserLayer::~LevelBrowserLayer())}
PUBLIC 78ce8 0 LevelBrowserLayer::ccTouchBegan(cocos2d::CCTouch*, cocos2d::CCEvent*)
PUBLIC 78cf0 0 {virtual override thunk({offset(-320)}, LevelBrowserLayer::ccTouchBegan(cocos2d::CCTouch*, cocos2d::CCEvent*))}
PUBLIC 78cf8 0 LevelBrowserLayer::ccTouchMoved(cocos2d::CCTouch*, cocos2d::CCEvent*)
PUBLIC 78cfc 0 {virtual override thunk({offset(-320)}, LevelBrowserLayer::ccTouchMoved(cocos2d::CCTouch*, cocos2d::CCEvent*))}
PUBLIC 78d00 0 LevelBrowserLayer::ccTouchEnded(cocos2d::CCTouch*, cocos2d::CCEvent*)
PUBLIC 78d04 0 {virtual override thunk({offset(-320)}, LevelBrowserLayer::ccTouchEnded(cocos2d::CCTouch*, cocos2d::CCEvent*))}
PUBLIC 78d08 0 LevelBrowserLayer::ccTouchCancelled(cocos2d::CCTouch*, cocos2d::CCEvent*)
PUBLIC 78d0c 0 {virtual override thunk({offset(-320)}, LevelBrowserLayer::ccTouchCancelled(cocos2d::CCTouch*, cocos2d::CCEvent*))}
PUBLIC 78d10 0 LevelBrowserLayer::setupPageInfo(gd::string, char const*)
PUBLIC 78e84 0 tulip::hook::AbstractFunction::from<void, LevelBrowserLayer*, gd::string, char const*>(void (*)(LevelBrowserLayer*, gd::string, char const*))
PUBLIC 78f90 0 {virtual override thunk({offset(-544)}, LevelBrowserLayer::setupPageInfo(gd::string, char const*))}
PUBLIC 78f98 0 LevelBrowserLayer::shareCommentClosed(gd::string, ShareCommentLayer*)
PUBLIC 7910c 0 tulip::hook::AbstractFunction::from<void, LevelBrowserLayer*, gd::string, ShareCommentLayer*>(void (*)(LevelBrowserLayer*, gd::string, ShareCommentLayer*))
PUBLIC 79218 0 {virtual override thunk({offset(-584)}, LevelBrowserLayer::shareCommentClosed(gd::string, ShareCommentLayer*))}
PUBLIC 79220 0 LevelBrowserLayer::setTextPopupClosed(SetTextPopup*, gd::string)
PUBLIC 79394 0 tulip::hook::AbstractFunction::from<void, LevelBrowserLayer*, SetTextPopup*, gd::string>(void (*)(LevelBrowserLayer*, SetTextPopup*, gd::string))
PUBLIC 794a0 0 {virtual override thunk({offset(-568)}, LevelBrowserLayer::setTextPopupClosed(SetTextPopup*, gd::string))}
PUBLIC 794a8 0 TextArea::create(gd::string, char const*, float, float, cocos2d::CCPoint, float, bool)
PUBLIC 79670 0 tulip::hook::AbstractFunction::from<TextArea*, gd::string, char const*, float, float, cocos2d::CCPoint, float, bool>(TextArea* (*)(gd::string, char const*, float, float, cocos2d::CCPoint, float, bool))
PUBLIC 79c2c 0 cocos2d::CCObject::update(float)
PUBLIC 79c30 0 cocos2d::CCLayerColor::~CCLayerColor()
PUBLIC 79f14 0 FLAlertLayer::~FLAlertLayer()
PUBLIC 7a1f8 0 cocos2d::CCNode::~CCNode()
PUBLIC 7a498 0 cocos2d::CCLayer::~CCLayer()
PUBLIC 7a788 0 cocos2d::CCObject::~CCObject()
PUBLIC 7ac7c 0 _ZN5geode15UnwrapExceptionC2IRPvQsr4implE18IsStringStreamableIT_EEENS_4impl5OkTagEOS4_
PUBLIC 7add0 0 std::__ndk1::__variant_detail::__visitation::__base::__dispatcher<(unsigned long)0>::__dispatch[abi:ne180000]<std::__ndk1::__variant_detail::__dtor<std::__ndk1::__variant_detail::__traits<void*, std::__ndk1::basic_string<char, std::__ndk1::char_traits<char>, std::__ndk1::allocator<char> > >, (std::__ndk1::__variant_detail::_Trait)1>::__destroy[abi:ne180000]()::{lambda(auto:1&)#1}, std::__ndk1::__variant_detail::__base<(std::__ndk1::__variant_detail::__traits<void*, std::__ndk1::basic_string<char, std::__ndk1::char_traits<char>, std::__ndk1::allocator<char> > >)1, std::__ndk1::__variant_detail::__traits, std::__ndk1::allocator<char> >&>(std::__ndk1::__variant_detail::__dtor<std::__ndk1::__variant_detail::__traits<void*, std::__ndk1::basic_string<char, std::__ndk1::char_traits<char>, std::__ndk1::allocator<char> > >, (std::__ndk1::__variant_detail::_Trait)1>, std::__ndk1::__variant_detail::__base<(std::__ndk1::__variant_detail::__traits<void*, std::__ndk1::basic_string<char, std::__ndk1::char_traits<char>, std::__ndk1::allocator<char> > >)1, std::__ndk1::__variant_detail::__traits, std::__ndk1::allocator<char> >&)
PUBLIC 7add4 0 std::__ndk1::__variant_detail::__visitation::__base::__dispatcher<(unsigned long)1>::__dispatch[abi:ne180000]<std::__ndk1::__variant_detail::__dtor<std::__ndk1::__variant_detail::__traits<void*, std::__ndk1::basic_string<char, std::__ndk1::char_traits<char>, std::__ndk1::allocator<char> > >, (std::__ndk1::__variant_detail::_Trait)1>::__destroy[abi:ne180000]()::{lambda(auto:1&)#1}, std::__ndk1::__variant_detail::__base<(std::__ndk1::__variant_detail::__traits<void*, std::__ndk1::basic_string<char, std::__ndk1::char_traits<char>, std::__ndk1::allocator<char> > >)1, std::__ndk1::__variant_detail::__traits, std::__ndk1::allocator<char> >&>(std::__ndk1::__variant_detail::__dtor<std::__ndk1::__variant_detail::__traits<void*, std::__ndk1::basic_string<char, std::__ndk1::char_traits<char>, std::__ndk1::allocator<char> > >, (std::__ndk1::__variant_detail::_Trait)1>, std::__ndk1::__variant_detail::__base<(std::__ndk1::__variant_detail::__traits<void*, std::__ndk1::basic_string<char, std::__ndk1::char_traits<char>, std::__ndk1::allocator<char> > >)1, std::__ndk1::__variant_detail::__traits, std::__ndk1::allocator<char> >&)
PUBLIC 7ade8 0 std::__ndk1::__hash_table<std::__ndk1::__hash_value_type<void*, bool>, std::__ndk1::__unordered_map_hasher<void*, std::__ndk1::__hash_value_type<void*, bool>, std::__ndk1::hash<void*>, std::__ndk1::equal_to<void*>, true>, std::__ndk1::__unordered_map_equal<void*, std::__ndk1::__hash_value_type<void*, bool>, std::__ndk1::equal_to<void*>, std::__ndk1::hash<void*>, true>, std::__ndk1::allocator<std::__ndk1::__hash_value_type<void*, bool> > >::__emplace_unique_key_args<void*, std::__ndk1::piecewise_construct_t const&, std::__ndk1::tuple<void* const&>, std::__ndk1::tuple<> >(void* const&, std::__ndk1::piecewise_construct_t const&, std::__ndk1::tuple<void* const&>, std::__ndk1::tuple<>)
PUBLIC 7b2f4 0 __udivti3
PUBLIC 7b300 0 __udivmodti4
PUBLIC m 7b54c 0 __eqtf2
PUBLIC 7b5ec 0 __unordtf2
PUBLIC 7b624 0 fmt::v11::detail::write_loc(fmt::v11::basic_appender<char>, fmt::v11::loc_value, fmt::v11::format_specs const&, fmt::v11::detail::locale_ref)
PUBLIC 7b8b8 0 fmt::v11::format_facet<std::__ndk1::locale>::~format_facet()
PUBLIC 7b934 0 fmt::v11::report_error(char const*)
PUBLIC 7b984 0 fmt::v11::format_error::runtime_error(char const*)
PUBLIC 7b9b0 0 fmt::v11::format_facet<std::__ndk1::locale>::do_put(fmt::v11::basic_appender<char>, fmt::v11::loc_value, fmt::v11::format_specs const&) const
PUBLIC 7c170 0 fmt::v11::detail::loc_writer<char>::~loc_writer()
PUBLIC 7c1d4 0 fmt::v11::detail::vformat_to<char>(fmt::v11::detail::buffer<char>&, fmt::v11::basic_string_view<char>, fmt::v11::detail::vformat_args<char>::type, fmt::v11::detail::locale_ref)
PUBLIC 7c744 0 fmt::v11::detail::is_printable(unsigned int)
PUBLIC 7c96c 0 fmt::v11::detail::dragonbox::to_decimal<float>(float)
PUBLIC 7cc48 0 fmt::v11::detail::dragonbox::to_decimal<double>(double)
PUBLIC 7d184 0 fmt::v11::basic_memory_buffer<char, (unsigned long)500, std::__ndk1::allocator<char> >::grow(fmt::v11::detail::buffer<char>&, unsigned long)
PUBLIC 7d1fc 0 fmt::v11::format_facet<std::__ndk1::locale>::~format_facet()
PUBLIC 7d288 0 fmt::v11::format_error::~format_error()
PUBLIC 7d2ac 0 fmt::v11::detail::copy_noinline<char, char const*, fmt::v11::basic_appender<char> >(char const*, char const*, fmt::v11::basic_appender<char>)
PUBLIC 7d3fc 0 fmt::v11::detail::default_arg_formatter<char>::operator()<bool>(bool)
PUBLIC 7d464 0 fmt::v11::detail::default_arg_formatter<char>::operator()<char>(char)
PUBLIC 7d4f4 0 fmt::v11::detail::default_arg_formatter<char>::operator()<float>(float)
PUBLIC 7d5e0 0 fmt::v11::detail::default_arg_formatter<char>::operator()<double>(double)
PUBLIC 7d6cc 0 fmt::v11::detail::default_arg_formatter<char>::operator()<char const*>(char const*)
PUBLIC 7d714 0 fmt::v11::detail::default_arg_formatter<char>::operator()<void const*>(void const*)
PUBLIC 7d7ac 0 _ZN3fmt3v116detail5writeIcNS0_14basic_appenderIcEEiTnNSt6__ndk19enable_ifIXaaaasr11is_integralIT1_EE5valuentsr3std7is_sameIS7_bEE5valuentsr3std7is_sameIS7_T_EE5valueEiE4typeELi0EEET0_SB_S7_
PUBLIC 7da0c 0 fmt::v11::detail::copy_noinline<char, char*, fmt::v11::basic_appender<char> >(char*, char*, fmt::v11::basic_appender<char>)
PUBLIC 7db5c 0 _ZN3fmt3v116detail5writeIcNS0_14basic_appenderIcEEjTnNSt6__ndk19enable_ifIXaaaasr11is_integralIT1_EE5valuentsr3std7is_sameIS7_bEE5valuentsr3std7is_sameIS7_T_EE5valueEiE4typeELi0EEET0_SB_S7_
PUBLIC 7dd3c 0 _ZN3fmt3v116detail5writeIcNS0_14basic_appenderIcEExTnNSt6__ndk19enable_ifIXaaaasr11is_integralIT1_EE5valuentsr3std7is_sameIS7_bEE5valuentsr3std7is_sameIS7_T_EE5valueEiE4typeELi0EEET0_SB_S7_
PUBLIC 7dfc0 0 _ZN3fmt3v116detail5writeIcNS0_14basic_appenderIcEEyTnNSt6__ndk19enable_ifIXaaaasr11is_integralIT1_EE5valuentsr3std7is_sameIS7_bEE5valuentsr3std7is_sameIS7_T_EE5valueEiE4typeELi0EEET0_SB_S7_
PUBLIC 7e1c8 0 _ZN3fmt3v116detail5writeIcNS0_14basic_appenderIcEEnTnNSt6__ndk19enable_ifIXaaaasr11is_integralIT1_EE5valuentsr3std7is_sameIS7_bEE5valuentsr3std7is_sameIS7_T_EE5valueEiE4typeELi0EEET0_SB_S7_
PUBLIC 7e528 0 _ZN3fmt3v116detail5writeIcNS0_14basic_appenderIcEEoTnNSt6__ndk19enable_ifIXaaaasr11is_integralIT1_EE5valuentsr3std7is_sameIS7_bEE5valuentsr3std7is_sameIS7_T_EE5valueEiE4typeELi0EEET0_SB_S7_
PUBLIC 7e83c 0 _ZN3fmt3v116detail5writeIcNS0_14basic_appenderIcEEbTnNSt6__ndk19enable_ifIXsr3std7is_sameIT1_bEE5valueEiE4typeELi0EEET0_SA_S7_RKNS0_12format_specsENS1_10locale_refE
PUBLIC 7eacc 0 fmt::v11::detail::write_int_noinline<char, fmt::v11::basic_appender<char>, unsigned int>(fmt::v11::basic_appender<char>, fmt::v11::detail::write_int_arg<unsigned int>, fmt::v11::format_specs const&, fmt::v11::detail::locale_ref)
PUBLIC 7f8a8 0 fmt::v11::detail::fill<char, fmt::v11::basic_appender<char> >(fmt::v11::basic_appender<char>, unsigned long, fmt::v11::detail::fill_t const&)
PUBLIC 7fa78 0 fmt::v11::detail::write_padded<char, (fmt::v11::align::type)1, fmt::v11::basic_appender<char>, fmt::v11::detail::write_char<char, fmt::v11::basic_appender<char> >(fmt::v11::basic_appender<char>, char, fmt::v11::format_specs const&)::{lambda(fmt::v11::basic_appender<char>&)#1}>(fmt::v11::basic_appender<char>, fmt::v11::format_specs const&, unsigned long, unsigned long, fmt::v11::detail::write_char<char, fmt::v11::basic_appender<char> >(fmt::v11::basic_appender<char>, char, fmt::v11::format_specs const&)::{lambda(fmt::v11::basic_appender<char>&)#1})
PUBLIC 7fcb4 0 fmt::v11::detail::write_escaped_cp<fmt::v11::basic_appender<char>, char>(fmt::v11::basic_appender<char>, fmt::v11::detail::find_escape_result<char> const&)
PUBLIC 7ffc0 0 fmt::v11::detail::write_codepoint<(unsigned long)2, char, fmt::v11::basic_appender<char> >(fmt::v11::basic_appender<char>, char, unsigned int)
PUBLIC 80138 0 fmt::v11::detail::write_codepoint<(unsigned long)8, char, fmt::v11::basic_appender<char> >(fmt::v11::basic_appender<char>, char, unsigned int)
PUBLIC 802b0 0 fmt::v11::detail::write_padded<char, (fmt::v11::align::type)1, fmt::v11::basic_appender<char>, fmt::v11::detail::write_nonfinite<char, fmt::v11::basic_appender<char> >(fmt::v11::basic_appender<char>, bool, fmt::v11::format_specs, fmt::v11::sign::type)::{lambda(fmt::v11::basic_appender<char>&)#1}>(fmt::v11::basic_appender<char>, fmt::v11::format_specs const&, unsigned long, unsigned long, fmt::v11::detail::write_nonfinite<char, fmt::v11::basic_appender<char> >(fmt::v11::basic_appender<char>, bool, fmt::v11::format_specs, fmt::v11::sign::type)::{lambda(fmt::v11::basic_appender<char>&)#1})
PUBLIC 804f0 0 fmt::v11::detail::do_write_float<char, fmt::v11::basic_appender<char>, fmt::v11::detail::dragonbox::decimal_fp<float>, fmt::v11::detail::digit_grouping<char> >(fmt::v11::basic_appender<char>, fmt::v11::detail::dragonbox::decimal_fp<float> const&, fmt::v11::format_specs const&, fmt::v11::detail::float_specs, fmt::v11::detail::locale_ref)
PUBLIC 81164 0 fmt::v11::detail::do_write_float<char, fmt::v11::basic_appender<char>, fmt::v11::detail::dragonbox::decimal_fp<float>, fmt::v11::detail::digit_grouping<char> >(fmt::v11::basic_appender<char>, fmt::v11::detail::dragonbox::decimal_fp<float> const&, fmt::v11::format_specs const&, fmt::v11::detail::float_specs, fmt::v11::detail::locale_ref)::{lambda(fmt::v11::basic_appender<char>(fmt::v11::basic_appender<char>))#1}::operator() const
PUBLIC 812b8 0 fmt::v11::detail::digit_grouping<char>::digit_grouping(fmt::v11::detail::locale_ref, bool)
PUBLIC 81524 0 fmt::v11::detail::digit_grouping<char>::~digit_grouping()
PUBLIC 81568 0 fmt::v11::detail::write_exponent<char, fmt::v11::basic_appender<char> >(int, fmt::v11::basic_appender<char>)
PUBLIC 81738 0 _ZN3fmt3v116detail17write_significandIcjTnNSt6__ndk19enable_ifIXsr3std11is_integralIT0_EE5valueEiE4typeELi0EEEPT_S9_S5_iiS8_
PUBLIC 818b4 0 fmt::v11::detail::digit_grouping<char>::apply<fmt::v11::basic_appender<char>, char>(fmt::v11::basic_appender<char>, fmt::v11::basic_string_view<char>) const
PUBLIC 81c6c 0 fmt::v11::basic_memory_buffer<int, (unsigned long)500, std::__ndk1::allocator<int> >::grow(fmt::v11::detail::buffer<int>&, unsigned long)
PUBLIC 81d0c 0 fmt::v11::detail::do_write_float<char, fmt::v11::basic_appender<char>, fmt::v11::detail::dragonbox::decimal_fp<double>, fmt::v11::detail::digit_grouping<char> >(fmt::v11::basic_appender<char>, fmt::v11::detail::dragonbox::decimal_fp<double> const&, fmt::v11::format_specs const&, fmt::v11::detail::float_specs, fmt::v11::detail::locale_ref)
PUBLIC 829c0 0 fmt::v11::detail::do_write_float<char, fmt::v11::basic_appender<char>, fmt::v11::detail::dragonbox::decimal_fp<double>, fmt::v11::detail::digit_grouping<char> >(fmt::v11::basic_appender<char>, fmt::v11::detail::dragonbox::decimal_fp<double> const&, fmt::v11::format_specs const&, fmt::v11::detail::float_specs, fmt::v11::detail::locale_ref)::{lambda(fmt::v11::basic_appender<char>(fmt::v11::basic_appender<char>))#1}::operator() const
PUBLIC 82b18 0 _ZN3fmt3v116detail17write_significandIcmTnNSt6__ndk19enable_ifIXsr3std11is_integralIT0_EE5valueEiE4typeELi0EEEPT_S9_S5_iiS8_
PUBLIC 82ca8 0 fmt::v11::detail::write_float<char, fmt::v11::basic_appender<char>, long double>(fmt::v11::basic_appender<char>, long double, fmt::v11::format_specs, fmt::v11::detail::locale_ref)
PUBLIC 837a4 0 fmt::v11::detail::write_padded<char, (fmt::v11::align::type)2, fmt::v11::basic_appender<char>, fmt::v11::detail::write_bytes<char, (fmt::v11::align::type)2, fmt::v11::basic_appender<char> >(fmt::v11::basic_appender<char>, fmt::v11::basic_string_view<char>, fmt::v11::format_specs const&)::{lambda(fmt::v11::basic_appender<char>&)#1}>(fmt::v11::basic_appender<char>, fmt::v11::format_specs const&, unsigned long, unsigned long, fmt::v11::detail::write_bytes<char, (fmt::v11::align::type)2, fmt::v11::basic_appender<char> >(fmt::v11::basic_appender<char>, fmt::v11::basic_string_view<char>, fmt::v11::format_specs const&)::{lambda(fmt::v11::basic_appender<char>&)#1})
PUBLIC 83980 0 fmt::v11::detail::format_dragon(fmt::v11::detail::basic_fp<unsigned __int128>, unsigned int, int, fmt::v11::detail::buffer<char>&, int&)
PUBLIC 84db0 0 fmt::v11::detail::bigint::operator<<=(int)
PUBLIC 84ed4 0 fmt::v11::detail::bigint::assign_pow10(int)
PUBLIC 85630 0 fmt::v11::detail::bigint::divmod_assign(fmt::v11::detail::bigint const&)
PUBLIC 85950 0 fmt::v11::basic_memory_buffer<unsigned int, (unsigned long)32, std::__ndk1::allocator<unsigned int> >::grow(fmt::v11::detail::buffer<unsigned int>&, unsigned long)
PUBLIC 859f0 0 fmt::v11::detail::do_write_float<char, fmt::v11::basic_appender<char>, fmt::v11::detail::big_decimal_fp, fmt::v11::detail::digit_grouping<char> >(fmt::v11::basic_appender<char>, fmt::v11::detail::big_decimal_fp const&, fmt::v11::format_specs const&, fmt::v11::detail::float_specs, fmt::v11::detail::locale_ref)
PUBLIC 868a0 0 fmt::v11::detail::do_write_float<char, fmt::v11::basic_appender<char>, fmt::v11::detail::big_decimal_fp, fmt::v11::detail::digit_grouping<char> >(fmt::v11::basic_appender<char>, fmt::v11::detail::big_decimal_fp const&, fmt::v11::format_specs const&, fmt::v11::detail::float_specs, fmt::v11::detail::locale_ref)::{lambda(fmt::v11::basic_appender<char>(fmt::v11::basic_appender<char>))#1}::operator() const
PUBLIC 86a00 0 fmt::v11::detail::write_padded<char, (fmt::v11::align::type)2, fmt::v11::basic_appender<char>, fmt::v11::detail::write_ptr<char, fmt::v11::basic_appender<char>, unsigned long>(fmt::v11::basic_appender<char>, unsigned long, fmt::v11::format_specs const*)::{lambda(fmt::v11::basic_appender<char>&)#1}>(fmt::v11::basic_appender<char>, fmt::v11::format_specs const&, unsigned long, unsigned long, fmt::v11::detail::write_ptr<char, fmt::v11::basic_appender<char>, unsigned long>(fmt::v11::basic_appender<char>, unsigned long, fmt::v11::format_specs const*)::{lambda(fmt::v11::basic_appender<char>&)#1})
PUBLIC 86c14 0 fmt::v11::detail::parse_replacement_field<char, fmt::v11::detail::vformat_to<char>(fmt::v11::detail::buffer<char>&, fmt::v11::basic_string_view<char>, fmt::v11::detail::vformat_args<char>::type, fmt::v11::detail::locale_ref)::format_handler&>(char const*, char const*, fmt::v11::detail::vformat_to<char>(fmt::v11::detail::buffer<char>&, fmt::v11::basic_string_view<char>, fmt::v11::detail::vformat_args<char>::type, fmt::v11::detail::locale_ref)::format_handler&)
PUBLIC 888b0 0 fmt::v11::detail::parse_dynamic_spec<char>(char const*, char const*, int&, fmt::v11::detail::arg_ref<char>&, fmt::v11::basic_format_parse_context<char>&)
PUBLIC 88b40 0 fmt::v11::basic_format_args<fmt::v11::context>::get<char>(fmt::v11::basic_string_view<char>) const
PUBLIC 88c98 0 fmt::v11::detail::write_int_noinline<char, fmt::v11::basic_appender<char>, unsigned long>(fmt::v11::basic_appender<char>, fmt::v11::detail::write_int_arg<unsigned long>, fmt::v11::format_specs const&, fmt::v11::detail::locale_ref)
PUBLIC 89aec 0 fmt::v11::detail::write_int_noinline<char, fmt::v11::basic_appender<char>, unsigned __int128>(fmt::v11::basic_appender<char>, fmt::v11::detail::write_int_arg<unsigned __int128>, fmt::v11::format_specs const&, fmt::v11::detail::locale_ref)
PUBLIC 8ab54 0 _ZN3fmt3v116detail15format_hexfloatIdTnNSt6__ndk19enable_ifIXntsr16is_double_doubleIT_EE5valueEiE4typeELi0EEEvS5_NS0_12format_specsERNS1_6bufferIcEE
PUBLIC 8b074 0 fmt::v11::detail::format_float<double>(double, int, fmt::v11::detail::float_specs, fmt::v11::detail::buffer<char>&)
PUBLIC 8ba14 0 fmt::v11::detail::write<char, fmt::v11::basic_appender<char> >(fmt::v11::basic_appender<char>, fmt::v11::basic_string_view<char>, fmt::v11::format_specs const&)
PUBLIC 8cd80 0 fmt::v11::detail::for_each_codepoint<fmt::v11::detail::compute_width(fmt::v11::basic_string_view<char>)::count_code_points>(fmt::v11::basic_string_view<char>, fmt::v11::detail::compute_width(fmt::v11::basic_string_view<char>)::count_code_points)::{lambda(char const*, char const*)#1}::operator()(char const*, char const*) const
PUBLIC 8cf38 0 fmt::v11::detail::write_int<fmt::v11::basic_appender<char>, unsigned long, char>(fmt::v11::basic_appender<char>, unsigned long, unsigned int, fmt::v11::format_specs const&, fmt::v11::detail::digit_grouping<char> const&)
PUBLIC 8d4b4 0 fmt::v11::detail::write_int<fmt::v11::basic_appender<char>, unsigned __int128, char>(fmt::v11::basic_appender<char>, unsigned __int128, unsigned int, fmt::v11::format_specs const&, fmt::v11::detail::digit_grouping<char> const&)
PUBLIC 8db30 0 __CortexA53843419_60004
PUBLIC 8db40 0 <.plt ELF section in b1rtek.gddlintegration.android64.so>
STACK CFI INIT 38eb0 10 .cfa: sp 0 +
STACK CFI INIT 38ec0 8 .cfa: sp 0 +
STACK CFI INIT 38ec8 8 .cfa: sp 0 +
STACK CFI INIT 38ed0 14 .cfa: sp 0 +
STACK CFI INIT 38ee4 1c .cfa: sp 0 +
STACK CFI INIT 38f00 10 .cfa: sp 0 +
STACK CFI INIT 3bd98 64 .cfa: sp 0 +
STACK CFI 3bd9c .cfa: sp 32 +
STACK CFI 3bda4 .cfa: x29 32 + x19: .cfa -16 + ^ .ra: .cfa -24 + ^ x29: .cfa -32 + ^
STACK CFI 3bdc0 .cfa: sp 32 +
STACK CFI 3bdc8 .cfa: sp 0 +
STACK CFI 3bdcc .cfa: x29 32 +
STACK CFI 3bdf0 .cfa: sp 32 +
STACK CFI 3bdf8 .cfa: sp 0 +
STACK CFI INIT 3bdfc bc .cfa: sp 0 +
STACK CFI 3be00 .cfa: sp 48 +
STACK CFI 3be0c .cfa: x29 48 + x19: .cfa -8 + ^ x20: .cfa -16 + ^ x21: .cfa -32 + ^ .ra: .cfa -40 + ^ x29: .cfa -48 + ^
STACK CFI 3be2c .cfa: sp 48 +
STACK CFI 3be38 .cfa: sp 0 +
STACK CFI 3be3c .cfa: x29 48 +
STACK CFI 3be98 .cfa: sp 48 +
STACK CFI 3bea4 .cfa: sp 0 +
STACK CFI 3bea8 .cfa: sp 48 +
STACK CFI 3beb4 .cfa: sp 0 +
STACK CFI INIT 3beb8 6c .cfa: sp 0 +
STACK CFI 3bebc .cfa: sp 16 +
STACK CFI 3bec0 .cfa: x29 16 + .ra: .cfa -8 + ^ x29: .cfa -16 + ^
STACK CFI 3bf14 .cfa: sp 16 +
STACK CFI 3bf18 .cfa: sp 0 +
STACK CFI 3bf1c .cfa: sp 16 +
STACK CFI 3bf20 .cfa: sp 0 +
STACK CFI INIT 3bf24 8 .cfa: sp 0 +
STACK CFI INIT 3bf2c 6c .cfa: sp 0 +
STACK CFI 3bf30 .cfa: sp 16 +
STACK CFI 3bf34 .cfa: x29 16 + .ra: .cfa -8 + ^ x29: .cfa -16 + ^
STACK CFI 3bf88 .cfa: sp 16 +
STACK CFI 3bf8c .cfa: sp 0 +
STACK CFI 3bf90 .cfa: sp 16 +
STACK CFI 3bf94 .cfa: sp 0 +
STACK CFI INIT 3bf98 8 .cfa: sp 0 +
STACK CFI INIT 3bfa0 6c .cfa: sp 0 +
STACK CFI 3bfa4 .cfa: sp 16 +
STACK CFI 3bfa8 .cfa: x29 16 + .ra: .cfa -8 + ^ x29: .cfa -16 + ^
STACK CFI 3bffc .cfa: sp 16 +
STACK CFI 3c000 .cfa: sp 0 +
STACK CFI 3c004 .cfa: sp 16 +
STACK CFI 3c008 .cfa: sp 0 +
STACK CFI INIT 3c00c 8 .cfa: sp 0 +
STACK CFI INIT 3c680 7c .cfa: sp 0 +
STACK CFI 3c684 .cfa: sp 48 +
STACK CFI 3c690 .cfa: x29 48 + x19: .cfa -8 + ^ x20: .cfa -16 + ^ x21: .cfa -32 + ^ .ra: .cfa -40 + ^ x29: .cfa -48 + ^
STACK CFI 3c6dc .cfa: sp 48 +
STACK CFI 3c6e8 .cfa: sp 0 +
STACK CFI 3c6ec .cfa: sp 48 +
STACK CFI 3c6f8 .cfa: sp 0 +
STACK CFI INIT 3c7c0 8 .cfa: sp 0 +
STACK CFI INIT 3c7c8 18 .cfa: sp 0 +
STACK CFI INIT 3c7e0 8 .cfa: sp 0 +
STACK CFI INIT 3d264 80 .cfa: sp 0 +
STACK CFI 3d268 .cfa: sp 48 +
STACK CFI 3d274 .cfa: x29 48 + x19: .cfa -8 + ^ x20: .cfa -16 + ^ x21: .cfa -32 + ^ .ra: .cfa -40 + ^ x29: .cfa -48 + ^
STACK CFI 3d2d4 .cfa: sp 48 +
STACK CFI 3d2e0 .cfa: sp 0 +
STACK CFI INIT 3d2e4 50 .cfa: sp 0 +
STACK CFI 3d2e8 .cfa: sp 32 +
STACK CFI 3d2f0 .cfa: x29 32 + x19: .cfa -8 + ^ x20: .cfa -16 + ^ .ra: .cfa -24 + ^ x29: .cfa -32 + ^
STACK CFI 3d328 .cfa: sp 32 +
STACK CFI 3d330 .cfa: sp 0 +
STACK CFI INIT 3d970 68 .cfa: sp 0 +
STACK CFI 3d974 .cfa: sp 48 +
STACK CFI 3d980 .cfa: x29 48 + x19: .cfa -8 + ^ x20: .cfa -16 + ^ x21: .cfa -32 + ^ .ra: .cfa -40 + ^ x29: .cfa -48 + ^
STACK CFI 3d9b8 .cfa: sp 48 +
STACK CFI 3d9c4 .cfa: sp 0 +
STACK CFI 3d9c8 .cfa: sp 48 +
STACK CFI 3d9d4 .cfa: sp 0 +
STACK CFI INIT 3d9d8 58 .cfa: sp 0 +
STACK CFI 3d9dc .cfa: sp 32 +
STACK CFI 3d9e4 .cfa: x29 32 + x19: .cfa -8 + ^ x20: .cfa -16 + ^ .ra: .cfa -24 + ^ x29: .cfa -32 + ^
STACK CFI 3da24 .cfa: sp 32 +
STACK CFI 3da2c .cfa: sp 0 +
STACK CFI INIT 3da30 148 .cfa: sp 0 +
STACK CFI 3da40 .cfa: sp 64 +
STACK CFI 3da50 .cfa: x29 64 + x19: .cfa -8 + ^ x20: .cfa -16 + ^ x21: .cfa -24 + ^ x22: .cfa -32 + ^ x23: .cfa -48 + ^ .ra: .cfa -56 + ^ x29: .cfa -64 + ^
STACK CFI 3da94 .cfa: sp 64 +
STACK CFI 3daa4 .cfa: sp 0 +
STACK CFI 3daa8 .cfa: x29 64 +
STACK CFI 3dad8 .cfa: sp 0 + x19: x19 x20: x20 x21: x21 x22: x22 x23: x23 .ra: x30 x29: x29
STACK CFI 3dae0 .cfa: x29 64 + x19: .cfa -8 + ^ x20: .cfa -16 + ^ x21: .cfa -24 + ^ x22: .cfa -32 + ^ x23: .cfa -48 + ^ .ra: .cfa -56 + ^ x29: .cfa -64 + ^
STACK CFI 3db4c .cfa: sp 64 +
STACK CFI 3db5c .cfa: sp 0 +
STACK CFI 3db60 .cfa: x29 64 +
STACK CFI 3db64 .cfa: sp 64 +
STACK CFI 3db74 .cfa: sp 0 +
STACK CFI INIT 3db78 18c .cfa: sp 0 +
STACK CFI 3db7c .cfa: sp 64 +
STACK CFI 3db8c .cfa: x29 64 + x19: .cfa -8 + ^ x20: .cfa -16 + ^ x21: .cfa -24 + ^ x22: .cfa -32 + ^ x23: .cfa -40 + ^ x24: .cfa -48 + ^ .ra: .cfa -56 + ^ x29: .cfa -64 + ^
STACK CFI 3dbe0 .cfa: sp 64 +
STACK CFI 3dbf0 .cfa: sp 0 +
STACK CFI 3dbf4 .cfa: x29 64 +
STACK CFI 3dcf0 .cfa: sp 64 +
STACK CFI 3dd00 .cfa: sp 0 +
STACK CFI INIT 3ec04 134 .cfa: sp 0 +
STACK CFI 3ec14 .cfa: sp 64 +
STACK CFI 3ec24 .cfa: x29 64 + x19: .cfa -8 + ^ x20: .cfa -16 + ^ x21: .cfa -24 + ^ x22: .cfa -32 + ^ x23: .cfa -48 + ^ .ra: .cfa -56 + ^ x29: .cfa -64 + ^
STACK CFI 3ec68 .cfa: sp 64 +
STACK CFI 3ec78 .cfa: sp 0 +
STACK CFI 3ec7c .cfa: x29 64 +
STACK CFI 3ecac .cfa: sp 0 + x19: x19 x20: x20 x21: x21 x22: x22 x23: x23 .ra: x30 x29: x29
STACK CFI 3ecb4 .cfa: x29 64 + x19: .cfa -8 + ^ x20: .cfa -16 + ^ x21: .cfa -24 + ^ x22: .cfa -32 + ^ x23: .cfa -48 + ^ .ra: .cfa -56 + ^ x29: .cfa -64 + ^
STACK CFI 3ed0c .cfa: sp 64 +
STACK CFI 3ed1c .cfa: sp 0 +
STACK CFI 3ed20 .cfa: x29 64 +
STACK CFI 3ed24 .cfa: sp 64 +
STACK CFI 3ed34 .cfa: sp 0 +
STACK CFI INIT 3ed38 120 .cfa: sp 0 +
STACK CFI 3ed3c .cfa: sp 64 +
STACK CFI 3ed4c .cfa: x29 64 + x19: .cfa -8 + ^ x20: .cfa -16 + ^ x21: .cfa -24 + ^ x22: .cfa -32 + ^ x23: .cfa -40 + ^ x24: .cfa -48 + ^ .ra: .cfa -56 + ^ x29: .cfa -64 + ^
STACK CFI 3ee44 .cfa: sp 64 +
STACK CFI 3ee54 .cfa: sp 0 +
STACK CFI INIT 3efd0 fc .cfa: sp 0 +
STACK CFI 3efd4 .cfa: sp 64 +
STACK CFI 3efe4 .cfa: x29 64 + x19: .cfa -8 + ^ x20: .cfa -16 + ^ x21: .cfa -24 + ^ x22: .cfa -32 + ^ x23: .cfa -40 + ^ x24: .cfa -48 + ^ .ra: .cfa -56 + ^ x29: .cfa -64 + ^
STACK CFI 3f0a4 .cfa: sp 64 +
STACK CFI 3f0b4 .cfa: sp 0 +
STACK CFI 3f0b8 .cfa: sp 64 +
STACK CFI 3f0c8 .cfa: sp 0 +
STACK CFI INIT 3f20c 15c .cfa: sp 0 +
STACK CFI 3f210 .cfa: sp 64 +
STACK CFI 3f220 .cfa: x29 64 + x19: .cfa -8 + ^ x20: .cfa -16 + ^ x21: .cfa -24 + ^ x22: .cfa -32 + ^ x23: .cfa -40 + ^ x24: .cfa -48 + ^ .ra: .cfa -56 + ^ x29: .cfa -64 + ^
STACK CFI 3f354 .cfa: sp 64 +
STACK CFI 3f364 .cfa: sp 0 +
STACK CFI INIT 3f368 128 .cfa: sp 0 +
STACK CFI 3f36c .cfa: sp 64 +
STACK CFI 3f37c .cfa: x29 64 + x19: .cfa -8 + ^ x20: .cfa -16 + ^ x21: .cfa -24 + ^ x22: .cfa -32 + ^ x23: .cfa -40 + ^ x24: .cfa -48 + ^ .ra: .cfa -56 + ^ x29: .cfa -64 + ^
STACK CFI 3f47c .cfa: sp 64 +
STACK CFI 3f48c .cfa: sp 0 +
STACK CFI INIT 3f490 14 .cfa: sp 0 +
STACK CFI 3f494 .cfa: sp 16 +
STACK CFI 3f498 .cfa: x29 16 + .ra: .cfa -8 + ^ x29: .cfa -16 + ^
STACK CFI INIT 3f4f4 30 .cfa: sp 0 +
STACK CFI 3f4f8 .cfa: sp 32 +
STACK CFI 3f500 .cfa: x29 32 + x19: .cfa -16 + ^ .ra: .cfa -24 + ^ x29: .cfa -32 + ^
STACK CFI 3f518 .cfa: sp 32 +
STACK CFI 3f520 .cfa: sp 0 +
STACK CFI INIT 3f524 34 .cfa: sp 0 +
STACK CFI 3f528 .cfa: sp 32 +
STACK CFI 3f530 .cfa: x29 32 + x19: .cfa -16 + ^ .ra: .cfa -24 + ^ x29: .cfa -32 + ^
STACK CFI INIT 3f558 10 .cfa: sp 0 +
STACK CFI 3f55c .cfa: sp 16 +
STACK CFI 3f560 .cfa: x29 16 + .ra: .cfa -8 + ^ x29: .cfa -16 + ^
STACK CFI INIT 3f568 80 .cfa: sp 0 +
STACK CFI 3f56c .cfa: sp 48 +
STACK CFI 3f578 .cfa: x29 48 + x19: .cfa -8 + ^ x20: .cfa -16 + ^ x21: .cfa -24 + ^ x22: .cfa -32 + ^ .ra: .cfa -40 + ^ x29: .cfa -48 + ^
STACK CFI 3f590 .cfa: sp 48 +
STACK CFI 3f59c .cfa: sp 0 +
STACK CFI 3f5a0 .cfa: x29 48 +
STACK CFI 3f5d0 .cfa: sp 48 +
STACK CFI 3f5dc .cfa: sp 0 +
STACK CFI 3f5e0 .cfa: x29 48 +
STACK CFI INIT 3f5e8 cc .cfa: sp 0 +
STACK CFI 3f5ec .cfa: sp 48 +
STACK CFI 3f5f8 .cfa: x29 48 + x19: .cfa -8 + ^ x20: .cfa -16 + ^ x21: .cfa -24 + ^ x22: .cfa -32 + ^ .ra: .cfa -40 + ^ x29: .cfa -48 + ^
STACK CFI 3f600 .cfa: sp 48 +
STACK CFI 3f60c .cfa: sp 0 +
STACK CFI 3f610 .cfa: x29 48 +
STACK CFI 3f634 .cfa: sp 48 +
STACK CFI 3f640 .cfa: sp 0 +
STACK CFI 3f644 .cfa: x29 48 +
STACK CFI 3f6a4 .cfa: sp 48 +
STACK CFI 3f6b0 .cfa: sp 0 +
STACK CFI INIT 3f6b4 88 .cfa: sp 0 +
STACK CFI 3f6c4 .cfa: sp 32 +
STACK CFI 3f6cc .cfa: x29 32 + x19: .cfa -8 + ^ x20: .cfa -16 + ^ .ra: .cfa -24 + ^ x29: .cfa -32 + ^
STACK CFI 3f730 .cfa: sp 32 +
STACK CFI 3f738 .cfa: sp 0 +
STACK CFI INIT 3f73c 8c .cfa: sp 0 +
STACK CFI 3f740 .cfa: sp 48 +
STACK CFI 3f74c .cfa: x29 48 + x19: .cfa -8 + ^ x20: .cfa -16 + ^ x21: .cfa -24 + ^ x22: .cfa -32 + ^ .ra: .cfa -40 + ^ x29: .cfa -48 + ^
STACK CFI 3f754 .cfa: sp 48 +
STACK CFI 3f760 .cfa: sp 0 +
STACK CFI 3f764 .cfa: x29 48 +
STACK CFI 3f7b8 .cfa: sp 48 +
STACK CFI 3f7c4 .cfa: sp 0 +
STACK CFI INIT 3f7c8 14 .cfa: sp 0 +
STACK CFI 3f7cc .cfa: sp 16 +
STACK CFI 3f7d0 .cfa: x29 16 + .ra: .cfa -8 + ^ x29: .cfa -16 + ^
STACK CFI INIT 3f7dc 60 .cfa: sp 0 +
STACK CFI 3f7ec .cfa: sp 32 +
STACK CFI 3f7f4 .cfa: x29 32 + x19: .cfa -8 + ^ x20: .cfa -16 + ^ .ra: .cfa -24 + ^ x29: .cfa -32 + ^
STACK CFI 3f830 .cfa: sp 32 +
STACK CFI 3f838 .cfa: sp 0 +
STACK CFI INIT 3f83c 44 .cfa: sp 0 +
STACK CFI 3f844 .cfa: sp 32 +
STACK CFI 3f84c .cfa: x29 32 + x19: .cfa -8 + ^ x20: .cfa -16 + ^ .ra: .cfa -24 + ^ x29: .cfa -32 + ^
STACK CFI 3f870 .cfa: sp 32 +
STACK CFI 3f878 .cfa: sp 0 +
STACK CFI INIT 3f880 34 .cfa: sp 0 +
STACK CFI 3f884 .cfa: sp 16 +
STACK CFI 3f888 .cfa: x29 16 + .ra: .cfa -8 + ^ x29: .cfa -16 + ^
STACK CFI INIT 3f8b4 24 .cfa: sp 0 +
STACK CFI 3f8b8 .cfa: sp 32 +
STACK CFI 3f8c0 .cfa: x29 32 + x19: .cfa -16 + ^ .ra: .cfa -24 + ^ x29: .cfa -32 + ^
STACK CFI 3f8cc .cfa: sp 32 +
STACK CFI 3f8d4 .cfa: sp 0 +
STACK CFI INIT 3f8d8 8 .cfa: sp 0 +
STACK CFI INIT 3f8e0 14 .cfa: sp 0 +
STACK CFI INIT 3ff54 148 .cfa: sp 0 +
STACK CFI 3ff58 .cfa: sp 48 +
STACK CFI 3ff64 .cfa: x29 48 + x19: .cfa -8 + ^ x20: .cfa -16 + ^ x21: .cfa -32 + ^ .ra: .cfa -40 + ^ x29: .cfa -48 + ^
STACK CFI 4008c .cfa: sp 48 +
STACK CFI 40098 .cfa: sp 0 +
STACK CFI INIT 4009c 4 .cfa: sp 0 +
STACK CFI INIT 400a0 14 .cfa: sp 0 +
STACK CFI INIT 400b4 4 .cfa: sp 0 +
STACK CFI INIT 400b8 14 .cfa: sp 0 +
STACK CFI INIT 400cc 1b0 .cfa: sp 0 +
STACK CFI INIT 4027c 54 .cfa: sp 0 +
STACK CFI 40280 .cfa: sp 32 +
STACK CFI 40288 .cfa: x29 32 + x19: .cfa -8 + ^ x20: .cfa -16 + ^ .ra: .cfa -24 + ^ x29: .cfa -32 + ^
STACK CFI 402b8 .cfa: sp 32 +
STACK CFI 402c0 .cfa: sp 0 +
STACK CFI 402c4 .cfa: sp 32 +
STACK CFI 402cc .cfa: sp 0 +
STACK CFI INIT 402d0 14 .cfa: sp 0 +
STACK CFI 402d4 .cfa: sp 16 +
STACK CFI 402d8 .cfa: x29 16 + .ra: .cfa -8 + ^ x29: .cfa -16 + ^
STACK CFI INIT 40400 7c .cfa: sp 0 +
STACK CFI 40404 .cfa: sp 48 +
STACK CFI 40410 .cfa: x29 48 + x19: .cfa -8 + ^ x20: .cfa -16 + ^ x21: .cfa -24 + ^ x22: .cfa -32 + ^ .ra: .cfa -40 + ^ x29: .cfa -48 + ^
STACK CFI 40418 .cfa: sp 48 +
STACK CFI 40424 .cfa: sp 0 +
STACK CFI 40428 .cfa: x29 48 +
STACK CFI 4046c .cfa: sp 48 +
STACK CFI 40478 .cfa: sp 0 +
STACK CFI INIT 4047c 54 .cfa: sp 0 +
STACK CFI 40480 .cfa: sp 32 +
STACK CFI 40488 .cfa: x29 32 + x19: .cfa -8 + ^ x20: .cfa -16 + ^ .ra: .cfa -24 + ^ x29: .cfa -32 + ^
STACK CFI 404c4 .cfa: sp 32 +
STACK CFI 404cc .cfa: sp 0 +
STACK CFI INIT 404d0 60 .cfa: sp 0 +
STACK CFI 404d4 .cfa: sp 32 +
STACK CFI 404dc .cfa: x29 32 + x19: .cfa -8 + ^ x20: .cfa -16 + ^ .ra: .cfa -24 + ^ x29: .cfa -32 + ^
STACK CFI 40524 .cfa: sp 32 +
STACK CFI 4052c .cfa: sp 0 +
STACK CFI INIT 40530 60 .cfa: sp 0 +
STACK CFI 40534 .cfa: sp 32 +
STACK CFI 4053c .cfa: x29 32 + x19: .cfa -8 + ^ x20: .cfa -16 + ^ .ra: .cfa -24 + ^ x29: .cfa -32 + ^
STACK CFI 40584 .cfa: sp 32 +
STACK CFI 4058c .cfa: sp 0 +
STACK CFI INIT 40590 5c .cfa: sp 0 +
STACK CFI 40594 .cfa: sp 32 +
STACK CFI 4059c .cfa: x29 32 + x19: .cfa -8 + ^ x20: .cfa -16 + ^ .ra: .cfa -24 + ^ x29: .cfa -32 + ^
STACK CFI 405e0 .cfa: sp 32 +
STACK CFI 405e8 .cfa: sp 0 +
STACK CFI INIT 405ec 68 .cfa: sp 0 +
STACK CFI 405f0 .cfa: sp 32 +
STACK CFI 405f8 .cfa: x29 32 + x19: .cfa -8 + ^ x20: .cfa -16 + ^ .ra: .cfa -24 + ^ x29: .cfa -32 + ^
STACK CFI 40648 .cfa: sp 32 +
STACK CFI 40650 .cfa: sp 0 +
STACK CFI INIT 40654 14 .cfa: sp 0 +
STACK CFI 40658 .cfa: sp 16 +
STACK CFI 4065c .cfa: x29 16 + .ra: .cfa -8 + ^ x29: .cfa -16 + ^
STACK CFI INIT 406b8 30 .cfa: sp 0 +
STACK CFI 406bc .cfa: sp 32 +
STACK CFI 406c4 .cfa: x29 32 + x19: .cfa -16 + ^ .ra: .cfa -24 + ^ x29: .cfa -32 + ^
STACK CFI 406dc .cfa: sp 32 +
STACK CFI 406e4 .cfa: sp 0 +
STACK CFI INIT 406e8 ac .cfa: sp 0 +
STACK CFI 406ec .cfa: sp 64 +
STACK CFI 406fc .cfa: x29 64 + x19: .cfa -8 + ^ x20: .cfa -16 + ^ x21: .cfa -24 + ^ x22: .cfa -32 + ^ x23: .cfa -48 + ^ .ra: .cfa -56 + ^ x29: .cfa -64 + ^
STACK CFI 40778 .cfa: sp 64 +
STACK CFI 40788 .cfa: sp 0 +
STACK CFI 4078c .cfa: x29 64 +
STACK CFI INIT 40794 110 .cfa: sp 0 +
STACK CFI 40798 .cfa: sp 64 +
STACK CFI 407a8 .cfa: x29 64 + x19: .cfa -8 + ^ x20: .cfa -16 + ^ x21: .cfa -24 + ^ x22: .cfa -32 + ^ x23: .cfa -40 + ^ x24: .cfa -48 + ^ .ra: .cfa -56 + ^ x29: .cfa -64 + ^
STACK CFI 40888 .cfa: sp 64 +
STACK CFI 40898 .cfa: sp 0 +
STACK CFI 4089c .cfa: x29 64 +
STACK CFI INIT 40acc 68 .cfa: sp 0 +
STACK CFI 40ad0 .cfa: sp 32 +
STACK CFI 40ad8 .cfa: x29 32 + x19: .cfa -8 + ^ x20: .cfa -16 + ^ .ra: .cfa -24 + ^ x29: .cfa -32 + ^
STACK CFI 40af0 .cfa: sp 32 +
STACK CFI 40af8 .cfa: sp 0 +
STACK CFI 40afc .cfa: x29 32 +
STACK CFI 40b28 .cfa: sp 32 +
STACK CFI 40b30 .cfa: sp 0 +
STACK CFI INIT 40b34 334 .cfa: sp 0 +
STACK CFI 40b38 .cfa: sp 80 +
STACK CFI 40b4c .cfa: x29 80 + x19: .cfa -8 + ^ x20: .cfa -16 + ^ x21: .cfa -24 + ^ x22: .cfa -32 + ^ x23: .cfa -40 + ^ x24: .cfa -48 + ^ x25: .cfa -64 + ^ .ra: .cfa -72 + ^ x29: .cfa -80 + ^
STACK CFI 40e50 .cfa: sp 80 +
STACK CFI 40e64 .cfa: sp 0 +
STACK CFI INIT 40e68 124 .cfa: sp 0 +
STACK CFI 40e6c .cfa: sp 96 +
STACK CFI 40e80 .cfa: x29 64 + x19: .cfa -8 + ^ x20: .cfa -16 + ^ x21: .cfa -24 + ^ x22: .cfa -32 + ^ x23: .cfa -48 + ^ .ra: .cfa -56 + ^ x29: .cfa -64 + ^
STACK CFI 40f70 .cfa: sp 96 +
STACK CFI 40f84 .cfa: sp 0 +
STACK CFI 40f88 .cfa: x29 64 +
STACK CFI INIT 40f8c 1b0 .cfa: sp 0 +
STACK CFI INIT 4113c 34c .cfa: sp 0 +
STACK CFI 41140 .cfa: sp 64 +
STACK CFI 41150 .cfa: x29 64 + x19: .cfa -8 + ^ x20: .cfa -16 + ^ x21: .cfa -24 + ^ x22: .cfa -32 + ^ x23: .cfa -48 + ^ .ra: .cfa -56 + ^ x29: .cfa -64 + ^
STACK CFI 41204 .cfa: sp 64 +
STACK CFI 41214 .cfa: sp 0 +
STACK CFI 41218 .cfa: x29 64 +
STACK CFI 412e4 .cfa: sp 64 +
STACK CFI 412f4 .cfa: sp 0 +
STACK CFI 412f8 .cfa: x29 64 +
STACK CFI 41328 .cfa: sp 64 +
STACK CFI 41338 .cfa: sp 0 +
STACK CFI 4133c .cfa: x29 64 +
STACK CFI 41340 .cfa: sp 64 +
STACK CFI 41350 .cfa: sp 0 +
STACK CFI 41354 .cfa: x29 64 +
STACK CFI INIT 41488 14 .cfa: sp 0 +
STACK CFI 4148c .cfa: sp 16 +
STACK CFI 41490 .cfa: x29 16 + .ra: .cfa -8 + ^ x29: .cfa -16 + ^
STACK CFI INIT 4149c 5c .cfa: sp 0 +
STACK CFI 414a4 .cfa: sp 32 +
STACK CFI 414ac .cfa: x29 32 + x19: .cfa -8 + ^ x20: .cfa -16 + ^ .ra: .cfa -24 + ^ x29: .cfa -32 + ^
STACK CFI 414e8 .cfa: sp 32 +
STACK CFI 414f0 .cfa: sp 0 +
STACK CFI INIT 414f8 50 .cfa: sp 0 +
STACK CFI 41500 .cfa: sp 32 +
STACK CFI 41508 .cfa: x29 32 + x19: .cfa -8 + ^ x20: .cfa -16 + ^ .ra: .cfa -24 + ^ x29: .cfa -32 + ^
STACK CFI 41538 .cfa: sp 32 +
STACK CFI 41540 .cfa: sp 0 +
STACK CFI INIT 41548 50 .cfa: sp 0 +
STACK CFI 41550 .cfa: sp 32 +
STACK CFI 41558 .cfa: x29 32 + x19: .cfa -8 + ^ x20: .cfa -16 + ^ .ra: .cfa -24 + ^ x29: .cfa -32 + ^
STACK CFI 41588 .cfa: sp 32 +
STACK CFI 41590 .cfa: sp 0 +
STACK CFI INIT 41598 48 .cfa: sp 0 +
STACK CFI 415a0 .cfa: sp 32 +
STACK CFI 415a8 .cfa: x29 32 + x19: .cfa -16 + ^ .ra: .cfa -24 + ^ x29: .cfa -32 + ^
STACK CFI 415d0 .cfa: sp 32 +
STACK CFI 415d8 .cfa: sp 0 +
STACK CFI INIT 41794 d8 .cfa: sp 0 +
STACK CFI 41798 .cfa: sp 32 +
STACK CFI 417a0 .cfa: x29 32 + x19: .cfa -8 + ^ x20: .cfa -16 + ^ .ra: .cfa -24 + ^ x29: .cfa -32 + ^
STACK CFI 41860 .cfa: sp 32 +
STACK CFI 41868 .cfa: sp 0 +
STACK CFI INIT 41870 30 .cfa: sp 0 +
STACK CFI INIT 418a0 98 .cfa: sp 0 +
STACK CFI INIT 41938 59c .cfa: sp 0 +
STACK CFI INIT 41ed4 8c .cfa: sp 0 +
STACK CFI INIT 41f60 30 .cfa: sp 0 +
STACK CFI INIT 4217c 1b8 .cfa: sp 0 +
STACK CFI 42180 .cfa: sp 112 +
STACK CFI 4219c .cfa: x29 96 + x19: .cfa -8 + ^ x20: .cfa -16 + ^ x21: .cfa -24 + ^ x22: .cfa -32 + ^ x23: .cfa -40 + ^ x24: .cfa -48 + ^ x25: .cfa -56 + ^ x26: .cfa -64 + ^ x27: .cfa -72 + ^ x28: .cfa -80 + ^ .ra: .cfa -88 + ^ x29: .cfa -96 + ^
STACK CFI 42310 .cfa: sp 112 +
STACK CFI 4232c .cfa: sp 0 +
STACK CFI 42330 .cfa: x29 96 +
STACK CFI INIT 42334 288 .cfa: sp 0 +
STACK CFI 42338 .cfa: sp 160 +
STACK CFI 4235c .cfa: x29 96 + x19: .cfa -8 + ^ x20: .cfa -16 + ^ x21: .cfa -24 + ^ x22: .cfa -32 + ^ x23: .cfa -40 + ^ x24: .cfa -48 + ^ x25: .cfa -56 + ^ x26: .cfa -64 + ^ x27: .cfa -72 + ^ x28: .cfa -80 + ^ .ra: .cfa -88 + ^ x29: .cfa -96 + ^ v8: .cfa -104 + ^ v9: .cfa -112 + ^ v10: .cfa -128 + ^
STACK CFI 42590 .cfa: sp 160 +
STACK CFI 425b4 .cfa: sp 0 +
STACK CFI 425b8 .cfa: x29 96 +
STACK CFI INIT 425bc 1a8 .cfa: sp 0 +
STACK CFI 425c0 .cfa: sp 112 +
STACK CFI 425dc .cfa: x29 64 + x19: .cfa -8 + ^ x20: .cfa -16 + ^ x21: .cfa -24 + ^ x22: .cfa -32 + ^ x23: .cfa -40 + ^ x24: .cfa -48 + ^ .ra: .cfa -56 + ^ x29: .cfa -64 + ^ v8: .cfa -72 + ^ v9: .cfa -80 + ^ v10: .cfa -96 + ^
STACK CFI 42740 .cfa: sp 112 +
STACK CFI 4275c .cfa: sp 0 +
STACK CFI 42760 .cfa: x29 64 +
STACK CFI INIT 42cc8 1cc .cfa: sp 0 +
STACK CFI 42ccc .cfa: sp 96 +
STACK CFI 42ce4 .cfa: x29 64 + x19: .cfa -8 + ^ x20: .cfa -16 + ^ x21: .cfa -24 + ^ x22: .cfa -32 + ^ x23: .cfa -40 + ^ x24: .cfa -48 + ^ .ra: .cfa -56 + ^ x29: .cfa -64 + ^ v8: .cfa -80 + ^
STACK CFI 42e74 .cfa: sp 96 +
STACK CFI 42e8c .cfa: sp 0 +
STACK CFI 42e90 .cfa: x29 64 +
STACK CFI INIT 43250 50 .cfa: sp 0 +
STACK CFI 43254 .cfa: sp 32 +
STACK CFI 4325c .cfa: x29 32 + x19: .cfa -16 + ^ .ra: .cfa -24 + ^ x29: .cfa -32 + ^
STACK CFI 43274 .cfa: sp 32 +
STACK CFI 4327c .cfa: sp 0 +
STACK CFI 43280 .cfa: x29 32 +
STACK CFI 43294 .cfa: sp 32 +
STACK CFI 4329c .cfa: sp 0 +
STACK CFI INIT 43f30 4 .cfa: sp 0 +
STACK CFI INIT 43f34 14 .cfa: sp 0 +
STACK CFI INIT 440e0 4 .cfa: sp 0 +
STACK CFI INIT 440e4 4 .cfa: sp 0 +
STACK CFI INIT 440e8 38 .cfa: sp 0 +
STACK CFI 440ec .cfa: sp 32 +
STACK CFI 440f4 .cfa: x29 32 + x19: .cfa -16 + ^ .ra: .cfa -24 + ^ x29: .cfa -32 + ^
STACK CFI 44114 .cfa: sp 32 +
STACK CFI 4411c .cfa: sp 0 +
STACK CFI INIT 44120 18 .cfa: sp 0 +
STACK CFI INIT 44138 4 .cfa: sp 0 +
STACK CFI INIT 4413c 4 .cfa: sp 0 +
STACK CFI INIT 44414 1c .cfa: sp 0 +
STACK CFI INIT 44430 c .cfa: sp 0 +
STACK CFI INIT 4443c 14 .cfa: sp 0 +
STACK CFI INIT 44450 14 .cfa: sp 0 +
STACK CFI INIT 44464 104 .cfa: sp 0 +
STACK CFI 44468 .cfa: sp 64 +
STACK CFI 44478 .cfa: x29 64 + x19: .cfa -8 + ^ x20: .cfa -16 + ^ x21: .cfa -24 + ^ x22: .cfa -32 + ^ x23: .cfa -48 + ^ .ra: .cfa -56 + ^ x29: .cfa -64 + ^
STACK CFI 444d4 .cfa: sp 64 +
STACK CFI 444e4 .cfa: sp 0 +
STACK CFI 444e8 .cfa: x29 64 +
STACK CFI 44504 .cfa: sp 64 +
STACK CFI 44514 .cfa: sp 0 +
STACK CFI 44518 .cfa: x29 64 +
STACK CFI 44554 .cfa: sp 64 +
STACK CFI 44564 .cfa: sp 0 +
STACK CFI INIT 44568 50 .cfa: sp 0 +
STACK CFI 4456c .cfa: sp 32 +
STACK CFI 44574 .cfa: x29 32 + x19: .cfa -16 + ^ .ra: .cfa -24 + ^ x29: .cfa -32 + ^
STACK CFI 4458c .cfa: sp 32 +
STACK CFI 44594 .cfa: sp 0 +
STACK CFI 44598 .cfa: x29 32 +
STACK CFI 445ac .cfa: sp 32 +
STACK CFI 445b4 .cfa: sp 0 +
STACK CFI INIT 45bfc 2c .cfa: sp 0 +
STACK CFI 45c00 .cfa: sp 32 +
STACK CFI 45c08 .cfa: x29 32 + x19: .cfa -16 + ^ .ra: .cfa -24 + ^ x29: .cfa -32 + ^
STACK CFI 45c1c .cfa: sp 32 +
STACK CFI 45c24 .cfa: sp 0 +
STACK CFI INIT 46ac4 50 .cfa: sp 0 +
STACK CFI 46ac8 .cfa: sp 32 +
STACK CFI 46ad0 .cfa: x29 32 + x19: .cfa -16 + ^ .ra: .cfa -24 + ^ x29: .cfa -32 + ^
STACK CFI 46ae8 .cfa: sp 32 +
STACK CFI 46af0 .cfa: sp 0 +
STACK CFI 46af4 .cfa: x29 32 +
STACK CFI 46b08 .cfa: sp 32 +
STACK CFI 46b10 .cfa: sp 0 +
STACK CFI INIT 47678 88 .cfa: sp 0 +
STACK CFI 4767c .cfa: sp 48 +
STACK CFI 47688 .cfa: x29 48 + x19: .cfa -8 + ^ x20: .cfa -16 + ^ x21: .cfa -32 + ^ .ra: .cfa -40 + ^ x29: .cfa -48 + ^
STACK CFI 476a8 .cfa: sp 48 +
STACK CFI 476b4 .cfa: sp 0 +
STACK CFI 476b8 .cfa: x29 48 +
STACK CFI 476e0 .cfa: sp 48 +
STACK CFI 476ec .cfa: sp 0 +
STACK CFI 476f0 .cfa: sp 48 +
STACK CFI 476fc .cfa: sp 0 +
STACK CFI INIT 47700 30 .cfa: sp 0 +
STACK CFI 47704 .cfa: sp 32 +
STACK CFI 4770c .cfa: x29 32 + x19: .cfa -16 + ^ .ra: .cfa -24 + ^ x29: .cfa -32 + ^
STACK CFI 47724 .cfa: sp 32 +
STACK CFI 4772c .cfa: sp 0 +
STACK CFI INIT 47964 168 .cfa: sp 0 +
STACK CFI 47968 .cfa: sp 48 +
STACK CFI 47974 .cfa: x29 48 + x19: .cfa -8 + ^ x20: .cfa -16 + ^ x21: .cfa -32 + ^ .ra: .cfa -40 + ^ x29: .cfa -48 + ^
STACK CFI 47abc .cfa: sp 48 +
STACK CFI 47ac8 .cfa: sp 0 +
STACK CFI INIT 47acc 28 .cfa: sp 0 +
STACK CFI 47ad0 .cfa: sp 32 +
STACK CFI 47ad8 .cfa: x29 32 + x19: .cfa -16 + ^ .ra: .cfa -24 + ^ x29: .cfa -32 + ^
STACK CFI 47ae8 .cfa: sp 32 +
STACK CFI 47af0 .cfa: sp 0 +
STACK CFI INIT 47af4 8 .cfa: sp 0 +
STACK CFI INIT 47afc 24 .cfa: sp 0 +
STACK CFI 47b00 .cfa: sp 32 +
STACK CFI 47b08 .cfa: x29 32 + x19: .cfa -16 + ^ .ra: .cfa -24 + ^ x29: .cfa -32 + ^
STACK CFI 47b14 .cfa: sp 32 +
STACK CFI 47b1c .cfa: sp 0 +
STACK CFI INIT 47b20 4 .cfa: sp 0 +
STACK CFI INIT 47b24 8 .cfa: sp 0 +
STACK CFI INIT 47b2c 8 .cfa: sp 0 +
STACK CFI INIT 47b34 28 .cfa: sp 0 +
STACK CFI 47b38 .cfa: sp 32 +
STACK CFI 47b40 .cfa: x29 32 + x19: .cfa -16 + ^ .ra: .cfa -24 + ^ x29: .cfa -32 + ^
STACK CFI 47b50 .cfa: sp 32 +
STACK CFI 47b58 .cfa: sp 0 +
STACK CFI INIT 47b5c 4 .cfa: sp 0 +
STACK CFI INIT 47b60 4 .cfa: sp 0 +
STACK CFI INIT 47b64 4 .cfa: sp 0 +
STACK CFI INIT 47b68 4 .cfa: sp 0 +
STACK CFI INIT 47b6c 4 .cfa: sp 0 +
STACK CFI INIT 47b70 8 .cfa: sp 0 +
STACK CFI INIT 47b78 128 .cfa: sp 0 +
STACK CFI 47b7c .cfa: sp 80 +
STACK CFI 47b90 .cfa: x29 80 + x19: .cfa -8 + ^ x20: .cfa -16 + ^ x21: .cfa -24 + ^ x22: .cfa -32 + ^ x23: .cfa -40 + ^ x24: .cfa -48 + ^ x25: .cfa -64 + ^ .ra: .cfa -72 + ^ x29: .cfa -80 + ^
STACK CFI 47c80 .cfa: sp 80 +
STACK CFI 47c94 .cfa: sp 0 +
STACK CFI 47c98 .cfa: x29 80 +
STACK CFI INIT 47ca0 9c .cfa: sp 0 +
STACK CFI 47ca4 .cfa: sp 32 +
STACK CFI 47cac .cfa: x29 32 + x19: .cfa -8 + ^ x20: .cfa -16 + ^ .ra: .cfa -24 + ^ x29: .cfa -32 + ^
STACK CFI 47d30 .cfa: sp 32 +
STACK CFI 47d38 .cfa: sp 0 +
STACK CFI INIT 47f58 4 .cfa: sp 0 +
STACK CFI INIT 48128 a4 .cfa: sp 0 +
STACK CFI 4812c .cfa: sp 32 +
STACK CFI 48134 .cfa: x29 32 + x19: .cfa -8 + ^ x20: .cfa -16 + ^ .ra: .cfa -24 + ^ x29: .cfa -32 + ^
STACK CFI 481c0 .cfa: sp 32 +
STACK CFI 481c8 .cfa: sp 0 +
STACK CFI INIT 481cc 50 .cfa: sp 0 +
STACK CFI 481d0 .cfa: sp 32 +
STACK CFI 481d8 .cfa: x29 32 + x19: .cfa -16 + ^ .ra: .cfa -24 + ^ x29: .cfa -32 + ^
STACK CFI 481f0 .cfa: sp 32 +
STACK CFI 481f8 .cfa: sp 0 +
STACK CFI 481fc .cfa: x29 32 +
STACK CFI 48210 .cfa: sp 32 +
STACK CFI 48218 .cfa: sp 0 +
STACK CFI INIT 4821c 50 .cfa: sp 0 +
STACK CFI 48220 .cfa: sp 32 +
STACK CFI 48228 .cfa: x29 32 + x19: .cfa -16 + ^ .ra: .cfa -24 + ^ x29: .cfa -32 + ^
STACK CFI 48240 .cfa: sp 32 +
STACK CFI 48248 .cfa: sp 0 +
STACK CFI 4824c .cfa: x29 32 +
STACK CFI 48260 .cfa: sp 32 +
STACK CFI 48268 .cfa: sp 0 +
STACK CFI INIT 4826c 5c .cfa: sp 0 +
STACK CFI 48270 .cfa: sp 32 +
STACK CFI 48278 .cfa: x29 32 + x19: .cfa -16 + ^ .ra: .cfa -24 + ^ x29: .cfa -32 + ^
STACK CFI 4829c .cfa: sp 32 +
STACK CFI 482a4 .cfa: sp 0 +
STACK CFI 482a8 .cfa: x29 32 +
STACK CFI 482bc .cfa: sp 32 +
STACK CFI 482c4 .cfa: sp 0 +
STACK CFI INIT 482c8 6c .cfa: sp 0 +
STACK CFI 482cc .cfa: sp 32 +
STACK CFI 482d4 .cfa: x29 32 + x19: .cfa -8 + ^ x20: .cfa -16 + ^ .ra: .cfa -24 + ^ x29: .cfa -32 + ^
STACK CFI 48300 .cfa: sp 32 +
STACK CFI 48308 .cfa: sp 0 +
STACK CFI 4830c .cfa: x29 32 +
STACK CFI 48328 .cfa: sp 32 +
STACK CFI 48330 .cfa: sp 0 +
STACK CFI INIT 48334 58 .cfa: sp 0 +
STACK CFI 48338 .cfa: sp 32 +
STACK CFI 48340 .cfa: x29 32 + x19: .cfa -8 + ^ x20: .cfa -16 + ^ .ra: .cfa -24 + ^ x29: .cfa -32 + ^
STACK CFI 48380 .cfa: sp 32 +
STACK CFI 48388 .cfa: sp 0 +
STACK CFI INIT 4838c 4c .cfa: sp 0 +
STACK CFI 48390 .cfa: sp 32 +
STACK CFI 48398 .cfa: x29 32 + x19: .cfa -8 + ^ x20: .cfa -16 + ^ .ra: .cfa -24 + ^ x29: .cfa -32 + ^
STACK CFI 483cc .cfa: sp 32 +
STACK CFI 483d4 .cfa: sp 0 +
STACK CFI INIT 483d8 50 .cfa: sp 0 +
STACK CFI 483dc .cfa: sp 32 +
STACK CFI 483e4 .cfa: x29 32 + x19: .cfa -16 + ^ .ra: .cfa -24 + ^ x29: .cfa -32 + ^
STACK CFI 483fc .cfa: sp 32 +
STACK CFI 48404 .cfa: sp 0 +
STACK CFI 48408 .cfa: x29 32 +
STACK CFI 4841c .cfa: sp 32 +
STACK CFI 48424 .cfa: sp 0 +
STACK CFI INIT 48428 60 .cfa: sp 0 +
STACK CFI 4842c .cfa: sp 32 +
STACK CFI 48434 .cfa: x29 32 + x19: .cfa -8 + ^ x20: .cfa -16 + ^ .ra: .cfa -24 + ^ x29: .cfa -32 + ^
STACK CFI 48454 .cfa: sp 32 +
STACK CFI 4845c .cfa: sp 0 +
STACK CFI 48460 .cfa: x29 32 +
STACK CFI 4847c .cfa: sp 32 +
STACK CFI 48484 .cfa: sp 0 +
STACK CFI INIT 48488 8 .cfa: sp 0 +
STACK CFI INIT 48490 1c .cfa: sp 0 +
STACK CFI INIT 484ac c .cfa: sp 0 +
STACK CFI INIT 48688 60 .cfa: sp 0 +
STACK CFI 4868c .cfa: sp 32 +
STACK CFI 48694 .cfa: x29 32 + x19: .cfa -8 + ^ x20: .cfa -16 + ^ .ra: .cfa -24 + ^ x29: .cfa -32 + ^
STACK CFI 486b4 .cfa: sp 32 +
STACK CFI 486bc .cfa: sp 0 +
STACK CFI 486c0 .cfa: x29 32 +
STACK CFI 486dc .cfa: sp 32 +
STACK CFI 486e4 .cfa: sp 0 +
STACK CFI INIT 486e8 70 .cfa: sp 0 +
STACK CFI 486ec .cfa: sp 32 +
STACK CFI 486f4 .cfa: x29 32 + x19: .cfa -8 + ^ x20: .cfa -16 + ^ .ra: .cfa -24 + ^ x29: .cfa -32 + ^
STACK CFI 4871c .cfa: sp 32 +
STACK CFI 48724 .cfa: sp 0 +
STACK CFI 48728 .cfa: x29 32 +
STACK CFI 4874c .cfa: sp 32 +
STACK CFI 48754 .cfa: sp 0 +
STACK CFI INIT 48758 5c .cfa: sp 0 +
STACK CFI 4875c .cfa: sp 32 +
STACK CFI 48764 .cfa: x29 32 + x19: .cfa -16 + ^ .ra: .cfa -24 + ^ x29: .cfa -32 + ^
STACK CFI 48788 .cfa: sp 32 +
STACK CFI 48790 .cfa: sp 0 +
STACK CFI 48794 .cfa: x29 32 +
STACK CFI 487a8 .cfa: sp 32 +
STACK CFI 487b0 .cfa: sp 0 +
STACK CFI INIT 487b4 6c .cfa: sp 0 +
STACK CFI 487b8 .cfa: sp 32 +
STACK CFI 487c0 .cfa: x29 32 + x19: .cfa -8 + ^ x20: .cfa -16 + ^ .ra: .cfa -24 + ^ x29: .cfa -32 + ^
STACK CFI 487ec .cfa: sp 32 +
STACK CFI 487f4 .cfa: sp 0 +
STACK CFI 487f8 .cfa: x29 32 +
STACK CFI 48814 .cfa: sp 32 +
STACK CFI 4881c .cfa: sp 0 +
STACK CFI INIT 48820 58 .cfa: sp 0 +
STACK CFI 48824 .cfa: sp 32 +
STACK CFI 4882c .cfa: x29 32 + x19: .cfa -8 + ^ x20: .cfa -16 + ^ .ra: .cfa -24 + ^ x29: .cfa -32 + ^
STACK CFI 4886c .cfa: sp 32 +
STACK CFI 48874 .cfa: sp 0 +
STACK CFI INIT 48878 4c .cfa: sp 0 +
STACK CFI 4887c .cfa: sp 32 +
STACK CFI 48884 .cfa: x29 32 + x19: .cfa -8 + ^ x20: .cfa -16 + ^ .ra: .cfa -24 + ^ x29: .cfa -32 + ^
STACK CFI 488b8 .cfa: sp 32 +
STACK CFI 488c0 .cfa: sp 0 +
STACK CFI INIT 488c4 50 .cfa: sp 0 +
STACK CFI 488c8 .cfa: sp 32 +
STACK CFI 488d0 .cfa: x29 32 + x19: .cfa -16 + ^ .ra: .cfa -24 + ^ x29: .cfa -32 + ^
STACK CFI 488e8 .cfa: sp 32 +
STACK CFI 488f0 .cfa: sp 0 +
STACK CFI 488f4 .cfa: x29 32 +
STACK CFI 48908 .cfa: sp 32 +
STACK CFI 48910 .cfa: sp 0 +
STACK CFI INIT 48914 60 .cfa: sp 0 +
STACK CFI 48918 .cfa: sp 32 +
STACK CFI 48920 .cfa: x29 32 + x19: .cfa -8 + ^ x20: .cfa -16 + ^ .ra: .cfa -24 + ^ x29: .cfa -32 + ^
STACK CFI 48940 .cfa: sp 32 +
STACK CFI 48948 .cfa: sp 0 +
STACK CFI 4894c .cfa: x29 32 +
STACK CFI 48968 .cfa: sp 32 +
STACK CFI 48970 .cfa: sp 0 +
STACK CFI INIT 48974 8 .cfa: sp 0 +
STACK CFI INIT 4897c 1c .cfa: sp 0 +
STACK CFI INIT 48998 c .cfa: sp 0 +
STACK CFI INIT 48b68 34 .cfa: sp 0 +
STACK CFI 48b6c .cfa: sp 16 +
STACK CFI 48b70 .cfa: x29 16 + .ra: .cfa -8 + ^ x29: .cfa -16 + ^
STACK CFI INIT 48b9c 24 .cfa: sp 0 +
STACK CFI 48ba0 .cfa: sp 32 +
STACK CFI 48ba8 .cfa: x29 32 + x19: .cfa -16 + ^ .ra: .cfa -24 + ^ x29: .cfa -32 + ^
STACK CFI 48bb4 .cfa: sp 32 +
STACK CFI 48bbc .cfa: sp 0 +
STACK CFI INIT 48bc0 4 .cfa: sp 0 +
STACK CFI INIT 48bc4 34 .cfa: sp 0 +
STACK CFI 48bc8 .cfa: sp 32 +
STACK CFI 48bd0 .cfa: x29 32 + x19: .cfa -16 + ^ .ra: .cfa -24 + ^ x29: .cfa -32 + ^
STACK CFI 48bec .cfa: sp 32 +
STACK CFI 48bf4 .cfa: sp 0 +
STACK CFI INIT 48bf8 14 .cfa: sp 0 +
STACK CFI INIT 48c0c 4 .cfa: sp 0 +
STACK CFI INIT 48c10 4 .cfa: sp 0 +
STACK CFI INIT 48d5c 1c .cfa: sp 0 +
STACK CFI INIT 48d78 c .cfa: sp 0 +
STACK CFI INIT 48df8 8 .cfa: sp 0 +
STACK CFI INIT 48e00 14 .cfa: sp 0 +
STACK CFI INIT 48e14 4 .cfa: sp 0 +
STACK CFI INIT 48e18 34 .cfa: sp 0 +
STACK CFI 48e1c .cfa: sp 32 +
STACK CFI 48e24 .cfa: x29 32 + x19: .cfa -16 + ^ .ra: .cfa -24 + ^ x29: .cfa -32 + ^
STACK CFI 48e40 .cfa: sp 32 +
STACK CFI 48e48 .cfa: sp 0 +
STACK CFI INIT 48e4c 14 .cfa: sp 0 +
STACK CFI INIT 48e60 4 .cfa: sp 0 +
STACK CFI INIT 48e64 4 .cfa: sp 0 +
STACK CFI INIT 48fb0 1c .cfa: sp 0 +
STACK CFI INIT 48fcc c .cfa: sp 0 +
STACK CFI INIT 48fd8 5c .cfa: sp 0 +
STACK CFI 48fdc .cfa: sp 16 +
STACK CFI 48fe0 .cfa: x29 16 + .ra: .cfa -8 + ^ x29: .cfa -16 + ^
STACK CFI 49024 .cfa: sp 16 +
STACK CFI 49028 .cfa: sp 0 +
STACK CFI 4902c .cfa: sp 16 +
STACK CFI 49030 .cfa: sp 0 +
STACK CFI INIT 492b0 5c .cfa: sp 0 +
STACK CFI 492b4 .cfa: sp 16 +
STACK CFI 492b8 .cfa: x29 16 + .ra: .cfa -8 + ^ x29: .cfa -16 + ^
STACK CFI 492fc .cfa: sp 16 +
STACK CFI 49300 .cfa: sp 0 +
STACK CFI 49304 .cfa: sp 16 +
STACK CFI 49308 .cfa: sp 0 +
STACK CFI INIT 4930c 5c .cfa: sp 0 +
STACK CFI 49310 .cfa: sp 16 +
STACK CFI 49314 .cfa: x29 16 + .ra: .cfa -8 + ^ x29: .cfa -16 + ^
STACK CFI 49358 .cfa: sp 16 +
STACK CFI 4935c .cfa: sp 0 +
STACK CFI 49360 .cfa: sp 16 +
STACK CFI 49364 .cfa: sp 0 +
STACK CFI INIT 49ba8 5c .cfa: sp 0 +
STACK CFI 49bac .cfa: sp 16 +
STACK CFI 49bb0 .cfa: x29 16 + .ra: .cfa -8 + ^ x29: .cfa -16 + ^
STACK CFI 49bf4 .cfa: sp 16 +
STACK CFI 49bf8 .cfa: sp 0 +
STACK CFI 49bfc .cfa: sp 16 +
STACK CFI 49c00 .cfa: sp 0 +
STACK CFI INIT 49c04 5c .cfa: sp 0 +
STACK CFI 49c08 .cfa: sp 16 +
STACK CFI 49c0c .cfa: x29 16 + .ra: .cfa -8 + ^ x29: .cfa -16 + ^
STACK CFI 49c50 .cfa: sp 16 +
STACK CFI 49c54 .cfa: sp 0 +
STACK CFI 49c58 .cfa: sp 16 +
STACK CFI 49c5c .cfa: sp 0 +
STACK CFI INIT 49c60 5c .cfa: sp 0 +
STACK CFI 49c64 .cfa: sp 16 +
STACK CFI 49c68 .cfa: x29 16 + .ra: .cfa -8 + ^ x29: .cfa -16 + ^
STACK CFI 49cac .cfa: sp 16 +
STACK CFI 49cb0 .cfa: sp 0 +
STACK CFI 49cb4 .cfa: sp 16 +
STACK CFI 49cb8 .cfa: sp 0 +
STACK CFI INIT 49d70 5c .cfa: sp 0 +
STACK CFI 49d74 .cfa: sp 16 +
STACK CFI 49d78 .cfa: x29 16 + .ra: .cfa -8 + ^ x29: .cfa -16 + ^
STACK CFI 49dbc .cfa: sp 16 +
STACK CFI 49dc0 .cfa: sp 0 +
STACK CFI 49dc4 .cfa: sp 16 +
STACK CFI 49dc8 .cfa: sp 0 +
STACK CFI INIT 4af70 2c .cfa: sp 0 +
STACK CFI 4af74 .cfa: sp 32 +
STACK CFI 4af7c .cfa: x29 32 + x19: .cfa -16 + ^ .ra: .cfa -24 + ^ x29: .cfa -32 + ^
STACK CFI 4af90 .cfa: sp 32 +
STACK CFI 4af98 .cfa: sp 0 +
STACK CFI INIT 4b3c4 50 .cfa: sp 0 +
STACK CFI 4b3c8 .cfa: sp 32 +
STACK CFI 4b3d0 .cfa: x29 32 + x19: .cfa -16 + ^ .ra: .cfa -24 + ^ x29: .cfa -32 + ^
STACK CFI 4b408 .cfa: sp 32 +
STACK CFI 4b410 .cfa: sp 0 +
STACK CFI INIT 4b518 28 .cfa: sp 0 +
STACK CFI 4b51c .cfa: sp 32 +
STACK CFI 4b524 .cfa: x29 32 + x19: .cfa -16 + ^ .ra: .cfa -24 + ^ x29: .cfa -32 + ^
STACK CFI 4b534 .cfa: sp 32 +
STACK CFI 4b53c .cfa: sp 0 +
STACK CFI INIT 4b540 24 .cfa: sp 0 +
STACK CFI 4b544 .cfa: sp 32 +
STACK CFI 4b54c .cfa: x29 32 + x19: .cfa -16 + ^ .ra: .cfa -24 + ^ x29: .cfa -32 + ^
STACK CFI 4b558 .cfa: sp 32 +
STACK CFI 4b560 .cfa: sp 0 +
STACK CFI INIT 4b564 8 .cfa: sp 0 +
STACK CFI INIT 4b56c 28 .cfa: sp 0 +
STACK CFI 4b570 .cfa: sp 32 +
STACK CFI 4b578 .cfa: x29 32 + x19: .cfa -16 + ^ .ra: .cfa -24 + ^ x29: .cfa -32 + ^
STACK CFI 4b588 .cfa: sp 32 +
STACK CFI 4b590 .cfa: sp 0 +
STACK CFI INIT 4c1fc 2c .cfa: sp 0 +
STACK CFI 4c200 .cfa: sp 32 +
STACK CFI 4c208 .cfa: x29 32 + x19: .cfa -16 + ^ .ra: .cfa -24 + ^ x29: .cfa -32 + ^
STACK CFI 4c21c .cfa: sp 32 +
STACK CFI 4c224 .cfa: sp 0 +
STACK CFI INIT 4c320 28 .cfa: sp 0 +
STACK CFI 4c324 .cfa: sp 32 +
STACK CFI 4c32c .cfa: x29 32 + x19: .cfa -16 + ^ .ra: .cfa -24 + ^ x29: .cfa -32 + ^
STACK CFI 4c33c .cfa: sp 32 +
STACK CFI 4c344 .cfa: sp 0 +
STACK CFI INIT 4c348 24 .cfa: sp 0 +
STACK CFI 4c34c .cfa: sp 32 +
STACK CFI 4c354 .cfa: x29 32 + x19: .cfa -16 + ^ .ra: .cfa -24 + ^ x29: .cfa -32 + ^
STACK CFI 4c360 .cfa: sp 32 +
STACK CFI 4c368 .cfa: sp 0 +
STACK CFI INIT 4c36c 8 .cfa: sp 0 +
STACK CFI INIT 4c374 28 .cfa: sp 0 +
STACK CFI 4c378 .cfa: sp 32 +
STACK CFI 4c380 .cfa: x29 32 + x19: .cfa -16 + ^ .ra: .cfa -24 + ^ x29: .cfa -32 + ^
STACK CFI 4c390 .cfa: sp 32 +
STACK CFI 4c398 .cfa: sp 0 +
STACK CFI INIT 4c450 9c .cfa: sp 0 +
STACK CFI 4c454 .cfa: sp 48 +
STACK CFI 4c460 .cfa: x29 48 + x19: .cfa -8 + ^ x20: .cfa -16 + ^ x21: .cfa -24 + ^ x22: .cfa -32 + ^ .ra: .cfa -40 + ^ x29: .cfa -48 + ^
STACK CFI 4c494 .cfa: sp 48 +
STACK CFI 4c4a0 .cfa: sp 0 +
STACK CFI 4c4a4 .cfa: x29 48 +
STACK CFI 4c4d4 .cfa: sp 48 +
STACK CFI 4c4e0 .cfa: sp 0 +
STACK CFI 4c4e4 .cfa: x29 48 +
STACK CFI INIT 4ce5c 2c .cfa: sp 0 +
STACK CFI 4ce60 .cfa: sp 32 +
STACK CFI 4ce68 .cfa: x29 32 + x19: .cfa -16 + ^ .ra: .cfa -24 + ^ x29: .cfa -32 + ^
STACK CFI 4ce7c .cfa: sp 32 +
STACK CFI 4ce84 .cfa: sp 0 +
STACK CFI INIT 4dc28 40 .cfa: sp 0 +
STACK CFI 4dc2c .cfa: sp 32 +
STACK CFI 4dc34 .cfa: x29 32 + x19: .cfa -16 + ^ .ra: .cfa -24 + ^ x29: .cfa -32 + ^
STACK CFI 4dc5c .cfa: sp 32 +
STACK CFI 4dc64 .cfa: sp 0 +
STACK CFI INIT 4def8 a4 .cfa: sp 0 +
STACK CFI 4defc .cfa: sp 32 +
STACK CFI 4df04 .cfa: x29 32 + x19: .cfa -8 + ^ x20: .cfa -16 + ^ .ra: .cfa -24 + ^ x29: .cfa -32 + ^
STACK CFI 4df90 .cfa: sp 32 +
STACK CFI 4df98 .cfa: sp 0 +
STACK CFI INIT 4df9c 28 .cfa: sp 0 +
STACK CFI 4dfa0 .cfa: sp 32 +
STACK CFI 4dfa8 .cfa: x29 32 + x19: .cfa -16 + ^ .ra: .cfa -24 + ^ x29: .cfa -32 + ^
STACK CFI 4dfb8 .cfa: sp 32 +
STACK CFI 4dfc0 .cfa: sp 0 +
STACK CFI INIT 4e3a8 ac .cfa: sp 0 +
STACK CFI 4e3ac .cfa: sp 32 +
STACK CFI 4e3b4 .cfa: x29 32 + x19: .cfa -8 + ^ x20: .cfa -16 + ^ .ra: .cfa -24 + ^ x29: .cfa -32 + ^
STACK CFI 4e448 .cfa: sp 32 +
STACK CFI 4e450 .cfa: sp 0 +
STACK CFI INIT 4e454 a8 .cfa: sp 0 +
STACK CFI 4e458 .cfa: sp 32 +
STACK CFI 4e460 .cfa: x29 32 + x19: .cfa -8 + ^ x20: .cfa -16 + ^ .ra: .cfa -24 + ^ x29: .cfa -32 + ^
STACK CFI 4e4f0 .cfa: sp 32 +
STACK CFI 4e4f8 .cfa: sp 0 +
STACK CFI INIT 4e4fc b0 .cfa: sp 0 +
STACK CFI 4e500 .cfa: sp 32 +
STACK CFI 4e508 .cfa: x29 32 + x19: .cfa -8 + ^ x20: .cfa -16 + ^ .ra: .cfa -24 + ^ x29: .cfa -32 + ^
STACK CFI 4e5a0 .cfa: sp 32 +
STACK CFI 4e5a8 .cfa: sp 0 +
STACK CFI INIT 4e694 4 .cfa: sp 0 +
STACK CFI INIT 4e698 14 .cfa: sp 0 +
STACK CFI INIT 4e6ac 4 .cfa: sp 0 +
STACK CFI INIT 4e6b0 34 .cfa: sp 0 +
STACK CFI 4e6b4 .cfa: sp 32 +
STACK CFI 4e6bc .cfa: x29 32 + x19: .cfa -16 + ^ .ra: .cfa -24 + ^ x29: .cfa -32 + ^
STACK CFI 4e6d8 .cfa: sp 32 +
STACK CFI 4e6e0 .cfa: sp 0 +
STACK CFI INIT 4e6e4 14 .cfa: sp 0 +
STACK CFI INIT 4e6f8 4 .cfa: sp 0 +
STACK CFI INIT 4e6fc 4 .cfa: sp 0 +
STACK CFI INIT 4f660 1c .cfa: sp 0 +
STACK CFI INIT 4f67c c .cfa: sp 0 +
STACK CFI INIT 4f688 44 .cfa: sp 0 +
STACK CFI 4f68c .cfa: sp 32 +
STACK CFI 4f694 .cfa: x29 32 + x19: .cfa -16 + ^ .ra: .cfa -24 + ^ x29: .cfa -32 + ^
STACK CFI 4f6b0 .cfa: sp 32 +
STACK CFI 4f6b8 .cfa: sp 0 +
STACK CFI 4f6bc .cfa: x29 32 +
STACK CFI 4f6c0 .cfa: sp 32 +
STACK CFI 4f6c8 .cfa: sp 0 +
STACK CFI INIT 4f740 84 .cfa: sp 0 +
STACK CFI 4f744 .cfa: sp 48 +
STACK CFI 4f750 .cfa: x29 48 + x19: .cfa -8 + ^ x20: .cfa -16 + ^ x21: .cfa -32 + ^ .ra: .cfa -40 + ^ x29: .cfa -48 + ^
STACK CFI 4f79c .cfa: sp 48 +
STACK CFI 4f7a8 .cfa: sp 0 +
STACK CFI 4f7ac .cfa: x29 48 +
STACK CFI 4f7b4 .cfa: sp 48 +
STACK CFI 4f7c0 .cfa: sp 0 +
STACK CFI INIT 4f7c4 5c .cfa: sp 0 +
STACK CFI 4f7c8 .cfa: sp 32 +
STACK CFI 4f7d0 .cfa: x29 32 + x19: .cfa -16 + ^ .ra: .cfa -24 + ^ x29: .cfa -32 + ^
STACK CFI 4f808 .cfa: sp 32 +
STACK CFI 4f810 .cfa: sp 0 +
STACK CFI 4f814 .cfa: sp 32 +
STACK CFI 4f81c .cfa: sp 0 +
STACK CFI INIT 4f820 120 .cfa: sp 0 +
STACK CFI 4f824 .cfa: sp 64 +
STACK CFI 4f834 .cfa: x29 64 + x19: .cfa -8 + ^ x20: .cfa -16 + ^ x21: .cfa -24 + ^ x22: .cfa -32 + ^ x23: .cfa -40 + ^ x24: .cfa -48 + ^ .ra: .cfa -56 + ^ x29: .cfa -64 + ^
STACK CFI 4f92c .cfa: sp 64 +
STACK CFI 4f93c .cfa: sp 0 +
STACK CFI INIT 4f940 168 .cfa: sp 0 +
STACK CFI 4f944 .cfa: sp 80 +
STACK CFI 4f958 .cfa: x29 80 + x19: .cfa -8 + ^ x20: .cfa -16 + ^ x21: .cfa -24 + ^ x22: .cfa -32 + ^ x23: .cfa -40 + ^ x24: .cfa -48 + ^ x25: .cfa -56 + ^ x26: .cfa -64 + ^ .ra: .cfa -72 + ^ x29: .cfa -80 + ^
STACK CFI 4fa90 .cfa: sp 80 +
STACK CFI 4faa4 .cfa: sp 0 +
STACK CFI INIT 4faa8 34 .cfa: sp 0 +
STACK CFI 4faac .cfa: sp 32 +
STACK CFI 4fab4 .cfa: x29 32 + x19: .cfa -16 + ^ .ra: .cfa -24 + ^ x29: .cfa -32 + ^
STACK CFI 4fad0 .cfa: sp 32 +
STACK CFI 4fad8 .cfa: sp 0 +
STACK CFI INIT 4fadc 70 .cfa: sp 0 +
STACK CFI 4fae4 .cfa: sp 32 +
STACK CFI 4faec .cfa: x29 32 + x19: .cfa -16 + ^ .ra: .cfa -24 + ^ x29: .cfa -32 + ^
STACK CFI 4fb14 .cfa: sp 32 +
STACK CFI 4fb1c .cfa: sp 0 +
STACK CFI 4fb24 .cfa: x29 32 +
STACK CFI 4fb40 .cfa: sp 32 +
STACK CFI 4fb48 .cfa: sp 0 +
STACK CFI INIT 52084 2c .cfa: sp 0 +
STACK CFI 52088 .cfa: sp 32 +
STACK CFI 52090 .cfa: x29 32 + x19: .cfa -16 + ^ .ra: .cfa -24 + ^ x29: .cfa -32 + ^
STACK CFI 520a4 .cfa: sp 32 +
STACK CFI 520ac .cfa: sp 0 +
STACK CFI INIT 528c0 b8 .cfa: sp 0 +
STACK CFI 528c4 .cfa: sp 32 +
STACK CFI 528cc .cfa: x29 32 + x19: .cfa -16 + ^ .ra: .cfa -24 + ^ x29: .cfa -32 + ^
STACK CFI 5296c .cfa: sp 32 +
STACK CFI 52974 .cfa: sp 0 +
STACK CFI INIT 52978 b8 .cfa: sp 0 +
STACK CFI 5297c .cfa: sp 32 +
STACK CFI 52984 .cfa: x29 32 + x19: .cfa -16 + ^ .ra: .cfa -24 + ^ x29: .cfa -32 + ^
STACK CFI 52a24 .cfa: sp 32 +
STACK CFI 52a2c .cfa: sp 0 +
STACK CFI INIT 52cc4 14 .cfa: sp 0 +
STACK CFI INIT 54268 1bc .cfa: sp 0 +
STACK CFI 5426c .cfa: sp 48 +
STACK CFI 54278 .cfa: x29 48 + x19: .cfa -8 + ^ x20: .cfa -16 + ^ x21: .cfa -32 + ^ .ra: .cfa -40 + ^ x29: .cfa -48 + ^
STACK CFI 54414 .cfa: sp 48 +
STACK CFI 54420 .cfa: sp 0 +
STACK CFI INIT 54d90 24 .cfa: sp 0 +
STACK CFI 54d94 .cfa: sp 32 +
STACK CFI 54d9c .cfa: x29 32 + x19: .cfa -16 + ^ .ra: .cfa -24 + ^ x29: .cfa -32 + ^
STACK CFI 54da8 .cfa: sp 32 +
STACK CFI 54db0 .cfa: sp 0 +
STACK CFI INIT 54db4 8 .cfa: sp 0 +
STACK CFI INIT 54dbc 28 .cfa: sp 0 +
STACK CFI 54dc0 .cfa: sp 32 +
STACK CFI 54dc8 .cfa: x29 32 + x19: .cfa -16 + ^ .ra: .cfa -24 + ^ x29: .cfa -32 + ^
STACK CFI 54dd8 .cfa: sp 32 +
STACK CFI 54de0 .cfa: sp 0 +
STACK CFI INIT 54de4 84 .cfa: sp 0 +
STACK CFI 54dec .cfa: sp 48 +
STACK CFI 54df8 .cfa: x29 48 + x19: .cfa -8 + ^ x20: .cfa -16 + ^ x21: .cfa -32 + ^ .ra: .cfa -40 + ^ x29: .cfa -48 + ^
STACK CFI 54e58 .cfa: sp 48 +
STACK CFI 54e64 .cfa: sp 0 +
STACK CFI INIT 54e68 4 .cfa: sp 0 +
STACK CFI INIT 54e6c 34 .cfa: sp 0 +
STACK CFI 54e70 .cfa: sp 32 +
STACK CFI 54e78 .cfa: x29 32 + x19: .cfa -16 + ^ .ra: .cfa -24 + ^ x29: .cfa -32 + ^
STACK CFI 54e94 .cfa: sp 32 +
STACK CFI 54e9c .cfa: sp 0 +
STACK CFI INIT 54ea0 14 .cfa: sp 0 +
STACK CFI INIT 54eb4 4 .cfa: sp 0 +
STACK CFI INIT 54eb8 4 .cfa: sp 0 +
STACK CFI INIT 554d8 1c .cfa: sp 0 +
STACK CFI INIT 554f4 c .cfa: sp 0 +
STACK CFI INIT 55574 4 .cfa: sp 0 +
STACK CFI INIT 55578 14 .cfa: sp 0 +
STACK CFI INIT 5558c 4 .cfa: sp 0 +
STACK CFI INIT 55590 34 .cfa: sp 0 +
STACK CFI 55594 .cfa: sp 32 +
STACK CFI 5559c .cfa: x29 32 + x19: .cfa -16 + ^ .ra: .cfa -24 + ^ x29: .cfa -32 + ^
STACK CFI 555b8 .cfa: sp 32 +
STACK CFI 555c0 .cfa: sp 0 +
STACK CFI INIT 555c4 14 .cfa: sp 0 +
STACK CFI INIT 555d8 4 .cfa: sp 0 +
STACK CFI INIT 555dc 4 .cfa: sp 0 +
STACK CFI INIT 559bc 1c .cfa: sp 0 +
STACK CFI INIT 559d8 c .cfa: sp 0 +
STACK CFI INIT 559e4 4 .cfa: sp 0 +
STACK CFI INIT 559e8 34 .cfa: sp 0 +
STACK CFI 559ec .cfa: sp 32 +
STACK CFI 559f4 .cfa: x29 32 + x19: .cfa -16 + ^ .ra: .cfa -24 + ^ x29: .cfa -32 + ^
STACK CFI 55a10 .cfa: sp 32 +
STACK CFI 55a18 .cfa: sp 0 +
STACK CFI INIT 55a1c 14 .cfa: sp 0 +
STACK CFI INIT 55a30 4 .cfa: sp 0 +
STACK CFI INIT 55a34 4 .cfa: sp 0 +
STACK CFI INIT 55e3c 1c .cfa: sp 0 +
STACK CFI INIT 55e58 c .cfa: sp 0 +
STACK CFI INIT 564ac 48 .cfa: sp 0 +
STACK CFI 564b0 .cfa: sp 32 +
STACK CFI 564b8 .cfa: x29 32 + x19: .cfa -16 + ^ .ra: .cfa -24 + ^ x29: .cfa -32 + ^
STACK CFI 564e8 .cfa: sp 32 +
STACK CFI 564f0 .cfa: sp 0 +
STACK CFI INIT 5664c 3c .cfa: sp 0 +
STACK CFI 56650 .cfa: sp 32 +
STACK CFI 56658 .cfa: x29 32 + x19: .cfa -16 + ^ .ra: .cfa -24 + ^ x29: .cfa -32 + ^
STACK CFI 5667c .cfa: sp 32 +
STACK CFI 56684 .cfa: sp 0 +
STACK CFI INIT 590f0 70 .cfa: sp 0 +
STACK CFI 590f4 .cfa: sp 32 +
STACK CFI 590fc .cfa: x29 32 + x19: .cfa -8 + ^ x20: .cfa -16 + ^ .ra: .cfa -24 + ^ x29: .cfa -32 + ^
STACK CFI 59108 .cfa: sp 32 +
STACK CFI 59110 .cfa: sp 0 +
STACK CFI 59114 .cfa: x29 32 +
STACK CFI 59154 .cfa: sp 32 +
STACK CFI 5915c .cfa: sp 0 +
STACK CFI INIT 595dc 3c .cfa: sp 0 +
STACK CFI 595e0 .cfa: sp 16 +
STACK CFI 595e4 .cfa: x29 16 + .ra: .cfa -8 + ^ x29: .cfa -16 + ^
STACK CFI 59610 .cfa: sp 16 +
STACK CFI 59614 .cfa: sp 0 +
STACK CFI INIT 59618 48 .cfa: sp 0 +
STACK CFI INIT 59660 44 .cfa: sp 0 +
STACK CFI INIT 5994c 70 .cfa: sp 0 +
STACK CFI 59950 .cfa: sp 32 +
STACK CFI 5995c .cfa: x29 24 + x19: .cfa -8 + ^ .ra: .cfa -16 + ^ x29: .cfa -24 + ^ v8: .cfa -32 + ^
STACK CFI 599ac .cfa: sp 32 +
STACK CFI 599b8 .cfa: sp 0 +
STACK CFI INIT 599bc 70 .cfa: sp 0 +
STACK CFI 599c0 .cfa: sp 32 +
STACK CFI 599cc .cfa: x29 24 + x19: .cfa -8 + ^ .ra: .cfa -16 + ^ x29: .cfa -24 + ^ v8: .cfa -32 + ^
STACK CFI 59a1c .cfa: sp 32 +
STACK CFI 59a28 .cfa: sp 0 +
STACK CFI INIT 59a2c 70 .cfa: sp 0 +
STACK CFI 59a30 .cfa: sp 32 +
STACK CFI 59a3c .cfa: x29 24 + x19: .cfa -8 + ^ .ra: .cfa -16 + ^ x29: .cfa -24 + ^ v8: .cfa -32 + ^
STACK CFI 59a8c .cfa: sp 32 +
STACK CFI 59a98 .cfa: sp 0 +
STACK CFI INIT 59a9c 70 .cfa: sp 0 +
STACK CFI 59aa0 .cfa: sp 32 +
STACK CFI 59aac .cfa: x29 24 + x19: .cfa -8 + ^ .ra: .cfa -16 + ^ x29: .cfa -24 + ^ v8: .cfa -32 + ^
STACK CFI 59afc .cfa: sp 32 +
STACK CFI 59b08 .cfa: sp 0 +
STACK CFI INIT 5a07c 1c .cfa: sp 0 +
STACK CFI INIT 5a098 1c .cfa: sp 0 +
STACK CFI INIT 5a0b4 4 .cfa: sp 0 +
STACK CFI INIT 5a0b8 1c .cfa: sp 0 +
STACK CFI INIT 5a0d4 1c .cfa: sp 0 +
STACK CFI INIT 5a0f0 4 .cfa: sp 0 +
STACK CFI INIT 5a0f4 f0 .cfa: sp 0 +
STACK CFI 5a0f8 .cfa: sp 32 +
STACK CFI 5a100 .cfa: x29 32 + x19: .cfa -16 + ^ .ra: .cfa -24 + ^ x29: .cfa -32 + ^
STACK CFI 5a1d8 .cfa: sp 32 +
STACK CFI 5a1e0 .cfa: sp 0 +
STACK CFI INIT 5a1e4 f4 .cfa: sp 0 +
STACK CFI 5a1e8 .cfa: sp 32 +
STACK CFI 5a1f0 .cfa: x29 32 + x19: .cfa -16 + ^ .ra: .cfa -24 + ^ x29: .cfa -32 + ^
STACK CFI 5a2cc .cfa: sp 32 +
STACK CFI 5a2d4 .cfa: sp 0 +
STACK CFI INIT 5a2d8 f0 .cfa: sp 0 +
STACK CFI 5a2dc .cfa: sp 32 +
STACK CFI 5a2e4 .cfa: x29 32 + x19: .cfa -16 + ^ .ra: .cfa -24 + ^ x29: .cfa -32 + ^
STACK CFI 5a3bc .cfa: sp 32 +
STACK CFI 5a3c4 .cfa: sp 0 +
STACK CFI INIT 5a3c8 f4 .cfa: sp 0 +
STACK CFI 5a3cc .cfa: sp 32 +
STACK CFI 5a3d4 .cfa: x29 32 + x19: .cfa -16 + ^ .ra: .cfa -24 + ^ x29: .cfa -32 + ^
STACK CFI 5a4b0 .cfa: sp 32 +
STACK CFI 5a4b8 .cfa: sp 0 +
STACK CFI INIT 5ad68 168 .cfa: sp 0 +
STACK CFI 5ad6c .cfa: sp 32 +
STACK CFI 5ad74 .cfa: x29 32 + x19: .cfa -16 + ^ .ra: .cfa -24 + ^ x29: .cfa -32 + ^
STACK CFI 5aeb8 .cfa: sp 32 +
STACK CFI 5aec0 .cfa: sp 0 +
STACK CFI 5aec4 .cfa: sp 32 +
STACK CFI 5aecc .cfa: sp 0 +
STACK CFI INIT 5b704 340 .cfa: sp 0 +
STACK CFI 5b708 .cfa: sp 32 +
STACK CFI 5b710 .cfa: x29 32 + x19: .cfa -16 + ^ .ra: .cfa -24 + ^ x29: .cfa -32 + ^
STACK CFI 5ba38 .cfa: sp 32 +
STACK CFI 5ba40 .cfa: sp 0 +
STACK CFI INIT 5ba44 27c .cfa: sp 0 +
STACK CFI 5ba48 .cfa: sp 16 +
STACK CFI 5ba4c .cfa: x29 16 + .ra: .cfa -8 + ^ x29: .cfa -16 + ^
STACK CFI 5bcb8 .cfa: sp 16 +
STACK CFI 5bcbc .cfa: sp 0 +
STACK CFI INIT 5c64c 24 .cfa: sp 0 +
STACK CFI 5c650 .cfa: sp 32 +
STACK CFI 5c658 .cfa: x29 32 + x19: .cfa -16 + ^ .ra: .cfa -24 + ^ x29: .cfa -32 + ^
STACK CFI 5c664 .cfa: sp 32 +
STACK CFI 5c66c .cfa: sp 0 +
STACK CFI INIT 5c670 28 .cfa: sp 0 +
STACK CFI 5c674 .cfa: sp 32 +
STACK CFI 5c67c .cfa: x29 32 + x19: .cfa -16 + ^ .ra: .cfa -24 + ^ x29: .cfa -32 + ^
STACK CFI 5c68c .cfa: sp 32 +
STACK CFI 5c694 .cfa: sp 0 +
STACK CFI INIT 5e010 154 .cfa: sp 0 +
STACK CFI 5e014 .cfa: sp 48 +
STACK CFI 5e020 .cfa: x29 48 + x19: .cfa -8 + ^ x20: .cfa -16 + ^ x21: .cfa -32 + ^ .ra: .cfa -40 + ^ x29: .cfa -48 + ^
STACK CFI 5e0b0 .cfa: sp 48 +
STACK CFI 5e0bc .cfa: sp 0 +
STACK CFI 5e0c0 .cfa: x29 48 +
STACK CFI 5e154 .cfa: sp 48 +
STACK CFI 5e160 .cfa: sp 0 +
STACK CFI INIT 5e6f4 50 .cfa: sp 0 +
STACK CFI 5e6f8 .cfa: sp 32 +
STACK CFI 5e700 .cfa: x29 32 + x19: .cfa -16 + ^ .ra: .cfa -24 + ^ x29: .cfa -32 + ^
STACK CFI 5e738 .cfa: sp 32 +
STACK CFI 5e740 .cfa: sp 0 +
STACK CFI INIT 5e88c 34 .cfa: sp 0 +
STACK CFI 5e898 .cfa: sp 32 +
STACK CFI 5e8a0 .cfa: x29 32 + x19: .cfa -16 + ^ .ra: .cfa -24 + ^ x29: .cfa -32 + ^
STACK CFI 5e8b4 .cfa: sp 32 +
STACK CFI 5e8bc .cfa: sp 0 +
STACK CFI INIT 5e8c0 28 .cfa: sp 0 +
STACK CFI 5e8c4 .cfa: sp 32 +
STACK CFI 5e8cc .cfa: x29 32 + x19: .cfa -16 + ^ .ra: .cfa -24 + ^ x29: .cfa -32 + ^
STACK CFI 5e8dc .cfa: sp 32 +
STACK CFI 5e8e4 .cfa: sp 0 +
STACK CFI INIT 5f2e8 160 .cfa: sp 0 +
STACK CFI 5f2ec .cfa: sp 160 +
STACK CFI 5f2fc .cfa: x29 48 + x19: .cfa -8 + ^ x20: .cfa -16 + ^ x21: .cfa -24 + ^ x22: .cfa -32 + ^ .ra: .cfa -40 + ^ x29: .cfa -48 + ^
STACK CFI 5f430 .cfa: sp 160 +
STACK CFI 5f440 .cfa: sp 0 +
STACK CFI 5f444 .cfa: x29 48 +
STACK CFI INIT 5f448 24 .cfa: sp 0 +
STACK CFI 5f44c .cfa: sp 32 +
STACK CFI 5f454 .cfa: x29 32 + x19: .cfa -16 + ^ .ra: .cfa -24 + ^ x29: .cfa -32 + ^
STACK CFI 5f460 .cfa: sp 32 +
STACK CFI 5f468 .cfa: sp 0 +
STACK CFI INIT 5f46c 38 .cfa: sp 0 +
STACK CFI 5f470 .cfa: sp 32 +
STACK CFI 5f478 .cfa: x29 32 + x19: .cfa -16 + ^ .ra: .cfa -24 + ^ x29: .cfa -32 + ^
STACK CFI 5f498 .cfa: sp 32 +
STACK CFI 5f4a0 .cfa: sp 0 +
STACK CFI INIT 5f4a4 30 .cfa: sp 0 +
STACK CFI 5f4a8 .cfa: sp 32 +
STACK CFI 5f4b0 .cfa: x29 32 + x19: .cfa -16 + ^ .ra: .cfa -24 + ^ x29: .cfa -32 + ^
STACK CFI 5f4c8 .cfa: sp 32 +
STACK CFI 5f4d0 .cfa: sp 0 +
STACK CFI INIT 5f4d4 3c .cfa: sp 0 +
STACK CFI 5f4d8 .cfa: sp 32 +
STACK CFI 5f4e0 .cfa: x29 32 + x19: .cfa -16 + ^ .ra: .cfa -24 + ^ x29: .cfa -32 + ^
STACK CFI 5f504 .cfa: sp 32 +
STACK CFI 5f50c .cfa: sp 0 +
STACK CFI INIT 5f510 60 .cfa: sp 0 +
STACK CFI 5f520 .cfa: sp 32 +
STACK CFI 5f528 .cfa: x29 32 + x19: .cfa -16 + ^ .ra: .cfa -24 + ^ x29: .cfa -32 + ^
STACK CFI 5f560 .cfa: sp 32 +
STACK CFI 5f568 .cfa: sp 0 +
STACK CFI INIT 5f570 1c .cfa: sp 0 +
STACK CFI INIT 5f58c 14 .cfa: sp 0 +
STACK CFI 5f590 .cfa: sp 16 +
STACK CFI 5f594 .cfa: x29 16 + .ra: .cfa -8 + ^ x29: .cfa -16 + ^
STACK CFI INIT 5f5a0 14 .cfa: sp 0 +
STACK CFI 5f5a4 .cfa: sp 16 +
STACK CFI 5f5a8 .cfa: x29 16 + .ra: .cfa -8 + ^ x29: .cfa -16 + ^
STACK CFI INIT 5f5b4 4 .cfa: sp 0 +
STACK CFI INIT 5f5b8 14 .cfa: sp 0 +
STACK CFI INIT 5fd08 4 .cfa: sp 0 +
STACK CFI INIT 5fd0c 14 .cfa: sp 0 +
STACK CFI 5fd10 .cfa: sp 16 +
STACK CFI 5fd14 .cfa: x29 16 + .ra: .cfa -8 + ^ x29: .cfa -16 + ^
STACK CFI INIT 5ff4c 14 .cfa: sp 0 +
STACK CFI 5ff50 .cfa: sp 16 +
STACK CFI 5ff54 .cfa: x29 16 + .ra: .cfa -8 + ^ x29: .cfa -16 + ^
STACK CFI INIT 5ff60 14 .cfa: sp 0 +
STACK CFI 5ff64 .cfa: sp 16 +
STACK CFI 5ff68 .cfa: x29 16 + .ra: .cfa -8 + ^ x29: .cfa -16 + ^
STACK CFI INIT 5ff74 14 .cfa: sp 0 +
STACK CFI 5ff78 .cfa: sp 16 +
STACK CFI 5ff7c .cfa: x29 16 + .ra: .cfa -8 + ^ x29: .cfa -16 + ^
STACK CFI INIT 5ff88 4 .cfa: sp 0 +
STACK CFI INIT 5ff8c 4 .cfa: sp 0 +
STACK CFI INIT 5ff90 38 .cfa: sp 0 +
STACK CFI 5ff94 .cfa: sp 32 +
STACK CFI 5ff9c .cfa: x29 32 + x19: .cfa -16 + ^ .ra: .cfa -24 + ^ x29: .cfa -32 + ^
STACK CFI 5ffbc .cfa: sp 32 +
STACK CFI 5ffc4 .cfa: sp 0 +
STACK CFI INIT 5ffc8 18 .cfa: sp 0 +
STACK CFI INIT 5ffe0 4 .cfa: sp 0 +
STACK CFI INIT 5ffe4 4 .cfa: sp 0 +
STACK CFI INIT 5ffe8 10 .cfa: sp 0 +
STACK CFI INIT 5fff8 1c .cfa: sp 0 +
STACK CFI INIT 60014 c .cfa: sp 0 +
STACK CFI INIT 60020 4 .cfa: sp 0 +
STACK CFI INIT 60024 14 .cfa: sp 0 +
STACK CFI INIT 60ccc 50 .cfa: sp 0 +
STACK CFI 60cd0 .cfa: sp 32 +
STACK CFI 60cd8 .cfa: x29 32 + x19: .cfa -16 + ^ .ra: .cfa -24 + ^ x29: .cfa -32 + ^
STACK CFI 60cf0 .cfa: sp 32 +
STACK CFI 60cf8 .cfa: sp 0 +
STACK CFI 60cfc .cfa: x29 32 +
STACK CFI 60d10 .cfa: sp 32 +
STACK CFI 60d18 .cfa: sp 0 +
STACK CFI INIT 60d90 4 .cfa: sp 0 +
STACK CFI INIT 60ee8 4 .cfa: sp 0 +
STACK CFI INIT 60eec 14 .cfa: sp 0 +
STACK CFI INIT 60f00 120 .cfa: sp 0 +
STACK CFI 60f04 .cfa: sp 64 +
STACK CFI 60f14 .cfa: x29 64 + x19: .cfa -8 + ^ x20: .cfa -16 + ^ x21: .cfa -24 + ^ x22: .cfa -32 + ^ x23: .cfa -40 + ^ x24: .cfa -48 + ^ .ra: .cfa -56 + ^ x29: .cfa -64 + ^
STACK CFI 6100c .cfa: sp 64 +
STACK CFI 6101c .cfa: sp 0 +
STACK CFI INIT 61020 d4 .cfa: sp 0 +
STACK CFI 61024 .cfa: sp 48 +
STACK CFI 61030 .cfa: x29 48 + x19: .cfa -8 + ^ x20: .cfa -16 + ^ x21: .cfa -32 + ^ .ra: .cfa -40 + ^ x29: .cfa -48 + ^
STACK CFI 610c0 .cfa: sp 48 +
STACK CFI 610cc .cfa: sp 0 +
STACK CFI 610d0 .cfa: x29 48 +
STACK CFI INIT 610f4 3c8 .cfa: sp 0 +
STACK CFI INIT 614bc 8c .cfa: sp 0 +
STACK CFI 614c4 .cfa: sp 32 +
STACK CFI 614cc .cfa: x29 32 + x19: .cfa -8 + ^ x20: .cfa -16 + ^ .ra: .cfa -24 + ^ x29: .cfa -32 + ^
STACK CFI 61514 .cfa: sp 32 +
STACK CFI 6151c .cfa: sp 0 +
STACK CFI 61524 .cfa: x29 32 +
STACK CFI INIT 61660 4 .cfa: sp 0 +
STACK CFI INIT 617e8 18 .cfa: sp 0 +
STACK CFI INIT 61984 ac .cfa: sp 0 +
STACK CFI 61988 .cfa: sp 32 +
STACK CFI 61990 .cfa: x29 32 + x19: .cfa -8 + ^ x20: .cfa -16 + ^ .ra: .cfa -24 + ^ x29: .cfa -32 + ^
STACK CFI 61a18 .cfa: sp 32 +
STACK CFI 61a20 .cfa: sp 0 +
STACK CFI 61a24 .cfa: sp 32 +
STACK CFI 61a2c .cfa: sp 0 +
STACK CFI INIT 61a30 80 .cfa: sp 0 +
STACK CFI 61a34 .cfa: sp 32 +
STACK CFI 61a3c .cfa: x29 32 + x19: .cfa -8 + ^ x20: .cfa -16 + ^ .ra: .cfa -24 + ^ x29: .cfa -32 + ^
STACK CFI 61a98 .cfa: sp 32 +
STACK CFI 61aa0 .cfa: sp 0 +
STACK CFI 61aa4 .cfa: sp 32 +
STACK CFI 61aac .cfa: sp 0 +
STACK CFI INIT 61b9c b0 .cfa: sp 0 +
STACK CFI 61ba0 .cfa: sp 32 +
STACK CFI 61ba8 .cfa: x29 32 + x19: .cfa -16 + ^ .ra: .cfa -24 + ^ x29: .cfa -32 + ^
STACK CFI 61c40 .cfa: sp 32 +
STACK CFI 61c48 .cfa: sp 0 +
STACK CFI INIT 61f20 50 .cfa: sp 0 +
STACK CFI 61f24 .cfa: sp 32 +
STACK CFI 61f2c .cfa: x29 32 + x19: .cfa -16 + ^ .ra: .cfa -24 + ^ x29: .cfa -32 + ^
STACK CFI 61f44 .cfa: sp 32 +
STACK CFI 61f4c .cfa: sp 0 +
STACK CFI 61f50 .cfa: x29 32 +
STACK CFI 61f64 .cfa: sp 32 +
STACK CFI 61f6c .cfa: sp 0 +
STACK CFI INIT 61f70 64 .cfa: sp 0 +
STACK CFI 61f74 .cfa: sp 32 +
STACK CFI 61f7c .cfa: x29 32 + x19: .cfa -16 + ^ .ra: .cfa -24 + ^ x29: .cfa -32 + ^
STACK CFI 61fa8 .cfa: sp 32 +
STACK CFI 61fb0 .cfa: sp 0 +
STACK CFI 61fb4 .cfa: x29 32 +
STACK CFI 61fc8 .cfa: sp 32 +
STACK CFI 61fd0 .cfa: sp 0 +
STACK CFI INIT 61fd4 14 .cfa: sp 0 +
STACK CFI 61fd8 .cfa: sp 16 +
STACK CFI 61fdc .cfa: x29 16 + .ra: .cfa -8 + ^ x29: .cfa -16 + ^
STACK CFI INIT 61fe8 cc .cfa: sp 0 +
STACK CFI 61fec .cfa: sp 32 +
STACK CFI 61ff4 .cfa: x29 32 + x19: .cfa -8 + ^ x20: .cfa -16 + ^ .ra: .cfa -24 + ^ x29: .cfa -32 + ^
STACK CFI 6209c .cfa: sp 32 +
STACK CFI 620a4 .cfa: sp 0 +
STACK CFI 620a8 .cfa: sp 32 +
STACK CFI 620b0 .cfa: sp 0 +
STACK CFI INIT 620b4 178 .cfa: sp 0 +
STACK CFI 620b8 .cfa: sp 80 +
STACK CFI 620cc .cfa: x29 80 + x19: .cfa -8 + ^ x20: .cfa -16 + ^ x21: .cfa -24 + ^ x22: .cfa -32 + ^ x23: .cfa -40 + ^ x24: .cfa -48 + ^ x25: .cfa -56 + ^ x26: .cfa -64 + ^ .ra: .cfa -72 + ^ x29: .cfa -80 + ^
STACK CFI 62214 .cfa: sp 80 +
STACK CFI 62228 .cfa: sp 0 +
STACK CFI INIT 6222c 3c .cfa: sp 0 +
STACK CFI 62234 .cfa: sp 32 +
STACK CFI 6223c .cfa: x29 32 + x19: .cfa -16 + ^ .ra: .cfa -24 + ^ x29: .cfa -32 + ^
STACK CFI 62258 .cfa: sp 32 +
STACK CFI 62260 .cfa: sp 0 +
STACK CFI INIT 62268 4 .cfa: sp 0 +
STACK CFI INIT 6226c 24 .cfa: sp 0 +
STACK CFI 62270 .cfa: sp 16 +
STACK CFI 62274 .cfa: x29 16 + .ra: .cfa -8 + ^ x29: .cfa -16 + ^
STACK CFI 62288 .cfa: sp 16 +
STACK CFI 6228c .cfa: sp 0 +
STACK CFI INIT 62290 10 .cfa: sp 0 +
STACK CFI INIT 622a0 4 .cfa: sp 0 +
STACK CFI INIT 622a4 4 .cfa: sp 0 +
STACK CFI INIT 63b18 1c .cfa: sp 0 +
STACK CFI INIT 63b34 c .cfa: sp 0 +
STACK CFI INIT 63f2c 60 .cfa: sp 0 +
STACK CFI 63f3c .cfa: sp 32 +
STACK CFI 63f44 .cfa: x29 32 + x19: .cfa -16 + ^ .ra: .cfa -24 + ^ x29: .cfa -32 + ^
STACK CFI 63f7c .cfa: sp 32 +
STACK CFI 63f84 .cfa: sp 0 +
STACK CFI INIT 63f8c 1c .cfa: sp 0 +
STACK CFI INIT 643e4 1c .cfa: sp 0 +
STACK CFI INIT 65058 4 .cfa: sp 0 +
STACK CFI INIT 651e0 4 .cfa: sp 0 +
STACK CFI INIT 65368 24 .cfa: sp 0 +
STACK CFI 6536c .cfa: sp 16 +
STACK CFI 65370 .cfa: x29 16 + .ra: .cfa -8 + ^ x29: .cfa -16 + ^
STACK CFI 65384 .cfa: sp 16 +
STACK CFI 65388 .cfa: sp 0 +
STACK CFI INIT 6538c 78 .cfa: sp 0 +
STACK CFI 65390 .cfa: sp 48 +
STACK CFI 6539c .cfa: x29 48 + x19: .cfa -8 + ^ x20: .cfa -16 + ^ x21: .cfa -24 + ^ x22: .cfa -32 + ^ .ra: .cfa -40 + ^ x29: .cfa -48 + ^
STACK CFI 653f4 .cfa: sp 48 +
STACK CFI 65400 .cfa: sp 0 +
STACK CFI INIT 65404 78 .cfa: sp 0 +
STACK CFI 65408 .cfa: sp 48 +
STACK CFI 65414 .cfa: x29 48 + x19: .cfa -8 + ^ x20: .cfa -16 + ^ x21: .cfa -32 + ^ .ra: .cfa -40 + ^ x29: .cfa -48 + ^
STACK CFI 6546c .cfa: sp 48 +
STACK CFI 65478 .cfa: sp 0 +
STACK CFI INIT 65a40 4 .cfa: sp 0 +
STACK CFI INIT 65d0c 18 .cfa: sp 0 +
STACK CFI 65d10 .cfa: sp 16 +
STACK CFI 65d14 .cfa: x29 16 + .ra: .cfa -8 + ^ x29: .cfa -16 + ^
STACK CFI 65d1c .cfa: sp 16 +
STACK CFI 65d20 .cfa: sp 0 +
STACK CFI INIT 65dcc 9c .cfa: sp 0 +
STACK CFI INIT 66098 9c .cfa: sp 0 +
STACK CFI 6609c .cfa: sp 32 +
STACK CFI 660a4 .cfa: x29 32 + x19: .cfa -8 + ^ x20: .cfa -16 + ^ .ra: .cfa -24 + ^ x29: .cfa -32 + ^
STACK CFI 66128 .cfa: sp 32 +
STACK CFI 66130 .cfa: sp 0 +
STACK CFI INIT 66134 60 .cfa: sp 0 +
STACK CFI 66144 .cfa: sp 32 +
STACK CFI 6614c .cfa: x29 32 + x19: .cfa -16 + ^ .ra: .cfa -24 + ^ x29: .cfa -32 + ^
STACK CFI 66184 .cfa: sp 32 +
STACK CFI 6618c .cfa: sp 0 +
STACK CFI INIT 66194 1c .cfa: sp 0 +
STACK CFI INIT 6684c 4 .cfa: sp 0 +
STACK CFI INIT 66968 d4 .cfa: sp 0 +
STACK CFI 6696c .cfa: sp 48 +
STACK CFI 66978 .cfa: x29 48 + x19: .cfa -8 + ^ x20: .cfa -16 + ^ x21: .cfa -32 + ^ .ra: .cfa -40 + ^ x29: .cfa -48 + ^
STACK CFI 669e8 .cfa: sp 48 +
STACK CFI 669f4 .cfa: sp 0 +
STACK CFI 669f8 .cfa: x29 48 +
STACK CFI 66a2c .cfa: sp 48 +
STACK CFI 66a38 .cfa: sp 0 +
STACK CFI INIT 66b28 94 .cfa: sp 0 +
STACK CFI 66b2c .cfa: sp 32 +
STACK CFI 66b34 .cfa: x29 32 + x19: .cfa -16 + ^ .ra: .cfa -24 + ^ x29: .cfa -32 + ^
STACK CFI 66bb0 .cfa: sp 32 +
STACK CFI 66bb8 .cfa: sp 0 +
STACK CFI INIT 66cc4 130 .cfa: sp 0 +
STACK CFI 66cc8 .cfa: sp 176 +
STACK CFI 66cdc .cfa: x29 64 + x19: .cfa -8 + ^ x20: .cfa -16 + ^ x21: .cfa -24 + ^ x22: .cfa -32 + ^ x23: .cfa -48 + ^ .ra: .cfa -56 + ^ x29: .cfa -64 + ^
STACK CFI 66dd8 .cfa: sp 176 +
STACK CFI 66dec .cfa: sp 0 +
STACK CFI 66df0 .cfa: x29 64 +
STACK CFI INIT 66df4 268 .cfa: sp 0 +
STACK CFI 66df8 .cfa: sp 32 +
STACK CFI 66e00 .cfa: x29 32 + x19: .cfa -8 + ^ x20: .cfa -16 + ^ .ra: .cfa -24 + ^ x29: .cfa -32 + ^
STACK CFI 66fcc .cfa: sp 32 +
STACK CFI 66fd4 .cfa: sp 0 +
STACK CFI 66fd8 .cfa: x29 32 +
STACK CFI 66ff8 .cfa: sp 32 +
STACK CFI 67000 .cfa: sp 0 +
STACK CFI 67004 .cfa: x29 32 +
STACK CFI 67024 .cfa: sp 32 +
STACK CFI 6702c .cfa: sp 0 +
STACK CFI 67030 .cfa: x29 32 +
STACK CFI 67050 .cfa: sp 32 +
STACK CFI 67058 .cfa: sp 0 +
STACK CFI INIT 67e1c a8 .cfa: sp 0 +
STACK CFI 67e20 .cfa: sp 48 +
STACK CFI 67e2c .cfa: x29 48 + x19: .cfa -8 + ^ x20: .cfa -16 + ^ x21: .cfa -32 + ^ .ra: .cfa -40 + ^ x29: .cfa -48 + ^
STACK CFI 67eb4 .cfa: sp 48 +
STACK CFI 67ec0 .cfa: sp 0 +
STACK CFI INIT 67ec4 4 .cfa: sp 0 +
STACK CFI INIT 67ec8 34 .cfa: sp 0 +
STACK CFI 67ecc .cfa: sp 32 +
STACK CFI 67ed4 .cfa: x29 32 + x19: .cfa -16 + ^ .ra: .cfa -24 + ^ x29: .cfa -32 + ^
STACK CFI 67ef0 .cfa: sp 32 +
STACK CFI 67ef8 .cfa: sp 0 +
STACK CFI INIT 67efc 14 .cfa: sp 0 +
STACK CFI INIT 67f10 4 .cfa: sp 0 +
STACK CFI INIT 67f14 4 .cfa: sp 0 +
STACK CFI INIT 680e8 1c .cfa: sp 0 +
STACK CFI INIT 68104 c .cfa: sp 0 +
STACK CFI INIT 68590 1c .cfa: sp 0 +
STACK CFI INIT 68bf4 4 .cfa: sp 0 +
STACK CFI INIT 6973c 50 .cfa: sp 0 +
STACK CFI 69740 .cfa: sp 32 +
STACK CFI 69748 .cfa: x29 32 + x19: .cfa -16 + ^ .ra: .cfa -24 + ^ x29: .cfa -32 + ^
STACK CFI 69760 .cfa: sp 32 +
STACK CFI 69768 .cfa: sp 0 +
STACK CFI 6976c .cfa: x29 32 +
STACK CFI 69780 .cfa: sp 32 +
STACK CFI 69788 .cfa: sp 0 +
STACK CFI INIT 6978c 50 .cfa: sp 0 +
STACK CFI 69790 .cfa: sp 32 +
STACK CFI 69798 .cfa: x29 32 + x19: .cfa -16 + ^ .ra: .cfa -24 + ^ x29: .cfa -32 + ^
STACK CFI 697b0 .cfa: sp 32 +
STACK CFI 697b8 .cfa: sp 0 +
STACK CFI 697bc .cfa: x29 32 +
STACK CFI 697d0 .cfa: sp 32 +
STACK CFI 697d8 .cfa: sp 0 +
STACK CFI INIT 697dc 50 .cfa: sp 0 +
STACK CFI 697e0 .cfa: sp 32 +
STACK CFI 697e8 .cfa: x29 32 + x19: .cfa -16 + ^ .ra: .cfa -24 + ^ x29: .cfa -32 + ^
STACK CFI 69800 .cfa: sp 32 +
STACK CFI 69808 .cfa: sp 0 +
STACK CFI 6980c .cfa: x29 32 +
STACK CFI 69820 .cfa: sp 32 +
STACK CFI 69828 .cfa: sp 0 +
STACK CFI INIT 69e78 9c .cfa: sp 0 +
STACK CFI 69e7c .cfa: sp 32 +
STACK CFI 69e84 .cfa: x29 32 + x19: .cfa -8 + ^ x20: .cfa -16 + ^ .ra: .cfa -24 + ^ x29: .cfa -32 + ^
STACK CFI 69f08 .cfa: sp 32 +
STACK CFI 69f10 .cfa: sp 0 +
STACK CFI INIT 69f14 4 .cfa: sp 0 +
STACK CFI INIT 69f18 34 .cfa: sp 0 +
STACK CFI 69f1c .cfa: sp 32 +
STACK CFI 69f24 .cfa: x29 32 + x19: .cfa -16 + ^ .ra: .cfa -24 + ^ x29: .cfa -32 + ^
STACK CFI 69f40 .cfa: sp 32 +
STACK CFI 69f48 .cfa: sp 0 +
STACK CFI INIT 69f4c 14 .cfa: sp 0 +
STACK CFI INIT 69f60 4 .cfa: sp 0 +
STACK CFI INIT 69f64 4 .cfa: sp 0 +
STACK CFI INIT 6a138 1c .cfa: sp 0 +
STACK CFI INIT 6a154 c .cfa: sp 0 +
STACK CFI INIT 6a5e0 1c .cfa: sp 0 +
STACK CFI INIT 6a95c 4 .cfa: sp 0 +
STACK CFI INIT 6ab10 2c .cfa: sp 0 +
STACK CFI 6ab14 .cfa: sp 32 +
STACK CFI 6ab1c .cfa: x29 32 + x19: .cfa -16 + ^ .ra: .cfa -24 + ^ x29: .cfa -32 + ^
STACK CFI 6ab30 .cfa: sp 32 +
STACK CFI 6ab38 .cfa: sp 0 +
STACK CFI INIT 6afbc 1c .cfa: sp 0 +
STACK CFI INIT 6b35c 4 .cfa: sp 0 +
STACK CFI INIT 6b5a0 2c .cfa: sp 0 +
STACK CFI 6b5a4 .cfa: sp 32 +
STACK CFI 6b5ac .cfa: x29 32 + x19: .cfa -16 + ^ .ra: .cfa -24 + ^ x29: .cfa -32 + ^
STACK CFI 6b5c0 .cfa: sp 32 +
STACK CFI 6b5c8 .cfa: sp 0 +
STACK CFI INIT 6bfcc 34 .cfa: sp 0 +
STACK CFI 6bfd8 .cfa: sp 32 +
STACK CFI 6bfe0 .cfa: x29 32 + x19: .cfa -16 + ^ .ra: .cfa -24 + ^ x29: .cfa -32 + ^
STACK CFI 6bff4 .cfa: sp 32 +
STACK CFI 6bffc .cfa: sp 0 +
STACK CFI INIT 6c000 158 .cfa: sp 0 +
STACK CFI 6c004 .cfa: sp 112 +
STACK CFI 6c020 .cfa: x29 56 + x19: .cfa -8 + ^ x20: .cfa -16 + ^ x21: .cfa -24 + ^ x22: .cfa -32 + ^ x23: .cfa -40 + ^ .ra: .cfa -48 + ^ x29: .cfa -56 + ^ v8: .cfa -64 + ^ v9: .cfa -72 + ^ v10: .cfa -80 + ^
STACK CFI 6c134 .cfa: sp 112 +
STACK CFI 6c150 .cfa: sp 0 +
STACK CFI 6c154 .cfa: x29 56 +
STACK CFI INIT 6c158 38 .cfa: sp 0 +
STACK CFI 6c15c .cfa: sp 32 +
STACK CFI 6c164 .cfa: x29 32 + x19: .cfa -16 + ^ .ra: .cfa -24 + ^ x29: .cfa -32 + ^
STACK CFI 6c184 .cfa: sp 32 +
STACK CFI 6c18c .cfa: sp 0 +
STACK CFI INIT 6c190 14 .cfa: sp 0 +
STACK CFI 6c194 .cfa: sp 16 +
STACK CFI 6c198 .cfa: x29 16 + .ra: .cfa -8 + ^ x29: .cfa -16 + ^
STACK CFI INIT 6c320 98 .cfa: sp 0 +
STACK CFI 6c324 .cfa: sp 48 +
STACK CFI 6c330 .cfa: x29 48 + x19: .cfa -8 + ^ x20: .cfa -16 + ^ x21: .cfa -24 + ^ x22: .cfa -32 + ^ .ra: .cfa -40 + ^ x29: .cfa -48 + ^
STACK CFI 6c338 .cfa: sp 48 +
STACK CFI 6c344 .cfa: sp 0 +
STACK CFI 6c348 .cfa: x29 48 +
STACK CFI 6c36c .cfa: sp 48 +
STACK CFI 6c378 .cfa: sp 0 +
STACK CFI 6c37c .cfa: x29 48 +
STACK CFI 6c3a8 .cfa: sp 48 +
STACK CFI 6c3b4 .cfa: sp 0 +
STACK CFI INIT 6c3b8 14 .cfa: sp 0 +
STACK CFI 6c3bc .cfa: sp 16 +
STACK CFI 6c3c0 .cfa: x29 16 + .ra: .cfa -8 + ^ x29: .cfa -16 + ^
STACK CFI INIT 6c3cc 54 .cfa: sp 0 +
STACK CFI 6c3dc .cfa: sp 32 +
STACK CFI 6c3e4 .cfa: x29 32 + x19: .cfa -8 + ^ x20: .cfa -16 + ^ .ra: .cfa -24 + ^ x29: .cfa -32 + ^
STACK CFI 6c414 .cfa: sp 32 +
STACK CFI 6c41c .cfa: sp 0 +
STACK CFI INIT 6dc18 4 .cfa: sp 0 +
STACK CFI INIT 6dc1c 14 .cfa: sp 0 +
STACK CFI INIT 6dee0 68 .cfa: sp 0 +
STACK CFI 6dee4 .cfa: sp 32 +
STACK CFI 6deec .cfa: x29 32 + x19: .cfa -8 + ^ x20: .cfa -16 + ^ .ra: .cfa -24 + ^ x29: .cfa -32 + ^
STACK CFI 6df04 .cfa: sp 32 +
STACK CFI 6df0c .cfa: sp 0 +
STACK CFI 6df10 .cfa: x29 32 +
STACK CFI 6df3c .cfa: sp 32 +
STACK CFI 6df44 .cfa: sp 0 +
STACK CFI INIT 6df48 54 .cfa: sp 0 +
STACK CFI 6df58 .cfa: sp 32 +
STACK CFI 6df60 .cfa: x29 32 + x19: .cfa -8 + ^ x20: .cfa -16 + ^ .ra: .cfa -24 + ^ x29: .cfa -32 + ^
STACK CFI 6df90 .cfa: sp 32 +
STACK CFI 6df98 .cfa: sp 0 +
STACK CFI INIT 6e7bc b48 .cfa: sp 0 +
STACK CFI 6e7c0 .cfa: sp 96 +
STACK CFI 6e7d8 .cfa: x29 96 + x19: .cfa -8 + ^ x20: .cfa -16 + ^ x21: .cfa -24 + ^ x22: .cfa -32 + ^ x23: .cfa -40 + ^ x24: .cfa -48 + ^ x25: .cfa -56 + ^ x26: .cfa -64 + ^ x27: .cfa -72 + ^ x28: .cfa -80 + ^ .ra: .cfa -88 + ^ x29: .cfa -96 + ^
STACK CFI 6ef68 .cfa: sp 96 +
STACK CFI 6ef80 .cfa: sp 0 +
STACK CFI 6ef84 .cfa: x29 96 +
STACK CFI 6f2e8 .cfa: sp 96 +
STACK CFI 6f300 .cfa: sp 0 +
STACK CFI INIT 6f304 378 .cfa: sp 0 +
STACK CFI 6f308 .cfa: sp 32 +
STACK CFI 6f310 .cfa: x29 32 + x19: .cfa -8 + ^ x20: .cfa -16 + ^ .ra: .cfa -24 + ^ x29: .cfa -32 + ^
STACK CFI 6f328 .cfa: sp 32 +
STACK CFI 6f330 .cfa: sp 0 +
STACK CFI 6f334 .cfa: x29 32 +
STACK CFI 6f3e4 .cfa: sp 32 +
STACK CFI 6f3ec .cfa: sp 0 +
STACK CFI 6f3f0 .cfa: x29 32 +
STACK CFI 6f42c .cfa: sp 32 +
STACK CFI 6f434 .cfa: sp 0 +
STACK CFI 6f438 .cfa: x29 32 +
STACK CFI 6f4c4 .cfa: sp 32 +
STACK CFI 6f4cc .cfa: sp 0 +
STACK CFI 6f4d0 .cfa: x29 32 +
STACK CFI 6f590 .cfa: sp 32 +
STACK CFI 6f598 .cfa: sp 0 +
STACK CFI 6f59c .cfa: x29 32 +
STACK CFI 6f670 .cfa: sp 32 +
STACK CFI 6f678 .cfa: sp 0 +
STACK CFI INIT 6f67c 178 .cfa: sp 0 +
STACK CFI INIT 7148c 4c .cfa: sp 0 +
STACK CFI INIT 714d8 40 .cfa: sp 0 +
STACK CFI INIT 71518 b8 .cfa: sp 0 +
STACK CFI 7151c .cfa: sp 32 +
STACK CFI 71524 .cfa: x29 32 + x19: .cfa -16 + ^ .ra: .cfa -24 + ^ x29: .cfa -32 + ^
STACK CFI 715c4 .cfa: sp 32 +
STACK CFI 715cc .cfa: sp 0 +
STACK CFI INIT 71688 c .cfa: sp 0 +
STACK CFI INIT 71694 94 .cfa: sp 0 +
STACK CFI 71698 .cfa: sp 80 +
STACK CFI 716a8 .cfa: x29 48 + x19: .cfa -8 + ^ x20: .cfa -16 + ^ x21: .cfa -24 + ^ x22: .cfa -32 + ^ .ra: .cfa -40 + ^ x29: .cfa -48 + ^
STACK CFI 71710 .cfa: sp 80 +
STACK CFI 71720 .cfa: sp 0 +
STACK CFI 71724 .cfa: x29 48 +
STACK CFI INIT 71728 8c .cfa: sp 0 +
STACK CFI 7172c .cfa: sp 80 +
STACK CFI 7173c .cfa: x29 48 + x19: .cfa -8 + ^ x20: .cfa -16 + ^ x21: .cfa -32 + ^ .ra: .cfa -40 + ^ x29: .cfa -48 + ^
STACK CFI 7179c .cfa: sp 80 +
STACK CFI 717ac .cfa: sp 0 +
STACK CFI 717b0 .cfa: x29 48 +
STACK CFI INIT 7191c 70 .cfa: sp 0 +
STACK CFI 71920 .cfa: sp 32 +
STACK CFI 71928 .cfa: x29 32 + x19: .cfa -8 + ^ x20: .cfa -16 + ^ .ra: .cfa -24 + ^ x29: .cfa -32 + ^
STACK CFI 71958 .cfa: sp 32 +
STACK CFI 71960 .cfa: sp 0 +
STACK CFI 71964 .cfa: x29 32 +
STACK CFI 71980 .cfa: sp 32 +
STACK CFI 71988 .cfa: sp 0 +
STACK CFI INIT 7198c 80 .cfa: sp 0 +
STACK CFI 71990 .cfa: sp 32 +
STACK CFI 71998 .cfa: x29 32 + x19: .cfa -8 + ^ x20: .cfa -16 + ^ .ra: .cfa -24 + ^ x29: .cfa -32 + ^
STACK CFI 719d0 .cfa: sp 32 +
STACK CFI 719d8 .cfa: sp 0 +
STACK CFI 719dc .cfa: x29 32 +
STACK CFI 71a00 .cfa: sp 32 +
STACK CFI 71a08 .cfa: sp 0 +
STACK CFI INIT 72130 10 .cfa: sp 0 +
STACK CFI INIT 72140 8 .cfa: sp 0 +
STACK CFI INIT 72148 24 .cfa: sp 0 +
STACK CFI 7214c .cfa: sp 32 +
STACK CFI 72154 .cfa: x29 32 + x19: .cfa -16 + ^ .ra: .cfa -24 + ^ x29: .cfa -32 + ^
STACK CFI 72160 .cfa: sp 32 +
STACK CFI 72168 .cfa: sp 0 +
STACK CFI INIT 7216c 10 .cfa: sp 0 +
STACK CFI INIT 7217c 30 .cfa: sp 0 +
STACK CFI 72180 .cfa: sp 32 +
STACK CFI 72188 .cfa: x29 32 + x19: .cfa -16 + ^ .ra: .cfa -24 + ^ x29: .cfa -32 + ^
STACK CFI 721a0 .cfa: sp 32 +
STACK CFI 721a8 .cfa: sp 0 +
STACK CFI INIT 721ac 8 .cfa: sp 0 +
STACK CFI INIT 721b4 4 .cfa: sp 0 +
STACK CFI INIT 7222c 4 .cfa: sp 0 +
STACK CFI INIT 72230 14 .cfa: sp 0 +
STACK CFI INIT 72244 34 .cfa: sp 0 +
STACK CFI 72248 .cfa: sp 16 +
STACK CFI 7224c .cfa: x29 16 + .ra: .cfa -8 + ^ x29: .cfa -16 + ^
STACK CFI INIT 72278 4 .cfa: sp 0 +
STACK CFI INIT 7227c 4 .cfa: sp 0 +
STACK CFI INIT 72280 34 .cfa: sp 0 +
STACK CFI 72284 .cfa: sp 32 +
STACK CFI 7228c .cfa: x29 32 + x19: .cfa -16 + ^ .ra: .cfa -24 + ^ x29: .cfa -32 + ^
STACK CFI 722a8 .cfa: sp 32 +
STACK CFI 722b0 .cfa: sp 0 +
STACK CFI INIT 722b4 14 .cfa: sp 0 +
STACK CFI INIT 722c8 4 .cfa: sp 0 +
STACK CFI INIT 722cc 4 .cfa: sp 0 +
STACK CFI INIT 722d0 14 .cfa: sp 0 +
STACK CFI INIT 722e4 1c .cfa: sp 0 +
STACK CFI INIT 72300 c .cfa: sp 0 +
STACK CFI INIT 72840 4 .cfa: sp 0 +
STACK CFI INIT 72844 4 .cfa: sp 0 +
STACK CFI INIT 72848 4 .cfa: sp 0 +
STACK CFI INIT 7284c 8 .cfa: sp 0 +
STACK CFI INIT 72854 8 .cfa: sp 0 +
STACK CFI INIT 72a58 50 .cfa: sp 0 +
STACK CFI 72a5c .cfa: sp 32 +
STACK CFI 72a64 .cfa: x29 32 + x19: .cfa -16 + ^ .ra: .cfa -24 + ^ x29: .cfa -32 + ^
STACK CFI 72a7c .cfa: sp 32 +
STACK CFI 72a84 .cfa: sp 0 +
STACK CFI 72a88 .cfa: x29 32 +
STACK CFI 72a9c .cfa: sp 32 +
STACK CFI 72aa4 .cfa: sp 0 +
STACK CFI INIT 72aa8 100 .cfa: sp 0 +
STACK CFI 72aac .cfa: sp 32 +
STACK CFI 72ab4 .cfa: x29 32 + x19: .cfa -8 + ^ x20: .cfa -16 + ^ .ra: .cfa -24 + ^ x29: .cfa -32 + ^
STACK CFI 72b74 .cfa: sp 32 +
STACK CFI 72b7c .cfa: sp 0 +
STACK CFI 72b80 .cfa: x29 32 +
STACK CFI 72b9c .cfa: sp 32 +
STACK CFI 72ba4 .cfa: sp 0 +
STACK CFI INIT 72ba8 110 .cfa: sp 0 +
STACK CFI 72bac .cfa: sp 32 +
STACK CFI 72bb4 .cfa: x29 32 + x19: .cfa -8 + ^ x20: .cfa -16 + ^ .ra: .cfa -24 + ^ x29: .cfa -32 + ^
STACK CFI 72c7c .cfa: sp 32 +
STACK CFI 72c84 .cfa: sp 0 +
STACK CFI 72c88 .cfa: x29 32 +
STACK CFI 72cac .cfa: sp 32 +
STACK CFI 72cb4 .cfa: sp 0 +
STACK CFI INIT 72f38 50 .cfa: sp 0 +
STACK CFI 72f3c .cfa: sp 32 +
STACK CFI 72f44 .cfa: x29 32 + x19: .cfa -16 + ^ .ra: .cfa -24 + ^ x29: .cfa -32 + ^
STACK CFI 72f5c .cfa: sp 32 +
STACK CFI 72f64 .cfa: sp 0 +
STACK CFI 72f68 .cfa: x29 32 +
STACK CFI 72f7c .cfa: sp 32 +
STACK CFI 72f84 .cfa: sp 0 +
STACK CFI INIT 72f88 8 .cfa: sp 0 +
STACK CFI INIT 72f90 8 .cfa: sp 0 +
STACK CFI INIT 72f98 8 .cfa: sp 0 +
STACK CFI INIT 72fa0 4 .cfa: sp 0 +
STACK CFI INIT 730c8 24 .cfa: sp 0 +
STACK CFI 730cc .cfa: sp 32 +
STACK CFI 730d4 .cfa: x29 32 + x19: .cfa -16 + ^ .ra: .cfa -24 + ^ x29: .cfa -32 + ^
STACK CFI 730e0 .cfa: sp 32 +
STACK CFI 730e8 .cfa: sp 0 +
STACK CFI INIT 730ec 10 .cfa: sp 0 +
STACK CFI INIT 730fc 30 .cfa: sp 0 +
STACK CFI 73100 .cfa: sp 32 +
STACK CFI 73108 .cfa: x29 32 + x19: .cfa -16 + ^ .ra: .cfa -24 + ^ x29: .cfa -32 + ^
STACK CFI 73120 .cfa: sp 32 +
STACK CFI 73128 .cfa: sp 0 +
STACK CFI INIT 7312c c .cfa: sp 0 +
STACK CFI INIT 73138 4 .cfa: sp 0 +
STACK CFI INIT 734f4 8 .cfa: sp 0 +
STACK CFI INIT 734fc 8 .cfa: sp 0 +
STACK CFI INIT 73504 8 .cfa: sp 0 +
STACK CFI INIT 7350c 4 .cfa: sp 0 +
STACK CFI INIT 73634 24 .cfa: sp 0 +
STACK CFI 73638 .cfa: sp 32 +
STACK CFI 73640 .cfa: x29 32 + x19: .cfa -16 + ^ .ra: .cfa -24 + ^ x29: .cfa -32 + ^
STACK CFI 7364c .cfa: sp 32 +
STACK CFI 73654 .cfa: sp 0 +
STACK CFI INIT 73658 10 .cfa: sp 0 +
STACK CFI INIT 73668 30 .cfa: sp 0 +
STACK CFI 7366c .cfa: sp 32 +
STACK CFI 73674 .cfa: x29 32 + x19: .cfa -16 + ^ .ra: .cfa -24 + ^ x29: .cfa -32 + ^
STACK CFI 7368c .cfa: sp 32 +
STACK CFI 73694 .cfa: sp 0 +
STACK CFI INIT 73698 8 .cfa: sp 0 +
STACK CFI INIT 736a0 4 .cfa: sp 0 +
STACK CFI INIT 73d10 1c .cfa: sp 0 +
STACK CFI INIT 73d2c 18 .cfa: sp 0 +
STACK CFI INIT 73d44 1c .cfa: sp 0 +
STACK CFI INIT 73d60 18 .cfa: sp 0 +
STACK CFI INIT 73d78 40 .cfa: sp 0 +
STACK CFI 73d7c .cfa: sp 32 +
STACK CFI 73d84 .cfa: x29 32 + x19: .cfa -16 + ^ .ra: .cfa -24 + ^ x29: .cfa -32 + ^
STACK CFI 73dac .cfa: sp 32 +
STACK CFI 73db4 .cfa: sp 0 +
STACK CFI INIT 74000 10 .cfa: sp 0 +
STACK CFI INIT 7419c a8 .cfa: sp 0 +
STACK CFI 741a0 .cfa: sp 80 +
STACK CFI 741b0 .cfa: x29 48 + x19: .cfa -8 + ^ x20: .cfa -16 + ^ x21: .cfa -32 + ^ .ra: .cfa -40 + ^ x29: .cfa -48 + ^
STACK CFI 7422c .cfa: sp 80 +
STACK CFI 7423c .cfa: sp 0 +
STACK CFI 74240 .cfa: x29 48 +
STACK CFI INIT 743e0 8c .cfa: sp 0 +
STACK CFI 743e4 .cfa: sp 32 +
STACK CFI 743ec .cfa: x29 32 + x19: .cfa -8 + ^ x20: .cfa -16 + ^ .ra: .cfa -24 + ^ x29: .cfa -32 + ^
STACK CFI 74438 .cfa: sp 32 +
STACK CFI 74440 .cfa: sp 0 +
STACK CFI 74444 .cfa: x29 32 +
STACK CFI 74460 .cfa: sp 32 +
STACK CFI 74468 .cfa: sp 0 +
STACK CFI INIT 7446c 9c .cfa: sp 0 +
STACK CFI 74470 .cfa: sp 32 +
STACK CFI 74478 .cfa: x29 32 + x19: .cfa -8 + ^ x20: .cfa -16 + ^ .ra: .cfa -24 + ^ x29: .cfa -32 + ^
STACK CFI 744cc .cfa: sp 32 +
STACK CFI 744d4 .cfa: sp 0 +
STACK CFI 744d8 .cfa: x29 32 +
STACK CFI 744fc .cfa: sp 32 +
STACK CFI 74504 .cfa: sp 0 +
STACK CFI INIT 74d48 24 .cfa: sp 0 +
STACK CFI INIT 74d6c c .cfa: sp 0 +
STACK CFI INIT 74d78 24 .cfa: sp 0 +
STACK CFI 74d7c .cfa: sp 32 +
STACK CFI 74d84 .cfa: x29 32 + x19: .cfa -16 + ^ .ra: .cfa -24 + ^ x29: .cfa -32 + ^
STACK CFI 74d90 .cfa: sp 32 +
STACK CFI 74d98 .cfa: sp 0 +
STACK CFI INIT 74d9c 10 .cfa: sp 0 +
STACK CFI INIT 74dac 30 .cfa: sp 0 +
STACK CFI 74db0 .cfa: sp 32 +
STACK CFI 74db8 .cfa: x29 32 + x19: .cfa -16 + ^ .ra: .cfa -24 + ^ x29: .cfa -32 + ^
STACK CFI 74dd0 .cfa: sp 32 +
STACK CFI 74dd8 .cfa: sp 0 +
STACK CFI INIT 74ddc 8 .cfa: sp 0 +
STACK CFI INIT 74de4 4 .cfa: sp 0 +
STACK CFI INIT 75160 54 .cfa: sp 0 +
STACK CFI 75164 .cfa: sp 32 +
STACK CFI 7516c .cfa: x29 32 + x19: .cfa -8 + ^ x20: .cfa -16 + ^ .ra: .cfa -24 + ^ x29: .cfa -32 + ^
STACK CFI 75184 .cfa: sp 32 +
STACK CFI 7518c .cfa: sp 0 +
STACK CFI 75190 .cfa: x29 32 +
STACK CFI 751a8 .cfa: sp 32 +
STACK CFI 751b0 .cfa: sp 0 +
STACK CFI INIT 756f0 f0 .cfa: sp 0 +
STACK CFI 756f4 .cfa: sp 128 +
STACK CFI 75704 .cfa: x29 48 + x19: .cfa -8 + ^ x20: .cfa -16 + ^ x21: .cfa -32 + ^ .ra: .cfa -40 + ^ x29: .cfa -48 + ^
STACK CFI 757c8 .cfa: sp 128 +
STACK CFI 757d8 .cfa: sp 0 +
STACK CFI 757dc .cfa: x29 48 +
STACK CFI INIT 757e0 4 .cfa: sp 0 +
STACK CFI INIT 757e4 4 .cfa: sp 0 +
STACK CFI INIT 757e8 8 .cfa: sp 0 +
STACK CFI INIT 757f0 8 .cfa: sp 0 +
STACK CFI INIT 7595c 80 .cfa: sp 0 +
STACK CFI 75960 .cfa: sp 32 +
STACK CFI 75968 .cfa: x29 32 + x19: .cfa -8 + ^ x20: .cfa -16 + ^ .ra: .cfa -24 + ^ x29: .cfa -32 + ^
STACK CFI 759a0 .cfa: sp 32 +
STACK CFI 759a8 .cfa: sp 0 +
STACK CFI 759ac .cfa: x29 32 +
STACK CFI 759d0 .cfa: sp 32 +
STACK CFI 759d8 .cfa: sp 0 +
STACK CFI INIT 75e2c 40 .cfa: sp 0 +
STACK CFI 75e30 .cfa: sp 32 +
STACK CFI 75e38 .cfa: x29 32 + x19: .cfa -16 + ^ .ra: .cfa -24 + ^ x29: .cfa -32 + ^
STACK CFI 75e60 .cfa: sp 32 +
STACK CFI 75e68 .cfa: sp 0 +
STACK CFI INIT 75e6c 20 .cfa: sp 0 +
STACK CFI INIT 75e8c 1c .cfa: sp 0 +
STACK CFI INIT 760a4 10 .cfa: sp 0 +
STACK CFI INIT 761d0 94 .cfa: sp 0 +
STACK CFI 761d4 .cfa: sp 80 +
STACK CFI 761e4 .cfa: x29 48 + x19: .cfa -8 + ^ x20: .cfa -16 + ^ x21: .cfa -24 + ^ x22: .cfa -32 + ^ .ra: .cfa -40 + ^ x29: .cfa -48 + ^
STACK CFI 7624c .cfa: sp 80 +
STACK CFI 7625c .cfa: sp 0 +
STACK CFI 76260 .cfa: x29 48 +
STACK CFI INIT 763d8 80 .cfa: sp 0 +
STACK CFI 763dc .cfa: sp 32 +
STACK CFI 763e4 .cfa: x29 32 + x19: .cfa -8 + ^ x20: .cfa -16 + ^ .ra: .cfa -24 + ^ x29: .cfa -32 + ^
STACK CFI 7641c .cfa: sp 32 +
STACK CFI 76424 .cfa: sp 0 +
STACK CFI 76428 .cfa: x29 32 +
STACK CFI 7644c .cfa: sp 32 +
STACK CFI 76454 .cfa: sp 0 +
STACK CFI INIT 76b58 18 .cfa: sp 0 +
STACK CFI INIT 76b70 c .cfa: sp 0 +
STACK CFI INIT 76b7c 24 .cfa: sp 0 +
STACK CFI 76b80 .cfa: sp 32 +
STACK CFI 76b88 .cfa: x29 32 + x19: .cfa -16 + ^ .ra: .cfa -24 + ^ x29: .cfa -32 + ^
STACK CFI 76b94 .cfa: sp 32 +
STACK CFI 76b9c .cfa: sp 0 +
STACK CFI INIT 76ba0 10 .cfa: sp 0 +
STACK CFI INIT 76bb0 30 .cfa: sp 0 +
STACK CFI 76bb4 .cfa: sp 32 +
STACK CFI 76bbc .cfa: x29 32 + x19: .cfa -16 + ^ .ra: .cfa -24 + ^ x29: .cfa -32 + ^
STACK CFI 76bd4 .cfa: sp 32 +
STACK CFI 76bdc .cfa: sp 0 +
STACK CFI INIT 76be0 8 .cfa: sp 0 +
STACK CFI INIT 76be8 4 .cfa: sp 0 +
STACK CFI INIT 76d24 3c .cfa: sp 0 +
STACK CFI 76d28 .cfa: sp 32 +
STACK CFI 76d30 .cfa: x29 32 + x19: .cfa -16 + ^ .ra: .cfa -24 + ^ x29: .cfa -32 + ^
STACK CFI 76d3c .cfa: sp 32 +
STACK CFI 76d44 .cfa: sp 0 +
STACK CFI 76d48 .cfa: x29 32 +
STACK CFI 76d54 .cfa: sp 32 +
STACK CFI 76d5c .cfa: sp 0 +
STACK CFI INIT 76d60 4c .cfa: sp 0 +
STACK CFI 76d64 .cfa: sp 32 +
STACK CFI 76d6c .cfa: x29 32 + x19: .cfa -8 + ^ x20: .cfa -16 + ^ .ra: .cfa -24 + ^ x29: .cfa -32 + ^
STACK CFI 76d94 .cfa: sp 32 +
STACK CFI 76d9c .cfa: sp 0 +
STACK CFI 76da0 .cfa: sp 32 +
STACK CFI 76da8 .cfa: sp 0 +
STACK CFI INIT 76fcc 64 .cfa: sp 0 +
STACK CFI 76fd0 .cfa: sp 32 +
STACK CFI 76fd8 .cfa: x29 32 + x19: .cfa -16 + ^ .ra: .cfa -24 + ^ x29: .cfa -32 + ^
STACK CFI 77004 .cfa: sp 32 +
STACK CFI 7700c .cfa: sp 0 +
STACK CFI 77010 .cfa: x29 32 +
STACK CFI 77024 .cfa: sp 32 +
STACK CFI 7702c .cfa: sp 0 +
STACK CFI INIT 77030 24 .cfa: sp 0 +
STACK CFI 77034 .cfa: sp 32 +
STACK CFI 7703c .cfa: x29 32 + x19: .cfa -16 + ^ .ra: .cfa -24 + ^ x29: .cfa -32 + ^
STACK CFI 77048 .cfa: sp 32 +
STACK CFI 77050 .cfa: sp 0 +
STACK CFI INIT 772b0 24 .cfa: sp 0 +
STACK CFI 772b4 .cfa: sp 32 +
STACK CFI 772bc .cfa: x29 32 + x19: .cfa -16 + ^ .ra: .cfa -24 + ^ x29: .cfa -32 + ^
STACK CFI 772c8 .cfa: sp 32 +
STACK CFI 772d0 .cfa: sp 0 +
STACK CFI INIT 772d4 8 .cfa: sp 0 +
STACK CFI INIT 772dc 24 .cfa: sp 0 +
STACK CFI 772e0 .cfa: sp 32 +
STACK CFI 772e8 .cfa: x29 32 + x19: .cfa -16 + ^ .ra: .cfa -24 + ^ x29: .cfa -32 + ^
STACK CFI 772f4 .cfa: sp 32 +
STACK CFI 772fc .cfa: sp 0 +
STACK CFI INIT 77300 28 .cfa: sp 0 +
STACK CFI 77304 .cfa: sp 32 +
STACK CFI 7730c .cfa: x29 32 + x19: .cfa -16 + ^ .ra: .cfa -24 + ^ x29: .cfa -32 + ^
STACK CFI 7731c .cfa: sp 32 +
STACK CFI 77324 .cfa: sp 0 +
STACK CFI INIT 77628 8 .cfa: sp 0 +
STACK CFI INIT 77630 24 .cfa: sp 0 +
STACK CFI 77634 .cfa: sp 32 +
STACK CFI 7763c .cfa: x29 32 + x19: .cfa -16 + ^ .ra: .cfa -24 + ^ x29: .cfa -32 + ^
STACK CFI 77648 .cfa: sp 32 +
STACK CFI 77650 .cfa: sp 0 +
STACK CFI INIT 77654 28 .cfa: sp 0 +
STACK CFI 77658 .cfa: sp 32 +
STACK CFI 77660 .cfa: x29 32 + x19: .cfa -16 + ^ .ra: .cfa -24 + ^ x29: .cfa -32 + ^
STACK CFI 77670 .cfa: sp 32 +
STACK CFI 77678 .cfa: sp 0 +
STACK CFI INIT 778e0 8 .cfa: sp 0 +
STACK CFI INIT 778e8 24 .cfa: sp 0 +
STACK CFI 778ec .cfa: sp 32 +
STACK CFI 778f4 .cfa: x29 32 + x19: .cfa -16 + ^ .ra: .cfa -24 + ^ x29: .cfa -32 + ^
STACK CFI 77900 .cfa: sp 32 +
STACK CFI 77908 .cfa: sp 0 +
STACK CFI INIT 7790c 28 .cfa: sp 0 +
STACK CFI 77910 .cfa: sp 32 +
STACK CFI 77918 .cfa: x29 32 + x19: .cfa -16 + ^ .ra: .cfa -24 + ^ x29: .cfa -32 + ^
STACK CFI 77928 .cfa: sp 32 +
STACK CFI 77930 .cfa: sp 0 +
STACK CFI INIT 77aa8 8 .cfa: sp 0 +
STACK CFI INIT 77ab0 24 .cfa: sp 0 +
STACK CFI 77ab4 .cfa: sp 32 +
STACK CFI 77abc .cfa: x29 32 + x19: .cfa -16 + ^ .ra: .cfa -24 + ^ x29: .cfa -32 + ^
STACK CFI 77ac8 .cfa: sp 32 +
STACK CFI 77ad0 .cfa: sp 0 +
STACK CFI INIT 77ad4 28 .cfa: sp 0 +
STACK CFI 77ad8 .cfa: sp 32 +
STACK CFI 77ae0 .cfa: x29 32 + x19: .cfa -16 + ^ .ra: .cfa -24 + ^ x29: .cfa -32 + ^
STACK CFI 77af0 .cfa: sp 32 +
STACK CFI 77af8 .cfa: sp 0 +
STACK CFI INIT 78198 1f8 .cfa: sp 0 +
STACK CFI 7819c .cfa: sp 112 +
STACK CFI 781bc .cfa: x29 72 + x19: .cfa -8 + ^ x20: .cfa -16 + ^ x21: .cfa -24 + ^ x22: .cfa -32 + ^ x23: .cfa -40 + ^ x24: .cfa -48 + ^ x25: .cfa -56 + ^ .ra: .cfa -64 + ^ x29: .cfa -72 + ^ v8: .cfa -80 + ^ v9: .cfa -88 + ^ v10: .cfa -96 + ^
STACK CFI 78368 .cfa: sp 112 +
STACK CFI 78388 .cfa: sp 0 +
STACK CFI 7838c .cfa: x29 72 +
STACK CFI INIT 78724 4 .cfa: sp 0 +
STACK CFI INIT 78728 4 .cfa: sp 0 +
STACK CFI INIT 78c94 8 .cfa: sp 0 +
STACK CFI INIT 78c9c 24 .cfa: sp 0 +
STACK CFI 78ca0 .cfa: sp 32 +
STACK CFI 78ca8 .cfa: x29 32 + x19: .cfa -16 + ^ .ra: .cfa -24 + ^ x29: .cfa -32 + ^
STACK CFI 78cb4 .cfa: sp 32 +
STACK CFI 78cbc .cfa: sp 0 +
STACK CFI INIT 78cc0 28 .cfa: sp 0 +
STACK CFI 78cc4 .cfa: sp 32 +
STACK CFI 78ccc .cfa: x29 32 + x19: .cfa -16 + ^ .ra: .cfa -24 + ^ x29: .cfa -32 + ^
STACK CFI 78cdc .cfa: sp 32 +
STACK CFI 78ce4 .cfa: sp 0 +
STACK CFI INIT 78ce8 8 .cfa: sp 0 +
STACK CFI INIT 78cf0 8 .cfa: sp 0 +
STACK CFI INIT 78cf8 4 .cfa: sp 0 +
STACK CFI INIT 78cfc 4 .cfa: sp 0 +
STACK CFI INIT 78d00 4 .cfa: sp 0 +
STACK CFI INIT 78d04 4 .cfa: sp 0 +
STACK CFI INIT 78d08 4 .cfa: sp 0 +
STACK CFI INIT 78d0c 4 .cfa: sp 0 +
STACK CFI INIT 78f90 8 .cfa: sp 0 +
STACK CFI INIT 79218 8 .cfa: sp 0 +
STACK CFI INIT 794a0 8 .cfa: sp 0 +
STACK CFI INIT 79c2c 4 .cfa: sp 0 +
STACK CFI INIT 7add0 4 .cfa: sp 0 +
STACK CFI INIT 7add4 14 .cfa: sp 0 +
STACK CFI INIT 7b2f4 c .cfa: sp 0 +
STACK CFI INIT 7b300 24c .cfa: sp 0 +
STACK CFI INIT 7b54c a0 .cfa: sp 0 +
STACK CFI 7b558 .cfa: sp 32 +
STACK CFI 7b5b0 .cfa: sp 0 +
STACK CFI 7b5b4 .cfa: sp 32 +
STACK CFI 7b5bc .cfa: sp 0 +
STACK CFI 7b5c0 .cfa: sp 32 +
STACK CFI 7b5d4 .cfa: sp 0 +
STACK CFI 7b5d8 .cfa: sp 32 +
STACK CFI 7b5e8 .cfa: sp 0 +
STACK CFI INIT 7b5ec 38 .cfa: sp 0 +
STACK CFI 7b5f8 .cfa: sp 32 +
STACK CFI 7b620 .cfa: sp 0 +
STACK CFI INIT 7b8b8 7c .cfa: sp 0 +
STACK CFI 7b8bc .cfa: sp 32 +
STACK CFI 7b8c4 .cfa: x29 32 + x19: .cfa -16 + ^ .ra: .cfa -24 + ^ x29: .cfa -32 + ^
STACK CFI 7b8f0 .cfa: sp 32 +
STACK CFI 7b8f8 .cfa: sp 0 +
STACK CFI 7b8fc .cfa: x29 32 +
STACK CFI 7b928 .cfa: sp 32 +
STACK CFI 7b930 .cfa: sp 0 +
STACK CFI INIT 7b984 2c .cfa: sp 0 +
STACK CFI 7b988 .cfa: sp 32 +
STACK CFI 7b990 .cfa: x29 32 + x19: .cfa -16 + ^ .ra: .cfa -24 + ^ x29: .cfa -32 + ^
STACK CFI 7b9a4 .cfa: sp 32 +
STACK CFI 7b9ac .cfa: sp 0 +
STACK CFI INIT 7c170 64 .cfa: sp 0 +
STACK CFI 7c174 .cfa: sp 32 +
STACK CFI 7c17c .cfa: x29 32 + x19: .cfa -16 + ^ .ra: .cfa -24 + ^ x29: .cfa -32 + ^
STACK CFI 7c198 .cfa: sp 32 +
STACK CFI 7c1a0 .cfa: sp 0 +
STACK CFI 7c1a4 .cfa: x29 32 +
STACK CFI 7c1c8 .cfa: sp 32 +
STACK CFI 7c1d0 .cfa: sp 0 +
STACK CFI INIT 7c1d4 570 .cfa: sp 0 +
STACK CFI 7c1d8 .cfa: sp 176 +
STACK CFI 7c1ec .cfa: x29 64 + x19: .cfa -8 + ^ x20: .cfa -16 + ^ x21: .cfa -24 + ^ x22: .cfa -32 + ^ x23: .cfa -40 + ^ x24: .cfa -48 + ^ .ra: .cfa -56 + ^ x29: .cfa -64 + ^
STACK CFI 7c41c .cfa: sp 176 +
STACK CFI 7c430 .cfa: sp 0 +
STACK CFI 7c434 .cfa: x29 64 +
STACK CFI 7c480 .cfa: sp 176 +
STACK CFI 7c494 .cfa: sp 0 +
STACK CFI 7c498 .cfa: x29 64 +
STACK CFI 7c4d0 .cfa: sp 176 +
STACK CFI 7c4e4 .cfa: sp 0 +
STACK CFI 7c4e8 .cfa: x29 64 +
STACK CFI 7c500 .cfa: sp 176 +
STACK CFI 7c514 .cfa: sp 0 +
STACK CFI 7c518 .cfa: x29 64 +
STACK CFI 7c538 .cfa: sp 176 +
STACK CFI 7c54c .cfa: sp 0 +
STACK CFI 7c550 .cfa: x29 64 +
STACK CFI 7c568 .cfa: sp 176 +
STACK CFI 7c57c .cfa: sp 0 +
STACK CFI 7c580 .cfa: x29 64 +
STACK CFI 7c594 .cfa: sp 176 +
STACK CFI 7c5a8 .cfa: sp 0 +
STACK CFI 7c5ac .cfa: x29 64 +
STACK CFI 7c5c0 .cfa: sp 176 +
STACK CFI 7c5d4 .cfa: sp 0 +
STACK CFI 7c5d8 .cfa: x29 64 +
STACK CFI 7c5e8 .cfa: sp 176 +
STACK CFI 7c5fc .cfa: sp 0 +
STACK CFI 7c600 .cfa: x29 64 +
STACK CFI 7c610 .cfa: sp 176 +
STACK CFI 7c624 .cfa: sp 0 +
STACK CFI 7c628 .cfa: x29 64 +
STACK CFI 7c640 .cfa: sp 176 +
STACK CFI 7c654 .cfa: sp 0 +
STACK CFI 7c658 .cfa: x29 64 +
STACK CFI 7c66c .cfa: sp 176 +
STACK CFI 7c680 .cfa: sp 0 +
STACK CFI 7c684 .cfa: x29 64 +
STACK CFI 7c69c .cfa: sp 176 +
STACK CFI 7c6b0 .cfa: sp 0 +
STACK CFI 7c6b4 .cfa: x29 64 +
STACK CFI 7c6e0 .cfa: sp 176 +
STACK CFI 7c6f4 .cfa: sp 0 +
STACK CFI 7c6f8 .cfa: x29 64 +
STACK CFI 7c70c .cfa: sp 176 +
STACK CFI 7c720 .cfa: sp 0 +
STACK CFI 7c724 .cfa: x29 64 +
STACK CFI INIT 7c744 228 .cfa: sp 0 +
STACK CFI INIT 7c96c 2dc .cfa: sp 0 +
STACK CFI INIT 7cc48 53c .cfa: sp 0 +
STACK CFI INIT 7d184 78 .cfa: sp 0 +
STACK CFI 7d188 .cfa: sp 48 +
STACK CFI 7d194 .cfa: x29 48 + x19: .cfa -8 + ^ x20: .cfa -16 + ^ x21: .cfa -24 + ^ x22: .cfa -32 + ^ .ra: .cfa -40 + ^ x29: .cfa -48 + ^
STACK CFI 7d1dc .cfa: sp 48 +
STACK CFI 7d1e8 .cfa: sp 0 +
STACK CFI 7d1ec .cfa: sp 48 +
STACK CFI 7d1f8 .cfa: sp 0 +
STACK CFI INIT 7d1fc 8c .cfa: sp 0 +
STACK CFI 7d200 .cfa: sp 32 +
STACK CFI 7d208 .cfa: x29 32 + x19: .cfa -16 + ^ .ra: .cfa -24 + ^ x29: .cfa -32 + ^
STACK CFI 7d23c .cfa: sp 32 +
STACK CFI 7d244 .cfa: sp 0 +
STACK CFI 7d248 .cfa: x29 32 +
STACK CFI 7d27c .cfa: sp 32 +
STACK CFI 7d284 .cfa: sp 0 +
STACK CFI INIT 7d288 24 .cfa: sp 0 +
STACK CFI 7d28c .cfa: sp 32 +
STACK CFI 7d294 .cfa: x29 32 + x19: .cfa -16 + ^ .ra: .cfa -24 + ^ x29: .cfa -32 + ^
STACK CFI 7d2a0 .cfa: sp 32 +
STACK CFI 7d2a8 .cfa: sp 0 +
STACK CFI INIT 7d2ac 150 .cfa: sp 0 +
STACK CFI 7d2b0 .cfa: sp 48 +
STACK CFI 7d2bc .cfa: x29 48 + x19: .cfa -8 + ^ x20: .cfa -16 + ^ x21: .cfa -24 + ^ x22: .cfa -32 + ^ .ra: .cfa -40 + ^ x29: .cfa -48 + ^
STACK CFI 7d3ec .cfa: sp 48 +
STACK CFI 7d3f8 .cfa: sp 0 +
STACK CFI INIT 7d3fc 68 .cfa: sp 0 +
STACK CFI 7d400 .cfa: sp 64 +
STACK CFI 7d40c .cfa: x29 32 + x19: .cfa -16 + ^ .ra: .cfa -24 + ^ x29: .cfa -32 + ^
STACK CFI 7d450 .cfa: sp 64 +
STACK CFI 7d45c .cfa: sp 0 +
STACK CFI 7d460 .cfa: x29 32 +
STACK CFI INIT 7d464 90 .cfa: sp 0 +
STACK CFI 7d468 .cfa: sp 32 +
STACK CFI 7d470 .cfa: x29 32 + x19: .cfa -8 + ^ x20: .cfa -16 + ^ .ra: .cfa -24 + ^ x29: .cfa -32 + ^
STACK CFI 7d49c .cfa: sp 32 +
STACK CFI 7d4a4 .cfa: sp 0 +
STACK CFI 7d4a8 .cfa: x29 32 +
STACK CFI 7d4e8 .cfa: sp 32 +
STACK CFI 7d4f0 .cfa: sp 0 +
STACK CFI INIT 7d4f4 ec .cfa: sp 0 +
STACK CFI 7d4f8 .cfa: sp 112 +
STACK CFI 7d508 .cfa: x29 48 + x19: .cfa -8 + ^ x20: .cfa -16 + ^ x21: .cfa -32 + ^ .ra: .cfa -40 + ^ x29: .cfa -48 + ^
STACK CFI 7d5c8 .cfa: sp 112 +
STACK CFI 7d5d8 .cfa: sp 0 +
STACK CFI 7d5dc .cfa: x29 48 +
STACK CFI INIT 7d5e0 ec .cfa: sp 0 +
STACK CFI 7d5e4 .cfa: sp 112 +
STACK CFI 7d5f4 .cfa: x29 48 + x19: .cfa -8 + ^ x20: .cfa -16 + ^ x21: .cfa -32 + ^ .ra: .cfa -40 + ^ x29: .cfa -48 + ^
STACK CFI 7d6b4 .cfa: sp 112 +
STACK CFI 7d6c4 .cfa: sp 0 +
STACK CFI 7d6c8 .cfa: x29 48 +
STACK CFI INIT 7d6cc 48 .cfa: sp 0 +
STACK CFI 7d6d0 .cfa: sp 32 +
STACK CFI 7d6d8 .cfa: x29 32 + x19: .cfa -8 + ^ x20: .cfa -16 + ^ .ra: .cfa -24 + ^ x29: .cfa -32 + ^
STACK CFI 7d6fc .cfa: sp 32 +
STACK CFI 7d704 .cfa: sp 0 +
STACK CFI 7d708 .cfa: x29 32 +
STACK CFI INIT 7d714 98 .cfa: sp 0 +
STACK CFI 7d718 .cfa: sp 80 +
STACK CFI 7d724 .cfa: x29 32 + x19: .cfa -16 + ^ .ra: .cfa -24 + ^ x29: .cfa -32 + ^
STACK CFI 7d798 .cfa: sp 80 +
STACK CFI 7d7a4 .cfa: sp 0 +
STACK CFI 7d7a8 .cfa: x29 32 +
STACK CFI INIT 7d7ac 260 .cfa: sp 0 +
STACK CFI 7d7b0 .cfa: sp 112 +
STACK CFI 7d7c8 .cfa: x29 80 + x19: .cfa -8 + ^ x20: .cfa -16 + ^ x21: .cfa -24 + ^ x22: .cfa -32 + ^ x23: .cfa -40 + ^ x24: .cfa -48 + ^ x25: .cfa -64 + ^ .ra: .cfa -72 + ^ x29: .cfa -80 + ^
STACK CFI 7d9ac .cfa: sp 112 +
STACK CFI 7d9c4 .cfa: sp 0 +
STACK CFI 7d9c8 .cfa: x29 80 +
STACK CFI INIT 7da0c 150 .cfa: sp 0 +
STACK CFI 7da10 .cfa: sp 48 +
STACK CFI 7da1c .cfa: x29 48 + x19: .cfa -8 + ^ x20: .cfa -16 + ^ x21: .cfa -24 + ^ x22: .cfa -32 + ^ .ra: .cfa -40 + ^ x29: .cfa -48 + ^
STACK CFI 7db4c .cfa: sp 48 +
STACK CFI 7db58 .cfa: sp 0 +
STACK CFI INIT 7db5c 1e0 .cfa: sp 0 +
STACK CFI 7db60 .cfa: sp 96 +
STACK CFI 7db74 .cfa: x29 64 + x19: .cfa -8 + ^ x20: .cfa -16 + ^ x21: .cfa -24 + ^ x22: .cfa -32 + ^ x23: .cfa -40 + ^ x24: .cfa -48 + ^ .ra: .cfa -56 + ^ x29: .cfa -64 + ^
STACK CFI 7dcf4 .cfa: sp 96 +
STACK CFI 7dd08 .cfa: sp 0 +
STACK CFI 7dd0c .cfa: x29 64 +
STACK CFI INIT 7dd3c 284 .cfa: sp 0 +
STACK CFI 7dd40 .cfa: sp 112 +
STACK CFI 7dd58 .cfa: x29 80 + x19: .cfa -8 + ^ x20: .cfa -16 + ^ x21: .cfa -24 + ^ x22: .cfa -32 + ^ x23: .cfa -40 + ^ x24: .cfa -48 + ^ x25: .cfa -64 + ^ .ra: .cfa -72 + ^ x29: .cfa -80 + ^
STACK CFI 7df60 .cfa: sp 112 +
STACK CFI 7df78 .cfa: sp 0 +
STACK CFI 7df7c .cfa: x29 80 +
STACK CFI INIT 7dfc0 208 .cfa: sp 0 +
STACK CFI 7dfc4 .cfa: sp 96 +
STACK CFI 7dfd8 .cfa: x29 64 + x19: .cfa -8 + ^ x20: .cfa -16 + ^ x21: .cfa -24 + ^ x22: .cfa -32 + ^ x23: .cfa -40 + ^ x24: .cfa -48 + ^ .ra: .cfa -56 + ^ x29: .cfa -64 + ^
STACK CFI 7e180 .cfa: sp 96 +
STACK CFI 7e194 .cfa: sp 0 +
STACK CFI 7e198 .cfa: x29 64 +
STACK CFI INIT 7e1c8 360 .cfa: sp 0 +
STACK CFI 7e1cc .cfa: sp 160 +
STACK CFI 7e1e8 .cfa: x29 96 + x19: .cfa -8 + ^ x20: .cfa -16 + ^ x21: .cfa -24 + ^ x22: .cfa -32 + ^ x23: .cfa -40 + ^ x24: .cfa -48 + ^ x25: .cfa -56 + ^ x26: .cfa -64 + ^ x27: .cfa -72 + ^ x28: .cfa -80 + ^ .ra: .cfa -88 + ^ x29: .cfa -96 + ^
STACK CFI 7e4b4 .cfa: sp 160 +
STACK CFI 7e4d0 .cfa: sp 0 +
STACK CFI 7e4d4 .cfa: x29 96 +
STACK CFI INIT 7e528 314 .cfa: sp 0 +
STACK CFI 7e52c .cfa: sp 144 +
STACK CFI 7e548 .cfa: x29 96 + x19: .cfa -8 + ^ x20: .cfa -16 + ^ x21: .cfa -24 + ^ x22: .cfa -32 + ^ x23: .cfa -40 + ^ x24: .cfa -48 + ^ x25: .cfa -56 + ^ x26: .cfa -64 + ^ x27: .cfa -72 + ^ x28: .cfa -80 + ^ .ra: .cfa -88 + ^ x29: .cfa -96 + ^
STACK CFI 7e7c4 .cfa: sp 144 +
STACK CFI 7e7e0 .cfa: sp 0 +
STACK CFI 7e7e4 .cfa: x29 96 +
STACK CFI INIT 7e83c 290 .cfa: sp 0 +
STACK CFI 7e840 .cfa: sp 128 +
STACK CFI 7e858 .cfa: x29 80 + x19: .cfa -8 + ^ x20: .cfa -16 + ^ x21: .cfa -24 + ^ x22: .cfa -32 + ^ x23: .cfa -40 + ^ x24: .cfa -48 + ^ x25: .cfa -56 + ^ x26: .cfa -64 + ^ .ra: .cfa -72 + ^ x29: .cfa -80 + ^
STACK CFI 7eaac .cfa: sp 128 +
STACK CFI 7eac4 .cfa: sp 0 +
STACK CFI 7eac8 .cfa: x29 80 +
STACK CFI INIT 7eacc ddc .cfa: sp 0 +
STACK CFI 7ead0 .cfa: sp 144 +
STACK CFI 7eaec .cfa: x29 96 + x19: .cfa -8 + ^ x20: .cfa -16 + ^ x21: .cfa -24 + ^ x22: .cfa -32 + ^ x23: .cfa -40 + ^ x24: .cfa -48 + ^ x25: .cfa -56 + ^ x26: .cfa -64 + ^ x27: .cfa -72 + ^ x28: .cfa -80 + ^ .ra: .cfa -88 + ^ x29: .cfa -96 + ^
STACK CFI 7f780 .cfa: sp 144 +
STACK CFI 7f79c .cfa: sp 0 +
STACK CFI 7f7a0 .cfa: x29 96 +
STACK CFI INIT 7f8a8 1d0 .cfa: sp 0 +
STACK CFI 7f8ac .cfa: sp 80 +
STACK CFI 7f8c0 .cfa: x29 80 + x19: .cfa -8 + ^ x20: .cfa -16 + ^ x21: .cfa -24 + ^ x22: .cfa -32 + ^ x23: .cfa -40 + ^ x24: .cfa -48 + ^ x25: .cfa -64 + ^ .ra: .cfa -72 + ^ x29: .cfa -80 + ^
STACK CFI 7fa60 .cfa: sp 80 +
STACK CFI 7fa74 .cfa: sp 0 +
STACK CFI INIT 7fa78 23c .cfa: sp 0 +
STACK CFI 7fa7c .cfa: sp 112 +
STACK CFI 7fa90 .cfa: x29 64 + x19: .cfa -8 + ^ x20: .cfa -16 + ^ x21: .cfa -24 + ^ x22: .cfa -32 + ^ x23: .cfa -40 + ^ x24: .cfa -48 + ^ .ra: .cfa -56 + ^ x29: .cfa -64 + ^
STACK CFI 7fc6c .cfa: sp 112 +
STACK CFI 7fc80 .cfa: sp 0 +
STACK CFI 7fc84 .cfa: x29 64 +
STACK CFI INIT 7fcb4 30c .cfa: sp 0 +
STACK CFI 7fcb8 .cfa: sp 80 +
STACK CFI 7fccc .cfa: x29 64 + x19: .cfa -8 + ^ x20: .cfa -16 + ^ x21: .cfa -24 + ^ x22: .cfa -32 + ^ x23: .cfa -40 + ^ x24: .cfa -48 + ^ .ra: .cfa -56 + ^ x29: .cfa -64 + ^
STACK CFI 7fe48 .cfa: sp 80 +
STACK CFI 7fe5c .cfa: sp 0 +
STACK CFI 7fe60 .cfa: x29 64 +
STACK CFI INIT 7ffc0 178 .cfa: sp 0 +
STACK CFI 7ffc4 .cfa: sp 80 +
STACK CFI 7ffd8 .cfa: x29 64 + x19: .cfa -8 + ^ x20: .cfa -16 + ^ x21: .cfa -24 + ^ x22: .cfa -32 + ^ x23: .cfa -40 + ^ x24: .cfa -48 + ^ .ra: .cfa -56 + ^ x29: .cfa -64 + ^
STACK CFI 8011c .cfa: sp 80 +
STACK CFI 80130 .cfa: sp 0 +
STACK CFI 80134 .cfa: x29 64 +
STACK CFI INIT 80138 178 .cfa: sp 0 +
STACK CFI 8013c .cfa: sp 80 +
STACK CFI 80150 .cfa: x29 64 + x19: .cfa -8 + ^ x20: .cfa -16 + ^ x21: .cfa -24 + ^ x22: .cfa -32 + ^ x23: .cfa -40 + ^ x24: .cfa -48 + ^ .ra: .cfa -56 + ^ x29: .cfa -64 + ^
STACK CFI 80294 .cfa: sp 80 +
STACK CFI 802a8 .cfa: sp 0 +
STACK CFI 802ac .cfa: x29 64 +
STACK CFI INIT 802b0 240 .cfa: sp 0 +
STACK CFI 802b4 .cfa: sp 96 +
STACK CFI 802cc .cfa: x29 96 + x19: .cfa -8 + ^ x20: .cfa -16 + ^ x21: .cfa -24 + ^ x22: .cfa -32 + ^ x23: .cfa -40 + ^ x24: .cfa -48 + ^ x25: .cfa -56 + ^ x26: .cfa -64 + ^ x27: .cfa -72 + ^ x28: .cfa -80 + ^ .ra: .cfa -88 + ^ x29: .cfa -96 + ^
STACK CFI 804d4 .cfa: sp 96 +
STACK CFI 804ec .cfa: sp 0 +
STACK CFI INIT 81164 154 .cfa: sp 0 +
STACK CFI 81168 .cfa: sp 96 +
STACK CFI 8117c .cfa: x29 64 + x19: .cfa -8 + ^ x20: .cfa -16 + ^ x21: .cfa -24 + ^ x22: .cfa -32 + ^ x23: .cfa -48 + ^ .ra: .cfa -56 + ^ x29: .cfa -64 + ^
STACK CFI 8125c .cfa: sp 96 +
STACK CFI 81270 .cfa: sp 0 +
STACK CFI 81274 .cfa: x29 64 +
STACK CFI INIT 81524 44 .cfa: sp 0 +
STACK CFI 81528 .cfa: sp 32 +
STACK CFI 81530 .cfa: x29 32 + x19: .cfa -16 + ^ .ra: .cfa -24 + ^ x29: .cfa -32 + ^
STACK CFI 8154c .cfa: sp 32 +
STACK CFI 81554 .cfa: sp 0 +
STACK CFI 81558 .cfa: x29 32 +
STACK CFI 8155c .cfa: sp 32 +
STACK CFI 81564 .cfa: sp 0 +
STACK CFI INIT 81568 1d0 .cfa: sp 0 +
STACK CFI 8156c .cfa: sp 64 +
STACK CFI 8157c .cfa: x29 64 + x19: .cfa -8 + ^ x20: .cfa -16 + ^ x21: .cfa -24 + ^ x22: .cfa -32 + ^ x23: .cfa -40 + ^ x24: .cfa -48 + ^ .ra: .cfa -56 + ^ x29: .cfa -64 + ^
STACK CFI 8163c .cfa: sp 64 +
STACK CFI 8164c .cfa: sp 0 +
STACK CFI 81650 .cfa: x29 64 +
STACK CFI INIT 81738 17c .cfa: sp 0 +
STACK CFI INIT 81c6c a0 .cfa: sp 0 +
STACK CFI 81c70 .cfa: sp 48 +
STACK CFI 81c7c .cfa: x29 48 + x19: .cfa -8 + ^ x20: .cfa -16 + ^ x21: .cfa -24 + ^ x22: .cfa -32 + ^ .ra: .cfa -40 + ^ x29: .cfa -48 + ^
STACK CFI 81ce8 .cfa: sp 48 +
STACK CFI 81cf4 .cfa: sp 0 +
STACK CFI 81cf8 .cfa: sp 48 +
STACK CFI 81d04 .cfa: sp 0 +
STACK CFI 81d08 .cfa: x29 48 +
STACK CFI INIT 829c0 158 .cfa: sp 0 +
STACK CFI 829c4 .cfa: sp 96 +
STACK CFI 829d8 .cfa: x29 64 + x19: .cfa -8 + ^ x20: .cfa -16 + ^ x21: .cfa -24 + ^ x22: .cfa -32 + ^ x23: .cfa -48 + ^ .ra: .cfa -56 + ^ x29: .cfa -64 + ^
STACK CFI 82abc .cfa: sp 96 +
STACK CFI 82ad0 .cfa: sp 0 +
STACK CFI 82ad4 .cfa: x29 64 +
STACK CFI INIT 82b18 190 .cfa: sp 0 +
STACK CFI INIT 837a4 1dc .cfa: sp 0 +
STACK CFI 837a8 .cfa: sp 80 +
STACK CFI 837bc .cfa: x29 80 + x19: .cfa -8 + ^ x20: .cfa -16 + ^ x21: .cfa -24 + ^ x22: .cfa -32 + ^ x23: .cfa -40 + ^ x24: .cfa -48 + ^ x25: .cfa -64 + ^ .ra: .cfa -72 + ^ x29: .cfa -80 + ^
STACK CFI 83968 .cfa: sp 80 +
STACK CFI 8397c .cfa: sp 0 +
STACK CFI INIT 84db0 124 .cfa: sp 0 +
STACK CFI 84de0 .cfa: sp 32 +
STACK CFI 84de8 .cfa: x29 32 + x19: .cfa -8 + ^ x20: .cfa -16 + ^ .ra: .cfa -24 + ^ x29: .cfa -32 + ^
STACK CFI 84ec8 .cfa: sp 32 +
STACK CFI 84ed0 .cfa: sp 0 +
STACK CFI INIT 85630 320 .cfa: sp 0 +
STACK CFI 85634 .cfa: sp 64 +
STACK CFI 85644 .cfa: x29 64 + x19: .cfa -8 + ^ x20: .cfa -16 + ^ x21: .cfa -24 + ^ x22: .cfa -32 + ^ x23: .cfa -40 + ^ x24: .cfa -48 + ^ .ra: .cfa -56 + ^ x29: .cfa -64 + ^
STACK CFI 856c0 .cfa: sp 64 +
STACK CFI 856d0 .cfa: sp 0 +
STACK CFI 856d4 .cfa: x29 64 +
STACK CFI 858a8 .cfa: sp 64 +
STACK CFI 858b8 .cfa: sp 0 +
STACK CFI 858bc .cfa: x29 64 +
STACK CFI 858cc .cfa: sp 64 +
STACK CFI 858dc .cfa: sp 0 +
STACK CFI 858e0 .cfa: x29 64 +
STACK CFI INIT 85950 a0 .cfa: sp 0 +
STACK CFI 85954 .cfa: sp 48 +
STACK CFI 85960 .cfa: x29 48 + x19: .cfa -8 + ^ x20: .cfa -16 + ^ x21: .cfa -24 + ^ x22: .cfa -32 + ^ .ra: .cfa -40 + ^ x29: .cfa -48 + ^
STACK CFI 859cc .cfa: sp 48 +
STACK CFI 859d8 .cfa: sp 0 +
STACK CFI 859dc .cfa: sp 48 +
STACK CFI 859e8 .cfa: sp 0 +
STACK CFI 859ec .cfa: x29 48 +
STACK CFI INIT 868a0 160 .cfa: sp 0 +
STACK CFI 868a4 .cfa: sp 64 +
STACK CFI 868b4 .cfa: x29 64 + x19: .cfa -8 + ^ x20: .cfa -16 + ^ x21: .cfa -24 + ^ x22: .cfa -32 + ^ x23: .cfa -48 + ^ .ra: .cfa -56 + ^ x29: .cfa -64 + ^
STACK CFI 869ac .cfa: sp 64 +
STACK CFI 869bc .cfa: sp 0 +
STACK CFI 869c0 .cfa: x29 64 +
STACK CFI INIT 86a00 214 .cfa: sp 0 +
STACK CFI 86a04 .cfa: sp 128 +
STACK CFI 86a20 .cfa: x29 96 + x19: .cfa -8 + ^ x20: .cfa -16 + ^ x21: .cfa -24 + ^ x22: .cfa -32 + ^ x23: .cfa -40 + ^ x24: .cfa -48 + ^ x25: .cfa -56 + ^ x26: .cfa -64 + ^ x27: .cfa -80 + ^ .ra: .cfa -88 + ^ x29: .cfa -96 + ^
STACK CFI 86b9c .cfa: sp 128 +
STACK CFI 86bb8 .cfa: sp 0 +
STACK CFI 86bbc .cfa: x29 96 +
STACK CFI INIT 888b0 290 .cfa: sp 0 +
STACK CFI 888b4 .cfa: sp 16 +
STACK CFI 888b8 .cfa: x29 16 + .ra: .cfa -8 + ^ x29: .cfa -16 + ^
STACK CFI 88944 .cfa: sp 16 +
STACK CFI 88948 .cfa: sp 0 +
STACK CFI 8894c .cfa: x29 16 +
STACK CFI 8899c .cfa: sp 16 +
STACK CFI 889a0 .cfa: sp 0 +
STACK CFI 889a4 .cfa: x29 16 +
STACK CFI 88b08 .cfa: sp 16 +
STACK CFI 88b0c .cfa: sp 0 +
STACK CFI 88b10 .cfa: x29 16 +
STACK CFI INIT 88b40 158 .cfa: sp 0 +
STACK CFI 88b44 .cfa: sp 112 +
STACK CFI 88b60 .cfa: x29 96 + x19: .cfa -8 + ^ x20: .cfa -16 + ^ x21: .cfa -24 + ^ x22: .cfa -32 + ^ x23: .cfa -40 + ^ x24: .cfa -48 + ^ x25: .cfa -56 + ^ x26: .cfa -64 + ^ x27: .cfa -72 + ^ x28: .cfa -80 + ^ .ra: .cfa -88 + ^ x29: .cfa -96 + ^
STACK CFI 88c48 .cfa: sp 112 +
STACK CFI 88c4c .cfa: x29 96 +
STACK CFI 88c54 .cfa: sp 112 +
STACK CFI 88c70 .cfa: sp 0 +
STACK CFI 88c74 .cfa: x29 96 +
STACK CFI 88c94 .cfa: sp 112 +
STACK CFI INIT 88c98 e54 .cfa: sp 0 +
STACK CFI 88c9c .cfa: sp 192 +
STACK CFI 88cb8 .cfa: x29 96 + x19: .cfa -8 + ^ x20: .cfa -16 + ^ x21: .cfa -24 + ^ x22: .cfa -32 + ^ x23: .cfa -40 + ^ x24: .cfa -48 + ^ x25: .cfa -56 + ^ x26: .cfa -64 + ^ x27: .cfa -72 + ^ x28: .cfa -80 + ^ .ra: .cfa -88 + ^ x29: .cfa -96 + ^
STACK CFI 899d4 .cfa: sp 192 +
STACK CFI 899f0 .cfa: sp 0 +
STACK CFI 899f4 .cfa: x29 96 +
STACK CFI INIT 89aec 1068 .cfa: sp 0 +
STACK CFI 89af0 .cfa: sp 288 +
STACK CFI 89b0c .cfa: x29 96 + x19: .cfa -8 + ^ x20: .cfa -16 + ^ x21: .cfa -24 + ^ x22: .cfa -32 + ^ x23: .cfa -40 + ^ x24: .cfa -48 + ^ x25: .cfa -56 + ^ x26: .cfa -64 + ^ x27: .cfa -72 + ^ x28: .cfa -80 + ^ .ra: .cfa -88 + ^ x29: .cfa -96 + ^
STACK CFI 8a89c .cfa: sp 288 +
STACK CFI 8a8b8 .cfa: sp 0 +
STACK CFI 8a8bc .cfa: x29 96 +
STACK CFI INIT 8ab54 520 .cfa: sp 0 +
STACK CFI 8ab58 .cfa: sp 144 +
STACK CFI 8ab74 .cfa: x29 96 + x19: .cfa -8 + ^ x20: .cfa -16 + ^ x21: .cfa -24 + ^ x22: .cfa -32 + ^ x23: .cfa -40 + ^ x24: .cfa -48 + ^ x25: .cfa -56 + ^ x26: .cfa -64 + ^ x27: .cfa -72 + ^ x28: .cfa -80 + ^ .ra: .cfa -88 + ^ x29: .cfa -96 + ^
STACK CFI 8b050 .cfa: sp 144 +
STACK CFI 8b06c .cfa: sp 0 +
STACK CFI 8b070 .cfa: x29 96 +
STACK CFI INIT 8ba14 136c .cfa: sp 0 +
STACK CFI 8ba18 .cfa: sp 224 +
STACK CFI 8ba34 .cfa: x29 96 + x19: .cfa -8 + ^ x20: .cfa -16 + ^ x21: .cfa -24 + ^ x22: .cfa -32 + ^ x23: .cfa -40 + ^ x24: .cfa -48 + ^ x25: .cfa -56 + ^ x26: .cfa -64 + ^ x27: .cfa -72 + ^ x28: .cfa -80 + ^ .ra: .cfa -88 + ^ x29: .cfa -96 + ^
STACK CFI 8cd5c .cfa: sp 224 +
STACK CFI 8cd78 .cfa: sp 0 +
STACK CFI 8cd7c .cfa: x29 96 +
STACK CFI INIT 8cd80 1b8 .cfa: sp 0 +
STACK CFI INIT 38f10 2d80 .cfa: sp 0 +
STACK CFI 38f14 .cfa: sp 96 +
STACK CFI 38f2c .cfa: x29 96 + x19: .cfa -8 + ^ x20: .cfa -16 + ^ x21: .cfa -24 + ^ x22: .cfa -32 + ^ x23: .cfa -40 + ^ x24: .cfa -48 + ^ x25: .cfa -56 + ^ x26: .cfa -64 + ^ x27: .cfa -72 + ^ x28: .cfa -80 + ^ .ra: .cfa -88 + ^ x29: .cfa -96 + ^
STACK CFI 3ac98 .cfa: sp 96 +
STACK CFI 3acb0 .cfa: sp 0 +
STACK CFI 3acb4 .cfa: x29 96 +
STACK CFI INIT 3bc90 108 .cfa: sp 0 +
STACK CFI 3bc94 .cfa: sp 48 +
STACK CFI 3bca0 .cfa: x29 48 + x19: .cfa -8 + ^ x20: .cfa -16 + ^ x21: .cfa -32 + ^ .ra: .cfa -40 + ^ x29: .cfa -48 + ^
STACK CFI 3bcf0 .cfa: sp 48 +
STACK CFI 3bcfc .cfa: sp 0 +
STACK CFI 3bd00 .cfa: x29 48 +
STACK CFI 3bd3c .cfa: sp 48 +
STACK CFI 3bd48 .cfa: sp 0 +
STACK CFI 3bd4c .cfa: x29 48 +
STACK CFI INIT 3c014 17c .cfa: sp 0 +
STACK CFI 3c018 .cfa: sp 96 +
STACK CFI 3c024 .cfa: x29 32 + x19: .cfa -8 + ^ x20: .cfa -16 + ^ .ra: .cfa -24 + ^ x29: .cfa -32 + ^
STACK CFI 3c124 .cfa: sp 96 +
STACK CFI 3c130 .cfa: sp 0 +
STACK CFI 3c134 .cfa: x29 32 +
STACK CFI INIT 3c190 cc .cfa: sp 0 +
STACK CFI 3c194 .cfa: sp 32 +
STACK CFI 3c19c .cfa: x29 32 + x19: .cfa -16 + ^ .ra: .cfa -24 + ^ x29: .cfa -32 + ^
STACK CFI 3c22c .cfa: sp 32 +
STACK CFI 3c234 .cfa: sp 0 +
STACK CFI 3c238 .cfa: sp 32 +
STACK CFI 3c240 .cfa: sp 0 +
STACK CFI 3c244 .cfa: x29 32 +
STACK CFI INIT 3c25c 2cc .cfa: sp 0 +
STACK CFI 3c260 .cfa: sp 208 +
STACK CFI 3c26c .cfa: x29 32 + x19: .cfa -8 + ^ x20: .cfa -16 + ^ .ra: .cfa -24 + ^ x29: .cfa -32 + ^
STACK CFI 3c3e4 .cfa: sp 208 +
STACK CFI 3c3f0 .cfa: sp 0 +
STACK CFI 3c3f4 .cfa: x29 32 +
STACK CFI INIT 3c528 158 .cfa: sp 0 +
STACK CFI 3c52c .cfa: sp 144 +
STACK CFI 3c540 .cfa: x29 64 + x19: .cfa -8 + ^ x20: .cfa -16 + ^ x21: .cfa -24 + ^ x22: .cfa -32 + ^ x23: .cfa -40 + ^ x24: .cfa -48 + ^ .ra: .cfa -56 + ^ x29: .cfa -64 + ^
STACK CFI 3c614 .cfa: sp 144 +
STACK CFI 3c628 .cfa: sp 0 +
STACK CFI 3c62c .cfa: x29 64 +
STACK CFI INIT 3c6fc c4 .cfa: sp 0 +
STACK CFI 3c700 .cfa: sp 32 +
STACK CFI 3c708 .cfa: x29 32 + x19: .cfa -16 + ^ .ra: .cfa -24 + ^ x29: .cfa -32 + ^
STACK CFI 3c790 .cfa: sp 32 +
STACK CFI 3c798 .cfa: sp 0 +
STACK CFI 3c79c .cfa: sp 32 +
STACK CFI 3c7a4 .cfa: sp 0 +
STACK CFI 3c7a8 .cfa: x29 32 +
STACK CFI INIT 3c7e8 74 .cfa: sp 0 +
STACK CFI 3c7ec .cfa: sp 48 +
STACK CFI 3c7f8 .cfa: x29 32 + x19: .cfa -8 + ^ x20: .cfa -16 + ^ .ra: .cfa -24 + ^ x29: .cfa -32 + ^
STACK CFI 3c844 .cfa: sp 48 +
STACK CFI 3c850 .cfa: sp 0 +
STACK CFI 3c854 .cfa: x29 32 +
STACK CFI INIT 3c85c 7f4 .cfa: sp 0 +
STACK CFI 3c860 .cfa: sp 96 +
STACK CFI 3c878 .cfa: x29 96 + x19: .cfa -8 + ^ x20: .cfa -16 + ^ x21: .cfa -24 + ^ x22: .cfa -32 + ^ x23: .cfa -40 + ^ x24: .cfa -48 + ^ x25: .cfa -56 + ^ x26: .cfa -64 + ^ x27: .cfa -72 + ^ x28: .cfa -80 + ^ .ra: .cfa -88 + ^ x29: .cfa -96 + ^
STACK CFI 3cd20 .cfa: sp 96 +
STACK CFI 3cd38 .cfa: sp 0 +
STACK CFI 3cd3c .cfa: x29 96 +
STACK CFI INIT 3d050 12c .cfa: sp 0 +
STACK CFI 3d054 .cfa: sp 80 +
STACK CFI 3d068 .cfa: x29 80 + x19: .cfa -8 + ^ x20: .cfa -16 + ^ x21: .cfa -24 + ^ x22: .cfa -32 + ^ x23: .cfa -40 + ^ x24: .cfa -48 + ^ x25: .cfa -56 + ^ x26: .cfa -64 + ^ .ra: .cfa -72 + ^ x29: .cfa -80 + ^
STACK CFI 3d130 .cfa: sp 80 +
STACK CFI 3d144 .cfa: sp 0 +
STACK CFI 3d148 .cfa: x29 80 +
STACK CFI INIT 3d17c 74 .cfa: sp 0 +
STACK CFI 3d180 .cfa: sp 48 +
STACK CFI 3d18c .cfa: x29 32 + x19: .cfa -8 + ^ x20: .cfa -16 + ^ .ra: .cfa -24 + ^ x29: .cfa -32 + ^
STACK CFI 3d1d8 .cfa: sp 48 +
STACK CFI 3d1e4 .cfa: sp 0 +
STACK CFI 3d1e8 .cfa: x29 32 +
STACK CFI INIT 3d1f0 74 .cfa: sp 0 +
STACK CFI 3d1f4 .cfa: sp 48 +
STACK CFI 3d200 .cfa: x29 32 + x19: .cfa -8 + ^ x20: .cfa -16 + ^ .ra: .cfa -24 + ^ x29: .cfa -32 + ^
STACK CFI 3d24c .cfa: sp 48 +
STACK CFI 3d258 .cfa: sp 0 +
STACK CFI 3d25c .cfa: x29 32 +
STACK CFI INIT 3d334 63c .cfa: sp 0 +
STACK CFI 3d338 .cfa: sp 96 +
STACK CFI 3d350 .cfa: x29 96 + x19: .cfa -8 + ^ x20: .cfa -16 + ^ x21: .cfa -24 + ^ x22: .cfa -32 + ^ x23: .cfa -40 + ^ x24: .cfa -48 + ^ x25: .cfa -56 + ^ x26: .cfa -64 + ^ x27: .cfa -72 + ^ x28: .cfa -80 + ^ .ra: .cfa -88 + ^ x29: .cfa -96 + ^
STACK CFI 3d80c .cfa: sp 96 +
STACK CFI 3d824 .cfa: sp 0 +
STACK CFI 3d828 .cfa: x29 96 +
STACK CFI INIT 3dd04 2b8 .cfa: sp 0 +
STACK CFI 3dd08 .cfa: sp 224 +
STACK CFI 3dd20 .cfa: x29 80 + x19: .cfa -8 + ^ x20: .cfa -16 + ^ x21: .cfa -24 + ^ x22: .cfa -32 + ^ x23: .cfa -40 + ^ x24: .cfa -48 + ^ x25: .cfa -64 + ^ .ra: .cfa -72 + ^ x29: .cfa -80 + ^
STACK CFI 3de04 .cfa: sp 224 +
STACK CFI 3de1c .cfa: sp 0 +
STACK CFI 3de20 .cfa: x29 80 +
STACK CFI INIT 3dfbc 964 .cfa: sp 0 +
STACK CFI 3dfc0 .cfa: sp 112 +
STACK CFI 3dfdc .cfa: x29 96 + x19: .cfa -8 + ^ x20: .cfa -16 + ^ x21: .cfa -24 + ^ x22: .cfa -32 + ^ x23: .cfa -40 + ^ x24: .cfa -48 + ^ x25: .cfa -56 + ^ x26: .cfa -64 + ^ x27: .cfa -72 + ^ x28: .cfa -80 + ^ .ra: .cfa -88 + ^ x29: .cfa -96 + ^ v8: .cfa -112 + ^
STACK CFI 3e7b4 .cfa: sp 112 +
STACK CFI 3e7d0 .cfa: sp 0 +
STACK CFI 3e7d4 .cfa: x29 96 +
STACK CFI INIT 3e920 2e4 .cfa: sp 0 +
STACK CFI 3e924 .cfa: sp 96 +
STACK CFI 3e93c .cfa: x29 96 + x19: .cfa -8 + ^ x20: .cfa -16 + ^ x21: .cfa -24 + ^ x22: .cfa -32 + ^ x23: .cfa -40 + ^ x24: .cfa -48 + ^ x25: .cfa -56 + ^ x26: .cfa -64 + ^ x27: .cfa -72 + ^ x28: .cfa -80 + ^ .ra: .cfa -88 + ^ x29: .cfa -96 + ^
STACK CFI 3ebb4 .cfa: sp 96 +
STACK CFI 3ebcc .cfa: sp 0 +
STACK CFI 3ebd0 .cfa: x29 96 +
STACK CFI INIT 3ee58 178 .cfa: sp 0 +
STACK CFI 3ee5c .cfa: sp 64 +
STACK CFI 3ee6c .cfa: x29 64 + x19: .cfa -8 + ^ x20: .cfa -16 + ^ x21: .cfa -24 + ^ x22: .cfa -32 + ^ x23: .cfa -40 + ^ x24: .cfa -48 + ^ .ra: .cfa -56 + ^ x29: .cfa -64 + ^
STACK CFI 3ef80 .cfa: sp 64 +
STACK CFI 3ef90 .cfa: sp 0 +
STACK CFI 3ef94 .cfa: x29 64 +
STACK CFI INIT 3f0cc 140 .cfa: sp 0 +
STACK CFI 3f0d0 .cfa: sp 64 +
STACK CFI 3f0e0 .cfa: x29 64 + x19: .cfa -8 + ^ x20: .cfa -16 + ^ x21: .cfa -24 + ^ x22: .cfa -32 + ^ x23: .cfa -40 + ^ x24: .cfa -48 + ^ .ra: .cfa -56 + ^ x29: .cfa -64 + ^
STACK CFI 3f1d0 .cfa: sp 64 +
STACK CFI 3f1e0 .cfa: sp 0 +
STACK CFI 3f1e4 .cfa: x29 64 +
STACK CFI INIT 3f4a4 50 .cfa: sp 0 +
STACK CFI 3f4a8 .cfa: sp 32 +
STACK CFI 3f4b0 .cfa: x29 32 + x19: .cfa -8 + ^ x20: .cfa -16 + ^ .ra: .cfa -24 + ^ x29: .cfa -32 + ^
STACK CFI INIT 3f8f4 168 .cfa: sp 0 +
STACK CFI 3f8f8 .cfa: sp 384 +
STACK CFI 3f90c .cfa: x29 64 + x19: .cfa -8 + ^ x20: .cfa -16 + ^ x21: .cfa -24 + ^ x22: .cfa -32 + ^ x23: .cfa -40 + ^ x28: .cfa -48 + ^ .ra: .cfa -56 + ^ x29: .cfa -64 + ^
STACK CFI 3fa04 .cfa: sp 384 +
STACK CFI 3fa18 .cfa: sp 0 +
STACK CFI 3fa1c .cfa: x29 64 +
STACK CFI INIT 3fa5c 1a4 .cfa: sp 0 +
STACK CFI 3fa60 .cfa: sp 112 +
STACK CFI 3fa78 .cfa: x29 80 + x19: .cfa -8 + ^ x20: .cfa -16 + ^ x21: .cfa -24 + ^ x22: .cfa -32 + ^ x23: .cfa -40 + ^ x24: .cfa -48 + ^ x25: .cfa -56 + ^ x26: .cfa -64 + ^ .ra: .cfa -72 + ^ x29: .cfa -80 + ^
STACK CFI 3fb68 .cfa: sp 112 +
STACK CFI 3fb80 .cfa: sp 0 +
STACK CFI 3fb84 .cfa: x29 80 +
STACK CFI INIT 3fc00 1dc .cfa: sp 0 +
STACK CFI 3fc04 .cfa: sp 128 +
STACK CFI 3fc20 .cfa: x29 96 + x19: .cfa -8 + ^ x20: .cfa -16 + ^ x21: .cfa -24 + ^ x22: .cfa -32 + ^ x23: .cfa -40 + ^ x24: .cfa -48 + ^ x25: .cfa -56 + ^ x26: .cfa -64 + ^ x27: .cfa -80 + ^ .ra: .cfa -88 + ^ x29: .cfa -96 + ^
STACK CFI 3fd8c .cfa: sp 128 +
STACK CFI 3fda8 .cfa: sp 0 +
STACK CFI 3fdac .cfa: x29 96 +
STACK CFI INIT 3fddc 178 .cfa: sp 0 +
STACK CFI 3fde0 .cfa: sp 80 +
STACK CFI 3fdf4 .cfa: x29 80 + x19: .cfa -8 + ^ x20: .cfa -16 + ^ x21: .cfa -24 + ^ x22: .cfa -32 + ^ x23: .cfa -40 + ^ x24: .cfa -48 + ^ x25: .cfa -64 + ^ .ra: .cfa -72 + ^ x29: .cfa -80 + ^
STACK CFI 3ff20 .cfa: sp 80 +
STACK CFI 3ff34 .cfa: sp 0 +
STACK CFI 3ff38 .cfa: x29 80 +
STACK CFI INIT 402e4 11c .cfa: sp 0 +
STACK CFI 402e8 .cfa: sp 96 +
STACK CFI 402fc .cfa: x29 64 + x19: .cfa -8 + ^ x20: .cfa -16 + ^ x21: .cfa -24 + ^ x22: .cfa -32 + ^ x23: .cfa -40 + ^ x24: .cfa -48 + ^ .ra: .cfa -56 + ^ x29: .cfa -64 + ^
STACK CFI 40384 .cfa: sp 96 +
STACK CFI 40398 .cfa: sp 0 +
STACK CFI 4039c .cfa: x29 64 +
STACK CFI INIT 40668 50 .cfa: sp 0 +
STACK CFI 4066c .cfa: sp 32 +
STACK CFI 40674 .cfa: x29 32 + x19: .cfa -8 + ^ x20: .cfa -16 + ^ .ra: .cfa -24 + ^ x29: .cfa -32 + ^
STACK CFI INIT 408a4 228 .cfa: sp 0 +
STACK CFI 408a8 .cfa: sp 128 +
STACK CFI 408c0 .cfa: x29 80 + x19: .cfa -8 + ^ x20: .cfa -16 + ^ x21: .cfa -24 + ^ x22: .cfa -32 + ^ x23: .cfa -40 + ^ x24: .cfa -48 + ^ x25: .cfa -64 + ^ .ra: .cfa -72 + ^ x29: .cfa -80 + ^
STACK CFI 40a5c .cfa: sp 128 +
STACK CFI 40a74 .cfa: sp 0 +
STACK CFI 40a78 .cfa: x29 80 +
STACK CFI INIT 415e0 1b4 .cfa: sp 0 +
STACK CFI 415e4 .cfa: sp 80 +
STACK CFI 415f8 .cfa: x29 64 + x19: .cfa -8 + ^ x20: .cfa -16 + ^ x21: .cfa -24 + ^ x22: .cfa -32 + ^ x23: .cfa -40 + ^ x24: .cfa -48 + ^ .ra: .cfa -56 + ^ x29: .cfa -64 + ^
STACK CFI 41704 .cfa: sp 80 +
STACK CFI 41718 .cfa: sp 0 +
STACK CFI 4171c .cfa: x29 64 +
STACK CFI INIT 41f90 1ec .cfa: sp 0 +
STACK CFI 41f94 .cfa: sp 368 +
STACK CFI 41fac .cfa: x29 64 + x19: .cfa -8 + ^ x20: .cfa -16 + ^ x21: .cfa -24 + ^ x22: .cfa -32 + ^ x23: .cfa -40 + ^ x28: .cfa -48 + ^ .ra: .cfa -56 + ^ x29: .cfa -64 + ^ v8: .cfa -80 + ^
STACK CFI 42104 .cfa: sp 368 +
STACK CFI 4211c .cfa: sp 0 +
STACK CFI 42120 .cfa: x29 64 +
STACK CFI INIT 42764 454 .cfa: sp 0 +
STACK CFI 42768 .cfa: sp 144 +
STACK CFI 42778 .cfa: x29 48 + x19: .cfa -8 + ^ x20: .cfa -16 + ^ x21: .cfa -24 + ^ x22: .cfa -32 + ^ .ra: .cfa -40 + ^ x29: .cfa -48 + ^
STACK CFI 42b3c .cfa: sp 144 +
STACK CFI 42b4c .cfa: sp 0 +
STACK CFI 42b50 .cfa: x29 48 +
STACK CFI INIT 42bb8 110 .cfa: sp 0 +
STACK CFI 42bbc .cfa: sp 96 +
STACK CFI 42bcc .cfa: x29 48 + x19: .cfa -8 + ^ x20: .cfa -16 + ^ x21: .cfa -32 + ^ .ra: .cfa -40 + ^ x29: .cfa -48 + ^
STACK CFI 42c64 .cfa: sp 96 +
STACK CFI 42c74 .cfa: sp 0 +
STACK CFI 42c78 .cfa: x29 48 +
STACK CFI INIT 42e94 290 .cfa: sp 0 +
STACK CFI 42e98 .cfa: sp 160 +
STACK CFI 42ea8 .cfa: x29 48 + x19: .cfa -8 + ^ x20: .cfa -16 + ^ x21: .cfa -24 + ^ x22: .cfa -32 + ^ .ra: .cfa -40 + ^ x29: .cfa -48 + ^
STACK CFI 43080 .cfa: sp 160 +
STACK CFI 43090 .cfa: sp 0 +
STACK CFI 43094 .cfa: x29 48 +
STACK CFI INIT 43124 12c .cfa: sp 0 +
STACK CFI 43128 .cfa: sp 96 +
STACK CFI 43138 .cfa: x29 48 + x19: .cfa -8 + ^ x20: .cfa -16 + ^ x21: .cfa -24 + ^ x22: .cfa -32 + ^ .ra: .cfa -40 + ^ x29: .cfa -48 + ^
STACK CFI 43214 .cfa: sp 96 +
STACK CFI 43224 .cfa: sp 0 +
STACK CFI 43228 .cfa: x29 48 +
STACK CFI INIT 432a0 154 .cfa: sp 0 +
STACK CFI 432a4 .cfa: sp 32 +
STACK CFI 432ac .cfa: x29 32 + x19: .cfa -8 + ^ x20: .cfa -16 + ^ .ra: .cfa -24 + ^ x29: .cfa -32 + ^
STACK CFI 433d4 .cfa: sp 32 +
STACK CFI 433dc .cfa: sp 0 +
STACK CFI 433e0 .cfa: x29 32 +
STACK CFI INIT 433f4 4e8 .cfa: sp 0 +
STACK CFI 433f8 .cfa: sp 480 +
STACK CFI 4340c .cfa: x29 64 + x19: .cfa -8 + ^ x20: .cfa -16 + ^ x21: .cfa -24 + ^ x22: .cfa -32 + ^ x28: .cfa -48 + ^ .ra: .cfa -56 + ^ x29: .cfa -64 + ^
STACK CFI 4371c .cfa: sp 480 +
STACK CFI 43730 .cfa: sp 0 +
STACK CFI 43734 .cfa: x29 64 +
STACK CFI INIT 438dc 2c8 .cfa: sp 0 +
STACK CFI 438e0 .cfa: sp 144 +
STACK CFI 438f0 .cfa: x29 48 + x19: .cfa -8 + ^ x20: .cfa -16 + ^ x21: .cfa -32 + ^ .ra: .cfa -40 + ^ x29: .cfa -48 + ^
STACK CFI 43b00 .cfa: sp 144 +
STACK CFI 43b10 .cfa: sp 0 +
STACK CFI 43b14 .cfa: x29 48 +
STACK CFI INIT 43ba4 188 .cfa: sp 0 +
STACK CFI 43ba8 .cfa: sp 96 +
STACK CFI 43bbc .cfa: x29 64 + x19: .cfa -8 + ^ x20: .cfa -16 + ^ x21: .cfa -24 + ^ x22: .cfa -32 + ^ x23: .cfa -48 + ^ .ra: .cfa -56 + ^ x29: .cfa -64 + ^
STACK CFI 43ca8 .cfa: sp 96 +
STACK CFI 43cbc .cfa: sp 0 +
STACK CFI 43cc0 .cfa: x29 64 +
STACK CFI INIT 43d2c 204 .cfa: sp 0 +
STACK CFI 43d30 .cfa: sp 80 +
STACK CFI 43d40 .cfa: x29 32 + x19: .cfa -8 + ^ x20: .cfa -16 + ^ .ra: .cfa -24 + ^ x29: .cfa -32 + ^ v8: .cfa -48 + ^
STACK CFI 43eb4 .cfa: sp 80 +
STACK CFI 43ec4 .cfa: sp 0 +
STACK CFI 43ec8 .cfa: x29 32 +
STACK CFI INIT 43f48 198 .cfa: sp 0 +
STACK CFI 43f4c .cfa: sp 96 +
STACK CFI 43f5c .cfa: x29 48 + x19: .cfa -8 + ^ x20: .cfa -16 + ^ x21: .cfa -32 + ^ .ra: .cfa -40 + ^ x29: .cfa -48 + ^
STACK CFI 44038 .cfa: sp 96 +
STACK CFI 44048 .cfa: sp 0 +
STACK CFI 4404c .cfa: x29 48 +
STACK CFI INIT 44140 2d4 .cfa: sp 0 +
STACK CFI 44144 .cfa: sp 112 +
STACK CFI 44150 .cfa: x29 32 + x19: .cfa -8 + ^ x20: .cfa -16 + ^ .ra: .cfa -24 + ^ x29: .cfa -32 + ^
STACK CFI 44390 .cfa: sp 112 +
STACK CFI 4439c .cfa: sp 0 +
STACK CFI 443a0 .cfa: x29 32 +
STACK CFI INIT 445b8 b4 .cfa: sp 0 +
STACK CFI 445bc .cfa: sp 32 +
STACK CFI 445c4 .cfa: x29 32 + x19: .cfa -16 + ^ .ra: .cfa -24 + ^ x29: .cfa -32 + ^
STACK CFI 4463c .cfa: sp 32 +
STACK CFI 44644 .cfa: sp 0 +
STACK CFI 44648 .cfa: sp 32 +
STACK CFI 44650 .cfa: sp 0 +
STACK CFI 44654 .cfa: x29 32 +
STACK CFI INIT 4466c 138 .cfa: sp 0 +
STACK CFI 44670 .cfa: sp 96 +
STACK CFI 4467c .cfa: x29 32 + x19: .cfa -8 + ^ x20: .cfa -16 + ^ .ra: .cfa -24 + ^ x29: .cfa -32 + ^
STACK CFI 44748 .cfa: sp 96 +
STACK CFI 44754 .cfa: sp 0 +
STACK CFI 44758 .cfa: x29 32 +
STACK CFI INIT 447a4 4f4 .cfa: sp 0 +
STACK CFI 447a8 .cfa: sp 352 +
STACK CFI 447bc .cfa: x29 64 + x19: .cfa -8 + ^ x20: .cfa -16 + ^ x21: .cfa -24 + ^ x22: .cfa -32 + ^ x23: .cfa -40 + ^ x28: .cfa -48 + ^ .ra: .cfa -56 + ^ x29: .cfa -64 + ^
STACK CFI 44aa0 .cfa: sp 352 +
STACK CFI 44ab4 .cfa: sp 0 +
STACK CFI 44ab8 .cfa: x29 64 +
STACK CFI INIT 44c98 b8 .cfa: sp 0 +
STACK CFI 44c9c .cfa: sp 32 +
STACK CFI 44ca4 .cfa: x29 32 + x19: .cfa -16 + ^ .ra: .cfa -24 + ^ x29: .cfa -32 + ^
STACK CFI 44d20 .cfa: sp 32 +
STACK CFI 44d28 .cfa: sp 0 +
STACK CFI 44d2c .cfa: sp 32 +
STACK CFI 44d34 .cfa: sp 0 +
STACK CFI 44d38 .cfa: x29 32 +
STACK CFI INIT 44d50 eac .cfa: sp 0 +
STACK CFI 44d54 .cfa: sp 432 +
STACK CFI 44d70 .cfa: x29 80 + x19: .cfa -8 + ^ x20: .cfa -16 + ^ x21: .cfa -24 + ^ x22: .cfa -32 + ^ x23: .cfa -40 + ^ x24: .cfa -48 + ^ x28: .cfa -64 + ^ .ra: .cfa -72 + ^ x29: .cfa -80 + ^ v8: .cfa -88 + ^ v9: .cfa -96 + ^
STACK CFI 45a70 .cfa: sp 432 +
STACK CFI 45a8c .cfa: sp 0 +
STACK CFI 45a90 .cfa: x29 80 +
STACK CFI INIT 45c28 8c .cfa: sp 0 +
STACK CFI 45c2c .cfa: sp 48 +
STACK CFI 45c38 .cfa: x29 48 + x19: .cfa -8 + ^ x20: .cfa -16 + ^ x21: .cfa -32 + ^ .ra: .cfa -40 + ^ x29: .cfa -48 + ^
STACK CFI 45c80 .cfa: sp 48 +
STACK CFI 45c8c .cfa: sp 0 +
STACK CFI 45c90 .cfa: x29 48 +
STACK CFI INIT 45cb4 e4 .cfa: sp 0 +
STACK CFI 45cb8 .cfa: sp 96 +
STACK CFI 45cc4 .cfa: x29 32 + x19: .cfa -8 + ^ x20: .cfa -16 + ^ .ra: .cfa -24 + ^ x29: .cfa -32 + ^
STACK CFI 45d44 .cfa: sp 96 +
STACK CFI 45d50 .cfa: sp 0 +
STACK CFI 45d54 .cfa: x29 32 +
STACK CFI INIT 45d98 6e0 .cfa: sp 0 +
STACK CFI 45d9c .cfa: sp 304 +
STACK CFI 45db0 .cfa: x29 48 + x19: .cfa -8 + ^ x20: .cfa -16 + ^ x21: .cfa -24 + ^ x28: .cfa -32 + ^ .ra: .cfa -40 + ^ x29: .cfa -48 + ^ v8: .cfa -64 + ^
STACK CFI 46274 .cfa: sp 304 +
STACK CFI 46288 .cfa: sp 0 +
STACK CFI 4628c .cfa: x29 48 +
STACK CFI INIT 46478 194 .cfa: sp 0 +
STACK CFI 4647c .cfa: sp 80 +
STACK CFI 4648c .cfa: x29 48 + x19: .cfa -8 + ^ x20: .cfa -16 + ^ x21: .cfa -32 + ^ .ra: .cfa -40 + ^ x29: .cfa -48 + ^
STACK CFI 465c8 .cfa: sp 80 +
STACK CFI 465d8 .cfa: sp 0 +
STACK CFI 465dc .cfa: x29 48 +
STACK CFI INIT 4660c 148 .cfa: sp 0 +
STACK CFI 46610 .cfa: sp 80 +
STACK CFI 46620 .cfa: x29 48 + x19: .cfa -8 + ^ x20: .cfa -16 + ^ x21: .cfa -24 + ^ x22: .cfa -32 + ^ .ra: .cfa -40 + ^ x29: .cfa -48 + ^
STACK CFI 46710 .cfa: sp 80 +
STACK CFI 46720 .cfa: sp 0 +
STACK CFI 46724 .cfa: x29 48 +
STACK CFI INIT 46754 370 .cfa: sp 0 +
STACK CFI 46758 .cfa: sp 192 +
STACK CFI 4676c .cfa: x29 48 + x19: .cfa -8 + ^ x20: .cfa -16 + ^ x21: .cfa -24 + ^ x22: .cfa -32 + ^ .ra: .cfa -40 + ^ x29: .cfa -48 + ^ v8: .cfa -64 + ^
STACK CFI 46a3c .cfa: sp 192 +
STACK CFI 46a50 .cfa: sp 0 +
STACK CFI 46a54 .cfa: x29 48 +
STACK CFI INIT 46b14 3e8 .cfa: sp 0 +
STACK CFI 46b18 .cfa: sp 240 +
STACK CFI 46b40 .cfa: x29 96 + x19: .cfa -8 + ^ x20: .cfa -16 + ^ x21: .cfa -24 + ^ x22: .cfa -32 + ^ x23: .cfa -40 + ^ x24: .cfa -48 + ^ x25: .cfa -56 + ^ x26: .cfa -64 + ^ x27: .cfa -72 + ^ x28: .cfa -80 + ^ .ra: .cfa -88 + ^ x29: .cfa -96 + ^ v8: .cfa -104 + ^ v9: .cfa -112 + ^ v10: .cfa -120 + ^ v11: .cfa -128 + ^ v12: .cfa -144 + ^
STACK CFI 46e1c .cfa: sp 240 +
STACK CFI 46e44 .cfa: sp 0 +
STACK CFI 46e48 .cfa: x29 96 +
STACK CFI INIT 46efc 440 .cfa: sp 0 +
STACK CFI 46f00 .cfa: sp 208 +
STACK CFI 46f1c .cfa: x29 96 + x19: .cfa -8 + ^ x20: .cfa -16 + ^ x21: .cfa -24 + ^ x22: .cfa -32 + ^ x23: .cfa -40 + ^ x24: .cfa -48 + ^ x25: .cfa -56 + ^ x26: .cfa -64 + ^ x27: .cfa -80 + ^ .ra: .cfa -88 + ^ x29: .cfa -96 + ^
STACK CFI 47258 .cfa: sp 208 +
STACK CFI 47274 .cfa: sp 0 +
STACK CFI 47278 .cfa: x29 96 +
STACK CFI INIT 4733c dc .cfa: sp 0 +
STACK CFI 47340 .cfa: sp 64 +
STACK CFI 4734c .cfa: x29 32 + x19: .cfa -8 + ^ x20: .cfa -16 + ^ .ra: .cfa -24 + ^ x29: .cfa -32 + ^
STACK CFI 473d0 .cfa: sp 64 +
STACK CFI 473dc .cfa: sp 0 +
STACK CFI 473e0 .cfa: x29 32 +
STACK CFI INIT 47418 260 .cfa: sp 0 +
STACK CFI 4741c .cfa: sp 176 +
STACK CFI 47430 .cfa: x29 64 + x19: .cfa -8 + ^ x20: .cfa -16 + ^ x21: .cfa -24 + ^ x22: .cfa -32 + ^ x23: .cfa -48 + ^ .ra: .cfa -56 + ^ x29: .cfa -64 + ^
STACK CFI 475e0 .cfa: sp 176 +
STACK CFI 475f4 .cfa: sp 0 +
STACK CFI 475f8 .cfa: x29 64 +
STACK CFI INIT 47730 234 .cfa: sp 0 +
STACK CFI 47734 .cfa: sp 112 +
STACK CFI 47744 .cfa: x29 48 + x19: .cfa -8 + ^ x20: .cfa -16 + ^ x21: .cfa -24 + ^ x22: .cfa -32 + ^ .ra: .cfa -40 + ^ x29: .cfa -48 + ^
STACK CFI 47884 .cfa: sp 112 +
STACK CFI 47894 .cfa: sp 0 +
STACK CFI 47898 .cfa: x29 48 +
STACK CFI INIT 47d3c 21c .cfa: sp 0 +
STACK CFI 47d40 .cfa: sp 192 +
STACK CFI 47d54 .cfa: x29 64 + x19: .cfa -8 + ^ x20: .cfa -16 + ^ x21: .cfa -24 + ^ x22: .cfa -32 + ^ x23: .cfa -48 + ^ .ra: .cfa -56 + ^ x29: .cfa -64 + ^
STACK CFI 47e94 .cfa: sp 192 +
STACK CFI 47ea8 .cfa: sp 0 +
STACK CFI 47eac .cfa: x29 64 +
STACK CFI INIT 47f5c 1cc .cfa: sp 0 +
STACK CFI 47f60 .cfa: sp 128 +
STACK CFI 47f70 .cfa: x29 48 + x19: .cfa -8 + ^ x20: .cfa -16 + ^ x21: .cfa -32 + ^ .ra: .cfa -40 + ^ x29: .cfa -48 + ^
STACK CFI 480ac .cfa: sp 128 +
STACK CFI 480bc .cfa: sp 0 +
STACK CFI 480c0 .cfa: x29 48 +
STACK CFI INIT 484b8 1d0 .cfa: sp 0 +
STACK CFI 484bc .cfa: sp 128 +
STACK CFI 484d0 .cfa: x29 64 + x19: .cfa -8 + ^ x20: .cfa -16 + ^ x21: .cfa -24 + ^ x22: .cfa -32 + ^ x23: .cfa -48 + ^ .ra: .cfa -56 + ^ x29: .cfa -64 + ^
STACK CFI 48648 .cfa: sp 128 +
STACK CFI 4865c .cfa: sp 0 +
STACK CFI 48660 .cfa: x29 64 +
STACK CFI INIT 489a4 1c4 .cfa: sp 0 +
STACK CFI 489a8 .cfa: sp 112 +
STACK CFI 489b8 .cfa: x29 48 + x19: .cfa -8 + ^ x20: .cfa -16 + ^ x21: .cfa -24 + ^ x22: .cfa -32 + ^ .ra: .cfa -40 + ^ x29: .cfa -48 + ^
STACK CFI 48b2c .cfa: sp 112 +
STACK CFI 48b3c .cfa: sp 0 +
STACK CFI 48b40 .cfa: x29 48 +
STACK CFI INIT 48c14 148 .cfa: sp 0 +
STACK CFI 48c18 .cfa: sp 144 +
STACK CFI 48c28 .cfa: x29 48 + x19: .cfa -8 + ^ x20: .cfa -16 + ^ x21: .cfa -24 + ^ x22: .cfa -32 + ^ .ra: .cfa -40 + ^ x29: .cfa -48 + ^
STACK CFI 48cfc .cfa: sp 144 +
STACK CFI 48d0c .cfa: sp 0 +
STACK CFI 48d10 .cfa: x29 48 +
STACK CFI INIT 48d84 74 .cfa: sp 0 +
STACK CFI 48d88 .cfa: sp 48 +
STACK CFI 48d94 .cfa: x29 32 + x19: .cfa -8 + ^ x20: .cfa -16 + ^ .ra: .cfa -24 + ^ x29: .cfa -32 + ^
STACK CFI 48de0 .cfa: sp 48 +
STACK CFI 48dec .cfa: sp 0 +
STACK CFI 48df0 .cfa: x29 32 +
STACK CFI INIT 48e68 148 .cfa: sp 0 +
STACK CFI 48e6c .cfa: sp 112 +
STACK CFI 48e7c .cfa: x29 48 + x19: .cfa -8 + ^ x20: .cfa -16 + ^ x21: .cfa -24 + ^ x22: .cfa -32 + ^ .ra: .cfa -40 + ^ x29: .cfa -48 + ^
STACK CFI 48f44 .cfa: sp 112 +
STACK CFI 48f54 .cfa: sp 0 +
STACK CFI 48f58 .cfa: x29 48 +
STACK CFI INIT 49034 27c .cfa: sp 0 +
STACK CFI 49038 .cfa: sp 192 +
STACK CFI 49044 .cfa: x29 32 + x19: .cfa -8 + ^ x20: .cfa -16 + ^ .ra: .cfa -24 + ^ x29: .cfa -32 + ^
STACK CFI 49194 .cfa: sp 192 +
STACK CFI 491a0 .cfa: sp 0 +
STACK CFI 491a4 .cfa: x29 32 +
STACK CFI INIT 49368 2e4 .cfa: sp 0 +
STACK CFI 4936c .cfa: sp 208 +
STACK CFI 49378 .cfa: x29 32 + x19: .cfa -8 + ^ x20: .cfa -16 + ^ .ra: .cfa -24 + ^ x29: .cfa -32 + ^
STACK CFI 49508 .cfa: sp 208 +
STACK CFI 49514 .cfa: sp 0 +
STACK CFI 49518 .cfa: x29 32 +
STACK CFI INIT 4964c 2e4 .cfa: sp 0 +
STACK CFI 49650 .cfa: sp 208 +
STACK CFI 4965c .cfa: x29 32 + x19: .cfa -8 + ^ x20: .cfa -16 + ^ .ra: .cfa -24 + ^ x29: .cfa -32 + ^
STACK CFI 497ec .cfa: sp 208 +
STACK CFI 497f8 .cfa: sp 0 +
STACK CFI 497fc .cfa: x29 32 +
STACK CFI INIT 49930 148 .cfa: sp 0 +
STACK CFI 49934 .cfa: sp 96 +
STACK CFI 49940 .cfa: x29 32 + x19: .cfa -8 + ^ x20: .cfa -16 + ^ .ra: .cfa -24 + ^ x29: .cfa -32 + ^
STACK CFI 49a1c .cfa: sp 96 +
STACK CFI 49a28 .cfa: sp 0 +
STACK CFI 49a2c .cfa: x29 32 +
STACK CFI INIT 49a78 130 .cfa: sp 0 +
STACK CFI 49a7c .cfa: sp 96 +
STACK CFI 49a88 .cfa: x29 32 + x19: .cfa -8 + ^ x20: .cfa -16 + ^ .ra: .cfa -24 + ^ x29: .cfa -32 + ^
STACK CFI 49b4c .cfa: sp 96 +
STACK CFI 49b58 .cfa: sp 0 +
STACK CFI 49b5c .cfa: x29 32 +
STACK CFI INIT 49cbc b4 .cfa: sp 0 +
STACK CFI 49cc0 .cfa: sp 32 +
STACK CFI 49cc8 .cfa: x29 32 + x19: .cfa -16 + ^ .ra: .cfa -24 + ^ x29: .cfa -32 + ^
STACK CFI 49d40 .cfa: sp 32 +
STACK CFI 49d48 .cfa: sp 0 +
STACK CFI 49d4c .cfa: sp 32 +
STACK CFI 49d54 .cfa: sp 0 +
STACK CFI 49d58 .cfa: x29 32 +
STACK CFI INIT 49dcc 160 .cfa: sp 0 +
STACK CFI 49dd0 .cfa: sp 80 +
STACK CFI 49de0 .cfa: x29 48 + x19: .cfa -8 + ^ x20: .cfa -16 + ^ x21: .cfa -32 + ^ .ra: .cfa -40 + ^ x29: .cfa -48 + ^
STACK CFI 49e7c .cfa: sp 80 +
STACK CFI 49e8c .cfa: sp 0 +
STACK CFI 49e90 .cfa: x29 48 +
STACK CFI 49ea0 .cfa: sp 80 +
STACK CFI 49eb0 .cfa: sp 0 +
STACK CFI 49eb4 .cfa: x29 48 +
STACK CFI INIT 49f2c 650 .cfa: sp 0 +
STACK CFI 49f30 .cfa: sp 160 +
STACK CFI 49f4c .cfa: x29 72 + x19: .cfa -8 + ^ x20: .cfa -16 + ^ x21: .cfa -24 + ^ x22: .cfa -32 + ^ x23: .cfa -40 + ^ x24: .cfa -48 + ^ x25: .cfa -56 + ^ .ra: .cfa -64 + ^ x29: .cfa -72 + ^ v8: .cfa -80 + ^
STACK CFI 4a520 .cfa: sp 160 +
STACK CFI 4a53c .cfa: sp 0 +
STACK CFI 4a540 .cfa: x29 72 +
STACK CFI INIT 4a57c 3fc .cfa: sp 0 +
STACK CFI 4a580 .cfa: sp 240 +
STACK CFI 4a594 .cfa: x29 64 + x19: .cfa -8 + ^ x20: .cfa -16 + ^ x21: .cfa -24 + ^ x22: .cfa -32 + ^ x23: .cfa -40 + ^ x24: .cfa -48 + ^ .ra: .cfa -56 + ^ x29: .cfa -64 + ^
STACK CFI 4a824 .cfa: sp 240 +
STACK CFI 4a838 .cfa: sp 0 +
STACK CFI 4a83c .cfa: x29 64 +
STACK CFI INIT 4a978 5f8 .cfa: sp 0 +
STACK CFI 4a97c .cfa: sp 224 +
STACK CFI 4a99c .cfa: x29 88 + x19: .cfa -8 + ^ x20: .cfa -16 + ^ x21: .cfa -24 + ^ x22: .cfa -32 + ^ x23: .cfa -40 + ^ x24: .cfa -48 + ^ x25: .cfa -56 + ^ x26: .cfa -64 + ^ x27: .cfa -72 + ^ .ra: .cfa -80 + ^ x29: .cfa -88 + ^ v8: .cfa -96 + ^
STACK CFI 4ae54 .cfa: sp 224 +
STACK CFI 4ae74 .cfa: sp 0 +
STACK CFI 4ae78 .cfa: x29 88 +
STACK CFI INIT 4af9c 428 .cfa: sp 0 +
STACK CFI 4afa0 .cfa: sp 144 +
STACK CFI 4afb8 .cfa: x29 64 + x19: .cfa -8 + ^ x20: .cfa -16 + ^ x21: .cfa -24 + ^ x22: .cfa -32 + ^ x23: .cfa -40 + ^ x24: .cfa -48 + ^ .ra: .cfa -56 + ^ x29: .cfa -64 + ^ v8: .cfa -80 + ^
STACK CFI 4b304 .cfa: sp 144 +
STACK CFI 4b31c .cfa: sp 0 +
STACK CFI 4b320 .cfa: x29 64 +
STACK CFI INIT 4b414 104 .cfa: sp 0 +
STACK CFI 4b418 .cfa: sp 32 +
STACK CFI 4b420 .cfa: x29 32 + x19: .cfa -8 + ^ x20: .cfa -16 + ^ .ra: .cfa -24 + ^ x29: .cfa -32 + ^
STACK CFI 4b4d4 .cfa: sp 32 +
STACK CFI 4b4dc .cfa: sp 0 +
STACK CFI 4b4e0 .cfa: x29 32 +
STACK CFI 4b4f8 .cfa: sp 32 +
STACK CFI 4b500 .cfa: sp 0 +
STACK CFI 4b504 .cfa: x29 32 +
STACK CFI INIT 4b594 b84 .cfa: sp 0 +
STACK CFI 4b598 .cfa: sp 112 +
STACK CFI 4b5b4 .cfa: x29 96 + x19: .cfa -8 + ^ x20: .cfa -16 + ^ x21: .cfa -24 + ^ x22: .cfa -32 + ^ x23: .cfa -40 + ^ x24: .cfa -48 + ^ x25: .cfa -56 + ^ x26: .cfa -64 + ^ x27: .cfa -72 + ^ x28: .cfa -80 + ^ .ra: .cfa -88 + ^ x29: .cfa -96 + ^ v8: .cfa -112 + ^
STACK CFI 4be78 .cfa: sp 112 +
STACK CFI 4be94 .cfa: sp 0 +
STACK CFI 4be98 .cfa: x29 96 +
STACK CFI INIT 4c118 e4 .cfa: sp 0 +
STACK CFI 4c11c .cfa: sp 96 +
STACK CFI 4c128 .cfa: x29 32 + x19: .cfa -8 + ^ x20: .cfa -16 + ^ .ra: .cfa -24 + ^ x29: .cfa -32 + ^
STACK CFI 4c1a8 .cfa: sp 96 +
STACK CFI 4c1b4 .cfa: sp 0 +
STACK CFI 4c1b8 .cfa: x29 32 +
STACK CFI INIT 4c228 f8 .cfa: sp 0 +
STACK CFI 4c22c .cfa: sp 32 +
STACK CFI 4c234 .cfa: x29 32 + x19: .cfa -8 + ^ x20: .cfa -16 + ^ .ra: .cfa -24 + ^ x29: .cfa -32 + ^
STACK CFI 4c2dc .cfa: sp 32 +
STACK CFI 4c2e4 .cfa: sp 0 +
STACK CFI 4c2e8 .cfa: x29 32 +
STACK CFI 4c300 .cfa: sp 32 +
STACK CFI 4c308 .cfa: sp 0 +
STACK CFI 4c30c .cfa: x29 32 +
STACK CFI INIT 4c39c b4 .cfa: sp 0 +
STACK CFI 4c3a0 .cfa: sp 32 +
STACK CFI 4c3a8 .cfa: x29 32 + x19: .cfa -16 + ^ .ra: .cfa -24 + ^ x29: .cfa -32 + ^
STACK CFI 4c420 .cfa: sp 32 +
STACK CFI 4c428 .cfa: sp 0 +
STACK CFI 4c42c .cfa: sp 32 +
STACK CFI 4c434 .cfa: sp 0 +
STACK CFI 4c438 .cfa: x29 32 +
STACK CFI INIT 4c4ec 970 .cfa: sp 0 +
STACK CFI 4c4f0 .cfa: sp 304 +
STACK CFI 4c508 .cfa: x29 64 + x19: .cfa -8 + ^ x20: .cfa -16 + ^ x21: .cfa -24 + ^ x22: .cfa -32 + ^ x23: .cfa -40 + ^ x28: .cfa -48 + ^ .ra: .cfa -56 + ^ x29: .cfa -64 + ^ v8: .cfa -80 + ^
STACK CFI 4cd74 .cfa: sp 304 +
STACK CFI 4cd8c .cfa: sp 0 +
STACK CFI 4cd90 .cfa: x29 64 +
STACK CFI INIT 4ce88 2a4 .cfa: sp 0 +
STACK CFI 4ce8c .cfa: sp 208 +
STACK CFI 4cea0 .cfa: x29 64 + x19: .cfa -8 + ^ x20: .cfa -16 + ^ x21: .cfa -24 + ^ x22: .cfa -32 + ^ x23: .cfa -40 + ^ x24: .cfa -48 + ^ .ra: .cfa -56 + ^ x29: .cfa -64 + ^
STACK CFI 4d090 .cfa: sp 208 +
STACK CFI 4d0a4 .cfa: sp 0 +
STACK CFI 4d0a8 .cfa: x29 64 +
STACK CFI INIT 4d12c 6f4 .cfa: sp 0 +
STACK CFI 4d130 .cfa: sp 304 +
STACK CFI 4d14c .cfa: x29 80 + x19: .cfa -8 + ^ x20: .cfa -16 + ^ x21: .cfa -24 + ^ x22: .cfa -32 + ^ x23: .cfa -40 + ^ x24: .cfa -48 + ^ x25: .cfa -56 + ^ x28: .cfa -64 + ^ .ra: .cfa -72 + ^ x29: .cfa -80 + ^ v8: .cfa -88 + ^ v9: .cfa -96 + ^
STACK CFI 4d638 .cfa: sp 304 +
STACK CFI 4d654 .cfa: sp 0 +
STACK CFI 4d658 .cfa: x29 80 +
STACK CFI INIT 4d820 2a8 .cfa: sp 0 +
STACK CFI 4d824 .cfa: sp 208 +
STACK CFI 4d840 .cfa: x29 96 + x19: .cfa -8 + ^ x20: .cfa -16 + ^ x21: .cfa -24 + ^ x22: .cfa -32 + ^ x23: .cfa -40 + ^ x24: .cfa -48 + ^ x25: .cfa -56 + ^ x26: .cfa -64 + ^ x27: .cfa -72 + ^ x28: .cfa -80 + ^ .ra: .cfa -88 + ^ x29: .cfa -96 + ^
STACK CFI 4da08 .cfa: sp 208 +
STACK CFI 4da24 .cfa: sp 0 +
STACK CFI 4da28 .cfa: x29 96 +
STACK CFI INIT 4dac8 160 .cfa: sp 0 +
STACK CFI 4dacc .cfa: sp 128 +
STACK CFI 4dae4 .cfa: x29 80 + x19: .cfa -8 + ^ x20: .cfa -16 + ^ x21: .cfa -24 + ^ x22: .cfa -32 + ^ x23: .cfa -40 + ^ x24: .cfa -48 + ^ x25: .cfa -64 + ^ .ra: .cfa -72 + ^ x29: .cfa -80 + ^
STACK CFI 4db94 .cfa: sp 128 +
STACK CFI 4dbac .cfa: sp 0 +
STACK CFI 4dbb0 .cfa: x29 80 +
STACK CFI INIT 4dc68 10c .cfa: sp 0 +
STACK CFI 4dc6c .cfa: sp 32 +
STACK CFI 4dc74 .cfa: x29 32 + x19: .cfa -8 + ^ x20: .cfa -16 + ^ .ra: .cfa -24 + ^ x29: .cfa -32 + ^
STACK CFI 4dcac .cfa: sp 32 +
STACK CFI 4dcb4 .cfa: sp 0 +
STACK CFI 4dcb8 .cfa: x29 32 +
STACK CFI 4dd54 .cfa: sp 32 +
STACK CFI 4dd5c .cfa: sp 0 +
STACK CFI 4dd60 .cfa: x29 32 +
STACK CFI INIT 4dd74 184 .cfa: sp 0 +
STACK CFI 4dd78 .cfa: sp 80 +
STACK CFI 4dd88 .cfa: x29 48 + x19: .cfa -8 + ^ x20: .cfa -16 + ^ x21: .cfa -24 + ^ x22: .cfa -32 + ^ .ra: .cfa -40 + ^ x29: .cfa -48 + ^
STACK CFI 4de70 .cfa: sp 80 +
STACK CFI 4de80 .cfa: sp 0 +
STACK CFI 4de84 .cfa: x29 48 +
STACK CFI INIT 4dfc4 36c .cfa: sp 0 +
STACK CFI 4dfc8 .cfa: sp 176 +
STACK CFI 4dfe0 .cfa: x29 80 + x19: .cfa -8 + ^ x20: .cfa -16 + ^ x21: .cfa -24 + ^ x22: .cfa -32 + ^ x23: .cfa -40 + ^ x24: .cfa -48 + ^ x25: .cfa -64 + ^ .ra: .cfa -72 + ^ x29: .cfa -80 + ^
STACK CFI 4e1b8 .cfa: sp 176 +
STACK CFI 4e1d0 .cfa: sp 0 +
STACK CFI 4e1d4 .cfa: x29 80 +
STACK CFI INIT 4e330 78 .cfa: sp 0 +
STACK CFI 4e334 .cfa: sp 32 +
STACK CFI 4e33c .cfa: x29 32 + x19: .cfa -8 + ^ x20: .cfa -16 + ^ .ra: .cfa -24 + ^ x29: .cfa -32 + ^
STACK CFI 4e344 .cfa: sp 32 +
STACK CFI 4e34c .cfa: sp 0 +
STACK CFI 4e350 .cfa: x29 32 +
STACK CFI INIT 4e5ac 74 .cfa: sp 0 +
STACK CFI 4e5b0 .cfa: sp 48 +
STACK CFI 4e5bc .cfa: x29 32 + x19: .cfa -8 + ^ x20: .cfa -16 + ^ .ra: .cfa -24 + ^ x29: .cfa -32 + ^
STACK CFI 4e608 .cfa: sp 48 +
STACK CFI 4e614 .cfa: sp 0 +
STACK CFI 4e618 .cfa: x29 32 +
STACK CFI INIT 4e620 74 .cfa: sp 0 +
STACK CFI 4e624 .cfa: sp 48 +
STACK CFI 4e630 .cfa: x29 32 + x19: .cfa -8 + ^ x20: .cfa -16 + ^ .ra: .cfa -24 + ^ x29: .cfa -32 + ^
STACK CFI 4e67c .cfa: sp 48 +
STACK CFI 4e688 .cfa: sp 0 +
STACK CFI 4e68c .cfa: x29 32 +
STACK CFI INIT 4e700 f60 .cfa: sp 0 +
STACK CFI 4e704 .cfa: sp 400 +
STACK CFI 4e720 .cfa: x29 96 + x19: .cfa -8 + ^ x20: .cfa -16 + ^ x21: .cfa -24 + ^ x22: .cfa -32 + ^ x23: .cfa -40 + ^ x24: .cfa -48 + ^ x25: .cfa -56 + ^ x26: .cfa -64 + ^ x27: .cfa -72 + ^ x28: .cfa -80 + ^ .ra: .cfa -88 + ^ x29: .cfa -96 + ^
STACK CFI 4f2a0 .cfa: sp 400 +
STACK CFI 4f2bc .cfa: sp 0 +
STACK CFI 4f2c0 .cfa: x29 96 +
STACK CFI INIT 4f6cc 74 .cfa: sp 0 +
STACK CFI 4f6d0 .cfa: sp 32 +
STACK CFI 4f6d8 .cfa: x29 32 + x19: .cfa -8 + ^ x20: .cfa -16 + ^ .ra: .cfa -24 + ^ x29: .cfa -32 + ^
STACK CFI 4f6e0 .cfa: sp 32 +
STACK CFI 4f6e8 .cfa: sp 0 +
STACK CFI 4f6ec .cfa: x29 32 +
STACK CFI INIT 4fb4c 1e8 .cfa: sp 0 +
STACK CFI 4fb50 .cfa: sp 160 +
STACK CFI 4fb60 .cfa: x29 48 + x19: .cfa -8 + ^ x20: .cfa -16 + ^ x21: .cfa -24 + ^ x22: .cfa -32 + ^ .ra: .cfa -40 + ^ x29: .cfa -48 + ^
STACK CFI 4fcc4 .cfa: sp 160 +
STACK CFI 4fcd4 .cfa: sp 0 +
STACK CFI 4fcd8 .cfa: x29 48 +
STACK CFI INIT 4fd34 184 .cfa: sp 0 +
STACK CFI 4fd38 .cfa: sp 160 +
STACK CFI 4fd48 .cfa: x29 48 + x19: .cfa -8 + ^ x20: .cfa -16 + ^ x21: .cfa -32 + ^ .ra: .cfa -40 + ^ x29: .cfa -48 + ^
STACK CFI 4fe5c .cfa: sp 160 +
STACK CFI 4fe6c .cfa: sp 0 +
STACK CFI 4fe70 .cfa: x29 48 +
STACK CFI INIT 4feb8 104 .cfa: sp 0 +
STACK CFI 4febc .cfa: sp 112 +
STACK CFI 4fec8 .cfa: x29 32 + x19: .cfa -8 + ^ x20: .cfa -16 + ^ .ra: .cfa -24 + ^ x29: .cfa -32 + ^
STACK CFI 4ff8c .cfa: sp 112 +
STACK CFI 4ff98 .cfa: sp 0 +
STACK CFI 4ff9c .cfa: x29 32 +
STACK CFI INIT 4ffbc 20c8 .cfa: sp 0 +
STACK CFI 4ffc0 .cfa: sp 160 +
STACK CFI 4ffe8 .cfa: x29 96 + x19: .cfa -8 + ^ x20: .cfa -16 + ^ x21: .cfa -24 + ^ x22: .cfa -32 + ^ x23: .cfa -40 + ^ x24: .cfa -48 + ^ x25: .cfa -56 + ^ x26: .cfa -64 + ^ x27: .cfa -72 + ^ x28: .cfa -80 + ^ .ra: .cfa -88 + ^ x29: .cfa -96 + ^ v8: .cfa -104 + ^ v9: .cfa -112 + ^ v10: .cfa -120 + ^ v11: .cfa -128 + ^ v12: .cfa -136 + ^ v13: .cfa -144 + ^ v14: .cfa -152 + ^ v15: .cfa -160 + ^
STACK CFI 51e00 .cfa: sp 160 +
STACK CFI 51e28 .cfa: sp 0 +
STACK CFI 51e2c .cfa: x29 96 +
STACK CFI INIT 520b0 b8 .cfa: sp 0 +
STACK CFI 520b4 .cfa: sp 64 +
STACK CFI 520c0 .cfa: x29 32 + x19: .cfa -8 + ^ x20: .cfa -16 + ^ .ra: .cfa -24 + ^ x29: .cfa -32 + ^
STACK CFI 52128 .cfa: sp 64 +
STACK CFI 52134 .cfa: sp 0 +
STACK CFI 52138 .cfa: x29 32 +
STACK CFI INIT 52168 b4 .cfa: sp 0 +
STACK CFI 5216c .cfa: sp 64 +
STACK CFI 52178 .cfa: x29 32 + x19: .cfa -8 + ^ x20: .cfa -16 + ^ .ra: .cfa -24 + ^ x29: .cfa -32 + ^
STACK CFI 521dc .cfa: sp 64 +
STACK CFI 521e8 .cfa: sp 0 +
STACK CFI 521ec .cfa: x29 32 +
STACK CFI INIT 5221c 20c .cfa: sp 0 +
STACK CFI 52220 .cfa: sp 144 +
STACK CFI 5222c .cfa: x29 32 + x19: .cfa -8 + ^ x20: .cfa -16 + ^ .ra: .cfa -24 + ^ x29: .cfa -32 + ^
STACK CFI 52368 .cfa: sp 144 +
STACK CFI 52374 .cfa: sp 0 +
STACK CFI 52378 .cfa: x29 32 +
STACK CFI INIT 52428 bc .cfa: sp 0 +
STACK CFI 5242c .cfa: sp 64 +
STACK CFI 52438 .cfa: x29 32 + x19: .cfa -8 + ^ x20: .cfa -16 + ^ .ra: .cfa -24 + ^ x29: .cfa -32 + ^
STACK CFI 524a4 .cfa: sp 64 +
STACK CFI 524b0 .cfa: sp 0 +
STACK CFI 524b4 .cfa: x29 32 +
STACK CFI INIT 524e4 c0 .cfa: sp 0 +
STACK CFI 524e8 .cfa: sp 80 +
STACK CFI 524f8 .cfa: x29 48 + x19: .cfa -8 + ^ x20: .cfa -16 + ^ x21: .cfa -32 + ^ .ra: .cfa -40 + ^ x29: .cfa -48 + ^
STACK CFI 52560 .cfa: sp 80 +
STACK CFI 52570 .cfa: sp 0 +
STACK CFI 52574 .cfa: x29 48 +
STACK CFI INIT 525a4 dc .cfa: sp 0 +
STACK CFI 525a8 .cfa: sp 64 +
STACK CFI 525b4 .cfa: x29 32 + x19: .cfa -8 + ^ x20: .cfa -16 + ^ .ra: .cfa -24 + ^ x29: .cfa -32 + ^
STACK CFI 52638 .cfa: sp 64 +
STACK CFI 52644 .cfa: sp 0 +
STACK CFI 52648 .cfa: x29 32 +
STACK CFI INIT 52680 b4 .cfa: sp 0 +
STACK CFI 52684 .cfa: sp 64 +
STACK CFI 52690 .cfa: x29 32 + x19: .cfa -8 + ^ x20: .cfa -16 + ^ .ra: .cfa -24 + ^ x29: .cfa -32 + ^
STACK CFI 526f4 .cfa: sp 64 +
STACK CFI 52700 .cfa: sp 0 +
STACK CFI 52704 .cfa: x29 32 +
STACK CFI INIT 52734 b0 .cfa: sp 0 +
STACK CFI 52738 .cfa: sp 64 +
STACK CFI 52744 .cfa: x29 32 + x19: .cfa -8 + ^ x20: .cfa -16 + ^ .ra: .cfa -24 + ^ x29: .cfa -32 + ^
STACK CFI 527a4 .cfa: sp 64 +
STACK CFI 527b0 .cfa: sp 0 +
STACK CFI 527b4 .cfa: x29 32 +
STACK CFI INIT 527e4 dc .cfa: sp 0 +
STACK CFI 527e8 .cfa: sp 64 +
STACK CFI 527f4 .cfa: x29 32 + x19: .cfa -8 + ^ x20: .cfa -16 + ^ .ra: .cfa -24 + ^ x29: .cfa -32 + ^
STACK CFI 52878 .cfa: sp 64 +
STACK CFI 52884 .cfa: sp 0 +
STACK CFI 52888 .cfa: x29 32 +
STACK CFI INIT 52a30 dc .cfa: sp 0 +
STACK CFI 52a34 .cfa: sp 64 +
STACK CFI 52a40 .cfa: x29 32 + x19: .cfa -8 + ^ x20: .cfa -16 + ^ .ra: .cfa -24 + ^ x29: .cfa -32 + ^
STACK CFI 52ac4 .cfa: sp 64 +
STACK CFI 52ad0 .cfa: sp 0 +
STACK CFI 52ad4 .cfa: x29 32 +
STACK CFI INIT 52b0c dc .cfa: sp 0 +
STACK CFI 52b10 .cfa: sp 64 +
STACK CFI 52b1c .cfa: x29 32 + x19: .cfa -8 + ^ x20: .cfa -16 + ^ .ra: .cfa -24 + ^ x29: .cfa -32 + ^
STACK CFI 52ba0 .cfa: sp 64 +
STACK CFI 52bac .cfa: sp 0 +
STACK CFI 52bb0 .cfa: x29 32 +
STACK CFI INIT 52be8 dc .cfa: sp 0 +
STACK CFI 52bec .cfa: sp 64 +
STACK CFI 52bf8 .cfa: x29 32 + x19: .cfa -8 + ^ x20: .cfa -16 + ^ .ra: .cfa -24 + ^ x29: .cfa -32 + ^
STACK CFI 52c7c .cfa: sp 64 +
STACK CFI 52c88 .cfa: sp 0 +
STACK CFI 52c8c .cfa: x29 32 +
STACK CFI INIT 52cd8 dc .cfa: sp 0 +
STACK CFI 52cdc .cfa: sp 64 +
STACK CFI 52ce8 .cfa: x29 32 + x19: .cfa -8 + ^ x20: .cfa -16 + ^ .ra: .cfa -24 + ^ x29: .cfa -32 + ^
STACK CFI 52d6c .cfa: sp 64 +
STACK CFI 52d78 .cfa: sp 0 +
STACK CFI 52d7c .cfa: x29 32 +
STACK CFI INIT 52db4 bec .cfa: sp 0 +
STACK CFI 52db8 .cfa: sp 288 +
STACK CFI 52dd4 .cfa: x29 96 + x19: .cfa -8 + ^ x20: .cfa -16 + ^ x21: .cfa -24 + ^ x22: .cfa -32 + ^ x23: .cfa -40 + ^ x24: .cfa -48 + ^ x25: .cfa -56 + ^ x26: .cfa -64 + ^ x28: .cfa -80 + ^ .ra: .cfa -88 + ^ x29: .cfa -96 + ^
STACK CFI 532b8 .cfa: sp 288 +
STACK CFI 532d4 .cfa: sp 0 +
STACK CFI 532d8 .cfa: x29 96 +
STACK CFI INIT 539a0 b8 .cfa: sp 0 +
STACK CFI 539a4 .cfa: sp 64 +
STACK CFI 539b0 .cfa: x29 32 + x19: .cfa -8 + ^ x20: .cfa -16 + ^ .ra: .cfa -24 + ^ x29: .cfa -32 + ^
STACK CFI 53a18 .cfa: sp 64 +
STACK CFI 53a24 .cfa: sp 0 +
STACK CFI 53a28 .cfa: x29 32 +
STACK CFI INIT 53a58 520 .cfa: sp 0 +
STACK CFI 53a5c .cfa: sp 80 +
STACK CFI 53a70 .cfa: x29 80 + x19: .cfa -8 + ^ x20: .cfa -16 + ^ x21: .cfa -24 + ^ x22: .cfa -32 + ^ x23: .cfa -40 + ^ x24: .cfa -48 + ^ x25: .cfa -56 + ^ x28: .cfa -64 + ^ .ra: .cfa -72 + ^ x29: .cfa -80 + ^
STACK CFI 53dac .cfa: sp 80 +
STACK CFI 53dc0 .cfa: sp 0 +
STACK CFI 53dc4 .cfa: x29 80 +
STACK CFI INIT 53f78 2f0 .cfa: sp 0 +
STACK CFI 53f7c .cfa: sp 128 +
STACK CFI 53f8c .cfa: x29 48 + x19: .cfa -8 + ^ x20: .cfa -16 + ^ x21: .cfa -24 + ^ x22: .cfa -32 + ^ .ra: .cfa -40 + ^ x29: .cfa -48 + ^
STACK CFI 54120 .cfa: sp 128 +
STACK CFI 54130 .cfa: sp 0 +
STACK CFI 54134 .cfa: x29 48 +
STACK CFI INIT 54424 4c0 .cfa: sp 0 +
STACK CFI 54428 .cfa: sp 272 +
STACK CFI 5443c .cfa: x29 64 + x19: .cfa -8 + ^ x20: .cfa -16 + ^ x21: .cfa -24 + ^ x22: .cfa -32 + ^ x23: .cfa -40 + ^ x28: .cfa -48 + ^ .ra: .cfa -56 + ^ x29: .cfa -64 + ^
STACK CFI 54758 .cfa: sp 272 +
STACK CFI 5476c .cfa: sp 0 +
STACK CFI 54770 .cfa: x29 64 +
STACK CFI INIT 548e4 2d0 .cfa: sp 0 +
STACK CFI 548e8 .cfa: sp 224 +
STACK CFI 548fc .cfa: x29 64 + x19: .cfa -8 + ^ x20: .cfa -16 + ^ x21: .cfa -24 + ^ x22: .cfa -32 + ^ x23: .cfa -48 + ^ .ra: .cfa -56 + ^ x29: .cfa -64 + ^
STACK CFI 54ad0 .cfa: sp 224 +
STACK CFI 54ae4 .cfa: sp 0 +
STACK CFI 54ae8 .cfa: x29 64 +
STACK CFI INIT 54bb4 1dc .cfa: sp 0 +
STACK CFI 54bb8 .cfa: sp 208 +
STACK CFI 54bd0 .cfa: x29 80 + x19: .cfa -8 + ^ x20: .cfa -16 + ^ x21: .cfa -24 + ^ x22: .cfa -32 + ^ x23: .cfa -40 + ^ x24: .cfa -48 + ^ x25: .cfa -64 + ^ .ra: .cfa -72 + ^ x29: .cfa -80 + ^
STACK CFI 54d1c .cfa: sp 208 +
STACK CFI 54d34 .cfa: sp 0 +
STACK CFI 54d38 .cfa: x29 80 +
STACK CFI INIT 54ebc 61c .cfa: sp 0 +
STACK CFI 54ec0 .cfa: sp 192 +
STACK CFI 54ed4 .cfa: x29 64 + x19: .cfa -8 + ^ x20: .cfa -16 + ^ x21: .cfa -24 + ^ x22: .cfa -32 + ^ x23: .cfa -48 + ^ .ra: .cfa -56 + ^ x29: .cfa -64 + ^
STACK CFI 552c0 .cfa: sp 192 +
STACK CFI 552d4 .cfa: sp 0 +
STACK CFI 552d8 .cfa: x29 64 +
STACK CFI INIT 55500 74 .cfa: sp 0 +
STACK CFI 55504 .cfa: sp 48 +
STACK CFI 55510 .cfa: x29 32 + x19: .cfa -8 + ^ x20: .cfa -16 + ^ .ra: .cfa -24 + ^ x29: .cfa -32 + ^
STACK CFI 5555c .cfa: sp 48 +
STACK CFI 55568 .cfa: sp 0 +
STACK CFI 5556c .cfa: x29 32 +
STACK CFI INIT 555e0 3dc .cfa: sp 0 +
STACK CFI 555e4 .cfa: sp 144 +
STACK CFI 555f8 .cfa: x29 64 + x19: .cfa -8 + ^ x20: .cfa -16 + ^ x21: .cfa -24 + ^ x22: .cfa -32 + ^ x23: .cfa -48 + ^ .ra: .cfa -56 + ^ x29: .cfa -64 + ^
STACK CFI 55878 .cfa: sp 144 +
STACK CFI 5588c .cfa: sp 0 +
STACK CFI 55890 .cfa: x29 64 +
STACK CFI INIT 55a38 404 .cfa: sp 0 +
STACK CFI 55a3c .cfa: sp 160 +
STACK CFI 55a50 .cfa: x29 64 + x19: .cfa -8 + ^ x20: .cfa -16 + ^ x21: .cfa -24 + ^ x22: .cfa -32 + ^ x23: .cfa -48 + ^ .ra: .cfa -56 + ^ x29: .cfa -64 + ^
STACK CFI 55ce8 .cfa: sp 160 +
STACK CFI 55cfc .cfa: sp 0 +
STACK CFI 55d00 .cfa: x29 64 +
STACK CFI INIT 55e64 648 .cfa: sp 0 +
STACK CFI 55e68 .cfa: sp 224 +
STACK CFI 55e7c .cfa: x29 48 + x19: .cfa -8 + ^ x20: .cfa -16 + ^ x21: .cfa -24 + ^ x22: .cfa -32 + ^ .ra: .cfa -40 + ^ x29: .cfa -48 + ^ v8: .cfa -64 + ^
STACK CFI 56454 .cfa: sp 224 +
STACK CFI 56468 .cfa: sp 0 +
STACK CFI 5646c .cfa: x29 48 +
STACK CFI INIT 564f4 158 .cfa: sp 0 +
STACK CFI 564f8 .cfa: sp 96 +
STACK CFI 56504 .cfa: x29 32 + x19: .cfa -8 + ^ x20: .cfa -16 + ^ .ra: .cfa -24 + ^ x29: .cfa -32 + ^
STACK CFI 565e4 .cfa: sp 96 +
STACK CFI 565f0 .cfa: sp 0 +
STACK CFI 565f4 .cfa: x29 32 +
STACK CFI INIT 56688 6e4 .cfa: sp 0 +
STACK CFI 5668c .cfa: sp 176 +
STACK CFI 566ac .cfa: x29 96 + x19: .cfa -8 + ^ x20: .cfa -16 + ^ x21: .cfa -24 + ^ x22: .cfa -32 + ^ x23: .cfa -40 + ^ x24: .cfa -48 + ^ x25: .cfa -56 + ^ x26: .cfa -64 + ^ x27: .cfa -72 + ^ x28: .cfa -80 + ^ .ra: .cfa -88 + ^ x29: .cfa -96 + ^ v8: .cfa -112 + ^
STACK CFI 56ce0 .cfa: sp 176 +
STACK CFI 56d00 .cfa: sp 0 +
STACK CFI 56d04 .cfa: x29 96 +
STACK CFI INIT 56d6c 484 .cfa: sp 0 +
STACK CFI 56d70 .cfa: sp 112 +
STACK CFI 56d80 .cfa: x29 48 + x19: .cfa -8 + ^ x20: .cfa -16 + ^ x21: .cfa -32 + ^ .ra: .cfa -40 + ^ x29: .cfa -48 + ^
STACK CFI 56dd0 .cfa: sp 112 +
STACK CFI 56de0 .cfa: sp 0 +
STACK CFI 56de4 .cfa: x29 48 +
STACK CFI 57170 .cfa: sp 112 +
STACK CFI 57180 .cfa: sp 0 +
STACK CFI 57184 .cfa: x29 48 +
STACK CFI INIT 571f0 1f00 .cfa: sp 0 +
STACK CFI 571f4 .cfa: sp 240 +
STACK CFI 57210 .cfa: x29 64 + x19: .cfa -8 + ^ x20: .cfa -16 + ^ x21: .cfa -24 + ^ x22: .cfa -32 + ^ x23: .cfa -40 + ^ x24: .cfa -48 + ^ .ra: .cfa -56 + ^ x29: .cfa -64 + ^ v8: .cfa -72 + ^ v9: .cfa -80 + ^ v10: .cfa -96 + ^
STACK CFI 58f7c .cfa: sp 240 +
STACK CFI 58f98 .cfa: sp 0 +
STACK CFI 58f9c .cfa: x29 64 +
STACK CFI INIT 59160 47c .cfa: sp 0 +
STACK CFI 59164 .cfa: sp 112 +
STACK CFI 59174 .cfa: x29 48 + x19: .cfa -8 + ^ x20: .cfa -16 + ^ x21: .cfa -32 + ^ .ra: .cfa -40 + ^ x29: .cfa -48 + ^
STACK CFI 59504 .cfa: sp 112 +
STACK CFI 59514 .cfa: sp 0 +
STACK CFI 59518 .cfa: x29 48 +
STACK CFI INIT 596a4 ac .cfa: sp 0 +
STACK CFI 596a8 .cfa: sp 64 +
STACK CFI 596b4 .cfa: x29 32 + x19: .cfa -8 + ^ x20: .cfa -16 + ^ .ra: .cfa -24 + ^ x29: .cfa -32 + ^
STACK CFI 59710 .cfa: sp 64 +
STACK CFI 5971c .cfa: sp 0 +
STACK CFI 59720 .cfa: x29 32 +
STACK CFI INIT 59750 a8 .cfa: sp 0 +
STACK CFI 59754 .cfa: sp 64 +
STACK CFI 59760 .cfa: x29 32 + x19: .cfa -8 + ^ x20: .cfa -16 + ^ .ra: .cfa -24 + ^ x29: .cfa -32 + ^
STACK CFI 597b8 .cfa: sp 64 +
STACK CFI 597c4 .cfa: sp 0 +
STACK CFI 597c8 .cfa: x29 32 +
STACK CFI INIT 597f8 ac .cfa: sp 0 +
STACK CFI 597fc .cfa: sp 64 +
STACK CFI 59808 .cfa: x29 32 + x19: .cfa -8 + ^ x20: .cfa -16 + ^ .ra: .cfa -24 + ^ x29: .cfa -32 + ^
STACK CFI 59864 .cfa: sp 64 +
STACK CFI 59870 .cfa: sp 0 +
STACK CFI 59874 .cfa: x29 32 +
STACK CFI INIT 598a4 a8 .cfa: sp 0 +
STACK CFI 598a8 .cfa: sp 64 +
STACK CFI 598b4 .cfa: x29 32 + x19: .cfa -8 + ^ x20: .cfa -16 + ^ .ra: .cfa -24 + ^ x29: .cfa -32 + ^
STACK CFI 5990c .cfa: sp 64 +
STACK CFI 59918 .cfa: sp 0 +
STACK CFI 5991c .cfa: x29 32 +
STACK CFI INIT 59b0c ac .cfa: sp 0 +
STACK CFI 59b10 .cfa: sp 64 +
STACK CFI 59b1c .cfa: x29 32 + x19: .cfa -8 + ^ x20: .cfa -16 + ^ .ra: .cfa -24 + ^ x29: .cfa -32 + ^
STACK CFI 59b78 .cfa: sp 64 +
STACK CFI 59b84 .cfa: sp 0 +
STACK CFI 59b88 .cfa: x29 32 +
STACK CFI INIT 59bb8 b0 .cfa: sp 0 +
STACK CFI 59bbc .cfa: sp 64 +
STACK CFI 59bc8 .cfa: x29 32 + x19: .cfa -8 + ^ x20: .cfa -16 + ^ .ra: .cfa -24 + ^ x29: .cfa -32 + ^
STACK CFI 59c28 .cfa: sp 64 +
STACK CFI 59c34 .cfa: sp 0 +
STACK CFI 59c38 .cfa: x29 32 +
STACK CFI INIT 59c68 ac .cfa: sp 0 +
STACK CFI 59c6c .cfa: sp 64 +
STACK CFI 59c78 .cfa: x29 32 + x19: .cfa -8 + ^ x20: .cfa -16 + ^ .ra: .cfa -24 + ^ x29: .cfa -32 + ^
STACK CFI 59cd4 .cfa: sp 64 +
STACK CFI 59ce0 .cfa: sp 0 +
STACK CFI 59ce4 .cfa: x29 32 +
STACK CFI INIT 59d14 b0 .cfa: sp 0 +
STACK CFI 59d18 .cfa: sp 64 +
STACK CFI 59d24 .cfa: x29 32 + x19: .cfa -8 + ^ x20: .cfa -16 + ^ .ra: .cfa -24 + ^ x29: .cfa -32 + ^
STACK CFI 59d84 .cfa: sp 64 +
STACK CFI 59d90 .cfa: sp 0 +
STACK CFI 59d94 .cfa: x29 32 +
STACK CFI INIT 59dc4 ac .cfa: sp 0 +
STACK CFI 59dc8 .cfa: sp 64 +
STACK CFI 59dd4 .cfa: x29 32 + x19: .cfa -8 + ^ x20: .cfa -16 + ^ .ra: .cfa -24 + ^ x29: .cfa -32 + ^
STACK CFI 59e30 .cfa: sp 64 +
STACK CFI 59e3c .cfa: sp 0 +
STACK CFI 59e40 .cfa: x29 32 +
STACK CFI INIT 59e70 b0 .cfa: sp 0 +
STACK CFI 59e74 .cfa: sp 64 +
STACK CFI 59e80 .cfa: x29 32 + x19: .cfa -8 + ^ x20: .cfa -16 + ^ .ra: .cfa -24 + ^ x29: .cfa -32 + ^
STACK CFI 59ee0 .cfa: sp 64 +
STACK CFI 59eec .cfa: sp 0 +
STACK CFI 59ef0 .cfa: x29 32 +
STACK CFI INIT 59f20 ac .cfa: sp 0 +
STACK CFI 59f24 .cfa: sp 64 +
STACK CFI 59f30 .cfa: x29 32 + x19: .cfa -8 + ^ x20: .cfa -16 + ^ .ra: .cfa -24 + ^ x29: .cfa -32 + ^
STACK CFI 59f8c .cfa: sp 64 +
STACK CFI 59f98 .cfa: sp 0 +
STACK CFI 59f9c .cfa: x29 32 +
STACK CFI INIT 59fcc b0 .cfa: sp 0 +
STACK CFI 59fd0 .cfa: sp 64 +
STACK CFI 59fdc .cfa: x29 32 + x19: .cfa -8 + ^ x20: .cfa -16 + ^ .ra: .cfa -24 + ^ x29: .cfa -32 + ^
STACK CFI 5a03c .cfa: sp 64 +
STACK CFI 5a048 .cfa: sp 0 +
STACK CFI 5a04c .cfa: x29 32 +
STACK CFI INIT 5a4bc 424 .cfa: sp 0 +
STACK CFI 5a4c0 .cfa: sp 208 +
STACK CFI 5a4dc .cfa: x29 72 + x19: .cfa -8 + ^ x20: .cfa -16 + ^ x21: .cfa -24 + ^ x22: .cfa -32 + ^ x23: .cfa -40 + ^ x24: .cfa -48 + ^ x25: .cfa -56 + ^ .ra: .cfa -64 + ^ x29: .cfa -72 + ^ v8: .cfa -80 + ^
STACK CFI 5a7a8 .cfa: sp 208 +
STACK CFI 5a7c4 .cfa: sp 0 +
STACK CFI 5a7c8 .cfa: x29 72 +
STACK CFI INIT 5a8e0 2e4 .cfa: sp 0 +
STACK CFI 5a8e4 .cfa: sp 144 +
STACK CFI 5a900 .cfa: x29 96 + x19: .cfa -8 + ^ x20: .cfa -16 + ^ x21: .cfa -24 + ^ x22: .cfa -32 + ^ x23: .cfa -40 + ^ x24: .cfa -48 + ^ x25: .cfa -56 + ^ x26: .cfa -64 + ^ x27: .cfa -72 + ^ x28: .cfa -80 + ^ .ra: .cfa -88 + ^ x29: .cfa -96 + ^
STACK CFI 5ab5c .cfa: sp 144 +
STACK CFI 5ab78 .cfa: sp 0 +
STACK CFI 5ab7c .cfa: x29 96 +
STACK CFI INIT 5abc4 1a4 .cfa: sp 0 +
STACK CFI 5abc8 .cfa: sp 96 +
STACK CFI 5abdc .cfa: x29 48 + x19: .cfa -8 + ^ x20: .cfa -16 + ^ x21: .cfa -24 + ^ x22: .cfa -32 + ^ .ra: .cfa -40 + ^ x29: .cfa -48 + ^ v8: .cfa -64 + ^
STACK CFI 5ad20 .cfa: sp 96 +
STACK CFI 5ad34 .cfa: sp 0 +
STACK CFI 5ad38 .cfa: x29 48 +
STACK CFI INIT 5aed0 180 .cfa: sp 0 +
STACK CFI 5aed4 .cfa: sp 80 +
STACK CFI 5aee4 .cfa: x29 48 + x19: .cfa -8 + ^ x20: .cfa -16 + ^ x21: .cfa -32 + ^ .ra: .cfa -40 + ^ x29: .cfa -48 + ^
STACK CFI 5b00c .cfa: sp 80 +
STACK CFI 5b01c .cfa: sp 0 +
STACK CFI 5b020 .cfa: x29 48 +
STACK CFI INIT 5b050 270 .cfa: sp 0 +
STACK CFI 5b054 .cfa: sp 400 +
STACK CFI 5b070 .cfa: x29 72 + x19: .cfa -8 + ^ x20: .cfa -16 + ^ x21: .cfa -24 + ^ x22: .cfa -32 + ^ x23: .cfa -40 + ^ x24: .cfa -48 + ^ x28: .cfa -56 + ^ .ra: .cfa -64 + ^ x29: .cfa -72 + ^ v8: .cfa -80 + ^
STACK CFI 5b21c .cfa: sp 400 +
STACK CFI 5b238 .cfa: sp 0 +
STACK CFI 5b23c .cfa: x29 72 +
STACK CFI INIT 5b2c0 258 .cfa: sp 0 +
STACK CFI 5b2c4 .cfa: sp 64 +
STACK CFI 5b2d4 .cfa: x29 48 + x19: .cfa -8 + ^ x20: .cfa -16 + ^ x21: .cfa -32 + ^ .ra: .cfa -40 + ^ x29: .cfa -48 + ^
STACK CFI 5b4d4 .cfa: sp 64 +
STACK CFI 5b4e4 .cfa: sp 0 +
STACK CFI 5b4e8 .cfa: x29 48 +
STACK CFI INIT 5b518 1ec .cfa: sp 0 +
STACK CFI 5b51c .cfa: sp 112 +
STACK CFI 5b530 .cfa: x29 40 + x19: .cfa -8 + ^ x20: .cfa -16 + ^ x21: .cfa -24 + ^ .ra: .cfa -32 + ^ x29: .cfa -40 + ^ v8: .cfa -48 + ^
STACK CFI 5b6b4 .cfa: sp 112 +
STACK CFI 5b6c8 .cfa: sp 0 +
STACK CFI 5b6cc .cfa: x29 40 +
STACK CFI INIT 5bcc0 98c .cfa: sp 0 +
STACK CFI 5bcc4 .cfa: sp 160 +
STACK CFI 5bcd8 .cfa: x29 64 + x19: .cfa -8 + ^ x20: .cfa -16 + ^ x21: .cfa -24 + ^ x22: .cfa -32 + ^ x23: .cfa -48 + ^ .ra: .cfa -56 + ^ x29: .cfa -64 + ^
STACK CFI 5c5c4 .cfa: sp 160 +
STACK CFI 5c5d8 .cfa: sp 0 +
STACK CFI 5c5dc .cfa: x29 64 +
STACK CFI INIT 5c698 394 .cfa: sp 0 +
STACK CFI 5c69c .cfa: sp 192 +
STACK CFI 5c6b4 .cfa: x29 80 + x19: .cfa -8 + ^ x20: .cfa -16 + ^ x21: .cfa -24 + ^ x22: .cfa -32 + ^ x23: .cfa -40 + ^ x24: .cfa -48 + ^ x25: .cfa -56 + ^ x26: .cfa -64 + ^ .ra: .cfa -72 + ^ x29: .cfa -80 + ^
STACK CFI 5c94c .cfa: sp 192 +
STACK CFI 5c964 .cfa: sp 0 +
STACK CFI 5c968 .cfa: x29 80 +
STACK CFI INIT 5ca2c 29c .cfa: sp 0 +
STACK CFI 5ca30 .cfa: sp 192 +
STACK CFI 5ca4c .cfa: x29 96 + x19: .cfa -8 + ^ x20: .cfa -16 + ^ x21: .cfa -24 + ^ x22: .cfa -32 + ^ x23: .cfa -40 + ^ x24: .cfa -48 + ^ x25: .cfa -56 + ^ x26: .cfa -64 + ^ x27: .cfa -80 + ^ .ra: .cfa -88 + ^ x29: .cfa -96 + ^
STACK CFI 5cc00 .cfa: sp 192 +
STACK CFI 5cc1c .cfa: sp 0 +
STACK CFI 5cc20 .cfa: x29 96 +
STACK CFI INIT 5ccc8 b5c .cfa: sp 0 +
STACK CFI 5cccc .cfa: sp 144 +
STACK CFI 5ccdc .cfa: x29 48 + x19: .cfa -8 + ^ x20: .cfa -16 + ^ x21: .cfa -32 + ^ .ra: .cfa -40 + ^ x29: .cfa -48 + ^
STACK CFI 5d6a0 .cfa: sp 144 +
STACK CFI 5d6b0 .cfa: sp 0 +
STACK CFI 5d6b4 .cfa: x29 48 +
STACK CFI INIT 5d824 288 .cfa: sp 0 +
STACK CFI 5d828 .cfa: sp 160 +
STACK CFI 5d840 .cfa: x29 80 + x19: .cfa -8 + ^ x20: .cfa -16 + ^ x21: .cfa -24 + ^ x22: .cfa -32 + ^ x23: .cfa -40 + ^ x24: .cfa -48 + ^ x25: .cfa -56 + ^ x26: .cfa -64 + ^ .ra: .cfa -72 + ^ x29: .cfa -80 + ^
STACK CFI 5d9ac .cfa: sp 160 +
STACK CFI 5d9c4 .cfa: sp 0 +
STACK CFI 5d9c8 .cfa: x29 80 +
STACK CFI INIT 5daac 290 .cfa: sp 0 +
STACK CFI 5dab0 .cfa: sp 160 +
STACK CFI 5dacc .cfa: x29 72 + x19: .cfa -8 + ^ x20: .cfa -16 + ^ x21: .cfa -24 + ^ x22: .cfa -32 + ^ x23: .cfa -40 + ^ x24: .cfa -48 + ^ x25: .cfa -56 + ^ .ra: .cfa -64 + ^ x29: .cfa -72 + ^ v8: .cfa -80 + ^
STACK CFI 5dc38 .cfa: sp 160 +
STACK CFI 5dc54 .cfa: sp 0 +
STACK CFI 5dc58 .cfa: x29 72 +
STACK CFI INIT 5dd3c 74 .cfa: sp 0 +
STACK CFI 5dd40 .cfa: sp 48 +
STACK CFI 5dd4c .cfa: x29 32 + x19: .cfa -8 + ^ x20: .cfa -16 + ^ .ra: .cfa -24 + ^ x29: .cfa -32 + ^
STACK CFI 5dd98 .cfa: sp 48 +
STACK CFI 5dda4 .cfa: sp 0 +
STACK CFI 5dda8 .cfa: x29 32 +
STACK CFI INIT 5ddb0 260 .cfa: sp 0 +
STACK CFI 5ddb4 .cfa: sp 160 +
STACK CFI 5ddc8 .cfa: x29 64 + x19: .cfa -8 + ^ x20: .cfa -16 + ^ x21: .cfa -24 + ^ x22: .cfa -32 + ^ x23: .cfa -48 + ^ .ra: .cfa -56 + ^ x29: .cfa -64 + ^
STACK CFI 5df40 .cfa: sp 160 +
STACK CFI 5df54 .cfa: sp 0 +
STACK CFI 5df58 .cfa: x29 64 +
STACK CFI INIT 5e164 2b0 .cfa: sp 0 +
STACK CFI 5e168 .cfa: sp 144 +
STACK CFI 5e180 .cfa: x29 80 + x19: .cfa -8 + ^ x20: .cfa -16 + ^ x21: .cfa -24 + ^ x22: .cfa -32 + ^ x23: .cfa -40 + ^ x24: .cfa -48 + ^ x25: .cfa -64 + ^ .ra: .cfa -72 + ^ x29: .cfa -80 + ^
STACK CFI 5e35c .cfa: sp 144 +
STACK CFI 5e374 .cfa: sp 0 +
STACK CFI 5e378 .cfa: x29 80 +
STACK CFI INIT 5e414 2e0 .cfa: sp 0 +
STACK CFI 5e418 .cfa: sp 144 +
STACK CFI 5e428 .cfa: x29 48 + x19: .cfa -8 + ^ x20: .cfa -16 + ^ x21: .cfa -24 + ^ x22: .cfa -32 + ^ .ra: .cfa -40 + ^ x29: .cfa -48 + ^
STACK CFI 5e510 .cfa: sp 144 +
STACK CFI 5e520 .cfa: sp 0 +
STACK CFI 5e524 .cfa: x29 48 +
STACK CFI 5e674 .cfa: sp 144 +
STACK CFI 5e684 .cfa: sp 0 +
STACK CFI 5e688 .cfa: x29 48 +
STACK CFI INIT 5e744 148 .cfa: sp 0 +
STACK CFI 5e748 .cfa: sp 32 +
STACK CFI 5e750 .cfa: x29 32 + x19: .cfa -8 + ^ x20: .cfa -16 + ^ .ra: .cfa -24 + ^ x29: .cfa -32 + ^
STACK CFI 5e838 .cfa: sp 32 +
STACK CFI 5e840 .cfa: sp 0 +
STACK CFI 5e844 .cfa: x29 32 +
STACK CFI 5e86c .cfa: sp 32 +
STACK CFI 5e874 .cfa: sp 0 +
STACK CFI 5e878 .cfa: x29 32 +
STACK CFI INIT 5e8e8 634 .cfa: sp 0 +
STACK CFI 5e8ec .cfa: sp 112 +
STACK CFI 5e8fc .cfa: x29 48 + x19: .cfa -8 + ^ x20: .cfa -16 + ^ x21: .cfa -32 + ^ .ra: .cfa -40 + ^ x29: .cfa -48 + ^
STACK CFI 5eed0 .cfa: sp 112 +
STACK CFI 5eee0 .cfa: sp 0 +
STACK CFI 5eee4 .cfa: x29 48 +
STACK CFI INIT 5ef1c 1ec .cfa: sp 0 +
STACK CFI 5ef20 .cfa: sp 208 +
STACK CFI 5ef38 .cfa: x29 80 + x19: .cfa -8 + ^ x20: .cfa -16 + ^ x21: .cfa -24 + ^ x22: .cfa -32 + ^ x23: .cfa -40 + ^ x24: .cfa -48 + ^ x25: .cfa -64 + ^ .ra: .cfa -72 + ^ x29: .cfa -80 + ^
STACK CFI 5f094 .cfa: sp 208 +
STACK CFI 5f0ac .cfa: sp 0 +
STACK CFI 5f0b0 .cfa: x29 80 +
STACK CFI INIT 5f108 1e0 .cfa: sp 0 +
STACK CFI 5f10c .cfa: sp 208 +
STACK CFI 5f124 .cfa: x29 64 + x19: .cfa -8 + ^ x20: .cfa -16 + ^ x21: .cfa -24 + ^ x22: .cfa -32 + ^ x23: .cfa -40 + ^ x24: .cfa -48 + ^ .ra: .cfa -56 + ^ x29: .cfa -64 + ^ v8: .cfa -80 + ^
STACK CFI 5f274 .cfa: sp 208 +
STACK CFI 5f28c .cfa: sp 0 +
STACK CFI 5f290 .cfa: x29 64 +
STACK CFI INIT 5f5cc 1e8 .cfa: sp 0 +
STACK CFI 5f5d0 .cfa: sp 96 +
STACK CFI 5f5e8 .cfa: x29 96 + x19: .cfa -8 + ^ x20: .cfa -16 + ^ x21: .cfa -24 + ^ x22: .cfa -32 + ^ x23: .cfa -40 + ^ x24: .cfa -48 + ^ x25: .cfa -56 + ^ x26: .cfa -64 + ^ x28: .cfa -80 + ^ .ra: .cfa -88 + ^ x29: .cfa -96 + ^
STACK CFI 5f70c .cfa: sp 96 +
STACK CFI 5f724 .cfa: sp 0 +
STACK CFI 5f728 .cfa: x29 96 +
STACK CFI INIT 5f7b4 188 .cfa: sp 0 +
STACK CFI 5f7b8 .cfa: sp 112 +
STACK CFI 5f7c8 .cfa: x29 48 + x19: .cfa -8 + ^ x20: .cfa -16 + ^ x21: .cfa -32 + ^ .ra: .cfa -40 + ^ x29: .cfa -48 + ^
STACK CFI 5f894 .cfa: sp 112 +
STACK CFI 5f8a4 .cfa: sp 0 +
STACK CFI 5f8a8 .cfa: x29 48 +
STACK CFI INIT 5f93c 2b8 .cfa: sp 0 +
STACK CFI 5f940 .cfa: sp 160 +
STACK CFI 5f95c .cfa: x29 96 + x19: .cfa -8 + ^ x20: .cfa -16 + ^ x21: .cfa -24 + ^ x22: .cfa -32 + ^ x23: .cfa -40 + ^ x24: .cfa -48 + ^ x25: .cfa -56 + ^ x26: .cfa -64 + ^ x27: .cfa -72 + ^ x28: .cfa -80 + ^ .ra: .cfa -88 + ^ x29: .cfa -96 + ^
STACK CFI 5f994 .cfa: sp 160 +
STACK CFI 5f9b0 .cfa: sp 0 +
STACK CFI 5f9b4 .cfa: x29 96 +
STACK CFI INIT 5fbf4 114 .cfa: sp 0 +
STACK CFI 5fbf8 .cfa: sp 64 +
STACK CFI 5fc08 .cfa: x29 64 + x19: .cfa -8 + ^ x20: .cfa -16 + ^ x21: .cfa -24 + ^ x22: .cfa -32 + ^ x23: .cfa -48 + ^ .ra: .cfa -56 + ^ x29: .cfa -64 + ^
STACK CFI 5fce4 .cfa: sp 64 +
STACK CFI 5fcf4 .cfa: sp 0 +
STACK CFI 5fcf8 .cfa: x29 64 +
STACK CFI INIT 5fd20 22c .cfa: sp 0 +
STACK CFI 5fd24 .cfa: sp 96 +
STACK CFI 5fd3c .cfa: x29 96 + x19: .cfa -8 + ^ x20: .cfa -16 + ^ x21: .cfa -24 + ^ x22: .cfa -32 + ^ x23: .cfa -40 + ^ x24: .cfa -48 + ^ x25: .cfa -56 + ^ x26: .cfa -64 + ^ x27: .cfa -80 + ^ .ra: .cfa -88 + ^ x29: .cfa -96 + ^
STACK CFI 5fee0 .cfa: sp 96 +
STACK CFI 5fef8 .cfa: sp 0 +
STACK CFI 5fefc .cfa: x29 96 +
STACK CFI INIT 60038 3fc .cfa: sp 0 +
STACK CFI 6003c .cfa: sp 224 +
STACK CFI 60058 .cfa: x29 96 + x19: .cfa -8 + ^ x20: .cfa -16 + ^ x21: .cfa -24 + ^ x22: .cfa -32 + ^ x23: .cfa -40 + ^ x24: .cfa -48 + ^ x25: .cfa -56 + ^ x26: .cfa -64 + ^ x27: .cfa -72 + ^ x28: .cfa -80 + ^ .ra: .cfa -88 + ^ x29: .cfa -96 + ^
STACK CFI 60330 .cfa: sp 224 +
STACK CFI 6034c .cfa: sp 0 +
STACK CFI 60350 .cfa: x29 96 +
STACK CFI INIT 60434 898 .cfa: sp 0 +
STACK CFI 60438 .cfa: sp 192 +
STACK CFI 60450 .cfa: x29 80 + x19: .cfa -8 + ^ x20: .cfa -16 + ^ x21: .cfa -24 + ^ x22: .cfa -32 + ^ x23: .cfa -40 + ^ x24: .cfa -48 + ^ x25: .cfa -64 + ^ .ra: .cfa -72 + ^ x29: .cfa -80 + ^
STACK CFI 60a94 .cfa: sp 192 +
STACK CFI 60aac .cfa: sp 0 +
STACK CFI 60ab0 .cfa: x29 80 +
STACK CFI INIT 60d1c 74 .cfa: sp 0 +
STACK CFI 60d20 .cfa: sp 48 +
STACK CFI 60d2c .cfa: x29 32 + x19: .cfa -8 + ^ x20: .cfa -16 + ^ .ra: .cfa -24 + ^ x29: .cfa -32 + ^
STACK CFI 60d78 .cfa: sp 48 +
STACK CFI 60d84 .cfa: sp 0 +
STACK CFI 60d88 .cfa: x29 32 +
STACK CFI INIT 60d94 154 .cfa: sp 0 +
STACK CFI 60d98 .cfa: sp 384 +
STACK CFI 60dac .cfa: x29 64 + x19: .cfa -8 + ^ x20: .cfa -16 + ^ x21: .cfa -24 + ^ x22: .cfa -32 + ^ x23: .cfa -40 + ^ x28: .cfa -48 + ^ .ra: .cfa -56 + ^ x29: .cfa -64 + ^
STACK CFI 60e90 .cfa: sp 384 +
STACK CFI 60ea4 .cfa: sp 0 +
STACK CFI 60ea8 .cfa: x29 64 +
STACK CFI INIT 61548 118 .cfa: sp 0 +
STACK CFI 6154c .cfa: sp 144 +
STACK CFI 61564 .cfa: x29 80 + x19: .cfa -8 + ^ x20: .cfa -16 + ^ x21: .cfa -24 + ^ x22: .cfa -32 + ^ x23: .cfa -40 + ^ x24: .cfa -48 + ^ x25: .cfa -64 + ^ .ra: .cfa -72 + ^ x29: .cfa -80 + ^
STACK CFI 6160c .cfa: sp 144 +
STACK CFI 61624 .cfa: sp 0 +
STACK CFI 61628 .cfa: x29 80 +
STACK CFI INIT 61664 184 .cfa: sp 0 +
STACK CFI 61668 .cfa: sp 160 +
STACK CFI 61680 .cfa: x29 80 + x19: .cfa -8 + ^ x20: .cfa -16 + ^ x21: .cfa -24 + ^ x22: .cfa -32 + ^ x23: .cfa -40 + ^ x24: .cfa -48 + ^ x25: .cfa -56 + ^ x26: .cfa -64 + ^ .ra: .cfa -72 + ^ x29: .cfa -80 + ^
STACK CFI 61780 .cfa: sp 160 +
STACK CFI 61798 .cfa: sp 0 +
STACK CFI 6179c .cfa: x29 80 +
STACK CFI INIT 61800 184 .cfa: sp 0 +
STACK CFI 61804 .cfa: sp 160 +
STACK CFI 6181c .cfa: x29 80 + x19: .cfa -8 + ^ x20: .cfa -16 + ^ x21: .cfa -24 + ^ x22: .cfa -32 + ^ x23: .cfa -40 + ^ x24: .cfa -48 + ^ x25: .cfa -56 + ^ x26: .cfa -64 + ^ .ra: .cfa -72 + ^ x29: .cfa -80 + ^
STACK CFI 6191c .cfa: sp 160 +
STACK CFI 61934 .cfa: sp 0 +
STACK CFI 61938 .cfa: x29 80 +
STACK CFI INIT 61ab0 ec .cfa: sp 0 +
STACK CFI 61ab4 .cfa: sp 48 +
STACK CFI 61ac0 .cfa: x29 48 + x19: .cfa -8 + ^ x20: .cfa -16 + ^ x21: .cfa -24 + ^ x22: .cfa -32 + ^ .ra: .cfa -40 + ^ x29: .cfa -48 + ^
STACK CFI 61b0c .cfa: sp 48 +
STACK CFI 61b18 .cfa: sp 0 +
STACK CFI 61b1c .cfa: x29 48 +
STACK CFI 61b20 .cfa: sp 48 +
STACK CFI 61b2c .cfa: sp 0 +
STACK CFI 61b30 .cfa: x29 48 +
STACK CFI INIT 61c4c 2d4 .cfa: sp 0 +
STACK CFI 61c50 .cfa: sp 96 +
STACK CFI 61c68 .cfa: x29 80 + x19: .cfa -8 + ^ x20: .cfa -16 + ^ x21: .cfa -24 + ^ x22: .cfa -32 + ^ x23: .cfa -40 + ^ x24: .cfa -48 + ^ x25: .cfa -64 + ^ .ra: .cfa -72 + ^ x29: .cfa -80 + ^
STACK CFI 61ebc .cfa: sp 96 +
STACK CFI 61ed4 .cfa: sp 0 +
STACK CFI 61ed8 .cfa: x29 80 +
STACK CFI INIT 622a8 1870 .cfa: sp 0 +
STACK CFI 622ac .cfa: sp 368 +
STACK CFI 622cc .cfa: x29 96 + x19: .cfa -8 + ^ x20: .cfa -16 + ^ x21: .cfa -24 + ^ x22: .cfa -32 + ^ x23: .cfa -40 + ^ x24: .cfa -48 + ^ x25: .cfa -56 + ^ x26: .cfa -64 + ^ x27: .cfa -72 + ^ x28: .cfa -80 + ^ .ra: .cfa -88 + ^ x29: .cfa -96 + ^ v8: .cfa -112 + ^
STACK CFI 63490 .cfa: sp 368 +
STACK CFI 634b0 .cfa: sp 0 +
STACK CFI 634b4 .cfa: x29 96 +
STACK CFI INIT 63b40 10c .cfa: sp 0 +
STACK CFI 63b44 .cfa: sp 112 +
STACK CFI 63b50 .cfa: x29 32 + x19: .cfa -8 + ^ x20: .cfa -16 + ^ .ra: .cfa -24 + ^ x29: .cfa -32 + ^
STACK CFI 63c1c .cfa: sp 112 +
STACK CFI 63c28 .cfa: sp 0 +
STACK CFI 63c2c .cfa: x29 32 +
STACK CFI INIT 63c4c 170 .cfa: sp 0 +
STACK CFI 63c50 .cfa: sp 160 +
STACK CFI 63c60 .cfa: x29 48 + x19: .cfa -8 + ^ x20: .cfa -16 + ^ x21: .cfa -32 + ^ .ra: .cfa -40 + ^ x29: .cfa -48 + ^
STACK CFI 63d60 .cfa: sp 160 +
STACK CFI 63d70 .cfa: sp 0 +
STACK CFI 63d74 .cfa: x29 48 +
STACK CFI INIT 63dbc 170 .cfa: sp 0 +
STACK CFI 63dc0 .cfa: sp 160 +
STACK CFI 63dd0 .cfa: x29 48 + x19: .cfa -8 + ^ x20: .cfa -16 + ^ x21: .cfa -32 + ^ .ra: .cfa -40 + ^ x29: .cfa -48 + ^
STACK CFI 63ed0 .cfa: sp 160 +
STACK CFI 63ee0 .cfa: sp 0 +
STACK CFI 63ee4 .cfa: x29 48 +
STACK CFI INIT 63fa8 43c .cfa: sp 0 +
STACK CFI 63fac .cfa: sp 224 +
STACK CFI 63fc8 .cfa: x29 96 + x19: .cfa -8 + ^ x20: .cfa -16 + ^ x21: .cfa -24 + ^ x22: .cfa -32 + ^ x23: .cfa -40 + ^ x24: .cfa -48 + ^ x25: .cfa -56 + ^ x26: .cfa -64 + ^ x27: .cfa -72 + ^ x28: .cfa -80 + ^ .ra: .cfa -88 + ^ x29: .cfa -96 + ^
STACK CFI 642dc .cfa: sp 224 +
STACK CFI 642f8 .cfa: sp 0 +
STACK CFI 642fc .cfa: x29 96 +
STACK CFI INIT 64400 3fc .cfa: sp 0 +
STACK CFI 64404 .cfa: sp 224 +
STACK CFI 64420 .cfa: x29 96 + x19: .cfa -8 + ^ x20: .cfa -16 + ^ x21: .cfa -24 + ^ x22: .cfa -32 + ^ x23: .cfa -40 + ^ x24: .cfa -48 + ^ x25: .cfa -56 + ^ x26: .cfa -64 + ^ x27: .cfa -72 + ^ x28: .cfa -80 + ^ .ra: .cfa -88 + ^ x29: .cfa -96 + ^
STACK CFI 646f8 .cfa: sp 224 +
STACK CFI 64714 .cfa: sp 0 +
STACK CFI 64718 .cfa: x29 96 +
STACK CFI INIT 647fc 85c .cfa: sp 0 +
STACK CFI 64800 .cfa: sp 176 +
STACK CFI 64818 .cfa: x29 80 + x19: .cfa -8 + ^ x20: .cfa -16 + ^ x21: .cfa -24 + ^ x22: .cfa -32 + ^ x23: .cfa -40 + ^ x24: .cfa -48 + ^ x25: .cfa -64 + ^ .ra: .cfa -72 + ^ x29: .cfa -80 + ^
STACK CFI 64e1c .cfa: sp 176 +
STACK CFI 64e34 .cfa: sp 0 +
STACK CFI 64e38 .cfa: x29 80 +
STACK CFI INIT 6505c 184 .cfa: sp 0 +
STACK CFI 65060 .cfa: sp 144 +
STACK CFI 65078 .cfa: x29 80 + x19: .cfa -8 + ^ x20: .cfa -16 + ^ x21: .cfa -24 + ^ x22: .cfa -32 + ^ x23: .cfa -40 + ^ x24: .cfa -48 + ^ x25: .cfa -56 + ^ x26: .cfa -64 + ^ .ra: .cfa -72 + ^ x29: .cfa -80 + ^
STACK CFI 65178 .cfa: sp 144 +
STACK CFI 65190 .cfa: sp 0 +
STACK CFI 65194 .cfa: x29 80 +
STACK CFI INIT 651e4 184 .cfa: sp 0 +
STACK CFI 651e8 .cfa: sp 160 +
STACK CFI 65200 .cfa: x29 80 + x19: .cfa -8 + ^ x20: .cfa -16 + ^ x21: .cfa -24 + ^ x22: .cfa -32 + ^ x23: .cfa -40 + ^ x24: .cfa -48 + ^ x25: .cfa -56 + ^ x26: .cfa -64 + ^ .ra: .cfa -72 + ^ x29: .cfa -80 + ^
STACK CFI 65300 .cfa: sp 160 +
STACK CFI 65318 .cfa: sp 0 +
STACK CFI 6531c .cfa: x29 80 +
STACK CFI INIT 6547c 5c4 .cfa: sp 0 +
STACK CFI 65480 .cfa: sp 224 +
STACK CFI 65498 .cfa: x29 80 + x19: .cfa -8 + ^ x20: .cfa -16 + ^ x21: .cfa -24 + ^ x22: .cfa -32 + ^ x23: .cfa -40 + ^ x24: .cfa -48 + ^ x25: .cfa -56 + ^ x26: .cfa -64 + ^ .ra: .cfa -72 + ^ x29: .cfa -80 + ^
STACK CFI 65878 .cfa: sp 224 +
STACK CFI 65890 .cfa: sp 0 +
STACK CFI 65894 .cfa: x29 80 +
STACK CFI INIT 65a44 2c8 .cfa: sp 0 +
STACK CFI 65a48 .cfa: sp 176 +
STACK CFI 65a5c .cfa: x29 64 + x19: .cfa -8 + ^ x20: .cfa -16 + ^ x21: .cfa -24 + ^ x22: .cfa -32 + ^ x23: .cfa -40 + ^ x24: .cfa -48 + ^ .ra: .cfa -56 + ^ x29: .cfa -64 + ^
STACK CFI 65ca0 .cfa: sp 176 +
STACK CFI 65cb4 .cfa: sp 0 +
STACK CFI 65cb8 .cfa: x29 64 +
STACK CFI INIT 65d24 a8 .cfa: sp 0 +
STACK CFI 65d28 .cfa: sp 32 +
STACK CFI 65d30 .cfa: x29 32 + x19: .cfa -16 + ^ .ra: .cfa -24 + ^ x29: .cfa -32 + ^
STACK CFI 65d64 .cfa: sp 32 +
STACK CFI 65d6c .cfa: sp 0 +
STACK CFI 65d70 .cfa: x29 32 +
STACK CFI 65d74 .cfa: sp 32 +
STACK CFI 65d7c .cfa: sp 0 +
STACK CFI 65d80 .cfa: x29 32 +
STACK CFI INIT 65e68 230 .cfa: sp 0 +
STACK CFI 65e6c .cfa: sp 160 +
STACK CFI 65e80 .cfa: x29 64 + x19: .cfa -8 + ^ x20: .cfa -16 + ^ x21: .cfa -24 + ^ x22: .cfa -32 + ^ x23: .cfa -48 + ^ .ra: .cfa -56 + ^ x29: .cfa -64 + ^
STACK CFI 65f98 .cfa: sp 160 +
STACK CFI 65fac .cfa: sp 0 +
STACK CFI 65fb0 .cfa: x29 64 +
STACK CFI INIT 661b0 3fc .cfa: sp 0 +
STACK CFI 661b4 .cfa: sp 224 +
STACK CFI 661d0 .cfa: x29 96 + x19: .cfa -8 + ^ x20: .cfa -16 + ^ x21: .cfa -24 + ^ x22: .cfa -32 + ^ x23: .cfa -40 + ^ x24: .cfa -48 + ^ x25: .cfa -56 + ^ x26: .cfa -64 + ^ x27: .cfa -72 + ^ x28: .cfa -80 + ^ .ra: .cfa -88 + ^ x29: .cfa -96 + ^
STACK CFI 664a8 .cfa: sp 224 +
STACK CFI 664c4 .cfa: sp 0 +
STACK CFI 664c8 .cfa: x29 96 +
STACK CFI INIT 665ac 2a0 .cfa: sp 0 +
STACK CFI 665b0 .cfa: sp 176 +
STACK CFI 665c4 .cfa: x29 64 + x19: .cfa -8 + ^ x20: .cfa -16 + ^ x21: .cfa -24 + ^ x22: .cfa -32 + ^ x23: .cfa -48 + ^ .ra: .cfa -56 + ^ x29: .cfa -64 + ^
STACK CFI 66774 .cfa: sp 176 +
STACK CFI 66788 .cfa: sp 0 +
STACK CFI 6678c .cfa: x29 64 +
STACK CFI INIT 66850 118 .cfa: sp 0 +
STACK CFI 66854 .cfa: sp 144 +
STACK CFI 6686c .cfa: x29 80 + x19: .cfa -8 + ^ x20: .cfa -16 + ^ x21: .cfa -24 + ^ x22: .cfa -32 + ^ x23: .cfa -40 + ^ x24: .cfa -48 + ^ x25: .cfa -64 + ^ .ra: .cfa -72 + ^ x29: .cfa -80 + ^
STACK CFI 66914 .cfa: sp 144 +
STACK CFI 6692c .cfa: sp 0 +
STACK CFI 66930 .cfa: x29 80 +
STACK CFI INIT 66a3c ec .cfa: sp 0 +
STACK CFI 66a40 .cfa: sp 48 +
STACK CFI 66a4c .cfa: x29 48 + x19: .cfa -8 + ^ x20: .cfa -16 + ^ x21: .cfa -24 + ^ x22: .cfa -32 + ^ .ra: .cfa -40 + ^ x29: .cfa -48 + ^
STACK CFI 66a98 .cfa: sp 48 +
STACK CFI 66aa4 .cfa: sp 0 +
STACK CFI 66aa8 .cfa: x29 48 +
STACK CFI 66aac .cfa: sp 48 +
STACK CFI 66ab8 .cfa: sp 0 +
STACK CFI 66abc .cfa: x29 48 +
STACK CFI INIT 66bbc 108 .cfa: sp 0 +
STACK CFI 66bc0 .cfa: sp 64 +
STACK CFI 66bd0 .cfa: x29 48 + x19: .cfa -8 + ^ x20: .cfa -16 + ^ x21: .cfa -24 + ^ x22: .cfa -32 + ^ .ra: .cfa -40 + ^ x29: .cfa -48 + ^
STACK CFI 66c7c .cfa: sp 64 +
STACK CFI 66c8c .cfa: sp 0 +
STACK CFI 66c90 .cfa: x29 48 +
STACK CFI INIT 6705c 1b8 .cfa: sp 0 +
STACK CFI 67060 .cfa: sp 96 +
STACK CFI 67074 .cfa: x29 64 + x19: .cfa -8 + ^ x20: .cfa -16 + ^ x21: .cfa -24 + ^ x22: .cfa -32 + ^ x23: .cfa -48 + ^ .ra: .cfa -56 + ^ x29: .cfa -64 + ^
STACK CFI 671bc .cfa: sp 96 +
STACK CFI 671d0 .cfa: sp 0 +
STACK CFI 671d4 .cfa: x29 64 +
STACK CFI INIT 67214 3fc .cfa: sp 0 +
STACK CFI 67218 .cfa: sp 160 +
STACK CFI 6722c .cfa: x29 64 + x19: .cfa -8 + ^ x20: .cfa -16 + ^ x21: .cfa -24 + ^ x22: .cfa -32 + ^ x23: .cfa -40 + ^ x24: .cfa -48 + ^ .ra: .cfa -56 + ^ x29: .cfa -64 + ^
STACK CFI 6756c .cfa: sp 160 +
STACK CFI 67580 .cfa: sp 0 +
STACK CFI 67584 .cfa: x29 64 +
STACK CFI INIT 67610 174 .cfa: sp 0 +
STACK CFI 67614 .cfa: sp 96 +
STACK CFI 67620 .cfa: x29 32 + x19: .cfa -8 + ^ x20: .cfa -16 + ^ .ra: .cfa -24 + ^ x29: .cfa -32 + ^
STACK CFI 67730 .cfa: sp 96 +
STACK CFI 6773c .cfa: sp 0 +
STACK CFI 67740 .cfa: x29 32 +
STACK CFI INIT 67784 150 .cfa: sp 0 +
STACK CFI 67788 .cfa: sp 48 +
STACK CFI 67794 .cfa: x29 48 + x19: .cfa -8 + ^ x20: .cfa -16 + ^ x21: .cfa -24 + ^ x22: .cfa -32 + ^ .ra: .cfa -40 + ^ x29: .cfa -48 + ^
STACK CFI 678b0 .cfa: sp 48 +
STACK CFI 678bc .cfa: sp 0 +
STACK CFI 678c0 .cfa: x29 48 +
STACK CFI INIT 678d4 134 .cfa: sp 0 +
STACK CFI 678d8 .cfa: sp 80 +
STACK CFI 678e8 .cfa: x29 48 + x19: .cfa -8 + ^ x20: .cfa -16 + ^ x21: .cfa -24 + ^ x22: .cfa -32 + ^ .ra: .cfa -40 + ^ x29: .cfa -48 + ^
STACK CFI 679ec .cfa: sp 80 +
STACK CFI 679fc .cfa: sp 0 +
STACK CFI 67a00 .cfa: x29 48 +
STACK CFI INIT 67a08 1c4 .cfa: sp 0 +
STACK CFI 67a0c .cfa: sp 80 +
STACK CFI 67a1c .cfa: x29 48 + x19: .cfa -8 + ^ x20: .cfa -16 + ^ x21: .cfa -24 + ^ x22: .cfa -32 + ^ .ra: .cfa -40 + ^ x29: .cfa -48 + ^
STACK CFI 67b88 .cfa: sp 80 +
STACK CFI 67b98 .cfa: sp 0 +
STACK CFI 67b9c .cfa: x29 48 +
STACK CFI INIT 67bcc 250 .cfa: sp 0 +
STACK CFI 67bd0 .cfa: sp 160 +
STACK CFI 67be4 .cfa: x29 64 + x19: .cfa -8 + ^ x20: .cfa -16 + ^ x21: .cfa -24 + ^ x22: .cfa -32 + ^ x23: .cfa -48 + ^ .ra: .cfa -56 + ^ x29: .cfa -64 + ^
STACK CFI 67d18 .cfa: sp 160 +
STACK CFI 67d2c .cfa: sp 0 +
STACK CFI 67d30 .cfa: x29 64 +
STACK CFI INIT 67f18 1d0 .cfa: sp 0 +
STACK CFI 67f1c .cfa: sp 128 +
STACK CFI 67f2c .cfa: x29 48 + x19: .cfa -8 + ^ x20: .cfa -16 + ^ x21: .cfa -32 + ^ .ra: .cfa -40 + ^ x29: .cfa -48 + ^
STACK CFI 67fb0 .cfa: sp 128 +
STACK CFI 67fc0 .cfa: sp 0 +
STACK CFI 67fc4 .cfa: x29 48 +
STACK CFI 68090 .cfa: sp 128 +
STACK CFI 680a0 .cfa: sp 0 +
STACK CFI 680a4 .cfa: x29 48 +
STACK CFI INIT 68110 480 .cfa: sp 0 +
STACK CFI 68114 .cfa: sp 224 +
STACK CFI 68130 .cfa: x29 96 + x19: .cfa -8 + ^ x20: .cfa -16 + ^ x21: .cfa -24 + ^ x22: .cfa -32 + ^ x23: .cfa -40 + ^ x24: .cfa -48 + ^ x25: .cfa -56 + ^ x26: .cfa -64 + ^ x27: .cfa -80 + ^ .ra: .cfa -88 + ^ x29: .cfa -96 + ^
STACK CFI 6839c .cfa: sp 224 +
STACK CFI 683b8 .cfa: sp 0 +
STACK CFI 683bc .cfa: x29 96 +
STACK CFI 68488 .cfa: sp 224 +
STACK CFI 684a4 .cfa: sp 0 +
STACK CFI 684a8 .cfa: x29 96 +
STACK CFI INIT 685ac 648 .cfa: sp 0 +
STACK CFI 685b0 .cfa: sp 256 +
STACK CFI 685c8 .cfa: x29 80 + x19: .cfa -8 + ^ x20: .cfa -16 + ^ x21: .cfa -24 + ^ x22: .cfa -32 + ^ x23: .cfa -40 + ^ x24: .cfa -48 + ^ x25: .cfa -56 + ^ x26: .cfa -64 + ^ .ra: .cfa -72 + ^ x29: .cfa -80 + ^
STACK CFI 68a1c .cfa: sp 256 +
STACK CFI 68a34 .cfa: sp 0 +
STACK CFI 68a38 .cfa: x29 80 +
STACK CFI INIT 68bf8 808 .cfa: sp 0 +
STACK CFI 68bfc .cfa: sp 256 +
STACK CFI 68c1c .cfa: x29 80 + x19: .cfa -8 + ^ x20: .cfa -16 + ^ x21: .cfa -24 + ^ x22: .cfa -32 + ^ x23: .cfa -40 + ^ x24: .cfa -48 + ^ x25: .cfa -56 + ^ x26: .cfa -64 + ^ .ra: .cfa -72 + ^ x29: .cfa -80 + ^ v8: .cfa -88 + ^ v9: .cfa -96 + ^ v10: .cfa -112 + ^
STACK CFI 69388 .cfa: sp 256 +
STACK CFI 693a8 .cfa: sp 0 +
STACK CFI 693ac .cfa: x29 80 +
STACK CFI INIT 69400 33c .cfa: sp 0 +
STACK CFI 69404 .cfa: sp 144 +
STACK CFI 69418 .cfa: x29 64 + x19: .cfa -8 + ^ x20: .cfa -16 + ^ x21: .cfa -24 + ^ x22: .cfa -32 + ^ x23: .cfa -40 + ^ x24: .cfa -48 + ^ .ra: .cfa -56 + ^ x29: .cfa -64 + ^
STACK CFI 69684 .cfa: sp 144 +
STACK CFI 69698 .cfa: sp 0 +
STACK CFI 6969c .cfa: x29 64 +
STACK CFI INIT 6982c 108 .cfa: sp 0 +
STACK CFI 69830 .cfa: sp 48 +
STACK CFI 6983c .cfa: x29 48 + x19: .cfa -8 + ^ x20: .cfa -16 + ^ x21: .cfa -24 + ^ x22: .cfa -32 + ^ .ra: .cfa -40 + ^ x29: .cfa -48 + ^
STACK CFI 69910 .cfa: sp 48 +
STACK CFI 6991c .cfa: sp 0 +
STACK CFI 69920 .cfa: x29 48 +
STACK CFI INIT 69934 30c .cfa: sp 0 +
STACK CFI 69938 .cfa: sp 128 +
STACK CFI 6994c .cfa: x29 64 + x19: .cfa -8 + ^ x20: .cfa -16 + ^ x21: .cfa -24 + ^ x22: .cfa -32 + ^ x23: .cfa -48 + ^ .ra: .cfa -56 + ^ x29: .cfa -64 + ^
STACK CFI 69be0 .cfa: sp 128 +
STACK CFI 69bf4 .cfa: sp 0 +
STACK CFI 69bf8 .cfa: x29 64 +
STACK CFI INIT 69c40 238 .cfa: sp 0 +
STACK CFI 69c44 .cfa: sp 160 +
STACK CFI 69c58 .cfa: x29 64 + x19: .cfa -8 + ^ x20: .cfa -16 + ^ x21: .cfa -24 + ^ x22: .cfa -32 + ^ x23: .cfa -48 + ^ .ra: .cfa -56 + ^ x29: .cfa -64 + ^
STACK CFI 69d78 .cfa: sp 160 +
STACK CFI 69d8c .cfa: sp 0 +
STACK CFI 69d90 .cfa: x29 64 +
STACK CFI INIT 69f68 1d0 .cfa: sp 0 +
STACK CFI 69f6c .cfa: sp 128 +
STACK CFI 69f7c .cfa: x29 48 + x19: .cfa -8 + ^ x20: .cfa -16 + ^ x21: .cfa -32 + ^ .ra: .cfa -40 + ^ x29: .cfa -48 + ^
STACK CFI 6a008 .cfa: sp 128 +
STACK CFI 6a018 .cfa: sp 0 +
STACK CFI 6a01c .cfa: x29 48 +
STACK CFI 6a0e4 .cfa: sp 128 +
STACK CFI 6a0f4 .cfa: sp 0 +
STACK CFI 6a0f8 .cfa: x29 48 +
STACK CFI INIT 6a160 480 .cfa: sp 0 +
STACK CFI 6a164 .cfa: sp 224 +
STACK CFI 6a180 .cfa: x29 96 + x19: .cfa -8 + ^ x20: .cfa -16 + ^ x21: .cfa -24 + ^ x22: .cfa -32 + ^ x23: .cfa -40 + ^ x24: .cfa -48 + ^ x25: .cfa -56 + ^ x26: .cfa -64 + ^ x27: .cfa -80 + ^ .ra: .cfa -88 + ^ x29: .cfa -96 + ^
STACK CFI 6a3ec .cfa: sp 224 +
STACK CFI 6a408 .cfa: sp 0 +
STACK CFI 6a40c .cfa: x29 96 +
STACK CFI 6a4d8 .cfa: sp 224 +
STACK CFI 6a4f4 .cfa: sp 0 +
STACK CFI 6a4f8 .cfa: x29 96 +
STACK CFI INIT 6a5fc 360 .cfa: sp 0 +
STACK CFI 6a600 .cfa: sp 192 +
STACK CFI 6a614 .cfa: x29 64 + x19: .cfa -8 + ^ x20: .cfa -16 + ^ x21: .cfa -24 + ^ x22: .cfa -32 + ^ x23: .cfa -40 + ^ x24: .cfa -48 + ^ .ra: .cfa -56 + ^ x29: .cfa -64 + ^
STACK CFI 6a838 .cfa: sp 192 +
STACK CFI 6a84c .cfa: sp 0 +
STACK CFI 6a850 .cfa: x29 64 +
STACK CFI INIT 6a960 1b0 .cfa: sp 0 +
STACK CFI 6a964 .cfa: sp 80 +
STACK CFI 6a974 .cfa: x29 48 + x19: .cfa -8 + ^ x20: .cfa -16 + ^ x21: .cfa -24 + ^ x22: .cfa -32 + ^ .ra: .cfa -40 + ^ x29: .cfa -48 + ^
STACK CFI 6aacc .cfa: sp 80 +
STACK CFI 6aadc .cfa: sp 0 +
STACK CFI 6aae0 .cfa: x29 48 +
STACK CFI INIT 6ab3c 480 .cfa: sp 0 +
STACK CFI 6ab40 .cfa: sp 224 +
STACK CFI 6ab5c .cfa: x29 96 + x19: .cfa -8 + ^ x20: .cfa -16 + ^ x21: .cfa -24 + ^ x22: .cfa -32 + ^ x23: .cfa -40 + ^ x24: .cfa -48 + ^ x25: .cfa -56 + ^ x26: .cfa -64 + ^ x27: .cfa -80 + ^ .ra: .cfa -88 + ^ x29: .cfa -96 + ^
STACK CFI 6adc8 .cfa: sp 224 +
STACK CFI 6ade4 .cfa: sp 0 +
STACK CFI 6ade8 .cfa: x29 96 +
STACK CFI 6aeb4 .cfa: sp 224 +
STACK CFI 6aed0 .cfa: sp 0 +
STACK CFI 6aed4 .cfa: x29 96 +
STACK CFI INIT 6afd8 384 .cfa: sp 0 +
STACK CFI 6afdc .cfa: sp 256 +
STACK CFI 6aff0 .cfa: x29 64 + x19: .cfa -8 + ^ x20: .cfa -16 + ^ x21: .cfa -24 + ^ x22: .cfa -32 + ^ x23: .cfa -48 + ^ .ra: .cfa -56 + ^ x29: .cfa -64 + ^
STACK CFI 6b230 .cfa: sp 256 +
STACK CFI 6b244 .cfa: sp 0 +
STACK CFI 6b248 .cfa: x29 64 +
STACK CFI INIT 6b360 240 .cfa: sp 0 +
STACK CFI 6b364 .cfa: sp 112 +
STACK CFI 6b378 .cfa: x29 64 + x19: .cfa -8 + ^ x20: .cfa -16 + ^ x21: .cfa -24 + ^ x22: .cfa -32 + ^ x23: .cfa -48 + ^ .ra: .cfa -56 + ^ x29: .cfa -64 + ^
STACK CFI 6b558 .cfa: sp 112 +
STACK CFI 6b56c .cfa: sp 0 +
STACK CFI 6b570 .cfa: x29 64 +
STACK CFI INIT 6b5cc 840 .cfa: sp 0 +
STACK CFI 6b5d0 .cfa: sp 352 +
STACK CFI 6b5fc .cfa: x29 96 + x19: .cfa -8 + ^ x20: .cfa -16 + ^ x21: .cfa -24 + ^ x22: .cfa -32 + ^ x23: .cfa -40 + ^ x24: .cfa -48 + ^ x25: .cfa -56 + ^ x26: .cfa -64 + ^ x27: .cfa -72 + ^ x28: .cfa -80 + ^ .ra: .cfa -88 + ^ x29: .cfa -96 + ^ v8: .cfa -104 + ^ v9: .cfa -112 + ^ v10: .cfa -120 + ^ v11: .cfa -128 + ^ v12: .cfa -136 + ^ v13: .cfa -144 + ^ v14: .cfa -152 + ^ v15: .cfa -160 + ^
STACK CFI 6bcc4 .cfa: sp 352 +
STACK CFI 6bcf0 .cfa: sp 0 +
STACK CFI 6bcf4 .cfa: x29 96 +
STACK CFI INIT 6be0c 1c0 .cfa: sp 0 +
STACK CFI 6be10 .cfa: sp 112 +
STACK CFI 6be28 .cfa: x29 64 + x19: .cfa -8 + ^ x20: .cfa -16 + ^ x21: .cfa -24 + ^ x22: .cfa -32 + ^ x23: .cfa -48 + ^ .ra: .cfa -56 + ^ x29: .cfa -64 + ^ v8: .cfa -72 + ^ v9: .cfa -80 + ^
STACK CFI 6bf78 .cfa: sp 112 +
STACK CFI 6bf90 .cfa: sp 0 +
STACK CFI 6bf94 .cfa: x29 64 +
STACK CFI INIT 6c1a4 17c .cfa: sp 0 +
STACK CFI 6c1a8 .cfa: sp 144 +
STACK CFI 6c1bc .cfa: x29 64 + x19: .cfa -8 + ^ x20: .cfa -16 + ^ x21: .cfa -24 + ^ x22: .cfa -32 + ^ x23: .cfa -40 + ^ x24: .cfa -48 + ^ .ra: .cfa -56 + ^ x29: .cfa -64 + ^
STACK CFI 6c2b4 .cfa: sp 144 +
STACK CFI 6c2c8 .cfa: sp 0 +
STACK CFI 6c2cc .cfa: x29 64 +
STACK CFI INIT 6c420 778 .cfa: sp 0 +
STACK CFI 6c424 .cfa: sp 144 +
STACK CFI 6c438 .cfa: x29 64 + x19: .cfa -8 + ^ x20: .cfa -16 + ^ x21: .cfa -24 + ^ x22: .cfa -32 + ^ x23: .cfa -48 + ^ .ra: .cfa -56 + ^ x29: .cfa -64 + ^
STACK CFI 6c80c .cfa: sp 144 +
STACK CFI 6c820 .cfa: sp 0 +
STACK CFI 6c824 .cfa: x29 64 +
STACK CFI INIT 6cb98 8e0 .cfa: sp 0 +
STACK CFI 6cb9c .cfa: sp 224 +
STACK CFI 6cbb8 .cfa: x29 96 + x19: .cfa -8 + ^ x20: .cfa -16 + ^ x21: .cfa -24 + ^ x22: .cfa -32 + ^ x23: .cfa -40 + ^ x24: .cfa -48 + ^ x25: .cfa -56 + ^ x26: .cfa -64 + ^ x27: .cfa -72 + ^ x28: .cfa -80 + ^ .ra: .cfa -88 + ^ x29: .cfa -96 + ^
STACK CFI 6d0e4 .cfa: sp 224 +
STACK CFI 6d100 .cfa: sp 0 +
STACK CFI 6d104 .cfa: x29 96 +
STACK CFI INIT 6d478 74 .cfa: sp 0 +
STACK CFI 6d47c .cfa: sp 48 +
STACK CFI 6d488 .cfa: x29 32 + x19: .cfa -8 + ^ x20: .cfa -16 + ^ .ra: .cfa -24 + ^ x29: .cfa -32 + ^
STACK CFI 6d4d4 .cfa: sp 48 +
STACK CFI 6d4e0 .cfa: sp 0 +
STACK CFI 6d4e4 .cfa: x29 32 +
STACK CFI INIT 6d4ec 398 .cfa: sp 0 +
STACK CFI 6d4f0 .cfa: sp 240 +
STACK CFI 6d510 .cfa: x29 96 + x19: .cfa -8 + ^ x20: .cfa -16 + ^ x21: .cfa -24 + ^ x22: .cfa -32 + ^ x23: .cfa -40 + ^ x24: .cfa -48 + ^ x25: .cfa -56 + ^ x26: .cfa -64 + ^ x27: .cfa -72 + ^ x28: .cfa -80 + ^ .ra: .cfa -88 + ^ x29: .cfa -96 + ^ v8: .cfa -104 + ^ v9: .cfa -112 + ^
STACK CFI 6d550 .cfa: sp 240 +
STACK CFI 6d570 .cfa: sp 0 +
STACK CFI 6d574 .cfa: x29 96 +
STACK CFI INIT 6d884 394 .cfa: sp 0 +
STACK CFI 6d888 .cfa: sp 240 +
STACK CFI 6d8a8 .cfa: x29 96 + x19: .cfa -8 + ^ x20: .cfa -16 + ^ x21: .cfa -24 + ^ x22: .cfa -32 + ^ x23: .cfa -40 + ^ x24: .cfa -48 + ^ x25: .cfa -56 + ^ x26: .cfa -64 + ^ x27: .cfa -72 + ^ x28: .cfa -80 + ^ .ra: .cfa -88 + ^ x29: .cfa -96 + ^ v8: .cfa -104 + ^ v9: .cfa -112 + ^
STACK CFI 6d8e8 .cfa: sp 240 +
STACK CFI 6d908 .cfa: sp 0 +
STACK CFI 6d90c .cfa: x29 96 +
STACK CFI INIT 6dc30 2b0 .cfa: sp 0 +
STACK CFI 6dc34 .cfa: sp 224 +
STACK CFI 6dc50 .cfa: x29 96 + x19: .cfa -8 + ^ x20: .cfa -16 + ^ x21: .cfa -24 + ^ x22: .cfa -32 + ^ x23: .cfa -40 + ^ x24: .cfa -48 + ^ x25: .cfa -56 + ^ x26: .cfa -64 + ^ x27: .cfa -72 + ^ x28: .cfa -80 + ^ .ra: .cfa -88 + ^ x29: .cfa -96 + ^
STACK CFI 6de28 .cfa: sp 224 +
STACK CFI 6de44 .cfa: sp 0 +
STACK CFI 6de48 .cfa: x29 96 +
STACK CFI INIT 6df9c 4c0 .cfa: sp 0 +
STACK CFI 6dfa0 .cfa: sp 160 +
STACK CFI 6dfbc .cfa: x29 96 + x19: .cfa -8 + ^ x20: .cfa -16 + ^ x21: .cfa -24 + ^ x22: .cfa -32 + ^ x23: .cfa -40 + ^ x24: .cfa -48 + ^ x25: .cfa -56 + ^ x26: .cfa -64 + ^ x27: .cfa -72 + ^ x28: .cfa -80 + ^ .ra: .cfa -88 + ^ x29: .cfa -96 + ^
STACK CFI 6e22c .cfa: sp 160 +
STACK CFI 6e248 .cfa: sp 0 +
STACK CFI 6e24c .cfa: x29 96 +
STACK CFI INIT 6e45c 360 .cfa: sp 0 +
STACK CFI 6e460 .cfa: sp 96 +
STACK CFI 6e478 .cfa: x29 96 + x19: .cfa -8 + ^ x20: .cfa -16 + ^ x21: .cfa -24 + ^ x22: .cfa -32 + ^ x23: .cfa -40 + ^ x24: .cfa -48 + ^ x25: .cfa -56 + ^ x26: .cfa -64 + ^ x27: .cfa -80 + ^ .ra: .cfa -88 + ^ x29: .cfa -96 + ^
STACK CFI 6e6dc .cfa: sp 96 +
STACK CFI 6e6f4 .cfa: sp 0 +
STACK CFI 6e6f8 .cfa: x29 96 +
STACK CFI INIT 6f7f4 10a4 .cfa: sp 0 +
STACK CFI 6f7f8 .cfa: sp 176 +
STACK CFI 6f810 .cfa: x29 80 + x19: .cfa -8 + ^ x20: .cfa -16 + ^ x21: .cfa -24 + ^ x22: .cfa -32 + ^ x23: .cfa -40 + ^ x24: .cfa -48 + ^ x25: .cfa -64 + ^ .ra: .cfa -72 + ^ x29: .cfa -80 + ^
STACK CFI 6ff6c .cfa: sp 176 +
STACK CFI 6ff84 .cfa: sp 0 +
STACK CFI 6ff88 .cfa: x29 80 +
STACK CFI INIT 70898 780 .cfa: sp 0 +
STACK CFI 7089c .cfa: sp 192 +
STACK CFI 708b0 .cfa: x29 64 + x19: .cfa -8 + ^ x20: .cfa -16 + ^ x21: .cfa -24 + ^ x22: .cfa -32 + ^ x23: .cfa -40 + ^ x24: .cfa -48 + ^ .ra: .cfa -56 + ^ x29: .cfa -64 + ^
STACK CFI 70e78 .cfa: sp 192 +
STACK CFI 70e8c .cfa: sp 0 +
STACK CFI 70e90 .cfa: x29 64 +
STACK CFI INIT 71018 220 .cfa: sp 0 +
STACK CFI 7101c .cfa: sp 144 +
STACK CFI 71030 .cfa: x29 64 + x19: .cfa -8 + ^ x20: .cfa -16 + ^ x21: .cfa -24 + ^ x22: .cfa -32 + ^ x23: .cfa -48 + ^ .ra: .cfa -56 + ^ x29: .cfa -64 + ^
STACK CFI 71160 .cfa: sp 144 +
STACK CFI 71174 .cfa: sp 0 +
STACK CFI 71178 .cfa: x29 64 +
STACK CFI INIT 71238 254 .cfa: sp 0 +
STACK CFI 7123c .cfa: sp 128 +
STACK CFI 71254 .cfa: x29 56 + x19: .cfa -8 + ^ x20: .cfa -16 + ^ x21: .cfa -24 + ^ x22: .cfa -32 + ^ x23: .cfa -40 + ^ .ra: .cfa -48 + ^ x29: .cfa -56 + ^ v8: .cfa -64 + ^
STACK CFI 71410 .cfa: sp 128 +
STACK CFI 71428 .cfa: sp 0 +
STACK CFI 7142c .cfa: x29 56 +
STACK CFI INIT 715d0 b8 .cfa: sp 0 +
STACK CFI 715d4 .cfa: sp 96 +
STACK CFI 715e4 .cfa: x29 48 + x19: .cfa -8 + ^ x20: .cfa -16 + ^ x21: .cfa -32 + ^ .ra: .cfa -40 + ^ x29: .cfa -48 + ^
STACK CFI 7164c .cfa: sp 96 +
STACK CFI 7165c .cfa: sp 0 +
STACK CFI 71660 .cfa: x29 48 +
STACK CFI INIT 717b4 168 .cfa: sp 0 +
STACK CFI 717b8 .cfa: sp 96 +
STACK CFI 717cc .cfa: x29 48 + x19: .cfa -8 + ^ x20: .cfa -16 + ^ x21: .cfa -24 + ^ x22: .cfa -32 + ^ .ra: .cfa -40 + ^ x29: .cfa -48 + ^ v8: .cfa -64 + ^
STACK CFI 718cc .cfa: sp 96 +
STACK CFI 718e0 .cfa: sp 0 +
STACK CFI 718e4 .cfa: x29 48 +
STACK CFI INIT 71a0c 284 .cfa: sp 0 +
STACK CFI 71a10 .cfa: sp 144 +
STACK CFI 71a2c .cfa: x29 96 + x19: .cfa -8 + ^ x20: .cfa -16 + ^ x21: .cfa -24 + ^ x22: .cfa -32 + ^ x23: .cfa -40 + ^ x24: .cfa -48 + ^ x25: .cfa -56 + ^ x26: .cfa -64 + ^ x27: .cfa -80 + ^ .ra: .cfa -88 + ^ x29: .cfa -96 + ^
STACK CFI 71c10 .cfa: sp 144 +
STACK CFI 71c2c .cfa: sp 0 +
STACK CFI 71c30 .cfa: x29 96 +
STACK CFI INIT 71c90 174 .cfa: sp 0 +
STACK CFI 71c94 .cfa: sp 96 +
STACK CFI 71ca4 .cfa: x29 48 + x19: .cfa -8 + ^ x20: .cfa -16 + ^ x21: .cfa -32 + ^ .ra: .cfa -40 + ^ x29: .cfa -48 + ^
STACK CFI 71d24 .cfa: sp 96 +
STACK CFI 71d34 .cfa: sp 0 +
STACK CFI 71d38 .cfa: x29 48 +
STACK CFI INIT 71e04 168 .cfa: sp 0 +
STACK CFI 71e08 .cfa: sp 96 +
STACK CFI 71e18 .cfa: x29 48 + x19: .cfa -8 + ^ x20: .cfa -16 + ^ x21: .cfa -24 + ^ x22: .cfa -32 + ^ .ra: .cfa -40 + ^ x29: .cfa -48 + ^
STACK CFI 71ec0 .cfa: sp 96 +
STACK CFI 71ed0 .cfa: sp 0 +
STACK CFI 71ed4 .cfa: x29 48 +
STACK CFI INIT 71f6c a0 .cfa: sp 0 +
STACK CFI 71f70 .cfa: sp 48 +
STACK CFI 71f7c .cfa: x29 32 + x19: .cfa -8 + ^ x20: .cfa -16 + ^ .ra: .cfa -24 + ^ x29: .cfa -32 + ^
STACK CFI 71fd4 .cfa: sp 48 +
STACK CFI 71fe0 .cfa: sp 0 +
STACK CFI 71fe4 .cfa: x29 32 +
STACK CFI INIT 7200c 124 .cfa: sp 0 +
STACK CFI 72010 .cfa: sp 96 +
STACK CFI 72024 .cfa: x29 40 + x19: .cfa -8 + ^ x20: .cfa -16 + ^ x21: .cfa -24 + ^ .ra: .cfa -32 + ^ x29: .cfa -40 + ^ v8: .cfa -48 + ^
STACK CFI 720d4 .cfa: sp 96 +
STACK CFI 720e8 .cfa: sp 0 +
STACK CFI 720ec .cfa: x29 40 +
STACK CFI INIT 721b8 74 .cfa: sp 0 +
STACK CFI 721bc .cfa: sp 48 +
STACK CFI 721c8 .cfa: x29 32 + x19: .cfa -8 + ^ x20: .cfa -16 + ^ .ra: .cfa -24 + ^ x29: .cfa -32 + ^
STACK CFI 72214 .cfa: sp 48 +
STACK CFI 72220 .cfa: sp 0 +
STACK CFI 72224 .cfa: x29 32 +
STACK CFI INIT 7230c 138 .cfa: sp 0 +
STACK CFI 72310 .cfa: sp 144 +
STACK CFI 7231c .cfa: x29 32 + x19: .cfa -8 + ^ x20: .cfa -16 + ^ .ra: .cfa -24 + ^ x29: .cfa -32 + ^
STACK CFI 723e0 .cfa: sp 144 +
STACK CFI 723ec .cfa: sp 0 +
STACK CFI 723f0 .cfa: x29 32 +
STACK CFI INIT 72444 198 .cfa: sp 0 +
STACK CFI 72448 .cfa: sp 96 +
STACK CFI 7245c .cfa: x29 48 + x19: .cfa -8 + ^ x20: .cfa -16 + ^ x21: .cfa -24 + ^ x22: .cfa -32 + ^ .ra: .cfa -40 + ^ x29: .cfa -48 + ^ v8: .cfa -64 + ^
STACK CFI 7257c .cfa: sp 96 +
STACK CFI 72590 .cfa: sp 0 +
STACK CFI 72594 .cfa: x29 48 +
STACK CFI INIT 725dc 264 .cfa: sp 0 +
STACK CFI 725e0 .cfa: sp 208 +
STACK CFI 725f4 .cfa: x29 64 + x19: .cfa -8 + ^ x20: .cfa -16 + ^ x21: .cfa -24 + ^ x22: .cfa -32 + ^ x23: .cfa -48 + ^ .ra: .cfa -56 + ^ x29: .cfa -64 + ^
STACK CFI 727d4 .cfa: sp 208 +
STACK CFI 727e8 .cfa: sp 0 +
STACK CFI 727ec .cfa: x29 64 +
STACK CFI INIT 7285c 1fc .cfa: sp 0 +
STACK CFI 72860 .cfa: sp 112 +
STACK CFI 72874 .cfa: x29 48 + x19: .cfa -8 + ^ x20: .cfa -16 + ^ x21: .cfa -24 + ^ x22: .cfa -32 + ^ .ra: .cfa -40 + ^ x29: .cfa -48 + ^ v8: .cfa -64 + ^
STACK CFI 729b0 .cfa: sp 112 +
STACK CFI 729c4 .cfa: sp 0 +
STACK CFI 729c8 .cfa: x29 48 +
STACK CFI INIT 72cb8 280 .cfa: sp 0 +
STACK CFI 72cbc .cfa: sp 144 +
STACK CFI 72cd8 .cfa: x29 96 + x19: .cfa -8 + ^ x20: .cfa -16 + ^ x21: .cfa -24 + ^ x22: .cfa -32 + ^ x23: .cfa -40 + ^ x24: .cfa -48 + ^ x25: .cfa -56 + ^ x26: .cfa -64 + ^ x27: .cfa -80 + ^ .ra: .cfa -88 + ^ x29: .cfa -96 + ^
STACK CFI 72eb8 .cfa: sp 144 +
STACK CFI 72ed4 .cfa: sp 0 +
STACK CFI 72ed8 .cfa: x29 96 +
STACK CFI INIT 72fa4 124 .cfa: sp 0 +
STACK CFI 72fa8 .cfa: sp 96 +
STACK CFI 72fbc .cfa: x29 40 + x19: .cfa -8 + ^ x20: .cfa -16 + ^ x21: .cfa -24 + ^ .ra: .cfa -32 + ^ x29: .cfa -40 + ^ v8: .cfa -48 + ^
STACK CFI 7306c .cfa: sp 96 +
STACK CFI 73080 .cfa: sp 0 +
STACK CFI 73084 .cfa: x29 40 +
STACK CFI INIT 7313c 138 .cfa: sp 0 +
STACK CFI 73140 .cfa: sp 144 +
STACK CFI 7314c .cfa: x29 32 + x19: .cfa -8 + ^ x20: .cfa -16 + ^ .ra: .cfa -24 + ^ x29: .cfa -32 + ^
STACK CFI 73210 .cfa: sp 144 +
STACK CFI 7321c .cfa: sp 0 +
STACK CFI 73220 .cfa: x29 32 +
STACK CFI INIT 73274 280 .cfa: sp 0 +
STACK CFI 73278 .cfa: sp 144 +
STACK CFI 73294 .cfa: x29 96 + x19: .cfa -8 + ^ x20: .cfa -16 + ^ x21: .cfa -24 + ^ x22: .cfa -32 + ^ x23: .cfa -40 + ^ x24: .cfa -48 + ^ x25: .cfa -56 + ^ x26: .cfa -64 + ^ x27: .cfa -80 + ^ .ra: .cfa -88 + ^ x29: .cfa -96 + ^
STACK CFI 73474 .cfa: sp 144 +
STACK CFI 73490 .cfa: sp 0 +
STACK CFI 73494 .cfa: x29 96 +
STACK CFI INIT 73510 124 .cfa: sp 0 +
STACK CFI 73514 .cfa: sp 96 +
STACK CFI 73528 .cfa: x29 40 + x19: .cfa -8 + ^ x20: .cfa -16 + ^ x21: .cfa -24 + ^ .ra: .cfa -32 + ^ x29: .cfa -40 + ^ v8: .cfa -48 + ^
STACK CFI 735d8 .cfa: sp 96 +
STACK CFI 735ec .cfa: sp 0 +
STACK CFI 735f0 .cfa: x29 40 +
STACK CFI INIT 736a4 138 .cfa: sp 0 +
STACK CFI 736a8 .cfa: sp 144 +
STACK CFI 736b4 .cfa: x29 32 + x19: .cfa -8 + ^ x20: .cfa -16 + ^ .ra: .cfa -24 + ^ x29: .cfa -32 + ^
STACK CFI 73778 .cfa: sp 144 +
STACK CFI 73784 .cfa: sp 0 +
STACK CFI 73788 .cfa: x29 32 +
STACK CFI INIT 737dc 534 .cfa: sp 0 +
STACK CFI 737e0 .cfa: sp 176 +
STACK CFI 737f8 .cfa: x29 64 + x19: .cfa -8 + ^ x20: .cfa -16 + ^ x21: .cfa -24 + ^ x22: .cfa -32 + ^ x23: .cfa -48 + ^ .ra: .cfa -56 + ^ x29: .cfa -64 + ^ v8: .cfa -72 + ^ v9: .cfa -80 + ^
STACK CFI 73c6c .cfa: sp 176 +
STACK CFI 73c84 .cfa: sp 0 +
STACK CFI 73c88 .cfa: x29 64 +
STACK CFI INIT 73db8 f0 .cfa: sp 0 +
STACK CFI 73dbc .cfa: sp 80 +
STACK CFI 73dcc .cfa: x29 48 + x19: .cfa -8 + ^ x20: .cfa -16 + ^ x21: .cfa -32 + ^ .ra: .cfa -40 + ^ x29: .cfa -48 + ^
STACK CFI 73e60 .cfa: sp 80 +
STACK CFI 73e70 .cfa: sp 0 +
STACK CFI 73e74 .cfa: x29 48 +
STACK CFI INIT 73ea8 158 .cfa: sp 0 +
STACK CFI 73eac .cfa: sp 96 +
STACK CFI 73ebc .cfa: x29 48 + x19: .cfa -8 + ^ x20: .cfa -16 + ^ x21: .cfa -32 + ^ .ra: .cfa -40 + ^ x29: .cfa -48 + ^
STACK CFI 73fbc .cfa: sp 96 +
STACK CFI 73fcc .cfa: sp 0 +
STACK CFI 73fd0 .cfa: x29 48 +
STACK CFI INIT 74010 18c .cfa: sp 0 +
STACK CFI 74014 .cfa: sp 112 +
STACK CFI 74024 .cfa: x29 48 + x19: .cfa -8 + ^ x20: .cfa -16 + ^ x21: .cfa -32 + ^ .ra: .cfa -40 + ^ x29: .cfa -48 + ^
STACK CFI 74150 .cfa: sp 112 +
STACK CFI 74160 .cfa: sp 0 +
STACK CFI 74164 .cfa: x29 48 +
STACK CFI INIT 74244 19c .cfa: sp 0 +
STACK CFI 74248 .cfa: sp 96 +
STACK CFI 7425c .cfa: x29 48 + x19: .cfa -8 + ^ x20: .cfa -16 + ^ x21: .cfa -24 + ^ x22: .cfa -32 + ^ .ra: .cfa -40 + ^ x29: .cfa -48 + ^ v8: .cfa -64 + ^
STACK CFI 74380 .cfa: sp 96 +
STACK CFI 74394 .cfa: sp 0 +
STACK CFI 74398 .cfa: x29 48 +
STACK CFI INIT 74508 28c .cfa: sp 0 +
STACK CFI 7450c .cfa: sp 144 +
STACK CFI 74528 .cfa: x29 96 + x19: .cfa -8 + ^ x20: .cfa -16 + ^ x21: .cfa -24 + ^ x22: .cfa -32 + ^ x23: .cfa -40 + ^ x24: .cfa -48 + ^ x25: .cfa -56 + ^ x26: .cfa -64 + ^ x27: .cfa -80 + ^ .ra: .cfa -88 + ^ x29: .cfa -96 + ^
STACK CFI 74714 .cfa: sp 144 +
STACK CFI 74730 .cfa: sp 0 +
STACK CFI 74734 .cfa: x29 96 +
STACK CFI INIT 74794 36c .cfa: sp 0 +
STACK CFI 74798 .cfa: sp 112 +
STACK CFI 747ac .cfa: x29 64 + x19: .cfa -8 + ^ x20: .cfa -16 + ^ x21: .cfa -24 + ^ x22: .cfa -32 + ^ x23: .cfa -48 + ^ .ra: .cfa -56 + ^ x29: .cfa -64 + ^
STACK CFI 74870 .cfa: sp 112 +
STACK CFI 74884 .cfa: sp 0 +
STACK CFI 74888 .cfa: x29 64 +
STACK CFI INIT 74b00 124 .cfa: sp 0 +
STACK CFI 74b04 .cfa: sp 80 +
STACK CFI 74b14 .cfa: x29 48 + x19: .cfa -8 + ^ x20: .cfa -16 + ^ x21: .cfa -32 + ^ .ra: .cfa -40 + ^ x29: .cfa -48 + ^
STACK CFI 74bd0 .cfa: sp 80 +
STACK CFI 74be0 .cfa: sp 0 +
STACK CFI 74be4 .cfa: x29 48 +
STACK CFI INIT 74c24 124 .cfa: sp 0 +
STACK CFI 74c28 .cfa: sp 96 +
STACK CFI 74c3c .cfa: x29 40 + x19: .cfa -8 + ^ x20: .cfa -16 + ^ x21: .cfa -24 + ^ .ra: .cfa -32 + ^ x29: .cfa -40 + ^ v8: .cfa -48 + ^
STACK CFI 74cec .cfa: sp 96 +
STACK CFI 74d00 .cfa: sp 0 +
STACK CFI 74d04 .cfa: x29 40 +
STACK CFI INIT 74de8 138 .cfa: sp 0 +
STACK CFI 74dec .cfa: sp 144 +
STACK CFI 74df8 .cfa: x29 32 + x19: .cfa -8 + ^ x20: .cfa -16 + ^ .ra: .cfa -24 + ^ x29: .cfa -32 + ^
STACK CFI 74ebc .cfa: sp 144 +
STACK CFI 74ec8 .cfa: sp 0 +
STACK CFI 74ecc .cfa: x29 32 +
STACK CFI INIT 74f20 240 .cfa: sp 0 +
STACK CFI 74f24 .cfa: sp 96 +
STACK CFI 74f38 .cfa: x29 48 + x19: .cfa -8 + ^ x20: .cfa -16 + ^ x21: .cfa -24 + ^ x22: .cfa -32 + ^ .ra: .cfa -40 + ^ x29: .cfa -48 + ^ v8: .cfa -64 + ^
STACK CFI 75100 .cfa: sp 96 +
STACK CFI 75114 .cfa: sp 0 +
STACK CFI 75118 .cfa: x29 48 +
STACK CFI INIT 751b4 45c .cfa: sp 0 +
STACK CFI 751b8 .cfa: sp 160 +
STACK CFI 751d0 .cfa: x29 64 + x19: .cfa -8 + ^ x20: .cfa -16 + ^ x21: .cfa -24 + ^ x22: .cfa -32 + ^ x23: .cfa -40 + ^ x24: .cfa -48 + ^ .ra: .cfa -56 + ^ x29: .cfa -64 + ^ v8: .cfa -80 + ^
STACK CFI 75580 .cfa: sp 160 +
STACK CFI 75598 .cfa: sp 0 +
STACK CFI 7559c .cfa: x29 64 +
STACK CFI INIT 75610 e0 .cfa: sp 0 +
STACK CFI 75614 .cfa: sp 112 +
STACK CFI 75624 .cfa: x29 48 + x19: .cfa -8 + ^ x20: .cfa -16 + ^ x21: .cfa -32 + ^ .ra: .cfa -40 + ^ x29: .cfa -48 + ^
STACK CFI 756ac .cfa: sp 112 +
STACK CFI 756bc .cfa: sp 0 +
STACK CFI 756c0 .cfa: x29 48 +
STACK CFI INIT 757f8 164 .cfa: sp 0 +
STACK CFI 757fc .cfa: sp 96 +
STACK CFI 75810 .cfa: x29 48 + x19: .cfa -8 + ^ x20: .cfa -16 + ^ x21: .cfa -24 + ^ x22: .cfa -32 + ^ .ra: .cfa -40 + ^ x29: .cfa -48 + ^ v8: .cfa -64 + ^
STACK CFI 7590c .cfa: sp 96 +
STACK CFI 75920 .cfa: sp 0 +
STACK CFI 75924 .cfa: x29 48 +
STACK CFI INIT 759dc 450 .cfa: sp 0 +
STACK CFI 759e0 .cfa: sp 160 +
STACK CFI 759f8 .cfa: x29 56 + x19: .cfa -8 + ^ x20: .cfa -16 + ^ x21: .cfa -24 + ^ x22: .cfa -32 + ^ x23: .cfa -40 + ^ .ra: .cfa -48 + ^ x29: .cfa -56 + ^ v8: .cfa -64 + ^
STACK CFI 75d8c .cfa: sp 160 +
STACK CFI 75da4 .cfa: sp 0 +
STACK CFI 75da8 .cfa: x29 56 +
STACK CFI INIT 75ea8 f4 .cfa: sp 0 +
STACK CFI 75eac .cfa: sp 96 +
STACK CFI 75ebc .cfa: x29 48 + x19: .cfa -8 + ^ x20: .cfa -16 + ^ x21: .cfa -32 + ^ .ra: .cfa -40 + ^ x29: .cfa -48 + ^
STACK CFI 75f48 .cfa: sp 96 +
STACK CFI 75f58 .cfa: sp 0 +
STACK CFI 75f5c .cfa: x29 48 +
STACK CFI INIT 75f9c 108 .cfa: sp 0 +
STACK CFI 75fa0 .cfa: sp 96 +
STACK CFI 75fb0 .cfa: x29 48 + x19: .cfa -8 + ^ x20: .cfa -16 + ^ x21: .cfa -32 + ^ .ra: .cfa -40 + ^ x29: .cfa -48 + ^
STACK CFI 76064 .cfa: sp 96 +
STACK CFI 76074 .cfa: sp 0 +
STACK CFI 76078 .cfa: x29 48 +
STACK CFI INIT 760b4 11c .cfa: sp 0 +
STACK CFI 760b8 .cfa: sp 96 +
STACK CFI 760c8 .cfa: x29 48 + x19: .cfa -8 + ^ x20: .cfa -16 + ^ x21: .cfa -32 + ^ .ra: .cfa -40 + ^ x29: .cfa -48 + ^
STACK CFI 76194 .cfa: sp 96 +
STACK CFI 761a4 .cfa: sp 0 +
STACK CFI 761a8 .cfa: x29 48 +
STACK CFI INIT 76264 174 .cfa: sp 0 +
STACK CFI 76268 .cfa: sp 96 +
STACK CFI 7627c .cfa: x29 48 + x19: .cfa -8 + ^ x20: .cfa -16 + ^ x21: .cfa -24 + ^ x22: .cfa -32 + ^ .ra: .cfa -40 + ^ x29: .cfa -48 + ^ v8: .cfa -64 + ^
STACK CFI 76388 .cfa: sp 96 +
STACK CFI 7639c .cfa: sp 0 +
STACK CFI 763a0 .cfa: x29 48 +
STACK CFI INIT 76458 280 .cfa: sp 0 +
STACK CFI 7645c .cfa: sp 144 +
STACK CFI 76478 .cfa: x29 96 + x19: .cfa -8 + ^ x20: .cfa -16 + ^ x21: .cfa -24 + ^ x22: .cfa -32 + ^ x23: .cfa -40 + ^ x24: .cfa -48 + ^ x25: .cfa -56 + ^ x26: .cfa -64 + ^ x27: .cfa -80 + ^ .ra: .cfa -88 + ^ x29: .cfa -96 + ^
STACK CFI 76658 .cfa: sp 144 +
STACK CFI 76674 .cfa: sp 0 +
STACK CFI 76678 .cfa: x29 96 +
STACK CFI INIT 766d8 274 .cfa: sp 0 +
STACK CFI 766dc .cfa: sp 96 +
STACK CFI 766ec .cfa: x29 48 + x19: .cfa -8 + ^ x20: .cfa -16 + ^ x21: .cfa -32 + ^ .ra: .cfa -40 + ^ x29: .cfa -48 + ^
STACK CFI 76820 .cfa: sp 96 +
STACK CFI 76830 .cfa: sp 0 +
STACK CFI 76834 .cfa: x29 48 +
STACK CFI INIT 7694c e8 .cfa: sp 0 +
STACK CFI 76950 .cfa: sp 80 +
STACK CFI 76960 .cfa: x29 48 + x19: .cfa -8 + ^ x20: .cfa -16 + ^ x21: .cfa -32 + ^ .ra: .cfa -40 + ^ x29: .cfa -48 + ^
STACK CFI 769ec .cfa: sp 80 +
STACK CFI 769fc .cfa: sp 0 +
STACK CFI 76a00 .cfa: x29 48 +
STACK CFI INIT 76a34 124 .cfa: sp 0 +
STACK CFI 76a38 .cfa: sp 96 +
STACK CFI 76a4c .cfa: x29 40 + x19: .cfa -8 + ^ x20: .cfa -16 + ^ x21: .cfa -24 + ^ .ra: .cfa -32 + ^ x29: .cfa -40 + ^ v8: .cfa -48 + ^
STACK CFI 76afc .cfa: sp 96 +
STACK CFI 76b10 .cfa: sp 0 +
STACK CFI 76b14 .cfa: x29 40 +
STACK CFI INIT 76bec 138 .cfa: sp 0 +
STACK CFI 76bf0 .cfa: sp 144 +
STACK CFI 76bfc .cfa: x29 32 + x19: .cfa -8 + ^ x20: .cfa -16 + ^ .ra: .cfa -24 + ^ x29: .cfa -32 + ^
STACK CFI 76cc0 .cfa: sp 144 +
STACK CFI 76ccc .cfa: sp 0 +
STACK CFI 76cd0 .cfa: x29 32 +
STACK CFI INIT 76dac 134 .cfa: sp 0 +
STACK CFI 76db0 .cfa: sp 80 +
STACK CFI 76dbc .cfa: x29 32 + x19: .cfa -8 + ^ x20: .cfa -16 + ^ .ra: .cfa -24 + ^ x29: .cfa -32 + ^
STACK CFI 76dec .cfa: sp 80 +
STACK CFI 76df8 .cfa: sp 0 +
STACK CFI 76dfc .cfa: x29 32 +
STACK CFI INIT 76ee0 78 .cfa: sp 0 +
STACK CFI 76ee4 .cfa: sp 32 +
STACK CFI 76eec .cfa: x29 32 + x19: .cfa -8 + ^ x20: .cfa -16 + ^ .ra: .cfa -24 + ^ x29: .cfa -32 + ^
STACK CFI 76ef8 .cfa: sp 32 +
STACK CFI 76f00 .cfa: sp 0 +
STACK CFI 76f04 .cfa: x29 32 +
STACK CFI INIT 76f58 74 .cfa: sp 0 +
STACK CFI 76f5c .cfa: sp 48 +
STACK CFI 76f68 .cfa: x29 32 + x19: .cfa -8 + ^ x20: .cfa -16 + ^ .ra: .cfa -24 + ^ x29: .cfa -32 + ^
STACK CFI 76fb4 .cfa: sp 48 +
STACK CFI 76fc0 .cfa: sp 0 +
STACK CFI 76fc4 .cfa: x29 32 +
STACK CFI INIT 77054 25c .cfa: sp 0 +
STACK CFI 77058 .cfa: sp 128 +
STACK CFI 77068 .cfa: x29 48 + x19: .cfa -8 + ^ x20: .cfa -16 + ^ x21: .cfa -32 + ^ .ra: .cfa -40 + ^ x29: .cfa -48 + ^
STACK CFI 77150 .cfa: sp 128 +
STACK CFI 77160 .cfa: sp 0 +
STACK CFI 77164 .cfa: x29 48 +
STACK CFI INIT 77328 300 .cfa: sp 0 +
STACK CFI 7732c .cfa: sp 144 +
STACK CFI 77340 .cfa: x29 64 + x19: .cfa -8 + ^ x20: .cfa -16 + ^ x21: .cfa -24 + ^ x22: .cfa -32 + ^ x23: .cfa -48 + ^ .ra: .cfa -56 + ^ x29: .cfa -64 + ^
STACK CFI 774d4 .cfa: sp 144 +
STACK CFI 774e8 .cfa: sp 0 +
STACK CFI 774ec .cfa: x29 64 +
STACK CFI INIT 7767c 264 .cfa: sp 0 +
STACK CFI 77680 .cfa: sp 128 +
STACK CFI 77690 .cfa: x29 48 + x19: .cfa -8 + ^ x20: .cfa -16 + ^ x21: .cfa -32 + ^ .ra: .cfa -40 + ^ x29: .cfa -48 + ^
STACK CFI 77788 .cfa: sp 128 +
STACK CFI 77798 .cfa: sp 0 +
STACK CFI 7779c .cfa: x29 48 +
STACK CFI INIT 77934 174 .cfa: sp 0 +
STACK CFI 77938 .cfa: sp 128 +
STACK CFI 77948 .cfa: x29 48 + x19: .cfa -8 + ^ x20: .cfa -16 + ^ x21: .cfa -32 + ^ .ra: .cfa -40 + ^ x29: .cfa -48 + ^
STACK CFI 77990 .cfa: sp 128 +
STACK CFI 779a0 .cfa: sp 0 +
STACK CFI 779a4 .cfa: x29 48 +
STACK CFI INIT 77afc 1b8 .cfa: sp 0 +
STACK CFI 77b00 .cfa: sp 160 +
STACK CFI 77b1c .cfa: x29 72 + x19: .cfa -8 + ^ x20: .cfa -16 + ^ x21: .cfa -24 + ^ x22: .cfa -32 + ^ x23: .cfa -40 + ^ x24: .cfa -48 + ^ x25: .cfa -56 + ^ .ra: .cfa -64 + ^ x29: .cfa -72 + ^ v8: .cfa -80 + ^
STACK CFI 77ba0 .cfa: sp 160 +
STACK CFI 77bbc .cfa: sp 0 +
STACK CFI 77bc0 .cfa: x29 72 +
STACK CFI INIT 77cb4 4e4 .cfa: sp 0 +
STACK CFI 77cb8 .cfa: sp 96 +
STACK CFI 77cd0 .cfa: x29 80 + x19: .cfa -8 + ^ x20: .cfa -16 + ^ x21: .cfa -24 + ^ x22: .cfa -32 + ^ x23: .cfa -40 + ^ x24: .cfa -48 + ^ x25: .cfa -64 + ^ .ra: .cfa -72 + ^ x29: .cfa -80 + ^
STACK CFI 78114 .cfa: sp 96 +
STACK CFI 7812c .cfa: sp 0 +
STACK CFI 78130 .cfa: x29 80 +
STACK CFI INIT 78390 178 .cfa: sp 0 +
STACK CFI 78394 .cfa: sp 128 +
STACK CFI 783a4 .cfa: x29 48 + x19: .cfa -8 + ^ x20: .cfa -16 + ^ x21: .cfa -24 + ^ x22: .cfa -32 + ^ .ra: .cfa -40 + ^ x29: .cfa -48 + ^
STACK CFI 78400 .cfa: sp 128 +
STACK CFI 78410 .cfa: sp 0 +
STACK CFI 78414 .cfa: x29 48 +
STACK CFI INIT 78508 a4 .cfa: sp 0 +
STACK CFI 7850c .cfa: sp 48 +
STACK CFI 78518 .cfa: x29 48 + x19: .cfa -8 + ^ x20: .cfa -16 + ^ x21: .cfa -32 + ^ .ra: .cfa -40 + ^ x29: .cfa -48 + ^
STACK CFI 78584 .cfa: sp 48 +
STACK CFI 78590 .cfa: sp 0 +
STACK CFI 78594 .cfa: x29 48 +
STACK CFI INIT 785ac 178 .cfa: sp 0 +
STACK CFI 785b0 .cfa: sp 128 +
STACK CFI 785c0 .cfa: x29 48 + x19: .cfa -8 + ^ x20: .cfa -16 + ^ x21: .cfa -24 + ^ x22: .cfa -32 + ^ .ra: .cfa -40 + ^ x29: .cfa -48 + ^
STACK CFI 7861c .cfa: sp 128 +
STACK CFI 7862c .cfa: sp 0 +
STACK CFI 78630 .cfa: x29 48 +
STACK CFI INIT 7872c 180 .cfa: sp 0 +
STACK CFI 78730 .cfa: sp 128 +
STACK CFI 78740 .cfa: x29 48 + x19: .cfa -8 + ^ x20: .cfa -16 + ^ x21: .cfa -24 + ^ x22: .cfa -32 + ^ .ra: .cfa -40 + ^ x29: .cfa -48 + ^
STACK CFI 787a4 .cfa: sp 128 +
STACK CFI 787b4 .cfa: sp 0 +
STACK CFI 787b8 .cfa: x29 48 +
STACK CFI INIT 788ac a4 .cfa: sp 0 +
STACK CFI 788b0 .cfa: sp 48 +
STACK CFI 788bc .cfa: x29 48 + x19: .cfa -8 + ^ x20: .cfa -16 + ^ x21: .cfa -32 + ^ .ra: .cfa -40 + ^ x29: .cfa -48 + ^
STACK CFI 78928 .cfa: sp 48 +
STACK CFI 78934 .cfa: sp 0 +
STACK CFI 78938 .cfa: x29 48 +
STACK CFI INIT 78950 344 .cfa: sp 0 +
STACK CFI 78954 .cfa: sp 144 +
STACK CFI 78968 .cfa: x29 64 + x19: .cfa -8 + ^ x20: .cfa -16 + ^ x21: .cfa -24 + ^ x22: .cfa -32 + ^ x23: .cfa -48 + ^ .ra: .cfa -56 + ^ x29: .cfa -64 + ^
STACK CFI 78b40 .cfa: sp 144 +
STACK CFI 78b54 .cfa: sp 0 +
STACK CFI 78b58 .cfa: x29 64 +
STACK CFI INIT 78d10 174 .cfa: sp 0 +
STACK CFI 78d14 .cfa: sp 144 +
STACK CFI 78d28 .cfa: x29 64 + x19: .cfa -8 + ^ x20: .cfa -16 + ^ x21: .cfa -24 + ^ x22: .cfa -32 + ^ x23: .cfa -48 + ^ .ra: .cfa -56 + ^ x29: .cfa -64 + ^
STACK CFI 78d8c .cfa: sp 144 +
STACK CFI 78da0 .cfa: sp 0 +
STACK CFI 78da4 .cfa: x29 64 +
STACK CFI INIT 78e84 10c .cfa: sp 0 +
STACK CFI 78e88 .cfa: sp 64 +
STACK CFI 78e98 .cfa: x29 48 + x19: .cfa -8 + ^ x20: .cfa -16 + ^ x21: .cfa -24 + ^ x22: .cfa -32 + ^ .ra: .cfa -40 + ^ x29: .cfa -48 + ^
STACK CFI 78f48 .cfa: sp 64 +
STACK CFI 78f58 .cfa: sp 0 +
STACK CFI 78f5c .cfa: x29 48 +
STACK CFI INIT 78f98 174 .cfa: sp 0 +
STACK CFI 78f9c .cfa: sp 144 +
STACK CFI 78fb0 .cfa: x29 64 + x19: .cfa -8 + ^ x20: .cfa -16 + ^ x21: .cfa -24 + ^ x22: .cfa -32 + ^ x23: .cfa -48 + ^ .ra: .cfa -56 + ^ x29: .cfa -64 + ^
STACK CFI 79014 .cfa: sp 144 +
STACK CFI 79028 .cfa: sp 0 +
STACK CFI 7902c .cfa: x29 64 +
STACK CFI INIT 7910c 10c .cfa: sp 0 +
STACK CFI 79110 .cfa: sp 64 +
STACK CFI 79120 .cfa: x29 48 + x19: .cfa -8 + ^ x20: .cfa -16 + ^ x21: .cfa -24 + ^ x22: .cfa -32 + ^ .ra: .cfa -40 + ^ x29: .cfa -48 + ^
STACK CFI 791d0 .cfa: sp 64 +
STACK CFI 791e0 .cfa: sp 0 +
STACK CFI 791e4 .cfa: x29 48 +
STACK CFI INIT 79220 174 .cfa: sp 0 +
STACK CFI 79224 .cfa: sp 144 +
STACK CFI 79238 .cfa: x29 64 + x19: .cfa -8 + ^ x20: .cfa -16 + ^ x21: .cfa -24 + ^ x22: .cfa -32 + ^ x23: .cfa -48 + ^ .ra: .cfa -56 + ^ x29: .cfa -64 + ^
STACK CFI 7929c .cfa: sp 144 +
STACK CFI 792b0 .cfa: sp 0 +
STACK CFI 792b4 .cfa: x29 64 +
STACK CFI INIT 79394 10c .cfa: sp 0 +
STACK CFI 79398 .cfa: sp 64 +
STACK CFI 793a8 .cfa: x29 48 + x19: .cfa -8 + ^ x20: .cfa -16 + ^ x21: .cfa -24 + ^ x22: .cfa -32 + ^ .ra: .cfa -40 + ^ x29: .cfa -48 + ^
STACK CFI 79458 .cfa: sp 64 +
STACK CFI 79468 .cfa: sp 0 +
STACK CFI 7946c .cfa: x29 48 +
STACK CFI INIT 794a8 1c8 .cfa: sp 0 +
STACK CFI 794ac .cfa: sp 192 +
STACK CFI 794c8 .cfa: x29 64 + x19: .cfa -8 + ^ x20: .cfa -16 + ^ x21: .cfa -24 + ^ x22: .cfa -32 + ^ x23: .cfa -40 + ^ x24: .cfa -48 + ^ .ra: .cfa -56 + ^ x29: .cfa -64 + ^ v8: .cfa -72 + ^ v9: .cfa -80 + ^ v10: .cfa -96 + ^
STACK CFI 7955c .cfa: sp 192 +
STACK CFI 79578 .cfa: sp 0 +
STACK CFI 7957c .cfa: x29 64 +
STACK CFI INIT 79670 5bc .cfa: sp 0 +
STACK CFI 79674 .cfa: sp 112 +
STACK CFI 7968c .cfa: x29 80 + x19: .cfa -8 + ^ x20: .cfa -16 + ^ x21: .cfa -24 + ^ x22: .cfa -32 + ^ x23: .cfa -40 + ^ x24: .cfa -48 + ^ x25: .cfa -64 + ^ .ra: .cfa -72 + ^ x29: .cfa -80 + ^
STACK CFI 79b98 .cfa: sp 112 +
STACK CFI 79bb0 .cfa: sp 0 +
STACK CFI 79bb4 .cfa: x29 80 +
STACK CFI INIT 79c30 2e4 .cfa: sp 0 +
STACK CFI 79c34 .cfa: sp 144 +
STACK CFI 79c48 .cfa: x29 64 + x19: .cfa -8 + ^ x20: .cfa -16 + ^ x21: .cfa -24 + ^ x22: .cfa -32 + ^ x23: .cfa -48 + ^ .ra: .cfa -56 + ^ x29: .cfa -64 + ^
STACK CFI 79dc0 .cfa: sp 144 +
STACK CFI 79dd4 .cfa: sp 0 +
STACK CFI 79dd8 .cfa: x29 64 +
STACK CFI INIT 79f14 2e4 .cfa: sp 0 +
STACK CFI 79f18 .cfa: sp 144 +
STACK CFI 79f2c .cfa: x29 64 + x19: .cfa -8 + ^ x20: .cfa -16 + ^ x21: .cfa -24 + ^ x22: .cfa -32 + ^ x23: .cfa -48 + ^ .ra: .cfa -56 + ^ x29: .cfa -64 + ^
STACK CFI 7a0a4 .cfa: sp 144 +
STACK CFI 7a0b8 .cfa: sp 0 +
STACK CFI 7a0bc .cfa: x29 64 +
STACK CFI INIT 7a1f8 2a0 .cfa: sp 0 +
STACK CFI 7a1fc .cfa: sp 144 +
STACK CFI 7a210 .cfa: x29 64 + x19: .cfa -8 + ^ x20: .cfa -16 + ^ x21: .cfa -24 + ^ x22: .cfa -32 + ^ x23: .cfa -48 + ^ .ra: .cfa -56 + ^ x29: .cfa -64 + ^
STACK CFI 7a344 .cfa: sp 144 +
STACK CFI 7a358 .cfa: sp 0 +
STACK CFI 7a35c .cfa: x29 64 +
STACK CFI INIT 7a498 2f0 .cfa: sp 0 +
STACK CFI 7a49c .cfa: sp 144 +
STACK CFI 7a4b0 .cfa: x29 64 + x19: .cfa -8 + ^ x20: .cfa -16 + ^ x21: .cfa -24 + ^ x22: .cfa -32 + ^ x23: .cfa -48 + ^ .ra: .cfa -56 + ^ x29: .cfa -64 + ^
STACK CFI 7a634 .cfa: sp 144 +
STACK CFI 7a648 .cfa: sp 0 +
STACK CFI 7a64c .cfa: x29 64 +
STACK CFI INIT 7a788 4f4 .cfa: sp 0 +
STACK CFI 7a78c .cfa: sp 144 +
STACK CFI 7a7a0 .cfa: x29 64 + x19: .cfa -8 + ^ x20: .cfa -16 + ^ x21: .cfa -24 + ^ x22: .cfa -32 + ^ x23: .cfa -48 + ^ .ra: .cfa -56 + ^ x29: .cfa -64 + ^
STACK CFI 7aad4 .cfa: sp 144 +
STACK CFI 7aae8 .cfa: sp 0 +
STACK CFI 7aaec .cfa: x29 64 +
STACK CFI INIT 7ac7c 154 .cfa: sp 0 +
STACK CFI 7ac80 .cfa: sp 384 +
STACK CFI 7ac94 .cfa: x29 64 + x19: .cfa -8 + ^ x20: .cfa -16 + ^ x21: .cfa -24 + ^ x22: .cfa -32 + ^ x23: .cfa -40 + ^ x28: .cfa -48 + ^ .ra: .cfa -56 + ^ x29: .cfa -64 + ^
STACK CFI 7ad78 .cfa: sp 384 +
STACK CFI 7ad8c .cfa: sp 0 +
STACK CFI 7ad90 .cfa: x29 64 +
STACK CFI INIT 7ade8 50c .cfa: sp 0 +
STACK CFI 7adec .cfa: sp 64 +
STACK CFI 7adfc .cfa: x29 64 + x19: .cfa -8 + ^ x20: .cfa -16 + ^ x21: .cfa -24 + ^ x22: .cfa -32 + ^ x23: .cfa -40 + ^ x24: .cfa -48 + ^ .ra: .cfa -56 + ^ x29: .cfa -64 + ^
STACK CFI 7af1c .cfa: sp 64 +
STACK CFI 7af2c .cfa: sp 0 +
STACK CFI 7af30 .cfa: x29 64 +
STACK CFI 7b2c8 .cfa: sp 64 +
STACK CFI 7b2d8 .cfa: sp 0 +
STACK CFI 7b2dc .cfa: x29 64 +
STACK CFI INIT 7b624 294 .cfa: sp 0 +
STACK CFI 7b628 .cfa: sp 240 +
STACK CFI 7b640 .cfa: x29 80 + x19: .cfa -8 + ^ x20: .cfa -16 + ^ x21: .cfa -24 + ^ x22: .cfa -32 + ^ x23: .cfa -40 + ^ x24: .cfa -48 + ^ x25: .cfa -64 + ^ .ra: .cfa -72 + ^ x29: .cfa -80 + ^
STACK CFI 7b7e0 .cfa: sp 240 +
STACK CFI 7b7f8 .cfa: sp 0 +
STACK CFI 7b7fc .cfa: x29 80 +
STACK CFI INIT 7b934 50 .cfa: sp 0 +
STACK CFI 7b938 .cfa: sp 32 +
STACK CFI 7b940 .cfa: x29 32 + x19: .cfa -8 + ^ x20: .cfa -16 + ^ .ra: .cfa -24 + ^ x29: .cfa -32 + ^
STACK CFI INIT 7b9b0 7c0 .cfa: sp 0 +
STACK CFI 7b9b4 .cfa: sp 320 +
STACK CFI 7b9d0 .cfa: x29 96 + x19: .cfa -8 + ^ x20: .cfa -16 + ^ x21: .cfa -24 + ^ x22: .cfa -32 + ^ x23: .cfa -40 + ^ x24: .cfa -48 + ^ x25: .cfa -56 + ^ x26: .cfa -64 + ^ x27: .cfa -72 + ^ x28: .cfa -80 + ^ .ra: .cfa -88 + ^ x29: .cfa -96 + ^
STACK CFI 7c020 .cfa: sp 320 +
STACK CFI 7c03c .cfa: sp 0 +
STACK CFI 7c040 .cfa: x29 96 +
STACK CFI INIT 804f0 c74 .cfa: sp 0 +
STACK CFI 804f4 .cfa: sp 96 +
STACK CFI 8050c .cfa: x29 96 + x19: .cfa -8 + ^ x20: .cfa -16 + ^ x21: .cfa -24 + ^ x22: .cfa -32 + ^ x23: .cfa -40 + ^ x24: .cfa -48 + ^ x25: .cfa -56 + ^ x26: .cfa -64 + ^ x27: .cfa -72 + ^ x28: .cfa -80 + ^ .ra: .cfa -88 + ^ x29: .cfa -96 + ^
STACK CFI 80f84 .cfa: sp 96 +
STACK CFI 80f9c .cfa: sp 0 +
STACK CFI 80fa0 .cfa: x29 96 +
STACK CFI INIT 812b8 26c .cfa: sp 0 +
STACK CFI 812bc .cfa: sp 128 +
STACK CFI 812cc .cfa: x29 48 + x19: .cfa -8 + ^ x20: .cfa -16 + ^ x21: .cfa -24 + ^ x22: .cfa -32 + ^ .ra: .cfa -40 + ^ x29: .cfa -48 + ^
STACK CFI 81470 .cfa: sp 128 +
STACK CFI 81480 .cfa: sp 0 +
STACK CFI 81484 .cfa: x29 48 +
STACK CFI INIT 818b4 3b8 .cfa: sp 0 +
STACK CFI 818b8 .cfa: sp 96 +
STACK CFI 818d0 .cfa: x29 96 + x19: .cfa -8 + ^ x20: .cfa -16 + ^ x21: .cfa -24 + ^ x22: .cfa -32 + ^ x23: .cfa -40 + ^ x24: .cfa -48 + ^ x25: .cfa -56 + ^ x26: .cfa -64 + ^ x27: .cfa -72 + ^ x28: .cfa -80 + ^ .ra: .cfa -88 + ^ x29: .cfa -96 + ^
STACK CFI 81c0c .cfa: sp 96 +
STACK CFI 81c24 .cfa: sp 0 +
STACK CFI 81c28 .cfa: x29 96 +
STACK CFI INIT 81d0c cb4 .cfa: sp 0 +
STACK CFI 81d10 .cfa: sp 96 +
STACK CFI 81d28 .cfa: x29 96 + x19: .cfa -8 + ^ x20: .cfa -16 + ^ x21: .cfa -24 + ^ x22: .cfa -32 + ^ x23: .cfa -40 + ^ x24: .cfa -48 + ^ x25: .cfa -56 + ^ x26: .cfa -64 + ^ x27: .cfa -72 + ^ x28: .cfa -80 + ^ .ra: .cfa -88 + ^ x29: .cfa -96 + ^
STACK CFI 827d0 .cfa: sp 96 +
STACK CFI 827e8 .cfa: sp 0 +
STACK CFI 827ec .cfa: x29 96 +
STACK CFI INIT 82ca8 afc .cfa: sp 0 +
STACK CFI 82cac .cfa: sp 96 +
STACK CFI 82cc4 .cfa: x29 96 + x19: .cfa -8 + ^ x20: .cfa -16 + ^ x21: .cfa -24 + ^ x22: .cfa -32 + ^ x23: .cfa -40 + ^ x24: .cfa -48 + ^ x25: .cfa -56 + ^ x26: .cfa -64 + ^ x27: .cfa -72 + ^ x28: .cfa -80 + ^ .ra: .cfa -88 + ^ x29: .cfa -96 + ^
STACK CFI 83718 .cfa: sp 96 +
STACK CFI 83730 .cfa: sp 0 +
STACK CFI 83734 .cfa: x29 96 +
STACK CFI INIT 83980 1430 .cfa: sp 0 +
STACK CFI 83984 .cfa: sp 96 +
STACK CFI 8399c .cfa: x29 96 + x19: .cfa -8 + ^ x20: .cfa -16 + ^ x21: .cfa -24 + ^ x22: .cfa -32 + ^ x23: .cfa -40 + ^ x24: .cfa -48 + ^ x25: .cfa -56 + ^ x26: .cfa -64 + ^ x27: .cfa -72 + ^ x28: .cfa -80 + ^ .ra: .cfa -88 + ^ x29: .cfa -96 + ^
STACK CFI 84c38 .cfa: sp 96 +
STACK CFI 84c50 .cfa: sp 0 +
STACK CFI 84c54 .cfa: x29 96 +
STACK CFI INIT 84ed4 75c .cfa: sp 0 +
STACK CFI 84ed8 .cfa: sp 368 +
STACK CFI 84ef4 .cfa: x29 96 + x19: .cfa -8 + ^ x20: .cfa -16 + ^ x21: .cfa -24 + ^ x22: .cfa -32 + ^ x23: .cfa -40 + ^ x24: .cfa -48 + ^ x25: .cfa -56 + ^ x26: .cfa -64 + ^ x27: .cfa -72 + ^ x28: .cfa -80 + ^ .ra: .cfa -88 + ^ x29: .cfa -96 + ^
STACK CFI 84fa8 .cfa: sp 368 +
STACK CFI 84fc4 .cfa: sp 0 +
STACK CFI 84fc8 .cfa: x29 96 +
STACK CFI 8501c .cfa: sp 368 +
STACK CFI 85038 .cfa: sp 0 +
STACK CFI 8503c .cfa: x29 96 +
STACK CFI INIT 859f0 eb0 .cfa: sp 0 +
STACK CFI 859f4 .cfa: sp 96 +
STACK CFI 85a0c .cfa: x29 96 + x19: .cfa -8 + ^ x20: .cfa -16 + ^ x21: .cfa -24 + ^ x22: .cfa -32 + ^ x23: .cfa -40 + ^ x24: .cfa -48 + ^ x25: .cfa -56 + ^ x26: .cfa -64 + ^ x27: .cfa -72 + ^ x28: .cfa -80 + ^ .ra: .cfa -88 + ^ x29: .cfa -96 + ^
STACK CFI 866b4 .cfa: sp 96 +
STACK CFI 866cc .cfa: sp 0 +
STACK CFI 866d0 .cfa: x29 96 +
STACK CFI INIT 86c14 1c9c .cfa: sp 0 +
STACK CFI 86c18 .cfa: sp 112 +
STACK CFI 86c34 .cfa: x29 96 + x19: .cfa -8 + ^ x20: .cfa -16 + ^ x21: .cfa -24 + ^ x22: .cfa -32 + ^ x23: .cfa -40 + ^ x24: .cfa -48 + ^ x25: .cfa -56 + ^ x26: .cfa -64 + ^ x27: .cfa -72 + ^ x28: .cfa -80 + ^ .ra: .cfa -88 + ^ x29: .cfa -96 + ^ v8: .cfa -112 + ^
STACK CFI 8701c .cfa: sp 112 +
STACK CFI 87038 .cfa: sp 0 +
STACK CFI 8703c .cfa: x29 96 +
STACK CFI INIT 8b074 9a0 .cfa: sp 0 +
STACK CFI 8b078 .cfa: sp 144 +
STACK CFI 8b090 .cfa: x29 80 + x19: .cfa -8 + ^ x20: .cfa -16 + ^ x21: .cfa -24 + ^ x22: .cfa -32 + ^ x23: .cfa -40 + ^ x24: .cfa -48 + ^ x25: .cfa -64 + ^ .ra: .cfa -72 + ^ x29: .cfa -80 + ^
STACK CFI 8b990 .cfa: sp 144 +
STACK CFI 8b9a8 .cfa: sp 0 +
STACK CFI 8b9ac .cfa: x29 80 +
STACK CFI INIT 8cf38 57c .cfa: sp 0 +
STACK CFI 8cf3c .cfa: sp 96 +
STACK CFI 8cf54 .cfa: x29 96 + x19: .cfa -8 + ^ x20: .cfa -16 + ^ x21: .cfa -24 + ^ x22: .cfa -32 + ^ x23: .cfa -40 + ^ x24: .cfa -48 + ^ x25: .cfa -56 + ^ x26: .cfa -64 + ^ x27: .cfa -72 + ^ x28: .cfa -80 + ^ .ra: .cfa -88 + ^ x29: .cfa -96 + ^
STACK CFI 8d418 .cfa: sp 96 +
STACK CFI 8d430 .cfa: sp 0 +
STACK CFI 8d434 .cfa: x29 96 +
STACK CFI INIT 8d4b4 67c .cfa: sp 0 +
STACK CFI 8d4b8 .cfa: sp 96 +
STACK CFI 8d4d0 .cfa: x29 96 + x19: .cfa -8 + ^ x20: .cfa -16 + ^ x21: .cfa -24 + ^ x22: .cfa -32 + ^ x23: .cfa -40 + ^ x24: .cfa -48 + ^ x25: .cfa -56 + ^ x26: .cfa -64 + ^ x27: .cfa -72 + ^ x28: .cfa -80 + ^ .ra: .cfa -88 + ^ x29: .cfa -96 + ^
STACK CFI 8da94 .cfa: sp 96 +
STACK CFI 8daac .cfa: sp 0 +
STACK CFI 8dab0 .cfa: x29 96 +
