MODULE Linux arm64 4238726417B25E1306E09E15EDCE38780 cvolton.misc_bugfixes.android64.so
INFO CODE_ID 64723842B217135E06E09E15EDCE3878D8C5B54A
INFO GENERATOR mozilla/dump_syms 2.3.4
PUBLIC 2b580 0 __on_dlclose
PUBLIC 2b590 0 __emutls_unregister_key
PUBLIC 2b598 0 __on_dlclose_late
PUBLIC 2b5a0 0 __atexit_handler_wrapper
PUBLIC 2b5b4 0 atexit
PUBLIC 2b5d0 0 pthread_atfork
PUBLIC 2b5e0 0 geodeExecFunction6<(anonymous namespace)::ExecFuncUnique6>(geode::ModStateEvent*)
PUBLIC 2b72c 0 std::__ndk1::__function::__base<void (MenuLayer*)>::~__base()
PUBLIC 2b730 0 std::__ndk1::__function::__func<geodeExecFunction6<(anonymous namespace)::ExecFuncUnique6>(geode::ModStateEvent*)::{lambda(MenuLayer*)#1}, std::__ndk1::allocator<geodeExecFunction6<(anonymous namespace)::ExecFuncUnique6>(geode::ModStateEvent*)::{lambda(MenuLayer*)#1}>, void (MenuLayer*)>::~__func()
PUBLIC 2b734 0 std::__ndk1::__function::__func<geodeExecFunction6<(anonymous namespace)::ExecFuncUnique6>(geode::ModStateEvent*)::{lambda(MenuLayer*)#1}, std::__ndk1::allocator<geodeExecFunction6<(anonymous namespace)::ExecFuncUnique6>(geode::ModStateEvent*)::{lambda(MenuLayer*)#1}>, void (MenuLayer*)>::__clone() const
PUBLIC 2b758 0 std::__ndk1::__function::__func<geodeExecFunction6<(anonymous namespace)::ExecFuncUnique6>(geode::ModStateEvent*)::{lambda(MenuLayer*)#1}, std::__ndk1::allocator<geodeExecFunction6<(anonymous namespace)::ExecFuncUnique6>(geode::ModStateEvent*)::{lambda(MenuLayer*)#1}>, void (MenuLayer*)>::__clone(std::__ndk1::__function::__base<void (MenuLayer*)>*) const
PUBLIC 2b768 0 std::__ndk1::__function::__func<geodeExecFunction6<(anonymous namespace)::ExecFuncUnique6>(geode::ModStateEvent*)::{lambda(MenuLayer*)#1}, std::__ndk1::allocator<geodeExecFunction6<(anonymous namespace)::ExecFuncUnique6>(geode::ModStateEvent*)::{lambda(MenuLayer*)#1}>, void (MenuLayer*)>::destroy()
PUBLIC 2b76c 0 std::__ndk1::__function::__func<geodeExecFunction6<(anonymous namespace)::ExecFuncUnique6>(geode::ModStateEvent*)::{lambda(MenuLayer*)#1}, std::__ndk1::allocator<geodeExecFunction6<(anonymous namespace)::ExecFuncUnique6>(geode::ModStateEvent*)::{lambda(MenuLayer*)#1}>, void (MenuLayer*)>::destroy_deallocate()
PUBLIC 2b770 0 std::__ndk1::__function::__func<geodeExecFunction6<(anonymous namespace)::ExecFuncUnique6>(geode::ModStateEvent*)::{lambda(MenuLayer*)#1}, std::__ndk1::allocator<geodeExecFunction6<(anonymous namespace)::ExecFuncUnique6>(geode::ModStateEvent*)::{lambda(MenuLayer*)#1}>, void (MenuLayer*)>::operator()(MenuLayer*&&)
PUBLIC 2b8ac 0 std::__ndk1::__function::__func<geodeExecFunction6<(anonymous namespace)::ExecFuncUnique6>(geode::ModStateEvent*)::{lambda(MenuLayer*)#1}, std::__ndk1::allocator<geodeExecFunction6<(anonymous namespace)::ExecFuncUnique6>(geode::ModStateEvent*)::{lambda(MenuLayer*)#1}>, void (MenuLayer*)>::target(std::type_info const&) const
PUBLIC 2b8c8 0 std::__ndk1::__function::__func<geodeExecFunction6<(anonymous namespace)::ExecFuncUnique6>(geode::ModStateEvent*)::{lambda(MenuLayer*)#1}, std::__ndk1::allocator<geodeExecFunction6<(anonymous namespace)::ExecFuncUnique6>(geode::ModStateEvent*)::{lambda(MenuLayer*)#1}>, void (MenuLayer*)>::target_type() const
PUBLIC 2b8d4 0 std::__ndk1::__function::__base<void ()>::~__base()
PUBLIC 2b8d8 0 std::__ndk1::__function::__func<geodeExecFunction6<(anonymous namespace)::ExecFuncUnique6>(geode::ModStateEvent*)::{lambda(MenuLayer*)#1}::operator()(MenuLayer*) const::{lambda()#1}, std::__ndk1::allocator<geodeExecFunction6<(anonymous namespace)::ExecFuncUnique6>(geode::ModStateEvent*)::{lambda(MenuLayer*)#1}::operator()(MenuLayer*) const::{lambda()#1}>, void ()>::~__func()
PUBLIC 2b8dc 0 std::__ndk1::__function::__func<geodeExecFunction6<(anonymous namespace)::ExecFuncUnique6>(geode::ModStateEvent*)::{lambda(MenuLayer*)#1}::operator()(MenuLayer*) const::{lambda()#1}, std::__ndk1::allocator<geodeExecFunction6<(anonymous namespace)::ExecFuncUnique6>(geode::ModStateEvent*)::{lambda(MenuLayer*)#1}::operator()(MenuLayer*) const::{lambda()#1}>, void ()>::__clone() const
PUBLIC 2b914 0 std::__ndk1::__function::__func<geodeExecFunction6<(anonymous namespace)::ExecFuncUnique6>(geode::ModStateEvent*)::{lambda(MenuLayer*)#1}::operator()(MenuLayer*) const::{lambda()#1}, std::__ndk1::allocator<geodeExecFunction6<(anonymous namespace)::ExecFuncUnique6>(geode::ModStateEvent*)::{lambda(MenuLayer*)#1}::operator()(MenuLayer*) const::{lambda()#1}>, void ()>::__clone(std::__ndk1::__function::__base<void ()>*) const
PUBLIC 2b92c 0 std::__ndk1::__function::__func<geodeExecFunction6<(anonymous namespace)::ExecFuncUnique6>(geode::ModStateEvent*)::{lambda(MenuLayer*)#1}::operator()(MenuLayer*) const::{lambda()#1}, std::__ndk1::allocator<geodeExecFunction6<(anonymous namespace)::ExecFuncUnique6>(geode::ModStateEvent*)::{lambda(MenuLayer*)#1}::operator()(MenuLayer*) const::{lambda()#1}>, void ()>::destroy()
PUBLIC 2b930 0 std::__ndk1::__function::__func<geodeExecFunction6<(anonymous namespace)::ExecFuncUnique6>(geode::ModStateEvent*)::{lambda(MenuLayer*)#1}::operator()(MenuLayer*) const::{lambda()#1}, std::__ndk1::allocator<geodeExecFunction6<(anonymous namespace)::ExecFuncUnique6>(geode::ModStateEvent*)::{lambda(MenuLayer*)#1}::operator()(MenuLayer*) const::{lambda()#1}>, void ()>::destroy_deallocate()
PUBLIC 2b934 0 std::__ndk1::__function::__func<geodeExecFunction6<(anonymous namespace)::ExecFuncUnique6>(geode::ModStateEvent*)::{lambda(MenuLayer*)#1}::operator()(MenuLayer*) const::{lambda()#1}, std::__ndk1::allocator<geodeExecFunction6<(anonymous namespace)::ExecFuncUnique6>(geode::ModStateEvent*)::{lambda(MenuLayer*)#1}::operator()(MenuLayer*) const::{lambda()#1}>, void ()>::operator()()
PUBLIC 2bae0 0 std::__ndk1::__function::__func<geodeExecFunction6<(anonymous namespace)::ExecFuncUnique6>(geode::ModStateEvent*)::{lambda(MenuLayer*)#1}::operator()(MenuLayer*) const::{lambda()#1}, std::__ndk1::allocator<geodeExecFunction6<(anonymous namespace)::ExecFuncUnique6>(geode::ModStateEvent*)::{lambda(MenuLayer*)#1}::operator()(MenuLayer*) const::{lambda()#1}>, void ()>::target(std::type_info const&) const
PUBLIC 2bafc 0 std::__ndk1::__function::__func<geodeExecFunction6<(anonymous namespace)::ExecFuncUnique6>(geode::ModStateEvent*)::{lambda(MenuLayer*)#1}::operator()(MenuLayer*) const::{lambda()#1}, std::__ndk1::allocator<geodeExecFunction6<(anonymous namespace)::ExecFuncUnique6>(geode::ModStateEvent*)::{lambda(MenuLayer*)#1}::operator()(MenuLayer*) const::{lambda()#1}>, void ()>::target_type() const
PUBLIC 2bb08 0 std::__ndk1::__function::__base<void (FLAlertLayer*, bool)>::~__base()
PUBLIC 2bb0c 0 std::__ndk1::__function::__func<geodeExecFunction6<(anonymous namespace)::ExecFuncUnique6>(geode::ModStateEvent*)::{lambda(MenuLayer*)#1}::operator()(MenuLayer*) const::{lambda()#1}::operator()() const::{lambda(FLAlertLayer*, bool)#1}, std::__ndk1::allocator<geodeExecFunction6<(anonymous namespace)::ExecFuncUnique6>(geode::ModStateEvent*)::{lambda(MenuLayer*)#1}::operator()(MenuLayer*) const::{lambda()#1}::operator()() const::{lambda(FLAlertLayer*, bool)#1}>, void (FLAlertLayer*, bool)>::~__func()
PUBLIC 2bb10 0 std::__ndk1::__function::__func<geodeExecFunction6<(anonymous namespace)::ExecFuncUnique6>(geode::ModStateEvent*)::{lambda(MenuLayer*)#1}::operator()(MenuLayer*) const::{lambda()#1}::operator()() const::{lambda(FLAlertLayer*, bool)#1}, std::__ndk1::allocator<geodeExecFunction6<(anonymous namespace)::ExecFuncUnique6>(geode::ModStateEvent*)::{lambda(MenuLayer*)#1}::operator()(MenuLayer*) const::{lambda()#1}::operator()() const::{lambda(FLAlertLayer*, bool)#1}>, void (FLAlertLayer*, bool)>::__clone() const
PUBLIC 2bb44 0 std::__ndk1::__function::__func<geodeExecFunction6<(anonymous namespace)::ExecFuncUnique6>(geode::ModStateEvent*)::{lambda(MenuLayer*)#1}::operator()(MenuLayer*) const::{lambda()#1}::operator()() const::{lambda(FLAlertLayer*, bool)#1}, std::__ndk1::allocator<geodeExecFunction6<(anonymous namespace)::ExecFuncUnique6>(geode::ModStateEvent*)::{lambda(MenuLayer*)#1}::operator()(MenuLayer*) const::{lambda()#1}::operator()() const::{lambda(FLAlertLayer*, bool)#1}>, void (FLAlertLayer*, bool)>::__clone(std::__ndk1::__function::__base<void (FLAlertLayer*, bool)>*) const
PUBLIC 2bb58 0 std::__ndk1::__function::__func<geodeExecFunction6<(anonymous namespace)::ExecFuncUnique6>(geode::ModStateEvent*)::{lambda(MenuLayer*)#1}::operator()(MenuLayer*) const::{lambda()#1}::operator()() const::{lambda(FLAlertLayer*, bool)#1}, std::__ndk1::allocator<geodeExecFunction6<(anonymous namespace)::ExecFuncUnique6>(geode::ModStateEvent*)::{lambda(MenuLayer*)#1}::operator()(MenuLayer*) const::{lambda()#1}::operator()() const::{lambda(FLAlertLayer*, bool)#1}>, void (FLAlertLayer*, bool)>::destroy()
PUBLIC 2bb5c 0 std::__ndk1::__function::__func<geodeExecFunction6<(anonymous namespace)::ExecFuncUnique6>(geode::ModStateEvent*)::{lambda(MenuLayer*)#1}::operator()(MenuLayer*) const::{lambda()#1}::operator()() const::{lambda(FLAlertLayer*, bool)#1}, std::__ndk1::allocator<geodeExecFunction6<(anonymous namespace)::ExecFuncUnique6>(geode::ModStateEvent*)::{lambda(MenuLayer*)#1}::operator()(MenuLayer*) const::{lambda()#1}::operator()() const::{lambda(FLAlertLayer*, bool)#1}>, void (FLAlertLayer*, bool)>::destroy_deallocate()
PUBLIC 2bb60 0 std::__ndk1::__function::__func<geodeExecFunction6<(anonymous namespace)::ExecFuncUnique6>(geode::ModStateEvent*)::{lambda(MenuLayer*)#1}::operator()(MenuLayer*) const::{lambda()#1}::operator()() const::{lambda(FLAlertLayer*, bool)#1}, std::__ndk1::allocator<geodeExecFunction6<(anonymous namespace)::ExecFuncUnique6>(geode::ModStateEvent*)::{lambda(MenuLayer*)#1}::operator()(MenuLayer*) const::{lambda()#1}::operator()() const::{lambda(FLAlertLayer*, bool)#1}>, void (FLAlertLayer*, bool)>::operator()(FLAlertLayer*&&, bool&&)
PUBLIC 2bb80 0 std::__ndk1::__function::__func<geodeExecFunction6<(anonymous namespace)::ExecFuncUnique6>(geode::ModStateEvent*)::{lambda(MenuLayer*)#1}::operator()(MenuLayer*) const::{lambda()#1}::operator()() const::{lambda(FLAlertLayer*, bool)#1}, std::__ndk1::allocator<geodeExecFunction6<(anonymous namespace)::ExecFuncUnique6>(geode::ModStateEvent*)::{lambda(MenuLayer*)#1}::operator()(MenuLayer*) const::{lambda()#1}::operator()() const::{lambda(FLAlertLayer*, bool)#1}>, void (FLAlertLayer*, bool)>::target(std::type_info const&) const
PUBLIC 2bb9c 0 std::__ndk1::__function::__func<geodeExecFunction6<(anonymous namespace)::ExecFuncUnique6>(geode::ModStateEvent*)::{lambda(MenuLayer*)#1}::operator()(MenuLayer*) const::{lambda()#1}::operator()() const::{lambda(FLAlertLayer*, bool)#1}, std::__ndk1::allocator<geodeExecFunction6<(anonymous namespace)::ExecFuncUnique6>(geode::ModStateEvent*)::{lambda(MenuLayer*)#1}::operator()(MenuLayer*) const::{lambda()#1}::operator()() const::{lambda(FLAlertLayer*, bool)#1}>, void (FLAlertLayer*, bool)>::target_type() const
PUBLIC 2bba8 0 geode::EventListener<geode::ModStateFilter>::getPool() const
PUBLIC 2bbac 0 geode::EventListener<geode::ModStateFilter>::handle(geode::Event*)
PUBLIC 2bd20 0 geode::EventListener<geode::ModStateFilter>::~EventListener()
PUBLIC 2bd7c 0 geode::EventListener<geode::ModStateFilter>::~EventListener()
PUBLIC 2bde0 0 std::__ndk1::__function::__base<void (geode::ModStateEvent*)>::~__base()
PUBLIC 2bde4 0 std::__ndk1::__function::__func<void (*)(geode::ModStateEvent*), std::__ndk1::allocator<void (*)(geode::ModStateEvent*)>, void (geode::ModStateEvent*)>::~__func()
PUBLIC 2bde8 0 std::__ndk1::__function::__func<void (*)(geode::ModStateEvent*), std::__ndk1::allocator<void (*)(geode::ModStateEvent*)>, void (geode::ModStateEvent*)>::__clone() const
PUBLIC 2be1c 0 std::__ndk1::__function::__func<void (*)(geode::ModStateEvent*), std::__ndk1::allocator<void (*)(geode::ModStateEvent*)>, void (geode::ModStateEvent*)>::__clone(std::__ndk1::__function::__base<void (geode::ModStateEvent*)>*) const
PUBLIC 2be30 0 std::__ndk1::__function::__func<void (*)(geode::ModStateEvent*), std::__ndk1::allocator<void (*)(geode::ModStateEvent*)>, void (geode::ModStateEvent*)>::destroy()
PUBLIC 2be34 0 std::__ndk1::__function::__func<void (*)(geode::ModStateEvent*), std::__ndk1::allocator<void (*)(geode::ModStateEvent*)>, void (geode::ModStateEvent*)>::destroy_deallocate()
PUBLIC 2be38 0 std::__ndk1::__function::__func<void (*)(geode::ModStateEvent*), std::__ndk1::allocator<void (*)(geode::ModStateEvent*)>, void (geode::ModStateEvent*)>::operator()(geode::ModStateEvent*&&)
PUBLIC 2be48 0 std::__ndk1::__function::__func<void (*)(geode::ModStateEvent*), std::__ndk1::allocator<void (*)(geode::ModStateEvent*)>, void (geode::ModStateEvent*)>::target(std::type_info const&) const
PUBLIC 2be64 0 std::__ndk1::__function::__func<void (*)(geode::ModStateEvent*), std::__ndk1::allocator<void (*)(geode::ModStateEvent*)>, void (geode::ModStateEvent*)>::target_type() const
PUBLIC 2be70 0 geode::cast::traverseTypeinfoFor(void*, geode::cast::ClassTypeinfoType const*, char const*)
PUBLIC 2bf74 0 _GLOBAL__sub_I_BasementSoftlockFix.cpp
PUBLIC 2c0a0 0 __aarch64_ldadd8_acq_rel
PUBLIC 2c0d0 0 init_have_lse_atomics
PUBLIC 2c168 0 __init_cpu_features_constructor
PUBLIC 2c704 0 __init_cpu_features
PUBLIC 2c790 0 __aarch64_ldadd8_relax
PUBLIC 2c7c0 0 removeSubdirIfExists(std::__ndk1::basic_string<char, std::__ndk1::char_traits<char>, std::__ndk1::allocator<char> > const&, std::__ndk1::basic_string<char, std::__ndk1::char_traits<char>, std::__ndk1::allocator<char> > const&)
PUBLIC 2cb88 0 std::__ndk1::__fs::filesystem::directory_iterator::~directory_iterator[abi:ne180000]()
PUBLIC 2cbd8 0 geode::log::error<char const*>(fmt::v11::basic_format_string<char, fmt::v11::type_identity<std::__ndk1::conditional<IsWrappedCocos<char const*>, decltype ((wrapCocosObj<char const*>)((std::declval<char const*>)())), char const*>::type>::type>, char const*&&)
PUBLIC 2cc70 0 __clang_call_terminate
PUBLIC 2cc80 0 geodeExecFunction68<(anonymous namespace)::ExecFuncUnique68>(geode::ModStateEvent*)
PUBLIC 2cec0 0 std::__ndk1::__fs::filesystem::path::operator/=[abi:ne180000](std::__ndk1::__fs::filesystem::path const&)
PUBLIC 2cfa8 0 std::__ndk1::basic_string<char, std::__ndk1::char_traits<char>, std::__ndk1::allocator<char> >::__assign_no_alias<true>(char const*, unsigned long)
PUBLIC 2d054 0 std::__ndk1::basic_string<char, std::__ndk1::char_traits<char>, std::__ndk1::allocator<char> >::__assign_no_alias<false>(char const*, unsigned long)
PUBLIC 2d164 0 std::__ndk1::basic_string<char, std::__ndk1::char_traits<char>, std::__ndk1::allocator<char> >::__throw_length_error[abi:ne180000]() const
PUBLIC 2d178 0 std::__ndk1::__throw_length_error[abi:ne180000](char const*)
PUBLIC 2d1c8 0 std::length_error::length_error[abi:ne180000](char const*)
PUBLIC 2d1f8 0 _ZNSt6__ndk112basic_stringIcNS_11char_traitsIcEENS_9allocatorIcEEE6appendB8ne180000IPKcTnNS_9enable_ifIXsr31__has_forward_iterator_categoryIT_EE5valueEiE4typeELi0EEERS5_SA_SA_
PUBLIC 2d4fc 0 std::__ndk1::basic_string<char, std::__ndk1::char_traits<char>, std::__ndk1::allocator<char> >::__init_copy_ctor_external(char const*, unsigned long)
PUBLIC 2d57c 0 fmt::v11::detail::value<fmt::v11::context>::format_custom_arg<std::__ndk1::__fs::filesystem::path, fmt::v11::formatter<std::__ndk1::__fs::filesystem::path, char, void> >(void*, fmt::v11::basic_format_parse_context<char>&, fmt::v11::context&)
PUBLIC 2e46c 0 fmt::v11::detail::parse_dynamic_spec<char>(char const*, char const*, int&, fmt::v11::detail::arg_ref<char>&, fmt::v11::basic_format_parse_context<char>&)
PUBLIC 2e610 0 fmt::v11::detail::do_parse_arg_id<char, fmt::v11::detail::dynamic_spec_id_handler<char>&>(char const*, char const*, fmt::v11::detail::dynamic_spec_id_handler<char>&)
PUBLIC 2e7a4 0 fmt::v11::detail::handle_dynamic_spec<fmt::v11::detail::width_checker, fmt::v11::context>(int&, fmt::v11::detail::arg_ref<fmt::v11::context::char_type>, fmt::v11::context&)
PUBLIC 2e8b8 0 fmt::v11::detail::write<char, fmt::v11::basic_appender<char> >(fmt::v11::basic_appender<char>, fmt::v11::basic_string_view<char>, fmt::v11::format_specs const&)
PUBLIC 2eb34 0 fmt::v11::detail::get_dynamic_spec<fmt::v11::detail::width_checker, fmt::v11::basic_format_arg<fmt::v11::context> >(fmt::v11::basic_format_arg<fmt::v11::context>)
PUBLIC 2ebc8 0 fmt::v11::basic_format_args<fmt::v11::context>::get<char>(fmt::v11::basic_string_view<char>) const
PUBLIC 2ed20 0 fmt::v11::detail::write_escaped_string<char, fmt::v11::detail::counting_iterator>(fmt::v11::detail::counting_iterator, fmt::v11::basic_string_view<char>)
PUBLIC 2f240 0 fmt::v11::detail::write_padded<char, (fmt::v11::align::type)1, fmt::v11::basic_appender<char>, fmt::v11::detail::write<char, fmt::v11::basic_appender<char> >(fmt::v11::basic_appender<char>, fmt::v11::basic_string_view<char>, fmt::v11::format_specs const&)::{lambda(fmt::v11::basic_appender<char>)#1}>(fmt::v11::basic_appender<char>, fmt::v11::format_specs const&, unsigned long, unsigned long, fmt::v11::detail::write<char, fmt::v11::basic_appender<char> >(fmt::v11::basic_appender<char>, fmt::v11::basic_string_view<char>, fmt::v11::format_specs const&)::{lambda(fmt::v11::basic_appender<char>&&)#1})
PUBLIC 2f44c 0 fmt::v11::detail::for_each_codepoint<fmt::v11::detail::code_point_index(fmt::v11::basic_string_view<char>, unsigned long)::{lambda(unsigned int, fmt::v11::basic_string_view<char>)#1}>(fmt::v11::basic_string_view<char>, fmt::v11::detail::code_point_index(fmt::v11::basic_string_view<char>, unsigned long)::{lambda(unsigned int, fmt::v11::basic_string_view<char>)#1})
PUBLIC 2f874 0 fmt::v11::detail::write_escaped_cp<fmt::v11::detail::counting_iterator, char>(fmt::v11::detail::counting_iterator, fmt::v11::detail::find_escape_result<char> const&)
PUBLIC 2fa08 0 fmt::v11::detail::for_each_codepoint<fmt::v11::detail::compute_width(fmt::v11::basic_string_view<char>)::count_code_points>(fmt::v11::basic_string_view<char>, fmt::v11::detail::compute_width(fmt::v11::basic_string_view<char>)::count_code_points)::{lambda(char const*, char const*)#1}::operator()(char const*, char const*) const
PUBLIC 2fbc0 0 fmt::v11::detail::fill<char, fmt::v11::basic_appender<char> >(fmt::v11::basic_appender<char>, unsigned long, fmt::v11::detail::fill_t const&)
PUBLIC 2fd90 0 fmt::v11::detail::write_escaped_string<char, fmt::v11::basic_appender<char> >(fmt::v11::basic_appender<char>, fmt::v11::basic_string_view<char>)
PUBLIC 3040c 0 fmt::v11::detail::write_escaped_cp<fmt::v11::basic_appender<char>, char>(fmt::v11::basic_appender<char>, fmt::v11::detail::find_escape_result<char> const&)
PUBLIC 305f0 0 fmt::v11::detail::write_codepoint<(unsigned long)2, char, fmt::v11::basic_appender<char> >(fmt::v11::basic_appender<char>, char, unsigned int)
PUBLIC 30768 0 fmt::v11::detail::write_codepoint<(unsigned long)4, char, fmt::v11::basic_appender<char> >(fmt::v11::basic_appender<char>, char, unsigned int)
PUBLIC 308e0 0 fmt::v11::detail::write_codepoint<(unsigned long)8, char, fmt::v11::basic_appender<char> >(fmt::v11::basic_appender<char>, char, unsigned int)
PUBLIC 30a58 0 fmt::v11::basic_memory_buffer<char, (unsigned long)500, std::__ndk1::allocator<char> >::grow(fmt::v11::detail::buffer<char>&, unsigned long)
PUBLIC 30ad0 0 fmt::v11::detail::write_codepoint<(unsigned long)2, char, std::__ndk1::back_insert_iterator<fmt::v11::basic_memory_buffer<char, (unsigned long)500, std::__ndk1::allocator<char> > > >(std::__ndk1::back_insert_iterator<fmt::v11::basic_memory_buffer<char, (unsigned long)500, std::__ndk1::allocator<char> > >, char, unsigned int)
PUBLIC 30c48 0 geode::Mod::getSettingValue<bool>(std::__ndk1::basic_string_view<char, std::__ndk1::char_traits<char> >) const
PUBLIC 30d7c 0 std::__ndk1::__thread_proxy[abi:ne180000]<std::__ndk1::tuple<std::__ndk1::unique_ptr<std::__ndk1::__thread_struct, std::__ndk1::default_delete<std::__ndk1::unique_ptr> >, geodeExecFunction68<(anonymous namespace)::ExecFuncUnique68>(geode::ModStateEvent*)::{lambda()#1}> >(std::__ndk1::tuple<std::__ndk1::unique_ptr<std::__ndk1::__thread_struct, std::__ndk1::default_delete<std::__ndk1::unique_ptr> >, geodeExecFunction68<(anonymous namespace)::ExecFuncUnique68>(geode::ModStateEvent*)::{lambda()#1}>)
PUBLIC 30fac 0 std::__ndk1::unique_ptr<std::__ndk1::tuple<std::__ndk1::unique_ptr<std::__ndk1::__thread_struct, std::__ndk1::default_delete<std::__ndk1::__thread_struct> >, geodeExecFunction68<(anonymous namespace)::ExecFuncUnique68>(geode::ModStateEvent*)::{lambda()#1}>, std::__ndk1::default_delete<std::__ndk1::tuple<std::__ndk1::unique_ptr<std::__ndk1::__thread_struct, std::__ndk1::default_delete<std::__ndk1::__thread_struct> >, geodeExecFunction68<(anonymous namespace)::ExecFuncUnique68>(geode::ModStateEvent*)::{lambda()#1}> > >::~unique_ptr[abi:ne180000]()
PUBLIC 30ffc 0 std::__ndk1::unique_ptr<std::__ndk1::__thread_struct, std::__ndk1::default_delete<std::__ndk1::__thread_struct> >::~unique_ptr[abi:ne180000]()
PUBLIC 31038 0 std::__ndk1::__function::__func<geodeExecFunction68<(anonymous namespace)::ExecFuncUnique68>(geode::ModStateEvent*)::{lambda(MenuLayer*)#1}, std::__ndk1::allocator<geodeExecFunction68<(anonymous namespace)::ExecFuncUnique68>(geode::ModStateEvent*)::{lambda(MenuLayer*)#1}>, void (MenuLayer*)>::~__func()
PUBLIC 3103c 0 std::__ndk1::__function::__func<geodeExecFunction68<(anonymous namespace)::ExecFuncUnique68>(geode::ModStateEvent*)::{lambda(MenuLayer*)#1}, std::__ndk1::allocator<geodeExecFunction68<(anonymous namespace)::ExecFuncUnique68>(geode::ModStateEvent*)::{lambda(MenuLayer*)#1}>, void (MenuLayer*)>::__clone() const
PUBLIC 31060 0 std::__ndk1::__function::__func<geodeExecFunction68<(anonymous namespace)::ExecFuncUnique68>(geode::ModStateEvent*)::{lambda(MenuLayer*)#1}, std::__ndk1::allocator<geodeExecFunction68<(anonymous namespace)::ExecFuncUnique68>(geode::ModStateEvent*)::{lambda(MenuLayer*)#1}>, void (MenuLayer*)>::__clone(std::__ndk1::__function::__base<void (MenuLayer*)>*) const
PUBLIC 31070 0 std::__ndk1::__function::__func<geodeExecFunction68<(anonymous namespace)::ExecFuncUnique68>(geode::ModStateEvent*)::{lambda(MenuLayer*)#1}, std::__ndk1::allocator<geodeExecFunction68<(anonymous namespace)::ExecFuncUnique68>(geode::ModStateEvent*)::{lambda(MenuLayer*)#1}>, void (MenuLayer*)>::destroy()
PUBLIC 31074 0 std::__ndk1::__function::__func<geodeExecFunction68<(anonymous namespace)::ExecFuncUnique68>(geode::ModStateEvent*)::{lambda(MenuLayer*)#1}, std::__ndk1::allocator<geodeExecFunction68<(anonymous namespace)::ExecFuncUnique68>(geode::ModStateEvent*)::{lambda(MenuLayer*)#1}>, void (MenuLayer*)>::destroy_deallocate()
PUBLIC 31078 0 std::__ndk1::__function::__func<geodeExecFunction68<(anonymous namespace)::ExecFuncUnique68>(geode::ModStateEvent*)::{lambda(MenuLayer*)#1}, std::__ndk1::allocator<geodeExecFunction68<(anonymous namespace)::ExecFuncUnique68>(geode::ModStateEvent*)::{lambda(MenuLayer*)#1}>, void (MenuLayer*)>::operator()(MenuLayer*&&)
PUBLIC 31a6c 0 std::__ndk1::__function::__func<geodeExecFunction68<(anonymous namespace)::ExecFuncUnique68>(geode::ModStateEvent*)::{lambda(MenuLayer*)#1}, std::__ndk1::allocator<geodeExecFunction68<(anonymous namespace)::ExecFuncUnique68>(geode::ModStateEvent*)::{lambda(MenuLayer*)#1}>, void (MenuLayer*)>::target(std::type_info const&) const
PUBLIC 31a88 0 std::__ndk1::__function::__func<geodeExecFunction68<(anonymous namespace)::ExecFuncUnique68>(geode::ModStateEvent*)::{lambda(MenuLayer*)#1}, std::__ndk1::allocator<geodeExecFunction68<(anonymous namespace)::ExecFuncUnique68>(geode::ModStateEvent*)::{lambda(MenuLayer*)#1}>, void (MenuLayer*)>::target_type() const
PUBLIC 31a94 0 _GLOBAL__sub_I_CCleaner.cpp
PUBLIC 31bc0 0 isCorrectDownloadSprite(cocos2d::CCNode*)
PUBLIC 31d78 0 getChildBySpriteFrameNameRecursive(cocos2d::CCNode*, char const*)
PUBLIC 31e74 0 geode::cocos::CCArrayExt<cocos2d::CCNode*, cocos2d::CCNode>::~CCArrayExt()
PUBLIC 31e90 0 geode::Ref<cocos2d::CCNode>::~Ref()
PUBLIC 31eb0 0 showDelayedPopup(std::__ndk1::basic_string<char, std::__ndk1::char_traits<char>, std::__ndk1::allocator<char> > const&)
PUBLIC 31fb4 0 geodeExecFunction57<(anonymous namespace)::ExecFuncUnique57>(geode::ModStateEvent*)
PUBLIC 32100 0 std::__ndk1::__thread_proxy[abi:ne180000]<std::__ndk1::tuple<std::__ndk1::unique_ptr<std::__ndk1::__thread_struct, std::__ndk1::default_delete<std::__ndk1::unique_ptr> >, showDelayedPopup(std::__ndk1::basic_string<char, std::__ndk1::char_traits<char>, std::__ndk1::allocator<char> > const&)::$_0> >(std::__ndk1::tuple<std::__ndk1::unique_ptr<std::__ndk1::__thread_struct, std::__ndk1::default_delete<std::__ndk1::unique_ptr> >, showDelayedPopup(std::__ndk1::basic_string<char, std::__ndk1::char_traits<char>, std::__ndk1::allocator<char> > const&)::$_0>)
PUBLIC 32248 0 std::__ndk1::unique_ptr<std::__ndk1::tuple<std::__ndk1::unique_ptr<std::__ndk1::__thread_struct, std::__ndk1::default_delete<std::__ndk1::__thread_struct> >, showDelayedPopup(std::__ndk1::basic_string<char, std::__ndk1::char_traits<char>, std::__ndk1::allocator<char> > const&)::$_0>, std::__ndk1::default_delete<std::__ndk1::tuple<std::__ndk1::unique_ptr<std::__ndk1::__thread_struct, std::__ndk1::default_delete<std::__ndk1::__thread_struct> >, showDelayedPopup(std::__ndk1::basic_string<char, std::__ndk1::char_traits<char>, std::__ndk1::allocator<char> > const&)::$_0> > >::~unique_ptr[abi:ne180000]()
PUBLIC 32298 0 std::__ndk1::__function::__func<showDelayedPopup(std::__ndk1::basic_string<char, std::__ndk1::char_traits<char>, std::__ndk1::allocator<char> > const&)::$_0::operator()() const::{lambda()#1}, std::__ndk1::allocator<showDelayedPopup(std::__ndk1::basic_string<char, std::__ndk1::char_traits<char>, std::__ndk1::allocator<char> > const&)::$_0::operator()() const::{lambda()#1}>, void ()>::~__func()
PUBLIC 3229c 0 std::__ndk1::__function::__func<showDelayedPopup(std::__ndk1::basic_string<char, std::__ndk1::char_traits<char>, std::__ndk1::allocator<char> > const&)::$_0::operator()() const::{lambda()#1}, std::__ndk1::allocator<showDelayedPopup(std::__ndk1::basic_string<char, std::__ndk1::char_traits<char>, std::__ndk1::allocator<char> > const&)::$_0::operator()() const::{lambda()#1}>, void ()>::__clone() const
PUBLIC 322c0 0 std::__ndk1::__function::__func<showDelayedPopup(std::__ndk1::basic_string<char, std::__ndk1::char_traits<char>, std::__ndk1::allocator<char> > const&)::$_0::operator()() const::{lambda()#1}, std::__ndk1::allocator<showDelayedPopup(std::__ndk1::basic_string<char, std::__ndk1::char_traits<char>, std::__ndk1::allocator<char> > const&)::$_0::operator()() const::{lambda()#1}>, void ()>::__clone(std::__ndk1::__function::__base<void ()>*) const
PUBLIC 322d0 0 std::__ndk1::__function::__func<showDelayedPopup(std::__ndk1::basic_string<char, std::__ndk1::char_traits<char>, std::__ndk1::allocator<char> > const&)::$_0::operator()() const::{lambda()#1}, std::__ndk1::allocator<showDelayedPopup(std::__ndk1::basic_string<char, std::__ndk1::char_traits<char>, std::__ndk1::allocator<char> > const&)::$_0::operator()() const::{lambda()#1}>, void ()>::destroy()
PUBLIC 322d4 0 std::__ndk1::__function::__func<showDelayedPopup(std::__ndk1::basic_string<char, std::__ndk1::char_traits<char>, std::__ndk1::allocator<char> > const&)::$_0::operator()() const::{lambda()#1}, std::__ndk1::allocator<showDelayedPopup(std::__ndk1::basic_string<char, std::__ndk1::char_traits<char>, std::__ndk1::allocator<char> > const&)::$_0::operator()() const::{lambda()#1}>, void ()>::destroy_deallocate()
PUBLIC 322d8 0 std::__ndk1::__function::__func<showDelayedPopup(std::__ndk1::basic_string<char, std::__ndk1::char_traits<char>, std::__ndk1::allocator<char> > const&)::$_0::operator()() const::{lambda()#1}, std::__ndk1::allocator<showDelayedPopup(std::__ndk1::basic_string<char, std::__ndk1::char_traits<char>, std::__ndk1::allocator<char> > const&)::$_0::operator()() const::{lambda()#1}>, void ()>::operator()()
PUBLIC 32590 0 std::__ndk1::__function::__func<showDelayedPopup(std::__ndk1::basic_string<char, std::__ndk1::char_traits<char>, std::__ndk1::allocator<char> > const&)::$_0::operator()() const::{lambda()#1}, std::__ndk1::allocator<showDelayedPopup(std::__ndk1::basic_string<char, std::__ndk1::char_traits<char>, std::__ndk1::allocator<char> > const&)::$_0::operator()() const::{lambda()#1}>, void ()>::target(std::type_info const&) const
PUBLIC 325ac 0 std::__ndk1::__function::__func<showDelayedPopup(std::__ndk1::basic_string<char, std::__ndk1::char_traits<char>, std::__ndk1::allocator<char> > const&)::$_0::operator()() const::{lambda()#1}, std::__ndk1::allocator<showDelayedPopup(std::__ndk1::basic_string<char, std::__ndk1::char_traits<char>, std::__ndk1::allocator<char> > const&)::$_0::operator()() const::{lambda()#1}>, void ()>::target_type() const
PUBLIC 325b8 0 geode::Task<bool, std::__ndk1::monostate>::~Task()
PUBLIC 32608 0 geode::Task<bool, std::__ndk1::monostate>::setListener(geode::EventListenerProtocol*)
PUBLIC 3280c 0 geode::EventListener<geode::Task<bool, std::__ndk1::monostate> >::getPool() const
PUBLIC 32810 0 geode::EventListener<geode::Task<bool, std::__ndk1::monostate> >::handle(geode::Event*)
PUBLIC 329dc 0 geode::EventListener<geode::Task<bool, std::__ndk1::monostate> >::~EventListener()
PUBLIC 32a78 0 geode::EventListener<geode::Task<bool, std::__ndk1::monostate> >::~EventListener()
PUBLIC 32b1c 0 geode::Task<bool, std::__ndk1::monostate>::setListener(geode::EventListenerProtocol*)::{lambda()#1}::~{lambda()#1}()
PUBLIC 32b6c 0 geode::Task<bool, std::__ndk1::monostate>::setListener(geode::EventListenerProtocol*)::{lambda()#2}::~{lambda()#2}()
PUBLIC 32bbc 0 std::__ndk1::__function::__func<geode::Task<bool, std::__ndk1::monostate>::setListener(geode::EventListenerProtocol*)::{lambda()#1}, std::__ndk1::allocator<geode::Task<bool, std::__ndk1::monostate>::setListener(geode::EventListenerProtocol*)::{lambda()#1}>, void ()>::~__func()
PUBLIC 32c18 0 std::__ndk1::__function::__func<geode::Task<bool, std::__ndk1::monostate>::setListener(geode::EventListenerProtocol*)::{lambda()#1}, std::__ndk1::allocator<geode::Task<bool, std::__ndk1::monostate>::setListener(geode::EventListenerProtocol*)::{lambda()#1}>, void ()>::~__func()
PUBLIC 32c84 0 std::__ndk1::__function::__func<geode::Task<bool, std::__ndk1::monostate>::setListener(geode::EventListenerProtocol*)::{lambda()#1}, std::__ndk1::allocator<geode::Task<bool, std::__ndk1::monostate>::setListener(geode::EventListenerProtocol*)::{lambda()#1}>, void ()>::__clone() const
PUBLIC 32cdc 0 std::__ndk1::__function::__func<geode::Task<bool, std::__ndk1::monostate>::setListener(geode::EventListenerProtocol*)::{lambda()#1}, std::__ndk1::allocator<geode::Task<bool, std::__ndk1::monostate>::setListener(geode::EventListenerProtocol*)::{lambda()#1}>, void ()>::__clone(std::__ndk1::__function::__base<void ()>*) const
PUBLIC 32d28 0 std::__ndk1::__function::__func<geode::Task<bool, std::__ndk1::monostate>::setListener(geode::EventListenerProtocol*)::{lambda()#1}, std::__ndk1::allocator<geode::Task<bool, std::__ndk1::monostate>::setListener(geode::EventListenerProtocol*)::{lambda()#1}>, void ()>::destroy()
PUBLIC 32d78 0 std::__ndk1::__function::__func<geode::Task<bool, std::__ndk1::monostate>::setListener(geode::EventListenerProtocol*)::{lambda()#1}, std::__ndk1::allocator<geode::Task<bool, std::__ndk1::monostate>::setListener(geode::EventListenerProtocol*)::{lambda()#1}>, void ()>::destroy_deallocate()
PUBLIC 32dd8 0 std::__ndk1::__function::__func<geode::Task<bool, std::__ndk1::monostate>::setListener(geode::EventListenerProtocol*)::{lambda()#1}, std::__ndk1::allocator<geode::Task<bool, std::__ndk1::monostate>::setListener(geode::EventListenerProtocol*)::{lambda()#1}>, void ()>::operator()()
PUBLIC 32fa8 0 std::__ndk1::__function::__func<geode::Task<bool, std::__ndk1::monostate>::setListener(geode::EventListenerProtocol*)::{lambda()#1}, std::__ndk1::allocator<geode::Task<bool, std::__ndk1::monostate>::setListener(geode::EventListenerProtocol*)::{lambda()#1}>, void ()>::target(std::type_info const&) const
PUBLIC 32fc4 0 std::__ndk1::__function::__func<geode::Task<bool, std::__ndk1::monostate>::setListener(geode::EventListenerProtocol*)::{lambda()#1}, std::__ndk1::allocator<geode::Task<bool, std::__ndk1::monostate>::setListener(geode::EventListenerProtocol*)::{lambda()#1}>, void ()>::target_type() const
PUBLIC 32fd0 0 geode::Task<bool, std::__ndk1::monostate>::Event::~Event()
PUBLIC 33030 0 geode::Task<bool, std::__ndk1::monostate>::Event::~Event()
PUBLIC 330a0 0 std::__ndk1::__function::__func<geode::Task<bool, std::__ndk1::monostate>::setListener(geode::EventListenerProtocol*)::{lambda()#2}, std::__ndk1::allocator<geode::Task<bool, std::__ndk1::monostate>::setListener(geode::EventListenerProtocol*)::{lambda()#2}>, void ()>::~__func()
PUBLIC 330fc 0 std::__ndk1::__function::__func<geode::Task<bool, std::__ndk1::monostate>::setListener(geode::EventListenerProtocol*)::{lambda()#2}, std::__ndk1::allocator<geode::Task<bool, std::__ndk1::monostate>::setListener(geode::EventListenerProtocol*)::{lambda()#2}>, void ()>::~__func()
PUBLIC 33168 0 std::__ndk1::__function::__func<geode::Task<bool, std::__ndk1::monostate>::setListener(geode::EventListenerProtocol*)::{lambda()#2}, std::__ndk1::allocator<geode::Task<bool, std::__ndk1::monostate>::setListener(geode::EventListenerProtocol*)::{lambda()#2}>, void ()>::__clone() const
PUBLIC 331c0 0 std::__ndk1::__function::__func<geode::Task<bool, std::__ndk1::monostate>::setListener(geode::EventListenerProtocol*)::{lambda()#2}, std::__ndk1::allocator<geode::Task<bool, std::__ndk1::monostate>::setListener(geode::EventListenerProtocol*)::{lambda()#2}>, void ()>::__clone(std::__ndk1::__function::__base<void ()>*) const
PUBLIC 3320c 0 std::__ndk1::__function::__func<geode::Task<bool, std::__ndk1::monostate>::setListener(geode::EventListenerProtocol*)::{lambda()#2}, std::__ndk1::allocator<geode::Task<bool, std::__ndk1::monostate>::setListener(geode::EventListenerProtocol*)::{lambda()#2}>, void ()>::destroy()
PUBLIC 3325c 0 std::__ndk1::__function::__func<geode::Task<bool, std::__ndk1::monostate>::setListener(geode::EventListenerProtocol*)::{lambda()#2}, std::__ndk1::allocator<geode::Task<bool, std::__ndk1::monostate>::setListener(geode::EventListenerProtocol*)::{lambda()#2}>, void ()>::destroy_deallocate()
PUBLIC 332bc 0 std::__ndk1::__function::__func<geode::Task<bool, std::__ndk1::monostate>::setListener(geode::EventListenerProtocol*)::{lambda()#2}, std::__ndk1::allocator<geode::Task<bool, std::__ndk1::monostate>::setListener(geode::EventListenerProtocol*)::{lambda()#2}>, void ()>::operator()()
PUBLIC 33480 0 std::__ndk1::__function::__func<geode::Task<bool, std::__ndk1::monostate>::setListener(geode::EventListenerProtocol*)::{lambda()#2}, std::__ndk1::allocator<geode::Task<bool, std::__ndk1::monostate>::setListener(geode::EventListenerProtocol*)::{lambda()#2}>, void ()>::target(std::type_info const&) const
PUBLIC 3349c 0 std::__ndk1::__function::__func<geode::Task<bool, std::__ndk1::monostate>::setListener(geode::EventListenerProtocol*)::{lambda()#2}, std::__ndk1::allocator<geode::Task<bool, std::__ndk1::monostate>::setListener(geode::EventListenerProtocol*)::{lambda()#2}>, void ()>::target_type() const
PUBLIC 334a8 0 std::__ndk1::__throw_bad_function_call[abi:ne180000]()
PUBLIC 334dc 0 std::__ndk1::bad_function_call::~bad_function_call()
PUBLIC 33500 0 std::__ndk1::__function::__value_func<void (geode::Task<bool, std::__ndk1::monostate>::Event*)>::swap[abi:ne180000](std::__ndk1::__function::__value_func<void (geode::Task<bool, std::__ndk1::monostate>::Event*)>&)
PUBLIC 33698 0 _ZNSt6__ndk110__function6__funcIZNK5geode4TaskIbNS_9monostateEE6listenIZZZ16showDelayedPopupRKNS_12basic_stringIcNS_11char_traitsIcEENS_9allocatorIcEEEEENK3$_0clEvENKUlvE_clEvEUlbE_ZNKS5_6listenISH_EEvOT_EUlRKSJ_E_ZNKSI_ISH_EEvSK_EUlvE_EEvSK_OT0_OT1_EUlPNS5_5EventEE_NSA_ISV_EEFvSU_EED0Ev
PUBLIC 3369c 0 _ZNKSt6__ndk110__function6__funcIZNK5geode4TaskIbNS_9monostateEE6listenIZZZ16showDelayedPopupRKNS_12basic_stringIcNS_11char_traitsIcEENS_9allocatorIcEEEEENK3$_0clEvENKUlvE_clEvEUlbE_ZNKS5_6listenISH_EEvOT_EUlRKSJ_E_ZNKSI_ISH_EEvSK_EUlvE_EEvSK_OT0_OT1_EUlPNS5_5EventEE_NSA_ISV_EEFvSU_EE7__cloneEv
PUBLIC 336d4 0 _ZNKSt6__ndk110__function6__funcIZNK5geode4TaskIbNS_9monostateEE6listenIZZZ16showDelayedPopupRKNS_12basic_stringIcNS_11char_traitsIcEENS_9allocatorIcEEEEENK3$_0clEvENKUlvE_clEvEUlbE_ZNKS5_6listenISH_EEvOT_EUlRKSJ_E_ZNKSI_ISH_EEvSK_EUlvE_EEvSK_OT0_OT1_EUlPNS5_5EventEE_NSA_ISV_EEFvSU_EE7__cloneEPNS0_6__baseISX_EE
PUBLIC 336ec 0 _ZNSt6__ndk110__function6__funcIZNK5geode4TaskIbNS_9monostateEE6listenIZZZ16showDelayedPopupRKNS_12basic_stringIcNS_11char_traitsIcEENS_9allocatorIcEEEEENK3$_0clEvENKUlvE_clEvEUlbE_ZNKS5_6listenISH_EEvOT_EUlRKSJ_E_ZNKSI_ISH_EEvSK_EUlvE_EEvSK_OT0_OT1_EUlPNS5_5EventEE_NSA_ISV_EEFvSU_EE7destroyEv
PUBLIC 336f0 0 _ZNSt6__ndk110__function6__funcIZNK5geode4TaskIbNS_9monostateEE6listenIZZZ16showDelayedPopupRKNS_12basic_stringIcNS_11char_traitsIcEENS_9allocatorIcEEEEENK3$_0clEvENKUlvE_clEvEUlbE_ZNKS5_6listenISH_EEvOT_EUlRKSJ_E_ZNKSI_ISH_EEvSK_EUlvE_EEvSK_OT0_OT1_EUlPNS5_5EventEE_NSA_ISV_EEFvSU_EE18destroy_deallocateEv
PUBLIC 336f4 0 _ZNSt6__ndk110__function6__funcIZNK5geode4TaskIbNS_9monostateEE6listenIZZZ16showDelayedPopupRKNS_12basic_stringIcNS_11char_traitsIcEENS_9allocatorIcEEEEENK3$_0clEvENKUlvE_clEvEUlbE_ZNKS5_6listenISH_EEvOT_EUlRKSJ_E_ZNKSI_ISH_EEvSK_EUlvE_EEvSK_OT0_OT1_EUlPNS5_5EventEE_NSA_ISV_EEFvSU_EEclEOSU_
PUBLIC 33880 0 _ZNKSt6__ndk110__function6__funcIZNK5geode4TaskIbNS_9monostateEE6listenIZZZ16showDelayedPopupRKNS_12basic_stringIcNS_11char_traitsIcEENS_9allocatorIcEEEEENK3$_0clEvENKUlvE_clEvEUlbE_ZNKS5_6listenISH_EEvOT_EUlRKSJ_E_ZNKSI_ISH_EEvSK_EUlvE_EEvSK_OT0_OT1_EUlPNS5_5EventEE_NSA_ISV_EEFvSU_EE6targetERKSt9type_info
PUBLIC 3389c 0 _ZNKSt6__ndk110__function6__funcIZNK5geode4TaskIbNS_9monostateEE6listenIZZZ16showDelayedPopupRKNS_12basic_stringIcNS_11char_traitsIcEENS_9allocatorIcEEEEENK3$_0clEvENKUlvE_clEvEUlbE_ZNKS5_6listenISH_EEvOT_EUlRKSJ_E_ZNKSI_ISH_EEvSK_EUlvE_EEvSK_OT0_OT1_EUlPNS5_5EventEE_NSA_ISV_EEFvSU_EE11target_typeEv
PUBLIC 338a8 0 std::__ndk1::__throw_bad_variant_access[abi:ne180000]()
PUBLIC 338dc 0 _ZNSt6__ndk110__function6__funcIZZNK5geode4TaskIbNS_9monostateEE6listenIZZZ16showDelayedPopupRKNS_12basic_stringIcNS_11char_traitsIcEENS_9allocatorIcEEEEENK3$_0clEvENKUlvE_clEvEUlbE_ZNKS5_6listenISH_EEvOT_EUlRKSJ_E_ZNKSI_ISH_EEvSK_EUlvE_EEvSK_OT0_OT1_ENUlPNS5_5EventEE_clESU_EUlvE_NSA_ISW_EEFvvEED0Ev
PUBLIC 338e0 0 _ZNKSt6__ndk110__function6__funcIZZNK5geode4TaskIbNS_9monostateEE6listenIZZZ16showDelayedPopupRKNS_12basic_stringIcNS_11char_traitsIcEENS_9allocatorIcEEEEENK3$_0clEvENKUlvE_clEvEUlbE_ZNKS5_6listenISH_EEvOT_EUlRKSJ_E_ZNKSI_ISH_EEvSK_EUlvE_EEvSK_OT0_OT1_ENUlPNS5_5EventEE_clESU_EUlvE_NSA_ISW_EEFvvEE7__cloneEv
PUBLIC 33914 0 _ZNKSt6__ndk110__function6__funcIZZNK5geode4TaskIbNS_9monostateEE6listenIZZZ16showDelayedPopupRKNS_12basic_stringIcNS_11char_traitsIcEENS_9allocatorIcEEEEENK3$_0clEvENKUlvE_clEvEUlbE_ZNKS5_6listenISH_EEvOT_EUlRKSJ_E_ZNKSI_ISH_EEvSK_EUlvE_EEvSK_OT0_OT1_ENUlPNS5_5EventEE_clESU_EUlvE_NSA_ISW_EEFvvEE7__cloneEPNS0_6__baseISY_EE
PUBLIC 33928 0 _ZNSt6__ndk110__function6__funcIZZNK5geode4TaskIbNS_9monostateEE6listenIZZZ16showDelayedPopupRKNS_12basic_stringIcNS_11char_traitsIcEENS_9allocatorIcEEEEENK3$_0clEvENKUlvE_clEvEUlbE_ZNKS5_6listenISH_EEvOT_EUlRKSJ_E_ZNKSI_ISH_EEvSK_EUlvE_EEvSK_OT0_OT1_ENUlPNS5_5EventEE_clESU_EUlvE_NSA_ISW_EEFvvEE7destroyEv
PUBLIC 3392c 0 _ZNSt6__ndk110__function6__funcIZZNK5geode4TaskIbNS_9monostateEE6listenIZZZ16showDelayedPopupRKNS_12basic_stringIcNS_11char_traitsIcEENS_9allocatorIcEEEEENK3$_0clEvENKUlvE_clEvEUlbE_ZNKS5_6listenISH_EEvOT_EUlRKSJ_E_ZNKSI_ISH_EEvSK_EUlvE_EEvSK_OT0_OT1_ENUlPNS5_5EventEE_clESU_EUlvE_NSA_ISW_EEFvvEE18destroy_deallocateEv
PUBLIC 33930 0 _ZNSt6__ndk110__function6__funcIZZNK5geode4TaskIbNS_9monostateEE6listenIZZZ16showDelayedPopupRKNS_12basic_stringIcNS_11char_traitsIcEENS_9allocatorIcEEEEENK3$_0clEvENKUlvE_clEvEUlbE_ZNKS5_6listenISH_EEvOT_EUlRKSJ_E_ZNKSI_ISH_EEvSK_EUlvE_EEvSK_OT0_OT1_ENUlPNS5_5EventEE_clESU_EUlvE_NSA_ISW_EEFvvEEclEv
PUBLIC 33948 0 _ZNKSt6__ndk110__function6__funcIZZNK5geode4TaskIbNS_9monostateEE6listenIZZZ16showDelayedPopupRKNS_12basic_stringIcNS_11char_traitsIcEENS_9allocatorIcEEEEENK3$_0clEvENKUlvE_clEvEUlbE_ZNKS5_6listenISH_EEvOT_EUlRKSJ_E_ZNKSI_ISH_EEvSK_EUlvE_EEvSK_OT0_OT1_ENUlPNS5_5EventEE_clESU_EUlvE_NSA_ISW_EEFvvEE6targetERKSt9type_info
PUBLIC 33964 0 _ZNKSt6__ndk110__function6__funcIZZNK5geode4TaskIbNS_9monostateEE6listenIZZZ16showDelayedPopupRKNS_12basic_stringIcNS_11char_traitsIcEENS_9allocatorIcEEEEENK3$_0clEvENKUlvE_clEvEUlbE_ZNKS5_6listenISH_EEvOT_EUlRKSJ_E_ZNKSI_ISH_EEvSK_EUlvE_EEvSK_OT0_OT1_ENUlPNS5_5EventEE_clESU_EUlvE_NSA_ISW_EEFvvEE11target_typeEv
PUBLIC 33970 0 std::__ndk1::__function::__func<geodeExecFunction57<(anonymous namespace)::ExecFuncUnique57>(geode::ModStateEvent*)::{lambda(MenuLayer*)#1}, std::__ndk1::allocator<geodeExecFunction57<(anonymous namespace)::ExecFuncUnique57>(geode::ModStateEvent*)::{lambda(MenuLayer*)#1}>, void (MenuLayer*)>::~__func()
PUBLIC 33974 0 std::__ndk1::__function::__func<geodeExecFunction57<(anonymous namespace)::ExecFuncUnique57>(geode::ModStateEvent*)::{lambda(MenuLayer*)#1}, std::__ndk1::allocator<geodeExecFunction57<(anonymous namespace)::ExecFuncUnique57>(geode::ModStateEvent*)::{lambda(MenuLayer*)#1}>, void (MenuLayer*)>::__clone() const
PUBLIC 33998 0 std::__ndk1::__function::__func<geodeExecFunction57<(anonymous namespace)::ExecFuncUnique57>(geode::ModStateEvent*)::{lambda(MenuLayer*)#1}, std::__ndk1::allocator<geodeExecFunction57<(anonymous namespace)::ExecFuncUnique57>(geode::ModStateEvent*)::{lambda(MenuLayer*)#1}>, void (MenuLayer*)>::__clone(std::__ndk1::__function::__base<void (MenuLayer*)>*) const
PUBLIC 339a8 0 std::__ndk1::__function::__func<geodeExecFunction57<(anonymous namespace)::ExecFuncUnique57>(geode::ModStateEvent*)::{lambda(MenuLayer*)#1}, std::__ndk1::allocator<geodeExecFunction57<(anonymous namespace)::ExecFuncUnique57>(geode::ModStateEvent*)::{lambda(MenuLayer*)#1}>, void (MenuLayer*)>::destroy()
PUBLIC 339ac 0 std::__ndk1::__function::__func<geodeExecFunction57<(anonymous namespace)::ExecFuncUnique57>(geode::ModStateEvent*)::{lambda(MenuLayer*)#1}, std::__ndk1::allocator<geodeExecFunction57<(anonymous namespace)::ExecFuncUnique57>(geode::ModStateEvent*)::{lambda(MenuLayer*)#1}>, void (MenuLayer*)>::destroy_deallocate()
PUBLIC 339b0 0 std::__ndk1::__function::__func<geodeExecFunction57<(anonymous namespace)::ExecFuncUnique57>(geode::ModStateEvent*)::{lambda(MenuLayer*)#1}, std::__ndk1::allocator<geodeExecFunction57<(anonymous namespace)::ExecFuncUnique57>(geode::ModStateEvent*)::{lambda(MenuLayer*)#1}>, void (MenuLayer*)>::operator()(MenuLayer*&&)
PUBLIC 33e30 0 std::__ndk1::__function::__func<geodeExecFunction57<(anonymous namespace)::ExecFuncUnique57>(geode::ModStateEvent*)::{lambda(MenuLayer*)#1}, std::__ndk1::allocator<geodeExecFunction57<(anonymous namespace)::ExecFuncUnique57>(geode::ModStateEvent*)::{lambda(MenuLayer*)#1}>, void (MenuLayer*)>::target(std::type_info const&) const
PUBLIC 33e4c 0 std::__ndk1::__function::__func<geodeExecFunction57<(anonymous namespace)::ExecFuncUnique57>(geode::ModStateEvent*)::{lambda(MenuLayer*)#1}, std::__ndk1::allocator<geodeExecFunction57<(anonymous namespace)::ExecFuncUnique57>(geode::ModStateEvent*)::{lambda(MenuLayer*)#1}>, void (MenuLayer*)>::target_type() const
PUBLIC 33e58 0 geode::impl::ResultData<matjson::Value&, std::__ndk1::basic_string<char, std::__ndk1::char_traits<char>, std::__ndk1::allocator<char> > >::~ResultData()
PUBLIC 33ecc 0 std::__ndk1::__variant_detail::__visitation::__base::__dispatcher<(unsigned long)0>::__dispatch[abi:ne180000]<std::__ndk1::__variant_detail::__dtor<std::__ndk1::__variant_detail::__traits<std::__ndk1::reference_wrapper<matjson::Value>, std::__ndk1::basic_string<char, std::__ndk1::char_traits<char>, std::__ndk1::allocator<char> > >, (std::__ndk1::__variant_detail::_Trait)1>::__destroy[abi:ne180000]()::{lambda(auto:1&)#1}, std::__ndk1::__variant_detail::__base<(std::__ndk1::__variant_detail::__traits<std::__ndk1::reference_wrapper<matjson::Value>, std::__ndk1::basic_string<char, std::__ndk1::char_traits<char>, std::__ndk1::allocator<char> > >)1, matjson::Value, std::__ndk1::allocator<char> >&>(std::__ndk1::__variant_detail::__dtor<std::__ndk1::__variant_detail::__traits<std::__ndk1::reference_wrapper<matjson::Value>, std::__ndk1::basic_string<char, std::__ndk1::char_traits<char>, std::__ndk1::allocator<char> > >, (std::__ndk1::__variant_detail::_Trait)1>, std::__ndk1::__variant_detail::__base<(std::__ndk1::__variant_detail::__traits<std::__ndk1::reference_wrapper<matjson::Value>, std::__ndk1::basic_string<char, std::__ndk1::char_traits<char>, std::__ndk1::allocator<char> > >)1, matjson::Value, std::__ndk1::allocator<char> >&)
PUBLIC 33ed0 0 std::__ndk1::__variant_detail::__visitation::__base::__dispatcher<(unsigned long)1>::__dispatch[abi:ne180000]<std::__ndk1::__variant_detail::__dtor<std::__ndk1::__variant_detail::__traits<std::__ndk1::reference_wrapper<matjson::Value>, std::__ndk1::basic_string<char, std::__ndk1::char_traits<char>, std::__ndk1::allocator<char> > >, (std::__ndk1::__variant_detail::_Trait)1>::__destroy[abi:ne180000]()::{lambda(auto:1&)#1}, std::__ndk1::__variant_detail::__base<(std::__ndk1::__variant_detail::__traits<std::__ndk1::reference_wrapper<matjson::Value>, std::__ndk1::basic_string<char, std::__ndk1::char_traits<char>, std::__ndk1::allocator<char> > >)1, matjson::Value, std::__ndk1::allocator<char> >&>(std::__ndk1::__variant_detail::__dtor<std::__ndk1::__variant_detail::__traits<std::__ndk1::reference_wrapper<matjson::Value>, std::__ndk1::basic_string<char, std::__ndk1::char_traits<char>, std::__ndk1::allocator<char> > >, (std::__ndk1::__variant_detail::_Trait)1>, std::__ndk1::__variant_detail::__base<(std::__ndk1::__variant_detail::__traits<std::__ndk1::reference_wrapper<matjson::Value>, std::__ndk1::basic_string<char, std::__ndk1::char_traits<char>, std::__ndk1::allocator<char> > >)1, matjson::Value, std::__ndk1::allocator<char> >&)
PUBLIC 33ee4 0 std::__ndk1::__variant_detail::__visitation::__base::__dispatcher<(unsigned long)0>::__dispatch[abi:ne180000]<std::__ndk1::__variant_detail::__dtor<std::__ndk1::__variant_detail::__traits<bool, std::__ndk1::basic_string<char, std::__ndk1::char_traits<char>, std::__ndk1::allocator<char> > >, (std::__ndk1::__variant_detail::_Trait)1>::__destroy[abi:ne180000]()::{lambda(auto:1&)#1}, std::__ndk1::__variant_detail::__base<(std::__ndk1::__variant_detail::__traits<bool, std::__ndk1::basic_string<char, std::__ndk1::char_traits<char>, std::__ndk1::allocator<char> > >)1, bool, std::__ndk1::allocator<char> >&>(std::__ndk1::__variant_detail::__dtor<std::__ndk1::__variant_detail::__traits<bool, std::__ndk1::basic_string<char, std::__ndk1::char_traits<char>, std::__ndk1::allocator<char> > >, (std::__ndk1::__variant_detail::_Trait)1>, std::__ndk1::__variant_detail::__base<(std::__ndk1::__variant_detail::__traits<bool, std::__ndk1::basic_string<char, std::__ndk1::char_traits<char>, std::__ndk1::allocator<char> > >)1, bool, std::__ndk1::allocator<char> >&)
PUBLIC 33ee8 0 std::__ndk1::__variant_detail::__visitation::__base::__dispatcher<(unsigned long)1>::__dispatch[abi:ne180000]<std::__ndk1::__variant_detail::__dtor<std::__ndk1::__variant_detail::__traits<bool, std::__ndk1::basic_string<char, std::__ndk1::char_traits<char>, std::__ndk1::allocator<char> > >, (std::__ndk1::__variant_detail::_Trait)1>::__destroy[abi:ne180000]()::{lambda(auto:1&)#1}, std::__ndk1::__variant_detail::__base<(std::__ndk1::__variant_detail::__traits<bool, std::__ndk1::basic_string<char, std::__ndk1::char_traits<char>, std::__ndk1::allocator<char> > >)1, bool, std::__ndk1::allocator<char> >&>(std::__ndk1::__variant_detail::__dtor<std::__ndk1::__variant_detail::__traits<bool, std::__ndk1::basic_string<char, std::__ndk1::char_traits<char>, std::__ndk1::allocator<char> > >, (std::__ndk1::__variant_detail::_Trait)1>, std::__ndk1::__variant_detail::__base<(std::__ndk1::__variant_detail::__traits<bool, std::__ndk1::basic_string<char, std::__ndk1::char_traits<char>, std::__ndk1::allocator<char> > >)1, bool, std::__ndk1::allocator<char> >&)
PUBLIC 33efc 0 std::__ndk1::__variant_detail::__visitation::__base::__dispatcher<(unsigned long)0>::__dispatch[abi:ne180000]<std::__ndk1::__variant_detail::__dtor<std::__ndk1::__variant_detail::__traits<geode::VersionInfo, std::__ndk1::basic_string<char, std::__ndk1::char_traits<char>, std::__ndk1::allocator<char> > >, (std::__ndk1::__variant_detail::_Trait)1>::__destroy[abi:ne180000]()::{lambda(auto:1&)#1}, std::__ndk1::__variant_detail::__base<(std::__ndk1::__variant_detail::__traits<geode::VersionInfo, std::__ndk1::basic_string<char, std::__ndk1::char_traits<char>, std::__ndk1::allocator<char> > >)1, geode, std::__ndk1::allocator<char> >&>(std::__ndk1::__variant_detail::__dtor<std::__ndk1::__variant_detail::__traits<geode::VersionInfo, std::__ndk1::basic_string<char, std::__ndk1::char_traits<char>, std::__ndk1::allocator<char> > >, (std::__ndk1::__variant_detail::_Trait)1>, std::__ndk1::__variant_detail::__base<(std::__ndk1::__variant_detail::__traits<geode::VersionInfo, std::__ndk1::basic_string<char, std::__ndk1::char_traits<char>, std::__ndk1::allocator<char> > >)1, geode, std::__ndk1::allocator<char> >&)
PUBLIC 33f00 0 std::__ndk1::__variant_detail::__visitation::__base::__dispatcher<(unsigned long)1>::__dispatch[abi:ne180000]<std::__ndk1::__variant_detail::__dtor<std::__ndk1::__variant_detail::__traits<geode::VersionInfo, std::__ndk1::basic_string<char, std::__ndk1::char_traits<char>, std::__ndk1::allocator<char> > >, (std::__ndk1::__variant_detail::_Trait)1>::__destroy[abi:ne180000]()::{lambda(auto:1&)#1}, std::__ndk1::__variant_detail::__base<(std::__ndk1::__variant_detail::__traits<geode::VersionInfo, std::__ndk1::basic_string<char, std::__ndk1::char_traits<char>, std::__ndk1::allocator<char> > >)1, geode, std::__ndk1::allocator<char> >&>(std::__ndk1::__variant_detail::__dtor<std::__ndk1::__variant_detail::__traits<geode::VersionInfo, std::__ndk1::basic_string<char, std::__ndk1::char_traits<char>, std::__ndk1::allocator<char> > >, (std::__ndk1::__variant_detail::_Trait)1>, std::__ndk1::__variant_detail::__base<(std::__ndk1::__variant_detail::__traits<geode::VersionInfo, std::__ndk1::basic_string<char, std::__ndk1::char_traits<char>, std::__ndk1::allocator<char> > >)1, geode, std::__ndk1::allocator<char> >&)
PUBLIC 33f14 0 std::__ndk1::__function::__func<geodeExecFunction57<(anonymous namespace)::ExecFuncUnique57>(geode::ModStateEvent*)::{lambda(MenuLayer*)#1}::operator()(MenuLayer*) const::{lambda()#1}, std::__ndk1::allocator<geodeExecFunction57<(anonymous namespace)::ExecFuncUnique57>(geode::ModStateEvent*)::{lambda(MenuLayer*)#1}::operator()(MenuLayer*) const::{lambda()#1}>, void ()>::~__func()
PUBLIC 33f18 0 std::__ndk1::__function::__func<geodeExecFunction57<(anonymous namespace)::ExecFuncUnique57>(geode::ModStateEvent*)::{lambda(MenuLayer*)#1}::operator()(MenuLayer*) const::{lambda()#1}, std::__ndk1::allocator<geodeExecFunction57<(anonymous namespace)::ExecFuncUnique57>(geode::ModStateEvent*)::{lambda(MenuLayer*)#1}::operator()(MenuLayer*) const::{lambda()#1}>, void ()>::__clone() const
PUBLIC 33f3c 0 std::__ndk1::__function::__func<geodeExecFunction57<(anonymous namespace)::ExecFuncUnique57>(geode::ModStateEvent*)::{lambda(MenuLayer*)#1}::operator()(MenuLayer*) const::{lambda()#1}, std::__ndk1::allocator<geodeExecFunction57<(anonymous namespace)::ExecFuncUnique57>(geode::ModStateEvent*)::{lambda(MenuLayer*)#1}::operator()(MenuLayer*) const::{lambda()#1}>, void ()>::__clone(std::__ndk1::__function::__base<void ()>*) const
PUBLIC 33f4c 0 std::__ndk1::__function::__func<geodeExecFunction57<(anonymous namespace)::ExecFuncUnique57>(geode::ModStateEvent*)::{lambda(MenuLayer*)#1}::operator()(MenuLayer*) const::{lambda()#1}, std::__ndk1::allocator<geodeExecFunction57<(anonymous namespace)::ExecFuncUnique57>(geode::ModStateEvent*)::{lambda(MenuLayer*)#1}::operator()(MenuLayer*) const::{lambda()#1}>, void ()>::destroy()
PUBLIC 33f50 0 std::__ndk1::__function::__func<geodeExecFunction57<(anonymous namespace)::ExecFuncUnique57>(geode::ModStateEvent*)::{lambda(MenuLayer*)#1}::operator()(MenuLayer*) const::{lambda()#1}, std::__ndk1::allocator<geodeExecFunction57<(anonymous namespace)::ExecFuncUnique57>(geode::ModStateEvent*)::{lambda(MenuLayer*)#1}::operator()(MenuLayer*) const::{lambda()#1}>, void ()>::destroy_deallocate()
PUBLIC 33f54 0 std::__ndk1::__function::__func<geodeExecFunction57<(anonymous namespace)::ExecFuncUnique57>(geode::ModStateEvent*)::{lambda(MenuLayer*)#1}::operator()(MenuLayer*) const::{lambda()#1}, std::__ndk1::allocator<geodeExecFunction57<(anonymous namespace)::ExecFuncUnique57>(geode::ModStateEvent*)::{lambda(MenuLayer*)#1}::operator()(MenuLayer*) const::{lambda()#1}>, void ()>::operator()()
PUBLIC 340c4 0 std::__ndk1::__function::__func<geodeExecFunction57<(anonymous namespace)::ExecFuncUnique57>(geode::ModStateEvent*)::{lambda(MenuLayer*)#1}::operator()(MenuLayer*) const::{lambda()#1}, std::__ndk1::allocator<geodeExecFunction57<(anonymous namespace)::ExecFuncUnique57>(geode::ModStateEvent*)::{lambda(MenuLayer*)#1}::operator()(MenuLayer*) const::{lambda()#1}>, void ()>::target(std::type_info const&) const
PUBLIC 340e0 0 std::__ndk1::__function::__func<geodeExecFunction57<(anonymous namespace)::ExecFuncUnique57>(geode::ModStateEvent*)::{lambda(MenuLayer*)#1}::operator()(MenuLayer*) const::{lambda()#1}, std::__ndk1::allocator<geodeExecFunction57<(anonymous namespace)::ExecFuncUnique57>(geode::ModStateEvent*)::{lambda(MenuLayer*)#1}::operator()(MenuLayer*) const::{lambda()#1}>, void ()>::target_type() const
PUBLIC 340ec 0 std::__ndk1::__function::__func<geodeExecFunction57<(anonymous namespace)::ExecFuncUnique57>(geode::ModStateEvent*)::{lambda(MenuLayer*)#1}::operator()(MenuLayer*) const::{lambda()#1}::operator()() const::{lambda(auto:1, bool)#1}, std::__ndk1::allocator<geodeExecFunction57<(anonymous namespace)::ExecFuncUnique57>(geode::ModStateEvent*)::{lambda(MenuLayer*)#1}::operator()(MenuLayer*) const::{lambda()#1}::operator()() const::{lambda(auto:1, bool)#1}>, void (FLAlertLayer*, bool)>::~__func()
PUBLIC 340f0 0 std::__ndk1::__function::__func<geodeExecFunction57<(anonymous namespace)::ExecFuncUnique57>(geode::ModStateEvent*)::{lambda(MenuLayer*)#1}::operator()(MenuLayer*) const::{lambda()#1}::operator()() const::{lambda(auto:1, bool)#1}, std::__ndk1::allocator<geodeExecFunction57<(anonymous namespace)::ExecFuncUnique57>(geode::ModStateEvent*)::{lambda(MenuLayer*)#1}::operator()(MenuLayer*) const::{lambda()#1}::operator()() const::{lambda(auto:1, bool)#1}>, void (FLAlertLayer*, bool)>::__clone() const
PUBLIC 34114 0 std::__ndk1::__function::__func<geodeExecFunction57<(anonymous namespace)::ExecFuncUnique57>(geode::ModStateEvent*)::{lambda(MenuLayer*)#1}::operator()(MenuLayer*) const::{lambda()#1}::operator()() const::{lambda(auto:1, bool)#1}, std::__ndk1::allocator<geodeExecFunction57<(anonymous namespace)::ExecFuncUnique57>(geode::ModStateEvent*)::{lambda(MenuLayer*)#1}::operator()(MenuLayer*) const::{lambda()#1}::operator()() const::{lambda(auto:1, bool)#1}>, void (FLAlertLayer*, bool)>::__clone(std::__ndk1::__function::__base<void (FLAlertLayer*, bool)>*) const
PUBLIC 34124 0 std::__ndk1::__function::__func<geodeExecFunction57<(anonymous namespace)::ExecFuncUnique57>(geode::ModStateEvent*)::{lambda(MenuLayer*)#1}::operator()(MenuLayer*) const::{lambda()#1}::operator()() const::{lambda(auto:1, bool)#1}, std::__ndk1::allocator<geodeExecFunction57<(anonymous namespace)::ExecFuncUnique57>(geode::ModStateEvent*)::{lambda(MenuLayer*)#1}::operator()(MenuLayer*) const::{lambda()#1}::operator()() const::{lambda(auto:1, bool)#1}>, void (FLAlertLayer*, bool)>::destroy()
PUBLIC 34128 0 std::__ndk1::__function::__func<geodeExecFunction57<(anonymous namespace)::ExecFuncUnique57>(geode::ModStateEvent*)::{lambda(MenuLayer*)#1}::operator()(MenuLayer*) const::{lambda()#1}::operator()() const::{lambda(auto:1, bool)#1}, std::__ndk1::allocator<geodeExecFunction57<(anonymous namespace)::ExecFuncUnique57>(geode::ModStateEvent*)::{lambda(MenuLayer*)#1}::operator()(MenuLayer*) const::{lambda()#1}::operator()() const::{lambda(auto:1, bool)#1}>, void (FLAlertLayer*, bool)>::destroy_deallocate()
PUBLIC 3412c 0 std::__ndk1::__function::__func<geodeExecFunction57<(anonymous namespace)::ExecFuncUnique57>(geode::ModStateEvent*)::{lambda(MenuLayer*)#1}::operator()(MenuLayer*) const::{lambda()#1}::operator()() const::{lambda(auto:1, bool)#1}, std::__ndk1::allocator<geodeExecFunction57<(anonymous namespace)::ExecFuncUnique57>(geode::ModStateEvent*)::{lambda(MenuLayer*)#1}::operator()(MenuLayer*) const::{lambda()#1}::operator()() const::{lambda(auto:1, bool)#1}>, void (FLAlertLayer*, bool)>::operator()(FLAlertLayer*&&, bool&&)
PUBLIC 343a4 0 std::__ndk1::__function::__func<geodeExecFunction57<(anonymous namespace)::ExecFuncUnique57>(geode::ModStateEvent*)::{lambda(MenuLayer*)#1}::operator()(MenuLayer*) const::{lambda()#1}::operator()() const::{lambda(auto:1, bool)#1}, std::__ndk1::allocator<geodeExecFunction57<(anonymous namespace)::ExecFuncUnique57>(geode::ModStateEvent*)::{lambda(MenuLayer*)#1}::operator()(MenuLayer*) const::{lambda()#1}::operator()() const::{lambda(auto:1, bool)#1}>, void (FLAlertLayer*, bool)>::target(std::type_info const&) const
PUBLIC 343c0 0 std::__ndk1::__function::__func<geodeExecFunction57<(anonymous namespace)::ExecFuncUnique57>(geode::ModStateEvent*)::{lambda(MenuLayer*)#1}::operator()(MenuLayer*) const::{lambda()#1}::operator()() const::{lambda(auto:1, bool)#1}, std::__ndk1::allocator<geodeExecFunction57<(anonymous namespace)::ExecFuncUnique57>(geode::ModStateEvent*)::{lambda(MenuLayer*)#1}::operator()(MenuLayer*) const::{lambda()#1}::operator()() const::{lambda(auto:1, bool)#1}>, void (FLAlertLayer*, bool)>::target_type() const
PUBLIC 343cc 0 std::__ndk1::__function::__func<geodeExecFunction57<(anonymous namespace)::ExecFuncUnique57>(geode::ModStateEvent*)::{lambda(MenuLayer*)#1}::operator()(MenuLayer*) const::{lambda()#1}::operator()() const::{lambda(auto:1, bool)#1}::operator()<FLAlertLayer*>(FLAlertLayer*, bool) const::{lambda()#1}, std::__ndk1::allocator<geodeExecFunction57<(anonymous namespace)::ExecFuncUnique57>(geode::ModStateEvent*)::{lambda(MenuLayer*)#1}::operator()(MenuLayer*) const::{lambda()#1}::operator()() const::{lambda(auto:1, bool)#1}::operator()<FLAlertLayer*>(FLAlertLayer*, bool) const::{lambda()#1}>, void ()>::~__func()
PUBLIC 343d0 0 std::__ndk1::__function::__func<geodeExecFunction57<(anonymous namespace)::ExecFuncUnique57>(geode::ModStateEvent*)::{lambda(MenuLayer*)#1}::operator()(MenuLayer*) const::{lambda()#1}::operator()() const::{lambda(auto:1, bool)#1}::operator()<FLAlertLayer*>(FLAlertLayer*, bool) const::{lambda()#1}, std::__ndk1::allocator<geodeExecFunction57<(anonymous namespace)::ExecFuncUnique57>(geode::ModStateEvent*)::{lambda(MenuLayer*)#1}::operator()(MenuLayer*) const::{lambda()#1}::operator()() const::{lambda(auto:1, bool)#1}::operator()<FLAlertLayer*>(FLAlertLayer*, bool) const::{lambda()#1}>, void ()>::__clone() const
PUBLIC 343f4 0 std::__ndk1::__function::__func<geodeExecFunction57<(anonymous namespace)::ExecFuncUnique57>(geode::ModStateEvent*)::{lambda(MenuLayer*)#1}::operator()(MenuLayer*) const::{lambda()#1}::operator()() const::{lambda(auto:1, bool)#1}::operator()<FLAlertLayer*>(FLAlertLayer*, bool) const::{lambda()#1}, std::__ndk1::allocator<geodeExecFunction57<(anonymous namespace)::ExecFuncUnique57>(geode::ModStateEvent*)::{lambda(MenuLayer*)#1}::operator()(MenuLayer*) const::{lambda()#1}::operator()() const::{lambda(auto:1, bool)#1}::operator()<FLAlertLayer*>(FLAlertLayer*, bool) const::{lambda()#1}>, void ()>::__clone(std::__ndk1::__function::__base<void ()>*) const
PUBLIC 34404 0 std::__ndk1::__function::__func<geodeExecFunction57<(anonymous namespace)::ExecFuncUnique57>(geode::ModStateEvent*)::{lambda(MenuLayer*)#1}::operator()(MenuLayer*) const::{lambda()#1}::operator()() const::{lambda(auto:1, bool)#1}::operator()<FLAlertLayer*>(FLAlertLayer*, bool) const::{lambda()#1}, std::__ndk1::allocator<geodeExecFunction57<(anonymous namespace)::ExecFuncUnique57>(geode::ModStateEvent*)::{lambda(MenuLayer*)#1}::operator()(MenuLayer*) const::{lambda()#1}::operator()() const::{lambda(auto:1, bool)#1}::operator()<FLAlertLayer*>(FLAlertLayer*, bool) const::{lambda()#1}>, void ()>::destroy()
PUBLIC 34408 0 std::__ndk1::__function::__func<geodeExecFunction57<(anonymous namespace)::ExecFuncUnique57>(geode::ModStateEvent*)::{lambda(MenuLayer*)#1}::operator()(MenuLayer*) const::{lambda()#1}::operator()() const::{lambda(auto:1, bool)#1}::operator()<FLAlertLayer*>(FLAlertLayer*, bool) const::{lambda()#1}, std::__ndk1::allocator<geodeExecFunction57<(anonymous namespace)::ExecFuncUnique57>(geode::ModStateEvent*)::{lambda(MenuLayer*)#1}::operator()(MenuLayer*) const::{lambda()#1}::operator()() const::{lambda(auto:1, bool)#1}::operator()<FLAlertLayer*>(FLAlertLayer*, bool) const::{lambda()#1}>, void ()>::destroy_deallocate()
PUBLIC 3440c 0 std::__ndk1::__function::__func<geodeExecFunction57<(anonymous namespace)::ExecFuncUnique57>(geode::ModStateEvent*)::{lambda(MenuLayer*)#1}::operator()(MenuLayer*) const::{lambda()#1}::operator()() const::{lambda(auto:1, bool)#1}::operator()<FLAlertLayer*>(FLAlertLayer*, bool) const::{lambda()#1}, std::__ndk1::allocator<geodeExecFunction57<(anonymous namespace)::ExecFuncUnique57>(geode::ModStateEvent*)::{lambda(MenuLayer*)#1}::operator()(MenuLayer*) const::{lambda()#1}::operator()() const::{lambda(auto:1, bool)#1}::operator()<FLAlertLayer*>(FLAlertLayer*, bool) const::{lambda()#1}>, void ()>::operator()()
PUBLIC 34514 0 std::__ndk1::__function::__func<geodeExecFunction57<(anonymous namespace)::ExecFuncUnique57>(geode::ModStateEvent*)::{lambda(MenuLayer*)#1}::operator()(MenuLayer*) const::{lambda()#1}::operator()() const::{lambda(auto:1, bool)#1}::operator()<FLAlertLayer*>(FLAlertLayer*, bool) const::{lambda()#1}, std::__ndk1::allocator<geodeExecFunction57<(anonymous namespace)::ExecFuncUnique57>(geode::ModStateEvent*)::{lambda(MenuLayer*)#1}::operator()(MenuLayer*) const::{lambda()#1}::operator()() const::{lambda(auto:1, bool)#1}::operator()<FLAlertLayer*>(FLAlertLayer*, bool) const::{lambda()#1}>, void ()>::target(std::type_info const&) const
PUBLIC 34530 0 std::__ndk1::__function::__func<geodeExecFunction57<(anonymous namespace)::ExecFuncUnique57>(geode::ModStateEvent*)::{lambda(MenuLayer*)#1}::operator()(MenuLayer*) const::{lambda()#1}::operator()() const::{lambda(auto:1, bool)#1}::operator()<FLAlertLayer*>(FLAlertLayer*, bool) const::{lambda()#1}, std::__ndk1::allocator<geodeExecFunction57<(anonymous namespace)::ExecFuncUnique57>(geode::ModStateEvent*)::{lambda(MenuLayer*)#1}::operator()(MenuLayer*) const::{lambda()#1}::operator()() const::{lambda(auto:1, bool)#1}::operator()<FLAlertLayer*>(FLAlertLayer*, bool) const::{lambda()#1}>, void ()>::target_type() const
PUBLIC 3453c 0 std::__ndk1::__thread_proxy[abi:ne180000]<std::__ndk1::tuple<std::__ndk1::unique_ptr<std::__ndk1::__thread_struct, std::__ndk1::default_delete<std::__ndk1::unique_ptr> >, geodeExecFunction57<(anonymous namespace)::ExecFuncUnique57>(geode::ModStateEvent*)::{lambda(MenuLayer*)#1}::operator()(MenuLayer) const::{lambda()#1}::operator()() const::{lambda(auto:1, bool)#1}::operator()<FLAlertLayer*>({lambda()#1}, bool) const::{lambda()#1}::operator()() const::{lambda()#1}> >(std::__ndk1::tuple<std::__ndk1::unique_ptr<std::__ndk1::__thread_struct, std::__ndk1::default_delete<std::__ndk1::unique_ptr> >, geodeExecFunction57<(anonymous namespace)::ExecFuncUnique57>(geode::ModStateEvent*)::{lambda(MenuLayer*)#1}::operator()(MenuLayer) const::{lambda()#1}::operator()() const::{lambda(auto:1, bool)#1}::operator()<FLAlertLayer*>({lambda()#1}, bool) const::{lambda()#1}::operator()() const::{lambda()#1}>)
PUBLIC 34670 0 std::__ndk1::unique_ptr<std::__ndk1::tuple<std::__ndk1::unique_ptr<std::__ndk1::__thread_struct, std::__ndk1::default_delete<std::__ndk1::__thread_struct> >, geodeExecFunction57<(anonymous namespace)::ExecFuncUnique57>(geode::ModStateEvent*)::{lambda(MenuLayer*)#1}::operator()(MenuLayer*) const::{lambda()#1}::operator()() const::{lambda(auto:1, bool)#1}::operator()<FLAlertLayer*>(FLAlertLayer*, bool) const::{lambda()#1}::operator()() const::{lambda()#1}>, std::__ndk1::default_delete<std::__ndk1::tuple<std::__ndk1::unique_ptr<std::__ndk1::__thread_struct, std::__ndk1::default_delete<std::__ndk1::__thread_struct> >, geodeExecFunction57<(anonymous namespace)::ExecFuncUnique57>(geode::ModStateEvent*)::{lambda(MenuLayer*)#1}::operator()(MenuLayer*) const::{lambda()#1}::operator()() const::{lambda(auto:1, bool)#1}::operator()<FLAlertLayer*>(FLAlertLayer*, bool) const::{lambda()#1}::operator()() const::{lambda()#1}> > >::~unique_ptr[abi:ne180000]()
PUBLIC 346c0 0 std::__ndk1::__function::__func<geodeExecFunction57<(anonymous namespace)::ExecFuncUnique57>(geode::ModStateEvent*)::{lambda(MenuLayer*)#1}::operator()(MenuLayer*) const::{lambda()#1}::operator()() const::{lambda(auto:1, bool)#1}::operator()<FLAlertLayer*>(FLAlertLayer*, bool) const::{lambda()#1}::operator()() const::{lambda()#1}::operator()() const::{lambda()#1}, std::__ndk1::allocator<geodeExecFunction57<(anonymous namespace)::ExecFuncUnique57>(geode::ModStateEvent*)::{lambda(MenuLayer*)#1}::operator()(MenuLayer*) const::{lambda()#1}::operator()() const::{lambda(auto:1, bool)#1}::operator()<FLAlertLayer*>(FLAlertLayer*, bool) const::{lambda()#1}::operator()() const::{lambda()#1}::operator()() const::{lambda()#1}>, void ()>::~__func()
PUBLIC 346c4 0 std::__ndk1::__function::__func<geodeExecFunction57<(anonymous namespace)::ExecFuncUnique57>(geode::ModStateEvent*)::{lambda(MenuLayer*)#1}::operator()(MenuLayer*) const::{lambda()#1}::operator()() const::{lambda(auto:1, bool)#1}::operator()<FLAlertLayer*>(FLAlertLayer*, bool) const::{lambda()#1}::operator()() const::{lambda()#1}::operator()() const::{lambda()#1}, std::__ndk1::allocator<geodeExecFunction57<(anonymous namespace)::ExecFuncUnique57>(geode::ModStateEvent*)::{lambda(MenuLayer*)#1}::operator()(MenuLayer*) const::{lambda()#1}::operator()() const::{lambda(auto:1, bool)#1}::operator()<FLAlertLayer*>(FLAlertLayer*, bool) const::{lambda()#1}::operator()() const::{lambda()#1}::operator()() const::{lambda()#1}>, void ()>::__clone() const
PUBLIC 346e8 0 std::__ndk1::__function::__func<geodeExecFunction57<(anonymous namespace)::ExecFuncUnique57>(geode::ModStateEvent*)::{lambda(MenuLayer*)#1}::operator()(MenuLayer*) const::{lambda()#1}::operator()() const::{lambda(auto:1, bool)#1}::operator()<FLAlertLayer*>(FLAlertLayer*, bool) const::{lambda()#1}::operator()() const::{lambda()#1}::operator()() const::{lambda()#1}, std::__ndk1::allocator<geodeExecFunction57<(anonymous namespace)::ExecFuncUnique57>(geode::ModStateEvent*)::{lambda(MenuLayer*)#1}::operator()(MenuLayer*) const::{lambda()#1}::operator()() const::{lambda(auto:1, bool)#1}::operator()<FLAlertLayer*>(FLAlertLayer*, bool) const::{lambda()#1}::operator()() const::{lambda()#1}::operator()() const::{lambda()#1}>, void ()>::__clone(std::__ndk1::__function::__base<void ()>*) const
PUBLIC 346f8 0 std::__ndk1::__function::__func<geodeExecFunction57<(anonymous namespace)::ExecFuncUnique57>(geode::ModStateEvent*)::{lambda(MenuLayer*)#1}::operator()(MenuLayer*) const::{lambda()#1}::operator()() const::{lambda(auto:1, bool)#1}::operator()<FLAlertLayer*>(FLAlertLayer*, bool) const::{lambda()#1}::operator()() const::{lambda()#1}::operator()() const::{lambda()#1}, std::__ndk1::allocator<geodeExecFunction57<(anonymous namespace)::ExecFuncUnique57>(geode::ModStateEvent*)::{lambda(MenuLayer*)#1}::operator()(MenuLayer*) const::{lambda()#1}::operator()() const::{lambda(auto:1, bool)#1}::operator()<FLAlertLayer*>(FLAlertLayer*, bool) const::{lambda()#1}::operator()() const::{lambda()#1}::operator()() const::{lambda()#1}>, void ()>::destroy()
PUBLIC 346fc 0 std::__ndk1::__function::__func<geodeExecFunction57<(anonymous namespace)::ExecFuncUnique57>(geode::ModStateEvent*)::{lambda(MenuLayer*)#1}::operator()(MenuLayer*) const::{lambda()#1}::operator()() const::{lambda(auto:1, bool)#1}::operator()<FLAlertLayer*>(FLAlertLayer*, bool) const::{lambda()#1}::operator()() const::{lambda()#1}::operator()() const::{lambda()#1}, std::__ndk1::allocator<geodeExecFunction57<(anonymous namespace)::ExecFuncUnique57>(geode::ModStateEvent*)::{lambda(MenuLayer*)#1}::operator()(MenuLayer*) const::{lambda()#1}::operator()() const::{lambda(auto:1, bool)#1}::operator()<FLAlertLayer*>(FLAlertLayer*, bool) const::{lambda()#1}::operator()() const::{lambda()#1}::operator()() const::{lambda()#1}>, void ()>::destroy_deallocate()
PUBLIC 34700 0 std::__ndk1::__function::__func<geodeExecFunction57<(anonymous namespace)::ExecFuncUnique57>(geode::ModStateEvent*)::{lambda(MenuLayer*)#1}::operator()(MenuLayer*) const::{lambda()#1}::operator()() const::{lambda(auto:1, bool)#1}::operator()<FLAlertLayer*>(FLAlertLayer*, bool) const::{lambda()#1}::operator()() const::{lambda()#1}::operator()() const::{lambda()#1}, std::__ndk1::allocator<geodeExecFunction57<(anonymous namespace)::ExecFuncUnique57>(geode::ModStateEvent*)::{lambda(MenuLayer*)#1}::operator()(MenuLayer*) const::{lambda()#1}::operator()() const::{lambda(auto:1, bool)#1}::operator()<FLAlertLayer*>(FLAlertLayer*, bool) const::{lambda()#1}::operator()() const::{lambda()#1}::operator()() const::{lambda()#1}>, void ()>::operator()()
PUBLIC 34a9c 0 std::__ndk1::__function::__func<geodeExecFunction57<(anonymous namespace)::ExecFuncUnique57>(geode::ModStateEvent*)::{lambda(MenuLayer*)#1}::operator()(MenuLayer*) const::{lambda()#1}::operator()() const::{lambda(auto:1, bool)#1}::operator()<FLAlertLayer*>(FLAlertLayer*, bool) const::{lambda()#1}::operator()() const::{lambda()#1}::operator()() const::{lambda()#1}, std::__ndk1::allocator<geodeExecFunction57<(anonymous namespace)::ExecFuncUnique57>(geode::ModStateEvent*)::{lambda(MenuLayer*)#1}::operator()(MenuLayer*) const::{lambda()#1}::operator()() const::{lambda(auto:1, bool)#1}::operator()<FLAlertLayer*>(FLAlertLayer*, bool) const::{lambda()#1}::operator()() const::{lambda()#1}::operator()() const::{lambda()#1}>, void ()>::target(std::type_info const&) const
PUBLIC 34ab8 0 std::__ndk1::__function::__func<geodeExecFunction57<(anonymous namespace)::ExecFuncUnique57>(geode::ModStateEvent*)::{lambda(MenuLayer*)#1}::operator()(MenuLayer*) const::{lambda()#1}::operator()() const::{lambda(auto:1, bool)#1}::operator()<FLAlertLayer*>(FLAlertLayer*, bool) const::{lambda()#1}::operator()() const::{lambda()#1}::operator()() const::{lambda()#1}, std::__ndk1::allocator<geodeExecFunction57<(anonymous namespace)::ExecFuncUnique57>(geode::ModStateEvent*)::{lambda(MenuLayer*)#1}::operator()(MenuLayer*) const::{lambda()#1}::operator()() const::{lambda(auto:1, bool)#1}::operator()<FLAlertLayer*>(FLAlertLayer*, bool) const::{lambda()#1}::operator()() const::{lambda()#1}::operator()() const::{lambda()#1}>, void ()>::target_type() const
PUBLIC 34ac4 0 std::__ndk1::__function::__base<void (geode::Task<bool, std::__ndk1::monostate>::Event*)>::~__base()
PUBLIC 34ac8 0 _ZNSt6__ndk110__function6__funcIZNK5geode4TaskIbNS_9monostateEE6listenIZZZZZZZ19geodeExecFunction57IN12_GLOBAL__N_116ExecFuncUnique57EEvPNS2_13ModStateEventEENKUlP9MenuLayerE_clESD_ENKUlvE_clEvENKUlT_bE_clIP12FLAlertLayerEEDaSG_bENKUlvE_clEvENKUlvE_clEvENKUlvE_clEvEUlbE_ZNKS5_6listenISO_EEvOSG_EUlRKSG_E_ZNKSP_ISO_EEvSQ_EUlvE_EEvSQ_OT0_OT1_EUlPNS5_5EventEE_NS_9allocatorIS11_EEFvS10_EED0Ev
PUBLIC 34acc 0 _ZNKSt6__ndk110__function6__funcIZNK5geode4TaskIbNS_9monostateEE6listenIZZZZZZZ19geodeExecFunction57IN12_GLOBAL__N_116ExecFuncUnique57EEvPNS2_13ModStateEventEENKUlP9MenuLayerE_clESD_ENKUlvE_clEvENKUlT_bE_clIP12FLAlertLayerEEDaSG_bENKUlvE_clEvENKUlvE_clEvENKUlvE_clEvEUlbE_ZNKS5_6listenISO_EEvOSG_EUlRKSG_E_ZNKSP_ISO_EEvSQ_EUlvE_EEvSQ_OT0_OT1_EUlPNS5_5EventEE_NS_9allocatorIS11_EEFvS10_EE7__cloneEv
PUBLIC 34b04 0 _ZNKSt6__ndk110__function6__funcIZNK5geode4TaskIbNS_9monostateEE6listenIZZZZZZZ19geodeExecFunction57IN12_GLOBAL__N_116ExecFuncUnique57EEvPNS2_13ModStateEventEENKUlP9MenuLayerE_clESD_ENKUlvE_clEvENKUlT_bE_clIP12FLAlertLayerEEDaSG_bENKUlvE_clEvENKUlvE_clEvENKUlvE_clEvEUlbE_ZNKS5_6listenISO_EEvOSG_EUlRKSG_E_ZNKSP_ISO_EEvSQ_EUlvE_EEvSQ_OT0_OT1_EUlPNS5_5EventEE_NS_9allocatorIS11_EEFvS10_EE7__cloneEPNS0_6__baseIS14_EE
PUBLIC 34b1c 0 _ZNSt6__ndk110__function6__funcIZNK5geode4TaskIbNS_9monostateEE6listenIZZZZZZZ19geodeExecFunction57IN12_GLOBAL__N_116ExecFuncUnique57EEvPNS2_13ModStateEventEENKUlP9MenuLayerE_clESD_ENKUlvE_clEvENKUlT_bE_clIP12FLAlertLayerEEDaSG_bENKUlvE_clEvENKUlvE_clEvENKUlvE_clEvEUlbE_ZNKS5_6listenISO_EEvOSG_EUlRKSG_E_ZNKSP_ISO_EEvSQ_EUlvE_EEvSQ_OT0_OT1_EUlPNS5_5EventEE_NS_9allocatorIS11_EEFvS10_EE7destroyEv
PUBLIC 34b20 0 _ZNSt6__ndk110__function6__funcIZNK5geode4TaskIbNS_9monostateEE6listenIZZZZZZZ19geodeExecFunction57IN12_GLOBAL__N_116ExecFuncUnique57EEvPNS2_13ModStateEventEENKUlP9MenuLayerE_clESD_ENKUlvE_clEvENKUlT_bE_clIP12FLAlertLayerEEDaSG_bENKUlvE_clEvENKUlvE_clEvENKUlvE_clEvEUlbE_ZNKS5_6listenISO_EEvOSG_EUlRKSG_E_ZNKSP_ISO_EEvSQ_EUlvE_EEvSQ_OT0_OT1_EUlPNS5_5EventEE_NS_9allocatorIS11_EEFvS10_EE18destroy_deallocateEv
PUBLIC 34b24 0 _ZNSt6__ndk110__function6__funcIZNK5geode4TaskIbNS_9monostateEE6listenIZZZZZZZ19geodeExecFunction57IN12_GLOBAL__N_116ExecFuncUnique57EEvPNS2_13ModStateEventEENKUlP9MenuLayerE_clESD_ENKUlvE_clEvENKUlT_bE_clIP12FLAlertLayerEEDaSG_bENKUlvE_clEvENKUlvE_clEvENKUlvE_clEvEUlbE_ZNKS5_6listenISO_EEvOSG_EUlRKSG_E_ZNKSP_ISO_EEvSQ_EUlvE_EEvSQ_OT0_OT1_EUlPNS5_5EventEE_NS_9allocatorIS11_EEFvS10_EEclEOS10_
PUBLIC 34c8c 0 _ZNKSt6__ndk110__function6__funcIZNK5geode4TaskIbNS_9monostateEE6listenIZZZZZZZ19geodeExecFunction57IN12_GLOBAL__N_116ExecFuncUnique57EEvPNS2_13ModStateEventEENKUlP9MenuLayerE_clESD_ENKUlvE_clEvENKUlT_bE_clIP12FLAlertLayerEEDaSG_bENKUlvE_clEvENKUlvE_clEvENKUlvE_clEvEUlbE_ZNKS5_6listenISO_EEvOSG_EUlRKSG_E_ZNKSP_ISO_EEvSQ_EUlvE_EEvSQ_OT0_OT1_EUlPNS5_5EventEE_NS_9allocatorIS11_EEFvS10_EE6targetERKSt9type_info
PUBLIC 34ca8 0 _ZNKSt6__ndk110__function6__funcIZNK5geode4TaskIbNS_9monostateEE6listenIZZZZZZZ19geodeExecFunction57IN12_GLOBAL__N_116ExecFuncUnique57EEvPNS2_13ModStateEventEENKUlP9MenuLayerE_clESD_ENKUlvE_clEvENKUlT_bE_clIP12FLAlertLayerEEDaSG_bENKUlvE_clEvENKUlvE_clEvENKUlvE_clEvEUlbE_ZNKS5_6listenISO_EEvOSG_EUlRKSG_E_ZNKSP_ISO_EEvSQ_EUlvE_EEvSQ_OT0_OT1_EUlPNS5_5EventEE_NS_9allocatorIS11_EEFvS10_EE11target_typeEv
PUBLIC 34cb4 0 std::__ndk1::__function::__func<geodeExecFunction57<(anonymous namespace)::ExecFuncUnique57>(geode::ModStateEvent*)::{lambda(MenuLayer*)#1}::operator()(MenuLayer*) const::{lambda()#1}::operator()() const::{lambda(auto:1, bool)#1}::operator()<FLAlertLayer*>(FLAlertLayer*, bool) const::{lambda()#1}::operator()() const::{lambda()#1}::operator()() const::{lambda()#1}::operator()() const::{lambda(bool)#1}::operator()(bool) const::{lambda()#1}, std::__ndk1::allocator<geodeExecFunction57<(anonymous namespace)::ExecFuncUnique57>(geode::ModStateEvent*)::{lambda(MenuLayer*)#1}::operator()(MenuLayer*) const::{lambda()#1}::operator()() const::{lambda(auto:1, bool)#1}::operator()<FLAlertLayer*>(FLAlertLayer*, bool) const::{lambda()#1}::operator()() const::{lambda()#1}::operator()() const::{lambda()#1}::operator()() const::{lambda(bool)#1}::operator()(bool) const::{lambda()#1}>, void ()>::~__func()
PUBLIC 34cb8 0 std::__ndk1::__function::__func<geodeExecFunction57<(anonymous namespace)::ExecFuncUnique57>(geode::ModStateEvent*)::{lambda(MenuLayer*)#1}::operator()(MenuLayer*) const::{lambda()#1}::operator()() const::{lambda(auto:1, bool)#1}::operator()<FLAlertLayer*>(FLAlertLayer*, bool) const::{lambda()#1}::operator()() const::{lambda()#1}::operator()() const::{lambda()#1}::operator()() const::{lambda(bool)#1}::operator()(bool) const::{lambda()#1}, std::__ndk1::allocator<geodeExecFunction57<(anonymous namespace)::ExecFuncUnique57>(geode::ModStateEvent*)::{lambda(MenuLayer*)#1}::operator()(MenuLayer*) const::{lambda()#1}::operator()() const::{lambda(auto:1, bool)#1}::operator()<FLAlertLayer*>(FLAlertLayer*, bool) const::{lambda()#1}::operator()() const::{lambda()#1}::operator()() const::{lambda()#1}::operator()() const::{lambda(bool)#1}::operator()(bool) const::{lambda()#1}>, void ()>::__clone() const
PUBLIC 34cdc 0 std::__ndk1::__function::__func<geodeExecFunction57<(anonymous namespace)::ExecFuncUnique57>(geode::ModStateEvent*)::{lambda(MenuLayer*)#1}::operator()(MenuLayer*) const::{lambda()#1}::operator()() const::{lambda(auto:1, bool)#1}::operator()<FLAlertLayer*>(FLAlertLayer*, bool) const::{lambda()#1}::operator()() const::{lambda()#1}::operator()() const::{lambda()#1}::operator()() const::{lambda(bool)#1}::operator()(bool) const::{lambda()#1}, std::__ndk1::allocator<geodeExecFunction57<(anonymous namespace)::ExecFuncUnique57>(geode::ModStateEvent*)::{lambda(MenuLayer*)#1}::operator()(MenuLayer*) const::{lambda()#1}::operator()() const::{lambda(auto:1, bool)#1}::operator()<FLAlertLayer*>(FLAlertLayer*, bool) const::{lambda()#1}::operator()() const::{lambda()#1}::operator()() const::{lambda()#1}::operator()() const::{lambda(bool)#1}::operator()(bool) const::{lambda()#1}>, void ()>::__clone(std::__ndk1::__function::__base<void ()>*) const
PUBLIC 34cec 0 std::__ndk1::__function::__func<geodeExecFunction57<(anonymous namespace)::ExecFuncUnique57>(geode::ModStateEvent*)::{lambda(MenuLayer*)#1}::operator()(MenuLayer*) const::{lambda()#1}::operator()() const::{lambda(auto:1, bool)#1}::operator()<FLAlertLayer*>(FLAlertLayer*, bool) const::{lambda()#1}::operator()() const::{lambda()#1}::operator()() const::{lambda()#1}::operator()() const::{lambda(bool)#1}::operator()(bool) const::{lambda()#1}, std::__ndk1::allocator<geodeExecFunction57<(anonymous namespace)::ExecFuncUnique57>(geode::ModStateEvent*)::{lambda(MenuLayer*)#1}::operator()(MenuLayer*) const::{lambda()#1}::operator()() const::{lambda(auto:1, bool)#1}::operator()<FLAlertLayer*>(FLAlertLayer*, bool) const::{lambda()#1}::operator()() const::{lambda()#1}::operator()() const::{lambda()#1}::operator()() const::{lambda(bool)#1}::operator()(bool) const::{lambda()#1}>, void ()>::destroy()
PUBLIC 34cf0 0 std::__ndk1::__function::__func<geodeExecFunction57<(anonymous namespace)::ExecFuncUnique57>(geode::ModStateEvent*)::{lambda(MenuLayer*)#1}::operator()(MenuLayer*) const::{lambda()#1}::operator()() const::{lambda(auto:1, bool)#1}::operator()<FLAlertLayer*>(FLAlertLayer*, bool) const::{lambda()#1}::operator()() const::{lambda()#1}::operator()() const::{lambda()#1}::operator()() const::{lambda(bool)#1}::operator()(bool) const::{lambda()#1}, std::__ndk1::allocator<geodeExecFunction57<(anonymous namespace)::ExecFuncUnique57>(geode::ModStateEvent*)::{lambda(MenuLayer*)#1}::operator()(MenuLayer*) const::{lambda()#1}::operator()() const::{lambda(auto:1, bool)#1}::operator()<FLAlertLayer*>(FLAlertLayer*, bool) const::{lambda()#1}::operator()() const::{lambda()#1}::operator()() const::{lambda()#1}::operator()() const::{lambda(bool)#1}::operator()(bool) const::{lambda()#1}>, void ()>::destroy_deallocate()
PUBLIC 34cf4 0 std::__ndk1::__function::__func<geodeExecFunction57<(anonymous namespace)::ExecFuncUnique57>(geode::ModStateEvent*)::{lambda(MenuLayer*)#1}::operator()(MenuLayer*) const::{lambda()#1}::operator()() const::{lambda(auto:1, bool)#1}::operator()<FLAlertLayer*>(FLAlertLayer*, bool) const::{lambda()#1}::operator()() const::{lambda()#1}::operator()() const::{lambda()#1}::operator()() const::{lambda(bool)#1}::operator()(bool) const::{lambda()#1}, std::__ndk1::allocator<geodeExecFunction57<(anonymous namespace)::ExecFuncUnique57>(geode::ModStateEvent*)::{lambda(MenuLayer*)#1}::operator()(MenuLayer*) const::{lambda()#1}::operator()() const::{lambda(auto:1, bool)#1}::operator()<FLAlertLayer*>(FLAlertLayer*, bool) const::{lambda()#1}::operator()() const::{lambda()#1}::operator()() const::{lambda()#1}::operator()() const::{lambda(bool)#1}::operator()(bool) const::{lambda()#1}>, void ()>::operator()()
PUBLIC 34d8c 0 std::__ndk1::__function::__func<geodeExecFunction57<(anonymous namespace)::ExecFuncUnique57>(geode::ModStateEvent*)::{lambda(MenuLayer*)#1}::operator()(MenuLayer*) const::{lambda()#1}::operator()() const::{lambda(auto:1, bool)#1}::operator()<FLAlertLayer*>(FLAlertLayer*, bool) const::{lambda()#1}::operator()() const::{lambda()#1}::operator()() const::{lambda()#1}::operator()() const::{lambda(bool)#1}::operator()(bool) const::{lambda()#1}, std::__ndk1::allocator<geodeExecFunction57<(anonymous namespace)::ExecFuncUnique57>(geode::ModStateEvent*)::{lambda(MenuLayer*)#1}::operator()(MenuLayer*) const::{lambda()#1}::operator()() const::{lambda(auto:1, bool)#1}::operator()<FLAlertLayer*>(FLAlertLayer*, bool) const::{lambda()#1}::operator()() const::{lambda()#1}::operator()() const::{lambda()#1}::operator()() const::{lambda(bool)#1}::operator()(bool) const::{lambda()#1}>, void ()>::target(std::type_info const&) const
PUBLIC 34da8 0 std::__ndk1::__function::__func<geodeExecFunction57<(anonymous namespace)::ExecFuncUnique57>(geode::ModStateEvent*)::{lambda(MenuLayer*)#1}::operator()(MenuLayer*) const::{lambda()#1}::operator()() const::{lambda(auto:1, bool)#1}::operator()<FLAlertLayer*>(FLAlertLayer*, bool) const::{lambda()#1}::operator()() const::{lambda()#1}::operator()() const::{lambda()#1}::operator()() const::{lambda(bool)#1}::operator()(bool) const::{lambda()#1}, std::__ndk1::allocator<geodeExecFunction57<(anonymous namespace)::ExecFuncUnique57>(geode::ModStateEvent*)::{lambda(MenuLayer*)#1}::operator()(MenuLayer*) const::{lambda()#1}::operator()() const::{lambda(auto:1, bool)#1}::operator()<FLAlertLayer*>(FLAlertLayer*, bool) const::{lambda()#1}::operator()() const::{lambda()#1}::operator()() const::{lambda()#1}::operator()() const::{lambda(bool)#1}::operator()(bool) const::{lambda()#1}>, void ()>::target_type() const
PUBLIC 34db4 0 _ZNSt6__ndk110__function6__funcIZZNK5geode4TaskIbNS_9monostateEE6listenIZZZZZZZ19geodeExecFunction57IN12_GLOBAL__N_116ExecFuncUnique57EEvPNS2_13ModStateEventEENKUlP9MenuLayerE_clESD_ENKUlvE_clEvENKUlT_bE_clIP12FLAlertLayerEEDaSG_bENKUlvE_clEvENKUlvE_clEvENKUlvE_clEvEUlbE_ZNKS5_6listenISO_EEvOSG_EUlRKSG_E_ZNKSP_ISO_EEvSQ_EUlvE_EEvSQ_OT0_OT1_ENUlPNS5_5EventEE_clES10_EUlvE_NS_9allocatorIS12_EEFvvEED0Ev
PUBLIC 34db8 0 _ZNKSt6__ndk110__function6__funcIZZNK5geode4TaskIbNS_9monostateEE6listenIZZZZZZZ19geodeExecFunction57IN12_GLOBAL__N_116ExecFuncUnique57EEvPNS2_13ModStateEventEENKUlP9MenuLayerE_clESD_ENKUlvE_clEvENKUlT_bE_clIP12FLAlertLayerEEDaSG_bENKUlvE_clEvENKUlvE_clEvENKUlvE_clEvEUlbE_ZNKS5_6listenISO_EEvOSG_EUlRKSG_E_ZNKSP_ISO_EEvSQ_EUlvE_EEvSQ_OT0_OT1_ENUlPNS5_5EventEE_clES10_EUlvE_NS_9allocatorIS12_EEFvvEE7__cloneEv
PUBLIC 34dec 0 _ZNKSt6__ndk110__function6__funcIZZNK5geode4TaskIbNS_9monostateEE6listenIZZZZZZZ19geodeExecFunction57IN12_GLOBAL__N_116ExecFuncUnique57EEvPNS2_13ModStateEventEENKUlP9MenuLayerE_clESD_ENKUlvE_clEvENKUlT_bE_clIP12FLAlertLayerEEDaSG_bENKUlvE_clEvENKUlvE_clEvENKUlvE_clEvEUlbE_ZNKS5_6listenISO_EEvOSG_EUlRKSG_E_ZNKSP_ISO_EEvSQ_EUlvE_EEvSQ_OT0_OT1_ENUlPNS5_5EventEE_clES10_EUlvE_NS_9allocatorIS12_EEFvvEE7__cloneEPNS0_6__baseIS15_EE
PUBLIC 34e00 0 _ZNSt6__ndk110__function6__funcIZZNK5geode4TaskIbNS_9monostateEE6listenIZZZZZZZ19geodeExecFunction57IN12_GLOBAL__N_116ExecFuncUnique57EEvPNS2_13ModStateEventEENKUlP9MenuLayerE_clESD_ENKUlvE_clEvENKUlT_bE_clIP12FLAlertLayerEEDaSG_bENKUlvE_clEvENKUlvE_clEvENKUlvE_clEvEUlbE_ZNKS5_6listenISO_EEvOSG_EUlRKSG_E_ZNKSP_ISO_EEvSQ_EUlvE_EEvSQ_OT0_OT1_ENUlPNS5_5EventEE_clES10_EUlvE_NS_9allocatorIS12_EEFvvEE7destroyEv
PUBLIC 34e04 0 _ZNSt6__ndk110__function6__funcIZZNK5geode4TaskIbNS_9monostateEE6listenIZZZZZZZ19geodeExecFunction57IN12_GLOBAL__N_116ExecFuncUnique57EEvPNS2_13ModStateEventEENKUlP9MenuLayerE_clESD_ENKUlvE_clEvENKUlT_bE_clIP12FLAlertLayerEEDaSG_bENKUlvE_clEvENKUlvE_clEvENKUlvE_clEvEUlbE_ZNKS5_6listenISO_EEvOSG_EUlRKSG_E_ZNKSP_ISO_EEvSQ_EUlvE_EEvSQ_OT0_OT1_ENUlPNS5_5EventEE_clES10_EUlvE_NS_9allocatorIS12_EEFvvEE18destroy_deallocateEv
PUBLIC 34e08 0 _ZNSt6__ndk110__function6__funcIZZNK5geode4TaskIbNS_9monostateEE6listenIZZZZZZZ19geodeExecFunction57IN12_GLOBAL__N_116ExecFuncUnique57EEvPNS2_13ModStateEventEENKUlP9MenuLayerE_clESD_ENKUlvE_clEvENKUlT_bE_clIP12FLAlertLayerEEDaSG_bENKUlvE_clEvENKUlvE_clEvENKUlvE_clEvEUlbE_ZNKS5_6listenISO_EEvOSG_EUlRKSG_E_ZNKSP_ISO_EEvSQ_EUlvE_EEvSQ_OT0_OT1_ENUlPNS5_5EventEE_clES10_EUlvE_NS_9allocatorIS12_EEFvvEEclEv
PUBLIC 34e20 0 _ZNKSt6__ndk110__function6__funcIZZNK5geode4TaskIbNS_9monostateEE6listenIZZZZZZZ19geodeExecFunction57IN12_GLOBAL__N_116ExecFuncUnique57EEvPNS2_13ModStateEventEENKUlP9MenuLayerE_clESD_ENKUlvE_clEvENKUlT_bE_clIP12FLAlertLayerEEDaSG_bENKUlvE_clEvENKUlvE_clEvENKUlvE_clEvEUlbE_ZNKS5_6listenISO_EEvOSG_EUlRKSG_E_ZNKSP_ISO_EEvSQ_EUlvE_EEvSQ_OT0_OT1_ENUlPNS5_5EventEE_clES10_EUlvE_NS_9allocatorIS12_EEFvvEE6targetERKSt9type_info
PUBLIC 34e3c 0 _ZNKSt6__ndk110__function6__funcIZZNK5geode4TaskIbNS_9monostateEE6listenIZZZZZZZ19geodeExecFunction57IN12_GLOBAL__N_116ExecFuncUnique57EEvPNS2_13ModStateEventEENKUlP9MenuLayerE_clESD_ENKUlvE_clEvENKUlT_bE_clIP12FLAlertLayerEEDaSG_bENKUlvE_clEvENKUlvE_clEvENKUlvE_clEvEUlbE_ZNKS5_6listenISO_EEvOSG_EUlRKSG_E_ZNKSP_ISO_EEvSQ_EUlvE_EEvSQ_OT0_OT1_ENUlPNS5_5EventEE_clES10_EUlvE_NS_9allocatorIS12_EEFvvEE11target_typeEv
PUBLIC 34e48 0 _GLOBAL__sub_I_CommentEmojiCheck.cpp
PUBLIC 34f94 0 __cxx_global_var_init
PUBLIC 356f4 0 geode::modifier::ModifyBase<geode::modifier::ModifyDerive<hook6<(anonymous namespace)::hook6Parent>, CommentCell> >::~ModifyBase()
PUBLIC 35710 0 geode::modifier::ModifyDerive<hook6<(anonymous namespace)::hook6Parent>, CommentCell>::apply()
PUBLIC 35ef0 0 std::__ndk1::shared_ptr<geode::Hook>::~shared_ptr[abi:ne180000]()
PUBLIC 35f40 0 geode::impl::ResultData<geode::Hook*, std::__ndk1::basic_string<char, std::__ndk1::char_traits<char>, std::__ndk1::allocator<char> > >::~ResultData()
PUBLIC 35fb4 0 std::__ndk1::vector<std::__ndk1::basic_string<char, std::__ndk1::char_traits<char>, std::__ndk1::allocator<char> >, std::__ndk1::allocator<std::__ndk1::basic_string<char, std::__ndk1::char_traits<char>, std::__ndk1::allocator<char> > > >::~vector[abi:ne180000]()
PUBLIC 36030 0 geode::modifier::ModifyBase<geode::modifier::ModifyDerive<hook6<(anonymous namespace)::hook6Parent>, CommentCell> >::apply()
PUBLIC 36034 0 std::__throw_bad_array_new_length([abi:ne180000], void)
PUBLIC 36068 0 std::__ndk1::__tree<std::__ndk1::__value_type<std::__ndk1::basic_string<char, std::__ndk1::char_traits<char>, std::__ndk1::allocator<char> >, std::__ndk1::shared_ptr<geode::Hook> >, std::__ndk1::__map_value_compare<std::__ndk1::basic_string<char, std::__ndk1::char_traits<char>, std::__ndk1::allocator<char> >, std::__ndk1::__value_type<std::__ndk1::basic_string<char, std::__ndk1::char_traits<char>, std::__ndk1::allocator<char> >, std::__ndk1::shared_ptr<geode::Hook> >, std::__ndk1::less<std::__ndk1::basic_string<char, std::__ndk1::char_traits<char>, std::__ndk1::allocator<char> > >, true>, std::__ndk1::allocator<std::__ndk1::__value_type<std::__ndk1::basic_string<char, std::__ndk1::char_traits<char>, std::__ndk1::allocator<char> >, std::__ndk1::shared_ptr<geode::Hook> > > >::find<std::__ndk1::basic_string<char, std::__ndk1::char_traits<char>, std::__ndk1::allocator<char> > >(std::__ndk1::basic_string<char, std::__ndk1::char_traits<char>, std::__ndk1::allocator<char> > const&)
PUBLIC 36188 0 std::__ndk1::unique_ptr<std::__ndk1::__tree_node<std::__ndk1::__value_type<std::__ndk1::basic_string<char, std::__ndk1::char_traits<char>, std::__ndk1::allocator<char> >, std::__ndk1::shared_ptr<geode::Hook> >, void*>, std::__ndk1::__tree_node_destructor<std::__ndk1::allocator<std::__ndk1::__tree_node<std::__ndk1::__value_type<std::__ndk1::basic_string<char, std::__ndk1::char_traits<char>, std::__ndk1::allocator<char> >, std::__ndk1::shared_ptr<geode::Hook> >, void*> > > >::~unique_ptr[abi:ne180000]()
PUBLIC 36204 0 std::__ndk1::__tree_balance_after_insert[abi:ne180000]<std::__ndk1::__tree_node_base<void*>*>(std::__ndk1::__tree_node_base<void*>*, std::__ndk1::__tree_node_base<void*>*)
PUBLIC 363b4 0 _ZN5geode15UnwrapExceptionC2IRPNS_4HookEQsr4implE18IsStringStreamableIT_EEENS_4impl5OkTagEOS5_
PUBLIC 36508 0 std::__ndk1::basic_stringstream<char, std::__ndk1::char_traits<char>, std::__ndk1::allocator<char> >::basic_stringstream[abi:ne180000]()
PUBLIC m 36634 0 std::__ndk1::basic_stringstream<char, std::__ndk1::char_traits<char>, std::__ndk1::allocator<char> >::~basic_stringstream()
PUBLIC 366b4 0 geode::UnwrapException::~UnwrapException()
PUBLIC 366d8 0 std::__ndk1::__put_character_sequence[abi:ne180000]<char, std::__ndk1::char_traits<char> >(std::__ndk1::basic_ostream<char, std::__ndk1::char_traits<char> >, std::__ndk1::basic_ostream const*, unsigned long)
PUBLIC 3687c 0 std::__ndk1::__pad_and_output[abi:ne180000]<char, std::__ndk1::char_traits<char> >(std::__ndk1::char_traits<char>, std::__ndk1::ostreambuf_iterator const*, std::__ndk1::ostreambuf_iterator const, std::__ndk1::ostreambuf_iterator const, std::__ndk1::ios_base&, std::__ndk1::ostreambuf_iterator)
PUBLIC 36a58 0 std::__ndk1::basic_stringbuf<char, std::__ndk1::char_traits<char>, std::__ndk1::allocator<char> >::str[abi:ne180000]() &&
PUBLIC 36bd0 0 std::__ndk1::basic_stringbuf<char, std::__ndk1::char_traits<char>, std::__ndk1::allocator<char> >::__init_buf_ptrs[abi:ne180000]()
PUBLIC 36d18 0 std::__ndk1::__variant_detail::__visitation::__base::__dispatcher<(unsigned long)0>::__dispatch[abi:ne180000]<std::__ndk1::__variant_detail::__dtor<std::__ndk1::__variant_detail::__traits<std::__ndk1::monostate, std::__ndk1::basic_string<char, std::__ndk1::char_traits<char>, std::__ndk1::allocator<char> > >, (std::__ndk1::__variant_detail::_Trait)1>::__destroy[abi:ne180000]()::{lambda(auto:1&)#1}, std::__ndk1::__variant_detail::__base<(std::__ndk1::__variant_detail::__traits<std::__ndk1::monostate, std::__ndk1::basic_string<char, std::__ndk1::char_traits<char>, std::__ndk1::allocator<char> > >)1, std::__ndk1::__variant_detail::__traits, std::__ndk1::allocator<char> >&>(std::__ndk1::__variant_detail::__dtor<std::__ndk1::__variant_detail::__traits<std::__ndk1::monostate, std::__ndk1::basic_string<char, std::__ndk1::char_traits<char>, std::__ndk1::allocator<char> > >, (std::__ndk1::__variant_detail::_Trait)1>, std::__ndk1::__variant_detail::__base<(std::__ndk1::__variant_detail::__traits<std::__ndk1::monostate, std::__ndk1::basic_string<char, std::__ndk1::char_traits<char>, std::__ndk1::allocator<char> > >)1, std::__ndk1::__variant_detail::__traits, std::__ndk1::allocator<char> >&)
PUBLIC 36d1c 0 std::__ndk1::__variant_detail::__visitation::__base::__dispatcher<(unsigned long)1>::__dispatch[abi:ne180000]<std::__ndk1::__variant_detail::__dtor<std::__ndk1::__variant_detail::__traits<std::__ndk1::monostate, std::__ndk1::basic_string<char, std::__ndk1::char_traits<char>, std::__ndk1::allocator<char> > >, (std::__ndk1::__variant_detail::_Trait)1>::__destroy[abi:ne180000]()::{lambda(auto:1&)#1}, std::__ndk1::__variant_detail::__base<(std::__ndk1::__variant_detail::__traits<std::__ndk1::monostate, std::__ndk1::basic_string<char, std::__ndk1::char_traits<char>, std::__ndk1::allocator<char> > >)1, std::__ndk1::__variant_detail::__traits, std::__ndk1::allocator<char> >&>(std::__ndk1::__variant_detail::__dtor<std::__ndk1::__variant_detail::__traits<std::__ndk1::monostate, std::__ndk1::basic_string<char, std::__ndk1::char_traits<char>, std::__ndk1::allocator<char> > >, (std::__ndk1::__variant_detail::_Trait)1>, std::__ndk1::__variant_detail::__base<(std::__ndk1::__variant_detail::__traits<std::__ndk1::monostate, std::__ndk1::basic_string<char, std::__ndk1::char_traits<char>, std::__ndk1::allocator<char> > >)1, std::__ndk1::__variant_detail::__traits, std::__ndk1::allocator<char> >&)
PUBLIC 36d30 0 std::__ndk1::vector<std::__ndk1::basic_string<char, std::__ndk1::char_traits<char>, std::__ndk1::allocator<char> >, std::__ndk1::allocator<std::__ndk1::basic_string<char, std::__ndk1::char_traits<char>, std::__ndk1::allocator<char> > > >::__push_back_slow_path<std::__ndk1::basic_string<char, std::__ndk1::char_traits<char>, std::__ndk1::allocator<char> > const&>(std::__ndk1::basic_string<char, std::__ndk1::char_traits<char>, std::__ndk1::allocator<char> > const&)
PUBLIC 36f58 0 std::__ndk1::__split_buffer<std::__ndk1::basic_string<char, std::__ndk1::char_traits<char>, std::__ndk1::allocator<char> >, std::__ndk1::allocator<std::__ndk1::basic_string<char, std::__ndk1::char_traits<char>, std::__ndk1::allocator<char> > >&>::~__split_buffer()
PUBLIC 36fc0 0 std::__ndk1::vector<std::__ndk1::basic_string<char, std::__ndk1::char_traits<char>, std::__ndk1::allocator<char> >, std::__ndk1::allocator<std::__ndk1::basic_string<char, std::__ndk1::char_traits<char>, std::__ndk1::allocator<char> > > >::__throw_length_error[abi:ne180000]() const
PUBLIC 36fd4 0 std::__ndk1::__variant_detail::__visitation::__base::__dispatcher<(unsigned long)0>::__dispatch[abi:ne180000]<std::__ndk1::__variant_detail::__dtor<std::__ndk1::__variant_detail::__traits<geode::Hook*, std::__ndk1::basic_string<char, std::__ndk1::char_traits<char>, std::__ndk1::allocator<char> > >, (std::__ndk1::__variant_detail::_Trait)1>::__destroy[abi:ne180000]()::{lambda(auto:1&)#1}, std::__ndk1::__variant_detail::__base<(std::__ndk1::__variant_detail::__traits<geode::Hook*, std::__ndk1::basic_string<char, std::__ndk1::char_traits<char>, std::__ndk1::allocator<char> > >)1, geode::Hook, std::__ndk1::allocator<char> >&>(std::__ndk1::__variant_detail::__dtor<std::__ndk1::__variant_detail::__traits<geode::Hook*, std::__ndk1::basic_string<char, std::__ndk1::char_traits<char>, std::__ndk1::allocator<char> > >, (std::__ndk1::__variant_detail::_Trait)1>, std::__ndk1::__variant_detail::__base<(std::__ndk1::__variant_detail::__traits<geode::Hook*, std::__ndk1::basic_string<char, std::__ndk1::char_traits<char>, std::__ndk1::allocator<char> > >)1, geode::Hook, std::__ndk1::allocator<char> >&)
PUBLIC 36fd8 0 std::__ndk1::__variant_detail::__visitation::__base::__dispatcher<(unsigned long)1>::__dispatch[abi:ne180000]<std::__ndk1::__variant_detail::__dtor<std::__ndk1::__variant_detail::__traits<geode::Hook*, std::__ndk1::basic_string<char, std::__ndk1::char_traits<char>, std::__ndk1::allocator<char> > >, (std::__ndk1::__variant_detail::_Trait)1>::__destroy[abi:ne180000]()::{lambda(auto:1&)#1}, std::__ndk1::__variant_detail::__base<(std::__ndk1::__variant_detail::__traits<geode::Hook*, std::__ndk1::basic_string<char, std::__ndk1::char_traits<char>, std::__ndk1::allocator<char> > >)1, geode::Hook, std::__ndk1::allocator<char> >&>(std::__ndk1::__variant_detail::__dtor<std::__ndk1::__variant_detail::__traits<geode::Hook*, std::__ndk1::basic_string<char, std::__ndk1::char_traits<char>, std::__ndk1::allocator<char> > >, (std::__ndk1::__variant_detail::_Trait)1>, std::__ndk1::__variant_detail::__base<(std::__ndk1::__variant_detail::__traits<geode::Hook*, std::__ndk1::basic_string<char, std::__ndk1::char_traits<char>, std::__ndk1::allocator<char> > >)1, geode::Hook, std::__ndk1::allocator<char> >&)
PUBLIC 36fec 0 std::__ndk1::__tree<std::__ndk1::__value_type<std::__ndk1::basic_string<char, std::__ndk1::char_traits<char>, std::__ndk1::allocator<char> >, std::__ndk1::shared_ptr<geode::Hook> >, std::__ndk1::__map_value_compare<std::__ndk1::basic_string<char, std::__ndk1::char_traits<char>, std::__ndk1::allocator<char> >, std::__ndk1::__value_type<std::__ndk1::basic_string<char, std::__ndk1::char_traits<char>, std::__ndk1::allocator<char> >, std::__ndk1::shared_ptr<geode::Hook> >, std::__ndk1::less<std::__ndk1::basic_string<char, std::__ndk1::char_traits<char>, std::__ndk1::allocator<char> > >, true>, std::__ndk1::allocator<std::__ndk1::__value_type<std::__ndk1::basic_string<char, std::__ndk1::char_traits<char>, std::__ndk1::allocator<char> >, std::__ndk1::shared_ptr<geode::Hook> > > >::erase(std::__ndk1::__tree_const_iterator<std::__ndk1::__value_type<std::__ndk1::basic_string<char, std::__ndk1::char_traits<char>, std::__ndk1::allocator<char> >, std::__ndk1::shared_ptr<geode::Hook> >, std::__ndk1::__tree_node<std::__ndk1::__value_type<std::__ndk1::basic_string<char, std::__ndk1::char_traits<char>, std::__ndk1::allocator<char> >, std::__ndk1::shared_ptr<geode::Hook> >, void*>*, long>)
PUBLIC 370c0 0 std::__ndk1::__tree_remove[abi:ne180000]<std::__ndk1::__tree_node_base<void*>*>(std::__ndk1::__tree_node_base<void*>*, std::__ndk1::__tree_node_base<void*>*)
PUBLIC 37488 0 std::__ndk1::__tree<std::__ndk1::__value_type<std::__ndk1::basic_string<char, std::__ndk1::char_traits<char>, std::__ndk1::allocator<char> >, std::__ndk1::shared_ptr<geode::Hook> >, std::__ndk1::__map_value_compare<std::__ndk1::basic_string<char, std::__ndk1::char_traits<char>, std::__ndk1::allocator<char> >, std::__ndk1::__value_type<std::__ndk1::basic_string<char, std::__ndk1::char_traits<char>, std::__ndk1::allocator<char> >, std::__ndk1::shared_ptr<geode::Hook> >, std::__ndk1::less<std::__ndk1::basic_string<char, std::__ndk1::char_traits<char>, std::__ndk1::allocator<char> > >, true>, std::__ndk1::allocator<std::__ndk1::__value_type<std::__ndk1::basic_string<char, std::__ndk1::char_traits<char>, std::__ndk1::allocator<char> >, std::__ndk1::shared_ptr<geode::Hook> > > >::destroy(std::__ndk1::__tree_node<std::__ndk1::__value_type<std::__ndk1::basic_string<char, std::__ndk1::char_traits<char>, std::__ndk1::allocator<char> >, std::__ndk1::shared_ptr<geode::Hook> >, void*>*)
PUBLIC 37514 0 geode::modifier::AsStaticFunction_FLAlert_Clicked<hook6<(anonymous namespace)::hook6Parent>, void (hook6<(anonymous namespace)::hook6Parent>::*)(FLAlertLayer*, bool)>::Impl<void (hook6<(anonymous namespace)::hook6Parent>::*)(FLAlertLayer*, bool)>::function(hook6<(anonymous namespace)::hook6Parent>*, FLAlertLayer*, bool)
PUBLIC 37558 0 geode::Hook::create<void (*)(hook6<(anonymous namespace)::hook6Parent>*, cocos2d::CCObject*)>(void*, void (*)(hook6<(anonymous namespace)::hook6Parent>*, cocos2d::CCObject*), std::__ndk1::basic_string<char, std::__ndk1::char_traits<char>, std::__ndk1::allocator<char> > const&, tulip::hook::TulipConvention, tulip::hook::HookMetadata const&)
PUBLIC 376dc 0 geode::modifier::AsStaticFunction_onConfirmDelete<hook6<(anonymous namespace)::hook6Parent>, void (hook6<(anonymous namespace)::hook6Parent>::*)(cocos2d::CCObject*)>::Impl<void (hook6<(anonymous namespace)::hook6Parent>::*)(cocos2d::CCObject*)>::function(hook6<(anonymous namespace)::hook6Parent>*, cocos2d::CCObject*)
PUBLIC 3771c 0 geode::modifier::AsStaticFunction_onLike<hook6<(anonymous namespace)::hook6Parent>, void (hook6<(anonymous namespace)::hook6Parent>::*)(cocos2d::CCObject*)>::Impl<void (hook6<(anonymous namespace)::hook6Parent>::*)(cocos2d::CCObject*)>::function(hook6<(anonymous namespace)::hook6Parent>*, cocos2d::CCObject*)
PUBLIC 37798 0 geode::addresser::Addresser::addressOfVirtual<void, CommentCell, FLAlertLayer*, bool>(void (CommentCell::*)(FLAlertLayer*, bool))
PUBLIC 37860 0 CommentCell::CommentCell(geode::ZeroConstructorType)
PUBLIC 3795c 0 cocos2d::CCCopying::copyWithZone(cocos2d::CCZone*)
PUBLIC 37964 0 TableViewCell::~TableViewCell()
PUBLIC 379c0 0 TableViewCell::~TableViewCell()
PUBLIC 37a24 0 {virtual override thunk({offset(-320)}, TableViewCell::~TableViewCell())}
PUBLIC 37a84 0 {virtual override thunk({offset(-320)}, TableViewCell::~TableViewCell())}
PUBLIC 37aec 0 cocos2d::CCKeyboardDelegate::keyUp(cocos2d::enumKeyCodes)
PUBLIC 37af0 0 cocos2d::CCMouseDelegate::rightKeyDown()
PUBLIC 37af4 0 cocos2d::CCMouseDelegate::rightKeyUp()
PUBLIC 37af8 0 cocos2d::CCMouseDelegate::scrollWheel(float, float)
PUBLIC 37afc 0 std::__ndk1::shared_ptr<tulip::hook::CallingConvention>::~shared_ptr[abi:ne180000]()
PUBLIC 37b4c 0 tulip::hook::HandlerMetadata::~HandlerMetadata()
PUBLIC 37bb0 0 geode::modifier::FieldIntermediate<hook6<(anonymous namespace)::hook6Parent>, CommentCell>::operator->()
PUBLIC 37d3c 0 geode::modifier::FieldContainer::getField(unsigned long)
PUBLIC 37ff4 0 geode::modifier::FieldContainer::setField(unsigned long, unsigned long, std::__ndk1::function<void (void*)>)
PUBLIC 38108 0 geode::modifier::FieldIntermediate<hook6<(anonymous namespace)::hook6Parent>, CommentCell>::fieldDestructor(void*)
PUBLIC 3810c 0 std::__ndk1::vector<void*, std::__ndk1::allocator<void*> >::__throw_length_error[abi:ne180000]() const
PUBLIC 38120 0 std::__ndk1::vector<std::__ndk1::function<void (void*)>, std::__ndk1::allocator<std::__ndk1::function<void (void*)> > >::__push_back_slow_path<std::__ndk1::function<void (void*)> >(std::__ndk1::function<void (void*)>&&)
PUBLIC 3834c 0 std::__ndk1::vector<std::__ndk1::function<void (void*)>, std::__ndk1::allocator<std::__ndk1::function<void (void*)> > >::__throw_length_error[abi:ne180000]() const
PUBLIC 38360 0 std::__ndk1::vector<void*, std::__ndk1::allocator<void*> >::__throw_out_of_range[abi:ne180000]() const
PUBLIC 38374 0 std::__ndk1::__throw_out_of_range[abi:ne180000](char const*)
PUBLIC 383c4 0 std::out_of_range::out_of_range[abi:ne180000](char const*)
PUBLIC 383f4 0 std::__ndk1::vector<std::__ndk1::function<void (void*)>, std::__ndk1::allocator<std::__ndk1::function<void (void*)> > >::__throw_out_of_range[abi:ne180000]() const
PUBLIC 38408 0 std::__ndk1::__function::__base<void (void*)>::~__base()
PUBLIC 3840c 0 std::__ndk1::__function::__func<void (*)(void*), std::__ndk1::allocator<void (*)(void*)>, void (void*)>::~__func()
PUBLIC 38410 0 std::__ndk1::__function::__func<void (*)(void*), std::__ndk1::allocator<void (*)(void*)>, void (void*)>::__clone() const
PUBLIC 38448 0 std::__ndk1::__function::__func<void (*)(void*), std::__ndk1::allocator<void (*)(void*)>, void (void*)>::__clone(std::__ndk1::__function::__base<void (void*)>*) const
PUBLIC 38460 0 std::__ndk1::__function::__func<void (*)(void*), std::__ndk1::allocator<void (*)(void*)>, void (void*)>::destroy()
PUBLIC 38464 0 std::__ndk1::__function::__func<void (*)(void*), std::__ndk1::allocator<void (*)(void*)>, void (void*)>::destroy_deallocate()
PUBLIC 38468 0 std::__ndk1::__function::__func<void (*)(void*), std::__ndk1::allocator<void (*)(void*)>, void (void*)>::operator()(void*&&)
PUBLIC 38478 0 std::__ndk1::__function::__func<void (*)(void*), std::__ndk1::allocator<void (*)(void*)>, void (void*)>::target(std::type_info const&) const
PUBLIC 38494 0 std::__ndk1::__function::__func<void (*)(void*), std::__ndk1::allocator<void (*)(void*)>, void (void*)>::target_type() const
PUBLIC 384a0 0 std::__ndk1::__tree<std::__ndk1::__value_type<std::__ndk1::basic_string<char, std::__ndk1::char_traits<char>, std::__ndk1::allocator<char> >, std::__ndk1::shared_ptr<geode::Hook> >, std::__ndk1::__map_value_compare<std::__ndk1::basic_string<char, std::__ndk1::char_traits<char>, std::__ndk1::allocator<char> >, std::__ndk1::__value_type<std::__ndk1::basic_string<char, std::__ndk1::char_traits<char>, std::__ndk1::allocator<char> >, std::__ndk1::shared_ptr<geode::Hook> >, std::__ndk1::less<std::__ndk1::basic_string<char, std::__ndk1::char_traits<char>, std::__ndk1::allocator<char> > >, true>, std::__ndk1::allocator<std::__ndk1::__value_type<std::__ndk1::basic_string<char, std::__ndk1::char_traits<char>, std::__ndk1::allocator<char> >, std::__ndk1::shared_ptr<geode::Hook> > > >::__emplace_unique_key_args<std::__ndk1::basic_string<char, std::__ndk1::char_traits<char>, std::__ndk1::allocator<char> >, std::__ndk1::piecewise_construct_t const&, std::__ndk1::tuple<std::__ndk1::basic_string<char, std::__ndk1::char_traits<char>, std::__ndk1::allocator<char> >&&>, std::__ndk1::tuple<> >(std::__ndk1::basic_string<char, std::__ndk1::char_traits<char>, std::__ndk1::allocator<char> > const&, std::__ndk1::piecewise_construct_t const&, std::__ndk1::tuple<std::__ndk1::basic_string<char, std::__ndk1::char_traits<char>, std::__ndk1::allocator<char> >&&>, std::__ndk1::tuple<>)
PUBLIC 38618 0 __cxx_global_var_init
PUBLIC 38a54 0 __cxx_global_var_init.1
PUBLIC 38e90 0 geode::modifier::ModifyBase<geode::modifier::ModifyDerive<hook10<(anonymous namespace)::hook10Parent>, InfoLayer> >::~ModifyBase()
PUBLIC 38eac 0 geode::modifier::ModifyBase<geode::modifier::ModifyDerive<hook18<(anonymous namespace)::hook18Parent>, ProfilePage> >::~ModifyBase()
PUBLIC 38ec8 0 geode::modifier::ModifyDerive<hook10<(anonymous namespace)::hook10Parent>, InfoLayer>::apply()
PUBLIC 39248 0 geode::modifier::ModifyBase<geode::modifier::ModifyDerive<hook10<(anonymous namespace)::hook10Parent>, InfoLayer> >::apply()
PUBLIC 3924c 0 geode::modifier::AsStaticFunction_onCopyLevelID<hook10<(anonymous namespace)::hook10Parent>, void (hook10<(anonymous namespace)::hook10Parent>::*)(cocos2d::CCObject*)>::Impl<void (hook10<(anonymous namespace)::hook10Parent>::*)(cocos2d::CCObject*)>::function(hook10<(anonymous namespace)::hook10Parent>*, cocos2d::CCObject*)
PUBLIC 3931c 0 geode::modifier::ModifyDerive<hook18<(anonymous namespace)::hook18Parent>, ProfilePage>::apply()
PUBLIC 3969c 0 geode::modifier::ModifyBase<geode::modifier::ModifyDerive<hook18<(anonymous namespace)::hook18Parent>, ProfilePage> >::apply()
PUBLIC 396a0 0 geode::modifier::AsStaticFunction_onCopyName<hook18<(anonymous namespace)::hook18Parent>, void (hook18<(anonymous namespace)::hook18Parent>::*)(cocos2d::CCObject*)>::Impl<void (hook18<(anonymous namespace)::hook18Parent>::*)(cocos2d::CCObject*)>::function(hook18<(anonymous namespace)::hook18Parent>*, cocos2d::CCObject*)
PUBLIC 39734 0 geodeExecFunction6<(anonymous namespace)::ExecFuncUnique6>(geode::ModStateEvent*)
PUBLIC 39880 0 std::__ndk1::__function::__func<geodeExecFunction6<(anonymous namespace)::ExecFuncUnique6>(geode::ModStateEvent*)::{lambda(MenuLayer*)#1}, std::__ndk1::allocator<geodeExecFunction6<(anonymous namespace)::ExecFuncUnique6>(geode::ModStateEvent*)::{lambda(MenuLayer*)#1}>, void (MenuLayer*)>::~__func()
PUBLIC 39884 0 std::__ndk1::__function::__func<geodeExecFunction6<(anonymous namespace)::ExecFuncUnique6>(geode::ModStateEvent*)::{lambda(MenuLayer*)#1}, std::__ndk1::allocator<geodeExecFunction6<(anonymous namespace)::ExecFuncUnique6>(geode::ModStateEvent*)::{lambda(MenuLayer*)#1}>, void (MenuLayer*)>::__clone() const
PUBLIC 398a8 0 std::__ndk1::__function::__func<geodeExecFunction6<(anonymous namespace)::ExecFuncUnique6>(geode::ModStateEvent*)::{lambda(MenuLayer*)#1}, std::__ndk1::allocator<geodeExecFunction6<(anonymous namespace)::ExecFuncUnique6>(geode::ModStateEvent*)::{lambda(MenuLayer*)#1}>, void (MenuLayer*)>::__clone(std::__ndk1::__function::__base<void (MenuLayer*)>*) const
PUBLIC 398b8 0 std::__ndk1::__function::__func<geodeExecFunction6<(anonymous namespace)::ExecFuncUnique6>(geode::ModStateEvent*)::{lambda(MenuLayer*)#1}, std::__ndk1::allocator<geodeExecFunction6<(anonymous namespace)::ExecFuncUnique6>(geode::ModStateEvent*)::{lambda(MenuLayer*)#1}>, void (MenuLayer*)>::destroy()
PUBLIC 398bc 0 std::__ndk1::__function::__func<geodeExecFunction6<(anonymous namespace)::ExecFuncUnique6>(geode::ModStateEvent*)::{lambda(MenuLayer*)#1}, std::__ndk1::allocator<geodeExecFunction6<(anonymous namespace)::ExecFuncUnique6>(geode::ModStateEvent*)::{lambda(MenuLayer*)#1}>, void (MenuLayer*)>::destroy_deallocate()
PUBLIC 398c0 0 std::__ndk1::__function::__func<geodeExecFunction6<(anonymous namespace)::ExecFuncUnique6>(geode::ModStateEvent*)::{lambda(MenuLayer*)#1}, std::__ndk1::allocator<geodeExecFunction6<(anonymous namespace)::ExecFuncUnique6>(geode::ModStateEvent*)::{lambda(MenuLayer*)#1}>, void (MenuLayer*)>::operator()(MenuLayer*&&)
PUBLIC 39ed4 0 std::__ndk1::__function::__func<geodeExecFunction6<(anonymous namespace)::ExecFuncUnique6>(geode::ModStateEvent*)::{lambda(MenuLayer*)#1}, std::__ndk1::allocator<geodeExecFunction6<(anonymous namespace)::ExecFuncUnique6>(geode::ModStateEvent*)::{lambda(MenuLayer*)#1}>, void (MenuLayer*)>::target(std::type_info const&) const
PUBLIC 39ef0 0 std::__ndk1::__function::__func<geodeExecFunction6<(anonymous namespace)::ExecFuncUnique6>(geode::ModStateEvent*)::{lambda(MenuLayer*)#1}, std::__ndk1::allocator<geodeExecFunction6<(anonymous namespace)::ExecFuncUnique6>(geode::ModStateEvent*)::{lambda(MenuLayer*)#1}>, void (MenuLayer*)>::target_type() const
PUBLIC 39efc 0 geode::Mod::getSavedValue<std::__ndk1::vector<int, std::__ndk1::allocator<int> > >(std::__ndk1::basic_string_view<char, std::__ndk1::char_traits<char> >)
PUBLIC 3a7cc 0 geode::impl::ResultData<std::__ndk1::vector<int, std::__ndk1::allocator<int> >, std::__ndk1::basic_string<char, std::__ndk1::char_traits<char>, std::__ndk1::allocator<char> > >::~ResultData()
PUBLIC 3a840 0 geode::impl::ResultData<int, std::__ndk1::basic_string<char, std::__ndk1::char_traits<char>, std::__ndk1::allocator<char> > >::~ResultData()
PUBLIC 3a8b4 0 std::__ndk1::vector<int, std::__ndk1::allocator<int> >::__throw_length_error[abi:ne180000]() const
PUBLIC 3a8c8 0 _ZN5geode15UnwrapExceptionC2IRNSt6__ndk112basic_stringIcNS2_11char_traitsIcEENS2_9allocatorIcEEEEQsr4implE18IsStringStreamableIT_EEENS_4impl6ErrTagEOSA_
PUBLIC 3aa30 0 std::__ndk1::__variant_detail::__visitation::__base::__dispatcher<(unsigned long)0>::__dispatch[abi:ne180000]<std::__ndk1::__variant_detail::__dtor<std::__ndk1::__variant_detail::__traits<long, std::__ndk1::basic_string<char, std::__ndk1::char_traits<char>, std::__ndk1::allocator<char> > >, (std::__ndk1::__variant_detail::_Trait)1>::__destroy[abi:ne180000]()::{lambda(auto:1&)#1}, std::__ndk1::__variant_detail::__base<(std::__ndk1::__variant_detail::__traits<long, std::__ndk1::basic_string<char, std::__ndk1::char_traits<char>, std::__ndk1::allocator<char> > >)1, long, std::__ndk1::allocator<char> >&>(std::__ndk1::__variant_detail::__dtor<std::__ndk1::__variant_detail::__traits<long, std::__ndk1::basic_string<char, std::__ndk1::char_traits<char>, std::__ndk1::allocator<char> > >, (std::__ndk1::__variant_detail::_Trait)1>, std::__ndk1::__variant_detail::__base<(std::__ndk1::__variant_detail::__traits<long, std::__ndk1::basic_string<char, std::__ndk1::char_traits<char>, std::__ndk1::allocator<char> > >)1, long, std::__ndk1::allocator<char> >&)
PUBLIC 3aa34 0 std::__ndk1::__variant_detail::__visitation::__base::__dispatcher<(unsigned long)1>::__dispatch[abi:ne180000]<std::__ndk1::__variant_detail::__dtor<std::__ndk1::__variant_detail::__traits<long, std::__ndk1::basic_string<char, std::__ndk1::char_traits<char>, std::__ndk1::allocator<char> > >, (std::__ndk1::__variant_detail::_Trait)1>::__destroy[abi:ne180000]()::{lambda(auto:1&)#1}, std::__ndk1::__variant_detail::__base<(std::__ndk1::__variant_detail::__traits<long, std::__ndk1::basic_string<char, std::__ndk1::char_traits<char>, std::__ndk1::allocator<char> > >)1, long, std::__ndk1::allocator<char> >&>(std::__ndk1::__variant_detail::__dtor<std::__ndk1::__variant_detail::__traits<long, std::__ndk1::basic_string<char, std::__ndk1::char_traits<char>, std::__ndk1::allocator<char> > >, (std::__ndk1::__variant_detail::_Trait)1>, std::__ndk1::__variant_detail::__base<(std::__ndk1::__variant_detail::__traits<long, std::__ndk1::basic_string<char, std::__ndk1::char_traits<char>, std::__ndk1::allocator<char> > >)1, long, std::__ndk1::allocator<char> >&)
PUBLIC 3aa48 0 std::__ndk1::__variant_detail::__visitation::__base::__dispatcher<(unsigned long)0>::__dispatch[abi:ne180000]<std::__ndk1::__variant_detail::__dtor<std::__ndk1::__variant_detail::__traits<int, std::__ndk1::basic_string<char, std::__ndk1::char_traits<char>, std::__ndk1::allocator<char> > >, (std::__ndk1::__variant_detail::_Trait)1>::__destroy[abi:ne180000]()::{lambda(auto:1&)#1}, std::__ndk1::__variant_detail::__base<(std::__ndk1::__variant_detail::__traits<int, std::__ndk1::basic_string<char, std::__ndk1::char_traits<char>, std::__ndk1::allocator<char> > >)1, int, std::__ndk1::allocator<char> >&>(std::__ndk1::__variant_detail::__dtor<std::__ndk1::__variant_detail::__traits<int, std::__ndk1::basic_string<char, std::__ndk1::char_traits<char>, std::__ndk1::allocator<char> > >, (std::__ndk1::__variant_detail::_Trait)1>, std::__ndk1::__variant_detail::__base<(std::__ndk1::__variant_detail::__traits<int, std::__ndk1::basic_string<char, std::__ndk1::char_traits<char>, std::__ndk1::allocator<char> > >)1, int, std::__ndk1::allocator<char> >&)
PUBLIC 3aa4c 0 std::__ndk1::__variant_detail::__visitation::__base::__dispatcher<(unsigned long)1>::__dispatch[abi:ne180000]<std::__ndk1::__variant_detail::__dtor<std::__ndk1::__variant_detail::__traits<int, std::__ndk1::basic_string<char, std::__ndk1::char_traits<char>, std::__ndk1::allocator<char> > >, (std::__ndk1::__variant_detail::_Trait)1>::__destroy[abi:ne180000]()::{lambda(auto:1&)#1}, std::__ndk1::__variant_detail::__base<(std::__ndk1::__variant_detail::__traits<int, std::__ndk1::basic_string<char, std::__ndk1::char_traits<char>, std::__ndk1::allocator<char> > >)1, int, std::__ndk1::allocator<char> >&>(std::__ndk1::__variant_detail::__dtor<std::__ndk1::__variant_detail::__traits<int, std::__ndk1::basic_string<char, std::__ndk1::char_traits<char>, std::__ndk1::allocator<char> > >, (std::__ndk1::__variant_detail::_Trait)1>, std::__ndk1::__variant_detail::__base<(std::__ndk1::__variant_detail::__traits<int, std::__ndk1::basic_string<char, std::__ndk1::char_traits<char>, std::__ndk1::allocator<char> > >)1, int, std::__ndk1::allocator<char> >&)
PUBLIC 3aa60 0 std::__ndk1::__variant_detail::__visitation::__base::__dispatcher<(unsigned long)0>::__dispatch[abi:ne180000]<std::__ndk1::__variant_detail::__dtor<std::__ndk1::__variant_detail::__traits<std::__ndk1::vector<int, std::__ndk1::allocator<int> >, std::__ndk1::basic_string<char, std::__ndk1::char_traits<char>, std::__ndk1::vector<char> > >, (std::__ndk1::__variant_detail::_Trait)1>::__destroy[abi:ne180000]()::{lambda(auto:1&)#1}, std::__ndk1::__variant_detail::__base<(std::__ndk1::__variant_detail::__traits<std::__ndk1::vector<int, std::__ndk1::allocator<int> >, std::__ndk1::basic_string<char, std::__ndk1::char_traits<char>, std::__ndk1::vector<char> > >)1, std::__ndk1::allocator<int>, std::__ndk1::vector<char> >&>(std::__ndk1::__variant_detail::__dtor<std::__ndk1::__variant_detail::__traits<std::__ndk1::vector<int, std::__ndk1::allocator<int> >, std::__ndk1::basic_string<char, std::__ndk1::char_traits<char>, std::__ndk1::vector<char> > >, (std::__ndk1::__variant_detail::_Trait)1>, std::__ndk1::__variant_detail::__base<(std::__ndk1::__variant_detail::__traits<std::__ndk1::vector<int, std::__ndk1::allocator<int> >, std::__ndk1::basic_string<char, std::__ndk1::char_traits<char>, std::__ndk1::vector<char> > >)1, std::__ndk1::allocator<int>, std::__ndk1::vector<char> >&)
PUBLIC 3aa74 0 std::__ndk1::__variant_detail::__visitation::__base::__dispatcher<(unsigned long)1>::__dispatch[abi:ne180000]<std::__ndk1::__variant_detail::__dtor<std::__ndk1::__variant_detail::__traits<std::__ndk1::vector<int, std::__ndk1::allocator<int> >, std::__ndk1::basic_string<char, std::__ndk1::char_traits<char>, std::__ndk1::vector<char> > >, (std::__ndk1::__variant_detail::_Trait)1>::__destroy[abi:ne180000]()::{lambda(auto:1&)#1}, std::__ndk1::__variant_detail::__base<(std::__ndk1::__variant_detail::__traits<std::__ndk1::vector<int, std::__ndk1::allocator<int> >, std::__ndk1::basic_string<char, std::__ndk1::char_traits<char>, std::__ndk1::vector<char> > >)1, std::__ndk1::allocator<int>, std::__ndk1::vector<char> >&>(std::__ndk1::__variant_detail::__dtor<std::__ndk1::__variant_detail::__traits<std::__ndk1::vector<int, std::__ndk1::allocator<int> >, std::__ndk1::basic_string<char, std::__ndk1::char_traits<char>, std::__ndk1::vector<char> > >, (std::__ndk1::__variant_detail::_Trait)1>, std::__ndk1::__variant_detail::__base<(std::__ndk1::__variant_detail::__traits<std::__ndk1::vector<int, std::__ndk1::allocator<int> >, std::__ndk1::basic_string<char, std::__ndk1::char_traits<char>, std::__ndk1::vector<char> > >)1, std::__ndk1::allocator<int>, std::__ndk1::vector<char> >&)
PUBLIC 3aa88 0 std::__ndk1::vector<matjson::Value, std::__ndk1::allocator<matjson::Value> >::~vector[abi:ne180000]()
PUBLIC 3aaf0 0 std::__ndk1::vector<matjson::Value, std::__ndk1::allocator<matjson::Value> >::__throw_length_error[abi:ne180000]() const
PUBLIC 3ab04 0 _GLOBAL__sub_I_DemonKeyFix.cpp
PUBLIC 3ac30 0 geodeExecFunction8<(anonymous namespace)::ExecFuncUnique8>(geode::ModStateEvent*)
PUBLIC 3acac 0 geodeExecFunction14<(anonymous namespace)::ExecFuncUnique14>(geode::ModStateEvent*)
PUBLIC 3acf8 0 __cxx_global_var_init.2
PUBLIC 3b134 0 _GLOBAL__sub_I_DualWaveTrailPlayer2Fix.cpp
PUBLIC 3b2e8 0 geode::modifier::ModifyBase<geode::modifier::ModifyDerive<hook18<(anonymous namespace)::hook18Parent>, GJBaseGameLayer> >::~ModifyBase()
PUBLIC 3b304 0 geode::listenForSettingChangesV3<bool, void (*)(bool)>(std::__ndk1::basic_string_view<char, std::__ndk1::char_traits<char> >, void (*&&)(bool), geode::Mod*)
PUBLIC 3b554 0 geode::EventListener<geode::SettingChangedFilterV3>::EventListener(std::__ndk1::function<void (std::__ndk1::shared_ptr<geode::SettingV3>)>, geode::SettingChangedFilterV3)
PUBLIC 3b648 0 geode::SettingChangedFilterV3::~SettingChangedFilterV3()
PUBLIC 3b698 0 std::__ndk1::__function::__base<void (std::__ndk1::shared_ptr<geode::SettingV3>)>::~__base()
PUBLIC 3b69c 0 std::__ndk1::__function::__func<geode::listenForSettingChangesV3<bool, void (*)(bool)>(std::__ndk1::basic_string_view<char, std::__ndk1::char_traits<char> >, void (*&&)(bool), geode::Mod*)::{lambda(std::__ndk1::shared_ptr<geode::SettingV3>)#1}, std::__ndk1::allocator<geode::listenForSettingChangesV3<bool, void (*)(bool)>(std::__ndk1::basic_string_view<char, std::__ndk1::char_traits<char> >, void (*&&)(bool), geode::Mod*)::{lambda(std::__ndk1::shared_ptr<geode::SettingV3>)#1}>, void (std::__ndk1::shared_ptr<geode::SettingV3>)>::~__func()
PUBLIC 3b6a0 0 std::__ndk1::__function::__func<geode::listenForSettingChangesV3<bool, void (*)(bool)>(std::__ndk1::basic_string_view<char, std::__ndk1::char_traits<char> >, void (*&&)(bool), geode::Mod*)::{lambda(std::__ndk1::shared_ptr<geode::SettingV3>)#1}, std::__ndk1::allocator<geode::listenForSettingChangesV3<bool, void (*)(bool)>(std::__ndk1::basic_string_view<char, std::__ndk1::char_traits<char> >, void (*&&)(bool), geode::Mod*)::{lambda(std::__ndk1::shared_ptr<geode::SettingV3>)#1}>, void (std::__ndk1::shared_ptr<geode::SettingV3>)>::__clone() const
PUBLIC 3b6d4 0 std::__ndk1::__function::__func<geode::listenForSettingChangesV3<bool, void (*)(bool)>(std::__ndk1::basic_string_view<char, std::__ndk1::char_traits<char> >, void (*&&)(bool), geode::Mod*)::{lambda(std::__ndk1::shared_ptr<geode::SettingV3>)#1}, std::__ndk1::allocator<geode::listenForSettingChangesV3<bool, void (*)(bool)>(std::__ndk1::basic_string_view<char, std::__ndk1::char_traits<char> >, void (*&&)(bool), geode::Mod*)::{lambda(std::__ndk1::shared_ptr<geode::SettingV3>)#1}>, void (std::__ndk1::shared_ptr<geode::SettingV3>)>::__clone(std::__ndk1::__function::__base<void (std::__ndk1::shared_ptr<geode::SettingV3>)>*) const
PUBLIC 3b6e8 0 std::__ndk1::__function::__func<geode::listenForSettingChangesV3<bool, void (*)(bool)>(std::__ndk1::basic_string_view<char, std::__ndk1::char_traits<char> >, void (*&&)(bool), geode::Mod*)::{lambda(std::__ndk1::shared_ptr<geode::SettingV3>)#1}, std::__ndk1::allocator<geode::listenForSettingChangesV3<bool, void (*)(bool)>(std::__ndk1::basic_string_view<char, std::__ndk1::char_traits<char> >, void (*&&)(bool), geode::Mod*)::{lambda(std::__ndk1::shared_ptr<geode::SettingV3>)#1}>, void (std::__ndk1::shared_ptr<geode::SettingV3>)>::destroy()
PUBLIC 3b6ec 0 std::__ndk1::__function::__func<geode::listenForSettingChangesV3<bool, void (*)(bool)>(std::__ndk1::basic_string_view<char, std::__ndk1::char_traits<char> >, void (*&&)(bool), geode::Mod*)::{lambda(std::__ndk1::shared_ptr<geode::SettingV3>)#1}, std::__ndk1::allocator<geode::listenForSettingChangesV3<bool, void (*)(bool)>(std::__ndk1::basic_string_view<char, std::__ndk1::char_traits<char> >, void (*&&)(bool), geode::Mod*)::{lambda(std::__ndk1::shared_ptr<geode::SettingV3>)#1}>, void (std::__ndk1::shared_ptr<geode::SettingV3>)>::destroy_deallocate()
PUBLIC 3b6f0 0 std::__ndk1::__function::__func<geode::listenForSettingChangesV3<bool, void (*)(bool)>(std::__ndk1::basic_string_view<char, std::__ndk1::char_traits<char> >, void (*&&)(bool), geode::Mod*)::{lambda(std::__ndk1::shared_ptr<geode::SettingV3>)#1}, std::__ndk1::allocator<geode::listenForSettingChangesV3<bool, void (*)(bool)>(std::__ndk1::basic_string_view<char, std::__ndk1::char_traits<char> >, void (*&&)(bool), geode::Mod*)::{lambda(std::__ndk1::shared_ptr<geode::SettingV3>)#1}>, void (std::__ndk1::shared_ptr<geode::SettingV3>)>::operator()(std::__ndk1::shared_ptr<geode::SettingV3>&&)
PUBLIC 3b6f8 0 std::__ndk1::__function::__func<geode::listenForSettingChangesV3<bool, void (*)(bool)>(std::__ndk1::basic_string_view<char, std::__ndk1::char_traits<char> >, void (*&&)(bool), geode::Mod*)::{lambda(std::__ndk1::shared_ptr<geode::SettingV3>)#1}, std::__ndk1::allocator<geode::listenForSettingChangesV3<bool, void (*)(bool)>(std::__ndk1::basic_string_view<char, std::__ndk1::char_traits<char> >, void (*&&)(bool), geode::Mod*)::{lambda(std::__ndk1::shared_ptr<geode::SettingV3>)#1}>, void (std::__ndk1::shared_ptr<geode::SettingV3>)>::target(std::type_info const&) const
PUBLIC 3b714 0 std::__ndk1::__function::__func<geode::listenForSettingChangesV3<bool, void (*)(bool)>(std::__ndk1::basic_string_view<char, std::__ndk1::char_traits<char> >, void (*&&)(bool), geode::Mod*)::{lambda(std::__ndk1::shared_ptr<geode::SettingV3>)#1}, std::__ndk1::allocator<geode::listenForSettingChangesV3<bool, void (*)(bool)>(std::__ndk1::basic_string_view<char, std::__ndk1::char_traits<char> >, void (*&&)(bool), geode::Mod*)::{lambda(std::__ndk1::shared_ptr<geode::SettingV3>)#1}>, void (std::__ndk1::shared_ptr<geode::SettingV3>)>::target_type() const
PUBLIC 3b720 0 std::__ndk1::__invoke[abi:ne180000]<geode::listenForSettingChangesV3<bool, void (*)(bool)>(std::__ndk1::basic_string_view<char, std::__ndk1::char_traits<char> >, void (*&&)(bool), std::__ndk1::__invoke[abi:ne180000]::Mod*)::{lambda(std::__ndk1::shared_ptr<std::__ndk1::__invoke[abi:ne180000]::SettingV3>&)#1}, std::__ndk1::__invoke[abi:ne180000]::SettingV3>(geode::listenForSettingChangesV3<bool, void (*)(bool)>(std::__ndk1::basic_string_view<char, std::__ndk1::char_traits<char> >, void (*&&)(bool), std::__ndk1::__invoke[abi:ne180000]::Mod*)::{lambda(std::__ndk1::shared_ptr<std::__ndk1::__invoke[abi:ne180000]::SettingV3>&)#1}, geode::listenForSettingChangesV3<bool, void (*)(bool)>(std::__ndk1::basic_string_view<char, std::__ndk1::char_traits<char> >, void (*&&)(bool), std::__ndk1::__invoke[abi:ne180000]::Mod*)::{lambda(std::__ndk1::shared_ptr<std::__ndk1::__invoke[abi:ne180000]::SettingV3>&)#1})
PUBLIC 3b898 0 std::__ndk1::shared_ptr<geode::SettingV3>::~shared_ptr[abi:ne180000]()
PUBLIC 3b8e8 0 std::__ndk1::shared_ptr<geode::BoolSettingV3>::~shared_ptr[abi:ne180000]()
PUBLIC 3b938 0 geode::EventListener<geode::SettingChangedFilterV3>::getPool() const
PUBLIC 3b93c 0 geode::EventListener<geode::SettingChangedFilterV3>::handle(geode::Event*)
PUBLIC 3bab0 0 geode::EventListener<geode::SettingChangedFilterV3>::~EventListener()
PUBLIC 3bb4c 0 geode::EventListener<geode::SettingChangedFilterV3>::~EventListener()
PUBLIC 3bbf0 0 geodeExecFunction8<(anonymous namespace)::ExecFuncUnique8>(geode::ModStateEvent*)::{lambda(bool)#1}::__invoke(bool)
PUBLIC 3bbfc 0 geode::modifier::ModifyDerive<hook18<(anonymous namespace)::hook18Parent>, GJBaseGameLayer>::apply()
PUBLIC 3c00c 0 geode::modifier::ModifyBase<geode::modifier::ModifyDerive<hook18<(anonymous namespace)::hook18Parent>, GJBaseGameLayer> >::apply()
PUBLIC 3c010 0 geode::modifier::AsStaticFunction_toggleDualMode<hook18<(anonymous namespace)::hook18Parent>, void (hook18<(anonymous namespace)::hook18Parent>::*)(GameObject*, bool, PlayerObject*, bool)>::Impl<void (hook18<(anonymous namespace)::hook18Parent>::*)(GameObject*, bool, PlayerObject*, bool)>::function(hook18<(anonymous namespace)::hook18Parent>*, GameObject*, bool, PlayerObject*, bool)
PUBLIC 3c464 0 geode::cocos::CCArrayExt<PointNode*, PointNode>::~CCArrayExt()
PUBLIC 3c480 0 std::__ndk1::vector<cocos2d::CCPoint, std::__ndk1::allocator<cocos2d::CCPoint> >::__throw_length_error[abi:ne180000]() const
PUBLIC 3c494 0 __cxx_global_var_init
PUBLIC 3c914 0 geode::modifier::ModifyBase<geode::modifier::ModifyDerive<MBLevelListLayer, LevelListLayer> >::~ModifyBase()
PUBLIC 3c930 0 __cxx_global_var_init.1
PUBLIC 3cd6c 0 __cxx_global_var_init.2
PUBLIC 3d1a8 0 geode::modifier::ModifyBase<geode::modifier::ModifyDerive<hook27<(anonymous namespace)::hook27Parent>, LevelBrowserLayer> >::~ModifyBase()
PUBLIC 3d1c4 0 geode::modifier::ModifyBase<geode::modifier::ModifyDerive<hook52<(anonymous namespace)::hook52Parent>, LevelCell> >::~ModifyBase()
PUBLIC 3d1e0 0 geode::modifier::ModifyDerive<MBLevelListLayer, LevelListLayer>::apply()
PUBLIC 3d5b0 0 geode::modifier::ModifyBase<geode::modifier::ModifyDerive<MBLevelListLayer, LevelListLayer> >::apply()
PUBLIC 3d5b4 0 geode::modifier::AsStaticFunction_loadLevelsFinished<MBLevelListLayer, void (MBLevelListLayer::*)(cocos2d::CCArray*, char const*, int)>::Impl<void (MBLevelListLayer::*)(cocos2d::CCArray*, char const*, int)>::function(MBLevelListLayer*, cocos2d::CCArray*, char const*, int)
PUBLIC 3d6e8 0 geode::addresser::Addresser::addressOfVirtual<void, LevelListLayer, cocos2d::CCArray*, char const*, int>(void (LevelListLayer::*)(cocos2d::CCArray*, char const*, int))
PUBLIC 3d7b0 0 LevelListLayer::LevelListLayer(geode::ZeroConstructorType)
PUBLIC 3d8cc 0 std::__ndk1::vector<tulip::hook::AbstractType, std::__ndk1::allocator<tulip::hook::AbstractType> >::__throw_length_error[abi:ne180000]() const
PUBLIC 3d8e0 0 geode::modifier::FieldIntermediate<MBLevelListLayer, LevelListLayer>::self()
PUBLIC 3da70 0 geode::modifier::FieldIntermediate<MBLevelListLayer, LevelListLayer>::fieldDestructor(void*)
PUBLIC 3da84 0 geode::modifier::ModifyDerive<hook27<(anonymous namespace)::hook27Parent>, LevelBrowserLayer>::apply()
PUBLIC 3de54 0 geode::modifier::ModifyBase<geode::modifier::ModifyDerive<hook27<(anonymous namespace)::hook27Parent>, LevelBrowserLayer> >::apply()
PUBLIC 3de58 0 geode::modifier::AsStaticFunction_loadLevelsFailed<hook27<(anonymous namespace)::hook27Parent>, void (hook27<(anonymous namespace)::hook27Parent>::*)(char const*, int)>::Impl<void (hook27<(anonymous namespace)::hook27Parent>::*)(char const*, int)>::function(hook27<(anonymous namespace)::hook27Parent>*, char const*, int)
PUBLIC 3dfe8 0 geode::addresser::Addresser::addressOfVirtual<void, LevelBrowserLayer, char const*, int>(void (LevelBrowserLayer::*)(char const*, int))
PUBLIC 3e090 0 LevelBrowserLayer::LevelBrowserLayer(geode::ZeroConstructorType)
PUBLIC 3e140 0 fmt::v11::detail::value<fmt::v11::context>::format_custom_arg<gd::string, fmt::v11::formatter<gd::string, char, void> >(void*, fmt::v11::basic_format_parse_context<char>&, fmt::v11::context&)
PUBLIC 3e210 0 fmt::v11::formatter<gd::string, char, void>::format<fmt::v11::context>(gd::string const&, fmt::v11::context&) const
PUBLIC 3e370 0 fmt::v11::detail::parse_format_specs<char>(char const*, char const*, fmt::v11::detail::dynamic_format_specs<char>&, fmt::v11::basic_format_parse_context<char>&, fmt::v11::detail::type)
PUBLIC 3e824 0 fmt::v11::detail::handle_dynamic_spec<fmt::v11::detail::precision_checker, fmt::v11::context>(int&, fmt::v11::detail::arg_ref<fmt::v11::context::char_type>, fmt::v11::context&)
PUBLIC 3e938 0 fmt::v11::detail::get_dynamic_spec<fmt::v11::detail::precision_checker, fmt::v11::basic_format_arg<fmt::v11::context> >(fmt::v11::basic_format_arg<fmt::v11::context>)
PUBLIC 3e9cc 0 std::__ndk1::basic_string<char, std::__ndk1::char_traits<char>, std::__ndk1::allocator<char> >::__assign_external(char const*, unsigned long)
PUBLIC 3eaf4 0 std::__ndk1::basic_string<char, std::__ndk1::char_traits<char>, std::__ndk1::allocator<char> >::__assign_external(char const*)
PUBLIC 3eb28 0 geode::modifier::ModifyDerive<hook52<(anonymous namespace)::hook52Parent>, LevelCell>::apply()
PUBLIC 3ee8c 0 geode::modifier::ModifyBase<geode::modifier::ModifyDerive<hook52<(anonymous namespace)::hook52Parent>, LevelCell> >::apply()
PUBLIC 3ee90 0 geode::modifier::AsStaticFunction_onClick<hook52<(anonymous namespace)::hook52Parent>, void (hook52<(anonymous namespace)::hook52Parent>::*)(cocos2d::CCObject*)>::Impl<void (hook52<(anonymous namespace)::hook52Parent>::*)(cocos2d::CCObject*)>::function(hook52<(anonymous namespace)::hook52Parent>*, cocos2d::CCObject*)
PUBLIC 3ef8c 0 geodeExecFunction15<(anonymous namespace)::ExecFuncUnique15>(geode::ModStateEvent*)
PUBLIC 3f008 0 geodeExecFunction21<(anonymous namespace)::ExecFuncUnique21>(geode::ModStateEvent*)
PUBLIC 3f054 0 __cxx_global_var_init.2
PUBLIC 3f490 0 __cxx_global_var_init.3
PUBLIC 3f8cc 0 __cxx_global_var_init.4
PUBLIC 3fd08 0 _GLOBAL__sub_I_MirrorShowHitboxesFix.cpp
PUBLIC 3febc 0 geode::modifier::ModifyBase<geode::modifier::ModifyDerive<hook26<(anonymous namespace)::hook26Parent>, cocos2d::CCDrawNode> >::~ModifyBase()
PUBLIC 3fed8 0 geode::modifier::ModifyBase<geode::modifier::ModifyDerive<hook46<(anonymous namespace)::hook46Parent>, GJBaseGameLayer> >::~ModifyBase()
PUBLIC 3fef4 0 geode::modifier::ModifyBase<geode::modifier::ModifyDerive<hook54<(anonymous namespace)::hook54Parent>, GameObject> >::~ModifyBase()
PUBLIC 3ff10 0 geodeExecFunction15<(anonymous namespace)::ExecFuncUnique15>(geode::ModStateEvent*)::{lambda(bool)#1}::__invoke(bool)
PUBLIC 3ff1c 0 geode::modifier::ModifyDerive<hook26<(anonymous namespace)::hook26Parent>, cocos2d::CCDrawNode>::apply()
PUBLIC 40698 0 geode::modifier::ModifyBase<geode::modifier::ModifyDerive<hook26<(anonymous namespace)::hook26Parent>, cocos2d::CCDrawNode> >::apply()
PUBLIC 4069c 0 geode::modifier::AsStaticFunction_drawCircle<hook26<(anonymous namespace)::hook26Parent>, bool (hook26<(anonymous namespace)::hook26Parent>::*)(cocos2d::CCPoint const&, float, cocos2d::_ccColor4F const&, float, cocos2d::_ccColor4F const&, unsigned int)>::Impl<bool (hook26<(anonymous namespace)::hook26Parent>::*)(cocos2d::CCPoint const&, float, cocos2d::_ccColor4F const&, float, cocos2d::_ccColor4F const&, unsigned int)>::function(hook26<(anonymous namespace)::hook26Parent>*, cocos2d::CCPoint const&, float, cocos2d::_ccColor4F const&, float, cocos2d::_ccColor4F const&, unsigned int)
PUBLIC 406b4 0 geode::modifier::AsStaticFunction_drawPolygon<hook26<(anonymous namespace)::hook26Parent>, bool (hook26<(anonymous namespace)::hook26Parent>::*)(cocos2d::CCPoint*, unsigned int, cocos2d::_ccColor4F const&, float, cocos2d::_ccColor4F const&)>::Impl<bool (hook26<(anonymous namespace)::hook26Parent>::*)(cocos2d::CCPoint*, unsigned int, cocos2d::_ccColor4F const&, float, cocos2d::_ccColor4F const&)>::function(hook26<(anonymous namespace)::hook26Parent>*, cocos2d::CCPoint*, unsigned int, cocos2d::_ccColor4F const&, float, cocos2d::_ccColor4F const&)
PUBLIC 406cc 0 geode::modifier::ModifyDerive<hook46<(anonymous namespace)::hook46Parent>, GJBaseGameLayer>::apply()
PUBLIC 409f8 0 geode::modifier::ModifyBase<geode::modifier::ModifyDerive<hook46<(anonymous namespace)::hook46Parent>, GJBaseGameLayer> >::apply()
PUBLIC 409fc 0 geode::modifier::AsStaticFunction_updateDebugDraw<hook46<(anonymous namespace)::hook46Parent>, void (hook46<(anonymous namespace)::hook46Parent>::*)()>::Impl<void (hook46<(anonymous namespace)::hook46Parent>::*)()>::function(hook46<(anonymous namespace)::hook46Parent>*)
PUBLIC 40a4c 0 geode::addresser::Addresser::addressOfVirtual<void, GJBaseGameLayer, >(void (GJBaseGameLayer::*)())
PUBLIC 40b14 0 GJBaseGameLayer::GJBaseGameLayer(geode::ZeroConstructorType)
PUBLIC 412c4 0 GJGameState::GJGameState()
PUBLIC 4183c 0 geode::stl::unordered_map<int, int, geode::stl::hash<int>, geode::stl::equal_to<int>, std::__ndk1::allocator<std::__ndk1::pair<int const, int> > >::~unordered_map()
PUBLIC 418b4 0 geode::stl::unordered_set<int, geode::stl::hash<int>, geode::stl::equal_to<int>, std::__ndk1::allocator<int> >::~unordered_set()
PUBLIC 4192c 0 geode::stl::unordered_map<int, gd::string, geode::stl::hash<int>, geode::stl::equal_to<int>, std::__ndk1::allocator<std::__ndk1::pair<int const, gd::string> > >::~unordered_map()
PUBLIC 419b0 0 gd::map<std::__ndk1::pair<int, int>, int>::~map()
PUBLIC 419cc 0 geode::stl::unordered_map<int, gd::vector<LabelGameObject*>, geode::stl::hash<int>, geode::stl::equal_to<int>, std::__ndk1::allocator<std::__ndk1::pair<int const, gd::vector<LabelGameObject*> > > >::~unordered_map()
PUBLIC 41a58 0 geode::stl::unordered_map<int, std::__ndk1::pair<int, int>, geode::stl::hash<int>, geode::stl::equal_to<int>, std::__ndk1::allocator<std::__ndk1::pair<int const, std::__ndk1::pair<int, int> > > >::~unordered_map()
PUBLIC 41ad0 0 geode::stl::unordered_map<int, gd::vector<GameObject*>, geode::stl::hash<int>, geode::stl::equal_to<int>, std::__ndk1::allocator<std::__ndk1::pair<int const, gd::vector<GameObject*> > > >::~unordered_map()
PUBLIC 41b5c 0 geode::stl::unordered_map<int, cocos2d::CCPoint, geode::stl::hash<int>, geode::stl::equal_to<int>, std::__ndk1::allocator<std::__ndk1::pair<int const, cocos2d::CCPoint> > >::~unordered_map()
PUBLIC 41bd4 0 gd::vector<geode::stl::unordered_map<int, int, geode::stl::hash<int>, geode::stl::equal_to<int>, std::__ndk1::allocator<std::__ndk1::pair<int const, int> > > >::~vector()
PUBLIC 41cd8 0 GJGameState::~GJGameState()
PUBLIC 420d0 0 geode::stl::unordered_map<int, SongChannelState, geode::stl::hash<int>, geode::stl::equal_to<int>, std::__ndk1::allocator<std::__ndk1::pair<int const, SongChannelState> > >::~unordered_map()
PUBLIC 42148 0 gd::map<std::__ndk1::pair<int, int>, SFXTriggerInstance>::~map()
PUBLIC 42164 0 geode::stl::unordered_map<int, std::__ndk1::vector<int, std::__ndk1::allocator<int> >, geode::stl::hash<int>, geode::stl::equal_to<int>, std::__ndk1::allocator<std::__ndk1::pair<int const, std::__ndk1::vector<int, std::__ndk1::allocator<int> > > > >::~unordered_map()
PUBLIC 421f4 0 gd::vector<EnterEffectInstance>::~vector()
PUBLIC 4228c 0 geode::stl::unordered_map<int, std::__ndk1::vector<EnterEffectInstance, std::__ndk1::allocator<EnterEffectInstance> >, geode::stl::hash<int>, geode::stl::equal_to<int>, std::__ndk1::allocator<std::__ndk1::pair<int const, std::__ndk1::vector<EnterEffectInstance, std::__ndk1::allocator<EnterEffectInstance> > > > >::~unordered_map()
PUBLIC 422c8 0 gd::map<std::__ndk1::pair<GJGameEvent, int>, int>::~map()
PUBLIC 422e4 0 gd::map<std::__ndk1::pair<GJGameEvent, int>, gd::vector<EventTriggerInstance> >::~map()
PUBLIC 42300 0 geode::stl::unordered_map<int, EnhancedGameObject*, geode::stl::hash<int>, geode::stl::equal_to<int>, std::__ndk1::allocator<std::__ndk1::pair<int const, EnhancedGameObject*> > >::~unordered_map()
PUBLIC 42378 0 geode::stl::unordered_map<int, GameObjectPhysics, geode::stl::hash<int>, geode::stl::equal_to<int>, std::__ndk1::allocator<std::__ndk1::pair<int const, GameObjectPhysics> > >::~unordered_map()
PUBLIC 423f0 0 geode::stl::unordered_map<int, GJValueTween, geode::stl::hash<int>, geode::stl::equal_to<int>, std::__ndk1::allocator<std::__ndk1::pair<int const, GJValueTween> > >::~unordered_map()
PUBLIC 42468 0 geode::stl::unordered_map<int, bool, geode::stl::hash<int>, geode::stl::equal_to<int>, std::__ndk1::allocator<std::__ndk1::pair<int const, bool> > >::~unordered_map()
PUBLIC 424e0 0 gd::map<std::__ndk1::pair<GJGameEvent, int>, gd::vector<EventTriggerInstance> >::map(std::__ndk1::map<std::__ndk1::pair<GJGameEvent, int>, gd::vector<EventTriggerInstance>, std::__ndk1::less<std::__ndk1::pair<GJGameEvent, int> >, std::__ndk1::allocator<std::__ndk1::pair<std::__ndk1::pair<GJGameEvent, int> const, gd::vector<EventTriggerInstance> > > >)
PUBLIC 426ac 0 gd::map<std::__ndk1::pair<GJGameEvent, int>, gd::vector<EventTriggerInstance> >::insert_pair(std::__ndk1::pair<std::__ndk1::pair<GJGameEvent, int>, gd::vector<EventTriggerInstance> > const&)
PUBLIC 42964 0 std::__ndk1::pair<std::__ndk1::pair<GJGameEvent, int>, gd::vector<EventTriggerInstance> >::~pair()
PUBLIC 429e4 0 std::__ndk1::pair<std::__ndk1::pair<GJGameEvent, int> const, gd::vector<EventTriggerInstance> >::~pair()
PUBLIC 42a64 0 gd::vector<EventTriggerInstance>::vector(gd::vector<EventTriggerInstance> const&)
PUBLIC 42c04 0 geode::stl::_rb_insert_rebalance(bool, geode::stl::_rb_tree_base*, geode::stl::_rb_tree_base*, geode::stl::_rb_tree_base&)
PUBLIC 42ebc 0 gd::vector<EventTriggerInstance>::operator=(gd::vector<EventTriggerInstance> const&)
PUBLIC 43078 0 gd::vector<EventTriggerInstance>::~vector()
PUBLIC 430f8 0 std::__ndk1::__tree<std::__ndk1::__value_type<std::__ndk1::pair<GJGameEvent, int>, gd::vector<EventTriggerInstance> >, std::__ndk1::__map_value_compare<std::__ndk1::pair<GJGameEvent, int>, std::__ndk1::__value_type<std::__ndk1::pair<GJGameEvent, int>, gd::vector<EventTriggerInstance> >, std::__ndk1::less<std::__ndk1::pair<GJGameEvent, int> >, true>, std::__ndk1::allocator<std::__ndk1::__value_type<std::__ndk1::pair<GJGameEvent, int>, gd::vector<EventTriggerInstance> > > >::destroy(std::__ndk1::__tree_node<std::__ndk1::__value_type<std::__ndk1::pair<GJGameEvent, int>, gd::vector<EventTriggerInstance> >, void*>*)
PUBLIC 43190 0 gd::map<std::__ndk1::pair<int, int>, SFXTriggerInstance>::erase(geode::stl::_rb_tree_node<std::__ndk1::pair<std::__ndk1::pair<int, int>, SFXTriggerInstance> >*)
PUBLIC 431e4 0 gd::map<int, EnterEffectAnimValue>::erase(geode::stl::_rb_tree_node<std::__ndk1::pair<int, EnterEffectAnimValue> >*)
PUBLIC 43238 0 geode::stl::_Hashtable<int, std::__ndk1::pair<int const, std::__ndk1::vector<EnterEffectInstance, std::__ndk1::allocator<EnterEffectInstance> > >, std::__ndk1::allocator<std::__ndk1::pair<int const, std::__ndk1::vector<EnterEffectInstance, std::__ndk1::allocator<EnterEffectInstance> > > >, geode::stl::__detail::_Select1st, geode::stl::equal_to<int>, geode::stl::hash<int>, geode::stl::__detail::_Mod_range_hashing, geode::stl::__detail::_Default_ranged_hash, geode::stl::__detail::_Prime_rehash_policy, geode::stl::__detail::_Hashtable_traits<false, false, true> >::clear()
PUBLIC 432e0 0 gd::map<std::__ndk1::pair<GJGameEvent, int>, int>::erase(geode::stl::_rb_tree_node<std::__ndk1::pair<std::__ndk1::pair<GJGameEvent, int>, int> >*)
PUBLIC 43334 0 gd::map<std::__ndk1::pair<GJGameEvent, int>, gd::vector<EventTriggerInstance> >::erase(geode::stl::_rb_tree_node<std::__ndk1::pair<std::__ndk1::pair<GJGameEvent, int>, gd::vector<EventTriggerInstance> > >*)
PUBLIC 433dc 0 gd::map<std::__ndk1::pair<int, int>, int>::erase(geode::stl::_rb_tree_node<std::__ndk1::pair<std::__ndk1::pair<int, int>, int> >*)
PUBLIC 43430 0 geode::modifier::ModifyDerive<hook54<(anonymous namespace)::hook54Parent>, GameObject>::apply()
PUBLIC 4377c 0 geode::modifier::ModifyBase<geode::modifier::ModifyDerive<hook54<(anonymous namespace)::hook54Parent>, GameObject> >::apply()
PUBLIC 43780 0 geode::modifier::AsStaticFunction_determineSlopeDirection<hook54<(anonymous namespace)::hook54Parent>, void (hook54<(anonymous namespace)::hook54Parent>::*)()>::Impl<void (hook54<(anonymous namespace)::hook54Parent>::*)()>::function(hook54<(anonymous namespace)::hook54Parent>*)
PUBLIC 43794 0 __cxx_global_var_init
PUBLIC 43bd0 0 geode::modifier::ModifyBase<geode::modifier::ModifyDerive<hook6<(anonymous namespace)::hook6Parent>, LevelBrowserLayer> >::~ModifyBase()
PUBLIC 43bec 0 geode::modifier::ModifyDerive<hook6<(anonymous namespace)::hook6Parent>, LevelBrowserLayer>::apply()
PUBLIC 43f28 0 geode::modifier::ModifyBase<geode::modifier::ModifyDerive<hook6<(anonymous namespace)::hook6Parent>, LevelBrowserLayer> >::apply()
PUBLIC 43f2c 0 geode::modifier::AsStaticFunction_getSearchTitle<hook6<(anonymous namespace)::hook6Parent>, gd::string (hook6<(anonymous namespace)::hook6Parent>::*)()>::Impl<gd::string (hook6<(anonymous namespace)::hook6Parent>::*)()>::function(hook6<(anonymous namespace)::hook6Parent>*)
PUBLIC 446fc 0 __cxx_global_var_init
PUBLIC 44b38 0 geode::modifier::ModifyBase<geode::modifier::ModifyDerive<hook6<(anonymous namespace)::hook6Parent>, ProfilePage> >::~ModifyBase()
PUBLIC 44b54 0 geode::modifier::ModifyDerive<hook6<(anonymous namespace)::hook6Parent>, ProfilePage>::apply()
PUBLIC 44ed8 0 geode::modifier::ModifyBase<geode::modifier::ModifyDerive<hook6<(anonymous namespace)::hook6Parent>, ProfilePage> >::apply()
PUBLIC 44edc 0 geode::modifier::AsStaticFunction_loadPageFromUserInfo<hook6<(anonymous namespace)::hook6Parent>, void (hook6<(anonymous namespace)::hook6Parent>::*)(GJUserScore*)>::Impl<void (hook6<(anonymous namespace)::hook6Parent>::*)(GJUserScore*)>::function(hook6<(anonymous namespace)::hook6Parent>*, GJUserScore*)
PUBLIC 4501c 0 std::__ndk1::unordered_map<int, bool, std::__ndk1::hash<int>, std::__ndk1::equal_to<int>, std::__ndk1::allocator<std::__ndk1::pair<int const, bool> > >::~unordered_map[abi:ne180000]()
PUBLIC 45068 0 std::__ndk1::shared_mutex::~shared_mutex[abi:ne180000]()
PUBLIC 45098 0 populateDownloadedSongsFast()
PUBLIC 45a1c 0 populateDownloadedSongsFast()::$_0::~$_0()
PUBLIC 45a58 0 geode::cocos::CCDictionaryExt<std::__ndk1::basic_string<char, std::__ndk1::char_traits<char>, std::__ndk1::allocator<char> >, cocos2d::CCString*, cocos2d::CCString>::~CCDictionaryExt()
PUBLIC 45a74 0 std::__ndk1::unique_lock<std::__ndk1::shared_mutex>::~unique_lock[abi:ne180000]()
PUBLIC 45a94 0 geodeExecFunction163<(anonymous namespace)::ExecFuncUnique163>(geode::ModStateEvent*)
PUBLIC 45be0 0 __cxx_global_var_init.3
PUBLIC 46060 0 geode::modifier::ModifyBase<geode::modifier::ModifyDerive<BIMusicDownloadManager, MusicDownloadManager> >::~ModifyBase()
PUBLIC 4607c 0 __cxx_global_var_init.4
PUBLIC 464b8 0 __cxx_global_var_init.6
PUBLIC 468f4 0 _GLOBAL__sub_I_SongBrowserLagFix.cpp
PUBLIC 46a70 0 geode::modifier::ModifyBase<geode::modifier::ModifyDerive<hook106<(anonymous namespace)::hook106Parent>, GJSongBrowser> >::~ModifyBase()
PUBLIC 46a8c 0 __cxx_global_var_init.5
PUBLIC 46f0c 0 geode::modifier::ModifyBase<geode::modifier::ModifyDerive<BISBLLevelInfoLayer, LevelInfoLayer> >::~ModifyBase()
PUBLIC 46f28 0 geode::modifier::ModifyBase<geode::modifier::ModifyDerive<hook132<(anonymous namespace)::hook132Parent>, CustomSongWidget> >::~ModifyBase()
PUBLIC 46f44 0 std::__ndk1::__thread_proxy[abi:ne180000]<std::__ndk1::tuple<std::__ndk1::unique_ptr<std::__ndk1::__thread_struct, std::__ndk1::default_delete<std::__ndk1::unique_ptr> >, populateDownloadedSongsFast()::$_0> >(std::__ndk1::tuple<std::__ndk1::unique_ptr<std::__ndk1::__thread_struct, std::__ndk1::default_delete<std::__ndk1::unique_ptr> >, populateDownloadedSongsFast()::$_0>)
PUBLIC 473a4 0 std::__ndk1::unique_ptr<std::__ndk1::tuple<std::__ndk1::unique_ptr<std::__ndk1::__thread_struct, std::__ndk1::default_delete<std::__ndk1::__thread_struct> >, populateDownloadedSongsFast()::$_0>, std::__ndk1::default_delete<std::__ndk1::tuple<std::__ndk1::unique_ptr<std::__ndk1::__thread_struct, std::__ndk1::default_delete<std::__ndk1::__thread_struct> >, populateDownloadedSongsFast()::$_0> > >::~unique_ptr[abi:ne180000]()
PUBLIC 4740c 0 std::__ndk1::__tuple_leaf<(unsigned long)0, std::__ndk1::unique_ptr<std::__ndk1::__thread_struct, std::__ndk1::default_delete<std::__ndk1::__thread_struct> >, false>::~__tuple_leaf()
PUBLIC 47448 0 std::__ndk1::__hash_table<std::__ndk1::__hash_value_type<int, bool>, std::__ndk1::__unordered_map_hasher<int, std::__ndk1::__hash_value_type<int, bool>, std::__ndk1::hash<int>, std::__ndk1::equal_to<int>, true>, std::__ndk1::__unordered_map_equal<int, std::__ndk1::__hash_value_type<int, bool>, std::__ndk1::equal_to<int>, std::__ndk1::hash<int>, true>, std::__ndk1::allocator<std::__ndk1::__hash_value_type<int, bool> > >::__emplace_unique_key_args<int, std::__ndk1::piecewise_construct_t const&, std::__ndk1::tuple<int const&>, std::__ndk1::tuple<> >(int const&, std::__ndk1::piecewise_construct_t const&, std::__ndk1::tuple<int const&>, std::__ndk1::tuple<>)
PUBLIC 4791c 0 geode::modifier::ModifyDerive<BIMusicDownloadManager, MusicDownloadManager>::apply()
PUBLIC 48888 0 geode::modifier::ModifyBase<geode::modifier::ModifyDerive<BIMusicDownloadManager, MusicDownloadManager> >::apply()
PUBLIC 4888c 0 geode::Hook::create<void (*)(BIMusicDownloadManager*, int)>(void*, void (*)(BIMusicDownloadManager*, int), std::__ndk1::basic_string<char, std::__ndk1::char_traits<char>, std::__ndk1::allocator<char> > const&, tulip::hook::TulipConvention, tulip::hook::HookMetadata const&)
PUBLIC 48a10 0 geode::modifier::AsStaticFunction_deleteSong<BIMusicDownloadManager, void (BIMusicDownloadManager::*)(int)>::Impl<void (BIMusicDownloadManager::*)(int)>::function(BIMusicDownloadManager*, int)
PUBLIC 48b30 0 geode::modifier::AsStaticFunction_downloadCustomSong<BIMusicDownloadManager, void (BIMusicDownloadManager::*)(int)>::Impl<void (BIMusicDownloadManager::*)(int)>::function(BIMusicDownloadManager*, int)
PUBLIC 48c84 0 geode::modifier::AsStaticFunction_downloadSong<BIMusicDownloadManager, void (BIMusicDownloadManager::*)(int)>::Impl<void (BIMusicDownloadManager::*)(int)>::function(BIMusicDownloadManager*, int)
PUBLIC 48dd8 0 geode::modifier::AsStaticFunction_isSongDownloaded<BIMusicDownloadManager, bool (BIMusicDownloadManager::*)(int)>::Impl<bool (BIMusicDownloadManager::*)(int)>::function(BIMusicDownloadManager*, int)
PUBLIC 48fe8 0 geode::modifier::AsStaticFunction_limitDownloadedSongs<BIMusicDownloadManager, void (BIMusicDownloadManager::*)()>::Impl<void (BIMusicDownloadManager::*)()>::function(BIMusicDownloadManager*)
PUBLIC 490a8 0 geode::modifier::AsStaticFunction_onDownloadSongCompleted<BIMusicDownloadManager, void (BIMusicDownloadManager::*)(cocos2d::extension::CCHttpClient*, cocos2d::extension::CCHttpResponse*)>::Impl<void (BIMusicDownloadManager::*)(cocos2d::extension::CCHttpClient*, cocos2d::extension::CCHttpResponse*)>::function(BIMusicDownloadManager*, cocos2d::extension::CCHttpClient*, cocos2d::extension::CCHttpResponse*)
PUBLIC 49264 0 std::__ndk1::__hash_table<std::__ndk1::__hash_value_type<int, bool>, std::__ndk1::__unordered_map_hasher<int, std::__ndk1::__hash_value_type<int, bool>, std::__ndk1::hash<int>, std::__ndk1::equal_to<int>, true>, std::__ndk1::__unordered_map_equal<int, std::__ndk1::__hash_value_type<int, bool>, std::__ndk1::equal_to<int>, std::__ndk1::hash<int>, true>, std::__ndk1::allocator<std::__ndk1::__hash_value_type<int, bool> > >::__erase_unique<int>(int const&)
PUBLIC 49448 0 std::__ndk1::shared_lock<std::__ndk1::shared_mutex>::~shared_lock[abi:ne180000]()
PUBLIC 49468 0 geode::modifier::ModifyDerive<hook106<(anonymous namespace)::hook106Parent>, GJSongBrowser>::apply()
PUBLIC 4982c 0 geode::modifier::ModifyBase<geode::modifier::ModifyDerive<hook106<(anonymous namespace)::hook106Parent>, GJSongBrowser> >::apply()
PUBLIC 49830 0 geode::modifier::AsStaticFunction_FLAlert_Clicked<hook106<(anonymous namespace)::hook106Parent>, void (hook106<(anonymous namespace)::hook106Parent>::*)(FLAlertLayer*, bool)>::Impl<void (hook106<(anonymous namespace)::hook106Parent>::*)(FLAlertLayer*, bool)>::function(hook106<(anonymous namespace)::hook106Parent>*, FLAlertLayer*, bool)
PUBLIC 498e8 0 geode::addresser::Addresser::addressOfVirtual<void, GJSongBrowser, FLAlertLayer*, bool>(void (GJSongBrowser::*)(FLAlertLayer*, bool))
PUBLIC 49990 0 GJSongBrowser::GJSongBrowser(geode::ZeroConstructorType)
PUBLIC 49a28 0 geode::modifier::ModifyDerive<BISBLLevelInfoLayer, LevelInfoLayer>::apply()
PUBLIC 4a0a0 0 geode::modifier::ModifyBase<geode::modifier::ModifyDerive<BISBLLevelInfoLayer, LevelInfoLayer> >::apply()
PUBLIC 4a0a4 0 geode::modifier::AsStaticFunction_init<BISBLLevelInfoLayer, bool (BISBLLevelInfoLayer::*)(GJGameLevel*, bool)>::Impl<bool (BISBLLevelInfoLayer::*)(GJGameLevel*, bool)>::function(BISBLLevelInfoLayer*, GJGameLevel*, bool)
PUBLIC 4a200 0 geode::modifier::AsStaticFunction_onPlay<BISBLLevelInfoLayer, void (BISBLLevelInfoLayer::*)(cocos2d::CCObject*)>::Impl<void (BISBLLevelInfoLayer::*)(cocos2d::CCObject*)>::function(BISBLLevelInfoLayer*, cocos2d::CCObject*)
PUBLIC 4a354 0 geode::modifier::ModifyDerive<hook132<(anonymous namespace)::hook132Parent>, CustomSongWidget>::apply()
PUBLIC 4a7e4 0 geode::modifier::ModifyBase<geode::modifier::ModifyDerive<hook132<(anonymous namespace)::hook132Parent>, CustomSongWidget> >::apply()
PUBLIC 4a7e8 0 geode::Hook::create<void (*)(hook132<(anonymous namespace)::hook132Parent>*)>(void*, void (*)(hook132<(anonymous namespace)::hook132Parent>*), std::__ndk1::basic_string<char, std::__ndk1::char_traits<char>, std::__ndk1::allocator<char> > const&, tulip::hook::TulipConvention, tulip::hook::HookMetadata const&)
PUBLIC 4a91c 0 geode::modifier::AsStaticFunction_deleteSong<hook132<(anonymous namespace)::hook132Parent>, void (hook132<(anonymous namespace)::hook132Parent>::*)()>::Impl<void (hook132<(anonymous namespace)::hook132Parent>::*)()>::function(hook132<(anonymous namespace)::hook132Parent>*)
PUBLIC 4aa48 0 geode::modifier::AsStaticFunction_updateSongInfo<hook132<(anonymous namespace)::hook132Parent>, void (hook132<(anonymous namespace)::hook132Parent>::*)()>::Impl<void (hook132<(anonymous namespace)::hook132Parent>::*)()>::function(hook132<(anonymous namespace)::hook132Parent>*)
PUBLIC 4ab90 0 std::__ndk1::__function::__func<geodeExecFunction163<(anonymous namespace)::ExecFuncUnique163>(geode::ModStateEvent*)::{lambda(MenuLayer*)#1}, std::__ndk1::allocator<geodeExecFunction163<(anonymous namespace)::ExecFuncUnique163>(geode::ModStateEvent*)::{lambda(MenuLayer*)#1}>, void (MenuLayer*)>::~__func()
PUBLIC 4ab94 0 std::__ndk1::__function::__func<geodeExecFunction163<(anonymous namespace)::ExecFuncUnique163>(geode::ModStateEvent*)::{lambda(MenuLayer*)#1}, std::__ndk1::allocator<geodeExecFunction163<(anonymous namespace)::ExecFuncUnique163>(geode::ModStateEvent*)::{lambda(MenuLayer*)#1}>, void (MenuLayer*)>::__clone() const
PUBLIC 4abb8 0 std::__ndk1::__function::__func<geodeExecFunction163<(anonymous namespace)::ExecFuncUnique163>(geode::ModStateEvent*)::{lambda(MenuLayer*)#1}, std::__ndk1::allocator<geodeExecFunction163<(anonymous namespace)::ExecFuncUnique163>(geode::ModStateEvent*)::{lambda(MenuLayer*)#1}>, void (MenuLayer*)>::__clone(std::__ndk1::__function::__base<void (MenuLayer*)>*) const
PUBLIC 4abc8 0 std::__ndk1::__function::__func<geodeExecFunction163<(anonymous namespace)::ExecFuncUnique163>(geode::ModStateEvent*)::{lambda(MenuLayer*)#1}, std::__ndk1::allocator<geodeExecFunction163<(anonymous namespace)::ExecFuncUnique163>(geode::ModStateEvent*)::{lambda(MenuLayer*)#1}>, void (MenuLayer*)>::destroy()
PUBLIC 4abcc 0 std::__ndk1::__function::__func<geodeExecFunction163<(anonymous namespace)::ExecFuncUnique163>(geode::ModStateEvent*)::{lambda(MenuLayer*)#1}, std::__ndk1::allocator<geodeExecFunction163<(anonymous namespace)::ExecFuncUnique163>(geode::ModStateEvent*)::{lambda(MenuLayer*)#1}>, void (MenuLayer*)>::destroy_deallocate()
PUBLIC 4abd0 0 std::__ndk1::__function::__func<geodeExecFunction163<(anonymous namespace)::ExecFuncUnique163>(geode::ModStateEvent*)::{lambda(MenuLayer*)#1}, std::__ndk1::allocator<geodeExecFunction163<(anonymous namespace)::ExecFuncUnique163>(geode::ModStateEvent*)::{lambda(MenuLayer*)#1}>, void (MenuLayer*)>::operator()(MenuLayer*&&)
PUBLIC 4ac4c 0 std::__ndk1::__function::__func<geodeExecFunction163<(anonymous namespace)::ExecFuncUnique163>(geode::ModStateEvent*)::{lambda(MenuLayer*)#1}, std::__ndk1::allocator<geodeExecFunction163<(anonymous namespace)::ExecFuncUnique163>(geode::ModStateEvent*)::{lambda(MenuLayer*)#1}>, void (MenuLayer*)>::target(std::type_info const&) const
PUBLIC 4ac68 0 std::__ndk1::__function::__func<geodeExecFunction163<(anonymous namespace)::ExecFuncUnique163>(geode::ModStateEvent*)::{lambda(MenuLayer*)#1}, std::__ndk1::allocator<geodeExecFunction163<(anonymous namespace)::ExecFuncUnique163>(geode::ModStateEvent*)::{lambda(MenuLayer*)#1}>, void (MenuLayer*)>::target_type() const
PUBLIC 4ac74 0 patch(unsigned long, std::initializer_list<unsigned char>, std::initializer_list<unsigned char>)
PUBLIC 4ae28 0 geode::impl::ResultData<geode::Patch*, std::__ndk1::basic_string<char, std::__ndk1::char_traits<char>, std::__ndk1::allocator<char> > >::~ResultData()
PUBLIC 4ae9c 0 geode::Mod::patch(void*, std::__ndk1::vector<unsigned char, std::__ndk1::allocator<unsigned char> > const&)
PUBLIC 4b0a0 0 std::__ndk1::shared_ptr<geode::Patch>::~shared_ptr[abi:ne180000]()
PUBLIC 4b0f0 0 std::__ndk1::vector<unsigned char, std::__ndk1::allocator<unsigned char> >::__throw_length_error[abi:ne180000]() const
PUBLIC 4b104 0 std::__ndk1::__variant_detail::__visitation::__base::__dispatcher<(unsigned long)0>::__dispatch[abi:ne180000]<std::__ndk1::__variant_detail::__dtor<std::__ndk1::__variant_detail::__traits<geode::Patch*, std::__ndk1::basic_string<char, std::__ndk1::char_traits<char>, std::__ndk1::allocator<char> > >, (std::__ndk1::__variant_detail::_Trait)1>::__destroy[abi:ne180000]()::{lambda(auto:1&)#1}, std::__ndk1::__variant_detail::__base<(std::__ndk1::__variant_detail::__traits<geode::Patch*, std::__ndk1::basic_string<char, std::__ndk1::char_traits<char>, std::__ndk1::allocator<char> > >)1, geode::Patch, std::__ndk1::allocator<char> >&>(std::__ndk1::__variant_detail::__dtor<std::__ndk1::__variant_detail::__traits<geode::Patch*, std::__ndk1::basic_string<char, std::__ndk1::char_traits<char>, std::__ndk1::allocator<char> > >, (std::__ndk1::__variant_detail::_Trait)1>, std::__ndk1::__variant_detail::__base<(std::__ndk1::__variant_detail::__traits<geode::Patch*, std::__ndk1::basic_string<char, std::__ndk1::char_traits<char>, std::__ndk1::allocator<char> > >)1, geode::Patch, std::__ndk1::allocator<char> >&)
PUBLIC 4b108 0 std::__ndk1::__variant_detail::__visitation::__base::__dispatcher<(unsigned long)1>::__dispatch[abi:ne180000]<std::__ndk1::__variant_detail::__dtor<std::__ndk1::__variant_detail::__traits<geode::Patch*, std::__ndk1::basic_string<char, std::__ndk1::char_traits<char>, std::__ndk1::allocator<char> > >, (std::__ndk1::__variant_detail::_Trait)1>::__destroy[abi:ne180000]()::{lambda(auto:1&)#1}, std::__ndk1::__variant_detail::__base<(std::__ndk1::__variant_detail::__traits<geode::Patch*, std::__ndk1::basic_string<char, std::__ndk1::char_traits<char>, std::__ndk1::allocator<char> > >)1, geode::Patch, std::__ndk1::allocator<char> >&>(std::__ndk1::__variant_detail::__dtor<std::__ndk1::__variant_detail::__traits<geode::Patch*, std::__ndk1::basic_string<char, std::__ndk1::char_traits<char>, std::__ndk1::allocator<char> > >, (std::__ndk1::__variant_detail::_Trait)1>, std::__ndk1::__variant_detail::__base<(std::__ndk1::__variant_detail::__traits<geode::Patch*, std::__ndk1::basic_string<char, std::__ndk1::char_traits<char>, std::__ndk1::allocator<char> > >)1, geode::Patch, std::__ndk1::allocator<char> >&)
PUBLIC 4b11c 0 _GLOBAL__sub_I_UserIdSavedFix.cpp
PUBLIC 4b24c 0 std::__ndk1::__optional_destruct_base<geode::Task<geode::utils::web::WebResponse, geode::utils::web::WebProgress>, false>::~__optional_destruct_base[abi:ne180000]()
PUBLIC 4b2a4 0 MiscBugfixes::onNoticesFailed(cocos2d::CCLayer*, std::__ndk1::basic_string<char, std::__ndk1::char_traits<char>, std::__ndk1::allocator<char> > const&)
PUBLIC 4b394 0 geode::Task<geode::utils::web::WebResponse, geode::utils::web::WebProgress>::~Task()
PUBLIC 4b3e4 0 __cxx_global_var_init.7
PUBLIC 4b820 0 _GLOBAL__sub_I__Analytics.cpp
PUBLIC 4b83c 0 geode::modifier::ModifyBase<geode::modifier::ModifyDerive<hook116<(anonymous namespace)::hook116Parent>, MenuLayer> >::~ModifyBase()
PUBLIC 4b858 0 std::__ndk1::shared_ptr<geode::Task<geode::utils::web::WebResponse, geode::utils::web::WebProgress>::Handle>::~shared_ptr[abi:ne180000]()
PUBLIC 4b8a8 0 geode::Task<geode::utils::web::WebResponse, geode::utils::web::WebProgress>::cancel(std::__ndk1::shared_ptr<geode::Task<geode::utils::web::WebResponse, geode::utils::web::WebProgress>::Handle>, bool)
PUBLIC 4ba0c 0 geode::Task<geode::utils::web::WebResponse, geode::utils::web::WebProgress>::finish(std::__ndk1::shared_ptr<geode::Task<geode::utils::web::WebResponse, geode::utils::web::WebProgress>::Handle>, geode::utils::web::WebResponse&&)
PUBLIC 4bbb0 0 MiscBugfixes::loadImportantNotices(cocos2d::CCLayer*)::$_0::operator()(geode::utils::web::WebResponse*) const
PUBLIC 4c434 0 geode::utils::web::WebResponse::~WebResponse()
PUBLIC 4c484 0 std::__ndk1::__shared_ptr_emplace<geode::Task<geode::utils::web::WebResponse, geode::utils::web::WebProgress>::Handle, std::__ndk1::allocator<geode::Task<geode::utils::web::WebResponse, geode::utils::web::WebProgress>::Handle> >::~__shared_ptr_emplace()
PUBLIC 4c494 0 std::__ndk1::__shared_ptr_emplace<geode::Task<geode::utils::web::WebResponse, geode::utils::web::WebProgress>::Handle, std::__ndk1::allocator<geode::Task<geode::utils::web::WebResponse, geode::utils::web::WebProgress>::Handle> >::~__shared_ptr_emplace()
PUBLIC 4c4c4 0 std::__ndk1::__shared_ptr_emplace<geode::Task<geode::utils::web::WebResponse, geode::utils::web::WebProgress>::Handle, std::__ndk1::allocator<geode::Task<geode::utils::web::WebResponse, geode::utils::web::WebProgress>::Handle> >::__on_zero_shared()
PUBLIC 4c5a8 0 std::__ndk1::__shared_ptr_emplace<geode::Task<geode::utils::web::WebResponse, geode::utils::web::WebProgress>::Handle, std::__ndk1::allocator<geode::Task<geode::utils::web::WebResponse, geode::utils::web::WebProgress>::Handle> >::__on_zero_shared_weak()
PUBLIC 4c5ac 0 std::__ndk1::__optional_destruct_base<geode::utils::web::WebResponse, false>::~__optional_destruct_base[abi:ne180000]()
PUBLIC 4c604 0 geode::Task<geode::utils::web::WebResponse, geode::utils::web::WebProgress>::cancel(std::__ndk1::shared_ptr<geode::Task<geode::utils::web::WebResponse, geode::utils::web::WebProgress>::Handle>, bool)::{lambda()#1}::~{lambda()#1}()
PUBLIC 4c654 0 std::__ndk1::__function::__func<geode::Task<geode::utils::web::WebResponse, geode::utils::web::WebProgress>::cancel(std::__ndk1::shared_ptr<geode::Task<geode::utils::web::WebResponse, geode::utils::web::WebProgress>::Handle>, bool)::{lambda()#1}, std::__ndk1::allocator<geode::Task<geode::utils::web::WebResponse, geode::utils::web::WebProgress>::cancel(std::__ndk1::shared_ptr<geode::Task<geode::utils::web::WebResponse, geode::utils::web::WebProgress>::Handle>, bool)::{lambda()#1}>, void ()>::~__func()
PUBLIC 4c6b0 0 std::__ndk1::__function::__func<geode::Task<geode::utils::web::WebResponse, geode::utils::web::WebProgress>::cancel(std::__ndk1::shared_ptr<geode::Task<geode::utils::web::WebResponse, geode::utils::web::WebProgress>::Handle>, bool)::{lambda()#1}, std::__ndk1::allocator<geode::Task<geode::utils::web::WebResponse, geode::utils::web::WebProgress>::cancel(std::__ndk1::shared_ptr<geode::Task<geode::utils::web::WebResponse, geode::utils::web::WebProgress>::Handle>, bool)::{lambda()#1}>, void ()>::~__func()
PUBLIC 4c71c 0 std::__ndk1::__function::__func<geode::Task<geode::utils::web::WebResponse, geode::utils::web::WebProgress>::cancel(std::__ndk1::shared_ptr<geode::Task<geode::utils::web::WebResponse, geode::utils::web::WebProgress>::Handle>, bool)::{lambda()#1}, std::__ndk1::allocator<geode::Task<geode::utils::web::WebResponse, geode::utils::web::WebProgress>::cancel(std::__ndk1::shared_ptr<geode::Task<geode::utils::web::WebResponse, geode::utils::web::WebProgress>::Handle>, bool)::{lambda()#1}>, void ()>::__clone() const
PUBLIC 4c76c 0 std::__ndk1::__function::__func<geode::Task<geode::utils::web::WebResponse, geode::utils::web::WebProgress>::cancel(std::__ndk1::shared_ptr<geode::Task<geode::utils::web::WebResponse, geode::utils::web::WebProgress>::Handle>, bool)::{lambda()#1}, std::__ndk1::allocator<geode::Task<geode::utils::web::WebResponse, geode::utils::web::WebProgress>::cancel(std::__ndk1::shared_ptr<geode::Task<geode::utils::web::WebResponse, geode::utils::web::WebProgress>::Handle>, bool)::{lambda()#1}>, void ()>::__clone(std::__ndk1::__function::__base<void ()>*) const
PUBLIC 4c7a0 0 std::__ndk1::__function::__func<geode::Task<geode::utils::web::WebResponse, geode::utils::web::WebProgress>::cancel(std::__ndk1::shared_ptr<geode::Task<geode::utils::web::WebResponse, geode::utils::web::WebProgress>::Handle>, bool)::{lambda()#1}, std::__ndk1::allocator<geode::Task<geode::utils::web::WebResponse, geode::utils::web::WebProgress>::cancel(std::__ndk1::shared_ptr<geode::Task<geode::utils::web::WebResponse, geode::utils::web::WebProgress>::Handle>, bool)::{lambda()#1}>, void ()>::destroy()
PUBLIC 4c7f0 0 std::__ndk1::__function::__func<geode::Task<geode::utils::web::WebResponse, geode::utils::web::WebProgress>::cancel(std::__ndk1::shared_ptr<geode::Task<geode::utils::web::WebResponse, geode::utils::web::WebProgress>::Handle>, bool)::{lambda()#1}, std::__ndk1::allocator<geode::Task<geode::utils::web::WebResponse, geode::utils::web::WebProgress>::cancel(std::__ndk1::shared_ptr<geode::Task<geode::utils::web::WebResponse, geode::utils::web::WebProgress>::Handle>, bool)::{lambda()#1}>, void ()>::destroy_deallocate()
PUBLIC 4c850 0 std::__ndk1::__function::__func<geode::Task<geode::utils::web::WebResponse, geode::utils::web::WebProgress>::cancel(std::__ndk1::shared_ptr<geode::Task<geode::utils::web::WebResponse, geode::utils::web::WebProgress>::Handle>, bool)::{lambda()#1}, std::__ndk1::allocator<geode::Task<geode::utils::web::WebResponse, geode::utils::web::WebProgress>::cancel(std::__ndk1::shared_ptr<geode::Task<geode::utils::web::WebResponse, geode::utils::web::WebProgress>::Handle>, bool)::{lambda()#1}>, void ()>::operator()()
PUBLIC 4ca0c 0 std::__ndk1::__function::__func<geode::Task<geode::utils::web::WebResponse, geode::utils::web::WebProgress>::cancel(std::__ndk1::shared_ptr<geode::Task<geode::utils::web::WebResponse, geode::utils::web::WebProgress>::Handle>, bool)::{lambda()#1}, std::__ndk1::allocator<geode::Task<geode::utils::web::WebResponse, geode::utils::web::WebProgress>::cancel(std::__ndk1::shared_ptr<geode::Task<geode::utils::web::WebResponse, geode::utils::web::WebProgress>::Handle>, bool)::{lambda()#1}>, void ()>::target(std::type_info const&) const
PUBLIC 4ca28 0 std::__ndk1::__function::__func<geode::Task<geode::utils::web::WebResponse, geode::utils::web::WebProgress>::cancel(std::__ndk1::shared_ptr<geode::Task<geode::utils::web::WebResponse, geode::utils::web::WebProgress>::Handle>, bool)::{lambda()#1}, std::__ndk1::allocator<geode::Task<geode::utils::web::WebResponse, geode::utils::web::WebProgress>::cancel(std::__ndk1::shared_ptr<geode::Task<geode::utils::web::WebResponse, geode::utils::web::WebProgress>::Handle>, bool)::{lambda()#1}>, void ()>::target_type() const
PUBLIC 4ca34 0 geode::Task<geode::utils::web::WebResponse, geode::utils::web::WebProgress>::Event::~Event()
PUBLIC 4ca94 0 geode::Task<geode::utils::web::WebResponse, geode::utils::web::WebProgress>::Event::~Event()
PUBLIC 4cb04 0 geode::Task<geode::utils::web::WebResponse, geode::utils::web::WebProgress>::finish(std::__ndk1::shared_ptr<geode::Task<geode::utils::web::WebResponse, geode::utils::web::WebProgress>::Handle>, geode::utils::web::WebResponse&&)::{lambda()#1}::~{lambda()#1}()
PUBLIC 4cb54 0 std::__ndk1::__function::__func<geode::Task<geode::utils::web::WebResponse, geode::utils::web::WebProgress>::finish(std::__ndk1::shared_ptr<geode::Task<geode::utils::web::WebResponse, geode::utils::web::WebProgress>::Handle>, geode::utils::web::WebResponse&&)::{lambda()#1}, std::__ndk1::allocator<geode::Task<geode::utils::web::WebResponse, geode::utils::web::WebProgress>::finish(std::__ndk1::shared_ptr<geode::Task<geode::utils::web::WebResponse, geode::utils::web::WebProgress>::Handle>, geode::utils::web::WebResponse&&)::{lambda()#1}>, void ()>::~__func()
PUBLIC 4cbb0 0 std::__ndk1::__function::__func<geode::Task<geode::utils::web::WebResponse, geode::utils::web::WebProgress>::finish(std::__ndk1::shared_ptr<geode::Task<geode::utils::web::WebResponse, geode::utils::web::WebProgress>::Handle>, geode::utils::web::WebResponse&&)::{lambda()#1}, std::__ndk1::allocator<geode::Task<geode::utils::web::WebResponse, geode::utils::web::WebProgress>::finish(std::__ndk1::shared_ptr<geode::Task<geode::utils::web::WebResponse, geode::utils::web::WebProgress>::Handle>, geode::utils::web::WebResponse&&)::{lambda()#1}>, void ()>::~__func()
PUBLIC 4cc1c 0 std::__ndk1::__function::__func<geode::Task<geode::utils::web::WebResponse, geode::utils::web::WebProgress>::finish(std::__ndk1::shared_ptr<geode::Task<geode::utils::web::WebResponse, geode::utils::web::WebProgress>::Handle>, geode::utils::web::WebResponse&&)::{lambda()#1}, std::__ndk1::allocator<geode::Task<geode::utils::web::WebResponse, geode::utils::web::WebProgress>::finish(std::__ndk1::shared_ptr<geode::Task<geode::utils::web::WebResponse, geode::utils::web::WebProgress>::Handle>, geode::utils::web::WebResponse&&)::{lambda()#1}>, void ()>::__clone() const
PUBLIC 4cc74 0 std::__ndk1::__function::__func<geode::Task<geode::utils::web::WebResponse, geode::utils::web::WebProgress>::finish(std::__ndk1::shared_ptr<geode::Task<geode::utils::web::WebResponse, geode::utils::web::WebProgress>::Handle>, geode::utils::web::WebResponse&&)::{lambda()#1}, std::__ndk1::allocator<geode::Task<geode::utils::web::WebResponse, geode::utils::web::WebProgress>::finish(std::__ndk1::shared_ptr<geode::Task<geode::utils::web::WebResponse, geode::utils::web::WebProgress>::Handle>, geode::utils::web::WebResponse&&)::{lambda()#1}>, void ()>::__clone(std::__ndk1::__function::__base<void ()>*) const
PUBLIC 4ccc0 0 std::__ndk1::__function::__func<geode::Task<geode::utils::web::WebResponse, geode::utils::web::WebProgress>::finish(std::__ndk1::shared_ptr<geode::Task<geode::utils::web::WebResponse, geode::utils::web::WebProgress>::Handle>, geode::utils::web::WebResponse&&)::{lambda()#1}, std::__ndk1::allocator<geode::Task<geode::utils::web::WebResponse, geode::utils::web::WebProgress>::finish(std::__ndk1::shared_ptr<geode::Task<geode::utils::web::WebResponse, geode::utils::web::WebProgress>::Handle>, geode::utils::web::WebResponse&&)::{lambda()#1}>, void ()>::destroy()
PUBLIC 4cd10 0 std::__ndk1::__function::__func<geode::Task<geode::utils::web::WebResponse, geode::utils::web::WebProgress>::finish(std::__ndk1::shared_ptr<geode::Task<geode::utils::web::WebResponse, geode::utils::web::WebProgress>::Handle>, geode::utils::web::WebResponse&&)::{lambda()#1}, std::__ndk1::allocator<geode::Task<geode::utils::web::WebResponse, geode::utils::web::WebProgress>::finish(std::__ndk1::shared_ptr<geode::Task<geode::utils::web::WebResponse, geode::utils::web::WebProgress>::Handle>, geode::utils::web::WebResponse&&)::{lambda()#1}>, void ()>::destroy_deallocate()
PUBLIC 4cd70 0 std::__ndk1::__function::__func<geode::Task<geode::utils::web::WebResponse, geode::utils::web::WebProgress>::finish(std::__ndk1::shared_ptr<geode::Task<geode::utils::web::WebResponse, geode::utils::web::WebProgress>::Handle>, geode::utils::web::WebResponse&&)::{lambda()#1}, std::__ndk1::allocator<geode::Task<geode::utils::web::WebResponse, geode::utils::web::WebProgress>::finish(std::__ndk1::shared_ptr<geode::Task<geode::utils::web::WebResponse, geode::utils::web::WebProgress>::Handle>, geode::utils::web::WebResponse&&)::{lambda()#1}>, void ()>::operator()()
PUBLIC 4cf3c 0 std::__ndk1::__function::__func<geode::Task<geode::utils::web::WebResponse, geode::utils::web::WebProgress>::finish(std::__ndk1::shared_ptr<geode::Task<geode::utils::web::WebResponse, geode::utils::web::WebProgress>::Handle>, geode::utils::web::WebResponse&&)::{lambda()#1}, std::__ndk1::allocator<geode::Task<geode::utils::web::WebResponse, geode::utils::web::WebProgress>::finish(std::__ndk1::shared_ptr<geode::Task<geode::utils::web::WebResponse, geode::utils::web::WebProgress>::Handle>, geode::utils::web::WebResponse&&)::{lambda()#1}>, void ()>::target(std::type_info const&) const
PUBLIC 4cf58 0 std::__ndk1::__function::__func<geode::Task<geode::utils::web::WebResponse, geode::utils::web::WebProgress>::finish(std::__ndk1::shared_ptr<geode::Task<geode::utils::web::WebResponse, geode::utils::web::WebProgress>::Handle>, geode::utils::web::WebResponse&&)::{lambda()#1}, std::__ndk1::allocator<geode::Task<geode::utils::web::WebResponse, geode::utils::web::WebProgress>::finish(std::__ndk1::shared_ptr<geode::Task<geode::utils::web::WebResponse, geode::utils::web::WebProgress>::Handle>, geode::utils::web::WebResponse&&)::{lambda()#1}>, void ()>::target_type() const
PUBLIC 4cf64 0 geode::impl::ResultData<std::__ndk1::basic_string<char, std::__ndk1::char_traits<char>, std::__ndk1::allocator<char> >, std::__ndk1::basic_string<char, std::__ndk1::char_traits<char>, std::__ndk1::allocator<char> > >::~ResultData()
PUBLIC 4cfd8 0 geode::impl::ResultData<matjson::Value, std::__ndk1::basic_string<char, std::__ndk1::char_traits<char>, std::__ndk1::allocator<char> > >::~ResultData()
PUBLIC 4d04c 0 geode::impl::ResultData<geode::VersionInfo, std::__ndk1::basic_string<char, std::__ndk1::char_traits<char>, std::__ndk1::allocator<char> > >::~ResultData()
PUBLIC 4d0c0 0 fmt::v11::detail::value<fmt::v11::context>::format_custom_arg<geode::VersionInfo, fmt::v11::formatter<geode::VersionInfo, char, void> >(void*, fmt::v11::basic_format_parse_context<char>&, fmt::v11::context&)
PUBLIC 4d294 0 std::__ndk1::__variant_detail::__visitation::__base::__dispatcher<(unsigned long)0>::__dispatch[abi:ne180000]<std::__ndk1::__variant_detail::__dtor<std::__ndk1::__variant_detail::__traits<std::__ndk1::basic_string<char, std::__ndk1::char_traits<char>, std::__ndk1::allocator<char> >, std::__ndk1::allocator<char> >, (std::__ndk1::__variant_detail::_Trait)1>::__destroy[abi:ne180000]()::{lambda(auto:1&)#1}, std::__ndk1::__variant_detail::__base<(std::__ndk1::__variant_detail::__traits<std::__ndk1::basic_string<char, std::__ndk1::char_traits<char>, std::__ndk1::allocator<char> >, std::__ndk1::allocator<char> >)1, std::__ndk1::allocator<char>, std::__ndk1::allocator<char> >&>(std::__ndk1::__variant_detail::__dtor<std::__ndk1::__variant_detail::__traits<std::__ndk1::basic_string<char, std::__ndk1::char_traits<char>, std::__ndk1::allocator<char> >, std::__ndk1::allocator<char> >, (std::__ndk1::__variant_detail::_Trait)1>, std::__ndk1::__variant_detail::__base<(std::__ndk1::__variant_detail::__traits<std::__ndk1::basic_string<char, std::__ndk1::char_traits<char>, std::__ndk1::allocator<char> >, std::__ndk1::allocator<char> >)1, std::__ndk1::allocator<char>, std::__ndk1::allocator<char> >&)
PUBLIC 4d2a8 0 std::__ndk1::__variant_detail::__visitation::__base::__dispatcher<(unsigned long)1>::__dispatch[abi:ne180000]<std::__ndk1::__variant_detail::__dtor<std::__ndk1::__variant_detail::__traits<std::__ndk1::basic_string<char, std::__ndk1::char_traits<char>, std::__ndk1::allocator<char> >, std::__ndk1::allocator<char> >, (std::__ndk1::__variant_detail::_Trait)1>::__destroy[abi:ne180000]()::{lambda(auto:1&)#1}, std::__ndk1::__variant_detail::__base<(std::__ndk1::__variant_detail::__traits<std::__ndk1::basic_string<char, std::__ndk1::char_traits<char>, std::__ndk1::allocator<char> >, std::__ndk1::allocator<char> >)1, std::__ndk1::allocator<char>, std::__ndk1::allocator<char> >&>(std::__ndk1::__variant_detail::__dtor<std::__ndk1::__variant_detail::__traits<std::__ndk1::basic_string<char, std::__ndk1::char_traits<char>, std::__ndk1::allocator<char> >, std::__ndk1::allocator<char> >, (std::__ndk1::__variant_detail::_Trait)1>, std::__ndk1::__variant_detail::__base<(std::__ndk1::__variant_detail::__traits<std::__ndk1::basic_string<char, std::__ndk1::char_traits<char>, std::__ndk1::allocator<char> >, std::__ndk1::allocator<char> >)1, std::__ndk1::allocator<char>, std::__ndk1::allocator<char> >&)
PUBLIC 4d2bc 0 std::__ndk1::__variant_detail::__visitation::__base::__dispatcher<(unsigned long)0>::__dispatch[abi:ne180000]<std::__ndk1::__variant_detail::__dtor<std::__ndk1::__variant_detail::__traits<matjson::Value, std::__ndk1::basic_string<char, std::__ndk1::char_traits<char>, std::__ndk1::allocator<char> > >, (std::__ndk1::__variant_detail::_Trait)1>::__destroy[abi:ne180000]()::{lambda(auto:1&)#1}, std::__ndk1::__variant_detail::__base<(std::__ndk1::__variant_detail::__traits<matjson::Value, std::__ndk1::basic_string<char, std::__ndk1::char_traits<char>, std::__ndk1::allocator<char> > >)1, matjson, std::__ndk1::allocator<char> >&>(std::__ndk1::__variant_detail::__dtor<std::__ndk1::__variant_detail::__traits<matjson::Value, std::__ndk1::basic_string<char, std::__ndk1::char_traits<char>, std::__ndk1::allocator<char> > >, (std::__ndk1::__variant_detail::_Trait)1>, std::__ndk1::__variant_detail::__base<(std::__ndk1::__variant_detail::__traits<matjson::Value, std::__ndk1::basic_string<char, std::__ndk1::char_traits<char>, std::__ndk1::allocator<char> > >)1, matjson, std::__ndk1::allocator<char> >&)
PUBLIC 4d2c4 0 std::__ndk1::__variant_detail::__visitation::__base::__dispatcher<(unsigned long)1>::__dispatch[abi:ne180000]<std::__ndk1::__variant_detail::__dtor<std::__ndk1::__variant_detail::__traits<matjson::Value, std::__ndk1::basic_string<char, std::__ndk1::char_traits<char>, std::__ndk1::allocator<char> > >, (std::__ndk1::__variant_detail::_Trait)1>::__destroy[abi:ne180000]()::{lambda(auto:1&)#1}, std::__ndk1::__variant_detail::__base<(std::__ndk1::__variant_detail::__traits<matjson::Value, std::__ndk1::basic_string<char, std::__ndk1::char_traits<char>, std::__ndk1::allocator<char> > >)1, matjson, std::__ndk1::allocator<char> >&>(std::__ndk1::__variant_detail::__dtor<std::__ndk1::__variant_detail::__traits<matjson::Value, std::__ndk1::basic_string<char, std::__ndk1::char_traits<char>, std::__ndk1::allocator<char> > >, (std::__ndk1::__variant_detail::_Trait)1>, std::__ndk1::__variant_detail::__base<(std::__ndk1::__variant_detail::__traits<matjson::Value, std::__ndk1::basic_string<char, std::__ndk1::char_traits<char>, std::__ndk1::allocator<char> > >)1, matjson, std::__ndk1::allocator<char> >&)
PUBLIC 4d2d8 0 std::__ndk1::__function::__func<geode::Task<geode::utils::web::WebResponse, geode::utils::web::WebProgress>::map<MiscBugfixes::loadImportantNotices(cocos2d::CCLayer*)::$_0, geode::utils::web::WebProgress (*)(geode::utils::web::WebProgress*), void (*)()>(MiscBugfixes::loadImportantNotices(cocos2d::CCLayer*)::$_0&&, geode::utils::web::WebProgress (*&&)(geode::utils::web::WebProgress*), void (*&&)(), std::__ndk1::basic_string_view<char, std::__ndk1::char_traits<char> >) const::{lambda(geode::Task<geode::utils::web::WebResponse, geode::utils::web::WebProgress>::Event*)#1}, std::__ndk1::allocator<geode::Task<geode::utils::web::WebResponse, geode::utils::web::WebProgress>::map<MiscBugfixes::loadImportantNotices(cocos2d::CCLayer*)::$_0, geode::utils::web::WebProgress (*)(geode::utils::web::WebProgress*), void (*)()>(MiscBugfixes::loadImportantNotices(cocos2d::CCLayer*)::$_0&&, geode::utils::web::WebProgress (*&&)(geode::utils::web::WebProgress*), void (*&&)(), std::__ndk1::basic_string_view<char, std::__ndk1::char_traits<char> >) const::{lambda(geode::Task<geode::utils::web::WebResponse, geode::utils::web::WebProgress>::Event*)#1}>, void (geode::Task<geode::utils::web::WebResponse, geode::utils::web::WebProgress>::Event*)>::~__func()
PUBLIC 4d2f8 0 std::__ndk1::__function::__func<geode::Task<geode::utils::web::WebResponse, geode::utils::web::WebProgress>::map<MiscBugfixes::loadImportantNotices(cocos2d::CCLayer*)::$_0, geode::utils::web::WebProgress (*)(geode::utils::web::WebProgress*), void (*)()>(MiscBugfixes::loadImportantNotices(cocos2d::CCLayer*)::$_0&&, geode::utils::web::WebProgress (*&&)(geode::utils::web::WebProgress*), void (*&&)(), std::__ndk1::basic_string_view<char, std::__ndk1::char_traits<char> >) const::{lambda(geode::Task<geode::utils::web::WebResponse, geode::utils::web::WebProgress>::Event*)#1}, std::__ndk1::allocator<geode::Task<geode::utils::web::WebResponse, geode::utils::web::WebProgress>::map<MiscBugfixes::loadImportantNotices(cocos2d::CCLayer*)::$_0, geode::utils::web::WebProgress (*)(geode::utils::web::WebProgress*), void (*)()>(MiscBugfixes::loadImportantNotices(cocos2d::CCLayer*)::$_0&&, geode::utils::web::WebProgress (*&&)(geode::utils::web::WebProgress*), void (*&&)(), std::__ndk1::basic_string_view<char, std::__ndk1::char_traits<char> >) const::{lambda(geode::Task<geode::utils::web::WebResponse, geode::utils::web::WebProgress>::Event*)#1}>, void (geode::Task<geode::utils::web::WebResponse, geode::utils::web::WebProgress>::Event*)>::~__func()
PUBLIC 4d334 0 std::__ndk1::__function::__func<geode::Task<geode::utils::web::WebResponse, geode::utils::web::WebProgress>::map<MiscBugfixes::loadImportantNotices(cocos2d::CCLayer*)::$_0, geode::utils::web::WebProgress (*)(geode::utils::web::WebProgress*), void (*)()>(MiscBugfixes::loadImportantNotices(cocos2d::CCLayer*)::$_0&&, geode::utils::web::WebProgress (*&&)(geode::utils::web::WebProgress*), void (*&&)(), std::__ndk1::basic_string_view<char, std::__ndk1::char_traits<char> >) const::{lambda(geode::Task<geode::utils::web::WebResponse, geode::utils::web::WebProgress>::Event*)#1}, std::__ndk1::allocator<geode::Task<geode::utils::web::WebResponse, geode::utils::web::WebProgress>::map<MiscBugfixes::loadImportantNotices(cocos2d::CCLayer*)::$_0, geode::utils::web::WebProgress (*)(geode::utils::web::WebProgress*), void (*)()>(MiscBugfixes::loadImportantNotices(cocos2d::CCLayer*)::$_0&&, geode::utils::web::WebProgress (*&&)(geode::utils::web::WebProgress*), void (*&&)(), std::__ndk1::basic_string_view<char, std::__ndk1::char_traits<char> >) const::{lambda(geode::Task<geode::utils::web::WebResponse, geode::utils::web::WebProgress>::Event*)#1}>, void (geode::Task<geode::utils::web::WebResponse, geode::utils::web::WebProgress>::Event*)>::__clone() const
PUBLIC 4d394 0 std::__ndk1::__function::__func<geode::Task<geode::utils::web::WebResponse, geode::utils::web::WebProgress>::map<MiscBugfixes::loadImportantNotices(cocos2d::CCLayer*)::$_0, geode::utils::web::WebProgress (*)(geode::utils::web::WebProgress*), void (*)()>(MiscBugfixes::loadImportantNotices(cocos2d::CCLayer*)::$_0&&, geode::utils::web::WebProgress (*&&)(geode::utils::web::WebProgress*), void (*&&)(), std::__ndk1::basic_string_view<char, std::__ndk1::char_traits<char> >) const::{lambda(geode::Task<geode::utils::web::WebResponse, geode::utils::web::WebProgress>::Event*)#1}, std::__ndk1::allocator<geode::Task<geode::utils::web::WebResponse, geode::utils::web::WebProgress>::map<MiscBugfixes::loadImportantNotices(cocos2d::CCLayer*)::$_0, geode::utils::web::WebProgress (*)(geode::utils::web::WebProgress*), void (*)()>(MiscBugfixes::loadImportantNotices(cocos2d::CCLayer*)::$_0&&, geode::utils::web::WebProgress (*&&)(geode::utils::web::WebProgress*), void (*&&)(), std::__ndk1::basic_string_view<char, std::__ndk1::char_traits<char> >) const::{lambda(geode::Task<geode::utils::web::WebResponse, geode::utils::web::WebProgress>::Event*)#1}>, void (geode::Task<geode::utils::web::WebResponse, geode::utils::web::WebProgress>::Event*)>::__clone(std::__ndk1::__function::__base<void (geode::Task<geode::utils::web::WebResponse, geode::utils::web::WebProgress>::Event*)>*) const
PUBLIC 4d3e8 0 std::__ndk1::__function::__func<geode::Task<geode::utils::web::WebResponse, geode::utils::web::WebProgress>::map<MiscBugfixes::loadImportantNotices(cocos2d::CCLayer*)::$_0, geode::utils::web::WebProgress (*)(geode::utils::web::WebProgress*), void (*)()>(MiscBugfixes::loadImportantNotices(cocos2d::CCLayer*)::$_0&&, geode::utils::web::WebProgress (*&&)(geode::utils::web::WebProgress*), void (*&&)(), std::__ndk1::basic_string_view<char, std::__ndk1::char_traits<char> >) const::{lambda(geode::Task<geode::utils::web::WebResponse, geode::utils::web::WebProgress>::Event*)#1}, std::__ndk1::allocator<geode::Task<geode::utils::web::WebResponse, geode::utils::web::WebProgress>::map<MiscBugfixes::loadImportantNotices(cocos2d::CCLayer*)::$_0, geode::utils::web::WebProgress (*)(geode::utils::web::WebProgress*), void (*)()>(MiscBugfixes::loadImportantNotices(cocos2d::CCLayer*)::$_0&&, geode::utils::web::WebProgress (*&&)(geode::utils::web::WebProgress*), void (*&&)(), std::__ndk1::basic_string_view<char, std::__ndk1::char_traits<char> >) const::{lambda(geode::Task<geode::utils::web::WebResponse, geode::utils::web::WebProgress>::Event*)#1}>, void (geode::Task<geode::utils::web::WebResponse, geode::utils::web::WebProgress>::Event*)>::destroy()
PUBLIC 4d3f8 0 std::__ndk1::__function::__func<geode::Task<geode::utils::web::WebResponse, geode::utils::web::WebProgress>::map<MiscBugfixes::loadImportantNotices(cocos2d::CCLayer*)::$_0, geode::utils::web::WebProgress (*)(geode::utils::web::WebProgress*), void (*)()>(MiscBugfixes::loadImportantNotices(cocos2d::CCLayer*)::$_0&&, geode::utils::web::WebProgress (*&&)(geode::utils::web::WebProgress*), void (*&&)(), std::__ndk1::basic_string_view<char, std::__ndk1::char_traits<char> >) const::{lambda(geode::Task<geode::utils::web::WebResponse, geode::utils::web::WebProgress>::Event*)#1}, std::__ndk1::allocator<geode::Task<geode::utils::web::WebResponse, geode::utils::web::WebProgress>::map<MiscBugfixes::loadImportantNotices(cocos2d::CCLayer*)::$_0, geode::utils::web::WebProgress (*)(geode::utils::web::WebProgress*), void (*)()>(MiscBugfixes::loadImportantNotices(cocos2d::CCLayer*)::$_0&&, geode::utils::web::WebProgress (*&&)(geode::utils::web::WebProgress*), void (*&&)(), std::__ndk1::basic_string_view<char, std::__ndk1::char_traits<char> >) const::{lambda(geode::Task<geode::utils::web::WebResponse, geode::utils::web::WebProgress>::Event*)#1}>, void (geode::Task<geode::utils::web::WebResponse, geode::utils::web::WebProgress>::Event*)>::destroy_deallocate()
PUBLIC 4d428 0 std::__ndk1::__function::__func<geode::Task<geode::utils::web::WebResponse, geode::utils::web::WebProgress>::map<MiscBugfixes::loadImportantNotices(cocos2d::CCLayer*)::$_0, geode::utils::web::WebProgress (*)(geode::utils::web::WebProgress*), void (*)()>(MiscBugfixes::loadImportantNotices(cocos2d::CCLayer*)::$_0&&, geode::utils::web::WebProgress (*&&)(geode::utils::web::WebProgress*), void (*&&)(), std::__ndk1::basic_string_view<char, std::__ndk1::char_traits<char> >) const::{lambda(geode::Task<geode::utils::web::WebResponse, geode::utils::web::WebProgress>::Event*)#1}, std::__ndk1::allocator<geode::Task<geode::utils::web::WebResponse, geode::utils::web::WebProgress>::map<MiscBugfixes::loadImportantNotices(cocos2d::CCLayer*)::$_0, geode::utils::web::WebProgress (*)(geode::utils::web::WebProgress*), void (*)()>(MiscBugfixes::loadImportantNotices(cocos2d::CCLayer*)::$_0&&, geode::utils::web::WebProgress (*&&)(geode::utils::web::WebProgress*), void (*&&)(), std::__ndk1::basic_string_view<char, std::__ndk1::char_traits<char> >) const::{lambda(geode::Task<geode::utils::web::WebResponse, geode::utils::web::WebProgress>::Event*)#1}>, void (geode::Task<geode::utils::web::WebResponse, geode::utils::web::WebProgress>::Event*)>::operator()(geode::Task<geode::utils::web::WebResponse, geode::utils::web::WebProgress>::Event*&&)
PUBLIC 4d748 0 std::__ndk1::__function::__func<geode::Task<geode::utils::web::WebResponse, geode::utils::web::WebProgress>::map<MiscBugfixes::loadImportantNotices(cocos2d::CCLayer*)::$_0, geode::utils::web::WebProgress (*)(geode::utils::web::WebProgress*), void (*)()>(MiscBugfixes::loadImportantNotices(cocos2d::CCLayer*)::$_0&&, geode::utils::web::WebProgress (*&&)(geode::utils::web::WebProgress*), void (*&&)(), std::__ndk1::basic_string_view<char, std::__ndk1::char_traits<char> >) const::{lambda(geode::Task<geode::utils::web::WebResponse, geode::utils::web::WebProgress>::Event*)#1}, std::__ndk1::allocator<geode::Task<geode::utils::web::WebResponse, geode::utils::web::WebProgress>::map<MiscBugfixes::loadImportantNotices(cocos2d::CCLayer*)::$_0, geode::utils::web::WebProgress (*)(geode::utils::web::WebProgress*), void (*)()>(MiscBugfixes::loadImportantNotices(cocos2d::CCLayer*)::$_0&&, geode::utils::web::WebProgress (*&&)(geode::utils::web::WebProgress*), void (*&&)(), std::__ndk1::basic_string_view<char, std::__ndk1::char_traits<char> >) const::{lambda(geode::Task<geode::utils::web::WebResponse, geode::utils::web::WebProgress>::Event*)#1}>, void (geode::Task<geode::utils::web::WebResponse, geode::utils::web::WebProgress>::Event*)>::target(std::type_info const&) const
PUBLIC 4d764 0 std::__ndk1::__function::__func<geode::Task<geode::utils::web::WebResponse, geode::utils::web::WebProgress>::map<MiscBugfixes::loadImportantNotices(cocos2d::CCLayer*)::$_0, geode::utils::web::WebProgress (*)(geode::utils::web::WebProgress*), void (*)()>(MiscBugfixes::loadImportantNotices(cocos2d::CCLayer*)::$_0&&, geode::utils::web::WebProgress (*&&)(geode::utils::web::WebProgress*), void (*&&)(), std::__ndk1::basic_string_view<char, std::__ndk1::char_traits<char> >) const::{lambda(geode::Task<geode::utils::web::WebResponse, geode::utils::web::WebProgress>::Event*)#1}, std::__ndk1::allocator<geode::Task<geode::utils::web::WebResponse, geode::utils::web::WebProgress>::map<MiscBugfixes::loadImportantNotices(cocos2d::CCLayer*)::$_0, geode::utils::web::WebProgress (*)(geode::utils::web::WebProgress*), void (*)()>(MiscBugfixes::loadImportantNotices(cocos2d::CCLayer*)::$_0&&, geode::utils::web::WebProgress (*&&)(geode::utils::web::WebProgress*), void (*&&)(), std::__ndk1::basic_string_view<char, std::__ndk1::char_traits<char> >) const::{lambda(geode::Task<geode::utils::web::WebResponse, geode::utils::web::WebProgress>::Event*)#1}>, void (geode::Task<geode::utils::web::WebResponse, geode::utils::web::WebProgress>::Event*)>::target_type() const
PUBLIC 4d770 0 geode::utils::web::WebProgress::~WebProgress()
PUBLIC 4d7c0 0 geode::Task<geode::utils::web::WebResponse, geode::utils::web::WebProgress>::progress(std::__ndk1::shared_ptr<geode::Task<geode::utils::web::WebResponse, geode::utils::web::WebProgress>::Handle>, geode::utils::web::WebProgress&&)::{lambda()#1}::~{lambda()#1}()
PUBLIC 4d850 0 std::__ndk1::__function::__func<geode::Task<geode::utils::web::WebResponse, geode::utils::web::WebProgress>::progress(std::__ndk1::shared_ptr<geode::Task<geode::utils::web::WebResponse, geode::utils::web::WebProgress>::Handle>, geode::utils::web::WebProgress&&)::{lambda()#1}, std::__ndk1::allocator<geode::Task<geode::utils::web::WebResponse, geode::utils::web::WebProgress>::progress(std::__ndk1::shared_ptr<geode::Task<geode::utils::web::WebResponse, geode::utils::web::WebProgress>::Handle>, geode::utils::web::WebProgress&&)::{lambda()#1}>, void ()>::~__func()
PUBLIC 4d8ec 0 std::__ndk1::__function::__func<geode::Task<geode::utils::web::WebResponse, geode::utils::web::WebProgress>::progress(std::__ndk1::shared_ptr<geode::Task<geode::utils::web::WebResponse, geode::utils::web::WebProgress>::Handle>, geode::utils::web::WebProgress&&)::{lambda()#1}, std::__ndk1::allocator<geode::Task<geode::utils::web::WebResponse, geode::utils::web::WebProgress>::progress(std::__ndk1::shared_ptr<geode::Task<geode::utils::web::WebResponse, geode::utils::web::WebProgress>::Handle>, geode::utils::web::WebProgress&&)::{lambda()#1}>, void ()>::~__func()
PUBLIC 4d988 0 std::__ndk1::__function::__func<geode::Task<geode::utils::web::WebResponse, geode::utils::web::WebProgress>::progress(std::__ndk1::shared_ptr<geode::Task<geode::utils::web::WebResponse, geode::utils::web::WebProgress>::Handle>, geode::utils::web::WebProgress&&)::{lambda()#1}, std::__ndk1::allocator<geode::Task<geode::utils::web::WebResponse, geode::utils::web::WebProgress>::progress(std::__ndk1::shared_ptr<geode::Task<geode::utils::web::WebResponse, geode::utils::web::WebProgress>::Handle>, geode::utils::web::WebProgress&&)::{lambda()#1}>, void ()>::__clone() const
PUBLIC 4d9f0 0 std::__ndk1::__function::__func<geode::Task<geode::utils::web::WebResponse, geode::utils::web::WebProgress>::progress(std::__ndk1::shared_ptr<geode::Task<geode::utils::web::WebResponse, geode::utils::web::WebProgress>::Handle>, geode::utils::web::WebProgress&&)::{lambda()#1}, std::__ndk1::allocator<geode::Task<geode::utils::web::WebResponse, geode::utils::web::WebProgress>::progress(std::__ndk1::shared_ptr<geode::Task<geode::utils::web::WebResponse, geode::utils::web::WebProgress>::Handle>, geode::utils::web::WebProgress&&)::{lambda()#1}>, void ()>::__clone(std::__ndk1::__function::__base<void ()>*) const
PUBLIC 4da4c 0 std::__ndk1::__function::__func<geode::Task<geode::utils::web::WebResponse, geode::utils::web::WebProgress>::progress(std::__ndk1::shared_ptr<geode::Task<geode::utils::web::WebResponse, geode::utils::web::WebProgress>::Handle>, geode::utils::web::WebProgress&&)::{lambda()#1}, std::__ndk1::allocator<geode::Task<geode::utils::web::WebResponse, geode::utils::web::WebProgress>::progress(std::__ndk1::shared_ptr<geode::Task<geode::utils::web::WebResponse, geode::utils::web::WebProgress>::Handle>, geode::utils::web::WebProgress&&)::{lambda()#1}>, void ()>::destroy()
PUBLIC 4dadc 0 std::__ndk1::__function::__func<geode::Task<geode::utils::web::WebResponse, geode::utils::web::WebProgress>::progress(std::__ndk1::shared_ptr<geode::Task<geode::utils::web::WebResponse, geode::utils::web::WebProgress>::Handle>, geode::utils::web::WebProgress&&)::{lambda()#1}, std::__ndk1::allocator<geode::Task<geode::utils::web::WebResponse, geode::utils::web::WebProgress>::progress(std::__ndk1::shared_ptr<geode::Task<geode::utils::web::WebResponse, geode::utils::web::WebProgress>::Handle>, geode::utils::web::WebProgress&&)::{lambda()#1}>, void ()>::destroy_deallocate()
PUBLIC 4db6c 0 std::__ndk1::__function::__func<geode::Task<geode::utils::web::WebResponse, geode::utils::web::WebProgress>::progress(std::__ndk1::shared_ptr<geode::Task<geode::utils::web::WebResponse, geode::utils::web::WebProgress>::Handle>, geode::utils::web::WebProgress&&)::{lambda()#1}, std::__ndk1::allocator<geode::Task<geode::utils::web::WebResponse, geode::utils::web::WebProgress>::progress(std::__ndk1::shared_ptr<geode::Task<geode::utils::web::WebResponse, geode::utils::web::WebProgress>::Handle>, geode::utils::web::WebProgress&&)::{lambda()#1}>, void ()>::operator()()
PUBLIC 4dd20 0 std::__ndk1::__function::__func<geode::Task<geode::utils::web::WebResponse, geode::utils::web::WebProgress>::progress(std::__ndk1::shared_ptr<geode::Task<geode::utils::web::WebResponse, geode::utils::web::WebProgress>::Handle>, geode::utils::web::WebProgress&&)::{lambda()#1}, std::__ndk1::allocator<geode::Task<geode::utils::web::WebResponse, geode::utils::web::WebProgress>::progress(std::__ndk1::shared_ptr<geode::Task<geode::utils::web::WebResponse, geode::utils::web::WebProgress>::Handle>, geode::utils::web::WebProgress&&)::{lambda()#1}>, void ()>::target(std::type_info const&) const
PUBLIC 4dd3c 0 std::__ndk1::__function::__func<geode::Task<geode::utils::web::WebResponse, geode::utils::web::WebProgress>::progress(std::__ndk1::shared_ptr<geode::Task<geode::utils::web::WebResponse, geode::utils::web::WebProgress>::Handle>, geode::utils::web::WebProgress&&)::{lambda()#1}, std::__ndk1::allocator<geode::Task<geode::utils::web::WebResponse, geode::utils::web::WebProgress>::progress(std::__ndk1::shared_ptr<geode::Task<geode::utils::web::WebResponse, geode::utils::web::WebProgress>::Handle>, geode::utils::web::WebProgress&&)::{lambda()#1}>, void ()>::target_type() const
PUBLIC 4dd48 0 geode::EventListener<geode::Task<geode::utils::web::WebResponse, geode::utils::web::WebProgress> >::getPool() const
PUBLIC 4dd4c 0 geode::EventListener<geode::Task<geode::utils::web::WebResponse, geode::utils::web::WebProgress> >::handle(geode::Event*)
PUBLIC 4df18 0 geode::EventListener<geode::Task<geode::utils::web::WebResponse, geode::utils::web::WebProgress> >::~EventListener()
PUBLIC 4dfb4 0 geode::EventListener<geode::Task<geode::utils::web::WebResponse, geode::utils::web::WebProgress> >::~EventListener()
PUBLIC 4e058 0 geode::Task<geode::utils::web::WebResponse, geode::utils::web::WebProgress>::setListener(geode::EventListenerProtocol*)::{lambda()#1}::~{lambda()#1}()
PUBLIC 4e0a8 0 std::__ndk1::__function::__func<geode::Task<geode::utils::web::WebResponse, geode::utils::web::WebProgress>::setListener(geode::EventListenerProtocol*)::{lambda()#1}, std::__ndk1::allocator<geode::Task<geode::utils::web::WebResponse, geode::utils::web::WebProgress>::setListener(geode::EventListenerProtocol*)::{lambda()#1}>, void ()>::~__func()
PUBLIC 4e104 0 std::__ndk1::__function::__func<geode::Task<geode::utils::web::WebResponse, geode::utils::web::WebProgress>::setListener(geode::EventListenerProtocol*)::{lambda()#1}, std::__ndk1::allocator<geode::Task<geode::utils::web::WebResponse, geode::utils::web::WebProgress>::setListener(geode::EventListenerProtocol*)::{lambda()#1}>, void ()>::~__func()
PUBLIC 4e170 0 std::__ndk1::__function::__func<geode::Task<geode::utils::web::WebResponse, geode::utils::web::WebProgress>::setListener(geode::EventListenerProtocol*)::{lambda()#1}, std::__ndk1::allocator<geode::Task<geode::utils::web::WebResponse, geode::utils::web::WebProgress>::setListener(geode::EventListenerProtocol*)::{lambda()#1}>, void ()>::__clone() const
PUBLIC 4e1c8 0 std::__ndk1::__function::__func<geode::Task<geode::utils::web::WebResponse, geode::utils::web::WebProgress>::setListener(geode::EventListenerProtocol*)::{lambda()#1}, std::__ndk1::allocator<geode::Task<geode::utils::web::WebResponse, geode::utils::web::WebProgress>::setListener(geode::EventListenerProtocol*)::{lambda()#1}>, void ()>::__clone(std::__ndk1::__function::__base<void ()>*) const
PUBLIC 4e214 0 std::__ndk1::__function::__func<geode::Task<geode::utils::web::WebResponse, geode::utils::web::WebProgress>::setListener(geode::EventListenerProtocol*)::{lambda()#1}, std::__ndk1::allocator<geode::Task<geode::utils::web::WebResponse, geode::utils::web::WebProgress>::setListener(geode::EventListenerProtocol*)::{lambda()#1}>, void ()>::destroy()
PUBLIC 4e264 0 std::__ndk1::__function::__func<geode::Task<geode::utils::web::WebResponse, geode::utils::web::WebProgress>::setListener(geode::EventListenerProtocol*)::{lambda()#1}, std::__ndk1::allocator<geode::Task<geode::utils::web::WebResponse, geode::utils::web::WebProgress>::setListener(geode::EventListenerProtocol*)::{lambda()#1}>, void ()>::destroy_deallocate()
PUBLIC 4e2c4 0 std::__ndk1::__function::__func<geode::Task<geode::utils::web::WebResponse, geode::utils::web::WebProgress>::setListener(geode::EventListenerProtocol*)::{lambda()#1}, std::__ndk1::allocator<geode::Task<geode::utils::web::WebResponse, geode::utils::web::WebProgress>::setListener(geode::EventListenerProtocol*)::{lambda()#1}>, void ()>::operator()()
PUBLIC 4e494 0 std::__ndk1::__function::__func<geode::Task<geode::utils::web::WebResponse, geode::utils::web::WebProgress>::setListener(geode::EventListenerProtocol*)::{lambda()#1}, std::__ndk1::allocator<geode::Task<geode::utils::web::WebResponse, geode::utils::web::WebProgress>::setListener(geode::EventListenerProtocol*)::{lambda()#1}>, void ()>::target(std::type_info const&) const
PUBLIC 4e4b0 0 std::__ndk1::__function::__func<geode::Task<geode::utils::web::WebResponse, geode::utils::web::WebProgress>::setListener(geode::EventListenerProtocol*)::{lambda()#1}, std::__ndk1::allocator<geode::Task<geode::utils::web::WebResponse, geode::utils::web::WebProgress>::setListener(geode::EventListenerProtocol*)::{lambda()#1}>, void ()>::target_type() const
PUBLIC 4e4bc 0 std::__ndk1::__function::__func<geode::Task<geode::utils::web::WebResponse, geode::utils::web::WebProgress>::setListener(geode::EventListenerProtocol*)::{lambda()#2}, std::__ndk1::allocator<geode::Task<geode::utils::web::WebResponse, geode::utils::web::WebProgress>::setListener(geode::EventListenerProtocol*)::{lambda()#2}>, void ()>::~__func()
PUBLIC 4e518 0 std::__ndk1::__function::__func<geode::Task<geode::utils::web::WebResponse, geode::utils::web::WebProgress>::setListener(geode::EventListenerProtocol*)::{lambda()#2}, std::__ndk1::allocator<geode::Task<geode::utils::web::WebResponse, geode::utils::web::WebProgress>::setListener(geode::EventListenerProtocol*)::{lambda()#2}>, void ()>::~__func()
PUBLIC 4e584 0 std::__ndk1::__function::__func<geode::Task<geode::utils::web::WebResponse, geode::utils::web::WebProgress>::setListener(geode::EventListenerProtocol*)::{lambda()#2}, std::__ndk1::allocator<geode::Task<geode::utils::web::WebResponse, geode::utils::web::WebProgress>::setListener(geode::EventListenerProtocol*)::{lambda()#2}>, void ()>::__clone() const
PUBLIC 4e5dc 0 std::__ndk1::__function::__func<geode::Task<geode::utils::web::WebResponse, geode::utils::web::WebProgress>::setListener(geode::EventListenerProtocol*)::{lambda()#2}, std::__ndk1::allocator<geode::Task<geode::utils::web::WebResponse, geode::utils::web::WebProgress>::setListener(geode::EventListenerProtocol*)::{lambda()#2}>, void ()>::__clone(std::__ndk1::__function::__base<void ()>*) const
PUBLIC 4e628 0 std::__ndk1::__function::__func<geode::Task<geode::utils::web::WebResponse, geode::utils::web::WebProgress>::setListener(geode::EventListenerProtocol*)::{lambda()#2}, std::__ndk1::allocator<geode::Task<geode::utils::web::WebResponse, geode::utils::web::WebProgress>::setListener(geode::EventListenerProtocol*)::{lambda()#2}>, void ()>::destroy()
PUBLIC 4e678 0 std::__ndk1::__function::__func<geode::Task<geode::utils::web::WebResponse, geode::utils::web::WebProgress>::setListener(geode::EventListenerProtocol*)::{lambda()#2}, std::__ndk1::allocator<geode::Task<geode::utils::web::WebResponse, geode::utils::web::WebProgress>::setListener(geode::EventListenerProtocol*)::{lambda()#2}>, void ()>::destroy_deallocate()
PUBLIC 4e6d8 0 std::__ndk1::__function::__func<geode::Task<geode::utils::web::WebResponse, geode::utils::web::WebProgress>::setListener(geode::EventListenerProtocol*)::{lambda()#2}, std::__ndk1::allocator<geode::Task<geode::utils::web::WebResponse, geode::utils::web::WebProgress>::setListener(geode::EventListenerProtocol*)::{lambda()#2}>, void ()>::operator()()
PUBLIC 4e89c 0 std::__ndk1::__function::__func<geode::Task<geode::utils::web::WebResponse, geode::utils::web::WebProgress>::setListener(geode::EventListenerProtocol*)::{lambda()#2}, std::__ndk1::allocator<geode::Task<geode::utils::web::WebResponse, geode::utils::web::WebProgress>::setListener(geode::EventListenerProtocol*)::{lambda()#2}>, void ()>::target(std::type_info const&) const
PUBLIC 4e8b8 0 std::__ndk1::__function::__func<geode::Task<geode::utils::web::WebResponse, geode::utils::web::WebProgress>::setListener(geode::EventListenerProtocol*)::{lambda()#2}, std::__ndk1::allocator<geode::Task<geode::utils::web::WebResponse, geode::utils::web::WebProgress>::setListener(geode::EventListenerProtocol*)::{lambda()#2}>, void ()>::target_type() const
PUBLIC 4e8c4 0 geode::Task<geode::utils::web::WebResponse, geode::utils::web::WebProgress>::map<MiscBugfixes::loadImportantNotices(cocos2d::CCLayer*)::$_0, geode::utils::web::WebProgress (*)(geode::utils::web::WebProgress*), void (*)()>(MiscBugfixes::loadImportantNotices(cocos2d::CCLayer*)::$_0&&, geode::utils::web::WebProgress (*&&)(geode::utils::web::WebProgress*), void (*&&)(), std::__ndk1::basic_string_view<char, std::__ndk1::char_traits<char> >) const::{lambda(void*)#1}::__invoke(void*)
PUBLIC 4e8d8 0 geode::Task<geode::utils::web::WebResponse, geode::utils::web::WebProgress>::map<MiscBugfixes::loadImportantNotices(cocos2d::CCLayer*)::$_0, geode::utils::web::WebProgress (*)(geode::utils::web::WebProgress*), void (*)()>(MiscBugfixes::loadImportantNotices(cocos2d::CCLayer*)::$_0&&, geode::utils::web::WebProgress (*&&)(geode::utils::web::WebProgress*), void (*&&)(), std::__ndk1::basic_string_view<char, std::__ndk1::char_traits<char> >) const::{lambda(void*)#2}::__invoke(void*)
PUBLIC 4e9a4 0 geode::Task<geode::utils::web::WebResponse, geode::utils::web::WebProgress>::map<MiscBugfixes::loadImportantNotices(cocos2d::CCLayer*)::$_0, geode::utils::web::WebProgress (*)(geode::utils::web::WebProgress*)>(MiscBugfixes::loadImportantNotices(cocos2d::CCLayer*)::$_0&&, geode::utils::web::WebProgress (*&&)(geode::utils::web::WebProgress*), std::__ndk1::basic_string_view<char, std::__ndk1::char_traits<char> >) const::{lambda()#1}::__invoke()
PUBLIC 4e9a8 0 _ZZNK5geode4TaskINS_5utils3web11WebResponseENS2_11WebProgressEE3mapIZN12MiscBugfixes20loadImportantNoticesEPN7cocos2d7CCLayerEE3$_0Qsr3stdE18copy_constructibleIT0_EEEDaOT_NSt6__ndk117basic_string_viewIcNSF_11char_traitsIcEEEEENUlPS4_E_8__invokeESK_
PUBLIC 4e9d0 0 geode::modifier::ModifyDerive<hook116<(anonymous namespace)::hook116Parent>, MenuLayer>::apply()
PUBLIC 4ece0 0 geode::modifier::ModifyBase<geode::modifier::ModifyDerive<hook116<(anonymous namespace)::hook116Parent>, MenuLayer> >::apply()
PUBLIC 4ece4 0 geode::modifier::AsStaticFunction_init<hook116<(anonymous namespace)::hook116Parent>, bool (hook116<(anonymous namespace)::hook116Parent>::*)()>::Impl<bool (hook116<(anonymous namespace)::hook116Parent>::*)()>::function(hook116<(anonymous namespace)::hook116Parent>*)
PUBLIC 4fbd0 0 geode::addresser::Addresser::addressOfVirtual<bool, MenuLayer, >(bool (MenuLayer::*)())
PUBLIC 4fcbc 0 MenuLayer::MenuLayer(geode::ZeroConstructorType)
PUBLIC 4fd58 0 std::__ndk1::vector<std::__ndk1::function<void (MenuLayer*)>, std::__ndk1::allocator<std::__ndk1::function<void (MenuLayer*)> > >::~vector[abi:ne180000]()
PUBLIC 4fdf8 0 __cxx_global_var_init.2
PUBLIC 50234 0 _GLOBAL__sub_I__MenuLayerManager.cpp
PUBLIC 50280 0 geode::modifier::ModifyBase<geode::modifier::ModifyDerive<hook18<(anonymous namespace)::hook18Parent>, MenuLayer> >::~ModifyBase()
PUBLIC 5029c 0 std::__ndk1::vector<std::__ndk1::function<void (MenuLayer*)>, std::__ndk1::allocator<std::__ndk1::function<void (MenuLayer*)> > >::__push_back_slow_path<std::__ndk1::function<void (MenuLayer*)> const&>(std::__ndk1::function<void (MenuLayer*)> const&)
PUBLIC 50520 0 std::__ndk1::__split_buffer<std::__ndk1::function<void (MenuLayer*)>, std::__ndk1::allocator<std::__ndk1::function<void (MenuLayer*)> >&>::~__split_buffer()
PUBLIC 50598 0 std::__ndk1::vector<std::__ndk1::function<void (MenuLayer*)>, std::__ndk1::allocator<std::__ndk1::function<void (MenuLayer*)> > >::__throw_length_error[abi:ne180000]() const
PUBLIC 505ac 0 geode::modifier::ModifyDerive<hook18<(anonymous namespace)::hook18Parent>, MenuLayer>::apply()
PUBLIC 508bc 0 geode::modifier::ModifyBase<geode::modifier::ModifyDerive<hook18<(anonymous namespace)::hook18Parent>, MenuLayer> >::apply()
PUBLIC 508c0 0 geode::modifier::AsStaticFunction_init<hook18<(anonymous namespace)::hook18Parent>, bool (hook18<(anonymous namespace)::hook18Parent>::*)()>::Impl<bool (hook18<(anonymous namespace)::hook18Parent>::*)()>::function(hook18<(anonymous namespace)::hook18Parent>*)
PUBLIC m 509c8 0 geodeImplicitEntry
PUBLIC 50a04 0 std::__ndk1::unordered_map<void*, bool, std::__ndk1::hash<void*>, std::__ndk1::equal_to<void*>, std::__ndk1::allocator<std::__ndk1::pair<void* const, bool> > >::~unordered_map[abi:ne180000]()
PUBLIC 50a50 0 wrapFunction(unsigned long, tulip::hook::WrapperMetadata const&)
PUBLIC 50b84 0 geode::impl::ResultData<void*, std::__ndk1::basic_string<char, std::__ndk1::char_traits<char>, std::__ndk1::allocator<char> > >::unwrapErr() &
PUBLIC 50bfc 0 geode::impl::ResultData<void*, std::__ndk1::basic_string<char, std::__ndk1::char_traits<char>, std::__ndk1::allocator<char> > >::~ResultData()
PUBLIC 50c70 0 tulip::hook::WrapperMetadata::~WrapperMetadata()
PUBLIC 50cd4 0 cocos2d::CCObject::CCObject()
PUBLIC 50edc 0 cocos2d::CCObject::~CCObject()
PUBLIC 50f00 0 cocos2d::CCNode::~CCNode()
PUBLIC 50f24 0 {virtual override thunk({offset(-320)}, cocos2d::CCLayer::~CCLayer())}
PUBLIC 50f2c 0 cocos2d::CCLayer::~CCLayer()
PUBLIC 50f50 0 {virtual override thunk({offset(-320)}, cocos2d::CCLayer::~CCLayer())}
PUBLIC 50f78 0 cocos2d::CCLayerRGBA::~CCLayerRGBA()
PUBLIC 51250 0 {virtual override thunk({offset(-320)}, cocos2d::CCLayerRGBA::~CCLayerRGBA())}
PUBLIC 51258 0 cocos2d::CCLayerRGBA::~CCLayerRGBA()
PUBLIC 5127c 0 {virtual override thunk({offset(-320)}, cocos2d::CCLayerRGBA::~CCLayerRGBA())}
PUBLIC 512a4 0 {virtual override thunk({offset(-320)}, cocos2d::CCLayerColor::~CCLayerColor())}
PUBLIC 512ac 0 cocos2d::CCLayerColor::~CCLayerColor()
PUBLIC 512d0 0 {virtual override thunk({offset(-320)}, cocos2d::CCLayerColor::~CCLayerColor())}
PUBLIC 512f8 0 FLAlertLayer::create(FLAlertLayerProtocol*, char const*, gd::string, char const*, char const*, float)
PUBLIC 514b0 0 tulip::hook::AbstractFunction::from<FLAlertLayer*, FLAlertLayerProtocol*, char const*, gd::string, char const*, char const*, float>(FLAlertLayer* (*)(FLAlertLayerProtocol*, char const*, gd::string, char const*, char const*, float))
PUBLIC 51994 0 GameLevelManager::storeUserName(int, int, gd::string)
PUBLIC 51b24 0 tulip::hook::AbstractFunction::from<void, GameLevelManager*, int, int, gd::string>(void (*)(GameLevelManager*, int, int, gd::string))
PUBLIC 51dfc 0 LevelManagerDelegate::loadLevelsFinished(cocos2d::CCArray*, char const*)
PUBLIC 51e00 0 LevelManagerDelegate::loadLevelsFailed(char const*)
PUBLIC 51e04 0 GJBaseGameLayer::~GJBaseGameLayer()
PUBLIC 52d98 0 {virtual override thunk({offset(-320)}, GJBaseGameLayer::~GJBaseGameLayer())}
PUBLIC 52da0 0 GJBaseGameLayer::~GJBaseGameLayer()
PUBLIC 52dc4 0 {virtual override thunk({offset(-320)}, GJBaseGameLayer::~GJBaseGameLayer())}
PUBLIC 52dec 0 GJBaseGameLayer::toggleGroupTriggered(int, bool, gd::vector<int> const&, int, int)
PUBLIC 52f58 0 tulip::hook::AbstractFunction::from<void, GJBaseGameLayer*, int, bool, gd::vector<int> const&, int, int>(void (*)(GJBaseGameLayer*, int, bool, gd::vector<int> const&, int, int))
PUBLIC 53404 0 {virtual override thunk({offset(-408)}, GJBaseGameLayer::toggleGroupTriggered(int, bool, gd::vector<int> const&, int, int))}
PUBLIC 5340c 0 GJBaseGameLayer::spawnGroup(int, bool, double, gd::vector<int> const&, int, int)
PUBLIC 53588 0 tulip::hook::AbstractFunction::from<void, GJBaseGameLayer*, int, bool, double, gd::vector<int> const&, int, int>(void (*)(GJBaseGameLayer*, int, bool, double, gd::vector<int> const&, int, int))
PUBLIC 53b34 0 {virtual override thunk({offset(-408)}, GJBaseGameLayer::spawnGroup(int, bool, double, gd::vector<int> const&, int, int))}
PUBLIC 53b3c 0 GJBaseGameLayer::spawnObject(GameObject*, double, gd::vector<int> const&)
PUBLIC 53c98 0 tulip::hook::AbstractFunction::from<void, GJBaseGameLayer*, GameObject*, double, gd::vector<int> const&>(void (*)(GJBaseGameLayer*, GameObject*, double, gd::vector<int> const&))
PUBLIC 53f6c 0 {virtual override thunk({offset(-408)}, GJBaseGameLayer::spawnObject(GameObject*, double, gd::vector<int> const&))}
PUBLIC 53f74 0 GJBaseGameLayer::activatePlatformerEndTrigger(EndTriggerGameObject*, gd::vector<int> const&)
PUBLIC 540c0 0 tulip::hook::AbstractFunction::from<void, GJBaseGameLayer*, EndTriggerGameObject*, gd::vector<int> const&>(void (*)(GJBaseGameLayer*, EndTriggerGameObject*, gd::vector<int> const&))
PUBLIC 541c8 0 GJBaseGameLayer::toggleGlitter(bool)
PUBLIC 541cc 0 GJBaseGameLayer::timeForPos(cocos2d::CCPoint, int, int, bool, int)
PUBLIC 541d4 0 GJBaseGameLayer::posForTime(float)
PUBLIC 541dc 0 GJBaseGameLayer::resetSPTriggered()
PUBLIC 541e0 0 GJBaseGameLayer::createCustomParticle(gd::string const&, cocos2d::ParticleStruct const&, int, bool)
PUBLIC 54344 0 tulip::hook::AbstractFunction::from<TodoReturnPlaceholder, GJBaseGameLayer*, gd::string const&, cocos2d::ParticleStruct const&, int, bool>(TodoReturnPlaceholder (*)(GJBaseGameLayer*, gd::string const&, cocos2d::ParticleStruct const&, int, bool))
PUBLIC 54718 0 GJBaseGameLayer::claimCustomParticle(gd::string const&, cocos2d::ParticleStruct const&, int, int, int, bool)
PUBLIC 54894 0 tulip::hook::AbstractFunction::from<TodoReturnPlaceholder, GJBaseGameLayer*, gd::string const&, cocos2d::ParticleStruct const&, int, int, int, bool>(TodoReturnPlaceholder (*)(GJBaseGameLayer*, gd::string const&, cocos2d::ParticleStruct const&, int, int, int, bool))
PUBLIC 54e68 0 GJBaseGameLayer::unclaimCustomParticle(gd::string const&, cocos2d::CCParticleSystemQuad*)
PUBLIC 54fb4 0 tulip::hook::AbstractFunction::from<TodoReturnPlaceholder, GJBaseGameLayer*, gd::string const&, cocos2d::CCParticleSystemQuad*>(TodoReturnPlaceholder (*)(GJBaseGameLayer*, gd::string const&, cocos2d::CCParticleSystemQuad*))
PUBLIC 550bc 0 GJSearchObject::create(SearchType, gd::string)
PUBLIC 5523c 0 tulip::hook::AbstractFunction::from<GJSearchObject*, SearchType, gd::string>(GJSearchObject* (*)(SearchType, gd::string))
PUBLIC 552e0 0 LevelBrowserLayer::~LevelBrowserLayer()
PUBLIC 555fc 0 {virtual override thunk({offset(-320)}, LevelBrowserLayer::~LevelBrowserLayer())}
PUBLIC 55604 0 LevelBrowserLayer::~LevelBrowserLayer()
PUBLIC 55628 0 {virtual override thunk({offset(-320)}, LevelBrowserLayer::~LevelBrowserLayer())}
PUBLIC 55650 0 LevelBrowserLayer::ccTouchBegan(cocos2d::CCTouch*, cocos2d::CCEvent*)
PUBLIC 55658 0 {virtual override thunk({offset(-320)}, LevelBrowserLayer::ccTouchBegan(cocos2d::CCTouch*, cocos2d::CCEvent*))}
PUBLIC 55660 0 LevelBrowserLayer::ccTouchMoved(cocos2d::CCTouch*, cocos2d::CCEvent*)
PUBLIC 55664 0 {virtual override thunk({offset(-320)}, LevelBrowserLayer::ccTouchMoved(cocos2d::CCTouch*, cocos2d::CCEvent*))}
PUBLIC 55668 0 LevelBrowserLayer::ccTouchEnded(cocos2d::CCTouch*, cocos2d::CCEvent*)
PUBLIC 5566c 0 {virtual override thunk({offset(-320)}, LevelBrowserLayer::ccTouchEnded(cocos2d::CCTouch*, cocos2d::CCEvent*))}
PUBLIC 55670 0 LevelBrowserLayer::ccTouchCancelled(cocos2d::CCTouch*, cocos2d::CCEvent*)
PUBLIC 55674 0 {virtual override thunk({offset(-320)}, LevelBrowserLayer::ccTouchCancelled(cocos2d::CCTouch*, cocos2d::CCEvent*))}
PUBLIC 55678 0 LevelBrowserLayer::setupPageInfo(gd::string, char const*)
PUBLIC 557ec 0 tulip::hook::AbstractFunction::from<void, LevelBrowserLayer*, gd::string, char const*>(void (*)(LevelBrowserLayer*, gd::string, char const*))
PUBLIC 558f8 0 {virtual override thunk({offset(-544)}, LevelBrowserLayer::setupPageInfo(gd::string, char const*))}
PUBLIC 55900 0 LevelBrowserLayer::shareCommentClosed(gd::string, ShareCommentLayer*)
PUBLIC 55a74 0 tulip::hook::AbstractFunction::from<void, LevelBrowserLayer*, gd::string, ShareCommentLayer*>(void (*)(LevelBrowserLayer*, gd::string, ShareCommentLayer*))
PUBLIC 55b80 0 {virtual override thunk({offset(-584)}, LevelBrowserLayer::shareCommentClosed(gd::string, ShareCommentLayer*))}
PUBLIC 55b88 0 LevelBrowserLayer::setTextPopupClosed(SetTextPopup*, gd::string)
PUBLIC 55cfc 0 tulip::hook::AbstractFunction::from<void, LevelBrowserLayer*, SetTextPopup*, gd::string>(void (*)(LevelBrowserLayer*, SetTextPopup*, gd::string))
PUBLIC 55e08 0 {virtual override thunk({offset(-568)}, LevelBrowserLayer::setTextPopupClosed(SetTextPopup*, gd::string))}
PUBLIC 55e10 0 cocos2d::CCObject::update(float)
PUBLIC 55e14 0 cocos2d::CCLayerRGBA::setOpacityModifyRGB(bool)
PUBLIC 55e18 0 cocos2d::CCLayerRGBA::isOpacityModifyRGB()
PUBLIC 55e20 0 {virtual override thunk({offset(-408)}, cocos2d::CCLayerRGBA::setOpacityModifyRGB(bool))}
PUBLIC 55e24 0 {virtual override thunk({offset(-408)}, cocos2d::CCLayerRGBA::isOpacityModifyRGB())}
PUBLIC 55e2c 0 cocos2d::CCLayerColor::~CCLayerColor()
PUBLIC 560e8 0 CCIndexPath::~CCIndexPath()
PUBLIC 5610c 0 cocos2d::CCNode::~CCNode()
PUBLIC 56384 0 cocos2d::CCLayer::~CCLayer()
PUBLIC 5664c 0 cocos2d::CCObject::~CCObject()
PUBLIC 56b18 0 _ZN5geode15UnwrapExceptionC2IRPvQsr4implE18IsStringStreamableIT_EEENS_4impl5OkTagEOS4_
PUBLIC 56c6c 0 std::__ndk1::__variant_detail::__visitation::__base::__dispatcher<(unsigned long)0>::__dispatch[abi:ne180000]<std::__ndk1::__variant_detail::__dtor<std::__ndk1::__variant_detail::__traits<void*, std::__ndk1::basic_string<char, std::__ndk1::char_traits<char>, std::__ndk1::allocator<char> > >, (std::__ndk1::__variant_detail::_Trait)1>::__destroy[abi:ne180000]()::{lambda(auto:1&)#1}, std::__ndk1::__variant_detail::__base<(std::__ndk1::__variant_detail::__traits<void*, std::__ndk1::basic_string<char, std::__ndk1::char_traits<char>, std::__ndk1::allocator<char> > >)1, std::__ndk1::__variant_detail::__traits, std::__ndk1::allocator<char> >&>(std::__ndk1::__variant_detail::__dtor<std::__ndk1::__variant_detail::__traits<void*, std::__ndk1::basic_string<char, std::__ndk1::char_traits<char>, std::__ndk1::allocator<char> > >, (std::__ndk1::__variant_detail::_Trait)1>, std::__ndk1::__variant_detail::__base<(std::__ndk1::__variant_detail::__traits<void*, std::__ndk1::basic_string<char, std::__ndk1::char_traits<char>, std::__ndk1::allocator<char> > >)1, std::__ndk1::__variant_detail::__traits, std::__ndk1::allocator<char> >&)
PUBLIC 56c70 0 std::__ndk1::__variant_detail::__visitation::__base::__dispatcher<(unsigned long)1>::__dispatch[abi:ne180000]<std::__ndk1::__variant_detail::__dtor<std::__ndk1::__variant_detail::__traits<void*, std::__ndk1::basic_string<char, std::__ndk1::char_traits<char>, std::__ndk1::allocator<char> > >, (std::__ndk1::__variant_detail::_Trait)1>::__destroy[abi:ne180000]()::{lambda(auto:1&)#1}, std::__ndk1::__variant_detail::__base<(std::__ndk1::__variant_detail::__traits<void*, std::__ndk1::basic_string<char, std::__ndk1::char_traits<char>, std::__ndk1::allocator<char> > >)1, std::__ndk1::__variant_detail::__traits, std::__ndk1::allocator<char> >&>(std::__ndk1::__variant_detail::__dtor<std::__ndk1::__variant_detail::__traits<void*, std::__ndk1::basic_string<char, std::__ndk1::char_traits<char>, std::__ndk1::allocator<char> > >, (std::__ndk1::__variant_detail::_Trait)1>, std::__ndk1::__variant_detail::__base<(std::__ndk1::__variant_detail::__traits<void*, std::__ndk1::basic_string<char, std::__ndk1::char_traits<char>, std::__ndk1::allocator<char> > >)1, std::__ndk1::__variant_detail::__traits, std::__ndk1::allocator<char> >&)
PUBLIC 56c84 0 std::__ndk1::__hash_table<std::__ndk1::__hash_value_type<void*, bool>, std::__ndk1::__unordered_map_hasher<void*, std::__ndk1::__hash_value_type<void*, bool>, std::__ndk1::hash<void*>, std::__ndk1::equal_to<void*>, true>, std::__ndk1::__unordered_map_equal<void*, std::__ndk1::__hash_value_type<void*, bool>, std::__ndk1::equal_to<void*>, std::__ndk1::hash<void*>, true>, std::__ndk1::allocator<std::__ndk1::__hash_value_type<void*, bool> > >::__emplace_unique_key_args<void*, std::__ndk1::piecewise_construct_t const&, std::__ndk1::tuple<void* const&>, std::__ndk1::tuple<> >(void* const&, std::__ndk1::piecewise_construct_t const&, std::__ndk1::tuple<void* const&>, std::__ndk1::tuple<>)
PUBLIC 57164 0 __udivti3
PUBLIC 57170 0 __udivmodti4
PUBLIC m 573bc 0 __eqtf2
PUBLIC 5745c 0 __unordtf2
PUBLIC 57494 0 fmt::v11::detail::write_loc(fmt::v11::basic_appender<char>, fmt::v11::loc_value, fmt::v11::format_specs const&, fmt::v11::detail::locale_ref)
PUBLIC 57728 0 fmt::v11::format_facet<std::__ndk1::locale>::~format_facet()
PUBLIC 577a4 0 fmt::v11::report_error(char const*)
PUBLIC 577f4 0 fmt::v11::format_error::runtime_error(char const*)
PUBLIC 57820 0 fmt::v11::format_facet<std::__ndk1::locale>::do_put(fmt::v11::basic_appender<char>, fmt::v11::loc_value, fmt::v11::format_specs const&) const
PUBLIC 57fe0 0 fmt::v11::detail::loc_writer<char>::~loc_writer()
PUBLIC 58044 0 fmt::v11::detail::vformat_to<char>(fmt::v11::detail::buffer<char>&, fmt::v11::basic_string_view<char>, fmt::v11::detail::vformat_args<char>::type, fmt::v11::detail::locale_ref)
PUBLIC 585b4 0 fmt::v11::detail::is_printable(unsigned int)
PUBLIC 587dc 0 fmt::v11::detail::dragonbox::to_decimal<float>(float)
PUBLIC 58ab8 0 fmt::v11::detail::dragonbox::to_decimal<double>(double)
PUBLIC 58ff4 0 fmt::v11::format_facet<std::__ndk1::locale>::~format_facet()
PUBLIC 59080 0 fmt::v11::format_error::~format_error()
PUBLIC 590a4 0 fmt::v11::detail::copy_noinline<char, char const*, fmt::v11::basic_appender<char> >(char const*, char const*, fmt::v11::basic_appender<char>)
PUBLIC 591f4 0 fmt::v11::detail::default_arg_formatter<char>::operator()<bool>(bool)
PUBLIC 5925c 0 fmt::v11::detail::default_arg_formatter<char>::operator()<char>(char)
PUBLIC 592ec 0 fmt::v11::detail::default_arg_formatter<char>::operator()<float>(float)
PUBLIC 593d8 0 fmt::v11::detail::default_arg_formatter<char>::operator()<double>(double)
PUBLIC 594c4 0 fmt::v11::detail::default_arg_formatter<char>::operator()<char const*>(char const*)
PUBLIC 5950c 0 fmt::v11::detail::default_arg_formatter<char>::operator()<void const*>(void const*)
PUBLIC 595a4 0 _ZN3fmt3v116detail5writeIcNS0_14basic_appenderIcEEiTnNSt6__ndk19enable_ifIXaaaasr11is_integralIT1_EE5valuentsr3std7is_sameIS7_bEE5valuentsr3std7is_sameIS7_T_EE5valueEiE4typeELi0EEET0_SB_S7_
PUBLIC 59804 0 fmt::v11::detail::copy_noinline<char, char*, fmt::v11::basic_appender<char> >(char*, char*, fmt::v11::basic_appender<char>)
PUBLIC 59954 0 _ZN3fmt3v116detail5writeIcNS0_14basic_appenderIcEEjTnNSt6__ndk19enable_ifIXaaaasr11is_integralIT1_EE5valuentsr3std7is_sameIS7_bEE5valuentsr3std7is_sameIS7_T_EE5valueEiE4typeELi0EEET0_SB_S7_
PUBLIC 59b34 0 _ZN3fmt3v116detail5writeIcNS0_14basic_appenderIcEExTnNSt6__ndk19enable_ifIXaaaasr11is_integralIT1_EE5valuentsr3std7is_sameIS7_bEE5valuentsr3std7is_sameIS7_T_EE5valueEiE4typeELi0EEET0_SB_S7_
PUBLIC 59db8 0 _ZN3fmt3v116detail5writeIcNS0_14basic_appenderIcEEyTnNSt6__ndk19enable_ifIXaaaasr11is_integralIT1_EE5valuentsr3std7is_sameIS7_bEE5valuentsr3std7is_sameIS7_T_EE5valueEiE4typeELi0EEET0_SB_S7_
PUBLIC 59fc0 0 _ZN3fmt3v116detail5writeIcNS0_14basic_appenderIcEEnTnNSt6__ndk19enable_ifIXaaaasr11is_integralIT1_EE5valuentsr3std7is_sameIS7_bEE5valuentsr3std7is_sameIS7_T_EE5valueEiE4typeELi0EEET0_SB_S7_
PUBLIC 5a320 0 _ZN3fmt3v116detail5writeIcNS0_14basic_appenderIcEEoTnNSt6__ndk19enable_ifIXaaaasr11is_integralIT1_EE5valuentsr3std7is_sameIS7_bEE5valuentsr3std7is_sameIS7_T_EE5valueEiE4typeELi0EEET0_SB_S7_
PUBLIC 5a634 0 _ZN3fmt3v116detail5writeIcNS0_14basic_appenderIcEEbTnNSt6__ndk19enable_ifIXsr3std7is_sameIT1_bEE5valueEiE4typeELi0EEET0_SA_S7_RKNS0_12format_specsENS1_10locale_refE
PUBLIC 5a8e8 0 fmt::v11::detail::write_int_noinline<char, fmt::v11::basic_appender<char>, unsigned int>(fmt::v11::basic_appender<char>, fmt::v11::detail::write_int_arg<unsigned int>, fmt::v11::format_specs const&, fmt::v11::detail::locale_ref)
PUBLIC 5b6c8 0 fmt::v11::detail::write_padded<char, (fmt::v11::align::type)1, fmt::v11::basic_appender<char>, fmt::v11::detail::write_char<char, fmt::v11::basic_appender<char> >(fmt::v11::basic_appender<char>, char, fmt::v11::format_specs const&)::{lambda(fmt::v11::basic_appender<char>&)#1}>(fmt::v11::basic_appender<char>, fmt::v11::format_specs const&, unsigned long, unsigned long, fmt::v11::detail::write_char<char, fmt::v11::basic_appender<char> >(fmt::v11::basic_appender<char>, char, fmt::v11::format_specs const&)::{lambda(fmt::v11::basic_appender<char>&)#1})
PUBLIC 5b92c 0 fmt::v11::detail::write_padded<char, (fmt::v11::align::type)1, fmt::v11::basic_appender<char>, fmt::v11::detail::write_nonfinite<char, fmt::v11::basic_appender<char> >(fmt::v11::basic_appender<char>, bool, fmt::v11::format_specs, fmt::v11::sign::type)::{lambda(fmt::v11::basic_appender<char>&)#1}>(fmt::v11::basic_appender<char>, fmt::v11::format_specs const&, unsigned long, unsigned long, fmt::v11::detail::write_nonfinite<char, fmt::v11::basic_appender<char> >(fmt::v11::basic_appender<char>, bool, fmt::v11::format_specs, fmt::v11::sign::type)::{lambda(fmt::v11::basic_appender<char>&)#1})
PUBLIC 5bb84 0 fmt::v11::detail::do_write_float<char, fmt::v11::basic_appender<char>, fmt::v11::detail::dragonbox::decimal_fp<float>, fmt::v11::detail::digit_grouping<char> >(fmt::v11::basic_appender<char>, fmt::v11::detail::dragonbox::decimal_fp<float> const&, fmt::v11::format_specs const&, fmt::v11::detail::float_specs, fmt::v11::detail::locale_ref)
PUBLIC 5c808 0 fmt::v11::detail::do_write_float<char, fmt::v11::basic_appender<char>, fmt::v11::detail::dragonbox::decimal_fp<float>, fmt::v11::detail::digit_grouping<char> >(fmt::v11::basic_appender<char>, fmt::v11::detail::dragonbox::decimal_fp<float> const&, fmt::v11::format_specs const&, fmt::v11::detail::float_specs, fmt::v11::detail::locale_ref)::{lambda(fmt::v11::basic_appender<char>(fmt::v11::basic_appender<char>))#1}::operator() const
PUBLIC 5c95c 0 fmt::v11::detail::digit_grouping<char>::digit_grouping(fmt::v11::detail::locale_ref, bool)
PUBLIC 5cbc8 0 fmt::v11::detail::digit_grouping<char>::~digit_grouping()
PUBLIC 5cc0c 0 fmt::v11::detail::write_exponent<char, fmt::v11::basic_appender<char> >(int, fmt::v11::basic_appender<char>)
PUBLIC 5cddc 0 _ZN3fmt3v116detail17write_significandIcjTnNSt6__ndk19enable_ifIXsr3std11is_integralIT0_EE5valueEiE4typeELi0EEEPT_S9_S5_iiS8_
PUBLIC 5cf58 0 fmt::v11::detail::digit_grouping<char>::apply<fmt::v11::basic_appender<char>, char>(fmt::v11::basic_appender<char>, fmt::v11::basic_string_view<char>) const
PUBLIC 5d310 0 fmt::v11::basic_memory_buffer<int, (unsigned long)500, std::__ndk1::allocator<int> >::grow(fmt::v11::detail::buffer<int>&, unsigned long)
PUBLIC 5d3b0 0 fmt::v11::detail::do_write_float<char, fmt::v11::basic_appender<char>, fmt::v11::detail::dragonbox::decimal_fp<double>, fmt::v11::detail::digit_grouping<char> >(fmt::v11::basic_appender<char>, fmt::v11::detail::dragonbox::decimal_fp<double> const&, fmt::v11::format_specs const&, fmt::v11::detail::float_specs, fmt::v11::detail::locale_ref)
PUBLIC 5e070 0 fmt::v11::detail::do_write_float<char, fmt::v11::basic_appender<char>, fmt::v11::detail::dragonbox::decimal_fp<double>, fmt::v11::detail::digit_grouping<char> >(fmt::v11::basic_appender<char>, fmt::v11::detail::dragonbox::decimal_fp<double> const&, fmt::v11::format_specs const&, fmt::v11::detail::float_specs, fmt::v11::detail::locale_ref)::{lambda(fmt::v11::basic_appender<char>(fmt::v11::basic_appender<char>))#1}::operator() const
PUBLIC 5e1c8 0 _ZN3fmt3v116detail17write_significandIcmTnNSt6__ndk19enable_ifIXsr3std11is_integralIT0_EE5valueEiE4typeELi0EEEPT_S9_S5_iiS8_
PUBLIC 5e358 0 fmt::v11::detail::write_float<char, fmt::v11::basic_appender<char>, long double>(fmt::v11::basic_appender<char>, long double, fmt::v11::format_specs, fmt::v11::detail::locale_ref)
PUBLIC 5ee50 0 fmt::v11::detail::write_padded<char, (fmt::v11::align::type)2, fmt::v11::basic_appender<char>, fmt::v11::detail::write_bytes<char, (fmt::v11::align::type)2, fmt::v11::basic_appender<char> >(fmt::v11::basic_appender<char>, fmt::v11::basic_string_view<char>, fmt::v11::format_specs const&)::{lambda(fmt::v11::basic_appender<char>&)#1}>(fmt::v11::basic_appender<char>, fmt::v11::format_specs const&, unsigned long, unsigned long, fmt::v11::detail::write_bytes<char, (fmt::v11::align::type)2, fmt::v11::basic_appender<char> >(fmt::v11::basic_appender<char>, fmt::v11::basic_string_view<char>, fmt::v11::format_specs const&)::{lambda(fmt::v11::basic_appender<char>&)#1})
PUBLIC 5f044 0 fmt::v11::detail::format_dragon(fmt::v11::detail::basic_fp<unsigned __int128>, unsigned int, int, fmt::v11::detail::buffer<char>&, int&)
PUBLIC 60474 0 fmt::v11::detail::bigint::operator<<=(int)
PUBLIC 60598 0 fmt::v11::detail::bigint::assign_pow10(int)
PUBLIC 60cf4 0 fmt::v11::detail::bigint::divmod_assign(fmt::v11::detail::bigint const&)
PUBLIC 61014 0 fmt::v11::basic_memory_buffer<unsigned int, (unsigned long)32, std::__ndk1::allocator<unsigned int> >::grow(fmt::v11::detail::buffer<unsigned int>&, unsigned long)
PUBLIC 610b4 0 fmt::v11::detail::do_write_float<char, fmt::v11::basic_appender<char>, fmt::v11::detail::big_decimal_fp, fmt::v11::detail::digit_grouping<char> >(fmt::v11::basic_appender<char>, fmt::v11::detail::big_decimal_fp const&, fmt::v11::format_specs const&, fmt::v11::detail::float_specs, fmt::v11::detail::locale_ref)
PUBLIC 61f94 0 fmt::v11::detail::do_write_float<char, fmt::v11::basic_appender<char>, fmt::v11::detail::big_decimal_fp, fmt::v11::detail::digit_grouping<char> >(fmt::v11::basic_appender<char>, fmt::v11::detail::big_decimal_fp const&, fmt::v11::format_specs const&, fmt::v11::detail::float_specs, fmt::v11::detail::locale_ref)::{lambda(fmt::v11::basic_appender<char>(fmt::v11::basic_appender<char>))#1}::operator() const
PUBLIC 620f4 0 fmt::v11::detail::write_padded<char, (fmt::v11::align::type)2, fmt::v11::basic_appender<char>, fmt::v11::detail::write_ptr<char, fmt::v11::basic_appender<char>, unsigned long>(fmt::v11::basic_appender<char>, unsigned long, fmt::v11::format_specs const*)::{lambda(fmt::v11::basic_appender<char>&)#1}>(fmt::v11::basic_appender<char>, fmt::v11::format_specs const&, unsigned long, unsigned long, fmt::v11::detail::write_ptr<char, fmt::v11::basic_appender<char>, unsigned long>(fmt::v11::basic_appender<char>, unsigned long, fmt::v11::format_specs const*)::{lambda(fmt::v11::basic_appender<char>&)#1})
PUBLIC 62308 0 fmt::v11::detail::parse_replacement_field<char, fmt::v11::detail::vformat_to<char>(fmt::v11::detail::buffer<char>&, fmt::v11::basic_string_view<char>, fmt::v11::detail::vformat_args<char>::type, fmt::v11::detail::locale_ref)::format_handler&>(char const*, char const*, fmt::v11::detail::vformat_to<char>(fmt::v11::detail::buffer<char>&, fmt::v11::basic_string_view<char>, fmt::v11::detail::vformat_args<char>::type, fmt::v11::detail::locale_ref)::format_handler&)
PUBLIC 637bc 0 fmt::v11::detail::write_int_noinline<char, fmt::v11::basic_appender<char>, unsigned long>(fmt::v11::basic_appender<char>, fmt::v11::detail::write_int_arg<unsigned long>, fmt::v11::format_specs const&, fmt::v11::detail::locale_ref)
PUBLIC 6461c 0 fmt::v11::detail::write_int_noinline<char, fmt::v11::basic_appender<char>, unsigned __int128>(fmt::v11::basic_appender<char>, fmt::v11::detail::write_int_arg<unsigned __int128>, fmt::v11::format_specs const&, fmt::v11::detail::locale_ref)
PUBLIC 656ac 0 _ZN3fmt3v116detail15format_hexfloatIdTnNSt6__ndk19enable_ifIXntsr16is_double_doubleIT_EE5valueEiE4typeELi0EEEvS5_NS0_12format_specsERNS1_6bufferIcEE
PUBLIC 65bcc 0 fmt::v11::detail::format_float<double>(double, int, fmt::v11::detail::float_specs, fmt::v11::detail::buffer<char>&)
PUBLIC 6656c 0 fmt::v11::detail::write_int<fmt::v11::basic_appender<char>, unsigned long, char>(fmt::v11::basic_appender<char>, unsigned long, unsigned int, fmt::v11::format_specs const&, fmt::v11::detail::digit_grouping<char> const&)
PUBLIC 66ae8 0 fmt::v11::detail::write_int<fmt::v11::basic_appender<char>, unsigned __int128, char>(fmt::v11::basic_appender<char>, unsigned __int128, unsigned int, fmt::v11::format_specs const&, fmt::v11::detail::digit_grouping<char> const&)
PUBLIC 67170 0 <.plt ELF section in cvolton.misc_bugfixes.android64.so>
STACK CFI INIT 2b580 10 .cfa: sp 0 +
STACK CFI INIT 2b590 8 .cfa: sp 0 +
STACK CFI INIT 2b598 8 .cfa: sp 0 +
STACK CFI INIT 2b5a0 14 .cfa: sp 0 +
STACK CFI INIT 2b5b4 1c .cfa: sp 0 +
STACK CFI INIT 2b5d0 10 .cfa: sp 0 +
STACK CFI INIT 2b72c 4 .cfa: sp 0 +
STACK CFI INIT 2b730 4 .cfa: sp 0 +
STACK CFI INIT 2b734 24 .cfa: sp 0 +
STACK CFI 2b738 .cfa: sp 16 +
STACK CFI 2b73c .cfa: x29 16 + .ra: .cfa -8 + ^ x29: .cfa -16 + ^
STACK CFI 2b750 .cfa: sp 16 +
STACK CFI 2b754 .cfa: sp 0 +
STACK CFI INIT 2b758 10 .cfa: sp 0 +
STACK CFI INIT 2b768 4 .cfa: sp 0 +
STACK CFI INIT 2b76c 4 .cfa: sp 0 +
STACK CFI INIT 2b8ac 1c .cfa: sp 0 +
STACK CFI INIT 2b8c8 c .cfa: sp 0 +
STACK CFI INIT 2b8d4 4 .cfa: sp 0 +
STACK CFI INIT 2b8d8 4 .cfa: sp 0 +
STACK CFI INIT 2b8dc 38 .cfa: sp 0 +
STACK CFI 2b8e0 .cfa: sp 32 +
STACK CFI 2b8e8 .cfa: x29 32 + x19: .cfa -16 + ^ .ra: .cfa -24 + ^ x29: .cfa -32 + ^
STACK CFI 2b908 .cfa: sp 32 +
STACK CFI 2b910 .cfa: sp 0 +
STACK CFI INIT 2b914 18 .cfa: sp 0 +
STACK CFI INIT 2b92c 4 .cfa: sp 0 +
STACK CFI INIT 2b930 4 .cfa: sp 0 +
STACK CFI INIT 2bae0 1c .cfa: sp 0 +
STACK CFI INIT 2bafc c .cfa: sp 0 +
STACK CFI INIT 2bb08 4 .cfa: sp 0 +
STACK CFI INIT 2bb0c 4 .cfa: sp 0 +
STACK CFI INIT 2bb10 34 .cfa: sp 0 +
STACK CFI 2bb14 .cfa: sp 32 +
STACK CFI 2bb1c .cfa: x29 32 + x19: .cfa -16 + ^ .ra: .cfa -24 + ^ x29: .cfa -32 + ^
STACK CFI 2bb38 .cfa: sp 32 +
STACK CFI 2bb40 .cfa: sp 0 +
STACK CFI INIT 2bb44 14 .cfa: sp 0 +
STACK CFI INIT 2bb58 4 .cfa: sp 0 +
STACK CFI INIT 2bb5c 4 .cfa: sp 0 +
STACK CFI INIT 2bb60 20 .cfa: sp 0 +
STACK CFI INIT 2bb80 1c .cfa: sp 0 +
STACK CFI INIT 2bb9c c .cfa: sp 0 +
STACK CFI INIT 2bba8 4 .cfa: sp 0 +
STACK CFI INIT 2bd20 5c .cfa: sp 0 +
STACK CFI 2bd24 .cfa: sp 32 +
STACK CFI 2bd2c .cfa: x29 32 + x19: .cfa -16 + ^ .ra: .cfa -24 + ^ x29: .cfa -32 + ^
STACK CFI 2bd70 .cfa: sp 32 +
STACK CFI 2bd78 .cfa: sp 0 +
STACK CFI INIT 2bd7c 64 .cfa: sp 0 +
STACK CFI 2bd80 .cfa: sp 32 +
STACK CFI 2bd88 .cfa: x29 32 + x19: .cfa -16 + ^ .ra: .cfa -24 + ^ x29: .cfa -32 + ^
STACK CFI 2bdd4 .cfa: sp 32 +
STACK CFI 2bddc .cfa: sp 0 +
STACK CFI INIT 2bde0 4 .cfa: sp 0 +
STACK CFI INIT 2bde4 4 .cfa: sp 0 +
STACK CFI INIT 2bde8 34 .cfa: sp 0 +
STACK CFI 2bdec .cfa: sp 32 +
STACK CFI 2bdf4 .cfa: x29 32 + x19: .cfa -16 + ^ .ra: .cfa -24 + ^ x29: .cfa -32 + ^
STACK CFI 2be10 .cfa: sp 32 +
STACK CFI 2be18 .cfa: sp 0 +
STACK CFI INIT 2be1c 14 .cfa: sp 0 +
STACK CFI INIT 2be30 4 .cfa: sp 0 +
STACK CFI INIT 2be34 4 .cfa: sp 0 +
STACK CFI INIT 2be38 10 .cfa: sp 0 +
STACK CFI INIT 2be48 1c .cfa: sp 0 +
STACK CFI INIT 2be64 c .cfa: sp 0 +
STACK CFI INIT 2be70 104 .cfa: sp 0 +
STACK CFI 2be74 .cfa: sp 64 +
STACK CFI 2be84 .cfa: x29 64 + x19: .cfa -8 + ^ x20: .cfa -16 + ^ x21: .cfa -24 + ^ x22: .cfa -32 + ^ x23: .cfa -48 + ^ .ra: .cfa -56 + ^ x29: .cfa -64 + ^
STACK CFI 2bee0 .cfa: sp 64 +
STACK CFI 2bef0 .cfa: sp 0 +
STACK CFI 2bef4 .cfa: x29 64 +
STACK CFI 2bf10 .cfa: sp 64 +
STACK CFI 2bf20 .cfa: sp 0 +
STACK CFI 2bf24 .cfa: x29 64 +
STACK CFI 2bf60 .cfa: sp 64 +
STACK CFI 2bf70 .cfa: sp 0 +
STACK CFI INIT 2c0a0 30 .cfa: sp 0 +
STACK CFI INIT 2c0d0 98 .cfa: sp 0 +
STACK CFI INIT 2c168 59c .cfa: sp 0 +
STACK CFI INIT 2c704 8c .cfa: sp 0 +
STACK CFI INIT 2c790 30 .cfa: sp 0 +
STACK CFI INIT 2cb88 50 .cfa: sp 0 +
STACK CFI 2cb8c .cfa: sp 32 +
STACK CFI 2cb94 .cfa: x29 32 + x19: .cfa -16 + ^ .ra: .cfa -24 + ^ x29: .cfa -32 + ^
STACK CFI 2cbac .cfa: sp 32 +
STACK CFI 2cbb4 .cfa: sp 0 +
STACK CFI 2cbb8 .cfa: x29 32 +
STACK CFI 2cbcc .cfa: sp 32 +
STACK CFI 2cbd4 .cfa: sp 0 +
STACK CFI INIT 2cbd8 98 .cfa: sp 0 +
STACK CFI 2cbdc .cfa: sp 96 +
STACK CFI 2cbf0 .cfa: x29 64 + x19: .cfa -8 + ^ x20: .cfa -16 + ^ x21: .cfa -24 + ^ x22: .cfa -32 + ^ x23: .cfa -48 + ^ .ra: .cfa -56 + ^ x29: .cfa -64 + ^
STACK CFI 2cc54 .cfa: sp 96 +
STACK CFI 2cc68 .cfa: sp 0 +
STACK CFI 2cc6c .cfa: x29 64 +
STACK CFI INIT 2cc70 10 .cfa: sp 0 +
STACK CFI 2cc74 .cfa: sp 16 +
STACK CFI 2cc78 .cfa: x29 16 + .ra: .cfa -8 + ^ x29: .cfa -16 + ^
STACK CFI INIT 2cec0 e8 .cfa: sp 0 +
STACK CFI 2cec4 .cfa: sp 32 +
STACK CFI 2cecc .cfa: x29 32 + x19: .cfa -8 + ^ x20: .cfa -16 + ^ .ra: .cfa -24 + ^ x29: .cfa -32 + ^
STACK CFI 2cf0c .cfa: sp 32 +
STACK CFI 2cf14 .cfa: sp 0 +
STACK CFI 2cf18 .cfa: x29 32 +
STACK CFI 2cf54 .cfa: sp 32 +
STACK CFI 2cf5c .cfa: sp 0 +
STACK CFI 2cf60 .cfa: x29 32 +
STACK CFI 2cf80 .cfa: sp 32 +
STACK CFI 2cf88 .cfa: sp 0 +
STACK CFI 2cf8c .cfa: x29 32 +
STACK CFI 2cf9c .cfa: sp 32 +
STACK CFI 2cfa4 .cfa: sp 0 +
STACK CFI INIT 2cfa8 ac .cfa: sp 0 +
STACK CFI 2cfac .cfa: sp 64 +
STACK CFI 2cfbc .cfa: x29 64 + x19: .cfa -8 + ^ x20: .cfa -16 + ^ x21: .cfa -24 + ^ x22: .cfa -32 + ^ x23: .cfa -48 + ^ .ra: .cfa -56 + ^ x29: .cfa -64 + ^
STACK CFI 2d038 .cfa: sp 64 +
STACK CFI 2d048 .cfa: sp 0 +
STACK CFI 2d04c .cfa: x29 64 +
STACK CFI INIT 2d054 110 .cfa: sp 0 +
STACK CFI 2d058 .cfa: sp 64 +
STACK CFI 2d068 .cfa: x29 64 + x19: .cfa -8 + ^ x20: .cfa -16 + ^ x21: .cfa -24 + ^ x22: .cfa -32 + ^ x23: .cfa -40 + ^ x24: .cfa -48 + ^ .ra: .cfa -56 + ^ x29: .cfa -64 + ^
STACK CFI 2d148 .cfa: sp 64 +
STACK CFI 2d158 .cfa: sp 0 +
STACK CFI 2d15c .cfa: x29 64 +
STACK CFI INIT 2d164 14 .cfa: sp 0 +
STACK CFI 2d168 .cfa: sp 16 +
STACK CFI 2d16c .cfa: x29 16 + .ra: .cfa -8 + ^ x29: .cfa -16 + ^
STACK CFI INIT 2d1c8 30 .cfa: sp 0 +
STACK CFI 2d1cc .cfa: sp 32 +
STACK CFI 2d1d4 .cfa: x29 32 + x19: .cfa -16 + ^ .ra: .cfa -24 + ^ x29: .cfa -32 + ^
STACK CFI 2d1ec .cfa: sp 32 +
STACK CFI 2d1f4 .cfa: sp 0 +
STACK CFI INIT 2d4fc 80 .cfa: sp 0 +
STACK CFI 2d500 .cfa: sp 48 +
STACK CFI 2d50c .cfa: x29 48 + x19: .cfa -8 + ^ x20: .cfa -16 + ^ x21: .cfa -24 + ^ x22: .cfa -32 + ^ .ra: .cfa -40 + ^ x29: .cfa -48 + ^
STACK CFI 2d524 .cfa: sp 48 +
STACK CFI 2d530 .cfa: sp 0 +
STACK CFI 2d534 .cfa: x29 48 +
STACK CFI 2d564 .cfa: sp 48 +
STACK CFI 2d570 .cfa: sp 0 +
STACK CFI 2d574 .cfa: x29 48 +
STACK CFI INIT 2e46c 1a4 .cfa: sp 0 +
STACK CFI 2e470 .cfa: sp 64 +
STACK CFI 2e47c .cfa: x29 32 + x19: .cfa -8 + ^ x20: .cfa -16 + ^ .ra: .cfa -24 + ^ x29: .cfa -32 + ^
STACK CFI 2e5a8 .cfa: sp 64 +
STACK CFI 2e5b4 .cfa: sp 0 +
STACK CFI 2e5b8 .cfa: x29 32 +
STACK CFI INIT 2e610 194 .cfa: sp 0 +
STACK CFI 2e614 .cfa: sp 16 +
STACK CFI 2e618 .cfa: x29 16 + .ra: .cfa -8 + ^ x29: .cfa -16 + ^
STACK CFI 2e6b0 .cfa: sp 16 +
STACK CFI 2e6b4 .cfa: sp 0 +
STACK CFI 2e6b8 .cfa: x29 16 +
STACK CFI 2e784 .cfa: sp 16 +
STACK CFI 2e788 .cfa: sp 0 +
STACK CFI 2e78c .cfa: x29 16 +
STACK CFI INIT 2e7a4 114 .cfa: sp 0 +
STACK CFI 2e7a8 .cfa: sp 128 +
STACK CFI 2e7b8 .cfa: x29 48 + x19: .cfa -8 + ^ x20: .cfa -16 + ^ x21: .cfa -32 + ^ .ra: .cfa -40 + ^ x29: .cfa -48 + ^
STACK CFI 2e884 .cfa: sp 128 +
STACK CFI 2e894 .cfa: sp 0 +
STACK CFI 2e898 .cfa: x29 48 +
STACK CFI INIT 2e8b8 27c .cfa: sp 0 +
STACK CFI 2e8bc .cfa: sp 176 +
STACK CFI 2e8d8 .cfa: x29 96 + x19: .cfa -8 + ^ x20: .cfa -16 + ^ x21: .cfa -24 + ^ x22: .cfa -32 + ^ x23: .cfa -40 + ^ x24: .cfa -48 + ^ x25: .cfa -56 + ^ x26: .cfa -64 + ^ x27: .cfa -72 + ^ x28: .cfa -80 + ^ .ra: .cfa -88 + ^ x29: .cfa -96 + ^
STACK CFI 2eb10 .cfa: sp 176 +
STACK CFI 2eb2c .cfa: sp 0 +
STACK CFI 2eb30 .cfa: x29 96 +
STACK CFI INIT 2eb34 94 .cfa: sp 0 +
STACK CFI 2eb38 .cfa: sp 16 +
STACK CFI 2eb3c .cfa: x29 16 + .ra: .cfa -8 + ^ x29: .cfa -16 + ^
STACK CFI 2eb90 .cfa: sp 16 +
STACK CFI 2eb94 .cfa: sp 0 +
STACK CFI 2eb98 .cfa: x29 16 +
STACK CFI INIT 2ebc8 158 .cfa: sp 0 +
STACK CFI 2ebcc .cfa: sp 112 +
STACK CFI 2ebe8 .cfa: x29 96 + x19: .cfa -8 + ^ x20: .cfa -16 + ^ x21: .cfa -24 + ^ x22: .cfa -32 + ^ x23: .cfa -40 + ^ x24: .cfa -48 + ^ x25: .cfa -56 + ^ x26: .cfa -64 + ^ x27: .cfa -72 + ^ x28: .cfa -80 + ^ .ra: .cfa -88 + ^ x29: .cfa -96 + ^
STACK CFI 2ecd0 .cfa: sp 112 +
STACK CFI 2ecd4 .cfa: x29 96 +
STACK CFI 2ecdc .cfa: sp 112 +
STACK CFI 2ecf8 .cfa: sp 0 +
STACK CFI 2ecfc .cfa: x29 96 +
STACK CFI 2ed1c .cfa: sp 112 +
STACK CFI INIT 2ed20 520 .cfa: sp 0 +
STACK CFI 2ed24 .cfa: sp 176 +
STACK CFI 2ed40 .cfa: x29 96 + x19: .cfa -8 + ^ x20: .cfa -16 + ^ x21: .cfa -24 + ^ x22: .cfa -32 + ^ x23: .cfa -40 + ^ x24: .cfa -48 + ^ x25: .cfa -56 + ^ x26: .cfa -64 + ^ x27: .cfa -72 + ^ x28: .cfa -80 + ^ .ra: .cfa -88 + ^ x29: .cfa -96 + ^
STACK CFI 2f21c .cfa: sp 176 +
STACK CFI 2f238 .cfa: sp 0 +
STACK CFI 2f23c .cfa: x29 96 +
STACK CFI INIT 2f240 20c .cfa: sp 0 +
STACK CFI 2f244 .cfa: sp 80 +
STACK CFI 2f258 .cfa: x29 80 + x19: .cfa -8 + ^ x20: .cfa -16 + ^ x21: .cfa -24 + ^ x22: .cfa -32 + ^ x23: .cfa -40 + ^ x24: .cfa -48 + ^ x25: .cfa -64 + ^ .ra: .cfa -72 + ^ x29: .cfa -80 + ^
STACK CFI 2f2e8 .cfa: sp 80 +
STACK CFI 2f2fc .cfa: sp 0 +
STACK CFI 2f300 .cfa: x29 80 +
STACK CFI 2f30c .cfa: sp 80 +
STACK CFI 2f320 .cfa: sp 0 +
STACK CFI 2f324 .cfa: x29 80 +
STACK CFI INIT 2f44c 428 .cfa: sp 0 +
STACK CFI 2f450 .cfa: sp 128 +
STACK CFI 2f46c .cfa: x29 96 + x19: .cfa -8 + ^ x20: .cfa -16 + ^ x21: .cfa -24 + ^ x22: .cfa -32 + ^ x23: .cfa -40 + ^ x24: .cfa -48 + ^ x25: .cfa -56 + ^ x26: .cfa -64 + ^ x27: .cfa -72 + ^ x28: .cfa -80 + ^ .ra: .cfa -88 + ^ x29: .cfa -96 + ^
STACK CFI 2f850 .cfa: sp 128 +
STACK CFI 2f86c .cfa: sp 0 +
STACK CFI 2f870 .cfa: x29 96 +
STACK CFI INIT 2f874 194 .cfa: sp 0 +
STACK CFI 2f878 .cfa: sp 32 +
STACK CFI 2f880 .cfa: x29 16 + .ra: .cfa -8 + ^ x29: .cfa -16 + ^
STACK CFI 2f8c4 .cfa: sp 32 +
STACK CFI 2f8cc .cfa: sp 0 +
STACK CFI 2f8d0 .cfa: x29 16 +
STACK CFI INIT 2fa08 1b8 .cfa: sp 0 +
STACK CFI INIT 2fbc0 1d0 .cfa: sp 0 +
STACK CFI 2fbc4 .cfa: sp 80 +
STACK CFI 2fbd8 .cfa: x29 80 + x19: .cfa -8 + ^ x20: .cfa -16 + ^ x21: .cfa -24 + ^ x22: .cfa -32 + ^ x23: .cfa -40 + ^ x24: .cfa -48 + ^ x25: .cfa -64 + ^ .ra: .cfa -72 + ^ x29: .cfa -80 + ^
STACK CFI 2fd78 .cfa: sp 80 +
STACK CFI 2fd8c .cfa: sp 0 +
STACK CFI INIT 2fd90 67c .cfa: sp 0 +
STACK CFI 2fd94 .cfa: sp 176 +
STACK CFI 2fdb0 .cfa: x29 96 + x19: .cfa -8 + ^ x20: .cfa -16 + ^ x21: .cfa -24 + ^ x22: .cfa -32 + ^ x23: .cfa -40 + ^ x24: .cfa -48 + ^ x25: .cfa -56 + ^ x26: .cfa -64 + ^ x27: .cfa -72 + ^ x28: .cfa -80 + ^ .ra: .cfa -88 + ^ x29: .cfa -96 + ^
STACK CFI 303e8 .cfa: sp 176 +
STACK CFI 30404 .cfa: sp 0 +
STACK CFI 30408 .cfa: x29 96 +
STACK CFI INIT 3040c 1e4 .cfa: sp 0 +
STACK CFI 30410 .cfa: sp 32 +
STACK CFI 30418 .cfa: x29 32 + x19: .cfa -8 + ^ x20: .cfa -16 + ^ .ra: .cfa -24 + ^ x29: .cfa -32 + ^
STACK CFI 30508 .cfa: sp 32 +
STACK CFI 30510 .cfa: sp 0 +
STACK CFI 30514 .cfa: x29 32 +
STACK CFI 30588 .cfa: sp 32 +
STACK CFI 30590 .cfa: sp 0 +
STACK CFI 30594 .cfa: x29 32 +
STACK CFI 305a4 .cfa: sp 32 +
STACK CFI 305ac .cfa: sp 0 +
STACK CFI 305b0 .cfa: x29 32 +
STACK CFI 305c0 .cfa: sp 32 +
STACK CFI 305c8 .cfa: sp 0 +
STACK CFI 305cc .cfa: x29 32 +
STACK CFI INIT 305f0 178 .cfa: sp 0 +
STACK CFI 305f4 .cfa: sp 80 +
STACK CFI 30608 .cfa: x29 64 + x19: .cfa -8 + ^ x20: .cfa -16 + ^ x21: .cfa -24 + ^ x22: .cfa -32 + ^ x23: .cfa -40 + ^ x24: .cfa -48 + ^ .ra: .cfa -56 + ^ x29: .cfa -64 + ^
STACK CFI 3074c .cfa: sp 80 +
STACK CFI 30760 .cfa: sp 0 +
STACK CFI 30764 .cfa: x29 64 +
STACK CFI INIT 30768 178 .cfa: sp 0 +
STACK CFI 3076c .cfa: sp 80 +
STACK CFI 30780 .cfa: x29 64 + x19: .cfa -8 + ^ x20: .cfa -16 + ^ x21: .cfa -24 + ^ x22: .cfa -32 + ^ x23: .cfa -40 + ^ x24: .cfa -48 + ^ .ra: .cfa -56 + ^ x29: .cfa -64 + ^
STACK CFI 308c4 .cfa: sp 80 +
STACK CFI 308d8 .cfa: sp 0 +
STACK CFI 308dc .cfa: x29 64 +
STACK CFI INIT 308e0 178 .cfa: sp 0 +
STACK CFI 308e4 .cfa: sp 80 +
STACK CFI 308f8 .cfa: x29 64 + x19: .cfa -8 + ^ x20: .cfa -16 + ^ x21: .cfa -24 + ^ x22: .cfa -32 + ^ x23: .cfa -40 + ^ x24: .cfa -48 + ^ .ra: .cfa -56 + ^ x29: .cfa -64 + ^
STACK CFI 30a3c .cfa: sp 80 +
STACK CFI 30a50 .cfa: sp 0 +
STACK CFI 30a54 .cfa: x29 64 +
STACK CFI INIT 30a58 78 .cfa: sp 0 +
STACK CFI 30a5c .cfa: sp 48 +
STACK CFI 30a68 .cfa: x29 48 + x19: .cfa -8 + ^ x20: .cfa -16 + ^ x21: .cfa -24 + ^ x22: .cfa -32 + ^ .ra: .cfa -40 + ^ x29: .cfa -48 + ^
STACK CFI 30ab0 .cfa: sp 48 +
STACK CFI 30abc .cfa: sp 0 +
STACK CFI 30ac0 .cfa: sp 48 +
STACK CFI 30acc .cfa: sp 0 +
STACK CFI INIT 30ad0 178 .cfa: sp 0 +
STACK CFI 30ad4 .cfa: sp 80 +
STACK CFI 30ae8 .cfa: x29 64 + x19: .cfa -8 + ^ x20: .cfa -16 + ^ x21: .cfa -24 + ^ x22: .cfa -32 + ^ x23: .cfa -40 + ^ x24: .cfa -48 + ^ .ra: .cfa -56 + ^ x29: .cfa -64 + ^
STACK CFI 30c2c .cfa: sp 80 +
STACK CFI 30c40 .cfa: sp 0 +
STACK CFI 30c44 .cfa: x29 64 +
STACK CFI INIT 30fac 50 .cfa: sp 0 +
STACK CFI 30fb0 .cfa: sp 32 +
STACK CFI 30fb8 .cfa: x29 32 + x19: .cfa -8 + ^ x20: .cfa -16 + ^ .ra: .cfa -24 + ^ x29: .cfa -32 + ^
STACK CFI 30fe4 .cfa: sp 32 +
STACK CFI 30fec .cfa: sp 0 +
STACK CFI 30ff0 .cfa: sp 32 +
STACK CFI 30ff8 .cfa: sp 0 +
STACK CFI INIT 30ffc 3c .cfa: sp 0 +
STACK CFI 31000 .cfa: sp 32 +
STACK CFI 31008 .cfa: x29 32 + x19: .cfa -16 + ^ .ra: .cfa -24 + ^ x29: .cfa -32 + ^
STACK CFI 31020 .cfa: sp 32 +
STACK CFI 31028 .cfa: sp 0 +
STACK CFI 3102c .cfa: sp 32 +
STACK CFI 31034 .cfa: sp 0 +
STACK CFI INIT 31038 4 .cfa: sp 0 +
STACK CFI INIT 3103c 24 .cfa: sp 0 +
STACK CFI 31040 .cfa: sp 16 +
STACK CFI 31044 .cfa: x29 16 + .ra: .cfa -8 + ^ x29: .cfa -16 + ^
STACK CFI 31058 .cfa: sp 16 +
STACK CFI 3105c .cfa: sp 0 +
STACK CFI INIT 31060 10 .cfa: sp 0 +
STACK CFI INIT 31070 4 .cfa: sp 0 +
STACK CFI INIT 31074 4 .cfa: sp 0 +
STACK CFI INIT 31a6c 1c .cfa: sp 0 +
STACK CFI INIT 31a88 c .cfa: sp 0 +
STACK CFI INIT 31bc0 1b8 .cfa: sp 0 +
STACK CFI 31bc4 .cfa: sp 48 +
STACK CFI 31bd0 .cfa: x29 48 + x19: .cfa -8 + ^ x20: .cfa -16 + ^ x21: .cfa -32 + ^ .ra: .cfa -40 + ^ x29: .cfa -48 + ^
STACK CFI 31d54 .cfa: sp 48 +
STACK CFI 31d60 .cfa: sp 0 +
STACK CFI 31d64 .cfa: x29 48 +
STACK CFI 31d68 .cfa: sp 48 +
STACK CFI 31d74 .cfa: sp 0 +
STACK CFI INIT 32248 50 .cfa: sp 0 +
STACK CFI 3224c .cfa: sp 32 +
STACK CFI 32254 .cfa: x29 32 + x19: .cfa -8 + ^ x20: .cfa -16 + ^ .ra: .cfa -24 + ^ x29: .cfa -32 + ^
STACK CFI 32280 .cfa: sp 32 +
STACK CFI 32288 .cfa: sp 0 +
STACK CFI 3228c .cfa: sp 32 +
STACK CFI 32294 .cfa: sp 0 +
STACK CFI INIT 32298 4 .cfa: sp 0 +
STACK CFI INIT 3229c 24 .cfa: sp 0 +
STACK CFI 322a0 .cfa: sp 16 +
STACK CFI 322a4 .cfa: x29 16 + .ra: .cfa -8 + ^ x29: .cfa -16 + ^
STACK CFI 322b8 .cfa: sp 16 +
STACK CFI 322bc .cfa: sp 0 +
STACK CFI INIT 322c0 10 .cfa: sp 0 +
STACK CFI INIT 322d0 4 .cfa: sp 0 +
STACK CFI INIT 322d4 4 .cfa: sp 0 +
STACK CFI INIT 32590 1c .cfa: sp 0 +
STACK CFI INIT 325ac c .cfa: sp 0 +
STACK CFI INIT 325b8 50 .cfa: sp 0 +
STACK CFI 325bc .cfa: sp 32 +
STACK CFI 325c4 .cfa: x29 32 + x19: .cfa -16 + ^ .ra: .cfa -24 + ^ x29: .cfa -32 + ^
STACK CFI 325dc .cfa: sp 32 +
STACK CFI 325e4 .cfa: sp 0 +
STACK CFI 325e8 .cfa: x29 32 +
STACK CFI 325fc .cfa: sp 32 +
STACK CFI 32604 .cfa: sp 0 +
STACK CFI INIT 3280c 4 .cfa: sp 0 +
STACK CFI INIT 329dc 9c .cfa: sp 0 +
STACK CFI 329e0 .cfa: sp 32 +
STACK CFI 329e8 .cfa: x29 32 + x19: .cfa -8 + ^ x20: .cfa -16 + ^ .ra: .cfa -24 + ^ x29: .cfa -32 + ^
STACK CFI 32a6c .cfa: sp 32 +
STACK CFI 32a74 .cfa: sp 0 +
STACK CFI INIT 32a78 a4 .cfa: sp 0 +
STACK CFI 32a7c .cfa: sp 32 +
STACK CFI 32a84 .cfa: x29 32 + x19: .cfa -8 + ^ x20: .cfa -16 + ^ .ra: .cfa -24 + ^ x29: .cfa -32 + ^
STACK CFI 32b10 .cfa: sp 32 +
STACK CFI 32b18 .cfa: sp 0 +
STACK CFI INIT 32b1c 50 .cfa: sp 0 +
STACK CFI 32b20 .cfa: sp 32 +
STACK CFI 32b28 .cfa: x29 32 + x19: .cfa -16 + ^ .ra: .cfa -24 + ^ x29: .cfa -32 + ^
STACK CFI 32b40 .cfa: sp 32 +
STACK CFI 32b48 .cfa: sp 0 +
STACK CFI 32b4c .cfa: x29 32 +
STACK CFI 32b60 .cfa: sp 32 +
STACK CFI 32b68 .cfa: sp 0 +
STACK CFI INIT 32b6c 50 .cfa: sp 0 +
STACK CFI 32b70 .cfa: sp 32 +
STACK CFI 32b78 .cfa: x29 32 + x19: .cfa -16 + ^ .ra: .cfa -24 + ^ x29: .cfa -32 + ^
STACK CFI 32b90 .cfa: sp 32 +
STACK CFI 32b98 .cfa: sp 0 +
STACK CFI 32b9c .cfa: x29 32 +
STACK CFI 32bb0 .cfa: sp 32 +
STACK CFI 32bb8 .cfa: sp 0 +
STACK CFI INIT 32bbc 5c .cfa: sp 0 +
STACK CFI 32bc0 .cfa: sp 32 +
STACK CFI 32bc8 .cfa: x29 32 + x19: .cfa -16 + ^ .ra: .cfa -24 + ^ x29: .cfa -32 + ^
STACK CFI 32bec .cfa: sp 32 +
STACK CFI 32bf4 .cfa: sp 0 +
STACK CFI 32bf8 .cfa: x29 32 +
STACK CFI 32c0c .cfa: sp 32 +
STACK CFI 32c14 .cfa: sp 0 +
STACK CFI INIT 32c18 6c .cfa: sp 0 +
STACK CFI 32c1c .cfa: sp 32 +
STACK CFI 32c24 .cfa: x29 32 + x19: .cfa -8 + ^ x20: .cfa -16 + ^ .ra: .cfa -24 + ^ x29: .cfa -32 + ^
STACK CFI 32c50 .cfa: sp 32 +
STACK CFI 32c58 .cfa: sp 0 +
STACK CFI 32c5c .cfa: x29 32 +
STACK CFI 32c78 .cfa: sp 32 +
STACK CFI 32c80 .cfa: sp 0 +
STACK CFI INIT 32c84 58 .cfa: sp 0 +
STACK CFI 32c88 .cfa: sp 32 +
STACK CFI 32c90 .cfa: x29 32 + x19: .cfa -8 + ^ x20: .cfa -16 + ^ .ra: .cfa -24 + ^ x29: .cfa -32 + ^
STACK CFI 32cd0 .cfa: sp 32 +
STACK CFI 32cd8 .cfa: sp 0 +
STACK CFI INIT 32cdc 4c .cfa: sp 0 +
STACK CFI 32ce0 .cfa: sp 32 +
STACK CFI 32ce8 .cfa: x29 32 + x19: .cfa -8 + ^ x20: .cfa -16 + ^ .ra: .cfa -24 + ^ x29: .cfa -32 + ^
STACK CFI 32d1c .cfa: sp 32 +
STACK CFI 32d24 .cfa: sp 0 +
STACK CFI INIT 32d28 50 .cfa: sp 0 +
STACK CFI 32d2c .cfa: sp 32 +
STACK CFI 32d34 .cfa: x29 32 + x19: .cfa -16 + ^ .ra: .cfa -24 + ^ x29: .cfa -32 + ^
STACK CFI 32d4c .cfa: sp 32 +
STACK CFI 32d54 .cfa: sp 0 +
STACK CFI 32d58 .cfa: x29 32 +
STACK CFI 32d6c .cfa: sp 32 +
STACK CFI 32d74 .cfa: sp 0 +
STACK CFI INIT 32d78 60 .cfa: sp 0 +
STACK CFI 32d7c .cfa: sp 32 +
STACK CFI 32d84 .cfa: x29 32 + x19: .cfa -8 + ^ x20: .cfa -16 + ^ .ra: .cfa -24 + ^ x29: .cfa -32 + ^
STACK CFI 32da4 .cfa: sp 32 +
STACK CFI 32dac .cfa: sp 0 +
STACK CFI 32db0 .cfa: x29 32 +
STACK CFI 32dcc .cfa: sp 32 +
STACK CFI 32dd4 .cfa: sp 0 +
STACK CFI INIT 32fa8 1c .cfa: sp 0 +
STACK CFI INIT 32fc4 c .cfa: sp 0 +
STACK CFI INIT 32fd0 60 .cfa: sp 0 +
STACK CFI 32fd4 .cfa: sp 32 +
STACK CFI 32fdc .cfa: x29 32 + x19: .cfa -8 + ^ x20: .cfa -16 + ^ .ra: .cfa -24 + ^ x29: .cfa -32 + ^
STACK CFI 32ffc .cfa: sp 32 +
STACK CFI 33004 .cfa: sp 0 +
STACK CFI 33008 .cfa: x29 32 +
STACK CFI 33024 .cfa: sp 32 +
STACK CFI 3302c .cfa: sp 0 +
STACK CFI INIT 33030 70 .cfa: sp 0 +
STACK CFI 33034 .cfa: sp 32 +
STACK CFI 3303c .cfa: x29 32 + x19: .cfa -8 + ^ x20: .cfa -16 + ^ .ra: .cfa -24 + ^ x29: .cfa -32 + ^
STACK CFI 33064 .cfa: sp 32 +
STACK CFI 3306c .cfa: sp 0 +
STACK CFI 33070 .cfa: x29 32 +
STACK CFI 33094 .cfa: sp 32 +
STACK CFI 3309c .cfa: sp 0 +
STACK CFI INIT 330a0 5c .cfa: sp 0 +
STACK CFI 330a4 .cfa: sp 32 +
STACK CFI 330ac .cfa: x29 32 + x19: .cfa -16 + ^ .ra: .cfa -24 + ^ x29: .cfa -32 + ^
STACK CFI 330d0 .cfa: sp 32 +
STACK CFI 330d8 .cfa: sp 0 +
STACK CFI 330dc .cfa: x29 32 +
STACK CFI 330f0 .cfa: sp 32 +
STACK CFI 330f8 .cfa: sp 0 +
STACK CFI INIT 330fc 6c .cfa: sp 0 +
STACK CFI 33100 .cfa: sp 32 +
STACK CFI 33108 .cfa: x29 32 + x19: .cfa -8 + ^ x20: .cfa -16 + ^ .ra: .cfa -24 + ^ x29: .cfa -32 + ^
STACK CFI 33134 .cfa: sp 32 +
STACK CFI 3313c .cfa: sp 0 +
STACK CFI 33140 .cfa: x29 32 +
STACK CFI 3315c .cfa: sp 32 +
STACK CFI 33164 .cfa: sp 0 +
STACK CFI INIT 33168 58 .cfa: sp 0 +
STACK CFI 3316c .cfa: sp 32 +
STACK CFI 33174 .cfa: x29 32 + x19: .cfa -8 + ^ x20: .cfa -16 + ^ .ra: .cfa -24 + ^ x29: .cfa -32 + ^
STACK CFI 331b4 .cfa: sp 32 +
STACK CFI 331bc .cfa: sp 0 +
STACK CFI INIT 331c0 4c .cfa: sp 0 +
STACK CFI 331c4 .cfa: sp 32 +
STACK CFI 331cc .cfa: x29 32 + x19: .cfa -8 + ^ x20: .cfa -16 + ^ .ra: .cfa -24 + ^ x29: .cfa -32 + ^
STACK CFI 33200 .cfa: sp 32 +
STACK CFI 33208 .cfa: sp 0 +
STACK CFI INIT 3320c 50 .cfa: sp 0 +
STACK CFI 33210 .cfa: sp 32 +
STACK CFI 33218 .cfa: x29 32 + x19: .cfa -16 + ^ .ra: .cfa -24 + ^ x29: .cfa -32 + ^
STACK CFI 33230 .cfa: sp 32 +
STACK CFI 33238 .cfa: sp 0 +
STACK CFI 3323c .cfa: x29 32 +
STACK CFI 33250 .cfa: sp 32 +
STACK CFI 33258 .cfa: sp 0 +
STACK CFI INIT 3325c 60 .cfa: sp 0 +
STACK CFI 33260 .cfa: sp 32 +
STACK CFI 33268 .cfa: x29 32 + x19: .cfa -8 + ^ x20: .cfa -16 + ^ .ra: .cfa -24 + ^ x29: .cfa -32 + ^
STACK CFI 33288 .cfa: sp 32 +
STACK CFI 33290 .cfa: sp 0 +
STACK CFI 33294 .cfa: x29 32 +
STACK CFI 332b0 .cfa: sp 32 +
STACK CFI 332b8 .cfa: sp 0 +
STACK CFI INIT 33480 1c .cfa: sp 0 +
STACK CFI INIT 3349c c .cfa: sp 0 +
STACK CFI INIT 334a8 34 .cfa: sp 0 +
STACK CFI 334ac .cfa: sp 16 +
STACK CFI 334b0 .cfa: x29 16 + .ra: .cfa -8 + ^ x29: .cfa -16 + ^
STACK CFI INIT 334dc 24 .cfa: sp 0 +
STACK CFI 334e0 .cfa: sp 32 +
STACK CFI 334e8 .cfa: x29 32 + x19: .cfa -16 + ^ .ra: .cfa -24 + ^ x29: .cfa -32 + ^
STACK CFI 334f4 .cfa: sp 32 +
STACK CFI 334fc .cfa: sp 0 +
STACK CFI INIT 33698 4 .cfa: sp 0 +
STACK CFI INIT 3369c 38 .cfa: sp 0 +
STACK CFI 336a0 .cfa: sp 32 +
STACK CFI 336a8 .cfa: x29 32 + x19: .cfa -16 + ^ .ra: .cfa -24 + ^ x29: .cfa -32 + ^
STACK CFI 336c8 .cfa: sp 32 +
STACK CFI 336d0 .cfa: sp 0 +
STACK CFI INIT 336d4 18 .cfa: sp 0 +
STACK CFI INIT 336ec 4 .cfa: sp 0 +
STACK CFI INIT 336f0 4 .cfa: sp 0 +
STACK CFI INIT 33880 1c .cfa: sp 0 +
STACK CFI INIT 3389c c .cfa: sp 0 +
STACK CFI INIT 338a8 34 .cfa: sp 0 +
STACK CFI 338ac .cfa: sp 16 +
STACK CFI 338b0 .cfa: x29 16 + .ra: .cfa -8 + ^ x29: .cfa -16 + ^
STACK CFI INIT 338dc 4 .cfa: sp 0 +
STACK CFI INIT 338e0 34 .cfa: sp 0 +
STACK CFI 338e4 .cfa: sp 32 +
STACK CFI 338ec .cfa: x29 32 + x19: .cfa -16 + ^ .ra: .cfa -24 + ^ x29: .cfa -32 + ^
STACK CFI 33908 .cfa: sp 32 +
STACK CFI 33910 .cfa: sp 0 +
STACK CFI INIT 33914 14 .cfa: sp 0 +
STACK CFI INIT 33928 4 .cfa: sp 0 +
STACK CFI INIT 3392c 4 .cfa: sp 0 +
STACK CFI INIT 33930 18 .cfa: sp 0 +
STACK CFI INIT 33948 1c .cfa: sp 0 +
STACK CFI INIT 33964 c .cfa: sp 0 +
STACK CFI INIT 33970 4 .cfa: sp 0 +
STACK CFI INIT 33974 24 .cfa: sp 0 +
STACK CFI 33978 .cfa: sp 16 +
STACK CFI 3397c .cfa: x29 16 + .ra: .cfa -8 + ^ x29: .cfa -16 + ^
STACK CFI 33990 .cfa: sp 16 +
STACK CFI 33994 .cfa: sp 0 +
STACK CFI INIT 33998 10 .cfa: sp 0 +
STACK CFI INIT 339a8 4 .cfa: sp 0 +
STACK CFI INIT 339ac 4 .cfa: sp 0 +
STACK CFI INIT 33e30 1c .cfa: sp 0 +
STACK CFI INIT 33e4c c .cfa: sp 0 +
STACK CFI INIT 33ecc 4 .cfa: sp 0 +
STACK CFI INIT 33ed0 14 .cfa: sp 0 +
STACK CFI INIT 33ee4 4 .cfa: sp 0 +
STACK CFI INIT 33ee8 14 .cfa: sp 0 +
STACK CFI INIT 33efc 4 .cfa: sp 0 +
STACK CFI INIT 33f00 14 .cfa: sp 0 +
STACK CFI INIT 33f14 4 .cfa: sp 0 +
STACK CFI INIT 33f18 24 .cfa: sp 0 +
STACK CFI 33f1c .cfa: sp 16 +
STACK CFI 33f20 .cfa: x29 16 + .ra: .cfa -8 + ^ x29: .cfa -16 + ^
STACK CFI 33f34 .cfa: sp 16 +
STACK CFI 33f38 .cfa: sp 0 +
STACK CFI INIT 33f3c 10 .cfa: sp 0 +
STACK CFI INIT 33f4c 4 .cfa: sp 0 +
STACK CFI INIT 33f50 4 .cfa: sp 0 +
STACK CFI INIT 340c4 1c .cfa: sp 0 +
STACK CFI INIT 340e0 c .cfa: sp 0 +
STACK CFI INIT 340ec 4 .cfa: sp 0 +
STACK CFI INIT 340f0 24 .cfa: sp 0 +
STACK CFI 340f4 .cfa: sp 16 +
STACK CFI 340f8 .cfa: x29 16 + .ra: .cfa -8 + ^ x29: .cfa -16 + ^
STACK CFI 3410c .cfa: sp 16 +
STACK CFI 34110 .cfa: sp 0 +
STACK CFI INIT 34114 10 .cfa: sp 0 +
STACK CFI INIT 34124 4 .cfa: sp 0 +
STACK CFI INIT 34128 4 .cfa: sp 0 +
STACK CFI INIT 343a4 1c .cfa: sp 0 +
STACK CFI INIT 343c0 c .cfa: sp 0 +
STACK CFI INIT 343cc 4 .cfa: sp 0 +
STACK CFI INIT 343d0 24 .cfa: sp 0 +
STACK CFI 343d4 .cfa: sp 16 +
STACK CFI 343d8 .cfa: x29 16 + .ra: .cfa -8 + ^ x29: .cfa -16 + ^
STACK CFI 343ec .cfa: sp 16 +
STACK CFI 343f0 .cfa: sp 0 +
STACK CFI INIT 343f4 10 .cfa: sp 0 +
STACK CFI INIT 34404 4 .cfa: sp 0 +
STACK CFI INIT 34408 4 .cfa: sp 0 +
STACK CFI INIT 34514 1c .cfa: sp 0 +
STACK CFI INIT 34530 c .cfa: sp 0 +
STACK CFI INIT 34670 50 .cfa: sp 0 +
STACK CFI 34674 .cfa: sp 32 +
STACK CFI 3467c .cfa: x29 32 + x19: .cfa -8 + ^ x20: .cfa -16 + ^ .ra: .cfa -24 + ^ x29: .cfa -32 + ^
STACK CFI 346a8 .cfa: sp 32 +
STACK CFI 346b0 .cfa: sp 0 +
STACK CFI 346b4 .cfa: sp 32 +
STACK CFI 346bc .cfa: sp 0 +
STACK CFI INIT 346c0 4 .cfa: sp 0 +
STACK CFI INIT 346c4 24 .cfa: sp 0 +
STACK CFI 346c8 .cfa: sp 16 +
STACK CFI 346cc .cfa: x29 16 + .ra: .cfa -8 + ^ x29: .cfa -16 + ^
STACK CFI 346e0 .cfa: sp 16 +
STACK CFI 346e4 .cfa: sp 0 +
STACK CFI INIT 346e8 10 .cfa: sp 0 +
STACK CFI INIT 346f8 4 .cfa: sp 0 +
STACK CFI INIT 346fc 4 .cfa: sp 0 +
STACK CFI INIT 34a9c 1c .cfa: sp 0 +
STACK CFI INIT 34ab8 c .cfa: sp 0 +
STACK CFI INIT 34ac4 4 .cfa: sp 0 +
STACK CFI INIT 34ac8 4 .cfa: sp 0 +
STACK CFI INIT 34acc 38 .cfa: sp 0 +
STACK CFI 34ad0 .cfa: sp 32 +
STACK CFI 34ad8 .cfa: x29 32 + x19: .cfa -16 + ^ .ra: .cfa -24 + ^ x29: .cfa -32 + ^
STACK CFI 34af8 .cfa: sp 32 +
STACK CFI 34b00 .cfa: sp 0 +
STACK CFI INIT 34b04 18 .cfa: sp 0 +
STACK CFI INIT 34b1c 4 .cfa: sp 0 +
STACK CFI INIT 34b20 4 .cfa: sp 0 +
STACK CFI INIT 34c8c 1c .cfa: sp 0 +
STACK CFI INIT 34ca8 c .cfa: sp 0 +
STACK CFI INIT 34cb4 4 .cfa: sp 0 +
STACK CFI INIT 34cb8 24 .cfa: sp 0 +
STACK CFI 34cbc .cfa: sp 16 +
STACK CFI 34cc0 .cfa: x29 16 + .ra: .cfa -8 + ^ x29: .cfa -16 + ^
STACK CFI 34cd4 .cfa: sp 16 +
STACK CFI 34cd8 .cfa: sp 0 +
STACK CFI INIT 34cdc 10 .cfa: sp 0 +
STACK CFI INIT 34cec 4 .cfa: sp 0 +
STACK CFI INIT 34cf0 4 .cfa: sp 0 +
STACK CFI INIT 34cf4 98 .cfa: sp 0 +
STACK CFI 34cf8 .cfa: sp 32 +
STACK CFI 34d00 .cfa: x29 32 + x19: .cfa -16 + ^ .ra: .cfa -24 + ^ x29: .cfa -32 + ^
STACK CFI 34d80 .cfa: sp 32 +
STACK CFI 34d88 .cfa: sp 0 +
STACK CFI INIT 34d8c 1c .cfa: sp 0 +
STACK CFI INIT 34da8 c .cfa: sp 0 +
STACK CFI INIT 34db4 4 .cfa: sp 0 +
STACK CFI INIT 34db8 34 .cfa: sp 0 +
STACK CFI 34dbc .cfa: sp 32 +
STACK CFI 34dc4 .cfa: x29 32 + x19: .cfa -16 + ^ .ra: .cfa -24 + ^ x29: .cfa -32 + ^
STACK CFI 34de0 .cfa: sp 32 +
STACK CFI 34de8 .cfa: sp 0 +
STACK CFI INIT 34dec 14 .cfa: sp 0 +
STACK CFI INIT 34e00 4 .cfa: sp 0 +
STACK CFI INIT 34e04 4 .cfa: sp 0 +
STACK CFI INIT 34e08 18 .cfa: sp 0 +
STACK CFI INIT 34e20 1c .cfa: sp 0 +
STACK CFI INIT 34e3c c .cfa: sp 0 +
STACK CFI INIT 356f4 1c .cfa: sp 0 +
STACK CFI INIT 35ef0 50 .cfa: sp 0 +
STACK CFI 35ef4 .cfa: sp 32 +
STACK CFI 35efc .cfa: x29 32 + x19: .cfa -16 + ^ .ra: .cfa -24 + ^ x29: .cfa -32 + ^
STACK CFI 35f14 .cfa: sp 32 +
STACK CFI 35f1c .cfa: sp 0 +
STACK CFI 35f20 .cfa: x29 32 +
STACK CFI 35f34 .cfa: sp 32 +
STACK CFI 35f3c .cfa: sp 0 +
STACK CFI INIT 35fb4 7c .cfa: sp 0 +
STACK CFI 35fb8 .cfa: sp 48 +
STACK CFI 35fc4 .cfa: x29 48 + x19: .cfa -8 + ^ x20: .cfa -16 + ^ x21: .cfa -32 + ^ .ra: .cfa -40 + ^ x29: .cfa -48 + ^
STACK CFI 36010 .cfa: sp 48 +
STACK CFI 3601c .cfa: sp 0 +
STACK CFI 36020 .cfa: sp 48 +
STACK CFI 3602c .cfa: sp 0 +
STACK CFI INIT 36030 4 .cfa: sp 0 +
STACK CFI INIT 36034 34 .cfa: sp 0 +
STACK CFI 36038 .cfa: sp 32 +
STACK CFI 36040 .cfa: x29 32 + x19: .cfa -16 + ^ .ra: .cfa -24 + ^ x29: .cfa -32 + ^
STACK CFI INIT 36068 120 .cfa: sp 0 +
STACK CFI 3606c .cfa: sp 64 +
STACK CFI 3607c .cfa: x29 64 + x19: .cfa -8 + ^ x20: .cfa -16 + ^ x21: .cfa -24 + ^ x22: .cfa -32 + ^ x23: .cfa -40 + ^ x24: .cfa -48 + ^ .ra: .cfa -56 + ^ x29: .cfa -64 + ^
STACK CFI 36174 .cfa: sp 64 +
STACK CFI 36184 .cfa: sp 0 +
STACK CFI INIT 36188 7c .cfa: sp 0 +
STACK CFI 3618c .cfa: sp 32 +
STACK CFI 36194 .cfa: x29 32 + x19: .cfa -8 + ^ x20: .cfa -16 + ^ .ra: .cfa -24 + ^ x29: .cfa -32 + ^
STACK CFI 361ec .cfa: sp 32 +
STACK CFI 361f4 .cfa: sp 0 +
STACK CFI 361f8 .cfa: sp 32 +
STACK CFI 36200 .cfa: sp 0 +
STACK CFI INIT 36204 1b0 .cfa: sp 0 +
STACK CFI INIT 36634 80 .cfa: sp 0 +
STACK CFI 36638 .cfa: sp 48 +
STACK CFI 36644 .cfa: x29 48 + x19: .cfa -8 + ^ x20: .cfa -16 + ^ x21: .cfa -32 + ^ .ra: .cfa -40 + ^ x29: .cfa -48 + ^
STACK CFI 366a4 .cfa: sp 48 +
STACK CFI 366b0 .cfa: sp 0 +
STACK CFI INIT 366b4 24 .cfa: sp 0 +
STACK CFI 366b8 .cfa: sp 32 +
STACK CFI 366c0 .cfa: x29 32 + x19: .cfa -16 + ^ .ra: .cfa -24 + ^ x29: .cfa -32 + ^
STACK CFI 366cc .cfa: sp 32 +
STACK CFI 366d4 .cfa: sp 0 +
STACK CFI INIT 36bd0 148 .cfa: sp 0 +
STACK CFI 36bd4 .cfa: sp 48 +
STACK CFI 36be0 .cfa: x29 48 + x19: .cfa -8 + ^ x20: .cfa -16 + ^ x21: .cfa -32 + ^ .ra: .cfa -40 + ^ x29: .cfa -48 + ^
STACK CFI 36d08 .cfa: sp 48 +
STACK CFI 36d14 .cfa: sp 0 +
STACK CFI INIT 36d18 4 .cfa: sp 0 +
STACK CFI INIT 36d1c 14 .cfa: sp 0 +
STACK CFI INIT 36f58 68 .cfa: sp 0 +
STACK CFI 36f5c .cfa: sp 32 +
STACK CFI 36f64 .cfa: x29 32 + x19: .cfa -8 + ^ x20: .cfa -16 + ^ .ra: .cfa -24 + ^ x29: .cfa -32 + ^
STACK CFI 36f7c .cfa: sp 32 +
STACK CFI 36f84 .cfa: sp 0 +
STACK CFI 36f88 .cfa: x29 32 +
STACK CFI 36fb4 .cfa: sp 32 +
STACK CFI 36fbc .cfa: sp 0 +
STACK CFI INIT 36fc0 14 .cfa: sp 0 +
STACK CFI 36fc4 .cfa: sp 16 +
STACK CFI 36fc8 .cfa: x29 16 + .ra: .cfa -8 + ^ x29: .cfa -16 + ^
STACK CFI INIT 36fd4 4 .cfa: sp 0 +
STACK CFI INIT 36fd8 14 .cfa: sp 0 +
STACK CFI INIT 36fec d4 .cfa: sp 0 +
STACK CFI 36ff0 .cfa: sp 48 +
STACK CFI 36ffc .cfa: x29 48 + x19: .cfa -8 + ^ x20: .cfa -16 + ^ x21: .cfa -32 + ^ .ra: .cfa -40 + ^ x29: .cfa -48 + ^
STACK CFI 3708c .cfa: sp 48 +
STACK CFI 37098 .cfa: sp 0 +
STACK CFI 3709c .cfa: x29 48 +
STACK CFI INIT 370c0 3c8 .cfa: sp 0 +
STACK CFI INIT 37488 8c .cfa: sp 0 +
STACK CFI 37490 .cfa: sp 32 +
STACK CFI 37498 .cfa: x29 32 + x19: .cfa -8 + ^ x20: .cfa -16 + ^ .ra: .cfa -24 + ^ x29: .cfa -32 + ^
STACK CFI 374e0 .cfa: sp 32 +
STACK CFI 374e8 .cfa: sp 0 +
STACK CFI 374f0 .cfa: x29 32 +
STACK CFI INIT 37514 44 .cfa: sp 0 +
STACK CFI 37518 .cfa: sp 32 +
STACK CFI 37520 .cfa: x29 32 + x19: .cfa -16 + ^ .ra: .cfa -24 + ^ x29: .cfa -32 + ^
STACK CFI 3754c .cfa: sp 32 +
STACK CFI 37554 .cfa: sp 0 +
STACK CFI INIT 376dc 40 .cfa: sp 0 +
STACK CFI 376e0 .cfa: sp 32 +
STACK CFI 376e8 .cfa: x29 32 + x19: .cfa -8 + ^ x20: .cfa -16 + ^ .ra: .cfa -24 + ^ x29: .cfa -32 + ^
STACK CFI 37710 .cfa: sp 32 +
STACK CFI 37718 .cfa: sp 0 +
STACK CFI INIT 3771c 7c .cfa: sp 0 +
STACK CFI 37720 .cfa: sp 32 +
STACK CFI 37728 .cfa: x29 32 + x19: .cfa -16 + ^ .ra: .cfa -24 + ^ x29: .cfa -32 + ^
STACK CFI 3778c .cfa: sp 32 +
STACK CFI 37794 .cfa: sp 0 +
STACK CFI INIT 3795c 8 .cfa: sp 0 +
STACK CFI INIT 37964 5c .cfa: sp 0 +
STACK CFI 37968 .cfa: sp 32 +
STACK CFI 37970 .cfa: x29 32 + x19: .cfa -16 + ^ .ra: .cfa -24 + ^ x29: .cfa -32 + ^
STACK CFI 379b4 .cfa: sp 32 +
STACK CFI 379bc .cfa: sp 0 +
STACK CFI INIT 379c0 64 .cfa: sp 0 +
STACK CFI 379c4 .cfa: sp 32 +
STACK CFI 379cc .cfa: x29 32 + x19: .cfa -16 + ^ .ra: .cfa -24 + ^ x29: .cfa -32 + ^
STACK CFI 37a18 .cfa: sp 32 +
STACK CFI 37a20 .cfa: sp 0 +
STACK CFI INIT 37a24 60 .cfa: sp 0 +
STACK CFI 37a28 .cfa: sp 32 +
STACK CFI 37a30 .cfa: x29 32 + x19: .cfa -8 + ^ x20: .cfa -16 + ^ .ra: .cfa -24 + ^ x29: .cfa -32 + ^
STACK CFI 37a78 .cfa: sp 32 +
STACK CFI 37a80 .cfa: sp 0 +
STACK CFI INIT 37a84 68 .cfa: sp 0 +
STACK CFI 37a88 .cfa: sp 32 +
STACK CFI 37a90 .cfa: x29 32 + x19: .cfa -8 + ^ x20: .cfa -16 + ^ .ra: .cfa -24 + ^ x29: .cfa -32 + ^
STACK CFI 37ae0 .cfa: sp 32 +
STACK CFI 37ae8 .cfa: sp 0 +
STACK CFI INIT 37aec 4 .cfa: sp 0 +
STACK CFI INIT 37af0 4 .cfa: sp 0 +
STACK CFI INIT 37af4 4 .cfa: sp 0 +
STACK CFI INIT 37af8 4 .cfa: sp 0 +
STACK CFI INIT 37afc 50 .cfa: sp 0 +
STACK CFI 37b00 .cfa: sp 32 +
STACK CFI 37b08 .cfa: x29 32 + x19: .cfa -16 + ^ .ra: .cfa -24 + ^ x29: .cfa -32 + ^
STACK CFI 37b20 .cfa: sp 32 +
STACK CFI 37b28 .cfa: sp 0 +
STACK CFI 37b2c .cfa: x29 32 +
STACK CFI 37b40 .cfa: sp 32 +
STACK CFI 37b48 .cfa: sp 0 +
STACK CFI INIT 37b4c 64 .cfa: sp 0 +
STACK CFI 37b50 .cfa: sp 32 +
STACK CFI 37b58 .cfa: x29 32 + x19: .cfa -16 + ^ .ra: .cfa -24 + ^ x29: .cfa -32 + ^
STACK CFI 37b84 .cfa: sp 32 +
STACK CFI 37b8c .cfa: sp 0 +
STACK CFI 37b90 .cfa: x29 32 +
STACK CFI 37ba4 .cfa: sp 32 +
STACK CFI 37bac .cfa: sp 0 +
STACK CFI INIT 38108 4 .cfa: sp 0 +
STACK CFI INIT 3810c 14 .cfa: sp 0 +
STACK CFI 38110 .cfa: sp 16 +
STACK CFI 38114 .cfa: x29 16 + .ra: .cfa -8 + ^ x29: .cfa -16 + ^
STACK CFI INIT 3834c 14 .cfa: sp 0 +
STACK CFI 38350 .cfa: sp 16 +
STACK CFI 38354 .cfa: x29 16 + .ra: .cfa -8 + ^ x29: .cfa -16 + ^
STACK CFI INIT 38360 14 .cfa: sp 0 +
STACK CFI 38364 .cfa: sp 16 +
STACK CFI 38368 .cfa: x29 16 + .ra: .cfa -8 + ^ x29: .cfa -16 + ^
STACK CFI INIT 383c4 30 .cfa: sp 0 +
STACK CFI 383c8 .cfa: sp 32 +
STACK CFI 383d0 .cfa: x29 32 + x19: .cfa -16 + ^ .ra: .cfa -24 + ^ x29: .cfa -32 + ^
STACK CFI 383e8 .cfa: sp 32 +
STACK CFI 383f0 .cfa: sp 0 +
STACK CFI INIT 383f4 14 .cfa: sp 0 +
STACK CFI 383f8 .cfa: sp 16 +
STACK CFI 383fc .cfa: x29 16 + .ra: .cfa -8 + ^ x29: .cfa -16 + ^
STACK CFI INIT 38408 4 .cfa: sp 0 +
STACK CFI INIT 3840c 4 .cfa: sp 0 +
STACK CFI INIT 38410 38 .cfa: sp 0 +
STACK CFI 38414 .cfa: sp 32 +
STACK CFI 3841c .cfa: x29 32 + x19: .cfa -16 + ^ .ra: .cfa -24 + ^ x29: .cfa -32 + ^
STACK CFI 3843c .cfa: sp 32 +
STACK CFI 38444 .cfa: sp 0 +
STACK CFI INIT 38448 18 .cfa: sp 0 +
STACK CFI INIT 38460 4 .cfa: sp 0 +
STACK CFI INIT 38464 4 .cfa: sp 0 +
STACK CFI INIT 38468 10 .cfa: sp 0 +
STACK CFI INIT 38478 1c .cfa: sp 0 +
STACK CFI INIT 38494 c .cfa: sp 0 +
STACK CFI INIT 384a0 178 .cfa: sp 0 +
STACK CFI 384a4 .cfa: sp 80 +
STACK CFI 384b8 .cfa: x29 80 + x19: .cfa -8 + ^ x20: .cfa -16 + ^ x21: .cfa -24 + ^ x22: .cfa -32 + ^ x23: .cfa -40 + ^ x24: .cfa -48 + ^ x25: .cfa -56 + ^ x26: .cfa -64 + ^ .ra: .cfa -72 + ^ x29: .cfa -80 + ^
STACK CFI 38600 .cfa: sp 80 +
STACK CFI 38614 .cfa: sp 0 +
STACK CFI INIT 38e90 1c .cfa: sp 0 +
STACK CFI INIT 38eac 1c .cfa: sp 0 +
STACK CFI INIT 39248 4 .cfa: sp 0 +
STACK CFI INIT 3969c 4 .cfa: sp 0 +
STACK CFI INIT 39880 4 .cfa: sp 0 +
STACK CFI INIT 39884 24 .cfa: sp 0 +
STACK CFI 39888 .cfa: sp 16 +
STACK CFI 3988c .cfa: x29 16 + .ra: .cfa -8 + ^ x29: .cfa -16 + ^
STACK CFI 398a0 .cfa: sp 16 +
STACK CFI 398a4 .cfa: sp 0 +
STACK CFI INIT 398a8 10 .cfa: sp 0 +
STACK CFI INIT 398b8 4 .cfa: sp 0 +
STACK CFI INIT 398bc 4 .cfa: sp 0 +
STACK CFI INIT 39ed4 1c .cfa: sp 0 +
STACK CFI INIT 39ef0 c .cfa: sp 0 +
STACK CFI INIT 3a8b4 14 .cfa: sp 0 +
STACK CFI 3a8b8 .cfa: sp 16 +
STACK CFI 3a8bc .cfa: x29 16 + .ra: .cfa -8 + ^ x29: .cfa -16 + ^
STACK CFI INIT 3aa30 4 .cfa: sp 0 +
STACK CFI INIT 3aa34 14 .cfa: sp 0 +
STACK CFI INIT 3aa48 4 .cfa: sp 0 +
STACK CFI INIT 3aa4c 14 .cfa: sp 0 +
STACK CFI INIT 3aa60 14 .cfa: sp 0 +
STACK CFI INIT 3aa74 14 .cfa: sp 0 +
STACK CFI INIT 3aa88 68 .cfa: sp 0 +
STACK CFI 3aa8c .cfa: sp 48 +
STACK CFI 3aa98 .cfa: x29 48 + x19: .cfa -8 + ^ x20: .cfa -16 + ^ x21: .cfa -32 + ^ .ra: .cfa -40 + ^ x29: .cfa -48 + ^
STACK CFI 3aad0 .cfa: sp 48 +
STACK CFI 3aadc .cfa: sp 0 +
STACK CFI 3aae0 .cfa: sp 48 +
STACK CFI 3aaec .cfa: sp 0 +
STACK CFI INIT 3aaf0 14 .cfa: sp 0 +
STACK CFI 3aaf4 .cfa: sp 16 +
STACK CFI 3aaf8 .cfa: x29 16 + .ra: .cfa -8 + ^ x29: .cfa -16 + ^
STACK CFI INIT 3ac30 7c .cfa: sp 0 +
STACK CFI 3ac34 .cfa: sp 48 +
STACK CFI 3ac40 .cfa: x29 32 + x19: .cfa -8 + ^ x20: .cfa -16 + ^ .ra: .cfa -24 + ^ x29: .cfa -32 + ^
STACK CFI 3ac98 .cfa: sp 48 +
STACK CFI 3aca4 .cfa: sp 0 +
STACK CFI 3aca8 .cfa: x29 32 +
STACK CFI INIT 3acac 4c .cfa: sp 0 +
STACK CFI 3acb0 .cfa: sp 32 +
STACK CFI 3acb8 .cfa: x29 32 + x19: .cfa -16 + ^ .ra: .cfa -24 + ^ x29: .cfa -32 + ^
STACK CFI 3acec .cfa: sp 32 +
STACK CFI 3acf4 .cfa: sp 0 +
STACK CFI INIT 3b2e8 1c .cfa: sp 0 +
STACK CFI INIT 3b648 50 .cfa: sp 0 +
STACK CFI 3b64c .cfa: sp 32 +
STACK CFI 3b654 .cfa: x29 32 + x19: .cfa -16 + ^ .ra: .cfa -24 + ^ x29: .cfa -32 + ^
STACK CFI 3b66c .cfa: sp 32 +
STACK CFI 3b674 .cfa: sp 0 +
STACK CFI 3b678 .cfa: x29 32 +
STACK CFI 3b68c .cfa: sp 32 +
STACK CFI 3b694 .cfa: sp 0 +
STACK CFI INIT 3b698 4 .cfa: sp 0 +
STACK CFI INIT 3b69c 4 .cfa: sp 0 +
STACK CFI INIT 3b6a0 34 .cfa: sp 0 +
STACK CFI 3b6a4 .cfa: sp 32 +
STACK CFI 3b6ac .cfa: x29 32 + x19: .cfa -16 + ^ .ra: .cfa -24 + ^ x29: .cfa -32 + ^
STACK CFI 3b6c8 .cfa: sp 32 +
STACK CFI 3b6d0 .cfa: sp 0 +
STACK CFI INIT 3b6d4 14 .cfa: sp 0 +
STACK CFI INIT 3b6e8 4 .cfa: sp 0 +
STACK CFI INIT 3b6ec 4 .cfa: sp 0 +
STACK CFI INIT 3b6f0 8 .cfa: sp 0 +
STACK CFI INIT 3b6f8 1c .cfa: sp 0 +
STACK CFI INIT 3b714 c .cfa: sp 0 +
STACK CFI INIT 3b898 50 .cfa: sp 0 +
STACK CFI 3b89c .cfa: sp 32 +
STACK CFI 3b8a4 .cfa: x29 32 + x19: .cfa -16 + ^ .ra: .cfa -24 + ^ x29: .cfa -32 + ^
STACK CFI 3b8bc .cfa: sp 32 +
STACK CFI 3b8c4 .cfa: sp 0 +
STACK CFI 3b8c8 .cfa: x29 32 +
STACK CFI 3b8dc .cfa: sp 32 +
STACK CFI 3b8e4 .cfa: sp 0 +
STACK CFI INIT 3b8e8 50 .cfa: sp 0 +
STACK CFI 3b8ec .cfa: sp 32 +
STACK CFI 3b8f4 .cfa: x29 32 + x19: .cfa -16 + ^ .ra: .cfa -24 + ^ x29: .cfa -32 + ^
STACK CFI 3b90c .cfa: sp 32 +
STACK CFI 3b914 .cfa: sp 0 +
STACK CFI 3b918 .cfa: x29 32 +
STACK CFI 3b92c .cfa: sp 32 +
STACK CFI 3b934 .cfa: sp 0 +
STACK CFI INIT 3b938 4 .cfa: sp 0 +
STACK CFI INIT 3bab0 9c .cfa: sp 0 +
STACK CFI 3bab4 .cfa: sp 32 +
STACK CFI 3babc .cfa: x29 32 + x19: .cfa -8 + ^ x20: .cfa -16 + ^ .ra: .cfa -24 + ^ x29: .cfa -32 + ^
STACK CFI 3bb40 .cfa: sp 32 +
STACK CFI 3bb48 .cfa: sp 0 +
STACK CFI INIT 3bb4c a4 .cfa: sp 0 +
STACK CFI 3bb50 .cfa: sp 32 +
STACK CFI 3bb58 .cfa: x29 32 + x19: .cfa -8 + ^ x20: .cfa -16 + ^ .ra: .cfa -24 + ^ x29: .cfa -32 + ^
STACK CFI 3bbe4 .cfa: sp 32 +
STACK CFI 3bbec .cfa: sp 0 +
STACK CFI INIT 3bbf0 c .cfa: sp 0 +
STACK CFI INIT 3c00c 4 .cfa: sp 0 +
STACK CFI INIT 3c480 14 .cfa: sp 0 +
STACK CFI 3c484 .cfa: sp 16 +
STACK CFI 3c488 .cfa: x29 16 + .ra: .cfa -8 + ^ x29: .cfa -16 + ^
STACK CFI INIT 3c914 1c .cfa: sp 0 +
STACK CFI INIT 3d1a8 1c .cfa: sp 0 +
STACK CFI INIT 3d1c4 1c .cfa: sp 0 +
STACK CFI INIT 3d5b0 4 .cfa: sp 0 +
STACK CFI INIT 3d8cc 14 .cfa: sp 0 +
STACK CFI 3d8d0 .cfa: sp 16 +
STACK CFI 3d8d4 .cfa: x29 16 + .ra: .cfa -8 + ^ x29: .cfa -16 + ^
STACK CFI INIT 3da70 14 .cfa: sp 0 +
STACK CFI INIT 3de54 4 .cfa: sp 0 +
STACK CFI INIT 3de58 190 .cfa: sp 0 +
STACK CFI 3de5c .cfa: sp 128 +
STACK CFI 3de74 .cfa: x29 80 + x19: .cfa -8 + ^ x20: .cfa -16 + ^ x21: .cfa -24 + ^ x22: .cfa -32 + ^ x23: .cfa -40 + ^ x24: .cfa -48 + ^ x25: .cfa -64 + ^ .ra: .cfa -72 + ^ x29: .cfa -80 + ^
STACK CFI 3dfc8 .cfa: sp 128 +
STACK CFI 3dfe0 .cfa: sp 0 +
STACK CFI 3dfe4 .cfa: x29 80 +
STACK CFI INIT 3e090 b0 .cfa: sp 0 +
STACK CFI 3e094 .cfa: sp 32 +
STACK CFI 3e09c .cfa: x29 32 + x19: .cfa -16 + ^ .ra: .cfa -24 + ^ x29: .cfa -32 + ^
STACK CFI 3e134 .cfa: sp 32 +
STACK CFI 3e13c .cfa: sp 0 +
STACK CFI INIT 3e140 d0 .cfa: sp 0 +
STACK CFI 3e144 .cfa: sp 128 +
STACK CFI 3e154 .cfa: x29 48 + x19: .cfa -8 + ^ x20: .cfa -16 + ^ x21: .cfa -24 + ^ x22: .cfa -32 + ^ .ra: .cfa -40 + ^ x29: .cfa -48 + ^
STACK CFI 3e1f8 .cfa: sp 128 +
STACK CFI 3e208 .cfa: sp 0 +
STACK CFI 3e20c .cfa: x29 48 +
STACK CFI INIT 3e370 4b4 .cfa: sp 0 +
STACK CFI 3e374 .cfa: sp 96 +
STACK CFI 3e38c .cfa: x29 96 + x19: .cfa -8 + ^ x20: .cfa -16 + ^ x21: .cfa -24 + ^ x22: .cfa -32 + ^ x23: .cfa -40 + ^ x24: .cfa -48 + ^ x25: .cfa -56 + ^ x26: .cfa -64 + ^ x27: .cfa -72 + ^ x28: .cfa -80 + ^ .ra: .cfa -88 + ^ x29: .cfa -96 + ^
STACK CFI 3e7d4 .cfa: sp 96 +
STACK CFI 3e7ec .cfa: sp 0 +
STACK CFI 3e7f0 .cfa: x29 96 +
STACK CFI INIT 3e824 114 .cfa: sp 0 +
STACK CFI 3e828 .cfa: sp 128 +
STACK CFI 3e838 .cfa: x29 48 + x19: .cfa -8 + ^ x20: .cfa -16 + ^ x21: .cfa -32 + ^ .ra: .cfa -40 + ^ x29: .cfa -48 + ^
STACK CFI 3e904 .cfa: sp 128 +
STACK CFI 3e914 .cfa: sp 0 +
STACK CFI 3e918 .cfa: x29 48 +
STACK CFI INIT 3e938 94 .cfa: sp 0 +
STACK CFI 3e93c .cfa: sp 16 +
STACK CFI 3e940 .cfa: x29 16 + .ra: .cfa -8 + ^ x29: .cfa -16 + ^
STACK CFI 3e994 .cfa: sp 16 +
STACK CFI 3e998 .cfa: sp 0 +
STACK CFI 3e99c .cfa: x29 16 +
STACK CFI INIT 3e9cc 128 .cfa: sp 0 +
STACK CFI 3e9d0 .cfa: sp 80 +
STACK CFI 3e9e4 .cfa: x29 80 + x19: .cfa -8 + ^ x20: .cfa -16 + ^ x21: .cfa -24 + ^ x22: .cfa -32 + ^ x23: .cfa -40 + ^ x24: .cfa -48 + ^ x25: .cfa -64 + ^ .ra: .cfa -72 + ^ x29: .cfa -80 + ^
STACK CFI 3ead4 .cfa: sp 80 +
STACK CFI 3eae8 .cfa: sp 0 +
STACK CFI 3eaec .cfa: x29 80 +
STACK CFI INIT 3eaf4 34 .cfa: sp 0 +
STACK CFI 3eaf8 .cfa: sp 32 +
STACK CFI 3eb00 .cfa: x29 32 + x19: .cfa -8 + ^ x20: .cfa -16 + ^ .ra: .cfa -24 + ^ x29: .cfa -32 + ^
STACK CFI 3eb1c .cfa: sp 32 +
STACK CFI 3eb24 .cfa: sp 0 +
STACK CFI INIT 3ee8c 4 .cfa: sp 0 +
STACK CFI INIT 3ef8c 7c .cfa: sp 0 +
STACK CFI 3ef90 .cfa: sp 48 +
STACK CFI 3ef9c .cfa: x29 32 + x19: .cfa -8 + ^ x20: .cfa -16 + ^ .ra: .cfa -24 + ^ x29: .cfa -32 + ^
STACK CFI 3eff4 .cfa: sp 48 +
STACK CFI 3f000 .cfa: sp 0 +
STACK CFI 3f004 .cfa: x29 32 +
STACK CFI INIT 3f008 4c .cfa: sp 0 +
STACK CFI 3f00c .cfa: sp 32 +
STACK CFI 3f014 .cfa: x29 32 + x19: .cfa -16 + ^ .ra: .cfa -24 + ^ x29: .cfa -32 + ^
STACK CFI 3f048 .cfa: sp 32 +
STACK CFI 3f050 .cfa: sp 0 +
STACK CFI INIT 3febc 1c .cfa: sp 0 +
STACK CFI INIT 3fed8 1c .cfa: sp 0 +
STACK CFI INIT 3fef4 1c .cfa: sp 0 +
STACK CFI INIT 3ff10 c .cfa: sp 0 +
STACK CFI INIT 40698 4 .cfa: sp 0 +
STACK CFI INIT 4069c 18 .cfa: sp 0 +
STACK CFI INIT 406b4 18 .cfa: sp 0 +
STACK CFI INIT 409f8 4 .cfa: sp 0 +
STACK CFI INIT 409fc 50 .cfa: sp 0 +
STACK CFI 40a00 .cfa: sp 32 +
STACK CFI 40a08 .cfa: x29 32 + x19: .cfa -16 + ^ .ra: .cfa -24 + ^ x29: .cfa -32 + ^
STACK CFI 40a40 .cfa: sp 32 +
STACK CFI 40a48 .cfa: sp 0 +
STACK CFI INIT 4183c 78 .cfa: sp 0 +
STACK CFI 41840 .cfa: sp 48 +
STACK CFI 4184c .cfa: x29 48 + x19: .cfa -8 + ^ x20: .cfa -16 + ^ x21: .cfa -32 + ^ .ra: .cfa -40 + ^ x29: .cfa -48 + ^
STACK CFI 41894 .cfa: sp 48 +
STACK CFI 418a0 .cfa: sp 0 +
STACK CFI 418a4 .cfa: sp 48 +
STACK CFI 418b0 .cfa: sp 0 +
STACK CFI INIT 418b4 78 .cfa: sp 0 +
STACK CFI 418b8 .cfa: sp 48 +
STACK CFI 418c4 .cfa: x29 48 + x19: .cfa -8 + ^ x20: .cfa -16 + ^ x21: .cfa -32 + ^ .ra: .cfa -40 + ^ x29: .cfa -48 + ^
STACK CFI 4190c .cfa: sp 48 +
STACK CFI 41918 .cfa: sp 0 +
STACK CFI 4191c .cfa: sp 48 +
STACK CFI 41928 .cfa: sp 0 +
STACK CFI INIT 4192c 84 .cfa: sp 0 +
STACK CFI 41930 .cfa: sp 48 +
STACK CFI 4193c .cfa: x29 48 + x19: .cfa -8 + ^ x20: .cfa -16 + ^ x21: .cfa -24 + ^ x22: .cfa -32 + ^ .ra: .cfa -40 + ^ x29: .cfa -48 + ^
STACK CFI 41990 .cfa: sp 48 +
STACK CFI 4199c .cfa: sp 0 +
STACK CFI 419a0 .cfa: sp 48 +
STACK CFI 419ac .cfa: sp 0 +
STACK CFI INIT 419cc 8c .cfa: sp 0 +
STACK CFI 419d0 .cfa: sp 48 +
STACK CFI 419dc .cfa: x29 48 + x19: .cfa -8 + ^ x20: .cfa -16 + ^ x21: .cfa -24 + ^ x22: .cfa -32 + ^ .ra: .cfa -40 + ^ x29: .cfa -48 + ^
STACK CFI 41a14 .cfa: sp 48 +
STACK CFI 41a20 .cfa: sp 0 +
STACK CFI 41a24 .cfa: x29 48 +
STACK CFI 41a48 .cfa: sp 48 +
STACK CFI 41a54 .cfa: sp 0 +
STACK CFI INIT 41a58 78 .cfa: sp 0 +
STACK CFI 41a5c .cfa: sp 48 +
STACK CFI 41a68 .cfa: x29 48 + x19: .cfa -8 + ^ x20: .cfa -16 + ^ x21: .cfa -32 + ^ .ra: .cfa -40 + ^ x29: .cfa -48 + ^
STACK CFI 41ab0 .cfa: sp 48 +
STACK CFI 41abc .cfa: sp 0 +
STACK CFI 41ac0 .cfa: sp 48 +
STACK CFI 41acc .cfa: sp 0 +
STACK CFI INIT 41ad0 8c .cfa: sp 0 +
STACK CFI 41ad4 .cfa: sp 48 +
STACK CFI 41ae0 .cfa: x29 48 + x19: .cfa -8 + ^ x20: .cfa -16 + ^ x21: .cfa -24 + ^ x22: .cfa -32 + ^ .ra: .cfa -40 + ^ x29: .cfa -48 + ^
STACK CFI 41b18 .cfa: sp 48 +
STACK CFI 41b24 .cfa: sp 0 +
STACK CFI 41b28 .cfa: x29 48 +
STACK CFI 41b4c .cfa: sp 48 +
STACK CFI 41b58 .cfa: sp 0 +
STACK CFI INIT 41b5c 78 .cfa: sp 0 +
STACK CFI 41b60 .cfa: sp 48 +
STACK CFI 41b6c .cfa: x29 48 + x19: .cfa -8 + ^ x20: .cfa -16 + ^ x21: .cfa -32 + ^ .ra: .cfa -40 + ^ x29: .cfa -48 + ^
STACK CFI 41bb4 .cfa: sp 48 +
STACK CFI 41bc0 .cfa: sp 0 +
STACK CFI 41bc4 .cfa: sp 48 +
STACK CFI 41bd0 .cfa: sp 0 +
STACK CFI INIT 41bd4 104 .cfa: sp 0 +
STACK CFI 41bd8 .cfa: sp 64 +
STACK CFI 41be8 .cfa: x29 64 + x19: .cfa -8 + ^ x20: .cfa -16 + ^ x21: .cfa -24 + ^ x22: .cfa -32 + ^ x23: .cfa -48 + ^ .ra: .cfa -56 + ^ x29: .cfa -64 + ^
STACK CFI 41cb0 .cfa: sp 64 +
STACK CFI 41cc0 .cfa: sp 0 +
STACK CFI 41cc4 .cfa: sp 64 +
STACK CFI 41cd4 .cfa: sp 0 +
STACK CFI INIT 420d0 78 .cfa: sp 0 +
STACK CFI 420d4 .cfa: sp 48 +
STACK CFI 420e0 .cfa: x29 48 + x19: .cfa -8 + ^ x20: .cfa -16 + ^ x21: .cfa -32 + ^ .ra: .cfa -40 + ^ x29: .cfa -48 + ^
STACK CFI 42128 .cfa: sp 48 +
STACK CFI 42134 .cfa: sp 0 +
STACK CFI 42138 .cfa: sp 48 +
STACK CFI 42144 .cfa: sp 0 +
STACK CFI INIT 42164 90 .cfa: sp 0 +
STACK CFI 42168 .cfa: sp 48 +
STACK CFI 42174 .cfa: x29 48 + x19: .cfa -8 + ^ x20: .cfa -16 + ^ x21: .cfa -24 + ^ x22: .cfa -32 + ^ .ra: .cfa -40 + ^ x29: .cfa -48 + ^
STACK CFI 421ac .cfa: sp 48 +
STACK CFI 421b8 .cfa: sp 0 +
STACK CFI 421bc .cfa: x29 48 +
STACK CFI 421e4 .cfa: sp 48 +
STACK CFI 421f0 .cfa: sp 0 +
STACK CFI INIT 4228c 3c .cfa: sp 0 +
STACK CFI 42290 .cfa: sp 32 +
STACK CFI 42298 .cfa: x29 32 + x19: .cfa -16 + ^ .ra: .cfa -24 + ^ x29: .cfa -32 + ^
STACK CFI 422b0 .cfa: sp 32 +
STACK CFI 422b8 .cfa: sp 0 +
STACK CFI 422bc .cfa: sp 32 +
STACK CFI 422c4 .cfa: sp 0 +
STACK CFI INIT 42300 78 .cfa: sp 0 +
STACK CFI 42304 .cfa: sp 48 +
STACK CFI 42310 .cfa: x29 48 + x19: .cfa -8 + ^ x20: .cfa -16 + ^ x21: .cfa -32 + ^ .ra: .cfa -40 + ^ x29: .cfa -48 + ^
STACK CFI 42358 .cfa: sp 48 +
STACK CFI 42364 .cfa: sp 0 +
STACK CFI 42368 .cfa: sp 48 +
STACK CFI 42374 .cfa: sp 0 +
STACK CFI INIT 42378 78 .cfa: sp 0 +
STACK CFI 4237c .cfa: sp 48 +
STACK CFI 42388 .cfa: x29 48 + x19: .cfa -8 + ^ x20: .cfa -16 + ^ x21: .cfa -32 + ^ .ra: .cfa -40 + ^ x29: .cfa -48 + ^
STACK CFI 423d0 .cfa: sp 48 +
STACK CFI 423dc .cfa: sp 0 +
STACK CFI 423e0 .cfa: sp 48 +
STACK CFI 423ec .cfa: sp 0 +
STACK CFI INIT 423f0 78 .cfa: sp 0 +
STACK CFI 423f4 .cfa: sp 48 +
STACK CFI 42400 .cfa: x29 48 + x19: .cfa -8 + ^ x20: .cfa -16 + ^ x21: .cfa -32 + ^ .ra: .cfa -40 + ^ x29: .cfa -48 + ^
STACK CFI 42448 .cfa: sp 48 +
STACK CFI 42454 .cfa: sp 0 +
STACK CFI 42458 .cfa: sp 48 +
STACK CFI 42464 .cfa: sp 0 +
STACK CFI INIT 42468 78 .cfa: sp 0 +
STACK CFI 4246c .cfa: sp 48 +
STACK CFI 42478 .cfa: x29 48 + x19: .cfa -8 + ^ x20: .cfa -16 + ^ x21: .cfa -32 + ^ .ra: .cfa -40 + ^ x29: .cfa -48 + ^
STACK CFI 424c0 .cfa: sp 48 +
STACK CFI 424cc .cfa: sp 0 +
STACK CFI 424d0 .cfa: sp 48 +
STACK CFI 424dc .cfa: sp 0 +
STACK CFI INIT 426ac 2b8 .cfa: sp 0 +
STACK CFI 426b0 .cfa: sp 80 +
STACK CFI 426c4 .cfa: x29 80 + x19: .cfa -8 + ^ x20: .cfa -16 + ^ x21: .cfa -24 + ^ x22: .cfa -32 + ^ x23: .cfa -40 + ^ x24: .cfa -48 + ^ x25: .cfa -64 + ^ .ra: .cfa -72 + ^ x29: .cfa -80 + ^
STACK CFI 42870 .cfa: sp 80 +
STACK CFI 42884 .cfa: sp 0 +
STACK CFI 42888 .cfa: x29 80 +
STACK CFI 4294c .cfa: sp 80 +
STACK CFI 42960 .cfa: sp 0 +
STACK CFI INIT 42964 80 .cfa: sp 0 +
STACK CFI 42968 .cfa: sp 48 +
STACK CFI 42974 .cfa: x29 48 + x19: .cfa -8 + ^ x20: .cfa -16 + ^ x21: .cfa -32 + ^ .ra: .cfa -40 + ^ x29: .cfa -48 + ^
STACK CFI 429c4 .cfa: sp 48 +
STACK CFI 429d0 .cfa: sp 0 +
STACK CFI 429d4 .cfa: sp 48 +
STACK CFI 429e0 .cfa: sp 0 +
STACK CFI INIT 429e4 80 .cfa: sp 0 +
STACK CFI 429e8 .cfa: sp 48 +
STACK CFI 429f4 .cfa: x29 48 + x19: .cfa -8 + ^ x20: .cfa -16 + ^ x21: .cfa -32 + ^ .ra: .cfa -40 + ^ x29: .cfa -48 + ^
STACK CFI 42a44 .cfa: sp 48 +
STACK CFI 42a50 .cfa: sp 0 +
STACK CFI 42a54 .cfa: sp 48 +
STACK CFI 42a60 .cfa: sp 0 +
STACK CFI INIT 42c04 2b8 .cfa: sp 0 +
STACK CFI INIT 42ebc 1bc .cfa: sp 0 +
STACK CFI 42ec0 .cfa: sp 64 +
STACK CFI 42ed0 .cfa: x29 64 + x19: .cfa -8 + ^ x20: .cfa -16 + ^ x21: .cfa -24 + ^ x22: .cfa -32 + ^ x23: .cfa -48 + ^ .ra: .cfa -56 + ^ x29: .cfa -64 + ^
STACK CFI 42fd4 .cfa: sp 64 +
STACK CFI 42fe4 .cfa: sp 0 +
STACK CFI 42fe8 .cfa: x29 64 +
STACK CFI INIT 43078 80 .cfa: sp 0 +
STACK CFI 4307c .cfa: sp 48 +
STACK CFI 43088 .cfa: x29 48 + x19: .cfa -8 + ^ x20: .cfa -16 + ^ x21: .cfa -32 + ^ .ra: .cfa -40 + ^ x29: .cfa -48 + ^
STACK CFI 430d8 .cfa: sp 48 +
STACK CFI 430e4 .cfa: sp 0 +
STACK CFI 430e8 .cfa: sp 48 +
STACK CFI 430f4 .cfa: sp 0 +
STACK CFI INIT 430f8 98 .cfa: sp 0 +
STACK CFI 43100 .cfa: sp 48 +
STACK CFI 4310c .cfa: x29 48 + x19: .cfa -8 + ^ x20: .cfa -16 + ^ x21: .cfa -32 + ^ .ra: .cfa -40 + ^ x29: .cfa -48 + ^
STACK CFI 4315c .cfa: sp 0 + x19: x19 x20: x20 x21: x21 .ra: x30 x29: x29
STACK CFI 43160 .cfa: x29 48 + x19: .cfa -8 + ^ x20: .cfa -16 + ^ x21: .cfa -32 + ^ .ra: .cfa -40 + ^ x29: .cfa -48 + ^
STACK CFI 43180 .cfa: sp 48 +
STACK CFI 4318c .cfa: sp 0 +
STACK CFI INIT 43190 54 .cfa: sp 0 +
STACK CFI 43198 .cfa: sp 32 +
STACK CFI 431a0 .cfa: x29 32 + x19: .cfa -8 + ^ x20: .cfa -16 + ^ .ra: .cfa -24 + ^ x29: .cfa -32 + ^
STACK CFI 431d8 .cfa: sp 32 +
STACK CFI 431e0 .cfa: sp 0 +
STACK CFI INIT 431e4 54 .cfa: sp 0 +
STACK CFI 431ec .cfa: sp 32 +
STACK CFI 431f4 .cfa: x29 32 + x19: .cfa -8 + ^ x20: .cfa -16 + ^ .ra: .cfa -24 + ^ x29: .cfa -32 + ^
STACK CFI 4322c .cfa: sp 32 +
STACK CFI 43234 .cfa: sp 0 +
STACK CFI INIT 432e0 54 .cfa: sp 0 +
STACK CFI 432e8 .cfa: sp 32 +
STACK CFI 432f0 .cfa: x29 32 + x19: .cfa -8 + ^ x20: .cfa -16 + ^ .ra: .cfa -24 + ^ x29: .cfa -32 + ^
STACK CFI 43328 .cfa: sp 32 +
STACK CFI 43330 .cfa: sp 0 +
STACK CFI INIT 43334 a8 .cfa: sp 0 +
STACK CFI 4333c .cfa: sp 48 +
STACK CFI 43348 .cfa: x29 48 + x19: .cfa -8 + ^ x20: .cfa -16 + ^ x21: .cfa -24 + ^ x22: .cfa -32 + ^ .ra: .cfa -40 + ^ x29: .cfa -48 + ^
STACK CFI 433cc .cfa: sp 48 +
STACK CFI 433d8 .cfa: sp 0 +
STACK CFI INIT 433dc 54 .cfa: sp 0 +
STACK CFI 433e4 .cfa: sp 32 +
STACK CFI 433ec .cfa: x29 32 + x19: .cfa -8 + ^ x20: .cfa -16 + ^ .ra: .cfa -24 + ^ x29: .cfa -32 + ^
STACK CFI 43424 .cfa: sp 32 +
STACK CFI 4342c .cfa: sp 0 +
STACK CFI INIT 4377c 4 .cfa: sp 0 +
STACK CFI INIT 43780 14 .cfa: sp 0 +
STACK CFI INIT 43bd0 1c .cfa: sp 0 +
STACK CFI INIT 43f28 4 .cfa: sp 0 +
STACK CFI INIT 44b38 1c .cfa: sp 0 +
STACK CFI INIT 44ed8 4 .cfa: sp 0 +
STACK CFI INIT 4501c 4c .cfa: sp 0 +
STACK CFI 45020 .cfa: sp 32 +
STACK CFI 45028 .cfa: x29 32 + x19: .cfa -8 + ^ x20: .cfa -16 + ^ .ra: .cfa -24 + ^ x29: .cfa -32 + ^
STACK CFI 45050 .cfa: sp 32 +
STACK CFI 45058 .cfa: sp 0 +
STACK CFI 4505c .cfa: sp 32 +
STACK CFI 45064 .cfa: sp 0 +
STACK CFI INIT 45068 30 .cfa: sp 0 +
STACK CFI 4506c .cfa: sp 32 +
STACK CFI 45074 .cfa: x29 32 + x19: .cfa -16 + ^ .ra: .cfa -24 + ^ x29: .cfa -32 + ^
STACK CFI 4508c .cfa: sp 32 +
STACK CFI 45094 .cfa: sp 0 +
STACK CFI INIT 45a1c 3c .cfa: sp 0 +
STACK CFI 45a20 .cfa: sp 32 +
STACK CFI 45a28 .cfa: x29 32 + x19: .cfa -16 + ^ .ra: .cfa -24 + ^ x29: .cfa -32 + ^
STACK CFI 45a40 .cfa: sp 32 +
STACK CFI 45a48 .cfa: sp 0 +
STACK CFI 45a4c .cfa: sp 32 +
STACK CFI 45a54 .cfa: sp 0 +
STACK CFI INIT 46060 1c .cfa: sp 0 +
STACK CFI INIT 46a70 1c .cfa: sp 0 +
STACK CFI INIT 46f0c 1c .cfa: sp 0 +
STACK CFI INIT 46f28 1c .cfa: sp 0 +
STACK CFI INIT 473a4 68 .cfa: sp 0 +
STACK CFI 473a8 .cfa: sp 32 +
STACK CFI 473b0 .cfa: x29 32 + x19: .cfa -8 + ^ x20: .cfa -16 + ^ .ra: .cfa -24 + ^ x29: .cfa -32 + ^
STACK CFI 473f4 .cfa: sp 32 +
STACK CFI 473fc .cfa: sp 0 +
STACK CFI 47400 .cfa: sp 32 +
STACK CFI 47408 .cfa: sp 0 +
STACK CFI INIT 4740c 3c .cfa: sp 0 +
STACK CFI 47410 .cfa: sp 32 +
STACK CFI 47418 .cfa: x29 32 + x19: .cfa -16 + ^ .ra: .cfa -24 + ^ x29: .cfa -32 + ^
STACK CFI 47430 .cfa: sp 32 +
STACK CFI 47438 .cfa: sp 0 +
STACK CFI 4743c .cfa: sp 32 +
STACK CFI 47444 .cfa: sp 0 +
STACK CFI INIT 48888 4 .cfa: sp 0 +
STACK CFI INIT 49264 1e4 .cfa: sp 0 +
STACK CFI INIT 4982c 4 .cfa: sp 0 +
STACK CFI INIT 49990 98 .cfa: sp 0 +
STACK CFI 49994 .cfa: sp 32 +
STACK CFI 4999c .cfa: x29 32 + x19: .cfa -16 + ^ .ra: .cfa -24 + ^ x29: .cfa -32 + ^
STACK CFI 49a1c .cfa: sp 32 +
STACK CFI 49a24 .cfa: sp 0 +
STACK CFI INIT 4a0a0 4 .cfa: sp 0 +
STACK CFI INIT 4a7e4 4 .cfa: sp 0 +
STACK CFI INIT 4ab90 4 .cfa: sp 0 +
STACK CFI INIT 4ab94 24 .cfa: sp 0 +
STACK CFI 4ab98 .cfa: sp 16 +
STACK CFI 4ab9c .cfa: x29 16 + .ra: .cfa -8 + ^ x29: .cfa -16 + ^
STACK CFI 4abb0 .cfa: sp 16 +
STACK CFI 4abb4 .cfa: sp 0 +
STACK CFI INIT 4abb8 10 .cfa: sp 0 +
STACK CFI INIT 4abc8 4 .cfa: sp 0 +
STACK CFI INIT 4abcc 4 .cfa: sp 0 +
STACK CFI INIT 4abd0 7c .cfa: sp 0 +
STACK CFI 4abd4 .cfa: sp 64 +
STACK CFI 4abe0 .cfa: x29 32 + x19: .cfa -8 + ^ x20: .cfa -16 + ^ .ra: .cfa -24 + ^ x29: .cfa -32 + ^
STACK CFI 4ac38 .cfa: sp 64 +
STACK CFI 4ac44 .cfa: sp 0 +
STACK CFI 4ac48 .cfa: x29 32 +
STACK CFI INIT 4ac4c 1c .cfa: sp 0 +
STACK CFI INIT 4ac68 c .cfa: sp 0 +
STACK CFI INIT 4b0a0 50 .cfa: sp 0 +
STACK CFI 4b0a4 .cfa: sp 32 +
STACK CFI 4b0ac .cfa: x29 32 + x19: .cfa -16 + ^ .ra: .cfa -24 + ^ x29: .cfa -32 + ^
STACK CFI 4b0c4 .cfa: sp 32 +
STACK CFI 4b0cc .cfa: sp 0 +
STACK CFI 4b0d0 .cfa: x29 32 +
STACK CFI 4b0e4 .cfa: sp 32 +
STACK CFI 4b0ec .cfa: sp 0 +
STACK CFI INIT 4b0f0 14 .cfa: sp 0 +
STACK CFI 4b0f4 .cfa: sp 16 +
STACK CFI 4b0f8 .cfa: x29 16 + .ra: .cfa -8 + ^ x29: .cfa -16 + ^
STACK CFI INIT 4b104 4 .cfa: sp 0 +
STACK CFI INIT 4b108 14 .cfa: sp 0 +
STACK CFI INIT 4b24c 58 .cfa: sp 0 +
STACK CFI 4b250 .cfa: sp 32 +
STACK CFI 4b258 .cfa: x29 32 + x19: .cfa -16 + ^ .ra: .cfa -24 + ^ x29: .cfa -32 + ^
STACK CFI 4b278 .cfa: sp 32 +
STACK CFI 4b280 .cfa: sp 0 +
STACK CFI 4b284 .cfa: x29 32 +
STACK CFI 4b298 .cfa: sp 32 +
STACK CFI 4b2a0 .cfa: sp 0 +
STACK CFI INIT 4b2a4 f0 .cfa: sp 0 +
STACK CFI 4b2a8 .cfa: sp 80 +
STACK CFI 4b2b8 .cfa: x29 48 + x19: .cfa -8 + ^ x20: .cfa -16 + ^ x21: .cfa -24 + ^ x22: .cfa -32 + ^ .ra: .cfa -40 + ^ x29: .cfa -48 + ^
STACK CFI 4b37c .cfa: sp 80 +
STACK CFI 4b38c .cfa: sp 0 +
STACK CFI 4b390 .cfa: x29 48 +
STACK CFI INIT 4b394 50 .cfa: sp 0 +
STACK CFI 4b398 .cfa: sp 32 +
STACK CFI 4b3a0 .cfa: x29 32 + x19: .cfa -16 + ^ .ra: .cfa -24 + ^ x29: .cfa -32 + ^
STACK CFI 4b3b8 .cfa: sp 32 +
STACK CFI 4b3c0 .cfa: sp 0 +
STACK CFI 4b3c4 .cfa: x29 32 +
STACK CFI 4b3d8 .cfa: sp 32 +
STACK CFI 4b3e0 .cfa: sp 0 +
STACK CFI INIT 4b83c 1c .cfa: sp 0 +
STACK CFI INIT 4b858 50 .cfa: sp 0 +
STACK CFI 4b85c .cfa: sp 32 +
STACK CFI 4b864 .cfa: x29 32 + x19: .cfa -16 + ^ .ra: .cfa -24 + ^ x29: .cfa -32 + ^
STACK CFI 4b87c .cfa: sp 32 +
STACK CFI 4b884 .cfa: sp 0 +
STACK CFI 4b888 .cfa: x29 32 +
STACK CFI 4b89c .cfa: sp 32 +
STACK CFI 4b8a4 .cfa: sp 0 +
STACK CFI INIT 4c434 50 .cfa: sp 0 +
STACK CFI 4c438 .cfa: sp 32 +
STACK CFI 4c440 .cfa: x29 32 + x19: .cfa -16 + ^ .ra: .cfa -24 + ^ x29: .cfa -32 + ^
STACK CFI 4c458 .cfa: sp 32 +
STACK CFI 4c460 .cfa: sp 0 +
STACK CFI 4c464 .cfa: x29 32 +
STACK CFI 4c478 .cfa: sp 32 +
STACK CFI 4c480 .cfa: sp 0 +
STACK CFI INIT 4c484 10 .cfa: sp 0 +
STACK CFI INIT 4c494 30 .cfa: sp 0 +
STACK CFI 4c498 .cfa: sp 32 +
STACK CFI 4c4a0 .cfa: x29 32 + x19: .cfa -16 + ^ .ra: .cfa -24 + ^ x29: .cfa -32 + ^
STACK CFI 4c4b8 .cfa: sp 32 +
STACK CFI 4c4c0 .cfa: sp 0 +
STACK CFI INIT 4c5a8 4 .cfa: sp 0 +
STACK CFI INIT 4c5ac 58 .cfa: sp 0 +
STACK CFI 4c5b0 .cfa: sp 32 +
STACK CFI 4c5b8 .cfa: x29 32 + x19: .cfa -16 + ^ .ra: .cfa -24 + ^ x29: .cfa -32 + ^
STACK CFI 4c5d8 .cfa: sp 32 +
STACK CFI 4c5e0 .cfa: sp 0 +
STACK CFI 4c5e4 .cfa: x29 32 +
STACK CFI 4c5f8 .cfa: sp 32 +
STACK CFI 4c600 .cfa: sp 0 +
STACK CFI INIT 4c604 50 .cfa: sp 0 +
STACK CFI 4c608 .cfa: sp 32 +
STACK CFI 4c610 .cfa: x29 32 + x19: .cfa -16 + ^ .ra: .cfa -24 + ^ x29: .cfa -32 + ^
STACK CFI 4c628 .cfa: sp 32 +
STACK CFI 4c630 .cfa: sp 0 +
STACK CFI 4c634 .cfa: x29 32 +
STACK CFI 4c648 .cfa: sp 32 +
STACK CFI 4c650 .cfa: sp 0 +
STACK CFI INIT 4c654 5c .cfa: sp 0 +
STACK CFI 4c658 .cfa: sp 32 +
STACK CFI 4c660 .cfa: x29 32 + x19: .cfa -16 + ^ .ra: .cfa -24 + ^ x29: .cfa -32 + ^
STACK CFI 4c684 .cfa: sp 32 +
STACK CFI 4c68c .cfa: sp 0 +
STACK CFI 4c690 .cfa: x29 32 +
STACK CFI 4c6a4 .cfa: sp 32 +
STACK CFI 4c6ac .cfa: sp 0 +
STACK CFI INIT 4c6b0 6c .cfa: sp 0 +
STACK CFI 4c6b4 .cfa: sp 32 +
STACK CFI 4c6bc .cfa: x29 32 + x19: .cfa -8 + ^ x20: .cfa -16 + ^ .ra: .cfa -24 + ^ x29: .cfa -32 + ^
STACK CFI 4c6e8 .cfa: sp 32 +
STACK CFI 4c6f0 .cfa: sp 0 +
STACK CFI 4c6f4 .cfa: x29 32 +
STACK CFI 4c710 .cfa: sp 32 +
STACK CFI 4c718 .cfa: sp 0 +
STACK CFI INIT 4c71c 50 .cfa: sp 0 +
STACK CFI 4c720 .cfa: sp 32 +
STACK CFI 4c728 .cfa: x29 32 + x19: .cfa -16 + ^ .ra: .cfa -24 + ^ x29: .cfa -32 + ^
STACK CFI 4c760 .cfa: sp 32 +
STACK CFI 4c768 .cfa: sp 0 +
STACK CFI INIT 4c76c 34 .cfa: sp 0 +
STACK CFI 4c788 .cfa: sp 16 +
STACK CFI 4c78c .cfa: x29 16 + .ra: .cfa -8 + ^ x29: .cfa -16 + ^
STACK CFI 4c798 .cfa: sp 16 +
STACK CFI 4c79c .cfa: sp 0 +
STACK CFI INIT 4c7a0 50 .cfa: sp 0 +
STACK CFI 4c7a4 .cfa: sp 32 +
STACK CFI 4c7ac .cfa: x29 32 + x19: .cfa -16 + ^ .ra: .cfa -24 + ^ x29: .cfa -32 + ^
STACK CFI 4c7c4 .cfa: sp 32 +
STACK CFI 4c7cc .cfa: sp 0 +
STACK CFI 4c7d0 .cfa: x29 32 +
STACK CFI 4c7e4 .cfa: sp 32 +
STACK CFI 4c7ec .cfa: sp 0 +
STACK CFI INIT 4c7f0 60 .cfa: sp 0 +
STACK CFI 4c7f4 .cfa: sp 32 +
STACK CFI 4c7fc .cfa: x29 32 + x19: .cfa -8 + ^ x20: .cfa -16 + ^ .ra: .cfa -24 + ^ x29: .cfa -32 + ^
STACK CFI 4c81c .cfa: sp 32 +
STACK CFI 4c824 .cfa: sp 0 +
STACK CFI 4c828 .cfa: x29 32 +
STACK CFI 4c844 .cfa: sp 32 +
STACK CFI 4c84c .cfa: sp 0 +
STACK CFI INIT 4ca0c 1c .cfa: sp 0 +
STACK CFI INIT 4ca28 c .cfa: sp 0 +
STACK CFI INIT 4ca34 60 .cfa: sp 0 +
STACK CFI 4ca38 .cfa: sp 32 +
STACK CFI 4ca40 .cfa: x29 32 + x19: .cfa -8 + ^ x20: .cfa -16 + ^ .ra: .cfa -24 + ^ x29: .cfa -32 + ^
STACK CFI 4ca60 .cfa: sp 32 +
STACK CFI 4ca68 .cfa: sp 0 +
STACK CFI 4ca6c .cfa: x29 32 +
STACK CFI 4ca88 .cfa: sp 32 +
STACK CFI 4ca90 .cfa: sp 0 +
STACK CFI INIT 4ca94 70 .cfa: sp 0 +
STACK CFI 4ca98 .cfa: sp 32 +
STACK CFI 4caa0 .cfa: x29 32 + x19: .cfa -8 + ^ x20: .cfa -16 + ^ .ra: .cfa -24 + ^ x29: .cfa -32 + ^
STACK CFI 4cac8 .cfa: sp 32 +
STACK CFI 4cad0 .cfa: sp 0 +
STACK CFI 4cad4 .cfa: x29 32 +
STACK CFI 4caf8 .cfa: sp 32 +
STACK CFI 4cb00 .cfa: sp 0 +
STACK CFI INIT 4cb04 50 .cfa: sp 0 +
STACK CFI 4cb08 .cfa: sp 32 +
STACK CFI 4cb10 .cfa: x29 32 + x19: .cfa -16 + ^ .ra: .cfa -24 + ^ x29: .cfa -32 + ^
STACK CFI 4cb28 .cfa: sp 32 +
STACK CFI 4cb30 .cfa: sp 0 +
STACK CFI 4cb34 .cfa: x29 32 +
STACK CFI 4cb48 .cfa: sp 32 +
STACK CFI 4cb50 .cfa: sp 0 +
STACK CFI INIT 4cb54 5c .cfa: sp 0 +
STACK CFI 4cb58 .cfa: sp 32 +
STACK CFI 4cb60 .cfa: x29 32 + x19: .cfa -16 + ^ .ra: .cfa -24 + ^ x29: .cfa -32 + ^
STACK CFI 4cb84 .cfa: sp 32 +
STACK CFI 4cb8c .cfa: sp 0 +
STACK CFI 4cb90 .cfa: x29 32 +
STACK CFI 4cba4 .cfa: sp 32 +
STACK CFI 4cbac .cfa: sp 0 +
STACK CFI INIT 4cbb0 6c .cfa: sp 0 +
STACK CFI 4cbb4 .cfa: sp 32 +
STACK CFI 4cbbc .cfa: x29 32 + x19: .cfa -8 + ^ x20: .cfa -16 + ^ .ra: .cfa -24 + ^ x29: .cfa -32 + ^
STACK CFI 4cbe8 .cfa: sp 32 +
STACK CFI 4cbf0 .cfa: sp 0 +
STACK CFI 4cbf4 .cfa: x29 32 +
STACK CFI 4cc10 .cfa: sp 32 +
STACK CFI 4cc18 .cfa: sp 0 +
STACK CFI INIT 4cc1c 58 .cfa: sp 0 +
STACK CFI 4cc20 .cfa: sp 32 +
STACK CFI 4cc28 .cfa: x29 32 + x19: .cfa -8 + ^ x20: .cfa -16 + ^ .ra: .cfa -24 + ^ x29: .cfa -32 + ^
STACK CFI 4cc68 .cfa: sp 32 +
STACK CFI 4cc70 .cfa: sp 0 +
STACK CFI INIT 4cc74 4c .cfa: sp 0 +
STACK CFI 4cc78 .cfa: sp 32 +
STACK CFI 4cc80 .cfa: x29 32 + x19: .cfa -8 + ^ x20: .cfa -16 + ^ .ra: .cfa -24 + ^ x29: .cfa -32 + ^
STACK CFI 4ccb4 .cfa: sp 32 +
STACK CFI 4ccbc .cfa: sp 0 +
STACK CFI INIT 4ccc0 50 .cfa: sp 0 +
STACK CFI 4ccc4 .cfa: sp 32 +
STACK CFI 4cccc .cfa: x29 32 + x19: .cfa -16 + ^ .ra: .cfa -24 + ^ x29: .cfa -32 + ^
STACK CFI 4cce4 .cfa: sp 32 +
STACK CFI 4ccec .cfa: sp 0 +
STACK CFI 4ccf0 .cfa: x29 32 +
STACK CFI 4cd04 .cfa: sp 32 +
STACK CFI 4cd0c .cfa: sp 0 +
STACK CFI INIT 4cd10 60 .cfa: sp 0 +
STACK CFI 4cd14 .cfa: sp 32 +
STACK CFI 4cd1c .cfa: x29 32 + x19: .cfa -8 + ^ x20: .cfa -16 + ^ .ra: .cfa -24 + ^ x29: .cfa -32 + ^
STACK CFI 4cd3c .cfa: sp 32 +
STACK CFI 4cd44 .cfa: sp 0 +
STACK CFI 4cd48 .cfa: x29 32 +
STACK CFI 4cd64 .cfa: sp 32 +
STACK CFI 4cd6c .cfa: sp 0 +
STACK CFI INIT 4cf3c 1c .cfa: sp 0 +
STACK CFI INIT 4cf58 c .cfa: sp 0 +
STACK CFI INIT 4d294 14 .cfa: sp 0 +
STACK CFI INIT 4d2a8 14 .cfa: sp 0 +
STACK CFI INIT 4d2bc 8 .cfa: sp 0 +
STACK CFI INIT 4d2c4 14 .cfa: sp 0 +
STACK CFI INIT 4d2d8 20 .cfa: sp 0 +
STACK CFI INIT 4d2f8 3c .cfa: sp 0 +
STACK CFI 4d310 .cfa: sp 32 +
STACK CFI 4d318 .cfa: x29 32 + x19: .cfa -16 + ^ .ra: .cfa -24 + ^ x29: .cfa -32 + ^
STACK CFI 4d328 .cfa: sp 32 +
STACK CFI 4d330 .cfa: sp 0 +
STACK CFI INIT 4d334 60 .cfa: sp 0 +
STACK CFI 4d338 .cfa: sp 32 +
STACK CFI 4d340 .cfa: x29 32 + x19: .cfa -8 + ^ x20: .cfa -16 + ^ .ra: .cfa -24 + ^ x29: .cfa -32 + ^
STACK CFI 4d388 .cfa: sp 32 +
STACK CFI 4d390 .cfa: sp 0 +
STACK CFI INIT 4d394 54 .cfa: sp 0 +
STACK CFI 4d398 .cfa: sp 32 +
STACK CFI 4d3a0 .cfa: x29 32 + x19: .cfa -8 + ^ x20: .cfa -16 + ^ .ra: .cfa -24 + ^ x29: .cfa -32 + ^
STACK CFI 4d3dc .cfa: sp 32 +
STACK CFI 4d3e4 .cfa: sp 0 +
STACK CFI INIT 4d3e8 10 .cfa: sp 0 +
STACK CFI INIT 4d3f8 30 .cfa: sp 0 +
STACK CFI 4d404 .cfa: sp 32 +
STACK CFI 4d40c .cfa: x29 32 + x19: .cfa -16 + ^ .ra: .cfa -24 + ^ x29: .cfa -32 + ^
STACK CFI 4d41c .cfa: sp 32 +
STACK CFI 4d424 .cfa: sp 0 +
STACK CFI INIT 4d748 1c .cfa: sp 0 +
STACK CFI INIT 4d764 c .cfa: sp 0 +
STACK CFI INIT 4d770 50 .cfa: sp 0 +
STACK CFI 4d774 .cfa: sp 32 +
STACK CFI 4d77c .cfa: x29 32 + x19: .cfa -16 + ^ .ra: .cfa -24 + ^ x29: .cfa -32 + ^
STACK CFI 4d794 .cfa: sp 32 +
STACK CFI 4d79c .cfa: sp 0 +
STACK CFI 4d7a0 .cfa: x29 32 +
STACK CFI 4d7b4 .cfa: sp 32 +
STACK CFI 4d7bc .cfa: sp 0 +
STACK CFI INIT 4d7c0 90 .cfa: sp 0 +
STACK CFI 4d7c4 .cfa: sp 32 +
STACK CFI 4d7cc .cfa: x29 32 + x19: .cfa -8 + ^ x20: .cfa -16 + ^ .ra: .cfa -24 + ^ x29: .cfa -32 + ^
STACK CFI 4d800 .cfa: sp 32 +
STACK CFI 4d808 .cfa: sp 0 +
STACK CFI 4d80c .cfa: x29 32 +
STACK CFI 4d844 .cfa: sp 32 +
STACK CFI 4d84c .cfa: sp 0 +
STACK CFI INIT 4d850 9c .cfa: sp 0 +
STACK CFI 4d854 .cfa: sp 32 +
STACK CFI 4d85c .cfa: x29 32 + x19: .cfa -8 + ^ x20: .cfa -16 + ^ .ra: .cfa -24 + ^ x29: .cfa -32 + ^
STACK CFI 4d89c .cfa: sp 32 +
STACK CFI 4d8a4 .cfa: sp 0 +
STACK CFI 4d8a8 .cfa: x29 32 +
STACK CFI 4d8e0 .cfa: sp 32 +
STACK CFI 4d8e8 .cfa: sp 0 +
STACK CFI INIT 4d8ec 9c .cfa: sp 0 +
STACK CFI 4d8f0 .cfa: sp 32 +
STACK CFI 4d8f8 .cfa: x29 32 + x19: .cfa -8 + ^ x20: .cfa -16 + ^ .ra: .cfa -24 + ^ x29: .cfa -32 + ^
STACK CFI 4d954 .cfa: sp 32 +
STACK CFI 4d95c .cfa: sp 0 +
STACK CFI 4d960 .cfa: x29 32 +
STACK CFI 4d97c .cfa: sp 32 +
STACK CFI 4d984 .cfa: sp 0 +
STACK CFI INIT 4d988 68 .cfa: sp 0 +
STACK CFI 4d98c .cfa: sp 32 +
STACK CFI 4d994 .cfa: x29 32 + x19: .cfa -8 + ^ x20: .cfa -16 + ^ .ra: .cfa -24 + ^ x29: .cfa -32 + ^
STACK CFI 4d9e4 .cfa: sp 32 +
STACK CFI 4d9ec .cfa: sp 0 +
STACK CFI INIT 4d9f0 5c .cfa: sp 0 +
STACK CFI 4d9f4 .cfa: sp 32 +
STACK CFI 4d9fc .cfa: x29 32 + x19: .cfa -8 + ^ x20: .cfa -16 + ^ .ra: .cfa -24 + ^ x29: .cfa -32 + ^
STACK CFI 4da40 .cfa: sp 32 +
STACK CFI 4da48 .cfa: sp 0 +
STACK CFI INIT 4da4c 90 .cfa: sp 0 +
STACK CFI 4da50 .cfa: sp 32 +
STACK CFI 4da58 .cfa: x29 32 + x19: .cfa -8 + ^ x20: .cfa -16 + ^ .ra: .cfa -24 + ^ x29: .cfa -32 + ^
STACK CFI 4da8c .cfa: sp 32 +
STACK CFI 4da94 .cfa: sp 0 +
STACK CFI 4da98 .cfa: x29 32 +
STACK CFI 4dad0 .cfa: sp 32 +
STACK CFI 4dad8 .cfa: sp 0 +
STACK CFI INIT 4dadc 90 .cfa: sp 0 +
STACK CFI 4dae0 .cfa: sp 32 +
STACK CFI 4dae8 .cfa: x29 32 + x19: .cfa -8 + ^ x20: .cfa -16 + ^ .ra: .cfa -24 + ^ x29: .cfa -32 + ^
STACK CFI 4db38 .cfa: sp 32 +
STACK CFI 4db40 .cfa: sp 0 +
STACK CFI 4db44 .cfa: x29 32 +
STACK CFI 4db60 .cfa: sp 32 +
STACK CFI 4db68 .cfa: sp 0 +
STACK CFI INIT 4dd20 1c .cfa: sp 0 +
STACK CFI INIT 4dd3c c .cfa: sp 0 +
STACK CFI INIT 4dd48 4 .cfa: sp 0 +
STACK CFI INIT 4df18 9c .cfa: sp 0 +
STACK CFI 4df1c .cfa: sp 32 +
STACK CFI 4df24 .cfa: x29 32 + x19: .cfa -8 + ^ x20: .cfa -16 + ^ .ra: .cfa -24 + ^ x29: .cfa -32 + ^
STACK CFI 4dfa8 .cfa: sp 32 +
STACK CFI 4dfb0 .cfa: sp 0 +
STACK CFI INIT 4dfb4 a4 .cfa: sp 0 +
STACK CFI 4dfb8 .cfa: sp 32 +
STACK CFI 4dfc0 .cfa: x29 32 + x19: .cfa -8 + ^ x20: .cfa -16 + ^ .ra: .cfa -24 + ^ x29: .cfa -32 + ^
STACK CFI 4e04c .cfa: sp 32 +
STACK CFI 4e054 .cfa: sp 0 +
STACK CFI INIT 4e058 50 .cfa: sp 0 +
STACK CFI 4e05c .cfa: sp 32 +
STACK CFI 4e064 .cfa: x29 32 + x19: .cfa -16 + ^ .ra: .cfa -24 + ^ x29: .cfa -32 + ^
STACK CFI 4e07c .cfa: sp 32 +
STACK CFI 4e084 .cfa: sp 0 +
STACK CFI 4e088 .cfa: x29 32 +
STACK CFI 4e09c .cfa: sp 32 +
STACK CFI 4e0a4 .cfa: sp 0 +
STACK CFI INIT 4e0a8 5c .cfa: sp 0 +
STACK CFI 4e0ac .cfa: sp 32 +
STACK CFI 4e0b4 .cfa: x29 32 + x19: .cfa -16 + ^ .ra: .cfa -24 + ^ x29: .cfa -32 + ^
STACK CFI 4e0d8 .cfa: sp 32 +
STACK CFI 4e0e0 .cfa: sp 0 +
STACK CFI 4e0e4 .cfa: x29 32 +
STACK CFI 4e0f8 .cfa: sp 32 +
STACK CFI 4e100 .cfa: sp 0 +
STACK CFI INIT 4e104 6c .cfa: sp 0 +
STACK CFI 4e108 .cfa: sp 32 +
STACK CFI 4e110 .cfa: x29 32 + x19: .cfa -8 + ^ x20: .cfa -16 + ^ .ra: .cfa -24 + ^ x29: .cfa -32 + ^
STACK CFI 4e13c .cfa: sp 32 +
STACK CFI 4e144 .cfa: sp 0 +
STACK CFI 4e148 .cfa: x29 32 +
STACK CFI 4e164 .cfa: sp 32 +
STACK CFI 4e16c .cfa: sp 0 +
STACK CFI INIT 4e170 58 .cfa: sp 0 +
STACK CFI 4e174 .cfa: sp 32 +
STACK CFI 4e17c .cfa: x29 32 + x19: .cfa -8 + ^ x20: .cfa -16 + ^ .ra: .cfa -24 + ^ x29: .cfa -32 + ^
STACK CFI 4e1bc .cfa: sp 32 +
STACK CFI 4e1c4 .cfa: sp 0 +
STACK CFI INIT 4e1c8 4c .cfa: sp 0 +
STACK CFI 4e1cc .cfa: sp 32 +
STACK CFI 4e1d4 .cfa: x29 32 + x19: .cfa -8 + ^ x20: .cfa -16 + ^ .ra: .cfa -24 + ^ x29: .cfa -32 + ^
STACK CFI 4e208 .cfa: sp 32 +
STACK CFI 4e210 .cfa: sp 0 +
STACK CFI INIT 4e214 50 .cfa: sp 0 +
STACK CFI 4e218 .cfa: sp 32 +
STACK CFI 4e220 .cfa: x29 32 + x19: .cfa -16 + ^ .ra: .cfa -24 + ^ x29: .cfa -32 + ^
STACK CFI 4e238 .cfa: sp 32 +
STACK CFI 4e240 .cfa: sp 0 +
STACK CFI 4e244 .cfa: x29 32 +
STACK CFI 4e258 .cfa: sp 32 +
STACK CFI 4e260 .cfa: sp 0 +
STACK CFI INIT 4e264 60 .cfa: sp 0 +
STACK CFI 4e268 .cfa: sp 32 +
STACK CFI 4e270 .cfa: x29 32 + x19: .cfa -8 + ^ x20: .cfa -16 + ^ .ra: .cfa -24 + ^ x29: .cfa -32 + ^
STACK CFI 4e290 .cfa: sp 32 +
STACK CFI 4e298 .cfa: sp 0 +
STACK CFI 4e29c .cfa: x29 32 +
STACK CFI 4e2b8 .cfa: sp 32 +
STACK CFI 4e2c0 .cfa: sp 0 +
STACK CFI INIT 4e494 1c .cfa: sp 0 +
STACK CFI INIT 4e4b0 c .cfa: sp 0 +
STACK CFI INIT 4e4bc 5c .cfa: sp 0 +
STACK CFI 4e4c0 .cfa: sp 32 +
STACK CFI 4e4c8 .cfa: x29 32 + x19: .cfa -16 + ^ .ra: .cfa -24 + ^ x29: .cfa -32 + ^
STACK CFI 4e4ec .cfa: sp 32 +
STACK CFI 4e4f4 .cfa: sp 0 +
STACK CFI 4e4f8 .cfa: x29 32 +
STACK CFI 4e50c .cfa: sp 32 +
STACK CFI 4e514 .cfa: sp 0 +
STACK CFI INIT 4e518 6c .cfa: sp 0 +
STACK CFI 4e51c .cfa: sp 32 +
STACK CFI 4e524 .cfa: x29 32 + x19: .cfa -8 + ^ x20: .cfa -16 + ^ .ra: .cfa -24 + ^ x29: .cfa -32 + ^
STACK CFI 4e550 .cfa: sp 32 +
STACK CFI 4e558 .cfa: sp 0 +
STACK CFI 4e55c .cfa: x29 32 +
STACK CFI 4e578 .cfa: sp 32 +
STACK CFI 4e580 .cfa: sp 0 +
STACK CFI INIT 4e584 58 .cfa: sp 0 +
STACK CFI 4e588 .cfa: sp 32 +
STACK CFI 4e590 .cfa: x29 32 + x19: .cfa -8 + ^ x20: .cfa -16 + ^ .ra: .cfa -24 + ^ x29: .cfa -32 + ^
STACK CFI 4e5d0 .cfa: sp 32 +
STACK CFI 4e5d8 .cfa: sp 0 +
STACK CFI INIT 4e5dc 4c .cfa: sp 0 +
STACK CFI 4e5e0 .cfa: sp 32 +
STACK CFI 4e5e8 .cfa: x29 32 + x19: .cfa -8 + ^ x20: .cfa -16 + ^ .ra: .cfa -24 + ^ x29: .cfa -32 + ^
STACK CFI 4e61c .cfa: sp 32 +
STACK CFI 4e624 .cfa: sp 0 +
STACK CFI INIT 4e628 50 .cfa: sp 0 +
STACK CFI 4e62c .cfa: sp 32 +
STACK CFI 4e634 .cfa: x29 32 + x19: .cfa -16 + ^ .ra: .cfa -24 + ^ x29: .cfa -32 + ^
STACK CFI 4e64c .cfa: sp 32 +
STACK CFI 4e654 .cfa: sp 0 +
STACK CFI 4e658 .cfa: x29 32 +
STACK CFI 4e66c .cfa: sp 32 +
STACK CFI 4e674 .cfa: sp 0 +
STACK CFI INIT 4e678 60 .cfa: sp 0 +
STACK CFI 4e67c .cfa: sp 32 +
STACK CFI 4e684 .cfa: x29 32 + x19: .cfa -8 + ^ x20: .cfa -16 + ^ .ra: .cfa -24 + ^ x29: .cfa -32 + ^
STACK CFI 4e6a4 .cfa: sp 32 +
STACK CFI 4e6ac .cfa: sp 0 +
STACK CFI 4e6b0 .cfa: x29 32 +
STACK CFI 4e6cc .cfa: sp 32 +
STACK CFI 4e6d4 .cfa: sp 0 +
STACK CFI INIT 4e89c 1c .cfa: sp 0 +
STACK CFI INIT 4e8b8 c .cfa: sp 0 +
STACK CFI INIT 4e8c4 14 .cfa: sp 0 +
STACK CFI INIT 4e9a4 4 .cfa: sp 0 +
STACK CFI INIT 4e9a8 28 .cfa: sp 0 +
STACK CFI 4e9b8 .cfa: sp 16 +
STACK CFI 4e9bc .cfa: x29 16 + .ra: .cfa -8 + ^ x29: .cfa -16 + ^
STACK CFI 4e9c8 .cfa: sp 16 +
STACK CFI 4e9cc .cfa: sp 0 +
STACK CFI INIT 4ece0 4 .cfa: sp 0 +
STACK CFI INIT 4fcbc 9c .cfa: sp 0 +
STACK CFI INIT 4b820 1c .cfa: sp 0 +
STACK CFI INIT 4fd58 a0 .cfa: sp 0 +
STACK CFI 4fd5c .cfa: sp 48 +
STACK CFI 4fd68 .cfa: x29 48 + x19: .cfa -8 + ^ x20: .cfa -16 + ^ x21: .cfa -32 + ^ .ra: .cfa -40 + ^ x29: .cfa -48 + ^
STACK CFI 4fd88 .cfa: sp 48 +
STACK CFI 4fd94 .cfa: sp 0 +
STACK CFI 4fd98 .cfa: x29 48 +
STACK CFI 4fdd8 .cfa: sp 48 +
STACK CFI 4fde4 .cfa: sp 0 +
STACK CFI 4fde8 .cfa: sp 48 +
STACK CFI 4fdf4 .cfa: sp 0 +
STACK CFI INIT 50280 1c .cfa: sp 0 +
STACK CFI INIT 50520 78 .cfa: sp 0 +
STACK CFI 50524 .cfa: sp 32 +
STACK CFI 5052c .cfa: x29 32 + x19: .cfa -8 + ^ x20: .cfa -16 + ^ .ra: .cfa -24 + ^ x29: .cfa -32 + ^
STACK CFI 50580 .cfa: sp 32 +
STACK CFI 50588 .cfa: sp 0 +
STACK CFI 5058c .cfa: sp 32 +
STACK CFI 50594 .cfa: sp 0 +
STACK CFI INIT 50598 14 .cfa: sp 0 +
STACK CFI 5059c .cfa: sp 16 +
STACK CFI 505a0 .cfa: x29 16 + .ra: .cfa -8 + ^ x29: .cfa -16 + ^
STACK CFI INIT 508bc 4 .cfa: sp 0 +
STACK CFI INIT 508c0 108 .cfa: sp 0 +
STACK CFI 508c4 .cfa: sp 80 +
STACK CFI 508d8 .cfa: x29 64 + x19: .cfa -8 + ^ x20: .cfa -16 + ^ x21: .cfa -24 + ^ x22: .cfa -32 + ^ x23: .cfa -40 + ^ x24: .cfa -48 + ^ .ra: .cfa -56 + ^ x29: .cfa -64 + ^
STACK CFI 50998 .cfa: sp 80 +
STACK CFI 509ac .cfa: sp 0 +
STACK CFI 509b0 .cfa: x29 64 +
STACK CFI INIT 50234 4c .cfa: sp 0 +
STACK CFI 50238 .cfa: sp 32 +
STACK CFI 50240 .cfa: x29 32 + x19: .cfa -8 + ^ x20: .cfa -16 + ^ .ra: .cfa -24 + ^ x29: .cfa -32 + ^
STACK CFI 50274 .cfa: sp 32 +
STACK CFI 5027c .cfa: sp 0 +
STACK CFI INIT 509c8 3c .cfa: sp 0 +
STACK CFI 509cc .cfa: sp 32 +
STACK CFI 509d4 .cfa: x29 32 + x19: .cfa -16 + ^ .ra: .cfa -24 + ^ x29: .cfa -32 + ^
STACK CFI 509e0 .cfa: sp 32 +
STACK CFI 509e8 .cfa: sp 0 +
STACK CFI 509ec .cfa: x29 32 +
STACK CFI 509f8 .cfa: sp 32 +
STACK CFI 50a00 .cfa: sp 0 +
STACK CFI INIT 50a04 4c .cfa: sp 0 +
STACK CFI 50a08 .cfa: sp 32 +
STACK CFI 50a10 .cfa: x29 32 + x19: .cfa -8 + ^ x20: .cfa -16 + ^ .ra: .cfa -24 + ^ x29: .cfa -32 + ^
STACK CFI 50a38 .cfa: sp 32 +
STACK CFI 50a40 .cfa: sp 0 +
STACK CFI 50a44 .cfa: sp 32 +
STACK CFI 50a4c .cfa: sp 0 +
STACK CFI INIT 50c70 64 .cfa: sp 0 +
STACK CFI 50c74 .cfa: sp 32 +
STACK CFI 50c7c .cfa: x29 32 + x19: .cfa -16 + ^ .ra: .cfa -24 + ^ x29: .cfa -32 + ^
STACK CFI 50ca8 .cfa: sp 32 +
STACK CFI 50cb0 .cfa: sp 0 +
STACK CFI 50cb4 .cfa: x29 32 +
STACK CFI 50cc8 .cfa: sp 32 +
STACK CFI 50cd0 .cfa: sp 0 +
STACK CFI INIT 50edc 24 .cfa: sp 0 +
STACK CFI 50ee0 .cfa: sp 32 +
STACK CFI 50ee8 .cfa: x29 32 + x19: .cfa -16 + ^ .ra: .cfa -24 + ^ x29: .cfa -32 + ^
STACK CFI 50ef4 .cfa: sp 32 +
STACK CFI 50efc .cfa: sp 0 +
STACK CFI INIT 50f00 24 .cfa: sp 0 +
STACK CFI 50f04 .cfa: sp 32 +
STACK CFI 50f0c .cfa: x29 32 + x19: .cfa -16 + ^ .ra: .cfa -24 + ^ x29: .cfa -32 + ^
STACK CFI 50f18 .cfa: sp 32 +
STACK CFI 50f20 .cfa: sp 0 +
STACK CFI INIT 50f24 8 .cfa: sp 0 +
STACK CFI INIT 50f2c 24 .cfa: sp 0 +
STACK CFI 50f30 .cfa: sp 32 +
STACK CFI 50f38 .cfa: x29 32 + x19: .cfa -16 + ^ .ra: .cfa -24 + ^ x29: .cfa -32 + ^
STACK CFI 50f44 .cfa: sp 32 +
STACK CFI 50f4c .cfa: sp 0 +
STACK CFI INIT 50f50 28 .cfa: sp 0 +
STACK CFI 50f54 .cfa: sp 32 +
STACK CFI 50f5c .cfa: x29 32 + x19: .cfa -16 + ^ .ra: .cfa -24 + ^ x29: .cfa -32 + ^
STACK CFI 50f6c .cfa: sp 32 +
STACK CFI 50f74 .cfa: sp 0 +
STACK CFI INIT 51250 8 .cfa: sp 0 +
STACK CFI INIT 51258 24 .cfa: sp 0 +
STACK CFI 5125c .cfa: sp 32 +
STACK CFI 51264 .cfa: x29 32 + x19: .cfa -16 + ^ .ra: .cfa -24 + ^ x29: .cfa -32 + ^
STACK CFI 51270 .cfa: sp 32 +
STACK CFI 51278 .cfa: sp 0 +
STACK CFI INIT 5127c 28 .cfa: sp 0 +
STACK CFI 51280 .cfa: sp 32 +
STACK CFI 51288 .cfa: x29 32 + x19: .cfa -16 + ^ .ra: .cfa -24 + ^ x29: .cfa -32 + ^
STACK CFI 51298 .cfa: sp 32 +
STACK CFI 512a0 .cfa: sp 0 +
STACK CFI INIT 512a4 8 .cfa: sp 0 +
STACK CFI INIT 512ac 24 .cfa: sp 0 +
STACK CFI 512b0 .cfa: sp 32 +
STACK CFI 512b8 .cfa: x29 32 + x19: .cfa -16 + ^ .ra: .cfa -24 + ^ x29: .cfa -32 + ^
STACK CFI 512c4 .cfa: sp 32 +
STACK CFI 512cc .cfa: sp 0 +
STACK CFI INIT 512d0 28 .cfa: sp 0 +
STACK CFI 512d4 .cfa: sp 32 +
STACK CFI 512dc .cfa: x29 32 + x19: .cfa -16 + ^ .ra: .cfa -24 + ^ x29: .cfa -32 + ^
STACK CFI 512ec .cfa: sp 32 +
STACK CFI 512f4 .cfa: sp 0 +
STACK CFI INIT 51dfc 4 .cfa: sp 0 +
STACK CFI INIT 51e00 4 .cfa: sp 0 +
STACK CFI INIT 52d98 8 .cfa: sp 0 +
STACK CFI INIT 52da0 24 .cfa: sp 0 +
STACK CFI 52da4 .cfa: sp 32 +
STACK CFI 52dac .cfa: x29 32 + x19: .cfa -16 + ^ .ra: .cfa -24 + ^ x29: .cfa -32 + ^
STACK CFI 52db8 .cfa: sp 32 +
STACK CFI 52dc0 .cfa: sp 0 +
STACK CFI INIT 52dc4 28 .cfa: sp 0 +
STACK CFI 52dc8 .cfa: sp 32 +
STACK CFI 52dd0 .cfa: x29 32 + x19: .cfa -16 + ^ .ra: .cfa -24 + ^ x29: .cfa -32 + ^
STACK CFI 52de0 .cfa: sp 32 +
STACK CFI 52de8 .cfa: sp 0 +
STACK CFI INIT 53404 8 .cfa: sp 0 +
STACK CFI INIT 53b34 8 .cfa: sp 0 +
STACK CFI INIT 53f6c 8 .cfa: sp 0 +
STACK CFI INIT 541c8 4 .cfa: sp 0 +
STACK CFI INIT 541cc 8 .cfa: sp 0 +
STACK CFI INIT 541d4 8 .cfa: sp 0 +
STACK CFI INIT 541dc 4 .cfa: sp 0 +
STACK CFI INIT 555fc 8 .cfa: sp 0 +
STACK CFI INIT 55604 24 .cfa: sp 0 +
STACK CFI 55608 .cfa: sp 32 +
STACK CFI 55610 .cfa: x29 32 + x19: .cfa -16 + ^ .ra: .cfa -24 + ^ x29: .cfa -32 + ^
STACK CFI 5561c .cfa: sp 32 +
STACK CFI 55624 .cfa: sp 0 +
STACK CFI INIT 55628 28 .cfa: sp 0 +
STACK CFI 5562c .cfa: sp 32 +
STACK CFI 55634 .cfa: x29 32 + x19: .cfa -16 + ^ .ra: .cfa -24 + ^ x29: .cfa -32 + ^
STACK CFI 55644 .cfa: sp 32 +
STACK CFI 5564c .cfa: sp 0 +
STACK CFI INIT 55650 8 .cfa: sp 0 +
STACK CFI INIT 55658 8 .cfa: sp 0 +
STACK CFI INIT 55660 4 .cfa: sp 0 +
STACK CFI INIT 55664 4 .cfa: sp 0 +
STACK CFI INIT 55668 4 .cfa: sp 0 +
STACK CFI INIT 5566c 4 .cfa: sp 0 +
STACK CFI INIT 55670 4 .cfa: sp 0 +
STACK CFI INIT 55674 4 .cfa: sp 0 +
STACK CFI INIT 558f8 8 .cfa: sp 0 +
STACK CFI INIT 55b80 8 .cfa: sp 0 +
STACK CFI INIT 55e08 8 .cfa: sp 0 +
STACK CFI INIT 55e10 4 .cfa: sp 0 +
STACK CFI INIT 55e14 4 .cfa: sp 0 +
STACK CFI INIT 55e18 8 .cfa: sp 0 +
STACK CFI INIT 55e20 4 .cfa: sp 0 +
STACK CFI INIT 55e24 8 .cfa: sp 0 +
STACK CFI INIT 560e8 24 .cfa: sp 0 +
STACK CFI 560ec .cfa: sp 32 +
STACK CFI 560f4 .cfa: x29 32 + x19: .cfa -16 + ^ .ra: .cfa -24 + ^ x29: .cfa -32 + ^
STACK CFI 56100 .cfa: sp 32 +
STACK CFI 56108 .cfa: sp 0 +
STACK CFI INIT 56c6c 4 .cfa: sp 0 +
STACK CFI INIT 56c70 14 .cfa: sp 0 +
STACK CFI INIT 57164 c .cfa: sp 0 +
STACK CFI INIT 57170 24c .cfa: sp 0 +
STACK CFI INIT 573bc a0 .cfa: sp 0 +
STACK CFI 573c8 .cfa: sp 32 +
STACK CFI 57420 .cfa: sp 0 +
STACK CFI 57424 .cfa: sp 32 +
STACK CFI 5742c .cfa: sp 0 +
STACK CFI 57430 .cfa: sp 32 +
STACK CFI 57444 .cfa: sp 0 +
STACK CFI 57448 .cfa: sp 32 +
STACK CFI 57458 .cfa: sp 0 +
STACK CFI INIT 5745c 38 .cfa: sp 0 +
STACK CFI 57468 .cfa: sp 32 +
STACK CFI 57490 .cfa: sp 0 +
STACK CFI INIT 57728 7c .cfa: sp 0 +
STACK CFI 5772c .cfa: sp 32 +
STACK CFI 57734 .cfa: x29 32 + x19: .cfa -16 + ^ .ra: .cfa -24 + ^ x29: .cfa -32 + ^
STACK CFI 57760 .cfa: sp 32 +
STACK CFI 57768 .cfa: sp 0 +
STACK CFI 5776c .cfa: x29 32 +
STACK CFI 57798 .cfa: sp 32 +
STACK CFI 577a0 .cfa: sp 0 +
STACK CFI INIT 577f4 2c .cfa: sp 0 +
STACK CFI 577f8 .cfa: sp 32 +
STACK CFI 57800 .cfa: x29 32 + x19: .cfa -16 + ^ .ra: .cfa -24 + ^ x29: .cfa -32 + ^
STACK CFI 57814 .cfa: sp 32 +
STACK CFI 5781c .cfa: sp 0 +
STACK CFI INIT 57fe0 64 .cfa: sp 0 +
STACK CFI 57fe4 .cfa: sp 32 +
STACK CFI 57fec .cfa: x29 32 + x19: .cfa -16 + ^ .ra: .cfa -24 + ^ x29: .cfa -32 + ^
STACK CFI 58008 .cfa: sp 32 +
STACK CFI 58010 .cfa: sp 0 +
STACK CFI 58014 .cfa: x29 32 +
STACK CFI 58038 .cfa: sp 32 +
STACK CFI 58040 .cfa: sp 0 +
STACK CFI INIT 58044 570 .cfa: sp 0 +
STACK CFI 58048 .cfa: sp 176 +
STACK CFI 5805c .cfa: x29 64 + x19: .cfa -8 + ^ x20: .cfa -16 + ^ x21: .cfa -24 + ^ x22: .cfa -32 + ^ x23: .cfa -40 + ^ x24: .cfa -48 + ^ .ra: .cfa -56 + ^ x29: .cfa -64 + ^
STACK CFI 5828c .cfa: sp 176 +
STACK CFI 582a0 .cfa: sp 0 +
STACK CFI 582a4 .cfa: x29 64 +
STACK CFI 582f0 .cfa: sp 176 +
STACK CFI 58304 .cfa: sp 0 +
STACK CFI 58308 .cfa: x29 64 +
STACK CFI 58340 .cfa: sp 176 +
STACK CFI 58354 .cfa: sp 0 +
STACK CFI 58358 .cfa: x29 64 +
STACK CFI 58370 .cfa: sp 176 +
STACK CFI 58384 .cfa: sp 0 +
STACK CFI 58388 .cfa: x29 64 +
STACK CFI 583a8 .cfa: sp 176 +
STACK CFI 583bc .cfa: sp 0 +
STACK CFI 583c0 .cfa: x29 64 +
STACK CFI 583d8 .cfa: sp 176 +
STACK CFI 583ec .cfa: sp 0 +
STACK CFI 583f0 .cfa: x29 64 +
STACK CFI 58404 .cfa: sp 176 +
STACK CFI 58418 .cfa: sp 0 +
STACK CFI 5841c .cfa: x29 64 +
STACK CFI 58430 .cfa: sp 176 +
STACK CFI 58444 .cfa: sp 0 +
STACK CFI 58448 .cfa: x29 64 +
STACK CFI 58458 .cfa: sp 176 +
STACK CFI 5846c .cfa: sp 0 +
STACK CFI 58470 .cfa: x29 64 +
STACK CFI 58480 .cfa: sp 176 +
STACK CFI 58494 .cfa: sp 0 +
STACK CFI 58498 .cfa: x29 64 +
STACK CFI 584b0 .cfa: sp 176 +
STACK CFI 584c4 .cfa: sp 0 +
STACK CFI 584c8 .cfa: x29 64 +
STACK CFI 584dc .cfa: sp 176 +
STACK CFI 584f0 .cfa: sp 0 +
STACK CFI 584f4 .cfa: x29 64 +
STACK CFI 5850c .cfa: sp 176 +
STACK CFI 58520 .cfa: sp 0 +
STACK CFI 58524 .cfa: x29 64 +
STACK CFI 58550 .cfa: sp 176 +
STACK CFI 58564 .cfa: sp 0 +
STACK CFI 58568 .cfa: x29 64 +
STACK CFI 5857c .cfa: sp 176 +
STACK CFI 58590 .cfa: sp 0 +
STACK CFI 58594 .cfa: x29 64 +
STACK CFI INIT 585b4 228 .cfa: sp 0 +
STACK CFI INIT 587dc 2dc .cfa: sp 0 +
STACK CFI INIT 58ab8 53c .cfa: sp 0 +
STACK CFI INIT 58ff4 8c .cfa: sp 0 +
STACK CFI 58ff8 .cfa: sp 32 +
STACK CFI 59000 .cfa: x29 32 + x19: .cfa -16 + ^ .ra: .cfa -24 + ^ x29: .cfa -32 + ^
STACK CFI 59034 .cfa: sp 32 +
STACK CFI 5903c .cfa: sp 0 +
STACK CFI 59040 .cfa: x29 32 +
STACK CFI 59074 .cfa: sp 32 +
STACK CFI 5907c .cfa: sp 0 +
STACK CFI INIT 59080 24 .cfa: sp 0 +
STACK CFI 59084 .cfa: sp 32 +
STACK CFI 5908c .cfa: x29 32 + x19: .cfa -16 + ^ .ra: .cfa -24 + ^ x29: .cfa -32 + ^
STACK CFI 59098 .cfa: sp 32 +
STACK CFI 590a0 .cfa: sp 0 +
STACK CFI INIT 590a4 150 .cfa: sp 0 +
STACK CFI 590a8 .cfa: sp 48 +
STACK CFI 590b4 .cfa: x29 48 + x19: .cfa -8 + ^ x20: .cfa -16 + ^ x21: .cfa -24 + ^ x22: .cfa -32 + ^ .ra: .cfa -40 + ^ x29: .cfa -48 + ^
STACK CFI 591e4 .cfa: sp 48 +
STACK CFI 591f0 .cfa: sp 0 +
STACK CFI INIT 591f4 68 .cfa: sp 0 +
STACK CFI 591f8 .cfa: sp 64 +
STACK CFI 59204 .cfa: x29 32 + x19: .cfa -16 + ^ .ra: .cfa -24 + ^ x29: .cfa -32 + ^
STACK CFI 59248 .cfa: sp 64 +
STACK CFI 59254 .cfa: sp 0 +
STACK CFI 59258 .cfa: x29 32 +
STACK CFI INIT 5925c 90 .cfa: sp 0 +
STACK CFI 59260 .cfa: sp 32 +
STACK CFI 59268 .cfa: x29 32 + x19: .cfa -8 + ^ x20: .cfa -16 + ^ .ra: .cfa -24 + ^ x29: .cfa -32 + ^
STACK CFI 59294 .cfa: sp 32 +
STACK CFI 5929c .cfa: sp 0 +
STACK CFI 592a0 .cfa: x29 32 +
STACK CFI 592e0 .cfa: sp 32 +
STACK CFI 592e8 .cfa: sp 0 +
STACK CFI INIT 592ec ec .cfa: sp 0 +
STACK CFI 592f0 .cfa: sp 112 +
STACK CFI 59300 .cfa: x29 48 + x19: .cfa -8 + ^ x20: .cfa -16 + ^ x21: .cfa -32 + ^ .ra: .cfa -40 + ^ x29: .cfa -48 + ^
STACK CFI 593c0 .cfa: sp 112 +
STACK CFI 593d0 .cfa: sp 0 +
STACK CFI 593d4 .cfa: x29 48 +
STACK CFI INIT 593d8 ec .cfa: sp 0 +
STACK CFI 593dc .cfa: sp 112 +
STACK CFI 593ec .cfa: x29 48 + x19: .cfa -8 + ^ x20: .cfa -16 + ^ x21: .cfa -32 + ^ .ra: .cfa -40 + ^ x29: .cfa -48 + ^
STACK CFI 594ac .cfa: sp 112 +
STACK CFI 594bc .cfa: sp 0 +
STACK CFI 594c0 .cfa: x29 48 +
STACK CFI INIT 594c4 48 .cfa: sp 0 +
STACK CFI 594c8 .cfa: sp 32 +
STACK CFI 594d0 .cfa: x29 32 + x19: .cfa -8 + ^ x20: .cfa -16 + ^ .ra: .cfa -24 + ^ x29: .cfa -32 + ^
STACK CFI 594f4 .cfa: sp 32 +
STACK CFI 594fc .cfa: sp 0 +
STACK CFI 59500 .cfa: x29 32 +
STACK CFI INIT 5950c 98 .cfa: sp 0 +
STACK CFI 59510 .cfa: sp 80 +
STACK CFI 5951c .cfa: x29 32 + x19: .cfa -16 + ^ .ra: .cfa -24 + ^ x29: .cfa -32 + ^
STACK CFI 59590 .cfa: sp 80 +
STACK CFI 5959c .cfa: sp 0 +
STACK CFI 595a0 .cfa: x29 32 +
STACK CFI INIT 595a4 260 .cfa: sp 0 +
STACK CFI 595a8 .cfa: sp 112 +
STACK CFI 595c0 .cfa: x29 80 + x19: .cfa -8 + ^ x20: .cfa -16 + ^ x21: .cfa -24 + ^ x22: .cfa -32 + ^ x23: .cfa -40 + ^ x24: .cfa -48 + ^ x25: .cfa -64 + ^ .ra: .cfa -72 + ^ x29: .cfa -80 + ^
STACK CFI 597a4 .cfa: sp 112 +
STACK CFI 597bc .cfa: sp 0 +
STACK CFI 597c0 .cfa: x29 80 +
STACK CFI INIT 59804 150 .cfa: sp 0 +
STACK CFI 59808 .cfa: sp 48 +
STACK CFI 59814 .cfa: x29 48 + x19: .cfa -8 + ^ x20: .cfa -16 + ^ x21: .cfa -24 + ^ x22: .cfa -32 + ^ .ra: .cfa -40 + ^ x29: .cfa -48 + ^
STACK CFI 59944 .cfa: sp 48 +
STACK CFI 59950 .cfa: sp 0 +
STACK CFI INIT 59954 1e0 .cfa: sp 0 +
STACK CFI 59958 .cfa: sp 96 +
STACK CFI 5996c .cfa: x29 64 + x19: .cfa -8 + ^ x20: .cfa -16 + ^ x21: .cfa -24 + ^ x22: .cfa -32 + ^ x23: .cfa -40 + ^ x24: .cfa -48 + ^ .ra: .cfa -56 + ^ x29: .cfa -64 + ^
STACK CFI 59aec .cfa: sp 96 +
STACK CFI 59b00 .cfa: sp 0 +
STACK CFI 59b04 .cfa: x29 64 +
STACK CFI INIT 59b34 284 .cfa: sp 0 +
STACK CFI 59b38 .cfa: sp 112 +
STACK CFI 59b50 .cfa: x29 80 + x19: .cfa -8 + ^ x20: .cfa -16 + ^ x21: .cfa -24 + ^ x22: .cfa -32 + ^ x23: .cfa -40 + ^ x24: .cfa -48 + ^ x25: .cfa -64 + ^ .ra: .cfa -72 + ^ x29: .cfa -80 + ^
STACK CFI 59d58 .cfa: sp 112 +
STACK CFI 59d70 .cfa: sp 0 +
STACK CFI 59d74 .cfa: x29 80 +
STACK CFI INIT 59db8 208 .cfa: sp 0 +
STACK CFI 59dbc .cfa: sp 96 +
STACK CFI 59dd0 .cfa: x29 64 + x19: .cfa -8 + ^ x20: .cfa -16 + ^ x21: .cfa -24 + ^ x22: .cfa -32 + ^ x23: .cfa -40 + ^ x24: .cfa -48 + ^ .ra: .cfa -56 + ^ x29: .cfa -64 + ^
STACK CFI 59f78 .cfa: sp 96 +
STACK CFI 59f8c .cfa: sp 0 +
STACK CFI 59f90 .cfa: x29 64 +
STACK CFI INIT 59fc0 360 .cfa: sp 0 +
STACK CFI 59fc4 .cfa: sp 160 +
STACK CFI 59fe0 .cfa: x29 96 + x19: .cfa -8 + ^ x20: .cfa -16 + ^ x21: .cfa -24 + ^ x22: .cfa -32 + ^ x23: .cfa -40 + ^ x24: .cfa -48 + ^ x25: .cfa -56 + ^ x26: .cfa -64 + ^ x27: .cfa -72 + ^ x28: .cfa -80 + ^ .ra: .cfa -88 + ^ x29: .cfa -96 + ^
STACK CFI 5a2ac .cfa: sp 160 +
STACK CFI 5a2c8 .cfa: sp 0 +
STACK CFI 5a2cc .cfa: x29 96 +
STACK CFI INIT 5a320 314 .cfa: sp 0 +
STACK CFI 5a324 .cfa: sp 144 +
STACK CFI 5a340 .cfa: x29 96 + x19: .cfa -8 + ^ x20: .cfa -16 + ^ x21: .cfa -24 + ^ x22: .cfa -32 + ^ x23: .cfa -40 + ^ x24: .cfa -48 + ^ x25: .cfa -56 + ^ x26: .cfa -64 + ^ x27: .cfa -72 + ^ x28: .cfa -80 + ^ .ra: .cfa -88 + ^ x29: .cfa -96 + ^
STACK CFI 5a5bc .cfa: sp 144 +
STACK CFI 5a5d8 .cfa: sp 0 +
STACK CFI 5a5dc .cfa: x29 96 +
STACK CFI INIT 5a634 2b4 .cfa: sp 0 +
STACK CFI 5a638 .cfa: sp 128 +
STACK CFI 5a650 .cfa: x29 80 + x19: .cfa -8 + ^ x20: .cfa -16 + ^ x21: .cfa -24 + ^ x22: .cfa -32 + ^ x23: .cfa -40 + ^ x24: .cfa -48 + ^ x25: .cfa -56 + ^ x26: .cfa -64 + ^ .ra: .cfa -72 + ^ x29: .cfa -80 + ^
STACK CFI 5a844 .cfa: sp 128 +
STACK CFI 5a85c .cfa: sp 0 +
STACK CFI 5a860 .cfa: x29 80 +
STACK CFI 5a8c8 .cfa: sp 128 +
STACK CFI 5a8e0 .cfa: sp 0 +
STACK CFI 5a8e4 .cfa: x29 80 +
STACK CFI INIT 5a8e8 de0 .cfa: sp 0 +
STACK CFI 5a8ec .cfa: sp 144 +
STACK CFI 5a908 .cfa: x29 96 + x19: .cfa -8 + ^ x20: .cfa -16 + ^ x21: .cfa -24 + ^ x22: .cfa -32 + ^ x23: .cfa -40 + ^ x24: .cfa -48 + ^ x25: .cfa -56 + ^ x26: .cfa -64 + ^ x27: .cfa -72 + ^ x28: .cfa -80 + ^ .ra: .cfa -88 + ^ x29: .cfa -96 + ^
STACK CFI 5b5a0 .cfa: sp 144 +
STACK CFI 5b5bc .cfa: sp 0 +
STACK CFI 5b5c0 .cfa: x29 96 +
STACK CFI INIT 5b6c8 264 .cfa: sp 0 +
STACK CFI 5b6cc .cfa: sp 112 +
STACK CFI 5b6e0 .cfa: x29 64 + x19: .cfa -8 + ^ x20: .cfa -16 + ^ x21: .cfa -24 + ^ x22: .cfa -32 + ^ x23: .cfa -40 + ^ x24: .cfa -48 + ^ .ra: .cfa -56 + ^ x29: .cfa -64 + ^
STACK CFI 5b85c .cfa: sp 112 +
STACK CFI 5b870 .cfa: sp 0 +
STACK CFI 5b874 .cfa: x29 64 +
STACK CFI 5b8e4 .cfa: sp 112 +
STACK CFI 5b8f8 .cfa: sp 0 +
STACK CFI 5b8fc .cfa: x29 64 +
STACK CFI INIT 5b92c 258 .cfa: sp 0 +
STACK CFI 5b930 .cfa: sp 96 +
STACK CFI 5b948 .cfa: x29 96 + x19: .cfa -8 + ^ x20: .cfa -16 + ^ x21: .cfa -24 + ^ x22: .cfa -32 + ^ x23: .cfa -40 + ^ x24: .cfa -48 + ^ x25: .cfa -56 + ^ x26: .cfa -64 + ^ x27: .cfa -72 + ^ x28: .cfa -80 + ^ .ra: .cfa -88 + ^ x29: .cfa -96 + ^
STACK CFI 5bb40 .cfa: sp 96 +
STACK CFI 5bb58 .cfa: sp 0 +
STACK CFI 5bb5c .cfa: x29 96 +
STACK CFI 5bb68 .cfa: sp 96 +
STACK CFI 5bb80 .cfa: sp 0 +
STACK CFI INIT 5c808 154 .cfa: sp 0 +
STACK CFI 5c80c .cfa: sp 96 +
STACK CFI 5c820 .cfa: x29 64 + x19: .cfa -8 + ^ x20: .cfa -16 + ^ x21: .cfa -24 + ^ x22: .cfa -32 + ^ x23: .cfa -48 + ^ .ra: .cfa -56 + ^ x29: .cfa -64 + ^
STACK CFI 5c900 .cfa: sp 96 +
STACK CFI 5c914 .cfa: sp 0 +
STACK CFI 5c918 .cfa: x29 64 +
STACK CFI INIT 5cbc8 44 .cfa: sp 0 +
STACK CFI 5cbcc .cfa: sp 32 +
STACK CFI 5cbd4 .cfa: x29 32 + x19: .cfa -16 + ^ .ra: .cfa -24 + ^ x29: .cfa -32 + ^
STACK CFI 5cbf0 .cfa: sp 32 +
STACK CFI 5cbf8 .cfa: sp 0 +
STACK CFI 5cbfc .cfa: x29 32 +
STACK CFI 5cc00 .cfa: sp 32 +
STACK CFI 5cc08 .cfa: sp 0 +
STACK CFI INIT 5cc0c 1d0 .cfa: sp 0 +
STACK CFI 5cc10 .cfa: sp 64 +
STACK CFI 5cc20 .cfa: x29 64 + x19: .cfa -8 + ^ x20: .cfa -16 + ^ x21: .cfa -24 + ^ x22: .cfa -32 + ^ x23: .cfa -40 + ^ x24: .cfa -48 + ^ .ra: .cfa -56 + ^ x29: .cfa -64 + ^
STACK CFI 5cce0 .cfa: sp 64 +
STACK CFI 5ccf0 .cfa: sp 0 +
STACK CFI 5ccf4 .cfa: x29 64 +
STACK CFI INIT 5cddc 17c .cfa: sp 0 +
STACK CFI INIT 5d310 a0 .cfa: sp 0 +
STACK CFI 5d314 .cfa: sp 48 +
STACK CFI 5d320 .cfa: x29 48 + x19: .cfa -8 + ^ x20: .cfa -16 + ^ x21: .cfa -24 + ^ x22: .cfa -32 + ^ .ra: .cfa -40 + ^ x29: .cfa -48 + ^
STACK CFI 5d38c .cfa: sp 48 +
STACK CFI 5d398 .cfa: sp 0 +
STACK CFI 5d39c .cfa: sp 48 +
STACK CFI 5d3a8 .cfa: sp 0 +
STACK CFI 5d3ac .cfa: x29 48 +
STACK CFI INIT 5e070 158 .cfa: sp 0 +
STACK CFI 5e074 .cfa: sp 96 +
STACK CFI 5e088 .cfa: x29 64 + x19: .cfa -8 + ^ x20: .cfa -16 + ^ x21: .cfa -24 + ^ x22: .cfa -32 + ^ x23: .cfa -48 + ^ .ra: .cfa -56 + ^ x29: .cfa -64 + ^
STACK CFI 5e16c .cfa: sp 96 +
STACK CFI 5e180 .cfa: sp 0 +
STACK CFI 5e184 .cfa: x29 64 +
STACK CFI INIT 5e1c8 190 .cfa: sp 0 +
STACK CFI INIT 5ee50 1f4 .cfa: sp 0 +
STACK CFI 5ee54 .cfa: sp 80 +
STACK CFI 5ee68 .cfa: x29 80 + x19: .cfa -8 + ^ x20: .cfa -16 + ^ x21: .cfa -24 + ^ x22: .cfa -32 + ^ x23: .cfa -40 + ^ x24: .cfa -48 + ^ x25: .cfa -64 + ^ .ra: .cfa -72 + ^ x29: .cfa -80 + ^
STACK CFI 5f008 .cfa: sp 80 +
STACK CFI 5f01c .cfa: sp 0 +
STACK CFI 5f020 .cfa: x29 80 +
STACK CFI 5f02c .cfa: sp 80 +
STACK CFI 5f040 .cfa: sp 0 +
STACK CFI INIT 60474 124 .cfa: sp 0 +
STACK CFI 604a4 .cfa: sp 32 +
STACK CFI 604ac .cfa: x29 32 + x19: .cfa -8 + ^ x20: .cfa -16 + ^ .ra: .cfa -24 + ^ x29: .cfa -32 + ^
STACK CFI 6058c .cfa: sp 32 +
STACK CFI 60594 .cfa: sp 0 +
STACK CFI INIT 60cf4 320 .cfa: sp 0 +
STACK CFI 60cf8 .cfa: sp 64 +
STACK CFI 60d08 .cfa: x29 64 + x19: .cfa -8 + ^ x20: .cfa -16 + ^ x21: .cfa -24 + ^ x22: .cfa -32 + ^ x23: .cfa -40 + ^ x24: .cfa -48 + ^ .ra: .cfa -56 + ^ x29: .cfa -64 + ^
STACK CFI 60d84 .cfa: sp 64 +
STACK CFI 60d94 .cfa: sp 0 +
STACK CFI 60d98 .cfa: x29 64 +
STACK CFI 60f6c .cfa: sp 64 +
STACK CFI 60f7c .cfa: sp 0 +
STACK CFI 60f80 .cfa: x29 64 +
STACK CFI 60f90 .cfa: sp 64 +
STACK CFI 60fa0 .cfa: sp 0 +
STACK CFI 60fa4 .cfa: x29 64 +
STACK CFI INIT 61014 a0 .cfa: sp 0 +
STACK CFI 61018 .cfa: sp 48 +
STACK CFI 61024 .cfa: x29 48 + x19: .cfa -8 + ^ x20: .cfa -16 + ^ x21: .cfa -24 + ^ x22: .cfa -32 + ^ .ra: .cfa -40 + ^ x29: .cfa -48 + ^
STACK CFI 61090 .cfa: sp 48 +
STACK CFI 6109c .cfa: sp 0 +
STACK CFI 610a0 .cfa: sp 48 +
STACK CFI 610ac .cfa: sp 0 +
STACK CFI 610b0 .cfa: x29 48 +
STACK CFI INIT 61f94 160 .cfa: sp 0 +
STACK CFI 61f98 .cfa: sp 64 +
STACK CFI 61fa8 .cfa: x29 64 + x19: .cfa -8 + ^ x20: .cfa -16 + ^ x21: .cfa -24 + ^ x22: .cfa -32 + ^ x23: .cfa -48 + ^ .ra: .cfa -56 + ^ x29: .cfa -64 + ^
STACK CFI 620a0 .cfa: sp 64 +
STACK CFI 620b0 .cfa: sp 0 +
STACK CFI 620b4 .cfa: x29 64 +
STACK CFI INIT 620f4 214 .cfa: sp 0 +
STACK CFI 620f8 .cfa: sp 128 +
STACK CFI 62114 .cfa: x29 96 + x19: .cfa -8 + ^ x20: .cfa -16 + ^ x21: .cfa -24 + ^ x22: .cfa -32 + ^ x23: .cfa -40 + ^ x24: .cfa -48 + ^ x25: .cfa -56 + ^ x26: .cfa -64 + ^ x27: .cfa -80 + ^ .ra: .cfa -88 + ^ x29: .cfa -96 + ^
STACK CFI 62290 .cfa: sp 128 +
STACK CFI 622ac .cfa: sp 0 +
STACK CFI 622b0 .cfa: x29 96 +
STACK CFI INIT 637bc e60 .cfa: sp 0 +
STACK CFI 637c0 .cfa: sp 192 +
STACK CFI 637dc .cfa: x29 96 + x19: .cfa -8 + ^ x20: .cfa -16 + ^ x21: .cfa -24 + ^ x22: .cfa -32 + ^ x23: .cfa -40 + ^ x24: .cfa -48 + ^ x25: .cfa -56 + ^ x26: .cfa -64 + ^ x27: .cfa -72 + ^ x28: .cfa -80 + ^ .ra: .cfa -88 + ^ x29: .cfa -96 + ^
STACK CFI 64504 .cfa: sp 192 +
STACK CFI 64520 .cfa: sp 0 +
STACK CFI 64524 .cfa: x29 96 +
STACK CFI INIT 6461c 1090 .cfa: sp 0 +
STACK CFI 64620 .cfa: sp 288 +
STACK CFI 6463c .cfa: x29 96 + x19: .cfa -8 + ^ x20: .cfa -16 + ^ x21: .cfa -24 + ^ x22: .cfa -32 + ^ x23: .cfa -40 + ^ x24: .cfa -48 + ^ x25: .cfa -56 + ^ x26: .cfa -64 + ^ x27: .cfa -72 + ^ x28: .cfa -80 + ^ .ra: .cfa -88 + ^ x29: .cfa -96 + ^
STACK CFI 653f4 .cfa: sp 288 +
STACK CFI 65410 .cfa: sp 0 +
STACK CFI 65414 .cfa: x29 96 +
STACK CFI INIT 656ac 520 .cfa: sp 0 +
STACK CFI 656b0 .cfa: sp 144 +
STACK CFI 656cc .cfa: x29 96 + x19: .cfa -8 + ^ x20: .cfa -16 + ^ x21: .cfa -24 + ^ x22: .cfa -32 + ^ x23: .cfa -40 + ^ x24: .cfa -48 + ^ x25: .cfa -56 + ^ x26: .cfa -64 + ^ x27: .cfa -72 + ^ x28: .cfa -80 + ^ .ra: .cfa -88 + ^ x29: .cfa -96 + ^
STACK CFI 65ba8 .cfa: sp 144 +
STACK CFI 65bc4 .cfa: sp 0 +
STACK CFI 65bc8 .cfa: x29 96 +
STACK CFI INIT 2b5e0 14c .cfa: sp 0 +
STACK CFI 2b5e4 .cfa: sp 112 +
STACK CFI 2b5f4 .cfa: x29 48 + x19: .cfa -8 + ^ x20: .cfa -16 + ^ x21: .cfa -32 + ^ .ra: .cfa -40 + ^ x29: .cfa -48 + ^
STACK CFI 2b6b8 .cfa: sp 112 +
STACK CFI 2b6c8 .cfa: sp 0 +
STACK CFI 2b6cc .cfa: x29 48 +
STACK CFI INIT 2b770 13c .cfa: sp 0 +
STACK CFI 2b774 .cfa: sp 112 +
STACK CFI 2b784 .cfa: x29 48 + x19: .cfa -8 + ^ x20: .cfa -16 + ^ x21: .cfa -32 + ^ .ra: .cfa -40 + ^ x29: .cfa -48 + ^
STACK CFI 2b848 .cfa: sp 112 +
STACK CFI 2b858 .cfa: sp 0 +
STACK CFI 2b85c .cfa: x29 48 +
STACK CFI INIT 2b934 1ac .cfa: sp 0 +
STACK CFI 2b938 .cfa: sp 144 +
STACK CFI 2b948 .cfa: x29 48 + x19: .cfa -8 + ^ x20: .cfa -16 + ^ x21: .cfa -24 + ^ x22: .cfa -32 + ^ .ra: .cfa -40 + ^ x29: .cfa -48 + ^
STACK CFI 2ba54 .cfa: sp 144 +
STACK CFI 2ba64 .cfa: sp 0 +
STACK CFI 2ba68 .cfa: x29 48 +
STACK CFI INIT 2bbac 174 .cfa: sp 0 +
STACK CFI 2bbb0 .cfa: sp 112 +
STACK CFI 2bbc0 .cfa: x29 48 + x19: .cfa -8 + ^ x20: .cfa -16 + ^ x21: .cfa -32 + ^ .ra: .cfa -40 + ^ x29: .cfa -48 + ^
STACK CFI 2bcbc .cfa: sp 112 +
STACK CFI 2bccc .cfa: sp 0 +
STACK CFI 2bcd0 .cfa: x29 48 +
STACK CFI INIT 2bf74 12c .cfa: sp 0 +
STACK CFI 2bf78 .cfa: sp 80 +
STACK CFI 2bf88 .cfa: x29 48 + x19: .cfa -8 + ^ x20: .cfa -16 + ^ x21: .cfa -32 + ^ .ra: .cfa -40 + ^ x29: .cfa -48 + ^
STACK CFI 2c020 .cfa: sp 80 +
STACK CFI 2c030 .cfa: sp 0 +
STACK CFI 2c034 .cfa: x29 48 +
STACK CFI INIT 2c7c0 3c8 .cfa: sp 0 +
STACK CFI 2c7c4 .cfa: sp 176 +
STACK CFI 2c7d8 .cfa: x29 64 + x19: .cfa -8 + ^ x20: .cfa -16 + ^ x21: .cfa -24 + ^ x22: .cfa -32 + ^ x23: .cfa -48 + ^ .ra: .cfa -56 + ^ x29: .cfa -64 + ^
STACK CFI 2cae0 .cfa: sp 176 +
STACK CFI 2caf4 .cfa: sp 0 +
STACK CFI 2caf8 .cfa: x29 64 +
STACK CFI INIT 2cc80 240 .cfa: sp 0 +
STACK CFI 2cc84 .cfa: sp 144 +
STACK CFI 2cc94 .cfa: x29 48 + x19: .cfa -8 + ^ x20: .cfa -16 + ^ x21: .cfa -32 + ^ .ra: .cfa -40 + ^ x29: .cfa -48 + ^
STACK CFI 2cdec .cfa: sp 144 +
STACK CFI 2cdfc .cfa: sp 0 +
STACK CFI 2ce00 .cfa: x29 48 +
STACK CFI INIT 2d178 50 .cfa: sp 0 +
STACK CFI 2d17c .cfa: sp 32 +
STACK CFI 2d184 .cfa: x29 32 + x19: .cfa -8 + ^ x20: .cfa -16 + ^ .ra: .cfa -24 + ^ x29: .cfa -32 + ^
STACK CFI INIT 2d1f8 304 .cfa: sp 0 +
STACK CFI 2d1fc .cfa: sp 128 +
STACK CFI 2d218 .cfa: x29 96 + x19: .cfa -8 + ^ x20: .cfa -16 + ^ x21: .cfa -24 + ^ x22: .cfa -32 + ^ x23: .cfa -40 + ^ x24: .cfa -48 + ^ x25: .cfa -56 + ^ x26: .cfa -64 + ^ x27: .cfa -72 + ^ x28: .cfa -80 + ^ .ra: .cfa -88 + ^ x29: .cfa -96 + ^
STACK CFI 2d47c .cfa: sp 128 +
STACK CFI 2d498 .cfa: sp 0 +
STACK CFI 2d49c .cfa: x29 96 +
STACK CFI INIT 2d57c ef0 .cfa: sp 0 +
STACK CFI 2d580 .cfa: sp 96 +
STACK CFI 2d598 .cfa: x29 96 + x19: .cfa -8 + ^ x20: .cfa -16 + ^ x21: .cfa -24 + ^ x22: .cfa -32 + ^ x23: .cfa -40 + ^ x24: .cfa -48 + ^ x25: .cfa -56 + ^ x26: .cfa -64 + ^ x27: .cfa -72 + ^ x28: .cfa -80 + ^ .ra: .cfa -88 + ^ x29: .cfa -96 + ^
STACK CFI 2e318 .cfa: sp 96 +
STACK CFI 2e330 .cfa: sp 0 +
STACK CFI 2e334 .cfa: x29 96 +
STACK CFI INIT 30c48 134 .cfa: sp 0 +
STACK CFI 30c4c .cfa: sp 80 +
STACK CFI 30c5c .cfa: x29 48 + x19: .cfa -8 + ^ x20: .cfa -16 + ^ x21: .cfa -24 + ^ x22: .cfa -32 + ^ .ra: .cfa -40 + ^ x29: .cfa -48 + ^
STACK CFI 30d60 .cfa: sp 80 +
STACK CFI 30d70 .cfa: sp 0 +
STACK CFI 30d74 .cfa: x29 48 +
STACK CFI INIT 30d7c 230 .cfa: sp 0 +
STACK CFI 30d80 .cfa: sp 128 +
STACK CFI 30d90 .cfa: x29 48 + x19: .cfa -8 + ^ x20: .cfa -16 + ^ x21: .cfa -32 + ^ .ra: .cfa -40 + ^ x29: .cfa -48 + ^
STACK CFI 30f04 .cfa: sp 128 +
STACK CFI 30f14 .cfa: sp 0 +
STACK CFI 30f18 .cfa: x29 48 +
STACK CFI INIT 31078 9f4 .cfa: sp 0 +
STACK CFI 3107c .cfa: sp 368 +
STACK CFI 31098 .cfa: x29 96 + x19: .cfa -8 + ^ x20: .cfa -16 + ^ x21: .cfa -24 + ^ x22: .cfa -32 + ^ x23: .cfa -40 + ^ x24: .cfa -48 + ^ x25: .cfa -56 + ^ x26: .cfa -64 + ^ x27: .cfa -72 + ^ x28: .cfa -80 + ^ .ra: .cfa -88 + ^ x29: .cfa -96 + ^
STACK CFI 318b0 .cfa: sp 368 +
STACK CFI 318cc .cfa: sp 0 +
STACK CFI 318d0 .cfa: x29 96 +
STACK CFI INIT 31a94 12c .cfa: sp 0 +
STACK CFI 31a98 .cfa: sp 80 +
STACK CFI 31aa8 .cfa: x29 48 + x19: .cfa -8 + ^ x20: .cfa -16 + ^ x21: .cfa -32 + ^ .ra: .cfa -40 + ^ x29: .cfa -48 + ^
STACK CFI 31b40 .cfa: sp 80 +
STACK CFI 31b50 .cfa: sp 0 +
STACK CFI 31b54 .cfa: x29 48 +
STACK CFI INIT 31d78 fc .cfa: sp 0 +
STACK CFI 31d7c .cfa: sp 48 +
STACK CFI 31d88 .cfa: x29 48 + x19: .cfa -8 + ^ x20: .cfa -16 + ^ x21: .cfa -24 + ^ x22: .cfa -32 + ^ .ra: .cfa -40 + ^ x29: .cfa -48 + ^
STACK CFI 31e20 .cfa: sp 48 +
STACK CFI 31e2c .cfa: sp 0 +
STACK CFI 31e30 .cfa: x29 48 +
STACK CFI 31e38 .cfa: sp 48 +
STACK CFI 31e44 .cfa: sp 0 +
STACK CFI 31e48 .cfa: x29 48 +
STACK CFI INIT 31e74 1c .cfa: sp 0 +
STACK CFI 31e78 .cfa: sp 16 +
STACK CFI 31e7c .cfa: x29 16 + .ra: .cfa -8 + ^ x29: .cfa -16 + ^
STACK CFI 31e84 .cfa: sp 16 +
STACK CFI 31e88 .cfa: sp 0 +
STACK CFI 31e8c .cfa: x29 16 +
STACK CFI INIT 31e90 20 .cfa: sp 0 +
STACK CFI 31e94 .cfa: sp 16 +
STACK CFI 31e98 .cfa: x29 16 + .ra: .cfa -8 + ^ x29: .cfa -16 + ^
STACK CFI 31ea4 .cfa: sp 16 +
STACK CFI 31ea8 .cfa: sp 0 +
STACK CFI 31eac .cfa: x29 16 +
STACK CFI INIT 31eb0 104 .cfa: sp 0 +
STACK CFI 31eb4 .cfa: sp 64 +
STACK CFI 31ec0 .cfa: x29 32 + x19: .cfa -8 + ^ x20: .cfa -16 + ^ .ra: .cfa -24 + ^ x29: .cfa -32 + ^
STACK CFI 31f2c .cfa: sp 64 +
STACK CFI 31f38 .cfa: sp 0 +
STACK CFI 31f3c .cfa: x29 32 +
STACK CFI INIT 31fb4 14c .cfa: sp 0 +
STACK CFI 31fb8 .cfa: sp 112 +
STACK CFI 31fc8 .cfa: x29 48 + x19: .cfa -8 + ^ x20: .cfa -16 + ^ x21: .cfa -32 + ^ .ra: .cfa -40 + ^ x29: .cfa -48 + ^
STACK CFI 3208c .cfa: sp 112 +
STACK CFI 3209c .cfa: sp 0 +
STACK CFI 320a0 .cfa: x29 48 +
STACK CFI INIT 32100 148 .cfa: sp 0 +
STACK CFI 32104 .cfa: sp 128 +
STACK CFI 32114 .cfa: x29 48 + x19: .cfa -8 + ^ x20: .cfa -16 + ^ x21: .cfa -32 + ^ .ra: .cfa -40 + ^ x29: .cfa -48 + ^
STACK CFI 321d4 .cfa: sp 128 +
STACK CFI 321e4 .cfa: sp 0 +
STACK CFI 321e8 .cfa: x29 48 +
STACK CFI INIT 322d8 2b8 .cfa: sp 0 +
STACK CFI 322dc .cfa: sp 224 +
STACK CFI 322f0 .cfa: x29 64 + x19: .cfa -8 + ^ x20: .cfa -16 + ^ x21: .cfa -24 + ^ x22: .cfa -32 + ^ x23: .cfa -48 + ^ .ra: .cfa -56 + ^ x29: .cfa -64 + ^
STACK CFI 324b0 .cfa: sp 224 +
STACK CFI 324c4 .cfa: sp 0 +
STACK CFI 324c8 .cfa: x29 64 +
STACK CFI INIT 32608 204 .cfa: sp 0 +
STACK CFI 3260c .cfa: sp 128 +
STACK CFI 32620 .cfa: x29 64 + x19: .cfa -8 + ^ x20: .cfa -16 + ^ x21: .cfa -24 + ^ x22: .cfa -32 + ^ x23: .cfa -40 + ^ x24: .cfa -48 + ^ .ra: .cfa -56 + ^ x29: .cfa -64 + ^
STACK CFI 32744 .cfa: sp 128 +
STACK CFI 32758 .cfa: sp 0 +
STACK CFI 3275c .cfa: x29 64 +
STACK CFI INIT 32810 1cc .cfa: sp 0 +
STACK CFI 32814 .cfa: sp 128 +
STACK CFI 32824 .cfa: x29 48 + x19: .cfa -8 + ^ x20: .cfa -16 + ^ x21: .cfa -32 + ^ .ra: .cfa -40 + ^ x29: .cfa -48 + ^
STACK CFI 32960 .cfa: sp 128 +
STACK CFI 32970 .cfa: sp 0 +
STACK CFI 32974 .cfa: x29 48 +
STACK CFI INIT 32dd8 1d0 .cfa: sp 0 +
STACK CFI 32ddc .cfa: sp 128 +
STACK CFI 32df0 .cfa: x29 64 + x19: .cfa -8 + ^ x20: .cfa -16 + ^ x21: .cfa -24 + ^ x22: .cfa -32 + ^ x23: .cfa -48 + ^ .ra: .cfa -56 + ^ x29: .cfa -64 + ^
STACK CFI 32f68 .cfa: sp 128 +
STACK CFI 32f7c .cfa: sp 0 +
STACK CFI 32f80 .cfa: x29 64 +
STACK CFI INIT 332bc 1c4 .cfa: sp 0 +
STACK CFI 332c0 .cfa: sp 112 +
STACK CFI 332d0 .cfa: x29 48 + x19: .cfa -8 + ^ x20: .cfa -16 + ^ x21: .cfa -24 + ^ x22: .cfa -32 + ^ .ra: .cfa -40 + ^ x29: .cfa -48 + ^
STACK CFI 33444 .cfa: sp 112 +
STACK CFI 33454 .cfa: sp 0 +
STACK CFI 33458 .cfa: x29 48 +
STACK CFI INIT 33500 198 .cfa: sp 0 +
STACK CFI 33504 .cfa: sp 96 +
STACK CFI 33514 .cfa: x29 48 + x19: .cfa -8 + ^ x20: .cfa -16 + ^ x21: .cfa -32 + ^ .ra: .cfa -40 + ^ x29: .cfa -48 + ^
STACK CFI 335f0 .cfa: sp 96 +
STACK CFI 33600 .cfa: sp 0 +
STACK CFI 33604 .cfa: x29 48 +
STACK CFI INIT 336f4 18c .cfa: sp 0 +
STACK CFI 336f8 .cfa: sp 112 +
STACK CFI 33708 .cfa: x29 48 + x19: .cfa -8 + ^ x20: .cfa -16 + ^ x21: .cfa -32 + ^ .ra: .cfa -40 + ^ x29: .cfa -48 + ^
STACK CFI 33804 .cfa: sp 112 +
STACK CFI 33814 .cfa: sp 0 +
STACK CFI 33818 .cfa: x29 48 +
STACK CFI INIT 339b0 480 .cfa: sp 0 +
STACK CFI 339b4 .cfa: sp 240 +
STACK CFI 339c4 .cfa: x29 48 + x19: .cfa -8 + ^ x20: .cfa -16 + ^ x21: .cfa -24 + ^ x22: .cfa -32 + ^ .ra: .cfa -40 + ^ x29: .cfa -48 + ^
STACK CFI 33d44 .cfa: sp 240 +
STACK CFI 33d54 .cfa: sp 0 +
STACK CFI 33d58 .cfa: x29 48 +
STACK CFI INIT 33e58 74 .cfa: sp 0 +
STACK CFI 33e5c .cfa: sp 48 +
STACK CFI 33e68 .cfa: x29 32 + x19: .cfa -8 + ^ x20: .cfa -16 + ^ .ra: .cfa -24 + ^ x29: .cfa -32 + ^
STACK CFI 33eb4 .cfa: sp 48 +
STACK CFI 33ec0 .cfa: sp 0 +
STACK CFI 33ec4 .cfa: x29 32 +
STACK CFI INIT 33f54 170 .cfa: sp 0 +
STACK CFI 33f58 .cfa: sp 128 +
STACK CFI 33f64 .cfa: x29 32 + x19: .cfa -8 + ^ x20: .cfa -16 + ^ .ra: .cfa -24 + ^ x29: .cfa -32 + ^
STACK CFI 3403c .cfa: sp 128 +
STACK CFI 34048 .cfa: sp 0 +
STACK CFI 3404c .cfa: x29 32 +
STACK CFI INIT 3412c 278 .cfa: sp 0 +
STACK CFI 34130 .cfa: sp 192 +
STACK CFI 34140 .cfa: x29 48 + x19: .cfa -8 + ^ x20: .cfa -16 + ^ x21: .cfa -32 + ^ .ra: .cfa -40 + ^ x29: .cfa -48 + ^
STACK CFI 34300 .cfa: sp 192 +
STACK CFI 34310 .cfa: sp 0 +
STACK CFI 34314 .cfa: x29 48 +
STACK CFI INIT 3440c 108 .cfa: sp 0 +
STACK CFI 34410 .cfa: sp 64 +
STACK CFI 3441c .cfa: x29 32 + x19: .cfa -8 + ^ x20: .cfa -16 + ^ .ra: .cfa -24 + ^ x29: .cfa -32 + ^
STACK CFI 3448c .cfa: sp 64 +
STACK CFI 34498 .cfa: sp 0 +
STACK CFI 3449c .cfa: x29 32 +
STACK CFI INIT 3453c 134 .cfa: sp 0 +
STACK CFI 34540 .cfa: sp 128 +
STACK CFI 34550 .cfa: x29 48 + x19: .cfa -8 + ^ x20: .cfa -16 + ^ x21: .cfa -32 + ^ .ra: .cfa -40 + ^ x29: .cfa -48 + ^
STACK CFI 345fc .cfa: sp 128 +
STACK CFI 3460c .cfa: sp 0 +
STACK CFI 34610 .cfa: x29 48 +
STACK CFI INIT 34700 39c .cfa: sp 0 +
STACK CFI 34704 .cfa: sp 224 +
STACK CFI 34718 .cfa: x29 64 + x19: .cfa -8 + ^ x20: .cfa -16 + ^ x21: .cfa -24 + ^ x22: .cfa -32 + ^ x23: .cfa -48 + ^ .ra: .cfa -56 + ^ x29: .cfa -64 + ^
STACK CFI 349a8 .cfa: sp 224 +
STACK CFI 349bc .cfa: sp 0 +
STACK CFI 349c0 .cfa: x29 64 +
STACK CFI INIT 34b24 168 .cfa: sp 0 +
STACK CFI 34b28 .cfa: sp 112 +
STACK CFI 34b38 .cfa: x29 48 + x19: .cfa -8 + ^ x20: .cfa -16 + ^ x21: .cfa -32 + ^ .ra: .cfa -40 + ^ x29: .cfa -48 + ^
STACK CFI 34c18 .cfa: sp 112 +
STACK CFI 34c28 .cfa: sp 0 +
STACK CFI 34c2c .cfa: x29 48 +
STACK CFI INIT 34e48 14c .cfa: sp 0 +
STACK CFI 34e4c .cfa: sp 80 +
STACK CFI 34e5c .cfa: x29 48 + x19: .cfa -8 + ^ x20: .cfa -16 + ^ x21: .cfa -32 + ^ .ra: .cfa -40 + ^ x29: .cfa -48 + ^
STACK CFI 34f14 .cfa: sp 80 +
STACK CFI 34f24 .cfa: sp 0 +
STACK CFI 34f28 .cfa: x29 48 +
STACK CFI INIT 34f94 760 .cfa: sp 0 +
STACK CFI 34f98 .cfa: sp 224 +
STACK CFI 34fb4 .cfa: x29 96 + x19: .cfa -8 + ^ x20: .cfa -16 + ^ x21: .cfa -24 + ^ x22: .cfa -32 + ^ x23: .cfa -40 + ^ x24: .cfa -48 + ^ x25: .cfa -56 + ^ x26: .cfa -64 + ^ x27: .cfa -72 + ^ x28: .cfa -80 + ^ .ra: .cfa -88 + ^ x29: .cfa -96 + ^
STACK CFI 35558 .cfa: sp 224 +
STACK CFI 35574 .cfa: sp 0 +
STACK CFI 35578 .cfa: x29 96 +
STACK CFI INIT 35710 7e0 .cfa: sp 0 +
STACK CFI 35714 .cfa: sp 288 +
STACK CFI 3572c .cfa: x29 80 + x19: .cfa -8 + ^ x20: .cfa -16 + ^ x21: .cfa -24 + ^ x22: .cfa -32 + ^ x23: .cfa -40 + ^ x24: .cfa -48 + ^ x25: .cfa -56 + ^ x28: .cfa -64 + ^ .ra: .cfa -72 + ^ x29: .cfa -80 + ^
STACK CFI 35ca4 .cfa: sp 288 +
STACK CFI 35cbc .cfa: sp 0 +
STACK CFI 35cc0 .cfa: x29 80 +
STACK CFI INIT 35f40 74 .cfa: sp 0 +
STACK CFI 35f44 .cfa: sp 48 +
STACK CFI 35f50 .cfa: x29 32 + x19: .cfa -8 + ^ x20: .cfa -16 + ^ .ra: .cfa -24 + ^ x29: .cfa -32 + ^
STACK CFI 35f9c .cfa: sp 48 +
STACK CFI 35fa8 .cfa: sp 0 +
STACK CFI 35fac .cfa: x29 32 +
STACK CFI INIT 363b4 154 .cfa: sp 0 +
STACK CFI 363b8 .cfa: sp 384 +
STACK CFI 363cc .cfa: x29 64 + x19: .cfa -8 + ^ x20: .cfa -16 + ^ x21: .cfa -24 + ^ x22: .cfa -32 + ^ x23: .cfa -40 + ^ x28: .cfa -48 + ^ .ra: .cfa -56 + ^ x29: .cfa -64 + ^
STACK CFI 364b0 .cfa: sp 384 +
STACK CFI 364c4 .cfa: sp 0 +
STACK CFI 364c8 .cfa: x29 64 +
STACK CFI INIT 36508 12c .cfa: sp 0 +
STACK CFI 3650c .cfa: sp 80 +
STACK CFI 36520 .cfa: x29 80 + x19: .cfa -8 + ^ x20: .cfa -16 + ^ x21: .cfa -24 + ^ x22: .cfa -32 + ^ x23: .cfa -40 + ^ x24: .cfa -48 + ^ x25: .cfa -56 + ^ x26: .cfa -64 + ^ .ra: .cfa -72 + ^ x29: .cfa -80 + ^
STACK CFI 365e8 .cfa: sp 80 +
STACK CFI 365fc .cfa: sp 0 +
STACK CFI 36600 .cfa: x29 80 +
STACK CFI INIT 366d8 1a4 .cfa: sp 0 +
STACK CFI 366dc .cfa: sp 112 +
STACK CFI 366f4 .cfa: x29 80 + x19: .cfa -8 + ^ x20: .cfa -16 + ^ x21: .cfa -24 + ^ x22: .cfa -32 + ^ x23: .cfa -40 + ^ x24: .cfa -48 + ^ x25: .cfa -56 + ^ x26: .cfa -64 + ^ .ra: .cfa -72 + ^ x29: .cfa -80 + ^
STACK CFI 367e4 .cfa: sp 112 +
STACK CFI 367fc .cfa: sp 0 +
STACK CFI 36800 .cfa: x29 80 +
STACK CFI INIT 3687c 1dc .cfa: sp 0 +
STACK CFI 36880 .cfa: sp 128 +
STACK CFI 3689c .cfa: x29 96 + x19: .cfa -8 + ^ x20: .cfa -16 + ^ x21: .cfa -24 + ^ x22: .cfa -32 + ^ x23: .cfa -40 + ^ x24: .cfa -48 + ^ x25: .cfa -56 + ^ x26: .cfa -64 + ^ x27: .cfa -80 + ^ .ra: .cfa -88 + ^ x29: .cfa -96 + ^
STACK CFI 36a08 .cfa: sp 128 +
STACK CFI 36a24 .cfa: sp 0 +
STACK CFI 36a28 .cfa: x29 96 +
STACK CFI INIT 36a58 178 .cfa: sp 0 +
STACK CFI 36a5c .cfa: sp 80 +
STACK CFI 36a70 .cfa: x29 80 + x19: .cfa -8 + ^ x20: .cfa -16 + ^ x21: .cfa -24 + ^ x22: .cfa -32 + ^ x23: .cfa -40 + ^ x24: .cfa -48 + ^ x25: .cfa -64 + ^ .ra: .cfa -72 + ^ x29: .cfa -80 + ^
STACK CFI 36b9c .cfa: sp 80 +
STACK CFI 36bb0 .cfa: sp 0 +
STACK CFI 36bb4 .cfa: x29 80 +
STACK CFI INIT 36d30 228 .cfa: sp 0 +
STACK CFI 36d34 .cfa: sp 128 +
STACK CFI 36d4c .cfa: x29 80 + x19: .cfa -8 + ^ x20: .cfa -16 + ^ x21: .cfa -24 + ^ x22: .cfa -32 + ^ x23: .cfa -40 + ^ x24: .cfa -48 + ^ x25: .cfa -64 + ^ .ra: .cfa -72 + ^ x29: .cfa -80 + ^
STACK CFI 36ee8 .cfa: sp 128 +
STACK CFI 36f00 .cfa: sp 0 +
STACK CFI 36f04 .cfa: x29 80 +
STACK CFI INIT 37558 184 .cfa: sp 0 +
STACK CFI 3755c .cfa: sp 160 +
STACK CFI 37574 .cfa: x29 80 + x19: .cfa -8 + ^ x20: .cfa -16 + ^ x21: .cfa -24 + ^ x22: .cfa -32 + ^ x23: .cfa -40 + ^ x24: .cfa -48 + ^ x25: .cfa -56 + ^ x26: .cfa -64 + ^ .ra: .cfa -72 + ^ x29: .cfa -80 + ^
STACK CFI 37674 .cfa: sp 160 +
STACK CFI 3768c .cfa: sp 0 +
STACK CFI 37690 .cfa: x29 80 +
STACK CFI INIT 37798 c8 .cfa: sp 0 +
STACK CFI 3779c .cfa: sp 32 +
STACK CFI 377a4 .cfa: x29 32 + x19: .cfa -8 + ^ x20: .cfa -16 + ^ .ra: .cfa -24 + ^ x29: .cfa -32 + ^
STACK CFI 377d8 .cfa: sp 32 +
STACK CFI 377e0 .cfa: sp 0 +
STACK CFI 377e4 .cfa: x29 32 +
STACK CFI 377e8 .cfa: sp 32 +
STACK CFI 377f0 .cfa: sp 0 +
STACK CFI 377f4 .cfa: x29 32 +
STACK CFI INIT 37860 fc .cfa: sp 0 +
STACK CFI 37864 .cfa: sp 32 +
STACK CFI 3786c .cfa: x29 32 + x19: .cfa -8 + ^ x20: .cfa -16 + ^ .ra: .cfa -24 + ^ x29: .cfa -32 + ^
STACK CFI 37920 .cfa: sp 32 +
STACK CFI 37928 .cfa: sp 0 +
STACK CFI 3792c .cfa: x29 32 +
STACK CFI INIT 37bb0 18c .cfa: sp 0 +
STACK CFI 37bb4 .cfa: sp 112 +
STACK CFI 37bc4 .cfa: x29 48 + x19: .cfa -8 + ^ x20: .cfa -16 + ^ x21: .cfa -32 + ^ .ra: .cfa -40 + ^ x29: .cfa -48 + ^
STACK CFI 37c94 .cfa: sp 112 +
STACK CFI 37ca4 .cfa: sp 0 +
STACK CFI 37ca8 .cfa: x29 48 +
STACK CFI INIT 37d3c 2b8 .cfa: sp 0 +
STACK CFI 37d40 .cfa: sp 160 +
STACK CFI 37d5c .cfa: x29 96 + x19: .cfa -8 + ^ x20: .cfa -16 + ^ x21: .cfa -24 + ^ x22: .cfa -32 + ^ x23: .cfa -40 + ^ x24: .cfa -48 + ^ x25: .cfa -56 + ^ x26: .cfa -64 + ^ x27: .cfa -72 + ^ x28: .cfa -80 + ^ .ra: .cfa -88 + ^ x29: .cfa -96 + ^
STACK CFI 37d94 .cfa: sp 160 +
STACK CFI 37db0 .cfa: sp 0 +
STACK CFI 37db4 .cfa: x29 96 +
STACK CFI INIT 37ff4 114 .cfa: sp 0 +
STACK CFI 37ff8 .cfa: sp 64 +
STACK CFI 38008 .cfa: x29 64 + x19: .cfa -8 + ^ x20: .cfa -16 + ^ x21: .cfa -24 + ^ x22: .cfa -32 + ^ x23: .cfa -48 + ^ .ra: .cfa -56 + ^ x29: .cfa -64 + ^
STACK CFI 380e4 .cfa: sp 64 +
STACK CFI 380f4 .cfa: sp 0 +
STACK CFI 380f8 .cfa: x29 64 +
STACK CFI INIT 38120 22c .cfa: sp 0 +
STACK CFI 38124 .cfa: sp 96 +
STACK CFI 3813c .cfa: x29 96 + x19: .cfa -8 + ^ x20: .cfa -16 + ^ x21: .cfa -24 + ^ x22: .cfa -32 + ^ x23: .cfa -40 + ^ x24: .cfa -48 + ^ x25: .cfa -56 + ^ x26: .cfa -64 + ^ x27: .cfa -80 + ^ .ra: .cfa -88 + ^ x29: .cfa -96 + ^
STACK CFI 382e0 .cfa: sp 96 +
STACK CFI 382f8 .cfa: sp 0 +
STACK CFI 382fc .cfa: x29 96 +
STACK CFI INIT 38374 50 .cfa: sp 0 +
STACK CFI 38378 .cfa: sp 32 +
STACK CFI 38380 .cfa: x29 32 + x19: .cfa -8 + ^ x20: .cfa -16 + ^ .ra: .cfa -24 + ^ x29: .cfa -32 + ^
STACK CFI INIT 38618 43c .cfa: sp 0 +
STACK CFI 3861c .cfa: sp 224 +
STACK CFI 38638 .cfa: x29 96 + x19: .cfa -8 + ^ x20: .cfa -16 + ^ x21: .cfa -24 + ^ x22: .cfa -32 + ^ x23: .cfa -40 + ^ x24: .cfa -48 + ^ x25: .cfa -56 + ^ x26: .cfa -64 + ^ x27: .cfa -72 + ^ x28: .cfa -80 + ^ .ra: .cfa -88 + ^ x29: .cfa -96 + ^
STACK CFI 3894c .cfa: sp 224 +
STACK CFI 38968 .cfa: sp 0 +
STACK CFI 3896c .cfa: x29 96 +
STACK CFI INIT 38a54 43c .cfa: sp 0 +
STACK CFI 38a58 .cfa: sp 224 +
STACK CFI 38a74 .cfa: x29 96 + x19: .cfa -8 + ^ x20: .cfa -16 + ^ x21: .cfa -24 + ^ x22: .cfa -32 + ^ x23: .cfa -40 + ^ x24: .cfa -48 + ^ x25: .cfa -56 + ^ x26: .cfa -64 + ^ x27: .cfa -72 + ^ x28: .cfa -80 + ^ .ra: .cfa -88 + ^ x29: .cfa -96 + ^
STACK CFI 38d88 .cfa: sp 224 +
STACK CFI 38da4 .cfa: sp 0 +
STACK CFI 38da8 .cfa: x29 96 +
STACK CFI INIT 38ec8 380 .cfa: sp 0 +
STACK CFI 38ecc .cfa: sp 240 +
STACK CFI 38ee0 .cfa: x29 64 + x19: .cfa -8 + ^ x20: .cfa -16 + ^ x21: .cfa -24 + ^ x22: .cfa -32 + ^ x23: .cfa -40 + ^ x24: .cfa -48 + ^ .ra: .cfa -56 + ^ x29: .cfa -64 + ^
STACK CFI 3911c .cfa: sp 240 +
STACK CFI 39130 .cfa: sp 0 +
STACK CFI 39134 .cfa: x29 64 +
STACK CFI INIT 3924c d0 .cfa: sp 0 +
STACK CFI 39250 .cfa: sp 64 +
STACK CFI 3925c .cfa: x29 32 + x19: .cfa -8 + ^ x20: .cfa -16 + ^ .ra: .cfa -24 + ^ x29: .cfa -32 + ^
STACK CFI 392dc .cfa: sp 64 +
STACK CFI 392e8 .cfa: sp 0 +
STACK CFI 392ec .cfa: x29 32 +
STACK CFI INIT 3931c 380 .cfa: sp 0 +
STACK CFI 39320 .cfa: sp 240 +
STACK CFI 39334 .cfa: x29 64 + x19: .cfa -8 + ^ x20: .cfa -16 + ^ x21: .cfa -24 + ^ x22: .cfa -32 + ^ x23: .cfa -40 + ^ x24: .cfa -48 + ^ .ra: .cfa -56 + ^ x29: .cfa -64 + ^
STACK CFI 39570 .cfa: sp 240 +
STACK CFI 39584 .cfa: sp 0 +
STACK CFI 39588 .cfa: x29 64 +
STACK CFI INIT 396a0 94 .cfa: sp 0 +
STACK CFI 396a4 .cfa: sp 64 +
STACK CFI 396b0 .cfa: x29 32 + x19: .cfa -8 + ^ x20: .cfa -16 + ^ .ra: .cfa -24 + ^ x29: .cfa -32 + ^
STACK CFI 396f4 .cfa: sp 64 +
STACK CFI 39700 .cfa: sp 0 +
STACK CFI 39704 .cfa: x29 32 +
STACK CFI INIT 39734 14c .cfa: sp 0 +
STACK CFI 39738 .cfa: sp 112 +
STACK CFI 39748 .cfa: x29 48 + x19: .cfa -8 + ^ x20: .cfa -16 + ^ x21: .cfa -32 + ^ .ra: .cfa -40 + ^ x29: .cfa -48 + ^
STACK CFI 3980c .cfa: sp 112 +
STACK CFI 3981c .cfa: sp 0 +
STACK CFI 39820 .cfa: x29 48 +
STACK CFI INIT 398c0 614 .cfa: sp 0 +
STACK CFI 398c4 .cfa: sp 272 +
STACK CFI 398e0 .cfa: x29 96 + x19: .cfa -8 + ^ x20: .cfa -16 + ^ x21: .cfa -24 + ^ x22: .cfa -32 + ^ x23: .cfa -40 + ^ x24: .cfa -48 + ^ x25: .cfa -56 + ^ x26: .cfa -64 + ^ x27: .cfa -72 + ^ x28: .cfa -80 + ^ .ra: .cfa -88 + ^ x29: .cfa -96 + ^
STACK CFI 39d7c .cfa: sp 272 +
STACK CFI 39d98 .cfa: sp 0 +
STACK CFI 39d9c .cfa: x29 96 +
STACK CFI INIT 39efc 8d0 .cfa: sp 0 +
STACK CFI 39f00 .cfa: sp 384 +
STACK CFI 39f1c .cfa: x29 96 + x19: .cfa -8 + ^ x20: .cfa -16 + ^ x21: .cfa -24 + ^ x22: .cfa -32 + ^ x23: .cfa -40 + ^ x24: .cfa -48 + ^ x25: .cfa -56 + ^ x26: .cfa -64 + ^ x27: .cfa -72 + ^ x28: .cfa -80 + ^ .ra: .cfa -88 + ^ x29: .cfa -96 + ^
STACK CFI 3a160 .cfa: sp 384 +
STACK CFI 3a17c .cfa: sp 0 +
STACK CFI 3a180 .cfa: x29 96 +
STACK CFI INIT 3a7cc 74 .cfa: sp 0 +
STACK CFI 3a7d0 .cfa: sp 48 +
STACK CFI 3a7dc .cfa: x29 32 + x19: .cfa -8 + ^ x20: .cfa -16 + ^ .ra: .cfa -24 + ^ x29: .cfa -32 + ^
STACK CFI 3a828 .cfa: sp 48 +
STACK CFI 3a834 .cfa: sp 0 +
STACK CFI 3a838 .cfa: x29 32 +
STACK CFI INIT 3a840 74 .cfa: sp 0 +
STACK CFI 3a844 .cfa: sp 48 +
STACK CFI 3a850 .cfa: x29 32 + x19: .cfa -8 + ^ x20: .cfa -16 + ^ .ra: .cfa -24 + ^ x29: .cfa -32 + ^
STACK CFI 3a89c .cfa: sp 48 +
STACK CFI 3a8a8 .cfa: sp 0 +
STACK CFI 3a8ac .cfa: x29 32 +
STACK CFI INIT 3a8c8 168 .cfa: sp 0 +
STACK CFI 3a8cc .cfa: sp 384 +
STACK CFI 3a8e0 .cfa: x29 64 + x19: .cfa -8 + ^ x20: .cfa -16 + ^ x21: .cfa -24 + ^ x22: .cfa -32 + ^ x23: .cfa -40 + ^ x28: .cfa -48 + ^ .ra: .cfa -56 + ^ x29: .cfa -64 + ^
STACK CFI 3a9d8 .cfa: sp 384 +
STACK CFI 3a9ec .cfa: sp 0 +
STACK CFI 3a9f0 .cfa: x29 64 +
STACK CFI INIT 3ab04 12c .cfa: sp 0 +
STACK CFI 3ab08 .cfa: sp 80 +
STACK CFI 3ab18 .cfa: x29 48 + x19: .cfa -8 + ^ x20: .cfa -16 + ^ x21: .cfa -32 + ^ .ra: .cfa -40 + ^ x29: .cfa -48 + ^
STACK CFI 3abb0 .cfa: sp 80 +
STACK CFI 3abc0 .cfa: sp 0 +
STACK CFI 3abc4 .cfa: x29 48 +
STACK CFI INIT 3acf8 43c .cfa: sp 0 +
STACK CFI 3acfc .cfa: sp 224 +
STACK CFI 3ad18 .cfa: x29 96 + x19: .cfa -8 + ^ x20: .cfa -16 + ^ x21: .cfa -24 + ^ x22: .cfa -32 + ^ x23: .cfa -40 + ^ x24: .cfa -48 + ^ x25: .cfa -56 + ^ x26: .cfa -64 + ^ x27: .cfa -72 + ^ x28: .cfa -80 + ^ .ra: .cfa -88 + ^ x29: .cfa -96 + ^
STACK CFI 3b02c .cfa: sp 224 +
STACK CFI 3b048 .cfa: sp 0 +
STACK CFI 3b04c .cfa: x29 96 +
STACK CFI INIT 3b304 250 .cfa: sp 0 +
STACK CFI 3b308 .cfa: sp 224 +
STACK CFI 3b320 .cfa: x29 80 + x19: .cfa -8 + ^ x20: .cfa -16 + ^ x21: .cfa -24 + ^ x22: .cfa -32 + ^ x23: .cfa -40 + ^ x24: .cfa -48 + ^ x25: .cfa -64 + ^ .ra: .cfa -72 + ^ x29: .cfa -80 + ^
STACK CFI 3b498 .cfa: sp 224 +
STACK CFI 3b4b0 .cfa: sp 0 +
STACK CFI 3b4b4 .cfa: x29 80 +
STACK CFI INIT 3b554 f4 .cfa: sp 0 +
STACK CFI 3b558 .cfa: sp 48 +
STACK CFI 3b564 .cfa: x29 48 + x19: .cfa -8 + ^ x20: .cfa -16 + ^ x21: .cfa -32 + ^ .ra: .cfa -40 + ^ x29: .cfa -48 + ^
STACK CFI 3b5d0 .cfa: sp 48 +
STACK CFI 3b5dc .cfa: sp 0 +
STACK CFI 3b5e0 .cfa: x29 48 +
STACK CFI INIT 3b720 178 .cfa: sp 0 +
STACK CFI 3b724 .cfa: sp 96 +
STACK CFI 3b734 .cfa: x29 48 + x19: .cfa -8 + ^ x20: .cfa -16 + ^ x21: .cfa -24 + ^ x22: .cfa -32 + ^ .ra: .cfa -40 + ^ x29: .cfa -48 + ^
STACK CFI 3b7e4 .cfa: sp 96 +
STACK CFI 3b7f4 .cfa: sp 0 +
STACK CFI 3b7f8 .cfa: x29 48 +
STACK CFI 3b850 .cfa: sp 96 +
STACK CFI 3b860 .cfa: sp 0 +
STACK CFI 3b864 .cfa: x29 48 +
STACK CFI INIT 3b93c 174 .cfa: sp 0 +
STACK CFI 3b940 .cfa: sp 112 +
STACK CFI 3b950 .cfa: x29 48 + x19: .cfa -8 + ^ x20: .cfa -16 + ^ x21: .cfa -32 + ^ .ra: .cfa -40 + ^ x29: .cfa -48 + ^
STACK CFI 3ba4c .cfa: sp 112 +
STACK CFI 3ba5c .cfa: sp 0 +
STACK CFI 3ba60 .cfa: x29 48 +
STACK CFI INIT 3bbfc 410 .cfa: sp 0 +
STACK CFI 3bc00 .cfa: sp 272 +
STACK CFI 3bc14 .cfa: x29 64 + x19: .cfa -8 + ^ x20: .cfa -16 + ^ x21: .cfa -24 + ^ x22: .cfa -32 + ^ x23: .cfa -40 + ^ x28: .cfa -48 + ^ .ra: .cfa -56 + ^ x29: .cfa -64 + ^
STACK CFI 3bed0 .cfa: sp 272 +
STACK CFI 3bee4 .cfa: sp 0 +
STACK CFI 3bee8 .cfa: x29 64 +
STACK CFI INIT 3c010 454 .cfa: sp 0 +
STACK CFI 3c014 .cfa: sp 160 +
STACK CFI 3c030 .cfa: x29 96 + x19: .cfa -8 + ^ x20: .cfa -16 + ^ x21: .cfa -24 + ^ x22: .cfa -32 + ^ x23: .cfa -40 + ^ x24: .cfa -48 + ^ x25: .cfa -56 + ^ x26: .cfa -64 + ^ x27: .cfa -72 + ^ x28: .cfa -80 + ^ .ra: .cfa -88 + ^ x29: .cfa -96 + ^
STACK CFI 3c08c .cfa: sp 160 +
STACK CFI 3c0a8 .cfa: sp 0 +
STACK CFI 3c0ac .cfa: x29 96 +
STACK CFI 3c2f0 .cfa: sp 160 +
STACK CFI 3c30c .cfa: sp 0 +
STACK CFI 3c310 .cfa: x29 96 +
STACK CFI 3c3b4 .cfa: sp 160 +
STACK CFI 3c3d0 .cfa: sp 0 +
STACK CFI 3c3d4 .cfa: x29 96 +
STACK CFI INIT 3c464 1c .cfa: sp 0 +
STACK CFI 3c468 .cfa: sp 16 +
STACK CFI 3c46c .cfa: x29 16 + .ra: .cfa -8 + ^ x29: .cfa -16 + ^
STACK CFI 3c474 .cfa: sp 16 +
STACK CFI 3c478 .cfa: sp 0 +
STACK CFI 3c47c .cfa: x29 16 +
STACK CFI INIT 3b134 1b4 .cfa: sp 0 +
STACK CFI 3b138 .cfa: sp 96 +
STACK CFI 3b14c .cfa: x29 64 + x19: .cfa -8 + ^ x20: .cfa -16 + ^ x21: .cfa -24 + ^ x22: .cfa -32 + ^ x23: .cfa -40 + ^ x24: .cfa -48 + ^ .ra: .cfa -56 + ^ x29: .cfa -64 + ^
STACK CFI 3b24c .cfa: sp 96 +
STACK CFI 3b260 .cfa: sp 0 +
STACK CFI 3b264 .cfa: x29 64 +
STACK CFI INIT 3c494 480 .cfa: sp 0 +
STACK CFI 3c498 .cfa: sp 224 +
STACK CFI 3c4b4 .cfa: x29 96 + x19: .cfa -8 + ^ x20: .cfa -16 + ^ x21: .cfa -24 + ^ x22: .cfa -32 + ^ x23: .cfa -40 + ^ x24: .cfa -48 + ^ x25: .cfa -56 + ^ x26: .cfa -64 + ^ x27: .cfa -80 + ^ .ra: .cfa -88 + ^ x29: .cfa -96 + ^
STACK CFI 3c720 .cfa: sp 224 +
STACK CFI 3c73c .cfa: sp 0 +
STACK CFI 3c740 .cfa: x29 96 +
STACK CFI 3c80c .cfa: sp 224 +
STACK CFI 3c828 .cfa: sp 0 +
STACK CFI 3c82c .cfa: x29 96 +
STACK CFI INIT 3c930 43c .cfa: sp 0 +
STACK CFI 3c934 .cfa: sp 224 +
STACK CFI 3c950 .cfa: x29 96 + x19: .cfa -8 + ^ x20: .cfa -16 + ^ x21: .cfa -24 + ^ x22: .cfa -32 + ^ x23: .cfa -40 + ^ x24: .cfa -48 + ^ x25: .cfa -56 + ^ x26: .cfa -64 + ^ x27: .cfa -72 + ^ x28: .cfa -80 + ^ .ra: .cfa -88 + ^ x29: .cfa -96 + ^
STACK CFI 3cc64 .cfa: sp 224 +
STACK CFI 3cc80 .cfa: sp 0 +
STACK CFI 3cc84 .cfa: x29 96 +
STACK CFI INIT 3cd6c 43c .cfa: sp 0 +
STACK CFI 3cd70 .cfa: sp 224 +
STACK CFI 3cd8c .cfa: x29 96 + x19: .cfa -8 + ^ x20: .cfa -16 + ^ x21: .cfa -24 + ^ x22: .cfa -32 + ^ x23: .cfa -40 + ^ x24: .cfa -48 + ^ x25: .cfa -56 + ^ x26: .cfa -64 + ^ x27: .cfa -72 + ^ x28: .cfa -80 + ^ .ra: .cfa -88 + ^ x29: .cfa -96 + ^
STACK CFI 3d0a0 .cfa: sp 224 +
STACK CFI 3d0bc .cfa: sp 0 +
STACK CFI 3d0c0 .cfa: x29 96 +
STACK CFI INIT 3d1e0 3d0 .cfa: sp 0 +
STACK CFI 3d1e4 .cfa: sp 256 +
STACK CFI 3d1f8 .cfa: x29 64 + x19: .cfa -8 + ^ x20: .cfa -16 + ^ x21: .cfa -24 + ^ x22: .cfa -32 + ^ x23: .cfa -40 + ^ x24: .cfa -48 + ^ .ra: .cfa -56 + ^ x29: .cfa -64 + ^
STACK CFI 3d480 .cfa: sp 256 +
STACK CFI 3d494 .cfa: sp 0 +
STACK CFI 3d498 .cfa: x29 64 +
STACK CFI INIT 3d5b4 134 .cfa: sp 0 +
STACK CFI 3d5b8 .cfa: sp 96 +
STACK CFI 3d5cc .cfa: x29 64 + x19: .cfa -8 + ^ x20: .cfa -16 + ^ x21: .cfa -24 + ^ x22: .cfa -32 + ^ x23: .cfa -48 + ^ .ra: .cfa -56 + ^ x29: .cfa -64 + ^
STACK CFI 3d6a0 .cfa: sp 96 +
STACK CFI 3d6b4 .cfa: sp 0 +
STACK CFI 3d6b8 .cfa: x29 64 +
STACK CFI INIT 3d6e8 c8 .cfa: sp 0 +
STACK CFI 3d6ec .cfa: sp 32 +
STACK CFI 3d6f4 .cfa: x29 32 + x19: .cfa -8 + ^ x20: .cfa -16 + ^ .ra: .cfa -24 + ^ x29: .cfa -32 + ^
STACK CFI 3d728 .cfa: sp 32 +
STACK CFI 3d730 .cfa: sp 0 +
STACK CFI 3d734 .cfa: x29 32 +
STACK CFI 3d738 .cfa: sp 32 +
STACK CFI 3d740 .cfa: sp 0 +
STACK CFI 3d744 .cfa: x29 32 +
STACK CFI INIT 3d7b0 11c .cfa: sp 0 +
STACK CFI 3d7b4 .cfa: sp 32 +
STACK CFI 3d7bc .cfa: x29 32 + x19: .cfa -8 + ^ x20: .cfa -16 + ^ .ra: .cfa -24 + ^ x29: .cfa -32 + ^
STACK CFI 3d890 .cfa: sp 32 +
STACK CFI 3d898 .cfa: sp 0 +
STACK CFI 3d89c .cfa: x29 32 +
STACK CFI INIT 3d8e0 190 .cfa: sp 0 +
STACK CFI 3d8e4 .cfa: sp 112 +
STACK CFI 3d8f4 .cfa: x29 48 + x19: .cfa -8 + ^ x20: .cfa -16 + ^ x21: .cfa -32 + ^ .ra: .cfa -40 + ^ x29: .cfa -48 + ^
STACK CFI 3d9c8 .cfa: sp 112 +
STACK CFI 3d9d8 .cfa: sp 0 +
STACK CFI 3d9dc .cfa: x29 48 +
STACK CFI INIT 3da84 3d0 .cfa: sp 0 +
STACK CFI 3da88 .cfa: sp 256 +
STACK CFI 3da9c .cfa: x29 64 + x19: .cfa -8 + ^ x20: .cfa -16 + ^ x21: .cfa -24 + ^ x22: .cfa -32 + ^ x23: .cfa -48 + ^ .ra: .cfa -56 + ^ x29: .cfa -64 + ^
STACK CFI 3dd24 .cfa: sp 256 +
STACK CFI 3dd38 .cfa: sp 0 +
STACK CFI 3dd3c .cfa: x29 64 +
STACK CFI INIT 3dfe8 a8 .cfa: sp 0 +
STACK CFI 3dfec .cfa: sp 32 +
STACK CFI 3dff4 .cfa: x29 32 + x19: .cfa -16 + ^ .ra: .cfa -24 + ^ x29: .cfa -32 + ^
STACK CFI 3e028 .cfa: sp 32 +
STACK CFI 3e030 .cfa: sp 0 +
STACK CFI 3e034 .cfa: x29 32 +
STACK CFI 3e038 .cfa: sp 32 +
STACK CFI 3e040 .cfa: sp 0 +
STACK CFI 3e044 .cfa: x29 32 +
STACK CFI INIT 3e210 160 .cfa: sp 0 +
STACK CFI 3e214 .cfa: sp 240 +
STACK CFI 3e228 .cfa: x29 64 + x19: .cfa -8 + ^ x20: .cfa -16 + ^ x21: .cfa -24 + ^ x22: .cfa -32 + ^ x23: .cfa -40 + ^ x24: .cfa -48 + ^ .ra: .cfa -56 + ^ x29: .cfa -64 + ^
STACK CFI 3e328 .cfa: sp 240 +
STACK CFI 3e33c .cfa: sp 0 +
STACK CFI 3e340 .cfa: x29 64 +
STACK CFI INIT 3eb28 364 .cfa: sp 0 +
STACK CFI 3eb2c .cfa: sp 208 +
STACK CFI 3eb40 .cfa: x29 64 + x19: .cfa -8 + ^ x20: .cfa -16 + ^ x21: .cfa -24 + ^ x22: .cfa -32 + ^ x23: .cfa -48 + ^ .ra: .cfa -56 + ^ x29: .cfa -64 + ^
STACK CFI 3ed68 .cfa: sp 208 +
STACK CFI 3ed7c .cfa: sp 0 +
STACK CFI 3ed80 .cfa: x29 64 +
STACK CFI INIT 3ee90 fc .cfa: sp 0 +
STACK CFI 3ee94 .cfa: sp 80 +
STACK CFI 3eea0 .cfa: x29 32 + x19: .cfa -8 + ^ x20: .cfa -16 + ^ .ra: .cfa -24 + ^ x29: .cfa -32 + ^
STACK CFI 3ef3c .cfa: sp 80 +
STACK CFI 3ef48 .cfa: sp 0 +
STACK CFI 3ef4c .cfa: x29 32 +
STACK CFI INIT 3f054 43c .cfa: sp 0 +
STACK CFI 3f058 .cfa: sp 224 +
STACK CFI 3f074 .cfa: x29 96 + x19: .cfa -8 + ^ x20: .cfa -16 + ^ x21: .cfa -24 + ^ x22: .cfa -32 + ^ x23: .cfa -40 + ^ x24: .cfa -48 + ^ x25: .cfa -56 + ^ x26: .cfa -64 + ^ x27: .cfa -72 + ^ x28: .cfa -80 + ^ .ra: .cfa -88 + ^ x29: .cfa -96 + ^
STACK CFI 3f388 .cfa: sp 224 +
STACK CFI 3f3a4 .cfa: sp 0 +
STACK CFI 3f3a8 .cfa: x29 96 +
STACK CFI INIT 3f490 43c .cfa: sp 0 +
STACK CFI 3f494 .cfa: sp 224 +
STACK CFI 3f4b0 .cfa: x29 96 + x19: .cfa -8 + ^ x20: .cfa -16 + ^ x21: .cfa -24 + ^ x22: .cfa -32 + ^ x23: .cfa -40 + ^ x24: .cfa -48 + ^ x25: .cfa -56 + ^ x26: .cfa -64 + ^ x27: .cfa -72 + ^ x28: .cfa -80 + ^ .ra: .cfa -88 + ^ x29: .cfa -96 + ^
STACK CFI 3f7c4 .cfa: sp 224 +
STACK CFI 3f7e0 .cfa: sp 0 +
STACK CFI 3f7e4 .cfa: x29 96 +
STACK CFI INIT 3f8cc 43c .cfa: sp 0 +
STACK CFI 3f8d0 .cfa: sp 224 +
STACK CFI 3f8ec .cfa: x29 96 + x19: .cfa -8 + ^ x20: .cfa -16 + ^ x21: .cfa -24 + ^ x22: .cfa -32 + ^ x23: .cfa -40 + ^ x24: .cfa -48 + ^ x25: .cfa -56 + ^ x26: .cfa -64 + ^ x27: .cfa -72 + ^ x28: .cfa -80 + ^ .ra: .cfa -88 + ^ x29: .cfa -96 + ^
STACK CFI 3fc00 .cfa: sp 224 +
STACK CFI 3fc1c .cfa: sp 0 +
STACK CFI 3fc20 .cfa: x29 96 +
STACK CFI INIT 3ff1c 77c .cfa: sp 0 +
STACK CFI 3ff20 .cfa: sp 320 +
STACK CFI 3ff3c .cfa: x29 96 + x19: .cfa -8 + ^ x20: .cfa -16 + ^ x21: .cfa -24 + ^ x22: .cfa -32 + ^ x23: .cfa -40 + ^ x24: .cfa -48 + ^ x25: .cfa -56 + ^ x26: .cfa -64 + ^ x27: .cfa -72 + ^ x28: .cfa -80 + ^ .ra: .cfa -88 + ^ x29: .cfa -96 + ^
STACK CFI 404a8 .cfa: sp 320 +
STACK CFI 404c4 .cfa: sp 0 +
STACK CFI 404c8 .cfa: x29 96 +
STACK CFI INIT 406cc 32c .cfa: sp 0 +
STACK CFI 406d0 .cfa: sp 240 +
STACK CFI 406e4 .cfa: x29 64 + x19: .cfa -8 + ^ x20: .cfa -16 + ^ x21: .cfa -24 + ^ x22: .cfa -32 + ^ x23: .cfa -48 + ^ .ra: .cfa -56 + ^ x29: .cfa -64 + ^
STACK CFI 408e8 .cfa: sp 240 +
STACK CFI 408fc .cfa: sp 0 +
STACK CFI 40900 .cfa: x29 64 +
STACK CFI INIT 40a4c c8 .cfa: sp 0 +
STACK CFI 40a50 .cfa: sp 32 +
STACK CFI 40a58 .cfa: x29 32 + x19: .cfa -8 + ^ x20: .cfa -16 + ^ .ra: .cfa -24 + ^ x29: .cfa -32 + ^
STACK CFI 40a8c .cfa: sp 32 +
STACK CFI 40a94 .cfa: sp 0 +
STACK CFI 40a98 .cfa: x29 32 +
STACK CFI 40a9c .cfa: sp 32 +
STACK CFI 40aa4 .cfa: sp 0 +
STACK CFI 40aa8 .cfa: x29 32 +
STACK CFI INIT 40b14 7b0 .cfa: sp 0 +
STACK CFI 40b18 .cfa: sp 80 +
STACK CFI 40b2c .cfa: x29 80 + x19: .cfa -8 + ^ x20: .cfa -16 + ^ x21: .cfa -24 + ^ x22: .cfa -32 + ^ x23: .cfa -40 + ^ x24: .cfa -48 + ^ x25: .cfa -56 + ^ x26: .cfa -64 + ^ .ra: .cfa -72 + ^ x29: .cfa -80 + ^
STACK CFI 40f48 .cfa: sp 80 +
STACK CFI 40f5c .cfa: sp 0 +
STACK CFI 40f60 .cfa: x29 80 +
STACK CFI INIT 412c4 578 .cfa: sp 0 +
STACK CFI 412c8 .cfa: sp 96 +
STACK CFI 412dc .cfa: x29 64 + x19: .cfa -8 + ^ x20: .cfa -16 + ^ x21: .cfa -24 + ^ x22: .cfa -32 + ^ x23: .cfa -48 + ^ .ra: .cfa -56 + ^ x29: .cfa -64 + ^
STACK CFI 4167c .cfa: sp 96 +
STACK CFI 41690 .cfa: sp 0 +
STACK CFI 41694 .cfa: x29 64 +
STACK CFI INIT 419b0 1c .cfa: sp 0 +
STACK CFI 419b4 .cfa: sp 16 +
STACK CFI 419b8 .cfa: x29 16 + .ra: .cfa -8 + ^ x29: .cfa -16 + ^
STACK CFI 419c0 .cfa: sp 16 +
STACK CFI 419c4 .cfa: sp 0 +
STACK CFI 419c8 .cfa: x29 16 +
STACK CFI INIT 41cd8 3f8 .cfa: sp 0 +
STACK CFI 41cdc .cfa: sp 48 +
STACK CFI 41ce8 .cfa: x29 48 + x19: .cfa -8 + ^ x20: .cfa -16 + ^ x21: .cfa -24 + ^ x22: .cfa -32 + ^ .ra: .cfa -40 + ^ x29: .cfa -48 + ^
STACK CFI 42050 .cfa: sp 48 +
STACK CFI 4205c .cfa: sp 0 +
STACK CFI 42060 .cfa: x29 48 +
STACK CFI 420b0 .cfa: sp 48 +
STACK CFI 420bc .cfa: sp 0 +
STACK CFI 420c0 .cfa: x29 48 +
STACK CFI INIT 42148 1c .cfa: sp 0 +
STACK CFI 4214c .cfa: sp 16 +
STACK CFI 42150 .cfa: x29 16 + .ra: .cfa -8 + ^ x29: .cfa -16 + ^
STACK CFI 42158 .cfa: sp 16 +
STACK CFI 4215c .cfa: sp 0 +
STACK CFI 42160 .cfa: x29 16 +
STACK CFI INIT 421f4 98 .cfa: sp 0 +
STACK CFI 421f8 .cfa: sp 48 +
STACK CFI 42204 .cfa: x29 48 + x19: .cfa -8 + ^ x20: .cfa -16 + ^ x21: .cfa -32 + ^ .ra: .cfa -40 + ^ x29: .cfa -48 + ^
STACK CFI 42264 .cfa: sp 48 +
STACK CFI 42270 .cfa: sp 0 +
STACK CFI 42274 .cfa: sp 48 +
STACK CFI 42280 .cfa: sp 0 +
STACK CFI 42284 .cfa: x29 48 +
STACK CFI INIT 422c8 1c .cfa: sp 0 +
STACK CFI 422cc .cfa: sp 16 +
STACK CFI 422d0 .cfa: x29 16 + .ra: .cfa -8 + ^ x29: .cfa -16 + ^
STACK CFI 422d8 .cfa: sp 16 +
STACK CFI 422dc .cfa: sp 0 +
STACK CFI 422e0 .cfa: x29 16 +
STACK CFI INIT 422e4 1c .cfa: sp 0 +
STACK CFI 422e8 .cfa: sp 16 +
STACK CFI 422ec .cfa: x29 16 + .ra: .cfa -8 + ^ x29: .cfa -16 + ^
STACK CFI 422f4 .cfa: sp 16 +
STACK CFI 422f8 .cfa: sp 0 +
STACK CFI 422fc .cfa: x29 16 +
STACK CFI INIT 424e0 1cc .cfa: sp 0 +
STACK CFI 424e4 .cfa: sp 160 +
STACK CFI 424fc .cfa: x29 80 + x19: .cfa -8 + ^ x20: .cfa -16 + ^ x21: .cfa -24 + ^ x22: .cfa -32 + ^ x23: .cfa -40 + ^ x24: .cfa -48 + ^ x25: .cfa -56 + ^ x26: .cfa -64 + ^ .ra: .cfa -72 + ^ x29: .cfa -80 + ^
STACK CFI 42658 .cfa: sp 160 +
STACK CFI 42670 .cfa: sp 0 +
STACK CFI 42674 .cfa: x29 80 +
STACK CFI INIT 42a64 1a0 .cfa: sp 0 +
STACK CFI 42a68 .cfa: sp 64 +
STACK CFI 42a78 .cfa: x29 64 + x19: .cfa -8 + ^ x20: .cfa -16 + ^ x21: .cfa -24 + ^ x22: .cfa -32 + ^ x23: .cfa -48 + ^ .ra: .cfa -56 + ^ x29: .cfa -64 + ^
STACK CFI 42b3c .cfa: sp 64 +
STACK CFI 42b4c .cfa: sp 0 +
STACK CFI 42b50 .cfa: x29 64 +
STACK CFI INIT 43238 a8 .cfa: sp 0 +
STACK CFI 4323c .cfa: sp 64 +
STACK CFI 4324c .cfa: x29 64 + x19: .cfa -8 + ^ x20: .cfa -16 + ^ x21: .cfa -24 + ^ x22: .cfa -32 + ^ x23: .cfa -40 + ^ x24: .cfa -48 + ^ .ra: .cfa -56 + ^ x29: .cfa -64 + ^
STACK CFI 43270 .cfa: sp 64 +
STACK CFI 43280 .cfa: sp 0 +
STACK CFI 43284 .cfa: x29 64 +
STACK CFI INIT 43430 34c .cfa: sp 0 +
STACK CFI 43434 .cfa: sp 240 +
STACK CFI 43448 .cfa: x29 64 + x19: .cfa -8 + ^ x20: .cfa -16 + ^ x21: .cfa -24 + ^ x22: .cfa -32 + ^ x23: .cfa -48 + ^ .ra: .cfa -56 + ^ x29: .cfa -64 + ^
STACK CFI 43664 .cfa: sp 240 +
STACK CFI 43678 .cfa: sp 0 +
STACK CFI 4367c .cfa: x29 64 +
STACK CFI INIT 3fd08 1b4 .cfa: sp 0 +
STACK CFI 3fd0c .cfa: sp 96 +
STACK CFI 3fd20 .cfa: x29 64 + x19: .cfa -8 + ^ x20: .cfa -16 + ^ x21: .cfa -24 + ^ x22: .cfa -32 + ^ x23: .cfa -40 + ^ x24: .cfa -48 + ^ .ra: .cfa -56 + ^ x29: .cfa -64 + ^
STACK CFI 3fe20 .cfa: sp 96 +
STACK CFI 3fe34 .cfa: sp 0 +
STACK CFI 3fe38 .cfa: x29 64 +
STACK CFI INIT 43794 43c .cfa: sp 0 +
STACK CFI 43798 .cfa: sp 224 +
STACK CFI 437b4 .cfa: x29 96 + x19: .cfa -8 + ^ x20: .cfa -16 + ^ x21: .cfa -24 + ^ x22: .cfa -32 + ^ x23: .cfa -40 + ^ x24: .cfa -48 + ^ x25: .cfa -56 + ^ x26: .cfa -64 + ^ x27: .cfa -72 + ^ x28: .cfa -80 + ^ .ra: .cfa -88 + ^ x29: .cfa -96 + ^
STACK CFI 43ac8 .cfa: sp 224 +
STACK CFI 43ae4 .cfa: sp 0 +
STACK CFI 43ae8 .cfa: x29 96 +
STACK CFI INIT 43bec 33c .cfa: sp 0 +
STACK CFI 43bf0 .cfa: sp 240 +
STACK CFI 43c04 .cfa: x29 64 + x19: .cfa -8 + ^ x20: .cfa -16 + ^ x21: .cfa -24 + ^ x22: .cfa -32 + ^ x23: .cfa -48 + ^ .ra: .cfa -56 + ^ x29: .cfa -64 + ^
STACK CFI 43e10 .cfa: sp 240 +
STACK CFI 43e24 .cfa: sp 0 +
STACK CFI 43e28 .cfa: x29 64 +
STACK CFI INIT 43f2c 7d0 .cfa: sp 0 +
STACK CFI 43f30 .cfa: sp 96 +
STACK CFI 43f48 .cfa: x29 96 + x19: .cfa -8 + ^ x20: .cfa -16 + ^ x21: .cfa -24 + ^ x22: .cfa -32 + ^ x23: .cfa -40 + ^ x24: .cfa -48 + ^ x25: .cfa -56 + ^ x26: .cfa -64 + ^ x28: .cfa -80 + ^ .ra: .cfa -88 + ^ x29: .cfa -96 + ^
STACK CFI 44564 .cfa: sp 96 +
STACK CFI 4457c .cfa: sp 0 +
STACK CFI 44580 .cfa: x29 96 +
STACK CFI INIT 446fc 43c .cfa: sp 0 +
STACK CFI 44700 .cfa: sp 224 +
STACK CFI 4471c .cfa: x29 96 + x19: .cfa -8 + ^ x20: .cfa -16 + ^ x21: .cfa -24 + ^ x22: .cfa -32 + ^ x23: .cfa -40 + ^ x24: .cfa -48 + ^ x25: .cfa -56 + ^ x26: .cfa -64 + ^ x27: .cfa -72 + ^ x28: .cfa -80 + ^ .ra: .cfa -88 + ^ x29: .cfa -96 + ^
STACK CFI 44a30 .cfa: sp 224 +
STACK CFI 44a4c .cfa: sp 0 +
STACK CFI 44a50 .cfa: x29 96 +
STACK CFI INIT 44b54 384 .cfa: sp 0 +
STACK CFI 44b58 .cfa: sp 256 +
STACK CFI 44b6c .cfa: x29 64 + x19: .cfa -8 + ^ x20: .cfa -16 + ^ x21: .cfa -24 + ^ x22: .cfa -32 + ^ x23: .cfa -48 + ^ .ra: .cfa -56 + ^ x29: .cfa -64 + ^
STACK CFI 44dac .cfa: sp 256 +
STACK CFI 44dc0 .cfa: sp 0 +
STACK CFI 44dc4 .cfa: x29 64 +
STACK CFI INIT 44edc 140 .cfa: sp 0 +
STACK CFI 44ee0 .cfa: sp 80 +
STACK CFI 44ef4 .cfa: x29 64 + x19: .cfa -8 + ^ x20: .cfa -16 + ^ x21: .cfa -24 + ^ x22: .cfa -32 + ^ x23: .cfa -40 + ^ x24: .cfa -48 + ^ .ra: .cfa -56 + ^ x29: .cfa -64 + ^
STACK CFI 44fdc .cfa: sp 80 +
STACK CFI 44ff0 .cfa: sp 0 +
STACK CFI 44ff4 .cfa: x29 64 +
STACK CFI INIT 45098 984 .cfa: sp 0 +
STACK CFI 4509c .cfa: sp 384 +
STACK CFI 450b8 .cfa: x29 96 + x19: .cfa -8 + ^ x20: .cfa -16 + ^ x21: .cfa -24 + ^ x22: .cfa -32 + ^ x23: .cfa -40 + ^ x24: .cfa -48 + ^ x25: .cfa -56 + ^ x26: .cfa -64 + ^ x27: .cfa -72 + ^ x28: .cfa -80 + ^ .ra: .cfa -88 + ^ x29: .cfa -96 + ^
STACK CFI 457e4 .cfa: sp 384 +
STACK CFI 45800 .cfa: sp 0 +
STACK CFI 45804 .cfa: x29 96 +
STACK CFI INIT 45a58 1c .cfa: sp 0 +
STACK CFI 45a5c .cfa: sp 16 +
STACK CFI 45a60 .cfa: x29 16 + .ra: .cfa -8 + ^ x29: .cfa -16 + ^
STACK CFI 45a68 .cfa: sp 16 +
STACK CFI 45a6c .cfa: sp 0 +
STACK CFI 45a70 .cfa: x29 16 +
STACK CFI INIT 45a74 20 .cfa: sp 0 +
STACK CFI 45a78 .cfa: sp 16 +
STACK CFI 45a7c .cfa: x29 16 + .ra: .cfa -8 + ^ x29: .cfa -16 + ^
STACK CFI 45a88 .cfa: sp 16 +
STACK CFI 45a8c .cfa: sp 0 +
STACK CFI 45a90 .cfa: x29 16 +
STACK CFI INIT 45a94 14c .cfa: sp 0 +
STACK CFI 45a98 .cfa: sp 112 +
STACK CFI 45aa8 .cfa: x29 48 + x19: .cfa -8 + ^ x20: .cfa -16 + ^ x21: .cfa -32 + ^ .ra: .cfa -40 + ^ x29: .cfa -48 + ^
STACK CFI 45b6c .cfa: sp 112 +
STACK CFI 45b7c .cfa: sp 0 +
STACK CFI 45b80 .cfa: x29 48 +
STACK CFI INIT 45be0 480 .cfa: sp 0 +
STACK CFI 45be4 .cfa: sp 224 +
STACK CFI 45c00 .cfa: x29 96 + x19: .cfa -8 + ^ x20: .cfa -16 + ^ x21: .cfa -24 + ^ x22: .cfa -32 + ^ x23: .cfa -40 + ^ x24: .cfa -48 + ^ x25: .cfa -56 + ^ x26: .cfa -64 + ^ x27: .cfa -80 + ^ .ra: .cfa -88 + ^ x29: .cfa -96 + ^
STACK CFI 45e6c .cfa: sp 224 +
STACK CFI 45e88 .cfa: sp 0 +
STACK CFI 45e8c .cfa: x29 96 +
STACK CFI 45f58 .cfa: sp 224 +
STACK CFI 45f74 .cfa: sp 0 +
STACK CFI 45f78 .cfa: x29 96 +
STACK CFI INIT 4607c 43c .cfa: sp 0 +
STACK CFI 46080 .cfa: sp 224 +
STACK CFI 4609c .cfa: x29 96 + x19: .cfa -8 + ^ x20: .cfa -16 + ^ x21: .cfa -24 + ^ x22: .cfa -32 + ^ x23: .cfa -40 + ^ x24: .cfa -48 + ^ x25: .cfa -56 + ^ x26: .cfa -64 + ^ x27: .cfa -72 + ^ x28: .cfa -80 + ^ .ra: .cfa -88 + ^ x29: .cfa -96 + ^
STACK CFI 463b0 .cfa: sp 224 +
STACK CFI 463cc .cfa: sp 0 +
STACK CFI 463d0 .cfa: x29 96 +
STACK CFI INIT 46a8c 480 .cfa: sp 0 +
STACK CFI 46a90 .cfa: sp 224 +
STACK CFI 46aac .cfa: x29 96 + x19: .cfa -8 + ^ x20: .cfa -16 + ^ x21: .cfa -24 + ^ x22: .cfa -32 + ^ x23: .cfa -40 + ^ x24: .cfa -48 + ^ x25: .cfa -56 + ^ x26: .cfa -64 + ^ x27: .cfa -80 + ^ .ra: .cfa -88 + ^ x29: .cfa -96 + ^
STACK CFI 46d18 .cfa: sp 224 +
STACK CFI 46d34 .cfa: sp 0 +
STACK CFI 46d38 .cfa: x29 96 +
STACK CFI 46e04 .cfa: sp 224 +
STACK CFI 46e20 .cfa: sp 0 +
STACK CFI 46e24 .cfa: x29 96 +
STACK CFI INIT 464b8 43c .cfa: sp 0 +
STACK CFI 464bc .cfa: sp 224 +
STACK CFI 464d8 .cfa: x29 96 + x19: .cfa -8 + ^ x20: .cfa -16 + ^ x21: .cfa -24 + ^ x22: .cfa -32 + ^ x23: .cfa -40 + ^ x24: .cfa -48 + ^ x25: .cfa -56 + ^ x26: .cfa -64 + ^ x27: .cfa -72 + ^ x28: .cfa -80 + ^ .ra: .cfa -88 + ^ x29: .cfa -96 + ^
STACK CFI 467ec .cfa: sp 224 +
STACK CFI 46808 .cfa: sp 0 +
STACK CFI 4680c .cfa: x29 96 +
STACK CFI INIT 46f44 460 .cfa: sp 0 +
STACK CFI 46f48 .cfa: sp 96 +
STACK CFI 46f60 .cfa: x29 96 + x19: .cfa -8 + ^ x20: .cfa -16 + ^ x21: .cfa -24 + ^ x22: .cfa -32 + ^ x23: .cfa -40 + ^ x24: .cfa -48 + ^ x25: .cfa -56 + ^ x26: .cfa -64 + ^ x27: .cfa -72 + ^ x28: .cfa -80 + ^ .ra: .cfa -88 + ^ x29: .cfa -96 + ^
STACK CFI 472c0 .cfa: sp 96 +
STACK CFI 472d8 .cfa: sp 0 +
STACK CFI 472dc .cfa: x29 96 +
STACK CFI INIT 47448 4d4 .cfa: sp 0 +
STACK CFI 4744c .cfa: sp 80 +
STACK CFI 47460 .cfa: x29 80 + x19: .cfa -8 + ^ x20: .cfa -16 + ^ x21: .cfa -24 + ^ x22: .cfa -32 + ^ x23: .cfa -40 + ^ x24: .cfa -48 + ^ x25: .cfa -56 + ^ x26: .cfa -64 + ^ .ra: .cfa -72 + ^ x29: .cfa -80 + ^
STACK CFI 478ec .cfa: sp 80 +
STACK CFI 47900 .cfa: sp 0 +
STACK CFI 47904 .cfa: x29 80 +
STACK CFI INIT 4791c f6c .cfa: sp 0 +
STACK CFI 47920 .cfa: sp 304 +
STACK CFI 4793c .cfa: x29 96 + x19: .cfa -8 + ^ x20: .cfa -16 + ^ x21: .cfa -24 + ^ x22: .cfa -32 + ^ x23: .cfa -40 + ^ x24: .cfa -48 + ^ x25: .cfa -56 + ^ x26: .cfa -64 + ^ x28: .cfa -80 + ^ .ra: .cfa -88 + ^ x29: .cfa -96 + ^
STACK CFI 4845c .cfa: sp 304 +
STACK CFI 48478 .cfa: sp 0 +
STACK CFI 4847c .cfa: x29 96 +
STACK CFI INIT 4888c 184 .cfa: sp 0 +
STACK CFI 48890 .cfa: sp 144 +
STACK CFI 488a8 .cfa: x29 80 + x19: .cfa -8 + ^ x20: .cfa -16 + ^ x21: .cfa -24 + ^ x22: .cfa -32 + ^ x23: .cfa -40 + ^ x24: .cfa -48 + ^ x25: .cfa -56 + ^ x26: .cfa -64 + ^ .ra: .cfa -72 + ^ x29: .cfa -80 + ^
STACK CFI 489a8 .cfa: sp 144 +
STACK CFI 489c0 .cfa: sp 0 +
STACK CFI 489c4 .cfa: x29 80 +
STACK CFI INIT 48a10 120 .cfa: sp 0 +
STACK CFI 48a14 .cfa: sp 32 +
STACK CFI 48a1c .cfa: x29 32 + x19: .cfa -8 + ^ x20: .cfa -16 + ^ .ra: .cfa -24 + ^ x29: .cfa -32 + ^
STACK CFI 48b20 .cfa: sp 32 +
STACK CFI 48b28 .cfa: sp 0 +
STACK CFI 48b2c .cfa: x29 32 +
STACK CFI INIT 48b30 154 .cfa: sp 0 +
STACK CFI 48b34 .cfa: sp 48 +
STACK CFI 48b40 .cfa: x29 48 + x19: .cfa -8 + ^ x20: .cfa -16 + ^ x21: .cfa -32 + ^ .ra: .cfa -40 + ^ x29: .cfa -48 + ^
STACK CFI 48c58 .cfa: sp 48 +
STACK CFI 48c64 .cfa: sp 0 +
STACK CFI 48c68 .cfa: x29 48 +
STACK CFI INIT 48c84 154 .cfa: sp 0 +
STACK CFI 48c88 .cfa: sp 48 +
STACK CFI 48c94 .cfa: x29 48 + x19: .cfa -8 + ^ x20: .cfa -16 + ^ x21: .cfa -32 + ^ .ra: .cfa -40 + ^ x29: .cfa -48 + ^
STACK CFI 48dac .cfa: sp 48 +
STACK CFI 48db8 .cfa: sp 0 +
STACK CFI 48dbc .cfa: x29 48 +
STACK CFI INIT 48dd8 210 .cfa: sp 0 +
STACK CFI 48ddc .cfa: sp 64 +
STACK CFI 48dec .cfa: x29 48 + x19: .cfa -8 + ^ x20: .cfa -16 + ^ x21: .cfa -24 + ^ x22: .cfa -32 + ^ .ra: .cfa -40 + ^ x29: .cfa -48 + ^
STACK CFI 48f58 .cfa: sp 64 +
STACK CFI 48f68 .cfa: sp 0 +
STACK CFI 48f6c .cfa: x29 48 +
STACK CFI INIT 48fe8 c0 .cfa: sp 0 +
STACK CFI 48fec .cfa: sp 32 +
STACK CFI 48ff4 .cfa: x29 32 + x19: .cfa -8 + ^ x20: .cfa -16 + ^ .ra: .cfa -24 + ^ x29: .cfa -32 + ^
STACK CFI 49080 .cfa: sp 32 +
STACK CFI 49088 .cfa: sp 0 +
STACK CFI 4908c .cfa: x29 32 +
STACK CFI INIT 490a8 1bc .cfa: sp 0 +
STACK CFI 490ac .cfa: sp 80 +
STACK CFI 490c0 .cfa: x29 64 + x19: .cfa -8 + ^ x20: .cfa -16 + ^ x21: .cfa -24 + ^ x22: .cfa -32 + ^ x23: .cfa -48 + ^ .ra: .cfa -56 + ^ x29: .cfa -64 + ^
STACK CFI 4921c .cfa: sp 80 +
STACK CFI 49230 .cfa: sp 0 +
STACK CFI 49234 .cfa: x29 64 +
STACK CFI INIT 49448 20 .cfa: sp 0 +
STACK CFI 4944c .cfa: sp 16 +
STACK CFI 49450 .cfa: x29 16 + .ra: .cfa -8 + ^ x29: .cfa -16 + ^
STACK CFI 4945c .cfa: sp 16 +
STACK CFI 49460 .cfa: sp 0 +
STACK CFI 49464 .cfa: x29 16 +
STACK CFI INIT 49468 3c4 .cfa: sp 0 +
STACK CFI 4946c .cfa: sp 272 +
STACK CFI 49480 .cfa: x29 64 + x19: .cfa -8 + ^ x20: .cfa -16 + ^ x21: .cfa -24 + ^ x22: .cfa -32 + ^ x23: .cfa -40 + ^ x28: .cfa -48 + ^ .ra: .cfa -56 + ^ x29: .cfa -64 + ^
STACK CFI 496fc .cfa: sp 272 +
STACK CFI 49710 .cfa: sp 0 +
STACK CFI 49714 .cfa: x29 64 +
STACK CFI INIT 49830 b8 .cfa: sp 0 +
STACK CFI 49834 .cfa: sp 32 +
STACK CFI 4983c .cfa: x29 32 + x19: .cfa -16 + ^ .ra: .cfa -24 + ^ x29: .cfa -32 + ^
STACK CFI 498bc .cfa: sp 32 +
STACK CFI 498c4 .cfa: sp 0 +
STACK CFI 498c8 .cfa: x29 32 +
STACK CFI INIT 498e8 a8 .cfa: sp 0 +
STACK CFI 498ec .cfa: sp 32 +
STACK CFI 498f4 .cfa: x29 32 + x19: .cfa -16 + ^ .ra: .cfa -24 + ^ x29: .cfa -32 + ^
STACK CFI 49928 .cfa: sp 32 +
STACK CFI 49930 .cfa: sp 0 +
STACK CFI 49934 .cfa: x29 32 +
STACK CFI 49938 .cfa: sp 32 +
STACK CFI 49940 .cfa: sp 0 +
STACK CFI 49944 .cfa: x29 32 +
STACK CFI INIT 49a28 678 .cfa: sp 0 +
STACK CFI 49a2c .cfa: sp 240 +
STACK CFI 49a44 .cfa: x29 80 + x19: .cfa -8 + ^ x20: .cfa -16 + ^ x21: .cfa -24 + ^ x22: .cfa -32 + ^ x23: .cfa -40 + ^ x24: .cfa -48 + ^ x25: .cfa -56 + ^ x26: .cfa -64 + ^ .ra: .cfa -72 + ^ x29: .cfa -80 + ^
STACK CFI 49eb0 .cfa: sp 240 +
STACK CFI 49ec8 .cfa: sp 0 +
STACK CFI 49ecc .cfa: x29 80 +
STACK CFI INIT 4a0a4 15c .cfa: sp 0 +
STACK CFI 4a0a8 .cfa: sp 48 +
STACK CFI 4a0b4 .cfa: x29 48 + x19: .cfa -8 + ^ x20: .cfa -16 + ^ x21: .cfa -24 + ^ x22: .cfa -32 + ^ .ra: .cfa -40 + ^ x29: .cfa -48 + ^
STACK CFI 4a1d4 .cfa: sp 48 +
STACK CFI 4a1e0 .cfa: sp 0 +
STACK CFI 4a1e4 .cfa: x29 48 +
STACK CFI INIT 4a200 154 .cfa: sp 0 +
STACK CFI 4a204 .cfa: sp 48 +
STACK CFI 4a210 .cfa: x29 48 + x19: .cfa -8 + ^ x20: .cfa -16 + ^ x21: .cfa -32 + ^ .ra: .cfa -40 + ^ x29: .cfa -48 + ^
STACK CFI 4a328 .cfa: sp 48 +
STACK CFI 4a334 .cfa: sp 0 +
STACK CFI 4a338 .cfa: x29 48 +
STACK CFI INIT 4a354 490 .cfa: sp 0 +
STACK CFI 4a358 .cfa: sp 176 +
STACK CFI 4a36c .cfa: x29 64 + x19: .cfa -8 + ^ x20: .cfa -16 + ^ x21: .cfa -24 + ^ x22: .cfa -32 + ^ x23: .cfa -40 + ^ x24: .cfa -48 + ^ .ra: .cfa -56 + ^ x29: .cfa -64 + ^
STACK CFI 4a690 .cfa: sp 176 +
STACK CFI 4a6a4 .cfa: sp 0 +
STACK CFI 4a6a8 .cfa: x29 64 +
STACK CFI INIT 4a7e8 134 .cfa: sp 0 +
STACK CFI 4a7ec .cfa: sp 128 +
STACK CFI 4a800 .cfa: x29 64 + x19: .cfa -8 + ^ x20: .cfa -16 + ^ x21: .cfa -24 + ^ x22: .cfa -32 + ^ x23: .cfa -40 + ^ x24: .cfa -48 + ^ .ra: .cfa -56 + ^ x29: .cfa -64 + ^
STACK CFI 4a8cc .cfa: sp 128 +
STACK CFI 4a8e0 .cfa: sp 0 +
STACK CFI 4a8e4 .cfa: x29 64 +
STACK CFI INIT 4a91c 12c .cfa: sp 0 +
STACK CFI 4a920 .cfa: sp 32 +
STACK CFI 4a928 .cfa: x29 32 + x19: .cfa -8 + ^ x20: .cfa -16 + ^ .ra: .cfa -24 + ^ x29: .cfa -32 + ^
STACK CFI 4aa38 .cfa: sp 32 +
STACK CFI 4aa40 .cfa: sp 0 +
STACK CFI 4aa44 .cfa: x29 32 +
STACK CFI INIT 4aa48 148 .cfa: sp 0 +
STACK CFI 4aa4c .cfa: sp 32 +
STACK CFI 4aa54 .cfa: x29 32 + x19: .cfa -8 + ^ x20: .cfa -16 + ^ .ra: .cfa -24 + ^ x29: .cfa -32 + ^
STACK CFI 4ab68 .cfa: sp 32 +
STACK CFI 4ab70 .cfa: sp 0 +
STACK CFI 4ab74 .cfa: x29 32 +
STACK CFI INIT 468f4 17c .cfa: sp 0 +
STACK CFI 468f8 .cfa: sp 80 +
STACK CFI 46908 .cfa: x29 48 + x19: .cfa -8 + ^ x20: .cfa -16 + ^ x21: .cfa -32 + ^ .ra: .cfa -40 + ^ x29: .cfa -48 + ^
STACK CFI 469f0 .cfa: sp 80 +
STACK CFI 46a00 .cfa: sp 0 +
STACK CFI 46a04 .cfa: x29 48 +
STACK CFI INIT 4ac74 1b4 .cfa: sp 0 +
STACK CFI 4ac78 .cfa: sp 112 +
STACK CFI 4ac90 .cfa: x29 80 + x19: .cfa -8 + ^ x20: .cfa -16 + ^ x21: .cfa -24 + ^ x22: .cfa -32 + ^ x23: .cfa -40 + ^ x24: .cfa -48 + ^ x25: .cfa -56 + ^ x26: .cfa -64 + ^ .ra: .cfa -72 + ^ x29: .cfa -80 + ^
STACK CFI 4adbc .cfa: sp 112 +
STACK CFI 4add4 .cfa: sp 0 +
STACK CFI 4add8 .cfa: x29 80 +
STACK CFI INIT 4ae28 74 .cfa: sp 0 +
STACK CFI 4ae2c .cfa: sp 48 +
STACK CFI 4ae38 .cfa: x29 32 + x19: .cfa -8 + ^ x20: .cfa -16 + ^ .ra: .cfa -24 + ^ x29: .cfa -32 + ^
STACK CFI 4ae84 .cfa: sp 48 +
STACK CFI 4ae90 .cfa: sp 0 +
STACK CFI 4ae94 .cfa: x29 32 +
STACK CFI INIT 4ae9c 204 .cfa: sp 0 +
STACK CFI 4aea0 .cfa: sp 144 +
STACK CFI 4aeb0 .cfa: x29 48 + x19: .cfa -8 + ^ x20: .cfa -16 + ^ x21: .cfa -32 + ^ .ra: .cfa -40 + ^ x29: .cfa -48 + ^
STACK CFI 4afd8 .cfa: sp 144 +
STACK CFI 4afe8 .cfa: sp 0 +
STACK CFI 4afec .cfa: x29 48 +
STACK CFI INIT 4b11c 130 .cfa: sp 0 +
STACK CFI 4b120 .cfa: sp 112 +
STACK CFI 4b12c .cfa: x29 32 + x19: .cfa -8 + ^ x20: .cfa -16 + ^ .ra: .cfa -24 + ^ x29: .cfa -32 + ^
STACK CFI 4b20c .cfa: sp 112 +
STACK CFI 4b218 .cfa: sp 0 +
STACK CFI 4b21c .cfa: x29 32 +
STACK CFI INIT 4b3e4 43c .cfa: sp 0 +
STACK CFI 4b3e8 .cfa: sp 224 +
STACK CFI 4b404 .cfa: x29 96 + x19: .cfa -8 + ^ x20: .cfa -16 + ^ x21: .cfa -24 + ^ x22: .cfa -32 + ^ x23: .cfa -40 + ^ x24: .cfa -48 + ^ x25: .cfa -56 + ^ x26: .cfa -64 + ^ x27: .cfa -72 + ^ x28: .cfa -80 + ^ .ra: .cfa -88 + ^ x29: .cfa -96 + ^
STACK CFI 4b718 .cfa: sp 224 +
STACK CFI 4b734 .cfa: sp 0 +
STACK CFI 4b738 .cfa: x29 96 +
STACK CFI INIT 4b8a8 164 .cfa: sp 0 +
STACK CFI 4b8ac .cfa: sp 128 +
STACK CFI 4b8c0 .cfa: x29 64 + x19: .cfa -8 + ^ x20: .cfa -16 + ^ x21: .cfa -24 + ^ x22: .cfa -32 + ^ x23: .cfa -48 + ^ .ra: .cfa -56 + ^ x29: .cfa -64 + ^
STACK CFI 4b98c .cfa: sp 128 +
STACK CFI 4b9a0 .cfa: sp 0 +
STACK CFI 4b9a4 .cfa: x29 64 +
STACK CFI INIT 4ba0c 1a4 .cfa: sp 0 +
STACK CFI 4ba10 .cfa: sp 144 +
STACK CFI 4ba28 .cfa: x29 80 + x19: .cfa -8 + ^ x20: .cfa -16 + ^ x21: .cfa -24 + ^ x22: .cfa -32 + ^ x23: .cfa -40 + ^ x24: .cfa -48 + ^ x25: .cfa -64 + ^ .ra: .cfa -72 + ^ x29: .cfa -80 + ^
STACK CFI 4bb34 .cfa: sp 144 +
STACK CFI 4bb4c .cfa: sp 0 +
STACK CFI 4bb50 .cfa: x29 80 +
STACK CFI INIT 4bbb0 884 .cfa: sp 0 +
STACK CFI 4bbb4 .cfa: sp 384 +
STACK CFI 4bbd0 .cfa: x29 96 + x19: .cfa -8 + ^ x20: .cfa -16 + ^ x21: .cfa -24 + ^ x22: .cfa -32 + ^ x23: .cfa -40 + ^ x24: .cfa -48 + ^ x25: .cfa -56 + ^ x26: .cfa -64 + ^ x27: .cfa -72 + ^ x28: .cfa -80 + ^ .ra: .cfa -88 + ^ x29: .cfa -96 + ^
STACK CFI 4c208 .cfa: sp 384 +
STACK CFI 4c224 .cfa: sp 0 +
STACK CFI 4c228 .cfa: x29 96 +
STACK CFI INIT 4c4c4 e4 .cfa: sp 0 +
STACK CFI 4c4c8 .cfa: sp 32 +
STACK CFI 4c4d0 .cfa: x29 32 + x19: .cfa -8 + ^ x20: .cfa -16 + ^ .ra: .cfa -24 + ^ x29: .cfa -32 + ^
STACK CFI 4c52c .cfa: sp 32 +
STACK CFI 4c534 .cfa: sp 0 +
STACK CFI 4c538 .cfa: x29 32 +
STACK CFI 4c594 .cfa: sp 32 +
STACK CFI 4c59c .cfa: sp 0 +
STACK CFI 4c5a0 .cfa: x29 32 +
STACK CFI INIT 4c850 1bc .cfa: sp 0 +
STACK CFI 4c854 .cfa: sp 112 +
STACK CFI 4c864 .cfa: x29 48 + x19: .cfa -8 + ^ x20: .cfa -16 + ^ x21: .cfa -24 + ^ x22: .cfa -32 + ^ .ra: .cfa -40 + ^ x29: .cfa -48 + ^
STACK CFI 4c9c8 .cfa: sp 112 +
STACK CFI 4c9d8 .cfa: sp 0 +
STACK CFI 4c9dc .cfa: x29 48 +
STACK CFI INIT 4cd70 1cc .cfa: sp 0 +
STACK CFI 4cd74 .cfa: sp 128 +
STACK CFI 4cd88 .cfa: x29 64 + x19: .cfa -8 + ^ x20: .cfa -16 + ^ x21: .cfa -24 + ^ x22: .cfa -32 + ^ x23: .cfa -48 + ^ .ra: .cfa -56 + ^ x29: .cfa -64 + ^
STACK CFI 4cef4 .cfa: sp 128 +
STACK CFI 4cf08 .cfa: sp 0 +
STACK CFI 4cf0c .cfa: x29 64 +
STACK CFI INIT 4cf64 74 .cfa: sp 0 +
STACK CFI 4cf68 .cfa: sp 48 +
STACK CFI 4cf74 .cfa: x29 32 + x19: .cfa -8 + ^ x20: .cfa -16 + ^ .ra: .cfa -24 + ^ x29: .cfa -32 + ^
STACK CFI 4cfc0 .cfa: sp 48 +
STACK CFI 4cfcc .cfa: sp 0 +
STACK CFI 4cfd0 .cfa: x29 32 +
STACK CFI INIT 4cfd8 74 .cfa: sp 0 +
STACK CFI 4cfdc .cfa: sp 48 +
STACK CFI 4cfe8 .cfa: x29 32 + x19: .cfa -8 + ^ x20: .cfa -16 + ^ .ra: .cfa -24 + ^ x29: .cfa -32 + ^
STACK CFI 4d034 .cfa: sp 48 +
STACK CFI 4d040 .cfa: sp 0 +
STACK CFI 4d044 .cfa: x29 32 +
STACK CFI INIT 4d04c 74 .cfa: sp 0 +
STACK CFI 4d050 .cfa: sp 48 +
STACK CFI 4d05c .cfa: x29 32 + x19: .cfa -8 + ^ x20: .cfa -16 + ^ .ra: .cfa -24 + ^ x29: .cfa -32 + ^
STACK CFI 4d0a8 .cfa: sp 48 +
STACK CFI 4d0b4 .cfa: sp 0 +
STACK CFI 4d0b8 .cfa: x29 32 +
STACK CFI INIT 4d0c0 1d4 .cfa: sp 0 +
STACK CFI 4d0c4 .cfa: sp 320 +
STACK CFI 4d0dc .cfa: x29 80 + x19: .cfa -8 + ^ x20: .cfa -16 + ^ x21: .cfa -24 + ^ x22: .cfa -32 + ^ x23: .cfa -40 + ^ x24: .cfa -48 + ^ x28: .cfa -64 + ^ .ra: .cfa -72 + ^ x29: .cfa -80 + ^
STACK CFI 4d248 .cfa: sp 320 +
STACK CFI 4d260 .cfa: sp 0 +
STACK CFI 4d264 .cfa: x29 80 +
STACK CFI INIT 4d428 320 .cfa: sp 0 +
STACK CFI 4d42c .cfa: sp 176 +
STACK CFI 4d440 .cfa: x29 64 + x19: .cfa -8 + ^ x20: .cfa -16 + ^ x21: .cfa -24 + ^ x22: .cfa -32 + ^ x23: .cfa -48 + ^ .ra: .cfa -56 + ^ x29: .cfa -64 + ^
STACK CFI 4d688 .cfa: sp 176 +
STACK CFI 4d69c .cfa: sp 0 +
STACK CFI 4d6a0 .cfa: x29 64 +
STACK CFI INIT 4db6c 1b4 .cfa: sp 0 +
STACK CFI 4db70 .cfa: sp 128 +
STACK CFI 4db84 .cfa: x29 64 + x19: .cfa -8 + ^ x20: .cfa -16 + ^ x21: .cfa -24 + ^ x22: .cfa -32 + ^ x23: .cfa -48 + ^ .ra: .cfa -56 + ^ x29: .cfa -64 + ^
STACK CFI 4dcd8 .cfa: sp 128 +
STACK CFI 4dcec .cfa: sp 0 +
STACK CFI 4dcf0 .cfa: x29 64 +
STACK CFI INIT 4dd4c 1cc .cfa: sp 0 +
STACK CFI 4dd50 .cfa: sp 128 +
STACK CFI 4dd60 .cfa: x29 48 + x19: .cfa -8 + ^ x20: .cfa -16 + ^ x21: .cfa -32 + ^ .ra: .cfa -40 + ^ x29: .cfa -48 + ^
STACK CFI 4de9c .cfa: sp 128 +
STACK CFI 4deac .cfa: sp 0 +
STACK CFI 4deb0 .cfa: x29 48 +
STACK CFI INIT 4e2c4 1d0 .cfa: sp 0 +
STACK CFI 4e2c8 .cfa: sp 128 +
STACK CFI 4e2dc .cfa: x29 64 + x19: .cfa -8 + ^ x20: .cfa -16 + ^ x21: .cfa -24 + ^ x22: .cfa -32 + ^ x23: .cfa -48 + ^ .ra: .cfa -56 + ^ x29: .cfa -64 + ^
STACK CFI 4e454 .cfa: sp 128 +
STACK CFI 4e468 .cfa: sp 0 +
STACK CFI 4e46c .cfa: x29 64 +
STACK CFI INIT 4e6d8 1c4 .cfa: sp 0 +
STACK CFI 4e6dc .cfa: sp 112 +
STACK CFI 4e6ec .cfa: x29 48 + x19: .cfa -8 + ^ x20: .cfa -16 + ^ x21: .cfa -24 + ^ x22: .cfa -32 + ^ .ra: .cfa -40 + ^ x29: .cfa -48 + ^
STACK CFI 4e860 .cfa: sp 112 +
STACK CFI 4e870 .cfa: sp 0 +
STACK CFI 4e874 .cfa: x29 48 +
STACK CFI INIT 4e8d8 cc .cfa: sp 0 +
STACK CFI 4e8dc .cfa: sp 64 +
STACK CFI 4e8e8 .cfa: x29 32 + x19: .cfa -8 + ^ x20: .cfa -16 + ^ .ra: .cfa -24 + ^ x29: .cfa -32 + ^
STACK CFI 4e938 .cfa: sp 64 +
STACK CFI 4e944 .cfa: sp 0 +
STACK CFI 4e948 .cfa: x29 32 +
STACK CFI 4e96c .cfa: sp 64 +
STACK CFI 4e978 .cfa: sp 0 +
STACK CFI 4e97c .cfa: x29 32 +
STACK CFI INIT 4e9d0 310 .cfa: sp 0 +
STACK CFI 4e9d4 .cfa: sp 176 +
STACK CFI 4e9e8 .cfa: x29 64 + x19: .cfa -8 + ^ x20: .cfa -16 + ^ x21: .cfa -24 + ^ x22: .cfa -32 + ^ x23: .cfa -48 + ^ .ra: .cfa -56 + ^ x29: .cfa -64 + ^
STACK CFI 4ebd0 .cfa: sp 176 +
STACK CFI 4ebe4 .cfa: sp 0 +
STACK CFI 4ebe8 .cfa: x29 64 +
STACK CFI INIT 4ece4 eec .cfa: sp 0 +
STACK CFI 4ece8 .cfa: sp 96 +
STACK CFI 4ed00 .cfa: x29 96 + x19: .cfa -8 + ^ x20: .cfa -16 + ^ x21: .cfa -24 + ^ x22: .cfa -32 + ^ x23: .cfa -40 + ^ x24: .cfa -48 + ^ x25: .cfa -56 + ^ x26: .cfa -64 + ^ x27: .cfa -72 + ^ x28: .cfa -80 + ^ .ra: .cfa -88 + ^ x29: .cfa -96 + ^
STACK CFI 4f7ac .cfa: sp 96 +
STACK CFI 4f7c4 .cfa: sp 0 +
STACK CFI 4f7c8 .cfa: x29 96 +
STACK CFI INIT 4fbd0 ec .cfa: sp 0 +
STACK CFI 4fbd4 .cfa: sp 48 +
STACK CFI 4fbe0 .cfa: x29 48 + x19: .cfa -8 + ^ x20: .cfa -16 + ^ x21: .cfa -24 + ^ x22: .cfa -32 + ^ .ra: .cfa -40 + ^ x29: .cfa -48 + ^
STACK CFI 4fc2c .cfa: sp 48 +
STACK CFI 4fc38 .cfa: sp 0 +
STACK CFI 4fc3c .cfa: x29 48 +
STACK CFI 4fc40 .cfa: sp 48 +
STACK CFI 4fc4c .cfa: sp 0 +
STACK CFI 4fc50 .cfa: x29 48 +
STACK CFI INIT 4fdf8 43c .cfa: sp 0 +
STACK CFI 4fdfc .cfa: sp 224 +
STACK CFI 4fe18 .cfa: x29 96 + x19: .cfa -8 + ^ x20: .cfa -16 + ^ x21: .cfa -24 + ^ x22: .cfa -32 + ^ x23: .cfa -40 + ^ x24: .cfa -48 + ^ x25: .cfa -56 + ^ x26: .cfa -64 + ^ x27: .cfa -72 + ^ x28: .cfa -80 + ^ .ra: .cfa -88 + ^ x29: .cfa -96 + ^
STACK CFI 5012c .cfa: sp 224 +
STACK CFI 50148 .cfa: sp 0 +
STACK CFI 5014c .cfa: x29 96 +
STACK CFI INIT 5029c 284 .cfa: sp 0 +
STACK CFI 502a0 .cfa: sp 112 +
STACK CFI 502b4 .cfa: x29 64 + x19: .cfa -8 + ^ x20: .cfa -16 + ^ x21: .cfa -24 + ^ x22: .cfa -32 + ^ x23: .cfa -40 + ^ x24: .cfa -48 + ^ .ra: .cfa -56 + ^ x29: .cfa -64 + ^
STACK CFI 504b4 .cfa: sp 112 +
STACK CFI 504c8 .cfa: sp 0 +
STACK CFI 504cc .cfa: x29 64 +
STACK CFI INIT 505ac 310 .cfa: sp 0 +
STACK CFI 505b0 .cfa: sp 176 +
STACK CFI 505c4 .cfa: x29 64 + x19: .cfa -8 + ^ x20: .cfa -16 + ^ x21: .cfa -24 + ^ x22: .cfa -32 + ^ x23: .cfa -48 + ^ .ra: .cfa -56 + ^ x29: .cfa -64 + ^
STACK CFI 507ac .cfa: sp 176 +
STACK CFI 507c0 .cfa: sp 0 +
STACK CFI 507c4 .cfa: x29 64 +
STACK CFI INIT 50a50 134 .cfa: sp 0 +
STACK CFI 50a54 .cfa: sp 80 +
STACK CFI 50a60 .cfa: x29 32 + x19: .cfa -8 + ^ x20: .cfa -16 + ^ .ra: .cfa -24 + ^ x29: .cfa -32 + ^
STACK CFI 50a90 .cfa: sp 80 +
STACK CFI 50a9c .cfa: sp 0 +
STACK CFI 50aa0 .cfa: x29 32 +
STACK CFI INIT 50b84 78 .cfa: sp 0 +
STACK CFI 50b88 .cfa: sp 32 +
STACK CFI 50b90 .cfa: x29 32 + x19: .cfa -8 + ^ x20: .cfa -16 + ^ .ra: .cfa -24 + ^ x29: .cfa -32 + ^
STACK CFI 50b9c .cfa: sp 32 +
STACK CFI 50ba4 .cfa: sp 0 +
STACK CFI 50ba8 .cfa: x29 32 +
STACK CFI INIT 50bfc 74 .cfa: sp 0 +
STACK CFI 50c00 .cfa: sp 48 +
STACK CFI 50c0c .cfa: x29 32 + x19: .cfa -8 + ^ x20: .cfa -16 + ^ .ra: .cfa -24 + ^ x29: .cfa -32 + ^
STACK CFI 50c58 .cfa: sp 48 +
STACK CFI 50c64 .cfa: sp 0 +
STACK CFI 50c68 .cfa: x29 32 +
STACK CFI INIT 50cd4 208 .cfa: sp 0 +
STACK CFI 50cd8 .cfa: sp 112 +
STACK CFI 50ce8 .cfa: x29 48 + x19: .cfa -8 + ^ x20: .cfa -16 + ^ x21: .cfa -32 + ^ .ra: .cfa -40 + ^ x29: .cfa -48 + ^
STACK CFI 50d84 .cfa: sp 112 +
STACK CFI 50d94 .cfa: sp 0 +
STACK CFI 50d98 .cfa: x29 48 +
STACK CFI INIT 50f78 2d8 .cfa: sp 0 +
STACK CFI 50f7c .cfa: sp 128 +
STACK CFI 50f90 .cfa: x29 64 + x19: .cfa -8 + ^ x20: .cfa -16 + ^ x21: .cfa -24 + ^ x22: .cfa -32 + ^ x23: .cfa -48 + ^ .ra: .cfa -56 + ^ x29: .cfa -64 + ^
STACK CFI 510fc .cfa: sp 128 +
STACK CFI 51110 .cfa: sp 0 +
STACK CFI 51114 .cfa: x29 64 +
STACK CFI INIT 512f8 1b8 .cfa: sp 0 +
STACK CFI 512fc .cfa: sp 160 +
STACK CFI 51318 .cfa: x29 72 + x19: .cfa -8 + ^ x20: .cfa -16 + ^ x21: .cfa -24 + ^ x22: .cfa -32 + ^ x23: .cfa -40 + ^ x24: .cfa -48 + ^ x25: .cfa -56 + ^ .ra: .cfa -64 + ^ x29: .cfa -72 + ^ v8: .cfa -80 + ^
STACK CFI 5139c .cfa: sp 160 +
STACK CFI 513b8 .cfa: sp 0 +
STACK CFI 513bc .cfa: x29 72 +
STACK CFI INIT 514b0 4e4 .cfa: sp 0 +
STACK CFI 514b4 .cfa: sp 96 +
STACK CFI 514cc .cfa: x29 80 + x19: .cfa -8 + ^ x20: .cfa -16 + ^ x21: .cfa -24 + ^ x22: .cfa -32 + ^ x23: .cfa -40 + ^ x24: .cfa -48 + ^ x25: .cfa -64 + ^ .ra: .cfa -72 + ^ x29: .cfa -80 + ^
STACK CFI 51910 .cfa: sp 96 +
STACK CFI 51928 .cfa: sp 0 +
STACK CFI 5192c .cfa: x29 80 +
STACK CFI INIT 51994 190 .cfa: sp 0 +
STACK CFI 51998 .cfa: sp 144 +
STACK CFI 519ac .cfa: x29 64 + x19: .cfa -8 + ^ x20: .cfa -16 + ^ x21: .cfa -24 + ^ x22: .cfa -32 + ^ x23: .cfa -40 + ^ x24: .cfa -48 + ^ .ra: .cfa -56 + ^ x29: .cfa -64 + ^
STACK CFI 51a18 .cfa: sp 144 +
STACK CFI 51a2c .cfa: sp 0 +
STACK CFI 51a30 .cfa: x29 64 +
STACK CFI INIT 51b24 2d8 .cfa: sp 0 +
STACK CFI 51b28 .cfa: sp 96 +
STACK CFI 51b40 .cfa: x29 80 + x19: .cfa -8 + ^ x20: .cfa -16 + ^ x21: .cfa -24 + ^ x22: .cfa -32 + ^ x23: .cfa -40 + ^ x24: .cfa -48 + ^ x25: .cfa -64 + ^ .ra: .cfa -72 + ^ x29: .cfa -80 + ^
STACK CFI 51d98 .cfa: sp 96 +
STACK CFI 51db0 .cfa: sp 0 +
STACK CFI 51db4 .cfa: x29 80 +
STACK CFI INIT 51e04 f94 .cfa: sp 0 +
STACK CFI 51e08 .cfa: sp 160 +
STACK CFI 51e24 .cfa: x29 96 + x19: .cfa -8 + ^ x20: .cfa -16 + ^ x21: .cfa -24 + ^ x22: .cfa -32 + ^ x23: .cfa -40 + ^ x24: .cfa -48 + ^ x25: .cfa -56 + ^ x26: .cfa -64 + ^ x27: .cfa -72 + ^ x28: .cfa -80 + ^ .ra: .cfa -88 + ^ x29: .cfa -96 + ^
STACK CFI 52868 .cfa: sp 160 +
STACK CFI 52884 .cfa: sp 0 +
STACK CFI 52888 .cfa: x29 96 +
STACK CFI INIT 52dec 16c .cfa: sp 0 +
STACK CFI 52df0 .cfa: sp 160 +
STACK CFI 52e08 .cfa: x29 80 + x19: .cfa -8 + ^ x20: .cfa -16 + ^ x21: .cfa -24 + ^ x22: .cfa -32 + ^ x23: .cfa -40 + ^ x24: .cfa -48 + ^ x25: .cfa -56 + ^ x26: .cfa -64 + ^ .ra: .cfa -72 + ^ x29: .cfa -80 + ^
STACK CFI 52e70 .cfa: sp 160 +
STACK CFI 52e88 .cfa: sp 0 +
STACK CFI 52e8c .cfa: x29 80 +
STACK CFI INIT 52f58 4ac .cfa: sp 0 +
STACK CFI 52f5c .cfa: sp 128 +
STACK CFI 52f74 .cfa: x29 80 + x19: .cfa -8 + ^ x20: .cfa -16 + ^ x21: .cfa -24 + ^ x22: .cfa -32 + ^ x23: .cfa -40 + ^ x24: .cfa -48 + ^ x25: .cfa -64 + ^ .ra: .cfa -72 + ^ x29: .cfa -80 + ^
STACK CFI 53380 .cfa: sp 128 +
STACK CFI 53398 .cfa: sp 0 +
STACK CFI 5339c .cfa: x29 80 +
STACK CFI INIT 5340c 17c .cfa: sp 0 +
STACK CFI 53410 .cfa: sp 176 +
STACK CFI 5342c .cfa: x29 80 + x19: .cfa -8 + ^ x20: .cfa -16 + ^ x21: .cfa -24 + ^ x22: .cfa -32 + ^ x23: .cfa -40 + ^ x24: .cfa -48 + ^ x25: .cfa -56 + ^ x26: .cfa -64 + ^ .ra: .cfa -72 + ^ x29: .cfa -80 + ^ v8: .cfa -96 + ^
STACK CFI 5349c .cfa: sp 176 +
STACK CFI 534b8 .cfa: sp 0 +
STACK CFI 534bc .cfa: x29 80 +
STACK CFI INIT 53588 5ac .cfa: sp 0 +
STACK CFI 5358c .cfa: sp 128 +
STACK CFI 535a4 .cfa: x29 80 + x19: .cfa -8 + ^ x20: .cfa -16 + ^ x21: .cfa -24 + ^ x22: .cfa -32 + ^ x23: .cfa -40 + ^ x24: .cfa -48 + ^ x25: .cfa -64 + ^ .ra: .cfa -72 + ^ x29: .cfa -80 + ^
STACK CFI 53aa0 .cfa: sp 128 +
STACK CFI 53ab8 .cfa: sp 0 +
STACK CFI 53abc .cfa: x29 80 +
STACK CFI INIT 53b3c 15c .cfa: sp 0 +
STACK CFI 53b40 .cfa: sp 144 +
STACK CFI 53b58 .cfa: x29 56 + x19: .cfa -8 + ^ x20: .cfa -16 + ^ x21: .cfa -24 + ^ x22: .cfa -32 + ^ x23: .cfa -40 + ^ .ra: .cfa -48 + ^ x29: .cfa -56 + ^ v8: .cfa -64 + ^
STACK CFI 53bb0 .cfa: sp 144 +
STACK CFI 53bc8 .cfa: sp 0 +
STACK CFI 53bcc .cfa: x29 56 +
STACK CFI INIT 53c98 2d4 .cfa: sp 0 +
STACK CFI 53c9c .cfa: sp 96 +
STACK CFI 53cb4 .cfa: x29 80 + x19: .cfa -8 + ^ x20: .cfa -16 + ^ x21: .cfa -24 + ^ x22: .cfa -32 + ^ x23: .cfa -40 + ^ x24: .cfa -48 + ^ x25: .cfa -64 + ^ .ra: .cfa -72 + ^ x29: .cfa -80 + ^
STACK CFI 53f08 .cfa: sp 96 +
STACK CFI 53f20 .cfa: sp 0 +
STACK CFI 53f24 .cfa: x29 80 +
STACK CFI INIT 53f74 14c .cfa: sp 0 +
STACK CFI 53f78 .cfa: sp 144 +
STACK CFI 53f8c .cfa: x29 64 + x19: .cfa -8 + ^ x20: .cfa -16 + ^ x21: .cfa -24 + ^ x22: .cfa -32 + ^ x23: .cfa -48 + ^ .ra: .cfa -56 + ^ x29: .cfa -64 + ^
STACK CFI 53fdc .cfa: sp 144 +
STACK CFI 53ff0 .cfa: sp 0 +
STACK CFI 53ff4 .cfa: x29 64 +
STACK CFI INIT 540c0 108 .cfa: sp 0 +
STACK CFI 540c4 .cfa: sp 64 +
STACK CFI 540d4 .cfa: x29 48 + x19: .cfa -8 + ^ x20: .cfa -16 + ^ x21: .cfa -24 + ^ x22: .cfa -32 + ^ .ra: .cfa -40 + ^ x29: .cfa -48 + ^
STACK CFI 54180 .cfa: sp 64 +
STACK CFI 54190 .cfa: sp 0 +
STACK CFI 54194 .cfa: x29 48 +
STACK CFI INIT 541e0 164 .cfa: sp 0 +
STACK CFI 541e4 .cfa: sp 160 +
STACK CFI 541fc .cfa: x29 80 + x19: .cfa -8 + ^ x20: .cfa -16 + ^ x21: .cfa -24 + ^ x22: .cfa -32 + ^ x23: .cfa -40 + ^ x24: .cfa -48 + ^ x25: .cfa -64 + ^ .ra: .cfa -72 + ^ x29: .cfa -80 + ^
STACK CFI 5425c .cfa: sp 160 +
STACK CFI 54274 .cfa: sp 0 +
STACK CFI 54278 .cfa: x29 80 +
STACK CFI INIT 54344 3d4 .cfa: sp 0 +
STACK CFI 54348 .cfa: sp 96 +
STACK CFI 54360 .cfa: x29 80 + x19: .cfa -8 + ^ x20: .cfa -16 + ^ x21: .cfa -24 + ^ x22: .cfa -32 + ^ x23: .cfa -40 + ^ x24: .cfa -48 + ^ x25: .cfa -64 + ^ .ra: .cfa -72 + ^ x29: .cfa -80 + ^
STACK CFI 546a4 .cfa: sp 96 +
STACK CFI 546bc .cfa: sp 0 +
STACK CFI 546c0 .cfa: x29 80 +
STACK CFI INIT 54718 17c .cfa: sp 0 +
STACK CFI 5471c .cfa: sp 176 +
STACK CFI 54738 .cfa: x29 96 + x19: .cfa -8 + ^ x20: .cfa -16 + ^ x21: .cfa -24 + ^ x22: .cfa -32 + ^ x23: .cfa -40 + ^ x24: .cfa -48 + ^ x25: .cfa -56 + ^ x26: .cfa -64 + ^ x27: .cfa -80 + ^ .ra: .cfa -88 + ^ x29: .cfa -96 + ^
STACK CFI 547a8 .cfa: sp 176 +
STACK CFI 547c4 .cfa: sp 0 +
STACK CFI 547c8 .cfa: x29 96 +
STACK CFI INIT 54894 5d4 .cfa: sp 0 +
STACK CFI 54898 .cfa: sp 96 +
STACK CFI 548b0 .cfa: x29 80 + x19: .cfa -8 + ^ x20: .cfa -16 + ^ x21: .cfa -24 + ^ x22: .cfa -32 + ^ x23: .cfa -40 + ^ x24: .cfa -48 + ^ x25: .cfa -64 + ^ .ra: .cfa -72 + ^ x29: .cfa -80 + ^
STACK CFI 54dd4 .cfa: sp 96 +
STACK CFI 54dec .cfa: sp 0 +
STACK CFI 54df0 .cfa: x29 80 +
STACK CFI INIT 54e68 14c .cfa: sp 0 +
STACK CFI 54e6c .cfa: sp 144 +
STACK CFI 54e80 .cfa: x29 64 + x19: .cfa -8 + ^ x20: .cfa -16 + ^ x21: .cfa -24 + ^ x22: .cfa -32 + ^ x23: .cfa -48 + ^ .ra: .cfa -56 + ^ x29: .cfa -64 + ^
STACK CFI 54ed0 .cfa: sp 144 +
STACK CFI 54ee4 .cfa: sp 0 +
STACK CFI 54ee8 .cfa: x29 64 +
STACK CFI INIT 54fb4 108 .cfa: sp 0 +
STACK CFI 54fb8 .cfa: sp 64 +
STACK CFI 54fc8 .cfa: x29 48 + x19: .cfa -8 + ^ x20: .cfa -16 + ^ x21: .cfa -24 + ^ x22: .cfa -32 + ^ .ra: .cfa -40 + ^ x29: .cfa -48 + ^
STACK CFI 55074 .cfa: sp 64 +
STACK CFI 55084 .cfa: sp 0 +
STACK CFI 55088 .cfa: x29 48 +
STACK CFI INIT 550bc 180 .cfa: sp 0 +
STACK CFI 550c0 .cfa: sp 128 +
STACK CFI 550d0 .cfa: x29 48 + x19: .cfa -8 + ^ x20: .cfa -16 + ^ x21: .cfa -24 + ^ x22: .cfa -32 + ^ .ra: .cfa -40 + ^ x29: .cfa -48 + ^
STACK CFI 55134 .cfa: sp 128 +
STACK CFI 55144 .cfa: sp 0 +
STACK CFI 55148 .cfa: x29 48 +
STACK CFI INIT 5523c a4 .cfa: sp 0 +
STACK CFI 55240 .cfa: sp 48 +
STACK CFI 5524c .cfa: x29 48 + x19: .cfa -8 + ^ x20: .cfa -16 + ^ x21: .cfa -32 + ^ .ra: .cfa -40 + ^ x29: .cfa -48 + ^
STACK CFI 552b8 .cfa: sp 48 +
STACK CFI 552c4 .cfa: sp 0 +
STACK CFI 552c8 .cfa: x29 48 +
STACK CFI INIT 552e0 31c .cfa: sp 0 +
STACK CFI 552e4 .cfa: sp 128 +
STACK CFI 552f8 .cfa: x29 64 + x19: .cfa -8 + ^ x20: .cfa -16 + ^ x21: .cfa -24 + ^ x22: .cfa -32 + ^ x23: .cfa -48 + ^ .ra: .cfa -56 + ^ x29: .cfa -64 + ^
STACK CFI 554a8 .cfa: sp 128 +
STACK CFI 554bc .cfa: sp 0 +
STACK CFI 554c0 .cfa: x29 64 +
STACK CFI INIT 55678 174 .cfa: sp 0 +
STACK CFI 5567c .cfa: sp 144 +
STACK CFI 55690 .cfa: x29 64 + x19: .cfa -8 + ^ x20: .cfa -16 + ^ x21: .cfa -24 + ^ x22: .cfa -32 + ^ x23: .cfa -48 + ^ .ra: .cfa -56 + ^ x29: .cfa -64 + ^
STACK CFI 556f4 .cfa: sp 144 +
STACK CFI 55708 .cfa: sp 0 +
STACK CFI 5570c .cfa: x29 64 +
STACK CFI INIT 557ec 10c .cfa: sp 0 +
STACK CFI 557f0 .cfa: sp 64 +
STACK CFI 55800 .cfa: x29 48 + x19: .cfa -8 + ^ x20: .cfa -16 + ^ x21: .cfa -24 + ^ x22: .cfa -32 + ^ .ra: .cfa -40 + ^ x29: .cfa -48 + ^
STACK CFI 558b0 .cfa: sp 64 +
STACK CFI 558c0 .cfa: sp 0 +
STACK CFI 558c4 .cfa: x29 48 +
STACK CFI INIT 55900 174 .cfa: sp 0 +
STACK CFI 55904 .cfa: sp 144 +
STACK CFI 55918 .cfa: x29 64 + x19: .cfa -8 + ^ x20: .cfa -16 + ^ x21: .cfa -24 + ^ x22: .cfa -32 + ^ x23: .cfa -48 + ^ .ra: .cfa -56 + ^ x29: .cfa -64 + ^
STACK CFI 5597c .cfa: sp 144 +
STACK CFI 55990 .cfa: sp 0 +
STACK CFI 55994 .cfa: x29 64 +
STACK CFI INIT 55a74 10c .cfa: sp 0 +
STACK CFI 55a78 .cfa: sp 64 +
STACK CFI 55a88 .cfa: x29 48 + x19: .cfa -8 + ^ x20: .cfa -16 + ^ x21: .cfa -24 + ^ x22: .cfa -32 + ^ .ra: .cfa -40 + ^ x29: .cfa -48 + ^
STACK CFI 55b38 .cfa: sp 64 +
STACK CFI 55b48 .cfa: sp 0 +
STACK CFI 55b4c .cfa: x29 48 +
STACK CFI INIT 55b88 174 .cfa: sp 0 +
STACK CFI 55b8c .cfa: sp 144 +
STACK CFI 55ba0 .cfa: x29 64 + x19: .cfa -8 + ^ x20: .cfa -16 + ^ x21: .cfa -24 + ^ x22: .cfa -32 + ^ x23: .cfa -48 + ^ .ra: .cfa -56 + ^ x29: .cfa -64 + ^
STACK CFI 55c04 .cfa: sp 144 +
STACK CFI 55c18 .cfa: sp 0 +
STACK CFI 55c1c .cfa: x29 64 +
STACK CFI INIT 55cfc 10c .cfa: sp 0 +
STACK CFI 55d00 .cfa: sp 64 +
STACK CFI 55d10 .cfa: x29 48 + x19: .cfa -8 + ^ x20: .cfa -16 + ^ x21: .cfa -24 + ^ x22: .cfa -32 + ^ .ra: .cfa -40 + ^ x29: .cfa -48 + ^
STACK CFI 55dc0 .cfa: sp 64 +
STACK CFI 55dd0 .cfa: sp 0 +
STACK CFI 55dd4 .cfa: x29 48 +
STACK CFI INIT 55e2c 2bc .cfa: sp 0 +
STACK CFI 55e30 .cfa: sp 128 +
STACK CFI 55e44 .cfa: x29 64 + x19: .cfa -8 + ^ x20: .cfa -16 + ^ x21: .cfa -24 + ^ x22: .cfa -32 + ^ x23: .cfa -48 + ^ .ra: .cfa -56 + ^ x29: .cfa -64 + ^
STACK CFI 55f94 .cfa: sp 128 +
STACK CFI 55fa8 .cfa: sp 0 +
STACK CFI 55fac .cfa: x29 64 +
STACK CFI INIT 5610c 278 .cfa: sp 0 +
STACK CFI 56110 .cfa: sp 128 +
STACK CFI 56124 .cfa: x29 64 + x19: .cfa -8 + ^ x20: .cfa -16 + ^ x21: .cfa -24 + ^ x22: .cfa -32 + ^ x23: .cfa -48 + ^ .ra: .cfa -56 + ^ x29: .cfa -64 + ^
STACK CFI 56230 .cfa: sp 128 +
STACK CFI 56244 .cfa: sp 0 +
STACK CFI 56248 .cfa: x29 64 +
STACK CFI INIT 56384 2c8 .cfa: sp 0 +
STACK CFI 56388 .cfa: sp 128 +
STACK CFI 5639c .cfa: x29 64 + x19: .cfa -8 + ^ x20: .cfa -16 + ^ x21: .cfa -24 + ^ x22: .cfa -32 + ^ x23: .cfa -48 + ^ .ra: .cfa -56 + ^ x29: .cfa -64 + ^
STACK CFI 564f8 .cfa: sp 128 +
STACK CFI 5650c .cfa: sp 0 +
STACK CFI 56510 .cfa: x29 64 +
STACK CFI INIT 5664c 4cc .cfa: sp 0 +
STACK CFI 56650 .cfa: sp 128 +
STACK CFI 56664 .cfa: x29 64 + x19: .cfa -8 + ^ x20: .cfa -16 + ^ x21: .cfa -24 + ^ x22: .cfa -32 + ^ x23: .cfa -48 + ^ .ra: .cfa -56 + ^ x29: .cfa -64 + ^
STACK CFI 56970 .cfa: sp 128 +
STACK CFI 56984 .cfa: sp 0 +
STACK CFI 56988 .cfa: x29 64 +
STACK CFI INIT 56b18 154 .cfa: sp 0 +
STACK CFI 56b1c .cfa: sp 384 +
STACK CFI 56b30 .cfa: x29 64 + x19: .cfa -8 + ^ x20: .cfa -16 + ^ x21: .cfa -24 + ^ x22: .cfa -32 + ^ x23: .cfa -40 + ^ x28: .cfa -48 + ^ .ra: .cfa -56 + ^ x29: .cfa -64 + ^
STACK CFI 56c14 .cfa: sp 384 +
STACK CFI 56c28 .cfa: sp 0 +
STACK CFI 56c2c .cfa: x29 64 +
STACK CFI INIT 56c84 4e0 .cfa: sp 0 +
STACK CFI 56c88 .cfa: sp 64 +
STACK CFI 56c98 .cfa: x29 64 + x19: .cfa -8 + ^ x20: .cfa -16 + ^ x21: .cfa -24 + ^ x22: .cfa -32 + ^ x23: .cfa -40 + ^ x24: .cfa -48 + ^ .ra: .cfa -56 + ^ x29: .cfa -64 + ^
STACK CFI 57138 .cfa: sp 64 +
STACK CFI 57148 .cfa: sp 0 +
STACK CFI 5714c .cfa: x29 64 +
STACK CFI INIT 57494 294 .cfa: sp 0 +
STACK CFI 57498 .cfa: sp 240 +
STACK CFI 574b0 .cfa: x29 80 + x19: .cfa -8 + ^ x20: .cfa -16 + ^ x21: .cfa -24 + ^ x22: .cfa -32 + ^ x23: .cfa -40 + ^ x24: .cfa -48 + ^ x25: .cfa -64 + ^ .ra: .cfa -72 + ^ x29: .cfa -80 + ^
STACK CFI 57650 .cfa: sp 240 +
STACK CFI 57668 .cfa: sp 0 +
STACK CFI 5766c .cfa: x29 80 +
STACK CFI INIT 577a4 50 .cfa: sp 0 +
STACK CFI 577a8 .cfa: sp 32 +
STACK CFI 577b0 .cfa: x29 32 + x19: .cfa -8 + ^ x20: .cfa -16 + ^ .ra: .cfa -24 + ^ x29: .cfa -32 + ^
STACK CFI INIT 57820 7c0 .cfa: sp 0 +
STACK CFI 57824 .cfa: sp 320 +
STACK CFI 57840 .cfa: x29 96 + x19: .cfa -8 + ^ x20: .cfa -16 + ^ x21: .cfa -24 + ^ x22: .cfa -32 + ^ x23: .cfa -40 + ^ x24: .cfa -48 + ^ x25: .cfa -56 + ^ x26: .cfa -64 + ^ x27: .cfa -72 + ^ x28: .cfa -80 + ^ .ra: .cfa -88 + ^ x29: .cfa -96 + ^
STACK CFI 57e90 .cfa: sp 320 +
STACK CFI 57eac .cfa: sp 0 +
STACK CFI 57eb0 .cfa: x29 96 +
STACK CFI INIT 5bb84 c84 .cfa: sp 0 +
STACK CFI 5bb88 .cfa: sp 96 +
STACK CFI 5bba0 .cfa: x29 96 + x19: .cfa -8 + ^ x20: .cfa -16 + ^ x21: .cfa -24 + ^ x22: .cfa -32 + ^ x23: .cfa -40 + ^ x24: .cfa -48 + ^ x25: .cfa -56 + ^ x26: .cfa -64 + ^ x27: .cfa -72 + ^ x28: .cfa -80 + ^ .ra: .cfa -88 + ^ x29: .cfa -96 + ^
STACK CFI 5c628 .cfa: sp 96 +
STACK CFI 5c640 .cfa: sp 0 +
STACK CFI 5c644 .cfa: x29 96 +
STACK CFI INIT 5c95c 26c .cfa: sp 0 +
STACK CFI 5c960 .cfa: sp 128 +
STACK CFI 5c970 .cfa: x29 48 + x19: .cfa -8 + ^ x20: .cfa -16 + ^ x21: .cfa -24 + ^ x22: .cfa -32 + ^ .ra: .cfa -40 + ^ x29: .cfa -48 + ^
STACK CFI 5cb14 .cfa: sp 128 +
STACK CFI 5cb24 .cfa: sp 0 +
STACK CFI 5cb28 .cfa: x29 48 +
STACK CFI INIT 5cf58 3b8 .cfa: sp 0 +
STACK CFI 5cf5c .cfa: sp 96 +
STACK CFI 5cf74 .cfa: x29 96 + x19: .cfa -8 + ^ x20: .cfa -16 + ^ x21: .cfa -24 + ^ x22: .cfa -32 + ^ x23: .cfa -40 + ^ x24: .cfa -48 + ^ x25: .cfa -56 + ^ x26: .cfa -64 + ^ x27: .cfa -72 + ^ x28: .cfa -80 + ^ .ra: .cfa -88 + ^ x29: .cfa -96 + ^
STACK CFI 5d2b0 .cfa: sp 96 +
STACK CFI 5d2c8 .cfa: sp 0 +
STACK CFI 5d2cc .cfa: x29 96 +
STACK CFI INIT 5d3b0 cc0 .cfa: sp 0 +
STACK CFI 5d3b4 .cfa: sp 96 +
STACK CFI 5d3cc .cfa: x29 96 + x19: .cfa -8 + ^ x20: .cfa -16 + ^ x21: .cfa -24 + ^ x22: .cfa -32 + ^ x23: .cfa -40 + ^ x24: .cfa -48 + ^ x25: .cfa -56 + ^ x26: .cfa -64 + ^ x27: .cfa -72 + ^ x28: .cfa -80 + ^ .ra: .cfa -88 + ^ x29: .cfa -96 + ^
STACK CFI 5de80 .cfa: sp 96 +
STACK CFI 5de98 .cfa: sp 0 +
STACK CFI 5de9c .cfa: x29 96 +
STACK CFI INIT 5e358 af8 .cfa: sp 0 +
STACK CFI 5e35c .cfa: sp 96 +
STACK CFI 5e374 .cfa: x29 96 + x19: .cfa -8 + ^ x20: .cfa -16 + ^ x21: .cfa -24 + ^ x22: .cfa -32 + ^ x23: .cfa -40 + ^ x24: .cfa -48 + ^ x25: .cfa -56 + ^ x26: .cfa -64 + ^ x27: .cfa -72 + ^ x28: .cfa -80 + ^ .ra: .cfa -88 + ^ x29: .cfa -96 + ^
STACK CFI 5edc4 .cfa: sp 96 +
STACK CFI 5eddc .cfa: sp 0 +
STACK CFI 5ede0 .cfa: x29 96 +
STACK CFI INIT 5f044 1430 .cfa: sp 0 +
STACK CFI 5f048 .cfa: sp 96 +
STACK CFI 5f060 .cfa: x29 96 + x19: .cfa -8 + ^ x20: .cfa -16 + ^ x21: .cfa -24 + ^ x22: .cfa -32 + ^ x23: .cfa -40 + ^ x24: .cfa -48 + ^ x25: .cfa -56 + ^ x26: .cfa -64 + ^ x27: .cfa -72 + ^ x28: .cfa -80 + ^ .ra: .cfa -88 + ^ x29: .cfa -96 + ^
STACK CFI 602fc .cfa: sp 96 +
STACK CFI 60314 .cfa: sp 0 +
STACK CFI 60318 .cfa: x29 96 +
STACK CFI INIT 60598 75c .cfa: sp 0 +
STACK CFI 6059c .cfa: sp 368 +
STACK CFI 605b8 .cfa: x29 96 + x19: .cfa -8 + ^ x20: .cfa -16 + ^ x21: .cfa -24 + ^ x22: .cfa -32 + ^ x23: .cfa -40 + ^ x24: .cfa -48 + ^ x25: .cfa -56 + ^ x26: .cfa -64 + ^ x27: .cfa -72 + ^ x28: .cfa -80 + ^ .ra: .cfa -88 + ^ x29: .cfa -96 + ^
STACK CFI 6066c .cfa: sp 368 +
STACK CFI 60688 .cfa: sp 0 +
STACK CFI 6068c .cfa: x29 96 +
STACK CFI 606e0 .cfa: sp 368 +
STACK CFI 606fc .cfa: sp 0 +
STACK CFI 60700 .cfa: x29 96 +
STACK CFI INIT 610b4 ee0 .cfa: sp 0 +
STACK CFI 610b8 .cfa: sp 96 +
STACK CFI 610d0 .cfa: x29 96 + x19: .cfa -8 + ^ x20: .cfa -16 + ^ x21: .cfa -24 + ^ x22: .cfa -32 + ^ x23: .cfa -40 + ^ x24: .cfa -48 + ^ x25: .cfa -56 + ^ x26: .cfa -64 + ^ x27: .cfa -72 + ^ x28: .cfa -80 + ^ .ra: .cfa -88 + ^ x29: .cfa -96 + ^
STACK CFI 61d8c .cfa: sp 96 +
STACK CFI 61da4 .cfa: sp 0 +
STACK CFI 61da8 .cfa: x29 96 +
STACK CFI INIT 62308 14b4 .cfa: sp 0 +
STACK CFI 6230c .cfa: sp 112 +
STACK CFI 62328 .cfa: x29 96 + x19: .cfa -8 + ^ x20: .cfa -16 + ^ x21: .cfa -24 + ^ x22: .cfa -32 + ^ x23: .cfa -40 + ^ x24: .cfa -48 + ^ x25: .cfa -56 + ^ x26: .cfa -64 + ^ x27: .cfa -72 + ^ x28: .cfa -80 + ^ .ra: .cfa -88 + ^ x29: .cfa -96 + ^ v8: .cfa -112 + ^
STACK CFI 62708 .cfa: sp 112 +
STACK CFI 62724 .cfa: sp 0 +
STACK CFI 62728 .cfa: x29 96 +
STACK CFI INIT 65bcc 9a0 .cfa: sp 0 +
STACK CFI 65bd0 .cfa: sp 144 +
STACK CFI 65be8 .cfa: x29 80 + x19: .cfa -8 + ^ x20: .cfa -16 + ^ x21: .cfa -24 + ^ x22: .cfa -32 + ^ x23: .cfa -40 + ^ x24: .cfa -48 + ^ x25: .cfa -64 + ^ .ra: .cfa -72 + ^ x29: .cfa -80 + ^
STACK CFI 664e8 .cfa: sp 144 +
STACK CFI 66500 .cfa: sp 0 +
STACK CFI 66504 .cfa: x29 80 +
STACK CFI INIT 6656c 57c .cfa: sp 0 +
STACK CFI 66570 .cfa: sp 96 +
STACK CFI 66588 .cfa: x29 96 + x19: .cfa -8 + ^ x20: .cfa -16 + ^ x21: .cfa -24 + ^ x22: .cfa -32 + ^ x23: .cfa -40 + ^ x24: .cfa -48 + ^ x25: .cfa -56 + ^ x26: .cfa -64 + ^ x27: .cfa -72 + ^ x28: .cfa -80 + ^ .ra: .cfa -88 + ^ x29: .cfa -96 + ^
STACK CFI 66a4c .cfa: sp 96 +
STACK CFI 66a64 .cfa: sp 0 +
STACK CFI 66a68 .cfa: x29 96 +
STACK CFI INIT 66ae8 67c .cfa: sp 0 +
STACK CFI 66aec .cfa: sp 96 +
STACK CFI 66b04 .cfa: x29 96 + x19: .cfa -8 + ^ x20: .cfa -16 + ^ x21: .cfa -24 + ^ x22: .cfa -32 + ^ x23: .cfa -40 + ^ x24: .cfa -48 + ^ x25: .cfa -56 + ^ x26: .cfa -64 + ^ x27: .cfa -72 + ^ x28: .cfa -80 + ^ .ra: .cfa -88 + ^ x29: .cfa -96 + ^
STACK CFI 670c8 .cfa: sp 96 +
STACK CFI 670e0 .cfa: sp 0 +
STACK CFI 670e4 .cfa: x29 96 +
