MODULE Linux arm64 7DD3E4921F98C037473A671952B39A040 cvolton.betterinfo.android64.so
INFO CODE_ID 92E4D37D981F37C0473A671952B39A041FE08008
INFO GENERATOR mozilla/dump_syms 2.3.4
PUBLIC a60b0 0 __on_dlclose
PUBLIC a60c0 0 __emutls_unregister_key
PUBLIC a60c8 0 __on_dlclose_late
PUBLIC a60d0 0 __atexit_handler_wrapper
PUBLIC a60e4 0 atexit
PUBLIC a6100 0 pthread_atfork
PUBLIC a6110 0 unwind_phase2
PUBLIC a6244 0 _Unwind_Resume
PUBLIC a62c8 0 unwind_phase2_forced
PUBLIC m a63bc 0 __unw_init_local
PUBLIC m a6464 0 __unw_get_reg
PUBLIC a64e0 0 __unw_step_stage2
PUBLIC m a64f4 0 __unw_get_proc_info
PUBLIC m a6534 0 __unw_resume
PUBLIC a655c 0 libunwind::CFI_Parser<libunwind::LocalAddressSpace>::decodeFDE(libunwind::LocalAddressSpace&, unsigned long, libunwind::CFI_Parser<libunwind::LocalAddressSpace>::FDE_Info*, libunwind::CFI_Parser<libunwind::LocalAddressSpace>::CIE_Info*, bool)
PUBLIC a66ec 0 libunwind::CFI_Parser<libunwind::LocalAddressSpace>::parseCIE(libunwind::LocalAddressSpace&, unsigned long, libunwind::CFI_Parser<libunwind::LocalAddressSpace>::CIE_Info*)
PUBLIC a69b4 0 libunwind::AbstractUnwindCursor::~AbstractUnwindCursor()
PUBLIC a69bc 0 libunwind::UnwindCursor<libunwind::LocalAddressSpace, libunwind::Registers_arm64>::~UnwindCursor()
PUBLIC a69c4 0 libunwind::UnwindCursor<libunwind::LocalAddressSpace, libunwind::Registers_arm64>::validReg(int)
PUBLIC a6a08 0 libunwind::UnwindCursor<libunwind::LocalAddressSpace, libunwind::Registers_arm64>::getReg(int)
PUBLIC a6af0 0 libunwind::UnwindCursor<libunwind::LocalAddressSpace, libunwind::Registers_arm64>::setReg(int, unsigned long)
PUBLIC a6bd8 0 libunwind::UnwindCursor<libunwind::LocalAddressSpace, libunwind::Registers_arm64>::validFloatReg(int)
PUBLIC a6bec 0 libunwind::UnwindCursor<libunwind::LocalAddressSpace, libunwind::Registers_arm64>::getFloatReg(int)
PUBLIC a6bfc 0 libunwind::UnwindCursor<libunwind::LocalAddressSpace, libunwind::Registers_arm64>::setFloatReg(int, double)
PUBLIC a6c0c 0 libunwind::UnwindCursor<libunwind::LocalAddressSpace, libunwind::Registers_arm64>::step(bool)
PUBLIC a6cfc 0 libunwind::UnwindCursor<libunwind::LocalAddressSpace, libunwind::Registers_arm64>::getInfo(unw_proc_info_t*)
PUBLIC a6d40 0 libunwind::UnwindCursor<libunwind::LocalAddressSpace, libunwind::Registers_arm64>::jumpto()
PUBLIC a6d4c 0 libunwind::UnwindCursor<libunwind::LocalAddressSpace, libunwind::Registers_arm64>::isSignalFrame()
PUBLIC a6d58 0 libunwind::UnwindCursor<libunwind::LocalAddressSpace, libunwind::Registers_arm64>::getFunctionName(char*, unsigned long, unsigned long*)
PUBLIC a6d84 0 libunwind::UnwindCursor<libunwind::LocalAddressSpace, libunwind::Registers_arm64>::setInfoBasedOnIPRegister(bool)
PUBLIC a6fc0 0 libunwind::UnwindCursor<libunwind::LocalAddressSpace, libunwind::Registers_arm64>::getRegisterName(int)
PUBLIC a6fcc 0 libunwind::UnwindCursor<libunwind::LocalAddressSpace, libunwind::Registers_arm64>::stepThroughSigReturn(libunwind::Registers_arm64&)
PUBLIC a70ec 0 libunwind::DwarfInstructions<libunwind::LocalAddressSpace, libunwind::Registers_arm64>::stepWithDwarf(libunwind::LocalAddressSpace&, unsigned long, unsigned long, libunwind::Registers_arm64&, bool&, bool)
PUBLIC a7580 0 libunwind::CFI_Parser<libunwind::LocalAddressSpace>::parseFDEInstructions(libunwind::LocalAddressSpace&, libunwind::CFI_Parser<libunwind::LocalAddressSpace>::FDE_Info const&, libunwind::CFI_Parser<libunwind::LocalAddressSpace>::CIE_Info const&, unsigned long, int, libunwind::CFI_Parser<libunwind::LocalAddressSpace>::PrologInfo*)
PUBLIC a80f8 0 libunwind::DwarfInstructions<libunwind::LocalAddressSpace, libunwind::Registers_arm64>::getCFA(libunwind::LocalAddressSpace&, libunwind::CFI_Parser<libunwind::LocalAddressSpace>::PrologInfo const&, libunwind::Registers_arm64 const&)
PUBLIC a822c 0 libunwind::DwarfInstructions<libunwind::LocalAddressSpace, libunwind::Registers_arm64>::getSavedRegister(libunwind::LocalAddressSpace&, libunwind::Registers_arm64 const&, unsigned long, libunwind::CFI_Parser<libunwind::LocalAddressSpace>::RegisterLocation const&)
PUBLIC a843c 0 libunwind::LocalAddressSpace::getEncodedP(unsigned long&, unsigned long, unsigned char, unsigned long)
PUBLIC a87c8 0 libunwind::LocalAddressSpace::getULEB128(unsigned long&, unsigned long)
PUBLIC a8990 0 libunwind::DwarfInstructions<libunwind::LocalAddressSpace, libunwind::Registers_arm64>::evaluateExpression(unsigned long, libunwind::LocalAddressSpace&, libunwind::Registers_arm64 const&, unsigned long)
PUBLIC a9354 0 libunwind::UnwindCursor<libunwind::LocalAddressSpace, libunwind::Registers_arm64>::getInfoFromDwarfSection(unsigned long, libunwind::UnwindInfoSections const&, unsigned int)
PUBLIC a9628 0 libunwind::findUnwindSectionsByPhdr(dl_phdr_info*, unsigned long, void*)
PUBLIC a9758 0 libunwind::EHHeaderParser<libunwind::LocalAddressSpace>::decodeEHHdr(libunwind::LocalAddressSpace&, unsigned long, unsigned long, libunwind::EHHeaderParser<libunwind::LocalAddressSpace>::EHHeaderInfo&)
PUBLIC a9878 0 libunwind::CFI_Parser<libunwind::LocalAddressSpace>::findFDE(libunwind::LocalAddressSpace&, unsigned long, unsigned long, unsigned long, unsigned long, libunwind::CFI_Parser<libunwind::LocalAddressSpace>::FDE_Info*, libunwind::CFI_Parser<libunwind::LocalAddressSpace>::CIE_Info*)
PUBLIC a9a40 0 libunwind::EHHeaderParser<libunwind::LocalAddressSpace>::findFDE(libunwind::LocalAddressSpace&, unsigned long, unsigned long, unsigned int, libunwind::CFI_Parser<libunwind::LocalAddressSpace>::FDE_Info*, libunwind::CFI_Parser<libunwind::LocalAddressSpace>::CIE_Info*)
PUBLIC a9ba8 0 libunwind::EHHeaderParser<libunwind::LocalAddressSpace>::getTableEntrySize(unsigned char)
PUBLIC a9ca4 0 libunwind::Registers_arm64::getRegisterName(int)
PUBLIC a9cd4 0 __libunwind_Registers_arm64_jumpto
PUBLIC m a9d64 0 __unw_getcontext
PUBLIC a9e00 0 __aarch64_ldadd8_relax
PUBLIC a9e30 0 init_have_lse_atomics
PUBLIC a9ec8 0 __init_cpu_features_constructor
PUBLIC aa174 0 __init_cpu_features
PUBLIC aa200 0 __aarch64_ldadd8_acq_rel
PUBLIC aa230 0 __cxx_global_var_init
PUBLIC aa6a0 0 geode::modifier::ModifyBase<geode::modifier::ModifyDerive<BIChallengesPage, ChallengesPage> >::~ModifyBase()
PUBLIC aa6bc 0 geode::modifier::ModifyDerive<BIChallengesPage, ChallengesPage>::apply()
PUBLIC aafe4 0 std::__ndk1::shared_ptr<geode::Hook>::~shared_ptr[abi:ne190000]()
PUBLIC ab034 0 geode::impl::ResultData<geode::Hook*, std::__ndk1::basic_string<char, std::__ndk1::char_traits<char>, std::__ndk1::allocator<char> > >::~ResultData()
PUBLIC ab0a8 0 std::__ndk1::vector<std::__ndk1::basic_string<char, std::__ndk1::char_traits<char>, std::__ndk1::allocator<char> >, std::__ndk1::allocator<std::__ndk1::basic_string<char, std::__ndk1::char_traits<char>, std::__ndk1::allocator<char> > > >::~vector[abi:ne190000]()
PUBLIC ab124 0 geode::modifier::ModifyBase<geode::modifier::ModifyDerive<BIChallengesPage, ChallengesPage> >::apply()
PUBLIC ab128 0 __clang_call_terminate
PUBLIC ab138 0 _ZN5geode15UnwrapExceptionC2IRPNS_4HookEQsr4implE18IsStringStreamableIT_EEENS_4impl5OkTagEOS5_
PUBLIC ab28c 0 std::__ndk1::__throw_bad_variant_access[abi:ne190000]()
PUBLIC ab2c0 0 std::__ndk1::basic_stringstream<char, std::__ndk1::char_traits<char>, std::__ndk1::allocator<char> >::basic_stringstream[abi:ne190000]()
PUBLIC m ab3f4 0 std::__ndk1::basic_stringstream<char, std::__ndk1::char_traits<char>, std::__ndk1::allocator<char> >::~basic_stringstream()
PUBLIC ab474 0 geode::UnwrapException::~UnwrapException()
PUBLIC ab498 0 std::__ndk1::__put_character_sequence[abi:ne190000]<char, std::__ndk1::char_traits<char> >(std::__ndk1::basic_ostream<char, std::__ndk1::char_traits<char> >, std::__ndk1::basic_ostream const*, unsigned long)
PUBLIC ab63c 0 std::__ndk1::__pad_and_output[abi:ne190000]<char, std::__ndk1::char_traits<char> >(std::__ndk1::char_traits<char>, std::__ndk1::ostreambuf_iterator const*, std::__ndk1::ostreambuf_iterator const, std::__ndk1::ostreambuf_iterator const, std::__ndk1::ios_base&, std::__ndk1::ostreambuf_iterator)
PUBLIC ab828 0 std::__ndk1::basic_string<char, std::__ndk1::char_traits<char>, std::__ndk1::allocator<char> >::__throw_length_error[abi:ne190000]() const
PUBLIC ab83c 0 std::__ndk1::__throw_length_error[abi:ne190000](char const*)
PUBLIC ab88c 0 std::length_error::length_error[abi:ne190000](char const*)
PUBLIC ab8bc 0 std::__throw_bad_array_new_length([abi:ne190000], void)
PUBLIC ab8f0 0 std::__ndk1::basic_stringbuf<char, std::__ndk1::char_traits<char>, std::__ndk1::allocator<char> >::str[abi:ne190000]() &&
PUBLIC aba60 0 std::__ndk1::basic_stringbuf<char, std::__ndk1::char_traits<char>, std::__ndk1::allocator<char> >::__init_buf_ptrs[abi:ne190000]()
PUBLIC abba8 0 std::__ndk1::basic_string<char, std::__ndk1::char_traits<char>, std::__ndk1::allocator<char> >::__erase_external_with_move(unsigned long, unsigned long)
PUBLIC abc30 0 std::__ndk1::__throw_out_of_range[abi:ne190000](char const*)
PUBLIC abc80 0 std::out_of_range::out_of_range[abi:ne190000](char const*)
PUBLIC abcb0 0 std::__ndk1::vector<std::__ndk1::basic_string<char, std::__ndk1::char_traits<char>, std::__ndk1::allocator<char> >, std::__ndk1::allocator<std::__ndk1::basic_string<char, std::__ndk1::char_traits<char>, std::__ndk1::allocator<char> > > >::__push_back_slow_path<std::__ndk1::basic_string<char, std::__ndk1::char_traits<char>, std::__ndk1::allocator<char> > const&>(std::__ndk1::basic_string<char, std::__ndk1::char_traits<char>, std::__ndk1::allocator<char> > const&)
PUBLIC abe60 0 std::__ndk1::basic_string<char, std::__ndk1::char_traits<char>, std::__ndk1::allocator<char> >::__init_copy_ctor_external(char const*, unsigned long)
PUBLIC abef4 0 std::__ndk1::__split_buffer<std::__ndk1::basic_string<char, std::__ndk1::char_traits<char>, std::__ndk1::allocator<char> >, std::__ndk1::allocator<std::__ndk1::basic_string<char, std::__ndk1::char_traits<char>, std::__ndk1::allocator<char> > >&>::~__split_buffer()
PUBLIC abf5c 0 std::__ndk1::vector<std::__ndk1::basic_string<char, std::__ndk1::char_traits<char>, std::__ndk1::allocator<char> >, std::__ndk1::allocator<std::__ndk1::basic_string<char, std::__ndk1::char_traits<char>, std::__ndk1::allocator<char> > > >::__throw_length_error[abi:ne190000]() const
PUBLIC abf70 0 std::__ndk1::__variant_detail::__visitation::__base::__dispatcher<(unsigned long)0>::__dispatch[abi:ne190000]<std::__ndk1::__variant_detail::__dtor<std::__ndk1::__variant_detail::__traits<geode::Hook*, std::__ndk1::basic_string<char, std::__ndk1::char_traits<char>, std::__ndk1::allocator<char> > >, (std::__ndk1::__variant_detail::_Trait)1>::__destroy[abi:ne190000]()::{lambda(auto:1&)#1}, std::__ndk1::__variant_detail::__base<(std::__ndk1::__variant_detail::__traits<geode::Hook*, std::__ndk1::basic_string<char, std::__ndk1::char_traits<char>, std::__ndk1::allocator<char> > >)1, geode::Hook, std::__ndk1::allocator<char> >&>(std::__ndk1::__variant_detail::__dtor<std::__ndk1::__variant_detail::__traits<geode::Hook*, std::__ndk1::basic_string<char, std::__ndk1::char_traits<char>, std::__ndk1::allocator<char> > >, (std::__ndk1::__variant_detail::_Trait)1>, std::__ndk1::__variant_detail::__base<(std::__ndk1::__variant_detail::__traits<geode::Hook*, std::__ndk1::basic_string<char, std::__ndk1::char_traits<char>, std::__ndk1::allocator<char> > >)1, geode::Hook, std::__ndk1::allocator<char> >&)
PUBLIC abf74 0 std::__ndk1::__variant_detail::__visitation::__base::__dispatcher<(unsigned long)1>::__dispatch[abi:ne190000]<std::__ndk1::__variant_detail::__dtor<std::__ndk1::__variant_detail::__traits<geode::Hook*, std::__ndk1::basic_string<char, std::__ndk1::char_traits<char>, std::__ndk1::allocator<char> > >, (std::__ndk1::__variant_detail::_Trait)1>::__destroy[abi:ne190000]()::{lambda(auto:1&)#1}, std::__ndk1::__variant_detail::__base<(std::__ndk1::__variant_detail::__traits<geode::Hook*, std::__ndk1::basic_string<char, std::__ndk1::char_traits<char>, std::__ndk1::allocator<char> > >)1, geode::Hook, std::__ndk1::allocator<char> >&>(std::__ndk1::__variant_detail::__dtor<std::__ndk1::__variant_detail::__traits<geode::Hook*, std::__ndk1::basic_string<char, std::__ndk1::char_traits<char>, std::__ndk1::allocator<char> > >, (std::__ndk1::__variant_detail::_Trait)1>, std::__ndk1::__variant_detail::__base<(std::__ndk1::__variant_detail::__traits<geode::Hook*, std::__ndk1::basic_string<char, std::__ndk1::char_traits<char>, std::__ndk1::allocator<char> > >)1, geode::Hook, std::__ndk1::allocator<char> >&)
PUBLIC abf88 0 std::__ndk1::__tree<std::__ndk1::__value_type<std::__ndk1::basic_string<char, std::__ndk1::char_traits<char>, std::__ndk1::allocator<char> >, std::__ndk1::shared_ptr<geode::Hook> >, std::__ndk1::__map_value_compare<std::__ndk1::basic_string<char, std::__ndk1::char_traits<char>, std::__ndk1::allocator<char> >, std::__ndk1::__value_type<std::__ndk1::basic_string<char, std::__ndk1::char_traits<char>, std::__ndk1::allocator<char> >, std::__ndk1::shared_ptr<geode::Hook> >, std::__ndk1::less<std::__ndk1::basic_string<char, std::__ndk1::char_traits<char>, std::__ndk1::allocator<char> > >, true>, std::__ndk1::allocator<std::__ndk1::__value_type<std::__ndk1::basic_string<char, std::__ndk1::char_traits<char>, std::__ndk1::allocator<char> >, std::__ndk1::shared_ptr<geode::Hook> > > >::find<std::__ndk1::basic_string<char, std::__ndk1::char_traits<char>, std::__ndk1::allocator<char> > >(std::__ndk1::basic_string<char, std::__ndk1::char_traits<char>, std::__ndk1::allocator<char> > const&)
PUBLIC ac0b0 0 std::__ndk1::__tree<std::__ndk1::__value_type<std::__ndk1::basic_string<char, std::__ndk1::char_traits<char>, std::__ndk1::allocator<char> >, std::__ndk1::shared_ptr<geode::Hook> >, std::__ndk1::__map_value_compare<std::__ndk1::basic_string<char, std::__ndk1::char_traits<char>, std::__ndk1::allocator<char> >, std::__ndk1::__value_type<std::__ndk1::basic_string<char, std::__ndk1::char_traits<char>, std::__ndk1::allocator<char> >, std::__ndk1::shared_ptr<geode::Hook> >, std::__ndk1::less<std::__ndk1::basic_string<char, std::__ndk1::char_traits<char>, std::__ndk1::allocator<char> > >, true>, std::__ndk1::allocator<std::__ndk1::__value_type<std::__ndk1::basic_string<char, std::__ndk1::char_traits<char>, std::__ndk1::allocator<char> >, std::__ndk1::shared_ptr<geode::Hook> > > >::erase(std::__ndk1::__tree_const_iterator<std::__ndk1::__value_type<std::__ndk1::basic_string<char, std::__ndk1::char_traits<char>, std::__ndk1::allocator<char> >, std::__ndk1::shared_ptr<geode::Hook> >, std::__ndk1::__tree_node<std::__ndk1::__value_type<std::__ndk1::basic_string<char, std::__ndk1::char_traits<char>, std::__ndk1::allocator<char> >, std::__ndk1::shared_ptr<geode::Hook> >, void*>*, long>)
PUBLIC ac184 0 std::__ndk1::__tree_remove[abi:ne190000]<std::__ndk1::__tree_node_base<void*>*>(std::__ndk1::__tree_node_base<void*>*, std::__ndk1::__tree_node_base<void*>*)
PUBLIC ac54c 0 std::__ndk1::__tree<std::__ndk1::__value_type<std::__ndk1::basic_string<char, std::__ndk1::char_traits<char>, std::__ndk1::allocator<char> >, std::__ndk1::shared_ptr<geode::Hook> >, std::__ndk1::__map_value_compare<std::__ndk1::basic_string<char, std::__ndk1::char_traits<char>, std::__ndk1::allocator<char> >, std::__ndk1::__value_type<std::__ndk1::basic_string<char, std::__ndk1::char_traits<char>, std::__ndk1::allocator<char> >, std::__ndk1::shared_ptr<geode::Hook> >, std::__ndk1::less<std::__ndk1::basic_string<char, std::__ndk1::char_traits<char>, std::__ndk1::allocator<char> > >, true>, std::__ndk1::allocator<std::__ndk1::__value_type<std::__ndk1::basic_string<char, std::__ndk1::char_traits<char>, std::__ndk1::allocator<char> >, std::__ndk1::shared_ptr<geode::Hook> > > >::destroy(std::__ndk1::__tree_node<std::__ndk1::__value_type<std::__ndk1::basic_string<char, std::__ndk1::char_traits<char>, std::__ndk1::allocator<char> >, std::__ndk1::shared_ptr<geode::Hook> >, void*>*)
PUBLIC ac5d8 0 geode::modifier::AsStaticFunction_init<BIChallengesPage, bool (BIChallengesPage::*)()>::Impl<bool (BIChallengesPage::*)()>::function(BIChallengesPage*)
PUBLIC ac9a4 0 geode::modifier::AsStaticFunction_createChallengeNode<BIChallengesPage, ChallengeNode* (BIChallengesPage::*)(int, bool, float, bool)>::Impl<ChallengeNode* (BIChallengesPage::*)(int, bool, float, bool)>::function(BIChallengesPage*, int, bool, float, bool)
PUBLIC ac9d4 0 geode::modifier::AsStaticFunction_updateTimers<BIChallengesPage, void (BIChallengesPage::*)(float)>::Impl<void (BIChallengesPage::*)(float)>::function(BIChallengesPage*, float)
PUBLIC acb38 0 geode::addresser::Addresser::addressOfVirtual<bool, ChallengesPage, >(bool (ChallengesPage::*)())
PUBLIC acbe0 0 ChallengesPage::ChallengesPage(geode::ZeroConstructorType)
PUBLIC acc7c 0 std::__ndk1::shared_ptr<tulip::hook::CallingConvention>::~shared_ptr[abi:ne190000]()
PUBLIC acccc 0 tulip::hook::HandlerMetadata::~HandlerMetadata()
PUBLIC acd30 0 std::__ndk1::vector<tulip::hook::AbstractType, std::__ndk1::allocator<tulip::hook::AbstractType> >::__throw_length_error[abi:ne190000]() const
PUBLIC acd44 0 BIChallengesPage::onNext(cocos2d::CCObject*)
PUBLIC acf94 0 BIChallengesPage::onPrev(cocos2d::CCObject*)
PUBLIC ad1d4 0 BIChallengesPage::onQuestHistory(cocos2d::CCObject*)
PUBLIC ad200 0 BIChallengesPage::reloadQuests()
PUBLIC ad9dc 0 geode::cocos::CCArrayExt<cocos2d::CCNode*, cocos2d::CCNode>::~CCArrayExt()
PUBLIC ad9fc 0 geode::modifier::FieldIntermediate<BIChallengesPage, ChallengesPage>::self()
PUBLIC adb94 0 geode::modifier::FieldContainer::getField(unsigned long)
PUBLIC addc4 0 geode::modifier::FieldContainer::setField(unsigned long, unsigned long, std::__ndk1::function<void (void*)>)
PUBLIC aded8 0 geode::modifier::FieldIntermediate<BIChallengesPage, ChallengesPage>::fieldDestructor(void*)
PUBLIC adf1c 0 std::__ndk1::vector<void*, std::__ndk1::allocator<void*> >::__throw_length_error[abi:ne190000]() const
PUBLIC adf30 0 std::__ndk1::vector<std::__ndk1::function<void (void*)>, std::__ndk1::allocator<std::__ndk1::function<void (void*)> > >::__push_back_slow_path<std::__ndk1::function<void (void*)> >(std::__ndk1::function<void (void*)>&&)
PUBLIC ae150 0 std::__ndk1::vector<std::__ndk1::function<void (void*)>, std::__ndk1::allocator<std::__ndk1::function<void (void*)> > >::__throw_length_error[abi:ne190000]() const
PUBLIC ae164 0 std::__ndk1::vector<void*, std::__ndk1::allocator<void*> >::__throw_out_of_range[abi:ne190000]() const
PUBLIC ae178 0 std::__ndk1::vector<std::__ndk1::function<void (void*)>, std::__ndk1::allocator<std::__ndk1::function<void (void*)> > >::__throw_out_of_range[abi:ne190000]() const
PUBLIC ae18c 0 std::__ndk1::__function::__base<void (void*)>::~__base()
PUBLIC ae190 0 std::__ndk1::__function::__func<void (*)(void*), std::__ndk1::allocator<void (*)(void*)>, void (void*)>::~__func()
PUBLIC ae194 0 std::__ndk1::__function::__func<void (*)(void*), std::__ndk1::allocator<void (*)(void*)>, void (void*)>::__clone() const
PUBLIC ae1cc 0 std::__ndk1::__function::__func<void (*)(void*), std::__ndk1::allocator<void (*)(void*)>, void (void*)>::__clone(std::__ndk1::__function::__base<void (void*)>*) const
PUBLIC ae1e4 0 std::__ndk1::__function::__func<void (*)(void*), std::__ndk1::allocator<void (*)(void*)>, void (void*)>::destroy()
PUBLIC ae1e8 0 std::__ndk1::__function::__func<void (*)(void*), std::__ndk1::allocator<void (*)(void*)>, void (void*)>::destroy_deallocate()
PUBLIC ae1ec 0 std::__ndk1::__function::__func<void (*)(void*), std::__ndk1::allocator<void (*)(void*)>, void (void*)>::operator()(void*&&)
PUBLIC ae1fc 0 std::__ndk1::__function::__func<void (*)(void*), std::__ndk1::allocator<void (*)(void*)>, void (void*)>::target(std::type_info const&) const
PUBLIC ae218 0 std::__ndk1::__function::__func<void (*)(void*), std::__ndk1::allocator<void (*)(void*)>, void (void*)>::target_type() const
PUBLIC ae224 0 std::__ndk1::vector<ChallengeNode*, std::__ndk1::allocator<ChallengeNode*> >::__throw_length_error[abi:ne190000]() const
PUBLIC ae238 0 std::__ndk1::vector<cocos2d::CCNode*, std::__ndk1::allocator<cocos2d::CCNode*> >::__throw_length_error[abi:ne190000]() const
PUBLIC ae24c 0 std::__ndk1::__tree<std::__ndk1::__value_type<std::__ndk1::basic_string<char, std::__ndk1::char_traits<char>, std::__ndk1::allocator<char> >, std::__ndk1::shared_ptr<geode::Hook> >, std::__ndk1::__map_value_compare<std::__ndk1::basic_string<char, std::__ndk1::char_traits<char>, std::__ndk1::allocator<char> >, std::__ndk1::__value_type<std::__ndk1::basic_string<char, std::__ndk1::char_traits<char>, std::__ndk1::allocator<char> >, std::__ndk1::shared_ptr<geode::Hook> >, std::__ndk1::less<std::__ndk1::basic_string<char, std::__ndk1::char_traits<char>, std::__ndk1::allocator<char> > >, true>, std::__ndk1::allocator<std::__ndk1::__value_type<std::__ndk1::basic_string<char, std::__ndk1::char_traits<char>, std::__ndk1::allocator<char> >, std::__ndk1::shared_ptr<geode::Hook> > > >::__emplace_unique_key_args<std::__ndk1::basic_string<char, std::__ndk1::char_traits<char>, std::__ndk1::allocator<char> >, std::__ndk1::piecewise_construct_t const&, std::__ndk1::tuple<std::__ndk1::basic_string<char, std::__ndk1::char_traits<char>, std::__ndk1::allocator<char> >&&>, std::__ndk1::tuple<> >(std::__ndk1::basic_string<char, std::__ndk1::char_traits<char>, std::__ndk1::allocator<char> > const&, std::__ndk1::piecewise_construct_t const&, std::__ndk1::tuple<std::__ndk1::basic_string<char, std::__ndk1::char_traits<char>, std::__ndk1::allocator<char> >&&>, std::__ndk1::tuple<>)
PUBLIC ae3c4 0 std::__ndk1::__tree_balance_after_insert[abi:ne190000]<std::__ndk1::__tree_node_base<void*>*>(std::__ndk1::__tree_node_base<void*>*, std::__ndk1::__tree_node_base<void*>*)
PUBLIC ae56c 0 __cxx_global_var_init
PUBLIC ae9dc 0 geode::modifier::ModifyBase<geode::modifier::ModifyDerive<BICommentCell, CommentCell> >::~ModifyBase()
PUBLIC ae9f8 0 geode::modifier::ModifyDerive<BICommentCell, CommentCell>::apply()
PUBLIC aed6c 0 geode::modifier::ModifyBase<geode::modifier::ModifyDerive<BICommentCell, CommentCell> >::apply()
PUBLIC aed70 0 geode::modifier::AsStaticFunction_loadFromComment<BICommentCell, void (BICommentCell::*)(GJComment*)>::Impl<void (BICommentCell::*)(GJComment*)>::function(BICommentCell*, GJComment*)
PUBLIC af2e0 0 geode::Mod::getSettingValue<bool>(std::__ndk1::basic_string_view<char, std::__ndk1::char_traits<char> >) const
PUBLIC af40c 0 BICommentCell::onLevelInfoNoLoad(cocos2d::CCObject*)
PUBLIC af4b0 0 BICommentCell::onProfilePage(cocos2d::CCObject*)
PUBLIC af534 0 geode::cast::traverseTypeinfoFor(void*, geode::cast::ClassTypeinfoType const*, char const*)
PUBLIC af638 0 __cxx_global_var_init
PUBLIC afaa8 0 geode::modifier::ModifyBase<geode::modifier::ModifyDerive<BICreatorLayer, CreatorLayer> >::~ModifyBase()
PUBLIC afac4 0 geode::modifier::ModifyDerive<BICreatorLayer, CreatorLayer>::apply()
PUBLIC b02fc 0 geode::modifier::ModifyBase<geode::modifier::ModifyDerive<BICreatorLayer, CreatorLayer> >::apply()
PUBLIC b0300 0 geode::modifier::AsStaticFunction_init<BICreatorLayer, bool (BICreatorLayer::*)()>::Impl<bool (BICreatorLayer::*)()>::function(BICreatorLayer*)
PUBLIC b05d0 0 geode::modifier::AsStaticFunction_sceneWillResume<BICreatorLayer, void (BICreatorLayer::*)()>::Impl<void (BICreatorLayer::*)()>::function(BICreatorLayer*)
PUBLIC b05f4 0 geode::modifier::AsStaticFunction_onTopLists<BICreatorLayer, void (BICreatorLayer::*)(cocos2d::CCObject*)>::Impl<void (BICreatorLayer::*)(cocos2d::CCObject*)>::function(BICreatorLayer*, cocos2d::CCObject*)
PUBLIC b0650 0 geode::addresser::Addresser::addressOfVirtual<bool, CreatorLayer, >(bool (CreatorLayer::*)())
PUBLIC b06f8 0 CreatorLayer::CreatorLayer(geode::ZeroConstructorType)
PUBLIC b0790 0 BICreatorLayer::onCustomCreatorLayer(cocos2d::CCObject*)
PUBLIC b07c0 0 geode::Mod::setSavedValue<std::__ndk1::basic_string<char, std::__ndk1::char_traits<char>, std::__ndk1::allocator<char> > >(std::__ndk1::basic_string_view<char, std::__ndk1::char_traits<char> >, std::__ndk1::basic_string<char, std::__ndk1::char_traits<char>, std::__ndk1::allocator<char> > const&)
PUBLIC b0920 0 BICreatorLayer::checkListsExclamation()
PUBLIC b0b18 0 geode::Mod::getSavedValue<std::__ndk1::basic_string<char, std::__ndk1::char_traits<char>, std::__ndk1::allocator<char> > >(std::__ndk1::basic_string_view<char, std::__ndk1::char_traits<char> >)
PUBLIC b0d00 0 geode::impl::ResultData<matjson::Value&, std::__ndk1::basic_string<char, std::__ndk1::char_traits<char>, std::__ndk1::allocator<char> > >::~ResultData()
PUBLIC b0d74 0 geode::impl::ResultData<std::__ndk1::basic_string<char, std::__ndk1::char_traits<char>, std::__ndk1::allocator<char> >, std::__ndk1::basic_string<char, std::__ndk1::char_traits<char>, std::__ndk1::allocator<char> > >::~ResultData()
PUBLIC b0de8 0 std::__ndk1::__variant_detail::__visitation::__base::__dispatcher<(unsigned long)0>::__dispatch[abi:ne190000]<std::__ndk1::__variant_detail::__dtor<std::__ndk1::__variant_detail::__traits<std::__ndk1::reference_wrapper<matjson::Value>, std::__ndk1::basic_string<char, std::__ndk1::char_traits<char>, std::__ndk1::allocator<char> > >, (std::__ndk1::__variant_detail::_Trait)1>::__destroy[abi:ne190000]()::{lambda(auto:1&)#1}, std::__ndk1::__variant_detail::__base<(std::__ndk1::__variant_detail::__traits<std::__ndk1::reference_wrapper<matjson::Value>, std::__ndk1::basic_string<char, std::__ndk1::char_traits<char>, std::__ndk1::allocator<char> > >)1, matjson::Value, std::__ndk1::allocator<char> >&>(std::__ndk1::__variant_detail::__dtor<std::__ndk1::__variant_detail::__traits<std::__ndk1::reference_wrapper<matjson::Value>, std::__ndk1::basic_string<char, std::__ndk1::char_traits<char>, std::__ndk1::allocator<char> > >, (std::__ndk1::__variant_detail::_Trait)1>, std::__ndk1::__variant_detail::__base<(std::__ndk1::__variant_detail::__traits<std::__ndk1::reference_wrapper<matjson::Value>, std::__ndk1::basic_string<char, std::__ndk1::char_traits<char>, std::__ndk1::allocator<char> > >)1, matjson::Value, std::__ndk1::allocator<char> >&)
PUBLIC b0dec 0 std::__ndk1::__variant_detail::__visitation::__base::__dispatcher<(unsigned long)1>::__dispatch[abi:ne190000]<std::__ndk1::__variant_detail::__dtor<std::__ndk1::__variant_detail::__traits<std::__ndk1::reference_wrapper<matjson::Value>, std::__ndk1::basic_string<char, std::__ndk1::char_traits<char>, std::__ndk1::allocator<char> > >, (std::__ndk1::__variant_detail::_Trait)1>::__destroy[abi:ne190000]()::{lambda(auto:1&)#1}, std::__ndk1::__variant_detail::__base<(std::__ndk1::__variant_detail::__traits<std::__ndk1::reference_wrapper<matjson::Value>, std::__ndk1::basic_string<char, std::__ndk1::char_traits<char>, std::__ndk1::allocator<char> > >)1, matjson::Value, std::__ndk1::allocator<char> >&>(std::__ndk1::__variant_detail::__dtor<std::__ndk1::__variant_detail::__traits<std::__ndk1::reference_wrapper<matjson::Value>, std::__ndk1::basic_string<char, std::__ndk1::char_traits<char>, std::__ndk1::allocator<char> > >, (std::__ndk1::__variant_detail::_Trait)1>, std::__ndk1::__variant_detail::__base<(std::__ndk1::__variant_detail::__traits<std::__ndk1::reference_wrapper<matjson::Value>, std::__ndk1::basic_string<char, std::__ndk1::char_traits<char>, std::__ndk1::allocator<char> > >)1, matjson::Value, std::__ndk1::allocator<char> >&)
PUBLIC b0e00 0 std::__ndk1::__variant_detail::__visitation::__base::__dispatcher<(unsigned long)0>::__dispatch[abi:ne190000]<std::__ndk1::__variant_detail::__dtor<std::__ndk1::__variant_detail::__traits<std::__ndk1::basic_string<char, std::__ndk1::char_traits<char>, std::__ndk1::allocator<char> >, std::__ndk1::allocator<char> >, (std::__ndk1::__variant_detail::_Trait)1>::__destroy[abi:ne190000]()::{lambda(auto:1&)#1}, std::__ndk1::__variant_detail::__base<(std::__ndk1::__variant_detail::__traits<std::__ndk1::basic_string<char, std::__ndk1::char_traits<char>, std::__ndk1::allocator<char> >, std::__ndk1::allocator<char> >)1, std::__ndk1::allocator<char>, std::__ndk1::allocator<char> >&>(std::__ndk1::__variant_detail::__dtor<std::__ndk1::__variant_detail::__traits<std::__ndk1::basic_string<char, std::__ndk1::char_traits<char>, std::__ndk1::allocator<char> >, std::__ndk1::allocator<char> >, (std::__ndk1::__variant_detail::_Trait)1>, std::__ndk1::__variant_detail::__base<(std::__ndk1::__variant_detail::__traits<std::__ndk1::basic_string<char, std::__ndk1::char_traits<char>, std::__ndk1::allocator<char> >, std::__ndk1::allocator<char> >)1, std::__ndk1::allocator<char>, std::__ndk1::allocator<char> >&)
PUBLIC b0e14 0 std::__ndk1::__variant_detail::__visitation::__base::__dispatcher<(unsigned long)1>::__dispatch[abi:ne190000]<std::__ndk1::__variant_detail::__dtor<std::__ndk1::__variant_detail::__traits<std::__ndk1::basic_string<char, std::__ndk1::char_traits<char>, std::__ndk1::allocator<char> >, std::__ndk1::allocator<char> >, (std::__ndk1::__variant_detail::_Trait)1>::__destroy[abi:ne190000]()::{lambda(auto:1&)#1}, std::__ndk1::__variant_detail::__base<(std::__ndk1::__variant_detail::__traits<std::__ndk1::basic_string<char, std::__ndk1::char_traits<char>, std::__ndk1::allocator<char> >, std::__ndk1::allocator<char> >)1, std::__ndk1::allocator<char>, std::__ndk1::allocator<char> >&>(std::__ndk1::__variant_detail::__dtor<std::__ndk1::__variant_detail::__traits<std::__ndk1::basic_string<char, std::__ndk1::char_traits<char>, std::__ndk1::allocator<char> >, std::__ndk1::allocator<char> >, (std::__ndk1::__variant_detail::_Trait)1>, std::__ndk1::__variant_detail::__base<(std::__ndk1::__variant_detail::__traits<std::__ndk1::basic_string<char, std::__ndk1::char_traits<char>, std::__ndk1::allocator<char> >, std::__ndk1::allocator<char> >)1, std::__ndk1::allocator<char>, std::__ndk1::allocator<char> >&)
PUBLIC b0e28 0 geode::addresser::Addresser::addressOfVirtual<void, CreatorLayer, >(void (CreatorLayer::*)())
PUBLIC b0ed0 0 __cxx_global_var_init
PUBLIC b1340 0 geode::modifier::ModifyBase<geode::modifier::ModifyDerive<BIDailyLevelNode, DailyLevelNode> >::~ModifyBase()
PUBLIC b135c 0 geode::modifier::ModifyDerive<BIDailyLevelNode, DailyLevelNode>::apply()
PUBLIC b1700 0 geode::modifier::ModifyBase<geode::modifier::ModifyDerive<BIDailyLevelNode, DailyLevelNode> >::apply()
PUBLIC b1704 0 geode::modifier::AsStaticFunction_init<BIDailyLevelNode, bool (BIDailyLevelNode::*)(GJGameLevel*, DailyLevelPage*, bool)>::Impl<bool (BIDailyLevelNode::*)(GJGameLevel*, DailyLevelPage*, bool)>::function(BIDailyLevelNode*, GJGameLevel*, DailyLevelPage*, bool)
PUBLIC b1780 0 __cxx_global_var_init
PUBLIC b1bf0 0 geode::modifier::ModifyBase<geode::modifier::ModifyDerive<BIDailyLevelPage, DailyLevelPage> >::~ModifyBase()
PUBLIC b1c0c 0 geode::modifier::ModifyDerive<BIDailyLevelPage, DailyLevelPage>::apply()
PUBLIC b221c 0 geode::modifier::ModifyBase<geode::modifier::ModifyDerive<BIDailyLevelPage, DailyLevelPage> >::apply()
PUBLIC b2220 0 geode::modifier::AsStaticFunction_init<BIDailyLevelPage, bool (BIDailyLevelPage::*)(GJTimedLevelType)>::Impl<bool (BIDailyLevelPage::*)(GJTimedLevelType)>::function(BIDailyLevelPage*, GJTimedLevelType)
PUBLIC b2378 0 geode::modifier::AsStaticFunction_updateTimers<BIDailyLevelPage, void (BIDailyLevelPage::*)(float)>::Impl<void (BIDailyLevelPage::*)(float)>::function(BIDailyLevelPage*, float)
PUBLIC b2640 0 BIDailyLevelPage::onDailyHistory(cocos2d::CCObject*)
PUBLIC b2674 0 __cxx_global_var_init
PUBLIC b2c98 0 geode::modifier::ModifyBase<geode::modifier::ModifyDerive<BIEditLevelLayer, EditLevelLayer> >::~ModifyBase()
PUBLIC b2cb4 0 geode::modifier::ModifyDerive<BIEditLevelLayer, EditLevelLayer>::apply()
PUBLIC b32cc 0 geode::modifier::ModifyBase<geode::modifier::ModifyDerive<BIEditLevelLayer, EditLevelLayer> >::apply()
PUBLIC b32d0 0 std::__ndk1::__tree<std::__ndk1::__value_type<std::__ndk1::basic_string<char, std::__ndk1::char_traits<char>, std::__ndk1::allocator<char> >, std::__ndk1::shared_ptr<geode::Hook> >, std::__ndk1::__map_value_compare<std::__ndk1::basic_string<char, std::__ndk1::char_traits<char>, std::__ndk1::allocator<char> >, std::__ndk1::__value_type<std::__ndk1::basic_string<char, std::__ndk1::char_traits<char>, std::__ndk1::allocator<char> >, std::__ndk1::shared_ptr<geode::Hook> >, std::__ndk1::less<std::__ndk1::basic_string<char, std::__ndk1::char_traits<char>, std::__ndk1::allocator<char> > >, true>, std::__ndk1::allocator<std::__ndk1::__value_type<std::__ndk1::basic_string<char, std::__ndk1::char_traits<char>, std::__ndk1::allocator<char> >, std::__ndk1::shared_ptr<geode::Hook> > > >::__emplace_unique_key_args<std::__ndk1::basic_string<char, std::__ndk1::char_traits<char>, std::__ndk1::allocator<char> >, std::__ndk1::piecewise_construct_t const&, std::__ndk1::tuple<std::__ndk1::basic_string<char, std::__ndk1::char_traits<char>, std::__ndk1::allocator<char> > const&>, std::__ndk1::tuple<> >(std::__ndk1::basic_string<char, std::__ndk1::char_traits<char>, std::__ndk1::allocator<char> > const&, std::__ndk1::piecewise_construct_t const&, std::__ndk1::tuple<std::__ndk1::basic_string<char, std::__ndk1::char_traits<char>, std::__ndk1::allocator<char> > const&>, std::__ndk1::tuple<>)
PUBLIC b34c4 0 std::__ndk1::unique_ptr<std::__ndk1::__tree_node<std::__ndk1::__value_type<std::__ndk1::basic_string<char, std::__ndk1::char_traits<char>, std::__ndk1::allocator<char> >, std::__ndk1::shared_ptr<geode::Hook> >, void*>, std::__ndk1::__tree_node_destructor<std::__ndk1::allocator<std::__ndk1::__tree_node<std::__ndk1::__value_type<std::__ndk1::basic_string<char, std::__ndk1::char_traits<char>, std::__ndk1::allocator<char> >, std::__ndk1::shared_ptr<geode::Hook> >, void*> > > >::~unique_ptr[abi:ne190000]()
PUBLIC b3540 0 _ZN5geode15UnwrapExceptionC2IRNSt6__ndk112basic_stringIcNS2_11char_traitsIcEENS2_9allocatorIcEEEEQsr4implE18IsStringStreamableIT_EEENS_4impl6ErrTagEOSA_
PUBLIC b36a8 0 std::__ndk1::__variant_detail::__visitation::__base::__dispatcher<(unsigned long)0>::__dispatch[abi:ne190000]<std::__ndk1::__variant_detail::__dtor<std::__ndk1::__variant_detail::__traits<std::__ndk1::monostate, std::__ndk1::basic_string<char, std::__ndk1::char_traits<char>, std::__ndk1::allocator<char> > >, (std::__ndk1::__variant_detail::_Trait)1>::__destroy[abi:ne190000]()::{lambda(auto:1&)#1}, std::__ndk1::__variant_detail::__base<(std::__ndk1::__variant_detail::__traits<std::__ndk1::monostate, std::__ndk1::basic_string<char, std::__ndk1::char_traits<char>, std::__ndk1::allocator<char> > >)1, std::__ndk1::__variant_detail::__traits, std::__ndk1::allocator<char> >&>(std::__ndk1::__variant_detail::__dtor<std::__ndk1::__variant_detail::__traits<std::__ndk1::monostate, std::__ndk1::basic_string<char, std::__ndk1::char_traits<char>, std::__ndk1::allocator<char> > >, (std::__ndk1::__variant_detail::_Trait)1>, std::__ndk1::__variant_detail::__base<(std::__ndk1::__variant_detail::__traits<std::__ndk1::monostate, std::__ndk1::basic_string<char, std::__ndk1::char_traits<char>, std::__ndk1::allocator<char> > >)1, std::__ndk1::__variant_detail::__traits, std::__ndk1::allocator<char> >&)
PUBLIC b36ac 0 std::__ndk1::__variant_detail::__visitation::__base::__dispatcher<(unsigned long)1>::__dispatch[abi:ne190000]<std::__ndk1::__variant_detail::__dtor<std::__ndk1::__variant_detail::__traits<std::__ndk1::monostate, std::__ndk1::basic_string<char, std::__ndk1::char_traits<char>, std::__ndk1::allocator<char> > >, (std::__ndk1::__variant_detail::_Trait)1>::__destroy[abi:ne190000]()::{lambda(auto:1&)#1}, std::__ndk1::__variant_detail::__base<(std::__ndk1::__variant_detail::__traits<std::__ndk1::monostate, std::__ndk1::basic_string<char, std::__ndk1::char_traits<char>, std::__ndk1::allocator<char> > >)1, std::__ndk1::__variant_detail::__traits, std::__ndk1::allocator<char> >&>(std::__ndk1::__variant_detail::__dtor<std::__ndk1::__variant_detail::__traits<std::__ndk1::monostate, std::__ndk1::basic_string<char, std::__ndk1::char_traits<char>, std::__ndk1::allocator<char> > >, (std::__ndk1::__variant_detail::_Trait)1>, std::__ndk1::__variant_detail::__base<(std::__ndk1::__variant_detail::__traits<std::__ndk1::monostate, std::__ndk1::basic_string<char, std::__ndk1::char_traits<char>, std::__ndk1::allocator<char> > >)1, std::__ndk1::__variant_detail::__traits, std::__ndk1::allocator<char> >&)
PUBLIC b36c0 0 geode::modifier::AsStaticFunction_init<BIEditLevelLayer, bool (BIEditLevelLayer::*)(GJGameLevel*)>::Impl<bool (BIEditLevelLayer::*)(GJGameLevel*)>::function(BIEditLevelLayer*, GJGameLevel*)
PUBLIC b38c0 0 geode::modifier::AsStaticFunction_onLevelInfo<BIEditLevelLayer, void (BIEditLevelLayer::*)(cocos2d::CCObject*)>::Impl<void (BIEditLevelLayer::*)(cocos2d::CCObject*)>::function(BIEditLevelLayer*, cocos2d::CCObject*)
PUBLIC b38c8 0 BIEditLevelLayer::onEditLevelGoToLevel(cocos2d::CCObject*)
PUBLIC b39b4 0 __cxx_global_var_init
PUBLIC b3e24 0 geode::modifier::ModifyBase<geode::modifier::ModifyDerive<BIFriendsProfilePage, FriendsProfilePage> >::~ModifyBase()
PUBLIC b3e40 0 geode::modifier::ModifyDerive<BIFriendsProfilePage, FriendsProfilePage>::apply()
PUBLIC b4470 0 geode::modifier::ModifyBase<geode::modifier::ModifyDerive<BIFriendsProfilePage, FriendsProfilePage> >::apply()
PUBLIC b4474 0 geode::modifier::AsStaticFunction_init<BIFriendsProfilePage, bool (BIFriendsProfilePage::*)(UserListType)>::Impl<bool (BIFriendsProfilePage::*)(UserListType)>::function(BIFriendsProfilePage*, UserListType)
PUBLIC b45c4 0 geode::modifier::AsStaticFunction_onClose<BIFriendsProfilePage, void (BIFriendsProfilePage::*)(cocos2d::CCObject*)>::Impl<void (BIFriendsProfilePage::*)(cocos2d::CCObject*)>::function(BIFriendsProfilePage*, cocos2d::CCObject*)
PUBLIC b4604 0 BIFriendsProfilePage::onFollowBtn(cocos2d::CCObject*)
PUBLIC b4ea0 0 geode::modifier::FieldIntermediate<BIFriendsProfilePage, FriendsProfilePage>::self()
PUBLIC b502c 0 geode::modifier::FieldIntermediate<BIFriendsProfilePage, FriendsProfilePage>::fieldDestructor(void*)
PUBLIC b504c 0 geode::cocos::CCDictionaryExt<gd::string, cocos2d::CCString*, cocos2d::CCString>::~CCDictionaryExt()
PUBLIC b506c 0 std::__ndk1::pair<std::__ndk1::basic_string<char, std::__ndk1::char_traits<char>, std::__ndk1::allocator<char> > const, geode::Ref<GJUserScore> >::~pair()
PUBLIC b50b0 0 geode::cocos::CCArrayExt<GJUserScore*, GJUserScore>::~CCArrayExt()
PUBLIC b50d0 0 std::__ndk1::unique_ptr<std::__ndk1::__tree_node<std::__ndk1::__value_type<std::__ndk1::basic_string<char, std::__ndk1::char_traits<char>, std::__ndk1::allocator<char> >, geode::Ref<GJUserScore> >, void*>, std::__ndk1::__tree_node_destructor<std::__ndk1::allocator<std::__ndk1::__tree_node<std::__ndk1::__value_type<std::__ndk1::basic_string<char, std::__ndk1::char_traits<char>, std::__ndk1::allocator<char> >, geode::Ref<GJUserScore> >, void*> > > >::~unique_ptr[abi:ne190000]()
PUBLIC b512c 0 std::__ndk1::__tree<std::__ndk1::__value_type<std::__ndk1::basic_string<char, std::__ndk1::char_traits<char>, std::__ndk1::allocator<char> >, geode::Ref<GJUserScore> >, std::__ndk1::__map_value_compare<std::__ndk1::basic_string<char, std::__ndk1::char_traits<char>, std::__ndk1::allocator<char> >, std::__ndk1::__value_type<std::__ndk1::basic_string<char, std::__ndk1::char_traits<char>, std::__ndk1::allocator<char> >, geode::Ref<GJUserScore> >, std::__ndk1::less<std::__ndk1::basic_string<char, std::__ndk1::char_traits<char>, std::__ndk1::allocator<char> > >, true>, std::__ndk1::allocator<std::__ndk1::__value_type<std::__ndk1::basic_string<char, std::__ndk1::char_traits<char>, std::__ndk1::allocator<char> >, geode::Ref<GJUserScore> > > >::destroy(std::__ndk1::__tree_node<std::__ndk1::__value_type<std::__ndk1::basic_string<char, std::__ndk1::char_traits<char>, std::__ndk1::allocator<char> >, geode::Ref<GJUserScore> >, void*>*)
PUBLIC b518c 0 __cxx_global_var_init
PUBLIC b55fc 0 geode::modifier::ModifyBase<geode::modifier::ModifyDerive<BIGJBaseGameLayer, GJBaseGameLayer> >::~ModifyBase()
PUBLIC b5618 0 geode::modifier::ModifyDerive<BIGJBaseGameLayer, GJBaseGameLayer>::apply()
PUBLIC b5914 0 geode::modifier::ModifyBase<geode::modifier::ModifyDerive<BIGJBaseGameLayer, GJBaseGameLayer> >::apply()
PUBLIC b5918 0 geode::modifier::AsStaticFunction_init<BIGJBaseGameLayer, bool (BIGJBaseGameLayer::*)()>::Impl<bool (BIGJBaseGameLayer::*)()>::function(BIGJBaseGameLayer*)
PUBLIC b5944 0 geode::addresser::Addresser::addressOfVirtual<bool, GJBaseGameLayer, >(bool (GJBaseGameLayer::*)())
PUBLIC b5a0c 0 GJBaseGameLayer::GJBaseGameLayer(geode::ZeroConstructorType)
PUBLIC b6198 0 GJGameState::GJGameState()
PUBLIC b66fc 0 geode::stl::unordered_map<int, int, geode::stl::hash<int>, geode::stl::equal_to<int>, std::__ndk1::allocator<std::__ndk1::pair<int const, int> > >::~unordered_map()
PUBLIC b6774 0 geode::stl::unordered_set<int, geode::stl::hash<int>, geode::stl::equal_to<int>, std::__ndk1::allocator<int> >::~unordered_set()
PUBLIC b67ec 0 geode::stl::unordered_map<int, gd::string, geode::stl::hash<int>, geode::stl::equal_to<int>, std::__ndk1::allocator<std::__ndk1::pair<int const, gd::string> > >::~unordered_map()
PUBLIC b6870 0 gd::map<std::__ndk1::pair<int, int>, int>::~map()
PUBLIC b688c 0 geode::stl::unordered_map<int, gd::vector<LabelGameObject*>, geode::stl::hash<int>, geode::stl::equal_to<int>, std::__ndk1::allocator<std::__ndk1::pair<int const, gd::vector<LabelGameObject*> > > >::~unordered_map()
PUBLIC b6918 0 geode::stl::unordered_map<int, std::__ndk1::pair<int, int>, geode::stl::hash<int>, geode::stl::equal_to<int>, std::__ndk1::allocator<std::__ndk1::pair<int const, std::__ndk1::pair<int, int> > > >::~unordered_map()
PUBLIC b6990 0 geode::stl::unordered_map<int, gd::vector<GameObject*>, geode::stl::hash<int>, geode::stl::equal_to<int>, std::__ndk1::allocator<std::__ndk1::pair<int const, gd::vector<GameObject*> > > >::~unordered_map()
PUBLIC b6a1c 0 geode::stl::unordered_map<int, cocos2d::CCPoint, geode::stl::hash<int>, geode::stl::equal_to<int>, std::__ndk1::allocator<std::__ndk1::pair<int const, cocos2d::CCPoint> > >::~unordered_map()
PUBLIC b6a94 0 gd::vector<geode::stl::unordered_map<int, int, geode::stl::hash<int>, geode::stl::equal_to<int>, std::__ndk1::allocator<std::__ndk1::pair<int const, int> > > >::~vector()
PUBLIC b6b98 0 GJGameState::~GJGameState()
PUBLIC b6f90 0 geode::stl::unordered_map<int, SongChannelState, geode::stl::hash<int>, geode::stl::equal_to<int>, std::__ndk1::allocator<std::__ndk1::pair<int const, SongChannelState> > >::~unordered_map()
PUBLIC b7008 0 gd::map<std::__ndk1::pair<int, int>, SFXTriggerInstance>::~map()
PUBLIC b7024 0 geode::stl::unordered_map<int, std::__ndk1::vector<int, std::__ndk1::allocator<int> >, geode::stl::hash<int>, geode::stl::equal_to<int>, std::__ndk1::allocator<std::__ndk1::pair<int const, std::__ndk1::vector<int, std::__ndk1::allocator<int> > > > >::~unordered_map()
PUBLIC b70b4 0 gd::vector<EnterEffectInstance>::~vector()
PUBLIC b714c 0 geode::stl::unordered_map<int, std::__ndk1::vector<EnterEffectInstance, std::__ndk1::allocator<EnterEffectInstance> >, geode::stl::hash<int>, geode::stl::equal_to<int>, std::__ndk1::allocator<std::__ndk1::pair<int const, std::__ndk1::vector<EnterEffectInstance, std::__ndk1::allocator<EnterEffectInstance> > > > >::~unordered_map()
PUBLIC b7188 0 gd::map<std::__ndk1::pair<GJGameEvent, int>, int>::~map()
PUBLIC b71a4 0 gd::map<std::__ndk1::pair<GJGameEvent, int>, gd::vector<EventTriggerInstance> >::~map()
PUBLIC b71c0 0 geode::stl::unordered_map<int, EnhancedGameObject*, geode::stl::hash<int>, geode::stl::equal_to<int>, std::__ndk1::allocator<std::__ndk1::pair<int const, EnhancedGameObject*> > >::~unordered_map()
PUBLIC b7238 0 geode::stl::unordered_map<int, GameObjectPhysics, geode::stl::hash<int>, geode::stl::equal_to<int>, std::__ndk1::allocator<std::__ndk1::pair<int const, GameObjectPhysics> > >::~unordered_map()
PUBLIC b72b0 0 geode::stl::unordered_map<int, GJValueTween, geode::stl::hash<int>, geode::stl::equal_to<int>, std::__ndk1::allocator<std::__ndk1::pair<int const, GJValueTween> > >::~unordered_map()
PUBLIC b7328 0 geode::stl::unordered_map<int, bool, geode::stl::hash<int>, geode::stl::equal_to<int>, std::__ndk1::allocator<std::__ndk1::pair<int const, bool> > >::~unordered_map()
PUBLIC b73a0 0 gd::map<std::__ndk1::pair<GJGameEvent, int>, gd::vector<EventTriggerInstance> >::map(std::__ndk1::map<std::__ndk1::pair<GJGameEvent, int>, gd::vector<EventTriggerInstance>, std::__ndk1::less<std::__ndk1::pair<GJGameEvent, int> >, std::__ndk1::allocator<std::__ndk1::pair<std::__ndk1::pair<GJGameEvent, int> const, gd::vector<EventTriggerInstance> > > >)
PUBLIC b756c 0 gd::map<std::__ndk1::pair<GJGameEvent, int>, gd::vector<EventTriggerInstance> >::insert_pair(std::__ndk1::pair<std::__ndk1::pair<GJGameEvent, int>, gd::vector<EventTriggerInstance> > const&)
PUBLIC b780c 0 std::__ndk1::pair<std::__ndk1::pair<GJGameEvent, int>, gd::vector<EventTriggerInstance> >::~pair()
PUBLIC b788c 0 std::__ndk1::pair<std::__ndk1::pair<GJGameEvent, int> const, gd::vector<EventTriggerInstance> >::~pair()
PUBLIC b790c 0 gd::vector<EventTriggerInstance>::vector(gd::vector<EventTriggerInstance> const&)
PUBLIC b7aac 0 geode::stl::_rb_insert_rebalance(bool, geode::stl::_rb_tree_base*, geode::stl::_rb_tree_base*, geode::stl::_rb_tree_base&)
PUBLIC b7d64 0 gd::vector<EventTriggerInstance>::operator=(gd::vector<EventTriggerInstance> const&)
PUBLIC b7f20 0 gd::vector<EventTriggerInstance>::~vector()
PUBLIC b7fa0 0 std::__ndk1::__tree<std::__ndk1::__value_type<std::__ndk1::pair<GJGameEvent, int>, gd::vector<EventTriggerInstance> >, std::__ndk1::__map_value_compare<std::__ndk1::pair<GJGameEvent, int>, std::__ndk1::__value_type<std::__ndk1::pair<GJGameEvent, int>, gd::vector<EventTriggerInstance> >, std::__ndk1::less<std::__ndk1::pair<GJGameEvent, int> >, true>, std::__ndk1::allocator<std::__ndk1::__value_type<std::__ndk1::pair<GJGameEvent, int>, gd::vector<EventTriggerInstance> > > >::destroy(std::__ndk1::__tree_node<std::__ndk1::__value_type<std::__ndk1::pair<GJGameEvent, int>, gd::vector<EventTriggerInstance> >, void*>*)
PUBLIC b8038 0 gd::map<std::__ndk1::pair<int, int>, SFXTriggerInstance>::erase(geode::stl::_rb_tree_node<std::__ndk1::pair<std::__ndk1::pair<int, int>, SFXTriggerInstance> >*)
PUBLIC b808c 0 gd::map<int, EnterEffectAnimValue>::erase(geode::stl::_rb_tree_node<std::__ndk1::pair<int, EnterEffectAnimValue> >*)
PUBLIC b80e0 0 geode::stl::_Hashtable<int, std::__ndk1::pair<int const, std::__ndk1::vector<EnterEffectInstance, std::__ndk1::allocator<EnterEffectInstance> > >, std::__ndk1::allocator<std::__ndk1::pair<int const, std::__ndk1::vector<EnterEffectInstance, std::__ndk1::allocator<EnterEffectInstance> > > >, geode::stl::__detail::_Select1st, geode::stl::equal_to<int>, geode::stl::hash<int>, geode::stl::__detail::_Mod_range_hashing, geode::stl::__detail::_Default_ranged_hash, geode::stl::__detail::_Prime_rehash_policy, geode::stl::__detail::_Hashtable_traits<false, false, true> >::clear()
PUBLIC b8188 0 gd::map<std::__ndk1::pair<GJGameEvent, int>, int>::erase(geode::stl::_rb_tree_node<std::__ndk1::pair<std::__ndk1::pair<GJGameEvent, int>, int> >*)
PUBLIC b81dc 0 gd::map<std::__ndk1::pair<GJGameEvent, int>, gd::vector<EventTriggerInstance> >::erase(geode::stl::_rb_tree_node<std::__ndk1::pair<std::__ndk1::pair<GJGameEvent, int>, gd::vector<EventTriggerInstance> > >*)
PUBLIC b8284 0 gd::map<std::__ndk1::pair<int, int>, int>::erase(geode::stl::_rb_tree_node<std::__ndk1::pair<std::__ndk1::pair<int, int>, int> >*)
PUBLIC b82d8 0 __cxx_global_var_init
PUBLIC b8748 0 geode::modifier::ModifyBase<geode::modifier::ModifyDerive<BIGJLevelList, GJLevelList> >::~ModifyBase()
PUBLIC b8764 0 geode::modifier::ModifyDerive<BIGJLevelList, GJLevelList>::apply()
PUBLIC b8a90 0 geode::modifier::ModifyBase<geode::modifier::ModifyDerive<BIGJLevelList, GJLevelList> >::apply()
PUBLIC b8a94 0 geode::modifier::AsStaticFunction_showListInfo<BIGJLevelList, void (BIGJLevelList::*)()>::Impl<void (BIGJLevelList::*)()>::function(BIGJLevelList*)
PUBLIC b8fa8 0 std::__ndk1::basic_string<char, std::__ndk1::char_traits<char>, std::__ndk1::allocator<char> >::__assign_external(char const*, unsigned long)
PUBLIC b90ec 0 __cxx_global_var_init
PUBLIC b955c 0 geode::modifier::ModifyBase<geode::modifier::ModifyDerive<BIGJMessageCell, GJMessageCell> >::~ModifyBase()
PUBLIC b9578 0 geode::modifier::ModifyDerive<BIGJMessageCell, GJMessageCell>::apply()
PUBLIC b98ec 0 geode::modifier::ModifyBase<geode::modifier::ModifyDerive<BIGJMessageCell, GJMessageCell> >::apply()
PUBLIC b98f0 0 geode::modifier::AsStaticFunction_loadFromMessage<BIGJMessageCell, void (BIGJMessageCell::*)(GJUserMessage*)>::Impl<void (BIGJMessageCell::*)(GJUserMessage*)>::function(BIGJMessageCell*, GJUserMessage*)
PUBLIC b9ab4 0 __cxx_global_var_init
PUBLIC b9ee0 0 __cxx_global_var_init.2
PUBLIC ba384 0 geode::modifier::ModifyBase<geode::modifier::ModifyDerive<hook19<(anonymous namespace)::hook19Parent>, FRequestProfilePage> >::~ModifyBase()
PUBLIC ba3a0 0 __cxx_global_var_init.1
PUBLIC ba810 0 geode::modifier::ModifyBase<geode::modifier::ModifyDerive<BIFriendRequestPopup, FriendRequestPopup> >::~ModifyBase()
PUBLIC ba82c 0 geode::modifier::ModifyBase<geode::modifier::ModifyDerive<hook130<(anonymous namespace)::hook130Parent>, GJRequestCell> >::~ModifyBase()
PUBLIC ba848 0 geode::modifier::ModifyDerive<hook19<(anonymous namespace)::hook19Parent>, FRequestProfilePage>::apply()
PUBLIC babc0 0 geode::modifier::ModifyBase<geode::modifier::ModifyDerive<hook19<(anonymous namespace)::hook19Parent>, FRequestProfilePage> >::apply()
PUBLIC babc4 0 std::__ndk1::basic_string<char, std::__ndk1::char_traits<char>, std::__ndk1::allocator<char> >::__throw_out_of_range[abi:ne190000]() const
PUBLIC babd8 0 geode::modifier::AsStaticFunction_setupCommentsBrowser<hook19<(anonymous namespace)::hook19Parent>, void (hook19<(anonymous namespace)::hook19Parent>::*)(cocos2d::CCArray*)>::Impl<void (hook19<(anonymous namespace)::hook19Parent>::*)(cocos2d::CCArray*)>::function(hook19<(anonymous namespace)::hook19Parent>*, cocos2d::CCArray*)
PUBLIC bad54 0 geode::modifier::ModifyDerive<BIFriendRequestPopup, FriendRequestPopup>::apply()
PUBLIC bb384 0 geode::modifier::ModifyBase<geode::modifier::ModifyDerive<BIFriendRequestPopup, FriendRequestPopup> >::apply()
PUBLIC bb388 0 geode::modifier::AsStaticFunction_init<BIFriendRequestPopup, bool (BIFriendRequestPopup::*)(GJFriendRequest*)>::Impl<bool (BIFriendRequestPopup::*)(GJFriendRequest*)>::function(BIFriendRequestPopup*, GJFriendRequest*)
PUBLIC bb7ec 0 geode::modifier::AsStaticFunction_onClose<BIFriendRequestPopup, void (BIFriendRequestPopup::*)(cocos2d::CCObject*)>::Impl<void (BIFriendRequestPopup::*)(cocos2d::CCObject*)>::function(BIFriendRequestPopup*, cocos2d::CCObject*)
PUBLIC bb86c 0 BIFriendRequestPopup::onCancel(cocos2d::CCObject*)
PUBLIC bb950 0 geode::modifier::FieldIntermediate<BIFriendRequestPopup, FriendRequestPopup>::self()
PUBLIC bbadc 0 geode::modifier::FieldIntermediate<BIFriendRequestPopup, FriendRequestPopup>::fieldDestructor(void*)
PUBLIC bbae0 0 geode::Ref<GJFriendRequest>::~Ref()
PUBLIC bbafc 0 geode::modifier::ModifyDerive<hook130<(anonymous namespace)::hook130Parent>, GJRequestCell>::apply()
PUBLIC bc400 0 geode::modifier::ModifyBase<geode::modifier::ModifyDerive<hook130<(anonymous namespace)::hook130Parent>, GJRequestCell> >::apply()
PUBLIC bc404 0 geode::modifier::ModifyBase<geode::modifier::ModifyDerive<hook130<(anonymous namespace)::hook130Parent>, GJRequestCell> >::setHookPriority(std::__ndk1::basic_string_view<char, std::__ndk1::char_traits<char> >, int)
PUBLIC bc660 0 geode::modifier::AsStaticFunction_FLAlert_Clicked<hook130<(anonymous namespace)::hook130Parent>, void (hook130<(anonymous namespace)::hook130Parent>::*)(FLAlertLayer*, bool)>::Impl<void (hook130<(anonymous namespace)::hook130Parent>::*)(FLAlertLayer*, bool)>::function(hook130<(anonymous namespace)::hook130Parent>*, FLAlertLayer*, bool)
PUBLIC bc7cc 0 geode::modifier::AsStaticFunction_markAsRead<hook130<(anonymous namespace)::hook130Parent>, void (hook130<(anonymous namespace)::hook130Parent>::*)()>::Impl<void (hook130<(anonymous namespace)::hook130Parent>::*)()>::function(hook130<(anonymous namespace)::hook130Parent>*)
PUBLIC bc854 0 geode::modifier::AsStaticFunction_onViewFriendRequest<hook130<(anonymous namespace)::hook130Parent>, void (hook130<(anonymous namespace)::hook130Parent>::*)(cocos2d::CCObject*)>::Impl<void (hook130<(anonymous namespace)::hook130Parent>::*)(cocos2d::CCObject*)>::function(hook130<(anonymous namespace)::hook130Parent>*, cocos2d::CCObject*)
PUBLIC bc8e0 0 geode::addresser::Addresser::addressOfVirtual<void, GJRequestCell, FLAlertLayer*, bool>(void (GJRequestCell::*)(FLAlertLayer*, bool))
PUBLIC bc9a8 0 GJRequestCell::GJRequestCell(geode::ZeroConstructorType)
PUBLIC bcaa0 0 cocos2d::CCCopying::copyWithZone(cocos2d::CCZone*)
PUBLIC bcaa8 0 TableViewCell::~TableViewCell()
PUBLIC bcb04 0 TableViewCell::~TableViewCell()
PUBLIC bcb68 0 {virtual override thunk({offset(-320)}, TableViewCell::~TableViewCell())}
PUBLIC bcbc8 0 {virtual override thunk({offset(-320)}, TableViewCell::~TableViewCell())}
PUBLIC bcc30 0 cocos2d::CCKeyboardDelegate::keyUp(cocos2d::enumKeyCodes)
PUBLIC bcc34 0 cocos2d::CCMouseDelegate::rightKeyDown()
PUBLIC bcc38 0 cocos2d::CCMouseDelegate::rightKeyUp()
PUBLIC bcc3c 0 cocos2d::CCMouseDelegate::scrollWheel(float, float)
PUBLIC bcc40 0 __cxx_global_var_init
PUBLIC bd0b0 0 geode::modifier::ModifyBase<geode::modifier::ModifyDerive<BIGJScoreCell, GJScoreCell> >::~ModifyBase()
PUBLIC bd0cc 0 geode::modifier::ModifyDerive<BIGJScoreCell, GJScoreCell>::apply()
PUBLIC bd440 0 geode::modifier::ModifyBase<geode::modifier::ModifyDerive<BIGJScoreCell, GJScoreCell> >::apply()
PUBLIC bd444 0 geode::modifier::AsStaticFunction_loadFromScore<BIGJScoreCell, void (BIGJScoreCell::*)(GJUserScore*)>::Impl<void (BIGJScoreCell::*)(GJUserScore*)>::function(BIGJScoreCell*, GJUserScore*)
PUBLIC bd59c 0 BIGJScoreCell::onSimplePlayer(cocos2d::CCObject*)
PUBLIC bd5d8 0 __cxx_global_var_init
PUBLIC bda04 0 geode::modifier::ModifyBase<geode::modifier::ModifyDerive<hook10<(anonymous namespace)::hook10Parent>, GameLevelManager> >::~ModifyBase()
PUBLIC bda20 0 geode::modifier::ModifyDerive<hook10<(anonymous namespace)::hook10Parent>, GameLevelManager>::apply()
PUBLIC beb90 0 geode::Mod::get<void>()
PUBLIC bebcc 0 geode::modifier::ModifyBase<geode::modifier::ModifyDerive<hook10<(anonymous namespace)::hook10Parent>, GameLevelManager> >::apply()
PUBLIC bebd0 0 geode::modifier::AsStaticFunction_deleteLevel<hook10<(anonymous namespace)::hook10Parent>, void (hook10<(anonymous namespace)::hook10Parent>::*)(GJGameLevel*)>::Impl<void (hook10<(anonymous namespace)::hook10Parent>::*)(GJGameLevel*)>::function(hook10<(anonymous namespace)::hook10Parent>*, GJGameLevel*)
PUBLIC becc4 0 std::__ndk1::basic_string<char, std::__ndk1::char_traits<char>, std::__ndk1::allocator<char> >::basic_string[abi:ne190000]<0>()
PUBLIC bed74 0 geode::modifier::AsStaticFunction_getCompletedLevels<hook10<(anonymous namespace)::hook10Parent>, cocos2d::CCArray* (hook10<(anonymous namespace)::hook10Parent>::*)(bool)>::Impl<cocos2d::CCArray* (hook10<(anonymous namespace)::hook10Parent>::*)(bool)>::function(hook10<(anonymous namespace)::hook10Parent>*, bool)
PUBLIC bf250 0 geode::modifier::AsStaticFunction_getSavedLevels<hook10<(anonymous namespace)::hook10Parent>, cocos2d::CCArray* (hook10<(anonymous namespace)::hook10Parent>::*)(bool, int)>::Impl<cocos2d::CCArray* (hook10<(anonymous namespace)::hook10Parent>::*)(bool, int)>::function(hook10<(anonymous namespace)::hook10Parent>*, bool, int)
PUBLIC c02f0 0 geode::modifier::AsStaticFunction_limitSavedLevels<hook10<(anonymous namespace)::hook10Parent>, void (hook10<(anonymous namespace)::hook10Parent>::*)()>::Impl<void (hook10<(anonymous namespace)::hook10Parent>::*)()>::function(hook10<(anonymous namespace)::hook10Parent>*)
PUBLIC c0330 0 geode::modifier::AsStaticFunction_onProcessHttpRequestCompleted<hook10<(anonymous namespace)::hook10Parent>, void (hook10<(anonymous namespace)::hook10Parent>::*)(cocos2d::extension::CCHttpClient*, cocos2d::extension::CCHttpResponse*)>::Impl<void (hook10<(anonymous namespace)::hook10Parent>::*)(cocos2d::extension::CCHttpClient*, cocos2d::extension::CCHttpResponse*)>::function(hook10<(anonymous namespace)::hook10Parent>*, cocos2d::extension::CCHttpClient*, cocos2d::extension::CCHttpResponse*)
PUBLIC c0810 0 geode::modifier::AsStaticFunction_userNameForUserID<hook10<(anonymous namespace)::hook10Parent>, gd::string (hook10<(anonymous namespace)::hook10Parent>::*)(int)>::Impl<gd::string (hook10<(anonymous namespace)::hook10Parent>::*)(int)>::function(hook10<(anonymous namespace)::hook10Parent>*, int)
PUBLIC c0b14 0 geode::Mod::getSavedValue<bool>(std::__ndk1::basic_string_view<char, std::__ndk1::char_traits<char> >)
PUBLIC c0c9c 0 std::__ndk1::__variant_detail::__visitation::__base::__dispatcher<(unsigned long)0>::__dispatch[abi:ne190000]<std::__ndk1::__variant_detail::__dtor<std::__ndk1::__variant_detail::__traits<bool, std::__ndk1::basic_string<char, std::__ndk1::char_traits<char>, std::__ndk1::allocator<char> > >, (std::__ndk1::__variant_detail::_Trait)1>::__destroy[abi:ne190000]()::{lambda(auto:1&)#1}, std::__ndk1::__variant_detail::__base<(std::__ndk1::__variant_detail::__traits<bool, std::__ndk1::basic_string<char, std::__ndk1::char_traits<char>, std::__ndk1::allocator<char> > >)1, bool, std::__ndk1::allocator<char> >&>(std::__ndk1::__variant_detail::__dtor<std::__ndk1::__variant_detail::__traits<bool, std::__ndk1::basic_string<char, std::__ndk1::char_traits<char>, std::__ndk1::allocator<char> > >, (std::__ndk1::__variant_detail::_Trait)1>, std::__ndk1::__variant_detail::__base<(std::__ndk1::__variant_detail::__traits<bool, std::__ndk1::basic_string<char, std::__ndk1::char_traits<char>, std::__ndk1::allocator<char> > >)1, bool, std::__ndk1::allocator<char> >&)
PUBLIC c0ca0 0 std::__ndk1::__variant_detail::__visitation::__base::__dispatcher<(unsigned long)1>::__dispatch[abi:ne190000]<std::__ndk1::__variant_detail::__dtor<std::__ndk1::__variant_detail::__traits<bool, std::__ndk1::basic_string<char, std::__ndk1::char_traits<char>, std::__ndk1::allocator<char> > >, (std::__ndk1::__variant_detail::_Trait)1>::__destroy[abi:ne190000]()::{lambda(auto:1&)#1}, std::__ndk1::__variant_detail::__base<(std::__ndk1::__variant_detail::__traits<bool, std::__ndk1::basic_string<char, std::__ndk1::char_traits<char>, std::__ndk1::allocator<char> > >)1, bool, std::__ndk1::allocator<char> >&>(std::__ndk1::__variant_detail::__dtor<std::__ndk1::__variant_detail::__traits<bool, std::__ndk1::basic_string<char, std::__ndk1::char_traits<char>, std::__ndk1::allocator<char> > >, (std::__ndk1::__variant_detail::_Trait)1>, std::__ndk1::__variant_detail::__base<(std::__ndk1::__variant_detail::__traits<bool, std::__ndk1::basic_string<char, std::__ndk1::char_traits<char>, std::__ndk1::allocator<char> > >)1, bool, std::__ndk1::allocator<char> >&)
PUBLIC c0cb4 0 geode::Mod::getSavedValue<int>(std::__ndk1::basic_string_view<char, std::__ndk1::char_traits<char> >)
PUBLIC c0e38 0 matjson::Value::as<int>() const
PUBLIC c0f3c 0 std::__ndk1::__variant_detail::__visitation::__base::__dispatcher<(unsigned long)0>::__dispatch[abi:ne190000]<std::__ndk1::__variant_detail::__dtor<std::__ndk1::__variant_detail::__traits<long, std::__ndk1::basic_string<char, std::__ndk1::char_traits<char>, std::__ndk1::allocator<char> > >, (std::__ndk1::__variant_detail::_Trait)1>::__destroy[abi:ne190000]()::{lambda(auto:1&)#1}, std::__ndk1::__variant_detail::__base<(std::__ndk1::__variant_detail::__traits<long, std::__ndk1::basic_string<char, std::__ndk1::char_traits<char>, std::__ndk1::allocator<char> > >)1, long, std::__ndk1::allocator<char> >&>(std::__ndk1::__variant_detail::__dtor<std::__ndk1::__variant_detail::__traits<long, std::__ndk1::basic_string<char, std::__ndk1::char_traits<char>, std::__ndk1::allocator<char> > >, (std::__ndk1::__variant_detail::_Trait)1>, std::__ndk1::__variant_detail::__base<(std::__ndk1::__variant_detail::__traits<long, std::__ndk1::basic_string<char, std::__ndk1::char_traits<char>, std::__ndk1::allocator<char> > >)1, long, std::__ndk1::allocator<char> >&)
PUBLIC c0f40 0 std::__ndk1::__variant_detail::__visitation::__base::__dispatcher<(unsigned long)1>::__dispatch[abi:ne190000]<std::__ndk1::__variant_detail::__dtor<std::__ndk1::__variant_detail::__traits<long, std::__ndk1::basic_string<char, std::__ndk1::char_traits<char>, std::__ndk1::allocator<char> > >, (std::__ndk1::__variant_detail::_Trait)1>::__destroy[abi:ne190000]()::{lambda(auto:1&)#1}, std::__ndk1::__variant_detail::__base<(std::__ndk1::__variant_detail::__traits<long, std::__ndk1::basic_string<char, std::__ndk1::char_traits<char>, std::__ndk1::allocator<char> > >)1, long, std::__ndk1::allocator<char> >&>(std::__ndk1::__variant_detail::__dtor<std::__ndk1::__variant_detail::__traits<long, std::__ndk1::basic_string<char, std::__ndk1::char_traits<char>, std::__ndk1::allocator<char> > >, (std::__ndk1::__variant_detail::_Trait)1>, std::__ndk1::__variant_detail::__base<(std::__ndk1::__variant_detail::__traits<long, std::__ndk1::basic_string<char, std::__ndk1::char_traits<char>, std::__ndk1::allocator<char> > >)1, long, std::__ndk1::allocator<char> >&)
PUBLIC c0f54 0 std::__ndk1::__variant_detail::__visitation::__base::__dispatcher<(unsigned long)0>::__dispatch[abi:ne190000]<std::__ndk1::__variant_detail::__dtor<std::__ndk1::__variant_detail::__traits<int, std::__ndk1::basic_string<char, std::__ndk1::char_traits<char>, std::__ndk1::allocator<char> > >, (std::__ndk1::__variant_detail::_Trait)1>::__destroy[abi:ne190000]()::{lambda(auto:1&)#1}, std::__ndk1::__variant_detail::__base<(std::__ndk1::__variant_detail::__traits<int, std::__ndk1::basic_string<char, std::__ndk1::char_traits<char>, std::__ndk1::allocator<char> > >)1, int, std::__ndk1::allocator<char> >&>(std::__ndk1::__variant_detail::__dtor<std::__ndk1::__variant_detail::__traits<int, std::__ndk1::basic_string<char, std::__ndk1::char_traits<char>, std::__ndk1::allocator<char> > >, (std::__ndk1::__variant_detail::_Trait)1>, std::__ndk1::__variant_detail::__base<(std::__ndk1::__variant_detail::__traits<int, std::__ndk1::basic_string<char, std::__ndk1::char_traits<char>, std::__ndk1::allocator<char> > >)1, int, std::__ndk1::allocator<char> >&)
PUBLIC c0f58 0 std::__ndk1::__variant_detail::__visitation::__base::__dispatcher<(unsigned long)1>::__dispatch[abi:ne190000]<std::__ndk1::__variant_detail::__dtor<std::__ndk1::__variant_detail::__traits<int, std::__ndk1::basic_string<char, std::__ndk1::char_traits<char>, std::__ndk1::allocator<char> > >, (std::__ndk1::__variant_detail::_Trait)1>::__destroy[abi:ne190000]()::{lambda(auto:1&)#1}, std::__ndk1::__variant_detail::__base<(std::__ndk1::__variant_detail::__traits<int, std::__ndk1::basic_string<char, std::__ndk1::char_traits<char>, std::__ndk1::allocator<char> > >)1, int, std::__ndk1::allocator<char> >&>(std::__ndk1::__variant_detail::__dtor<std::__ndk1::__variant_detail::__traits<int, std::__ndk1::basic_string<char, std::__ndk1::char_traits<char>, std::__ndk1::allocator<char> > >, (std::__ndk1::__variant_detail::_Trait)1>, std::__ndk1::__variant_detail::__base<(std::__ndk1::__variant_detail::__traits<int, std::__ndk1::basic_string<char, std::__ndk1::char_traits<char>, std::__ndk1::allocator<char> > >)1, int, std::__ndk1::allocator<char> >&)
PUBLIC c0f6c 0 geode::modifier::FieldIntermediate<hook10<(anonymous namespace)::hook10Parent>, GameLevelManager>::operator->()
PUBLIC c10f8 0 geode::Mod::getSavedValue<bool>(std::__ndk1::basic_string_view<char, std::__ndk1::char_traits<char> >, bool const&)
PUBLIC c12d4 0 cocos2d::CCString::createWithFormat(char const*, ...)
PUBLIC c1414 0 _ZNSt6__ndk112basic_stringIcNS_11char_traitsIcEENS_9allocatorIcEEEC2IN2gd6stringETnNS_9enable_ifIXaasr33__can_be_converted_to_string_viewIcS2_T_EE5valuentsr17__is_same_uncvrefISA_S5_EE5valueEiE4typeELi0EEERKSA_
PUBLIC c14c4 0 hook10<(anonymous namespace)::hook10Parent>::validateRangeOption(std::__ndk1::basic_string<char, std::__ndk1::char_traits<char>, std::__ndk1::allocator<char> > const&, int, int, int)
PUBLIC c16d0 0 geode::modifier::FieldIntermediate<hook10<(anonymous namespace)::hook10Parent>, GameLevelManager>::fieldDestructor(void*)
PUBLIC c16f0 0 std::__ndk1::vector<unsigned int, std::__ndk1::allocator<unsigned int> >::__throw_length_error[abi:ne190000]() const
PUBLIC c1704 0 std::__ndk1::vector<int, std::__ndk1::allocator<int> >::__throw_length_error[abi:ne190000]() const
PUBLIC c1718 0 geode::Mod::getSavedValue<int>(std::__ndk1::basic_string_view<char, std::__ndk1::char_traits<char> >, int const&)
PUBLIC c18f4 0 __cxx_global_var_init
PUBLIC c1ddc 0 geode::modifier::ModifyBase<geode::modifier::ModifyDerive<BIInfoLayer, InfoLayer> >::~ModifyBase()
PUBLIC c1df8 0 geode::modifier::ModifyDerive<BIInfoLayer, InfoLayer>::apply()
PUBLIC c2ae4 0 geode::modifier::ModifyBase<geode::modifier::ModifyDerive<BIInfoLayer, InfoLayer> >::apply()
PUBLIC c2ae8 0 geode::modifier::ModifyBase<geode::modifier::ModifyDerive<BIInfoLayer, InfoLayer> >::setHookPriority(std::__ndk1::basic_string_view<char, std::__ndk1::char_traits<char> >, int)
PUBLIC c2d44 0 geode::modifier::AsStaticFunction_init<BIInfoLayer, bool (BIInfoLayer::*)(GJGameLevel*, GJUserScore*, GJLevelList*)>::Impl<bool (BIInfoLayer::*)(GJGameLevel*, GJUserScore*, GJLevelList*)>::function(BIInfoLayer*, GJGameLevel*, GJUserScore*, GJLevelList*)
PUBLIC c31bc 0 geode::modifier::AsStaticFunction_loadPage<BIInfoLayer, void (BIInfoLayer::*)(int, bool)>::Impl<void (BIInfoLayer::*)(int, bool)>::function(BIInfoLayer*, int, bool)
PUBLIC c31c0 0 geode::Hook::create<void (*)(BIInfoLayer*, cocos2d::CCObject*)>(void*, void (*)(BIInfoLayer*, cocos2d::CCObject*), std::__ndk1::basic_string<char, std::__ndk1::char_traits<char>, std::__ndk1::allocator<char> > const&, tulip::hook::TulipConvention, tulip::hook::HookMetadata const&)
PUBLIC c3344 0 geode::modifier::AsStaticFunction_onLevelInfo<BIInfoLayer, void (BIInfoLayer::*)(cocos2d::CCObject*)>::Impl<void (BIInfoLayer::*)(cocos2d::CCObject*)>::function(BIInfoLayer*, cocos2d::CCObject*)
PUBLIC c33f8 0 geode::modifier::AsStaticFunction_onMore<BIInfoLayer, void (BIInfoLayer::*)(cocos2d::CCObject*)>::Impl<void (BIInfoLayer::*)(cocos2d::CCObject*)>::function(BIInfoLayer*, cocos2d::CCObject*)
PUBLIC c34d0 0 geode::modifier::AsStaticFunction_setupCommentsBrowser<BIInfoLayer, void (BIInfoLayer::*)(cocos2d::CCArray*)>::Impl<void (BIInfoLayer::*)(cocos2d::CCArray*)>::function(BIInfoLayer*, cocos2d::CCArray*)
PUBLIC c3518 0 BIInfoLayer::onJumpToPageLayer(cocos2d::CCObject*)
PUBLIC c3534 0 BIInfoLayer::onInfoLayerToggleSchedule(cocos2d::CCObject*)
PUBLIC c36d8 0 BIInfoLayer::onCustomSearch(cocos2d::CCObject*)
PUBLIC c36f8 0 geode::modifier::FieldIntermediate<BIInfoLayer, InfoLayer>::self()
PUBLIC c3884 0 geode::modifier::FieldIntermediate<BIInfoLayer, InfoLayer>::fieldDestructor(void*)
PUBLIC c3888 0 BIInfoLayer::onInfoLayerSchedule(float)
PUBLIC c397c 0 BIInfoLayer::loadPage(int, bool)
PUBLIC c3a50 0 __cxx_global_var_init
PUBLIC c3ec0 0 geode::modifier::ModifyBase<geode::modifier::ModifyDerive<BIItemInfoPopup, ItemInfoPopup> >::~ModifyBase()
PUBLIC c3edc 0 geode::modifier::ModifyDerive<BIItemInfoPopup, ItemInfoPopup>::apply()
PUBLIC c427c 0 geode::modifier::ModifyBase<geode::modifier::ModifyDerive<BIItemInfoPopup, ItemInfoPopup> >::apply()
PUBLIC c4280 0 geode::modifier::AsStaticFunction_init<BIItemInfoPopup, bool (BIItemInfoPopup::*)(int, UnlockType)>::Impl<bool (BIItemInfoPopup::*)(int, UnlockType)>::function(BIItemInfoPopup*, int, UnlockType)
PUBLIC c4400 0 BIItemInfoPopup::onChestReveal(cocos2d::CCObject*)
PUBLIC c4774 0 BIItemInfoPopup::updateLabelString(CCMenuItemSpriteExtra*, char const*)
PUBLIC c4894 0 geode::cocos::CCArrayExt<GJRewardObject*, GJRewardObject>::~CCArrayExt()
PUBLIC c48b4 0 geode::cocos::CCDictionaryExt<int, GJRewardItem*, GJRewardItem>::~CCDictionaryExt()
PUBLIC c48d0 0 __cxx_global_var_init
PUBLIC c4d40 0 geode::modifier::ModifyBase<geode::modifier::ModifyDerive<BILeaderboardsLayer, LeaderboardsLayer> >::~ModifyBase()
PUBLIC c4d5c 0 geode::modifier::ModifyDerive<BILeaderboardsLayer, LeaderboardsLayer>::apply()
PUBLIC c50c8 0 geode::modifier::ModifyBase<geode::modifier::ModifyDerive<BILeaderboardsLayer, LeaderboardsLayer> >::apply()
PUBLIC c50cc 0 geode::modifier::AsStaticFunction_init<BILeaderboardsLayer, bool (BILeaderboardsLayer::*)(LeaderboardState)>::Impl<bool (BILeaderboardsLayer::*)(LeaderboardState)>::function(BILeaderboardsLayer*, LeaderboardState)
PUBLIC c5214 0 BILeaderboardsLayer::onLeaderboardRefresh(cocos2d::CCObject*)
PUBLIC c5368 0 __cxx_global_var_init
PUBLIC c57d8 0 geode::modifier::ModifyBase<geode::modifier::ModifyDerive<BILevelAreaInnerLayer, LevelAreaInnerLayer> >::~ModifyBase()
PUBLIC c57f4 0 geode::modifier::ModifyDerive<BILevelAreaInnerLayer, LevelAreaInnerLayer>::apply()
PUBLIC c5b68 0 geode::modifier::ModifyBase<geode::modifier::ModifyDerive<BILevelAreaInnerLayer, LevelAreaInnerLayer> >::apply()
PUBLIC c5b6c 0 geode::modifier::AsStaticFunction_init<BILevelAreaInnerLayer, bool (BILevelAreaInnerLayer::*)(bool)>::Impl<bool (BILevelAreaInnerLayer::*)(bool)>::function(BILevelAreaInnerLayer*, bool)
PUBLIC c5d48 0 BILevelAreaInnerLayer::addInfoBtn(int, cocos2d::CCPoint)
PUBLIC c5e9c 0 geode::modifier::FieldIntermediate<BILevelAreaInnerLayer, LevelAreaInnerLayer>::self()
PUBLIC c6028 0 geode::modifier::FieldIntermediate<BILevelAreaInnerLayer, LevelAreaInnerLayer>::fieldDestructor(void*)
PUBLIC c602c 0 BILevelAreaInnerLayer::onLevelInfo(cocos2d::CCObject*)
PUBLIC c6114 0 std::__ndk1::unordered_map<SearchType, char const*, std::__ndk1::hash<SearchType>, std::__ndk1::equal_to<SearchType>, std::__ndk1::allocator<std::__ndk1::pair<SearchType const, char const*> > >::~unordered_map[abi:ne190000]()
PUBLIC c6160 0 std::__ndk1::unordered_map<SearchType, std::__ndk1::pair<char const*, char const*>, std::__ndk1::hash<SearchType>, std::__ndk1::equal_to<SearchType>, std::__ndk1::allocator<std::__ndk1::pair<SearchType const, std::__ndk1::pair<char const*, char const*> > > >::~unordered_map[abi:ne190000]()
PUBLIC c61ac 0 __cxx_global_var_init.5
PUBLIC c67d0 0 geode::modifier::ModifyBase<geode::modifier::ModifyDerive<BILevelBrowserLayer, LevelBrowserLayer> >::~ModifyBase()
PUBLIC c67ec 0 std::__ndk1::__hash_table<std::__ndk1::__hash_value_type<SearchType, char const*>, std::__ndk1::__unordered_map_hasher<SearchType, std::__ndk1::__hash_value_type<SearchType, char const*>, std::__ndk1::hash<SearchType>, std::__ndk1::equal_to<SearchType>, true>, std::__ndk1::__unordered_map_equal<SearchType, std::__ndk1::__hash_value_type<SearchType, char const*>, std::__ndk1::equal_to<SearchType>, std::__ndk1::hash<SearchType>, true>, std::__ndk1::allocator<std::__ndk1::__hash_value_type<SearchType, char const*> > >::~__hash_table()
PUBLIC c683c 0 std::__ndk1::__hash_table<std::__ndk1::__hash_value_type<SearchType, char const*>, std::__ndk1::__unordered_map_hasher<SearchType, std::__ndk1::__hash_value_type<SearchType, char const*>, std::__ndk1::hash<SearchType>, std::__ndk1::equal_to<SearchType>, true>, std::__ndk1::__unordered_map_equal<SearchType, std::__ndk1::__hash_value_type<SearchType, char const*>, std::__ndk1::equal_to<SearchType>, std::__ndk1::hash<SearchType>, true>, std::__ndk1::allocator<std::__ndk1::__hash_value_type<SearchType, char const*> > >::__emplace_unique_key_args<SearchType, std::__ndk1::pair<SearchType const, char const*> const&>(SearchType const&, std::__ndk1::pair<SearchType const, char const*> const&)
PUBLIC c6d04 0 std::__ndk1::__hash_table<std::__ndk1::__hash_value_type<SearchType, std::__ndk1::pair<char const*, char const*> >, std::__ndk1::__unordered_map_hasher<SearchType, std::__ndk1::__hash_value_type<SearchType, std::__ndk1::pair<char const*, char const*> >, std::__ndk1::hash<SearchType>, std::__ndk1::equal_to<SearchType>, true>, std::__ndk1::__unordered_map_equal<SearchType, std::__ndk1::__hash_value_type<SearchType, std::__ndk1::pair<char const*, char const*> >, std::__ndk1::equal_to<SearchType>, std::__ndk1::hash<SearchType>, true>, std::__ndk1::allocator<std::__ndk1::__hash_value_type<SearchType, std::__ndk1::pair<char const*, char const*> > > >::~__hash_table()
PUBLIC c6d54 0 std::__ndk1::__hash_table<std::__ndk1::__hash_value_type<SearchType, std::__ndk1::pair<char const*, char const*> >, std::__ndk1::__unordered_map_hasher<SearchType, std::__ndk1::__hash_value_type<SearchType, std::__ndk1::pair<char const*, char const*> >, std::__ndk1::hash<SearchType>, std::__ndk1::equal_to<SearchType>, true>, std::__ndk1::__unordered_map_equal<SearchType, std::__ndk1::__hash_value_type<SearchType, std::__ndk1::pair<char const*, char const*> >, std::__ndk1::equal_to<SearchType>, std::__ndk1::hash<SearchType>, true>, std::__ndk1::allocator<std::__ndk1::__hash_value_type<SearchType, std::__ndk1::pair<char const*, char const*> > > >::__emplace_unique_key_args<SearchType, std::__ndk1::pair<SearchType const, std::__ndk1::pair<char const*, char const*> > const&>(SearchType const&, std::__ndk1::pair<SearchType const, std::__ndk1::pair<char const*, char const*> > const&)
PUBLIC c7228 0 geode::modifier::ModifyDerive<BILevelBrowserLayer, LevelBrowserLayer>::apply()
PUBLIC c81dc 0 geode::modifier::ModifyBase<geode::modifier::ModifyDerive<BILevelBrowserLayer, LevelBrowserLayer> >::apply()
PUBLIC c81e0 0 geode::modifier::AsStaticFunction_setupPageInfo<BILevelBrowserLayer, void (BILevelBrowserLayer::*)(gd::string, char const*)>::Impl<void (BILevelBrowserLayer::*)(gd::string, char const*)>::function(BILevelBrowserLayer*, gd::string, char const*)
PUBLIC c8448 0 geode::modifier::AsStaticFunction_getSearchTitle<BILevelBrowserLayer, gd::string (BILevelBrowserLayer::*)()>::Impl<gd::string (BILevelBrowserLayer::*)()>::function(BILevelBrowserLayer*)
PUBLIC c8714 0 geode::modifier::AsStaticFunction_init<BILevelBrowserLayer, bool (BILevelBrowserLayer::*)(GJSearchObject*)>::Impl<bool (BILevelBrowserLayer::*)(GJSearchObject*)>::function(BILevelBrowserLayer*, GJSearchObject*)
PUBLIC c8fe4 0 geode::modifier::AsStaticFunction_loadPage<BILevelBrowserLayer, void (BILevelBrowserLayer::*)(GJSearchObject*)>::Impl<void (BILevelBrowserLayer::*)(GJSearchObject*)>::function(BILevelBrowserLayer*, GJSearchObject*)
PUBLIC c9008 0 geode::Hook::create<void (*)(BILevelBrowserLayer*, cocos2d::CCObject*)>(void*, void (*)(BILevelBrowserLayer*, cocos2d::CCObject*), std::__ndk1::basic_string<char, std::__ndk1::char_traits<char>, std::__ndk1::allocator<char> > const&, tulip::hook::TulipConvention, tulip::hook::HookMetadata const&)
PUBLIC c918c 0 geode::modifier::AsStaticFunction_onGoToPage<BILevelBrowserLayer, void (BILevelBrowserLayer::*)(cocos2d::CCObject*)>::Impl<void (BILevelBrowserLayer::*)(cocos2d::CCObject*)>::function(BILevelBrowserLayer*, cocos2d::CCObject*)
PUBLIC c9294 0 geode::modifier::AsStaticFunction_onInfo<BILevelBrowserLayer, void (BILevelBrowserLayer::*)(cocos2d::CCObject*)>::Impl<void (BILevelBrowserLayer::*)(cocos2d::CCObject*)>::function(BILevelBrowserLayer*, cocos2d::CCObject*)
PUBLIC c9500 0 BILevelBrowserLayer::refreshButtonVisibility()
PUBLIC c965c 0 geode::modifier::FieldIntermediate<BILevelBrowserLayer, LevelBrowserLayer>::self()
PUBLIC c97e4 0 geode::modifier::FieldIntermediate<BILevelBrowserLayer, LevelBrowserLayer>::fieldDestructor(void*)
PUBLIC c97e8 0 fmt::v11::detail::value<fmt::v11::context>::format_custom_arg<gd::string, fmt::v11::formatter<gd::string, char, void> >(void*, fmt::v11::basic_format_parse_context<char>&, fmt::v11::context&)
PUBLIC c98b8 0 fmt::v11::formatter<gd::string, char, void>::format<fmt::v11::context>(gd::string const&, fmt::v11::context&) const
PUBLIC c9a14 0 fmt::v11::detail::parse_format_specs<char>(char const*, char const*, fmt::v11::detail::dynamic_format_specs<char>&, fmt::v11::basic_format_parse_context<char>&, fmt::v11::detail::type)
PUBLIC c9ec8 0 fmt::v11::detail::parse_dynamic_spec<char>(char const*, char const*, int&, fmt::v11::detail::arg_ref<char>&, fmt::v11::basic_format_parse_context<char>&)
PUBLIC ca06c 0 fmt::v11::detail::do_parse_arg_id<char, fmt::v11::detail::dynamic_spec_id_handler<char>&>(char const*, char const*, fmt::v11::detail::dynamic_spec_id_handler<char>&)
PUBLIC ca204 0 fmt::v11::detail::handle_dynamic_spec<fmt::v11::detail::width_checker, fmt::v11::context>(int&, fmt::v11::detail::arg_ref<fmt::v11::context::char_type>, fmt::v11::context&)
PUBLIC ca318 0 fmt::v11::detail::handle_dynamic_spec<fmt::v11::detail::precision_checker, fmt::v11::context>(int&, fmt::v11::detail::arg_ref<fmt::v11::context::char_type>, fmt::v11::context&)
PUBLIC ca42c 0 fmt::v11::detail::write<char, fmt::v11::basic_appender<char> >(fmt::v11::basic_appender<char>, fmt::v11::basic_string_view<char>, fmt::v11::format_specs const&)
PUBLIC ca6a8 0 fmt::v11::detail::write_escaped_string<char, fmt::v11::detail::counting_iterator>(fmt::v11::detail::counting_iterator, fmt::v11::basic_string_view<char>)
PUBLIC cab8c 0 fmt::v11::detail::write_padded<char, (fmt::v11::align::type)1, fmt::v11::basic_appender<char>, fmt::v11::detail::write<char, fmt::v11::basic_appender<char> >(fmt::v11::basic_appender<char>, fmt::v11::basic_string_view<char>, fmt::v11::format_specs const&)::{lambda(fmt::v11::basic_appender<char>)#1}>(fmt::v11::basic_appender<char>, fmt::v11::format_specs const&, unsigned long, unsigned long, fmt::v11::detail::write<char, fmt::v11::basic_appender<char> >(fmt::v11::basic_appender<char>, fmt::v11::basic_string_view<char>, fmt::v11::format_specs const&)::{lambda(fmt::v11::basic_appender<char>&&)#1})
PUBLIC cad98 0 fmt::v11::detail::for_each_codepoint<fmt::v11::detail::code_point_index(fmt::v11::basic_string_view<char>, unsigned long)::{lambda(unsigned int, fmt::v11::basic_string_view<char>)#1}>(fmt::v11::basic_string_view<char>, fmt::v11::detail::code_point_index(fmt::v11::basic_string_view<char>, unsigned long)::{lambda(unsigned int, fmt::v11::basic_string_view<char>)#1})
PUBLIC cb18c 0 fmt::v11::detail::write_escaped_cp<fmt::v11::detail::counting_iterator, char>(fmt::v11::detail::counting_iterator, fmt::v11::detail::find_escape_result<char> const&)
PUBLIC cb320 0 fmt::v11::detail::for_each_codepoint<fmt::v11::detail::compute_width(fmt::v11::basic_string_view<char>)::count_code_points>(fmt::v11::basic_string_view<char>, fmt::v11::detail::compute_width(fmt::v11::basic_string_view<char>)::count_code_points)::{lambda(char const*, char const*)#1}::operator()(char const*, char const*) const
PUBLIC cb4d8 0 fmt::v11::detail::fill<char, fmt::v11::basic_appender<char> >(fmt::v11::basic_appender<char>, unsigned long, fmt::v11::detail::fill_t const&)
PUBLIC cb6a8 0 fmt::v11::detail::write_escaped_string<char, fmt::v11::basic_appender<char> >(fmt::v11::basic_appender<char>, fmt::v11::basic_string_view<char>)
PUBLIC cbcf0 0 fmt::v11::detail::write_escaped_cp<fmt::v11::basic_appender<char>, char>(fmt::v11::basic_appender<char>, fmt::v11::detail::find_escape_result<char> const&)
PUBLIC cbed4 0 fmt::v11::detail::write_codepoint<(unsigned long)2, char, fmt::v11::basic_appender<char> >(fmt::v11::basic_appender<char>, char, unsigned int)
PUBLIC cc04c 0 fmt::v11::detail::write_codepoint<(unsigned long)4, char, fmt::v11::basic_appender<char> >(fmt::v11::basic_appender<char>, char, unsigned int)
PUBLIC cc1c4 0 fmt::v11::detail::write_codepoint<(unsigned long)8, char, fmt::v11::basic_appender<char> >(fmt::v11::basic_appender<char>, char, unsigned int)
PUBLIC cc33c 0 fmt::v11::detail::get_dynamic_spec<fmt::v11::detail::width_checker, fmt::v11::basic_format_arg<fmt::v11::context> >(fmt::v11::basic_format_arg<fmt::v11::context>)
PUBLIC cc3d0 0 fmt::v11::basic_format_args<fmt::v11::context>::get<char>(fmt::v11::basic_string_view<char>) const
PUBLIC cc504 0 fmt::v11::detail::get_dynamic_spec<fmt::v11::detail::precision_checker, fmt::v11::basic_format_arg<fmt::v11::context> >(fmt::v11::basic_format_arg<fmt::v11::context>)
PUBLIC cc598 0 BILevelBrowserLayer::onLevelBrowserRandom(cocos2d::CCObject*)
PUBLIC cc5f0 0 BILevelBrowserLayer::onLevelBrowserLast(cocos2d::CCObject*)
PUBLIC cc67c 0 BILevelBrowserLayer::onLevelBrowserFilter(cocos2d::CCObject*)
PUBLIC cc884 0 BILevelBrowserLayer::onLevelBrowserFirst(cocos2d::CCObject*)
PUBLIC cc8b0 0 BILevelBrowserLayer::onLevelBrowserStar(cocos2d::CCObject*)
PUBLIC cc974 0 std::__ndk1::__function::__base<void (int)>::~__base()
PUBLIC cc978 0 std::__ndk1::__function::__func<BILevelBrowserLayer::init(GJSearchObject*)::{lambda(int)#1}, std::__ndk1::allocator<BILevelBrowserLayer::init(GJSearchObject*)::{lambda(int)#1}>, void (int)>::~__func()
PUBLIC cc97c 0 std::__ndk1::__function::__func<BILevelBrowserLayer::init(GJSearchObject*)::{lambda(int)#1}, std::__ndk1::allocator<BILevelBrowserLayer::init(GJSearchObject*)::{lambda(int)#1}>, void (int)>::__clone() const
PUBLIC cc9b0 0 std::__ndk1::__function::__func<BILevelBrowserLayer::init(GJSearchObject*)::{lambda(int)#1}, std::__ndk1::allocator<BILevelBrowserLayer::init(GJSearchObject*)::{lambda(int)#1}>, void (int)>::__clone(std::__ndk1::__function::__base<void (int)>*) const
PUBLIC cc9c4 0 std::__ndk1::__function::__func<BILevelBrowserLayer::init(GJSearchObject*)::{lambda(int)#1}, std::__ndk1::allocator<BILevelBrowserLayer::init(GJSearchObject*)::{lambda(int)#1}>, void (int)>::destroy()
PUBLIC cc9c8 0 std::__ndk1::__function::__func<BILevelBrowserLayer::init(GJSearchObject*)::{lambda(int)#1}, std::__ndk1::allocator<BILevelBrowserLayer::init(GJSearchObject*)::{lambda(int)#1}>, void (int)>::destroy_deallocate()
PUBLIC cc9cc 0 std::__ndk1::__function::__func<BILevelBrowserLayer::init(GJSearchObject*)::{lambda(int)#1}, std::__ndk1::allocator<BILevelBrowserLayer::init(GJSearchObject*)::{lambda(int)#1}>, void (int)>::operator()(int&&)
PUBLIC cc9e4 0 std::__ndk1::__function::__func<BILevelBrowserLayer::init(GJSearchObject*)::{lambda(int)#1}, std::__ndk1::allocator<BILevelBrowserLayer::init(GJSearchObject*)::{lambda(int)#1}>, void (int)>::target(std::type_info const&) const
PUBLIC cca00 0 std::__ndk1::__function::__func<BILevelBrowserLayer::init(GJSearchObject*)::{lambda(int)#1}, std::__ndk1::allocator<BILevelBrowserLayer::init(GJSearchObject*)::{lambda(int)#1}>, void (int)>::target_type() const
PUBLIC cca0c 0 BISearchObject::~BISearchObject()
PUBLIC cca58 0 std::__ndk1::__tree<int, std::__ndk1::less<int>, std::__ndk1::allocator<int> >::destroy(std::__ndk1::__tree_node<int, void*>*)
PUBLIC cca9c 0 _GLOBAL__sub_I_LevelBrowserLayer.cpp
PUBLIC ccc24 0 __cxx_global_var_init
PUBLIC cd248 0 geode::modifier::ModifyBase<geode::modifier::ModifyDerive<BILevelCell, LevelCell> >::~ModifyBase()
PUBLIC cd264 0 geode::modifier::ModifyDerive<BILevelCell, LevelCell>::apply()
PUBLIC cd84c 0 geode::modifier::ModifyBase<geode::modifier::ModifyDerive<BILevelCell, LevelCell> >::apply()
PUBLIC cd850 0 geode::modifier::AsStaticFunction_loadCustomLevelCell<BILevelCell, void (BILevelCell::*)()>::Impl<void (BILevelCell::*)()>::function(BILevelCell*)
PUBLIC ce074 0 geode::modifier::AsStaticFunction_onViewProfile<BILevelCell, void (BILevelCell::*)(cocos2d::CCObject*)>::Impl<void (BILevelCell::*)(cocos2d::CCObject*)>::function(BILevelCell*, cocos2d::CCObject*)
PUBLIC ce144 0 std::__ndk1::__thread_proxy[abi:ne190000]<std::__ndk1::tuple<std::__ndk1::unique_ptr<std::__ndk1::__thread_struct, std::__ndk1::default_delete<std::__ndk1::unique_ptr> >, BILevelCell::loadCustomLevelCell()::{lambda()#1}> >(std::__ndk1::tuple<std::__ndk1::unique_ptr<std::__ndk1::__thread_struct, std::__ndk1::default_delete<std::__ndk1::unique_ptr> >, BILevelCell::loadCustomLevelCell()::{lambda()#1}>)
PUBLIC ce31c 0 std::__ndk1::unique_ptr<std::__ndk1::tuple<std::__ndk1::unique_ptr<std::__ndk1::__thread_struct, std::__ndk1::default_delete<std::__ndk1::__thread_struct> >, BILevelCell::loadCustomLevelCell()::{lambda()#1}>, std::__ndk1::default_delete<std::__ndk1::tuple<std::__ndk1::unique_ptr<std::__ndk1::__thread_struct, std::__ndk1::default_delete<std::__ndk1::__thread_struct> >, BILevelCell::loadCustomLevelCell()::{lambda()#1}> > >::~unique_ptr[abi:ne190000]()
PUBLIC ce36c 0 std::__ndk1::unique_ptr<std::__ndk1::__thread_struct, std::__ndk1::default_delete<std::__ndk1::__thread_struct> >::~unique_ptr[abi:ne190000]()
PUBLIC ce3a8 0 std::__ndk1::__function::__base<void ()>::~__base()
PUBLIC ce3ac 0 std::__ndk1::__function::__func<BILevelCell::loadCustomLevelCell()::{lambda()#1}::operator()() const::{lambda()#1}, std::__ndk1::allocator<BILevelCell::loadCustomLevelCell()::{lambda()#1}::operator()() const::{lambda()#1}>, void ()>::~__func()
PUBLIC ce3b0 0 std::__ndk1::__function::__func<BILevelCell::loadCustomLevelCell()::{lambda()#1}::operator()() const::{lambda()#1}, std::__ndk1::allocator<BILevelCell::loadCustomLevelCell()::{lambda()#1}::operator()() const::{lambda()#1}>, void ()>::__clone() const
PUBLIC ce3e4 0 std::__ndk1::__function::__func<BILevelCell::loadCustomLevelCell()::{lambda()#1}::operator()() const::{lambda()#1}, std::__ndk1::allocator<BILevelCell::loadCustomLevelCell()::{lambda()#1}::operator()() const::{lambda()#1}>, void ()>::__clone(std::__ndk1::__function::__base<void ()>*) const
PUBLIC ce3f8 0 std::__ndk1::__function::__func<BILevelCell::loadCustomLevelCell()::{lambda()#1}::operator()() const::{lambda()#1}, std::__ndk1::allocator<BILevelCell::loadCustomLevelCell()::{lambda()#1}::operator()() const::{lambda()#1}>, void ()>::destroy()
PUBLIC ce3fc 0 std::__ndk1::__function::__func<BILevelCell::loadCustomLevelCell()::{lambda()#1}::operator()() const::{lambda()#1}, std::__ndk1::allocator<BILevelCell::loadCustomLevelCell()::{lambda()#1}::operator()() const::{lambda()#1}>, void ()>::destroy_deallocate()
PUBLIC ce400 0 std::__ndk1::__function::__func<BILevelCell::loadCustomLevelCell()::{lambda()#1}::operator()() const::{lambda()#1}, std::__ndk1::allocator<BILevelCell::loadCustomLevelCell()::{lambda()#1}::operator()() const::{lambda()#1}>, void ()>::operator()()
PUBLIC ce408 0 std::__ndk1::__function::__func<BILevelCell::loadCustomLevelCell()::{lambda()#1}::operator()() const::{lambda()#1}, std::__ndk1::allocator<BILevelCell::loadCustomLevelCell()::{lambda()#1}::operator()() const::{lambda()#1}>, void ()>::target(std::type_info const&) const
PUBLIC ce424 0 std::__ndk1::__function::__func<BILevelCell::loadCustomLevelCell()::{lambda()#1}::operator()() const::{lambda()#1}, std::__ndk1::allocator<BILevelCell::loadCustomLevelCell()::{lambda()#1}::operator()() const::{lambda()#1}>, void ()>::target_type() const
PUBLIC ce430 0 __cxx_global_var_init
PUBLIC ce8d4 0 geode::modifier::ModifyBase<geode::modifier::ModifyDerive<hook13<(anonymous namespace)::hook13Parent>, LevelInfoLayer> >::~ModifyBase()
PUBLIC ce8f0 0 geode::modifier::ModifyDerive<hook13<(anonymous namespace)::hook13Parent>, LevelInfoLayer>::apply()
PUBLIC cf328 0 geode::modifier::ModifyBase<geode::modifier::ModifyDerive<hook13<(anonymous namespace)::hook13Parent>, LevelInfoLayer> >::apply()
PUBLIC cf32c 0 geode::modifier::ModifyBase<geode::modifier::ModifyDerive<hook13<(anonymous namespace)::hook13Parent>, LevelInfoLayer> >::setHookPriority(std::__ndk1::basic_string_view<char, std::__ndk1::char_traits<char> >, int)
PUBLIC cf588 0 geode::modifier::AsStaticFunction_init<hook13<(anonymous namespace)::hook13Parent>, bool (hook13<(anonymous namespace)::hook13Parent>::*)(GJGameLevel*, bool)>::Impl<bool (hook13<(anonymous namespace)::hook13Parent>::*)(GJGameLevel*, bool)>::function(hook13<(anonymous namespace)::hook13Parent>*, GJGameLevel*, bool)
PUBLIC cf674 0 geode::Hook::create<void (*)(hook13<(anonymous namespace)::hook13Parent>*, cocos2d::CCObject*)>(void*, void (*)(hook13<(anonymous namespace)::hook13Parent>*, cocos2d::CCObject*), std::__ndk1::basic_string<char, std::__ndk1::char_traits<char>, std::__ndk1::allocator<char> > const&, tulip::hook::TulipConvention, tulip::hook::HookMetadata const&)
PUBLIC cf7f8 0 geode::modifier::AsStaticFunction_onLevelInfo<hook13<(anonymous namespace)::hook13Parent>, void (hook13<(anonymous namespace)::hook13Parent>::*)(cocos2d::CCObject*)>::Impl<void (hook13<(anonymous namespace)::hook13Parent>::*)(cocos2d::CCObject*)>::function(hook13<(anonymous namespace)::hook13Parent>*, cocos2d::CCObject*)
PUBLIC cf800 0 geode::modifier::AsStaticFunction_onViewProfile<hook13<(anonymous namespace)::hook13Parent>, void (hook13<(anonymous namespace)::hook13Parent>::*)(cocos2d::CCObject*)>::Impl<void (hook13<(anonymous namespace)::hook13Parent>::*)(cocos2d::CCObject*)>::function(hook13<(anonymous namespace)::hook13Parent>*, cocos2d::CCObject*)
PUBLIC cf8d0 0 geode::modifier::AsStaticFunction_updateLabelValues<hook13<(anonymous namespace)::hook13Parent>, void (hook13<(anonymous namespace)::hook13Parent>::*)()>::Impl<void (hook13<(anonymous namespace)::hook13Parent>::*)()>::function(hook13<(anonymous namespace)::hook13Parent>*)
PUBLIC cfa7c 0 std::__ndk1::__thread_proxy[abi:ne190000]<std::__ndk1::tuple<std::__ndk1::unique_ptr<std::__ndk1::__thread_struct, std::__ndk1::default_delete<std::__ndk1::unique_ptr> >, hook13<(anonymous namespace)::hook13Parent>::updateLabelValues()::{lambda()#1}> >(std::__ndk1::tuple<std::__ndk1::unique_ptr<std::__ndk1::__thread_struct, std::__ndk1::default_delete<std::__ndk1::unique_ptr> >, hook13<(anonymous namespace)::hook13Parent>::updateLabelValues()::{lambda()#1}>)
PUBLIC cfc64 0 std::__ndk1::unique_ptr<std::__ndk1::tuple<std::__ndk1::unique_ptr<std::__ndk1::__thread_struct, std::__ndk1::default_delete<std::__ndk1::__thread_struct> >, hook13<(anonymous namespace)::hook13Parent>::updateLabelValues()::{lambda()#1}>, std::__ndk1::default_delete<std::__ndk1::tuple<std::__ndk1::unique_ptr<std::__ndk1::__thread_struct, std::__ndk1::default_delete<std::__ndk1::__thread_struct> >, hook13<(anonymous namespace)::hook13Parent>::updateLabelValues()::{lambda()#1}> > >::~unique_ptr[abi:ne190000]()
PUBLIC cfcb4 0 std::__ndk1::__function::__func<hook13<(anonymous namespace)::hook13Parent>::updateLabelValues()::{lambda()#1}::operator()() const::{lambda()#1}, std::__ndk1::allocator<hook13<(anonymous namespace)::hook13Parent>::updateLabelValues()::{lambda()#1}::operator()() const::{lambda()#1}>, void ()>::~__func()
PUBLIC cfcb8 0 std::__ndk1::__function::__func<hook13<(anonymous namespace)::hook13Parent>::updateLabelValues()::{lambda()#1}::operator()() const::{lambda()#1}, std::__ndk1::allocator<hook13<(anonymous namespace)::hook13Parent>::updateLabelValues()::{lambda()#1}::operator()() const::{lambda()#1}>, void ()>::__clone() const
PUBLIC cfcec 0 std::__ndk1::__function::__func<hook13<(anonymous namespace)::hook13Parent>::updateLabelValues()::{lambda()#1}::operator()() const::{lambda()#1}, std::__ndk1::allocator<hook13<(anonymous namespace)::hook13Parent>::updateLabelValues()::{lambda()#1}::operator()() const::{lambda()#1}>, void ()>::__clone(std::__ndk1::__function::__base<void ()>*) const
PUBLIC cfd00 0 std::__ndk1::__function::__func<hook13<(anonymous namespace)::hook13Parent>::updateLabelValues()::{lambda()#1}::operator()() const::{lambda()#1}, std::__ndk1::allocator<hook13<(anonymous namespace)::hook13Parent>::updateLabelValues()::{lambda()#1}::operator()() const::{lambda()#1}>, void ()>::destroy()
PUBLIC cfd04 0 std::__ndk1::__function::__func<hook13<(anonymous namespace)::hook13Parent>::updateLabelValues()::{lambda()#1}::operator()() const::{lambda()#1}, std::__ndk1::allocator<hook13<(anonymous namespace)::hook13Parent>::updateLabelValues()::{lambda()#1}::operator()() const::{lambda()#1}>, void ()>::destroy_deallocate()
PUBLIC cfd08 0 std::__ndk1::__function::__func<hook13<(anonymous namespace)::hook13Parent>::updateLabelValues()::{lambda()#1}::operator()() const::{lambda()#1}, std::__ndk1::allocator<hook13<(anonymous namespace)::hook13Parent>::updateLabelValues()::{lambda()#1}::operator()() const::{lambda()#1}>, void ()>::operator()()
PUBLIC cfd10 0 std::__ndk1::__function::__func<hook13<(anonymous namespace)::hook13Parent>::updateLabelValues()::{lambda()#1}::operator()() const::{lambda()#1}, std::__ndk1::allocator<hook13<(anonymous namespace)::hook13Parent>::updateLabelValues()::{lambda()#1}::operator()() const::{lambda()#1}>, void ()>::target(std::type_info const&) const
PUBLIC cfd2c 0 std::__ndk1::__function::__func<hook13<(anonymous namespace)::hook13Parent>::updateLabelValues()::{lambda()#1}::operator()() const::{lambda()#1}, std::__ndk1::allocator<hook13<(anonymous namespace)::hook13Parent>::updateLabelValues()::{lambda()#1}::operator()() const::{lambda()#1}>, void ()>::target_type() const
PUBLIC cfd38 0 std::__ndk1::__thread_proxy[abi:ne190000]<std::__ndk1::tuple<std::__ndk1::unique_ptr<std::__ndk1::__thread_struct, std::__ndk1::default_delete<std::__ndk1::unique_ptr> >, hook13<(anonymous namespace)::hook13Parent>::updateLabelValues()::{lambda()#2}> >(std::__ndk1::tuple<std::__ndk1::unique_ptr<std::__ndk1::__thread_struct, std::__ndk1::default_delete<std::__ndk1::unique_ptr> >, hook13<(anonymous namespace)::hook13Parent>::updateLabelValues()::{lambda()#2}>)
PUBLIC d0068 0 std::__ndk1::unique_ptr<std::__ndk1::tuple<std::__ndk1::unique_ptr<std::__ndk1::__thread_struct, std::__ndk1::default_delete<std::__ndk1::__thread_struct> >, hook13<(anonymous namespace)::hook13Parent>::updateLabelValues()::{lambda()#2}>, std::__ndk1::default_delete<std::__ndk1::tuple<std::__ndk1::unique_ptr<std::__ndk1::__thread_struct, std::__ndk1::default_delete<std::__ndk1::__thread_struct> >, hook13<(anonymous namespace)::hook13Parent>::updateLabelValues()::{lambda()#2}> > >::~unique_ptr[abi:ne190000]()
PUBLIC d00b8 0 std::__ndk1::__function::__func<hook13<(anonymous namespace)::hook13Parent>::updateLabelValues()::{lambda()#2}::operator()() const::{lambda()#1}, std::__ndk1::allocator<hook13<(anonymous namespace)::hook13Parent>::updateLabelValues()::{lambda()#2}::operator()() const::{lambda()#1}>, void ()>::~__func()
PUBLIC d00d8 0 std::__ndk1::__function::__func<hook13<(anonymous namespace)::hook13Parent>::updateLabelValues()::{lambda()#2}::operator()() const::{lambda()#1}, std::__ndk1::allocator<hook13<(anonymous namespace)::hook13Parent>::updateLabelValues()::{lambda()#2}::operator()() const::{lambda()#1}>, void ()>::~__func()
PUBLIC d0118 0 std::__ndk1::__function::__func<hook13<(anonymous namespace)::hook13Parent>::updateLabelValues()::{lambda()#2}::operator()() const::{lambda()#1}, std::__ndk1::allocator<hook13<(anonymous namespace)::hook13Parent>::updateLabelValues()::{lambda()#2}::operator()() const::{lambda()#1}>, void ()>::__clone() const
PUBLIC d01a0 0 std::__ndk1::__function::__func<hook13<(anonymous namespace)::hook13Parent>::updateLabelValues()::{lambda()#2}::operator()() const::{lambda()#1}, std::__ndk1::allocator<hook13<(anonymous namespace)::hook13Parent>::updateLabelValues()::{lambda()#2}::operator()() const::{lambda()#1}>, void ()>::__clone(std::__ndk1::__function::__base<void ()>*) const
PUBLIC d01e0 0 std::__ndk1::__function::__func<hook13<(anonymous namespace)::hook13Parent>::updateLabelValues()::{lambda()#2}::operator()() const::{lambda()#1}, std::__ndk1::allocator<hook13<(anonymous namespace)::hook13Parent>::updateLabelValues()::{lambda()#2}::operator()() const::{lambda()#1}>, void ()>::destroy()
PUBLIC d01f4 0 std::__ndk1::__function::__func<hook13<(anonymous namespace)::hook13Parent>::updateLabelValues()::{lambda()#2}::operator()() const::{lambda()#1}, std::__ndk1::allocator<hook13<(anonymous namespace)::hook13Parent>::updateLabelValues()::{lambda()#2}::operator()() const::{lambda()#1}>, void ()>::destroy_deallocate()
PUBLIC d0228 0 std::__ndk1::__function::__func<hook13<(anonymous namespace)::hook13Parent>::updateLabelValues()::{lambda()#2}::operator()() const::{lambda()#1}, std::__ndk1::allocator<hook13<(anonymous namespace)::hook13Parent>::updateLabelValues()::{lambda()#2}::operator()() const::{lambda()#1}>, void ()>::operator()()
PUBLIC d0330 0 std::__ndk1::__function::__func<hook13<(anonymous namespace)::hook13Parent>::updateLabelValues()::{lambda()#2}::operator()() const::{lambda()#1}, std::__ndk1::allocator<hook13<(anonymous namespace)::hook13Parent>::updateLabelValues()::{lambda()#2}::operator()() const::{lambda()#1}>, void ()>::target(std::type_info const&) const
PUBLIC d034c 0 std::__ndk1::__function::__func<hook13<(anonymous namespace)::hook13Parent>::updateLabelValues()::{lambda()#2}::operator()() const::{lambda()#1}, std::__ndk1::allocator<hook13<(anonymous namespace)::hook13Parent>::updateLabelValues()::{lambda()#2}::operator()() const::{lambda()#1}>, void ()>::target_type() const
PUBLIC d0358 0 __cxx_global_var_init
PUBLIC d07c8 0 geode::modifier::ModifyBase<geode::modifier::ModifyDerive<BILevelLeaderboard, LevelLeaderboard> >::~ModifyBase()
PUBLIC d07e4 0 geode::modifier::ModifyDerive<BILevelLeaderboard, LevelLeaderboard>::apply()
PUBLIC d0b88 0 geode::modifier::ModifyBase<geode::modifier::ModifyDerive<BILevelLeaderboard, LevelLeaderboard> >::apply()
PUBLIC d0b8c 0 geode::modifier::AsStaticFunction_init<BILevelLeaderboard, bool (BILevelLeaderboard::*)(GJGameLevel*, LevelLeaderboardType, LevelLeaderboardMode)>::Impl<bool (BILevelLeaderboard::*)(GJGameLevel*, LevelLeaderboardType, LevelLeaderboardMode)>::function(BILevelLeaderboard*, GJGameLevel*, LevelLeaderboardType, LevelLeaderboardMode)
PUBLIC d0d34 0 BILevelLeaderboard::onLeaderboardDaily(cocos2d::CCObject*)
PUBLIC d0e00 0 __cxx_global_var_init
PUBLIC d1270 0 geode::modifier::ModifyBase<geode::modifier::ModifyDerive<BILevelListCell, LevelListCell> >::~ModifyBase()
PUBLIC d128c 0 geode::modifier::ModifyDerive<BILevelListCell, LevelListCell>::apply()
PUBLIC d1600 0 geode::modifier::ModifyBase<geode::modifier::ModifyDerive<BILevelListCell, LevelListCell> >::apply()
PUBLIC d1604 0 geode::modifier::AsStaticFunction_loadFromList<BILevelListCell, void (BILevelListCell::*)(GJLevelList*)>::Impl<void (BILevelListCell::*)(GJLevelList*)>::function(BILevelListCell*, GJLevelList*)
PUBLIC d18b4 0 __cxx_global_var_init
PUBLIC d1d24 0 geode::modifier::ModifyBase<geode::modifier::ModifyDerive<BILevelListLayer, LevelListLayer> >::~ModifyBase()
PUBLIC d1d40 0 geode::modifier::ModifyDerive<BILevelListLayer, LevelListLayer>::apply()
PUBLIC d249c 0 geode::modifier::ModifyBase<geode::modifier::ModifyDerive<BILevelListLayer, LevelListLayer> >::apply()
PUBLIC d24a0 0 geode::modifier::AsStaticFunction_init<BILevelListLayer, bool (BILevelListLayer::*)(GJLevelList*)>::Impl<bool (BILevelListLayer::*)(GJLevelList*)>::function(BILevelListLayer*, GJLevelList*)
PUBLIC d26e0 0 geode::Hook::create<void (*)(BILevelListLayer*, cocos2d::CCObject*)>(void*, void (*)(BILevelListLayer*, cocos2d::CCObject*), std::__ndk1::basic_string<char, std::__ndk1::char_traits<char>, std::__ndk1::allocator<char> > const&, tulip::hook::TulipConvention, tulip::hook::HookMetadata const&)
PUBLIC d2864 0 geode::modifier::AsStaticFunction_onClaimReward<BILevelListLayer, void (BILevelListLayer::*)(cocos2d::CCObject*)>::Impl<void (BILevelListLayer::*)(cocos2d::CCObject*)>::function(BILevelListLayer*, cocos2d::CCObject*)
PUBLIC d28d0 0 geode::modifier::AsStaticFunction_onFavorite<BILevelListLayer, void (BILevelListLayer::*)(cocos2d::CCObject*)>::Impl<void (BILevelListLayer::*)(cocos2d::CCObject*)>::function(BILevelListLayer*, cocos2d::CCObject*)
PUBLIC d297c 0 std::__ndk1::__function::__func<BILevelListLayer::init(GJLevelList*)::{lambda(int)#1}, std::__ndk1::allocator<BILevelListLayer::init(GJLevelList*)::{lambda(int)#1}>, void (int)>::~__func()
PUBLIC d2980 0 std::__ndk1::__function::__func<BILevelListLayer::init(GJLevelList*)::{lambda(int)#1}, std::__ndk1::allocator<BILevelListLayer::init(GJLevelList*)::{lambda(int)#1}>, void (int)>::__clone() const
PUBLIC d29b4 0 std::__ndk1::__function::__func<BILevelListLayer::init(GJLevelList*)::{lambda(int)#1}, std::__ndk1::allocator<BILevelListLayer::init(GJLevelList*)::{lambda(int)#1}>, void (int)>::__clone(std::__ndk1::__function::__base<void (int)>*) const
PUBLIC d29c8 0 std::__ndk1::__function::__func<BILevelListLayer::init(GJLevelList*)::{lambda(int)#1}, std::__ndk1::allocator<BILevelListLayer::init(GJLevelList*)::{lambda(int)#1}>, void (int)>::destroy()
PUBLIC d29cc 0 std::__ndk1::__function::__func<BILevelListLayer::init(GJLevelList*)::{lambda(int)#1}, std::__ndk1::allocator<BILevelListLayer::init(GJLevelList*)::{lambda(int)#1}>, void (int)>::destroy_deallocate()
PUBLIC d29d0 0 std::__ndk1::__function::__func<BILevelListLayer::init(GJLevelList*)::{lambda(int)#1}, std::__ndk1::allocator<BILevelListLayer::init(GJLevelList*)::{lambda(int)#1}>, void (int)>::operator()(int&&)
PUBLIC d2a68 0 std::__ndk1::__function::__func<BILevelListLayer::init(GJLevelList*)::{lambda(int)#1}, std::__ndk1::allocator<BILevelListLayer::init(GJLevelList*)::{lambda(int)#1}>, void (int)>::target(std::type_info const&) const
PUBLIC d2a84 0 std::__ndk1::__function::__func<BILevelListLayer::init(GJLevelList*)::{lambda(int)#1}, std::__ndk1::allocator<BILevelListLayer::init(GJLevelList*)::{lambda(int)#1}>, void (int)>::target_type() const
PUBLIC d2a90 0 geode::modifier::FieldIntermediate<BILevelListLayer, LevelListLayer>::self()
PUBLIC d2c1c 0 geode::modifier::FieldIntermediate<BILevelListLayer, LevelListLayer>::fieldDestructor(void*)
PUBLIC d2c3c 0 __cxx_global_var_init
PUBLIC d3200 0 geode::modifier::ModifyBase<geode::modifier::ModifyDerive<hook8<(anonymous namespace)::hook8Parent>, LevelPage> >::~ModifyBase()
PUBLIC d321c 0 geode::modifier::ModifyDerive<hook8<(anonymous namespace)::hook8Parent>, LevelPage>::apply()
PUBLIC d3564 0 geode::modifier::ModifyBase<geode::modifier::ModifyDerive<hook8<(anonymous namespace)::hook8Parent>, LevelPage> >::apply()
PUBLIC d3568 0 geode::modifier::AsStaticFunction_onInfo<hook8<(anonymous namespace)::hook8Parent>, void (hook8<(anonymous namespace)::hook8Parent>::*)(cocos2d::CCObject*)>::Impl<void (hook8<(anonymous namespace)::hook8Parent>::*)(cocos2d::CCObject*)>::function(hook8<(anonymous namespace)::hook8Parent>*, cocos2d::CCObject*)
PUBLIC d3570 0 __cxx_global_var_init
PUBLIC d39e0 0 geode::modifier::ModifyBase<geode::modifier::ModifyDerive<BILevelSearchLayer, LevelSearchLayer> >::~ModifyBase()
PUBLIC d39fc 0 geode::modifier::ModifyDerive<BILevelSearchLayer, LevelSearchLayer>::apply()
PUBLIC d3dc4 0 geode::modifier::ModifyBase<geode::modifier::ModifyDerive<BILevelSearchLayer, LevelSearchLayer> >::apply()
PUBLIC d3dc8 0 geode::modifier::AsStaticFunction_getSearchObject<BILevelSearchLayer, GJSearchObject* (BILevelSearchLayer::*)(SearchType, gd::string)>::Impl<GJSearchObject* (BILevelSearchLayer::*)(SearchType, gd::string)>::function(BILevelSearchLayer*, SearchType, gd::string)
PUBLIC d4418 0 __cxx_global_var_init
PUBLIC d4888 0 geode::modifier::ModifyBase<geode::modifier::ModifyDerive<BIMoreSearchLayer, MoreSearchLayer> >::~ModifyBase()
PUBLIC d48a4 0 geode::modifier::ModifyDerive<BIMoreSearchLayer, MoreSearchLayer>::apply()
PUBLIC d4fa8 0 geode::modifier::ModifyBase<geode::modifier::ModifyDerive<BIMoreSearchLayer, MoreSearchLayer> >::apply()
PUBLIC d4fac 0 geode::Hook::create<void (*)(BIMoreSearchLayer*, cocos2d::CCObject*)>(void*, void (*)(BIMoreSearchLayer*, cocos2d::CCObject*), std::__ndk1::basic_string<char, std::__ndk1::char_traits<char>, std::__ndk1::allocator<char> > const&, tulip::hook::TulipConvention, tulip::hook::HookMetadata const&)
PUBLIC d5130 0 geode::modifier::AsStaticFunction_onSongFilter<BIMoreSearchLayer, void (BIMoreSearchLayer::*)(cocos2d::CCObject*)>::Impl<void (BIMoreSearchLayer::*)(cocos2d::CCObject*)>::function(BIMoreSearchLayer*, cocos2d::CCObject*)
PUBLIC d51b4 0 geode::modifier::AsStaticFunction_onSongMode<BIMoreSearchLayer, void (BIMoreSearchLayer::*)(cocos2d::CCObject*)>::Impl<void (BIMoreSearchLayer::*)(cocos2d::CCObject*)>::function(BIMoreSearchLayer*, cocos2d::CCObject*)
PUBLIC d5238 0 geode::modifier::AsStaticFunction_init<BIMoreSearchLayer, bool (BIMoreSearchLayer::*)()>::Impl<bool (BIMoreSearchLayer::*)()>::function(BIMoreSearchLayer*)
PUBLIC d54dc 0 geode::modifier::FieldIntermediate<BIMoreSearchLayer, MoreSearchLayer>::self()
PUBLIC d5668 0 geode::modifier::FieldIntermediate<BIMoreSearchLayer, MoreSearchLayer>::fieldDestructor(void*)
PUBLIC d566c 0 geode::addresser::Addresser::addressOfVirtual<bool, MoreSearchLayer, >(bool (MoreSearchLayer::*)())
PUBLIC d5714 0 MoreSearchLayer::MoreSearchLayer(geode::ZeroConstructorType)
PUBLIC d57a0 0 BIMoreSearchLayer::onMoreSearchNext(cocos2d::CCObject*)
PUBLIC d57f0 0 BIMoreSearchLayer::onSaved(cocos2d::CCObject*)
PUBLIC d5880 0 DropDownDelegateHelper::dropDownLayerWillClose(GJDropDownLayer*)
PUBLIC d5994 0 __cxx_global_var_init
PUBLIC d5e04 0 geode::modifier::ModifyBase<geode::modifier::ModifyDerive<BIPlayLayer, PlayLayer> >::~ModifyBase()
PUBLIC d5e20 0 geode::modifier::ModifyDerive<BIPlayLayer, PlayLayer>::apply()
PUBLIC d6758 0 geode::modifier::ModifyBase<geode::modifier::ModifyDerive<BIPlayLayer, PlayLayer> >::apply()
PUBLIC d675c 0 geode::modifier::AsStaticFunction_init<BIPlayLayer, bool (BIPlayLayer::*)(GJGameLevel*, bool, bool)>::Impl<bool (BIPlayLayer::*)(GJGameLevel*, bool, bool)>::function(BIPlayLayer*, GJGameLevel*, bool, bool)
PUBLIC d684c 0 geode::Hook::create<void (*)(BIPlayLayer*)>(void*, void (*)(BIPlayLayer*), std::__ndk1::basic_string<char, std::__ndk1::char_traits<char>, std::__ndk1::allocator<char> > const&, tulip::hook::TulipConvention, tulip::hook::HookMetadata const&)
PUBLIC d6980 0 geode::modifier::AsStaticFunction_levelComplete<BIPlayLayer, void (BIPlayLayer::*)()>::Impl<void (BIPlayLayer::*)()>::function(BIPlayLayer*)
PUBLIC d6a00 0 geode::modifier::AsStaticFunction_onQuit<BIPlayLayer, void (BIPlayLayer::*)()>::Impl<void (BIPlayLayer::*)()>::function(BIPlayLayer*)
PUBLIC d6b74 0 geode::modifier::AsStaticFunction_resetLevel<BIPlayLayer, void (BIPlayLayer::*)()>::Impl<void (BIPlayLayer::*)()>::function(BIPlayLayer*)
PUBLIC d6bf4 0 __cxx_global_var_init
PUBLIC d7064 0 geode::modifier::ModifyBase<geode::modifier::ModifyDerive<BIProfilePage, ProfilePage> >::~ModifyBase()
PUBLIC d7080 0 geode::modifier::ModifyDerive<BIProfilePage, ProfilePage>::apply()
PUBLIC d798c 0 geode::modifier::ModifyBase<geode::modifier::ModifyDerive<BIProfilePage, ProfilePage> >::apply()
PUBLIC d7990 0 geode::modifier::AsStaticFunction_getUserInfoFailed<BIProfilePage, void (BIProfilePage::*)(int)>::Impl<void (BIProfilePage::*)(int)>::function(BIProfilePage*, int)
PUBLIC d7a70 0 geode::modifier::AsStaticFunction_init<BIProfilePage, bool (BIProfilePage::*)(int, bool)>::Impl<bool (BIProfilePage::*)(int, bool)>::function(BIProfilePage*, int, bool)
PUBLIC d7b28 0 geode::modifier::AsStaticFunction_loadPageFromUserInfo<BIProfilePage, void (BIProfilePage::*)(GJUserScore*)>::Impl<void (BIProfilePage::*)(GJUserScore*)>::function(BIProfilePage*, GJUserScore*)
PUBLIC d8208 0 geode::addresser::Addresser::addressOfVirtual<void, ProfilePage, int>(void (ProfilePage::*)(int))
PUBLIC d82d0 0 ProfilePage::ProfilePage(geode::ZeroConstructorType)
PUBLIC d83a8 0 geode::Ref<ProfilePage>::~Ref()
PUBLIC d83c8 0 BIProfilePage::onProfilePageInfo(cocos2d::CCObject*)
PUBLIC d8dd4 0 BIProfilePage::onProfilePageCreator(cocos2d::CCObject*)
PUBLIC d8df8 0 BIProfilePage::onProfilePageLeaderboard(cocos2d::CCObject*)
PUBLIC d8e30 0 BIProfilePage::onProfilePageCopyUserID(cocos2d::CCObject*)
PUBLIC d8ee4 0 BIProfilePage::onProfilePageCopyAccountID(cocos2d::CCObject*)
PUBLIC m d8f98 0 std::__ndk1::basic_ostringstream<char, std::__ndk1::char_traits<char>, std::__ndk1::allocator<char> >::~basic_ostringstream()
PUBLIC d9014 0 __cxx_global_var_init
PUBLIC d9484 0 geode::modifier::ModifyBase<geode::modifier::ModifyDerive<BIRewardsPage, RewardsPage> >::~ModifyBase()
PUBLIC d94a0 0 geode::modifier::ModifyDerive<BIRewardsPage, RewardsPage>::apply()
PUBLIC d9798 0 geode::modifier::ModifyBase<geode::modifier::ModifyDerive<BIRewardsPage, RewardsPage> >::apply()
PUBLIC d979c 0 geode::modifier::AsStaticFunction_init<BIRewardsPage, bool (BIRewardsPage::*)()>::Impl<bool (BIRewardsPage::*)()>::function(BIRewardsPage*)
PUBLIC d98e8 0 geode::addresser::Addresser::addressOfVirtual<bool, RewardsPage, >(bool (RewardsPage::*)())
PUBLIC d9990 0 RewardsPage::RewardsPage(geode::ZeroConstructorType)
PUBLIC d9a24 0 BIRewardsPage::onRewardsPageHistory(cocos2d::CCObject*)
PUBLIC d9a40 0 __cxx_global_var_init
PUBLIC d9e6c 0 geode::modifier::ModifyBase<geode::modifier::ModifyDerive<hook8<(anonymous namespace)::hook8Parent>, GJGameLevel> >::~ModifyBase()
PUBLIC d9e88 0 geode::modifier::ModifyDerive<hook8<(anonymous namespace)::hook8Parent>, GJGameLevel>::apply()
PUBLIC da1b4 0 geode::modifier::ModifyBase<geode::modifier::ModifyDerive<hook8<(anonymous namespace)::hook8Parent>, GJGameLevel> >::apply()
PUBLIC da1b8 0 geode::modifier::AsStaticFunction_lengthKeyToString<hook8<(anonymous namespace)::hook8Parent>, gd::string (*)(int)>::Impl<gd::string (*)(int)>::function(int)
PUBLIC da3a4 0 createSettingTab(char const*, eclipse::MenuTab&)
PUBLIC dae28 0 _ZN7eclipse6config3setITkNS0_13SupportedTypeEbEEvNSt6__ndk112basic_stringIcNS2_11char_traitsIcEENS2_9allocatorIcEEEET_
PUBLIC daf18 0 std::__ndk1::shared_ptr<geode::SettingV3>::~shared_ptr[abi:ne190000]()
PUBLIC daf68 0 geodeExecFunction22<(anonymous namespace)::ExecFuncUnique22>(geode::ModStateEvent*)
PUBLIC db040 0 eclipse::events::AddComponentEvent<std::__ndk1::function<void (bool)> >::~AddComponentEvent()
PUBLIC db0ec 0 eclipse::events::AddComponentEvent<std::__ndk1::function<void (bool)> >::~AddComponentEvent()
PUBLIC db1a8 0 eclipse::events::SetComponentDescriptionEvent::~SetComponentDescriptionEvent()
PUBLIC db1e8 0 eclipse::events::SetComponentDescriptionEvent::~SetComponentDescriptionEvent()
PUBLIC db22c 0 eclipse::events::SetConfigValueEvent<bool>::~SetConfigValueEvent()
PUBLIC db26c 0 eclipse::events::SetConfigValueEvent<bool>::~SetConfigValueEvent()
PUBLIC db2b0 0 std::__ndk1::__function::__base<void (bool)>::~__base()
PUBLIC db2b4 0 std::__ndk1::__function::__func<createSettingTab(char const*, eclipse::MenuTab&)::$_0, std::__ndk1::allocator<createSettingTab(char const*, eclipse::MenuTab&)::$_0>, void (bool)>::~__func()
PUBLIC db2b8 0 std::__ndk1::__function::__func<createSettingTab(char const*, eclipse::MenuTab&)::$_0, std::__ndk1::allocator<createSettingTab(char const*, eclipse::MenuTab&)::$_0>, void (bool)>::__clone() const
PUBLIC db2ec 0 std::__ndk1::__function::__func<createSettingTab(char const*, eclipse::MenuTab&)::$_0, std::__ndk1::allocator<createSettingTab(char const*, eclipse::MenuTab&)::$_0>, void (bool)>::__clone(std::__ndk1::__function::__base<void (bool)>*) const
PUBLIC db300 0 std::__ndk1::__function::__func<createSettingTab(char const*, eclipse::MenuTab&)::$_0, std::__ndk1::allocator<createSettingTab(char const*, eclipse::MenuTab&)::$_0>, void (bool)>::destroy()
PUBLIC db304 0 std::__ndk1::__function::__func<createSettingTab(char const*, eclipse::MenuTab&)::$_0, std::__ndk1::allocator<createSettingTab(char const*, eclipse::MenuTab&)::$_0>, void (bool)>::destroy_deallocate()
PUBLIC db308 0 std::__ndk1::__function::__func<createSettingTab(char const*, eclipse::MenuTab&)::$_0, std::__ndk1::allocator<createSettingTab(char const*, eclipse::MenuTab&)::$_0>, void (bool)>::operator()(bool&&)
PUBLIC db4ac 0 std::__ndk1::__function::__func<createSettingTab(char const*, eclipse::MenuTab&)::$_0, std::__ndk1::allocator<createSettingTab(char const*, eclipse::MenuTab&)::$_0>, void (bool)>::target(std::type_info const&) const
PUBLIC db4c8 0 std::__ndk1::__function::__func<createSettingTab(char const*, eclipse::MenuTab&)::$_0, std::__ndk1::allocator<createSettingTab(char const*, eclipse::MenuTab&)::$_0>, void (bool)>::target_type() const
PUBLIC db4d4 0 geode::Mod::setSettingValue<bool>(std::__ndk1::basic_string_view<char, std::__ndk1::char_traits<char> >, bool const&)
PUBLIC db6a0 0 std::__ndk1::shared_ptr<geode::BoolSettingV3>::~shared_ptr[abi:ne190000]()
PUBLIC db6f0 0 geode::EventListener<geode::SettingChangedFilterV3>::EventListener(std::__ndk1::function<void (std::__ndk1::shared_ptr<geode::SettingV3>)>, geode::SettingChangedFilterV3)
PUBLIC db7e4 0 geode::SettingChangedFilterV3::~SettingChangedFilterV3()
PUBLIC db834 0 std::__ndk1::__function::__base<void (std::__ndk1::shared_ptr<geode::SettingV3>)>::~__base()
PUBLIC db838 0 std::__ndk1::__function::__func<geode::listenForSettingChangesV3<bool, createSettingTab(char const*, eclipse::MenuTab&)::$_1>(std::__ndk1::basic_string_view<char, std::__ndk1::char_traits<char> >, createSettingTab(char const*, eclipse::MenuTab&)::$_1&&, geode::Mod*)::{lambda(std::__ndk1::shared_ptr<geode::SettingV3>)#1}, std::__ndk1::allocator<geode::listenForSettingChangesV3<bool, createSettingTab(char const*, eclipse::MenuTab&)::$_1>(std::__ndk1::basic_string_view<char, std::__ndk1::char_traits<char> >, createSettingTab(char const*, eclipse::MenuTab&)::$_1&&, geode::Mod*)::{lambda(std::__ndk1::shared_ptr<geode::SettingV3>)#1}>, void (std::__ndk1::shared_ptr<geode::SettingV3>)>::~__func()
PUBLIC db83c 0 std::__ndk1::__function::__func<geode::listenForSettingChangesV3<bool, createSettingTab(char const*, eclipse::MenuTab&)::$_1>(std::__ndk1::basic_string_view<char, std::__ndk1::char_traits<char> >, createSettingTab(char const*, eclipse::MenuTab&)::$_1&&, geode::Mod*)::{lambda(std::__ndk1::shared_ptr<geode::SettingV3>)#1}, std::__ndk1::allocator<geode::listenForSettingChangesV3<bool, createSettingTab(char const*, eclipse::MenuTab&)::$_1>(std::__ndk1::basic_string_view<char, std::__ndk1::char_traits<char> >, createSettingTab(char const*, eclipse::MenuTab&)::$_1&&, geode::Mod*)::{lambda(std::__ndk1::shared_ptr<geode::SettingV3>)#1}>, void (std::__ndk1::shared_ptr<geode::SettingV3>)>::__clone() const
PUBLIC db870 0 std::__ndk1::__function::__func<geode::listenForSettingChangesV3<bool, createSettingTab(char const*, eclipse::MenuTab&)::$_1>(std::__ndk1::basic_string_view<char, std::__ndk1::char_traits<char> >, createSettingTab(char const*, eclipse::MenuTab&)::$_1&&, geode::Mod*)::{lambda(std::__ndk1::shared_ptr<geode::SettingV3>)#1}, std::__ndk1::allocator<geode::listenForSettingChangesV3<bool, createSettingTab(char const*, eclipse::MenuTab&)::$_1>(std::__ndk1::basic_string_view<char, std::__ndk1::char_traits<char> >, createSettingTab(char const*, eclipse::MenuTab&)::$_1&&, geode::Mod*)::{lambda(std::__ndk1::shared_ptr<geode::SettingV3>)#1}>, void (std::__ndk1::shared_ptr<geode::SettingV3>)>::__clone(std::__ndk1::__function::__base<void (std::__ndk1::shared_ptr<geode::SettingV3>)>*) const
PUBLIC db884 0 std::__ndk1::__function::__func<geode::listenForSettingChangesV3<bool, createSettingTab(char const*, eclipse::MenuTab&)::$_1>(std::__ndk1::basic_string_view<char, std::__ndk1::char_traits<char> >, createSettingTab(char const*, eclipse::MenuTab&)::$_1&&, geode::Mod*)::{lambda(std::__ndk1::shared_ptr<geode::SettingV3>)#1}, std::__ndk1::allocator<geode::listenForSettingChangesV3<bool, createSettingTab(char const*, eclipse::MenuTab&)::$_1>(std::__ndk1::basic_string_view<char, std::__ndk1::char_traits<char> >, createSettingTab(char const*, eclipse::MenuTab&)::$_1&&, geode::Mod*)::{lambda(std::__ndk1::shared_ptr<geode::SettingV3>)#1}>, void (std::__ndk1::shared_ptr<geode::SettingV3>)>::destroy()
PUBLIC db888 0 std::__ndk1::__function::__func<geode::listenForSettingChangesV3<bool, createSettingTab(char const*, eclipse::MenuTab&)::$_1>(std::__ndk1::basic_string_view<char, std::__ndk1::char_traits<char> >, createSettingTab(char const*, eclipse::MenuTab&)::$_1&&, geode::Mod*)::{lambda(std::__ndk1::shared_ptr<geode::SettingV3>)#1}, std::__ndk1::allocator<geode::listenForSettingChangesV3<bool, createSettingTab(char const*, eclipse::MenuTab&)::$_1>(std::__ndk1::basic_string_view<char, std::__ndk1::char_traits<char> >, createSettingTab(char const*, eclipse::MenuTab&)::$_1&&, geode::Mod*)::{lambda(std::__ndk1::shared_ptr<geode::SettingV3>)#1}>, void (std::__ndk1::shared_ptr<geode::SettingV3>)>::destroy_deallocate()
PUBLIC db88c 0 std::__ndk1::__function::__func<geode::listenForSettingChangesV3<bool, createSettingTab(char const*, eclipse::MenuTab&)::$_1>(std::__ndk1::basic_string_view<char, std::__ndk1::char_traits<char> >, createSettingTab(char const*, eclipse::MenuTab&)::$_1&&, geode::Mod*)::{lambda(std::__ndk1::shared_ptr<geode::SettingV3>)#1}, std::__ndk1::allocator<geode::listenForSettingChangesV3<bool, createSettingTab(char const*, eclipse::MenuTab&)::$_1>(std::__ndk1::basic_string_view<char, std::__ndk1::char_traits<char> >, createSettingTab(char const*, eclipse::MenuTab&)::$_1&&, geode::Mod*)::{lambda(std::__ndk1::shared_ptr<geode::SettingV3>)#1}>, void (std::__ndk1::shared_ptr<geode::SettingV3>)>::operator()(std::__ndk1::shared_ptr<geode::SettingV3>&&)
PUBLIC dbb50 0 std::__ndk1::__function::__func<geode::listenForSettingChangesV3<bool, createSettingTab(char const*, eclipse::MenuTab&)::$_1>(std::__ndk1::basic_string_view<char, std::__ndk1::char_traits<char> >, createSettingTab(char const*, eclipse::MenuTab&)::$_1&&, geode::Mod*)::{lambda(std::__ndk1::shared_ptr<geode::SettingV3>)#1}, std::__ndk1::allocator<geode::listenForSettingChangesV3<bool, createSettingTab(char const*, eclipse::MenuTab&)::$_1>(std::__ndk1::basic_string_view<char, std::__ndk1::char_traits<char> >, createSettingTab(char const*, eclipse::MenuTab&)::$_1&&, geode::Mod*)::{lambda(std::__ndk1::shared_ptr<geode::SettingV3>)#1}>, void (std::__ndk1::shared_ptr<geode::SettingV3>)>::target(std::type_info const&) const
PUBLIC dbb6c 0 std::__ndk1::__function::__func<geode::listenForSettingChangesV3<bool, createSettingTab(char const*, eclipse::MenuTab&)::$_1>(std::__ndk1::basic_string_view<char, std::__ndk1::char_traits<char> >, createSettingTab(char const*, eclipse::MenuTab&)::$_1&&, geode::Mod*)::{lambda(std::__ndk1::shared_ptr<geode::SettingV3>)#1}, std::__ndk1::allocator<geode::listenForSettingChangesV3<bool, createSettingTab(char const*, eclipse::MenuTab&)::$_1>(std::__ndk1::basic_string_view<char, std::__ndk1::char_traits<char> >, createSettingTab(char const*, eclipse::MenuTab&)::$_1&&, geode::Mod*)::{lambda(std::__ndk1::shared_ptr<geode::SettingV3>)#1}>, void (std::__ndk1::shared_ptr<geode::SettingV3>)>::target_type() const
PUBLIC dbb78 0 geode::EventListener<geode::SettingChangedFilterV3>::getPool() const
PUBLIC dbb7c 0 geode::EventListener<geode::SettingChangedFilterV3>::handle(geode::Event*)
PUBLIC dbcf0 0 geode::EventListener<geode::SettingChangedFilterV3>::~EventListener()
PUBLIC dbd8c 0 geode::EventListener<geode::SettingChangedFilterV3>::~EventListener()
PUBLIC dbe30 0 std::__ndk1::__function::__func<geodeExecFunction22<(anonymous namespace)::ExecFuncUnique22>(geode::ModStateEvent*)::{lambda()#1}, std::__ndk1::allocator<geodeExecFunction22<(anonymous namespace)::ExecFuncUnique22>(geode::ModStateEvent*)::{lambda()#1}>, void ()>::~__func()
PUBLIC dbe34 0 std::__ndk1::__function::__func<geodeExecFunction22<(anonymous namespace)::ExecFuncUnique22>(geode::ModStateEvent*)::{lambda()#1}, std::__ndk1::allocator<geodeExecFunction22<(anonymous namespace)::ExecFuncUnique22>(geode::ModStateEvent*)::{lambda()#1}>, void ()>::__clone() const
PUBLIC dbe58 0 std::__ndk1::__function::__func<geodeExecFunction22<(anonymous namespace)::ExecFuncUnique22>(geode::ModStateEvent*)::{lambda()#1}, std::__ndk1::allocator<geodeExecFunction22<(anonymous namespace)::ExecFuncUnique22>(geode::ModStateEvent*)::{lambda()#1}>, void ()>::__clone(std::__ndk1::__function::__base<void ()>*) const
PUBLIC dbe68 0 std::__ndk1::__function::__func<geodeExecFunction22<(anonymous namespace)::ExecFuncUnique22>(geode::ModStateEvent*)::{lambda()#1}, std::__ndk1::allocator<geodeExecFunction22<(anonymous namespace)::ExecFuncUnique22>(geode::ModStateEvent*)::{lambda()#1}>, void ()>::destroy()
PUBLIC dbe6c 0 std::__ndk1::__function::__func<geodeExecFunction22<(anonymous namespace)::ExecFuncUnique22>(geode::ModStateEvent*)::{lambda()#1}, std::__ndk1::allocator<geodeExecFunction22<(anonymous namespace)::ExecFuncUnique22>(geode::ModStateEvent*)::{lambda()#1}>, void ()>::destroy_deallocate()
PUBLIC dbe70 0 std::__ndk1::__function::__func<geodeExecFunction22<(anonymous namespace)::ExecFuncUnique22>(geode::ModStateEvent*)::{lambda()#1}, std::__ndk1::allocator<geodeExecFunction22<(anonymous namespace)::ExecFuncUnique22>(geode::ModStateEvent*)::{lambda()#1}>, void ()>::operator()()
PUBLIC dbf9c 0 std::__ndk1::__function::__func<geodeExecFunction22<(anonymous namespace)::ExecFuncUnique22>(geode::ModStateEvent*)::{lambda()#1}, std::__ndk1::allocator<geodeExecFunction22<(anonymous namespace)::ExecFuncUnique22>(geode::ModStateEvent*)::{lambda()#1}>, void ()>::target(std::type_info const&) const
PUBLIC dbfb8 0 std::__ndk1::__function::__func<geodeExecFunction22<(anonymous namespace)::ExecFuncUnique22>(geode::ModStateEvent*)::{lambda()#1}, std::__ndk1::allocator<geodeExecFunction22<(anonymous namespace)::ExecFuncUnique22>(geode::ModStateEvent*)::{lambda()#1}>, void ()>::target_type() const
PUBLIC dbfc4 0 eclipse::events::CreateMenuTabEvent::~CreateMenuTabEvent()
PUBLIC dbff8 0 eclipse::events::CreateMenuTabEvent::~CreateMenuTabEvent()
PUBLIC dc030 0 geode::EventListener<geode::ModStateFilter>::getPool() const
PUBLIC dc034 0 geode::EventListener<geode::ModStateFilter>::handle(geode::Event*)
PUBLIC dc1a8 0 geode::EventListener<geode::ModStateFilter>::~EventListener()
PUBLIC dc204 0 geode::EventListener<geode::ModStateFilter>::~EventListener()
PUBLIC dc268 0 std::__ndk1::__function::__base<void (geode::ModStateEvent*)>::~__base()
PUBLIC dc26c 0 std::__ndk1::__function::__func<void (*)(geode::ModStateEvent*), std::__ndk1::allocator<void (*)(geode::ModStateEvent*)>, void (geode::ModStateEvent*)>::~__func()
PUBLIC dc270 0 std::__ndk1::__function::__func<void (*)(geode::ModStateEvent*), std::__ndk1::allocator<void (*)(geode::ModStateEvent*)>, void (geode::ModStateEvent*)>::__clone() const
PUBLIC dc2a4 0 std::__ndk1::__function::__func<void (*)(geode::ModStateEvent*), std::__ndk1::allocator<void (*)(geode::ModStateEvent*)>, void (geode::ModStateEvent*)>::__clone(std::__ndk1::__function::__base<void (geode::ModStateEvent*)>*) const
PUBLIC dc2b8 0 std::__ndk1::__function::__func<void (*)(geode::ModStateEvent*), std::__ndk1::allocator<void (*)(geode::ModStateEvent*)>, void (geode::ModStateEvent*)>::destroy()
PUBLIC dc2bc 0 std::__ndk1::__function::__func<void (*)(geode::ModStateEvent*), std::__ndk1::allocator<void (*)(geode::ModStateEvent*)>, void (geode::ModStateEvent*)>::destroy_deallocate()
PUBLIC dc2c0 0 std::__ndk1::__function::__func<void (*)(geode::ModStateEvent*), std::__ndk1::allocator<void (*)(geode::ModStateEvent*)>, void (geode::ModStateEvent*)>::operator()(geode::ModStateEvent*&&)
PUBLIC dc2d0 0 std::__ndk1::__function::__func<void (*)(geode::ModStateEvent*), std::__ndk1::allocator<void (*)(geode::ModStateEvent*)>, void (geode::ModStateEvent*)>::target(std::type_info const&) const
PUBLIC dc2ec 0 std::__ndk1::__function::__func<void (*)(geode::ModStateEvent*), std::__ndk1::allocator<void (*)(geode::ModStateEvent*)>, void (geode::ModStateEvent*)>::target_type() const
PUBLIC dc2f8 0 _GLOBAL__sub_I_eclipse.cpp
PUBLIC dc410 0 createSettingTabQOL(char const*, QOLModExt::WindowExt*)
PUBLIC dce00 0 geodeExecFunction25<(anonymous namespace)::ExecFuncUnique25>(geode::ModStateEvent*)
PUBLIC dced8 0 std::__ndk1::basic_string<char, std::__ndk1::char_traits<char>, std::__ndk1::allocator<char> >::__assign_no_alias<true>(char const*, unsigned long)
PUBLIC dcf84 0 std::__ndk1::basic_string<char, std::__ndk1::char_traits<char>, std::__ndk1::allocator<char> >::__assign_no_alias<false>(char const*, unsigned long)
PUBLIC dd0c0 0 std::__ndk1::vector<QOLModExt::ModuleExt*, std::__ndk1::allocator<QOLModExt::ModuleExt*> >::__throw_length_error[abi:ne190000]() const
PUBLIC dd0d4 0 fmt::v11::detail::value<fmt::v11::context>::format_custom_arg<std::__ndk1::optional<std::__ndk1::basic_string<char, std::__ndk1::char_traits<char>, std::__ndk1::allocator<char> > >, fmt::v11::formatter<std::__ndk1::optional<std::__ndk1::basic_string<char, std::__ndk1::char_traits<char>, std::__ndk1::allocator<char> > >, char, void> >(void*, fmt::v11::basic_format_parse_context<char>&, fmt::v11::context&)
PUBLIC dd2c4 0 fmt::v11::detail::copy_noinline<char, char const*, fmt::v11::basic_appender<char> >(char const*, char const*, fmt::v11::basic_appender<char>)
PUBLIC dd414 0 std::__ndk1::__function::__func<createSettingTabQOL(char const*, QOLModExt::WindowExt*)::$_0, std::__ndk1::allocator<createSettingTabQOL(char const*, QOLModExt::WindowExt*)::$_0>, void (bool)>::~__func()
PUBLIC dd418 0 std::__ndk1::__function::__func<createSettingTabQOL(char const*, QOLModExt::WindowExt*)::$_0, std::__ndk1::allocator<createSettingTabQOL(char const*, QOLModExt::WindowExt*)::$_0>, void (bool)>::__clone() const
PUBLIC dd44c 0 std::__ndk1::__function::__func<createSettingTabQOL(char const*, QOLModExt::WindowExt*)::$_0, std::__ndk1::allocator<createSettingTabQOL(char const*, QOLModExt::WindowExt*)::$_0>, void (bool)>::__clone(std::__ndk1::__function::__base<void (bool)>*) const
PUBLIC dd460 0 std::__ndk1::__function::__func<createSettingTabQOL(char const*, QOLModExt::WindowExt*)::$_0, std::__ndk1::allocator<createSettingTabQOL(char const*, QOLModExt::WindowExt*)::$_0>, void (bool)>::destroy()
PUBLIC dd464 0 std::__ndk1::__function::__func<createSettingTabQOL(char const*, QOLModExt::WindowExt*)::$_0, std::__ndk1::allocator<createSettingTabQOL(char const*, QOLModExt::WindowExt*)::$_0>, void (bool)>::destroy_deallocate()
PUBLIC dd468 0 std::__ndk1::__function::__func<createSettingTabQOL(char const*, QOLModExt::WindowExt*)::$_0, std::__ndk1::allocator<createSettingTabQOL(char const*, QOLModExt::WindowExt*)::$_0>, void (bool)>::operator()(bool&&)
PUBLIC dd4f8 0 std::__ndk1::__function::__func<createSettingTabQOL(char const*, QOLModExt::WindowExt*)::$_0, std::__ndk1::allocator<createSettingTabQOL(char const*, QOLModExt::WindowExt*)::$_0>, void (bool)>::target(std::type_info const&) const
PUBLIC dd514 0 std::__ndk1::__function::__func<createSettingTabQOL(char const*, QOLModExt::WindowExt*)::$_0, std::__ndk1::allocator<createSettingTabQOL(char const*, QOLModExt::WindowExt*)::$_0>, void (bool)>::target_type() const
PUBLIC dd520 0 std::__ndk1::__function::__func<geode::listenForSettingChangesV3<bool, createSettingTabQOL(char const*, QOLModExt::WindowExt*)::$_1>(std::__ndk1::basic_string_view<char, std::__ndk1::char_traits<char> >, createSettingTabQOL(char const*, QOLModExt::WindowExt*)::$_1&&, geode::Mod*)::{lambda(std::__ndk1::shared_ptr<geode::SettingV3>)#1}, std::__ndk1::allocator<geode::listenForSettingChangesV3<bool, createSettingTabQOL(char const*, QOLModExt::WindowExt*)::$_1>(std::__ndk1::basic_string_view<char, std::__ndk1::char_traits<char> >, createSettingTabQOL(char const*, QOLModExt::WindowExt*)::$_1&&, geode::Mod*)::{lambda(std::__ndk1::shared_ptr<geode::SettingV3>)#1}>, void (std::__ndk1::shared_ptr<geode::SettingV3>)>::~__func()
PUBLIC dd540 0 std::__ndk1::__function::__func<geode::listenForSettingChangesV3<bool, createSettingTabQOL(char const*, QOLModExt::WindowExt*)::$_1>(std::__ndk1::basic_string_view<char, std::__ndk1::char_traits<char> >, createSettingTabQOL(char const*, QOLModExt::WindowExt*)::$_1&&, geode::Mod*)::{lambda(std::__ndk1::shared_ptr<geode::SettingV3>)#1}, std::__ndk1::allocator<geode::listenForSettingChangesV3<bool, createSettingTabQOL(char const*, QOLModExt::WindowExt*)::$_1>(std::__ndk1::basic_string_view<char, std::__ndk1::char_traits<char> >, createSettingTabQOL(char const*, QOLModExt::WindowExt*)::$_1&&, geode::Mod*)::{lambda(std::__ndk1::shared_ptr<geode::SettingV3>)#1}>, void (std::__ndk1::shared_ptr<geode::SettingV3>)>::~__func()
PUBLIC dd580 0 std::__ndk1::__function::__func<geode::listenForSettingChangesV3<bool, createSettingTabQOL(char const*, QOLModExt::WindowExt*)::$_1>(std::__ndk1::basic_string_view<char, std::__ndk1::char_traits<char> >, createSettingTabQOL(char const*, QOLModExt::WindowExt*)::$_1&&, geode::Mod*)::{lambda(std::__ndk1::shared_ptr<geode::SettingV3>)#1}, std::__ndk1::allocator<geode::listenForSettingChangesV3<bool, createSettingTabQOL(char const*, QOLModExt::WindowExt*)::$_1>(std::__ndk1::basic_string_view<char, std::__ndk1::char_traits<char> >, createSettingTabQOL(char const*, QOLModExt::WindowExt*)::$_1&&, geode::Mod*)::{lambda(std::__ndk1::shared_ptr<geode::SettingV3>)#1}>, void (std::__ndk1::shared_ptr<geode::SettingV3>)>::__clone() const
PUBLIC dd600 0 std::__ndk1::__function::__func<geode::listenForSettingChangesV3<bool, createSettingTabQOL(char const*, QOLModExt::WindowExt*)::$_1>(std::__ndk1::basic_string_view<char, std::__ndk1::char_traits<char> >, createSettingTabQOL(char const*, QOLModExt::WindowExt*)::$_1&&, geode::Mod*)::{lambda(std::__ndk1::shared_ptr<geode::SettingV3>)#1}, std::__ndk1::allocator<geode::listenForSettingChangesV3<bool, createSettingTabQOL(char const*, QOLModExt::WindowExt*)::$_1>(std::__ndk1::basic_string_view<char, std::__ndk1::char_traits<char> >, createSettingTabQOL(char const*, QOLModExt::WindowExt*)::$_1&&, geode::Mod*)::{lambda(std::__ndk1::shared_ptr<geode::SettingV3>)#1}>, void (std::__ndk1::shared_ptr<geode::SettingV3>)>::__clone(std::__ndk1::__function::__base<void (std::__ndk1::shared_ptr<geode::SettingV3>)>*) const
PUBLIC dd63c 0 std::__ndk1::__function::__func<geode::listenForSettingChangesV3<bool, createSettingTabQOL(char const*, QOLModExt::WindowExt*)::$_1>(std::__ndk1::basic_string_view<char, std::__ndk1::char_traits<char> >, createSettingTabQOL(char const*, QOLModExt::WindowExt*)::$_1&&, geode::Mod*)::{lambda(std::__ndk1::shared_ptr<geode::SettingV3>)#1}, std::__ndk1::allocator<geode::listenForSettingChangesV3<bool, createSettingTabQOL(char const*, QOLModExt::WindowExt*)::$_1>(std::__ndk1::basic_string_view<char, std::__ndk1::char_traits<char> >, createSettingTabQOL(char const*, QOLModExt::WindowExt*)::$_1&&, geode::Mod*)::{lambda(std::__ndk1::shared_ptr<geode::SettingV3>)#1}>, void (std::__ndk1::shared_ptr<geode::SettingV3>)>::destroy()
PUBLIC dd650 0 std::__ndk1::__function::__func<geode::listenForSettingChangesV3<bool, createSettingTabQOL(char const*, QOLModExt::WindowExt*)::$_1>(std::__ndk1::basic_string_view<char, std::__ndk1::char_traits<char> >, createSettingTabQOL(char const*, QOLModExt::WindowExt*)::$_1&&, geode::Mod*)::{lambda(std::__ndk1::shared_ptr<geode::SettingV3>)#1}, std::__ndk1::allocator<geode::listenForSettingChangesV3<bool, createSettingTabQOL(char const*, QOLModExt::WindowExt*)::$_1>(std::__ndk1::basic_string_view<char, std::__ndk1::char_traits<char> >, createSettingTabQOL(char const*, QOLModExt::WindowExt*)::$_1&&, geode::Mod*)::{lambda(std::__ndk1::shared_ptr<geode::SettingV3>)#1}>, void (std::__ndk1::shared_ptr<geode::SettingV3>)>::destroy_deallocate()
PUBLIC dd684 0 std::__ndk1::__function::__func<geode::listenForSettingChangesV3<bool, createSettingTabQOL(char const*, QOLModExt::WindowExt*)::$_1>(std::__ndk1::basic_string_view<char, std::__ndk1::char_traits<char> >, createSettingTabQOL(char const*, QOLModExt::WindowExt*)::$_1&&, geode::Mod*)::{lambda(std::__ndk1::shared_ptr<geode::SettingV3>)#1}, std::__ndk1::allocator<geode::listenForSettingChangesV3<bool, createSettingTabQOL(char const*, QOLModExt::WindowExt*)::$_1>(std::__ndk1::basic_string_view<char, std::__ndk1::char_traits<char> >, createSettingTabQOL(char const*, QOLModExt::WindowExt*)::$_1&&, geode::Mod*)::{lambda(std::__ndk1::shared_ptr<geode::SettingV3>)#1}>, void (std::__ndk1::shared_ptr<geode::SettingV3>)>::operator()(std::__ndk1::shared_ptr<geode::SettingV3>&&)
PUBLIC dd930 0 std::__ndk1::__function::__func<geode::listenForSettingChangesV3<bool, createSettingTabQOL(char const*, QOLModExt::WindowExt*)::$_1>(std::__ndk1::basic_string_view<char, std::__ndk1::char_traits<char> >, createSettingTabQOL(char const*, QOLModExt::WindowExt*)::$_1&&, geode::Mod*)::{lambda(std::__ndk1::shared_ptr<geode::SettingV3>)#1}, std::__ndk1::allocator<geode::listenForSettingChangesV3<bool, createSettingTabQOL(char const*, QOLModExt::WindowExt*)::$_1>(std::__ndk1::basic_string_view<char, std::__ndk1::char_traits<char> >, createSettingTabQOL(char const*, QOLModExt::WindowExt*)::$_1&&, geode::Mod*)::{lambda(std::__ndk1::shared_ptr<geode::SettingV3>)#1}>, void (std::__ndk1::shared_ptr<geode::SettingV3>)>::target(std::type_info const&) const
PUBLIC dd94c 0 std::__ndk1::__function::__func<geode::listenForSettingChangesV3<bool, createSettingTabQOL(char const*, QOLModExt::WindowExt*)::$_1>(std::__ndk1::basic_string_view<char, std::__ndk1::char_traits<char> >, createSettingTabQOL(char const*, QOLModExt::WindowExt*)::$_1&&, geode::Mod*)::{lambda(std::__ndk1::shared_ptr<geode::SettingV3>)#1}, std::__ndk1::allocator<geode::listenForSettingChangesV3<bool, createSettingTabQOL(char const*, QOLModExt::WindowExt*)::$_1>(std::__ndk1::basic_string_view<char, std::__ndk1::char_traits<char> >, createSettingTabQOL(char const*, QOLModExt::WindowExt*)::$_1&&, geode::Mod*)::{lambda(std::__ndk1::shared_ptr<geode::SettingV3>)#1}>, void (std::__ndk1::shared_ptr<geode::SettingV3>)>::target_type() const
PUBLIC dd958 0 QOLModExt::ToggleModuleEvent::~ToggleModuleEvent()
PUBLIC dd998 0 QOLModExt::ToggleModuleEvent::~ToggleModuleEvent()
PUBLIC dd9dc 0 std::__ndk1::__function::__func<geodeExecFunction25<(anonymous namespace)::ExecFuncUnique25>(geode::ModStateEvent*)::{lambda()#1}, std::__ndk1::allocator<geodeExecFunction25<(anonymous namespace)::ExecFuncUnique25>(geode::ModStateEvent*)::{lambda()#1}>, void ()>::~__func()
PUBLIC dd9e0 0 std::__ndk1::__function::__func<geodeExecFunction25<(anonymous namespace)::ExecFuncUnique25>(geode::ModStateEvent*)::{lambda()#1}, std::__ndk1::allocator<geodeExecFunction25<(anonymous namespace)::ExecFuncUnique25>(geode::ModStateEvent*)::{lambda()#1}>, void ()>::__clone() const
PUBLIC dda04 0 std::__ndk1::__function::__func<geodeExecFunction25<(anonymous namespace)::ExecFuncUnique25>(geode::ModStateEvent*)::{lambda()#1}, std::__ndk1::allocator<geodeExecFunction25<(anonymous namespace)::ExecFuncUnique25>(geode::ModStateEvent*)::{lambda()#1}>, void ()>::__clone(std::__ndk1::__function::__base<void ()>*) const
PUBLIC dda14 0 std::__ndk1::__function::__func<geodeExecFunction25<(anonymous namespace)::ExecFuncUnique25>(geode::ModStateEvent*)::{lambda()#1}, std::__ndk1::allocator<geodeExecFunction25<(anonymous namespace)::ExecFuncUnique25>(geode::ModStateEvent*)::{lambda()#1}>, void ()>::destroy()
PUBLIC dda18 0 std::__ndk1::__function::__func<geodeExecFunction25<(anonymous namespace)::ExecFuncUnique25>(geode::ModStateEvent*)::{lambda()#1}, std::__ndk1::allocator<geodeExecFunction25<(anonymous namespace)::ExecFuncUnique25>(geode::ModStateEvent*)::{lambda()#1}>, void ()>::destroy_deallocate()
PUBLIC dda1c 0 std::__ndk1::__function::__func<geodeExecFunction25<(anonymous namespace)::ExecFuncUnique25>(geode::ModStateEvent*)::{lambda()#1}, std::__ndk1::allocator<geodeExecFunction25<(anonymous namespace)::ExecFuncUnique25>(geode::ModStateEvent*)::{lambda()#1}>, void ()>::operator()()
PUBLIC ddb78 0 std::__ndk1::__function::__func<geodeExecFunction25<(anonymous namespace)::ExecFuncUnique25>(geode::ModStateEvent*)::{lambda()#1}, std::__ndk1::allocator<geodeExecFunction25<(anonymous namespace)::ExecFuncUnique25>(geode::ModStateEvent*)::{lambda()#1}>, void ()>::target(std::type_info const&) const
PUBLIC ddb94 0 std::__ndk1::__function::__func<geodeExecFunction25<(anonymous namespace)::ExecFuncUnique25>(geode::ModStateEvent*)::{lambda()#1}, std::__ndk1::allocator<geodeExecFunction25<(anonymous namespace)::ExecFuncUnique25>(geode::ModStateEvent*)::{lambda()#1}>, void ()>::target_type() const
PUBLIC ddba0 0 QOLModExt::PushWindowEvent::~PushWindowEvent()
PUBLIC ddbc4 0 _GLOBAL__sub_I_qolmod.cpp
PUBLIC m ddcdc 0 CreatorInfoPopup::create(int)
PUBLIC m dddd8 0 CreatorInfoPopup::init(int)
PUBLIC m de628 0 CreatorInfoPopup::loadLevels()
PUBLIC m de708 0 CreatorInfoPopup::createTabs()
PUBLIC m dea00 0 CreatorInfoPopup::onClose(cocos2d::CCObject*)
PUBLIC m dea40 0 CreatorInfoPopup::onTab(cocos2d::CCObject*)
PUBLIC m deabc 0 CreatorInfoPopup::showResults()
PUBLIC m df164 0 CreatorInfoPopup::createTab(char const*, char const*, int, bool)
PUBLIC df480 0 geode::cocos::CCArrayExt<CCMenuItemSpriteExtra*, CCMenuItemSpriteExtra>::~CCArrayExt()
PUBLIC m df49c 0 CreatorInfoPopup::levelsForDifficulty(int, bool)
PUBLIC m df8e4 0 CreatorInfoPopup::queueLoad(float)
PUBLIC m df910 0 CreatorInfoPopup::loadLevelsFinished(cocos2d::CCArray*, char const*)
PUBLIC df9f4 0 geode::cocos::CCArrayExt<GJGameLevel*, GJGameLevel>::~CCArrayExt()
PUBLIC m dfa14 0 {virtual override thunk({offset(-648)}, CreatorInfoPopup::loadLevelsFinished(cocos2d::CCArray*, char const*))}
PUBLIC m dfa1c 0 CreatorInfoPopup::loadLevelsFailed(char const*)
PUBLIC m dfa20 0 {virtual override thunk({offset(-648)}, CreatorInfoPopup::loadLevelsFailed(char const*))}
PUBLIC m dfa28 0 CreatorInfoPopup::setupPageInfo(gd::string, char const*)
PUBLIC dfed0 0 std::__ndk1::getline[abi:ne190000]<char, std::__ndk1::char_traits<char>, std::__ndk1::allocator<char> >(std::__ndk1::basic_istream<char, std::__ndk1::char_traits<char> >, std::__ndk1::basic_string<std::__ndk1::basic_istream, char, std::__ndk1::allocator<char> >&, std::__ndk1::basic_istream)
PUBLIC m e0084 0 {virtual override thunk({offset(-648)}, CreatorInfoPopup::setupPageInfo(gd::string, char const*))}
PUBLIC m e008c 0 CreatorInfoPopup::~CreatorInfoPopup()
PUBLIC m e0124 0 {virtual override thunk({offset(-320)}, CreatorInfoPopup::~CreatorInfoPopup())}
PUBLIC m e012c 0 CreatorInfoPopup::~CreatorInfoPopup()
PUBLIC m e0150 0 {virtual override thunk({offset(-320)}, CreatorInfoPopup::~CreatorInfoPopup())}
PUBLIC e0178 0 cocos2d::CCLayerRGBA::setOpacityModifyRGB(bool)
PUBLIC e017c 0 cocos2d::CCLayerRGBA::isOpacityModifyRGB()
PUBLIC e0184 0 {virtual override thunk({offset(-408)}, cocos2d::CCLayerRGBA::setOpacityModifyRGB(bool))}
PUBLIC e0188 0 {virtual override thunk({offset(-408)}, cocos2d::CCLayerRGBA::isOpacityModifyRGB())}
PUBLIC m e0190 0 CustomCreatorLayer::create()
PUBLIC m e0284 0 CustomCreatorLayer::init()
PUBLIC m e0df4 0 CustomCreatorLayer::onBrowserButton(cocos2d::CCObject*)
PUBLIC m e0e38 0 CustomCreatorLayer::onSearchID(cocos2d::CCObject*)
PUBLIC m e0e54 0 CustomCreatorLayer::onSearch(cocos2d::CCObject*)
PUBLIC m e0e70 0 CustomCreatorLayer::onSettings(cocos2d::CCObject*)
PUBLIC m e0eac 0 CustomCreatorLayer::onInfo(cocos2d::CCObject*)
PUBLIC m e0fb8 0 CustomCreatorLayer::scene()
PUBLIC e10b8 0 CustomCreatorLayer::~CustomCreatorLayer()
PUBLIC e10dc 0 {virtual override thunk({offset(-320)}, CustomCreatorLayer::~CustomCreatorLayer())}
PUBLIC e10e4 0 {virtual override thunk({offset(-320)}, CustomCreatorLayer::~CustomCreatorLayer())}
PUBLIC m e110c 0 CustomLevelSearchLayer::create(GJGameLevel*)
PUBLIC m e11e8 0 CustomLevelSearchLayer::init(GJGameLevel*)
PUBLIC m e16d4 0 CustomLevelSearchLayer::onClose(cocos2d::CCObject*)
PUBLIC m e1710 0 CustomLevelSearchLayer::onSimilar(cocos2d::CCObject*)
PUBLIC m e17fc 0 CustomLevelSearchLayer::onSong(cocos2d::CCObject*)
PUBLIC m e1864 0 CustomLevelSearchLayer::onNeighbors(cocos2d::CCObject*)
PUBLIC m e1be0 0 CustomLevelSearchLayer::createButton(cocos2d::CCNode*, char const*, void (cocos2d::CCObject::*)(cocos2d::CCObject*), float, float, int, float, float)
PUBLIC e1ccc 0 CustomLevelSearchLayer::~CustomLevelSearchLayer()
PUBLIC e1d3c 0 CustomLevelSearchLayer::~CustomLevelSearchLayer()
PUBLIC e1db4 0 {virtual override thunk({offset(-320)}, CustomLevelSearchLayer::~CustomLevelSearchLayer())}
PUBLIC e1e28 0 {virtual override thunk({offset(-320)}, CustomLevelSearchLayer::~CustomLevelSearchLayer())}
PUBLIC m e1ea4 0 DailyCell::loadFromData(cocos2d::CCObject*)
PUBLIC m e3698 0 DailyCell::getAwardedDiamonds()
PUBLIC m e36e8 0 DailyCell::getTotalDiamonds()
PUBLIC m e370c 0 DailyCell::onView(cocos2d::CCObject*)
PUBLIC m e37f8 0 DailyCell::onLeaderboards(cocos2d::CCObject*)
PUBLIC m e3860 0 DailyCell::onInfo(cocos2d::CCObject*)
PUBLIC m e3868 0 DailyCell::draw()
PUBLIC m e386c 0 DailyCell::DailyCell(char const*, cocos2d::CCSize)
PUBLIC m e38f0 0 DailyCell::create(char const*, cocos2d::CCSize)
PUBLIC e39bc 0 DailyCell::~DailyCell()
PUBLIC e3a20 0 {virtual override thunk({offset(-320)}, DailyCell::~DailyCell())}
PUBLIC e3a80 0 {virtual override thunk({offset(-320)}, DailyCell::~DailyCell())}
PUBLIC m e3ae8 0 DailyViewLayer::create(GJTimedLevelType)
PUBLIC m e3c44 0 DailyViewLayer::compareDailies(void const*, void const*)
PUBLIC m e3c70 0 DailyViewLayer::init(GJTimedLevelType)
PUBLIC e41c0 0 geode::cocos::CCDictionaryExt<gd::string, GJGameLevel*, GJGameLevel>::~CCDictionaryExt()
PUBLIC m e41e0 0 DailyViewLayer::onMore(cocos2d::CCObject*)
PUBLIC m e4230 0 DailyViewLayer::loadPage()
PUBLIC m e4278 0 DailyViewLayer::getSearchObject()
PUBLIC m e4298 0 DailyViewLayer::scene(GJTimedLevelType)
PUBLIC e42d4 0 BIViewLayer::~BIViewLayer()
PUBLIC e4384 0 DailyViewLayer::~DailyViewLayer()
PUBLIC e43a8 0 {virtual override thunk({offset(-320)}, DailyViewLayer::~DailyViewLayer())}
PUBLIC e43b0 0 {virtual override thunk({offset(-320)}, DailyViewLayer::~DailyViewLayer())}
PUBLIC e43d8 0 std::__ndk1::__introsort<std::__ndk1::_ClassicAlgPolicy, bool (*&)(void const*, void const*), cocos2d::CCObject**, false>(cocos2d::CCObject**, cocos2d::CCObject**, bool (*&)(void const*, void const*), std::__ndk1::iterator_traits<cocos2d::CCObject**>::difference_type, bool)
PUBLIC e4d30 0 std::__ndk1::__insertion_sort_incomplete[abi:ne190000]<std::__ndk1::_ClassicAlgPolicy, bool (*&)(void const*, void const), cocos2d::CCObject**>(cocos2d::CCObject**, cocos2d::CCObject**, bool (*&)(void const*, void const))
PUBLIC e5050 0 std::__ndk1::__sort4[abi:ne190000]<std::__ndk1::_ClassicAlgPolicy, bool (*&)(void const*, void const), cocos2d::CCObject**>(cocos2d::CCObject**, cocos2d::CCObject**, cocos2d::CCObject**, cocos2d::CCObject**, bool (*&)(void const*, void const))
PUBLIC e51a4 0 std::__ndk1::__partial_sort_impl[abi:ne190000]<std::__ndk1::_ClassicAlgPolicy, bool (*&)(void const*, void const), cocos2d::CCObject**, cocos2d::CCObject*>(cocos2d::CCObject**, cocos2d::CCObject**, cocos2d::CCObject*, bool (*&)(void const*, void const))
PUBLIC m e55d4 0 ExtendedLevelInfo::create(GJGameLevel*)
PUBLIC m e5710 0 ExtendedLevelInfo::init(GJGameLevel*)
PUBLIC m e6c5c 0 ExtendedLevelInfo::onClose(cocos2d::CCObject*)
PUBLIC m e6ce8 0 ExtendedLevelInfo::onCopyName(cocos2d::CCObject*)
PUBLIC m e6d14 0 ExtendedLevelInfo::onCopyAuthor(cocos2d::CCObject*)
PUBLIC m e6d40 0 ExtendedLevelInfo::onCopyDesc(cocos2d::CCObject*)
PUBLIC m e6dcc 0 ExtendedLevelInfo::onCopyInfo(cocos2d::CCObject*)
PUBLIC m e6e80 0 ExtendedLevelInfo::onNext(cocos2d::CCObject*)
PUBLIC m e6e8c 0 ExtendedLevelInfo::loadPage(int)
PUBLIC m e6f9c 0 ExtendedLevelInfo::onPrev(cocos2d::CCObject*)
PUBLIC m e6fa8 0 ExtendedLevelInfo::onUploadDateLoaded(int, std::__ndk1::basic_string<char, std::__ndk1::char_traits<char>, std::__ndk1::allocator<char> > const&)
PUBLIC m e7028 0 ExtendedLevelInfo::refreshInfoTexts()
PUBLIC m e914c 0 {virtual override thunk({offset(-648)}, ExtendedLevelInfo::onUploadDateLoaded(int, std::__ndk1::basic_string<char, std::__ndk1::char_traits<char>, std::__ndk1::allocator<char> > const&))}
PUBLIC m e91d0 0 ExtendedLevelInfo::setupAdditionalInfo()
PUBLIC m e9364 0 ExtendedLevelInfo::createTextLabel(std::__ndk1::basic_string<char, std::__ndk1::char_traits<char>, std::__ndk1::allocator<char> >, cocos2d::CCPoint const&, float, cocos2d::CCNode*, char const*)
PUBLIC m e93f0 0 ExtendedLevelInfo::keyDown(cocos2d::enumKeyCodes)
PUBLIC m e94a0 0 {virtual override thunk({offset(-344)}, ExtendedLevelInfo::keyDown(cocos2d::enumKeyCodes))}
PUBLIC e9554 0 ExtendedLevelInfo::~ExtendedLevelInfo()
PUBLIC e9708 0 ExtendedLevelInfo::~ExtendedLevelInfo()
PUBLIC e972c 0 {virtual override thunk({offset(-320)}, ExtendedLevelInfo::~ExtendedLevelInfo())}
PUBLIC e9734 0 {virtual override thunk({offset(-320)}, ExtendedLevelInfo::~ExtendedLevelInfo())}
PUBLIC e975c 0 std::__ndk1::__thread_proxy[abi:ne190000]<std::__ndk1::tuple<std::__ndk1::unique_ptr<std::__ndk1::__thread_struct, std::__ndk1::default_delete<std::__ndk1::unique_ptr> >, ExtendedLevelInfo::setupAdditionalInfo()::$_0> >(std::__ndk1::tuple<std::__ndk1::unique_ptr<std::__ndk1::__thread_struct, std::__ndk1::default_delete<std::__ndk1::unique_ptr> >, ExtendedLevelInfo::setupAdditionalInfo()::$_0>)
PUBLIC e9ccc 0 std::__ndk1::unique_ptr<std::__ndk1::tuple<std::__ndk1::unique_ptr<std::__ndk1::__thread_struct, std::__ndk1::default_delete<std::__ndk1::__thread_struct> >, ExtendedLevelInfo::setupAdditionalInfo()::$_0>, std::__ndk1::default_delete<std::__ndk1::tuple<std::__ndk1::unique_ptr<std::__ndk1::__thread_struct, std::__ndk1::default_delete<std::__ndk1::__thread_struct> >, ExtendedLevelInfo::setupAdditionalInfo()::$_0> > >::~unique_ptr[abi:ne190000]()
PUBLIC e9d1c 0 std::__ndk1::__function::__func<ExtendedLevelInfo::setupAdditionalInfo()::$_0::operator()() const::{lambda()#1}, std::__ndk1::allocator<ExtendedLevelInfo::setupAdditionalInfo()::$_0::operator()() const::{lambda()#1}>, void ()>::~__func()
PUBLIC e9d20 0 std::__ndk1::__function::__func<ExtendedLevelInfo::setupAdditionalInfo()::$_0::operator()() const::{lambda()#1}, std::__ndk1::allocator<ExtendedLevelInfo::setupAdditionalInfo()::$_0::operator()() const::{lambda()#1}>, void ()>::__clone() const
PUBLIC e9d54 0 std::__ndk1::__function::__func<ExtendedLevelInfo::setupAdditionalInfo()::$_0::operator()() const::{lambda()#1}, std::__ndk1::allocator<ExtendedLevelInfo::setupAdditionalInfo()::$_0::operator()() const::{lambda()#1}>, void ()>::__clone(std::__ndk1::__function::__base<void ()>*) const
PUBLIC e9d68 0 std::__ndk1::__function::__func<ExtendedLevelInfo::setupAdditionalInfo()::$_0::operator()() const::{lambda()#1}, std::__ndk1::allocator<ExtendedLevelInfo::setupAdditionalInfo()::$_0::operator()() const::{lambda()#1}>, void ()>::destroy()
PUBLIC e9d6c 0 std::__ndk1::__function::__func<ExtendedLevelInfo::setupAdditionalInfo()::$_0::operator()() const::{lambda()#1}, std::__ndk1::allocator<ExtendedLevelInfo::setupAdditionalInfo()::$_0::operator()() const::{lambda()#1}>, void ()>::destroy_deallocate()
PUBLIC e9d70 0 std::__ndk1::__function::__func<ExtendedLevelInfo::setupAdditionalInfo()::$_0::operator()() const::{lambda()#1}, std::__ndk1::allocator<ExtendedLevelInfo::setupAdditionalInfo()::$_0::operator()() const::{lambda()#1}>, void ()>::operator()()
PUBLIC e9d9c 0 std::__ndk1::__function::__func<ExtendedLevelInfo::setupAdditionalInfo()::$_0::operator()() const::{lambda()#1}, std::__ndk1::allocator<ExtendedLevelInfo::setupAdditionalInfo()::$_0::operator()() const::{lambda()#1}>, void ()>::target(std::type_info const&) const
PUBLIC e9db8 0 std::__ndk1::__function::__func<ExtendedLevelInfo::setupAdditionalInfo()::$_0::operator()() const::{lambda()#1}, std::__ndk1::allocator<ExtendedLevelInfo::setupAdditionalInfo()::$_0::operator()() const::{lambda()#1}>, void ()>::target_type() const
PUBLIC m e9dc4 0 FoundListsPopup::create()
PUBLIC m e9ea8 0 FoundListsPopup::onClose(cocos2d::CCObject*)
PUBLIC m e9eac 0 FoundListsPopup::onOK(cocos2d::CCObject*)
PUBLIC m e9f30 0 FoundListsPopup::init()
PUBLIC m eb34c 0 FoundListsPopup::createTextLabel(std::__ndk1::basic_string<char, std::__ndk1::char_traits<char>, std::__ndk1::allocator<char> >, cocos2d::CCPoint const&, float, cocos2d::CCNode*, char const*)
PUBLIC eb3d8 0 FoundListsPopup::~FoundListsPopup()
PUBLIC eb460 0 FoundListsPopup::~FoundListsPopup()
PUBLIC eb4f0 0 {virtual override thunk({offset(-320)}, FoundListsPopup::~FoundListsPopup())}
PUBLIC eb584 0 {virtual override thunk({offset(-320)}, FoundListsPopup::~FoundListsPopup())}
PUBLIC m eb620 0 JumpToPageLayer::create(InfoLayer*)
PUBLIC m eb720 0 JumpToPageLayer::init(InfoLayer*)
PUBLIC m eb768 0 JumpToPageLayer::create(PageNumberDelegate*)
PUBLIC m eb854 0 JumpToPageLayer::init(PageNumberDelegate*)
PUBLIC m eb864 0 JumpToPageLayer::onClose(cocos2d::CCObject*)
PUBLIC m eb8b8 0 JumpToPageLayer::onPrev(cocos2d::CCObject*)
PUBLIC m eb9d0 0 JumpToPageLayer::pageNumber()
PUBLIC m eba5c 0 JumpToPageLayer::onNext(cocos2d::CCObject*)
PUBLIC m ebb64 0 JumpToPageLayer::onReset(cocos2d::CCObject*)
PUBLIC m ebbf0 0 JumpToPageLayer::onLast(cocos2d::CCObject*)
PUBLIC m ebc68 0 JumpToPageLayer::loadCommentsFinished(cocos2d::CCArray*, char const*)
PUBLIC m ebce0 0 {virtual override thunk({offset(-648)}, JumpToPageLayer::loadCommentsFinished(cocos2d::CCArray*, char const*))}
PUBLIC m ebd58 0 JumpToPageLayer::loadCommentsFailed(char const*)
PUBLIC m ebe24 0 {virtual override thunk({offset(-648)}, JumpToPageLayer::loadCommentsFailed(char const*))}
PUBLIC m ebe2c 0 JumpToPageLayer::onOK(cocos2d::CCObject*)
PUBLIC m ebf3c 0 JumpToPageLayer::init()
PUBLIC m ec7c8 0 JumpToPageLayer::createTextLabel(std::__ndk1::basic_string<char, std::__ndk1::char_traits<char>, std::__ndk1::allocator<char> >, cocos2d::CCPoint const&, float, cocos2d::CCNode*, char const*)
PUBLIC ec854 0 JumpToPageLayer::~JumpToPageLayer()
PUBLIC ec8cc 0 JumpToPageLayer::~JumpToPageLayer()
PUBLIC ec94c 0 {virtual override thunk({offset(-320)}, JumpToPageLayer::~JumpToPageLayer())}
PUBLIC ec9c8 0 {virtual override thunk({offset(-320)}, JumpToPageLayer::~JumpToPageLayer())}
PUBLIC m eca4c 0 LeaderboardViewLayer::create(int)
PUBLIC m ecbb0 0 LeaderboardViewLayer::init(int)
PUBLIC m ece30 0 LeaderboardViewLayer::onRefresh(cocos2d::CCObject*)
PUBLIC m ecea4 0 LeaderboardViewLayer::loadPage()
PUBLIC m ecef8 0 LeaderboardViewLayer::keyBackClicked()
PUBLIC m ecefc 0 {virtual override thunk({offset(-336)}, LeaderboardViewLayer::keyBackClicked())}
PUBLIC m ecf04 0 LeaderboardViewLayer::scene(int)
PUBLIC m ecf40 0 LeaderboardViewLayer::onLeaderboardFinished(cocos2d::CCArray*)
PUBLIC m ecf74 0 {virtual override thunk({offset(-608)}, LeaderboardViewLayer::onLeaderboardFinished(cocos2d::CCArray*))}
PUBLIC m ecfac 0 LeaderboardViewLayer::~LeaderboardViewLayer()
PUBLIC m ed05c 0 {virtual override thunk({offset(-320)}, LeaderboardViewLayer::~LeaderboardViewLayer())}
PUBLIC m ed064 0 LeaderboardViewLayer::~LeaderboardViewLayer()
PUBLIC m ed088 0 {virtual override thunk({offset(-320)}, LeaderboardViewLayer::~LeaderboardViewLayer())}
PUBLIC m ed0b0 0 LevelBrowserEndLayer::create(LevelBrowserLayer*, InfoLayer*)
PUBLIC m ed1c4 0 LevelBrowserEndLayer::init(LevelBrowserLayer*, InfoLayer*)
PUBLIC m ed7f8 0 LevelBrowserEndLayer::onClose(cocos2d::CCObject*)
PUBLIC m ed860 0 LevelBrowserEndLayer::onOK(cocos2d::CCObject*)
PUBLIC m eda24 0 LevelBrowserEndLayer::getOnlineLevels()
PUBLIC m edccc 0 LevelBrowserEndLayer::updateDisplay()
PUBLIC m edeec 0 LevelBrowserEndLayer::onTimer(float)
PUBLIC m ee020 0 LevelBrowserEndLayer::createTextLabel(std::__ndk1::basic_string<char, std::__ndk1::char_traits<char>, std::__ndk1::allocator<char> >, cocos2d::CCPoint const&, float, cocos2d::CCNode*, char const*)
PUBLIC m ee0ac 0 LevelBrowserEndLayer::loadLevelsFinished(cocos2d::CCArray*, char const*)
PUBLIC m ee1f4 0 {virtual override thunk({offset(-648)}, LevelBrowserEndLayer::loadLevelsFinished(cocos2d::CCArray*, char const*))}
PUBLIC m ee1fc 0 LevelBrowserEndLayer::loadLevelsFinished(cocos2d::CCArray*, char const*, int)
PUBLIC m ee208 0 {virtual override thunk({offset(-648)}, LevelBrowserEndLayer::loadLevelsFinished(cocos2d::CCArray*, char const*, int))}
PUBLIC m ee218 0 LevelBrowserEndLayer::loadLevelsFailed(char const*)
PUBLIC m ee350 0 {virtual override thunk({offset(-648)}, LevelBrowserEndLayer::loadLevelsFailed(char const*))}
PUBLIC m ee358 0 LevelBrowserEndLayer::loadLevelsFailed(char const*, int)
PUBLIC m ee364 0 {virtual override thunk({offset(-648)}, LevelBrowserEndLayer::loadLevelsFailed(char const*, int))}
PUBLIC m ee374 0 LevelBrowserEndLayer::setupPageInfo(gd::string, char const*)
PUBLIC m ee378 0 {virtual override thunk({offset(-648)}, LevelBrowserEndLayer::setupPageInfo(gd::string, char const*))}
PUBLIC m ee37c 0 {virtual override thunk({offset(-656)}, LevelBrowserEndLayer::setupPageInfo(gd::string, char const*))}
PUBLIC m ee380 0 LevelBrowserEndLayer::loadCommentsFinished(cocos2d::CCArray*, char const*)
PUBLIC m ee38c 0 {virtual override thunk({offset(-656)}, LevelBrowserEndLayer::loadCommentsFinished(cocos2d::CCArray*, char const*))}
PUBLIC m ee39c 0 LevelBrowserEndLayer::loadCommentsFailed(char const*)
PUBLIC m ee3a8 0 {virtual override thunk({offset(-656)}, LevelBrowserEndLayer::loadCommentsFailed(char const*))}
PUBLIC m ee3b8 0 LevelBrowserEndLayer::onQueueDownload(float)
PUBLIC m ee48c 0 LevelBrowserEndLayer::~LevelBrowserEndLayer()
PUBLIC m ee564 0 {virtual override thunk({offset(-320)}, LevelBrowserEndLayer::~LevelBrowserEndLayer())}
PUBLIC m ee56c 0 LevelBrowserEndLayer::~LevelBrowserEndLayer()
PUBLIC m ee590 0 {virtual override thunk({offset(-320)}, LevelBrowserEndLayer::~LevelBrowserEndLayer())}
PUBLIC ee5b8 0 std::__ndk1::basic_string<char, std::__ndk1::char_traits<char>, std::__ndk1::allocator<char> >::__assign_external(char const*)
PUBLIC ee5ec 0 std::__ndk1::__function::__func<LevelBrowserEndLayer::getOnlineLevels()::$_0, std::__ndk1::allocator<LevelBrowserEndLayer::getOnlineLevels()::$_0>, void ()>::~__func()
PUBLIC ee5f0 0 std::__ndk1::__function::__func<LevelBrowserEndLayer::getOnlineLevels()::$_0, std::__ndk1::allocator<LevelBrowserEndLayer::getOnlineLevels()::$_0>, void ()>::__clone() const
PUBLIC ee624 0 std::__ndk1::__function::__func<LevelBrowserEndLayer::getOnlineLevels()::$_0, std::__ndk1::allocator<LevelBrowserEndLayer::getOnlineLevels()::$_0>, void ()>::__clone(std::__ndk1::__function::__base<void ()>*) const
PUBLIC ee638 0 std::__ndk1::__function::__func<LevelBrowserEndLayer::getOnlineLevels()::$_0, std::__ndk1::allocator<LevelBrowserEndLayer::getOnlineLevels()::$_0>, void ()>::destroy()
PUBLIC ee63c 0 std::__ndk1::__function::__func<LevelBrowserEndLayer::getOnlineLevels()::$_0, std::__ndk1::allocator<LevelBrowserEndLayer::getOnlineLevels()::$_0>, void ()>::destroy_deallocate()
PUBLIC ee640 0 std::__ndk1::__function::__func<LevelBrowserEndLayer::getOnlineLevels()::$_0, std::__ndk1::allocator<LevelBrowserEndLayer::getOnlineLevels()::$_0>, void ()>::operator()()
PUBLIC ee654 0 std::__ndk1::__function::__func<LevelBrowserEndLayer::getOnlineLevels()::$_0, std::__ndk1::allocator<LevelBrowserEndLayer::getOnlineLevels()::$_0>, void ()>::target(std::type_info const&) const
PUBLIC ee670 0 std::__ndk1::__function::__func<LevelBrowserEndLayer::getOnlineLevels()::$_0, std::__ndk1::allocator<LevelBrowserEndLayer::getOnlineLevels()::$_0>, void ()>::target_type() const
PUBLIC m ee67c 0 CvoltonSearchOptions::create()
PUBLIC m ee77c 0 CvoltonSearchOptions::onClose(cocos2d::CCObject*)
PUBLIC m ee7b0 0 CvoltonSearchOptions::onInfo(cocos2d::CCObject*)
PUBLIC m ee854 0 CvoltonSearchOptions::onPrev(cocos2d::CCObject*)
PUBLIC m ee8ac 0 CvoltonSearchOptions::init()
PUBLIC m ef7a4 0 CvoltonSearchOptions::onPercentageRange(cocos2d::CCObject*)
PUBLIC m ef950 0 CvoltonSearchOptions::drawToggles()
PUBLIC m efb9c 0 CvoltonSearchOptions::getCompletedString()
PUBLIC m efd54 0 CvoltonSearchOptions::onIDRangeFinished(int, int, int)
PUBLIC m efe8c 0 {virtual override thunk({offset(-696)}, CvoltonSearchOptions::onIDRangeFinished(int, int, int))}
PUBLIC efe94 0 CvoltonOptionsLayer::~CvoltonOptionsLayer()
PUBLIC eff08 0 CvoltonSearchOptions::~CvoltonSearchOptions()
PUBLIC eff80 0 {virtual override thunk({offset(-320)}, CvoltonSearchOptions::~CvoltonSearchOptions())}
PUBLIC efff4 0 {virtual override thunk({offset(-320)}, CvoltonSearchOptions::~CvoltonSearchOptions())}
PUBLIC f0070 0 EnumSelectNode<CompleteMode, int>::~EnumSelectNode()
PUBLIC f00fc 0 EnumSelectNode<CompleteMode, int>::~EnumSelectNode()
PUBLIC f0190 0 EnumSelectNode<CompleteMode, int>::setContentSize(cocos2d::CCSize const&)
PUBLIC f01b4 0 cocos2d::CCMenu::setOpacityModifyRGB(bool)
PUBLIC f01b8 0 cocos2d::CCMenu::isOpacityModifyRGB()
PUBLIC f01c0 0 cocos2d::CCMenu::isEnabled()
PUBLIC f01c8 0 cocos2d::CCMenu::setEnabled(bool)
PUBLIC f01d0 0 {virtual override thunk({offset(-320)}, EnumSelectNode<CompleteMode, int>::~EnumSelectNode())}
PUBLIC f0260 0 {virtual override thunk({offset(-320)}, EnumSelectNode<CompleteMode, int>::~EnumSelectNode())}
PUBLIC f02f8 0 {virtual override thunk({offset(-408)}, cocos2d::CCMenu::setOpacityModifyRGB(bool))}
PUBLIC f02fc 0 {virtual override thunk({offset(-408)}, cocos2d::CCMenu::isOpacityModifyRGB())}
PUBLIC f0304 0 std::__ndk1::__tree<std::__ndk1::__value_type<CompleteMode, std::__ndk1::basic_string<char, std::__ndk1::char_traits<char>, std::__ndk1::allocator<char> > >, std::__ndk1::__map_value_compare<CompleteMode, std::__ndk1::__value_type<CompleteMode, std::__ndk1::basic_string<char, std::__ndk1::char_traits<char>, std::__ndk1::allocator<char> > >, std::__ndk1::less<CompleteMode>, true>, std::__ndk1::allocator<std::__ndk1::__value_type<CompleteMode, std::__ndk1::basic_string<char, std::__ndk1::char_traits<char>, std::__ndk1::allocator<char> > > > >::destroy(std::__ndk1::__tree_node<std::__ndk1::__value_type<CompleteMode, std::__ndk1::basic_string<char, std::__ndk1::char_traits<char>, std::__ndk1::allocator<char> > >, void*>*)
PUBLIC f034c 0 EnumSelectNode<CompleteMode, int>::positionItems()
PUBLIC f0498 0 EnumSelectNode<CompleteMode, int>::onPrev(cocos2d::CCObject*)
PUBLIC f0570 0 EnumSelectNode<CompleteMode, int>::onNext(cocos2d::CCObject*)
PUBLIC f063c 0 EnumSelectNode<CompleteMode, int>::refreshLabel()
PUBLIC f07b4 0 std::__ndk1::__throw_bad_function_call[abi:ne190000]()
PUBLIC f07e8 0 std::__ndk1::bad_function_call::~bad_function_call()
PUBLIC f080c 0 std::__ndk1::__function::__base<void (CompleteMode)>::~__base()
PUBLIC f0810 0 std::__ndk1::__function::__func<CvoltonSearchOptions::init()::$_0, std::__ndk1::allocator<CvoltonSearchOptions::init()::$_0>, void (CompleteMode)>::~__func()
PUBLIC f0814 0 std::__ndk1::__function::__func<CvoltonSearchOptions::init()::$_0, std::__ndk1::allocator<CvoltonSearchOptions::init()::$_0>, void (CompleteMode)>::__clone() const
PUBLIC f084c 0 std::__ndk1::__function::__func<CvoltonSearchOptions::init()::$_0, std::__ndk1::allocator<CvoltonSearchOptions::init()::$_0>, void (CompleteMode)>::__clone(std::__ndk1::__function::__base<void (CompleteMode)>*) const
PUBLIC f0864 0 std::__ndk1::__function::__func<CvoltonSearchOptions::init()::$_0, std::__ndk1::allocator<CvoltonSearchOptions::init()::$_0>, void (CompleteMode)>::destroy()
PUBLIC f0868 0 std::__ndk1::__function::__func<CvoltonSearchOptions::init()::$_0, std::__ndk1::allocator<CvoltonSearchOptions::init()::$_0>, void (CompleteMode)>::destroy_deallocate()
PUBLIC f086c 0 std::__ndk1::__function::__func<CvoltonSearchOptions::init()::$_0, std::__ndk1::allocator<CvoltonSearchOptions::init()::$_0>, void (CompleteMode)>::operator()(CompleteMode&&)
PUBLIC f0948 0 std::__ndk1::__function::__func<CvoltonSearchOptions::init()::$_0, std::__ndk1::allocator<CvoltonSearchOptions::init()::$_0>, void (CompleteMode)>::target(std::type_info const&) const
PUBLIC f0964 0 std::__ndk1::__function::__func<CvoltonSearchOptions::init()::$_0, std::__ndk1::allocator<CvoltonSearchOptions::init()::$_0>, void (CompleteMode)>::target_type() const
PUBLIC m f0970 0 GameVersionPopup::create(IDRangeDelegate*, int, int, int)
PUBLIC m f0a84 0 GameVersionPopup::init(IDRangeDelegate*, int, int, int)
PUBLIC m f14cc 0 GameVersionPopup::onClose(cocos2d::CCObject*)
PUBLIC f1514 0 EnumSelectNode<int, int>::create(std::initializer_list<std::__ndk1::pair<int, std::__ndk1::basic_string<char, std::__ndk1::char_traits<char>, std::__ndk1::allocator<char> > > >, std::__ndk1::function<void (int)>)
PUBLIC f1b18 0 GameVersionPopup::~GameVersionPopup()
PUBLIC f1b3c 0 {virtual override thunk({offset(-320)}, GameVersionPopup::~GameVersionPopup())}
PUBLIC f1b44 0 {virtual override thunk({offset(-320)}, GameVersionPopup::~GameVersionPopup())}
PUBLIC f1b6c 0 EnumSelectNode<int, int>::~EnumSelectNode()
PUBLIC f1bfc 0 EnumSelectNode<int, int>::~EnumSelectNode()
PUBLIC f1c94 0 EnumSelectNode<int, int>::setContentSize(cocos2d::CCSize const&)
PUBLIC f1cb8 0 {virtual override thunk({offset(-320)}, EnumSelectNode<int, int>::~EnumSelectNode())}
PUBLIC f1d4c 0 {virtual override thunk({offset(-320)}, EnumSelectNode<int, int>::~EnumSelectNode())}
PUBLIC f1de8 0 std::__ndk1::__tree<std::__ndk1::__value_type<int, std::__ndk1::basic_string<char, std::__ndk1::char_traits<char>, std::__ndk1::allocator<char> > >, std::__ndk1::__map_value_compare<int, std::__ndk1::__value_type<int, std::__ndk1::basic_string<char, std::__ndk1::char_traits<char>, std::__ndk1::allocator<char> > >, std::__ndk1::less<int>, true>, std::__ndk1::allocator<std::__ndk1::__value_type<int, std::__ndk1::basic_string<char, std::__ndk1::char_traits<char>, std::__ndk1::allocator<char> > > > >::destroy(std::__ndk1::__tree_node<std::__ndk1::__value_type<int, std::__ndk1::basic_string<char, std::__ndk1::char_traits<char>, std::__ndk1::allocator<char> > >, void*>*)
PUBLIC f1e38 0 EnumSelectNode<int, int>::positionItems()
PUBLIC m f1f84 0 EnumSelectNode<int, int>::onPrev(cocos2d::CCObject*)
PUBLIC m f205c 0 EnumSelectNode<int, int>::onNext(cocos2d::CCObject*)
PUBLIC f2128 0 EnumSelectNode<int, int>::refreshLabel()
PUBLIC f22a0 0 std::__ndk1::__function::__value_func<void (int)>::swap[abi:ne190000](std::__ndk1::__function::__value_func<void (int)>&)
PUBLIC f2438 0 std::__ndk1::__function::__func<GameVersionPopup::init(IDRangeDelegate*, int, int, int)::$_0, std::__ndk1::allocator<GameVersionPopup::init(IDRangeDelegate*, int, int, int)::$_0>, void (int)>::~__func()
PUBLIC f243c 0 std::__ndk1::__function::__func<GameVersionPopup::init(IDRangeDelegate*, int, int, int)::$_0, std::__ndk1::allocator<GameVersionPopup::init(IDRangeDelegate*, int, int, int)::$_0>, void (int)>::__clone() const
PUBLIC f2470 0 std::__ndk1::__function::__func<GameVersionPopup::init(IDRangeDelegate*, int, int, int)::$_0, std::__ndk1::allocator<GameVersionPopup::init(IDRangeDelegate*, int, int, int)::$_0>, void (int)>::__clone(std::__ndk1::__function::__base<void (int)>*) const
PUBLIC f2484 0 std::__ndk1::__function::__func<GameVersionPopup::init(IDRangeDelegate*, int, int, int)::$_0, std::__ndk1::allocator<GameVersionPopup::init(IDRangeDelegate*, int, int, int)::$_0>, void (int)>::destroy()
PUBLIC f2488 0 std::__ndk1::__function::__func<GameVersionPopup::init(IDRangeDelegate*, int, int, int)::$_0, std::__ndk1::allocator<GameVersionPopup::init(IDRangeDelegate*, int, int, int)::$_0>, void (int)>::destroy_deallocate()
PUBLIC f248c 0 std::__ndk1::__function::__func<GameVersionPopup::init(IDRangeDelegate*, int, int, int)::$_0, std::__ndk1::allocator<GameVersionPopup::init(IDRangeDelegate*, int, int, int)::$_0>, void (int)>::operator()(int&&)
PUBLIC f249c 0 std::__ndk1::__function::__func<GameVersionPopup::init(IDRangeDelegate*, int, int, int)::$_0, std::__ndk1::allocator<GameVersionPopup::init(IDRangeDelegate*, int, int, int)::$_0>, void (int)>::target(std::type_info const&) const
PUBLIC f24b8 0 std::__ndk1::__function::__func<GameVersionPopup::init(IDRangeDelegate*, int, int, int)::$_0, std::__ndk1::allocator<GameVersionPopup::init(IDRangeDelegate*, int, int, int)::$_0>, void (int)>::target_type() const
PUBLIC f24c4 0 std::__ndk1::__function::__func<GameVersionPopup::init(IDRangeDelegate*, int, int, int)::$_1, std::__ndk1::allocator<GameVersionPopup::init(IDRangeDelegate*, int, int, int)::$_1>, void (int)>::~__func()
PUBLIC f24c8 0 std::__ndk1::__function::__func<GameVersionPopup::init(IDRangeDelegate*, int, int, int)::$_1, std::__ndk1::allocator<GameVersionPopup::init(IDRangeDelegate*, int, int, int)::$_1>, void (int)>::__clone() const
PUBLIC f24fc 0 std::__ndk1::__function::__func<GameVersionPopup::init(IDRangeDelegate*, int, int, int)::$_1, std::__ndk1::allocator<GameVersionPopup::init(IDRangeDelegate*, int, int, int)::$_1>, void (int)>::__clone(std::__ndk1::__function::__base<void (int)>*) const
PUBLIC f2510 0 std::__ndk1::__function::__func<GameVersionPopup::init(IDRangeDelegate*, int, int, int)::$_1, std::__ndk1::allocator<GameVersionPopup::init(IDRangeDelegate*, int, int, int)::$_1>, void (int)>::destroy()
PUBLIC f2514 0 std::__ndk1::__function::__func<GameVersionPopup::init(IDRangeDelegate*, int, int, int)::$_1, std::__ndk1::allocator<GameVersionPopup::init(IDRangeDelegate*, int, int, int)::$_1>, void (int)>::destroy_deallocate()
PUBLIC f2518 0 std::__ndk1::__function::__func<GameVersionPopup::init(IDRangeDelegate*, int, int, int)::$_1, std::__ndk1::allocator<GameVersionPopup::init(IDRangeDelegate*, int, int, int)::$_1>, void (int)>::operator()(int&&)
PUBLIC f2528 0 std::__ndk1::__function::__func<GameVersionPopup::init(IDRangeDelegate*, int, int, int)::$_1, std::__ndk1::allocator<GameVersionPopup::init(IDRangeDelegate*, int, int, int)::$_1>, void (int)>::target(std::type_info const&) const
PUBLIC f2544 0 std::__ndk1::__function::__func<GameVersionPopup::init(IDRangeDelegate*, int, int, int)::$_1, std::__ndk1::allocator<GameVersionPopup::init(IDRangeDelegate*, int, int, int)::$_1>, void (int)>::target_type() const
PUBLIC m f2550 0 IDRangePopup::create(IDRangeDelegate*, int, int, char const*, int, bool)
PUBLIC m f2668 0 IDRangePopup::init(IDRangeDelegate*, int, int, char const*, int, bool)
PUBLIC m f2e20 0 IDRangePopup::onClose(cocos2d::CCObject*)
PUBLIC m f2f18 0 IDRangePopup::minID()
PUBLIC m f2fa4 0 IDRangePopup::maxID()
PUBLIC f3030 0 IDRangePopup::~IDRangePopup()
PUBLIC f3054 0 {virtual override thunk({offset(-320)}, IDRangePopup::~IDRangePopup())}
PUBLIC f305c 0 {virtual override thunk({offset(-320)}, IDRangePopup::~IDRangePopup())}
PUBLIC m f3084 0 LevelCategorySearchAlert::create()
PUBLIC m f315c 0 LevelCategorySearchAlert::onClose(cocos2d::CCObject*)
PUBLIC m f3198 0 LevelCategorySearchAlert::onPlayed(cocos2d::CCObject*)
PUBLIC f33d4 0 std::__ndk1::deque<GJGameLevel*, std::__ndk1::allocator<GJGameLevel*> >::~deque[abi:ne190000]()
PUBLIC m f34a4 0 LevelCategorySearchAlert::onFavorites(cocos2d::CCObject*)
PUBLIC f372c 0 BISearchObject::BISearchObject(BISearchObject const&)
PUBLIC m f3870 0 LevelCategorySearchAlert::onFolder(cocos2d::CCObject*)
PUBLIC m f3928 0 LevelCategorySearchAlert::onCompleted(cocos2d::CCObject*)
PUBLIC m f3bb0 0 LevelCategorySearchAlert::onOrbs(cocos2d::CCObject*)
PUBLIC m f3e38 0 LevelCategorySearchAlert::onLeaderboard(cocos2d::CCObject*)
PUBLIC m f40c0 0 LevelCategorySearchAlert::onCoins(cocos2d::CCObject*)
PUBLIC m f434c 0 LevelCategorySearchAlert::onNoCoins(cocos2d::CCObject*)
PUBLIC m f45d4 0 LevelCategorySearchAlert::setIDPopupClosed(SetIDPopup*, int)
PUBLIC m f4854 0 {virtual override thunk({offset(-648)}, LevelCategorySearchAlert::setIDPopupClosed(SetIDPopup*, int))}
PUBLIC m f4858 0 LevelCategorySearchAlert::init()
PUBLIC m f5318 0 LevelCategorySearchAlert::createButton(cocos2d::CCNode*, char const*, void (cocos2d::CCObject::*)(cocos2d::CCObject*), float, float, int, float, float)
PUBLIC f5404 0 LevelCategorySearchAlert::~LevelCategorySearchAlert()
PUBLIC f5428 0 {virtual override thunk({offset(-320)}, LevelCategorySearchAlert::~LevelCategorySearchAlert())}
PUBLIC f5430 0 {virtual override thunk({offset(-320)}, LevelCategorySearchAlert::~LevelCategorySearchAlert())}
PUBLIC f5458 0 std::__ndk1::set<int, std::__ndk1::less<int>, std::__ndk1::allocator<int> >::insert[abi:ne190000]<std::__ndk1::__tree_const_iterator<int, std::__ndk1::__tree_node<int, void*>*, long> >(std::__ndk1::__tree_const_iterator<int, std::__ndk1::__tree_node<int, void*>*, long>, std::__ndk1::__tree_const_iterator<int, std::__ndk1::__tree_node<int, void*>*, long>)
PUBLIC f557c 0 std::__ndk1::__tree<int, std::__ndk1::less<int>, std::__ndk1::allocator<int> >::__find_equal<int>(std::__ndk1::__tree_const_iterator<int, std::__ndk1::__tree_node<int, void*>*, long>, std::__ndk1::__tree_end_node<std::__ndk1::__tree_node_base<void*>*>*&, std::__ndk1::__tree_node_base<void*>*&, int const&)
PUBLIC m f572c 0 LevelSearchViewLayer::create(std::__ndk1::deque<GJGameLevel*, std::__ndk1::allocator<GJGameLevel*> >, BISearchObject)
PUBLIC f5a0c 0 LevelSearchViewLayer::LevelSearchViewLayer()
PUBLIC m f5bec 0 LevelSearchViewLayer::create(GJSearchObject*, BISearchObject)
PUBLIC m f5d20 0 LevelSearchViewLayer::init(std::__ndk1::deque<GJGameLevel*, std::__ndk1::allocator<GJGameLevel*> >, BISearchObject)
PUBLIC m f5e98 0 LevelSearchViewLayer::init(GJSearchObject*, BISearchObject)
PUBLIC m f5f94 0 LevelSearchViewLayer::init(BISearchObject)
PUBLIC m f6340 0 LevelSearchViewLayer::onFilters(cocos2d::CCObject*)
PUBLIC m f6400 0 LevelSearchViewLayer::onInfo(cocos2d::CCObject*)
PUBLIC m f6404 0 LevelSearchViewLayer::reload()
PUBLIC m f648c 0 LevelSearchViewLayer::showInfoDialog()
PUBLIC m f65cc 0 LevelSearchViewLayer::unload()
PUBLIC m f6624 0 LevelSearchViewLayer::resetUnloadedLevels()
PUBLIC m f68c0 0 LevelSearchViewLayer::loadPage(bool)
PUBLIC m f69bc 0 LevelSearchViewLayer::startLoading()
PUBLIC m f6fcc 0 LevelSearchViewLayer::optimizeSearchObject()
PUBLIC m f70b0 0 LevelSearchViewLayer::setTextStatus(bool)
PUBLIC m f70b8 0 LevelSearchViewLayer::queueLoad(float)
PUBLIC m f7368 0 LevelSearchViewLayer::updateCounter()
PUBLIC m f747c 0 LevelSearchViewLayer::loadPage()
PUBLIC m f74a4 0 LevelSearchViewLayer::keyBackClicked()
PUBLIC m f7500 0 {virtual override thunk({offset(-336)}, LevelSearchViewLayer::keyBackClicked())}
PUBLIC m f7564 0 LevelSearchViewLayer::onBack(cocos2d::CCObject*)
PUBLIC m f7570 0 LevelSearchViewLayer::scene(std::__ndk1::deque<GJGameLevel*, std::__ndk1::allocator<GJGameLevel*> >, BISearchObject)
PUBLIC m f7808 0 LevelSearchViewLayer::scene(GJSearchObject*, BISearchObject)
PUBLIC m f78e4 0 LevelSearchViewLayer::loadLevelsFinished(cocos2d::CCArray*, char const*)
PUBLIC m f79a8 0 {virtual override thunk({offset(-608)}, LevelSearchViewLayer::loadLevelsFinished(cocos2d::CCArray*, char const*))}
PUBLIC m f79b0 0 LevelSearchViewLayer::loadLevelsFailed(char const*)
PUBLIC m f79f0 0 {virtual override thunk({offset(-608)}, LevelSearchViewLayer::loadLevelsFailed(char const*))}
PUBLIC m f7a38 0 LevelSearchViewLayer::onSearchObjectFinished(BISearchObject const&)
PUBLIC m f7b18 0 {virtual override thunk({offset(-616)}, LevelSearchViewLayer::onSearchObjectFinished(BISearchObject const&))}
PUBLIC m f7b20 0 LevelSearchViewLayer::resultsPerPage() const
PUBLIC m f7b28 0 LevelSearchViewLayer::onEnter()
PUBLIC m f7b54 0 LevelSearchViewLayer::onEnterTransitionDidFinish()
PUBLIC m f7b58 0 LevelSearchViewLayer::update(float)
PUBLIC f7d24 0 LevelSearchViewLayer::~LevelSearchViewLayer()
PUBLIC f7e00 0 LevelSearchViewLayer::~LevelSearchViewLayer()
PUBLIC f7e24 0 {virtual override thunk({offset(-320)}, LevelSearchViewLayer::~LevelSearchViewLayer())}
PUBLIC f7e2c 0 {virtual override thunk({offset(-320)}, LevelSearchViewLayer::~LevelSearchViewLayer())}
PUBLIC f7e54 0 std::__ndk1::__tree<int, std::__ndk1::less<int>, std::__ndk1::allocator<int> >::__assign_multi<std::__ndk1::__tree_const_iterator<int, std::__ndk1::__tree_node<int, void*>*, long> >(std::__ndk1::__tree_const_iterator<int, std::__ndk1::__tree_node<int, void*>*, long>, std::__ndk1::__tree_const_iterator<int, std::__ndk1::__tree_node<int, void*>*, long>)
PUBLIC f8180 0 std::__ndk1::deque<GJGameLevel*, std::__ndk1::allocator<GJGameLevel*> >::__append_with_size[abi:ne190000]<std::__ndk1::__deque_iterator<GJGameLevel*, GJGameLevel* const*, std::__ndk1::__deque_iterator&, GJGameLevel* const const*, long, (long)512> >(std::__ndk1::__deque_iterator<GJGameLevel*, GJGameLevel* const*, std::__ndk1::__deque_iterator&, GJGameLevel* const const*, long, (long)512>, unsigned long)
PUBLIC f8cdc 0 std::__ndk1::__split_buffer<GJGameLevel**, std::__ndk1::allocator<GJGameLevel**> >::push_back(GJGameLevel**&&)
PUBLIC f8e64 0 std::__ndk1::__split_buffer<GJGameLevel**, std::__ndk1::allocator<GJGameLevel**> >::push_front(GJGameLevel**&&)
PUBLIC f8ff0 0 std::__ndk1::deque<GJGameLevel*, std::__ndk1::allocator<GJGameLevel*> >::__assign_with_size_random_access[abi:ne190000]<std::__ndk1::__deque_iterator<GJGameLevel*, GJGameLevel* const*, std::__ndk1::__deque_iterator&, GJGameLevel* const const*, long, (long)512> >(std::__ndk1::__deque_iterator<GJGameLevel*, GJGameLevel* const*, std::__ndk1::__deque_iterator&, GJGameLevel* const const*, long, (long)512>, long)
PUBLIC f9280 0 std::__ndk1::__for_each_segment[abi:ne190000]<std::__ndk1::__deque_iterator<GJGameLevel*, GJGameLevel const*, GJGameLevel*&, GJGameLevel const const*, long, (long)512>, std::__ndk1::__copy_loop<std::__ndk1::_ClassicAlgPolicy>::_CopySegment<GJGameLevel const const*, std::__ndk1::__for_each_segment[abi:ne190000]<GJGameLevel, GJGameLevel*, GJGameLevel&, std::__ndk1::__copy_loop<std::__ndk1::_ClassicAlgPolicy>::_CopySegment*, long, (long)512> > >(std::__ndk1::__deque_iterator<GJGameLevel*, GJGameLevel const*, GJGameLevel*&, GJGameLevel const const*, long, (long)512>, std::__ndk1::__copy_loop<std::__ndk1::_ClassicAlgPolicy>::_CopySegment<GJGameLevel const const*, std::__ndk1::__for_each_segment[abi:ne190000]<GJGameLevel, GJGameLevel*, GJGameLevel&, std::__ndk1::__copy_loop<std::__ndk1::_ClassicAlgPolicy>::_CopySegment*, long, (long)512> >, std::__ndk1::__copy_loop<std::__ndk1::_ClassicAlgPolicy>::_CopySegment<GJGameLevel const const*, std::__ndk1::__for_each_segment[abi:ne190000]<GJGameLevel, GJGameLevel*, GJGameLevel&, std::__ndk1::__copy_loop<std::__ndk1::_ClassicAlgPolicy>::_CopySegment*, long, (long)512> >)
PUBLIC f9510 0 std::__ndk1::__function::__func<LevelSearchViewLayer::queueLoad(float)::$_0, std::__ndk1::allocator<LevelSearchViewLayer::queueLoad(float)::$_0>, void (std::__ndk1::shared_ptr<std::__ndk1::vector<geode::Ref<GJGameLevel>, std::__ndk1::allocator<geode::Ref<GJGameLevel> > > >, bool, bool)>::~__func()
PUBLIC f9530 0 std::__ndk1::__function::__func<LevelSearchViewLayer::queueLoad(float)::$_0, std::__ndk1::allocator<LevelSearchViewLayer::queueLoad(float)::$_0>, void (std::__ndk1::shared_ptr<std::__ndk1::vector<geode::Ref<GJGameLevel>, std::__ndk1::allocator<geode::Ref<GJGameLevel> > > >, bool, bool)>::~__func()
PUBLIC f9570 0 std::__ndk1::__function::__func<LevelSearchViewLayer::queueLoad(float)::$_0, std::__ndk1::allocator<LevelSearchViewLayer::queueLoad(float)::$_0>, void (std::__ndk1::shared_ptr<std::__ndk1::vector<geode::Ref<GJGameLevel>, std::__ndk1::allocator<geode::Ref<GJGameLevel> > > >, bool, bool)>::__clone() const
PUBLIC f95f8 0 std::__ndk1::__function::__func<LevelSearchViewLayer::queueLoad(float)::$_0, std::__ndk1::allocator<LevelSearchViewLayer::queueLoad(float)::$_0>, void (std::__ndk1::shared_ptr<std::__ndk1::vector<geode::Ref<GJGameLevel>, std::__ndk1::allocator<geode::Ref<GJGameLevel> > > >, bool, bool)>::__clone(std::__ndk1::__function::__base<void (std::__ndk1::shared_ptr<std::__ndk1::vector<geode::Ref<GJGameLevel>, std::__ndk1::allocator<geode::Ref<GJGameLevel> > > >, bool, bool)>*) const
PUBLIC f9638 0 std::__ndk1::__function::__func<LevelSearchViewLayer::queueLoad(float)::$_0, std::__ndk1::allocator<LevelSearchViewLayer::queueLoad(float)::$_0>, void (std::__ndk1::shared_ptr<std::__ndk1::vector<geode::Ref<GJGameLevel>, std::__ndk1::allocator<geode::Ref<GJGameLevel> > > >, bool, bool)>::destroy()
PUBLIC f964c 0 std::__ndk1::__function::__func<LevelSearchViewLayer::queueLoad(float)::$_0, std::__ndk1::allocator<LevelSearchViewLayer::queueLoad(float)::$_0>, void (std::__ndk1::shared_ptr<std::__ndk1::vector<geode::Ref<GJGameLevel>, std::__ndk1::allocator<geode::Ref<GJGameLevel> > > >, bool, bool)>::destroy_deallocate()
PUBLIC f9680 0 std::__ndk1::__function::__func<LevelSearchViewLayer::queueLoad(float)::$_0, std::__ndk1::allocator<LevelSearchViewLayer::queueLoad(float)::$_0>, void (std::__ndk1::shared_ptr<std::__ndk1::vector<geode::Ref<GJGameLevel>, std::__ndk1::allocator<geode::Ref<GJGameLevel> > > >, bool, bool)>::operator()(std::__ndk1::shared_ptr<std::__ndk1::vector<geode::Ref<GJGameLevel>, std::__ndk1::allocator<geode::Ref<GJGameLevel> > > >&&, bool&&, bool&&)
PUBLIC f9828 0 std::__ndk1::__function::__func<LevelSearchViewLayer::queueLoad(float)::$_0, std::__ndk1::allocator<LevelSearchViewLayer::queueLoad(float)::$_0>, void (std::__ndk1::shared_ptr<std::__ndk1::vector<geode::Ref<GJGameLevel>, std::__ndk1::allocator<geode::Ref<GJGameLevel> > > >, bool, bool)>::target(std::type_info const&) const
PUBLIC f9844 0 std::__ndk1::__function::__func<LevelSearchViewLayer::queueLoad(float)::$_0, std::__ndk1::allocator<LevelSearchViewLayer::queueLoad(float)::$_0>, void (std::__ndk1::shared_ptr<std::__ndk1::vector<geode::Ref<GJGameLevel>, std::__ndk1::allocator<geode::Ref<GJGameLevel> > > >, bool, bool)>::target_type() const
PUBLIC f9850 0 std::__ndk1::shared_ptr<std::__ndk1::vector<geode::Ref<GJGameLevel>, std::__ndk1::allocator<geode::Ref<GJGameLevel> > > >::~shared_ptr[abi:ne190000]()
PUBLIC f98a0 0 geode::Ref<GJGameLevel>::~Ref()
PUBLIC f98c0 0 std::__ndk1::deque<GJGameLevel*, std::__ndk1::allocator<GJGameLevel*> >::__add_back_capacity()
PUBLIC m f9e98 0 ProfileSearchOptions::create(LevelBrowserLayer*, std::__ndk1::basic_string<char, std::__ndk1::char_traits<char>, std::__ndk1::allocator<char> > const&, BISearchObjectDelegate*)
PUBLIC m f9ffc 0 ProfileSearchOptions::init(LevelBrowserLayer*, std::__ndk1::basic_string<char, std::__ndk1::char_traits<char>, std::__ndk1::allocator<char> > const&, BISearchObjectDelegate*)
PUBLIC m fa8ac 0 ProfileSearchOptions::onClose(cocos2d::CCObject*)
PUBLIC m fa99c 0 ProfileSearchOptions::getSearchObject()
PUBLIC m fbcbc 0 ProfileSearchOptions::reloadBrowser()
PUBLIC m fbdb0 0 ProfileSearchOptions::onPrev(cocos2d::CCObject*)
PUBLIC m fbdf8 0 ProfileSearchOptions::onSong(cocos2d::CCObject*)
PUBLIC m fbe18 0 ProfileSearchOptions::onIdRange(cocos2d::CCObject*)
PUBLIC m fbfa4 0 ProfileSearchOptions::onStarRange(cocos2d::CCObject*)
PUBLIC m fc128 0 ProfileSearchOptions::onPercentage(cocos2d::CCObject*)
PUBLIC m fc2ac 0 ProfileSearchOptions::onPercentageOrbs(cocos2d::CCObject*)
PUBLIC m fc430 0 ProfileSearchOptions::onPercentageLeaderboard(cocos2d::CCObject*)
PUBLIC m fc5ec 0 ProfileSearchOptions::onGameVersionRange(cocos2d::CCObject*)
PUBLIC m fc764 0 ProfileSearchOptions::onCoins(cocos2d::CCObject*)
PUBLIC m fc8e0 0 ProfileSearchOptions::onFolder(cocos2d::CCObject*)
PUBLIC m fc9f8 0 ProfileSearchOptions::onNext(cocos2d::CCObject*)
PUBLIC m fca38 0 ProfileSearchOptions::onSecondaryInfo(cocos2d::CCObject*)
PUBLIC m fcaec 0 ProfileSearchOptions::drawToggles()
PUBLIC m fcb6c 0 ProfileSearchOptions::drawTogglesPrimary()
PUBLIC m fd3ac 0 ProfileSearchOptions::drawTogglesSecondary()
PUBLIC m fd97c 0 ProfileSearchOptions::drawTogglesTerciary()
PUBLIC m fdc28 0 ProfileSearchOptions::onSongDialogClosed(bool, int)
PUBLIC m fdd48 0 {virtual override thunk({offset(-696)}, ProfileSearchOptions::onSongDialogClosed(bool, int))}
PUBLIC m fdd50 0 ProfileSearchOptions::onIDRangeFinished(int, int, int)
PUBLIC m fde9c 0 {virtual override thunk({offset(-704)}, ProfileSearchOptions::onIDRangeFinished(int, int, int))}
PUBLIC m fdea4 0 ProfileSearchOptions::setIDPopupClosed(SetIDPopup*, int)
PUBLIC m fdebc 0 {virtual override thunk({offset(-712)}, ProfileSearchOptions::setIDPopupClosed(SetIDPopup*, int))}
PUBLIC m fded8 0 ProfileSearchOptions::getOption(std::__ndk1::basic_string<char, std::__ndk1::char_traits<char>, std::__ndk1::allocator<char> > const&) const
PUBLIC m fe094 0 ProfileSearchOptions::getOptionInt(std::__ndk1::basic_string<char, std::__ndk1::char_traits<char>, std::__ndk1::allocator<char> > const&) const
PUBLIC m fe230 0 ProfileSearchOptions::toggleOption(std::__ndk1::basic_string<char, std::__ndk1::char_traits<char>, std::__ndk1::allocator<char> > const&)
PUBLIC m fe288 0 ProfileSearchOptions::setOption(std::__ndk1::basic_string<char, std::__ndk1::char_traits<char>, std::__ndk1::allocator<char> > const&, bool)
PUBLIC m fea20 0 ProfileSearchOptions::setOptionInt(std::__ndk1::basic_string<char, std::__ndk1::char_traits<char>, std::__ndk1::allocator<char> > const&, int)
PUBLIC m ff1b0 0 ProfileSearchOptions::setToRangeItem(BISearchObject::RangeItem&, std::__ndk1::basic_string<char, std::__ndk1::char_traits<char>, std::__ndk1::allocator<char> > const&) const
PUBLIC m ff37c 0 ProfileSearchOptions::setSearchObject(BISearchObject const&)
PUBLIC m 1003a0 0 ProfileSearchOptions::setFromRangeItem(std::__ndk1::basic_string<char, std::__ndk1::char_traits<char>, std::__ndk1::allocator<char> > const&, BISearchObject::RangeItem const&)
PUBLIC m 100500 0 ProfileSearchOptions::keyDown(cocos2d::enumKeyCodes)
PUBLIC m 1005c8 0 {virtual override thunk({offset(-344)}, ProfileSearchOptions::keyDown(cocos2d::enumKeyCodes))}
PUBLIC 100694 0 ProfileSearchOptions::~ProfileSearchOptions()
PUBLIC 100804 0 ProfileSearchOptions::~ProfileSearchOptions()
PUBLIC 100828 0 {virtual override thunk({offset(-320)}, ProfileSearchOptions::~ProfileSearchOptions())}
PUBLIC 100830 0 {virtual override thunk({offset(-320)}, ProfileSearchOptions::~ProfileSearchOptions())}
PUBLIC 100858 0 std::__ndk1::__hash_table<std::__ndk1::__hash_value_type<std::__ndk1::basic_string<char, std::__ndk1::char_traits<char>, std::__ndk1::allocator<char> >, bool>, std::__ndk1::__unordered_map_hasher<std::__ndk1::basic_string<char, std::__ndk1::char_traits<char>, std::__ndk1::allocator<char> >, std::__ndk1::__hash_value_type<std::__ndk1::basic_string<char, std::__ndk1::char_traits<char>, std::__ndk1::allocator<char> >, bool>, std::__ndk1::hash<std::__ndk1::basic_string<char, std::__ndk1::char_traits<char>, std::__ndk1::allocator<char> > >, std::__ndk1::equal_to<std::__ndk1::basic_string<char, std::__ndk1::char_traits<char>, std::__ndk1::allocator<char> > >, true>, std::__ndk1::__unordered_map_equal<std::__ndk1::basic_string<char, std::__ndk1::char_traits<char>, std::__ndk1::allocator<char> >, std::__ndk1::__hash_value_type<std::__ndk1::basic_string<char, std::__ndk1::char_traits<char>, std::__ndk1::allocator<char> >, bool>, std::__ndk1::equal_to<std::__ndk1::basic_string<char, std::__ndk1::char_traits<char>, std::__ndk1::allocator<char> > >, std::__ndk1::hash<std::__ndk1::basic_string<char, std::__ndk1::char_traits<char>, std::__ndk1::allocator<char> > >, true>, std::__ndk1::allocator<std::__ndk1::__hash_value_type<std::__ndk1::basic_string<char, std::__ndk1::char_traits<char>, std::__ndk1::allocator<char> >, bool> > >::find<std::__ndk1::basic_string<char, std::__ndk1::char_traits<char>, std::__ndk1::allocator<char> > >(std::__ndk1::basic_string<char, std::__ndk1::char_traits<char>, std::__ndk1::allocator<char> > const&) const
PUBLIC 100aac 0 std::__ndk1::__murmur2_or_cityhash<unsigned long, (unsigned long)64>::operator()[abi:ne190000](void const*, unsigned long) const
PUBLIC 100ef8 0 std::__ndk1::__hash_table<std::__ndk1::__hash_value_type<std::__ndk1::basic_string<char, std::__ndk1::char_traits<char>, std::__ndk1::allocator<char> >, int>, std::__ndk1::__unordered_map_hasher<std::__ndk1::basic_string<char, std::__ndk1::char_traits<char>, std::__ndk1::allocator<char> >, std::__ndk1::__hash_value_type<std::__ndk1::basic_string<char, std::__ndk1::char_traits<char>, std::__ndk1::allocator<char> >, int>, std::__ndk1::hash<std::__ndk1::basic_string<char, std::__ndk1::char_traits<char>, std::__ndk1::allocator<char> > >, std::__ndk1::equal_to<std::__ndk1::basic_string<char, std::__ndk1::char_traits<char>, std::__ndk1::allocator<char> > >, true>, std::__ndk1::__unordered_map_equal<std::__ndk1::basic_string<char, std::__ndk1::char_traits<char>, std::__ndk1::allocator<char> >, std::__ndk1::__hash_value_type<std::__ndk1::basic_string<char, std::__ndk1::char_traits<char>, std::__ndk1::allocator<char> >, int>, std::__ndk1::equal_to<std::__ndk1::basic_string<char, std::__ndk1::char_traits<char>, std::__ndk1::allocator<char> > >, std::__ndk1::hash<std::__ndk1::basic_string<char, std::__ndk1::char_traits<char>, std::__ndk1::allocator<char> > >, true>, std::__ndk1::allocator<std::__ndk1::__hash_value_type<std::__ndk1::basic_string<char, std::__ndk1::char_traits<char>, std::__ndk1::allocator<char> >, int> > >::find<std::__ndk1::basic_string<char, std::__ndk1::char_traits<char>, std::__ndk1::allocator<char> > >(std::__ndk1::basic_string<char, std::__ndk1::char_traits<char>, std::__ndk1::allocator<char> > const&) const
PUBLIC 10114c 0 std::__ndk1::unique_ptr<std::__ndk1::__hash_node<std::__ndk1::__hash_value_type<std::__ndk1::basic_string<char, std::__ndk1::char_traits<char>, std::__ndk1::allocator<char> >, bool>, void*>, std::__ndk1::__hash_node_destructor<std::__ndk1::allocator<std::__ndk1::__hash_node<std::__ndk1::__hash_value_type<std::__ndk1::basic_string<char, std::__ndk1::char_traits<char>, std::__ndk1::allocator<char> >, bool>, void*> > > >::~unique_ptr[abi:ne190000]()
PUBLIC 10119c 0 std::__ndk1::unique_ptr<std::__ndk1::__hash_node<std::__ndk1::__hash_value_type<std::__ndk1::basic_string<char, std::__ndk1::char_traits<char>, std::__ndk1::allocator<char> >, int>, void*>, std::__ndk1::__hash_node_destructor<std::__ndk1::allocator<std::__ndk1::__hash_node<std::__ndk1::__hash_value_type<std::__ndk1::basic_string<char, std::__ndk1::char_traits<char>, std::__ndk1::allocator<char> >, int>, void*> > > >::~unique_ptr[abi:ne190000]()
PUBLIC m 1011ec 0 ProfileSearchOptionsSongSelect::create(SongDialogCloseDelegate*)
PUBLIC m 101300 0 ProfileSearchOptionsSongSelect::init(SongDialogCloseDelegate*)
PUBLIC m 101730 0 ProfileSearchOptionsSongSelect::onClose(cocos2d::CCObject*)
PUBLIC m 10186c 0 ProfileSearchOptionsSongSelect::songID()
PUBLIC m 1018f8 0 ProfileSearchOptionsSongSelect::drawToggles()
PUBLIC m 101bcc 0 ProfileSearchOptionsSongSelect::onSaved(cocos2d::CCObject*)
PUBLIC m 101c38 0 ProfileSearchOptionsSongSelect::dropDownLayerWillClose(GJDropDownLayer*)
PUBLIC m 101d14 0 {virtual override thunk({offset(-696)}, ProfileSearchOptionsSongSelect::dropDownLayerWillClose(GJDropDownLayer*))}
PUBLIC 101d1c 0 ProfileSearchOptionsSongSelect::~ProfileSearchOptionsSongSelect()
PUBLIC 101d94 0 {virtual override thunk({offset(-320)}, ProfileSearchOptionsSongSelect::~ProfileSearchOptionsSongSelect())}
PUBLIC 101e08 0 {virtual override thunk({offset(-320)}, ProfileSearchOptionsSongSelect::~ProfileSearchOptionsSongSelect())}
PUBLIC m 101e84 0 LevelIDLayer::create()
PUBLIC m 101f54 0 LevelIDLayer::getNumber()
PUBLIC m 101fe0 0 LevelIDLayer::onLevelComments(cocos2d::CCObject*)
PUBLIC m 102134 0 LevelIDLayer::onAccountProfile(cocos2d::CCObject*)
PUBLIC m 102270 0 LevelIDLayer::init()
PUBLIC m 1027d4 0 LevelIDLayer::createTextLabel(std::__ndk1::basic_string<char, std::__ndk1::char_traits<char>, std::__ndk1::allocator<char> >, cocos2d::CCPoint const&, float, cocos2d::CCNode*, char const*)
PUBLIC 102860 0 LevelIDLayer::~LevelIDLayer()
PUBLIC 102884 0 {virtual override thunk({offset(-320)}, LevelIDLayer::~LevelIDLayer())}
PUBLIC 10288c 0 {virtual override thunk({offset(-320)}, LevelIDLayer::~LevelIDLayer())}
PUBLIC 1028b4 0 std::__ndk1::__function::__func<LevelIDLayer::onLevelComments(cocos2d::CCObject*)::$_0, std::__ndk1::allocator<LevelIDLayer::onLevelComments(cocos2d::CCObject*)::$_0>, void ()>::~__func()
PUBLIC 1028b8 0 std::__ndk1::__function::__func<LevelIDLayer::onLevelComments(cocos2d::CCObject*)::$_0, std::__ndk1::allocator<LevelIDLayer::onLevelComments(cocos2d::CCObject*)::$_0>, void ()>::__clone() const
PUBLIC 1028ec 0 std::__ndk1::__function::__func<LevelIDLayer::onLevelComments(cocos2d::CCObject*)::$_0, std::__ndk1::allocator<LevelIDLayer::onLevelComments(cocos2d::CCObject*)::$_0>, void ()>::__clone(std::__ndk1::__function::__base<void ()>*) const
PUBLIC 102900 0 std::__ndk1::__function::__func<LevelIDLayer::onLevelComments(cocos2d::CCObject*)::$_0, std::__ndk1::allocator<LevelIDLayer::onLevelComments(cocos2d::CCObject*)::$_0>, void ()>::destroy()
PUBLIC 102904 0 std::__ndk1::__function::__func<LevelIDLayer::onLevelComments(cocos2d::CCObject*)::$_0, std::__ndk1::allocator<LevelIDLayer::onLevelComments(cocos2d::CCObject*)::$_0>, void ()>::destroy_deallocate()
PUBLIC 102908 0 std::__ndk1::__function::__func<LevelIDLayer::onLevelComments(cocos2d::CCObject*)::$_0, std::__ndk1::allocator<LevelIDLayer::onLevelComments(cocos2d::CCObject*)::$_0>, void ()>::operator()()
PUBLIC 102930 0 std::__ndk1::__function::__func<LevelIDLayer::onLevelComments(cocos2d::CCObject*)::$_0, std::__ndk1::allocator<LevelIDLayer::onLevelComments(cocos2d::CCObject*)::$_0>, void ()>::target(std::type_info const&) const
PUBLIC 10294c 0 std::__ndk1::__function::__func<LevelIDLayer::onLevelComments(cocos2d::CCObject*)::$_0, std::__ndk1::allocator<LevelIDLayer::onLevelComments(cocos2d::CCObject*)::$_0>, void ()>::target_type() const
PUBLIC 102958 0 std::__ndk1::__function::__func<LevelIDLayer::onAccountProfile(cocos2d::CCObject*)::$_0, std::__ndk1::allocator<LevelIDLayer::onAccountProfile(cocos2d::CCObject*)::$_0>, void ()>::~__func()
PUBLIC 10295c 0 std::__ndk1::__function::__func<LevelIDLayer::onAccountProfile(cocos2d::CCObject*)::$_0, std::__ndk1::allocator<LevelIDLayer::onAccountProfile(cocos2d::CCObject*)::$_0>, void ()>::__clone() const
PUBLIC 102994 0 std::__ndk1::__function::__func<LevelIDLayer::onAccountProfile(cocos2d::CCObject*)::$_0, std::__ndk1::allocator<LevelIDLayer::onAccountProfile(cocos2d::CCObject*)::$_0>, void ()>::__clone(std::__ndk1::__function::__base<void ()>*) const
PUBLIC 1029ac 0 std::__ndk1::__function::__func<LevelIDLayer::onAccountProfile(cocos2d::CCObject*)::$_0, std::__ndk1::allocator<LevelIDLayer::onAccountProfile(cocos2d::CCObject*)::$_0>, void ()>::destroy()
PUBLIC 1029b0 0 std::__ndk1::__function::__func<LevelIDLayer::onAccountProfile(cocos2d::CCObject*)::$_0, std::__ndk1::allocator<LevelIDLayer::onAccountProfile(cocos2d::CCObject*)::$_0>, void ()>::destroy_deallocate()
PUBLIC 1029b4 0 std::__ndk1::__function::__func<LevelIDLayer::onAccountProfile(cocos2d::CCObject*)::$_0, std::__ndk1::allocator<LevelIDLayer::onAccountProfile(cocos2d::CCObject*)::$_0>, void ()>::operator()()
PUBLIC 1029d8 0 std::__ndk1::__function::__func<LevelIDLayer::onAccountProfile(cocos2d::CCObject*)::$_0, std::__ndk1::allocator<LevelIDLayer::onAccountProfile(cocos2d::CCObject*)::$_0>, void ()>::target(std::type_info const&) const
PUBLIC 1029f4 0 std::__ndk1::__function::__func<LevelIDLayer::onAccountProfile(cocos2d::CCObject*)::$_0, std::__ndk1::allocator<LevelIDLayer::onAccountProfile(cocos2d::CCObject*)::$_0>, void ()>::target_type() const
PUBLIC m 102a00 0 PaginatedFLAlert::create(std::__ndk1::basic_string<char, std::__ndk1::char_traits<char>, std::__ndk1::allocator<char> > const&, std::__ndk1::vector<std::__ndk1::basic_string<char, std::__ndk1::char_traits<char>, std::__ndk1::allocator<char> >, std::__ndk1::allocator<std::__ndk1::basic_string<char, std::__ndk1::char_traits<char>, std::__ndk1::allocator<char> > > > const&, cocos2d::CCNode*, unsigned long)
PUBLIC m 102ae4 0 PaginatedFLAlert::init(std::__ndk1::basic_string<char, std::__ndk1::char_traits<char>, std::__ndk1::allocator<char> > const&, std::__ndk1::vector<std::__ndk1::basic_string<char, std::__ndk1::char_traits<char>, std::__ndk1::allocator<char> >, std::__ndk1::allocator<std::__ndk1::basic_string<char, std::__ndk1::char_traits<char>, std::__ndk1::allocator<char> > > > const&, cocos2d::CCNode*, unsigned long)
PUBLIC m 1033b4 0 PaginatedFLAlert::onPrev(cocos2d::CCObject*)
PUBLIC m 1033c8 0 PaginatedFLAlert::onNext(cocos2d::CCObject*)
PUBLIC m 1033fc 0 PaginatedFLAlert::loadPage(unsigned long)
PUBLIC m 10364c 0 PaginatedFLAlert::keyDown(cocos2d::enumKeyCodes)
PUBLIC m 1036c0 0 {virtual override thunk({offset(-344)}, PaginatedFLAlert::keyDown(cocos2d::enumKeyCodes))}
PUBLIC 103738 0 PaginatedFLAlert::~PaginatedFLAlert()
PUBLIC 1037fc 0 PaginatedFLAlert::~PaginatedFLAlert()
PUBLIC 1038c8 0 {virtual override thunk({offset(-320)}, PaginatedFLAlert::~PaginatedFLAlert())}
PUBLIC 103990 0 {virtual override thunk({offset(-320)}, PaginatedFLAlert::~PaginatedFLAlert())}
PUBLIC 103a60 0 std::__ndk1::__exception_guard_exceptions<std::__ndk1::_AllocatorDestroyRangeReverse<std::__ndk1::allocator<std::__ndk1::basic_string<char, std::__ndk1::char_traits<char>, std::__ndk1::allocator<char> > >, std::__ndk1::basic_string<char, std::__ndk1::char_traits<char>, std::__ndk1::allocator<char> >*> >::~__exception_guard_exceptions[abi:ne190000]()
PUBLIC 103ac0 0 std::__ndk1::vector<std::__ndk1::basic_string<char, std::__ndk1::char_traits<char>, std::__ndk1::allocator<char> >, std::__ndk1::allocator<std::__ndk1::basic_string<char, std::__ndk1::char_traits<char>, std::__ndk1::allocator<char> > > >::__init_with_size[abi:ne190000]<std::__ndk1::basic_string<char, std::__ndk1::char_traits<char>, std::__ndk1::allocator<char> >*, std::__ndk1::vector<std::__ndk1::basic_string<char, std::__ndk1::char_traits<char>, std::__ndk1::allocator<char> >, std::__ndk1::allocator<std::__ndk1::basic_string<char, std::__ndk1::char_traits<char>, std::__ndk1::allocator<char> > > >::__init_with_size[abi:ne190000]>(std::__ndk1::basic_string<char, std::__ndk1::char_traits<char>, std::__ndk1::allocator<char> >*, std::__ndk1::vector<std::__ndk1::basic_string<char, std::__ndk1::char_traits<char>, std::__ndk1::allocator<char> >, std::__ndk1::allocator<std::__ndk1::basic_string<char, std::__ndk1::char_traits<char>, std::__ndk1::allocator<char> > > >::__init_with_size[abi:ne190000], unsigned long)
PUBLIC 103c2c 0 std::__ndk1::__exception_guard_exceptions<std::__ndk1::vector<std::__ndk1::basic_string<char, std::__ndk1::char_traits<char>, std::__ndk1::allocator<char> >, std::__ndk1::allocator<std::__ndk1::basic_string<char, std::__ndk1::char_traits<char>, std::__ndk1::allocator<char> > > >::__destroy_vector>::~__exception_guard_exceptions[abi:ne190000]()
PUBLIC m 103cb8 0 QuestHistoryCell::loadFromData(cocos2d::CCObject*)
PUBLIC m 10404c 0 QuestHistoryCell::updateBGColor(int)
PUBLIC m 1040dc 0 QuestHistoryCell::QuestHistoryCell(char const*, cocos2d::CCSize)
PUBLIC m 10415c 0 QuestHistoryCell::create(char const*, cocos2d::CCSize)
PUBLIC 104228 0 QuestHistoryCell::~QuestHistoryCell()
PUBLIC 10428c 0 {virtual override thunk({offset(-320)}, QuestHistoryCell::~QuestHistoryCell())}
PUBLIC 1042ec 0 {virtual override thunk({offset(-320)}, QuestHistoryCell::~QuestHistoryCell())}
PUBLIC m 104354 0 QuestHistoryObject::create(int, int)
PUBLIC m 1043c0 0 QuestHistoryObject::init(int, int)
PUBLIC 1043d4 0 QuestHistoryObject::~QuestHistoryObject()
PUBLIC 1043f8 0 cocos2d::CCObject::update(float)
PUBLIC m 1043fc 0 QuestHistoryPopup::create()
PUBLIC m 1044cc 0 QuestHistoryPopup::init()
PUBLIC m 104be0 0 QuestHistoryPopup::show()
PUBLIC 104be4 0 QuestHistoryPopup::~QuestHistoryPopup()
PUBLIC 104c08 0 {virtual override thunk({offset(-320)}, QuestHistoryPopup::~QuestHistoryPopup())}
PUBLIC 104c10 0 {virtual override thunk({offset(-320)}, QuestHistoryPopup::~QuestHistoryPopup())}
PUBLIC 104c38 0 std::__ndk1::__tree<std::__ndk1::__value_type<int, int>, std::__ndk1::__map_value_compare<int, std::__ndk1::__value_type<int, int>, std::__ndk1::less<int>, true>, std::__ndk1::allocator<std::__ndk1::__value_type<int, int> > >::destroy(std::__ndk1::__tree_node<std::__ndk1::__value_type<int, int>, void*>*)
PUBLIC 104c7c 0 __cxx_global_var_init
PUBLIC 104ce8 0 std::__ndk1::unordered_map<GJRewardItem const*, std::__ndk1::basic_string<char, std::__ndk1::char_traits<char>, std::__ndk1::allocator<char> >, std::__ndk1::hash<GJRewardItem const*>, std::__ndk1::equal_to<GJRewardItem const*>, std::__ndk1::allocator<std::__ndk1::pair<GJRewardItem const* const, std::__ndk1::basic_string<char, std::__ndk1::char_traits<char>, std::__ndk1::allocator<char> > > > >::~unordered_map[abi:ne190000]()
PUBLIC m 104d58 0 RewardCategoryCell::onView(cocos2d::CCObject*)
PUBLIC m 104dac 0 RewardCategoryCell::loadFromData(cocos2d::CCObject*)
PUBLIC m 1053ac 0 RewardCategoryCell::RewardCategoryCell(char const*, cocos2d::CCSize)
PUBLIC m 105430 0 RewardCategoryCell::create(char const*, cocos2d::CCSize)
PUBLIC 1054fc 0 __cxx_global_var_init.4
PUBLIC 105548 0 geode::modifier::ModifyBase<geode::modifier::ModifyDerive<BIGJRewardItem, GJRewardItem> >::~ModifyBase()
PUBLIC 105564 0 RewardCategoryCell::~RewardCategoryCell()
PUBLIC 1055fc 0 RewardCategoryCell::~RewardCategoryCell()
PUBLIC 10569c 0 {virtual override thunk({offset(-320)}, RewardCategoryCell::~RewardCategoryCell())}
PUBLIC 105738 0 {virtual override thunk({offset(-320)}, RewardCategoryCell::~RewardCategoryCell())}
PUBLIC 1057dc 0 geode::modifier::ModifyDerive<BIGJRewardItem, GJRewardItem>::apply()
PUBLIC 1057e0 0 geode::modifier::ModifyBase<geode::modifier::ModifyDerive<BIGJRewardItem, GJRewardItem> >::apply()
PUBLIC 1057e4 0 std::__ndk1::__tree<std::__ndk1::__value_type<SpecialRewardItem, int>, std::__ndk1::__map_value_compare<SpecialRewardItem, std::__ndk1::__value_type<SpecialRewardItem, int>, std::__ndk1::less<SpecialRewardItem>, true>, std::__ndk1::allocator<std::__ndk1::__value_type<SpecialRewardItem, int> > >::destroy(std::__ndk1::__tree_node<std::__ndk1::__value_type<SpecialRewardItem, int>, void*>*)
PUBLIC m 105828 0 RewardCategoryObject::create(std::__ndk1::basic_string_view<char, std::__ndk1::char_traits<char> >, std::__ndk1::basic_string_view<char, std::__ndk1::char_traits<char> >, cocos2d::CCDictionary*, std::__ndk1::function<bool (BIGJRewardItem*)>)
PUBLIC m 1059e8 0 RewardCategoryObject::init(std::__ndk1::basic_string_view<char, std::__ndk1::char_traits<char> >, std::__ndk1::basic_string_view<char, std::__ndk1::char_traits<char> >, cocos2d::CCDictionary*, std::__ndk1::function<bool (BIGJRewardItem*)>)
PUBLIC m 105c4c 0 RewardCategoryObject::filteredChests()
PUBLIC 105e80 0 geode::cocos::CCDictionaryExt<gd::string, BIGJRewardItem*, BIGJRewardItem>::~CCDictionaryExt()
PUBLIC m 105e9c 0 RewardCategoryObject::countSpecialItems()
PUBLIC 1062ac 0 RewardCategoryObject::~RewardCategoryObject()
PUBLIC 10635c 0 RewardCategoryObject::~RewardCategoryObject()
PUBLIC 106380 0 std::__ndk1::__hash_table<std::__ndk1::__hash_value_type<GJRewardItem const*, std::__ndk1::basic_string<char, std::__ndk1::char_traits<char>, std::__ndk1::allocator<char> > >, std::__ndk1::__unordered_map_hasher<GJRewardItem const*, std::__ndk1::__hash_value_type<GJRewardItem const*, std::__ndk1::basic_string<char, std::__ndk1::char_traits<char>, std::__ndk1::allocator<char> > >, std::__ndk1::hash<GJRewardItem const*>, std::__ndk1::equal_to<GJRewardItem const*>, true>, std::__ndk1::__unordered_map_equal<GJRewardItem const*, std::__ndk1::__hash_value_type<GJRewardItem const*, std::__ndk1::basic_string<char, std::__ndk1::char_traits<char>, std::__ndk1::allocator<char> > >, std::__ndk1::equal_to<GJRewardItem const*>, std::__ndk1::hash<GJRewardItem const*>, true>, std::__ndk1::allocator<std::__ndk1::__hash_value_type<GJRewardItem const*, std::__ndk1::basic_string<char, std::__ndk1::char_traits<char>, std::__ndk1::allocator<char> > > > >::__emplace_unique_key_args<GJRewardItem const*, std::__ndk1::piecewise_construct_t const&, std::__ndk1::tuple<GJRewardItem const*&&>, std::__ndk1::tuple<> >(GJRewardItem const* const&, std::__ndk1::piecewise_construct_t const&, std::__ndk1::tuple<GJRewardItem const*&&>, std::__ndk1::tuple<>)
PUBLIC 106730 0 std::__ndk1::unique_ptr<std::__ndk1::__hash_node<std::__ndk1::__hash_value_type<GJRewardItem const*, std::__ndk1::basic_string<char, std::__ndk1::char_traits<char>, std::__ndk1::allocator<char> > >, void*>, std::__ndk1::__hash_node_destructor<std::__ndk1::allocator<std::__ndk1::__hash_node<std::__ndk1::__hash_value_type<GJRewardItem const*, std::__ndk1::basic_string<char, std::__ndk1::char_traits<char>, std::__ndk1::allocator<char> > >, void*> > > >::~unique_ptr[abi:ne190000]()
PUBLIC 106780 0 std::__ndk1::__hash_table<std::__ndk1::__hash_value_type<GJRewardItem const*, std::__ndk1::basic_string<char, std::__ndk1::char_traits<char>, std::__ndk1::allocator<char> > >, std::__ndk1::__unordered_map_hasher<GJRewardItem const*, std::__ndk1::__hash_value_type<GJRewardItem const*, std::__ndk1::basic_string<char, std::__ndk1::char_traits<char>, std::__ndk1::allocator<char> > >, std::__ndk1::hash<GJRewardItem const*>, std::__ndk1::equal_to<GJRewardItem const*>, true>, std::__ndk1::__unordered_map_equal<GJRewardItem const*, std::__ndk1::__hash_value_type<GJRewardItem const*, std::__ndk1::basic_string<char, std::__ndk1::char_traits<char>, std::__ndk1::allocator<char> > >, std::__ndk1::equal_to<GJRewardItem const*>, std::__ndk1::hash<GJRewardItem const*>, true>, std::__ndk1::allocator<std::__ndk1::__hash_value_type<GJRewardItem const*, std::__ndk1::basic_string<char, std::__ndk1::char_traits<char>, std::__ndk1::allocator<char> > > > >::__do_rehash<true>(unsigned long)
PUBLIC m 10692c 0 RewardCell::getDisplayName()
PUBLIC 107954 0 std::__ndk1::basic_string<char, std::__ndk1::char_traits<char>, std::__ndk1::allocator<char> >::substr[abi:ne190000](unsigned long, unsigned long) const &
PUBLIC 107a38 0 BetterInfoCache::sharedState()
PUBLIC 107aa0 0 std::__ndk1::operator==[abi:ne190000]<std::__ndk1::allocator<char> >(std::__ndk1::basic_string<char, std::__ndk1::char_traits<char>, std::__ndk1::allocator<char> > const&, std::__ndk1::basic_string<char, std::__ndk1::char_traits<char>, std::__ndk1::allocator<char> > const)
PUBLIC 107b50 0 geode::cast::typeinfo_cast<GJGameLevel*, cocos2d::CCObject*>(cocos2d::CCObject*)
PUBLIC m 107b80 0 RewardCell::loadFromData(cocos2d::CCObject*)
PUBLIC m 108038 0 RewardCell::itemToSprite(SpecialRewardItem)
PUBLIC m 1080c0 0 RewardCell::onIcon(cocos2d::CCObject*)
PUBLIC m 10815c 0 RewardCell::RewardCell(char const*, cocos2d::CCSize)
PUBLIC m 1081dc 0 RewardCell::create(char const*, cocos2d::CCSize)
PUBLIC 1082a8 0 RewardCell::~RewardCell()
PUBLIC 10830c 0 {virtual override thunk({offset(-320)}, RewardCell::~RewardCell())}
PUBLIC 10836c 0 {virtual override thunk({offset(-320)}, RewardCell::~RewardCell())}
PUBLIC m 1083d4 0 RewardGroupLayer::create(char const*, cocos2d::CCDictionary*, std::__ndk1::vector<std::__ndk1::tuple<char const*, char const*, std::__ndk1::function<bool (BIGJRewardItem*)> >, std::__ndk1::allocator<std::__ndk1::tuple<char const*, char const*, std::__ndk1::function<bool (BIGJRewardItem*)> > > >)
PUBLIC 108630 0 std::__ndk1::vector<std::__ndk1::tuple<char const*, char const*, std::__ndk1::function<bool (BIGJRewardItem*)> >, std::__ndk1::allocator<std::__ndk1::tuple<char const*, char const*, std::__ndk1::function<bool (BIGJRewardItem*)> > > >::~vector[abi:ne190000]()
PUBLIC m 1086d4 0 RewardGroupLayer::init(char const*, cocos2d::CCDictionary*, std::__ndk1::vector<std::__ndk1::tuple<char const*, char const*, std::__ndk1::function<bool (BIGJRewardItem*)> >, std::__ndk1::allocator<std::__ndk1::tuple<char const*, char const*, std::__ndk1::function<bool (BIGJRewardItem*)> > > >)
PUBLIC m 108950 0 RewardGroupLayer::loadPage()
PUBLIC m 108998 0 RewardGroupLayer::scene(char const*, cocos2d::CCDictionary*, std::__ndk1::vector<std::__ndk1::tuple<char const*, char const*, std::__ndk1::function<bool (BIGJRewardItem*)> >, std::__ndk1::allocator<std::__ndk1::tuple<char const*, char const*, std::__ndk1::function<bool (BIGJRewardItem*)> > > >)
PUBLIC 108abc 0 RewardGroupLayer::~RewardGroupLayer()
PUBLIC 108ae0 0 {virtual override thunk({offset(-320)}, RewardGroupLayer::~RewardGroupLayer())}
PUBLIC 108ae8 0 {virtual override thunk({offset(-320)}, RewardGroupLayer::~RewardGroupLayer())}
PUBLIC 108b10 0 std::__ndk1::vector<std::__ndk1::tuple<char const*, char const*, std::__ndk1::function<bool (BIGJRewardItem*)> >, std::__ndk1::allocator<std::__ndk1::tuple<char const*, char const*, std::__ndk1::function<bool (BIGJRewardItem*)> > > >::__init_with_size[abi:ne190000]<std::__ndk1::tuple<char const*, char const*, std::__ndk1::function<bool (BIGJRewardItem*)> >*, std::__ndk1::vector<std::__ndk1::tuple<char const*, char const*, std::__ndk1::function<bool (BIGJRewardItem*)> >, std::__ndk1::allocator<std::__ndk1::tuple<char const*, char const*, std::__ndk1::function<bool (BIGJRewardItem*)> > > >::__init_with_size[abi:ne190000]>(std::__ndk1::tuple<char const*, char const*, std::__ndk1::function<bool (BIGJRewardItem*)> >*, std::__ndk1::vector<std::__ndk1::tuple<char const*, char const*, std::__ndk1::function<bool (BIGJRewardItem*)> >, std::__ndk1::allocator<std::__ndk1::tuple<char const*, char const*, std::__ndk1::function<bool (BIGJRewardItem*)> > > >::__init_with_size[abi:ne190000], unsigned long)
PUBLIC 108c88 0 std::__ndk1::__exception_guard_exceptions<std::__ndk1::vector<std::__ndk1::tuple<char const*, char const*, std::__ndk1::function<bool (BIGJRewardItem*)> >, std::__ndk1::allocator<std::__ndk1::tuple<char const*, char const*, std::__ndk1::function<bool (BIGJRewardItem*)> > > >::__destroy_vector>::~__exception_guard_exceptions[abi:ne190000]()
PUBLIC 108d3c 0 std::__ndk1::vector<std::__ndk1::tuple<char const*, char const*, std::__ndk1::function<bool (BIGJRewardItem*)> >, std::__ndk1::allocator<std::__ndk1::tuple<char const*, char const*, std::__ndk1::function<bool (BIGJRewardItem*)> > > >::__throw_length_error[abi:ne190000]() const
PUBLIC 108d50 0 std::__ndk1::__exception_guard_exceptions<std::__ndk1::_AllocatorDestroyRangeReverse<std::__ndk1::allocator<std::__ndk1::tuple<char const*, char const*, std::__ndk1::function<bool (BIGJRewardItem*)> > >, std::__ndk1::tuple<char const*, char const*, std::__ndk1::function<bool (BIGJRewardItem*)> >*> >::~__exception_guard_exceptions[abi:ne190000]()
PUBLIC m 108dc0 0 RewardTypeSelectLayer::create()
PUBLIC m 108e90 0 RewardTypeSelectLayer::onDaily(cocos2d::CCObject*)
PUBLIC 109160 0 std::__ndk1::vector<std::__ndk1::tuple<char const*, char const*, std::__ndk1::function<bool (BIGJRewardItem*)> >, std::__ndk1::allocator<std::__ndk1::tuple<char const*, char const*, std::__ndk1::function<bool (BIGJRewardItem*)> > > >::vector[abi:ne190000](std::initializer_list<std::__ndk1::tuple<char const*, char const*, std::__ndk1::function<bool (BIGJRewardItem*)> > >)
PUBLIC m 1092d4 0 RewardTypeSelectLayer::onTreasure(cocos2d::CCObject*)
PUBLIC m 1097fc 0 RewardTypeSelectLayer::onWeekly(cocos2d::CCObject*)
PUBLIC m 10983c 0 RewardTypeSelectLayer::onOther(cocos2d::CCObject*)
PUBLIC m 109cac 0 RewardTypeSelectLayer::init()
PUBLIC 109f30 0 RewardTypeSelectLayer::~RewardTypeSelectLayer()
PUBLIC 109f54 0 {virtual override thunk({offset(-320)}, RewardTypeSelectLayer::~RewardTypeSelectLayer())}
PUBLIC 109f5c 0 {virtual override thunk({offset(-320)}, RewardTypeSelectLayer::~RewardTypeSelectLayer())}
PUBLIC 109f84 0 std::__ndk1::__function::__func<RewardTypeSelectLayer::onDaily(cocos2d::CCObject*)::$_0, std::__ndk1::allocator<RewardTypeSelectLayer::onDaily(cocos2d::CCObject*)::$_0>, bool (BIGJRewardItem*)>::~__func()
PUBLIC 109f88 0 std::__ndk1::__function::__func<RewardTypeSelectLayer::onDaily(cocos2d::CCObject*)::$_0, std::__ndk1::allocator<RewardTypeSelectLayer::onDaily(cocos2d::CCObject*)::$_0>, bool (BIGJRewardItem*)>::__clone() const
PUBLIC 109fac 0 std::__ndk1::__function::__func<RewardTypeSelectLayer::onDaily(cocos2d::CCObject*)::$_0, std::__ndk1::allocator<RewardTypeSelectLayer::onDaily(cocos2d::CCObject*)::$_0>, bool (BIGJRewardItem*)>::__clone(std::__ndk1::__function::__base<bool (BIGJRewardItem*)>*) const
PUBLIC 109fbc 0 std::__ndk1::__function::__func<RewardTypeSelectLayer::onDaily(cocos2d::CCObject*)::$_0, std::__ndk1::allocator<RewardTypeSelectLayer::onDaily(cocos2d::CCObject*)::$_0>, bool (BIGJRewardItem*)>::destroy()
PUBLIC 109fc0 0 std::__ndk1::__function::__func<RewardTypeSelectLayer::onDaily(cocos2d::CCObject*)::$_0, std::__ndk1::allocator<RewardTypeSelectLayer::onDaily(cocos2d::CCObject*)::$_0>, bool (BIGJRewardItem*)>::destroy_deallocate()
PUBLIC 109fc4 0 std::__ndk1::__function::__func<RewardTypeSelectLayer::onDaily(cocos2d::CCObject*)::$_0, std::__ndk1::allocator<RewardTypeSelectLayer::onDaily(cocos2d::CCObject*)::$_0>, bool (BIGJRewardItem*)>::operator()(BIGJRewardItem*&&)
PUBLIC 109fd8 0 std::__ndk1::__function::__func<RewardTypeSelectLayer::onDaily(cocos2d::CCObject*)::$_0, std::__ndk1::allocator<RewardTypeSelectLayer::onDaily(cocos2d::CCObject*)::$_0>, bool (BIGJRewardItem*)>::target(std::type_info const&) const
PUBLIC 109ff4 0 std::__ndk1::__function::__func<RewardTypeSelectLayer::onDaily(cocos2d::CCObject*)::$_0, std::__ndk1::allocator<RewardTypeSelectLayer::onDaily(cocos2d::CCObject*)::$_0>, bool (BIGJRewardItem*)>::target_type() const
PUBLIC 10a000 0 std::__ndk1::__function::__func<RewardTypeSelectLayer::onDaily(cocos2d::CCObject*)::$_1, std::__ndk1::allocator<RewardTypeSelectLayer::onDaily(cocos2d::CCObject*)::$_1>, bool (BIGJRewardItem*)>::~__func()
PUBLIC 10a004 0 std::__ndk1::__function::__func<RewardTypeSelectLayer::onDaily(cocos2d::CCObject*)::$_1, std::__ndk1::allocator<RewardTypeSelectLayer::onDaily(cocos2d::CCObject*)::$_1>, bool (BIGJRewardItem*)>::__clone() const
PUBLIC 10a028 0 std::__ndk1::__function::__func<RewardTypeSelectLayer::onDaily(cocos2d::CCObject*)::$_1, std::__ndk1::allocator<RewardTypeSelectLayer::onDaily(cocos2d::CCObject*)::$_1>, bool (BIGJRewardItem*)>::__clone(std::__ndk1::__function::__base<bool (BIGJRewardItem*)>*) const
PUBLIC 10a038 0 std::__ndk1::__function::__func<RewardTypeSelectLayer::onDaily(cocos2d::CCObject*)::$_1, std::__ndk1::allocator<RewardTypeSelectLayer::onDaily(cocos2d::CCObject*)::$_1>, bool (BIGJRewardItem*)>::destroy()
PUBLIC 10a03c 0 std::__ndk1::__function::__func<RewardTypeSelectLayer::onDaily(cocos2d::CCObject*)::$_1, std::__ndk1::allocator<RewardTypeSelectLayer::onDaily(cocos2d::CCObject*)::$_1>, bool (BIGJRewardItem*)>::destroy_deallocate()
PUBLIC 10a040 0 std::__ndk1::__function::__func<RewardTypeSelectLayer::onDaily(cocos2d::CCObject*)::$_1, std::__ndk1::allocator<RewardTypeSelectLayer::onDaily(cocos2d::CCObject*)::$_1>, bool (BIGJRewardItem*)>::operator()(BIGJRewardItem*&&)
PUBLIC 10a054 0 std::__ndk1::__function::__func<RewardTypeSelectLayer::onDaily(cocos2d::CCObject*)::$_1, std::__ndk1::allocator<RewardTypeSelectLayer::onDaily(cocos2d::CCObject*)::$_1>, bool (BIGJRewardItem*)>::target(std::type_info const&) const
PUBLIC 10a070 0 std::__ndk1::__function::__func<RewardTypeSelectLayer::onDaily(cocos2d::CCObject*)::$_1, std::__ndk1::allocator<RewardTypeSelectLayer::onDaily(cocos2d::CCObject*)::$_1>, bool (BIGJRewardItem*)>::target_type() const
PUBLIC 10a07c 0 std::__ndk1::__function::__func<RewardTypeSelectLayer::onDaily(cocos2d::CCObject*)::$_2, std::__ndk1::allocator<RewardTypeSelectLayer::onDaily(cocos2d::CCObject*)::$_2>, bool (BIGJRewardItem*)>::~__func()
PUBLIC 10a080 0 std::__ndk1::__function::__func<RewardTypeSelectLayer::onDaily(cocos2d::CCObject*)::$_2, std::__ndk1::allocator<RewardTypeSelectLayer::onDaily(cocos2d::CCObject*)::$_2>, bool (BIGJRewardItem*)>::__clone() const
PUBLIC 10a0a4 0 std::__ndk1::__function::__func<RewardTypeSelectLayer::onDaily(cocos2d::CCObject*)::$_2, std::__ndk1::allocator<RewardTypeSelectLayer::onDaily(cocos2d::CCObject*)::$_2>, bool (BIGJRewardItem*)>::__clone(std::__ndk1::__function::__base<bool (BIGJRewardItem*)>*) const
PUBLIC 10a0b4 0 std::__ndk1::__function::__func<RewardTypeSelectLayer::onDaily(cocos2d::CCObject*)::$_2, std::__ndk1::allocator<RewardTypeSelectLayer::onDaily(cocos2d::CCObject*)::$_2>, bool (BIGJRewardItem*)>::destroy()
PUBLIC 10a0b8 0 std::__ndk1::__function::__func<RewardTypeSelectLayer::onDaily(cocos2d::CCObject*)::$_2, std::__ndk1::allocator<RewardTypeSelectLayer::onDaily(cocos2d::CCObject*)::$_2>, bool (BIGJRewardItem*)>::destroy_deallocate()
PUBLIC 10a0bc 0 std::__ndk1::__function::__func<RewardTypeSelectLayer::onDaily(cocos2d::CCObject*)::$_2, std::__ndk1::allocator<RewardTypeSelectLayer::onDaily(cocos2d::CCObject*)::$_2>, bool (BIGJRewardItem*)>::operator()(BIGJRewardItem*&&)
PUBLIC 10a0d4 0 std::__ndk1::__function::__func<RewardTypeSelectLayer::onDaily(cocos2d::CCObject*)::$_2, std::__ndk1::allocator<RewardTypeSelectLayer::onDaily(cocos2d::CCObject*)::$_2>, bool (BIGJRewardItem*)>::target(std::type_info const&) const
PUBLIC 10a0f0 0 std::__ndk1::__function::__func<RewardTypeSelectLayer::onDaily(cocos2d::CCObject*)::$_2, std::__ndk1::allocator<RewardTypeSelectLayer::onDaily(cocos2d::CCObject*)::$_2>, bool (BIGJRewardItem*)>::target_type() const
PUBLIC 10a0fc 0 std::__ndk1::__function::__func<RewardTypeSelectLayer::onTreasure(cocos2d::CCObject*)::$_0, std::__ndk1::allocator<RewardTypeSelectLayer::onTreasure(cocos2d::CCObject*)::$_0>, bool (BIGJRewardItem*)>::~__func()
PUBLIC 10a100 0 std::__ndk1::__function::__func<RewardTypeSelectLayer::onTreasure(cocos2d::CCObject*)::$_0, std::__ndk1::allocator<RewardTypeSelectLayer::onTreasure(cocos2d::CCObject*)::$_0>, bool (BIGJRewardItem*)>::__clone() const
PUBLIC 10a124 0 std::__ndk1::__function::__func<RewardTypeSelectLayer::onTreasure(cocos2d::CCObject*)::$_0, std::__ndk1::allocator<RewardTypeSelectLayer::onTreasure(cocos2d::CCObject*)::$_0>, bool (BIGJRewardItem*)>::__clone(std::__ndk1::__function::__base<bool (BIGJRewardItem*)>*) const
PUBLIC 10a134 0 std::__ndk1::__function::__func<RewardTypeSelectLayer::onTreasure(cocos2d::CCObject*)::$_0, std::__ndk1::allocator<RewardTypeSelectLayer::onTreasure(cocos2d::CCObject*)::$_0>, bool (BIGJRewardItem*)>::destroy()
PUBLIC 10a138 0 std::__ndk1::__function::__func<RewardTypeSelectLayer::onTreasure(cocos2d::CCObject*)::$_0, std::__ndk1::allocator<RewardTypeSelectLayer::onTreasure(cocos2d::CCObject*)::$_0>, bool (BIGJRewardItem*)>::destroy_deallocate()
PUBLIC 10a13c 0 std::__ndk1::__function::__func<RewardTypeSelectLayer::onTreasure(cocos2d::CCObject*)::$_0, std::__ndk1::allocator<RewardTypeSelectLayer::onTreasure(cocos2d::CCObject*)::$_0>, bool (BIGJRewardItem*)>::operator()(BIGJRewardItem*&&)
PUBLIC 10a15c 0 std::__ndk1::__function::__func<RewardTypeSelectLayer::onTreasure(cocos2d::CCObject*)::$_0, std::__ndk1::allocator<RewardTypeSelectLayer::onTreasure(cocos2d::CCObject*)::$_0>, bool (BIGJRewardItem*)>::target(std::type_info const&) const
PUBLIC 10a178 0 std::__ndk1::__function::__func<RewardTypeSelectLayer::onTreasure(cocos2d::CCObject*)::$_0, std::__ndk1::allocator<RewardTypeSelectLayer::onTreasure(cocos2d::CCObject*)::$_0>, bool (BIGJRewardItem*)>::target_type() const
PUBLIC 10a184 0 BIGJRewardItem::getKeyInt()
PUBLIC 10a284 0 std::__ndk1::__function::__func<RewardTypeSelectLayer::onTreasure(cocos2d::CCObject*)::$_1, std::__ndk1::allocator<RewardTypeSelectLayer::onTreasure(cocos2d::CCObject*)::$_1>, bool (BIGJRewardItem*)>::~__func()
PUBLIC 10a288 0 std::__ndk1::__function::__func<RewardTypeSelectLayer::onTreasure(cocos2d::CCObject*)::$_1, std::__ndk1::allocator<RewardTypeSelectLayer::onTreasure(cocos2d::CCObject*)::$_1>, bool (BIGJRewardItem*)>::__clone() const
PUBLIC 10a2ac 0 std::__ndk1::__function::__func<RewardTypeSelectLayer::onTreasure(cocos2d::CCObject*)::$_1, std::__ndk1::allocator<RewardTypeSelectLayer::onTreasure(cocos2d::CCObject*)::$_1>, bool (BIGJRewardItem*)>::__clone(std::__ndk1::__function::__base<bool (BIGJRewardItem*)>*) const
PUBLIC 10a2bc 0 std::__ndk1::__function::__func<RewardTypeSelectLayer::onTreasure(cocos2d::CCObject*)::$_1, std::__ndk1::allocator<RewardTypeSelectLayer::onTreasure(cocos2d::CCObject*)::$_1>, bool (BIGJRewardItem*)>::destroy()
PUBLIC 10a2c0 0 std::__ndk1::__function::__func<RewardTypeSelectLayer::onTreasure(cocos2d::CCObject*)::$_1, std::__ndk1::allocator<RewardTypeSelectLayer::onTreasure(cocos2d::CCObject*)::$_1>, bool (BIGJRewardItem*)>::destroy_deallocate()
PUBLIC 10a2c4 0 std::__ndk1::__function::__func<RewardTypeSelectLayer::onTreasure(cocos2d::CCObject*)::$_1, std::__ndk1::allocator<RewardTypeSelectLayer::onTreasure(cocos2d::CCObject*)::$_1>, bool (BIGJRewardItem*)>::operator()(BIGJRewardItem*&&)
PUBLIC 10a310 0 std::__ndk1::__function::__func<RewardTypeSelectLayer::onTreasure(cocos2d::CCObject*)::$_1, std::__ndk1::allocator<RewardTypeSelectLayer::onTreasure(cocos2d::CCObject*)::$_1>, bool (BIGJRewardItem*)>::target(std::type_info const&) const
PUBLIC 10a32c 0 std::__ndk1::__function::__func<RewardTypeSelectLayer::onTreasure(cocos2d::CCObject*)::$_1, std::__ndk1::allocator<RewardTypeSelectLayer::onTreasure(cocos2d::CCObject*)::$_1>, bool (BIGJRewardItem*)>::target_type() const
PUBLIC 10a338 0 std::__ndk1::__function::__func<RewardTypeSelectLayer::onTreasure(cocos2d::CCObject*)::$_2, std::__ndk1::allocator<RewardTypeSelectLayer::onTreasure(cocos2d::CCObject*)::$_2>, bool (BIGJRewardItem*)>::~__func()
PUBLIC 10a33c 0 std::__ndk1::__function::__func<RewardTypeSelectLayer::onTreasure(cocos2d::CCObject*)::$_2, std::__ndk1::allocator<RewardTypeSelectLayer::onTreasure(cocos2d::CCObject*)::$_2>, bool (BIGJRewardItem*)>::__clone() const
PUBLIC 10a360 0 std::__ndk1::__function::__func<RewardTypeSelectLayer::onTreasure(cocos2d::CCObject*)::$_2, std::__ndk1::allocator<RewardTypeSelectLayer::onTreasure(cocos2d::CCObject*)::$_2>, bool (BIGJRewardItem*)>::__clone(std::__ndk1::__function::__base<bool (BIGJRewardItem*)>*) const
PUBLIC 10a370 0 std::__ndk1::__function::__func<RewardTypeSelectLayer::onTreasure(cocos2d::CCObject*)::$_2, std::__ndk1::allocator<RewardTypeSelectLayer::onTreasure(cocos2d::CCObject*)::$_2>, bool (BIGJRewardItem*)>::destroy()
PUBLIC 10a374 0 std::__ndk1::__function::__func<RewardTypeSelectLayer::onTreasure(cocos2d::CCObject*)::$_2, std::__ndk1::allocator<RewardTypeSelectLayer::onTreasure(cocos2d::CCObject*)::$_2>, bool (BIGJRewardItem*)>::destroy_deallocate()
PUBLIC 10a378 0 std::__ndk1::__function::__func<RewardTypeSelectLayer::onTreasure(cocos2d::CCObject*)::$_2, std::__ndk1::allocator<RewardTypeSelectLayer::onTreasure(cocos2d::CCObject*)::$_2>, bool (BIGJRewardItem*)>::operator()(BIGJRewardItem*&&)
PUBLIC 10a3c4 0 std::__ndk1::__function::__func<RewardTypeSelectLayer::onTreasure(cocos2d::CCObject*)::$_2, std::__ndk1::allocator<RewardTypeSelectLayer::onTreasure(cocos2d::CCObject*)::$_2>, bool (BIGJRewardItem*)>::target(std::type_info const&) const
PUBLIC 10a3e0 0 std::__ndk1::__function::__func<RewardTypeSelectLayer::onTreasure(cocos2d::CCObject*)::$_2, std::__ndk1::allocator<RewardTypeSelectLayer::onTreasure(cocos2d::CCObject*)::$_2>, bool (BIGJRewardItem*)>::target_type() const
PUBLIC 10a3ec 0 std::__ndk1::__function::__func<RewardTypeSelectLayer::onTreasure(cocos2d::CCObject*)::$_3, std::__ndk1::allocator<RewardTypeSelectLayer::onTreasure(cocos2d::CCObject*)::$_3>, bool (BIGJRewardItem*)>::~__func()
PUBLIC 10a3f0 0 std::__ndk1::__function::__func<RewardTypeSelectLayer::onTreasure(cocos2d::CCObject*)::$_3, std::__ndk1::allocator<RewardTypeSelectLayer::onTreasure(cocos2d::CCObject*)::$_3>, bool (BIGJRewardItem*)>::__clone() const
PUBLIC 10a414 0 std::__ndk1::__function::__func<RewardTypeSelectLayer::onTreasure(cocos2d::CCObject*)::$_3, std::__ndk1::allocator<RewardTypeSelectLayer::onTreasure(cocos2d::CCObject*)::$_3>, bool (BIGJRewardItem*)>::__clone(std::__ndk1::__function::__base<bool (BIGJRewardItem*)>*) const
PUBLIC 10a424 0 std::__ndk1::__function::__func<RewardTypeSelectLayer::onTreasure(cocos2d::CCObject*)::$_3, std::__ndk1::allocator<RewardTypeSelectLayer::onTreasure(cocos2d::CCObject*)::$_3>, bool (BIGJRewardItem*)>::destroy()
PUBLIC 10a428 0 std::__ndk1::__function::__func<RewardTypeSelectLayer::onTreasure(cocos2d::CCObject*)::$_3, std::__ndk1::allocator<RewardTypeSelectLayer::onTreasure(cocos2d::CCObject*)::$_3>, bool (BIGJRewardItem*)>::destroy_deallocate()
PUBLIC 10a42c 0 std::__ndk1::__function::__func<RewardTypeSelectLayer::onTreasure(cocos2d::CCObject*)::$_3, std::__ndk1::allocator<RewardTypeSelectLayer::onTreasure(cocos2d::CCObject*)::$_3>, bool (BIGJRewardItem*)>::operator()(BIGJRewardItem*&&)
PUBLIC 10a478 0 std::__ndk1::__function::__func<RewardTypeSelectLayer::onTreasure(cocos2d::CCObject*)::$_3, std::__ndk1::allocator<RewardTypeSelectLayer::onTreasure(cocos2d::CCObject*)::$_3>, bool (BIGJRewardItem*)>::target(std::type_info const&) const
PUBLIC 10a494 0 std::__ndk1::__function::__func<RewardTypeSelectLayer::onTreasure(cocos2d::CCObject*)::$_3, std::__ndk1::allocator<RewardTypeSelectLayer::onTreasure(cocos2d::CCObject*)::$_3>, bool (BIGJRewardItem*)>::target_type() const
PUBLIC 10a4a0 0 std::__ndk1::__function::__func<RewardTypeSelectLayer::onTreasure(cocos2d::CCObject*)::$_4, std::__ndk1::allocator<RewardTypeSelectLayer::onTreasure(cocos2d::CCObject*)::$_4>, bool (BIGJRewardItem*)>::~__func()
PUBLIC 10a4a4 0 std::__ndk1::__function::__func<RewardTypeSelectLayer::onTreasure(cocos2d::CCObject*)::$_4, std::__ndk1::allocator<RewardTypeSelectLayer::onTreasure(cocos2d::CCObject*)::$_4>, bool (BIGJRewardItem*)>::__clone() const
PUBLIC 10a4c8 0 std::__ndk1::__function::__func<RewardTypeSelectLayer::onTreasure(cocos2d::CCObject*)::$_4, std::__ndk1::allocator<RewardTypeSelectLayer::onTreasure(cocos2d::CCObject*)::$_4>, bool (BIGJRewardItem*)>::__clone(std::__ndk1::__function::__base<bool (BIGJRewardItem*)>*) const
PUBLIC 10a4d8 0 std::__ndk1::__function::__func<RewardTypeSelectLayer::onTreasure(cocos2d::CCObject*)::$_4, std::__ndk1::allocator<RewardTypeSelectLayer::onTreasure(cocos2d::CCObject*)::$_4>, bool (BIGJRewardItem*)>::destroy()
PUBLIC 10a4dc 0 std::__ndk1::__function::__func<RewardTypeSelectLayer::onTreasure(cocos2d::CCObject*)::$_4, std::__ndk1::allocator<RewardTypeSelectLayer::onTreasure(cocos2d::CCObject*)::$_4>, bool (BIGJRewardItem*)>::destroy_deallocate()
PUBLIC 10a4e0 0 std::__ndk1::__function::__func<RewardTypeSelectLayer::onTreasure(cocos2d::CCObject*)::$_4, std::__ndk1::allocator<RewardTypeSelectLayer::onTreasure(cocos2d::CCObject*)::$_4>, bool (BIGJRewardItem*)>::operator()(BIGJRewardItem*&&)
PUBLIC 10a530 0 std::__ndk1::__function::__func<RewardTypeSelectLayer::onTreasure(cocos2d::CCObject*)::$_4, std::__ndk1::allocator<RewardTypeSelectLayer::onTreasure(cocos2d::CCObject*)::$_4>, bool (BIGJRewardItem*)>::target(std::type_info const&) const
PUBLIC 10a54c 0 std::__ndk1::__function::__func<RewardTypeSelectLayer::onTreasure(cocos2d::CCObject*)::$_4, std::__ndk1::allocator<RewardTypeSelectLayer::onTreasure(cocos2d::CCObject*)::$_4>, bool (BIGJRewardItem*)>::target_type() const
PUBLIC 10a558 0 std::__ndk1::__function::__func<RewardTypeSelectLayer::onTreasure(cocos2d::CCObject*)::$_5, std::__ndk1::allocator<RewardTypeSelectLayer::onTreasure(cocos2d::CCObject*)::$_5>, bool (BIGJRewardItem*)>::~__func()
PUBLIC 10a55c 0 std::__ndk1::__function::__func<RewardTypeSelectLayer::onTreasure(cocos2d::CCObject*)::$_5, std::__ndk1::allocator<RewardTypeSelectLayer::onTreasure(cocos2d::CCObject*)::$_5>, bool (BIGJRewardItem*)>::__clone() const
PUBLIC 10a580 0 std::__ndk1::__function::__func<RewardTypeSelectLayer::onTreasure(cocos2d::CCObject*)::$_5, std::__ndk1::allocator<RewardTypeSelectLayer::onTreasure(cocos2d::CCObject*)::$_5>, bool (BIGJRewardItem*)>::__clone(std::__ndk1::__function::__base<bool (BIGJRewardItem*)>*) const
PUBLIC 10a590 0 std::__ndk1::__function::__func<RewardTypeSelectLayer::onTreasure(cocos2d::CCObject*)::$_5, std::__ndk1::allocator<RewardTypeSelectLayer::onTreasure(cocos2d::CCObject*)::$_5>, bool (BIGJRewardItem*)>::destroy()
PUBLIC 10a594 0 std::__ndk1::__function::__func<RewardTypeSelectLayer::onTreasure(cocos2d::CCObject*)::$_5, std::__ndk1::allocator<RewardTypeSelectLayer::onTreasure(cocos2d::CCObject*)::$_5>, bool (BIGJRewardItem*)>::destroy_deallocate()
PUBLIC 10a598 0 std::__ndk1::__function::__func<RewardTypeSelectLayer::onTreasure(cocos2d::CCObject*)::$_5, std::__ndk1::allocator<RewardTypeSelectLayer::onTreasure(cocos2d::CCObject*)::$_5>, bool (BIGJRewardItem*)>::operator()(BIGJRewardItem*&&)
PUBLIC 10a5ec 0 std::__ndk1::__function::__func<RewardTypeSelectLayer::onTreasure(cocos2d::CCObject*)::$_5, std::__ndk1::allocator<RewardTypeSelectLayer::onTreasure(cocos2d::CCObject*)::$_5>, bool (BIGJRewardItem*)>::target(std::type_info const&) const
PUBLIC 10a608 0 std::__ndk1::__function::__func<RewardTypeSelectLayer::onTreasure(cocos2d::CCObject*)::$_5, std::__ndk1::allocator<RewardTypeSelectLayer::onTreasure(cocos2d::CCObject*)::$_5>, bool (BIGJRewardItem*)>::target_type() const
PUBLIC 10a614 0 std::__ndk1::__function::__func<RewardTypeSelectLayer::onTreasure(cocos2d::CCObject*)::$_6, std::__ndk1::allocator<RewardTypeSelectLayer::onTreasure(cocos2d::CCObject*)::$_6>, bool (BIGJRewardItem*)>::~__func()
PUBLIC 10a618 0 std::__ndk1::__function::__func<RewardTypeSelectLayer::onTreasure(cocos2d::CCObject*)::$_6, std::__ndk1::allocator<RewardTypeSelectLayer::onTreasure(cocos2d::CCObject*)::$_6>, bool (BIGJRewardItem*)>::__clone() const
PUBLIC 10a63c 0 std::__ndk1::__function::__func<RewardTypeSelectLayer::onTreasure(cocos2d::CCObject*)::$_6, std::__ndk1::allocator<RewardTypeSelectLayer::onTreasure(cocos2d::CCObject*)::$_6>, bool (BIGJRewardItem*)>::__clone(std::__ndk1::__function::__base<bool (BIGJRewardItem*)>*) const
PUBLIC 10a64c 0 std::__ndk1::__function::__func<RewardTypeSelectLayer::onTreasure(cocos2d::CCObject*)::$_6, std::__ndk1::allocator<RewardTypeSelectLayer::onTreasure(cocos2d::CCObject*)::$_6>, bool (BIGJRewardItem*)>::destroy()
PUBLIC 10a650 0 std::__ndk1::__function::__func<RewardTypeSelectLayer::onTreasure(cocos2d::CCObject*)::$_6, std::__ndk1::allocator<RewardTypeSelectLayer::onTreasure(cocos2d::CCObject*)::$_6>, bool (BIGJRewardItem*)>::destroy_deallocate()
PUBLIC 10a654 0 std::__ndk1::__function::__func<RewardTypeSelectLayer::onTreasure(cocos2d::CCObject*)::$_6, std::__ndk1::allocator<RewardTypeSelectLayer::onTreasure(cocos2d::CCObject*)::$_6>, bool (BIGJRewardItem*)>::operator()(BIGJRewardItem*&&)
PUBLIC 10a6a8 0 std::__ndk1::__function::__func<RewardTypeSelectLayer::onTreasure(cocos2d::CCObject*)::$_6, std::__ndk1::allocator<RewardTypeSelectLayer::onTreasure(cocos2d::CCObject*)::$_6>, bool (BIGJRewardItem*)>::target(std::type_info const&) const
PUBLIC 10a6c4 0 std::__ndk1::__function::__func<RewardTypeSelectLayer::onTreasure(cocos2d::CCObject*)::$_6, std::__ndk1::allocator<RewardTypeSelectLayer::onTreasure(cocos2d::CCObject*)::$_6>, bool (BIGJRewardItem*)>::target_type() const
PUBLIC 10a6d0 0 std::__ndk1::__function::__func<RewardTypeSelectLayer::onOther(cocos2d::CCObject*)::$_0, std::__ndk1::allocator<RewardTypeSelectLayer::onOther(cocos2d::CCObject*)::$_0>, bool (BIGJRewardItem*)>::~__func()
PUBLIC 10a6d4 0 std::__ndk1::__function::__func<RewardTypeSelectLayer::onOther(cocos2d::CCObject*)::$_0, std::__ndk1::allocator<RewardTypeSelectLayer::onOther(cocos2d::CCObject*)::$_0>, bool (BIGJRewardItem*)>::__clone() const
PUBLIC 10a6f8 0 std::__ndk1::__function::__func<RewardTypeSelectLayer::onOther(cocos2d::CCObject*)::$_0, std::__ndk1::allocator<RewardTypeSelectLayer::onOther(cocos2d::CCObject*)::$_0>, bool (BIGJRewardItem*)>::__clone(std::__ndk1::__function::__base<bool (BIGJRewardItem*)>*) const
PUBLIC 10a708 0 std::__ndk1::__function::__func<RewardTypeSelectLayer::onOther(cocos2d::CCObject*)::$_0, std::__ndk1::allocator<RewardTypeSelectLayer::onOther(cocos2d::CCObject*)::$_0>, bool (BIGJRewardItem*)>::destroy()
PUBLIC 10a70c 0 std::__ndk1::__function::__func<RewardTypeSelectLayer::onOther(cocos2d::CCObject*)::$_0, std::__ndk1::allocator<RewardTypeSelectLayer::onOther(cocos2d::CCObject*)::$_0>, bool (BIGJRewardItem*)>::destroy_deallocate()
PUBLIC 10a710 0 std::__ndk1::__function::__func<RewardTypeSelectLayer::onOther(cocos2d::CCObject*)::$_0, std::__ndk1::allocator<RewardTypeSelectLayer::onOther(cocos2d::CCObject*)::$_0>, bool (BIGJRewardItem*)>::operator()(BIGJRewardItem*&&)
PUBLIC 10a9cc 0 std::__ndk1::__function::__func<RewardTypeSelectLayer::onOther(cocos2d::CCObject*)::$_0, std::__ndk1::allocator<RewardTypeSelectLayer::onOther(cocos2d::CCObject*)::$_0>, bool (BIGJRewardItem*)>::target(std::type_info const&) const
PUBLIC 10a9e8 0 std::__ndk1::__function::__func<RewardTypeSelectLayer::onOther(cocos2d::CCObject*)::$_0, std::__ndk1::allocator<RewardTypeSelectLayer::onOther(cocos2d::CCObject*)::$_0>, bool (BIGJRewardItem*)>::target_type() const
PUBLIC 10a9f4 0 std::__ndk1::__function::__func<RewardTypeSelectLayer::onOther(cocos2d::CCObject*)::$_1, std::__ndk1::allocator<RewardTypeSelectLayer::onOther(cocos2d::CCObject*)::$_1>, bool (BIGJRewardItem*)>::~__func()
PUBLIC 10a9f8 0 std::__ndk1::__function::__func<RewardTypeSelectLayer::onOther(cocos2d::CCObject*)::$_1, std::__ndk1::allocator<RewardTypeSelectLayer::onOther(cocos2d::CCObject*)::$_1>, bool (BIGJRewardItem*)>::__clone() const
PUBLIC 10aa1c 0 std::__ndk1::__function::__func<RewardTypeSelectLayer::onOther(cocos2d::CCObject*)::$_1, std::__ndk1::allocator<RewardTypeSelectLayer::onOther(cocos2d::CCObject*)::$_1>, bool (BIGJRewardItem*)>::__clone(std::__ndk1::__function::__base<bool (BIGJRewardItem*)>*) const
PUBLIC 10aa2c 0 std::__ndk1::__function::__func<RewardTypeSelectLayer::onOther(cocos2d::CCObject*)::$_1, std::__ndk1::allocator<RewardTypeSelectLayer::onOther(cocos2d::CCObject*)::$_1>, bool (BIGJRewardItem*)>::destroy()
PUBLIC 10aa30 0 std::__ndk1::__function::__func<RewardTypeSelectLayer::onOther(cocos2d::CCObject*)::$_1, std::__ndk1::allocator<RewardTypeSelectLayer::onOther(cocos2d::CCObject*)::$_1>, bool (BIGJRewardItem*)>::destroy_deallocate()
PUBLIC 10aa34 0 std::__ndk1::__function::__func<RewardTypeSelectLayer::onOther(cocos2d::CCObject*)::$_1, std::__ndk1::allocator<RewardTypeSelectLayer::onOther(cocos2d::CCObject*)::$_1>, bool (BIGJRewardItem*)>::operator()(BIGJRewardItem*&&)
PUBLIC 10abcc 0 std::__ndk1::__function::__func<RewardTypeSelectLayer::onOther(cocos2d::CCObject*)::$_1, std::__ndk1::allocator<RewardTypeSelectLayer::onOther(cocos2d::CCObject*)::$_1>, bool (BIGJRewardItem*)>::target(std::type_info const&) const
PUBLIC 10abe8 0 std::__ndk1::__function::__func<RewardTypeSelectLayer::onOther(cocos2d::CCObject*)::$_1, std::__ndk1::allocator<RewardTypeSelectLayer::onOther(cocos2d::CCObject*)::$_1>, bool (BIGJRewardItem*)>::target_type() const
PUBLIC 10abf4 0 std::__ndk1::__function::__func<RewardTypeSelectLayer::onOther(cocos2d::CCObject*)::$_2, std::__ndk1::allocator<RewardTypeSelectLayer::onOther(cocos2d::CCObject*)::$_2>, bool (BIGJRewardItem*)>::~__func()
PUBLIC 10abf8 0 std::__ndk1::__function::__func<RewardTypeSelectLayer::onOther(cocos2d::CCObject*)::$_2, std::__ndk1::allocator<RewardTypeSelectLayer::onOther(cocos2d::CCObject*)::$_2>, bool (BIGJRewardItem*)>::__clone() const
PUBLIC 10ac1c 0 std::__ndk1::__function::__func<RewardTypeSelectLayer::onOther(cocos2d::CCObject*)::$_2, std::__ndk1::allocator<RewardTypeSelectLayer::onOther(cocos2d::CCObject*)::$_2>, bool (BIGJRewardItem*)>::__clone(std::__ndk1::__function::__base<bool (BIGJRewardItem*)>*) const
PUBLIC 10ac2c 0 std::__ndk1::__function::__func<RewardTypeSelectLayer::onOther(cocos2d::CCObject*)::$_2, std::__ndk1::allocator<RewardTypeSelectLayer::onOther(cocos2d::CCObject*)::$_2>, bool (BIGJRewardItem*)>::destroy()
PUBLIC 10ac30 0 std::__ndk1::__function::__func<RewardTypeSelectLayer::onOther(cocos2d::CCObject*)::$_2, std::__ndk1::allocator<RewardTypeSelectLayer::onOther(cocos2d::CCObject*)::$_2>, bool (BIGJRewardItem*)>::destroy_deallocate()
PUBLIC 10ac34 0 std::__ndk1::__function::__func<RewardTypeSelectLayer::onOther(cocos2d::CCObject*)::$_2, std::__ndk1::allocator<RewardTypeSelectLayer::onOther(cocos2d::CCObject*)::$_2>, bool (BIGJRewardItem*)>::operator()(BIGJRewardItem*&&)
PUBLIC 10adcc 0 std::__ndk1::__function::__func<RewardTypeSelectLayer::onOther(cocos2d::CCObject*)::$_2, std::__ndk1::allocator<RewardTypeSelectLayer::onOther(cocos2d::CCObject*)::$_2>, bool (BIGJRewardItem*)>::target(std::type_info const&) const
PUBLIC 10ade8 0 std::__ndk1::__function::__func<RewardTypeSelectLayer::onOther(cocos2d::CCObject*)::$_2, std::__ndk1::allocator<RewardTypeSelectLayer::onOther(cocos2d::CCObject*)::$_2>, bool (BIGJRewardItem*)>::target_type() const
PUBLIC 10adf4 0 std::__ndk1::__function::__func<RewardTypeSelectLayer::onOther(cocos2d::CCObject*)::$_3, std::__ndk1::allocator<RewardTypeSelectLayer::onOther(cocos2d::CCObject*)::$_3>, bool (BIGJRewardItem*)>::~__func()
PUBLIC 10adf8 0 std::__ndk1::__function::__func<RewardTypeSelectLayer::onOther(cocos2d::CCObject*)::$_3, std::__ndk1::allocator<RewardTypeSelectLayer::onOther(cocos2d::CCObject*)::$_3>, bool (BIGJRewardItem*)>::__clone() const
PUBLIC 10ae1c 0 std::__ndk1::__function::__func<RewardTypeSelectLayer::onOther(cocos2d::CCObject*)::$_3, std::__ndk1::allocator<RewardTypeSelectLayer::onOther(cocos2d::CCObject*)::$_3>, bool (BIGJRewardItem*)>::__clone(std::__ndk1::__function::__base<bool (BIGJRewardItem*)>*) const
PUBLIC 10ae2c 0 std::__ndk1::__function::__func<RewardTypeSelectLayer::onOther(cocos2d::CCObject*)::$_3, std::__ndk1::allocator<RewardTypeSelectLayer::onOther(cocos2d::CCObject*)::$_3>, bool (BIGJRewardItem*)>::destroy()
PUBLIC 10ae30 0 std::__ndk1::__function::__func<RewardTypeSelectLayer::onOther(cocos2d::CCObject*)::$_3, std::__ndk1::allocator<RewardTypeSelectLayer::onOther(cocos2d::CCObject*)::$_3>, bool (BIGJRewardItem*)>::destroy_deallocate()
PUBLIC 10ae34 0 std::__ndk1::__function::__func<RewardTypeSelectLayer::onOther(cocos2d::CCObject*)::$_3, std::__ndk1::allocator<RewardTypeSelectLayer::onOther(cocos2d::CCObject*)::$_3>, bool (BIGJRewardItem*)>::operator()(BIGJRewardItem*&&)
PUBLIC 10b0d4 0 std::__ndk1::__function::__func<RewardTypeSelectLayer::onOther(cocos2d::CCObject*)::$_3, std::__ndk1::allocator<RewardTypeSelectLayer::onOther(cocos2d::CCObject*)::$_3>, bool (BIGJRewardItem*)>::target(std::type_info const&) const
PUBLIC 10b0f0 0 std::__ndk1::__function::__func<RewardTypeSelectLayer::onOther(cocos2d::CCObject*)::$_3, std::__ndk1::allocator<RewardTypeSelectLayer::onOther(cocos2d::CCObject*)::$_3>, bool (BIGJRewardItem*)>::target_type() const
PUBLIC 10b0fc 0 std::__ndk1::__function::__func<RewardTypeSelectLayer::onOther(cocos2d::CCObject*)::$_4, std::__ndk1::allocator<RewardTypeSelectLayer::onOther(cocos2d::CCObject*)::$_4>, bool (BIGJRewardItem*)>::~__func()
PUBLIC 10b100 0 std::__ndk1::__function::__func<RewardTypeSelectLayer::onOther(cocos2d::CCObject*)::$_4, std::__ndk1::allocator<RewardTypeSelectLayer::onOther(cocos2d::CCObject*)::$_4>, bool (BIGJRewardItem*)>::__clone() const
PUBLIC 10b124 0 std::__ndk1::__function::__func<RewardTypeSelectLayer::onOther(cocos2d::CCObject*)::$_4, std::__ndk1::allocator<RewardTypeSelectLayer::onOther(cocos2d::CCObject*)::$_4>, bool (BIGJRewardItem*)>::__clone(std::__ndk1::__function::__base<bool (BIGJRewardItem*)>*) const
PUBLIC 10b134 0 std::__ndk1::__function::__func<RewardTypeSelectLayer::onOther(cocos2d::CCObject*)::$_4, std::__ndk1::allocator<RewardTypeSelectLayer::onOther(cocos2d::CCObject*)::$_4>, bool (BIGJRewardItem*)>::destroy()
PUBLIC 10b138 0 std::__ndk1::__function::__func<RewardTypeSelectLayer::onOther(cocos2d::CCObject*)::$_4, std::__ndk1::allocator<RewardTypeSelectLayer::onOther(cocos2d::CCObject*)::$_4>, bool (BIGJRewardItem*)>::destroy_deallocate()
PUBLIC 10b13c 0 std::__ndk1::__function::__func<RewardTypeSelectLayer::onOther(cocos2d::CCObject*)::$_4, std::__ndk1::allocator<RewardTypeSelectLayer::onOther(cocos2d::CCObject*)::$_4>, bool (BIGJRewardItem*)>::operator()(BIGJRewardItem*&&)
PUBLIC 10b2d4 0 std::__ndk1::__function::__func<RewardTypeSelectLayer::onOther(cocos2d::CCObject*)::$_4, std::__ndk1::allocator<RewardTypeSelectLayer::onOther(cocos2d::CCObject*)::$_4>, bool (BIGJRewardItem*)>::target(std::type_info const&) const
PUBLIC 10b2f0 0 std::__ndk1::__function::__func<RewardTypeSelectLayer::onOther(cocos2d::CCObject*)::$_4, std::__ndk1::allocator<RewardTypeSelectLayer::onOther(cocos2d::CCObject*)::$_4>, bool (BIGJRewardItem*)>::target_type() const
PUBLIC 10b2fc 0 std::__ndk1::__function::__base<bool (BIGJRewardItem*)>::~__base()
PUBLIC 10b300 0 std::__ndk1::__function::__func<RewardTypeSelectLayer::onOther(cocos2d::CCObject*)::$_5, std::__ndk1::allocator<RewardTypeSelectLayer::onOther(cocos2d::CCObject*)::$_5>, bool (BIGJRewardItem*)>::~__func()
PUBLIC 10b304 0 std::__ndk1::__function::__func<RewardTypeSelectLayer::onOther(cocos2d::CCObject*)::$_5, std::__ndk1::allocator<RewardTypeSelectLayer::onOther(cocos2d::CCObject*)::$_5>, bool (BIGJRewardItem*)>::__clone() const
PUBLIC 10b328 0 std::__ndk1::__function::__func<RewardTypeSelectLayer::onOther(cocos2d::CCObject*)::$_5, std::__ndk1::allocator<RewardTypeSelectLayer::onOther(cocos2d::CCObject*)::$_5>, bool (BIGJRewardItem*)>::__clone(std::__ndk1::__function::__base<bool (BIGJRewardItem*)>*) const
PUBLIC 10b338 0 std::__ndk1::__function::__func<RewardTypeSelectLayer::onOther(cocos2d::CCObject*)::$_5, std::__ndk1::allocator<RewardTypeSelectLayer::onOther(cocos2d::CCObject*)::$_5>, bool (BIGJRewardItem*)>::destroy()
PUBLIC 10b33c 0 std::__ndk1::__function::__func<RewardTypeSelectLayer::onOther(cocos2d::CCObject*)::$_5, std::__ndk1::allocator<RewardTypeSelectLayer::onOther(cocos2d::CCObject*)::$_5>, bool (BIGJRewardItem*)>::destroy_deallocate()
PUBLIC 10b340 0 std::__ndk1::__function::__func<RewardTypeSelectLayer::onOther(cocos2d::CCObject*)::$_5, std::__ndk1::allocator<RewardTypeSelectLayer::onOther(cocos2d::CCObject*)::$_5>, bool (BIGJRewardItem*)>::operator()(BIGJRewardItem*&&)
PUBLIC 10bba8 0 std::__ndk1::__function::__func<RewardTypeSelectLayer::onOther(cocos2d::CCObject*)::$_5, std::__ndk1::allocator<RewardTypeSelectLayer::onOther(cocos2d::CCObject*)::$_5>, bool (BIGJRewardItem*)>::target(std::type_info const&) const
PUBLIC 10bbc4 0 std::__ndk1::__function::__func<RewardTypeSelectLayer::onOther(cocos2d::CCObject*)::$_5, std::__ndk1::allocator<RewardTypeSelectLayer::onOther(cocos2d::CCObject*)::$_5>, bool (BIGJRewardItem*)>::target_type() const
PUBLIC m 10bbd0 0 RewardViewLayer::create(cocos2d::CCDictionary*, char const*)
PUBLIC m 10bd38 0 RewardViewLayer::compareRewards(void const*, void const*)
PUBLIC m 10bf3c 0 RewardViewLayer::init(cocos2d::CCDictionary*, char const*)
PUBLIC 10c2f0 0 geode::cocos::CCDictionaryExt<gd::string, GJRewardItem*, GJRewardItem>::~CCDictionaryExt()
PUBLIC m 10c30c 0 RewardViewLayer::loadPage()
PUBLIC m 10c354 0 RewardViewLayer::scene(cocos2d::CCDictionary*, char const*)
PUBLIC 10c390 0 RewardViewLayer::~RewardViewLayer()
PUBLIC 10c3b4 0 {virtual override thunk({offset(-320)}, RewardViewLayer::~RewardViewLayer())}
PUBLIC 10c3bc 0 {virtual override thunk({offset(-320)}, RewardViewLayer::~RewardViewLayer())}
PUBLIC 10c3e4 0 std::__ndk1::__hash_table<std::__ndk1::__hash_value_type<GJRewardItem const*, std::__ndk1::basic_string<char, std::__ndk1::char_traits<char>, std::__ndk1::allocator<char> > >, std::__ndk1::__unordered_map_hasher<GJRewardItem const*, std::__ndk1::__hash_value_type<GJRewardItem const*, std::__ndk1::basic_string<char, std::__ndk1::char_traits<char>, std::__ndk1::allocator<char> > >, std::__ndk1::hash<GJRewardItem const*>, std::__ndk1::equal_to<GJRewardItem const*>, true>, std::__ndk1::__unordered_map_equal<GJRewardItem const*, std::__ndk1::__hash_value_type<GJRewardItem const*, std::__ndk1::basic_string<char, std::__ndk1::char_traits<char>, std::__ndk1::allocator<char> > >, std::__ndk1::equal_to<GJRewardItem const*>, std::__ndk1::hash<GJRewardItem const*>, true>, std::__ndk1::allocator<std::__ndk1::__hash_value_type<GJRewardItem const*, std::__ndk1::basic_string<char, std::__ndk1::char_traits<char>, std::__ndk1::allocator<char> > > > >::find<GJRewardItem const*>(GJRewardItem const* const&) const
PUBLIC 10c4fc 0 std::__ndk1::__hash_table<std::__ndk1::__hash_value_type<GJRewardItem const*, std::__ndk1::basic_string<char, std::__ndk1::char_traits<char>, std::__ndk1::allocator<char> > >, std::__ndk1::__unordered_map_hasher<GJRewardItem const*, std::__ndk1::__hash_value_type<GJRewardItem const*, std::__ndk1::basic_string<char, std::__ndk1::char_traits<char>, std::__ndk1::allocator<char> > >, std::__ndk1::hash<GJRewardItem const*>, std::__ndk1::equal_to<GJRewardItem const*>, true>, std::__ndk1::__unordered_map_equal<GJRewardItem const*, std::__ndk1::__hash_value_type<GJRewardItem const*, std::__ndk1::basic_string<char, std::__ndk1::char_traits<char>, std::__ndk1::allocator<char> > >, std::__ndk1::equal_to<GJRewardItem const*>, std::__ndk1::hash<GJRewardItem const*>, true>, std::__ndk1::allocator<std::__ndk1::__hash_value_type<GJRewardItem const*, std::__ndk1::basic_string<char, std::__ndk1::char_traits<char>, std::__ndk1::allocator<char> > > > >::find<GJRewardItem const*>(GJRewardItem const* const&)
PUBLIC m 10c614 0 UnregisteredProfileLayer::create(GJUserScore*, cocos2d::CCNode*)
PUBLIC m 10c70c 0 UnregisteredProfileLayer::init(GJUserScore*, cocos2d::CCNode*)
PUBLIC m 10cd80 0 UnregisteredProfileLayer::onClose(cocos2d::CCObject*)
PUBLIC m 10cd84 0 UnregisteredProfileLayer::onCopyUserID(cocos2d::CCObject*)
PUBLIC m 10ce38 0 UnregisteredProfileLayer::onCopyPlayerName(cocos2d::CCObject*)
PUBLIC m 10ce64 0 UnregisteredProfileLayer::displayProfile(int, gd::string, cocos2d::CCNode*)
PUBLIC m 10cf7c 0 UnregisteredProfileLayer::doSearch(int)
PUBLIC m 10d054 0 UnregisteredProfileLayer::onMyLevels(cocos2d::CCObject*)
PUBLIC m 10d060 0 UnregisteredProfileLayer::onCommentHistory(cocos2d::CCObject*)
PUBLIC 10d0b8 0 UnregisteredProfileLayer::~UnregisteredProfileLayer()
PUBLIC 10d138 0 UnregisteredProfileLayer::~UnregisteredProfileLayer()
PUBLIC 10d1c0 0 {virtual override thunk({offset(-320)}, UnregisteredProfileLayer::~UnregisteredProfileLayer())}
PUBLIC 10d244 0 {virtual override thunk({offset(-320)}, UnregisteredProfileLayer::~UnregisteredProfileLayer())}
PUBLIC m 10d2d0 0 BIBaseLayer::create(bool, bool, bool, bool)
PUBLIC m 10d3fc 0 BIBaseLayer::init(bool, bool, bool, bool)
PUBLIC m 10dab8 0 BIBaseLayer::onBack(cocos2d::CCObject*)
PUBLIC m 10dac4 0 BIBaseLayer::setCorners(bool, bool, bool, bool)
PUBLIC m 10db3c 0 BIBaseLayer::keyBackClicked()
PUBLIC m 10db58 0 {virtual override thunk({offset(-336)}, BIBaseLayer::keyBackClicked())}
PUBLIC m 10db74 0 BIBaseLayer::scene(bool, bool, bool, bool)
PUBLIC m 10dca4 0 BIBaseLayer::onEnterTransitionDidFinish()
PUBLIC 10e10c 0 geode::Ref<FLAlertLayer>::~Ref()
PUBLIC 10e128 0 std::__ndk1::vector<geode::Ref<FLAlertLayer>, std::__ndk1::allocator<geode::Ref<FLAlertLayer> > >::~vector[abi:ne190000]()
PUBLIC 10e1ac 0 BIBaseLayer::~BIBaseLayer()
PUBLIC 10e1d0 0 {virtual override thunk({offset(-320)}, BIBaseLayer::~BIBaseLayer())}
PUBLIC 10e1d8 0 {virtual override thunk({offset(-320)}, BIBaseLayer::~BIBaseLayer())}
PUBLIC 10e200 0 std::__ndk1::vector<geode::Ref<FLAlertLayer>, std::__ndk1::allocator<geode::Ref<FLAlertLayer> > >::__throw_length_error[abi:ne190000]() const
PUBLIC m 10e214 0 BIViewLayer::create(bool)
PUBLIC m 10e334 0 BIViewLayer::init(bool)
PUBLIC m 10ec54 0 BIViewLayer::onPrev(cocos2d::CCObject*)
PUBLIC m 10ec6c 0 BIViewLayer::onNext(cocos2d::CCObject*)
PUBLIC m 10ec84 0 BIViewLayer::onJumpToPageLayer(cocos2d::CCObject*)
PUBLIC m 10eca4 0 BIViewLayer::onRandom(cocos2d::CCObject*)
PUBLIC m 10ecf8 0 BIViewLayer::onFirst(cocos2d::CCObject*)
PUBLIC m 10ed08 0 BIViewLayer::onLast(cocos2d::CCObject*)
PUBLIC m 10ed50 0 BIViewLayer::loadPage()
PUBLIC m 10ef88 0 BIViewLayer::updateCounter()
PUBLIC m 10f12c 0 BIViewLayer::loadPage(unsigned int)
PUBLIC m 10f13c 0 {virtual override thunk({offset(-440)}, BIViewLayer::loadPage(unsigned int))}
PUBLIC m 10f154 0 BIViewLayer::keyBackClicked()
PUBLIC m 10f1b0 0 {virtual override thunk({offset(-336)}, BIViewLayer::keyBackClicked())}
PUBLIC m 10f214 0 BIViewLayer::trimData()
PUBLIC m 10f2b4 0 BIViewLayer::onBack(cocos2d::CCObject*)
PUBLIC m 10f2c0 0 BIViewLayer::scene(bool)
PUBLIC m 10f2fc 0 BIViewLayer::getPage() const
PUBLIC m 10f304 0 {virtual override thunk({offset(-440)}, BIViewLayer::getPage() const)}
PUBLIC m 10f30c 0 BIViewLayer::resultsPerPage() const
PUBLIC m 10f34c 0 BIViewLayer::keyDown(cocos2d::enumKeyCodes)
PUBLIC m 10f414 0 {virtual override thunk({offset(-344)}, BIViewLayer::keyDown(cocos2d::enumKeyCodes))}
PUBLIC m 10f4c8 0 BIViewLayer::setData(cocos2d::CCArray*)
PUBLIC m 10f50c 0 BIViewLayer::showCircle()
PUBLIC m 10f624 0 BIViewLayer::hideCircle()
PUBLIC 10f65c 0 BIViewLayer::~BIViewLayer()
PUBLIC 10f680 0 {virtual override thunk({offset(-320)}, BIViewLayer::~BIViewLayer())}
PUBLIC 10f688 0 {virtual override thunk({offset(-320)}, BIViewLayer::~BIViewLayer())}
PUBLIC m 10f6b0 0 CvoltonAlertLayerStub::init(cocos2d::CCPoint, float, unsigned char, int)
PUBLIC m 10fa70 0 CvoltonAlertLayerStub::createButton(char const*, cocos2d::CCPoint, void (cocos2d::CCObject::*)(cocos2d::CCObject*), float, float)
PUBLIC m 10fb28 0 CvoltonAlertLayerStub::onCloseThunk(cocos2d::CCObject*)
PUBLIC m 10fb34 0 CvoltonAlertLayerStub::createTitle(std::__ndk1::basic_string<char, std::__ndk1::char_traits<char>, std::__ndk1::allocator<char> >, float, float)
PUBLIC m 10fd54 0 CvoltonAlertLayerStub::keyBackClicked()
PUBLIC m 10fd64 0 {virtual override thunk({offset(-336)}, CvoltonAlertLayerStub::keyBackClicked())}
PUBLIC m 10fd78 0 CvoltonAlertLayerStub::onClose(cocos2d::CCObject*)
PUBLIC m 10fdb4 0 CvoltonAlertLayerStub::registerWithTouchDispatcher()
PUBLIC 10fdec 0 CvoltonAlertLayerStub::~CvoltonAlertLayerStub()
PUBLIC 10fe10 0 {virtual override thunk({offset(-320)}, CvoltonAlertLayerStub::~CvoltonAlertLayerStub())}
PUBLIC 10fe18 0 {virtual override thunk({offset(-320)}, CvoltonAlertLayerStub::~CvoltonAlertLayerStub())}
PUBLIC m 10fe40 0 CvoltonListView<DailyCell>::init(cocos2d::CCArray*, float, float, float)
PUBLIC m 10fe7c 0 CvoltonListView<DailyCell>::~CvoltonListView()
PUBLIC m 10fee4 0 {virtual override thunk({offset(-320)}, CvoltonListView<DailyCell>::~CvoltonListView())}
PUBLIC m 10feec 0 CvoltonListView<DailyCell>::~CvoltonListView()
PUBLIC m 10ff10 0 {virtual override thunk({offset(-320)}, CvoltonListView<DailyCell>::~CvoltonListView())}
PUBLIC m 10ff38 0 CvoltonListView<DailyCell>::setupList(float)
PUBLIC m 110020 0 CvoltonListView<DailyCell>::getListCell(char const*)
PUBLIC m 1100b8 0 CvoltonListView<DailyCell>::loadCell(TableViewCell*, int)
PUBLIC m 1100f8 0 CvoltonListView<DailyCell>::create(cocos2d::CCArray*, float, float, float)
PUBLIC m 110234 0 CvoltonListView<RewardCell>::init(cocos2d::CCArray*, float, float, float)
PUBLIC m 110270 0 CvoltonListView<RewardCell>::~CvoltonListView()
PUBLIC m 1102d8 0 {virtual override thunk({offset(-320)}, CvoltonListView<RewardCell>::~CvoltonListView())}
PUBLIC m 1102e0 0 CvoltonListView<RewardCell>::~CvoltonListView()
PUBLIC m 110304 0 {virtual override thunk({offset(-320)}, CvoltonListView<RewardCell>::~CvoltonListView())}
PUBLIC m 11032c 0 CvoltonListView<RewardCell>::setupList(float)
PUBLIC m 110414 0 CvoltonListView<RewardCell>::getListCell(char const*)
PUBLIC m 1104ac 0 CvoltonListView<RewardCell>::loadCell(TableViewCell*, int)
PUBLIC m 1104ec 0 CvoltonListView<RewardCell>::create(cocos2d::CCArray*, float, float, float)
PUBLIC m 110628 0 CvoltonListView<RewardCategoryCell>::init(cocos2d::CCArray*, float, float, float)
PUBLIC m 110664 0 CvoltonListView<RewardCategoryCell>::~CvoltonListView()
PUBLIC m 1106cc 0 {virtual override thunk({offset(-320)}, CvoltonListView<RewardCategoryCell>::~CvoltonListView())}
PUBLIC m 1106d4 0 CvoltonListView<RewardCategoryCell>::~CvoltonListView()
PUBLIC m 1106f8 0 {virtual override thunk({offset(-320)}, CvoltonListView<RewardCategoryCell>::~CvoltonListView())}
PUBLIC m 110720 0 CvoltonListView<RewardCategoryCell>::setupList(float)
PUBLIC m 110808 0 CvoltonListView<RewardCategoryCell>::getListCell(char const*)
PUBLIC m 1108a0 0 CvoltonListView<RewardCategoryCell>::loadCell(TableViewCell*, int)
PUBLIC m 1108e0 0 CvoltonListView<RewardCategoryCell>::create(cocos2d::CCArray*, float, float, float)
PUBLIC m 110a1c 0 CvoltonListView<QuestHistoryCell>::init(cocos2d::CCArray*, float, float, float)
PUBLIC m 110a58 0 CvoltonListView<QuestHistoryCell>::~CvoltonListView()
PUBLIC m 110ac0 0 {virtual override thunk({offset(-320)}, CvoltonListView<QuestHistoryCell>::~CvoltonListView())}
PUBLIC m 110ac8 0 CvoltonListView<QuestHistoryCell>::~CvoltonListView()
PUBLIC m 110aec 0 {virtual override thunk({offset(-320)}, CvoltonListView<QuestHistoryCell>::~CvoltonListView())}
PUBLIC m 110b14 0 CvoltonListView<QuestHistoryCell>::setupList(float)
PUBLIC m 110bfc 0 CvoltonListView<QuestHistoryCell>::getListCell(char const*)
PUBLIC m 110c94 0 CvoltonListView<QuestHistoryCell>::loadCell(TableViewCell*, int)
PUBLIC m 110cd4 0 CvoltonListView<QuestHistoryCell>::create(cocos2d::CCArray*, float, float, float)
PUBLIC m 110e10 0 CvoltonOptionsLayer::create()
PUBLIC m 110f08 0 CvoltonOptionsLayer::onClose(cocos2d::CCObject*)
PUBLIC m 110f3c 0 CvoltonOptionsLayer::init()
PUBLIC m 1110cc 0 CvoltonOptionsLayer::createTextLabel(std::__ndk1::basic_string<char, std::__ndk1::char_traits<char>, std::__ndk1::allocator<char> >, cocos2d::CCPoint const&, float, cocos2d::CCNode*, char const*)
PUBLIC m 111158 0 CvoltonOptionsLayer::onToggle(cocos2d::CCObject*)
PUBLIC m 1112c0 0 CvoltonOptionsLayer::createToggle(char const*, char const*, void (cocos2d::CCObject::*)(cocos2d::CCObject*), cocos2d::CCNode*)
PUBLIC m 111350 0 CvoltonOptionsLayer::createToggle(char const*, char const*, float, float, void (cocos2d::CCObject::*)(cocos2d::CCObject*), cocos2d::CCNode*)
PUBLIC m 111cc0 0 CvoltonOptionsLayer::createButtonToggle(char const*, cocos2d::CCNode*, float, float, float, cocos2d::CCNode*)
PUBLIC m 1120fc 0 CvoltonOptionsLayer::destroyToggles()
PUBLIC m 112154 0 CvoltonOptionsLayer::drawToggles()
PUBLIC m 112158 0 CvoltonOptionsLayer::getOption(std::__ndk1::basic_string<char, std::__ndk1::char_traits<char>, std::__ndk1::allocator<char> > const&) const
PUBLIC m 1121a4 0 CvoltonOptionsLayer::getOptionInt(std::__ndk1::basic_string<char, std::__ndk1::char_traits<char>, std::__ndk1::allocator<char> > const&) const
PUBLIC m 1121f0 0 CvoltonOptionsLayer::toggleOption(std::__ndk1::basic_string<char, std::__ndk1::char_traits<char>, std::__ndk1::allocator<char> > const&)
PUBLIC m 11236c 0 CvoltonOptionsLayer::setOption(std::__ndk1::basic_string<char, std::__ndk1::char_traits<char>, std::__ndk1::allocator<char> > const&, bool)
PUBLIC m 112464 0 CvoltonOptionsLayer::setOptionInt(std::__ndk1::basic_string<char, std::__ndk1::char_traits<char>, std::__ndk1::allocator<char> > const&, int)
PUBLIC 11255c 0 CvoltonOptionsLayer::~CvoltonOptionsLayer()
PUBLIC 1125d4 0 {virtual override thunk({offset(-320)}, CvoltonOptionsLayer::~CvoltonOptionsLayer())}
PUBLIC 112648 0 {virtual override thunk({offset(-320)}, CvoltonOptionsLayer::~CvoltonOptionsLayer())}
PUBLIC m 1126c4 0 loadManagers()
PUBLIC m 112808 0 finishLoadingManagers()
PUBLIC m 112870 0 fixLevelLists()
PUBLIC 112de4 0 geode::cocos::CCDictionaryExt<gd::string, GJLevelList*, GJLevelList>::~CCDictionaryExt()
PUBLIC 112e04 0 std::__ndk1::vector<gd::string, std::__ndk1::allocator<gd::string> >::~vector[abi:ne190000]()
PUBLIC 112e6c 0 geode::cocos::CCArrayExt<GJLevelList*, GJLevelList>::~CCArrayExt()
PUBLIC 112e8c 0 __cxx_global_var_init.2
PUBLIC 1132b8 0 _GLOBAL__sub_I_main.cpp
PUBLIC 113390 0 geode::modifier::ModifyBase<geode::modifier::ModifyDerive<hook64<(anonymous namespace)::hook64Parent>, MenuLayer> >::~ModifyBase()
PUBLIC 1133ac 0 std::__ndk1::vector<GJLevelList*, std::__ndk1::allocator<GJLevelList*> >::__throw_length_error[abi:ne190000]() const
PUBLIC 1133c0 0 std::__ndk1::__split_buffer<gd::string, std::__ndk1::allocator<gd::string>&>::~__split_buffer()
PUBLIC 113414 0 std::__ndk1::vector<gd::string, std::__ndk1::allocator<gd::string> >::__throw_length_error[abi:ne190000]() const
PUBLIC 113428 0 std::__ndk1::__thread_proxy[abi:ne190000]<std::__ndk1::tuple<std::__ndk1::unique_ptr<std::__ndk1::__thread_struct, std::__ndk1::default_delete<std::__ndk1::unique_ptr> >, loadManagers()::$_0> >(std::__ndk1::tuple<std::__ndk1::unique_ptr<std::__ndk1::__thread_struct, std::__ndk1::default_delete<std::__ndk1::unique_ptr> >, loadManagers()::$_0>)
PUBLIC 113564 0 std::__ndk1::unique_ptr<std::__ndk1::tuple<std::__ndk1::unique_ptr<std::__ndk1::__thread_struct, std::__ndk1::default_delete<std::__ndk1::__thread_struct> >, loadManagers()::$_0>, std::__ndk1::default_delete<std::__ndk1::tuple<std::__ndk1::unique_ptr<std::__ndk1::__thread_struct, std::__ndk1::default_delete<std::__ndk1::__thread_struct> >, loadManagers()::$_0> > >::~unique_ptr[abi:ne190000]()
PUBLIC 1135b4 0 geode::modifier::ModifyDerive<hook64<(anonymous namespace)::hook64Parent>, MenuLayer>::apply()
PUBLIC 1138a8 0 geode::modifier::ModifyBase<geode::modifier::ModifyDerive<hook64<(anonymous namespace)::hook64Parent>, MenuLayer> >::apply()
PUBLIC 1138ac 0 geode::modifier::AsStaticFunction_init<hook64<(anonymous namespace)::hook64Parent>, bool (hook64<(anonymous namespace)::hook64Parent>::*)()>::Impl<bool (hook64<(anonymous namespace)::hook64Parent>::*)()>::function(hook64<(anonymous namespace)::hook64Parent>*)
PUBLIC 1139b0 0 geode::addresser::Addresser::addressOfVirtual<bool, MenuLayer, >(bool (MenuLayer::*)())
PUBLIC 113a58 0 MenuLayer::MenuLayer(geode::ZeroConstructorType)
PUBLIC 113af4 0 geode::Ref<cocos2d::CCLayer>::~Ref()
PUBLIC 113b10 0 std::__ndk1::__function::__func<geodeExecFunction90<(anonymous namespace)::ExecFuncUnique90>()::{lambda()#1}, std::__ndk1::allocator<geodeExecFunction90<(anonymous namespace)::ExecFuncUnique90>()::{lambda()#1}>, void ()>::~__func()
PUBLIC 113b14 0 std::__ndk1::__function::__func<geodeExecFunction90<(anonymous namespace)::ExecFuncUnique90>()::{lambda()#1}, std::__ndk1::allocator<geodeExecFunction90<(anonymous namespace)::ExecFuncUnique90>()::{lambda()#1}>, void ()>::__clone() const
PUBLIC 113b38 0 std::__ndk1::__function::__func<geodeExecFunction90<(anonymous namespace)::ExecFuncUnique90>()::{lambda()#1}, std::__ndk1::allocator<geodeExecFunction90<(anonymous namespace)::ExecFuncUnique90>()::{lambda()#1}>, void ()>::__clone(std::__ndk1::__function::__base<void ()>*) const
PUBLIC 113b48 0 std::__ndk1::__function::__func<geodeExecFunction90<(anonymous namespace)::ExecFuncUnique90>()::{lambda()#1}, std::__ndk1::allocator<geodeExecFunction90<(anonymous namespace)::ExecFuncUnique90>()::{lambda()#1}>, void ()>::destroy()
PUBLIC 113b4c 0 std::__ndk1::__function::__func<geodeExecFunction90<(anonymous namespace)::ExecFuncUnique90>()::{lambda()#1}, std::__ndk1::allocator<geodeExecFunction90<(anonymous namespace)::ExecFuncUnique90>()::{lambda()#1}>, void ()>::destroy_deallocate()
PUBLIC 113b50 0 std::__ndk1::__function::__func<geodeExecFunction90<(anonymous namespace)::ExecFuncUnique90>()::{lambda()#1}, std::__ndk1::allocator<geodeExecFunction90<(anonymous namespace)::ExecFuncUnique90>()::{lambda()#1}>, void ()>::operator()()
PUBLIC 113b54 0 std::__ndk1::__function::__func<geodeExecFunction90<(anonymous namespace)::ExecFuncUnique90>()::{lambda()#1}, std::__ndk1::allocator<geodeExecFunction90<(anonymous namespace)::ExecFuncUnique90>()::{lambda()#1}>, void ()>::target(std::type_info const&) const
PUBLIC 113b70 0 std::__ndk1::__function::__func<geodeExecFunction90<(anonymous namespace)::ExecFuncUnique90>()::{lambda()#1}, std::__ndk1::allocator<geodeExecFunction90<(anonymous namespace)::ExecFuncUnique90>()::{lambda()#1}>, void ()>::target_type() const
PUBLIC m 113b7c 0 BaseJsonManager::init(char const*)
PUBLIC m 113cec 0 BaseJsonManager::load()
PUBLIC 1140a8 0 geode::impl::ResultData<void, std::__ndk1::basic_string<char, std::__ndk1::char_traits<char>, std::__ndk1::allocator<char> > >::~ResultData()
PUBLIC 11411c 0 geode::impl::ResultData<matjson::Value, std::__ndk1::basic_string<char, std::__ndk1::char_traits<char>, std::__ndk1::allocator<char> > >::~ResultData()
PUBLIC 114190 0 std::__ndk1::unique_lock<std::__ndk1::shared_mutex>::~unique_lock[abi:ne190000]()
PUBLIC m 1141b4 0 BaseJsonManager::save()
PUBLIC 114518 0 std::__ndk1::shared_lock<std::__ndk1::shared_mutex>::~shared_lock[abi:ne190000]()
PUBLIC m 11453c 0 BaseJsonManager::doSave()
PUBLIC m 11466c 0 BaseJsonManager::waitForLoad()
PUBLIC m 1146e4 0 BaseJsonManager::waitForInit()
PUBLIC m 11475c 0 BaseJsonManager::validateLoadedData()
PUBLIC m 114760 0 BaseJsonManager::validateIsObject(char const*)
PUBLIC m 114824 0 BaseJsonManager::BaseJsonManager()
PUBLIC m 1148a0 0 BaseJsonManager::objectExists(char const*, std::__ndk1::basic_string<char, std::__ndk1::char_traits<char>, std::__ndk1::allocator<char> > const&)
PUBLIC 114980 0 std::__ndk1::__fs::filesystem::path::operator/=[abi:ne190000](std::__ndk1::__fs::filesystem::path const&)
PUBLIC 114a68 0 _ZNSt6__ndk112basic_stringIcNS_11char_traitsIcEENS_9allocatorIcEEE6appendB8ne190000IPKcTnNS_9enable_ifIXsr31__has_forward_iterator_categoryIT_EE5valueEiE4typeELi0EEERS5_SA_SA_
PUBLIC 114dac 0 std::__ndk1::__variant_detail::__visitation::__base::__dispatcher<(unsigned long)0>::__dispatch[abi:ne190000]<std::__ndk1::__variant_detail::__dtor<std::__ndk1::__variant_detail::__traits<matjson::Value, std::__ndk1::basic_string<char, std::__ndk1::char_traits<char>, std::__ndk1::allocator<char> > >, (std::__ndk1::__variant_detail::_Trait)1>::__destroy[abi:ne190000]()::{lambda(auto:1&)#1}, std::__ndk1::__variant_detail::__base<(std::__ndk1::__variant_detail::__traits<matjson::Value, std::__ndk1::basic_string<char, std::__ndk1::char_traits<char>, std::__ndk1::allocator<char> > >)1, matjson, std::__ndk1::allocator<char> >&>(std::__ndk1::__variant_detail::__dtor<std::__ndk1::__variant_detail::__traits<matjson::Value, std::__ndk1::basic_string<char, std::__ndk1::char_traits<char>, std::__ndk1::allocator<char> > >, (std::__ndk1::__variant_detail::_Trait)1>, std::__ndk1::__variant_detail::__base<(std::__ndk1::__variant_detail::__traits<matjson::Value, std::__ndk1::basic_string<char, std::__ndk1::char_traits<char>, std::__ndk1::allocator<char> > >)1, matjson, std::__ndk1::allocator<char> >&)
PUBLIC 114db4 0 std::__ndk1::__variant_detail::__visitation::__base::__dispatcher<(unsigned long)1>::__dispatch[abi:ne190000]<std::__ndk1::__variant_detail::__dtor<std::__ndk1::__variant_detail::__traits<matjson::Value, std::__ndk1::basic_string<char, std::__ndk1::char_traits<char>, std::__ndk1::allocator<char> > >, (std::__ndk1::__variant_detail::_Trait)1>::__destroy[abi:ne190000]()::{lambda(auto:1&)#1}, std::__ndk1::__variant_detail::__base<(std::__ndk1::__variant_detail::__traits<matjson::Value, std::__ndk1::basic_string<char, std::__ndk1::char_traits<char>, std::__ndk1::allocator<char> > >)1, matjson, std::__ndk1::allocator<char> >&>(std::__ndk1::__variant_detail::__dtor<std::__ndk1::__variant_detail::__traits<matjson::Value, std::__ndk1::basic_string<char, std::__ndk1::char_traits<char>, std::__ndk1::allocator<char> > >, (std::__ndk1::__variant_detail::_Trait)1>, std::__ndk1::__variant_detail::__base<(std::__ndk1::__variant_detail::__traits<matjson::Value, std::__ndk1::basic_string<char, std::__ndk1::char_traits<char>, std::__ndk1::allocator<char> > >)1, matjson, std::__ndk1::allocator<char> >&)
PUBLIC 114dc8 0 std::__ndk1::__thread_proxy[abi:ne190000]<std::__ndk1::tuple<std::__ndk1::unique_ptr<std::__ndk1::__thread_struct, std::__ndk1::default_delete<std::__ndk1::unique_ptr> >, BaseJsonManager::doSave()::$_0> >(std::__ndk1::tuple<std::__ndk1::unique_ptr<std::__ndk1::__thread_struct, std::__ndk1::default_delete<std::__ndk1::unique_ptr> >, BaseJsonManager::doSave()::$_0>)
PUBLIC 114fa0 0 std::__ndk1::unique_ptr<std::__ndk1::tuple<std::__ndk1::unique_ptr<std::__ndk1::__thread_struct, std::__ndk1::default_delete<std::__ndk1::__thread_struct> >, BaseJsonManager::doSave()::$_0>, std::__ndk1::default_delete<std::__ndk1::tuple<std::__ndk1::unique_ptr<std::__ndk1::__thread_struct, std::__ndk1::default_delete<std::__ndk1::__thread_struct> >, BaseJsonManager::doSave()::$_0> > >::~unique_ptr[abi:ne190000]()
PUBLIC m 114ff0 0 BetterInfoCache::init()
PUBLIC m 115034 0 BetterInfoCache::establishCachedDicts()
PUBLIC m 115274 0 BetterInfoCache::finishLoading()
PUBLIC m 115300 0 BetterInfoCache::cacheFollowedCreators()
PUBLIC m 1155e4 0 BetterInfoCache::thirdStageLoading()
PUBLIC m 1156ac 0 BetterInfoCache::checkLevelsFromDict(cocos2d::CCDictionary*)
PUBLIC m 11593c 0 BetterInfoCache::validateLoadedData()
PUBLIC 1159e0 0 _ZN7matjson3getILm0ENS_5ValueEQrqXsr3stdE9is_same_vIu7__decayIT0_ES1_EEEEDcOS2_
PUBLIC 115ab4 0 geode::impl::ResultData<long, std::__ndk1::basic_string<char, std::__ndk1::char_traits<char>, std::__ndk1::allocator<char> > >::~ResultData()
PUBLIC m 115b28 0 BetterInfoCache::BetterInfoCache()
PUBLIC 115ba4 0 BetterInfoCache::cacheFollowedCreators()::$_0::~$_0()
PUBLIC 115bf0 0 std::__ndk1::unordered_set<int, std::__ndk1::hash<int>, std::__ndk1::equal_to<int>, std::__ndk1::allocator<int> >::~unordered_set[abi:ne190000]()
PUBLIC m 115c3c 0 BetterInfoCache::cacheScoresResult(cocos2d::CCArray*)
PUBLIC m 115de0 0 BetterInfoCache::cacheScore(GJUserScore*)
PUBLIC 116478 0 matjson::makeObject(std::initializer_list<std::__ndk1::pair<std::__ndk1::basic_string<char, std::__ndk1::char_traits<char>, std::__ndk1::allocator<char> >, matjson::Value> >)
PUBLIC 11662c 0 _ZNSt6__ndk14pairINS_12basic_stringIcNS_11char_traitsIcEENS_9allocatorIcEEEEN7matjson5ValueEEC2B8ne190000IRA8_KcRiTnNS_9enable_ifIXclsr10_CheckArgsE23__is_pair_constructibleIT_T0_EEEiE4typeELi0EEEOSG_OSH_
PUBLIC 116704 0 std::__ndk1::pair<std::__ndk1::basic_string<char, std::__ndk1::char_traits<char>, std::__ndk1::allocator<char> >, matjson::Value>::~pair()
PUBLIC m 116740 0 BetterInfoCache::storeUserName(int, std::__ndk1::basic_string<char, std::__ndk1::char_traits<char>, std::__ndk1::allocator<char> > const&)
PUBLIC m 116914 0 BetterInfoCache::getCachedOrPlaceholderScore(int)
PUBLIC m 1169e0 0 BetterInfoCache::getCachedScore(int)
PUBLIC 116e20 0 _ZNO5geode4impl10ResultDataINSt6__ndk112basic_stringIcNS2_11char_traitsIcEENS2_9allocatorIcEEEES8_E8unwrapOrIN2gd6stringEEES8_OT_Qsr3stdE18constructible_fromISD_Dtfp_EE
PUBLIC m 116e68 0 BetterInfoCache::cacheRatedListsFromMegaResponse(std::__ndk1::basic_string<char, std::__ndk1::char_traits<char>, std::__ndk1::allocator<char> > const&)
PUBLIC m 1179f8 0 BetterInfoCache::cacheRatedLists(int)
PUBLIC 117afc 0 std::__ndk1::basic_stringstream<char, std::__ndk1::char_traits<char>, std::__ndk1::allocator<char> >::basic_stringstream[abi:ne190000](std::__ndk1::basic_string<char, std::__ndk1::char_traits<char>, std::__ndk1::allocator<char> > const&, unsigned int)
PUBLIC m 117c98 0 BetterInfoCache::cacheListAsync(GJLevelList*)
PUBLIC m 117db4 0 BetterInfoCache::checkClaimableLists()
PUBLIC 1180c0 0 BetterInfoCache::checkClaimableLists()::$_0::~$_0()
PUBLIC m 11810c 0 BetterInfoCache::cacheList(GJLevelList*)
PUBLIC m 1186ec 0 BetterInfoCache::tryShowClaimableListsPopup(cocos2d::CCLayer*)
PUBLIC m 118724 0 BetterInfoCache::claimableListsCount()
PUBLIC m 11872c 0 BetterInfoCache::downloadClaimableLists()
PUBLIC 118b84 0 std::__ndk1::set<int, std::__ndk1::less<int>, std::__ndk1::allocator<int> >::~set[abi:ne190000]()
PUBLIC 118b8c 0 std::__ndk1::pair<int const, geode::Ref<GJLevelList> >::~pair()
PUBLIC m 118bac 0 BetterInfoCache::showClaimableLists()
PUBLIC m 118eec 0 BetterInfoCache::removeClaimedLists()
PUBLIC 119034 0 BetterInfoCache::checkLevelsFromDict(cocos2d::CCDictionary*)::$_0::~$_0()
PUBLIC m 119084 0 BetterInfoCache::markLevelAsFailed(int)
PUBLIC m 119230 0 BetterInfoCache::isLevelFailed(int)
PUBLIC m 11939c 0 BetterInfoCache::cacheLevel(GJGameLevel*)
PUBLIC m 119758 0 BetterInfoCache::cacheLevels(std::__ndk1::set<int, std::__ndk1::less<int>, std::__ndk1::allocator<int> >, SearchType, int)
PUBLIC 119f58 0 BetterInfoCache::cacheLevels(std::__ndk1::set<int, std::__ndk1::less<int>, std::__ndk1::allocator<int> >, SearchType, int)::$_0::~$_0()
PUBLIC m 119fd4 0 BetterInfoCache::getLevelName(int)
PUBLIC m 11a20c 0 BetterInfoCache::getDemonDifficulty(int)
PUBLIC m 11a374 0 BetterInfoCache::storeLevelInfo(int, std::__ndk1::basic_string<char, std::__ndk1::char_traits<char>, std::__ndk1::allocator<char> > const&, std::__ndk1::basic_string<char, std::__ndk1::char_traits<char>, std::__ndk1::allocator<char> > const&)
PUBLIC m 11a630 0 BetterInfoCache::getLevelInfo(int, std::__ndk1::basic_string<char, std::__ndk1::char_traits<char>, std::__ndk1::allocator<char> > const&)
PUBLIC m 11a7b0 0 BetterInfoCache::storeDatesForLevel(GJGameLevel*)
PUBLIC m 11a99c 0 BetterInfoCache::getUserName(int, bool)
PUBLIC 11adbc 0 std::__ndk1::__optional_destruct_base<geode::Task<geode::utils::web::WebResponse, geode::utils::web::WebProgress>, false>::~__optional_destruct_base[abi:ne190000]()
PUBLIC m 11ae14 0 BetterInfoCache::getCoinCount(int)
PUBLIC m 11b414 0 BetterInfoCache::storeUploadDate(int, std::__ndk1::basic_string<char, std::__ndk1::char_traits<char>, std::__ndk1::allocator<char> > const&)
PUBLIC m 11b61c 0 BetterInfoCache::getUploadDate(int, UploadDateDelegate*)
PUBLIC 11bfc4 0 std::__ndk1::unordered_map<int, geode::Task<geode::utils::web::WebResponse, geode::utils::web::WebProgress>, std::__ndk1::hash<int>, std::__ndk1::equal_to<int>, std::__ndk1::allocator<std::__ndk1::pair<int const, geode::Task<geode::utils::web::WebResponse, geode::utils::web::WebProgress> > > >::~unordered_map[abi:ne190000]()
PUBLIC 11c054 0 geode::Task<geode::utils::web::WebResponse, geode::utils::web::WebProgress>::~Task()
PUBLIC m 11c0a4 0 BetterInfoCache::cacheVaultCode(std::__ndk1::basic_string<char, std::__ndk1::char_traits<char>, std::__ndk1::allocator<char> > const&, std::__ndk1::basic_string<char, std::__ndk1::char_traits<char>, std::__ndk1::allocator<char> > const&)
PUBLIC m 11c1a4 0 BetterInfoCache::getVaultCode(std::__ndk1::basic_string<char, std::__ndk1::char_traits<char>, std::__ndk1::allocator<char> > const&)
PUBLIC 11c240 0 std::__ndk1::vector<matjson::Value, std::__ndk1::allocator<matjson::Value> >::~vector[abi:ne190000]()
PUBLIC 11c2a8 0 std::__ndk1::vector<matjson::Value, std::__ndk1::allocator<matjson::Value> >::__emplace_back_slow_path<matjson::Value const&>(matjson::Value const&)
PUBLIC 11c448 0 std::__ndk1::__split_buffer<matjson::Value, std::__ndk1::allocator<matjson::Value>&>::~__split_buffer()
PUBLIC 11c49c 0 std::__ndk1::vector<matjson::Value, std::__ndk1::allocator<matjson::Value> >::__throw_length_error[abi:ne190000]() const
PUBLIC 11c4b0 0 geode::Ref<GJLevelList>::~Ref()
PUBLIC 11c4d0 0 std::__ndk1::vector<geode::Ref<GJGameLevel>, std::__ndk1::allocator<geode::Ref<GJGameLevel> > >::__push_back_slow_path<geode::Ref<GJGameLevel> >(geode::Ref<GJGameLevel>&&)
PUBLIC 11c67c 0 std::__ndk1::vector<geode::Ref<GJGameLevel>, std::__ndk1::allocator<geode::Ref<GJGameLevel> > >::__throw_length_error[abi:ne190000]() const
PUBLIC 11c690 0 std::__ndk1::shared_ptr<geode::Task<geode::utils::web::WebResponse, geode::utils::web::WebProgress>::Handle>::~shared_ptr[abi:ne190000]()
PUBLIC 11c6e0 0 geode::Task<geode::utils::web::WebResponse, geode::utils::web::WebProgress>::cancel(std::__ndk1::shared_ptr<geode::Task<geode::utils::web::WebResponse, geode::utils::web::WebProgress>::Handle>, bool)
PUBLIC 11c850 0 geode::Task<geode::utils::web::WebResponse, geode::utils::web::WebProgress>::finish(std::__ndk1::shared_ptr<geode::Task<geode::utils::web::WebResponse, geode::utils::web::WebProgress>::Handle>, geode::utils::web::WebResponse&&)
PUBLIC 11c9f8 0 BetterInfoCache::getUploadDate(int, UploadDateDelegate*)::$_0::operator()(geode::utils::web::WebResponse*) const
PUBLIC 11cda4 0 geode::utils::web::WebResponse::~WebResponse()
PUBLIC 11cdf4 0 geode::EventListener<geode::Task<geode::utils::web::WebResponse, geode::utils::web::WebProgress> >::EventListener(std::__ndk1::function<void (geode::Task<geode::utils::web::WebResponse, geode::utils::web::WebProgress>*::Event)>, geode::Task<geode::utils::web::WebResponse, geode::utils::web::WebProgress>)
PUBLIC 11cefc 0 std::__ndk1::__shared_ptr_emplace<geode::Task<geode::utils::web::WebResponse, geode::utils::web::WebProgress>::Handle, std::__ndk1::allocator<geode::Task<geode::utils::web::WebResponse, geode::utils::web::WebProgress>::Handle> >::~__shared_ptr_emplace()
PUBLIC 11cf0c 0 std::__ndk1::__shared_ptr_emplace<geode::Task<geode::utils::web::WebResponse, geode::utils::web::WebProgress>::Handle, std::__ndk1::allocator<geode::Task<geode::utils::web::WebResponse, geode::utils::web::WebProgress>::Handle> >::~__shared_ptr_emplace()
PUBLIC 11cf3c 0 std::__ndk1::__shared_ptr_emplace<geode::Task<geode::utils::web::WebResponse, geode::utils::web::WebProgress>::Handle, std::__ndk1::allocator<geode::Task<geode::utils::web::WebResponse, geode::utils::web::WebProgress>::Handle> >::__on_zero_shared()
PUBLIC 11cf44 0 std::__ndk1::__shared_ptr_emplace<geode::Task<geode::utils::web::WebResponse, geode::utils::web::WebProgress>::Handle, std::__ndk1::allocator<geode::Task<geode::utils::web::WebResponse, geode::utils::web::WebProgress>::Handle> >::__on_zero_shared_weak()
PUBLIC 11cf48 0 geode::Task<geode::utils::web::WebResponse, geode::utils::web::WebProgress>::Handle::Handle(geode::Task<geode::utils::web::WebResponse, geode::utils::web::WebProgress>::Handle::PrivateMarker, std::__ndk1::basic_string_view<char, std::__ndk1::char_traits<char> >)
PUBLIC 11d024 0 std::__ndk1::__optional_destruct_base<geode::utils::web::WebResponse, false>::~__optional_destruct_base[abi:ne190000]()
PUBLIC 11d07c 0 geode::Task<geode::utils::web::WebResponse, geode::utils::web::WebProgress>::Handle::~Handle()
PUBLIC 11d15c 0 geode::Task<geode::utils::web::WebResponse, geode::utils::web::WebProgress>::cancel(std::__ndk1::shared_ptr<geode::Task<geode::utils::web::WebResponse, geode::utils::web::WebProgress>::Handle>, bool)::{lambda()#1}::~{lambda()#1}()
PUBLIC 11d1ac 0 std::__ndk1::__function::__func<geode::Task<geode::utils::web::WebResponse, geode::utils::web::WebProgress>::cancel(std::__ndk1::shared_ptr<geode::Task<geode::utils::web::WebResponse, geode::utils::web::WebProgress>::Handle>, bool)::{lambda()#1}, std::__ndk1::allocator<geode::Task<geode::utils::web::WebResponse, geode::utils::web::WebProgress>::cancel(std::__ndk1::shared_ptr<geode::Task<geode::utils::web::WebResponse, geode::utils::web::WebProgress>::Handle>, bool)::{lambda()#1}>, void ()>::~__func()
PUBLIC 11d208 0 std::__ndk1::__function::__func<geode::Task<geode::utils::web::WebResponse, geode::utils::web::WebProgress>::cancel(std::__ndk1::shared_ptr<geode::Task<geode::utils::web::WebResponse, geode::utils::web::WebProgress>::Handle>, bool)::{lambda()#1}, std::__ndk1::allocator<geode::Task<geode::utils::web::WebResponse, geode::utils::web::WebProgress>::cancel(std::__ndk1::shared_ptr<geode::Task<geode::utils::web::WebResponse, geode::utils::web::WebProgress>::Handle>, bool)::{lambda()#1}>, void ()>::~__func()
PUBLIC 11d274 0 std::__ndk1::__function::__func<geode::Task<geode::utils::web::WebResponse, geode::utils::web::WebProgress>::cancel(std::__ndk1::shared_ptr<geode::Task<geode::utils::web::WebResponse, geode::utils::web::WebProgress>::Handle>, bool)::{lambda()#1}, std::__ndk1::allocator<geode::Task<geode::utils::web::WebResponse, geode::utils::web::WebProgress>::cancel(std::__ndk1::shared_ptr<geode::Task<geode::utils::web::WebResponse, geode::utils::web::WebProgress>::Handle>, bool)::{lambda()#1}>, void ()>::__clone() const
PUBLIC 11d2c4 0 std::__ndk1::__function::__func<geode::Task<geode::utils::web::WebResponse, geode::utils::web::WebProgress>::cancel(std::__ndk1::shared_ptr<geode::Task<geode::utils::web::WebResponse, geode::utils::web::WebProgress>::Handle>, bool)::{lambda()#1}, std::__ndk1::allocator<geode::Task<geode::utils::web::WebResponse, geode::utils::web::WebProgress>::cancel(std::__ndk1::shared_ptr<geode::Task<geode::utils::web::WebResponse, geode::utils::web::WebProgress>::Handle>, bool)::{lambda()#1}>, void ()>::__clone(std::__ndk1::__function::__base<void ()>*) const
PUBLIC 11d2f8 0 std::__ndk1::__function::__func<geode::Task<geode::utils::web::WebResponse, geode::utils::web::WebProgress>::cancel(std::__ndk1::shared_ptr<geode::Task<geode::utils::web::WebResponse, geode::utils::web::WebProgress>::Handle>, bool)::{lambda()#1}, std::__ndk1::allocator<geode::Task<geode::utils::web::WebResponse, geode::utils::web::WebProgress>::cancel(std::__ndk1::shared_ptr<geode::Task<geode::utils::web::WebResponse, geode::utils::web::WebProgress>::Handle>, bool)::{lambda()#1}>, void ()>::destroy()
PUBLIC 11d348 0 std::__ndk1::__function::__func<geode::Task<geode::utils::web::WebResponse, geode::utils::web::WebProgress>::cancel(std::__ndk1::shared_ptr<geode::Task<geode::utils::web::WebResponse, geode::utils::web::WebProgress>::Handle>, bool)::{lambda()#1}, std::__ndk1::allocator<geode::Task<geode::utils::web::WebResponse, geode::utils::web::WebProgress>::cancel(std::__ndk1::shared_ptr<geode::Task<geode::utils::web::WebResponse, geode::utils::web::WebProgress>::Handle>, bool)::{lambda()#1}>, void ()>::destroy_deallocate()
PUBLIC 11d3a8 0 std::__ndk1::__function::__func<geode::Task<geode::utils::web::WebResponse, geode::utils::web::WebProgress>::cancel(std::__ndk1::shared_ptr<geode::Task<geode::utils::web::WebResponse, geode::utils::web::WebProgress>::Handle>, bool)::{lambda()#1}, std::__ndk1::allocator<geode::Task<geode::utils::web::WebResponse, geode::utils::web::WebProgress>::cancel(std::__ndk1::shared_ptr<geode::Task<geode::utils::web::WebResponse, geode::utils::web::WebProgress>::Handle>, bool)::{lambda()#1}>, void ()>::operator()()
PUBLIC 11d3b0 0 std::__ndk1::__function::__func<geode::Task<geode::utils::web::WebResponse, geode::utils::web::WebProgress>::cancel(std::__ndk1::shared_ptr<geode::Task<geode::utils::web::WebResponse, geode::utils::web::WebProgress>::Handle>, bool)::{lambda()#1}, std::__ndk1::allocator<geode::Task<geode::utils::web::WebResponse, geode::utils::web::WebProgress>::cancel(std::__ndk1::shared_ptr<geode::Task<geode::utils::web::WebResponse, geode::utils::web::WebProgress>::Handle>, bool)::{lambda()#1}>, void ()>::target(std::type_info const&) const
PUBLIC 11d3cc 0 std::__ndk1::__function::__func<geode::Task<geode::utils::web::WebResponse, geode::utils::web::WebProgress>::cancel(std::__ndk1::shared_ptr<geode::Task<geode::utils::web::WebResponse, geode::utils::web::WebProgress>::Handle>, bool)::{lambda()#1}, std::__ndk1::allocator<geode::Task<geode::utils::web::WebResponse, geode::utils::web::WebProgress>::cancel(std::__ndk1::shared_ptr<geode::Task<geode::utils::web::WebResponse, geode::utils::web::WebProgress>::Handle>, bool)::{lambda()#1}>, void ()>::target_type() const
PUBLIC 11d3d8 0 geode::Task<geode::utils::web::WebResponse, geode::utils::web::WebProgress>::cancel(std::__ndk1::shared_ptr<geode::Task<geode::utils::web::WebResponse, geode::utils::web::WebProgress>::Handle>, bool)::{lambda()#1}::operator()()
PUBLIC 11d57c 0 geode::Task<geode::utils::web::WebResponse, geode::utils::web::WebProgress>::Event::~Event()
PUBLIC 11d5dc 0 geode::Task<geode::utils::web::WebResponse, geode::utils::web::WebProgress>::Event::~Event()
PUBLIC 11d64c 0 geode::Task<geode::utils::web::WebResponse, geode::utils::web::WebProgress>::finish(std::__ndk1::shared_ptr<geode::Task<geode::utils::web::WebResponse, geode::utils::web::WebProgress>::Handle>, geode::utils::web::WebResponse&&)::{lambda()#1}::~{lambda()#1}()
PUBLIC 11d69c 0 std::__ndk1::__function::__func<geode::Task<geode::utils::web::WebResponse, geode::utils::web::WebProgress>::finish(std::__ndk1::shared_ptr<geode::Task<geode::utils::web::WebResponse, geode::utils::web::WebProgress>::Handle>, geode::utils::web::WebResponse&&)::{lambda()#1}, std::__ndk1::allocator<geode::Task<geode::utils::web::WebResponse, geode::utils::web::WebProgress>::finish(std::__ndk1::shared_ptr<geode::Task<geode::utils::web::WebResponse, geode::utils::web::WebProgress>::Handle>, geode::utils::web::WebResponse&&)::{lambda()#1}>, void ()>::~__func()
PUBLIC 11d6f8 0 std::__ndk1::__function::__func<geode::Task<geode::utils::web::WebResponse, geode::utils::web::WebProgress>::finish(std::__ndk1::shared_ptr<geode::Task<geode::utils::web::WebResponse, geode::utils::web::WebProgress>::Handle>, geode::utils::web::WebResponse&&)::{lambda()#1}, std::__ndk1::allocator<geode::Task<geode::utils::web::WebResponse, geode::utils::web::WebProgress>::finish(std::__ndk1::shared_ptr<geode::Task<geode::utils::web::WebResponse, geode::utils::web::WebProgress>::Handle>, geode::utils::web::WebResponse&&)::{lambda()#1}>, void ()>::~__func()
PUBLIC 11d764 0 std::__ndk1::__function::__func<geode::Task<geode::utils::web::WebResponse, geode::utils::web::WebProgress>::finish(std::__ndk1::shared_ptr<geode::Task<geode::utils::web::WebResponse, geode::utils::web::WebProgress>::Handle>, geode::utils::web::WebResponse&&)::{lambda()#1}, std::__ndk1::allocator<geode::Task<geode::utils::web::WebResponse, geode::utils::web::WebProgress>::finish(std::__ndk1::shared_ptr<geode::Task<geode::utils::web::WebResponse, geode::utils::web::WebProgress>::Handle>, geode::utils::web::WebResponse&&)::{lambda()#1}>, void ()>::__clone() const
PUBLIC 11d7bc 0 std::__ndk1::__function::__func<geode::Task<geode::utils::web::WebResponse, geode::utils::web::WebProgress>::finish(std::__ndk1::shared_ptr<geode::Task<geode::utils::web::WebResponse, geode::utils::web::WebProgress>::Handle>, geode::utils::web::WebResponse&&)::{lambda()#1}, std::__ndk1::allocator<geode::Task<geode::utils::web::WebResponse, geode::utils::web::WebProgress>::finish(std::__ndk1::shared_ptr<geode::Task<geode::utils::web::WebResponse, geode::utils::web::WebProgress>::Handle>, geode::utils::web::WebResponse&&)::{lambda()#1}>, void ()>::__clone(std::__ndk1::__function::__base<void ()>*) const
PUBLIC 11d808 0 std::__ndk1::__function::__func<geode::Task<geode::utils::web::WebResponse, geode::utils::web::WebProgress>::finish(std::__ndk1::shared_ptr<geode::Task<geode::utils::web::WebResponse, geode::utils::web::WebProgress>::Handle>, geode::utils::web::WebResponse&&)::{lambda()#1}, std::__ndk1::allocator<geode::Task<geode::utils::web::WebResponse, geode::utils::web::WebProgress>::finish(std::__ndk1::shared_ptr<geode::Task<geode::utils::web::WebResponse, geode::utils::web::WebProgress>::Handle>, geode::utils::web::WebResponse&&)::{lambda()#1}>, void ()>::destroy()
PUBLIC 11d858 0 std::__ndk1::__function::__func<geode::Task<geode::utils::web::WebResponse, geode::utils::web::WebProgress>::finish(std::__ndk1::shared_ptr<geode::Task<geode::utils::web::WebResponse, geode::utils::web::WebProgress>::Handle>, geode::utils::web::WebResponse&&)::{lambda()#1}, std::__ndk1::allocator<geode::Task<geode::utils::web::WebResponse, geode::utils::web::WebProgress>::finish(std::__ndk1::shared_ptr<geode::Task<geode::utils::web::WebResponse, geode::utils::web::WebProgress>::Handle>, geode::utils::web::WebResponse&&)::{lambda()#1}>, void ()>::destroy_deallocate()
PUBLIC 11d8b8 0 std::__ndk1::__function::__func<geode::Task<geode::utils::web::WebResponse, geode::utils::web::WebProgress>::finish(std::__ndk1::shared_ptr<geode::Task<geode::utils::web::WebResponse, geode::utils::web::WebProgress>::Handle>, geode::utils::web::WebResponse&&)::{lambda()#1}, std::__ndk1::allocator<geode::Task<geode::utils::web::WebResponse, geode::utils::web::WebProgress>::finish(std::__ndk1::shared_ptr<geode::Task<geode::utils::web::WebResponse, geode::utils::web::WebProgress>::Handle>, geode::utils::web::WebResponse&&)::{lambda()#1}>, void ()>::operator()()
PUBLIC 11d8c0 0 std::__ndk1::__function::__func<geode::Task<geode::utils::web::WebResponse, geode::utils::web::WebProgress>::finish(std::__ndk1::shared_ptr<geode::Task<geode::utils::web::WebResponse, geode::utils::web::WebProgress>::Handle>, geode::utils::web::WebResponse&&)::{lambda()#1}, std::__ndk1::allocator<geode::Task<geode::utils::web::WebResponse, geode::utils::web::WebProgress>::finish(std::__ndk1::shared_ptr<geode::Task<geode::utils::web::WebResponse, geode::utils::web::WebProgress>::Handle>, geode::utils::web::WebResponse&&)::{lambda()#1}>, void ()>::target(std::type_info const&) const
PUBLIC 11d8dc 0 std::__ndk1::__function::__func<geode::Task<geode::utils::web::WebResponse, geode::utils::web::WebProgress>::finish(std::__ndk1::shared_ptr<geode::Task<geode::utils::web::WebResponse, geode::utils::web::WebProgress>::Handle>, geode::utils::web::WebResponse&&)::{lambda()#1}, std::__ndk1::allocator<geode::Task<geode::utils::web::WebResponse, geode::utils::web::WebProgress>::finish(std::__ndk1::shared_ptr<geode::Task<geode::utils::web::WebResponse, geode::utils::web::WebProgress>::Handle>, geode::utils::web::WebResponse&&)::{lambda()#1}>, void ()>::target_type() const
PUBLIC 11d8e8 0 geode::Task<geode::utils::web::WebResponse, geode::utils::web::WebProgress>::finish(std::__ndk1::shared_ptr<geode::Task<geode::utils::web::WebResponse, geode::utils::web::WebProgress>::Handle>, geode::utils::web::WebResponse&&)::{lambda()#1}::operator()()
PUBLIC 11da9c 0 std::__ndk1::__function::__func<geode::Task<geode::utils::web::WebResponse, geode::utils::web::WebProgress>::map<BetterInfoCache::getUploadDate(int, UploadDateDelegate*)::$_0, geode::utils::web::WebProgress (*)(geode::utils::web::WebProgress*), void (*)()>(BetterInfoCache::getUploadDate(int, UploadDateDelegate*)::$_0&&, geode::utils::web::WebProgress (*&&)(geode::utils::web::WebProgress*), void (*&&)(), std::__ndk1::basic_string_view<char, std::__ndk1::char_traits<char> >) const::{lambda(geode::Task<geode::utils::web::WebResponse, geode::utils::web::WebProgress>::Event*)#1}, std::__ndk1::allocator<geode::Task<geode::utils::web::WebResponse, geode::utils::web::WebProgress>::map<BetterInfoCache::getUploadDate(int, UploadDateDelegate*)::$_0, geode::utils::web::WebProgress (*)(geode::utils::web::WebProgress*), void (*)()>(BetterInfoCache::getUploadDate(int, UploadDateDelegate*)::$_0&&, geode::utils::web::WebProgress (*&&)(geode::utils::web::WebProgress*), void (*&&)(), std::__ndk1::basic_string_view<char, std::__ndk1::char_traits<char> >) const::{lambda(geode::Task<geode::utils::web::WebResponse, geode::utils::web::WebProgress>::Event*)#1}>, void (geode::Task<geode::utils::web::WebResponse, geode::utils::web::WebProgress>::Event*)>::~__func()
PUBLIC 11dabc 0 std::__ndk1::__function::__func<geode::Task<geode::utils::web::WebResponse, geode::utils::web::WebProgress>::map<BetterInfoCache::getUploadDate(int, UploadDateDelegate*)::$_0, geode::utils::web::WebProgress (*)(geode::utils::web::WebProgress*), void (*)()>(BetterInfoCache::getUploadDate(int, UploadDateDelegate*)::$_0&&, geode::utils::web::WebProgress (*&&)(geode::utils::web::WebProgress*), void (*&&)(), std::__ndk1::basic_string_view<char, std::__ndk1::char_traits<char> >) const::{lambda(geode::Task<geode::utils::web::WebResponse, geode::utils::web::WebProgress>::Event*)#1}, std::__ndk1::allocator<geode::Task<geode::utils::web::WebResponse, geode::utils::web::WebProgress>::map<BetterInfoCache::getUploadDate(int, UploadDateDelegate*)::$_0, geode::utils::web::WebProgress (*)(geode::utils::web::WebProgress*), void (*)()>(BetterInfoCache::getUploadDate(int, UploadDateDelegate*)::$_0&&, geode::utils::web::WebProgress (*&&)(geode::utils::web::WebProgress*), void (*&&)(), std::__ndk1::basic_string_view<char, std::__ndk1::char_traits<char> >) const::{lambda(geode::Task<geode::utils::web::WebResponse, geode::utils::web::WebProgress>::Event*)#1}>, void (geode::Task<geode::utils::web::WebResponse, geode::utils::web::WebProgress>::Event*)>::~__func()
PUBLIC 11daf8 0 std::__ndk1::__function::__func<geode::Task<geode::utils::web::WebResponse, geode::utils::web::WebProgress>::map<BetterInfoCache::getUploadDate(int, UploadDateDelegate*)::$_0, geode::utils::web::WebProgress (*)(geode::utils::web::WebProgress*), void (*)()>(BetterInfoCache::getUploadDate(int, UploadDateDelegate*)::$_0&&, geode::utils::web::WebProgress (*&&)(geode::utils::web::WebProgress*), void (*&&)(), std::__ndk1::basic_string_view<char, std::__ndk1::char_traits<char> >) const::{lambda(geode::Task<geode::utils::web::WebResponse, geode::utils::web::WebProgress>::Event*)#1}, std::__ndk1::allocator<geode::Task<geode::utils::web::WebResponse, geode::utils::web::WebProgress>::map<BetterInfoCache::getUploadDate(int, UploadDateDelegate*)::$_0, geode::utils::web::WebProgress (*)(geode::utils::web::WebProgress*), void (*)()>(BetterInfoCache::getUploadDate(int, UploadDateDelegate*)::$_0&&, geode::utils::web::WebProgress (*&&)(geode::utils::web::WebProgress*), void (*&&)(), std::__ndk1::basic_string_view<char, std::__ndk1::char_traits<char> >) const::{lambda(geode::Task<geode::utils::web::WebResponse, geode::utils::web::WebProgress>::Event*)#1}>, void (geode::Task<geode::utils::web::WebResponse, geode::utils::web::WebProgress>::Event*)>::__clone() const
PUBLIC 11db58 0 std::__ndk1::__function::__func<geode::Task<geode::utils::web::WebResponse, geode::utils::web::WebProgress>::map<BetterInfoCache::getUploadDate(int, UploadDateDelegate*)::$_0, geode::utils::web::WebProgress (*)(geode::utils::web::WebProgress*), void (*)()>(BetterInfoCache::getUploadDate(int, UploadDateDelegate*)::$_0&&, geode::utils::web::WebProgress (*&&)(geode::utils::web::WebProgress*), void (*&&)(), std::__ndk1::basic_string_view<char, std::__ndk1::char_traits<char> >) const::{lambda(geode::Task<geode::utils::web::WebResponse, geode::utils::web::WebProgress>::Event*)#1}, std::__ndk1::allocator<geode::Task<geode::utils::web::WebResponse, geode::utils::web::WebProgress>::map<BetterInfoCache::getUploadDate(int, UploadDateDelegate*)::$_0, geode::utils::web::WebProgress (*)(geode::utils::web::WebProgress*), void (*)()>(BetterInfoCache::getUploadDate(int, UploadDateDelegate*)::$_0&&, geode::utils::web::WebProgress (*&&)(geode::utils::web::WebProgress*), void (*&&)(), std::__ndk1::basic_string_view<char, std::__ndk1::char_traits<char> >) const::{lambda(geode::Task<geode::utils::web::WebResponse, geode::utils::web::WebProgress>::Event*)#1}>, void (geode::Task<geode::utils::web::WebResponse, geode::utils::web::WebProgress>::Event*)>::__clone(std::__ndk1::__function::__base<void (geode::Task<geode::utils::web::WebResponse, geode::utils::web::WebProgress>::Event*)>*) const
PUBLIC 11dbac 0 std::__ndk1::__function::__func<geode::Task<geode::utils::web::WebResponse, geode::utils::web::WebProgress>::map<BetterInfoCache::getUploadDate(int, UploadDateDelegate*)::$_0, geode::utils::web::WebProgress (*)(geode::utils::web::WebProgress*), void (*)()>(BetterInfoCache::getUploadDate(int, UploadDateDelegate*)::$_0&&, geode::utils::web::WebProgress (*&&)(geode::utils::web::WebProgress*), void (*&&)(), std::__ndk1::basic_string_view<char, std::__ndk1::char_traits<char> >) const::{lambda(geode::Task<geode::utils::web::WebResponse, geode::utils::web::WebProgress>::Event*)#1}, std::__ndk1::allocator<geode::Task<geode::utils::web::WebResponse, geode::utils::web::WebProgress>::map<BetterInfoCache::getUploadDate(int, UploadDateDelegate*)::$_0, geode::utils::web::WebProgress (*)(geode::utils::web::WebProgress*), void (*)()>(BetterInfoCache::getUploadDate(int, UploadDateDelegate*)::$_0&&, geode::utils::web::WebProgress (*&&)(geode::utils::web::WebProgress*), void (*&&)(), std::__ndk1::basic_string_view<char, std::__ndk1::char_traits<char> >) const::{lambda(geode::Task<geode::utils::web::WebResponse, geode::utils::web::WebProgress>::Event*)#1}>, void (geode::Task<geode::utils::web::WebResponse, geode::utils::web::WebProgress>::Event*)>::destroy()
PUBLIC 11dbbc 0 std::__ndk1::__function::__func<geode::Task<geode::utils::web::WebResponse, geode::utils::web::WebProgress>::map<BetterInfoCache::getUploadDate(int, UploadDateDelegate*)::$_0, geode::utils::web::WebProgress (*)(geode::utils::web::WebProgress*), void (*)()>(BetterInfoCache::getUploadDate(int, UploadDateDelegate*)::$_0&&, geode::utils::web::WebProgress (*&&)(geode::utils::web::WebProgress*), void (*&&)(), std::__ndk1::basic_string_view<char, std::__ndk1::char_traits<char> >) const::{lambda(geode::Task<geode::utils::web::WebResponse, geode::utils::web::WebProgress>::Event*)#1}, std::__ndk1::allocator<geode::Task<geode::utils::web::WebResponse, geode::utils::web::WebProgress>::map<BetterInfoCache::getUploadDate(int, UploadDateDelegate*)::$_0, geode::utils::web::WebProgress (*)(geode::utils::web::WebProgress*), void (*)()>(BetterInfoCache::getUploadDate(int, UploadDateDelegate*)::$_0&&, geode::utils::web::WebProgress (*&&)(geode::utils::web::WebProgress*), void (*&&)(), std::__ndk1::basic_string_view<char, std::__ndk1::char_traits<char> >) const::{lambda(geode::Task<geode::utils::web::WebResponse, geode::utils::web::WebProgress>::Event*)#1}>, void (geode::Task<geode::utils::web::WebResponse, geode::utils::web::WebProgress>::Event*)>::destroy_deallocate()
PUBLIC 11dbec 0 std::__ndk1::__function::__func<geode::Task<geode::utils::web::WebResponse, geode::utils::web::WebProgress>::map<BetterInfoCache::getUploadDate(int, UploadDateDelegate*)::$_0, geode::utils::web::WebProgress (*)(geode::utils::web::WebProgress*), void (*)()>(BetterInfoCache::getUploadDate(int, UploadDateDelegate*)::$_0&&, geode::utils::web::WebProgress (*&&)(geode::utils::web::WebProgress*), void (*&&)(), std::__ndk1::basic_string_view<char, std::__ndk1::char_traits<char> >) const::{lambda(geode::Task<geode::utils::web::WebResponse, geode::utils::web::WebProgress>::Event*)#1}, std::__ndk1::allocator<geode::Task<geode::utils::web::WebResponse, geode::utils::web::WebProgress>::map<BetterInfoCache::getUploadDate(int, UploadDateDelegate*)::$_0, geode::utils::web::WebProgress (*)(geode::utils::web::WebProgress*), void (*)()>(BetterInfoCache::getUploadDate(int, UploadDateDelegate*)::$_0&&, geode::utils::web::WebProgress (*&&)(geode::utils::web::WebProgress*), void (*&&)(), std::__ndk1::basic_string_view<char, std::__ndk1::char_traits<char> >) const::{lambda(geode::Task<geode::utils::web::WebResponse, geode::utils::web::WebProgress>::Event*)#1}>, void (geode::Task<geode::utils::web::WebResponse, geode::utils::web::WebProgress>::Event*)>::operator()(geode::Task<geode::utils::web::WebResponse, geode::utils::web::WebProgress>::Event*&&)
PUBLIC 11ddc0 0 std::__ndk1::__function::__func<geode::Task<geode::utils::web::WebResponse, geode::utils::web::WebProgress>::map<BetterInfoCache::getUploadDate(int, UploadDateDelegate*)::$_0, geode::utils::web::WebProgress (*)(geode::utils::web::WebProgress*), void (*)()>(BetterInfoCache::getUploadDate(int, UploadDateDelegate*)::$_0&&, geode::utils::web::WebProgress (*&&)(geode::utils::web::WebProgress*), void (*&&)(), std::__ndk1::basic_string_view<char, std::__ndk1::char_traits<char> >) const::{lambda(geode::Task<geode::utils::web::WebResponse, geode::utils::web::WebProgress>::Event*)#1}, std::__ndk1::allocator<geode::Task<geode::utils::web::WebResponse, geode::utils::web::WebProgress>::map<BetterInfoCache::getUploadDate(int, UploadDateDelegate*)::$_0, geode::utils::web::WebProgress (*)(geode::utils::web::WebProgress*), void (*)()>(BetterInfoCache::getUploadDate(int, UploadDateDelegate*)::$_0&&, geode::utils::web::WebProgress (*&&)(geode::utils::web::WebProgress*), void (*&&)(), std::__ndk1::basic_string_view<char, std::__ndk1::char_traits<char> >) const::{lambda(geode::Task<geode::utils::web::WebResponse, geode::utils::web::WebProgress>::Event*)#1}>, void (geode::Task<geode::utils::web::WebResponse, geode::utils::web::WebProgress>::Event*)>::target(std::type_info const&) const
PUBLIC 11dddc 0 std::__ndk1::__function::__func<geode::Task<geode::utils::web::WebResponse, geode::utils::web::WebProgress>::map<BetterInfoCache::getUploadDate(int, UploadDateDelegate*)::$_0, geode::utils::web::WebProgress (*)(geode::utils::web::WebProgress*), void (*)()>(BetterInfoCache::getUploadDate(int, UploadDateDelegate*)::$_0&&, geode::utils::web::WebProgress (*&&)(geode::utils::web::WebProgress*), void (*&&)(), std::__ndk1::basic_string_view<char, std::__ndk1::char_traits<char> >) const::{lambda(geode::Task<geode::utils::web::WebResponse, geode::utils::web::WebProgress>::Event*)#1}, std::__ndk1::allocator<geode::Task<geode::utils::web::WebResponse, geode::utils::web::WebProgress>::map<BetterInfoCache::getUploadDate(int, UploadDateDelegate*)::$_0, geode::utils::web::WebProgress (*)(geode::utils::web::WebProgress*), void (*)()>(BetterInfoCache::getUploadDate(int, UploadDateDelegate*)::$_0&&, geode::utils::web::WebProgress (*&&)(geode::utils::web::WebProgress*), void (*&&)(), std::__ndk1::basic_string_view<char, std::__ndk1::char_traits<char> >) const::{lambda(geode::Task<geode::utils::web::WebResponse, geode::utils::web::WebProgress>::Event*)#1}>, void (geode::Task<geode::utils::web::WebResponse, geode::utils::web::WebProgress>::Event*)>::target_type() const
PUBLIC 11dde8 0 geode::Task<geode::utils::web::WebResponse, geode::utils::web::WebProgress>::progress(std::__ndk1::shared_ptr<geode::Task<geode::utils::web::WebResponse, geode::utils::web::WebProgress>::Handle>, geode::utils::web::WebProgress&&)
PUBLIC 11df64 0 geode::utils::web::WebProgress::~WebProgress()
PUBLIC 11dfb4 0 geode::Task<geode::utils::web::WebResponse, geode::utils::web::WebProgress>::progress(std::__ndk1::shared_ptr<geode::Task<geode::utils::web::WebResponse, geode::utils::web::WebProgress>::Handle>, geode::utils::web::WebProgress&&)::{lambda()#1}::~{lambda()#1}()
PUBLIC 11e044 0 std::__ndk1::__function::__func<geode::Task<geode::utils::web::WebResponse, geode::utils::web::WebProgress>::progress(std::__ndk1::shared_ptr<geode::Task<geode::utils::web::WebResponse, geode::utils::web::WebProgress>::Handle>, geode::utils::web::WebProgress&&)::{lambda()#1}, std::__ndk1::allocator<geode::Task<geode::utils::web::WebResponse, geode::utils::web::WebProgress>::progress(std::__ndk1::shared_ptr<geode::Task<geode::utils::web::WebResponse, geode::utils::web::WebProgress>::Handle>, geode::utils::web::WebProgress&&)::{lambda()#1}>, void ()>::~__func()
PUBLIC 11e0e0 0 std::__ndk1::__function::__func<geode::Task<geode::utils::web::WebResponse, geode::utils::web::WebProgress>::progress(std::__ndk1::shared_ptr<geode::Task<geode::utils::web::WebResponse, geode::utils::web::WebProgress>::Handle>, geode::utils::web::WebProgress&&)::{lambda()#1}, std::__ndk1::allocator<geode::Task<geode::utils::web::WebResponse, geode::utils::web::WebProgress>::progress(std::__ndk1::shared_ptr<geode::Task<geode::utils::web::WebResponse, geode::utils::web::WebProgress>::Handle>, geode::utils::web::WebProgress&&)::{lambda()#1}>, void ()>::~__func()
PUBLIC 11e17c 0 std::__ndk1::__function::__func<geode::Task<geode::utils::web::WebResponse, geode::utils::web::WebProgress>::progress(std::__ndk1::shared_ptr<geode::Task<geode::utils::web::WebResponse, geode::utils::web::WebProgress>::Handle>, geode::utils::web::WebProgress&&)::{lambda()#1}, std::__ndk1::allocator<geode::Task<geode::utils::web::WebResponse, geode::utils::web::WebProgress>::progress(std::__ndk1::shared_ptr<geode::Task<geode::utils::web::WebResponse, geode::utils::web::WebProgress>::Handle>, geode::utils::web::WebProgress&&)::{lambda()#1}>, void ()>::__clone() const
PUBLIC 11e1e4 0 std::__ndk1::__function::__func<geode::Task<geode::utils::web::WebResponse, geode::utils::web::WebProgress>::progress(std::__ndk1::shared_ptr<geode::Task<geode::utils::web::WebResponse, geode::utils::web::WebProgress>::Handle>, geode::utils::web::WebProgress&&)::{lambda()#1}, std::__ndk1::allocator<geode::Task<geode::utils::web::WebResponse, geode::utils::web::WebProgress>::progress(std::__ndk1::shared_ptr<geode::Task<geode::utils::web::WebResponse, geode::utils::web::WebProgress>::Handle>, geode::utils::web::WebProgress&&)::{lambda()#1}>, void ()>::__clone(std::__ndk1::__function::__base<void ()>*) const
PUBLIC 11e240 0 std::__ndk1::__function::__func<geode::Task<geode::utils::web::WebResponse, geode::utils::web::WebProgress>::progress(std::__ndk1::shared_ptr<geode::Task<geode::utils::web::WebResponse, geode::utils::web::WebProgress>::Handle>, geode::utils::web::WebProgress&&)::{lambda()#1}, std::__ndk1::allocator<geode::Task<geode::utils::web::WebResponse, geode::utils::web::WebProgress>::progress(std::__ndk1::shared_ptr<geode::Task<geode::utils::web::WebResponse, geode::utils::web::WebProgress>::Handle>, geode::utils::web::WebProgress&&)::{lambda()#1}>, void ()>::destroy()
PUBLIC 11e2d0 0 std::__ndk1::__function::__func<geode::Task<geode::utils::web::WebResponse, geode::utils::web::WebProgress>::progress(std::__ndk1::shared_ptr<geode::Task<geode::utils::web::WebResponse, geode::utils::web::WebProgress>::Handle>, geode::utils::web::WebProgress&&)::{lambda()#1}, std::__ndk1::allocator<geode::Task<geode::utils::web::WebResponse, geode::utils::web::WebProgress>::progress(std::__ndk1::shared_ptr<geode::Task<geode::utils::web::WebResponse, geode::utils::web::WebProgress>::Handle>, geode::utils::web::WebProgress&&)::{lambda()#1}>, void ()>::destroy_deallocate()
PUBLIC 11e360 0 std::__ndk1::__function::__func<geode::Task<geode::utils::web::WebResponse, geode::utils::web::WebProgress>::progress(std::__ndk1::shared_ptr<geode::Task<geode::utils::web::WebResponse, geode::utils::web::WebProgress>::Handle>, geode::utils::web::WebProgress&&)::{lambda()#1}, std::__ndk1::allocator<geode::Task<geode::utils::web::WebResponse, geode::utils::web::WebProgress>::progress(std::__ndk1::shared_ptr<geode::Task<geode::utils::web::WebResponse, geode::utils::web::WebProgress>::Handle>, geode::utils::web::WebProgress&&)::{lambda()#1}>, void ()>::operator()()
PUBLIC 11e368 0 std::__ndk1::__function::__func<geode::Task<geode::utils::web::WebResponse, geode::utils::web::WebProgress>::progress(std::__ndk1::shared_ptr<geode::Task<geode::utils::web::WebResponse, geode::utils::web::WebProgress>::Handle>, geode::utils::web::WebProgress&&)::{lambda()#1}, std::__ndk1::allocator<geode::Task<geode::utils::web::WebResponse, geode::utils::web::WebProgress>::progress(std::__ndk1::shared_ptr<geode::Task<geode::utils::web::WebResponse, geode::utils::web::WebProgress>::Handle>, geode::utils::web::WebProgress&&)::{lambda()#1}>, void ()>::target(std::type_info const&) const
PUBLIC 11e384 0 std::__ndk1::__function::__func<geode::Task<geode::utils::web::WebResponse, geode::utils::web::WebProgress>::progress(std::__ndk1::shared_ptr<geode::Task<geode::utils::web::WebResponse, geode::utils::web::WebProgress>::Handle>, geode::utils::web::WebProgress&&)::{lambda()#1}, std::__ndk1::allocator<geode::Task<geode::utils::web::WebResponse, geode::utils::web::WebProgress>::progress(std::__ndk1::shared_ptr<geode::Task<geode::utils::web::WebResponse, geode::utils::web::WebProgress>::Handle>, geode::utils::web::WebProgress&&)::{lambda()#1}>, void ()>::target_type() const
PUBLIC 11e390 0 geode::Task<geode::utils::web::WebResponse, geode::utils::web::WebProgress>::progress(std::__ndk1::shared_ptr<geode::Task<geode::utils::web::WebResponse, geode::utils::web::WebProgress>::Handle>, geode::utils::web::WebProgress&&)::{lambda()#1}::operator()()
PUBLIC 11e52c 0 geode::Task<geode::utils::web::WebResponse, geode::utils::web::WebProgress>::setListener(geode::EventListenerProtocol*)
PUBLIC 11e748 0 geode::EventListener<geode::Task<geode::utils::web::WebResponse, geode::utils::web::WebProgress> >::getPool() const
PUBLIC 11e74c 0 geode::EventListener<geode::Task<geode::utils::web::WebResponse, geode::utils::web::WebProgress> >::handle(geode::Event*)
PUBLIC 11e918 0 geode::EventListener<geode::Task<geode::utils::web::WebResponse, geode::utils::web::WebProgress> >::~EventListener()
PUBLIC 11e9b4 0 geode::EventListener<geode::Task<geode::utils::web::WebResponse, geode::utils::web::WebProgress> >::~EventListener()
PUBLIC 11ea58 0 geode::Task<geode::utils::web::WebResponse, geode::utils::web::WebProgress>::setListener(geode::EventListenerProtocol*)::{lambda()#1}::~{lambda()#1}()
PUBLIC 11eaa8 0 geode::Task<geode::utils::web::WebResponse, geode::utils::web::WebProgress>::setListener(geode::EventListenerProtocol*)::{lambda()#2}::~{lambda()#2}()
PUBLIC 11eaf8 0 std::__ndk1::__function::__func<geode::Task<geode::utils::web::WebResponse, geode::utils::web::WebProgress>::setListener(geode::EventListenerProtocol*)::{lambda()#1}, std::__ndk1::allocator<geode::Task<geode::utils::web::WebResponse, geode::utils::web::WebProgress>::setListener(geode::EventListenerProtocol*)::{lambda()#1}>, void ()>::~__func()
PUBLIC 11eb54 0 std::__ndk1::__function::__func<geode::Task<geode::utils::web::WebResponse, geode::utils::web::WebProgress>::setListener(geode::EventListenerProtocol*)::{lambda()#1}, std::__ndk1::allocator<geode::Task<geode::utils::web::WebResponse, geode::utils::web::WebProgress>::setListener(geode::EventListenerProtocol*)::{lambda()#1}>, void ()>::~__func()
PUBLIC 11ebc0 0 std::__ndk1::__function::__func<geode::Task<geode::utils::web::WebResponse, geode::utils::web::WebProgress>::setListener(geode::EventListenerProtocol*)::{lambda()#1}, std::__ndk1::allocator<geode::Task<geode::utils::web::WebResponse, geode::utils::web::WebProgress>::setListener(geode::EventListenerProtocol*)::{lambda()#1}>, void ()>::__clone() const
PUBLIC 11ec18 0 std::__ndk1::__function::__func<geode::Task<geode::utils::web::WebResponse, geode::utils::web::WebProgress>::setListener(geode::EventListenerProtocol*)::{lambda()#1}, std::__ndk1::allocator<geode::Task<geode::utils::web::WebResponse, geode::utils::web::WebProgress>::setListener(geode::EventListenerProtocol*)::{lambda()#1}>, void ()>::__clone(std::__ndk1::__function::__base<void ()>*) const
PUBLIC 11ec64 0 std::__ndk1::__function::__func<geode::Task<geode::utils::web::WebResponse, geode::utils::web::WebProgress>::setListener(geode::EventListenerProtocol*)::{lambda()#1}, std::__ndk1::allocator<geode::Task<geode::utils::web::WebResponse, geode::utils::web::WebProgress>::setListener(geode::EventListenerProtocol*)::{lambda()#1}>, void ()>::destroy()
PUBLIC 11ecb4 0 std::__ndk1::__function::__func<geode::Task<geode::utils::web::WebResponse, geode::utils::web::WebProgress>::setListener(geode::EventListenerProtocol*)::{lambda()#1}, std::__ndk1::allocator<geode::Task<geode::utils::web::WebResponse, geode::utils::web::WebProgress>::setListener(geode::EventListenerProtocol*)::{lambda()#1}>, void ()>::destroy_deallocate()
PUBLIC 11ed14 0 std::__ndk1::__function::__func<geode::Task<geode::utils::web::WebResponse, geode::utils::web::WebProgress>::setListener(geode::EventListenerProtocol*)::{lambda()#1}, std::__ndk1::allocator<geode::Task<geode::utils::web::WebResponse, geode::utils::web::WebProgress>::setListener(geode::EventListenerProtocol*)::{lambda()#1}>, void ()>::operator()()
PUBLIC 11ed1c 0 std::__ndk1::__function::__func<geode::Task<geode::utils::web::WebResponse, geode::utils::web::WebProgress>::setListener(geode::EventListenerProtocol*)::{lambda()#1}, std::__ndk1::allocator<geode::Task<geode::utils::web::WebResponse, geode::utils::web::WebProgress>::setListener(geode::EventListenerProtocol*)::{lambda()#1}>, void ()>::target(std::type_info const&) const
PUBLIC 11ed38 0 std::__ndk1::__function::__func<geode::Task<geode::utils::web::WebResponse, geode::utils::web::WebProgress>::setListener(geode::EventListenerProtocol*)::{lambda()#1}, std::__ndk1::allocator<geode::Task<geode::utils::web::WebResponse, geode::utils::web::WebProgress>::setListener(geode::EventListenerProtocol*)::{lambda()#1}>, void ()>::target_type() const
PUBLIC 11ed44 0 geode::Task<geode::utils::web::WebResponse, geode::utils::web::WebProgress>::setListener(geode::EventListenerProtocol*)::{lambda()#1}::operator()() const
PUBLIC 11eedc 0 std::__ndk1::__function::__func<geode::Task<geode::utils::web::WebResponse, geode::utils::web::WebProgress>::setListener(geode::EventListenerProtocol*)::{lambda()#2}, std::__ndk1::allocator<geode::Task<geode::utils::web::WebResponse, geode::utils::web::WebProgress>::setListener(geode::EventListenerProtocol*)::{lambda()#2}>, void ()>::~__func()
PUBLIC 11ef38 0 std::__ndk1::__function::__func<geode::Task<geode::utils::web::WebResponse, geode::utils::web::WebProgress>::setListener(geode::EventListenerProtocol*)::{lambda()#2}, std::__ndk1::allocator<geode::Task<geode::utils::web::WebResponse, geode::utils::web::WebProgress>::setListener(geode::EventListenerProtocol*)::{lambda()#2}>, void ()>::~__func()
PUBLIC 11efa4 0 std::__ndk1::__function::__func<geode::Task<geode::utils::web::WebResponse, geode::utils::web::WebProgress>::setListener(geode::EventListenerProtocol*)::{lambda()#2}, std::__ndk1::allocator<geode::Task<geode::utils::web::WebResponse, geode::utils::web::WebProgress>::setListener(geode::EventListenerProtocol*)::{lambda()#2}>, void ()>::__clone() const
PUBLIC 11effc 0 std::__ndk1::__function::__func<geode::Task<geode::utils::web::WebResponse, geode::utils::web::WebProgress>::setListener(geode::EventListenerProtocol*)::{lambda()#2}, std::__ndk1::allocator<geode::Task<geode::utils::web::WebResponse, geode::utils::web::WebProgress>::setListener(geode::EventListenerProtocol*)::{lambda()#2}>, void ()>::__clone(std::__ndk1::__function::__base<void ()>*) const
PUBLIC 11f048 0 std::__ndk1::__function::__func<geode::Task<geode::utils::web::WebResponse, geode::utils::web::WebProgress>::setListener(geode::EventListenerProtocol*)::{lambda()#2}, std::__ndk1::allocator<geode::Task<geode::utils::web::WebResponse, geode::utils::web::WebProgress>::setListener(geode::EventListenerProtocol*)::{lambda()#2}>, void ()>::destroy()
PUBLIC 11f098 0 std::__ndk1::__function::__func<geode::Task<geode::utils::web::WebResponse, geode::utils::web::WebProgress>::setListener(geode::EventListenerProtocol*)::{lambda()#2}, std::__ndk1::allocator<geode::Task<geode::utils::web::WebResponse, geode::utils::web::WebProgress>::setListener(geode::EventListenerProtocol*)::{lambda()#2}>, void ()>::destroy_deallocate()
PUBLIC 11f0f8 0 std::__ndk1::__function::__func<geode::Task<geode::utils::web::WebResponse, geode::utils::web::WebProgress>::setListener(geode::EventListenerProtocol*)::{lambda()#2}, std::__ndk1::allocator<geode::Task<geode::utils::web::WebResponse, geode::utils::web::WebProgress>::setListener(geode::EventListenerProtocol*)::{lambda()#2}>, void ()>::operator()()
PUBLIC 11f100 0 std::__ndk1::__function::__func<geode::Task<geode::utils::web::WebResponse, geode::utils::web::WebProgress>::setListener(geode::EventListenerProtocol*)::{lambda()#2}, std::__ndk1::allocator<geode::Task<geode::utils::web::WebResponse, geode::utils::web::WebProgress>::setListener(geode::EventListenerProtocol*)::{lambda()#2}>, void ()>::target(std::type_info const&) const
PUBLIC 11f11c 0 std::__ndk1::__function::__func<geode::Task<geode::utils::web::WebResponse, geode::utils::web::WebProgress>::setListener(geode::EventListenerProtocol*)::{lambda()#2}, std::__ndk1::allocator<geode::Task<geode::utils::web::WebResponse, geode::utils::web::WebProgress>::setListener(geode::EventListenerProtocol*)::{lambda()#2}>, void ()>::target_type() const
PUBLIC 11f128 0 geode::Task<geode::utils::web::WebResponse, geode::utils::web::WebProgress>::setListener(geode::EventListenerProtocol*)::{lambda()#2}::operator()() const
PUBLIC 11f2b0 0 geode::Task<geode::utils::web::WebResponse, geode::utils::web::WebProgress>::map<BetterInfoCache::getUploadDate(int, UploadDateDelegate*)::$_0, geode::utils::web::WebProgress (*)(geode::utils::web::WebProgress*), void (*)()>(BetterInfoCache::getUploadDate(int, UploadDateDelegate*)::$_0&&, geode::utils::web::WebProgress (*&&)(geode::utils::web::WebProgress*), void (*&&)(), std::__ndk1::basic_string_view<char, std::__ndk1::char_traits<char> >) const::{lambda(void*)#1}::__invoke(void*)
PUBLIC 11f2c4 0 geode::Task<geode::utils::web::WebResponse, geode::utils::web::WebProgress>::map<BetterInfoCache::getUploadDate(int, UploadDateDelegate*)::$_0, geode::utils::web::WebProgress (*)(geode::utils::web::WebProgress*), void (*)()>(BetterInfoCache::getUploadDate(int, UploadDateDelegate*)::$_0&&, geode::utils::web::WebProgress (*&&)(geode::utils::web::WebProgress*), void (*&&)(), std::__ndk1::basic_string_view<char, std::__ndk1::char_traits<char> >) const::{lambda(void*)#2}::__invoke(void*)
PUBLIC 11f37c 0 geode::Task<geode::utils::web::WebResponse, geode::utils::web::WebProgress>::map<BetterInfoCache::getUploadDate(int, UploadDateDelegate*)::$_0, geode::utils::web::WebProgress (*)(geode::utils::web::WebProgress*)>(BetterInfoCache::getUploadDate(int, UploadDateDelegate*)::$_0&&, geode::utils::web::WebProgress (*&&)(geode::utils::web::WebProgress*), std::__ndk1::basic_string_view<char, std::__ndk1::char_traits<char> >) const::{lambda()#1}::__invoke()
PUBLIC 11f380 0 _ZZNK5geode4TaskINS_5utils3web11WebResponseENS2_11WebProgressEE3mapIZN15BetterInfoCache13getUploadDateEiP18UploadDateDelegateE3$_0Qsr3stdE18copy_constructibleIT0_EEEDaOT_NSt6__ndk117basic_string_viewIcNSE_11char_traitsIcEEEEENUlPS4_E_8__invokeESJ_
PUBLIC 11f3a8 0 std::__ndk1::__hash_table<int, std::__ndk1::hash<int>, std::__ndk1::equal_to<int>, std::__ndk1::allocator<int> >::~__hash_table()
PUBLIC 11f3f4 0 std::__ndk1::__hash_table<std::__ndk1::__hash_value_type<int, int>, std::__ndk1::__unordered_map_hasher<int, std::__ndk1::__hash_value_type<int, int>, std::__ndk1::hash<int>, std::__ndk1::equal_to<int>, true>, std::__ndk1::__unordered_map_equal<int, std::__ndk1::__hash_value_type<int, int>, std::__ndk1::equal_to<int>, std::__ndk1::hash<int>, true>, std::__ndk1::allocator<std::__ndk1::__hash_value_type<int, int> > >::__emplace_unique_key_args<int, std::__ndk1::piecewise_construct_t const&, std::__ndk1::tuple<int&&>, std::__ndk1::tuple<> >(int const&, std::__ndk1::piecewise_construct_t const&, std::__ndk1::tuple<int&&>, std::__ndk1::tuple<>)
PUBLIC 11f71c 0 std::__ndk1::__hash_table<std::__ndk1::__hash_value_type<int, int>, std::__ndk1::__unordered_map_hasher<int, std::__ndk1::__hash_value_type<int, int>, std::__ndk1::hash<int>, std::__ndk1::equal_to<int>, true>, std::__ndk1::__unordered_map_equal<int, std::__ndk1::__hash_value_type<int, int>, std::__ndk1::equal_to<int>, std::__ndk1::hash<int>, true>, std::__ndk1::allocator<std::__ndk1::__hash_value_type<int, int> > >::__do_rehash<true>(unsigned long)
PUBLIC 11f8c8 0 std::__ndk1::__hash_table<int, std::__ndk1::hash<int>, std::__ndk1::equal_to<int>, std::__ndk1::allocator<int> >::__emplace_unique_key_args<int, int>(int const&, int&&)
PUBLIC 11fbb0 0 std::__ndk1::__hash_table<int, std::__ndk1::hash<int>, std::__ndk1::equal_to<int>, std::__ndk1::allocator<int> >::__do_rehash<true>(unsigned long)
PUBLIC 11fd5c 0 std::__ndk1::__thread_proxy[abi:ne190000]<std::__ndk1::tuple<std::__ndk1::unique_ptr<std::__ndk1::__thread_struct, std::__ndk1::default_delete<std::__ndk1::unique_ptr> >, BetterInfoCache::cacheFollowedCreators()::$_0> >(std::__ndk1::tuple<std::__ndk1::unique_ptr<std::__ndk1::__thread_struct, std::__ndk1::default_delete<std::__ndk1::unique_ptr> >, BetterInfoCache::cacheFollowedCreators()::$_0>)
PUBLIC 1200fc 0 std::__ndk1::unique_ptr<std::__ndk1::tuple<std::__ndk1::unique_ptr<std::__ndk1::__thread_struct, std::__ndk1::default_delete<std::__ndk1::__thread_struct> >, BetterInfoCache::cacheFollowedCreators()::$_0>, std::__ndk1::default_delete<std::__ndk1::tuple<std::__ndk1::unique_ptr<std::__ndk1::__thread_struct, std::__ndk1::default_delete<std::__ndk1::__thread_struct> >, BetterInfoCache::cacheFollowedCreators()::$_0> > >::~unique_ptr[abi:ne190000]()
PUBLIC 120174 0 std::__ndk1::__function::__func<BetterInfoCache::cacheFollowedCreators()::$_0::operator()() const::{lambda()#1}, std::__ndk1::allocator<BetterInfoCache::cacheFollowedCreators()::$_0::operator()() const::{lambda()#1}>, void ()>::~__func()
PUBLIC 120178 0 std::__ndk1::__function::__func<BetterInfoCache::cacheFollowedCreators()::$_0::operator()() const::{lambda()#1}, std::__ndk1::allocator<BetterInfoCache::cacheFollowedCreators()::$_0::operator()() const::{lambda()#1}>, void ()>::__clone() const
PUBLIC 1201b0 0 std::__ndk1::__function::__func<BetterInfoCache::cacheFollowedCreators()::$_0::operator()() const::{lambda()#1}, std::__ndk1::allocator<BetterInfoCache::cacheFollowedCreators()::$_0::operator()() const::{lambda()#1}>, void ()>::__clone(std::__ndk1::__function::__base<void ()>*) const
PUBLIC 1201c8 0 std::__ndk1::__function::__func<BetterInfoCache::cacheFollowedCreators()::$_0::operator()() const::{lambda()#1}, std::__ndk1::allocator<BetterInfoCache::cacheFollowedCreators()::$_0::operator()() const::{lambda()#1}>, void ()>::destroy()
PUBLIC 1201cc 0 std::__ndk1::__function::__func<BetterInfoCache::cacheFollowedCreators()::$_0::operator()() const::{lambda()#1}, std::__ndk1::allocator<BetterInfoCache::cacheFollowedCreators()::$_0::operator()() const::{lambda()#1}>, void ()>::destroy_deallocate()
PUBLIC 1201d0 0 std::__ndk1::__function::__func<BetterInfoCache::cacheFollowedCreators()::$_0::operator()() const::{lambda()#1}, std::__ndk1::allocator<BetterInfoCache::cacheFollowedCreators()::$_0::operator()() const::{lambda()#1}>, void ()>::operator()()
PUBLIC 1202a4 0 std::__ndk1::__function::__func<BetterInfoCache::cacheFollowedCreators()::$_0::operator()() const::{lambda()#1}, std::__ndk1::allocator<BetterInfoCache::cacheFollowedCreators()::$_0::operator()() const::{lambda()#1}>, void ()>::target(std::type_info const&) const
PUBLIC 1202c0 0 std::__ndk1::__function::__func<BetterInfoCache::cacheFollowedCreators()::$_0::operator()() const::{lambda()#1}, std::__ndk1::allocator<BetterInfoCache::cacheFollowedCreators()::$_0::operator()() const::{lambda()#1}>, void ()>::target_type() const
PUBLIC 1202cc 0 std::__ndk1::__function::__func<BetterInfoCache::cacheFollowedCreators()::$_0::operator()() const::{lambda()#2}, std::__ndk1::allocator<BetterInfoCache::cacheFollowedCreators()::$_0::operator()() const::{lambda()#2}>, void ()>::~__func()
PUBLIC 1202d0 0 std::__ndk1::__function::__func<BetterInfoCache::cacheFollowedCreators()::$_0::operator()() const::{lambda()#2}, std::__ndk1::allocator<BetterInfoCache::cacheFollowedCreators()::$_0::operator()() const::{lambda()#2}>, void ()>::__clone() const
PUBLIC 120304 0 std::__ndk1::__function::__func<BetterInfoCache::cacheFollowedCreators()::$_0::operator()() const::{lambda()#2}, std::__ndk1::allocator<BetterInfoCache::cacheFollowedCreators()::$_0::operator()() const::{lambda()#2}>, void ()>::__clone(std::__ndk1::__function::__base<void ()>*) const
PUBLIC 120318 0 std::__ndk1::__function::__func<BetterInfoCache::cacheFollowedCreators()::$_0::operator()() const::{lambda()#2}, std::__ndk1::allocator<BetterInfoCache::cacheFollowedCreators()::$_0::operator()() const::{lambda()#2}>, void ()>::destroy()
PUBLIC 12031c 0 std::__ndk1::__function::__func<BetterInfoCache::cacheFollowedCreators()::$_0::operator()() const::{lambda()#2}, std::__ndk1::allocator<BetterInfoCache::cacheFollowedCreators()::$_0::operator()() const::{lambda()#2}>, void ()>::destroy_deallocate()
PUBLIC 120320 0 std::__ndk1::__function::__func<BetterInfoCache::cacheFollowedCreators()::$_0::operator()() const::{lambda()#2}, std::__ndk1::allocator<BetterInfoCache::cacheFollowedCreators()::$_0::operator()() const::{lambda()#2}>, void ()>::operator()()
PUBLIC 1203e8 0 std::__ndk1::__function::__func<BetterInfoCache::cacheFollowedCreators()::$_0::operator()() const::{lambda()#2}, std::__ndk1::allocator<BetterInfoCache::cacheFollowedCreators()::$_0::operator()() const::{lambda()#2}>, void ()>::target(std::type_info const&) const
PUBLIC 120404 0 std::__ndk1::__function::__func<BetterInfoCache::cacheFollowedCreators()::$_0::operator()() const::{lambda()#2}, std::__ndk1::allocator<BetterInfoCache::cacheFollowedCreators()::$_0::operator()() const::{lambda()#2}>, void ()>::target_type() const
PUBLIC 120410 0 std::__ndk1::__thread_proxy[abi:ne190000]<std::__ndk1::tuple<std::__ndk1::unique_ptr<std::__ndk1::__thread_struct, std::__ndk1::default_delete<std::__ndk1::unique_ptr> >, BetterInfoCache::cacheScore(GJUserScore*)::$_0> >(std::__ndk1::tuple<std::__ndk1::unique_ptr<std::__ndk1::__thread_struct, std::__ndk1::default_delete<std::__ndk1::unique_ptr> >, BetterInfoCache::cacheScore(GJUserScore*)::$_0>)
PUBLIC 120608 0 std::__ndk1::unique_ptr<std::__ndk1::tuple<std::__ndk1::unique_ptr<std::__ndk1::__thread_struct, std::__ndk1::default_delete<std::__ndk1::__thread_struct> >, BetterInfoCache::cacheScore(GJUserScore*)::$_0>, std::__ndk1::default_delete<std::__ndk1::tuple<std::__ndk1::unique_ptr<std::__ndk1::__thread_struct, std::__ndk1::default_delete<std::__ndk1::__thread_struct> >, BetterInfoCache::cacheScore(GJUserScore*)::$_0> > >::~unique_ptr[abi:ne190000]()
PUBLIC 120660 0 std::__ndk1::unique_ptr<std::__ndk1::__hash_node<std::__ndk1::__hash_value_type<int, geode::Ref<GJLevelList> >, void*>, std::__ndk1::__hash_node_destructor<std::__ndk1::allocator<std::__ndk1::__hash_node<std::__ndk1::__hash_value_type<int, geode::Ref<GJLevelList> >, void*> > > >::~unique_ptr[abi:ne190000]()
PUBLIC 1206ac 0 std::__ndk1::__hash_table<std::__ndk1::__hash_value_type<int, geode::Ref<GJLevelList> >, std::__ndk1::__unordered_map_hasher<int, std::__ndk1::__hash_value_type<int, geode::Ref<GJLevelList> >, std::__ndk1::hash<int>, std::__ndk1::equal_to<int>, true>, std::__ndk1::__unordered_map_equal<int, std::__ndk1::__hash_value_type<int, geode::Ref<GJLevelList> >, std::__ndk1::equal_to<int>, std::__ndk1::hash<int>, true>, std::__ndk1::allocator<std::__ndk1::__hash_value_type<int, geode::Ref<GJLevelList> > > >::__do_rehash<true>(unsigned long)
PUBLIC 120858 0 std::__ndk1::__function::__func<BetterInfoCache::cacheRatedLists(int)::$_0, std::__ndk1::allocator<BetterInfoCache::cacheRatedLists(int)::$_0>, void (std::__ndk1::shared_ptr<std::__ndk1::vector<geode::Ref<GJLevelList>, std::__ndk1::allocator<geode::Ref<GJLevelList> > > >, bool)>::~__func()
PUBLIC 12085c 0 std::__ndk1::__function::__func<BetterInfoCache::cacheRatedLists(int)::$_0, std::__ndk1::allocator<BetterInfoCache::cacheRatedLists(int)::$_0>, void (std::__ndk1::shared_ptr<std::__ndk1::vector<geode::Ref<GJLevelList>, std::__ndk1::allocator<geode::Ref<GJLevelList> > > >, bool)>::__clone() const
PUBLIC 120894 0 std::__ndk1::__function::__func<BetterInfoCache::cacheRatedLists(int)::$_0, std::__ndk1::allocator<BetterInfoCache::cacheRatedLists(int)::$_0>, void (std::__ndk1::shared_ptr<std::__ndk1::vector<geode::Ref<GJLevelList>, std::__ndk1::allocator<geode::Ref<GJLevelList> > > >, bool)>::__clone(std::__ndk1::__function::__base<void (std::__ndk1::shared_ptr<std::__ndk1::vector<geode::Ref<GJLevelList>, std::__ndk1::allocator<geode::Ref<GJLevelList> > > >, bool)>*) const
PUBLIC 1208ac 0 std::__ndk1::__function::__func<BetterInfoCache::cacheRatedLists(int)::$_0, std::__ndk1::allocator<BetterInfoCache::cacheRatedLists(int)::$_0>, void (std::__ndk1::shared_ptr<std::__ndk1::vector<geode::Ref<GJLevelList>, std::__ndk1::allocator<geode::Ref<GJLevelList> > > >, bool)>::destroy()
PUBLIC 1208b0 0 std::__ndk1::__function::__func<BetterInfoCache::cacheRatedLists(int)::$_0, std::__ndk1::allocator<BetterInfoCache::cacheRatedLists(int)::$_0>, void (std::__ndk1::shared_ptr<std::__ndk1::vector<geode::Ref<GJLevelList>, std::__ndk1::allocator<geode::Ref<GJLevelList> > > >, bool)>::destroy_deallocate()
PUBLIC 1208b4 0 std::__ndk1::__function::__func<BetterInfoCache::cacheRatedLists(int)::$_0, std::__ndk1::allocator<BetterInfoCache::cacheRatedLists(int)::$_0>, void (std::__ndk1::shared_ptr<std::__ndk1::vector<geode::Ref<GJLevelList>, std::__ndk1::allocator<geode::Ref<GJLevelList> > > >, bool)>::operator()(std::__ndk1::shared_ptr<std::__ndk1::vector<geode::Ref<GJLevelList>, std::__ndk1::allocator<geode::Ref<GJLevelList> > > >&&, bool&&)
PUBLIC 120a48 0 std::__ndk1::__function::__func<BetterInfoCache::cacheRatedLists(int)::$_0, std::__ndk1::allocator<BetterInfoCache::cacheRatedLists(int)::$_0>, void (std::__ndk1::shared_ptr<std::__ndk1::vector<geode::Ref<GJLevelList>, std::__ndk1::allocator<geode::Ref<GJLevelList> > > >, bool)>::target(std::type_info const&) const
PUBLIC 120a64 0 std::__ndk1::__function::__func<BetterInfoCache::cacheRatedLists(int)::$_0, std::__ndk1::allocator<BetterInfoCache::cacheRatedLists(int)::$_0>, void (std::__ndk1::shared_ptr<std::__ndk1::vector<geode::Ref<GJLevelList>, std::__ndk1::allocator<geode::Ref<GJLevelList> > > >, bool)>::target_type() const
PUBLIC 120a70 0 std::__ndk1::shared_ptr<std::__ndk1::vector<geode::Ref<GJLevelList>, std::__ndk1::allocator<geode::Ref<GJLevelList> > > >::~shared_ptr[abi:ne190000]()
PUBLIC 120ac0 0 BetterInfoCache::cacheRatedLists(int)::$_0::operator()<std::__ndk1::shared_ptr<std::__ndk1::vector<geode::Ref<GJLevelList>, std::__ndk1::allocator<geode::Ref<GJLevelList> > > > >(std::__ndk1::shared_ptr<std::__ndk1::vector<geode::Ref<GJLevelList>, std::__ndk1::allocator<geode::Ref<GJLevelList> > > >, bool) const::{lambda()#1}::~{lambda()#1}()
PUBLIC 120b10 0 std::__ndk1::__thread_proxy[abi:ne190000]<std::__ndk1::tuple<std::__ndk1::unique_ptr<std::__ndk1::__thread_struct, std::__ndk1::default_delete<std::__ndk1::unique_ptr> >, BetterInfoCache::cacheRatedLists(int)::$_0::operator()<std::__ndk1::shared_ptr<std::__ndk1::vector<geode::Ref<GJLevelList>, std::__ndk1::allocator<GJLevelList> > > >(std::__ndk1::shared_ptr<std::__ndk1::vector<geode::Ref<GJLevelList>, std::__ndk1::allocator<GJLevelList> > >, bool) const::{lambda()#1}> >(std::__ndk1::tuple<std::__ndk1::unique_ptr<std::__ndk1::__thread_struct, std::__ndk1::default_delete<std::__ndk1::unique_ptr> >, BetterInfoCache::cacheRatedLists(int)::$_0::operator()<std::__ndk1::shared_ptr<std::__ndk1::vector<geode::Ref<GJLevelList>, std::__ndk1::allocator<GJLevelList> > > >(std::__ndk1::shared_ptr<std::__ndk1::vector<geode::Ref<GJLevelList>, std::__ndk1::allocator<GJLevelList> > >, bool) const::{lambda()#1}>)
PUBLIC 120e78 0 std::__ndk1::unique_ptr<std::__ndk1::tuple<std::__ndk1::unique_ptr<std::__ndk1::__thread_struct, std::__ndk1::default_delete<std::__ndk1::__thread_struct> >, BetterInfoCache::cacheRatedLists(int)::$_0::operator()<std::__ndk1::shared_ptr<std::__ndk1::vector<geode::Ref<GJLevelList>, std::__ndk1::allocator<geode::Ref<GJLevelList> > > > >(std::__ndk1::shared_ptr<std::__ndk1::vector<geode::Ref<GJLevelList>, std::__ndk1::allocator<geode::Ref<GJLevelList> > > >, bool) const::{lambda()#1}>, std::__ndk1::default_delete<std::__ndk1::tuple<std::__ndk1::unique_ptr<std::__ndk1::__thread_struct, std::__ndk1::default_delete<std::__ndk1::__thread_struct> >, BetterInfoCache::cacheRatedLists(int)::$_0::operator()<std::__ndk1::shared_ptr<std::__ndk1::vector<geode::Ref<GJLevelList>, std::__ndk1::allocator<geode::Ref<GJLevelList> > > > >(std::__ndk1::shared_ptr<std::__ndk1::vector<geode::Ref<GJLevelList>, std::__ndk1::allocator<geode::Ref<GJLevelList> > > >, bool) const::{lambda()#1}> > >::~unique_ptr[abi:ne190000]()
PUBLIC 120ef8 0 std::__ndk1::__hash_table<std::__ndk1::__hash_value_type<int, geode::Ref<GJLevelList> >, std::__ndk1::__unordered_map_hasher<int, std::__ndk1::__hash_value_type<int, geode::Ref<GJLevelList> >, std::__ndk1::hash<int>, std::__ndk1::equal_to<int>, true>, std::__ndk1::__unordered_map_equal<int, std::__ndk1::__hash_value_type<int, geode::Ref<GJLevelList> >, std::__ndk1::equal_to<int>, std::__ndk1::hash<int>, true>, std::__ndk1::allocator<std::__ndk1::__hash_value_type<int, geode::Ref<GJLevelList> > > >::__emplace_unique_key_args<int, int&, geode::Ref<GJLevelList>&>(int const&, int&, geode::Ref<GJLevelList>&)
PUBLIC 121250 0 std::__ndk1::__function::__func<BetterInfoCache::cacheRatedLists(int)::$_0::operator()<std::__ndk1::shared_ptr<std::__ndk1::vector<geode::Ref<GJLevelList>, std::__ndk1::allocator<geode::Ref<GJLevelList> > > > >(std::__ndk1::shared_ptr<std::__ndk1::vector<geode::Ref<GJLevelList>, std::__ndk1::allocator<geode::Ref<GJLevelList> > > >, bool) const::{lambda()#1}::operator()() const::{lambda()#1}, std::__ndk1::allocator<BetterInfoCache::cacheRatedLists(int)::$_0::operator()<std::__ndk1::shared_ptr<std::__ndk1::vector<geode::Ref<GJLevelList>, std::__ndk1::allocator<geode::Ref<GJLevelList> > > > >(std::__ndk1::shared_ptr<std::__ndk1::vector<geode::Ref<GJLevelList>, std::__ndk1::allocator<geode::Ref<GJLevelList> > > >, bool) const::{lambda()#1}::operator()() const::{lambda()#1}>, void ()>::~__func()
PUBLIC 121254 0 std::__ndk1::__function::__func<BetterInfoCache::cacheRatedLists(int)::$_0::operator()<std::__ndk1::shared_ptr<std::__ndk1::vector<geode::Ref<GJLevelList>, std::__ndk1::allocator<geode::Ref<GJLevelList> > > > >(std::__ndk1::shared_ptr<std::__ndk1::vector<geode::Ref<GJLevelList>, std::__ndk1::allocator<geode::Ref<GJLevelList> > > >, bool) const::{lambda()#1}::operator()() const::{lambda()#1}, std::__ndk1::allocator<BetterInfoCache::cacheRatedLists(int)::$_0::operator()<std::__ndk1::shared_ptr<std::__ndk1::vector<geode::Ref<GJLevelList>, std::__ndk1::allocator<geode::Ref<GJLevelList> > > > >(std::__ndk1::shared_ptr<std::__ndk1::vector<geode::Ref<GJLevelList>, std::__ndk1::allocator<geode::Ref<GJLevelList> > > >, bool) const::{lambda()#1}::operator()() const::{lambda()#1}>, void ()>::__clone() const
PUBLIC 12128c 0 std::__ndk1::__function::__func<BetterInfoCache::cacheRatedLists(int)::$_0::operator()<std::__ndk1::shared_ptr<std::__ndk1::vector<geode::Ref<GJLevelList>, std::__ndk1::allocator<geode::Ref<GJLevelList> > > > >(std::__ndk1::shared_ptr<std::__ndk1::vector<geode::Ref<GJLevelList>, std::__ndk1::allocator<geode::Ref<GJLevelList> > > >, bool) const::{lambda()#1}::operator()() const::{lambda()#1}, std::__ndk1::allocator<BetterInfoCache::cacheRatedLists(int)::$_0::operator()<std::__ndk1::shared_ptr<std::__ndk1::vector<geode::Ref<GJLevelList>, std::__ndk1::allocator<geode::Ref<GJLevelList> > > > >(std::__ndk1::shared_ptr<std::__ndk1::vector<geode::Ref<GJLevelList>, std::__ndk1::allocator<geode::Ref<GJLevelList> > > >, bool) const::{lambda()#1}::operator()() const::{lambda()#1}>, void ()>::__clone(std::__ndk1::__function::__base<void ()>*) const
PUBLIC 1212a4 0 std::__ndk1::__function::__func<BetterInfoCache::cacheRatedLists(int)::$_0::operator()<std::__ndk1::shared_ptr<std::__ndk1::vector<geode::Ref<GJLevelList>, std::__ndk1::allocator<geode::Ref<GJLevelList> > > > >(std::__ndk1::shared_ptr<std::__ndk1::vector<geode::Ref<GJLevelList>, std::__ndk1::allocator<geode::Ref<GJLevelList> > > >, bool) const::{lambda()#1}::operator()() const::{lambda()#1}, std::__ndk1::allocator<BetterInfoCache::cacheRatedLists(int)::$_0::operator()<std::__ndk1::shared_ptr<std::__ndk1::vector<geode::Ref<GJLevelList>, std::__ndk1::allocator<geode::Ref<GJLevelList> > > > >(std::__ndk1::shared_ptr<std::__ndk1::vector<geode::Ref<GJLevelList>, std::__ndk1::allocator<geode::Ref<GJLevelList> > > >, bool) const::{lambda()#1}::operator()() const::{lambda()#1}>, void ()>::destroy()
PUBLIC 1212a8 0 std::__ndk1::__function::__func<BetterInfoCache::cacheRatedLists(int)::$_0::operator()<std::__ndk1::shared_ptr<std::__ndk1::vector<geode::Ref<GJLevelList>, std::__ndk1::allocator<geode::Ref<GJLevelList> > > > >(std::__ndk1::shared_ptr<std::__ndk1::vector<geode::Ref<GJLevelList>, std::__ndk1::allocator<geode::Ref<GJLevelList> > > >, bool) const::{lambda()#1}::operator()() const::{lambda()#1}, std::__ndk1::allocator<BetterInfoCache::cacheRatedLists(int)::$_0::operator()<std::__ndk1::shared_ptr<std::__ndk1::vector<geode::Ref<GJLevelList>, std::__ndk1::allocator<geode::Ref<GJLevelList> > > > >(std::__ndk1::shared_ptr<std::__ndk1::vector<geode::Ref<GJLevelList>, std::__ndk1::allocator<geode::Ref<GJLevelList> > > >, bool) const::{lambda()#1}::operator()() const::{lambda()#1}>, void ()>::destroy_deallocate()
PUBLIC 1212ac 0 std::__ndk1::__function::__func<BetterInfoCache::cacheRatedLists(int)::$_0::operator()<std::__ndk1::shared_ptr<std::__ndk1::vector<geode::Ref<GJLevelList>, std::__ndk1::allocator<geode::Ref<GJLevelList> > > > >(std::__ndk1::shared_ptr<std::__ndk1::vector<geode::Ref<GJLevelList>, std::__ndk1::allocator<geode::Ref<GJLevelList> > > >, bool) const::{lambda()#1}::operator()() const::{lambda()#1}, std::__ndk1::allocator<BetterInfoCache::cacheRatedLists(int)::$_0::operator()<std::__ndk1::shared_ptr<std::__ndk1::vector<geode::Ref<GJLevelList>, std::__ndk1::allocator<geode::Ref<GJLevelList> > > > >(std::__ndk1::shared_ptr<std::__ndk1::vector<geode::Ref<GJLevelList>, std::__ndk1::allocator<geode::Ref<GJLevelList> > > >, bool) const::{lambda()#1}::operator()() const::{lambda()#1}>, void ()>::operator()()
PUBLIC 1213e8 0 std::__ndk1::__function::__func<BetterInfoCache::cacheRatedLists(int)::$_0::operator()<std::__ndk1::shared_ptr<std::__ndk1::vector<geode::Ref<GJLevelList>, std::__ndk1::allocator<geode::Ref<GJLevelList> > > > >(std::__ndk1::shared_ptr<std::__ndk1::vector<geode::Ref<GJLevelList>, std::__ndk1::allocator<geode::Ref<GJLevelList> > > >, bool) const::{lambda()#1}::operator()() const::{lambda()#1}, std::__ndk1::allocator<BetterInfoCache::cacheRatedLists(int)::$_0::operator()<std::__ndk1::shared_ptr<std::__ndk1::vector<geode::Ref<GJLevelList>, std::__ndk1::allocator<geode::Ref<GJLevelList> > > > >(std::__ndk1::shared_ptr<std::__ndk1::vector<geode::Ref<GJLevelList>, std::__ndk1::allocator<geode::Ref<GJLevelList> > > >, bool) const::{lambda()#1}::operator()() const::{lambda()#1}>, void ()>::target(std::type_info const&) const
PUBLIC 121404 0 std::__ndk1::__function::__func<BetterInfoCache::cacheRatedLists(int)::$_0::operator()<std::__ndk1::shared_ptr<std::__ndk1::vector<geode::Ref<GJLevelList>, std::__ndk1::allocator<geode::Ref<GJLevelList> > > > >(std::__ndk1::shared_ptr<std::__ndk1::vector<geode::Ref<GJLevelList>, std::__ndk1::allocator<geode::Ref<GJLevelList> > > >, bool) const::{lambda()#1}::operator()() const::{lambda()#1}, std::__ndk1::allocator<BetterInfoCache::cacheRatedLists(int)::$_0::operator()<std::__ndk1::shared_ptr<std::__ndk1::vector<geode::Ref<GJLevelList>, std::__ndk1::allocator<geode::Ref<GJLevelList> > > > >(std::__ndk1::shared_ptr<std::__ndk1::vector<geode::Ref<GJLevelList>, std::__ndk1::allocator<geode::Ref<GJLevelList> > > >, bool) const::{lambda()#1}::operator()() const::{lambda()#1}>, void ()>::target_type() const
PUBLIC 121410 0 std::__ndk1::__hash_table<int, std::__ndk1::hash<int>, std::__ndk1::equal_to<int>, std::__ndk1::allocator<int> >::__emplace_unique_key_args<int, int const&>(int const&, int const&)
PUBLIC 121734 0 std::__ndk1::__hash_table<std::__ndk1::__hash_value_type<int, geode::Ref<GJLevelList> >, std::__ndk1::__unordered_map_hasher<int, std::__ndk1::__hash_value_type<int, geode::Ref<GJLevelList> >, std::__ndk1::hash<int>, std::__ndk1::equal_to<int>, true>, std::__ndk1::__unordered_map_equal<int, std::__ndk1::__hash_value_type<int, geode::Ref<GJLevelList> >, std::__ndk1::equal_to<int>, std::__ndk1::hash<int>, true>, std::__ndk1::allocator<std::__ndk1::__hash_value_type<int, geode::Ref<GJLevelList> > > >::__erase_unique<int>(int const&)
PUBLIC 121944 0 std::__ndk1::__thread_proxy[abi:ne190000]<std::__ndk1::tuple<std::__ndk1::unique_ptr<std::__ndk1::__thread_struct, std::__ndk1::default_delete<std::__ndk1::unique_ptr> >, BetterInfoCache::checkClaimableLists()::$_0> >(std::__ndk1::tuple<std::__ndk1::unique_ptr<std::__ndk1::__thread_struct, std::__ndk1::default_delete<std::__ndk1::unique_ptr> >, BetterInfoCache::checkClaimableLists()::$_0>)
PUBLIC 122104 0 std::__ndk1::unique_ptr<std::__ndk1::tuple<std::__ndk1::unique_ptr<std::__ndk1::__thread_struct, std::__ndk1::default_delete<std::__ndk1::__thread_struct> >, BetterInfoCache::checkClaimableLists()::$_0>, std::__ndk1::default_delete<std::__ndk1::tuple<std::__ndk1::unique_ptr<std::__ndk1::__thread_struct, std::__ndk1::default_delete<std::__ndk1::__thread_struct> >, BetterInfoCache::checkClaimableLists()::$_0> > >::~unique_ptr[abi:ne190000]()
PUBLIC 12217c 0 geode::impl::ResultData<std::__ndk1::vector<matjson::Value, std::__ndk1::allocator<matjson::Value> >&, std::__ndk1::basic_string<char, std::__ndk1::char_traits<char>, std::__ndk1::allocator<char> > >::~ResultData()
PUBLIC 1221f0 0 BetterInfoCache::checkClaimableLists()::$_0::operator()() const::{lambda()#1}::~{lambda()#1}()
PUBLIC 12223c 0 std::__ndk1::vector<matjson::Value, std::__ndk1::allocator<matjson::Value> >::__init_with_size[abi:ne190000]<matjson::Value*, std::__ndk1::vector<matjson::Value, std::__ndk1::allocator<matjson::Value> >::__init_with_size[abi:ne190000]>(matjson::Value*, std::__ndk1::vector<matjson::Value, std::__ndk1::allocator<matjson::Value> >::__init_with_size[abi:ne190000], unsigned long)
PUBLIC 122358 0 std::__ndk1::__exception_guard_exceptions<std::__ndk1::vector<matjson::Value, std::__ndk1::allocator<matjson::Value> >::__destroy_vector>::~__exception_guard_exceptions[abi:ne190000]()
PUBLIC 1223d4 0 std::__ndk1::__variant_detail::__visitation::__base::__dispatcher<(unsigned long)0>::__dispatch[abi:ne190000]<std::__ndk1::__variant_detail::__dtor<std::__ndk1::__variant_detail::__traits<std::__ndk1::reference_wrapper<std::__ndk1::vector<matjson::Value, std::__ndk1::allocator<matjson> > >, std::__ndk1::basic_string<char, std::__ndk1::char_traits<char>, matjson::Value<char> > >, (std::__ndk1::__variant_detail::_Trait)1>::__destroy[abi:ne190000]()::{lambda(auto:1&)#1}, std::__ndk1::__variant_detail::__base<(std::__ndk1::__variant_detail::__traits<std::__ndk1::reference_wrapper<std::__ndk1::vector<matjson::Value, std::__ndk1::allocator<matjson> > >, std::__ndk1::basic_string<char, std::__ndk1::char_traits<char>, matjson::Value<char> > >)1, std::__ndk1::vector<matjson::Value, std::__ndk1::allocator<matjson> >, matjson::Value<char> >&>(std::__ndk1::__variant_detail::__dtor<std::__ndk1::__variant_detail::__traits<std::__ndk1::reference_wrapper<std::__ndk1::vector<matjson::Value, std::__ndk1::allocator<matjson> > >, std::__ndk1::basic_string<char, std::__ndk1::char_traits<char>, matjson::Value<char> > >, (std::__ndk1::__variant_detail::_Trait)1>, std::__ndk1::__variant_detail::__base<(std::__ndk1::__variant_detail::__traits<std::__ndk1::reference_wrapper<std::__ndk1::vector<matjson::Value, std::__ndk1::allocator<matjson> > >, std::__ndk1::basic_string<char, std::__ndk1::char_traits<char>, matjson::Value<char> > >)1, std::__ndk1::vector<matjson::Value, std::__ndk1::allocator<matjson> >, matjson::Value<char> >&)
PUBLIC 1223d8 0 std::__ndk1::__variant_detail::__visitation::__base::__dispatcher<(unsigned long)1>::__dispatch[abi:ne190000]<std::__ndk1::__variant_detail::__dtor<std::__ndk1::__variant_detail::__traits<std::__ndk1::reference_wrapper<std::__ndk1::vector<matjson::Value, std::__ndk1::allocator<matjson> > >, std::__ndk1::basic_string<char, std::__ndk1::char_traits<char>, matjson::Value<char> > >, (std::__ndk1::__variant_detail::_Trait)1>::__destroy[abi:ne190000]()::{lambda(auto:1&)#1}, std::__ndk1::__variant_detail::__base<(std::__ndk1::__variant_detail::__traits<std::__ndk1::reference_wrapper<std::__ndk1::vector<matjson::Value, std::__ndk1::allocator<matjson> > >, std::__ndk1::basic_string<char, std::__ndk1::char_traits<char>, matjson::Value<char> > >)1, std::__ndk1::vector<matjson::Value, std::__ndk1::allocator<matjson> >, matjson::Value<char> >&>(std::__ndk1::__variant_detail::__dtor<std::__ndk1::__variant_detail::__traits<std::__ndk1::reference_wrapper<std::__ndk1::vector<matjson::Value, std::__ndk1::allocator<matjson> > >, std::__ndk1::basic_string<char, std::__ndk1::char_traits<char>, matjson::Value<char> > >, (std::__ndk1::__variant_detail::_Trait)1>, std::__ndk1::__variant_detail::__base<(std::__ndk1::__variant_detail::__traits<std::__ndk1::reference_wrapper<std::__ndk1::vector<matjson::Value, std::__ndk1::allocator<matjson> > >, std::__ndk1::basic_string<char, std::__ndk1::char_traits<char>, matjson::Value<char> > >)1, std::__ndk1::vector<matjson::Value, std::__ndk1::allocator<matjson> >, matjson::Value<char> >&)
PUBLIC 1223ec 0 std::__ndk1::__function::__func<BetterInfoCache::checkClaimableLists()::$_0::operator()() const::{lambda()#1}, std::__ndk1::allocator<BetterInfoCache::checkClaimableLists()::$_0::operator()() const::{lambda()#1}>, void ()>::~__func()
PUBLIC 122444 0 std::__ndk1::__function::__func<BetterInfoCache::checkClaimableLists()::$_0::operator()() const::{lambda()#1}, std::__ndk1::allocator<BetterInfoCache::checkClaimableLists()::$_0::operator()() const::{lambda()#1}>, void ()>::~__func()
PUBLIC 122498 0 std::__ndk1::__function::__func<BetterInfoCache::checkClaimableLists()::$_0::operator()() const::{lambda()#1}, std::__ndk1::allocator<BetterInfoCache::checkClaimableLists()::$_0::operator()() const::{lambda()#1}>, void ()>::__clone() const
PUBLIC 1224f0 0 std::__ndk1::__function::__func<BetterInfoCache::checkClaimableLists()::$_0::operator()() const::{lambda()#1}, std::__ndk1::allocator<BetterInfoCache::checkClaimableLists()::$_0::operator()() const::{lambda()#1}>, void ()>::__clone(std::__ndk1::__function::__base<void ()>*) const
PUBLIC 122514 0 std::__ndk1::__function::__func<BetterInfoCache::checkClaimableLists()::$_0::operator()() const::{lambda()#1}, std::__ndk1::allocator<BetterInfoCache::checkClaimableLists()::$_0::operator()() const::{lambda()#1}>, void ()>::destroy()
PUBLIC 122560 0 std::__ndk1::__function::__func<BetterInfoCache::checkClaimableLists()::$_0::operator()() const::{lambda()#1}, std::__ndk1::allocator<BetterInfoCache::checkClaimableLists()::$_0::operator()() const::{lambda()#1}>, void ()>::destroy_deallocate()
PUBLIC 1225a8 0 std::__ndk1::__function::__func<BetterInfoCache::checkClaimableLists()::$_0::operator()() const::{lambda()#1}, std::__ndk1::allocator<BetterInfoCache::checkClaimableLists()::$_0::operator()() const::{lambda()#1}>, void ()>::operator()()
PUBLIC 122b8c 0 std::__ndk1::__function::__func<BetterInfoCache::checkClaimableLists()::$_0::operator()() const::{lambda()#1}, std::__ndk1::allocator<BetterInfoCache::checkClaimableLists()::$_0::operator()() const::{lambda()#1}>, void ()>::target(std::type_info const&) const
PUBLIC 122ba8 0 std::__ndk1::__function::__func<BetterInfoCache::checkClaimableLists()::$_0::operator()() const::{lambda()#1}, std::__ndk1::allocator<BetterInfoCache::checkClaimableLists()::$_0::operator()() const::{lambda()#1}>, void ()>::target_type() const
PUBLIC 122bb4 0 std::__ndk1::unordered_set<int, std::__ndk1::hash<int>, std::__ndk1::equal_to<int>, std::__ndk1::allocator<int> >::unordered_set(std::__ndk1::unordered_set<int, std::__ndk1::hash<int>, std::__ndk1::equal_to<int>, std::__ndk1::allocator<int> > const&)
PUBLIC 122cf0 0 std::__ndk1::__hash_table<std::__ndk1::__hash_value_type<int, geode::Ref<GJLevelList> >, std::__ndk1::__unordered_map_hasher<int, std::__ndk1::__hash_value_type<int, geode::Ref<GJLevelList> >, std::__ndk1::hash<int>, std::__ndk1::equal_to<int>, true>, std::__ndk1::__unordered_map_equal<int, std::__ndk1::__hash_value_type<int, geode::Ref<GJLevelList> >, std::__ndk1::equal_to<int>, std::__ndk1::hash<int>, true>, std::__ndk1::allocator<std::__ndk1::__hash_value_type<int, geode::Ref<GJLevelList> > > >::__emplace_unique_key_args<int, std::__ndk1::piecewise_construct_t const&, std::__ndk1::tuple<int const&>, std::__ndk1::tuple<> >(int const&, std::__ndk1::piecewise_construct_t const&, std::__ndk1::tuple<int const&>, std::__ndk1::tuple<>)
PUBLIC 123030 0 _ZN7matjson9SerializeINSt6__ndk16vectorIiNS1_9allocatorIiEEEEE6toJsonERKS5_QrQRKT__XcvNS_5ValueEfp_E
PUBLIC 1231d8 0 std::__ndk1::vector<matjson::Value, std::__ndk1::allocator<matjson::Value> >::reserve(unsigned long)
PUBLIC 1232b8 0 std::__ndk1::vector<matjson::Value, std::__ndk1::allocator<matjson::Value> >::__push_back_slow_path<matjson::Value>(matjson::Value&&)
PUBLIC 1233d4 0 std::__ndk1::__thread_proxy[abi:ne190000]<std::__ndk1::tuple<std::__ndk1::unique_ptr<std::__ndk1::__thread_struct, std::__ndk1::default_delete<std::__ndk1::unique_ptr> >, BetterInfoCache::cacheListAsync(GJLevelList*)::$_0> >(std::__ndk1::tuple<std::__ndk1::unique_ptr<std::__ndk1::__thread_struct, std::__ndk1::default_delete<std::__ndk1::unique_ptr> >, BetterInfoCache::cacheListAsync(GJLevelList*)::$_0>)
PUBLIC 123570 0 std::__ndk1::unique_ptr<std::__ndk1::tuple<std::__ndk1::unique_ptr<std::__ndk1::__thread_struct, std::__ndk1::default_delete<std::__ndk1::__thread_struct> >, BetterInfoCache::cacheListAsync(GJLevelList*)::$_0>, std::__ndk1::default_delete<std::__ndk1::tuple<std::__ndk1::unique_ptr<std::__ndk1::__thread_struct, std::__ndk1::default_delete<std::__ndk1::__thread_struct> >, BetterInfoCache::cacheListAsync(GJLevelList*)::$_0> > >::~unique_ptr[abi:ne190000]()
PUBLIC 1235c0 0 std::__ndk1::__function::__func<BetterInfoCache::cacheListAsync(GJLevelList*)::$_0::operator()() const::{lambda()#1}, std::__ndk1::allocator<BetterInfoCache::cacheListAsync(GJLevelList*)::$_0::operator()() const::{lambda()#1}>, void ()>::~__func()
PUBLIC 1235c4 0 std::__ndk1::__function::__func<BetterInfoCache::cacheListAsync(GJLevelList*)::$_0::operator()() const::{lambda()#1}, std::__ndk1::allocator<BetterInfoCache::cacheListAsync(GJLevelList*)::$_0::operator()() const::{lambda()#1}>, void ()>::__clone() const
PUBLIC 1235f8 0 std::__ndk1::__function::__func<BetterInfoCache::cacheListAsync(GJLevelList*)::$_0::operator()() const::{lambda()#1}, std::__ndk1::allocator<BetterInfoCache::cacheListAsync(GJLevelList*)::$_0::operator()() const::{lambda()#1}>, void ()>::__clone(std::__ndk1::__function::__base<void ()>*) const
PUBLIC 12360c 0 std::__ndk1::__function::__func<BetterInfoCache::cacheListAsync(GJLevelList*)::$_0::operator()() const::{lambda()#1}, std::__ndk1::allocator<BetterInfoCache::cacheListAsync(GJLevelList*)::$_0::operator()() const::{lambda()#1}>, void ()>::destroy()
PUBLIC 123610 0 std::__ndk1::__function::__func<BetterInfoCache::cacheListAsync(GJLevelList*)::$_0::operator()() const::{lambda()#1}, std::__ndk1::allocator<BetterInfoCache::cacheListAsync(GJLevelList*)::$_0::operator()() const::{lambda()#1}>, void ()>::destroy_deallocate()
PUBLIC 123614 0 std::__ndk1::__function::__func<BetterInfoCache::cacheListAsync(GJLevelList*)::$_0::operator()() const::{lambda()#1}, std::__ndk1::allocator<BetterInfoCache::cacheListAsync(GJLevelList*)::$_0::operator()() const::{lambda()#1}>, void ()>::operator()()
PUBLIC 12361c 0 std::__ndk1::__function::__func<BetterInfoCache::cacheListAsync(GJLevelList*)::$_0::operator()() const::{lambda()#1}, std::__ndk1::allocator<BetterInfoCache::cacheListAsync(GJLevelList*)::$_0::operator()() const::{lambda()#1}>, void ()>::target(std::type_info const&) const
PUBLIC 123638 0 std::__ndk1::__function::__func<BetterInfoCache::cacheListAsync(GJLevelList*)::$_0::operator()() const::{lambda()#1}, std::__ndk1::allocator<BetterInfoCache::cacheListAsync(GJLevelList*)::$_0::operator()() const::{lambda()#1}>, void ()>::target_type() const
PUBLIC 123644 0 std::__ndk1::__thread_proxy[abi:ne190000]<std::__ndk1::tuple<std::__ndk1::unique_ptr<std::__ndk1::__thread_struct, std::__ndk1::default_delete<std::__ndk1::unique_ptr> >, BetterInfoCache::downloadClaimableLists()::$_0> >(std::__ndk1::tuple<std::__ndk1::unique_ptr<std::__ndk1::__thread_struct, std::__ndk1::default_delete<std::__ndk1::unique_ptr> >, BetterInfoCache::downloadClaimableLists()::$_0>)
PUBLIC 1237e8 0 std::__ndk1::unique_ptr<std::__ndk1::tuple<std::__ndk1::unique_ptr<std::__ndk1::__thread_struct, std::__ndk1::default_delete<std::__ndk1::__thread_struct> >, BetterInfoCache::downloadClaimableLists()::$_0>, std::__ndk1::default_delete<std::__ndk1::tuple<std::__ndk1::unique_ptr<std::__ndk1::__thread_struct, std::__ndk1::default_delete<std::__ndk1::__thread_struct> >, BetterInfoCache::downloadClaimableLists()::$_0> > >::~unique_ptr[abi:ne190000]()
PUBLIC 123848 0 std::__ndk1::__function::__func<BetterInfoCache::downloadClaimableLists()::$_0::operator()() const::{lambda()#1}, std::__ndk1::allocator<BetterInfoCache::downloadClaimableLists()::$_0::operator()() const::{lambda()#1}>, void ()>::~__func()
PUBLIC 12384c 0 std::__ndk1::__function::__func<BetterInfoCache::downloadClaimableLists()::$_0::operator()() const::{lambda()#1}, std::__ndk1::allocator<BetterInfoCache::downloadClaimableLists()::$_0::operator()() const::{lambda()#1}>, void ()>::__clone() const
PUBLIC 123884 0 std::__ndk1::__function::__func<BetterInfoCache::downloadClaimableLists()::$_0::operator()() const::{lambda()#1}, std::__ndk1::allocator<BetterInfoCache::downloadClaimableLists()::$_0::operator()() const::{lambda()#1}>, void ()>::__clone(std::__ndk1::__function::__base<void ()>*) const
PUBLIC 12389c 0 std::__ndk1::__function::__func<BetterInfoCache::downloadClaimableLists()::$_0::operator()() const::{lambda()#1}, std::__ndk1::allocator<BetterInfoCache::downloadClaimableLists()::$_0::operator()() const::{lambda()#1}>, void ()>::destroy()
PUBLIC 1238a0 0 std::__ndk1::__function::__func<BetterInfoCache::downloadClaimableLists()::$_0::operator()() const::{lambda()#1}, std::__ndk1::allocator<BetterInfoCache::downloadClaimableLists()::$_0::operator()() const::{lambda()#1}>, void ()>::destroy_deallocate()
PUBLIC 1238a4 0 std::__ndk1::__function::__func<BetterInfoCache::downloadClaimableLists()::$_0::operator()() const::{lambda()#1}, std::__ndk1::allocator<BetterInfoCache::downloadClaimableLists()::$_0::operator()() const::{lambda()#1}>, void ()>::operator()()
PUBLIC 123a24 0 std::__ndk1::__function::__func<BetterInfoCache::downloadClaimableLists()::$_0::operator()() const::{lambda()#1}, std::__ndk1::allocator<BetterInfoCache::downloadClaimableLists()::$_0::operator()() const::{lambda()#1}>, void ()>::target(std::type_info const&) const
PUBLIC 123a40 0 std::__ndk1::__function::__func<BetterInfoCache::downloadClaimableLists()::$_0::operator()() const::{lambda()#1}, std::__ndk1::allocator<BetterInfoCache::downloadClaimableLists()::$_0::operator()() const::{lambda()#1}>, void ()>::target_type() const
PUBLIC 123a4c 0 std::__ndk1::__function::__base<void (std::__ndk1::shared_ptr<std::__ndk1::vector<geode::Ref<GJLevelList>, std::__ndk1::allocator<geode::Ref<GJLevelList> > > >, bool)>::~__base()
PUBLIC 123a50 0 std::__ndk1::__function::__func<BetterInfoCache::downloadClaimableLists()::$_0::operator()() const::{lambda()#1}::operator()() const::{lambda(auto:1, bool)#1}, std::__ndk1::allocator<BetterInfoCache::downloadClaimableLists()::$_0::operator()() const::{lambda()#1}::operator()() const::{lambda(auto:1, bool)#1}>, void (std::__ndk1::shared_ptr<std::__ndk1::vector<geode::Ref<GJLevelList>, std::__ndk1::allocator<geode::Ref<GJLevelList> > > >, bool)>::~__func()
PUBLIC 123a54 0 std::__ndk1::__function::__func<BetterInfoCache::downloadClaimableLists()::$_0::operator()() const::{lambda()#1}::operator()() const::{lambda(auto:1, bool)#1}, std::__ndk1::allocator<BetterInfoCache::downloadClaimableLists()::$_0::operator()() const::{lambda()#1}::operator()() const::{lambda(auto:1, bool)#1}>, void (std::__ndk1::shared_ptr<std::__ndk1::vector<geode::Ref<GJLevelList>, std::__ndk1::allocator<geode::Ref<GJLevelList> > > >, bool)>::__clone() const
PUBLIC 123a88 0 std::__ndk1::__function::__func<BetterInfoCache::downloadClaimableLists()::$_0::operator()() const::{lambda()#1}::operator()() const::{lambda(auto:1, bool)#1}, std::__ndk1::allocator<BetterInfoCache::downloadClaimableLists()::$_0::operator()() const::{lambda()#1}::operator()() const::{lambda(auto:1, bool)#1}>, void (std::__ndk1::shared_ptr<std::__ndk1::vector<geode::Ref<GJLevelList>, std::__ndk1::allocator<geode::Ref<GJLevelList> > > >, bool)>::__clone(std::__ndk1::__function::__base<void (std::__ndk1::shared_ptr<std::__ndk1::vector<geode::Ref<GJLevelList>, std::__ndk1::allocator<geode::Ref<GJLevelList> > > >, bool)>*) const
PUBLIC 123a9c 0 std::__ndk1::__function::__func<BetterInfoCache::downloadClaimableLists()::$_0::operator()() const::{lambda()#1}::operator()() const::{lambda(auto:1, bool)#1}, std::__ndk1::allocator<BetterInfoCache::downloadClaimableLists()::$_0::operator()() const::{lambda()#1}::operator()() const::{lambda(auto:1, bool)#1}>, void (std::__ndk1::shared_ptr<std::__ndk1::vector<geode::Ref<GJLevelList>, std::__ndk1::allocator<geode::Ref<GJLevelList> > > >, bool)>::destroy()
PUBLIC 123aa0 0 std::__ndk1::__function::__func<BetterInfoCache::downloadClaimableLists()::$_0::operator()() const::{lambda()#1}::operator()() const::{lambda(auto:1, bool)#1}, std::__ndk1::allocator<BetterInfoCache::downloadClaimableLists()::$_0::operator()() const::{lambda()#1}::operator()() const::{lambda(auto:1, bool)#1}>, void (std::__ndk1::shared_ptr<std::__ndk1::vector<geode::Ref<GJLevelList>, std::__ndk1::allocator<geode::Ref<GJLevelList> > > >, bool)>::destroy_deallocate()
PUBLIC 123aa4 0 std::__ndk1::__function::__func<BetterInfoCache::downloadClaimableLists()::$_0::operator()() const::{lambda()#1}::operator()() const::{lambda(auto:1, bool)#1}, std::__ndk1::allocator<BetterInfoCache::downloadClaimableLists()::$_0::operator()() const::{lambda()#1}::operator()() const::{lambda(auto:1, bool)#1}>, void (std::__ndk1::shared_ptr<std::__ndk1::vector<geode::Ref<GJLevelList>, std::__ndk1::allocator<geode::Ref<GJLevelList> > > >, bool)>::operator()(std::__ndk1::shared_ptr<std::__ndk1::vector<geode::Ref<GJLevelList>, std::__ndk1::allocator<geode::Ref<GJLevelList> > > >&&, bool&&)
PUBLIC 123c00 0 std::__ndk1::__function::__func<BetterInfoCache::downloadClaimableLists()::$_0::operator()() const::{lambda()#1}::operator()() const::{lambda(auto:1, bool)#1}, std::__ndk1::allocator<BetterInfoCache::downloadClaimableLists()::$_0::operator()() const::{lambda()#1}::operator()() const::{lambda(auto:1, bool)#1}>, void (std::__ndk1::shared_ptr<std::__ndk1::vector<geode::Ref<GJLevelList>, std::__ndk1::allocator<geode::Ref<GJLevelList> > > >, bool)>::target(std::type_info const&) const
PUBLIC 123c1c 0 std::__ndk1::__function::__func<BetterInfoCache::downloadClaimableLists()::$_0::operator()() const::{lambda()#1}::operator()() const::{lambda(auto:1, bool)#1}, std::__ndk1::allocator<BetterInfoCache::downloadClaimableLists()::$_0::operator()() const::{lambda()#1}::operator()() const::{lambda(auto:1, bool)#1}>, void (std::__ndk1::shared_ptr<std::__ndk1::vector<geode::Ref<GJLevelList>, std::__ndk1::allocator<geode::Ref<GJLevelList> > > >, bool)>::target_type() const
PUBLIC 123c28 0 std::__ndk1::vector<geode::Ref<GJLevelList>, std::__ndk1::allocator<geode::Ref<GJLevelList> > >::__throw_out_of_range[abi:ne190000]() const
PUBLIC 123c3c 0 std::__ndk1::__shared_ptr_emplace<std::__ndk1::vector<geode::Ref<GJGameLevel>, std::__ndk1::allocator<geode::Ref<GJGameLevel> > >, std::__ndk1::allocator<std::__ndk1::vector<geode::Ref<GJGameLevel>, std::__ndk1::allocator<geode::Ref<GJGameLevel> > > > >::~__shared_ptr_emplace()
PUBLIC 123c4c 0 std::__ndk1::__shared_ptr_emplace<std::__ndk1::vector<geode::Ref<GJGameLevel>, std::__ndk1::allocator<geode::Ref<GJGameLevel> > >, std::__ndk1::allocator<std::__ndk1::vector<geode::Ref<GJGameLevel>, std::__ndk1::allocator<geode::Ref<GJGameLevel> > > > >::~__shared_ptr_emplace()
PUBLIC 123c7c 0 std::__ndk1::__shared_ptr_emplace<std::__ndk1::vector<geode::Ref<GJGameLevel>, std::__ndk1::allocator<geode::Ref<GJGameLevel> > >, std::__ndk1::allocator<std::__ndk1::vector<geode::Ref<GJGameLevel>, std::__ndk1::allocator<geode::Ref<GJGameLevel> > > > >::__on_zero_shared()
PUBLIC 123d00 0 std::__ndk1::__shared_ptr_emplace<std::__ndk1::vector<geode::Ref<GJGameLevel>, std::__ndk1::allocator<geode::Ref<GJGameLevel> > >, std::__ndk1::allocator<std::__ndk1::vector<geode::Ref<GJGameLevel>, std::__ndk1::allocator<geode::Ref<GJGameLevel> > > > >::__on_zero_shared_weak()
PUBLIC 123d04 0 std::__ndk1::__thread_proxy[abi:ne190000]<std::__ndk1::tuple<std::__ndk1::unique_ptr<std::__ndk1::__thread_struct, std::__ndk1::default_delete<std::__ndk1::unique_ptr> >, BetterInfoCache::checkLevelsFromDict(cocos2d::CCDictionary*)::$_0> >(std::__ndk1::tuple<std::__ndk1::unique_ptr<std::__ndk1::__thread_struct, std::__ndk1::default_delete<std::__ndk1::unique_ptr> >, BetterInfoCache::checkLevelsFromDict(cocos2d::CCDictionary*)::$_0>)
PUBLIC 124444 0 std::__ndk1::unique_ptr<std::__ndk1::tuple<std::__ndk1::unique_ptr<std::__ndk1::__thread_struct, std::__ndk1::default_delete<std::__ndk1::__thread_struct> >, BetterInfoCache::checkLevelsFromDict(cocos2d::CCDictionary*)::$_0>, std::__ndk1::default_delete<std::__ndk1::tuple<std::__ndk1::unique_ptr<std::__ndk1::__thread_struct, std::__ndk1::default_delete<std::__ndk1::__thread_struct> >, BetterInfoCache::checkLevelsFromDict(cocos2d::CCDictionary*)::$_0> > >::~unique_ptr[abi:ne190000]()
PUBLIC 1244c4 0 std::__ndk1::__function::__func<BetterInfoCache::checkLevelsFromDict(cocos2d::CCDictionary*)::$_0::operator()() const::{lambda()#1}, std::__ndk1::allocator<BetterInfoCache::checkLevelsFromDict(cocos2d::CCDictionary*)::$_0::operator()() const::{lambda()#1}>, void ()>::~__func()
PUBLIC 124520 0 std::__ndk1::__function::__func<BetterInfoCache::checkLevelsFromDict(cocos2d::CCDictionary*)::$_0::operator()() const::{lambda()#1}, std::__ndk1::allocator<BetterInfoCache::checkLevelsFromDict(cocos2d::CCDictionary*)::$_0::operator()() const::{lambda()#1}>, void ()>::~__func()
PUBLIC 12458c 0 std::__ndk1::__function::__func<BetterInfoCache::checkLevelsFromDict(cocos2d::CCDictionary*)::$_0::operator()() const::{lambda()#1}, std::__ndk1::allocator<BetterInfoCache::checkLevelsFromDict(cocos2d::CCDictionary*)::$_0::operator()() const::{lambda()#1}>, void ()>::__clone() const
PUBLIC 1245dc 0 std::__ndk1::__function::__func<BetterInfoCache::checkLevelsFromDict(cocos2d::CCDictionary*)::$_0::operator()() const::{lambda()#1}, std::__ndk1::allocator<BetterInfoCache::checkLevelsFromDict(cocos2d::CCDictionary*)::$_0::operator()() const::{lambda()#1}>, void ()>::__clone(std::__ndk1::__function::__base<void ()>*) const
PUBLIC 124610 0 std::__ndk1::__function::__func<BetterInfoCache::checkLevelsFromDict(cocos2d::CCDictionary*)::$_0::operator()() const::{lambda()#1}, std::__ndk1::allocator<BetterInfoCache::checkLevelsFromDict(cocos2d::CCDictionary*)::$_0::operator()() const::{lambda()#1}>, void ()>::destroy()
PUBLIC 124660 0 std::__ndk1::__function::__func<BetterInfoCache::checkLevelsFromDict(cocos2d::CCDictionary*)::$_0::operator()() const::{lambda()#1}, std::__ndk1::allocator<BetterInfoCache::checkLevelsFromDict(cocos2d::CCDictionary*)::$_0::operator()() const::{lambda()#1}>, void ()>::destroy_deallocate()
PUBLIC 1246c0 0 std::__ndk1::__function::__func<BetterInfoCache::checkLevelsFromDict(cocos2d::CCDictionary*)::$_0::operator()() const::{lambda()#1}, std::__ndk1::allocator<BetterInfoCache::checkLevelsFromDict(cocos2d::CCDictionary*)::$_0::operator()() const::{lambda()#1}>, void ()>::operator()()
PUBLIC 124738 0 std::__ndk1::__function::__func<BetterInfoCache::checkLevelsFromDict(cocos2d::CCDictionary*)::$_0::operator()() const::{lambda()#1}, std::__ndk1::allocator<BetterInfoCache::checkLevelsFromDict(cocos2d::CCDictionary*)::$_0::operator()() const::{lambda()#1}>, void ()>::target(std::type_info const&) const
PUBLIC 124754 0 std::__ndk1::__function::__func<BetterInfoCache::checkLevelsFromDict(cocos2d::CCDictionary*)::$_0::operator()() const::{lambda()#1}, std::__ndk1::allocator<BetterInfoCache::checkLevelsFromDict(cocos2d::CCDictionary*)::$_0::operator()() const::{lambda()#1}>, void ()>::target_type() const
PUBLIC 124760 0 std::__ndk1::__function::__func<BetterInfoCache::cacheLevels(std::__ndk1::set<int, std::__ndk1::less<int>, std::__ndk1::allocator<int> >, SearchType, int)::$_0, std::__ndk1::allocator<BetterInfoCache::cacheLevels(std::__ndk1::set<int, std::__ndk1::less<int>, std::__ndk1::allocator<int> >, SearchType, int)::$_0>, void ()>::~__func()
PUBLIC 1247e8 0 std::__ndk1::__function::__func<BetterInfoCache::cacheLevels(std::__ndk1::set<int, std::__ndk1::less<int>, std::__ndk1::allocator<int> >, SearchType, int)::$_0, std::__ndk1::allocator<BetterInfoCache::cacheLevels(std::__ndk1::set<int, std::__ndk1::less<int>, std::__ndk1::allocator<int> >, SearchType, int)::$_0>, void ()>::~__func()
PUBLIC 124868 0 std::__ndk1::__function::__func<BetterInfoCache::cacheLevels(std::__ndk1::set<int, std::__ndk1::less<int>, std::__ndk1::allocator<int> >, SearchType, int)::$_0, std::__ndk1::allocator<BetterInfoCache::cacheLevels(std::__ndk1::set<int, std::__ndk1::less<int>, std::__ndk1::allocator<int> >, SearchType, int)::$_0>, void ()>::__clone() const
PUBLIC 1248e4 0 std::__ndk1::__function::__func<BetterInfoCache::cacheLevels(std::__ndk1::set<int, std::__ndk1::less<int>, std::__ndk1::allocator<int> >, SearchType, int)::$_0, std::__ndk1::allocator<BetterInfoCache::cacheLevels(std::__ndk1::set<int, std::__ndk1::less<int>, std::__ndk1::allocator<int> >, SearchType, int)::$_0>, void ()>::__clone(std::__ndk1::__function::__base<void ()>*) const
PUBLIC 124944 0 std::__ndk1::__function::__func<BetterInfoCache::cacheLevels(std::__ndk1::set<int, std::__ndk1::less<int>, std::__ndk1::allocator<int> >, SearchType, int)::$_0, std::__ndk1::allocator<BetterInfoCache::cacheLevels(std::__ndk1::set<int, std::__ndk1::less<int>, std::__ndk1::allocator<int> >, SearchType, int)::$_0>, void ()>::destroy()
PUBLIC 1249c0 0 std::__ndk1::__function::__func<BetterInfoCache::cacheLevels(std::__ndk1::set<int, std::__ndk1::less<int>, std::__ndk1::allocator<int> >, SearchType, int)::$_0, std::__ndk1::allocator<BetterInfoCache::cacheLevels(std::__ndk1::set<int, std::__ndk1::less<int>, std::__ndk1::allocator<int> >, SearchType, int)::$_0>, void ()>::destroy_deallocate()
PUBLIC 124a34 0 std::__ndk1::__function::__func<BetterInfoCache::cacheLevels(std::__ndk1::set<int, std::__ndk1::less<int>, std::__ndk1::allocator<int> >, SearchType, int)::$_0, std::__ndk1::allocator<BetterInfoCache::cacheLevels(std::__ndk1::set<int, std::__ndk1::less<int>, std::__ndk1::allocator<int> >, SearchType, int)::$_0>, void ()>::operator()()
PUBLIC 124e5c 0 std::__ndk1::__function::__func<BetterInfoCache::cacheLevels(std::__ndk1::set<int, std::__ndk1::less<int>, std::__ndk1::allocator<int> >, SearchType, int)::$_0, std::__ndk1::allocator<BetterInfoCache::cacheLevels(std::__ndk1::set<int, std::__ndk1::less<int>, std::__ndk1::allocator<int> >, SearchType, int)::$_0>, void ()>::target(std::type_info const&) const
PUBLIC 124e78 0 std::__ndk1::__function::__func<BetterInfoCache::cacheLevels(std::__ndk1::set<int, std::__ndk1::less<int>, std::__ndk1::allocator<int> >, SearchType, int)::$_0, std::__ndk1::allocator<BetterInfoCache::cacheLevels(std::__ndk1::set<int, std::__ndk1::less<int>, std::__ndk1::allocator<int> >, SearchType, int)::$_0>, void ()>::target_type() const
PUBLIC 124e84 0 geode::Ref<GJSearchObject>::~Ref()
PUBLIC 124ea0 0 BetterInfoCache::cacheLevels(std::__ndk1::set<int, std::__ndk1::less<int>, std::__ndk1::allocator<int> >, SearchType, int)::$_0::operator()()::{lambda()#1}::~{lambda()#1}()
PUBLIC 124ef0 0 std::__ndk1::shared_ptr<std::__ndk1::vector<geode::Ref<GJSearchObject>, std::__ndk1::allocator<geode::Ref<GJSearchObject> > > >::~shared_ptr[abi:ne190000]()
PUBLIC 124f40 0 std::__ndk1::__shared_ptr_emplace<std::__ndk1::vector<geode::Ref<GJSearchObject>, std::__ndk1::allocator<geode::Ref<GJSearchObject> > >, std::__ndk1::allocator<std::__ndk1::vector<geode::Ref<GJSearchObject>, std::__ndk1::allocator<geode::Ref<GJSearchObject> > > > >::~__shared_ptr_emplace()
PUBLIC 124f50 0 std::__ndk1::__shared_ptr_emplace<std::__ndk1::vector<geode::Ref<GJSearchObject>, std::__ndk1::allocator<geode::Ref<GJSearchObject> > >, std::__ndk1::allocator<std::__ndk1::vector<geode::Ref<GJSearchObject>, std::__ndk1::allocator<geode::Ref<GJSearchObject> > > > >::~__shared_ptr_emplace()
PUBLIC 124f80 0 std::__ndk1::__shared_ptr_emplace<std::__ndk1::vector<geode::Ref<GJSearchObject>, std::__ndk1::allocator<geode::Ref<GJSearchObject> > >, std::__ndk1::allocator<std::__ndk1::vector<geode::Ref<GJSearchObject>, std::__ndk1::allocator<geode::Ref<GJSearchObject> > > > >::__on_zero_shared()
PUBLIC 125004 0 std::__ndk1::__shared_ptr_emplace<std::__ndk1::vector<geode::Ref<GJSearchObject>, std::__ndk1::allocator<geode::Ref<GJSearchObject> > >, std::__ndk1::allocator<std::__ndk1::vector<geode::Ref<GJSearchObject>, std::__ndk1::allocator<geode::Ref<GJSearchObject> > > > >::__on_zero_shared_weak()
PUBLIC 125008 0 std::__ndk1::vector<geode::Ref<GJSearchObject>, std::__ndk1::allocator<geode::Ref<GJSearchObject> > >::__throw_length_error[abi:ne190000]() const
PUBLIC 12501c 0 std::__ndk1::__thread_proxy[abi:ne190000]<std::__ndk1::tuple<std::__ndk1::unique_ptr<std::__ndk1::__thread_struct, std::__ndk1::default_delete<std::__ndk1::unique_ptr> >, BetterInfoCache::cacheLevels(std::__ndk1::set<int, std::__ndk1::less<int>, std::__ndk1::allocator<int> >, SearchType, int)::$_0::operator()()::{lambda()#1}> >(std::__ndk1::tuple<std::__ndk1::unique_ptr<std::__ndk1::__thread_struct, std::__ndk1::default_delete<std::__ndk1::unique_ptr> >, BetterInfoCache::cacheLevels(std::__ndk1::set<int, std::__ndk1::less<int>, std::__ndk1::allocator<int> >, SearchType, int)::$_0::operator()()::{lambda()#1}>)
PUBLIC 1255cc 0 std::__ndk1::unique_ptr<std::__ndk1::tuple<std::__ndk1::unique_ptr<std::__ndk1::__thread_struct, std::__ndk1::default_delete<std::__ndk1::__thread_struct> >, BetterInfoCache::cacheLevels(std::__ndk1::set<int, std::__ndk1::less<int>, std::__ndk1::allocator<int> >, SearchType, int)::$_0::operator()()::{lambda()#1}>, std::__ndk1::default_delete<std::__ndk1::tuple<std::__ndk1::unique_ptr<std::__ndk1::__thread_struct, std::__ndk1::default_delete<std::__ndk1::__thread_struct> >, BetterInfoCache::cacheLevels(std::__ndk1::set<int, std::__ndk1::less<int>, std::__ndk1::allocator<int> >, SearchType, int)::$_0::operator()()::{lambda()#1}> > >::~unique_ptr[abi:ne190000]()
PUBLIC 12564c 0 BetterInfoCache::cacheLevels(std::__ndk1::set<int, std::__ndk1::less<int>, std::__ndk1::allocator<int> >, SearchType, int)::$_0::operator()()::{lambda()#1}::operator()()::{lambda(auto:1, bool, bool)#1}::~{lambda(auto:1, bool, bool)#1}()
PUBLIC 125698 0 std::__ndk1::__function::__func<BetterInfoCache::cacheLevels(std::__ndk1::set<int, std::__ndk1::less<int>, std::__ndk1::allocator<int> >, SearchType, int)::$_0::operator()()::{lambda()#1}::operator()()::{lambda(auto:1, bool, bool)#1}, std::__ndk1::allocator<BetterInfoCache::cacheLevels(std::__ndk1::set<int, std::__ndk1::less<int>, std::__ndk1::allocator<int> >, SearchType, int)::$_0::operator()()::{lambda()#1}::operator()()::{lambda(auto:1, bool, bool)#1}>, void (std::__ndk1::shared_ptr<std::__ndk1::vector<geode::Ref<GJGameLevel>, std::__ndk1::allocator<geode::Ref<GJGameLevel> > > >, bool, bool)>::~__func()
PUBLIC 1256f0 0 std::__ndk1::__function::__func<BetterInfoCache::cacheLevels(std::__ndk1::set<int, std::__ndk1::less<int>, std::__ndk1::allocator<int> >, SearchType, int)::$_0::operator()()::{lambda()#1}::operator()()::{lambda(auto:1, bool, bool)#1}, std::__ndk1::allocator<BetterInfoCache::cacheLevels(std::__ndk1::set<int, std::__ndk1::less<int>, std::__ndk1::allocator<int> >, SearchType, int)::$_0::operator()()::{lambda()#1}::operator()()::{lambda(auto:1, bool, bool)#1}>, void (std::__ndk1::shared_ptr<std::__ndk1::vector<geode::Ref<GJGameLevel>, std::__ndk1::allocator<geode::Ref<GJGameLevel> > > >, bool, bool)>::~__func()
PUBLIC 125744 0 std::__ndk1::__function::__func<BetterInfoCache::cacheLevels(std::__ndk1::set<int, std::__ndk1::less<int>, std::__ndk1::allocator<int> >, SearchType, int)::$_0::operator()()::{lambda()#1}::operator()()::{lambda(auto:1, bool, bool)#1}, std::__ndk1::allocator<BetterInfoCache::cacheLevels(std::__ndk1::set<int, std::__ndk1::less<int>, std::__ndk1::allocator<int> >, SearchType, int)::$_0::operator()()::{lambda()#1}::operator()()::{lambda(auto:1, bool, bool)#1}>, void (std::__ndk1::shared_ptr<std::__ndk1::vector<geode::Ref<GJGameLevel>, std::__ndk1::allocator<geode::Ref<GJGameLevel> > > >, bool, bool)>::__clone() const
PUBLIC 12579c 0 std::__ndk1::__function::__func<BetterInfoCache::cacheLevels(std::__ndk1::set<int, std::__ndk1::less<int>, std::__ndk1::allocator<int> >, SearchType, int)::$_0::operator()()::{lambda()#1}::operator()()::{lambda(auto:1, bool, bool)#1}, std::__ndk1::allocator<BetterInfoCache::cacheLevels(std::__ndk1::set<int, std::__ndk1::less<int>, std::__ndk1::allocator<int> >, SearchType, int)::$_0::operator()()::{lambda()#1}::operator()()::{lambda(auto:1, bool, bool)#1}>, void (std::__ndk1::shared_ptr<std::__ndk1::vector<geode::Ref<GJGameLevel>, std::__ndk1::allocator<geode::Ref<GJGameLevel> > > >, bool, bool)>::__clone(std::__ndk1::__function::__base<void (std::__ndk1::shared_ptr<std::__ndk1::vector<geode::Ref<GJGameLevel>, std::__ndk1::allocator<geode::Ref<GJGameLevel> > > >, bool, bool)>*) const
PUBLIC 1257c0 0 std::__ndk1::__function::__func<BetterInfoCache::cacheLevels(std::__ndk1::set<int, std::__ndk1::less<int>, std::__ndk1::allocator<int> >, SearchType, int)::$_0::operator()()::{lambda()#1}::operator()()::{lambda(auto:1, bool, bool)#1}, std::__ndk1::allocator<BetterInfoCache::cacheLevels(std::__ndk1::set<int, std::__ndk1::less<int>, std::__ndk1::allocator<int> >, SearchType, int)::$_0::operator()()::{lambda()#1}::operator()()::{lambda(auto:1, bool, bool)#1}>, void (std::__ndk1::shared_ptr<std::__ndk1::vector<geode::Ref<GJGameLevel>, std::__ndk1::allocator<geode::Ref<GJGameLevel> > > >, bool, bool)>::destroy()
PUBLIC 12580c 0 std::__ndk1::__function::__func<BetterInfoCache::cacheLevels(std::__ndk1::set<int, std::__ndk1::less<int>, std::__ndk1::allocator<int> >, SearchType, int)::$_0::operator()()::{lambda()#1}::operator()()::{lambda(auto:1, bool, bool)#1}, std::__ndk1::allocator<BetterInfoCache::cacheLevels(std::__ndk1::set<int, std::__ndk1::less<int>, std::__ndk1::allocator<int> >, SearchType, int)::$_0::operator()()::{lambda()#1}::operator()()::{lambda(auto:1, bool, bool)#1}>, void (std::__ndk1::shared_ptr<std::__ndk1::vector<geode::Ref<GJGameLevel>, std::__ndk1::allocator<geode::Ref<GJGameLevel> > > >, bool, bool)>::destroy_deallocate()
PUBLIC 125854 0 std::__ndk1::__function::__func<BetterInfoCache::cacheLevels(std::__ndk1::set<int, std::__ndk1::less<int>, std::__ndk1::allocator<int> >, SearchType, int)::$_0::operator()()::{lambda()#1}::operator()()::{lambda(auto:1, bool, bool)#1}, std::__ndk1::allocator<BetterInfoCache::cacheLevels(std::__ndk1::set<int, std::__ndk1::less<int>, std::__ndk1::allocator<int> >, SearchType, int)::$_0::operator()()::{lambda()#1}::operator()()::{lambda(auto:1, bool, bool)#1}>, void (std::__ndk1::shared_ptr<std::__ndk1::vector<geode::Ref<GJGameLevel>, std::__ndk1::allocator<geode::Ref<GJGameLevel> > > >, bool, bool)>::operator()(std::__ndk1::shared_ptr<std::__ndk1::vector<geode::Ref<GJGameLevel>, std::__ndk1::allocator<geode::Ref<GJGameLevel> > > >&&, bool&&, bool&&)
PUBLIC 125b24 0 std::__ndk1::__function::__func<BetterInfoCache::cacheLevels(std::__ndk1::set<int, std::__ndk1::less<int>, std::__ndk1::allocator<int> >, SearchType, int)::$_0::operator()()::{lambda()#1}::operator()()::{lambda(auto:1, bool, bool)#1}, std::__ndk1::allocator<BetterInfoCache::cacheLevels(std::__ndk1::set<int, std::__ndk1::less<int>, std::__ndk1::allocator<int> >, SearchType, int)::$_0::operator()()::{lambda()#1}::operator()()::{lambda(auto:1, bool, bool)#1}>, void (std::__ndk1::shared_ptr<std::__ndk1::vector<geode::Ref<GJGameLevel>, std::__ndk1::allocator<geode::Ref<GJGameLevel> > > >, bool, bool)>::target(std::type_info const&) const
PUBLIC 125b40 0 std::__ndk1::__function::__func<BetterInfoCache::cacheLevels(std::__ndk1::set<int, std::__ndk1::less<int>, std::__ndk1::allocator<int> >, SearchType, int)::$_0::operator()()::{lambda()#1}::operator()()::{lambda(auto:1, bool, bool)#1}, std::__ndk1::allocator<BetterInfoCache::cacheLevels(std::__ndk1::set<int, std::__ndk1::less<int>, std::__ndk1::allocator<int> >, SearchType, int)::$_0::operator()()::{lambda()#1}::operator()()::{lambda(auto:1, bool, bool)#1}>, void (std::__ndk1::shared_ptr<std::__ndk1::vector<geode::Ref<GJGameLevel>, std::__ndk1::allocator<geode::Ref<GJGameLevel> > > >, bool, bool)>::target_type() const
PUBLIC 125b4c 0 BetterInfoCache::cacheLevels(std::__ndk1::set<int, std::__ndk1::less<int>, std::__ndk1::allocator<int> >, SearchType, int)::$_0::operator()()::{lambda()#1}::operator()()::{lambda(auto:1, bool, bool)#1}::operator()<std::__ndk1::shared_ptr<std::__ndk1::vector<geode::Ref<GJGameLevel>, std::__ndk1::allocator<geode::Ref<GJGameLevel> > > > >(std::__ndk1::shared_ptr<std::__ndk1::vector<geode::Ref<GJGameLevel>, std::__ndk1::allocator<geode::Ref<GJGameLevel> > > >, bool, bool)::{lambda()#1}::~{lambda()#1}()
PUBLIC 125bc8 0 std::__ndk1::__thread_proxy[abi:ne190000]<std::__ndk1::tuple<std::__ndk1::unique_ptr<std::__ndk1::__thread_struct, std::__ndk1::default_delete<std::__ndk1::unique_ptr> >, BetterInfoCache::cacheLevels(std::__ndk1::set<int, std::__ndk1::less<int>, std::__ndk1::allocator<int> >, SearchType, int)::$_0::operator()()::{lambda()#1}::operator()()::{lambda(auto:1, bool, bool)#1}::operator()<std::__ndk1::shared_ptr<std::__ndk1::vector<geode::Ref<GJGameLevel>, std::__ndk1::less<int><GJGameLevel> > > >({lambda()#1}, bool, bool)::{lambda()#1}> >(std::__ndk1::tuple<std::__ndk1::unique_ptr<std::__ndk1::__thread_struct, std::__ndk1::default_delete<std::__ndk1::unique_ptr> >, BetterInfoCache::cacheLevels(std::__ndk1::set<int, std::__ndk1::less<int>, std::__ndk1::allocator<int> >, SearchType, int)::$_0::operator()()::{lambda()#1}::operator()()::{lambda(auto:1, bool, bool)#1}::operator()<std::__ndk1::shared_ptr<std::__ndk1::vector<geode::Ref<GJGameLevel>, std::__ndk1::less<int><GJGameLevel> > > >({lambda()#1}, bool, bool)::{lambda()#1}>)
PUBLIC 125fb4 0 std::__ndk1::unique_ptr<std::__ndk1::tuple<std::__ndk1::unique_ptr<std::__ndk1::__thread_struct, std::__ndk1::default_delete<std::__ndk1::__thread_struct> >, BetterInfoCache::cacheLevels(std::__ndk1::set<int, std::__ndk1::less<int>, std::__ndk1::allocator<int> >, SearchType, int)::$_0::operator()()::{lambda()#1}::operator()()::{lambda(auto:1, bool, bool)#1}::operator()<std::__ndk1::shared_ptr<std::__ndk1::vector<geode::Ref<GJGameLevel>, std::__ndk1::allocator<geode::Ref<GJGameLevel> > > > >(std::__ndk1::shared_ptr<std::__ndk1::vector<geode::Ref<GJGameLevel>, std::__ndk1::allocator<geode::Ref<GJGameLevel> > > >, bool, bool)::{lambda()#1}>, std::__ndk1::default_delete<std::__ndk1::tuple<std::__ndk1::unique_ptr<std::__ndk1::__thread_struct, std::__ndk1::default_delete<std::__ndk1::__thread_struct> >, BetterInfoCache::cacheLevels(std::__ndk1::set<int, std::__ndk1::less<int>, std::__ndk1::allocator<int> >, SearchType, int)::$_0::operator()()::{lambda()#1}::operator()()::{lambda(auto:1, bool, bool)#1}::operator()<std::__ndk1::shared_ptr<std::__ndk1::vector<geode::Ref<GJGameLevel>, std::__ndk1::allocator<geode::Ref<GJGameLevel> > > > >(std::__ndk1::shared_ptr<std::__ndk1::vector<geode::Ref<GJGameLevel>, std::__ndk1::allocator<geode::Ref<GJGameLevel> > > >, bool, bool)::{lambda()#1}> > >::~unique_ptr[abi:ne190000]()
PUBLIC 12605c 0 std::__ndk1::__function::__func<BetterInfoCache::cacheLevels(std::__ndk1::set<int, std::__ndk1::less<int>, std::__ndk1::allocator<int> >, SearchType, int)::$_0::operator()()::{lambda()#1}::operator()()::{lambda(auto:1, bool, bool)#1}::operator()<std::__ndk1::shared_ptr<std::__ndk1::vector<geode::Ref<GJGameLevel>, std::__ndk1::allocator<geode::Ref<GJGameLevel> > > > >(std::__ndk1::shared_ptr<std::__ndk1::vector<geode::Ref<GJGameLevel>, std::__ndk1::allocator<geode::Ref<GJGameLevel> > > >, bool, bool)::{lambda()#1}::operator()()::{lambda()#1}, std::__ndk1::allocator<BetterInfoCache::cacheLevels(std::__ndk1::set<int, std::__ndk1::less<int>, std::__ndk1::allocator<int> >, SearchType, int)::$_0::operator()()::{lambda()#1}::operator()()::{lambda(auto:1, bool, bool)#1}::operator()<std::__ndk1::shared_ptr<std::__ndk1::vector<geode::Ref<GJGameLevel>, std::__ndk1::allocator<geode::Ref<GJGameLevel> > > > >(std::__ndk1::shared_ptr<std::__ndk1::vector<geode::Ref<GJGameLevel>, std::__ndk1::allocator<geode::Ref<GJGameLevel> > > >, bool, bool)::{lambda()#1}::operator()()::{lambda()#1}>, void ()>::~__func()
PUBLIC 1260b8 0 std::__ndk1::__function::__func<BetterInfoCache::cacheLevels(std::__ndk1::set<int, std::__ndk1::less<int>, std::__ndk1::allocator<int> >, SearchType, int)::$_0::operator()()::{lambda()#1}::operator()()::{lambda(auto:1, bool, bool)#1}::operator()<std::__ndk1::shared_ptr<std::__ndk1::vector<geode::Ref<GJGameLevel>, std::__ndk1::allocator<geode::Ref<GJGameLevel> > > > >(std::__ndk1::shared_ptr<std::__ndk1::vector<geode::Ref<GJGameLevel>, std::__ndk1::allocator<geode::Ref<GJGameLevel> > > >, bool, bool)::{lambda()#1}::operator()()::{lambda()#1}, std::__ndk1::allocator<BetterInfoCache::cacheLevels(std::__ndk1::set<int, std::__ndk1::less<int>, std::__ndk1::allocator<int> >, SearchType, int)::$_0::operator()()::{lambda()#1}::operator()()::{lambda(auto:1, bool, bool)#1}::operator()<std::__ndk1::shared_ptr<std::__ndk1::vector<geode::Ref<GJGameLevel>, std::__ndk1::allocator<geode::Ref<GJGameLevel> > > > >(std::__ndk1::shared_ptr<std::__ndk1::vector<geode::Ref<GJGameLevel>, std::__ndk1::allocator<geode::Ref<GJGameLevel> > > >, bool, bool)::{lambda()#1}::operator()()::{lambda()#1}>, void ()>::~__func()
PUBLIC 126124 0 std::__ndk1::__function::__func<BetterInfoCache::cacheLevels(std::__ndk1::set<int, std::__ndk1::less<int>, std::__ndk1::allocator<int> >, SearchType, int)::$_0::operator()()::{lambda()#1}::operator()()::{lambda(auto:1, bool, bool)#1}::operator()<std::__ndk1::shared_ptr<std::__ndk1::vector<geode::Ref<GJGameLevel>, std::__ndk1::allocator<geode::Ref<GJGameLevel> > > > >(std::__ndk1::shared_ptr<std::__ndk1::vector<geode::Ref<GJGameLevel>, std::__ndk1::allocator<geode::Ref<GJGameLevel> > > >, bool, bool)::{lambda()#1}::operator()()::{lambda()#1}, std::__ndk1::allocator<BetterInfoCache::cacheLevels(std::__ndk1::set<int, std::__ndk1::less<int>, std::__ndk1::allocator<int> >, SearchType, int)::$_0::operator()()::{lambda()#1}::operator()()::{lambda(auto:1, bool, bool)#1}::operator()<std::__ndk1::shared_ptr<std::__ndk1::vector<geode::Ref<GJGameLevel>, std::__ndk1::allocator<geode::Ref<GJGameLevel> > > > >(std::__ndk1::shared_ptr<std::__ndk1::vector<geode::Ref<GJGameLevel>, std::__ndk1::allocator<geode::Ref<GJGameLevel> > > >, bool, bool)::{lambda()#1}::operator()()::{lambda()#1}>, void ()>::__clone() const
PUBLIC 12617c 0 std::__ndk1::__function::__func<BetterInfoCache::cacheLevels(std::__ndk1::set<int, std::__ndk1::less<int>, std::__ndk1::allocator<int> >, SearchType, int)::$_0::operator()()::{lambda()#1}::operator()()::{lambda(auto:1, bool, bool)#1}::operator()<std::__ndk1::shared_ptr<std::__ndk1::vector<geode::Ref<GJGameLevel>, std::__ndk1::allocator<geode::Ref<GJGameLevel> > > > >(std::__ndk1::shared_ptr<std::__ndk1::vector<geode::Ref<GJGameLevel>, std::__ndk1::allocator<geode::Ref<GJGameLevel> > > >, bool, bool)::{lambda()#1}::operator()()::{lambda()#1}, std::__ndk1::allocator<BetterInfoCache::cacheLevels(std::__ndk1::set<int, std::__ndk1::less<int>, std::__ndk1::allocator<int> >, SearchType, int)::$_0::operator()()::{lambda()#1}::operator()()::{lambda(auto:1, bool, bool)#1}::operator()<std::__ndk1::shared_ptr<std::__ndk1::vector<geode::Ref<GJGameLevel>, std::__ndk1::allocator<geode::Ref<GJGameLevel> > > > >(std::__ndk1::shared_ptr<std::__ndk1::vector<geode::Ref<GJGameLevel>, std::__ndk1::allocator<geode::Ref<GJGameLevel> > > >, bool, bool)::{lambda()#1}::operator()()::{lambda()#1}>, void ()>::__clone(std::__ndk1::__function::__base<void ()>*) const
PUBLIC 1261c8 0 std::__ndk1::__function::__func<BetterInfoCache::cacheLevels(std::__ndk1::set<int, std::__ndk1::less<int>, std::__ndk1::allocator<int> >, SearchType, int)::$_0::operator()()::{lambda()#1}::operator()()::{lambda(auto:1, bool, bool)#1}::operator()<std::__ndk1::shared_ptr<std::__ndk1::vector<geode::Ref<GJGameLevel>, std::__ndk1::allocator<geode::Ref<GJGameLevel> > > > >(std::__ndk1::shared_ptr<std::__ndk1::vector<geode::Ref<GJGameLevel>, std::__ndk1::allocator<geode::Ref<GJGameLevel> > > >, bool, bool)::{lambda()#1}::operator()()::{lambda()#1}, std::__ndk1::allocator<BetterInfoCache::cacheLevels(std::__ndk1::set<int, std::__ndk1::less<int>, std::__ndk1::allocator<int> >, SearchType, int)::$_0::operator()()::{lambda()#1}::operator()()::{lambda(auto:1, bool, bool)#1}::operator()<std::__ndk1::shared_ptr<std::__ndk1::vector<geode::Ref<GJGameLevel>, std::__ndk1::allocator<geode::Ref<GJGameLevel> > > > >(std::__ndk1::shared_ptr<std::__ndk1::vector<geode::Ref<GJGameLevel>, std::__ndk1::allocator<geode::Ref<GJGameLevel> > > >, bool, bool)::{lambda()#1}::operator()()::{lambda()#1}>, void ()>::destroy()
PUBLIC 126218 0 std::__ndk1::__function::__func<BetterInfoCache::cacheLevels(std::__ndk1::set<int, std::__ndk1::less<int>, std::__ndk1::allocator<int> >, SearchType, int)::$_0::operator()()::{lambda()#1}::operator()()::{lambda(auto:1, bool, bool)#1}::operator()<std::__ndk1::shared_ptr<std::__ndk1::vector<geode::Ref<GJGameLevel>, std::__ndk1::allocator<geode::Ref<GJGameLevel> > > > >(std::__ndk1::shared_ptr<std::__ndk1::vector<geode::Ref<GJGameLevel>, std::__ndk1::allocator<geode::Ref<GJGameLevel> > > >, bool, bool)::{lambda()#1}::operator()()::{lambda()#1}, std::__ndk1::allocator<BetterInfoCache::cacheLevels(std::__ndk1::set<int, std::__ndk1::less<int>, std::__ndk1::allocator<int> >, SearchType, int)::$_0::operator()()::{lambda()#1}::operator()()::{lambda(auto:1, bool, bool)#1}::operator()<std::__ndk1::shared_ptr<std::__ndk1::vector<geode::Ref<GJGameLevel>, std::__ndk1::allocator<geode::Ref<GJGameLevel> > > > >(std::__ndk1::shared_ptr<std::__ndk1::vector<geode::Ref<GJGameLevel>, std::__ndk1::allocator<geode::Ref<GJGameLevel> > > >, bool, bool)::{lambda()#1}::operator()()::{lambda()#1}>, void ()>::destroy_deallocate()
PUBLIC 126278 0 std::__ndk1::__function::__func<BetterInfoCache::cacheLevels(std::__ndk1::set<int, std::__ndk1::less<int>, std::__ndk1::allocator<int> >, SearchType, int)::$_0::operator()()::{lambda()#1}::operator()()::{lambda(auto:1, bool, bool)#1}::operator()<std::__ndk1::shared_ptr<std::__ndk1::vector<geode::Ref<GJGameLevel>, std::__ndk1::allocator<geode::Ref<GJGameLevel> > > > >(std::__ndk1::shared_ptr<std::__ndk1::vector<geode::Ref<GJGameLevel>, std::__ndk1::allocator<geode::Ref<GJGameLevel> > > >, bool, bool)::{lambda()#1}::operator()()::{lambda()#1}, std::__ndk1::allocator<BetterInfoCache::cacheLevels(std::__ndk1::set<int, std::__ndk1::less<int>, std::__ndk1::allocator<int> >, SearchType, int)::$_0::operator()()::{lambda()#1}::operator()()::{lambda(auto:1, bool, bool)#1}::operator()<std::__ndk1::shared_ptr<std::__ndk1::vector<geode::Ref<GJGameLevel>, std::__ndk1::allocator<geode::Ref<GJGameLevel> > > > >(std::__ndk1::shared_ptr<std::__ndk1::vector<geode::Ref<GJGameLevel>, std::__ndk1::allocator<geode::Ref<GJGameLevel> > > >, bool, bool)::{lambda()#1}::operator()()::{lambda()#1}>, void ()>::operator()()
PUBLIC 126308 0 std::__ndk1::__function::__func<BetterInfoCache::cacheLevels(std::__ndk1::set<int, std::__ndk1::less<int>, std::__ndk1::allocator<int> >, SearchType, int)::$_0::operator()()::{lambda()#1}::operator()()::{lambda(auto:1, bool, bool)#1}::operator()<std::__ndk1::shared_ptr<std::__ndk1::vector<geode::Ref<GJGameLevel>, std::__ndk1::allocator<geode::Ref<GJGameLevel> > > > >(std::__ndk1::shared_ptr<std::__ndk1::vector<geode::Ref<GJGameLevel>, std::__ndk1::allocator<geode::Ref<GJGameLevel> > > >, bool, bool)::{lambda()#1}::operator()()::{lambda()#1}, std::__ndk1::allocator<BetterInfoCache::cacheLevels(std::__ndk1::set<int, std::__ndk1::less<int>, std::__ndk1::allocator<int> >, SearchType, int)::$_0::operator()()::{lambda()#1}::operator()()::{lambda(auto:1, bool, bool)#1}::operator()<std::__ndk1::shared_ptr<std::__ndk1::vector<geode::Ref<GJGameLevel>, std::__ndk1::allocator<geode::Ref<GJGameLevel> > > > >(std::__ndk1::shared_ptr<std::__ndk1::vector<geode::Ref<GJGameLevel>, std::__ndk1::allocator<geode::Ref<GJGameLevel> > > >, bool, bool)::{lambda()#1}::operator()()::{lambda()#1}>, void ()>::target(std::type_info const&) const
PUBLIC 126324 0 std::__ndk1::__function::__func<BetterInfoCache::cacheLevels(std::__ndk1::set<int, std::__ndk1::less<int>, std::__ndk1::allocator<int> >, SearchType, int)::$_0::operator()()::{lambda()#1}::operator()()::{lambda(auto:1, bool, bool)#1}::operator()<std::__ndk1::shared_ptr<std::__ndk1::vector<geode::Ref<GJGameLevel>, std::__ndk1::allocator<geode::Ref<GJGameLevel> > > > >(std::__ndk1::shared_ptr<std::__ndk1::vector<geode::Ref<GJGameLevel>, std::__ndk1::allocator<geode::Ref<GJGameLevel> > > >, bool, bool)::{lambda()#1}::operator()()::{lambda()#1}, std::__ndk1::allocator<BetterInfoCache::cacheLevels(std::__ndk1::set<int, std::__ndk1::less<int>, std::__ndk1::allocator<int> >, SearchType, int)::$_0::operator()()::{lambda()#1}::operator()()::{lambda(auto:1, bool, bool)#1}::operator()<std::__ndk1::shared_ptr<std::__ndk1::vector<geode::Ref<GJGameLevel>, std::__ndk1::allocator<geode::Ref<GJGameLevel> > > > >(std::__ndk1::shared_ptr<std::__ndk1::vector<geode::Ref<GJGameLevel>, std::__ndk1::allocator<geode::Ref<GJGameLevel> > > >, bool, bool)::{lambda()#1}::operator()()::{lambda()#1}>, void ()>::target_type() const
PUBLIC 126330 0 std::__ndk1::__function::__func<BetterInfoCache::cacheLevels(std::__ndk1::set<int, std::__ndk1::less<int>, std::__ndk1::allocator<int> >, SearchType, int)::$_0::operator()()::{lambda()#1}::operator()()::{lambda()#1}, std::__ndk1::allocator<BetterInfoCache::cacheLevels(std::__ndk1::set<int, std::__ndk1::less<int>, std::__ndk1::allocator<int> >, SearchType, int)::$_0::operator()()::{lambda()#1}::operator()()::{lambda()#1}>, void ()>::~__func()
PUBLIC 12638c 0 std::__ndk1::__function::__func<BetterInfoCache::cacheLevels(std::__ndk1::set<int, std::__ndk1::less<int>, std::__ndk1::allocator<int> >, SearchType, int)::$_0::operator()()::{lambda()#1}::operator()()::{lambda()#1}, std::__ndk1::allocator<BetterInfoCache::cacheLevels(std::__ndk1::set<int, std::__ndk1::less<int>, std::__ndk1::allocator<int> >, SearchType, int)::$_0::operator()()::{lambda()#1}::operator()()::{lambda()#1}>, void ()>::~__func()
PUBLIC 1263f8 0 std::__ndk1::__function::__func<BetterInfoCache::cacheLevels(std::__ndk1::set<int, std::__ndk1::less<int>, std::__ndk1::allocator<int> >, SearchType, int)::$_0::operator()()::{lambda()#1}::operator()()::{lambda()#1}, std::__ndk1::allocator<BetterInfoCache::cacheLevels(std::__ndk1::set<int, std::__ndk1::less<int>, std::__ndk1::allocator<int> >, SearchType, int)::$_0::operator()()::{lambda()#1}::operator()()::{lambda()#1}>, void ()>::__clone() const
PUBLIC 126448 0 std::__ndk1::__function::__func<BetterInfoCache::cacheLevels(std::__ndk1::set<int, std::__ndk1::less<int>, std::__ndk1::allocator<int> >, SearchType, int)::$_0::operator()()::{lambda()#1}::operator()()::{lambda()#1}, std::__ndk1::allocator<BetterInfoCache::cacheLevels(std::__ndk1::set<int, std::__ndk1::less<int>, std::__ndk1::allocator<int> >, SearchType, int)::$_0::operator()()::{lambda()#1}::operator()()::{lambda()#1}>, void ()>::__clone(std::__ndk1::__function::__base<void ()>*) const
PUBLIC 12647c 0 std::__ndk1::__function::__func<BetterInfoCache::cacheLevels(std::__ndk1::set<int, std::__ndk1::less<int>, std::__ndk1::allocator<int> >, SearchType, int)::$_0::operator()()::{lambda()#1}::operator()()::{lambda()#1}, std::__ndk1::allocator<BetterInfoCache::cacheLevels(std::__ndk1::set<int, std::__ndk1::less<int>, std::__ndk1::allocator<int> >, SearchType, int)::$_0::operator()()::{lambda()#1}::operator()()::{lambda()#1}>, void ()>::destroy()
PUBLIC 1264cc 0 std::__ndk1::__function::__func<BetterInfoCache::cacheLevels(std::__ndk1::set<int, std::__ndk1::less<int>, std::__ndk1::allocator<int> >, SearchType, int)::$_0::operator()()::{lambda()#1}::operator()()::{lambda()#1}, std::__ndk1::allocator<BetterInfoCache::cacheLevels(std::__ndk1::set<int, std::__ndk1::less<int>, std::__ndk1::allocator<int> >, SearchType, int)::$_0::operator()()::{lambda()#1}::operator()()::{lambda()#1}>, void ()>::destroy_deallocate()
PUBLIC 12652c 0 std::__ndk1::__function::__func<BetterInfoCache::cacheLevels(std::__ndk1::set<int, std::__ndk1::less<int>, std::__ndk1::allocator<int> >, SearchType, int)::$_0::operator()()::{lambda()#1}::operator()()::{lambda()#1}, std::__ndk1::allocator<BetterInfoCache::cacheLevels(std::__ndk1::set<int, std::__ndk1::less<int>, std::__ndk1::allocator<int> >, SearchType, int)::$_0::operator()()::{lambda()#1}::operator()()::{lambda()#1}>, void ()>::operator()()
PUBLIC 1265a0 0 std::__ndk1::__function::__func<BetterInfoCache::cacheLevels(std::__ndk1::set<int, std::__ndk1::less<int>, std::__ndk1::allocator<int> >, SearchType, int)::$_0::operator()()::{lambda()#1}::operator()()::{lambda()#1}, std::__ndk1::allocator<BetterInfoCache::cacheLevels(std::__ndk1::set<int, std::__ndk1::less<int>, std::__ndk1::allocator<int> >, SearchType, int)::$_0::operator()()::{lambda()#1}::operator()()::{lambda()#1}>, void ()>::target(std::type_info const&) const
PUBLIC 1265bc 0 std::__ndk1::__function::__func<BetterInfoCache::cacheLevels(std::__ndk1::set<int, std::__ndk1::less<int>, std::__ndk1::allocator<int> >, SearchType, int)::$_0::operator()()::{lambda()#1}::operator()()::{lambda()#1}, std::__ndk1::allocator<BetterInfoCache::cacheLevels(std::__ndk1::set<int, std::__ndk1::less<int>, std::__ndk1::allocator<int> >, SearchType, int)::$_0::operator()()::{lambda()#1}::operator()()::{lambda()#1}>, void ()>::target_type() const
PUBLIC 1265c8 0 std::__ndk1::__thread_proxy[abi:ne190000]<std::__ndk1::tuple<std::__ndk1::unique_ptr<std::__ndk1::__thread_struct, std::__ndk1::default_delete<std::__ndk1::unique_ptr> >, BetterInfoCache::storeUserName(int, std::__ndk1::basic_string<char, std::__ndk1::char_traits<char>, std::__ndk1::allocator<char> > const&)::$_0> >(std::__ndk1::tuple<std::__ndk1::unique_ptr<std::__ndk1::__thread_struct, std::__ndk1::default_delete<std::__ndk1::unique_ptr> >, BetterInfoCache::storeUserName(int, std::__ndk1::basic_string<char, std::__ndk1::char_traits<char>, std::__ndk1::allocator<char> > const&)::$_0>)
PUBLIC 1268a4 0 std::__ndk1::unique_ptr<std::__ndk1::tuple<std::__ndk1::unique_ptr<std::__ndk1::__thread_struct, std::__ndk1::default_delete<std::__ndk1::__thread_struct> >, BetterInfoCache::storeUserName(int, std::__ndk1::basic_string<char, std::__ndk1::char_traits<char>, std::__ndk1::allocator<char> > const&)::$_0>, std::__ndk1::default_delete<std::__ndk1::tuple<std::__ndk1::unique_ptr<std::__ndk1::__thread_struct, std::__ndk1::default_delete<std::__ndk1::__thread_struct> >, BetterInfoCache::storeUserName(int, std::__ndk1::basic_string<char, std::__ndk1::char_traits<char>, std::__ndk1::allocator<char> > const&)::$_0> > >::~unique_ptr[abi:ne190000]()
PUBLIC 126904 0 std::__ndk1::__function::__func<BetterInfoCache::storeUserName(int, std::__ndk1::basic_string<char, std::__ndk1::char_traits<char>, std::__ndk1::allocator<char> > const&)::$_0::operator()() const::{lambda()#1}, std::__ndk1::allocator<BetterInfoCache::storeUserName(int, std::__ndk1::basic_string<char, std::__ndk1::char_traits<char>, std::__ndk1::allocator<char> > const&)::$_0::operator()() const::{lambda()#1}>, void ()>::~__func()
PUBLIC 126908 0 std::__ndk1::__function::__func<BetterInfoCache::storeUserName(int, std::__ndk1::basic_string<char, std::__ndk1::char_traits<char>, std::__ndk1::allocator<char> > const&)::$_0::operator()() const::{lambda()#1}, std::__ndk1::allocator<BetterInfoCache::storeUserName(int, std::__ndk1::basic_string<char, std::__ndk1::char_traits<char>, std::__ndk1::allocator<char> > const&)::$_0::operator()() const::{lambda()#1}>, void ()>::__clone() const
PUBLIC 12692c 0 std::__ndk1::__function::__func<BetterInfoCache::storeUserName(int, std::__ndk1::basic_string<char, std::__ndk1::char_traits<char>, std::__ndk1::allocator<char> > const&)::$_0::operator()() const::{lambda()#1}, std::__ndk1::allocator<BetterInfoCache::storeUserName(int, std::__ndk1::basic_string<char, std::__ndk1::char_traits<char>, std::__ndk1::allocator<char> > const&)::$_0::operator()() const::{lambda()#1}>, void ()>::__clone(std::__ndk1::__function::__base<void ()>*) const
PUBLIC 12693c 0 std::__ndk1::__function::__func<BetterInfoCache::storeUserName(int, std::__ndk1::basic_string<char, std::__ndk1::char_traits<char>, std::__ndk1::allocator<char> > const&)::$_0::operator()() const::{lambda()#1}, std::__ndk1::allocator<BetterInfoCache::storeUserName(int, std::__ndk1::basic_string<char, std::__ndk1::char_traits<char>, std::__ndk1::allocator<char> > const&)::$_0::operator()() const::{lambda()#1}>, void ()>::destroy()
PUBLIC 126940 0 std::__ndk1::__function::__func<BetterInfoCache::storeUserName(int, std::__ndk1::basic_string<char, std::__ndk1::char_traits<char>, std::__ndk1::allocator<char> > const&)::$_0::operator()() const::{lambda()#1}, std::__ndk1::allocator<BetterInfoCache::storeUserName(int, std::__ndk1::basic_string<char, std::__ndk1::char_traits<char>, std::__ndk1::allocator<char> > const&)::$_0::operator()() const::{lambda()#1}>, void ()>::destroy_deallocate()
PUBLIC 126944 0 std::__ndk1::__function::__func<BetterInfoCache::storeUserName(int, std::__ndk1::basic_string<char, std::__ndk1::char_traits<char>, std::__ndk1::allocator<char> > const&)::$_0::operator()() const::{lambda()#1}, std::__ndk1::allocator<BetterInfoCache::storeUserName(int, std::__ndk1::basic_string<char, std::__ndk1::char_traits<char>, std::__ndk1::allocator<char> > const&)::$_0::operator()() const::{lambda()#1}>, void ()>::operator()()
PUBLIC 126a10 0 std::__ndk1::__function::__func<BetterInfoCache::storeUserName(int, std::__ndk1::basic_string<char, std::__ndk1::char_traits<char>, std::__ndk1::allocator<char> > const&)::$_0::operator()() const::{lambda()#1}, std::__ndk1::allocator<BetterInfoCache::storeUserName(int, std::__ndk1::basic_string<char, std::__ndk1::char_traits<char>, std::__ndk1::allocator<char> > const&)::$_0::operator()() const::{lambda()#1}>, void ()>::target(std::type_info const&) const
PUBLIC 126a2c 0 std::__ndk1::__function::__func<BetterInfoCache::storeUserName(int, std::__ndk1::basic_string<char, std::__ndk1::char_traits<char>, std::__ndk1::allocator<char> > const&)::$_0::operator()() const::{lambda()#1}, std::__ndk1::allocator<BetterInfoCache::storeUserName(int, std::__ndk1::basic_string<char, std::__ndk1::char_traits<char>, std::__ndk1::allocator<char> > const&)::$_0::operator()() const::{lambda()#1}>, void ()>::target_type() const
PUBLIC 126a38 0 std::__ndk1::__thread_proxy[abi:ne190000]<std::__ndk1::tuple<std::__ndk1::unique_ptr<std::__ndk1::__thread_struct, std::__ndk1::default_delete<std::__ndk1::unique_ptr> >, BetterInfoCache::getUserName(int, bool)::$_0> >(std::__ndk1::tuple<std::__ndk1::unique_ptr<std::__ndk1::__thread_struct, std::__ndk1::default_delete<std::__ndk1::unique_ptr> >, BetterInfoCache::getUserName(int, bool)::$_0>)
PUBLIC 127158 0 std::__ndk1::unique_ptr<std::__ndk1::tuple<std::__ndk1::unique_ptr<std::__ndk1::__thread_struct, std::__ndk1::default_delete<std::__ndk1::__thread_struct> >, BetterInfoCache::getUserName(int, bool)::$_0>, std::__ndk1::default_delete<std::__ndk1::tuple<std::__ndk1::unique_ptr<std::__ndk1::__thread_struct, std::__ndk1::default_delete<std::__ndk1::__thread_struct> >, BetterInfoCache::getUserName(int, bool)::$_0> > >::~unique_ptr[abi:ne190000]()
PUBLIC 1271a8 0 BetterInfoCache::getUserName(int, bool)::$_0::operator()() const::{lambda(geode::utils::web::WebResponse*)#1}::operator()(geode::utils::web::WebResponse*) const
PUBLIC 1276a0 0 std::__ndk1::__function::__func<geode::Task<geode::utils::web::WebResponse, geode::utils::web::WebProgress>::map<BetterInfoCache::getUserName(int, bool)::$_0::operator()() const::{lambda(geode::utils::web::WebResponse*)#1}, geode::utils::web::WebProgress (*)(geode::utils::web::WebProgress*), void (*)()>(BetterInfoCache::getUserName(int, bool)::$_0::operator()() const::{lambda(geode::utils::web::WebResponse*)#1}&&, geode::utils::web::WebProgress (*&&)(geode::utils::web::WebProgress*), void (*&&)(), std::__ndk1::basic_string_view<char, std::__ndk1::char_traits<char> >) const::{lambda(geode::Task<geode::utils::web::WebResponse, geode::utils::web::WebProgress>::Event*)#1}, std::__ndk1::allocator<geode::Task<geode::utils::web::WebResponse, geode::utils::web::WebProgress>::map<BetterInfoCache::getUserName(int, bool)::$_0::operator()() const::{lambda(geode::utils::web::WebResponse*)#1}, geode::utils::web::WebProgress (*)(geode::utils::web::WebProgress*), void (*)()>(BetterInfoCache::getUserName(int, bool)::$_0::operator()() const::{lambda(geode::utils::web::WebResponse*)#1}&&, geode::utils::web::WebProgress (*&&)(geode::utils::web::WebProgress*), void (*&&)(), std::__ndk1::basic_string_view<char, std::__ndk1::char_traits<char> >) const::{lambda(geode::Task<geode::utils::web::WebResponse, geode::utils::web::WebProgress>::Event*)#1}>, void (geode::Task<geode::utils::web::WebResponse, geode::utils::web::WebProgress>::Event*)>::~__func()
PUBLIC 1276c0 0 std::__ndk1::__function::__func<geode::Task<geode::utils::web::WebResponse, geode::utils::web::WebProgress>::map<BetterInfoCache::getUserName(int, bool)::$_0::operator()() const::{lambda(geode::utils::web::WebResponse*)#1}, geode::utils::web::WebProgress (*)(geode::utils::web::WebProgress*), void (*)()>(BetterInfoCache::getUserName(int, bool)::$_0::operator()() const::{lambda(geode::utils::web::WebResponse*)#1}&&, geode::utils::web::WebProgress (*&&)(geode::utils::web::WebProgress*), void (*&&)(), std::__ndk1::basic_string_view<char, std::__ndk1::char_traits<char> >) const::{lambda(geode::Task<geode::utils::web::WebResponse, geode::utils::web::WebProgress>::Event*)#1}, std::__ndk1::allocator<geode::Task<geode::utils::web::WebResponse, geode::utils::web::WebProgress>::map<BetterInfoCache::getUserName(int, bool)::$_0::operator()() const::{lambda(geode::utils::web::WebResponse*)#1}, geode::utils::web::WebProgress (*)(geode::utils::web::WebProgress*), void (*)()>(BetterInfoCache::getUserName(int, bool)::$_0::operator()() const::{lambda(geode::utils::web::WebResponse*)#1}&&, geode::utils::web::WebProgress (*&&)(geode::utils::web::WebProgress*), void (*&&)(), std::__ndk1::basic_string_view<char, std::__ndk1::char_traits<char> >) const::{lambda(geode::Task<geode::utils::web::WebResponse, geode::utils::web::WebProgress>::Event*)#1}>, void (geode::Task<geode::utils::web::WebResponse, geode::utils::web::WebProgress>::Event*)>::~__func()
PUBLIC 1276fc 0 std::__ndk1::__function::__func<geode::Task<geode::utils::web::WebResponse, geode::utils::web::WebProgress>::map<BetterInfoCache::getUserName(int, bool)::$_0::operator()() const::{lambda(geode::utils::web::WebResponse*)#1}, geode::utils::web::WebProgress (*)(geode::utils::web::WebProgress*), void (*)()>(BetterInfoCache::getUserName(int, bool)::$_0::operator()() const::{lambda(geode::utils::web::WebResponse*)#1}&&, geode::utils::web::WebProgress (*&&)(geode::utils::web::WebProgress*), void (*&&)(), std::__ndk1::basic_string_view<char, std::__ndk1::char_traits<char> >) const::{lambda(geode::Task<geode::utils::web::WebResponse, geode::utils::web::WebProgress>::Event*)#1}, std::__ndk1::allocator<geode::Task<geode::utils::web::WebResponse, geode::utils::web::WebProgress>::map<BetterInfoCache::getUserName(int, bool)::$_0::operator()() const::{lambda(geode::utils::web::WebResponse*)#1}, geode::utils::web::WebProgress (*)(geode::utils::web::WebProgress*), void (*)()>(BetterInfoCache::getUserName(int, bool)::$_0::operator()() const::{lambda(geode::utils::web::WebResponse*)#1}&&, geode::utils::web::WebProgress (*&&)(geode::utils::web::WebProgress*), void (*&&)(), std::__ndk1::basic_string_view<char, std::__ndk1::char_traits<char> >) const::{lambda(geode::Task<geode::utils::web::WebResponse, geode::utils::web::WebProgress>::Event*)#1}>, void (geode::Task<geode::utils::web::WebResponse, geode::utils::web::WebProgress>::Event*)>::__clone() const
PUBLIC 12775c 0 std::__ndk1::__function::__func<geode::Task<geode::utils::web::WebResponse, geode::utils::web::WebProgress>::map<BetterInfoCache::getUserName(int, bool)::$_0::operator()() const::{lambda(geode::utils::web::WebResponse*)#1}, geode::utils::web::WebProgress (*)(geode::utils::web::WebProgress*), void (*)()>(BetterInfoCache::getUserName(int, bool)::$_0::operator()() const::{lambda(geode::utils::web::WebResponse*)#1}&&, geode::utils::web::WebProgress (*&&)(geode::utils::web::WebProgress*), void (*&&)(), std::__ndk1::basic_string_view<char, std::__ndk1::char_traits<char> >) const::{lambda(geode::Task<geode::utils::web::WebResponse, geode::utils::web::WebProgress>::Event*)#1}, std::__ndk1::allocator<geode::Task<geode::utils::web::WebResponse, geode::utils::web::WebProgress>::map<BetterInfoCache::getUserName(int, bool)::$_0::operator()() const::{lambda(geode::utils::web::WebResponse*)#1}, geode::utils::web::WebProgress (*)(geode::utils::web::WebProgress*), void (*)()>(BetterInfoCache::getUserName(int, bool)::$_0::operator()() const::{lambda(geode::utils::web::WebResponse*)#1}&&, geode::utils::web::WebProgress (*&&)(geode::utils::web::WebProgress*), void (*&&)(), std::__ndk1::basic_string_view<char, std::__ndk1::char_traits<char> >) const::{lambda(geode::Task<geode::utils::web::WebResponse, geode::utils::web::WebProgress>::Event*)#1}>, void (geode::Task<geode::utils::web::WebResponse, geode::utils::web::WebProgress>::Event*)>::__clone(std::__ndk1::__function::__base<void (geode::Task<geode::utils::web::WebResponse, geode::utils::web::WebProgress>::Event*)>*) const
PUBLIC 1277b0 0 std::__ndk1::__function::__func<geode::Task<geode::utils::web::WebResponse, geode::utils::web::WebProgress>::map<BetterInfoCache::getUserName(int, bool)::$_0::operator()() const::{lambda(geode::utils::web::WebResponse*)#1}, geode::utils::web::WebProgress (*)(geode::utils::web::WebProgress*), void (*)()>(BetterInfoCache::getUserName(int, bool)::$_0::operator()() const::{lambda(geode::utils::web::WebResponse*)#1}&&, geode::utils::web::WebProgress (*&&)(geode::utils::web::WebProgress*), void (*&&)(), std::__ndk1::basic_string_view<char, std::__ndk1::char_traits<char> >) const::{lambda(geode::Task<geode::utils::web::WebResponse, geode::utils::web::WebProgress>::Event*)#1}, std::__ndk1::allocator<geode::Task<geode::utils::web::WebResponse, geode::utils::web::WebProgress>::map<BetterInfoCache::getUserName(int, bool)::$_0::operator()() const::{lambda(geode::utils::web::WebResponse*)#1}, geode::utils::web::WebProgress (*)(geode::utils::web::WebProgress*), void (*)()>(BetterInfoCache::getUserName(int, bool)::$_0::operator()() const::{lambda(geode::utils::web::WebResponse*)#1}&&, geode::utils::web::WebProgress (*&&)(geode::utils::web::WebProgress*), void (*&&)(), std::__ndk1::basic_string_view<char, std::__ndk1::char_traits<char> >) const::{lambda(geode::Task<geode::utils::web::WebResponse, geode::utils::web::WebProgress>::Event*)#1}>, void (geode::Task<geode::utils::web::WebResponse, geode::utils::web::WebProgress>::Event*)>::destroy()
PUBLIC 1277c0 0 std::__ndk1::__function::__func<geode::Task<geode::utils::web::WebResponse, geode::utils::web::WebProgress>::map<BetterInfoCache::getUserName(int, bool)::$_0::operator()() const::{lambda(geode::utils::web::WebResponse*)#1}, geode::utils::web::WebProgress (*)(geode::utils::web::WebProgress*), void (*)()>(BetterInfoCache::getUserName(int, bool)::$_0::operator()() const::{lambda(geode::utils::web::WebResponse*)#1}&&, geode::utils::web::WebProgress (*&&)(geode::utils::web::WebProgress*), void (*&&)(), std::__ndk1::basic_string_view<char, std::__ndk1::char_traits<char> >) const::{lambda(geode::Task<geode::utils::web::WebResponse, geode::utils::web::WebProgress>::Event*)#1}, std::__ndk1::allocator<geode::Task<geode::utils::web::WebResponse, geode::utils::web::WebProgress>::map<BetterInfoCache::getUserName(int, bool)::$_0::operator()() const::{lambda(geode::utils::web::WebResponse*)#1}, geode::utils::web::WebProgress (*)(geode::utils::web::WebProgress*), void (*)()>(BetterInfoCache::getUserName(int, bool)::$_0::operator()() const::{lambda(geode::utils::web::WebResponse*)#1}&&, geode::utils::web::WebProgress (*&&)(geode::utils::web::WebProgress*), void (*&&)(), std::__ndk1::basic_string_view<char, std::__ndk1::char_traits<char> >) const::{lambda(geode::Task<geode::utils::web::WebResponse, geode::utils::web::WebProgress>::Event*)#1}>, void (geode::Task<geode::utils::web::WebResponse, geode::utils::web::WebProgress>::Event*)>::destroy_deallocate()
PUBLIC 1277f0 0 std::__ndk1::__function::__func<geode::Task<geode::utils::web::WebResponse, geode::utils::web::WebProgress>::map<BetterInfoCache::getUserName(int, bool)::$_0::operator()() const::{lambda(geode::utils::web::WebResponse*)#1}, geode::utils::web::WebProgress (*)(geode::utils::web::WebProgress*), void (*)()>(BetterInfoCache::getUserName(int, bool)::$_0::operator()() const::{lambda(geode::utils::web::WebResponse*)#1}&&, geode::utils::web::WebProgress (*&&)(geode::utils::web::WebProgress*), void (*&&)(), std::__ndk1::basic_string_view<char, std::__ndk1::char_traits<char> >) const::{lambda(geode::Task<geode::utils::web::WebResponse, geode::utils::web::WebProgress>::Event*)#1}, std::__ndk1::allocator<geode::Task<geode::utils::web::WebResponse, geode::utils::web::WebProgress>::map<BetterInfoCache::getUserName(int, bool)::$_0::operator()() const::{lambda(geode::utils::web::WebResponse*)#1}, geode::utils::web::WebProgress (*)(geode::utils::web::WebProgress*), void (*)()>(BetterInfoCache::getUserName(int, bool)::$_0::operator()() const::{lambda(geode::utils::web::WebResponse*)#1}&&, geode::utils::web::WebProgress (*&&)(geode::utils::web::WebProgress*), void (*&&)(), std::__ndk1::basic_string_view<char, std::__ndk1::char_traits<char> >) const::{lambda(geode::Task<geode::utils::web::WebResponse, geode::utils::web::WebProgress>::Event*)#1}>, void (geode::Task<geode::utils::web::WebResponse, geode::utils::web::WebProgress>::Event*)>::operator()(geode::Task<geode::utils::web::WebResponse, geode::utils::web::WebProgress>::Event*&&)
PUBLIC 1279c4 0 std::__ndk1::__function::__func<geode::Task<geode::utils::web::WebResponse, geode::utils::web::WebProgress>::map<BetterInfoCache::getUserName(int, bool)::$_0::operator()() const::{lambda(geode::utils::web::WebResponse*)#1}, geode::utils::web::WebProgress (*)(geode::utils::web::WebProgress*), void (*)()>(BetterInfoCache::getUserName(int, bool)::$_0::operator()() const::{lambda(geode::utils::web::WebResponse*)#1}&&, geode::utils::web::WebProgress (*&&)(geode::utils::web::WebProgress*), void (*&&)(), std::__ndk1::basic_string_view<char, std::__ndk1::char_traits<char> >) const::{lambda(geode::Task<geode::utils::web::WebResponse, geode::utils::web::WebProgress>::Event*)#1}, std::__ndk1::allocator<geode::Task<geode::utils::web::WebResponse, geode::utils::web::WebProgress>::map<BetterInfoCache::getUserName(int, bool)::$_0::operator()() const::{lambda(geode::utils::web::WebResponse*)#1}, geode::utils::web::WebProgress (*)(geode::utils::web::WebProgress*), void (*)()>(BetterInfoCache::getUserName(int, bool)::$_0::operator()() const::{lambda(geode::utils::web::WebResponse*)#1}&&, geode::utils::web::WebProgress (*&&)(geode::utils::web::WebProgress*), void (*&&)(), std::__ndk1::basic_string_view<char, std::__ndk1::char_traits<char> >) const::{lambda(geode::Task<geode::utils::web::WebResponse, geode::utils::web::WebProgress>::Event*)#1}>, void (geode::Task<geode::utils::web::WebResponse, geode::utils::web::WebProgress>::Event*)>::target(std::type_info const&) const
PUBLIC 1279e0 0 std::__ndk1::__function::__func<geode::Task<geode::utils::web::WebResponse, geode::utils::web::WebProgress>::map<BetterInfoCache::getUserName(int, bool)::$_0::operator()() const::{lambda(geode::utils::web::WebResponse*)#1}, geode::utils::web::WebProgress (*)(geode::utils::web::WebProgress*), void (*)()>(BetterInfoCache::getUserName(int, bool)::$_0::operator()() const::{lambda(geode::utils::web::WebResponse*)#1}&&, geode::utils::web::WebProgress (*&&)(geode::utils::web::WebProgress*), void (*&&)(), std::__ndk1::basic_string_view<char, std::__ndk1::char_traits<char> >) const::{lambda(geode::Task<geode::utils::web::WebResponse, geode::utils::web::WebProgress>::Event*)#1}, std::__ndk1::allocator<geode::Task<geode::utils::web::WebResponse, geode::utils::web::WebProgress>::map<BetterInfoCache::getUserName(int, bool)::$_0::operator()() const::{lambda(geode::utils::web::WebResponse*)#1}, geode::utils::web::WebProgress (*)(geode::utils::web::WebProgress*), void (*)()>(BetterInfoCache::getUserName(int, bool)::$_0::operator()() const::{lambda(geode::utils::web::WebResponse*)#1}&&, geode::utils::web::WebProgress (*&&)(geode::utils::web::WebProgress*), void (*&&)(), std::__ndk1::basic_string_view<char, std::__ndk1::char_traits<char> >) const::{lambda(geode::Task<geode::utils::web::WebResponse, geode::utils::web::WebProgress>::Event*)#1}>, void (geode::Task<geode::utils::web::WebResponse, geode::utils::web::WebProgress>::Event*)>::target_type() const
PUBLIC 1279ec 0 geode::Task<geode::utils::web::WebResponse, geode::utils::web::WebProgress>::map<BetterInfoCache::getUserName(int, bool)::$_0::operator()() const::{lambda(geode::utils::web::WebResponse*)#1}, geode::utils::web::WebProgress (*)(geode::utils::web::WebProgress*), void (*)()>(BetterInfoCache::getUserName(int, bool)::$_0::operator()() const::{lambda(geode::utils::web::WebResponse*)#1}&&, geode::utils::web::WebProgress (*&&)(geode::utils::web::WebProgress*), void (*&&)(), std::__ndk1::basic_string_view<char, std::__ndk1::char_traits<char> >) const::{lambda(void*)#1}::__invoke(void*)
PUBLIC 127a00 0 geode::Task<geode::utils::web::WebResponse, geode::utils::web::WebProgress>::map<BetterInfoCache::getUserName(int, bool)::$_0::operator()() const::{lambda(geode::utils::web::WebResponse*)#1}, geode::utils::web::WebProgress (*)(geode::utils::web::WebProgress*), void (*)()>(BetterInfoCache::getUserName(int, bool)::$_0::operator()() const::{lambda(geode::utils::web::WebResponse*)#1}&&, geode::utils::web::WebProgress (*&&)(geode::utils::web::WebProgress*), void (*&&)(), std::__ndk1::basic_string_view<char, std::__ndk1::char_traits<char> >) const::{lambda(void*)#2}::__invoke(void*)
PUBLIC 127ab8 0 geode::Task<geode::utils::web::WebResponse, geode::utils::web::WebProgress>::map<BetterInfoCache::getUserName(int, bool)::$_0::operator()() const::{lambda(geode::utils::web::WebResponse*)#1}, geode::utils::web::WebProgress (*)(geode::utils::web::WebProgress*)>(BetterInfoCache::getUserName(int, bool)::$_0::operator()() const::{lambda(geode::utils::web::WebResponse*)#1}&&, geode::utils::web::WebProgress (*&&)(geode::utils::web::WebProgress*), std::__ndk1::basic_string_view<char, std::__ndk1::char_traits<char> >) const::{lambda()#1}::__invoke()
PUBLIC 127abc 0 _ZZNK5geode4TaskINS_5utils3web11WebResponseENS2_11WebProgressEE3mapIZZN15BetterInfoCache11getUserNameEibENK3$_0clEvEUlPS3_E_Qsr3stdE18copy_constructibleIT0_EEEDaOT_NSt6__ndk117basic_string_viewIcNSE_11char_traitsIcEEEEENUlPS4_E_8__invokeESJ_
PUBLIC 127ae4 0 std::__ndk1::__tuple_leaf<(unsigned long)0, std::__ndk1::unique_ptr<std::__ndk1::__thread_struct, std::__ndk1::default_delete<std::__ndk1::__thread_struct> >, false>::~__tuple_leaf()
PUBLIC 127b20 0 std::__ndk1::__hash_table<std::__ndk1::__hash_value_type<int, geode::Task<geode::utils::web::WebResponse, geode::utils::web::WebProgress> >, std::__ndk1::__unordered_map_hasher<int, std::__ndk1::__hash_value_type<int, geode::Task<geode::utils::web::WebResponse, geode::utils::web::WebProgress> >, std::__ndk1::hash<int>, std::__ndk1::equal_to<int>, true>, std::__ndk1::__unordered_map_equal<int, std::__ndk1::__hash_value_type<int, geode::Task<geode::utils::web::WebResponse, geode::utils::web::WebProgress> >, std::__ndk1::equal_to<int>, std::__ndk1::hash<int>, true>, std::__ndk1::allocator<std::__ndk1::__hash_value_type<int, geode::Task<geode::utils::web::WebResponse, geode::utils::web::WebProgress> > > >::__emplace_unique_key_args<int, int&, geode::Task<geode::utils::web::WebResponse, geode::utils::web::WebProgress> >(int const&, int&, geode::Task<geode::utils::web::WebResponse, geode::utils::web::WebProgress>)
PUBLIC 127ea8 0 std::__ndk1::unique_ptr<std::__ndk1::__hash_node<std::__ndk1::__hash_value_type<int, geode::Task<geode::utils::web::WebResponse, geode::utils::web::WebProgress> >, void*>, std::__ndk1::__hash_node_destructor<std::__ndk1::allocator<std::__ndk1::__hash_node<std::__ndk1::__hash_value_type<int, geode::Task<geode::utils::web::WebResponse, geode::utils::web::WebProgress> >, void*> > > >::~unique_ptr[abi:ne190000]()
PUBLIC 127f24 0 std::__ndk1::__hash_table<std::__ndk1::__hash_value_type<int, geode::Task<geode::utils::web::WebResponse, geode::utils::web::WebProgress> >, std::__ndk1::__unordered_map_hasher<int, std::__ndk1::__hash_value_type<int, geode::Task<geode::utils::web::WebResponse, geode::utils::web::WebProgress> >, std::__ndk1::hash<int>, std::__ndk1::equal_to<int>, true>, std::__ndk1::__unordered_map_equal<int, std::__ndk1::__hash_value_type<int, geode::Task<geode::utils::web::WebResponse, geode::utils::web::WebProgress> >, std::__ndk1::equal_to<int>, std::__ndk1::hash<int>, true>, std::__ndk1::allocator<std::__ndk1::__hash_value_type<int, geode::Task<geode::utils::web::WebResponse, geode::utils::web::WebProgress> > > >::__do_rehash<true>(unsigned long)
PUBLIC 1280d0 0 std::__ndk1::__hash_table<std::__ndk1::__hash_value_type<std::__ndk1::basic_string<char, std::__ndk1::char_traits<char>, std::__ndk1::allocator<char> >, std::__ndk1::basic_string<char, std::__ndk1::char_traits<char>, std::__ndk1::allocator<char> > >, std::__ndk1::__unordered_map_hasher<std::__ndk1::basic_string<char, std::__ndk1::char_traits<char>, std::__ndk1::allocator<char> >, std::__ndk1::__hash_value_type<std::__ndk1::basic_string<char, std::__ndk1::char_traits<char>, std::__ndk1::allocator<char> >, std::__ndk1::basic_string<char, std::__ndk1::char_traits<char>, std::__ndk1::allocator<char> > >, std::__ndk1::hash<std::__ndk1::basic_string<char, std::__ndk1::char_traits<char>, std::__ndk1::allocator<char> > >, std::__ndk1::equal_to<std::__ndk1::basic_string<char, std::__ndk1::char_traits<char>, std::__ndk1::allocator<char> > >, true>, std::__ndk1::__unordered_map_equal<std::__ndk1::basic_string<char, std::__ndk1::char_traits<char>, std::__ndk1::allocator<char> >, std::__ndk1::__hash_value_type<std::__ndk1::basic_string<char, std::__ndk1::char_traits<char>, std::__ndk1::allocator<char> >, std::__ndk1::basic_string<char, std::__ndk1::char_traits<char>, std::__ndk1::allocator<char> > >, std::__ndk1::equal_to<std::__ndk1::basic_string<char, std::__ndk1::char_traits<char>, std::__ndk1::allocator<char> > >, std::__ndk1::hash<std::__ndk1::basic_string<char, std::__ndk1::char_traits<char>, std::__ndk1::allocator<char> > >, true>, std::__ndk1::allocator<std::__ndk1::__hash_value_type<std::__ndk1::basic_string<char, std::__ndk1::char_traits<char>, std::__ndk1::allocator<char> >, std::__ndk1::basic_string<char, std::__ndk1::char_traits<char>, std::__ndk1::allocator<char> > > > >::__emplace_unique_key_args<std::__ndk1::basic_string<char, std::__ndk1::char_traits<char>, std::__ndk1::allocator<char> >, std::__ndk1::piecewise_construct_t const&, std::__ndk1::tuple<std::__ndk1::basic_string<char, std::__ndk1::char_traits<char>, std::__ndk1::allocator<char> > const&>, std::__ndk1::tuple<> >(std::__ndk1::basic_string<char, std::__ndk1::char_traits<char>, std::__ndk1::allocator<char> > const&, std::__ndk1::piecewise_construct_t const&, std::__ndk1::tuple<std::__ndk1::basic_string<char, std::__ndk1::char_traits<char>, std::__ndk1::allocator<char> > const&>, std::__ndk1::tuple<>)
PUBLIC 128734 0 std::__ndk1::unique_ptr<std::__ndk1::__hash_node<std::__ndk1::__hash_value_type<std::__ndk1::basic_string<char, std::__ndk1::char_traits<char>, std::__ndk1::allocator<char> >, std::__ndk1::basic_string<char, std::__ndk1::char_traits<char>, std::__ndk1::allocator<char> > >, void*>, std::__ndk1::__hash_node_destructor<std::__ndk1::allocator<std::__ndk1::__hash_node<std::__ndk1::__hash_value_type<std::__ndk1::basic_string<char, std::__ndk1::char_traits<char>, std::__ndk1::allocator<char> >, std::__ndk1::basic_string<char, std::__ndk1::char_traits<char>, std::__ndk1::allocator<char> > >, void*> > > >::~unique_ptr[abi:ne190000]()
PUBLIC 128790 0 std::__ndk1::__hash_table<std::__ndk1::__hash_value_type<std::__ndk1::basic_string<char, std::__ndk1::char_traits<char>, std::__ndk1::allocator<char> >, std::__ndk1::basic_string<char, std::__ndk1::char_traits<char>, std::__ndk1::allocator<char> > >, std::__ndk1::__unordered_map_hasher<std::__ndk1::basic_string<char, std::__ndk1::char_traits<char>, std::__ndk1::allocator<char> >, std::__ndk1::__hash_value_type<std::__ndk1::basic_string<char, std::__ndk1::char_traits<char>, std::__ndk1::allocator<char> >, std::__ndk1::basic_string<char, std::__ndk1::char_traits<char>, std::__ndk1::allocator<char> > >, std::__ndk1::hash<std::__ndk1::basic_string<char, std::__ndk1::char_traits<char>, std::__ndk1::allocator<char> > >, std::__ndk1::equal_to<std::__ndk1::basic_string<char, std::__ndk1::char_traits<char>, std::__ndk1::allocator<char> > >, true>, std::__ndk1::__unordered_map_equal<std::__ndk1::basic_string<char, std::__ndk1::char_traits<char>, std::__ndk1::allocator<char> >, std::__ndk1::__hash_value_type<std::__ndk1::basic_string<char, std::__ndk1::char_traits<char>, std::__ndk1::allocator<char> >, std::__ndk1::basic_string<char, std::__ndk1::char_traits<char>, std::__ndk1::allocator<char> > >, std::__ndk1::equal_to<std::__ndk1::basic_string<char, std::__ndk1::char_traits<char>, std::__ndk1::allocator<char> > >, std::__ndk1::hash<std::__ndk1::basic_string<char, std::__ndk1::char_traits<char>, std::__ndk1::allocator<char> > >, true>, std::__ndk1::allocator<std::__ndk1::__hash_value_type<std::__ndk1::basic_string<char, std::__ndk1::char_traits<char>, std::__ndk1::allocator<char> >, std::__ndk1::basic_string<char, std::__ndk1::char_traits<char>, std::__ndk1::allocator<char> > > > >::find<std::__ndk1::basic_string<char, std::__ndk1::char_traits<char>, std::__ndk1::allocator<char> > >(std::__ndk1::basic_string<char, std::__ndk1::char_traits<char>, std::__ndk1::allocator<char> > const&)
PUBLIC m 1289e4 0 BetterInfoOnline::init()
PUBLIC m 1289ec 0 BetterInfoOnline::BetterInfoOnline()
PUBLIC m 128a34 0 BetterInfoOnline::loadScores(int, bool, BILeaderboardDelegate*)
PUBLIC m 128aa8 0 BetterInfoOnline::loadScores(int, bool, BILeaderboardDelegate*, geode::Ref<ProfilePage>)
PUBLIC m 1295dc 0 BetterInfoOnline::loadScores(int, bool, geode::Ref<ProfilePage>)
PUBLIC m 129698 0 BetterInfoOnline::sendScores(cocos2d::CCArray*, int, BILeaderboardDelegate*, geode::Ref<ProfilePage>)
PUBLIC 129770 0 BetterInfoOnline::loadScores(int, bool, BILeaderboardDelegate*, geode::Ref<ProfilePage>)::$_0::~$_0()
PUBLIC m 12978c 0 BetterInfoOnline::generateScores(std::__ndk1::basic_string<char, std::__ndk1::char_traits<char>, std::__ndk1::allocator<char> > const&, int)
PUBLIC m 129c40 0 BetterInfoOnline::sendScoreToProfilePage(cocos2d::CCArray*, int, geode::Ref<ProfilePage>)
PUBLIC m 129dc4 0 BetterInfoOnline::cancelScoresRequest(BILeaderboardDelegate*)
PUBLIC 129e88 0 BetterInfoOnline::~BetterInfoOnline()
PUBLIC 129ec4 0 BetterInfoOnline::~BetterInfoOnline()
PUBLIC 129f08 0 BetterInfoOnline::loadScores(int, bool, BILeaderboardDelegate*, geode::Ref<ProfilePage>)::$_0::operator()(geode::utils::web::WebResponse*) const
PUBLIC 12a358 0 geode::Task<geode::utils::web::WebResponse, geode::utils::web::WebProgress>::map<BetterInfoOnline::loadScores(int, bool, BILeaderboardDelegate*, geode::Ref<ProfilePage>)::$_0, geode::utils::web::WebProgress (*)(geode::utils::web::WebProgress*), void (*)()>(BetterInfoOnline::loadScores(int, bool, BILeaderboardDelegate*, geode::Ref<ProfilePage>)::$_0&&, geode::utils::web::WebProgress (*&&)(geode::utils::web::WebProgress*), void (*&&)(), std::__ndk1::basic_string_view<char, std::__ndk1::char_traits<char> >) const::{lambda(geode::Task<geode::utils::web::WebResponse, geode::utils::web::WebProgress>::Event*)#1}::~{lambda(geode::Task<geode::utils::web::WebResponse, geode::utils::web::WebProgress>::Event*)#1}()
PUBLIC 12a398 0 std::__ndk1::__function::__func<geode::Task<geode::utils::web::WebResponse, geode::utils::web::WebProgress>::map<BetterInfoOnline::loadScores(int, bool, BILeaderboardDelegate*, geode::Ref<ProfilePage>)::$_0, geode::utils::web::WebProgress (*)(geode::utils::web::WebProgress*), void (*)()>(BetterInfoOnline::loadScores(int, bool, BILeaderboardDelegate*, geode::Ref<ProfilePage>)::$_0&&, geode::utils::web::WebProgress (*&&)(geode::utils::web::WebProgress*), void (*&&)(), std::__ndk1::basic_string_view<char, std::__ndk1::char_traits<char> >) const::{lambda(geode::Task<geode::utils::web::WebResponse, geode::utils::web::WebProgress>::Event*)#1}, std::__ndk1::allocator<geode::Task<geode::utils::web::WebResponse, geode::utils::web::WebProgress>::map<BetterInfoOnline::loadScores(int, bool, BILeaderboardDelegate*, geode::Ref<ProfilePage>)::$_0, geode::utils::web::WebProgress (*)(geode::utils::web::WebProgress*), void (*)()>(BetterInfoOnline::loadScores(int, bool, BILeaderboardDelegate*, geode::Ref<ProfilePage>)::$_0&&, geode::utils::web::WebProgress (*&&)(geode::utils::web::WebProgress*), void (*&&)(), std::__ndk1::basic_string_view<char, std::__ndk1::char_traits<char> >) const::{lambda(geode::Task<geode::utils::web::WebResponse, geode::utils::web::WebProgress>::Event*)#1}>, void (geode::Task<geode::utils::web::WebResponse, geode::utils::web::WebProgress>::Event*)>::~__func()
PUBLIC 12a3e4 0 std::__ndk1::__function::__func<geode::Task<geode::utils::web::WebResponse, geode::utils::web::WebProgress>::map<BetterInfoOnline::loadScores(int, bool, BILeaderboardDelegate*, geode::Ref<ProfilePage>)::$_0, geode::utils::web::WebProgress (*)(geode::utils::web::WebProgress*), void (*)()>(BetterInfoOnline::loadScores(int, bool, BILeaderboardDelegate*, geode::Ref<ProfilePage>)::$_0&&, geode::utils::web::WebProgress (*&&)(geode::utils::web::WebProgress*), void (*&&)(), std::__ndk1::basic_string_view<char, std::__ndk1::char_traits<char> >) const::{lambda(geode::Task<geode::utils::web::WebResponse, geode::utils::web::WebProgress>::Event*)#1}, std::__ndk1::allocator<geode::Task<geode::utils::web::WebResponse, geode::utils::web::WebProgress>::map<BetterInfoOnline::loadScores(int, bool, BILeaderboardDelegate*, geode::Ref<ProfilePage>)::$_0, geode::utils::web::WebProgress (*)(geode::utils::web::WebProgress*), void (*)()>(BetterInfoOnline::loadScores(int, bool, BILeaderboardDelegate*, geode::Ref<ProfilePage>)::$_0&&, geode::utils::web::WebProgress (*&&)(geode::utils::web::WebProgress*), void (*&&)(), std::__ndk1::basic_string_view<char, std::__ndk1::char_traits<char> >) const::{lambda(geode::Task<geode::utils::web::WebResponse, geode::utils::web::WebProgress>::Event*)#1}>, void (geode::Task<geode::utils::web::WebResponse, geode::utils::web::WebProgress>::Event*)>::~__func()
PUBLIC 12a42c 0 std::__ndk1::__function::__func<geode::Task<geode::utils::web::WebResponse, geode::utils::web::WebProgress>::map<BetterInfoOnline::loadScores(int, bool, BILeaderboardDelegate*, geode::Ref<ProfilePage>)::$_0, geode::utils::web::WebProgress (*)(geode::utils::web::WebProgress*), void (*)()>(BetterInfoOnline::loadScores(int, bool, BILeaderboardDelegate*, geode::Ref<ProfilePage>)::$_0&&, geode::utils::web::WebProgress (*&&)(geode::utils::web::WebProgress*), void (*&&)(), std::__ndk1::basic_string_view<char, std::__ndk1::char_traits<char> >) const::{lambda(geode::Task<geode::utils::web::WebResponse, geode::utils::web::WebProgress>::Event*)#1}, std::__ndk1::allocator<geode::Task<geode::utils::web::WebResponse, geode::utils::web::WebProgress>::map<BetterInfoOnline::loadScores(int, bool, BILeaderboardDelegate*, geode::Ref<ProfilePage>)::$_0, geode::utils::web::WebProgress (*)(geode::utils::web::WebProgress*), void (*)()>(BetterInfoOnline::loadScores(int, bool, BILeaderboardDelegate*, geode::Ref<ProfilePage>)::$_0&&, geode::utils::web::WebProgress (*&&)(geode::utils::web::WebProgress*), void (*&&)(), std::__ndk1::basic_string_view<char, std::__ndk1::char_traits<char> >) const::{lambda(geode::Task<geode::utils::web::WebResponse, geode::utils::web::WebProgress>::Event*)#1}>, void (geode::Task<geode::utils::web::WebResponse, geode::utils::web::WebProgress>::Event*)>::__clone() const
PUBLIC 12a4c4 0 std::__ndk1::__function::__func<geode::Task<geode::utils::web::WebResponse, geode::utils::web::WebProgress>::map<BetterInfoOnline::loadScores(int, bool, BILeaderboardDelegate*, geode::Ref<ProfilePage>)::$_0, geode::utils::web::WebProgress (*)(geode::utils::web::WebProgress*), void (*)()>(BetterInfoOnline::loadScores(int, bool, BILeaderboardDelegate*, geode::Ref<ProfilePage>)::$_0&&, geode::utils::web::WebProgress (*&&)(geode::utils::web::WebProgress*), void (*&&)(), std::__ndk1::basic_string_view<char, std::__ndk1::char_traits<char> >) const::{lambda(geode::Task<geode::utils::web::WebResponse, geode::utils::web::WebProgress>::Event*)#1}, std::__ndk1::allocator<geode::Task<geode::utils::web::WebResponse, geode::utils::web::WebProgress>::map<BetterInfoOnline::loadScores(int, bool, BILeaderboardDelegate*, geode::Ref<ProfilePage>)::$_0, geode::utils::web::WebProgress (*)(geode::utils::web::WebProgress*), void (*)()>(BetterInfoOnline::loadScores(int, bool, BILeaderboardDelegate*, geode::Ref<ProfilePage>)::$_0&&, geode::utils::web::WebProgress (*&&)(geode::utils::web::WebProgress*), void (*&&)(), std::__ndk1::basic_string_view<char, std::__ndk1::char_traits<char> >) const::{lambda(geode::Task<geode::utils::web::WebResponse, geode::utils::web::WebProgress>::Event*)#1}>, void (geode::Task<geode::utils::web::WebResponse, geode::utils::web::WebProgress>::Event*)>::__clone(std::__ndk1::__function::__base<void (geode::Task<geode::utils::web::WebResponse, geode::utils::web::WebProgress>::Event*)>*) const
PUBLIC 12a54c 0 std::__ndk1::__function::__func<geode::Task<geode::utils::web::WebResponse, geode::utils::web::WebProgress>::map<BetterInfoOnline::loadScores(int, bool, BILeaderboardDelegate*, geode::Ref<ProfilePage>)::$_0, geode::utils::web::WebProgress (*)(geode::utils::web::WebProgress*), void (*)()>(BetterInfoOnline::loadScores(int, bool, BILeaderboardDelegate*, geode::Ref<ProfilePage>)::$_0&&, geode::utils::web::WebProgress (*&&)(geode::utils::web::WebProgress*), void (*&&)(), std::__ndk1::basic_string_view<char, std::__ndk1::char_traits<char> >) const::{lambda(geode::Task<geode::utils::web::WebResponse, geode::utils::web::WebProgress>::Event*)#1}, std::__ndk1::allocator<geode::Task<geode::utils::web::WebResponse, geode::utils::web::WebProgress>::map<BetterInfoOnline::loadScores(int, bool, BILeaderboardDelegate*, geode::Ref<ProfilePage>)::$_0, geode::utils::web::WebProgress (*)(geode::utils::web::WebProgress*), void (*)()>(BetterInfoOnline::loadScores(int, bool, BILeaderboardDelegate*, geode::Ref<ProfilePage>)::$_0&&, geode::utils::web::WebProgress (*&&)(geode::utils::web::WebProgress*), void (*&&)(), std::__ndk1::basic_string_view<char, std::__ndk1::char_traits<char> >) const::{lambda(geode::Task<geode::utils::web::WebResponse, geode::utils::web::WebProgress>::Event*)#1}>, void (geode::Task<geode::utils::web::WebResponse, geode::utils::web::WebProgress>::Event*)>::destroy()
PUBLIC 12a58c 0 std::__ndk1::__function::__func<geode::Task<geode::utils::web::WebResponse, geode::utils::web::WebProgress>::map<BetterInfoOnline::loadScores(int, bool, BILeaderboardDelegate*, geode::Ref<ProfilePage>)::$_0, geode::utils::web::WebProgress (*)(geode::utils::web::WebProgress*), void (*)()>(BetterInfoOnline::loadScores(int, bool, BILeaderboardDelegate*, geode::Ref<ProfilePage>)::$_0&&, geode::utils::web::WebProgress (*&&)(geode::utils::web::WebProgress*), void (*&&)(), std::__ndk1::basic_string_view<char, std::__ndk1::char_traits<char> >) const::{lambda(geode::Task<geode::utils::web::WebResponse, geode::utils::web::WebProgress>::Event*)#1}, std::__ndk1::allocator<geode::Task<geode::utils::web::WebResponse, geode::utils::web::WebProgress>::map<BetterInfoOnline::loadScores(int, bool, BILeaderboardDelegate*, geode::Ref<ProfilePage>)::$_0, geode::utils::web::WebProgress (*)(geode::utils::web::WebProgress*), void (*)()>(BetterInfoOnline::loadScores(int, bool, BILeaderboardDelegate*, geode::Ref<ProfilePage>)::$_0&&, geode::utils::web::WebProgress (*&&)(geode::utils::web::WebProgress*), void (*&&)(), std::__ndk1::basic_string_view<char, std::__ndk1::char_traits<char> >) const::{lambda(geode::Task<geode::utils::web::WebResponse, geode::utils::web::WebProgress>::Event*)#1}>, void (geode::Task<geode::utils::web::WebResponse, geode::utils::web::WebProgress>::Event*)>::destroy_deallocate()
PUBLIC 12a5c8 0 std::__ndk1::__function::__func<geode::Task<geode::utils::web::WebResponse, geode::utils::web::WebProgress>::map<BetterInfoOnline::loadScores(int, bool, BILeaderboardDelegate*, geode::Ref<ProfilePage>)::$_0, geode::utils::web::WebProgress (*)(geode::utils::web::WebProgress*), void (*)()>(BetterInfoOnline::loadScores(int, bool, BILeaderboardDelegate*, geode::Ref<ProfilePage>)::$_0&&, geode::utils::web::WebProgress (*&&)(geode::utils::web::WebProgress*), void (*&&)(), std::__ndk1::basic_string_view<char, std::__ndk1::char_traits<char> >) const::{lambda(geode::Task<geode::utils::web::WebResponse, geode::utils::web::WebProgress>::Event*)#1}, std::__ndk1::allocator<geode::Task<geode::utils::web::WebResponse, geode::utils::web::WebProgress>::map<BetterInfoOnline::loadScores(int, bool, BILeaderboardDelegate*, geode::Ref<ProfilePage>)::$_0, geode::utils::web::WebProgress (*)(geode::utils::web::WebProgress*), void (*)()>(BetterInfoOnline::loadScores(int, bool, BILeaderboardDelegate*, geode::Ref<ProfilePage>)::$_0&&, geode::utils::web::WebProgress (*&&)(geode::utils::web::WebProgress*), void (*&&)(), std::__ndk1::basic_string_view<char, std::__ndk1::char_traits<char> >) const::{lambda(geode::Task<geode::utils::web::WebResponse, geode::utils::web::WebProgress>::Event*)#1}>, void (geode::Task<geode::utils::web::WebResponse, geode::utils::web::WebProgress>::Event*)>::operator()(geode::Task<geode::utils::web::WebResponse, geode::utils::web::WebProgress>::Event*&&)
PUBLIC 12a79c 0 std::__ndk1::__function::__func<geode::Task<geode::utils::web::WebResponse, geode::utils::web::WebProgress>::map<BetterInfoOnline::loadScores(int, bool, BILeaderboardDelegate*, geode::Ref<ProfilePage>)::$_0, geode::utils::web::WebProgress (*)(geode::utils::web::WebProgress*), void (*)()>(BetterInfoOnline::loadScores(int, bool, BILeaderboardDelegate*, geode::Ref<ProfilePage>)::$_0&&, geode::utils::web::WebProgress (*&&)(geode::utils::web::WebProgress*), void (*&&)(), std::__ndk1::basic_string_view<char, std::__ndk1::char_traits<char> >) const::{lambda(geode::Task<geode::utils::web::WebResponse, geode::utils::web::WebProgress>::Event*)#1}, std::__ndk1::allocator<geode::Task<geode::utils::web::WebResponse, geode::utils::web::WebProgress>::map<BetterInfoOnline::loadScores(int, bool, BILeaderboardDelegate*, geode::Ref<ProfilePage>)::$_0, geode::utils::web::WebProgress (*)(geode::utils::web::WebProgress*), void (*)()>(BetterInfoOnline::loadScores(int, bool, BILeaderboardDelegate*, geode::Ref<ProfilePage>)::$_0&&, geode::utils::web::WebProgress (*&&)(geode::utils::web::WebProgress*), void (*&&)(), std::__ndk1::basic_string_view<char, std::__ndk1::char_traits<char> >) const::{lambda(geode::Task<geode::utils::web::WebResponse, geode::utils::web::WebProgress>::Event*)#1}>, void (geode::Task<geode::utils::web::WebResponse, geode::utils::web::WebProgress>::Event*)>::target(std::type_info const&) const
PUBLIC 12a7b8 0 std::__ndk1::__function::__func<geode::Task<geode::utils::web::WebResponse, geode::utils::web::WebProgress>::map<BetterInfoOnline::loadScores(int, bool, BILeaderboardDelegate*, geode::Ref<ProfilePage>)::$_0, geode::utils::web::WebProgress (*)(geode::utils::web::WebProgress*), void (*)()>(BetterInfoOnline::loadScores(int, bool, BILeaderboardDelegate*, geode::Ref<ProfilePage>)::$_0&&, geode::utils::web::WebProgress (*&&)(geode::utils::web::WebProgress*), void (*&&)(), std::__ndk1::basic_string_view<char, std::__ndk1::char_traits<char> >) const::{lambda(geode::Task<geode::utils::web::WebResponse, geode::utils::web::WebProgress>::Event*)#1}, std::__ndk1::allocator<geode::Task<geode::utils::web::WebResponse, geode::utils::web::WebProgress>::map<BetterInfoOnline::loadScores(int, bool, BILeaderboardDelegate*, geode::Ref<ProfilePage>)::$_0, geode::utils::web::WebProgress (*)(geode::utils::web::WebProgress*), void (*)()>(BetterInfoOnline::loadScores(int, bool, BILeaderboardDelegate*, geode::Ref<ProfilePage>)::$_0&&, geode::utils::web::WebProgress (*&&)(geode::utils::web::WebProgress*), void (*&&)(), std::__ndk1::basic_string_view<char, std::__ndk1::char_traits<char> >) const::{lambda(geode::Task<geode::utils::web::WebResponse, geode::utils::web::WebProgress>::Event*)#1}>, void (geode::Task<geode::utils::web::WebResponse, geode::utils::web::WebProgress>::Event*)>::target_type() const
PUBLIC 12a7c4 0 geode::Task<geode::utils::web::WebResponse, geode::utils::web::WebProgress>::map<BetterInfoOnline::loadScores(int, bool, BILeaderboardDelegate*, geode::Ref<ProfilePage>)::$_0, geode::utils::web::WebProgress (*)(geode::utils::web::WebProgress*), void (*)()>(BetterInfoOnline::loadScores(int, bool, BILeaderboardDelegate*, geode::Ref<ProfilePage>)::$_0&&, geode::utils::web::WebProgress (*&&)(geode::utils::web::WebProgress*), void (*&&)(), std::__ndk1::basic_string_view<char, std::__ndk1::char_traits<char> >) const::{lambda(void*)#1}::__invoke(void*)
PUBLIC 12a7d8 0 geode::Task<geode::utils::web::WebResponse, geode::utils::web::WebProgress>::map<BetterInfoOnline::loadScores(int, bool, BILeaderboardDelegate*, geode::Ref<ProfilePage>)::$_0, geode::utils::web::WebProgress (*)(geode::utils::web::WebProgress*), void (*)()>(BetterInfoOnline::loadScores(int, bool, BILeaderboardDelegate*, geode::Ref<ProfilePage>)::$_0&&, geode::utils::web::WebProgress (*&&)(geode::utils::web::WebProgress*), void (*&&)(), std::__ndk1::basic_string_view<char, std::__ndk1::char_traits<char> >) const::{lambda(void*)#2}::__invoke(void*)
PUBLIC 12a890 0 geode::Task<geode::utils::web::WebResponse, geode::utils::web::WebProgress>::map<BetterInfoOnline::loadScores(int, bool, BILeaderboardDelegate*, geode::Ref<ProfilePage>)::$_0, geode::utils::web::WebProgress (*)(geode::utils::web::WebProgress*)>(BetterInfoOnline::loadScores(int, bool, BILeaderboardDelegate*, geode::Ref<ProfilePage>)::$_0&&, geode::utils::web::WebProgress (*&&)(geode::utils::web::WebProgress*), std::__ndk1::basic_string_view<char, std::__ndk1::char_traits<char> >) const::{lambda()#1}::__invoke()
PUBLIC 12a894 0 _ZZNK5geode4TaskINS_5utils3web11WebResponseENS2_11WebProgressEE3mapIZN16BetterInfoOnline10loadScoresEibP21BILeaderboardDelegateNS_3RefI11ProfilePageEEE3$_0Qsr3stdE18copy_constructibleIT0_EEEDaOT_NSt6__ndk117basic_string_viewIcNSH_11char_traitsIcEEEEENUlPS4_E_8__invokeESM_
PUBLIC 12a8bc 0 std::__ndk1::__tree<BILeaderboardDelegate*, std::__ndk1::less<BILeaderboardDelegate*>, std::__ndk1::allocator<BILeaderboardDelegate*> >::destroy(std::__ndk1::__tree_node<BILeaderboardDelegate*, void*>*)
PUBLIC 12a8f8 0 std::__ndk1::__tree<std::__ndk1::__value_type<int, geode::Ref<cocos2d::CCArray> >, std::__ndk1::__map_value_compare<int, std::__ndk1::__value_type<int, geode::Ref<cocos2d::CCArray> >, std::__ndk1::less<int>, true>, std::__ndk1::allocator<std::__ndk1::__value_type<int, geode::Ref<cocos2d::CCArray> > > >::destroy(std::__ndk1::__tree_node<std::__ndk1::__value_type<int, geode::Ref<cocos2d::CCArray> >, void*>*)
PUBLIC m 12a948 0 BetterInfoScheduler::init()
PUBLIC m 12a950 0 BetterInfoScheduler::BetterInfoScheduler()
PUBLIC m 12a98c 0 BetterInfoScheduler::submitLevel(GJGameLevel*)
PUBLIC m 12aaa4 0 BetterInfoScheduler::onLevelSubmit(float)
PUBLIC 12ac00 0 BetterInfoScheduler::~BetterInfoScheduler()
PUBLIC 12ac38 0 BetterInfoScheduler::~BetterInfoScheduler()
PUBLIC 12ac78 0 std::__ndk1::deque<geode::Ref<GJGameLevel>, std::__ndk1::allocator<geode::Ref<GJGameLevel> > >::~deque[abi:ne190000]()
PUBLIC 12ae08 0 std::__ndk1::deque<geode::Ref<GJGameLevel>, std::__ndk1::allocator<geode::Ref<GJGameLevel> > >::__add_back_capacity()
PUBLIC m 12b4c8 0 BetterInfoStats::init()
PUBLIC m 12b8ec 0 BetterInfoStats::migrateSaveData()
PUBLIC m 12bc94 0 BetterInfoStats::importJsonData()
PUBLIC m 12bd84 0 BetterInfoStats::save()
PUBLIC m 12bdb4 0 BetterInfoStats::importJsonToDict(cocos2d::CCDictionary*, matjson::Value&)
PUBLIC 12c23c 0 geode::impl::ResultData<double, std::__ndk1::basic_string<char, std::__ndk1::char_traits<char>, std::__ndk1::allocator<char> > >::~ResultData()
PUBLIC m 12c2b0 0 BetterInfoStats::saveTemp()
PUBLIC m 12c4e4 0 BetterInfoStats::migrationPopup(float)
PUBLIC m 12c588 0 BetterInfoStats::BetterInfoStats()
PUBLIC 12c6f8 0 geode::Ref<cocos2d::CCDictionary>::~Ref()
PUBLIC m 12c718 0 BetterInfoStats::encodeDataTo(DS_Dictionary*)
PUBLIC m 12c7c0 0 BetterInfoStats::dataLoaded(DS_Dictionary*)
PUBLIC m 12c958 0 BetterInfoStats::establishListFolders()
PUBLIC m 12cabc 0 BetterInfoStats::firstLoad()
PUBLIC m 12caec 0 BetterInfoStats::getListFolder(GJLevelList*)
PUBLIC m 12cc20 0 BetterInfoStats::logCompletion(GJGameLevel*, bool)
PUBLIC m 12cc78 0 BetterInfoStats::getCompletion(GJGameLevel*, bool)
PUBLIC m 12ce14 0 BetterInfoStats::logCompletion(GJGameLevel*, bool, long)
PUBLIC m 12d130 0 BetterInfoStats::keyForLevel(GJGameLevel*)
PUBLIC m 12d1dc 0 BetterInfoStats::logPlay(GJGameLevel*)
PUBLIC m 12d594 0 BetterInfoStats::getPlay(GJGameLevel*, bool)
PUBLIC m 12d730 0 BetterInfoStats::logAttempt(GJGameLevel*, bool)
PUBLIC m 12da54 0 BetterInfoStats::getAttempts(GJGameLevel*, bool)
PUBLIC m 12dbf0 0 BetterInfoStats::keyForList(GJLevelList*)
PUBLIC m 12dc70 0 BetterInfoStats::setListFolder(GJLevelList*, int)
PUBLIC 12de0c 0 geodeExecFunction228<(anonymous namespace)::ExecFuncUnique228>(geode::ModStateEvent*)
PUBLIC 12de88 0 BetterInfoStats::~BetterInfoStats()
PUBLIC 12df48 0 BetterInfoStats::~BetterInfoStats()
PUBLIC 12df6c 0 std::__ndk1::__variant_detail::__visitation::__base::__dispatcher<(unsigned long)0>::__dispatch[abi:ne190000]<std::__ndk1::__variant_detail::__dtor<std::__ndk1::__variant_detail::__traits<double, std::__ndk1::basic_string<char, std::__ndk1::char_traits<char>, std::__ndk1::allocator<char> > >, (std::__ndk1::__variant_detail::_Trait)1>::__destroy[abi:ne190000]()::{lambda(auto:1&)#1}, std::__ndk1::__variant_detail::__base<(std::__ndk1::__variant_detail::__traits<double, std::__ndk1::basic_string<char, std::__ndk1::char_traits<char>, std::__ndk1::allocator<char> > >)1, double, std::__ndk1::allocator<char> >&>(std::__ndk1::__variant_detail::__dtor<std::__ndk1::__variant_detail::__traits<double, std::__ndk1::basic_string<char, std::__ndk1::char_traits<char>, std::__ndk1::allocator<char> > >, (std::__ndk1::__variant_detail::_Trait)1>, std::__ndk1::__variant_detail::__base<(std::__ndk1::__variant_detail::__traits<double, std::__ndk1::basic_string<char, std::__ndk1::char_traits<char>, std::__ndk1::allocator<char> > >)1, double, std::__ndk1::allocator<char> >&)
PUBLIC 12df70 0 std::__ndk1::__variant_detail::__visitation::__base::__dispatcher<(unsigned long)1>::__dispatch[abi:ne190000]<std::__ndk1::__variant_detail::__dtor<std::__ndk1::__variant_detail::__traits<double, std::__ndk1::basic_string<char, std::__ndk1::char_traits<char>, std::__ndk1::allocator<char> > >, (std::__ndk1::__variant_detail::_Trait)1>::__destroy[abi:ne190000]()::{lambda(auto:1&)#1}, std::__ndk1::__variant_detail::__base<(std::__ndk1::__variant_detail::__traits<double, std::__ndk1::basic_string<char, std::__ndk1::char_traits<char>, std::__ndk1::allocator<char> > >)1, double, std::__ndk1::allocator<char> >&>(std::__ndk1::__variant_detail::__dtor<std::__ndk1::__variant_detail::__traits<double, std::__ndk1::basic_string<char, std::__ndk1::char_traits<char>, std::__ndk1::allocator<char> > >, (std::__ndk1::__variant_detail::_Trait)1>, std::__ndk1::__variant_detail::__base<(std::__ndk1::__variant_detail::__traits<double, std::__ndk1::basic_string<char, std::__ndk1::char_traits<char>, std::__ndk1::allocator<char> > >)1, double, std::__ndk1::allocator<char> >&)
PUBLIC 12df84 0 _GLOBAL__sub_I_BetterInfoStats.cpp
PUBLIC m 12e09c 0 BetterInfoStatsV2::init()
PUBLIC m 12e0a8 0 BetterInfoStatsV2::validateLoadedData()
PUBLIC m 12e0ec 0 BetterInfoStatsV2::BetterInfoStatsV2()
PUBLIC m 12e11c 0 BetterInfoStatsV2::levelObject(GJGameLevel*)
PUBLIC m 12e388 0 BetterInfoStatsV2::logDeath(GJGameLevel*, bool, LevelDeath)
PUBLIC m 12e730 0 BetterInfoStatsV2::getCommonFail(GJGameLevel*)
PUBLIC 12e9f4 0 std::__ndk1::unordered_map<int, int, std::__ndk1::hash<int>, std::__ndk1::equal_to<int>, std::__ndk1::allocator<std::__ndk1::pair<int const, int> > >::~unordered_map[abi:ne190000]()
PUBLIC 12ea40 0 _ZNSt6__ndk14pairINS_12basic_stringIcNS_11char_traitsIcEENS_9allocatorIcEEEEN7matjson5ValueEEC2B8ne190000IRA2_KcRKfTnNS_9enable_ifIXclsr10_CheckArgsE23__is_pair_constructibleIT_T0_EEEiE4typeELi0EEEOSH_OSI_
PUBLIC m 12eb1c 0 CopyableLabel::init(char const*, char const*, std::__ndk1::basic_string<char, std::__ndk1::char_traits<char>, std::__ndk1::allocator<char> > const&, char const*)
PUBLIC m 12ed14 0 CopyableLabel::create(char const*, char const*, std::__ndk1::basic_string<char, std::__ndk1::char_traits<char>, std::__ndk1::allocator<char> > const&, char const*)
PUBLIC m 12ee14 0 CopyableLabel::activate()
PUBLIC 12ee4c 0 CopyableLabel::~CopyableLabel()
PUBLIC 12ee98 0 CopyableLabel::~CopyableLabel()
PUBLIC 12eee8 0 cocos2d::CCNodeRGBA::setOpacityModifyRGB(bool)
PUBLIC 12eeec 0 cocos2d::CCNodeRGBA::isOpacityModifyRGB()
PUBLIC 12eef4 0 {virtual override thunk({offset(-320)}, cocos2d::CCNodeRGBA::setOpacityModifyRGB(bool))}
PUBLIC 12eef8 0 {virtual override thunk({offset(-320)}, cocos2d::CCNodeRGBA::isOpacityModifyRGB())}
PUBLIC m 12ef00 0 DoubleArrow::init(bool, char const*)
PUBLIC m 12efbc 0 DoubleArrow::changeTexture(char const*)
PUBLIC m 12f194 0 DoubleArrow::defaultTextureName(bool)
PUBLIC m 12f1b0 0 DoubleArrow::create(bool, char const*)
PUBLIC m 12f2fc 0 DoubleArrow::create(bool, bool)
PUBLIC m 12f318 0 DoubleArrow::usePopupTexture(bool)
PUBLIC 12f334 0 DoubleArrow::~DoubleArrow()
PUBLIC m 12f358 0 FolderButton::init(char const*, std::__ndk1::function<void (int)> const&)
PUBLIC m 12f4f4 0 FolderButton::create(char const*, std::__ndk1::function<void (int)> const&)
PUBLIC m 12f5f0 0 FolderButton::create(std::__ndk1::function<void (int)> const&)
PUBLIC m 12f6e0 0 FolderButton::setDisplayFolder(int)
PUBLIC m 12f7ac 0 FolderButton::setIsCreated(bool)
PUBLIC m 12f7b4 0 FolderButton::setPopupLabel(std::__ndk1::basic_string_view<char, std::__ndk1::char_traits<char> >)
PUBLIC m 12f7bc 0 FolderButton::activate()
PUBLIC m 12f888 0 FolderButton::setIDPopupClosed(SetIDPopup*, int)
PUBLIC m 12f970 0 {virtual override thunk({offset(-472)}, FolderButton::setIDPopupClosed(SetIDPopup*, int))}
PUBLIC 12fa58 0 FolderButton::~FolderButton()
PUBLIC 12fad8 0 FolderButton::~FolderButton()
PUBLIC m 12fb60 0 BetterInfo::createWithBISpriteFrameName(char const*)
PUBLIC m 12fbd0 0 BetterInfo::createBISprite(char const*)
PUBLIC m 12fc40 0 BetterInfo::createPlaceholder()
PUBLIC m 12ff58 0 BetterInfo::createTextButton(cocos2d::CCLayer*, char const*, void (cocos2d::CCObject::*)(cocos2d::CCObject*), int, float, float)
PUBLIC m 12ffd0 0 BetterInfo::createSearchButton(cocos2d::CCLayer*, char const*, char const*, void (cocos2d::CCObject::*)(cocos2d::CCObject*), float, float)
PUBLIC m 130134 0 BetterInfo::randomNumber(int, int)
PUBLIC m 130278 0 BetterInfo::strToLower(std::__ndk1::basic_string<char, std::__ndk1::char_traits<char>, std::__ndk1::allocator<char> >&)
PUBLIC m 130428 0 BetterInfo::rankIcon(int)
PUBLIC m 1304c0 0 BetterInfo::levelsPerPage(GJSearchObject*)
PUBLIC m 13050c 0 BetterInfo::isLocal(GJSearchObject*)
PUBLIC m 130520 0 BetterInfo::isFalseTotal(GJSearchObject*)
PUBLIC m 130540 0 BetterInfo::isStarUseless(GJSearchObject*)
PUBLIC m 130578 0 BetterInfo::isAdvancedEnabled(GJSearchObject*)
PUBLIC m 130594 0 BetterInfo::isSavedFiltered()
PUBLIC m 130bec 0 BetterInfo::decodeBase64Gzip(std::__ndk1::basic_string<char, std::__ndk1::char_traits<char>, std::__ndk1::allocator<char> > const&)
PUBLIC m 130ca0 0 BetterInfo::fileSize(unsigned long)
PUBLIC m 130ec4 0 BetterInfo::fixColorCrashes(std::__ndk1::basic_string<char, std::__ndk1::char_traits<char>, std::__ndk1::allocator<char> >)
PUBLIC m 131064 0 BetterInfo::fixNullByteCrash(std::__ndk1::basic_string<char, std::__ndk1::char_traits<char>, std::__ndk1::allocator<char> >)
PUBLIC m 131330 0 BetterInfo::copyToClipboard(char const*)
PUBLIC m 131454 0 BetterInfo::copyToClipboard(char const*, cocos2d::CCNode*)
PUBLIC m 131510 0 BetterInfo::getSongUrl(int)
PUBLIC m 13160c 0 BetterInfo::isNewGrounds(int)
PUBLIC m 131728 0 BetterInfo::responseToDict(std::__ndk1::basic_string<char, std::__ndk1::char_traits<char>, std::__ndk1::allocator<char> > const&)
PUBLIC m 1319c0 0 BetterInfo::validateRangeItem(BISearchObject::RangeItem const&, int)
PUBLIC m 1319fc 0 BetterInfo::levelMatchesObject(GJGameLevel*, BISearchObject const&)
PUBLIC m 132368 0 BetterInfo::levelProgressMatchesObject(GJGameLevel*, BISearchObject const&)
PUBLIC m 132658 0 BetterInfo::completedLevelsInStarRange(int, int, bool, cocos2d::CCDictionary*)
PUBLIC m 1328ac 0 BetterInfo::reloadUsernames(LevelBrowserLayer*)
PUBLIC m 133304 0 BetterInfo::timeInMs()
PUBLIC m 133334 0 BetterInfo::timeForLevelString(std::__ndk1::basic_string<char, std::__ndk1::char_traits<char>, std::__ndk1::allocator<char> > const&)
PUBLIC m 133dc4 0 BetterInfo::stoi(std::__ndk1::basic_string_view<char, std::__ndk1::char_traits<char> >)
PUBLIC m 133e18 0 BetterInfo::stof(std::__ndk1::basic_string_view<char, std::__ndk1::char_traits<char> >)
PUBLIC 133f84 0 geode::log::error<char const*>(fmt::v11::basic_format_string<char, fmt::v11::type_identity<std::__ndk1::conditional<IsWrappedCocos<char const*>, decltype ((wrapCocosObj<char const*>)((std::declval<char const*>)())), char const*>::type>::type>, char const*&&)
PUBLIC m 134000 0 BetterInfo::maxObjectIDForDecompressedLevelString(std::__ndk1::basic_string<char, std::__ndk1::char_traits<char>, std::__ndk1::allocator<char> > const&)
PUBLIC m 134640 0 BetterInfo::gameVerForDecompressedLevelString(std::__ndk1::basic_string<char, std::__ndk1::char_traits<char>, std::__ndk1::allocator<char> > const&)
PUBLIC m 134e3c 0 BetterInfo::gameVerObjectForLevelStringHeader(std::__ndk1::basic_string<char, std::__ndk1::char_traits<char>, std::__ndk1::allocator<char> > const&)
PUBLIC m 1371c8 0 BetterInfo::controllerConnected()
PUBLIC m 1371cc 0 BetterInfo::getWineVersion()
PUBLIC m 1371d4 0 BetterInfo::getOSVersion()
PUBLIC m 1371f8 0 BetterInfo::loadImportantNotices(geode::Ref<cocos2d::CCLayer>)
PUBLIC 137a3c 0 BetterInfo::loadImportantNotices(geode::Ref<cocos2d::CCLayer>)::$_0::~$_0()
PUBLIC m 137a58 0 BetterInfo::createUpdateDialog()
PUBLIC 138204 0 geode::Mod::getSavedValue<std::__ndk1::basic_string<char, std::__ndk1::char_traits<char>, std::__ndk1::allocator<char> > >(std::__ndk1::basic_string_view<char, std::__ndk1::char_traits<char> >, std::__ndk1::basic_string<char, std::__ndk1::char_traits<char>, std::__ndk1::allocator<char> > const&)
PUBLIC 1384ac 0 geode::impl::ResultData<geode::ComparableVersionInfo, std::__ndk1::basic_string<char, std::__ndk1::char_traits<char>, std::__ndk1::allocator<char> > >::~ResultData()
PUBLIC m 138520 0 BetterInfo::fixOversizedPopup(FLAlertLayer*)
PUBLIC 1387b0 0 geode::impl::ResultData<geode::VersionInfo, std::__ndk1::basic_string<char, std::__ndk1::char_traits<char>, std::__ndk1::allocator<char> > >::~ResultData()
PUBLIC m 138824 0 BetterInfo::isHoveringNode(cocos2d::CCNode*)
PUBLIC m 138938 0 BetterInfo::isSprite(cocos2d::CCSprite*, char const*)
PUBLIC m 138a00 0 BetterInfo::replaceWithButton(cocos2d::CCNode*, cocos2d::CCNode*, void (cocos2d::CCObject::*)(cocos2d::CCObject*))
PUBLIC m 138bb8 0 BetterInfo::copyLayoutOptions(cocos2d::CCNode*)
PUBLIC m 138bf8 0 BetterInfo::getNodeName(cocos2d::CCObject*, bool)
PUBLIC m 138d28 0 BetterInfo::iconTypeToUnlockType(IconType)
PUBLIC m 138d48 0 BetterInfo::isLevelSearchObject(GJSearchObject*)
PUBLIC m 138d68 0 BetterInfo::copyLayoutOptions(geode::AxisLayoutOptions*)
PUBLIC m 138e68 0 BetterInfo::strtol(std::__ndk1::basic_string_view<char, std::__ndk1::char_traits<char> >)
PUBLIC m 138ebc 0 BetterInfo::numberComma(int)
PUBLIC 138f70 0 std::__ndk1::vector<geode::Ref<geode::Notification>, std::__ndk1::allocator<geode::Ref<geode::Notification> > >::~vector[abi:ne190000]()
PUBLIC m 138ff4 0 BetterInfo::showUnimportantNotification(std::__ndk1::basic_string<char, std::__ndk1::char_traits<char>, std::__ndk1::allocator<char> > const&, geode::NotificationIcon, float)
PUBLIC 1391a8 0 geode::Ref<geode::Notification>::~Ref()
PUBLIC m 1391c8 0 BetterInfo::cancelUnimportantNotifications()
PUBLIC 139254 0 std::__ndk1::vector<GJGameLevel*, std::__ndk1::allocator<GJGameLevel*> >::__throw_length_error[abi:ne190000]() const
PUBLIC 139268 0 BetterInfo::loadImportantNotices(geode::Ref<cocos2d::CCLayer>)::$_0::operator()(geode::utils::web::WebResponse*) const
PUBLIC 139994 0 geode::Task<geode::utils::web::WebResponse, geode::utils::web::WebProgress>::map<BetterInfo::loadImportantNotices(geode::Ref<cocos2d::CCLayer>)::$_0, geode::utils::web::WebProgress (*)(geode::utils::web::WebProgress*), void (*)()>(BetterInfo::loadImportantNotices(geode::Ref<cocos2d::CCLayer>)::$_0&&, geode::utils::web::WebProgress (*&&)(geode::utils::web::WebProgress*), void (*&&)(), std::__ndk1::basic_string_view<char, std::__ndk1::char_traits<char> >) const::{lambda(geode::Task<geode::utils::web::WebResponse, geode::utils::web::WebProgress>::Event*)#1}::~{lambda(geode::Task<geode::utils::web::WebResponse, geode::utils::web::WebProgress>::Event*)#1}()
PUBLIC 1399d4 0 std::__ndk1::__function::__func<geode::Task<geode::utils::web::WebResponse, geode::utils::web::WebProgress>::map<BetterInfo::loadImportantNotices(geode::Ref<cocos2d::CCLayer>)::$_0, geode::utils::web::WebProgress (*)(geode::utils::web::WebProgress*), void (*)()>(BetterInfo::loadImportantNotices(geode::Ref<cocos2d::CCLayer>)::$_0&&, geode::utils::web::WebProgress (*&&)(geode::utils::web::WebProgress*), void (*&&)(), std::__ndk1::basic_string_view<char, std::__ndk1::char_traits<char> >) const::{lambda(geode::Task<geode::utils::web::WebResponse, geode::utils::web::WebProgress>::Event*)#1}, std::__ndk1::allocator<geode::Task<geode::utils::web::WebResponse, geode::utils::web::WebProgress>::map<BetterInfo::loadImportantNotices(geode::Ref<cocos2d::CCLayer>)::$_0, geode::utils::web::WebProgress (*)(geode::utils::web::WebProgress*), void (*)()>(BetterInfo::loadImportantNotices(geode::Ref<cocos2d::CCLayer>)::$_0&&, geode::utils::web::WebProgress (*&&)(geode::utils::web::WebProgress*), void (*&&)(), std::__ndk1::basic_string_view<char, std::__ndk1::char_traits<char> >) const::{lambda(geode::Task<geode::utils::web::WebResponse, geode::utils::web::WebProgress>::Event*)#1}>, void (geode::Task<geode::utils::web::WebResponse, geode::utils::web::WebProgress>::Event*)>::~__func()
PUBLIC 139a20 0 std::__ndk1::__function::__func<geode::Task<geode::utils::web::WebResponse, geode::utils::web::WebProgress>::map<BetterInfo::loadImportantNotices(geode::Ref<cocos2d::CCLayer>)::$_0, geode::utils::web::WebProgress (*)(geode::utils::web::WebProgress*), void (*)()>(BetterInfo::loadImportantNotices(geode::Ref<cocos2d::CCLayer>)::$_0&&, geode::utils::web::WebProgress (*&&)(geode::utils::web::WebProgress*), void (*&&)(), std::__ndk1::basic_string_view<char, std::__ndk1::char_traits<char> >) const::{lambda(geode::Task<geode::utils::web::WebResponse, geode::utils::web::WebProgress>::Event*)#1}, std::__ndk1::allocator<geode::Task<geode::utils::web::WebResponse, geode::utils::web::WebProgress>::map<BetterInfo::loadImportantNotices(geode::Ref<cocos2d::CCLayer>)::$_0, geode::utils::web::WebProgress (*)(geode::utils::web::WebProgress*), void (*)()>(BetterInfo::loadImportantNotices(geode::Ref<cocos2d::CCLayer>)::$_0&&, geode::utils::web::WebProgress (*&&)(geode::utils::web::WebProgress*), void (*&&)(), std::__ndk1::basic_string_view<char, std::__ndk1::char_traits<char> >) const::{lambda(geode::Task<geode::utils::web::WebResponse, geode::utils::web::WebProgress>::Event*)#1}>, void (geode::Task<geode::utils::web::WebResponse, geode::utils::web::WebProgress>::Event*)>::~__func()
PUBLIC 139a68 0 std::__ndk1::__function::__func<geode::Task<geode::utils::web::WebResponse, geode::utils::web::WebProgress>::map<BetterInfo::loadImportantNotices(geode::Ref<cocos2d::CCLayer>)::$_0, geode::utils::web::WebProgress (*)(geode::utils::web::WebProgress*), void (*)()>(BetterInfo::loadImportantNotices(geode::Ref<cocos2d::CCLayer>)::$_0&&, geode::utils::web::WebProgress (*&&)(geode::utils::web::WebProgress*), void (*&&)(), std::__ndk1::basic_string_view<char, std::__ndk1::char_traits<char> >) const::{lambda(geode::Task<geode::utils::web::WebResponse, geode::utils::web::WebProgress>::Event*)#1}, std::__ndk1::allocator<geode::Task<geode::utils::web::WebResponse, geode::utils::web::WebProgress>::map<BetterInfo::loadImportantNotices(geode::Ref<cocos2d::CCLayer>)::$_0, geode::utils::web::WebProgress (*)(geode::utils::web::WebProgress*), void (*)()>(BetterInfo::loadImportantNotices(geode::Ref<cocos2d::CCLayer>)::$_0&&, geode::utils::web::WebProgress (*&&)(geode::utils::web::WebProgress*), void (*&&)(), std::__ndk1::basic_string_view<char, std::__ndk1::char_traits<char> >) const::{lambda(geode::Task<geode::utils::web::WebResponse, geode::utils::web::WebProgress>::Event*)#1}>, void (geode::Task<geode::utils::web::WebResponse, geode::utils::web::WebProgress>::Event*)>::__clone() const
PUBLIC 139af8 0 std::__ndk1::__function::__func<geode::Task<geode::utils::web::WebResponse, geode::utils::web::WebProgress>::map<BetterInfo::loadImportantNotices(geode::Ref<cocos2d::CCLayer>)::$_0, geode::utils::web::WebProgress (*)(geode::utils::web::WebProgress*), void (*)()>(BetterInfo::loadImportantNotices(geode::Ref<cocos2d::CCLayer>)::$_0&&, geode::utils::web::WebProgress (*&&)(geode::utils::web::WebProgress*), void (*&&)(), std::__ndk1::basic_string_view<char, std::__ndk1::char_traits<char> >) const::{lambda(geode::Task<geode::utils::web::WebResponse, geode::utils::web::WebProgress>::Event*)#1}, std::__ndk1::allocator<geode::Task<geode::utils::web::WebResponse, geode::utils::web::WebProgress>::map<BetterInfo::loadImportantNotices(geode::Ref<cocos2d::CCLayer>)::$_0, geode::utils::web::WebProgress (*)(geode::utils::web::WebProgress*), void (*)()>(BetterInfo::loadImportantNotices(geode::Ref<cocos2d::CCLayer>)::$_0&&, geode::utils::web::WebProgress (*&&)(geode::utils::web::WebProgress*), void (*&&)(), std::__ndk1::basic_string_view<char, std::__ndk1::char_traits<char> >) const::{lambda(geode::Task<geode::utils::web::WebResponse, geode::utils::web::WebProgress>::Event*)#1}>, void (geode::Task<geode::utils::web::WebResponse, geode::utils::web::WebProgress>::Event*)>::__clone(std::__ndk1::__function::__base<void (geode::Task<geode::utils::web::WebResponse, geode::utils::web::WebProgress>::Event*)>*) const
PUBLIC 139b70 0 std::__ndk1::__function::__func<geode::Task<geode::utils::web::WebResponse, geode::utils::web::WebProgress>::map<BetterInfo::loadImportantNotices(geode::Ref<cocos2d::CCLayer>)::$_0, geode::utils::web::WebProgress (*)(geode::utils::web::WebProgress*), void (*)()>(BetterInfo::loadImportantNotices(geode::Ref<cocos2d::CCLayer>)::$_0&&, geode::utils::web::WebProgress (*&&)(geode::utils::web::WebProgress*), void (*&&)(), std::__ndk1::basic_string_view<char, std::__ndk1::char_traits<char> >) const::{lambda(geode::Task<geode::utils::web::WebResponse, geode::utils::web::WebProgress>::Event*)#1}, std::__ndk1::allocator<geode::Task<geode::utils::web::WebResponse, geode::utils::web::WebProgress>::map<BetterInfo::loadImportantNotices(geode::Ref<cocos2d::CCLayer>)::$_0, geode::utils::web::WebProgress (*)(geode::utils::web::WebProgress*), void (*)()>(BetterInfo::loadImportantNotices(geode::Ref<cocos2d::CCLayer>)::$_0&&, geode::utils::web::WebProgress (*&&)(geode::utils::web::WebProgress*), void (*&&)(), std::__ndk1::basic_string_view<char, std::__ndk1::char_traits<char> >) const::{lambda(geode::Task<geode::utils::web::WebResponse, geode::utils::web::WebProgress>::Event*)#1}>, void (geode::Task<geode::utils::web::WebResponse, geode::utils::web::WebProgress>::Event*)>::destroy()
PUBLIC 139bb0 0 std::__ndk1::__function::__func<geode::Task<geode::utils::web::WebResponse, geode::utils::web::WebProgress>::map<BetterInfo::loadImportantNotices(geode::Ref<cocos2d::CCLayer>)::$_0, geode::utils::web::WebProgress (*)(geode::utils::web::WebProgress*), void (*)()>(BetterInfo::loadImportantNotices(geode::Ref<cocos2d::CCLayer>)::$_0&&, geode::utils::web::WebProgress (*&&)(geode::utils::web::WebProgress*), void (*&&)(), std::__ndk1::basic_string_view<char, std::__ndk1::char_traits<char> >) const::{lambda(geode::Task<geode::utils::web::WebResponse, geode::utils::web::WebProgress>::Event*)#1}, std::__ndk1::allocator<geode::Task<geode::utils::web::WebResponse, geode::utils::web::WebProgress>::map<BetterInfo::loadImportantNotices(geode::Ref<cocos2d::CCLayer>)::$_0, geode::utils::web::WebProgress (*)(geode::utils::web::WebProgress*), void (*)()>(BetterInfo::loadImportantNotices(geode::Ref<cocos2d::CCLayer>)::$_0&&, geode::utils::web::WebProgress (*&&)(geode::utils::web::WebProgress*), void (*&&)(), std::__ndk1::basic_string_view<char, std::__ndk1::char_traits<char> >) const::{lambda(geode::Task<geode::utils::web::WebResponse, geode::utils::web::WebProgress>::Event*)#1}>, void (geode::Task<geode::utils::web::WebResponse, geode::utils::web::WebProgress>::Event*)>::destroy_deallocate()
PUBLIC 139bec 0 std::__ndk1::__function::__func<geode::Task<geode::utils::web::WebResponse, geode::utils::web::WebProgress>::map<BetterInfo::loadImportantNotices(geode::Ref<cocos2d::CCLayer>)::$_0, geode::utils::web::WebProgress (*)(geode::utils::web::WebProgress*), void (*)()>(BetterInfo::loadImportantNotices(geode::Ref<cocos2d::CCLayer>)::$_0&&, geode::utils::web::WebProgress (*&&)(geode::utils::web::WebProgress*), void (*&&)(), std::__ndk1::basic_string_view<char, std::__ndk1::char_traits<char> >) const::{lambda(geode::Task<geode::utils::web::WebResponse, geode::utils::web::WebProgress>::Event*)#1}, std::__ndk1::allocator<geode::Task<geode::utils::web::WebResponse, geode::utils::web::WebProgress>::map<BetterInfo::loadImportantNotices(geode::Ref<cocos2d::CCLayer>)::$_0, geode::utils::web::WebProgress (*)(geode::utils::web::WebProgress*), void (*)()>(BetterInfo::loadImportantNotices(geode::Ref<cocos2d::CCLayer>)::$_0&&, geode::utils::web::WebProgress (*&&)(geode::utils::web::WebProgress*), void (*&&)(), std::__ndk1::basic_string_view<char, std::__ndk1::char_traits<char> >) const::{lambda(geode::Task<geode::utils::web::WebResponse, geode::utils::web::WebProgress>::Event*)#1}>, void (geode::Task<geode::utils::web::WebResponse, geode::utils::web::WebProgress>::Event*)>::operator()(geode::Task<geode::utils::web::WebResponse, geode::utils::web::WebProgress>::Event*&&)
PUBLIC 139dc0 0 std::__ndk1::__function::__func<geode::Task<geode::utils::web::WebResponse, geode::utils::web::WebProgress>::map<BetterInfo::loadImportantNotices(geode::Ref<cocos2d::CCLayer>)::$_0, geode::utils::web::WebProgress (*)(geode::utils::web::WebProgress*), void (*)()>(BetterInfo::loadImportantNotices(geode::Ref<cocos2d::CCLayer>)::$_0&&, geode::utils::web::WebProgress (*&&)(geode::utils::web::WebProgress*), void (*&&)(), std::__ndk1::basic_string_view<char, std::__ndk1::char_traits<char> >) const::{lambda(geode::Task<geode::utils::web::WebResponse, geode::utils::web::WebProgress>::Event*)#1}, std::__ndk1::allocator<geode::Task<geode::utils::web::WebResponse, geode::utils::web::WebProgress>::map<BetterInfo::loadImportantNotices(geode::Ref<cocos2d::CCLayer>)::$_0, geode::utils::web::WebProgress (*)(geode::utils::web::WebProgress*), void (*)()>(BetterInfo::loadImportantNotices(geode::Ref<cocos2d::CCLayer>)::$_0&&, geode::utils::web::WebProgress (*&&)(geode::utils::web::WebProgress*), void (*&&)(), std::__ndk1::basic_string_view<char, std::__ndk1::char_traits<char> >) const::{lambda(geode::Task<geode::utils::web::WebResponse, geode::utils::web::WebProgress>::Event*)#1}>, void (geode::Task<geode::utils::web::WebResponse, geode::utils::web::WebProgress>::Event*)>::target(std::type_info const&) const
PUBLIC 139ddc 0 std::__ndk1::__function::__func<geode::Task<geode::utils::web::WebResponse, geode::utils::web::WebProgress>::map<BetterInfo::loadImportantNotices(geode::Ref<cocos2d::CCLayer>)::$_0, geode::utils::web::WebProgress (*)(geode::utils::web::WebProgress*), void (*)()>(BetterInfo::loadImportantNotices(geode::Ref<cocos2d::CCLayer>)::$_0&&, geode::utils::web::WebProgress (*&&)(geode::utils::web::WebProgress*), void (*&&)(), std::__ndk1::basic_string_view<char, std::__ndk1::char_traits<char> >) const::{lambda(geode::Task<geode::utils::web::WebResponse, geode::utils::web::WebProgress>::Event*)#1}, std::__ndk1::allocator<geode::Task<geode::utils::web::WebResponse, geode::utils::web::WebProgress>::map<BetterInfo::loadImportantNotices(geode::Ref<cocos2d::CCLayer>)::$_0, geode::utils::web::WebProgress (*)(geode::utils::web::WebProgress*), void (*)()>(BetterInfo::loadImportantNotices(geode::Ref<cocos2d::CCLayer>)::$_0&&, geode::utils::web::WebProgress (*&&)(geode::utils::web::WebProgress*), void (*&&)(), std::__ndk1::basic_string_view<char, std::__ndk1::char_traits<char> >) const::{lambda(geode::Task<geode::utils::web::WebResponse, geode::utils::web::WebProgress>::Event*)#1}>, void (geode::Task<geode::utils::web::WebResponse, geode::utils::web::WebProgress>::Event*)>::target_type() const
PUBLIC 139de8 0 geode::Task<geode::utils::web::WebResponse, geode::utils::web::WebProgress>::map<BetterInfo::loadImportantNotices(geode::Ref<cocos2d::CCLayer>)::$_0, geode::utils::web::WebProgress (*)(geode::utils::web::WebProgress*), void (*)()>(BetterInfo::loadImportantNotices(geode::Ref<cocos2d::CCLayer>)::$_0&&, geode::utils::web::WebProgress (*&&)(geode::utils::web::WebProgress*), void (*&&)(), std::__ndk1::basic_string_view<char, std::__ndk1::char_traits<char> >) const::{lambda(void*)#1}::__invoke(void*)
PUBLIC 139dfc 0 geode::Task<geode::utils::web::WebResponse, geode::utils::web::WebProgress>::map<BetterInfo::loadImportantNotices(geode::Ref<cocos2d::CCLayer>)::$_0, geode::utils::web::WebProgress (*)(geode::utils::web::WebProgress*), void (*)()>(BetterInfo::loadImportantNotices(geode::Ref<cocos2d::CCLayer>)::$_0&&, geode::utils::web::WebProgress (*&&)(geode::utils::web::WebProgress*), void (*&&)(), std::__ndk1::basic_string_view<char, std::__ndk1::char_traits<char> >) const::{lambda(void*)#2}::__invoke(void*)
PUBLIC 139eb4 0 geode::Task<geode::utils::web::WebResponse, geode::utils::web::WebProgress>::map<BetterInfo::loadImportantNotices(geode::Ref<cocos2d::CCLayer>)::$_0, geode::utils::web::WebProgress (*)(geode::utils::web::WebProgress*)>(BetterInfo::loadImportantNotices(geode::Ref<cocos2d::CCLayer>)::$_0&&, geode::utils::web::WebProgress (*&&)(geode::utils::web::WebProgress*), std::__ndk1::basic_string_view<char, std::__ndk1::char_traits<char> >) const::{lambda()#1}::__invoke()
PUBLIC 139eb8 0 _ZZNK5geode4TaskINS_5utils3web11WebResponseENS2_11WebProgressEE3mapIZN10BetterInfo20loadImportantNoticesENS_3RefIN7cocos2d7CCLayerEEEE3$_0Qsr3stdE18copy_constructibleIT0_EEEDaOT_NSt6__ndk117basic_string_viewIcNSG_11char_traitsIcEEEEENUlPS4_E_8__invokeESL_
PUBLIC 139ee0 0 std::__ndk1::__variant_detail::__visitation::__base::__dispatcher<(unsigned long)0>::__dispatch[abi:ne190000]<std::__ndk1::__variant_detail::__dtor<std::__ndk1::__variant_detail::__traits<geode::ComparableVersionInfo, std::__ndk1::basic_string<char, std::__ndk1::char_traits<char>, std::__ndk1::allocator<char> > >, (std::__ndk1::__variant_detail::_Trait)1>::__destroy[abi:ne190000]()::{lambda(auto:1&)#1}, std::__ndk1::__variant_detail::__base<(std::__ndk1::__variant_detail::__traits<geode::ComparableVersionInfo, std::__ndk1::basic_string<char, std::__ndk1::char_traits<char>, std::__ndk1::allocator<char> > >)1, geode, std::__ndk1::allocator<char> >&>(std::__ndk1::__variant_detail::__dtor<std::__ndk1::__variant_detail::__traits<geode::ComparableVersionInfo, std::__ndk1::basic_string<char, std::__ndk1::char_traits<char>, std::__ndk1::allocator<char> > >, (std::__ndk1::__variant_detail::_Trait)1>, std::__ndk1::__variant_detail::__base<(std::__ndk1::__variant_detail::__traits<geode::ComparableVersionInfo, std::__ndk1::basic_string<char, std::__ndk1::char_traits<char>, std::__ndk1::allocator<char> > >)1, geode, std::__ndk1::allocator<char> >&)
PUBLIC 139ee4 0 std::__ndk1::__variant_detail::__visitation::__base::__dispatcher<(unsigned long)1>::__dispatch[abi:ne190000]<std::__ndk1::__variant_detail::__dtor<std::__ndk1::__variant_detail::__traits<geode::ComparableVersionInfo, std::__ndk1::basic_string<char, std::__ndk1::char_traits<char>, std::__ndk1::allocator<char> > >, (std::__ndk1::__variant_detail::_Trait)1>::__destroy[abi:ne190000]()::{lambda(auto:1&)#1}, std::__ndk1::__variant_detail::__base<(std::__ndk1::__variant_detail::__traits<geode::ComparableVersionInfo, std::__ndk1::basic_string<char, std::__ndk1::char_traits<char>, std::__ndk1::allocator<char> > >)1, geode, std::__ndk1::allocator<char> >&>(std::__ndk1::__variant_detail::__dtor<std::__ndk1::__variant_detail::__traits<geode::ComparableVersionInfo, std::__ndk1::basic_string<char, std::__ndk1::char_traits<char>, std::__ndk1::allocator<char> > >, (std::__ndk1::__variant_detail::_Trait)1>, std::__ndk1::__variant_detail::__base<(std::__ndk1::__variant_detail::__traits<geode::ComparableVersionInfo, std::__ndk1::basic_string<char, std::__ndk1::char_traits<char>, std::__ndk1::allocator<char> > >)1, geode, std::__ndk1::allocator<char> >&)
PUBLIC 139ef8 0 std::__ndk1::__variant_detail::__visitation::__base::__dispatcher<(unsigned long)0>::__dispatch[abi:ne190000]<std::__ndk1::__variant_detail::__dtor<std::__ndk1::__variant_detail::__traits<geode::VersionInfo, std::__ndk1::basic_string<char, std::__ndk1::char_traits<char>, std::__ndk1::allocator<char> > >, (std::__ndk1::__variant_detail::_Trait)1>::__destroy[abi:ne190000]()::{lambda(auto:1&)#1}, std::__ndk1::__variant_detail::__base<(std::__ndk1::__variant_detail::__traits<geode::VersionInfo, std::__ndk1::basic_string<char, std::__ndk1::char_traits<char>, std::__ndk1::allocator<char> > >)1, geode, std::__ndk1::allocator<char> >&>(std::__ndk1::__variant_detail::__dtor<std::__ndk1::__variant_detail::__traits<geode::VersionInfo, std::__ndk1::basic_string<char, std::__ndk1::char_traits<char>, std::__ndk1::allocator<char> > >, (std::__ndk1::__variant_detail::_Trait)1>, std::__ndk1::__variant_detail::__base<(std::__ndk1::__variant_detail::__traits<geode::VersionInfo, std::__ndk1::basic_string<char, std::__ndk1::char_traits<char>, std::__ndk1::allocator<char> > >)1, geode, std::__ndk1::allocator<char> >&)
PUBLIC 139efc 0 std::__ndk1::__variant_detail::__visitation::__base::__dispatcher<(unsigned long)1>::__dispatch[abi:ne190000]<std::__ndk1::__variant_detail::__dtor<std::__ndk1::__variant_detail::__traits<geode::VersionInfo, std::__ndk1::basic_string<char, std::__ndk1::char_traits<char>, std::__ndk1::allocator<char> > >, (std::__ndk1::__variant_detail::_Trait)1>::__destroy[abi:ne190000]()::{lambda(auto:1&)#1}, std::__ndk1::__variant_detail::__base<(std::__ndk1::__variant_detail::__traits<geode::VersionInfo, std::__ndk1::basic_string<char, std::__ndk1::char_traits<char>, std::__ndk1::allocator<char> > >)1, geode, std::__ndk1::allocator<char> >&>(std::__ndk1::__variant_detail::__dtor<std::__ndk1::__variant_detail::__traits<geode::VersionInfo, std::__ndk1::basic_string<char, std::__ndk1::char_traits<char>, std::__ndk1::allocator<char> > >, (std::__ndk1::__variant_detail::_Trait)1>, std::__ndk1::__variant_detail::__base<(std::__ndk1::__variant_detail::__traits<geode::VersionInfo, std::__ndk1::basic_string<char, std::__ndk1::char_traits<char>, std::__ndk1::allocator<char> > >)1, geode, std::__ndk1::allocator<char> >&)
PUBLIC 139f10 0 _ZNSt6__ndk117__from_chars_atoiB8ne190000IiTnNS_9enable_ifIXsr9is_signedIT_EE5valueEiE4typeELi0EEENS_17from_chars_resultEPKcS7_RS2_
PUBLIC 13a1e0 0 std::__ndk1::__variant_detail::__visitation::__base::__dispatcher<(unsigned long)0>::__dispatch[abi:ne190000]<std::__ndk1::__variant_detail::__dtor<std::__ndk1::__variant_detail::__traits<float, std::__ndk1::basic_string<char, std::__ndk1::char_traits<char>, std::__ndk1::allocator<char> > >, (std::__ndk1::__variant_detail::_Trait)1>::__destroy[abi:ne190000]()::{lambda(auto:1&)#1}, std::__ndk1::__variant_detail::__base<(std::__ndk1::__variant_detail::__traits<float, std::__ndk1::basic_string<char, std::__ndk1::char_traits<char>, std::__ndk1::allocator<char> > >)1, float, std::__ndk1::allocator<char> >&>(std::__ndk1::__variant_detail::__dtor<std::__ndk1::__variant_detail::__traits<float, std::__ndk1::basic_string<char, std::__ndk1::char_traits<char>, std::__ndk1::allocator<char> > >, (std::__ndk1::__variant_detail::_Trait)1>, std::__ndk1::__variant_detail::__base<(std::__ndk1::__variant_detail::__traits<float, std::__ndk1::basic_string<char, std::__ndk1::char_traits<char>, std::__ndk1::allocator<char> > >)1, float, std::__ndk1::allocator<char> >&)
PUBLIC 13a1e4 0 std::__ndk1::__variant_detail::__visitation::__base::__dispatcher<(unsigned long)1>::__dispatch[abi:ne190000]<std::__ndk1::__variant_detail::__dtor<std::__ndk1::__variant_detail::__traits<float, std::__ndk1::basic_string<char, std::__ndk1::char_traits<char>, std::__ndk1::allocator<char> > >, (std::__ndk1::__variant_detail::_Trait)1>::__destroy[abi:ne190000]()::{lambda(auto:1&)#1}, std::__ndk1::__variant_detail::__base<(std::__ndk1::__variant_detail::__traits<float, std::__ndk1::basic_string<char, std::__ndk1::char_traits<char>, std::__ndk1::allocator<char> > >)1, float, std::__ndk1::allocator<char> >&>(std::__ndk1::__variant_detail::__dtor<std::__ndk1::__variant_detail::__traits<float, std::__ndk1::basic_string<char, std::__ndk1::char_traits<char>, std::__ndk1::allocator<char> > >, (std::__ndk1::__variant_detail::_Trait)1>, std::__ndk1::__variant_detail::__base<(std::__ndk1::__variant_detail::__traits<float, std::__ndk1::basic_string<char, std::__ndk1::char_traits<char>, std::__ndk1::allocator<char> > >)1, float, std::__ndk1::allocator<char> >&)
PUBLIC 13a1f8 0 _ZNSt6__ndk117__from_chars_atoiB8ne190000IxTnNS_9enable_ifIXsr9is_signedIT_EE5valueEiE4typeELi0EEENS_17from_chars_resultEPKcS7_RS2_
PUBLIC 13a4d0 0 std::__ndk1::vector<geode::Ref<geode::Notification>, std::__ndk1::allocator<geode::Ref<geode::Notification> > >::__push_back_slow_path<geode::Ref<geode::Notification> >(geode::Ref<geode::Notification>&&)
PUBLIC 13a67c 0 std::__ndk1::vector<geode::Ref<geode::Notification>, std::__ndk1::allocator<geode::Ref<geode::Notification> > >::__throw_length_error[abi:ne190000]() const
PUBLIC 13a690 0 std::__ndk1::uniform_int_distribution<int>::operator()<std::__ndk1::mersenne_twister_engine<unsigned long, (unsigned long)32, (unsigned long)624, (unsigned long)397, (unsigned long)31, (unsigned long)2567483615, (unsigned long)11, (unsigned long)4294967295, (unsigned long)7, (unsigned long)2636928640, (unsigned long)15, (unsigned long)4022730752, (unsigned long)18, (unsigned long)1812433253> >(std::__ndk1::mersenne_twister_engine<unsigned long, (unsigned long)32, (unsigned long)624, (unsigned long)397, (unsigned long)31, (unsigned long)2567483615, (unsigned long)11, (unsigned long)4294967295, (unsigned long)7, (unsigned long)2636928640, (unsigned long)15, (unsigned long)4022730752, (unsigned long)18, (unsigned long)1812433253>&, std::__ndk1::uniform_int_distribution<int>::param_type const&)
PUBLIC 13a7cc 0 std::__ndk1::__independent_bits_engine<std::__ndk1::mersenne_twister_engine<unsigned long, (unsigned long)32, (unsigned long)624, (unsigned long)397, (unsigned long)31, (unsigned long)2567483615, (unsigned long)11, (unsigned long)4294967295, (unsigned long)7, (unsigned long)2636928640, (unsigned long)15, (unsigned long)4022730752, (unsigned long)18, (unsigned long)1812433253>, unsigned int>::__eval(std::__ndk1::integral_constant<bool, true>)
PUBLIC 13a9cc 0 std::__ndk1::__tree<std::__ndk1::__value_type<int, std::__ndk1::basic_string<char, std::__ndk1::char_traits<char>, std::__ndk1::allocator<char> > >, std::__ndk1::__map_value_compare<int, std::__ndk1::__value_type<int, std::__ndk1::basic_string<char, std::__ndk1::char_traits<char>, std::__ndk1::allocator<char> > >, std::__ndk1::less<int>, true>, std::__ndk1::allocator<std::__ndk1::__value_type<int, std::__ndk1::basic_string<char, std::__ndk1::char_traits<char>, std::__ndk1::allocator<char> > > > >::__emplace_hint_unique_key_args<int, std::__ndk1::pair<int const, std::__ndk1::basic_string<char, std::__ndk1::char_traits<char>, std::__ndk1::allocator<char> > > const&>(std::__ndk1::__tree_const_iterator<std::__ndk1::__value_type<int, std::__ndk1::basic_string<char, std::__ndk1::char_traits<char>, std::__ndk1::allocator<char> > >, std::__ndk1::__tree_node<std::__ndk1::__value_type<int, std::__ndk1::basic_string<char, std::__ndk1::char_traits<char>, std::__ndk1::allocator<char> > >, void*>*, long>, int const&, std::__ndk1::pair<int const, std::__ndk1::basic_string<char, std::__ndk1::char_traits<char>, std::__ndk1::allocator<char> > > const&)
PUBLIC 13ac30 0 std::__ndk1::unique_ptr<std::__ndk1::__tree_node<std::__ndk1::__value_type<int, std::__ndk1::basic_string<char, std::__ndk1::char_traits<char>, std::__ndk1::allocator<char> > >, void*>, std::__ndk1::__tree_node_destructor<std::__ndk1::allocator<std::__ndk1::__tree_node<std::__ndk1::__value_type<int, std::__ndk1::basic_string<char, std::__ndk1::char_traits<char>, std::__ndk1::allocator<char> > >, void*> > > >::~unique_ptr[abi:ne190000]()
PUBLIC 13ac80 0 std::__ndk1::__tree<std::__ndk1::basic_string<char, std::__ndk1::char_traits<char>, std::__ndk1::allocator<char> >, std::__ndk1::less<std::__ndk1::basic_string<char, std::__ndk1::char_traits<char>, std::__ndk1::allocator<char> > >, std::__ndk1::allocator<std::__ndk1::basic_string<char, std::__ndk1::char_traits<char>, std::__ndk1::allocator<char> > > >::destroy(std::__ndk1::__tree_node<std::__ndk1::basic_string<char, std::__ndk1::char_traits<char>, std::__ndk1::allocator<char> >, void*>*)
PUBLIC 13acc8 0 std::__ndk1::__tree<std::__ndk1::basic_string<char, std::__ndk1::char_traits<char>, std::__ndk1::allocator<char> >, std::__ndk1::less<std::__ndk1::basic_string<char, std::__ndk1::char_traits<char>, std::__ndk1::allocator<char> > >, std::__ndk1::allocator<std::__ndk1::basic_string<char, std::__ndk1::char_traits<char>, std::__ndk1::allocator<char> > > >::__emplace_hint_unique_key_args<std::__ndk1::basic_string<char, std::__ndk1::char_traits<char>, std::__ndk1::allocator<char> >, std::__ndk1::basic_string<char, std::__ndk1::char_traits<char>, std::__ndk1::allocator<char> > const&>(std::__ndk1::__tree_const_iterator<std::__ndk1::basic_string<char, std::__ndk1::char_traits<char>, std::__ndk1::allocator<char> >, std::__ndk1::__tree_node<std::__ndk1::basic_string<char, std::__ndk1::char_traits<char>, std::__ndk1::allocator<char> >, void*>*, long>, std::__ndk1::basic_string<char, std::__ndk1::char_traits<char>, std::__ndk1::allocator<char> > const&, std::__ndk1::basic_string<char, std::__ndk1::char_traits<char>, std::__ndk1::allocator<char> > const&)
PUBLIC 13b114 0 std::__ndk1::unique_ptr<std::__ndk1::__tree_node<std::__ndk1::basic_string<char, std::__ndk1::char_traits<char>, std::__ndk1::allocator<char> >, void*>, std::__ndk1::__tree_node_destructor<std::__ndk1::allocator<std::__ndk1::__tree_node<std::__ndk1::basic_string<char, std::__ndk1::char_traits<char>, std::__ndk1::allocator<char> >, void*> > > >::~unique_ptr[abi:ne190000]()
PUBLIC 13b164 0 std::__ndk1::__tree<std::__ndk1::__value_type<int, std::__ndk1::set<std::__ndk1::basic_string<char, std::__ndk1::char_traits<char>, std::__ndk1::allocator<char> >, std::__ndk1::less<std::__ndk1::basic_string<char, std::__ndk1::char_traits<char>, std::__ndk1::allocator<char> > >, std::__ndk1::allocator<std::__ndk1::basic_string<char, std::__ndk1::char_traits<char>, std::__ndk1::allocator<char> > > > >, std::__ndk1::__map_value_compare<int, std::__ndk1::__value_type<int, std::__ndk1::set<std::__ndk1::basic_string<char, std::__ndk1::char_traits<char>, std::__ndk1::allocator<char> >, std::__ndk1::less<std::__ndk1::basic_string<char, std::__ndk1::char_traits<char>, std::__ndk1::allocator<char> > >, std::__ndk1::allocator<std::__ndk1::basic_string<char, std::__ndk1::char_traits<char>, std::__ndk1::allocator<char> > > > >, std::__ndk1::less<int>, true>, std::__ndk1::allocator<std::__ndk1::__value_type<int, std::__ndk1::set<std::__ndk1::basic_string<char, std::__ndk1::char_traits<char>, std::__ndk1::allocator<char> >, std::__ndk1::less<std::__ndk1::basic_string<char, std::__ndk1::char_traits<char>, std::__ndk1::allocator<char> > >, std::__ndk1::allocator<std::__ndk1::basic_string<char, std::__ndk1::char_traits<char>, std::__ndk1::allocator<char> > > > > > >::__emplace_hint_unique_key_args<int, std::__ndk1::pair<int const, std::__ndk1::set<std::__ndk1::basic_string<char, std::__ndk1::char_traits<char>, std::__ndk1::allocator<char> >, std::__ndk1::less<std::__ndk1::basic_string<char, std::__ndk1::char_traits<char>, std::__ndk1::allocator<char> > >, std::__ndk1::allocator<std::__ndk1::basic_string<char, std::__ndk1::char_traits<char>, std::__ndk1::allocator<char> > > > > const&>(std::__ndk1::__tree_const_iterator<std::__ndk1::__value_type<int, std::__ndk1::set<std::__ndk1::basic_string<char, std::__ndk1::char_traits<char>, std::__ndk1::allocator<char> >, std::__ndk1::less<std::__ndk1::basic_string<char, std::__ndk1::char_traits<char>, std::__ndk1::allocator<char> > >, std::__ndk1::allocator<std::__ndk1::basic_string<char, std::__ndk1::char_traits<char>, std::__ndk1::allocator<char> > > > >, std::__ndk1::__tree_node<std::__ndk1::__value_type<int, std::__ndk1::set<std::__ndk1::basic_string<char, std::__ndk1::char_traits<char>, std::__ndk1::allocator<char> >, std::__ndk1::less<std::__ndk1::basic_string<char, std::__ndk1::char_traits<char>, std::__ndk1::allocator<char> > >, std::__ndk1::allocator<std::__ndk1::basic_string<char, std::__ndk1::char_traits<char>, std::__ndk1::allocator<char> > > > >, void*>*, long>, int const&, std::__ndk1::pair<int const, std::__ndk1::set<std::__ndk1::basic_string<char, std::__ndk1::char_traits<char>, std::__ndk1::allocator<char> >, std::__ndk1::less<std::__ndk1::basic_string<char, std::__ndk1::char_traits<char>, std::__ndk1::allocator<char> > >, std::__ndk1::allocator<std::__ndk1::basic_string<char, std::__ndk1::char_traits<char>, std::__ndk1::allocator<char> > > > > const&)
PUBLIC 13b420 0 std::__ndk1::unique_ptr<std::__ndk1::__tree_node<std::__ndk1::__value_type<int, std::__ndk1::set<std::__ndk1::basic_string<char, std::__ndk1::char_traits<char>, std::__ndk1::allocator<char> >, std::__ndk1::less<std::__ndk1::basic_string<char, std::__ndk1::char_traits<char>, std::__ndk1::allocator<char> > >, std::__ndk1::allocator<std::__ndk1::basic_string<char, std::__ndk1::char_traits<char>, std::__ndk1::allocator<char> > > > >, void*>, std::__ndk1::__tree_node_destructor<std::__ndk1::allocator<std::__ndk1::__tree_node<std::__ndk1::__value_type<int, std::__ndk1::set<std::__ndk1::basic_string<char, std::__ndk1::char_traits<char>, std::__ndk1::allocator<char> >, std::__ndk1::less<std::__ndk1::basic_string<char, std::__ndk1::char_traits<char>, std::__ndk1::allocator<char> > >, std::__ndk1::allocator<std::__ndk1::basic_string<char, std::__ndk1::char_traits<char>, std::__ndk1::allocator<char> > > > >, void*> > > >::~unique_ptr[abi:ne190000]()
PUBLIC 13b464 0 std::__ndk1::__tree<std::__ndk1::__value_type<int, std::__ndk1::set<std::__ndk1::basic_string<char, std::__ndk1::char_traits<char>, std::__ndk1::allocator<char> >, std::__ndk1::less<std::__ndk1::basic_string<char, std::__ndk1::char_traits<char>, std::__ndk1::allocator<char> > >, std::__ndk1::allocator<std::__ndk1::basic_string<char, std::__ndk1::char_traits<char>, std::__ndk1::allocator<char> > > > >, std::__ndk1::__map_value_compare<int, std::__ndk1::__value_type<int, std::__ndk1::set<std::__ndk1::basic_string<char, std::__ndk1::char_traits<char>, std::__ndk1::allocator<char> >, std::__ndk1::less<std::__ndk1::basic_string<char, std::__ndk1::char_traits<char>, std::__ndk1::allocator<char> > >, std::__ndk1::allocator<std::__ndk1::basic_string<char, std::__ndk1::char_traits<char>, std::__ndk1::allocator<char> > > > >, std::__ndk1::less<int>, true>, std::__ndk1::allocator<std::__ndk1::__value_type<int, std::__ndk1::set<std::__ndk1::basic_string<char, std::__ndk1::char_traits<char>, std::__ndk1::allocator<char> >, std::__ndk1::less<std::__ndk1::basic_string<char, std::__ndk1::char_traits<char>, std::__ndk1::allocator<char> > >, std::__ndk1::allocator<std::__ndk1::basic_string<char, std::__ndk1::char_traits<char>, std::__ndk1::allocator<char> > > > > > >::destroy(std::__ndk1::__tree_node<std::__ndk1::__value_type<int, std::__ndk1::set<std::__ndk1::basic_string<char, std::__ndk1::char_traits<char>, std::__ndk1::allocator<char> >, std::__ndk1::less<std::__ndk1::basic_string<char, std::__ndk1::char_traits<char>, std::__ndk1::allocator<char> > >, std::__ndk1::allocator<std::__ndk1::basic_string<char, std::__ndk1::char_traits<char>, std::__ndk1::allocator<char> > > > >, void*>*)
PUBLIC 13b4a8 0 std::__ndk1::__function::__base<void (FLAlertLayer*, bool)>::~__base()
PUBLIC 13b4ac 0 std::__ndk1::__function::__func<BetterInfo::createUpdateDialog()::$_0, std::__ndk1::allocator<BetterInfo::createUpdateDialog()::$_0>, void (FLAlertLayer*, bool)>::~__func()
PUBLIC 13b4b0 0 std::__ndk1::__function::__func<BetterInfo::createUpdateDialog()::$_0, std::__ndk1::allocator<BetterInfo::createUpdateDialog()::$_0>, void (FLAlertLayer*, bool)>::__clone() const
PUBLIC 13b4d4 0 std::__ndk1::__function::__func<BetterInfo::createUpdateDialog()::$_0, std::__ndk1::allocator<BetterInfo::createUpdateDialog()::$_0>, void (FLAlertLayer*, bool)>::__clone(std::__ndk1::__function::__base<void (FLAlertLayer*, bool)>*) const
PUBLIC 13b4e4 0 std::__ndk1::__function::__func<BetterInfo::createUpdateDialog()::$_0, std::__ndk1::allocator<BetterInfo::createUpdateDialog()::$_0>, void (FLAlertLayer*, bool)>::destroy()
PUBLIC 13b4e8 0 std::__ndk1::__function::__func<BetterInfo::createUpdateDialog()::$_0, std::__ndk1::allocator<BetterInfo::createUpdateDialog()::$_0>, void (FLAlertLayer*, bool)>::destroy_deallocate()
PUBLIC 13b4ec 0 std::__ndk1::__function::__func<BetterInfo::createUpdateDialog()::$_0, std::__ndk1::allocator<BetterInfo::createUpdateDialog()::$_0>, void (FLAlertLayer*, bool)>::operator()(FLAlertLayer*&&, bool&&)
PUBLIC 13b628 0 std::__ndk1::__function::__func<BetterInfo::createUpdateDialog()::$_0, std::__ndk1::allocator<BetterInfo::createUpdateDialog()::$_0>, void (FLAlertLayer*, bool)>::target(std::type_info const&) const
PUBLIC 13b644 0 std::__ndk1::__function::__func<BetterInfo::createUpdateDialog()::$_0, std::__ndk1::allocator<BetterInfo::createUpdateDialog()::$_0>, void (FLAlertLayer*, bool)>::target_type() const
PUBLIC 13b650 0 fmt::v11::detail::vformat<std::__ndk1::locale, char>(std::__ndk1::locale const&, fmt::v11::basic_string_view<char>, fmt::v11::detail::vformat_args<char>::type)
PUBLIC 13b7dc 0 fmt::v11::basic_memory_buffer<char, (unsigned long)500, std::__ndk1::allocator<char> >::grow(fmt::v11::detail::buffer<char>&, unsigned long)
PUBLIC 13b854 0 std::__ndk1::__thread_proxy[abi:ne190000]<std::__ndk1::tuple<std::__ndk1::unique_ptr<std::__ndk1::__thread_struct, std::__ndk1::default_delete<std::__ndk1::unique_ptr> >, BetterInfo::showUnimportantNotification(std::__ndk1::basic_string<char, std::__ndk1::char_traits<char>, std::__ndk1::allocator<char> > const&, geode::NotificationIcon, float)::$_0> >(std::__ndk1::tuple<std::__ndk1::unique_ptr<std::__ndk1::__thread_struct, std::__ndk1::default_delete<std::__ndk1::unique_ptr> >, BetterInfo::showUnimportantNotification(std::__ndk1::basic_string<char, std::__ndk1::char_traits<char>, std::__ndk1::allocator<char> > const&, geode::NotificationIcon, float)::$_0>)
PUBLIC 13b9d0 0 std::__ndk1::unique_ptr<std::__ndk1::tuple<std::__ndk1::unique_ptr<std::__ndk1::__thread_struct, std::__ndk1::default_delete<std::__ndk1::__thread_struct> >, BetterInfo::showUnimportantNotification(std::__ndk1::basic_string<char, std::__ndk1::char_traits<char>, std::__ndk1::allocator<char> > const&, geode::NotificationIcon, float)::$_0>, std::__ndk1::default_delete<std::__ndk1::tuple<std::__ndk1::unique_ptr<std::__ndk1::__thread_struct, std::__ndk1::default_delete<std::__ndk1::__thread_struct> >, BetterInfo::showUnimportantNotification(std::__ndk1::basic_string<char, std::__ndk1::char_traits<char>, std::__ndk1::allocator<char> > const&, geode::NotificationIcon, float)::$_0> > >::~unique_ptr[abi:ne190000]()
PUBLIC 13ba20 0 std::__ndk1::__function::__func<BetterInfo::showUnimportantNotification(std::__ndk1::basic_string<char, std::__ndk1::char_traits<char>, std::__ndk1::allocator<char> > const&, geode::NotificationIcon, float)::$_0::operator()() const::{lambda()#1}, std::__ndk1::allocator<BetterInfo::showUnimportantNotification(std::__ndk1::basic_string<char, std::__ndk1::char_traits<char>, std::__ndk1::allocator<char> > const&, geode::NotificationIcon, float)::$_0::operator()() const::{lambda()#1}>, void ()>::~__func()
PUBLIC 13ba24 0 std::__ndk1::__function::__func<BetterInfo::showUnimportantNotification(std::__ndk1::basic_string<char, std::__ndk1::char_traits<char>, std::__ndk1::allocator<char> > const&, geode::NotificationIcon, float)::$_0::operator()() const::{lambda()#1}, std::__ndk1::allocator<BetterInfo::showUnimportantNotification(std::__ndk1::basic_string<char, std::__ndk1::char_traits<char>, std::__ndk1::allocator<char> > const&, geode::NotificationIcon, float)::$_0::operator()() const::{lambda()#1}>, void ()>::__clone() const
PUBLIC 13ba58 0 std::__ndk1::__function::__func<BetterInfo::showUnimportantNotification(std::__ndk1::basic_string<char, std::__ndk1::char_traits<char>, std::__ndk1::allocator<char> > const&, geode::NotificationIcon, float)::$_0::operator()() const::{lambda()#1}, std::__ndk1::allocator<BetterInfo::showUnimportantNotification(std::__ndk1::basic_string<char, std::__ndk1::char_traits<char>, std::__ndk1::allocator<char> > const&, geode::NotificationIcon, float)::$_0::operator()() const::{lambda()#1}>, void ()>::__clone(std::__ndk1::__function::__base<void ()>*) const
PUBLIC 13ba6c 0 std::__ndk1::__function::__func<BetterInfo::showUnimportantNotification(std::__ndk1::basic_string<char, std::__ndk1::char_traits<char>, std::__ndk1::allocator<char> > const&, geode::NotificationIcon, float)::$_0::operator()() const::{lambda()#1}, std::__ndk1::allocator<BetterInfo::showUnimportantNotification(std::__ndk1::basic_string<char, std::__ndk1::char_traits<char>, std::__ndk1::allocator<char> > const&, geode::NotificationIcon, float)::$_0::operator()() const::{lambda()#1}>, void ()>::destroy()
PUBLIC 13ba70 0 std::__ndk1::__function::__func<BetterInfo::showUnimportantNotification(std::__ndk1::basic_string<char, std::__ndk1::char_traits<char>, std::__ndk1::allocator<char> > const&, geode::NotificationIcon, float)::$_0::operator()() const::{lambda()#1}, std::__ndk1::allocator<BetterInfo::showUnimportantNotification(std::__ndk1::basic_string<char, std::__ndk1::char_traits<char>, std::__ndk1::allocator<char> > const&, geode::NotificationIcon, float)::$_0::operator()() const::{lambda()#1}>, void ()>::destroy_deallocate()
PUBLIC 13ba74 0 std::__ndk1::__function::__func<BetterInfo::showUnimportantNotification(std::__ndk1::basic_string<char, std::__ndk1::char_traits<char>, std::__ndk1::allocator<char> > const&, geode::NotificationIcon, float)::$_0::operator()() const::{lambda()#1}, std::__ndk1::allocator<BetterInfo::showUnimportantNotification(std::__ndk1::basic_string<char, std::__ndk1::char_traits<char>, std::__ndk1::allocator<char> > const&, geode::NotificationIcon, float)::$_0::operator()() const::{lambda()#1}>, void ()>::operator()()
PUBLIC 13bb30 0 std::__ndk1::__function::__func<BetterInfo::showUnimportantNotification(std::__ndk1::basic_string<char, std::__ndk1::char_traits<char>, std::__ndk1::allocator<char> > const&, geode::NotificationIcon, float)::$_0::operator()() const::{lambda()#1}, std::__ndk1::allocator<BetterInfo::showUnimportantNotification(std::__ndk1::basic_string<char, std::__ndk1::char_traits<char>, std::__ndk1::allocator<char> > const&, geode::NotificationIcon, float)::$_0::operator()() const::{lambda()#1}>, void ()>::target(std::type_info const&) const
PUBLIC 13bb4c 0 std::__ndk1::__function::__func<BetterInfo::showUnimportantNotification(std::__ndk1::basic_string<char, std::__ndk1::char_traits<char>, std::__ndk1::allocator<char> > const&, geode::NotificationIcon, float)::$_0::operator()() const::{lambda()#1}, std::__ndk1::allocator<BetterInfo::showUnimportantNotification(std::__ndk1::basic_string<char, std::__ndk1::char_traits<char>, std::__ndk1::allocator<char> > const&, geode::NotificationIcon, float)::$_0::operator()() const::{lambda()#1}>, void ()>::target_type() const
PUBLIC 13bb58 0 _GLOBAL__sub_I_utils.cpp
PUBLIC 13bb74 0 isRobTopStyleDate(std::__ndk1::basic_string<char, std::__ndk1::char_traits<char>, std::__ndk1::allocator<char> > const&)
PUBLIC m 13be74 0 LevelMetadata::getGameVersionName(int)
PUBLIC m 13bf9c 0 LevelMetadata::stringDate(std::__ndk1::basic_string<char, std::__ndk1::char_traits<char>, std::__ndk1::allocator<char> > const&)
PUBLIC m 13c07c 0 LevelMetadata::getDifficultyIcon(int)
PUBLIC m 13c0a4 0 LevelMetadata::getDemonDifficultyIcon(int)
PUBLIC m 13c0cc 0 LevelMetadata::passwordString(int)
PUBLIC m 13c29c 0 LevelMetadata::zeroIfNA(int)
PUBLIC m 13c2bc 0 LevelMetadata::addPlus(std::__ndk1::basic_string<char, std::__ndk1::char_traits<char>, std::__ndk1::allocator<char> >)
PUBLIC m 13c354 0 LevelMetadata::boolString(bool)
PUBLIC m 13c370 0 LevelProgressDialog::printableProgress(std::__ndk1::basic_string<char, std::__ndk1::char_traits<char>, std::__ndk1::allocator<char> >, int)
PUBLIC 13ceb8 0 std::__ndk1::deque<int, std::__ndk1::allocator<int> >::~deque[abi:ne190000]()
PUBLIC m 13cf88 0 LevelProgressDialog::show(GJGameLevel*)
PUBLIC m 13e4f4 0 LevelUtils::getLevelFromSaved(int)
PUBLIC m 13e5c8 0 LevelUtils::completedDeque()
PUBLIC m 13e6ac 0 LevelUtils::resetLevelCaches()
PUBLIC m 13e6c8 0 LevelUtils::levelDifficultyAsInt(GJGameLevel*)
PUBLIC m 13e710 0 LevelUtils::levelDemonDifficultyAsInt(GJGameLevel*)
PUBLIC m 13e730 0 LevelUtils::levelHasCollectedCoins(GJGameLevel*)
PUBLIC 13e8e8 0 std::__ndk1::unordered_map<std::__ndk1::basic_string<char, std::__ndk1::char_traits<char>, std::__ndk1::allocator<char> >, geode::Ref<cocos2d::CCArray>, std::__ndk1::hash<std::__ndk1::basic_string<char, std::__ndk1::char_traits<char>, std::__ndk1::allocator<char> > >, std::__ndk1::equal_to<std::__ndk1::basic_string<char, std::__ndk1::char_traits<char>, std::__ndk1::allocator<char> > >, std::__ndk1::allocator<std::__ndk1::pair<std::__ndk1::basic_string<char, std::__ndk1::char_traits<char>, std::__ndk1::allocator<char> > const, geode::Ref<cocos2d::CCArray> > > >::~unordered_map[abi:ne190000]()
PUBLIC 13e968 0 std::__ndk1::unordered_map<std::__ndk1::basic_string<char, std::__ndk1::char_traits<char>, std::__ndk1::allocator<char> >, geode::Task<geode::utils::web::WebResponse, geode::utils::web::WebProgress>, std::__ndk1::hash<std::__ndk1::basic_string<char, std::__ndk1::char_traits<char>, std::__ndk1::allocator<char> > >, std::__ndk1::equal_to<std::__ndk1::basic_string<char, std::__ndk1::char_traits<char>, std::__ndk1::allocator<char> > >, std::__ndk1::allocator<std::__ndk1::pair<std::__ndk1::basic_string<char, std::__ndk1::char_traits<char>, std::__ndk1::allocator<char> > const, geode::Task<geode::utils::web::WebResponse, geode::utils::web::WebProgress> > > >::~unordered_map[abi:ne190000]()
PUBLIC 13ea14 0 std::__ndk1::shared_mutex::~shared_mutex[abi:ne190000]()
PUBLIC m 13ea44 0 ServerUtils::isGDPS()
PUBLIC m 13eb3c 0 ServerUtils::getBaseURL()
PUBLIC m 13ee9c 0 ServerUtils::getBaseRequest(bool)
PUBLIC m 13f09c 0 ServerUtils::getBasePostString(bool)
PUBLIC m 13f2a8 0 ServerUtils::getSearchObjectKey(GJSearchObject*)
PUBLIC 13f9b8 0 std::__ndk1::array<std::__ndk1::basic_string<char, std::__ndk1::char_traits<char>, std::__ndk1::allocator<char> >, (unsigned long)3>::~array()
PUBLIC m 13fa1c 0 ServerUtils::getLevelLists(GJSearchObject*, std::__ndk1::function<void (std::__ndk1::shared_ptr<std::__ndk1::vector<geode::Ref<GJLevelList>, std::__ndk1::allocator<geode::Ref<GJLevelList> > > >, bool)>, bool)
PUBLIC 1405ec 0 ServerUtils::getLevelLists(GJSearchObject*, std::__ndk1::function<void (std::__ndk1::shared_ptr<std::__ndk1::vector<geode::Ref<GJLevelList>, std::__ndk1::allocator<geode::Ref<GJLevelList> > > >, bool)>, bool)::$_0::~$_0()
PUBLIC m 140688 0 ServerUtils::getOnlineLevels(GJSearchObject*, std::__ndk1::function<void (std::__ndk1::shared_ptr<std::__ndk1::vector<geode::Ref<GJGameLevel>, std::__ndk1::allocator<geode::Ref<GJGameLevel> > > >, bool, bool)>, bool)
PUBLIC 1416d4 0 ServerUtils::getOnlineLevels(GJSearchObject*, std::__ndk1::function<void (std::__ndk1::shared_ptr<std::__ndk1::vector<geode::Ref<GJGameLevel>, std::__ndk1::allocator<geode::Ref<GJGameLevel> > > >, bool, bool)>, bool)::$_0::~$_0()
PUBLIC m 141770 0 ServerUtils::getStoredOnlineLevels(std::__ndk1::basic_string<char, std::__ndk1::char_traits<char>, std::__ndk1::allocator<char> > const&)
PUBLIC m 141838 0 ServerUtils::resetCache()
PUBLIC m 1418dc 0 ServerUtils::showCFError(std::__ndk1::basic_string<char, std::__ndk1::char_traits<char>, std::__ndk1::allocator<char> > const&)
PUBLIC m 141b90 0 ServerUtils::showRateLimitError(int)
PUBLIC 141c70 0 GetCurrentServerEvent::~GetCurrentServerEvent()
PUBLIC 141cb0 0 GetCurrentServerEvent::~GetCurrentServerEvent()
PUBLIC 141cf4 0 ServerUtils::getLevelLists(GJSearchObject*, std::__ndk1::function<void (std::__ndk1::shared_ptr<std::__ndk1::vector<geode::Ref<GJLevelList>, std::__ndk1::allocator<geode::Ref<GJLevelList> > > >, bool)>, bool)::$_0::operator()(geode::utils::web::WebResponse*) const
PUBLIC 142cc4 0 geode::Task<geode::utils::web::WebResponse, geode::utils::web::WebProgress>::map<ServerUtils::getLevelLists(GJSearchObject*, std::__ndk1::function<void (std::__ndk1::shared_ptr<std::__ndk1::vector<geode::Ref<GJLevelList>, std::__ndk1::allocator<geode::Ref<GJLevelList> > > >, bool)>, bool)::$_0, geode::utils::web::WebProgress (*)(geode::utils::web::WebProgress*), void (*)()>(ServerUtils::getLevelLists(GJSearchObject*, std::__ndk1::function<void (std::__ndk1::shared_ptr<std::__ndk1::vector<geode::Ref<GJLevelList>, std::__ndk1::allocator<geode::Ref<GJLevelList> > > >, bool)>, bool)::$_0&&, geode::utils::web::WebProgress (*&&)(geode::utils::web::WebProgress*), void (*&&)(), std::__ndk1::basic_string_view<char, std::__ndk1::char_traits<char> >) const::{lambda(geode::Task<geode::utils::web::WebResponse, geode::utils::web::WebProgress>::Event*)#1}::~{lambda(geode::Task<geode::utils::web::WebResponse, geode::utils::web::WebProgress>::Event*)#1}()
PUBLIC 142d5c 0 std::__ndk1::__throw_bad_optional_access[abi:ne190000]()
PUBLIC 142d90 0 std::__ndk1::__shared_ptr_emplace<std::__ndk1::vector<geode::Ref<GJLevelList>, std::__ndk1::allocator<geode::Ref<GJLevelList> > >, std::__ndk1::allocator<std::__ndk1::vector<geode::Ref<GJLevelList>, std::__ndk1::allocator<geode::Ref<GJLevelList> > > > >::~__shared_ptr_emplace()
PUBLIC 142da0 0 std::__ndk1::__shared_ptr_emplace<std::__ndk1::vector<geode::Ref<GJLevelList>, std::__ndk1::allocator<geode::Ref<GJLevelList> > >, std::__ndk1::allocator<std::__ndk1::vector<geode::Ref<GJLevelList>, std::__ndk1::allocator<geode::Ref<GJLevelList> > > > >::~__shared_ptr_emplace()
PUBLIC 142dd0 0 std::__ndk1::__shared_ptr_emplace<std::__ndk1::vector<geode::Ref<GJLevelList>, std::__ndk1::allocator<geode::Ref<GJLevelList> > >, std::__ndk1::allocator<std::__ndk1::vector<geode::Ref<GJLevelList>, std::__ndk1::allocator<geode::Ref<GJLevelList> > > > >::__on_zero_shared()
PUBLIC 142e54 0 std::__ndk1::__shared_ptr_emplace<std::__ndk1::vector<geode::Ref<GJLevelList>, std::__ndk1::allocator<geode::Ref<GJLevelList> > >, std::__ndk1::allocator<std::__ndk1::vector<geode::Ref<GJLevelList>, std::__ndk1::allocator<geode::Ref<GJLevelList> > > > >::__on_zero_shared_weak()
PUBLIC 142e58 0 std::__ndk1::vector<geode::Ref<GJLevelList>, std::__ndk1::allocator<geode::Ref<GJLevelList> > >::__throw_length_error[abi:ne190000]() const
PUBLIC 142e6c 0 std::__ndk1::__function::__func<geode::Task<geode::utils::web::WebResponse, geode::utils::web::WebProgress>::map<ServerUtils::getLevelLists(GJSearchObject*, std::__ndk1::function<void (std::__ndk1::shared_ptr<std::__ndk1::vector<geode::Ref<GJLevelList>, std::__ndk1::allocator<geode::Ref<GJLevelList> > > >, bool)>, bool)::$_0, geode::utils::web::WebProgress (*)(geode::utils::web::WebProgress*), void (*)()>(ServerUtils::getLevelLists(GJSearchObject*, std::__ndk1::function<void (std::__ndk1::shared_ptr<std::__ndk1::vector<geode::Ref<GJLevelList>, std::__ndk1::allocator<geode::Ref<GJLevelList> > > >, bool)>, bool)::$_0&&, geode::utils::web::WebProgress (*&&)(geode::utils::web::WebProgress*), void (*&&)(), std::__ndk1::basic_string_view<char, std::__ndk1::char_traits<char> >) const::{lambda(geode::Task<geode::utils::web::WebResponse, geode::utils::web::WebProgress>::Event*)#1}, std::__ndk1::allocator<geode::Task<geode::utils::web::WebResponse, geode::utils::web::WebProgress>::map<ServerUtils::getLevelLists(GJSearchObject*, std::__ndk1::function<void (std::__ndk1::shared_ptr<std::__ndk1::vector<geode::Ref<GJLevelList>, std::__ndk1::allocator<geode::Ref<GJLevelList> > > >, bool)>, bool)::$_0, geode::utils::web::WebProgress (*)(geode::utils::web::WebProgress*), void (*)()>(ServerUtils::getLevelLists(GJSearchObject*, std::__ndk1::function<void (std::__ndk1::shared_ptr<std::__ndk1::vector<geode::Ref<GJLevelList>, std::__ndk1::allocator<geode::Ref<GJLevelList> > > >, bool)>, bool)::$_0&&, geode::utils::web::WebProgress (*&&)(geode::utils::web::WebProgress*), void (*&&)(), std::__ndk1::basic_string_view<char, std::__ndk1::char_traits<char> >) const::{lambda(geode::Task<geode::utils::web::WebResponse, geode::utils::web::WebProgress>::Event*)#1}>, void (geode::Task<geode::utils::web::WebResponse, geode::utils::web::WebProgress>::Event*)>::~__func()
PUBLIC 142f10 0 std::__ndk1::__function::__func<geode::Task<geode::utils::web::WebResponse, geode::utils::web::WebProgress>::map<ServerUtils::getLevelLists(GJSearchObject*, std::__ndk1::function<void (std::__ndk1::shared_ptr<std::__ndk1::vector<geode::Ref<GJLevelList>, std::__ndk1::allocator<geode::Ref<GJLevelList> > > >, bool)>, bool)::$_0, geode::utils::web::WebProgress (*)(geode::utils::web::WebProgress*), void (*)()>(ServerUtils::getLevelLists(GJSearchObject*, std::__ndk1::function<void (std::__ndk1::shared_ptr<std::__ndk1::vector<geode::Ref<GJLevelList>, std::__ndk1::allocator<geode::Ref<GJLevelList> > > >, bool)>, bool)::$_0&&, geode::utils::web::WebProgress (*&&)(geode::utils::web::WebProgress*), void (*&&)(), std::__ndk1::basic_string_view<char, std::__ndk1::char_traits<char> >) const::{lambda(geode::Task<geode::utils::web::WebResponse, geode::utils::web::WebProgress>::Event*)#1}, std::__ndk1::allocator<geode::Task<geode::utils::web::WebResponse, geode::utils::web::WebProgress>::map<ServerUtils::getLevelLists(GJSearchObject*, std::__ndk1::function<void (std::__ndk1::shared_ptr<std::__ndk1::vector<geode::Ref<GJLevelList>, std::__ndk1::allocator<geode::Ref<GJLevelList> > > >, bool)>, bool)::$_0, geode::utils::web::WebProgress (*)(geode::utils::web::WebProgress*), void (*)()>(ServerUtils::getLevelLists(GJSearchObject*, std::__ndk1::function<void (std::__ndk1::shared_ptr<std::__ndk1::vector<geode::Ref<GJLevelList>, std::__ndk1::allocator<geode::Ref<GJLevelList> > > >, bool)>, bool)::$_0&&, geode::utils::web::WebProgress (*&&)(geode::utils::web::WebProgress*), void (*&&)(), std::__ndk1::basic_string_view<char, std::__ndk1::char_traits<char> >) const::{lambda(geode::Task<geode::utils::web::WebResponse, geode::utils::web::WebProgress>::Event*)#1}>, void (geode::Task<geode::utils::web::WebResponse, geode::utils::web::WebProgress>::Event*)>::~__func()
PUBLIC 142fb0 0 std::__ndk1::__function::__func<geode::Task<geode::utils::web::WebResponse, geode::utils::web::WebProgress>::map<ServerUtils::getLevelLists(GJSearchObject*, std::__ndk1::function<void (std::__ndk1::shared_ptr<std::__ndk1::vector<geode::Ref<GJLevelList>, std::__ndk1::allocator<geode::Ref<GJLevelList> > > >, bool)>, bool)::$_0, geode::utils::web::WebProgress (*)(geode::utils::web::WebProgress*), void (*)()>(ServerUtils::getLevelLists(GJSearchObject*, std::__ndk1::function<void (std::__ndk1::shared_ptr<std::__ndk1::vector<geode::Ref<GJLevelList>, std::__ndk1::allocator<geode::Ref<GJLevelList> > > >, bool)>, bool)::$_0&&, geode::utils::web::WebProgress (*&&)(geode::utils::web::WebProgress*), void (*&&)(), std::__ndk1::basic_string_view<char, std::__ndk1::char_traits<char> >) const::{lambda(geode::Task<geode::utils::web::WebResponse, geode::utils::web::WebProgress>::Event*)#1}, std::__ndk1::allocator<geode::Task<geode::utils::web::WebResponse, geode::utils::web::WebProgress>::map<ServerUtils::getLevelLists(GJSearchObject*, std::__ndk1::function<void (std::__ndk1::shared_ptr<std::__ndk1::vector<geode::Ref<GJLevelList>, std::__ndk1::allocator<geode::Ref<GJLevelList> > > >, bool)>, bool)::$_0, geode::utils::web::WebProgress (*)(geode::utils::web::WebProgress*), void (*)()>(ServerUtils::getLevelLists(GJSearchObject*, std::__ndk1::function<void (std::__ndk1::shared_ptr<std::__ndk1::vector<geode::Ref<GJLevelList>, std::__ndk1::allocator<geode::Ref<GJLevelList> > > >, bool)>, bool)::$_0&&, geode::utils::web::WebProgress (*&&)(geode::utils::web::WebProgress*), void (*&&)(), std::__ndk1::basic_string_view<char, std::__ndk1::char_traits<char> >) const::{lambda(geode::Task<geode::utils::web::WebResponse, geode::utils::web::WebProgress>::Event*)#1}>, void (geode::Task<geode::utils::web::WebResponse, geode::utils::web::WebProgress>::Event*)>::__clone() const
PUBLIC 143004 0 std::__ndk1::__function::__func<geode::Task<geode::utils::web::WebResponse, geode::utils::web::WebProgress>::map<ServerUtils::getLevelLists(GJSearchObject*, std::__ndk1::function<void (std::__ndk1::shared_ptr<std::__ndk1::vector<geode::Ref<GJLevelList>, std::__ndk1::allocator<geode::Ref<GJLevelList> > > >, bool)>, bool)::$_0, geode::utils::web::WebProgress (*)(geode::utils::web::WebProgress*), void (*)()>(ServerUtils::getLevelLists(GJSearchObject*, std::__ndk1::function<void (std::__ndk1::shared_ptr<std::__ndk1::vector<geode::Ref<GJLevelList>, std::__ndk1::allocator<geode::Ref<GJLevelList> > > >, bool)>, bool)::$_0&&, geode::utils::web::WebProgress (*&&)(geode::utils::web::WebProgress*), void (*&&)(), std::__ndk1::basic_string_view<char, std::__ndk1::char_traits<char> >) const::{lambda(geode::Task<geode::utils::web::WebResponse, geode::utils::web::WebProgress>::Event*)#1}, std::__ndk1::allocator<geode::Task<geode::utils::web::WebResponse, geode::utils::web::WebProgress>::map<ServerUtils::getLevelLists(GJSearchObject*, std::__ndk1::function<void (std::__ndk1::shared_ptr<std::__ndk1::vector<geode::Ref<GJLevelList>, std::__ndk1::allocator<geode::Ref<GJLevelList> > > >, bool)>, bool)::$_0, geode::utils::web::WebProgress (*)(geode::utils::web::WebProgress*), void (*)()>(ServerUtils::getLevelLists(GJSearchObject*, std::__ndk1::function<void (std::__ndk1::shared_ptr<std::__ndk1::vector<geode::Ref<GJLevelList>, std::__ndk1::allocator<geode::Ref<GJLevelList> > > >, bool)>, bool)::$_0&&, geode::utils::web::WebProgress (*&&)(geode::utils::web::WebProgress*), void (*&&)(), std::__ndk1::basic_string_view<char, std::__ndk1::char_traits<char> >) const::{lambda(geode::Task<geode::utils::web::WebResponse, geode::utils::web::WebProgress>::Event*)#1}>, void (geode::Task<geode::utils::web::WebResponse, geode::utils::web::WebProgress>::Event*)>::__clone(std::__ndk1::__function::__base<void (geode::Task<geode::utils::web::WebResponse, geode::utils::web::WebProgress>::Event*)>*) const
