MODULE Linux arm64 B6FCE8211DDD0E2CCC8E75561056CFCF0 alphalaneous.level_info_backgrounds.android64.so
INFO CODE_ID 21E8FCB6DD1D2C0ECC8E75561056CFCFD1BD9D32
INFO GENERATOR mozilla/dump_syms 2.3.4
PUBLIC 10db0 0 __on_dlclose
PUBLIC 10dc0 0 __emutls_unregister_key
PUBLIC 10dc8 0 __on_dlclose_late
PUBLIC 10dd0 0 __atexit_handler_wrapper
PUBLIC 10de4 0 atexit
PUBLIC 10e00 0 pthread_atfork
PUBLIC 10e10 0 unwind_phase2
PUBLIC 10f44 0 _Unwind_Resume
PUBLIC 10fc8 0 unwind_phase2_forced
PUBLIC m 110bc 0 __unw_init_local
PUBLIC m 11164 0 __unw_get_reg
PUBLIC 111e0 0 __unw_step_stage2
PUBLIC m 111f4 0 __unw_get_proc_info
PUBLIC m 11234 0 __unw_resume
PUBLIC 1125c 0 libunwind::CFI_Parser<libunwind::LocalAddressSpace>::decodeFDE(libunwind::LocalAddressSpace&, unsigned long, libunwind::CFI_Parser<libunwind::LocalAddressSpace>::FDE_Info*, libunwind::CFI_Parser<libunwind::LocalAddressSpace>::CIE_Info*, bool)
PUBLIC 113ec 0 libunwind::CFI_Parser<libunwind::LocalAddressSpace>::parseCIE(libunwind::LocalAddressSpace&, unsigned long, libunwind::CFI_Parser<libunwind::LocalAddressSpace>::CIE_Info*)
PUBLIC 116b4 0 libunwind::AbstractUnwindCursor::~AbstractUnwindCursor()
PUBLIC 116bc 0 libunwind::UnwindCursor<libunwind::LocalAddressSpace, libunwind::Registers_arm64>::~UnwindCursor()
PUBLIC 116c4 0 libunwind::UnwindCursor<libunwind::LocalAddressSpace, libunwind::Registers_arm64>::validReg(int)
PUBLIC 11708 0 libunwind::UnwindCursor<libunwind::LocalAddressSpace, libunwind::Registers_arm64>::getReg(int)
PUBLIC 117f0 0 libunwind::UnwindCursor<libunwind::LocalAddressSpace, libunwind::Registers_arm64>::setReg(int, unsigned long)
PUBLIC 118d8 0 libunwind::UnwindCursor<libunwind::LocalAddressSpace, libunwind::Registers_arm64>::validFloatReg(int)
PUBLIC 118ec 0 libunwind::UnwindCursor<libunwind::LocalAddressSpace, libunwind::Registers_arm64>::getFloatReg(int)
PUBLIC 118fc 0 libunwind::UnwindCursor<libunwind::LocalAddressSpace, libunwind::Registers_arm64>::setFloatReg(int, double)
PUBLIC 1190c 0 libunwind::UnwindCursor<libunwind::LocalAddressSpace, libunwind::Registers_arm64>::step(bool)
PUBLIC 119fc 0 libunwind::UnwindCursor<libunwind::LocalAddressSpace, libunwind::Registers_arm64>::getInfo(unw_proc_info_t*)
PUBLIC 11a40 0 libunwind::UnwindCursor<libunwind::LocalAddressSpace, libunwind::Registers_arm64>::jumpto()
PUBLIC 11a4c 0 libunwind::UnwindCursor<libunwind::LocalAddressSpace, libunwind::Registers_arm64>::isSignalFrame()
PUBLIC 11a58 0 libunwind::UnwindCursor<libunwind::LocalAddressSpace, libunwind::Registers_arm64>::getFunctionName(char*, unsigned long, unsigned long*)
PUBLIC 11a84 0 libunwind::UnwindCursor<libunwind::LocalAddressSpace, libunwind::Registers_arm64>::setInfoBasedOnIPRegister(bool)
PUBLIC 11d04 0 libunwind::UnwindCursor<libunwind::LocalAddressSpace, libunwind::Registers_arm64>::getRegisterName(int)
PUBLIC 11d10 0 libunwind::UnwindCursor<libunwind::LocalAddressSpace, libunwind::Registers_arm64>::stepThroughSigReturn(libunwind::Registers_arm64&)
PUBLIC 11e30 0 libunwind::DwarfInstructions<libunwind::LocalAddressSpace, libunwind::Registers_arm64>::stepWithDwarf(libunwind::LocalAddressSpace&, unsigned long, unsigned long, libunwind::Registers_arm64&, bool&, bool)
PUBLIC 122b8 0 libunwind::CFI_Parser<libunwind::LocalAddressSpace>::parseFDEInstructions(libunwind::LocalAddressSpace&, libunwind::CFI_Parser<libunwind::LocalAddressSpace>::FDE_Info const&, libunwind::CFI_Parser<libunwind::LocalAddressSpace>::CIE_Info const&, unsigned long, int, libunwind::CFI_Parser<libunwind::LocalAddressSpace>::PrologInfo*)
PUBLIC 12f00 0 libunwind::DwarfInstructions<libunwind::LocalAddressSpace, libunwind::Registers_arm64>::getCFA(libunwind::LocalAddressSpace&, libunwind::CFI_Parser<libunwind::LocalAddressSpace>::PrologInfo const&, libunwind::Registers_arm64 const&)
PUBLIC 13034 0 libunwind::DwarfInstructions<libunwind::LocalAddressSpace, libunwind::Registers_arm64>::getSavedRegister(libunwind::LocalAddressSpace&, libunwind::Registers_arm64 const&, unsigned long, libunwind::CFI_Parser<libunwind::LocalAddressSpace>::RegisterLocation const&)
PUBLIC 13244 0 libunwind::LocalAddressSpace::getEncodedP(unsigned long&, unsigned long, unsigned char, unsigned long)
PUBLIC 135d0 0 libunwind::LocalAddressSpace::getULEB128(unsigned long&, unsigned long)
PUBLIC 13798 0 libunwind::DwarfInstructions<libunwind::LocalAddressSpace, libunwind::Registers_arm64>::evaluateExpression(unsigned long, libunwind::LocalAddressSpace&, libunwind::Registers_arm64 const&, unsigned long)
PUBLIC 14154 0 libunwind::UnwindCursor<libunwind::LocalAddressSpace, libunwind::Registers_arm64>::getInfoFromDwarfSection(unsigned long, libunwind::UnwindInfoSections const&, unsigned int)
PUBLIC 14428 0 libunwind::findUnwindSectionsByPhdr(dl_phdr_info*, unsigned long, void*)
PUBLIC 1455c 0 libunwind::EHHeaderParser<libunwind::LocalAddressSpace>::decodeEHHdr(libunwind::LocalAddressSpace&, unsigned long, unsigned long, libunwind::EHHeaderParser<libunwind::LocalAddressSpace>::EHHeaderInfo&)
PUBLIC 1467c 0 libunwind::CFI_Parser<libunwind::LocalAddressSpace>::findFDE(libunwind::LocalAddressSpace&, unsigned long, unsigned long, unsigned long, unsigned long, libunwind::CFI_Parser<libunwind::LocalAddressSpace>::FDE_Info*, libunwind::CFI_Parser<libunwind::LocalAddressSpace>::CIE_Info*)
PUBLIC 14844 0 libunwind::EHHeaderParser<libunwind::LocalAddressSpace>::findFDE(libunwind::LocalAddressSpace&, unsigned long, unsigned long, unsigned int, libunwind::CFI_Parser<libunwind::LocalAddressSpace>::FDE_Info*, libunwind::CFI_Parser<libunwind::LocalAddressSpace>::CIE_Info*)
PUBLIC 149ac 0 libunwind::EHHeaderParser<libunwind::LocalAddressSpace>::getTableEntrySize(unsigned char)
PUBLIC 14aa8 0 libunwind::Registers_arm64::getRegisterName(int)
PUBLIC 14ad8 0 __libunwind_Registers_arm64_jumpto
PUBLIC m 14b68 0 __unw_getcontext
PUBLIC 14c10 0 __aarch64_ldadd8_relax
PUBLIC 14c40 0 init_have_lse_atomics
PUBLIC 14cd8 0 __init_cpu_features_constructor
PUBLIC 15274 0 __init_cpu_features
PUBLIC 15300 0 __aarch64_ldadd8_acq_rel
PUBLIC 15330 0 ScrollGameLayer::init(GJGameLevel*, bool, cocos2d::_ccColor3B, bool)
PUBLIC 186b4 0 geode::Mod::getSettingValue<long>(std::__ndk1::basic_string_view<char, std::__ndk1::char_traits<char> >) const
PUBLIC 187cc 0 geode::Mod::getSettingValue<cocos2d::_ccColor3B>(std::__ndk1::basic_string_view<char, std::__ndk1::char_traits<char> >) const
PUBLIC 188ec 0 geode::Mod::getSettingValue<bool>(std::__ndk1::basic_string_view<char, std::__ndk1::char_traits<char> >) const
PUBLIC 18a20 0 Utils::decodeBase64Gzip(std::__ndk1::basic_string<char, std::__ndk1::char_traits<char>, std::__ndk1::allocator<char> > const&)
PUBLIC 18ad0 0 Utils::splitToMap(std::__ndk1::basic_string<char, std::__ndk1::char_traits<char>, std::__ndk1::allocator<char> > const&, std::__ndk1::basic_string<char, std::__ndk1::char_traits<char>, std::__ndk1::allocator<char> > const&)
PUBLIC 18f10 0 ScrollGameLayer::pre19ColorToNew(std::__ndk1::basic_string<char, std::__ndk1::char_traits<char>, std::__ndk1::allocator<char> >, std::__ndk1::vector<std::__ndk1::basic_string<char, std::__ndk1::char_traits<char>, std::__ndk1::allocator<char> >, std::__ndk1::allocator<std::__ndk1::basic_string<char, std::__ndk1::char_traits<char>, std::__ndk1::allocator<char> > > >, std::__ndk1::map<std::__ndk1::basic_string<char, std::__ndk1::char_traits<char>, std::__ndk1::allocator<char> >, std::__ndk1::map<std::__ndk1::basic_string<char, std::__ndk1::char_traits<char>, std::__ndk1::allocator<char> >, std::__ndk1::basic_string<char, std::__ndk1::char_traits<char>, std::__ndk1::allocator<char> >, std::__ndk1::less<std::__ndk1::basic_string<char, std::__ndk1::char_traits<char>, std::__ndk1::allocator<char> > >, std::__ndk1::allocator<std::__ndk1::pair<std::__ndk1::basic_string<char, std::__ndk1::char_traits<char>, std::__ndk1::allocator<char> > const, std::__ndk1::basic_string<char, std::__ndk1::char_traits<char>, std::__ndk1::allocator<char> > > > >, std::__ndk1::less<std::__ndk1::basic_string<char, std::__ndk1::char_traits<char>, std::__ndk1::allocator<char> > >, std::__ndk1::allocator<std::__ndk1::pair<std::__ndk1::basic_string<char, std::__ndk1::char_traits<char>, std::__ndk1::allocator<char> > const, std::__ndk1::map<std::__ndk1::basic_string<char, std::__ndk1::char_traits<char>, std::__ndk1::allocator<char> >, std::__ndk1::basic_string<char, std::__ndk1::char_traits<char>, std::__ndk1::allocator<char> >, std::__ndk1::less<std::__ndk1::basic_string<char, std::__ndk1::char_traits<char>, std::__ndk1::allocator<char> > >, std::__ndk1::allocator<std::__ndk1::pair<std::__ndk1::basic_string<char, std::__ndk1::char_traits<char>, std::__ndk1::allocator<char> > const, std::__ndk1::basic_string<char, std::__ndk1::char_traits<char>, std::__ndk1::allocator<char> > > > > > > >&)
PUBLIC 19328 0 std::__ndk1::vector<std::__ndk1::basic_string<char, std::__ndk1::char_traits<char>, std::__ndk1::allocator<char> >, std::__ndk1::allocator<std::__ndk1::basic_string<char, std::__ndk1::char_traits<char>, std::__ndk1::allocator<char> > > >::vector[abi:ne180000](std::initializer_list<std::__ndk1::basic_string<char, std::__ndk1::char_traits<char>, std::__ndk1::allocator<char> > >)
PUBLIC 19480 0 std::__ndk1::vector<std::__ndk1::basic_string<char, std::__ndk1::char_traits<char>, std::__ndk1::allocator<char> >, std::__ndk1::allocator<std::__ndk1::basic_string<char, std::__ndk1::char_traits<char>, std::__ndk1::allocator<char> > > >::~vector[abi:ne180000]()
PUBLIC 194fc 0 ScrollGameLayer::pre20ColorToNew(std::__ndk1::basic_string<char, std::__ndk1::char_traits<char>, std::__ndk1::allocator<char> >, std::__ndk1::basic_string<char, std::__ndk1::char_traits<char>, std::__ndk1::allocator<char> >, std::__ndk1::map<std::__ndk1::basic_string<char, std::__ndk1::char_traits<char>, std::__ndk1::allocator<char> >, std::__ndk1::map<std::__ndk1::basic_string<char, std::__ndk1::char_traits<char>, std::__ndk1::allocator<char> >, std::__ndk1::basic_string<char, std::__ndk1::char_traits<char>, std::__ndk1::allocator<char> >, std::__ndk1::less<std::__ndk1::basic_string<char, std::__ndk1::char_traits<char>, std::__ndk1::allocator<char> > >, std::__ndk1::allocator<std::__ndk1::pair<std::__ndk1::basic_string<char, std::__ndk1::char_traits<char>, std::__ndk1::allocator<char> > const, std::__ndk1::basic_string<char, std::__ndk1::char_traits<char>, std::__ndk1::allocator<char> > > > >, std::__ndk1::less<std::__ndk1::basic_string<char, std::__ndk1::char_traits<char>, std::__ndk1::allocator<char> > >, std::__ndk1::allocator<std::__ndk1::pair<std::__ndk1::basic_string<char, std::__ndk1::char_traits<char>, std::__ndk1::allocator<char> > const, std::__ndk1::map<std::__ndk1::basic_string<char, std::__ndk1::char_traits<char>, std::__ndk1::allocator<char> >, std::__ndk1::basic_string<char, std::__ndk1::char_traits<char>, std::__ndk1::allocator<char> >, std::__ndk1::less<std::__ndk1::basic_string<char, std::__ndk1::char_traits<char>, std::__ndk1::allocator<char> > >, std::__ndk1::allocator<std::__ndk1::pair<std::__ndk1::basic_string<char, std::__ndk1::char_traits<char>, std::__ndk1::allocator<char> > const, std::__ndk1::basic_string<char, std::__ndk1::char_traits<char>, std::__ndk1::allocator<char> > > > > > > >&)
PUBLIC 19ddc 0 ScrollGameLayer::getColor(std::__ndk1::map<std::__ndk1::basic_string<char, std::__ndk1::char_traits<char>, std::__ndk1::allocator<char> >, std::__ndk1::map<std::__ndk1::basic_string<char, std::__ndk1::char_traits<char>, std::__ndk1::allocator<char> >, std::__ndk1::basic_string<char, std::__ndk1::char_traits<char>, std::__ndk1::allocator<char> >, std::__ndk1::less<std::__ndk1::basic_string<char, std::__ndk1::char_traits<char>, std::__ndk1::allocator<char> > >, std::__ndk1::allocator<std::__ndk1::pair<std::__ndk1::basic_string<char, std::__ndk1::char_traits<char>, std::__ndk1::allocator<char> > const, std::__ndk1::basic_string<char, std::__ndk1::char_traits<char>, std::__ndk1::allocator<char> > > > >, std::__ndk1::less<std::__ndk1::basic_string<char, std::__ndk1::char_traits<char>, std::__ndk1::allocator<char> > >, std::__ndk1::allocator<std::__ndk1::pair<std::__ndk1::basic_string<char, std::__ndk1::char_traits<char>, std::__ndk1::allocator<char> > const, std::__ndk1::map<std::__ndk1::basic_string<char, std::__ndk1::char_traits<char>, std::__ndk1::allocator<char> >, std::__ndk1::basic_string<char, std::__ndk1::char_traits<char>, std::__ndk1::allocator<char> >, std::__ndk1::less<std::__ndk1::basic_string<char, std::__ndk1::char_traits<char>, std::__ndk1::allocator<char> > >, std::__ndk1::allocator<std::__ndk1::pair<std::__ndk1::basic_string<char, std::__ndk1::char_traits<char>, std::__ndk1::allocator<char> > const, std::__ndk1::basic_string<char, std::__ndk1::char_traits<char>, std::__ndk1::allocator<char> > > > > > > >, std::__ndk1::basic_string<char, std::__ndk1::char_traits<char>, std::__ndk1::allocator<char> >, bool)
PUBLIC 1b1c0 0 ScrollGameLayer::createRepeatingSprite(std::__ndk1::basic_string<char, std::__ndk1::char_traits<char>, std::__ndk1::allocator<char> >, cocos2d::_ccColor3B)
PUBLIC 1b434 0 ScrollGameLayer::createLine(int, cocos2d::_ccColor3B, bool)
PUBLIC 1b724 0 ScrollGameLayer::scroll(float)
PUBLIC 1b94c 0 ScrollGameLayer::updateBG(LevelData)
PUBLIC 1c338 0 geode::utils::numFromString<unsigned char>(std::__ndk1::basic_string_view<char, std::__ndk1::char_traits<char> >, int)
PUBLIC 1c6fc 0 Utils::hsvToRgb(cocos2d::_ccHSVValue)
PUBLIC 1c894 0 geode::Mod::getSettingValue<double>(std::__ndk1::basic_string_view<char, std::__ndk1::char_traits<char> >) const
PUBLIC 1c9c4 0 ScrollGameLayer::getLevelData(GJGameLevel*)
PUBLIC 1ee60 0 cocos2d::CCCopying::copyWithZone(cocos2d::CCZone*)
PUBLIC 1ee68 0 ScrollGameLayer::~ScrollGameLayer()
PUBLIC 1ee8c 0 cocos2d::CCNodeRGBA::setOpacityModifyRGB(bool)
PUBLIC 1ee90 0 cocos2d::CCNodeRGBA::isOpacityModifyRGB()
PUBLIC 1ee98 0 {virtual override thunk({offset(-320)}, cocos2d::CCNodeRGBA::setOpacityModifyRGB(bool))}
PUBLIC 1ee9c 0 {virtual override thunk({offset(-320)}, cocos2d::CCNodeRGBA::isOpacityModifyRGB())}
PUBLIC 1eea4 0 std::__ndk1::basic_string<char, std::__ndk1::char_traits<char>, std::__ndk1::allocator<char> >::__throw_length_error[abi:ne180000]() const
PUBLIC 1eeb8 0 std::__ndk1::__throw_length_error[abi:ne180000](char const*)
PUBLIC 1ef08 0 std::length_error::length_error[abi:ne180000](char const*)
PUBLIC 1ef38 0 __clang_call_terminate
PUBLIC 1ef48 0 std::__ndk1::__throw_out_of_range[abi:ne180000](char const*)
PUBLIC 1ef98 0 std::out_of_range::out_of_range[abi:ne180000](char const*)
PUBLIC 1efc8 0 std::__ndk1::basic_string<char, std::__ndk1::char_traits<char>, std::__ndk1::allocator<char> >::__erase_external_with_move(unsigned long, unsigned long)
PUBLIC 1f04c 0 std::__ndk1::__tree<std::__ndk1::__value_type<std::__ndk1::basic_string<char, std::__ndk1::char_traits<char>, std::__ndk1::allocator<char> >, std::__ndk1::basic_string<char, std::__ndk1::char_traits<char>, std::__ndk1::allocator<char> > >, std::__ndk1::__map_value_compare<std::__ndk1::basic_string<char, std::__ndk1::char_traits<char>, std::__ndk1::allocator<char> >, std::__ndk1::__value_type<std::__ndk1::basic_string<char, std::__ndk1::char_traits<char>, std::__ndk1::allocator<char> >, std::__ndk1::basic_string<char, std::__ndk1::char_traits<char>, std::__ndk1::allocator<char> > >, std::__ndk1::less<std::__ndk1::basic_string<char, std::__ndk1::char_traits<char>, std::__ndk1::allocator<char> > >, true>, std::__ndk1::allocator<std::__ndk1::__value_type<std::__ndk1::basic_string<char, std::__ndk1::char_traits<char>, std::__ndk1::allocator<char> >, std::__ndk1::basic_string<char, std::__ndk1::char_traits<char>, std::__ndk1::allocator<char> > > > >::__emplace_unique_key_args<std::__ndk1::basic_string<char, std::__ndk1::char_traits<char>, std::__ndk1::allocator<char> >, std::__ndk1::piecewise_construct_t const&, std::__ndk1::tuple<std::__ndk1::basic_string<char, std::__ndk1::char_traits<char>, std::__ndk1::allocator<char> > const&>, std::__ndk1::tuple<> >(std::__ndk1::basic_string<char, std::__ndk1::char_traits<char>, std::__ndk1::allocator<char> > const&, std::__ndk1::piecewise_construct_t const&, std::__ndk1::tuple<std::__ndk1::basic_string<char, std::__ndk1::char_traits<char>, std::__ndk1::allocator<char> > const&>, std::__ndk1::tuple<>)
PUBLIC 1f224 0 std::__ndk1::unique_ptr<std::__ndk1::__tree_node<std::__ndk1::__value_type<std::__ndk1::basic_string<char, std::__ndk1::char_traits<char>, std::__ndk1::allocator<char> >, std::__ndk1::basic_string<char, std::__ndk1::char_traits<char>, std::__ndk1::allocator<char> > >, void*>, std::__ndk1::__tree_node_destructor<std::__ndk1::allocator<std::__ndk1::__tree_node<std::__ndk1::__value_type<std::__ndk1::basic_string<char, std::__ndk1::char_traits<char>, std::__ndk1::allocator<char> >, std::__ndk1::basic_string<char, std::__ndk1::char_traits<char>, std::__ndk1::allocator<char> > >, void*> > > >::~unique_ptr[abi:ne180000]()
PUBLIC 1f280 0 std::__ndk1::__tree_balance_after_insert[abi:ne180000]<std::__ndk1::__tree_node_base<void*>*>(std::__ndk1::__tree_node_base<void*>*, std::__ndk1::__tree_node_base<void*>*)
PUBLIC 1f430 0 std::__ndk1::basic_string<char, std::__ndk1::char_traits<char>, std::__ndk1::allocator<char> >::__init_copy_ctor_external(char const*, unsigned long)
PUBLIC 1f4b0 0 std::__ndk1::__exception_guard_exceptions<std::__ndk1::vector<std::__ndk1::basic_string<char, std::__ndk1::char_traits<char>, std::__ndk1::allocator<char> >, std::__ndk1::allocator<std::__ndk1::basic_string<char, std::__ndk1::char_traits<char>, std::__ndk1::allocator<char> > > >::__destroy_vector>::~__exception_guard_exceptions[abi:ne180000]()
PUBLIC 1f53c 0 std::__ndk1::vector<std::__ndk1::basic_string<char, std::__ndk1::char_traits<char>, std::__ndk1::allocator<char> >, std::__ndk1::allocator<std::__ndk1::basic_string<char, std::__ndk1::char_traits<char>, std::__ndk1::allocator<char> > > >::__throw_length_error[abi:ne180000]() const
PUBLIC 1f550 0 std::__ndk1::__exception_guard_exceptions<std::__ndk1::_AllocatorDestroyRangeReverse<std::__ndk1::allocator<std::__ndk1::basic_string<char, std::__ndk1::char_traits<char>, std::__ndk1::allocator<char> > >, std::__ndk1::basic_string<char, std::__ndk1::char_traits<char>, std::__ndk1::allocator<char> >*> >::~__exception_guard_exceptions[abi:ne180000]()
PUBLIC 1f5b0 0 std::__ndk1::__variant_detail::__visitation::__base::__dispatcher<(unsigned long)0>::__dispatch[abi:ne180000]<std::__ndk1::__variant_detail::__dtor<std::__ndk1::__variant_detail::__traits<int, std::__ndk1::basic_string<char, std::__ndk1::char_traits<char>, std::__ndk1::allocator<char> > >, (std::__ndk1::__variant_detail::_Trait)1>::__destroy[abi:ne180000]()::{lambda(auto:1&)#1}, std::__ndk1::__variant_detail::__base<(std::__ndk1::__variant_detail::__traits<int, std::__ndk1::basic_string<char, std::__ndk1::char_traits<char>, std::__ndk1::allocator<char> > >)1, int, std::__ndk1::allocator<char> >&>(std::__ndk1::__variant_detail::__dtor<std::__ndk1::__variant_detail::__traits<int, std::__ndk1::basic_string<char, std::__ndk1::char_traits<char>, std::__ndk1::allocator<char> > >, (std::__ndk1::__variant_detail::_Trait)1>, std::__ndk1::__variant_detail::__base<(std::__ndk1::__variant_detail::__traits<int, std::__ndk1::basic_string<char, std::__ndk1::char_traits<char>, std::__ndk1::allocator<char> > >)1, int, std::__ndk1::allocator<char> >&)
PUBLIC 1f5b4 0 std::__ndk1::__variant_detail::__visitation::__base::__dispatcher<(unsigned long)1>::__dispatch[abi:ne180000]<std::__ndk1::__variant_detail::__dtor<std::__ndk1::__variant_detail::__traits<int, std::__ndk1::basic_string<char, std::__ndk1::char_traits<char>, std::__ndk1::allocator<char> > >, (std::__ndk1::__variant_detail::_Trait)1>::__destroy[abi:ne180000]()::{lambda(auto:1&)#1}, std::__ndk1::__variant_detail::__base<(std::__ndk1::__variant_detail::__traits<int, std::__ndk1::basic_string<char, std::__ndk1::char_traits<char>, std::__ndk1::allocator<char> > >)1, int, std::__ndk1::allocator<char> >&>(std::__ndk1::__variant_detail::__dtor<std::__ndk1::__variant_detail::__traits<int, std::__ndk1::basic_string<char, std::__ndk1::char_traits<char>, std::__ndk1::allocator<char> > >, (std::__ndk1::__variant_detail::_Trait)1>, std::__ndk1::__variant_detail::__base<(std::__ndk1::__variant_detail::__traits<int, std::__ndk1::basic_string<char, std::__ndk1::char_traits<char>, std::__ndk1::allocator<char> > >)1, int, std::__ndk1::allocator<char> >&)
PUBLIC 1f5c8 0 cocos2d::CCFloat::~CCFloat()
PUBLIC 1f5ec 0 cocos2d::CCFloat::acceptVisitor(cocos2d::CCDataVisitor&)
PUBLIC 1f604 0 cocos2d::CCObject::update(float)
PUBLIC 1f608 0 std::__ndk1::__variant_detail::__visitation::__base::__dispatcher<(unsigned long)0>::__dispatch[abi:ne180000]<std::__ndk1::__variant_detail::__dtor<std::__ndk1::__variant_detail::__traits<unsigned char, std::__ndk1::basic_string<char, std::__ndk1::char_traits<char>, std::__ndk1::allocator<char> > >, (std::__ndk1::__variant_detail::_Trait)1>::__destroy[abi:ne180000]()::{lambda(auto:1&)#1}, std::__ndk1::__variant_detail::__base<(std::__ndk1::__variant_detail::__traits<unsigned char, std::__ndk1::basic_string<char, std::__ndk1::char_traits<char>, std::__ndk1::allocator<char> > >)1, unsigned char, std::__ndk1::allocator<char> >&>(std::__ndk1::__variant_detail::__dtor<std::__ndk1::__variant_detail::__traits<unsigned char, std::__ndk1::basic_string<char, std::__ndk1::char_traits<char>, std::__ndk1::allocator<char> > >, (std::__ndk1::__variant_detail::_Trait)1>, std::__ndk1::__variant_detail::__base<(std::__ndk1::__variant_detail::__traits<unsigned char, std::__ndk1::basic_string<char, std::__ndk1::char_traits<char>, std::__ndk1::allocator<char> > >)1, unsigned char, std::__ndk1::allocator<char> >&)
PUBLIC 1f60c 0 std::__ndk1::__variant_detail::__visitation::__base::__dispatcher<(unsigned long)1>::__dispatch[abi:ne180000]<std::__ndk1::__variant_detail::__dtor<std::__ndk1::__variant_detail::__traits<unsigned char, std::__ndk1::basic_string<char, std::__ndk1::char_traits<char>, std::__ndk1::allocator<char> > >, (std::__ndk1::__variant_detail::_Trait)1>::__destroy[abi:ne180000]()::{lambda(auto:1&)#1}, std::__ndk1::__variant_detail::__base<(std::__ndk1::__variant_detail::__traits<unsigned char, std::__ndk1::basic_string<char, std::__ndk1::char_traits<char>, std::__ndk1::allocator<char> > >)1, unsigned char, std::__ndk1::allocator<char> >&>(std::__ndk1::__variant_detail::__dtor<std::__ndk1::__variant_detail::__traits<unsigned char, std::__ndk1::basic_string<char, std::__ndk1::char_traits<char>, std::__ndk1::allocator<char> > >, (std::__ndk1::__variant_detail::_Trait)1>, std::__ndk1::__variant_detail::__base<(std::__ndk1::__variant_detail::__traits<unsigned char, std::__ndk1::basic_string<char, std::__ndk1::char_traits<char>, std::__ndk1::allocator<char> > >)1, unsigned char, std::__ndk1::allocator<char> >&)
PUBLIC 1f620 0 std::__ndk1::vector<std::__ndk1::basic_string<char, std::__ndk1::char_traits<char>, std::__ndk1::allocator<char> >, std::__ndk1::allocator<std::__ndk1::basic_string<char, std::__ndk1::char_traits<char>, std::__ndk1::allocator<char> > > >::__throw_out_of_range[abi:ne180000]() const
PUBLIC 1f634 0 std::__ndk1::__variant_detail::__visitation::__base::__dispatcher<(unsigned long)0>::__dispatch[abi:ne180000]<std::__ndk1::__variant_detail::__dtor<std::__ndk1::__variant_detail::__traits<float, std::__ndk1::basic_string<char, std::__ndk1::char_traits<char>, std::__ndk1::allocator<char> > >, (std::__ndk1::__variant_detail::_Trait)1>::__destroy[abi:ne180000]()::{lambda(auto:1&)#1}, std::__ndk1::__variant_detail::__base<(std::__ndk1::__variant_detail::__traits<float, std::__ndk1::basic_string<char, std::__ndk1::char_traits<char>, std::__ndk1::allocator<char> > >)1, float, std::__ndk1::allocator<char> >&>(std::__ndk1::__variant_detail::__dtor<std::__ndk1::__variant_detail::__traits<float, std::__ndk1::basic_string<char, std::__ndk1::char_traits<char>, std::__ndk1::allocator<char> > >, (std::__ndk1::__variant_detail::_Trait)1>, std::__ndk1::__variant_detail::__base<(std::__ndk1::__variant_detail::__traits<float, std::__ndk1::basic_string<char, std::__ndk1::char_traits<char>, std::__ndk1::allocator<char> > >)1, float, std::__ndk1::allocator<char> >&)
PUBLIC 1f638 0 std::__ndk1::__variant_detail::__visitation::__base::__dispatcher<(unsigned long)1>::__dispatch[abi:ne180000]<std::__ndk1::__variant_detail::__dtor<std::__ndk1::__variant_detail::__traits<float, std::__ndk1::basic_string<char, std::__ndk1::char_traits<char>, std::__ndk1::allocator<char> > >, (std::__ndk1::__variant_detail::_Trait)1>::__destroy[abi:ne180000]()::{lambda(auto:1&)#1}, std::__ndk1::__variant_detail::__base<(std::__ndk1::__variant_detail::__traits<float, std::__ndk1::basic_string<char, std::__ndk1::char_traits<char>, std::__ndk1::allocator<char> > >)1, float, std::__ndk1::allocator<char> >&>(std::__ndk1::__variant_detail::__dtor<std::__ndk1::__variant_detail::__traits<float, std::__ndk1::basic_string<char, std::__ndk1::char_traits<char>, std::__ndk1::allocator<char> > >, (std::__ndk1::__variant_detail::_Trait)1>, std::__ndk1::__variant_detail::__base<(std::__ndk1::__variant_detail::__traits<float, std::__ndk1::basic_string<char, std::__ndk1::char_traits<char>, std::__ndk1::allocator<char> > >)1, float, std::__ndk1::allocator<char> >&)
PUBLIC 1f64c 0 std::__ndk1::basic_string<char, std::__ndk1::char_traits<char>, std::__ndk1::allocator<char> >::__assign_no_alias<true>(char const*, unsigned long)
PUBLIC 1f6f8 0 std::__ndk1::basic_string<char, std::__ndk1::char_traits<char>, std::__ndk1::allocator<char> >::__assign_no_alias<false>(char const*, unsigned long)
PUBLIC 1f808 0 std::__ndk1::__tree<std::__ndk1::__value_type<std::__ndk1::basic_string<char, std::__ndk1::char_traits<char>, std::__ndk1::allocator<char> >, std::__ndk1::basic_string<char, std::__ndk1::char_traits<char>, std::__ndk1::allocator<char> > >, std::__ndk1::__map_value_compare<std::__ndk1::basic_string<char, std::__ndk1::char_traits<char>, std::__ndk1::allocator<char> >, std::__ndk1::__value_type<std::__ndk1::basic_string<char, std::__ndk1::char_traits<char>, std::__ndk1::allocator<char> >, std::__ndk1::basic_string<char, std::__ndk1::char_traits<char>, std::__ndk1::allocator<char> > >, std::__ndk1::less<std::__ndk1::basic_string<char, std::__ndk1::char_traits<char>, std::__ndk1::allocator<char> > >, true>, std::__ndk1::allocator<std::__ndk1::__value_type<std::__ndk1::basic_string<char, std::__ndk1::char_traits<char>, std::__ndk1::allocator<char> >, std::__ndk1::basic_string<char, std::__ndk1::char_traits<char>, std::__ndk1::allocator<char> > > > >::destroy(std::__ndk1::__tree_node<std::__ndk1::__value_type<std::__ndk1::basic_string<char, std::__ndk1::char_traits<char>, std::__ndk1::allocator<char> >, std::__ndk1::basic_string<char, std::__ndk1::char_traits<char>, std::__ndk1::allocator<char> > >, void*>*)
PUBLIC 1f878 0 geode::cast::traverseTypeinfoFor(void*, geode::cast::ClassTypeinfoType const*, char const*)
PUBLIC 1f97c 0 std::__ndk1::__tree<std::__ndk1::__value_type<std::__ndk1::basic_string<char, std::__ndk1::char_traits<char>, std::__ndk1::allocator<char> >, std::__ndk1::basic_string<char, std::__ndk1::char_traits<char>, std::__ndk1::allocator<char> > >, std::__ndk1::__map_value_compare<std::__ndk1::basic_string<char, std::__ndk1::char_traits<char>, std::__ndk1::allocator<char> >, std::__ndk1::__value_type<std::__ndk1::basic_string<char, std::__ndk1::char_traits<char>, std::__ndk1::allocator<char> >, std::__ndk1::basic_string<char, std::__ndk1::char_traits<char>, std::__ndk1::allocator<char> > >, std::__ndk1::less<std::__ndk1::basic_string<char, std::__ndk1::char_traits<char>, std::__ndk1::allocator<char> > >, true>, std::__ndk1::allocator<std::__ndk1::__value_type<std::__ndk1::basic_string<char, std::__ndk1::char_traits<char>, std::__ndk1::allocator<char> >, std::__ndk1::basic_string<char, std::__ndk1::char_traits<char>, std::__ndk1::allocator<char> > > > >::__emplace_unique_key_args<std::__ndk1::basic_string<char, std::__ndk1::char_traits<char>, std::__ndk1::allocator<char> >, std::__ndk1::piecewise_construct_t const&, std::__ndk1::tuple<std::__ndk1::basic_string<char, std::__ndk1::char_traits<char>, std::__ndk1::allocator<char> >&&>, std::__ndk1::tuple<> >(std::__ndk1::basic_string<char, std::__ndk1::char_traits<char>, std::__ndk1::allocator<char> > const&, std::__ndk1::piecewise_construct_t const&, std::__ndk1::tuple<std::__ndk1::basic_string<char, std::__ndk1::char_traits<char>, std::__ndk1::allocator<char> >&&>, std::__ndk1::tuple<>)
PUBLIC 1fae4 0 std::__ndk1::__tree<std::__ndk1::__value_type<std::__ndk1::basic_string<char, std::__ndk1::char_traits<char>, std::__ndk1::allocator<char> >, std::__ndk1::map<std::__ndk1::basic_string<char, std::__ndk1::char_traits<char>, std::__ndk1::allocator<char> >, std::__ndk1::basic_string<char, std::__ndk1::char_traits<char>, std::__ndk1::allocator<char> >, std::__ndk1::less<std::__ndk1::basic_string<char, std::__ndk1::char_traits<char>, std::__ndk1::allocator<char> > >, std::__ndk1::allocator<std::__ndk1::pair<std::__ndk1::basic_string<char, std::__ndk1::char_traits<char>, std::__ndk1::allocator<char> > const, std::__ndk1::basic_string<char, std::__ndk1::char_traits<char>, std::__ndk1::allocator<char> > > > > >, std::__ndk1::__map_value_compare<std::__ndk1::basic_string<char, std::__ndk1::char_traits<char>, std::__ndk1::allocator<char> >, std::__ndk1::__value_type<std::__ndk1::basic_string<char, std::__ndk1::char_traits<char>, std::__ndk1::allocator<char> >, std::__ndk1::map<std::__ndk1::basic_string<char, std::__ndk1::char_traits<char>, std::__ndk1::allocator<char> >, std::__ndk1::basic_string<char, std::__ndk1::char_traits<char>, std::__ndk1::allocator<char> >, std::__ndk1::less<std::__ndk1::basic_string<char, std::__ndk1::char_traits<char>, std::__ndk1::allocator<char> > >, std::__ndk1::allocator<std::__ndk1::pair<std::__ndk1::basic_string<char, std::__ndk1::char_traits<char>, std::__ndk1::allocator<char> > const, std::__ndk1::basic_string<char, std::__ndk1::char_traits<char>, std::__ndk1::allocator<char> > > > > >, std::__ndk1::less<std::__ndk1::basic_string<char, std::__ndk1::char_traits<char>, std::__ndk1::allocator<char> > >, true>, std::__ndk1::allocator<std::__ndk1::__value_type<std::__ndk1::basic_string<char, std::__ndk1::char_traits<char>, std::__ndk1::allocator<char> >, std::__ndk1::map<std::__ndk1::basic_string<char, std::__ndk1::char_traits<char>, std::__ndk1::allocator<char> >, std::__ndk1::basic_string<char, std::__ndk1::char_traits<char>, std::__ndk1::allocator<char> >, std::__ndk1::less<std::__ndk1::basic_string<char, std::__ndk1::char_traits<char>, std::__ndk1::allocator<char> > >, std::__ndk1::allocator<std::__ndk1::pair<std::__ndk1::basic_string<char, std::__ndk1::char_traits<char>, std::__ndk1::allocator<char> > const, std::__ndk1::basic_string<char, std::__ndk1::char_traits<char>, std::__ndk1::allocator<char> > > > > > > >::destroy(std::__ndk1::__tree_node<std::__ndk1::__value_type<std::__ndk1::basic_string<char, std::__ndk1::char_traits<char>, std::__ndk1::allocator<char> >, std::__ndk1::map<std::__ndk1::basic_string<char, std::__ndk1::char_traits<char>, std::__ndk1::allocator<char> >, std::__ndk1::basic_string<char, std::__ndk1::char_traits<char>, std::__ndk1::allocator<char> >, std::__ndk1::less<std::__ndk1::basic_string<char, std::__ndk1::char_traits<char>, std::__ndk1::allocator<char> > >, std::__ndk1::allocator<std::__ndk1::pair<std::__ndk1::basic_string<char, std::__ndk1::char_traits<char>, std::__ndk1::allocator<char> > const, std::__ndk1::basic_string<char, std::__ndk1::char_traits<char>, std::__ndk1::allocator<char> > > > > >, void*>*)
PUBLIC 1fb34 0 std::__ndk1::__tree<std::__ndk1::__value_type<std::__ndk1::basic_string<char, std::__ndk1::char_traits<char>, std::__ndk1::allocator<char> >, std::__ndk1::map<std::__ndk1::basic_string<char, std::__ndk1::char_traits<char>, std::__ndk1::allocator<char> >, std::__ndk1::basic_string<char, std::__ndk1::char_traits<char>, std::__ndk1::allocator<char> >, std::__ndk1::less<std::__ndk1::basic_string<char, std::__ndk1::char_traits<char>, std::__ndk1::allocator<char> > >, std::__ndk1::allocator<std::__ndk1::pair<std::__ndk1::basic_string<char, std::__ndk1::char_traits<char>, std::__ndk1::allocator<char> > const, std::__ndk1::basic_string<char, std::__ndk1::char_traits<char>, std::__ndk1::allocator<char> > > > > >, std::__ndk1::__map_value_compare<std::__ndk1::basic_string<char, std::__ndk1::char_traits<char>, std::__ndk1::allocator<char> >, std::__ndk1::__value_type<std::__ndk1::basic_string<char, std::__ndk1::char_traits<char>, std::__ndk1::allocator<char> >, std::__ndk1::map<std::__ndk1::basic_string<char, std::__ndk1::char_traits<char>, std::__ndk1::allocator<char> >, std::__ndk1::basic_string<char, std::__ndk1::char_traits<char>, std::__ndk1::allocator<char> >, std::__ndk1::less<std::__ndk1::basic_string<char, std::__ndk1::char_traits<char>, std::__ndk1::allocator<char> > >, std::__ndk1::allocator<std::__ndk1::pair<std::__ndk1::basic_string<char, std::__ndk1::char_traits<char>, std::__ndk1::allocator<char> > const, std::__ndk1::basic_string<char, std::__ndk1::char_traits<char>, std::__ndk1::allocator<char> > > > > >, std::__ndk1::less<std::__ndk1::basic_string<char, std::__ndk1::char_traits<char>, std::__ndk1::allocator<char> > >, true>, std::__ndk1::allocator<std::__ndk1::__value_type<std::__ndk1::basic_string<char, std::__ndk1::char_traits<char>, std::__ndk1::allocator<char> >, std::__ndk1::map<std::__ndk1::basic_string<char, std::__ndk1::char_traits<char>, std::__ndk1::allocator<char> >, std::__ndk1::basic_string<char, std::__ndk1::char_traits<char>, std::__ndk1::allocator<char> >, std::__ndk1::less<std::__ndk1::basic_string<char, std::__ndk1::char_traits<char>, std::__ndk1::allocator<char> > >, std::__ndk1::allocator<std::__ndk1::pair<std::__ndk1::basic_string<char, std::__ndk1::char_traits<char>, std::__ndk1::allocator<char> > const, std::__ndk1::basic_string<char, std::__ndk1::char_traits<char>, std::__ndk1::allocator<char> > > > > > > >::__emplace_unique_key_args<std::__ndk1::basic_string<char, std::__ndk1::char_traits<char>, std::__ndk1::allocator<char> >, std::__ndk1::piecewise_construct_t const&, std::__ndk1::tuple<std::__ndk1::basic_string<char, std::__ndk1::char_traits<char>, std::__ndk1::allocator<char> > const&>, std::__ndk1::tuple<> >(std::__ndk1::basic_string<char, std::__ndk1::char_traits<char>, std::__ndk1::allocator<char> > const&, std::__ndk1::piecewise_construct_t const&, std::__ndk1::tuple<std::__ndk1::basic_string<char, std::__ndk1::char_traits<char>, std::__ndk1::allocator<char> > const&>, std::__ndk1::tuple<>)
PUBLIC 1fd14 0 std::__ndk1::unique_ptr<std::__ndk1::__tree_node<std::__ndk1::__value_type<std::__ndk1::basic_string<char, std::__ndk1::char_traits<char>, std::__ndk1::allocator<char> >, std::__ndk1::map<std::__ndk1::basic_string<char, std::__ndk1::char_traits<char>, std::__ndk1::allocator<char> >, std::__ndk1::basic_string<char, std::__ndk1::char_traits<char>, std::__ndk1::allocator<char> >, std::__ndk1::less<std::__ndk1::basic_string<char, std::__ndk1::char_traits<char>, std::__ndk1::allocator<char> > >, std::__ndk1::allocator<std::__ndk1::pair<std::__ndk1::basic_string<char, std::__ndk1::char_traits<char>, std::__ndk1::allocator<char> > const, std::__ndk1::basic_string<char, std::__ndk1::char_traits<char>, std::__ndk1::allocator<char> > > > > >, void*>, std::__ndk1::__tree_node_destructor<std::__ndk1::allocator<std::__ndk1::__tree_node<std::__ndk1::__value_type<std::__ndk1::basic_string<char, std::__ndk1::char_traits<char>, std::__ndk1::allocator<char> >, std::__ndk1::map<std::__ndk1::basic_string<char, std::__ndk1::char_traits<char>, std::__ndk1::allocator<char> >, std::__ndk1::basic_string<char, std::__ndk1::char_traits<char>, std::__ndk1::allocator<char> >, std::__ndk1::less<std::__ndk1::basic_string<char, std::__ndk1::char_traits<char>, std::__ndk1::allocator<char> > >, std::__ndk1::allocator<std::__ndk1::pair<std::__ndk1::basic_string<char, std::__ndk1::char_traits<char>, std::__ndk1::allocator<char> > const, std::__ndk1::basic_string<char, std::__ndk1::char_traits<char>, std::__ndk1::allocator<char> > > > > >, void*> > > >::~unique_ptr[abi:ne180000]()
PUBLIC 1fd68 0 std::__ndk1::__tree<std::__ndk1::__value_type<std::__ndk1::basic_string<char, std::__ndk1::char_traits<char>, std::__ndk1::allocator<char> >, std::__ndk1::basic_string<char, std::__ndk1::char_traits<char>, std::__ndk1::allocator<char> > >, std::__ndk1::__map_value_compare<std::__ndk1::basic_string<char, std::__ndk1::char_traits<char>, std::__ndk1::allocator<char> >, std::__ndk1::__value_type<std::__ndk1::basic_string<char, std::__ndk1::char_traits<char>, std::__ndk1::allocator<char> >, std::__ndk1::basic_string<char, std::__ndk1::char_traits<char>, std::__ndk1::allocator<char> > >, std::__ndk1::less<std::__ndk1::basic_string<char, std::__ndk1::char_traits<char>, std::__ndk1::allocator<char> > >, true>, std::__ndk1::allocator<std::__ndk1::__value_type<std::__ndk1::basic_string<char, std::__ndk1::char_traits<char>, std::__ndk1::allocator<char> >, std::__ndk1::basic_string<char, std::__ndk1::char_traits<char>, std::__ndk1::allocator<char> > > > >::__assign_multi<std::__ndk1::__tree_const_iterator<std::__ndk1::__value_type<std::__ndk1::basic_string<char, std::__ndk1::char_traits<char>, std::__ndk1::allocator<char> >, std::__ndk1::basic_string<char, std::__ndk1::char_traits<char>, std::__ndk1::allocator<char> > >, std::__ndk1::__tree_node<std::__ndk1::__value_type<std::__ndk1::basic_string<char, std::__ndk1::char_traits<char>, std::__ndk1::allocator<char> >, std::__ndk1::basic_string<char, std::__ndk1::char_traits<char>, std::__ndk1::allocator<char> > >, void*>*, long> >(std::__ndk1::__tree_const_iterator<std::__ndk1::__value_type<std::__ndk1::basic_string<char, std::__ndk1::char_traits<char>, std::__ndk1::allocator<char> >, std::__ndk1::basic_string<char, std::__ndk1::char_traits<char>, std::__ndk1::allocator<char> > >, std::__ndk1::__tree_node<std::__ndk1::__value_type<std::__ndk1::basic_string<char, std::__ndk1::char_traits<char>, std::__ndk1::allocator<char> >, std::__ndk1::basic_string<char, std::__ndk1::char_traits<char>, std::__ndk1::allocator<char> > >, void*>*, long>, std::__ndk1::__tree_const_iterator<std::__ndk1::__value_type<std::__ndk1::basic_string<char, std::__ndk1::char_traits<char>, std::__ndk1::allocator<char> >, std::__ndk1::basic_string<char, std::__ndk1::char_traits<char>, std::__ndk1::allocator<char> > >, std::__ndk1::__tree_node<std::__ndk1::__value_type<std::__ndk1::basic_string<char, std::__ndk1::char_traits<char>, std::__ndk1::allocator<char> >, std::__ndk1::basic_string<char, std::__ndk1::char_traits<char>, std::__ndk1::allocator<char> > >, void*>*, long>)
PUBLIC 20258 0 std::__ndk1::__tree<std::__ndk1::__value_type<std::__ndk1::basic_string<char, std::__ndk1::char_traits<char>, std::__ndk1::allocator<char> >, std::__ndk1::basic_string<char, std::__ndk1::char_traits<char>, std::__ndk1::allocator<char> > >, std::__ndk1::__map_value_compare<std::__ndk1::basic_string<char, std::__ndk1::char_traits<char>, std::__ndk1::allocator<char> >, std::__ndk1::__value_type<std::__ndk1::basic_string<char, std::__ndk1::char_traits<char>, std::__ndk1::allocator<char> >, std::__ndk1::basic_string<char, std::__ndk1::char_traits<char>, std::__ndk1::allocator<char> > >, std::__ndk1::less<std::__ndk1::basic_string<char, std::__ndk1::char_traits<char>, std::__ndk1::allocator<char> > >, true>, std::__ndk1::allocator<std::__ndk1::__value_type<std::__ndk1::basic_string<char, std::__ndk1::char_traits<char>, std::__ndk1::allocator<char> >, std::__ndk1::basic_string<char, std::__ndk1::char_traits<char>, std::__ndk1::allocator<char> > > > >::_DetachedTreeCache::~_DetachedTreeCache[abi:ne180000]()
PUBLIC 202a8 0 std::__ndk1::__tree<std::__ndk1::__value_type<std::__ndk1::basic_string<char, std::__ndk1::char_traits<char>, std::__ndk1::allocator<char> >, std::__ndk1::basic_string<char, std::__ndk1::char_traits<char>, std::__ndk1::allocator<char> > >, std::__ndk1::__map_value_compare<std::__ndk1::basic_string<char, std::__ndk1::char_traits<char>, std::__ndk1::allocator<char> >, std::__ndk1::__value_type<std::__ndk1::basic_string<char, std::__ndk1::char_traits<char>, std::__ndk1::allocator<char> >, std::__ndk1::basic_string<char, std::__ndk1::char_traits<char>, std::__ndk1::allocator<char> > >, std::__ndk1::less<std::__ndk1::basic_string<char, std::__ndk1::char_traits<char>, std::__ndk1::allocator<char> > >, true>, std::__ndk1::allocator<std::__ndk1::__value_type<std::__ndk1::basic_string<char, std::__ndk1::char_traits<char>, std::__ndk1::allocator<char> >, std::__ndk1::basic_string<char, std::__ndk1::char_traits<char>, std::__ndk1::allocator<char> > > > >::__construct_node<std::__ndk1::pair<std::__ndk1::basic_string<char, std::__ndk1::char_traits<char>, std::__ndk1::allocator<char> > const, std::__ndk1::basic_string<char, std::__ndk1::char_traits<char>, std::__ndk1::allocator<char> > > const&>(std::__ndk1::pair<std::__ndk1::basic_string<char, std::__ndk1::char_traits<char>, std::__ndk1::allocator<char> > const, std::__ndk1::basic_string<char, std::__ndk1::char_traits<char>, std::__ndk1::allocator<char> > > const&)
PUBLIC 20390 0 std::__ndk1::map<std::__ndk1::basic_string<char, std::__ndk1::char_traits<char>, std::__ndk1::allocator<char> >, std::__ndk1::map<std::__ndk1::basic_string<char, std::__ndk1::char_traits<char>, std::__ndk1::allocator<char> >, std::__ndk1::basic_string<char, std::__ndk1::char_traits<char>, std::__ndk1::allocator<char> >, std::__ndk1::less<std::__ndk1::basic_string<char, std::__ndk1::char_traits<char>, std::__ndk1::allocator<char> > >, std::__ndk1::allocator<std::__ndk1::pair<std::__ndk1::basic_string<char, std::__ndk1::char_traits<char>, std::__ndk1::allocator<char> > const, std::__ndk1::basic_string<char, std::__ndk1::char_traits<char>, std::__ndk1::allocator<char> > > > >, std::__ndk1::less<std::__ndk1::basic_string<char, std::__ndk1::char_traits<char>, std::__ndk1::allocator<char> > >, std::__ndk1::allocator<std::__ndk1::pair<std::__ndk1::basic_string<char, std::__ndk1::char_traits<char>, std::__ndk1::allocator<char> > const, std::__ndk1::map<std::__ndk1::basic_string<char, std::__ndk1::char_traits<char>, std::__ndk1::allocator<char> >, std::__ndk1::basic_string<char, std::__ndk1::char_traits<char>, std::__ndk1::allocator<char> >, std::__ndk1::less<std::__ndk1::basic_string<char, std::__ndk1::char_traits<char>, std::__ndk1::allocator<char> > >, std::__ndk1::allocator<std::__ndk1::pair<std::__ndk1::basic_string<char, std::__ndk1::char_traits<char>, std::__ndk1::allocator<char> > const, std::__ndk1::basic_string<char, std::__ndk1::char_traits<char>, std::__ndk1::allocator<char> > > > > > > >::insert[abi:ne180000]<std::__ndk1::__map_const_iterator<std::__ndk1::__tree_const_iterator<std::__ndk1::__value_type<std::__ndk1::basic_string<char, std::__ndk1::char_traits<char>, std::__ndk1::allocator<char> >, std::__ndk1::map<std::__ndk1::basic_string<char, std::__ndk1::char_traits<char>, std::__ndk1::allocator<char> >, std::__ndk1::basic_string<char, std::__ndk1::char_traits<char>, std::__ndk1::allocator<char> >, std::__ndk1::less<std::__ndk1::basic_string<char, std::__ndk1::char_traits<char>, std::__ndk1::allocator<char> > >, std::__ndk1::allocator<std::__ndk1::pair<std::__ndk1::basic_string<char, std::__ndk1::char_traits<char>, std::__ndk1::allocator<char> > const, std::__ndk1::basic_string<char, std::__ndk1::char_traits<char>, std::__ndk1::allocator<char> > > > > >, std::__ndk1::__tree_node<std::__ndk1::__value_type, void*>*, long> > >(std::__ndk1::__map_const_iterator<std::__ndk1::__tree_const_iterator<std::__ndk1::__value_type<std::__ndk1::basic_string<char, std::__ndk1::char_traits<char>, std::__ndk1::allocator<char> >, std::__ndk1::map<std::__ndk1::basic_string<char, std::__ndk1::char_traits<char>, std::__ndk1::allocator<char> >, std::__ndk1::basic_string<char, std::__ndk1::char_traits<char>, std::__ndk1::allocator<char> >, std::__ndk1::less<std::__ndk1::basic_string<char, std::__ndk1::char_traits<char>, std::__ndk1::allocator<char> > >, std::__ndk1::allocator<std::__ndk1::pair<std::__ndk1::basic_string<char, std::__ndk1::char_traits<char>, std::__ndk1::allocator<char> > const, std::__ndk1::basic_string<char, std::__ndk1::char_traits<char>, std::__ndk1::allocator<char> > > > > >, std::__ndk1::__tree_node<std::__ndk1::__value_type, void*>*, long> >, std::__ndk1::__map_const_iterator<std::__ndk1::__tree_const_iterator<std::__ndk1::__value_type<std::__ndk1::basic_string<char, std::__ndk1::char_traits<char>, std::__ndk1::allocator<char> >, std::__ndk1::map<std::__ndk1::basic_string<char, std::__ndk1::char_traits<char>, std::__ndk1::allocator<char> >, std::__ndk1::basic_string<char, std::__ndk1::char_traits<char>, std::__ndk1::allocator<char> >, std::__ndk1::less<std::__ndk1::basic_string<char, std::__ndk1::char_traits<char>, std::__ndk1::allocator<char> > >, std::__ndk1::allocator<std::__ndk1::pair<std::__ndk1::basic_string<char, std::__ndk1::char_traits<char>, std::__ndk1::allocator<char> > const, std::__ndk1::basic_string<char, std::__ndk1::char_traits<char>, std::__ndk1::allocator<char> > > > > >, std::__ndk1::__tree_node<std::__ndk1::__value_type, void*>*, long> >)
PUBLIC 20694 0 std::__ndk1::__tree<std::__ndk1::__value_type<std::__ndk1::basic_string<char, std::__ndk1::char_traits<char>, std::__ndk1::allocator<char> >, std::__ndk1::map<std::__ndk1::basic_string<char, std::__ndk1::char_traits<char>, std::__ndk1::allocator<char> >, std::__ndk1::basic_string<char, std::__ndk1::char_traits<char>, std::__ndk1::allocator<char> >, std::__ndk1::less<std::__ndk1::basic_string<char, std::__ndk1::char_traits<char>, std::__ndk1::allocator<char> > >, std::__ndk1::allocator<std::__ndk1::pair<std::__ndk1::basic_string<char, std::__ndk1::char_traits<char>, std::__ndk1::allocator<char> > const, std::__ndk1::basic_string<char, std::__ndk1::char_traits<char>, std::__ndk1::allocator<char> > > > > >, std::__ndk1::__map_value_compare<std::__ndk1::basic_string<char, std::__ndk1::char_traits<char>, std::__ndk1::allocator<char> >, std::__ndk1::__value_type<std::__ndk1::basic_string<char, std::__ndk1::char_traits<char>, std::__ndk1::allocator<char> >, std::__ndk1::map<std::__ndk1::basic_string<char, std::__ndk1::char_traits<char>, std::__ndk1::allocator<char> >, std::__ndk1::basic_string<char, std::__ndk1::char_traits<char>, std::__ndk1::allocator<char> >, std::__ndk1::less<std::__ndk1::basic_string<char, std::__ndk1::char_traits<char>, std::__ndk1::allocator<char> > >, std::__ndk1::allocator<std::__ndk1::pair<std::__ndk1::basic_string<char, std::__ndk1::char_traits<char>, std::__ndk1::allocator<char> > const, std::__ndk1::basic_string<char, std::__ndk1::char_traits<char>, std::__ndk1::allocator<char> > > > > >, std::__ndk1::less<std::__ndk1::basic_string<char, std::__ndk1::char_traits<char>, std::__ndk1::allocator<char> > >, true>, std::__ndk1::allocator<std::__ndk1::__value_type<std::__ndk1::basic_string<char, std::__ndk1::char_traits<char>, std::__ndk1::allocator<char> >, std::__ndk1::map<std::__ndk1::basic_string<char, std::__ndk1::char_traits<char>, std::__ndk1::allocator<char> >, std::__ndk1::basic_string<char, std::__ndk1::char_traits<char>, std::__ndk1::allocator<char> >, std::__ndk1::less<std::__ndk1::basic_string<char, std::__ndk1::char_traits<char>, std::__ndk1::allocator<char> > >, std::__ndk1::allocator<std::__ndk1::pair<std::__ndk1::basic_string<char, std::__ndk1::char_traits<char>, std::__ndk1::allocator<char> > const, std::__ndk1::basic_string<char, std::__ndk1::char_traits<char>, std::__ndk1::allocator<char> > > > > > > >::__emplace_unique_key_args<std::__ndk1::basic_string<char, std::__ndk1::char_traits<char>, std::__ndk1::allocator<char> >, std::__ndk1::piecewise_construct_t const&, std::__ndk1::tuple<std::__ndk1::basic_string<char, std::__ndk1::char_traits<char>, std::__ndk1::allocator<char> >&&>, std::__ndk1::tuple<> >(std::__ndk1::basic_string<char, std::__ndk1::char_traits<char>, std::__ndk1::allocator<char> > const&, std::__ndk1::piecewise_construct_t const&, std::__ndk1::tuple<std::__ndk1::basic_string<char, std::__ndk1::char_traits<char>, std::__ndk1::allocator<char> >&&>, std::__ndk1::tuple<>)
PUBLIC 20804 0 std::__ndk1::map<std::__ndk1::basic_string<char, std::__ndk1::char_traits<char>, std::__ndk1::allocator<char> >, std::__ndk1::basic_string<char, std::__ndk1::char_traits<char>, std::__ndk1::allocator<char> >, std::__ndk1::less<std::__ndk1::basic_string<char, std::__ndk1::char_traits<char>, std::__ndk1::allocator<char> > >, std::__ndk1::allocator<std::__ndk1::pair<std::__ndk1::basic_string<char, std::__ndk1::char_traits<char>, std::__ndk1::allocator<char> > const, std::__ndk1::basic_string<char, std::__ndk1::char_traits<char>, std::__ndk1::allocator<char> > > > >::insert[abi:ne180000]<std::__ndk1::__map_const_iterator<std::__ndk1::__tree_const_iterator<std::__ndk1::__value_type<std::__ndk1::basic_string<char, std::__ndk1::char_traits<char>, std::__ndk1::allocator<char> >, std::__ndk1::basic_string<char, std::__ndk1::char_traits<char>, std::__ndk1::allocator<char> > >, std::__ndk1::__tree_node<std::__ndk1::__value_type, void*>*, long> > >(std::__ndk1::__map_const_iterator<std::__ndk1::__tree_const_iterator<std::__ndk1::__value_type<std::__ndk1::basic_string<char, std::__ndk1::char_traits<char>, std::__ndk1::allocator<char> >, std::__ndk1::basic_string<char, std::__ndk1::char_traits<char>, std::__ndk1::allocator<char> > >, std::__ndk1::__tree_node<std::__ndk1::__value_type, void*>*, long> >, std::__ndk1::__map_const_iterator<std::__ndk1::__tree_const_iterator<std::__ndk1::__value_type<std::__ndk1::basic_string<char, std::__ndk1::char_traits<char>, std::__ndk1::allocator<char> >, std::__ndk1::basic_string<char, std::__ndk1::char_traits<char>, std::__ndk1::allocator<char> > >, std::__ndk1::__tree_node<std::__ndk1::__value_type, void*>*, long> >)
PUBLIC 20a70 0 __cxx_global_var_init
PUBLIC 20ef4 0 geode::modifier::ModifyBase<geode::modifier::ModifyDerive<MyLevelSelectLayer, LevelSelectLayer> >::~ModifyBase()
PUBLIC 20f0c 0 __cxx_global_var_init.1
PUBLIC 21390 0 geode::modifier::ModifyBase<geode::modifier::ModifyDerive<MyBoomScrollLayer, BoomScrollLayer> >::~ModifyBase()
PUBLIC 213a8 0 __cxx_global_var_init.2
PUBLIC 21914 0 geode::modifier::ModifyBase<geode::modifier::ModifyDerive<MyLevelInfoLayer, LevelInfoLayer> >::~ModifyBase()
PUBLIC 2192c 0 geode::modifier::ModifyDerive<MyLevelSelectLayer, LevelSelectLayer>::apply()
PUBLIC 21c78 0 std::__ndk1::shared_ptr<geode::Hook>::~shared_ptr[abi:ne180000]()
PUBLIC 21cc8 0 geode::impl::ResultData<geode::Hook*, std::__ndk1::basic_string<char, std::__ndk1::char_traits<char>, std::__ndk1::allocator<char> > >::~ResultData()
PUBLIC 21d3c 0 geode::modifier::ModifyBase<geode::modifier::ModifyDerive<MyLevelSelectLayer, LevelSelectLayer> >::apply()
PUBLIC 21d40 0 _ZN5geode15UnwrapExceptionC2IRPNS_4HookEQsr4implE18IsStringStreamableIT_EEENS_4impl5OkTagEOS5_
PUBLIC 21e94 0 std::__ndk1::__throw_bad_variant_access[abi:ne180000]()
PUBLIC 21ec8 0 std::__ndk1::basic_stringstream<char, std::__ndk1::char_traits<char>, std::__ndk1::allocator<char> >::basic_stringstream[abi:ne180000]()
PUBLIC m 21ff4 0 std::__ndk1::basic_stringstream<char, std::__ndk1::char_traits<char>, std::__ndk1::allocator<char> >::~basic_stringstream()
PUBLIC 22074 0 geode::UnwrapException::~UnwrapException()
PUBLIC 22098 0 std::__ndk1::__put_character_sequence[abi:ne180000]<char, std::__ndk1::char_traits<char> >(std::__ndk1::basic_ostream<char, std::__ndk1::char_traits<char> >, std::__ndk1::basic_ostream const*, unsigned long)
PUBLIC 2223c 0 std::__ndk1::__pad_and_output[abi:ne180000]<char, std::__ndk1::char_traits<char> >(std::__ndk1::char_traits<char>, std::__ndk1::ostreambuf_iterator const*, std::__ndk1::ostreambuf_iterator const, std::__ndk1::ostreambuf_iterator const, std::__ndk1::ios_base&, std::__ndk1::ostreambuf_iterator)
PUBLIC 22418 0 std::__throw_bad_array_new_length([abi:ne180000], void)
PUBLIC 2244c 0 std::__ndk1::basic_stringbuf<char, std::__ndk1::char_traits<char>, std::__ndk1::allocator<char> >::str[abi:ne180000]() &&
PUBLIC 225c4 0 std::__ndk1::basic_stringbuf<char, std::__ndk1::char_traits<char>, std::__ndk1::allocator<char> >::__init_buf_ptrs[abi:ne180000]()
PUBLIC 2270c 0 std::__ndk1::vector<std::__ndk1::basic_string<char, std::__ndk1::char_traits<char>, std::__ndk1::allocator<char> >, std::__ndk1::allocator<std::__ndk1::basic_string<char, std::__ndk1::char_traits<char>, std::__ndk1::allocator<char> > > >::__push_back_slow_path<std::__ndk1::basic_string<char, std::__ndk1::char_traits<char>, std::__ndk1::allocator<char> > const&>(std::__ndk1::basic_string<char, std::__ndk1::char_traits<char>, std::__ndk1::allocator<char> > const&)
PUBLIC 22934 0 std::__ndk1::__split_buffer<std::__ndk1::basic_string<char, std::__ndk1::char_traits<char>, std::__ndk1::allocator<char> >, std::__ndk1::allocator<std::__ndk1::basic_string<char, std::__ndk1::char_traits<char>, std::__ndk1::allocator<char> > >&>::~__split_buffer()
PUBLIC 2299c 0 std::__ndk1::__variant_detail::__visitation::__base::__dispatcher<(unsigned long)0>::__dispatch[abi:ne180000]<std::__ndk1::__variant_detail::__dtor<std::__ndk1::__variant_detail::__traits<geode::Hook*, std::__ndk1::basic_string<char, std::__ndk1::char_traits<char>, std::__ndk1::allocator<char> > >, (std::__ndk1::__variant_detail::_Trait)1>::__destroy[abi:ne180000]()::{lambda(auto:1&)#1}, std::__ndk1::__variant_detail::__base<(std::__ndk1::__variant_detail::__traits<geode::Hook*, std::__ndk1::basic_string<char, std::__ndk1::char_traits<char>, std::__ndk1::allocator<char> > >)1, geode::Hook, std::__ndk1::allocator<char> >&>(std::__ndk1::__variant_detail::__dtor<std::__ndk1::__variant_detail::__traits<geode::Hook*, std::__ndk1::basic_string<char, std::__ndk1::char_traits<char>, std::__ndk1::allocator<char> > >, (std::__ndk1::__variant_detail::_Trait)1>, std::__ndk1::__variant_detail::__base<(std::__ndk1::__variant_detail::__traits<geode::Hook*, std::__ndk1::basic_string<char, std::__ndk1::char_traits<char>, std::__ndk1::allocator<char> > >)1, geode::Hook, std::__ndk1::allocator<char> >&)
PUBLIC 229a0 0 std::__ndk1::__variant_detail::__visitation::__base::__dispatcher<(unsigned long)1>::__dispatch[abi:ne180000]<std::__ndk1::__variant_detail::__dtor<std::__ndk1::__variant_detail::__traits<geode::Hook*, std::__ndk1::basic_string<char, std::__ndk1::char_traits<char>, std::__ndk1::allocator<char> > >, (std::__ndk1::__variant_detail::_Trait)1>::__destroy[abi:ne180000]()::{lambda(auto:1&)#1}, std::__ndk1::__variant_detail::__base<(std::__ndk1::__variant_detail::__traits<geode::Hook*, std::__ndk1::basic_string<char, std::__ndk1::char_traits<char>, std::__ndk1::allocator<char> > >)1, geode::Hook, std::__ndk1::allocator<char> >&>(std::__ndk1::__variant_detail::__dtor<std::__ndk1::__variant_detail::__traits<geode::Hook*, std::__ndk1::basic_string<char, std::__ndk1::char_traits<char>, std::__ndk1::allocator<char> > >, (std::__ndk1::__variant_detail::_Trait)1>, std::__ndk1::__variant_detail::__base<(std::__ndk1::__variant_detail::__traits<geode::Hook*, std::__ndk1::basic_string<char, std::__ndk1::char_traits<char>, std::__ndk1::allocator<char> > >)1, geode::Hook, std::__ndk1::allocator<char> >&)
PUBLIC 229b4 0 std::__ndk1::__tree<std::__ndk1::__value_type<std::__ndk1::basic_string<char, std::__ndk1::char_traits<char>, std::__ndk1::allocator<char> >, std::__ndk1::shared_ptr<geode::Hook> >, std::__ndk1::__map_value_compare<std::__ndk1::basic_string<char, std::__ndk1::char_traits<char>, std::__ndk1::allocator<char> >, std::__ndk1::__value_type<std::__ndk1::basic_string<char, std::__ndk1::char_traits<char>, std::__ndk1::allocator<char> >, std::__ndk1::shared_ptr<geode::Hook> >, std::__ndk1::less<std::__ndk1::basic_string<char, std::__ndk1::char_traits<char>, std::__ndk1::allocator<char> > >, true>, std::__ndk1::allocator<std::__ndk1::__value_type<std::__ndk1::basic_string<char, std::__ndk1::char_traits<char>, std::__ndk1::allocator<char> >, std::__ndk1::shared_ptr<geode::Hook> > > >::find<std::__ndk1::basic_string<char, std::__ndk1::char_traits<char>, std::__ndk1::allocator<char> > >(std::__ndk1::basic_string<char, std::__ndk1::char_traits<char>, std::__ndk1::allocator<char> > const&)
PUBLIC 22ad4 0 std::__ndk1::__tree<std::__ndk1::__value_type<std::__ndk1::basic_string<char, std::__ndk1::char_traits<char>, std::__ndk1::allocator<char> >, std::__ndk1::shared_ptr<geode::Hook> >, std::__ndk1::__map_value_compare<std::__ndk1::basic_string<char, std::__ndk1::char_traits<char>, std::__ndk1::allocator<char> >, std::__ndk1::__value_type<std::__ndk1::basic_string<char, std::__ndk1::char_traits<char>, std::__ndk1::allocator<char> >, std::__ndk1::shared_ptr<geode::Hook> >, std::__ndk1::less<std::__ndk1::basic_string<char, std::__ndk1::char_traits<char>, std::__ndk1::allocator<char> > >, true>, std::__ndk1::allocator<std::__ndk1::__value_type<std::__ndk1::basic_string<char, std::__ndk1::char_traits<char>, std::__ndk1::allocator<char> >, std::__ndk1::shared_ptr<geode::Hook> > > >::erase(std::__ndk1::__tree_const_iterator<std::__ndk1::__value_type<std::__ndk1::basic_string<char, std::__ndk1::char_traits<char>, std::__ndk1::allocator<char> >, std::__ndk1::shared_ptr<geode::Hook> >, std::__ndk1::__tree_node<std::__ndk1::__value_type<std::__ndk1::basic_string<char, std::__ndk1::char_traits<char>, std::__ndk1::allocator<char> >, std::__ndk1::shared_ptr<geode::Hook> >, void*>*, long>)
PUBLIC 22f78 0 std::__ndk1::__tree<std::__ndk1::__value_type<std::__ndk1::basic_string<char, std::__ndk1::char_traits<char>, std::__ndk1::allocator<char> >, std::__ndk1::shared_ptr<geode::Hook> >, std::__ndk1::__map_value_compare<std::__ndk1::basic_string<char, std::__ndk1::char_traits<char>, std::__ndk1::allocator<char> >, std::__ndk1::__value_type<std::__ndk1::basic_string<char, std::__ndk1::char_traits<char>, std::__ndk1::allocator<char> >, std::__ndk1::shared_ptr<geode::Hook> >, std::__ndk1::less<std::__ndk1::basic_string<char, std::__ndk1::char_traits<char>, std::__ndk1::allocator<char> > >, true>, std::__ndk1::allocator<std::__ndk1::__value_type<std::__ndk1::basic_string<char, std::__ndk1::char_traits<char>, std::__ndk1::allocator<char> >, std::__ndk1::shared_ptr<geode::Hook> > > >::destroy(std::__ndk1::__tree_node<std::__ndk1::__value_type<std::__ndk1::basic_string<char, std::__ndk1::char_traits<char>, std::__ndk1::allocator<char> >, std::__ndk1::shared_ptr<geode::Hook> >, void*>*)
PUBLIC 22ffc 0 geode::modifier::AsStaticFunction_init<MyLevelSelectLayer, bool (MyLevelSelectLayer::*)(int)>::Impl<bool (MyLevelSelectLayer::*)(int)>::function(MyLevelSelectLayer*, int)
PUBLIC 23344 0 std::__ndk1::shared_ptr<tulip::hook::CallingConvention>::~shared_ptr[abi:ne180000]()
PUBLIC 23394 0 tulip::hook::HandlerMetadata::~HandlerMetadata()
PUBLIC 233f8 0 geode::modifier::FieldIntermediate<MyLevelSelectLayer, LevelSelectLayer>::self()
PUBLIC 23594 0 geode::modifier::FieldContainer::getField(unsigned long)
PUBLIC 239d8 0 geode::modifier::FieldContainer::setField(unsigned long, unsigned long, std::__ndk1::function<void (void*)>)
PUBLIC 23ae4 0 geode::modifier::FieldIntermediate<MyLevelSelectLayer, LevelSelectLayer>::fieldDestructor(void*)
PUBLIC 23aec 0 std::__ndk1::vector<void*, std::__ndk1::allocator<void*> >::__throw_length_error[abi:ne180000]() const
PUBLIC 23b00 0 std::__ndk1::vector<std::__ndk1::function<void (void*)>, std::__ndk1::allocator<std::__ndk1::function<void (void*)> > >::__throw_length_error[abi:ne180000]() const
PUBLIC 23b14 0 std::__ndk1::vector<void*, std::__ndk1::allocator<void*> >::__throw_out_of_range[abi:ne180000]() const
PUBLIC 23b28 0 std::__ndk1::vector<std::__ndk1::function<void (void*)>, std::__ndk1::allocator<std::__ndk1::function<void (void*)> > >::__throw_out_of_range[abi:ne180000]() const
PUBLIC 23b3c 0 std::__ndk1::__tree<std::__ndk1::__value_type<int, LevelData>, std::__ndk1::__map_value_compare<int, std::__ndk1::__value_type<int, LevelData>, std::__ndk1::less<int>, true>, std::__ndk1::allocator<std::__ndk1::__value_type<int, LevelData> > >::destroy(std::__ndk1::__tree_node<std::__ndk1::__value_type<int, LevelData>, void*>*)
PUBLIC 23b78 0 std::__ndk1::__function::__base<void (void*)>::~__base()
PUBLIC 23b7c 0 std::__ndk1::__function::__func<void (*)(void*), std::__ndk1::allocator<void (*)(void*)>, void (void*)>::~__func()
PUBLIC 23b80 0 std::__ndk1::__function::__func<void (*)(void*), std::__ndk1::allocator<void (*)(void*)>, void (void*)>::__clone() const
PUBLIC 23bb8 0 std::__ndk1::__function::__func<void (*)(void*), std::__ndk1::allocator<void (*)(void*)>, void (void*)>::__clone(std::__ndk1::__function::__base<void (void*)>*) const
PUBLIC 23bd0 0 std::__ndk1::__function::__func<void (*)(void*), std::__ndk1::allocator<void (*)(void*)>, void (void*)>::destroy()
PUBLIC 23bd4 0 std::__ndk1::__function::__func<void (*)(void*), std::__ndk1::allocator<void (*)(void*)>, void (void*)>::destroy_deallocate()
PUBLIC 23bd8 0 std::__ndk1::__function::__func<void (*)(void*), std::__ndk1::allocator<void (*)(void*)>, void (void*)>::operator()(void*&&)
PUBLIC 23be8 0 std::__ndk1::__function::__func<void (*)(void*), std::__ndk1::allocator<void (*)(void*)>, void (void*)>::target(std::type_info const&) const
PUBLIC 23c04 0 std::__ndk1::__function::__func<void (*)(void*), std::__ndk1::allocator<void (*)(void*)>, void (void*)>::target_type() const
PUBLIC 23c10 0 std::__ndk1::__tree<std::__ndk1::__value_type<std::__ndk1::basic_string<char, std::__ndk1::char_traits<char>, std::__ndk1::allocator<char> >, std::__ndk1::shared_ptr<geode::Hook> >, std::__ndk1::__map_value_compare<std::__ndk1::basic_string<char, std::__ndk1::char_traits<char>, std::__ndk1::allocator<char> >, std::__ndk1::__value_type<std::__ndk1::basic_string<char, std::__ndk1::char_traits<char>, std::__ndk1::allocator<char> >, std::__ndk1::shared_ptr<geode::Hook> >, std::__ndk1::less<std::__ndk1::basic_string<char, std::__ndk1::char_traits<char>, std::__ndk1::allocator<char> > >, true>, std::__ndk1::allocator<std::__ndk1::__value_type<std::__ndk1::basic_string<char, std::__ndk1::char_traits<char>, std::__ndk1::allocator<char> >, std::__ndk1::shared_ptr<geode::Hook> > > >::__emplace_unique_key_args<std::__ndk1::basic_string<char, std::__ndk1::char_traits<char>, std::__ndk1::allocator<char> >, std::__ndk1::piecewise_construct_t const&, std::__ndk1::tuple<std::__ndk1::basic_string<char, std::__ndk1::char_traits<char>, std::__ndk1::allocator<char> >&&>, std::__ndk1::tuple<> >(std::__ndk1::basic_string<char, std::__ndk1::char_traits<char>, std::__ndk1::allocator<char> > const&, std::__ndk1::piecewise_construct_t const&, std::__ndk1::tuple<std::__ndk1::basic_string<char, std::__ndk1::char_traits<char>, std::__ndk1::allocator<char> >&&>, std::__ndk1::tuple<>)
PUBLIC 23d78 0 std::__ndk1::unique_ptr<std::__ndk1::__tree_node<std::__ndk1::__value_type<std::__ndk1::basic_string<char, std::__ndk1::char_traits<char>, std::__ndk1::allocator<char> >, std::__ndk1::shared_ptr<geode::Hook> >, void*>, std::__ndk1::__tree_node_destructor<std::__ndk1::allocator<std::__ndk1::__tree_node<std::__ndk1::__value_type<std::__ndk1::basic_string<char, std::__ndk1::char_traits<char>, std::__ndk1::allocator<char> >, std::__ndk1::shared_ptr<geode::Hook> >, void*> > > >::~unique_ptr[abi:ne180000]()
PUBLIC 23df4 0 geode::modifier::ModifyDerive<MyBoomScrollLayer, BoomScrollLayer>::apply()
PUBLIC 24168 0 geode::modifier::ModifyBase<geode::modifier::ModifyDerive<MyBoomScrollLayer, BoomScrollLayer> >::apply()
PUBLIC 2416c 0 geode::modifier::AsStaticFunction_moveToPage<MyBoomScrollLayer, void (MyBoomScrollLayer::*)(int)>::Impl<void (MyBoomScrollLayer::*)(int)>::function(MyBoomScrollLayer*, int)
PUBLIC 24364 0 geode::modifier::ModifyDerive<MyLevelInfoLayer, LevelInfoLayer>::apply()
PUBLIC 249d0 0 geode::modifier::ModifyBase<geode::modifier::ModifyDerive<MyLevelInfoLayer, LevelInfoLayer> >::apply()
PUBLIC 249d4 0 geode::modifier::ModifyBase<geode::modifier::ModifyDerive<MyLevelInfoLayer, LevelInfoLayer> >::setHookPriority(std::__ndk1::basic_string<char, std::__ndk1::char_traits<char>, std::__ndk1::allocator<char> > const&, int)
PUBLIC 24ca4 0 std::__ndk1::__variant_detail::__visitation::__base::__dispatcher<(unsigned long)0>::__dispatch[abi:ne180000]<std::__ndk1::__variant_detail::__dtor<std::__ndk1::__variant_detail::__traits<std::__ndk1::monostate, std::__ndk1::basic_string<char, std::__ndk1::char_traits<char>, std::__ndk1::allocator<char> > >, (std::__ndk1::__variant_detail::_Trait)1>::__destroy[abi:ne180000]()::{lambda(auto:1&)#1}, std::__ndk1::__variant_detail::__base<(std::__ndk1::__variant_detail::__traits<std::__ndk1::monostate, std::__ndk1::basic_string<char, std::__ndk1::char_traits<char>, std::__ndk1::allocator<char> > >)1, std::__ndk1::__variant_detail::__traits, std::__ndk1::allocator<char> >&>(std::__ndk1::__variant_detail::__dtor<std::__ndk1::__variant_detail::__traits<std::__ndk1::monostate, std::__ndk1::basic_string<char, std::__ndk1::char_traits<char>, std::__ndk1::allocator<char> > >, (std::__ndk1::__variant_detail::_Trait)1>, std::__ndk1::__variant_detail::__base<(std::__ndk1::__variant_detail::__traits<std::__ndk1::monostate, std::__ndk1::basic_string<char, std::__ndk1::char_traits<char>, std::__ndk1::allocator<char> > >)1, std::__ndk1::__variant_detail::__traits, std::__ndk1::allocator<char> >&)
PUBLIC 24ca8 0 std::__ndk1::__variant_detail::__visitation::__base::__dispatcher<(unsigned long)1>::__dispatch[abi:ne180000]<std::__ndk1::__variant_detail::__dtor<std::__ndk1::__variant_detail::__traits<std::__ndk1::monostate, std::__ndk1::basic_string<char, std::__ndk1::char_traits<char>, std::__ndk1::allocator<char> > >, (std::__ndk1::__variant_detail::_Trait)1>::__destroy[abi:ne180000]()::{lambda(auto:1&)#1}, std::__ndk1::__variant_detail::__base<(std::__ndk1::__variant_detail::__traits<std::__ndk1::monostate, std::__ndk1::basic_string<char, std::__ndk1::char_traits<char>, std::__ndk1::allocator<char> > >)1, std::__ndk1::__variant_detail::__traits, std::__ndk1::allocator<char> >&>(std::__ndk1::__variant_detail::__dtor<std::__ndk1::__variant_detail::__traits<std::__ndk1::monostate, std::__ndk1::basic_string<char, std::__ndk1::char_traits<char>, std::__ndk1::allocator<char> > >, (std::__ndk1::__variant_detail::_Trait)1>, std::__ndk1::__variant_detail::__base<(std::__ndk1::__variant_detail::__traits<std::__ndk1::monostate, std::__ndk1::basic_string<char, std::__ndk1::char_traits<char>, std::__ndk1::allocator<char> > >)1, std::__ndk1::__variant_detail::__traits, std::__ndk1::allocator<char> >&)
PUBLIC 24cbc 0 geode::modifier::AsStaticFunction_init<MyLevelInfoLayer, bool (MyLevelInfoLayer::*)(GJGameLevel*, bool)>::Impl<bool (MyLevelInfoLayer::*)(GJGameLevel*, bool)>::function(MyLevelInfoLayer*, GJGameLevel*, bool)
PUBLIC 24f5c 0 geode::modifier::AsStaticFunction_levelDownloadFinished<MyLevelInfoLayer, void (MyLevelInfoLayer::*)(GJGameLevel*)>::Impl<void (MyLevelInfoLayer::*)(GJGameLevel*)>::function(MyLevelInfoLayer*, GJGameLevel*)
PUBLIC 2519c 0 geode::modifier::FieldIntermediate<MyLevelInfoLayer, LevelInfoLayer>::self()
PUBLIC 25328 0 geode::modifier::FieldIntermediate<MyLevelInfoLayer, LevelInfoLayer>::fieldDestructor(void*)
PUBLIC 2532c 0 geode::addresser::Addresser::addressOfVirtual<void, LevelInfoLayer, GJGameLevel*>(void (LevelInfoLayer::*)(GJGameLevel*))
PUBLIC 253d4 0 LevelInfoLayer::LevelInfoLayer(geode::ZeroConstructorType)
PUBLIC m 25480 0 geodeImplicitEntry
PUBLIC 254bc 0 cocos2d::CCDestructor::~CCDestructor()
PUBLIC 255b8 0 wrapFunction(unsigned long, tulip::hook::WrapperMetadata const&)
PUBLIC 256ec 0 geode::impl::ResultData<void*, std::__ndk1::basic_string<char, std::__ndk1::char_traits<char>, std::__ndk1::allocator<char> > >::unwrapErr() &
PUBLIC 25764 0 geode::impl::ResultData<void*, std::__ndk1::basic_string<char, std::__ndk1::char_traits<char>, std::__ndk1::allocator<char> > >::~ResultData()
PUBLIC 257d8 0 tulip::hook::WrapperMetadata::~WrapperMetadata()
PUBLIC 2583c 0 cocos2d::CCNodeRGBA::CCNodeRGBA()
PUBLIC 259bc 0 cocos2d::CCObject::CCObject()
PUBLIC 25b30 0 cocos2d::CCNode::CCNode()
PUBLIC 25cc4 0 cocos2d::CCNode::~CCNode()
PUBLIC 25ce8 0 cocos2d::CCObject::~CCObject()
PUBLIC 25d0c 0 cocos2d::CCNodeRGBA::~CCNodeRGBA()
PUBLIC 25d30 0 tulip::hook::AbstractFunction::from<gd::string, gd::string const&, bool, int>(gd::string (*)(gd::string const&, bool, int))
PUBLIC 25e34 0 cocos2d::ZipUtils::decompressString(gd::string const&, bool, int)
PUBLIC 25f9c 0 cocos2d::CCNodeRGBA::~CCNodeRGBA()
PUBLIC 261c8 0 cocos2d::CCNode::~CCNode()
PUBLIC 263ec 0 cocos2d::CCObject::~CCObject()
PUBLIC 26610 0 _ZN5geode15UnwrapExceptionC2IRPvQsr4implE18IsStringStreamableIT_EEENS_4impl5OkTagEOS4_
PUBLIC 26764 0 _ZN5geode15UnwrapExceptionC2IRNSt6__ndk112basic_stringIcNS2_11char_traitsIcEENS2_9allocatorIcEEEEQsr4implE18IsStringStreamableIT_EEENS_4impl6ErrTagEOSA_
PUBLIC 268cc 0 std::__ndk1::__variant_detail::__visitation::__base::__dispatcher<(unsigned long)0>::__dispatch[abi:ne180000]<std::__ndk1::__variant_detail::__dtor<std::__ndk1::__variant_detail::__traits<void*, std::__ndk1::basic_string<char, std::__ndk1::char_traits<char>, std::__ndk1::allocator<char> > >, (std::__ndk1::__variant_detail::_Trait)1>::__destroy[abi:ne180000]()::{lambda(auto:1&)#1}, std::__ndk1::__variant_detail::__base<(std::__ndk1::__variant_detail::__traits<void*, std::__ndk1::basic_string<char, std::__ndk1::char_traits<char>, std::__ndk1::allocator<char> > >)1, std::__ndk1::__variant_detail::__traits, std::__ndk1::allocator<char> >&>(std::__ndk1::__variant_detail::__dtor<std::__ndk1::__variant_detail::__traits<void*, std::__ndk1::basic_string<char, std::__ndk1::char_traits<char>, std::__ndk1::allocator<char> > >, (std::__ndk1::__variant_detail::_Trait)1>, std::__ndk1::__variant_detail::__base<(std::__ndk1::__variant_detail::__traits<void*, std::__ndk1::basic_string<char, std::__ndk1::char_traits<char>, std::__ndk1::allocator<char> > >)1, std::__ndk1::__variant_detail::__traits, std::__ndk1::allocator<char> >&)
PUBLIC 268d0 0 std::__ndk1::__variant_detail::__visitation::__base::__dispatcher<(unsigned long)1>::__dispatch[abi:ne180000]<std::__ndk1::__variant_detail::__dtor<std::__ndk1::__variant_detail::__traits<void*, std::__ndk1::basic_string<char, std::__ndk1::char_traits<char>, std::__ndk1::allocator<char> > >, (std::__ndk1::__variant_detail::_Trait)1>::__destroy[abi:ne180000]()::{lambda(auto:1&)#1}, std::__ndk1::__variant_detail::__base<(std::__ndk1::__variant_detail::__traits<void*, std::__ndk1::basic_string<char, std::__ndk1::char_traits<char>, std::__ndk1::allocator<char> > >)1, std::__ndk1::__variant_detail::__traits, std::__ndk1::allocator<char> >&>(std::__ndk1::__variant_detail::__dtor<std::__ndk1::__variant_detail::__traits<void*, std::__ndk1::basic_string<char, std::__ndk1::char_traits<char>, std::__ndk1::allocator<char> > >, (std::__ndk1::__variant_detail::_Trait)1>, std::__ndk1::__variant_detail::__base<(std::__ndk1::__variant_detail::__traits<void*, std::__ndk1::basic_string<char, std::__ndk1::char_traits<char>, std::__ndk1::allocator<char> > >)1, std::__ndk1::__variant_detail::__traits, std::__ndk1::allocator<char> >&)
PUBLIC 268e4 0 std::__ndk1::__hash_table<std::__ndk1::__hash_value_type<void*, bool>, std::__ndk1::__unordered_map_hasher<void*, std::__ndk1::__hash_value_type<void*, bool>, std::__ndk1::hash<void*>, std::__ndk1::equal_to<void*>, true>, std::__ndk1::__unordered_map_equal<void*, std::__ndk1::__hash_value_type<void*, bool>, std::__ndk1::equal_to<void*>, std::__ndk1::hash<void*>, true>, std::__ndk1::allocator<std::__ndk1::__hash_value_type<void*, bool> > >::__emplace_unique_key_args<void*, std::__ndk1::piecewise_construct_t const&, std::__ndk1::tuple<void* const&>, std::__ndk1::tuple<> >(void* const&, std::__ndk1::piecewise_construct_t const&, std::__ndk1::tuple<void* const&>, std::__ndk1::tuple<>)
PUBLIC 26dc4 0 std::__ndk1::__hash_table<std::__ndk1::__hash_value_type<void*, bool>, std::__ndk1::__unordered_map_hasher<void*, std::__ndk1::__hash_value_type<void*, bool>, std::__ndk1::hash<void*>, std::__ndk1::equal_to<void*>, true>, std::__ndk1::__unordered_map_equal<void*, std::__ndk1::__hash_value_type<void*, bool>, std::__ndk1::equal_to<void*>, std::__ndk1::hash<void*>, true>, std::__ndk1::allocator<std::__ndk1::__hash_value_type<void*, bool> > >::find<void*>(void* const&)
PUBLIC 26ed4 0 std::__ndk1::__hash_table<std::__ndk1::__hash_value_type<void*, bool>, std::__ndk1::__unordered_map_hasher<void*, std::__ndk1::__hash_value_type<void*, bool>, std::__ndk1::hash<void*>, std::__ndk1::equal_to<void*>, true>, std::__ndk1::__unordered_map_equal<void*, std::__ndk1::__hash_value_type<void*, bool>, std::__ndk1::equal_to<void*>, std::__ndk1::hash<void*>, true>, std::__ndk1::allocator<std::__ndk1::__hash_value_type<void*, bool> > >::remove(std::__ndk1::__hash_const_iterator<std::__ndk1::__hash_node<std::__ndk1::__hash_value_type<void*, bool>, void*>*>)
PUBLIC 27008 0 __udivti3
PUBLIC 27014 0 __udivmodti4
PUBLIC m 27260 0 __eqtf2
PUBLIC 27300 0 __unordtf2
PUBLIC 27338 0 fmt::v11::detail::write_loc(fmt::v11::basic_appender<char>, fmt::v11::loc_value, fmt::v11::format_specs const&, fmt::v11::detail::locale_ref)
PUBLIC 275cc 0 fmt::v11::format_facet<std::__ndk1::locale>::~format_facet()
PUBLIC 27648 0 fmt::v11::report_error(char const*)
PUBLIC 27698 0 fmt::v11::format_error::runtime_error(char const*)
PUBLIC 276c4 0 fmt::v11::format_facet<std::__ndk1::locale>::do_put(fmt::v11::basic_appender<char>, fmt::v11::loc_value, fmt::v11::format_specs const&) const
PUBLIC 27e84 0 fmt::v11::detail::loc_writer<char>::~loc_writer()
PUBLIC 27ee8 0 fmt::v11::detail::vformat_to<char>(fmt::v11::detail::buffer<char>&, fmt::v11::basic_string_view<char>, fmt::v11::detail::vformat_args<char>::type, fmt::v11::detail::locale_ref)
PUBLIC 28458 0 fmt::v11::detail::is_printable(unsigned int)
PUBLIC 28680 0 fmt::v11::detail::dragonbox::to_decimal<float>(float)
PUBLIC 2895c 0 fmt::v11::detail::dragonbox::to_decimal<double>(double)
PUBLIC 28e98 0 fmt::v11::basic_memory_buffer<char, (unsigned long)500, std::__ndk1::allocator<char> >::grow(fmt::v11::detail::buffer<char>&, unsigned long)
PUBLIC 28f10 0 fmt::v11::format_facet<std::__ndk1::locale>::~format_facet()
PUBLIC 28f9c 0 fmt::v11::format_error::~format_error()
PUBLIC 28fc0 0 fmt::v11::detail::copy_noinline<char, char const*, fmt::v11::basic_appender<char> >(char const*, char const*, fmt::v11::basic_appender<char>)
PUBLIC 29110 0 fmt::v11::detail::default_arg_formatter<char>::operator()<bool>(bool)
PUBLIC 29178 0 fmt::v11::detail::default_arg_formatter<char>::operator()<char>(char)
PUBLIC 29208 0 fmt::v11::detail::default_arg_formatter<char>::operator()<float>(float)
PUBLIC 292f4 0 fmt::v11::detail::default_arg_formatter<char>::operator()<double>(double)
PUBLIC 293e0 0 fmt::v11::detail::default_arg_formatter<char>::operator()<char const*>(char const*)
PUBLIC 29428 0 fmt::v11::detail::default_arg_formatter<char>::operator()<void const*>(void const*)
PUBLIC 294c0 0 _ZN3fmt3v116detail5writeIcNS0_14basic_appenderIcEEiTnNSt6__ndk19enable_ifIXaaaasr11is_integralIT1_EE5valuentsr3std7is_sameIS7_bEE5valuentsr3std7is_sameIS7_T_EE5valueEiE4typeELi0EEET0_SB_S7_
PUBLIC 29720 0 fmt::v11::detail::copy_noinline<char, char*, fmt::v11::basic_appender<char> >(char*, char*, fmt::v11::basic_appender<char>)
PUBLIC 29870 0 _ZN3fmt3v116detail5writeIcNS0_14basic_appenderIcEEjTnNSt6__ndk19enable_ifIXaaaasr11is_integralIT1_EE5valuentsr3std7is_sameIS7_bEE5valuentsr3std7is_sameIS7_T_EE5valueEiE4typeELi0EEET0_SB_S7_
PUBLIC 29a50 0 _ZN3fmt3v116detail5writeIcNS0_14basic_appenderIcEExTnNSt6__ndk19enable_ifIXaaaasr11is_integralIT1_EE5valuentsr3std7is_sameIS7_bEE5valuentsr3std7is_sameIS7_T_EE5valueEiE4typeELi0EEET0_SB_S7_
PUBLIC 29cd4 0 _ZN3fmt3v116detail5writeIcNS0_14basic_appenderIcEEyTnNSt6__ndk19enable_ifIXaaaasr11is_integralIT1_EE5valuentsr3std7is_sameIS7_bEE5valuentsr3std7is_sameIS7_T_EE5valueEiE4typeELi0EEET0_SB_S7_
PUBLIC 29edc 0 _ZN3fmt3v116detail5writeIcNS0_14basic_appenderIcEEnTnNSt6__ndk19enable_ifIXaaaasr11is_integralIT1_EE5valuentsr3std7is_sameIS7_bEE5valuentsr3std7is_sameIS7_T_EE5valueEiE4typeELi0EEET0_SB_S7_
PUBLIC 2a23c 0 _ZN3fmt3v116detail5writeIcNS0_14basic_appenderIcEEoTnNSt6__ndk19enable_ifIXaaaasr11is_integralIT1_EE5valuentsr3std7is_sameIS7_bEE5valuentsr3std7is_sameIS7_T_EE5valueEiE4typeELi0EEET0_SB_S7_
PUBLIC 2a550 0 _ZN3fmt3v116detail5writeIcNS0_14basic_appenderIcEEbTnNSt6__ndk19enable_ifIXsr3std7is_sameIT1_bEE5valueEiE4typeELi0EEET0_SA_S7_RKNS0_12format_specsENS1_10locale_refE
PUBLIC 2a7e0 0 fmt::v11::detail::write_int_noinline<char, fmt::v11::basic_appender<char>, unsigned int>(fmt::v11::basic_appender<char>, fmt::v11::detail::write_int_arg<unsigned int>, fmt::v11::format_specs const&, fmt::v11::detail::locale_ref)
PUBLIC 2b5bc 0 fmt::v11::detail::fill<char, fmt::v11::basic_appender<char> >(fmt::v11::basic_appender<char>, unsigned long, fmt::v11::detail::fill_t const&)
PUBLIC 2b78c 0 fmt::v11::detail::write_padded<char, (fmt::v11::align::type)1, fmt::v11::basic_appender<char>, fmt::v11::detail::write_char<char, fmt::v11::basic_appender<char> >(fmt::v11::basic_appender<char>, char, fmt::v11::format_specs const&)::{lambda(fmt::v11::basic_appender<char>&)#1}>(fmt::v11::basic_appender<char>, fmt::v11::format_specs const&, unsigned long, unsigned long, fmt::v11::detail::write_char<char, fmt::v11::basic_appender<char> >(fmt::v11::basic_appender<char>, char, fmt::v11::format_specs const&)::{lambda(fmt::v11::basic_appender<char>&)#1})
PUBLIC 2b9c8 0 fmt::v11::detail::write_escaped_cp<fmt::v11::basic_appender<char>, char>(fmt::v11::basic_appender<char>, fmt::v11::detail::find_escape_result<char> const&)
PUBLIC 2bcd4 0 fmt::v11::detail::write_codepoint<(unsigned long)2, char, fmt::v11::basic_appender<char> >(fmt::v11::basic_appender<char>, char, unsigned int)
PUBLIC 2be4c 0 fmt::v11::detail::write_codepoint<(unsigned long)8, char, fmt::v11::basic_appender<char> >(fmt::v11::basic_appender<char>, char, unsigned int)
PUBLIC 2bfc4 0 fmt::v11::detail::write_padded<char, (fmt::v11::align::type)1, fmt::v11::basic_appender<char>, fmt::v11::detail::write_nonfinite<char, fmt::v11::basic_appender<char> >(fmt::v11::basic_appender<char>, bool, fmt::v11::format_specs, fmt::v11::sign::type)::{lambda(fmt::v11::basic_appender<char>&)#1}>(fmt::v11::basic_appender<char>, fmt::v11::format_specs const&, unsigned long, unsigned long, fmt::v11::detail::write_nonfinite<char, fmt::v11::basic_appender<char> >(fmt::v11::basic_appender<char>, bool, fmt::v11::format_specs, fmt::v11::sign::type)::{lambda(fmt::v11::basic_appender<char>&)#1})
PUBLIC 2c204 0 fmt::v11::detail::do_write_float<char, fmt::v11::basic_appender<char>, fmt::v11::detail::dragonbox::decimal_fp<float>, fmt::v11::detail::digit_grouping<char> >(fmt::v11::basic_appender<char>, fmt::v11::detail::dragonbox::decimal_fp<float> const&, fmt::v11::format_specs const&, fmt::v11::detail::float_specs, fmt::v11::detail::locale_ref)
PUBLIC 2ce78 0 fmt::v11::detail::do_write_float<char, fmt::v11::basic_appender<char>, fmt::v11::detail::dragonbox::decimal_fp<float>, fmt::v11::detail::digit_grouping<char> >(fmt::v11::basic_appender<char>, fmt::v11::detail::dragonbox::decimal_fp<float> const&, fmt::v11::format_specs const&, fmt::v11::detail::float_specs, fmt::v11::detail::locale_ref)::{lambda(fmt::v11::basic_appender<char>(fmt::v11::basic_appender<char>))#1}::operator() const
PUBLIC 2cfcc 0 fmt::v11::detail::digit_grouping<char>::digit_grouping(fmt::v11::detail::locale_ref, bool)
PUBLIC 2d238 0 fmt::v11::detail::digit_grouping<char>::~digit_grouping()
PUBLIC 2d27c 0 fmt::v11::detail::write_exponent<char, fmt::v11::basic_appender<char> >(int, fmt::v11::basic_appender<char>)
PUBLIC 2d44c 0 _ZN3fmt3v116detail17write_significandIcjTnNSt6__ndk19enable_ifIXsr3std11is_integralIT0_EE5valueEiE4typeELi0EEEPT_S9_S5_iiS8_
PUBLIC 2d5c8 0 fmt::v11::detail::digit_grouping<char>::apply<fmt::v11::basic_appender<char>, char>(fmt::v11::basic_appender<char>, fmt::v11::basic_string_view<char>) const
PUBLIC 2d980 0 fmt::v11::basic_memory_buffer<int, (unsigned long)500, std::__ndk1::allocator<int> >::grow(fmt::v11::detail::buffer<int>&, unsigned long)
PUBLIC 2da20 0 fmt::v11::detail::do_write_float<char, fmt::v11::basic_appender<char>, fmt::v11::detail::dragonbox::decimal_fp<double>, fmt::v11::detail::digit_grouping<char> >(fmt::v11::basic_appender<char>, fmt::v11::detail::dragonbox::decimal_fp<double> const&, fmt::v11::format_specs const&, fmt::v11::detail::float_specs, fmt::v11::detail::locale_ref)
PUBLIC 2e6d4 0 fmt::v11::detail::do_write_float<char, fmt::v11::basic_appender<char>, fmt::v11::detail::dragonbox::decimal_fp<double>, fmt::v11::detail::digit_grouping<char> >(fmt::v11::basic_appender<char>, fmt::v11::detail::dragonbox::decimal_fp<double> const&, fmt::v11::format_specs const&, fmt::v11::detail::float_specs, fmt::v11::detail::locale_ref)::{lambda(fmt::v11::basic_appender<char>(fmt::v11::basic_appender<char>))#1}::operator() const
PUBLIC 2e82c 0 _ZN3fmt3v116detail17write_significandIcmTnNSt6__ndk19enable_ifIXsr3std11is_integralIT0_EE5valueEiE4typeELi0EEEPT_S9_S5_iiS8_
PUBLIC 2e9bc 0 fmt::v11::detail::write_float<char, fmt::v11::basic_appender<char>, long double>(fmt::v11::basic_appender<char>, long double, fmt::v11::format_specs, fmt::v11::detail::locale_ref)
PUBLIC 2f4b8 0 fmt::v11::detail::write_padded<char, (fmt::v11::align::type)2, fmt::v11::basic_appender<char>, fmt::v11::detail::write_bytes<char, (fmt::v11::align::type)2, fmt::v11::basic_appender<char> >(fmt::v11::basic_appender<char>, fmt::v11::basic_string_view<char>, fmt::v11::format_specs const&)::{lambda(fmt::v11::basic_appender<char>&)#1}>(fmt::v11::basic_appender<char>, fmt::v11::format_specs const&, unsigned long, unsigned long, fmt::v11::detail::write_bytes<char, (fmt::v11::align::type)2, fmt::v11::basic_appender<char> >(fmt::v11::basic_appender<char>, fmt::v11::basic_string_view<char>, fmt::v11::format_specs const&)::{lambda(fmt::v11::basic_appender<char>&)#1})
PUBLIC 2f694 0 fmt::v11::detail::format_dragon(fmt::v11::detail::basic_fp<unsigned __int128>, unsigned int, int, fmt::v11::detail::buffer<char>&, int&)
PUBLIC 30ac4 0 fmt::v11::detail::bigint::operator<<=(int)
PUBLIC 30be8 0 fmt::v11::detail::bigint::assign_pow10(int)
PUBLIC 31344 0 fmt::v11::detail::bigint::divmod_assign(fmt::v11::detail::bigint const&)
PUBLIC 31664 0 fmt::v11::basic_memory_buffer<unsigned int, (unsigned long)32, std::__ndk1::allocator<unsigned int> >::grow(fmt::v11::detail::buffer<unsigned int>&, unsigned long)
PUBLIC 31704 0 fmt::v11::detail::do_write_float<char, fmt::v11::basic_appender<char>, fmt::v11::detail::big_decimal_fp, fmt::v11::detail::digit_grouping<char> >(fmt::v11::basic_appender<char>, fmt::v11::detail::big_decimal_fp const&, fmt::v11::format_specs const&, fmt::v11::detail::float_specs, fmt::v11::detail::locale_ref)
PUBLIC 325b4 0 fmt::v11::detail::do_write_float<char, fmt::v11::basic_appender<char>, fmt::v11::detail::big_decimal_fp, fmt::v11::detail::digit_grouping<char> >(fmt::v11::basic_appender<char>, fmt::v11::detail::big_decimal_fp const&, fmt::v11::format_specs const&, fmt::v11::detail::float_specs, fmt::v11::detail::locale_ref)::{lambda(fmt::v11::basic_appender<char>(fmt::v11::basic_appender<char>))#1}::operator() const
PUBLIC 32714 0 fmt::v11::detail::write_padded<char, (fmt::v11::align::type)2, fmt::v11::basic_appender<char>, fmt::v11::detail::write_ptr<char, fmt::v11::basic_appender<char>, unsigned long>(fmt::v11::basic_appender<char>, unsigned long, fmt::v11::format_specs const*)::{lambda(fmt::v11::basic_appender<char>&)#1}>(fmt::v11::basic_appender<char>, fmt::v11::format_specs const&, unsigned long, unsigned long, fmt::v11::detail::write_ptr<char, fmt::v11::basic_appender<char>, unsigned long>(fmt::v11::basic_appender<char>, unsigned long, fmt::v11::format_specs const*)::{lambda(fmt::v11::basic_appender<char>&)#1})
PUBLIC 32928 0 fmt::v11::detail::parse_replacement_field<char, fmt::v11::detail::vformat_to<char>(fmt::v11::detail::buffer<char>&, fmt::v11::basic_string_view<char>, fmt::v11::detail::vformat_args<char>::type, fmt::v11::detail::locale_ref)::format_handler&>(char const*, char const*, fmt::v11::detail::vformat_to<char>(fmt::v11::detail::buffer<char>&, fmt::v11::basic_string_view<char>, fmt::v11::detail::vformat_args<char>::type, fmt::v11::detail::locale_ref)::format_handler&)
PUBLIC 345c4 0 fmt::v11::detail::parse_dynamic_spec<char>(char const*, char const*, int&, fmt::v11::detail::arg_ref<char>&, fmt::v11::basic_format_parse_context<char>&)
PUBLIC 34854 0 fmt::v11::basic_format_args<fmt::v11::context>::get<char>(fmt::v11::basic_string_view<char>) const
PUBLIC 349ac 0 fmt::v11::detail::write_int_noinline<char, fmt::v11::basic_appender<char>, unsigned long>(fmt::v11::basic_appender<char>, fmt::v11::detail::write_int_arg<unsigned long>, fmt::v11::format_specs const&, fmt::v11::detail::locale_ref)
PUBLIC 35800 0 fmt::v11::detail::write_int_noinline<char, fmt::v11::basic_appender<char>, unsigned __int128>(fmt::v11::basic_appender<char>, fmt::v11::detail::write_int_arg<unsigned __int128>, fmt::v11::format_specs const&, fmt::v11::detail::locale_ref)
PUBLIC 36868 0 _ZN3fmt3v116detail15format_hexfloatIdTnNSt6__ndk19enable_ifIXntsr16is_double_doubleIT_EE5valueEiE4typeELi0EEEvS5_NS0_12format_specsERNS1_6bufferIcEE
PUBLIC 36d88 0 fmt::v11::detail::format_float<double>(double, int, fmt::v11::detail::float_specs, fmt::v11::detail::buffer<char>&)
PUBLIC 37728 0 fmt::v11::detail::write<char, fmt::v11::basic_appender<char> >(fmt::v11::basic_appender<char>, fmt::v11::basic_string_view<char>, fmt::v11::format_specs const&)
PUBLIC 38a94 0 fmt::v11::detail::for_each_codepoint<fmt::v11::detail::compute_width(fmt::v11::basic_string_view<char>)::count_code_points>(fmt::v11::basic_string_view<char>, fmt::v11::detail::compute_width(fmt::v11::basic_string_view<char>)::count_code_points)::{lambda(char const*, char const*)#1}::operator()(char const*, char const*) const
PUBLIC 38c4c 0 fmt::v11::detail::write_int<fmt::v11::basic_appender<char>, unsigned long, char>(fmt::v11::basic_appender<char>, unsigned long, unsigned int, fmt::v11::format_specs const&, fmt::v11::detail::digit_grouping<char> const&)
PUBLIC 391c8 0 fmt::v11::detail::write_int<fmt::v11::basic_appender<char>, unsigned __int128, char>(fmt::v11::basic_appender<char>, unsigned __int128, unsigned int, fmt::v11::format_specs const&, fmt::v11::detail::digit_grouping<char> const&)
PUBLIC 39850 0 <.plt ELF section in alphalaneous.level_info_backgrounds.android64.so>
STACK CFI INIT 10db0 10 .cfa: sp 0 +
STACK CFI INIT 10dc0 8 .cfa: sp 0 +
STACK CFI INIT 10dc8 8 .cfa: sp 0 +
STACK CFI INIT 10dd0 14 .cfa: sp 0 +
STACK CFI INIT 10de4 1c .cfa: sp 0 +
STACK CFI INIT 10e00 10 .cfa: sp 0 +
STACK CFI INIT 10e10 134 .cfa: sp 0 +
STACK CFI INIT 10f44 84 .cfa: sp 0 +
STACK CFI INIT 10fc8 f4 .cfa: sp 0 +
STACK CFI INIT 110bc a8 .cfa: sp 0 +
STACK CFI INIT 11164 7c .cfa: sp 0 +
STACK CFI INIT 111e0 14 .cfa: sp 0 +
STACK CFI INIT 111f4 40 .cfa: sp 0 +
STACK CFI INIT 11234 28 .cfa: sp 0 +
STACK CFI INIT 1125c 190 .cfa: sp 0 +
STACK CFI INIT 113ec 2c8 .cfa: sp 0 +
STACK CFI INIT 116b4 8 .cfa: sp 0 +
STACK CFI INIT 116bc 8 .cfa: sp 0 +
STACK CFI INIT 116c4 44 .cfa: sp 0 +
STACK CFI INIT 11708 e8 .cfa: sp 0 +
STACK CFI INIT 117f0 e8 .cfa: sp 0 +
STACK CFI INIT 118d8 14 .cfa: sp 0 +
STACK CFI INIT 118ec 10 .cfa: sp 0 +
STACK CFI INIT 118fc 10 .cfa: sp 0 +
STACK CFI INIT 1190c f0 .cfa: sp 0 +
STACK CFI INIT 119fc 44 .cfa: sp 0 +
STACK CFI INIT 11a40 c .cfa: sp 0 +
STACK CFI INIT 11a4c c .cfa: sp 0 +
STACK CFI INIT 11a58 2c .cfa: sp 0 +
STACK CFI INIT 11a84 280 .cfa: sp 0 +
STACK CFI INIT 11d04 c .cfa: sp 0 +
STACK CFI INIT 11d10 120 .cfa: sp 0 +
STACK CFI INIT 11e30 488 .cfa: sp 0 +
STACK CFI INIT 122b8 c48 .cfa: sp 0 +
STACK CFI INIT 12f00 134 .cfa: sp 0 +
STACK CFI INIT 13034 210 .cfa: sp 0 +
STACK CFI INIT 13244 38c .cfa: sp 0 +
STACK CFI INIT 135d0 1c8 .cfa: sp 0 +
STACK CFI INIT 13798 9bc .cfa: sp 0 +
STACK CFI INIT 14154 2d4 .cfa: sp 0 +
STACK CFI INIT 14428 134 .cfa: sp 0 +
STACK CFI INIT 1455c 120 .cfa: sp 0 +
STACK CFI INIT 1467c 1c8 .cfa: sp 0 +
STACK CFI INIT 14844 168 .cfa: sp 0 +
STACK CFI INIT 149ac fc .cfa: sp 0 +
STACK CFI INIT 14aa8 30 .cfa: sp 0 +
STACK CFI INIT 14c10 30 .cfa: sp 0 +
STACK CFI INIT 14c40 98 .cfa: sp 0 +
STACK CFI INIT 14cd8 59c .cfa: sp 0 +
STACK CFI INIT 15274 8c .cfa: sp 0 +
STACK CFI INIT 15300 30 .cfa: sp 0 +
STACK CFI INIT 19480 7c .cfa: sp 0 +
STACK CFI 19484 .cfa: sp 48 +
STACK CFI 19490 .cfa: x29 48 + x19: .cfa -8 + ^ x20: .cfa -16 + ^ x21: .cfa -32 + ^ .ra: .cfa -40 + ^ x29: .cfa -48 + ^
STACK CFI 194dc .cfa: sp 48 +
STACK CFI 194e8 .cfa: sp 0 +
STACK CFI 194ec .cfa: sp 48 +
STACK CFI 194f8 .cfa: sp 0 +
STACK CFI INIT 1c338 3c4 .cfa: sp 0 +
STACK CFI 1c33c .cfa: sp 64 +
STACK CFI 1c348 .cfa: x29 32 + x19: .cfa -8 + ^ x20: .cfa -16 + ^ .ra: .cfa -24 + ^ x29: .cfa -32 + ^
STACK CFI 1c6dc .cfa: sp 64 +
STACK CFI 1c6e8 .cfa: sp 0 +
STACK CFI 1c6ec .cfa: x29 32 +
STACK CFI INIT 1c6fc 198 .cfa: sp 0 +
STACK CFI 1c700 .cfa: sp 48 +
STACK CFI 1c70c .cfa: x29 16 + .ra: .cfa -8 + ^ x29: .cfa -16 + ^ v8: .cfa -24 + ^ v9: .cfa -32 + ^ v10: .cfa -40 + ^ v11: .cfa -48 + ^
STACK CFI 1c884 .cfa: sp 48 +
STACK CFI 1c890 .cfa: sp 0 +
STACK CFI INIT 1ee60 8 .cfa: sp 0 +
STACK CFI INIT 1ee68 24 .cfa: sp 0 +
STACK CFI 1ee6c .cfa: sp 32 +
STACK CFI 1ee74 .cfa: x29 32 + x19: .cfa -16 + ^ .ra: .cfa -24 + ^ x29: .cfa -32 + ^
STACK CFI 1ee80 .cfa: sp 32 +
STACK CFI 1ee88 .cfa: sp 0 +
STACK CFI INIT 1ee8c 4 .cfa: sp 0 +
STACK CFI INIT 1ee90 8 .cfa: sp 0 +
STACK CFI INIT 1ee98 4 .cfa: sp 0 +
STACK CFI INIT 1ee9c 8 .cfa: sp 0 +
STACK CFI INIT 1eea4 14 .cfa: sp 0 +
STACK CFI 1eea8 .cfa: sp 16 +
STACK CFI 1eeac .cfa: x29 16 + .ra: .cfa -8 + ^ x29: .cfa -16 + ^
STACK CFI INIT 1ef08 30 .cfa: sp 0 +
STACK CFI 1ef0c .cfa: sp 32 +
STACK CFI 1ef14 .cfa: x29 32 + x19: .cfa -16 + ^ .ra: .cfa -24 + ^ x29: .cfa -32 + ^
STACK CFI 1ef2c .cfa: sp 32 +
STACK CFI 1ef34 .cfa: sp 0 +
STACK CFI INIT 1ef38 10 .cfa: sp 0 +
STACK CFI 1ef3c .cfa: sp 16 +
STACK CFI 1ef40 .cfa: x29 16 + .ra: .cfa -8 + ^ x29: .cfa -16 + ^
STACK CFI INIT 1ef98 30 .cfa: sp 0 +
STACK CFI 1ef9c .cfa: sp 32 +
STACK CFI 1efa4 .cfa: x29 32 + x19: .cfa -16 + ^ .ra: .cfa -24 + ^ x29: .cfa -32 + ^
STACK CFI 1efbc .cfa: sp 32 +
STACK CFI 1efc4 .cfa: sp 0 +
STACK CFI INIT 1efc8 84 .cfa: sp 0 +
STACK CFI 1efd0 .cfa: sp 48 +
STACK CFI 1efdc .cfa: x29 48 + x19: .cfa -8 + ^ x20: .cfa -16 + ^ x21: .cfa -32 + ^ .ra: .cfa -40 + ^ x29: .cfa -48 + ^
STACK CFI 1f03c .cfa: sp 48 +
STACK CFI 1f048 .cfa: sp 0 +
STACK CFI INIT 1f224 5c .cfa: sp 0 +
STACK CFI 1f228 .cfa: sp 32 +
STACK CFI 1f230 .cfa: x29 32 + x19: .cfa -16 + ^ .ra: .cfa -24 + ^ x29: .cfa -32 + ^
STACK CFI 1f268 .cfa: sp 32 +
STACK CFI 1f270 .cfa: sp 0 +
STACK CFI 1f274 .cfa: sp 32 +
STACK CFI 1f27c .cfa: sp 0 +
STACK CFI INIT 1f280 1b0 .cfa: sp 0 +
STACK CFI INIT 1f430 80 .cfa: sp 0 +
STACK CFI 1f434 .cfa: sp 48 +
STACK CFI 1f440 .cfa: x29 48 + x19: .cfa -8 + ^ x20: .cfa -16 + ^ x21: .cfa -24 + ^ x22: .cfa -32 + ^ .ra: .cfa -40 + ^ x29: .cfa -48 + ^
STACK CFI 1f458 .cfa: sp 48 +
STACK CFI 1f464 .cfa: sp 0 +
STACK CFI 1f468 .cfa: x29 48 +
STACK CFI 1f498 .cfa: sp 48 +
STACK CFI 1f4a4 .cfa: sp 0 +
STACK CFI 1f4a8 .cfa: x29 48 +
STACK CFI INIT 1f4b0 8c .cfa: sp 0 +
STACK CFI 1f4b4 .cfa: sp 48 +
STACK CFI 1f4c0 .cfa: x29 48 + x19: .cfa -8 + ^ x20: .cfa -16 + ^ x21: .cfa -24 + ^ x22: .cfa -32 + ^ .ra: .cfa -40 + ^ x29: .cfa -48 + ^
STACK CFI 1f4c8 .cfa: sp 48 +
STACK CFI 1f4d4 .cfa: sp 0 +
STACK CFI 1f4d8 .cfa: x29 48 +
STACK CFI 1f52c .cfa: sp 48 +
STACK CFI 1f538 .cfa: sp 0 +
STACK CFI INIT 1f53c 14 .cfa: sp 0 +
STACK CFI 1f540 .cfa: sp 16 +
STACK CFI 1f544 .cfa: x29 16 + .ra: .cfa -8 + ^ x29: .cfa -16 + ^
STACK CFI INIT 1f550 60 .cfa: sp 0 +
STACK CFI 1f560 .cfa: sp 32 +
STACK CFI 1f568 .cfa: x29 32 + x19: .cfa -8 + ^ x20: .cfa -16 + ^ .ra: .cfa -24 + ^ x29: .cfa -32 + ^
STACK CFI 1f5a4 .cfa: sp 32 +
STACK CFI 1f5ac .cfa: sp 0 +
STACK CFI INIT 1f5b0 4 .cfa: sp 0 +
STACK CFI INIT 1f5b4 14 .cfa: sp 0 +
STACK CFI INIT 1f5c8 24 .cfa: sp 0 +
STACK CFI 1f5cc .cfa: sp 32 +
STACK CFI 1f5d4 .cfa: x29 32 + x19: .cfa -16 + ^ .ra: .cfa -24 + ^ x29: .cfa -32 + ^
STACK CFI 1f5e0 .cfa: sp 32 +
STACK CFI 1f5e8 .cfa: sp 0 +
STACK CFI INIT 1f5ec 18 .cfa: sp 0 +
STACK CFI INIT 1f604 4 .cfa: sp 0 +
STACK CFI INIT 1f608 4 .cfa: sp 0 +
STACK CFI INIT 1f60c 14 .cfa: sp 0 +
STACK CFI INIT 1f620 14 .cfa: sp 0 +
STACK CFI 1f624 .cfa: sp 16 +
STACK CFI 1f628 .cfa: x29 16 + .ra: .cfa -8 + ^ x29: .cfa -16 + ^
STACK CFI INIT 1f634 4 .cfa: sp 0 +
STACK CFI INIT 1f638 14 .cfa: sp 0 +
STACK CFI INIT 1f64c ac .cfa: sp 0 +
STACK CFI 1f650 .cfa: sp 64 +
STACK CFI 1f660 .cfa: x29 64 + x19: .cfa -8 + ^ x20: .cfa -16 + ^ x21: .cfa -24 + ^ x22: .cfa -32 + ^ x23: .cfa -48 + ^ .ra: .cfa -56 + ^ x29: .cfa -64 + ^
STACK CFI 1f6dc .cfa: sp 64 +
STACK CFI 1f6ec .cfa: sp 0 +
STACK CFI 1f6f0 .cfa: x29 64 +
STACK CFI INIT 1f6f8 110 .cfa: sp 0 +
STACK CFI 1f6fc .cfa: sp 64 +
STACK CFI 1f70c .cfa: x29 64 + x19: .cfa -8 + ^ x20: .cfa -16 + ^ x21: .cfa -24 + ^ x22: .cfa -32 + ^ x23: .cfa -40 + ^ x24: .cfa -48 + ^ .ra: .cfa -56 + ^ x29: .cfa -64 + ^
STACK CFI 1f7ec .cfa: sp 64 +
STACK CFI 1f7fc .cfa: sp 0 +
STACK CFI 1f800 .cfa: x29 64 +
STACK CFI INIT 1f808 70 .cfa: sp 0 +
STACK CFI 1f810 .cfa: sp 32 +
STACK CFI 1f818 .cfa: x29 32 + x19: .cfa -16 + ^ .ra: .cfa -24 + ^ x29: .cfa -32 + ^
STACK CFI 1f840 .cfa: sp 32 +
STACK CFI 1f848 .cfa: sp 0 +
STACK CFI 1f850 .cfa: x29 32 +
STACK CFI 1f86c .cfa: sp 32 +
STACK CFI 1f874 .cfa: sp 0 +
STACK CFI INIT 1f878 104 .cfa: sp 0 +
STACK CFI 1f87c .cfa: sp 64 +
STACK CFI 1f88c .cfa: x29 64 + x19: .cfa -8 + ^ x20: .cfa -16 + ^ x21: .cfa -24 + ^ x22: .cfa -32 + ^ x23: .cfa -48 + ^ .ra: .cfa -56 + ^ x29: .cfa -64 + ^
STACK CFI 1f8e8 .cfa: sp 64 +
STACK CFI 1f8f8 .cfa: sp 0 +
STACK CFI 1f8fc .cfa: x29 64 +
STACK CFI 1f918 .cfa: sp 64 +
STACK CFI 1f928 .cfa: sp 0 +
STACK CFI 1f92c .cfa: x29 64 +
STACK CFI 1f968 .cfa: sp 64 +
STACK CFI 1f978 .cfa: sp 0 +
STACK CFI INIT 1f97c 168 .cfa: sp 0 +
STACK CFI 1f980 .cfa: sp 80 +
STACK CFI 1f994 .cfa: x29 80 + x19: .cfa -8 + ^ x20: .cfa -16 + ^ x21: .cfa -24 + ^ x22: .cfa -32 + ^ x23: .cfa -40 + ^ x24: .cfa -48 + ^ x25: .cfa -56 + ^ x26: .cfa -64 + ^ .ra: .cfa -72 + ^ x29: .cfa -80 + ^
STACK CFI 1facc .cfa: sp 80 +
STACK CFI 1fae0 .cfa: sp 0 +
STACK CFI INIT 1fae4 50 .cfa: sp 0 +
STACK CFI 1faec .cfa: sp 32 +
STACK CFI 1faf4 .cfa: x29 32 + x19: .cfa -16 + ^ .ra: .cfa -24 + ^ x29: .cfa -32 + ^
STACK CFI 1fb24 .cfa: sp 32 +
STACK CFI 1fb2c .cfa: sp 0 +
STACK CFI INIT 1fd14 54 .cfa: sp 0 +
STACK CFI 1fd18 .cfa: sp 32 +
STACK CFI 1fd20 .cfa: x29 32 + x19: .cfa -16 + ^ .ra: .cfa -24 + ^ x29: .cfa -32 + ^
STACK CFI 1fd50 .cfa: sp 32 +
STACK CFI 1fd58 .cfa: sp 0 +
STACK CFI 1fd5c .cfa: sp 32 +
STACK CFI 1fd64 .cfa: sp 0 +
STACK CFI INIT 20258 50 .cfa: sp 0 +
STACK CFI 2025c .cfa: sp 32 +
STACK CFI 20264 .cfa: x29 32 + x19: .cfa -16 + ^ .ra: .cfa -24 + ^ x29: .cfa -32 + ^
STACK CFI 20290 .cfa: sp 32 +
STACK CFI 20298 .cfa: sp 0 +
STACK CFI 2029c .cfa: sp 32 +
STACK CFI 202a4 .cfa: sp 0 +
STACK CFI INIT 20694 170 .cfa: sp 0 +
STACK CFI 20698 .cfa: sp 80 +
STACK CFI 206ac .cfa: x29 80 + x19: .cfa -8 + ^ x20: .cfa -16 + ^ x21: .cfa -24 + ^ x22: .cfa -32 + ^ x23: .cfa -40 + ^ x24: .cfa -48 + ^ x25: .cfa -56 + ^ x26: .cfa -64 + ^ .ra: .cfa -72 + ^ x29: .cfa -80 + ^
STACK CFI 207ec .cfa: sp 80 +
STACK CFI 20800 .cfa: sp 0 +
STACK CFI INIT 20804 26c .cfa: sp 0 +
STACK CFI 20808 .cfa: sp 144 +
STACK CFI 20824 .cfa: x29 96 + x19: .cfa -8 + ^ x20: .cfa -16 + ^ x21: .cfa -24 + ^ x22: .cfa -32 + ^ x23: .cfa -40 + ^ x24: .cfa -48 + ^ x25: .cfa -56 + ^ x26: .cfa -64 + ^ x27: .cfa -72 + ^ x28: .cfa -80 + ^ .ra: .cfa -88 + ^ x29: .cfa -96 + ^
STACK CFI 20a4c .cfa: sp 144 +
STACK CFI 20a68 .cfa: sp 0 +
STACK CFI 20a6c .cfa: x29 96 +
STACK CFI INIT 20ef4 18 .cfa: sp 0 +
STACK CFI INIT 21390 18 .cfa: sp 0 +
STACK CFI INIT 21914 18 .cfa: sp 0 +
STACK CFI INIT 21c78 50 .cfa: sp 0 +
STACK CFI 21c7c .cfa: sp 32 +
STACK CFI 21c84 .cfa: x29 32 + x19: .cfa -16 + ^ .ra: .cfa -24 + ^ x29: .cfa -32 + ^
STACK CFI 21c9c .cfa: sp 32 +
STACK CFI 21ca4 .cfa: sp 0 +
STACK CFI 21ca8 .cfa: x29 32 +
STACK CFI 21cbc .cfa: sp 32 +
STACK CFI 21cc4 .cfa: sp 0 +
STACK CFI INIT 21d3c 4 .cfa: sp 0 +
STACK CFI INIT 21e94 34 .cfa: sp 0 +
STACK CFI 21e98 .cfa: sp 16 +
STACK CFI 21e9c .cfa: x29 16 + .ra: .cfa -8 + ^ x29: .cfa -16 + ^
STACK CFI INIT 21ff4 80 .cfa: sp 0 +
STACK CFI 21ff8 .cfa: sp 48 +
STACK CFI 22004 .cfa: x29 48 + x19: .cfa -8 + ^ x20: .cfa -16 + ^ x21: .cfa -32 + ^ .ra: .cfa -40 + ^ x29: .cfa -48 + ^
STACK CFI 22064 .cfa: sp 48 +
STACK CFI 22070 .cfa: sp 0 +
STACK CFI INIT 22074 24 .cfa: sp 0 +
STACK CFI 22078 .cfa: sp 32 +
STACK CFI 22080 .cfa: x29 32 + x19: .cfa -16 + ^ .ra: .cfa -24 + ^ x29: .cfa -32 + ^
STACK CFI 2208c .cfa: sp 32 +
STACK CFI 22094 .cfa: sp 0 +
STACK CFI INIT 22418 34 .cfa: sp 0 +
STACK CFI 2241c .cfa: sp 32 +
STACK CFI 22424 .cfa: x29 32 + x19: .cfa -16 + ^ .ra: .cfa -24 + ^ x29: .cfa -32 + ^
STACK CFI INIT 225c4 148 .cfa: sp 0 +
STACK CFI 225c8 .cfa: sp 48 +
STACK CFI 225d4 .cfa: x29 48 + x19: .cfa -8 + ^ x20: .cfa -16 + ^ x21: .cfa -32 + ^ .ra: .cfa -40 + ^ x29: .cfa -48 + ^
STACK CFI 226fc .cfa: sp 48 +
STACK CFI 22708 .cfa: sp 0 +
STACK CFI INIT 22934 68 .cfa: sp 0 +
STACK CFI 22938 .cfa: sp 32 +
STACK CFI 22940 .cfa: x29 32 + x19: .cfa -8 + ^ x20: .cfa -16 + ^ .ra: .cfa -24 + ^ x29: .cfa -32 + ^
STACK CFI 22958 .cfa: sp 32 +
STACK CFI 22960 .cfa: sp 0 +
STACK CFI 22964 .cfa: x29 32 +
STACK CFI 22990 .cfa: sp 32 +
STACK CFI 22998 .cfa: sp 0 +
STACK CFI INIT 2299c 4 .cfa: sp 0 +
STACK CFI INIT 229a0 14 .cfa: sp 0 +
STACK CFI INIT 229b4 120 .cfa: sp 0 +
STACK CFI 229b8 .cfa: sp 64 +
STACK CFI 229c8 .cfa: x29 64 + x19: .cfa -8 + ^ x20: .cfa -16 + ^ x21: .cfa -24 + ^ x22: .cfa -32 + ^ x23: .cfa -40 + ^ x24: .cfa -48 + ^ .ra: .cfa -56 + ^ x29: .cfa -64 + ^
STACK CFI 22ac0 .cfa: sp 64 +
STACK CFI 22ad0 .cfa: sp 0 +
STACK CFI INIT 22ad4 4a4 .cfa: sp 0 +
STACK CFI 22ad8 .cfa: sp 32 +
STACK CFI 22ae0 .cfa: x29 32 + x19: .cfa -8 + ^ x20: .cfa -16 + ^ .ra: .cfa -24 + ^ x29: .cfa -32 + ^
STACK CFI 22ec0 .cfa: sp 32 +
STACK CFI 22ec8 .cfa: sp 0 +
STACK CFI 22ecc .cfa: x29 32 +
STACK CFI INIT 22f78 84 .cfa: sp 0 +
STACK CFI 22f80 .cfa: sp 32 +
STACK CFI 22f88 .cfa: x29 32 + x19: .cfa -8 + ^ x20: .cfa -16 + ^ .ra: .cfa -24 + ^ x29: .cfa -32 + ^
STACK CFI 22fc8 .cfa: sp 32 +
STACK CFI 22fd0 .cfa: sp 0 +
STACK CFI 22fd8 .cfa: x29 32 +
STACK CFI INIT 23344 50 .cfa: sp 0 +
STACK CFI 23348 .cfa: sp 32 +
STACK CFI 23350 .cfa: x29 32 + x19: .cfa -16 + ^ .ra: .cfa -24 + ^ x29: .cfa -32 + ^
STACK CFI 23368 .cfa: sp 32 +
STACK CFI 23370 .cfa: sp 0 +
STACK CFI 23374 .cfa: x29 32 +
STACK CFI 23388 .cfa: sp 32 +
STACK CFI 23390 .cfa: sp 0 +
STACK CFI INIT 23394 64 .cfa: sp 0 +
STACK CFI 23398 .cfa: sp 32 +
STACK CFI 233a0 .cfa: x29 32 + x19: .cfa -16 + ^ .ra: .cfa -24 + ^ x29: .cfa -32 + ^
STACK CFI 233cc .cfa: sp 32 +
STACK CFI 233d4 .cfa: sp 0 +
STACK CFI 233d8 .cfa: x29 32 +
STACK CFI 233ec .cfa: sp 32 +
STACK CFI 233f4 .cfa: sp 0 +
STACK CFI INIT 23ae4 8 .cfa: sp 0 +
STACK CFI INIT 23aec 14 .cfa: sp 0 +
STACK CFI 23af0 .cfa: sp 16 +
STACK CFI 23af4 .cfa: x29 16 + .ra: .cfa -8 + ^ x29: .cfa -16 + ^
STACK CFI INIT 23b00 14 .cfa: sp 0 +
STACK CFI 23b04 .cfa: sp 16 +
STACK CFI 23b08 .cfa: x29 16 + .ra: .cfa -8 + ^ x29: .cfa -16 + ^
STACK CFI INIT 23b14 14 .cfa: sp 0 +
STACK CFI 23b18 .cfa: sp 16 +
STACK CFI 23b1c .cfa: x29 16 + .ra: .cfa -8 + ^ x29: .cfa -16 + ^
STACK CFI INIT 23b28 14 .cfa: sp 0 +
STACK CFI 23b2c .cfa: sp 16 +
STACK CFI 23b30 .cfa: x29 16 + .ra: .cfa -8 + ^ x29: .cfa -16 + ^
STACK CFI INIT 23b3c 3c .cfa: sp 0 +
STACK CFI 23b44 .cfa: sp 32 +
STACK CFI 23b4c .cfa: x29 32 + x19: .cfa -16 + ^ .ra: .cfa -24 + ^ x29: .cfa -32 + ^
STACK CFI 23b68 .cfa: sp 32 +
STACK CFI 23b70 .cfa: sp 0 +
STACK CFI INIT 23b78 4 .cfa: sp 0 +
STACK CFI INIT 23b7c 4 .cfa: sp 0 +
STACK CFI INIT 23b80 38 .cfa: sp 0 +
STACK CFI 23b84 .cfa: sp 32 +
STACK CFI 23b8c .cfa: x29 32 + x19: .cfa -16 + ^ .ra: .cfa -24 + ^ x29: .cfa -32 + ^
STACK CFI 23bac .cfa: sp 32 +
STACK CFI 23bb4 .cfa: sp 0 +
STACK CFI INIT 23bb8 18 .cfa: sp 0 +
STACK CFI INIT 23bd0 4 .cfa: sp 0 +
STACK CFI INIT 23bd4 4 .cfa: sp 0 +
STACK CFI INIT 23bd8 10 .cfa: sp 0 +
STACK CFI INIT 23be8 1c .cfa: sp 0 +
STACK CFI INIT 23c04 c .cfa: sp 0 +
STACK CFI INIT 23c10 168 .cfa: sp 0 +
STACK CFI 23c14 .cfa: sp 80 +
STACK CFI 23c28 .cfa: x29 80 + x19: .cfa -8 + ^ x20: .cfa -16 + ^ x21: .cfa -24 + ^ x22: .cfa -32 + ^ x23: .cfa -40 + ^ x24: .cfa -48 + ^ x25: .cfa -56 + ^ x26: .cfa -64 + ^ .ra: .cfa -72 + ^ x29: .cfa -80 + ^
STACK CFI 23d60 .cfa: sp 80 +
STACK CFI 23d74 .cfa: sp 0 +
STACK CFI INIT 23d78 7c .cfa: sp 0 +
STACK CFI 23d7c .cfa: sp 32 +
STACK CFI 23d84 .cfa: x29 32 + x19: .cfa -8 + ^ x20: .cfa -16 + ^ .ra: .cfa -24 + ^ x29: .cfa -32 + ^
STACK CFI 23ddc .cfa: sp 32 +
STACK CFI 23de4 .cfa: sp 0 +
STACK CFI 23de8 .cfa: sp 32 +
STACK CFI 23df0 .cfa: sp 0 +
STACK CFI INIT 24168 4 .cfa: sp 0 +
STACK CFI INIT 2416c 1f8 .cfa: sp 0 +
STACK CFI 24170 .cfa: sp 128 +
STACK CFI 24188 .cfa: x29 80 + x19: .cfa -8 + ^ x20: .cfa -16 + ^ x21: .cfa -24 + ^ x22: .cfa -32 + ^ x23: .cfa -40 + ^ x24: .cfa -48 + ^ x25: .cfa -64 + ^ .ra: .cfa -72 + ^ x29: .cfa -80 + ^
STACK CFI 24344 .cfa: sp 128 +
STACK CFI 2435c .cfa: sp 0 +
STACK CFI 24360 .cfa: x29 80 +
STACK CFI INIT 249d0 4 .cfa: sp 0 +
STACK CFI INIT 24ca4 4 .cfa: sp 0 +
STACK CFI INIT 24ca8 14 .cfa: sp 0 +
STACK CFI INIT 25328 4 .cfa: sp 0 +
STACK CFI INIT 253d4 ac .cfa: sp 0 +
STACK CFI 253d8 .cfa: sp 32 +
STACK CFI 253e0 .cfa: x29 32 + x19: .cfa -16 + ^ .ra: .cfa -24 + ^ x29: .cfa -32 + ^
STACK CFI 25474 .cfa: sp 32 +
STACK CFI 2547c .cfa: sp 0 +
STACK CFI INIT 25480 3c .cfa: sp 0 +
STACK CFI 25484 .cfa: sp 32 +
STACK CFI 2548c .cfa: x29 32 + x19: .cfa -16 + ^ .ra: .cfa -24 + ^ x29: .cfa -32 + ^
STACK CFI 25498 .cfa: sp 32 +
STACK CFI 254a0 .cfa: sp 0 +
STACK CFI 254a4 .cfa: x29 32 +
STACK CFI 254b0 .cfa: sp 32 +
STACK CFI 254b8 .cfa: sp 0 +
STACK CFI INIT 257d8 64 .cfa: sp 0 +
STACK CFI 257dc .cfa: sp 32 +
STACK CFI 257e4 .cfa: x29 32 + x19: .cfa -16 + ^ .ra: .cfa -24 + ^ x29: .cfa -32 + ^
STACK CFI 25810 .cfa: sp 32 +
STACK CFI 25818 .cfa: sp 0 +
STACK CFI 2581c .cfa: x29 32 +
STACK CFI 25830 .cfa: sp 32 +
STACK CFI 25838 .cfa: sp 0 +
STACK CFI INIT 25cc4 24 .cfa: sp 0 +
STACK CFI 25cc8 .cfa: sp 32 +
STACK CFI 25cd0 .cfa: x29 32 + x19: .cfa -16 + ^ .ra: .cfa -24 + ^ x29: .cfa -32 + ^
STACK CFI 25cdc .cfa: sp 32 +
STACK CFI 25ce4 .cfa: sp 0 +
STACK CFI INIT 25ce8 24 .cfa: sp 0 +
STACK CFI 25cec .cfa: sp 32 +
STACK CFI 25cf4 .cfa: x29 32 + x19: .cfa -16 + ^ .ra: .cfa -24 + ^ x29: .cfa -32 + ^
STACK CFI 25d00 .cfa: sp 32 +
STACK CFI 25d08 .cfa: sp 0 +
STACK CFI INIT 25d0c 24 .cfa: sp 0 +
STACK CFI 25d10 .cfa: sp 32 +
STACK CFI 25d18 .cfa: x29 32 + x19: .cfa -16 + ^ .ra: .cfa -24 + ^ x29: .cfa -32 + ^
STACK CFI 25d24 .cfa: sp 32 +
STACK CFI 25d2c .cfa: sp 0 +
STACK CFI INIT 268cc 4 .cfa: sp 0 +
STACK CFI INIT 268d0 14 .cfa: sp 0 +
STACK CFI INIT 26dc4 110 .cfa: sp 0 +
STACK CFI INIT 26ed4 134 .cfa: sp 0 +
STACK CFI INIT 27008 c .cfa: sp 0 +
STACK CFI INIT 27014 24c .cfa: sp 0 +
STACK CFI INIT 27260 a0 .cfa: sp 0 +
STACK CFI 2726c .cfa: sp 32 +
STACK CFI 272c4 .cfa: sp 0 +
STACK CFI 272c8 .cfa: sp 32 +
STACK CFI 272d0 .cfa: sp 0 +
STACK CFI 272d4 .cfa: sp 32 +
STACK CFI 272e8 .cfa: sp 0 +
STACK CFI 272ec .cfa: sp 32 +
STACK CFI 272fc .cfa: sp 0 +
STACK CFI INIT 27300 38 .cfa: sp 0 +
STACK CFI 2730c .cfa: sp 32 +
STACK CFI 27334 .cfa: sp 0 +
STACK CFI INIT 275cc 7c .cfa: sp 0 +
STACK CFI 275d0 .cfa: sp 32 +
STACK CFI 275d8 .cfa: x29 32 + x19: .cfa -16 + ^ .ra: .cfa -24 + ^ x29: .cfa -32 + ^
STACK CFI 27604 .cfa: sp 32 +
STACK CFI 2760c .cfa: sp 0 +
STACK CFI 27610 .cfa: x29 32 +
STACK CFI 2763c .cfa: sp 32 +
STACK CFI 27644 .cfa: sp 0 +
STACK CFI INIT 27698 2c .cfa: sp 0 +
STACK CFI 2769c .cfa: sp 32 +
STACK CFI 276a4 .cfa: x29 32 + x19: .cfa -16 + ^ .ra: .cfa -24 + ^ x29: .cfa -32 + ^
STACK CFI 276b8 .cfa: sp 32 +
STACK CFI 276c0 .cfa: sp 0 +
STACK CFI INIT 27e84 64 .cfa: sp 0 +
STACK CFI 27e88 .cfa: sp 32 +
STACK CFI 27e90 .cfa: x29 32 + x19: .cfa -16 + ^ .ra: .cfa -24 + ^ x29: .cfa -32 + ^
STACK CFI 27eac .cfa: sp 32 +
STACK CFI 27eb4 .cfa: sp 0 +
STACK CFI 27eb8 .cfa: x29 32 +
STACK CFI 27edc .cfa: sp 32 +
STACK CFI 27ee4 .cfa: sp 0 +
STACK CFI INIT 27ee8 570 .cfa: sp 0 +
STACK CFI 27eec .cfa: sp 176 +
STACK CFI 27f00 .cfa: x29 64 + x19: .cfa -8 + ^ x20: .cfa -16 + ^ x21: .cfa -24 + ^ x22: .cfa -32 + ^ x23: .cfa -40 + ^ x24: .cfa -48 + ^ .ra: .cfa -56 + ^ x29: .cfa -64 + ^
STACK CFI 28130 .cfa: sp 176 +
STACK CFI 28144 .cfa: sp 0 +
STACK CFI 28148 .cfa: x29 64 +
STACK CFI 28194 .cfa: sp 176 +
STACK CFI 281a8 .cfa: sp 0 +
STACK CFI 281ac .cfa: x29 64 +
STACK CFI 281e4 .cfa: sp 176 +
STACK CFI 281f8 .cfa: sp 0 +
STACK CFI 281fc .cfa: x29 64 +
STACK CFI 28214 .cfa: sp 176 +
STACK CFI 28228 .cfa: sp 0 +
STACK CFI 2822c .cfa: x29 64 +
STACK CFI 2824c .cfa: sp 176 +
STACK CFI 28260 .cfa: sp 0 +
STACK CFI 28264 .cfa: x29 64 +
STACK CFI 2827c .cfa: sp 176 +
STACK CFI 28290 .cfa: sp 0 +
STACK CFI 28294 .cfa: x29 64 +
STACK CFI 282a8 .cfa: sp 176 +
STACK CFI 282bc .cfa: sp 0 +
STACK CFI 282c0 .cfa: x29 64 +
STACK CFI 282d4 .cfa: sp 176 +
STACK CFI 282e8 .cfa: sp 0 +
STACK CFI 282ec .cfa: x29 64 +
STACK CFI 282fc .cfa: sp 176 +
STACK CFI 28310 .cfa: sp 0 +
STACK CFI 28314 .cfa: x29 64 +
STACK CFI 28324 .cfa: sp 176 +
STACK CFI 28338 .cfa: sp 0 +
STACK CFI 2833c .cfa: x29 64 +
STACK CFI 28354 .cfa: sp 176 +
STACK CFI 28368 .cfa: sp 0 +
STACK CFI 2836c .cfa: x29 64 +
STACK CFI 28380 .cfa: sp 176 +
STACK CFI 28394 .cfa: sp 0 +
STACK CFI 28398 .cfa: x29 64 +
STACK CFI 283b0 .cfa: sp 176 +
STACK CFI 283c4 .cfa: sp 0 +
STACK CFI 283c8 .cfa: x29 64 +
STACK CFI 283f4 .cfa: sp 176 +
STACK CFI 28408 .cfa: sp 0 +
STACK CFI 2840c .cfa: x29 64 +
STACK CFI 28420 .cfa: sp 176 +
STACK CFI 28434 .cfa: sp 0 +
STACK CFI 28438 .cfa: x29 64 +
STACK CFI INIT 28458 228 .cfa: sp 0 +
STACK CFI INIT 28680 2dc .cfa: sp 0 +
STACK CFI INIT 2895c 53c .cfa: sp 0 +
STACK CFI INIT 28e98 78 .cfa: sp 0 +
STACK CFI 28e9c .cfa: sp 48 +
STACK CFI 28ea8 .cfa: x29 48 + x19: .cfa -8 + ^ x20: .cfa -16 + ^ x21: .cfa -24 + ^ x22: .cfa -32 + ^ .ra: .cfa -40 + ^ x29: .cfa -48 + ^
STACK CFI 28ef0 .cfa: sp 48 +
STACK CFI 28efc .cfa: sp 0 +
STACK CFI 28f00 .cfa: sp 48 +
STACK CFI 28f0c .cfa: sp 0 +
STACK CFI INIT 28f10 8c .cfa: sp 0 +
STACK CFI 28f14 .cfa: sp 32 +
STACK CFI 28f1c .cfa: x29 32 + x19: .cfa -16 + ^ .ra: .cfa -24 + ^ x29: .cfa -32 + ^
STACK CFI 28f50 .cfa: sp 32 +
STACK CFI 28f58 .cfa: sp 0 +
STACK CFI 28f5c .cfa: x29 32 +
STACK CFI 28f90 .cfa: sp 32 +
STACK CFI 28f98 .cfa: sp 0 +
STACK CFI INIT 28f9c 24 .cfa: sp 0 +
STACK CFI 28fa0 .cfa: sp 32 +
STACK CFI 28fa8 .cfa: x29 32 + x19: .cfa -16 + ^ .ra: .cfa -24 + ^ x29: .cfa -32 + ^
STACK CFI 28fb4 .cfa: sp 32 +
STACK CFI 28fbc .cfa: sp 0 +
STACK CFI INIT 28fc0 150 .cfa: sp 0 +
STACK CFI 28fc4 .cfa: sp 48 +
STACK CFI 28fd0 .cfa: x29 48 + x19: .cfa -8 + ^ x20: .cfa -16 + ^ x21: .cfa -24 + ^ x22: .cfa -32 + ^ .ra: .cfa -40 + ^ x29: .cfa -48 + ^
STACK CFI 29100 .cfa: sp 48 +
STACK CFI 2910c .cfa: sp 0 +
STACK CFI INIT 29110 68 .cfa: sp 0 +
STACK CFI 29114 .cfa: sp 64 +
STACK CFI 29120 .cfa: x29 32 + x19: .cfa -16 + ^ .ra: .cfa -24 + ^ x29: .cfa -32 + ^
STACK CFI 29164 .cfa: sp 64 +
STACK CFI 29170 .cfa: sp 0 +
STACK CFI 29174 .cfa: x29 32 +
STACK CFI INIT 29178 90 .cfa: sp 0 +
STACK CFI 2917c .cfa: sp 32 +
STACK CFI 29184 .cfa: x29 32 + x19: .cfa -8 + ^ x20: .cfa -16 + ^ .ra: .cfa -24 + ^ x29: .cfa -32 + ^
STACK CFI 291b0 .cfa: sp 32 +
STACK CFI 291b8 .cfa: sp 0 +
STACK CFI 291bc .cfa: x29 32 +
STACK CFI 291fc .cfa: sp 32 +
STACK CFI 29204 .cfa: sp 0 +
STACK CFI INIT 29208 ec .cfa: sp 0 +
STACK CFI 2920c .cfa: sp 112 +
STACK CFI 2921c .cfa: x29 48 + x19: .cfa -8 + ^ x20: .cfa -16 + ^ x21: .cfa -32 + ^ .ra: .cfa -40 + ^ x29: .cfa -48 + ^
STACK CFI 292dc .cfa: sp 112 +
STACK CFI 292ec .cfa: sp 0 +
STACK CFI 292f0 .cfa: x29 48 +
STACK CFI INIT 292f4 ec .cfa: sp 0 +
STACK CFI 292f8 .cfa: sp 112 +
STACK CFI 29308 .cfa: x29 48 + x19: .cfa -8 + ^ x20: .cfa -16 + ^ x21: .cfa -32 + ^ .ra: .cfa -40 + ^ x29: .cfa -48 + ^
STACK CFI 293c8 .cfa: sp 112 +
STACK CFI 293d8 .cfa: sp 0 +
STACK CFI 293dc .cfa: x29 48 +
STACK CFI INIT 293e0 48 .cfa: sp 0 +
STACK CFI 293e4 .cfa: sp 32 +
STACK CFI 293ec .cfa: x29 32 + x19: .cfa -8 + ^ x20: .cfa -16 + ^ .ra: .cfa -24 + ^ x29: .cfa -32 + ^
STACK CFI 29410 .cfa: sp 32 +
STACK CFI 29418 .cfa: sp 0 +
STACK CFI 2941c .cfa: x29 32 +
STACK CFI INIT 29428 98 .cfa: sp 0 +
STACK CFI 2942c .cfa: sp 80 +
STACK CFI 29438 .cfa: x29 32 + x19: .cfa -16 + ^ .ra: .cfa -24 + ^ x29: .cfa -32 + ^
STACK CFI 294ac .cfa: sp 80 +
STACK CFI 294b8 .cfa: sp 0 +
STACK CFI 294bc .cfa: x29 32 +
STACK CFI INIT 294c0 260 .cfa: sp 0 +
STACK CFI 294c4 .cfa: sp 112 +
STACK CFI 294dc .cfa: x29 80 + x19: .cfa -8 + ^ x20: .cfa -16 + ^ x21: .cfa -24 + ^ x22: .cfa -32 + ^ x23: .cfa -40 + ^ x24: .cfa -48 + ^ x25: .cfa -64 + ^ .ra: .cfa -72 + ^ x29: .cfa -80 + ^
STACK CFI 296c0 .cfa: sp 112 +
STACK CFI 296d8 .cfa: sp 0 +
STACK CFI 296dc .cfa: x29 80 +
STACK CFI INIT 29720 150 .cfa: sp 0 +
STACK CFI 29724 .cfa: sp 48 +
STACK CFI 29730 .cfa: x29 48 + x19: .cfa -8 + ^ x20: .cfa -16 + ^ x21: .cfa -24 + ^ x22: .cfa -32 + ^ .ra: .cfa -40 + ^ x29: .cfa -48 + ^
STACK CFI 29860 .cfa: sp 48 +
STACK CFI 2986c .cfa: sp 0 +
STACK CFI INIT 29870 1e0 .cfa: sp 0 +
STACK CFI 29874 .cfa: sp 96 +
STACK CFI 29888 .cfa: x29 64 + x19: .cfa -8 + ^ x20: .cfa -16 + ^ x21: .cfa -24 + ^ x22: .cfa -32 + ^ x23: .cfa -40 + ^ x24: .cfa -48 + ^ .ra: .cfa -56 + ^ x29: .cfa -64 + ^
STACK CFI 29a08 .cfa: sp 96 +
STACK CFI 29a1c .cfa: sp 0 +
STACK CFI 29a20 .cfa: x29 64 +
STACK CFI INIT 29a50 284 .cfa: sp 0 +
STACK CFI 29a54 .cfa: sp 112 +
STACK CFI 29a6c .cfa: x29 80 + x19: .cfa -8 + ^ x20: .cfa -16 + ^ x21: .cfa -24 + ^ x22: .cfa -32 + ^ x23: .cfa -40 + ^ x24: .cfa -48 + ^ x25: .cfa -64 + ^ .ra: .cfa -72 + ^ x29: .cfa -80 + ^
STACK CFI 29c74 .cfa: sp 112 +
STACK CFI 29c8c .cfa: sp 0 +
STACK CFI 29c90 .cfa: x29 80 +
STACK CFI INIT 29cd4 208 .cfa: sp 0 +
STACK CFI 29cd8 .cfa: sp 96 +
STACK CFI 29cec .cfa: x29 64 + x19: .cfa -8 + ^ x20: .cfa -16 + ^ x21: .cfa -24 + ^ x22: .cfa -32 + ^ x23: .cfa -40 + ^ x24: .cfa -48 + ^ .ra: .cfa -56 + ^ x29: .cfa -64 + ^
STACK CFI 29e94 .cfa: sp 96 +
STACK CFI 29ea8 .cfa: sp 0 +
STACK CFI 29eac .cfa: x29 64 +
STACK CFI INIT 29edc 360 .cfa: sp 0 +
STACK CFI 29ee0 .cfa: sp 160 +
STACK CFI 29efc .cfa: x29 96 + x19: .cfa -8 + ^ x20: .cfa -16 + ^ x21: .cfa -24 + ^ x22: .cfa -32 + ^ x23: .cfa -40 + ^ x24: .cfa -48 + ^ x25: .cfa -56 + ^ x26: .cfa -64 + ^ x27: .cfa -72 + ^ x28: .cfa -80 + ^ .ra: .cfa -88 + ^ x29: .cfa -96 + ^
STACK CFI 2a1c8 .cfa: sp 160 +
STACK CFI 2a1e4 .cfa: sp 0 +
STACK CFI 2a1e8 .cfa: x29 96 +
STACK CFI INIT 2a23c 314 .cfa: sp 0 +
STACK CFI 2a240 .cfa: sp 144 +
STACK CFI 2a25c .cfa: x29 96 + x19: .cfa -8 + ^ x20: .cfa -16 + ^ x21: .cfa -24 + ^ x22: .cfa -32 + ^ x23: .cfa -40 + ^ x24: .cfa -48 + ^ x25: .cfa -56 + ^ x26: .cfa -64 + ^ x27: .cfa -72 + ^ x28: .cfa -80 + ^ .ra: .cfa -88 + ^ x29: .cfa -96 + ^
STACK CFI 2a4d8 .cfa: sp 144 +
STACK CFI 2a4f4 .cfa: sp 0 +
STACK CFI 2a4f8 .cfa: x29 96 +
STACK CFI INIT 2a550 290 .cfa: sp 0 +
STACK CFI 2a554 .cfa: sp 128 +
STACK CFI 2a56c .cfa: x29 80 + x19: .cfa -8 + ^ x20: .cfa -16 + ^ x21: .cfa -24 + ^ x22: .cfa -32 + ^ x23: .cfa -40 + ^ x24: .cfa -48 + ^ x25: .cfa -56 + ^ x26: .cfa -64 + ^ .ra: .cfa -72 + ^ x29: .cfa -80 + ^
STACK CFI 2a7c0 .cfa: sp 128 +
STACK CFI 2a7d8 .cfa: sp 0 +
STACK CFI 2a7dc .cfa: x29 80 +
STACK CFI INIT 2a7e0 ddc .cfa: sp 0 +
STACK CFI 2a7e4 .cfa: sp 144 +
STACK CFI 2a800 .cfa: x29 96 + x19: .cfa -8 + ^ x20: .cfa -16 + ^ x21: .cfa -24 + ^ x22: .cfa -32 + ^ x23: .cfa -40 + ^ x24: .cfa -48 + ^ x25: .cfa -56 + ^ x26: .cfa -64 + ^ x27: .cfa -72 + ^ x28: .cfa -80 + ^ .ra: .cfa -88 + ^ x29: .cfa -96 + ^
STACK CFI 2b494 .cfa: sp 144 +
STACK CFI 2b4b0 .cfa: sp 0 +
STACK CFI 2b4b4 .cfa: x29 96 +
STACK CFI INIT 2b5bc 1d0 .cfa: sp 0 +
STACK CFI 2b5c0 .cfa: sp 80 +
STACK CFI 2b5d4 .cfa: x29 80 + x19: .cfa -8 + ^ x20: .cfa -16 + ^ x21: .cfa -24 + ^ x22: .cfa -32 + ^ x23: .cfa -40 + ^ x24: .cfa -48 + ^ x25: .cfa -64 + ^ .ra: .cfa -72 + ^ x29: .cfa -80 + ^
STACK CFI 2b774 .cfa: sp 80 +
STACK CFI 2b788 .cfa: sp 0 +
STACK CFI INIT 2b78c 23c .cfa: sp 0 +
STACK CFI 2b790 .cfa: sp 112 +
STACK CFI 2b7a4 .cfa: x29 64 + x19: .cfa -8 + ^ x20: .cfa -16 + ^ x21: .cfa -24 + ^ x22: .cfa -32 + ^ x23: .cfa -40 + ^ x24: .cfa -48 + ^ .ra: .cfa -56 + ^ x29: .cfa -64 + ^
STACK CFI 2b980 .cfa: sp 112 +
STACK CFI 2b994 .cfa: sp 0 +
STACK CFI 2b998 .cfa: x29 64 +
STACK CFI INIT 2b9c8 30c .cfa: sp 0 +
STACK CFI 2b9cc .cfa: sp 80 +
STACK CFI 2b9e0 .cfa: x29 64 + x19: .cfa -8 + ^ x20: .cfa -16 + ^ x21: .cfa -24 + ^ x22: .cfa -32 + ^ x23: .cfa -40 + ^ x24: .cfa -48 + ^ .ra: .cfa -56 + ^ x29: .cfa -64 + ^
STACK CFI 2bb5c .cfa: sp 80 +
STACK CFI 2bb70 .cfa: sp 0 +
STACK CFI 2bb74 .cfa: x29 64 +
STACK CFI INIT 2bcd4 178 .cfa: sp 0 +
STACK CFI 2bcd8 .cfa: sp 80 +
STACK CFI 2bcec .cfa: x29 64 + x19: .cfa -8 + ^ x20: .cfa -16 + ^ x21: .cfa -24 + ^ x22: .cfa -32 + ^ x23: .cfa -40 + ^ x24: .cfa -48 + ^ .ra: .cfa -56 + ^ x29: .cfa -64 + ^
STACK CFI 2be30 .cfa: sp 80 +
STACK CFI 2be44 .cfa: sp 0 +
STACK CFI 2be48 .cfa: x29 64 +
STACK CFI INIT 2be4c 178 .cfa: sp 0 +
STACK CFI 2be50 .cfa: sp 80 +
STACK CFI 2be64 .cfa: x29 64 + x19: .cfa -8 + ^ x20: .cfa -16 + ^ x21: .cfa -24 + ^ x22: .cfa -32 + ^ x23: .cfa -40 + ^ x24: .cfa -48 + ^ .ra: .cfa -56 + ^ x29: .cfa -64 + ^
STACK CFI 2bfa8 .cfa: sp 80 +
STACK CFI 2bfbc .cfa: sp 0 +
STACK CFI 2bfc0 .cfa: x29 64 +
STACK CFI INIT 2bfc4 240 .cfa: sp 0 +
STACK CFI 2bfc8 .cfa: sp 96 +
STACK CFI 2bfe0 .cfa: x29 96 + x19: .cfa -8 + ^ x20: .cfa -16 + ^ x21: .cfa -24 + ^ x22: .cfa -32 + ^ x23: .cfa -40 + ^ x24: .cfa -48 + ^ x25: .cfa -56 + ^ x26: .cfa -64 + ^ x27: .cfa -72 + ^ x28: .cfa -80 + ^ .ra: .cfa -88 + ^ x29: .cfa -96 + ^
STACK CFI 2c1e8 .cfa: sp 96 +
STACK CFI 2c200 .cfa: sp 0 +
STACK CFI INIT 2ce78 154 .cfa: sp 0 +
STACK CFI 2ce7c .cfa: sp 96 +
STACK CFI 2ce90 .cfa: x29 64 + x19: .cfa -8 + ^ x20: .cfa -16 + ^ x21: .cfa -24 + ^ x22: .cfa -32 + ^ x23: .cfa -48 + ^ .ra: .cfa -56 + ^ x29: .cfa -64 + ^
STACK CFI 2cf70 .cfa: sp 96 +
STACK CFI 2cf84 .cfa: sp 0 +
STACK CFI 2cf88 .cfa: x29 64 +
STACK CFI INIT 2d238 44 .cfa: sp 0 +
STACK CFI 2d23c .cfa: sp 32 +
STACK CFI 2d244 .cfa: x29 32 + x19: .cfa -16 + ^ .ra: .cfa -24 + ^ x29: .cfa -32 + ^
STACK CFI 2d260 .cfa: sp 32 +
STACK CFI 2d268 .cfa: sp 0 +
STACK CFI 2d26c .cfa: x29 32 +
STACK CFI 2d270 .cfa: sp 32 +
STACK CFI 2d278 .cfa: sp 0 +
STACK CFI INIT 2d27c 1d0 .cfa: sp 0 +
STACK CFI 2d280 .cfa: sp 64 +
STACK CFI 2d290 .cfa: x29 64 + x19: .cfa -8 + ^ x20: .cfa -16 + ^ x21: .cfa -24 + ^ x22: .cfa -32 + ^ x23: .cfa -40 + ^ x24: .cfa -48 + ^ .ra: .cfa -56 + ^ x29: .cfa -64 + ^
STACK CFI 2d350 .cfa: sp 64 +
STACK CFI 2d360 .cfa: sp 0 +
STACK CFI 2d364 .cfa: x29 64 +
STACK CFI INIT 2d44c 17c .cfa: sp 0 +
STACK CFI INIT 2d980 a0 .cfa: sp 0 +
STACK CFI 2d984 .cfa: sp 48 +
STACK CFI 2d990 .cfa: x29 48 + x19: .cfa -8 + ^ x20: .cfa -16 + ^ x21: .cfa -24 + ^ x22: .cfa -32 + ^ .ra: .cfa -40 + ^ x29: .cfa -48 + ^
STACK CFI 2d9fc .cfa: sp 48 +
STACK CFI 2da08 .cfa: sp 0 +
STACK CFI 2da0c .cfa: sp 48 +
STACK CFI 2da18 .cfa: sp 0 +
STACK CFI 2da1c .cfa: x29 48 +
STACK CFI INIT 2e6d4 158 .cfa: sp 0 +
STACK CFI 2e6d8 .cfa: sp 96 +
STACK CFI 2e6ec .cfa: x29 64 + x19: .cfa -8 + ^ x20: .cfa -16 + ^ x21: .cfa -24 + ^ x22: .cfa -32 + ^ x23: .cfa -48 + ^ .ra: .cfa -56 + ^ x29: .cfa -64 + ^
STACK CFI 2e7d0 .cfa: sp 96 +
STACK CFI 2e7e4 .cfa: sp 0 +
STACK CFI 2e7e8 .cfa: x29 64 +
STACK CFI INIT 2e82c 190 .cfa: sp 0 +
STACK CFI INIT 2f4b8 1dc .cfa: sp 0 +
STACK CFI 2f4bc .cfa: sp 80 +
STACK CFI 2f4d0 .cfa: x29 80 + x19: .cfa -8 + ^ x20: .cfa -16 + ^ x21: .cfa -24 + ^ x22: .cfa -32 + ^ x23: .cfa -40 + ^ x24: .cfa -48 + ^ x25: .cfa -64 + ^ .ra: .cfa -72 + ^ x29: .cfa -80 + ^
STACK CFI 2f67c .cfa: sp 80 +
STACK CFI 2f690 .cfa: sp 0 +
STACK CFI INIT 30ac4 124 .cfa: sp 0 +
STACK CFI 30af4 .cfa: sp 32 +
STACK CFI 30afc .cfa: x29 32 + x19: .cfa -8 + ^ x20: .cfa -16 + ^ .ra: .cfa -24 + ^ x29: .cfa -32 + ^
STACK CFI 30bdc .cfa: sp 32 +
STACK CFI 30be4 .cfa: sp 0 +
STACK CFI INIT 31344 320 .cfa: sp 0 +
STACK CFI 31348 .cfa: sp 64 +
STACK CFI 31358 .cfa: x29 64 + x19: .cfa -8 + ^ x20: .cfa -16 + ^ x21: .cfa -24 + ^ x22: .cfa -32 + ^ x23: .cfa -40 + ^ x24: .cfa -48 + ^ .ra: .cfa -56 + ^ x29: .cfa -64 + ^
STACK CFI 313d4 .cfa: sp 64 +
STACK CFI 313e4 .cfa: sp 0 +
STACK CFI 313e8 .cfa: x29 64 +
STACK CFI 315bc .cfa: sp 64 +
STACK CFI 315cc .cfa: sp 0 +
STACK CFI 315d0 .cfa: x29 64 +
STACK CFI 315e0 .cfa: sp 64 +
STACK CFI 315f0 .cfa: sp 0 +
STACK CFI 315f4 .cfa: x29 64 +
STACK CFI INIT 31664 a0 .cfa: sp 0 +
STACK CFI 31668 .cfa: sp 48 +
STACK CFI 31674 .cfa: x29 48 + x19: .cfa -8 + ^ x20: .cfa -16 + ^ x21: .cfa -24 + ^ x22: .cfa -32 + ^ .ra: .cfa -40 + ^ x29: .cfa -48 + ^
STACK CFI 316e0 .cfa: sp 48 +
STACK CFI 316ec .cfa: sp 0 +
STACK CFI 316f0 .cfa: sp 48 +
STACK CFI 316fc .cfa: sp 0 +
STACK CFI 31700 .cfa: x29 48 +
STACK CFI INIT 325b4 160 .cfa: sp 0 +
STACK CFI 325b8 .cfa: sp 64 +
STACK CFI 325c8 .cfa: x29 64 + x19: .cfa -8 + ^ x20: .cfa -16 + ^ x21: .cfa -24 + ^ x22: .cfa -32 + ^ x23: .cfa -48 + ^ .ra: .cfa -56 + ^ x29: .cfa -64 + ^
STACK CFI 326c0 .cfa: sp 64 +
STACK CFI 326d0 .cfa: sp 0 +
STACK CFI 326d4 .cfa: x29 64 +
STACK CFI INIT 32714 214 .cfa: sp 0 +
STACK CFI 32718 .cfa: sp 128 +
STACK CFI 32734 .cfa: x29 96 + x19: .cfa -8 + ^ x20: .cfa -16 + ^ x21: .cfa -24 + ^ x22: .cfa -32 + ^ x23: .cfa -40 + ^ x24: .cfa -48 + ^ x25: .cfa -56 + ^ x26: .cfa -64 + ^ x27: .cfa -80 + ^ .ra: .cfa -88 + ^ x29: .cfa -96 + ^
STACK CFI 328b0 .cfa: sp 128 +
STACK CFI 328cc .cfa: sp 0 +
STACK CFI 328d0 .cfa: x29 96 +
STACK CFI INIT 345c4 290 .cfa: sp 0 +
STACK CFI 345c8 .cfa: sp 16 +
STACK CFI 345cc .cfa: x29 16 + .ra: .cfa -8 + ^ x29: .cfa -16 + ^
STACK CFI 34658 .cfa: sp 16 +
STACK CFI 3465c .cfa: sp 0 +
STACK CFI 34660 .cfa: x29 16 +
STACK CFI 346b0 .cfa: sp 16 +
STACK CFI 346b4 .cfa: sp 0 +
STACK CFI 346b8 .cfa: x29 16 +
STACK CFI 3481c .cfa: sp 16 +
STACK CFI 34820 .cfa: sp 0 +
STACK CFI 34824 .cfa: x29 16 +
STACK CFI INIT 34854 158 .cfa: sp 0 +
STACK CFI 34858 .cfa: sp 112 +
STACK CFI 34874 .cfa: x29 96 + x19: .cfa -8 + ^ x20: .cfa -16 + ^ x21: .cfa -24 + ^ x22: .cfa -32 + ^ x23: .cfa -40 + ^ x24: .cfa -48 + ^ x25: .cfa -56 + ^ x26: .cfa -64 + ^ x27: .cfa -72 + ^ x28: .cfa -80 + ^ .ra: .cfa -88 + ^ x29: .cfa -96 + ^
STACK CFI 3495c .cfa: sp 112 +
STACK CFI 34960 .cfa: x29 96 +
STACK CFI 34968 .cfa: sp 112 +
STACK CFI 34984 .cfa: sp 0 +
STACK CFI 34988 .cfa: x29 96 +
STACK CFI 349a8 .cfa: sp 112 +
STACK CFI INIT 349ac e54 .cfa: sp 0 +
STACK CFI 349b0 .cfa: sp 192 +
STACK CFI 349cc .cfa: x29 96 + x19: .cfa -8 + ^ x20: .cfa -16 + ^ x21: .cfa -24 + ^ x22: .cfa -32 + ^ x23: .cfa -40 + ^ x24: .cfa -48 + ^ x25: .cfa -56 + ^ x26: .cfa -64 + ^ x27: .cfa -72 + ^ x28: .cfa -80 + ^ .ra: .cfa -88 + ^ x29: .cfa -96 + ^
STACK CFI 356e8 .cfa: sp 192 +
STACK CFI 35704 .cfa: sp 0 +
STACK CFI 35708 .cfa: x29 96 +
STACK CFI INIT 35800 1068 .cfa: sp 0 +
STACK CFI 35804 .cfa: sp 288 +
STACK CFI 35820 .cfa: x29 96 + x19: .cfa -8 + ^ x20: .cfa -16 + ^ x21: .cfa -24 + ^ x22: .cfa -32 + ^ x23: .cfa -40 + ^ x24: .cfa -48 + ^ x25: .cfa -56 + ^ x26: .cfa -64 + ^ x27: .cfa -72 + ^ x28: .cfa -80 + ^ .ra: .cfa -88 + ^ x29: .cfa -96 + ^
STACK CFI 365b0 .cfa: sp 288 +
STACK CFI 365cc .cfa: sp 0 +
STACK CFI 365d0 .cfa: x29 96 +
STACK CFI INIT 36868 520 .cfa: sp 0 +
STACK CFI 3686c .cfa: sp 144 +
STACK CFI 36888 .cfa: x29 96 + x19: .cfa -8 + ^ x20: .cfa -16 + ^ x21: .cfa -24 + ^ x22: .cfa -32 + ^ x23: .cfa -40 + ^ x24: .cfa -48 + ^ x25: .cfa -56 + ^ x26: .cfa -64 + ^ x27: .cfa -72 + ^ x28: .cfa -80 + ^ .ra: .cfa -88 + ^ x29: .cfa -96 + ^
STACK CFI 36d64 .cfa: sp 144 +
STACK CFI 36d80 .cfa: sp 0 +
STACK CFI 36d84 .cfa: x29 96 +
STACK CFI INIT 37728 136c .cfa: sp 0 +
STACK CFI 3772c .cfa: sp 224 +
STACK CFI 37748 .cfa: x29 96 + x19: .cfa -8 + ^ x20: .cfa -16 + ^ x21: .cfa -24 + ^ x22: .cfa -32 + ^ x23: .cfa -40 + ^ x24: .cfa -48 + ^ x25: .cfa -56 + ^ x26: .cfa -64 + ^ x27: .cfa -72 + ^ x28: .cfa -80 + ^ .ra: .cfa -88 + ^ x29: .cfa -96 + ^
STACK CFI 38a70 .cfa: sp 224 +
STACK CFI 38a8c .cfa: sp 0 +
STACK CFI 38a90 .cfa: x29 96 +
STACK CFI INIT 38a94 1b8 .cfa: sp 0 +
STACK CFI INIT 15330 3384 .cfa: sp 0 +
STACK CFI 15334 .cfa: sp 112 +
STACK CFI 15350 .cfa: x29 96 + x19: .cfa -8 + ^ x20: .cfa -16 + ^ x21: .cfa -24 + ^ x22: .cfa -32 + ^ x23: .cfa -40 + ^ x24: .cfa -48 + ^ x25: .cfa -56 + ^ x26: .cfa -64 + ^ x27: .cfa -72 + ^ x28: .cfa -80 + ^ .ra: .cfa -88 + ^ x29: .cfa -96 + ^ v8: .cfa -112 + ^
STACK CFI 17e7c .cfa: sp 112 +
STACK CFI 17e98 .cfa: sp 0 +
STACK CFI 17e9c .cfa: x29 96 +
STACK CFI INIT 186b4 118 .cfa: sp 0 +
STACK CFI 186b8 .cfa: sp 80 +
STACK CFI 186c8 .cfa: x29 48 + x19: .cfa -8 + ^ x20: .cfa -16 + ^ x21: .cfa -24 + ^ x22: .cfa -32 + ^ .ra: .cfa -40 + ^ x29: .cfa -48 + ^
STACK CFI 187b0 .cfa: sp 80 +
STACK CFI 187c0 .cfa: sp 0 +
STACK CFI 187c4 .cfa: x29 48 +
STACK CFI INIT 187cc 120 .cfa: sp 0 +
STACK CFI 187d0 .cfa: sp 80 +
STACK CFI 187e0 .cfa: x29 48 + x19: .cfa -8 + ^ x20: .cfa -16 + ^ x21: .cfa -24 + ^ x22: .cfa -32 + ^ .ra: .cfa -40 + ^ x29: .cfa -48 + ^
STACK CFI 188d0 .cfa: sp 80 +
STACK CFI 188e0 .cfa: sp 0 +
STACK CFI 188e4 .cfa: x29 48 +
STACK CFI INIT 188ec 134 .cfa: sp 0 +
STACK CFI 188f0 .cfa: sp 80 +
STACK CFI 18900 .cfa: x29 48 + x19: .cfa -8 + ^ x20: .cfa -16 + ^ x21: .cfa -24 + ^ x22: .cfa -32 + ^ .ra: .cfa -40 + ^ x29: .cfa -48 + ^
STACK CFI 18a04 .cfa: sp 80 +
STACK CFI 18a14 .cfa: sp 0 +
STACK CFI 18a18 .cfa: x29 48 +
STACK CFI INIT 18a20 b0 .cfa: sp 0 +
STACK CFI 18a24 .cfa: sp 64 +
STACK CFI 18a30 .cfa: x29 32 + x19: .cfa -8 + ^ x20: .cfa -16 + ^ .ra: .cfa -24 + ^ x29: .cfa -32 + ^
STACK CFI 18a88 .cfa: sp 64 +
STACK CFI 18a94 .cfa: sp 0 +
STACK CFI 18a98 .cfa: x29 32 +
STACK CFI INIT 18ad0 440 .cfa: sp 0 +
STACK CFI 18ad4 .cfa: sp 224 +
STACK CFI 18af0 .cfa: x29 96 + x19: .cfa -8 + ^ x20: .cfa -16 + ^ x21: .cfa -24 + ^ x22: .cfa -32 + ^ x23: .cfa -40 + ^ x24: .cfa -48 + ^ x25: .cfa -56 + ^ x26: .cfa -64 + ^ x27: .cfa -72 + ^ x28: .cfa -80 + ^ .ra: .cfa -88 + ^ x29: .cfa -96 + ^
STACK CFI 18e40 .cfa: sp 224 +
STACK CFI 18e5c .cfa: sp 0 +
STACK CFI 18e60 .cfa: x29 96 +
STACK CFI INIT 18f10 418 .cfa: sp 0 +
STACK CFI 18f14 .cfa: sp 96 +
STACK CFI 18f28 .cfa: x29 64 + x19: .cfa -8 + ^ x20: .cfa -16 + ^ x21: .cfa -24 + ^ x22: .cfa -32 + ^ x23: .cfa -48 + ^ .ra: .cfa -56 + ^ x29: .cfa -64 + ^
STACK CFI 192a8 .cfa: sp 96 +
STACK CFI 192bc .cfa: sp 0 +
STACK CFI 192c0 .cfa: x29 64 +
STACK CFI 192d4 .cfa: sp 96 +
STACK CFI 192e8 .cfa: sp 0 +
STACK CFI 192ec .cfa: x29 64 +
STACK CFI INIT 19328 158 .cfa: sp 0 +
STACK CFI 1932c .cfa: sp 144 +
STACK CFI 19340 .cfa: x29 64 + x19: .cfa -8 + ^ x20: .cfa -16 + ^ x21: .cfa -24 + ^ x22: .cfa -32 + ^ x23: .cfa -40 + ^ x24: .cfa -48 + ^ .ra: .cfa -56 + ^ x29: .cfa -64 + ^
STACK CFI 19414 .cfa: sp 144 +
STACK CFI 19428 .cfa: sp 0 +
STACK CFI 1942c .cfa: x29 64 +
STACK CFI INIT 194fc 8e0 .cfa: sp 0 +
STACK CFI 19500 .cfa: sp 128 +
STACK CFI 19510 .cfa: x29 48 + x19: .cfa -8 + ^ x20: .cfa -16 + ^ x21: .cfa -24 + ^ x22: .cfa -32 + ^ .ra: .cfa -40 + ^ x29: .cfa -48 + ^
STACK CFI 19d20 .cfa: sp 128 +
STACK CFI 19d30 .cfa: sp 0 +
STACK CFI 19d34 .cfa: x29 48 +
STACK CFI INIT 19ddc 13e4 .cfa: sp 0 +
STACK CFI 19de0 .cfa: sp 368 +
STACK CFI 19e08 .cfa: x29 96 + x19: .cfa -8 + ^ x20: .cfa -16 + ^ x21: .cfa -24 + ^ x22: .cfa -32 + ^ x23: .cfa -40 + ^ x24: .cfa -48 + ^ x25: .cfa -56 + ^ x26: .cfa -64 + ^ x27: .cfa -72 + ^ x28: .cfa -80 + ^ .ra: .cfa -88 + ^ x29: .cfa -96 + ^ v8: .cfa -104 + ^ v9: .cfa -112 + ^ v10: .cfa -120 + ^ v11: .cfa -128 + ^ v12: .cfa -136 + ^ v13: .cfa -144 + ^
STACK CFI 1afd8 .cfa: sp 368 +
STACK CFI 1b000 .cfa: sp 0 +
STACK CFI 1b004 .cfa: x29 96 +
STACK CFI INIT 1b1c0 274 .cfa: sp 0 +
STACK CFI 1b1c4 .cfa: sp 128 +
STACK CFI 1b1d8 .cfa: x29 48 + x19: .cfa -8 + ^ x20: .cfa -16 + ^ x21: .cfa -24 + ^ x22: .cfa -32 + ^ .ra: .cfa -40 + ^ x29: .cfa -48 + ^ v8: .cfa -64 + ^
STACK CFI 1b28c .cfa: sp 128 +
STACK CFI 1b2a0 .cfa: sp 0 +
STACK CFI 1b2a4 .cfa: x29 48 +
STACK CFI INIT 1b434 2f0 .cfa: sp 0 +
STACK CFI 1b438 .cfa: sp 96 +
STACK CFI 1b454 .cfa: x29 88 + x19: .cfa -8 + ^ x20: .cfa -16 + ^ x21: .cfa -24 + ^ x22: .cfa -32 + ^ x23: .cfa -40 + ^ x24: .cfa -48 + ^ x25: .cfa -56 + ^ x26: .cfa -64 + ^ x28: .cfa -72 + ^ .ra: .cfa -80 + ^ x29: .cfa -88 + ^ v8: .cfa -96 + ^
STACK CFI 1b69c .cfa: sp 96 +
STACK CFI 1b6b8 .cfa: sp 0 +
STACK CFI 1b6bc .cfa: x29 88 +
STACK CFI INIT 1b724 228 .cfa: sp 0 +
STACK CFI 1b728 .cfa: sp 176 +
STACK CFI 1b73c .cfa: x29 48 + x19: .cfa -8 + ^ x20: .cfa -16 + ^ x21: .cfa -24 + ^ x22: .cfa -32 + ^ .ra: .cfa -40 + ^ x29: .cfa -48 + ^ v8: .cfa -56 + ^ v9: .cfa -64 + ^
STACK CFI 1b900 .cfa: sp 176 +
STACK CFI 1b914 .cfa: sp 0 +
STACK CFI 1b918 .cfa: x29 48 +
STACK CFI INIT 1b94c 9ec .cfa: sp 0 +
STACK CFI 1b950 .cfa: sp 112 +
STACK CFI 1b96c .cfa: x29 96 + x19: .cfa -8 + ^ x20: .cfa -16 + ^ x21: .cfa -24 + ^ x22: .cfa -32 + ^ x23: .cfa -40 + ^ x24: .cfa -48 + ^ x25: .cfa -56 + ^ x26: .cfa -64 + ^ x27: .cfa -72 + ^ x28: .cfa -80 + ^ .ra: .cfa -88 + ^ x29: .cfa -96 + ^ v8: .cfa -112 + ^
STACK CFI 1c1a8 .cfa: sp 112 +
STACK CFI 1c1c4 .cfa: sp 0 +
STACK CFI 1c1c8 .cfa: x29 96 +
STACK CFI INIT 1c894 130 .cfa: sp 0 +
STACK CFI 1c898 .cfa: sp 96 +
STACK CFI 1c8ac .cfa: x29 48 + x19: .cfa -8 + ^ x20: .cfa -16 + ^ x21: .cfa -24 + ^ x22: .cfa -32 + ^ .ra: .cfa -40 + ^ x29: .cfa -48 + ^ v8: .cfa -64 + ^
STACK CFI 1c9a4 .cfa: sp 96 +
STACK CFI 1c9b8 .cfa: sp 0 +
STACK CFI 1c9bc .cfa: x29 48 +
STACK CFI INIT 1c9c4 249c .cfa: sp 0 +
STACK CFI 1c9c8 .cfa: sp 96 +
STACK CFI 1c9e0 .cfa: x29 96 + x19: .cfa -8 + ^ x20: .cfa -16 + ^ x21: .cfa -24 + ^ x22: .cfa -32 + ^ x23: .cfa -40 + ^ x24: .cfa -48 + ^ x25: .cfa -56 + ^ x26: .cfa -64 + ^ x27: .cfa -72 + ^ x28: .cfa -80 + ^ .ra: .cfa -88 + ^ x29: .cfa -96 + ^
STACK CFI 1e7a8 .cfa: sp 96 +
STACK CFI 1e7c0 .cfa: sp 0 +
STACK CFI 1e7c4 .cfa: x29 96 +
STACK CFI INIT 1eeb8 50 .cfa: sp 0 +
STACK CFI 1eebc .cfa: sp 32 +
STACK CFI 1eec4 .cfa: x29 32 + x19: .cfa -8 + ^ x20: .cfa -16 + ^ .ra: .cfa -24 + ^ x29: .cfa -32 + ^
STACK CFI INIT 1ef48 50 .cfa: sp 0 +
STACK CFI 1ef4c .cfa: sp 32 +
STACK CFI 1ef54 .cfa: x29 32 + x19: .cfa -8 + ^ x20: .cfa -16 + ^ .ra: .cfa -24 + ^ x29: .cfa -32 + ^
STACK CFI INIT 1f04c 1d8 .cfa: sp 0 +
STACK CFI 1f050 .cfa: sp 128 +
STACK CFI 1f06c .cfa: x29 96 + x19: .cfa -8 + ^ x20: .cfa -16 + ^ x21: .cfa -24 + ^ x22: .cfa -32 + ^ x23: .cfa -40 + ^ x24: .cfa -48 + ^ x25: .cfa -56 + ^ x26: .cfa -64 + ^ x27: .cfa -72 + ^ x28: .cfa -80 + ^ .ra: .cfa -88 + ^ x29: .cfa -96 + ^
STACK CFI 1f1dc .cfa: sp 128 +
STACK CFI 1f1f8 .cfa: sp 0 +
STACK CFI 1f1fc .cfa: x29 96 +
STACK CFI INIT 1fb34 1e0 .cfa: sp 0 +
STACK CFI 1fb38 .cfa: sp 128 +
STACK CFI 1fb54 .cfa: x29 96 + x19: .cfa -8 + ^ x20: .cfa -16 + ^ x21: .cfa -24 + ^ x22: .cfa -32 + ^ x23: .cfa -40 + ^ x24: .cfa -48 + ^ x25: .cfa -56 + ^ x26: .cfa -64 + ^ x27: .cfa -72 + ^ x28: .cfa -80 + ^ .ra: .cfa -88 + ^ x29: .cfa -96 + ^
STACK CFI 1fccc .cfa: sp 128 +
STACK CFI 1fce8 .cfa: sp 0 +
STACK CFI 1fcec .cfa: x29 96 +
STACK CFI INIT 1fd68 4f0 .cfa: sp 0 +
STACK CFI 1fd6c .cfa: sp 128 +
STACK CFI 1fd88 .cfa: x29 96 + x19: .cfa -8 + ^ x20: .cfa -16 + ^ x21: .cfa -24 + ^ x22: .cfa -32 + ^ x23: .cfa -40 + ^ x24: .cfa -48 + ^ x25: .cfa -56 + ^ x26: .cfa -64 + ^ x27: .cfa -72 + ^ x28: .cfa -80 + ^ .ra: .cfa -88 + ^ x29: .cfa -96 + ^
STACK CFI 20210 .cfa: sp 128 +
STACK CFI 2022c .cfa: sp 0 +
STACK CFI 20230 .cfa: x29 96 +
STACK CFI INIT 202a8 e8 .cfa: sp 0 +
STACK CFI 202ac .cfa: sp 48 +
STACK CFI 202b8 .cfa: x29 48 + x19: .cfa -8 + ^ x20: .cfa -16 + ^ x21: .cfa -24 + ^ x22: .cfa -32 + ^ .ra: .cfa -40 + ^ x29: .cfa -48 + ^
STACK CFI 20324 .cfa: sp 48 +
STACK CFI 20330 .cfa: sp 0 +
STACK CFI 20334 .cfa: x29 48 +
STACK CFI 20348 .cfa: sp 48 +
STACK CFI 20354 .cfa: sp 0 +
STACK CFI 20358 .cfa: x29 48 +
STACK CFI INIT 20390 304 .cfa: sp 0 +
STACK CFI 20394 .cfa: sp 144 +
STACK CFI 203b0 .cfa: x29 96 + x19: .cfa -8 + ^ x20: .cfa -16 + ^ x21: .cfa -24 + ^ x22: .cfa -32 + ^ x23: .cfa -40 + ^ x24: .cfa -48 + ^ x25: .cfa -56 + ^ x26: .cfa -64 + ^ x27: .cfa -72 + ^ x28: .cfa -80 + ^ .ra: .cfa -88 + ^ x29: .cfa -96 + ^
STACK CFI 20624 .cfa: sp 144 +
STACK CFI 20640 .cfa: sp 0 +
STACK CFI 20644 .cfa: x29 96 +
STACK CFI INIT 20a70 484 .cfa: sp 0 +
STACK CFI 20a74 .cfa: sp 224 +
STACK CFI 20a90 .cfa: x29 96 + x19: .cfa -8 + ^ x20: .cfa -16 + ^ x21: .cfa -24 + ^ x22: .cfa -32 + ^ x23: .cfa -40 + ^ x24: .cfa -48 + ^ x25: .cfa -56 + ^ x26: .cfa -64 + ^ x27: .cfa -72 + ^ x28: .cfa -80 + ^ .ra: .cfa -88 + ^ x29: .cfa -96 + ^
STACK CFI 20d00 .cfa: sp 224 +
STACK CFI 20d1c .cfa: sp 0 +
STACK CFI 20d20 .cfa: x29 96 +
STACK CFI 20dec .cfa: sp 224 +
STACK CFI 20e08 .cfa: sp 0 +
STACK CFI 20e0c .cfa: x29 96 +
STACK CFI INIT 20f0c 484 .cfa: sp 0 +
STACK CFI 20f10 .cfa: sp 224 +
STACK CFI 20f2c .cfa: x29 96 + x19: .cfa -8 + ^ x20: .cfa -16 + ^ x21: .cfa -24 + ^ x22: .cfa -32 + ^ x23: .cfa -40 + ^ x24: .cfa -48 + ^ x25: .cfa -56 + ^ x26: .cfa -64 + ^ x27: .cfa -72 + ^ x28: .cfa -80 + ^ .ra: .cfa -88 + ^ x29: .cfa -96 + ^
STACK CFI 2119c .cfa: sp 224 +
STACK CFI 211b8 .cfa: sp 0 +
STACK CFI 211bc .cfa: x29 96 +
STACK CFI 21288 .cfa: sp 224 +
STACK CFI 212a4 .cfa: sp 0 +
STACK CFI 212a8 .cfa: x29 96 +
STACK CFI INIT 213a8 56c .cfa: sp 0 +
STACK CFI 213ac .cfa: sp 224 +
STACK CFI 213c8 .cfa: x29 96 + x19: .cfa -8 + ^ x20: .cfa -16 + ^ x21: .cfa -24 + ^ x22: .cfa -32 + ^ x23: .cfa -40 + ^ x24: .cfa -48 + ^ x25: .cfa -56 + ^ x26: .cfa -64 + ^ x27: .cfa -72 + ^ x28: .cfa -80 + ^ .ra: .cfa -88 + ^ x29: .cfa -96 + ^
STACK CFI 21708 .cfa: sp 224 +
STACK CFI 21724 .cfa: sp 0 +
STACK CFI 21728 .cfa: x29 96 +
STACK CFI 217f4 .cfa: sp 224 +
STACK CFI 21810 .cfa: sp 0 +
STACK CFI 21814 .cfa: x29 96 +
STACK CFI INIT 2192c 34c .cfa: sp 0 +
STACK CFI 21930 .cfa: sp 192 +
STACK CFI 21944 .cfa: x29 64 + x19: .cfa -8 + ^ x20: .cfa -16 + ^ x21: .cfa -24 + ^ x22: .cfa -32 + ^ x23: .cfa -40 + ^ x24: .cfa -48 + ^ .ra: .cfa -56 + ^ x29: .cfa -64 + ^
STACK CFI 21b54 .cfa: sp 192 +
STACK CFI 21b68 .cfa: sp 0 +
STACK CFI 21b6c .cfa: x29 64 +
STACK CFI INIT 21cc8 74 .cfa: sp 0 +
STACK CFI 21ccc .cfa: sp 48 +
STACK CFI 21cd8 .cfa: x29 32 + x19: .cfa -8 + ^ x20: .cfa -16 + ^ .ra: .cfa -24 + ^ x29: .cfa -32 + ^
STACK CFI 21d24 .cfa: sp 48 +
STACK CFI 21d30 .cfa: sp 0 +
STACK CFI 21d34 .cfa: x29 32 +
STACK CFI INIT 21d40 154 .cfa: sp 0 +
STACK CFI 21d44 .cfa: sp 384 +
STACK CFI 21d58 .cfa: x29 64 + x19: .cfa -8 + ^ x20: .cfa -16 + ^ x21: .cfa -24 + ^ x22: .cfa -32 + ^ x23: .cfa -40 + ^ x28: .cfa -48 + ^ .ra: .cfa -56 + ^ x29: .cfa -64 + ^
STACK CFI 21e3c .cfa: sp 384 +
STACK CFI 21e50 .cfa: sp 0 +
STACK CFI 21e54 .cfa: x29 64 +
STACK CFI INIT 21ec8 12c .cfa: sp 0 +
STACK CFI 21ecc .cfa: sp 80 +
STACK CFI 21ee0 .cfa: x29 80 + x19: .cfa -8 + ^ x20: .cfa -16 + ^ x21: .cfa -24 + ^ x22: .cfa -32 + ^ x23: .cfa -40 + ^ x24: .cfa -48 + ^ x25: .cfa -56 + ^ x26: .cfa -64 + ^ .ra: .cfa -72 + ^ x29: .cfa -80 + ^
STACK CFI 21fa8 .cfa: sp 80 +
STACK CFI 21fbc .cfa: sp 0 +
STACK CFI 21fc0 .cfa: x29 80 +
STACK CFI INIT 22098 1a4 .cfa: sp 0 +
STACK CFI 2209c .cfa: sp 112 +
STACK CFI 220b4 .cfa: x29 80 + x19: .cfa -8 + ^ x20: .cfa -16 + ^ x21: .cfa -24 + ^ x22: .cfa -32 + ^ x23: .cfa -40 + ^ x24: .cfa -48 + ^ x25: .cfa -56 + ^ x26: .cfa -64 + ^ .ra: .cfa -72 + ^ x29: .cfa -80 + ^
STACK CFI 221a4 .cfa: sp 112 +
STACK CFI 221bc .cfa: sp 0 +
STACK CFI 221c0 .cfa: x29 80 +
STACK CFI INIT 2223c 1dc .cfa: sp 0 +
STACK CFI 22240 .cfa: sp 128 +
STACK CFI 2225c .cfa: x29 96 + x19: .cfa -8 + ^ x20: .cfa -16 + ^ x21: .cfa -24 + ^ x22: .cfa -32 + ^ x23: .cfa -40 + ^ x24: .cfa -48 + ^ x25: .cfa -56 + ^ x26: .cfa -64 + ^ x27: .cfa -80 + ^ .ra: .cfa -88 + ^ x29: .cfa -96 + ^
STACK CFI 223c8 .cfa: sp 128 +
STACK CFI 223e4 .cfa: sp 0 +
STACK CFI 223e8 .cfa: x29 96 +
STACK CFI INIT 2244c 178 .cfa: sp 0 +
STACK CFI 22450 .cfa: sp 80 +
STACK CFI 22464 .cfa: x29 80 + x19: .cfa -8 + ^ x20: .cfa -16 + ^ x21: .cfa -24 + ^ x22: .cfa -32 + ^ x23: .cfa -40 + ^ x24: .cfa -48 + ^ x25: .cfa -64 + ^ .ra: .cfa -72 + ^ x29: .cfa -80 + ^
STACK CFI 22590 .cfa: sp 80 +
STACK CFI 225a4 .cfa: sp 0 +
STACK CFI 225a8 .cfa: x29 80 +
STACK CFI INIT 2270c 228 .cfa: sp 0 +
STACK CFI 22710 .cfa: sp 128 +
STACK CFI 22728 .cfa: x29 80 + x19: .cfa -8 + ^ x20: .cfa -16 + ^ x21: .cfa -24 + ^ x22: .cfa -32 + ^ x23: .cfa -40 + ^ x24: .cfa -48 + ^ x25: .cfa -64 + ^ .ra: .cfa -72 + ^ x29: .cfa -80 + ^
STACK CFI 228c4 .cfa: sp 128 +
STACK CFI 228dc .cfa: sp 0 +
STACK CFI 228e0 .cfa: x29 80 +
STACK CFI INIT 22ffc 348 .cfa: sp 0 +
STACK CFI 23000 .cfa: sp 160 +
STACK CFI 2301c .cfa: x29 96 + x19: .cfa -8 + ^ x20: .cfa -16 + ^ x21: .cfa -24 + ^ x22: .cfa -32 + ^ x23: .cfa -40 + ^ x24: .cfa -48 + ^ x25: .cfa -56 + ^ x26: .cfa -64 + ^ x27: .cfa -72 + ^ x28: .cfa -80 + ^ .ra: .cfa -88 + ^ x29: .cfa -96 + ^
STACK CFI 232fc .cfa: sp 160 +
STACK CFI 23318 .cfa: sp 0 +
STACK CFI 2331c .cfa: x29 96 +
STACK CFI INIT 233f8 19c .cfa: sp 0 +
STACK CFI 233fc .cfa: sp 112 +
STACK CFI 2340c .cfa: x29 48 + x19: .cfa -8 + ^ x20: .cfa -16 + ^ x21: .cfa -32 + ^ .ra: .cfa -40 + ^ x29: .cfa -48 + ^
STACK CFI 234e8 .cfa: sp 112 +
STACK CFI 234f8 .cfa: sp 0 +
STACK CFI 234fc .cfa: x29 48 +
STACK CFI INIT 23594 444 .cfa: sp 0 +
STACK CFI 23598 .cfa: sp 176 +
STACK CFI 235b4 .cfa: x29 96 + x19: .cfa -8 + ^ x20: .cfa -16 + ^ x21: .cfa -24 + ^ x22: .cfa -32 + ^ x23: .cfa -40 + ^ x24: .cfa -48 + ^ x25: .cfa -56 + ^ x26: .cfa -64 + ^ x27: .cfa -72 + ^ x28: .cfa -80 + ^ .ra: .cfa -88 + ^ x29: .cfa -96 + ^
STACK CFI 235f4 .cfa: sp 176 +
STACK CFI 23610 .cfa: sp 0 +
STACK CFI 23614 .cfa: x29 96 +
STACK CFI INIT 239d8 10c .cfa: sp 0 +
STACK CFI 239dc .cfa: sp 64 +
STACK CFI 239ec .cfa: x29 64 + x19: .cfa -8 + ^ x20: .cfa -16 + ^ x21: .cfa -24 + ^ x22: .cfa -32 + ^ x23: .cfa -48 + ^ .ra: .cfa -56 + ^ x29: .cfa -64 + ^
STACK CFI 23ac4 .cfa: sp 64 +
STACK CFI 23ad4 .cfa: sp 0 +
STACK CFI 23ad8 .cfa: x29 64 +
STACK CFI INIT 23df4 374 .cfa: sp 0 +
STACK CFI 23df8 .cfa: sp 240 +
STACK CFI 23e0c .cfa: x29 64 + x19: .cfa -8 + ^ x20: .cfa -16 + ^ x21: .cfa -24 + ^ x22: .cfa -32 + ^ x23: .cfa -48 + ^ .ra: .cfa -56 + ^ x29: .cfa -64 + ^
STACK CFI 2403c .cfa: sp 240 +
STACK CFI 24050 .cfa: sp 0 +
STACK CFI 24054 .cfa: x29 64 +
STACK CFI INIT 24364 66c .cfa: sp 0 +
STACK CFI 24368 .cfa: sp 288 +
STACK CFI 24384 .cfa: x29 96 + x19: .cfa -8 + ^ x20: .cfa -16 + ^ x21: .cfa -24 + ^ x22: .cfa -32 + ^ x23: .cfa -40 + ^ x24: .cfa -48 + ^ x25: .cfa -56 + ^ x26: .cfa -64 + ^ x28: .cfa -80 + ^ .ra: .cfa -88 + ^ x29: .cfa -96 + ^
STACK CFI 247e8 .cfa: sp 288 +
STACK CFI 24804 .cfa: sp 0 +
STACK CFI 24808 .cfa: x29 96 +
STACK CFI INIT 249d4 2d0 .cfa: sp 0 +
STACK CFI 249d8 .cfa: sp 176 +
STACK CFI 249f4 .cfa: x29 96 + x19: .cfa -8 + ^ x20: .cfa -16 + ^ x21: .cfa -24 + ^ x22: .cfa -32 + ^ x23: .cfa -40 + ^ x24: .cfa -48 + ^ x25: .cfa -56 + ^ x26: .cfa -64 + ^ x27: .cfa -72 + ^ x28: .cfa -80 + ^ .ra: .cfa -88 + ^ x29: .cfa -96 + ^
STACK CFI 24c44 .cfa: sp 176 +
STACK CFI 24c60 .cfa: sp 0 +
STACK CFI 24c64 .cfa: x29 96 +
STACK CFI INIT 24cbc 2a0 .cfa: sp 0 +
STACK CFI 24cc0 .cfa: sp 64 +
STACK CFI 24cd0 .cfa: x29 64 + x19: .cfa -8 + ^ x20: .cfa -16 + ^ x21: .cfa -24 + ^ x22: .cfa -32 + ^ x23: .cfa -48 + ^ .ra: .cfa -56 + ^ x29: .cfa -64 + ^
STACK CFI 24d18 .cfa: sp 64 +
STACK CFI 24d28 .cfa: sp 0 +
STACK CFI 24d2c .cfa: x29 64 +
STACK CFI 24f34 .cfa: sp 64 +
STACK CFI 24f44 .cfa: sp 0 +
STACK CFI 24f48 .cfa: x29 64 +
STACK CFI INIT 24f5c 240 .cfa: sp 0 +
STACK CFI 24f60 .cfa: sp 48 +
STACK CFI 24f6c .cfa: x29 48 + x19: .cfa -8 + ^ x20: .cfa -16 + ^ x21: .cfa -24 + ^ x22: .cfa -32 + ^ .ra: .cfa -40 + ^ x29: .cfa -48 + ^
STACK CFI 24f88 .cfa: sp 48 +
STACK CFI 24f94 .cfa: sp 0 +
STACK CFI 24f98 .cfa: x29 48 +
STACK CFI 25178 .cfa: sp 48 +
STACK CFI 25184 .cfa: sp 0 +
STACK CFI 25188 .cfa: x29 48 +
STACK CFI INIT 2519c 18c .cfa: sp 0 +
STACK CFI 251a0 .cfa: sp 112 +
STACK CFI 251b0 .cfa: x29 48 + x19: .cfa -8 + ^ x20: .cfa -16 + ^ x21: .cfa -32 + ^ .ra: .cfa -40 + ^ x29: .cfa -48 + ^
STACK CFI 25280 .cfa: sp 112 +
STACK CFI 25290 .cfa: sp 0 +
STACK CFI 25294 .cfa: x29 48 +
STACK CFI INIT 2532c a8 .cfa: sp 0 +
STACK CFI 25330 .cfa: sp 32 +
STACK CFI 25338 .cfa: x29 32 + x19: .cfa -16 + ^ .ra: .cfa -24 + ^ x29: .cfa -32 + ^
STACK CFI 2536c .cfa: sp 32 +
STACK CFI 25374 .cfa: sp 0 +
STACK CFI 25378 .cfa: x29 32 +
STACK CFI 2537c .cfa: sp 32 +
STACK CFI 25384 .cfa: sp 0 +
STACK CFI 25388 .cfa: x29 32 +
STACK CFI INIT 254bc fc .cfa: sp 0 +
STACK CFI 254c0 .cfa: sp 96 +
STACK CFI 254d0 .cfa: x29 48 + x19: .cfa -8 + ^ x20: .cfa -16 + ^ x21: .cfa -32 + ^ .ra: .cfa -40 + ^ x29: .cfa -48 + ^
STACK CFI 25548 .cfa: sp 96 +
STACK CFI 25558 .cfa: sp 0 +
STACK CFI 2555c .cfa: x29 48 +
STACK CFI INIT 255b8 134 .cfa: sp 0 +
STACK CFI 255bc .cfa: sp 80 +
STACK CFI 255c8 .cfa: x29 32 + x19: .cfa -8 + ^ x20: .cfa -16 + ^ .ra: .cfa -24 + ^ x29: .cfa -32 + ^
STACK CFI 255f8 .cfa: sp 80 +
STACK CFI 25604 .cfa: sp 0 +
STACK CFI 25608 .cfa: x29 32 +
STACK CFI INIT 256ec 78 .cfa: sp 0 +
STACK CFI 256f0 .cfa: sp 32 +
STACK CFI 256f8 .cfa: x29 32 + x19: .cfa -8 + ^ x20: .cfa -16 + ^ .ra: .cfa -24 + ^ x29: .cfa -32 + ^
STACK CFI 25704 .cfa: sp 32 +
STACK CFI 2570c .cfa: sp 0 +
STACK CFI 25710 .cfa: x29 32 +
STACK CFI INIT 25764 74 .cfa: sp 0 +
STACK CFI 25768 .cfa: sp 48 +
STACK CFI 25774 .cfa: x29 32 + x19: .cfa -8 + ^ x20: .cfa -16 + ^ .ra: .cfa -24 + ^ x29: .cfa -32 + ^
STACK CFI 257c0 .cfa: sp 48 +
STACK CFI 257cc .cfa: sp 0 +
STACK CFI 257d0 .cfa: x29 32 +
STACK CFI INIT 2583c 180 .cfa: sp 0 +
STACK CFI 25840 .cfa: sp 112 +
STACK CFI 25850 .cfa: x29 48 + x19: .cfa -8 + ^ x20: .cfa -16 + ^ x21: .cfa -32 + ^ .ra: .cfa -40 + ^ x29: .cfa -48 + ^
STACK CFI 258a8 .cfa: sp 112 +
STACK CFI 258b8 .cfa: sp 0 +
STACK CFI 258bc .cfa: x29 48 +
STACK CFI INIT 259bc 174 .cfa: sp 0 +
STACK CFI 259c0 .cfa: sp 112 +
STACK CFI 259d0 .cfa: x29 48 + x19: .cfa -8 + ^ x20: .cfa -16 + ^ x21: .cfa -32 + ^ .ra: .cfa -40 + ^ x29: .cfa -48 + ^
STACK CFI 25a1c .cfa: sp 112 +
STACK CFI 25a2c .cfa: sp 0 +
STACK CFI 25a30 .cfa: x29 48 +
STACK CFI INIT 25b30 194 .cfa: sp 0 +
STACK CFI 25b34 .cfa: sp 112 +
STACK CFI 25b44 .cfa: x29 48 + x19: .cfa -8 + ^ x20: .cfa -16 + ^ x21: .cfa -32 + ^ .ra: .cfa -40 + ^ x29: .cfa -48 + ^
STACK CFI 25bb0 .cfa: sp 112 +
STACK CFI 25bc0 .cfa: sp 0 +
STACK CFI 25bc4 .cfa: x29 48 +
STACK CFI INIT 25d30 104 .cfa: sp 0 +
STACK CFI 25d34 .cfa: sp 48 +
STACK CFI 25d40 .cfa: x29 48 + x19: .cfa -8 + ^ x20: .cfa -16 + ^ x21: .cfa -24 + ^ x22: .cfa -32 + ^ .ra: .cfa -40 + ^ x29: .cfa -48 + ^
STACK CFI 25df0 .cfa: sp 48 +
STACK CFI 25dfc .cfa: sp 0 +
STACK CFI 25e00 .cfa: x29 48 +
STACK CFI INIT 25e34 168 .cfa: sp 0 +
STACK CFI 25e38 .cfa: sp 144 +
STACK CFI 25e4c .cfa: x29 64 + x19: .cfa -8 + ^ x20: .cfa -16 + ^ x21: .cfa -24 + ^ x22: .cfa -32 + ^ x23: .cfa -40 + ^ x24: .cfa -48 + ^ .ra: .cfa -56 + ^ x29: .cfa -64 + ^
STACK CFI 25ea4 .cfa: sp 144 +
STACK CFI 25eb8 .cfa: sp 0 +
STACK CFI 25ebc .cfa: x29 64 +
STACK CFI INIT 25f9c 22c .cfa: sp 0 +
STACK CFI 25fa0 .cfa: sp 128 +
STACK CFI 25fb4 .cfa: x29 64 + x19: .cfa -8 + ^ x20: .cfa -16 + ^ x21: .cfa -24 + ^ x22: .cfa -32 + ^ x23: .cfa -48 + ^ .ra: .cfa -56 + ^ x29: .cfa -64 + ^
STACK CFI 26064 .cfa: sp 128 +
STACK CFI 26078 .cfa: sp 0 +
STACK CFI 2607c .cfa: x29 64 +
STACK CFI INIT 261c8 224 .cfa: sp 0 +
STACK CFI 261cc .cfa: sp 128 +
STACK CFI 261e0 .cfa: x29 64 + x19: .cfa -8 + ^ x20: .cfa -16 + ^ x21: .cfa -24 + ^ x22: .cfa -32 + ^ x23: .cfa -48 + ^ .ra: .cfa -56 + ^ x29: .cfa -64 + ^
STACK CFI 26288 .cfa: sp 128 +
STACK CFI 2629c .cfa: sp 0 +
STACK CFI 262a0 .cfa: x29 64 +
STACK CFI INIT 263ec 224 .cfa: sp 0 +
STACK CFI 263f0 .cfa: sp 128 +
STACK CFI 26404 .cfa: x29 64 + x19: .cfa -8 + ^ x20: .cfa -16 + ^ x21: .cfa -24 + ^ x22: .cfa -32 + ^ x23: .cfa -48 + ^ .ra: .cfa -56 + ^ x29: .cfa -64 + ^
STACK CFI 264ac .cfa: sp 128 +
STACK CFI 264c0 .cfa: sp 0 +
STACK CFI 264c4 .cfa: x29 64 +
STACK CFI INIT 26610 154 .cfa: sp 0 +
STACK CFI 26614 .cfa: sp 384 +
STACK CFI 26628 .cfa: x29 64 + x19: .cfa -8 + ^ x20: .cfa -16 + ^ x21: .cfa -24 + ^ x22: .cfa -32 + ^ x23: .cfa -40 + ^ x28: .cfa -48 + ^ .ra: .cfa -56 + ^ x29: .cfa -64 + ^
STACK CFI 2670c .cfa: sp 384 +
STACK CFI 26720 .cfa: sp 0 +
STACK CFI 26724 .cfa: x29 64 +
STACK CFI INIT 26764 168 .cfa: sp 0 +
STACK CFI 26768 .cfa: sp 384 +
STACK CFI 2677c .cfa: x29 64 + x19: .cfa -8 + ^ x20: .cfa -16 + ^ x21: .cfa -24 + ^ x22: .cfa -32 + ^ x23: .cfa -40 + ^ x28: .cfa -48 + ^ .ra: .cfa -56 + ^ x29: .cfa -64 + ^
STACK CFI 26874 .cfa: sp 384 +
STACK CFI 26888 .cfa: sp 0 +
STACK CFI 2688c .cfa: x29 64 +
STACK CFI INIT 268e4 4e0 .cfa: sp 0 +
STACK CFI 268e8 .cfa: sp 64 +
STACK CFI 268f8 .cfa: x29 64 + x19: .cfa -8 + ^ x20: .cfa -16 + ^ x21: .cfa -24 + ^ x22: .cfa -32 + ^ x23: .cfa -40 + ^ x24: .cfa -48 + ^ .ra: .cfa -56 + ^ x29: .cfa -64 + ^
STACK CFI 26d98 .cfa: sp 64 +
STACK CFI 26da8 .cfa: sp 0 +
STACK CFI 26dac .cfa: x29 64 +
STACK CFI INIT 27338 294 .cfa: sp 0 +
STACK CFI 2733c .cfa: sp 240 +
STACK CFI 27354 .cfa: x29 80 + x19: .cfa -8 + ^ x20: .cfa -16 + ^ x21: .cfa -24 + ^ x22: .cfa -32 + ^ x23: .cfa -40 + ^ x24: .cfa -48 + ^ x25: .cfa -64 + ^ .ra: .cfa -72 + ^ x29: .cfa -80 + ^
STACK CFI 274f4 .cfa: sp 240 +
STACK CFI 2750c .cfa: sp 0 +
STACK CFI 27510 .cfa: x29 80 +
STACK CFI INIT 27648 50 .cfa: sp 0 +
STACK CFI 2764c .cfa: sp 32 +
STACK CFI 27654 .cfa: x29 32 + x19: .cfa -8 + ^ x20: .cfa -16 + ^ .ra: .cfa -24 + ^ x29: .cfa -32 + ^
STACK CFI INIT 276c4 7c0 .cfa: sp 0 +
STACK CFI 276c8 .cfa: sp 320 +
STACK CFI 276e4 .cfa: x29 96 + x19: .cfa -8 + ^ x20: .cfa -16 + ^ x21: .cfa -24 + ^ x22: .cfa -32 + ^ x23: .cfa -40 + ^ x24: .cfa -48 + ^ x25: .cfa -56 + ^ x26: .cfa -64 + ^ x27: .cfa -72 + ^ x28: .cfa -80 + ^ .ra: .cfa -88 + ^ x29: .cfa -96 + ^
STACK CFI 27d34 .cfa: sp 320 +
STACK CFI 27d50 .cfa: sp 0 +
STACK CFI 27d54 .cfa: x29 96 +
STACK CFI INIT 2c204 c74 .cfa: sp 0 +
STACK CFI 2c208 .cfa: sp 96 +
STACK CFI 2c220 .cfa: x29 96 + x19: .cfa -8 + ^ x20: .cfa -16 + ^ x21: .cfa -24 + ^ x22: .cfa -32 + ^ x23: .cfa -40 + ^ x24: .cfa -48 + ^ x25: .cfa -56 + ^ x26: .cfa -64 + ^ x27: .cfa -72 + ^ x28: .cfa -80 + ^ .ra: .cfa -88 + ^ x29: .cfa -96 + ^
STACK CFI 2cc98 .cfa: sp 96 +
STACK CFI 2ccb0 .cfa: sp 0 +
STACK CFI 2ccb4 .cfa: x29 96 +
STACK CFI INIT 2cfcc 26c .cfa: sp 0 +
STACK CFI 2cfd0 .cfa: sp 128 +
STACK CFI 2cfe0 .cfa: x29 48 + x19: .cfa -8 + ^ x20: .cfa -16 + ^ x21: .cfa -24 + ^ x22: .cfa -32 + ^ .ra: .cfa -40 + ^ x29: .cfa -48 + ^
STACK CFI 2d184 .cfa: sp 128 +
STACK CFI 2d194 .cfa: sp 0 +
STACK CFI 2d198 .cfa: x29 48 +
STACK CFI INIT 2d5c8 3b8 .cfa: sp 0 +
STACK CFI 2d5cc .cfa: sp 96 +
STACK CFI 2d5e4 .cfa: x29 96 + x19: .cfa -8 + ^ x20: .cfa -16 + ^ x21: .cfa -24 + ^ x22: .cfa -32 + ^ x23: .cfa -40 + ^ x24: .cfa -48 + ^ x25: .cfa -56 + ^ x26: .cfa -64 + ^ x27: .cfa -72 + ^ x28: .cfa -80 + ^ .ra: .cfa -88 + ^ x29: .cfa -96 + ^
STACK CFI 2d920 .cfa: sp 96 +
STACK CFI 2d938 .cfa: sp 0 +
STACK CFI 2d93c .cfa: x29 96 +
STACK CFI INIT 2da20 cb4 .cfa: sp 0 +
STACK CFI 2da24 .cfa: sp 96 +
STACK CFI 2da3c .cfa: x29 96 + x19: .cfa -8 + ^ x20: .cfa -16 + ^ x21: .cfa -24 + ^ x22: .cfa -32 + ^ x23: .cfa -40 + ^ x24: .cfa -48 + ^ x25: .cfa -56 + ^ x26: .cfa -64 + ^ x27: .cfa -72 + ^ x28: .cfa -80 + ^ .ra: .cfa -88 + ^ x29: .cfa -96 + ^
STACK CFI 2e4e4 .cfa: sp 96 +
STACK CFI 2e4fc .cfa: sp 0 +
STACK CFI 2e500 .cfa: x29 96 +
STACK CFI INIT 2e9bc afc .cfa: sp 0 +
STACK CFI 2e9c0 .cfa: sp 96 +
STACK CFI 2e9d8 .cfa: x29 96 + x19: .cfa -8 + ^ x20: .cfa -16 + ^ x21: .cfa -24 + ^ x22: .cfa -32 + ^ x23: .cfa -40 + ^ x24: .cfa -48 + ^ x25: .cfa -56 + ^ x26: .cfa -64 + ^ x27: .cfa -72 + ^ x28: .cfa -80 + ^ .ra: .cfa -88 + ^ x29: .cfa -96 + ^
STACK CFI 2f42c .cfa: sp 96 +
STACK CFI 2f444 .cfa: sp 0 +
STACK CFI 2f448 .cfa: x29 96 +
STACK CFI INIT 2f694 1430 .cfa: sp 0 +
STACK CFI 2f698 .cfa: sp 96 +
STACK CFI 2f6b0 .cfa: x29 96 + x19: .cfa -8 + ^ x20: .cfa -16 + ^ x21: .cfa -24 + ^ x22: .cfa -32 + ^ x23: .cfa -40 + ^ x24: .cfa -48 + ^ x25: .cfa -56 + ^ x26: .cfa -64 + ^ x27: .cfa -72 + ^ x28: .cfa -80 + ^ .ra: .cfa -88 + ^ x29: .cfa -96 + ^
STACK CFI 3094c .cfa: sp 96 +
STACK CFI 30964 .cfa: sp 0 +
STACK CFI 30968 .cfa: x29 96 +
STACK CFI INIT 30be8 75c .cfa: sp 0 +
STACK CFI 30bec .cfa: sp 368 +
STACK CFI 30c08 .cfa: x29 96 + x19: .cfa -8 + ^ x20: .cfa -16 + ^ x21: .cfa -24 + ^ x22: .cfa -32 + ^ x23: .cfa -40 + ^ x24: .cfa -48 + ^ x25: .cfa -56 + ^ x26: .cfa -64 + ^ x27: .cfa -72 + ^ x28: .cfa -80 + ^ .ra: .cfa -88 + ^ x29: .cfa -96 + ^
STACK CFI 30cbc .cfa: sp 368 +
STACK CFI 30cd8 .cfa: sp 0 +
STACK CFI 30cdc .cfa: x29 96 +
STACK CFI 30d30 .cfa: sp 368 +
STACK CFI 30d4c .cfa: sp 0 +
STACK CFI 30d50 .cfa: x29 96 +
STACK CFI INIT 31704 eb0 .cfa: sp 0 +
STACK CFI 31708 .cfa: sp 96 +
STACK CFI 31720 .cfa: x29 96 + x19: .cfa -8 + ^ x20: .cfa -16 + ^ x21: .cfa -24 + ^ x22: .cfa -32 + ^ x23: .cfa -40 + ^ x24: .cfa -48 + ^ x25: .cfa -56 + ^ x26: .cfa -64 + ^ x27: .cfa -72 + ^ x28: .cfa -80 + ^ .ra: .cfa -88 + ^ x29: .cfa -96 + ^
STACK CFI 323c8 .cfa: sp 96 +
STACK CFI 323e0 .cfa: sp 0 +
STACK CFI 323e4 .cfa: x29 96 +
STACK CFI INIT 32928 1c9c .cfa: sp 0 +
STACK CFI 3292c .cfa: sp 112 +
STACK CFI 32948 .cfa: x29 96 + x19: .cfa -8 + ^ x20: .cfa -16 + ^ x21: .cfa -24 + ^ x22: .cfa -32 + ^ x23: .cfa -40 + ^ x24: .cfa -48 + ^ x25: .cfa -56 + ^ x26: .cfa -64 + ^ x27: .cfa -72 + ^ x28: .cfa -80 + ^ .ra: .cfa -88 + ^ x29: .cfa -96 + ^ v8: .cfa -112 + ^
STACK CFI 32d30 .cfa: sp 112 +
STACK CFI 32d4c .cfa: sp 0 +
STACK CFI 32d50 .cfa: x29 96 +
STACK CFI INIT 36d88 9a0 .cfa: sp 0 +
STACK CFI 36d8c .cfa: sp 144 +
STACK CFI 36da4 .cfa: x29 80 + x19: .cfa -8 + ^ x20: .cfa -16 + ^ x21: .cfa -24 + ^ x22: .cfa -32 + ^ x23: .cfa -40 + ^ x24: .cfa -48 + ^ x25: .cfa -64 + ^ .ra: .cfa -72 + ^ x29: .cfa -80 + ^
STACK CFI 376a4 .cfa: sp 144 +
STACK CFI 376bc .cfa: sp 0 +
STACK CFI 376c0 .cfa: x29 80 +
STACK CFI INIT 38c4c 57c .cfa: sp 0 +
STACK CFI 38c50 .cfa: sp 96 +
STACK CFI 38c68 .cfa: x29 96 + x19: .cfa -8 + ^ x20: .cfa -16 + ^ x21: .cfa -24 + ^ x22: .cfa -32 + ^ x23: .cfa -40 + ^ x24: .cfa -48 + ^ x25: .cfa -56 + ^ x26: .cfa -64 + ^ x27: .cfa -72 + ^ x28: .cfa -80 + ^ .ra: .cfa -88 + ^ x29: .cfa -96 + ^
STACK CFI 3912c .cfa: sp 96 +
STACK CFI 39144 .cfa: sp 0 +
STACK CFI 39148 .cfa: x29 96 +
STACK CFI INIT 391c8 67c .cfa: sp 0 +
STACK CFI 391cc .cfa: sp 96 +
STACK CFI 391e4 .cfa: x29 96 + x19: .cfa -8 + ^ x20: .cfa -16 + ^ x21: .cfa -24 + ^ x22: .cfa -32 + ^ x23: .cfa -40 + ^ x24: .cfa -48 + ^ x25: .cfa -56 + ^ x26: .cfa -64 + ^ x27: .cfa -72 + ^ x28: .cfa -80 + ^ .ra: .cfa -88 + ^ x29: .cfa -96 + ^
STACK CFI 397a8 .cfa: sp 96 +
STACK CFI 397c0 .cfa: sp 0 +
STACK CFI 397c4 .cfa: x29 96 +
