MODULE Linux arm64 7AA86820A8FC0716A4D02659E5FB30150 hjfod.gdshare.android64.so
INFO CODE_ID 2068A87AFCA81607A4D02659E5FB3015B954E32B
INFO GENERATOR mozilla/dump_syms 2.3.4
PUBLIC f800 0 __on_dlclose
PUBLIC f810 0 __emutls_unregister_key
PUBLIC f818 0 __on_dlclose_late
PUBLIC f820 0 __atexit_handler_wrapper
PUBLIC f834 0 atexit
PUBLIC f850 0 pthread_atfork
PUBLIC f860 0 unwind_phase2
PUBLIC f994 0 _Unwind_Resume
PUBLIC fa18 0 unwind_phase2_forced
PUBLIC m fb0c 0 __unw_init_local
PUBLIC m fbb4 0 __unw_get_reg
PUBLIC fc30 0 __unw_step_stage2
PUBLIC m fc44 0 __unw_get_proc_info
PUBLIC m fc84 0 __unw_resume
PUBLIC fcac 0 libunwind::CFI_Parser<libunwind::LocalAddressSpace>::decodeFDE(libunwind::LocalAddressSpace&, unsigned long, libunwind::CFI_Parser<libunwind::LocalAddressSpace>::FDE_Info*, libunwind::CFI_Parser<libunwind::LocalAddressSpace>::CIE_Info*, bool)
PUBLIC fe3c 0 libunwind::CFI_Parser<libunwind::LocalAddressSpace>::parseCIE(libunwind::LocalAddressSpace&, unsigned long, libunwind::CFI_Parser<libunwind::LocalAddressSpace>::CIE_Info*)
PUBLIC 10104 0 libunwind::AbstractUnwindCursor::~AbstractUnwindCursor()
PUBLIC 1010c 0 libunwind::UnwindCursor<libunwind::LocalAddressSpace, libunwind::Registers_arm64>::~UnwindCursor()
PUBLIC 10114 0 libunwind::UnwindCursor<libunwind::LocalAddressSpace, libunwind::Registers_arm64>::validReg(int)
PUBLIC 10158 0 libunwind::UnwindCursor<libunwind::LocalAddressSpace, libunwind::Registers_arm64>::getReg(int)
PUBLIC 10240 0 libunwind::UnwindCursor<libunwind::LocalAddressSpace, libunwind::Registers_arm64>::setReg(int, unsigned long)
PUBLIC 10328 0 libunwind::UnwindCursor<libunwind::LocalAddressSpace, libunwind::Registers_arm64>::validFloatReg(int)
PUBLIC 1033c 0 libunwind::UnwindCursor<libunwind::LocalAddressSpace, libunwind::Registers_arm64>::getFloatReg(int)
PUBLIC 1034c 0 libunwind::UnwindCursor<libunwind::LocalAddressSpace, libunwind::Registers_arm64>::setFloatReg(int, double)
PUBLIC 1035c 0 libunwind::UnwindCursor<libunwind::LocalAddressSpace, libunwind::Registers_arm64>::step(bool)
PUBLIC 1044c 0 libunwind::UnwindCursor<libunwind::LocalAddressSpace, libunwind::Registers_arm64>::getInfo(unw_proc_info_t*)
PUBLIC 10490 0 libunwind::UnwindCursor<libunwind::LocalAddressSpace, libunwind::Registers_arm64>::jumpto()
PUBLIC 1049c 0 libunwind::UnwindCursor<libunwind::LocalAddressSpace, libunwind::Registers_arm64>::isSignalFrame()
PUBLIC 104a8 0 libunwind::UnwindCursor<libunwind::LocalAddressSpace, libunwind::Registers_arm64>::getFunctionName(char*, unsigned long, unsigned long*)
PUBLIC 104d4 0 libunwind::UnwindCursor<libunwind::LocalAddressSpace, libunwind::Registers_arm64>::setInfoBasedOnIPRegister(bool)
PUBLIC 10754 0 libunwind::UnwindCursor<libunwind::LocalAddressSpace, libunwind::Registers_arm64>::getRegisterName(int)
PUBLIC 10760 0 libunwind::UnwindCursor<libunwind::LocalAddressSpace, libunwind::Registers_arm64>::stepThroughSigReturn(libunwind::Registers_arm64&)
PUBLIC 10880 0 libunwind::DwarfInstructions<libunwind::LocalAddressSpace, libunwind::Registers_arm64>::stepWithDwarf(libunwind::LocalAddressSpace&, unsigned long, unsigned long, libunwind::Registers_arm64&, bool&, bool)
PUBLIC 10d08 0 libunwind::CFI_Parser<libunwind::LocalAddressSpace>::parseFDEInstructions(libunwind::LocalAddressSpace&, libunwind::CFI_Parser<libunwind::LocalAddressSpace>::FDE_Info const&, libunwind::CFI_Parser<libunwind::LocalAddressSpace>::CIE_Info const&, unsigned long, int, libunwind::CFI_Parser<libunwind::LocalAddressSpace>::PrologInfo*)
PUBLIC 11950 0 libunwind::DwarfInstructions<libunwind::LocalAddressSpace, libunwind::Registers_arm64>::getCFA(libunwind::LocalAddressSpace&, libunwind::CFI_Parser<libunwind::LocalAddressSpace>::PrologInfo const&, libunwind::Registers_arm64 const&)
PUBLIC 11a84 0 libunwind::DwarfInstructions<libunwind::LocalAddressSpace, libunwind::Registers_arm64>::getSavedRegister(libunwind::LocalAddressSpace&, libunwind::Registers_arm64 const&, unsigned long, libunwind::CFI_Parser<libunwind::LocalAddressSpace>::RegisterLocation const&)
PUBLIC 11c94 0 libunwind::LocalAddressSpace::getEncodedP(unsigned long&, unsigned long, unsigned char, unsigned long)
PUBLIC 12020 0 libunwind::LocalAddressSpace::getULEB128(unsigned long&, unsigned long)
PUBLIC 121e8 0 libunwind::DwarfInstructions<libunwind::LocalAddressSpace, libunwind::Registers_arm64>::evaluateExpression(unsigned long, libunwind::LocalAddressSpace&, libunwind::Registers_arm64 const&, unsigned long)
PUBLIC 12ba4 0 libunwind::UnwindCursor<libunwind::LocalAddressSpace, libunwind::Registers_arm64>::getInfoFromDwarfSection(unsigned long, libunwind::UnwindInfoSections const&, unsigned int)
PUBLIC 12e78 0 libunwind::findUnwindSectionsByPhdr(dl_phdr_info*, unsigned long, void*)
PUBLIC 12fac 0 libunwind::EHHeaderParser<libunwind::LocalAddressSpace>::decodeEHHdr(libunwind::LocalAddressSpace&, unsigned long, unsigned long, libunwind::EHHeaderParser<libunwind::LocalAddressSpace>::EHHeaderInfo&)
PUBLIC 130cc 0 libunwind::CFI_Parser<libunwind::LocalAddressSpace>::findFDE(libunwind::LocalAddressSpace&, unsigned long, unsigned long, unsigned long, unsigned long, libunwind::CFI_Parser<libunwind::LocalAddressSpace>::FDE_Info*, libunwind::CFI_Parser<libunwind::LocalAddressSpace>::CIE_Info*)
PUBLIC 13294 0 libunwind::EHHeaderParser<libunwind::LocalAddressSpace>::findFDE(libunwind::LocalAddressSpace&, unsigned long, unsigned long, unsigned int, libunwind::CFI_Parser<libunwind::LocalAddressSpace>::FDE_Info*, libunwind::CFI_Parser<libunwind::LocalAddressSpace>::CIE_Info*)
PUBLIC 133fc 0 libunwind::EHHeaderParser<libunwind::LocalAddressSpace>::getTableEntrySize(unsigned char)
PUBLIC 134f8 0 libunwind::Registers_arm64::getRegisterName(int)
PUBLIC 13528 0 __libunwind_Registers_arm64_jumpto
PUBLIC m 135b8 0 __unw_getcontext
PUBLIC 13660 0 __aarch64_ldadd8_relax
PUBLIC 13690 0 init_have_lse_atomics
PUBLIC 13728 0 __init_cpu_features_constructor
PUBLIC 13cc4 0 __init_cpu_features
PUBLIC 13d50 0 __aarch64_ldadd8_acq_rel
PUBLIC 13d80 0 geode::utils::file::FilePickOptions::Filter::~Filter()
PUBLIC 13e00 0 geode::utils::file::FilePickOptions::~FilePickOptions()
PUBLIC 13e88 0 __cxx_global_var_init.3
PUBLIC 1430c 0 geode::modifier::ModifyBase<geode::modifier::ModifyDerive<ExportMyLevelLayer, EditLevelLayer> >::~ModifyBase()
PUBLIC 14324 0 __cxx_global_var_init.4
PUBLIC 147a8 0 geode::modifier::ModifyBase<geode::modifier::ModifyDerive<ExportOnlineLevelLayer, LevelInfoLayer> >::~ModifyBase()
PUBLIC 147c0 0 __cxx_global_var_init.5
PUBLIC 14c44 0 geode::modifier::ModifyBase<geode::modifier::ModifyDerive<ImportLayer, LevelBrowserLayer> >::~ModifyBase()
PUBLIC 14c5c 0 __cxx_global_var_init.6
PUBLIC 150e0 0 geode::modifier::ModifyBase<geode::modifier::ModifyDerive<ExportListLayer, LevelListLayer> >::~ModifyBase()
PUBLIC 150f8 0 std::__ndk1::basic_string<char, std::__ndk1::char_traits<char>, std::__ndk1::allocator<char> >::__throw_length_error[abi:ne180000]() const
PUBLIC 1510c 0 std::__ndk1::__throw_length_error[abi:ne180000](char const*)
PUBLIC 1515c 0 std::length_error::length_error[abi:ne180000](char const*)
PUBLIC 1518c 0 std::__throw_bad_array_new_length([abi:ne180000], void)
PUBLIC 151c0 0 __clang_call_terminate
PUBLIC 151d0 0 std::__ndk1::vector<geode::utils::file::FilePickOptions::Filter, std::__ndk1::allocator<geode::utils::file::FilePickOptions::Filter> >::__throw_length_error[abi:ne180000]() const
PUBLIC 151e4 0 std::__ndk1::__exception_guard_exceptions<std::__ndk1::_AllocatorDestroyRangeReverse<std::__ndk1::allocator<geode::utils::file::FilePickOptions::Filter>, geode::utils::file::FilePickOptions::Filter*> >::~__exception_guard_exceptions[abi:ne180000]()
PUBLIC 15288 0 std::__ndk1::unordered_set<std::__ndk1::basic_string<char, std::__ndk1::char_traits<char>, std::__ndk1::allocator<char> >, std::__ndk1::hash<std::__ndk1::basic_string<char, std::__ndk1::char_traits<char>, std::__ndk1::allocator<char> > >, std::__ndk1::equal_to<std::__ndk1::basic_string<char, std::__ndk1::char_traits<char>, std::__ndk1::allocator<char> > >, std::__ndk1::allocator<std::__ndk1::basic_string<char, std::__ndk1::char_traits<char>, std::__ndk1::allocator<char> > > >::unordered_set(std::__ndk1::unordered_set<std::__ndk1::basic_string<char, std::__ndk1::char_traits<char>, std::__ndk1::allocator<char> >, std::__ndk1::hash<std::__ndk1::basic_string<char, std::__ndk1::char_traits<char>, std::__ndk1::allocator<char> > >, std::__ndk1::equal_to<std::__ndk1::basic_string<char, std::__ndk1::char_traits<char>, std::__ndk1::allocator<char> > >, std::__ndk1::allocator<std::__ndk1::basic_string<char, std::__ndk1::char_traits<char>, std::__ndk1::allocator<char> > > > const&)
PUBLIC 153c4 0 std::__ndk1::basic_string<char, std::__ndk1::char_traits<char>, std::__ndk1::allocator<char> >::__init_copy_ctor_external(char const*, unsigned long)
PUBLIC 15444 0 std::__ndk1::__hash_table<std::__ndk1::basic_string<char, std::__ndk1::char_traits<char>, std::__ndk1::allocator<char> >, std::__ndk1::hash<std::__ndk1::basic_string<char, std::__ndk1::char_traits<char>, std::__ndk1::allocator<char> > >, std::__ndk1::equal_to<std::__ndk1::basic_string<char, std::__ndk1::char_traits<char>, std::__ndk1::allocator<char> > >, std::__ndk1::allocator<std::__ndk1::basic_string<char, std::__ndk1::char_traits<char>, std::__ndk1::allocator<char> > > >::~__hash_table()
PUBLIC 154b4 0 std::__ndk1::__hash_table<std::__ndk1::basic_string<char, std::__ndk1::char_traits<char>, std::__ndk1::allocator<char> >, std::__ndk1::hash<std::__ndk1::basic_string<char, std::__ndk1::char_traits<char>, std::__ndk1::allocator<char> > >, std::__ndk1::equal_to<std::__ndk1::basic_string<char, std::__ndk1::char_traits<char>, std::__ndk1::allocator<char> > >, std::__ndk1::allocator<std::__ndk1::basic_string<char, std::__ndk1::char_traits<char>, std::__ndk1::allocator<char> > > >::__do_rehash<true>(unsigned long)
PUBLIC 15660 0 std::__ndk1::__hash_table<std::__ndk1::basic_string<char, std::__ndk1::char_traits<char>, std::__ndk1::allocator<char> >, std::__ndk1::hash<std::__ndk1::basic_string<char, std::__ndk1::char_traits<char>, std::__ndk1::allocator<char> > >, std::__ndk1::equal_to<std::__ndk1::basic_string<char, std::__ndk1::char_traits<char>, std::__ndk1::allocator<char> > >, std::__ndk1::allocator<std::__ndk1::basic_string<char, std::__ndk1::char_traits<char>, std::__ndk1::allocator<char> > > >::__emplace_unique_key_args<std::__ndk1::basic_string<char, std::__ndk1::char_traits<char>, std::__ndk1::allocator<char> >, std::__ndk1::basic_string<char, std::__ndk1::char_traits<char>, std::__ndk1::allocator<char> > const&>(std::__ndk1::basic_string<char, std::__ndk1::char_traits<char>, std::__ndk1::allocator<char> > const&, std::__ndk1::basic_string<char, std::__ndk1::char_traits<char>, std::__ndk1::allocator<char> > const&)
PUBLIC 15ec8 0 std::__ndk1::unique_ptr<std::__ndk1::__hash_node<std::__ndk1::basic_string<char, std::__ndk1::char_traits<char>, std::__ndk1::allocator<char> >, void*>, std::__ndk1::__hash_node_destructor<std::__ndk1::allocator<std::__ndk1::__hash_node<std::__ndk1::basic_string<char, std::__ndk1::char_traits<char>, std::__ndk1::allocator<char> >, void*> > > >::~unique_ptr[abi:ne180000]()
PUBLIC 15f18 0 std::__ndk1::vector<geode::utils::file::FilePickOptions::Filter, std::__ndk1::allocator<geode::utils::file::FilePickOptions::Filter> >::__destroy_vector::operator()[abi:ne180000]()
PUBLIC 15ffc 0 geode::modifier::ModifyDerive<ExportMyLevelLayer, EditLevelLayer>::apply()
PUBLIC 16354 0 std::__ndk1::shared_ptr<geode::Hook>::~shared_ptr[abi:ne180000]()
PUBLIC 163a4 0 geode::impl::ResultData<geode::Hook*, std::__ndk1::basic_string<char, std::__ndk1::char_traits<char>, std::__ndk1::allocator<char> > >::~ResultData()
PUBLIC 16418 0 std::__ndk1::vector<std::__ndk1::basic_string<char, std::__ndk1::char_traits<char>, std::__ndk1::allocator<char> >, std::__ndk1::allocator<std::__ndk1::basic_string<char, std::__ndk1::char_traits<char>, std::__ndk1::allocator<char> > > >::~vector[abi:ne180000]()
PUBLIC 16494 0 geode::modifier::ModifyBase<geode::modifier::ModifyDerive<ExportMyLevelLayer, EditLevelLayer> >::apply()
PUBLIC 16498 0 _ZN5geode15UnwrapExceptionC2IRPNS_4HookEQsr4implE18IsStringStreamableIT_EEENS_4impl5OkTagEOS5_
PUBLIC 165ec 0 std::__ndk1::__throw_bad_variant_access[abi:ne180000]()
PUBLIC 16620 0 std::__ndk1::basic_stringstream<char, std::__ndk1::char_traits<char>, std::__ndk1::allocator<char> >::basic_stringstream[abi:ne180000]()
PUBLIC m 1674c 0 std::__ndk1::basic_stringstream<char, std::__ndk1::char_traits<char>, std::__ndk1::allocator<char> >::~basic_stringstream()
PUBLIC 167cc 0 geode::UnwrapException::~UnwrapException()
PUBLIC 167f0 0 std::__ndk1::__put_character_sequence[abi:ne180000]<char, std::__ndk1::char_traits<char> >(std::__ndk1::basic_ostream<char, std::__ndk1::char_traits<char> >, std::__ndk1::basic_ostream const*, unsigned long)
PUBLIC 16994 0 std::__ndk1::__pad_and_output[abi:ne180000]<char, std::__ndk1::char_traits<char> >(std::__ndk1::char_traits<char>, std::__ndk1::ostreambuf_iterator const*, std::__ndk1::ostreambuf_iterator const, std::__ndk1::ostreambuf_iterator const, std::__ndk1::ios_base&, std::__ndk1::ostreambuf_iterator)
PUBLIC 16b70 0 std::__ndk1::basic_stringbuf<char, std::__ndk1::char_traits<char>, std::__ndk1::allocator<char> >::str[abi:ne180000]() &&
PUBLIC 16ce8 0 std::__ndk1::basic_stringbuf<char, std::__ndk1::char_traits<char>, std::__ndk1::allocator<char> >::__init_buf_ptrs[abi:ne180000]()
PUBLIC 16e30 0 std::__ndk1::vector<std::__ndk1::basic_string<char, std::__ndk1::char_traits<char>, std::__ndk1::allocator<char> >, std::__ndk1::allocator<std::__ndk1::basic_string<char, std::__ndk1::char_traits<char>, std::__ndk1::allocator<char> > > >::__push_back_slow_path<std::__ndk1::basic_string<char, std::__ndk1::char_traits<char>, std::__ndk1::allocator<char> > const&>(std::__ndk1::basic_string<char, std::__ndk1::char_traits<char>, std::__ndk1::allocator<char> > const&)
PUBLIC 17054 0 std::__ndk1::__split_buffer<std::__ndk1::basic_string<char, std::__ndk1::char_traits<char>, std::__ndk1::allocator<char> >, std::__ndk1::allocator<std::__ndk1::basic_string<char, std::__ndk1::char_traits<char>, std::__ndk1::allocator<char> > >&>::~__split_buffer()
PUBLIC 170bc 0 std::__ndk1::vector<std::__ndk1::basic_string<char, std::__ndk1::char_traits<char>, std::__ndk1::allocator<char> >, std::__ndk1::allocator<std::__ndk1::basic_string<char, std::__ndk1::char_traits<char>, std::__ndk1::allocator<char> > > >::__throw_length_error[abi:ne180000]() const
PUBLIC 170d0 0 std::__ndk1::__variant_detail::__visitation::__base::__dispatcher<(unsigned long)0>::__dispatch[abi:ne180000]<std::__ndk1::__variant_detail::__dtor<std::__ndk1::__variant_detail::__traits<geode::Hook*, std::__ndk1::basic_string<char, std::__ndk1::char_traits<char>, std::__ndk1::allocator<char> > >, (std::__ndk1::__variant_detail::_Trait)1>::__destroy[abi:ne180000]()::{lambda(auto:1&)#1}, std::__ndk1::__variant_detail::__base<(std::__ndk1::__variant_detail::__traits<geode::Hook*, std::__ndk1::basic_string<char, std::__ndk1::char_traits<char>, std::__ndk1::allocator<char> > >)1, geode::Hook, std::__ndk1::allocator<char> >&>(std::__ndk1::__variant_detail::__dtor<std::__ndk1::__variant_detail::__traits<geode::Hook*, std::__ndk1::basic_string<char, std::__ndk1::char_traits<char>, std::__ndk1::allocator<char> > >, (std::__ndk1::__variant_detail::_Trait)1>, std::__ndk1::__variant_detail::__base<(std::__ndk1::__variant_detail::__traits<geode::Hook*, std::__ndk1::basic_string<char, std::__ndk1::char_traits<char>, std::__ndk1::allocator<char> > >)1, geode::Hook, std::__ndk1::allocator<char> >&)
PUBLIC 170d4 0 std::__ndk1::__variant_detail::__visitation::__base::__dispatcher<(unsigned long)1>::__dispatch[abi:ne180000]<std::__ndk1::__variant_detail::__dtor<std::__ndk1::__variant_detail::__traits<geode::Hook*, std::__ndk1::basic_string<char, std::__ndk1::char_traits<char>, std::__ndk1::allocator<char> > >, (std::__ndk1::__variant_detail::_Trait)1>::__destroy[abi:ne180000]()::{lambda(auto:1&)#1}, std::__ndk1::__variant_detail::__base<(std::__ndk1::__variant_detail::__traits<geode::Hook*, std::__ndk1::basic_string<char, std::__ndk1::char_traits<char>, std::__ndk1::allocator<char> > >)1, geode::Hook, std::__ndk1::allocator<char> >&>(std::__ndk1::__variant_detail::__dtor<std::__ndk1::__variant_detail::__traits<geode::Hook*, std::__ndk1::basic_string<char, std::__ndk1::char_traits<char>, std::__ndk1::allocator<char> > >, (std::__ndk1::__variant_detail::_Trait)1>, std::__ndk1::__variant_detail::__base<(std::__ndk1::__variant_detail::__traits<geode::Hook*, std::__ndk1::basic_string<char, std::__ndk1::char_traits<char>, std::__ndk1::allocator<char> > >)1, geode::Hook, std::__ndk1::allocator<char> >&)
PUBLIC 170e8 0 std::__ndk1::__tree<std::__ndk1::__value_type<std::__ndk1::basic_string<char, std::__ndk1::char_traits<char>, std::__ndk1::allocator<char> >, std::__ndk1::shared_ptr<geode::Hook> >, std::__ndk1::__map_value_compare<std::__ndk1::basic_string<char, std::__ndk1::char_traits<char>, std::__ndk1::allocator<char> >, std::__ndk1::__value_type<std::__ndk1::basic_string<char, std::__ndk1::char_traits<char>, std::__ndk1::allocator<char> >, std::__ndk1::shared_ptr<geode::Hook> >, std::__ndk1::less<std::__ndk1::basic_string<char, std::__ndk1::char_traits<char>, std::__ndk1::allocator<char> > >, true>, std::__ndk1::allocator<std::__ndk1::__value_type<std::__ndk1::basic_string<char, std::__ndk1::char_traits<char>, std::__ndk1::allocator<char> >, std::__ndk1::shared_ptr<geode::Hook> > > >::find<std::__ndk1::basic_string<char, std::__ndk1::char_traits<char>, std::__ndk1::allocator<char> > >(std::__ndk1::basic_string<char, std::__ndk1::char_traits<char>, std::__ndk1::allocator<char> > const&)
PUBLIC 17208 0 std::__ndk1::__tree<std::__ndk1::__value_type<std::__ndk1::basic_string<char, std::__ndk1::char_traits<char>, std::__ndk1::allocator<char> >, std::__ndk1::shared_ptr<geode::Hook> >, std::__ndk1::__map_value_compare<std::__ndk1::basic_string<char, std::__ndk1::char_traits<char>, std::__ndk1::allocator<char> >, std::__ndk1::__value_type<std::__ndk1::basic_string<char, std::__ndk1::char_traits<char>, std::__ndk1::allocator<char> >, std::__ndk1::shared_ptr<geode::Hook> >, std::__ndk1::less<std::__ndk1::basic_string<char, std::__ndk1::char_traits<char>, std::__ndk1::allocator<char> > >, true>, std::__ndk1::allocator<std::__ndk1::__value_type<std::__ndk1::basic_string<char, std::__ndk1::char_traits<char>, std::__ndk1::allocator<char> >, std::__ndk1::shared_ptr<geode::Hook> > > >::erase(std::__ndk1::__tree_const_iterator<std::__ndk1::__value_type<std::__ndk1::basic_string<char, std::__ndk1::char_traits<char>, std::__ndk1::allocator<char> >, std::__ndk1::shared_ptr<geode::Hook> >, std::__ndk1::__tree_node<std::__ndk1::__value_type<std::__ndk1::basic_string<char, std::__ndk1::char_traits<char>, std::__ndk1::allocator<char> >, std::__ndk1::shared_ptr<geode::Hook> >, void*>*, long>)
PUBLIC 176ac 0 std::__ndk1::__tree<std::__ndk1::__value_type<std::__ndk1::basic_string<char, std::__ndk1::char_traits<char>, std::__ndk1::allocator<char> >, std::__ndk1::shared_ptr<geode::Hook> >, std::__ndk1::__map_value_compare<std::__ndk1::basic_string<char, std::__ndk1::char_traits<char>, std::__ndk1::allocator<char> >, std::__ndk1::__value_type<std::__ndk1::basic_string<char, std::__ndk1::char_traits<char>, std::__ndk1::allocator<char> >, std::__ndk1::shared_ptr<geode::Hook> >, std::__ndk1::less<std::__ndk1::basic_string<char, std::__ndk1::char_traits<char>, std::__ndk1::allocator<char> > >, true>, std::__ndk1::allocator<std::__ndk1::__value_type<std::__ndk1::basic_string<char, std::__ndk1::char_traits<char>, std::__ndk1::allocator<char> >, std::__ndk1::shared_ptr<geode::Hook> > > >::destroy(std::__ndk1::__tree_node<std::__ndk1::__value_type<std::__ndk1::basic_string<char, std::__ndk1::char_traits<char>, std::__ndk1::allocator<char> >, std::__ndk1::shared_ptr<geode::Hook> >, void*>*)
PUBLIC 17730 0 geode::modifier::AsStaticFunction_init<ExportMyLevelLayer, bool (ExportMyLevelLayer::*)(GJGameLevel*)>::Impl<bool (ExportMyLevelLayer::*)(GJGameLevel*)>::function(ExportMyLevelLayer*, GJGameLevel*)
PUBLIC 17880 0 std::__ndk1::shared_ptr<tulip::hook::CallingConvention>::~shared_ptr[abi:ne180000]()
PUBLIC 178d0 0 tulip::hook::HandlerMetadata::~HandlerMetadata()
PUBLIC 17934 0 std::__ndk1::vector<tulip::hook::AbstractType, std::__ndk1::allocator<tulip::hook::AbstractType> >::__throw_length_error[abi:ne180000]() const
PUBLIC 17948 0 ExportMyLevelLayer::onExport(cocos2d::CCObject*)
PUBLIC 17af8 0 promptExportLevel<GJGameLevel>(GJGameLevel*)
PUBLIC 17cf8 0 geode::Task<geode::Result<std::__ndk1::__fs::filesystem::path, std::__ndk1::basic_string<char, std::__ndk1::char_traits<char>, std::__ndk1::allocator<char> > >, std::__ndk1::monostate>::~Task()
PUBLIC 17d48 0 geode::modifier::FieldIntermediate<ExportMyLevelLayer, EditLevelLayer>::self()
PUBLIC 17f64 0 geode::modifier::FieldContainer::getField(unsigned long)
PUBLIC 183a8 0 geode::modifier::FieldContainer::setField(unsigned long, unsigned long, std::__ndk1::function<void (void*)>)
PUBLIC 184b4 0 geode::modifier::FieldIntermediate<ExportMyLevelLayer, EditLevelLayer>::fieldDestructor(void*)
PUBLIC 18550 0 std::__ndk1::vector<void*, std::__ndk1::allocator<void*> >::__throw_length_error[abi:ne180000]() const
PUBLIC 18564 0 std::__ndk1::vector<std::__ndk1::function<void (void*)>, std::__ndk1::allocator<std::__ndk1::function<void (void*)> > >::__throw_length_error[abi:ne180000]() const
PUBLIC 18578 0 std::__ndk1::vector<void*, std::__ndk1::allocator<void*> >::__throw_out_of_range[abi:ne180000]() const
PUBLIC 18584 0 std::__ndk1::__throw_out_of_range[abi:ne180000](char const*)
PUBLIC 185d4 0 std::out_of_range::out_of_range[abi:ne180000](char const*)
PUBLIC 18604 0 std::__ndk1::vector<std::__ndk1::function<void (void*)>, std::__ndk1::allocator<std::__ndk1::function<void (void*)> > >::__throw_out_of_range[abi:ne180000]() const
PUBLIC 18610 0 geode::EventListener<geode::Task<geode::Result<std::__ndk1::__fs::filesystem::path, std::__ndk1::basic_string<char, std::__ndk1::char_traits<char>, std::__ndk1::allocator<char> > >, std::__ndk1::monostate> >::~EventListener()
PUBLIC 186ac 0 geode::EventListener<geode::Task<geode::Result<std::__ndk1::__fs::filesystem::path, std::__ndk1::basic_string<char, std::__ndk1::char_traits<char>, std::__ndk1::allocator<char> > >, std::__ndk1::monostate> >::getPool() const
PUBLIC 186b0 0 geode::EventListener<geode::Task<geode::Result<std::__ndk1::__fs::filesystem::path, std::__ndk1::basic_string<char, std::__ndk1::char_traits<char>, std::__ndk1::allocator<char> > >, std::__ndk1::monostate> >::handle(geode::Event*)
PUBLIC 1885c 0 geode::EventListener<geode::Task<geode::Result<std::__ndk1::__fs::filesystem::path, std::__ndk1::basic_string<char, std::__ndk1::char_traits<char>, std::__ndk1::allocator<char> > >, std::__ndk1::monostate> >::~EventListener()
PUBLIC 18900 0 geode::cast::traverseTypeinfoFor(void*, geode::cast::ClassTypeinfoType const*, char const*)
PUBLIC 189f8 0 std::__ndk1::__throw_bad_function_call[abi:ne180000]()
PUBLIC 18a2c 0 std::__ndk1::bad_function_call::~bad_function_call()
PUBLIC 18a50 0 std::__ndk1::__function::__base<void (void*)>::~__base()
PUBLIC 18a54 0 std::__ndk1::__function::__func<void (*)(void*), std::__ndk1::allocator<void (*)(void*)>, void (void*)>::~__func()
PUBLIC 18a58 0 std::__ndk1::__function::__func<void (*)(void*), std::__ndk1::allocator<void (*)(void*)>, void (void*)>::__clone() const
PUBLIC 18a90 0 std::__ndk1::__function::__func<void (*)(void*), std::__ndk1::allocator<void (*)(void*)>, void (void*)>::__clone(std::__ndk1::__function::__base<void (void*)>*) const
PUBLIC 18aa8 0 std::__ndk1::__function::__func<void (*)(void*), std::__ndk1::allocator<void (*)(void*)>, void (void*)>::destroy()
PUBLIC 18aac 0 std::__ndk1::__function::__func<void (*)(void*), std::__ndk1::allocator<void (*)(void*)>, void (void*)>::destroy_deallocate()
PUBLIC 18ab0 0 std::__ndk1::__function::__func<void (*)(void*), std::__ndk1::allocator<void (*)(void*)>, void (void*)>::operator()(void*&&)
PUBLIC 18ac0 0 std::__ndk1::__function::__func<void (*)(void*), std::__ndk1::allocator<void (*)(void*)>, void (void*)>::target(std::type_info const&) const
PUBLIC 18adc 0 std::__ndk1::__function::__func<void (*)(void*), std::__ndk1::allocator<void (*)(void*)>, void (void*)>::target_type() const
PUBLIC 18ae8 0 geode::Task<geode::Result<std::__ndk1::__fs::filesystem::path, std::__ndk1::basic_string<char, std::__ndk1::char_traits<char>, std::__ndk1::allocator<char> > >, std::__ndk1::monostate>::setListener(geode::EventListenerProtocol*)
PUBLIC 18cec 0 geode::Task<geode::Result<std::__ndk1::__fs::filesystem::path, std::__ndk1::basic_string<char, std::__ndk1::char_traits<char>, std::__ndk1::allocator<char> > >, std::__ndk1::monostate>::setListener(geode::EventListenerProtocol*)::{lambda()#1}::~{lambda()#1}()
PUBLIC 18d3c 0 geode::Task<geode::Result<std::__ndk1::__fs::filesystem::path, std::__ndk1::basic_string<char, std::__ndk1::char_traits<char>, std::__ndk1::allocator<char> > >, std::__ndk1::monostate>::setListener(geode::EventListenerProtocol*)::{lambda()#2}::~{lambda()#2}()
PUBLIC 18d8c 0 std::__ndk1::__function::__func<geode::Task<geode::Result<std::__ndk1::__fs::filesystem::path, std::__ndk1::basic_string<char, std::__ndk1::char_traits<char>, std::__ndk1::allocator<char> > >, std::__ndk1::monostate>::setListener(geode::EventListenerProtocol*)::{lambda()#1}, std::__ndk1::allocator<geode::Task<geode::Result<std::__ndk1::__fs::filesystem::path, std::__ndk1::basic_string<char, std::__ndk1::char_traits<char>, std::__ndk1::allocator<char> > >, std::__ndk1::monostate>::setListener(geode::EventListenerProtocol*)::{lambda()#1}>, void ()>::~__func()
PUBLIC 18de8 0 std::__ndk1::__function::__func<geode::Task<geode::Result<std::__ndk1::__fs::filesystem::path, std::__ndk1::basic_string<char, std::__ndk1::char_traits<char>, std::__ndk1::allocator<char> > >, std::__ndk1::monostate>::setListener(geode::EventListenerProtocol*)::{lambda()#1}, std::__ndk1::allocator<geode::Task<geode::Result<std::__ndk1::__fs::filesystem::path, std::__ndk1::basic_string<char, std::__ndk1::char_traits<char>, std::__ndk1::allocator<char> > >, std::__ndk1::monostate>::setListener(geode::EventListenerProtocol*)::{lambda()#1}>, void ()>::~__func()
PUBLIC 18e54 0 std::__ndk1::__function::__func<geode::Task<geode::Result<std::__ndk1::__fs::filesystem::path, std::__ndk1::basic_string<char, std::__ndk1::char_traits<char>, std::__ndk1::allocator<char> > >, std::__ndk1::monostate>::setListener(geode::EventListenerProtocol*)::{lambda()#1}, std::__ndk1::allocator<geode::Task<geode::Result<std::__ndk1::__fs::filesystem::path, std::__ndk1::basic_string<char, std::__ndk1::char_traits<char>, std::__ndk1::allocator<char> > >, std::__ndk1::monostate>::setListener(geode::EventListenerProtocol*)::{lambda()#1}>, void ()>::__clone() const
PUBLIC 18eac 0 std::__ndk1::__function::__func<geode::Task<geode::Result<std::__ndk1::__fs::filesystem::path, std::__ndk1::basic_string<char, std::__ndk1::char_traits<char>, std::__ndk1::allocator<char> > >, std::__ndk1::monostate>::setListener(geode::EventListenerProtocol*)::{lambda()#1}, std::__ndk1::allocator<geode::Task<geode::Result<std::__ndk1::__fs::filesystem::path, std::__ndk1::basic_string<char, std::__ndk1::char_traits<char>, std::__ndk1::allocator<char> > >, std::__ndk1::monostate>::setListener(geode::EventListenerProtocol*)::{lambda()#1}>, void ()>::__clone(std::__ndk1::__function::__base<void ()>*) const
PUBLIC 18ef8 0 std::__ndk1::__function::__func<geode::Task<geode::Result<std::__ndk1::__fs::filesystem::path, std::__ndk1::basic_string<char, std::__ndk1::char_traits<char>, std::__ndk1::allocator<char> > >, std::__ndk1::monostate>::setListener(geode::EventListenerProtocol*)::{lambda()#1}, std::__ndk1::allocator<geode::Task<geode::Result<std::__ndk1::__fs::filesystem::path, std::__ndk1::basic_string<char, std::__ndk1::char_traits<char>, std::__ndk1::allocator<char> > >, std::__ndk1::monostate>::setListener(geode::EventListenerProtocol*)::{lambda()#1}>, void ()>::destroy()
PUBLIC 18f48 0 std::__ndk1::__function::__func<geode::Task<geode::Result<std::__ndk1::__fs::filesystem::path, std::__ndk1::basic_string<char, std::__ndk1::char_traits<char>, std::__ndk1::allocator<char> > >, std::__ndk1::monostate>::setListener(geode::EventListenerProtocol*)::{lambda()#1}, std::__ndk1::allocator<geode::Task<geode::Result<std::__ndk1::__fs::filesystem::path, std::__ndk1::basic_string<char, std::__ndk1::char_traits<char>, std::__ndk1::allocator<char> > >, std::__ndk1::monostate>::setListener(geode::EventListenerProtocol*)::{lambda()#1}>, void ()>::destroy_deallocate()
PUBLIC 18fa8 0 std::__ndk1::__function::__func<geode::Task<geode::Result<std::__ndk1::__fs::filesystem::path, std::__ndk1::basic_string<char, std::__ndk1::char_traits<char>, std::__ndk1::allocator<char> > >, std::__ndk1::monostate>::setListener(geode::EventListenerProtocol*)::{lambda()#1}, std::__ndk1::allocator<geode::Task<geode::Result<std::__ndk1::__fs::filesystem::path, std::__ndk1::basic_string<char, std::__ndk1::char_traits<char>, std::__ndk1::allocator<char> > >, std::__ndk1::monostate>::setListener(geode::EventListenerProtocol*)::{lambda()#1}>, void ()>::operator()()
PUBLIC 19178 0 std::__ndk1::__function::__func<geode::Task<geode::Result<std::__ndk1::__fs::filesystem::path, std::__ndk1::basic_string<char, std::__ndk1::char_traits<char>, std::__ndk1::allocator<char> > >, std::__ndk1::monostate>::setListener(geode::EventListenerProtocol*)::{lambda()#1}, std::__ndk1::allocator<geode::Task<geode::Result<std::__ndk1::__fs::filesystem::path, std::__ndk1::basic_string<char, std::__ndk1::char_traits<char>, std::__ndk1::allocator<char> > >, std::__ndk1::monostate>::setListener(geode::EventListenerProtocol*)::{lambda()#1}>, void ()>::target(std::type_info const&) const
PUBLIC 19194 0 std::__ndk1::__function::__func<geode::Task<geode::Result<std::__ndk1::__fs::filesystem::path, std::__ndk1::basic_string<char, std::__ndk1::char_traits<char>, std::__ndk1::allocator<char> > >, std::__ndk1::monostate>::setListener(geode::EventListenerProtocol*)::{lambda()#1}, std::__ndk1::allocator<geode::Task<geode::Result<std::__ndk1::__fs::filesystem::path, std::__ndk1::basic_string<char, std::__ndk1::char_traits<char>, std::__ndk1::allocator<char> > >, std::__ndk1::monostate>::setListener(geode::EventListenerProtocol*)::{lambda()#1}>, void ()>::target_type() const
PUBLIC 191a0 0 geode::Task<geode::Result<std::__ndk1::__fs::filesystem::path, std::__ndk1::basic_string<char, std::__ndk1::char_traits<char>, std::__ndk1::allocator<char> > >, std::__ndk1::monostate>::Event::~Event()
PUBLIC 19200 0 geode::Task<geode::Result<std::__ndk1::__fs::filesystem::path, std::__ndk1::basic_string<char, std::__ndk1::char_traits<char>, std::__ndk1::allocator<char> > >, std::__ndk1::monostate>::Event::~Event()
PUBLIC 19270 0 std::__ndk1::__function::__func<geode::Task<geode::Result<std::__ndk1::__fs::filesystem::path, std::__ndk1::basic_string<char, std::__ndk1::char_traits<char>, std::__ndk1::allocator<char> > >, std::__ndk1::monostate>::setListener(geode::EventListenerProtocol*)::{lambda()#2}, std::__ndk1::allocator<geode::Task<geode::Result<std::__ndk1::__fs::filesystem::path, std::__ndk1::basic_string<char, std::__ndk1::char_traits<char>, std::__ndk1::allocator<char> > >, std::__ndk1::monostate>::setListener(geode::EventListenerProtocol*)::{lambda()#2}>, void ()>::~__func()
PUBLIC 192cc 0 std::__ndk1::__function::__func<geode::Task<geode::Result<std::__ndk1::__fs::filesystem::path, std::__ndk1::basic_string<char, std::__ndk1::char_traits<char>, std::__ndk1::allocator<char> > >, std::__ndk1::monostate>::setListener(geode::EventListenerProtocol*)::{lambda()#2}, std::__ndk1::allocator<geode::Task<geode::Result<std::__ndk1::__fs::filesystem::path, std::__ndk1::basic_string<char, std::__ndk1::char_traits<char>, std::__ndk1::allocator<char> > >, std::__ndk1::monostate>::setListener(geode::EventListenerProtocol*)::{lambda()#2}>, void ()>::~__func()
PUBLIC 19338 0 std::__ndk1::__function::__func<geode::Task<geode::Result<std::__ndk1::__fs::filesystem::path, std::__ndk1::basic_string<char, std::__ndk1::char_traits<char>, std::__ndk1::allocator<char> > >, std::__ndk1::monostate>::setListener(geode::EventListenerProtocol*)::{lambda()#2}, std::__ndk1::allocator<geode::Task<geode::Result<std::__ndk1::__fs::filesystem::path, std::__ndk1::basic_string<char, std::__ndk1::char_traits<char>, std::__ndk1::allocator<char> > >, std::__ndk1::monostate>::setListener(geode::EventListenerProtocol*)::{lambda()#2}>, void ()>::__clone() const
PUBLIC 19390 0 std::__ndk1::__function::__func<geode::Task<geode::Result<std::__ndk1::__fs::filesystem::path, std::__ndk1::basic_string<char, std::__ndk1::char_traits<char>, std::__ndk1::allocator<char> > >, std::__ndk1::monostate>::setListener(geode::EventListenerProtocol*)::{lambda()#2}, std::__ndk1::allocator<geode::Task<geode::Result<std::__ndk1::__fs::filesystem::path, std::__ndk1::basic_string<char, std::__ndk1::char_traits<char>, std::__ndk1::allocator<char> > >, std::__ndk1::monostate>::setListener(geode::EventListenerProtocol*)::{lambda()#2}>, void ()>::__clone(std::__ndk1::__function::__base<void ()>*) const
PUBLIC 193dc 0 std::__ndk1::__function::__func<geode::Task<geode::Result<std::__ndk1::__fs::filesystem::path, std::__ndk1::basic_string<char, std::__ndk1::char_traits<char>, std::__ndk1::allocator<char> > >, std::__ndk1::monostate>::setListener(geode::EventListenerProtocol*)::{lambda()#2}, std::__ndk1::allocator<geode::Task<geode::Result<std::__ndk1::__fs::filesystem::path, std::__ndk1::basic_string<char, std::__ndk1::char_traits<char>, std::__ndk1::allocator<char> > >, std::__ndk1::monostate>::setListener(geode::EventListenerProtocol*)::{lambda()#2}>, void ()>::destroy()
PUBLIC 1942c 0 std::__ndk1::__function::__func<geode::Task<geode::Result<std::__ndk1::__fs::filesystem::path, std::__ndk1::basic_string<char, std::__ndk1::char_traits<char>, std::__ndk1::allocator<char> > >, std::__ndk1::monostate>::setListener(geode::EventListenerProtocol*)::{lambda()#2}, std::__ndk1::allocator<geode::Task<geode::Result<std::__ndk1::__fs::filesystem::path, std::__ndk1::basic_string<char, std::__ndk1::char_traits<char>, std::__ndk1::allocator<char> > >, std::__ndk1::monostate>::setListener(geode::EventListenerProtocol*)::{lambda()#2}>, void ()>::destroy_deallocate()
PUBLIC 1948c 0 std::__ndk1::__function::__func<geode::Task<geode::Result<std::__ndk1::__fs::filesystem::path, std::__ndk1::basic_string<char, std::__ndk1::char_traits<char>, std::__ndk1::allocator<char> > >, std::__ndk1::monostate>::setListener(geode::EventListenerProtocol*)::{lambda()#2}, std::__ndk1::allocator<geode::Task<geode::Result<std::__ndk1::__fs::filesystem::path, std::__ndk1::basic_string<char, std::__ndk1::char_traits<char>, std::__ndk1::allocator<char> > >, std::__ndk1::monostate>::setListener(geode::EventListenerProtocol*)::{lambda()#2}>, void ()>::operator()()
PUBLIC 19650 0 std::__ndk1::__function::__func<geode::Task<geode::Result<std::__ndk1::__fs::filesystem::path, std::__ndk1::basic_string<char, std::__ndk1::char_traits<char>, std::__ndk1::allocator<char> > >, std::__ndk1::monostate>::setListener(geode::EventListenerProtocol*)::{lambda()#2}, std::__ndk1::allocator<geode::Task<geode::Result<std::__ndk1::__fs::filesystem::path, std::__ndk1::basic_string<char, std::__ndk1::char_traits<char>, std::__ndk1::allocator<char> > >, std::__ndk1::monostate>::setListener(geode::EventListenerProtocol*)::{lambda()#2}>, void ()>::target(std::type_info const&) const
PUBLIC 1966c 0 std::__ndk1::__function::__func<geode::Task<geode::Result<std::__ndk1::__fs::filesystem::path, std::__ndk1::basic_string<char, std::__ndk1::char_traits<char>, std::__ndk1::allocator<char> > >, std::__ndk1::monostate>::setListener(geode::EventListenerProtocol*)::{lambda()#2}, std::__ndk1::allocator<geode::Task<geode::Result<std::__ndk1::__fs::filesystem::path, std::__ndk1::basic_string<char, std::__ndk1::char_traits<char>, std::__ndk1::allocator<char> > >, std::__ndk1::monostate>::setListener(geode::EventListenerProtocol*)::{lambda()#2}>, void ()>::target_type() const
PUBLIC 19678 0 std::__ndk1::__function::__value_func<void (geode::Task<geode::Result<std::__ndk1::__fs::filesystem::path, std::__ndk1::basic_string<char, std::__ndk1::char_traits<char>, std::__ndk1::allocator<char> > >, std::__ndk1::monostate>::Event*)>::swap[abi:ne180000](std::__ndk1::__function::__value_func<void (geode::Task<geode::Result<std::__ndk1::__fs::filesystem::path, std::__ndk1::basic_string<char, std::__ndk1::char_traits<char>, std::__ndk1::allocator<char> > >, std::__ndk1::monostate>::Event*)>&)
PUBLIC 19810 0 std::__ndk1::__function::__func<ExportMyLevelLayer::onExport(cocos2d::CCObject*)::{lambda(auto:1*)#1}, std::__ndk1::allocator<ExportMyLevelLayer::onExport(cocos2d::CCObject*)::{lambda(auto:1*)#1}>, void (geode::Task<geode::Result<std::__ndk1::__fs::filesystem::path, std::__ndk1::basic_string<char, std::__ndk1::char_traits<char>, std::__ndk1::allocator<char> > >, std::__ndk1::monostate>::Event*)>::~__func()
PUBLIC 19814 0 std::__ndk1::__function::__func<ExportMyLevelLayer::onExport(cocos2d::CCObject*)::{lambda(auto:1*)#1}, std::__ndk1::allocator<ExportMyLevelLayer::onExport(cocos2d::CCObject*)::{lambda(auto:1*)#1}>, void (geode::Task<geode::Result<std::__ndk1::__fs::filesystem::path, std::__ndk1::basic_string<char, std::__ndk1::char_traits<char>, std::__ndk1::allocator<char> > >, std::__ndk1::monostate>::Event*)>::__clone() const
PUBLIC 19848 0 std::__ndk1::__function::__func<ExportMyLevelLayer::onExport(cocos2d::CCObject*)::{lambda(auto:1*)#1}, std::__ndk1::allocator<ExportMyLevelLayer::onExport(cocos2d::CCObject*)::{lambda(auto:1*)#1}>, void (geode::Task<geode::Result<std::__ndk1::__fs::filesystem::path, std::__ndk1::basic_string<char, std::__ndk1::char_traits<char>, std::__ndk1::allocator<char> > >, std::__ndk1::monostate>::Event*)>::__clone(std::__ndk1::__function::__base<void (geode::Task<geode::Result<std::__ndk1::__fs::filesystem::path, std::__ndk1::basic_string<char, std::__ndk1::char_traits<char>, std::__ndk1::allocator<char> > >, std::__ndk1::monostate>::Event*)>*) const
PUBLIC 1985c 0 std::__ndk1::__function::__func<ExportMyLevelLayer::onExport(cocos2d::CCObject*)::{lambda(auto:1*)#1}, std::__ndk1::allocator<ExportMyLevelLayer::onExport(cocos2d::CCObject*)::{lambda(auto:1*)#1}>, void (geode::Task<geode::Result<std::__ndk1::__fs::filesystem::path, std::__ndk1::basic_string<char, std::__ndk1::char_traits<char>, std::__ndk1::allocator<char> > >, std::__ndk1::monostate>::Event*)>::destroy()
PUBLIC 19860 0 std::__ndk1::__function::__func<ExportMyLevelLayer::onExport(cocos2d::CCObject*)::{lambda(auto:1*)#1}, std::__ndk1::allocator<ExportMyLevelLayer::onExport(cocos2d::CCObject*)::{lambda(auto:1*)#1}>, void (geode::Task<geode::Result<std::__ndk1::__fs::filesystem::path, std::__ndk1::basic_string<char, std::__ndk1::char_traits<char>, std::__ndk1::allocator<char> > >, std::__ndk1::monostate>::Event*)>::destroy_deallocate()
PUBLIC 19864 0 std::__ndk1::__function::__func<ExportMyLevelLayer::onExport(cocos2d::CCObject*)::{lambda(auto:1*)#1}, std::__ndk1::allocator<ExportMyLevelLayer::onExport(cocos2d::CCObject*)::{lambda(auto:1*)#1}>, void (geode::Task<geode::Result<std::__ndk1::__fs::filesystem::path, std::__ndk1::basic_string<char, std::__ndk1::char_traits<char>, std::__ndk1::allocator<char> > >, std::__ndk1::monostate>::Event*)>::operator()(geode::Task<geode::Result<std::__ndk1::__fs::filesystem::path, std::__ndk1::basic_string<char, std::__ndk1::char_traits<char>, std::__ndk1::allocator<char> > >, std::__ndk1::monostate>::Event*&&)
PUBLIC 19878 0 std::__ndk1::__function::__func<ExportMyLevelLayer::onExport(cocos2d::CCObject*)::{lambda(auto:1*)#1}, std::__ndk1::allocator<ExportMyLevelLayer::onExport(cocos2d::CCObject*)::{lambda(auto:1*)#1}>, void (geode::Task<geode::Result<std::__ndk1::__fs::filesystem::path, std::__ndk1::basic_string<char, std::__ndk1::char_traits<char>, std::__ndk1::allocator<char> > >, std::__ndk1::monostate>::Event*)>::target(std::type_info const&) const
PUBLIC 19894 0 std::__ndk1::__function::__func<ExportMyLevelLayer::onExport(cocos2d::CCObject*)::{lambda(auto:1*)#1}, std::__ndk1::allocator<ExportMyLevelLayer::onExport(cocos2d::CCObject*)::{lambda(auto:1*)#1}>, void (geode::Task<geode::Result<std::__ndk1::__fs::filesystem::path, std::__ndk1::basic_string<char, std::__ndk1::char_traits<char>, std::__ndk1::allocator<char> > >, std::__ndk1::monostate>::Event*)>::target_type() const
PUBLIC 198a0 0 onExportFilePick<GJGameLevel>(GJGameLevel*, geode::Task<geode::Result<std::__ndk1::__fs::filesystem::path, std::__ndk1::basic_string<char, std::__ndk1::char_traits<char>, std::__ndk1::allocator<char> > >, std::__ndk1::monostate>::Event*)
PUBLIC 19e5c 0 _ZN5geode15UnwrapExceptionC2IRNSt6__ndk112basic_stringIcNS2_11char_traitsIcEENS2_9allocatorIcEEEEQsr4implE18IsStringStreamableIT_EEENS_4impl6ErrTagEOSA_
PUBLIC 19fc4 0 std::__ndk1::__variant_detail::__visitation::__base::__dispatcher<(unsigned long)0>::__dispatch[abi:ne180000]<std::__ndk1::__variant_detail::__dtor<std::__ndk1::__variant_detail::__traits<std::__ndk1::monostate, std::__ndk1::basic_string<char, std::__ndk1::char_traits<char>, std::__ndk1::allocator<char> > >, (std::__ndk1::__variant_detail::_Trait)1>::__destroy[abi:ne180000]()::{lambda(auto:1&)#1}, std::__ndk1::__variant_detail::__base<(std::__ndk1::__variant_detail::__traits<std::__ndk1::monostate, std::__ndk1::basic_string<char, std::__ndk1::char_traits<char>, std::__ndk1::allocator<char> > >)1, std::__ndk1::__variant_detail::__traits, std::__ndk1::allocator<char> >&>(std::__ndk1::__variant_detail::__dtor<std::__ndk1::__variant_detail::__traits<std::__ndk1::monostate, std::__ndk1::basic_string<char, std::__ndk1::char_traits<char>, std::__ndk1::allocator<char> > >, (std::__ndk1::__variant_detail::_Trait)1>, std::__ndk1::__variant_detail::__base<(std::__ndk1::__variant_detail::__traits<std::__ndk1::monostate, std::__ndk1::basic_string<char, std::__ndk1::char_traits<char>, std::__ndk1::allocator<char> > >)1, std::__ndk1::__variant_detail::__traits, std::__ndk1::allocator<char> >&)
PUBLIC 19fc8 0 std::__ndk1::__variant_detail::__visitation::__base::__dispatcher<(unsigned long)1>::__dispatch[abi:ne180000]<std::__ndk1::__variant_detail::__dtor<std::__ndk1::__variant_detail::__traits<std::__ndk1::monostate, std::__ndk1::basic_string<char, std::__ndk1::char_traits<char>, std::__ndk1::allocator<char> > >, (std::__ndk1::__variant_detail::_Trait)1>::__destroy[abi:ne180000]()::{lambda(auto:1&)#1}, std::__ndk1::__variant_detail::__base<(std::__ndk1::__variant_detail::__traits<std::__ndk1::monostate, std::__ndk1::basic_string<char, std::__ndk1::char_traits<char>, std::__ndk1::allocator<char> > >)1, std::__ndk1::__variant_detail::__traits, std::__ndk1::allocator<char> >&>(std::__ndk1::__variant_detail::__dtor<std::__ndk1::__variant_detail::__traits<std::__ndk1::monostate, std::__ndk1::basic_string<char, std::__ndk1::char_traits<char>, std::__ndk1::allocator<char> > >, (std::__ndk1::__variant_detail::_Trait)1>, std::__ndk1::__variant_detail::__base<(std::__ndk1::__variant_detail::__traits<std::__ndk1::monostate, std::__ndk1::basic_string<char, std::__ndk1::char_traits<char>, std::__ndk1::allocator<char> > >)1, std::__ndk1::__variant_detail::__traits, std::__ndk1::allocator<char> >&)
PUBLIC 19fdc 0 std::__ndk1::__function::__func<onExportFilePick<GJGameLevel>(GJGameLevel*, geode::Task<geode::Result<std::__ndk1::__fs::filesystem::path, std::__ndk1::basic_string<char, std::__ndk1::char_traits<char>, std::__ndk1::allocator<char> > >, std::__ndk1::monostate>::Event*)::{lambda(auto:1, bool)#1}, std::__ndk1::allocator<onExportFilePick<GJGameLevel>(GJGameLevel*, geode::Task<geode::Result<std::__ndk1::__fs::filesystem::path, std::__ndk1::basic_string<char, std::__ndk1::char_traits<char>, std::__ndk1::allocator<char> > >, std::__ndk1::monostate>::Event*)::{lambda(auto:1, bool)#1}>, void (FLAlertLayer*, bool)>::~__func()
PUBLIC 19ffc 0 std::__ndk1::__function::__func<onExportFilePick<GJGameLevel>(GJGameLevel*, geode::Task<geode::Result<std::__ndk1::__fs::filesystem::path, std::__ndk1::basic_string<char, std::__ndk1::char_traits<char>, std::__ndk1::allocator<char> > >, std::__ndk1::monostate>::Event*)::{lambda(auto:1, bool)#1}, std::__ndk1::allocator<onExportFilePick<GJGameLevel>(GJGameLevel*, geode::Task<geode::Result<std::__ndk1::__fs::filesystem::path, std::__ndk1::basic_string<char, std::__ndk1::char_traits<char>, std::__ndk1::allocator<char> > >, std::__ndk1::monostate>::Event*)::{lambda(auto:1, bool)#1}>, void (FLAlertLayer*, bool)>::~__func()
PUBLIC 1a03c 0 std::__ndk1::__function::__func<onExportFilePick<GJGameLevel>(GJGameLevel*, geode::Task<geode::Result<std::__ndk1::__fs::filesystem::path, std::__ndk1::basic_string<char, std::__ndk1::char_traits<char>, std::__ndk1::allocator<char> > >, std::__ndk1::monostate>::Event*)::{lambda(auto:1, bool)#1}, std::__ndk1::allocator<onExportFilePick<GJGameLevel>(GJGameLevel*, geode::Task<geode::Result<std::__ndk1::__fs::filesystem::path, std::__ndk1::basic_string<char, std::__ndk1::char_traits<char>, std::__ndk1::allocator<char> > >, std::__ndk1::monostate>::Event*)::{lambda(auto:1, bool)#1}>, void (FLAlertLayer*, bool)>::__clone() const
PUBLIC 1a0bc 0 std::__ndk1::__function::__func<onExportFilePick<GJGameLevel>(GJGameLevel*, geode::Task<geode::Result<std::__ndk1::__fs::filesystem::path, std::__ndk1::basic_string<char, std::__ndk1::char_traits<char>, std::__ndk1::allocator<char> > >, std::__ndk1::monostate>::Event*)::{lambda(auto:1, bool)#1}, std::__ndk1::allocator<onExportFilePick<GJGameLevel>(GJGameLevel*, geode::Task<geode::Result<std::__ndk1::__fs::filesystem::path, std::__ndk1::basic_string<char, std::__ndk1::char_traits<char>, std::__ndk1::allocator<char> > >, std::__ndk1::monostate>::Event*)::{lambda(auto:1, bool)#1}>, void (FLAlertLayer*, bool)>::__clone(std::__ndk1::__function::__base<void (FLAlertLayer*, bool)>*) const
PUBLIC 1a0f8 0 std::__ndk1::__function::__func<onExportFilePick<GJGameLevel>(GJGameLevel*, geode::Task<geode::Result<std::__ndk1::__fs::filesystem::path, std::__ndk1::basic_string<char, std::__ndk1::char_traits<char>, std::__ndk1::allocator<char> > >, std::__ndk1::monostate>::Event*)::{lambda(auto:1, bool)#1}, std::__ndk1::allocator<onExportFilePick<GJGameLevel>(GJGameLevel*, geode::Task<geode::Result<std::__ndk1::__fs::filesystem::path, std::__ndk1::basic_string<char, std::__ndk1::char_traits<char>, std::__ndk1::allocator<char> > >, std::__ndk1::monostate>::Event*)::{lambda(auto:1, bool)#1}>, void (FLAlertLayer*, bool)>::destroy()
PUBLIC 1a10c 0 std::__ndk1::__function::__func<onExportFilePick<GJGameLevel>(GJGameLevel*, geode::Task<geode::Result<std::__ndk1::__fs::filesystem::path, std::__ndk1::basic_string<char, std::__ndk1::char_traits<char>, std::__ndk1::allocator<char> > >, std::__ndk1::monostate>::Event*)::{lambda(auto:1, bool)#1}, std::__ndk1::allocator<onExportFilePick<GJGameLevel>(GJGameLevel*, geode::Task<geode::Result<std::__ndk1::__fs::filesystem::path, std::__ndk1::basic_string<char, std::__ndk1::char_traits<char>, std::__ndk1::allocator<char> > >, std::__ndk1::monostate>::Event*)::{lambda(auto:1, bool)#1}>, void (FLAlertLayer*, bool)>::destroy_deallocate()
PUBLIC 1a140 0 std::__ndk1::__function::__func<onExportFilePick<GJGameLevel>(GJGameLevel*, geode::Task<geode::Result<std::__ndk1::__fs::filesystem::path, std::__ndk1::basic_string<char, std::__ndk1::char_traits<char>, std::__ndk1::allocator<char> > >, std::__ndk1::monostate>::Event*)::{lambda(auto:1, bool)#1}, std::__ndk1::allocator<onExportFilePick<GJGameLevel>(GJGameLevel*, geode::Task<geode::Result<std::__ndk1::__fs::filesystem::path, std::__ndk1::basic_string<char, std::__ndk1::char_traits<char>, std::__ndk1::allocator<char> > >, std::__ndk1::monostate>::Event*)::{lambda(auto:1, bool)#1}>, void (FLAlertLayer*, bool)>::operator()(FLAlertLayer*&&, bool&&)
PUBLIC 1a154 0 std::__ndk1::__function::__func<onExportFilePick<GJGameLevel>(GJGameLevel*, geode::Task<geode::Result<std::__ndk1::__fs::filesystem::path, std::__ndk1::basic_string<char, std::__ndk1::char_traits<char>, std::__ndk1::allocator<char> > >, std::__ndk1::monostate>::Event*)::{lambda(auto:1, bool)#1}, std::__ndk1::allocator<onExportFilePick<GJGameLevel>(GJGameLevel*, geode::Task<geode::Result<std::__ndk1::__fs::filesystem::path, std::__ndk1::basic_string<char, std::__ndk1::char_traits<char>, std::__ndk1::allocator<char> > >, std::__ndk1::monostate>::Event*)::{lambda(auto:1, bool)#1}>, void (FLAlertLayer*, bool)>::target(std::type_info const&) const
PUBLIC 1a170 0 std::__ndk1::__function::__func<onExportFilePick<GJGameLevel>(GJGameLevel*, geode::Task<geode::Result<std::__ndk1::__fs::filesystem::path, std::__ndk1::basic_string<char, std::__ndk1::char_traits<char>, std::__ndk1::allocator<char> > >, std::__ndk1::monostate>::Event*)::{lambda(auto:1, bool)#1}, std::__ndk1::allocator<onExportFilePick<GJGameLevel>(GJGameLevel*, geode::Task<geode::Result<std::__ndk1::__fs::filesystem::path, std::__ndk1::basic_string<char, std::__ndk1::char_traits<char>, std::__ndk1::allocator<char> > >, std::__ndk1::monostate>::Event*)::{lambda(auto:1, bool)#1}>, void (FLAlertLayer*, bool)>::target_type() const
PUBLIC 1a17c 0 _ZN5geode15UnwrapExceptionC2IRNSt6__ndk14__fs10filesystem4pathEQsr4implE18IsStringStreamableIT_EEENS_4impl5OkTagEOS7_
PUBLIC 1a388 0 geode::utils::file::FilePickOptions::FilePickOptions(geode::utils::file::FilePickOptions const&)
PUBLIC 1a584 0 std::__ndk1::__tree<std::__ndk1::__value_type<std::__ndk1::basic_string<char, std::__ndk1::char_traits<char>, std::__ndk1::allocator<char> >, std::__ndk1::shared_ptr<geode::Hook> >, std::__ndk1::__map_value_compare<std::__ndk1::basic_string<char, std::__ndk1::char_traits<char>, std::__ndk1::allocator<char> >, std::__ndk1::__value_type<std::__ndk1::basic_string<char, std::__ndk1::char_traits<char>, std::__ndk1::allocator<char> >, std::__ndk1::shared_ptr<geode::Hook> >, std::__ndk1::less<std::__ndk1::basic_string<char, std::__ndk1::char_traits<char>, std::__ndk1::allocator<char> > >, true>, std::__ndk1::allocator<std::__ndk1::__value_type<std::__ndk1::basic_string<char, std::__ndk1::char_traits<char>, std::__ndk1::allocator<char> >, std::__ndk1::shared_ptr<geode::Hook> > > >::__emplace_unique_key_args<std::__ndk1::basic_string<char, std::__ndk1::char_traits<char>, std::__ndk1::allocator<char> >, std::__ndk1::piecewise_construct_t const&, std::__ndk1::tuple<std::__ndk1::basic_string<char, std::__ndk1::char_traits<char>, std::__ndk1::allocator<char> >&&>, std::__ndk1::tuple<> >(std::__ndk1::basic_string<char, std::__ndk1::char_traits<char>, std::__ndk1::allocator<char> > const&, std::__ndk1::piecewise_construct_t const&, std::__ndk1::tuple<std::__ndk1::basic_string<char, std::__ndk1::char_traits<char>, std::__ndk1::allocator<char> >&&>, std::__ndk1::tuple<>)
PUBLIC 1a6ec 0 std::__ndk1::__tree_balance_after_insert[abi:ne180000]<std::__ndk1::__tree_node_base<void*>*>(std::__ndk1::__tree_node_base<void*>*, std::__ndk1::__tree_node_base<void*>*)
PUBLIC 1a89c 0 geode::modifier::ModifyDerive<ExportOnlineLevelLayer, LevelInfoLayer>::apply()
PUBLIC 1ac38 0 geode::modifier::ModifyBase<geode::modifier::ModifyDerive<ExportOnlineLevelLayer, LevelInfoLayer> >::apply()
PUBLIC 1ac3c 0 geode::modifier::AsStaticFunction_init<ExportOnlineLevelLayer, bool (ExportOnlineLevelLayer::*)(GJGameLevel*, bool)>::Impl<bool (ExportOnlineLevelLayer::*)(GJGameLevel*, bool)>::function(ExportOnlineLevelLayer*, GJGameLevel*, bool)
PUBLIC 1ad8c 0 ExportOnlineLevelLayer::onExport(cocos2d::CCObject*)
PUBLIC 1af3c 0 geode::modifier::FieldIntermediate<ExportOnlineLevelLayer, LevelInfoLayer>::self()
PUBLIC 1b15c 0 geode::modifier::FieldIntermediate<ExportOnlineLevelLayer, LevelInfoLayer>::fieldDestructor(void*)
PUBLIC 1b1f8 0 std::__ndk1::__function::__func<ExportOnlineLevelLayer::onExport(cocos2d::CCObject*)::{lambda(auto:1*)#1}, std::__ndk1::allocator<ExportOnlineLevelLayer::onExport(cocos2d::CCObject*)::{lambda(auto:1*)#1}>, void (geode::Task<geode::Result<std::__ndk1::__fs::filesystem::path, std::__ndk1::basic_string<char, std::__ndk1::char_traits<char>, std::__ndk1::allocator<char> > >, std::__ndk1::monostate>::Event*)>::~__func()
PUBLIC 1b1fc 0 std::__ndk1::__function::__func<ExportOnlineLevelLayer::onExport(cocos2d::CCObject*)::{lambda(auto:1*)#1}, std::__ndk1::allocator<ExportOnlineLevelLayer::onExport(cocos2d::CCObject*)::{lambda(auto:1*)#1}>, void (geode::Task<geode::Result<std::__ndk1::__fs::filesystem::path, std::__ndk1::basic_string<char, std::__ndk1::char_traits<char>, std::__ndk1::allocator<char> > >, std::__ndk1::monostate>::Event*)>::__clone() const
PUBLIC 1b230 0 std::__ndk1::__function::__func<ExportOnlineLevelLayer::onExport(cocos2d::CCObject*)::{lambda(auto:1*)#1}, std::__ndk1::allocator<ExportOnlineLevelLayer::onExport(cocos2d::CCObject*)::{lambda(auto:1*)#1}>, void (geode::Task<geode::Result<std::__ndk1::__fs::filesystem::path, std::__ndk1::basic_string<char, std::__ndk1::char_traits<char>, std::__ndk1::allocator<char> > >, std::__ndk1::monostate>::Event*)>::__clone(std::__ndk1::__function::__base<void (geode::Task<geode::Result<std::__ndk1::__fs::filesystem::path, std::__ndk1::basic_string<char, std::__ndk1::char_traits<char>, std::__ndk1::allocator<char> > >, std::__ndk1::monostate>::Event*)>*) const
PUBLIC 1b244 0 std::__ndk1::__function::__func<ExportOnlineLevelLayer::onExport(cocos2d::CCObject*)::{lambda(auto:1*)#1}, std::__ndk1::allocator<ExportOnlineLevelLayer::onExport(cocos2d::CCObject*)::{lambda(auto:1*)#1}>, void (geode::Task<geode::Result<std::__ndk1::__fs::filesystem::path, std::__ndk1::basic_string<char, std::__ndk1::char_traits<char>, std::__ndk1::allocator<char> > >, std::__ndk1::monostate>::Event*)>::destroy()
PUBLIC 1b248 0 std::__ndk1::__function::__func<ExportOnlineLevelLayer::onExport(cocos2d::CCObject*)::{lambda(auto:1*)#1}, std::__ndk1::allocator<ExportOnlineLevelLayer::onExport(cocos2d::CCObject*)::{lambda(auto:1*)#1}>, void (geode::Task<geode::Result<std::__ndk1::__fs::filesystem::path, std::__ndk1::basic_string<char, std::__ndk1::char_traits<char>, std::__ndk1::allocator<char> > >, std::__ndk1::monostate>::Event*)>::destroy_deallocate()
PUBLIC 1b24c 0 std::__ndk1::__function::__func<ExportOnlineLevelLayer::onExport(cocos2d::CCObject*)::{lambda(auto:1*)#1}, std::__ndk1::allocator<ExportOnlineLevelLayer::onExport(cocos2d::CCObject*)::{lambda(auto:1*)#1}>, void (geode::Task<geode::Result<std::__ndk1::__fs::filesystem::path, std::__ndk1::basic_string<char, std::__ndk1::char_traits<char>, std::__ndk1::allocator<char> > >, std::__ndk1::monostate>::Event*)>::operator()(geode::Task<geode::Result<std::__ndk1::__fs::filesystem::path, std::__ndk1::basic_string<char, std::__ndk1::char_traits<char>, std::__ndk1::allocator<char> > >, std::__ndk1::monostate>::Event*&&)
PUBLIC 1b260 0 std::__ndk1::__function::__func<ExportOnlineLevelLayer::onExport(cocos2d::CCObject*)::{lambda(auto:1*)#1}, std::__ndk1::allocator<ExportOnlineLevelLayer::onExport(cocos2d::CCObject*)::{lambda(auto:1*)#1}>, void (geode::Task<geode::Result<std::__ndk1::__fs::filesystem::path, std::__ndk1::basic_string<char, std::__ndk1::char_traits<char>, std::__ndk1::allocator<char> > >, std::__ndk1::monostate>::Event*)>::target(std::type_info const&) const
PUBLIC 1b27c 0 std::__ndk1::__function::__func<ExportOnlineLevelLayer::onExport(cocos2d::CCObject*)::{lambda(auto:1*)#1}, std::__ndk1::allocator<ExportOnlineLevelLayer::onExport(cocos2d::CCObject*)::{lambda(auto:1*)#1}>, void (geode::Task<geode::Result<std::__ndk1::__fs::filesystem::path, std::__ndk1::basic_string<char, std::__ndk1::char_traits<char>, std::__ndk1::allocator<char> > >, std::__ndk1::monostate>::Event*)>::target_type() const
PUBLIC 1b288 0 geode::modifier::ModifyDerive<ImportLayer, LevelBrowserLayer>::apply()
PUBLIC 1b5f4 0 geode::modifier::ModifyBase<geode::modifier::ModifyDerive<ImportLayer, LevelBrowserLayer> >::apply()
PUBLIC 1b5f8 0 geode::modifier::AsStaticFunction_init<ImportLayer, bool (ImportLayer::*)(GJSearchObject*)>::Impl<bool (ImportLayer::*)(GJSearchObject*)>::function(ImportLayer*, GJSearchObject*)
PUBLIC 1b79c 0 ImportLayer::onImport(cocos2d::CCObject*)
PUBLIC 1ba00 0 geode::Task<geode::Result<std::__ndk1::vector<std::__ndk1::__fs::filesystem::path, std::__ndk1::allocator<std::__ndk1::__fs::filesystem::path> >, std::__ndk1::basic_string<char, std::__ndk1::char_traits<char>, std::__ndk1::allocator<char> > >, std::__ndk1::monostate>::~Task()
PUBLIC 1ba50 0 geode::modifier::FieldIntermediate<ImportLayer, LevelBrowserLayer>::self()
PUBLIC 1bc6c 0 geode::modifier::FieldIntermediate<ImportLayer, LevelBrowserLayer>::fieldDestructor(void*)
PUBLIC 1bd08 0 geode::EventListener<geode::Task<geode::Result<std::__ndk1::vector<std::__ndk1::__fs::filesystem::path, std::__ndk1::allocator<std::__ndk1::__fs::filesystem::path> >, std::__ndk1::basic_string<char, std::__ndk1::char_traits<char>, std::__ndk1::allocator<char> > >, std::__ndk1::monostate> >::~EventListener()
PUBLIC 1bda4 0 geode::EventListener<geode::Task<geode::Result<std::__ndk1::vector<std::__ndk1::__fs::filesystem::path, std::__ndk1::allocator<std::__ndk1::__fs::filesystem::path> >, std::__ndk1::basic_string<char, std::__ndk1::char_traits<char>, std::__ndk1::allocator<char> > >, std::__ndk1::monostate> >::getPool() const
PUBLIC 1bda8 0 geode::EventListener<geode::Task<geode::Result<std::__ndk1::vector<std::__ndk1::__fs::filesystem::path, std::__ndk1::allocator<std::__ndk1::__fs::filesystem::path> >, std::__ndk1::basic_string<char, std::__ndk1::char_traits<char>, std::__ndk1::allocator<char> > >, std::__ndk1::monostate> >::handle(geode::Event*)
PUBLIC 1bf54 0 geode::EventListener<geode::Task<geode::Result<std::__ndk1::vector<std::__ndk1::__fs::filesystem::path, std::__ndk1::allocator<std::__ndk1::__fs::filesystem::path> >, std::__ndk1::basic_string<char, std::__ndk1::char_traits<char>, std::__ndk1::allocator<char> > >, std::__ndk1::monostate> >::~EventListener()
PUBLIC 1bff8 0 geode::Task<geode::Result<std::__ndk1::vector<std::__ndk1::__fs::filesystem::path, std::__ndk1::allocator<std::__ndk1::__fs::filesystem::path> >, std::__ndk1::basic_string<char, std::__ndk1::char_traits<char>, std::__ndk1::allocator<char> > >, std::__ndk1::monostate>::setListener(geode::EventListenerProtocol*)
PUBLIC 1c1fc 0 geode::Task<geode::Result<std::__ndk1::vector<std::__ndk1::__fs::filesystem::path, std::__ndk1::allocator<std::__ndk1::__fs::filesystem::path> >, std::__ndk1::basic_string<char, std::__ndk1::char_traits<char>, std::__ndk1::allocator<char> > >, std::__ndk1::monostate>::setListener(geode::EventListenerProtocol*)::{lambda()#1}::~{lambda()#1}()
PUBLIC 1c24c 0 geode::Task<geode::Result<std::__ndk1::vector<std::__ndk1::__fs::filesystem::path, std::__ndk1::allocator<std::__ndk1::__fs::filesystem::path> >, std::__ndk1::basic_string<char, std::__ndk1::char_traits<char>, std::__ndk1::allocator<char> > >, std::__ndk1::monostate>::setListener(geode::EventListenerProtocol*)::{lambda()#2}::~{lambda()#2}()
PUBLIC 1c29c 0 std::__ndk1::__function::__func<geode::Task<geode::Result<std::__ndk1::vector<std::__ndk1::__fs::filesystem::path, std::__ndk1::allocator<std::__ndk1::__fs::filesystem::path> >, std::__ndk1::basic_string<char, std::__ndk1::char_traits<char>, std::__ndk1::allocator<char> > >, std::__ndk1::monostate>::setListener(geode::EventListenerProtocol*)::{lambda()#1}, std::__ndk1::allocator<geode::Task<geode::Result<std::__ndk1::vector<std::__ndk1::__fs::filesystem::path, std::__ndk1::allocator<std::__ndk1::__fs::filesystem::path> >, std::__ndk1::basic_string<char, std::__ndk1::char_traits<char>, std::__ndk1::allocator<char> > >, std::__ndk1::monostate>::setListener(geode::EventListenerProtocol*)::{lambda()#1}>, void ()>::~__func()
PUBLIC 1c2f8 0 std::__ndk1::__function::__func<geode::Task<geode::Result<std::__ndk1::vector<std::__ndk1::__fs::filesystem::path, std::__ndk1::allocator<std::__ndk1::__fs::filesystem::path> >, std::__ndk1::basic_string<char, std::__ndk1::char_traits<char>, std::__ndk1::allocator<char> > >, std::__ndk1::monostate>::setListener(geode::EventListenerProtocol*)::{lambda()#1}, std::__ndk1::allocator<geode::Task<geode::Result<std::__ndk1::vector<std::__ndk1::__fs::filesystem::path, std::__ndk1::allocator<std::__ndk1::__fs::filesystem::path> >, std::__ndk1::basic_string<char, std::__ndk1::char_traits<char>, std::__ndk1::allocator<char> > >, std::__ndk1::monostate>::setListener(geode::EventListenerProtocol*)::{lambda()#1}>, void ()>::~__func()
PUBLIC 1c364 0 std::__ndk1::__function::__func<geode::Task<geode::Result<std::__ndk1::vector<std::__ndk1::__fs::filesystem::path, std::__ndk1::allocator<std::__ndk1::__fs::filesystem::path> >, std::__ndk1::basic_string<char, std::__ndk1::char_traits<char>, std::__ndk1::allocator<char> > >, std::__ndk1::monostate>::setListener(geode::EventListenerProtocol*)::{lambda()#1}, std::__ndk1::allocator<geode::Task<geode::Result<std::__ndk1::vector<std::__ndk1::__fs::filesystem::path, std::__ndk1::allocator<std::__ndk1::__fs::filesystem::path> >, std::__ndk1::basic_string<char, std::__ndk1::char_traits<char>, std::__ndk1::allocator<char> > >, std::__ndk1::monostate>::setListener(geode::EventListenerProtocol*)::{lambda()#1}>, void ()>::__clone() const
PUBLIC 1c3bc 0 std::__ndk1::__function::__func<geode::Task<geode::Result<std::__ndk1::vector<std::__ndk1::__fs::filesystem::path, std::__ndk1::allocator<std::__ndk1::__fs::filesystem::path> >, std::__ndk1::basic_string<char, std::__ndk1::char_traits<char>, std::__ndk1::allocator<char> > >, std::__ndk1::monostate>::setListener(geode::EventListenerProtocol*)::{lambda()#1}, std::__ndk1::allocator<geode::Task<geode::Result<std::__ndk1::vector<std::__ndk1::__fs::filesystem::path, std::__ndk1::allocator<std::__ndk1::__fs::filesystem::path> >, std::__ndk1::basic_string<char, std::__ndk1::char_traits<char>, std::__ndk1::allocator<char> > >, std::__ndk1::monostate>::setListener(geode::EventListenerProtocol*)::{lambda()#1}>, void ()>::__clone(std::__ndk1::__function::__base<void ()>*) const
PUBLIC 1c408 0 std::__ndk1::__function::__func<geode::Task<geode::Result<std::__ndk1::vector<std::__ndk1::__fs::filesystem::path, std::__ndk1::allocator<std::__ndk1::__fs::filesystem::path> >, std::__ndk1::basic_string<char, std::__ndk1::char_traits<char>, std::__ndk1::allocator<char> > >, std::__ndk1::monostate>::setListener(geode::EventListenerProtocol*)::{lambda()#1}, std::__ndk1::allocator<geode::Task<geode::Result<std::__ndk1::vector<std::__ndk1::__fs::filesystem::path, std::__ndk1::allocator<std::__ndk1::__fs::filesystem::path> >, std::__ndk1::basic_string<char, std::__ndk1::char_traits<char>, std::__ndk1::allocator<char> > >, std::__ndk1::monostate>::setListener(geode::EventListenerProtocol*)::{lambda()#1}>, void ()>::destroy()
PUBLIC 1c458 0 std::__ndk1::__function::__func<geode::Task<geode::Result<std::__ndk1::vector<std::__ndk1::__fs::filesystem::path, std::__ndk1::allocator<std::__ndk1::__fs::filesystem::path> >, std::__ndk1::basic_string<char, std::__ndk1::char_traits<char>, std::__ndk1::allocator<char> > >, std::__ndk1::monostate>::setListener(geode::EventListenerProtocol*)::{lambda()#1}, std::__ndk1::allocator<geode::Task<geode::Result<std::__ndk1::vector<std::__ndk1::__fs::filesystem::path, std::__ndk1::allocator<std::__ndk1::__fs::filesystem::path> >, std::__ndk1::basic_string<char, std::__ndk1::char_traits<char>, std::__ndk1::allocator<char> > >, std::__ndk1::monostate>::setListener(geode::EventListenerProtocol*)::{lambda()#1}>, void ()>::destroy_deallocate()
PUBLIC 1c4b8 0 std::__ndk1::__function::__func<geode::Task<geode::Result<std::__ndk1::vector<std::__ndk1::__fs::filesystem::path, std::__ndk1::allocator<std::__ndk1::__fs::filesystem::path> >, std::__ndk1::basic_string<char, std::__ndk1::char_traits<char>, std::__ndk1::allocator<char> > >, std::__ndk1::monostate>::setListener(geode::EventListenerProtocol*)::{lambda()#1}, std::__ndk1::allocator<geode::Task<geode::Result<std::__ndk1::vector<std::__ndk1::__fs::filesystem::path, std::__ndk1::allocator<std::__ndk1::__fs::filesystem::path> >, std::__ndk1::basic_string<char, std::__ndk1::char_traits<char>, std::__ndk1::allocator<char> > >, std::__ndk1::monostate>::setListener(geode::EventListenerProtocol*)::{lambda()#1}>, void ()>::operator()()
PUBLIC 1c688 0 std::__ndk1::__function::__func<geode::Task<geode::Result<std::__ndk1::vector<std::__ndk1::__fs::filesystem::path, std::__ndk1::allocator<std::__ndk1::__fs::filesystem::path> >, std::__ndk1::basic_string<char, std::__ndk1::char_traits<char>, std::__ndk1::allocator<char> > >, std::__ndk1::monostate>::setListener(geode::EventListenerProtocol*)::{lambda()#1}, std::__ndk1::allocator<geode::Task<geode::Result<std::__ndk1::vector<std::__ndk1::__fs::filesystem::path, std::__ndk1::allocator<std::__ndk1::__fs::filesystem::path> >, std::__ndk1::basic_string<char, std::__ndk1::char_traits<char>, std::__ndk1::allocator<char> > >, std::__ndk1::monostate>::setListener(geode::EventListenerProtocol*)::{lambda()#1}>, void ()>::target(std::type_info const&) const
PUBLIC 1c6a4 0 std::__ndk1::__function::__func<geode::Task<geode::Result<std::__ndk1::vector<std::__ndk1::__fs::filesystem::path, std::__ndk1::allocator<std::__ndk1::__fs::filesystem::path> >, std::__ndk1::basic_string<char, std::__ndk1::char_traits<char>, std::__ndk1::allocator<char> > >, std::__ndk1::monostate>::setListener(geode::EventListenerProtocol*)::{lambda()#1}, std::__ndk1::allocator<geode::Task<geode::Result<std::__ndk1::vector<std::__ndk1::__fs::filesystem::path, std::__ndk1::allocator<std::__ndk1::__fs::filesystem::path> >, std::__ndk1::basic_string<char, std::__ndk1::char_traits<char>, std::__ndk1::allocator<char> > >, std::__ndk1::monostate>::setListener(geode::EventListenerProtocol*)::{lambda()#1}>, void ()>::target_type() const
PUBLIC 1c6b0 0 geode::Task<geode::Result<std::__ndk1::vector<std::__ndk1::__fs::filesystem::path, std::__ndk1::allocator<std::__ndk1::__fs::filesystem::path> >, std::__ndk1::basic_string<char, std::__ndk1::char_traits<char>, std::__ndk1::allocator<char> > >, std::__ndk1::monostate>::Event::~Event()
PUBLIC 1c710 0 geode::Task<geode::Result<std::__ndk1::vector<std::__ndk1::__fs::filesystem::path, std::__ndk1::allocator<std::__ndk1::__fs::filesystem::path> >, std::__ndk1::basic_string<char, std::__ndk1::char_traits<char>, std::__ndk1::allocator<char> > >, std::__ndk1::monostate>::Event::~Event()
PUBLIC 1c780 0 std::__ndk1::__function::__func<geode::Task<geode::Result<std::__ndk1::vector<std::__ndk1::__fs::filesystem::path, std::__ndk1::allocator<std::__ndk1::__fs::filesystem::path> >, std::__ndk1::basic_string<char, std::__ndk1::char_traits<char>, std::__ndk1::allocator<char> > >, std::__ndk1::monostate>::setListener(geode::EventListenerProtocol*)::{lambda()#2}, std::__ndk1::allocator<geode::Task<geode::Result<std::__ndk1::vector<std::__ndk1::__fs::filesystem::path, std::__ndk1::allocator<std::__ndk1::__fs::filesystem::path> >, std::__ndk1::basic_string<char, std::__ndk1::char_traits<char>, std::__ndk1::allocator<char> > >, std::__ndk1::monostate>::setListener(geode::EventListenerProtocol*)::{lambda()#2}>, void ()>::~__func()
PUBLIC 1c7dc 0 std::__ndk1::__function::__func<geode::Task<geode::Result<std::__ndk1::vector<std::__ndk1::__fs::filesystem::path, std::__ndk1::allocator<std::__ndk1::__fs::filesystem::path> >, std::__ndk1::basic_string<char, std::__ndk1::char_traits<char>, std::__ndk1::allocator<char> > >, std::__ndk1::monostate>::setListener(geode::EventListenerProtocol*)::{lambda()#2}, std::__ndk1::allocator<geode::Task<geode::Result<std::__ndk1::vector<std::__ndk1::__fs::filesystem::path, std::__ndk1::allocator<std::__ndk1::__fs::filesystem::path> >, std::__ndk1::basic_string<char, std::__ndk1::char_traits<char>, std::__ndk1::allocator<char> > >, std::__ndk1::monostate>::setListener(geode::EventListenerProtocol*)::{lambda()#2}>, void ()>::~__func()
PUBLIC 1c848 0 std::__ndk1::__function::__func<geode::Task<geode::Result<std::__ndk1::vector<std::__ndk1::__fs::filesystem::path, std::__ndk1::allocator<std::__ndk1::__fs::filesystem::path> >, std::__ndk1::basic_string<char, std::__ndk1::char_traits<char>, std::__ndk1::allocator<char> > >, std::__ndk1::monostate>::setListener(geode::EventListenerProtocol*)::{lambda()#2}, std::__ndk1::allocator<geode::Task<geode::Result<std::__ndk1::vector<std::__ndk1::__fs::filesystem::path, std::__ndk1::allocator<std::__ndk1::__fs::filesystem::path> >, std::__ndk1::basic_string<char, std::__ndk1::char_traits<char>, std::__ndk1::allocator<char> > >, std::__ndk1::monostate>::setListener(geode::EventListenerProtocol*)::{lambda()#2}>, void ()>::__clone() const
PUBLIC 1c8a0 0 std::__ndk1::__function::__func<geode::Task<geode::Result<std::__ndk1::vector<std::__ndk1::__fs::filesystem::path, std::__ndk1::allocator<std::__ndk1::__fs::filesystem::path> >, std::__ndk1::basic_string<char, std::__ndk1::char_traits<char>, std::__ndk1::allocator<char> > >, std::__ndk1::monostate>::setListener(geode::EventListenerProtocol*)::{lambda()#2}, std::__ndk1::allocator<geode::Task<geode::Result<std::__ndk1::vector<std::__ndk1::__fs::filesystem::path, std::__ndk1::allocator<std::__ndk1::__fs::filesystem::path> >, std::__ndk1::basic_string<char, std::__ndk1::char_traits<char>, std::__ndk1::allocator<char> > >, std::__ndk1::monostate>::setListener(geode::EventListenerProtocol*)::{lambda()#2}>, void ()>::__clone(std::__ndk1::__function::__base<void ()>*) const
PUBLIC 1c8ec 0 std::__ndk1::__function::__func<geode::Task<geode::Result<std::__ndk1::vector<std::__ndk1::__fs::filesystem::path, std::__ndk1::allocator<std::__ndk1::__fs::filesystem::path> >, std::__ndk1::basic_string<char, std::__ndk1::char_traits<char>, std::__ndk1::allocator<char> > >, std::__ndk1::monostate>::setListener(geode::EventListenerProtocol*)::{lambda()#2}, std::__ndk1::allocator<geode::Task<geode::Result<std::__ndk1::vector<std::__ndk1::__fs::filesystem::path, std::__ndk1::allocator<std::__ndk1::__fs::filesystem::path> >, std::__ndk1::basic_string<char, std::__ndk1::char_traits<char>, std::__ndk1::allocator<char> > >, std::__ndk1::monostate>::setListener(geode::EventListenerProtocol*)::{lambda()#2}>, void ()>::destroy()
PUBLIC 1c93c 0 std::__ndk1::__function::__func<geode::Task<geode::Result<std::__ndk1::vector<std::__ndk1::__fs::filesystem::path, std::__ndk1::allocator<std::__ndk1::__fs::filesystem::path> >, std::__ndk1::basic_string<char, std::__ndk1::char_traits<char>, std::__ndk1::allocator<char> > >, std::__ndk1::monostate>::setListener(geode::EventListenerProtocol*)::{lambda()#2}, std::__ndk1::allocator<geode::Task<geode::Result<std::__ndk1::vector<std::__ndk1::__fs::filesystem::path, std::__ndk1::allocator<std::__ndk1::__fs::filesystem::path> >, std::__ndk1::basic_string<char, std::__ndk1::char_traits<char>, std::__ndk1::allocator<char> > >, std::__ndk1::monostate>::setListener(geode::EventListenerProtocol*)::{lambda()#2}>, void ()>::destroy_deallocate()
PUBLIC 1c99c 0 std::__ndk1::__function::__func<geode::Task<geode::Result<std::__ndk1::vector<std::__ndk1::__fs::filesystem::path, std::__ndk1::allocator<std::__ndk1::__fs::filesystem::path> >, std::__ndk1::basic_string<char, std::__ndk1::char_traits<char>, std::__ndk1::allocator<char> > >, std::__ndk1::monostate>::setListener(geode::EventListenerProtocol*)::{lambda()#2}, std::__ndk1::allocator<geode::Task<geode::Result<std::__ndk1::vector<std::__ndk1::__fs::filesystem::path, std::__ndk1::allocator<std::__ndk1::__fs::filesystem::path> >, std::__ndk1::basic_string<char, std::__ndk1::char_traits<char>, std::__ndk1::allocator<char> > >, std::__ndk1::monostate>::setListener(geode::EventListenerProtocol*)::{lambda()#2}>, void ()>::operator()()
PUBLIC 1cb60 0 std::__ndk1::__function::__func<geode::Task<geode::Result<std::__ndk1::vector<std::__ndk1::__fs::filesystem::path, std::__ndk1::allocator<std::__ndk1::__fs::filesystem::path> >, std::__ndk1::basic_string<char, std::__ndk1::char_traits<char>, std::__ndk1::allocator<char> > >, std::__ndk1::monostate>::setListener(geode::EventListenerProtocol*)::{lambda()#2}, std::__ndk1::allocator<geode::Task<geode::Result<std::__ndk1::vector<std::__ndk1::__fs::filesystem::path, std::__ndk1::allocator<std::__ndk1::__fs::filesystem::path> >, std::__ndk1::basic_string<char, std::__ndk1::char_traits<char>, std::__ndk1::allocator<char> > >, std::__ndk1::monostate>::setListener(geode::EventListenerProtocol*)::{lambda()#2}>, void ()>::target(std::type_info const&) const
PUBLIC 1cb7c 0 std::__ndk1::__function::__func<geode::Task<geode::Result<std::__ndk1::vector<std::__ndk1::__fs::filesystem::path, std::__ndk1::allocator<std::__ndk1::__fs::filesystem::path> >, std::__ndk1::basic_string<char, std::__ndk1::char_traits<char>, std::__ndk1::allocator<char> > >, std::__ndk1::monostate>::setListener(geode::EventListenerProtocol*)::{lambda()#2}, std::__ndk1::allocator<geode::Task<geode::Result<std::__ndk1::vector<std::__ndk1::__fs::filesystem::path, std::__ndk1::allocator<std::__ndk1::__fs::filesystem::path> >, std::__ndk1::basic_string<char, std::__ndk1::char_traits<char>, std::__ndk1::allocator<char> > >, std::__ndk1::monostate>::setListener(geode::EventListenerProtocol*)::{lambda()#2}>, void ()>::target_type() const
PUBLIC 1cb88 0 std::__ndk1::__function::__base<void (geode::Task<geode::Result<std::__ndk1::vector<std::__ndk1::__fs::filesystem::path, std::__ndk1::allocator<std::__ndk1::__fs::filesystem::path> >, std::__ndk1::basic_string<char, std::__ndk1::char_traits<char>, std::__ndk1::allocator<char> > >, std::__ndk1::monostate>::Event*)>::~__base()
PUBLIC 1cb8c 0 std::__ndk1::__function::__func<ImportLayer::onImport(cocos2d::CCObject*)::{lambda(auto:1*)#1}, std::__ndk1::allocator<ImportLayer::onImport(cocos2d::CCObject*)::{lambda(auto:1*)#1}>, void (geode::Task<geode::Result<std::__ndk1::vector<std::__ndk1::__fs::filesystem::path, std::__ndk1::allocator<std::__ndk1::__fs::filesystem::path> >, std::__ndk1::basic_string<char, std::__ndk1::char_traits<char>, std::__ndk1::allocator<char> > >, std::__ndk1::monostate>::Event*)>::~__func()
PUBLIC 1cb90 0 std::__ndk1::__function::__func<ImportLayer::onImport(cocos2d::CCObject*)::{lambda(auto:1*)#1}, std::__ndk1::allocator<ImportLayer::onImport(cocos2d::CCObject*)::{lambda(auto:1*)#1}>, void (geode::Task<geode::Result<std::__ndk1::vector<std::__ndk1::__fs::filesystem::path, std::__ndk1::allocator<std::__ndk1::__fs::filesystem::path> >, std::__ndk1::basic_string<char, std::__ndk1::char_traits<char>, std::__ndk1::allocator<char> > >, std::__ndk1::monostate>::Event*)>::__clone() const
PUBLIC 1cbb4 0 std::__ndk1::__function::__func<ImportLayer::onImport(cocos2d::CCObject*)::{lambda(auto:1*)#1}, std::__ndk1::allocator<ImportLayer::onImport(cocos2d::CCObject*)::{lambda(auto:1*)#1}>, void (geode::Task<geode::Result<std::__ndk1::vector<std::__ndk1::__fs::filesystem::path, std::__ndk1::allocator<std::__ndk1::__fs::filesystem::path> >, std::__ndk1::basic_string<char, std::__ndk1::char_traits<char>, std::__ndk1::allocator<char> > >, std::__ndk1::monostate>::Event*)>::__clone(std::__ndk1::__function::__base<void (geode::Task<geode::Result<std::__ndk1::vector<std::__ndk1::__fs::filesystem::path, std::__ndk1::allocator<std::__ndk1::__fs::filesystem::path> >, std::__ndk1::basic_string<char, std::__ndk1::char_traits<char>, std::__ndk1::allocator<char> > >, std::__ndk1::monostate>::Event*)>*) const
PUBLIC 1cbc4 0 std::__ndk1::__function::__func<ImportLayer::onImport(cocos2d::CCObject*)::{lambda(auto:1*)#1}, std::__ndk1::allocator<ImportLayer::onImport(cocos2d::CCObject*)::{lambda(auto:1*)#1}>, void (geode::Task<geode::Result<std::__ndk1::vector<std::__ndk1::__fs::filesystem::path, std::__ndk1::allocator<std::__ndk1::__fs::filesystem::path> >, std::__ndk1::basic_string<char, std::__ndk1::char_traits<char>, std::__ndk1::allocator<char> > >, std::__ndk1::monostate>::Event*)>::destroy()
PUBLIC 1cbc8 0 std::__ndk1::__function::__func<ImportLayer::onImport(cocos2d::CCObject*)::{lambda(auto:1*)#1}, std::__ndk1::allocator<ImportLayer::onImport(cocos2d::CCObject*)::{lambda(auto:1*)#1}>, void (geode::Task<geode::Result<std::__ndk1::vector<std::__ndk1::__fs::filesystem::path, std::__ndk1::allocator<std::__ndk1::__fs::filesystem::path> >, std::__ndk1::basic_string<char, std::__ndk1::char_traits<char>, std::__ndk1::allocator<char> > >, std::__ndk1::monostate>::Event*)>::destroy_deallocate()
PUBLIC 1cbcc 0 std::__ndk1::__function::__func<ImportLayer::onImport(cocos2d::CCObject*)::{lambda(auto:1*)#1}, std::__ndk1::allocator<ImportLayer::onImport(cocos2d::CCObject*)::{lambda(auto:1*)#1}>, void (geode::Task<geode::Result<std::__ndk1::vector<std::__ndk1::__fs::filesystem::path, std::__ndk1::allocator<std::__ndk1::__fs::filesystem::path> >, std::__ndk1::basic_string<char, std::__ndk1::char_traits<char>, std::__ndk1::allocator<char> > >, std::__ndk1::monostate>::Event*)>::operator()(geode::Task<geode::Result<std::__ndk1::vector<std::__ndk1::__fs::filesystem::path, std::__ndk1::allocator<std::__ndk1::__fs::filesystem::path> >, std::__ndk1::basic_string<char, std::__ndk1::char_traits<char>, std::__ndk1::allocator<char> > >, std::__ndk1::monostate>::Event*&&)
PUBLIC 1d334 0 std::__ndk1::__function::__func<ImportLayer::onImport(cocos2d::CCObject*)::{lambda(auto:1*)#1}, std::__ndk1::allocator<ImportLayer::onImport(cocos2d::CCObject*)::{lambda(auto:1*)#1}>, void (geode::Task<geode::Result<std::__ndk1::vector<std::__ndk1::__fs::filesystem::path, std::__ndk1::allocator<std::__ndk1::__fs::filesystem::path> >, std::__ndk1::basic_string<char, std::__ndk1::char_traits<char>, std::__ndk1::allocator<char> > >, std::__ndk1::monostate>::Event*)>::target(std::type_info const&) const
PUBLIC 1d350 0 std::__ndk1::__function::__func<ImportLayer::onImport(cocos2d::CCObject*)::{lambda(auto:1*)#1}, std::__ndk1::allocator<ImportLayer::onImport(cocos2d::CCObject*)::{lambda(auto:1*)#1}>, void (geode::Task<geode::Result<std::__ndk1::vector<std::__ndk1::__fs::filesystem::path, std::__ndk1::allocator<std::__ndk1::__fs::filesystem::path> >, std::__ndk1::basic_string<char, std::__ndk1::char_traits<char>, std::__ndk1::allocator<char> > >, std::__ndk1::monostate>::Event*)>::target_type() const
PUBLIC 1d35c 0 geode::impl::ResultData<geode::Ref<GJLevelList>, std::__ndk1::basic_string<char, std::__ndk1::char_traits<char>, std::__ndk1::allocator<char> > >::~ResultData()
PUBLIC 1d3d0 0 geode::impl::ResultData<GJGameLevel*, std::__ndk1::basic_string<char, std::__ndk1::char_traits<char>, std::__ndk1::allocator<char> > >::~ResultData()
PUBLIC 1d444 0 _ZN5geode15UnwrapExceptionC2IRNS_3RefI11GJLevelListEEQsr4implE18IsStringStreamableIT_EEENS_4impl5OkTagEOS6_
PUBLIC 1d598 0 std::__ndk1::__variant_detail::__visitation::__base::__dispatcher<(unsigned long)0>::__dispatch[abi:ne180000]<std::__ndk1::__variant_detail::__dtor<std::__ndk1::__variant_detail::__traits<geode::Ref<GJLevelList>, std::__ndk1::basic_string<char, std::__ndk1::char_traits<char>, std::__ndk1::allocator<char> > >, (std::__ndk1::__variant_detail::_Trait)1>::__destroy[abi:ne180000]()::{lambda(auto:1&)#1}, std::__ndk1::__variant_detail::__base<(std::__ndk1::__variant_detail::__traits<geode::Ref<GJLevelList>, std::__ndk1::basic_string<char, std::__ndk1::char_traits<char>, std::__ndk1::allocator<char> > >)1, GJLevelList, std::__ndk1::allocator<char> >&>(std::__ndk1::__variant_detail::__dtor<std::__ndk1::__variant_detail::__traits<geode::Ref<GJLevelList>, std::__ndk1::basic_string<char, std::__ndk1::char_traits<char>, std::__ndk1::allocator<char> > >, (std::__ndk1::__variant_detail::_Trait)1>, std::__ndk1::__variant_detail::__base<(std::__ndk1::__variant_detail::__traits<geode::Ref<GJLevelList>, std::__ndk1::basic_string<char, std::__ndk1::char_traits<char>, std::__ndk1::allocator<char> > >)1, GJLevelList, std::__ndk1::allocator<char> >&)
PUBLIC 1d5b8 0 std::__ndk1::__variant_detail::__visitation::__base::__dispatcher<(unsigned long)1>::__dispatch[abi:ne180000]<std::__ndk1::__variant_detail::__dtor<std::__ndk1::__variant_detail::__traits<geode::Ref<GJLevelList>, std::__ndk1::basic_string<char, std::__ndk1::char_traits<char>, std::__ndk1::allocator<char> > >, (std::__ndk1::__variant_detail::_Trait)1>::__destroy[abi:ne180000]()::{lambda(auto:1&)#1}, std::__ndk1::__variant_detail::__base<(std::__ndk1::__variant_detail::__traits<geode::Ref<GJLevelList>, std::__ndk1::basic_string<char, std::__ndk1::char_traits<char>, std::__ndk1::allocator<char> > >)1, GJLevelList, std::__ndk1::allocator<char> >&>(std::__ndk1::__variant_detail::__dtor<std::__ndk1::__variant_detail::__traits<geode::Ref<GJLevelList>, std::__ndk1::basic_string<char, std::__ndk1::char_traits<char>, std::__ndk1::allocator<char> > >, (std::__ndk1::__variant_detail::_Trait)1>, std::__ndk1::__variant_detail::__base<(std::__ndk1::__variant_detail::__traits<geode::Ref<GJLevelList>, std::__ndk1::basic_string<char, std::__ndk1::char_traits<char>, std::__ndk1::allocator<char> > >)1, GJLevelList, std::__ndk1::allocator<char> >&)
PUBLIC 1d5cc 0 _ZN5geode15UnwrapExceptionC2IRP11GJGameLevelQsr4implE18IsStringStreamableIT_EEENS_4impl5OkTagEOS5_
PUBLIC 1d720 0 std::__ndk1::__variant_detail::__visitation::__base::__dispatcher<(unsigned long)0>::__dispatch[abi:ne180000]<std::__ndk1::__variant_detail::__dtor<std::__ndk1::__variant_detail::__traits<GJGameLevel*, std::__ndk1::basic_string<char, std::__ndk1::char_traits<char>, std::__ndk1::allocator<char> > >, (std::__ndk1::__variant_detail::_Trait)1>::__destroy[abi:ne180000]()::{lambda(auto:1&)#1}, std::__ndk1::__variant_detail::__base<(std::__ndk1::__variant_detail::__traits<GJGameLevel*, std::__ndk1::basic_string<char, std::__ndk1::char_traits<char>, std::__ndk1::allocator<char> > >)1, GJGameLevel, std::__ndk1::allocator<char> >&>(std::__ndk1::__variant_detail::__dtor<std::__ndk1::__variant_detail::__traits<GJGameLevel*, std::__ndk1::basic_string<char, std::__ndk1::char_traits<char>, std::__ndk1::allocator<char> > >, (std::__ndk1::__variant_detail::_Trait)1>, std::__ndk1::__variant_detail::__base<(std::__ndk1::__variant_detail::__traits<GJGameLevel*, std::__ndk1::basic_string<char, std::__ndk1::char_traits<char>, std::__ndk1::allocator<char> > >)1, GJGameLevel, std::__ndk1::allocator<char> >&)
PUBLIC 1d724 0 std::__ndk1::__variant_detail::__visitation::__base::__dispatcher<(unsigned long)1>::__dispatch[abi:ne180000]<std::__ndk1::__variant_detail::__dtor<std::__ndk1::__variant_detail::__traits<GJGameLevel*, std::__ndk1::basic_string<char, std::__ndk1::char_traits<char>, std::__ndk1::allocator<char> > >, (std::__ndk1::__variant_detail::_Trait)1>::__destroy[abi:ne180000]()::{lambda(auto:1&)#1}, std::__ndk1::__variant_detail::__base<(std::__ndk1::__variant_detail::__traits<GJGameLevel*, std::__ndk1::basic_string<char, std::__ndk1::char_traits<char>, std::__ndk1::allocator<char> > >)1, GJGameLevel, std::__ndk1::allocator<char> >&>(std::__ndk1::__variant_detail::__dtor<std::__ndk1::__variant_detail::__traits<GJGameLevel*, std::__ndk1::basic_string<char, std::__ndk1::char_traits<char>, std::__ndk1::allocator<char> > >, (std::__ndk1::__variant_detail::_Trait)1>, std::__ndk1::__variant_detail::__base<(std::__ndk1::__variant_detail::__traits<GJGameLevel*, std::__ndk1::basic_string<char, std::__ndk1::char_traits<char>, std::__ndk1::allocator<char> > >)1, GJGameLevel, std::__ndk1::allocator<char> >&)
PUBLIC 1d738 0 fmt::v11::detail::value<fmt::v11::context>::format_custom_arg<std::__ndk1::__fs::filesystem::path, fmt::v11::formatter<std::__ndk1::__fs::filesystem::path, char, void> >(void*, fmt::v11::basic_format_parse_context<char>&, fmt::v11::context&)
PUBLIC 1e628 0 fmt::v11::detail::parse_dynamic_spec<char>(char const*, char const*, int&, fmt::v11::detail::arg_ref<char>&, fmt::v11::basic_format_parse_context<char>&)
PUBLIC 1e7cc 0 fmt::v11::detail::do_parse_arg_id<char, fmt::v11::detail::dynamic_spec_id_handler<char>&>(char const*, char const*, fmt::v11::detail::dynamic_spec_id_handler<char>&)
PUBLIC 1e960 0 fmt::v11::detail::handle_dynamic_spec<fmt::v11::detail::width_checker, fmt::v11::context>(int&, fmt::v11::detail::arg_ref<fmt::v11::context::char_type>, fmt::v11::context&)
PUBLIC 1ea74 0 fmt::v11::detail::write<char, fmt::v11::basic_appender<char> >(fmt::v11::basic_appender<char>, fmt::v11::basic_string_view<char>, fmt::v11::format_specs const&)
PUBLIC 1ecf0 0 fmt::v11::detail::get_dynamic_spec<fmt::v11::detail::width_checker, fmt::v11::basic_format_arg<fmt::v11::context> >(fmt::v11::basic_format_arg<fmt::v11::context>)
PUBLIC 1ed84 0 fmt::v11::basic_format_args<fmt::v11::context>::get<char>(fmt::v11::basic_string_view<char>) const
PUBLIC 1eedc 0 fmt::v11::detail::write_escaped_string<char, fmt::v11::detail::counting_iterator>(fmt::v11::detail::counting_iterator, fmt::v11::basic_string_view<char>)
PUBLIC 1f3fc 0 fmt::v11::detail::write_padded<char, (fmt::v11::align::type)1, fmt::v11::basic_appender<char>, fmt::v11::detail::write<char, fmt::v11::basic_appender<char> >(fmt::v11::basic_appender<char>, fmt::v11::basic_string_view<char>, fmt::v11::format_specs const&)::{lambda(fmt::v11::basic_appender<char>)#1}>(fmt::v11::basic_appender<char>, fmt::v11::format_specs const&, unsigned long, unsigned long, fmt::v11::detail::write<char, fmt::v11::basic_appender<char> >(fmt::v11::basic_appender<char>, fmt::v11::basic_string_view<char>, fmt::v11::format_specs const&)::{lambda(fmt::v11::basic_appender<char>&&)#1})
PUBLIC 1f608 0 fmt::v11::detail::for_each_codepoint<fmt::v11::detail::code_point_index(fmt::v11::basic_string_view<char>, unsigned long)::{lambda(unsigned int, fmt::v11::basic_string_view<char>)#1}>(fmt::v11::basic_string_view<char>, fmt::v11::detail::code_point_index(fmt::v11::basic_string_view<char>, unsigned long)::{lambda(unsigned int, fmt::v11::basic_string_view<char>)#1})
PUBLIC 1fa30 0 fmt::v11::detail::write_escaped_cp<fmt::v11::detail::counting_iterator, char>(fmt::v11::detail::counting_iterator, fmt::v11::detail::find_escape_result<char> const&)
PUBLIC 1fbc4 0 fmt::v11::detail::for_each_codepoint<fmt::v11::detail::compute_width(fmt::v11::basic_string_view<char>)::count_code_points>(fmt::v11::basic_string_view<char>, fmt::v11::detail::compute_width(fmt::v11::basic_string_view<char>)::count_code_points)::{lambda(char const*, char const*)#1}::operator()(char const*, char const*) const
PUBLIC 1fd7c 0 fmt::v11::detail::fill<char, fmt::v11::basic_appender<char> >(fmt::v11::basic_appender<char>, unsigned long, fmt::v11::detail::fill_t const&)
PUBLIC 1ff4c 0 fmt::v11::detail::write_escaped_string<char, fmt::v11::basic_appender<char> >(fmt::v11::basic_appender<char>, fmt::v11::basic_string_view<char>)
PUBLIC 205c8 0 fmt::v11::detail::write_escaped_cp<fmt::v11::basic_appender<char>, char>(fmt::v11::basic_appender<char>, fmt::v11::detail::find_escape_result<char> const&)
PUBLIC 207ac 0 fmt::v11::detail::write_codepoint<(unsigned long)2, char, fmt::v11::basic_appender<char> >(fmt::v11::basic_appender<char>, char, unsigned int)
PUBLIC 20924 0 fmt::v11::detail::write_codepoint<(unsigned long)4, char, fmt::v11::basic_appender<char> >(fmt::v11::basic_appender<char>, char, unsigned int)
PUBLIC 20a9c 0 fmt::v11::detail::write_codepoint<(unsigned long)8, char, fmt::v11::basic_appender<char> >(fmt::v11::basic_appender<char>, char, unsigned int)
PUBLIC 20c14 0 fmt::v11::basic_memory_buffer<char, (unsigned long)500, std::__ndk1::allocator<char> >::grow(fmt::v11::detail::buffer<char>&, unsigned long)
PUBLIC 20c8c 0 fmt::v11::detail::write_codepoint<(unsigned long)2, char, std::__ndk1::back_insert_iterator<fmt::v11::basic_memory_buffer<char, (unsigned long)500, std::__ndk1::allocator<char> > > >(std::__ndk1::back_insert_iterator<fmt::v11::basic_memory_buffer<char, (unsigned long)500, std::__ndk1::allocator<char> > >, char, unsigned int)
PUBLIC 20e04 0 _ZN5geode15UnwrapExceptionC2IRNSt6__ndk16vectorINS2_4__fs10filesystem4pathENS2_9allocatorIS6_EEEEQntsr4implE18IsStringStreamableIT_EEENS_4impl5OkTagEOSB_
PUBLIC 20e38 0 geode::modifier::ModifyDerive<ExportListLayer, LevelListLayer>::apply()
PUBLIC 21190 0 geode::modifier::ModifyBase<geode::modifier::ModifyDerive<ExportListLayer, LevelListLayer> >::apply()
PUBLIC 21194 0 geode::modifier::AsStaticFunction_init<ExportListLayer, bool (ExportListLayer::*)(GJLevelList*)>::Impl<bool (ExportListLayer::*)(GJLevelList*)>::function(ExportListLayer*, GJLevelList*)
PUBLIC 212e4 0 ExportListLayer::onExport(cocos2d::CCObject*)
PUBLIC 21620 0 geode::modifier::FieldIntermediate<ExportListLayer, LevelListLayer>::self()
PUBLIC 21840 0 geode::modifier::FieldIntermediate<ExportListLayer, LevelListLayer>::fieldDestructor(void*)
PUBLIC 218dc 0 std::__ndk1::__function::__base<void (geode::Task<geode::Result<std::__ndk1::__fs::filesystem::path, std::__ndk1::basic_string<char, std::__ndk1::char_traits<char>, std::__ndk1::allocator<char> > >, std::__ndk1::monostate>::Event*)>::~__base()
PUBLIC 218e0 0 std::__ndk1::__function::__func<ExportListLayer::onExport(cocos2d::CCObject*)::{lambda(auto:1*)#1}, std::__ndk1::allocator<ExportListLayer::onExport(cocos2d::CCObject*)::{lambda(auto:1*)#1}>, void (geode::Task<geode::Result<std::__ndk1::__fs::filesystem::path, std::__ndk1::basic_string<char, std::__ndk1::char_traits<char>, std::__ndk1::allocator<char> > >, std::__ndk1::monostate>::Event*)>::~__func()
PUBLIC 218e4 0 std::__ndk1::__function::__func<ExportListLayer::onExport(cocos2d::CCObject*)::{lambda(auto:1*)#1}, std::__ndk1::allocator<ExportListLayer::onExport(cocos2d::CCObject*)::{lambda(auto:1*)#1}>, void (geode::Task<geode::Result<std::__ndk1::__fs::filesystem::path, std::__ndk1::basic_string<char, std::__ndk1::char_traits<char>, std::__ndk1::allocator<char> > >, std::__ndk1::monostate>::Event*)>::__clone() const
PUBLIC 21918 0 std::__ndk1::__function::__func<ExportListLayer::onExport(cocos2d::CCObject*)::{lambda(auto:1*)#1}, std::__ndk1::allocator<ExportListLayer::onExport(cocos2d::CCObject*)::{lambda(auto:1*)#1}>, void (geode::Task<geode::Result<std::__ndk1::__fs::filesystem::path, std::__ndk1::basic_string<char, std::__ndk1::char_traits<char>, std::__ndk1::allocator<char> > >, std::__ndk1::monostate>::Event*)>::__clone(std::__ndk1::__function::__base<void (geode::Task<geode::Result<std::__ndk1::__fs::filesystem::path, std::__ndk1::basic_string<char, std::__ndk1::char_traits<char>, std::__ndk1::allocator<char> > >, std::__ndk1::monostate>::Event*)>*) const
PUBLIC 2192c 0 std::__ndk1::__function::__func<ExportListLayer::onExport(cocos2d::CCObject*)::{lambda(auto:1*)#1}, std::__ndk1::allocator<ExportListLayer::onExport(cocos2d::CCObject*)::{lambda(auto:1*)#1}>, void (geode::Task<geode::Result<std::__ndk1::__fs::filesystem::path, std::__ndk1::basic_string<char, std::__ndk1::char_traits<char>, std::__ndk1::allocator<char> > >, std::__ndk1::monostate>::Event*)>::destroy()
PUBLIC 21930 0 std::__ndk1::__function::__func<ExportListLayer::onExport(cocos2d::CCObject*)::{lambda(auto:1*)#1}, std::__ndk1::allocator<ExportListLayer::onExport(cocos2d::CCObject*)::{lambda(auto:1*)#1}>, void (geode::Task<geode::Result<std::__ndk1::__fs::filesystem::path, std::__ndk1::basic_string<char, std::__ndk1::char_traits<char>, std::__ndk1::allocator<char> > >, std::__ndk1::monostate>::Event*)>::destroy_deallocate()
PUBLIC 21934 0 std::__ndk1::__function::__func<ExportListLayer::onExport(cocos2d::CCObject*)::{lambda(auto:1*)#1}, std::__ndk1::allocator<ExportListLayer::onExport(cocos2d::CCObject*)::{lambda(auto:1*)#1}>, void (geode::Task<geode::Result<std::__ndk1::__fs::filesystem::path, std::__ndk1::basic_string<char, std::__ndk1::char_traits<char>, std::__ndk1::allocator<char> > >, std::__ndk1::monostate>::Event*)>::operator()(geode::Task<geode::Result<std::__ndk1::__fs::filesystem::path, std::__ndk1::basic_string<char, std::__ndk1::char_traits<char>, std::__ndk1::allocator<char> > >, std::__ndk1::monostate>::Event*&&)
PUBLIC 21ef4 0 std::__ndk1::__function::__func<ExportListLayer::onExport(cocos2d::CCObject*)::{lambda(auto:1*)#1}, std::__ndk1::allocator<ExportListLayer::onExport(cocos2d::CCObject*)::{lambda(auto:1*)#1}>, void (geode::Task<geode::Result<std::__ndk1::__fs::filesystem::path, std::__ndk1::basic_string<char, std::__ndk1::char_traits<char>, std::__ndk1::allocator<char> > >, std::__ndk1::monostate>::Event*)>::target(std::type_info const&) const
PUBLIC 21f10 0 std::__ndk1::__function::__func<ExportListLayer::onExport(cocos2d::CCObject*)::{lambda(auto:1*)#1}, std::__ndk1::allocator<ExportListLayer::onExport(cocos2d::CCObject*)::{lambda(auto:1*)#1}>, void (geode::Task<geode::Result<std::__ndk1::__fs::filesystem::path, std::__ndk1::basic_string<char, std::__ndk1::char_traits<char>, std::__ndk1::allocator<char> > >, std::__ndk1::monostate>::Event*)>::target_type() const
PUBLIC 21f1c 0 std::__ndk1::__function::__func<onExportFilePick<GJLevelList>(GJLevelList*, geode::Task<geode::Result<std::__ndk1::__fs::filesystem::path, std::__ndk1::basic_string<char, std::__ndk1::char_traits<char>, std::__ndk1::allocator<char> > >, std::__ndk1::monostate>::Event*)::{lambda(auto:1, bool)#1}, std::__ndk1::allocator<onExportFilePick<GJLevelList>(GJLevelList*, geode::Task<geode::Result<std::__ndk1::__fs::filesystem::path, std::__ndk1::basic_string<char, std::__ndk1::char_traits<char>, std::__ndk1::allocator<char> > >, std::__ndk1::monostate>::Event*)::{lambda(auto:1, bool)#1}>, void (FLAlertLayer*, bool)>::~__func()
PUBLIC 21f3c 0 std::__ndk1::__function::__func<onExportFilePick<GJLevelList>(GJLevelList*, geode::Task<geode::Result<std::__ndk1::__fs::filesystem::path, std::__ndk1::basic_string<char, std::__ndk1::char_traits<char>, std::__ndk1::allocator<char> > >, std::__ndk1::monostate>::Event*)::{lambda(auto:1, bool)#1}, std::__ndk1::allocator<onExportFilePick<GJLevelList>(GJLevelList*, geode::Task<geode::Result<std::__ndk1::__fs::filesystem::path, std::__ndk1::basic_string<char, std::__ndk1::char_traits<char>, std::__ndk1::allocator<char> > >, std::__ndk1::monostate>::Event*)::{lambda(auto:1, bool)#1}>, void (FLAlertLayer*, bool)>::~__func()
PUBLIC 21f7c 0 std::__ndk1::__function::__func<onExportFilePick<GJLevelList>(GJLevelList*, geode::Task<geode::Result<std::__ndk1::__fs::filesystem::path, std::__ndk1::basic_string<char, std::__ndk1::char_traits<char>, std::__ndk1::allocator<char> > >, std::__ndk1::monostate>::Event*)::{lambda(auto:1, bool)#1}, std::__ndk1::allocator<onExportFilePick<GJLevelList>(GJLevelList*, geode::Task<geode::Result<std::__ndk1::__fs::filesystem::path, std::__ndk1::basic_string<char, std::__ndk1::char_traits<char>, std::__ndk1::allocator<char> > >, std::__ndk1::monostate>::Event*)::{lambda(auto:1, bool)#1}>, void (FLAlertLayer*, bool)>::__clone() const
PUBLIC 21ffc 0 std::__ndk1::__function::__func<onExportFilePick<GJLevelList>(GJLevelList*, geode::Task<geode::Result<std::__ndk1::__fs::filesystem::path, std::__ndk1::basic_string<char, std::__ndk1::char_traits<char>, std::__ndk1::allocator<char> > >, std::__ndk1::monostate>::Event*)::{lambda(auto:1, bool)#1}, std::__ndk1::allocator<onExportFilePick<GJLevelList>(GJLevelList*, geode::Task<geode::Result<std::__ndk1::__fs::filesystem::path, std::__ndk1::basic_string<char, std::__ndk1::char_traits<char>, std::__ndk1::allocator<char> > >, std::__ndk1::monostate>::Event*)::{lambda(auto:1, bool)#1}>, void (FLAlertLayer*, bool)>::__clone(std::__ndk1::__function::__base<void (FLAlertLayer*, bool)>*) const
PUBLIC 22038 0 std::__ndk1::__function::__func<onExportFilePick<GJLevelList>(GJLevelList*, geode::Task<geode::Result<std::__ndk1::__fs::filesystem::path, std::__ndk1::basic_string<char, std::__ndk1::char_traits<char>, std::__ndk1::allocator<char> > >, std::__ndk1::monostate>::Event*)::{lambda(auto:1, bool)#1}, std::__ndk1::allocator<onExportFilePick<GJLevelList>(GJLevelList*, geode::Task<geode::Result<std::__ndk1::__fs::filesystem::path, std::__ndk1::basic_string<char, std::__ndk1::char_traits<char>, std::__ndk1::allocator<char> > >, std::__ndk1::monostate>::Event*)::{lambda(auto:1, bool)#1}>, void (FLAlertLayer*, bool)>::destroy()
PUBLIC 2204c 0 std::__ndk1::__function::__func<onExportFilePick<GJLevelList>(GJLevelList*, geode::Task<geode::Result<std::__ndk1::__fs::filesystem::path, std::__ndk1::basic_string<char, std::__ndk1::char_traits<char>, std::__ndk1::allocator<char> > >, std::__ndk1::monostate>::Event*)::{lambda(auto:1, bool)#1}, std::__ndk1::allocator<onExportFilePick<GJLevelList>(GJLevelList*, geode::Task<geode::Result<std::__ndk1::__fs::filesystem::path, std::__ndk1::basic_string<char, std::__ndk1::char_traits<char>, std::__ndk1::allocator<char> > >, std::__ndk1::monostate>::Event*)::{lambda(auto:1, bool)#1}>, void (FLAlertLayer*, bool)>::destroy_deallocate()
PUBLIC 22080 0 std::__ndk1::__function::__func<onExportFilePick<GJLevelList>(GJLevelList*, geode::Task<geode::Result<std::__ndk1::__fs::filesystem::path, std::__ndk1::basic_string<char, std::__ndk1::char_traits<char>, std::__ndk1::allocator<char> > >, std::__ndk1::monostate>::Event*)::{lambda(auto:1, bool)#1}, std::__ndk1::allocator<onExportFilePick<GJLevelList>(GJLevelList*, geode::Task<geode::Result<std::__ndk1::__fs::filesystem::path, std::__ndk1::basic_string<char, std::__ndk1::char_traits<char>, std::__ndk1::allocator<char> > >, std::__ndk1::monostate>::Event*)::{lambda(auto:1, bool)#1}>, void (FLAlertLayer*, bool)>::operator()(FLAlertLayer*&&, bool&&)
PUBLIC 22094 0 std::__ndk1::__function::__func<onExportFilePick<GJLevelList>(GJLevelList*, geode::Task<geode::Result<std::__ndk1::__fs::filesystem::path, std::__ndk1::basic_string<char, std::__ndk1::char_traits<char>, std::__ndk1::allocator<char> > >, std::__ndk1::monostate>::Event*)::{lambda(auto:1, bool)#1}, std::__ndk1::allocator<onExportFilePick<GJLevelList>(GJLevelList*, geode::Task<geode::Result<std::__ndk1::__fs::filesystem::path, std::__ndk1::basic_string<char, std::__ndk1::char_traits<char>, std::__ndk1::allocator<char> > >, std::__ndk1::monostate>::Event*)::{lambda(auto:1, bool)#1}>, void (FLAlertLayer*, bool)>::target(std::type_info const&) const
PUBLIC 220b0 0 std::__ndk1::__function::__func<onExportFilePick<GJLevelList>(GJLevelList*, geode::Task<geode::Result<std::__ndk1::__fs::filesystem::path, std::__ndk1::basic_string<char, std::__ndk1::char_traits<char>, std::__ndk1::allocator<char> > >, std::__ndk1::monostate>::Event*)::{lambda(auto:1, bool)#1}, std::__ndk1::allocator<onExportFilePick<GJLevelList>(GJLevelList*, geode::Task<geode::Result<std::__ndk1::__fs::filesystem::path, std::__ndk1::basic_string<char, std::__ndk1::char_traits<char>, std::__ndk1::allocator<char> > >, std::__ndk1::monostate>::Event*)::{lambda(auto:1, bool)#1}>, void (FLAlertLayer*, bool)>::target_type() const
PUBLIC 220bc 0 _GLOBAL__sub_I_main.cpp
PUBLIC m 22344 0 geodeImplicitEntry
PUBLIC 22380 0 wrapFunction(unsigned long, tulip::hook::WrapperMetadata const&)
PUBLIC 224b4 0 geode::impl::ResultData<void*, std::__ndk1::basic_string<char, std::__ndk1::char_traits<char>, std::__ndk1::allocator<char> > >::unwrapErr() &
PUBLIC 2252c 0 geode::impl::ResultData<void*, std::__ndk1::basic_string<char, std::__ndk1::char_traits<char>, std::__ndk1::allocator<char> > >::~ResultData()
PUBLIC 225a0 0 tulip::hook::WrapperMetadata::~WrapperMetadata()
PUBLIC 22604 0 FLAlertLayer::create(FLAlertLayerProtocol*, char const*, gd::string, char const*, char const*, float)
PUBLIC 227bc 0 tulip::hook::AbstractFunction::from<FLAlertLayer*, FLAlertLayerProtocol*, char const*, gd::string, char const*, char const*, float>(FLAlertLayer* (*)(FLAlertLayerProtocol*, char const*, gd::string, char const*, char const*, float))
PUBLIC 22ca0 0 _ZN5geode15UnwrapExceptionC2IRPvQsr4implE18IsStringStreamableIT_EEENS_4impl5OkTagEOS4_
PUBLIC 22df4 0 std::__ndk1::__variant_detail::__visitation::__base::__dispatcher<(unsigned long)0>::__dispatch[abi:ne180000]<std::__ndk1::__variant_detail::__dtor<std::__ndk1::__variant_detail::__traits<void*, std::__ndk1::basic_string<char, std::__ndk1::char_traits<char>, std::__ndk1::allocator<char> > >, (std::__ndk1::__variant_detail::_Trait)1>::__destroy[abi:ne180000]()::{lambda(auto:1&)#1}, std::__ndk1::__variant_detail::__base<(std::__ndk1::__variant_detail::__traits<void*, std::__ndk1::basic_string<char, std::__ndk1::char_traits<char>, std::__ndk1::allocator<char> > >)1, std::__ndk1::__variant_detail::__traits, std::__ndk1::allocator<char> >&>(std::__ndk1::__variant_detail::__dtor<std::__ndk1::__variant_detail::__traits<void*, std::__ndk1::basic_string<char, std::__ndk1::char_traits<char>, std::__ndk1::allocator<char> > >, (std::__ndk1::__variant_detail::_Trait)1>, std::__ndk1::__variant_detail::__base<(std::__ndk1::__variant_detail::__traits<void*, std::__ndk1::basic_string<char, std::__ndk1::char_traits<char>, std::__ndk1::allocator<char> > >)1, std::__ndk1::__variant_detail::__traits, std::__ndk1::allocator<char> >&)
PUBLIC 22df8 0 std::__ndk1::__variant_detail::__visitation::__base::__dispatcher<(unsigned long)1>::__dispatch[abi:ne180000]<std::__ndk1::__variant_detail::__dtor<std::__ndk1::__variant_detail::__traits<void*, std::__ndk1::basic_string<char, std::__ndk1::char_traits<char>, std::__ndk1::allocator<char> > >, (std::__ndk1::__variant_detail::_Trait)1>::__destroy[abi:ne180000]()::{lambda(auto:1&)#1}, std::__ndk1::__variant_detail::__base<(std::__ndk1::__variant_detail::__traits<void*, std::__ndk1::basic_string<char, std::__ndk1::char_traits<char>, std::__ndk1::allocator<char> > >)1, std::__ndk1::__variant_detail::__traits, std::__ndk1::allocator<char> >&>(std::__ndk1::__variant_detail::__dtor<std::__ndk1::__variant_detail::__traits<void*, std::__ndk1::basic_string<char, std::__ndk1::char_traits<char>, std::__ndk1::allocator<char> > >, (std::__ndk1::__variant_detail::_Trait)1>, std::__ndk1::__variant_detail::__base<(std::__ndk1::__variant_detail::__traits<void*, std::__ndk1::basic_string<char, std::__ndk1::char_traits<char>, std::__ndk1::allocator<char> > >)1, std::__ndk1::__variant_detail::__traits, std::__ndk1::allocator<char> >&)
PUBLIC 22e0c 0 __udivti3
PUBLIC 22e18 0 __udivmodti4
PUBLIC m 23064 0 __eqtf2
PUBLIC 23104 0 __unordtf2
PUBLIC 2313c 0 fmt::v11::detail::write_loc(fmt::v11::basic_appender<char>, fmt::v11::loc_value, fmt::v11::format_specs const&, fmt::v11::detail::locale_ref)
PUBLIC 233d0 0 fmt::v11::format_facet<std::__ndk1::locale>::~format_facet()
PUBLIC 2344c 0 fmt::v11::report_error(char const*)
PUBLIC 2349c 0 fmt::v11::format_error::runtime_error(char const*)
PUBLIC 234c8 0 fmt::v11::format_facet<std::__ndk1::locale>::do_put(fmt::v11::basic_appender<char>, fmt::v11::loc_value, fmt::v11::format_specs const&) const
PUBLIC 23c88 0 fmt::v11::detail::loc_writer<char>::~loc_writer()
PUBLIC 23cec 0 fmt::v11::detail::vformat_to<char>(fmt::v11::detail::buffer<char>&, fmt::v11::basic_string_view<char>, fmt::v11::detail::vformat_args<char>::type, fmt::v11::detail::locale_ref)
PUBLIC 2425c 0 fmt::v11::detail::is_printable(unsigned int)
PUBLIC 24484 0 fmt::v11::detail::dragonbox::to_decimal<float>(float)
PUBLIC 24760 0 fmt::v11::detail::dragonbox::to_decimal<double>(double)
PUBLIC 24c9c 0 fmt::v11::format_facet<std::__ndk1::locale>::~format_facet()
PUBLIC 24d28 0 fmt::v11::format_error::~format_error()
PUBLIC 24d4c 0 fmt::v11::detail::copy_noinline<char, char const*, fmt::v11::basic_appender<char> >(char const*, char const*, fmt::v11::basic_appender<char>)
PUBLIC 24e9c 0 fmt::v11::detail::default_arg_formatter<char>::operator()<bool>(bool)
PUBLIC 24f04 0 fmt::v11::detail::default_arg_formatter<char>::operator()<char>(char)
PUBLIC 24f94 0 fmt::v11::detail::default_arg_formatter<char>::operator()<float>(float)
PUBLIC 25080 0 fmt::v11::detail::default_arg_formatter<char>::operator()<double>(double)
PUBLIC 2516c 0 fmt::v11::detail::default_arg_formatter<char>::operator()<char const*>(char const*)
PUBLIC 251b4 0 fmt::v11::detail::default_arg_formatter<char>::operator()<void const*>(void const*)
PUBLIC 2524c 0 _ZN3fmt3v116detail5writeIcNS0_14basic_appenderIcEEiTnNSt6__ndk19enable_ifIXaaaasr11is_integralIT1_EE5valuentsr3std7is_sameIS7_bEE5valuentsr3std7is_sameIS7_T_EE5valueEiE4typeELi0EEET0_SB_S7_
PUBLIC 254ac 0 fmt::v11::detail::copy_noinline<char, char*, fmt::v11::basic_appender<char> >(char*, char*, fmt::v11::basic_appender<char>)
PUBLIC 255fc 0 _ZN3fmt3v116detail5writeIcNS0_14basic_appenderIcEEjTnNSt6__ndk19enable_ifIXaaaasr11is_integralIT1_EE5valuentsr3std7is_sameIS7_bEE5valuentsr3std7is_sameIS7_T_EE5valueEiE4typeELi0EEET0_SB_S7_
PUBLIC 257dc 0 _ZN3fmt3v116detail5writeIcNS0_14basic_appenderIcEExTnNSt6__ndk19enable_ifIXaaaasr11is_integralIT1_EE5valuentsr3std7is_sameIS7_bEE5valuentsr3std7is_sameIS7_T_EE5valueEiE4typeELi0EEET0_SB_S7_
PUBLIC 25a60 0 _ZN3fmt3v116detail5writeIcNS0_14basic_appenderIcEEyTnNSt6__ndk19enable_ifIXaaaasr11is_integralIT1_EE5valuentsr3std7is_sameIS7_bEE5valuentsr3std7is_sameIS7_T_EE5valueEiE4typeELi0EEET0_SB_S7_
PUBLIC 25c68 0 _ZN3fmt3v116detail5writeIcNS0_14basic_appenderIcEEnTnNSt6__ndk19enable_ifIXaaaasr11is_integralIT1_EE5valuentsr3std7is_sameIS7_bEE5valuentsr3std7is_sameIS7_T_EE5valueEiE4typeELi0EEET0_SB_S7_
PUBLIC 25fc8 0 _ZN3fmt3v116detail5writeIcNS0_14basic_appenderIcEEoTnNSt6__ndk19enable_ifIXaaaasr11is_integralIT1_EE5valuentsr3std7is_sameIS7_bEE5valuentsr3std7is_sameIS7_T_EE5valueEiE4typeELi0EEET0_SB_S7_
PUBLIC 262dc 0 _ZN3fmt3v116detail5writeIcNS0_14basic_appenderIcEEbTnNSt6__ndk19enable_ifIXsr3std7is_sameIT1_bEE5valueEiE4typeELi0EEET0_SA_S7_RKNS0_12format_specsENS1_10locale_refE
PUBLIC 26590 0 fmt::v11::detail::write_int_noinline<char, fmt::v11::basic_appender<char>, unsigned int>(fmt::v11::basic_appender<char>, fmt::v11::detail::write_int_arg<unsigned int>, fmt::v11::format_specs const&, fmt::v11::detail::locale_ref)
PUBLIC 27370 0 fmt::v11::detail::write_padded<char, (fmt::v11::align::type)1, fmt::v11::basic_appender<char>, fmt::v11::detail::write_char<char, fmt::v11::basic_appender<char> >(fmt::v11::basic_appender<char>, char, fmt::v11::format_specs const&)::{lambda(fmt::v11::basic_appender<char>&)#1}>(fmt::v11::basic_appender<char>, fmt::v11::format_specs const&, unsigned long, unsigned long, fmt::v11::detail::write_char<char, fmt::v11::basic_appender<char> >(fmt::v11::basic_appender<char>, char, fmt::v11::format_specs const&)::{lambda(fmt::v11::basic_appender<char>&)#1})
PUBLIC 275d4 0 fmt::v11::detail::write_padded<char, (fmt::v11::align::type)1, fmt::v11::basic_appender<char>, fmt::v11::detail::write_nonfinite<char, fmt::v11::basic_appender<char> >(fmt::v11::basic_appender<char>, bool, fmt::v11::format_specs, fmt::v11::sign::type)::{lambda(fmt::v11::basic_appender<char>&)#1}>(fmt::v11::basic_appender<char>, fmt::v11::format_specs const&, unsigned long, unsigned long, fmt::v11::detail::write_nonfinite<char, fmt::v11::basic_appender<char> >(fmt::v11::basic_appender<char>, bool, fmt::v11::format_specs, fmt::v11::sign::type)::{lambda(fmt::v11::basic_appender<char>&)#1})
PUBLIC 2782c 0 fmt::v11::detail::do_write_float<char, fmt::v11::basic_appender<char>, fmt::v11::detail::dragonbox::decimal_fp<float>, fmt::v11::detail::digit_grouping<char> >(fmt::v11::basic_appender<char>, fmt::v11::detail::dragonbox::decimal_fp<float> const&, fmt::v11::format_specs const&, fmt::v11::detail::float_specs, fmt::v11::detail::locale_ref)
PUBLIC 284b0 0 fmt::v11::detail::do_write_float<char, fmt::v11::basic_appender<char>, fmt::v11::detail::dragonbox::decimal_fp<float>, fmt::v11::detail::digit_grouping<char> >(fmt::v11::basic_appender<char>, fmt::v11::detail::dragonbox::decimal_fp<float> const&, fmt::v11::format_specs const&, fmt::v11::detail::float_specs, fmt::v11::detail::locale_ref)::{lambda(fmt::v11::basic_appender<char>(fmt::v11::basic_appender<char>))#1}::operator() const
PUBLIC 28604 0 fmt::v11::detail::digit_grouping<char>::digit_grouping(fmt::v11::detail::locale_ref, bool)
PUBLIC 28870 0 fmt::v11::detail::digit_grouping<char>::~digit_grouping()
PUBLIC 288b4 0 fmt::v11::detail::write_exponent<char, fmt::v11::basic_appender<char> >(int, fmt::v11::basic_appender<char>)
PUBLIC 28a84 0 _ZN3fmt3v116detail17write_significandIcjTnNSt6__ndk19enable_ifIXsr3std11is_integralIT0_EE5valueEiE4typeELi0EEEPT_S9_S5_iiS8_
PUBLIC 28c00 0 std::__ndk1::basic_string<char, std::__ndk1::char_traits<char>, std::__ndk1::allocator<char> >::__assign_no_alias<true>(char const*, unsigned long)
PUBLIC 28cac 0 std::__ndk1::basic_string<char, std::__ndk1::char_traits<char>, std::__ndk1::allocator<char> >::__assign_no_alias<false>(char const*, unsigned long)
PUBLIC 28dbc 0 fmt::v11::detail::digit_grouping<char>::apply<fmt::v11::basic_appender<char>, char>(fmt::v11::basic_appender<char>, fmt::v11::basic_string_view<char>) const
PUBLIC 29174 0 fmt::v11::basic_memory_buffer<int, (unsigned long)500, std::__ndk1::allocator<int> >::grow(fmt::v11::detail::buffer<int>&, unsigned long)
PUBLIC 29214 0 fmt::v11::detail::do_write_float<char, fmt::v11::basic_appender<char>, fmt::v11::detail::dragonbox::decimal_fp<double>, fmt::v11::detail::digit_grouping<char> >(fmt::v11::basic_appender<char>, fmt::v11::detail::dragonbox::decimal_fp<double> const&, fmt::v11::format_specs const&, fmt::v11::detail::float_specs, fmt::v11::detail::locale_ref)
PUBLIC 29ed4 0 fmt::v11::detail::do_write_float<char, fmt::v11::basic_appender<char>, fmt::v11::detail::dragonbox::decimal_fp<double>, fmt::v11::detail::digit_grouping<char> >(fmt::v11::basic_appender<char>, fmt::v11::detail::dragonbox::decimal_fp<double> const&, fmt::v11::format_specs const&, fmt::v11::detail::float_specs, fmt::v11::detail::locale_ref)::{lambda(fmt::v11::basic_appender<char>(fmt::v11::basic_appender<char>))#1}::operator() const
PUBLIC 2a02c 0 _ZN3fmt3v116detail17write_significandIcmTnNSt6__ndk19enable_ifIXsr3std11is_integralIT0_EE5valueEiE4typeELi0EEEPT_S9_S5_iiS8_
PUBLIC 2a1bc 0 fmt::v11::detail::write_float<char, fmt::v11::basic_appender<char>, long double>(fmt::v11::basic_appender<char>, long double, fmt::v11::format_specs, fmt::v11::detail::locale_ref)
PUBLIC 2acb4 0 fmt::v11::detail::write_padded<char, (fmt::v11::align::type)2, fmt::v11::basic_appender<char>, fmt::v11::detail::write_bytes<char, (fmt::v11::align::type)2, fmt::v11::basic_appender<char> >(fmt::v11::basic_appender<char>, fmt::v11::basic_string_view<char>, fmt::v11::format_specs const&)::{lambda(fmt::v11::basic_appender<char>&)#1}>(fmt::v11::basic_appender<char>, fmt::v11::format_specs const&, unsigned long, unsigned long, fmt::v11::detail::write_bytes<char, (fmt::v11::align::type)2, fmt::v11::basic_appender<char> >(fmt::v11::basic_appender<char>, fmt::v11::basic_string_view<char>, fmt::v11::format_specs const&)::{lambda(fmt::v11::basic_appender<char>&)#1})
PUBLIC 2aea8 0 fmt::v11::detail::format_dragon(fmt::v11::detail::basic_fp<unsigned __int128>, unsigned int, int, fmt::v11::detail::buffer<char>&, int&)
PUBLIC 2c2d8 0 fmt::v11::detail::bigint::operator<<=(int)
PUBLIC 2c3fc 0 fmt::v11::detail::bigint::assign_pow10(int)
PUBLIC 2cb58 0 fmt::v11::detail::bigint::divmod_assign(fmt::v11::detail::bigint const&)
PUBLIC 2ce78 0 fmt::v11::basic_memory_buffer<unsigned int, (unsigned long)32, std::__ndk1::allocator<unsigned int> >::grow(fmt::v11::detail::buffer<unsigned int>&, unsigned long)
PUBLIC 2cf18 0 fmt::v11::detail::do_write_float<char, fmt::v11::basic_appender<char>, fmt::v11::detail::big_decimal_fp, fmt::v11::detail::digit_grouping<char> >(fmt::v11::basic_appender<char>, fmt::v11::detail::big_decimal_fp const&, fmt::v11::format_specs const&, fmt::v11::detail::float_specs, fmt::v11::detail::locale_ref)
PUBLIC 2ddf8 0 fmt::v11::detail::do_write_float<char, fmt::v11::basic_appender<char>, fmt::v11::detail::big_decimal_fp, fmt::v11::detail::digit_grouping<char> >(fmt::v11::basic_appender<char>, fmt::v11::detail::big_decimal_fp const&, fmt::v11::format_specs const&, fmt::v11::detail::float_specs, fmt::v11::detail::locale_ref)::{lambda(fmt::v11::basic_appender<char>(fmt::v11::basic_appender<char>))#1}::operator() const
PUBLIC 2df58 0 fmt::v11::detail::write_padded<char, (fmt::v11::align::type)2, fmt::v11::basic_appender<char>, fmt::v11::detail::write_ptr<char, fmt::v11::basic_appender<char>, unsigned long>(fmt::v11::basic_appender<char>, unsigned long, fmt::v11::format_specs const*)::{lambda(fmt::v11::basic_appender<char>&)#1}>(fmt::v11::basic_appender<char>, fmt::v11::format_specs const&, unsigned long, unsigned long, fmt::v11::detail::write_ptr<char, fmt::v11::basic_appender<char>, unsigned long>(fmt::v11::basic_appender<char>, unsigned long, fmt::v11::format_specs const*)::{lambda(fmt::v11::basic_appender<char>&)#1})
PUBLIC 2e16c 0 fmt::v11::detail::parse_replacement_field<char, fmt::v11::detail::vformat_to<char>(fmt::v11::detail::buffer<char>&, fmt::v11::basic_string_view<char>, fmt::v11::detail::vformat_args<char>::type, fmt::v11::detail::locale_ref)::format_handler&>(char const*, char const*, fmt::v11::detail::vformat_to<char>(fmt::v11::detail::buffer<char>&, fmt::v11::basic_string_view<char>, fmt::v11::detail::vformat_args<char>::type, fmt::v11::detail::locale_ref)::format_handler&)
PUBLIC 2fc50 0 fmt::v11::detail::write_int_noinline<char, fmt::v11::basic_appender<char>, unsigned long>(fmt::v11::basic_appender<char>, fmt::v11::detail::write_int_arg<unsigned long>, fmt::v11::format_specs const&, fmt::v11::detail::locale_ref)
PUBLIC 30ab0 0 fmt::v11::detail::write_int_noinline<char, fmt::v11::basic_appender<char>, unsigned __int128>(fmt::v11::basic_appender<char>, fmt::v11::detail::write_int_arg<unsigned __int128>, fmt::v11::format_specs const&, fmt::v11::detail::locale_ref)
PUBLIC 31b40 0 _ZN3fmt3v116detail15format_hexfloatIdTnNSt6__ndk19enable_ifIXntsr16is_double_doubleIT_EE5valueEiE4typeELi0EEEvS5_NS0_12format_specsERNS1_6bufferIcEE
PUBLIC 32060 0 fmt::v11::detail::format_float<double>(double, int, fmt::v11::detail::float_specs, fmt::v11::detail::buffer<char>&)
PUBLIC 32a00 0 fmt::v11::detail::write_int<fmt::v11::basic_appender<char>, unsigned long, char>(fmt::v11::basic_appender<char>, unsigned long, unsigned int, fmt::v11::format_specs const&, fmt::v11::detail::digit_grouping<char> const&)
PUBLIC 32f7c 0 fmt::v11::detail::write_int<fmt::v11::basic_appender<char>, unsigned __int128, char>(fmt::v11::basic_appender<char>, unsigned __int128, unsigned int, fmt::v11::format_specs const&, fmt::v11::detail::digit_grouping<char> const&)
PUBLIC 33600 0 <.plt ELF section in hjfod.gdshare.android64.so>
STACK CFI INIT f800 10 .cfa: sp 0 +
STACK CFI INIT f810 8 .cfa: sp 0 +
STACK CFI INIT f818 8 .cfa: sp 0 +
STACK CFI INIT f820 14 .cfa: sp 0 +
STACK CFI INIT f834 1c .cfa: sp 0 +
STACK CFI INIT f850 10 .cfa: sp 0 +
STACK CFI INIT f860 134 .cfa: sp 0 +
STACK CFI INIT f994 84 .cfa: sp 0 +
STACK CFI INIT fa18 f4 .cfa: sp 0 +
STACK CFI INIT fb0c a8 .cfa: sp 0 +
STACK CFI INIT fbb4 7c .cfa: sp 0 +
STACK CFI INIT fc30 14 .cfa: sp 0 +
STACK CFI INIT fc44 40 .cfa: sp 0 +
STACK CFI INIT fc84 28 .cfa: sp 0 +
STACK CFI INIT fcac 190 .cfa: sp 0 +
STACK CFI INIT fe3c 2c8 .cfa: sp 0 +
STACK CFI INIT 10104 8 .cfa: sp 0 +
STACK CFI INIT 1010c 8 .cfa: sp 0 +
STACK CFI INIT 10114 44 .cfa: sp 0 +
STACK CFI INIT 10158 e8 .cfa: sp 0 +
STACK CFI INIT 10240 e8 .cfa: sp 0 +
STACK CFI INIT 10328 14 .cfa: sp 0 +
STACK CFI INIT 1033c 10 .cfa: sp 0 +
STACK CFI INIT 1034c 10 .cfa: sp 0 +
STACK CFI INIT 1035c f0 .cfa: sp 0 +
STACK CFI INIT 1044c 44 .cfa: sp 0 +
STACK CFI INIT 10490 c .cfa: sp 0 +
STACK CFI INIT 1049c c .cfa: sp 0 +
STACK CFI INIT 104a8 2c .cfa: sp 0 +
STACK CFI INIT 104d4 280 .cfa: sp 0 +
STACK CFI INIT 10754 c .cfa: sp 0 +
STACK CFI INIT 10760 120 .cfa: sp 0 +
STACK CFI INIT 10880 488 .cfa: sp 0 +
STACK CFI INIT 10d08 c48 .cfa: sp 0 +
STACK CFI INIT 11950 134 .cfa: sp 0 +
STACK CFI INIT 11a84 210 .cfa: sp 0 +
STACK CFI INIT 11c94 38c .cfa: sp 0 +
STACK CFI INIT 12020 1c8 .cfa: sp 0 +
STACK CFI INIT 121e8 9bc .cfa: sp 0 +
STACK CFI INIT 12ba4 2d4 .cfa: sp 0 +
STACK CFI INIT 12e78 134 .cfa: sp 0 +
STACK CFI INIT 12fac 120 .cfa: sp 0 +
STACK CFI INIT 130cc 1c8 .cfa: sp 0 +
STACK CFI INIT 13294 168 .cfa: sp 0 +
STACK CFI INIT 133fc fc .cfa: sp 0 +
STACK CFI INIT 134f8 30 .cfa: sp 0 +
STACK CFI INIT 13660 30 .cfa: sp 0 +
STACK CFI INIT 13690 98 .cfa: sp 0 +
STACK CFI INIT 13728 59c .cfa: sp 0 +
STACK CFI INIT 13cc4 8c .cfa: sp 0 +
STACK CFI INIT 13d50 30 .cfa: sp 0 +
STACK CFI INIT 13d80 80 .cfa: sp 0 +
STACK CFI 13d84 .cfa: sp 48 +
STACK CFI 13d90 .cfa: x29 48 + x19: .cfa -8 + ^ x20: .cfa -16 + ^ x21: .cfa -32 + ^ .ra: .cfa -40 + ^ x29: .cfa -48 + ^
STACK CFI 13db4 .cfa: sp 48 +
STACK CFI 13dc0 .cfa: sp 0 +
STACK CFI 13dc4 .cfa: x29 48 +
STACK CFI 13df0 .cfa: sp 48 +
STACK CFI 13dfc .cfa: sp 0 +
STACK CFI INIT 13e00 88 .cfa: sp 0 +
STACK CFI 13e04 .cfa: sp 48 +
STACK CFI 13e10 .cfa: x29 32 + x19: .cfa -8 + ^ x20: .cfa -16 + ^ .ra: .cfa -24 + ^ x29: .cfa -32 + ^
STACK CFI 13e50 .cfa: sp 48 +
STACK CFI 13e5c .cfa: sp 0 +
STACK CFI 13e60 .cfa: x29 32 +
STACK CFI 13e74 .cfa: sp 48 +
STACK CFI 13e80 .cfa: sp 0 +
STACK CFI 13e84 .cfa: x29 32 +
STACK CFI INIT 1430c 18 .cfa: sp 0 +
STACK CFI INIT 147a8 18 .cfa: sp 0 +
STACK CFI INIT 14c44 18 .cfa: sp 0 +
STACK CFI INIT 150e0 18 .cfa: sp 0 +
STACK CFI INIT 150f8 14 .cfa: sp 0 +
STACK CFI 150fc .cfa: sp 16 +
STACK CFI 15100 .cfa: x29 16 + .ra: .cfa -8 + ^ x29: .cfa -16 + ^
STACK CFI INIT 1515c 30 .cfa: sp 0 +
STACK CFI 15160 .cfa: sp 32 +
STACK CFI 15168 .cfa: x29 32 + x19: .cfa -16 + ^ .ra: .cfa -24 + ^ x29: .cfa -32 + ^
STACK CFI 15180 .cfa: sp 32 +
STACK CFI 15188 .cfa: sp 0 +
STACK CFI INIT 1518c 34 .cfa: sp 0 +
STACK CFI 15190 .cfa: sp 32 +
STACK CFI 15198 .cfa: x29 32 + x19: .cfa -16 + ^ .ra: .cfa -24 + ^ x29: .cfa -32 + ^
STACK CFI INIT 151c0 10 .cfa: sp 0 +
STACK CFI 151c4 .cfa: sp 16 +
STACK CFI 151c8 .cfa: x29 16 + .ra: .cfa -8 + ^ x29: .cfa -16 + ^
STACK CFI INIT 151d0 14 .cfa: sp 0 +
STACK CFI 151d4 .cfa: sp 16 +
STACK CFI 151d8 .cfa: x29 16 + .ra: .cfa -8 + ^ x29: .cfa -16 + ^
STACK CFI INIT 151e4 a4 .cfa: sp 0 +
STACK CFI 151f4 .cfa: sp 48 +
STACK CFI 15200 .cfa: x29 48 + x19: .cfa -8 + ^ x20: .cfa -16 + ^ x21: .cfa -24 + ^ x22: .cfa -32 + ^ .ra: .cfa -40 + ^ x29: .cfa -48 + ^
STACK CFI 15214 .cfa: sp 48 +
STACK CFI 15220 .cfa: sp 0 +
STACK CFI 15224 .cfa: x29 48 +
STACK CFI INIT 153c4 80 .cfa: sp 0 +
STACK CFI 153c8 .cfa: sp 48 +
STACK CFI 153d4 .cfa: x29 48 + x19: .cfa -8 + ^ x20: .cfa -16 + ^ x21: .cfa -24 + ^ x22: .cfa -32 + ^ .ra: .cfa -40 + ^ x29: .cfa -48 + ^
STACK CFI 153ec .cfa: sp 48 +
STACK CFI 153f8 .cfa: sp 0 +
STACK CFI 153fc .cfa: x29 48 +
STACK CFI 1542c .cfa: sp 48 +
STACK CFI 15438 .cfa: sp 0 +
STACK CFI 1543c .cfa: x29 48 +
STACK CFI INIT 15444 70 .cfa: sp 0 +
STACK CFI 15448 .cfa: sp 48 +
STACK CFI 15454 .cfa: x29 48 + x19: .cfa -8 + ^ x20: .cfa -16 + ^ x21: .cfa -32 + ^ .ra: .cfa -40 + ^ x29: .cfa -48 + ^
STACK CFI 1546c .cfa: sp 48 +
STACK CFI 15478 .cfa: sp 0 +
STACK CFI 1547c .cfa: x29 48 +
STACK CFI 154a4 .cfa: sp 48 +
STACK CFI 154b0 .cfa: sp 0 +
STACK CFI INIT 154b4 1ac .cfa: sp 0 +
STACK CFI 154b8 .cfa: sp 32 +
STACK CFI 154c0 .cfa: x29 32 + x19: .cfa -8 + ^ x20: .cfa -16 + ^ .ra: .cfa -24 + ^ x29: .cfa -32 + ^
STACK CFI 155b0 .cfa: sp 32 +
STACK CFI 155b8 .cfa: sp 0 +
STACK CFI 155bc .cfa: x29 32 +
STACK CFI INIT 15ec8 50 .cfa: sp 0 +
STACK CFI 15eec .cfa: sp 32 +
STACK CFI 15ef4 .cfa: x29 32 + x19: .cfa -16 + ^ .ra: .cfa -24 + ^ x29: .cfa -32 + ^
STACK CFI 15f08 .cfa: sp 32 +
STACK CFI 15f10 .cfa: sp 0 +
STACK CFI INIT 15f18 e4 .cfa: sp 0 +
STACK CFI 15f1c .cfa: sp 64 +
STACK CFI 15f2c .cfa: x29 64 + x19: .cfa -8 + ^ x20: .cfa -16 + ^ x21: .cfa -24 + ^ x22: .cfa -32 + ^ x23: .cfa -40 + ^ x24: .cfa -48 + ^ .ra: .cfa -56 + ^ x29: .cfa -64 + ^
STACK CFI 15f50 .cfa: sp 64 +
STACK CFI 15f60 .cfa: sp 0 +
STACK CFI 15f64 .cfa: x29 64 +
STACK CFI 15fd4 .cfa: sp 64 +
STACK CFI 15fe4 .cfa: sp 0 +
STACK CFI 15fe8 .cfa: sp 64 +
STACK CFI 15ff8 .cfa: sp 0 +
STACK CFI INIT 16354 50 .cfa: sp 0 +
STACK CFI 16358 .cfa: sp 32 +
STACK CFI 16360 .cfa: x29 32 + x19: .cfa -16 + ^ .ra: .cfa -24 + ^ x29: .cfa -32 + ^
STACK CFI 16378 .cfa: sp 32 +
STACK CFI 16380 .cfa: sp 0 +
STACK CFI 16384 .cfa: x29 32 +
STACK CFI 16398 .cfa: sp 32 +
STACK CFI 163a0 .cfa: sp 0 +
STACK CFI INIT 16418 7c .cfa: sp 0 +
STACK CFI 1641c .cfa: sp 48 +
STACK CFI 16428 .cfa: x29 48 + x19: .cfa -8 + ^ x20: .cfa -16 + ^ x21: .cfa -32 + ^ .ra: .cfa -40 + ^ x29: .cfa -48 + ^
STACK CFI 16474 .cfa: sp 48 +
STACK CFI 16480 .cfa: sp 0 +
STACK CFI 16484 .cfa: sp 48 +
STACK CFI 16490 .cfa: sp 0 +
STACK CFI INIT 16494 4 .cfa: sp 0 +
STACK CFI INIT 165ec 34 .cfa: sp 0 +
STACK CFI 165f0 .cfa: sp 16 +
STACK CFI 165f4 .cfa: x29 16 + .ra: .cfa -8 + ^ x29: .cfa -16 + ^
STACK CFI INIT 1674c 80 .cfa: sp 0 +
STACK CFI 16750 .cfa: sp 48 +
STACK CFI 1675c .cfa: x29 48 + x19: .cfa -8 + ^ x20: .cfa -16 + ^ x21: .cfa -32 + ^ .ra: .cfa -40 + ^ x29: .cfa -48 + ^
STACK CFI 167bc .cfa: sp 48 +
STACK CFI 167c8 .cfa: sp 0 +
STACK CFI INIT 167cc 24 .cfa: sp 0 +
STACK CFI 167d0 .cfa: sp 32 +
STACK CFI 167d8 .cfa: x29 32 + x19: .cfa -16 + ^ .ra: .cfa -24 + ^ x29: .cfa -32 + ^
STACK CFI 167e4 .cfa: sp 32 +
STACK CFI 167ec .cfa: sp 0 +
STACK CFI INIT 16ce8 148 .cfa: sp 0 +
STACK CFI 16cec .cfa: sp 48 +
STACK CFI 16cf8 .cfa: x29 48 + x19: .cfa -8 + ^ x20: .cfa -16 + ^ x21: .cfa -32 + ^ .ra: .cfa -40 + ^ x29: .cfa -48 + ^
STACK CFI 16e20 .cfa: sp 48 +
STACK CFI 16e2c .cfa: sp 0 +
STACK CFI INIT 17054 68 .cfa: sp 0 +
STACK CFI 17058 .cfa: sp 32 +
STACK CFI 17060 .cfa: x29 32 + x19: .cfa -8 + ^ x20: .cfa -16 + ^ .ra: .cfa -24 + ^ x29: .cfa -32 + ^
STACK CFI 17078 .cfa: sp 32 +
STACK CFI 17080 .cfa: sp 0 +
STACK CFI 17084 .cfa: x29 32 +
STACK CFI 170b0 .cfa: sp 32 +
STACK CFI 170b8 .cfa: sp 0 +
STACK CFI INIT 170bc 14 .cfa: sp 0 +
STACK CFI 170c0 .cfa: sp 16 +
STACK CFI 170c4 .cfa: x29 16 + .ra: .cfa -8 + ^ x29: .cfa -16 + ^
STACK CFI INIT 170d0 4 .cfa: sp 0 +
STACK CFI INIT 170d4 14 .cfa: sp 0 +
STACK CFI INIT 170e8 120 .cfa: sp 0 +
STACK CFI 170ec .cfa: sp 64 +
STACK CFI 170fc .cfa: x29 64 + x19: .cfa -8 + ^ x20: .cfa -16 + ^ x21: .cfa -24 + ^ x22: .cfa -32 + ^ x23: .cfa -40 + ^ x24: .cfa -48 + ^ .ra: .cfa -56 + ^ x29: .cfa -64 + ^
STACK CFI 171f4 .cfa: sp 64 +
STACK CFI 17204 .cfa: sp 0 +
STACK CFI INIT 17208 4a4 .cfa: sp 0 +
STACK CFI 1720c .cfa: sp 32 +
STACK CFI 17214 .cfa: x29 32 + x19: .cfa -8 + ^ x20: .cfa -16 + ^ .ra: .cfa -24 + ^ x29: .cfa -32 + ^
STACK CFI 175f4 .cfa: sp 32 +
STACK CFI 175fc .cfa: sp 0 +
STACK CFI 17600 .cfa: x29 32 +
STACK CFI INIT 176ac 84 .cfa: sp 0 +
STACK CFI 176b4 .cfa: sp 32 +
STACK CFI 176bc .cfa: x29 32 + x19: .cfa -8 + ^ x20: .cfa -16 + ^ .ra: .cfa -24 + ^ x29: .cfa -32 + ^
STACK CFI 176fc .cfa: sp 32 +
STACK CFI 17704 .cfa: sp 0 +
STACK CFI 1770c .cfa: x29 32 +
STACK CFI INIT 17880 50 .cfa: sp 0 +
STACK CFI 17884 .cfa: sp 32 +
STACK CFI 1788c .cfa: x29 32 + x19: .cfa -16 + ^ .ra: .cfa -24 + ^ x29: .cfa -32 + ^
STACK CFI 178a4 .cfa: sp 32 +
STACK CFI 178ac .cfa: sp 0 +
STACK CFI 178b0 .cfa: x29 32 +
STACK CFI 178c4 .cfa: sp 32 +
STACK CFI 178cc .cfa: sp 0 +
STACK CFI INIT 178d0 64 .cfa: sp 0 +
STACK CFI 178d4 .cfa: sp 32 +
STACK CFI 178dc .cfa: x29 32 + x19: .cfa -16 + ^ .ra: .cfa -24 + ^ x29: .cfa -32 + ^
STACK CFI 17908 .cfa: sp 32 +
STACK CFI 17910 .cfa: sp 0 +
STACK CFI 17914 .cfa: x29 32 +
STACK CFI 17928 .cfa: sp 32 +
STACK CFI 17930 .cfa: sp 0 +
STACK CFI INIT 17934 14 .cfa: sp 0 +
STACK CFI 17938 .cfa: sp 16 +
STACK CFI 1793c .cfa: x29 16 + .ra: .cfa -8 + ^ x29: .cfa -16 + ^
STACK CFI INIT 17cf8 50 .cfa: sp 0 +
STACK CFI 17cfc .cfa: sp 32 +
STACK CFI 17d04 .cfa: x29 32 + x19: .cfa -16 + ^ .ra: .cfa -24 + ^ x29: .cfa -32 + ^
STACK CFI 17d1c .cfa: sp 32 +
STACK CFI 17d24 .cfa: sp 0 +
STACK CFI 17d28 .cfa: x29 32 +
STACK CFI 17d3c .cfa: sp 32 +
STACK CFI 17d44 .cfa: sp 0 +
STACK CFI INIT 184b4 9c .cfa: sp 0 +
STACK CFI 184b8 .cfa: sp 32 +
STACK CFI 184c0 .cfa: x29 32 + x19: .cfa -8 + ^ x20: .cfa -16 + ^ .ra: .cfa -24 + ^ x29: .cfa -32 + ^
STACK CFI 18544 .cfa: sp 32 +
STACK CFI 1854c .cfa: sp 0 +
STACK CFI INIT 18550 14 .cfa: sp 0 +
STACK CFI 18554 .cfa: sp 16 +
STACK CFI 18558 .cfa: x29 16 + .ra: .cfa -8 + ^ x29: .cfa -16 + ^
STACK CFI INIT 18564 14 .cfa: sp 0 +
STACK CFI 18568 .cfa: sp 16 +
STACK CFI 1856c .cfa: x29 16 + .ra: .cfa -8 + ^ x29: .cfa -16 + ^
STACK CFI INIT 18578 c .cfa: sp 0 +
STACK CFI 1857c .cfa: sp 16 +
STACK CFI 18580 .cfa: x29 16 + .ra: .cfa -8 + ^ x29: .cfa -16 + ^
STACK CFI INIT 185d4 30 .cfa: sp 0 +
STACK CFI 185d8 .cfa: sp 32 +
STACK CFI 185e0 .cfa: x29 32 + x19: .cfa -16 + ^ .ra: .cfa -24 + ^ x29: .cfa -32 + ^
STACK CFI 185f8 .cfa: sp 32 +
STACK CFI 18600 .cfa: sp 0 +
STACK CFI INIT 18604 c .cfa: sp 0 +
STACK CFI 18608 .cfa: sp 16 +
STACK CFI 1860c .cfa: x29 16 + .ra: .cfa -8 + ^ x29: .cfa -16 + ^
STACK CFI INIT 18610 9c .cfa: sp 0 +
STACK CFI 18614 .cfa: sp 32 +
STACK CFI 1861c .cfa: x29 32 + x19: .cfa -8 + ^ x20: .cfa -16 + ^ .ra: .cfa -24 + ^ x29: .cfa -32 + ^
STACK CFI 186a0 .cfa: sp 32 +
STACK CFI 186a8 .cfa: sp 0 +
STACK CFI INIT 186ac 4 .cfa: sp 0 +
STACK CFI INIT 1885c a4 .cfa: sp 0 +
STACK CFI 18860 .cfa: sp 32 +
STACK CFI 18868 .cfa: x29 32 + x19: .cfa -8 + ^ x20: .cfa -16 + ^ .ra: .cfa -24 + ^ x29: .cfa -32 + ^
STACK CFI 188f4 .cfa: sp 32 +
STACK CFI 188fc .cfa: sp 0 +
STACK CFI INIT 18900 f8 .cfa: sp 0 +
STACK CFI 18904 .cfa: sp 64 +
STACK CFI 18914 .cfa: x29 64 + x19: .cfa -8 + ^ x20: .cfa -16 + ^ x21: .cfa -24 + ^ x22: .cfa -32 + ^ x23: .cfa -48 + ^ .ra: .cfa -56 + ^ x29: .cfa -64 + ^
STACK CFI 18970 .cfa: sp 64 +
STACK CFI 18980 .cfa: sp 0 +
STACK CFI 18984 .cfa: x29 64 +
STACK CFI 189a0 .cfa: sp 64 +
STACK CFI 189b0 .cfa: sp 0 +
STACK CFI 189b4 .cfa: x29 64 +
STACK CFI 189e4 .cfa: sp 64 +
STACK CFI 189f4 .cfa: sp 0 +
STACK CFI INIT 189f8 34 .cfa: sp 0 +
STACK CFI 189fc .cfa: sp 16 +
STACK CFI 18a00 .cfa: x29 16 + .ra: .cfa -8 + ^ x29: .cfa -16 + ^
STACK CFI INIT 18a2c 24 .cfa: sp 0 +
STACK CFI 18a30 .cfa: sp 32 +
STACK CFI 18a38 .cfa: x29 32 + x19: .cfa -16 + ^ .ra: .cfa -24 + ^ x29: .cfa -32 + ^
STACK CFI 18a44 .cfa: sp 32 +
STACK CFI 18a4c .cfa: sp 0 +
STACK CFI INIT 18a50 4 .cfa: sp 0 +
STACK CFI INIT 18a54 4 .cfa: sp 0 +
STACK CFI INIT 18a58 38 .cfa: sp 0 +
STACK CFI 18a5c .cfa: sp 32 +
STACK CFI 18a64 .cfa: x29 32 + x19: .cfa -16 + ^ .ra: .cfa -24 + ^ x29: .cfa -32 + ^
STACK CFI 18a84 .cfa: sp 32 +
STACK CFI 18a8c .cfa: sp 0 +
STACK CFI INIT 18a90 18 .cfa: sp 0 +
STACK CFI INIT 18aa8 4 .cfa: sp 0 +
STACK CFI INIT 18aac 4 .cfa: sp 0 +
STACK CFI INIT 18ab0 10 .cfa: sp 0 +
STACK CFI INIT 18ac0 1c .cfa: sp 0 +
STACK CFI INIT 18adc c .cfa: sp 0 +
STACK CFI INIT 18cec 50 .cfa: sp 0 +
STACK CFI 18cf0 .cfa: sp 32 +
STACK CFI 18cf8 .cfa: x29 32 + x19: .cfa -16 + ^ .ra: .cfa -24 + ^ x29: .cfa -32 + ^
STACK CFI 18d10 .cfa: sp 32 +
STACK CFI 18d18 .cfa: sp 0 +
STACK CFI 18d1c .cfa: x29 32 +
STACK CFI 18d30 .cfa: sp 32 +
STACK CFI 18d38 .cfa: sp 0 +
STACK CFI INIT 18d3c 50 .cfa: sp 0 +
STACK CFI 18d40 .cfa: sp 32 +
STACK CFI 18d48 .cfa: x29 32 + x19: .cfa -16 + ^ .ra: .cfa -24 + ^ x29: .cfa -32 + ^
STACK CFI 18d60 .cfa: sp 32 +
STACK CFI 18d68 .cfa: sp 0 +
STACK CFI 18d6c .cfa: x29 32 +
STACK CFI 18d80 .cfa: sp 32 +
STACK CFI 18d88 .cfa: sp 0 +
STACK CFI INIT 18d8c 5c .cfa: sp 0 +
STACK CFI 18d90 .cfa: sp 32 +
STACK CFI 18d98 .cfa: x29 32 + x19: .cfa -16 + ^ .ra: .cfa -24 + ^ x29: .cfa -32 + ^
STACK CFI 18dbc .cfa: sp 32 +
STACK CFI 18dc4 .cfa: sp 0 +
STACK CFI 18dc8 .cfa: x29 32 +
STACK CFI 18ddc .cfa: sp 32 +
STACK CFI 18de4 .cfa: sp 0 +
STACK CFI INIT 18de8 6c .cfa: sp 0 +
STACK CFI 18dec .cfa: sp 32 +
STACK CFI 18df4 .cfa: x29 32 + x19: .cfa -8 + ^ x20: .cfa -16 + ^ .ra: .cfa -24 + ^ x29: .cfa -32 + ^
STACK CFI 18e20 .cfa: sp 32 +
STACK CFI 18e28 .cfa: sp 0 +
STACK CFI 18e2c .cfa: x29 32 +
STACK CFI 18e48 .cfa: sp 32 +
STACK CFI 18e50 .cfa: sp 0 +
STACK CFI INIT 18e54 58 .cfa: sp 0 +
STACK CFI 18e58 .cfa: sp 32 +
STACK CFI 18e60 .cfa: x29 32 + x19: .cfa -8 + ^ x20: .cfa -16 + ^ .ra: .cfa -24 + ^ x29: .cfa -32 + ^
STACK CFI 18ea0 .cfa: sp 32 +
STACK CFI 18ea8 .cfa: sp 0 +
STACK CFI INIT 18eac 4c .cfa: sp 0 +
STACK CFI 18eb0 .cfa: sp 32 +
STACK CFI 18eb8 .cfa: x29 32 + x19: .cfa -8 + ^ x20: .cfa -16 + ^ .ra: .cfa -24 + ^ x29: .cfa -32 + ^
STACK CFI 18eec .cfa: sp 32 +
STACK CFI 18ef4 .cfa: sp 0 +
STACK CFI INIT 18ef8 50 .cfa: sp 0 +
STACK CFI 18efc .cfa: sp 32 +
STACK CFI 18f04 .cfa: x29 32 + x19: .cfa -16 + ^ .ra: .cfa -24 + ^ x29: .cfa -32 + ^
STACK CFI 18f1c .cfa: sp 32 +
STACK CFI 18f24 .cfa: sp 0 +
STACK CFI 18f28 .cfa: x29 32 +
STACK CFI 18f3c .cfa: sp 32 +
STACK CFI 18f44 .cfa: sp 0 +
STACK CFI INIT 18f48 60 .cfa: sp 0 +
STACK CFI 18f4c .cfa: sp 32 +
STACK CFI 18f54 .cfa: x29 32 + x19: .cfa -8 + ^ x20: .cfa -16 + ^ .ra: .cfa -24 + ^ x29: .cfa -32 + ^
STACK CFI 18f74 .cfa: sp 32 +
STACK CFI 18f7c .cfa: sp 0 +
STACK CFI 18f80 .cfa: x29 32 +
STACK CFI 18f9c .cfa: sp 32 +
STACK CFI 18fa4 .cfa: sp 0 +
STACK CFI INIT 19178 1c .cfa: sp 0 +
STACK CFI INIT 19194 c .cfa: sp 0 +
STACK CFI INIT 191a0 60 .cfa: sp 0 +
STACK CFI 191a4 .cfa: sp 32 +
STACK CFI 191ac .cfa: x29 32 + x19: .cfa -8 + ^ x20: .cfa -16 + ^ .ra: .cfa -24 + ^ x29: .cfa -32 + ^
STACK CFI 191cc .cfa: sp 32 +
STACK CFI 191d4 .cfa: sp 0 +
STACK CFI 191d8 .cfa: x29 32 +
STACK CFI 191f4 .cfa: sp 32 +
STACK CFI 191fc .cfa: sp 0 +
STACK CFI INIT 19200 70 .cfa: sp 0 +
STACK CFI 19204 .cfa: sp 32 +
STACK CFI 1920c .cfa: x29 32 + x19: .cfa -8 + ^ x20: .cfa -16 + ^ .ra: .cfa -24 + ^ x29: .cfa -32 + ^
STACK CFI 19234 .cfa: sp 32 +
STACK CFI 1923c .cfa: sp 0 +
STACK CFI 19240 .cfa: x29 32 +
STACK CFI 19264 .cfa: sp 32 +
STACK CFI 1926c .cfa: sp 0 +
STACK CFI INIT 19270 5c .cfa: sp 0 +
STACK CFI 19274 .cfa: sp 32 +
STACK CFI 1927c .cfa: x29 32 + x19: .cfa -16 + ^ .ra: .cfa -24 + ^ x29: .cfa -32 + ^
STACK CFI 192a0 .cfa: sp 32 +
STACK CFI 192a8 .cfa: sp 0 +
STACK CFI 192ac .cfa: x29 32 +
STACK CFI 192c0 .cfa: sp 32 +
STACK CFI 192c8 .cfa: sp 0 +
STACK CFI INIT 192cc 6c .cfa: sp 0 +
STACK CFI 192d0 .cfa: sp 32 +
STACK CFI 192d8 .cfa: x29 32 + x19: .cfa -8 + ^ x20: .cfa -16 + ^ .ra: .cfa -24 + ^ x29: .cfa -32 + ^
STACK CFI 19304 .cfa: sp 32 +
STACK CFI 1930c .cfa: sp 0 +
STACK CFI 19310 .cfa: x29 32 +
STACK CFI 1932c .cfa: sp 32 +
STACK CFI 19334 .cfa: sp 0 +
STACK CFI INIT 19338 58 .cfa: sp 0 +
STACK CFI 1933c .cfa: sp 32 +
STACK CFI 19344 .cfa: x29 32 + x19: .cfa -8 + ^ x20: .cfa -16 + ^ .ra: .cfa -24 + ^ x29: .cfa -32 + ^
STACK CFI 19384 .cfa: sp 32 +
STACK CFI 1938c .cfa: sp 0 +
STACK CFI INIT 19390 4c .cfa: sp 0 +
STACK CFI 19394 .cfa: sp 32 +
STACK CFI 1939c .cfa: x29 32 + x19: .cfa -8 + ^ x20: .cfa -16 + ^ .ra: .cfa -24 + ^ x29: .cfa -32 + ^
STACK CFI 193d0 .cfa: sp 32 +
STACK CFI 193d8 .cfa: sp 0 +
STACK CFI INIT 193dc 50 .cfa: sp 0 +
STACK CFI 193e0 .cfa: sp 32 +
STACK CFI 193e8 .cfa: x29 32 + x19: .cfa -16 + ^ .ra: .cfa -24 + ^ x29: .cfa -32 + ^
STACK CFI 19400 .cfa: sp 32 +
STACK CFI 19408 .cfa: sp 0 +
STACK CFI 1940c .cfa: x29 32 +
STACK CFI 19420 .cfa: sp 32 +
STACK CFI 19428 .cfa: sp 0 +
STACK CFI INIT 1942c 60 .cfa: sp 0 +
STACK CFI 19430 .cfa: sp 32 +
STACK CFI 19438 .cfa: x29 32 + x19: .cfa -8 + ^ x20: .cfa -16 + ^ .ra: .cfa -24 + ^ x29: .cfa -32 + ^
STACK CFI 19458 .cfa: sp 32 +
STACK CFI 19460 .cfa: sp 0 +
STACK CFI 19464 .cfa: x29 32 +
STACK CFI 19480 .cfa: sp 32 +
STACK CFI 19488 .cfa: sp 0 +
STACK CFI INIT 19650 1c .cfa: sp 0 +
STACK CFI INIT 1966c c .cfa: sp 0 +
STACK CFI INIT 19810 4 .cfa: sp 0 +
STACK CFI INIT 19814 34 .cfa: sp 0 +
STACK CFI 19818 .cfa: sp 32 +
STACK CFI 19820 .cfa: x29 32 + x19: .cfa -16 + ^ .ra: .cfa -24 + ^ x29: .cfa -32 + ^
STACK CFI 1983c .cfa: sp 32 +
STACK CFI 19844 .cfa: sp 0 +
STACK CFI INIT 19848 14 .cfa: sp 0 +
STACK CFI INIT 1985c 4 .cfa: sp 0 +
STACK CFI INIT 19860 4 .cfa: sp 0 +
STACK CFI INIT 19864 14 .cfa: sp 0 +
STACK CFI INIT 19878 1c .cfa: sp 0 +
STACK CFI INIT 19894 c .cfa: sp 0 +
STACK CFI INIT 19fc4 4 .cfa: sp 0 +
STACK CFI INIT 19fc8 14 .cfa: sp 0 +
STACK CFI INIT 19fdc 20 .cfa: sp 0 +
STACK CFI INIT 19ffc 40 .cfa: sp 0 +
STACK CFI 1a014 .cfa: sp 32 +
STACK CFI 1a01c .cfa: x29 32 + x19: .cfa -16 + ^ .ra: .cfa -24 + ^ x29: .cfa -32 + ^
STACK CFI 1a030 .cfa: sp 32 +
STACK CFI 1a038 .cfa: sp 0 +
STACK CFI INIT 1a0bc 3c .cfa: sp 0 +
STACK CFI INIT 1a0f8 14 .cfa: sp 0 +
STACK CFI INIT 1a10c 34 .cfa: sp 0 +
STACK CFI 1a118 .cfa: sp 32 +
STACK CFI 1a120 .cfa: x29 32 + x19: .cfa -16 + ^ .ra: .cfa -24 + ^ x29: .cfa -32 + ^
STACK CFI 1a134 .cfa: sp 32 +
STACK CFI 1a13c .cfa: sp 0 +
STACK CFI INIT 1a140 14 .cfa: sp 0 +
STACK CFI INIT 1a154 1c .cfa: sp 0 +
STACK CFI INIT 1a170 c .cfa: sp 0 +
STACK CFI INIT 1a584 168 .cfa: sp 0 +
STACK CFI 1a588 .cfa: sp 80 +
STACK CFI 1a59c .cfa: x29 80 + x19: .cfa -8 + ^ x20: .cfa -16 + ^ x21: .cfa -24 + ^ x22: .cfa -32 + ^ x23: .cfa -40 + ^ x24: .cfa -48 + ^ x25: .cfa -56 + ^ x26: .cfa -64 + ^ .ra: .cfa -72 + ^ x29: .cfa -80 + ^
STACK CFI 1a6d4 .cfa: sp 80 +
STACK CFI 1a6e8 .cfa: sp 0 +
STACK CFI INIT 1a6ec 1b0 .cfa: sp 0 +
STACK CFI INIT 1ac38 4 .cfa: sp 0 +
STACK CFI INIT 1b15c 9c .cfa: sp 0 +
STACK CFI 1b160 .cfa: sp 32 +
STACK CFI 1b168 .cfa: x29 32 + x19: .cfa -8 + ^ x20: .cfa -16 + ^ .ra: .cfa -24 + ^ x29: .cfa -32 + ^
STACK CFI 1b1ec .cfa: sp 32 +
STACK CFI 1b1f4 .cfa: sp 0 +
STACK CFI INIT 1b1f8 4 .cfa: sp 0 +
STACK CFI INIT 1b1fc 34 .cfa: sp 0 +
STACK CFI 1b200 .cfa: sp 32 +
STACK CFI 1b208 .cfa: x29 32 + x19: .cfa -16 + ^ .ra: .cfa -24 + ^ x29: .cfa -32 + ^
STACK CFI 1b224 .cfa: sp 32 +
STACK CFI 1b22c .cfa: sp 0 +
STACK CFI INIT 1b230 14 .cfa: sp 0 +
STACK CFI INIT 1b244 4 .cfa: sp 0 +
STACK CFI INIT 1b248 4 .cfa: sp 0 +
STACK CFI INIT 1b24c 14 .cfa: sp 0 +
STACK CFI INIT 1b260 1c .cfa: sp 0 +
STACK CFI INIT 1b27c c .cfa: sp 0 +
STACK CFI INIT 1b5f4 4 .cfa: sp 0 +
STACK CFI INIT 1ba00 50 .cfa: sp 0 +
STACK CFI 1ba04 .cfa: sp 32 +
STACK CFI 1ba0c .cfa: x29 32 + x19: .cfa -16 + ^ .ra: .cfa -24 + ^ x29: .cfa -32 + ^
STACK CFI 1ba24 .cfa: sp 32 +
STACK CFI 1ba2c .cfa: sp 0 +
STACK CFI 1ba30 .cfa: x29 32 +
STACK CFI 1ba44 .cfa: sp 32 +
STACK CFI 1ba4c .cfa: sp 0 +
STACK CFI INIT 1bc6c 9c .cfa: sp 0 +
STACK CFI 1bc70 .cfa: sp 32 +
STACK CFI 1bc78 .cfa: x29 32 + x19: .cfa -8 + ^ x20: .cfa -16 + ^ .ra: .cfa -24 + ^ x29: .cfa -32 + ^
STACK CFI 1bcfc .cfa: sp 32 +
STACK CFI 1bd04 .cfa: sp 0 +
STACK CFI INIT 1bd08 9c .cfa: sp 0 +
STACK CFI 1bd0c .cfa: sp 32 +
STACK CFI 1bd14 .cfa: x29 32 + x19: .cfa -8 + ^ x20: .cfa -16 + ^ .ra: .cfa -24 + ^ x29: .cfa -32 + ^
STACK CFI 1bd98 .cfa: sp 32 +
STACK CFI 1bda0 .cfa: sp 0 +
STACK CFI INIT 1bda4 4 .cfa: sp 0 +
STACK CFI INIT 1bf54 a4 .cfa: sp 0 +
STACK CFI 1bf58 .cfa: sp 32 +
STACK CFI 1bf60 .cfa: x29 32 + x19: .cfa -8 + ^ x20: .cfa -16 + ^ .ra: .cfa -24 + ^ x29: .cfa -32 + ^
STACK CFI 1bfec .cfa: sp 32 +
STACK CFI 1bff4 .cfa: sp 0 +
STACK CFI INIT 1c1fc 50 .cfa: sp 0 +
STACK CFI 1c200 .cfa: sp 32 +
STACK CFI 1c208 .cfa: x29 32 + x19: .cfa -16 + ^ .ra: .cfa -24 + ^ x29: .cfa -32 + ^
STACK CFI 1c220 .cfa: sp 32 +
STACK CFI 1c228 .cfa: sp 0 +
STACK CFI 1c22c .cfa: x29 32 +
STACK CFI 1c240 .cfa: sp 32 +
STACK CFI 1c248 .cfa: sp 0 +
STACK CFI INIT 1c24c 50 .cfa: sp 0 +
STACK CFI 1c250 .cfa: sp 32 +
STACK CFI 1c258 .cfa: x29 32 + x19: .cfa -16 + ^ .ra: .cfa -24 + ^ x29: .cfa -32 + ^
STACK CFI 1c270 .cfa: sp 32 +
STACK CFI 1c278 .cfa: sp 0 +
STACK CFI 1c27c .cfa: x29 32 +
STACK CFI 1c290 .cfa: sp 32 +
STACK CFI 1c298 .cfa: sp 0 +
STACK CFI INIT 1c29c 5c .cfa: sp 0 +
STACK CFI 1c2a0 .cfa: sp 32 +
STACK CFI 1c2a8 .cfa: x29 32 + x19: .cfa -16 + ^ .ra: .cfa -24 + ^ x29: .cfa -32 + ^
STACK CFI 1c2cc .cfa: sp 32 +
STACK CFI 1c2d4 .cfa: sp 0 +
STACK CFI 1c2d8 .cfa: x29 32 +
STACK CFI 1c2ec .cfa: sp 32 +
STACK CFI 1c2f4 .cfa: sp 0 +
STACK CFI INIT 1c2f8 6c .cfa: sp 0 +
STACK CFI 1c2fc .cfa: sp 32 +
STACK CFI 1c304 .cfa: x29 32 + x19: .cfa -8 + ^ x20: .cfa -16 + ^ .ra: .cfa -24 + ^ x29: .cfa -32 + ^
STACK CFI 1c330 .cfa: sp 32 +
STACK CFI 1c338 .cfa: sp 0 +
STACK CFI 1c33c .cfa: x29 32 +
STACK CFI 1c358 .cfa: sp 32 +
STACK CFI 1c360 .cfa: sp 0 +
STACK CFI INIT 1c364 58 .cfa: sp 0 +
STACK CFI 1c368 .cfa: sp 32 +
STACK CFI 1c370 .cfa: x29 32 + x19: .cfa -8 + ^ x20: .cfa -16 + ^ .ra: .cfa -24 + ^ x29: .cfa -32 + ^
STACK CFI 1c3b0 .cfa: sp 32 +
STACK CFI 1c3b8 .cfa: sp 0 +
STACK CFI INIT 1c3bc 4c .cfa: sp 0 +
STACK CFI 1c3c0 .cfa: sp 32 +
STACK CFI 1c3c8 .cfa: x29 32 + x19: .cfa -8 + ^ x20: .cfa -16 + ^ .ra: .cfa -24 + ^ x29: .cfa -32 + ^
STACK CFI 1c3fc .cfa: sp 32 +
STACK CFI 1c404 .cfa: sp 0 +
STACK CFI INIT 1c408 50 .cfa: sp 0 +
STACK CFI 1c40c .cfa: sp 32 +
STACK CFI 1c414 .cfa: x29 32 + x19: .cfa -16 + ^ .ra: .cfa -24 + ^ x29: .cfa -32 + ^
STACK CFI 1c42c .cfa: sp 32 +
STACK CFI 1c434 .cfa: sp 0 +
STACK CFI 1c438 .cfa: x29 32 +
STACK CFI 1c44c .cfa: sp 32 +
STACK CFI 1c454 .cfa: sp 0 +
STACK CFI INIT 1c458 60 .cfa: sp 0 +
STACK CFI 1c45c .cfa: sp 32 +
STACK CFI 1c464 .cfa: x29 32 + x19: .cfa -8 + ^ x20: .cfa -16 + ^ .ra: .cfa -24 + ^ x29: .cfa -32 + ^
STACK CFI 1c484 .cfa: sp 32 +
STACK CFI 1c48c .cfa: sp 0 +
STACK CFI 1c490 .cfa: x29 32 +
STACK CFI 1c4ac .cfa: sp 32 +
STACK CFI 1c4b4 .cfa: sp 0 +
STACK CFI INIT 1c688 1c .cfa: sp 0 +
STACK CFI INIT 1c6a4 c .cfa: sp 0 +
STACK CFI INIT 1c6b0 60 .cfa: sp 0 +
STACK CFI 1c6b4 .cfa: sp 32 +
STACK CFI 1c6bc .cfa: x29 32 + x19: .cfa -8 + ^ x20: .cfa -16 + ^ .ra: .cfa -24 + ^ x29: .cfa -32 + ^
STACK CFI 1c6dc .cfa: sp 32 +
STACK CFI 1c6e4 .cfa: sp 0 +
STACK CFI 1c6e8 .cfa: x29 32 +
STACK CFI 1c704 .cfa: sp 32 +
STACK CFI 1c70c .cfa: sp 0 +
STACK CFI INIT 1c710 70 .cfa: sp 0 +
STACK CFI 1c714 .cfa: sp 32 +
STACK CFI 1c71c .cfa: x29 32 + x19: .cfa -8 + ^ x20: .cfa -16 + ^ .ra: .cfa -24 + ^ x29: .cfa -32 + ^
STACK CFI 1c744 .cfa: sp 32 +
STACK CFI 1c74c .cfa: sp 0 +
STACK CFI 1c750 .cfa: x29 32 +
STACK CFI 1c774 .cfa: sp 32 +
STACK CFI 1c77c .cfa: sp 0 +
STACK CFI INIT 1c780 5c .cfa: sp 0 +
STACK CFI 1c784 .cfa: sp 32 +
STACK CFI 1c78c .cfa: x29 32 + x19: .cfa -16 + ^ .ra: .cfa -24 + ^ x29: .cfa -32 + ^
STACK CFI 1c7b0 .cfa: sp 32 +
STACK CFI 1c7b8 .cfa: sp 0 +
STACK CFI 1c7bc .cfa: x29 32 +
STACK CFI 1c7d0 .cfa: sp 32 +
STACK CFI 1c7d8 .cfa: sp 0 +
STACK CFI INIT 1c7dc 6c .cfa: sp 0 +
STACK CFI 1c7e0 .cfa: sp 32 +
STACK CFI 1c7e8 .cfa: x29 32 + x19: .cfa -8 + ^ x20: .cfa -16 + ^ .ra: .cfa -24 + ^ x29: .cfa -32 + ^
STACK CFI 1c814 .cfa: sp 32 +
STACK CFI 1c81c .cfa: sp 0 +
STACK CFI 1c820 .cfa: x29 32 +
STACK CFI 1c83c .cfa: sp 32 +
STACK CFI 1c844 .cfa: sp 0 +
STACK CFI INIT 1c848 58 .cfa: sp 0 +
STACK CFI 1c84c .cfa: sp 32 +
STACK CFI 1c854 .cfa: x29 32 + x19: .cfa -8 + ^ x20: .cfa -16 + ^ .ra: .cfa -24 + ^ x29: .cfa -32 + ^
STACK CFI 1c894 .cfa: sp 32 +
STACK CFI 1c89c .cfa: sp 0 +
STACK CFI INIT 1c8a0 4c .cfa: sp 0 +
STACK CFI 1c8a4 .cfa: sp 32 +
STACK CFI 1c8ac .cfa: x29 32 + x19: .cfa -8 + ^ x20: .cfa -16 + ^ .ra: .cfa -24 + ^ x29: .cfa -32 + ^
STACK CFI 1c8e0 .cfa: sp 32 +
STACK CFI 1c8e8 .cfa: sp 0 +
STACK CFI INIT 1c8ec 50 .cfa: sp 0 +
STACK CFI 1c8f0 .cfa: sp 32 +
STACK CFI 1c8f8 .cfa: x29 32 + x19: .cfa -16 + ^ .ra: .cfa -24 + ^ x29: .cfa -32 + ^
STACK CFI 1c910 .cfa: sp 32 +
STACK CFI 1c918 .cfa: sp 0 +
STACK CFI 1c91c .cfa: x29 32 +
STACK CFI 1c930 .cfa: sp 32 +
STACK CFI 1c938 .cfa: sp 0 +
STACK CFI INIT 1c93c 60 .cfa: sp 0 +
STACK CFI 1c940 .cfa: sp 32 +
STACK CFI 1c948 .cfa: x29 32 + x19: .cfa -8 + ^ x20: .cfa -16 + ^ .ra: .cfa -24 + ^ x29: .cfa -32 + ^
STACK CFI 1c968 .cfa: sp 32 +
STACK CFI 1c970 .cfa: sp 0 +
STACK CFI 1c974 .cfa: x29 32 +
STACK CFI 1c990 .cfa: sp 32 +
STACK CFI 1c998 .cfa: sp 0 +
STACK CFI INIT 1cb60 1c .cfa: sp 0 +
STACK CFI INIT 1cb7c c .cfa: sp 0 +
STACK CFI INIT 1cb88 4 .cfa: sp 0 +
STACK CFI INIT 1cb8c 4 .cfa: sp 0 +
STACK CFI INIT 1cb90 24 .cfa: sp 0 +
STACK CFI 1cb94 .cfa: sp 16 +
STACK CFI 1cb98 .cfa: x29 16 + .ra: .cfa -8 + ^ x29: .cfa -16 + ^
STACK CFI 1cbac .cfa: sp 16 +
STACK CFI 1cbb0 .cfa: sp 0 +
STACK CFI INIT 1cbb4 10 .cfa: sp 0 +
STACK CFI INIT 1cbc4 4 .cfa: sp 0 +
STACK CFI INIT 1cbc8 4 .cfa: sp 0 +
STACK CFI INIT 1d334 1c .cfa: sp 0 +
STACK CFI INIT 1d350 c .cfa: sp 0 +
STACK CFI INIT 1d5b8 14 .cfa: sp 0 +
STACK CFI INIT 1d720 4 .cfa: sp 0 +
STACK CFI INIT 1d724 14 .cfa: sp 0 +
STACK CFI INIT 1e628 1a4 .cfa: sp 0 +
STACK CFI 1e62c .cfa: sp 64 +
STACK CFI 1e638 .cfa: x29 32 + x19: .cfa -8 + ^ x20: .cfa -16 + ^ .ra: .cfa -24 + ^ x29: .cfa -32 + ^
STACK CFI 1e764 .cfa: sp 64 +
STACK CFI 1e770 .cfa: sp 0 +
STACK CFI 1e774 .cfa: x29 32 +
STACK CFI INIT 1e7cc 194 .cfa: sp 0 +
STACK CFI 1e7d0 .cfa: sp 16 +
STACK CFI 1e7d4 .cfa: x29 16 + .ra: .cfa -8 + ^ x29: .cfa -16 + ^
STACK CFI 1e86c .cfa: sp 16 +
STACK CFI 1e870 .cfa: sp 0 +
STACK CFI 1e874 .cfa: x29 16 +
STACK CFI 1e940 .cfa: sp 16 +
STACK CFI 1e944 .cfa: sp 0 +
STACK CFI 1e948 .cfa: x29 16 +
STACK CFI INIT 1e960 114 .cfa: sp 0 +
STACK CFI 1e964 .cfa: sp 128 +
STACK CFI 1e974 .cfa: x29 48 + x19: .cfa -8 + ^ x20: .cfa -16 + ^ x21: .cfa -32 + ^ .ra: .cfa -40 + ^ x29: .cfa -48 + ^
STACK CFI 1ea40 .cfa: sp 128 +
STACK CFI 1ea50 .cfa: sp 0 +
STACK CFI 1ea54 .cfa: x29 48 +
STACK CFI INIT 1ea74 27c .cfa: sp 0 +
STACK CFI 1ea78 .cfa: sp 176 +
STACK CFI 1ea94 .cfa: x29 96 + x19: .cfa -8 + ^ x20: .cfa -16 + ^ x21: .cfa -24 + ^ x22: .cfa -32 + ^ x23: .cfa -40 + ^ x24: .cfa -48 + ^ x25: .cfa -56 + ^ x26: .cfa -64 + ^ x27: .cfa -72 + ^ x28: .cfa -80 + ^ .ra: .cfa -88 + ^ x29: .cfa -96 + ^
STACK CFI 1eccc .cfa: sp 176 +
STACK CFI 1ece8 .cfa: sp 0 +
STACK CFI 1ecec .cfa: x29 96 +
STACK CFI INIT 1ecf0 94 .cfa: sp 0 +
STACK CFI 1ecf4 .cfa: sp 16 +
STACK CFI 1ecf8 .cfa: x29 16 + .ra: .cfa -8 + ^ x29: .cfa -16 + ^
STACK CFI 1ed4c .cfa: sp 16 +
STACK CFI 1ed50 .cfa: sp 0 +
STACK CFI 1ed54 .cfa: x29 16 +
STACK CFI INIT 1ed84 158 .cfa: sp 0 +
STACK CFI 1ed88 .cfa: sp 112 +
STACK CFI 1eda4 .cfa: x29 96 + x19: .cfa -8 + ^ x20: .cfa -16 + ^ x21: .cfa -24 + ^ x22: .cfa -32 + ^ x23: .cfa -40 + ^ x24: .cfa -48 + ^ x25: .cfa -56 + ^ x26: .cfa -64 + ^ x27: .cfa -72 + ^ x28: .cfa -80 + ^ .ra: .cfa -88 + ^ x29: .cfa -96 + ^
STACK CFI 1ee8c .cfa: sp 112 +
STACK CFI 1ee90 .cfa: x29 96 +
STACK CFI 1ee98 .cfa: sp 112 +
STACK CFI 1eeb4 .cfa: sp 0 +
STACK CFI 1eeb8 .cfa: x29 96 +
STACK CFI 1eed8 .cfa: sp 112 +
STACK CFI INIT 1eedc 520 .cfa: sp 0 +
STACK CFI 1eee0 .cfa: sp 176 +
STACK CFI 1eefc .cfa: x29 96 + x19: .cfa -8 + ^ x20: .cfa -16 + ^ x21: .cfa -24 + ^ x22: .cfa -32 + ^ x23: .cfa -40 + ^ x24: .cfa -48 + ^ x25: .cfa -56 + ^ x26: .cfa -64 + ^ x27: .cfa -72 + ^ x28: .cfa -80 + ^ .ra: .cfa -88 + ^ x29: .cfa -96 + ^
STACK CFI 1f3d8 .cfa: sp 176 +
STACK CFI 1f3f4 .cfa: sp 0 +
STACK CFI 1f3f8 .cfa: x29 96 +
STACK CFI INIT 1f3fc 20c .cfa: sp 0 +
STACK CFI 1f400 .cfa: sp 80 +
STACK CFI 1f414 .cfa: x29 80 + x19: .cfa -8 + ^ x20: .cfa -16 + ^ x21: .cfa -24 + ^ x22: .cfa -32 + ^ x23: .cfa -40 + ^ x24: .cfa -48 + ^ x25: .cfa -64 + ^ .ra: .cfa -72 + ^ x29: .cfa -80 + ^
STACK CFI 1f4a4 .cfa: sp 80 +
STACK CFI 1f4b8 .cfa: sp 0 +
STACK CFI 1f4bc .cfa: x29 80 +
STACK CFI 1f4c8 .cfa: sp 80 +
STACK CFI 1f4dc .cfa: sp 0 +
STACK CFI 1f4e0 .cfa: x29 80 +
STACK CFI INIT 1f608 428 .cfa: sp 0 +
STACK CFI 1f60c .cfa: sp 128 +
STACK CFI 1f628 .cfa: x29 96 + x19: .cfa -8 + ^ x20: .cfa -16 + ^ x21: .cfa -24 + ^ x22: .cfa -32 + ^ x23: .cfa -40 + ^ x24: .cfa -48 + ^ x25: .cfa -56 + ^ x26: .cfa -64 + ^ x27: .cfa -72 + ^ x28: .cfa -80 + ^ .ra: .cfa -88 + ^ x29: .cfa -96 + ^
STACK CFI 1fa0c .cfa: sp 128 +
STACK CFI 1fa28 .cfa: sp 0 +
STACK CFI 1fa2c .cfa: x29 96 +
STACK CFI INIT 1fa30 194 .cfa: sp 0 +
STACK CFI 1fa34 .cfa: sp 32 +
STACK CFI 1fa3c .cfa: x29 16 + .ra: .cfa -8 + ^ x29: .cfa -16 + ^
STACK CFI 1fa80 .cfa: sp 32 +
STACK CFI 1fa88 .cfa: sp 0 +
STACK CFI 1fa8c .cfa: x29 16 +
STACK CFI INIT 1fbc4 1b8 .cfa: sp 0 +
STACK CFI INIT 1fd7c 1d0 .cfa: sp 0 +
STACK CFI 1fd80 .cfa: sp 80 +
STACK CFI 1fd94 .cfa: x29 80 + x19: .cfa -8 + ^ x20: .cfa -16 + ^ x21: .cfa -24 + ^ x22: .cfa -32 + ^ x23: .cfa -40 + ^ x24: .cfa -48 + ^ x25: .cfa -64 + ^ .ra: .cfa -72 + ^ x29: .cfa -80 + ^
STACK CFI 1ff34 .cfa: sp 80 +
STACK CFI 1ff48 .cfa: sp 0 +
STACK CFI INIT 1ff4c 67c .cfa: sp 0 +
STACK CFI 1ff50 .cfa: sp 176 +
STACK CFI 1ff6c .cfa: x29 96 + x19: .cfa -8 + ^ x20: .cfa -16 + ^ x21: .cfa -24 + ^ x22: .cfa -32 + ^ x23: .cfa -40 + ^ x24: .cfa -48 + ^ x25: .cfa -56 + ^ x26: .cfa -64 + ^ x27: .cfa -72 + ^ x28: .cfa -80 + ^ .ra: .cfa -88 + ^ x29: .cfa -96 + ^
STACK CFI 205a4 .cfa: sp 176 +
STACK CFI 205c0 .cfa: sp 0 +
STACK CFI 205c4 .cfa: x29 96 +
STACK CFI INIT 205c8 1e4 .cfa: sp 0 +
STACK CFI 205cc .cfa: sp 32 +
STACK CFI 205d4 .cfa: x29 32 + x19: .cfa -8 + ^ x20: .cfa -16 + ^ .ra: .cfa -24 + ^ x29: .cfa -32 + ^
STACK CFI 206c4 .cfa: sp 32 +
STACK CFI 206cc .cfa: sp 0 +
STACK CFI 206d0 .cfa: x29 32 +
STACK CFI 20744 .cfa: sp 32 +
STACK CFI 2074c .cfa: sp 0 +
STACK CFI 20750 .cfa: x29 32 +
STACK CFI 20760 .cfa: sp 32 +
STACK CFI 20768 .cfa: sp 0 +
STACK CFI 2076c .cfa: x29 32 +
STACK CFI 2077c .cfa: sp 32 +
STACK CFI 20784 .cfa: sp 0 +
STACK CFI 20788 .cfa: x29 32 +
STACK CFI INIT 207ac 178 .cfa: sp 0 +
STACK CFI 207b0 .cfa: sp 80 +
STACK CFI 207c4 .cfa: x29 64 + x19: .cfa -8 + ^ x20: .cfa -16 + ^ x21: .cfa -24 + ^ x22: .cfa -32 + ^ x23: .cfa -40 + ^ x24: .cfa -48 + ^ .ra: .cfa -56 + ^ x29: .cfa -64 + ^
STACK CFI 20908 .cfa: sp 80 +
STACK CFI 2091c .cfa: sp 0 +
STACK CFI 20920 .cfa: x29 64 +
STACK CFI INIT 20924 178 .cfa: sp 0 +
STACK CFI 20928 .cfa: sp 80 +
STACK CFI 2093c .cfa: x29 64 + x19: .cfa -8 + ^ x20: .cfa -16 + ^ x21: .cfa -24 + ^ x22: .cfa -32 + ^ x23: .cfa -40 + ^ x24: .cfa -48 + ^ .ra: .cfa -56 + ^ x29: .cfa -64 + ^
STACK CFI 20a80 .cfa: sp 80 +
STACK CFI 20a94 .cfa: sp 0 +
STACK CFI 20a98 .cfa: x29 64 +
STACK CFI INIT 20a9c 178 .cfa: sp 0 +
STACK CFI 20aa0 .cfa: sp 80 +
STACK CFI 20ab4 .cfa: x29 64 + x19: .cfa -8 + ^ x20: .cfa -16 + ^ x21: .cfa -24 + ^ x22: .cfa -32 + ^ x23: .cfa -40 + ^ x24: .cfa -48 + ^ .ra: .cfa -56 + ^ x29: .cfa -64 + ^
STACK CFI 20bf8 .cfa: sp 80 +
STACK CFI 20c0c .cfa: sp 0 +
STACK CFI 20c10 .cfa: x29 64 +
STACK CFI INIT 20c14 78 .cfa: sp 0 +
STACK CFI 20c18 .cfa: sp 48 +
STACK CFI 20c24 .cfa: x29 48 + x19: .cfa -8 + ^ x20: .cfa -16 + ^ x21: .cfa -24 + ^ x22: .cfa -32 + ^ .ra: .cfa -40 + ^ x29: .cfa -48 + ^
STACK CFI 20c6c .cfa: sp 48 +
STACK CFI 20c78 .cfa: sp 0 +
STACK CFI 20c7c .cfa: sp 48 +
STACK CFI 20c88 .cfa: sp 0 +
STACK CFI INIT 20c8c 178 .cfa: sp 0 +
STACK CFI 20c90 .cfa: sp 80 +
STACK CFI 20ca4 .cfa: x29 64 + x19: .cfa -8 + ^ x20: .cfa -16 + ^ x21: .cfa -24 + ^ x22: .cfa -32 + ^ x23: .cfa -40 + ^ x24: .cfa -48 + ^ .ra: .cfa -56 + ^ x29: .cfa -64 + ^
STACK CFI 20de8 .cfa: sp 80 +
STACK CFI 20dfc .cfa: sp 0 +
STACK CFI 20e00 .cfa: x29 64 +
STACK CFI INIT 20e04 34 .cfa: sp 0 +
STACK CFI 20e08 .cfa: sp 32 +
STACK CFI 20e10 .cfa: x29 32 + x19: .cfa -16 + ^ .ra: .cfa -24 + ^ x29: .cfa -32 + ^
STACK CFI 20e2c .cfa: sp 32 +
STACK CFI 20e34 .cfa: sp 0 +
STACK CFI INIT 21190 4 .cfa: sp 0 +
STACK CFI INIT 21840 9c .cfa: sp 0 +
STACK CFI 21844 .cfa: sp 32 +
STACK CFI 2184c .cfa: x29 32 + x19: .cfa -8 + ^ x20: .cfa -16 + ^ .ra: .cfa -24 + ^ x29: .cfa -32 + ^
STACK CFI 218d0 .cfa: sp 32 +
STACK CFI 218d8 .cfa: sp 0 +
STACK CFI INIT 218dc 4 .cfa: sp 0 +
STACK CFI INIT 218e0 4 .cfa: sp 0 +
STACK CFI INIT 218e4 34 .cfa: sp 0 +
STACK CFI 218e8 .cfa: sp 32 +
STACK CFI 218f0 .cfa: x29 32 + x19: .cfa -16 + ^ .ra: .cfa -24 + ^ x29: .cfa -32 + ^
STACK CFI 2190c .cfa: sp 32 +
STACK CFI 21914 .cfa: sp 0 +
STACK CFI INIT 21918 14 .cfa: sp 0 +
STACK CFI INIT 2192c 4 .cfa: sp 0 +
STACK CFI INIT 21930 4 .cfa: sp 0 +
STACK CFI INIT 21ef4 1c .cfa: sp 0 +
STACK CFI INIT 21f10 c .cfa: sp 0 +
STACK CFI INIT 21f1c 20 .cfa: sp 0 +
STACK CFI INIT 21f3c 40 .cfa: sp 0 +
STACK CFI 21f54 .cfa: sp 32 +
STACK CFI 21f5c .cfa: x29 32 + x19: .cfa -16 + ^ .ra: .cfa -24 + ^ x29: .cfa -32 + ^
STACK CFI 21f70 .cfa: sp 32 +
STACK CFI 21f78 .cfa: sp 0 +
STACK CFI INIT 21ffc 3c .cfa: sp 0 +
STACK CFI INIT 22038 14 .cfa: sp 0 +
STACK CFI INIT 2204c 34 .cfa: sp 0 +
STACK CFI 22058 .cfa: sp 32 +
STACK CFI 22060 .cfa: x29 32 + x19: .cfa -16 + ^ .ra: .cfa -24 + ^ x29: .cfa -32 + ^
STACK CFI 22074 .cfa: sp 32 +
STACK CFI 2207c .cfa: sp 0 +
STACK CFI INIT 22080 14 .cfa: sp 0 +
STACK CFI INIT 22094 1c .cfa: sp 0 +
STACK CFI INIT 220b0 c .cfa: sp 0 +
STACK CFI INIT 22344 3c .cfa: sp 0 +
STACK CFI 22348 .cfa: sp 32 +
STACK CFI 22350 .cfa: x29 32 + x19: .cfa -16 + ^ .ra: .cfa -24 + ^ x29: .cfa -32 + ^
STACK CFI 2235c .cfa: sp 32 +
STACK CFI 22364 .cfa: sp 0 +
STACK CFI 22368 .cfa: x29 32 +
STACK CFI 22374 .cfa: sp 32 +
STACK CFI 2237c .cfa: sp 0 +
STACK CFI INIT 225a0 64 .cfa: sp 0 +
STACK CFI 225a4 .cfa: sp 32 +
STACK CFI 225ac .cfa: x29 32 + x19: .cfa -16 + ^ .ra: .cfa -24 + ^ x29: .cfa -32 + ^
STACK CFI 225d8 .cfa: sp 32 +
STACK CFI 225e0 .cfa: sp 0 +
STACK CFI 225e4 .cfa: x29 32 +
STACK CFI 225f8 .cfa: sp 32 +
STACK CFI 22600 .cfa: sp 0 +
STACK CFI INIT 22df4 4 .cfa: sp 0 +
STACK CFI INIT 22df8 14 .cfa: sp 0 +
STACK CFI INIT 22e0c c .cfa: sp 0 +
STACK CFI INIT 22e18 24c .cfa: sp 0 +
STACK CFI INIT 23064 a0 .cfa: sp 0 +
STACK CFI 23070 .cfa: sp 32 +
STACK CFI 230c8 .cfa: sp 0 +
STACK CFI 230cc .cfa: sp 32 +
STACK CFI 230d4 .cfa: sp 0 +
STACK CFI 230d8 .cfa: sp 32 +
STACK CFI 230ec .cfa: sp 0 +
STACK CFI 230f0 .cfa: sp 32 +
STACK CFI 23100 .cfa: sp 0 +
STACK CFI INIT 23104 38 .cfa: sp 0 +
STACK CFI 23110 .cfa: sp 32 +
STACK CFI 23138 .cfa: sp 0 +
STACK CFI INIT 233d0 7c .cfa: sp 0 +
STACK CFI 233d4 .cfa: sp 32 +
STACK CFI 233dc .cfa: x29 32 + x19: .cfa -16 + ^ .ra: .cfa -24 + ^ x29: .cfa -32 + ^
STACK CFI 23408 .cfa: sp 32 +
STACK CFI 23410 .cfa: sp 0 +
STACK CFI 23414 .cfa: x29 32 +
STACK CFI 23440 .cfa: sp 32 +
STACK CFI 23448 .cfa: sp 0 +
STACK CFI INIT 2349c 2c .cfa: sp 0 +
STACK CFI 234a0 .cfa: sp 32 +
STACK CFI 234a8 .cfa: x29 32 + x19: .cfa -16 + ^ .ra: .cfa -24 + ^ x29: .cfa -32 + ^
STACK CFI 234bc .cfa: sp 32 +
STACK CFI 234c4 .cfa: sp 0 +
STACK CFI INIT 23c88 64 .cfa: sp 0 +
STACK CFI 23c8c .cfa: sp 32 +
STACK CFI 23c94 .cfa: x29 32 + x19: .cfa -16 + ^ .ra: .cfa -24 + ^ x29: .cfa -32 + ^
STACK CFI 23cb0 .cfa: sp 32 +
STACK CFI 23cb8 .cfa: sp 0 +
STACK CFI 23cbc .cfa: x29 32 +
STACK CFI 23ce0 .cfa: sp 32 +
STACK CFI 23ce8 .cfa: sp 0 +
STACK CFI INIT 23cec 570 .cfa: sp 0 +
STACK CFI 23cf0 .cfa: sp 176 +
STACK CFI 23d04 .cfa: x29 64 + x19: .cfa -8 + ^ x20: .cfa -16 + ^ x21: .cfa -24 + ^ x22: .cfa -32 + ^ x23: .cfa -40 + ^ x24: .cfa -48 + ^ .ra: .cfa -56 + ^ x29: .cfa -64 + ^
STACK CFI 23f34 .cfa: sp 176 +
STACK CFI 23f48 .cfa: sp 0 +
STACK CFI 23f4c .cfa: x29 64 +
STACK CFI 23f98 .cfa: sp 176 +
STACK CFI 23fac .cfa: sp 0 +
STACK CFI 23fb0 .cfa: x29 64 +
STACK CFI 23fe8 .cfa: sp 176 +
STACK CFI 23ffc .cfa: sp 0 +
STACK CFI 24000 .cfa: x29 64 +
STACK CFI 24018 .cfa: sp 176 +
STACK CFI 2402c .cfa: sp 0 +
STACK CFI 24030 .cfa: x29 64 +
STACK CFI 24050 .cfa: sp 176 +
STACK CFI 24064 .cfa: sp 0 +
STACK CFI 24068 .cfa: x29 64 +
STACK CFI 24080 .cfa: sp 176 +
STACK CFI 24094 .cfa: sp 0 +
STACK CFI 24098 .cfa: x29 64 +
STACK CFI 240ac .cfa: sp 176 +
STACK CFI 240c0 .cfa: sp 0 +
STACK CFI 240c4 .cfa: x29 64 +
STACK CFI 240d8 .cfa: sp 176 +
STACK CFI 240ec .cfa: sp 0 +
STACK CFI 240f0 .cfa: x29 64 +
STACK CFI 24100 .cfa: sp 176 +
STACK CFI 24114 .cfa: sp 0 +
STACK CFI 24118 .cfa: x29 64 +
STACK CFI 24128 .cfa: sp 176 +
STACK CFI 2413c .cfa: sp 0 +
STACK CFI 24140 .cfa: x29 64 +
STACK CFI 24158 .cfa: sp 176 +
STACK CFI 2416c .cfa: sp 0 +
STACK CFI 24170 .cfa: x29 64 +
STACK CFI 24184 .cfa: sp 176 +
STACK CFI 24198 .cfa: sp 0 +
STACK CFI 2419c .cfa: x29 64 +
STACK CFI 241b4 .cfa: sp 176 +
STACK CFI 241c8 .cfa: sp 0 +
STACK CFI 241cc .cfa: x29 64 +
STACK CFI 241f8 .cfa: sp 176 +
STACK CFI 2420c .cfa: sp 0 +
STACK CFI 24210 .cfa: x29 64 +
STACK CFI 24224 .cfa: sp 176 +
STACK CFI 24238 .cfa: sp 0 +
STACK CFI 2423c .cfa: x29 64 +
STACK CFI INIT 2425c 228 .cfa: sp 0 +
STACK CFI INIT 24484 2dc .cfa: sp 0 +
STACK CFI INIT 24760 53c .cfa: sp 0 +
STACK CFI INIT 24c9c 8c .cfa: sp 0 +
STACK CFI 24ca0 .cfa: sp 32 +
STACK CFI 24ca8 .cfa: x29 32 + x19: .cfa -16 + ^ .ra: .cfa -24 + ^ x29: .cfa -32 + ^
STACK CFI 24cdc .cfa: sp 32 +
STACK CFI 24ce4 .cfa: sp 0 +
STACK CFI 24ce8 .cfa: x29 32 +
STACK CFI 24d1c .cfa: sp 32 +
STACK CFI 24d24 .cfa: sp 0 +
STACK CFI INIT 24d28 24 .cfa: sp 0 +
STACK CFI 24d2c .cfa: sp 32 +
STACK CFI 24d34 .cfa: x29 32 + x19: .cfa -16 + ^ .ra: .cfa -24 + ^ x29: .cfa -32 + ^
STACK CFI 24d40 .cfa: sp 32 +
STACK CFI 24d48 .cfa: sp 0 +
STACK CFI INIT 24d4c 150 .cfa: sp 0 +
STACK CFI 24d50 .cfa: sp 48 +
STACK CFI 24d5c .cfa: x29 48 + x19: .cfa -8 + ^ x20: .cfa -16 + ^ x21: .cfa -24 + ^ x22: .cfa -32 + ^ .ra: .cfa -40 + ^ x29: .cfa -48 + ^
STACK CFI 24e8c .cfa: sp 48 +
STACK CFI 24e98 .cfa: sp 0 +
STACK CFI INIT 24e9c 68 .cfa: sp 0 +
STACK CFI 24ea0 .cfa: sp 64 +
STACK CFI 24eac .cfa: x29 32 + x19: .cfa -16 + ^ .ra: .cfa -24 + ^ x29: .cfa -32 + ^
STACK CFI 24ef0 .cfa: sp 64 +
STACK CFI 24efc .cfa: sp 0 +
STACK CFI 24f00 .cfa: x29 32 +
STACK CFI INIT 24f04 90 .cfa: sp 0 +
STACK CFI 24f08 .cfa: sp 32 +
STACK CFI 24f10 .cfa: x29 32 + x19: .cfa -8 + ^ x20: .cfa -16 + ^ .ra: .cfa -24 + ^ x29: .cfa -32 + ^
STACK CFI 24f3c .cfa: sp 32 +
STACK CFI 24f44 .cfa: sp 0 +
STACK CFI 24f48 .cfa: x29 32 +
STACK CFI 24f88 .cfa: sp 32 +
STACK CFI 24f90 .cfa: sp 0 +
STACK CFI INIT 24f94 ec .cfa: sp 0 +
STACK CFI 24f98 .cfa: sp 112 +
STACK CFI 24fa8 .cfa: x29 48 + x19: .cfa -8 + ^ x20: .cfa -16 + ^ x21: .cfa -32 + ^ .ra: .cfa -40 + ^ x29: .cfa -48 + ^
STACK CFI 25068 .cfa: sp 112 +
STACK CFI 25078 .cfa: sp 0 +
STACK CFI 2507c .cfa: x29 48 +
STACK CFI INIT 25080 ec .cfa: sp 0 +
STACK CFI 25084 .cfa: sp 112 +
STACK CFI 25094 .cfa: x29 48 + x19: .cfa -8 + ^ x20: .cfa -16 + ^ x21: .cfa -32 + ^ .ra: .cfa -40 + ^ x29: .cfa -48 + ^
STACK CFI 25154 .cfa: sp 112 +
STACK CFI 25164 .cfa: sp 0 +
STACK CFI 25168 .cfa: x29 48 +
STACK CFI INIT 2516c 48 .cfa: sp 0 +
STACK CFI 25170 .cfa: sp 32 +
STACK CFI 25178 .cfa: x29 32 + x19: .cfa -8 + ^ x20: .cfa -16 + ^ .ra: .cfa -24 + ^ x29: .cfa -32 + ^
STACK CFI 2519c .cfa: sp 32 +
STACK CFI 251a4 .cfa: sp 0 +
STACK CFI 251a8 .cfa: x29 32 +
STACK CFI INIT 251b4 98 .cfa: sp 0 +
STACK CFI 251b8 .cfa: sp 80 +
STACK CFI 251c4 .cfa: x29 32 + x19: .cfa -16 + ^ .ra: .cfa -24 + ^ x29: .cfa -32 + ^
STACK CFI 25238 .cfa: sp 80 +
STACK CFI 25244 .cfa: sp 0 +
STACK CFI 25248 .cfa: x29 32 +
STACK CFI INIT 2524c 260 .cfa: sp 0 +
STACK CFI 25250 .cfa: sp 112 +
STACK CFI 25268 .cfa: x29 80 + x19: .cfa -8 + ^ x20: .cfa -16 + ^ x21: .cfa -24 + ^ x22: .cfa -32 + ^ x23: .cfa -40 + ^ x24: .cfa -48 + ^ x25: .cfa -64 + ^ .ra: .cfa -72 + ^ x29: .cfa -80 + ^
STACK CFI 2544c .cfa: sp 112 +
STACK CFI 25464 .cfa: sp 0 +
STACK CFI 25468 .cfa: x29 80 +
STACK CFI INIT 254ac 150 .cfa: sp 0 +
STACK CFI 254b0 .cfa: sp 48 +
STACK CFI 254bc .cfa: x29 48 + x19: .cfa -8 + ^ x20: .cfa -16 + ^ x21: .cfa -24 + ^ x22: .cfa -32 + ^ .ra: .cfa -40 + ^ x29: .cfa -48 + ^
STACK CFI 255ec .cfa: sp 48 +
STACK CFI 255f8 .cfa: sp 0 +
STACK CFI INIT 255fc 1e0 .cfa: sp 0 +
STACK CFI 25600 .cfa: sp 96 +
STACK CFI 25614 .cfa: x29 64 + x19: .cfa -8 + ^ x20: .cfa -16 + ^ x21: .cfa -24 + ^ x22: .cfa -32 + ^ x23: .cfa -40 + ^ x24: .cfa -48 + ^ .ra: .cfa -56 + ^ x29: .cfa -64 + ^
STACK CFI 25794 .cfa: sp 96 +
STACK CFI 257a8 .cfa: sp 0 +
STACK CFI 257ac .cfa: x29 64 +
STACK CFI INIT 257dc 284 .cfa: sp 0 +
STACK CFI 257e0 .cfa: sp 112 +
STACK CFI 257f8 .cfa: x29 80 + x19: .cfa -8 + ^ x20: .cfa -16 + ^ x21: .cfa -24 + ^ x22: .cfa -32 + ^ x23: .cfa -40 + ^ x24: .cfa -48 + ^ x25: .cfa -64 + ^ .ra: .cfa -72 + ^ x29: .cfa -80 + ^
STACK CFI 25a00 .cfa: sp 112 +
STACK CFI 25a18 .cfa: sp 0 +
STACK CFI 25a1c .cfa: x29 80 +
STACK CFI INIT 25a60 208 .cfa: sp 0 +
STACK CFI 25a64 .cfa: sp 96 +
STACK CFI 25a78 .cfa: x29 64 + x19: .cfa -8 + ^ x20: .cfa -16 + ^ x21: .cfa -24 + ^ x22: .cfa -32 + ^ x23: .cfa -40 + ^ x24: .cfa -48 + ^ .ra: .cfa -56 + ^ x29: .cfa -64 + ^
STACK CFI 25c20 .cfa: sp 96 +
STACK CFI 25c34 .cfa: sp 0 +
STACK CFI 25c38 .cfa: x29 64 +
STACK CFI INIT 25c68 360 .cfa: sp 0 +
STACK CFI 25c6c .cfa: sp 160 +
STACK CFI 25c88 .cfa: x29 96 + x19: .cfa -8 + ^ x20: .cfa -16 + ^ x21: .cfa -24 + ^ x22: .cfa -32 + ^ x23: .cfa -40 + ^ x24: .cfa -48 + ^ x25: .cfa -56 + ^ x26: .cfa -64 + ^ x27: .cfa -72 + ^ x28: .cfa -80 + ^ .ra: .cfa -88 + ^ x29: .cfa -96 + ^
STACK CFI 25f54 .cfa: sp 160 +
STACK CFI 25f70 .cfa: sp 0 +
STACK CFI 25f74 .cfa: x29 96 +
STACK CFI INIT 25fc8 314 .cfa: sp 0 +
STACK CFI 25fcc .cfa: sp 144 +
STACK CFI 25fe8 .cfa: x29 96 + x19: .cfa -8 + ^ x20: .cfa -16 + ^ x21: .cfa -24 + ^ x22: .cfa -32 + ^ x23: .cfa -40 + ^ x24: .cfa -48 + ^ x25: .cfa -56 + ^ x26: .cfa -64 + ^ x27: .cfa -72 + ^ x28: .cfa -80 + ^ .ra: .cfa -88 + ^ x29: .cfa -96 + ^
STACK CFI 26264 .cfa: sp 144 +
STACK CFI 26280 .cfa: sp 0 +
STACK CFI 26284 .cfa: x29 96 +
STACK CFI INIT 262dc 2b4 .cfa: sp 0 +
STACK CFI 262e0 .cfa: sp 128 +
STACK CFI 262f8 .cfa: x29 80 + x19: .cfa -8 + ^ x20: .cfa -16 + ^ x21: .cfa -24 + ^ x22: .cfa -32 + ^ x23: .cfa -40 + ^ x24: .cfa -48 + ^ x25: .cfa -56 + ^ x26: .cfa -64 + ^ .ra: .cfa -72 + ^ x29: .cfa -80 + ^
STACK CFI 264ec .cfa: sp 128 +
STACK CFI 26504 .cfa: sp 0 +
STACK CFI 26508 .cfa: x29 80 +
STACK CFI 26570 .cfa: sp 128 +
STACK CFI 26588 .cfa: sp 0 +
STACK CFI 2658c .cfa: x29 80 +
STACK CFI INIT 26590 de0 .cfa: sp 0 +
STACK CFI 26594 .cfa: sp 144 +
STACK CFI 265b0 .cfa: x29 96 + x19: .cfa -8 + ^ x20: .cfa -16 + ^ x21: .cfa -24 + ^ x22: .cfa -32 + ^ x23: .cfa -40 + ^ x24: .cfa -48 + ^ x25: .cfa -56 + ^ x26: .cfa -64 + ^ x27: .cfa -72 + ^ x28: .cfa -80 + ^ .ra: .cfa -88 + ^ x29: .cfa -96 + ^
STACK CFI 27248 .cfa: sp 144 +
STACK CFI 27264 .cfa: sp 0 +
STACK CFI 27268 .cfa: x29 96 +
STACK CFI INIT 27370 264 .cfa: sp 0 +
STACK CFI 27374 .cfa: sp 112 +
STACK CFI 27388 .cfa: x29 64 + x19: .cfa -8 + ^ x20: .cfa -16 + ^ x21: .cfa -24 + ^ x22: .cfa -32 + ^ x23: .cfa -40 + ^ x24: .cfa -48 + ^ .ra: .cfa -56 + ^ x29: .cfa -64 + ^
STACK CFI 27504 .cfa: sp 112 +
STACK CFI 27518 .cfa: sp 0 +
STACK CFI 2751c .cfa: x29 64 +
STACK CFI 2758c .cfa: sp 112 +
STACK CFI 275a0 .cfa: sp 0 +
STACK CFI 275a4 .cfa: x29 64 +
STACK CFI INIT 275d4 258 .cfa: sp 0 +
STACK CFI 275d8 .cfa: sp 96 +
STACK CFI 275f0 .cfa: x29 96 + x19: .cfa -8 + ^ x20: .cfa -16 + ^ x21: .cfa -24 + ^ x22: .cfa -32 + ^ x23: .cfa -40 + ^ x24: .cfa -48 + ^ x25: .cfa -56 + ^ x26: .cfa -64 + ^ x27: .cfa -72 + ^ x28: .cfa -80 + ^ .ra: .cfa -88 + ^ x29: .cfa -96 + ^
STACK CFI 277e8 .cfa: sp 96 +
STACK CFI 27800 .cfa: sp 0 +
STACK CFI 27804 .cfa: x29 96 +
STACK CFI 27810 .cfa: sp 96 +
STACK CFI 27828 .cfa: sp 0 +
STACK CFI INIT 284b0 154 .cfa: sp 0 +
STACK CFI 284b4 .cfa: sp 96 +
STACK CFI 284c8 .cfa: x29 64 + x19: .cfa -8 + ^ x20: .cfa -16 + ^ x21: .cfa -24 + ^ x22: .cfa -32 + ^ x23: .cfa -48 + ^ .ra: .cfa -56 + ^ x29: .cfa -64 + ^
STACK CFI 285a8 .cfa: sp 96 +
STACK CFI 285bc .cfa: sp 0 +
STACK CFI 285c0 .cfa: x29 64 +
STACK CFI INIT 28870 44 .cfa: sp 0 +
STACK CFI 28874 .cfa: sp 32 +
STACK CFI 2887c .cfa: x29 32 + x19: .cfa -16 + ^ .ra: .cfa -24 + ^ x29: .cfa -32 + ^
STACK CFI 28898 .cfa: sp 32 +
STACK CFI 288a0 .cfa: sp 0 +
STACK CFI 288a4 .cfa: x29 32 +
STACK CFI 288a8 .cfa: sp 32 +
STACK CFI 288b0 .cfa: sp 0 +
STACK CFI INIT 288b4 1d0 .cfa: sp 0 +
STACK CFI 288b8 .cfa: sp 64 +
STACK CFI 288c8 .cfa: x29 64 + x19: .cfa -8 + ^ x20: .cfa -16 + ^ x21: .cfa -24 + ^ x22: .cfa -32 + ^ x23: .cfa -40 + ^ x24: .cfa -48 + ^ .ra: .cfa -56 + ^ x29: .cfa -64 + ^
STACK CFI 28988 .cfa: sp 64 +
STACK CFI 28998 .cfa: sp 0 +
STACK CFI 2899c .cfa: x29 64 +
STACK CFI INIT 28a84 17c .cfa: sp 0 +
STACK CFI INIT 28c00 ac .cfa: sp 0 +
STACK CFI 28c04 .cfa: sp 64 +
STACK CFI 28c14 .cfa: x29 64 + x19: .cfa -8 + ^ x20: .cfa -16 + ^ x21: .cfa -24 + ^ x22: .cfa -32 + ^ x23: .cfa -48 + ^ .ra: .cfa -56 + ^ x29: .cfa -64 + ^
STACK CFI 28c90 .cfa: sp 64 +
STACK CFI 28ca0 .cfa: sp 0 +
STACK CFI 28ca4 .cfa: x29 64 +
STACK CFI INIT 28cac 110 .cfa: sp 0 +
STACK CFI 28cb0 .cfa: sp 64 +
STACK CFI 28cc0 .cfa: x29 64 + x19: .cfa -8 + ^ x20: .cfa -16 + ^ x21: .cfa -24 + ^ x22: .cfa -32 + ^ x23: .cfa -40 + ^ x24: .cfa -48 + ^ .ra: .cfa -56 + ^ x29: .cfa -64 + ^
STACK CFI 28da0 .cfa: sp 64 +
STACK CFI 28db0 .cfa: sp 0 +
STACK CFI 28db4 .cfa: x29 64 +
STACK CFI INIT 29174 a0 .cfa: sp 0 +
STACK CFI 29178 .cfa: sp 48 +
STACK CFI 29184 .cfa: x29 48 + x19: .cfa -8 + ^ x20: .cfa -16 + ^ x21: .cfa -24 + ^ x22: .cfa -32 + ^ .ra: .cfa -40 + ^ x29: .cfa -48 + ^
STACK CFI 291f0 .cfa: sp 48 +
STACK CFI 291fc .cfa: sp 0 +
STACK CFI 29200 .cfa: sp 48 +
STACK CFI 2920c .cfa: sp 0 +
STACK CFI 29210 .cfa: x29 48 +
STACK CFI INIT 29ed4 158 .cfa: sp 0 +
STACK CFI 29ed8 .cfa: sp 96 +
STACK CFI 29eec .cfa: x29 64 + x19: .cfa -8 + ^ x20: .cfa -16 + ^ x21: .cfa -24 + ^ x22: .cfa -32 + ^ x23: .cfa -48 + ^ .ra: .cfa -56 + ^ x29: .cfa -64 + ^
STACK CFI 29fd0 .cfa: sp 96 +
STACK CFI 29fe4 .cfa: sp 0 +
STACK CFI 29fe8 .cfa: x29 64 +
STACK CFI INIT 2a02c 190 .cfa: sp 0 +
STACK CFI INIT 2acb4 1f4 .cfa: sp 0 +
STACK CFI 2acb8 .cfa: sp 80 +
STACK CFI 2accc .cfa: x29 80 + x19: .cfa -8 + ^ x20: .cfa -16 + ^ x21: .cfa -24 + ^ x22: .cfa -32 + ^ x23: .cfa -40 + ^ x24: .cfa -48 + ^ x25: .cfa -64 + ^ .ra: .cfa -72 + ^ x29: .cfa -80 + ^
STACK CFI 2ae6c .cfa: sp 80 +
STACK CFI 2ae80 .cfa: sp 0 +
STACK CFI 2ae84 .cfa: x29 80 +
STACK CFI 2ae90 .cfa: sp 80 +
STACK CFI 2aea4 .cfa: sp 0 +
STACK CFI INIT 2c2d8 124 .cfa: sp 0 +
STACK CFI 2c308 .cfa: sp 32 +
STACK CFI 2c310 .cfa: x29 32 + x19: .cfa -8 + ^ x20: .cfa -16 + ^ .ra: .cfa -24 + ^ x29: .cfa -32 + ^
STACK CFI 2c3f0 .cfa: sp 32 +
STACK CFI 2c3f8 .cfa: sp 0 +
STACK CFI INIT 2cb58 320 .cfa: sp 0 +
STACK CFI 2cb5c .cfa: sp 64 +
STACK CFI 2cb6c .cfa: x29 64 + x19: .cfa -8 + ^ x20: .cfa -16 + ^ x21: .cfa -24 + ^ x22: .cfa -32 + ^ x23: .cfa -40 + ^ x24: .cfa -48 + ^ .ra: .cfa -56 + ^ x29: .cfa -64 + ^
STACK CFI 2cbe8 .cfa: sp 64 +
STACK CFI 2cbf8 .cfa: sp 0 +
STACK CFI 2cbfc .cfa: x29 64 +
STACK CFI 2cdd0 .cfa: sp 64 +
STACK CFI 2cde0 .cfa: sp 0 +
STACK CFI 2cde4 .cfa: x29 64 +
STACK CFI 2cdf4 .cfa: sp 64 +
STACK CFI 2ce04 .cfa: sp 0 +
STACK CFI 2ce08 .cfa: x29 64 +
STACK CFI INIT 2ce78 a0 .cfa: sp 0 +
STACK CFI 2ce7c .cfa: sp 48 +
STACK CFI 2ce88 .cfa: x29 48 + x19: .cfa -8 + ^ x20: .cfa -16 + ^ x21: .cfa -24 + ^ x22: .cfa -32 + ^ .ra: .cfa -40 + ^ x29: .cfa -48 + ^
STACK CFI 2cef4 .cfa: sp 48 +
STACK CFI 2cf00 .cfa: sp 0 +
STACK CFI 2cf04 .cfa: sp 48 +
STACK CFI 2cf10 .cfa: sp 0 +
STACK CFI 2cf14 .cfa: x29 48 +
STACK CFI INIT 2ddf8 160 .cfa: sp 0 +
STACK CFI 2ddfc .cfa: sp 64 +
STACK CFI 2de0c .cfa: x29 64 + x19: .cfa -8 + ^ x20: .cfa -16 + ^ x21: .cfa -24 + ^ x22: .cfa -32 + ^ x23: .cfa -48 + ^ .ra: .cfa -56 + ^ x29: .cfa -64 + ^
STACK CFI 2df04 .cfa: sp 64 +
STACK CFI 2df14 .cfa: sp 0 +
STACK CFI 2df18 .cfa: x29 64 +
STACK CFI INIT 2df58 214 .cfa: sp 0 +
STACK CFI 2df5c .cfa: sp 128 +
STACK CFI 2df78 .cfa: x29 96 + x19: .cfa -8 + ^ x20: .cfa -16 + ^ x21: .cfa -24 + ^ x22: .cfa -32 + ^ x23: .cfa -40 + ^ x24: .cfa -48 + ^ x25: .cfa -56 + ^ x26: .cfa -64 + ^ x27: .cfa -80 + ^ .ra: .cfa -88 + ^ x29: .cfa -96 + ^
STACK CFI 2e0f4 .cfa: sp 128 +
STACK CFI 2e110 .cfa: sp 0 +
STACK CFI 2e114 .cfa: x29 96 +
STACK CFI INIT 2fc50 e60 .cfa: sp 0 +
STACK CFI 2fc54 .cfa: sp 192 +
STACK CFI 2fc70 .cfa: x29 96 + x19: .cfa -8 + ^ x20: .cfa -16 + ^ x21: .cfa -24 + ^ x22: .cfa -32 + ^ x23: .cfa -40 + ^ x24: .cfa -48 + ^ x25: .cfa -56 + ^ x26: .cfa -64 + ^ x27: .cfa -72 + ^ x28: .cfa -80 + ^ .ra: .cfa -88 + ^ x29: .cfa -96 + ^
STACK CFI 30998 .cfa: sp 192 +
STACK CFI 309b4 .cfa: sp 0 +
STACK CFI 309b8 .cfa: x29 96 +
STACK CFI INIT 30ab0 1090 .cfa: sp 0 +
STACK CFI 30ab4 .cfa: sp 288 +
STACK CFI 30ad0 .cfa: x29 96 + x19: .cfa -8 + ^ x20: .cfa -16 + ^ x21: .cfa -24 + ^ x22: .cfa -32 + ^ x23: .cfa -40 + ^ x24: .cfa -48 + ^ x25: .cfa -56 + ^ x26: .cfa -64 + ^ x27: .cfa -72 + ^ x28: .cfa -80 + ^ .ra: .cfa -88 + ^ x29: .cfa -96 + ^
STACK CFI 31888 .cfa: sp 288 +
STACK CFI 318a4 .cfa: sp 0 +
STACK CFI 318a8 .cfa: x29 96 +
STACK CFI INIT 31b40 520 .cfa: sp 0 +
STACK CFI 31b44 .cfa: sp 144 +
STACK CFI 31b60 .cfa: x29 96 + x19: .cfa -8 + ^ x20: .cfa -16 + ^ x21: .cfa -24 + ^ x22: .cfa -32 + ^ x23: .cfa -40 + ^ x24: .cfa -48 + ^ x25: .cfa -56 + ^ x26: .cfa -64 + ^ x27: .cfa -72 + ^ x28: .cfa -80 + ^ .ra: .cfa -88 + ^ x29: .cfa -96 + ^
STACK CFI 3203c .cfa: sp 144 +
STACK CFI 32058 .cfa: sp 0 +
STACK CFI 3205c .cfa: x29 96 +
STACK CFI INIT 13e88 484 .cfa: sp 0 +
STACK CFI 13e8c .cfa: sp 224 +
STACK CFI 13ea8 .cfa: x29 96 + x19: .cfa -8 + ^ x20: .cfa -16 + ^ x21: .cfa -24 + ^ x22: .cfa -32 + ^ x23: .cfa -40 + ^ x24: .cfa -48 + ^ x25: .cfa -56 + ^ x26: .cfa -64 + ^ x27: .cfa -72 + ^ x28: .cfa -80 + ^ .ra: .cfa -88 + ^ x29: .cfa -96 + ^
STACK CFI 14118 .cfa: sp 224 +
STACK CFI 14134 .cfa: sp 0 +
STACK CFI 14138 .cfa: x29 96 +
STACK CFI 14204 .cfa: sp 224 +
STACK CFI 14220 .cfa: sp 0 +
STACK CFI 14224 .cfa: x29 96 +
STACK CFI INIT 14324 484 .cfa: sp 0 +
STACK CFI 14328 .cfa: sp 224 +
STACK CFI 14344 .cfa: x29 96 + x19: .cfa -8 + ^ x20: .cfa -16 + ^ x21: .cfa -24 + ^ x22: .cfa -32 + ^ x23: .cfa -40 + ^ x24: .cfa -48 + ^ x25: .cfa -56 + ^ x26: .cfa -64 + ^ x27: .cfa -72 + ^ x28: .cfa -80 + ^ .ra: .cfa -88 + ^ x29: .cfa -96 + ^
STACK CFI 145b4 .cfa: sp 224 +
STACK CFI 145d0 .cfa: sp 0 +
STACK CFI 145d4 .cfa: x29 96 +
STACK CFI 146a0 .cfa: sp 224 +
STACK CFI 146bc .cfa: sp 0 +
STACK CFI 146c0 .cfa: x29 96 +
STACK CFI INIT 147c0 484 .cfa: sp 0 +
STACK CFI 147c4 .cfa: sp 224 +
STACK CFI 147e0 .cfa: x29 96 + x19: .cfa -8 + ^ x20: .cfa -16 + ^ x21: .cfa -24 + ^ x22: .cfa -32 + ^ x23: .cfa -40 + ^ x24: .cfa -48 + ^ x25: .cfa -56 + ^ x26: .cfa -64 + ^ x27: .cfa -72 + ^ x28: .cfa -80 + ^ .ra: .cfa -88 + ^ x29: .cfa -96 + ^
STACK CFI 14a50 .cfa: sp 224 +
STACK CFI 14a6c .cfa: sp 0 +
STACK CFI 14a70 .cfa: x29 96 +
STACK CFI 14b3c .cfa: sp 224 +
STACK CFI 14b58 .cfa: sp 0 +
STACK CFI 14b5c .cfa: x29 96 +
STACK CFI INIT 14c5c 484 .cfa: sp 0 +
STACK CFI 14c60 .cfa: sp 224 +
STACK CFI 14c7c .cfa: x29 96 + x19: .cfa -8 + ^ x20: .cfa -16 + ^ x21: .cfa -24 + ^ x22: .cfa -32 + ^ x23: .cfa -40 + ^ x24: .cfa -48 + ^ x25: .cfa -56 + ^ x26: .cfa -64 + ^ x27: .cfa -72 + ^ x28: .cfa -80 + ^ .ra: .cfa -88 + ^ x29: .cfa -96 + ^
STACK CFI 14eec .cfa: sp 224 +
STACK CFI 14f08 .cfa: sp 0 +
STACK CFI 14f0c .cfa: x29 96 +
STACK CFI 14fd8 .cfa: sp 224 +
STACK CFI 14ff4 .cfa: sp 0 +
STACK CFI 14ff8 .cfa: x29 96 +
STACK CFI INIT 1510c 50 .cfa: sp 0 +
STACK CFI 15110 .cfa: sp 32 +
STACK CFI 15118 .cfa: x29 32 + x19: .cfa -8 + ^ x20: .cfa -16 + ^ .ra: .cfa -24 + ^ x29: .cfa -32 + ^
STACK CFI INIT 15288 13c .cfa: sp 0 +
STACK CFI 1528c .cfa: sp 48 +
STACK CFI 15298 .cfa: x29 48 + x19: .cfa -8 + ^ x20: .cfa -16 + ^ x21: .cfa -24 + ^ x22: .cfa -32 + ^ .ra: .cfa -40 + ^ x29: .cfa -48 + ^
STACK CFI 1538c .cfa: sp 48 +
STACK CFI 15398 .cfa: sp 0 +
STACK CFI 1539c .cfa: x29 48 +
STACK CFI INIT 15660 868 .cfa: sp 0 +
STACK CFI 15664 .cfa: sp 128 +
STACK CFI 15680 .cfa: x29 96 + x19: .cfa -8 + ^ x20: .cfa -16 + ^ x21: .cfa -24 + ^ x22: .cfa -32 + ^ x23: .cfa -40 + ^ x24: .cfa -48 + ^ x25: .cfa -56 + ^ x26: .cfa -64 + ^ x27: .cfa -72 + ^ x28: .cfa -80 + ^ .ra: .cfa -88 + ^ x29: .cfa -96 + ^
STACK CFI 15e7c .cfa: sp 128 +
STACK CFI 15e98 .cfa: sp 0 +
STACK CFI 15e9c .cfa: x29 96 +
STACK CFI INIT 15ffc 358 .cfa: sp 0 +
STACK CFI 16000 .cfa: sp 208 +
STACK CFI 16014 .cfa: x29 64 + x19: .cfa -8 + ^ x20: .cfa -16 + ^ x21: .cfa -24 + ^ x22: .cfa -32 + ^ x23: .cfa -48 + ^ .ra: .cfa -56 + ^ x29: .cfa -64 + ^
STACK CFI 16230 .cfa: sp 208 +
STACK CFI 16244 .cfa: sp 0 +
STACK CFI 16248 .cfa: x29 64 +
STACK CFI INIT 163a4 74 .cfa: sp 0 +
STACK CFI 163a8 .cfa: sp 48 +
STACK CFI 163b4 .cfa: x29 32 + x19: .cfa -8 + ^ x20: .cfa -16 + ^ .ra: .cfa -24 + ^ x29: .cfa -32 + ^
STACK CFI 16400 .cfa: sp 48 +
STACK CFI 1640c .cfa: sp 0 +
STACK CFI 16410 .cfa: x29 32 +
STACK CFI INIT 16498 154 .cfa: sp 0 +
STACK CFI 1649c .cfa: sp 384 +
STACK CFI 164b0 .cfa: x29 64 + x19: .cfa -8 + ^ x20: .cfa -16 + ^ x21: .cfa -24 + ^ x22: .cfa -32 + ^ x23: .cfa -40 + ^ x28: .cfa -48 + ^ .ra: .cfa -56 + ^ x29: .cfa -64 + ^
STACK CFI 16594 .cfa: sp 384 +
STACK CFI 165a8 .cfa: sp 0 +
STACK CFI 165ac .cfa: x29 64 +
STACK CFI INIT 16620 12c .cfa: sp 0 +
STACK CFI 16624 .cfa: sp 80 +
STACK CFI 16638 .cfa: x29 80 + x19: .cfa -8 + ^ x20: .cfa -16 + ^ x21: .cfa -24 + ^ x22: .cfa -32 + ^ x23: .cfa -40 + ^ x24: .cfa -48 + ^ x25: .cfa -56 + ^ x26: .cfa -64 + ^ .ra: .cfa -72 + ^ x29: .cfa -80 + ^
STACK CFI 16700 .cfa: sp 80 +
STACK CFI 16714 .cfa: sp 0 +
STACK CFI 16718 .cfa: x29 80 +
STACK CFI INIT 167f0 1a4 .cfa: sp 0 +
STACK CFI 167f4 .cfa: sp 112 +
STACK CFI 1680c .cfa: x29 80 + x19: .cfa -8 + ^ x20: .cfa -16 + ^ x21: .cfa -24 + ^ x22: .cfa -32 + ^ x23: .cfa -40 + ^ x24: .cfa -48 + ^ x25: .cfa -56 + ^ x26: .cfa -64 + ^ .ra: .cfa -72 + ^ x29: .cfa -80 + ^
STACK CFI 168fc .cfa: sp 112 +
STACK CFI 16914 .cfa: sp 0 +
STACK CFI 16918 .cfa: x29 80 +
STACK CFI INIT 16994 1dc .cfa: sp 0 +
STACK CFI 16998 .cfa: sp 128 +
STACK CFI 169b4 .cfa: x29 96 + x19: .cfa -8 + ^ x20: .cfa -16 + ^ x21: .cfa -24 + ^ x22: .cfa -32 + ^ x23: .cfa -40 + ^ x24: .cfa -48 + ^ x25: .cfa -56 + ^ x26: .cfa -64 + ^ x27: .cfa -80 + ^ .ra: .cfa -88 + ^ x29: .cfa -96 + ^
STACK CFI 16b20 .cfa: sp 128 +
STACK CFI 16b3c .cfa: sp 0 +
STACK CFI 16b40 .cfa: x29 96 +
STACK CFI INIT 16b70 178 .cfa: sp 0 +
STACK CFI 16b74 .cfa: sp 80 +
STACK CFI 16b88 .cfa: x29 80 + x19: .cfa -8 + ^ x20: .cfa -16 + ^ x21: .cfa -24 + ^ x22: .cfa -32 + ^ x23: .cfa -40 + ^ x24: .cfa -48 + ^ x25: .cfa -64 + ^ .ra: .cfa -72 + ^ x29: .cfa -80 + ^
STACK CFI 16cb4 .cfa: sp 80 +
STACK CFI 16cc8 .cfa: sp 0 +
STACK CFI 16ccc .cfa: x29 80 +
STACK CFI INIT 16e30 224 .cfa: sp 0 +
STACK CFI 16e34 .cfa: sp 128 +
STACK CFI 16e4c .cfa: x29 80 + x19: .cfa -8 + ^ x20: .cfa -16 + ^ x21: .cfa -24 + ^ x22: .cfa -32 + ^ x23: .cfa -40 + ^ x24: .cfa -48 + ^ x25: .cfa -64 + ^ .ra: .cfa -72 + ^ x29: .cfa -80 + ^
STACK CFI 16fe8 .cfa: sp 128 +
STACK CFI 17000 .cfa: sp 0 +
STACK CFI 17004 .cfa: x29 80 +
STACK CFI INIT 17730 150 .cfa: sp 0 +
STACK CFI 17734 .cfa: sp 80 +
STACK CFI 17744 .cfa: x29 48 + x19: .cfa -8 + ^ x20: .cfa -16 + ^ x21: .cfa -24 + ^ x22: .cfa -32 + ^ .ra: .cfa -40 + ^ x29: .cfa -48 + ^
STACK CFI 1783c .cfa: sp 80 +
STACK CFI 1784c .cfa: sp 0 +
STACK CFI 17850 .cfa: x29 48 +
STACK CFI INIT 17948 1b0 .cfa: sp 0 +
STACK CFI 1794c .cfa: sp 208 +
STACK CFI 17960 .cfa: x29 64 + x19: .cfa -8 + ^ x20: .cfa -16 + ^ x21: .cfa -24 + ^ x22: .cfa -32 + ^ x23: .cfa -48 + ^ .ra: .cfa -56 + ^ x29: .cfa -64 + ^
STACK CFI 17ab4 .cfa: sp 208 +
STACK CFI 17ac8 .cfa: sp 0 +
STACK CFI 17acc .cfa: x29 64 +
STACK CFI INIT 17af8 200 .cfa: sp 0 +
STACK CFI 17afc .cfa: sp 176 +
STACK CFI 17b10 .cfa: x29 64 + x19: .cfa -8 + ^ x20: .cfa -16 + ^ x21: .cfa -24 + ^ x22: .cfa -32 + ^ x23: .cfa -40 + ^ x24: .cfa -48 + ^ .ra: .cfa -56 + ^ x29: .cfa -64 + ^
STACK CFI 17c58 .cfa: sp 176 +
STACK CFI 17c6c .cfa: sp 0 +
STACK CFI 17c70 .cfa: x29 64 +
STACK CFI INIT 17d48 21c .cfa: sp 0 +
STACK CFI 17d4c .cfa: sp 112 +
STACK CFI 17d5c .cfa: x29 48 + x19: .cfa -8 + ^ x20: .cfa -16 + ^ x21: .cfa -24 + ^ x22: .cfa -32 + ^ .ra: .cfa -40 + ^ x29: .cfa -48 + ^
STACK CFI 17e60 .cfa: sp 112 +
STACK CFI 17e70 .cfa: sp 0 +
STACK CFI 17e74 .cfa: x29 48 +
STACK CFI INIT 17f64 444 .cfa: sp 0 +
STACK CFI 17f68 .cfa: sp 176 +
STACK CFI 17f84 .cfa: x29 96 + x19: .cfa -8 + ^ x20: .cfa -16 + ^ x21: .cfa -24 + ^ x22: .cfa -32 + ^ x23: .cfa -40 + ^ x24: .cfa -48 + ^ x25: .cfa -56 + ^ x26: .cfa -64 + ^ x27: .cfa -72 + ^ x28: .cfa -80 + ^ .ra: .cfa -88 + ^ x29: .cfa -96 + ^
STACK CFI 17fc4 .cfa: sp 176 +
STACK CFI 17fe0 .cfa: sp 0 +
STACK CFI 17fe4 .cfa: x29 96 +
STACK CFI INIT 183a8 10c .cfa: sp 0 +
STACK CFI 183ac .cfa: sp 64 +
STACK CFI 183bc .cfa: x29 64 + x19: .cfa -8 + ^ x20: .cfa -16 + ^ x21: .cfa -24 + ^ x22: .cfa -32 + ^ x23: .cfa -48 + ^ .ra: .cfa -56 + ^ x29: .cfa -64 + ^
STACK CFI 18494 .cfa: sp 64 +
STACK CFI 184a4 .cfa: sp 0 +
STACK CFI 184a8 .cfa: x29 64 +
STACK CFI INIT 18584 50 .cfa: sp 0 +
STACK CFI 18588 .cfa: sp 32 +
STACK CFI 18590 .cfa: x29 32 + x19: .cfa -8 + ^ x20: .cfa -16 + ^ .ra: .cfa -24 + ^ x29: .cfa -32 + ^
STACK CFI INIT 186b0 1ac .cfa: sp 0 +
STACK CFI 186b4 .cfa: sp 128 +
STACK CFI 186c4 .cfa: x29 48 + x19: .cfa -8 + ^ x20: .cfa -16 + ^ x21: .cfa -24 + ^ x22: .cfa -32 + ^ .ra: .cfa -40 + ^ x29: .cfa -48 + ^
STACK CFI 187e0 .cfa: sp 128 +
STACK CFI 187f0 .cfa: sp 0 +
STACK CFI 187f4 .cfa: x29 48 +
STACK CFI INIT 18ae8 204 .cfa: sp 0 +
STACK CFI 18aec .cfa: sp 128 +
STACK CFI 18b00 .cfa: x29 64 + x19: .cfa -8 + ^ x20: .cfa -16 + ^ x21: .cfa -24 + ^ x22: .cfa -32 + ^ x23: .cfa -40 + ^ x24: .cfa -48 + ^ .ra: .cfa -56 + ^ x29: .cfa -64 + ^
STACK CFI 18c24 .cfa: sp 128 +
STACK CFI 18c38 .cfa: sp 0 +
STACK CFI 18c3c .cfa: x29 64 +
STACK CFI INIT 18fa8 1d0 .cfa: sp 0 +
STACK CFI 18fac .cfa: sp 128 +
STACK CFI 18fc0 .cfa: x29 64 + x19: .cfa -8 + ^ x20: .cfa -16 + ^ x21: .cfa -24 + ^ x22: .cfa -32 + ^ x23: .cfa -48 + ^ .ra: .cfa -56 + ^ x29: .cfa -64 + ^
STACK CFI 19138 .cfa: sp 128 +
STACK CFI 1914c .cfa: sp 0 +
STACK CFI 19150 .cfa: x29 64 +
STACK CFI INIT 1948c 1c4 .cfa: sp 0 +
STACK CFI 19490 .cfa: sp 112 +
STACK CFI 194a0 .cfa: x29 48 + x19: .cfa -8 + ^ x20: .cfa -16 + ^ x21: .cfa -24 + ^ x22: .cfa -32 + ^ .ra: .cfa -40 + ^ x29: .cfa -48 + ^
STACK CFI 19614 .cfa: sp 112 +
STACK CFI 19624 .cfa: sp 0 +
STACK CFI 19628 .cfa: x29 48 +
STACK CFI INIT 19678 198 .cfa: sp 0 +
STACK CFI 1967c .cfa: sp 96 +
STACK CFI 1968c .cfa: x29 48 + x19: .cfa -8 + ^ x20: .cfa -16 + ^ x21: .cfa -32 + ^ .ra: .cfa -40 + ^ x29: .cfa -48 + ^
STACK CFI 19768 .cfa: sp 96 +
STACK CFI 19778 .cfa: sp 0 +
STACK CFI 1977c .cfa: x29 48 +
STACK CFI INIT 198a0 5bc .cfa: sp 0 +
STACK CFI 198a4 .cfa: sp 304 +
STACK CFI 198bc .cfa: x29 80 + x19: .cfa -8 + ^ x20: .cfa -16 + ^ x21: .cfa -24 + ^ x22: .cfa -32 + ^ x23: .cfa -40 + ^ x24: .cfa -48 + ^ x28: .cfa -64 + ^ .ra: .cfa -72 + ^ x29: .cfa -80 + ^
STACK CFI 19c80 .cfa: sp 304 +
STACK CFI 19c98 .cfa: sp 0 +
STACK CFI 19c9c .cfa: x29 80 +
STACK CFI INIT 19e5c 168 .cfa: sp 0 +
STACK CFI 19e60 .cfa: sp 384 +
STACK CFI 19e74 .cfa: x29 64 + x19: .cfa -8 + ^ x20: .cfa -16 + ^ x21: .cfa -24 + ^ x22: .cfa -32 + ^ x23: .cfa -40 + ^ x28: .cfa -48 + ^ .ra: .cfa -56 + ^ x29: .cfa -64 + ^
STACK CFI 19f6c .cfa: sp 384 +
STACK CFI 19f80 .cfa: sp 0 +
STACK CFI 19f84 .cfa: x29 64 +
STACK CFI INIT 1a03c 80 .cfa: sp 0 +
STACK CFI 1a040 .cfa: sp 32 +
STACK CFI 1a048 .cfa: x29 32 + x19: .cfa -8 + ^ x20: .cfa -16 + ^ .ra: .cfa -24 + ^ x29: .cfa -32 + ^
STACK CFI 1a084 .cfa: sp 32 +
STACK CFI 1a08c .cfa: sp 0 +
STACK CFI 1a090 .cfa: x29 32 +
STACK CFI 1a09c .cfa: sp 32 +
STACK CFI 1a0a4 .cfa: sp 0 +
STACK CFI 1a0a8 .cfa: x29 32 +
STACK CFI INIT 1a17c 20c .cfa: sp 0 +
STACK CFI 1a180 .cfa: sp 400 +
STACK CFI 1a194 .cfa: x29 64 + x19: .cfa -8 + ^ x20: .cfa -16 + ^ x21: .cfa -24 + ^ x22: .cfa -32 + ^ x23: .cfa -40 + ^ x28: .cfa -48 + ^ .ra: .cfa -56 + ^ x29: .cfa -64 + ^
STACK CFI 1a318 .cfa: sp 400 +
STACK CFI 1a32c .cfa: sp 0 +
STACK CFI 1a330 .cfa: x29 64 +
STACK CFI INIT 1a388 1fc .cfa: sp 0 +
STACK CFI 1a38c .cfa: sp 160 +
STACK CFI 1a3a4 .cfa: x29 80 + x19: .cfa -8 + ^ x20: .cfa -16 + ^ x21: .cfa -24 + ^ x22: .cfa -32 + ^ x23: .cfa -40 + ^ x24: .cfa -48 + ^ x25: .cfa -64 + ^ .ra: .cfa -72 + ^ x29: .cfa -80 + ^
STACK CFI 1a4d4 .cfa: sp 160 +
STACK CFI 1a4ec .cfa: sp 0 +
STACK CFI 1a4f0 .cfa: x29 80 +
STACK CFI INIT 1a89c 39c .cfa: sp 0 +
STACK CFI 1a8a0 .cfa: sp 224 +
STACK CFI 1a8b4 .cfa: x29 64 + x19: .cfa -8 + ^ x20: .cfa -16 + ^ x21: .cfa -24 + ^ x22: .cfa -32 + ^ x23: .cfa -48 + ^ .ra: .cfa -56 + ^ x29: .cfa -64 + ^
STACK CFI 1ab08 .cfa: sp 224 +
STACK CFI 1ab1c .cfa: sp 0 +
STACK CFI 1ab20 .cfa: x29 64 +
STACK CFI INIT 1ac3c 150 .cfa: sp 0 +
STACK CFI 1ac40 .cfa: sp 80 +
STACK CFI 1ac50 .cfa: x29 48 + x19: .cfa -8 + ^ x20: .cfa -16 + ^ x21: .cfa -24 + ^ x22: .cfa -32 + ^ .ra: .cfa -40 + ^ x29: .cfa -48 + ^
STACK CFI 1ad48 .cfa: sp 80 +
STACK CFI 1ad58 .cfa: sp 0 +
STACK CFI 1ad5c .cfa: x29 48 +
STACK CFI INIT 1ad8c 1b0 .cfa: sp 0 +
STACK CFI 1ad90 .cfa: sp 208 +
STACK CFI 1ada4 .cfa: x29 64 + x19: .cfa -8 + ^ x20: .cfa -16 + ^ x21: .cfa -24 + ^ x22: .cfa -32 + ^ x23: .cfa -48 + ^ .ra: .cfa -56 + ^ x29: .cfa -64 + ^
STACK CFI 1aef8 .cfa: sp 208 +
STACK CFI 1af0c .cfa: sp 0 +
STACK CFI 1af10 .cfa: x29 64 +
STACK CFI INIT 1af3c 220 .cfa: sp 0 +
STACK CFI 1af40 .cfa: sp 112 +
STACK CFI 1af50 .cfa: x29 48 + x19: .cfa -8 + ^ x20: .cfa -16 + ^ x21: .cfa -24 + ^ x22: .cfa -32 + ^ .ra: .cfa -40 + ^ x29: .cfa -48 + ^
STACK CFI 1b05c .cfa: sp 112 +
STACK CFI 1b06c .cfa: sp 0 +
STACK CFI 1b070 .cfa: x29 48 +
STACK CFI INIT 1b288 36c .cfa: sp 0 +
STACK CFI 1b28c .cfa: sp 240 +
STACK CFI 1b2a0 .cfa: x29 64 + x19: .cfa -8 + ^ x20: .cfa -16 + ^ x21: .cfa -24 + ^ x22: .cfa -32 + ^ x23: .cfa -40 + ^ x24: .cfa -48 + ^ .ra: .cfa -56 + ^ x29: .cfa -64 + ^
STACK CFI 1b4c8 .cfa: sp 240 +
STACK CFI 1b4dc .cfa: sp 0 +
STACK CFI 1b4e0 .cfa: x29 64 +
STACK CFI INIT 1b5f8 1a4 .cfa: sp 0 +
STACK CFI 1b5fc .cfa: sp 96 +
STACK CFI 1b610 .cfa: x29 64 + x19: .cfa -8 + ^ x20: .cfa -16 + ^ x21: .cfa -24 + ^ x22: .cfa -32 + ^ x23: .cfa -48 + ^ .ra: .cfa -56 + ^ x29: .cfa -64 + ^
STACK CFI 1b754 .cfa: sp 96 +
STACK CFI 1b768 .cfa: sp 0 +
STACK CFI 1b76c .cfa: x29 64 +
STACK CFI INIT 1b79c 264 .cfa: sp 0 +
STACK CFI 1b7a0 .cfa: sp 208 +
STACK CFI 1b7b4 .cfa: x29 64 + x19: .cfa -8 + ^ x20: .cfa -16 + ^ x21: .cfa -24 + ^ x22: .cfa -32 + ^ x23: .cfa -40 + ^ x24: .cfa -48 + ^ .ra: .cfa -56 + ^ x29: .cfa -64 + ^
STACK CFI 1b9b8 .cfa: sp 208 +
STACK CFI 1b9cc .cfa: sp 0 +
STACK CFI 1b9d0 .cfa: x29 64 +
STACK CFI INIT 1ba50 21c .cfa: sp 0 +
STACK CFI 1ba54 .cfa: sp 112 +
STACK CFI 1ba64 .cfa: x29 48 + x19: .cfa -8 + ^ x20: .cfa -16 + ^ x21: .cfa -24 + ^ x22: .cfa -32 + ^ .ra: .cfa -40 + ^ x29: .cfa -48 + ^
STACK CFI 1bb68 .cfa: sp 112 +
STACK CFI 1bb78 .cfa: sp 0 +
STACK CFI 1bb7c .cfa: x29 48 +
STACK CFI INIT 1bda8 1ac .cfa: sp 0 +
STACK CFI 1bdac .cfa: sp 128 +
STACK CFI 1bdbc .cfa: x29 48 + x19: .cfa -8 + ^ x20: .cfa -16 + ^ x21: .cfa -24 + ^ x22: .cfa -32 + ^ .ra: .cfa -40 + ^ x29: .cfa -48 + ^
STACK CFI 1bed8 .cfa: sp 128 +
STACK CFI 1bee8 .cfa: sp 0 +
STACK CFI 1beec .cfa: x29 48 +
STACK CFI INIT 1bff8 204 .cfa: sp 0 +
STACK CFI 1bffc .cfa: sp 128 +
STACK CFI 1c010 .cfa: x29 64 + x19: .cfa -8 + ^ x20: .cfa -16 + ^ x21: .cfa -24 + ^ x22: .cfa -32 + ^ x23: .cfa -40 + ^ x24: .cfa -48 + ^ .ra: .cfa -56 + ^ x29: .cfa -64 + ^
STACK CFI 1c134 .cfa: sp 128 +
STACK CFI 1c148 .cfa: sp 0 +
STACK CFI 1c14c .cfa: x29 64 +
STACK CFI INIT 1c4b8 1d0 .cfa: sp 0 +
STACK CFI 1c4bc .cfa: sp 128 +
STACK CFI 1c4d0 .cfa: x29 64 + x19: .cfa -8 + ^ x20: .cfa -16 + ^ x21: .cfa -24 + ^ x22: .cfa -32 + ^ x23: .cfa -48 + ^ .ra: .cfa -56 + ^ x29: .cfa -64 + ^
STACK CFI 1c648 .cfa: sp 128 +
STACK CFI 1c65c .cfa: sp 0 +
STACK CFI 1c660 .cfa: x29 64 +
STACK CFI INIT 1c99c 1c4 .cfa: sp 0 +
STACK CFI 1c9a0 .cfa: sp 112 +
STACK CFI 1c9b0 .cfa: x29 48 + x19: .cfa -8 + ^ x20: .cfa -16 + ^ x21: .cfa -24 + ^ x22: .cfa -32 + ^ .ra: .cfa -40 + ^ x29: .cfa -48 + ^
STACK CFI 1cb24 .cfa: sp 112 +
STACK CFI 1cb34 .cfa: sp 0 +
STACK CFI 1cb38 .cfa: x29 48 +
STACK CFI INIT 1cbcc 768 .cfa: sp 0 +
STACK CFI 1cbd0 .cfa: sp 96 +
STACK CFI 1cbe8 .cfa: x29 96 + x19: .cfa -8 + ^ x20: .cfa -16 + ^ x21: .cfa -24 + ^ x22: .cfa -32 + ^ x23: .cfa -40 + ^ x24: .cfa -48 + ^ x25: .cfa -56 + ^ x26: .cfa -64 + ^ x27: .cfa -72 + ^ x28: .cfa -80 + ^ .ra: .cfa -88 + ^ x29: .cfa -96 + ^
STACK CFI 1ceb0 .cfa: sp 96 +
STACK CFI 1cec8 .cfa: sp 0 +
STACK CFI 1cecc .cfa: x29 96 +
STACK CFI INIT 1d35c 74 .cfa: sp 0 +
STACK CFI 1d360 .cfa: sp 48 +
STACK CFI 1d36c .cfa: x29 32 + x19: .cfa -8 + ^ x20: .cfa -16 + ^ .ra: .cfa -24 + ^ x29: .cfa -32 + ^
STACK CFI 1d3b8 .cfa: sp 48 +
STACK CFI 1d3c4 .cfa: sp 0 +
STACK CFI 1d3c8 .cfa: x29 32 +
STACK CFI INIT 1d3d0 74 .cfa: sp 0 +
STACK CFI 1d3d4 .cfa: sp 48 +
STACK CFI 1d3e0 .cfa: x29 32 + x19: .cfa -8 + ^ x20: .cfa -16 + ^ .ra: .cfa -24 + ^ x29: .cfa -32 + ^
STACK CFI 1d42c .cfa: sp 48 +
STACK CFI 1d438 .cfa: sp 0 +
STACK CFI 1d43c .cfa: x29 32 +
STACK CFI INIT 1d444 154 .cfa: sp 0 +
STACK CFI 1d448 .cfa: sp 384 +
STACK CFI 1d45c .cfa: x29 64 + x19: .cfa -8 + ^ x20: .cfa -16 + ^ x21: .cfa -24 + ^ x22: .cfa -32 + ^ x23: .cfa -40 + ^ x28: .cfa -48 + ^ .ra: .cfa -56 + ^ x29: .cfa -64 + ^
STACK CFI 1d540 .cfa: sp 384 +
STACK CFI 1d554 .cfa: sp 0 +
STACK CFI 1d558 .cfa: x29 64 +
STACK CFI INIT 1d598 20 .cfa: sp 0 +
STACK CFI 1d59c .cfa: sp 16 +
STACK CFI 1d5a0 .cfa: x29 16 + .ra: .cfa -8 + ^ x29: .cfa -16 + ^
STACK CFI 1d5ac .cfa: sp 16 +
STACK CFI 1d5b0 .cfa: sp 0 +
STACK CFI 1d5b4 .cfa: x29 16 +
STACK CFI INIT 1d5cc 154 .cfa: sp 0 +
STACK CFI 1d5d0 .cfa: sp 384 +
STACK CFI 1d5e4 .cfa: x29 64 + x19: .cfa -8 + ^ x20: .cfa -16 + ^ x21: .cfa -24 + ^ x22: .cfa -32 + ^ x23: .cfa -40 + ^ x28: .cfa -48 + ^ .ra: .cfa -56 + ^ x29: .cfa -64 + ^
STACK CFI 1d6c8 .cfa: sp 384 +
STACK CFI 1d6dc .cfa: sp 0 +
STACK CFI 1d6e0 .cfa: x29 64 +
STACK CFI INIT 1d738 ef0 .cfa: sp 0 +
STACK CFI 1d73c .cfa: sp 96 +
STACK CFI 1d754 .cfa: x29 96 + x19: .cfa -8 + ^ x20: .cfa -16 + ^ x21: .cfa -24 + ^ x22: .cfa -32 + ^ x23: .cfa -40 + ^ x24: .cfa -48 + ^ x25: .cfa -56 + ^ x26: .cfa -64 + ^ x27: .cfa -72 + ^ x28: .cfa -80 + ^ .ra: .cfa -88 + ^ x29: .cfa -96 + ^
STACK CFI 1e4d4 .cfa: sp 96 +
STACK CFI 1e4ec .cfa: sp 0 +
STACK CFI 1e4f0 .cfa: x29 96 +
STACK CFI INIT 20e38 358 .cfa: sp 0 +
STACK CFI 20e3c .cfa: sp 208 +
STACK CFI 20e50 .cfa: x29 64 + x19: .cfa -8 + ^ x20: .cfa -16 + ^ x21: .cfa -24 + ^ x22: .cfa -32 + ^ x23: .cfa -48 + ^ .ra: .cfa -56 + ^ x29: .cfa -64 + ^
STACK CFI 2106c .cfa: sp 208 +
STACK CFI 21080 .cfa: sp 0 +
STACK CFI 21084 .cfa: x29 64 +
STACK CFI INIT 21194 150 .cfa: sp 0 +
STACK CFI 21198 .cfa: sp 80 +
STACK CFI 211a8 .cfa: x29 48 + x19: .cfa -8 + ^ x20: .cfa -16 + ^ x21: .cfa -24 + ^ x22: .cfa -32 + ^ .ra: .cfa -40 + ^ x29: .cfa -48 + ^
STACK CFI 212a0 .cfa: sp 80 +
STACK CFI 212b0 .cfa: sp 0 +
STACK CFI 212b4 .cfa: x29 48 +
STACK CFI INIT 212e4 33c .cfa: sp 0 +
STACK CFI 212e8 .cfa: sp 240 +
STACK CFI 212fc .cfa: x29 64 + x19: .cfa -8 + ^ x20: .cfa -16 + ^ x21: .cfa -24 + ^ x22: .cfa -32 + ^ x23: .cfa -40 + ^ x24: .cfa -48 + ^ .ra: .cfa -56 + ^ x29: .cfa -64 + ^
STACK CFI 2156c .cfa: sp 240 +
STACK CFI 21580 .cfa: sp 0 +
STACK CFI 21584 .cfa: x29 64 +
STACK CFI INIT 21620 220 .cfa: sp 0 +
STACK CFI 21624 .cfa: sp 112 +
STACK CFI 21634 .cfa: x29 48 + x19: .cfa -8 + ^ x20: .cfa -16 + ^ x21: .cfa -24 + ^ x22: .cfa -32 + ^ .ra: .cfa -40 + ^ x29: .cfa -48 + ^
STACK CFI 21740 .cfa: sp 112 +
STACK CFI 21750 .cfa: sp 0 +
STACK CFI 21754 .cfa: x29 48 +
STACK CFI INIT 21934 5c0 .cfa: sp 0 +
STACK CFI 21938 .cfa: sp 240 +
STACK CFI 2194c .cfa: x29 64 + x19: .cfa -8 + ^ x20: .cfa -16 + ^ x21: .cfa -24 + ^ x22: .cfa -32 + ^ x23: .cfa -40 + ^ x24: .cfa -48 + ^ .ra: .cfa -56 + ^ x29: .cfa -64 + ^
STACK CFI 21d1c .cfa: sp 240 +
STACK CFI 21d30 .cfa: sp 0 +
STACK CFI 21d34 .cfa: x29 64 +
STACK CFI INIT 21f7c 80 .cfa: sp 0 +
STACK CFI 21f80 .cfa: sp 32 +
STACK CFI 21f88 .cfa: x29 32 + x19: .cfa -8 + ^ x20: .cfa -16 + ^ .ra: .cfa -24 + ^ x29: .cfa -32 + ^
STACK CFI 21fc4 .cfa: sp 32 +
STACK CFI 21fcc .cfa: sp 0 +
STACK CFI 21fd0 .cfa: x29 32 +
STACK CFI 21fdc .cfa: sp 32 +
STACK CFI 21fe4 .cfa: sp 0 +
STACK CFI 21fe8 .cfa: x29 32 +
STACK CFI INIT 220bc 288 .cfa: sp 0 +
STACK CFI 220c0 .cfa: sp 240 +
STACK CFI 220d0 .cfa: x29 48 + x19: .cfa -8 + ^ x20: .cfa -16 + ^ x21: .cfa -24 + ^ x22: .cfa -32 + ^ .ra: .cfa -40 + ^ x29: .cfa -48 + ^
STACK CFI 22260 .cfa: sp 240 +
STACK CFI 22270 .cfa: sp 0 +
STACK CFI 22274 .cfa: x29 48 +
STACK CFI INIT 22380 134 .cfa: sp 0 +
STACK CFI 22384 .cfa: sp 80 +
STACK CFI 22390 .cfa: x29 32 + x19: .cfa -8 + ^ x20: .cfa -16 + ^ .ra: .cfa -24 + ^ x29: .cfa -32 + ^
STACK CFI 223c0 .cfa: sp 80 +
STACK CFI 223cc .cfa: sp 0 +
STACK CFI 223d0 .cfa: x29 32 +
STACK CFI INIT 224b4 78 .cfa: sp 0 +
STACK CFI 224b8 .cfa: sp 32 +
STACK CFI 224c0 .cfa: x29 32 + x19: .cfa -8 + ^ x20: .cfa -16 + ^ .ra: .cfa -24 + ^ x29: .cfa -32 + ^
STACK CFI 224cc .cfa: sp 32 +
STACK CFI 224d4 .cfa: sp 0 +
STACK CFI 224d8 .cfa: x29 32 +
STACK CFI INIT 2252c 74 .cfa: sp 0 +
STACK CFI 22530 .cfa: sp 48 +
STACK CFI 2253c .cfa: x29 32 + x19: .cfa -8 + ^ x20: .cfa -16 + ^ .ra: .cfa -24 + ^ x29: .cfa -32 + ^
STACK CFI 22588 .cfa: sp 48 +
STACK CFI 22594 .cfa: sp 0 +
STACK CFI 22598 .cfa: x29 32 +
STACK CFI INIT 22604 1b8 .cfa: sp 0 +
STACK CFI 22608 .cfa: sp 160 +
STACK CFI 22624 .cfa: x29 72 + x19: .cfa -8 + ^ x20: .cfa -16 + ^ x21: .cfa -24 + ^ x22: .cfa -32 + ^ x23: .cfa -40 + ^ x24: .cfa -48 + ^ x25: .cfa -56 + ^ .ra: .cfa -64 + ^ x29: .cfa -72 + ^ v8: .cfa -80 + ^
STACK CFI 226a8 .cfa: sp 160 +
STACK CFI 226c4 .cfa: sp 0 +
STACK CFI 226c8 .cfa: x29 72 +
STACK CFI INIT 227bc 4e4 .cfa: sp 0 +
STACK CFI 227c0 .cfa: sp 96 +
STACK CFI 227d8 .cfa: x29 80 + x19: .cfa -8 + ^ x20: .cfa -16 + ^ x21: .cfa -24 + ^ x22: .cfa -32 + ^ x23: .cfa -40 + ^ x24: .cfa -48 + ^ x25: .cfa -64 + ^ .ra: .cfa -72 + ^ x29: .cfa -80 + ^
STACK CFI 22c1c .cfa: sp 96 +
STACK CFI 22c34 .cfa: sp 0 +
STACK CFI 22c38 .cfa: x29 80 +
STACK CFI INIT 22ca0 154 .cfa: sp 0 +
STACK CFI 22ca4 .cfa: sp 384 +
STACK CFI 22cb8 .cfa: x29 64 + x19: .cfa -8 + ^ x20: .cfa -16 + ^ x21: .cfa -24 + ^ x22: .cfa -32 + ^ x23: .cfa -40 + ^ x28: .cfa -48 + ^ .ra: .cfa -56 + ^ x29: .cfa -64 + ^
STACK CFI 22d9c .cfa: sp 384 +
STACK CFI 22db0 .cfa: sp 0 +
STACK CFI 22db4 .cfa: x29 64 +
STACK CFI INIT 2313c 294 .cfa: sp 0 +
STACK CFI 23140 .cfa: sp 240 +
STACK CFI 23158 .cfa: x29 80 + x19: .cfa -8 + ^ x20: .cfa -16 + ^ x21: .cfa -24 + ^ x22: .cfa -32 + ^ x23: .cfa -40 + ^ x24: .cfa -48 + ^ x25: .cfa -64 + ^ .ra: .cfa -72 + ^ x29: .cfa -80 + ^
STACK CFI 232f8 .cfa: sp 240 +
STACK CFI 23310 .cfa: sp 0 +
STACK CFI 23314 .cfa: x29 80 +
STACK CFI INIT 2344c 50 .cfa: sp 0 +
STACK CFI 23450 .cfa: sp 32 +
STACK CFI 23458 .cfa: x29 32 + x19: .cfa -8 + ^ x20: .cfa -16 + ^ .ra: .cfa -24 + ^ x29: .cfa -32 + ^
STACK CFI INIT 234c8 7c0 .cfa: sp 0 +
STACK CFI 234cc .cfa: sp 320 +
STACK CFI 234e8 .cfa: x29 96 + x19: .cfa -8 + ^ x20: .cfa -16 + ^ x21: .cfa -24 + ^ x22: .cfa -32 + ^ x23: .cfa -40 + ^ x24: .cfa -48 + ^ x25: .cfa -56 + ^ x26: .cfa -64 + ^ x27: .cfa -72 + ^ x28: .cfa -80 + ^ .ra: .cfa -88 + ^ x29: .cfa -96 + ^
STACK CFI 23b38 .cfa: sp 320 +
STACK CFI 23b54 .cfa: sp 0 +
STACK CFI 23b58 .cfa: x29 96 +
STACK CFI INIT 2782c c84 .cfa: sp 0 +
STACK CFI 27830 .cfa: sp 96 +
STACK CFI 27848 .cfa: x29 96 + x19: .cfa -8 + ^ x20: .cfa -16 + ^ x21: .cfa -24 + ^ x22: .cfa -32 + ^ x23: .cfa -40 + ^ x24: .cfa -48 + ^ x25: .cfa -56 + ^ x26: .cfa -64 + ^ x27: .cfa -72 + ^ x28: .cfa -80 + ^ .ra: .cfa -88 + ^ x29: .cfa -96 + ^
STACK CFI 282d0 .cfa: sp 96 +
STACK CFI 282e8 .cfa: sp 0 +
STACK CFI 282ec .cfa: x29 96 +
STACK CFI INIT 28604 26c .cfa: sp 0 +
STACK CFI 28608 .cfa: sp 128 +
STACK CFI 28618 .cfa: x29 48 + x19: .cfa -8 + ^ x20: .cfa -16 + ^ x21: .cfa -24 + ^ x22: .cfa -32 + ^ .ra: .cfa -40 + ^ x29: .cfa -48 + ^
STACK CFI 287bc .cfa: sp 128 +
STACK CFI 287cc .cfa: sp 0 +
STACK CFI 287d0 .cfa: x29 48 +
STACK CFI INIT 28dbc 3b8 .cfa: sp 0 +
STACK CFI 28dc0 .cfa: sp 96 +
STACK CFI 28dd8 .cfa: x29 96 + x19: .cfa -8 + ^ x20: .cfa -16 + ^ x21: .cfa -24 + ^ x22: .cfa -32 + ^ x23: .cfa -40 + ^ x24: .cfa -48 + ^ x25: .cfa -56 + ^ x26: .cfa -64 + ^ x27: .cfa -72 + ^ x28: .cfa -80 + ^ .ra: .cfa -88 + ^ x29: .cfa -96 + ^
STACK CFI 29114 .cfa: sp 96 +
STACK CFI 2912c .cfa: sp 0 +
STACK CFI 29130 .cfa: x29 96 +
STACK CFI INIT 29214 cc0 .cfa: sp 0 +
STACK CFI 29218 .cfa: sp 96 +
STACK CFI 29230 .cfa: x29 96 + x19: .cfa -8 + ^ x20: .cfa -16 + ^ x21: .cfa -24 + ^ x22: .cfa -32 + ^ x23: .cfa -40 + ^ x24: .cfa -48 + ^ x25: .cfa -56 + ^ x26: .cfa -64 + ^ x27: .cfa -72 + ^ x28: .cfa -80 + ^ .ra: .cfa -88 + ^ x29: .cfa -96 + ^
STACK CFI 29ce4 .cfa: sp 96 +
STACK CFI 29cfc .cfa: sp 0 +
STACK CFI 29d00 .cfa: x29 96 +
STACK CFI INIT 2a1bc af8 .cfa: sp 0 +
STACK CFI 2a1c0 .cfa: sp 96 +
STACK CFI 2a1d8 .cfa: x29 96 + x19: .cfa -8 + ^ x20: .cfa -16 + ^ x21: .cfa -24 + ^ x22: .cfa -32 + ^ x23: .cfa -40 + ^ x24: .cfa -48 + ^ x25: .cfa -56 + ^ x26: .cfa -64 + ^ x27: .cfa -72 + ^ x28: .cfa -80 + ^ .ra: .cfa -88 + ^ x29: .cfa -96 + ^
STACK CFI 2ac28 .cfa: sp 96 +
STACK CFI 2ac40 .cfa: sp 0 +
STACK CFI 2ac44 .cfa: x29 96 +
STACK CFI INIT 2aea8 1430 .cfa: sp 0 +
STACK CFI 2aeac .cfa: sp 96 +
STACK CFI 2aec4 .cfa: x29 96 + x19: .cfa -8 + ^ x20: .cfa -16 + ^ x21: .cfa -24 + ^ x22: .cfa -32 + ^ x23: .cfa -40 + ^ x24: .cfa -48 + ^ x25: .cfa -56 + ^ x26: .cfa -64 + ^ x27: .cfa -72 + ^ x28: .cfa -80 + ^ .ra: .cfa -88 + ^ x29: .cfa -96 + ^
STACK CFI 2c160 .cfa: sp 96 +
STACK CFI 2c178 .cfa: sp 0 +
STACK CFI 2c17c .cfa: x29 96 +
STACK CFI INIT 2c3fc 75c .cfa: sp 0 +
STACK CFI 2c400 .cfa: sp 368 +
STACK CFI 2c41c .cfa: x29 96 + x19: .cfa -8 + ^ x20: .cfa -16 + ^ x21: .cfa -24 + ^ x22: .cfa -32 + ^ x23: .cfa -40 + ^ x24: .cfa -48 + ^ x25: .cfa -56 + ^ x26: .cfa -64 + ^ x27: .cfa -72 + ^ x28: .cfa -80 + ^ .ra: .cfa -88 + ^ x29: .cfa -96 + ^
STACK CFI 2c4d0 .cfa: sp 368 +
STACK CFI 2c4ec .cfa: sp 0 +
STACK CFI 2c4f0 .cfa: x29 96 +
STACK CFI 2c544 .cfa: sp 368 +
STACK CFI 2c560 .cfa: sp 0 +
STACK CFI 2c564 .cfa: x29 96 +
STACK CFI INIT 2cf18 ee0 .cfa: sp 0 +
STACK CFI 2cf1c .cfa: sp 96 +
STACK CFI 2cf34 .cfa: x29 96 + x19: .cfa -8 + ^ x20: .cfa -16 + ^ x21: .cfa -24 + ^ x22: .cfa -32 + ^ x23: .cfa -40 + ^ x24: .cfa -48 + ^ x25: .cfa -56 + ^ x26: .cfa -64 + ^ x27: .cfa -72 + ^ x28: .cfa -80 + ^ .ra: .cfa -88 + ^ x29: .cfa -96 + ^
STACK CFI 2dbf0 .cfa: sp 96 +
STACK CFI 2dc08 .cfa: sp 0 +
STACK CFI 2dc0c .cfa: x29 96 +
STACK CFI INIT 2e16c 1ae4 .cfa: sp 0 +
STACK CFI 2e170 .cfa: sp 112 +
STACK CFI 2e18c .cfa: x29 96 + x19: .cfa -8 + ^ x20: .cfa -16 + ^ x21: .cfa -24 + ^ x22: .cfa -32 + ^ x23: .cfa -40 + ^ x24: .cfa -48 + ^ x25: .cfa -56 + ^ x26: .cfa -64 + ^ x27: .cfa -72 + ^ x28: .cfa -80 + ^ .ra: .cfa -88 + ^ x29: .cfa -96 + ^ v8: .cfa -112 + ^
STACK CFI 2e580 .cfa: sp 112 +
STACK CFI 2e59c .cfa: sp 0 +
STACK CFI 2e5a0 .cfa: x29 96 +
STACK CFI INIT 32060 9a0 .cfa: sp 0 +
STACK CFI 32064 .cfa: sp 144 +
STACK CFI 3207c .cfa: x29 80 + x19: .cfa -8 + ^ x20: .cfa -16 + ^ x21: .cfa -24 + ^ x22: .cfa -32 + ^ x23: .cfa -40 + ^ x24: .cfa -48 + ^ x25: .cfa -64 + ^ .ra: .cfa -72 + ^ x29: .cfa -80 + ^
STACK CFI 3297c .cfa: sp 144 +
STACK CFI 32994 .cfa: sp 0 +
STACK CFI 32998 .cfa: x29 80 +
STACK CFI INIT 32a00 57c .cfa: sp 0 +
STACK CFI 32a04 .cfa: sp 96 +
STACK CFI 32a1c .cfa: x29 96 + x19: .cfa -8 + ^ x20: .cfa -16 + ^ x21: .cfa -24 + ^ x22: .cfa -32 + ^ x23: .cfa -40 + ^ x24: .cfa -48 + ^ x25: .cfa -56 + ^ x26: .cfa -64 + ^ x27: .cfa -72 + ^ x28: .cfa -80 + ^ .ra: .cfa -88 + ^ x29: .cfa -96 + ^
STACK CFI 32ee0 .cfa: sp 96 +
STACK CFI 32ef8 .cfa: sp 0 +
STACK CFI 32efc .cfa: x29 96 +
STACK CFI INIT 32f7c 67c .cfa: sp 0 +
STACK CFI 32f80 .cfa: sp 96 +
STACK CFI 32f98 .cfa: x29 96 + x19: .cfa -8 + ^ x20: .cfa -16 + ^ x21: .cfa -24 + ^ x22: .cfa -32 + ^ x23: .cfa -40 + ^ x24: .cfa -48 + ^ x25: .cfa -56 + ^ x26: .cfa -64 + ^ x27: .cfa -72 + ^ x28: .cfa -80 + ^ .ra: .cfa -88 + ^ x29: .cfa -96 + ^
STACK CFI 3355c .cfa: sp 96 +
STACK CFI 33574 .cfa: sp 0 +
STACK CFI 33578 .cfa: x29 96 +
