MODULE Linux arm64 51963E148A358D88C67908231F4FFCDA0 raydeeux.custommodlogos.android64.so
INFO CODE_ID 143E9651358A888DC67908231F4FFCDAB579C5CB
INFO GENERATOR mozilla/dump_syms 2.3.4
PUBLIC 11cb0 0 __on_dlclose
PUBLIC 11cc0 0 __emutls_unregister_key
PUBLIC 11cc8 0 __on_dlclose_late
PUBLIC 11cd0 0 __atexit_handler_wrapper
PUBLIC 11ce4 0 atexit
PUBLIC 11d00 0 pthread_atfork
PUBLIC 11d10 0 __aarch64_ldadd8_relax
PUBLIC 11d40 0 init_have_lse_atomics
PUBLIC 11dd8 0 __init_cpu_features_constructor
PUBLIC 12374 0 __init_cpu_features
PUBLIC 12400 0 __aarch64_ldadd8_acq_rel
PUBLIC 12430 0 Utils::getBool(std::__ndk1::basic_string<char, std::__ndk1::char_traits<char>, std::__ndk1::allocator<char> >)
PUBLIC 12524 0 std::__ndk1::basic_string<char, std::__ndk1::char_traits<char>, std::__ndk1::allocator<char> >::__init_copy_ctor_external(char const*, unsigned long)
PUBLIC 125a4 0 std::__ndk1::basic_string<char, std::__ndk1::char_traits<char>, std::__ndk1::allocator<char> >::__throw_length_error[abi:ne180000]() const
PUBLIC 125b8 0 std::__ndk1::__throw_length_error[abi:ne180000](char const*)
PUBLIC 12608 0 std::length_error::length_error[abi:ne180000](char const*)
PUBLIC 12638 0 __clang_call_terminate
PUBLIC 12648 0 geode::Mod::getSettingValue<bool>(std::__ndk1::basic_string_view<char, std::__ndk1::char_traits<char> >) const
PUBLIC 1277c 0 geode::cast::traverseTypeinfoFor(void*, geode::cast::ClassTypeinfoType const*, char const*)
PUBLIC 12880 0 MyButtonSettingV3::createNode(float)
PUBLIC 12ef0 0 std::__ndk1::shared_ptr<MyButtonSettingV3>::~shared_ptr[abi:ne180000]()
PUBLIC 12f40 0 std::__ndk1::shared_ptr<geode::SettingV3>::~shared_ptr[abi:ne180000]()
PUBLIC 12f90 0 MyButtonSettingV3::~MyButtonSettingV3()
PUBLIC 12fb4 0 MyButtonSettingV3::load(matjson::Value const&)
PUBLIC 12fbc 0 MyButtonSettingV3::save(matjson::Value&) const
PUBLIC 12fc4 0 MyButtonSettingV3::isDefaultValue() const
PUBLIC 12fcc 0 MyButtonSettingV3::reset()
PUBLIC 12fd0 0 cocos2d::CCCopying::copyWithZone(cocos2d::CCZone*)
PUBLIC 12fd8 0 MyButtonSettingNodeV3::~MyButtonSettingNodeV3()
PUBLIC 13064 0 MyButtonSettingNodeV3::~MyButtonSettingNodeV3()
PUBLIC 13100 0 MyButtonSettingNodeV3::onCommit()
PUBLIC 13104 0 MyButtonSettingNodeV3::onResetToDefault()
PUBLIC 13108 0 MyButtonSettingNodeV3::hasUncommittedChanges() const
PUBLIC 13110 0 MyButtonSettingNodeV3::hasNonDefaultValue() const
PUBLIC 13118 0 MyButtonSettingNodeV3::onConfigDirButton(cocos2d::CCObject*)
PUBLIC 131c0 0 std::__ndk1::__throw_bad_optional_access[abi:ne180000]()
PUBLIC 131f4 0 std::__ndk1::__throw_bad_weak_ptr[abi:ne180000]()
PUBLIC 13228 0 std::__ndk1::basic_regex<char, std::__ndk1::regex_traits<char> >::~basic_regex()
PUBLIC 13288 0 geodeExecFunction10<(anonymous namespace)::ExecFuncUnique10>(geode::ModStateEvent*)
PUBLIC 138e0 0 __cxx_global_var_init.2
PUBLIC 14304 0 geode::modifier::ModifyBase<geode::modifier::ModifyDerive<MyCCSprite, cocos2d::CCSprite> >::~ModifyBase()
PUBLIC 1431c 0 std::__ndk1::shared_ptr<std::__ndk1::__empty_state<char> >::~shared_ptr[abi:ne180000]()
PUBLIC 14370 0 std::__ndk1::basic_regex<char, std::__ndk1::regex_traits<char> >::__parse<char const*>(char const*, char const*)
PUBLIC 14a34 0 std::__ndk1::__throw_regex_error[abi:ne180000]<(std::__ndk1::regex_constants::error_type)17>()
PUBLIC 14a80 0 std::__ndk1::basic_regex<char, std::__ndk1::regex_traits<char> >::__parse_ecma_exp<char const*>(char const*, char const*)
PUBLIC 14cec 0 std::__ndk1::basic_regex<char, std::__ndk1::regex_traits<char> >::__parse_basic_reg_exp<char const*>(char const*, char const*)
PUBLIC 14e94 0 std::__ndk1::basic_regex<char, std::__ndk1::regex_traits<char> >::__parse_extended_reg_exp<char const*>(char const*, char const*)
PUBLIC 15004 0 std::__ndk1::__throw_regex_error[abi:ne180000]<(std::__ndk1::regex_constants::error_type)14>()
PUBLIC 15050 0 std::__ndk1::__end_state<char>::~__end_state()
PUBLIC 15054 0 std::__ndk1::__end_state<char>::__exec(std::__ndk1::__state<char>&) const
PUBLIC 15060 0 std::__ndk1::__node<char>::__exec_split(bool, std::__ndk1::__state<char>&) const
PUBLIC 15064 0 std::__ndk1::__node<char>::__exec(std::__ndk1::__state<char>&) const
PUBLIC 15068 0 std::__ndk1::__shared_ptr_pointer<std::__ndk1::__empty_state<char>*, std::__ndk1::shared_ptr<std::__ndk1::__empty_state<char> >::__shared_ptr_default_delete<std::__ndk1::__empty_state<char>, std::__ndk1::__empty_state<char> >, std::__ndk1::allocator<std::__ndk1::__empty_state<char> > >::~__shared_ptr_pointer()
PUBLIC 1508c 0 std::__ndk1::__shared_ptr_pointer<std::__ndk1::__empty_state<char>*, std::__ndk1::shared_ptr<std::__ndk1::__empty_state<char> >::__shared_ptr_default_delete<std::__ndk1::__empty_state<char>, std::__ndk1::__empty_state<char> >, std::__ndk1::allocator<std::__ndk1::__empty_state<char> > >::__on_zero_shared()
PUBLIC 150a4 0 std::__ndk1::__shared_ptr_pointer<std::__ndk1::__empty_state<char>*, std::__ndk1::shared_ptr<std::__ndk1::__empty_state<char> >::__shared_ptr_default_delete<std::__ndk1::__empty_state<char>, std::__ndk1::__empty_state<char> >, std::__ndk1::allocator<std::__ndk1::__empty_state<char> > >::__get_deleter(std::type_info const&) const
PUBLIC 150c0 0 std::__ndk1::__shared_ptr_pointer<std::__ndk1::__empty_state<char>*, std::__ndk1::shared_ptr<std::__ndk1::__empty_state<char> >::__shared_ptr_default_delete<std::__ndk1::__empty_state<char>, std::__ndk1::__empty_state<char> >, std::__ndk1::allocator<std::__ndk1::__empty_state<char> > >::__on_zero_shared_weak()
PUBLIC 150c4 0 std::__ndk1::__empty_state<char>::~__empty_state()
PUBLIC 1510c 0 std::__ndk1::__empty_state<char>::__exec(std::__ndk1::__state<char>&) const
PUBLIC 15120 0 std::__ndk1::__owns_one_state<char>::~__owns_one_state()
PUBLIC 15168 0 std::__ndk1::basic_regex<char, std::__ndk1::regex_traits<char> >::__parse_assertion<char const*>(char const*, char const*)
PUBLIC 154cc 0 std::__ndk1::basic_regex<char, std::__ndk1::regex_traits<char> >::__parse_atom<char const*>(char const*, char const*)
PUBLIC 15b10 0 std::__ndk1::basic_regex<char, std::__ndk1::regex_traits<char> >::__parse_ERE_dupl_symbol<char const*>(char const*, char const*, std::__ndk1::__owns_one_state<char>*, unsigned int, unsigned int)
PUBLIC 15f04 0 std::__ndk1::basic_regex<char, std::__ndk1::regex_traits<char> >::basic_regex[abi:ne180000]()
PUBLIC 15f70 0 std::__ndk1::basic_regex<char, std::__ndk1::regex_traits<char> >::__push_lookahead(std::__ndk1::basic_regex<char, std::__ndk1::regex_traits<char> > const&, bool, unsigned int)
PUBLIC 16024 0 std::__ndk1::__throw_regex_error[abi:ne180000]<(std::__ndk1::regex_constants::error_type)6>()
PUBLIC 16070 0 std::__ndk1::__l_anchor_multiline<char>::~__l_anchor_multiline()
PUBLIC 160b8 0 std::__ndk1::__l_anchor_multiline<char>::__exec(std::__ndk1::__state<char>&) const
PUBLIC 1611c 0 std::__ndk1::__r_anchor_multiline<char>::~__r_anchor_multiline()
PUBLIC 16164 0 std::__ndk1::__r_anchor_multiline<char>::__exec(std::__ndk1::__state<char>&) const
PUBLIC 161b8 0 std::__ndk1::__word_boundary<char, std::__ndk1::regex_traits<char> >::~__word_boundary()
PUBLIC 16214 0 std::__ndk1::__word_boundary<char, std::__ndk1::regex_traits<char> >::~__word_boundary()
PUBLIC 1626c 0 std::__ndk1::__word_boundary<char, std::__ndk1::regex_traits<char> >::__exec(std::__ndk1::__state<char>&) const
PUBLIC 1637c 0 std::__ndk1::__lookahead<char, std::__ndk1::regex_traits<char> >::~__lookahead()
PUBLIC 1640c 0 std::__ndk1::__lookahead<char, std::__ndk1::regex_traits<char> >::~__lookahead()
PUBLIC 16498 0 std::__ndk1::__lookahead<char, std::__ndk1::regex_traits<char> >::__exec(std::__ndk1::__state<char>&) const
PUBLIC 1666c 0 std::__ndk1::basic_regex<char, std::__ndk1::regex_traits<char> >::__match_at_start_ecma<std::__ndk1::allocator<std::__ndk1::sub_match<char const*> > >(char const*, char const*, std::__ndk1::match_results<char const*, std::__ndk1::allocator<std::__ndk1::sub_match<char const*> > >&, std::__ndk1::regex_constants::match_flag_type, bool) const
PUBLIC 16ab8 0 std::__ndk1::vector<std::__ndk1::sub_match<char const*>, std::__ndk1::allocator<std::__ndk1::sub_match<char const*> > >::assign(unsigned long, std::__ndk1::sub_match<char const*> const&)
PUBLIC 16c80 0 std::__ndk1::vector<std::__ndk1::sub_match<char const*>, std::__ndk1::allocator<std::__ndk1::sub_match<char const*> > >::__throw_length_error[abi:ne180000]() const
PUBLIC 16c94 0 std::__throw_bad_array_new_length([abi:ne180000], void)
PUBLIC 16cc8 0 std::__ndk1::__state<char>::~__state()
PUBLIC 16d0c 0 std::__ndk1::__throw_regex_error[abi:ne180000]<(std::__ndk1::regex_constants::error_type)12>()
PUBLIC 16d58 0 std::__ndk1::__state<char>::__state(std::__ndk1::__state<char> const&)
PUBLIC 16ec8 0 std::__ndk1::__throw_regex_error[abi:ne180000]<(std::__ndk1::regex_constants::error_type)16>()
PUBLIC 16f14 0 std::__ndk1::vector<std::__ndk1::__state<char>, std::__ndk1::allocator<std::__ndk1::__state<char> > >::~vector[abi:ne180000]()
PUBLIC 16fac 0 std::__ndk1::vector<std::__ndk1::__state<char>, std::__ndk1::allocator<std::__ndk1::__state<char> > >::__push_back_slow_path<std::__ndk1::__state<char> >(std::__ndk1::__state<char>&&)
PUBLIC 17188 0 std::__ndk1::vector<std::__ndk1::__state<char>, std::__ndk1::allocator<std::__ndk1::__state<char> > >::__throw_length_error[abi:ne180000]() const
PUBLIC 1719c 0 std::__ndk1::vector<std::__ndk1::sub_match<char const*>, std::__ndk1::allocator<std::__ndk1::sub_match<char const*> > >::__append(unsigned long, std::__ndk1::sub_match<char const*> const&)
PUBLIC 17344 0 std::__ndk1::vector<std::__ndk1::pair<unsigned long, char const*>, std::__ndk1::allocator<std::__ndk1::pair<unsigned long, char const*> > >::__append(unsigned long)
PUBLIC 17470 0 std::__ndk1::vector<std::__ndk1::pair<unsigned long, char const*>, std::__ndk1::allocator<std::__ndk1::pair<unsigned long, char const*> > >::__throw_length_error[abi:ne180000]() const
PUBLIC 17484 0 std::__ndk1::basic_regex<char, std::__ndk1::regex_traits<char> >::__parse_bracket_expression<char const*>(char const*, char const*)
PUBLIC 18578 0 std::__ndk1::__throw_regex_error[abi:ne180000]<(std::__ndk1::regex_constants::error_type)11>()
PUBLIC 185c4 0 std::__ndk1::__match_any_but_newline<char>::~__match_any_but_newline()
PUBLIC 1860c 0 std::__ndk1::__throw_regex_error[abi:ne180000]<(std::__ndk1::regex_constants::error_type)3>()
PUBLIC 18658 0 std::__ndk1::basic_regex<char, std::__ndk1::regex_traits<char> >::__parse_character_escape<char const*>(char const*, char const*, std::__ndk1::basic_string<char, std::__ndk1::char_traits<char>, std::__ndk1::allocator<char> >*)
PUBLIC 18b64 0 std::__ndk1::basic_regex<char, std::__ndk1::regex_traits<char> >::__push_char(char)
PUBLIC 18ca4 0 std::__ndk1::__throw_regex_error[abi:ne180000]<(std::__ndk1::regex_constants::error_type)4>()
PUBLIC 18cf0 0 std::__ndk1::basic_regex<char, std::__ndk1::regex_traits<char> >::__push_back_ref(int)
PUBLIC 18db8 0 std::__ndk1::__match_char_icase<char, std::__ndk1::regex_traits<char> >::~__match_char_icase()
PUBLIC 18e14 0 std::__ndk1::__match_char_icase<char, std::__ndk1::regex_traits<char> >::~__match_char_icase()
PUBLIC 18e6c 0 std::__ndk1::__match_char_icase<char, std::__ndk1::regex_traits<char> >::__exec(std::__ndk1::__state<char>&) const
PUBLIC 18eec 0 std::__ndk1::__match_char_collate<char, std::__ndk1::regex_traits<char> >::~__match_char_collate()
PUBLIC 18f48 0 std::__ndk1::__match_char_collate<char, std::__ndk1::regex_traits<char> >::~__match_char_collate()
PUBLIC 18fa0 0 std::__ndk1::__match_char_collate<char, std::__ndk1::regex_traits<char> >::__exec(std::__ndk1::__state<char>&) const
PUBLIC 18fe8 0 std::__ndk1::__match_char<char>::~__match_char()
PUBLIC 19030 0 std::__ndk1::__match_char<char>::__exec(std::__ndk1::__state<char>&) const
PUBLIC 19078 0 std::__ndk1::__back_ref_icase<char, std::__ndk1::regex_traits<char> >::~__back_ref_icase()
PUBLIC 190d4 0 std::__ndk1::__back_ref_icase<char, std::__ndk1::regex_traits<char> >::~__back_ref_icase()
PUBLIC 1912c 0 std::__ndk1::__back_ref_icase<char, std::__ndk1::regex_traits<char> >::__exec(std::__ndk1::__state<char>&) const
PUBLIC 19224 0 std::__ndk1::__back_ref_collate<char, std::__ndk1::regex_traits<char> >::~__back_ref_collate()
PUBLIC 19280 0 std::__ndk1::__back_ref_collate<char, std::__ndk1::regex_traits<char> >::~__back_ref_collate()
PUBLIC 192d8 0 std::__ndk1::__back_ref_collate<char, std::__ndk1::regex_traits<char> >::__exec(std::__ndk1::__state<char>&) const
PUBLIC 19368 0 std::__ndk1::__back_ref<char>::~__back_ref()
PUBLIC 193b0 0 std::__ndk1::__back_ref<char>::__exec(std::__ndk1::__state<char>&) const
PUBLIC 19480 0 std::__ndk1::__bracket_expression<char, std::__ndk1::regex_traits<char> >::__add_char[abi:ne180000](char)
PUBLIC 19930 0 std::__ndk1::__bracket_expression<char, std::__ndk1::regex_traits<char> >::__bracket_expression[abi:ne180000](std::__ndk1::regex_traits<char> const&, std::__ndk1::__node<char>*, bool, bool, bool)
PUBLIC 19b0c 0 std::__ndk1::vector<std::__ndk1::basic_string<char, std::__ndk1::char_traits<char>, std::__ndk1::allocator<char> >, std::__ndk1::allocator<std::__ndk1::basic_string<char, std::__ndk1::char_traits<char>, std::__ndk1::allocator<char> > > >::~vector[abi:ne180000]()
PUBLIC 19b88 0 std::__ndk1::vector<std::__ndk1::pair<std::__ndk1::basic_string<char, std::__ndk1::char_traits<char>, std::__ndk1::allocator<char> >, std::__ndk1::basic_string<char, std::__ndk1::char_traits<char>, std::__ndk1::allocator<char> > >, std::__ndk1::allocator<std::__ndk1::pair<std::__ndk1::basic_string<char, std::__ndk1::char_traits<char>, std::__ndk1::allocator<char> >, std::__ndk1::basic_string<char, std::__ndk1::char_traits<char>, std::__ndk1::allocator<char> > > > >::~vector[abi:ne180000]()
PUBLIC 19c2c 0 std::__ndk1::__bracket_expression<char, std::__ndk1::regex_traits<char> >::~__bracket_expression()
PUBLIC 19d78 0 std::__ndk1::__bracket_expression<char, std::__ndk1::regex_traits<char> >::~__bracket_expression()
PUBLIC 19d9c 0 std::__ndk1::__bracket_expression<char, std::__ndk1::regex_traits<char> >::__exec(std::__ndk1::__state<char>&) const
PUBLIC 1aa08 0 std::__ndk1::pair<std::__ndk1::basic_string<char, std::__ndk1::char_traits<char>, std::__ndk1::allocator<char> >, std::__ndk1::basic_string<char, std::__ndk1::char_traits<char>, std::__ndk1::allocator<char> > >::~pair()
PUBLIC 1aa4c 0 std::__ndk1::basic_string<char, std::__ndk1::char_traits<char>, std::__ndk1::allocator<char> >::__assign_no_alias<true>(char const*, unsigned long)
PUBLIC 1aaf8 0 std::__ndk1::basic_string<char, std::__ndk1::char_traits<char>, std::__ndk1::allocator<char> >::__assign_no_alias<false>(char const*, unsigned long)
PUBLIC 1ac08 0 std::__ndk1::regex_traits<char>::__transform_primary<char*>(char*, char*, char) const
PUBLIC 1adcc 0 std::__ndk1::vector<char, std::__ndk1::allocator<char> >::__throw_length_error[abi:ne180000]() const
PUBLIC 1ade0 0 std::__ndk1::__throw_regex_error[abi:ne180000]<(std::__ndk1::regex_constants::error_type)5>()
PUBLIC 1ae2c 0 std::__ndk1::basic_regex<char, std::__ndk1::regex_traits<char> >::__parse_class_escape<char const*>(char const*, char const*, std::__ndk1::basic_string<char, std::__ndk1::char_traits<char>, std::__ndk1::allocator<char> >&, std::__ndk1::__bracket_expression<char, std::__ndk1::regex_traits<char> >*)
PUBLIC 1b3f4 0 std::__ndk1::basic_regex<char, std::__ndk1::regex_traits<char> >::__parse_awk_escape<char const*>(char const*, char const*, std::__ndk1::basic_string<char, std::__ndk1::char_traits<char>, std::__ndk1::allocator<char> >*)
PUBLIC 1b8b8 0 std::__ndk1::__bracket_expression<char, std::__ndk1::regex_traits<char> >::__add_digraph[abi:ne180000](char, char)
PUBLIC 1bcd8 0 std::__ndk1::__throw_regex_error[abi:ne180000]<(std::__ndk1::regex_constants::error_type)1>()
PUBLIC 1bd24 0 std::__ndk1::regex_traits<char>::__lookup_collatename<char const*>(char const*, char const*, char) const
PUBLIC 1bfd8 0 std::__ndk1::vector<std::__ndk1::basic_string<char, std::__ndk1::char_traits<char>, std::__ndk1::allocator<char> >, std::__ndk1::allocator<std::__ndk1::basic_string<char, std::__ndk1::char_traits<char>, std::__ndk1::allocator<char> > > >::__push_back_slow_path<std::__ndk1::basic_string<char, std::__ndk1::char_traits<char>, std::__ndk1::allocator<char> > const&>(std::__ndk1::basic_string<char, std::__ndk1::char_traits<char>, std::__ndk1::allocator<char> > const&)
PUBLIC 1c1fc 0 std::__ndk1::__split_buffer<std::__ndk1::basic_string<char, std::__ndk1::char_traits<char>, std::__ndk1::allocator<char> >, std::__ndk1::allocator<std::__ndk1::basic_string<char, std::__ndk1::char_traits<char>, std::__ndk1::allocator<char> > >&>::~__split_buffer()
PUBLIC 1c264 0 std::__ndk1::vector<std::__ndk1::basic_string<char, std::__ndk1::char_traits<char>, std::__ndk1::allocator<char> >, std::__ndk1::allocator<std::__ndk1::basic_string<char, std::__ndk1::char_traits<char>, std::__ndk1::allocator<char> > > >::__throw_length_error[abi:ne180000]() const
PUBLIC 1c278 0 std::__ndk1::__throw_regex_error[abi:ne180000]<(std::__ndk1::regex_constants::error_type)2>()
PUBLIC 1c2c4 0 std::__ndk1::regex_traits<char>::transform<std::__ndk1::__wrap_iter<char*> >(std::__ndk1::__wrap_iter<char*>, std::__ndk1::__wrap_iter<char*>) const
PUBLIC 1c478 0 std::__ndk1::__throw_regex_error[abi:ne180000]<(std::__ndk1::regex_constants::error_type)9>()
PUBLIC 1c4c4 0 std::__ndk1::vector<std::__ndk1::pair<std::__ndk1::basic_string<char, std::__ndk1::char_traits<char>, std::__ndk1::allocator<char> >, std::__ndk1::basic_string<char, std::__ndk1::char_traits<char>, std::__ndk1::allocator<char> > >, std::__ndk1::allocator<std::__ndk1::pair<std::__ndk1::basic_string<char, std::__ndk1::char_traits<char>, std::__ndk1::allocator<char> >, std::__ndk1::basic_string<char, std::__ndk1::char_traits<char>, std::__ndk1::allocator<char> > > > >::__push_back_slow_path<std::__ndk1::pair<std::__ndk1::basic_string<char, std::__ndk1::char_traits<char>, std::__ndk1::allocator<char> >, std::__ndk1::basic_string<char, std::__ndk1::char_traits<char>, std::__ndk1::allocator<char> > > >(std::__ndk1::pair<std::__ndk1::basic_string<char, std::__ndk1::char_traits<char>, std::__ndk1::allocator<char> >, std::__ndk1::basic_string<char, std::__ndk1::char_traits<char>, std::__ndk1::allocator<char> > >&&)
PUBLIC 1c66c 0 std::__ndk1::vector<std::__ndk1::pair<std::__ndk1::basic_string<char, std::__ndk1::char_traits<char>, std::__ndk1::allocator<char> >, std::__ndk1::basic_string<char, std::__ndk1::char_traits<char>, std::__ndk1::allocator<char> > >, std::__ndk1::allocator<std::__ndk1::pair<std::__ndk1::basic_string<char, std::__ndk1::char_traits<char>, std::__ndk1::allocator<char> >, std::__ndk1::basic_string<char, std::__ndk1::char_traits<char>, std::__ndk1::allocator<char> > > > >::__throw_length_error[abi:ne180000]() const
PUBLIC 1c680 0 std::__ndk1::vector<std::__ndk1::pair<char, char>, std::__ndk1::allocator<std::__ndk1::pair<char, char> > >::__throw_length_error[abi:ne180000]() const
PUBLIC 1c694 0 std::__ndk1::__begin_marked_subexpression<char>::~__begin_marked_subexpression()
PUBLIC 1c6dc 0 std::__ndk1::__begin_marked_subexpression<char>::__exec(std::__ndk1::__state<char>&) const
PUBLIC 1c70c 0 std::__ndk1::__end_marked_subexpression<char>::~__end_marked_subexpression()
PUBLIC 1c754 0 std::__ndk1::__end_marked_subexpression<char>::__exec(std::__ndk1::__state<char>&) const
PUBLIC 1c78c 0 std::__ndk1::basic_regex<char, std::__ndk1::regex_traits<char> >::__push_loop(unsigned long, unsigned long, std::__ndk1::__owns_one_state<char>*, unsigned long, unsigned long, bool)
PUBLIC 1c8cc 0 std::__ndk1::__throw_regex_error[abi:ne180000]<(std::__ndk1::regex_constants::error_type)8>()
PUBLIC 1c918 0 std::__ndk1::__throw_regex_error[abi:ne180000]<(std::__ndk1::regex_constants::error_type)7>()
PUBLIC 1c964 0 std::__ndk1::__loop<char>::~__loop()
PUBLIC 1c9cc 0 std::__ndk1::__loop<char>::__exec(std::__ndk1::__state<char>&) const
PUBLIC 1cb90 0 std::__ndk1::__loop<char>::__exec_split(bool, std::__ndk1::__state<char>&) const
PUBLIC 1cc54 0 std::__ndk1::__owns_two_states<char>::~__owns_two_states()
PUBLIC 1ccbc 0 std::__ndk1::__repeat_one_loop<char>::~__repeat_one_loop()
PUBLIC 1ccc0 0 std::__ndk1::__repeat_one_loop<char>::__exec(std::__ndk1::__state<char>&) const
PUBLIC 1ccd4 0 std::__ndk1::__owns_two_states<char>::~__owns_two_states()
PUBLIC 1cd40 0 std::__ndk1::__alternate<char>::~__alternate()
PUBLIC 1cda8 0 std::__ndk1::__alternate<char>::__exec(std::__ndk1::__state<char>&) const
PUBLIC 1cdb4 0 std::__ndk1::__alternate<char>::__exec_split(bool, std::__ndk1::__state<char>&) const
PUBLIC 1cdd8 0 std::__ndk1::__node<char>::~__node()
PUBLIC 1cddc 0 std::__ndk1::__empty_non_own_state<char>::~__empty_non_own_state()
PUBLIC 1cde0 0 std::__ndk1::__empty_non_own_state<char>::__exec(std::__ndk1::__state<char>&) const
PUBLIC 1cdf4 0 std::__ndk1::__throw_regex_error[abi:ne180000]<(std::__ndk1::regex_constants::error_type)15>()
PUBLIC 1ce40 0 std::__ndk1::basic_regex<char, std::__ndk1::regex_traits<char> >::__parse_nondupl_RE<char const*>(char const*, char const*)
PUBLIC 1d13c 0 std::__ndk1::basic_regex<char, std::__ndk1::regex_traits<char> >::__parse_RE_dupl_symbol<char const*>(char const*, char const*, std::__ndk1::__owns_one_state<char>*, unsigned int, unsigned int)
PUBLIC 1d3ac 0 std::__ndk1::__owns_one_state<char>::~__owns_one_state()
PUBLIC 1d3d8 0 std::__ndk1::__match_any<char>::~__match_any()
PUBLIC 1d420 0 std::__ndk1::__match_any<char>::__exec(std::__ndk1::__state<char>&) const
PUBLIC 1d460 0 std::__ndk1::basic_regex<char, std::__ndk1::regex_traits<char> >::__test_back_ref(char)
PUBLIC 1d4c0 0 std::__ndk1::basic_regex<char, std::__ndk1::regex_traits<char> >::__parse_ERE_expression<char const*>(char const*, char const*)
PUBLIC 1d80c 0 MyButtonSettingV3::parse(std::__ndk1::basic_string<char, std::__ndk1::char_traits<char>, std::__ndk1::allocator<char> > const&, std::__ndk1::basic_string<char, std::__ndk1::char_traits<char>, std::__ndk1::allocator<char> > const&, matjson::Value const&)
PUBLIC 1db90 0 geode::impl::ResultData<void, std::__ndk1::basic_string<char, std::__ndk1::char_traits<char>, std::__ndk1::allocator<char> > >::~ResultData()
PUBLIC 1dc04 0 std::__ndk1::__shared_ptr_emplace<MyButtonSettingV3, std::__ndk1::allocator<MyButtonSettingV3> >::~__shared_ptr_emplace()
PUBLIC 1dc14 0 std::__ndk1::__shared_ptr_emplace<MyButtonSettingV3, std::__ndk1::allocator<MyButtonSettingV3> >::~__shared_ptr_emplace()
PUBLIC 1dc44 0 std::__ndk1::__shared_ptr_emplace<MyButtonSettingV3, std::__ndk1::allocator<MyButtonSettingV3> >::__on_zero_shared()
PUBLIC 1dc50 0 std::__ndk1::__shared_ptr_emplace<MyButtonSettingV3, std::__ndk1::allocator<MyButtonSettingV3> >::__on_zero_shared_weak()
PUBLIC 1dc54 0 std::__ndk1::__throw_bad_variant_access[abi:ne180000]()
PUBLIC 1dc88 0 geode::UnwrapException::~UnwrapException()
PUBLIC 1dcac 0 std::__ndk1::__function::__base<geode::Result<std::__ndk1::shared_ptr<geode::SettingV3>, std::__ndk1::basic_string<char, std::__ndk1::char_traits<char>, std::__ndk1::allocator<char> > >(std::__ndk1::basic_string<char, std::__ndk1::char_traits<char>, std::__ndk1::allocator<char> > const&, std::__ndk1::basic_string<char, std::__ndk1::char_traits<char>, std::__ndk1::allocator<char> > const&, matjson::Value const&)>::~__base()
PUBLIC 1dcb0 0 std::__ndk1::__function::__func<geode::Result<std::__ndk1::shared_ptr<geode::SettingV3>, std::__ndk1::basic_string<char, std::__ndk1::char_traits<char>, std::__ndk1::allocator<char> > > (*)(std::__ndk1::basic_string<char, std::__ndk1::char_traits<char>, std::__ndk1::allocator<char> > const&, std::__ndk1::basic_string<char, std::__ndk1::char_traits<char>, std::__ndk1::allocator<char> > const&, matjson::Value const&), std::__ndk1::allocator<geode::Result<std::__ndk1::shared_ptr<geode::SettingV3>, std::__ndk1::basic_string<char, std::__ndk1::char_traits<char>, std::__ndk1::allocator<char> > > (*)(std::__ndk1::basic_string<char, std::__ndk1::char_traits<char>, std::__ndk1::allocator<char> > const&, std::__ndk1::basic_string<char, std::__ndk1::char_traits<char>, std::__ndk1::allocator<char> > const&, matjson::Value const&)>, geode::Result<std::__ndk1::shared_ptr<geode::SettingV3>, std::__ndk1::basic_string<char, std::__ndk1::char_traits<char>, std::__ndk1::allocator<char> > >(std::__ndk1::basic_string<char, std::__ndk1::char_traits<char>, std::__ndk1::allocator<char> > const&, std::__ndk1::basic_string<char, std::__ndk1::char_traits<char>, std::__ndk1::allocator<char> > const&, matjson::Value const&)>::~__func()
PUBLIC 1dcb4 0 std::__ndk1::__function::__func<geode::Result<std::__ndk1::shared_ptr<geode::SettingV3>, std::__ndk1::basic_string<char, std::__ndk1::char_traits<char>, std::__ndk1::allocator<char> > > (*)(std::__ndk1::basic_string<char, std::__ndk1::char_traits<char>, std::__ndk1::allocator<char> > const&, std::__ndk1::basic_string<char, std::__ndk1::char_traits<char>, std::__ndk1::allocator<char> > const&, matjson::Value const&), std::__ndk1::allocator<geode::Result<std::__ndk1::shared_ptr<geode::SettingV3>, std::__ndk1::basic_string<char, std::__ndk1::char_traits<char>, std::__ndk1::allocator<char> > > (*)(std::__ndk1::basic_string<char, std::__ndk1::char_traits<char>, std::__ndk1::allocator<char> > const&, std::__ndk1::basic_string<char, std::__ndk1::char_traits<char>, std::__ndk1::allocator<char> > const&, matjson::Value const&)>, geode::Result<std::__ndk1::shared_ptr<geode::SettingV3>, std::__ndk1::basic_string<char, std::__ndk1::char_traits<char>, std::__ndk1::allocator<char> > >(std::__ndk1::basic_string<char, std::__ndk1::char_traits<char>, std::__ndk1::allocator<char> > const&, std::__ndk1::basic_string<char, std::__ndk1::char_traits<char>, std::__ndk1::allocator<char> > const&, matjson::Value const&)>::__clone() const
PUBLIC 1dce8 0 std::__ndk1::__function::__func<geode::Result<std::__ndk1::shared_ptr<geode::SettingV3>, std::__ndk1::basic_string<char, std::__ndk1::char_traits<char>, std::__ndk1::allocator<char> > > (*)(std::__ndk1::basic_string<char, std::__ndk1::char_traits<char>, std::__ndk1::allocator<char> > const&, std::__ndk1::basic_string<char, std::__ndk1::char_traits<char>, std::__ndk1::allocator<char> > const&, matjson::Value const&), std::__ndk1::allocator<geode::Result<std::__ndk1::shared_ptr<geode::SettingV3>, std::__ndk1::basic_string<char, std::__ndk1::char_traits<char>, std::__ndk1::allocator<char> > > (*)(std::__ndk1::basic_string<char, std::__ndk1::char_traits<char>, std::__ndk1::allocator<char> > const&, std::__ndk1::basic_string<char, std::__ndk1::char_traits<char>, std::__ndk1::allocator<char> > const&, matjson::Value const&)>, geode::Result<std::__ndk1::shared_ptr<geode::SettingV3>, std::__ndk1::basic_string<char, std::__ndk1::char_traits<char>, std::__ndk1::allocator<char> > >(std::__ndk1::basic_string<char, std::__ndk1::char_traits<char>, std::__ndk1::allocator<char> > const&, std::__ndk1::basic_string<char, std::__ndk1::char_traits<char>, std::__ndk1::allocator<char> > const&, matjson::Value const&)>::__clone(std::__ndk1::__function::__base<geode::Result<std::__ndk1::shared_ptr<geode::SettingV3>, std::__ndk1::basic_string<char, std::__ndk1::char_traits<char>, std::__ndk1::allocator<char> > >(std::__ndk1::basic_string<char, std::__ndk1::char_traits<char>, std::__ndk1::allocator<char> > const&, std::__ndk1::basic_string<char, std::__ndk1::char_traits<char>, std::__ndk1::allocator<char> > const&, matjson::Value const&)>*) const
PUBLIC 1dcfc 0 std::__ndk1::__function::__func<geode::Result<std::__ndk1::shared_ptr<geode::SettingV3>, std::__ndk1::basic_string<char, std::__ndk1::char_traits<char>, std::__ndk1::allocator<char> > > (*)(std::__ndk1::basic_string<char, std::__ndk1::char_traits<char>, std::__ndk1::allocator<char> > const&, std::__ndk1::basic_string<char, std::__ndk1::char_traits<char>, std::__ndk1::allocator<char> > const&, matjson::Value const&), std::__ndk1::allocator<geode::Result<std::__ndk1::shared_ptr<geode::SettingV3>, std::__ndk1::basic_string<char, std::__ndk1::char_traits<char>, std::__ndk1::allocator<char> > > (*)(std::__ndk1::basic_string<char, std::__ndk1::char_traits<char>, std::__ndk1::allocator<char> > const&, std::__ndk1::basic_string<char, std::__ndk1::char_traits<char>, std::__ndk1::allocator<char> > const&, matjson::Value const&)>, geode::Result<std::__ndk1::shared_ptr<geode::SettingV3>, std::__ndk1::basic_string<char, std::__ndk1::char_traits<char>, std::__ndk1::allocator<char> > >(std::__ndk1::basic_string<char, std::__ndk1::char_traits<char>, std::__ndk1::allocator<char> > const&, std::__ndk1::basic_string<char, std::__ndk1::char_traits<char>, std::__ndk1::allocator<char> > const&, matjson::Value const&)>::destroy()
PUBLIC 1dd00 0 std::__ndk1::__function::__func<geode::Result<std::__ndk1::shared_ptr<geode::SettingV3>, std::__ndk1::basic_string<char, std::__ndk1::char_traits<char>, std::__ndk1::allocator<char> > > (*)(std::__ndk1::basic_string<char, std::__ndk1::char_traits<char>, std::__ndk1::allocator<char> > const&, std::__ndk1::basic_string<char, std::__ndk1::char_traits<char>, std::__ndk1::allocator<char> > const&, matjson::Value const&), std::__ndk1::allocator<geode::Result<std::__ndk1::shared_ptr<geode::SettingV3>, std::__ndk1::basic_string<char, std::__ndk1::char_traits<char>, std::__ndk1::allocator<char> > > (*)(std::__ndk1::basic_string<char, std::__ndk1::char_traits<char>, std::__ndk1::allocator<char> > const&, std::__ndk1::basic_string<char, std::__ndk1::char_traits<char>, std::__ndk1::allocator<char> > const&, matjson::Value const&)>, geode::Result<std::__ndk1::shared_ptr<geode::SettingV3>, std::__ndk1::basic_string<char, std::__ndk1::char_traits<char>, std::__ndk1::allocator<char> > >(std::__ndk1::basic_string<char, std::__ndk1::char_traits<char>, std::__ndk1::allocator<char> > const&, std::__ndk1::basic_string<char, std::__ndk1::char_traits<char>, std::__ndk1::allocator<char> > const&, matjson::Value const&)>::destroy_deallocate()
PUBLIC 1dd04 0 std::__ndk1::__function::__func<geode::Result<std::__ndk1::shared_ptr<geode::SettingV3>, std::__ndk1::basic_string<char, std::__ndk1::char_traits<char>, std::__ndk1::allocator<char> > > (*)(std::__ndk1::basic_string<char, std::__ndk1::char_traits<char>, std::__ndk1::allocator<char> > const&, std::__ndk1::basic_string<char, std::__ndk1::char_traits<char>, std::__ndk1::allocator<char> > const&, matjson::Value const&), std::__ndk1::allocator<geode::Result<std::__ndk1::shared_ptr<geode::SettingV3>, std::__ndk1::basic_string<char, std::__ndk1::char_traits<char>, std::__ndk1::allocator<char> > > (*)(std::__ndk1::basic_string<char, std::__ndk1::char_traits<char>, std::__ndk1::allocator<char> > const&, std::__ndk1::basic_string<char, std::__ndk1::char_traits<char>, std::__ndk1::allocator<char> > const&, matjson::Value const&)>, geode::Result<std::__ndk1::shared_ptr<geode::SettingV3>, std::__ndk1::basic_string<char, std::__ndk1::char_traits<char>, std::__ndk1::allocator<char> > >(std::__ndk1::basic_string<char, std::__ndk1::char_traits<char>, std::__ndk1::allocator<char> > const&, std::__ndk1::basic_string<char, std::__ndk1::char_traits<char>, std::__ndk1::allocator<char> > const&, matjson::Value const&)>::operator()(std::__ndk1::basic_string<char, std::__ndk1::char_traits<char>, std::__ndk1::allocator<char> > const&, std::__ndk1::basic_string<char, std::__ndk1::char_traits<char>, std::__ndk1::allocator<char> > const&, matjson::Value const&)
PUBLIC 1dd18 0 std::__ndk1::__function::__func<geode::Result<std::__ndk1::shared_ptr<geode::SettingV3>, std::__ndk1::basic_string<char, std::__ndk1::char_traits<char>, std::__ndk1::allocator<char> > > (*)(std::__ndk1::basic_string<char, std::__ndk1::char_traits<char>, std::__ndk1::allocator<char> > const&, std::__ndk1::basic_string<char, std::__ndk1::char_traits<char>, std::__ndk1::allocator<char> > const&, matjson::Value const&), std::__ndk1::allocator<geode::Result<std::__ndk1::shared_ptr<geode::SettingV3>, std::__ndk1::basic_string<char, std::__ndk1::char_traits<char>, std::__ndk1::allocator<char> > > (*)(std::__ndk1::basic_string<char, std::__ndk1::char_traits<char>, std::__ndk1::allocator<char> > const&, std::__ndk1::basic_string<char, std::__ndk1::char_traits<char>, std::__ndk1::allocator<char> > const&, matjson::Value const&)>, geode::Result<std::__ndk1::shared_ptr<geode::SettingV3>, std::__ndk1::basic_string<char, std::__ndk1::char_traits<char>, std::__ndk1::allocator<char> > >(std::__ndk1::basic_string<char, std::__ndk1::char_traits<char>, std::__ndk1::allocator<char> > const&, std::__ndk1::basic_string<char, std::__ndk1::char_traits<char>, std::__ndk1::allocator<char> > const&, matjson::Value const&)>::target(std::type_info const&) const
PUBLIC 1dd34 0 std::__ndk1::__function::__func<geode::Result<std::__ndk1::shared_ptr<geode::SettingV3>, std::__ndk1::basic_string<char, std::__ndk1::char_traits<char>, std::__ndk1::allocator<char> > > (*)(std::__ndk1::basic_string<char, std::__ndk1::char_traits<char>, std::__ndk1::allocator<char> > const&, std::__ndk1::basic_string<char, std::__ndk1::char_traits<char>, std::__ndk1::allocator<char> > const&, matjson::Value const&), std::__ndk1::allocator<geode::Result<std::__ndk1::shared_ptr<geode::SettingV3>, std::__ndk1::basic_string<char, std::__ndk1::char_traits<char>, std::__ndk1::allocator<char> > > (*)(std::__ndk1::basic_string<char, std::__ndk1::char_traits<char>, std::__ndk1::allocator<char> > const&, std::__ndk1::basic_string<char, std::__ndk1::char_traits<char>, std::__ndk1::allocator<char> > const&, matjson::Value const&)>, geode::Result<std::__ndk1::shared_ptr<geode::SettingV3>, std::__ndk1::basic_string<char, std::__ndk1::char_traits<char>, std::__ndk1::allocator<char> > >(std::__ndk1::basic_string<char, std::__ndk1::char_traits<char>, std::__ndk1::allocator<char> > const&, std::__ndk1::basic_string<char, std::__ndk1::char_traits<char>, std::__ndk1::allocator<char> > const&, matjson::Value const&)>::target_type() const
PUBLIC 1dd40 0 std::__ndk1::__variant_detail::__visitation::__base::__dispatcher<(unsigned long)0>::__dispatch[abi:ne180000]<std::__ndk1::__variant_detail::__dtor<std::__ndk1::__variant_detail::__traits<std::__ndk1::monostate, std::__ndk1::basic_string<char, std::__ndk1::char_traits<char>, std::__ndk1::allocator<char> > >, (std::__ndk1::__variant_detail::_Trait)1>::__destroy[abi:ne180000]()::{lambda(auto:1&)#1}, std::__ndk1::__variant_detail::__base<(std::__ndk1::__variant_detail::__traits<std::__ndk1::monostate, std::__ndk1::basic_string<char, std::__ndk1::char_traits<char>, std::__ndk1::allocator<char> > >)1, std::__ndk1::__variant_detail::__traits, std::__ndk1::allocator<char> >&>(std::__ndk1::__variant_detail::__dtor<std::__ndk1::__variant_detail::__traits<std::__ndk1::monostate, std::__ndk1::basic_string<char, std::__ndk1::char_traits<char>, std::__ndk1::allocator<char> > >, (std::__ndk1::__variant_detail::_Trait)1>, std::__ndk1::__variant_detail::__base<(std::__ndk1::__variant_detail::__traits<std::__ndk1::monostate, std::__ndk1::basic_string<char, std::__ndk1::char_traits<char>, std::__ndk1::allocator<char> > >)1, std::__ndk1::__variant_detail::__traits, std::__ndk1::allocator<char> >&)
PUBLIC 1dd44 0 std::__ndk1::__variant_detail::__visitation::__base::__dispatcher<(unsigned long)1>::__dispatch[abi:ne180000]<std::__ndk1::__variant_detail::__dtor<std::__ndk1::__variant_detail::__traits<std::__ndk1::monostate, std::__ndk1::basic_string<char, std::__ndk1::char_traits<char>, std::__ndk1::allocator<char> > >, (std::__ndk1::__variant_detail::_Trait)1>::__destroy[abi:ne180000]()::{lambda(auto:1&)#1}, std::__ndk1::__variant_detail::__base<(std::__ndk1::__variant_detail::__traits<std::__ndk1::monostate, std::__ndk1::basic_string<char, std::__ndk1::char_traits<char>, std::__ndk1::allocator<char> > >)1, std::__ndk1::__variant_detail::__traits, std::__ndk1::allocator<char> >&>(std::__ndk1::__variant_detail::__dtor<std::__ndk1::__variant_detail::__traits<std::__ndk1::monostate, std::__ndk1::basic_string<char, std::__ndk1::char_traits<char>, std::__ndk1::allocator<char> > >, (std::__ndk1::__variant_detail::_Trait)1>, std::__ndk1::__variant_detail::__base<(std::__ndk1::__variant_detail::__traits<std::__ndk1::monostate, std::__ndk1::basic_string<char, std::__ndk1::char_traits<char>, std::__ndk1::allocator<char> > >)1, std::__ndk1::__variant_detail::__traits, std::__ndk1::allocator<char> >&)
PUBLIC 1dd58 0 std::__ndk1::__fs::filesystem::path::operator/=[abi:ne180000](std::__ndk1::__fs::filesystem::path const&)
PUBLIC 1de40 0 geode::EventListener<geode::ModStateFilter>::getPool() const
PUBLIC 1de44 0 geode::EventListener<geode::ModStateFilter>::handle(geode::Event*)
PUBLIC 1dfb8 0 geode::EventListener<geode::ModStateFilter>::~EventListener()
PUBLIC 1e014 0 geode::EventListener<geode::ModStateFilter>::~EventListener()
PUBLIC 1e078 0 std::__ndk1::__function::__base<void (geode::ModStateEvent*)>::~__base()
PUBLIC 1e07c 0 std::__ndk1::__function::__func<void (*)(geode::ModStateEvent*), std::__ndk1::allocator<void (*)(geode::ModStateEvent*)>, void (geode::ModStateEvent*)>::~__func()
PUBLIC 1e080 0 std::__ndk1::__function::__func<void (*)(geode::ModStateEvent*), std::__ndk1::allocator<void (*)(geode::ModStateEvent*)>, void (geode::ModStateEvent*)>::__clone() const
PUBLIC 1e0b4 0 std::__ndk1::__function::__func<void (*)(geode::ModStateEvent*), std::__ndk1::allocator<void (*)(geode::ModStateEvent*)>, void (geode::ModStateEvent*)>::__clone(std::__ndk1::__function::__base<void (geode::ModStateEvent*)>*) const
PUBLIC 1e0c8 0 std::__ndk1::__function::__func<void (*)(geode::ModStateEvent*), std::__ndk1::allocator<void (*)(geode::ModStateEvent*)>, void (geode::ModStateEvent*)>::destroy()
PUBLIC 1e0cc 0 std::__ndk1::__function::__func<void (*)(geode::ModStateEvent*), std::__ndk1::allocator<void (*)(geode::ModStateEvent*)>, void (geode::ModStateEvent*)>::destroy_deallocate()
PUBLIC 1e0d0 0 std::__ndk1::__function::__func<void (*)(geode::ModStateEvent*), std::__ndk1::allocator<void (*)(geode::ModStateEvent*)>, void (geode::ModStateEvent*)>::operator()(geode::ModStateEvent*&&)
PUBLIC 1e0e0 0 std::__ndk1::__function::__func<void (*)(geode::ModStateEvent*), std::__ndk1::allocator<void (*)(geode::ModStateEvent*)>, void (geode::ModStateEvent*)>::target(std::type_info const&) const
PUBLIC 1e0fc 0 std::__ndk1::__function::__func<void (*)(geode::ModStateEvent*), std::__ndk1::allocator<void (*)(geode::ModStateEvent*)>, void (geode::ModStateEvent*)>::target_type() const
PUBLIC 1e108 0 geode::modifier::ModifyDerive<MyCCSprite, cocos2d::CCSprite>::apply()
PUBLIC 1e548 0 std::__ndk1::shared_ptr<geode::Hook>::~shared_ptr[abi:ne180000]()
PUBLIC 1e598 0 geode::impl::ResultData<geode::Hook*, std::__ndk1::basic_string<char, std::__ndk1::char_traits<char>, std::__ndk1::allocator<char> > >::~ResultData()
PUBLIC 1e60c 0 geode::modifier::ModifyBase<geode::modifier::ModifyDerive<MyCCSprite, cocos2d::CCSprite> >::apply()
PUBLIC 1e610 0 _ZN5geode15UnwrapExceptionC2IRPNS_4HookEQsr4implE18IsStringStreamableIT_EEENS_4impl5OkTagEOS5_
PUBLIC 1e764 0 std::__ndk1::basic_stringstream<char, std::__ndk1::char_traits<char>, std::__ndk1::allocator<char> >::basic_stringstream[abi:ne180000]()
PUBLIC m 1e890 0 std::__ndk1::basic_stringstream<char, std::__ndk1::char_traits<char>, std::__ndk1::allocator<char> >::~basic_stringstream()
PUBLIC 1e910 0 std::__ndk1::__put_character_sequence[abi:ne180000]<char, std::__ndk1::char_traits<char> >(std::__ndk1::basic_ostream<char, std::__ndk1::char_traits<char> >, std::__ndk1::basic_ostream const*, unsigned long)
PUBLIC 1eab4 0 std::__ndk1::__pad_and_output[abi:ne180000]<char, std::__ndk1::char_traits<char> >(std::__ndk1::char_traits<char>, std::__ndk1::ostreambuf_iterator const*, std::__ndk1::ostreambuf_iterator const, std::__ndk1::ostreambuf_iterator const, std::__ndk1::ios_base&, std::__ndk1::ostreambuf_iterator)
PUBLIC 1ec90 0 std::__ndk1::basic_stringbuf<char, std::__ndk1::char_traits<char>, std::__ndk1::allocator<char> >::str[abi:ne180000]() &&
PUBLIC 1ee08 0 std::__ndk1::basic_stringbuf<char, std::__ndk1::char_traits<char>, std::__ndk1::allocator<char> >::__init_buf_ptrs[abi:ne180000]()
PUBLIC 1ef50 0 std::__ndk1::__variant_detail::__visitation::__base::__dispatcher<(unsigned long)0>::__dispatch[abi:ne180000]<std::__ndk1::__variant_detail::__dtor<std::__ndk1::__variant_detail::__traits<geode::Hook*, std::__ndk1::basic_string<char, std::__ndk1::char_traits<char>, std::__ndk1::allocator<char> > >, (std::__ndk1::__variant_detail::_Trait)1>::__destroy[abi:ne180000]()::{lambda(auto:1&)#1}, std::__ndk1::__variant_detail::__base<(std::__ndk1::__variant_detail::__traits<geode::Hook*, std::__ndk1::basic_string<char, std::__ndk1::char_traits<char>, std::__ndk1::allocator<char> > >)1, geode::Hook, std::__ndk1::allocator<char> >&>(std::__ndk1::__variant_detail::__dtor<std::__ndk1::__variant_detail::__traits<geode::Hook*, std::__ndk1::basic_string<char, std::__ndk1::char_traits<char>, std::__ndk1::allocator<char> > >, (std::__ndk1::__variant_detail::_Trait)1>, std::__ndk1::__variant_detail::__base<(std::__ndk1::__variant_detail::__traits<geode::Hook*, std::__ndk1::basic_string<char, std::__ndk1::char_traits<char>, std::__ndk1::allocator<char> > >)1, geode::Hook, std::__ndk1::allocator<char> >&)
PUBLIC 1ef54 0 std::__ndk1::__variant_detail::__visitation::__base::__dispatcher<(unsigned long)1>::__dispatch[abi:ne180000]<std::__ndk1::__variant_detail::__dtor<std::__ndk1::__variant_detail::__traits<geode::Hook*, std::__ndk1::basic_string<char, std::__ndk1::char_traits<char>, std::__ndk1::allocator<char> > >, (std::__ndk1::__variant_detail::_Trait)1>::__destroy[abi:ne180000]()::{lambda(auto:1&)#1}, std::__ndk1::__variant_detail::__base<(std::__ndk1::__variant_detail::__traits<geode::Hook*, std::__ndk1::basic_string<char, std::__ndk1::char_traits<char>, std::__ndk1::allocator<char> > >)1, geode::Hook, std::__ndk1::allocator<char> >&>(std::__ndk1::__variant_detail::__dtor<std::__ndk1::__variant_detail::__traits<geode::Hook*, std::__ndk1::basic_string<char, std::__ndk1::char_traits<char>, std::__ndk1::allocator<char> > >, (std::__ndk1::__variant_detail::_Trait)1>, std::__ndk1::__variant_detail::__base<(std::__ndk1::__variant_detail::__traits<geode::Hook*, std::__ndk1::basic_string<char, std::__ndk1::char_traits<char>, std::__ndk1::allocator<char> > >)1, geode::Hook, std::__ndk1::allocator<char> >&)
PUBLIC 1ef68 0 std::__ndk1::__tree<std::__ndk1::__value_type<std::__ndk1::basic_string<char, std::__ndk1::char_traits<char>, std::__ndk1::allocator<char> >, std::__ndk1::shared_ptr<geode::Hook> >, std::__ndk1::__map_value_compare<std::__ndk1::basic_string<char, std::__ndk1::char_traits<char>, std::__ndk1::allocator<char> >, std::__ndk1::__value_type<std::__ndk1::basic_string<char, std::__ndk1::char_traits<char>, std::__ndk1::allocator<char> >, std::__ndk1::shared_ptr<geode::Hook> >, std::__ndk1::less<std::__ndk1::basic_string<char, std::__ndk1::char_traits<char>, std::__ndk1::allocator<char> > >, true>, std::__ndk1::allocator<std::__ndk1::__value_type<std::__ndk1::basic_string<char, std::__ndk1::char_traits<char>, std::__ndk1::allocator<char> >, std::__ndk1::shared_ptr<geode::Hook> > > >::destroy(std::__ndk1::__tree_node<std::__ndk1::__value_type<std::__ndk1::basic_string<char, std::__ndk1::char_traits<char>, std::__ndk1::allocator<char> >, std::__ndk1::shared_ptr<geode::Hook> >, void*>*)
PUBLIC 1efec 0 geode::modifier::AsStaticFunction_create<MyCCSprite, cocos2d::CCSprite* (*)(char const*)>::Impl<cocos2d::CCSprite* (*)(char const*)>::function(char const*)
PUBLIC 211d4 0 std::__ndk1::shared_ptr<tulip::hook::CallingConvention>::~shared_ptr[abi:ne180000]()
PUBLIC 21224 0 tulip::hook::HandlerMetadata::~HandlerMetadata()
PUBLIC 21288 0 std::__ndk1::deque<std::__ndk1::__state<char>, std::__ndk1::allocator<std::__ndk1::__state<char> > >::~deque[abi:ne180000]()
PUBLIC 21450 0 std::__ndk1::deque<std::__ndk1::__state<char>, std::__ndk1::allocator<std::__ndk1::__state<char> > >::__add_back_capacity()
PUBLIC 21a40 0 std::__ndk1::__split_buffer<std::__ndk1::__state<char>*, std::__ndk1::allocator<std::__ndk1::__state<char>*> >::push_back(std::__ndk1::__state<char>*&&)
PUBLIC 21bc8 0 std::__ndk1::__split_buffer<std::__ndk1::__state<char>*, std::__ndk1::allocator<std::__ndk1::__state<char>*> >::push_front(std::__ndk1::__state<char>*&&)
PUBLIC 21d54 0 std::__ndk1::vector<std::__ndk1::sub_match<std::__ndk1::__wrap_iter<char const*> >, std::__ndk1::allocator<std::__ndk1::sub_match<std::__ndk1::__wrap_iter<char const*> > > >::__throw_length_error[abi:ne180000]() const
PUBLIC 21d68 0 std::__ndk1::__tree_balance_after_insert[abi:ne180000]<std::__ndk1::__tree_node_base<void*>*>(std::__ndk1::__tree_node_base<void*>*, std::__ndk1::__tree_node_base<void*>*)
PUBLIC 21f18 0 _GLOBAL__sub_I_CCSprite.cpp
PUBLIC m 22100 0 geodeImplicitEntry
PUBLIC 2213c 0 cocos2d::CCDestructor::~CCDestructor()
PUBLIC 22238 0 wrapFunction(unsigned long, tulip::hook::WrapperMetadata const&)
PUBLIC 2236c 0 geode::impl::ResultData<void*, std::__ndk1::basic_string<char, std::__ndk1::char_traits<char>, std::__ndk1::allocator<char> > >::unwrapErr() &
PUBLIC 223e4 0 geode::impl::ResultData<void*, std::__ndk1::basic_string<char, std::__ndk1::char_traits<char>, std::__ndk1::allocator<char> > >::~ResultData()
PUBLIC 22458 0 tulip::hook::WrapperMetadata::~WrapperMetadata()
PUBLIC 224bc 0 cocos2d::CCObject::CCObject()
PUBLIC 22630 0 cocos2d::CCNode::CCNode()
PUBLIC 227c4 0 cocos2d::CCNode::~CCNode()
PUBLIC 227e8 0 cocos2d::CCObject::~CCObject()
PUBLIC 2280c 0 cocos2d::CCObject::update(float)
PUBLIC 22810 0 cocos2d::CCNode::~CCNode()
PUBLIC 22a34 0 cocos2d::CCObject::~CCObject()
PUBLIC 22c58 0 _ZN5geode15UnwrapExceptionC2IRPvQsr4implE18IsStringStreamableIT_EEENS_4impl5OkTagEOS4_
PUBLIC 22dac 0 _ZN5geode15UnwrapExceptionC2IRNSt6__ndk112basic_stringIcNS2_11char_traitsIcEENS2_9allocatorIcEEEEQsr4implE18IsStringStreamableIT_EEENS_4impl6ErrTagEOSA_
PUBLIC 22f14 0 std::__ndk1::__variant_detail::__visitation::__base::__dispatcher<(unsigned long)0>::__dispatch[abi:ne180000]<std::__ndk1::__variant_detail::__dtor<std::__ndk1::__variant_detail::__traits<void*, std::__ndk1::basic_string<char, std::__ndk1::char_traits<char>, std::__ndk1::allocator<char> > >, (std::__ndk1::__variant_detail::_Trait)1>::__destroy[abi:ne180000]()::{lambda(auto:1&)#1}, std::__ndk1::__variant_detail::__base<(std::__ndk1::__variant_detail::__traits<void*, std::__ndk1::basic_string<char, std::__ndk1::char_traits<char>, std::__ndk1::allocator<char> > >)1, std::__ndk1::__variant_detail::__traits, std::__ndk1::allocator<char> >&>(std::__ndk1::__variant_detail::__dtor<std::__ndk1::__variant_detail::__traits<void*, std::__ndk1::basic_string<char, std::__ndk1::char_traits<char>, std::__ndk1::allocator<char> > >, (std::__ndk1::__variant_detail::_Trait)1>, std::__ndk1::__variant_detail::__base<(std::__ndk1::__variant_detail::__traits<void*, std::__ndk1::basic_string<char, std::__ndk1::char_traits<char>, std::__ndk1::allocator<char> > >)1, std::__ndk1::__variant_detail::__traits, std::__ndk1::allocator<char> >&)
PUBLIC 22f18 0 std::__ndk1::__variant_detail::__visitation::__base::__dispatcher<(unsigned long)1>::__dispatch[abi:ne180000]<std::__ndk1::__variant_detail::__dtor<std::__ndk1::__variant_detail::__traits<void*, std::__ndk1::basic_string<char, std::__ndk1::char_traits<char>, std::__ndk1::allocator<char> > >, (std::__ndk1::__variant_detail::_Trait)1>::__destroy[abi:ne180000]()::{lambda(auto:1&)#1}, std::__ndk1::__variant_detail::__base<(std::__ndk1::__variant_detail::__traits<void*, std::__ndk1::basic_string<char, std::__ndk1::char_traits<char>, std::__ndk1::allocator<char> > >)1, std::__ndk1::__variant_detail::__traits, std::__ndk1::allocator<char> >&>(std::__ndk1::__variant_detail::__dtor<std::__ndk1::__variant_detail::__traits<void*, std::__ndk1::basic_string<char, std::__ndk1::char_traits<char>, std::__ndk1::allocator<char> > >, (std::__ndk1::__variant_detail::_Trait)1>, std::__ndk1::__variant_detail::__base<(std::__ndk1::__variant_detail::__traits<void*, std::__ndk1::basic_string<char, std::__ndk1::char_traits<char>, std::__ndk1::allocator<char> > >)1, std::__ndk1::__variant_detail::__traits, std::__ndk1::allocator<char> >&)
PUBLIC 22f2c 0 std::__ndk1::__hash_table<std::__ndk1::__hash_value_type<void*, bool>, std::__ndk1::__unordered_map_hasher<void*, std::__ndk1::__hash_value_type<void*, bool>, std::__ndk1::hash<void*>, std::__ndk1::equal_to<void*>, true>, std::__ndk1::__unordered_map_equal<void*, std::__ndk1::__hash_value_type<void*, bool>, std::__ndk1::equal_to<void*>, std::__ndk1::hash<void*>, true>, std::__ndk1::allocator<std::__ndk1::__hash_value_type<void*, bool> > >::__emplace_unique_key_args<void*, std::__ndk1::piecewise_construct_t const&, std::__ndk1::tuple<void* const&>, std::__ndk1::tuple<> >(void* const&, std::__ndk1::piecewise_construct_t const&, std::__ndk1::tuple<void* const&>, std::__ndk1::tuple<>)
PUBLIC 2340c 0 std::__ndk1::__hash_table<std::__ndk1::__hash_value_type<void*, bool>, std::__ndk1::__unordered_map_hasher<void*, std::__ndk1::__hash_value_type<void*, bool>, std::__ndk1::hash<void*>, std::__ndk1::equal_to<void*>, true>, std::__ndk1::__unordered_map_equal<void*, std::__ndk1::__hash_value_type<void*, bool>, std::__ndk1::equal_to<void*>, std::__ndk1::hash<void*>, true>, std::__ndk1::allocator<std::__ndk1::__hash_value_type<void*, bool> > >::find<void*>(void* const&)
PUBLIC 2351c 0 std::__ndk1::__hash_table<std::__ndk1::__hash_value_type<void*, bool>, std::__ndk1::__unordered_map_hasher<void*, std::__ndk1::__hash_value_type<void*, bool>, std::__ndk1::hash<void*>, std::__ndk1::equal_to<void*>, true>, std::__ndk1::__unordered_map_equal<void*, std::__ndk1::__hash_value_type<void*, bool>, std::__ndk1::equal_to<void*>, std::__ndk1::hash<void*>, true>, std::__ndk1::allocator<std::__ndk1::__hash_value_type<void*, bool> > >::remove(std::__ndk1::__hash_const_iterator<std::__ndk1::__hash_node<std::__ndk1::__hash_value_type<void*, bool>, void*>*>)
PUBLIC 23650 0 __udivti3
PUBLIC 2365c 0 __udivmodti4
PUBLIC m 238a8 0 __eqtf2
PUBLIC 23948 0 __unordtf2
PUBLIC 23980 0 fmt::v11::detail::write_loc(fmt::v11::basic_appender<char>, fmt::v11::loc_value, fmt::v11::format_specs const&, fmt::v11::detail::locale_ref)
PUBLIC 23c14 0 fmt::v11::format_facet<std::__ndk1::locale>::~format_facet()
PUBLIC 23c90 0 fmt::v11::report_error(char const*)
PUBLIC 23ce0 0 fmt::v11::format_error::runtime_error(char const*)
PUBLIC 23d0c 0 fmt::v11::format_facet<std::__ndk1::locale>::do_put(fmt::v11::basic_appender<char>, fmt::v11::loc_value, fmt::v11::format_specs const&) const
PUBLIC 244cc 0 fmt::v11::detail::loc_writer<char>::~loc_writer()
PUBLIC 24530 0 fmt::v11::detail::vformat_to<char>(fmt::v11::detail::buffer<char>&, fmt::v11::basic_string_view<char>, fmt::v11::detail::vformat_args<char>::type, fmt::v11::detail::locale_ref)
PUBLIC 24aa0 0 fmt::v11::detail::is_printable(unsigned int)
PUBLIC 24cc8 0 fmt::v11::detail::dragonbox::to_decimal<float>(float)
PUBLIC 24fa4 0 fmt::v11::detail::dragonbox::to_decimal<double>(double)
PUBLIC 254e0 0 fmt::v11::basic_memory_buffer<char, (unsigned long)500, std::__ndk1::allocator<char> >::grow(fmt::v11::detail::buffer<char>&, unsigned long)
PUBLIC 25558 0 fmt::v11::format_facet<std::__ndk1::locale>::~format_facet()
PUBLIC 255e4 0 fmt::v11::format_error::~format_error()
PUBLIC 25608 0 fmt::v11::detail::copy_noinline<char, char const*, fmt::v11::basic_appender<char> >(char const*, char const*, fmt::v11::basic_appender<char>)
PUBLIC 25758 0 fmt::v11::detail::default_arg_formatter<char>::operator()<bool>(bool)
PUBLIC 257c0 0 fmt::v11::detail::default_arg_formatter<char>::operator()<char>(char)
PUBLIC 25850 0 fmt::v11::detail::default_arg_formatter<char>::operator()<float>(float)
PUBLIC 2593c 0 fmt::v11::detail::default_arg_formatter<char>::operator()<double>(double)
PUBLIC 25a28 0 fmt::v11::detail::default_arg_formatter<char>::operator()<char const*>(char const*)
PUBLIC 25a70 0 fmt::v11::detail::default_arg_formatter<char>::operator()<void const*>(void const*)
PUBLIC 25b08 0 _ZN3fmt3v116detail5writeIcNS0_14basic_appenderIcEEiTnNSt6__ndk19enable_ifIXaaaasr11is_integralIT1_EE5valuentsr3std7is_sameIS7_bEE5valuentsr3std7is_sameIS7_T_EE5valueEiE4typeELi0EEET0_SB_S7_
PUBLIC 25d68 0 fmt::v11::detail::copy_noinline<char, char*, fmt::v11::basic_appender<char> >(char*, char*, fmt::v11::basic_appender<char>)
PUBLIC 25eb8 0 _ZN3fmt3v116detail5writeIcNS0_14basic_appenderIcEEjTnNSt6__ndk19enable_ifIXaaaasr11is_integralIT1_EE5valuentsr3std7is_sameIS7_bEE5valuentsr3std7is_sameIS7_T_EE5valueEiE4typeELi0EEET0_SB_S7_
PUBLIC 26098 0 _ZN3fmt3v116detail5writeIcNS0_14basic_appenderIcEExTnNSt6__ndk19enable_ifIXaaaasr11is_integralIT1_EE5valuentsr3std7is_sameIS7_bEE5valuentsr3std7is_sameIS7_T_EE5valueEiE4typeELi0EEET0_SB_S7_
PUBLIC 2631c 0 _ZN3fmt3v116detail5writeIcNS0_14basic_appenderIcEEyTnNSt6__ndk19enable_ifIXaaaasr11is_integralIT1_EE5valuentsr3std7is_sameIS7_bEE5valuentsr3std7is_sameIS7_T_EE5valueEiE4typeELi0EEET0_SB_S7_
PUBLIC 26524 0 _ZN3fmt3v116detail5writeIcNS0_14basic_appenderIcEEnTnNSt6__ndk19enable_ifIXaaaasr11is_integralIT1_EE5valuentsr3std7is_sameIS7_bEE5valuentsr3std7is_sameIS7_T_EE5valueEiE4typeELi0EEET0_SB_S7_
PUBLIC 26884 0 _ZN3fmt3v116detail5writeIcNS0_14basic_appenderIcEEoTnNSt6__ndk19enable_ifIXaaaasr11is_integralIT1_EE5valuentsr3std7is_sameIS7_bEE5valuentsr3std7is_sameIS7_T_EE5valueEiE4typeELi0EEET0_SB_S7_
PUBLIC 26b98 0 _ZN3fmt3v116detail5writeIcNS0_14basic_appenderIcEEbTnNSt6__ndk19enable_ifIXsr3std7is_sameIT1_bEE5valueEiE4typeELi0EEET0_SA_S7_RKNS0_12format_specsENS1_10locale_refE
PUBLIC 26e28 0 fmt::v11::detail::write_int_noinline<char, fmt::v11::basic_appender<char>, unsigned int>(fmt::v11::basic_appender<char>, fmt::v11::detail::write_int_arg<unsigned int>, fmt::v11::format_specs const&, fmt::v11::detail::locale_ref)
PUBLIC 27c04 0 fmt::v11::detail::fill<char, fmt::v11::basic_appender<char> >(fmt::v11::basic_appender<char>, unsigned long, fmt::v11::detail::fill_t const&)
PUBLIC 27dd4 0 fmt::v11::detail::write_padded<char, (fmt::v11::align::type)1, fmt::v11::basic_appender<char>, fmt::v11::detail::write_char<char, fmt::v11::basic_appender<char> >(fmt::v11::basic_appender<char>, char, fmt::v11::format_specs const&)::{lambda(fmt::v11::basic_appender<char>&)#1}>(fmt::v11::basic_appender<char>, fmt::v11::format_specs const&, unsigned long, unsigned long, fmt::v11::detail::write_char<char, fmt::v11::basic_appender<char> >(fmt::v11::basic_appender<char>, char, fmt::v11::format_specs const&)::{lambda(fmt::v11::basic_appender<char>&)#1})
PUBLIC 28010 0 fmt::v11::detail::write_escaped_cp<fmt::v11::basic_appender<char>, char>(fmt::v11::basic_appender<char>, fmt::v11::detail::find_escape_result<char> const&)
PUBLIC 2831c 0 fmt::v11::detail::write_codepoint<(unsigned long)2, char, fmt::v11::basic_appender<char> >(fmt::v11::basic_appender<char>, char, unsigned int)
PUBLIC 28494 0 fmt::v11::detail::write_codepoint<(unsigned long)8, char, fmt::v11::basic_appender<char> >(fmt::v11::basic_appender<char>, char, unsigned int)
PUBLIC 2860c 0 fmt::v11::detail::write_padded<char, (fmt::v11::align::type)1, fmt::v11::basic_appender<char>, fmt::v11::detail::write_nonfinite<char, fmt::v11::basic_appender<char> >(fmt::v11::basic_appender<char>, bool, fmt::v11::format_specs, fmt::v11::sign::type)::{lambda(fmt::v11::basic_appender<char>&)#1}>(fmt::v11::basic_appender<char>, fmt::v11::format_specs const&, unsigned long, unsigned long, fmt::v11::detail::write_nonfinite<char, fmt::v11::basic_appender<char> >(fmt::v11::basic_appender<char>, bool, fmt::v11::format_specs, fmt::v11::sign::type)::{lambda(fmt::v11::basic_appender<char>&)#1})
PUBLIC 2884c 0 fmt::v11::detail::do_write_float<char, fmt::v11::basic_appender<char>, fmt::v11::detail::dragonbox::decimal_fp<float>, fmt::v11::detail::digit_grouping<char> >(fmt::v11::basic_appender<char>, fmt::v11::detail::dragonbox::decimal_fp<float> const&, fmt::v11::format_specs const&, fmt::v11::detail::float_specs, fmt::v11::detail::locale_ref)
PUBLIC 294c0 0 fmt::v11::detail::do_write_float<char, fmt::v11::basic_appender<char>, fmt::v11::detail::dragonbox::decimal_fp<float>, fmt::v11::detail::digit_grouping<char> >(fmt::v11::basic_appender<char>, fmt::v11::detail::dragonbox::decimal_fp<float> const&, fmt::v11::format_specs const&, fmt::v11::detail::float_specs, fmt::v11::detail::locale_ref)::{lambda(fmt::v11::basic_appender<char>(fmt::v11::basic_appender<char>))#1}::operator() const
PUBLIC 29614 0 fmt::v11::detail::digit_grouping<char>::digit_grouping(fmt::v11::detail::locale_ref, bool)
PUBLIC 29880 0 fmt::v11::detail::digit_grouping<char>::~digit_grouping()
PUBLIC 298c4 0 fmt::v11::detail::write_exponent<char, fmt::v11::basic_appender<char> >(int, fmt::v11::basic_appender<char>)
PUBLIC 29a94 0 _ZN3fmt3v116detail17write_significandIcjTnNSt6__ndk19enable_ifIXsr3std11is_integralIT0_EE5valueEiE4typeELi0EEEPT_S9_S5_iiS8_
PUBLIC 29c10 0 fmt::v11::detail::digit_grouping<char>::apply<fmt::v11::basic_appender<char>, char>(fmt::v11::basic_appender<char>, fmt::v11::basic_string_view<char>) const
PUBLIC 29fc8 0 fmt::v11::basic_memory_buffer<int, (unsigned long)500, std::__ndk1::allocator<int> >::grow(fmt::v11::detail::buffer<int>&, unsigned long)
PUBLIC 2a068 0 fmt::v11::detail::do_write_float<char, fmt::v11::basic_appender<char>, fmt::v11::detail::dragonbox::decimal_fp<double>, fmt::v11::detail::digit_grouping<char> >(fmt::v11::basic_appender<char>, fmt::v11::detail::dragonbox::decimal_fp<double> const&, fmt::v11::format_specs const&, fmt::v11::detail::float_specs, fmt::v11::detail::locale_ref)
PUBLIC 2ad1c 0 fmt::v11::detail::do_write_float<char, fmt::v11::basic_appender<char>, fmt::v11::detail::dragonbox::decimal_fp<double>, fmt::v11::detail::digit_grouping<char> >(fmt::v11::basic_appender<char>, fmt::v11::detail::dragonbox::decimal_fp<double> const&, fmt::v11::format_specs const&, fmt::v11::detail::float_specs, fmt::v11::detail::locale_ref)::{lambda(fmt::v11::basic_appender<char>(fmt::v11::basic_appender<char>))#1}::operator() const
PUBLIC 2ae74 0 _ZN3fmt3v116detail17write_significandIcmTnNSt6__ndk19enable_ifIXsr3std11is_integralIT0_EE5valueEiE4typeELi0EEEPT_S9_S5_iiS8_
PUBLIC 2b004 0 fmt::v11::detail::write_float<char, fmt::v11::basic_appender<char>, long double>(fmt::v11::basic_appender<char>, long double, fmt::v11::format_specs, fmt::v11::detail::locale_ref)
PUBLIC 2bb00 0 fmt::v11::detail::write_padded<char, (fmt::v11::align::type)2, fmt::v11::basic_appender<char>, fmt::v11::detail::write_bytes<char, (fmt::v11::align::type)2, fmt::v11::basic_appender<char> >(fmt::v11::basic_appender<char>, fmt::v11::basic_string_view<char>, fmt::v11::format_specs const&)::{lambda(fmt::v11::basic_appender<char>&)#1}>(fmt::v11::basic_appender<char>, fmt::v11::format_specs const&, unsigned long, unsigned long, fmt::v11::detail::write_bytes<char, (fmt::v11::align::type)2, fmt::v11::basic_appender<char> >(fmt::v11::basic_appender<char>, fmt::v11::basic_string_view<char>, fmt::v11::format_specs const&)::{lambda(fmt::v11::basic_appender<char>&)#1})
PUBLIC 2bcdc 0 fmt::v11::detail::format_dragon(fmt::v11::detail::basic_fp<unsigned __int128>, unsigned int, int, fmt::v11::detail::buffer<char>&, int&)
PUBLIC 2d10c 0 fmt::v11::detail::bigint::operator<<=(int)
PUBLIC 2d230 0 fmt::v11::detail::bigint::assign_pow10(int)
PUBLIC 2d98c 0 fmt::v11::detail::bigint::divmod_assign(fmt::v11::detail::bigint const&)
PUBLIC 2dcac 0 fmt::v11::basic_memory_buffer<unsigned int, (unsigned long)32, std::__ndk1::allocator<unsigned int> >::grow(fmt::v11::detail::buffer<unsigned int>&, unsigned long)
PUBLIC 2dd4c 0 fmt::v11::detail::do_write_float<char, fmt::v11::basic_appender<char>, fmt::v11::detail::big_decimal_fp, fmt::v11::detail::digit_grouping<char> >(fmt::v11::basic_appender<char>, fmt::v11::detail::big_decimal_fp const&, fmt::v11::format_specs const&, fmt::v11::detail::float_specs, fmt::v11::detail::locale_ref)
PUBLIC 2ebfc 0 fmt::v11::detail::do_write_float<char, fmt::v11::basic_appender<char>, fmt::v11::detail::big_decimal_fp, fmt::v11::detail::digit_grouping<char> >(fmt::v11::basic_appender<char>, fmt::v11::detail::big_decimal_fp const&, fmt::v11::format_specs const&, fmt::v11::detail::float_specs, fmt::v11::detail::locale_ref)::{lambda(fmt::v11::basic_appender<char>(fmt::v11::basic_appender<char>))#1}::operator() const
PUBLIC 2ed5c 0 fmt::v11::detail::write_padded<char, (fmt::v11::align::type)2, fmt::v11::basic_appender<char>, fmt::v11::detail::write_ptr<char, fmt::v11::basic_appender<char>, unsigned long>(fmt::v11::basic_appender<char>, unsigned long, fmt::v11::format_specs const*)::{lambda(fmt::v11::basic_appender<char>&)#1}>(fmt::v11::basic_appender<char>, fmt::v11::format_specs const&, unsigned long, unsigned long, fmt::v11::detail::write_ptr<char, fmt::v11::basic_appender<char>, unsigned long>(fmt::v11::basic_appender<char>, unsigned long, fmt::v11::format_specs const*)::{lambda(fmt::v11::basic_appender<char>&)#1})
PUBLIC 2ef70 0 fmt::v11::detail::parse_replacement_field<char, fmt::v11::detail::vformat_to<char>(fmt::v11::detail::buffer<char>&, fmt::v11::basic_string_view<char>, fmt::v11::detail::vformat_args<char>::type, fmt::v11::detail::locale_ref)::format_handler&>(char const*, char const*, fmt::v11::detail::vformat_to<char>(fmt::v11::detail::buffer<char>&, fmt::v11::basic_string_view<char>, fmt::v11::detail::vformat_args<char>::type, fmt::v11::detail::locale_ref)::format_handler&)
PUBLIC 30c0c 0 fmt::v11::detail::parse_dynamic_spec<char>(char const*, char const*, int&, fmt::v11::detail::arg_ref<char>&, fmt::v11::basic_format_parse_context<char>&)
PUBLIC 30e9c 0 fmt::v11::basic_format_args<fmt::v11::context>::get<char>(fmt::v11::basic_string_view<char>) const
PUBLIC 30ff4 0 fmt::v11::detail::write_int_noinline<char, fmt::v11::basic_appender<char>, unsigned long>(fmt::v11::basic_appender<char>, fmt::v11::detail::write_int_arg<unsigned long>, fmt::v11::format_specs const&, fmt::v11::detail::locale_ref)
PUBLIC 31e48 0 fmt::v11::detail::write_int_noinline<char, fmt::v11::basic_appender<char>, unsigned __int128>(fmt::v11::basic_appender<char>, fmt::v11::detail::write_int_arg<unsigned __int128>, fmt::v11::format_specs const&, fmt::v11::detail::locale_ref)
PUBLIC 32eb0 0 _ZN3fmt3v116detail15format_hexfloatIdTnNSt6__ndk19enable_ifIXntsr16is_double_doubleIT_EE5valueEiE4typeELi0EEEvS5_NS0_12format_specsERNS1_6bufferIcEE
PUBLIC 333d0 0 fmt::v11::detail::format_float<double>(double, int, fmt::v11::detail::float_specs, fmt::v11::detail::buffer<char>&)
PUBLIC 33d70 0 fmt::v11::detail::write<char, fmt::v11::basic_appender<char> >(fmt::v11::basic_appender<char>, fmt::v11::basic_string_view<char>, fmt::v11::format_specs const&)
PUBLIC 350dc 0 fmt::v11::detail::for_each_codepoint<fmt::v11::detail::compute_width(fmt::v11::basic_string_view<char>)::count_code_points>(fmt::v11::basic_string_view<char>, fmt::v11::detail::compute_width(fmt::v11::basic_string_view<char>)::count_code_points)::{lambda(char const*, char const*)#1}::operator()(char const*, char const*) const
PUBLIC 35294 0 fmt::v11::detail::write_int<fmt::v11::basic_appender<char>, unsigned long, char>(fmt::v11::basic_appender<char>, unsigned long, unsigned int, fmt::v11::format_specs const&, fmt::v11::detail::digit_grouping<char> const&)
PUBLIC 35810 0 fmt::v11::detail::write_int<fmt::v11::basic_appender<char>, unsigned __int128, char>(fmt::v11::basic_appender<char>, unsigned __int128, unsigned int, fmt::v11::format_specs const&, fmt::v11::detail::digit_grouping<char> const&)
PUBLIC 35e90 0 <.plt ELF section in raydeeux.custommodlogos.android64.so>
STACK CFI INIT 11cb0 10 .cfa: sp 0 +
STACK CFI INIT 11cc0 8 .cfa: sp 0 +
STACK CFI INIT 11cc8 8 .cfa: sp 0 +
STACK CFI INIT 11cd0 14 .cfa: sp 0 +
STACK CFI INIT 11ce4 1c .cfa: sp 0 +
STACK CFI INIT 11d00 10 .cfa: sp 0 +
STACK CFI INIT 11d10 30 .cfa: sp 0 +
STACK CFI INIT 11d40 98 .cfa: sp 0 +
STACK CFI INIT 11dd8 59c .cfa: sp 0 +
STACK CFI INIT 12374 8c .cfa: sp 0 +
STACK CFI INIT 12400 30 .cfa: sp 0 +
STACK CFI INIT 12524 80 .cfa: sp 0 +
STACK CFI 12528 .cfa: sp 48 +
STACK CFI 12534 .cfa: x29 48 + x19: .cfa -8 + ^ x20: .cfa -16 + ^ x21: .cfa -24 + ^ x22: .cfa -32 + ^ .ra: .cfa -40 + ^ x29: .cfa -48 + ^
STACK CFI 1254c .cfa: sp 48 +
STACK CFI 12558 .cfa: sp 0 +
STACK CFI 1255c .cfa: x29 48 +
STACK CFI 1258c .cfa: sp 48 +
STACK CFI 12598 .cfa: sp 0 +
STACK CFI 1259c .cfa: x29 48 +
STACK CFI INIT 125a4 14 .cfa: sp 0 +
STACK CFI 125a8 .cfa: sp 16 +
STACK CFI 125ac .cfa: x29 16 + .ra: .cfa -8 + ^ x29: .cfa -16 + ^
STACK CFI INIT 12608 30 .cfa: sp 0 +
STACK CFI 1260c .cfa: sp 32 +
STACK CFI 12614 .cfa: x29 32 + x19: .cfa -16 + ^ .ra: .cfa -24 + ^ x29: .cfa -32 + ^
STACK CFI 1262c .cfa: sp 32 +
STACK CFI 12634 .cfa: sp 0 +
STACK CFI INIT 12638 10 .cfa: sp 0 +
STACK CFI 1263c .cfa: sp 16 +
STACK CFI 12640 .cfa: x29 16 + .ra: .cfa -8 + ^ x29: .cfa -16 + ^
STACK CFI INIT 1277c 104 .cfa: sp 0 +
STACK CFI 12780 .cfa: sp 64 +
STACK CFI 12790 .cfa: x29 64 + x19: .cfa -8 + ^ x20: .cfa -16 + ^ x21: .cfa -24 + ^ x22: .cfa -32 + ^ x23: .cfa -48 + ^ .ra: .cfa -56 + ^ x29: .cfa -64 + ^
STACK CFI 127ec .cfa: sp 64 +
STACK CFI 127fc .cfa: sp 0 +
STACK CFI 12800 .cfa: x29 64 +
STACK CFI 1281c .cfa: sp 64 +
STACK CFI 1282c .cfa: sp 0 +
STACK CFI 12830 .cfa: x29 64 +
STACK CFI 1286c .cfa: sp 64 +
STACK CFI 1287c .cfa: sp 0 +
STACK CFI INIT 12ef0 50 .cfa: sp 0 +
STACK CFI 12ef4 .cfa: sp 32 +
STACK CFI 12efc .cfa: x29 32 + x19: .cfa -16 + ^ .ra: .cfa -24 + ^ x29: .cfa -32 + ^
STACK CFI 12f14 .cfa: sp 32 +
STACK CFI 12f1c .cfa: sp 0 +
STACK CFI 12f20 .cfa: x29 32 +
STACK CFI 12f34 .cfa: sp 32 +
STACK CFI 12f3c .cfa: sp 0 +
STACK CFI INIT 12f40 50 .cfa: sp 0 +
STACK CFI 12f44 .cfa: sp 32 +
STACK CFI 12f4c .cfa: x29 32 + x19: .cfa -16 + ^ .ra: .cfa -24 + ^ x29: .cfa -32 + ^
STACK CFI 12f64 .cfa: sp 32 +
STACK CFI 12f6c .cfa: sp 0 +
STACK CFI 12f70 .cfa: x29 32 +
STACK CFI 12f84 .cfa: sp 32 +
STACK CFI 12f8c .cfa: sp 0 +
STACK CFI INIT 12f90 24 .cfa: sp 0 +
STACK CFI 12f94 .cfa: sp 32 +
STACK CFI 12f9c .cfa: x29 32 + x19: .cfa -16 + ^ .ra: .cfa -24 + ^ x29: .cfa -32 + ^
STACK CFI 12fa8 .cfa: sp 32 +
STACK CFI 12fb0 .cfa: sp 0 +
STACK CFI INIT 12fb4 8 .cfa: sp 0 +
STACK CFI INIT 12fbc 8 .cfa: sp 0 +
STACK CFI INIT 12fc4 8 .cfa: sp 0 +
STACK CFI INIT 12fcc 4 .cfa: sp 0 +
STACK CFI INIT 12fd0 8 .cfa: sp 0 +
STACK CFI INIT 12fd8 8c .cfa: sp 0 +
STACK CFI 12fdc .cfa: sp 32 +
STACK CFI 12fe4 .cfa: x29 32 + x19: .cfa -8 + ^ x20: .cfa -16 + ^ .ra: .cfa -24 + ^ x29: .cfa -32 + ^
STACK CFI 13030 .cfa: sp 32 +
STACK CFI 13038 .cfa: sp 0 +
STACK CFI 1303c .cfa: x29 32 +
STACK CFI 13058 .cfa: sp 32 +
STACK CFI 13060 .cfa: sp 0 +
STACK CFI INIT 13064 9c .cfa: sp 0 +
STACK CFI 13068 .cfa: sp 32 +
STACK CFI 13070 .cfa: x29 32 + x19: .cfa -8 + ^ x20: .cfa -16 + ^ .ra: .cfa -24 + ^ x29: .cfa -32 + ^
STACK CFI 130c4 .cfa: sp 32 +
STACK CFI 130cc .cfa: sp 0 +
STACK CFI 130d0 .cfa: x29 32 +
STACK CFI 130f4 .cfa: sp 32 +
STACK CFI 130fc .cfa: sp 0 +
STACK CFI INIT 13100 4 .cfa: sp 0 +
STACK CFI INIT 13104 4 .cfa: sp 0 +
STACK CFI INIT 13108 8 .cfa: sp 0 +
STACK CFI INIT 13110 8 .cfa: sp 0 +
STACK CFI INIT 131c0 34 .cfa: sp 0 +
STACK CFI 131c4 .cfa: sp 16 +
STACK CFI 131c8 .cfa: x29 16 + .ra: .cfa -8 + ^ x29: .cfa -16 + ^
STACK CFI INIT 131f4 34 .cfa: sp 0 +
STACK CFI 131f8 .cfa: sp 16 +
STACK CFI 131fc .cfa: x29 16 + .ra: .cfa -8 + ^ x29: .cfa -16 + ^
STACK CFI INIT 13228 60 .cfa: sp 0 +
STACK CFI 1322c .cfa: sp 32 +
STACK CFI 13234 .cfa: x29 32 + x19: .cfa -8 + ^ x20: .cfa -16 + ^ .ra: .cfa -24 + ^ x29: .cfa -32 + ^
STACK CFI 13254 .cfa: sp 32 +
STACK CFI 1325c .cfa: sp 0 +
STACK CFI 13260 .cfa: x29 32 +
STACK CFI 1327c .cfa: sp 32 +
STACK CFI 13284 .cfa: sp 0 +
STACK CFI INIT 14304 18 .cfa: sp 0 +
STACK CFI INIT 1431c 54 .cfa: sp 0 +
STACK CFI 14320 .cfa: sp 32 +
STACK CFI 14328 .cfa: x29 32 + x19: .cfa -16 + ^ .ra: .cfa -24 + ^ x29: .cfa -32 + ^
STACK CFI 14344 .cfa: sp 32 +
STACK CFI 1434c .cfa: sp 0 +
STACK CFI 14350 .cfa: x29 32 +
STACK CFI 14364 .cfa: sp 32 +
STACK CFI 1436c .cfa: sp 0 +
STACK CFI INIT 14a80 26c .cfa: sp 0 +
STACK CFI 14a84 .cfa: sp 112 +
STACK CFI 14aa0 .cfa: x29 96 + x19: .cfa -8 + ^ x20: .cfa -16 + ^ x21: .cfa -24 + ^ x22: .cfa -32 + ^ x23: .cfa -40 + ^ x24: .cfa -48 + ^ x25: .cfa -56 + ^ x26: .cfa -64 + ^ x27: .cfa -72 + ^ x28: .cfa -80 + ^ .ra: .cfa -88 + ^ x29: .cfa -96 + ^
STACK CFI 14ccc .cfa: sp 112 +
STACK CFI 14ce8 .cfa: sp 0 +
STACK CFI INIT 14cec 1a8 .cfa: sp 0 +
STACK CFI 14cf0 .cfa: sp 64 +
STACK CFI 14d00 .cfa: x29 64 + x19: .cfa -8 + ^ x20: .cfa -16 + ^ x21: .cfa -24 + ^ x22: .cfa -32 + ^ x23: .cfa -48 + ^ .ra: .cfa -56 + ^ x29: .cfa -64 + ^
STACK CFI 14d84 .cfa: sp 64 +
STACK CFI 14d94 .cfa: sp 0 +
STACK CFI 14d98 .cfa: x29 64 +
STACK CFI 14da0 .cfa: sp 64 +
STACK CFI 14db0 .cfa: sp 0 +
STACK CFI 14db4 .cfa: x29 64 +
STACK CFI 14e7c .cfa: sp 64 +
STACK CFI 14e8c .cfa: sp 0 +
STACK CFI 14e90 .cfa: x29 64 +
STACK CFI INIT 14e94 170 .cfa: sp 0 +
STACK CFI 14e98 .cfa: sp 96 +
STACK CFI 14eb0 .cfa: x29 96 + x19: .cfa -8 + ^ x20: .cfa -16 + ^ x21: .cfa -24 + ^ x22: .cfa -32 + ^ x23: .cfa -40 + ^ x24: .cfa -48 + ^ x25: .cfa -56 + ^ x26: .cfa -64 + ^ x27: .cfa -80 + ^ .ra: .cfa -88 + ^ x29: .cfa -96 + ^
STACK CFI 14fe4 .cfa: sp 96 +
STACK CFI 14ffc .cfa: sp 0 +
STACK CFI 15000 .cfa: x29 96 +
STACK CFI INIT 15050 4 .cfa: sp 0 +
STACK CFI INIT 15054 c .cfa: sp 0 +
STACK CFI INIT 15060 4 .cfa: sp 0 +
STACK CFI INIT 15064 4 .cfa: sp 0 +
STACK CFI INIT 15068 24 .cfa: sp 0 +
STACK CFI 1506c .cfa: sp 32 +
STACK CFI 15074 .cfa: x29 32 + x19: .cfa -16 + ^ .ra: .cfa -24 + ^ x29: .cfa -32 + ^
STACK CFI 15080 .cfa: sp 32 +
STACK CFI 15088 .cfa: sp 0 +
STACK CFI INIT 1508c 18 .cfa: sp 0 +
STACK CFI INIT 150a4 1c .cfa: sp 0 +
STACK CFI INIT 150c0 4 .cfa: sp 0 +
STACK CFI INIT 150c4 48 .cfa: sp 0 +
STACK CFI 150e0 .cfa: sp 32 +
STACK CFI 150e8 .cfa: x29 32 + x19: .cfa -16 + ^ .ra: .cfa -24 + ^ x29: .cfa -32 + ^
STACK CFI 15100 .cfa: sp 32 +
STACK CFI 15108 .cfa: sp 0 +
STACK CFI INIT 1510c 14 .cfa: sp 0 +
STACK CFI INIT 15120 48 .cfa: sp 0 +
STACK CFI 1513c .cfa: sp 32 +
STACK CFI 15144 .cfa: x29 32 + x19: .cfa -16 + ^ .ra: .cfa -24 + ^ x29: .cfa -32 + ^
STACK CFI 1515c .cfa: sp 32 +
STACK CFI 15164 .cfa: sp 0 +
STACK CFI INIT 15b10 3f4 .cfa: sp 0 +
STACK CFI 15b14 .cfa: sp 32 +
STACK CFI 15b1c .cfa: x29 32 + x19: .cfa -16 + ^ .ra: .cfa -24 + ^ x29: .cfa -32 + ^
STACK CFI 15c68 .cfa: sp 32 +
STACK CFI 15c70 .cfa: sp 0 +
STACK CFI 15c74 .cfa: x29 32 +
STACK CFI 15c7c .cfa: sp 32 +
STACK CFI 15c84 .cfa: sp 0 +
STACK CFI 15c88 .cfa: x29 32 +
STACK CFI 15cc4 .cfa: sp 32 +
STACK CFI 15ccc .cfa: sp 0 +
STACK CFI 15cd0 .cfa: x29 32 +
STACK CFI 15d0c .cfa: sp 32 +
STACK CFI 15d14 .cfa: sp 0 +
STACK CFI 15d18 .cfa: x29 32 +
STACK CFI 15d44 .cfa: sp 32 +
STACK CFI 15d4c .cfa: sp 0 +
STACK CFI 15d50 .cfa: x29 32 +
STACK CFI 15d6c .cfa: sp 32 +
STACK CFI 15d74 .cfa: sp 0 +
STACK CFI 15d78 .cfa: x29 32 +
STACK CFI 15ddc .cfa: sp 32 +
STACK CFI 15de4 .cfa: sp 0 +
STACK CFI 15de8 .cfa: x29 32 +
STACK CFI 15eb8 .cfa: sp 32 +
STACK CFI 15ec0 .cfa: sp 0 +
STACK CFI 15ec4 .cfa: x29 32 +
STACK CFI 15ef0 .cfa: sp 32 +
STACK CFI 15ef8 .cfa: sp 0 +
STACK CFI 15efc .cfa: x29 32 +
STACK CFI INIT 15f70 b4 .cfa: sp 0 +
STACK CFI 15f74 .cfa: sp 64 +
STACK CFI 15f84 .cfa: x29 64 + x19: .cfa -8 + ^ x20: .cfa -16 + ^ x21: .cfa -24 + ^ x22: .cfa -32 + ^ x23: .cfa -48 + ^ .ra: .cfa -56 + ^ x29: .cfa -64 + ^
STACK CFI 16010 .cfa: sp 64 +
STACK CFI 16020 .cfa: sp 0 +
STACK CFI INIT 16070 48 .cfa: sp 0 +
STACK CFI 1608c .cfa: sp 32 +
STACK CFI 16094 .cfa: x29 32 + x19: .cfa -16 + ^ .ra: .cfa -24 + ^ x29: .cfa -32 + ^
STACK CFI 160ac .cfa: sp 32 +
STACK CFI 160b4 .cfa: sp 0 +
STACK CFI INIT 160b8 64 .cfa: sp 0 +
STACK CFI INIT 1611c 48 .cfa: sp 0 +
STACK CFI 16138 .cfa: sp 32 +
STACK CFI 16140 .cfa: x29 32 + x19: .cfa -16 + ^ .ra: .cfa -24 + ^ x29: .cfa -32 + ^
STACK CFI 16158 .cfa: sp 32 +
STACK CFI 16160 .cfa: sp 0 +
STACK CFI INIT 16164 54 .cfa: sp 0 +
STACK CFI INIT 161b8 5c .cfa: sp 0 +
STACK CFI 161bc .cfa: sp 32 +
STACK CFI 161c4 .cfa: x29 32 + x19: .cfa -16 + ^ .ra: .cfa -24 + ^ x29: .cfa -32 + ^
STACK CFI 161fc .cfa: sp 32 +
STACK CFI 16204 .cfa: sp 0 +
STACK CFI 16208 .cfa: sp 32 +
STACK CFI 16210 .cfa: sp 0 +
STACK CFI INIT 16214 58 .cfa: sp 0 +
STACK CFI 16218 .cfa: sp 32 +
STACK CFI 16220 .cfa: x29 32 + x19: .cfa -16 + ^ .ra: .cfa -24 + ^ x29: .cfa -32 + ^
STACK CFI 16260 .cfa: sp 32 +
STACK CFI 16268 .cfa: sp 0 +
STACK CFI INIT 1626c 110 .cfa: sp 0 +
STACK CFI INIT 1637c 90 .cfa: sp 0 +
STACK CFI 16380 .cfa: sp 32 +
STACK CFI 16388 .cfa: x29 32 + x19: .cfa -8 + ^ x20: .cfa -16 + ^ .ra: .cfa -24 + ^ x29: .cfa -32 + ^
STACK CFI 163f4 .cfa: sp 32 +
STACK CFI 163fc .cfa: sp 0 +
STACK CFI 16400 .cfa: sp 32 +
STACK CFI 16408 .cfa: sp 0 +
STACK CFI INIT 1640c 8c .cfa: sp 0 +
STACK CFI 16410 .cfa: sp 32 +
STACK CFI 16418 .cfa: x29 32 + x19: .cfa -8 + ^ x20: .cfa -16 + ^ .ra: .cfa -24 + ^ x29: .cfa -32 + ^
STACK CFI 1648c .cfa: sp 32 +
STACK CFI 16494 .cfa: sp 0 +
STACK CFI INIT 16ab8 1c8 .cfa: sp 0 +
STACK CFI 16abc .cfa: sp 48 +
STACK CFI 16ac8 .cfa: x29 48 + x19: .cfa -8 + ^ x20: .cfa -16 + ^ x21: .cfa -24 + ^ x22: .cfa -32 + ^ .ra: .cfa -40 + ^ x29: .cfa -48 + ^
STACK CFI 16c50 .cfa: sp 48 +
STACK CFI 16c5c .cfa: sp 0 +
STACK CFI 16c60 .cfa: x29 48 +
STACK CFI 16c6c .cfa: sp 48 +
STACK CFI 16c78 .cfa: sp 0 +
STACK CFI 16c7c .cfa: x29 48 +
STACK CFI INIT 16c80 14 .cfa: sp 0 +
STACK CFI 16c84 .cfa: sp 16 +
STACK CFI 16c88 .cfa: x29 16 + .ra: .cfa -8 + ^ x29: .cfa -16 + ^
STACK CFI INIT 16c94 34 .cfa: sp 0 +
STACK CFI 16c98 .cfa: sp 32 +
STACK CFI 16ca0 .cfa: x29 32 + x19: .cfa -16 + ^ .ra: .cfa -24 + ^ x29: .cfa -32 + ^
STACK CFI INIT 16cc8 44 .cfa: sp 0 +
STACK CFI 16ccc .cfa: sp 32 +
STACK CFI 16cd4 .cfa: x29 32 + x19: .cfa -16 + ^ .ra: .cfa -24 + ^ x29: .cfa -32 + ^
STACK CFI 16cf4 .cfa: sp 32 +
STACK CFI 16cfc .cfa: sp 0 +
STACK CFI 16d00 .cfa: sp 32 +
STACK CFI 16d08 .cfa: sp 0 +
STACK CFI INIT 16f14 98 .cfa: sp 0 +
STACK CFI 16f18 .cfa: sp 48 +
STACK CFI 16f24 .cfa: x29 48 + x19: .cfa -8 + ^ x20: .cfa -16 + ^ x21: .cfa -32 + ^ .ra: .cfa -40 + ^ x29: .cfa -48 + ^
STACK CFI 16f44 .cfa: sp 48 +
STACK CFI 16f50 .cfa: sp 0 +
STACK CFI 16f54 .cfa: x29 48 +
STACK CFI 16f8c .cfa: sp 48 +
STACK CFI 16f98 .cfa: sp 0 +
STACK CFI 16f9c .cfa: sp 48 +
STACK CFI 16fa8 .cfa: sp 0 +
STACK CFI INIT 16fac 1dc .cfa: sp 0 +
STACK CFI 16fb0 .cfa: sp 48 +
STACK CFI 16fbc .cfa: x29 48 + x19: .cfa -8 + ^ x20: .cfa -16 + ^ x21: .cfa -24 + ^ x22: .cfa -32 + ^ .ra: .cfa -40 + ^ x29: .cfa -48 + ^
STACK CFI 17170 .cfa: sp 48 +
STACK CFI 1717c .cfa: sp 0 +
STACK CFI 17180 .cfa: x29 48 +
STACK CFI INIT 17188 14 .cfa: sp 0 +
STACK CFI 1718c .cfa: sp 16 +
STACK CFI 17190 .cfa: x29 16 + .ra: .cfa -8 + ^ x29: .cfa -16 + ^
STACK CFI INIT 1719c 1a8 .cfa: sp 0 +
STACK CFI 171a0 .cfa: sp 64 +
STACK CFI 171b0 .cfa: x29 64 + x19: .cfa -8 + ^ x20: .cfa -16 + ^ x21: .cfa -24 + ^ x22: .cfa -32 + ^ x23: .cfa -40 + ^ x24: .cfa -48 + ^ .ra: .cfa -56 + ^ x29: .cfa -64 + ^
STACK CFI 17314 .cfa: sp 64 +
STACK CFI 17324 .cfa: sp 0 +
STACK CFI 17328 .cfa: sp 64 +
STACK CFI 17338 .cfa: sp 0 +
STACK CFI 1733c .cfa: x29 64 +
STACK CFI INIT 17344 12c .cfa: sp 0 +
STACK CFI 17348 .cfa: sp 64 +
STACK CFI 17358 .cfa: x29 64 + x19: .cfa -8 + ^ x20: .cfa -16 + ^ x21: .cfa -24 + ^ x22: .cfa -32 + ^ x23: .cfa -40 + ^ x24: .cfa -48 + ^ .ra: .cfa -56 + ^ x29: .cfa -64 + ^
STACK CFI 17440 .cfa: sp 64 +
STACK CFI 17450 .cfa: sp 0 +
STACK CFI 17454 .cfa: sp 64 +
STACK CFI 17464 .cfa: sp 0 +
STACK CFI 17468 .cfa: x29 64 +
STACK CFI INIT 17470 14 .cfa: sp 0 +
STACK CFI 17474 .cfa: sp 16 +
STACK CFI 17478 .cfa: x29 16 + .ra: .cfa -8 + ^ x29: .cfa -16 + ^
STACK CFI INIT 185c4 48 .cfa: sp 0 +
STACK CFI 185e0 .cfa: sp 32 +
STACK CFI 185e8 .cfa: x29 32 + x19: .cfa -16 + ^ .ra: .cfa -24 + ^ x29: .cfa -32 + ^
STACK CFI 18600 .cfa: sp 32 +
STACK CFI 18608 .cfa: sp 0 +
STACK CFI INIT 18658 50c .cfa: sp 0 +
STACK CFI 1865c .cfa: sp 32 +
STACK CFI 18664 .cfa: x29 32 + x19: .cfa -16 + ^ .ra: .cfa -24 + ^ x29: .cfa -32 + ^
STACK CFI 187ac .cfa: sp 32 +
STACK CFI 187b4 .cfa: sp 0 +
STACK CFI 187b8 .cfa: x29 32 +
STACK CFI 18928 .cfa: sp 32 +
STACK CFI 18930 .cfa: sp 0 +
STACK CFI 18934 .cfa: x29 32 +
STACK CFI 18950 .cfa: sp 32 +
STACK CFI 18958 .cfa: sp 0 +
STACK CFI 1895c .cfa: x29 32 +
STACK CFI 189b8 .cfa: sp 32 +
STACK CFI 189c0 .cfa: sp 0 +
STACK CFI 189c4 .cfa: x29 32 +
STACK CFI 189e0 .cfa: sp 32 +
STACK CFI 189e8 .cfa: sp 0 +
STACK CFI 189ec .cfa: x29 32 +
STACK CFI 18a08 .cfa: sp 32 +
STACK CFI 18a10 .cfa: sp 0 +
STACK CFI 18a14 .cfa: x29 32 +
STACK CFI 18a30 .cfa: sp 32 +
STACK CFI 18a38 .cfa: sp 0 +
STACK CFI 18a3c .cfa: x29 32 +
STACK CFI 18a54 .cfa: sp 32 +
STACK CFI 18a5c .cfa: sp 0 +
STACK CFI 18a60 .cfa: x29 32 +
STACK CFI 18a7c .cfa: sp 32 +
STACK CFI 18a84 .cfa: sp 0 +
STACK CFI 18a88 .cfa: x29 32 +
STACK CFI 18aa4 .cfa: sp 32 +
STACK CFI 18aac .cfa: sp 0 +
STACK CFI 18ab0 .cfa: x29 32 +
STACK CFI 18acc .cfa: sp 32 +
STACK CFI 18ad4 .cfa: sp 0 +
STACK CFI 18ad8 .cfa: x29 32 +
STACK CFI 18b2c .cfa: sp 32 +
STACK CFI 18b34 .cfa: sp 0 +
STACK CFI 18b38 .cfa: x29 32 +
STACK CFI 18b54 .cfa: sp 32 +
STACK CFI 18b5c .cfa: sp 0 +
STACK CFI 18b60 .cfa: x29 32 +
STACK CFI INIT 18cf0 c8 .cfa: sp 0 +
STACK CFI 18cf4 .cfa: sp 48 +
STACK CFI 18d00 .cfa: x29 48 + x19: .cfa -8 + ^ x20: .cfa -16 + ^ x21: .cfa -32 + ^ .ra: .cfa -40 + ^ x29: .cfa -48 + ^
STACK CFI 18da8 .cfa: sp 48 +
STACK CFI 18db4 .cfa: sp 0 +
STACK CFI INIT 18db8 5c .cfa: sp 0 +
STACK CFI 18dbc .cfa: sp 32 +
STACK CFI 18dc4 .cfa: x29 32 + x19: .cfa -16 + ^ .ra: .cfa -24 + ^ x29: .cfa -32 + ^
STACK CFI 18dfc .cfa: sp 32 +
STACK CFI 18e04 .cfa: sp 0 +
STACK CFI 18e08 .cfa: sp 32 +
STACK CFI 18e10 .cfa: sp 0 +
STACK CFI INIT 18e14 58 .cfa: sp 0 +
STACK CFI 18e18 .cfa: sp 32 +
STACK CFI 18e20 .cfa: x29 32 + x19: .cfa -16 + ^ .ra: .cfa -24 + ^ x29: .cfa -32 + ^
STACK CFI 18e60 .cfa: sp 32 +
STACK CFI 18e68 .cfa: sp 0 +
STACK CFI INIT 18e6c 80 .cfa: sp 0 +
STACK CFI 18e70 .cfa: sp 32 +
STACK CFI 18e78 .cfa: x29 32 + x19: .cfa -8 + ^ x20: .cfa -16 + ^ .ra: .cfa -24 + ^ x29: .cfa -32 + ^
STACK CFI 18ec8 .cfa: sp 32 +
STACK CFI 18ed0 .cfa: sp 0 +
STACK CFI 18ed4 .cfa: x29 32 +
STACK CFI 18ee0 .cfa: sp 32 +
STACK CFI 18ee8 .cfa: sp 0 +
STACK CFI INIT 18eec 5c .cfa: sp 0 +
STACK CFI 18ef0 .cfa: sp 32 +
STACK CFI 18ef8 .cfa: x29 32 + x19: .cfa -16 + ^ .ra: .cfa -24 + ^ x29: .cfa -32 + ^
STACK CFI 18f30 .cfa: sp 32 +
STACK CFI 18f38 .cfa: sp 0 +
STACK CFI 18f3c .cfa: sp 32 +
STACK CFI 18f44 .cfa: sp 0 +
STACK CFI INIT 18f48 58 .cfa: sp 0 +
STACK CFI 18f4c .cfa: sp 32 +
STACK CFI 18f54 .cfa: x29 32 + x19: .cfa -16 + ^ .ra: .cfa -24 + ^ x29: .cfa -32 + ^
STACK CFI 18f94 .cfa: sp 32 +
STACK CFI 18f9c .cfa: sp 0 +
STACK CFI INIT 18fa0 48 .cfa: sp 0 +
STACK CFI INIT 18fe8 48 .cfa: sp 0 +
STACK CFI 19004 .cfa: sp 32 +
STACK CFI 1900c .cfa: x29 32 + x19: .cfa -16 + ^ .ra: .cfa -24 + ^ x29: .cfa -32 + ^
STACK CFI 19024 .cfa: sp 32 +
STACK CFI 1902c .cfa: sp 0 +
STACK CFI INIT 19030 48 .cfa: sp 0 +
STACK CFI INIT 19078 5c .cfa: sp 0 +
STACK CFI 1907c .cfa: sp 32 +
STACK CFI 19084 .cfa: x29 32 + x19: .cfa -16 + ^ .ra: .cfa -24 + ^ x29: .cfa -32 + ^
STACK CFI 190bc .cfa: sp 32 +
STACK CFI 190c4 .cfa: sp 0 +
STACK CFI 190c8 .cfa: sp 32 +
STACK CFI 190d0 .cfa: sp 0 +
STACK CFI INIT 190d4 58 .cfa: sp 0 +
STACK CFI 190d8 .cfa: sp 32 +
STACK CFI 190e0 .cfa: x29 32 + x19: .cfa -16 + ^ .ra: .cfa -24 + ^ x29: .cfa -32 + ^
STACK CFI 19120 .cfa: sp 32 +
STACK CFI 19128 .cfa: sp 0 +
STACK CFI INIT 1912c f8 .cfa: sp 0 +
STACK CFI 19130 .cfa: sp 64 +
STACK CFI 19140 .cfa: x29 64 + x19: .cfa -8 + ^ x20: .cfa -16 + ^ x21: .cfa -24 + ^ x22: .cfa -32 + ^ x23: .cfa -40 + ^ x24: .cfa -48 + ^ .ra: .cfa -56 + ^ x29: .cfa -64 + ^
STACK CFI 19184 .cfa: sp 64 +
STACK CFI 19194 .cfa: sp 0 +
STACK CFI 19198 .cfa: x29 64 +
STACK CFI 19210 .cfa: sp 64 +
STACK CFI 19220 .cfa: sp 0 +
STACK CFI INIT 19224 5c .cfa: sp 0 +
STACK CFI 19228 .cfa: sp 32 +
STACK CFI 19230 .cfa: x29 32 + x19: .cfa -16 + ^ .ra: .cfa -24 + ^ x29: .cfa -32 + ^
STACK CFI 19268 .cfa: sp 32 +
STACK CFI 19270 .cfa: sp 0 +
STACK CFI 19274 .cfa: sp 32 +
STACK CFI 1927c .cfa: sp 0 +
STACK CFI INIT 19280 58 .cfa: sp 0 +
STACK CFI 19284 .cfa: sp 32 +
STACK CFI 1928c .cfa: x29 32 + x19: .cfa -16 + ^ .ra: .cfa -24 + ^ x29: .cfa -32 + ^
STACK CFI 192cc .cfa: sp 32 +
STACK CFI 192d4 .cfa: sp 0 +
STACK CFI INIT 192d8 90 .cfa: sp 0 +
STACK CFI INIT 19368 48 .cfa: sp 0 +
STACK CFI 19384 .cfa: sp 32 +
STACK CFI 1938c .cfa: x29 32 + x19: .cfa -16 + ^ .ra: .cfa -24 + ^ x29: .cfa -32 + ^
STACK CFI 193a4 .cfa: sp 32 +
STACK CFI 193ac .cfa: sp 0 +
STACK CFI INIT 193b0 d0 .cfa: sp 0 +
STACK CFI 193b4 .cfa: sp 48 +
STACK CFI 193c0 .cfa: x29 48 + x19: .cfa -8 + ^ x20: .cfa -16 + ^ x21: .cfa -24 + ^ x22: .cfa -32 + ^ .ra: .cfa -40 + ^ x29: .cfa -48 + ^
STACK CFI 19444 .cfa: sp 48 +
STACK CFI 19450 .cfa: sp 0 +
STACK CFI 19454 .cfa: x29 48 +
STACK CFI 1946c .cfa: sp 48 +
STACK CFI 19478 .cfa: sp 0 +
STACK CFI 1947c .cfa: x29 48 +
STACK CFI INIT 19480 4b0 .cfa: sp 0 +
STACK CFI 19484 .cfa: sp 80 +
STACK CFI 19498 .cfa: x29 80 + x19: .cfa -8 + ^ x20: .cfa -16 + ^ x21: .cfa -24 + ^ x22: .cfa -32 + ^ x23: .cfa -40 + ^ x24: .cfa -48 + ^ x25: .cfa -64 + ^ .ra: .cfa -72 + ^ x29: .cfa -80 + ^
STACK CFI 194cc .cfa: sp 80 +
STACK CFI 194e0 .cfa: sp 0 +
STACK CFI 194e4 .cfa: x29 80 +
STACK CFI 198a4 .cfa: sp 80 +
STACK CFI 198b8 .cfa: sp 0 +
STACK CFI 198bc .cfa: x29 80 +
STACK CFI 19914 .cfa: sp 80 +
STACK CFI 19928 .cfa: sp 0 +
STACK CFI 1992c .cfa: x29 80 +
STACK CFI INIT 19b0c 7c .cfa: sp 0 +
STACK CFI 19b10 .cfa: sp 48 +
STACK CFI 19b1c .cfa: x29 48 + x19: .cfa -8 + ^ x20: .cfa -16 + ^ x21: .cfa -32 + ^ .ra: .cfa -40 + ^ x29: .cfa -48 + ^
STACK CFI 19b68 .cfa: sp 48 +
STACK CFI 19b74 .cfa: sp 0 +
STACK CFI 19b78 .cfa: sp 48 +
STACK CFI 19b84 .cfa: sp 0 +
STACK CFI INIT 19b88 a4 .cfa: sp 0 +
STACK CFI 19b8c .cfa: sp 48 +
STACK CFI 19b98 .cfa: x29 48 + x19: .cfa -8 + ^ x20: .cfa -16 + ^ x21: .cfa -32 + ^ .ra: .cfa -40 + ^ x29: .cfa -48 + ^
STACK CFI 19bb8 .cfa: sp 48 +
STACK CFI 19bc4 .cfa: sp 0 +
STACK CFI 19bc8 .cfa: x29 48 +
STACK CFI 19c0c .cfa: sp 48 +
STACK CFI 19c18 .cfa: sp 0 +
STACK CFI 19c1c .cfa: sp 48 +
STACK CFI 19c28 .cfa: sp 0 +
STACK CFI INIT 19c2c 14c .cfa: sp 0 +
STACK CFI 19c30 .cfa: sp 48 +
STACK CFI 19c3c .cfa: x29 48 + x19: .cfa -8 + ^ x20: .cfa -16 + ^ x21: .cfa -32 + ^ .ra: .cfa -40 + ^ x29: .cfa -48 + ^
STACK CFI 19d58 .cfa: sp 48 +
STACK CFI 19d64 .cfa: sp 0 +
STACK CFI 19d68 .cfa: sp 48 +
STACK CFI 19d74 .cfa: sp 0 +
STACK CFI INIT 19d78 24 .cfa: sp 0 +
STACK CFI 19d7c .cfa: sp 32 +
STACK CFI 19d84 .cfa: x29 32 + x19: .cfa -16 + ^ .ra: .cfa -24 + ^ x29: .cfa -32 + ^
STACK CFI 19d90 .cfa: sp 32 +
STACK CFI 19d98 .cfa: sp 0 +
STACK CFI INIT 1aa08 44 .cfa: sp 0 +
STACK CFI 1aa0c .cfa: sp 32 +
STACK CFI 1aa14 .cfa: x29 32 + x19: .cfa -16 + ^ .ra: .cfa -24 + ^ x29: .cfa -32 + ^
STACK CFI 1aa30 .cfa: sp 32 +
STACK CFI 1aa38 .cfa: sp 0 +
STACK CFI 1aa3c .cfa: x29 32 +
STACK CFI 1aa40 .cfa: sp 32 +
STACK CFI 1aa48 .cfa: sp 0 +
STACK CFI INIT 1aa4c ac .cfa: sp 0 +
STACK CFI 1aa50 .cfa: sp 64 +
STACK CFI 1aa60 .cfa: x29 64 + x19: .cfa -8 + ^ x20: .cfa -16 + ^ x21: .cfa -24 + ^ x22: .cfa -32 + ^ x23: .cfa -48 + ^ .ra: .cfa -56 + ^ x29: .cfa -64 + ^
STACK CFI 1aadc .cfa: sp 64 +
STACK CFI 1aaec .cfa: sp 0 +
STACK CFI 1aaf0 .cfa: x29 64 +
STACK CFI INIT 1aaf8 110 .cfa: sp 0 +
STACK CFI 1aafc .cfa: sp 64 +
STACK CFI 1ab0c .cfa: x29 64 + x19: .cfa -8 + ^ x20: .cfa -16 + ^ x21: .cfa -24 + ^ x22: .cfa -32 + ^ x23: .cfa -40 + ^ x24: .cfa -48 + ^ .ra: .cfa -56 + ^ x29: .cfa -64 + ^
STACK CFI 1abec .cfa: sp 64 +
STACK CFI 1abfc .cfa: sp 0 +
STACK CFI 1ac00 .cfa: x29 64 +
STACK CFI INIT 1adcc 14 .cfa: sp 0 +
STACK CFI 1add0 .cfa: sp 16 +
STACK CFI 1add4 .cfa: x29 16 + .ra: .cfa -8 + ^ x29: .cfa -16 + ^
STACK CFI INIT 1ae2c 5c8 .cfa: sp 0 +
STACK CFI 1ae30 .cfa: sp 80 +
STACK CFI 1ae44 .cfa: x29 80 + x19: .cfa -8 + ^ x20: .cfa -16 + ^ x21: .cfa -24 + ^ x22: .cfa -32 + ^ x23: .cfa -40 + ^ x24: .cfa -48 + ^ x25: .cfa -56 + ^ x26: .cfa -64 + ^ .ra: .cfa -72 + ^ x29: .cfa -80 + ^
STACK CFI 1af34 .cfa: sp 80 +
STACK CFI 1af48 .cfa: sp 0 +
STACK CFI 1af4c .cfa: x29 80 +
STACK CFI 1afa0 .cfa: sp 80 +
STACK CFI 1afb4 .cfa: sp 0 +
STACK CFI 1afb8 .cfa: x29 80 +
STACK CFI 1b3d4 .cfa: sp 80 +
STACK CFI 1b3e8 .cfa: sp 0 +
STACK CFI 1b3ec .cfa: x29 80 +
STACK CFI INIT 1b3f4 4c4 .cfa: sp 0 +
STACK CFI 1b3f8 .cfa: sp 32 +
STACK CFI 1b400 .cfa: x29 32 + x19: .cfa -16 + ^ .ra: .cfa -24 + ^ x29: .cfa -32 + ^
STACK CFI 1b454 .cfa: sp 32 +
STACK CFI 1b45c .cfa: sp 0 +
STACK CFI 1b460 .cfa: x29 32 +
STACK CFI 1b4a0 .cfa: sp 32 +
STACK CFI 1b4a8 .cfa: sp 0 +
STACK CFI 1b4ac .cfa: x29 32 +
STACK CFI 1b4dc .cfa: sp 32 +
STACK CFI 1b4e4 .cfa: sp 0 +
STACK CFI 1b4e8 .cfa: x29 32 +
STACK CFI 1b518 .cfa: sp 32 +
STACK CFI 1b520 .cfa: sp 0 +
STACK CFI 1b524 .cfa: x29 32 +
STACK CFI 1b534 .cfa: sp 32 +
STACK CFI 1b53c .cfa: sp 0 +
STACK CFI 1b540 .cfa: x29 32 +
STACK CFI 1b560 .cfa: sp 32 +
STACK CFI 1b568 .cfa: sp 0 +
STACK CFI 1b56c .cfa: x29 32 +
STACK CFI 1b58c .cfa: sp 32 +
STACK CFI 1b594 .cfa: sp 0 +
STACK CFI 1b598 .cfa: x29 32 +
STACK CFI 1b5b8 .cfa: sp 32 +
STACK CFI 1b5c0 .cfa: sp 0 +
STACK CFI 1b5c4 .cfa: x29 32 +
STACK CFI 1b5e4 .cfa: sp 32 +
STACK CFI 1b5ec .cfa: sp 0 +
STACK CFI 1b5f0 .cfa: x29 32 +
STACK CFI 1b674 .cfa: sp 32 +
STACK CFI 1b67c .cfa: sp 0 +
STACK CFI 1b680 .cfa: x29 32 +
STACK CFI 1b690 .cfa: sp 32 +
STACK CFI 1b698 .cfa: sp 0 +
STACK CFI 1b69c .cfa: x29 32 +
STACK CFI 1b6ac .cfa: sp 32 +
STACK CFI 1b6b4 .cfa: sp 0 +
STACK CFI 1b6b8 .cfa: x29 32 +
STACK CFI 1b6c8 .cfa: sp 32 +
STACK CFI 1b6d0 .cfa: sp 0 +
STACK CFI 1b6d4 .cfa: x29 32 +
STACK CFI 1b6e4 .cfa: sp 32 +
STACK CFI 1b6ec .cfa: sp 0 +
STACK CFI 1b6f0 .cfa: x29 32 +
STACK CFI 1b700 .cfa: sp 32 +
STACK CFI 1b708 .cfa: sp 0 +
STACK CFI 1b70c .cfa: x29 32 +
STACK CFI 1b71c .cfa: sp 32 +
STACK CFI 1b724 .cfa: sp 0 +
STACK CFI 1b728 .cfa: x29 32 +
STACK CFI 1b738 .cfa: sp 32 +
STACK CFI 1b740 .cfa: sp 0 +
STACK CFI 1b744 .cfa: x29 32 +
STACK CFI 1b768 .cfa: sp 32 +
STACK CFI 1b770 .cfa: sp 0 +
STACK CFI 1b774 .cfa: x29 32 +
STACK CFI 1b78c .cfa: sp 32 +
STACK CFI 1b794 .cfa: sp 0 +
STACK CFI 1b798 .cfa: x29 32 +
STACK CFI 1b7b0 .cfa: sp 32 +
STACK CFI 1b7b8 .cfa: sp 0 +
STACK CFI 1b7bc .cfa: x29 32 +
STACK CFI 1b7d4 .cfa: sp 32 +
STACK CFI 1b7dc .cfa: sp 0 +
STACK CFI 1b7e0 .cfa: x29 32 +
STACK CFI 1b7f8 .cfa: sp 32 +
STACK CFI 1b800 .cfa: sp 0 +
STACK CFI 1b804 .cfa: x29 32 +
STACK CFI 1b81c .cfa: sp 32 +
STACK CFI 1b824 .cfa: sp 0 +
STACK CFI 1b828 .cfa: x29 32 +
STACK CFI 1b840 .cfa: sp 32 +
STACK CFI 1b848 .cfa: sp 0 +
STACK CFI 1b84c .cfa: x29 32 +
STACK CFI 1b864 .cfa: sp 32 +
STACK CFI 1b86c .cfa: sp 0 +
STACK CFI 1b870 .cfa: x29 32 +
STACK CFI 1b888 .cfa: sp 32 +
STACK CFI 1b890 .cfa: sp 0 +
STACK CFI 1b894 .cfa: x29 32 +
STACK CFI 1b8a8 .cfa: sp 32 +
STACK CFI 1b8b0 .cfa: sp 0 +
STACK CFI 1b8b4 .cfa: x29 32 +
STACK CFI INIT 1b8b8 420 .cfa: sp 0 +
STACK CFI 1b8bc .cfa: sp 80 +
STACK CFI 1b8d0 .cfa: x29 80 + x19: .cfa -8 + ^ x20: .cfa -16 + ^ x21: .cfa -24 + ^ x22: .cfa -32 + ^ x23: .cfa -40 + ^ x24: .cfa -48 + ^ x25: .cfa -64 + ^ .ra: .cfa -72 + ^ x29: .cfa -80 + ^
STACK CFI 1b924 .cfa: sp 80 +
STACK CFI 1b938 .cfa: sp 0 +
STACK CFI 1b93c .cfa: x29 80 +
STACK CFI 1bae4 .cfa: sp 80 +
STACK CFI 1baf8 .cfa: sp 0 +
STACK CFI 1bafc .cfa: x29 80 +
STACK CFI 1bcb8 .cfa: sp 80 +
STACK CFI 1bccc .cfa: sp 0 +
STACK CFI 1bcd0 .cfa: x29 80 +
STACK CFI INIT 1c1fc 68 .cfa: sp 0 +
STACK CFI 1c200 .cfa: sp 32 +
STACK CFI 1c208 .cfa: x29 32 + x19: .cfa -8 + ^ x20: .cfa -16 + ^ .ra: .cfa -24 + ^ x29: .cfa -32 + ^
STACK CFI 1c220 .cfa: sp 32 +
STACK CFI 1c228 .cfa: sp 0 +
STACK CFI 1c22c .cfa: x29 32 +
STACK CFI 1c258 .cfa: sp 32 +
STACK CFI 1c260 .cfa: sp 0 +
STACK CFI INIT 1c264 14 .cfa: sp 0 +
STACK CFI 1c268 .cfa: sp 16 +
STACK CFI 1c26c .cfa: x29 16 + .ra: .cfa -8 + ^ x29: .cfa -16 + ^
STACK CFI INIT 1c4c4 1a8 .cfa: sp 0 +
STACK CFI 1c4c8 .cfa: sp 48 +
STACK CFI 1c4d4 .cfa: x29 48 + x19: .cfa -8 + ^ x20: .cfa -16 + ^ x21: .cfa -24 + ^ x22: .cfa -32 + ^ .ra: .cfa -40 + ^ x29: .cfa -48 + ^
STACK CFI 1c654 .cfa: sp 48 +
STACK CFI 1c660 .cfa: sp 0 +
STACK CFI 1c664 .cfa: x29 48 +
STACK CFI INIT 1c66c 14 .cfa: sp 0 +
STACK CFI 1c670 .cfa: sp 16 +
STACK CFI 1c674 .cfa: x29 16 + .ra: .cfa -8 + ^ x29: .cfa -16 + ^
STACK CFI INIT 1c680 14 .cfa: sp 0 +
STACK CFI 1c684 .cfa: sp 16 +
STACK CFI 1c688 .cfa: x29 16 + .ra: .cfa -8 + ^ x29: .cfa -16 + ^
STACK CFI INIT 1c694 48 .cfa: sp 0 +
STACK CFI 1c6b0 .cfa: sp 32 +
STACK CFI 1c6b8 .cfa: x29 32 + x19: .cfa -16 + ^ .ra: .cfa -24 + ^ x29: .cfa -32 + ^
STACK CFI 1c6d0 .cfa: sp 32 +
STACK CFI 1c6d8 .cfa: sp 0 +
STACK CFI INIT 1c6dc 30 .cfa: sp 0 +
STACK CFI INIT 1c70c 48 .cfa: sp 0 +
STACK CFI 1c728 .cfa: sp 32 +
STACK CFI 1c730 .cfa: x29 32 + x19: .cfa -16 + ^ .ra: .cfa -24 + ^ x29: .cfa -32 + ^
STACK CFI 1c748 .cfa: sp 32 +
STACK CFI 1c750 .cfa: sp 0 +
STACK CFI INIT 1c754 38 .cfa: sp 0 +
STACK CFI INIT 1c964 68 .cfa: sp 0 +
STACK CFI 1c968 .cfa: sp 32 +
STACK CFI 1c970 .cfa: x29 32 + x19: .cfa -16 + ^ .ra: .cfa -24 + ^ x29: .cfa -32 + ^
STACK CFI 1c9c0 .cfa: sp 32 +
STACK CFI 1c9c8 .cfa: sp 0 +
STACK CFI INIT 1c9cc 1c4 .cfa: sp 0 +
STACK CFI INIT 1cb90 c4 .cfa: sp 0 +
STACK CFI INIT 1cc54 68 .cfa: sp 0 +
STACK CFI 1cc58 .cfa: sp 32 +
STACK CFI 1cc60 .cfa: x29 32 + x19: .cfa -16 + ^ .ra: .cfa -24 + ^ x29: .cfa -32 + ^
STACK CFI 1ccb0 .cfa: sp 32 +
STACK CFI 1ccb8 .cfa: sp 0 +
STACK CFI INIT 1ccbc 4 .cfa: sp 0 +
STACK CFI INIT 1ccc0 14 .cfa: sp 0 +
STACK CFI INIT 1ccd4 6c .cfa: sp 0 +
STACK CFI 1ccd8 .cfa: sp 32 +
STACK CFI 1cce0 .cfa: x29 32 + x19: .cfa -16 + ^ .ra: .cfa -24 + ^ x29: .cfa -32 + ^
STACK CFI 1cd28 .cfa: sp 32 +
STACK CFI 1cd30 .cfa: sp 0 +
STACK CFI 1cd34 .cfa: sp 32 +
STACK CFI 1cd3c .cfa: sp 0 +
STACK CFI INIT 1cd40 68 .cfa: sp 0 +
STACK CFI 1cd44 .cfa: sp 32 +
STACK CFI 1cd4c .cfa: x29 32 + x19: .cfa -16 + ^ .ra: .cfa -24 + ^ x29: .cfa -32 + ^
STACK CFI 1cd9c .cfa: sp 32 +
STACK CFI 1cda4 .cfa: sp 0 +
STACK CFI INIT 1cda8 c .cfa: sp 0 +
STACK CFI INIT 1cdb4 24 .cfa: sp 0 +
STACK CFI INIT 1cdd8 4 .cfa: sp 0 +
STACK CFI INIT 1cddc 4 .cfa: sp 0 +
STACK CFI INIT 1cde0 14 .cfa: sp 0 +
STACK CFI INIT 1ce40 2fc .cfa: sp 0 +
STACK CFI 1ce44 .cfa: sp 64 +
STACK CFI 1ce54 .cfa: x29 64 + x19: .cfa -8 + ^ x20: .cfa -16 + ^ x21: .cfa -24 + ^ x22: .cfa -32 + ^ x23: .cfa -40 + ^ x24: .cfa -48 + ^ .ra: .cfa -56 + ^ x29: .cfa -64 + ^
STACK CFI 1cfd0 .cfa: sp 64 +
STACK CFI 1cfe0 .cfa: sp 0 +
STACK CFI 1cfe4 .cfa: x29 64 +
STACK CFI 1d028 .cfa: sp 64 +
STACK CFI 1d038 .cfa: sp 0 +
STACK CFI 1d03c .cfa: x29 64 +
STACK CFI 1d10c .cfa: sp 64 +
STACK CFI 1d11c .cfa: sp 0 +
STACK CFI 1d120 .cfa: sp 64 +
STACK CFI 1d130 .cfa: sp 0 +
STACK CFI 1d134 .cfa: x29 64 +
STACK CFI INIT 1d13c 270 .cfa: sp 0 +
STACK CFI 1d140 .cfa: sp 32 +
STACK CFI 1d148 .cfa: x29 32 + x19: .cfa -16 + ^ .ra: .cfa -24 + ^ x29: .cfa -32 + ^
STACK CFI 1d180 .cfa: sp 32 +
STACK CFI 1d188 .cfa: sp 0 +
STACK CFI 1d18c .cfa: x29 32 +
STACK CFI 1d2d4 .cfa: sp 32 +
STACK CFI 1d2dc .cfa: sp 0 +
STACK CFI 1d2e0 .cfa: x29 32 +
STACK CFI 1d31c .cfa: sp 32 +
STACK CFI 1d324 .cfa: sp 0 +
STACK CFI 1d328 .cfa: x29 32 +
STACK CFI 1d39c .cfa: sp 32 +
STACK CFI 1d3a4 .cfa: sp 0 +
STACK CFI 1d3a8 .cfa: x29 32 +
STACK CFI INIT 1d3ac 2c .cfa: sp 0 +
STACK CFI INIT 1d3d8 48 .cfa: sp 0 +
STACK CFI 1d3f4 .cfa: sp 32 +
STACK CFI 1d3fc .cfa: x29 32 + x19: .cfa -16 + ^ .ra: .cfa -24 + ^ x29: .cfa -32 + ^
STACK CFI 1d414 .cfa: sp 32 +
STACK CFI 1d41c .cfa: sp 0 +
STACK CFI INIT 1d420 40 .cfa: sp 0 +
STACK CFI INIT 1d460 60 .cfa: sp 0 +
STACK CFI 1d464 .cfa: sp 16 +
STACK CFI 1d468 .cfa: x29 16 + .ra: .cfa -8 + ^ x29: .cfa -16 + ^
STACK CFI 1d4a8 .cfa: sp 16 +
STACK CFI 1d4ac .cfa: sp 0 +
STACK CFI 1d4b0 .cfa: x29 16 +
STACK CFI 1d4b4 .cfa: sp 16 +
STACK CFI 1d4b8 .cfa: sp 0 +
STACK CFI 1d4bc .cfa: x29 16 +
STACK CFI INIT 1d4c0 34c .cfa: sp 0 +
STACK CFI 1d4c4 .cfa: sp 80 +
STACK CFI 1d4d8 .cfa: x29 80 + x19: .cfa -8 + ^ x20: .cfa -16 + ^ x21: .cfa -24 + ^ x22: .cfa -32 + ^ x23: .cfa -40 + ^ x24: .cfa -48 + ^ x25: .cfa -64 + ^ .ra: .cfa -72 + ^ x29: .cfa -80 + ^
STACK CFI 1d7d4 .cfa: sp 80 +
STACK CFI 1d7e8 .cfa: sp 0 +
STACK CFI 1d7ec .cfa: x29 80 +
STACK CFI 1d7f0 .cfa: sp 80 +
STACK CFI 1d804 .cfa: sp 0 +
STACK CFI 1d808 .cfa: x29 80 +
STACK CFI INIT 1dc04 10 .cfa: sp 0 +
STACK CFI INIT 1dc14 30 .cfa: sp 0 +
STACK CFI 1dc18 .cfa: sp 32 +
STACK CFI 1dc20 .cfa: x29 32 + x19: .cfa -16 + ^ .ra: .cfa -24 + ^ x29: .cfa -32 + ^
STACK CFI 1dc38 .cfa: sp 32 +
STACK CFI 1dc40 .cfa: sp 0 +
STACK CFI INIT 1dc44 c .cfa: sp 0 +
STACK CFI INIT 1dc50 4 .cfa: sp 0 +
STACK CFI INIT 1dc54 34 .cfa: sp 0 +
STACK CFI 1dc58 .cfa: sp 16 +
STACK CFI 1dc5c .cfa: x29 16 + .ra: .cfa -8 + ^ x29: .cfa -16 + ^
STACK CFI INIT 1dc88 24 .cfa: sp 0 +
STACK CFI 1dc8c .cfa: sp 32 +
STACK CFI 1dc94 .cfa: x29 32 + x19: .cfa -16 + ^ .ra: .cfa -24 + ^ x29: .cfa -32 + ^
STACK CFI 1dca0 .cfa: sp 32 +
STACK CFI 1dca8 .cfa: sp 0 +
STACK CFI INIT 1dcac 4 .cfa: sp 0 +
STACK CFI INIT 1dcb0 4 .cfa: sp 0 +
STACK CFI INIT 1dcb4 34 .cfa: sp 0 +
STACK CFI 1dcb8 .cfa: sp 32 +
STACK CFI 1dcc0 .cfa: x29 32 + x19: .cfa -16 + ^ .ra: .cfa -24 + ^ x29: .cfa -32 + ^
STACK CFI 1dcdc .cfa: sp 32 +
STACK CFI 1dce4 .cfa: sp 0 +
STACK CFI INIT 1dce8 14 .cfa: sp 0 +
STACK CFI INIT 1dcfc 4 .cfa: sp 0 +
STACK CFI INIT 1dd00 4 .cfa: sp 0 +
STACK CFI INIT 1dd04 14 .cfa: sp 0 +
STACK CFI INIT 1dd18 1c .cfa: sp 0 +
STACK CFI INIT 1dd34 c .cfa: sp 0 +
STACK CFI INIT 1dd40 4 .cfa: sp 0 +
STACK CFI INIT 1dd44 14 .cfa: sp 0 +
STACK CFI INIT 1dd58 e8 .cfa: sp 0 +
STACK CFI 1dd5c .cfa: sp 32 +
STACK CFI 1dd64 .cfa: x29 32 + x19: .cfa -8 + ^ x20: .cfa -16 + ^ .ra: .cfa -24 + ^ x29: .cfa -32 + ^
STACK CFI 1dda4 .cfa: sp 32 +
STACK CFI 1ddac .cfa: sp 0 +
STACK CFI 1ddb0 .cfa: x29 32 +
STACK CFI 1ddec .cfa: sp 32 +
STACK CFI 1ddf4 .cfa: sp 0 +
STACK CFI 1ddf8 .cfa: x29 32 +
STACK CFI 1de18 .cfa: sp 32 +
STACK CFI 1de20 .cfa: sp 0 +
STACK CFI 1de24 .cfa: x29 32 +
STACK CFI 1de34 .cfa: sp 32 +
STACK CFI 1de3c .cfa: sp 0 +
STACK CFI INIT 1de40 4 .cfa: sp 0 +
STACK CFI INIT 1dfb8 5c .cfa: sp 0 +
STACK CFI 1dfbc .cfa: sp 32 +
STACK CFI 1dfc4 .cfa: x29 32 + x19: .cfa -16 + ^ .ra: .cfa -24 + ^ x29: .cfa -32 + ^
STACK CFI 1e008 .cfa: sp 32 +
STACK CFI 1e010 .cfa: sp 0 +
STACK CFI INIT 1e014 64 .cfa: sp 0 +
STACK CFI 1e018 .cfa: sp 32 +
STACK CFI 1e020 .cfa: x29 32 + x19: .cfa -16 + ^ .ra: .cfa -24 + ^ x29: .cfa -32 + ^
STACK CFI 1e06c .cfa: sp 32 +
STACK CFI 1e074 .cfa: sp 0 +
STACK CFI INIT 1e078 4 .cfa: sp 0 +
STACK CFI INIT 1e07c 4 .cfa: sp 0 +
STACK CFI INIT 1e080 34 .cfa: sp 0 +
STACK CFI 1e084 .cfa: sp 32 +
STACK CFI 1e08c .cfa: x29 32 + x19: .cfa -16 + ^ .ra: .cfa -24 + ^ x29: .cfa -32 + ^
STACK CFI 1e0a8 .cfa: sp 32 +
STACK CFI 1e0b0 .cfa: sp 0 +
STACK CFI INIT 1e0b4 14 .cfa: sp 0 +
STACK CFI INIT 1e0c8 4 .cfa: sp 0 +
STACK CFI INIT 1e0cc 4 .cfa: sp 0 +
STACK CFI INIT 1e0d0 10 .cfa: sp 0 +
STACK CFI INIT 1e0e0 1c .cfa: sp 0 +
STACK CFI INIT 1e0fc c .cfa: sp 0 +
STACK CFI INIT 1e548 50 .cfa: sp 0 +
STACK CFI 1e54c .cfa: sp 32 +
STACK CFI 1e554 .cfa: x29 32 + x19: .cfa -16 + ^ .ra: .cfa -24 + ^ x29: .cfa -32 + ^
STACK CFI 1e56c .cfa: sp 32 +
STACK CFI 1e574 .cfa: sp 0 +
STACK CFI 1e578 .cfa: x29 32 +
STACK CFI 1e58c .cfa: sp 32 +
STACK CFI 1e594 .cfa: sp 0 +
STACK CFI INIT 1e60c 4 .cfa: sp 0 +
STACK CFI INIT 1e890 80 .cfa: sp 0 +
STACK CFI 1e894 .cfa: sp 48 +
STACK CFI 1e8a0 .cfa: x29 48 + x19: .cfa -8 + ^ x20: .cfa -16 + ^ x21: .cfa -32 + ^ .ra: .cfa -40 + ^ x29: .cfa -48 + ^
STACK CFI 1e900 .cfa: sp 48 +
STACK CFI 1e90c .cfa: sp 0 +
STACK CFI INIT 1ee08 148 .cfa: sp 0 +
STACK CFI 1ee0c .cfa: sp 48 +
STACK CFI 1ee18 .cfa: x29 48 + x19: .cfa -8 + ^ x20: .cfa -16 + ^ x21: .cfa -32 + ^ .ra: .cfa -40 + ^ x29: .cfa -48 + ^
STACK CFI 1ef40 .cfa: sp 48 +
STACK CFI 1ef4c .cfa: sp 0 +
STACK CFI INIT 1ef50 4 .cfa: sp 0 +
STACK CFI INIT 1ef54 14 .cfa: sp 0 +
STACK CFI INIT 1ef68 84 .cfa: sp 0 +
STACK CFI 1ef70 .cfa: sp 32 +
STACK CFI 1ef78 .cfa: x29 32 + x19: .cfa -8 + ^ x20: .cfa -16 + ^ .ra: .cfa -24 + ^ x29: .cfa -32 + ^
STACK CFI 1efb8 .cfa: sp 32 +
STACK CFI 1efc0 .cfa: sp 0 +
STACK CFI 1efc8 .cfa: x29 32 +
STACK CFI INIT 211d4 50 .cfa: sp 0 +
STACK CFI 211d8 .cfa: sp 32 +
STACK CFI 211e0 .cfa: x29 32 + x19: .cfa -16 + ^ .ra: .cfa -24 + ^ x29: .cfa -32 + ^
STACK CFI 211f8 .cfa: sp 32 +
STACK CFI 21200 .cfa: sp 0 +
STACK CFI 21204 .cfa: x29 32 +
STACK CFI 21218 .cfa: sp 32 +
STACK CFI 21220 .cfa: sp 0 +
STACK CFI INIT 21224 64 .cfa: sp 0 +
STACK CFI 21228 .cfa: sp 32 +
STACK CFI 21230 .cfa: x29 32 + x19: .cfa -16 + ^ .ra: .cfa -24 + ^ x29: .cfa -32 + ^
STACK CFI 2125c .cfa: sp 32 +
STACK CFI 21264 .cfa: sp 0 +
STACK CFI 21268 .cfa: x29 32 +
STACK CFI 2127c .cfa: sp 32 +
STACK CFI 21284 .cfa: sp 0 +
STACK CFI INIT 21288 1c8 .cfa: sp 0 +
STACK CFI 2128c .cfa: sp 80 +
STACK CFI 212a0 .cfa: x29 80 + x19: .cfa -8 + ^ x20: .cfa -16 + ^ x21: .cfa -24 + ^ x22: .cfa -32 + ^ x23: .cfa -40 + ^ x24: .cfa -48 + ^ x25: .cfa -64 + ^ .ra: .cfa -72 + ^ x29: .cfa -80 + ^
STACK CFI 21420 .cfa: sp 80 +
STACK CFI 21434 .cfa: sp 0 +
STACK CFI 21438 .cfa: sp 80 +
STACK CFI 2144c .cfa: sp 0 +
STACK CFI INIT 21a40 188 .cfa: sp 0 +
STACK CFI 21a44 .cfa: sp 80 +
STACK CFI 21a58 .cfa: x29 80 + x19: .cfa -8 + ^ x20: .cfa -16 + ^ x21: .cfa -24 + ^ x22: .cfa -32 + ^ x23: .cfa -40 + ^ x24: .cfa -48 + ^ x25: .cfa -64 + ^ .ra: .cfa -72 + ^ x29: .cfa -80 + ^
STACK CFI 21bac .cfa: sp 80 +
STACK CFI 21bc0 .cfa: sp 0 +
STACK CFI 21bc4 .cfa: x29 80 +
STACK CFI INIT 21bc8 18c .cfa: sp 0 +
STACK CFI 21bcc .cfa: sp 64 +
STACK CFI 21bdc .cfa: x29 64 + x19: .cfa -8 + ^ x20: .cfa -16 + ^ x21: .cfa -24 + ^ x22: .cfa -32 + ^ x23: .cfa -40 + ^ x24: .cfa -48 + ^ .ra: .cfa -56 + ^ x29: .cfa -64 + ^
STACK CFI 21d3c .cfa: sp 64 +
STACK CFI 21d4c .cfa: sp 0 +
STACK CFI 21d50 .cfa: x29 64 +
STACK CFI INIT 21d54 14 .cfa: sp 0 +
STACK CFI 21d58 .cfa: sp 16 +
STACK CFI 21d5c .cfa: x29 16 + .ra: .cfa -8 + ^ x29: .cfa -16 + ^
STACK CFI INIT 21d68 1b0 .cfa: sp 0 +
STACK CFI INIT 22100 3c .cfa: sp 0 +
STACK CFI 22104 .cfa: sp 32 +
STACK CFI 2210c .cfa: x29 32 + x19: .cfa -16 + ^ .ra: .cfa -24 + ^ x29: .cfa -32 + ^
STACK CFI 22118 .cfa: sp 32 +
STACK CFI 22120 .cfa: sp 0 +
STACK CFI 22124 .cfa: x29 32 +
STACK CFI 22130 .cfa: sp 32 +
STACK CFI 22138 .cfa: sp 0 +
STACK CFI INIT 22458 64 .cfa: sp 0 +
STACK CFI 2245c .cfa: sp 32 +
STACK CFI 22464 .cfa: x29 32 + x19: .cfa -16 + ^ .ra: .cfa -24 + ^ x29: .cfa -32 + ^
STACK CFI 22490 .cfa: sp 32 +
STACK CFI 22498 .cfa: sp 0 +
STACK CFI 2249c .cfa: x29 32 +
STACK CFI 224b0 .cfa: sp 32 +
STACK CFI 224b8 .cfa: sp 0 +
STACK CFI INIT 227c4 24 .cfa: sp 0 +
STACK CFI 227c8 .cfa: sp 32 +
STACK CFI 227d0 .cfa: x29 32 + x19: .cfa -16 + ^ .ra: .cfa -24 + ^ x29: .cfa -32 + ^
STACK CFI 227dc .cfa: sp 32 +
STACK CFI 227e4 .cfa: sp 0 +
STACK CFI INIT 227e8 24 .cfa: sp 0 +
STACK CFI 227ec .cfa: sp 32 +
STACK CFI 227f4 .cfa: x29 32 + x19: .cfa -16 + ^ .ra: .cfa -24 + ^ x29: .cfa -32 + ^
STACK CFI 22800 .cfa: sp 32 +
STACK CFI 22808 .cfa: sp 0 +
STACK CFI INIT 2280c 4 .cfa: sp 0 +
STACK CFI INIT 22f14 4 .cfa: sp 0 +
STACK CFI INIT 22f18 14 .cfa: sp 0 +
STACK CFI INIT 2340c 110 .cfa: sp 0 +
STACK CFI INIT 2351c 134 .cfa: sp 0 +
STACK CFI INIT 23650 c .cfa: sp 0 +
STACK CFI INIT 2365c 24c .cfa: sp 0 +
STACK CFI INIT 238a8 a0 .cfa: sp 0 +
STACK CFI 238b4 .cfa: sp 32 +
STACK CFI 2390c .cfa: sp 0 +
STACK CFI 23910 .cfa: sp 32 +
STACK CFI 23918 .cfa: sp 0 +
STACK CFI 2391c .cfa: sp 32 +
STACK CFI 23930 .cfa: sp 0 +
STACK CFI 23934 .cfa: sp 32 +
STACK CFI 23944 .cfa: sp 0 +
STACK CFI INIT 23948 38 .cfa: sp 0 +
STACK CFI 23954 .cfa: sp 32 +
STACK CFI 2397c .cfa: sp 0 +
STACK CFI INIT 23c14 7c .cfa: sp 0 +
STACK CFI 23c18 .cfa: sp 32 +
STACK CFI 23c20 .cfa: x29 32 + x19: .cfa -16 + ^ .ra: .cfa -24 + ^ x29: .cfa -32 + ^
STACK CFI 23c4c .cfa: sp 32 +
STACK CFI 23c54 .cfa: sp 0 +
STACK CFI 23c58 .cfa: x29 32 +
STACK CFI 23c84 .cfa: sp 32 +
STACK CFI 23c8c .cfa: sp 0 +
STACK CFI INIT 23ce0 2c .cfa: sp 0 +
STACK CFI 23ce4 .cfa: sp 32 +
STACK CFI 23cec .cfa: x29 32 + x19: .cfa -16 + ^ .ra: .cfa -24 + ^ x29: .cfa -32 + ^
STACK CFI 23d00 .cfa: sp 32 +
STACK CFI 23d08 .cfa: sp 0 +
STACK CFI INIT 244cc 64 .cfa: sp 0 +
STACK CFI 244d0 .cfa: sp 32 +
STACK CFI 244d8 .cfa: x29 32 + x19: .cfa -16 + ^ .ra: .cfa -24 + ^ x29: .cfa -32 + ^
STACK CFI 244f4 .cfa: sp 32 +
STACK CFI 244fc .cfa: sp 0 +
STACK CFI 24500 .cfa: x29 32 +
STACK CFI 24524 .cfa: sp 32 +
STACK CFI 2452c .cfa: sp 0 +
STACK CFI INIT 24530 570 .cfa: sp 0 +
STACK CFI 24534 .cfa: sp 176 +
STACK CFI 24548 .cfa: x29 64 + x19: .cfa -8 + ^ x20: .cfa -16 + ^ x21: .cfa -24 + ^ x22: .cfa -32 + ^ x23: .cfa -40 + ^ x24: .cfa -48 + ^ .ra: .cfa -56 + ^ x29: .cfa -64 + ^
STACK CFI 24778 .cfa: sp 176 +
STACK CFI 2478c .cfa: sp 0 +
STACK CFI 24790 .cfa: x29 64 +
STACK CFI 247dc .cfa: sp 176 +
STACK CFI 247f0 .cfa: sp 0 +
STACK CFI 247f4 .cfa: x29 64 +
STACK CFI 2482c .cfa: sp 176 +
STACK CFI 24840 .cfa: sp 0 +
STACK CFI 24844 .cfa: x29 64 +
STACK CFI 2485c .cfa: sp 176 +
STACK CFI 24870 .cfa: sp 0 +
STACK CFI 24874 .cfa: x29 64 +
STACK CFI 24894 .cfa: sp 176 +
STACK CFI 248a8 .cfa: sp 0 +
STACK CFI 248ac .cfa: x29 64 +
STACK CFI 248c4 .cfa: sp 176 +
STACK CFI 248d8 .cfa: sp 0 +
STACK CFI 248dc .cfa: x29 64 +
STACK CFI 248f0 .cfa: sp 176 +
STACK CFI 24904 .cfa: sp 0 +
STACK CFI 24908 .cfa: x29 64 +
STACK CFI 2491c .cfa: sp 176 +
STACK CFI 24930 .cfa: sp 0 +
STACK CFI 24934 .cfa: x29 64 +
STACK CFI 24944 .cfa: sp 176 +
STACK CFI 24958 .cfa: sp 0 +
STACK CFI 2495c .cfa: x29 64 +
STACK CFI 2496c .cfa: sp 176 +
STACK CFI 24980 .cfa: sp 0 +
STACK CFI 24984 .cfa: x29 64 +
STACK CFI 2499c .cfa: sp 176 +
STACK CFI 249b0 .cfa: sp 0 +
STACK CFI 249b4 .cfa: x29 64 +
STACK CFI 249c8 .cfa: sp 176 +
STACK CFI 249dc .cfa: sp 0 +
STACK CFI 249e0 .cfa: x29 64 +
STACK CFI 249f8 .cfa: sp 176 +
STACK CFI 24a0c .cfa: sp 0 +
STACK CFI 24a10 .cfa: x29 64 +
STACK CFI 24a3c .cfa: sp 176 +
STACK CFI 24a50 .cfa: sp 0 +
STACK CFI 24a54 .cfa: x29 64 +
STACK CFI 24a68 .cfa: sp 176 +
STACK CFI 24a7c .cfa: sp 0 +
STACK CFI 24a80 .cfa: x29 64 +
STACK CFI INIT 24aa0 228 .cfa: sp 0 +
STACK CFI INIT 24cc8 2dc .cfa: sp 0 +
STACK CFI INIT 24fa4 53c .cfa: sp 0 +
STACK CFI INIT 254e0 78 .cfa: sp 0 +
STACK CFI 254e4 .cfa: sp 48 +
STACK CFI 254f0 .cfa: x29 48 + x19: .cfa -8 + ^ x20: .cfa -16 + ^ x21: .cfa -24 + ^ x22: .cfa -32 + ^ .ra: .cfa -40 + ^ x29: .cfa -48 + ^
STACK CFI 25538 .cfa: sp 48 +
STACK CFI 25544 .cfa: sp 0 +
STACK CFI 25548 .cfa: sp 48 +
STACK CFI 25554 .cfa: sp 0 +
STACK CFI INIT 25558 8c .cfa: sp 0 +
STACK CFI 2555c .cfa: sp 32 +
STACK CFI 25564 .cfa: x29 32 + x19: .cfa -16 + ^ .ra: .cfa -24 + ^ x29: .cfa -32 + ^
STACK CFI 25598 .cfa: sp 32 +
STACK CFI 255a0 .cfa: sp 0 +
STACK CFI 255a4 .cfa: x29 32 +
STACK CFI 255d8 .cfa: sp 32 +
STACK CFI 255e0 .cfa: sp 0 +
STACK CFI INIT 255e4 24 .cfa: sp 0 +
STACK CFI 255e8 .cfa: sp 32 +
STACK CFI 255f0 .cfa: x29 32 + x19: .cfa -16 + ^ .ra: .cfa -24 + ^ x29: .cfa -32 + ^
STACK CFI 255fc .cfa: sp 32 +
STACK CFI 25604 .cfa: sp 0 +
STACK CFI INIT 25608 150 .cfa: sp 0 +
STACK CFI 2560c .cfa: sp 48 +
STACK CFI 25618 .cfa: x29 48 + x19: .cfa -8 + ^ x20: .cfa -16 + ^ x21: .cfa -24 + ^ x22: .cfa -32 + ^ .ra: .cfa -40 + ^ x29: .cfa -48 + ^
STACK CFI 25748 .cfa: sp 48 +
STACK CFI 25754 .cfa: sp 0 +
STACK CFI INIT 25758 68 .cfa: sp 0 +
STACK CFI 2575c .cfa: sp 64 +
STACK CFI 25768 .cfa: x29 32 + x19: .cfa -16 + ^ .ra: .cfa -24 + ^ x29: .cfa -32 + ^
STACK CFI 257ac .cfa: sp 64 +
STACK CFI 257b8 .cfa: sp 0 +
STACK CFI 257bc .cfa: x29 32 +
STACK CFI INIT 257c0 90 .cfa: sp 0 +
STACK CFI 257c4 .cfa: sp 32 +
STACK CFI 257cc .cfa: x29 32 + x19: .cfa -8 + ^ x20: .cfa -16 + ^ .ra: .cfa -24 + ^ x29: .cfa -32 + ^
STACK CFI 257f8 .cfa: sp 32 +
STACK CFI 25800 .cfa: sp 0 +
STACK CFI 25804 .cfa: x29 32 +
STACK CFI 25844 .cfa: sp 32 +
STACK CFI 2584c .cfa: sp 0 +
STACK CFI INIT 25850 ec .cfa: sp 0 +
STACK CFI 25854 .cfa: sp 112 +
STACK CFI 25864 .cfa: x29 48 + x19: .cfa -8 + ^ x20: .cfa -16 + ^ x21: .cfa -32 + ^ .ra: .cfa -40 + ^ x29: .cfa -48 + ^
STACK CFI 25924 .cfa: sp 112 +
STACK CFI 25934 .cfa: sp 0 +
STACK CFI 25938 .cfa: x29 48 +
STACK CFI INIT 2593c ec .cfa: sp 0 +
STACK CFI 25940 .cfa: sp 112 +
STACK CFI 25950 .cfa: x29 48 + x19: .cfa -8 + ^ x20: .cfa -16 + ^ x21: .cfa -32 + ^ .ra: .cfa -40 + ^ x29: .cfa -48 + ^
STACK CFI 25a10 .cfa: sp 112 +
STACK CFI 25a20 .cfa: sp 0 +
STACK CFI 25a24 .cfa: x29 48 +
STACK CFI INIT 25a28 48 .cfa: sp 0 +
STACK CFI 25a2c .cfa: sp 32 +
STACK CFI 25a34 .cfa: x29 32 + x19: .cfa -8 + ^ x20: .cfa -16 + ^ .ra: .cfa -24 + ^ x29: .cfa -32 + ^
STACK CFI 25a58 .cfa: sp 32 +
STACK CFI 25a60 .cfa: sp 0 +
STACK CFI 25a64 .cfa: x29 32 +
STACK CFI INIT 25a70 98 .cfa: sp 0 +
STACK CFI 25a74 .cfa: sp 80 +
STACK CFI 25a80 .cfa: x29 32 + x19: .cfa -16 + ^ .ra: .cfa -24 + ^ x29: .cfa -32 + ^
STACK CFI 25af4 .cfa: sp 80 +
STACK CFI 25b00 .cfa: sp 0 +
STACK CFI 25b04 .cfa: x29 32 +
STACK CFI INIT 25b08 260 .cfa: sp 0 +
STACK CFI 25b0c .cfa: sp 112 +
STACK CFI 25b24 .cfa: x29 80 + x19: .cfa -8 + ^ x20: .cfa -16 + ^ x21: .cfa -24 + ^ x22: .cfa -32 + ^ x23: .cfa -40 + ^ x24: .cfa -48 + ^ x25: .cfa -64 + ^ .ra: .cfa -72 + ^ x29: .cfa -80 + ^
STACK CFI 25d08 .cfa: sp 112 +
STACK CFI 25d20 .cfa: sp 0 +
STACK CFI 25d24 .cfa: x29 80 +
STACK CFI INIT 25d68 150 .cfa: sp 0 +
STACK CFI 25d6c .cfa: sp 48 +
STACK CFI 25d78 .cfa: x29 48 + x19: .cfa -8 + ^ x20: .cfa -16 + ^ x21: .cfa -24 + ^ x22: .cfa -32 + ^ .ra: .cfa -40 + ^ x29: .cfa -48 + ^
STACK CFI 25ea8 .cfa: sp 48 +
STACK CFI 25eb4 .cfa: sp 0 +
STACK CFI INIT 25eb8 1e0 .cfa: sp 0 +
STACK CFI 25ebc .cfa: sp 96 +
STACK CFI 25ed0 .cfa: x29 64 + x19: .cfa -8 + ^ x20: .cfa -16 + ^ x21: .cfa -24 + ^ x22: .cfa -32 + ^ x23: .cfa -40 + ^ x24: .cfa -48 + ^ .ra: .cfa -56 + ^ x29: .cfa -64 + ^
STACK CFI 26050 .cfa: sp 96 +
STACK CFI 26064 .cfa: sp 0 +
STACK CFI 26068 .cfa: x29 64 +
STACK CFI INIT 26098 284 .cfa: sp 0 +
STACK CFI 2609c .cfa: sp 112 +
STACK CFI 260b4 .cfa: x29 80 + x19: .cfa -8 + ^ x20: .cfa -16 + ^ x21: .cfa -24 + ^ x22: .cfa -32 + ^ x23: .cfa -40 + ^ x24: .cfa -48 + ^ x25: .cfa -64 + ^ .ra: .cfa -72 + ^ x29: .cfa -80 + ^
STACK CFI 262bc .cfa: sp 112 +
STACK CFI 262d4 .cfa: sp 0 +
STACK CFI 262d8 .cfa: x29 80 +
STACK CFI INIT 2631c 208 .cfa: sp 0 +
STACK CFI 26320 .cfa: sp 96 +
STACK CFI 26334 .cfa: x29 64 + x19: .cfa -8 + ^ x20: .cfa -16 + ^ x21: .cfa -24 + ^ x22: .cfa -32 + ^ x23: .cfa -40 + ^ x24: .cfa -48 + ^ .ra: .cfa -56 + ^ x29: .cfa -64 + ^
STACK CFI 264dc .cfa: sp 96 +
STACK CFI 264f0 .cfa: sp 0 +
STACK CFI 264f4 .cfa: x29 64 +
STACK CFI INIT 26524 360 .cfa: sp 0 +
STACK CFI 26528 .cfa: sp 160 +
STACK CFI 26544 .cfa: x29 96 + x19: .cfa -8 + ^ x20: .cfa -16 + ^ x21: .cfa -24 + ^ x22: .cfa -32 + ^ x23: .cfa -40 + ^ x24: .cfa -48 + ^ x25: .cfa -56 + ^ x26: .cfa -64 + ^ x27: .cfa -72 + ^ x28: .cfa -80 + ^ .ra: .cfa -88 + ^ x29: .cfa -96 + ^
STACK CFI 26810 .cfa: sp 160 +
STACK CFI 2682c .cfa: sp 0 +
STACK CFI 26830 .cfa: x29 96 +
STACK CFI INIT 26884 314 .cfa: sp 0 +
STACK CFI 26888 .cfa: sp 144 +
STACK CFI 268a4 .cfa: x29 96 + x19: .cfa -8 + ^ x20: .cfa -16 + ^ x21: .cfa -24 + ^ x22: .cfa -32 + ^ x23: .cfa -40 + ^ x24: .cfa -48 + ^ x25: .cfa -56 + ^ x26: .cfa -64 + ^ x27: .cfa -72 + ^ x28: .cfa -80 + ^ .ra: .cfa -88 + ^ x29: .cfa -96 + ^
STACK CFI 26b20 .cfa: sp 144 +
STACK CFI 26b3c .cfa: sp 0 +
STACK CFI 26b40 .cfa: x29 96 +
STACK CFI INIT 26b98 290 .cfa: sp 0 +
STACK CFI 26b9c .cfa: sp 128 +
STACK CFI 26bb4 .cfa: x29 80 + x19: .cfa -8 + ^ x20: .cfa -16 + ^ x21: .cfa -24 + ^ x22: .cfa -32 + ^ x23: .cfa -40 + ^ x24: .cfa -48 + ^ x25: .cfa -56 + ^ x26: .cfa -64 + ^ .ra: .cfa -72 + ^ x29: .cfa -80 + ^
STACK CFI 26e08 .cfa: sp 128 +
STACK CFI 26e20 .cfa: sp 0 +
STACK CFI 26e24 .cfa: x29 80 +
STACK CFI INIT 26e28 ddc .cfa: sp 0 +
STACK CFI 26e2c .cfa: sp 144 +
STACK CFI 26e48 .cfa: x29 96 + x19: .cfa -8 + ^ x20: .cfa -16 + ^ x21: .cfa -24 + ^ x22: .cfa -32 + ^ x23: .cfa -40 + ^ x24: .cfa -48 + ^ x25: .cfa -56 + ^ x26: .cfa -64 + ^ x27: .cfa -72 + ^ x28: .cfa -80 + ^ .ra: .cfa -88 + ^ x29: .cfa -96 + ^
STACK CFI 27adc .cfa: sp 144 +
STACK CFI 27af8 .cfa: sp 0 +
STACK CFI 27afc .cfa: x29 96 +
STACK CFI INIT 27c04 1d0 .cfa: sp 0 +
STACK CFI 27c08 .cfa: sp 80 +
STACK CFI 27c1c .cfa: x29 80 + x19: .cfa -8 + ^ x20: .cfa -16 + ^ x21: .cfa -24 + ^ x22: .cfa -32 + ^ x23: .cfa -40 + ^ x24: .cfa -48 + ^ x25: .cfa -64 + ^ .ra: .cfa -72 + ^ x29: .cfa -80 + ^
STACK CFI 27dbc .cfa: sp 80 +
STACK CFI 27dd0 .cfa: sp 0 +
STACK CFI INIT 27dd4 23c .cfa: sp 0 +
STACK CFI 27dd8 .cfa: sp 112 +
STACK CFI 27dec .cfa: x29 64 + x19: .cfa -8 + ^ x20: .cfa -16 + ^ x21: .cfa -24 + ^ x22: .cfa -32 + ^ x23: .cfa -40 + ^ x24: .cfa -48 + ^ .ra: .cfa -56 + ^ x29: .cfa -64 + ^
STACK CFI 27fc8 .cfa: sp 112 +
STACK CFI 27fdc .cfa: sp 0 +
STACK CFI 27fe0 .cfa: x29 64 +
STACK CFI INIT 28010 30c .cfa: sp 0 +
STACK CFI 28014 .cfa: sp 80 +
STACK CFI 28028 .cfa: x29 64 + x19: .cfa -8 + ^ x20: .cfa -16 + ^ x21: .cfa -24 + ^ x22: .cfa -32 + ^ x23: .cfa -40 + ^ x24: .cfa -48 + ^ .ra: .cfa -56 + ^ x29: .cfa -64 + ^
STACK CFI 281a4 .cfa: sp 80 +
STACK CFI 281b8 .cfa: sp 0 +
STACK CFI 281bc .cfa: x29 64 +
STACK CFI INIT 2831c 178 .cfa: sp 0 +
STACK CFI 28320 .cfa: sp 80 +
STACK CFI 28334 .cfa: x29 64 + x19: .cfa -8 + ^ x20: .cfa -16 + ^ x21: .cfa -24 + ^ x22: .cfa -32 + ^ x23: .cfa -40 + ^ x24: .cfa -48 + ^ .ra: .cfa -56 + ^ x29: .cfa -64 + ^
STACK CFI 28478 .cfa: sp 80 +
STACK CFI 2848c .cfa: sp 0 +
STACK CFI 28490 .cfa: x29 64 +
STACK CFI INIT 28494 178 .cfa: sp 0 +
STACK CFI 28498 .cfa: sp 80 +
STACK CFI 284ac .cfa: x29 64 + x19: .cfa -8 + ^ x20: .cfa -16 + ^ x21: .cfa -24 + ^ x22: .cfa -32 + ^ x23: .cfa -40 + ^ x24: .cfa -48 + ^ .ra: .cfa -56 + ^ x29: .cfa -64 + ^
STACK CFI 285f0 .cfa: sp 80 +
STACK CFI 28604 .cfa: sp 0 +
STACK CFI 28608 .cfa: x29 64 +
STACK CFI INIT 2860c 240 .cfa: sp 0 +
STACK CFI 28610 .cfa: sp 96 +
STACK CFI 28628 .cfa: x29 96 + x19: .cfa -8 + ^ x20: .cfa -16 + ^ x21: .cfa -24 + ^ x22: .cfa -32 + ^ x23: .cfa -40 + ^ x24: .cfa -48 + ^ x25: .cfa -56 + ^ x26: .cfa -64 + ^ x27: .cfa -72 + ^ x28: .cfa -80 + ^ .ra: .cfa -88 + ^ x29: .cfa -96 + ^
STACK CFI 28830 .cfa: sp 96 +
STACK CFI 28848 .cfa: sp 0 +
STACK CFI INIT 294c0 154 .cfa: sp 0 +
STACK CFI 294c4 .cfa: sp 96 +
STACK CFI 294d8 .cfa: x29 64 + x19: .cfa -8 + ^ x20: .cfa -16 + ^ x21: .cfa -24 + ^ x22: .cfa -32 + ^ x23: .cfa -48 + ^ .ra: .cfa -56 + ^ x29: .cfa -64 + ^
STACK CFI 295b8 .cfa: sp 96 +
STACK CFI 295cc .cfa: sp 0 +
STACK CFI 295d0 .cfa: x29 64 +
STACK CFI INIT 29880 44 .cfa: sp 0 +
STACK CFI 29884 .cfa: sp 32 +
STACK CFI 2988c .cfa: x29 32 + x19: .cfa -16 + ^ .ra: .cfa -24 + ^ x29: .cfa -32 + ^
STACK CFI 298a8 .cfa: sp 32 +
STACK CFI 298b0 .cfa: sp 0 +
STACK CFI 298b4 .cfa: x29 32 +
STACK CFI 298b8 .cfa: sp 32 +
STACK CFI 298c0 .cfa: sp 0 +
STACK CFI INIT 298c4 1d0 .cfa: sp 0 +
STACK CFI 298c8 .cfa: sp 64 +
STACK CFI 298d8 .cfa: x29 64 + x19: .cfa -8 + ^ x20: .cfa -16 + ^ x21: .cfa -24 + ^ x22: .cfa -32 + ^ x23: .cfa -40 + ^ x24: .cfa -48 + ^ .ra: .cfa -56 + ^ x29: .cfa -64 + ^
STACK CFI 29998 .cfa: sp 64 +
STACK CFI 299a8 .cfa: sp 0 +
STACK CFI 299ac .cfa: x29 64 +
STACK CFI INIT 29a94 17c .cfa: sp 0 +
STACK CFI INIT 29fc8 a0 .cfa: sp 0 +
STACK CFI 29fcc .cfa: sp 48 +
STACK CFI 29fd8 .cfa: x29 48 + x19: .cfa -8 + ^ x20: .cfa -16 + ^ x21: .cfa -24 + ^ x22: .cfa -32 + ^ .ra: .cfa -40 + ^ x29: .cfa -48 + ^
STACK CFI 2a044 .cfa: sp 48 +
STACK CFI 2a050 .cfa: sp 0 +
STACK CFI 2a054 .cfa: sp 48 +
STACK CFI 2a060 .cfa: sp 0 +
STACK CFI 2a064 .cfa: x29 48 +
STACK CFI INIT 2ad1c 158 .cfa: sp 0 +
STACK CFI 2ad20 .cfa: sp 96 +
STACK CFI 2ad34 .cfa: x29 64 + x19: .cfa -8 + ^ x20: .cfa -16 + ^ x21: .cfa -24 + ^ x22: .cfa -32 + ^ x23: .cfa -48 + ^ .ra: .cfa -56 + ^ x29: .cfa -64 + ^
STACK CFI 2ae18 .cfa: sp 96 +
STACK CFI 2ae2c .cfa: sp 0 +
STACK CFI 2ae30 .cfa: x29 64 +
STACK CFI INIT 2ae74 190 .cfa: sp 0 +
STACK CFI INIT 2bb00 1dc .cfa: sp 0 +
STACK CFI 2bb04 .cfa: sp 80 +
STACK CFI 2bb18 .cfa: x29 80 + x19: .cfa -8 + ^ x20: .cfa -16 + ^ x21: .cfa -24 + ^ x22: .cfa -32 + ^ x23: .cfa -40 + ^ x24: .cfa -48 + ^ x25: .cfa -64 + ^ .ra: .cfa -72 + ^ x29: .cfa -80 + ^
STACK CFI 2bcc4 .cfa: sp 80 +
STACK CFI 2bcd8 .cfa: sp 0 +
STACK CFI INIT 2d10c 124 .cfa: sp 0 +
STACK CFI 2d13c .cfa: sp 32 +
STACK CFI 2d144 .cfa: x29 32 + x19: .cfa -8 + ^ x20: .cfa -16 + ^ .ra: .cfa -24 + ^ x29: .cfa -32 + ^
STACK CFI 2d224 .cfa: sp 32 +
STACK CFI 2d22c .cfa: sp 0 +
STACK CFI INIT 2d98c 320 .cfa: sp 0 +
STACK CFI 2d990 .cfa: sp 64 +
STACK CFI 2d9a0 .cfa: x29 64 + x19: .cfa -8 + ^ x20: .cfa -16 + ^ x21: .cfa -24 + ^ x22: .cfa -32 + ^ x23: .cfa -40 + ^ x24: .cfa -48 + ^ .ra: .cfa -56 + ^ x29: .cfa -64 + ^
STACK CFI 2da1c .cfa: sp 64 +
STACK CFI 2da2c .cfa: sp 0 +
STACK CFI 2da30 .cfa: x29 64 +
STACK CFI 2dc04 .cfa: sp 64 +
STACK CFI 2dc14 .cfa: sp 0 +
STACK CFI 2dc18 .cfa: x29 64 +
STACK CFI 2dc28 .cfa: sp 64 +
STACK CFI 2dc38 .cfa: sp 0 +
STACK CFI 2dc3c .cfa: x29 64 +
STACK CFI INIT 2dcac a0 .cfa: sp 0 +
STACK CFI 2dcb0 .cfa: sp 48 +
STACK CFI 2dcbc .cfa: x29 48 + x19: .cfa -8 + ^ x20: .cfa -16 + ^ x21: .cfa -24 + ^ x22: .cfa -32 + ^ .ra: .cfa -40 + ^ x29: .cfa -48 + ^
STACK CFI 2dd28 .cfa: sp 48 +
STACK CFI 2dd34 .cfa: sp 0 +
STACK CFI 2dd38 .cfa: sp 48 +
STACK CFI 2dd44 .cfa: sp 0 +
STACK CFI 2dd48 .cfa: x29 48 +
STACK CFI INIT 2ebfc 160 .cfa: sp 0 +
STACK CFI 2ec00 .cfa: sp 64 +
STACK CFI 2ec10 .cfa: x29 64 + x19: .cfa -8 + ^ x20: .cfa -16 + ^ x21: .cfa -24 + ^ x22: .cfa -32 + ^ x23: .cfa -48 + ^ .ra: .cfa -56 + ^ x29: .cfa -64 + ^
STACK CFI 2ed08 .cfa: sp 64 +
STACK CFI 2ed18 .cfa: sp 0 +
STACK CFI 2ed1c .cfa: x29 64 +
STACK CFI INIT 2ed5c 214 .cfa: sp 0 +
STACK CFI 2ed60 .cfa: sp 128 +
STACK CFI 2ed7c .cfa: x29 96 + x19: .cfa -8 + ^ x20: .cfa -16 + ^ x21: .cfa -24 + ^ x22: .cfa -32 + ^ x23: .cfa -40 + ^ x24: .cfa -48 + ^ x25: .cfa -56 + ^ x26: .cfa -64 + ^ x27: .cfa -80 + ^ .ra: .cfa -88 + ^ x29: .cfa -96 + ^
STACK CFI 2eef8 .cfa: sp 128 +
STACK CFI 2ef14 .cfa: sp 0 +
STACK CFI 2ef18 .cfa: x29 96 +
STACK CFI INIT 30c0c 290 .cfa: sp 0 +
STACK CFI 30c10 .cfa: sp 16 +
STACK CFI 30c14 .cfa: x29 16 + .ra: .cfa -8 + ^ x29: .cfa -16 + ^
STACK CFI 30ca0 .cfa: sp 16 +
STACK CFI 30ca4 .cfa: sp 0 +
STACK CFI 30ca8 .cfa: x29 16 +
STACK CFI 30cf8 .cfa: sp 16 +
STACK CFI 30cfc .cfa: sp 0 +
STACK CFI 30d00 .cfa: x29 16 +
STACK CFI 30e64 .cfa: sp 16 +
STACK CFI 30e68 .cfa: sp 0 +
STACK CFI 30e6c .cfa: x29 16 +
STACK CFI INIT 30e9c 158 .cfa: sp 0 +
STACK CFI 30ea0 .cfa: sp 112 +
STACK CFI 30ebc .cfa: x29 96 + x19: .cfa -8 + ^ x20: .cfa -16 + ^ x21: .cfa -24 + ^ x22: .cfa -32 + ^ x23: .cfa -40 + ^ x24: .cfa -48 + ^ x25: .cfa -56 + ^ x26: .cfa -64 + ^ x27: .cfa -72 + ^ x28: .cfa -80 + ^ .ra: .cfa -88 + ^ x29: .cfa -96 + ^
STACK CFI 30fa4 .cfa: sp 112 +
STACK CFI 30fa8 .cfa: x29 96 +
STACK CFI 30fb0 .cfa: sp 112 +
STACK CFI 30fcc .cfa: sp 0 +
STACK CFI 30fd0 .cfa: x29 96 +
STACK CFI 30ff0 .cfa: sp 112 +
STACK CFI INIT 30ff4 e54 .cfa: sp 0 +
STACK CFI 30ff8 .cfa: sp 192 +
STACK CFI 31014 .cfa: x29 96 + x19: .cfa -8 + ^ x20: .cfa -16 + ^ x21: .cfa -24 + ^ x22: .cfa -32 + ^ x23: .cfa -40 + ^ x24: .cfa -48 + ^ x25: .cfa -56 + ^ x26: .cfa -64 + ^ x27: .cfa -72 + ^ x28: .cfa -80 + ^ .ra: .cfa -88 + ^ x29: .cfa -96 + ^
STACK CFI 31d30 .cfa: sp 192 +
STACK CFI 31d4c .cfa: sp 0 +
STACK CFI 31d50 .cfa: x29 96 +
STACK CFI INIT 31e48 1068 .cfa: sp 0 +
STACK CFI 31e4c .cfa: sp 288 +
STACK CFI 31e68 .cfa: x29 96 + x19: .cfa -8 + ^ x20: .cfa -16 + ^ x21: .cfa -24 + ^ x22: .cfa -32 + ^ x23: .cfa -40 + ^ x24: .cfa -48 + ^ x25: .cfa -56 + ^ x26: .cfa -64 + ^ x27: .cfa -72 + ^ x28: .cfa -80 + ^ .ra: .cfa -88 + ^ x29: .cfa -96 + ^
STACK CFI 32bf8 .cfa: sp 288 +
STACK CFI 32c14 .cfa: sp 0 +
STACK CFI 32c18 .cfa: x29 96 +
STACK CFI INIT 32eb0 520 .cfa: sp 0 +
STACK CFI 32eb4 .cfa: sp 144 +
STACK CFI 32ed0 .cfa: x29 96 + x19: .cfa -8 + ^ x20: .cfa -16 + ^ x21: .cfa -24 + ^ x22: .cfa -32 + ^ x23: .cfa -40 + ^ x24: .cfa -48 + ^ x25: .cfa -56 + ^ x26: .cfa -64 + ^ x27: .cfa -72 + ^ x28: .cfa -80 + ^ .ra: .cfa -88 + ^ x29: .cfa -96 + ^
STACK CFI 333ac .cfa: sp 144 +
STACK CFI 333c8 .cfa: sp 0 +
STACK CFI 333cc .cfa: x29 96 +
STACK CFI INIT 33d70 136c .cfa: sp 0 +
STACK CFI 33d74 .cfa: sp 224 +
STACK CFI 33d90 .cfa: x29 96 + x19: .cfa -8 + ^ x20: .cfa -16 + ^ x21: .cfa -24 + ^ x22: .cfa -32 + ^ x23: .cfa -40 + ^ x24: .cfa -48 + ^ x25: .cfa -56 + ^ x26: .cfa -64 + ^ x27: .cfa -72 + ^ x28: .cfa -80 + ^ .ra: .cfa -88 + ^ x29: .cfa -96 + ^
STACK CFI 350b8 .cfa: sp 224 +
STACK CFI 350d4 .cfa: sp 0 +
STACK CFI 350d8 .cfa: x29 96 +
STACK CFI INIT 350dc 1b8 .cfa: sp 0 +
STACK CFI INIT 12430 f4 .cfa: sp 0 +
STACK CFI 12434 .cfa: sp 64 +
STACK CFI 12440 .cfa: x29 32 + x19: .cfa -8 + ^ x20: .cfa -16 + ^ .ra: .cfa -24 + ^ x29: .cfa -32 + ^
STACK CFI 124e4 .cfa: sp 64 +
STACK CFI 124f0 .cfa: sp 0 +
STACK CFI 124f4 .cfa: x29 32 +
STACK CFI INIT 125b8 50 .cfa: sp 0 +
STACK CFI 125bc .cfa: sp 32 +
STACK CFI 125c4 .cfa: x29 32 + x19: .cfa -8 + ^ x20: .cfa -16 + ^ .ra: .cfa -24 + ^ x29: .cfa -32 + ^
STACK CFI INIT 12648 134 .cfa: sp 0 +
STACK CFI 1264c .cfa: sp 80 +
STACK CFI 1265c .cfa: x29 48 + x19: .cfa -8 + ^ x20: .cfa -16 + ^ x21: .cfa -24 + ^ x22: .cfa -32 + ^ .ra: .cfa -40 + ^ x29: .cfa -48 + ^
STACK CFI 12760 .cfa: sp 80 +
STACK CFI 12770 .cfa: sp 0 +
STACK CFI 12774 .cfa: x29 48 +
STACK CFI INIT 12880 670 .cfa: sp 0 +
STACK CFI 12884 .cfa: sp 256 +
STACK CFI 128a4 .cfa: x29 96 + x19: .cfa -8 + ^ x20: .cfa -16 + ^ x21: .cfa -24 + ^ x22: .cfa -32 + ^ x23: .cfa -40 + ^ x24: .cfa -48 + ^ x25: .cfa -56 + ^ x26: .cfa -64 + ^ x27: .cfa -72 + ^ x28: .cfa -80 + ^ .ra: .cfa -88 + ^ x29: .cfa -96 + ^ v8: .cfa -112 + ^
STACK CFI 12d6c .cfa: sp 256 +
STACK CFI 12d8c .cfa: sp 0 +
STACK CFI 12d90 .cfa: x29 96 +
STACK CFI INIT 13118 a8 .cfa: sp 0 +
STACK CFI 1311c .cfa: sp 64 +
STACK CFI 13128 .cfa: x29 32 + x19: .cfa -8 + ^ x20: .cfa -16 + ^ .ra: .cfa -24 + ^ x29: .cfa -32 + ^
STACK CFI 13180 .cfa: sp 64 +
STACK CFI 1318c .cfa: sp 0 +
STACK CFI 13190 .cfa: x29 32 +
STACK CFI INIT 13288 658 .cfa: sp 0 +
STACK CFI 1328c .cfa: sp 96 +
STACK CFI 132a4 .cfa: x29 96 + x19: .cfa -8 + ^ x20: .cfa -16 + ^ x21: .cfa -24 + ^ x22: .cfa -32 + ^ x23: .cfa -40 + ^ x24: .cfa -48 + ^ x25: .cfa -56 + ^ x26: .cfa -64 + ^ x27: .cfa -72 + ^ x28: .cfa -80 + ^ .ra: .cfa -88 + ^ x29: .cfa -96 + ^
STACK CFI 13760 .cfa: sp 96 +
STACK CFI 13778 .cfa: sp 0 +
STACK CFI 1377c .cfa: x29 96 +
STACK CFI INIT 138e0 a24 .cfa: sp 0 +
STACK CFI 138e4 .cfa: sp 224 +
STACK CFI 13900 .cfa: x29 96 + x19: .cfa -8 + ^ x20: .cfa -16 + ^ x21: .cfa -24 + ^ x22: .cfa -32 + ^ x23: .cfa -40 + ^ x24: .cfa -48 + ^ x25: .cfa -56 + ^ x26: .cfa -64 + ^ x27: .cfa -72 + ^ x28: .cfa -80 + ^ .ra: .cfa -88 + ^ x29: .cfa -96 + ^
STACK CFI 13b70 .cfa: sp 224 +
STACK CFI 13b8c .cfa: sp 0 +
STACK CFI 13b90 .cfa: x29 96 +
STACK CFI 141f0 .cfa: sp 224 +
STACK CFI 1420c .cfa: sp 0 +
STACK CFI 14210 .cfa: x29 96 +
STACK CFI INIT 14370 6c4 .cfa: sp 0 +
STACK CFI 14374 .cfa: sp 112 +
STACK CFI 14390 .cfa: x29 96 + x19: .cfa -8 + ^ x20: .cfa -16 + ^ x21: .cfa -24 + ^ x22: .cfa -32 + ^ x23: .cfa -40 + ^ x24: .cfa -48 + ^ x25: .cfa -56 + ^ x26: .cfa -64 + ^ x27: .cfa -72 + ^ x28: .cfa -80 + ^ .ra: .cfa -88 + ^ x29: .cfa -96 + ^
STACK CFI 144d4 .cfa: sp 112 +
STACK CFI 144f0 .cfa: sp 0 +
STACK CFI 144f4 .cfa: x29 96 +
STACK CFI 14500 .cfa: sp 112 +
STACK CFI 1451c .cfa: sp 0 +
STACK CFI 14520 .cfa: x29 96 +
STACK CFI 149bc .cfa: sp 112 +
STACK CFI 149d8 .cfa: sp 0 +
STACK CFI 149dc .cfa: x29 96 +
STACK CFI INIT 14a34 4c .cfa: sp 0 +
STACK CFI 14a38 .cfa: sp 32 +
STACK CFI 14a40 .cfa: x29 32 + x19: .cfa -8 + ^ x20: .cfa -16 + ^ .ra: .cfa -24 + ^ x29: .cfa -32 + ^
STACK CFI INIT 15004 4c .cfa: sp 0 +
STACK CFI 15008 .cfa: sp 32 +
STACK CFI 15010 .cfa: x29 32 + x19: .cfa -8 + ^ x20: .cfa -16 + ^ .ra: .cfa -24 + ^ x29: .cfa -32 + ^
STACK CFI INIT 15168 364 .cfa: sp 0 +
STACK CFI 1516c .cfa: sp 144 +
STACK CFI 15180 .cfa: x29 64 + x19: .cfa -8 + ^ x20: .cfa -16 + ^ x21: .cfa -24 + ^ x22: .cfa -32 + ^ x23: .cfa -48 + ^ .ra: .cfa -56 + ^ x29: .cfa -64 + ^
STACK CFI 15314 .cfa: sp 144 +
STACK CFI 15328 .cfa: sp 0 +
STACK CFI 1532c .cfa: x29 64 +
STACK CFI INIT 154cc 644 .cfa: sp 0 +
STACK CFI 154d0 .cfa: sp 64 +
STACK CFI 154e0 .cfa: x29 64 + x19: .cfa -8 + ^ x20: .cfa -16 + ^ x21: .cfa -24 + ^ x22: .cfa -32 + ^ x23: .cfa -48 + ^ .ra: .cfa -56 + ^ x29: .cfa -64 + ^
STACK CFI 1554c .cfa: sp 64 +
STACK CFI 1555c .cfa: sp 0 +
STACK CFI 15560 .cfa: x29 64 +
STACK CFI 155b0 .cfa: sp 64 +
STACK CFI 155c0 .cfa: sp 0 +
STACK CFI 155c4 .cfa: x29 64 +
STACK CFI 15640 .cfa: sp 64 +
STACK CFI 15650 .cfa: sp 0 +
STACK CFI 15654 .cfa: x29 64 +
STACK CFI 15744 .cfa: sp 64 +
STACK CFI 15754 .cfa: sp 0 +
STACK CFI 15758 .cfa: x29 64 +
STACK CFI 157e8 .cfa: sp 64 +
STACK CFI 157f8 .cfa: sp 0 +
STACK CFI 157fc .cfa: x29 64 +
STACK CFI 15814 .cfa: sp 64 +
STACK CFI 15824 .cfa: sp 0 +
STACK CFI 15828 .cfa: x29 64 +
STACK CFI 159b0 .cfa: sp 64 +
STACK CFI 159c0 .cfa: sp 0 +
STACK CFI 159c4 .cfa: x29 64 +
STACK CFI 159d8 .cfa: sp 64 +
STACK CFI 159e8 .cfa: sp 0 +
STACK CFI 159ec .cfa: x29 64 +
STACK CFI 15a74 .cfa: sp 64 +
STACK CFI 15a84 .cfa: sp 0 +
STACK CFI 15a88 .cfa: x29 64 +
STACK CFI INIT 15f04 6c .cfa: sp 0 +
STACK CFI 15f08 .cfa: sp 32 +
STACK CFI 15f10 .cfa: x29 32 + x19: .cfa -8 + ^ x20: .cfa -16 + ^ .ra: .cfa -24 + ^ x29: .cfa -32 + ^
STACK CFI 15f50 .cfa: sp 32 +
STACK CFI 15f58 .cfa: sp 0 +
STACK CFI 15f5c .cfa: x29 32 +
STACK CFI INIT 16024 4c .cfa: sp 0 +
STACK CFI 16028 .cfa: sp 32 +
STACK CFI 16030 .cfa: x29 32 + x19: .cfa -8 + ^ x20: .cfa -16 + ^ .ra: .cfa -24 + ^ x29: .cfa -32 + ^
STACK CFI INIT 16498 1d4 .cfa: sp 0 +
STACK CFI 1649c .cfa: sp 176 +
STACK CFI 164ac .cfa: x29 48 + x19: .cfa -8 + ^ x20: .cfa -16 + ^ x21: .cfa -24 + ^ x22: .cfa -32 + ^ .ra: .cfa -40 + ^ x29: .cfa -48 + ^
STACK CFI 16604 .cfa: sp 176 +
STACK CFI 16614 .cfa: sp 0 +
STACK CFI 16618 .cfa: x29 48 +
STACK CFI 16628 .cfa: sp 176 +
STACK CFI 16638 .cfa: sp 0 +
STACK CFI 1663c .cfa: x29 48 +
STACK CFI INIT 1666c 44c .cfa: sp 0 +
STACK CFI 16670 .cfa: sp 256 +
STACK CFI 1668c .cfa: x29 96 + x19: .cfa -8 + ^ x20: .cfa -16 + ^ x21: .cfa -24 + ^ x22: .cfa -32 + ^ x23: .cfa -40 + ^ x24: .cfa -48 + ^ x25: .cfa -56 + ^ x26: .cfa -64 + ^ x27: .cfa -72 + ^ x28: .cfa -80 + ^ .ra: .cfa -88 + ^ x29: .cfa -96 + ^
STACK CFI 169bc .cfa: sp 256 +
STACK CFI 169d8 .cfa: sp 0 +
STACK CFI 169dc .cfa: x29 96 +
STACK CFI INIT 16d0c 4c .cfa: sp 0 +
STACK CFI 16d10 .cfa: sp 32 +
STACK CFI 16d18 .cfa: x29 32 + x19: .cfa -8 + ^ x20: .cfa -16 + ^ .ra: .cfa -24 + ^ x29: .cfa -32 + ^
STACK CFI INIT 16d58 170 .cfa: sp 0 +
STACK CFI 16d5c .cfa: sp 80 +
STACK CFI 16d70 .cfa: x29 80 + x19: .cfa -8 + ^ x20: .cfa -16 + ^ x21: .cfa -24 + ^ x22: .cfa -32 + ^ x23: .cfa -40 + ^ x24: .cfa -48 + ^ x25: .cfa -64 + ^ .ra: .cfa -72 + ^ x29: .cfa -80 + ^
STACK CFI 16e64 .cfa: sp 80 +
STACK CFI 16e78 .cfa: sp 0 +
STACK CFI 16e7c .cfa: x29 80 +
STACK CFI INIT 16ec8 4c .cfa: sp 0 +
STACK CFI 16ecc .cfa: sp 32 +
STACK CFI 16ed4 .cfa: x29 32 + x19: .cfa -8 + ^ x20: .cfa -16 + ^ .ra: .cfa -24 + ^ x29: .cfa -32 + ^
STACK CFI INIT 17484 10f4 .cfa: sp 0 +
STACK CFI 17488 .cfa: sp 432 +
STACK CFI 174a4 .cfa: x29 96 + x19: .cfa -8 + ^ x20: .cfa -16 + ^ x21: .cfa -24 + ^ x22: .cfa -32 + ^ x23: .cfa -40 + ^ x24: .cfa -48 + ^ x25: .cfa -56 + ^ x26: .cfa -64 + ^ x27: .cfa -72 + ^ x28: .cfa -80 + ^ .ra: .cfa -88 + ^ x29: .cfa -96 + ^
STACK CFI 1828c .cfa: sp 432 +
STACK CFI 182a8 .cfa: sp 0 +
STACK CFI 182ac .cfa: x29 96 +
STACK CFI INIT 18578 4c .cfa: sp 0 +
STACK CFI 1857c .cfa: sp 32 +
STACK CFI 18584 .cfa: x29 32 + x19: .cfa -8 + ^ x20: .cfa -16 + ^ .ra: .cfa -24 + ^ x29: .cfa -32 + ^
STACK CFI INIT 1860c 4c .cfa: sp 0 +
STACK CFI 18610 .cfa: sp 32 +
STACK CFI 18618 .cfa: x29 32 + x19: .cfa -8 + ^ x20: .cfa -16 + ^ .ra: .cfa -24 + ^ x29: .cfa -32 + ^
STACK CFI INIT 18b64 140 .cfa: sp 0 +
STACK CFI 18b68 .cfa: sp 48 +
STACK CFI 18b74 .cfa: x29 48 + x19: .cfa -8 + ^ x20: .cfa -16 + ^ x21: .cfa -32 + ^ .ra: .cfa -40 + ^ x29: .cfa -48 + ^
STACK CFI 18c54 .cfa: sp 48 +
STACK CFI 18c60 .cfa: sp 0 +
STACK CFI 18c64 .cfa: x29 48 +
STACK CFI INIT 18ca4 4c .cfa: sp 0 +
STACK CFI 18ca8 .cfa: sp 32 +
STACK CFI 18cb0 .cfa: x29 32 + x19: .cfa -8 + ^ x20: .cfa -16 + ^ .ra: .cfa -24 + ^ x29: .cfa -32 + ^
STACK CFI INIT 19930 1dc .cfa: sp 0 +
STACK CFI 19934 .cfa: sp 128 +
STACK CFI 1994c .cfa: x29 80 + x19: .cfa -8 + ^ x20: .cfa -16 + ^ x21: .cfa -24 + ^ x22: .cfa -32 + ^ x23: .cfa -40 + ^ x24: .cfa -48 + ^ x25: .cfa -64 + ^ .ra: .cfa -72 + ^ x29: .cfa -80 + ^
STACK CFI 19a40 .cfa: sp 128 +
STACK CFI 19a58 .cfa: sp 0 +
STACK CFI 19a5c .cfa: x29 80 +
STACK CFI INIT 19d9c c6c .cfa: sp 0 +
STACK CFI 19da0 .cfa: sp 256 +
STACK CFI 19dbc .cfa: x29 96 + x19: .cfa -8 + ^ x20: .cfa -16 + ^ x21: .cfa -24 + ^ x22: .cfa -32 + ^ x23: .cfa -40 + ^ x24: .cfa -48 + ^ x25: .cfa -56 + ^ x26: .cfa -64 + ^ x27: .cfa -72 + ^ x28: .cfa -80 + ^ .ra: .cfa -88 + ^ x29: .cfa -96 + ^
STACK CFI 1a944 .cfa: sp 256 +
STACK CFI 1a960 .cfa: sp 0 +
STACK CFI 1a964 .cfa: x29 96 +
STACK CFI INIT 1ac08 1c4 .cfa: sp 0 +
STACK CFI 1ac0c .cfa: sp 112 +
STACK CFI 1ac24 .cfa: x29 80 + x19: .cfa -8 + ^ x20: .cfa -16 + ^ x21: .cfa -24 + ^ x22: .cfa -32 + ^ x23: .cfa -40 + ^ x24: .cfa -48 + ^ x25: .cfa -56 + ^ x26: .cfa -64 + ^ .ra: .cfa -72 + ^ x29: .cfa -80 + ^
STACK CFI 1ad50 .cfa: sp 112 +
STACK CFI 1ad68 .cfa: sp 0 +
STACK CFI 1ad6c .cfa: x29 80 +
STACK CFI INIT 1ade0 4c .cfa: sp 0 +
STACK CFI 1ade4 .cfa: sp 32 +
STACK CFI 1adec .cfa: x29 32 + x19: .cfa -8 + ^ x20: .cfa -16 + ^ .ra: .cfa -24 + ^ x29: .cfa -32 + ^
STACK CFI INIT 1bcd8 4c .cfa: sp 0 +
STACK CFI 1bcdc .cfa: sp 32 +
STACK CFI 1bce4 .cfa: x29 32 + x19: .cfa -8 + ^ x20: .cfa -16 + ^ .ra: .cfa -24 + ^ x29: .cfa -32 + ^
STACK CFI INIT 1bd24 2b4 .cfa: sp 0 +
STACK CFI 1bd28 .cfa: sp 144 +
STACK CFI 1bd40 .cfa: x29 80 + x19: .cfa -8 + ^ x20: .cfa -16 + ^ x21: .cfa -24 + ^ x22: .cfa -32 + ^ x23: .cfa -40 + ^ x24: .cfa -48 + ^ x25: .cfa -56 + ^ x26: .cfa -64 + ^ .ra: .cfa -72 + ^ x29: .cfa -80 + ^
STACK CFI 1bf44 .cfa: sp 144 +
STACK CFI 1bf5c .cfa: sp 0 +
STACK CFI 1bf60 .cfa: x29 80 +
STACK CFI INIT 1bfd8 224 .cfa: sp 0 +
STACK CFI 1bfdc .cfa: sp 128 +
STACK CFI 1bff4 .cfa: x29 80 + x19: .cfa -8 + ^ x20: .cfa -16 + ^ x21: .cfa -24 + ^ x22: .cfa -32 + ^ x23: .cfa -40 + ^ x24: .cfa -48 + ^ x25: .cfa -64 + ^ .ra: .cfa -72 + ^ x29: .cfa -80 + ^
STACK CFI 1c190 .cfa: sp 128 +
STACK CFI 1c1a8 .cfa: sp 0 +
STACK CFI 1c1ac .cfa: x29 80 +
STACK CFI INIT 1c278 4c .cfa: sp 0 +
STACK CFI 1c27c .cfa: sp 32 +
STACK CFI 1c284 .cfa: x29 32 + x19: .cfa -8 + ^ x20: .cfa -16 + ^ .ra: .cfa -24 + ^ x29: .cfa -32 + ^
STACK CFI INIT 1c2c4 1b4 .cfa: sp 0 +
STACK CFI 1c2c8 .cfa: sp 112 +
STACK CFI 1c2e0 .cfa: x29 80 + x19: .cfa -8 + ^ x20: .cfa -16 + ^ x21: .cfa -24 + ^ x22: .cfa -32 + ^ x23: .cfa -40 + ^ x24: .cfa -48 + ^ x25: .cfa -64 + ^ .ra: .cfa -72 + ^ x29: .cfa -80 + ^
STACK CFI 1c414 .cfa: sp 112 +
STACK CFI 1c42c .cfa: sp 0 +
STACK CFI 1c430 .cfa: x29 80 +
STACK CFI INIT 1c478 4c .cfa: sp 0 +
STACK CFI 1c47c .cfa: sp 32 +
STACK CFI 1c484 .cfa: x29 32 + x19: .cfa -8 + ^ x20: .cfa -16 + ^ .ra: .cfa -24 + ^ x29: .cfa -32 + ^
STACK CFI INIT 1c78c 140 .cfa: sp 0 +
STACK CFI 1c790 .cfa: sp 96 +
STACK CFI 1c7a8 .cfa: x29 96 + x19: .cfa -8 + ^ x20: .cfa -16 + ^ x21: .cfa -24 + ^ x22: .cfa -32 + ^ x23: .cfa -40 + ^ x24: .cfa -48 + ^ x25: .cfa -56 + ^ x26: .cfa -64 + ^ x27: .cfa -72 + ^ x28: .cfa -80 + ^ .ra: .cfa -88 + ^ x29: .cfa -96 + ^
STACK CFI 1c864 .cfa: sp 96 +
STACK CFI 1c87c .cfa: sp 0 +
STACK CFI 1c880 .cfa: x29 96 +
STACK CFI INIT 1c8cc 4c .cfa: sp 0 +
STACK CFI 1c8d0 .cfa: sp 32 +
STACK CFI 1c8d8 .cfa: x29 32 + x19: .cfa -8 + ^ x20: .cfa -16 + ^ .ra: .cfa -24 + ^ x29: .cfa -32 + ^
STACK CFI INIT 1c918 4c .cfa: sp 0 +
STACK CFI 1c91c .cfa: sp 32 +
STACK CFI 1c924 .cfa: x29 32 + x19: .cfa -8 + ^ x20: .cfa -16 + ^ .ra: .cfa -24 + ^ x29: .cfa -32 + ^
STACK CFI INIT 1cdf4 4c .cfa: sp 0 +
STACK CFI 1cdf8 .cfa: sp 32 +
STACK CFI 1ce00 .cfa: x29 32 + x19: .cfa -8 + ^ x20: .cfa -16 + ^ .ra: .cfa -24 + ^ x29: .cfa -32 + ^
STACK CFI INIT 1d80c 384 .cfa: sp 0 +
STACK CFI 1d810 .cfa: sp 192 +
STACK CFI 1d82c .cfa: x29 96 + x19: .cfa -8 + ^ x20: .cfa -16 + ^ x21: .cfa -24 + ^ x22: .cfa -32 + ^ x23: .cfa -40 + ^ x24: .cfa -48 + ^ x25: .cfa -56 + ^ x26: .cfa -64 + ^ x27: .cfa -80 + ^ .ra: .cfa -88 + ^ x29: .cfa -96 + ^
STACK CFI 1da5c .cfa: sp 192 +
STACK CFI 1da78 .cfa: sp 0 +
STACK CFI 1da7c .cfa: x29 96 +
STACK CFI INIT 1db90 74 .cfa: sp 0 +
STACK CFI 1db94 .cfa: sp 48 +
STACK CFI 1dba0 .cfa: x29 32 + x19: .cfa -8 + ^ x20: .cfa -16 + ^ .ra: .cfa -24 + ^ x29: .cfa -32 + ^
STACK CFI 1dbec .cfa: sp 48 +
STACK CFI 1dbf8 .cfa: sp 0 +
STACK CFI 1dbfc .cfa: x29 32 +
STACK CFI INIT 1de44 174 .cfa: sp 0 +
STACK CFI 1de48 .cfa: sp 112 +
STACK CFI 1de58 .cfa: x29 48 + x19: .cfa -8 + ^ x20: .cfa -16 + ^ x21: .cfa -32 + ^ .ra: .cfa -40 + ^ x29: .cfa -48 + ^
STACK CFI 1df54 .cfa: sp 112 +
STACK CFI 1df64 .cfa: sp 0 +
STACK CFI 1df68 .cfa: x29 48 +
STACK CFI INIT 1e108 440 .cfa: sp 0 +
STACK CFI 1e10c .cfa: sp 304 +
STACK CFI 1e128 .cfa: x29 96 + x19: .cfa -8 + ^ x20: .cfa -16 + ^ x21: .cfa -24 + ^ x22: .cfa -32 + ^ x23: .cfa -40 + ^ x24: .cfa -48 + ^ x25: .cfa -56 + ^ x26: .cfa -64 + ^ x27: .cfa -72 + ^ x28: .cfa -80 + ^ .ra: .cfa -88 + ^ x29: .cfa -96 + ^
STACK CFI 1e41c .cfa: sp 304 +
STACK CFI 1e438 .cfa: sp 0 +
STACK CFI 1e43c .cfa: x29 96 +
STACK CFI INIT 1e598 74 .cfa: sp 0 +
STACK CFI 1e59c .cfa: sp 48 +
STACK CFI 1e5a8 .cfa: x29 32 + x19: .cfa -8 + ^ x20: .cfa -16 + ^ .ra: .cfa -24 + ^ x29: .cfa -32 + ^
STACK CFI 1e5f4 .cfa: sp 48 +
STACK CFI 1e600 .cfa: sp 0 +
STACK CFI 1e604 .cfa: x29 32 +
STACK CFI INIT 1e610 154 .cfa: sp 0 +
STACK CFI 1e614 .cfa: sp 384 +
STACK CFI 1e628 .cfa: x29 64 + x19: .cfa -8 + ^ x20: .cfa -16 + ^ x21: .cfa -24 + ^ x22: .cfa -32 + ^ x23: .cfa -40 + ^ x28: .cfa -48 + ^ .ra: .cfa -56 + ^ x29: .cfa -64 + ^
STACK CFI 1e70c .cfa: sp 384 +
STACK CFI 1e720 .cfa: sp 0 +
STACK CFI 1e724 .cfa: x29 64 +
STACK CFI INIT 1e764 12c .cfa: sp 0 +
STACK CFI 1e768 .cfa: sp 80 +
STACK CFI 1e77c .cfa: x29 80 + x19: .cfa -8 + ^ x20: .cfa -16 + ^ x21: .cfa -24 + ^ x22: .cfa -32 + ^ x23: .cfa -40 + ^ x24: .cfa -48 + ^ x25: .cfa -56 + ^ x26: .cfa -64 + ^ .ra: .cfa -72 + ^ x29: .cfa -80 + ^
STACK CFI 1e844 .cfa: sp 80 +
STACK CFI 1e858 .cfa: sp 0 +
STACK CFI 1e85c .cfa: x29 80 +
STACK CFI INIT 1e910 1a4 .cfa: sp 0 +
STACK CFI 1e914 .cfa: sp 112 +
STACK CFI 1e92c .cfa: x29 80 + x19: .cfa -8 + ^ x20: .cfa -16 + ^ x21: .cfa -24 + ^ x22: .cfa -32 + ^ x23: .cfa -40 + ^ x24: .cfa -48 + ^ x25: .cfa -56 + ^ x26: .cfa -64 + ^ .ra: .cfa -72 + ^ x29: .cfa -80 + ^
STACK CFI 1ea1c .cfa: sp 112 +
STACK CFI 1ea34 .cfa: sp 0 +
STACK CFI 1ea38 .cfa: x29 80 +
STACK CFI INIT 1eab4 1dc .cfa: sp 0 +
STACK CFI 1eab8 .cfa: sp 128 +
STACK CFI 1ead4 .cfa: x29 96 + x19: .cfa -8 + ^ x20: .cfa -16 + ^ x21: .cfa -24 + ^ x22: .cfa -32 + ^ x23: .cfa -40 + ^ x24: .cfa -48 + ^ x25: .cfa -56 + ^ x26: .cfa -64 + ^ x27: .cfa -80 + ^ .ra: .cfa -88 + ^ x29: .cfa -96 + ^
STACK CFI 1ec40 .cfa: sp 128 +
STACK CFI 1ec5c .cfa: sp 0 +
STACK CFI 1ec60 .cfa: x29 96 +
STACK CFI INIT 1ec90 178 .cfa: sp 0 +
STACK CFI 1ec94 .cfa: sp 80 +
STACK CFI 1eca8 .cfa: x29 80 + x19: .cfa -8 + ^ x20: .cfa -16 + ^ x21: .cfa -24 + ^ x22: .cfa -32 + ^ x23: .cfa -40 + ^ x24: .cfa -48 + ^ x25: .cfa -64 + ^ .ra: .cfa -72 + ^ x29: .cfa -80 + ^
STACK CFI 1edd4 .cfa: sp 80 +
STACK CFI 1ede8 .cfa: sp 0 +
STACK CFI 1edec .cfa: x29 80 +
STACK CFI INIT 1efec 21e8 .cfa: sp 0 +
STACK CFI 1eff0 .cfa: sp 96 +
STACK CFI 1f008 .cfa: x29 96 + x19: .cfa -8 + ^ x20: .cfa -16 + ^ x21: .cfa -24 + ^ x22: .cfa -32 + ^ x23: .cfa -40 + ^ x24: .cfa -48 + ^ x25: .cfa -56 + ^ x26: .cfa -64 + ^ x27: .cfa -72 + ^ x28: .cfa -80 + ^ .ra: .cfa -88 + ^ x29: .cfa -96 + ^
STACK CFI 1f110 .cfa: sp 96 +
STACK CFI 1f128 .cfa: sp 0 +
STACK CFI 1f12c .cfa: x29 96 +
STACK CFI INIT 21450 5f0 .cfa: sp 0 +
STACK CFI 21454 .cfa: sp 112 +
STACK CFI 21470 .cfa: x29 96 + x19: .cfa -8 + ^ x20: .cfa -16 + ^ x21: .cfa -24 + ^ x22: .cfa -32 + ^ x23: .cfa -40 + ^ x24: .cfa -48 + ^ x25: .cfa -56 + ^ x26: .cfa -64 + ^ x27: .cfa -80 + ^ .ra: .cfa -88 + ^ x29: .cfa -96 + ^
STACK CFI 21714 .cfa: sp 112 +
STACK CFI 21730 .cfa: sp 0 +
STACK CFI 21734 .cfa: x29 96 +
STACK CFI 21928 .cfa: sp 112 +
STACK CFI 21944 .cfa: sp 0 +
STACK CFI 21948 .cfa: x29 96 +
STACK CFI INIT 21f18 1e8 .cfa: sp 0 +
STACK CFI 21f1c .cfa: sp 80 +
STACK CFI 21f2c .cfa: x29 48 + x19: .cfa -8 + ^ x20: .cfa -16 + ^ x21: .cfa -32 + ^ .ra: .cfa -40 + ^ x29: .cfa -48 + ^
STACK CFI 2204c .cfa: sp 80 +
STACK CFI 2205c .cfa: sp 0 +
STACK CFI 22060 .cfa: x29 48 +
STACK CFI INIT 2213c fc .cfa: sp 0 +
STACK CFI 22140 .cfa: sp 96 +
STACK CFI 22150 .cfa: x29 48 + x19: .cfa -8 + ^ x20: .cfa -16 + ^ x21: .cfa -32 + ^ .ra: .cfa -40 + ^ x29: .cfa -48 + ^
STACK CFI 221c8 .cfa: sp 96 +
STACK CFI 221d8 .cfa: sp 0 +
STACK CFI 221dc .cfa: x29 48 +
STACK CFI INIT 22238 134 .cfa: sp 0 +
STACK CFI 2223c .cfa: sp 80 +
STACK CFI 22248 .cfa: x29 32 + x19: .cfa -8 + ^ x20: .cfa -16 + ^ .ra: .cfa -24 + ^ x29: .cfa -32 + ^
STACK CFI 22278 .cfa: sp 80 +
STACK CFI 22284 .cfa: sp 0 +
STACK CFI 22288 .cfa: x29 32 +
STACK CFI INIT 2236c 78 .cfa: sp 0 +
STACK CFI 22370 .cfa: sp 32 +
STACK CFI 22378 .cfa: x29 32 + x19: .cfa -8 + ^ x20: .cfa -16 + ^ .ra: .cfa -24 + ^ x29: .cfa -32 + ^
STACK CFI 22384 .cfa: sp 32 +
STACK CFI 2238c .cfa: sp 0 +
STACK CFI 22390 .cfa: x29 32 +
STACK CFI INIT 223e4 74 .cfa: sp 0 +
STACK CFI 223e8 .cfa: sp 48 +
STACK CFI 223f4 .cfa: x29 32 + x19: .cfa -8 + ^ x20: .cfa -16 + ^ .ra: .cfa -24 + ^ x29: .cfa -32 + ^
STACK CFI 22440 .cfa: sp 48 +
STACK CFI 2244c .cfa: sp 0 +
STACK CFI 22450 .cfa: x29 32 +
STACK CFI INIT 224bc 174 .cfa: sp 0 +
STACK CFI 224c0 .cfa: sp 112 +
STACK CFI 224d0 .cfa: x29 48 + x19: .cfa -8 + ^ x20: .cfa -16 + ^ x21: .cfa -32 + ^ .ra: .cfa -40 + ^ x29: .cfa -48 + ^
STACK CFI 2251c .cfa: sp 112 +
STACK CFI 2252c .cfa: sp 0 +
STACK CFI 22530 .cfa: x29 48 +
STACK CFI INIT 22630 194 .cfa: sp 0 +
STACK CFI 22634 .cfa: sp 112 +
STACK CFI 22644 .cfa: x29 48 + x19: .cfa -8 + ^ x20: .cfa -16 + ^ x21: .cfa -32 + ^ .ra: .cfa -40 + ^ x29: .cfa -48 + ^
STACK CFI 226b0 .cfa: sp 112 +
STACK CFI 226c0 .cfa: sp 0 +
STACK CFI 226c4 .cfa: x29 48 +
STACK CFI INIT 22810 224 .cfa: sp 0 +
STACK CFI 22814 .cfa: sp 128 +
STACK CFI 22828 .cfa: x29 64 + x19: .cfa -8 + ^ x20: .cfa -16 + ^ x21: .cfa -24 + ^ x22: .cfa -32 + ^ x23: .cfa -48 + ^ .ra: .cfa -56 + ^ x29: .cfa -64 + ^
STACK CFI 228d0 .cfa: sp 128 +
STACK CFI 228e4 .cfa: sp 0 +
STACK CFI 228e8 .cfa: x29 64 +
STACK CFI INIT 22a34 224 .cfa: sp 0 +
STACK CFI 22a38 .cfa: sp 128 +
STACK CFI 22a4c .cfa: x29 64 + x19: .cfa -8 + ^ x20: .cfa -16 + ^ x21: .cfa -24 + ^ x22: .cfa -32 + ^ x23: .cfa -48 + ^ .ra: .cfa -56 + ^ x29: .cfa -64 + ^
STACK CFI 22af4 .cfa: sp 128 +
STACK CFI 22b08 .cfa: sp 0 +
STACK CFI 22b0c .cfa: x29 64 +
STACK CFI INIT 22c58 154 .cfa: sp 0 +
STACK CFI 22c5c .cfa: sp 384 +
STACK CFI 22c70 .cfa: x29 64 + x19: .cfa -8 + ^ x20: .cfa -16 + ^ x21: .cfa -24 + ^ x22: .cfa -32 + ^ x23: .cfa -40 + ^ x28: .cfa -48 + ^ .ra: .cfa -56 + ^ x29: .cfa -64 + ^
STACK CFI 22d54 .cfa: sp 384 +
STACK CFI 22d68 .cfa: sp 0 +
STACK CFI 22d6c .cfa: x29 64 +
STACK CFI INIT 22dac 168 .cfa: sp 0 +
STACK CFI 22db0 .cfa: sp 384 +
STACK CFI 22dc4 .cfa: x29 64 + x19: .cfa -8 + ^ x20: .cfa -16 + ^ x21: .cfa -24 + ^ x22: .cfa -32 + ^ x23: .cfa -40 + ^ x28: .cfa -48 + ^ .ra: .cfa -56 + ^ x29: .cfa -64 + ^
STACK CFI 22ebc .cfa: sp 384 +
STACK CFI 22ed0 .cfa: sp 0 +
STACK CFI 22ed4 .cfa: x29 64 +
STACK CFI INIT 22f2c 4e0 .cfa: sp 0 +
STACK CFI 22f30 .cfa: sp 64 +
STACK CFI 22f40 .cfa: x29 64 + x19: .cfa -8 + ^ x20: .cfa -16 + ^ x21: .cfa -24 + ^ x22: .cfa -32 + ^ x23: .cfa -40 + ^ x24: .cfa -48 + ^ .ra: .cfa -56 + ^ x29: .cfa -64 + ^
STACK CFI 233e0 .cfa: sp 64 +
STACK CFI 233f0 .cfa: sp 0 +
STACK CFI 233f4 .cfa: x29 64 +
STACK CFI INIT 23980 294 .cfa: sp 0 +
STACK CFI 23984 .cfa: sp 240 +
STACK CFI 2399c .cfa: x29 80 + x19: .cfa -8 + ^ x20: .cfa -16 + ^ x21: .cfa -24 + ^ x22: .cfa -32 + ^ x23: .cfa -40 + ^ x24: .cfa -48 + ^ x25: .cfa -64 + ^ .ra: .cfa -72 + ^ x29: .cfa -80 + ^
STACK CFI 23b3c .cfa: sp 240 +
STACK CFI 23b54 .cfa: sp 0 +
STACK CFI 23b58 .cfa: x29 80 +
STACK CFI INIT 23c90 50 .cfa: sp 0 +
STACK CFI 23c94 .cfa: sp 32 +
STACK CFI 23c9c .cfa: x29 32 + x19: .cfa -8 + ^ x20: .cfa -16 + ^ .ra: .cfa -24 + ^ x29: .cfa -32 + ^
STACK CFI INIT 23d0c 7c0 .cfa: sp 0 +
STACK CFI 23d10 .cfa: sp 320 +
STACK CFI 23d2c .cfa: x29 96 + x19: .cfa -8 + ^ x20: .cfa -16 + ^ x21: .cfa -24 + ^ x22: .cfa -32 + ^ x23: .cfa -40 + ^ x24: .cfa -48 + ^ x25: .cfa -56 + ^ x26: .cfa -64 + ^ x27: .cfa -72 + ^ x28: .cfa -80 + ^ .ra: .cfa -88 + ^ x29: .cfa -96 + ^
STACK CFI 2437c .cfa: sp 320 +
STACK CFI 24398 .cfa: sp 0 +
STACK CFI 2439c .cfa: x29 96 +
STACK CFI INIT 2884c c74 .cfa: sp 0 +
STACK CFI 28850 .cfa: sp 96 +
STACK CFI 28868 .cfa: x29 96 + x19: .cfa -8 + ^ x20: .cfa -16 + ^ x21: .cfa -24 + ^ x22: .cfa -32 + ^ x23: .cfa -40 + ^ x24: .cfa -48 + ^ x25: .cfa -56 + ^ x26: .cfa -64 + ^ x27: .cfa -72 + ^ x28: .cfa -80 + ^ .ra: .cfa -88 + ^ x29: .cfa -96 + ^
STACK CFI 292e0 .cfa: sp 96 +
STACK CFI 292f8 .cfa: sp 0 +
STACK CFI 292fc .cfa: x29 96 +
STACK CFI INIT 29614 26c .cfa: sp 0 +
STACK CFI 29618 .cfa: sp 128 +
STACK CFI 29628 .cfa: x29 48 + x19: .cfa -8 + ^ x20: .cfa -16 + ^ x21: .cfa -24 + ^ x22: .cfa -32 + ^ .ra: .cfa -40 + ^ x29: .cfa -48 + ^
STACK CFI 297cc .cfa: sp 128 +
STACK CFI 297dc .cfa: sp 0 +
STACK CFI 297e0 .cfa: x29 48 +
STACK CFI INIT 29c10 3b8 .cfa: sp 0 +
STACK CFI 29c14 .cfa: sp 96 +
STACK CFI 29c2c .cfa: x29 96 + x19: .cfa -8 + ^ x20: .cfa -16 + ^ x21: .cfa -24 + ^ x22: .cfa -32 + ^ x23: .cfa -40 + ^ x24: .cfa -48 + ^ x25: .cfa -56 + ^ x26: .cfa -64 + ^ x27: .cfa -72 + ^ x28: .cfa -80 + ^ .ra: .cfa -88 + ^ x29: .cfa -96 + ^
STACK CFI 29f68 .cfa: sp 96 +
STACK CFI 29f80 .cfa: sp 0 +
STACK CFI 29f84 .cfa: x29 96 +
STACK CFI INIT 2a068 cb4 .cfa: sp 0 +
STACK CFI 2a06c .cfa: sp 96 +
STACK CFI 2a084 .cfa: x29 96 + x19: .cfa -8 + ^ x20: .cfa -16 + ^ x21: .cfa -24 + ^ x22: .cfa -32 + ^ x23: .cfa -40 + ^ x24: .cfa -48 + ^ x25: .cfa -56 + ^ x26: .cfa -64 + ^ x27: .cfa -72 + ^ x28: .cfa -80 + ^ .ra: .cfa -88 + ^ x29: .cfa -96 + ^
STACK CFI 2ab2c .cfa: sp 96 +
STACK CFI 2ab44 .cfa: sp 0 +
STACK CFI 2ab48 .cfa: x29 96 +
STACK CFI INIT 2b004 afc .cfa: sp 0 +
STACK CFI 2b008 .cfa: sp 96 +
STACK CFI 2b020 .cfa: x29 96 + x19: .cfa -8 + ^ x20: .cfa -16 + ^ x21: .cfa -24 + ^ x22: .cfa -32 + ^ x23: .cfa -40 + ^ x24: .cfa -48 + ^ x25: .cfa -56 + ^ x26: .cfa -64 + ^ x27: .cfa -72 + ^ x28: .cfa -80 + ^ .ra: .cfa -88 + ^ x29: .cfa -96 + ^
STACK CFI 2ba74 .cfa: sp 96 +
STACK CFI 2ba8c .cfa: sp 0 +
STACK CFI 2ba90 .cfa: x29 96 +
STACK CFI INIT 2bcdc 1430 .cfa: sp 0 +
STACK CFI 2bce0 .cfa: sp 96 +
STACK CFI 2bcf8 .cfa: x29 96 + x19: .cfa -8 + ^ x20: .cfa -16 + ^ x21: .cfa -24 + ^ x22: .cfa -32 + ^ x23: .cfa -40 + ^ x24: .cfa -48 + ^ x25: .cfa -56 + ^ x26: .cfa -64 + ^ x27: .cfa -72 + ^ x28: .cfa -80 + ^ .ra: .cfa -88 + ^ x29: .cfa -96 + ^
STACK CFI 2cf94 .cfa: sp 96 +
STACK CFI 2cfac .cfa: sp 0 +
STACK CFI 2cfb0 .cfa: x29 96 +
STACK CFI INIT 2d230 75c .cfa: sp 0 +
STACK CFI 2d234 .cfa: sp 368 +
STACK CFI 2d250 .cfa: x29 96 + x19: .cfa -8 + ^ x20: .cfa -16 + ^ x21: .cfa -24 + ^ x22: .cfa -32 + ^ x23: .cfa -40 + ^ x24: .cfa -48 + ^ x25: .cfa -56 + ^ x26: .cfa -64 + ^ x27: .cfa -72 + ^ x28: .cfa -80 + ^ .ra: .cfa -88 + ^ x29: .cfa -96 + ^
STACK CFI 2d304 .cfa: sp 368 +
STACK CFI 2d320 .cfa: sp 0 +
STACK CFI 2d324 .cfa: x29 96 +
STACK CFI 2d378 .cfa: sp 368 +
STACK CFI 2d394 .cfa: sp 0 +
STACK CFI 2d398 .cfa: x29 96 +
STACK CFI INIT 2dd4c eb0 .cfa: sp 0 +
STACK CFI 2dd50 .cfa: sp 96 +
STACK CFI 2dd68 .cfa: x29 96 + x19: .cfa -8 + ^ x20: .cfa -16 + ^ x21: .cfa -24 + ^ x22: .cfa -32 + ^ x23: .cfa -40 + ^ x24: .cfa -48 + ^ x25: .cfa -56 + ^ x26: .cfa -64 + ^ x27: .cfa -72 + ^ x28: .cfa -80 + ^ .ra: .cfa -88 + ^ x29: .cfa -96 + ^
STACK CFI 2ea10 .cfa: sp 96 +
STACK CFI 2ea28 .cfa: sp 0 +
STACK CFI 2ea2c .cfa: x29 96 +
STACK CFI INIT 2ef70 1c9c .cfa: sp 0 +
STACK CFI 2ef74 .cfa: sp 112 +
STACK CFI 2ef90 .cfa: x29 96 + x19: .cfa -8 + ^ x20: .cfa -16 + ^ x21: .cfa -24 + ^ x22: .cfa -32 + ^ x23: .cfa -40 + ^ x24: .cfa -48 + ^ x25: .cfa -56 + ^ x26: .cfa -64 + ^ x27: .cfa -72 + ^ x28: .cfa -80 + ^ .ra: .cfa -88 + ^ x29: .cfa -96 + ^ v8: .cfa -112 + ^
STACK CFI 2f378 .cfa: sp 112 +
STACK CFI 2f394 .cfa: sp 0 +
STACK CFI 2f398 .cfa: x29 96 +
STACK CFI INIT 333d0 9a0 .cfa: sp 0 +
STACK CFI 333d4 .cfa: sp 144 +
STACK CFI 333ec .cfa: x29 80 + x19: .cfa -8 + ^ x20: .cfa -16 + ^ x21: .cfa -24 + ^ x22: .cfa -32 + ^ x23: .cfa -40 + ^ x24: .cfa -48 + ^ x25: .cfa -64 + ^ .ra: .cfa -72 + ^ x29: .cfa -80 + ^
STACK CFI 33cec .cfa: sp 144 +
STACK CFI 33d04 .cfa: sp 0 +
STACK CFI 33d08 .cfa: x29 80 +
STACK CFI INIT 35294 57c .cfa: sp 0 +
STACK CFI 35298 .cfa: sp 96 +
STACK CFI 352b0 .cfa: x29 96 + x19: .cfa -8 + ^ x20: .cfa -16 + ^ x21: .cfa -24 + ^ x22: .cfa -32 + ^ x23: .cfa -40 + ^ x24: .cfa -48 + ^ x25: .cfa -56 + ^ x26: .cfa -64 + ^ x27: .cfa -72 + ^ x28: .cfa -80 + ^ .ra: .cfa -88 + ^ x29: .cfa -96 + ^
STACK CFI 35774 .cfa: sp 96 +
STACK CFI 3578c .cfa: sp 0 +
STACK CFI 35790 .cfa: x29 96 +
STACK CFI INIT 35810 67c .cfa: sp 0 +
STACK CFI 35814 .cfa: sp 96 +
STACK CFI 3582c .cfa: x29 96 + x19: .cfa -8 + ^ x20: .cfa -16 + ^ x21: .cfa -24 + ^ x22: .cfa -32 + ^ x23: .cfa -40 + ^ x24: .cfa -48 + ^ x25: .cfa -56 + ^ x26: .cfa -64 + ^ x27: .cfa -72 + ^ x28: .cfa -80 + ^ .ra: .cfa -88 + ^ x29: .cfa -96 + ^
STACK CFI 35df0 .cfa: sp 96 +
STACK CFI 35e08 .cfa: sp 0 +
STACK CFI 35e0c .cfa: x29 96 +
