MODULE Linux arm64 900110CBC7725734FDB34B186E3124DE0 loovigmd.clone_and_move.android64.so
INFO CODE_ID CB10019072C73457FDB34B186E3124DEEBBBB438
INFO GENERATOR mozilla/dump_syms 2.3.4
PUBLIC 6650 0 __on_dlclose
PUBLIC 6660 0 __emutls_unregister_key
PUBLIC 6668 0 __on_dlclose_late
PUBLIC 6670 0 __atexit_handler_wrapper
PUBLIC 6684 0 atexit
PUBLIC 66a0 0 pthread_atfork
PUBLIC 66b0 0 unwind_phase2
PUBLIC 67e4 0 _Unwind_Resume
PUBLIC 6868 0 unwind_phase2_forced
PUBLIC m 695c 0 __unw_init_local
PUBLIC m 6a04 0 __unw_get_reg
PUBLIC 6a80 0 __unw_step_stage2
PUBLIC m 6a94 0 __unw_get_proc_info
PUBLIC m 6ad4 0 __unw_resume
PUBLIC 6afc 0 libunwind::CFI_Parser<libunwind::LocalAddressSpace>::decodeFDE(libunwind::LocalAddressSpace&, unsigned long, libunwind::CFI_Parser<libunwind::LocalAddressSpace>::FDE_Info*, libunwind::CFI_Parser<libunwind::LocalAddressSpace>::CIE_Info*, bool)
PUBLIC 6c8c 0 libunwind::CFI_Parser<libunwind::LocalAddressSpace>::parseCIE(libunwind::LocalAddressSpace&, unsigned long, libunwind::CFI_Parser<libunwind::LocalAddressSpace>::CIE_Info*)
PUBLIC 6f54 0 libunwind::AbstractUnwindCursor::~AbstractUnwindCursor()
PUBLIC 6f5c 0 libunwind::UnwindCursor<libunwind::LocalAddressSpace, libunwind::Registers_arm64>::~UnwindCursor()
PUBLIC 6f64 0 libunwind::UnwindCursor<libunwind::LocalAddressSpace, libunwind::Registers_arm64>::validReg(int)
PUBLIC 6fa8 0 libunwind::UnwindCursor<libunwind::LocalAddressSpace, libunwind::Registers_arm64>::getReg(int)
PUBLIC 7090 0 libunwind::UnwindCursor<libunwind::LocalAddressSpace, libunwind::Registers_arm64>::setReg(int, unsigned long)
PUBLIC 7178 0 libunwind::UnwindCursor<libunwind::LocalAddressSpace, libunwind::Registers_arm64>::validFloatReg(int)
PUBLIC 718c 0 libunwind::UnwindCursor<libunwind::LocalAddressSpace, libunwind::Registers_arm64>::getFloatReg(int)
PUBLIC 719c 0 libunwind::UnwindCursor<libunwind::LocalAddressSpace, libunwind::Registers_arm64>::setFloatReg(int, double)
PUBLIC 71ac 0 libunwind::UnwindCursor<libunwind::LocalAddressSpace, libunwind::Registers_arm64>::step(bool)
PUBLIC 729c 0 libunwind::UnwindCursor<libunwind::LocalAddressSpace, libunwind::Registers_arm64>::getInfo(unw_proc_info_t*)
PUBLIC 72e0 0 libunwind::UnwindCursor<libunwind::LocalAddressSpace, libunwind::Registers_arm64>::jumpto()
PUBLIC 72ec 0 libunwind::UnwindCursor<libunwind::LocalAddressSpace, libunwind::Registers_arm64>::isSignalFrame()
PUBLIC 72f8 0 libunwind::UnwindCursor<libunwind::LocalAddressSpace, libunwind::Registers_arm64>::getFunctionName(char*, unsigned long, unsigned long*)
PUBLIC 7324 0 libunwind::UnwindCursor<libunwind::LocalAddressSpace, libunwind::Registers_arm64>::setInfoBasedOnIPRegister(bool)
PUBLIC 7560 0 libunwind::UnwindCursor<libunwind::LocalAddressSpace, libunwind::Registers_arm64>::getRegisterName(int)
PUBLIC 756c 0 libunwind::UnwindCursor<libunwind::LocalAddressSpace, libunwind::Registers_arm64>::stepThroughSigReturn(libunwind::Registers_arm64&)
PUBLIC 768c 0 libunwind::DwarfInstructions<libunwind::LocalAddressSpace, libunwind::Registers_arm64>::stepWithDwarf(libunwind::LocalAddressSpace&, unsigned long, unsigned long, libunwind::Registers_arm64&, bool&, bool)
PUBLIC 7b20 0 libunwind::CFI_Parser<libunwind::LocalAddressSpace>::parseFDEInstructions(libunwind::LocalAddressSpace&, libunwind::CFI_Parser<libunwind::LocalAddressSpace>::FDE_Info const&, libunwind::CFI_Parser<libunwind::LocalAddressSpace>::CIE_Info const&, unsigned long, int, libunwind::CFI_Parser<libunwind::LocalAddressSpace>::PrologInfo*)
PUBLIC 8698 0 libunwind::DwarfInstructions<libunwind::LocalAddressSpace, libunwind::Registers_arm64>::getCFA(libunwind::LocalAddressSpace&, libunwind::CFI_Parser<libunwind::LocalAddressSpace>::PrologInfo const&, libunwind::Registers_arm64 const&)
PUBLIC 87cc 0 libunwind::DwarfInstructions<libunwind::LocalAddressSpace, libunwind::Registers_arm64>::getSavedRegister(libunwind::LocalAddressSpace&, libunwind::Registers_arm64 const&, unsigned long, libunwind::CFI_Parser<libunwind::LocalAddressSpace>::RegisterLocation const&)
PUBLIC 89dc 0 libunwind::LocalAddressSpace::getEncodedP(unsigned long&, unsigned long, unsigned char, unsigned long)
PUBLIC 8d68 0 libunwind::LocalAddressSpace::getULEB128(unsigned long&, unsigned long)
PUBLIC 8f30 0 libunwind::DwarfInstructions<libunwind::LocalAddressSpace, libunwind::Registers_arm64>::evaluateExpression(unsigned long, libunwind::LocalAddressSpace&, libunwind::Registers_arm64 const&, unsigned long)
PUBLIC 98f4 0 libunwind::UnwindCursor<libunwind::LocalAddressSpace, libunwind::Registers_arm64>::getInfoFromDwarfSection(unsigned long, libunwind::UnwindInfoSections const&, unsigned int)
PUBLIC 9bc8 0 libunwind::findUnwindSectionsByPhdr(dl_phdr_info*, unsigned long, void*)
PUBLIC 9cf8 0 libunwind::EHHeaderParser<libunwind::LocalAddressSpace>::decodeEHHdr(libunwind::LocalAddressSpace&, unsigned long, unsigned long, libunwind::EHHeaderParser<libunwind::LocalAddressSpace>::EHHeaderInfo&)
PUBLIC 9e18 0 libunwind::CFI_Parser<libunwind::LocalAddressSpace>::findFDE(libunwind::LocalAddressSpace&, unsigned long, unsigned long, unsigned long, unsigned long, libunwind::CFI_Parser<libunwind::LocalAddressSpace>::FDE_Info*, libunwind::CFI_Parser<libunwind::LocalAddressSpace>::CIE_Info*)
PUBLIC 9fe0 0 libunwind::EHHeaderParser<libunwind::LocalAddressSpace>::findFDE(libunwind::LocalAddressSpace&, unsigned long, unsigned long, unsigned int, libunwind::CFI_Parser<libunwind::LocalAddressSpace>::FDE_Info*, libunwind::CFI_Parser<libunwind::LocalAddressSpace>::CIE_Info*)
PUBLIC a148 0 libunwind::EHHeaderParser<libunwind::LocalAddressSpace>::getTableEntrySize(unsigned char)
PUBLIC a244 0 libunwind::Registers_arm64::getRegisterName(int)
PUBLIC a274 0 __libunwind_Registers_arm64_jumpto
PUBLIC m a304 0 __unw_getcontext
PUBLIC a3a0 0 __aarch64_ldadd8_relax
PUBLIC a3d0 0 init_have_lse_atomics
PUBLIC a468 0 __init_cpu_features_constructor
PUBLIC a714 0 __init_cpu_features
PUBLIC a7a0 0 __aarch64_ldadd8_acq_rel
PUBLIC a7d0 0 __cxx_global_var_init
PUBLIC b328 0 geode::modifier::ModifyBase<geode::modifier::ModifyDerive<MyEditorUI, EditorUI> >::~ModifyBase()
PUBLIC b340 0 geode::modifier::ModifyDerive<MyEditorUI, EditorUI>::apply()
PUBLIC b8e0 0 std::__ndk1::shared_ptr<geode::Hook>::~shared_ptr[abi:ne190000]()
PUBLIC b930 0 geode::impl::ResultData<geode::Hook*, std::__ndk1::basic_string<char, std::__ndk1::char_traits<char>, std::__ndk1::allocator<char> > >::~ResultData()
PUBLIC b9a4 0 std::__ndk1::vector<std::__ndk1::basic_string<char, std::__ndk1::char_traits<char>, std::__ndk1::allocator<char> >, std::__ndk1::allocator<std::__ndk1::basic_string<char, std::__ndk1::char_traits<char>, std::__ndk1::allocator<char> > > >::~vector[abi:ne190000]()
PUBLIC ba20 0 geode::modifier::ModifyBase<geode::modifier::ModifyDerive<MyEditorUI, EditorUI> >::apply()
PUBLIC ba24 0 __clang_call_terminate
PUBLIC ba34 0 _ZN5geode15UnwrapExceptionC2IRPNS_4HookEQsr4implE18IsStringStreamableIT_EEENS_4impl5OkTagEOS5_
PUBLIC bb88 0 std::__ndk1::__throw_bad_variant_access[abi:ne190000]()
PUBLIC bbbc 0 std::__ndk1::basic_stringstream<char, std::__ndk1::char_traits<char>, std::__ndk1::allocator<char> >::basic_stringstream[abi:ne190000]()
PUBLIC m bcf0 0 std::__ndk1::basic_stringstream<char, std::__ndk1::char_traits<char>, std::__ndk1::allocator<char> >::~basic_stringstream()
PUBLIC bd70 0 geode::UnwrapException::~UnwrapException()
PUBLIC bd94 0 std::__ndk1::__put_character_sequence[abi:ne190000]<char, std::__ndk1::char_traits<char> >(std::__ndk1::basic_ostream<char, std::__ndk1::char_traits<char> >, std::__ndk1::basic_ostream const*, unsigned long)
PUBLIC bf38 0 std::__ndk1::__pad_and_output[abi:ne190000]<char, std::__ndk1::char_traits<char> >(std::__ndk1::char_traits<char>, std::__ndk1::ostreambuf_iterator const*, std::__ndk1::ostreambuf_iterator const, std::__ndk1::ostreambuf_iterator const, std::__ndk1::ios_base&, std::__ndk1::ostreambuf_iterator)
PUBLIC c124 0 std::__ndk1::basic_string<char, std::__ndk1::char_traits<char>, std::__ndk1::allocator<char> >::__throw_length_error[abi:ne190000]() const
PUBLIC c138 0 std::__ndk1::__throw_length_error[abi:ne190000](char const*)
PUBLIC c188 0 std::length_error::length_error[abi:ne190000](char const*)
PUBLIC c1b8 0 std::__throw_bad_array_new_length([abi:ne190000], void)
PUBLIC c1ec 0 std::__ndk1::basic_stringbuf<char, std::__ndk1::char_traits<char>, std::__ndk1::allocator<char> >::str[abi:ne190000]() &&
PUBLIC c35c 0 std::__ndk1::basic_stringbuf<char, std::__ndk1::char_traits<char>, std::__ndk1::allocator<char> >::__init_buf_ptrs[abi:ne190000]()
PUBLIC c4a4 0 std::__ndk1::basic_string<char, std::__ndk1::char_traits<char>, std::__ndk1::allocator<char> >::__erase_external_with_move(unsigned long, unsigned long)
PUBLIC c52c 0 std::__ndk1::basic_string<char, std::__ndk1::char_traits<char>, std::__ndk1::allocator<char> >::__init_copy_ctor_external(char const*, unsigned long)
PUBLIC c5c0 0 std::__ndk1::__split_buffer<std::__ndk1::basic_string<char, std::__ndk1::char_traits<char>, std::__ndk1::allocator<char> >, std::__ndk1::allocator<std::__ndk1::basic_string<char, std::__ndk1::char_traits<char>, std::__ndk1::allocator<char> > >&>::~__split_buffer()
PUBLIC c628 0 std::__ndk1::vector<std::__ndk1::basic_string<char, std::__ndk1::char_traits<char>, std::__ndk1::allocator<char> >, std::__ndk1::allocator<std::__ndk1::basic_string<char, std::__ndk1::char_traits<char>, std::__ndk1::allocator<char> > > >::__throw_length_error[abi:ne190000]() const
PUBLIC c63c 0 std::__ndk1::__variant_detail::__visitation::__base::__dispatcher<(unsigned long)0>::__dispatch[abi:ne190000]<std::__ndk1::__variant_detail::__dtor<std::__ndk1::__variant_detail::__traits<geode::Hook*, std::__ndk1::basic_string<char, std::__ndk1::char_traits<char>, std::__ndk1::allocator<char> > >, (std::__ndk1::__variant_detail::_Trait)1>::__destroy[abi:ne190000]()::{lambda(auto:1&)#1}, std::__ndk1::__variant_detail::__base<(std::__ndk1::__variant_detail::__traits<geode::Hook*, std::__ndk1::basic_string<char, std::__ndk1::char_traits<char>, std::__ndk1::allocator<char> > >)1, geode::Hook, std::__ndk1::allocator<char> >&>(std::__ndk1::__variant_detail::__dtor<std::__ndk1::__variant_detail::__traits<geode::Hook*, std::__ndk1::basic_string<char, std::__ndk1::char_traits<char>, std::__ndk1::allocator<char> > >, (std::__ndk1::__variant_detail::_Trait)1>, std::__ndk1::__variant_detail::__base<(std::__ndk1::__variant_detail::__traits<geode::Hook*, std::__ndk1::basic_string<char, std::__ndk1::char_traits<char>, std::__ndk1::allocator<char> > >)1, geode::Hook, std::__ndk1::allocator<char> >&)
PUBLIC c640 0 std::__ndk1::__variant_detail::__visitation::__base::__dispatcher<(unsigned long)1>::__dispatch[abi:ne190000]<std::__ndk1::__variant_detail::__dtor<std::__ndk1::__variant_detail::__traits<geode::Hook*, std::__ndk1::basic_string<char, std::__ndk1::char_traits<char>, std::__ndk1::allocator<char> > >, (std::__ndk1::__variant_detail::_Trait)1>::__destroy[abi:ne190000]()::{lambda(auto:1&)#1}, std::__ndk1::__variant_detail::__base<(std::__ndk1::__variant_detail::__traits<geode::Hook*, std::__ndk1::basic_string<char, std::__ndk1::char_traits<char>, std::__ndk1::allocator<char> > >)1, geode::Hook, std::__ndk1::allocator<char> >&>(std::__ndk1::__variant_detail::__dtor<std::__ndk1::__variant_detail::__traits<geode::Hook*, std::__ndk1::basic_string<char, std::__ndk1::char_traits<char>, std::__ndk1::allocator<char> > >, (std::__ndk1::__variant_detail::_Trait)1>, std::__ndk1::__variant_detail::__base<(std::__ndk1::__variant_detail::__traits<geode::Hook*, std::__ndk1::basic_string<char, std::__ndk1::char_traits<char>, std::__ndk1::allocator<char> > >)1, geode::Hook, std::__ndk1::allocator<char> >&)
PUBLIC c654 0 std::__ndk1::__tree<std::__ndk1::__value_type<std::__ndk1::basic_string<char, std::__ndk1::char_traits<char>, std::__ndk1::allocator<char> >, std::__ndk1::shared_ptr<geode::Hook> >, std::__ndk1::__map_value_compare<std::__ndk1::basic_string<char, std::__ndk1::char_traits<char>, std::__ndk1::allocator<char> >, std::__ndk1::__value_type<std::__ndk1::basic_string<char, std::__ndk1::char_traits<char>, std::__ndk1::allocator<char> >, std::__ndk1::shared_ptr<geode::Hook> >, std::__ndk1::less<std::__ndk1::basic_string<char, std::__ndk1::char_traits<char>, std::__ndk1::allocator<char> > >, true>, std::__ndk1::allocator<std::__ndk1::__value_type<std::__ndk1::basic_string<char, std::__ndk1::char_traits<char>, std::__ndk1::allocator<char> >, std::__ndk1::shared_ptr<geode::Hook> > > >::destroy(std::__ndk1::__tree_node<std::__ndk1::__value_type<std::__ndk1::basic_string<char, std::__ndk1::char_traits<char>, std::__ndk1::allocator<char> >, std::__ndk1::shared_ptr<geode::Hook> >, void*>*)
PUBLIC c6d8 0 geode::modifier::AsStaticFunction_createMoveMenu<MyEditorUI, void (MyEditorUI::*)()>::Impl<void (MyEditorUI::*)()>::function(MyEditorUI*)
PUBLIC c9b4 0 geode::modifier::AsStaticFunction_init<MyEditorUI, bool (MyEditorUI::*)(LevelEditorLayer*)>::Impl<bool (MyEditorUI::*)(LevelEditorLayer*)>::function(MyEditorUI*, LevelEditorLayer*)
PUBLIC c9b8 0 std::__ndk1::shared_ptr<tulip::hook::CallingConvention>::~shared_ptr[abi:ne190000]()
PUBLIC ca08 0 tulip::hook::HandlerMetadata::~HandlerMetadata()
PUBLIC ca6c 0 MyEditorUI::onButtonsClick(cocos2d::CCObject*)
PUBLIC d110 0 std::__ndk1::array<std::__ndk1::basic_string<char, std::__ndk1::char_traits<char>, std::__ndk1::allocator<char> >, (unsigned long)4>::~array()
PUBLIC d18c 0 geode::cast::traverseTypeinfoFor(void*, geode::cast::ClassTypeinfoType const*, char const*)
PUBLIC d284 0 std::__ndk1::__tree<std::__ndk1::__value_type<std::__ndk1::basic_string<char, std::__ndk1::char_traits<char>, std::__ndk1::allocator<char> >, std::__ndk1::shared_ptr<geode::Hook> >, std::__ndk1::__map_value_compare<std::__ndk1::basic_string<char, std::__ndk1::char_traits<char>, std::__ndk1::allocator<char> >, std::__ndk1::__value_type<std::__ndk1::basic_string<char, std::__ndk1::char_traits<char>, std::__ndk1::allocator<char> >, std::__ndk1::shared_ptr<geode::Hook> >, std::__ndk1::less<std::__ndk1::basic_string<char, std::__ndk1::char_traits<char>, std::__ndk1::allocator<char> > >, true>, std::__ndk1::allocator<std::__ndk1::__value_type<std::__ndk1::basic_string<char, std::__ndk1::char_traits<char>, std::__ndk1::allocator<char> >, std::__ndk1::shared_ptr<geode::Hook> > > >::__emplace_unique_key_args<std::__ndk1::basic_string<char, std::__ndk1::char_traits<char>, std::__ndk1::allocator<char> >, std::__ndk1::piecewise_construct_t const&, std::__ndk1::tuple<std::__ndk1::basic_string<char, std::__ndk1::char_traits<char>, std::__ndk1::allocator<char> >&&>, std::__ndk1::tuple<> >(std::__ndk1::basic_string<char, std::__ndk1::char_traits<char>, std::__ndk1::allocator<char> > const&, std::__ndk1::piecewise_construct_t const&, std::__ndk1::tuple<std::__ndk1::basic_string<char, std::__ndk1::char_traits<char>, std::__ndk1::allocator<char> >&&>, std::__ndk1::tuple<>)
PUBLIC d3ec 0 std::__ndk1::__tree_balance_after_insert[abi:ne190000]<std::__ndk1::__tree_node_base<void*>*>(std::__ndk1::__tree_node_base<void*>*, std::__ndk1::__tree_node_base<void*>*)
PUBLIC d594 0 geode::getMod()
PUBLIC m d5d0 0 geodeImplicitEntry
PUBLIC d60c 0 std::__ndk1::unordered_map<void*, bool, std::__ndk1::hash<void*>, std::__ndk1::equal_to<void*>, std::__ndk1::allocator<std::__ndk1::pair<void* const, bool> > >::~unordered_map[abi:ne190000]()
PUBLIC d658 0 wrapFunction(unsigned long, tulip::hook::WrapperMetadata const&)
PUBLIC d78c 0 geode::impl::ResultData<void*, std::__ndk1::basic_string<char, std::__ndk1::char_traits<char>, std::__ndk1::allocator<char> > >::unwrapErr() &
PUBLIC d804 0 geode::impl::ResultData<void*, std::__ndk1::basic_string<char, std::__ndk1::char_traits<char>, std::__ndk1::allocator<char> > >::~ResultData()
PUBLIC d878 0 tulip::hook::WrapperMetadata::~WrapperMetadata()
PUBLIC d8dc 0 cocos2d::CCObject::CCObject()
PUBLIC dae4 0 cocos2d::CCObject::~CCObject()
PUBLIC db08 0 LevelEditorLayer::get()
PUBLIC db20 0 GJBaseGameLayer::get()
PUBLIC db38 0 LevelEditorLayer::createObjectsFromString(gd::string const&, bool, bool)
PUBLIC dca0 0 tulip::hook::AbstractFunction::from<cocos2d::CCArray*, LevelEditorLayer*, gd::string const&, bool, bool>(cocos2d::CCArray* (*)(LevelEditorLayer*, gd::string const&, bool, bool))
PUBLIC dda8 0 UndoObject::~UndoObject()
PUBLIC ddf0 0 UndoObject::~UndoObject()
PUBLIC de40 0 UndoObject::createWithArray(cocos2d::CCArray*, UndoCommand)
PUBLIC def4 0 cocos2d::CCCopying::copyWithZone(cocos2d::CCZone*)
PUBLIC defc 0 cocos2d::CCObject::update(float)
PUBLIC df00 0 cocos2d::CCObject::~CCObject()
PUBLIC e3cc 0 _ZN5geode15UnwrapExceptionC2IRPvQsr4implE18IsStringStreamableIT_EEENS_4impl5OkTagEOS4_
PUBLIC e520 0 _ZN5geode15UnwrapExceptionC2IRNSt6__ndk112basic_stringIcNS2_11char_traitsIcEENS2_9allocatorIcEEEEQsr4implE18IsStringStreamableIT_EEENS_4impl6ErrTagEOSA_
PUBLIC e688 0 std::__ndk1::__variant_detail::__visitation::__base::__dispatcher<(unsigned long)0>::__dispatch[abi:ne190000]<std::__ndk1::__variant_detail::__dtor<std::__ndk1::__variant_detail::__traits<void*, std::__ndk1::basic_string<char, std::__ndk1::char_traits<char>, std::__ndk1::allocator<char> > >, (std::__ndk1::__variant_detail::_Trait)1>::__destroy[abi:ne190000]()::{lambda(auto:1&)#1}, std::__ndk1::__variant_detail::__base<(std::__ndk1::__variant_detail::__traits<void*, std::__ndk1::basic_string<char, std::__ndk1::char_traits<char>, std::__ndk1::allocator<char> > >)1, std::__ndk1::__variant_detail::__traits, std::__ndk1::allocator<char> >&>(std::__ndk1::__variant_detail::__dtor<std::__ndk1::__variant_detail::__traits<void*, std::__ndk1::basic_string<char, std::__ndk1::char_traits<char>, std::__ndk1::allocator<char> > >, (std::__ndk1::__variant_detail::_Trait)1>, std::__ndk1::__variant_detail::__base<(std::__ndk1::__variant_detail::__traits<void*, std::__ndk1::basic_string<char, std::__ndk1::char_traits<char>, std::__ndk1::allocator<char> > >)1, std::__ndk1::__variant_detail::__traits, std::__ndk1::allocator<char> >&)
PUBLIC e68c 0 std::__ndk1::__variant_detail::__visitation::__base::__dispatcher<(unsigned long)1>::__dispatch[abi:ne190000]<std::__ndk1::__variant_detail::__dtor<std::__ndk1::__variant_detail::__traits<void*, std::__ndk1::basic_string<char, std::__ndk1::char_traits<char>, std::__ndk1::allocator<char> > >, (std::__ndk1::__variant_detail::_Trait)1>::__destroy[abi:ne190000]()::{lambda(auto:1&)#1}, std::__ndk1::__variant_detail::__base<(std::__ndk1::__variant_detail::__traits<void*, std::__ndk1::basic_string<char, std::__ndk1::char_traits<char>, std::__ndk1::allocator<char> > >)1, std::__ndk1::__variant_detail::__traits, std::__ndk1::allocator<char> >&>(std::__ndk1::__variant_detail::__dtor<std::__ndk1::__variant_detail::__traits<void*, std::__ndk1::basic_string<char, std::__ndk1::char_traits<char>, std::__ndk1::allocator<char> > >, (std::__ndk1::__variant_detail::_Trait)1>, std::__ndk1::__variant_detail::__base<(std::__ndk1::__variant_detail::__traits<void*, std::__ndk1::basic_string<char, std::__ndk1::char_traits<char>, std::__ndk1::allocator<char> > >)1, std::__ndk1::__variant_detail::__traits, std::__ndk1::allocator<char> >&)
PUBLIC e6a0 0 std::__ndk1::__hash_table<std::__ndk1::__hash_value_type<void*, bool>, std::__ndk1::__unordered_map_hasher<void*, std::__ndk1::__hash_value_type<void*, bool>, std::__ndk1::hash<void*>, std::__ndk1::equal_to<void*>, true>, std::__ndk1::__unordered_map_equal<void*, std::__ndk1::__hash_value_type<void*, bool>, std::__ndk1::equal_to<void*>, std::__ndk1::hash<void*>, true>, std::__ndk1::allocator<std::__ndk1::__hash_value_type<void*, bool> > >::__emplace_unique_key_args<void*, std::__ndk1::piecewise_construct_t const&, std::__ndk1::tuple<void* const&>, std::__ndk1::tuple<> >(void* const&, std::__ndk1::piecewise_construct_t const&, std::__ndk1::tuple<void* const&>, std::__ndk1::tuple<>)
PUBLIC eb80 0 <.plt ELF section in loovigmd.clone_and_move.android64.so>
STACK CFI INIT 6650 10 .cfa: sp 0 +
STACK CFI INIT 6660 8 .cfa: sp 0 +
STACK CFI INIT 6668 8 .cfa: sp 0 +
STACK CFI INIT 6670 14 .cfa: sp 0 +
STACK CFI INIT 6684 1c .cfa: sp 0 +
STACK CFI INIT 66a0 10 .cfa: sp 0 +
STACK CFI INIT 66b0 134 .cfa: sp 0 +
STACK CFI INIT 67e4 84 .cfa: sp 0 +
STACK CFI INIT 6868 f4 .cfa: sp 0 +
STACK CFI INIT 695c a8 .cfa: sp 0 +
STACK CFI INIT 6a04 7c .cfa: sp 0 +
STACK CFI INIT 6a80 14 .cfa: sp 0 +
STACK CFI INIT 6a94 40 .cfa: sp 0 +
STACK CFI INIT 6ad4 28 .cfa: sp 0 +
STACK CFI INIT 6afc 190 .cfa: sp 0 +
STACK CFI INIT 6c8c 2c8 .cfa: sp 0 +
STACK CFI INIT 6f54 8 .cfa: sp 0 +
STACK CFI INIT 6f5c 8 .cfa: sp 0 +
STACK CFI INIT 6f64 44 .cfa: sp 0 +
STACK CFI INIT 6fa8 e8 .cfa: sp 0 +
STACK CFI INIT 7090 e8 .cfa: sp 0 +
STACK CFI INIT 7178 14 .cfa: sp 0 +
STACK CFI INIT 718c 10 .cfa: sp 0 +
STACK CFI INIT 719c 10 .cfa: sp 0 +
STACK CFI INIT 71ac f0 .cfa: sp 0 +
STACK CFI INIT 729c 44 .cfa: sp 0 +
STACK CFI INIT 72e0 c .cfa: sp 0 +
STACK CFI INIT 72ec c .cfa: sp 0 +
STACK CFI INIT 72f8 2c .cfa: sp 0 +
STACK CFI INIT 7324 23c .cfa: sp 0 +
STACK CFI INIT 7560 c .cfa: sp 0 +
STACK CFI INIT 756c 120 .cfa: sp 0 +
STACK CFI INIT 768c 494 .cfa: sp 0 +
STACK CFI INIT 7b20 b78 .cfa: sp 0 +
STACK CFI INIT 8698 134 .cfa: sp 0 +
STACK CFI INIT 87cc 210 .cfa: sp 0 +
STACK CFI INIT 89dc 38c .cfa: sp 0 +
STACK CFI INIT 8d68 1c8 .cfa: sp 0 +
STACK CFI INIT 8f30 9c4 .cfa: sp 0 +
STACK CFI INIT 98f4 2d4 .cfa: sp 0 +
STACK CFI INIT 9bc8 130 .cfa: sp 0 +
STACK CFI INIT 9cf8 120 .cfa: sp 0 +
STACK CFI INIT 9e18 1c8 .cfa: sp 0 +
STACK CFI INIT 9fe0 168 .cfa: sp 0 +
STACK CFI INIT a148 fc .cfa: sp 0 +
STACK CFI INIT a244 30 .cfa: sp 0 +
STACK CFI INIT a3a0 30 .cfa: sp 0 +
STACK CFI INIT a3d0 98 .cfa: sp 0 +
STACK CFI INIT a468 2ac .cfa: sp 0 +
STACK CFI INIT a714 8c .cfa: sp 0 +
STACK CFI INIT a7a0 30 .cfa: sp 0 +
STACK CFI INIT b328 18 .cfa: sp 0 +
STACK CFI INIT b8e0 50 .cfa: sp 0 +
STACK CFI b8e4 .cfa: sp 32 +
STACK CFI b8ec .cfa: x29 32 + x19: .cfa -16 + ^ .ra: .cfa -24 + ^ x29: .cfa -32 + ^
STACK CFI b904 .cfa: sp 32 +
STACK CFI b90c .cfa: sp 0 +
STACK CFI b910 .cfa: x29 32 +
STACK CFI b924 .cfa: sp 32 +
STACK CFI b92c .cfa: sp 0 +
STACK CFI INIT b9a4 7c .cfa: sp 0 +
STACK CFI b9a8 .cfa: sp 48 +
STACK CFI b9b4 .cfa: x29 48 + x19: .cfa -8 + ^ x20: .cfa -16 + ^ x21: .cfa -32 + ^ .ra: .cfa -40 + ^ x29: .cfa -48 + ^
STACK CFI ba00 .cfa: sp 48 +
STACK CFI ba0c .cfa: sp 0 +
STACK CFI ba10 .cfa: sp 48 +
STACK CFI ba1c .cfa: sp 0 +
STACK CFI INIT ba20 4 .cfa: sp 0 +
STACK CFI INIT ba24 10 .cfa: sp 0 +
STACK CFI ba28 .cfa: sp 16 +
STACK CFI ba2c .cfa: x29 16 + .ra: .cfa -8 + ^ x29: .cfa -16 + ^
STACK CFI INIT bb88 34 .cfa: sp 0 +
STACK CFI bb8c .cfa: sp 16 +
STACK CFI bb90 .cfa: x29 16 + .ra: .cfa -8 + ^ x29: .cfa -16 + ^
STACK CFI INIT bcf0 80 .cfa: sp 0 +
STACK CFI bcf4 .cfa: sp 48 +
STACK CFI bd00 .cfa: x29 48 + x19: .cfa -8 + ^ x20: .cfa -16 + ^ x21: .cfa -32 + ^ .ra: .cfa -40 + ^ x29: .cfa -48 + ^
STACK CFI bd60 .cfa: sp 48 +
STACK CFI bd6c .cfa: sp 0 +
STACK CFI INIT bd70 24 .cfa: sp 0 +
STACK CFI bd74 .cfa: sp 32 +
STACK CFI bd7c .cfa: x29 32 + x19: .cfa -16 + ^ .ra: .cfa -24 + ^ x29: .cfa -32 + ^
STACK CFI bd88 .cfa: sp 32 +
STACK CFI bd90 .cfa: sp 0 +
STACK CFI INIT c124 14 .cfa: sp 0 +
STACK CFI c128 .cfa: sp 16 +
STACK CFI c12c .cfa: x29 16 + .ra: .cfa -8 + ^ x29: .cfa -16 + ^
STACK CFI INIT c188 30 .cfa: sp 0 +
STACK CFI c18c .cfa: sp 32 +
STACK CFI c194 .cfa: x29 32 + x19: .cfa -16 + ^ .ra: .cfa -24 + ^ x29: .cfa -32 + ^
STACK CFI c1ac .cfa: sp 32 +
STACK CFI c1b4 .cfa: sp 0 +
STACK CFI INIT c1b8 34 .cfa: sp 0 +
STACK CFI c1bc .cfa: sp 32 +
STACK CFI c1c4 .cfa: x29 32 + x19: .cfa -16 + ^ .ra: .cfa -24 + ^ x29: .cfa -32 + ^
STACK CFI INIT c35c 148 .cfa: sp 0 +
STACK CFI c360 .cfa: sp 48 +
STACK CFI c36c .cfa: x29 48 + x19: .cfa -8 + ^ x20: .cfa -16 + ^ x21: .cfa -32 + ^ .ra: .cfa -40 + ^ x29: .cfa -48 + ^
STACK CFI c494 .cfa: sp 48 +
STACK CFI c4a0 .cfa: sp 0 +
STACK CFI INIT c4a4 88 .cfa: sp 0 +
STACK CFI c4ac .cfa: sp 48 +
STACK CFI c4b8 .cfa: x29 48 + x19: .cfa -8 + ^ x20: .cfa -16 + ^ x21: .cfa -24 + ^ x22: .cfa -32 + ^ .ra: .cfa -40 + ^ x29: .cfa -48 + ^
STACK CFI c51c .cfa: sp 48 +
STACK CFI c528 .cfa: sp 0 +
STACK CFI INIT c52c 94 .cfa: sp 0 +
STACK CFI c530 .cfa: sp 48 +
STACK CFI c53c .cfa: x29 48 + x19: .cfa -8 + ^ x20: .cfa -16 + ^ x21: .cfa -24 + ^ x22: .cfa -32 + ^ .ra: .cfa -40 + ^ x29: .cfa -48 + ^
STACK CFI c554 .cfa: sp 48 +
STACK CFI c560 .cfa: sp 0 +
STACK CFI c564 .cfa: x29 48 +
STACK CFI c5a8 .cfa: sp 48 +
STACK CFI c5b4 .cfa: sp 0 +
STACK CFI c5b8 .cfa: x29 48 +
STACK CFI INIT c5c0 68 .cfa: sp 0 +
STACK CFI c5c4 .cfa: sp 32 +
STACK CFI c5cc .cfa: x29 32 + x19: .cfa -8 + ^ x20: .cfa -16 + ^ .ra: .cfa -24 + ^ x29: .cfa -32 + ^
STACK CFI c5e4 .cfa: sp 32 +
STACK CFI c5ec .cfa: sp 0 +
STACK CFI c5f0 .cfa: x29 32 +
STACK CFI c61c .cfa: sp 32 +
STACK CFI c624 .cfa: sp 0 +
STACK CFI INIT c628 14 .cfa: sp 0 +
STACK CFI c62c .cfa: sp 16 +
STACK CFI c630 .cfa: x29 16 + .ra: .cfa -8 + ^ x29: .cfa -16 + ^
STACK CFI INIT c63c 4 .cfa: sp 0 +
STACK CFI INIT c640 14 .cfa: sp 0 +
STACK CFI INIT c654 84 .cfa: sp 0 +
STACK CFI c65c .cfa: sp 32 +
STACK CFI c664 .cfa: x29 32 + x19: .cfa -8 + ^ x20: .cfa -16 + ^ .ra: .cfa -24 + ^ x29: .cfa -32 + ^
STACK CFI c6a4 .cfa: sp 32 +
STACK CFI c6ac .cfa: sp 0 +
STACK CFI c6b4 .cfa: x29 32 +
STACK CFI INIT c9b4 4 .cfa: sp 0 +
STACK CFI INIT c9b8 50 .cfa: sp 0 +
STACK CFI c9bc .cfa: sp 32 +
STACK CFI c9c4 .cfa: x29 32 + x19: .cfa -16 + ^ .ra: .cfa -24 + ^ x29: .cfa -32 + ^
STACK CFI c9dc .cfa: sp 32 +
STACK CFI c9e4 .cfa: sp 0 +
STACK CFI c9e8 .cfa: x29 32 +
STACK CFI c9fc .cfa: sp 32 +
STACK CFI ca04 .cfa: sp 0 +
STACK CFI INIT ca08 64 .cfa: sp 0 +
STACK CFI ca0c .cfa: sp 32 +
STACK CFI ca14 .cfa: x29 32 + x19: .cfa -16 + ^ .ra: .cfa -24 + ^ x29: .cfa -32 + ^
STACK CFI ca40 .cfa: sp 32 +
STACK CFI ca48 .cfa: sp 0 +
STACK CFI ca4c .cfa: x29 32 +
STACK CFI ca60 .cfa: sp 32 +
STACK CFI ca68 .cfa: sp 0 +
STACK CFI INIT d110 7c .cfa: sp 0 +
STACK CFI d114 .cfa: sp 32 +
STACK CFI d11c .cfa: x29 32 + x19: .cfa -16 + ^ .ra: .cfa -24 + ^ x29: .cfa -32 + ^
STACK CFI d140 .cfa: sp 32 +
STACK CFI d148 .cfa: sp 0 +
STACK CFI d14c .cfa: x29 32 +
STACK CFI d180 .cfa: sp 32 +
STACK CFI d188 .cfa: sp 0 +
STACK CFI INIT d18c f8 .cfa: sp 0 +
STACK CFI d190 .cfa: sp 64 +
STACK CFI d1a0 .cfa: x29 64 + x19: .cfa -8 + ^ x20: .cfa -16 + ^ x21: .cfa -24 + ^ x22: .cfa -32 + ^ x23: .cfa -48 + ^ .ra: .cfa -56 + ^ x29: .cfa -64 + ^
STACK CFI d1fc .cfa: sp 64 +
STACK CFI d20c .cfa: sp 0 +
STACK CFI d210 .cfa: x29 64 +
STACK CFI d22c .cfa: sp 64 +
STACK CFI d23c .cfa: sp 0 +
STACK CFI d240 .cfa: x29 64 +
STACK CFI d270 .cfa: sp 64 +
STACK CFI d280 .cfa: sp 0 +
STACK CFI INIT d284 168 .cfa: sp 0 +
STACK CFI d288 .cfa: sp 80 +
STACK CFI d29c .cfa: x29 80 + x19: .cfa -8 + ^ x20: .cfa -16 + ^ x21: .cfa -24 + ^ x22: .cfa -32 + ^ x23: .cfa -40 + ^ x24: .cfa -48 + ^ x25: .cfa -56 + ^ x26: .cfa -64 + ^ .ra: .cfa -72 + ^ x29: .cfa -80 + ^
STACK CFI d3d4 .cfa: sp 80 +
STACK CFI d3e8 .cfa: sp 0 +
STACK CFI INIT d3ec 1a8 .cfa: sp 0 +
STACK CFI INIT d594 3c .cfa: sp 0 +
STACK CFI d598 .cfa: sp 32 +
STACK CFI d5a0 .cfa: x29 32 + x19: .cfa -16 + ^ .ra: .cfa -24 + ^ x29: .cfa -32 + ^
STACK CFI d5ac .cfa: sp 32 +
STACK CFI d5b4 .cfa: sp 0 +
STACK CFI d5b8 .cfa: x29 32 +
STACK CFI d5c4 .cfa: sp 32 +
STACK CFI d5cc .cfa: sp 0 +
STACK CFI INIT d5d0 3c .cfa: sp 0 +
STACK CFI d5d4 .cfa: sp 32 +
STACK CFI d5dc .cfa: x29 32 + x19: .cfa -16 + ^ .ra: .cfa -24 + ^ x29: .cfa -32 + ^
STACK CFI d5e8 .cfa: sp 32 +
STACK CFI d5f0 .cfa: sp 0 +
STACK CFI d5f4 .cfa: x29 32 +
STACK CFI d600 .cfa: sp 32 +
STACK CFI d608 .cfa: sp 0 +
STACK CFI INIT d60c 4c .cfa: sp 0 +
STACK CFI d610 .cfa: sp 32 +
STACK CFI d618 .cfa: x29 32 + x19: .cfa -8 + ^ x20: .cfa -16 + ^ .ra: .cfa -24 + ^ x29: .cfa -32 + ^
STACK CFI d640 .cfa: sp 32 +
STACK CFI d648 .cfa: sp 0 +
STACK CFI d64c .cfa: sp 32 +
STACK CFI d654 .cfa: sp 0 +
STACK CFI INIT d878 64 .cfa: sp 0 +
STACK CFI d87c .cfa: sp 32 +
STACK CFI d884 .cfa: x29 32 + x19: .cfa -16 + ^ .ra: .cfa -24 + ^ x29: .cfa -32 + ^
STACK CFI d8b0 .cfa: sp 32 +
STACK CFI d8b8 .cfa: sp 0 +
STACK CFI d8bc .cfa: x29 32 +
STACK CFI d8d0 .cfa: sp 32 +
STACK CFI d8d8 .cfa: sp 0 +
STACK CFI INIT dae4 24 .cfa: sp 0 +
STACK CFI dae8 .cfa: sp 32 +
STACK CFI daf0 .cfa: x29 32 + x19: .cfa -16 + ^ .ra: .cfa -24 + ^ x29: .cfa -32 + ^
STACK CFI dafc .cfa: sp 32 +
STACK CFI db04 .cfa: sp 0 +
STACK CFI INIT db08 18 .cfa: sp 0 +
STACK CFI db0c .cfa: sp 16 +
STACK CFI db10 .cfa: x29 16 + .ra: .cfa -8 + ^ x29: .cfa -16 + ^
STACK CFI db18 .cfa: sp 16 +
STACK CFI db1c .cfa: sp 0 +
STACK CFI INIT db20 18 .cfa: sp 0 +
STACK CFI db24 .cfa: sp 16 +
STACK CFI db28 .cfa: x29 16 + .ra: .cfa -8 + ^ x29: .cfa -16 + ^
STACK CFI db30 .cfa: sp 16 +
STACK CFI db34 .cfa: sp 0 +
STACK CFI INIT def4 8 .cfa: sp 0 +
STACK CFI INIT defc 4 .cfa: sp 0 +
STACK CFI INIT e688 4 .cfa: sp 0 +
STACK CFI INIT e68c 14 .cfa: sp 0 +
STACK CFI INIT a7d0 b58 .cfa: sp 0 +
STACK CFI a7d4 .cfa: sp 240 +
STACK CFI a7f0 .cfa: x29 96 + x19: .cfa -8 + ^ x20: .cfa -16 + ^ x21: .cfa -24 + ^ x22: .cfa -32 + ^ x23: .cfa -40 + ^ x24: .cfa -48 + ^ x25: .cfa -56 + ^ x26: .cfa -64 + ^ x27: .cfa -72 + ^ x28: .cfa -80 + ^ .ra: .cfa -88 + ^ x29: .cfa -96 + ^
STACK CFI ab40 .cfa: sp 240 +
STACK CFI ab5c .cfa: sp 0 +
STACK CFI ab60 .cfa: x29 96 +
STACK CFI b1d0 .cfa: sp 240 +
STACK CFI b1ec .cfa: sp 0 +
STACK CFI b1f0 .cfa: x29 96 +
STACK CFI INIT b340 5a0 .cfa: sp 0 +
STACK CFI b344 .cfa: sp 240 +
STACK CFI b35c .cfa: x29 80 + x19: .cfa -8 + ^ x20: .cfa -16 + ^ x21: .cfa -24 + ^ x22: .cfa -32 + ^ x23: .cfa -40 + ^ x24: .cfa -48 + ^ x25: .cfa -56 + ^ x26: .cfa -64 + ^ .ra: .cfa -72 + ^ x29: .cfa -80 + ^
STACK CFI b708 .cfa: sp 240 +
STACK CFI b720 .cfa: sp 0 +
STACK CFI b724 .cfa: x29 80 +
STACK CFI INIT b930 74 .cfa: sp 0 +
STACK CFI b934 .cfa: sp 48 +
STACK CFI b940 .cfa: x29 32 + x19: .cfa -8 + ^ x20: .cfa -16 + ^ .ra: .cfa -24 + ^ x29: .cfa -32 + ^
STACK CFI b98c .cfa: sp 48 +
STACK CFI b998 .cfa: sp 0 +
STACK CFI b99c .cfa: x29 32 +
STACK CFI INIT ba34 154 .cfa: sp 0 +
STACK CFI ba38 .cfa: sp 384 +
STACK CFI ba4c .cfa: x29 64 + x19: .cfa -8 + ^ x20: .cfa -16 + ^ x21: .cfa -24 + ^ x22: .cfa -32 + ^ x23: .cfa -40 + ^ x28: .cfa -48 + ^ .ra: .cfa -56 + ^ x29: .cfa -64 + ^
STACK CFI bb30 .cfa: sp 384 +
STACK CFI bb44 .cfa: sp 0 +
STACK CFI bb48 .cfa: x29 64 +
STACK CFI INIT bbbc 134 .cfa: sp 0 +
STACK CFI bbc0 .cfa: sp 80 +
STACK CFI bbd4 .cfa: x29 80 + x19: .cfa -8 + ^ x20: .cfa -16 + ^ x21: .cfa -24 + ^ x22: .cfa -32 + ^ x23: .cfa -40 + ^ x24: .cfa -48 + ^ x25: .cfa -56 + ^ x26: .cfa -64 + ^ .ra: .cfa -72 + ^ x29: .cfa -80 + ^
STACK CFI bca4 .cfa: sp 80 +
STACK CFI bcb8 .cfa: sp 0 +
STACK CFI bcbc .cfa: x29 80 +
STACK CFI INIT bd94 1a4 .cfa: sp 0 +
STACK CFI bd98 .cfa: sp 112 +
STACK CFI bdb0 .cfa: x29 80 + x19: .cfa -8 + ^ x20: .cfa -16 + ^ x21: .cfa -24 + ^ x22: .cfa -32 + ^ x23: .cfa -40 + ^ x24: .cfa -48 + ^ x25: .cfa -56 + ^ x26: .cfa -64 + ^ .ra: .cfa -72 + ^ x29: .cfa -80 + ^
STACK CFI bea0 .cfa: sp 112 +
STACK CFI beb8 .cfa: sp 0 +
STACK CFI bebc .cfa: x29 80 +
STACK CFI INIT bf38 1ec .cfa: sp 0 +
STACK CFI bf3c .cfa: sp 128 +
STACK CFI bf58 .cfa: x29 96 + x19: .cfa -8 + ^ x20: .cfa -16 + ^ x21: .cfa -24 + ^ x22: .cfa -32 + ^ x23: .cfa -40 + ^ x24: .cfa -48 + ^ x25: .cfa -56 + ^ x26: .cfa -64 + ^ x27: .cfa -80 + ^ .ra: .cfa -88 + ^ x29: .cfa -96 + ^
STACK CFI c0d4 .cfa: sp 128 +
STACK CFI c0f0 .cfa: sp 0 +
STACK CFI c0f4 .cfa: x29 96 +
STACK CFI INIT c138 50 .cfa: sp 0 +
STACK CFI c13c .cfa: sp 32 +
STACK CFI c144 .cfa: x29 32 + x19: .cfa -8 + ^ x20: .cfa -16 + ^ .ra: .cfa -24 + ^ x29: .cfa -32 + ^
STACK CFI INIT c1ec 170 .cfa: sp 0 +
STACK CFI c1f0 .cfa: sp 48 +
STACK CFI c1fc .cfa: x29 48 + x19: .cfa -8 + ^ x20: .cfa -16 + ^ x21: .cfa -32 + ^ .ra: .cfa -40 + ^ x29: .cfa -48 + ^
STACK CFI c330 .cfa: sp 48 +
STACK CFI c33c .cfa: sp 0 +
STACK CFI c340 .cfa: x29 48 +
STACK CFI INIT c6d8 2dc .cfa: sp 0 +
STACK CFI c6dc .cfa: sp 208 +
STACK CFI c6f4 .cfa: x29 80 + x19: .cfa -8 + ^ x20: .cfa -16 + ^ x21: .cfa -24 + ^ x22: .cfa -32 + ^ x23: .cfa -40 + ^ x24: .cfa -48 + ^ x25: .cfa -56 + ^ x26: .cfa -64 + ^ .ra: .cfa -72 + ^ x29: .cfa -80 + ^
STACK CFI c93c .cfa: sp 208 +
STACK CFI c954 .cfa: sp 0 +
STACK CFI c958 .cfa: x29 80 +
STACK CFI INIT ca6c 6a4 .cfa: sp 0 +
STACK CFI ca70 .cfa: sp 352 +
STACK CFI ca94 .cfa: x29 96 + x19: .cfa -8 + ^ x20: .cfa -16 + ^ x21: .cfa -24 + ^ x22: .cfa -32 + ^ x23: .cfa -40 + ^ x24: .cfa -48 + ^ x25: .cfa -56 + ^ x26: .cfa -64 + ^ x27: .cfa -72 + ^ x28: .cfa -80 + ^ .ra: .cfa -88 + ^ x29: .cfa -96 + ^ v8: .cfa -104 + ^ v9: .cfa -112 + ^ v10: .cfa -128 + ^
STACK CFI cfd4 .cfa: sp 352 +
STACK CFI cff8 .cfa: sp 0 +
STACK CFI cffc .cfa: x29 96 +
STACK CFI INIT d658 134 .cfa: sp 0 +
STACK CFI d65c .cfa: sp 80 +
STACK CFI d668 .cfa: x29 32 + x19: .cfa -8 + ^ x20: .cfa -16 + ^ .ra: .cfa -24 + ^ x29: .cfa -32 + ^
STACK CFI d698 .cfa: sp 80 +
STACK CFI d6a4 .cfa: sp 0 +
STACK CFI d6a8 .cfa: x29 32 +
STACK CFI INIT d78c 78 .cfa: sp 0 +
STACK CFI d790 .cfa: sp 32 +
STACK CFI d798 .cfa: x29 32 + x19: .cfa -8 + ^ x20: .cfa -16 + ^ .ra: .cfa -24 + ^ x29: .cfa -32 + ^
STACK CFI d7a4 .cfa: sp 32 +
STACK CFI d7ac .cfa: sp 0 +
STACK CFI d7b0 .cfa: x29 32 +
STACK CFI INIT d804 74 .cfa: sp 0 +
STACK CFI d808 .cfa: sp 48 +
STACK CFI d814 .cfa: x29 32 + x19: .cfa -8 + ^ x20: .cfa -16 + ^ .ra: .cfa -24 + ^ x29: .cfa -32 + ^
STACK CFI d860 .cfa: sp 48 +
STACK CFI d86c .cfa: sp 0 +
STACK CFI d870 .cfa: x29 32 +
STACK CFI INIT d8dc 208 .cfa: sp 0 +
STACK CFI d8e0 .cfa: sp 112 +
STACK CFI d8f0 .cfa: x29 48 + x19: .cfa -8 + ^ x20: .cfa -16 + ^ x21: .cfa -32 + ^ .ra: .cfa -40 + ^ x29: .cfa -48 + ^
STACK CFI d98c .cfa: sp 112 +
STACK CFI d99c .cfa: sp 0 +
STACK CFI d9a0 .cfa: x29 48 +
STACK CFI INIT db38 168 .cfa: sp 0 +
STACK CFI db3c .cfa: sp 144 +
STACK CFI db50 .cfa: x29 64 + x19: .cfa -8 + ^ x20: .cfa -16 + ^ x21: .cfa -24 + ^ x22: .cfa -32 + ^ x23: .cfa -40 + ^ x24: .cfa -48 + ^ .ra: .cfa -56 + ^ x29: .cfa -64 + ^
STACK CFI dba8 .cfa: sp 144 +
STACK CFI dbbc .cfa: sp 0 +
STACK CFI dbc0 .cfa: x29 64 +
STACK CFI INIT dca0 108 .cfa: sp 0 +
STACK CFI dca4 .cfa: sp 64 +
STACK CFI dcb4 .cfa: x29 48 + x19: .cfa -8 + ^ x20: .cfa -16 + ^ x21: .cfa -24 + ^ x22: .cfa -32 + ^ .ra: .cfa -40 + ^ x29: .cfa -48 + ^
STACK CFI dd60 .cfa: sp 64 +
STACK CFI dd70 .cfa: sp 0 +
STACK CFI dd74 .cfa: x29 48 +
STACK CFI INIT dda8 48 .cfa: sp 0 +
STACK CFI ddac .cfa: sp 32 +
STACK CFI ddb4 .cfa: x29 32 + x19: .cfa -16 + ^ .ra: .cfa -24 + ^ x29: .cfa -32 + ^
STACK CFI dde0 .cfa: sp 32 +
STACK CFI dde8 .cfa: sp 0 +
STACK CFI ddec .cfa: x29 32 +
STACK CFI INIT ddf0 50 .cfa: sp 0 +
STACK CFI ddf4 .cfa: sp 32 +
STACK CFI ddfc .cfa: x29 32 + x19: .cfa -16 + ^ .ra: .cfa -24 + ^ x29: .cfa -32 + ^
STACK CFI de30 .cfa: sp 32 +
STACK CFI de38 .cfa: sp 0 +
STACK CFI de3c .cfa: x29 32 +
STACK CFI INIT de40 b4 .cfa: sp 0 +
STACK CFI de44 .cfa: sp 48 +
STACK CFI de50 .cfa: x29 48 + x19: .cfa -8 + ^ x20: .cfa -16 + ^ x21: .cfa -32 + ^ .ra: .cfa -40 + ^ x29: .cfa -48 + ^
STACK CFI ded0 .cfa: sp 48 +
STACK CFI dedc .cfa: sp 0 +
STACK CFI dee0 .cfa: x29 48 +
STACK CFI INIT df00 4cc .cfa: sp 0 +
STACK CFI df04 .cfa: sp 128 +
STACK CFI df18 .cfa: x29 64 + x19: .cfa -8 + ^ x20: .cfa -16 + ^ x21: .cfa -24 + ^ x22: .cfa -32 + ^ x23: .cfa -48 + ^ .ra: .cfa -56 + ^ x29: .cfa -64 + ^
STACK CFI e224 .cfa: sp 128 +
STACK CFI e238 .cfa: sp 0 +
STACK CFI e23c .cfa: x29 64 +
STACK CFI INIT e3cc 154 .cfa: sp 0 +
STACK CFI e3d0 .cfa: sp 384 +
STACK CFI e3e4 .cfa: x29 64 + x19: .cfa -8 + ^ x20: .cfa -16 + ^ x21: .cfa -24 + ^ x22: .cfa -32 + ^ x23: .cfa -40 + ^ x28: .cfa -48 + ^ .ra: .cfa -56 + ^ x29: .cfa -64 + ^
STACK CFI e4c8 .cfa: sp 384 +
STACK CFI e4dc .cfa: sp 0 +
STACK CFI e4e0 .cfa: x29 64 +
STACK CFI INIT e520 168 .cfa: sp 0 +
STACK CFI e524 .cfa: sp 384 +
STACK CFI e538 .cfa: x29 64 + x19: .cfa -8 + ^ x20: .cfa -16 + ^ x21: .cfa -24 + ^ x22: .cfa -32 + ^ x23: .cfa -40 + ^ x28: .cfa -48 + ^ .ra: .cfa -56 + ^ x29: .cfa -64 + ^
STACK CFI e630 .cfa: sp 384 +
STACK CFI e644 .cfa: sp 0 +
STACK CFI e648 .cfa: x29 64 +
STACK CFI INIT e6a0 4e0 .cfa: sp 0 +
STACK CFI e6a4 .cfa: sp 64 +
STACK CFI e6b4 .cfa: x29 64 + x19: .cfa -8 + ^ x20: .cfa -16 + ^ x21: .cfa -24 + ^ x22: .cfa -32 + ^ x23: .cfa -40 + ^ x24: .cfa -48 + ^ .ra: .cfa -56 + ^ x29: .cfa -64 + ^
STACK CFI eb54 .cfa: sp 64 +
STACK CFI eb64 .cfa: sp 0 +
STACK CFI eb68 .cfa: x29 64 +
