MODULE Linux arm64 5EB7495FC62CE3AD5CE7BE5F2FFB68DD0 grian.art_importer.android64.so
INFO CODE_ID 5F49B75E2CC6ADE35CE7BE5F2FFB68DDE4D40F89
INFO GENERATOR mozilla/dump_syms 2.3.4
PUBLIC 96c0 0 __on_dlclose
PUBLIC 96d0 0 __emutls_unregister_key
PUBLIC 96d8 0 __on_dlclose_late
PUBLIC 96e0 0 __atexit_handler_wrapper
PUBLIC 96f4 0 atexit
PUBLIC 9710 0 pthread_atfork
PUBLIC 9720 0 __aarch64_ldadd8_relax
PUBLIC 9750 0 init_have_lse_atomics
PUBLIC 97e8 0 __init_cpu_features_constructor
PUBLIC 9d84 0 __init_cpu_features
PUBLIC 9e10 0 __aarch64_ldadd8_acq_rel
PUBLIC 9e40 0 stbi__hdr_test(stbi__context*)
PUBLIC a2d0 0 stbi__do_zlib(stbi__zbuf*, char*, int, int, int)
PUBLIC b45c 0 std::__ndk1::basic_string<char, std::__ndk1::char_traits<char>, std::__ndk1::allocator<char> >::basic_string[abi:ne180000]<0>()
PUBLIC b4f8 0 geode::utils::file::FilePickOptions::Filter::~Filter()
PUBLIC b578 0 geode::utils::file::FilePickOptions::~FilePickOptions()
PUBLIC b600 0 std::__ndk1::vector<MyEditorUI::OWOShape, std::__ndk1::allocator<MyEditorUI::OWOShape> >::~vector[abi:ne180000]()
PUBLIC b67c 0 __cxx_global_var_init.6
PUBLIC c250 0 geode::modifier::ModifyBase<geode::modifier::ModifyDerive<MyEditorUI, EditorUI> >::~ModifyBase()
PUBLIC c268 0 stbi__stdio_read(void*, char*, int)
PUBLIC c28c 0 stbi__stdio_skip(void*, int)
PUBLIC c2d4 0 stbi__stdio_eof(void*)
PUBLIC c318 0 stbi__load_main(stbi__context*, int*, int*, int*, int, stbi__result_info*, int)
PUBLIC 14abc 0 stbi__pnm_load(stbi__context*, int*, int*, int*, int, stbi__result_info*)
PUBLIC 14f8c 0 stbi__hdr_load(stbi__context*, int*, int*, int*, int, stbi__result_info*)
PUBLIC 157a0 0 stbi__hdr_to_ldr(float*, int, int, int)
PUBLIC 16290 0 stbi__tga_test(stbi__context*)
PUBLIC 16700 0 stbi__tga_load(stbi__context*, int*, int*, int*, int, stbi__result_info*)
PUBLIC 17478 0 stbi__get8(stbi__context*)
PUBLIC 1752c 0 stbi__parse_png_file(stbi__png*, int, int)
PUBLIC 18a88 0 stbi__skip(stbi__context*, int)
PUBLIC 18ad8 0 stbi__get32be(stbi__context*)
PUBLIC 18b08 0 stbi__get16be(stbi__context*)
PUBLIC 18c4c 0 stbi__getn(stbi__context*, unsigned char*, int)
PUBLIC 18d1c 0 stbi__compute_transparency16(stbi__png*, unsigned short*, int)
PUBLIC 18e50 0 stbi__compute_transparency(stbi__png*, unsigned char*, int)
PUBLIC 1906c 0 stbi__de_iphone(stbi__png*)
PUBLIC 19260 0 stbi__create_png_image_raw(stbi__png*, unsigned char*, unsigned int, int, unsigned int, unsigned int, int, int)
PUBLIC 1aea8 0 stbi__malloc_mad3(int, int, int, int)
PUBLIC 1aee8 0 stbi__malloc_mad2(int, int, int)
PUBLIC 1af28 0 stbi__get32le(stbi__context*)
PUBLIC 1af58 0 stbi__get16le(stbi__context*)
PUBLIC 1b09c 0 stbi__high_bit(unsigned int)
PUBLIC 1b108 0 stbi__bitcount(unsigned int)
PUBLIC 1b140 0 stbi__gif_parse_colortable(stbi__context*, unsigned char (*) [4], int, int)
PUBLIC 1b304 0 stbi__out_gif_code(stbi__gif*, unsigned short)
PUBLIC 1b430 0 stbi__psd_decode_rle(stbi__context*, unsigned char*, int)
PUBLIC 1b6b0 0 stbi__pic_is4(stbi__context*, char const*)
PUBLIC 1b900 0 stbi__readval(stbi__context*, int, unsigned char*)
PUBLIC 1bc1c 0 stbi__idct_block(unsigned char*, int, short*)
PUBLIC 1bfd8 0 stbi__YCbCr_to_RGB_row(unsigned char*, unsigned char const*, unsigned char const*, unsigned char const*, int, int)
PUBLIC 1c094 0 stbi__resample_row_hv_2(unsigned char*, unsigned char*, unsigned char*, int, int)
PUBLIC 1c2ac 0 stbi__get_marker(stbi__jpeg*)
PUBLIC 1c44c 0 stbi__process_marker(stbi__jpeg*, int)
PUBLIC 1d28c 0 stbi__build_huffman(stbi__huffman*, int*)
PUBLIC 1d488 0 stbi__free_jpeg_components(stbi__jpeg*, int, int)
PUBLIC 1d4fc 0 resample_row_1(unsigned char*, unsigned char*, unsigned char*, int, int)
PUBLIC 1d504 0 stbi__resample_row_v_2(unsigned char*, unsigned char*, unsigned char*, int, int)
PUBLIC 1d644 0 stbi__resample_row_h_2(unsigned char*, unsigned char*, unsigned char*, int, int)
PUBLIC 1d80c 0 stbi__resample_row_generic(unsigned char*, unsigned char*, unsigned char*, int, int)
PUBLIC 1d87c 0 stbi__jpeg_decode_block(stbi__jpeg*, short*, stbi__huffman*, stbi__huffman*, short*, int, unsigned short*)
PUBLIC 1dd5c 0 stbi__grow_buffer_unsafe(stbi__jpeg*)
PUBLIC 1df70 0 stbi__jpeg_decode_block_prog_dc(stbi__jpeg*, short*, stbi__huffman*, int)
PUBLIC 1e30c 0 stbi__malloc_mad4(int, int, int, int, int)
PUBLIC 1e350 0 stbi__pnm_skip_whitespace(stbi__context*, char*)
PUBLIC 1e538 0 stbi__pnm_getinteger(stbi__context*, char*)
PUBLIC 1e674 0 stbi__hdr_gettoken(stbi__context*, char*)
PUBLIC 1e8dc 0 stbi__zbuild_huffman(stbi__zhuffman*, unsigned char const*, int)
PUBLIC 1ed6c 0 std::__ndk1::basic_string<char, std::__ndk1::char_traits<char>, std::__ndk1::allocator<char> >::__throw_length_error[abi:ne180000]() const
PUBLIC 1ed80 0 std::__ndk1::__throw_length_error[abi:ne180000](char const*)
PUBLIC 1edd0 0 std::length_error::length_error[abi:ne180000](char const*)
PUBLIC 1ee00 0 std::__throw_bad_array_new_length([abi:ne180000], void)
PUBLIC 1ee34 0 __clang_call_terminate
PUBLIC 1ee44 0 std::__ndk1::__exception_guard_exceptions<std::__ndk1::_AllocatorDestroyRangeReverse<std::__ndk1::allocator<geode::utils::file::FilePickOptions::Filter>, geode::utils::file::FilePickOptions::Filter*> >::~__exception_guard_exceptions[abi:ne180000]()
PUBLIC 1eee8 0 std::__ndk1::basic_string<char, std::__ndk1::char_traits<char>, std::__ndk1::allocator<char> >::__init_copy_ctor_external(char const*, unsigned long)
PUBLIC 1ef68 0 std::__ndk1::__hash_table<std::__ndk1::basic_string<char, std::__ndk1::char_traits<char>, std::__ndk1::allocator<char> >, std::__ndk1::hash<std::__ndk1::basic_string<char, std::__ndk1::char_traits<char>, std::__ndk1::allocator<char> > >, std::__ndk1::equal_to<std::__ndk1::basic_string<char, std::__ndk1::char_traits<char>, std::__ndk1::allocator<char> > >, std::__ndk1::allocator<std::__ndk1::basic_string<char, std::__ndk1::char_traits<char>, std::__ndk1::allocator<char> > > >::~__hash_table()
PUBLIC 1efd8 0 std::__ndk1::__hash_table<std::__ndk1::basic_string<char, std::__ndk1::char_traits<char>, std::__ndk1::allocator<char> >, std::__ndk1::hash<std::__ndk1::basic_string<char, std::__ndk1::char_traits<char>, std::__ndk1::allocator<char> > >, std::__ndk1::equal_to<std::__ndk1::basic_string<char, std::__ndk1::char_traits<char>, std::__ndk1::allocator<char> > >, std::__ndk1::allocator<std::__ndk1::basic_string<char, std::__ndk1::char_traits<char>, std::__ndk1::allocator<char> > > >::__do_rehash<true>(unsigned long)
PUBLIC 1f184 0 std::__ndk1::__hash_table<std::__ndk1::basic_string<char, std::__ndk1::char_traits<char>, std::__ndk1::allocator<char> >, std::__ndk1::hash<std::__ndk1::basic_string<char, std::__ndk1::char_traits<char>, std::__ndk1::allocator<char> > >, std::__ndk1::equal_to<std::__ndk1::basic_string<char, std::__ndk1::char_traits<char>, std::__ndk1::allocator<char> > >, std::__ndk1::allocator<std::__ndk1::basic_string<char, std::__ndk1::char_traits<char>, std::__ndk1::allocator<char> > > >::__emplace_unique_key_args<std::__ndk1::basic_string<char, std::__ndk1::char_traits<char>, std::__ndk1::allocator<char> >, std::__ndk1::basic_string<char, std::__ndk1::char_traits<char>, std::__ndk1::allocator<char> > const&>(std::__ndk1::basic_string<char, std::__ndk1::char_traits<char>, std::__ndk1::allocator<char> > const&, std::__ndk1::basic_string<char, std::__ndk1::char_traits<char>, std::__ndk1::allocator<char> > const&)
PUBLIC 1f9ec 0 std::__ndk1::unique_ptr<std::__ndk1::__hash_node<std::__ndk1::basic_string<char, std::__ndk1::char_traits<char>, std::__ndk1::allocator<char> >, void*>, std::__ndk1::__hash_node_destructor<std::__ndk1::allocator<std::__ndk1::__hash_node<std::__ndk1::basic_string<char, std::__ndk1::char_traits<char>, std::__ndk1::allocator<char> >, void*> > > >::~unique_ptr[abi:ne180000]()
PUBLIC 1fa3c 0 std::__ndk1::vector<geode::utils::file::FilePickOptions::Filter, std::__ndk1::allocator<geode::utils::file::FilePickOptions::Filter> >::__destroy_vector::operator()[abi:ne180000]()
PUBLIC 1fb20 0 std::__ndk1::vector<std::__ndk1::pair<int, int>, std::__ndk1::allocator<std::__ndk1::pair<int, int> > >::__throw_length_error[abi:ne180000]() const
PUBLIC 1fb34 0 std::__ndk1::__exception_guard_exceptions<std::__ndk1::vector<MyEditorUI::OWOShape, std::__ndk1::allocator<MyEditorUI::OWOShape> >::__destroy_vector>::~__exception_guard_exceptions[abi:ne180000]()
PUBLIC 1fbc0 0 std::__ndk1::__exception_guard_exceptions<std::__ndk1::_AllocatorDestroyRangeReverse<std::__ndk1::allocator<MyEditorUI::OWOShape>, MyEditorUI::OWOShape*> >::~__exception_guard_exceptions[abi:ne180000]()
PUBLIC 1fc20 0 geode::modifier::ModifyDerive<MyEditorUI, EditorUI>::apply()
PUBLIC 2005c 0 std::__ndk1::shared_ptr<geode::Hook>::~shared_ptr[abi:ne180000]()
PUBLIC 200ac 0 geode::impl::ResultData<geode::Hook*, std::__ndk1::basic_string<char, std::__ndk1::char_traits<char>, std::__ndk1::allocator<char> > >::~ResultData()
PUBLIC 20120 0 std::__ndk1::vector<std::__ndk1::basic_string<char, std::__ndk1::char_traits<char>, std::__ndk1::allocator<char> >, std::__ndk1::allocator<std::__ndk1::basic_string<char, std::__ndk1::char_traits<char>, std::__ndk1::allocator<char> > > >::~vector[abi:ne180000]()
PUBLIC 2019c 0 geode::modifier::ModifyBase<geode::modifier::ModifyDerive<MyEditorUI, EditorUI> >::apply()
PUBLIC 201a0 0 _ZN5geode15UnwrapExceptionC2IRPNS_4HookEQsr4implE18IsStringStreamableIT_EEENS_4impl5OkTagEOS5_
PUBLIC 202f4 0 std::__ndk1::__throw_bad_variant_access[abi:ne180000]()
PUBLIC 20328 0 std::__ndk1::basic_stringstream<char, std::__ndk1::char_traits<char>, std::__ndk1::allocator<char> >::basic_stringstream[abi:ne180000]()
PUBLIC m 20454 0 std::__ndk1::basic_stringstream<char, std::__ndk1::char_traits<char>, std::__ndk1::allocator<char> >::~basic_stringstream()
PUBLIC 204d4 0 geode::UnwrapException::~UnwrapException()
PUBLIC 204f8 0 std::__ndk1::__put_character_sequence[abi:ne180000]<char, std::__ndk1::char_traits<char> >(std::__ndk1::basic_ostream<char, std::__ndk1::char_traits<char> >, std::__ndk1::basic_ostream const*, unsigned long)
PUBLIC 2069c 0 std::__ndk1::__pad_and_output[abi:ne180000]<char, std::__ndk1::char_traits<char> >(std::__ndk1::char_traits<char>, std::__ndk1::ostreambuf_iterator const*, std::__ndk1::ostreambuf_iterator const, std::__ndk1::ostreambuf_iterator const, std::__ndk1::ios_base&, std::__ndk1::ostreambuf_iterator)
PUBLIC 20878 0 std::__ndk1::basic_stringbuf<char, std::__ndk1::char_traits<char>, std::__ndk1::allocator<char> >::str[abi:ne180000]() &&
PUBLIC 209f0 0 std::__ndk1::basic_stringbuf<char, std::__ndk1::char_traits<char>, std::__ndk1::allocator<char> >::__init_buf_ptrs[abi:ne180000]()
PUBLIC 20b38 0 std::__ndk1::__split_buffer<std::__ndk1::basic_string<char, std::__ndk1::char_traits<char>, std::__ndk1::allocator<char> >, std::__ndk1::allocator<std::__ndk1::basic_string<char, std::__ndk1::char_traits<char>, std::__ndk1::allocator<char> > >&>::~__split_buffer()
PUBLIC 20ba0 0 std::__ndk1::vector<std::__ndk1::basic_string<char, std::__ndk1::char_traits<char>, std::__ndk1::allocator<char> >, std::__ndk1::allocator<std::__ndk1::basic_string<char, std::__ndk1::char_traits<char>, std::__ndk1::allocator<char> > > >::__throw_length_error[abi:ne180000]() const
PUBLIC 20bb4 0 std::__ndk1::__variant_detail::__visitation::__base::__dispatcher<(unsigned long)0>::__dispatch[abi:ne180000]<std::__ndk1::__variant_detail::__dtor<std::__ndk1::__variant_detail::__traits<geode::Hook*, std::__ndk1::basic_string<char, std::__ndk1::char_traits<char>, std::__ndk1::allocator<char> > >, (std::__ndk1::__variant_detail::_Trait)1>::__destroy[abi:ne180000]()::{lambda(auto:1&)#1}, std::__ndk1::__variant_detail::__base<(std::__ndk1::__variant_detail::__traits<geode::Hook*, std::__ndk1::basic_string<char, std::__ndk1::char_traits<char>, std::__ndk1::allocator<char> > >)1, geode::Hook, std::__ndk1::allocator<char> >&>(std::__ndk1::__variant_detail::__dtor<std::__ndk1::__variant_detail::__traits<geode::Hook*, std::__ndk1::basic_string<char, std::__ndk1::char_traits<char>, std::__ndk1::allocator<char> > >, (std::__ndk1::__variant_detail::_Trait)1>, std::__ndk1::__variant_detail::__base<(std::__ndk1::__variant_detail::__traits<geode::Hook*, std::__ndk1::basic_string<char, std::__ndk1::char_traits<char>, std::__ndk1::allocator<char> > >)1, geode::Hook, std::__ndk1::allocator<char> >&)
PUBLIC 20bb8 0 std::__ndk1::__variant_detail::__visitation::__base::__dispatcher<(unsigned long)1>::__dispatch[abi:ne180000]<std::__ndk1::__variant_detail::__dtor<std::__ndk1::__variant_detail::__traits<geode::Hook*, std::__ndk1::basic_string<char, std::__ndk1::char_traits<char>, std::__ndk1::allocator<char> > >, (std::__ndk1::__variant_detail::_Trait)1>::__destroy[abi:ne180000]()::{lambda(auto:1&)#1}, std::__ndk1::__variant_detail::__base<(std::__ndk1::__variant_detail::__traits<geode::Hook*, std::__ndk1::basic_string<char, std::__ndk1::char_traits<char>, std::__ndk1::allocator<char> > >)1, geode::Hook, std::__ndk1::allocator<char> >&>(std::__ndk1::__variant_detail::__dtor<std::__ndk1::__variant_detail::__traits<geode::Hook*, std::__ndk1::basic_string<char, std::__ndk1::char_traits<char>, std::__ndk1::allocator<char> > >, (std::__ndk1::__variant_detail::_Trait)1>, std::__ndk1::__variant_detail::__base<(std::__ndk1::__variant_detail::__traits<geode::Hook*, std::__ndk1::basic_string<char, std::__ndk1::char_traits<char>, std::__ndk1::allocator<char> > >)1, geode::Hook, std::__ndk1::allocator<char> >&)
PUBLIC 20bcc 0 std::__ndk1::__tree<std::__ndk1::__value_type<std::__ndk1::basic_string<char, std::__ndk1::char_traits<char>, std::__ndk1::allocator<char> >, std::__ndk1::shared_ptr<geode::Hook> >, std::__ndk1::__map_value_compare<std::__ndk1::basic_string<char, std::__ndk1::char_traits<char>, std::__ndk1::allocator<char> >, std::__ndk1::__value_type<std::__ndk1::basic_string<char, std::__ndk1::char_traits<char>, std::__ndk1::allocator<char> >, std::__ndk1::shared_ptr<geode::Hook> >, std::__ndk1::less<std::__ndk1::basic_string<char, std::__ndk1::char_traits<char>, std::__ndk1::allocator<char> > >, true>, std::__ndk1::allocator<std::__ndk1::__value_type<std::__ndk1::basic_string<char, std::__ndk1::char_traits<char>, std::__ndk1::allocator<char> >, std::__ndk1::shared_ptr<geode::Hook> > > >::destroy(std::__ndk1::__tree_node<std::__ndk1::__value_type<std::__ndk1::basic_string<char, std::__ndk1::char_traits<char>, std::__ndk1::allocator<char> >, std::__ndk1::shared_ptr<geode::Hook> >, void*>*)
PUBLIC 20c50 0 geode::modifier::AsStaticFunction_createMoveMenu<MyEditorUI, void (MyEditorUI::*)()>::Impl<void (MyEditorUI::*)()>::function(MyEditorUI*)
PUBLIC 20ce4 0 std::__ndk1::shared_ptr<tulip::hook::CallingConvention>::~shared_ptr[abi:ne180000]()
PUBLIC 20d34 0 tulip::hook::HandlerMetadata::~HandlerMetadata()
PUBLIC 20d98 0 MyEditorUI::onPixelArtImport(cocos2d::CCObject*)
PUBLIC 20fb0 0 std::__ndk1::__function::__base<void (FLAlertLayer*, bool)>::~__base()
PUBLIC 20fb4 0 std::__ndk1::__function::__func<MyEditorUI::onPixelArtImport(cocos2d::CCObject*)::{lambda(auto:1, bool)#1}, std::__ndk1::allocator<MyEditorUI::onPixelArtImport(cocos2d::CCObject*)::{lambda(auto:1, bool)#1}>, void (FLAlertLayer*, bool)>::~__func()
PUBLIC 20fb8 0 std::__ndk1::__function::__func<MyEditorUI::onPixelArtImport(cocos2d::CCObject*)::{lambda(auto:1, bool)#1}, std::__ndk1::allocator<MyEditorUI::onPixelArtImport(cocos2d::CCObject*)::{lambda(auto:1, bool)#1}>, void (FLAlertLayer*, bool)>::__clone() const
PUBLIC 20fec 0 std::__ndk1::__function::__func<MyEditorUI::onPixelArtImport(cocos2d::CCObject*)::{lambda(auto:1, bool)#1}, std::__ndk1::allocator<MyEditorUI::onPixelArtImport(cocos2d::CCObject*)::{lambda(auto:1, bool)#1}>, void (FLAlertLayer*, bool)>::__clone(std::__ndk1::__function::__base<void (FLAlertLayer*, bool)>*) const
PUBLIC 21000 0 std::__ndk1::__function::__func<MyEditorUI::onPixelArtImport(cocos2d::CCObject*)::{lambda(auto:1, bool)#1}, std::__ndk1::allocator<MyEditorUI::onPixelArtImport(cocos2d::CCObject*)::{lambda(auto:1, bool)#1}>, void (FLAlertLayer*, bool)>::destroy()
PUBLIC 21004 0 std::__ndk1::__function::__func<MyEditorUI::onPixelArtImport(cocos2d::CCObject*)::{lambda(auto:1, bool)#1}, std::__ndk1::allocator<MyEditorUI::onPixelArtImport(cocos2d::CCObject*)::{lambda(auto:1, bool)#1}>, void (FLAlertLayer*, bool)>::destroy_deallocate()
PUBLIC 21008 0 std::__ndk1::__function::__func<MyEditorUI::onPixelArtImport(cocos2d::CCObject*)::{lambda(auto:1, bool)#1}, std::__ndk1::allocator<MyEditorUI::onPixelArtImport(cocos2d::CCObject*)::{lambda(auto:1, bool)#1}>, void (FLAlertLayer*, bool)>::operator()(FLAlertLayer*&&, bool&&)
PUBLIC 21484 0 std::__ndk1::__function::__func<MyEditorUI::onPixelArtImport(cocos2d::CCObject*)::{lambda(auto:1, bool)#1}, std::__ndk1::allocator<MyEditorUI::onPixelArtImport(cocos2d::CCObject*)::{lambda(auto:1, bool)#1}>, void (FLAlertLayer*, bool)>::target(std::type_info const&) const
PUBLIC 214a0 0 std::__ndk1::__function::__func<MyEditorUI::onPixelArtImport(cocos2d::CCObject*)::{lambda(auto:1, bool)#1}, std::__ndk1::allocator<MyEditorUI::onPixelArtImport(cocos2d::CCObject*)::{lambda(auto:1, bool)#1}>, void (FLAlertLayer*, bool)>::target_type() const
PUBLIC 214ac 0 geode::Task<geode::Result<std::__ndk1::__fs::filesystem::path, std::__ndk1::basic_string<char, std::__ndk1::char_traits<char>, std::__ndk1::allocator<char> > >, std::__ndk1::monostate>::~Task()
PUBLIC 214fc 0 geode::EventListener<geode::Task<geode::Result<std::__ndk1::__fs::filesystem::path, std::__ndk1::basic_string<char, std::__ndk1::char_traits<char>, std::__ndk1::allocator<char> > >, std::__ndk1::monostate> >::getPool() const
PUBLIC 21500 0 geode::EventListener<geode::Task<geode::Result<std::__ndk1::__fs::filesystem::path, std::__ndk1::basic_string<char, std::__ndk1::char_traits<char>, std::__ndk1::allocator<char> > >, std::__ndk1::monostate> >::handle(geode::Event*)
PUBLIC 216ac 0 geode::EventListener<geode::Task<geode::Result<std::__ndk1::__fs::filesystem::path, std::__ndk1::basic_string<char, std::__ndk1::char_traits<char>, std::__ndk1::allocator<char> > >, std::__ndk1::monostate> >::~EventListener()
PUBLIC 21748 0 geode::EventListener<geode::Task<geode::Result<std::__ndk1::__fs::filesystem::path, std::__ndk1::basic_string<char, std::__ndk1::char_traits<char>, std::__ndk1::allocator<char> > >, std::__ndk1::monostate> >::~EventListener()
PUBLIC 217ec 0 geode::Task<geode::Result<std::__ndk1::__fs::filesystem::path, std::__ndk1::basic_string<char, std::__ndk1::char_traits<char>, std::__ndk1::allocator<char> > >, std::__ndk1::monostate>::setListener(geode::EventListenerProtocol*)::{lambda()#1}::~{lambda()#1}()
PUBLIC 2183c 0 std::__ndk1::__function::__func<geode::Task<geode::Result<std::__ndk1::__fs::filesystem::path, std::__ndk1::basic_string<char, std::__ndk1::char_traits<char>, std::__ndk1::allocator<char> > >, std::__ndk1::monostate>::setListener(geode::EventListenerProtocol*)::{lambda()#1}, std::__ndk1::allocator<geode::Task<geode::Result<std::__ndk1::__fs::filesystem::path, std::__ndk1::basic_string<char, std::__ndk1::char_traits<char>, std::__ndk1::allocator<char> > >, std::__ndk1::monostate>::setListener(geode::EventListenerProtocol*)::{lambda()#1}>, void ()>::~__func()
PUBLIC 21898 0 std::__ndk1::__function::__func<geode::Task<geode::Result<std::__ndk1::__fs::filesystem::path, std::__ndk1::basic_string<char, std::__ndk1::char_traits<char>, std::__ndk1::allocator<char> > >, std::__ndk1::monostate>::setListener(geode::EventListenerProtocol*)::{lambda()#1}, std::__ndk1::allocator<geode::Task<geode::Result<std::__ndk1::__fs::filesystem::path, std::__ndk1::basic_string<char, std::__ndk1::char_traits<char>, std::__ndk1::allocator<char> > >, std::__ndk1::monostate>::setListener(geode::EventListenerProtocol*)::{lambda()#1}>, void ()>::~__func()
PUBLIC 21904 0 std::__ndk1::__function::__func<geode::Task<geode::Result<std::__ndk1::__fs::filesystem::path, std::__ndk1::basic_string<char, std::__ndk1::char_traits<char>, std::__ndk1::allocator<char> > >, std::__ndk1::monostate>::setListener(geode::EventListenerProtocol*)::{lambda()#1}, std::__ndk1::allocator<geode::Task<geode::Result<std::__ndk1::__fs::filesystem::path, std::__ndk1::basic_string<char, std::__ndk1::char_traits<char>, std::__ndk1::allocator<char> > >, std::__ndk1::monostate>::setListener(geode::EventListenerProtocol*)::{lambda()#1}>, void ()>::__clone() const
PUBLIC 2195c 0 std::__ndk1::__function::__func<geode::Task<geode::Result<std::__ndk1::__fs::filesystem::path, std::__ndk1::basic_string<char, std::__ndk1::char_traits<char>, std::__ndk1::allocator<char> > >, std::__ndk1::monostate>::setListener(geode::EventListenerProtocol*)::{lambda()#1}, std::__ndk1::allocator<geode::Task<geode::Result<std::__ndk1::__fs::filesystem::path, std::__ndk1::basic_string<char, std::__ndk1::char_traits<char>, std::__ndk1::allocator<char> > >, std::__ndk1::monostate>::setListener(geode::EventListenerProtocol*)::{lambda()#1}>, void ()>::__clone(std::__ndk1::__function::__base<void ()>*) const
PUBLIC 219a8 0 std::__ndk1::__function::__func<geode::Task<geode::Result<std::__ndk1::__fs::filesystem::path, std::__ndk1::basic_string<char, std::__ndk1::char_traits<char>, std::__ndk1::allocator<char> > >, std::__ndk1::monostate>::setListener(geode::EventListenerProtocol*)::{lambda()#1}, std::__ndk1::allocator<geode::Task<geode::Result<std::__ndk1::__fs::filesystem::path, std::__ndk1::basic_string<char, std::__ndk1::char_traits<char>, std::__ndk1::allocator<char> > >, std::__ndk1::monostate>::setListener(geode::EventListenerProtocol*)::{lambda()#1}>, void ()>::destroy()
PUBLIC 219f8 0 std::__ndk1::__function::__func<geode::Task<geode::Result<std::__ndk1::__fs::filesystem::path, std::__ndk1::basic_string<char, std::__ndk1::char_traits<char>, std::__ndk1::allocator<char> > >, std::__ndk1::monostate>::setListener(geode::EventListenerProtocol*)::{lambda()#1}, std::__ndk1::allocator<geode::Task<geode::Result<std::__ndk1::__fs::filesystem::path, std::__ndk1::basic_string<char, std::__ndk1::char_traits<char>, std::__ndk1::allocator<char> > >, std::__ndk1::monostate>::setListener(geode::EventListenerProtocol*)::{lambda()#1}>, void ()>::destroy_deallocate()
PUBLIC 21a58 0 std::__ndk1::__function::__func<geode::Task<geode::Result<std::__ndk1::__fs::filesystem::path, std::__ndk1::basic_string<char, std::__ndk1::char_traits<char>, std::__ndk1::allocator<char> > >, std::__ndk1::monostate>::setListener(geode::EventListenerProtocol*)::{lambda()#1}, std::__ndk1::allocator<geode::Task<geode::Result<std::__ndk1::__fs::filesystem::path, std::__ndk1::basic_string<char, std::__ndk1::char_traits<char>, std::__ndk1::allocator<char> > >, std::__ndk1::monostate>::setListener(geode::EventListenerProtocol*)::{lambda()#1}>, void ()>::operator()()
PUBLIC 21c28 0 std::__ndk1::__function::__func<geode::Task<geode::Result<std::__ndk1::__fs::filesystem::path, std::__ndk1::basic_string<char, std::__ndk1::char_traits<char>, std::__ndk1::allocator<char> > >, std::__ndk1::monostate>::setListener(geode::EventListenerProtocol*)::{lambda()#1}, std::__ndk1::allocator<geode::Task<geode::Result<std::__ndk1::__fs::filesystem::path, std::__ndk1::basic_string<char, std::__ndk1::char_traits<char>, std::__ndk1::allocator<char> > >, std::__ndk1::monostate>::setListener(geode::EventListenerProtocol*)::{lambda()#1}>, void ()>::target(std::type_info const&) const
PUBLIC 21c44 0 std::__ndk1::__function::__func<geode::Task<geode::Result<std::__ndk1::__fs::filesystem::path, std::__ndk1::basic_string<char, std::__ndk1::char_traits<char>, std::__ndk1::allocator<char> > >, std::__ndk1::monostate>::setListener(geode::EventListenerProtocol*)::{lambda()#1}, std::__ndk1::allocator<geode::Task<geode::Result<std::__ndk1::__fs::filesystem::path, std::__ndk1::basic_string<char, std::__ndk1::char_traits<char>, std::__ndk1::allocator<char> > >, std::__ndk1::monostate>::setListener(geode::EventListenerProtocol*)::{lambda()#1}>, void ()>::target_type() const
PUBLIC 21c50 0 geode::Task<geode::Result<std::__ndk1::__fs::filesystem::path, std::__ndk1::basic_string<char, std::__ndk1::char_traits<char>, std::__ndk1::allocator<char> > >, std::__ndk1::monostate>::Event::~Event()
PUBLIC 21cb0 0 geode::Task<geode::Result<std::__ndk1::__fs::filesystem::path, std::__ndk1::basic_string<char, std::__ndk1::char_traits<char>, std::__ndk1::allocator<char> > >, std::__ndk1::monostate>::Event::~Event()
PUBLIC 21d20 0 std::__ndk1::__function::__func<geode::Task<geode::Result<std::__ndk1::__fs::filesystem::path, std::__ndk1::basic_string<char, std::__ndk1::char_traits<char>, std::__ndk1::allocator<char> > >, std::__ndk1::monostate>::setListener(geode::EventListenerProtocol*)::{lambda()#2}, std::__ndk1::allocator<geode::Task<geode::Result<std::__ndk1::__fs::filesystem::path, std::__ndk1::basic_string<char, std::__ndk1::char_traits<char>, std::__ndk1::allocator<char> > >, std::__ndk1::monostate>::setListener(geode::EventListenerProtocol*)::{lambda()#2}>, void ()>::~__func()
PUBLIC 21d7c 0 std::__ndk1::__function::__func<geode::Task<geode::Result<std::__ndk1::__fs::filesystem::path, std::__ndk1::basic_string<char, std::__ndk1::char_traits<char>, std::__ndk1::allocator<char> > >, std::__ndk1::monostate>::setListener(geode::EventListenerProtocol*)::{lambda()#2}, std::__ndk1::allocator<geode::Task<geode::Result<std::__ndk1::__fs::filesystem::path, std::__ndk1::basic_string<char, std::__ndk1::char_traits<char>, std::__ndk1::allocator<char> > >, std::__ndk1::monostate>::setListener(geode::EventListenerProtocol*)::{lambda()#2}>, void ()>::~__func()
PUBLIC 21de8 0 std::__ndk1::__function::__func<geode::Task<geode::Result<std::__ndk1::__fs::filesystem::path, std::__ndk1::basic_string<char, std::__ndk1::char_traits<char>, std::__ndk1::allocator<char> > >, std::__ndk1::monostate>::setListener(geode::EventListenerProtocol*)::{lambda()#2}, std::__ndk1::allocator<geode::Task<geode::Result<std::__ndk1::__fs::filesystem::path, std::__ndk1::basic_string<char, std::__ndk1::char_traits<char>, std::__ndk1::allocator<char> > >, std::__ndk1::monostate>::setListener(geode::EventListenerProtocol*)::{lambda()#2}>, void ()>::__clone() const
PUBLIC 21e40 0 std::__ndk1::__function::__func<geode::Task<geode::Result<std::__ndk1::__fs::filesystem::path, std::__ndk1::basic_string<char, std::__ndk1::char_traits<char>, std::__ndk1::allocator<char> > >, std::__ndk1::monostate>::setListener(geode::EventListenerProtocol*)::{lambda()#2}, std::__ndk1::allocator<geode::Task<geode::Result<std::__ndk1::__fs::filesystem::path, std::__ndk1::basic_string<char, std::__ndk1::char_traits<char>, std::__ndk1::allocator<char> > >, std::__ndk1::monostate>::setListener(geode::EventListenerProtocol*)::{lambda()#2}>, void ()>::__clone(std::__ndk1::__function::__base<void ()>*) const
PUBLIC 21e8c 0 std::__ndk1::__function::__func<geode::Task<geode::Result<std::__ndk1::__fs::filesystem::path, std::__ndk1::basic_string<char, std::__ndk1::char_traits<char>, std::__ndk1::allocator<char> > >, std::__ndk1::monostate>::setListener(geode::EventListenerProtocol*)::{lambda()#2}, std::__ndk1::allocator<geode::Task<geode::Result<std::__ndk1::__fs::filesystem::path, std::__ndk1::basic_string<char, std::__ndk1::char_traits<char>, std::__ndk1::allocator<char> > >, std::__ndk1::monostate>::setListener(geode::EventListenerProtocol*)::{lambda()#2}>, void ()>::destroy()
PUBLIC 21edc 0 std::__ndk1::__function::__func<geode::Task<geode::Result<std::__ndk1::__fs::filesystem::path, std::__ndk1::basic_string<char, std::__ndk1::char_traits<char>, std::__ndk1::allocator<char> > >, std::__ndk1::monostate>::setListener(geode::EventListenerProtocol*)::{lambda()#2}, std::__ndk1::allocator<geode::Task<geode::Result<std::__ndk1::__fs::filesystem::path, std::__ndk1::basic_string<char, std::__ndk1::char_traits<char>, std::__ndk1::allocator<char> > >, std::__ndk1::monostate>::setListener(geode::EventListenerProtocol*)::{lambda()#2}>, void ()>::destroy_deallocate()
PUBLIC 21f3c 0 std::__ndk1::__function::__func<geode::Task<geode::Result<std::__ndk1::__fs::filesystem::path, std::__ndk1::basic_string<char, std::__ndk1::char_traits<char>, std::__ndk1::allocator<char> > >, std::__ndk1::monostate>::setListener(geode::EventListenerProtocol*)::{lambda()#2}, std::__ndk1::allocator<geode::Task<geode::Result<std::__ndk1::__fs::filesystem::path, std::__ndk1::basic_string<char, std::__ndk1::char_traits<char>, std::__ndk1::allocator<char> > >, std::__ndk1::monostate>::setListener(geode::EventListenerProtocol*)::{lambda()#2}>, void ()>::operator()()
PUBLIC 22100 0 std::__ndk1::__function::__func<geode::Task<geode::Result<std::__ndk1::__fs::filesystem::path, std::__ndk1::basic_string<char, std::__ndk1::char_traits<char>, std::__ndk1::allocator<char> > >, std::__ndk1::monostate>::setListener(geode::EventListenerProtocol*)::{lambda()#2}, std::__ndk1::allocator<geode::Task<geode::Result<std::__ndk1::__fs::filesystem::path, std::__ndk1::basic_string<char, std::__ndk1::char_traits<char>, std::__ndk1::allocator<char> > >, std::__ndk1::monostate>::setListener(geode::EventListenerProtocol*)::{lambda()#2}>, void ()>::target(std::type_info const&) const
PUBLIC 2211c 0 std::__ndk1::__function::__func<geode::Task<geode::Result<std::__ndk1::__fs::filesystem::path, std::__ndk1::basic_string<char, std::__ndk1::char_traits<char>, std::__ndk1::allocator<char> > >, std::__ndk1::monostate>::setListener(geode::EventListenerProtocol*)::{lambda()#2}, std::__ndk1::allocator<geode::Task<geode::Result<std::__ndk1::__fs::filesystem::path, std::__ndk1::basic_string<char, std::__ndk1::char_traits<char>, std::__ndk1::allocator<char> > >, std::__ndk1::monostate>::setListener(geode::EventListenerProtocol*)::{lambda()#2}>, void ()>::target_type() const
PUBLIC 22128 0 geode::cast::traverseTypeinfoFor(void*, geode::cast::ClassTypeinfoType const*, char const*)
PUBLIC 22220 0 std::__ndk1::__throw_bad_function_call[abi:ne180000]()
PUBLIC 22254 0 std::__ndk1::bad_function_call::~bad_function_call()
PUBLIC 22278 0 std::__ndk1::__function::__base<void (geode::Task<geode::Result<std::__ndk1::__fs::filesystem::path, std::__ndk1::basic_string<char, std::__ndk1::char_traits<char>, std::__ndk1::allocator<char> > >, std::__ndk1::monostate>::Event*)>::~__base()
PUBLIC 2227c 0 _ZNSt6__ndk110__function6__funcIZNK5geode4TaskINS2_6ResultINS_4__fs10filesystem4pathENS_12basic_stringIcNS_11char_traitsIcEENS_9allocatorIcEEEEEENS_9monostateEE6listenIZZN10MyEditorUI16onPixelArtImportEPN7cocos2d8CCObjectEENKUlT_bE_clIP12FLAlertLayerEEDaSM_bEUlPSE_E_ZZNSI_16onPixelArtImportESL_ENKSO_ISQ_EEDaSM_bEUlRKSM_E_ZNKSG_6listenISS_SV_EEvOSM_OT0_EUlvE_EEvSX_SZ_OT1_EUlPNSG_5EventEE_NSB_IS15_EEFvS14_EED0Ev
PUBLIC 22280 0 _ZNKSt6__ndk110__function6__funcIZNK5geode4TaskINS2_6ResultINS_4__fs10filesystem4pathENS_12basic_stringIcNS_11char_traitsIcEENS_9allocatorIcEEEEEENS_9monostateEE6listenIZZN10MyEditorUI16onPixelArtImportEPN7cocos2d8CCObjectEENKUlT_bE_clIP12FLAlertLayerEEDaSM_bEUlPSE_E_ZZNSI_16onPixelArtImportESL_ENKSO_ISQ_EEDaSM_bEUlRKSM_E_ZNKSG_6listenISS_SV_EEvOSM_OT0_EUlvE_EEvSX_SZ_OT1_EUlPNSG_5EventEE_NSB_IS15_EEFvS14_EE7__cloneEv
PUBLIC 222c0 0 _ZNKSt6__ndk110__function6__funcIZNK5geode4TaskINS2_6ResultINS_4__fs10filesystem4pathENS_12basic_stringIcNS_11char_traitsIcEENS_9allocatorIcEEEEEENS_9monostateEE6listenIZZN10MyEditorUI16onPixelArtImportEPN7cocos2d8CCObjectEENKUlT_bE_clIP12FLAlertLayerEEDaSM_bEUlPSE_E_ZZNSI_16onPixelArtImportESL_ENKSO_ISQ_EEDaSM_bEUlRKSM_E_ZNKSG_6listenISS_SV_EEvOSM_OT0_EUlvE_EEvSX_SZ_OT1_EUlPNSG_5EventEE_NSB_IS15_EEFvS14_EE7__cloneEPNS0_6__baseIS17_EE
PUBLIC 222e0 0 _ZNSt6__ndk110__function6__funcIZNK5geode4TaskINS2_6ResultINS_4__fs10filesystem4pathENS_12basic_stringIcNS_11char_traitsIcEENS_9allocatorIcEEEEEENS_9monostateEE6listenIZZN10MyEditorUI16onPixelArtImportEPN7cocos2d8CCObjectEENKUlT_bE_clIP12FLAlertLayerEEDaSM_bEUlPSE_E_ZZNSI_16onPixelArtImportESL_ENKSO_ISQ_EEDaSM_bEUlRKSM_E_ZNKSG_6listenISS_SV_EEvOSM_OT0_EUlvE_EEvSX_SZ_OT1_EUlPNSG_5EventEE_NSB_IS15_EEFvS14_EE7destroyEv
PUBLIC 222e4 0 _ZNSt6__ndk110__function6__funcIZNK5geode4TaskINS2_6ResultINS_4__fs10filesystem4pathENS_12basic_stringIcNS_11char_traitsIcEENS_9allocatorIcEEEEEENS_9monostateEE6listenIZZN10MyEditorUI16onPixelArtImportEPN7cocos2d8CCObjectEENKUlT_bE_clIP12FLAlertLayerEEDaSM_bEUlPSE_E_ZZNSI_16onPixelArtImportESL_ENKSO_ISQ_EEDaSM_bEUlRKSM_E_ZNKSG_6listenISS_SV_EEvOSM_OT0_EUlvE_EEvSX_SZ_OT1_EUlPNSG_5EventEE_NSB_IS15_EEFvS14_EE18destroy_deallocateEv
PUBLIC 222e8 0 _ZNSt6__ndk110__function6__funcIZNK5geode4TaskINS2_6ResultINS_4__fs10filesystem4pathENS_12basic_stringIcNS_11char_traitsIcEENS_9allocatorIcEEEEEENS_9monostateEE6listenIZZN10MyEditorUI16onPixelArtImportEPN7cocos2d8CCObjectEENKUlT_bE_clIP12FLAlertLayerEEDaSM_bEUlPSE_E_ZZNSI_16onPixelArtImportESL_ENKSO_ISQ_EEDaSM_bEUlRKSM_E_ZNKSG_6listenISS_SV_EEvOSM_OT0_EUlvE_EEvSX_SZ_OT1_EUlPNSG_5EventEE_NSB_IS15_EEFvS14_EEclEOS14_
PUBLIC 24544 0 _ZNKSt6__ndk110__function6__funcIZNK5geode4TaskINS2_6ResultINS_4__fs10filesystem4pathENS_12basic_stringIcNS_11char_traitsIcEENS_9allocatorIcEEEEEENS_9monostateEE6listenIZZN10MyEditorUI16onPixelArtImportEPN7cocos2d8CCObjectEENKUlT_bE_clIP12FLAlertLayerEEDaSM_bEUlPSE_E_ZZNSI_16onPixelArtImportESL_ENKSO_ISQ_EEDaSM_bEUlRKSM_E_ZNKSG_6listenISS_SV_EEvOSM_OT0_EUlvE_EEvSX_SZ_OT1_EUlPNSG_5EventEE_NSB_IS15_EEFvS14_EE6targetERKSt9type_info
PUBLIC 24560 0 _ZNKSt6__ndk110__function6__funcIZNK5geode4TaskINS2_6ResultINS_4__fs10filesystem4pathENS_12basic_stringIcNS_11char_traitsIcEENS_9allocatorIcEEEEEENS_9monostateEE6listenIZZN10MyEditorUI16onPixelArtImportEPN7cocos2d8CCObjectEENKUlT_bE_clIP12FLAlertLayerEEDaSM_bEUlPSE_E_ZZNSI_16onPixelArtImportESL_ENKSO_ISQ_EEDaSM_bEUlRKSM_E_ZNKSG_6listenISS_SV_EEvOSM_OT0_EUlvE_EEvSX_SZ_OT1_EUlPNSG_5EventEE_NSB_IS15_EEFvS14_EE11target_typeEv
PUBLIC 2456c 0 geode::cocos::CCArrayExt<GameObject*>::~CCArrayExt()
PUBLIC 24588 0 geode::Mod::getSettingValue<bool>(std::__ndk1::basic_string_view<char, std::__ndk1::char_traits<char> >) const
PUBLIC 246b8 0 MyEditorUI::formatHsvToString(int, int, int)
PUBLIC m 24b84 0 std::__ndk1::basic_ostringstream<char, std::__ndk1::char_traits<char>, std::__ndk1::allocator<char> >::~basic_ostringstream()
PUBLIC 24c00 0 geode::modifier::FieldIntermediate<MyEditorUI, EditorUI>::fieldDestructor(void*)
PUBLIC 24c80 0 std::__ndk1::vector<void*, std::__ndk1::allocator<void*> >::__throw_length_error[abi:ne180000]() const
PUBLIC 24c94 0 std::__ndk1::vector<std::__ndk1::function<void (void*)>, std::__ndk1::allocator<std::__ndk1::function<void (void*)> > >::__throw_length_error[abi:ne180000]() const
PUBLIC 24ca8 0 std::__ndk1::vector<void*, std::__ndk1::allocator<void*> >::__throw_out_of_range[abi:ne180000]() const
PUBLIC 24cb4 0 std::__ndk1::__throw_out_of_range[abi:ne180000](char const*)
PUBLIC 24d04 0 std::out_of_range::out_of_range[abi:ne180000](char const*)
PUBLIC 24d34 0 std::__ndk1::vector<std::__ndk1::function<void (void*)>, std::__ndk1::allocator<std::__ndk1::function<void (void*)> > >::__throw_out_of_range[abi:ne180000]() const
PUBLIC 24d40 0 std::__ndk1::__function::__base<void (void*)>::~__base()
PUBLIC 24d44 0 std::__ndk1::__function::__func<void (*)(void*), std::__ndk1::allocator<void (*)(void*)>, void (void*)>::~__func()
PUBLIC 24d48 0 std::__ndk1::__function::__func<void (*)(void*), std::__ndk1::allocator<void (*)(void*)>, void (void*)>::__clone() const
PUBLIC 24d80 0 std::__ndk1::__function::__func<void (*)(void*), std::__ndk1::allocator<void (*)(void*)>, void (void*)>::__clone(std::__ndk1::__function::__base<void (void*)>*) const
PUBLIC 24d98 0 std::__ndk1::__function::__func<void (*)(void*), std::__ndk1::allocator<void (*)(void*)>, void (void*)>::destroy()
PUBLIC 24d9c 0 std::__ndk1::__function::__func<void (*)(void*), std::__ndk1::allocator<void (*)(void*)>, void (void*)>::destroy_deallocate()
PUBLIC 24da0 0 std::__ndk1::__function::__func<void (*)(void*), std::__ndk1::allocator<void (*)(void*)>, void (void*)>::operator()(void*&&)
PUBLIC 24db0 0 std::__ndk1::__function::__func<void (*)(void*), std::__ndk1::allocator<void (*)(void*)>, void (void*)>::target(std::type_info const&) const
PUBLIC 24dcc 0 std::__ndk1::__function::__func<void (*)(void*), std::__ndk1::allocator<void (*)(void*)>, void (void*)>::target_type() const
PUBLIC 24dd8 0 std::__ndk1::vector<bool, std::__ndk1::allocator<bool> >::__throw_length_error[abi:ne180000]() const
PUBLIC 24dec 0 std::__ndk1::__exception_guard_exceptions<std::__ndk1::vector<std::__ndk1::vector<bool, std::__ndk1::allocator<bool> >, std::__ndk1::allocator<std::__ndk1::vector<bool, std::__ndk1::allocator<bool> > > >::__destroy_vector>::~__exception_guard_exceptions[abi:ne180000]()
PUBLIC 24e7c 0 std::__ndk1::vector<std::__ndk1::vector<bool, std::__ndk1::allocator<bool> >, std::__ndk1::allocator<std::__ndk1::vector<bool, std::__ndk1::allocator<bool> > > >::__throw_length_error[abi:ne180000]() const
PUBLIC 24e90 0 std::__ndk1::__function::__base<void ()>::~__base()
PUBLIC 24e94 0 _ZNSt6__ndk110__function6__funcIZZNK5geode4TaskINS2_6ResultINS_4__fs10filesystem4pathENS_12basic_stringIcNS_11char_traitsIcEENS_9allocatorIcEEEEEENS_9monostateEE6listenIZZN10MyEditorUI16onPixelArtImportEPN7cocos2d8CCObjectEENKUlT_bE_clIP12FLAlertLayerEEDaSM_bEUlPSE_E_ZZNSI_16onPixelArtImportESL_ENKSO_ISQ_EEDaSM_bEUlRKSM_E_ZNKSG_6listenISS_SV_EEvOSM_OT0_EUlvE_EEvSX_SZ_OT1_ENUlPNSG_5EventEE_clES14_EUlvE_NSB_IS16_EEFvvEED0Ev
PUBLIC 24e98 0 _ZNKSt6__ndk110__function6__funcIZZNK5geode4TaskINS2_6ResultINS_4__fs10filesystem4pathENS_12basic_stringIcNS_11char_traitsIcEENS_9allocatorIcEEEEEENS_9monostateEE6listenIZZN10MyEditorUI16onPixelArtImportEPN7cocos2d8CCObjectEENKUlT_bE_clIP12FLAlertLayerEEDaSM_bEUlPSE_E_ZZNSI_16onPixelArtImportESL_ENKSO_ISQ_EEDaSM_bEUlRKSM_E_ZNKSG_6listenISS_SV_EEvOSM_OT0_EUlvE_EEvSX_SZ_OT1_ENUlPNSG_5EventEE_clES14_EUlvE_NSB_IS16_EEFvvEE7__cloneEv
PUBLIC 24ecc 0 _ZNKSt6__ndk110__function6__funcIZZNK5geode4TaskINS2_6ResultINS_4__fs10filesystem4pathENS_12basic_stringIcNS_11char_traitsIcEENS_9allocatorIcEEEEEENS_9monostateEE6listenIZZN10MyEditorUI16onPixelArtImportEPN7cocos2d8CCObjectEENKUlT_bE_clIP12FLAlertLayerEEDaSM_bEUlPSE_E_ZZNSI_16onPixelArtImportESL_ENKSO_ISQ_EEDaSM_bEUlRKSM_E_ZNKSG_6listenISS_SV_EEvOSM_OT0_EUlvE_EEvSX_SZ_OT1_ENUlPNSG_5EventEE_clES14_EUlvE_NSB_IS16_EEFvvEE7__cloneEPNS0_6__baseIS18_EE
PUBLIC 24ee0 0 _ZNSt6__ndk110__function6__funcIZZNK5geode4TaskINS2_6ResultINS_4__fs10filesystem4pathENS_12basic_stringIcNS_11char_traitsIcEENS_9allocatorIcEEEEEENS_9monostateEE6listenIZZN10MyEditorUI16onPixelArtImportEPN7cocos2d8CCObjectEENKUlT_bE_clIP12FLAlertLayerEEDaSM_bEUlPSE_E_ZZNSI_16onPixelArtImportESL_ENKSO_ISQ_EEDaSM_bEUlRKSM_E_ZNKSG_6listenISS_SV_EEvOSM_OT0_EUlvE_EEvSX_SZ_OT1_ENUlPNSG_5EventEE_clES14_EUlvE_NSB_IS16_EEFvvEE7destroyEv
PUBLIC 24ee4 0 _ZNSt6__ndk110__function6__funcIZZNK5geode4TaskINS2_6ResultINS_4__fs10filesystem4pathENS_12basic_stringIcNS_11char_traitsIcEENS_9allocatorIcEEEEEENS_9monostateEE6listenIZZN10MyEditorUI16onPixelArtImportEPN7cocos2d8CCObjectEENKUlT_bE_clIP12FLAlertLayerEEDaSM_bEUlPSE_E_ZZNSI_16onPixelArtImportESL_ENKSO_ISQ_EEDaSM_bEUlRKSM_E_ZNKSG_6listenISS_SV_EEvOSM_OT0_EUlvE_EEvSX_SZ_OT1_ENUlPNSG_5EventEE_clES14_EUlvE_NSB_IS16_EEFvvEE18destroy_deallocateEv
PUBLIC 24ee8 0 _ZNSt6__ndk110__function6__funcIZZNK5geode4TaskINS2_6ResultINS_4__fs10filesystem4pathENS_12basic_stringIcNS_11char_traitsIcEENS_9allocatorIcEEEEEENS_9monostateEE6listenIZZN10MyEditorUI16onPixelArtImportEPN7cocos2d8CCObjectEENKUlT_bE_clIP12FLAlertLayerEEDaSM_bEUlPSE_E_ZZNSI_16onPixelArtImportESL_ENKSO_ISQ_EEDaSM_bEUlRKSM_E_ZNKSG_6listenISS_SV_EEvOSM_OT0_EUlvE_EEvSX_SZ_OT1_ENUlPNSG_5EventEE_clES14_EUlvE_NSB_IS16_EEFvvEEclEv
PUBLIC 24f00 0 _ZNKSt6__ndk110__function6__funcIZZNK5geode4TaskINS2_6ResultINS_4__fs10filesystem4pathENS_12basic_stringIcNS_11char_traitsIcEENS_9allocatorIcEEEEEENS_9monostateEE6listenIZZN10MyEditorUI16onPixelArtImportEPN7cocos2d8CCObjectEENKUlT_bE_clIP12FLAlertLayerEEDaSM_bEUlPSE_E_ZZNSI_16onPixelArtImportESL_ENKSO_ISQ_EEDaSM_bEUlRKSM_E_ZNKSG_6listenISS_SV_EEvOSM_OT0_EUlvE_EEvSX_SZ_OT1_ENUlPNSG_5EventEE_clES14_EUlvE_NSB_IS16_EEFvvEE6targetERKSt9type_info
PUBLIC 24f1c 0 _ZNKSt6__ndk110__function6__funcIZZNK5geode4TaskINS2_6ResultINS_4__fs10filesystem4pathENS_12basic_stringIcNS_11char_traitsIcEENS_9allocatorIcEEEEEENS_9monostateEE6listenIZZN10MyEditorUI16onPixelArtImportEPN7cocos2d8CCObjectEENKUlT_bE_clIP12FLAlertLayerEEDaSM_bEUlPSE_E_ZZNSI_16onPixelArtImportESL_ENKSO_ISQ_EEDaSM_bEUlRKSM_E_ZNKSG_6listenISS_SV_EEvOSM_OT0_EUlvE_EEvSX_SZ_OT1_ENUlPNSG_5EventEE_clES14_EUlvE_NSB_IS16_EEFvvEE11target_typeEv
PUBLIC 24f28 0 std::__ndk1::__tree_balance_after_insert[abi:ne180000]<std::__ndk1::__tree_node_base<void*>*>(std::__ndk1::__tree_node_base<void*>*, std::__ndk1::__tree_node_base<void*>*)
PUBLIC 250d8 0 _GLOBAL__sub_I_main.cpp
PUBLIC m 2583c 0 geodeImplicitEntry
PUBLIC 25878 0 wrapFunction(unsigned long, tulip::hook::WrapperMetadata const&)
PUBLIC 259ac 0 geode::impl::ResultData<void*, std::__ndk1::basic_string<char, std::__ndk1::char_traits<char>, std::__ndk1::allocator<char> > >::unwrapErr() &
PUBLIC 25a24 0 geode::impl::ResultData<void*, std::__ndk1::basic_string<char, std::__ndk1::char_traits<char>, std::__ndk1::allocator<char> > >::~ResultData()
PUBLIC 25a98 0 tulip::hook::WrapperMetadata::~WrapperMetadata()
PUBLIC 25afc 0 FLAlertLayer::create(FLAlertLayerProtocol*, char const*, gd::string, char const*, char const*, float)
PUBLIC 25cb4 0 tulip::hook::AbstractFunction::from<FLAlertLayer*, FLAlertLayerProtocol*, char const*, gd::string, char const*, char const*, float>(FLAlertLayer* (*)(FLAlertLayerProtocol*, char const*, gd::string, char const*, char const*, float))
PUBLIC 25e20 0 FLAlertLayer::create(char const*, gd::string const&, char const*)
PUBLIC 25ecc 0 LevelEditorLayer::createObjectsFromString(gd::string const&, bool, bool)
PUBLIC 26034 0 tulip::hook::AbstractFunction::from<cocos2d::CCArray*, LevelEditorLayer*, gd::string const&, bool, bool>(cocos2d::CCArray* (*)(LevelEditorLayer*, gd::string const&, bool, bool))
PUBLIC 26140 0 _ZN5geode15UnwrapExceptionC2IRPvQsr4implE18IsStringStreamableIT_EEENS_4impl5OkTagEOS4_
PUBLIC 26294 0 _ZN5geode15UnwrapExceptionC2IRNSt6__ndk112basic_stringIcNS2_11char_traitsIcEENS2_9allocatorIcEEEEQsr4implE18IsStringStreamableIT_EEENS_4impl6ErrTagEOSA_
PUBLIC 263fc 0 std::__ndk1::__variant_detail::__visitation::__base::__dispatcher<(unsigned long)0>::__dispatch[abi:ne180000]<std::__ndk1::__variant_detail::__dtor<std::__ndk1::__variant_detail::__traits<void*, std::__ndk1::basic_string<char, std::__ndk1::char_traits<char>, std::__ndk1::allocator<char> > >, (std::__ndk1::__variant_detail::_Trait)1>::__destroy[abi:ne180000]()::{lambda(auto:1&)#1}, std::__ndk1::__variant_detail::__base<(std::__ndk1::__variant_detail::__traits<void*, std::__ndk1::basic_string<char, std::__ndk1::char_traits<char>, std::__ndk1::allocator<char> > >)1, std::__ndk1::__variant_detail::__traits, std::__ndk1::allocator<char> >&>(std::__ndk1::__variant_detail::__dtor<std::__ndk1::__variant_detail::__traits<void*, std::__ndk1::basic_string<char, std::__ndk1::char_traits<char>, std::__ndk1::allocator<char> > >, (std::__ndk1::__variant_detail::_Trait)1>, std::__ndk1::__variant_detail::__base<(std::__ndk1::__variant_detail::__traits<void*, std::__ndk1::basic_string<char, std::__ndk1::char_traits<char>, std::__ndk1::allocator<char> > >)1, std::__ndk1::__variant_detail::__traits, std::__ndk1::allocator<char> >&)
PUBLIC 26400 0 std::__ndk1::__variant_detail::__visitation::__base::__dispatcher<(unsigned long)1>::__dispatch[abi:ne180000]<std::__ndk1::__variant_detail::__dtor<std::__ndk1::__variant_detail::__traits<void*, std::__ndk1::basic_string<char, std::__ndk1::char_traits<char>, std::__ndk1::allocator<char> > >, (std::__ndk1::__variant_detail::_Trait)1>::__destroy[abi:ne180000]()::{lambda(auto:1&)#1}, std::__ndk1::__variant_detail::__base<(std::__ndk1::__variant_detail::__traits<void*, std::__ndk1::basic_string<char, std::__ndk1::char_traits<char>, std::__ndk1::allocator<char> > >)1, std::__ndk1::__variant_detail::__traits, std::__ndk1::allocator<char> >&>(std::__ndk1::__variant_detail::__dtor<std::__ndk1::__variant_detail::__traits<void*, std::__ndk1::basic_string<char, std::__ndk1::char_traits<char>, std::__ndk1::allocator<char> > >, (std::__ndk1::__variant_detail::_Trait)1>, std::__ndk1::__variant_detail::__base<(std::__ndk1::__variant_detail::__traits<void*, std::__ndk1::basic_string<char, std::__ndk1::char_traits<char>, std::__ndk1::allocator<char> > >)1, std::__ndk1::__variant_detail::__traits, std::__ndk1::allocator<char> >&)
PUBLIC 26414 0 __CortexA53843419_22000
PUBLIC 26420 0 <.plt ELF section in grian.art_importer.android64.so>
STACK CFI INIT 96c0 10 .cfa: sp 0 +
STACK CFI INIT 96d0 8 .cfa: sp 0 +
STACK CFI INIT 96d8 8 .cfa: sp 0 +
STACK CFI INIT 96e0 14 .cfa: sp 0 +
STACK CFI INIT 96f4 1c .cfa: sp 0 +
STACK CFI INIT 9710 10 .cfa: sp 0 +
STACK CFI INIT 9720 30 .cfa: sp 0 +
STACK CFI INIT 9750 98 .cfa: sp 0 +
STACK CFI INIT 97e8 59c .cfa: sp 0 +
STACK CFI INIT 9d84 8c .cfa: sp 0 +
STACK CFI INIT 9e10 30 .cfa: sp 0 +
STACK CFI INIT 9e40 490 .cfa: sp 0 +
STACK CFI 9e44 .cfa: sp 64 +
STACK CFI 9e54 .cfa: x29 64 + x19: .cfa -8 + ^ x20: .cfa -16 + ^ x21: .cfa -24 + ^ x22: .cfa -32 + ^ x23: .cfa -48 + ^ .ra: .cfa -56 + ^ x29: .cfa -64 + ^
STACK CFI a29c .cfa: sp 64 +
STACK CFI a2ac .cfa: sp 0 +
STACK CFI a2b0 .cfa: x29 64 +
STACK CFI INIT a2d0 118c .cfa: sp 0 +
STACK CFI a2d4 .cfa: sp 96 +
STACK CFI a2ec .cfa: x29 96 + x19: .cfa -8 + ^ x20: .cfa -16 + ^ x21: .cfa -24 + ^ x22: .cfa -32 + ^ x23: .cfa -40 + ^ x24: .cfa -48 + ^ x25: .cfa -56 + ^ x26: .cfa -64 + ^ x27: .cfa -72 + ^ x28: .cfa -80 + ^ .ra: .cfa -88 + ^ x29: .cfa -96 + ^
STACK CFI a3c4 .cfa: sp 96 +
STACK CFI a3dc .cfa: sp 0 +
STACK CFI a3e0 .cfa: x29 96 +
STACK CFI INIT b45c 9c .cfa: sp 0 +
STACK CFI b460 .cfa: sp 48 +
STACK CFI b46c .cfa: x29 48 + x19: .cfa -8 + ^ x20: .cfa -16 + ^ x21: .cfa -24 + ^ x22: .cfa -32 + ^ .ra: .cfa -40 + ^ x29: .cfa -48 + ^
STACK CFI b4a0 .cfa: sp 48 +
STACK CFI b4ac .cfa: sp 0 +
STACK CFI b4b0 .cfa: x29 48 +
STACK CFI b4e0 .cfa: sp 48 +
STACK CFI b4ec .cfa: sp 0 +
STACK CFI b4f0 .cfa: x29 48 +
STACK CFI INIT b4f8 80 .cfa: sp 0 +
STACK CFI b4fc .cfa: sp 48 +
STACK CFI b508 .cfa: x29 48 + x19: .cfa -8 + ^ x20: .cfa -16 + ^ x21: .cfa -32 + ^ .ra: .cfa -40 + ^ x29: .cfa -48 + ^
STACK CFI b52c .cfa: sp 48 +
STACK CFI b538 .cfa: sp 0 +
STACK CFI b53c .cfa: x29 48 +
STACK CFI b568 .cfa: sp 48 +
STACK CFI b574 .cfa: sp 0 +
STACK CFI INIT b578 88 .cfa: sp 0 +
STACK CFI b57c .cfa: sp 48 +
STACK CFI b588 .cfa: x29 32 + x19: .cfa -8 + ^ x20: .cfa -16 + ^ .ra: .cfa -24 + ^ x29: .cfa -32 + ^
STACK CFI b5c8 .cfa: sp 48 +
STACK CFI b5d4 .cfa: sp 0 +
STACK CFI b5d8 .cfa: x29 32 +
STACK CFI b5ec .cfa: sp 48 +
STACK CFI b5f8 .cfa: sp 0 +
STACK CFI b5fc .cfa: x29 32 +
STACK CFI INIT b600 7c .cfa: sp 0 +
STACK CFI b604 .cfa: sp 48 +
STACK CFI b610 .cfa: x29 48 + x19: .cfa -8 + ^ x20: .cfa -16 + ^ x21: .cfa -32 + ^ .ra: .cfa -40 + ^ x29: .cfa -48 + ^
STACK CFI b65c .cfa: sp 48 +
STACK CFI b668 .cfa: sp 0 +
STACK CFI b66c .cfa: sp 48 +
STACK CFI b678 .cfa: sp 0 +
STACK CFI INIT c250 18 .cfa: sp 0 +
STACK CFI INIT c268 24 .cfa: sp 0 +
STACK CFI c26c .cfa: sp 16 +
STACK CFI c270 .cfa: x29 16 + .ra: .cfa -8 + ^ x29: .cfa -16 + ^
STACK CFI c284 .cfa: sp 16 +
STACK CFI c288 .cfa: sp 0 +
STACK CFI INIT c28c 48 .cfa: sp 0 +
STACK CFI c290 .cfa: sp 32 +
STACK CFI c298 .cfa: x29 32 + x19: .cfa -16 + ^ .ra: .cfa -24 + ^ x29: .cfa -32 + ^
STACK CFI c2bc .cfa: sp 32 +
STACK CFI c2c4 .cfa: sp 0 +
STACK CFI c2c8 .cfa: sp 32 +
STACK CFI c2d0 .cfa: sp 0 +
STACK CFI INIT c2d4 44 .cfa: sp 0 +
STACK CFI c2d8 .cfa: sp 32 +
STACK CFI c2e0 .cfa: x29 32 + x19: .cfa -16 + ^ .ra: .cfa -24 + ^ x29: .cfa -32 + ^
STACK CFI c2f0 .cfa: sp 32 +
STACK CFI c2f8 .cfa: sp 0 +
STACK CFI c2fc .cfa: x29 32 +
STACK CFI c30c .cfa: sp 32 +
STACK CFI c314 .cfa: sp 0 +
STACK CFI INIT c318 87a4 .cfa: sp 0 +
STACK CFI c31c .cfa: sp 112 +
STACK CFI c338 .cfa: x29 96 + x19: .cfa -8 + ^ x20: .cfa -16 + ^ x21: .cfa -24 + ^ x22: .cfa -32 + ^ x23: .cfa -40 + ^ x24: .cfa -48 + ^ x25: .cfa -56 + ^ x26: .cfa -64 + ^ x27: .cfa -72 + ^ x28: .cfa -80 + ^ .ra: .cfa -88 + ^ x29: .cfa -96 + ^ v8: .cfa -112 + ^
STACK CFI def4 .cfa: sp 112 +
STACK CFI df10 .cfa: sp 0 +
STACK CFI df14 .cfa: x29 96 +
STACK CFI df60 .cfa: sp 112 +
STACK CFI df7c .cfa: sp 0 +
STACK CFI df80 .cfa: x29 96 +
STACK CFI dfb4 .cfa: sp 112 +
STACK CFI dfd0 .cfa: sp 0 +
STACK CFI dfd4 .cfa: x29 96 +
STACK CFI f2f8 .cfa: sp 112 +
STACK CFI f314 .cfa: sp 0 +
STACK CFI f318 .cfa: x29 96 +
STACK CFI INIT 14abc 4d0 .cfa: sp 0 +
STACK CFI 14ac0 .cfa: sp 96 +
STACK CFI 14ad8 .cfa: x29 80 + x19: .cfa -8 + ^ x20: .cfa -16 + ^ x21: .cfa -24 + ^ x22: .cfa -32 + ^ x23: .cfa -40 + ^ x24: .cfa -48 + ^ x25: .cfa -56 + ^ x26: .cfa -64 + ^ .ra: .cfa -72 + ^ x29: .cfa -80 + ^
STACK CFI 14d64 .cfa: sp 96 +
STACK CFI 14d7c .cfa: sp 0 +
STACK CFI 14d80 .cfa: x29 80 +
STACK CFI INIT 14f8c 814 .cfa: sp 0 +
STACK CFI 14f90 .cfa: sp 96 +
STACK CFI 14fa8 .cfa: x29 96 + x19: .cfa -8 + ^ x20: .cfa -16 + ^ x21: .cfa -24 + ^ x22: .cfa -32 + ^ x23: .cfa -40 + ^ x24: .cfa -48 + ^ x25: .cfa -56 + ^ x26: .cfa -64 + ^ x27: .cfa -72 + ^ x28: .cfa -80 + ^ .ra: .cfa -88 + ^ x29: .cfa -96 + ^
STACK CFI 1518c .cfa: sp 96 +
STACK CFI 151a4 .cfa: sp 0 +
STACK CFI 151a8 .cfa: x29 96 +
STACK CFI INIT 157a0 af0 .cfa: sp 0 +
STACK CFI 157a8 .cfa: sp 320 +
STACK CFI 157cc .cfa: x29 96 + x19: .cfa -8 + ^ x20: .cfa -16 + ^ x21: .cfa -24 + ^ x22: .cfa -32 + ^ x23: .cfa -40 + ^ x24: .cfa -48 + ^ x25: .cfa -56 + ^ x26: .cfa -64 + ^ x27: .cfa -72 + ^ x28: .cfa -80 + ^ .ra: .cfa -88 + ^ x29: .cfa -96 + ^ v8: .cfa -104 + ^ v9: .cfa -112 + ^ v10: .cfa -120 + ^ v11: .cfa -128 + ^
STACK CFI 158d4 .cfa: sp 320 +
STACK CFI 158f8 .cfa: sp 0 +
STACK CFI 15900 .cfa: x29 96 +
STACK CFI 15d38 .cfa: sp 0 + x19: x19 x20: x20 x21: x21 x22: x22 x23: x23 x24: x24 x25: x25 x26: x26 x27: x27 x28: x28 .ra: x30 x29: x29 v8: v8 v9: v9 v10: v10 v11: v11
STACK CFI 15d40 .cfa: x29 96 + x19: .cfa -8 + ^ x20: .cfa -16 + ^ x21: .cfa -24 + ^ x22: .cfa -32 + ^ x23: .cfa -40 + ^ x24: .cfa -48 + ^ x25: .cfa -56 + ^ x26: .cfa -64 + ^ x27: .cfa -72 + ^ x28: .cfa -80 + ^ .ra: .cfa -88 + ^ x29: .cfa -96 + ^ v8: .cfa -104 + ^ v9: .cfa -112 + ^ v10: .cfa -120 + ^ v11: .cfa -128 + ^
STACK CFI INIT 16290 470 .cfa: sp 0 +
STACK CFI 16294 .cfa: sp 48 +
STACK CFI 162a0 .cfa: x29 48 + x19: .cfa -8 + ^ x20: .cfa -16 + ^ x21: .cfa -32 + ^ .ra: .cfa -40 + ^ x29: .cfa -48 + ^
STACK CFI 16340 .cfa: sp 48 +
STACK CFI 1634c .cfa: sp 0 +
STACK CFI 16350 .cfa: x29 48 +
STACK CFI 16520 .cfa: sp 48 +
STACK CFI 1652c .cfa: sp 0 +
STACK CFI 16530 .cfa: x29 48 +
STACK CFI 166a8 .cfa: sp 48 +
STACK CFI 166b4 .cfa: sp 0 +
STACK CFI 166b8 .cfa: x29 48 +
STACK CFI 166f0 .cfa: sp 48 +
STACK CFI 166fc .cfa: sp 0 +
STACK CFI INIT 16700 d78 .cfa: sp 0 +
STACK CFI 16704 .cfa: sp 208 +
STACK CFI 16720 .cfa: x29 96 + x19: .cfa -8 + ^ x20: .cfa -16 + ^ x21: .cfa -24 + ^ x22: .cfa -32 + ^ x23: .cfa -40 + ^ x24: .cfa -48 + ^ x25: .cfa -56 + ^ x26: .cfa -64 + ^ x27: .cfa -72 + ^ x28: .cfa -80 + ^ .ra: .cfa -88 + ^ x29: .cfa -96 + ^
STACK CFI 17454 .cfa: sp 208 +
STACK CFI 17470 .cfa: sp 0 +
STACK CFI 17474 .cfa: x29 96 +
STACK CFI INIT 17478 b4 .cfa: sp 0 +
STACK CFI 174a0 .cfa: sp 32 +
STACK CFI 174a8 .cfa: x29 32 + x19: .cfa -8 + ^ x20: .cfa -16 + ^ .ra: .cfa -24 + ^ x29: .cfa -32 + ^
STACK CFI 174f8 .cfa: sp 32 +
STACK CFI 17500 .cfa: sp 0 +
STACK CFI 1750c .cfa: x29 32 +
STACK CFI 17520 .cfa: sp 32 +
STACK CFI 17528 .cfa: sp 0 +
STACK CFI INIT 1752c 155c .cfa: sp 0 +
STACK CFI 17530 .cfa: sp 96 +
STACK CFI 17548 .cfa: x29 96 + x19: .cfa -8 + ^ x20: .cfa -16 + ^ x21: .cfa -24 + ^ x22: .cfa -32 + ^ x23: .cfa -40 + ^ x24: .cfa -48 + ^ x25: .cfa -56 + ^ x26: .cfa -64 + ^ x27: .cfa -72 + ^ x28: .cfa -80 + ^ .ra: .cfa -88 + ^ x29: .cfa -96 + ^
STACK CFI 17a18 .cfa: sp 96 +
STACK CFI 17a30 .cfa: sp 0 +
STACK CFI 17a34 .cfa: x29 96 +
STACK CFI INIT 18a88 50 .cfa: sp 0 +
STACK CFI INIT 18ad8 30 .cfa: sp 0 +
STACK CFI 18adc .cfa: sp 32 +
STACK CFI 18ae4 .cfa: x29 32 + x19: .cfa -8 + ^ x20: .cfa -16 + ^ .ra: .cfa -24 + ^ x29: .cfa -32 + ^
STACK CFI 18afc .cfa: sp 32 +
STACK CFI 18b04 .cfa: sp 0 +
STACK CFI INIT 18b08 144 .cfa: sp 0 +
STACK CFI 18b0c .cfa: sp 48 +
STACK CFI 18b18 .cfa: x29 48 + x19: .cfa -8 + ^ x20: .cfa -16 + ^ x21: .cfa -32 + ^ .ra: .cfa -40 + ^ x29: .cfa -48 + ^
STACK CFI 18c10 .cfa: sp 48 +
STACK CFI 18c1c .cfa: sp 0 +
STACK CFI 18c20 .cfa: x29 48 +
STACK CFI 18c3c .cfa: sp 48 +
STACK CFI 18c48 .cfa: sp 0 +
STACK CFI INIT 18c4c d0 .cfa: sp 0 +
STACK CFI 18c50 .cfa: sp 48 +
STACK CFI 18c5c .cfa: x29 48 + x19: .cfa -8 + ^ x20: .cfa -16 + ^ x21: .cfa -24 + ^ x22: .cfa -32 + ^ .ra: .cfa -40 + ^ x29: .cfa -48 + ^
STACK CFI 18cb4 .cfa: sp 48 +
STACK CFI 18cc0 .cfa: sp 0 +
STACK CFI 18cc4 .cfa: x29 48 +
STACK CFI 18cdc .cfa: sp 48 +
STACK CFI 18ce8 .cfa: sp 0 +
STACK CFI 18cec .cfa: x29 48 +
STACK CFI 18d0c .cfa: sp 48 +
STACK CFI 18d18 .cfa: sp 0 +
STACK CFI INIT 18d1c 134 .cfa: sp 0 +
STACK CFI INIT 18e50 21c .cfa: sp 0 +
STACK CFI INIT 1906c 1f4 .cfa: sp 0 +
STACK CFI 19070 .cfa: sp 48 +
STACK CFI 1907c .cfa: x29 48 + x19: .cfa -8 + ^ x20: .cfa -16 + ^ x21: .cfa -32 + ^ .ra: .cfa -40 + ^ x29: .cfa -48 + ^
STACK CFI 19250 .cfa: sp 48 +
STACK CFI 1925c .cfa: sp 0 +
STACK CFI INIT 19260 1c48 .cfa: sp 0 +
STACK CFI 19264 .cfa: sp 128 +
STACK CFI 19284 .cfa: x29 96 + x19: .cfa -8 + ^ x20: .cfa -16 + ^ x21: .cfa -24 + ^ x22: .cfa -32 + ^ x23: .cfa -40 + ^ x24: .cfa -48 + ^ x25: .cfa -56 + ^ x26: .cfa -64 + ^ x27: .cfa -72 + ^ x28: .cfa -80 + ^ .ra: .cfa -88 + ^ x29: .cfa -96 + ^ v8: .cfa -104 + ^ v9: .cfa -112 + ^ v10: .cfa -128 + ^
STACK CFI 19304 .cfa: sp 128 +
STACK CFI 19324 .cfa: sp 0 +
STACK CFI 19328 .cfa: x29 96 +
STACK CFI INIT 1aea8 40 .cfa: sp 0 +
STACK CFI INIT 1aee8 40 .cfa: sp 0 +
STACK CFI INIT 1af28 30 .cfa: sp 0 +
STACK CFI 1af2c .cfa: sp 32 +
STACK CFI 1af34 .cfa: x29 32 + x19: .cfa -8 + ^ x20: .cfa -16 + ^ .ra: .cfa -24 + ^ x29: .cfa -32 + ^
STACK CFI 1af4c .cfa: sp 32 +
STACK CFI 1af54 .cfa: sp 0 +
STACK CFI INIT 1af58 144 .cfa: sp 0 +
STACK CFI 1af5c .cfa: sp 48 +
STACK CFI 1af68 .cfa: x29 48 + x19: .cfa -8 + ^ x20: .cfa -16 + ^ x21: .cfa -32 + ^ .ra: .cfa -40 + ^ x29: .cfa -48 + ^
STACK CFI 1b060 .cfa: sp 48 +
STACK CFI 1b06c .cfa: sp 0 +
STACK CFI 1b070 .cfa: x29 48 +
STACK CFI 1b08c .cfa: sp 48 +
STACK CFI 1b098 .cfa: sp 0 +
STACK CFI INIT 1b09c 6c .cfa: sp 0 +
STACK CFI INIT 1b108 38 .cfa: sp 0 +
STACK CFI INIT 1b140 1c4 .cfa: sp 0 +
STACK CFI 1b144 .cfa: sp 64 +
STACK CFI 1b154 .cfa: x29 64 + x19: .cfa -8 + ^ x20: .cfa -16 + ^ x21: .cfa -24 + ^ x22: .cfa -32 + ^ x23: .cfa -40 + ^ x24: .cfa -48 + ^ .ra: .cfa -56 + ^ x29: .cfa -64 + ^
STACK CFI 1b2f0 .cfa: sp 64 +
STACK CFI 1b300 .cfa: sp 0 +
STACK CFI INIT 1b304 12c .cfa: sp 0 +
STACK CFI 1b308 .cfa: sp 48 +
STACK CFI 1b314 .cfa: x29 48 + x19: .cfa -8 + ^ x20: .cfa -16 + ^ x21: .cfa -32 + ^ .ra: .cfa -40 + ^ x29: .cfa -48 + ^
STACK CFI 1b420 .cfa: sp 48 +
STACK CFI 1b42c .cfa: sp 0 +
STACK CFI INIT 1b430 280 .cfa: sp 0 +
STACK CFI 1b43c .cfa: sp 96 +
STACK CFI 1b454 .cfa: x29 96 + x19: .cfa -8 + ^ x20: .cfa -16 + ^ x21: .cfa -24 + ^ x22: .cfa -32 + ^ x23: .cfa -40 + ^ x24: .cfa -48 + ^ x25: .cfa -56 + ^ x26: .cfa -64 + ^ x27: .cfa -72 + ^ x28: .cfa -80 + ^ .ra: .cfa -88 + ^ x29: .cfa -96 + ^
STACK CFI 1b688 .cfa: sp 0 + x19: x19 x20: x20 x21: x21 x22: x22 x23: x23 x24: x24 x25: x25 x26: x26 x27: x27 x28: x28 .ra: x30 x29: x29
STACK CFI 1b690 .cfa: x29 96 + x19: .cfa -8 + ^ x20: .cfa -16 + ^ x21: .cfa -24 + ^ x22: .cfa -32 + ^ x23: .cfa -40 + ^ x24: .cfa -48 + ^ x25: .cfa -56 + ^ x26: .cfa -64 + ^ x27: .cfa -72 + ^ x28: .cfa -80 + ^ .ra: .cfa -88 + ^ x29: .cfa -96 + ^
STACK CFI 1b694 .cfa: sp 96 +
STACK CFI 1b6ac .cfa: sp 0 +
STACK CFI INIT 1b6b0 250 .cfa: sp 0 +
STACK CFI 1b6b4 .cfa: sp 48 +
STACK CFI 1b6c0 .cfa: x29 48 + x19: .cfa -8 + ^ x20: .cfa -16 + ^ x21: .cfa -24 + ^ x22: .cfa -32 + ^ .ra: .cfa -40 + ^ x29: .cfa -48 + ^
STACK CFI 1b87c .cfa: sp 48 +
STACK CFI 1b888 .cfa: sp 0 +
STACK CFI 1b88c .cfa: x29 48 +
STACK CFI 1b8f0 .cfa: sp 48 +
STACK CFI 1b8fc .cfa: sp 0 +
STACK CFI INIT 1b900 31c .cfa: sp 0 +
STACK CFI 1b904 .cfa: sp 64 +
STACK CFI 1b914 .cfa: x29 64 + x19: .cfa -8 + ^ x20: .cfa -16 + ^ x21: .cfa -24 + ^ x22: .cfa -32 + ^ x23: .cfa -48 + ^ .ra: .cfa -56 + ^ x29: .cfa -64 + ^
STACK CFI 1bb78 .cfa: sp 64 +
STACK CFI 1bb88 .cfa: sp 0 +
STACK CFI 1bb8c .cfa: x29 64 +
STACK CFI 1bc08 .cfa: sp 64 +
STACK CFI 1bc18 .cfa: sp 0 +
STACK CFI INIT 1bc1c 3bc .cfa: sp 0 +
STACK CFI 1bc20 .cfa: sp 384 +
STACK CFI 1bc3c .cfa: x29 96 + x19: .cfa -8 + ^ x20: .cfa -16 + ^ x21: .cfa -24 + ^ x22: .cfa -32 + ^ x23: .cfa -40 + ^ x24: .cfa -48 + ^ x25: .cfa -56 + ^ x26: .cfa -64 + ^ x27: .cfa -72 + ^ x28: .cfa -80 + ^ .ra: .cfa -88 + ^ x29: .cfa -96 + ^
STACK CFI 1bfb4 .cfa: sp 384 +
STACK CFI 1bfd0 .cfa: sp 0 +
STACK CFI 1bfd4 .cfa: x29 96 +
STACK CFI INIT 1bfd8 bc .cfa: sp 0 +
STACK CFI INIT 1c094 218 .cfa: sp 0 +
STACK CFI INIT 1c2ac 1a0 .cfa: sp 0 +
STACK CFI 1c2b0 .cfa: sp 48 +
STACK CFI 1c2bc .cfa: x29 48 + x19: .cfa -8 + ^ x20: .cfa -16 + ^ x21: .cfa -32 + ^ .ra: .cfa -40 + ^ x29: .cfa -48 + ^
STACK CFI 1c300 .cfa: sp 48 +
STACK CFI 1c30c .cfa: sp 0 +
STACK CFI 1c310 .cfa: x29 48 +
STACK CFI 1c38c .cfa: sp 48 +
STACK CFI 1c398 .cfa: sp 0 +
STACK CFI 1c39c .cfa: x29 48 +
STACK CFI 1c43c .cfa: sp 48 +
STACK CFI 1c448 .cfa: sp 0 +
STACK CFI INIT 1c44c e40 .cfa: sp 0 +
STACK CFI 1c450 .cfa: sp 192 +
STACK CFI 1c46c .cfa: x29 96 + x19: .cfa -8 + ^ x20: .cfa -16 + ^ x21: .cfa -24 + ^ x22: .cfa -32 + ^ x23: .cfa -40 + ^ x24: .cfa -48 + ^ x25: .cfa -56 + ^ x26: .cfa -64 + ^ x27: .cfa -72 + ^ x28: .cfa -80 + ^ .ra: .cfa -88 + ^ x29: .cfa -96 + ^
STACK CFI 1cb90 .cfa: sp 192 +
STACK CFI 1cbac .cfa: sp 0 +
STACK CFI 1cbb0 .cfa: x29 96 +
STACK CFI INIT 1d28c 1fc .cfa: sp 0 +
STACK CFI 1d290 .cfa: sp 32 +
STACK CFI 1d298 .cfa: x29 32 + x19: .cfa -16 + ^ .ra: .cfa -24 + ^ x29: .cfa -32 + ^
STACK CFI 1d3b8 .cfa: sp 32 +
STACK CFI 1d3c0 .cfa: sp 0 +
STACK CFI 1d3c4 .cfa: x29 32 +
STACK CFI 1d47c .cfa: sp 32 +
STACK CFI 1d484 .cfa: sp 0 +
STACK CFI INIT 1d488 74 .cfa: sp 0 +
STACK CFI 1d494 .cfa: sp 32 +
STACK CFI 1d49c .cfa: x29 32 + x19: .cfa -8 + ^ x20: .cfa -16 + ^ .ra: .cfa -24 + ^ x29: .cfa -32 + ^
STACK CFI 1d4f0 .cfa: sp 32 +
STACK CFI 1d4f8 .cfa: sp 0 +
STACK CFI INIT 1d4fc 8 .cfa: sp 0 +
STACK CFI INIT 1d504 140 .cfa: sp 0 +
STACK CFI INIT 1d644 1c8 .cfa: sp 0 +
STACK CFI INIT 1d80c 70 .cfa: sp 0 +
STACK CFI 1d810 .cfa: sp 64 +
STACK CFI 1d820 .cfa: x29 64 + x19: .cfa -8 + ^ x20: .cfa -16 + ^ x21: .cfa -24 + ^ x22: .cfa -32 + ^ x23: .cfa -40 + ^ x24: .cfa -48 + ^ .ra: .cfa -56 + ^ x29: .cfa -64 + ^
STACK CFI 1d868 .cfa: sp 64 +
STACK CFI 1d878 .cfa: sp 0 +
STACK CFI INIT 1d87c 4e0 .cfa: sp 0 +
STACK CFI 1d880 .cfa: sp 112 +
STACK CFI 1d89c .cfa: x29 96 + x19: .cfa -8 + ^ x20: .cfa -16 + ^ x21: .cfa -24 + ^ x22: .cfa -32 + ^ x23: .cfa -40 + ^ x24: .cfa -48 + ^ x25: .cfa -56 + ^ x26: .cfa -64 + ^ x27: .cfa -72 + ^ x28: .cfa -80 + ^ .ra: .cfa -88 + ^ x29: .cfa -96 + ^
STACK CFI 1da34 .cfa: sp 112 +
STACK CFI 1da50 .cfa: sp 0 +
STACK CFI 1da54 .cfa: x29 96 +
STACK CFI INIT 1dd5c 214 .cfa: sp 0 +
STACK CFI 1dd60 .cfa: sp 64 +
STACK CFI 1dd70 .cfa: x29 64 + x19: .cfa -8 + ^ x20: .cfa -16 + ^ x21: .cfa -24 + ^ x22: .cfa -32 + ^ x23: .cfa -48 + ^ .ra: .cfa -56 + ^ x29: .cfa -64 + ^
STACK CFI 1dda4 .cfa: sp 64 +
STACK CFI 1ddb4 .cfa: sp 0 +
STACK CFI 1ddb8 .cfa: x29 64 +
STACK CFI 1df5c .cfa: sp 64 +
STACK CFI 1df6c .cfa: sp 0 +
STACK CFI INIT 1df70 39c .cfa: sp 0 +
STACK CFI 1df74 .cfa: sp 64 +
STACK CFI 1df84 .cfa: x29 64 + x19: .cfa -8 + ^ x20: .cfa -16 + ^ x21: .cfa -24 + ^ x22: .cfa -32 + ^ x23: .cfa -48 + ^ .ra: .cfa -56 + ^ x29: .cfa -64 + ^
STACK CFI 1dfb0 .cfa: sp 64 +
STACK CFI 1dfc0 .cfa: sp 0 +
STACK CFI 1dfc4 .cfa: x29 64 +
STACK CFI 1e050 .cfa: sp 64 +
STACK CFI 1e060 .cfa: sp 0 +
STACK CFI 1e064 .cfa: x29 64 +
STACK CFI 1e160 .cfa: sp 64 +
STACK CFI 1e170 .cfa: sp 0 +
STACK CFI 1e174 .cfa: x29 64 +
STACK CFI 1e280 .cfa: sp 64 +
STACK CFI 1e290 .cfa: sp 0 +
STACK CFI 1e294 .cfa: x29 64 +
STACK CFI 1e2f8 .cfa: sp 64 +
STACK CFI 1e308 .cfa: sp 0 +
STACK CFI INIT 1e30c 44 .cfa: sp 0 +
STACK CFI INIT 1e350 1e8 .cfa: sp 0 +
STACK CFI 1e354 .cfa: sp 48 +
STACK CFI 1e360 .cfa: x29 48 + x19: .cfa -8 + ^ x20: .cfa -16 + ^ x21: .cfa -24 + ^ x22: .cfa -32 + ^ .ra: .cfa -40 + ^ x29: .cfa -48 + ^
STACK CFI 1e528 .cfa: sp 48 +
STACK CFI 1e534 .cfa: sp 0 +
STACK CFI INIT 1e538 13c .cfa: sp 0 +
STACK CFI 1e53c .cfa: sp 80 +
STACK CFI 1e550 .cfa: x29 80 + x19: .cfa -8 + ^ x20: .cfa -16 + ^ x21: .cfa -24 + ^ x22: .cfa -32 + ^ x23: .cfa -40 + ^ x24: .cfa -48 + ^ x25: .cfa -56 + ^ x26: .cfa -64 + ^ .ra: .cfa -72 + ^ x29: .cfa -80 + ^
STACK CFI 1e65c .cfa: sp 80 +
STACK CFI 1e670 .cfa: sp 0 +
STACK CFI INIT 1e674 268 .cfa: sp 0 +
STACK CFI 1e678 .cfa: sp 64 +
STACK CFI 1e688 .cfa: x29 64 + x19: .cfa -8 + ^ x20: .cfa -16 + ^ x21: .cfa -24 + ^ x22: .cfa -32 + ^ x23: .cfa -40 + ^ x24: .cfa -48 + ^ .ra: .cfa -56 + ^ x29: .cfa -64 + ^
STACK CFI 1e8c8 .cfa: sp 64 +
STACK CFI 1e8d8 .cfa: sp 0 +
STACK CFI INIT 1e8dc 490 .cfa: sp 0 +
STACK CFI 1e8e0 .cfa: sp 192 +
STACK CFI 1e8f0 .cfa: x29 48 + x19: .cfa -8 + ^ x20: .cfa -16 + ^ x21: .cfa -24 + ^ x22: .cfa -32 + ^ .ra: .cfa -40 + ^ x29: .cfa -48 + ^
STACK CFI 1ea34 .cfa: sp 192 +
STACK CFI 1ea44 .cfa: sp 0 +
STACK CFI 1ea48 .cfa: x29 48 +
STACK CFI INIT 1ed6c 14 .cfa: sp 0 +
STACK CFI 1ed70 .cfa: sp 16 +
STACK CFI 1ed74 .cfa: x29 16 + .ra: .cfa -8 + ^ x29: .cfa -16 + ^
STACK CFI INIT 1edd0 30 .cfa: sp 0 +
STACK CFI 1edd4 .cfa: sp 32 +
STACK CFI 1eddc .cfa: x29 32 + x19: .cfa -16 + ^ .ra: .cfa -24 + ^ x29: .cfa -32 + ^
STACK CFI 1edf4 .cfa: sp 32 +
STACK CFI 1edfc .cfa: sp 0 +
STACK CFI INIT 1ee00 34 .cfa: sp 0 +
STACK CFI 1ee04 .cfa: sp 32 +
STACK CFI 1ee0c .cfa: x29 32 + x19: .cfa -16 + ^ .ra: .cfa -24 + ^ x29: .cfa -32 + ^
STACK CFI INIT 1ee34 10 .cfa: sp 0 +
STACK CFI 1ee38 .cfa: sp 16 +
STACK CFI 1ee3c .cfa: x29 16 + .ra: .cfa -8 + ^ x29: .cfa -16 + ^
STACK CFI INIT 1ee44 a4 .cfa: sp 0 +
STACK CFI 1ee54 .cfa: sp 48 +
STACK CFI 1ee60 .cfa: x29 48 + x19: .cfa -8 + ^ x20: .cfa -16 + ^ x21: .cfa -24 + ^ x22: .cfa -32 + ^ .ra: .cfa -40 + ^ x29: .cfa -48 + ^
STACK CFI 1ee74 .cfa: sp 48 +
STACK CFI 1ee80 .cfa: sp 0 +
STACK CFI 1ee84 .cfa: x29 48 +
STACK CFI INIT 1eee8 80 .cfa: sp 0 +
STACK CFI 1eeec .cfa: sp 48 +
STACK CFI 1eef8 .cfa: x29 48 + x19: .cfa -8 + ^ x20: .cfa -16 + ^ x21: .cfa -24 + ^ x22: .cfa -32 + ^ .ra: .cfa -40 + ^ x29: .cfa -48 + ^
STACK CFI 1ef10 .cfa: sp 48 +
STACK CFI 1ef1c .cfa: sp 0 +
STACK CFI 1ef20 .cfa: x29 48 +
STACK CFI 1ef50 .cfa: sp 48 +
STACK CFI 1ef5c .cfa: sp 0 +
STACK CFI 1ef60 .cfa: x29 48 +
STACK CFI INIT 1ef68 70 .cfa: sp 0 +
STACK CFI 1ef6c .cfa: sp 48 +
STACK CFI 1ef78 .cfa: x29 48 + x19: .cfa -8 + ^ x20: .cfa -16 + ^ x21: .cfa -32 + ^ .ra: .cfa -40 + ^ x29: .cfa -48 + ^
STACK CFI 1ef90 .cfa: sp 48 +
STACK CFI 1ef9c .cfa: sp 0 +
STACK CFI 1efa0 .cfa: x29 48 +
STACK CFI 1efc8 .cfa: sp 48 +
STACK CFI 1efd4 .cfa: sp 0 +
STACK CFI INIT 1efd8 1ac .cfa: sp 0 +
STACK CFI 1efdc .cfa: sp 32 +
STACK CFI 1efe4 .cfa: x29 32 + x19: .cfa -8 + ^ x20: .cfa -16 + ^ .ra: .cfa -24 + ^ x29: .cfa -32 + ^
STACK CFI 1f0d4 .cfa: sp 32 +
STACK CFI 1f0dc .cfa: sp 0 +
STACK CFI 1f0e0 .cfa: x29 32 +
STACK CFI INIT 1f9ec 50 .cfa: sp 0 +
STACK CFI 1fa10 .cfa: sp 32 +
STACK CFI 1fa18 .cfa: x29 32 + x19: .cfa -16 + ^ .ra: .cfa -24 + ^ x29: .cfa -32 + ^
STACK CFI 1fa2c .cfa: sp 32 +
STACK CFI 1fa34 .cfa: sp 0 +
STACK CFI INIT 1fa3c e4 .cfa: sp 0 +
STACK CFI 1fa40 .cfa: sp 64 +
STACK CFI 1fa50 .cfa: x29 64 + x19: .cfa -8 + ^ x20: .cfa -16 + ^ x21: .cfa -24 + ^ x22: .cfa -32 + ^ x23: .cfa -40 + ^ x24: .cfa -48 + ^ .ra: .cfa -56 + ^ x29: .cfa -64 + ^
STACK CFI 1fa74 .cfa: sp 64 +
STACK CFI 1fa84 .cfa: sp 0 +
STACK CFI 1fa88 .cfa: x29 64 +
STACK CFI 1faf8 .cfa: sp 64 +
STACK CFI 1fb08 .cfa: sp 0 +
STACK CFI 1fb0c .cfa: sp 64 +
STACK CFI 1fb1c .cfa: sp 0 +
STACK CFI INIT 1fb20 14 .cfa: sp 0 +
STACK CFI 1fb24 .cfa: sp 16 +
STACK CFI 1fb28 .cfa: x29 16 + .ra: .cfa -8 + ^ x29: .cfa -16 + ^
STACK CFI INIT 1fb34 8c .cfa: sp 0 +
STACK CFI 1fb38 .cfa: sp 48 +
STACK CFI 1fb44 .cfa: x29 48 + x19: .cfa -8 + ^ x20: .cfa -16 + ^ x21: .cfa -24 + ^ x22: .cfa -32 + ^ .ra: .cfa -40 + ^ x29: .cfa -48 + ^
STACK CFI 1fb4c .cfa: sp 48 +
STACK CFI 1fb58 .cfa: sp 0 +
STACK CFI 1fb5c .cfa: x29 48 +
STACK CFI 1fbb0 .cfa: sp 48 +
STACK CFI 1fbbc .cfa: sp 0 +
STACK CFI INIT 1fbc0 60 .cfa: sp 0 +
STACK CFI 1fbd0 .cfa: sp 32 +
STACK CFI 1fbd8 .cfa: x29 32 + x19: .cfa -8 + ^ x20: .cfa -16 + ^ .ra: .cfa -24 + ^ x29: .cfa -32 + ^
STACK CFI 1fc14 .cfa: sp 32 +
STACK CFI 1fc1c .cfa: sp 0 +
STACK CFI INIT 2005c 50 .cfa: sp 0 +
STACK CFI 20060 .cfa: sp 32 +
STACK CFI 20068 .cfa: x29 32 + x19: .cfa -16 + ^ .ra: .cfa -24 + ^ x29: .cfa -32 + ^
STACK CFI 20080 .cfa: sp 32 +
STACK CFI 20088 .cfa: sp 0 +
STACK CFI 2008c .cfa: x29 32 +
STACK CFI 200a0 .cfa: sp 32 +
STACK CFI 200a8 .cfa: sp 0 +
STACK CFI INIT 20120 7c .cfa: sp 0 +
STACK CFI 20124 .cfa: sp 48 +
STACK CFI 20130 .cfa: x29 48 + x19: .cfa -8 + ^ x20: .cfa -16 + ^ x21: .cfa -32 + ^ .ra: .cfa -40 + ^ x29: .cfa -48 + ^
STACK CFI 2017c .cfa: sp 48 +
STACK CFI 20188 .cfa: sp 0 +
STACK CFI 2018c .cfa: sp 48 +
STACK CFI 20198 .cfa: sp 0 +
STACK CFI INIT 2019c 4 .cfa: sp 0 +
STACK CFI INIT 202f4 34 .cfa: sp 0 +
STACK CFI 202f8 .cfa: sp 16 +
STACK CFI 202fc .cfa: x29 16 + .ra: .cfa -8 + ^ x29: .cfa -16 + ^
STACK CFI INIT 20454 80 .cfa: sp 0 +
STACK CFI 20458 .cfa: sp 48 +
STACK CFI 20464 .cfa: x29 48 + x19: .cfa -8 + ^ x20: .cfa -16 + ^ x21: .cfa -32 + ^ .ra: .cfa -40 + ^ x29: .cfa -48 + ^
STACK CFI 204c4 .cfa: sp 48 +
STACK CFI 204d0 .cfa: sp 0 +
STACK CFI INIT 204d4 24 .cfa: sp 0 +
STACK CFI 204d8 .cfa: sp 32 +
STACK CFI 204e0 .cfa: x29 32 + x19: .cfa -16 + ^ .ra: .cfa -24 + ^ x29: .cfa -32 + ^
STACK CFI 204ec .cfa: sp 32 +
STACK CFI 204f4 .cfa: sp 0 +
STACK CFI INIT 209f0 148 .cfa: sp 0 +
STACK CFI 209f4 .cfa: sp 48 +
STACK CFI 20a00 .cfa: x29 48 + x19: .cfa -8 + ^ x20: .cfa -16 + ^ x21: .cfa -32 + ^ .ra: .cfa -40 + ^ x29: .cfa -48 + ^
STACK CFI 20b28 .cfa: sp 48 +
STACK CFI 20b34 .cfa: sp 0 +
STACK CFI INIT 20b38 68 .cfa: sp 0 +
STACK CFI 20b3c .cfa: sp 32 +
STACK CFI 20b44 .cfa: x29 32 + x19: .cfa -8 + ^ x20: .cfa -16 + ^ .ra: .cfa -24 + ^ x29: .cfa -32 + ^
STACK CFI 20b5c .cfa: sp 32 +
STACK CFI 20b64 .cfa: sp 0 +
STACK CFI 20b68 .cfa: x29 32 +
STACK CFI 20b94 .cfa: sp 32 +
STACK CFI 20b9c .cfa: sp 0 +
STACK CFI INIT 20ba0 14 .cfa: sp 0 +
STACK CFI 20ba4 .cfa: sp 16 +
STACK CFI 20ba8 .cfa: x29 16 + .ra: .cfa -8 + ^ x29: .cfa -16 + ^
STACK CFI INIT 20bb4 4 .cfa: sp 0 +
STACK CFI INIT 20bb8 14 .cfa: sp 0 +
STACK CFI INIT 20bcc 84 .cfa: sp 0 +
STACK CFI 20bd4 .cfa: sp 32 +
STACK CFI 20bdc .cfa: x29 32 + x19: .cfa -8 + ^ x20: .cfa -16 + ^ .ra: .cfa -24 + ^ x29: .cfa -32 + ^
STACK CFI 20c1c .cfa: sp 32 +
STACK CFI 20c24 .cfa: sp 0 +
STACK CFI 20c2c .cfa: x29 32 +
STACK CFI INIT 20c50 94 .cfa: sp 0 +
STACK CFI 20c54 .cfa: sp 32 +
STACK CFI 20c5c .cfa: x29 32 + x19: .cfa -8 + ^ x20: .cfa -16 + ^ .ra: .cfa -24 + ^ x29: .cfa -32 + ^
STACK CFI 20cd8 .cfa: sp 32 +
STACK CFI 20ce0 .cfa: sp 0 +
STACK CFI INIT 20ce4 50 .cfa: sp 0 +
STACK CFI 20ce8 .cfa: sp 32 +
STACK CFI 20cf0 .cfa: x29 32 + x19: .cfa -16 + ^ .ra: .cfa -24 + ^ x29: .cfa -32 + ^
STACK CFI 20d08 .cfa: sp 32 +
STACK CFI 20d10 .cfa: sp 0 +
STACK CFI 20d14 .cfa: x29 32 +
STACK CFI 20d28 .cfa: sp 32 +
STACK CFI 20d30 .cfa: sp 0 +
STACK CFI INIT 20d34 64 .cfa: sp 0 +
STACK CFI 20d38 .cfa: sp 32 +
STACK CFI 20d40 .cfa: x29 32 + x19: .cfa -16 + ^ .ra: .cfa -24 + ^ x29: .cfa -32 + ^
STACK CFI 20d6c .cfa: sp 32 +
STACK CFI 20d74 .cfa: sp 0 +
STACK CFI 20d78 .cfa: x29 32 +
STACK CFI 20d8c .cfa: sp 32 +
STACK CFI 20d94 .cfa: sp 0 +
STACK CFI INIT 20fb0 4 .cfa: sp 0 +
STACK CFI INIT 20fb4 4 .cfa: sp 0 +
STACK CFI INIT 20fb8 34 .cfa: sp 0 +
STACK CFI 20fbc .cfa: sp 32 +
STACK CFI 20fc4 .cfa: x29 32 + x19: .cfa -16 + ^ .ra: .cfa -24 + ^ x29: .cfa -32 + ^
STACK CFI 20fe0 .cfa: sp 32 +
STACK CFI 20fe8 .cfa: sp 0 +
STACK CFI INIT 20fec 14 .cfa: sp 0 +
STACK CFI INIT 21000 4 .cfa: sp 0 +
STACK CFI INIT 21004 4 .cfa: sp 0 +
STACK CFI INIT 21484 1c .cfa: sp 0 +
STACK CFI INIT 214a0 c .cfa: sp 0 +
STACK CFI INIT 214ac 50 .cfa: sp 0 +
STACK CFI 214b0 .cfa: sp 32 +
STACK CFI 214b8 .cfa: x29 32 + x19: .cfa -16 + ^ .ra: .cfa -24 + ^ x29: .cfa -32 + ^
STACK CFI 214d0 .cfa: sp 32 +
STACK CFI 214d8 .cfa: sp 0 +
STACK CFI 214dc .cfa: x29 32 +
STACK CFI 214f0 .cfa: sp 32 +
STACK CFI 214f8 .cfa: sp 0 +
STACK CFI INIT 214fc 4 .cfa: sp 0 +
STACK CFI INIT 216ac 9c .cfa: sp 0 +
STACK CFI 216b0 .cfa: sp 32 +
STACK CFI 216b8 .cfa: x29 32 + x19: .cfa -8 + ^ x20: .cfa -16 + ^ .ra: .cfa -24 + ^ x29: .cfa -32 + ^
STACK CFI 2173c .cfa: sp 32 +
STACK CFI 21744 .cfa: sp 0 +
STACK CFI INIT 21748 a4 .cfa: sp 0 +
STACK CFI 2174c .cfa: sp 32 +
STACK CFI 21754 .cfa: x29 32 + x19: .cfa -8 + ^ x20: .cfa -16 + ^ .ra: .cfa -24 + ^ x29: .cfa -32 + ^
STACK CFI 217e0 .cfa: sp 32 +
STACK CFI 217e8 .cfa: sp 0 +
STACK CFI INIT 217ec 50 .cfa: sp 0 +
STACK CFI 217f0 .cfa: sp 32 +
STACK CFI 217f8 .cfa: x29 32 + x19: .cfa -16 + ^ .ra: .cfa -24 + ^ x29: .cfa -32 + ^
STACK CFI 21810 .cfa: sp 32 +
STACK CFI 21818 .cfa: sp 0 +
STACK CFI 2181c .cfa: x29 32 +
STACK CFI 21830 .cfa: sp 32 +
STACK CFI 21838 .cfa: sp 0 +
STACK CFI INIT 2183c 5c .cfa: sp 0 +
STACK CFI 21840 .cfa: sp 32 +
STACK CFI 21848 .cfa: x29 32 + x19: .cfa -16 + ^ .ra: .cfa -24 + ^ x29: .cfa -32 + ^
STACK CFI 2186c .cfa: sp 32 +
STACK CFI 21874 .cfa: sp 0 +
STACK CFI 21878 .cfa: x29 32 +
STACK CFI 2188c .cfa: sp 32 +
STACK CFI 21894 .cfa: sp 0 +
STACK CFI INIT 21898 6c .cfa: sp 0 +
STACK CFI 2189c .cfa: sp 32 +
STACK CFI 218a4 .cfa: x29 32 + x19: .cfa -8 + ^ x20: .cfa -16 + ^ .ra: .cfa -24 + ^ x29: .cfa -32 + ^
STACK CFI 218d0 .cfa: sp 32 +
STACK CFI 218d8 .cfa: sp 0 +
STACK CFI 218dc .cfa: x29 32 +
STACK CFI 218f8 .cfa: sp 32 +
STACK CFI 21900 .cfa: sp 0 +
STACK CFI INIT 21904 58 .cfa: sp 0 +
STACK CFI 21908 .cfa: sp 32 +
STACK CFI 21910 .cfa: x29 32 + x19: .cfa -8 + ^ x20: .cfa -16 + ^ .ra: .cfa -24 + ^ x29: .cfa -32 + ^
STACK CFI 21950 .cfa: sp 32 +
STACK CFI 21958 .cfa: sp 0 +
STACK CFI INIT 2195c 4c .cfa: sp 0 +
STACK CFI 21960 .cfa: sp 32 +
STACK CFI 21968 .cfa: x29 32 + x19: .cfa -8 + ^ x20: .cfa -16 + ^ .ra: .cfa -24 + ^ x29: .cfa -32 + ^
STACK CFI 2199c .cfa: sp 32 +
STACK CFI 219a4 .cfa: sp 0 +
STACK CFI INIT 219a8 50 .cfa: sp 0 +
STACK CFI 219ac .cfa: sp 32 +
STACK CFI 219b4 .cfa: x29 32 + x19: .cfa -16 + ^ .ra: .cfa -24 + ^ x29: .cfa -32 + ^
STACK CFI 219cc .cfa: sp 32 +
STACK CFI 219d4 .cfa: sp 0 +
STACK CFI 219d8 .cfa: x29 32 +
STACK CFI 219ec .cfa: sp 32 +
STACK CFI 219f4 .cfa: sp 0 +
STACK CFI INIT 219f8 60 .cfa: sp 0 +
STACK CFI 219fc .cfa: sp 32 +
STACK CFI 21a04 .cfa: x29 32 + x19: .cfa -8 + ^ x20: .cfa -16 + ^ .ra: .cfa -24 + ^ x29: .cfa -32 + ^
STACK CFI 21a24 .cfa: sp 32 +
STACK CFI 21a2c .cfa: sp 0 +
STACK CFI 21a30 .cfa: x29 32 +
STACK CFI 21a4c .cfa: sp 32 +
STACK CFI 21a54 .cfa: sp 0 +
STACK CFI INIT 21c28 1c .cfa: sp 0 +
STACK CFI INIT 21c44 c .cfa: sp 0 +
STACK CFI INIT 21c50 60 .cfa: sp 0 +
STACK CFI 21c54 .cfa: sp 32 +
STACK CFI 21c5c .cfa: x29 32 + x19: .cfa -8 + ^ x20: .cfa -16 + ^ .ra: .cfa -24 + ^ x29: .cfa -32 + ^
STACK CFI 21c7c .cfa: sp 32 +
STACK CFI 21c84 .cfa: sp 0 +
STACK CFI 21c88 .cfa: x29 32 +
STACK CFI 21ca4 .cfa: sp 32 +
STACK CFI 21cac .cfa: sp 0 +
STACK CFI INIT 21cb0 70 .cfa: sp 0 +
STACK CFI 21cb4 .cfa: sp 32 +
STACK CFI 21cbc .cfa: x29 32 + x19: .cfa -8 + ^ x20: .cfa -16 + ^ .ra: .cfa -24 + ^ x29: .cfa -32 + ^
STACK CFI 21ce4 .cfa: sp 32 +
STACK CFI 21cec .cfa: sp 0 +
STACK CFI 21cf0 .cfa: x29 32 +
STACK CFI 21d14 .cfa: sp 32 +
STACK CFI 21d1c .cfa: sp 0 +
STACK CFI INIT 21d20 5c .cfa: sp 0 +
STACK CFI 21d24 .cfa: sp 32 +
STACK CFI 21d2c .cfa: x29 32 + x19: .cfa -16 + ^ .ra: .cfa -24 + ^ x29: .cfa -32 + ^
STACK CFI 21d50 .cfa: sp 32 +
STACK CFI 21d58 .cfa: sp 0 +
STACK CFI 21d5c .cfa: x29 32 +
STACK CFI 21d70 .cfa: sp 32 +
STACK CFI 21d78 .cfa: sp 0 +
STACK CFI INIT 21d7c 6c .cfa: sp 0 +
STACK CFI 21d80 .cfa: sp 32 +
STACK CFI 21d88 .cfa: x29 32 + x19: .cfa -8 + ^ x20: .cfa -16 + ^ .ra: .cfa -24 + ^ x29: .cfa -32 + ^
STACK CFI 21db4 .cfa: sp 32 +
STACK CFI 21dbc .cfa: sp 0 +
STACK CFI 21dc0 .cfa: x29 32 +
STACK CFI 21ddc .cfa: sp 32 +
STACK CFI 21de4 .cfa: sp 0 +
STACK CFI INIT 21de8 58 .cfa: sp 0 +
STACK CFI 21dec .cfa: sp 32 +
STACK CFI 21df4 .cfa: x29 32 + x19: .cfa -8 + ^ x20: .cfa -16 + ^ .ra: .cfa -24 + ^ x29: .cfa -32 + ^
STACK CFI 21e34 .cfa: sp 32 +
STACK CFI 21e3c .cfa: sp 0 +
STACK CFI INIT 21e40 4c .cfa: sp 0 +
STACK CFI 21e44 .cfa: sp 32 +
STACK CFI 21e4c .cfa: x29 32 + x19: .cfa -8 + ^ x20: .cfa -16 + ^ .ra: .cfa -24 + ^ x29: .cfa -32 + ^
STACK CFI 21e80 .cfa: sp 32 +
STACK CFI 21e88 .cfa: sp 0 +
STACK CFI INIT 21e8c 50 .cfa: sp 0 +
STACK CFI 21e90 .cfa: sp 32 +
STACK CFI 21e98 .cfa: x29 32 + x19: .cfa -16 + ^ .ra: .cfa -24 + ^ x29: .cfa -32 + ^
STACK CFI 21eb0 .cfa: sp 32 +
STACK CFI 21eb8 .cfa: sp 0 +
STACK CFI 21ebc .cfa: x29 32 +
STACK CFI 21ed0 .cfa: sp 32 +
STACK CFI 21ed8 .cfa: sp 0 +
STACK CFI INIT 21edc 60 .cfa: sp 0 +
STACK CFI 21ee0 .cfa: sp 32 +
STACK CFI 21ee8 .cfa: x29 32 + x19: .cfa -8 + ^ x20: .cfa -16 + ^ .ra: .cfa -24 + ^ x29: .cfa -32 + ^
STACK CFI 21f08 .cfa: sp 32 +
STACK CFI 21f10 .cfa: sp 0 +
STACK CFI 21f14 .cfa: x29 32 +
STACK CFI 21f30 .cfa: sp 32 +
STACK CFI 21f38 .cfa: sp 0 +
STACK CFI INIT 22100 1c .cfa: sp 0 +
STACK CFI INIT 2211c c .cfa: sp 0 +
STACK CFI INIT 22128 f8 .cfa: sp 0 +
STACK CFI 2212c .cfa: sp 64 +
STACK CFI 2213c .cfa: x29 64 + x19: .cfa -8 + ^ x20: .cfa -16 + ^ x21: .cfa -24 + ^ x22: .cfa -32 + ^ x23: .cfa -48 + ^ .ra: .cfa -56 + ^ x29: .cfa -64 + ^
STACK CFI 22198 .cfa: sp 64 +
STACK CFI 221a8 .cfa: sp 0 +
STACK CFI 221ac .cfa: x29 64 +
STACK CFI 221c8 .cfa: sp 64 +
STACK CFI 221d8 .cfa: sp 0 +
STACK CFI 221dc .cfa: x29 64 +
STACK CFI 2220c .cfa: sp 64 +
STACK CFI 2221c .cfa: sp 0 +
STACK CFI INIT 22220 34 .cfa: sp 0 +
STACK CFI 22224 .cfa: sp 16 +
STACK CFI 22228 .cfa: x29 16 + .ra: .cfa -8 + ^ x29: .cfa -16 + ^
STACK CFI INIT 22254 24 .cfa: sp 0 +
STACK CFI 22258 .cfa: sp 32 +
STACK CFI 22260 .cfa: x29 32 + x19: .cfa -16 + ^ .ra: .cfa -24 + ^ x29: .cfa -32 + ^
STACK CFI 2226c .cfa: sp 32 +
STACK CFI 22274 .cfa: sp 0 +
STACK CFI INIT 22278 4 .cfa: sp 0 +
STACK CFI INIT 2227c 4 .cfa: sp 0 +
STACK CFI INIT 22280 40 .cfa: sp 0 +
STACK CFI 22284 .cfa: sp 32 +
STACK CFI 2228c .cfa: x29 32 + x19: .cfa -16 + ^ .ra: .cfa -24 + ^ x29: .cfa -32 + ^
STACK CFI 222b4 .cfa: sp 32 +
STACK CFI 222bc .cfa: sp 0 +
STACK CFI INIT 222c0 20 .cfa: sp 0 +
STACK CFI INIT 222e0 4 .cfa: sp 0 +
STACK CFI INIT 222e4 4 .cfa: sp 0 +
STACK CFI INIT 24544 1c .cfa: sp 0 +
STACK CFI INIT 24560 c .cfa: sp 0 +
STACK CFI INIT 24588 130 .cfa: sp 0 +
STACK CFI 2458c .cfa: sp 80 +
STACK CFI 2459c .cfa: x29 48 + x19: .cfa -8 + ^ x20: .cfa -16 + ^ x21: .cfa -24 + ^ x22: .cfa -32 + ^ .ra: .cfa -40 + ^ x29: .cfa -48 + ^
STACK CFI 246a0 .cfa: sp 80 +
STACK CFI 246b0 .cfa: sp 0 +
STACK CFI 246b4 .cfa: x29 48 +
STACK CFI INIT 24b84 7c .cfa: sp 0 +
STACK CFI 24b88 .cfa: sp 48 +
STACK CFI 24b94 .cfa: x29 48 + x19: .cfa -8 + ^ x20: .cfa -16 + ^ x21: .cfa -32 + ^ .ra: .cfa -40 + ^ x29: .cfa -48 + ^
STACK CFI 24bf0 .cfa: sp 48 +
STACK CFI 24bfc .cfa: sp 0 +
STACK CFI INIT 24c00 80 .cfa: sp 0 +
STACK CFI 24c04 .cfa: sp 48 +
STACK CFI 24c10 .cfa: x29 48 + x19: .cfa -8 + ^ x20: .cfa -16 + ^ x21: .cfa -32 + ^ .ra: .cfa -40 + ^ x29: .cfa -48 + ^
STACK CFI 24c30 .cfa: sp 48 +
STACK CFI 24c3c .cfa: sp 0 +
STACK CFI 24c40 .cfa: x29 48 +
STACK CFI 24c60 .cfa: sp 48 +
STACK CFI 24c6c .cfa: sp 0 +
STACK CFI 24c70 .cfa: sp 48 +
STACK CFI 24c7c .cfa: sp 0 +
STACK CFI INIT 24c80 14 .cfa: sp 0 +
STACK CFI 24c84 .cfa: sp 16 +
STACK CFI 24c88 .cfa: x29 16 + .ra: .cfa -8 + ^ x29: .cfa -16 + ^
STACK CFI INIT 24c94 14 .cfa: sp 0 +
STACK CFI 24c98 .cfa: sp 16 +
STACK CFI 24c9c .cfa: x29 16 + .ra: .cfa -8 + ^ x29: .cfa -16 + ^
STACK CFI INIT 24ca8 c .cfa: sp 0 +
STACK CFI 24cac .cfa: sp 16 +
STACK CFI 24cb0 .cfa: x29 16 + .ra: .cfa -8 + ^ x29: .cfa -16 + ^
STACK CFI INIT 24d04 30 .cfa: sp 0 +
STACK CFI 24d08 .cfa: sp 32 +
STACK CFI 24d10 .cfa: x29 32 + x19: .cfa -16 + ^ .ra: .cfa -24 + ^ x29: .cfa -32 + ^
STACK CFI 24d28 .cfa: sp 32 +
STACK CFI 24d30 .cfa: sp 0 +
STACK CFI INIT 24d34 c .cfa: sp 0 +
STACK CFI 24d38 .cfa: sp 16 +
STACK CFI 24d3c .cfa: x29 16 + .ra: .cfa -8 + ^ x29: .cfa -16 + ^
STACK CFI INIT 24d40 4 .cfa: sp 0 +
STACK CFI INIT 24d44 4 .cfa: sp 0 +
STACK CFI INIT 24d48 38 .cfa: sp 0 +
STACK CFI 24d4c .cfa: sp 32 +
STACK CFI 24d54 .cfa: x29 32 + x19: .cfa -16 + ^ .ra: .cfa -24 + ^ x29: .cfa -32 + ^
STACK CFI 24d74 .cfa: sp 32 +
STACK CFI 24d7c .cfa: sp 0 +
STACK CFI INIT 24d80 18 .cfa: sp 0 +
STACK CFI INIT 24d98 4 .cfa: sp 0 +
STACK CFI INIT 24d9c 4 .cfa: sp 0 +
STACK CFI INIT 24da0 10 .cfa: sp 0 +
STACK CFI INIT 24db0 1c .cfa: sp 0 +
STACK CFI INIT 24dcc c .cfa: sp 0 +
STACK CFI INIT 24dd8 14 .cfa: sp 0 +
STACK CFI 24ddc .cfa: sp 16 +
STACK CFI 24de0 .cfa: x29 16 + .ra: .cfa -8 + ^ x29: .cfa -16 + ^
STACK CFI INIT 24dec 90 .cfa: sp 0 +
STACK CFI 24df0 .cfa: sp 48 +
STACK CFI 24dfc .cfa: x29 48 + x19: .cfa -8 + ^ x20: .cfa -16 + ^ x21: .cfa -24 + ^ x22: .cfa -32 + ^ .ra: .cfa -40 + ^ x29: .cfa -48 + ^
STACK CFI 24e04 .cfa: sp 48 +
STACK CFI 24e10 .cfa: sp 0 +
STACK CFI 24e14 .cfa: x29 48 +
STACK CFI 24e38 .cfa: sp 48 +
STACK CFI 24e44 .cfa: sp 0 +
STACK CFI 24e48 .cfa: x29 48 +
STACK CFI 24e6c .cfa: sp 48 +
STACK CFI 24e78 .cfa: sp 0 +
STACK CFI INIT 24e7c 14 .cfa: sp 0 +
STACK CFI 24e80 .cfa: sp 16 +
STACK CFI 24e84 .cfa: x29 16 + .ra: .cfa -8 + ^ x29: .cfa -16 + ^
STACK CFI INIT 24e90 4 .cfa: sp 0 +
STACK CFI INIT 24e94 4 .cfa: sp 0 +
STACK CFI INIT 24e98 34 .cfa: sp 0 +
STACK CFI 24e9c .cfa: sp 32 +
STACK CFI 24ea4 .cfa: x29 32 + x19: .cfa -16 + ^ .ra: .cfa -24 + ^ x29: .cfa -32 + ^
STACK CFI 24ec0 .cfa: sp 32 +
STACK CFI 24ec8 .cfa: sp 0 +
STACK CFI INIT 24ecc 14 .cfa: sp 0 +
STACK CFI INIT 24ee0 4 .cfa: sp 0 +
STACK CFI INIT 24ee4 4 .cfa: sp 0 +
STACK CFI INIT 24ee8 18 .cfa: sp 0 +
STACK CFI INIT 24f00 1c .cfa: sp 0 +
STACK CFI INIT 24f1c c .cfa: sp 0 +
STACK CFI INIT 24f28 1b0 .cfa: sp 0 +
STACK CFI INIT 2583c 3c .cfa: sp 0 +
STACK CFI 25840 .cfa: sp 32 +
STACK CFI 25848 .cfa: x29 32 + x19: .cfa -16 + ^ .ra: .cfa -24 + ^ x29: .cfa -32 + ^
STACK CFI 25854 .cfa: sp 32 +
STACK CFI 2585c .cfa: sp 0 +
STACK CFI 25860 .cfa: x29 32 +
STACK CFI 2586c .cfa: sp 32 +
STACK CFI 25874 .cfa: sp 0 +
STACK CFI INIT 25a98 64 .cfa: sp 0 +
STACK CFI 25a9c .cfa: sp 32 +
STACK CFI 25aa4 .cfa: x29 32 + x19: .cfa -16 + ^ .ra: .cfa -24 + ^ x29: .cfa -32 + ^
STACK CFI 25ad0 .cfa: sp 32 +
STACK CFI 25ad8 .cfa: sp 0 +
STACK CFI 25adc .cfa: x29 32 +
STACK CFI 25af0 .cfa: sp 32 +
STACK CFI 25af8 .cfa: sp 0 +
STACK CFI INIT 263fc 4 .cfa: sp 0 +
STACK CFI INIT 26400 14 .cfa: sp 0 +
STACK CFI INIT b67c bd4 .cfa: sp 0 +
STACK CFI b680 .cfa: sp 240 +
STACK CFI b69c .cfa: x29 96 + x19: .cfa -8 + ^ x20: .cfa -16 + ^ x21: .cfa -24 + ^ x22: .cfa -32 + ^ x23: .cfa -40 + ^ x24: .cfa -48 + ^ x25: .cfa -56 + ^ x26: .cfa -64 + ^ x27: .cfa -72 + ^ x28: .cfa -80 + ^ .ra: .cfa -88 + ^ x29: .cfa -96 + ^
STACK CFI ba78 .cfa: sp 240 +
STACK CFI ba94 .cfa: sp 0 +
STACK CFI ba98 .cfa: x29 96 +
STACK CFI c0f8 .cfa: sp 240 +
STACK CFI c114 .cfa: sp 0 +
STACK CFI c118 .cfa: x29 96 +
STACK CFI INIT 1ed80 50 .cfa: sp 0 +
STACK CFI 1ed84 .cfa: sp 32 +
STACK CFI 1ed8c .cfa: x29 32 + x19: .cfa -8 + ^ x20: .cfa -16 + ^ .ra: .cfa -24 + ^ x29: .cfa -32 + ^
STACK CFI INIT 1f184 868 .cfa: sp 0 +
STACK CFI 1f188 .cfa: sp 128 +
STACK CFI 1f1a4 .cfa: x29 96 + x19: .cfa -8 + ^ x20: .cfa -16 + ^ x21: .cfa -24 + ^ x22: .cfa -32 + ^ x23: .cfa -40 + ^ x24: .cfa -48 + ^ x25: .cfa -56 + ^ x26: .cfa -64 + ^ x27: .cfa -72 + ^ x28: .cfa -80 + ^ .ra: .cfa -88 + ^ x29: .cfa -96 + ^
STACK CFI 1f9a0 .cfa: sp 128 +
STACK CFI 1f9bc .cfa: sp 0 +
STACK CFI 1f9c0 .cfa: x29 96 +
STACK CFI INIT 1fc20 43c .cfa: sp 0 +
STACK CFI 1fc24 .cfa: sp 256 +
STACK CFI 1fc40 .cfa: x29 96 + x19: .cfa -8 + ^ x20: .cfa -16 + ^ x21: .cfa -24 + ^ x22: .cfa -32 + ^ x23: .cfa -40 + ^ x24: .cfa -48 + ^ x25: .cfa -56 + ^ x26: .cfa -64 + ^ x27: .cfa -72 + ^ x28: .cfa -80 + ^ .ra: .cfa -88 + ^ x29: .cfa -96 + ^
STACK CFI 1ff30 .cfa: sp 256 +
STACK CFI 1ff4c .cfa: sp 0 +
STACK CFI 1ff50 .cfa: x29 96 +
STACK CFI INIT 200ac 74 .cfa: sp 0 +
STACK CFI 200b0 .cfa: sp 48 +
STACK CFI 200bc .cfa: x29 32 + x19: .cfa -8 + ^ x20: .cfa -16 + ^ .ra: .cfa -24 + ^ x29: .cfa -32 + ^
STACK CFI 20108 .cfa: sp 48 +
STACK CFI 20114 .cfa: sp 0 +
STACK CFI 20118 .cfa: x29 32 +
STACK CFI INIT 201a0 154 .cfa: sp 0 +
STACK CFI 201a4 .cfa: sp 384 +
STACK CFI 201b8 .cfa: x29 64 + x19: .cfa -8 + ^ x20: .cfa -16 + ^ x21: .cfa -24 + ^ x22: .cfa -32 + ^ x23: .cfa -40 + ^ x28: .cfa -48 + ^ .ra: .cfa -56 + ^ x29: .cfa -64 + ^
STACK CFI 2029c .cfa: sp 384 +
STACK CFI 202b0 .cfa: sp 0 +
STACK CFI 202b4 .cfa: x29 64 +
STACK CFI INIT 20328 12c .cfa: sp 0 +
STACK CFI 2032c .cfa: sp 80 +
STACK CFI 20340 .cfa: x29 80 + x19: .cfa -8 + ^ x20: .cfa -16 + ^ x21: .cfa -24 + ^ x22: .cfa -32 + ^ x23: .cfa -40 + ^ x24: .cfa -48 + ^ x25: .cfa -56 + ^ x26: .cfa -64 + ^ .ra: .cfa -72 + ^ x29: .cfa -80 + ^
STACK CFI 20408 .cfa: sp 80 +
STACK CFI 2041c .cfa: sp 0 +
STACK CFI 20420 .cfa: x29 80 +
STACK CFI INIT 204f8 1a4 .cfa: sp 0 +
STACK CFI 204fc .cfa: sp 112 +
STACK CFI 20514 .cfa: x29 80 + x19: .cfa -8 + ^ x20: .cfa -16 + ^ x21: .cfa -24 + ^ x22: .cfa -32 + ^ x23: .cfa -40 + ^ x24: .cfa -48 + ^ x25: .cfa -56 + ^ x26: .cfa -64 + ^ .ra: .cfa -72 + ^ x29: .cfa -80 + ^
STACK CFI 20604 .cfa: sp 112 +
STACK CFI 2061c .cfa: sp 0 +
STACK CFI 20620 .cfa: x29 80 +
STACK CFI INIT 2069c 1dc .cfa: sp 0 +
STACK CFI 206a0 .cfa: sp 128 +
STACK CFI 206bc .cfa: x29 96 + x19: .cfa -8 + ^ x20: .cfa -16 + ^ x21: .cfa -24 + ^ x22: .cfa -32 + ^ x23: .cfa -40 + ^ x24: .cfa -48 + ^ x25: .cfa -56 + ^ x26: .cfa -64 + ^ x27: .cfa -80 + ^ .ra: .cfa -88 + ^ x29: .cfa -96 + ^
STACK CFI 20828 .cfa: sp 128 +
STACK CFI 20844 .cfa: sp 0 +
STACK CFI 20848 .cfa: x29 96 +
STACK CFI INIT 20878 178 .cfa: sp 0 +
STACK CFI 2087c .cfa: sp 80 +
STACK CFI 20890 .cfa: x29 80 + x19: .cfa -8 + ^ x20: .cfa -16 + ^ x21: .cfa -24 + ^ x22: .cfa -32 + ^ x23: .cfa -40 + ^ x24: .cfa -48 + ^ x25: .cfa -64 + ^ .ra: .cfa -72 + ^ x29: .cfa -80 + ^
STACK CFI 209bc .cfa: sp 80 +
STACK CFI 209d0 .cfa: sp 0 +
STACK CFI 209d4 .cfa: x29 80 +
STACK CFI INIT 20d98 218 .cfa: sp 0 +
STACK CFI 20d9c .cfa: sp 144 +
STACK CFI 20da8 .cfa: x29 32 + x19: .cfa -8 + ^ x20: .cfa -16 + ^ .ra: .cfa -24 + ^ x29: .cfa -32 + ^
STACK CFI 20ef8 .cfa: sp 144 +
STACK CFI 20f04 .cfa: sp 0 +
STACK CFI 20f08 .cfa: x29 32 +
STACK CFI INIT 21008 47c .cfa: sp 0 +
STACK CFI 2100c .cfa: sp 256 +
STACK CFI 21028 .cfa: x29 96 + x19: .cfa -8 + ^ x20: .cfa -16 + ^ x21: .cfa -24 + ^ x22: .cfa -32 + ^ x23: .cfa -40 + ^ x24: .cfa -48 + ^ x25: .cfa -56 + ^ x26: .cfa -64 + ^ x27: .cfa -72 + ^ x28: .cfa -80 + ^ .ra: .cfa -88 + ^ x29: .cfa -96 + ^
STACK CFI 2134c .cfa: sp 256 +
STACK CFI 21368 .cfa: sp 0 +
STACK CFI 2136c .cfa: x29 96 +
STACK CFI INIT 21500 1ac .cfa: sp 0 +
STACK CFI 21504 .cfa: sp 128 +
STACK CFI 21514 .cfa: x29 48 + x19: .cfa -8 + ^ x20: .cfa -16 + ^ x21: .cfa -24 + ^ x22: .cfa -32 + ^ .ra: .cfa -40 + ^ x29: .cfa -48 + ^
STACK CFI 21630 .cfa: sp 128 +
STACK CFI 21640 .cfa: sp 0 +
STACK CFI 21644 .cfa: x29 48 +
STACK CFI INIT 21a58 1d0 .cfa: sp 0 +
STACK CFI 21a5c .cfa: sp 128 +
STACK CFI 21a70 .cfa: x29 64 + x19: .cfa -8 + ^ x20: .cfa -16 + ^ x21: .cfa -24 + ^ x22: .cfa -32 + ^ x23: .cfa -48 + ^ .ra: .cfa -56 + ^ x29: .cfa -64 + ^
STACK CFI 21be8 .cfa: sp 128 +
STACK CFI 21bfc .cfa: sp 0 +
STACK CFI 21c00 .cfa: x29 64 +
STACK CFI INIT 21f3c 1c4 .cfa: sp 0 +
STACK CFI 21f40 .cfa: sp 112 +
STACK CFI 21f50 .cfa: x29 48 + x19: .cfa -8 + ^ x20: .cfa -16 + ^ x21: .cfa -24 + ^ x22: .cfa -32 + ^ .ra: .cfa -40 + ^ x29: .cfa -48 + ^
STACK CFI 220c4 .cfa: sp 112 +
STACK CFI 220d4 .cfa: sp 0 +
STACK CFI 220d8 .cfa: x29 48 +
STACK CFI INIT 222e8 225c .cfa: sp 0 +
STACK CFI 222ec .cfa: sp 160 +
STACK CFI 22314 .cfa: x29 96 + x19: .cfa -8 + ^ x20: .cfa -16 + ^ x21: .cfa -24 + ^ x22: .cfa -32 + ^ x23: .cfa -40 + ^ x24: .cfa -48 + ^ x25: .cfa -56 + ^ x26: .cfa -64 + ^ x27: .cfa -72 + ^ x28: .cfa -80 + ^ .ra: .cfa -88 + ^ x29: .cfa -96 + ^ v8: .cfa -104 + ^ v9: .cfa -112 + ^ v10: .cfa -120 + ^ v11: .cfa -128 + ^ v12: .cfa -136 + ^ v13: .cfa -144 + ^ v14: .cfa -152 + ^ v15: .cfa -160 + ^
STACK CFI 23f18 .cfa: sp 160 +
STACK CFI 23f40 .cfa: sp 0 +
STACK CFI 23f44 .cfa: x29 96 +
STACK CFI INIT 2456c 1c .cfa: sp 0 +
STACK CFI 24570 .cfa: sp 16 +
STACK CFI 24574 .cfa: x29 16 + .ra: .cfa -8 + ^ x29: .cfa -16 + ^
STACK CFI 2457c .cfa: sp 16 +
STACK CFI 24580 .cfa: sp 0 +
STACK CFI 24584 .cfa: x29 16 +
STACK CFI INIT 246b8 4cc .cfa: sp 0 +
STACK CFI 246bc .cfa: sp 320 +
STACK CFI 246d4 .cfa: x29 64 + x19: .cfa -8 + ^ x20: .cfa -16 + ^ x21: .cfa -24 + ^ x22: .cfa -32 + ^ x28: .cfa -48 + ^ .ra: .cfa -56 + ^ x29: .cfa -64 + ^ v8: .cfa -72 + ^ v9: .cfa -80 + ^
STACK CFI 24a10 .cfa: sp 320 +
STACK CFI 24a28 .cfa: sp 0 +
STACK CFI 24a2c .cfa: x29 64 +
STACK CFI INIT 24cb4 50 .cfa: sp 0 +
STACK CFI 24cb8 .cfa: sp 32 +
STACK CFI 24cc0 .cfa: x29 32 + x19: .cfa -8 + ^ x20: .cfa -16 + ^ .ra: .cfa -24 + ^ x29: .cfa -32 + ^
STACK CFI INIT 250d8 764 .cfa: sp 0 +
STACK CFI 250dc .cfa: sp 400 +
STACK CFI 250f8 .cfa: x29 96 + x19: .cfa -8 + ^ x20: .cfa -16 + ^ x21: .cfa -24 + ^ x22: .cfa -32 + ^ x23: .cfa -40 + ^ x24: .cfa -48 + ^ x25: .cfa -56 + ^ x26: .cfa -64 + ^ x27: .cfa -72 + ^ x28: .cfa -80 + ^ .ra: .cfa -88 + ^ x29: .cfa -96 + ^
STACK CFI 256bc .cfa: sp 400 +
STACK CFI 256d8 .cfa: sp 0 +
STACK CFI 256dc .cfa: x29 96 +
STACK CFI INIT 25878 134 .cfa: sp 0 +
STACK CFI 2587c .cfa: sp 80 +
STACK CFI 25888 .cfa: x29 32 + x19: .cfa -8 + ^ x20: .cfa -16 + ^ .ra: .cfa -24 + ^ x29: .cfa -32 + ^
STACK CFI 258b8 .cfa: sp 80 +
STACK CFI 258c4 .cfa: sp 0 +
STACK CFI 258c8 .cfa: x29 32 +
STACK CFI INIT 259ac 78 .cfa: sp 0 +
STACK CFI 259b0 .cfa: sp 32 +
STACK CFI 259b8 .cfa: x29 32 + x19: .cfa -8 + ^ x20: .cfa -16 + ^ .ra: .cfa -24 + ^ x29: .cfa -32 + ^
STACK CFI 259c4 .cfa: sp 32 +
STACK CFI 259cc .cfa: sp 0 +
STACK CFI 259d0 .cfa: x29 32 +
STACK CFI INIT 25a24 74 .cfa: sp 0 +
STACK CFI 25a28 .cfa: sp 48 +
STACK CFI 25a34 .cfa: x29 32 + x19: .cfa -8 + ^ x20: .cfa -16 + ^ .ra: .cfa -24 + ^ x29: .cfa -32 + ^
STACK CFI 25a80 .cfa: sp 48 +
STACK CFI 25a8c .cfa: sp 0 +
STACK CFI 25a90 .cfa: x29 32 +
STACK CFI INIT 25afc 1b8 .cfa: sp 0 +
STACK CFI 25b00 .cfa: sp 160 +
STACK CFI 25b1c .cfa: x29 72 + x19: .cfa -8 + ^ x20: .cfa -16 + ^ x21: .cfa -24 + ^ x22: .cfa -32 + ^ x23: .cfa -40 + ^ x24: .cfa -48 + ^ x25: .cfa -56 + ^ .ra: .cfa -64 + ^ x29: .cfa -72 + ^ v8: .cfa -80 + ^
STACK CFI 25ba0 .cfa: sp 160 +
STACK CFI 25bbc .cfa: sp 0 +
STACK CFI 25bc0 .cfa: x29 72 +
STACK CFI INIT 25cb4 16c .cfa: sp 0 +
STACK CFI 25cb8 .cfa: sp 64 +
STACK CFI 25cc8 .cfa: x29 48 + x19: .cfa -8 + ^ x20: .cfa -16 + ^ x21: .cfa -24 + ^ x22: .cfa -32 + ^ .ra: .cfa -40 + ^ x29: .cfa -48 + ^
STACK CFI 25dc0 .cfa: sp 64 +
STACK CFI 25dd0 .cfa: sp 0 +
STACK CFI 25dd4 .cfa: x29 48 +
STACK CFI INIT 25e20 ac .cfa: sp 0 +
STACK CFI 25e24 .cfa: sp 64 +
STACK CFI 25e34 .cfa: x29 48 + x19: .cfa -8 + ^ x20: .cfa -16 + ^ x21: .cfa -32 + ^ .ra: .cfa -40 + ^ x29: .cfa -48 + ^
STACK CFI 25e90 .cfa: sp 64 +
STACK CFI 25ea0 .cfa: sp 0 +
STACK CFI 25ea4 .cfa: x29 48 +
STACK CFI INIT 25ecc 168 .cfa: sp 0 +
STACK CFI 25ed0 .cfa: sp 144 +
STACK CFI 25ee4 .cfa: x29 64 + x19: .cfa -8 + ^ x20: .cfa -16 + ^ x21: .cfa -24 + ^ x22: .cfa -32 + ^ x23: .cfa -40 + ^ x24: .cfa -48 + ^ .ra: .cfa -56 + ^ x29: .cfa -64 + ^
STACK CFI 25f3c .cfa: sp 144 +
STACK CFI 25f50 .cfa: sp 0 +
STACK CFI 25f54 .cfa: x29 64 +
STACK CFI INIT 26034 10c .cfa: sp 0 +
STACK CFI 26038 .cfa: sp 64 +
STACK CFI 26048 .cfa: x29 48 + x19: .cfa -8 + ^ x20: .cfa -16 + ^ x21: .cfa -24 + ^ x22: .cfa -32 + ^ .ra: .cfa -40 + ^ x29: .cfa -48 + ^
STACK CFI 260f8 .cfa: sp 64 +
STACK CFI 26108 .cfa: sp 0 +
STACK CFI 2610c .cfa: x29 48 +
STACK CFI INIT 26140 154 .cfa: sp 0 +
STACK CFI 26144 .cfa: sp 384 +
STACK CFI 26158 .cfa: x29 64 + x19: .cfa -8 + ^ x20: .cfa -16 + ^ x21: .cfa -24 + ^ x22: .cfa -32 + ^ x23: .cfa -40 + ^ x28: .cfa -48 + ^ .ra: .cfa -56 + ^ x29: .cfa -64 + ^
STACK CFI 2623c .cfa: sp 384 +
STACK CFI 26250 .cfa: sp 0 +
STACK CFI 26254 .cfa: x29 64 +
STACK CFI INIT 26294 168 .cfa: sp 0 +
STACK CFI 26298 .cfa: sp 384 +
STACK CFI 262ac .cfa: x29 64 + x19: .cfa -8 + ^ x20: .cfa -16 + ^ x21: .cfa -24 + ^ x22: .cfa -32 + ^ x23: .cfa -40 + ^ x28: .cfa -48 + ^ .ra: .cfa -56 + ^ x29: .cfa -64 + ^
STACK CFI 263a4 .cfa: sp 384 +
STACK CFI 263b8 .cfa: sp 0 +
STACK CFI 263bc .cfa: x29 64 +
