MODULE Linux arm64 CE880A121DE886A7F782186D91AB424C0 ninkaz.editor_utils.android64.so
INFO CODE_ID 120A88CEE81DA786F782186D91AB424C53C86676
INFO GENERATOR mozilla/dump_syms 2.3.4
PUBLIC 33e90 0 __on_dlclose
PUBLIC 33ea0 0 __emutls_unregister_key
PUBLIC 33ea8 0 __on_dlclose_late
PUBLIC 33eb0 0 __atexit_handler_wrapper
PUBLIC 33ec4 0 atexit
PUBLIC 33ee0 0 pthread_atfork
PUBLIC 33ef0 0 __aarch64_ldadd8_acq_rel
PUBLIC 33f20 0 init_have_lse_atomics
PUBLIC 33fb8 0 __init_cpu_features_constructor
PUBLIC 34554 0 __init_cpu_features
PUBLIC 345e0 0 __aarch64_ldadd8_relax
PUBLIC 34610 0 ARGEditorPauseLayer::onAddRandomGroups(cocos2d::CCObject*)
PUBLIC 34a44 0 AddRandomGroupsPopup::setup(cocos2d::CCArray*)
PUBLIC 3573c 0 AddRandomGroupsPopup::onChangeInput(cocos2d::CCObject*)
PUBLIC 358c4 0 AddRandomGroupsPopup::onNextFree(cocos2d::CCObject*)
PUBLIC 3597c 0 AddRandomGroupsPopup::onAddGroup(cocos2d::CCObject*)
PUBLIC 37d10 0 AddRandomGroupsPopup::onApply(cocos2d::CCObject*)
PUBLIC 38d18 0 std::__ndk1::basic_regex<char, std::__ndk1::regex_traits<char> >::~basic_regex()
PUBLIC 38d78 0 AddRandomGroupsPopup::addGroupButton(short)
PUBLIC 390ac 0 AddRandomGroupsPopup::onRemoveGroup(cocos2d::CCObject*)
PUBLIC 392f4 0 geode::cocos::CCArrayExt<GameObject*, GameObject>::~CCArrayExt()
PUBLIC 39314 0 std::__ndk1::vector<std::__ndk1::vector<GameObject*, std::__ndk1::allocator<GameObject*> >, std::__ndk1::allocator<std::__ndk1::vector<GameObject*, std::__ndk1::allocator<GameObject*> > > >::~vector[abi:ne180000]()
PUBLIC 39390 0 cocos2d::CCCopying::copyWithZone(cocos2d::CCZone*)
PUBLIC 39398 0 AddRandomGroupsPopup::~AddRandomGroupsPopup()
PUBLIC 39450 0 AddRandomGroupsPopup::~AddRandomGroupsPopup()
PUBLIC 39510 0 geode::Popup<cocos2d::CCArray*>::registerWithTouchDispatcher()
PUBLIC 3953c 0 geode::Popup<cocos2d::CCArray*>::keyDown(cocos2d::enumKeyCodes)
PUBLIC 39564 0 cocos2d::CCLayerRGBA::setOpacityModifyRGB(bool)
PUBLIC 39568 0 cocos2d::CCLayerRGBA::isOpacityModifyRGB()
PUBLIC 39570 0 geode::Popup<cocos2d::CCArray*>::onClose(cocos2d::CCObject*)
PUBLIC 396b8 0 {virtual override thunk({offset(-320)}, AddRandomGroupsPopup::~AddRandomGroupsPopup())}
PUBLIC 39774 0 {virtual override thunk({offset(-320)}, AddRandomGroupsPopup::~AddRandomGroupsPopup())}
PUBLIC 39838 0 {virtual override thunk({offset(-344)}, geode::Popup<cocos2d::CCArray*>::keyDown(cocos2d::enumKeyCodes))}
PUBLIC 39864 0 cocos2d::CCKeyboardDelegate::keyUp(cocos2d::enumKeyCodes)
PUBLIC 39868 0 cocos2d::CCMouseDelegate::rightKeyDown()
PUBLIC 3986c 0 cocos2d::CCMouseDelegate::rightKeyUp()
PUBLIC 39870 0 cocos2d::CCMouseDelegate::scrollWheel(float, float)
PUBLIC 39874 0 {virtual override thunk({offset(-408)}, cocos2d::CCLayerRGBA::setOpacityModifyRGB(bool))}
PUBLIC 39878 0 {virtual override thunk({offset(-408)}, cocos2d::CCLayerRGBA::isOpacityModifyRGB())}
PUBLIC 39880 0 __cxx_global_var_init
PUBLIC 39d00 0 geode::modifier::ModifyBase<geode::modifier::ModifyDerive<ARGEditorPauseLayer, EditorPauseLayer> >::~ModifyBase()
PUBLIC 39d1c 0 std::__ndk1::basic_string<char, std::__ndk1::char_traits<char>, std::__ndk1::allocator<char> >::__throw_length_error[abi:ne180000]() const
PUBLIC 39d30 0 std::__ndk1::__throw_length_error[abi:ne180000](char const*)
PUBLIC 39d80 0 std::length_error::length_error[abi:ne180000](char const*)
PUBLIC 39db0 0 std::__throw_bad_array_new_length([abi:ne180000], void)
PUBLIC 39de4 0 __clang_call_terminate
PUBLIC 39df4 0 std::__ndk1::vector<short, std::__ndk1::allocator<short> >::__throw_length_error[abi:ne180000]() const
PUBLIC 39e08 0 std::__ndk1::shared_ptr<std::__ndk1::__empty_state<char> >::~shared_ptr[abi:ne180000]()
PUBLIC 39e58 0 std::__ndk1::basic_string<char, std::__ndk1::char_traits<char>, std::__ndk1::allocator<char> >::__throw_out_of_range[abi:ne180000]() const
PUBLIC 39e6c 0 std::__ndk1::__throw_out_of_range[abi:ne180000](char const*)
PUBLIC 39ebc 0 std::out_of_range::out_of_range[abi:ne180000](char const*)
PUBLIC 39eec 0 std::__ndk1::vector<GameObject*, std::__ndk1::allocator<GameObject*> >::__throw_length_error[abi:ne180000]() const
PUBLIC 39f00 0 std::__ndk1::__split_buffer<std::__ndk1::vector<GameObject*, std::__ndk1::allocator<GameObject*> >, std::__ndk1::allocator<std::__ndk1::vector<GameObject*, std::__ndk1::allocator<GameObject*> > >&>::~__split_buffer()
PUBLIC 39f70 0 std::__ndk1::vector<std::__ndk1::vector<GameObject*, std::__ndk1::allocator<GameObject*> >, std::__ndk1::allocator<std::__ndk1::vector<GameObject*, std::__ndk1::allocator<GameObject*> > > >::__throw_length_error[abi:ne180000]() const
PUBLIC 39f84 0 geode::Popup<cocos2d::CCArray*>::~Popup()
PUBLIC 39ff0 0 geode::Popup<cocos2d::CCArray*>::~Popup()
PUBLIC 39ff4 0 {virtual override thunk({offset(-320)}, geode::Popup<cocos2d::CCArray*>::~Popup())}
PUBLIC 3a060 0 {virtual override thunk({offset(-320)}, geode::Popup<cocos2d::CCArray*>::~Popup())}
PUBLIC 3a064 0 geode::modifier::ModifyDerive<ARGEditorPauseLayer, EditorPauseLayer>::apply()
PUBLIC 3a3c4 0 std::__ndk1::shared_ptr<geode::Hook>::~shared_ptr[abi:ne180000]()
PUBLIC 3a414 0 geode::impl::ResultData<geode::Hook*, std::__ndk1::basic_string<char, std::__ndk1::char_traits<char>, std::__ndk1::allocator<char> > >::~ResultData()
PUBLIC 3a488 0 std::__ndk1::vector<std::__ndk1::basic_string<char, std::__ndk1::char_traits<char>, std::__ndk1::allocator<char> >, std::__ndk1::allocator<std::__ndk1::basic_string<char, std::__ndk1::char_traits<char>, std::__ndk1::allocator<char> > > >::~vector[abi:ne180000]()
PUBLIC 3a504 0 geode::modifier::ModifyBase<geode::modifier::ModifyDerive<ARGEditorPauseLayer, EditorPauseLayer> >::apply()
PUBLIC 3a508 0 _ZN5geode15UnwrapExceptionC2IRPNS_4HookEQsr4implE18IsStringStreamableIT_EEENS_4impl5OkTagEOS5_
PUBLIC 3a65c 0 std::__ndk1::__throw_bad_variant_access[abi:ne180000]()
PUBLIC 3a690 0 std::__ndk1::basic_stringstream<char, std::__ndk1::char_traits<char>, std::__ndk1::allocator<char> >::basic_stringstream[abi:ne180000]()
PUBLIC m 3a7bc 0 std::__ndk1::basic_stringstream<char, std::__ndk1::char_traits<char>, std::__ndk1::allocator<char> >::~basic_stringstream()
PUBLIC 3a83c 0 geode::UnwrapException::~UnwrapException()
PUBLIC 3a860 0 std::__ndk1::__put_character_sequence[abi:ne180000]<char, std::__ndk1::char_traits<char> >(std::__ndk1::basic_ostream<char, std::__ndk1::char_traits<char> >, std::__ndk1::basic_ostream const*, unsigned long)
PUBLIC 3aa04 0 std::__ndk1::__pad_and_output[abi:ne180000]<char, std::__ndk1::char_traits<char> >(std::__ndk1::char_traits<char>, std::__ndk1::ostreambuf_iterator const*, std::__ndk1::ostreambuf_iterator const, std::__ndk1::ostreambuf_iterator const, std::__ndk1::ios_base&, std::__ndk1::ostreambuf_iterator)
PUBLIC 3abe0 0 std::__ndk1::basic_stringbuf<char, std::__ndk1::char_traits<char>, std::__ndk1::allocator<char> >::str[abi:ne180000]() &&
PUBLIC 3ad58 0 std::__ndk1::basic_stringbuf<char, std::__ndk1::char_traits<char>, std::__ndk1::allocator<char> >::__init_buf_ptrs[abi:ne180000]()
PUBLIC 3aea0 0 std::__ndk1::vector<std::__ndk1::basic_string<char, std::__ndk1::char_traits<char>, std::__ndk1::allocator<char> >, std::__ndk1::allocator<std::__ndk1::basic_string<char, std::__ndk1::char_traits<char>, std::__ndk1::allocator<char> > > >::__push_back_slow_path<std::__ndk1::basic_string<char, std::__ndk1::char_traits<char>, std::__ndk1::allocator<char> > const&>(std::__ndk1::basic_string<char, std::__ndk1::char_traits<char>, std::__ndk1::allocator<char> > const&)
PUBLIC 3b0c8 0 std::__ndk1::basic_string<char, std::__ndk1::char_traits<char>, std::__ndk1::allocator<char> >::__init_copy_ctor_external(char const*, unsigned long)
PUBLIC 3b148 0 std::__ndk1::__split_buffer<std::__ndk1::basic_string<char, std::__ndk1::char_traits<char>, std::__ndk1::allocator<char> >, std::__ndk1::allocator<std::__ndk1::basic_string<char, std::__ndk1::char_traits<char>, std::__ndk1::allocator<char> > >&>::~__split_buffer()
PUBLIC 3b1b0 0 std::__ndk1::vector<std::__ndk1::basic_string<char, std::__ndk1::char_traits<char>, std::__ndk1::allocator<char> >, std::__ndk1::allocator<std::__ndk1::basic_string<char, std::__ndk1::char_traits<char>, std::__ndk1::allocator<char> > > >::__throw_length_error[abi:ne180000]() const
PUBLIC 3b1c4 0 std::__ndk1::__variant_detail::__visitation::__base::__dispatcher<(unsigned long)0>::__dispatch[abi:ne180000]<std::__ndk1::__variant_detail::__dtor<std::__ndk1::__variant_detail::__traits<geode::Hook*, std::__ndk1::basic_string<char, std::__ndk1::char_traits<char>, std::__ndk1::allocator<char> > >, (std::__ndk1::__variant_detail::_Trait)1>::__destroy[abi:ne180000]()::{lambda(auto:1&)#1}, std::__ndk1::__variant_detail::__base<(std::__ndk1::__variant_detail::__traits<geode::Hook*, std::__ndk1::basic_string<char, std::__ndk1::char_traits<char>, std::__ndk1::allocator<char> > >)1, geode::Hook, std::__ndk1::allocator<char> >&>(std::__ndk1::__variant_detail::__dtor<std::__ndk1::__variant_detail::__traits<geode::Hook*, std::__ndk1::basic_string<char, std::__ndk1::char_traits<char>, std::__ndk1::allocator<char> > >, (std::__ndk1::__variant_detail::_Trait)1>, std::__ndk1::__variant_detail::__base<(std::__ndk1::__variant_detail::__traits<geode::Hook*, std::__ndk1::basic_string<char, std::__ndk1::char_traits<char>, std::__ndk1::allocator<char> > >)1, geode::Hook, std::__ndk1::allocator<char> >&)
PUBLIC 3b1c8 0 std::__ndk1::__variant_detail::__visitation::__base::__dispatcher<(unsigned long)1>::__dispatch[abi:ne180000]<std::__ndk1::__variant_detail::__dtor<std::__ndk1::__variant_detail::__traits<geode::Hook*, std::__ndk1::basic_string<char, std::__ndk1::char_traits<char>, std::__ndk1::allocator<char> > >, (std::__ndk1::__variant_detail::_Trait)1>::__destroy[abi:ne180000]()::{lambda(auto:1&)#1}, std::__ndk1::__variant_detail::__base<(std::__ndk1::__variant_detail::__traits<geode::Hook*, std::__ndk1::basic_string<char, std::__ndk1::char_traits<char>, std::__ndk1::allocator<char> > >)1, geode::Hook, std::__ndk1::allocator<char> >&>(std::__ndk1::__variant_detail::__dtor<std::__ndk1::__variant_detail::__traits<geode::Hook*, std::__ndk1::basic_string<char, std::__ndk1::char_traits<char>, std::__ndk1::allocator<char> > >, (std::__ndk1::__variant_detail::_Trait)1>, std::__ndk1::__variant_detail::__base<(std::__ndk1::__variant_detail::__traits<geode::Hook*, std::__ndk1::basic_string<char, std::__ndk1::char_traits<char>, std::__ndk1::allocator<char> > >)1, geode::Hook, std::__ndk1::allocator<char> >&)
PUBLIC 3b1dc 0 std::__ndk1::__tree<std::__ndk1::__value_type<std::__ndk1::basic_string<char, std::__ndk1::char_traits<char>, std::__ndk1::allocator<char> >, std::__ndk1::shared_ptr<geode::Hook> >, std::__ndk1::__map_value_compare<std::__ndk1::basic_string<char, std::__ndk1::char_traits<char>, std::__ndk1::allocator<char> >, std::__ndk1::__value_type<std::__ndk1::basic_string<char, std::__ndk1::char_traits<char>, std::__ndk1::allocator<char> >, std::__ndk1::shared_ptr<geode::Hook> >, std::__ndk1::less<std::__ndk1::basic_string<char, std::__ndk1::char_traits<char>, std::__ndk1::allocator<char> > >, true>, std::__ndk1::allocator<std::__ndk1::__value_type<std::__ndk1::basic_string<char, std::__ndk1::char_traits<char>, std::__ndk1::allocator<char> >, std::__ndk1::shared_ptr<geode::Hook> > > >::find<std::__ndk1::basic_string<char, std::__ndk1::char_traits<char>, std::__ndk1::allocator<char> > >(std::__ndk1::basic_string<char, std::__ndk1::char_traits<char>, std::__ndk1::allocator<char> > const&)
PUBLIC 3b2fc 0 std::__ndk1::__tree<std::__ndk1::__value_type<std::__ndk1::basic_string<char, std::__ndk1::char_traits<char>, std::__ndk1::allocator<char> >, std::__ndk1::shared_ptr<geode::Hook> >, std::__ndk1::__map_value_compare<std::__ndk1::basic_string<char, std::__ndk1::char_traits<char>, std::__ndk1::allocator<char> >, std::__ndk1::__value_type<std::__ndk1::basic_string<char, std::__ndk1::char_traits<char>, std::__ndk1::allocator<char> >, std::__ndk1::shared_ptr<geode::Hook> >, std::__ndk1::less<std::__ndk1::basic_string<char, std::__ndk1::char_traits<char>, std::__ndk1::allocator<char> > >, true>, std::__ndk1::allocator<std::__ndk1::__value_type<std::__ndk1::basic_string<char, std::__ndk1::char_traits<char>, std::__ndk1::allocator<char> >, std::__ndk1::shared_ptr<geode::Hook> > > >::erase(std::__ndk1::__tree_const_iterator<std::__ndk1::__value_type<std::__ndk1::basic_string<char, std::__ndk1::char_traits<char>, std::__ndk1::allocator<char> >, std::__ndk1::shared_ptr<geode::Hook> >, std::__ndk1::__tree_node<std::__ndk1::__value_type<std::__ndk1::basic_string<char, std::__ndk1::char_traits<char>, std::__ndk1::allocator<char> >, std::__ndk1::shared_ptr<geode::Hook> >, void*>*, long>)
PUBLIC 3b3d0 0 std::__ndk1::__tree_remove[abi:ne180000]<std::__ndk1::__tree_node_base<void*>*>(std::__ndk1::__tree_node_base<void*>*, std::__ndk1::__tree_node_base<void*>*)
PUBLIC 3b798 0 std::__ndk1::__tree<std::__ndk1::__value_type<std::__ndk1::basic_string<char, std::__ndk1::char_traits<char>, std::__ndk1::allocator<char> >, std::__ndk1::shared_ptr<geode::Hook> >, std::__ndk1::__map_value_compare<std::__ndk1::basic_string<char, std::__ndk1::char_traits<char>, std::__ndk1::allocator<char> >, std::__ndk1::__value_type<std::__ndk1::basic_string<char, std::__ndk1::char_traits<char>, std::__ndk1::allocator<char> >, std::__ndk1::shared_ptr<geode::Hook> >, std::__ndk1::less<std::__ndk1::basic_string<char, std::__ndk1::char_traits<char>, std::__ndk1::allocator<char> > >, true>, std::__ndk1::allocator<std::__ndk1::__value_type<std::__ndk1::basic_string<char, std::__ndk1::char_traits<char>, std::__ndk1::allocator<char> >, std::__ndk1::shared_ptr<geode::Hook> > > >::destroy(std::__ndk1::__tree_node<std::__ndk1::__value_type<std::__ndk1::basic_string<char, std::__ndk1::char_traits<char>, std::__ndk1::allocator<char> >, std::__ndk1::shared_ptr<geode::Hook> >, void*>*)
PUBLIC 3b824 0 geode::modifier::AsStaticFunction_init<ARGEditorPauseLayer, bool (ARGEditorPauseLayer::*)(LevelEditorLayer*)>::Impl<bool (ARGEditorPauseLayer::*)(LevelEditorLayer*)>::function(ARGEditorPauseLayer*, LevelEditorLayer*)
PUBLIC 3b9b8 0 std::__ndk1::shared_ptr<tulip::hook::CallingConvention>::~shared_ptr[abi:ne180000]()
PUBLIC 3ba08 0 tulip::hook::HandlerMetadata::~HandlerMetadata()
PUBLIC 3ba6c 0 std::__ndk1::__tree<std::__ndk1::__value_type<std::__ndk1::basic_string<char, std::__ndk1::char_traits<char>, std::__ndk1::allocator<char> >, std::__ndk1::shared_ptr<geode::Hook> >, std::__ndk1::__map_value_compare<std::__ndk1::basic_string<char, std::__ndk1::char_traits<char>, std::__ndk1::allocator<char> >, std::__ndk1::__value_type<std::__ndk1::basic_string<char, std::__ndk1::char_traits<char>, std::__ndk1::allocator<char> >, std::__ndk1::shared_ptr<geode::Hook> >, std::__ndk1::less<std::__ndk1::basic_string<char, std::__ndk1::char_traits<char>, std::__ndk1::allocator<char> > >, true>, std::__ndk1::allocator<std::__ndk1::__value_type<std::__ndk1::basic_string<char, std::__ndk1::char_traits<char>, std::__ndk1::allocator<char> >, std::__ndk1::shared_ptr<geode::Hook> > > >::__emplace_unique_key_args<std::__ndk1::basic_string<char, std::__ndk1::char_traits<char>, std::__ndk1::allocator<char> >, std::__ndk1::piecewise_construct_t const&, std::__ndk1::tuple<std::__ndk1::basic_string<char, std::__ndk1::char_traits<char>, std::__ndk1::allocator<char> >&&>, std::__ndk1::tuple<> >(std::__ndk1::basic_string<char, std::__ndk1::char_traits<char>, std::__ndk1::allocator<char> > const&, std::__ndk1::piecewise_construct_t const&, std::__ndk1::tuple<std::__ndk1::basic_string<char, std::__ndk1::char_traits<char>, std::__ndk1::allocator<char> >&&>, std::__ndk1::tuple<>)
PUBLIC 3bbe4 0 std::__ndk1::__tree_balance_after_insert[abi:ne180000]<std::__ndk1::__tree_node_base<void*>*>(std::__ndk1::__tree_node_base<void*>*, std::__ndk1::__tree_node_base<void*>*)
PUBLIC 3bd94 0 std::__ndk1::__function::__func<AddRandomGroupsPopup::setup(cocos2d::CCArray*)::$_0, std::__ndk1::allocator<AddRandomGroupsPopup::setup(cocos2d::CCArray*)::$_0>, void (std::__ndk1::basic_string<char, std::__ndk1::char_traits<char>, std::__ndk1::allocator<char> > const&)>::~__func()
PUBLIC 3bd98 0 std::__ndk1::__function::__func<AddRandomGroupsPopup::setup(cocos2d::CCArray*)::$_0, std::__ndk1::allocator<AddRandomGroupsPopup::setup(cocos2d::CCArray*)::$_0>, void (std::__ndk1::basic_string<char, std::__ndk1::char_traits<char>, std::__ndk1::allocator<char> > const&)>::__clone() const
PUBLIC 3bdcc 0 std::__ndk1::__function::__func<AddRandomGroupsPopup::setup(cocos2d::CCArray*)::$_0, std::__ndk1::allocator<AddRandomGroupsPopup::setup(cocos2d::CCArray*)::$_0>, void (std::__ndk1::basic_string<char, std::__ndk1::char_traits<char>, std::__ndk1::allocator<char> > const&)>::__clone(std::__ndk1::__function::__base<void (std::__ndk1::basic_string<char, std::__ndk1::char_traits<char>, std::__ndk1::allocator<char> > const&)>*) const
PUBLIC 3bde0 0 std::__ndk1::__function::__func<AddRandomGroupsPopup::setup(cocos2d::CCArray*)::$_0, std::__ndk1::allocator<AddRandomGroupsPopup::setup(cocos2d::CCArray*)::$_0>, void (std::__ndk1::basic_string<char, std::__ndk1::char_traits<char>, std::__ndk1::allocator<char> > const&)>::destroy()
PUBLIC 3bde4 0 std::__ndk1::__function::__func<AddRandomGroupsPopup::setup(cocos2d::CCArray*)::$_0, std::__ndk1::allocator<AddRandomGroupsPopup::setup(cocos2d::CCArray*)::$_0>, void (std::__ndk1::basic_string<char, std::__ndk1::char_traits<char>, std::__ndk1::allocator<char> > const&)>::destroy_deallocate()
PUBLIC 3bde8 0 std::__ndk1::__function::__func<AddRandomGroupsPopup::setup(cocos2d::CCArray*)::$_0, std::__ndk1::allocator<AddRandomGroupsPopup::setup(cocos2d::CCArray*)::$_0>, void (std::__ndk1::basic_string<char, std::__ndk1::char_traits<char>, std::__ndk1::allocator<char> > const&)>::operator()(std::__ndk1::basic_string<char, std::__ndk1::char_traits<char>, std::__ndk1::allocator<char> > const&)
PUBLIC 3bf90 0 std::__ndk1::__function::__func<AddRandomGroupsPopup::setup(cocos2d::CCArray*)::$_0, std::__ndk1::allocator<AddRandomGroupsPopup::setup(cocos2d::CCArray*)::$_0>, void (std::__ndk1::basic_string<char, std::__ndk1::char_traits<char>, std::__ndk1::allocator<char> > const&)>::target(std::type_info const&) const
PUBLIC 3bfac 0 std::__ndk1::__function::__func<AddRandomGroupsPopup::setup(cocos2d::CCArray*)::$_0, std::__ndk1::allocator<AddRandomGroupsPopup::setup(cocos2d::CCArray*)::$_0>, void (std::__ndk1::basic_string<char, std::__ndk1::char_traits<char>, std::__ndk1::allocator<char> > const&)>::target_type() const
PUBLIC 3bfb8 0 std::__ndk1::__function::__base<void (std::__ndk1::basic_string<char, std::__ndk1::char_traits<char>, std::__ndk1::allocator<char> > const&)>::~__base()
PUBLIC 3bfbc 0 std::__ndk1::__function::__func<AddRandomGroupsPopup::setup(cocos2d::CCArray*)::$_1, std::__ndk1::allocator<AddRandomGroupsPopup::setup(cocos2d::CCArray*)::$_1>, void (std::__ndk1::basic_string<char, std::__ndk1::char_traits<char>, std::__ndk1::allocator<char> > const&)>::~__func()
PUBLIC 3bfc0 0 std::__ndk1::__function::__func<AddRandomGroupsPopup::setup(cocos2d::CCArray*)::$_1, std::__ndk1::allocator<AddRandomGroupsPopup::setup(cocos2d::CCArray*)::$_1>, void (std::__ndk1::basic_string<char, std::__ndk1::char_traits<char>, std::__ndk1::allocator<char> > const&)>::__clone() const
PUBLIC 3bff4 0 std::__ndk1::__function::__func<AddRandomGroupsPopup::setup(cocos2d::CCArray*)::$_1, std::__ndk1::allocator<AddRandomGroupsPopup::setup(cocos2d::CCArray*)::$_1>, void (std::__ndk1::basic_string<char, std::__ndk1::char_traits<char>, std::__ndk1::allocator<char> > const&)>::__clone(std::__ndk1::__function::__base<void (std::__ndk1::basic_string<char, std::__ndk1::char_traits<char>, std::__ndk1::allocator<char> > const&)>*) const
PUBLIC 3c008 0 std::__ndk1::__function::__func<AddRandomGroupsPopup::setup(cocos2d::CCArray*)::$_1, std::__ndk1::allocator<AddRandomGroupsPopup::setup(cocos2d::CCArray*)::$_1>, void (std::__ndk1::basic_string<char, std::__ndk1::char_traits<char>, std::__ndk1::allocator<char> > const&)>::destroy()
PUBLIC 3c00c 0 std::__ndk1::__function::__func<AddRandomGroupsPopup::setup(cocos2d::CCArray*)::$_1, std::__ndk1::allocator<AddRandomGroupsPopup::setup(cocos2d::CCArray*)::$_1>, void (std::__ndk1::basic_string<char, std::__ndk1::char_traits<char>, std::__ndk1::allocator<char> > const&)>::destroy_deallocate()
PUBLIC 3c010 0 std::__ndk1::__function::__func<AddRandomGroupsPopup::setup(cocos2d::CCArray*)::$_1, std::__ndk1::allocator<AddRandomGroupsPopup::setup(cocos2d::CCArray*)::$_1>, void (std::__ndk1::basic_string<char, std::__ndk1::char_traits<char>, std::__ndk1::allocator<char> > const&)>::operator()(std::__ndk1::basic_string<char, std::__ndk1::char_traits<char>, std::__ndk1::allocator<char> > const&)
PUBLIC 3c194 0 std::__ndk1::__function::__func<AddRandomGroupsPopup::setup(cocos2d::CCArray*)::$_1, std::__ndk1::allocator<AddRandomGroupsPopup::setup(cocos2d::CCArray*)::$_1>, void (std::__ndk1::basic_string<char, std::__ndk1::char_traits<char>, std::__ndk1::allocator<char> > const&)>::target(std::type_info const&) const
PUBLIC 3c1b0 0 std::__ndk1::__function::__func<AddRandomGroupsPopup::setup(cocos2d::CCArray*)::$_1, std::__ndk1::allocator<AddRandomGroupsPopup::setup(cocos2d::CCArray*)::$_1>, void (std::__ndk1::basic_string<char, std::__ndk1::char_traits<char>, std::__ndk1::allocator<char> > const&)>::target_type() const
PUBLIC 3c1bc 0 std::__ndk1::basic_regex<char, std::__ndk1::regex_traits<char> >::__parse<char const*>(char const*, char const*)
PUBLIC 3c880 0 std::__ndk1::__throw_regex_error[abi:ne180000]<(std::__ndk1::regex_constants::error_type)17>()
PUBLIC 3c8cc 0 std::__ndk1::basic_regex<char, std::__ndk1::regex_traits<char> >::__parse_ecma_exp<char const*>(char const*, char const*)
PUBLIC 3cb38 0 std::__ndk1::basic_regex<char, std::__ndk1::regex_traits<char> >::__parse_basic_reg_exp<char const*>(char const*, char const*)
PUBLIC 3cce0 0 std::__ndk1::basic_regex<char, std::__ndk1::regex_traits<char> >::__parse_extended_reg_exp<char const*>(char const*, char const*)
PUBLIC 3ce50 0 std::__ndk1::__throw_regex_error[abi:ne180000]<(std::__ndk1::regex_constants::error_type)14>()
PUBLIC 3ce9c 0 std::__ndk1::__end_state<char>::~__end_state()
PUBLIC 3cea0 0 std::__ndk1::__end_state<char>::__exec(std::__ndk1::__state<char>&) const
PUBLIC 3ceac 0 std::__ndk1::__node<char>::__exec_split(bool, std::__ndk1::__state<char>&) const
PUBLIC 3ceb0 0 std::__ndk1::__node<char>::__exec(std::__ndk1::__state<char>&) const
PUBLIC 3ceb4 0 std::__ndk1::__shared_ptr_pointer<std::__ndk1::__empty_state<char>*, std::__ndk1::shared_ptr<std::__ndk1::__empty_state<char> >::__shared_ptr_default_delete<std::__ndk1::__empty_state<char>, std::__ndk1::__empty_state<char> >, std::__ndk1::allocator<std::__ndk1::__empty_state<char> > >::~__shared_ptr_pointer()
PUBLIC 3ced8 0 std::__ndk1::__shared_ptr_pointer<std::__ndk1::__empty_state<char>*, std::__ndk1::shared_ptr<std::__ndk1::__empty_state<char> >::__shared_ptr_default_delete<std::__ndk1::__empty_state<char>, std::__ndk1::__empty_state<char> >, std::__ndk1::allocator<std::__ndk1::__empty_state<char> > >::__on_zero_shared()
PUBLIC 3cef0 0 std::__ndk1::__shared_ptr_pointer<std::__ndk1::__empty_state<char>*, std::__ndk1::shared_ptr<std::__ndk1::__empty_state<char> >::__shared_ptr_default_delete<std::__ndk1::__empty_state<char>, std::__ndk1::__empty_state<char> >, std::__ndk1::allocator<std::__ndk1::__empty_state<char> > >::__get_deleter(std::type_info const&) const
PUBLIC 3cf0c 0 std::__ndk1::__shared_ptr_pointer<std::__ndk1::__empty_state<char>*, std::__ndk1::shared_ptr<std::__ndk1::__empty_state<char> >::__shared_ptr_default_delete<std::__ndk1::__empty_state<char>, std::__ndk1::__empty_state<char> >, std::__ndk1::allocator<std::__ndk1::__empty_state<char> > >::__on_zero_shared_weak()
PUBLIC 3cf10 0 std::__ndk1::__empty_state<char>::~__empty_state()
PUBLIC 3cf58 0 std::__ndk1::__empty_state<char>::__exec(std::__ndk1::__state<char>&) const
PUBLIC 3cf6c 0 std::__ndk1::__owns_one_state<char>::~__owns_one_state()
PUBLIC 3cfb4 0 std::__ndk1::basic_regex<char, std::__ndk1::regex_traits<char> >::__parse_assertion<char const*>(char const*, char const*)
PUBLIC 3d318 0 std::__ndk1::basic_regex<char, std::__ndk1::regex_traits<char> >::__parse_atom<char const*>(char const*, char const*)
PUBLIC 3d95c 0 std::__ndk1::basic_regex<char, std::__ndk1::regex_traits<char> >::__parse_ERE_dupl_symbol<char const*>(char const*, char const*, std::__ndk1::__owns_one_state<char>*, unsigned int, unsigned int)
PUBLIC 3dd50 0 std::__ndk1::basic_regex<char, std::__ndk1::regex_traits<char> >::basic_regex[abi:ne180000]()
PUBLIC 3ddbc 0 std::__ndk1::basic_regex<char, std::__ndk1::regex_traits<char> >::__push_lookahead(std::__ndk1::basic_regex<char, std::__ndk1::regex_traits<char> > const&, bool, unsigned int)
PUBLIC 3de70 0 std::__ndk1::__throw_regex_error[abi:ne180000]<(std::__ndk1::regex_constants::error_type)6>()
PUBLIC 3debc 0 std::__ndk1::__l_anchor_multiline<char>::~__l_anchor_multiline()
PUBLIC 3df04 0 std::__ndk1::__l_anchor_multiline<char>::__exec(std::__ndk1::__state<char>&) const
PUBLIC 3df68 0 std::__ndk1::__r_anchor_multiline<char>::~__r_anchor_multiline()
PUBLIC 3dfb0 0 std::__ndk1::__r_anchor_multiline<char>::__exec(std::__ndk1::__state<char>&) const
PUBLIC 3e004 0 std::__ndk1::__word_boundary<char, std::__ndk1::regex_traits<char> >::~__word_boundary()
PUBLIC 3e060 0 std::__ndk1::__word_boundary<char, std::__ndk1::regex_traits<char> >::~__word_boundary()
PUBLIC 3e0b8 0 std::__ndk1::__word_boundary<char, std::__ndk1::regex_traits<char> >::__exec(std::__ndk1::__state<char>&) const
PUBLIC 3e1c8 0 std::__ndk1::__lookahead<char, std::__ndk1::regex_traits<char> >::~__lookahead()
PUBLIC 3e258 0 std::__ndk1::__lookahead<char, std::__ndk1::regex_traits<char> >::~__lookahead()
PUBLIC 3e2e4 0 std::__ndk1::__lookahead<char, std::__ndk1::regex_traits<char> >::__exec(std::__ndk1::__state<char>&) const
PUBLIC 3e4b8 0 std::__ndk1::basic_regex<char, std::__ndk1::regex_traits<char> >::__match_at_start_ecma<std::__ndk1::allocator<std::__ndk1::sub_match<char const*> > >(char const*, char const*, std::__ndk1::match_results<char const*, std::__ndk1::allocator<std::__ndk1::sub_match<char const*> > >&, std::__ndk1::regex_constants::match_flag_type, bool) const
PUBLIC 3e904 0 std::__ndk1::vector<std::__ndk1::sub_match<char const*>, std::__ndk1::allocator<std::__ndk1::sub_match<char const*> > >::assign(unsigned long, std::__ndk1::sub_match<char const*> const&)
PUBLIC 3eacc 0 std::__ndk1::vector<std::__ndk1::sub_match<char const*>, std::__ndk1::allocator<std::__ndk1::sub_match<char const*> > >::__throw_length_error[abi:ne180000]() const
PUBLIC 3eae0 0 std::__ndk1::__state<char>::~__state()
PUBLIC 3eb24 0 std::__ndk1::__throw_regex_error[abi:ne180000]<(std::__ndk1::regex_constants::error_type)12>()
PUBLIC 3eb70 0 std::__ndk1::__state<char>::__state(std::__ndk1::__state<char> const&)
PUBLIC 3ece0 0 std::__ndk1::__throw_regex_error[abi:ne180000]<(std::__ndk1::regex_constants::error_type)16>()
PUBLIC 3ed2c 0 std::__ndk1::vector<std::__ndk1::__state<char>, std::__ndk1::allocator<std::__ndk1::__state<char> > >::~vector[abi:ne180000]()
PUBLIC 3edc4 0 std::__ndk1::vector<std::__ndk1::__state<char>, std::__ndk1::allocator<std::__ndk1::__state<char> > >::__push_back_slow_path<std::__ndk1::__state<char> >(std::__ndk1::__state<char>&&)
PUBLIC 3efa0 0 std::__ndk1::vector<std::__ndk1::__state<char>, std::__ndk1::allocator<std::__ndk1::__state<char> > >::__throw_length_error[abi:ne180000]() const
PUBLIC 3efb4 0 std::__ndk1::vector<std::__ndk1::sub_match<char const*>, std::__ndk1::allocator<std::__ndk1::sub_match<char const*> > >::__append(unsigned long, std::__ndk1::sub_match<char const*> const&)
PUBLIC 3f15c 0 std::__ndk1::vector<std::__ndk1::pair<unsigned long, char const*>, std::__ndk1::allocator<std::__ndk1::pair<unsigned long, char const*> > >::__append(unsigned long)
PUBLIC 3f288 0 std::__ndk1::vector<std::__ndk1::pair<unsigned long, char const*>, std::__ndk1::allocator<std::__ndk1::pair<unsigned long, char const*> > >::__throw_length_error[abi:ne180000]() const
PUBLIC 3f29c 0 std::__ndk1::basic_regex<char, std::__ndk1::regex_traits<char> >::__parse_bracket_expression<char const*>(char const*, char const*)
PUBLIC 40390 0 std::__ndk1::__throw_regex_error[abi:ne180000]<(std::__ndk1::regex_constants::error_type)11>()
PUBLIC 403dc 0 std::__ndk1::__match_any_but_newline<char>::~__match_any_but_newline()
PUBLIC 40424 0 std::__ndk1::__throw_regex_error[abi:ne180000]<(std::__ndk1::regex_constants::error_type)3>()
PUBLIC 40470 0 std::__ndk1::basic_regex<char, std::__ndk1::regex_traits<char> >::__parse_character_escape<char const*>(char const*, char const*, std::__ndk1::basic_string<char, std::__ndk1::char_traits<char>, std::__ndk1::allocator<char> >*)
PUBLIC 4097c 0 std::__ndk1::basic_regex<char, std::__ndk1::regex_traits<char> >::__push_char(char)
PUBLIC 40abc 0 std::__ndk1::__throw_regex_error[abi:ne180000]<(std::__ndk1::regex_constants::error_type)4>()
PUBLIC 40b08 0 std::__ndk1::basic_regex<char, std::__ndk1::regex_traits<char> >::__push_back_ref(int)
PUBLIC 40bd0 0 std::__ndk1::__match_char_icase<char, std::__ndk1::regex_traits<char> >::~__match_char_icase()
PUBLIC 40c2c 0 std::__ndk1::__match_char_icase<char, std::__ndk1::regex_traits<char> >::~__match_char_icase()
PUBLIC 40c84 0 std::__ndk1::__match_char_icase<char, std::__ndk1::regex_traits<char> >::__exec(std::__ndk1::__state<char>&) const
PUBLIC 40d04 0 std::__ndk1::__match_char_collate<char, std::__ndk1::regex_traits<char> >::~__match_char_collate()
PUBLIC 40d60 0 std::__ndk1::__match_char_collate<char, std::__ndk1::regex_traits<char> >::~__match_char_collate()
PUBLIC 40db8 0 std::__ndk1::__match_char_collate<char, std::__ndk1::regex_traits<char> >::__exec(std::__ndk1::__state<char>&) const
PUBLIC 40e00 0 std::__ndk1::__match_char<char>::~__match_char()
PUBLIC 40e48 0 std::__ndk1::__match_char<char>::__exec(std::__ndk1::__state<char>&) const
PUBLIC 40e90 0 std::__ndk1::__back_ref_icase<char, std::__ndk1::regex_traits<char> >::~__back_ref_icase()
PUBLIC 40eec 0 std::__ndk1::__back_ref_icase<char, std::__ndk1::regex_traits<char> >::~__back_ref_icase()
PUBLIC 40f44 0 std::__ndk1::__back_ref_icase<char, std::__ndk1::regex_traits<char> >::__exec(std::__ndk1::__state<char>&) const
PUBLIC 4103c 0 std::__ndk1::__back_ref_collate<char, std::__ndk1::regex_traits<char> >::~__back_ref_collate()
PUBLIC 41098 0 std::__ndk1::__back_ref_collate<char, std::__ndk1::regex_traits<char> >::~__back_ref_collate()
PUBLIC 410f0 0 std::__ndk1::__back_ref_collate<char, std::__ndk1::regex_traits<char> >::__exec(std::__ndk1::__state<char>&) const
PUBLIC 41180 0 std::__ndk1::__back_ref<char>::~__back_ref()
PUBLIC 411c8 0 std::__ndk1::__back_ref<char>::__exec(std::__ndk1::__state<char>&) const
PUBLIC 41298 0 std::__ndk1::__bracket_expression<char, std::__ndk1::regex_traits<char> >::__add_char[abi:ne180000](char)
PUBLIC 41748 0 std::__ndk1::__bracket_expression<char, std::__ndk1::regex_traits<char> >::__bracket_expression[abi:ne180000](std::__ndk1::regex_traits<char> const&, std::__ndk1::__node<char>*, bool, bool, bool)
PUBLIC 41924 0 std::__ndk1::vector<std::__ndk1::pair<std::__ndk1::basic_string<char, std::__ndk1::char_traits<char>, std::__ndk1::allocator<char> >, std::__ndk1::basic_string<char, std::__ndk1::char_traits<char>, std::__ndk1::allocator<char> > >, std::__ndk1::allocator<std::__ndk1::pair<std::__ndk1::basic_string<char, std::__ndk1::char_traits<char>, std::__ndk1::allocator<char> >, std::__ndk1::basic_string<char, std::__ndk1::char_traits<char>, std::__ndk1::allocator<char> > > > >::~vector[abi:ne180000]()
PUBLIC 419c8 0 std::__ndk1::__bracket_expression<char, std::__ndk1::regex_traits<char> >::~__bracket_expression()
PUBLIC 41b14 0 std::__ndk1::__bracket_expression<char, std::__ndk1::regex_traits<char> >::~__bracket_expression()
PUBLIC 41b38 0 std::__ndk1::__bracket_expression<char, std::__ndk1::regex_traits<char> >::__exec(std::__ndk1::__state<char>&) const
PUBLIC 427a4 0 std::__ndk1::pair<std::__ndk1::basic_string<char, std::__ndk1::char_traits<char>, std::__ndk1::allocator<char> >, std::__ndk1::basic_string<char, std::__ndk1::char_traits<char>, std::__ndk1::allocator<char> > >::~pair()
PUBLIC 427e8 0 std::__ndk1::basic_string<char, std::__ndk1::char_traits<char>, std::__ndk1::allocator<char> >::__assign_no_alias<true>(char const*, unsigned long)
PUBLIC 42894 0 std::__ndk1::basic_string<char, std::__ndk1::char_traits<char>, std::__ndk1::allocator<char> >::__assign_no_alias<false>(char const*, unsigned long)
PUBLIC 429a4 0 std::__ndk1::regex_traits<char>::__transform_primary<char*>(char*, char*, char) const
PUBLIC 42b68 0 std::__ndk1::vector<char, std::__ndk1::allocator<char> >::__throw_length_error[abi:ne180000]() const
PUBLIC 42b7c 0 std::__ndk1::__throw_regex_error[abi:ne180000]<(std::__ndk1::regex_constants::error_type)5>()
PUBLIC 42bc8 0 std::__ndk1::basic_regex<char, std::__ndk1::regex_traits<char> >::__parse_class_escape<char const*>(char const*, char const*, std::__ndk1::basic_string<char, std::__ndk1::char_traits<char>, std::__ndk1::allocator<char> >&, std::__ndk1::__bracket_expression<char, std::__ndk1::regex_traits<char> >*)
PUBLIC 43190 0 std::__ndk1::basic_regex<char, std::__ndk1::regex_traits<char> >::__parse_awk_escape<char const*>(char const*, char const*, std::__ndk1::basic_string<char, std::__ndk1::char_traits<char>, std::__ndk1::allocator<char> >*)
PUBLIC 43654 0 std::__ndk1::__bracket_expression<char, std::__ndk1::regex_traits<char> >::__add_digraph[abi:ne180000](char, char)
PUBLIC 43a74 0 std::__ndk1::__throw_regex_error[abi:ne180000]<(std::__ndk1::regex_constants::error_type)1>()
PUBLIC 43ac0 0 std::__ndk1::regex_traits<char>::__lookup_collatename<char const*>(char const*, char const*, char) const
PUBLIC 43d74 0 std::__ndk1::__throw_regex_error[abi:ne180000]<(std::__ndk1::regex_constants::error_type)2>()
PUBLIC 43dc0 0 std::__ndk1::regex_traits<char>::transform<std::__ndk1::__wrap_iter<char*> >(std::__ndk1::__wrap_iter<char*>, std::__ndk1::__wrap_iter<char*>) const
PUBLIC 43f74 0 std::__ndk1::__throw_regex_error[abi:ne180000]<(std::__ndk1::regex_constants::error_type)9>()
PUBLIC 43fc0 0 std::__ndk1::vector<std::__ndk1::pair<std::__ndk1::basic_string<char, std::__ndk1::char_traits<char>, std::__ndk1::allocator<char> >, std::__ndk1::basic_string<char, std::__ndk1::char_traits<char>, std::__ndk1::allocator<char> > >, std::__ndk1::allocator<std::__ndk1::pair<std::__ndk1::basic_string<char, std::__ndk1::char_traits<char>, std::__ndk1::allocator<char> >, std::__ndk1::basic_string<char, std::__ndk1::char_traits<char>, std::__ndk1::allocator<char> > > > >::__push_back_slow_path<std::__ndk1::pair<std::__ndk1::basic_string<char, std::__ndk1::char_traits<char>, std::__ndk1::allocator<char> >, std::__ndk1::basic_string<char, std::__ndk1::char_traits<char>, std::__ndk1::allocator<char> > > >(std::__ndk1::pair<std::__ndk1::basic_string<char, std::__ndk1::char_traits<char>, std::__ndk1::allocator<char> >, std::__ndk1::basic_string<char, std::__ndk1::char_traits<char>, std::__ndk1::allocator<char> > >&&)
PUBLIC 44168 0 std::__ndk1::vector<std::__ndk1::pair<std::__ndk1::basic_string<char, std::__ndk1::char_traits<char>, std::__ndk1::allocator<char> >, std::__ndk1::basic_string<char, std::__ndk1::char_traits<char>, std::__ndk1::allocator<char> > >, std::__ndk1::allocator<std::__ndk1::pair<std::__ndk1::basic_string<char, std::__ndk1::char_traits<char>, std::__ndk1::allocator<char> >, std::__ndk1::basic_string<char, std::__ndk1::char_traits<char>, std::__ndk1::allocator<char> > > > >::__throw_length_error[abi:ne180000]() const
PUBLIC 4417c 0 std::__ndk1::vector<std::__ndk1::pair<char, char>, std::__ndk1::allocator<std::__ndk1::pair<char, char> > >::__throw_length_error[abi:ne180000]() const
PUBLIC 44190 0 std::__ndk1::__begin_marked_subexpression<char>::~__begin_marked_subexpression()
PUBLIC 441d8 0 std::__ndk1::__begin_marked_subexpression<char>::__exec(std::__ndk1::__state<char>&) const
PUBLIC 44208 0 std::__ndk1::__end_marked_subexpression<char>::~__end_marked_subexpression()
PUBLIC 44250 0 std::__ndk1::__end_marked_subexpression<char>::__exec(std::__ndk1::__state<char>&) const
PUBLIC 44288 0 std::__ndk1::basic_regex<char, std::__ndk1::regex_traits<char> >::__push_loop(unsigned long, unsigned long, std::__ndk1::__owns_one_state<char>*, unsigned long, unsigned long, bool)
PUBLIC 443c8 0 std::__ndk1::__throw_regex_error[abi:ne180000]<(std::__ndk1::regex_constants::error_type)8>()
PUBLIC 44414 0 std::__ndk1::__throw_regex_error[abi:ne180000]<(std::__ndk1::regex_constants::error_type)7>()
PUBLIC 44460 0 std::__ndk1::__loop<char>::~__loop()
PUBLIC 444c8 0 std::__ndk1::__loop<char>::__exec(std::__ndk1::__state<char>&) const
PUBLIC 4468c 0 std::__ndk1::__loop<char>::__exec_split(bool, std::__ndk1::__state<char>&) const
PUBLIC 44750 0 std::__ndk1::__owns_two_states<char>::~__owns_two_states()
PUBLIC 447b8 0 std::__ndk1::__repeat_one_loop<char>::~__repeat_one_loop()
PUBLIC 447bc 0 std::__ndk1::__repeat_one_loop<char>::__exec(std::__ndk1::__state<char>&) const
PUBLIC 447d0 0 std::__ndk1::__owns_two_states<char>::~__owns_two_states()
PUBLIC 4483c 0 std::__ndk1::__alternate<char>::~__alternate()
PUBLIC 448a4 0 std::__ndk1::__alternate<char>::__exec(std::__ndk1::__state<char>&) const
PUBLIC 448b0 0 std::__ndk1::__alternate<char>::__exec_split(bool, std::__ndk1::__state<char>&) const
PUBLIC 448d4 0 std::__ndk1::__node<char>::~__node()
PUBLIC 448d8 0 std::__ndk1::__empty_non_own_state<char>::~__empty_non_own_state()
PUBLIC 448dc 0 std::__ndk1::__empty_non_own_state<char>::__exec(std::__ndk1::__state<char>&) const
PUBLIC 448f0 0 std::__ndk1::__throw_regex_error[abi:ne180000]<(std::__ndk1::regex_constants::error_type)15>()
PUBLIC 4493c 0 std::__ndk1::basic_regex<char, std::__ndk1::regex_traits<char> >::__parse_nondupl_RE<char const*>(char const*, char const*)
PUBLIC 44c38 0 std::__ndk1::basic_regex<char, std::__ndk1::regex_traits<char> >::__parse_RE_dupl_symbol<char const*>(char const*, char const*, std::__ndk1::__owns_one_state<char>*, unsigned int, unsigned int)
PUBLIC 44ea8 0 std::__ndk1::__owns_one_state<char>::~__owns_one_state()
PUBLIC 44ed4 0 std::__ndk1::__match_any<char>::~__match_any()
PUBLIC 44f1c 0 std::__ndk1::__match_any<char>::__exec(std::__ndk1::__state<char>&) const
PUBLIC 44f5c 0 std::__ndk1::basic_regex<char, std::__ndk1::regex_traits<char> >::__test_back_ref(char)
PUBLIC 44fbc 0 std::__ndk1::basic_regex<char, std::__ndk1::regex_traits<char> >::__parse_ERE_expression<char const*>(char const*, char const*)
PUBLIC 45308 0 std::__ndk1::deque<std::__ndk1::__state<char>, std::__ndk1::allocator<std::__ndk1::__state<char> > >::~deque[abi:ne180000]()
PUBLIC 454d0 0 std::__ndk1::deque<std::__ndk1::__state<char>, std::__ndk1::allocator<std::__ndk1::__state<char> > >::__add_back_capacity()
PUBLIC 45ac0 0 std::__ndk1::__split_buffer<std::__ndk1::__state<char>*, std::__ndk1::allocator<std::__ndk1::__state<char>*> >::push_back(std::__ndk1::__state<char>*&&)
PUBLIC 45c48 0 std::__ndk1::__split_buffer<std::__ndk1::__state<char>*, std::__ndk1::allocator<std::__ndk1::__state<char>*> >::push_front(std::__ndk1::__state<char>*&&)
PUBLIC 45dd4 0 std::__ndk1::vector<std::__ndk1::sub_match<std::__ndk1::__wrap_iter<char const*> >, std::__ndk1::allocator<std::__ndk1::sub_match<std::__ndk1::__wrap_iter<char const*> > > >::__throw_length_error[abi:ne180000]() const
PUBLIC 45de8 0 std::__ndk1::__tree<std::__ndk1::__value_type<short, std::__ndk1::vector<GameObject*, std::__ndk1::allocator<GameObject*> > >, std::__ndk1::__map_value_compare<short, std::__ndk1::__value_type<short, std::__ndk1::vector<GameObject*, std::__ndk1::allocator<GameObject*> > >, std::__ndk1::less<short>, true>, std::__ndk1::allocator<std::__ndk1::__value_type<short, std::__ndk1::vector<GameObject*, std::__ndk1::allocator<GameObject*> > > > >::destroy(std::__ndk1::__tree_node<std::__ndk1::__value_type<short, std::__ndk1::vector<GameObject*, std::__ndk1::allocator<GameObject*> > >, void*>*)
PUBLIC 45e30 0 std::__ndk1::uniform_int_distribution<long>::operator()<std::__ndk1::linear_congruential_engine<unsigned long, (unsigned long)48271, (unsigned long)0, (unsigned long)2147483647> >(std::__ndk1::linear_congruential_engine<unsigned long, (unsigned long)48271, (unsigned long)0, (unsigned long)2147483647>&, std::__ndk1::uniform_int_distribution<long>::param_type const&)
PUBLIC 46240 0 geode::Popup<cocos2d::CCArray*>::CloseEvent::~CloseEvent()
PUBLIC 462a0 0 geode::Popup<cocos2d::CCArray*>::CloseEvent::~CloseEvent()
PUBLIC 46310 0 std::__ndk1::__shared_ptr_emplace<geode::Popup<cocos2d::CCArray*>::CloseEvent::Impl, std::__ndk1::allocator<geode::Popup<cocos2d::CCArray*>::CloseEvent::Impl> >::~__shared_ptr_emplace()
PUBLIC 46320 0 std::__ndk1::__shared_ptr_emplace<geode::Popup<cocos2d::CCArray*>::CloseEvent::Impl, std::__ndk1::allocator<geode::Popup<cocos2d::CCArray*>::CloseEvent::Impl> >::~__shared_ptr_emplace()
PUBLIC 46350 0 std::__ndk1::__shared_ptr_emplace<geode::Popup<cocos2d::CCArray*>::CloseEvent::Impl, std::__ndk1::allocator<geode::Popup<cocos2d::CCArray*>::CloseEvent::Impl> >::__on_zero_shared()
PUBLIC 46354 0 std::__ndk1::__shared_ptr_emplace<geode::Popup<cocos2d::CCArray*>::CloseEvent::Impl, std::__ndk1::allocator<geode::Popup<cocos2d::CCArray*>::CloseEvent::Impl> >::__on_zero_shared_weak()
PUBLIC 46358 0 AFEditorUI::shouldFilterObject(GameObject*)
PUBLIC 468f0 0 AFEditorUI::onFilter(cocos2d::CCObject*)
PUBLIC 46c58 0 geode::Mod::getSavedValue<SavedFilter>(std::__ndk1::basic_string_view<char, std::__ndk1::char_traits<char> >)
PUBLIC 47ebc 0 AFEditorUI::onUpdateFilter()
PUBLIC 48854 0 AdvFilterPopup::setup()
PUBLIC 49de0 0 AdvFilterPopup::addLine(std::__ndk1::basic_string<char, std::__ndk1::char_traits<char>, std::__ndk1::allocator<char> >, std::__ndk1::basic_string<char, std::__ndk1::char_traits<char>, std::__ndk1::allocator<char> >, Filter, cocos2d::CCPoint)
PUBLIC 4a6ac 0 AdvFilterPopup::createToggler(std::__ndk1::basic_string<char, std::__ndk1::char_traits<char>, std::__ndk1::allocator<char> >, void (cocos2d::CCObject::*)(cocos2d::CCObject*))
PUBLIC 4a8d0 0 AdvFilterPopup::onToggleColor(cocos2d::CCObject*)
PUBLIC 4ab1c 0 AdvFilterPopup::onToggleScale(cocos2d::CCObject*)
PUBLIC 4ac98 0 AdvFilterPopup::onMoreColors(cocos2d::CCObject*)
PUBLIC 4b3a8 0 AdvFilterPopup::onZLayer(cocos2d::CCObject*)
PUBLIC 4b550 0 AdvFilterPopup::onReset(cocos2d::CCObject*)
PUBLIC 4b924 0 AdvFilterPopup::onUpdateValue()
PUBLIC 4bbb8 0 AdvFilterPopup::onInputArrow(cocos2d::CCObject*)
PUBLIC 4bddc 0 geode::cocos::CCArrayExt<CCMenuItemToggler*, CCMenuItemToggler>::~CCArrayExt()
PUBLIC 4bdf8 0 MoreColorsPopup::setup(ColorType, std::__ndk1::function<void (int, std::__ndk1::basic_string<char, std::__ndk1::char_traits<char>, std::__ndk1::allocator<char> >, hsvValue)>)
PUBLIC 4cb74 0 geode::Popup<ColorType, std::__ndk1::function<void (int, std::__ndk1::basic_string<char, std::__ndk1::char_traits<char>, std::__ndk1::allocator<char> >, hsvValue)> >::setTitle(std::__ndk1::basic_string<char, std::__ndk1::char_traits<char>, std::__ndk1::allocator<char> > const&, char const*, float, float)
PUBLIC 4ccc4 0 MoreColorsPopup::onColor(cocos2d::CCObject*)
PUBLIC 4ce00 0 MoreColorsPopup::onUpdateValue()
PUBLIC 4d040 0 geode::Popup<>::~Popup()
PUBLIC 4d0ac 0 AdvFilterPopup::~AdvFilterPopup()
PUBLIC 4d120 0 geode::Popup<>::registerWithTouchDispatcher()
PUBLIC 4d14c 0 geode::Popup<>::keyDown(cocos2d::enumKeyCodes)
PUBLIC 4d174 0 geode::Popup<>::onClose(cocos2d::CCObject*)
PUBLIC 4d2bc 0 {virtual override thunk({offset(-320)}, AdvFilterPopup::~AdvFilterPopup())}
PUBLIC 4d328 0 {virtual override thunk({offset(-320)}, AdvFilterPopup::~AdvFilterPopup())}
PUBLIC 4d39c 0 {virtual override thunk({offset(-344)}, geode::Popup<>::keyDown(cocos2d::enumKeyCodes))}
PUBLIC 4d3c8 0 MoreColorsPopup::~MoreColorsPopup()
PUBLIC 4d4a0 0 MoreColorsPopup::~MoreColorsPopup()
PUBLIC 4d580 0 geode::Popup<ColorType, std::__ndk1::function<void (int, std::__ndk1::basic_string<char, std::__ndk1::char_traits<char>, std::__ndk1::allocator<char> >, hsvValue)> >::registerWithTouchDispatcher()
PUBLIC 4d5ac 0 geode::Popup<ColorType, std::__ndk1::function<void (int, std::__ndk1::basic_string<char, std::__ndk1::char_traits<char>, std::__ndk1::allocator<char> >, hsvValue)> >::keyDown(cocos2d::enumKeyCodes)
PUBLIC 4d5d4 0 geode::Popup<ColorType, std::__ndk1::function<void (int, std::__ndk1::basic_string<char, std::__ndk1::char_traits<char>, std::__ndk1::allocator<char> >, hsvValue)> >::onClose(cocos2d::CCObject*)
PUBLIC 4d71c 0 {virtual override thunk({offset(-320)}, MoreColorsPopup::~MoreColorsPopup())}
PUBLIC 4d7f8 0 {virtual override thunk({offset(-320)}, MoreColorsPopup::~MoreColorsPopup())}
PUBLIC 4d8dc 0 {virtual override thunk({offset(-344)}, geode::Popup<ColorType, std::__ndk1::function<void (int, std::__ndk1::basic_string<char, std::__ndk1::char_traits<char>, std::__ndk1::allocator<char> >, hsvValue)> >::keyDown(cocos2d::enumKeyCodes))}
PUBLIC 4d908 0 __cxx_global_var_init
PUBLIC 4dd88 0 geode::modifier::ModifyBase<geode::modifier::ModifyDerive<AFEditorUI, EditorUI> >::~ModifyBase()
PUBLIC 4dda4 0 geode::modifier::FieldIntermediate<AFEditorUI, EditorUI>::self()
PUBLIC 4df60 0 geode::modifier::FieldContainer::getField(unsigned long)
PUBLIC 4e218 0 geode::modifier::FieldContainer::setField(unsigned long, unsigned long, std::__ndk1::function<void (void*)>)
PUBLIC 4e32c 0 geode::modifier::FieldIntermediate<AFEditorUI, EditorUI>::fieldDestructor(void*)
PUBLIC 4e37c 0 std::__ndk1::vector<void*, std::__ndk1::allocator<void*> >::__throw_length_error[abi:ne180000]() const
PUBLIC 4e390 0 std::__ndk1::vector<std::__ndk1::function<void (void*)>, std::__ndk1::allocator<std::__ndk1::function<void (void*)> > >::__push_back_slow_path<std::__ndk1::function<void (void*)> >(std::__ndk1::function<void (void*)>&&)
PUBLIC 4e5bc 0 std::__ndk1::vector<std::__ndk1::function<void (void*)>, std::__ndk1::allocator<std::__ndk1::function<void (void*)> > >::__throw_length_error[abi:ne180000]() const
PUBLIC 4e5d0 0 std::__ndk1::vector<void*, std::__ndk1::allocator<void*> >::__throw_out_of_range[abi:ne180000]() const
PUBLIC 4e5e4 0 std::__ndk1::vector<std::__ndk1::function<void (void*)>, std::__ndk1::allocator<std::__ndk1::function<void (void*)> > >::__throw_out_of_range[abi:ne180000]() const
PUBLIC 4e5f8 0 std::__ndk1::__tree<ZLayer, std::__ndk1::less<ZLayer>, std::__ndk1::allocator<ZLayer> >::destroy(std::__ndk1::__tree_node<ZLayer, void*>*)
PUBLIC 4e634 0 std::__ndk1::__function::__base<void (void*)>::~__base()
PUBLIC 4e638 0 std::__ndk1::__function::__func<void (*)(void*), std::__ndk1::allocator<void (*)(void*)>, void (void*)>::~__func()
PUBLIC 4e63c 0 std::__ndk1::__function::__func<void (*)(void*), std::__ndk1::allocator<void (*)(void*)>, void (void*)>::__clone() const
PUBLIC 4e674 0 std::__ndk1::__function::__func<void (*)(void*), std::__ndk1::allocator<void (*)(void*)>, void (void*)>::__clone(std::__ndk1::__function::__base<void (void*)>*) const
PUBLIC 4e68c 0 std::__ndk1::__function::__func<void (*)(void*), std::__ndk1::allocator<void (*)(void*)>, void (void*)>::destroy()
PUBLIC 4e690 0 std::__ndk1::__function::__func<void (*)(void*), std::__ndk1::allocator<void (*)(void*)>, void (void*)>::destroy_deallocate()
PUBLIC 4e694 0 std::__ndk1::__function::__func<void (*)(void*), std::__ndk1::allocator<void (*)(void*)>, void (void*)>::operator()(void*&&)
PUBLIC 4e6a4 0 std::__ndk1::__function::__func<void (*)(void*), std::__ndk1::allocator<void (*)(void*)>, void (void*)>::target(std::type_info const&) const
PUBLIC 4e6c0 0 std::__ndk1::__function::__func<void (*)(void*), std::__ndk1::allocator<void (*)(void*)>, void (void*)>::target_type() const
PUBLIC 4e6cc 0 geode::Popup<>::~Popup()
PUBLIC 4e6d0 0 {virtual override thunk({offset(-320)}, geode::Popup<>::~Popup())}
PUBLIC 4e73c 0 {virtual override thunk({offset(-320)}, geode::Popup<>::~Popup())}
PUBLIC 4e740 0 geode::Popup<ColorType, std::__ndk1::function<void (int, std::__ndk1::basic_string<char, std::__ndk1::char_traits<char>, std::__ndk1::allocator<char> >, hsvValue)> >::~Popup()
PUBLIC 4e7ac 0 geode::Popup<ColorType, std::__ndk1::function<void (int, std::__ndk1::basic_string<char, std::__ndk1::char_traits<char>, std::__ndk1::allocator<char> >, hsvValue)> >::~Popup()
PUBLIC 4e7b0 0 {virtual override thunk({offset(-320)}, geode::Popup<ColorType, std::__ndk1::function<void (int, std::__ndk1::basic_string<char, std::__ndk1::char_traits<char>, std::__ndk1::allocator<char> >, hsvValue)> >::~Popup())}
PUBLIC 4e81c 0 {virtual override thunk({offset(-320)}, geode::Popup<ColorType, std::__ndk1::function<void (int, std::__ndk1::basic_string<char, std::__ndk1::char_traits<char>, std::__ndk1::allocator<char> >, hsvValue)> >::~Popup())}
PUBLIC 4e820 0 geode::modifier::ModifyDerive<AFEditorUI, EditorUI>::apply()
PUBLIC 4f168 0 geode::modifier::ModifyBase<geode::modifier::ModifyDerive<AFEditorUI, EditorUI> >::apply()
PUBLIC 4f16c 0 geode::modifier::AsStaticFunction_canSelectObject<AFEditorUI, bool (AFEditorUI::*)(GameObject*)>::Impl<bool (AFEditorUI::*)(GameObject*)>::function(AFEditorUI*, GameObject*)
PUBLIC 4f1d0 0 geode::modifier::AsStaticFunction_init<AFEditorUI, bool (AFEditorUI::*)(LevelEditorLayer*)>::Impl<bool (AFEditorUI::*)(LevelEditorLayer*)>::function(AFEditorUI*, LevelEditorLayer*)
PUBLIC 4f598 0 geode::modifier::AsStaticFunction_selectObjects<AFEditorUI, void (AFEditorUI::*)(cocos2d::CCArray*, bool)>::Impl<void (AFEditorUI::*)(cocos2d::CCArray*, bool)>::function(AFEditorUI*, cocos2d::CCArray*, bool)
PUBLIC 4f768 0 std::__ndk1::vector<tulip::hook::AbstractType, std::__ndk1::allocator<tulip::hook::AbstractType> >::__throw_length_error[abi:ne180000]() const
PUBLIC 4f77c 0 geode::cast::traverseTypeinfoFor(void*, geode::cast::ClassTypeinfoType const*, char const*)
PUBLIC 4f880 0 geode::impl::ResultData<matjson::Value&, std::__ndk1::basic_string<char, std::__ndk1::char_traits<char>, std::__ndk1::allocator<char> > >::~ResultData()
PUBLIC 4f8f4 0 geode::impl::ResultData<SavedFilter, std::__ndk1::basic_string<char, std::__ndk1::char_traits<char>, std::__ndk1::allocator<char> > >::~ResultData()
PUBLIC 4f968 0 geode::impl::ResultData<double, std::__ndk1::basic_string<char, std::__ndk1::char_traits<char>, std::__ndk1::allocator<char> > >::~ResultData()
PUBLIC 4f9dc 0 geode::impl::ResultData<long, std::__ndk1::basic_string<char, std::__ndk1::char_traits<char>, std::__ndk1::allocator<char> > >::~ResultData()
PUBLIC 4fa50 0 geode::impl::ResultData<std::__ndk1::vector<matjson::Value, std::__ndk1::allocator<matjson::Value> >&, std::__ndk1::basic_string<char, std::__ndk1::char_traits<char>, std::__ndk1::allocator<char> > >::~ResultData()
PUBLIC 4fac4 0 std::__ndk1::vector<matjson::Value, std::__ndk1::allocator<matjson::Value> >::~vector[abi:ne180000]()
PUBLIC 4fb2c 0 geode::impl::ResultData<std::__ndk1::vector<matjson::Value, std::__ndk1::allocator<matjson::Value> > const&, std::__ndk1::basic_string<char, std::__ndk1::char_traits<char>, std::__ndk1::allocator<char> > >::~ResultData()
PUBLIC 4fba0 0 _ZN5geode15UnwrapExceptionC2IRNSt6__ndk112basic_stringIcNS2_11char_traitsIcEENS2_9allocatorIcEEEEQsr4implE18IsStringStreamableIT_EEENS_4impl6ErrTagEOSA_
PUBLIC 4fd08 0 std::__ndk1::__exception_guard_exceptions<std::__ndk1::vector<matjson::Value, std::__ndk1::allocator<matjson::Value> >::__destroy_vector>::~__exception_guard_exceptions[abi:ne180000]()
PUBLIC 4fd84 0 std::__ndk1::vector<matjson::Value, std::__ndk1::allocator<matjson::Value> >::__throw_length_error[abi:ne180000]() const
PUBLIC 4fd98 0 std::__ndk1::__variant_detail::__visitation::__base::__dispatcher<(unsigned long)0>::__dispatch[abi:ne180000]<std::__ndk1::__variant_detail::__dtor<std::__ndk1::__variant_detail::__traits<double, std::__ndk1::basic_string<char, std::__ndk1::char_traits<char>, std::__ndk1::allocator<char> > >, (std::__ndk1::__variant_detail::_Trait)1>::__destroy[abi:ne180000]()::{lambda(auto:1&)#1}, std::__ndk1::__variant_detail::__base<(std::__ndk1::__variant_detail::__traits<double, std::__ndk1::basic_string<char, std::__ndk1::char_traits<char>, std::__ndk1::allocator<char> > >)1, double, std::__ndk1::allocator<char> >&>(std::__ndk1::__variant_detail::__dtor<std::__ndk1::__variant_detail::__traits<double, std::__ndk1::basic_string<char, std::__ndk1::char_traits<char>, std::__ndk1::allocator<char> > >, (std::__ndk1::__variant_detail::_Trait)1>, std::__ndk1::__variant_detail::__base<(std::__ndk1::__variant_detail::__traits<double, std::__ndk1::basic_string<char, std::__ndk1::char_traits<char>, std::__ndk1::allocator<char> > >)1, double, std::__ndk1::allocator<char> >&)
PUBLIC 4fd9c 0 std::__ndk1::__variant_detail::__visitation::__base::__dispatcher<(unsigned long)1>::__dispatch[abi:ne180000]<std::__ndk1::__variant_detail::__dtor<std::__ndk1::__variant_detail::__traits<double, std::__ndk1::basic_string<char, std::__ndk1::char_traits<char>, std::__ndk1::allocator<char> > >, (std::__ndk1::__variant_detail::_Trait)1>::__destroy[abi:ne180000]()::{lambda(auto:1&)#1}, std::__ndk1::__variant_detail::__base<(std::__ndk1::__variant_detail::__traits<double, std::__ndk1::basic_string<char, std::__ndk1::char_traits<char>, std::__ndk1::allocator<char> > >)1, double, std::__ndk1::allocator<char> >&>(std::__ndk1::__variant_detail::__dtor<std::__ndk1::__variant_detail::__traits<double, std::__ndk1::basic_string<char, std::__ndk1::char_traits<char>, std::__ndk1::allocator<char> > >, (std::__ndk1::__variant_detail::_Trait)1>, std::__ndk1::__variant_detail::__base<(std::__ndk1::__variant_detail::__traits<double, std::__ndk1::basic_string<char, std::__ndk1::char_traits<char>, std::__ndk1::allocator<char> > >)1, double, std::__ndk1::allocator<char> >&)
PUBLIC 4fdb0 0 std::__ndk1::__variant_detail::__visitation::__base::__dispatcher<(unsigned long)0>::__dispatch[abi:ne180000]<std::__ndk1::__variant_detail::__dtor<std::__ndk1::__variant_detail::__traits<long, std::__ndk1::basic_string<char, std::__ndk1::char_traits<char>, std::__ndk1::allocator<char> > >, (std::__ndk1::__variant_detail::_Trait)1>::__destroy[abi:ne180000]()::{lambda(auto:1&)#1}, std::__ndk1::__variant_detail::__base<(std::__ndk1::__variant_detail::__traits<long, std::__ndk1::basic_string<char, std::__ndk1::char_traits<char>, std::__ndk1::allocator<char> > >)1, long, std::__ndk1::allocator<char> >&>(std::__ndk1::__variant_detail::__dtor<std::__ndk1::__variant_detail::__traits<long, std::__ndk1::basic_string<char, std::__ndk1::char_traits<char>, std::__ndk1::allocator<char> > >, (std::__ndk1::__variant_detail::_Trait)1>, std::__ndk1::__variant_detail::__base<(std::__ndk1::__variant_detail::__traits<long, std::__ndk1::basic_string<char, std::__ndk1::char_traits<char>, std::__ndk1::allocator<char> > >)1, long, std::__ndk1::allocator<char> >&)
PUBLIC 4fdb4 0 std::__ndk1::__variant_detail::__visitation::__base::__dispatcher<(unsigned long)1>::__dispatch[abi:ne180000]<std::__ndk1::__variant_detail::__dtor<std::__ndk1::__variant_detail::__traits<long, std::__ndk1::basic_string<char, std::__ndk1::char_traits<char>, std::__ndk1::allocator<char> > >, (std::__ndk1::__variant_detail::_Trait)1>::__destroy[abi:ne180000]()::{lambda(auto:1&)#1}, std::__ndk1::__variant_detail::__base<(std::__ndk1::__variant_detail::__traits<long, std::__ndk1::basic_string<char, std::__ndk1::char_traits<char>, std::__ndk1::allocator<char> > >)1, long, std::__ndk1::allocator<char> >&>(std::__ndk1::__variant_detail::__dtor<std::__ndk1::__variant_detail::__traits<long, std::__ndk1::basic_string<char, std::__ndk1::char_traits<char>, std::__ndk1::allocator<char> > >, (std::__ndk1::__variant_detail::_Trait)1>, std::__ndk1::__variant_detail::__base<(std::__ndk1::__variant_detail::__traits<long, std::__ndk1::basic_string<char, std::__ndk1::char_traits<char>, std::__ndk1::allocator<char> > >)1, long, std::__ndk1::allocator<char> >&)
PUBLIC 4fdc8 0 std::__ndk1::__variant_detail::__visitation::__base::__dispatcher<(unsigned long)0>::__dispatch[abi:ne180000]<std::__ndk1::__variant_detail::__dtor<std::__ndk1::__variant_detail::__traits<std::__ndk1::reference_wrapper<std::__ndk1::vector<matjson::Value, std::__ndk1::allocator<matjson> > >, std::__ndk1::basic_string<char, std::__ndk1::char_traits<char>, matjson::Value<char> > >, (std::__ndk1::__variant_detail::_Trait)1>::__destroy[abi:ne180000]()::{lambda(auto:1&)#1}, std::__ndk1::__variant_detail::__base<(std::__ndk1::__variant_detail::__traits<std::__ndk1::reference_wrapper<std::__ndk1::vector<matjson::Value, std::__ndk1::allocator<matjson> > >, std::__ndk1::basic_string<char, std::__ndk1::char_traits<char>, matjson::Value<char> > >)1, std::__ndk1::vector<matjson::Value, std::__ndk1::allocator<matjson> >, matjson::Value<char> >&>(std::__ndk1::__variant_detail::__dtor<std::__ndk1::__variant_detail::__traits<std::__ndk1::reference_wrapper<std::__ndk1::vector<matjson::Value, std::__ndk1::allocator<matjson> > >, std::__ndk1::basic_string<char, std::__ndk1::char_traits<char>, matjson::Value<char> > >, (std::__ndk1::__variant_detail::_Trait)1>, std::__ndk1::__variant_detail::__base<(std::__ndk1::__variant_detail::__traits<std::__ndk1::reference_wrapper<std::__ndk1::vector<matjson::Value, std::__ndk1::allocator<matjson> > >, std::__ndk1::basic_string<char, std::__ndk1::char_traits<char>, matjson::Value<char> > >)1, std::__ndk1::vector<matjson::Value, std::__ndk1::allocator<matjson> >, matjson::Value<char> >&)
PUBLIC 4fdcc 0 std::__ndk1::__variant_detail::__visitation::__base::__dispatcher<(unsigned long)1>::__dispatch[abi:ne180000]<std::__ndk1::__variant_detail::__dtor<std::__ndk1::__variant_detail::__traits<std::__ndk1::reference_wrapper<std::__ndk1::vector<matjson::Value, std::__ndk1::allocator<matjson> > >, std::__ndk1::basic_string<char, std::__ndk1::char_traits<char>, matjson::Value<char> > >, (std::__ndk1::__variant_detail::_Trait)1>::__destroy[abi:ne180000]()::{lambda(auto:1&)#1}, std::__ndk1::__variant_detail::__base<(std::__ndk1::__variant_detail::__traits<std::__ndk1::reference_wrapper<std::__ndk1::vector<matjson::Value, std::__ndk1::allocator<matjson> > >, std::__ndk1::basic_string<char, std::__ndk1::char_traits<char>, matjson::Value<char> > >)1, std::__ndk1::vector<matjson::Value, std::__ndk1::allocator<matjson> >, matjson::Value<char> >&>(std::__ndk1::__variant_detail::__dtor<std::__ndk1::__variant_detail::__traits<std::__ndk1::reference_wrapper<std::__ndk1::vector<matjson::Value, std::__ndk1::allocator<matjson> > >, std::__ndk1::basic_string<char, std::__ndk1::char_traits<char>, matjson::Value<char> > >, (std::__ndk1::__variant_detail::_Trait)1>, std::__ndk1::__variant_detail::__base<(std::__ndk1::__variant_detail::__traits<std::__ndk1::reference_wrapper<std::__ndk1::vector<matjson::Value, std::__ndk1::allocator<matjson> > >, std::__ndk1::basic_string<char, std::__ndk1::char_traits<char>, matjson::Value<char> > >)1, std::__ndk1::vector<matjson::Value, std::__ndk1::allocator<matjson> >, matjson::Value<char> >&)
PUBLIC 4fde0 0 std::__ndk1::__variant_detail::__visitation::__base::__dispatcher<(unsigned long)0>::__dispatch[abi:ne180000]<std::__ndk1::__variant_detail::__dtor<std::__ndk1::__variant_detail::__traits<std::__ndk1::reference_wrapper<std::__ndk1::vector<matjson::Value, std::__ndk1::allocator<matjson> > const>, std::__ndk1::basic_string<char, std::__ndk1::char_traits<char>, matjson::Value<char> > >, (std::__ndk1::__variant_detail::_Trait)1>::__destroy[abi:ne180000]()::{lambda(auto:1&)#1}, std::__ndk1::__variant_detail::__base<(std::__ndk1::__variant_detail::__traits<std::__ndk1::reference_wrapper<std::__ndk1::vector<matjson::Value, std::__ndk1::allocator<matjson> > const>, std::__ndk1::basic_string<char, std::__ndk1::char_traits<char>, matjson::Value<char> > >)1, std::__ndk1::vector<matjson::Value, std::__ndk1::allocator<matjson> > const, matjson::Value<char> >&>(std::__ndk1::__variant_detail::__dtor<std::__ndk1::__variant_detail::__traits<std::__ndk1::reference_wrapper<std::__ndk1::vector<matjson::Value, std::__ndk1::allocator<matjson> > const>, std::__ndk1::basic_string<char, std::__ndk1::char_traits<char>, matjson::Value<char> > >, (std::__ndk1::__variant_detail::_Trait)1>, std::__ndk1::__variant_detail::__base<(std::__ndk1::__variant_detail::__traits<std::__ndk1::reference_wrapper<std::__ndk1::vector<matjson::Value, std::__ndk1::allocator<matjson> > const>, std::__ndk1::basic_string<char, std::__ndk1::char_traits<char>, matjson::Value<char> > >)1, std::__ndk1::vector<matjson::Value, std::__ndk1::allocator<matjson> > const, matjson::Value<char> >&)
PUBLIC 4fde4 0 std::__ndk1::__variant_detail::__visitation::__base::__dispatcher<(unsigned long)1>::__dispatch[abi:ne180000]<std::__ndk1::__variant_detail::__dtor<std::__ndk1::__variant_detail::__traits<std::__ndk1::reference_wrapper<std::__ndk1::vector<matjson::Value, std::__ndk1::allocator<matjson> > const>, std::__ndk1::basic_string<char, std::__ndk1::char_traits<char>, matjson::Value<char> > >, (std::__ndk1::__variant_detail::_Trait)1>::__destroy[abi:ne180000]()::{lambda(auto:1&)#1}, std::__ndk1::__variant_detail::__base<(std::__ndk1::__variant_detail::__traits<std::__ndk1::reference_wrapper<std::__ndk1::vector<matjson::Value, std::__ndk1::allocator<matjson> > const>, std::__ndk1::basic_string<char, std::__ndk1::char_traits<char>, matjson::Value<char> > >)1, std::__ndk1::vector<matjson::Value, std::__ndk1::allocator<matjson> > const, matjson::Value<char> >&>(std::__ndk1::__variant_detail::__dtor<std::__ndk1::__variant_detail::__traits<std::__ndk1::reference_wrapper<std::__ndk1::vector<matjson::Value, std::__ndk1::allocator<matjson> > const>, std::__ndk1::basic_string<char, std::__ndk1::char_traits<char>, matjson::Value<char> > >, (std::__ndk1::__variant_detail::_Trait)1>, std::__ndk1::__variant_detail::__base<(std::__ndk1::__variant_detail::__traits<std::__ndk1::reference_wrapper<std::__ndk1::vector<matjson::Value, std::__ndk1::allocator<matjson> > const>, std::__ndk1::basic_string<char, std::__ndk1::char_traits<char>, matjson::Value<char> > >)1, std::__ndk1::vector<matjson::Value, std::__ndk1::allocator<matjson> > const, matjson::Value<char> >&)
PUBLIC 4fdf8 0 std::__ndk1::__variant_detail::__visitation::__base::__dispatcher<(unsigned long)0>::__dispatch[abi:ne180000]<std::__ndk1::__variant_detail::__dtor<std::__ndk1::__variant_detail::__traits<std::__ndk1::reference_wrapper<matjson::Value>, std::__ndk1::basic_string<char, std::__ndk1::char_traits<char>, std::__ndk1::allocator<char> > >, (std::__ndk1::__variant_detail::_Trait)1>::__destroy[abi:ne180000]()::{lambda(auto:1&)#1}, std::__ndk1::__variant_detail::__base<(std::__ndk1::__variant_detail::__traits<std::__ndk1::reference_wrapper<matjson::Value>, std::__ndk1::basic_string<char, std::__ndk1::char_traits<char>, std::__ndk1::allocator<char> > >)1, matjson::Value, std::__ndk1::allocator<char> >&>(std::__ndk1::__variant_detail::__dtor<std::__ndk1::__variant_detail::__traits<std::__ndk1::reference_wrapper<matjson::Value>, std::__ndk1::basic_string<char, std::__ndk1::char_traits<char>, std::__ndk1::allocator<char> > >, (std::__ndk1::__variant_detail::_Trait)1>, std::__ndk1::__variant_detail::__base<(std::__ndk1::__variant_detail::__traits<std::__ndk1::reference_wrapper<matjson::Value>, std::__ndk1::basic_string<char, std::__ndk1::char_traits<char>, std::__ndk1::allocator<char> > >)1, matjson::Value, std::__ndk1::allocator<char> >&)
PUBLIC 4fdfc 0 std::__ndk1::__variant_detail::__visitation::__base::__dispatcher<(unsigned long)1>::__dispatch[abi:ne180000]<std::__ndk1::__variant_detail::__dtor<std::__ndk1::__variant_detail::__traits<std::__ndk1::reference_wrapper<matjson::Value>, std::__ndk1::basic_string<char, std::__ndk1::char_traits<char>, std::__ndk1::allocator<char> > >, (std::__ndk1::__variant_detail::_Trait)1>::__destroy[abi:ne180000]()::{lambda(auto:1&)#1}, std::__ndk1::__variant_detail::__base<(std::__ndk1::__variant_detail::__traits<std::__ndk1::reference_wrapper<matjson::Value>, std::__ndk1::basic_string<char, std::__ndk1::char_traits<char>, std::__ndk1::allocator<char> > >)1, matjson::Value, std::__ndk1::allocator<char> >&>(std::__ndk1::__variant_detail::__dtor<std::__ndk1::__variant_detail::__traits<std::__ndk1::reference_wrapper<matjson::Value>, std::__ndk1::basic_string<char, std::__ndk1::char_traits<char>, std::__ndk1::allocator<char> > >, (std::__ndk1::__variant_detail::_Trait)1>, std::__ndk1::__variant_detail::__base<(std::__ndk1::__variant_detail::__traits<std::__ndk1::reference_wrapper<matjson::Value>, std::__ndk1::basic_string<char, std::__ndk1::char_traits<char>, std::__ndk1::allocator<char> > >)1, matjson::Value, std::__ndk1::allocator<char> >&)
PUBLIC 4fe10 0 std::__ndk1::set<ZLayer, std::__ndk1::less<ZLayer>, std::__ndk1::allocator<ZLayer> >::insert[abi:ne180000]<std::__ndk1::__tree_const_iterator<ZLayer, std::__ndk1::__tree_node<ZLayer, void*>*, long> >(std::__ndk1::__tree_const_iterator<ZLayer, std::__ndk1::__tree_node<ZLayer, void*>*, long>, std::__ndk1::__tree_const_iterator<ZLayer, std::__ndk1::__tree_node<ZLayer, void*>*, long>)
PUBLIC 4ff84 0 std::__ndk1::__variant_detail::__visitation::__base::__dispatcher<(unsigned long)0>::__dispatch[abi:ne180000]<std::__ndk1::__variant_detail::__dtor<std::__ndk1::__variant_detail::__traits<SavedFilter, std::__ndk1::basic_string<char, std::__ndk1::char_traits<char>, std::__ndk1::allocator<char> > >, (std::__ndk1::__variant_detail::_Trait)1>::__destroy[abi:ne180000]()::{lambda(auto:1&)#1}, std::__ndk1::__variant_detail::__base<(std::__ndk1::__variant_detail::__traits<SavedFilter, std::__ndk1::basic_string<char, std::__ndk1::char_traits<char>, std::__ndk1::allocator<char> > >)1, std::__ndk1::__variant_detail::__traits, std::__ndk1::allocator<char> >&>(std::__ndk1::__variant_detail::__dtor<std::__ndk1::__variant_detail::__traits<SavedFilter, std::__ndk1::basic_string<char, std::__ndk1::char_traits<char>, std::__ndk1::allocator<char> > >, (std::__ndk1::__variant_detail::_Trait)1>, std::__ndk1::__variant_detail::__base<(std::__ndk1::__variant_detail::__traits<SavedFilter, std::__ndk1::basic_string<char, std::__ndk1::char_traits<char>, std::__ndk1::allocator<char> > >)1, std::__ndk1::__variant_detail::__traits, std::__ndk1::allocator<char> >&)
PUBLIC 4ff8c 0 std::__ndk1::__variant_detail::__visitation::__base::__dispatcher<(unsigned long)1>::__dispatch[abi:ne180000]<std::__ndk1::__variant_detail::__dtor<std::__ndk1::__variant_detail::__traits<SavedFilter, std::__ndk1::basic_string<char, std::__ndk1::char_traits<char>, std::__ndk1::allocator<char> > >, (std::__ndk1::__variant_detail::_Trait)1>::__destroy[abi:ne180000]()::{lambda(auto:1&)#1}, std::__ndk1::__variant_detail::__base<(std::__ndk1::__variant_detail::__traits<SavedFilter, std::__ndk1::basic_string<char, std::__ndk1::char_traits<char>, std::__ndk1::allocator<char> > >)1, std::__ndk1::__variant_detail::__traits, std::__ndk1::allocator<char> >&>(std::__ndk1::__variant_detail::__dtor<std::__ndk1::__variant_detail::__traits<SavedFilter, std::__ndk1::basic_string<char, std::__ndk1::char_traits<char>, std::__ndk1::allocator<char> > >, (std::__ndk1::__variant_detail::_Trait)1>, std::__ndk1::__variant_detail::__base<(std::__ndk1::__variant_detail::__traits<SavedFilter, std::__ndk1::basic_string<char, std::__ndk1::char_traits<char>, std::__ndk1::allocator<char> > >)1, std::__ndk1::__variant_detail::__traits, std::__ndk1::allocator<char> >&)
PUBLIC 4ffa0 0 std::__ndk1::__tree<ZLayer, std::__ndk1::less<ZLayer>, std::__ndk1::allocator<ZLayer> >::__assign_multi<std::__ndk1::__tree_const_iterator<ZLayer, std::__ndk1::__tree_node<ZLayer, void*>*, long> >(std::__ndk1::__tree_const_iterator<ZLayer, std::__ndk1::__tree_node<ZLayer, void*>*, long>, std::__ndk1::__tree_const_iterator<ZLayer, std::__ndk1::__tree_node<ZLayer, void*>*, long>)
PUBLIC 502c4 0 std::__ndk1::vector<matjson::Value, std::__ndk1::allocator<matjson::Value> >::__push_back_slow_path<matjson::Value>(matjson::Value&&)
PUBLIC 503dc 0 _ZN7matjson9SerializeINSt6__ndk16vectorIfNS1_9allocatorIfEEEEE6toJsonERKS5_QrQRKT__XcvNS_5ValueEfp_E
PUBLIC 505e4 0 std::__ndk1::__function::__func<AdvFilterPopup::addLine(std::__ndk1::basic_string<char, std::__ndk1::char_traits<char>, std::__ndk1::allocator<char> >, std::__ndk1::basic_string<char, std::__ndk1::char_traits<char>, std::__ndk1::allocator<char> >, Filter, cocos2d::CCPoint)::$_0, std::__ndk1::allocator<AdvFilterPopup::addLine(std::__ndk1::basic_string<char, std::__ndk1::char_traits<char>, std::__ndk1::allocator<char> >, std::__ndk1::basic_string<char, std::__ndk1::char_traits<char>, std::__ndk1::allocator<char> >, Filter, cocos2d::CCPoint)::$_0>, void (std::__ndk1::basic_string<char, std::__ndk1::char_traits<char>, std::__ndk1::allocator<char> > const&)>::~__func()
PUBLIC 505e8 0 std::__ndk1::__function::__func<AdvFilterPopup::addLine(std::__ndk1::basic_string<char, std::__ndk1::char_traits<char>, std::__ndk1::allocator<char> >, std::__ndk1::basic_string<char, std::__ndk1::char_traits<char>, std::__ndk1::allocator<char> >, Filter, cocos2d::CCPoint)::$_0, std::__ndk1::allocator<AdvFilterPopup::addLine(std::__ndk1::basic_string<char, std::__ndk1::char_traits<char>, std::__ndk1::allocator<char> >, std::__ndk1::basic_string<char, std::__ndk1::char_traits<char>, std::__ndk1::allocator<char> >, Filter, cocos2d::CCPoint)::$_0>, void (std::__ndk1::basic_string<char, std::__ndk1::char_traits<char>, std::__ndk1::allocator<char> > const&)>::__clone() const
PUBLIC 50620 0 std::__ndk1::__function::__func<AdvFilterPopup::addLine(std::__ndk1::basic_string<char, std::__ndk1::char_traits<char>, std::__ndk1::allocator<char> >, std::__ndk1::basic_string<char, std::__ndk1::char_traits<char>, std::__ndk1::allocator<char> >, Filter, cocos2d::CCPoint)::$_0, std::__ndk1::allocator<AdvFilterPopup::addLine(std::__ndk1::basic_string<char, std::__ndk1::char_traits<char>, std::__ndk1::allocator<char> >, std::__ndk1::basic_string<char, std::__ndk1::char_traits<char>, std::__ndk1::allocator<char> >, Filter, cocos2d::CCPoint)::$_0>, void (std::__ndk1::basic_string<char, std::__ndk1::char_traits<char>, std::__ndk1::allocator<char> > const&)>::__clone(std::__ndk1::__function::__base<void (std::__ndk1::basic_string<char, std::__ndk1::char_traits<char>, std::__ndk1::allocator<char> > const&)>*) const
PUBLIC 50638 0 std::__ndk1::__function::__func<AdvFilterPopup::addLine(std::__ndk1::basic_string<char, std::__ndk1::char_traits<char>, std::__ndk1::allocator<char> >, std::__ndk1::basic_string<char, std::__ndk1::char_traits<char>, std::__ndk1::allocator<char> >, Filter, cocos2d::CCPoint)::$_0, std::__ndk1::allocator<AdvFilterPopup::addLine(std::__ndk1::basic_string<char, std::__ndk1::char_traits<char>, std::__ndk1::allocator<char> >, std::__ndk1::basic_string<char, std::__ndk1::char_traits<char>, std::__ndk1::allocator<char> >, Filter, cocos2d::CCPoint)::$_0>, void (std::__ndk1::basic_string<char, std::__ndk1::char_traits<char>, std::__ndk1::allocator<char> > const&)>::destroy()
PUBLIC 5063c 0 std::__ndk1::__function::__func<AdvFilterPopup::addLine(std::__ndk1::basic_string<char, std::__ndk1::char_traits<char>, std::__ndk1::allocator<char> >, std::__ndk1::basic_string<char, std::__ndk1::char_traits<char>, std::__ndk1::allocator<char> >, Filter, cocos2d::CCPoint)::$_0, std::__ndk1::allocator<AdvFilterPopup::addLine(std::__ndk1::basic_string<char, std::__ndk1::char_traits<char>, std::__ndk1::allocator<char> >, std::__ndk1::basic_string<char, std::__ndk1::char_traits<char>, std::__ndk1::allocator<char> >, Filter, cocos2d::CCPoint)::$_0>, void (std::__ndk1::basic_string<char, std::__ndk1::char_traits<char>, std::__ndk1::allocator<char> > const&)>::destroy_deallocate()
PUBLIC 50640 0 std::__ndk1::__function::__func<AdvFilterPopup::addLine(std::__ndk1::basic_string<char, std::__ndk1::char_traits<char>, std::__ndk1::allocator<char> >, std::__ndk1::basic_string<char, std::__ndk1::char_traits<char>, std::__ndk1::allocator<char> >, Filter, cocos2d::CCPoint)::$_0, std::__ndk1::allocator<AdvFilterPopup::addLine(std::__ndk1::basic_string<char, std::__ndk1::char_traits<char>, std::__ndk1::allocator<char> >, std::__ndk1::basic_string<char, std::__ndk1::char_traits<char>, std::__ndk1::allocator<char> >, Filter, cocos2d::CCPoint)::$_0>, void (std::__ndk1::basic_string<char, std::__ndk1::char_traits<char>, std::__ndk1::allocator<char> > const&)>::operator()(std::__ndk1::basic_string<char, std::__ndk1::char_traits<char>, std::__ndk1::allocator<char> > const&)
PUBLIC 50710 0 std::__ndk1::__function::__func<AdvFilterPopup::addLine(std::__ndk1::basic_string<char, std::__ndk1::char_traits<char>, std::__ndk1::allocator<char> >, std::__ndk1::basic_string<char, std::__ndk1::char_traits<char>, std::__ndk1::allocator<char> >, Filter, cocos2d::CCPoint)::$_0, std::__ndk1::allocator<AdvFilterPopup::addLine(std::__ndk1::basic_string<char, std::__ndk1::char_traits<char>, std::__ndk1::allocator<char> >, std::__ndk1::basic_string<char, std::__ndk1::char_traits<char>, std::__ndk1::allocator<char> >, Filter, cocos2d::CCPoint)::$_0>, void (std::__ndk1::basic_string<char, std::__ndk1::char_traits<char>, std::__ndk1::allocator<char> > const&)>::target(std::type_info const&) const
PUBLIC 5072c 0 std::__ndk1::__function::__func<AdvFilterPopup::addLine(std::__ndk1::basic_string<char, std::__ndk1::char_traits<char>, std::__ndk1::allocator<char> >, std::__ndk1::basic_string<char, std::__ndk1::char_traits<char>, std::__ndk1::allocator<char> >, Filter, cocos2d::CCPoint)::$_0, std::__ndk1::allocator<AdvFilterPopup::addLine(std::__ndk1::basic_string<char, std::__ndk1::char_traits<char>, std::__ndk1::allocator<char> >, std::__ndk1::basic_string<char, std::__ndk1::char_traits<char>, std::__ndk1::allocator<char> >, Filter, cocos2d::CCPoint)::$_0>, void (std::__ndk1::basic_string<char, std::__ndk1::char_traits<char>, std::__ndk1::allocator<char> > const&)>::target_type() const
PUBLIC 50738 0 std::__ndk1::__function::__base<void (int, std::__ndk1::basic_string<char, std::__ndk1::char_traits<char>, std::__ndk1::allocator<char> >, hsvValue)>::~__base()
PUBLIC 5073c 0 std::__ndk1::__function::__func<AdvFilterPopup::onMoreColors(cocos2d::CCObject*)::$_0, std::__ndk1::allocator<AdvFilterPopup::onMoreColors(cocos2d::CCObject*)::$_0>, void (int, std::__ndk1::basic_string<char, std::__ndk1::char_traits<char>, std::__ndk1::allocator<char> >, hsvValue)>::~__func()
PUBLIC 50740 0 std::__ndk1::__function::__func<AdvFilterPopup::onMoreColors(cocos2d::CCObject*)::$_0, std::__ndk1::allocator<AdvFilterPopup::onMoreColors(cocos2d::CCObject*)::$_0>, void (int, std::__ndk1::basic_string<char, std::__ndk1::char_traits<char>, std::__ndk1::allocator<char> >, hsvValue)>::__clone() const
PUBLIC 50778 0 std::__ndk1::__function::__func<AdvFilterPopup::onMoreColors(cocos2d::CCObject*)::$_0, std::__ndk1::allocator<AdvFilterPopup::onMoreColors(cocos2d::CCObject*)::$_0>, void (int, std::__ndk1::basic_string<char, std::__ndk1::char_traits<char>, std::__ndk1::allocator<char> >, hsvValue)>::__clone(std::__ndk1::__function::__base<void (int, std::__ndk1::basic_string<char, std::__ndk1::char_traits<char>, std::__ndk1::allocator<char> >, hsvValue)>*) const
PUBLIC 50790 0 std::__ndk1::__function::__func<AdvFilterPopup::onMoreColors(cocos2d::CCObject*)::$_0, std::__ndk1::allocator<AdvFilterPopup::onMoreColors(cocos2d::CCObject*)::$_0>, void (int, std::__ndk1::basic_string<char, std::__ndk1::char_traits<char>, std::__ndk1::allocator<char> >, hsvValue)>::destroy()
PUBLIC 50794 0 std::__ndk1::__function::__func<AdvFilterPopup::onMoreColors(cocos2d::CCObject*)::$_0, std::__ndk1::allocator<AdvFilterPopup::onMoreColors(cocos2d::CCObject*)::$_0>, void (int, std::__ndk1::basic_string<char, std::__ndk1::char_traits<char>, std::__ndk1::allocator<char> >, hsvValue)>::destroy_deallocate()
PUBLIC 50798 0 std::__ndk1::__function::__func<AdvFilterPopup::onMoreColors(cocos2d::CCObject*)::$_0, std::__ndk1::allocator<AdvFilterPopup::onMoreColors(cocos2d::CCObject*)::$_0>, void (int, std::__ndk1::basic_string<char, std::__ndk1::char_traits<char>, std::__ndk1::allocator<char> >, hsvValue)>::operator()(int&&, std::__ndk1::basic_string<char, std::__ndk1::char_traits<char>, std::__ndk1::allocator<char> >&&, hsvValue&&)
PUBLIC 508c0 0 std::__ndk1::__function::__func<AdvFilterPopup::onMoreColors(cocos2d::CCObject*)::$_0, std::__ndk1::allocator<AdvFilterPopup::onMoreColors(cocos2d::CCObject*)::$_0>, void (int, std::__ndk1::basic_string<char, std::__ndk1::char_traits<char>, std::__ndk1::allocator<char> >, hsvValue)>::target(std::type_info const&) const
PUBLIC 508dc 0 std::__ndk1::__function::__func<AdvFilterPopup::onMoreColors(cocos2d::CCObject*)::$_0, std::__ndk1::allocator<AdvFilterPopup::onMoreColors(cocos2d::CCObject*)::$_0>, void (int, std::__ndk1::basic_string<char, std::__ndk1::char_traits<char>, std::__ndk1::allocator<char> >, hsvValue)>::target_type() const
PUBLIC 508e8 0 std::__ndk1::__function::__func<MoreColorsPopup::setup(ColorType, std::__ndk1::function<void (int, std::__ndk1::basic_string<char, std::__ndk1::char_traits<char>, std::__ndk1::allocator<char> >, hsvValue)>)::$_0, std::__ndk1::allocator<MoreColorsPopup::setup(ColorType, std::__ndk1::function<void (int, std::__ndk1::basic_string<char, std::__ndk1::char_traits<char>, std::__ndk1::allocator<char> >, hsvValue)>)::$_0>, void (std::__ndk1::basic_string<char, std::__ndk1::char_traits<char>, std::__ndk1::allocator<char> > const&)>::~__func()
PUBLIC 508ec 0 std::__ndk1::__function::__func<MoreColorsPopup::setup(ColorType, std::__ndk1::function<void (int, std::__ndk1::basic_string<char, std::__ndk1::char_traits<char>, std::__ndk1::allocator<char> >, hsvValue)>)::$_0, std::__ndk1::allocator<MoreColorsPopup::setup(ColorType, std::__ndk1::function<void (int, std::__ndk1::basic_string<char, std::__ndk1::char_traits<char>, std::__ndk1::allocator<char> >, hsvValue)>)::$_0>, void (std::__ndk1::basic_string<char, std::__ndk1::char_traits<char>, std::__ndk1::allocator<char> > const&)>::__clone() const
PUBLIC 50924 0 std::__ndk1::__function::__func<MoreColorsPopup::setup(ColorType, std::__ndk1::function<void (int, std::__ndk1::basic_string<char, std::__ndk1::char_traits<char>, std::__ndk1::allocator<char> >, hsvValue)>)::$_0, std::__ndk1::allocator<MoreColorsPopup::setup(ColorType, std::__ndk1::function<void (int, std::__ndk1::basic_string<char, std::__ndk1::char_traits<char>, std::__ndk1::allocator<char> >, hsvValue)>)::$_0>, void (std::__ndk1::basic_string<char, std::__ndk1::char_traits<char>, std::__ndk1::allocator<char> > const&)>::__clone(std::__ndk1::__function::__base<void (std::__ndk1::basic_string<char, std::__ndk1::char_traits<char>, std::__ndk1::allocator<char> > const&)>*) const
PUBLIC 5093c 0 std::__ndk1::__function::__func<MoreColorsPopup::setup(ColorType, std::__ndk1::function<void (int, std::__ndk1::basic_string<char, std::__ndk1::char_traits<char>, std::__ndk1::allocator<char> >, hsvValue)>)::$_0, std::__ndk1::allocator<MoreColorsPopup::setup(ColorType, std::__ndk1::function<void (int, std::__ndk1::basic_string<char, std::__ndk1::char_traits<char>, std::__ndk1::allocator<char> >, hsvValue)>)::$_0>, void (std::__ndk1::basic_string<char, std::__ndk1::char_traits<char>, std::__ndk1::allocator<char> > const&)>::destroy()
PUBLIC 50940 0 std::__ndk1::__function::__func<MoreColorsPopup::setup(ColorType, std::__ndk1::function<void (int, std::__ndk1::basic_string<char, std::__ndk1::char_traits<char>, std::__ndk1::allocator<char> >, hsvValue)>)::$_0, std::__ndk1::allocator<MoreColorsPopup::setup(ColorType, std::__ndk1::function<void (int, std::__ndk1::basic_string<char, std::__ndk1::char_traits<char>, std::__ndk1::allocator<char> >, hsvValue)>)::$_0>, void (std::__ndk1::basic_string<char, std::__ndk1::char_traits<char>, std::__ndk1::allocator<char> > const&)>::destroy_deallocate()
PUBLIC 50944 0 std::__ndk1::__function::__func<MoreColorsPopup::setup(ColorType, std::__ndk1::function<void (int, std::__ndk1::basic_string<char, std::__ndk1::char_traits<char>, std::__ndk1::allocator<char> >, hsvValue)>)::$_0, std::__ndk1::allocator<MoreColorsPopup::setup(ColorType, std::__ndk1::function<void (int, std::__ndk1::basic_string<char, std::__ndk1::char_traits<char>, std::__ndk1::allocator<char> >, hsvValue)>)::$_0>, void (std::__ndk1::basic_string<char, std::__ndk1::char_traits<char>, std::__ndk1::allocator<char> > const&)>::operator()(std::__ndk1::basic_string<char, std::__ndk1::char_traits<char>, std::__ndk1::allocator<char> > const&)
PUBLIC 50a14 0 std::__ndk1::__function::__func<MoreColorsPopup::setup(ColorType, std::__ndk1::function<void (int, std::__ndk1::basic_string<char, std::__ndk1::char_traits<char>, std::__ndk1::allocator<char> >, hsvValue)>)::$_0, std::__ndk1::allocator<MoreColorsPopup::setup(ColorType, std::__ndk1::function<void (int, std::__ndk1::basic_string<char, std::__ndk1::char_traits<char>, std::__ndk1::allocator<char> >, hsvValue)>)::$_0>, void (std::__ndk1::basic_string<char, std::__ndk1::char_traits<char>, std::__ndk1::allocator<char> > const&)>::target(std::type_info const&) const
PUBLIC 50a30 0 std::__ndk1::__function::__func<MoreColorsPopup::setup(ColorType, std::__ndk1::function<void (int, std::__ndk1::basic_string<char, std::__ndk1::char_traits<char>, std::__ndk1::allocator<char> >, hsvValue)>)::$_0, std::__ndk1::allocator<MoreColorsPopup::setup(ColorType, std::__ndk1::function<void (int, std::__ndk1::basic_string<char, std::__ndk1::char_traits<char>, std::__ndk1::allocator<char> >, hsvValue)>)::$_0>, void (std::__ndk1::basic_string<char, std::__ndk1::char_traits<char>, std::__ndk1::allocator<char> > const&)>::target_type() const
PUBLIC 50a3c 0 std::__ndk1::__throw_bad_function_call[abi:ne180000]()
PUBLIC 50a70 0 std::__ndk1::bad_function_call::~bad_function_call()
PUBLIC 50a94 0 geode::Popup<>::CloseEvent::~CloseEvent()
PUBLIC 50af4 0 geode::Popup<>::CloseEvent::~CloseEvent()
PUBLIC 50b64 0 std::__ndk1::__shared_ptr_emplace<geode::Popup<>::CloseEvent::Impl, std::__ndk1::allocator<geode::Popup<>::CloseEvent::Impl> >::~__shared_ptr_emplace()
PUBLIC 50b74 0 std::__ndk1::__shared_ptr_emplace<geode::Popup<>::CloseEvent::Impl, std::__ndk1::allocator<geode::Popup<>::CloseEvent::Impl> >::~__shared_ptr_emplace()
PUBLIC 50ba4 0 std::__ndk1::__shared_ptr_emplace<geode::Popup<>::CloseEvent::Impl, std::__ndk1::allocator<geode::Popup<>::CloseEvent::Impl> >::__on_zero_shared()
PUBLIC 50ba8 0 std::__ndk1::__shared_ptr_emplace<geode::Popup<>::CloseEvent::Impl, std::__ndk1::allocator<geode::Popup<>::CloseEvent::Impl> >::__on_zero_shared_weak()
PUBLIC 50bac 0 geode::Popup<ColorType, std::__ndk1::function<void (int, std::__ndk1::basic_string<char, std::__ndk1::char_traits<char>, std::__ndk1::allocator<char> >, hsvValue)> >::CloseEvent::~CloseEvent()
PUBLIC 50c0c 0 geode::Popup<ColorType, std::__ndk1::function<void (int, std::__ndk1::basic_string<char, std::__ndk1::char_traits<char>, std::__ndk1::allocator<char> >, hsvValue)> >::CloseEvent::~CloseEvent()
PUBLIC 50c7c 0 std::__ndk1::__shared_ptr_emplace<geode::Popup<ColorType, std::__ndk1::function<void (int, std::__ndk1::basic_string<char, std::__ndk1::char_traits<char>, std::__ndk1::allocator<char> >, hsvValue)> >::CloseEvent::Impl, std::__ndk1::allocator<geode::Popup<ColorType, std::__ndk1::function<void (int, std::__ndk1::basic_string<char, std::__ndk1::char_traits<char>, std::__ndk1::allocator<char> >, hsvValue)> >::CloseEvent::Impl> >::~__shared_ptr_emplace()
PUBLIC 50c8c 0 std::__ndk1::__shared_ptr_emplace<geode::Popup<ColorType, std::__ndk1::function<void (int, std::__ndk1::basic_string<char, std::__ndk1::char_traits<char>, std::__ndk1::allocator<char> >, hsvValue)> >::CloseEvent::Impl, std::__ndk1::allocator<geode::Popup<ColorType, std::__ndk1::function<void (int, std::__ndk1::basic_string<char, std::__ndk1::char_traits<char>, std::__ndk1::allocator<char> >, hsvValue)> >::CloseEvent::Impl> >::~__shared_ptr_emplace()
PUBLIC 50cbc 0 std::__ndk1::__shared_ptr_emplace<geode::Popup<ColorType, std::__ndk1::function<void (int, std::__ndk1::basic_string<char, std::__ndk1::char_traits<char>, std::__ndk1::allocator<char> >, hsvValue)> >::CloseEvent::Impl, std::__ndk1::allocator<geode::Popup<ColorType, std::__ndk1::function<void (int, std::__ndk1::basic_string<char, std::__ndk1::char_traits<char>, std::__ndk1::allocator<char> >, hsvValue)> >::CloseEvent::Impl> >::__on_zero_shared()
PUBLIC 50cc0 0 std::__ndk1::__shared_ptr_emplace<geode::Popup<ColorType, std::__ndk1::function<void (int, std::__ndk1::basic_string<char, std::__ndk1::char_traits<char>, std::__ndk1::allocator<char> >, hsvValue)> >::CloseEvent::Impl, std::__ndk1::allocator<geode::Popup<ColorType, std::__ndk1::function<void (int, std::__ndk1::basic_string<char, std::__ndk1::char_traits<char>, std::__ndk1::allocator<char> >, hsvValue)> >::CloseEvent::Impl> >::__on_zero_shared_weak()
PUBLIC 50cc4 0 __cxx_global_var_init
PUBLIC 51100 0 geode::modifier::ModifyBase<geode::modifier::ModifyDerive<hook7<(anonymous namespace)::hook7Parent>, SetupTriggerPopup> >::~ModifyBase()
PUBLIC 5111c 0 __cxx_global_var_init.1
PUBLIC 5159c 0 geode::modifier::ModifyBase<geode::modifier::ModifyDerive<EditMultipleTriggersPopup, EditTriggersPopup> >::~ModifyBase()
PUBLIC 515b8 0 geode::modifier::ModifyDerive<hook7<(anonymous namespace)::hook7Parent>, SetupTriggerPopup>::apply()
PUBLIC 519d4 0 geode::modifier::ModifyBase<geode::modifier::ModifyDerive<hook7<(anonymous namespace)::hook7Parent>, SetupTriggerPopup> >::apply()
PUBLIC 519d8 0 geode::modifier::AsStaticFunction_init<hook7<(anonymous namespace)::hook7Parent>, bool (hook7<(anonymous namespace)::hook7Parent>::*)(EffectGameObject*, cocos2d::CCArray*, float, float, int)>::Impl<bool (hook7<(anonymous namespace)::hook7Parent>::*)(EffectGameObject*, cocos2d::CCArray*, float, float, int)>::function(hook7<(anonymous namespace)::hook7Parent>*, EffectGameObject*, cocos2d::CCArray*, float, float, int)
PUBLIC 51a70 0 geode::modifier::ModifyDerive<EditMultipleTriggersPopup, EditTriggersPopup>::apply()
PUBLIC 51e30 0 geode::modifier::ModifyBase<geode::modifier::ModifyDerive<EditMultipleTriggersPopup, EditTriggersPopup> >::apply()
PUBLIC 51e34 0 geode::modifier::AsStaticFunction_init<EditMultipleTriggersPopup, bool (EditMultipleTriggersPopup::*)(EffectGameObject*, cocos2d::CCArray*)>::Impl<bool (EditMultipleTriggersPopup::*)(EffectGameObject*, cocos2d::CCArray*)>::function(EditMultipleTriggersPopup*, EffectGameObject*, cocos2d::CCArray*)
PUBLIC 524c4 0 __cxx_global_var_init
PUBLIC 52944 0 geode::modifier::ModifyBase<geode::modifier::ModifyDerive<TNFSetupTriggerPopup, SetupTriggerPopup> >::~ModifyBase()
PUBLIC 52960 0 geode::modifier::ModifyDerive<TNFSetupTriggerPopup, SetupTriggerPopup>::apply()
PUBLIC 53c9c 0 geode::modifier::ModifyBase<geode::modifier::ModifyDerive<TNFSetupTriggerPopup, SetupTriggerPopup> >::apply()
PUBLIC 53ca0 0 geode::modifier::AsStaticFunction_createValueControlAdvanced<TNFSetupTriggerPopup, cocos2d::CCArray* (TNFSetupTriggerPopup::*)(int, gd::string, cocos2d::CCPoint, float, bool, InputValueType, int, bool, float, float, int, int, GJInputStyle, int, bool)>::Impl<cocos2d::CCArray* (TNFSetupTriggerPopup::*)(int, gd::string, cocos2d::CCPoint, float, bool, InputValueType, int, bool, float, float, int, int, GJInputStyle, int, bool)>::function(TNFSetupTriggerPopup*, int, gd::string, cocos2d::CCPoint, float, bool, InputValueType, int, bool, float, float, int, int, GJInputStyle, int, bool)
PUBLIC 541c4 0 TNFSetupTriggerPopup::onNextFree(cocos2d::CCObject*)
PUBLIC 54344 0 MixedInputPopup::setup(geode::cocos::CCArrayExt<EffectGameObject*, EffectGameObject> const&, short, std::__ndk1::function<void (std::__ndk1::optional<float>)> const&)
PUBLIC 55b6c 0 MixedInputPopup::createScrollLayer(bool)
PUBLIC 5752c 0 MixedInputPopup::onApply(cocos2d::CCObject*)
PUBLIC 57c38 0 MixedInputPopup::onSettings(cocos2d::CCObject*)
PUBLIC 57d38 0 MixedInputPopup::onOperator(cocos2d::CCObject*)
PUBLIC 57d8c 0 MixedInputPopup::onValueArrow(cocos2d::CCObject*)
PUBLIC 57ed8 0 MixedInputPopup::onDirection(cocos2d::CCObject*)
PUBLIC 58328 0 geode::cocos::CCArrayExt<EffectGameObject*, EffectGameObject>::~CCArrayExt()
PUBLIC 58348 0 MixedInputPopup::CalculationInfo::CalculationInfo(MixedInputPopup::CalculationInfo const&)
PUBLIC 5847c 0 MixedInputPopup::CalculationInfo::~CalculationInfo()
PUBLIC 584f0 0 geode::cocos::CCArrayExt<cocos2d::CCMenu*, cocos2d::CCMenu>::~CCArrayExt()
PUBLIC 5850c 0 std::__ndk1::vector<MixedInputPopup::CalculationInfo, std::__ndk1::allocator<MixedInputPopup::CalculationInfo> >::~vector[abi:ne180000]()
PUBLIC 5853c 0 MixedInputPopup::create(geode::cocos::CCArrayExt<EffectGameObject*, EffectGameObject> const&, short, std::__ndk1::function<void (std::__ndk1::optional<float>)> const&)
PUBLIC 586ec 0 MixedInputPopup::~MixedInputPopup()
PUBLIC 587d4 0 MixedInputPopup::~MixedInputPopup()
PUBLIC 587f8 0 geode::Popup<geode::cocos::CCArrayExt<EffectGameObject*, EffectGameObject> const&, short const, std::__ndk1::function<void (std::__ndk1::optional<float>)> const&>::registerWithTouchDispatcher()
PUBLIC 58824 0 geode::Popup<geode::cocos::CCArrayExt<EffectGameObject*, EffectGameObject> const&, short const, std::__ndk1::function<void (std::__ndk1::optional<float>)> const&>::keyDown(cocos2d::enumKeyCodes)
PUBLIC 5884c 0 geode::Popup<geode::cocos::CCArrayExt<EffectGameObject*, EffectGameObject> const&, short const, std::__ndk1::function<void (std::__ndk1::optional<float>)> const&>::onClose(cocos2d::CCObject*)
PUBLIC 58994 0 {virtual override thunk({offset(-320)}, MixedInputPopup::~MixedInputPopup())}
PUBLIC 5899c 0 {virtual override thunk({offset(-320)}, MixedInputPopup::~MixedInputPopup())}
PUBLIC 589c4 0 {virtual override thunk({offset(-344)}, geode::Popup<geode::cocos::CCArrayExt<EffectGameObject*, EffectGameObject> const&, short const, std::__ndk1::function<void (std::__ndk1::optional<float>)> const&>::keyDown(cocos2d::enumKeyCodes))}
PUBLIC 589f0 0 std::__ndk1::vector<float, std::__ndk1::allocator<float> >::__throw_length_error[abi:ne180000]() const
PUBLIC 58a04 0 std::__ndk1::__introsort<std::__ndk1::_ClassicAlgPolicy, MixedInputPopup::setup(geode::cocos::CCArrayExt<EffectGameObject*, EffectGameObject> const&, short, std::__ndk1::function<void (std::__ndk1::optional<float>)> const&)::$_0&, EffectGameObject**, false>(EffectGameObject**, EffectGameObject**, MixedInputPopup::setup(geode::cocos::CCArrayExt<EffectGameObject*, EffectGameObject> const&, short, std::__ndk1::function<void (std::__ndk1::optional<float>)> const&)::$_0&, std::__ndk1::iterator_traits<EffectGameObject**>::difference_type, bool)
PUBLIC 59e7c 0 _ZNSt6__ndk124__sort5_maybe_branchlessB8ne180000INS_17_ClassicAlgPolicyERZN15MixedInputPopup5setupERKN5geode5cocos10CCArrayExtIP16EffectGameObjectS6_EEsRKNS_8functionIFvNS_8optionalIfEEEEEE3$_0PS7_TnNS_9enable_ifIXntsr21__use_branchless_sortIT0_T1_EE5valueEiE4typeELi0EEEvSN_SN_SN_SN_SN_SM_
PUBLIC 59fb4 0 std::__ndk1::__sort3[abi:ne180000]<std::__ndk1::_ClassicAlgPolicy, MixedInputPopup::setup(geode::cocos::CCArrayExt<EffectGameObject*, geode::cocos::CCArrayExt> const&, short, std::__ndk1::function<void (std::__ndk1::optional<float>)> const&)::$_0&, EffectGameObject*>(EffectGameObject*, EffectGameObject*, EffectGameObject*, MixedInputPopup::setup(geode::cocos::CCArrayExt<EffectGameObject*, geode::cocos::CCArrayExt> const&, short, std::__ndk1::function<void (std::__ndk1::optional<float>)> const&)::$_0&)
PUBLIC 5a0f8 0 std::__ndk1::__insertion_sort_incomplete[abi:ne180000]<std::__ndk1::_ClassicAlgPolicy, MixedInputPopup::setup(geode::cocos::CCArrayExt<EffectGameObject*, geode::cocos::CCArrayExt> const&, short, std::__ndk1::function<void (std::__ndk1::optional<float>)> const&)::$_0&, EffectGameObject*>(EffectGameObject*, EffectGameObject*, MixedInputPopup::setup(geode::cocos::CCArrayExt<EffectGameObject*, geode::cocos::CCArrayExt> const&, short, std::__ndk1::function<void (std::__ndk1::optional<float>)> const&)::$_0&)
PUBLIC 5a300 0 std::__ndk1::__sort4[abi:ne180000]<std::__ndk1::_ClassicAlgPolicy, MixedInputPopup::setup(geode::cocos::CCArrayExt<EffectGameObject*, geode::cocos::CCArrayExt> const&, short, std::__ndk1::function<void (std::__ndk1::optional<float>)> const&)::$_0&, EffectGameObject*>(EffectGameObject*, EffectGameObject*, EffectGameObject*, EffectGameObject*, MixedInputPopup::setup(geode::cocos::CCArrayExt<EffectGameObject*, geode::cocos::CCArrayExt> const&, short, std::__ndk1::function<void (std::__ndk1::optional<float>)> const&)::$_0&)
PUBLIC 5a3f4 0 std::__ndk1::vector<MixedInputPopup::CalculationInfo, std::__ndk1::allocator<MixedInputPopup::CalculationInfo> >::__base_destruct_at_end[abi:ne180000](MixedInputPopup::CalculationInfo*)
PUBLIC 5a490 0 std::__ndk1::__introsort<std::__ndk1::_ClassicAlgPolicy, MixedInputPopup::onDirection(cocos2d::CCObject*)::$_0&, EffectGameObject**, false>(EffectGameObject**, EffectGameObject**, MixedInputPopup::onDirection(cocos2d::CCObject*)::$_0&, std::__ndk1::iterator_traits<EffectGameObject**>::difference_type, bool)
PUBLIC 5b6d8 0 _ZNSt6__ndk124__sort5_maybe_branchlessB8ne180000INS_17_ClassicAlgPolicyERZN15MixedInputPopup11onDirectionEPN7cocos2d8CCObjectEE3$_0PP16EffectGameObjectTnNS_9enable_ifIXntsr21__use_branchless_sortIT0_T1_EE5valueEiE4typeELi0EEEvSD_SD_SD_SD_SD_SC_
PUBLIC 5b940 0 std::__ndk1::__sort3[abi:ne180000]<std::__ndk1::_ClassicAlgPolicy, MixedInputPopup::onDirection(cocos2d::CCObject*)::$_0&, EffectGameObject**>(EffectGameObject**, EffectGameObject**, EffectGameObject**, MixedInputPopup::onDirection(cocos2d::CCObject*)::$_0&)
PUBLIC 5bb34 0 std::__ndk1::__insertion_sort_incomplete[abi:ne180000]<std::__ndk1::_ClassicAlgPolicy, MixedInputPopup::onDirection(cocos2d::CCObject*)::$_0&, EffectGameObject**>(EffectGameObject**, EffectGameObject**, MixedInputPopup::onDirection(cocos2d::CCObject*)::$_0&)
PUBLIC 5be60 0 std::__ndk1::__sort4[abi:ne180000]<std::__ndk1::_ClassicAlgPolicy, MixedInputPopup::onDirection(cocos2d::CCObject*)::$_0&, EffectGameObject**>(EffectGameObject**, EffectGameObject**, EffectGameObject**, EffectGameObject**, MixedInputPopup::onDirection(cocos2d::CCObject*)::$_0&)
PUBLIC 5c048 0 std::__ndk1::vector<MixedInputPopup::CalculationInfo, std::__ndk1::allocator<MixedInputPopup::CalculationInfo> >::__push_back_slow_path<MixedInputPopup::CalculationInfo const&>(MixedInputPopup::CalculationInfo const&)
PUBLIC 5c240 0 std::__ndk1::__split_buffer<MixedInputPopup::CalculationInfo, std::__ndk1::allocator<MixedInputPopup::CalculationInfo>&>::~__split_buffer()
PUBLIC 5c278 0 std::__ndk1::vector<MixedInputPopup::CalculationInfo, std::__ndk1::allocator<MixedInputPopup::CalculationInfo> >::__throw_length_error[abi:ne180000]() const
PUBLIC 5c28c 0 std::__ndk1::__exception_guard_exceptions<std::__ndk1::_AllocatorDestroyRangeReverse<std::__ndk1::allocator<MixedInputPopup::CalculationInfo>, std::__ndk1::reverse_iterator<MixedInputPopup::CalculationInfo*> > >::~__exception_guard_exceptions[abi:ne180000]()
PUBLIC 5c320 0 std::__ndk1::__split_buffer<MixedInputPopup::CalculationInfo, std::__ndk1::allocator<MixedInputPopup::CalculationInfo>&>::__destruct_at_end[abi:ne180000](MixedInputPopup::CalculationInfo*)
PUBLIC 5c3c4 0 geode::Popup<geode::cocos::CCArrayExt<EffectGameObject*, EffectGameObject> const&, short const, std::__ndk1::function<void (std::__ndk1::optional<float>)> const&>::~Popup()
PUBLIC 5c430 0 geode::Popup<geode::cocos::CCArrayExt<EffectGameObject*, EffectGameObject> const&, short const, std::__ndk1::function<void (std::__ndk1::optional<float>)> const&>::~Popup()
PUBLIC 5c434 0 {virtual override thunk({offset(-320)}, geode::Popup<geode::cocos::CCArrayExt<EffectGameObject*, EffectGameObject> const&, short const, std::__ndk1::function<void (std::__ndk1::optional<float>)> const&>::~Popup())}
PUBLIC 5c4a0 0 {virtual override thunk({offset(-320)}, geode::Popup<geode::cocos::CCArrayExt<EffectGameObject*, EffectGameObject> const&, short const, std::__ndk1::function<void (std::__ndk1::optional<float>)> const&>::~Popup())}
PUBLIC 5c4a4 0 std::__ndk1::__function::__func<MixedInputPopup::createTopRow()::$_0, std::__ndk1::allocator<MixedInputPopup::createTopRow()::$_0>, void (std::__ndk1::basic_string<char, std::__ndk1::char_traits<char>, std::__ndk1::allocator<char> > const&)>::~__func()
PUBLIC 5c4a8 0 std::__ndk1::__function::__func<MixedInputPopup::createTopRow()::$_0, std::__ndk1::allocator<MixedInputPopup::createTopRow()::$_0>, void (std::__ndk1::basic_string<char, std::__ndk1::char_traits<char>, std::__ndk1::allocator<char> > const&)>::__clone() const
PUBLIC 5c4dc 0 std::__ndk1::__function::__func<MixedInputPopup::createTopRow()::$_0, std::__ndk1::allocator<MixedInputPopup::createTopRow()::$_0>, void (std::__ndk1::basic_string<char, std::__ndk1::char_traits<char>, std::__ndk1::allocator<char> > const&)>::__clone(std::__ndk1::__function::__base<void (std::__ndk1::basic_string<char, std::__ndk1::char_traits<char>, std::__ndk1::allocator<char> > const&)>*) const
PUBLIC 5c4f0 0 std::__ndk1::__function::__func<MixedInputPopup::createTopRow()::$_0, std::__ndk1::allocator<MixedInputPopup::createTopRow()::$_0>, void (std::__ndk1::basic_string<char, std::__ndk1::char_traits<char>, std::__ndk1::allocator<char> > const&)>::destroy()
PUBLIC 5c4f4 0 std::__ndk1::__function::__func<MixedInputPopup::createTopRow()::$_0, std::__ndk1::allocator<MixedInputPopup::createTopRow()::$_0>, void (std::__ndk1::basic_string<char, std::__ndk1::char_traits<char>, std::__ndk1::allocator<char> > const&)>::destroy_deallocate()
PUBLIC 5c4f8 0 std::__ndk1::__function::__func<MixedInputPopup::createTopRow()::$_0, std::__ndk1::allocator<MixedInputPopup::createTopRow()::$_0>, void (std::__ndk1::basic_string<char, std::__ndk1::char_traits<char>, std::__ndk1::allocator<char> > const&)>::operator()(std::__ndk1::basic_string<char, std::__ndk1::char_traits<char>, std::__ndk1::allocator<char> > const&)
PUBLIC 5c5c0 0 std::__ndk1::__function::__func<MixedInputPopup::createTopRow()::$_0, std::__ndk1::allocator<MixedInputPopup::createTopRow()::$_0>, void (std::__ndk1::basic_string<char, std::__ndk1::char_traits<char>, std::__ndk1::allocator<char> > const&)>::target(std::type_info const&) const
PUBLIC 5c5dc 0 std::__ndk1::__function::__func<MixedInputPopup::createTopRow()::$_0, std::__ndk1::allocator<MixedInputPopup::createTopRow()::$_0>, void (std::__ndk1::basic_string<char, std::__ndk1::char_traits<char>, std::__ndk1::allocator<char> > const&)>::target_type() const
PUBLIC 5c5e8 0 std::__ndk1::__function::__func<MixedInputPopup::createBottomRow()::$_0, std::__ndk1::allocator<MixedInputPopup::createBottomRow()::$_0>, void (std::__ndk1::basic_string<char, std::__ndk1::char_traits<char>, std::__ndk1::allocator<char> > const&)>::~__func()
PUBLIC 5c5ec 0 std::__ndk1::__function::__func<MixedInputPopup::createBottomRow()::$_0, std::__ndk1::allocator<MixedInputPopup::createBottomRow()::$_0>, void (std::__ndk1::basic_string<char, std::__ndk1::char_traits<char>, std::__ndk1::allocator<char> > const&)>::__clone() const
PUBLIC 5c620 0 std::__ndk1::__function::__func<MixedInputPopup::createBottomRow()::$_0, std::__ndk1::allocator<MixedInputPopup::createBottomRow()::$_0>, void (std::__ndk1::basic_string<char, std::__ndk1::char_traits<char>, std::__ndk1::allocator<char> > const&)>::__clone(std::__ndk1::__function::__base<void (std::__ndk1::basic_string<char, std::__ndk1::char_traits<char>, std::__ndk1::allocator<char> > const&)>*) const
PUBLIC 5c634 0 std::__ndk1::__function::__func<MixedInputPopup::createBottomRow()::$_0, std::__ndk1::allocator<MixedInputPopup::createBottomRow()::$_0>, void (std::__ndk1::basic_string<char, std::__ndk1::char_traits<char>, std::__ndk1::allocator<char> > const&)>::destroy()
PUBLIC 5c638 0 std::__ndk1::__function::__func<MixedInputPopup::createBottomRow()::$_0, std::__ndk1::allocator<MixedInputPopup::createBottomRow()::$_0>, void (std::__ndk1::basic_string<char, std::__ndk1::char_traits<char>, std::__ndk1::allocator<char> > const&)>::destroy_deallocate()
PUBLIC 5c63c 0 std::__ndk1::__function::__func<MixedInputPopup::createBottomRow()::$_0, std::__ndk1::allocator<MixedInputPopup::createBottomRow()::$_0>, void (std::__ndk1::basic_string<char, std::__ndk1::char_traits<char>, std::__ndk1::allocator<char> > const&)>::operator()(std::__ndk1::basic_string<char, std::__ndk1::char_traits<char>, std::__ndk1::allocator<char> > const&)
PUBLIC 5c704 0 std::__ndk1::__function::__func<MixedInputPopup::createBottomRow()::$_0, std::__ndk1::allocator<MixedInputPopup::createBottomRow()::$_0>, void (std::__ndk1::basic_string<char, std::__ndk1::char_traits<char>, std::__ndk1::allocator<char> > const&)>::target(std::type_info const&) const
PUBLIC 5c720 0 std::__ndk1::__function::__func<MixedInputPopup::createBottomRow()::$_0, std::__ndk1::allocator<MixedInputPopup::createBottomRow()::$_0>, void (std::__ndk1::basic_string<char, std::__ndk1::char_traits<char>, std::__ndk1::allocator<char> > const&)>::target_type() const
PUBLIC 5c72c 0 std::__ndk1::__tree<int, std::__ndk1::less<int>, std::__ndk1::allocator<int> >::destroy(std::__ndk1::__tree_node<int, void*>*)
PUBLIC 5c768 0 std::__ndk1::__tree<std::__ndk1::__value_type<int, std::__ndk1::pair<cocos2d::CCSpriteFrame*, int> >, std::__ndk1::__map_value_compare<int, std::__ndk1::__value_type<int, std::__ndk1::pair<cocos2d::CCSpriteFrame*, int> >, std::__ndk1::less<int>, true>, std::__ndk1::allocator<std::__ndk1::__value_type<int, std::__ndk1::pair<cocos2d::CCSpriteFrame*, int> > > >::destroy(std::__ndk1::__tree_node<std::__ndk1::__value_type<int, std::__ndk1::pair<cocos2d::CCSpriteFrame*, int> >, void*>*)
PUBLIC 5c7a4 0 std::__ndk1::__function::__base<void (MixedInputSettings)>::~__base()
PUBLIC 5c7a8 0 std::__ndk1::__function::__func<MixedInputPopup::onSettings(cocos2d::CCObject*)::$_0, std::__ndk1::allocator<MixedInputPopup::onSettings(cocos2d::CCObject*)::$_0>, void (MixedInputSettings)>::~__func()
PUBLIC 5c7ac 0 std::__ndk1::__function::__func<MixedInputPopup::onSettings(cocos2d::CCObject*)::$_0, std::__ndk1::allocator<MixedInputPopup::onSettings(cocos2d::CCObject*)::$_0>, void (MixedInputSettings)>::__clone() const
PUBLIC 5c7e0 0 std::__ndk1::__function::__func<MixedInputPopup::onSettings(cocos2d::CCObject*)::$_0, std::__ndk1::allocator<MixedInputPopup::onSettings(cocos2d::CCObject*)::$_0>, void (MixedInputSettings)>::__clone(std::__ndk1::__function::__base<void (MixedInputSettings)>*) const
PUBLIC 5c7f4 0 std::__ndk1::__function::__func<MixedInputPopup::onSettings(cocos2d::CCObject*)::$_0, std::__ndk1::allocator<MixedInputPopup::onSettings(cocos2d::CCObject*)::$_0>, void (MixedInputSettings)>::destroy()
PUBLIC 5c7f8 0 std::__ndk1::__function::__func<MixedInputPopup::onSettings(cocos2d::CCObject*)::$_0, std::__ndk1::allocator<MixedInputPopup::onSettings(cocos2d::CCObject*)::$_0>, void (MixedInputSettings)>::destroy_deallocate()
PUBLIC 5c7fc 0 std::__ndk1::__function::__func<MixedInputPopup::onSettings(cocos2d::CCObject*)::$_0, std::__ndk1::allocator<MixedInputPopup::onSettings(cocos2d::CCObject*)::$_0>, void (MixedInputSettings)>::operator()(MixedInputSettings&&)
PUBLIC 5c810 0 std::__ndk1::__function::__func<MixedInputPopup::onSettings(cocos2d::CCObject*)::$_0, std::__ndk1::allocator<MixedInputPopup::onSettings(cocos2d::CCObject*)::$_0>, void (MixedInputSettings)>::target(std::type_info const&) const
PUBLIC 5c82c 0 std::__ndk1::__function::__func<MixedInputPopup::onSettings(cocos2d::CCObject*)::$_0, std::__ndk1::allocator<MixedInputPopup::onSettings(cocos2d::CCObject*)::$_0>, void (MixedInputSettings)>::target_type() const
PUBLIC 5c838 0 geode::Popup<geode::cocos::CCArrayExt<EffectGameObject*, EffectGameObject> const&, short const, std::__ndk1::function<void (std::__ndk1::optional<float>)> const&>::CloseEvent::~CloseEvent()
PUBLIC 5c898 0 geode::Popup<geode::cocos::CCArrayExt<EffectGameObject*, EffectGameObject> const&, short const, std::__ndk1::function<void (std::__ndk1::optional<float>)> const&>::CloseEvent::~CloseEvent()
PUBLIC 5c908 0 std::__ndk1::__shared_ptr_emplace<geode::Popup<geode::cocos::CCArrayExt<EffectGameObject*, EffectGameObject> const&, short const, std::__ndk1::function<void (std::__ndk1::optional<float>)> const&>::CloseEvent::Impl, std::__ndk1::allocator<geode::Popup<geode::cocos::CCArrayExt<EffectGameObject*, EffectGameObject> const&, short const, std::__ndk1::function<void (std::__ndk1::optional<float>)> const&>::CloseEvent::Impl> >::~__shared_ptr_emplace()
PUBLIC 5c918 0 std::__ndk1::__shared_ptr_emplace<geode::Popup<geode::cocos::CCArrayExt<EffectGameObject*, EffectGameObject> const&, short const, std::__ndk1::function<void (std::__ndk1::optional<float>)> const&>::CloseEvent::Impl, std::__ndk1::allocator<geode::Popup<geode::cocos::CCArrayExt<EffectGameObject*, EffectGameObject> const&, short const, std::__ndk1::function<void (std::__ndk1::optional<float>)> const&>::CloseEvent::Impl> >::~__shared_ptr_emplace()
PUBLIC 5c948 0 std::__ndk1::__shared_ptr_emplace<geode::Popup<geode::cocos::CCArrayExt<EffectGameObject*, EffectGameObject> const&, short const, std::__ndk1::function<void (std::__ndk1::optional<float>)> const&>::CloseEvent::Impl, std::__ndk1::allocator<geode::Popup<geode::cocos::CCArrayExt<EffectGameObject*, EffectGameObject> const&, short const, std::__ndk1::function<void (std::__ndk1::optional<float>)> const&>::CloseEvent::Impl> >::__on_zero_shared()
PUBLIC 5c94c 0 std::__ndk1::__shared_ptr_emplace<geode::Popup<geode::cocos::CCArrayExt<EffectGameObject*, EffectGameObject> const&, short const, std::__ndk1::function<void (std::__ndk1::optional<float>)> const&>::CloseEvent::Impl, std::__ndk1::allocator<geode::Popup<geode::cocos::CCArrayExt<EffectGameObject*, EffectGameObject> const&, short const, std::__ndk1::function<void (std::__ndk1::optional<float>)> const&>::CloseEvent::Impl> >::__on_zero_shared_weak()
PUBLIC 5c950 0 geode::Popup<geode::cocos::CCArrayExt<EffectGameObject*, EffectGameObject> const&, short const, std::__ndk1::function<void (std::__ndk1::optional<float>)> const&>::initBase(float, float, geode::cocos::CCArrayExt<EffectGameObject*, EffectGameObject> const&, short, std::__ndk1::function<void (std::__ndk1::optional<float>)> const&, char const*, cocos2d::CCRect, bool)
PUBLIC 5cc5c 0 MixedInputSettingsPopup::setup(MixedInputSettings, std::__ndk1::function<void (MixedInputSettings)>)
PUBLIC 5d44c 0 MixedInputSettingsPopup::onRoundingButton(cocos2d::CCObject*)
PUBLIC 5d4f8 0 MixedInputSettingsPopup::create(MixedInputSettings, std::__ndk1::function<void (MixedInputSettings)>)
PUBLIC 5dab4 0 MixedInputSettingsPopup::~MixedInputSettingsPopup()
PUBLIC 5db8c 0 MixedInputSettingsPopup::~MixedInputSettingsPopup()
PUBLIC 5dc6c 0 geode::Popup<MixedInputSettings, std::__ndk1::function<void (MixedInputSettings)> >::registerWithTouchDispatcher()
PUBLIC 5dc98 0 geode::Popup<MixedInputSettings, std::__ndk1::function<void (MixedInputSettings)> >::keyDown(cocos2d::enumKeyCodes)
PUBLIC 5dcc0 0 geode::Popup<MixedInputSettings, std::__ndk1::function<void (MixedInputSettings)> >::onClose(cocos2d::CCObject*)
PUBLIC 5de08 0 {virtual override thunk({offset(-320)}, MixedInputSettingsPopup::~MixedInputSettingsPopup())}
PUBLIC 5dee4 0 {virtual override thunk({offset(-320)}, MixedInputSettingsPopup::~MixedInputSettingsPopup())}
PUBLIC 5dfc8 0 {virtual override thunk({offset(-344)}, geode::Popup<MixedInputSettings, std::__ndk1::function<void (MixedInputSettings)> >::keyDown(cocos2d::enumKeyCodes))}
PUBLIC 5dff4 0 geode::Popup<MixedInputSettings, std::__ndk1::function<void (MixedInputSettings)> >::~Popup()
PUBLIC 5e060 0 geode::Popup<MixedInputSettings, std::__ndk1::function<void (MixedInputSettings)> >::~Popup()
PUBLIC 5e064 0 {virtual override thunk({offset(-320)}, geode::Popup<MixedInputSettings, std::__ndk1::function<void (MixedInputSettings)> >::~Popup())}
PUBLIC 5e0d0 0 {virtual override thunk({offset(-320)}, geode::Popup<MixedInputSettings, std::__ndk1::function<void (MixedInputSettings)> >::~Popup())}
PUBLIC 5e0d4 0 geode::Popup<MixedInputSettings, std::__ndk1::function<void (MixedInputSettings)> >::CloseEvent::~CloseEvent()
PUBLIC 5e134 0 geode::Popup<MixedInputSettings, std::__ndk1::function<void (MixedInputSettings)> >::CloseEvent::~CloseEvent()
PUBLIC 5e1a4 0 std::__ndk1::__shared_ptr_emplace<geode::Popup<MixedInputSettings, std::__ndk1::function<void (MixedInputSettings)> >::CloseEvent::Impl, std::__ndk1::allocator<geode::Popup<MixedInputSettings, std::__ndk1::function<void (MixedInputSettings)> >::CloseEvent::Impl> >::~__shared_ptr_emplace()
PUBLIC 5e1b4 0 std::__ndk1::__shared_ptr_emplace<geode::Popup<MixedInputSettings, std::__ndk1::function<void (MixedInputSettings)> >::CloseEvent::Impl, std::__ndk1::allocator<geode::Popup<MixedInputSettings, std::__ndk1::function<void (MixedInputSettings)> >::CloseEvent::Impl> >::~__shared_ptr_emplace()
PUBLIC 5e1e4 0 std::__ndk1::__shared_ptr_emplace<geode::Popup<MixedInputSettings, std::__ndk1::function<void (MixedInputSettings)> >::CloseEvent::Impl, std::__ndk1::allocator<geode::Popup<MixedInputSettings, std::__ndk1::function<void (MixedInputSettings)> >::CloseEvent::Impl> >::__on_zero_shared()
PUBLIC 5e1e8 0 std::__ndk1::__shared_ptr_emplace<geode::Popup<MixedInputSettings, std::__ndk1::function<void (MixedInputSettings)> >::CloseEvent::Impl, std::__ndk1::allocator<geode::Popup<MixedInputSettings, std::__ndk1::function<void (MixedInputSettings)> >::CloseEvent::Impl> >::__on_zero_shared_weak()
PUBLIC 5e1ec 0 NewSetupTriggerPopup::isTriggerPopup()
PUBLIC 5e448 0 NewSetupTriggerPopup::createMobileButton(char const*, void (cocos2d::CCObject::*)(cocos2d::CCObject*))
PUBLIC 5e5c4 0 NewSetupTriggerPopup::toggleMixedMode(cocos2d::CCObject*)
PUBLIC 5e688 0 NewSetupTriggerPopup::toggleHideMode(cocos2d::CCObject*)
PUBLIC 5e6c0 0 NewSetupTriggerPopup::replaceInputWithButton(CCTextInputNode*, int)
PUBLIC 5ec38 0 NewSetupTriggerPopup::getInputBGs(geode::cocos::CCArrayExt<CCTextInputNode*, CCTextInputNode>)
PUBLIC 5f76c 0 geode::cocos::CCArrayExt<CCTextInputNode*, CCTextInputNode>::~CCArrayExt()
PUBLIC 5f788 0 geode::cocos::CCArrayExt<cocos2d::CCArray*, cocos2d::CCArray>::~CCArrayExt()
PUBLIC 5f7a4 0 geode::cocos::CCDictionaryExt<int, cocos2d::CCFloat*, cocos2d::CCFloat>::~CCDictionaryExt()
PUBLIC 5f7c0 0 geode::cocos::CCDictionaryExt<int, CCTextInputNode*, CCTextInputNode>::~CCDictionaryExt()
PUBLIC 5f7dc 0 NewSetupTriggerPopup::setupOverrideMultiEdit(geode::cocos::CCArrayExt<CCTextInputNode*, CCTextInputNode>)
PUBLIC 5fa68 0 NewSetupTriggerPopup::onMixedInput(cocos2d::CCObject*)
PUBLIC 5fcd8 0 NewSetupTriggerPopup::toggleArrowButtonsOfKey(int, bool)
PUBLIC 5fefc 0 NewSetupTriggerPopup::setInputValue(CCTextInputNode*, float)
PUBLIC 60210 0 geode::cocos::CCArrayExt<cocos2d::CCNode*, cocos2d::CCNode>::~CCArrayExt()
PUBLIC m 60230 0 std::__ndk1::basic_ostringstream<char, std::__ndk1::char_traits<char>, std::__ndk1::allocator<char> >::~basic_ostringstream()
PUBLIC 602ac 0 NewSetupTriggerPopup::hideOrShowUI(bool)
PUBLIC 60a5c 0 setOverrideInputs(cocos2d::CCLayer*, geode::cocos::CCArrayExt<CCTextInputNode*, CCTextInputNode>&, std::__ndk1::map<int, int, std::__ndk1::less<int>, std::__ndk1::allocator<std::__ndk1::pair<int const, int> > >)
PUBLIC 60d50 0 setOverrideArrowButtons(cocos2d::CCMenu*, std::__ndk1::map<int, std::__ndk1::vector<cocos2d::CCPoint, std::__ndk1::allocator<cocos2d::CCPoint> >, std::__ndk1::less<int>, std::__ndk1::allocator<std::__ndk1::pair<int const, std::__ndk1::vector<cocos2d::CCPoint, std::__ndk1::allocator<cocos2d::CCPoint> > > > >&)
PUBLIC 613b0 0 cocos2d::CCIMEDelegate::canAttachWithIME()
PUBLIC 613b8 0 cocos2d::CCIMEDelegate::didAttachWithIME()
PUBLIC 613bc 0 cocos2d::CCIMEDelegate::canDetachWithIME()
PUBLIC 613c4 0 cocos2d::CCIMEDelegate::didDetachWithIME()
PUBLIC 613c8 0 cocos2d::CCIMEDelegate::insertText(char const*, int, cocos2d::enumKeyCodes)
PUBLIC 613cc 0 cocos2d::CCIMEDelegate::deleteBackward()
PUBLIC 613d0 0 cocos2d::CCIMEDelegate::getContentText()
PUBLIC 613d8 0 cocos2d::CCIMEDelegate::keyboardDidShow(cocos2d::CCIMEKeyboardNotificationInfo&)
PUBLIC 613dc 0 cocos2d::CCIMEDelegate::keyboardDidHide(cocos2d::CCIMEKeyboardNotificationInfo&)
PUBLIC 613e0 0 __cxx_global_var_init
PUBLIC 61860 0 geode::modifier::ModifyBase<geode::modifier::ModifyDerive<NewSetupTriggerPopup, SetupTriggerPopup> >::~ModifyBase()
PUBLIC 6187c 0 __cxx_global_var_init.5
PUBLIC 61cfc 0 geode::modifier::ModifyBase<geode::modifier::ModifyDerive<CCTextInputNodeTrigger, CCTextInputNode> >::~ModifyBase()
PUBLIC 61d18 0 __cxx_global_var_init.6
PUBLIC 61d64 0 geode::modifier::ModifyBase<geode::modifier::ModifyDerive<TriggerItemSprite, CCMenuItemSpriteExtra> >::~ModifyBase()
PUBLIC 61d80 0 __cxx_global_var_init.7
PUBLIC 621bc 0 __cxx_global_var_init.8
PUBLIC 625f8 0 __cxx_global_var_init.9
PUBLIC 62a34 0 __cxx_global_var_init.10
PUBLIC 62e70 0 __cxx_global_var_init.11
PUBLIC 632ac 0 geode::modifier::ModifyBase<geode::modifier::ModifyDerive<hook501<(anonymous namespace)::hook501Parent>, ColorSelectPopup> >::~ModifyBase()
PUBLIC 632c8 0 geode::modifier::ModifyBase<geode::modifier::ModifyDerive<hook527<(anonymous namespace)::hook527Parent>, SetupPulsePopup> >::~ModifyBase()
PUBLIC 632e4 0 geode::modifier::ModifyBase<geode::modifier::ModifyDerive<hook553<(anonymous namespace)::hook553Parent>, SetupOpacityPopup> >::~ModifyBase()
PUBLIC 63300 0 geode::modifier::ModifyBase<geode::modifier::ModifyDerive<hook577<(anonymous namespace)::hook577Parent>, GJFollowCommandLayer> >::~ModifyBase()
PUBLIC 6331c 0 geode::modifier::ModifyBase<geode::modifier::ModifyDerive<hook626<(anonymous namespace)::hook626Parent>, cocos2d::CCKeyboardDispatcher> >::~ModifyBase()
PUBLIC 63338 0 geode::modifier::FieldIntermediate<NewSetupTriggerPopup, SetupTriggerPopup>::self()
PUBLIC 63554 0 geode::modifier::FieldIntermediate<NewSetupTriggerPopup, SetupTriggerPopup>::fieldDestructor(void*)
PUBLIC 635c0 0 geode::cocos::CCDictionaryExt<int, CCMenuItemSpriteExtra*, CCMenuItemSpriteExtra>::~CCDictionaryExt()
PUBLIC 635dc 0 geode::modifier::FieldIntermediate<CCTextInputNodeTrigger, CCTextInputNode>::self()
PUBLIC 6376c 0 geode::modifier::FieldIntermediate<CCTextInputNodeTrigger, CCTextInputNode>::fieldDestructor(void*)
PUBLIC 63770 0 std::__ndk1::vector<int, std::__ndk1::allocator<int> >::__throw_length_error[abi:ne180000]() const
PUBLIC 63784 0 geode::modifier::FieldIntermediate<TriggerItemSprite, CCMenuItemSpriteExtra>::self()
PUBLIC 63910 0 geode::modifier::FieldIntermediate<TriggerItemSprite, CCMenuItemSpriteExtra>::fieldDestructor(void*)
PUBLIC 63914 0 geode::modifier::ModifyDerive<NewSetupTriggerPopup, SetupTriggerPopup>::apply()
PUBLIC 643f8 0 geode::modifier::ModifyBase<geode::modifier::ModifyDerive<NewSetupTriggerPopup, SetupTriggerPopup> >::apply()
PUBLIC 643fc 0 geode::Hook::create<void (*)(NewSetupTriggerPopup*, Slider*)>(void*, void (*)(NewSetupTriggerPopup*, Slider*), std::__ndk1::basic_string<char, std::__ndk1::char_traits<char>, std::__ndk1::allocator<char> > const&, tulip::hook::TulipConvention, tulip::hook::HookMetadata const&)
PUBLIC 64580 0 geode::modifier::AsStaticFunction_sliderBegan<NewSetupTriggerPopup, void (NewSetupTriggerPopup::*)(Slider*)>::Impl<void (NewSetupTriggerPopup::*)(Slider*)>::function(NewSetupTriggerPopup*, Slider*)
PUBLIC 645d0 0 geode::modifier::AsStaticFunction_sliderEnded<NewSetupTriggerPopup, void (NewSetupTriggerPopup::*)(Slider*)>::Impl<void (NewSetupTriggerPopup::*)(Slider*)>::function(NewSetupTriggerPopup*, Slider*)
PUBLIC 6461c 0 geode::modifier::AsStaticFunction_updateDefaultTriggerValues<NewSetupTriggerPopup, void (NewSetupTriggerPopup::*)()>::Impl<void (NewSetupTriggerPopup::*)()>::function(NewSetupTriggerPopup*)
PUBLIC 64ad8 0 geode::modifier::AsStaticFunction_init<NewSetupTriggerPopup, bool (NewSetupTriggerPopup::*)(EffectGameObject*, cocos2d::CCArray*, float, float, int)>::Impl<bool (NewSetupTriggerPopup::*)(EffectGameObject*, cocos2d::CCArray*, float, float, int)>::function(NewSetupTriggerPopup*, EffectGameObject*, cocos2d::CCArray*, float, float, int)
PUBLIC 64e44 0 geode::addresser::Addresser::addressOfVirtual<void, SetupTriggerPopup, Slider*>(void (SetupTriggerPopup::*)(Slider*))
PUBLIC 64f10 0 SetupTriggerPopup::SetupTriggerPopup(geode::ZeroConstructorType)
PUBLIC 64fc0 0 geode::addresser::Addresser::addressOfVirtual<void, SetupTriggerPopup, >(void (SetupTriggerPopup::*)())
PUBLIC 65068 0 geode::modifier::ModifyDerive<CCTextInputNodeTrigger, CCTextInputNode>::apply()
PUBLIC 65428 0 geode::modifier::ModifyBase<geode::modifier::ModifyDerive<CCTextInputNodeTrigger, CCTextInputNode> >::apply()
PUBLIC 6542c 0 geode::modifier::AsStaticFunction_ccTouchBegan<CCTextInputNodeTrigger, bool (CCTextInputNodeTrigger::*)(cocos2d::CCTouch*, cocos2d::CCEvent*)>::Impl<bool (CCTextInputNodeTrigger::*)(cocos2d::CCTouch*, cocos2d::CCEvent*)>::function(CCTextInputNodeTrigger*, cocos2d::CCTouch*, cocos2d::CCEvent*)
PUBLIC 655d8 0 geode::addresser::Addresser::addressOfVirtual<bool, CCTextInputNode, cocos2d::CCTouch*, cocos2d::CCEvent*>(bool (CCTextInputNode::*)(cocos2d::CCTouch*, cocos2d::CCEvent*))
PUBLIC 656a0 0 CCTextInputNode::CCTextInputNode(geode::ZeroConstructorType)
PUBLIC 657a4 0 geode::modifier::ModifyDerive<TriggerItemSprite, CCMenuItemSpriteExtra>::apply()
PUBLIC 657a8 0 geode::modifier::ModifyBase<geode::modifier::ModifyDerive<TriggerItemSprite, CCMenuItemSpriteExtra> >::apply()
PUBLIC 657ac 0 std::__ndk1::__function::__base<void (std::__ndk1::optional<float>)>::~__base()
PUBLIC 657b0 0 std::__ndk1::__function::__func<NewSetupTriggerPopup::onMixedInput(cocos2d::CCObject*)::$_0, std::__ndk1::allocator<NewSetupTriggerPopup::onMixedInput(cocos2d::CCObject*)::$_0>, void (std::__ndk1::optional<float>)>::~__func()
PUBLIC 657b4 0 std::__ndk1::__function::__func<NewSetupTriggerPopup::onMixedInput(cocos2d::CCObject*)::$_0, std::__ndk1::allocator<NewSetupTriggerPopup::onMixedInput(cocos2d::CCObject*)::$_0>, void (std::__ndk1::optional<float>)>::__clone() const
PUBLIC 657f4 0 std::__ndk1::__function::__func<NewSetupTriggerPopup::onMixedInput(cocos2d::CCObject*)::$_0, std::__ndk1::allocator<NewSetupTriggerPopup::onMixedInput(cocos2d::CCObject*)::$_0>, void (std::__ndk1::optional<float>)>::__clone(std::__ndk1::__function::__base<void (std::__ndk1::optional<float>)>*) const
PUBLIC 65814 0 std::__ndk1::__function::__func<NewSetupTriggerPopup::onMixedInput(cocos2d::CCObject*)::$_0, std::__ndk1::allocator<NewSetupTriggerPopup::onMixedInput(cocos2d::CCObject*)::$_0>, void (std::__ndk1::optional<float>)>::destroy()
PUBLIC 65818 0 std::__ndk1::__function::__func<NewSetupTriggerPopup::onMixedInput(cocos2d::CCObject*)::$_0, std::__ndk1::allocator<NewSetupTriggerPopup::onMixedInput(cocos2d::CCObject*)::$_0>, void (std::__ndk1::optional<float>)>::destroy_deallocate()
PUBLIC 6581c 0 std::__ndk1::__function::__func<NewSetupTriggerPopup::onMixedInput(cocos2d::CCObject*)::$_0, std::__ndk1::allocator<NewSetupTriggerPopup::onMixedInput(cocos2d::CCObject*)::$_0>, void (std::__ndk1::optional<float>)>::operator()(std::__ndk1::optional<float>&&)
PUBLIC 65d14 0 std::__ndk1::__function::__func<NewSetupTriggerPopup::onMixedInput(cocos2d::CCObject*)::$_0, std::__ndk1::allocator<NewSetupTriggerPopup::onMixedInput(cocos2d::CCObject*)::$_0>, void (std::__ndk1::optional<float>)>::target(std::type_info const&) const
PUBLIC 65d30 0 std::__ndk1::__function::__func<NewSetupTriggerPopup::onMixedInput(cocos2d::CCObject*)::$_0, std::__ndk1::allocator<NewSetupTriggerPopup::onMixedInput(cocos2d::CCObject*)::$_0>, void (std::__ndk1::optional<float>)>::target_type() const
PUBLIC 65d3c 0 geode::modifier::ModifyDerive<hook501<(anonymous namespace)::hook501Parent>, ColorSelectPopup>::apply()
PUBLIC 660ec 0 geode::modifier::ModifyBase<geode::modifier::ModifyDerive<hook501<(anonymous namespace)::hook501Parent>, ColorSelectPopup> >::apply()
PUBLIC 660f0 0 geode::modifier::AsStaticFunction_init<hook501<(anonymous namespace)::hook501Parent>, bool (hook501<(anonymous namespace)::hook501Parent>::*)(EffectGameObject*, cocos2d::CCArray*, ColorAction*)>::Impl<bool (hook501<(anonymous namespace)::hook501Parent>::*)(EffectGameObject*, cocos2d::CCArray*, ColorAction*)>::function(hook501<(anonymous namespace)::hook501Parent>*, EffectGameObject*, cocos2d::CCArray*, ColorAction*)
PUBLIC 663dc 0 std::__ndk1::map<int, int, std::__ndk1::less<int>, std::__ndk1::allocator<std::__ndk1::pair<int const, int> > >::map[abi:ne180000](std::initializer_list<std::__ndk1::pair<int const, int> >, std::__ndk1::less<int> const&)
PUBLIC 664f8 0 std::__ndk1::map<int, std::__ndk1::vector<cocos2d::CCPoint, std::__ndk1::allocator<cocos2d::CCPoint> >, std::__ndk1::less<int>, std::__ndk1::allocator<std::__ndk1::pair<int const, std::__ndk1::vector<cocos2d::CCPoint, std::__ndk1::allocator<cocos2d::CCPoint> > > > >::map[abi:ne180000](std::initializer_list<std::__ndk1::pair<int const, std::__ndk1::vector<cocos2d::CCPoint, std::__ndk1::allocator<cocos2d::CCPoint> > > >, std::__ndk1::less<int> const&)
PUBLIC 667f0 0 std::__ndk1::__tree<std::__ndk1::__value_type<int, int>, std::__ndk1::__map_value_compare<int, std::__ndk1::__value_type<int, int>, std::__ndk1::less<int>, true>, std::__ndk1::allocator<std::__ndk1::__value_type<int, int> > >::__find_equal<int>(std::__ndk1::__tree_const_iterator<std::__ndk1::__value_type<int, int>, std::__ndk1::__tree_node<std::__ndk1::__value_type<int, int>, void*>*, long>, std::__ndk1::__tree_end_node<std::__ndk1::__tree_node_base<void*>*>*&, std::__ndk1::__tree_node_base<void*>*&, int const&)
PUBLIC 66980 0 std::__ndk1::__tree<std::__ndk1::__value_type<int, int>, std::__ndk1::__map_value_compare<int, std::__ndk1::__value_type<int, int>, std::__ndk1::less<int>, true>, std::__ndk1::allocator<std::__ndk1::__value_type<int, int> > >::destroy(std::__ndk1::__tree_node<std::__ndk1::__value_type<int, int>, void*>*)
PUBLIC 669c4 0 std::__ndk1::vector<cocos2d::CCPoint, std::__ndk1::allocator<cocos2d::CCPoint> >::__throw_length_error[abi:ne180000]() const
PUBLIC 669d8 0 std::__ndk1::unique_ptr<std::__ndk1::__tree_node<std::__ndk1::__value_type<int, std::__ndk1::vector<cocos2d::CCPoint, std::__ndk1::allocator<cocos2d::CCPoint> > >, void*>, std::__ndk1::__tree_node_destructor<std::__ndk1::allocator<std::__ndk1::__tree_node<std::__ndk1::__value_type<int, std::__ndk1::vector<cocos2d::CCPoint, std::__ndk1::allocator<cocos2d::CCPoint> > >, void*> > > >::~unique_ptr[abi:ne180000]()
PUBLIC 66a24 0 std::__ndk1::__tree<std::__ndk1::__value_type<int, std::__ndk1::vector<cocos2d::CCPoint, std::__ndk1::allocator<cocos2d::CCPoint> > >, std::__ndk1::__map_value_compare<int, std::__ndk1::__value_type<int, std::__ndk1::vector<cocos2d::CCPoint, std::__ndk1::allocator<cocos2d::CCPoint> > >, std::__ndk1::less<int>, true>, std::__ndk1::allocator<std::__ndk1::__value_type<int, std::__ndk1::vector<cocos2d::CCPoint, std::__ndk1::allocator<cocos2d::CCPoint> > > > >::destroy(std::__ndk1::__tree_node<std::__ndk1::__value_type<int, std::__ndk1::vector<cocos2d::CCPoint, std::__ndk1::allocator<cocos2d::CCPoint> > >, void*>*)
PUBLIC 66a6c 0 std::__ndk1::map<int, int, std::__ndk1::less<int>, std::__ndk1::allocator<std::__ndk1::pair<int const, int> > >::insert[abi:ne180000]<std::__ndk1::__map_const_iterator<std::__ndk1::__tree_const_iterator<std::__ndk1::__value_type<int, int>, std::__ndk1::__tree_node<std::__ndk1::__value_type, void*>*, long> > >(std::__ndk1::__map_const_iterator<std::__ndk1::__tree_const_iterator<std::__ndk1::__value_type<int, int>, std::__ndk1::__tree_node<std::__ndk1::__value_type, void*>*, long> >, std::__ndk1::__map_const_iterator<std::__ndk1::__tree_const_iterator<std::__ndk1::__value_type<int, int>, std::__ndk1::__tree_node<std::__ndk1::__value_type, void*>*, long> >)
PUBLIC 66b90 0 geode::modifier::ModifyDerive<hook527<(anonymous namespace)::hook527Parent>, SetupPulsePopup>::apply()
PUBLIC 66f30 0 geode::modifier::ModifyBase<geode::modifier::ModifyDerive<hook527<(anonymous namespace)::hook527Parent>, SetupPulsePopup> >::apply()
PUBLIC 66f34 0 geode::modifier::AsStaticFunction_init<hook527<(anonymous namespace)::hook527Parent>, bool (hook527<(anonymous namespace)::hook527Parent>::*)(EffectGameObject*, cocos2d::CCArray*)>::Impl<bool (hook527<(anonymous namespace)::hook527Parent>::*)(EffectGameObject*, cocos2d::CCArray*)>::function(hook527<(anonymous namespace)::hook527Parent>*, EffectGameObject*, cocos2d::CCArray*)
PUBLIC 67414 0 geode::modifier::ModifyDerive<hook553<(anonymous namespace)::hook553Parent>, SetupOpacityPopup>::apply()
PUBLIC 677d4 0 geode::modifier::ModifyBase<geode::modifier::ModifyDerive<hook553<(anonymous namespace)::hook553Parent>, SetupOpacityPopup> >::apply()
PUBLIC 677d8 0 geode::modifier::AsStaticFunction_init<hook553<(anonymous namespace)::hook553Parent>, bool (hook553<(anonymous namespace)::hook553Parent>::*)(EffectGameObject*, cocos2d::CCArray*)>::Impl<bool (hook553<(anonymous namespace)::hook553Parent>::*)(EffectGameObject*, cocos2d::CCArray*)>::function(hook553<(anonymous namespace)::hook553Parent>*, EffectGameObject*, cocos2d::CCArray*)
PUBLIC 67abc 0 geode::modifier::ModifyDerive<hook577<(anonymous namespace)::hook577Parent>, GJFollowCommandLayer>::apply()
PUBLIC 67e84 0 geode::modifier::ModifyBase<geode::modifier::ModifyDerive<hook577<(anonymous namespace)::hook577Parent>, GJFollowCommandLayer> >::apply()
PUBLIC 67e88 0 geode::modifier::AsStaticFunction_init<hook577<(anonymous namespace)::hook577Parent>, bool (hook577<(anonymous namespace)::hook577Parent>::*)(EffectGameObject*, cocos2d::CCArray*)>::Impl<bool (hook577<(anonymous namespace)::hook577Parent>::*)(EffectGameObject*, cocos2d::CCArray*)>::function(hook577<(anonymous namespace)::hook577Parent>*, EffectGameObject*, cocos2d::CCArray*)
PUBLIC 68368 0 geode::modifier::ModifyDerive<hook626<(anonymous namespace)::hook626Parent>, cocos2d::CCKeyboardDispatcher>::apply()
PUBLIC 68754 0 geode::modifier::ModifyBase<geode::modifier::ModifyDerive<hook626<(anonymous namespace)::hook626Parent>, cocos2d::CCKeyboardDispatcher> >::apply()
PUBLIC 68758 0 geode::modifier::AsStaticFunction_dispatchKeyboardMSG<hook626<(anonymous namespace)::hook626Parent>, bool (hook626<(anonymous namespace)::hook626Parent>::*)(cocos2d::enumKeyCodes, bool, bool)>::Impl<bool (hook626<(anonymous namespace)::hook626Parent>::*)(cocos2d::enumKeyCodes, bool, bool)>::function(hook626<(anonymous namespace)::hook626Parent>*, cocos2d::enumKeyCodes, bool, bool)
PUBLIC 687c4 0 Trigger::getTriggerPopup()
PUBLIC 688e8 0 Trigger::getProperty(EffectGameObject*, short)
PUBLIC 68a6c 0 Trigger::hasProperty(EffectGameObject*, short)
PUBLIC 6a600 0 std::__ndk1::vector<short, std::__ndk1::allocator<short> >::vector[abi:ne180000](std::initializer_list<short>)
PUBLIC 6a688 0 CCBoundedMenu::ccTouchBegan(cocos2d::CCTouch*, cocos2d::CCEvent*)
PUBLIC 6a764 0 {virtual override thunk({offset(-320)}, CCBoundedMenu::ccTouchBegan(cocos2d::CCTouch*, cocos2d::CCEvent*))}
PUBLIC 6a850 0 CCBoundedMenu::ccTouchMoved(cocos2d::CCTouch*, cocos2d::CCEvent*)
PUBLIC 6a928 0 {virtual override thunk({offset(-320)}, CCBoundedMenu::ccTouchMoved(cocos2d::CCTouch*, cocos2d::CCEvent*))}
PUBLIC 6aa10 0 CCBoundedMenu::~CCBoundedMenu()
PUBLIC 6aa34 0 cocos2d::CCMenu::setOpacityModifyRGB(bool)
PUBLIC 6aa38 0 cocos2d::CCMenu::isOpacityModifyRGB()
PUBLIC 6aa40 0 cocos2d::CCMenu::isEnabled()
PUBLIC 6aa48 0 cocos2d::CCMenu::setEnabled(bool)
PUBLIC 6aa50 0 {virtual override thunk({offset(-320)}, CCBoundedMenu::~CCBoundedMenu())}
PUBLIC 6aa58 0 {virtual override thunk({offset(-320)}, CCBoundedMenu::~CCBoundedMenu())}
PUBLIC 6aa80 0 {virtual override thunk({offset(-408)}, cocos2d::CCMenu::setOpacityModifyRGB(bool))}
PUBLIC 6aa84 0 {virtual override thunk({offset(-408)}, cocos2d::CCMenu::isOpacityModifyRGB())}
PUBLIC 6aa8c 0 nk::toString(float, std::__ndk1::optional<int>, bool)
PUBLIC m 6aea8 0 geodeImplicitEntry
PUBLIC 6aee4 0 std::__ndk1::unordered_map<void*, bool, std::__ndk1::hash<void*>, std::__ndk1::equal_to<void*>, std::__ndk1::allocator<std::__ndk1::pair<void* const, bool> > >::~unordered_map[abi:ne180000]()
PUBLIC 6af30 0 wrapFunction(unsigned long, tulip::hook::WrapperMetadata const&)
PUBLIC 6b064 0 geode::impl::ResultData<void*, std::__ndk1::basic_string<char, std::__ndk1::char_traits<char>, std::__ndk1::allocator<char> > >::unwrapErr() &
PUBLIC 6b0dc 0 geode::impl::ResultData<void*, std::__ndk1::basic_string<char, std::__ndk1::char_traits<char>, std::__ndk1::allocator<char> > >::~ResultData()
PUBLIC 6b150 0 tulip::hook::WrapperMetadata::~WrapperMetadata()
PUBLIC 6b1b4 0 cocos2d::CCObject::~CCObject()
PUBLIC 6b1d8 0 cocos2d::CCNode::~CCNode()
PUBLIC 6b1fc 0 {virtual override thunk({offset(-320)}, cocos2d::CCLayer::~CCLayer())}
PUBLIC 6b204 0 cocos2d::CCLayer::~CCLayer()
PUBLIC 6b228 0 {virtual override thunk({offset(-320)}, cocos2d::CCLayer::~CCLayer())}
PUBLIC 6b250 0 cocos2d::CCLayerRGBA::CCLayerRGBA()
PUBLIC 6b4dc 0 cocos2d::CCLayerRGBA::~CCLayerRGBA()
PUBLIC 6b7dc 0 {virtual override thunk({offset(-320)}, cocos2d::CCLayerRGBA::~CCLayerRGBA())}
PUBLIC 6b7e4 0 cocos2d::CCLayerRGBA::~CCLayerRGBA()
PUBLIC 6b808 0 {virtual override thunk({offset(-320)}, cocos2d::CCLayerRGBA::~CCLayerRGBA())}
PUBLIC 6b830 0 cocos2d::CCLayerColor::CCLayerColor()
PUBLIC 6ba94 0 {virtual override thunk({offset(-320)}, cocos2d::CCLayerColor::~CCLayerColor())}
PUBLIC 6ba9c 0 cocos2d::CCLayerColor::~CCLayerColor()
PUBLIC 6bac0 0 {virtual override thunk({offset(-320)}, cocos2d::CCLayerColor::~CCLayerColor())}
PUBLIC 6bae8 0 cocos2d::CCIMEDelegate::~CCIMEDelegate()
PUBLIC 6bd34 0 cocos2d::CCIMEDelegate::~CCIMEDelegate()
PUBLIC 6bd58 0 {virtual override thunk({offset(-320)}, FLAlertLayer::~FLAlertLayer())}
PUBLIC 6bd60 0 FLAlertLayer::~FLAlertLayer()
PUBLIC 6bd84 0 {virtual override thunk({offset(-320)}, FLAlertLayer::~FLAlertLayer())}
PUBLIC 6bdac 0 FLAlertLayer::create(FLAlertLayerProtocol*, char const*, gd::string, char const*, char const*, float)
PUBLIC 6bf64 0 tulip::hook::AbstractFunction::from<FLAlertLayer*, FLAlertLayerProtocol*, char const*, gd::string, char const*, char const*, float>(FLAlertLayer* (*)(FLAlertLayerProtocol*, char const*, gd::string, char const*, char const*, float))
PUBLIC 6c448 0 tulip::hook::AbstractFunction::from<void, CCTextInputNode*, gd::string>(void (*)(CCTextInputNode*, gd::string))
PUBLIC 6c4ec 0 CCTextInputNode::setString(gd::string)
PUBLIC 6c664 0 SetupTriggerPopup::createValueControlAdvanced(int, gd::string, cocos2d::CCPoint, float, bool, InputValueType, int, bool, float, float, int, int, GJInputStyle, int, bool)
PUBLIC 6c880 0 tulip::hook::AbstractFunction::from<cocos2d::CCArray*, SetupTriggerPopup*, int, gd::string, cocos2d::CCPoint, float, bool, InputValueType, int, bool, float, float, int, int, GJInputStyle, int, bool>(cocos2d::CCArray* (*)(SetupTriggerPopup*, int, gd::string, cocos2d::CCPoint, float, bool, InputValueType, int, bool, float, float, int, int, GJInputStyle, int, bool))
PUBLIC 6d714 0 InfoAlertButton::create(gd::string, gd::string, float)
PUBLIC 6d8c0 0 tulip::hook::AbstractFunction::from<InfoAlertButton*, gd::string, gd::string, float>(InfoAlertButton* (*)(gd::string, gd::string, float))
PUBLIC 6d9cc 0 cocos2d::CCObject::update(float)
PUBLIC 6d9d0 0 cocos2d::CCIMEDelegate::keyboardWillShow(cocos2d::CCIMEKeyboardNotificationInfo&)
PUBLIC 6d9d4 0 cocos2d::CCIMEDelegate::keyboardWillHide(cocos2d::CCIMEKeyboardNotificationInfo&)
PUBLIC 6d9d8 0 cocos2d::CCLayerColor::~CCLayerColor()
PUBLIC 6dcbc 0 FLAlertLayer::~FLAlertLayer()
PUBLIC 6dfa0 0 cocos2d::CCNode::~CCNode()
PUBLIC 6e240 0 cocos2d::CCLayer::~CCLayer()
PUBLIC 6e530 0 cocos2d::CCObject::~CCObject()
PUBLIC 6ea24 0 _ZN5geode15UnwrapExceptionC2IRPvQsr4implE18IsStringStreamableIT_EEENS_4impl5OkTagEOS4_
PUBLIC 6eb78 0 std::__ndk1::__variant_detail::__visitation::__base::__dispatcher<(unsigned long)0>::__dispatch[abi:ne180000]<std::__ndk1::__variant_detail::__dtor<std::__ndk1::__variant_detail::__traits<void*, std::__ndk1::basic_string<char, std::__ndk1::char_traits<char>, std::__ndk1::allocator<char> > >, (std::__ndk1::__variant_detail::_Trait)1>::__destroy[abi:ne180000]()::{lambda(auto:1&)#1}, std::__ndk1::__variant_detail::__base<(std::__ndk1::__variant_detail::__traits<void*, std::__ndk1::basic_string<char, std::__ndk1::char_traits<char>, std::__ndk1::allocator<char> > >)1, std::__ndk1::__variant_detail::__traits, std::__ndk1::allocator<char> >&>(std::__ndk1::__variant_detail::__dtor<std::__ndk1::__variant_detail::__traits<void*, std::__ndk1::basic_string<char, std::__ndk1::char_traits<char>, std::__ndk1::allocator<char> > >, (std::__ndk1::__variant_detail::_Trait)1>, std::__ndk1::__variant_detail::__base<(std::__ndk1::__variant_detail::__traits<void*, std::__ndk1::basic_string<char, std::__ndk1::char_traits<char>, std::__ndk1::allocator<char> > >)1, std::__ndk1::__variant_detail::__traits, std::__ndk1::allocator<char> >&)
PUBLIC 6eb7c 0 std::__ndk1::__variant_detail::__visitation::__base::__dispatcher<(unsigned long)1>::__dispatch[abi:ne180000]<std::__ndk1::__variant_detail::__dtor<std::__ndk1::__variant_detail::__traits<void*, std::__ndk1::basic_string<char, std::__ndk1::char_traits<char>, std::__ndk1::allocator<char> > >, (std::__ndk1::__variant_detail::_Trait)1>::__destroy[abi:ne180000]()::{lambda(auto:1&)#1}, std::__ndk1::__variant_detail::__base<(std::__ndk1::__variant_detail::__traits<void*, std::__ndk1::basic_string<char, std::__ndk1::char_traits<char>, std::__ndk1::allocator<char> > >)1, std::__ndk1::__variant_detail::__traits, std::__ndk1::allocator<char> >&>(std::__ndk1::__variant_detail::__dtor<std::__ndk1::__variant_detail::__traits<void*, std::__ndk1::basic_string<char, std::__ndk1::char_traits<char>, std::__ndk1::allocator<char> > >, (std::__ndk1::__variant_detail::_Trait)1>, std::__ndk1::__variant_detail::__base<(std::__ndk1::__variant_detail::__traits<void*, std::__ndk1::basic_string<char, std::__ndk1::char_traits<char>, std::__ndk1::allocator<char> > >)1, std::__ndk1::__variant_detail::__traits, std::__ndk1::allocator<char> >&)
PUBLIC 6eb90 0 std::__ndk1::__hash_table<std::__ndk1::__hash_value_type<void*, bool>, std::__ndk1::__unordered_map_hasher<void*, std::__ndk1::__hash_value_type<void*, bool>, std::__ndk1::hash<void*>, std::__ndk1::equal_to<void*>, true>, std::__ndk1::__unordered_map_equal<void*, std::__ndk1::__hash_value_type<void*, bool>, std::__ndk1::equal_to<void*>, std::__ndk1::hash<void*>, true>, std::__ndk1::allocator<std::__ndk1::__hash_value_type<void*, bool> > >::__emplace_unique_key_args<void*, std::__ndk1::piecewise_construct_t const&, std::__ndk1::tuple<void* const&>, std::__ndk1::tuple<> >(void* const&, std::__ndk1::piecewise_construct_t const&, std::__ndk1::tuple<void* const&>, std::__ndk1::tuple<>)
PUBLIC 6f09c 0 __CortexA53843419_48004
PUBLIC 6f0b0 0 <.plt ELF section in ninkaz.editor_utils.android64.so>
STACK CFI INIT 33e90 10 .cfa: sp 0 +
STACK CFI INIT 33ea0 8 .cfa: sp 0 +
STACK CFI INIT 33ea8 8 .cfa: sp 0 +
STACK CFI INIT 33eb0 14 .cfa: sp 0 +
STACK CFI INIT 33ec4 1c .cfa: sp 0 +
STACK CFI INIT 33ee0 10 .cfa: sp 0 +
STACK CFI INIT 33ef0 30 .cfa: sp 0 +
STACK CFI INIT 33f20 98 .cfa: sp 0 +
STACK CFI INIT 33fb8 59c .cfa: sp 0 +
STACK CFI INIT 34554 8c .cfa: sp 0 +
STACK CFI INIT 345e0 30 .cfa: sp 0 +
STACK CFI INIT 38d18 60 .cfa: sp 0 +
STACK CFI 38d1c .cfa: sp 32 +
STACK CFI 38d24 .cfa: x29 32 + x19: .cfa -8 + ^ x20: .cfa -16 + ^ .ra: .cfa -24 + ^ x29: .cfa -32 + ^
STACK CFI 38d44 .cfa: sp 32 +
STACK CFI 38d4c .cfa: sp 0 +
STACK CFI 38d50 .cfa: x29 32 +
STACK CFI 38d6c .cfa: sp 32 +
STACK CFI 38d74 .cfa: sp 0 +
STACK CFI INIT 390ac 248 .cfa: sp 0 +
STACK CFI 390b0 .cfa: sp 80 +
STACK CFI 390c8 .cfa: x29 56 + x19: .cfa -8 + ^ x20: .cfa -16 + ^ x21: .cfa -24 + ^ x22: .cfa -32 + ^ x23: .cfa -40 + ^ .ra: .cfa -48 + ^ x29: .cfa -56 + ^ v8: .cfa -64 + ^
STACK CFI 392d4 .cfa: sp 80 +
STACK CFI 392ec .cfa: sp 0 +
STACK CFI 392f0 .cfa: x29 56 +
STACK CFI INIT 39314 7c .cfa: sp 0 +
STACK CFI 39318 .cfa: sp 48 +
STACK CFI 39324 .cfa: x29 48 + x19: .cfa -8 + ^ x20: .cfa -16 + ^ x21: .cfa -32 + ^ .ra: .cfa -40 + ^ x29: .cfa -48 + ^
STACK CFI 39370 .cfa: sp 48 +
STACK CFI 3937c .cfa: sp 0 +
STACK CFI 39380 .cfa: sp 48 +
STACK CFI 3938c .cfa: sp 0 +
STACK CFI INIT 39390 8 .cfa: sp 0 +
STACK CFI INIT 39510 2c .cfa: sp 0 +
STACK CFI 39514 .cfa: sp 32 +
STACK CFI 3951c .cfa: x29 32 + x19: .cfa -16 + ^ .ra: .cfa -24 + ^ x29: .cfa -32 + ^
STACK CFI 39530 .cfa: sp 32 +
STACK CFI 39538 .cfa: sp 0 +
STACK CFI INIT 3953c 28 .cfa: sp 0 +
STACK CFI INIT 39564 4 .cfa: sp 0 +
STACK CFI INIT 39568 8 .cfa: sp 0 +
STACK CFI INIT 39838 2c .cfa: sp 0 +
STACK CFI INIT 39864 4 .cfa: sp 0 +
STACK CFI INIT 39868 4 .cfa: sp 0 +
STACK CFI INIT 3986c 4 .cfa: sp 0 +
STACK CFI INIT 39870 4 .cfa: sp 0 +
STACK CFI INIT 39874 4 .cfa: sp 0 +
STACK CFI INIT 39878 8 .cfa: sp 0 +
STACK CFI INIT 39d00 1c .cfa: sp 0 +
STACK CFI INIT 39d1c 14 .cfa: sp 0 +
STACK CFI 39d20 .cfa: sp 16 +
STACK CFI 39d24 .cfa: x29 16 + .ra: .cfa -8 + ^ x29: .cfa -16 + ^
STACK CFI INIT 39d80 30 .cfa: sp 0 +
STACK CFI 39d84 .cfa: sp 32 +
STACK CFI 39d8c .cfa: x29 32 + x19: .cfa -16 + ^ .ra: .cfa -24 + ^ x29: .cfa -32 + ^
STACK CFI 39da4 .cfa: sp 32 +
STACK CFI 39dac .cfa: sp 0 +
STACK CFI INIT 39db0 34 .cfa: sp 0 +
STACK CFI 39db4 .cfa: sp 32 +
STACK CFI 39dbc .cfa: x29 32 + x19: .cfa -16 + ^ .ra: .cfa -24 + ^ x29: .cfa -32 + ^
STACK CFI INIT 39de4 10 .cfa: sp 0 +
STACK CFI 39de8 .cfa: sp 16 +
STACK CFI 39dec .cfa: x29 16 + .ra: .cfa -8 + ^ x29: .cfa -16 + ^
STACK CFI INIT 39df4 14 .cfa: sp 0 +
STACK CFI 39df8 .cfa: sp 16 +
STACK CFI 39dfc .cfa: x29 16 + .ra: .cfa -8 + ^ x29: .cfa -16 + ^
STACK CFI INIT 39e08 50 .cfa: sp 0 +
STACK CFI 39e0c .cfa: sp 32 +
STACK CFI 39e14 .cfa: x29 32 + x19: .cfa -16 + ^ .ra: .cfa -24 + ^ x29: .cfa -32 + ^
STACK CFI 39e2c .cfa: sp 32 +
STACK CFI 39e34 .cfa: sp 0 +
STACK CFI 39e38 .cfa: x29 32 +
STACK CFI 39e4c .cfa: sp 32 +
STACK CFI 39e54 .cfa: sp 0 +
STACK CFI INIT 39e58 14 .cfa: sp 0 +
STACK CFI 39e5c .cfa: sp 16 +
STACK CFI 39e60 .cfa: x29 16 + .ra: .cfa -8 + ^ x29: .cfa -16 + ^
STACK CFI INIT 39ebc 30 .cfa: sp 0 +
STACK CFI 39ec0 .cfa: sp 32 +
STACK CFI 39ec8 .cfa: x29 32 + x19: .cfa -16 + ^ .ra: .cfa -24 + ^ x29: .cfa -32 + ^
STACK CFI 39ee0 .cfa: sp 32 +
STACK CFI 39ee8 .cfa: sp 0 +
STACK CFI INIT 39eec 14 .cfa: sp 0 +
STACK CFI 39ef0 .cfa: sp 16 +
STACK CFI 39ef4 .cfa: x29 16 + .ra: .cfa -8 + ^ x29: .cfa -16 + ^
STACK CFI INIT 39f00 70 .cfa: sp 0 +
STACK CFI 39f04 .cfa: sp 32 +
STACK CFI 39f0c .cfa: x29 32 + x19: .cfa -8 + ^ x20: .cfa -16 + ^ .ra: .cfa -24 + ^ x29: .cfa -32 + ^
STACK CFI 39f58 .cfa: sp 32 +
STACK CFI 39f60 .cfa: sp 0 +
STACK CFI 39f64 .cfa: sp 32 +
STACK CFI 39f6c .cfa: sp 0 +
STACK CFI INIT 39f70 14 .cfa: sp 0 +
STACK CFI 39f74 .cfa: sp 16 +
STACK CFI 39f78 .cfa: x29 16 + .ra: .cfa -8 + ^ x29: .cfa -16 + ^
STACK CFI INIT 39ff0 4 .cfa: sp 0 +
STACK CFI INIT 3a060 4 .cfa: sp 0 +
STACK CFI INIT 3a3c4 50 .cfa: sp 0 +
STACK CFI 3a3c8 .cfa: sp 32 +
STACK CFI 3a3d0 .cfa: x29 32 + x19: .cfa -16 + ^ .ra: .cfa -24 + ^ x29: .cfa -32 + ^
STACK CFI 3a3e8 .cfa: sp 32 +
STACK CFI 3a3f0 .cfa: sp 0 +
STACK CFI 3a3f4 .cfa: x29 32 +
STACK CFI 3a408 .cfa: sp 32 +
STACK CFI 3a410 .cfa: sp 0 +
STACK CFI INIT 3a488 7c .cfa: sp 0 +
STACK CFI 3a48c .cfa: sp 48 +
STACK CFI 3a498 .cfa: x29 48 + x19: .cfa -8 + ^ x20: .cfa -16 + ^ x21: .cfa -32 + ^ .ra: .cfa -40 + ^ x29: .cfa -48 + ^
STACK CFI 3a4e4 .cfa: sp 48 +
STACK CFI 3a4f0 .cfa: sp 0 +
STACK CFI 3a4f4 .cfa: sp 48 +
STACK CFI 3a500 .cfa: sp 0 +
STACK CFI INIT 3a504 4 .cfa: sp 0 +
STACK CFI INIT 3a65c 34 .cfa: sp 0 +
STACK CFI 3a660 .cfa: sp 16 +
STACK CFI 3a664 .cfa: x29 16 + .ra: .cfa -8 + ^ x29: .cfa -16 + ^
STACK CFI INIT 3a7bc 80 .cfa: sp 0 +
STACK CFI 3a7c0 .cfa: sp 48 +
STACK CFI 3a7cc .cfa: x29 48 + x19: .cfa -8 + ^ x20: .cfa -16 + ^ x21: .cfa -32 + ^ .ra: .cfa -40 + ^ x29: .cfa -48 + ^
STACK CFI 3a82c .cfa: sp 48 +
STACK CFI 3a838 .cfa: sp 0 +
STACK CFI INIT 3a83c 24 .cfa: sp 0 +
STACK CFI 3a840 .cfa: sp 32 +
STACK CFI 3a848 .cfa: x29 32 + x19: .cfa -16 + ^ .ra: .cfa -24 + ^ x29: .cfa -32 + ^
STACK CFI 3a854 .cfa: sp 32 +
STACK CFI 3a85c .cfa: sp 0 +
STACK CFI INIT 3ad58 148 .cfa: sp 0 +
STACK CFI 3ad5c .cfa: sp 48 +
STACK CFI 3ad68 .cfa: x29 48 + x19: .cfa -8 + ^ x20: .cfa -16 + ^ x21: .cfa -32 + ^ .ra: .cfa -40 + ^ x29: .cfa -48 + ^
STACK CFI 3ae90 .cfa: sp 48 +
STACK CFI 3ae9c .cfa: sp 0 +
STACK CFI INIT 3b0c8 80 .cfa: sp 0 +
STACK CFI 3b0cc .cfa: sp 48 +
STACK CFI 3b0d8 .cfa: x29 48 + x19: .cfa -8 + ^ x20: .cfa -16 + ^ x21: .cfa -24 + ^ x22: .cfa -32 + ^ .ra: .cfa -40 + ^ x29: .cfa -48 + ^
STACK CFI 3b0f0 .cfa: sp 48 +
STACK CFI 3b0fc .cfa: sp 0 +
STACK CFI 3b100 .cfa: x29 48 +
STACK CFI 3b130 .cfa: sp 48 +
STACK CFI 3b13c .cfa: sp 0 +
STACK CFI 3b140 .cfa: x29 48 +
STACK CFI INIT 3b148 68 .cfa: sp 0 +
STACK CFI 3b14c .cfa: sp 32 +
STACK CFI 3b154 .cfa: x29 32 + x19: .cfa -8 + ^ x20: .cfa -16 + ^ .ra: .cfa -24 + ^ x29: .cfa -32 + ^
STACK CFI 3b16c .cfa: sp 32 +
STACK CFI 3b174 .cfa: sp 0 +
STACK CFI 3b178 .cfa: x29 32 +
STACK CFI 3b1a4 .cfa: sp 32 +
STACK CFI 3b1ac .cfa: sp 0 +
STACK CFI INIT 3b1b0 14 .cfa: sp 0 +
STACK CFI 3b1b4 .cfa: sp 16 +
STACK CFI 3b1b8 .cfa: x29 16 + .ra: .cfa -8 + ^ x29: .cfa -16 + ^
STACK CFI INIT 3b1c4 4 .cfa: sp 0 +
STACK CFI INIT 3b1c8 14 .cfa: sp 0 +
STACK CFI INIT 3b1dc 120 .cfa: sp 0 +
STACK CFI 3b1e0 .cfa: sp 64 +
STACK CFI 3b1f0 .cfa: x29 64 + x19: .cfa -8 + ^ x20: .cfa -16 + ^ x21: .cfa -24 + ^ x22: .cfa -32 + ^ x23: .cfa -40 + ^ x24: .cfa -48 + ^ .ra: .cfa -56 + ^ x29: .cfa -64 + ^
STACK CFI 3b2e8 .cfa: sp 64 +
STACK CFI 3b2f8 .cfa: sp 0 +
STACK CFI INIT 3b2fc d4 .cfa: sp 0 +
STACK CFI 3b300 .cfa: sp 48 +
STACK CFI 3b30c .cfa: x29 48 + x19: .cfa -8 + ^ x20: .cfa -16 + ^ x21: .cfa -32 + ^ .ra: .cfa -40 + ^ x29: .cfa -48 + ^
STACK CFI 3b39c .cfa: sp 48 +
STACK CFI 3b3a8 .cfa: sp 0 +
STACK CFI 3b3ac .cfa: x29 48 +
STACK CFI INIT 3b3d0 3c8 .cfa: sp 0 +
STACK CFI INIT 3b798 8c .cfa: sp 0 +
STACK CFI 3b7a0 .cfa: sp 32 +
STACK CFI 3b7a8 .cfa: x29 32 + x19: .cfa -8 + ^ x20: .cfa -16 + ^ .ra: .cfa -24 + ^ x29: .cfa -32 + ^
STACK CFI 3b7f0 .cfa: sp 32 +
STACK CFI 3b7f8 .cfa: sp 0 +
STACK CFI 3b800 .cfa: x29 32 +
STACK CFI INIT 3b9b8 50 .cfa: sp 0 +
STACK CFI 3b9bc .cfa: sp 32 +
STACK CFI 3b9c4 .cfa: x29 32 + x19: .cfa -16 + ^ .ra: .cfa -24 + ^ x29: .cfa -32 + ^
STACK CFI 3b9dc .cfa: sp 32 +
STACK CFI 3b9e4 .cfa: sp 0 +
STACK CFI 3b9e8 .cfa: x29 32 +
STACK CFI 3b9fc .cfa: sp 32 +
STACK CFI 3ba04 .cfa: sp 0 +
STACK CFI INIT 3ba08 64 .cfa: sp 0 +
STACK CFI 3ba0c .cfa: sp 32 +
STACK CFI 3ba14 .cfa: x29 32 + x19: .cfa -16 + ^ .ra: .cfa -24 + ^ x29: .cfa -32 + ^
STACK CFI 3ba40 .cfa: sp 32 +
STACK CFI 3ba48 .cfa: sp 0 +
STACK CFI 3ba4c .cfa: x29 32 +
STACK CFI 3ba60 .cfa: sp 32 +
STACK CFI 3ba68 .cfa: sp 0 +
STACK CFI INIT 3ba6c 178 .cfa: sp 0 +
STACK CFI 3ba70 .cfa: sp 80 +
STACK CFI 3ba84 .cfa: x29 80 + x19: .cfa -8 + ^ x20: .cfa -16 + ^ x21: .cfa -24 + ^ x22: .cfa -32 + ^ x23: .cfa -40 + ^ x24: .cfa -48 + ^ x25: .cfa -56 + ^ x26: .cfa -64 + ^ .ra: .cfa -72 + ^ x29: .cfa -80 + ^
STACK CFI 3bbcc .cfa: sp 80 +
STACK CFI 3bbe0 .cfa: sp 0 +
STACK CFI INIT 3bbe4 1b0 .cfa: sp 0 +
STACK CFI INIT 3bd94 4 .cfa: sp 0 +
STACK CFI INIT 3bd98 34 .cfa: sp 0 +
STACK CFI 3bd9c .cfa: sp 32 +
STACK CFI 3bda4 .cfa: x29 32 + x19: .cfa -16 + ^ .ra: .cfa -24 + ^ x29: .cfa -32 + ^
STACK CFI 3bdc0 .cfa: sp 32 +
STACK CFI 3bdc8 .cfa: sp 0 +
STACK CFI INIT 3bdcc 14 .cfa: sp 0 +
STACK CFI INIT 3bde0 4 .cfa: sp 0 +
STACK CFI INIT 3bde4 4 .cfa: sp 0 +
STACK CFI INIT 3bf90 1c .cfa: sp 0 +
STACK CFI INIT 3bfac c .cfa: sp 0 +
STACK CFI INIT 3bfb8 4 .cfa: sp 0 +
STACK CFI INIT 3bfbc 4 .cfa: sp 0 +
STACK CFI INIT 3bfc0 34 .cfa: sp 0 +
STACK CFI 3bfc4 .cfa: sp 32 +
STACK CFI 3bfcc .cfa: x29 32 + x19: .cfa -16 + ^ .ra: .cfa -24 + ^ x29: .cfa -32 + ^
STACK CFI 3bfe8 .cfa: sp 32 +
STACK CFI 3bff0 .cfa: sp 0 +
STACK CFI INIT 3bff4 14 .cfa: sp 0 +
STACK CFI INIT 3c008 4 .cfa: sp 0 +
STACK CFI INIT 3c00c 4 .cfa: sp 0 +
STACK CFI INIT 3c194 1c .cfa: sp 0 +
STACK CFI INIT 3c1b0 c .cfa: sp 0 +
STACK CFI INIT 3c8cc 26c .cfa: sp 0 +
STACK CFI 3c8d0 .cfa: sp 112 +
STACK CFI 3c8ec .cfa: x29 96 + x19: .cfa -8 + ^ x20: .cfa -16 + ^ x21: .cfa -24 + ^ x22: .cfa -32 + ^ x23: .cfa -40 + ^ x24: .cfa -48 + ^ x25: .cfa -56 + ^ x26: .cfa -64 + ^ x27: .cfa -72 + ^ x28: .cfa -80 + ^ .ra: .cfa -88 + ^ x29: .cfa -96 + ^
STACK CFI 3cb18 .cfa: sp 112 +
STACK CFI 3cb34 .cfa: sp 0 +
STACK CFI INIT 3cb38 1a8 .cfa: sp 0 +
STACK CFI 3cb3c .cfa: sp 64 +
STACK CFI 3cb4c .cfa: x29 64 + x19: .cfa -8 + ^ x20: .cfa -16 + ^ x21: .cfa -24 + ^ x22: .cfa -32 + ^ x23: .cfa -48 + ^ .ra: .cfa -56 + ^ x29: .cfa -64 + ^
STACK CFI 3cbd0 .cfa: sp 64 +
STACK CFI 3cbe0 .cfa: sp 0 +
STACK CFI 3cbe4 .cfa: x29 64 +
STACK CFI 3cbec .cfa: sp 64 +
STACK CFI 3cbfc .cfa: sp 0 +
STACK CFI 3cc00 .cfa: x29 64 +
STACK CFI 3ccc8 .cfa: sp 64 +
STACK CFI 3ccd8 .cfa: sp 0 +
STACK CFI 3ccdc .cfa: x29 64 +
STACK CFI INIT 3cce0 170 .cfa: sp 0 +
STACK CFI 3cce4 .cfa: sp 96 +
STACK CFI 3ccfc .cfa: x29 96 + x19: .cfa -8 + ^ x20: .cfa -16 + ^ x21: .cfa -24 + ^ x22: .cfa -32 + ^ x23: .cfa -40 + ^ x24: .cfa -48 + ^ x25: .cfa -56 + ^ x26: .cfa -64 + ^ x27: .cfa -80 + ^ .ra: .cfa -88 + ^ x29: .cfa -96 + ^
STACK CFI 3ce30 .cfa: sp 96 +
STACK CFI 3ce48 .cfa: sp 0 +
STACK CFI 3ce4c .cfa: x29 96 +
STACK CFI INIT 3ce9c 4 .cfa: sp 0 +
STACK CFI INIT 3cea0 c .cfa: sp 0 +
STACK CFI INIT 3ceac 4 .cfa: sp 0 +
STACK CFI INIT 3ceb0 4 .cfa: sp 0 +
STACK CFI INIT 3ceb4 24 .cfa: sp 0 +
STACK CFI 3ceb8 .cfa: sp 32 +
STACK CFI 3cec0 .cfa: x29 32 + x19: .cfa -16 + ^ .ra: .cfa -24 + ^ x29: .cfa -32 + ^
STACK CFI 3cecc .cfa: sp 32 +
STACK CFI 3ced4 .cfa: sp 0 +
STACK CFI INIT 3ced8 18 .cfa: sp 0 +
STACK CFI INIT 3cef0 1c .cfa: sp 0 +
STACK CFI INIT 3cf0c 4 .cfa: sp 0 +
STACK CFI INIT 3cf10 48 .cfa: sp 0 +
STACK CFI 3cf2c .cfa: sp 32 +
STACK CFI 3cf34 .cfa: x29 32 + x19: .cfa -16 + ^ .ra: .cfa -24 + ^ x29: .cfa -32 + ^
STACK CFI 3cf4c .cfa: sp 32 +
STACK CFI 3cf54 .cfa: sp 0 +
STACK CFI INIT 3cf58 14 .cfa: sp 0 +
STACK CFI INIT 3cf6c 48 .cfa: sp 0 +
STACK CFI 3cf88 .cfa: sp 32 +
STACK CFI 3cf90 .cfa: x29 32 + x19: .cfa -16 + ^ .ra: .cfa -24 + ^ x29: .cfa -32 + ^
STACK CFI 3cfa8 .cfa: sp 32 +
STACK CFI 3cfb0 .cfa: sp 0 +
STACK CFI INIT 3d95c 3f4 .cfa: sp 0 +
STACK CFI 3d960 .cfa: sp 32 +
STACK CFI 3d968 .cfa: x29 32 + x19: .cfa -16 + ^ .ra: .cfa -24 + ^ x29: .cfa -32 + ^
STACK CFI 3dab4 .cfa: sp 32 +
STACK CFI 3dabc .cfa: sp 0 +
STACK CFI 3dac0 .cfa: x29 32 +
STACK CFI 3dac8 .cfa: sp 32 +
STACK CFI 3dad0 .cfa: sp 0 +
STACK CFI 3dad4 .cfa: x29 32 +
STACK CFI 3db10 .cfa: sp 32 +
STACK CFI 3db18 .cfa: sp 0 +
STACK CFI 3db1c .cfa: x29 32 +
STACK CFI 3db58 .cfa: sp 32 +
STACK CFI 3db60 .cfa: sp 0 +
STACK CFI 3db64 .cfa: x29 32 +
STACK CFI 3db90 .cfa: sp 32 +
STACK CFI 3db98 .cfa: sp 0 +
STACK CFI 3db9c .cfa: x29 32 +
STACK CFI 3dbb8 .cfa: sp 32 +
STACK CFI 3dbc0 .cfa: sp 0 +
STACK CFI 3dbc4 .cfa: x29 32 +
STACK CFI 3dc28 .cfa: sp 32 +
STACK CFI 3dc30 .cfa: sp 0 +
STACK CFI 3dc34 .cfa: x29 32 +
STACK CFI 3dd04 .cfa: sp 32 +
STACK CFI 3dd0c .cfa: sp 0 +
STACK CFI 3dd10 .cfa: x29 32 +
STACK CFI 3dd3c .cfa: sp 32 +
STACK CFI 3dd44 .cfa: sp 0 +
STACK CFI 3dd48 .cfa: x29 32 +
STACK CFI INIT 3ddbc b4 .cfa: sp 0 +
STACK CFI 3ddc0 .cfa: sp 64 +
STACK CFI 3ddd0 .cfa: x29 64 + x19: .cfa -8 + ^ x20: .cfa -16 + ^ x21: .cfa -24 + ^ x22: .cfa -32 + ^ x23: .cfa -48 + ^ .ra: .cfa -56 + ^ x29: .cfa -64 + ^
STACK CFI 3de5c .cfa: sp 64 +
STACK CFI 3de6c .cfa: sp 0 +
STACK CFI INIT 3debc 48 .cfa: sp 0 +
STACK CFI 3ded8 .cfa: sp 32 +
STACK CFI 3dee0 .cfa: x29 32 + x19: .cfa -16 + ^ .ra: .cfa -24 + ^ x29: .cfa -32 + ^
STACK CFI 3def8 .cfa: sp 32 +
STACK CFI 3df00 .cfa: sp 0 +
STACK CFI INIT 3df04 64 .cfa: sp 0 +
STACK CFI INIT 3df68 48 .cfa: sp 0 +
STACK CFI 3df84 .cfa: sp 32 +
STACK CFI 3df8c .cfa: x29 32 + x19: .cfa -16 + ^ .ra: .cfa -24 + ^ x29: .cfa -32 + ^
STACK CFI 3dfa4 .cfa: sp 32 +
STACK CFI 3dfac .cfa: sp 0 +
STACK CFI INIT 3dfb0 54 .cfa: sp 0 +
STACK CFI INIT 3e004 5c .cfa: sp 0 +
STACK CFI 3e008 .cfa: sp 32 +
STACK CFI 3e010 .cfa: x29 32 + x19: .cfa -16 + ^ .ra: .cfa -24 + ^ x29: .cfa -32 + ^
STACK CFI 3e048 .cfa: sp 32 +
STACK CFI 3e050 .cfa: sp 0 +
STACK CFI 3e054 .cfa: sp 32 +
STACK CFI 3e05c .cfa: sp 0 +
STACK CFI INIT 3e060 58 .cfa: sp 0 +
STACK CFI 3e064 .cfa: sp 32 +
STACK CFI 3e06c .cfa: x29 32 + x19: .cfa -16 + ^ .ra: .cfa -24 + ^ x29: .cfa -32 + ^
STACK CFI 3e0ac .cfa: sp 32 +
STACK CFI 3e0b4 .cfa: sp 0 +
STACK CFI INIT 3e0b8 110 .cfa: sp 0 +
STACK CFI INIT 3e1c8 90 .cfa: sp 0 +
STACK CFI 3e1cc .cfa: sp 32 +
STACK CFI 3e1d4 .cfa: x29 32 + x19: .cfa -8 + ^ x20: .cfa -16 + ^ .ra: .cfa -24 + ^ x29: .cfa -32 + ^
STACK CFI 3e240 .cfa: sp 32 +
STACK CFI 3e248 .cfa: sp 0 +
STACK CFI 3e24c .cfa: sp 32 +
STACK CFI 3e254 .cfa: sp 0 +
STACK CFI INIT 3e258 8c .cfa: sp 0 +
STACK CFI 3e25c .cfa: sp 32 +
STACK CFI 3e264 .cfa: x29 32 + x19: .cfa -8 + ^ x20: .cfa -16 + ^ .ra: .cfa -24 + ^ x29: .cfa -32 + ^
STACK CFI 3e2d8 .cfa: sp 32 +
STACK CFI 3e2e0 .cfa: sp 0 +
STACK CFI INIT 3e904 1c8 .cfa: sp 0 +
STACK CFI 3e908 .cfa: sp 48 +
STACK CFI 3e914 .cfa: x29 48 + x19: .cfa -8 + ^ x20: .cfa -16 + ^ x21: .cfa -24 + ^ x22: .cfa -32 + ^ .ra: .cfa -40 + ^ x29: .cfa -48 + ^
STACK CFI 3ea9c .cfa: sp 48 +
STACK CFI 3eaa8 .cfa: sp 0 +
STACK CFI 3eaac .cfa: x29 48 +
STACK CFI 3eab8 .cfa: sp 48 +
STACK CFI 3eac4 .cfa: sp 0 +
STACK CFI 3eac8 .cfa: x29 48 +
STACK CFI INIT 3eacc 14 .cfa: sp 0 +
STACK CFI 3ead0 .cfa: sp 16 +
STACK CFI 3ead4 .cfa: x29 16 + .ra: .cfa -8 + ^ x29: .cfa -16 + ^
STACK CFI INIT 3eae0 44 .cfa: sp 0 +
STACK CFI 3eae4 .cfa: sp 32 +
STACK CFI 3eaec .cfa: x29 32 + x19: .cfa -16 + ^ .ra: .cfa -24 + ^ x29: .cfa -32 + ^
STACK CFI 3eb0c .cfa: sp 32 +
STACK CFI 3eb14 .cfa: sp 0 +
STACK CFI 3eb18 .cfa: sp 32 +
STACK CFI 3eb20 .cfa: sp 0 +
STACK CFI INIT 3ed2c 98 .cfa: sp 0 +
STACK CFI 3ed30 .cfa: sp 48 +
STACK CFI 3ed3c .cfa: x29 48 + x19: .cfa -8 + ^ x20: .cfa -16 + ^ x21: .cfa -32 + ^ .ra: .cfa -40 + ^ x29: .cfa -48 + ^
STACK CFI 3ed5c .cfa: sp 48 +
STACK CFI 3ed68 .cfa: sp 0 +
STACK CFI 3ed6c .cfa: x29 48 +
STACK CFI 3eda4 .cfa: sp 48 +
STACK CFI 3edb0 .cfa: sp 0 +
STACK CFI 3edb4 .cfa: sp 48 +
STACK CFI 3edc0 .cfa: sp 0 +
STACK CFI INIT 3edc4 1dc .cfa: sp 0 +
STACK CFI 3edc8 .cfa: sp 48 +
STACK CFI 3edd4 .cfa: x29 48 + x19: .cfa -8 + ^ x20: .cfa -16 + ^ x21: .cfa -24 + ^ x22: .cfa -32 + ^ .ra: .cfa -40 + ^ x29: .cfa -48 + ^
STACK CFI 3ef88 .cfa: sp 48 +
STACK CFI 3ef94 .cfa: sp 0 +
STACK CFI 3ef98 .cfa: x29 48 +
STACK CFI INIT 3efa0 14 .cfa: sp 0 +
STACK CFI 3efa4 .cfa: sp 16 +
STACK CFI 3efa8 .cfa: x29 16 + .ra: .cfa -8 + ^ x29: .cfa -16 + ^
STACK CFI INIT 3efb4 1a8 .cfa: sp 0 +
STACK CFI 3efb8 .cfa: sp 64 +
STACK CFI 3efc8 .cfa: x29 64 + x19: .cfa -8 + ^ x20: .cfa -16 + ^ x21: .cfa -24 + ^ x22: .cfa -32 + ^ x23: .cfa -40 + ^ x24: .cfa -48 + ^ .ra: .cfa -56 + ^ x29: .cfa -64 + ^
STACK CFI 3f12c .cfa: sp 64 +
STACK CFI 3f13c .cfa: sp 0 +
STACK CFI 3f140 .cfa: sp 64 +
STACK CFI 3f150 .cfa: sp 0 +
STACK CFI 3f154 .cfa: x29 64 +
STACK CFI INIT 3f15c 12c .cfa: sp 0 +
STACK CFI 3f160 .cfa: sp 64 +
STACK CFI 3f170 .cfa: x29 64 + x19: .cfa -8 + ^ x20: .cfa -16 + ^ x21: .cfa -24 + ^ x22: .cfa -32 + ^ x23: .cfa -40 + ^ x24: .cfa -48 + ^ .ra: .cfa -56 + ^ x29: .cfa -64 + ^
STACK CFI 3f258 .cfa: sp 64 +
STACK CFI 3f268 .cfa: sp 0 +
STACK CFI 3f26c .cfa: sp 64 +
STACK CFI 3f27c .cfa: sp 0 +
STACK CFI 3f280 .cfa: x29 64 +
STACK CFI INIT 3f288 14 .cfa: sp 0 +
STACK CFI 3f28c .cfa: sp 16 +
STACK CFI 3f290 .cfa: x29 16 + .ra: .cfa -8 + ^ x29: .cfa -16 + ^
STACK CFI INIT 403dc 48 .cfa: sp 0 +
STACK CFI 403f8 .cfa: sp 32 +
STACK CFI 40400 .cfa: x29 32 + x19: .cfa -16 + ^ .ra: .cfa -24 + ^ x29: .cfa -32 + ^
STACK CFI 40418 .cfa: sp 32 +
STACK CFI 40420 .cfa: sp 0 +
STACK CFI INIT 40470 50c .cfa: sp 0 +
STACK CFI 40474 .cfa: sp 32 +
STACK CFI 4047c .cfa: x29 32 + x19: .cfa -16 + ^ .ra: .cfa -24 + ^ x29: .cfa -32 + ^
STACK CFI 405c4 .cfa: sp 32 +
STACK CFI 405cc .cfa: sp 0 +
STACK CFI 405d0 .cfa: x29 32 +
STACK CFI 40740 .cfa: sp 32 +
STACK CFI 40748 .cfa: sp 0 +
STACK CFI 4074c .cfa: x29 32 +
STACK CFI 40768 .cfa: sp 32 +
STACK CFI 40770 .cfa: sp 0 +
STACK CFI 40774 .cfa: x29 32 +
STACK CFI 407d0 .cfa: sp 32 +
STACK CFI 407d8 .cfa: sp 0 +
STACK CFI 407dc .cfa: x29 32 +
STACK CFI 407f8 .cfa: sp 32 +
STACK CFI 40800 .cfa: sp 0 +
STACK CFI 40804 .cfa: x29 32 +
STACK CFI 40820 .cfa: sp 32 +
STACK CFI 40828 .cfa: sp 0 +
STACK CFI 4082c .cfa: x29 32 +
STACK CFI 40848 .cfa: sp 32 +
STACK CFI 40850 .cfa: sp 0 +
STACK CFI 40854 .cfa: x29 32 +
STACK CFI 4086c .cfa: sp 32 +
STACK CFI 40874 .cfa: sp 0 +
STACK CFI 40878 .cfa: x29 32 +
STACK CFI 40894 .cfa: sp 32 +
STACK CFI 4089c .cfa: sp 0 +
STACK CFI 408a0 .cfa: x29 32 +
STACK CFI 408bc .cfa: sp 32 +
STACK CFI 408c4 .cfa: sp 0 +
STACK CFI 408c8 .cfa: x29 32 +
STACK CFI 408e4 .cfa: sp 32 +
STACK CFI 408ec .cfa: sp 0 +
STACK CFI 408f0 .cfa: x29 32 +
STACK CFI 40944 .cfa: sp 32 +
STACK CFI 4094c .cfa: sp 0 +
STACK CFI 40950 .cfa: x29 32 +
STACK CFI 4096c .cfa: sp 32 +
STACK CFI 40974 .cfa: sp 0 +
STACK CFI 40978 .cfa: x29 32 +
STACK CFI INIT 40b08 c8 .cfa: sp 0 +
STACK CFI 40b0c .cfa: sp 48 +
STACK CFI 40b18 .cfa: x29 48 + x19: .cfa -8 + ^ x20: .cfa -16 + ^ x21: .cfa -32 + ^ .ra: .cfa -40 + ^ x29: .cfa -48 + ^
STACK CFI 40bc0 .cfa: sp 48 +
STACK CFI 40bcc .cfa: sp 0 +
STACK CFI INIT 40bd0 5c .cfa: sp 0 +
STACK CFI 40bd4 .cfa: sp 32 +
STACK CFI 40bdc .cfa: x29 32 + x19: .cfa -16 + ^ .ra: .cfa -24 + ^ x29: .cfa -32 + ^
STACK CFI 40c14 .cfa: sp 32 +
STACK CFI 40c1c .cfa: sp 0 +
STACK CFI 40c20 .cfa: sp 32 +
STACK CFI 40c28 .cfa: sp 0 +
STACK CFI INIT 40c2c 58 .cfa: sp 0 +
STACK CFI 40c30 .cfa: sp 32 +
STACK CFI 40c38 .cfa: x29 32 + x19: .cfa -16 + ^ .ra: .cfa -24 + ^ x29: .cfa -32 + ^
STACK CFI 40c78 .cfa: sp 32 +
STACK CFI 40c80 .cfa: sp 0 +
STACK CFI INIT 40c84 80 .cfa: sp 0 +
STACK CFI 40c88 .cfa: sp 32 +
STACK CFI 40c90 .cfa: x29 32 + x19: .cfa -8 + ^ x20: .cfa -16 + ^ .ra: .cfa -24 + ^ x29: .cfa -32 + ^
STACK CFI 40ce0 .cfa: sp 32 +
STACK CFI 40ce8 .cfa: sp 0 +
STACK CFI 40cec .cfa: x29 32 +
STACK CFI 40cf8 .cfa: sp 32 +
STACK CFI 40d00 .cfa: sp 0 +
STACK CFI INIT 40d04 5c .cfa: sp 0 +
STACK CFI 40d08 .cfa: sp 32 +
STACK CFI 40d10 .cfa: x29 32 + x19: .cfa -16 + ^ .ra: .cfa -24 + ^ x29: .cfa -32 + ^
STACK CFI 40d48 .cfa: sp 32 +
STACK CFI 40d50 .cfa: sp 0 +
STACK CFI 40d54 .cfa: sp 32 +
STACK CFI 40d5c .cfa: sp 0 +
STACK CFI INIT 40d60 58 .cfa: sp 0 +
STACK CFI 40d64 .cfa: sp 32 +
STACK CFI 40d6c .cfa: x29 32 + x19: .cfa -16 + ^ .ra: .cfa -24 + ^ x29: .cfa -32 + ^
STACK CFI 40dac .cfa: sp 32 +
STACK CFI 40db4 .cfa: sp 0 +
STACK CFI INIT 40db8 48 .cfa: sp 0 +
STACK CFI INIT 40e00 48 .cfa: sp 0 +
STACK CFI 40e1c .cfa: sp 32 +
STACK CFI 40e24 .cfa: x29 32 + x19: .cfa -16 + ^ .ra: .cfa -24 + ^ x29: .cfa -32 + ^
STACK CFI 40e3c .cfa: sp 32 +
STACK CFI 40e44 .cfa: sp 0 +
STACK CFI INIT 40e48 48 .cfa: sp 0 +
STACK CFI INIT 40e90 5c .cfa: sp 0 +
STACK CFI 40e94 .cfa: sp 32 +
STACK CFI 40e9c .cfa: x29 32 + x19: .cfa -16 + ^ .ra: .cfa -24 + ^ x29: .cfa -32 + ^
STACK CFI 40ed4 .cfa: sp 32 +
STACK CFI 40edc .cfa: sp 0 +
STACK CFI 40ee0 .cfa: sp 32 +
STACK CFI 40ee8 .cfa: sp 0 +
STACK CFI INIT 40eec 58 .cfa: sp 0 +
STACK CFI 40ef0 .cfa: sp 32 +
STACK CFI 40ef8 .cfa: x29 32 + x19: .cfa -16 + ^ .ra: .cfa -24 + ^ x29: .cfa -32 + ^
STACK CFI 40f38 .cfa: sp 32 +
STACK CFI 40f40 .cfa: sp 0 +
STACK CFI INIT 40f44 f8 .cfa: sp 0 +
STACK CFI 40f48 .cfa: sp 64 +
STACK CFI 40f58 .cfa: x29 64 + x19: .cfa -8 + ^ x20: .cfa -16 + ^ x21: .cfa -24 + ^ x22: .cfa -32 + ^ x23: .cfa -40 + ^ x24: .cfa -48 + ^ .ra: .cfa -56 + ^ x29: .cfa -64 + ^
STACK CFI 40f9c .cfa: sp 64 +
STACK CFI 40fac .cfa: sp 0 +
STACK CFI 40fb0 .cfa: x29 64 +
STACK CFI 41028 .cfa: sp 64 +
STACK CFI 41038 .cfa: sp 0 +
STACK CFI INIT 4103c 5c .cfa: sp 0 +
STACK CFI 41040 .cfa: sp 32 +
STACK CFI 41048 .cfa: x29 32 + x19: .cfa -16 + ^ .ra: .cfa -24 + ^ x29: .cfa -32 + ^
STACK CFI 41080 .cfa: sp 32 +
STACK CFI 41088 .cfa: sp 0 +
STACK CFI 4108c .cfa: sp 32 +
STACK CFI 41094 .cfa: sp 0 +
STACK CFI INIT 41098 58 .cfa: sp 0 +
STACK CFI 4109c .cfa: sp 32 +
STACK CFI 410a4 .cfa: x29 32 + x19: .cfa -16 + ^ .ra: .cfa -24 + ^ x29: .cfa -32 + ^
STACK CFI 410e4 .cfa: sp 32 +
STACK CFI 410ec .cfa: sp 0 +
STACK CFI INIT 410f0 90 .cfa: sp 0 +
STACK CFI INIT 41180 48 .cfa: sp 0 +
STACK CFI 4119c .cfa: sp 32 +
STACK CFI 411a4 .cfa: x29 32 + x19: .cfa -16 + ^ .ra: .cfa -24 + ^ x29: .cfa -32 + ^
STACK CFI 411bc .cfa: sp 32 +
STACK CFI 411c4 .cfa: sp 0 +
STACK CFI INIT 411c8 d0 .cfa: sp 0 +
STACK CFI 411cc .cfa: sp 48 +
STACK CFI 411d8 .cfa: x29 48 + x19: .cfa -8 + ^ x20: .cfa -16 + ^ x21: .cfa -24 + ^ x22: .cfa -32 + ^ .ra: .cfa -40 + ^ x29: .cfa -48 + ^
STACK CFI 4125c .cfa: sp 48 +
STACK CFI 41268 .cfa: sp 0 +
STACK CFI 4126c .cfa: x29 48 +
STACK CFI 41284 .cfa: sp 48 +
STACK CFI 41290 .cfa: sp 0 +
STACK CFI 41294 .cfa: x29 48 +
STACK CFI INIT 41298 4b0 .cfa: sp 0 +
STACK CFI 4129c .cfa: sp 80 +
STACK CFI 412b0 .cfa: x29 80 + x19: .cfa -8 + ^ x20: .cfa -16 + ^ x21: .cfa -24 + ^ x22: .cfa -32 + ^ x23: .cfa -40 + ^ x24: .cfa -48 + ^ x25: .cfa -64 + ^ .ra: .cfa -72 + ^ x29: .cfa -80 + ^
STACK CFI 412e4 .cfa: sp 80 +
STACK CFI 412f8 .cfa: sp 0 +
STACK CFI 412fc .cfa: x29 80 +
STACK CFI 416bc .cfa: sp 80 +
STACK CFI 416d0 .cfa: sp 0 +
STACK CFI 416d4 .cfa: x29 80 +
STACK CFI 4172c .cfa: sp 80 +
STACK CFI 41740 .cfa: sp 0 +
STACK CFI 41744 .cfa: x29 80 +
STACK CFI INIT 41924 a4 .cfa: sp 0 +
STACK CFI 41928 .cfa: sp 48 +
STACK CFI 41934 .cfa: x29 48 + x19: .cfa -8 + ^ x20: .cfa -16 + ^ x21: .cfa -32 + ^ .ra: .cfa -40 + ^ x29: .cfa -48 + ^
STACK CFI 41954 .cfa: sp 48 +
STACK CFI 41960 .cfa: sp 0 +
STACK CFI 41964 .cfa: x29 48 +
STACK CFI 419a8 .cfa: sp 48 +
STACK CFI 419b4 .cfa: sp 0 +
STACK CFI 419b8 .cfa: sp 48 +
STACK CFI 419c4 .cfa: sp 0 +
STACK CFI INIT 419c8 14c .cfa: sp 0 +
STACK CFI 419cc .cfa: sp 48 +
STACK CFI 419d8 .cfa: x29 48 + x19: .cfa -8 + ^ x20: .cfa -16 + ^ x21: .cfa -32 + ^ .ra: .cfa -40 + ^ x29: .cfa -48 + ^
STACK CFI 41af4 .cfa: sp 48 +
STACK CFI 41b00 .cfa: sp 0 +
STACK CFI 41b04 .cfa: sp 48 +
STACK CFI 41b10 .cfa: sp 0 +
STACK CFI INIT 41b14 24 .cfa: sp 0 +
STACK CFI 41b18 .cfa: sp 32 +
STACK CFI 41b20 .cfa: x29 32 + x19: .cfa -16 + ^ .ra: .cfa -24 + ^ x29: .cfa -32 + ^
STACK CFI 41b2c .cfa: sp 32 +
STACK CFI 41b34 .cfa: sp 0 +
STACK CFI INIT 427a4 44 .cfa: sp 0 +
STACK CFI 427a8 .cfa: sp 32 +
STACK CFI 427b0 .cfa: x29 32 + x19: .cfa -16 + ^ .ra: .cfa -24 + ^ x29: .cfa -32 + ^
STACK CFI 427cc .cfa: sp 32 +
STACK CFI 427d4 .cfa: sp 0 +
STACK CFI 427d8 .cfa: x29 32 +
STACK CFI 427dc .cfa: sp 32 +
STACK CFI 427e4 .cfa: sp 0 +
STACK CFI INIT 427e8 ac .cfa: sp 0 +
STACK CFI 427ec .cfa: sp 64 +
STACK CFI 427fc .cfa: x29 64 + x19: .cfa -8 + ^ x20: .cfa -16 + ^ x21: .cfa -24 + ^ x22: .cfa -32 + ^ x23: .cfa -48 + ^ .ra: .cfa -56 + ^ x29: .cfa -64 + ^
STACK CFI 42878 .cfa: sp 64 +
STACK CFI 42888 .cfa: sp 0 +
STACK CFI 4288c .cfa: x29 64 +
STACK CFI INIT 42894 110 .cfa: sp 0 +
STACK CFI 42898 .cfa: sp 64 +
STACK CFI 428a8 .cfa: x29 64 + x19: .cfa -8 + ^ x20: .cfa -16 + ^ x21: .cfa -24 + ^ x22: .cfa -32 + ^ x23: .cfa -40 + ^ x24: .cfa -48 + ^ .ra: .cfa -56 + ^ x29: .cfa -64 + ^
STACK CFI 42988 .cfa: sp 64 +
STACK CFI 42998 .cfa: sp 0 +
STACK CFI 4299c .cfa: x29 64 +
STACK CFI INIT 42b68 14 .cfa: sp 0 +
STACK CFI 42b6c .cfa: sp 16 +
STACK CFI 42b70 .cfa: x29 16 + .ra: .cfa -8 + ^ x29: .cfa -16 + ^
STACK CFI INIT 42bc8 5c8 .cfa: sp 0 +
STACK CFI 42bcc .cfa: sp 80 +
STACK CFI 42be0 .cfa: x29 80 + x19: .cfa -8 + ^ x20: .cfa -16 + ^ x21: .cfa -24 + ^ x22: .cfa -32 + ^ x23: .cfa -40 + ^ x24: .cfa -48 + ^ x25: .cfa -56 + ^ x26: .cfa -64 + ^ .ra: .cfa -72 + ^ x29: .cfa -80 + ^
STACK CFI 42cd0 .cfa: sp 80 +
STACK CFI 42ce4 .cfa: sp 0 +
STACK CFI 42ce8 .cfa: x29 80 +
STACK CFI 42d3c .cfa: sp 80 +
STACK CFI 42d50 .cfa: sp 0 +
STACK CFI 42d54 .cfa: x29 80 +
STACK CFI 43170 .cfa: sp 80 +
STACK CFI 43184 .cfa: sp 0 +
STACK CFI 43188 .cfa: x29 80 +
STACK CFI INIT 43190 4c4 .cfa: sp 0 +
STACK CFI 43194 .cfa: sp 32 +
STACK CFI 4319c .cfa: x29 32 + x19: .cfa -16 + ^ .ra: .cfa -24 + ^ x29: .cfa -32 + ^
STACK CFI 431f0 .cfa: sp 32 +
STACK CFI 431f8 .cfa: sp 0 +
STACK CFI 431fc .cfa: x29 32 +
STACK CFI 4323c .cfa: sp 32 +
STACK CFI 43244 .cfa: sp 0 +
STACK CFI 43248 .cfa: x29 32 +
STACK CFI 43278 .cfa: sp 32 +
STACK CFI 43280 .cfa: sp 0 +
STACK CFI 43284 .cfa: x29 32 +
STACK CFI 432b4 .cfa: sp 32 +
STACK CFI 432bc .cfa: sp 0 +
STACK CFI 432c0 .cfa: x29 32 +
STACK CFI 432d0 .cfa: sp 32 +
STACK CFI 432d8 .cfa: sp 0 +
STACK CFI 432dc .cfa: x29 32 +
STACK CFI 432fc .cfa: sp 32 +
STACK CFI 43304 .cfa: sp 0 +
STACK CFI 43308 .cfa: x29 32 +
STACK CFI 43328 .cfa: sp 32 +
STACK CFI 43330 .cfa: sp 0 +
STACK CFI 43334 .cfa: x29 32 +
STACK CFI 43354 .cfa: sp 32 +
STACK CFI 4335c .cfa: sp 0 +
STACK CFI 43360 .cfa: x29 32 +
STACK CFI 43380 .cfa: sp 32 +
STACK CFI 43388 .cfa: sp 0 +
STACK CFI 4338c .cfa: x29 32 +
STACK CFI 43410 .cfa: sp 32 +
STACK CFI 43418 .cfa: sp 0 +
STACK CFI 4341c .cfa: x29 32 +
STACK CFI 4342c .cfa: sp 32 +
STACK CFI 43434 .cfa: sp 0 +
STACK CFI 43438 .cfa: x29 32 +
STACK CFI 43448 .cfa: sp 32 +
STACK CFI 43450 .cfa: sp 0 +
STACK CFI 43454 .cfa: x29 32 +
STACK CFI 43464 .cfa: sp 32 +
STACK CFI 4346c .cfa: sp 0 +
STACK CFI 43470 .cfa: x29 32 +
STACK CFI 43480 .cfa: sp 32 +
STACK CFI 43488 .cfa: sp 0 +
STACK CFI 4348c .cfa: x29 32 +
STACK CFI 4349c .cfa: sp 32 +
STACK CFI 434a4 .cfa: sp 0 +
STACK CFI 434a8 .cfa: x29 32 +
STACK CFI 434b8 .cfa: sp 32 +
STACK CFI 434c0 .cfa: sp 0 +
STACK CFI 434c4 .cfa: x29 32 +
STACK CFI 434d4 .cfa: sp 32 +
STACK CFI 434dc .cfa: sp 0 +
STACK CFI 434e0 .cfa: x29 32 +
STACK CFI 43504 .cfa: sp 32 +
STACK CFI 4350c .cfa: sp 0 +
STACK CFI 43510 .cfa: x29 32 +
STACK CFI 43528 .cfa: sp 32 +
STACK CFI 43530 .cfa: sp 0 +
STACK CFI 43534 .cfa: x29 32 +
STACK CFI 4354c .cfa: sp 32 +
STACK CFI 43554 .cfa: sp 0 +
STACK CFI 43558 .cfa: x29 32 +
STACK CFI 43570 .cfa: sp 32 +
STACK CFI 43578 .cfa: sp 0 +
STACK CFI 4357c .cfa: x29 32 +
STACK CFI 43594 .cfa: sp 32 +
STACK CFI 4359c .cfa: sp 0 +
STACK CFI 435a0 .cfa: x29 32 +
STACK CFI 435b8 .cfa: sp 32 +
STACK CFI 435c0 .cfa: sp 0 +
STACK CFI 435c4 .cfa: x29 32 +
STACK CFI 435dc .cfa: sp 32 +
STACK CFI 435e4 .cfa: sp 0 +
STACK CFI 435e8 .cfa: x29 32 +
STACK CFI 43600 .cfa: sp 32 +
STACK CFI 43608 .cfa: sp 0 +
STACK CFI 4360c .cfa: x29 32 +
STACK CFI 43624 .cfa: sp 32 +
STACK CFI 4362c .cfa: sp 0 +
STACK CFI 43630 .cfa: x29 32 +
STACK CFI 43644 .cfa: sp 32 +
STACK CFI 4364c .cfa: sp 0 +
STACK CFI 43650 .cfa: x29 32 +
STACK CFI INIT 43654 420 .cfa: sp 0 +
STACK CFI 43658 .cfa: sp 80 +
STACK CFI 4366c .cfa: x29 80 + x19: .cfa -8 + ^ x20: .cfa -16 + ^ x21: .cfa -24 + ^ x22: .cfa -32 + ^ x23: .cfa -40 + ^ x24: .cfa -48 + ^ x25: .cfa -64 + ^ .ra: .cfa -72 + ^ x29: .cfa -80 + ^
STACK CFI 436c0 .cfa: sp 80 +
STACK CFI 436d4 .cfa: sp 0 +
STACK CFI 436d8 .cfa: x29 80 +
STACK CFI 43880 .cfa: sp 80 +
STACK CFI 43894 .cfa: sp 0 +
STACK CFI 43898 .cfa: x29 80 +
STACK CFI 43a54 .cfa: sp 80 +
STACK CFI 43a68 .cfa: sp 0 +
STACK CFI 43a6c .cfa: x29 80 +
STACK CFI INIT 43fc0 1a8 .cfa: sp 0 +
STACK CFI 43fc4 .cfa: sp 48 +
STACK CFI 43fd0 .cfa: x29 48 + x19: .cfa -8 + ^ x20: .cfa -16 + ^ x21: .cfa -24 + ^ x22: .cfa -32 + ^ .ra: .cfa -40 + ^ x29: .cfa -48 + ^
STACK CFI 44150 .cfa: sp 48 +
STACK CFI 4415c .cfa: sp 0 +
STACK CFI 44160 .cfa: x29 48 +
STACK CFI INIT 44168 14 .cfa: sp 0 +
STACK CFI 4416c .cfa: sp 16 +
STACK CFI 44170 .cfa: x29 16 + .ra: .cfa -8 + ^ x29: .cfa -16 + ^
STACK CFI INIT 4417c 14 .cfa: sp 0 +
STACK CFI 44180 .cfa: sp 16 +
STACK CFI 44184 .cfa: x29 16 + .ra: .cfa -8 + ^ x29: .cfa -16 + ^
STACK CFI INIT 44190 48 .cfa: sp 0 +
STACK CFI 441ac .cfa: sp 32 +
STACK CFI 441b4 .cfa: x29 32 + x19: .cfa -16 + ^ .ra: .cfa -24 + ^ x29: .cfa -32 + ^
STACK CFI 441cc .cfa: sp 32 +
STACK CFI 441d4 .cfa: sp 0 +
STACK CFI INIT 441d8 30 .cfa: sp 0 +
STACK CFI INIT 44208 48 .cfa: sp 0 +
STACK CFI 44224 .cfa: sp 32 +
STACK CFI 4422c .cfa: x29 32 + x19: .cfa -16 + ^ .ra: .cfa -24 + ^ x29: .cfa -32 + ^
STACK CFI 44244 .cfa: sp 32 +
STACK CFI 4424c .cfa: sp 0 +
STACK CFI INIT 44250 38 .cfa: sp 0 +
STACK CFI INIT 44460 68 .cfa: sp 0 +
STACK CFI 44464 .cfa: sp 32 +
STACK CFI 4446c .cfa: x29 32 + x19: .cfa -16 + ^ .ra: .cfa -24 + ^ x29: .cfa -32 + ^
STACK CFI 444bc .cfa: sp 32 +
STACK CFI 444c4 .cfa: sp 0 +
STACK CFI INIT 444c8 1c4 .cfa: sp 0 +
STACK CFI INIT 4468c c4 .cfa: sp 0 +
STACK CFI INIT 44750 68 .cfa: sp 0 +
STACK CFI 44754 .cfa: sp 32 +
STACK CFI 4475c .cfa: x29 32 + x19: .cfa -16 + ^ .ra: .cfa -24 + ^ x29: .cfa -32 + ^
STACK CFI 447ac .cfa: sp 32 +
STACK CFI 447b4 .cfa: sp 0 +
STACK CFI INIT 447b8 4 .cfa: sp 0 +
STACK CFI INIT 447bc 14 .cfa: sp 0 +
STACK CFI INIT 447d0 6c .cfa: sp 0 +
STACK CFI 447d4 .cfa: sp 32 +
STACK CFI 447dc .cfa: x29 32 + x19: .cfa -16 + ^ .ra: .cfa -24 + ^ x29: .cfa -32 + ^
STACK CFI 44824 .cfa: sp 32 +
STACK CFI 4482c .cfa: sp 0 +
STACK CFI 44830 .cfa: sp 32 +
STACK CFI 44838 .cfa: sp 0 +
STACK CFI INIT 4483c 68 .cfa: sp 0 +
STACK CFI 44840 .cfa: sp 32 +
STACK CFI 44848 .cfa: x29 32 + x19: .cfa -16 + ^ .ra: .cfa -24 + ^ x29: .cfa -32 + ^
STACK CFI 44898 .cfa: sp 32 +
STACK CFI 448a0 .cfa: sp 0 +
STACK CFI INIT 448a4 c .cfa: sp 0 +
STACK CFI INIT 448b0 24 .cfa: sp 0 +
STACK CFI INIT 448d4 4 .cfa: sp 0 +
STACK CFI INIT 448d8 4 .cfa: sp 0 +
STACK CFI INIT 448dc 14 .cfa: sp 0 +
STACK CFI INIT 4493c 2fc .cfa: sp 0 +
STACK CFI 44940 .cfa: sp 64 +
STACK CFI 44950 .cfa: x29 64 + x19: .cfa -8 + ^ x20: .cfa -16 + ^ x21: .cfa -24 + ^ x22: .cfa -32 + ^ x23: .cfa -40 + ^ x24: .cfa -48 + ^ .ra: .cfa -56 + ^ x29: .cfa -64 + ^
STACK CFI 44acc .cfa: sp 64 +
STACK CFI 44adc .cfa: sp 0 +
STACK CFI 44ae0 .cfa: x29 64 +
STACK CFI 44b24 .cfa: sp 64 +
STACK CFI 44b34 .cfa: sp 0 +
STACK CFI 44b38 .cfa: x29 64 +
STACK CFI 44c08 .cfa: sp 64 +
STACK CFI 44c18 .cfa: sp 0 +
STACK CFI 44c1c .cfa: sp 64 +
STACK CFI 44c2c .cfa: sp 0 +
STACK CFI 44c30 .cfa: x29 64 +
STACK CFI INIT 44c38 270 .cfa: sp 0 +
STACK CFI 44c3c .cfa: sp 32 +
STACK CFI 44c44 .cfa: x29 32 + x19: .cfa -16 + ^ .ra: .cfa -24 + ^ x29: .cfa -32 + ^
STACK CFI 44c7c .cfa: sp 32 +
STACK CFI 44c84 .cfa: sp 0 +
STACK CFI 44c88 .cfa: x29 32 +
STACK CFI 44dd0 .cfa: sp 32 +
STACK CFI 44dd8 .cfa: sp 0 +
STACK CFI 44ddc .cfa: x29 32 +
STACK CFI 44e18 .cfa: sp 32 +
STACK CFI 44e20 .cfa: sp 0 +
STACK CFI 44e24 .cfa: x29 32 +
STACK CFI 44e98 .cfa: sp 32 +
STACK CFI 44ea0 .cfa: sp 0 +
STACK CFI 44ea4 .cfa: x29 32 +
STACK CFI INIT 44ea8 2c .cfa: sp 0 +
STACK CFI INIT 44ed4 48 .cfa: sp 0 +
STACK CFI 44ef0 .cfa: sp 32 +
STACK CFI 44ef8 .cfa: x29 32 + x19: .cfa -16 + ^ .ra: .cfa -24 + ^ x29: .cfa -32 + ^
STACK CFI 44f10 .cfa: sp 32 +
STACK CFI 44f18 .cfa: sp 0 +
STACK CFI INIT 44f1c 40 .cfa: sp 0 +
STACK CFI INIT 44f5c 60 .cfa: sp 0 +
STACK CFI 44f60 .cfa: sp 16 +
STACK CFI 44f64 .cfa: x29 16 + .ra: .cfa -8 + ^ x29: .cfa -16 + ^
STACK CFI 44fa4 .cfa: sp 16 +
STACK CFI 44fa8 .cfa: sp 0 +
STACK CFI 44fac .cfa: x29 16 +
STACK CFI 44fb0 .cfa: sp 16 +
STACK CFI 44fb4 .cfa: sp 0 +
STACK CFI 44fb8 .cfa: x29 16 +
STACK CFI INIT 44fbc 34c .cfa: sp 0 +
STACK CFI 44fc0 .cfa: sp 80 +
STACK CFI 44fd4 .cfa: x29 80 + x19: .cfa -8 + ^ x20: .cfa -16 + ^ x21: .cfa -24 + ^ x22: .cfa -32 + ^ x23: .cfa -40 + ^ x24: .cfa -48 + ^ x25: .cfa -64 + ^ .ra: .cfa -72 + ^ x29: .cfa -80 + ^
STACK CFI 452d0 .cfa: sp 80 +
STACK CFI 452e4 .cfa: sp 0 +
STACK CFI 452e8 .cfa: x29 80 +
STACK CFI 452ec .cfa: sp 80 +
STACK CFI 45300 .cfa: sp 0 +
STACK CFI 45304 .cfa: x29 80 +
STACK CFI INIT 45308 1c8 .cfa: sp 0 +
STACK CFI 4530c .cfa: sp 80 +
STACK CFI 45320 .cfa: x29 80 + x19: .cfa -8 + ^ x20: .cfa -16 + ^ x21: .cfa -24 + ^ x22: .cfa -32 + ^ x23: .cfa -40 + ^ x24: .cfa -48 + ^ x25: .cfa -64 + ^ .ra: .cfa -72 + ^ x29: .cfa -80 + ^
STACK CFI 454a0 .cfa: sp 80 +
STACK CFI 454b4 .cfa: sp 0 +
STACK CFI 454b8 .cfa: sp 80 +
STACK CFI 454cc .cfa: sp 0 +
STACK CFI INIT 45ac0 188 .cfa: sp 0 +
STACK CFI 45ac4 .cfa: sp 80 +
STACK CFI 45ad8 .cfa: x29 80 + x19: .cfa -8 + ^ x20: .cfa -16 + ^ x21: .cfa -24 + ^ x22: .cfa -32 + ^ x23: .cfa -40 + ^ x24: .cfa -48 + ^ x25: .cfa -64 + ^ .ra: .cfa -72 + ^ x29: .cfa -80 + ^
STACK CFI 45c2c .cfa: sp 80 +
STACK CFI 45c40 .cfa: sp 0 +
STACK CFI 45c44 .cfa: x29 80 +
STACK CFI INIT 45c48 18c .cfa: sp 0 +
STACK CFI 45c4c .cfa: sp 64 +
STACK CFI 45c5c .cfa: x29 64 + x19: .cfa -8 + ^ x20: .cfa -16 + ^ x21: .cfa -24 + ^ x22: .cfa -32 + ^ x23: .cfa -40 + ^ x24: .cfa -48 + ^ .ra: .cfa -56 + ^ x29: .cfa -64 + ^
STACK CFI 45dbc .cfa: sp 64 +
STACK CFI 45dcc .cfa: sp 0 +
STACK CFI 45dd0 .cfa: x29 64 +
STACK CFI INIT 45dd4 14 .cfa: sp 0 +
STACK CFI 45dd8 .cfa: sp 16 +
STACK CFI 45ddc .cfa: x29 16 + .ra: .cfa -8 + ^ x29: .cfa -16 + ^
STACK CFI INIT 45de8 48 .cfa: sp 0 +
STACK CFI 45df0 .cfa: sp 32 +
STACK CFI 45df8 .cfa: x29 32 + x19: .cfa -16 + ^ .ra: .cfa -24 + ^ x29: .cfa -32 + ^
STACK CFI 45e20 .cfa: sp 32 +
STACK CFI 45e28 .cfa: sp 0 +
STACK CFI INIT 45e30 410 .cfa: sp 0 +
STACK CFI INIT 46240 60 .cfa: sp 0 +
STACK CFI 46244 .cfa: sp 32 +
STACK CFI 4624c .cfa: x29 32 + x19: .cfa -8 + ^ x20: .cfa -16 + ^ .ra: .cfa -24 + ^ x29: .cfa -32 + ^
STACK CFI 4626c .cfa: sp 32 +
STACK CFI 46274 .cfa: sp 0 +
STACK CFI 46278 .cfa: x29 32 +
STACK CFI 46294 .cfa: sp 32 +
STACK CFI 4629c .cfa: sp 0 +
STACK CFI INIT 462a0 70 .cfa: sp 0 +
STACK CFI 462a4 .cfa: sp 32 +
STACK CFI 462ac .cfa: x29 32 + x19: .cfa -8 + ^ x20: .cfa -16 + ^ .ra: .cfa -24 + ^ x29: .cfa -32 + ^
STACK CFI 462d4 .cfa: sp 32 +
STACK CFI 462dc .cfa: sp 0 +
STACK CFI 462e0 .cfa: x29 32 +
STACK CFI 46304 .cfa: sp 32 +
STACK CFI 4630c .cfa: sp 0 +
STACK CFI INIT 46310 10 .cfa: sp 0 +
STACK CFI INIT 46320 30 .cfa: sp 0 +
STACK CFI 46324 .cfa: sp 32 +
STACK CFI 4632c .cfa: x29 32 + x19: .cfa -16 + ^ .ra: .cfa -24 + ^ x29: .cfa -32 + ^
STACK CFI 46344 .cfa: sp 32 +
STACK CFI 4634c .cfa: sp 0 +
STACK CFI INIT 46350 4 .cfa: sp 0 +
STACK CFI INIT 46354 4 .cfa: sp 0 +
STACK CFI INIT 46358 598 .cfa: sp 0 +
STACK CFI 4635c .cfa: sp 48 +
STACK CFI 46368 .cfa: x29 48 + x19: .cfa -8 + ^ x20: .cfa -16 + ^ x21: .cfa -24 + ^ x22: .cfa -32 + ^ .ra: .cfa -40 + ^ x29: .cfa -48 + ^
STACK CFI 463d8 .cfa: sp 48 +
STACK CFI 463e4 .cfa: sp 0 +
STACK CFI 463e8 .cfa: x29 48 +
STACK CFI 4651c .cfa: sp 48 +
STACK CFI 46528 .cfa: sp 0 +
STACK CFI 4652c .cfa: x29 48 +
STACK CFI 468e0 .cfa: sp 48 +
STACK CFI 468ec .cfa: sp 0 +
STACK CFI INIT 4a6ac 224 .cfa: sp 0 +
STACK CFI 4a6b0 .cfa: sp 128 +
STACK CFI 4a6d0 .cfa: x29 80 + x19: .cfa -8 + ^ x20: .cfa -16 + ^ x21: .cfa -24 + ^ x22: .cfa -32 + ^ x23: .cfa -40 + ^ x24: .cfa -48 + ^ x25: .cfa -56 + ^ x26: .cfa -64 + ^ .ra: .cfa -72 + ^ x29: .cfa -80 + ^ v8: .cfa -88 + ^ v9: .cfa -96 + ^ v10: .cfa -112 + ^
STACK CFI 4a8a8 .cfa: sp 128 +
STACK CFI 4a8c8 .cfa: sp 0 +
STACK CFI 4a8cc .cfa: x29 80 +
STACK CFI INIT 4b3a8 1a8 .cfa: sp 0 +
STACK CFI 4b3ac .cfa: sp 64 +
STACK CFI 4b3bc .cfa: x29 64 + x19: .cfa -8 + ^ x20: .cfa -16 + ^ x21: .cfa -24 + ^ x22: .cfa -32 + ^ x23: .cfa -48 + ^ .ra: .cfa -56 + ^ x29: .cfa -64 + ^
STACK CFI 4b4a0 .cfa: sp 64 +
STACK CFI 4b4b0 .cfa: sp 0 +
STACK CFI 4b4b4 .cfa: x29 64 +
STACK CFI 4b53c .cfa: sp 64 +
STACK CFI 4b54c .cfa: sp 0 +
STACK CFI INIT 4b924 294 .cfa: sp 0 +
STACK CFI 4b928 .cfa: sp 112 +
STACK CFI 4b944 .cfa: x29 72 + x19: .cfa -8 + ^ x20: .cfa -16 + ^ x21: .cfa -24 + ^ x22: .cfa -32 + ^ x23: .cfa -40 + ^ x24: .cfa -48 + ^ x25: .cfa -56 + ^ .ra: .cfa -64 + ^ x29: .cfa -72 + ^ v8: .cfa -80 + ^
STACK CFI 4bb94 .cfa: sp 112 +
STACK CFI 4bbb0 .cfa: sp 0 +
STACK CFI 4bbb4 .cfa: x29 72 +
STACK CFI INIT 4cb74 150 .cfa: sp 0 +
STACK CFI 4cb78 .cfa: sp 64 +
STACK CFI 4cb84 .cfa: x29 32 + x19: .cfa -8 + ^ x20: .cfa -16 + ^ .ra: .cfa -24 + ^ x29: .cfa -32 + ^
STACK CFI 4cc4c .cfa: sp 64 +
STACK CFI 4cc58 .cfa: sp 0 +
STACK CFI 4cc5c .cfa: x29 32 +
STACK CFI INIT 4ccc4 13c .cfa: sp 0 +
STACK CFI 4ccc8 .cfa: sp 48 +
STACK CFI 4ccd4 .cfa: x29 48 + x19: .cfa -8 + ^ x20: .cfa -16 + ^ x21: .cfa -24 + ^ x22: .cfa -32 + ^ .ra: .cfa -40 + ^ x29: .cfa -48 + ^
STACK CFI 4cdf0 .cfa: sp 48 +
STACK CFI 4cdfc .cfa: sp 0 +
STACK CFI INIT 4d120 2c .cfa: sp 0 +
STACK CFI 4d124 .cfa: sp 32 +
STACK CFI 4d12c .cfa: x29 32 + x19: .cfa -16 + ^ .ra: .cfa -24 + ^ x29: .cfa -32 + ^
STACK CFI 4d140 .cfa: sp 32 +
STACK CFI 4d148 .cfa: sp 0 +
STACK CFI INIT 4d14c 28 .cfa: sp 0 +
STACK CFI INIT 4d39c 2c .cfa: sp 0 +
STACK CFI INIT 4d580 2c .cfa: sp 0 +
STACK CFI 4d584 .cfa: sp 32 +
STACK CFI 4d58c .cfa: x29 32 + x19: .cfa -16 + ^ .ra: .cfa -24 + ^ x29: .cfa -32 + ^
STACK CFI 4d5a0 .cfa: sp 32 +
STACK CFI 4d5a8 .cfa: sp 0 +
STACK CFI INIT 4d5ac 28 .cfa: sp 0 +
STACK CFI INIT 4d8dc 2c .cfa: sp 0 +
STACK CFI INIT 4dd88 1c .cfa: sp 0 +
STACK CFI INIT 4e37c 14 .cfa: sp 0 +
STACK CFI 4e380 .cfa: sp 16 +
STACK CFI 4e384 .cfa: x29 16 + .ra: .cfa -8 + ^ x29: .cfa -16 + ^
STACK CFI INIT 4e5bc 14 .cfa: sp 0 +
STACK CFI 4e5c0 .cfa: sp 16 +
STACK CFI 4e5c4 .cfa: x29 16 + .ra: .cfa -8 + ^ x29: .cfa -16 + ^
STACK CFI INIT 4e5d0 14 .cfa: sp 0 +
STACK CFI 4e5d4 .cfa: sp 16 +
STACK CFI 4e5d8 .cfa: x29 16 + .ra: .cfa -8 + ^ x29: .cfa -16 + ^
STACK CFI INIT 4e5e4 14 .cfa: sp 0 +
STACK CFI 4e5e8 .cfa: sp 16 +
STACK CFI 4e5ec .cfa: x29 16 + .ra: .cfa -8 + ^ x29: .cfa -16 + ^
STACK CFI INIT 4e5f8 3c .cfa: sp 0 +
STACK CFI 4e600 .cfa: sp 32 +
STACK CFI 4e608 .cfa: x29 32 + x19: .cfa -16 + ^ .ra: .cfa -24 + ^ x29: .cfa -32 + ^
STACK CFI 4e624 .cfa: sp 32 +
STACK CFI 4e62c .cfa: sp 0 +
STACK CFI INIT 4e634 4 .cfa: sp 0 +
STACK CFI INIT 4e638 4 .cfa: sp 0 +
STACK CFI INIT 4e63c 38 .cfa: sp 0 +
STACK CFI 4e640 .cfa: sp 32 +
STACK CFI 4e648 .cfa: x29 32 + x19: .cfa -16 + ^ .ra: .cfa -24 + ^ x29: .cfa -32 + ^
STACK CFI 4e668 .cfa: sp 32 +
STACK CFI 4e670 .cfa: sp 0 +
STACK CFI INIT 4e674 18 .cfa: sp 0 +
STACK CFI INIT 4e68c 4 .cfa: sp 0 +
STACK CFI INIT 4e690 4 .cfa: sp 0 +
STACK CFI INIT 4e694 10 .cfa: sp 0 +
STACK CFI INIT 4e6a4 1c .cfa: sp 0 +
STACK CFI INIT 4e6c0 c .cfa: sp 0 +
STACK CFI INIT 4e6cc 4 .cfa: sp 0 +
STACK CFI INIT 4e73c 4 .cfa: sp 0 +
STACK CFI INIT 4e7ac 4 .cfa: sp 0 +
STACK CFI INIT 4e81c 4 .cfa: sp 0 +
STACK CFI INIT 4f168 4 .cfa: sp 0 +
STACK CFI INIT 4f16c 64 .cfa: sp 0 +
STACK CFI 4f170 .cfa: sp 32 +
STACK CFI 4f178 .cfa: x29 32 + x19: .cfa -8 + ^ x20: .cfa -16 + ^ .ra: .cfa -24 + ^ x29: .cfa -32 + ^
STACK CFI 4f1b0 .cfa: sp 32 +
STACK CFI 4f1b8 .cfa: sp 0 +
STACK CFI 4f1bc .cfa: x29 32 +
STACK CFI 4f1c4 .cfa: sp 32 +
STACK CFI 4f1cc .cfa: sp 0 +
STACK CFI INIT 4f768 14 .cfa: sp 0 +
STACK CFI 4f76c .cfa: sp 16 +
STACK CFI 4f770 .cfa: x29 16 + .ra: .cfa -8 + ^ x29: .cfa -16 + ^
STACK CFI INIT 4f77c 104 .cfa: sp 0 +
STACK CFI 4f780 .cfa: sp 64 +
STACK CFI 4f790 .cfa: x29 64 + x19: .cfa -8 + ^ x20: .cfa -16 + ^ x21: .cfa -24 + ^ x22: .cfa -32 + ^ x23: .cfa -48 + ^ .ra: .cfa -56 + ^ x29: .cfa -64 + ^
STACK CFI 4f7ec .cfa: sp 64 +
STACK CFI 4f7fc .cfa: sp 0 +
STACK CFI 4f800 .cfa: x29 64 +
STACK CFI 4f81c .cfa: sp 64 +
STACK CFI 4f82c .cfa: sp 0 +
STACK CFI 4f830 .cfa: x29 64 +
STACK CFI 4f86c .cfa: sp 64 +
STACK CFI 4f87c .cfa: sp 0 +
STACK CFI INIT 4fac4 68 .cfa: sp 0 +
STACK CFI 4fac8 .cfa: sp 48 +
STACK CFI 4fad4 .cfa: x29 48 + x19: .cfa -8 + ^ x20: .cfa -16 + ^ x21: .cfa -32 + ^ .ra: .cfa -40 + ^ x29: .cfa -48 + ^
STACK CFI 4fb0c .cfa: sp 48 +
STACK CFI 4fb18 .cfa: sp 0 +
STACK CFI 4fb1c .cfa: sp 48 +
STACK CFI 4fb28 .cfa: sp 0 +
STACK CFI INIT 4fd08 7c .cfa: sp 0 +
STACK CFI 4fd0c .cfa: sp 48 +
STACK CFI 4fd18 .cfa: x29 48 + x19: .cfa -8 + ^ x20: .cfa -16 + ^ x21: .cfa -24 + ^ x22: .cfa -32 + ^ .ra: .cfa -40 + ^ x29: .cfa -48 + ^
STACK CFI 4fd20 .cfa: sp 48 +
STACK CFI 4fd2c .cfa: sp 0 +
STACK CFI 4fd30 .cfa: x29 48 +
STACK CFI 4fd74 .cfa: sp 48 +
STACK CFI 4fd80 .cfa: sp 0 +
STACK CFI INIT 4fd84 14 .cfa: sp 0 +
STACK CFI 4fd88 .cfa: sp 16 +
STACK CFI 4fd8c .cfa: x29 16 + .ra: .cfa -8 + ^ x29: .cfa -16 + ^
STACK CFI INIT 4fd98 4 .cfa: sp 0 +
STACK CFI INIT 4fd9c 14 .cfa: sp 0 +
STACK CFI INIT 4fdb0 4 .cfa: sp 0 +
STACK CFI INIT 4fdb4 14 .cfa: sp 0 +
STACK CFI INIT 4fdc8 4 .cfa: sp 0 +
STACK CFI INIT 4fdcc 14 .cfa: sp 0 +
STACK CFI INIT 4fde0 4 .cfa: sp 0 +
STACK CFI INIT 4fde4 14 .cfa: sp 0 +
STACK CFI INIT 4fdf8 4 .cfa: sp 0 +
STACK CFI INIT 4fdfc 14 .cfa: sp 0 +
STACK CFI INIT 4fe10 174 .cfa: sp 0 +
STACK CFI 4fe1c .cfa: sp 64 +
STACK CFI 4fe2c .cfa: x29 64 + x19: .cfa -8 + ^ x20: .cfa -16 + ^ x21: .cfa -24 + ^ x22: .cfa -32 + ^ x23: .cfa -40 + ^ x24: .cfa -48 + ^ .ra: .cfa -56 + ^ x29: .cfa -64 + ^
STACK CFI 4ff70 .cfa: sp 64 +
STACK CFI 4ff80 .cfa: sp 0 +
STACK CFI INIT 4ff84 8 .cfa: sp 0 +
STACK CFI INIT 4ff8c 14 .cfa: sp 0 +
STACK CFI INIT 4ffa0 324 .cfa: sp 0 +
STACK CFI 4ffa4 .cfa: sp 80 +
STACK CFI 4ffb8 .cfa: x29 80 + x19: .cfa -8 + ^ x20: .cfa -16 + ^ x21: .cfa -24 + ^ x22: .cfa -32 + ^ x23: .cfa -40 + ^ x24: .cfa -48 + ^ x25: .cfa -64 + ^ .ra: .cfa -72 + ^ x29: .cfa -80 + ^
STACK CFI 502ac .cfa: sp 80 +
STACK CFI 502c0 .cfa: sp 0 +
STACK CFI INIT 502c4 118 .cfa: sp 0 +
STACK CFI 502c8 .cfa: sp 64 +
STACK CFI 502d8 .cfa: x29 64 + x19: .cfa -8 + ^ x20: .cfa -16 + ^ x21: .cfa -24 + ^ x22: .cfa -32 + ^ x23: .cfa -40 + ^ x24: .cfa -48 + ^ .ra: .cfa -56 + ^ x29: .cfa -64 + ^
STACK CFI 503b0 .cfa: sp 64 +
STACK CFI 503c0 .cfa: sp 0 +
STACK CFI 503c4 .cfa: x29 64 +
STACK CFI INIT 505e4 4 .cfa: sp 0 +
STACK CFI INIT 505e8 38 .cfa: sp 0 +
STACK CFI 505ec .cfa: sp 32 +
STACK CFI 505f4 .cfa: x29 32 + x19: .cfa -16 + ^ .ra: .cfa -24 + ^ x29: .cfa -32 + ^
STACK CFI 50614 .cfa: sp 32 +
STACK CFI 5061c .cfa: sp 0 +
STACK CFI INIT 50620 18 .cfa: sp 0 +
STACK CFI INIT 50638 4 .cfa: sp 0 +
STACK CFI INIT 5063c 4 .cfa: sp 0 +
STACK CFI INIT 50640 d0 .cfa: sp 0 +
STACK CFI 50644 .cfa: sp 80 +
STACK CFI 50658 .cfa: x29 48 + x19: .cfa -8 + ^ x20: .cfa -16 + ^ x21: .cfa -24 + ^ x22: .cfa -32 + ^ .ra: .cfa -40 + ^ x29: .cfa -48 + ^ v8: .cfa -64 + ^
STACK CFI 506f4 .cfa: sp 80 +
STACK CFI 50708 .cfa: sp 0 +
STACK CFI 5070c .cfa: x29 48 +
STACK CFI INIT 50710 1c .cfa: sp 0 +
STACK CFI INIT 5072c c .cfa: sp 0 +
STACK CFI INIT 50738 4 .cfa: sp 0 +
STACK CFI INIT 5073c 4 .cfa: sp 0 +
STACK CFI INIT 50740 38 .cfa: sp 0 +
STACK CFI 50744 .cfa: sp 32 +
STACK CFI 5074c .cfa: x29 32 + x19: .cfa -16 + ^ .ra: .cfa -24 + ^ x29: .cfa -32 + ^
STACK CFI 5076c .cfa: sp 32 +
STACK CFI 50774 .cfa: sp 0 +
STACK CFI INIT 50778 18 .cfa: sp 0 +
STACK CFI INIT 50790 4 .cfa: sp 0 +
STACK CFI INIT 50794 4 .cfa: sp 0 +
STACK CFI INIT 508c0 1c .cfa: sp 0 +
STACK CFI INIT 508dc c .cfa: sp 0 +
STACK CFI INIT 508e8 4 .cfa: sp 0 +
STACK CFI INIT 508ec 38 .cfa: sp 0 +
STACK CFI 508f0 .cfa: sp 32 +
STACK CFI 508f8 .cfa: x29 32 + x19: .cfa -16 + ^ .ra: .cfa -24 + ^ x29: .cfa -32 + ^
STACK CFI 50918 .cfa: sp 32 +
STACK CFI 50920 .cfa: sp 0 +
STACK CFI INIT 50924 18 .cfa: sp 0 +
STACK CFI INIT 5093c 4 .cfa: sp 0 +
STACK CFI INIT 50940 4 .cfa: sp 0 +
STACK CFI INIT 50944 d0 .cfa: sp 0 +
STACK CFI 50948 .cfa: sp 64 +
STACK CFI 50958 .cfa: x29 48 + x19: .cfa -8 + ^ x20: .cfa -16 + ^ x21: .cfa -24 + ^ x22: .cfa -32 + ^ .ra: .cfa -40 + ^ x29: .cfa -48 + ^
STACK CFI 509fc .cfa: sp 64 +
STACK CFI 50a0c .cfa: sp 0 +
STACK CFI 50a10 .cfa: x29 48 +
STACK CFI INIT 50a14 1c .cfa: sp 0 +
STACK CFI INIT 50a30 c .cfa: sp 0 +
STACK CFI INIT 50a3c 34 .cfa: sp 0 +
STACK CFI 50a40 .cfa: sp 16 +
STACK CFI 50a44 .cfa: x29 16 + .ra: .cfa -8 + ^ x29: .cfa -16 + ^
STACK CFI INIT 50a70 24 .cfa: sp 0 +
STACK CFI 50a74 .cfa: sp 32 +
STACK CFI 50a7c .cfa: x29 32 + x19: .cfa -16 + ^ .ra: .cfa -24 + ^ x29: .cfa -32 + ^
STACK CFI 50a88 .cfa: sp 32 +
STACK CFI 50a90 .cfa: sp 0 +
STACK CFI INIT 50a94 60 .cfa: sp 0 +
STACK CFI 50a98 .cfa: sp 32 +
STACK CFI 50aa0 .cfa: x29 32 + x19: .cfa -8 + ^ x20: .cfa -16 + ^ .ra: .cfa -24 + ^ x29: .cfa -32 + ^
STACK CFI 50ac0 .cfa: sp 32 +
STACK CFI 50ac8 .cfa: sp 0 +
STACK CFI 50acc .cfa: x29 32 +
STACK CFI 50ae8 .cfa: sp 32 +
STACK CFI 50af0 .cfa: sp 0 +
STACK CFI INIT 50af4 70 .cfa: sp 0 +
STACK CFI 50af8 .cfa: sp 32 +
STACK CFI 50b00 .cfa: x29 32 + x19: .cfa -8 + ^ x20: .cfa -16 + ^ .ra: .cfa -24 + ^ x29: .cfa -32 + ^
STACK CFI 50b28 .cfa: sp 32 +
STACK CFI 50b30 .cfa: sp 0 +
STACK CFI 50b34 .cfa: x29 32 +
STACK CFI 50b58 .cfa: sp 32 +
STACK CFI 50b60 .cfa: sp 0 +
STACK CFI INIT 50b64 10 .cfa: sp 0 +
STACK CFI INIT 50b74 30 .cfa: sp 0 +
STACK CFI 50b78 .cfa: sp 32 +
STACK CFI 50b80 .cfa: x29 32 + x19: .cfa -16 + ^ .ra: .cfa -24 + ^ x29: .cfa -32 + ^
STACK CFI 50b98 .cfa: sp 32 +
STACK CFI 50ba0 .cfa: sp 0 +
STACK CFI INIT 50ba4 4 .cfa: sp 0 +
STACK CFI INIT 50ba8 4 .cfa: sp 0 +
STACK CFI INIT 50bac 60 .cfa: sp 0 +
STACK CFI 50bb0 .cfa: sp 32 +
STACK CFI 50bb8 .cfa: x29 32 + x19: .cfa -8 + ^ x20: .cfa -16 + ^ .ra: .cfa -24 + ^ x29: .cfa -32 + ^
STACK CFI 50bd8 .cfa: sp 32 +
STACK CFI 50be0 .cfa: sp 0 +
STACK CFI 50be4 .cfa: x29 32 +
STACK CFI 50c00 .cfa: sp 32 +
STACK CFI 50c08 .cfa: sp 0 +
STACK CFI INIT 50c0c 70 .cfa: sp 0 +
STACK CFI 50c10 .cfa: sp 32 +
STACK CFI 50c18 .cfa: x29 32 + x19: .cfa -8 + ^ x20: .cfa -16 + ^ .ra: .cfa -24 + ^ x29: .cfa -32 + ^
STACK CFI 50c40 .cfa: sp 32 +
STACK CFI 50c48 .cfa: sp 0 +
STACK CFI 50c4c .cfa: x29 32 +
STACK CFI 50c70 .cfa: sp 32 +
STACK CFI 50c78 .cfa: sp 0 +
STACK CFI INIT 50c7c 10 .cfa: sp 0 +
STACK CFI INIT 50c8c 30 .cfa: sp 0 +
STACK CFI 50c90 .cfa: sp 32 +
STACK CFI 50c98 .cfa: x29 32 + x19: .cfa -16 + ^ .ra: .cfa -24 + ^ x29: .cfa -32 + ^
STACK CFI 50cb0 .cfa: sp 32 +
STACK CFI 50cb8 .cfa: sp 0 +
STACK CFI INIT 50cbc 4 .cfa: sp 0 +
STACK CFI INIT 50cc0 4 .cfa: sp 0 +
STACK CFI INIT 51100 1c .cfa: sp 0 +
STACK CFI INIT 5159c 1c .cfa: sp 0 +
STACK CFI INIT 519d4 4 .cfa: sp 0 +
STACK CFI INIT 519d8 98 .cfa: sp 0 +
STACK CFI 519dc .cfa: sp 64 +
STACK CFI 519ec .cfa: x29 48 + x19: .cfa -8 + ^ x20: .cfa -16 + ^ x21: .cfa -24 + ^ x22: .cfa -32 + ^ .ra: .cfa -40 + ^ x29: .cfa -48 + ^ v8: .cfa -56 + ^ v9: .cfa -64 + ^
STACK CFI 51a5c .cfa: sp 64 +
STACK CFI 51a6c .cfa: sp 0 +
STACK CFI INIT 51e30 4 .cfa: sp 0 +
STACK CFI INIT 52944 1c .cfa: sp 0 +
STACK CFI INIT 53c9c 4 .cfa: sp 0 +
STACK CFI INIT 57d38 54 .cfa: sp 0 +
STACK CFI 57d3c .cfa: sp 32 +
STACK CFI 57d44 .cfa: x29 32 + x19: .cfa -8 + ^ x20: .cfa -16 + ^ .ra: .cfa -24 + ^ x29: .cfa -32 + ^
STACK CFI 57d80 .cfa: sp 32 +
STACK CFI 57d88 .cfa: sp 0 +
STACK CFI INIT 5850c 30 .cfa: sp 0 +
STACK CFI 58518 .cfa: sp 32 +
STACK CFI 58520 .cfa: x29 32 + x19: .cfa -16 + ^ .ra: .cfa -24 + ^ x29: .cfa -32 + ^
STACK CFI 5852c .cfa: sp 32 +
STACK CFI 58534 .cfa: sp 0 +
STACK CFI INIT 587d4 24 .cfa: sp 0 +
STACK CFI 587d8 .cfa: sp 32 +
STACK CFI 587e0 .cfa: x29 32 + x19: .cfa -16 + ^ .ra: .cfa -24 + ^ x29: .cfa -32 + ^
STACK CFI 587ec .cfa: sp 32 +
STACK CFI 587f4 .cfa: sp 0 +
STACK CFI INIT 587f8 2c .cfa: sp 0 +
STACK CFI 587fc .cfa: sp 32 +
STACK CFI 58804 .cfa: x29 32 + x19: .cfa -16 + ^ .ra: .cfa -24 + ^ x29: .cfa -32 + ^
STACK CFI 58818 .cfa: sp 32 +
STACK CFI 58820 .cfa: sp 0 +
STACK CFI INIT 58824 28 .cfa: sp 0 +
STACK CFI INIT 58994 8 .cfa: sp 0 +
STACK CFI INIT 5899c 28 .cfa: sp 0 +
STACK CFI 589a0 .cfa: sp 32 +
STACK CFI 589a8 .cfa: x29 32 + x19: .cfa -16 + ^ .ra: .cfa -24 + ^ x29: .cfa -32 + ^
STACK CFI 589b8 .cfa: sp 32 +
STACK CFI 589c0 .cfa: sp 0 +
STACK CFI INIT 589c4 2c .cfa: sp 0 +
STACK CFI INIT 589f0 14 .cfa: sp 0 +
STACK CFI 589f4 .cfa: sp 16 +
STACK CFI 589f8 .cfa: x29 16 + .ra: .cfa -8 + ^ x29: .cfa -16 + ^
STACK CFI INIT 59e7c 138 .cfa: sp 0 +
STACK CFI 59e80 .cfa: sp 80 +
STACK CFI 59e98 .cfa: x29 72 + x19: .cfa -8 + ^ x20: .cfa -16 + ^ x21: .cfa -24 + ^ x22: .cfa -32 + ^ x23: .cfa -40 + ^ x24: .cfa -48 + ^ x25: .cfa -56 + ^ .ra: .cfa -64 + ^ x29: .cfa -72 + ^ v8: .cfa -80 + ^
STACK CFI 59f98 .cfa: sp 80 +
STACK CFI 59fb0 .cfa: sp 0 +
STACK CFI INIT 59fb4 144 .cfa: sp 0 +
STACK CFI 59fb8 .cfa: sp 80 +
STACK CFI 59fd0 .cfa: x29 56 + x19: .cfa -8 + ^ x20: .cfa -16 + ^ x21: .cfa -24 + ^ x22: .cfa -32 + ^ x23: .cfa -40 + ^ .ra: .cfa -48 + ^ x29: .cfa -56 + ^ v8: .cfa -64 + ^ v9: .cfa -72 + ^ v10: .cfa -80 + ^
STACK CFI 5a0dc .cfa: sp 80 +
STACK CFI 5a0f4 .cfa: sp 0 +
STACK CFI INIT 5a0f8 208 .cfa: sp 0 +
STACK CFI 5a0fc .cfa: sp 96 +
STACK CFI 5a118 .cfa: x29 88 + x19: .cfa -8 + ^ x20: .cfa -16 + ^ x21: .cfa -24 + ^ x22: .cfa -32 + ^ x23: .cfa -40 + ^ x24: .cfa -48 + ^ x25: .cfa -56 + ^ x26: .cfa -64 + ^ x27: .cfa -72 + ^ .ra: .cfa -80 + ^ x29: .cfa -88 + ^ v8: .cfa -96 + ^
STACK CFI 5a2d0 .cfa: sp 96 +
STACK CFI 5a2ec .cfa: sp 0 +
STACK CFI 5a2f0 .cfa: x29 88 +
STACK CFI INIT 5a300 f4 .cfa: sp 0 +
STACK CFI 5a304 .cfa: sp 80 +
STACK CFI 5a318 .cfa: x29 64 + x19: .cfa -8 + ^ x20: .cfa -16 + ^ x21: .cfa -24 + ^ x22: .cfa -32 + ^ x23: .cfa -40 + ^ x24: .cfa -48 + ^ .ra: .cfa -56 + ^ x29: .cfa -64 + ^ v8: .cfa -80 + ^
STACK CFI 5a3dc .cfa: sp 80 +
STACK CFI 5a3f0 .cfa: sp 0 +
STACK CFI INIT 5a490 1248 .cfa: sp 0 +
STACK CFI 5a494 .cfa: sp 128 +
STACK CFI 5a4b0 .cfa: x29 96 + x19: .cfa -8 + ^ x20: .cfa -16 + ^ x21: .cfa -24 + ^ x22: .cfa -32 + ^ x23: .cfa -40 + ^ x24: .cfa -48 + ^ x25: .cfa -56 + ^ x26: .cfa -64 + ^ x27: .cfa -72 + ^ x28: .cfa -80 + ^ .ra: .cfa -88 + ^ x29: .cfa -96 + ^
STACK CFI 5ad5c .cfa: sp 128 +
STACK CFI 5ad78 .cfa: sp 0 +
STACK CFI 5ad7c .cfa: x29 96 +
STACK CFI 5ad8c .cfa: sp 128 +
STACK CFI 5ada8 .cfa: sp 0 +
STACK CFI 5adac .cfa: x29 96 +
STACK CFI 5adc0 .cfa: sp 128 +
STACK CFI 5addc .cfa: sp 0 +
STACK CFI 5ade0 .cfa: x29 96 +
STACK CFI 5b6b8 .cfa: sp 128 +
STACK CFI 5b6d4 .cfa: sp 0 +
STACK CFI INIT 5b6d8 268 .cfa: sp 0 +
STACK CFI 5b6dc .cfa: sp 64 +
STACK CFI 5b6ec .cfa: x29 64 + x19: .cfa -8 + ^ x20: .cfa -16 + ^ x21: .cfa -24 + ^ x22: .cfa -32 + ^ x23: .cfa -40 + ^ x24: .cfa -48 + ^ .ra: .cfa -56 + ^ x29: .cfa -64 + ^
STACK CFI 5b744 .cfa: sp 64 +
STACK CFI 5b754 .cfa: sp 0 +
STACK CFI 5b758 .cfa: x29 64 +
STACK CFI 5b92c .cfa: sp 64 +
STACK CFI 5b93c .cfa: sp 0 +
STACK CFI INIT 5b940 1f4 .cfa: sp 0 +
STACK CFI INIT 5bb34 32c .cfa: sp 0 +
STACK CFI 5bb38 .cfa: sp 48 +
STACK CFI 5bb44 .cfa: x29 48 + x19: .cfa -8 + ^ x20: .cfa -16 + ^ x21: .cfa -24 + ^ x22: .cfa -32 + ^ .ra: .cfa -40 + ^ x29: .cfa -48 + ^
STACK CFI 5bbd4 .cfa: sp 48 +
STACK CFI 5bbe0 .cfa: sp 0 +
STACK CFI 5bbe4 .cfa: x29 48 +
STACK CFI 5bbfc .cfa: sp 48 +
STACK CFI 5bc08 .cfa: sp 0 +
STACK CFI 5bc0c .cfa: x29 48 +
STACK CFI 5bdc8 .cfa: sp 48 +
STACK CFI 5bdd4 .cfa: sp 0 +
STACK CFI 5bdd8 .cfa: x29 48 +
STACK CFI 5bdf4 .cfa: sp 48 +
STACK CFI 5be00 .cfa: sp 0 +
STACK CFI 5be04 .cfa: x29 48 +
STACK CFI 5be50 .cfa: sp 48 +
STACK CFI 5be5c .cfa: sp 0 +
STACK CFI INIT 5be60 1e8 .cfa: sp 0 +
STACK CFI 5be64 .cfa: sp 64 +
STACK CFI 5be74 .cfa: x29 64 + x19: .cfa -8 + ^ x20: .cfa -16 + ^ x21: .cfa -24 + ^ x22: .cfa -32 + ^ x23: .cfa -48 + ^ .ra: .cfa -56 + ^ x29: .cfa -64 + ^
STACK CFI 5bec8 .cfa: sp 64 +
STACK CFI 5bed8 .cfa: sp 0 +
STACK CFI 5bedc .cfa: x29 64 +
STACK CFI 5c034 .cfa: sp 64 +
STACK CFI 5c044 .cfa: sp 0 +
STACK CFI INIT 5c240 38 .cfa: sp 0 +
STACK CFI 5c244 .cfa: sp 32 +
STACK CFI 5c24c .cfa: x29 32 + x19: .cfa -16 + ^ .ra: .cfa -24 + ^ x29: .cfa -32 + ^
STACK CFI 5c260 .cfa: sp 32 +
STACK CFI 5c268 .cfa: sp 0 +
STACK CFI 5c26c .cfa: sp 32 +
STACK CFI 5c274 .cfa: sp 0 +
STACK CFI INIT 5c278 14 .cfa: sp 0 +
STACK CFI 5c27c .cfa: sp 16 +
STACK CFI 5c280 .cfa: x29 16 + .ra: .cfa -8 + ^ x29: .cfa -16 + ^
STACK CFI INIT 5c430 4 .cfa: sp 0 +
STACK CFI INIT 5c4a0 4 .cfa: sp 0 +
STACK CFI INIT 5c4a4 4 .cfa: sp 0 +
STACK CFI INIT 5c4a8 34 .cfa: sp 0 +
STACK CFI 5c4ac .cfa: sp 32 +
STACK CFI 5c4b4 .cfa: x29 32 + x19: .cfa -16 + ^ .ra: .cfa -24 + ^ x29: .cfa -32 + ^
STACK CFI 5c4d0 .cfa: sp 32 +
STACK CFI 5c4d8 .cfa: sp 0 +
STACK CFI INIT 5c4dc 14 .cfa: sp 0 +
STACK CFI INIT 5c4f0 4 .cfa: sp 0 +
STACK CFI INIT 5c4f4 4 .cfa: sp 0 +
STACK CFI INIT 5c4f8 c8 .cfa: sp 0 +
STACK CFI 5c4fc .cfa: sp 64 +
STACK CFI 5c50c .cfa: x29 48 + x19: .cfa -8 + ^ x20: .cfa -16 + ^ x21: .cfa -32 + ^ .ra: .cfa -40 + ^ x29: .cfa -48 + ^
STACK CFI 5c5a8 .cfa: sp 64 +
STACK CFI 5c5b8 .cfa: sp 0 +
STACK CFI 5c5bc .cfa: x29 48 +
STACK CFI INIT 5c5c0 1c .cfa: sp 0 +
STACK CFI INIT 5c5dc c .cfa: sp 0 +
STACK CFI INIT 5c5e8 4 .cfa: sp 0 +
STACK CFI INIT 5c5ec 34 .cfa: sp 0 +
STACK CFI 5c5f0 .cfa: sp 32 +
STACK CFI 5c5f8 .cfa: x29 32 + x19: .cfa -16 + ^ .ra: .cfa -24 + ^ x29: .cfa -32 + ^
STACK CFI 5c614 .cfa: sp 32 +
STACK CFI 5c61c .cfa: sp 0 +
STACK CFI INIT 5c620 14 .cfa: sp 0 +
STACK CFI INIT 5c634 4 .cfa: sp 0 +
STACK CFI INIT 5c638 4 .cfa: sp 0 +
STACK CFI INIT 5c63c c8 .cfa: sp 0 +
STACK CFI 5c640 .cfa: sp 64 +
STACK CFI 5c650 .cfa: x29 48 + x19: .cfa -8 + ^ x20: .cfa -16 + ^ x21: .cfa -32 + ^ .ra: .cfa -40 + ^ x29: .cfa -48 + ^
STACK CFI 5c6ec .cfa: sp 64 +
STACK CFI 5c6fc .cfa: sp 0 +
STACK CFI 5c700 .cfa: x29 48 +
STACK CFI INIT 5c704 1c .cfa: sp 0 +
STACK CFI INIT 5c720 c .cfa: sp 0 +
STACK CFI INIT 5c72c 3c .cfa: sp 0 +
STACK CFI 5c734 .cfa: sp 32 +
STACK CFI 5c73c .cfa: x29 32 + x19: .cfa -16 + ^ .ra: .cfa -24 + ^ x29: .cfa -32 + ^
STACK CFI 5c758 .cfa: sp 32 +
STACK CFI 5c760 .cfa: sp 0 +
STACK CFI INIT 5c768 3c .cfa: sp 0 +
STACK CFI 5c770 .cfa: sp 32 +
STACK CFI 5c778 .cfa: x29 32 + x19: .cfa -16 + ^ .ra: .cfa -24 + ^ x29: .cfa -32 + ^
STACK CFI 5c794 .cfa: sp 32 +
STACK CFI 5c79c .cfa: sp 0 +
STACK CFI INIT 5c7a4 4 .cfa: sp 0 +
STACK CFI INIT 5c7a8 4 .cfa: sp 0 +
STACK CFI INIT 5c7ac 34 .cfa: sp 0 +
STACK CFI 5c7b0 .cfa: sp 32 +
STACK CFI 5c7b8 .cfa: x29 32 + x19: .cfa -16 + ^ .ra: .cfa -24 + ^ x29: .cfa -32 + ^
STACK CFI 5c7d4 .cfa: sp 32 +
STACK CFI 5c7dc .cfa: sp 0 +
STACK CFI INIT 5c7e0 14 .cfa: sp 0 +
STACK CFI INIT 5c7f4 4 .cfa: sp 0 +
STACK CFI INIT 5c7f8 4 .cfa: sp 0 +
STACK CFI INIT 5c7fc 14 .cfa: sp 0 +
STACK CFI INIT 5c810 1c .cfa: sp 0 +
STACK CFI INIT 5c82c c .cfa: sp 0 +
STACK CFI INIT 5c838 60 .cfa: sp 0 +
STACK CFI 5c83c .cfa: sp 32 +
STACK CFI 5c844 .cfa: x29 32 + x19: .cfa -8 + ^ x20: .cfa -16 + ^ .ra: .cfa -24 + ^ x29: .cfa -32 + ^
STACK CFI 5c864 .cfa: sp 32 +
STACK CFI 5c86c .cfa: sp 0 +
STACK CFI 5c870 .cfa: x29 32 +
STACK CFI 5c88c .cfa: sp 32 +
STACK CFI 5c894 .cfa: sp 0 +
STACK CFI INIT 5c898 70 .cfa: sp 0 +
STACK CFI 5c89c .cfa: sp 32 +
STACK CFI 5c8a4 .cfa: x29 32 + x19: .cfa -8 + ^ x20: .cfa -16 + ^ .ra: .cfa -24 + ^ x29: .cfa -32 + ^
STACK CFI 5c8cc .cfa: sp 32 +
STACK CFI 5c8d4 .cfa: sp 0 +
STACK CFI 5c8d8 .cfa: x29 32 +
STACK CFI 5c8fc .cfa: sp 32 +
STACK CFI 5c904 .cfa: sp 0 +
STACK CFI INIT 5c908 10 .cfa: sp 0 +
STACK CFI INIT 5c918 30 .cfa: sp 0 +
STACK CFI 5c91c .cfa: sp 32 +
STACK CFI 5c924 .cfa: x29 32 + x19: .cfa -16 + ^ .ra: .cfa -24 + ^ x29: .cfa -32 + ^
STACK CFI 5c93c .cfa: sp 32 +
STACK CFI 5c944 .cfa: sp 0 +
STACK CFI INIT 5c948 4 .cfa: sp 0 +
STACK CFI INIT 5c94c 4 .cfa: sp 0 +
STACK CFI INIT 5c950 30c .cfa: sp 0 +
STACK CFI 5c954 .cfa: sp 144 +
STACK CFI 5c970 .cfa: x29 80 + x19: .cfa -8 + ^ x20: .cfa -16 + ^ x21: .cfa -24 + ^ x22: .cfa -32 + ^ x23: .cfa -40 + ^ x24: .cfa -48 + ^ x25: .cfa -56 + ^ x26: .cfa -64 + ^ .ra: .cfa -72 + ^ x29: .cfa -80 + ^ v8: .cfa -88 + ^ v9: .cfa -96 + ^
STACK CFI 5cc38 .cfa: sp 144 +
STACK CFI 5cc54 .cfa: sp 0 +
STACK CFI 5cc58 .cfa: x29 80 +
STACK CFI INIT 5d44c ac .cfa: sp 0 +
STACK CFI 5d450 .cfa: sp 64 +
STACK CFI 5d460 .cfa: x29 48 + x19: .cfa -8 + ^ x20: .cfa -16 + ^ x21: .cfa -32 + ^ .ra: .cfa -40 + ^ x29: .cfa -48 + ^
STACK CFI 5d4cc .cfa: sp 64 +
STACK CFI 5d4dc .cfa: sp 0 +
STACK CFI 5d4e0 .cfa: x29 48 +
STACK CFI INIT 5dc6c 2c .cfa: sp 0 +
STACK CFI 5dc70 .cfa: sp 32 +
STACK CFI 5dc78 .cfa: x29 32 + x19: .cfa -16 + ^ .ra: .cfa -24 + ^ x29: .cfa -32 + ^
STACK CFI 5dc8c .cfa: sp 32 +
STACK CFI 5dc94 .cfa: sp 0 +
STACK CFI INIT 5dc98 28 .cfa: sp 0 +
STACK CFI INIT 5dfc8 2c .cfa: sp 0 +
STACK CFI INIT 5e060 4 .cfa: sp 0 +
STACK CFI INIT 5e0d0 4 .cfa: sp 0 +
STACK CFI INIT 5e0d4 60 .cfa: sp 0 +
STACK CFI 5e0d8 .cfa: sp 32 +
STACK CFI 5e0e0 .cfa: x29 32 + x19: .cfa -8 + ^ x20: .cfa -16 + ^ .ra: .cfa -24 + ^ x29: .cfa -32 + ^
STACK CFI 5e100 .cfa: sp 32 +
STACK CFI 5e108 .cfa: sp 0 +
STACK CFI 5e10c .cfa: x29 32 +
STACK CFI 5e128 .cfa: sp 32 +
STACK CFI 5e130 .cfa: sp 0 +
STACK CFI INIT 5e134 70 .cfa: sp 0 +
STACK CFI 5e138 .cfa: sp 32 +
STACK CFI 5e140 .cfa: x29 32 + x19: .cfa -8 + ^ x20: .cfa -16 + ^ .ra: .cfa -24 + ^ x29: .cfa -32 + ^
STACK CFI 5e168 .cfa: sp 32 +
STACK CFI 5e170 .cfa: sp 0 +
STACK CFI 5e174 .cfa: x29 32 +
STACK CFI 5e198 .cfa: sp 32 +
STACK CFI 5e1a0 .cfa: sp 0 +
STACK CFI INIT 5e1a4 10 .cfa: sp 0 +
STACK CFI INIT 5e1b4 30 .cfa: sp 0 +
STACK CFI 5e1b8 .cfa: sp 32 +
STACK CFI 5e1c0 .cfa: x29 32 + x19: .cfa -16 + ^ .ra: .cfa -24 + ^ x29: .cfa -32 + ^
STACK CFI 5e1d8 .cfa: sp 32 +
STACK CFI 5e1e0 .cfa: sp 0 +
STACK CFI INIT 5e1e4 4 .cfa: sp 0 +
STACK CFI INIT 5e1e8 4 .cfa: sp 0 +
STACK CFI INIT 5e1ec 25c .cfa: sp 0 +
STACK CFI 5e1f0 .cfa: sp 32 +
STACK CFI 5e1f8 .cfa: x29 32 + x19: .cfa -16 + ^ .ra: .cfa -24 + ^ x29: .cfa -32 + ^
STACK CFI 5e22c .cfa: sp 32 +
STACK CFI 5e234 .cfa: sp 0 +
STACK CFI 5e238 .cfa: x29 32 +
STACK CFI 5e268 .cfa: sp 32 +
STACK CFI 5e270 .cfa: sp 0 +
STACK CFI 5e274 .cfa: x29 32 +
STACK CFI 5e2a4 .cfa: sp 32 +
STACK CFI 5e2ac .cfa: sp 0 +
STACK CFI 5e2b0 .cfa: x29 32 +
STACK CFI 5e2e0 .cfa: sp 32 +
STACK CFI 5e2e8 .cfa: sp 0 +
STACK CFI 5e2ec .cfa: x29 32 +
STACK CFI 5e31c .cfa: sp 32 +
STACK CFI 5e324 .cfa: sp 0 +
STACK CFI 5e328 .cfa: x29 32 +
STACK CFI 5e354 .cfa: sp 32 +
STACK CFI 5e35c .cfa: sp 0 +
STACK CFI 5e360 .cfa: x29 32 +
STACK CFI 5e38c .cfa: sp 32 +
STACK CFI 5e394 .cfa: sp 0 +
STACK CFI 5e398 .cfa: x29 32 +
STACK CFI 5e3c8 .cfa: sp 32 +
STACK CFI 5e3d0 .cfa: sp 0 +
STACK CFI 5e3d4 .cfa: x29 32 +
STACK CFI 5e404 .cfa: sp 32 +
STACK CFI 5e40c .cfa: sp 0 +
STACK CFI 5e410 .cfa: x29 32 +
STACK CFI 5e43c .cfa: sp 32 +
STACK CFI 5e444 .cfa: sp 0 +
STACK CFI INIT 5e448 17c .cfa: sp 0 +
STACK CFI 5e44c .cfa: sp 112 +
STACK CFI 5e46c .cfa: x29 72 + x19: .cfa -8 + ^ x20: .cfa -16 + ^ x21: .cfa -24 + ^ x22: .cfa -32 + ^ x23: .cfa -40 + ^ x24: .cfa -48 + ^ x25: .cfa -56 + ^ .ra: .cfa -64 + ^ x29: .cfa -72 + ^ v8: .cfa -80 + ^ v9: .cfa -88 + ^ v10: .cfa -96 + ^
STACK CFI 5e59c .cfa: sp 112 +
STACK CFI 5e5bc .cfa: sp 0 +
STACK CFI 5e5c0 .cfa: x29 72 +
STACK CFI INIT 5e5c4 c4 .cfa: sp 0 +
STACK CFI 5e5c8 .cfa: sp 48 +
STACK CFI 5e5d8 .cfa: x29 40 + x19: .cfa -8 + ^ x20: .cfa -16 + ^ x21: .cfa -24 + ^ .ra: .cfa -32 + ^ x29: .cfa -40 + ^ v8: .cfa -48 + ^
STACK CFI 5e674 .cfa: sp 48 +
STACK CFI 5e684 .cfa: sp 0 +
STACK CFI INIT 5e688 38 .cfa: sp 0 +
STACK CFI 5e68c .cfa: sp 32 +
STACK CFI 5e694 .cfa: x29 32 + x19: .cfa -8 + ^ x20: .cfa -16 + ^ .ra: .cfa -24 + ^ x29: .cfa -32 + ^
STACK CFI 5e6b4 .cfa: sp 32 +
STACK CFI 5e6bc .cfa: sp 0 +
STACK CFI INIT 60230 7c .cfa: sp 0 +
STACK CFI 60234 .cfa: sp 48 +
STACK CFI 60240 .cfa: x29 48 + x19: .cfa -8 + ^ x20: .cfa -16 + ^ x21: .cfa -32 + ^ .ra: .cfa -40 + ^ x29: .cfa -48 + ^
STACK CFI 6029c .cfa: sp 48 +
STACK CFI 602a8 .cfa: sp 0 +
STACK CFI INIT 613b0 8 .cfa: sp 0 +
STACK CFI INIT 613b8 4 .cfa: sp 0 +
STACK CFI INIT 613bc 8 .cfa: sp 0 +
STACK CFI INIT 613c4 4 .cfa: sp 0 +
STACK CFI INIT 613c8 4 .cfa: sp 0 +
STACK CFI INIT 613cc 4 .cfa: sp 0 +
STACK CFI INIT 613d0 8 .cfa: sp 0 +
STACK CFI INIT 613d8 4 .cfa: sp 0 +
STACK CFI INIT 613dc 4 .cfa: sp 0 +
STACK CFI INIT 61860 1c .cfa: sp 0 +
STACK CFI INIT 61cfc 1c .cfa: sp 0 +
STACK CFI INIT 61d18 4c .cfa: sp 0 +
STACK CFI INIT 61d64 1c .cfa: sp 0 +
STACK CFI INIT 632ac 1c .cfa: sp 0 +
STACK CFI INIT 632c8 1c .cfa: sp 0 +
STACK CFI INIT 632e4 1c .cfa: sp 0 +
STACK CFI INIT 63300 1c .cfa: sp 0 +
STACK CFI INIT 6331c 1c .cfa: sp 0 +
STACK CFI INIT 6376c 4 .cfa: sp 0 +
STACK CFI INIT 63770 14 .cfa: sp 0 +
STACK CFI 63774 .cfa: sp 16 +
STACK CFI 63778 .cfa: x29 16 + .ra: .cfa -8 + ^ x29: .cfa -16 + ^
STACK CFI INIT 63910 4 .cfa: sp 0 +
STACK CFI INIT 643f8 4 .cfa: sp 0 +
STACK CFI INIT 64580 50 .cfa: sp 0 +
STACK CFI 64584 .cfa: sp 32 +
STACK CFI 6458c .cfa: x29 32 + x19: .cfa -8 + ^ x20: .cfa -16 + ^ .ra: .cfa -24 + ^ x29: .cfa -32 + ^
STACK CFI 645b8 .cfa: sp 32 +
STACK CFI 645c0 .cfa: sp 0 +
STACK CFI 645c4 .cfa: sp 32 +
STACK CFI 645cc .cfa: sp 0 +
STACK CFI INIT 645d0 4c .cfa: sp 0 +
STACK CFI 645d4 .cfa: sp 32 +
STACK CFI 645dc .cfa: x29 32 + x19: .cfa -16 + ^ .ra: .cfa -24 + ^ x29: .cfa -32 + ^
STACK CFI 64604 .cfa: sp 32 +
STACK CFI 6460c .cfa: sp 0 +
STACK CFI 64610 .cfa: sp 32 +
STACK CFI 64618 .cfa: sp 0 +
STACK CFI INIT 64f10 b0 .cfa: sp 0 +
STACK CFI 64f14 .cfa: sp 32 +
STACK CFI 64f1c .cfa: x29 32 + x19: .cfa -16 + ^ .ra: .cfa -24 + ^ x29: .cfa -32 + ^
STACK CFI 64fb4 .cfa: sp 32 +
STACK CFI 64fbc .cfa: sp 0 +
STACK CFI INIT 65428 4 .cfa: sp 0 +
STACK CFI INIT 6542c 1ac .cfa: sp 0 +
STACK CFI 65430 .cfa: sp 112 +
STACK CFI 65444 .cfa: x29 64 + x19: .cfa -8 + ^ x20: .cfa -16 + ^ x21: .cfa -24 + ^ x22: .cfa -32 + ^ x23: .cfa -48 + ^ .ra: .cfa -56 + ^ x29: .cfa -64 + ^
STACK CFI 65588 .cfa: sp 112 +
STACK CFI 6559c .cfa: sp 0 +
STACK CFI 655a0 .cfa: x29 64 +
STACK CFI 655bc .cfa: sp 112 +
STACK CFI 655d0 .cfa: sp 0 +
STACK CFI 655d4 .cfa: x29 64 +
STACK CFI INIT 657a4 4 .cfa: sp 0 +
STACK CFI INIT 657a8 4 .cfa: sp 0 +
STACK CFI INIT 657ac 4 .cfa: sp 0 +
STACK CFI INIT 657b0 4 .cfa: sp 0 +
STACK CFI INIT 657b4 40 .cfa: sp 0 +
STACK CFI 657b8 .cfa: sp 32 +
STACK CFI 657c0 .cfa: x29 32 + x19: .cfa -16 + ^ .ra: .cfa -24 + ^ x29: .cfa -32 + ^
STACK CFI 657e8 .cfa: sp 32 +
STACK CFI 657f0 .cfa: sp 0 +
STACK CFI INIT 657f4 20 .cfa: sp 0 +
STACK CFI INIT 65814 4 .cfa: sp 0 +
STACK CFI INIT 65818 4 .cfa: sp 0 +
STACK CFI INIT 65d14 1c .cfa: sp 0 +
STACK CFI INIT 65d30 c .cfa: sp 0 +
STACK CFI INIT 660ec 4 .cfa: sp 0 +
STACK CFI INIT 667f0 190 .cfa: sp 0 +
STACK CFI INIT 66980 44 .cfa: sp 0 +
STACK CFI 66988 .cfa: sp 32 +
STACK CFI 66990 .cfa: x29 32 + x19: .cfa -8 + ^ x20: .cfa -16 + ^ .ra: .cfa -24 + ^ x29: .cfa -32 + ^
STACK CFI 669b4 .cfa: sp 32 +
STACK CFI 669bc .cfa: sp 0 +
STACK CFI INIT 669c4 14 .cfa: sp 0 +
STACK CFI 669c8 .cfa: sp 16 +
STACK CFI 669cc .cfa: x29 16 + .ra: .cfa -8 + ^ x29: .cfa -16 + ^
STACK CFI INIT 669d8 4c .cfa: sp 0 +
STACK CFI 669dc .cfa: sp 32 +
STACK CFI 669e4 .cfa: x29 32 + x19: .cfa -16 + ^ .ra: .cfa -24 + ^ x29: .cfa -32 + ^
STACK CFI 66a0c .cfa: sp 32 +
STACK CFI 66a14 .cfa: sp 0 +
STACK CFI 66a18 .cfa: sp 32 +
STACK CFI 66a20 .cfa: sp 0 +
STACK CFI INIT 66a24 48 .cfa: sp 0 +
STACK CFI 66a2c .cfa: sp 32 +
STACK CFI 66a34 .cfa: x29 32 + x19: .cfa -16 + ^ .ra: .cfa -24 + ^ x29: .cfa -32 + ^
STACK CFI 66a5c .cfa: sp 32 +
STACK CFI 66a64 .cfa: sp 0 +
STACK CFI INIT 66a6c 124 .cfa: sp 0 +
STACK CFI 66a70 .cfa: sp 96 +
STACK CFI 66a84 .cfa: x29 64 + x19: .cfa -8 + ^ x20: .cfa -16 + ^ x21: .cfa -24 + ^ x22: .cfa -32 + ^ x23: .cfa -48 + ^ .ra: .cfa -56 + ^ x29: .cfa -64 + ^
STACK CFI 66b74 .cfa: sp 96 +
STACK CFI 66b88 .cfa: sp 0 +
STACK CFI 66b8c .cfa: x29 64 +
STACK CFI INIT 66f30 4 .cfa: sp 0 +
STACK CFI INIT 677d4 4 .cfa: sp 0 +
STACK CFI INIT 67e84 4 .cfa: sp 0 +
STACK CFI INIT 68754 4 .cfa: sp 0 +
STACK CFI INIT 68758 6c .cfa: sp 0 +
STACK CFI 6875c .cfa: sp 48 +
STACK CFI 68768 .cfa: x29 48 + x19: .cfa -8 + ^ x20: .cfa -16 + ^ x21: .cfa -32 + ^ .ra: .cfa -40 + ^ x29: .cfa -48 + ^
STACK CFI 687b4 .cfa: sp 48 +
STACK CFI 687c0 .cfa: sp 0 +
STACK CFI INIT 688e8 184 .cfa: sp 0 +
STACK CFI 688ec .cfa: sp 64 +
STACK CFI 688fc .cfa: x29 48 + x19: .cfa -8 + ^ x20: .cfa -16 + ^ x21: .cfa -24 + ^ x22: .cfa -32 + ^ .ra: .cfa -40 + ^ x29: .cfa -48 + ^ v8: .cfa -64 + ^
STACK CFI 68928 .cfa: sp 64 +
STACK CFI 68938 .cfa: sp 0 +
STACK CFI 6893c .cfa: x29 48 +
STACK CFI 68958 .cfa: sp 64 +
STACK CFI 68968 .cfa: sp 0 +
STACK CFI 6896c .cfa: x29 48 +
STACK CFI 68980 .cfa: sp 64 +
STACK CFI 68990 .cfa: sp 0 +
STACK CFI 68994 .cfa: x29 48 +
STACK CFI 6899c .cfa: sp 64 +
STACK CFI 689ac .cfa: sp 0 +
STACK CFI 689b0 .cfa: x29 48 +
STACK CFI 68a10 .cfa: sp 64 +
STACK CFI 68a20 .cfa: sp 0 +
STACK CFI 68a24 .cfa: x29 48 +
STACK CFI 68a28 .cfa: sp 64 +
STACK CFI 68a38 .cfa: sp 0 +
STACK CFI 68a3c .cfa: x29 48 +
STACK CFI 68a40 .cfa: sp 64 +
STACK CFI 68a50 .cfa: sp 0 +
STACK CFI 68a54 .cfa: x29 48 +
STACK CFI 68a58 .cfa: sp 64 +
STACK CFI 68a68 .cfa: sp 0 +
STACK CFI INIT 68a6c 1b94 .cfa: sp 0 +
STACK CFI 68a70 .cfa: sp 128 +
STACK CFI 68a80 .cfa: x29 48 + x19: .cfa -8 + ^ x20: .cfa -16 + ^ x21: .cfa -32 + ^ .ra: .cfa -40 + ^ x29: .cfa -48 + ^
STACK CFI 691ac .cfa: sp 128 +
STACK CFI 691bc .cfa: sp 0 +
STACK CFI 691c0 .cfa: x29 48 +
STACK CFI INIT 6a688 dc .cfa: sp 0 +
STACK CFI 6a68c .cfa: sp 80 +
STACK CFI 6a69c .cfa: x29 48 + x19: .cfa -8 + ^ x20: .cfa -16 + ^ x21: .cfa -24 + ^ x22: .cfa -32 + ^ .ra: .cfa -40 + ^ x29: .cfa -48 + ^
STACK CFI 6a72c .cfa: sp 80 +
STACK CFI 6a73c .cfa: sp 0 +
STACK CFI 6a740 .cfa: x29 48 +
STACK CFI INIT 6a764 ec .cfa: sp 0 +
STACK CFI 6a768 .cfa: sp 96 +
STACK CFI 6a77c .cfa: x29 64 + x19: .cfa -8 + ^ x20: .cfa -16 + ^ x21: .cfa -24 + ^ x22: .cfa -32 + ^ x23: .cfa -48 + ^ .ra: .cfa -56 + ^ x29: .cfa -64 + ^
STACK CFI 6a814 .cfa: sp 96 +
STACK CFI 6a828 .cfa: sp 0 +
STACK CFI 6a82c .cfa: x29 64 +
STACK CFI INIT 6a850 d8 .cfa: sp 0 +
STACK CFI 6a854 .cfa: sp 80 +
STACK CFI 6a864 .cfa: x29 48 + x19: .cfa -8 + ^ x20: .cfa -16 + ^ x21: .cfa -24 + ^ x22: .cfa -32 + ^ .ra: .cfa -40 + ^ x29: .cfa -48 + ^
STACK CFI 6a910 .cfa: sp 80 +
STACK CFI 6a920 .cfa: sp 0 +
STACK CFI 6a924 .cfa: x29 48 +
STACK CFI INIT 6a928 e8 .cfa: sp 0 +
STACK CFI 6a92c .cfa: sp 96 +
STACK CFI 6a940 .cfa: x29 64 + x19: .cfa -8 + ^ x20: .cfa -16 + ^ x21: .cfa -24 + ^ x22: .cfa -32 + ^ x23: .cfa -48 + ^ .ra: .cfa -56 + ^ x29: .cfa -64 + ^
STACK CFI 6a9f4 .cfa: sp 96 +
STACK CFI 6aa08 .cfa: sp 0 +
STACK CFI 6aa0c .cfa: x29 64 +
STACK CFI INIT 6aa10 24 .cfa: sp 0 +
STACK CFI 6aa14 .cfa: sp 32 +
STACK CFI 6aa1c .cfa: x29 32 + x19: .cfa -16 + ^ .ra: .cfa -24 + ^ x29: .cfa -32 + ^
STACK CFI 6aa28 .cfa: sp 32 +
STACK CFI 6aa30 .cfa: sp 0 +
STACK CFI INIT 6aa34 4 .cfa: sp 0 +
STACK CFI INIT 6aa38 8 .cfa: sp 0 +
STACK CFI INIT 6aa40 8 .cfa: sp 0 +
STACK CFI INIT 6aa48 8 .cfa: sp 0 +
STACK CFI INIT 6aa50 8 .cfa: sp 0 +
STACK CFI INIT 6aa58 28 .cfa: sp 0 +
STACK CFI 6aa5c .cfa: sp 32 +
STACK CFI 6aa64 .cfa: x29 32 + x19: .cfa -16 + ^ .ra: .cfa -24 + ^ x29: .cfa -32 + ^
STACK CFI 6aa74 .cfa: sp 32 +
STACK CFI 6aa7c .cfa: sp 0 +
STACK CFI INIT 6aa80 4 .cfa: sp 0 +
STACK CFI INIT 6aa84 8 .cfa: sp 0 +
STACK CFI INIT 6aea8 3c .cfa: sp 0 +
STACK CFI 6aeac .cfa: sp 32 +
STACK CFI 6aeb4 .cfa: x29 32 + x19: .cfa -16 + ^ .ra: .cfa -24 + ^ x29: .cfa -32 + ^
STACK CFI 6aec0 .cfa: sp 32 +
STACK CFI 6aec8 .cfa: sp 0 +
STACK CFI 6aecc .cfa: x29 32 +
STACK CFI 6aed8 .cfa: sp 32 +
STACK CFI 6aee0 .cfa: sp 0 +
STACK CFI INIT 6aee4 4c .cfa: sp 0 +
STACK CFI 6aee8 .cfa: sp 32 +
STACK CFI 6aef0 .cfa: x29 32 + x19: .cfa -8 + ^ x20: .cfa -16 + ^ .ra: .cfa -24 + ^ x29: .cfa -32 + ^
STACK CFI 6af18 .cfa: sp 32 +
STACK CFI 6af20 .cfa: sp 0 +
STACK CFI 6af24 .cfa: sp 32 +
STACK CFI 6af2c .cfa: sp 0 +
STACK CFI INIT 6b150 64 .cfa: sp 0 +
STACK CFI 6b154 .cfa: sp 32 +
STACK CFI 6b15c .cfa: x29 32 + x19: .cfa -16 + ^ .ra: .cfa -24 + ^ x29: .cfa -32 + ^
STACK CFI 6b188 .cfa: sp 32 +
STACK CFI 6b190 .cfa: sp 0 +
STACK CFI 6b194 .cfa: x29 32 +
STACK CFI 6b1a8 .cfa: sp 32 +
STACK CFI 6b1b0 .cfa: sp 0 +
STACK CFI INIT 6b1b4 24 .cfa: sp 0 +
STACK CFI 6b1b8 .cfa: sp 32 +
STACK CFI 6b1c0 .cfa: x29 32 + x19: .cfa -16 + ^ .ra: .cfa -24 + ^ x29: .cfa -32 + ^
STACK CFI 6b1cc .cfa: sp 32 +
STACK CFI 6b1d4 .cfa: sp 0 +
STACK CFI INIT 6b1d8 24 .cfa: sp 0 +
STACK CFI 6b1dc .cfa: sp 32 +
STACK CFI 6b1e4 .cfa: x29 32 + x19: .cfa -16 + ^ .ra: .cfa -24 + ^ x29: .cfa -32 + ^
STACK CFI 6b1f0 .cfa: sp 32 +
STACK CFI 6b1f8 .cfa: sp 0 +
STACK CFI INIT 6b1fc 8 .cfa: sp 0 +
STACK CFI INIT 6b204 24 .cfa: sp 0 +
STACK CFI 6b208 .cfa: sp 32 +
STACK CFI 6b210 .cfa: x29 32 + x19: .cfa -16 + ^ .ra: .cfa -24 + ^ x29: .cfa -32 + ^
STACK CFI 6b21c .cfa: sp 32 +
STACK CFI 6b224 .cfa: sp 0 +
STACK CFI INIT 6b228 28 .cfa: sp 0 +
STACK CFI 6b22c .cfa: sp 32 +
STACK CFI 6b234 .cfa: x29 32 + x19: .cfa -16 + ^ .ra: .cfa -24 + ^ x29: .cfa -32 + ^
STACK CFI 6b244 .cfa: sp 32 +
STACK CFI 6b24c .cfa: sp 0 +
STACK CFI INIT 6b7dc 8 .cfa: sp 0 +
STACK CFI INIT 6b7e4 24 .cfa: sp 0 +
STACK CFI 6b7e8 .cfa: sp 32 +
STACK CFI 6b7f0 .cfa: x29 32 + x19: .cfa -16 + ^ .ra: .cfa -24 + ^ x29: .cfa -32 + ^
STACK CFI 6b7fc .cfa: sp 32 +
STACK CFI 6b804 .cfa: sp 0 +
STACK CFI INIT 6b808 28 .cfa: sp 0 +
STACK CFI 6b80c .cfa: sp 32 +
STACK CFI 6b814 .cfa: x29 32 + x19: .cfa -16 + ^ .ra: .cfa -24 + ^ x29: .cfa -32 + ^
STACK CFI 6b824 .cfa: sp 32 +
STACK CFI 6b82c .cfa: sp 0 +
STACK CFI INIT 6ba94 8 .cfa: sp 0 +
STACK CFI INIT 6ba9c 24 .cfa: sp 0 +
STACK CFI 6baa0 .cfa: sp 32 +
STACK CFI 6baa8 .cfa: x29 32 + x19: .cfa -16 + ^ .ra: .cfa -24 + ^ x29: .cfa -32 + ^
STACK CFI 6bab4 .cfa: sp 32 +
STACK CFI 6babc .cfa: sp 0 +
STACK CFI INIT 6bac0 28 .cfa: sp 0 +
STACK CFI 6bac4 .cfa: sp 32 +
STACK CFI 6bacc .cfa: x29 32 + x19: .cfa -16 + ^ .ra: .cfa -24 + ^ x29: .cfa -32 + ^
STACK CFI 6badc .cfa: sp 32 +
STACK CFI 6bae4 .cfa: sp 0 +
STACK CFI INIT 6bd34 24 .cfa: sp 0 +
STACK CFI 6bd38 .cfa: sp 32 +
STACK CFI 6bd40 .cfa: x29 32 + x19: .cfa -16 + ^ .ra: .cfa -24 + ^ x29: .cfa -32 + ^
STACK CFI 6bd4c .cfa: sp 32 +
STACK CFI 6bd54 .cfa: sp 0 +
STACK CFI INIT 6bd58 8 .cfa: sp 0 +
STACK CFI INIT 6bd60 24 .cfa: sp 0 +
STACK CFI 6bd64 .cfa: sp 32 +
STACK CFI 6bd6c .cfa: x29 32 + x19: .cfa -16 + ^ .ra: .cfa -24 + ^ x29: .cfa -32 + ^
STACK CFI 6bd78 .cfa: sp 32 +
STACK CFI 6bd80 .cfa: sp 0 +
STACK CFI INIT 6bd84 28 .cfa: sp 0 +
STACK CFI 6bd88 .cfa: sp 32 +
STACK CFI 6bd90 .cfa: x29 32 + x19: .cfa -16 + ^ .ra: .cfa -24 + ^ x29: .cfa -32 + ^
STACK CFI 6bda0 .cfa: sp 32 +
STACK CFI 6bda8 .cfa: sp 0 +
STACK CFI INIT 6d9cc 4 .cfa: sp 0 +
STACK CFI INIT 6d9d0 4 .cfa: sp 0 +
STACK CFI INIT 6d9d4 4 .cfa: sp 0 +
STACK CFI INIT 6eb78 4 .cfa: sp 0 +
STACK CFI INIT 6eb7c 14 .cfa: sp 0 +
STACK CFI INIT 34610 434 .cfa: sp 0 +
STACK CFI 34614 .cfa: sp 96 +
STACK CFI 34624 .cfa: x29 48 + x19: .cfa -8 + ^ x20: .cfa -16 + ^ x21: .cfa -24 + ^ x22: .cfa -32 + ^ .ra: .cfa -40 + ^ x29: .cfa -48 + ^
STACK CFI 3494c .cfa: sp 96 +
STACK CFI 3495c .cfa: sp 0 +
STACK CFI 34960 .cfa: x29 48 +
STACK CFI 349d8 .cfa: sp 96 +
STACK CFI 349e8 .cfa: sp 0 +
STACK CFI 349ec .cfa: x29 48 +
STACK CFI INIT 34a44 cf8 .cfa: sp 0 +
STACK CFI 34a48 .cfa: sp 336 +
STACK CFI 34a64 .cfa: x29 80 + x19: .cfa -8 + ^ x20: .cfa -16 + ^ x21: .cfa -24 + ^ x22: .cfa -32 + ^ x23: .cfa -40 + ^ x24: .cfa -48 + ^ x25: .cfa -56 + ^ x28: .cfa -64 + ^ .ra: .cfa -72 + ^ x29: .cfa -80 + ^ v8: .cfa -88 + ^ v9: .cfa -96 + ^
STACK CFI 3563c .cfa: sp 336 +
STACK CFI 35658 .cfa: sp 0 +
STACK CFI 3565c .cfa: x29 80 +
STACK CFI INIT 3573c 188 .cfa: sp 0 +
STACK CFI 35740 .cfa: sp 112 +
STACK CFI 35750 .cfa: x29 48 + x19: .cfa -8 + ^ x20: .cfa -16 + ^ x21: .cfa -24 + ^ x22: .cfa -32 + ^ .ra: .cfa -40 + ^ x29: .cfa -48 + ^
STACK CFI 35838 .cfa: sp 112 +
STACK CFI 35848 .cfa: sp 0 +
STACK CFI 3584c .cfa: x29 48 +
STACK CFI INIT 358c4 b8 .cfa: sp 0 +
STACK CFI 358c8 .cfa: sp 64 +
STACK CFI 358d4 .cfa: x29 32 + x19: .cfa -8 + ^ x20: .cfa -16 + ^ .ra: .cfa -24 + ^ x29: .cfa -32 + ^
STACK CFI 3593c .cfa: sp 64 +
STACK CFI 35948 .cfa: sp 0 +
STACK CFI 3594c .cfa: x29 32 +
STACK CFI INIT 3597c 2394 .cfa: sp 0 +
STACK CFI 35980 .cfa: sp 112 +
STACK CFI 3599c .cfa: x29 96 + x19: .cfa -8 + ^ x20: .cfa -16 + ^ x21: .cfa -24 + ^ x22: .cfa -32 + ^ x23: .cfa -40 + ^ x24: .cfa -48 + ^ x25: .cfa -56 + ^ x26: .cfa -64 + ^ x27: .cfa -72 + ^ x28: .cfa -80 + ^ .ra: .cfa -88 + ^ x29: .cfa -96 + ^ v8: .cfa -112 + ^
STACK CFI 3626c .cfa: sp 112 +
STACK CFI 36288 .cfa: sp 0 +
STACK CFI 3628c .cfa: x29 96 +
STACK CFI INIT 37d10 1008 .cfa: sp 0 +
STACK CFI 37d14 .cfa: sp 288 +
STACK CFI 37d34 .cfa: x29 96 + x19: .cfa -8 + ^ x20: .cfa -16 + ^ x21: .cfa -24 + ^ x22: .cfa -32 + ^ x23: .cfa -40 + ^ x24: .cfa -48 + ^ x25: .cfa -56 + ^ x26: .cfa -64 + ^ x27: .cfa -72 + ^ x28: .cfa -80 + ^ .ra: .cfa -88 + ^ x29: .cfa -96 + ^ v8: .cfa -112 + ^
STACK CFI 38aa0 .cfa: sp 288 +
STACK CFI 38ac0 .cfa: sp 0 +
STACK CFI 38ac4 .cfa: x29 96 +
STACK CFI INIT 38d78 334 .cfa: sp 0 +
STACK CFI 38d7c .cfa: sp 128 +
STACK CFI 38d98 .cfa: x29 96 + x19: .cfa -8 + ^ x20: .cfa -16 + ^ x21: .cfa -24 + ^ x22: .cfa -32 + ^ x23: .cfa -40 + ^ x24: .cfa -48 + ^ x25: .cfa -56 + ^ x26: .cfa -64 + ^ x27: .cfa -72 + ^ x28: .cfa -80 + ^ .ra: .cfa -88 + ^ x29: .cfa -96 + ^
STACK CFI 38fec .cfa: sp 128 +
STACK CFI 39008 .cfa: sp 0 +
STACK CFI 3900c .cfa: x29 96 +
STACK CFI INIT 392f4 20 .cfa: sp 0 +
STACK CFI 392f8 .cfa: sp 16 +
STACK CFI 392fc .cfa: x29 16 + .ra: .cfa -8 + ^ x29: .cfa -16 + ^
STACK CFI 39308 .cfa: sp 16 +
STACK CFI 3930c .cfa: sp 0 +
STACK CFI 39310 .cfa: x29 16 +
STACK CFI INIT 39398 b8 .cfa: sp 0 +
STACK CFI 3939c .cfa: sp 32 +
STACK CFI 393a4 .cfa: x29 32 + x19: .cfa -16 + ^ .ra: .cfa -24 + ^ x29: .cfa -32 + ^
STACK CFI 39440 .cfa: sp 32 +
STACK CFI 39448 .cfa: sp 0 +
STACK CFI 3944c .cfa: x29 32 +
STACK CFI INIT 39450 c0 .cfa: sp 0 +
STACK CFI 39454 .cfa: sp 32 +
STACK CFI 3945c .cfa: x29 32 + x19: .cfa -16 + ^ .ra: .cfa -24 + ^ x29: .cfa -32 + ^
STACK CFI 39500 .cfa: sp 32 +
STACK CFI 39508 .cfa: sp 0 +
STACK CFI 3950c .cfa: x29 32 +
STACK CFI INIT 39570 148 .cfa: sp 0 +
STACK CFI 39574 .cfa: sp 96 +
STACK CFI 39584 .cfa: x29 48 + x19: .cfa -8 + ^ x20: .cfa -16 + ^ x21: .cfa -32 + ^ .ra: .cfa -40 + ^ x29: .cfa -48 + ^
STACK CFI 3966c .cfa: sp 96 +
STACK CFI 3967c .cfa: sp 0 +
STACK CFI 39680 .cfa: x29 48 +
STACK CFI INIT 396b8 bc .cfa: sp 0 +
STACK CFI 396bc .cfa: sp 32 +
STACK CFI 396c4 .cfa: x29 32 + x19: .cfa -8 + ^ x20: .cfa -16 + ^ .ra: .cfa -24 + ^ x29: .cfa -32 + ^
STACK CFI 39764 .cfa: sp 32 +
STACK CFI 3976c .cfa: sp 0 +
STACK CFI 39770 .cfa: x29 32 +
STACK CFI INIT 39774 c4 .cfa: sp 0 +
STACK CFI 39778 .cfa: sp 32 +
STACK CFI 39780 .cfa: x29 32 + x19: .cfa -8 + ^ x20: .cfa -16 + ^ .ra: .cfa -24 + ^ x29: .cfa -32 + ^
STACK CFI 39828 .cfa: sp 32 +
STACK CFI 39830 .cfa: sp 0 +
STACK CFI 39834 .cfa: x29 32 +
STACK CFI INIT 39880 480 .cfa: sp 0 +
STACK CFI 39884 .cfa: sp 224 +
STACK CFI 398a0 .cfa: x29 96 + x19: .cfa -8 + ^ x20: .cfa -16 + ^ x21: .cfa -24 + ^ x22: .cfa -32 + ^ x23: .cfa -40 + ^ x24: .cfa -48 + ^ x25: .cfa -56 + ^ x26: .cfa -64 + ^ x27: .cfa -80 + ^ .ra: .cfa -88 + ^ x29: .cfa -96 + ^
STACK CFI 39b0c .cfa: sp 224 +
STACK CFI 39b28 .cfa: sp 0 +
STACK CFI 39b2c .cfa: x29 96 +
STACK CFI 39bf8 .cfa: sp 224 +
STACK CFI 39c14 .cfa: sp 0 +
STACK CFI 39c18 .cfa: x29 96 +
STACK CFI INIT 39d30 50 .cfa: sp 0 +
STACK CFI 39d34 .cfa: sp 32 +
STACK CFI 39d3c .cfa: x29 32 + x19: .cfa -8 + ^ x20: .cfa -16 + ^ .ra: .cfa -24 + ^ x29: .cfa -32 + ^
STACK CFI INIT 39e6c 50 .cfa: sp 0 +
STACK CFI 39e70 .cfa: sp 32 +
STACK CFI 39e78 .cfa: x29 32 + x19: .cfa -8 + ^ x20: .cfa -16 + ^ .ra: .cfa -24 + ^ x29: .cfa -32 + ^
STACK CFI INIT 39f84 6c .cfa: sp 0 +
STACK CFI 39f88 .cfa: sp 32 +
STACK CFI 39f90 .cfa: x29 32 + x19: .cfa -16 + ^ .ra: .cfa -24 + ^ x29: .cfa -32 + ^
STACK CFI 39fe0 .cfa: sp 32 +
STACK CFI 39fe8 .cfa: sp 0 +
STACK CFI 39fec .cfa: x29 32 +
STACK CFI INIT 39ff4 6c .cfa: sp 0 +
STACK CFI 39ff8 .cfa: sp 32 +
STACK CFI 3a000 .cfa: x29 32 + x19: .cfa -16 + ^ .ra: .cfa -24 + ^ x29: .cfa -32 + ^
STACK CFI 3a050 .cfa: sp 32 +
STACK CFI 3a058 .cfa: sp 0 +
STACK CFI 3a05c .cfa: x29 32 +
STACK CFI INIT 3a064 360 .cfa: sp 0 +
STACK CFI 3a068 .cfa: sp 208 +
STACK CFI 3a07c .cfa: x29 64 + x19: .cfa -8 + ^ x20: .cfa -16 + ^ x21: .cfa -24 + ^ x22: .cfa -32 + ^ x23: .cfa -40 + ^ x24: .cfa -48 + ^ .ra: .cfa -56 + ^ x29: .cfa -64 + ^
STACK CFI 3a2a0 .cfa: sp 208 +
STACK CFI 3a2b4 .cfa: sp 0 +
STACK CFI 3a2b8 .cfa: x29 64 +
STACK CFI INIT 3a414 74 .cfa: sp 0 +
STACK CFI 3a418 .cfa: sp 48 +
STACK CFI 3a424 .cfa: x29 32 + x19: .cfa -8 + ^ x20: .cfa -16 + ^ .ra: .cfa -24 + ^ x29: .cfa -32 + ^
STACK CFI 3a470 .cfa: sp 48 +
STACK CFI 3a47c .cfa: sp 0 +
STACK CFI 3a480 .cfa: x29 32 +
STACK CFI INIT 3a508 154 .cfa: sp 0 +
STACK CFI 3a50c .cfa: sp 384 +
STACK CFI 3a520 .cfa: x29 64 + x19: .cfa -8 + ^ x20: .cfa -16 + ^ x21: .cfa -24 + ^ x22: .cfa -32 + ^ x23: .cfa -40 + ^ x28: .cfa -48 + ^ .ra: .cfa -56 + ^ x29: .cfa -64 + ^
STACK CFI 3a604 .cfa: sp 384 +
STACK CFI 3a618 .cfa: sp 0 +
STACK CFI 3a61c .cfa: x29 64 +
STACK CFI INIT 3a690 12c .cfa: sp 0 +
STACK CFI 3a694 .cfa: sp 80 +
STACK CFI 3a6a8 .cfa: x29 80 + x19: .cfa -8 + ^ x20: .cfa -16 + ^ x21: .cfa -24 + ^ x22: .cfa -32 + ^ x23: .cfa -40 + ^ x24: .cfa -48 + ^ x25: .cfa -56 + ^ x26: .cfa -64 + ^ .ra: .cfa -72 + ^ x29: .cfa -80 + ^
STACK CFI 3a770 .cfa: sp 80 +
STACK CFI 3a784 .cfa: sp 0 +
STACK CFI 3a788 .cfa: x29 80 +
STACK CFI INIT 3a860 1a4 .cfa: sp 0 +
STACK CFI 3a864 .cfa: sp 112 +
STACK CFI 3a87c .cfa: x29 80 + x19: .cfa -8 + ^ x20: .cfa -16 + ^ x21: .cfa -24 + ^ x22: .cfa -32 + ^ x23: .cfa -40 + ^ x24: .cfa -48 + ^ x25: .cfa -56 + ^ x26: .cfa -64 + ^ .ra: .cfa -72 + ^ x29: .cfa -80 + ^
STACK CFI 3a96c .cfa: sp 112 +
STACK CFI 3a984 .cfa: sp 0 +
STACK CFI 3a988 .cfa: x29 80 +
STACK CFI INIT 3aa04 1dc .cfa: sp 0 +
STACK CFI 3aa08 .cfa: sp 128 +
STACK CFI 3aa24 .cfa: x29 96 + x19: .cfa -8 + ^ x20: .cfa -16 + ^ x21: .cfa -24 + ^ x22: .cfa -32 + ^ x23: .cfa -40 + ^ x24: .cfa -48 + ^ x25: .cfa -56 + ^ x26: .cfa -64 + ^ x27: .cfa -80 + ^ .ra: .cfa -88 + ^ x29: .cfa -96 + ^
STACK CFI 3ab90 .cfa: sp 128 +
STACK CFI 3abac .cfa: sp 0 +
STACK CFI 3abb0 .cfa: x29 96 +
STACK CFI INIT 3abe0 178 .cfa: sp 0 +
STACK CFI 3abe4 .cfa: sp 80 +
STACK CFI 3abf8 .cfa: x29 80 + x19: .cfa -8 + ^ x20: .cfa -16 + ^ x21: .cfa -24 + ^ x22: .cfa -32 + ^ x23: .cfa -40 + ^ x24: .cfa -48 + ^ x25: .cfa -64 + ^ .ra: .cfa -72 + ^ x29: .cfa -80 + ^
STACK CFI 3ad24 .cfa: sp 80 +
STACK CFI 3ad38 .cfa: sp 0 +
STACK CFI 3ad3c .cfa: x29 80 +
STACK CFI INIT 3aea0 228 .cfa: sp 0 +
STACK CFI 3aea4 .cfa: sp 128 +
STACK CFI 3aebc .cfa: x29 80 + x19: .cfa -8 + ^ x20: .cfa -16 + ^ x21: .cfa -24 + ^ x22: .cfa -32 + ^ x23: .cfa -40 + ^ x24: .cfa -48 + ^ x25: .cfa -64 + ^ .ra: .cfa -72 + ^ x29: .cfa -80 + ^
STACK CFI 3b058 .cfa: sp 128 +
STACK CFI 3b070 .cfa: sp 0 +
STACK CFI 3b074 .cfa: x29 80 +
STACK CFI INIT 3b824 194 .cfa: sp 0 +
STACK CFI 3b828 .cfa: sp 80 +
STACK CFI 3b838 .cfa: x29 48 + x19: .cfa -8 + ^ x20: .cfa -16 + ^ x21: .cfa -24 + ^ x22: .cfa -32 + ^ .ra: .cfa -40 + ^ x29: .cfa -48 + ^
STACK CFI 3b974 .cfa: sp 80 +
STACK CFI 3b984 .cfa: sp 0 +
STACK CFI 3b988 .cfa: x29 48 +
STACK CFI INIT 3bde8 1a8 .cfa: sp 0 +
STACK CFI 3bdec .cfa: sp 112 +
STACK CFI 3bdfc .cfa: x29 48 + x19: .cfa -8 + ^ x20: .cfa -16 + ^ x21: .cfa -32 + ^ .ra: .cfa -40 + ^ x29: .cfa -48 + ^
STACK CFI 3bf24 .cfa: sp 112 +
STACK CFI 3bf34 .cfa: sp 0 +
STACK CFI 3bf38 .cfa: x29 48 +
STACK CFI INIT 3c010 184 .cfa: sp 0 +
STACK CFI 3c014 .cfa: sp 112 +
STACK CFI 3c024 .cfa: x29 48 + x19: .cfa -8 + ^ x20: .cfa -16 + ^ x21: .cfa -32 + ^ .ra: .cfa -40 + ^ x29: .cfa -48 + ^
STACK CFI 3c128 .cfa: sp 112 +
STACK CFI 3c138 .cfa: sp 0 +
STACK CFI 3c13c .cfa: x29 48 +
STACK CFI INIT 3c1bc 6c4 .cfa: sp 0 +
STACK CFI 3c1c0 .cfa: sp 112 +
STACK CFI 3c1dc .cfa: x29 96 + x19: .cfa -8 + ^ x20: .cfa -16 + ^ x21: .cfa -24 + ^ x22: .cfa -32 + ^ x23: .cfa -40 + ^ x24: .cfa -48 + ^ x25: .cfa -56 + ^ x26: .cfa -64 + ^ x27: .cfa -72 + ^ x28: .cfa -80 + ^ .ra: .cfa -88 + ^ x29: .cfa -96 + ^
STACK CFI 3c320 .cfa: sp 112 +
STACK CFI 3c33c .cfa: sp 0 +
STACK CFI 3c340 .cfa: x29 96 +
STACK CFI 3c34c .cfa: sp 112 +
STACK CFI 3c368 .cfa: sp 0 +
STACK CFI 3c36c .cfa: x29 96 +
STACK CFI 3c808 .cfa: sp 112 +
STACK CFI 3c824 .cfa: sp 0 +
STACK CFI 3c828 .cfa: x29 96 +
STACK CFI INIT 3c880 4c .cfa: sp 0 +
STACK CFI 3c884 .cfa: sp 32 +
STACK CFI 3c88c .cfa: x29 32 + x19: .cfa -8 + ^ x20: .cfa -16 + ^ .ra: .cfa -24 + ^ x29: .cfa -32 + ^
STACK CFI INIT 3ce50 4c .cfa: sp 0 +
STACK CFI 3ce54 .cfa: sp 32 +
STACK CFI 3ce5c .cfa: x29 32 + x19: .cfa -8 + ^ x20: .cfa -16 + ^ .ra: .cfa -24 + ^ x29: .cfa -32 + ^
STACK CFI INIT 3cfb4 364 .cfa: sp 0 +
STACK CFI 3cfb8 .cfa: sp 144 +
STACK CFI 3cfcc .cfa: x29 64 + x19: .cfa -8 + ^ x20: .cfa -16 + ^ x21: .cfa -24 + ^ x22: .cfa -32 + ^ x23: .cfa -48 + ^ .ra: .cfa -56 + ^ x29: .cfa -64 + ^
STACK CFI 3d160 .cfa: sp 144 +
STACK CFI 3d174 .cfa: sp 0 +
STACK CFI 3d178 .cfa: x29 64 +
STACK CFI INIT 3d318 644 .cfa: sp 0 +
STACK CFI 3d31c .cfa: sp 64 +
STACK CFI 3d32c .cfa: x29 64 + x19: .cfa -8 + ^ x20: .cfa -16 + ^ x21: .cfa -24 + ^ x22: .cfa -32 + ^ x23: .cfa -48 + ^ .ra: .cfa -56 + ^ x29: .cfa -64 + ^
STACK CFI 3d398 .cfa: sp 64 +
STACK CFI 3d3a8 .cfa: sp 0 +
STACK CFI 3d3ac .cfa: x29 64 +
STACK CFI 3d3fc .cfa: sp 64 +
STACK CFI 3d40c .cfa: sp 0 +
STACK CFI 3d410 .cfa: x29 64 +
STACK CFI 3d48c .cfa: sp 64 +
STACK CFI 3d49c .cfa: sp 0 +
STACK CFI 3d4a0 .cfa: x29 64 +
STACK CFI 3d590 .cfa: sp 64 +
STACK CFI 3d5a0 .cfa: sp 0 +
STACK CFI 3d5a4 .cfa: x29 64 +
STACK CFI 3d634 .cfa: sp 64 +
STACK CFI 3d644 .cfa: sp 0 +
STACK CFI 3d648 .cfa: x29 64 +
STACK CFI 3d660 .cfa: sp 64 +
STACK CFI 3d670 .cfa: sp 0 +
STACK CFI 3d674 .cfa: x29 64 +
STACK CFI 3d7fc .cfa: sp 64 +
STACK CFI 3d80c .cfa: sp 0 +
STACK CFI 3d810 .cfa: x29 64 +
STACK CFI 3d824 .cfa: sp 64 +
STACK CFI 3d834 .cfa: sp 0 +
STACK CFI 3d838 .cfa: x29 64 +
STACK CFI 3d8c0 .cfa: sp 64 +
STACK CFI 3d8d0 .cfa: sp 0 +
STACK CFI 3d8d4 .cfa: x29 64 +
STACK CFI INIT 3dd50 6c .cfa: sp 0 +
STACK CFI 3dd54 .cfa: sp 32 +
STACK CFI 3dd5c .cfa: x29 32 + x19: .cfa -8 + ^ x20: .cfa -16 + ^ .ra: .cfa -24 + ^ x29: .cfa -32 + ^
STACK CFI 3dd9c .cfa: sp 32 +
STACK CFI 3dda4 .cfa: sp 0 +
STACK CFI 3dda8 .cfa: x29 32 +
STACK CFI INIT 3de70 4c .cfa: sp 0 +
STACK CFI 3de74 .cfa: sp 32 +
STACK CFI 3de7c .cfa: x29 32 + x19: .cfa -8 + ^ x20: .cfa -16 + ^ .ra: .cfa -24 + ^ x29: .cfa -32 + ^
STACK CFI INIT 3e2e4 1d4 .cfa: sp 0 +
STACK CFI 3e2e8 .cfa: sp 176 +
STACK CFI 3e2f8 .cfa: x29 48 + x19: .cfa -8 + ^ x20: .cfa -16 + ^ x21: .cfa -24 + ^ x22: .cfa -32 + ^ .ra: .cfa -40 + ^ x29: .cfa -48 + ^
STACK CFI 3e450 .cfa: sp 176 +
STACK CFI 3e460 .cfa: sp 0 +
STACK CFI 3e464 .cfa: x29 48 +
STACK CFI 3e474 .cfa: sp 176 +
STACK CFI 3e484 .cfa: sp 0 +
STACK CFI 3e488 .cfa: x29 48 +
STACK CFI INIT 3e4b8 44c .cfa: sp 0 +
STACK CFI 3e4bc .cfa: sp 256 +
STACK CFI 3e4d8 .cfa: x29 96 + x19: .cfa -8 + ^ x20: .cfa -16 + ^ x21: .cfa -24 + ^ x22: .cfa -32 + ^ x23: .cfa -40 + ^ x24: .cfa -48 + ^ x25: .cfa -56 + ^ x26: .cfa -64 + ^ x27: .cfa -72 + ^ x28: .cfa -80 + ^ .ra: .cfa -88 + ^ x29: .cfa -96 + ^
STACK CFI 3e808 .cfa: sp 256 +
STACK CFI 3e824 .cfa: sp 0 +
STACK CFI 3e828 .cfa: x29 96 +
STACK CFI INIT 3eb24 4c .cfa: sp 0 +
STACK CFI 3eb28 .cfa: sp 32 +
STACK CFI 3eb30 .cfa: x29 32 + x19: .cfa -8 + ^ x20: .cfa -16 + ^ .ra: .cfa -24 + ^ x29: .cfa -32 + ^
STACK CFI INIT 3eb70 170 .cfa: sp 0 +
STACK CFI 3eb74 .cfa: sp 80 +
STACK CFI 3eb88 .cfa: x29 80 + x19: .cfa -8 + ^ x20: .cfa -16 + ^ x21: .cfa -24 + ^ x22: .cfa -32 + ^ x23: .cfa -40 + ^ x24: .cfa -48 + ^ x25: .cfa -64 + ^ .ra: .cfa -72 + ^ x29: .cfa -80 + ^
STACK CFI 3ec7c .cfa: sp 80 +
STACK CFI 3ec90 .cfa: sp 0 +
STACK CFI 3ec94 .cfa: x29 80 +
STACK CFI INIT 3ece0 4c .cfa: sp 0 +
STACK CFI 3ece4 .cfa: sp 32 +
STACK CFI 3ecec .cfa: x29 32 + x19: .cfa -8 + ^ x20: .cfa -16 + ^ .ra: .cfa -24 + ^ x29: .cfa -32 + ^
STACK CFI INIT 3f29c 10f4 .cfa: sp 0 +
STACK CFI 3f2a0 .cfa: sp 432 +
STACK CFI 3f2bc .cfa: x29 96 + x19: .cfa -8 + ^ x20: .cfa -16 + ^ x21: .cfa -24 + ^ x22: .cfa -32 + ^ x23: .cfa -40 + ^ x24: .cfa -48 + ^ x25: .cfa -56 + ^ x26: .cfa -64 + ^ x27: .cfa -72 + ^ x28: .cfa -80 + ^ .ra: .cfa -88 + ^ x29: .cfa -96 + ^
STACK CFI 400a4 .cfa: sp 432 +
STACK CFI 400c0 .cfa: sp 0 +
STACK CFI 400c4 .cfa: x29 96 +
STACK CFI INIT 40390 4c .cfa: sp 0 +
STACK CFI 40394 .cfa: sp 32 +
STACK CFI 4039c .cfa: x29 32 + x19: .cfa -8 + ^ x20: .cfa -16 + ^ .ra: .cfa -24 + ^ x29: .cfa -32 + ^
STACK CFI INIT 40424 4c .cfa: sp 0 +
STACK CFI 40428 .cfa: sp 32 +
STACK CFI 40430 .cfa: x29 32 + x19: .cfa -8 + ^ x20: .cfa -16 + ^ .ra: .cfa -24 + ^ x29: .cfa -32 + ^
STACK CFI INIT 4097c 140 .cfa: sp 0 +
STACK CFI 40980 .cfa: sp 48 +
STACK CFI 4098c .cfa: x29 48 + x19: .cfa -8 + ^ x20: .cfa -16 + ^ x21: .cfa -32 + ^ .ra: .cfa -40 + ^ x29: .cfa -48 + ^
STACK CFI 40a6c .cfa: sp 48 +
STACK CFI 40a78 .cfa: sp 0 +
STACK CFI 40a7c .cfa: x29 48 +
STACK CFI INIT 40abc 4c .cfa: sp 0 +
STACK CFI 40ac0 .cfa: sp 32 +
STACK CFI 40ac8 .cfa: x29 32 + x19: .cfa -8 + ^ x20: .cfa -16 + ^ .ra: .cfa -24 + ^ x29: .cfa -32 + ^
STACK CFI INIT 41748 1dc .cfa: sp 0 +
STACK CFI 4174c .cfa: sp 128 +
STACK CFI 41764 .cfa: x29 80 + x19: .cfa -8 + ^ x20: .cfa -16 + ^ x21: .cfa -24 + ^ x22: .cfa -32 + ^ x23: .cfa -40 + ^ x24: .cfa -48 + ^ x25: .cfa -64 + ^ .ra: .cfa -72 + ^ x29: .cfa -80 + ^
STACK CFI 41858 .cfa: sp 128 +
STACK CFI 41870 .cfa: sp 0 +
STACK CFI 41874 .cfa: x29 80 +
STACK CFI INIT 41b38 c6c .cfa: sp 0 +
STACK CFI 41b3c .cfa: sp 256 +
STACK CFI 41b58 .cfa: x29 96 + x19: .cfa -8 + ^ x20: .cfa -16 + ^ x21: .cfa -24 + ^ x22: .cfa -32 + ^ x23: .cfa -40 + ^ x24: .cfa -48 + ^ x25: .cfa -56 + ^ x26: .cfa -64 + ^ x27: .cfa -72 + ^ x28: .cfa -80 + ^ .ra: .cfa -88 + ^ x29: .cfa -96 + ^
STACK CFI 426e0 .cfa: sp 256 +
STACK CFI 426fc .cfa: sp 0 +
STACK CFI 42700 .cfa: x29 96 +
STACK CFI INIT 429a4 1c4 .cfa: sp 0 +
STACK CFI 429a8 .cfa: sp 112 +
STACK CFI 429c0 .cfa: x29 80 + x19: .cfa -8 + ^ x20: .cfa -16 + ^ x21: .cfa -24 + ^ x22: .cfa -32 + ^ x23: .cfa -40 + ^ x24: .cfa -48 + ^ x25: .cfa -56 + ^ x26: .cfa -64 + ^ .ra: .cfa -72 + ^ x29: .cfa -80 + ^
STACK CFI 42aec .cfa: sp 112 +
STACK CFI 42b04 .cfa: sp 0 +
STACK CFI 42b08 .cfa: x29 80 +
STACK CFI INIT 42b7c 4c .cfa: sp 0 +
STACK CFI 42b80 .cfa: sp 32 +
STACK CFI 42b88 .cfa: x29 32 + x19: .cfa -8 + ^ x20: .cfa -16 + ^ .ra: .cfa -24 + ^ x29: .cfa -32 + ^
STACK CFI INIT 43a74 4c .cfa: sp 0 +
STACK CFI 43a78 .cfa: sp 32 +
STACK CFI 43a80 .cfa: x29 32 + x19: .cfa -8 + ^ x20: .cfa -16 + ^ .ra: .cfa -24 + ^ x29: .cfa -32 + ^
STACK CFI INIT 43ac0 2b4 .cfa: sp 0 +
STACK CFI 43ac4 .cfa: sp 144 +
STACK CFI 43adc .cfa: x29 80 + x19: .cfa -8 + ^ x20: .cfa -16 + ^ x21: .cfa -24 + ^ x22: .cfa -32 + ^ x23: .cfa -40 + ^ x24: .cfa -48 + ^ x25: .cfa -56 + ^ x26: .cfa -64 + ^ .ra: .cfa -72 + ^ x29: .cfa -80 + ^
STACK CFI 43ce0 .cfa: sp 144 +
STACK CFI 43cf8 .cfa: sp 0 +
STACK CFI 43cfc .cfa: x29 80 +
STACK CFI INIT 43d74 4c .cfa: sp 0 +
STACK CFI 43d78 .cfa: sp 32 +
STACK CFI 43d80 .cfa: x29 32 + x19: .cfa -8 + ^ x20: .cfa -16 + ^ .ra: .cfa -24 + ^ x29: .cfa -32 + ^
STACK CFI INIT 43dc0 1b4 .cfa: sp 0 +
STACK CFI 43dc4 .cfa: sp 112 +
STACK CFI 43ddc .cfa: x29 80 + x19: .cfa -8 + ^ x20: .cfa -16 + ^ x21: .cfa -24 + ^ x22: .cfa -32 + ^ x23: .cfa -40 + ^ x24: .cfa -48 + ^ x25: .cfa -64 + ^ .ra: .cfa -72 + ^ x29: .cfa -80 + ^
STACK CFI 43f10 .cfa: sp 112 +
STACK CFI 43f28 .cfa: sp 0 +
STACK CFI 43f2c .cfa: x29 80 +
STACK CFI INIT 43f74 4c .cfa: sp 0 +
STACK CFI 43f78 .cfa: sp 32 +
STACK CFI 43f80 .cfa: x29 32 + x19: .cfa -8 + ^ x20: .cfa -16 + ^ .ra: .cfa -24 + ^ x29: .cfa -32 + ^
STACK CFI INIT 44288 140 .cfa: sp 0 +
STACK CFI 4428c .cfa: sp 96 +
STACK CFI 442a4 .cfa: x29 96 + x19: .cfa -8 + ^ x20: .cfa -16 + ^ x21: .cfa -24 + ^ x22: .cfa -32 + ^ x23: .cfa -40 + ^ x24: .cfa -48 + ^ x25: .cfa -56 + ^ x26: .cfa -64 + ^ x27: .cfa -72 + ^ x28: .cfa -80 + ^ .ra: .cfa -88 + ^ x29: .cfa -96 + ^
STACK CFI 44360 .cfa: sp 96 +
STACK CFI 44378 .cfa: sp 0 +
STACK CFI 4437c .cfa: x29 96 +
STACK CFI INIT 443c8 4c .cfa: sp 0 +
STACK CFI 443cc .cfa: sp 32 +
STACK CFI 443d4 .cfa: x29 32 + x19: .cfa -8 + ^ x20: .cfa -16 + ^ .ra: .cfa -24 + ^ x29: .cfa -32 + ^
STACK CFI INIT 44414 4c .cfa: sp 0 +
STACK CFI 44418 .cfa: sp 32 +
STACK CFI 44420 .cfa: x29 32 + x19: .cfa -8 + ^ x20: .cfa -16 + ^ .ra: .cfa -24 + ^ x29: .cfa -32 + ^
STACK CFI INIT 448f0 4c .cfa: sp 0 +
STACK CFI 448f4 .cfa: sp 32 +
STACK CFI 448fc .cfa: x29 32 + x19: .cfa -8 + ^ x20: .cfa -16 + ^ .ra: .cfa -24 + ^ x29: .cfa -32 + ^
STACK CFI INIT 454d0 5f0 .cfa: sp 0 +
STACK CFI 454d4 .cfa: sp 112 +
STACK CFI 454f0 .cfa: x29 96 + x19: .cfa -8 + ^ x20: .cfa -16 + ^ x21: .cfa -24 + ^ x22: .cfa -32 + ^ x23: .cfa -40 + ^ x24: .cfa -48 + ^ x25: .cfa -56 + ^ x26: .cfa -64 + ^ x27: .cfa -80 + ^ .ra: .cfa -88 + ^ x29: .cfa -96 + ^
STACK CFI 45794 .cfa: sp 112 +
STACK CFI 457b0 .cfa: sp 0 +
STACK CFI 457b4 .cfa: x29 96 +
STACK CFI 459a8 .cfa: sp 112 +
STACK CFI 459c4 .cfa: sp 0 +
STACK CFI 459c8 .cfa: x29 96 +
STACK CFI INIT 468f0 368 .cfa: sp 0 +
STACK CFI 468f4 .cfa: sp 96 +
STACK CFI 46904 .cfa: x29 48 + x19: .cfa -8 + ^ x20: .cfa -16 + ^ x21: .cfa -24 + ^ x22: .cfa -32 + ^ .ra: .cfa -40 + ^ x29: .cfa -48 + ^
STACK CFI 46c0c .cfa: sp 96 +
STACK CFI 46c1c .cfa: sp 0 +
STACK CFI 46c20 .cfa: x29 48 +
STACK CFI INIT 46c58 1264 .cfa: sp 0 +
STACK CFI 46c5c .cfa: sp 128 +
STACK CFI 46c7c .cfa: x29 96 + x19: .cfa -8 + ^ x20: .cfa -16 + ^ x21: .cfa -24 + ^ x22: .cfa -32 + ^ x23: .cfa -40 + ^ x24: .cfa -48 + ^ x25: .cfa -56 + ^ x26: .cfa -64 + ^ x27: .cfa -72 + ^ x28: .cfa -80 + ^ .ra: .cfa -88 + ^ x29: .cfa -96 + ^ v8: .cfa -104 + ^ v9: .cfa -112 + ^ v10: .cfa -128 + ^
STACK CFI 477a0 .cfa: sp 128 +
STACK CFI 477c0 .cfa: sp 0 +
STACK CFI 477c4 .cfa: x29 96 +
STACK CFI INIT 47ebc 998 .cfa: sp 0 +
STACK CFI 47ec0 .cfa: sp 448 +
STACK CFI 47ee0 .cfa: x29 96 + x19: .cfa -8 + ^ x20: .cfa -16 + ^ x21: .cfa -24 + ^ x22: .cfa -32 + ^ x23: .cfa -40 + ^ x24: .cfa -48 + ^ x25: .cfa -56 + ^ x26: .cfa -64 + ^ x27: .cfa -72 + ^ x28: .cfa -80 + ^ .ra: .cfa -88 + ^ x29: .cfa -96 + ^ v8: .cfa -104 + ^ v9: .cfa -112 + ^
STACK CFI 48580 .cfa: sp 448 +
STACK CFI 485a0 .cfa: sp 0 +
STACK CFI 485a4 .cfa: x29 96 +
STACK CFI INIT 48854 158c .cfa: sp 0 +
STACK CFI 48858 .cfa: sp 112 +
STACK CFI 48874 .cfa: x29 96 + x19: .cfa -8 + ^ x20: .cfa -16 + ^ x21: .cfa -24 + ^ x22: .cfa -32 + ^ x23: .cfa -40 + ^ x24: .cfa -48 + ^ x25: .cfa -56 + ^ x26: .cfa -64 + ^ x27: .cfa -72 + ^ x28: .cfa -80 + ^ .ra: .cfa -88 + ^ x29: .cfa -96 + ^ v8: .cfa -112 + ^
STACK CFI 499d8 .cfa: sp 112 +
STACK CFI 499f4 .cfa: sp 0 +
STACK CFI 499f8 .cfa: x29 96 +
STACK CFI INIT 49de0 8cc .cfa: sp 0 +
STACK CFI 49de4 .cfa: sp 272 +
STACK CFI 49e04 .cfa: x29 96 + x19: .cfa -8 + ^ x20: .cfa -16 + ^ x21: .cfa -24 + ^ x22: .cfa -32 + ^ x23: .cfa -40 + ^ x24: .cfa -48 + ^ x25: .cfa -56 + ^ x26: .cfa -64 + ^ x27: .cfa -72 + ^ x28: .cfa -80 + ^ .ra: .cfa -88 + ^ x29: .cfa -96 + ^ v8: .cfa -112 + ^
STACK CFI 4a584 .cfa: sp 272 +
STACK CFI 4a5a4 .cfa: sp 0 +
STACK CFI 4a5a8 .cfa: x29 96 +
STACK CFI INIT 4a8d0 24c .cfa: sp 0 +
STACK CFI 4a8d4 .cfa: sp 80 +
STACK CFI 4a8e4 .cfa: x29 32 + x19: .cfa -8 + ^ x20: .cfa -16 + ^ .ra: .cfa -24 + ^ x29: .cfa -32 + ^ v8: .cfa -48 + ^
STACK CFI 4aad0 .cfa: sp 80 +
STACK CFI 4aae0 .cfa: sp 0 +
STACK CFI 4aae4 .cfa: x29 32 +
STACK CFI INIT 4ab1c 17c .cfa: sp 0 +
STACK CFI 4ab20 .cfa: sp 80 +
STACK CFI 4ab30 .cfa: x29 32 + x19: .cfa -8 + ^ x20: .cfa -16 + ^ .ra: .cfa -24 + ^ x29: .cfa -32 + ^ v8: .cfa -48 + ^
STACK CFI 4ac4c .cfa: sp 80 +
STACK CFI 4ac5c .cfa: sp 0 +
STACK CFI 4ac60 .cfa: x29 32 +
STACK CFI INIT 4ac98 710 .cfa: sp 0 +
STACK CFI 4ac9c .cfa: sp 352 +
STACK CFI 4acb0 .cfa: x29 64 + x19: .cfa -8 + ^ x20: .cfa -16 + ^ x21: .cfa -24 + ^ x22: .cfa -32 + ^ x28: .cfa -48 + ^ .ra: .cfa -56 + ^ x29: .cfa -64 + ^
STACK CFI 4b250 .cfa: sp 352 +
STACK CFI 4b264 .cfa: sp 0 +
STACK CFI 4b268 .cfa: x29 64 +
STACK CFI INIT 4b550 3d4 .cfa: sp 0 +
STACK CFI 4b554 .cfa: sp 96 +
STACK CFI 4b56c .cfa: x29 56 + x19: .cfa -8 + ^ x20: .cfa -16 + ^ x21: .cfa -24 + ^ x22: .cfa -32 + ^ x23: .cfa -40 + ^ .ra: .cfa -48 + ^ x29: .cfa -56 + ^ v8: .cfa -64 + ^
STACK CFI 4b8c0 .cfa: sp 96 +
STACK CFI 4b8d8 .cfa: sp 0 +
STACK CFI 4b8dc .cfa: x29 56 +
STACK CFI INIT 4bbb8 224 .cfa: sp 0 +
STACK CFI 4bbbc .cfa: sp 128 +
STACK CFI 4bbd0 .cfa: x29 64 + x19: .cfa -8 + ^ x20: .cfa -16 + ^ x21: .cfa -24 + ^ x22: .cfa -32 + ^ x23: .cfa -40 + ^ x24: .cfa -48 + ^ .ra: .cfa -56 + ^ x29: .cfa -64 + ^
STACK CFI 4bd44 .cfa: sp 128 +
STACK CFI 4bd58 .cfa: sp 0 +
STACK CFI 4bd5c .cfa: x29 64 +
STACK CFI INIT 4bddc 1c .cfa: sp 0 +
STACK CFI 4bde0 .cfa: sp 16 +
STACK CFI 4bde4 .cfa: x29 16 + .ra: .cfa -8 + ^ x29: .cfa -16 + ^
STACK CFI 4bdec .cfa: sp 16 +
STACK CFI 4bdf0 .cfa: sp 0 +
STACK CFI 4bdf4 .cfa: x29 16 +
STACK CFI INIT 4bdf8 d7c .cfa: sp 0 +
STACK CFI 4bdfc .cfa: sp 384 +
STACK CFI 4be20 .cfa: x29 96 + x19: .cfa -8 + ^ x20: .cfa -16 + ^ x21: .cfa -24 + ^ x22: .cfa -32 + ^ x23: .cfa -40 + ^ x24: .cfa -48 + ^ x25: .cfa -56 + ^ x26: .cfa -64 + ^ x27: .cfa -72 + ^ x28: .cfa -80 + ^ .ra: .cfa -88 + ^ x29: .cfa -96 + ^ v8: .cfa -104 + ^ v9: .cfa -112 + ^ v10: .cfa -128 + ^
STACK CFI 4c9f8 .cfa: sp 384 +
STACK CFI 4ca1c .cfa: sp 0 +
STACK CFI 4ca20 .cfa: x29 96 +
STACK CFI INIT 4ce00 240 .cfa: sp 0 +
STACK CFI 4ce04 .cfa: sp 96 +
STACK CFI 4ce10 .cfa: x29 32 + x19: .cfa -8 + ^ x20: .cfa -16 + ^ .ra: .cfa -24 + ^ x29: .cfa -32 + ^
STACK CFI 4cfdc .cfa: sp 96 +
STACK CFI 4cfe8 .cfa: sp 0 +
STACK CFI 4cfec .cfa: x29 32 +
STACK CFI INIT 4d040 6c .cfa: sp 0 +
STACK CFI 4d044 .cfa: sp 32 +
STACK CFI 4d04c .cfa: x29 32 + x19: .cfa -16 + ^ .ra: .cfa -24 + ^ x29: .cfa -32 + ^
STACK CFI 4d09c .cfa: sp 32 +
STACK CFI 4d0a4 .cfa: sp 0 +
STACK CFI 4d0a8 .cfa: x29 32 +
STACK CFI INIT 4d0ac 74 .cfa: sp 0 +
STACK CFI 4d0b0 .cfa: sp 32 +
STACK CFI 4d0b8 .cfa: x29 32 + x19: .cfa -16 + ^ .ra: .cfa -24 + ^ x29: .cfa -32 + ^
STACK CFI 4d110 .cfa: sp 32 +
STACK CFI 4d118 .cfa: sp 0 +
STACK CFI 4d11c .cfa: x29 32 +
STACK CFI INIT 4d174 148 .cfa: sp 0 +
STACK CFI 4d178 .cfa: sp 96 +
STACK CFI 4d188 .cfa: x29 48 + x19: .cfa -8 + ^ x20: .cfa -16 + ^ x21: .cfa -32 + ^ .ra: .cfa -40 + ^ x29: .cfa -48 + ^
STACK CFI 4d270 .cfa: sp 96 +
STACK CFI 4d280 .cfa: sp 0 +
STACK CFI 4d284 .cfa: x29 48 +
STACK CFI INIT 4d2bc 6c .cfa: sp 0 +
STACK CFI 4d2c0 .cfa: sp 32 +
STACK CFI 4d2c8 .cfa: x29 32 + x19: .cfa -16 + ^ .ra: .cfa -24 + ^ x29: .cfa -32 + ^
STACK CFI 4d318 .cfa: sp 32 +
STACK CFI 4d320 .cfa: sp 0 +
STACK CFI 4d324 .cfa: x29 32 +
STACK CFI INIT 4d328 74 .cfa: sp 0 +
STACK CFI 4d32c .cfa: sp 32 +
STACK CFI 4d334 .cfa: x29 32 + x19: .cfa -16 + ^ .ra: .cfa -24 + ^ x29: .cfa -32 + ^
STACK CFI 4d38c .cfa: sp 32 +
STACK CFI 4d394 .cfa: sp 0 +
STACK CFI 4d398 .cfa: x29 32 +
STACK CFI INIT 4d3c8 d8 .cfa: sp 0 +
STACK CFI 4d3cc .cfa: sp 32 +
STACK CFI 4d3d4 .cfa: x29 32 + x19: .cfa -16 + ^ .ra: .cfa -24 + ^ x29: .cfa -32 + ^
STACK CFI 4d490 .cfa: sp 32 +
STACK CFI 4d498 .cfa: sp 0 +
STACK CFI 4d49c .cfa: x29 32 +
STACK CFI INIT 4d4a0 e0 .cfa: sp 0 +
STACK CFI 4d4a4 .cfa: sp 32 +
STACK CFI 4d4ac .cfa: x29 32 + x19: .cfa -16 + ^ .ra: .cfa -24 + ^ x29: .cfa -32 + ^
STACK CFI 4d570 .cfa: sp 32 +
STACK CFI 4d578 .cfa: sp 0 +
STACK CFI 4d57c .cfa: x29 32 +
STACK CFI INIT 4d5d4 148 .cfa: sp 0 +
STACK CFI 4d5d8 .cfa: sp 96 +
STACK CFI 4d5e8 .cfa: x29 48 + x19: .cfa -8 + ^ x20: .cfa -16 + ^ x21: .cfa -32 + ^ .ra: .cfa -40 + ^ x29: .cfa -48 + ^
STACK CFI 4d6d0 .cfa: sp 96 +
STACK CFI 4d6e0 .cfa: sp 0 +
STACK CFI 4d6e4 .cfa: x29 48 +
STACK CFI INIT 4d71c dc .cfa: sp 0 +
STACK CFI 4d720 .cfa: sp 32 +
STACK CFI 4d728 .cfa: x29 32 + x19: .cfa -8 + ^ x20: .cfa -16 + ^ .ra: .cfa -24 + ^ x29: .cfa -32 + ^
STACK CFI 4d7e8 .cfa: sp 32 +
STACK CFI 4d7f0 .cfa: sp 0 +
STACK CFI 4d7f4 .cfa: x29 32 +
STACK CFI INIT 4d7f8 e4 .cfa: sp 0 +
STACK CFI 4d7fc .cfa: sp 32 +
STACK CFI 4d804 .cfa: x29 32 + x19: .cfa -8 + ^ x20: .cfa -16 + ^ .ra: .cfa -24 + ^ x29: .cfa -32 + ^
STACK CFI 4d8cc .cfa: sp 32 +
STACK CFI 4d8d4 .cfa: sp 0 +
STACK CFI 4d8d8 .cfa: x29 32 +
STACK CFI INIT 4d908 480 .cfa: sp 0 +
STACK CFI 4d90c .cfa: sp 224 +
STACK CFI 4d928 .cfa: x29 96 + x19: .cfa -8 + ^ x20: .cfa -16 + ^ x21: .cfa -24 + ^ x22: .cfa -32 + ^ x23: .cfa -40 + ^ x24: .cfa -48 + ^ x25: .cfa -56 + ^ x26: .cfa -64 + ^ x27: .cfa -80 + ^ .ra: .cfa -88 + ^ x29: .cfa -96 + ^
STACK CFI 4db94 .cfa: sp 224 +
STACK CFI 4dbb0 .cfa: sp 0 +
STACK CFI 4dbb4 .cfa: x29 96 +
STACK CFI 4dc80 .cfa: sp 224 +
STACK CFI 4dc9c .cfa: sp 0 +
STACK CFI 4dca0 .cfa: x29 96 +
STACK CFI INIT 4dda4 1bc .cfa: sp 0 +
STACK CFI 4dda8 .cfa: sp 112 +
STACK CFI 4ddb8 .cfa: x29 48 + x19: .cfa -8 + ^ x20: .cfa -16 + ^ x21: .cfa -32 + ^ .ra: .cfa -40 + ^ x29: .cfa -48 + ^
STACK CFI 4deb8 .cfa: sp 112 +
STACK CFI 4dec8 .cfa: sp 0 +
STACK CFI 4decc .cfa: x29 48 +
STACK CFI INIT 4df60 2b8 .cfa: sp 0 +
STACK CFI 4df64 .cfa: sp 160 +
STACK CFI 4df80 .cfa: x29 96 + x19: .cfa -8 + ^ x20: .cfa -16 + ^ x21: .cfa -24 + ^ x22: .cfa -32 + ^ x23: .cfa -40 + ^ x24: .cfa -48 + ^ x25: .cfa -56 + ^ x26: .cfa -64 + ^ x27: .cfa -72 + ^ x28: .cfa -80 + ^ .ra: .cfa -88 + ^ x29: .cfa -96 + ^
STACK CFI 4dfb8 .cfa: sp 160 +
STACK CFI 4dfd4 .cfa: sp 0 +
STACK CFI 4dfd8 .cfa: x29 96 +
STACK CFI INIT 4e218 114 .cfa: sp 0 +
STACK CFI 4e21c .cfa: sp 64 +
STACK CFI 4e22c .cfa: x29 64 + x19: .cfa -8 + ^ x20: .cfa -16 + ^ x21: .cfa -24 + ^ x22: .cfa -32 + ^ x23: .cfa -48 + ^ .ra: .cfa -56 + ^ x29: .cfa -64 + ^
STACK CFI 4e308 .cfa: sp 64 +
STACK CFI 4e318 .cfa: sp 0 +
STACK CFI 4e31c .cfa: x29 64 +
STACK CFI INIT 4e32c 50 .cfa: sp 0 +
STACK CFI 4e330 .cfa: sp 32 +
STACK CFI 4e338 .cfa: x29 32 + x19: .cfa -16 + ^ .ra: .cfa -24 + ^ x29: .cfa -32 + ^
STACK CFI 4e364 .cfa: sp 32 +
STACK CFI 4e36c .cfa: sp 0 +
STACK CFI 4e370 .cfa: x29 32 +
STACK CFI INIT 4e390 22c .cfa: sp 0 +
STACK CFI 4e394 .cfa: sp 96 +
STACK CFI 4e3ac .cfa: x29 96 + x19: .cfa -8 + ^ x20: .cfa -16 + ^ x21: .cfa -24 + ^ x22: .cfa -32 + ^ x23: .cfa -40 + ^ x24: .cfa -48 + ^ x25: .cfa -56 + ^ x26: .cfa -64 + ^ x27: .cfa -80 + ^ .ra: .cfa -88 + ^ x29: .cfa -96 + ^
STACK CFI 4e550 .cfa: sp 96 +
STACK CFI 4e568 .cfa: sp 0 +
STACK CFI 4e56c .cfa: x29 96 +
STACK CFI INIT 4e6d0 6c .cfa: sp 0 +
STACK CFI 4e6d4 .cfa: sp 32 +
STACK CFI 4e6dc .cfa: x29 32 + x19: .cfa -16 + ^ .ra: .cfa -24 + ^ x29: .cfa -32 + ^
STACK CFI 4e72c .cfa: sp 32 +
STACK CFI 4e734 .cfa: sp 0 +
STACK CFI 4e738 .cfa: x29 32 +
STACK CFI INIT 4e740 6c .cfa: sp 0 +
STACK CFI 4e744 .cfa: sp 32 +
STACK CFI 4e74c .cfa: x29 32 + x19: .cfa -16 + ^ .ra: .cfa -24 + ^ x29: .cfa -32 + ^
STACK CFI 4e79c .cfa: sp 32 +
STACK CFI 4e7a4 .cfa: sp 0 +
STACK CFI 4e7a8 .cfa: x29 32 +
STACK CFI INIT 4e7b0 6c .cfa: sp 0 +
STACK CFI 4e7b4 .cfa: sp 32 +
STACK CFI 4e7bc .cfa: x29 32 + x19: .cfa -16 + ^ .ra: .cfa -24 + ^ x29: .cfa -32 + ^
STACK CFI 4e80c .cfa: sp 32 +
STACK CFI 4e814 .cfa: sp 0 +
STACK CFI 4e818 .cfa: x29 32 +
STACK CFI INIT 4e820 948 .cfa: sp 0 +
STACK CFI 4e824 .cfa: sp 288 +
STACK CFI 4e840 .cfa: x29 96 + x19: .cfa -8 + ^ x20: .cfa -16 + ^ x21: .cfa -24 + ^ x22: .cfa -32 + ^ x23: .cfa -40 + ^ x24: .cfa -48 + ^ x25: .cfa -56 + ^ x26: .cfa -64 + ^ x27: .cfa -72 + ^ x28: .cfa -80 + ^ .ra: .cfa -88 + ^ x29: .cfa -96 + ^
STACK CFI 4eed4 .cfa: sp 288 +
STACK CFI 4eef0 .cfa: sp 0 +
STACK CFI 4eef4 .cfa: x29 96 +
STACK CFI INIT 4f1d0 3c8 .cfa: sp 0 +
STACK CFI 4f1d4 .cfa: sp 192 +
STACK CFI 4f1ec .cfa: x29 64 + x19: .cfa -8 + ^ x20: .cfa -16 + ^ x21: .cfa -24 + ^ x22: .cfa -32 + ^ x23: .cfa -40 + ^ x24: .cfa -48 + ^ .ra: .cfa -56 + ^ x29: .cfa -64 + ^ v8: .cfa -80 + ^
STACK CFI 4f538 .cfa: sp 192 +
STACK CFI 4f550 .cfa: sp 0 +
STACK CFI 4f554 .cfa: x29 64 +
STACK CFI INIT 4f598 1d0 .cfa: sp 0 +
STACK CFI 4f59c .cfa: sp 112 +
STACK CFI 4f5b4 .cfa: x29 80 + x19: .cfa -8 + ^ x20: .cfa -16 + ^ x21: .cfa -24 + ^ x22: .cfa -32 + ^ x23: .cfa -40 + ^ x24: .cfa -48 + ^ x25: .cfa -64 + ^ .ra: .cfa -72 + ^ x29: .cfa -80 + ^
STACK CFI 4f5e8 .cfa: sp 112 +
STACK CFI 4f600 .cfa: sp 0 +
STACK CFI 4f604 .cfa: x29 80 +
STACK CFI 4f6fc .cfa: sp 112 +
STACK CFI 4f714 .cfa: sp 0 +
STACK CFI 4f718 .cfa: x29 80 +
STACK CFI INIT 4f880 74 .cfa: sp 0 +
STACK CFI 4f884 .cfa: sp 48 +
STACK CFI 4f890 .cfa: x29 32 + x19: .cfa -8 + ^ x20: .cfa -16 + ^ .ra: .cfa -24 + ^ x29: .cfa -32 + ^
STACK CFI 4f8dc .cfa: sp 48 +
STACK CFI 4f8e8 .cfa: sp 0 +
STACK CFI 4f8ec .cfa: x29 32 +
STACK CFI INIT 4f8f4 74 .cfa: sp 0 +
STACK CFI 4f8f8 .cfa: sp 48 +
STACK CFI 4f904 .cfa: x29 32 + x19: .cfa -8 + ^ x20: .cfa -16 + ^ .ra: .cfa -24 + ^ x29: .cfa -32 + ^
STACK CFI 4f950 .cfa: sp 48 +
STACK CFI 4f95c .cfa: sp 0 +
STACK CFI 4f960 .cfa: x29 32 +
STACK CFI INIT 4f968 74 .cfa: sp 0 +
STACK CFI 4f96c .cfa: sp 48 +
STACK CFI 4f978 .cfa: x29 32 + x19: .cfa -8 + ^ x20: .cfa -16 + ^ .ra: .cfa -24 + ^ x29: .cfa -32 + ^
STACK CFI 4f9c4 .cfa: sp 48 +
STACK CFI 4f9d0 .cfa: sp 0 +
STACK CFI 4f9d4 .cfa: x29 32 +
STACK CFI INIT 4f9dc 74 .cfa: sp 0 +
STACK CFI 4f9e0 .cfa: sp 48 +
STACK CFI 4f9ec .cfa: x29 32 + x19: .cfa -8 + ^ x20: .cfa -16 + ^ .ra: .cfa -24 + ^ x29: .cfa -32 + ^
STACK CFI 4fa38 .cfa: sp 48 +
STACK CFI 4fa44 .cfa: sp 0 +
STACK CFI 4fa48 .cfa: x29 32 +
STACK CFI INIT 4fa50 74 .cfa: sp 0 +
STACK CFI 4fa54 .cfa: sp 48 +
STACK CFI 4fa60 .cfa: x29 32 + x19: .cfa -8 + ^ x20: .cfa -16 + ^ .ra: .cfa -24 + ^ x29: .cfa -32 + ^
STACK CFI 4faac .cfa: sp 48 +
STACK CFI 4fab8 .cfa: sp 0 +
STACK CFI 4fabc .cfa: x29 32 +
STACK CFI INIT 4fb2c 74 .cfa: sp 0 +
STACK CFI 4fb30 .cfa: sp 48 +
STACK CFI 4fb3c .cfa: x29 32 + x19: .cfa -8 + ^ x20: .cfa -16 + ^ .ra: .cfa -24 + ^ x29: .cfa -32 + ^
STACK CFI 4fb88 .cfa: sp 48 +
STACK CFI 4fb94 .cfa: sp 0 +
STACK CFI 4fb98 .cfa: x29 32 +
STACK CFI INIT 4fba0 168 .cfa: sp 0 +
STACK CFI 4fba4 .cfa: sp 384 +
STACK CFI 4fbb8 .cfa: x29 64 + x19: .cfa -8 + ^ x20: .cfa -16 + ^ x21: .cfa -24 + ^ x22: .cfa -32 + ^ x23: .cfa -40 + ^ x28: .cfa -48 + ^ .ra: .cfa -56 + ^ x29: .cfa -64 + ^
STACK CFI 4fcb0 .cfa: sp 384 +
STACK CFI 4fcc4 .cfa: sp 0 +
STACK CFI 4fcc8 .cfa: x29 64 +
STACK CFI INIT 503dc 208 .cfa: sp 0 +
STACK CFI 503e0 .cfa: sp 128 +
STACK CFI 503f4 .cfa: x29 64 + x19: .cfa -8 + ^ x20: .cfa -16 + ^ x21: .cfa -24 + ^ x22: .cfa -32 + ^ x23: .cfa -40 + ^ x24: .cfa -48 + ^ .ra: .cfa -56 + ^ x29: .cfa -64 + ^
STACK CFI 5056c .cfa: sp 128 +
STACK CFI 50580 .cfa: sp 0 +
STACK CFI 50584 .cfa: x29 64 +
STACK CFI INIT 50798 128 .cfa: sp 0 +
STACK CFI 5079c .cfa: sp 96 +
STACK CFI 507b0 .cfa: x29 48 + x19: .cfa -8 + ^ x20: .cfa -16 + ^ x21: .cfa -24 + ^ x22: .cfa -32 + ^ .ra: .cfa -40 + ^ x29: .cfa -48 + ^ v8: .cfa -56 + ^ v9: .cfa -64 + ^
STACK CFI 50878 .cfa: sp 96 +
STACK CFI 5088c .cfa: sp 0 +
STACK CFI 50890 .cfa: x29 48 +
STACK CFI INIT 50cc4 43c .cfa: sp 0 +
STACK CFI 50cc8 .cfa: sp 224 +
STACK CFI 50ce4 .cfa: x29 96 + x19: .cfa -8 + ^ x20: .cfa -16 + ^ x21: .cfa -24 + ^ x22: .cfa -32 + ^ x23: .cfa -40 + ^ x24: .cfa -48 + ^ x25: .cfa -56 + ^ x26: .cfa -64 + ^ x27: .cfa -72 + ^ x28: .cfa -80 + ^ .ra: .cfa -88 + ^ x29: .cfa -96 + ^
STACK CFI 50ff8 .cfa: sp 224 +
STACK CFI 51014 .cfa: sp 0 +
STACK CFI 51018 .cfa: x29 96 +
STACK CFI INIT 5111c 480 .cfa: sp 0 +
STACK CFI 51120 .cfa: sp 224 +
STACK CFI 5113c .cfa: x29 96 + x19: .cfa -8 + ^ x20: .cfa -16 + ^ x21: .cfa -24 + ^ x22: .cfa -32 + ^ x23: .cfa -40 + ^ x24: .cfa -48 + ^ x25: .cfa -56 + ^ x26: .cfa -64 + ^ x27: .cfa -80 + ^ .ra: .cfa -88 + ^ x29: .cfa -96 + ^
STACK CFI 513a8 .cfa: sp 224 +
STACK CFI 513c4 .cfa: sp 0 +
STACK CFI 513c8 .cfa: x29 96 +
STACK CFI 51494 .cfa: sp 224 +
STACK CFI 514b0 .cfa: sp 0 +
STACK CFI 514b4 .cfa: x29 96 +
STACK CFI INIT 515b8 41c .cfa: sp 0 +
STACK CFI 515bc .cfa: sp 240 +
STACK CFI 515d0 .cfa: x29 64 + x19: .cfa -8 + ^ x20: .cfa -16 + ^ x21: .cfa -24 + ^ x22: .cfa -32 + ^ x23: .cfa -40 + ^ x24: .cfa -48 + ^ .ra: .cfa -56 + ^ x29: .cfa -64 + ^
STACK CFI 51898 .cfa: sp 240 +
STACK CFI 518ac .cfa: sp 0 +
STACK CFI 518b0 .cfa: x29 64 +
STACK CFI INIT 51a70 3c0 .cfa: sp 0 +
STACK CFI 51a74 .cfa: sp 240 +
STACK CFI 51a88 .cfa: x29 64 + x19: .cfa -8 + ^ x20: .cfa -16 + ^ x21: .cfa -24 + ^ x22: .cfa -32 + ^ x23: .cfa -40 + ^ x24: .cfa -48 + ^ .ra: .cfa -56 + ^ x29: .cfa -64 + ^
STACK CFI 51cf8 .cfa: sp 240 +
STACK CFI 51d0c .cfa: sp 0 +
STACK CFI 51d10 .cfa: x29 64 +
STACK CFI INIT 51e34 690 .cfa: sp 0 +
STACK CFI 51e38 .cfa: sp 256 +
STACK CFI 51e58 .cfa: x29 96 + x19: .cfa -8 + ^ x20: .cfa -16 + ^ x21: .cfa -24 + ^ x22: .cfa -32 + ^ x23: .cfa -40 + ^ x24: .cfa -48 + ^ x25: .cfa -56 + ^ x26: .cfa -64 + ^ x27: .cfa -72 + ^ x28: .cfa -80 + ^ .ra: .cfa -88 + ^ x29: .cfa -96 + ^ v8: .cfa -112 + ^
STACK CFI 52458 .cfa: sp 256 +
STACK CFI 52478 .cfa: sp 0 +
STACK CFI 5247c .cfa: x29 96 +
STACK CFI INIT 524c4 480 .cfa: sp 0 +
STACK CFI 524c8 .cfa: sp 224 +
STACK CFI 524e4 .cfa: x29 96 + x19: .cfa -8 + ^ x20: .cfa -16 + ^ x21: .cfa -24 + ^ x22: .cfa -32 + ^ x23: .cfa -40 + ^ x24: .cfa -48 + ^ x25: .cfa -56 + ^ x26: .cfa -64 + ^ x27: .cfa -80 + ^ .ra: .cfa -88 + ^ x29: .cfa -96 + ^
STACK CFI 52750 .cfa: sp 224 +
STACK CFI 5276c .cfa: sp 0 +
STACK CFI 52770 .cfa: x29 96 +
STACK CFI 5283c .cfa: sp 224 +
STACK CFI 52858 .cfa: sp 0 +
STACK CFI 5285c .cfa: x29 96 +
STACK CFI INIT 52960 133c .cfa: sp 0 +
STACK CFI 52964 .cfa: sp 304 +
STACK CFI 52980 .cfa: x29 96 + x19: .cfa -8 + ^ x20: .cfa -16 + ^ x21: .cfa -24 + ^ x22: .cfa -32 + ^ x23: .cfa -40 + ^ x24: .cfa -48 + ^ x25: .cfa -56 + ^ x26: .cfa -64 + ^ x27: .cfa -72 + ^ x28: .cfa -80 + ^ .ra: .cfa -88 + ^ x29: .cfa -96 + ^
STACK CFI 538b0 .cfa: sp 304 +
STACK CFI 538cc .cfa: sp 0 +
STACK CFI 538d0 .cfa: x29 96 +
STACK CFI INIT 53ca0 524 .cfa: sp 0 +
STACK CFI 53ca4 .cfa: sp 288 +
STACK CFI 53cc4 .cfa: x29 96 + x19: .cfa -8 + ^ x20: .cfa -16 + ^ x21: .cfa -24 + ^ x22: .cfa -32 + ^ x23: .cfa -40 + ^ x24: .cfa -48 + ^ x25: .cfa -56 + ^ x26: .cfa -64 + ^ x27: .cfa -72 + ^ x28: .cfa -80 + ^ .ra: .cfa -88 + ^ x29: .cfa -96 + ^ v8: .cfa -104 + ^ v9: .cfa -112 + ^
STACK CFI 5411c .cfa: sp 288 +
STACK CFI 5413c .cfa: sp 0 +
STACK CFI 54140 .cfa: x29 96 +
STACK CFI INIT 541c4 180 .cfa: sp 0 +
STACK CFI 541c8 .cfa: sp 80 +
STACK CFI 541d4 .cfa: x29 32 + x19: .cfa -8 + ^ x20: .cfa -16 + ^ .ra: .cfa -24 + ^ x29: .cfa -32 + ^
STACK CFI 542d4 .cfa: sp 80 +
STACK CFI 542e0 .cfa: sp 0 +
STACK CFI 542e4 .cfa: x29 32 +
STACK CFI INIT 54344 1828 .cfa: sp 0 +
STACK CFI 54348 .cfa: sp 128 +
STACK CFI 54368 .cfa: x29 96 + x19: .cfa -8 + ^ x20: .cfa -16 + ^ x21: .cfa -24 + ^ x22: .cfa -32 + ^ x23: .cfa -40 + ^ x24: .cfa -48 + ^ x25: .cfa -56 + ^ x26: .cfa -64 + ^ x27: .cfa -72 + ^ x28: .cfa -80 + ^ .ra: .cfa -88 + ^ x29: .cfa -96 + ^ v8: .cfa -104 + ^ v9: .cfa -112 + ^ v10: .cfa -128 + ^
STACK CFI 558d0 .cfa: sp 128 +
STACK CFI 558f0 .cfa: sp 0 +
STACK CFI 558f4 .cfa: x29 96 +
STACK CFI INIT 55b6c 19c0 .cfa: sp 0 +
STACK CFI 55b70 .cfa: sp 160 +
STACK CFI 55b98 .cfa: x29 96 + x19: .cfa -8 + ^ x20: .cfa -16 + ^ x21: .cfa -24 + ^ x22: .cfa -32 + ^ x23: .cfa -40 + ^ x24: .cfa -48 + ^ x25: .cfa -56 + ^ x26: .cfa -64 + ^ x27: .cfa -72 + ^ x28: .cfa -80 + ^ .ra: .cfa -88 + ^ x29: .cfa -96 + ^ v8: .cfa -104 + ^ v9: .cfa -112 + ^ v10: .cfa -120 + ^ v11: .cfa -128 + ^ v12: .cfa -136 + ^ v13: .cfa -144 + ^ v14: .cfa -152 + ^ v15: .cfa -160 + ^
STACK CFI 572c8 .cfa: sp 160 +
STACK CFI 572f0 .cfa: sp 0 +
STACK CFI 572f4 .cfa: x29 96 +
STACK CFI INIT 5752c 70c .cfa: sp 0 +
STACK CFI 57530 .cfa: sp 176 +
STACK CFI 57554 .cfa: x29 96 + x19: .cfa -8 + ^ x20: .cfa -16 + ^ x21: .cfa -24 + ^ x22: .cfa -32 + ^ x23: .cfa -40 + ^ x24: .cfa -48 + ^ x25: .cfa -56 + ^ x26: .cfa -64 + ^ x27: .cfa -72 + ^ x28: .cfa -80 + ^ .ra: .cfa -88 + ^ x29: .cfa -96 + ^ v8: .cfa -104 + ^ v9: .cfa -112 + ^ v10: .cfa -120 + ^ v11: .cfa -128 + ^
STACK CFI 57b6c .cfa: sp 176 +
STACK CFI 57b90 .cfa: sp 0 +
STACK CFI 57b94 .cfa: x29 96 +
STACK CFI INIT 57c38 100 .cfa: sp 0 +
STACK CFI 57c3c .cfa: sp 112 +
STACK CFI 57c4c .cfa: x29 48 + x19: .cfa -8 + ^ x20: .cfa -16 + ^ x21: .cfa -32 + ^ .ra: .cfa -40 + ^ x29: .cfa -48 + ^
STACK CFI 57cd4 .cfa: sp 112 +
STACK CFI 57ce4 .cfa: sp 0 +
STACK CFI 57ce8 .cfa: x29 48 +
STACK CFI INIT 57d8c 14c .cfa: sp 0 +
STACK CFI 57d90 .cfa: sp 80 +
STACK CFI 57da0 .cfa: x29 48 + x19: .cfa -8 + ^ x20: .cfa -16 + ^ x21: .cfa -32 + ^ .ra: .cfa -40 + ^ x29: .cfa -48 + ^
STACK CFI 57e90 .cfa: sp 80 +
STACK CFI 57ea0 .cfa: sp 0 +
STACK CFI 57ea4 .cfa: x29 48 +
STACK CFI INIT 57ed8 450 .cfa: sp 0 +
STACK CFI 57edc .cfa: sp 96 +
STACK CFI 57ef0 .cfa: x29 64 + x19: .cfa -8 + ^ x20: .cfa -16 + ^ x21: .cfa -24 + ^ x22: .cfa -32 + ^ x23: .cfa -40 + ^ x24: .cfa -48 + ^ .ra: .cfa -56 + ^ x29: .cfa -64 + ^
STACK CFI 582e0 .cfa: sp 96 +
STACK CFI 582f4 .cfa: sp 0 +
STACK CFI 582f8 .cfa: x29 64 +
STACK CFI INIT 58328 20 .cfa: sp 0 +
STACK CFI 5832c .cfa: sp 16 +
STACK CFI 58330 .cfa: x29 16 + .ra: .cfa -8 + ^ x29: .cfa -16 + ^
STACK CFI 5833c .cfa: sp 16 +
STACK CFI 58340 .cfa: sp 0 +
STACK CFI 58344 .cfa: x29 16 +
STACK CFI INIT 58348 134 .cfa: sp 0 +
STACK CFI 5834c .cfa: sp 32 +
STACK CFI 58354 .cfa: x29 32 + x19: .cfa -8 + ^ x20: .cfa -16 + ^ .ra: .cfa -24 + ^ x29: .cfa -32 + ^
STACK CFI 583fc .cfa: sp 32 +
STACK CFI 58404 .cfa: sp 0 +
STACK CFI 58408 .cfa: x29 32 +
STACK CFI INIT 5847c 74 .cfa: sp 0 +
STACK CFI 58480 .cfa: sp 32 +
STACK CFI 58488 .cfa: x29 32 + x19: .cfa -16 + ^ .ra: .cfa -24 + ^ x29: .cfa -32 + ^
STACK CFI 584b0 .cfa: sp 32 +
STACK CFI 584b8 .cfa: sp 0 +
STACK CFI 584bc .cfa: x29 32 +
STACK CFI 584e0 .cfa: sp 32 +
STACK CFI 584e8 .cfa: sp 0 +
STACK CFI 584ec .cfa: x29 32 +
STACK CFI INIT 584f0 1c .cfa: sp 0 +
STACK CFI 584f4 .cfa: sp 16 +
STACK CFI 584f8 .cfa: x29 16 + .ra: .cfa -8 + ^ x29: .cfa -16 + ^
STACK CFI 58500 .cfa: sp 16 +
STACK CFI 58504 .cfa: sp 0 +
STACK CFI 58508 .cfa: x29 16 +
STACK CFI INIT 5853c 1b0 .cfa: sp 0 +
STACK CFI 58540 .cfa: sp 96 +
STACK CFI 58554 .cfa: x29 64 + x19: .cfa -8 + ^ x20: .cfa -16 + ^ x21: .cfa -24 + ^ x22: .cfa -32 + ^ x23: .cfa -48 + ^ .ra: .cfa -56 + ^ x29: .cfa -64 + ^
STACK CFI 5869c .cfa: sp 96 +
STACK CFI 586b0 .cfa: sp 0 +
STACK CFI 586b4 .cfa: x29 64 +
STACK CFI INIT 586ec e8 .cfa: sp 0 +
STACK CFI 586f0 .cfa: sp 32 +
STACK CFI 586f8 .cfa: x29 32 + x19: .cfa -16 + ^ .ra: .cfa -24 + ^ x29: .cfa -32 + ^
STACK CFI 587c0 .cfa: sp 32 +
STACK CFI 587c8 .cfa: sp 0 +
STACK CFI 587cc .cfa: x29 32 +
STACK CFI INIT 5884c 148 .cfa: sp 0 +
STACK CFI 58850 .cfa: sp 96 +
STACK CFI 58860 .cfa: x29 48 + x19: .cfa -8 + ^ x20: .cfa -16 + ^ x21: .cfa -32 + ^ .ra: .cfa -40 + ^ x29: .cfa -48 + ^
STACK CFI 58948 .cfa: sp 96 +
STACK CFI 58958 .cfa: sp 0 +
STACK CFI 5895c .cfa: x29 48 +
STACK CFI INIT 58a04 1478 .cfa: sp 0 +
STACK CFI 58a08 .cfa: sp 240 +
STACK CFI 58a2c .cfa: x29 96 + x19: .cfa -8 + ^ x20: .cfa -16 + ^ x21: .cfa -24 + ^ x22: .cfa -32 + ^ x23: .cfa -40 + ^ x24: .cfa -48 + ^ x25: .cfa -56 + ^ x26: .cfa -64 + ^ x27: .cfa -72 + ^ x28: .cfa -80 + ^ .ra: .cfa -88 + ^ x29: .cfa -96 + ^ v8: .cfa -104 + ^ v9: .cfa -112 + ^ v10: .cfa -128 + ^
STACK CFI 59910 .cfa: sp 240 +
STACK CFI 59934 .cfa: sp 0 +
STACK CFI 59938 .cfa: x29 96 +
STACK CFI 59964 .cfa: sp 240 +
STACK CFI 59988 .cfa: sp 0 +
STACK CFI 5998c .cfa: x29 96 +
STACK CFI 599b4 .cfa: sp 240 +
STACK CFI 599d8 .cfa: sp 0 +
STACK CFI 599dc .cfa: x29 96 +
STACK CFI 59d7c .cfa: sp 240 +
STACK CFI 59da0 .cfa: sp 0 +
STACK CFI 59da4 .cfa: x29 96 +
STACK CFI INIT 5a3f4 9c .cfa: sp 0 +
STACK CFI 5a3f8 .cfa: sp 48 +
STACK CFI 5a404 .cfa: x29 48 + x19: .cfa -8 + ^ x20: .cfa -16 + ^ x21: .cfa -32 + ^ .ra: .cfa -40 + ^ x29: .cfa -48 + ^
STACK CFI 5a41c .cfa: sp 48 +
STACK CFI 5a428 .cfa: sp 0 +
STACK CFI 5a42c .cfa: x29 48 +
STACK CFI INIT 5c048 1f8 .cfa: sp 0 +
STACK CFI 5c04c .cfa: sp 192 +
STACK CFI 5c060 .cfa: x29 64 + x19: .cfa -8 + ^ x20: .cfa -16 + ^ x21: .cfa -24 + ^ x22: .cfa -32 + ^ x23: .cfa -40 + ^ x24: .cfa -48 + ^ .ra: .cfa -56 + ^ x29: .cfa -64 + ^
STACK CFI 5c1c8 .cfa: sp 192 +
STACK CFI 5c1dc .cfa: sp 0 +
STACK CFI 5c1e0 .cfa: x29 64 +
STACK CFI INIT 5c28c 94 .cfa: sp 0 +
STACK CFI 5c290 .cfa: sp 32 +
STACK CFI 5c298 .cfa: x29 32 + x19: .cfa -8 + ^ x20: .cfa -16 + ^ .ra: .cfa -24 + ^ x29: .cfa -32 + ^
STACK CFI 5c2a0 .cfa: sp 32 +
STACK CFI 5c2a8 .cfa: sp 0 +
STACK CFI 5c2ac .cfa: x29 32 +
STACK CFI INIT 5c320 a4 .cfa: sp 0 +
STACK CFI 5c324 .cfa: sp 48 +
STACK CFI 5c330 .cfa: x29 48 + x19: .cfa -8 + ^ x20: .cfa -16 + ^ x21: .cfa -24 + ^ x22: .cfa -32 + ^ .ra: .cfa -40 + ^ x29: .cfa -48 + ^
STACK CFI 5c3b0 .cfa: sp 48 +
STACK CFI 5c3bc .cfa: sp 0 +
STACK CFI 5c3c0 .cfa: x29 48 +
STACK CFI INIT 5c3c4 6c .cfa: sp 0 +
STACK CFI 5c3c8 .cfa: sp 32 +
STACK CFI 5c3d0 .cfa: x29 32 + x19: .cfa -16 + ^ .ra: .cfa -24 + ^ x29: .cfa -32 + ^
STACK CFI 5c420 .cfa: sp 32 +
STACK CFI 5c428 .cfa: sp 0 +
STACK CFI 5c42c .cfa: x29 32 +
STACK CFI INIT 5c434 6c .cfa: sp 0 +
STACK CFI 5c438 .cfa: sp 32 +
STACK CFI 5c440 .cfa: x29 32 + x19: .cfa -16 + ^ .ra: .cfa -24 + ^ x29: .cfa -32 + ^
STACK CFI 5c490 .cfa: sp 32 +
STACK CFI 5c498 .cfa: sp 0 +
STACK CFI 5c49c .cfa: x29 32 +
STACK CFI INIT 5cc5c 7f0 .cfa: sp 0 +
STACK CFI 5cc60 .cfa: sp 224 +
STACK CFI 5cc78 .cfa: x29 80 + x19: .cfa -8 + ^ x20: .cfa -16 + ^ x21: .cfa -24 + ^ x22: .cfa -32 + ^ x23: .cfa -40 + ^ x24: .cfa -48 + ^ x25: .cfa -64 + ^ .ra: .cfa -72 + ^ x29: .cfa -80 + ^
STACK CFI 5d3dc .cfa: sp 224 +
STACK CFI 5d3f4 .cfa: sp 0 +
STACK CFI 5d3f8 .cfa: x29 80 +
STACK CFI INIT 5d4f8 5bc .cfa: sp 0 +
STACK CFI 5d4fc .cfa: sp 240 +
STACK CFI 5d50c .cfa: x29 48 + x19: .cfa -8 + ^ x20: .cfa -16 + ^ x21: .cfa -24 + ^ x22: .cfa -32 + ^ .ra: .cfa -40 + ^ x29: .cfa -48 + ^
STACK CFI 5d9d0 .cfa: sp 240 +
STACK CFI 5d9e0 .cfa: sp 0 +
STACK CFI 5d9e4 .cfa: x29 48 +
STACK CFI INIT 5dab4 d8 .cfa: sp 0 +
STACK CFI 5dab8 .cfa: sp 32 +
STACK CFI 5dac0 .cfa: x29 32 + x19: .cfa -16 + ^ .ra: .cfa -24 + ^ x29: .cfa -32 + ^
STACK CFI 5db7c .cfa: sp 32 +
STACK CFI 5db84 .cfa: sp 0 +
STACK CFI 5db88 .cfa: x29 32 +
STACK CFI INIT 5db8c e0 .cfa: sp 0 +
STACK CFI 5db90 .cfa: sp 32 +
STACK CFI 5db98 .cfa: x29 32 + x19: .cfa -16 + ^ .ra: .cfa -24 + ^ x29: .cfa -32 + ^
STACK CFI 5dc5c .cfa: sp 32 +
STACK CFI 5dc64 .cfa: sp 0 +
STACK CFI 5dc68 .cfa: x29 32 +
STACK CFI INIT 5dcc0 148 .cfa: sp 0 +
STACK CFI 5dcc4 .cfa: sp 96 +
STACK CFI 5dcd4 .cfa: x29 48 + x19: .cfa -8 + ^ x20: .cfa -16 + ^ x21: .cfa -32 + ^ .ra: .cfa -40 + ^ x29: .cfa -48 + ^
STACK CFI 5ddbc .cfa: sp 96 +
STACK CFI 5ddcc .cfa: sp 0 +
STACK CFI 5ddd0 .cfa: x29 48 +
STACK CFI INIT 5de08 dc .cfa: sp 0 +
STACK CFI 5de0c .cfa: sp 32 +
STACK CFI 5de14 .cfa: x29 32 + x19: .cfa -8 + ^ x20: .cfa -16 + ^ .ra: .cfa -24 + ^ x29: .cfa -32 + ^
STACK CFI 5ded4 .cfa: sp 32 +
STACK CFI 5dedc .cfa: sp 0 +
STACK CFI 5dee0 .cfa: x29 32 +
STACK CFI INIT 5dee4 e4 .cfa: sp 0 +
STACK CFI 5dee8 .cfa: sp 32 +
STACK CFI 5def0 .cfa: x29 32 + x19: .cfa -8 + ^ x20: .cfa -16 + ^ .ra: .cfa -24 + ^ x29: .cfa -32 + ^
STACK CFI 5dfb8 .cfa: sp 32 +
STACK CFI 5dfc0 .cfa: sp 0 +
STACK CFI 5dfc4 .cfa: x29 32 +
STACK CFI INIT 5dff4 6c .cfa: sp 0 +
STACK CFI 5dff8 .cfa: sp 32 +
STACK CFI 5e000 .cfa: x29 32 + x19: .cfa -16 + ^ .ra: .cfa -24 + ^ x29: .cfa -32 + ^
STACK CFI 5e050 .cfa: sp 32 +
STACK CFI 5e058 .cfa: sp 0 +
STACK CFI 5e05c .cfa: x29 32 +
STACK CFI INIT 5e064 6c .cfa: sp 0 +
STACK CFI 5e068 .cfa: sp 32 +
STACK CFI 5e070 .cfa: x29 32 + x19: .cfa -16 + ^ .ra: .cfa -24 + ^ x29: .cfa -32 + ^
STACK CFI 5e0c0 .cfa: sp 32 +
STACK CFI 5e0c8 .cfa: sp 0 +
STACK CFI 5e0cc .cfa: x29 32 +
STACK CFI INIT 5e6c0 578 .cfa: sp 0 +
STACK CFI 5e6c4 .cfa: sp 160 +
STACK CFI 5e6e4 .cfa: x29 96 + x19: .cfa -8 + ^ x20: .cfa -16 + ^ x21: .cfa -24 + ^ x22: .cfa -32 + ^ x23: .cfa -40 + ^ x24: .cfa -48 + ^ x25: .cfa -56 + ^ x26: .cfa -64 + ^ x27: .cfa -72 + ^ x28: .cfa -80 + ^ .ra: .cfa -88 + ^ x29: .cfa -96 + ^ v8: .cfa -112 + ^
STACK CFI 5eb80 .cfa: sp 160 +
STACK CFI 5eba0 .cfa: sp 0 +
STACK CFI 5eba4 .cfa: x29 96 +
STACK CFI INIT 5ec38 b34 .cfa: sp 0 +
STACK CFI 5ec3c .cfa: sp 288 +
STACK CFI 5ec5c .cfa: x29 96 + x19: .cfa -8 + ^ x20: .cfa -16 + ^ x21: .cfa -24 + ^ x22: .cfa -32 + ^ x23: .cfa -40 + ^ x24: .cfa -48 + ^ x25: .cfa -56 + ^ x26: .cfa -64 + ^ x27: .cfa -72 + ^ x28: .cfa -80 + ^ .ra: .cfa -88 + ^ x29: .cfa -96 + ^ v8: .cfa -104 + ^ v9: .cfa -112 + ^
STACK CFI 5f510 .cfa: sp 288 +
STACK CFI 5f530 .cfa: sp 0 +
STACK CFI 5f534 .cfa: x29 96 +
STACK CFI INIT 5f76c 1c .cfa: sp 0 +
STACK CFI 5f770 .cfa: sp 16 +
STACK CFI 5f774 .cfa: x29 16 + .ra: .cfa -8 + ^ x29: .cfa -16 + ^
STACK CFI 5f77c .cfa: sp 16 +
STACK CFI 5f780 .cfa: sp 0 +
STACK CFI 5f784 .cfa: x29 16 +
STACK CFI INIT 5f788 1c .cfa: sp 0 +
STACK CFI 5f78c .cfa: sp 16 +
STACK CFI 5f790 .cfa: x29 16 + .ra: .cfa -8 + ^ x29: .cfa -16 + ^
STACK CFI 5f798 .cfa: sp 16 +
STACK CFI 5f79c .cfa: sp 0 +
STACK CFI 5f7a0 .cfa: x29 16 +
STACK CFI INIT 5f7a4 1c .cfa: sp 0 +
STACK CFI 5f7a8 .cfa: sp 16 +
STACK CFI 5f7ac .cfa: x29 16 + .ra: .cfa -8 + ^ x29: .cfa -16 + ^
STACK CFI 5f7b4 .cfa: sp 16 +
STACK CFI 5f7b8 .cfa: sp 0 +
STACK CFI 5f7bc .cfa: x29 16 +
STACK CFI INIT 5f7c0 1c .cfa: sp 0 +
STACK CFI 5f7c4 .cfa: sp 16 +
STACK CFI 5f7c8 .cfa: x29 16 + .ra: .cfa -8 + ^ x29: .cfa -16 + ^
STACK CFI 5f7d0 .cfa: sp 16 +
STACK CFI 5f7d4 .cfa: sp 0 +
STACK CFI 5f7d8 .cfa: x29 16 +
STACK CFI INIT 5f7dc 28c .cfa: sp 0 +
STACK CFI 5f7e0 .cfa: sp 160 +
STACK CFI 5f800 .cfa: x29 96 + x19: .cfa -8 + ^ x20: .cfa -16 + ^ x21: .cfa -24 + ^ x22: .cfa -32 + ^ x23: .cfa -40 + ^ x24: .cfa -48 + ^ x25: .cfa -56 + ^ x26: .cfa -64 + ^ x27: .cfa -72 + ^ x28: .cfa -80 + ^ .ra: .cfa -88 + ^ x29: .cfa -96 + ^ v8: .cfa -112 + ^
STACK CFI 5f9e0 .cfa: sp 160 +
STACK CFI 5fa00 .cfa: sp 0 +
STACK CFI 5fa04 .cfa: x29 96 +
STACK CFI INIT 5fa68 270 .cfa: sp 0 +
STACK CFI 5fa6c .cfa: sp 128 +
STACK CFI 5fa7c .cfa: x29 48 + x19: .cfa -8 + ^ x20: .cfa -16 + ^ x21: .cfa -24 + ^ x22: .cfa -32 + ^ .ra: .cfa -40 + ^ x29: .cfa -48 + ^
STACK CFI 5fc08 .cfa: sp 128 +
STACK CFI 5fc18 .cfa: sp 0 +
STACK CFI 5fc1c .cfa: x29 48 +
STACK CFI INIT 5fcd8 224 .cfa: sp 0 +
STACK CFI 5fcdc .cfa: sp 112 +
STACK CFI 5fcf8 .cfa: x29 96 + x19: .cfa -8 + ^ x20: .cfa -16 + ^ x21: .cfa -24 + ^ x22: .cfa -32 + ^ x23: .cfa -40 + ^ x24: .cfa -48 + ^ x25: .cfa -56 + ^ x26: .cfa -64 + ^ x27: .cfa -72 + ^ x28: .cfa -80 + ^ .ra: .cfa -88 + ^ x29: .cfa -96 + ^
STACK CFI 5feac .cfa: sp 112 +
STACK CFI 5fec8 .cfa: sp 0 +
STACK CFI 5fecc .cfa: x29 96 +
STACK CFI INIT 5fefc 314 .cfa: sp 0 +
STACK CFI 5ff00 .cfa: sp 416 +
STACK CFI 5ff20 .cfa: x29 96 + x19: .cfa -8 + ^ x20: .cfa -16 + ^ x21: .cfa -24 + ^ x22: .cfa -32 + ^ x23: .cfa -40 + ^ x24: .cfa -48 + ^ x25: .cfa -56 + ^ x26: .cfa -64 + ^ x27: .cfa -72 + ^ x28: .cfa -80 + ^ .ra: .cfa -88 + ^ x29: .cfa -96 + ^ v8: .cfa -104 + ^ v9: .cfa -112 + ^
STACK CFI 60144 .cfa: sp 416 +
STACK CFI 60164 .cfa: sp 0 +
STACK CFI 60168 .cfa: x29 96 +
STACK CFI INIT 60210 20 .cfa: sp 0 +
STACK CFI 60214 .cfa: sp 16 +
STACK CFI 60218 .cfa: x29 16 + .ra: .cfa -8 + ^ x29: .cfa -16 + ^
STACK CFI 60224 .cfa: sp 16 +
STACK CFI 60228 .cfa: sp 0 +
STACK CFI 6022c .cfa: x29 16 +
STACK CFI INIT 602ac 7b0 .cfa: sp 0 +
STACK CFI 602b0 .cfa: sp 128 +
STACK CFI 602cc .cfa: x29 96 + x19: .cfa -8 + ^ x20: .cfa -16 + ^ x21: .cfa -24 + ^ x22: .cfa -32 + ^ x23: .cfa -40 + ^ x24: .cfa -48 + ^ x25: .cfa -56 + ^ x26: .cfa -64 + ^ x27: .cfa -72 + ^ x28: .cfa -80 + ^ .ra: .cfa -88 + ^ x29: .cfa -96 + ^
STACK CFI 609b4 .cfa: sp 128 +
STACK CFI 609d0 .cfa: sp 0 +
STACK CFI 609d4 .cfa: x29 96 +
STACK CFI INIT 60a5c 2f4 .cfa: sp 0 +
STACK CFI 60a60 .cfa: sp 144 +
STACK CFI 60a7c .cfa: x29 96 + x19: .cfa -8 + ^ x20: .cfa -16 + ^ x21: .cfa -24 + ^ x22: .cfa -32 + ^ x23: .cfa -40 + ^ x24: .cfa -48 + ^ x25: .cfa -56 + ^ x26: .cfa -64 + ^ x27: .cfa -72 + ^ x28: .cfa -80 + ^ .ra: .cfa -88 + ^ x29: .cfa -96 + ^
STACK CFI 60cec .cfa: sp 144 +
STACK CFI 60d08 .cfa: sp 0 +
STACK CFI 60d0c .cfa: x29 96 +
STACK CFI INIT 60d50 660 .cfa: sp 0 +
STACK CFI 60d54 .cfa: sp 256 +
STACK CFI 60d70 .cfa: x29 96 + x19: .cfa -8 + ^ x20: .cfa -16 + ^ x21: .cfa -24 + ^ x22: .cfa -32 + ^ x23: .cfa -40 + ^ x24: .cfa -48 + ^ x25: .cfa -56 + ^ x26: .cfa -64 + ^ x27: .cfa -72 + ^ x28: .cfa -80 + ^ .ra: .cfa -88 + ^ x29: .cfa -96 + ^
STACK CFI 6124c .cfa: sp 256 +
STACK CFI 61268 .cfa: sp 0 +
STACK CFI 6126c .cfa: x29 96 +
STACK CFI INIT 613e0 480 .cfa: sp 0 +
STACK CFI 613e4 .cfa: sp 224 +
STACK CFI 61400 .cfa: x29 96 + x19: .cfa -8 + ^ x20: .cfa -16 + ^ x21: .cfa -24 + ^ x22: .cfa -32 + ^ x23: .cfa -40 + ^ x24: .cfa -48 + ^ x25: .cfa -56 + ^ x26: .cfa -64 + ^ x27: .cfa -80 + ^ .ra: .cfa -88 + ^ x29: .cfa -96 + ^
STACK CFI 6166c .cfa: sp 224 +
STACK CFI 61688 .cfa: sp 0 +
STACK CFI 6168c .cfa: x29 96 +
STACK CFI 61758 .cfa: sp 224 +
STACK CFI 61774 .cfa: sp 0 +
STACK CFI 61778 .cfa: x29 96 +
STACK CFI INIT 6187c 480 .cfa: sp 0 +
STACK CFI 61880 .cfa: sp 224 +
STACK CFI 6189c .cfa: x29 96 + x19: .cfa -8 + ^ x20: .cfa -16 + ^ x21: .cfa -24 + ^ x22: .cfa -32 + ^ x23: .cfa -40 + ^ x24: .cfa -48 + ^ x25: .cfa -56 + ^ x26: .cfa -64 + ^ x27: .cfa -80 + ^ .ra: .cfa -88 + ^ x29: .cfa -96 + ^
STACK CFI 61b08 .cfa: sp 224 +
STACK CFI 61b24 .cfa: sp 0 +
STACK CFI 61b28 .cfa: x29 96 +
STACK CFI 61bf4 .cfa: sp 224 +
STACK CFI 61c10 .cfa: sp 0 +
STACK CFI 61c14 .cfa: x29 96 +
STACK CFI INIT 61d80 43c .cfa: sp 0 +
STACK CFI 61d84 .cfa: sp 224 +
STACK CFI 61da0 .cfa: x29 96 + x19: .cfa -8 + ^ x20: .cfa -16 + ^ x21: .cfa -24 + ^ x22: .cfa -32 + ^ x23: .cfa -40 + ^ x24: .cfa -48 + ^ x25: .cfa -56 + ^ x26: .cfa -64 + ^ x27: .cfa -72 + ^ x28: .cfa -80 + ^ .ra: .cfa -88 + ^ x29: .cfa -96 + ^
STACK CFI 620b4 .cfa: sp 224 +
STACK CFI 620d0 .cfa: sp 0 +
STACK CFI 620d4 .cfa: x29 96 +
STACK CFI INIT 621bc 43c .cfa: sp 0 +
STACK CFI 621c0 .cfa: sp 224 +
STACK CFI 621dc .cfa: x29 96 + x19: .cfa -8 + ^ x20: .cfa -16 + ^ x21: .cfa -24 + ^ x22: .cfa -32 + ^ x23: .cfa -40 + ^ x24: .cfa -48 + ^ x25: .cfa -56 + ^ x26: .cfa -64 + ^ x27: .cfa -72 + ^ x28: .cfa -80 + ^ .ra: .cfa -88 + ^ x29: .cfa -96 + ^
STACK CFI 624f0 .cfa: sp 224 +
STACK CFI 6250c .cfa: sp 0 +
STACK CFI 62510 .cfa: x29 96 +
STACK CFI INIT 625f8 43c .cfa: sp 0 +
STACK CFI 625fc .cfa: sp 224 +
STACK CFI 62618 .cfa: x29 96 + x19: .cfa -8 + ^ x20: .cfa -16 + ^ x21: .cfa -24 + ^ x22: .cfa -32 + ^ x23: .cfa -40 + ^ x24: .cfa -48 + ^ x25: .cfa -56 + ^ x26: .cfa -64 + ^ x27: .cfa -72 + ^ x28: .cfa -80 + ^ .ra: .cfa -88 + ^ x29: .cfa -96 + ^
STACK CFI 6292c .cfa: sp 224 +
STACK CFI 62948 .cfa: sp 0 +
STACK CFI 6294c .cfa: x29 96 +
STACK CFI INIT 62a34 43c .cfa: sp 0 +
STACK CFI 62a38 .cfa: sp 224 +
STACK CFI 62a54 .cfa: x29 96 + x19: .cfa -8 + ^ x20: .cfa -16 + ^ x21: .cfa -24 + ^ x22: .cfa -32 + ^ x23: .cfa -40 + ^ x24: .cfa -48 + ^ x25: .cfa -56 + ^ x26: .cfa -64 + ^ x27: .cfa -72 + ^ x28: .cfa -80 + ^ .ra: .cfa -88 + ^ x29: .cfa -96 + ^
STACK CFI 62d68 .cfa: sp 224 +
STACK CFI 62d84 .cfa: sp 0 +
STACK CFI 62d88 .cfa: x29 96 +
STACK CFI INIT 62e70 43c .cfa: sp 0 +
STACK CFI 62e74 .cfa: sp 224 +
STACK CFI 62e90 .cfa: x29 96 + x19: .cfa -8 + ^ x20: .cfa -16 + ^ x21: .cfa -24 + ^ x22: .cfa -32 + ^ x23: .cfa -40 + ^ x24: .cfa -48 + ^ x25: .cfa -56 + ^ x26: .cfa -64 + ^ x27: .cfa -72 + ^ x28: .cfa -80 + ^ .ra: .cfa -88 + ^ x29: .cfa -96 + ^
STACK CFI 631a4 .cfa: sp 224 +
STACK CFI 631c0 .cfa: sp 0 +
STACK CFI 631c4 .cfa: x29 96 +
STACK CFI INIT 63338 21c .cfa: sp 0 +
STACK CFI 6333c .cfa: sp 112 +
STACK CFI 6334c .cfa: x29 48 + x19: .cfa -8 + ^ x20: .cfa -16 + ^ x21: .cfa -24 + ^ x22: .cfa -32 + ^ .ra: .cfa -40 + ^ x29: .cfa -48 + ^
STACK CFI 63478 .cfa: sp 112 +
STACK CFI 63488 .cfa: sp 0 +
STACK CFI 6348c .cfa: x29 48 +
STACK CFI INIT 63554 6c .cfa: sp 0 +
STACK CFI 63558 .cfa: sp 32 +
STACK CFI 63560 .cfa: x29 32 + x19: .cfa -16 + ^ .ra: .cfa -24 + ^ x29: .cfa -32 + ^
STACK CFI 635a0 .cfa: sp 32 +
STACK CFI 635a8 .cfa: sp 0 +
STACK CFI 635ac .cfa: x29 32 +
STACK CFI INIT 635c0 1c .cfa: sp 0 +
STACK CFI 635c4 .cfa: sp 16 +
STACK CFI 635c8 .cfa: x29 16 + .ra: .cfa -8 + ^ x29: .cfa -16 + ^
STACK CFI 635d0 .cfa: sp 16 +
STACK CFI 635d4 .cfa: sp 0 +
STACK CFI 635d8 .cfa: x29 16 +
STACK CFI INIT 635dc 190 .cfa: sp 0 +
STACK CFI 635e0 .cfa: sp 112 +
STACK CFI 635f0 .cfa: x29 48 + x19: .cfa -8 + ^ x20: .cfa -16 + ^ x21: .cfa -32 + ^ .ra: .cfa -40 + ^ x29: .cfa -48 + ^
STACK CFI 636c4 .cfa: sp 112 +
STACK CFI 636d4 .cfa: sp 0 +
STACK CFI 636d8 .cfa: x29 48 +
STACK CFI INIT 63784 18c .cfa: sp 0 +
STACK CFI 63788 .cfa: sp 112 +
STACK CFI 63798 .cfa: x29 48 + x19: .cfa -8 + ^ x20: .cfa -16 + ^ x21: .cfa -32 + ^ .ra: .cfa -40 + ^ x29: .cfa -48 + ^
STACK CFI 63864 .cfa: sp 112 +
STACK CFI 63874 .cfa: sp 0 +
STACK CFI 63878 .cfa: x29 48 +
STACK CFI INIT 63914 ae4 .cfa: sp 0 +
STACK CFI 63918 .cfa: sp 288 +
STACK CFI 63934 .cfa: x29 96 + x19: .cfa -8 + ^ x20: .cfa -16 + ^ x21: .cfa -24 + ^ x22: .cfa -32 + ^ x23: .cfa -40 + ^ x24: .cfa -48 + ^ x25: .cfa -56 + ^ x26: .cfa -64 + ^ x28: .cfa -80 + ^ .ra: .cfa -88 + ^ x29: .cfa -96 + ^
STACK CFI 640fc .cfa: sp 288 +
STACK CFI 64118 .cfa: sp 0 +
STACK CFI 6411c .cfa: x29 96 +
STACK CFI INIT 643fc 184 .cfa: sp 0 +
STACK CFI 64400 .cfa: sp 160 +
STACK CFI 64418 .cfa: x29 80 + x19: .cfa -8 + ^ x20: .cfa -16 + ^ x21: .cfa -24 + ^ x22: .cfa -32 + ^ x23: .cfa -40 + ^ x24: .cfa -48 + ^ x25: .cfa -56 + ^ x26: .cfa -64 + ^ .ra: .cfa -72 + ^ x29: .cfa -80 + ^
STACK CFI 64518 .cfa: sp 160 +
STACK CFI 64530 .cfa: sp 0 +
STACK CFI 64534 .cfa: x29 80 +
STACK CFI INIT 6461c 4bc .cfa: sp 0 +
STACK CFI 64620 .cfa: sp 160 +
STACK CFI 6463c .cfa: x29 96 + x19: .cfa -8 + ^ x20: .cfa -16 + ^ x21: .cfa -24 + ^ x22: .cfa -32 + ^ x23: .cfa -40 + ^ x24: .cfa -48 + ^ x25: .cfa -56 + ^ x26: .cfa -64 + ^ x27: .cfa -72 + ^ x28: .cfa -80 + ^ .ra: .cfa -88 + ^ x29: .cfa -96 + ^
STACK CFI 6499c .cfa: sp 160 +
STACK CFI 649b8 .cfa: sp 0 +
STACK CFI 649bc .cfa: x29 96 +
STACK CFI INIT 64ad8 36c .cfa: sp 0 +
STACK CFI 64adc .cfa: sp 112 +
STACK CFI 64af0 .cfa: x29 64 + x19: .cfa -8 + ^ x20: .cfa -16 + ^ x21: .cfa -24 + ^ x22: .cfa -32 + ^ x23: .cfa -40 + ^ x24: .cfa -48 + ^ .ra: .cfa -56 + ^ x29: .cfa -64 + ^
STACK CFI 64df4 .cfa: sp 112 +
STACK CFI 64e08 .cfa: sp 0 +
STACK CFI 64e0c .cfa: x29 64 +
STACK CFI INIT 64e44 cc .cfa: sp 0 +
STACK CFI 64e48 .cfa: sp 48 +
STACK CFI 64e54 .cfa: x29 48 + x19: .cfa -8 + ^ x20: .cfa -16 + ^ x21: .cfa -24 + ^ x22: .cfa -32 + ^ .ra: .cfa -40 + ^ x29: .cfa -48 + ^
STACK CFI 64ea0 .cfa: sp 48 +
STACK CFI 64eac .cfa: sp 0 +
STACK CFI 64eb0 .cfa: x29 48 +
STACK CFI 64eb4 .cfa: sp 48 +
STACK CFI 64ec0 .cfa: sp 0 +
STACK CFI 64ec4 .cfa: x29 48 +
STACK CFI INIT 64fc0 a8 .cfa: sp 0 +
STACK CFI 64fc4 .cfa: sp 32 +
STACK CFI 64fcc .cfa: x29 32 + x19: .cfa -16 + ^ .ra: .cfa -24 + ^ x29: .cfa -32 + ^
STACK CFI 65000 .cfa: sp 32 +
STACK CFI 65008 .cfa: sp 0 +
STACK CFI 6500c .cfa: x29 32 +
STACK CFI 65010 .cfa: sp 32 +
STACK CFI 65018 .cfa: sp 0 +
STACK CFI 6501c .cfa: x29 32 +
STACK CFI INIT 65068 3c0 .cfa: sp 0 +
STACK CFI 6506c .cfa: sp 256 +
STACK CFI 65080 .cfa: x29 64 + x19: .cfa -8 + ^ x20: .cfa -16 + ^ x21: .cfa -24 + ^ x22: .cfa -32 + ^ x23: .cfa -48 + ^ .ra: .cfa -56 + ^ x29: .cfa -64 + ^
STACK CFI 652f8 .cfa: sp 256 +
STACK CFI 6530c .cfa: sp 0 +
STACK CFI 65310 .cfa: x29 64 +
STACK CFI INIT 655d8 c8 .cfa: sp 0 +
STACK CFI 655dc .cfa: sp 32 +
STACK CFI 655e4 .cfa: x29 32 + x19: .cfa -8 + ^ x20: .cfa -16 + ^ .ra: .cfa -24 + ^ x29: .cfa -32 + ^
STACK CFI 65618 .cfa: sp 32 +
STACK CFI 65620 .cfa: sp 0 +
STACK CFI 65624 .cfa: x29 32 +
STACK CFI 65628 .cfa: sp 32 +
STACK CFI 65630 .cfa: sp 0 +
STACK CFI 65634 .cfa: x29 32 +
STACK CFI INIT 656a0 104 .cfa: sp 0 +
STACK CFI 656a4 .cfa: sp 32 +
STACK CFI 656ac .cfa: x29 32 + x19: .cfa -8 + ^ x20: .cfa -16 + ^ .ra: .cfa -24 + ^ x29: .cfa -32 + ^
STACK CFI 65758 .cfa: sp 32 +
STACK CFI 65760 .cfa: sp 0 +
STACK CFI 65764 .cfa: x29 32 +
STACK CFI INIT 6581c 4f8 .cfa: sp 0 +
STACK CFI 65820 .cfa: sp 128 +
STACK CFI 65840 .cfa: x29 96 + x19: .cfa -8 + ^ x20: .cfa -16 + ^ x21: .cfa -24 + ^ x22: .cfa -32 + ^ x23: .cfa -40 + ^ x24: .cfa -48 + ^ x25: .cfa -56 + ^ x26: .cfa -64 + ^ x27: .cfa -72 + ^ x28: .cfa -80 + ^ .ra: .cfa -88 + ^ x29: .cfa -96 + ^ v8: .cfa -112 + ^
STACK CFI 65a2c .cfa: sp 128 +
STACK CFI 65a4c .cfa: sp 0 +
STACK CFI 65a50 .cfa: x29 96 +
STACK CFI 65a5c .cfa: sp 128 +
STACK CFI 65a7c .cfa: sp 0 +
STACK CFI 65a80 .cfa: x29 96 +
STACK CFI INIT 65d3c 3b0 .cfa: sp 0 +
STACK CFI 65d40 .cfa: sp 224 +
STACK CFI 65d58 .cfa: x29 80 + x19: .cfa -8 + ^ x20: .cfa -16 + ^ x21: .cfa -24 + ^ x22: .cfa -32 + ^ x23: .cfa -40 + ^ x24: .cfa -48 + ^ x25: .cfa -64 + ^ .ra: .cfa -72 + ^ x29: .cfa -80 + ^
STACK CFI 65fb8 .cfa: sp 224 +
STACK CFI 65fd0 .cfa: sp 0 +
STACK CFI 65fd4 .cfa: x29 80 +
STACK CFI INIT 660f0 2ec .cfa: sp 0 +
STACK CFI 660f4 .cfa: sp 192 +
STACK CFI 6610c .cfa: x29 80 + x19: .cfa -8 + ^ x20: .cfa -16 + ^ x21: .cfa -24 + ^ x22: .cfa -32 + ^ x23: .cfa -40 + ^ x24: .cfa -48 + ^ x25: .cfa -56 + ^ x26: .cfa -64 + ^ .ra: .cfa -72 + ^ x29: .cfa -80 + ^
STACK CFI 662fc .cfa: sp 192 +
STACK CFI 66314 .cfa: sp 0 +
STACK CFI 66318 .cfa: x29 80 +
STACK CFI INIT 663dc 11c .cfa: sp 0 +
STACK CFI 663e0 .cfa: sp 96 +
STACK CFI 663f4 .cfa: x29 64 + x19: .cfa -8 + ^ x20: .cfa -16 + ^ x21: .cfa -24 + ^ x22: .cfa -32 + ^ x23: .cfa -40 + ^ x24: .cfa -48 + ^ .ra: .cfa -56 + ^ x29: .cfa -64 + ^
STACK CFI 664b4 .cfa: sp 96 +
STACK CFI 664c8 .cfa: sp 0 +
STACK CFI 664cc .cfa: x29 64 +
STACK CFI INIT 664f8 2f8 .cfa: sp 0 +
STACK CFI 664fc .cfa: sp 160 +
STACK CFI 66518 .cfa: x29 96 + x19: .cfa -8 + ^ x20: .cfa -16 + ^ x21: .cfa -24 + ^ x22: .cfa -32 + ^ x23: .cfa -40 + ^ x24: .cfa -48 + ^ x25: .cfa -56 + ^ x26: .cfa -64 + ^ x27: .cfa -72 + ^ x28: .cfa -80 + ^ .ra: .cfa -88 + ^ x29: .cfa -96 + ^
STACK CFI 6675c .cfa: sp 160 +
STACK CFI 66778 .cfa: sp 0 +
STACK CFI 6677c .cfa: x29 96 +
STACK CFI INIT 66b90 3a0 .cfa: sp 0 +
STACK CFI 66b94 .cfa: sp 208 +
STACK CFI 66ba8 .cfa: x29 64 + x19: .cfa -8 + ^ x20: .cfa -16 + ^ x21: .cfa -24 + ^ x22: .cfa -32 + ^ x23: .cfa -40 + ^ x24: .cfa -48 + ^ .ra: .cfa -56 + ^ x29: .cfa -64 + ^
STACK CFI 66e00 .cfa: sp 208 +
STACK CFI 66e14 .cfa: sp 0 +
STACK CFI 66e18 .cfa: x29 64 +
STACK CFI INIT 66f34 4e0 .cfa: sp 0 +
STACK CFI 66f38 .cfa: sp 224 +
STACK CFI 66f50 .cfa: x29 80 + x19: .cfa -8 + ^ x20: .cfa -16 + ^ x21: .cfa -24 + ^ x22: .cfa -32 + ^ x23: .cfa -40 + ^ x24: .cfa -48 + ^ x25: .cfa -56 + ^ x26: .cfa -64 + ^ .ra: .cfa -72 + ^ x29: .cfa -80 + ^
STACK CFI 67308 .cfa: sp 224 +
STACK CFI 67320 .cfa: sp 0 +
STACK CFI 67324 .cfa: x29 80 +
STACK CFI INIT 67414 3c0 .cfa: sp 0 +
STACK CFI 67418 .cfa: sp 240 +
STACK CFI 6742c .cfa: x29 64 + x19: .cfa -8 + ^ x20: .cfa -16 + ^ x21: .cfa -24 + ^ x22: .cfa -32 + ^ x23: .cfa -40 + ^ x24: .cfa -48 + ^ .ra: .cfa -56 + ^ x29: .cfa -64 + ^
STACK CFI 6769c .cfa: sp 240 +
STACK CFI 676b0 .cfa: sp 0 +
STACK CFI 676b4 .cfa: x29 64 +
STACK CFI INIT 677d8 2e4 .cfa: sp 0 +
STACK CFI 677dc .cfa: sp 192 +
STACK CFI 677f4 .cfa: x29 80 + x19: .cfa -8 + ^ x20: .cfa -16 + ^ x21: .cfa -24 + ^ x22: .cfa -32 + ^ x23: .cfa -40 + ^ x24: .cfa -48 + ^ x25: .cfa -56 + ^ x26: .cfa -64 + ^ .ra: .cfa -72 + ^ x29: .cfa -80 + ^
STACK CFI 679dc .cfa: sp 192 +
STACK CFI 679f4 .cfa: sp 0 +
STACK CFI 679f8 .cfa: x29 80 +
STACK CFI INIT 67abc 3c8 .cfa: sp 0 +
STACK CFI 67ac0 .cfa: sp 256 +
STACK CFI 67ad4 .cfa: x29 64 + x19: .cfa -8 + ^ x20: .cfa -16 + ^ x21: .cfa -24 + ^ x22: .cfa -32 + ^ x23: .cfa -48 + ^ .ra: .cfa -56 + ^ x29: .cfa -64 + ^
STACK CFI 67d4c .cfa: sp 256 +
STACK CFI 67d60 .cfa: sp 0 +
STACK CFI 67d64 .cfa: x29 64 +
STACK CFI INIT 67e88 4e0 .cfa: sp 0 +
STACK CFI 67e8c .cfa: sp 224 +
STACK CFI 67ea4 .cfa: x29 80 + x19: .cfa -8 + ^ x20: .cfa -16 + ^ x21: .cfa -24 + ^ x22: .cfa -32 + ^ x23: .cfa -40 + ^ x24: .cfa -48 + ^ x25: .cfa -56 + ^ x26: .cfa -64 + ^ .ra: .cfa -72 + ^ x29: .cfa -80 + ^
STACK CFI 6825c .cfa: sp 224 +
STACK CFI 68274 .cfa: sp 0 +
STACK CFI 68278 .cfa: x29 80 +
STACK CFI INIT 68368 3ec .cfa: sp 0 +
STACK CFI 6836c .cfa: sp 288 +
STACK CFI 68384 .cfa: x29 80 + x19: .cfa -8 + ^ x20: .cfa -16 + ^ x21: .cfa -24 + ^ x22: .cfa -32 + ^ x23: .cfa -40 + ^ x24: .cfa -48 + ^ x28: .cfa -64 + ^ .ra: .cfa -72 + ^ x29: .cfa -80 + ^
STACK CFI 68618 .cfa: sp 288 +
STACK CFI 68630 .cfa: sp 0 +
STACK CFI 68634 .cfa: x29 80 +
STACK CFI INIT 687c4 124 .cfa: sp 0 +
STACK CFI 687c8 .cfa: sp 80 +
STACK CFI 687dc .cfa: x29 64 + x19: .cfa -8 + ^ x20: .cfa -16 + ^ x21: .cfa -24 + ^ x22: .cfa -32 + ^ x23: .cfa -40 + ^ x24: .cfa -48 + ^ .ra: .cfa -56 + ^ x29: .cfa -64 + ^
STACK CFI 688a0 .cfa: sp 80 +
STACK CFI 688b4 .cfa: sp 0 +
STACK CFI 688b8 .cfa: x29 64 +
STACK CFI INIT 6a600 88 .cfa: sp 0 +
STACK CFI 6a604 .cfa: sp 48 +
STACK CFI 6a610 .cfa: x29 48 + x19: .cfa -8 + ^ x20: .cfa -16 + ^ x21: .cfa -24 + ^ x22: .cfa -32 + ^ .ra: .cfa -40 + ^ x29: .cfa -48 + ^
STACK CFI 6a650 .cfa: sp 48 +
STACK CFI 6a65c .cfa: sp 0 +
STACK CFI 6a660 .cfa: x29 48 +
STACK CFI INIT 6aa8c 41c .cfa: sp 0 +
STACK CFI 6aa90 .cfa: sp 416 +
STACK CFI 6aab0 .cfa: x29 96 + x19: .cfa -8 + ^ x20: .cfa -16 + ^ x21: .cfa -24 + ^ x22: .cfa -32 + ^ x23: .cfa -40 + ^ x24: .cfa -48 + ^ x25: .cfa -56 + ^ x26: .cfa -64 + ^ x27: .cfa -72 + ^ x28: .cfa -80 + ^ .ra: .cfa -88 + ^ x29: .cfa -96 + ^ v8: .cfa -104 + ^ v9: .cfa -112 + ^
STACK CFI 6ae04 .cfa: sp 416 +
STACK CFI 6ae24 .cfa: sp 0 +
STACK CFI 6ae28 .cfa: x29 96 +
STACK CFI INIT 6af30 134 .cfa: sp 0 +
STACK CFI 6af34 .cfa: sp 80 +
STACK CFI 6af40 .cfa: x29 32 + x19: .cfa -8 + ^ x20: .cfa -16 + ^ .ra: .cfa -24 + ^ x29: .cfa -32 + ^
STACK CFI 6af70 .cfa: sp 80 +
STACK CFI 6af7c .cfa: sp 0 +
STACK CFI 6af80 .cfa: x29 32 +
STACK CFI INIT 6b064 78 .cfa: sp 0 +
STACK CFI 6b068 .cfa: sp 32 +
STACK CFI 6b070 .cfa: x29 32 + x19: .cfa -8 + ^ x20: .cfa -16 + ^ .ra: .cfa -24 + ^ x29: .cfa -32 + ^
STACK CFI 6b07c .cfa: sp 32 +
STACK CFI 6b084 .cfa: sp 0 +
STACK CFI 6b088 .cfa: x29 32 +
STACK CFI INIT 6b0dc 74 .cfa: sp 0 +
STACK CFI 6b0e0 .cfa: sp 48 +
STACK CFI 6b0ec .cfa: x29 32 + x19: .cfa -8 + ^ x20: .cfa -16 + ^ .ra: .cfa -24 + ^ x29: .cfa -32 + ^
STACK CFI 6b138 .cfa: sp 48 +
STACK CFI 6b144 .cfa: sp 0 +
STACK CFI 6b148 .cfa: x29 32 +
STACK CFI INIT 6b250 28c .cfa: sp 0 +
STACK CFI 6b254 .cfa: sp 128 +
STACK CFI 6b264 .cfa: x29 48 + x19: .cfa -8 + ^ x20: .cfa -16 + ^ x21: .cfa -32 + ^ .ra: .cfa -40 + ^ x29: .cfa -48 + ^
STACK CFI 6b384 .cfa: sp 128 +
STACK CFI 6b394 .cfa: sp 0 +
STACK CFI 6b398 .cfa: x29 48 +
STACK CFI INIT 6b4dc 300 .cfa: sp 0 +
STACK CFI 6b4e0 .cfa: sp 144 +
STACK CFI 6b4f4 .cfa: x29 64 + x19: .cfa -8 + ^ x20: .cfa -16 + ^ x21: .cfa -24 + ^ x22: .cfa -32 + ^ x23: .cfa -48 + ^ .ra: .cfa -56 + ^ x29: .cfa -64 + ^
STACK CFI 6b688 .cfa: sp 144 +
STACK CFI 6b69c .cfa: sp 0 +
STACK CFI 6b6a0 .cfa: x29 64 +
STACK CFI INIT 6b830 264 .cfa: sp 0 +
STACK CFI 6b834 .cfa: sp 128 +
STACK CFI 6b844 .cfa: x29 48 + x19: .cfa -8 + ^ x20: .cfa -16 + ^ x21: .cfa -32 + ^ .ra: .cfa -40 + ^ x29: .cfa -48 + ^
STACK CFI 6b93c .cfa: sp 128 +
STACK CFI 6b94c .cfa: sp 0 +
STACK CFI 6b950 .cfa: x29 48 +
STACK CFI INIT 6bae8 24c .cfa: sp 0 +
STACK CFI 6baec .cfa: sp 128 +
STACK CFI 6bafc .cfa: x29 48 + x19: .cfa -8 + ^ x20: .cfa -16 + ^ x21: .cfa -24 + ^ x22: .cfa -32 + ^ .ra: .cfa -40 + ^ x29: .cfa -48 + ^
STACK CFI 6bbdc .cfa: sp 128 +
STACK CFI 6bbec .cfa: sp 0 +
STACK CFI 6bbf0 .cfa: x29 48 +
STACK CFI INIT 6bdac 1b8 .cfa: sp 0 +
STACK CFI 6bdb0 .cfa: sp 160 +
STACK CFI 6bdcc .cfa: x29 72 + x19: .cfa -8 + ^ x20: .cfa -16 + ^ x21: .cfa -24 + ^ x22: .cfa -32 + ^ x23: .cfa -40 + ^ x24: .cfa -48 + ^ x25: .cfa -56 + ^ .ra: .cfa -64 + ^ x29: .cfa -72 + ^ v8: .cfa -80 + ^
STACK CFI 6be50 .cfa: sp 160 +
STACK CFI 6be6c .cfa: sp 0 +
STACK CFI 6be70 .cfa: x29 72 +
STACK CFI INIT 6bf64 4e4 .cfa: sp 0 +
STACK CFI 6bf68 .cfa: sp 96 +
STACK CFI 6bf80 .cfa: x29 80 + x19: .cfa -8 + ^ x20: .cfa -16 + ^ x21: .cfa -24 + ^ x22: .cfa -32 + ^ x23: .cfa -40 + ^ x24: .cfa -48 + ^ x25: .cfa -64 + ^ .ra: .cfa -72 + ^ x29: .cfa -80 + ^
STACK CFI 6c3c4 .cfa: sp 96 +
STACK CFI 6c3dc .cfa: sp 0 +
STACK CFI 6c3e0 .cfa: x29 80 +
STACK CFI INIT 6c448 a4 .cfa: sp 0 +
STACK CFI 6c44c .cfa: sp 48 +
STACK CFI 6c458 .cfa: x29 48 + x19: .cfa -8 + ^ x20: .cfa -16 + ^ x21: .cfa -32 + ^ .ra: .cfa -40 + ^ x29: .cfa -48 + ^
STACK CFI 6c4c4 .cfa: sp 48 +
STACK CFI 6c4d0 .cfa: sp 0 +
STACK CFI 6c4d4 .cfa: x29 48 +
STACK CFI INIT 6c4ec 178 .cfa: sp 0 +
STACK CFI 6c4f0 .cfa: sp 128 +
STACK CFI 6c500 .cfa: x29 48 + x19: .cfa -8 + ^ x20: .cfa -16 + ^ x21: .cfa -24 + ^ x22: .cfa -32 + ^ .ra: .cfa -40 + ^ x29: .cfa -48 + ^
STACK CFI 6c55c .cfa: sp 128 +
STACK CFI 6c56c .cfa: sp 0 +
STACK CFI 6c570 .cfa: x29 48 +
STACK CFI INIT 6c664 21c .cfa: sp 0 +
STACK CFI 6c668 .cfa: sp 288 +
STACK CFI 6c68c .cfa: x29 96 + x19: .cfa -8 + ^ x20: .cfa -16 + ^ x21: .cfa -24 + ^ x22: .cfa -32 + ^ x23: .cfa -40 + ^ x24: .cfa -48 + ^ x25: .cfa -56 + ^ x26: .cfa -64 + ^ x27: .cfa -72 + ^ x28: .cfa -80 + ^ .ra: .cfa -88 + ^ x29: .cfa -96 + ^ v8: .cfa -104 + ^ v9: .cfa -112 + ^ v10: .cfa -128 + ^
STACK CFI 6c764 .cfa: sp 288 +
STACK CFI 6c788 .cfa: sp 0 +
STACK CFI 6c78c .cfa: x29 96 +
STACK CFI INIT 6c880 e94 .cfa: sp 0 +
STACK CFI 6c884 .cfa: sp 96 +
STACK CFI 6c89c .cfa: x29 80 + x19: .cfa -8 + ^ x20: .cfa -16 + ^ x21: .cfa -24 + ^ x22: .cfa -32 + ^ x23: .cfa -40 + ^ x24: .cfa -48 + ^ x25: .cfa -64 + ^ .ra: .cfa -72 + ^ x29: .cfa -80 + ^
STACK CFI 6d5f0 .cfa: sp 96 +
STACK CFI 6d608 .cfa: sp 0 +
STACK CFI 6d60c .cfa: x29 80 +
STACK CFI INIT 6d714 1ac .cfa: sp 0 +
STACK CFI 6d718 .cfa: sp 160 +
STACK CFI 6d72c .cfa: x29 48 + x19: .cfa -8 + ^ x20: .cfa -16 + ^ x21: .cfa -24 + ^ x22: .cfa -32 + ^ .ra: .cfa -40 + ^ x29: .cfa -48 + ^ v8: .cfa -64 + ^
STACK CFI 6d7ac .cfa: sp 160 +
STACK CFI 6d7c0 .cfa: sp 0 +
STACK CFI 6d7c4 .cfa: x29 48 +
STACK CFI INIT 6d8c0 10c .cfa: sp 0 +
STACK CFI 6d8c4 .cfa: sp 64 +
STACK CFI 6d8d4 .cfa: x29 48 + x19: .cfa -8 + ^ x20: .cfa -16 + ^ x21: .cfa -24 + ^ x22: .cfa -32 + ^ .ra: .cfa -40 + ^ x29: .cfa -48 + ^
STACK CFI 6d984 .cfa: sp 64 +
STACK CFI 6d994 .cfa: sp 0 +
STACK CFI 6d998 .cfa: x29 48 +
STACK CFI INIT 6d9d8 2e4 .cfa: sp 0 +
STACK CFI 6d9dc .cfa: sp 144 +
STACK CFI 6d9f0 .cfa: x29 64 + x19: .cfa -8 + ^ x20: .cfa -16 + ^ x21: .cfa -24 + ^ x22: .cfa -32 + ^ x23: .cfa -48 + ^ .ra: .cfa -56 + ^ x29: .cfa -64 + ^
STACK CFI 6db68 .cfa: sp 144 +
STACK CFI 6db7c .cfa: sp 0 +
STACK CFI 6db80 .cfa: x29 64 +
STACK CFI INIT 6dcbc 2e4 .cfa: sp 0 +
STACK CFI 6dcc0 .cfa: sp 144 +
STACK CFI 6dcd4 .cfa: x29 64 + x19: .cfa -8 + ^ x20: .cfa -16 + ^ x21: .cfa -24 + ^ x22: .cfa -32 + ^ x23: .cfa -48 + ^ .ra: .cfa -56 + ^ x29: .cfa -64 + ^
STACK CFI 6de4c .cfa: sp 144 +
STACK CFI 6de60 .cfa: sp 0 +
STACK CFI 6de64 .cfa: x29 64 +
STACK CFI INIT 6dfa0 2a0 .cfa: sp 0 +
STACK CFI 6dfa4 .cfa: sp 144 +
STACK CFI 6dfb8 .cfa: x29 64 + x19: .cfa -8 + ^ x20: .cfa -16 + ^ x21: .cfa -24 + ^ x22: .cfa -32 + ^ x23: .cfa -48 + ^ .ra: .cfa -56 + ^ x29: .cfa -64 + ^
STACK CFI 6e0ec .cfa: sp 144 +
STACK CFI 6e100 .cfa: sp 0 +
STACK CFI 6e104 .cfa: x29 64 +
STACK CFI INIT 6e240 2f0 .cfa: sp 0 +
STACK CFI 6e244 .cfa: sp 144 +
STACK CFI 6e258 .cfa: x29 64 + x19: .cfa -8 + ^ x20: .cfa -16 + ^ x21: .cfa -24 + ^ x22: .cfa -32 + ^ x23: .cfa -48 + ^ .ra: .cfa -56 + ^ x29: .cfa -64 + ^
STACK CFI 6e3dc .cfa: sp 144 +
STACK CFI 6e3f0 .cfa: sp 0 +
STACK CFI 6e3f4 .cfa: x29 64 +
STACK CFI INIT 6e530 4f4 .cfa: sp 0 +
STACK CFI 6e534 .cfa: sp 144 +
STACK CFI 6e548 .cfa: x29 64 + x19: .cfa -8 + ^ x20: .cfa -16 + ^ x21: .cfa -24 + ^ x22: .cfa -32 + ^ x23: .cfa -48 + ^ .ra: .cfa -56 + ^ x29: .cfa -64 + ^
STACK CFI 6e87c .cfa: sp 144 +
STACK CFI 6e890 .cfa: sp 0 +
STACK CFI 6e894 .cfa: x29 64 +
STACK CFI INIT 6ea24 154 .cfa: sp 0 +
STACK CFI 6ea28 .cfa: sp 384 +
STACK CFI 6ea3c .cfa: x29 64 + x19: .cfa -8 + ^ x20: .cfa -16 + ^ x21: .cfa -24 + ^ x22: .cfa -32 + ^ x23: .cfa -40 + ^ x28: .cfa -48 + ^ .ra: .cfa -56 + ^ x29: .cfa -64 + ^
STACK CFI 6eb20 .cfa: sp 384 +
STACK CFI 6eb34 .cfa: sp 0 +
STACK CFI 6eb38 .cfa: x29 64 +
STACK CFI INIT 6eb90 50c .cfa: sp 0 +
STACK CFI 6eb94 .cfa: sp 64 +
STACK CFI 6eba4 .cfa: x29 64 + x19: .cfa -8 + ^ x20: .cfa -16 + ^ x21: .cfa -24 + ^ x22: .cfa -32 + ^ x23: .cfa -40 + ^ x24: .cfa -48 + ^ .ra: .cfa -56 + ^ x29: .cfa -64 + ^
STACK CFI 6ecc4 .cfa: sp 64 +
STACK CFI 6ecd4 .cfa: sp 0 +
STACK CFI 6ecd8 .cfa: x29 64 +
STACK CFI 6f070 .cfa: sp 64 +
STACK CFI 6f080 .cfa: sp 0 +
STACK CFI 6f084 .cfa: x29 64 +
