MODULE Linux arm64 4C095F82F17F9F94833D0B03A11FAB880 bitz.darkmode_v4.android64.so
INFO CODE_ID 825F094C7FF1949F833D0B03A11FAB88C51E8D74
INFO GENERATOR mozilla/dump_syms 2.3.4
PUBLIC 1f830 0 __on_dlclose
PUBLIC 1f840 0 __emutls_unregister_key
PUBLIC 1f848 0 __on_dlclose_late
PUBLIC 1f850 0 __atexit_handler_wrapper
PUBLIC 1f864 0 atexit
PUBLIC 1f880 0 pthread_atfork
PUBLIC 1f890 0 unwind_phase2
PUBLIC 1f9c4 0 _Unwind_Resume
PUBLIC 1fa48 0 unwind_phase2_forced
PUBLIC m 1fb3c 0 __unw_init_local
PUBLIC m 1fbe4 0 __unw_get_reg
PUBLIC 1fc60 0 __unw_step_stage2
PUBLIC m 1fc74 0 __unw_get_proc_info
PUBLIC m 1fcb4 0 __unw_resume
PUBLIC 1fcdc 0 libunwind::CFI_Parser<libunwind::LocalAddressSpace>::decodeFDE(libunwind::LocalAddressSpace&, unsigned long, libunwind::CFI_Parser<libunwind::LocalAddressSpace>::FDE_Info*, libunwind::CFI_Parser<libunwind::LocalAddressSpace>::CIE_Info*, bool)
PUBLIC 1fe6c 0 libunwind::CFI_Parser<libunwind::LocalAddressSpace>::parseCIE(libunwind::LocalAddressSpace&, unsigned long, libunwind::CFI_Parser<libunwind::LocalAddressSpace>::CIE_Info*)
PUBLIC 20134 0 libunwind::AbstractUnwindCursor::~AbstractUnwindCursor()
PUBLIC 2013c 0 libunwind::UnwindCursor<libunwind::LocalAddressSpace, libunwind::Registers_arm64>::~UnwindCursor()
PUBLIC 20144 0 libunwind::UnwindCursor<libunwind::LocalAddressSpace, libunwind::Registers_arm64>::validReg(int)
PUBLIC 20188 0 libunwind::UnwindCursor<libunwind::LocalAddressSpace, libunwind::Registers_arm64>::getReg(int)
PUBLIC 20270 0 libunwind::UnwindCursor<libunwind::LocalAddressSpace, libunwind::Registers_arm64>::setReg(int, unsigned long)
PUBLIC 20358 0 libunwind::UnwindCursor<libunwind::LocalAddressSpace, libunwind::Registers_arm64>::validFloatReg(int)
PUBLIC 2036c 0 libunwind::UnwindCursor<libunwind::LocalAddressSpace, libunwind::Registers_arm64>::getFloatReg(int)
PUBLIC 2037c 0 libunwind::UnwindCursor<libunwind::LocalAddressSpace, libunwind::Registers_arm64>::setFloatReg(int, double)
PUBLIC 2038c 0 libunwind::UnwindCursor<libunwind::LocalAddressSpace, libunwind::Registers_arm64>::step(bool)
PUBLIC 2047c 0 libunwind::UnwindCursor<libunwind::LocalAddressSpace, libunwind::Registers_arm64>::getInfo(unw_proc_info_t*)
PUBLIC 204c0 0 libunwind::UnwindCursor<libunwind::LocalAddressSpace, libunwind::Registers_arm64>::jumpto()
PUBLIC 204cc 0 libunwind::UnwindCursor<libunwind::LocalAddressSpace, libunwind::Registers_arm64>::isSignalFrame()
PUBLIC 204d8 0 libunwind::UnwindCursor<libunwind::LocalAddressSpace, libunwind::Registers_arm64>::getFunctionName(char*, unsigned long, unsigned long*)
PUBLIC 20504 0 libunwind::UnwindCursor<libunwind::LocalAddressSpace, libunwind::Registers_arm64>::setInfoBasedOnIPRegister(bool)
PUBLIC 20784 0 libunwind::UnwindCursor<libunwind::LocalAddressSpace, libunwind::Registers_arm64>::getRegisterName(int)
PUBLIC 20790 0 libunwind::UnwindCursor<libunwind::LocalAddressSpace, libunwind::Registers_arm64>::stepThroughSigReturn(libunwind::Registers_arm64&)
PUBLIC 208b0 0 libunwind::DwarfInstructions<libunwind::LocalAddressSpace, libunwind::Registers_arm64>::stepWithDwarf(libunwind::LocalAddressSpace&, unsigned long, unsigned long, libunwind::Registers_arm64&, bool&, bool)
PUBLIC 20d38 0 libunwind::CFI_Parser<libunwind::LocalAddressSpace>::parseFDEInstructions(libunwind::LocalAddressSpace&, libunwind::CFI_Parser<libunwind::LocalAddressSpace>::FDE_Info const&, libunwind::CFI_Parser<libunwind::LocalAddressSpace>::CIE_Info const&, unsigned long, int, libunwind::CFI_Parser<libunwind::LocalAddressSpace>::PrologInfo*)
PUBLIC 21980 0 libunwind::DwarfInstructions<libunwind::LocalAddressSpace, libunwind::Registers_arm64>::getCFA(libunwind::LocalAddressSpace&, libunwind::CFI_Parser<libunwind::LocalAddressSpace>::PrologInfo const&, libunwind::Registers_arm64 const&)
PUBLIC 21ab4 0 libunwind::DwarfInstructions<libunwind::LocalAddressSpace, libunwind::Registers_arm64>::getSavedRegister(libunwind::LocalAddressSpace&, libunwind::Registers_arm64 const&, unsigned long, libunwind::CFI_Parser<libunwind::LocalAddressSpace>::RegisterLocation const&)
PUBLIC 21cc4 0 libunwind::LocalAddressSpace::getEncodedP(unsigned long&, unsigned long, unsigned char, unsigned long)
PUBLIC 22050 0 libunwind::LocalAddressSpace::getULEB128(unsigned long&, unsigned long)
PUBLIC 22218 0 libunwind::DwarfInstructions<libunwind::LocalAddressSpace, libunwind::Registers_arm64>::evaluateExpression(unsigned long, libunwind::LocalAddressSpace&, libunwind::Registers_arm64 const&, unsigned long)
PUBLIC 22bd4 0 libunwind::UnwindCursor<libunwind::LocalAddressSpace, libunwind::Registers_arm64>::getInfoFromDwarfSection(unsigned long, libunwind::UnwindInfoSections const&, unsigned int)
PUBLIC 22ea8 0 libunwind::findUnwindSectionsByPhdr(dl_phdr_info*, unsigned long, void*)
PUBLIC 22fdc 0 libunwind::EHHeaderParser<libunwind::LocalAddressSpace>::decodeEHHdr(libunwind::LocalAddressSpace&, unsigned long, unsigned long, libunwind::EHHeaderParser<libunwind::LocalAddressSpace>::EHHeaderInfo&)
PUBLIC 230fc 0 libunwind::CFI_Parser<libunwind::LocalAddressSpace>::findFDE(libunwind::LocalAddressSpace&, unsigned long, unsigned long, unsigned long, unsigned long, libunwind::CFI_Parser<libunwind::LocalAddressSpace>::FDE_Info*, libunwind::CFI_Parser<libunwind::LocalAddressSpace>::CIE_Info*)
PUBLIC 232c4 0 libunwind::EHHeaderParser<libunwind::LocalAddressSpace>::findFDE(libunwind::LocalAddressSpace&, unsigned long, unsigned long, unsigned int, libunwind::CFI_Parser<libunwind::LocalAddressSpace>::FDE_Info*, libunwind::CFI_Parser<libunwind::LocalAddressSpace>::CIE_Info*)
PUBLIC 2342c 0 libunwind::EHHeaderParser<libunwind::LocalAddressSpace>::getTableEntrySize(unsigned char)
PUBLIC 23528 0 libunwind::Registers_arm64::getRegisterName(int)
PUBLIC 23558 0 __libunwind_Registers_arm64_jumpto
PUBLIC m 235e8 0 __unw_getcontext
PUBLIC 23690 0 __aarch64_ldadd8_relax
PUBLIC 236c0 0 init_have_lse_atomics
PUBLIC 23758 0 __init_cpu_features_constructor
PUBLIC 23cf4 0 __init_cpu_features
PUBLIC 23d80 0 __aarch64_ldadd8_acq_rel
PUBLIC 23db0 0 TexturePackCell::init(TexturePackCell::CreateArg const&)
PUBLIC 24184 0 updateGroundColorM(cocos2d::CCSpriteBatchNode*, cocos2d::_ccColor3B const&)
PUBLIC 242ac 0 __cxx_global_var_init
PUBLIC 24708 0 __cxx_global_var_init.3
PUBLIC 24b64 0 __cxx_global_var_init.4
PUBLIC 24fc0 0 __cxx_global_var_init.5
PUBLIC 2541c 0 __cxx_global_var_init.6
PUBLIC 25878 0 __cxx_global_var_init.7
PUBLIC 25cd4 0 __cxx_global_var_init.8
PUBLIC 26130 0 __cxx_global_var_init.9
PUBLIC 2658c 0 geode::modifier::ModifyBase<geode::modifier::ModifyDerive<hook61<(anonymous namespace)::hook61Parent>, GJListLayer> >::~ModifyBase()
PUBLIC 265a4 0 geode::modifier::ModifyBase<geode::modifier::ModifyDerive<hook80<(anonymous namespace)::hook80Parent>, AppDelegate> >::~ModifyBase()
PUBLIC 265bc 0 geode::modifier::ModifyBase<geode::modifier::ModifyDerive<hook118<(anonymous namespace)::hook118Parent>, cocos2d::CCLayerColor> >::~ModifyBase()
PUBLIC 265d4 0 geode::modifier::ModifyBase<geode::modifier::ModifyDerive<hook155<(anonymous namespace)::hook155Parent>, cocos2d::extension::CCScale9Sprite> >::~ModifyBase()
PUBLIC 265ec 0 geode::modifier::ModifyBase<geode::modifier::ModifyDerive<hook180<(anonymous namespace)::hook180Parent>, MenuGameLayer> >::~ModifyBase()
PUBLIC 26604 0 geode::modifier::ModifyBase<geode::modifier::ModifyDerive<hook220<(anonymous namespace)::hook220Parent>, LevelInfoLayer> >::~ModifyBase()
PUBLIC 2661c 0 geode::modifier::ModifyBase<geode::modifier::ModifyDerive<hook247<(anonymous namespace)::hook247Parent>, LevelSelectLayer> >::~ModifyBase()
PUBLIC 26634 0 geode::modifier::ModifyBase<geode::modifier::ModifyDerive<hook281<(anonymous namespace)::hook281Parent>, LevelSearchLayer> >::~ModifyBase()
PUBLIC 2664c 0 __cxx_global_var_init.10
PUBLIC 26ad0 0 geode::modifier::ModifyBase<geode::modifier::ModifyDerive<DarkModeMenuLayer, MenuLayer> >::~ModifyBase()
PUBLIC 26ae8 0 cocos2d::CCCopying::copyWithZone(cocos2d::CCZone*)
PUBLIC 26af0 0 TexturePackCell::~TexturePackCell()
PUBLIC 26b14 0 {virtual override thunk({offset(-320)}, TexturePackCell::~TexturePackCell())}
PUBLIC 26b1c 0 {virtual override thunk({offset(-320)}, TexturePackCell::~TexturePackCell())}
PUBLIC 26b44 0 cocos2d::CCKeyboardDelegate::keyUp(cocos2d::enumKeyCodes)
PUBLIC 26b48 0 cocos2d::CCMouseDelegate::rightKeyDown()
PUBLIC 26b4c 0 cocos2d::CCMouseDelegate::rightKeyUp()
PUBLIC 26b50 0 cocos2d::CCMouseDelegate::scrollWheel(float, float)
PUBLIC 26b54 0 geode::modifier::ModifyDerive<hook61<(anonymous namespace)::hook61Parent>, GJListLayer>::apply()
PUBLIC 26f48 0 std::__ndk1::shared_ptr<geode::Hook>::~shared_ptr[abi:ne180000]()
PUBLIC 26f98 0 geode::impl::ResultData<geode::Hook*, std::__ndk1::basic_string<char, std::__ndk1::char_traits<char>, std::__ndk1::allocator<char> > >::~ResultData()
PUBLIC 2700c 0 std::__ndk1::vector<std::__ndk1::basic_string<char, std::__ndk1::char_traits<char>, std::__ndk1::allocator<char> >, std::__ndk1::allocator<std::__ndk1::basic_string<char, std::__ndk1::char_traits<char>, std::__ndk1::allocator<char> > > >::~vector[abi:ne180000]()
PUBLIC 27088 0 geode::modifier::ModifyBase<geode::modifier::ModifyDerive<hook61<(anonymous namespace)::hook61Parent>, GJListLayer> >::apply()
PUBLIC 2708c 0 __clang_call_terminate
PUBLIC 2709c 0 _ZN5geode15UnwrapExceptionC2IRPNS_4HookEQsr4implE18IsStringStreamableIT_EEENS_4impl5OkTagEOS5_
PUBLIC 271f0 0 std::__ndk1::__throw_bad_variant_access[abi:ne180000]()
PUBLIC 27224 0 std::__ndk1::basic_stringstream<char, std::__ndk1::char_traits<char>, std::__ndk1::allocator<char> >::basic_stringstream[abi:ne180000]()
PUBLIC m 27350 0 std::__ndk1::basic_stringstream<char, std::__ndk1::char_traits<char>, std::__ndk1::allocator<char> >::~basic_stringstream()
PUBLIC 273d0 0 geode::UnwrapException::~UnwrapException()
PUBLIC 273f4 0 std::__ndk1::__put_character_sequence[abi:ne180000]<char, std::__ndk1::char_traits<char> >(std::__ndk1::basic_ostream<char, std::__ndk1::char_traits<char> >, std::__ndk1::basic_ostream const*, unsigned long)
PUBLIC 27598 0 std::__ndk1::__pad_and_output[abi:ne180000]<char, std::__ndk1::char_traits<char> >(std::__ndk1::char_traits<char>, std::__ndk1::ostreambuf_iterator const*, std::__ndk1::ostreambuf_iterator const, std::__ndk1::ostreambuf_iterator const, std::__ndk1::ios_base&, std::__ndk1::ostreambuf_iterator)
PUBLIC 27774 0 std::__ndk1::basic_string<char, std::__ndk1::char_traits<char>, std::__ndk1::allocator<char> >::__throw_length_error[abi:ne180000]() const
PUBLIC 27788 0 std::__ndk1::__throw_length_error[abi:ne180000](char const*)
PUBLIC 277d8 0 std::length_error::length_error[abi:ne180000](char const*)
PUBLIC 27808 0 std::__throw_bad_array_new_length([abi:ne180000], void)
PUBLIC 2783c 0 std::__ndk1::basic_stringbuf<char, std::__ndk1::char_traits<char>, std::__ndk1::allocator<char> >::str[abi:ne180000]() &&
PUBLIC 279b4 0 std::__ndk1::basic_stringbuf<char, std::__ndk1::char_traits<char>, std::__ndk1::allocator<char> >::__init_buf_ptrs[abi:ne180000]()
PUBLIC 27afc 0 std::__ndk1::vector<std::__ndk1::basic_string<char, std::__ndk1::char_traits<char>, std::__ndk1::allocator<char> >, std::__ndk1::allocator<std::__ndk1::basic_string<char, std::__ndk1::char_traits<char>, std::__ndk1::allocator<char> > > >::__push_back_slow_path<std::__ndk1::basic_string<char, std::__ndk1::char_traits<char>, std::__ndk1::allocator<char> > const&>(std::__ndk1::basic_string<char, std::__ndk1::char_traits<char>, std::__ndk1::allocator<char> > const&)
PUBLIC 27d20 0 std::__ndk1::basic_string<char, std::__ndk1::char_traits<char>, std::__ndk1::allocator<char> >::__init_copy_ctor_external(char const*, unsigned long)
PUBLIC 27da0 0 std::__ndk1::__split_buffer<std::__ndk1::basic_string<char, std::__ndk1::char_traits<char>, std::__ndk1::allocator<char> >, std::__ndk1::allocator<std::__ndk1::basic_string<char, std::__ndk1::char_traits<char>, std::__ndk1::allocator<char> > >&>::~__split_buffer()
PUBLIC 27e08 0 std::__ndk1::vector<std::__ndk1::basic_string<char, std::__ndk1::char_traits<char>, std::__ndk1::allocator<char> >, std::__ndk1::allocator<std::__ndk1::basic_string<char, std::__ndk1::char_traits<char>, std::__ndk1::allocator<char> > > >::__throw_length_error[abi:ne180000]() const
PUBLIC 27e1c 0 std::__ndk1::__variant_detail::__visitation::__base::__dispatcher<(unsigned long)0>::__dispatch[abi:ne180000]<std::__ndk1::__variant_detail::__dtor<std::__ndk1::__variant_detail::__traits<geode::Hook*, std::__ndk1::basic_string<char, std::__ndk1::char_traits<char>, std::__ndk1::allocator<char> > >, (std::__ndk1::__variant_detail::_Trait)1>::__destroy[abi:ne180000]()::{lambda(auto:1&)#1}, std::__ndk1::__variant_detail::__base<(std::__ndk1::__variant_detail::__traits<geode::Hook*, std::__ndk1::basic_string<char, std::__ndk1::char_traits<char>, std::__ndk1::allocator<char> > >)1, geode::Hook, std::__ndk1::allocator<char> >&>(std::__ndk1::__variant_detail::__dtor<std::__ndk1::__variant_detail::__traits<geode::Hook*, std::__ndk1::basic_string<char, std::__ndk1::char_traits<char>, std::__ndk1::allocator<char> > >, (std::__ndk1::__variant_detail::_Trait)1>, std::__ndk1::__variant_detail::__base<(std::__ndk1::__variant_detail::__traits<geode::Hook*, std::__ndk1::basic_string<char, std::__ndk1::char_traits<char>, std::__ndk1::allocator<char> > >)1, geode::Hook, std::__ndk1::allocator<char> >&)
PUBLIC 27e20 0 std::__ndk1::__variant_detail::__visitation::__base::__dispatcher<(unsigned long)1>::__dispatch[abi:ne180000]<std::__ndk1::__variant_detail::__dtor<std::__ndk1::__variant_detail::__traits<geode::Hook*, std::__ndk1::basic_string<char, std::__ndk1::char_traits<char>, std::__ndk1::allocator<char> > >, (std::__ndk1::__variant_detail::_Trait)1>::__destroy[abi:ne180000]()::{lambda(auto:1&)#1}, std::__ndk1::__variant_detail::__base<(std::__ndk1::__variant_detail::__traits<geode::Hook*, std::__ndk1::basic_string<char, std::__ndk1::char_traits<char>, std::__ndk1::allocator<char> > >)1, geode::Hook, std::__ndk1::allocator<char> >&>(std::__ndk1::__variant_detail::__dtor<std::__ndk1::__variant_detail::__traits<geode::Hook*, std::__ndk1::basic_string<char, std::__ndk1::char_traits<char>, std::__ndk1::allocator<char> > >, (std::__ndk1::__variant_detail::_Trait)1>, std::__ndk1::__variant_detail::__base<(std::__ndk1::__variant_detail::__traits<geode::Hook*, std::__ndk1::basic_string<char, std::__ndk1::char_traits<char>, std::__ndk1::allocator<char> > >)1, geode::Hook, std::__ndk1::allocator<char> >&)
PUBLIC 27e34 0 std::__ndk1::__tree<std::__ndk1::__value_type<std::__ndk1::basic_string<char, std::__ndk1::char_traits<char>, std::__ndk1::allocator<char> >, std::__ndk1::shared_ptr<geode::Hook> >, std::__ndk1::__map_value_compare<std::__ndk1::basic_string<char, std::__ndk1::char_traits<char>, std::__ndk1::allocator<char> >, std::__ndk1::__value_type<std::__ndk1::basic_string<char, std::__ndk1::char_traits<char>, std::__ndk1::allocator<char> >, std::__ndk1::shared_ptr<geode::Hook> >, std::__ndk1::less<std::__ndk1::basic_string<char, std::__ndk1::char_traits<char>, std::__ndk1::allocator<char> > >, true>, std::__ndk1::allocator<std::__ndk1::__value_type<std::__ndk1::basic_string<char, std::__ndk1::char_traits<char>, std::__ndk1::allocator<char> >, std::__ndk1::shared_ptr<geode::Hook> > > >::find<std::__ndk1::basic_string<char, std::__ndk1::char_traits<char>, std::__ndk1::allocator<char> > >(std::__ndk1::basic_string<char, std::__ndk1::char_traits<char>, std::__ndk1::allocator<char> > const&)
PUBLIC 27f54 0 std::__ndk1::__tree<std::__ndk1::__value_type<std::__ndk1::basic_string<char, std::__ndk1::char_traits<char>, std::__ndk1::allocator<char> >, std::__ndk1::shared_ptr<geode::Hook> >, std::__ndk1::__map_value_compare<std::__ndk1::basic_string<char, std::__ndk1::char_traits<char>, std::__ndk1::allocator<char> >, std::__ndk1::__value_type<std::__ndk1::basic_string<char, std::__ndk1::char_traits<char>, std::__ndk1::allocator<char> >, std::__ndk1::shared_ptr<geode::Hook> >, std::__ndk1::less<std::__ndk1::basic_string<char, std::__ndk1::char_traits<char>, std::__ndk1::allocator<char> > >, true>, std::__ndk1::allocator<std::__ndk1::__value_type<std::__ndk1::basic_string<char, std::__ndk1::char_traits<char>, std::__ndk1::allocator<char> >, std::__ndk1::shared_ptr<geode::Hook> > > >::erase(std::__ndk1::__tree_const_iterator<std::__ndk1::__value_type<std::__ndk1::basic_string<char, std::__ndk1::char_traits<char>, std::__ndk1::allocator<char> >, std::__ndk1::shared_ptr<geode::Hook> >, std::__ndk1::__tree_node<std::__ndk1::__value_type<std::__ndk1::basic_string<char, std::__ndk1::char_traits<char>, std::__ndk1::allocator<char> >, std::__ndk1::shared_ptr<geode::Hook> >, void*>*, long>)
PUBLIC 283f8 0 std::__ndk1::__tree<std::__ndk1::__value_type<std::__ndk1::basic_string<char, std::__ndk1::char_traits<char>, std::__ndk1::allocator<char> >, std::__ndk1::shared_ptr<geode::Hook> >, std::__ndk1::__map_value_compare<std::__ndk1::basic_string<char, std::__ndk1::char_traits<char>, std::__ndk1::allocator<char> >, std::__ndk1::__value_type<std::__ndk1::basic_string<char, std::__ndk1::char_traits<char>, std::__ndk1::allocator<char> >, std::__ndk1::shared_ptr<geode::Hook> >, std::__ndk1::less<std::__ndk1::basic_string<char, std::__ndk1::char_traits<char>, std::__ndk1::allocator<char> > >, true>, std::__ndk1::allocator<std::__ndk1::__value_type<std::__ndk1::basic_string<char, std::__ndk1::char_traits<char>, std::__ndk1::allocator<char> >, std::__ndk1::shared_ptr<geode::Hook> > > >::destroy(std::__ndk1::__tree_node<std::__ndk1::__value_type<std::__ndk1::basic_string<char, std::__ndk1::char_traits<char>, std::__ndk1::allocator<char> >, std::__ndk1::shared_ptr<geode::Hook> >, void*>*)
PUBLIC 2847c 0 geode::modifier::AsStaticFunction_create<hook61<(anonymous namespace)::hook61Parent>, GJListLayer* (*)(BoomListView*, char const*, cocos2d::_ccColor4B, float, float, int)>::Impl<GJListLayer* (*)(BoomListView*, char const*, cocos2d::_ccColor4B, float, float, int)>::function(BoomListView*, char const*, cocos2d::_ccColor4B, float, float, int)
PUBLIC 28520 0 std::__ndk1::shared_ptr<tulip::hook::CallingConvention>::~shared_ptr[abi:ne180000]()
PUBLIC 28570 0 tulip::hook::HandlerMetadata::~HandlerMetadata()
PUBLIC 285d4 0 std::__ndk1::vector<tulip::hook::AbstractType, std::__ndk1::allocator<tulip::hook::AbstractType> >::__throw_length_error[abi:ne180000]() const
PUBLIC 285e8 0 std::__ndk1::__tree<std::__ndk1::__value_type<std::__ndk1::basic_string<char, std::__ndk1::char_traits<char>, std::__ndk1::allocator<char> >, std::__ndk1::shared_ptr<geode::Hook> >, std::__ndk1::__map_value_compare<std::__ndk1::basic_string<char, std::__ndk1::char_traits<char>, std::__ndk1::allocator<char> >, std::__ndk1::__value_type<std::__ndk1::basic_string<char, std::__ndk1::char_traits<char>, std::__ndk1::allocator<char> >, std::__ndk1::shared_ptr<geode::Hook> >, std::__ndk1::less<std::__ndk1::basic_string<char, std::__ndk1::char_traits<char>, std::__ndk1::allocator<char> > >, true>, std::__ndk1::allocator<std::__ndk1::__value_type<std::__ndk1::basic_string<char, std::__ndk1::char_traits<char>, std::__ndk1::allocator<char> >, std::__ndk1::shared_ptr<geode::Hook> > > >::__emplace_unique_key_args<std::__ndk1::basic_string<char, std::__ndk1::char_traits<char>, std::__ndk1::allocator<char> >, std::__ndk1::piecewise_construct_t const&, std::__ndk1::tuple<std::__ndk1::basic_string<char, std::__ndk1::char_traits<char>, std::__ndk1::allocator<char> >&&>, std::__ndk1::tuple<> >(std::__ndk1::basic_string<char, std::__ndk1::char_traits<char>, std::__ndk1::allocator<char> > const&, std::__ndk1::piecewise_construct_t const&, std::__ndk1::tuple<std::__ndk1::basic_string<char, std::__ndk1::char_traits<char>, std::__ndk1::allocator<char> >&&>, std::__ndk1::tuple<>)
PUBLIC 28750 0 std::__ndk1::__tree_balance_after_insert[abi:ne180000]<std::__ndk1::__tree_node_base<void*>*>(std::__ndk1::__tree_node_base<void*>*, std::__ndk1::__tree_node_base<void*>*)
PUBLIC 28900 0 geode::modifier::ModifyDerive<hook80<(anonymous namespace)::hook80Parent>, AppDelegate>::apply()
PUBLIC 28c6c 0 geode::modifier::ModifyBase<geode::modifier::ModifyDerive<hook80<(anonymous namespace)::hook80Parent>, AppDelegate> >::apply()
PUBLIC 28c70 0 geode::modifier::AsStaticFunction_willSwitchToScene<hook80<(anonymous namespace)::hook80Parent>, void (hook80<(anonymous namespace)::hook80Parent>::*)(cocos2d::CCScene*)>::Impl<void (hook80<(anonymous namespace)::hook80Parent>::*)(cocos2d::CCScene*)>::function(hook80<(anonymous namespace)::hook80Parent>*, cocos2d::CCScene*)
PUBLIC 28f14 0 geode::addresser::Addresser::addressOfVirtual<void, AppDelegate, cocos2d::CCScene*>(void (AppDelegate::*)(cocos2d::CCScene*))
PUBLIC 28fd4 0 geode::cast::traverseTypeinfoFor(void*, geode::cast::ClassTypeinfoType const*, char const*)
PUBLIC 290cc 0 geode::modifier::ModifyDerive<hook118<(anonymous namespace)::hook118Parent>, cocos2d::CCLayerColor>::apply()
PUBLIC 293f0 0 geode::modifier::ModifyBase<geode::modifier::ModifyDerive<hook118<(anonymous namespace)::hook118Parent>, cocos2d::CCLayerColor> >::apply()
PUBLIC 293f4 0 geode::modifier::AsStaticFunction_draw<hook118<(anonymous namespace)::hook118Parent>, void (hook118<(anonymous namespace)::hook118Parent>::*)()>::Impl<void (hook118<(anonymous namespace)::hook118Parent>::*)()>::function(hook118<(anonymous namespace)::hook118Parent>*)
PUBLIC 29640 0 geode::addresser::Addresser::addressOfVirtual<void, cocos2d::CCLayerColor, >(void (cocos2d::CCLayerColor::*)())
PUBLIC 296e8 0 cocos2d::CCLayerColor::CCLayerColor(geode::ZeroConstructorType)
PUBLIC 29768 0 std::__ndk1::map<cocos2d::_ccColor3B, cocos2d::_ccColor3B, ColorComparator, std::__ndk1::allocator<std::__ndk1::pair<cocos2d::_ccColor3B const, cocos2d::_ccColor3B> > >::map[abi:ne180000](std::initializer_list<std::__ndk1::pair<cocos2d::_ccColor3B const, cocos2d::_ccColor3B> >, ColorComparator const&)
PUBLIC 2998c 0 std::__ndk1::map<cocos2d::_ccColor3B, cocos2d::_ccColor3B, ColorComparator, std::__ndk1::allocator<std::__ndk1::pair<cocos2d::_ccColor3B const, cocos2d::_ccColor3B> > >::~map[abi:ne180000]()
PUBLIC 29994 0 std::__ndk1::__tree<std::__ndk1::__value_type<cocos2d::_ccColor3B, cocos2d::_ccColor3B>, std::__ndk1::__map_value_compare<cocos2d::_ccColor3B, std::__ndk1::__value_type<cocos2d::_ccColor3B, cocos2d::_ccColor3B>, ColorComparator, true>, std::__ndk1::allocator<std::__ndk1::__value_type<cocos2d::_ccColor3B, cocos2d::_ccColor3B> > >::destroy(std::__ndk1::__tree_node<std::__ndk1::__value_type<cocos2d::_ccColor3B, cocos2d::_ccColor3B>, void*>*)
PUBLIC 299d0 0 geode::modifier::ModifyDerive<hook155<(anonymous namespace)::hook155Parent>, cocos2d::extension::CCScale9Sprite>::apply()
PUBLIC 29cf8 0 geode::modifier::ModifyBase<geode::modifier::ModifyDerive<hook155<(anonymous namespace)::hook155Parent>, cocos2d::extension::CCScale9Sprite> >::apply()
PUBLIC 29cfc 0 geode::modifier::AsStaticFunction_visit<hook155<(anonymous namespace)::hook155Parent>, void (hook155<(anonymous namespace)::hook155Parent>::*)()>::Impl<void (hook155<(anonymous namespace)::hook155Parent>::*)()>::function(hook155<(anonymous namespace)::hook155Parent>*)
PUBLIC 29f40 0 geode::addresser::Addresser::addressOfVirtual<void, cocos2d::extension::CCScale9Sprite, >(void (cocos2d::extension::CCScale9Sprite::*)())
PUBLIC 29fe8 0 cocos2d::extension::CCScale9Sprite::CCScale9Sprite(geode::ZeroConstructorType)
PUBLIC 2a060 0 geode::modifier::ModifyDerive<hook180<(anonymous namespace)::hook180Parent>, MenuGameLayer>::apply()
PUBLIC 2a3a4 0 geode::modifier::ModifyBase<geode::modifier::ModifyDerive<hook180<(anonymous namespace)::hook180Parent>, MenuGameLayer> >::apply()
PUBLIC 2a3a8 0 geode::modifier::AsStaticFunction_update<hook180<(anonymous namespace)::hook180Parent>, void (hook180<(anonymous namespace)::hook180Parent>::*)(float)>::Impl<void (hook180<(anonymous namespace)::hook180Parent>::*)(float)>::function(hook180<(anonymous namespace)::hook180Parent>*, float)
PUBLIC 2a6c0 0 geode::addresser::Addresser::addressOfVirtual<void, MenuGameLayer, float>(void (MenuGameLayer::*)(float))
PUBLIC 2a768 0 MenuGameLayer::MenuGameLayer(geode::ZeroConstructorType)
PUBLIC 2a800 0 geode::modifier::ModifyDerive<hook220<(anonymous namespace)::hook220Parent>, LevelInfoLayer>::apply()
PUBLIC 2ab4c 0 geode::modifier::ModifyBase<geode::modifier::ModifyDerive<hook220<(anonymous namespace)::hook220Parent>, LevelInfoLayer> >::apply()
PUBLIC 2ab50 0 geode::modifier::AsStaticFunction_onPlay<hook220<(anonymous namespace)::hook220Parent>, void (hook220<(anonymous namespace)::hook220Parent>::*)(cocos2d::CCObject*)>::Impl<void (hook220<(anonymous namespace)::hook220Parent>::*)(cocos2d::CCObject*)>::function(hook220<(anonymous namespace)::hook220Parent>*, cocos2d::CCObject*)
PUBLIC 2ad4c 0 geode::modifier::ModifyDerive<hook247<(anonymous namespace)::hook247Parent>, LevelSelectLayer>::apply()
PUBLIC 2b0bc 0 geode::modifier::ModifyBase<geode::modifier::ModifyDerive<hook247<(anonymous namespace)::hook247Parent>, LevelSelectLayer> >::apply()
PUBLIC 2b0c0 0 geode::modifier::AsStaticFunction_scrollLayerMoved<hook247<(anonymous namespace)::hook247Parent>, void (hook247<(anonymous namespace)::hook247Parent>::*)(cocos2d::CCPoint)>::Impl<void (hook247<(anonymous namespace)::hook247Parent>::*)(cocos2d::CCPoint)>::function(hook247<(anonymous namespace)::hook247Parent>*, cocos2d::CCPoint)
PUBLIC 2b39c 0 geode::addresser::Addresser::addressOfVirtual<void, LevelSelectLayer, cocos2d::CCPoint>(void (LevelSelectLayer::*)(cocos2d::CCPoint))
PUBLIC 2b444 0 LevelSelectLayer::LevelSelectLayer(geode::ZeroConstructorType)
PUBLIC 2b4e0 0 geode::modifier::ModifyDerive<hook281<(anonymous namespace)::hook281Parent>, LevelSearchLayer>::apply()
PUBLIC 2b82c 0 geode::modifier::ModifyBase<geode::modifier::ModifyDerive<hook281<(anonymous namespace)::hook281Parent>, LevelSearchLayer> >::apply()
PUBLIC 2b830 0 geode::modifier::AsStaticFunction_init<hook281<(anonymous namespace)::hook281Parent>, bool (hook281<(anonymous namespace)::hook281Parent>::*)(int)>::Impl<bool (hook281<(anonymous namespace)::hook281Parent>::*)(int)>::function(hook281<(anonymous namespace)::hook281Parent>*, int)
PUBLIC 2b868 0 geode::modifier::ModifyDerive<DarkModeMenuLayer, MenuLayer>::apply()
PUBLIC 2bb5c 0 geode::modifier::ModifyBase<geode::modifier::ModifyDerive<DarkModeMenuLayer, MenuLayer> >::apply()
PUBLIC 2bb60 0 geode::modifier::AsStaticFunction_init<DarkModeMenuLayer, bool (DarkModeMenuLayer::*)()>::Impl<bool (DarkModeMenuLayer::*)()>::function(DarkModeMenuLayer*)
PUBLIC 2bdf4 0 geode::addresser::Addresser::addressOfVirtual<bool, MenuLayer, >(bool (MenuLayer::*)())
PUBLIC 2be9c 0 MenuLayer::MenuLayer(geode::ZeroConstructorType)
PUBLIC 2bf38 0 DarkModeMenuLayer::onMyButton(cocos2d::CCObject*)
PUBLIC 2cd0c 0 geode::Task<geode::utils::web::WebResponse, geode::utils::web::WebProgress>::~Task()
PUBLIC 2cd5c 0 std::__ndk1::vector<std::__ndk1::basic_string<char, std::__ndk1::char_traits<char>, std::__ndk1::allocator<char> >, std::__ndk1::allocator<std::__ndk1::basic_string<char, std::__ndk1::char_traits<char>, std::__ndk1::allocator<char> > > >::vector[abi:ne180000](std::initializer_list<std::__ndk1::basic_string<char, std::__ndk1::char_traits<char>, std::__ndk1::allocator<char> > >)
PUBLIC 2ceb0 0 geode::EventListener<geode::Task<geode::utils::web::WebResponse, geode::utils::web::WebProgress> >::~EventListener()
PUBLIC 2cf4c 0 TexturePackSelector::~TexturePackSelector()
PUBLIC 2d200 0 TexturePackSelector::~TexturePackSelector()
PUBLIC 2d224 0 TexturePackSelector::init()
PUBLIC 2d258 0 geode::Popup<std::__ndk1::basic_string<char, std::__ndk1::char_traits<char>, std::__ndk1::allocator<char> > const&>::registerWithTouchDispatcher()
PUBLIC 2d284 0 geode::Popup<std::__ndk1::basic_string<char, std::__ndk1::char_traits<char>, std::__ndk1::allocator<char> > const&>::keyDown(cocos2d::enumKeyCodes)
PUBLIC 2d2ac 0 cocos2d::CCLayerRGBA::setOpacityModifyRGB(bool)
PUBLIC 2d2b0 0 cocos2d::CCLayerRGBA::isOpacityModifyRGB()
PUBLIC 2d2b8 0 TexturePackSelector::setup(std::__ndk1::basic_string<char, std::__ndk1::char_traits<char>, std::__ndk1::allocator<char> > const&)
PUBLIC 2dac0 0 geode::Popup<std::__ndk1::basic_string<char, std::__ndk1::char_traits<char>, std::__ndk1::allocator<char> > const&>::onClose(cocos2d::CCObject*)
PUBLIC 2dc08 0 {virtual override thunk({offset(-320)}, TexturePackSelector::~TexturePackSelector())}
PUBLIC 2dc10 0 {virtual override thunk({offset(-320)}, TexturePackSelector::~TexturePackSelector())}
PUBLIC 2dc38 0 {virtual override thunk({offset(-344)}, geode::Popup<std::__ndk1::basic_string<char, std::__ndk1::char_traits<char>, std::__ndk1::allocator<char> > const&>::keyDown(cocos2d::enumKeyCodes))}
PUBLIC 2dc64 0 {virtual override thunk({offset(-408)}, cocos2d::CCLayerRGBA::setOpacityModifyRGB(bool))}
PUBLIC 2dc68 0 {virtual override thunk({offset(-408)}, cocos2d::CCLayerRGBA::isOpacityModifyRGB())}
PUBLIC 2dc70 0 geode::Popup<std::__ndk1::basic_string<char, std::__ndk1::char_traits<char>, std::__ndk1::allocator<char> > const&>::~Popup()
PUBLIC 2dcdc 0 geode::Popup<std::__ndk1::basic_string<char, std::__ndk1::char_traits<char>, std::__ndk1::allocator<char> > const&>::~Popup()
PUBLIC 2dce0 0 {virtual override thunk({offset(-320)}, geode::Popup<std::__ndk1::basic_string<char, std::__ndk1::char_traits<char>, std::__ndk1::allocator<char> > const&>::~Popup())}
PUBLIC 2dd4c 0 {virtual override thunk({offset(-320)}, geode::Popup<std::__ndk1::basic_string<char, std::__ndk1::char_traits<char>, std::__ndk1::allocator<char> > const&>::~Popup())}
PUBLIC 2dd50 0 geode::Task<geode::utils::web::WebResponse, geode::utils::web::WebProgress>::setListener(geode::EventListenerProtocol*)
PUBLIC 2df54 0 geode::EventListener<geode::Task<geode::utils::web::WebResponse, geode::utils::web::WebProgress> >::getPool() const
PUBLIC 2df58 0 geode::EventListener<geode::Task<geode::utils::web::WebResponse, geode::utils::web::WebProgress> >::handle(geode::Event*)
PUBLIC 2e104 0 geode::EventListener<geode::Task<geode::utils::web::WebResponse, geode::utils::web::WebProgress> >::~EventListener()
PUBLIC 2e1a8 0 geode::Task<geode::utils::web::WebResponse, geode::utils::web::WebProgress>::setListener(geode::EventListenerProtocol*)::{lambda()#1}::~{lambda()#1}()
PUBLIC 2e1f8 0 geode::Task<geode::utils::web::WebResponse, geode::utils::web::WebProgress>::setListener(geode::EventListenerProtocol*)::{lambda()#2}::~{lambda()#2}()
PUBLIC 2e248 0 std::__ndk1::__function::__func<geode::Task<geode::utils::web::WebResponse, geode::utils::web::WebProgress>::setListener(geode::EventListenerProtocol*)::{lambda()#1}, std::__ndk1::allocator<geode::Task<geode::utils::web::WebResponse, geode::utils::web::WebProgress>::setListener(geode::EventListenerProtocol*)::{lambda()#1}>, void ()>::~__func()
PUBLIC 2e2a4 0 std::__ndk1::__function::__func<geode::Task<geode::utils::web::WebResponse, geode::utils::web::WebProgress>::setListener(geode::EventListenerProtocol*)::{lambda()#1}, std::__ndk1::allocator<geode::Task<geode::utils::web::WebResponse, geode::utils::web::WebProgress>::setListener(geode::EventListenerProtocol*)::{lambda()#1}>, void ()>::~__func()
PUBLIC 2e310 0 std::__ndk1::__function::__func<geode::Task<geode::utils::web::WebResponse, geode::utils::web::WebProgress>::setListener(geode::EventListenerProtocol*)::{lambda()#1}, std::__ndk1::allocator<geode::Task<geode::utils::web::WebResponse, geode::utils::web::WebProgress>::setListener(geode::EventListenerProtocol*)::{lambda()#1}>, void ()>::__clone() const
PUBLIC 2e368 0 std::__ndk1::__function::__func<geode::Task<geode::utils::web::WebResponse, geode::utils::web::WebProgress>::setListener(geode::EventListenerProtocol*)::{lambda()#1}, std::__ndk1::allocator<geode::Task<geode::utils::web::WebResponse, geode::utils::web::WebProgress>::setListener(geode::EventListenerProtocol*)::{lambda()#1}>, void ()>::__clone(std::__ndk1::__function::__base<void ()>*) const
PUBLIC 2e3b4 0 std::__ndk1::__function::__func<geode::Task<geode::utils::web::WebResponse, geode::utils::web::WebProgress>::setListener(geode::EventListenerProtocol*)::{lambda()#1}, std::__ndk1::allocator<geode::Task<geode::utils::web::WebResponse, geode::utils::web::WebProgress>::setListener(geode::EventListenerProtocol*)::{lambda()#1}>, void ()>::destroy()
PUBLIC 2e404 0 std::__ndk1::__function::__func<geode::Task<geode::utils::web::WebResponse, geode::utils::web::WebProgress>::setListener(geode::EventListenerProtocol*)::{lambda()#1}, std::__ndk1::allocator<geode::Task<geode::utils::web::WebResponse, geode::utils::web::WebProgress>::setListener(geode::EventListenerProtocol*)::{lambda()#1}>, void ()>::destroy_deallocate()
PUBLIC 2e464 0 std::__ndk1::__function::__func<geode::Task<geode::utils::web::WebResponse, geode::utils::web::WebProgress>::setListener(geode::EventListenerProtocol*)::{lambda()#1}, std::__ndk1::allocator<geode::Task<geode::utils::web::WebResponse, geode::utils::web::WebProgress>::setListener(geode::EventListenerProtocol*)::{lambda()#1}>, void ()>::operator()()
PUBLIC 2e634 0 std::__ndk1::__function::__func<geode::Task<geode::utils::web::WebResponse, geode::utils::web::WebProgress>::setListener(geode::EventListenerProtocol*)::{lambda()#1}, std::__ndk1::allocator<geode::Task<geode::utils::web::WebResponse, geode::utils::web::WebProgress>::setListener(geode::EventListenerProtocol*)::{lambda()#1}>, void ()>::target(std::type_info const&) const
PUBLIC 2e650 0 std::__ndk1::__function::__func<geode::Task<geode::utils::web::WebResponse, geode::utils::web::WebProgress>::setListener(geode::EventListenerProtocol*)::{lambda()#1}, std::__ndk1::allocator<geode::Task<geode::utils::web::WebResponse, geode::utils::web::WebProgress>::setListener(geode::EventListenerProtocol*)::{lambda()#1}>, void ()>::target_type() const
PUBLIC 2e65c 0 geode::Task<geode::utils::web::WebResponse, geode::utils::web::WebProgress>::Event::~Event()
PUBLIC 2e6bc 0 geode::Task<geode::utils::web::WebResponse, geode::utils::web::WebProgress>::Event::~Event()
PUBLIC 2e72c 0 std::__ndk1::__function::__func<geode::Task<geode::utils::web::WebResponse, geode::utils::web::WebProgress>::setListener(geode::EventListenerProtocol*)::{lambda()#2}, std::__ndk1::allocator<geode::Task<geode::utils::web::WebResponse, geode::utils::web::WebProgress>::setListener(geode::EventListenerProtocol*)::{lambda()#2}>, void ()>::~__func()
PUBLIC 2e788 0 std::__ndk1::__function::__func<geode::Task<geode::utils::web::WebResponse, geode::utils::web::WebProgress>::setListener(geode::EventListenerProtocol*)::{lambda()#2}, std::__ndk1::allocator<geode::Task<geode::utils::web::WebResponse, geode::utils::web::WebProgress>::setListener(geode::EventListenerProtocol*)::{lambda()#2}>, void ()>::~__func()
PUBLIC 2e7f4 0 std::__ndk1::__function::__func<geode::Task<geode::utils::web::WebResponse, geode::utils::web::WebProgress>::setListener(geode::EventListenerProtocol*)::{lambda()#2}, std::__ndk1::allocator<geode::Task<geode::utils::web::WebResponse, geode::utils::web::WebProgress>::setListener(geode::EventListenerProtocol*)::{lambda()#2}>, void ()>::__clone() const
PUBLIC 2e84c 0 std::__ndk1::__function::__func<geode::Task<geode::utils::web::WebResponse, geode::utils::web::WebProgress>::setListener(geode::EventListenerProtocol*)::{lambda()#2}, std::__ndk1::allocator<geode::Task<geode::utils::web::WebResponse, geode::utils::web::WebProgress>::setListener(geode::EventListenerProtocol*)::{lambda()#2}>, void ()>::__clone(std::__ndk1::__function::__base<void ()>*) const
PUBLIC 2e898 0 std::__ndk1::__function::__func<geode::Task<geode::utils::web::WebResponse, geode::utils::web::WebProgress>::setListener(geode::EventListenerProtocol*)::{lambda()#2}, std::__ndk1::allocator<geode::Task<geode::utils::web::WebResponse, geode::utils::web::WebProgress>::setListener(geode::EventListenerProtocol*)::{lambda()#2}>, void ()>::destroy()
PUBLIC 2e8e8 0 std::__ndk1::__function::__func<geode::Task<geode::utils::web::WebResponse, geode::utils::web::WebProgress>::setListener(geode::EventListenerProtocol*)::{lambda()#2}, std::__ndk1::allocator<geode::Task<geode::utils::web::WebResponse, geode::utils::web::WebProgress>::setListener(geode::EventListenerProtocol*)::{lambda()#2}>, void ()>::destroy_deallocate()
PUBLIC 2e948 0 std::__ndk1::__function::__func<geode::Task<geode::utils::web::WebResponse, geode::utils::web::WebProgress>::setListener(geode::EventListenerProtocol*)::{lambda()#2}, std::__ndk1::allocator<geode::Task<geode::utils::web::WebResponse, geode::utils::web::WebProgress>::setListener(geode::EventListenerProtocol*)::{lambda()#2}>, void ()>::operator()()
PUBLIC 2eb0c 0 std::__ndk1::__function::__func<geode::Task<geode::utils::web::WebResponse, geode::utils::web::WebProgress>::setListener(geode::EventListenerProtocol*)::{lambda()#2}, std::__ndk1::allocator<geode::Task<geode::utils::web::WebResponse, geode::utils::web::WebProgress>::setListener(geode::EventListenerProtocol*)::{lambda()#2}>, void ()>::target(std::type_info const&) const
PUBLIC 2eb28 0 std::__ndk1::__function::__func<geode::Task<geode::utils::web::WebResponse, geode::utils::web::WebProgress>::setListener(geode::EventListenerProtocol*)::{lambda()#2}, std::__ndk1::allocator<geode::Task<geode::utils::web::WebResponse, geode::utils::web::WebProgress>::setListener(geode::EventListenerProtocol*)::{lambda()#2}>, void ()>::target_type() const
PUBLIC 2eb34 0 std::__ndk1::__throw_bad_function_call[abi:ne180000]()
PUBLIC 2eb68 0 std::__ndk1::bad_function_call::~bad_function_call()
PUBLIC 2eb8c 0 std::__ndk1::__exception_guard_exceptions<std::__ndk1::vector<std::__ndk1::basic_string<char, std::__ndk1::char_traits<char>, std::__ndk1::allocator<char> >, std::__ndk1::allocator<std::__ndk1::basic_string<char, std::__ndk1::char_traits<char>, std::__ndk1::allocator<char> > > >::__destroy_vector>::~__exception_guard_exceptions[abi:ne180000]()
PUBLIC 2ec18 0 std::__ndk1::__exception_guard_exceptions<std::__ndk1::_AllocatorDestroyRangeReverse<std::__ndk1::allocator<std::__ndk1::basic_string<char, std::__ndk1::char_traits<char>, std::__ndk1::allocator<char> > >, std::__ndk1::basic_string<char, std::__ndk1::char_traits<char>, std::__ndk1::allocator<char> >*> >::~__exception_guard_exceptions[abi:ne180000]()
PUBLIC 2ec78 0 TexturePackSelector::reloadData()
PUBLIC 2fbc0 0 geode::Mod::getSavedValue<matjson::Value>(std::__ndk1::basic_string_view<char, std::__ndk1::char_traits<char> >)
PUBLIC 2fd88 0 geode::impl::ResultData<std::__ndk1::basic_string<char, std::__ndk1::char_traits<char>, std::__ndk1::allocator<char> >, std::__ndk1::basic_string<char, std::__ndk1::char_traits<char>, std::__ndk1::allocator<char> > >::~ResultData()
PUBLIC 2fdfc 0 geode::Mod::setSavedValue<std::__ndk1::basic_string<char, std::__ndk1::char_traits<char>, std::__ndk1::allocator<char> > >(std::__ndk1::basic_string_view<char, std::__ndk1::char_traits<char> >, std::__ndk1::basic_string<char, std::__ndk1::char_traits<char>, std::__ndk1::allocator<char> > const&)
PUBLIC 2ff60 0 std::__ndk1::basic_string<char, std::__ndk1::char_traits<char>, std::__ndk1::allocator<char> >::__assign_external(char const*, unsigned long)
PUBLIC 30080 0 std::__ndk1::__function::__value_func<void (geode::Task<geode::utils::web::WebResponse, geode::utils::web::WebProgress>::Event*)>::swap[abi:ne180000](std::__ndk1::__function::__value_func<void (geode::Task<geode::utils::web::WebResponse, geode::utils::web::WebProgress>::Event*)>&)
PUBLIC 30218 0 std::__ndk1::__function::__base<void (geode::Task<geode::utils::web::WebResponse, geode::utils::web::WebProgress>::Event*)>::~__base()
PUBLIC 3021c 0 std::__ndk1::__function::__func<TexturePackSelector::reloadData()::{lambda(geode::Task<geode::utils::web::WebResponse, geode::utils::web::WebProgress>::Event*)#1}, std::__ndk1::allocator<TexturePackSelector::reloadData()::{lambda(geode::Task<geode::utils::web::WebResponse, geode::utils::web::WebProgress>::Event*)#1}>, void (geode::Task<geode::utils::web::WebResponse, geode::utils::web::WebProgress>::Event*)>::~__func()
PUBLIC 30220 0 std::__ndk1::__function::__func<TexturePackSelector::reloadData()::{lambda(geode::Task<geode::utils::web::WebResponse, geode::utils::web::WebProgress>::Event*)#1}, std::__ndk1::allocator<TexturePackSelector::reloadData()::{lambda(geode::Task<geode::utils::web::WebResponse, geode::utils::web::WebProgress>::Event*)#1}>, void (geode::Task<geode::utils::web::WebResponse, geode::utils::web::WebProgress>::Event*)>::__clone() const
PUBLIC 30254 0 std::__ndk1::__function::__func<TexturePackSelector::reloadData()::{lambda(geode::Task<geode::utils::web::WebResponse, geode::utils::web::WebProgress>::Event*)#1}, std::__ndk1::allocator<TexturePackSelector::reloadData()::{lambda(geode::Task<geode::utils::web::WebResponse, geode::utils::web::WebProgress>::Event*)#1}>, void (geode::Task<geode::utils::web::WebResponse, geode::utils::web::WebProgress>::Event*)>::__clone(std::__ndk1::__function::__base<void (geode::Task<geode::utils::web::WebResponse, geode::utils::web::WebProgress>::Event*)>*) const
PUBLIC 30268 0 std::__ndk1::__function::__func<TexturePackSelector::reloadData()::{lambda(geode::Task<geode::utils::web::WebResponse, geode::utils::web::WebProgress>::Event*)#1}, std::__ndk1::allocator<TexturePackSelector::reloadData()::{lambda(geode::Task<geode::utils::web::WebResponse, geode::utils::web::WebProgress>::Event*)#1}>, void (geode::Task<geode::utils::web::WebResponse, geode::utils::web::WebProgress>::Event*)>::destroy()
PUBLIC 3026c 0 std::__ndk1::__function::__func<TexturePackSelector::reloadData()::{lambda(geode::Task<geode::utils::web::WebResponse, geode::utils::web::WebProgress>::Event*)#1}, std::__ndk1::allocator<TexturePackSelector::reloadData()::{lambda(geode::Task<geode::utils::web::WebResponse, geode::utils::web::WebProgress>::Event*)#1}>, void (geode::Task<geode::utils::web::WebResponse, geode::utils::web::WebProgress>::Event*)>::destroy_deallocate()
PUBLIC 30270 0 std::__ndk1::__function::__func<TexturePackSelector::reloadData()::{lambda(geode::Task<geode::utils::web::WebResponse, geode::utils::web::WebProgress>::Event*)#1}, std::__ndk1::allocator<TexturePackSelector::reloadData()::{lambda(geode::Task<geode::utils::web::WebResponse, geode::utils::web::WebProgress>::Event*)#1}>, void (geode::Task<geode::utils::web::WebResponse, geode::utils::web::WebProgress>::Event*)>::operator()(geode::Task<geode::utils::web::WebResponse, geode::utils::web::WebProgress>::Event*&&)
PUBLIC 3045c 0 std::__ndk1::__function::__func<TexturePackSelector::reloadData()::{lambda(geode::Task<geode::utils::web::WebResponse, geode::utils::web::WebProgress>::Event*)#1}, std::__ndk1::allocator<TexturePackSelector::reloadData()::{lambda(geode::Task<geode::utils::web::WebResponse, geode::utils::web::WebProgress>::Event*)#1}>, void (geode::Task<geode::utils::web::WebResponse, geode::utils::web::WebProgress>::Event*)>::target(std::type_info const&) const
PUBLIC 30478 0 std::__ndk1::__function::__func<TexturePackSelector::reloadData()::{lambda(geode::Task<geode::utils::web::WebResponse, geode::utils::web::WebProgress>::Event*)#1}, std::__ndk1::allocator<TexturePackSelector::reloadData()::{lambda(geode::Task<geode::utils::web::WebResponse, geode::utils::web::WebProgress>::Event*)#1}>, void (geode::Task<geode::utils::web::WebResponse, geode::utils::web::WebProgress>::Event*)>::target_type() const
PUBLIC 30484 0 geode::impl::ResultData<matjson::Value, std::__ndk1::basic_string<char, std::__ndk1::char_traits<char>, std::__ndk1::allocator<char> > >::~ResultData()
PUBLIC 304f8 0 std::__ndk1::__variant_detail::__visitation::__base::__dispatcher<(unsigned long)0>::__dispatch[abi:ne180000]<std::__ndk1::__variant_detail::__dtor<std::__ndk1::__variant_detail::__traits<matjson::Value, std::__ndk1::basic_string<char, std::__ndk1::char_traits<char>, std::__ndk1::allocator<char> > >, (std::__ndk1::__variant_detail::_Trait)1>::__destroy[abi:ne180000]()::{lambda(auto:1&)#1}, std::__ndk1::__variant_detail::__base<(std::__ndk1::__variant_detail::__traits<matjson::Value, std::__ndk1::basic_string<char, std::__ndk1::char_traits<char>, std::__ndk1::allocator<char> > >)1, matjson, std::__ndk1::allocator<char> >&>(std::__ndk1::__variant_detail::__dtor<std::__ndk1::__variant_detail::__traits<matjson::Value, std::__ndk1::basic_string<char, std::__ndk1::char_traits<char>, std::__ndk1::allocator<char> > >, (std::__ndk1::__variant_detail::_Trait)1>, std::__ndk1::__variant_detail::__base<(std::__ndk1::__variant_detail::__traits<matjson::Value, std::__ndk1::basic_string<char, std::__ndk1::char_traits<char>, std::__ndk1::allocator<char> > >)1, matjson, std::__ndk1::allocator<char> >&)
PUBLIC 30500 0 std::__ndk1::__variant_detail::__visitation::__base::__dispatcher<(unsigned long)1>::__dispatch[abi:ne180000]<std::__ndk1::__variant_detail::__dtor<std::__ndk1::__variant_detail::__traits<matjson::Value, std::__ndk1::basic_string<char, std::__ndk1::char_traits<char>, std::__ndk1::allocator<char> > >, (std::__ndk1::__variant_detail::_Trait)1>::__destroy[abi:ne180000]()::{lambda(auto:1&)#1}, std::__ndk1::__variant_detail::__base<(std::__ndk1::__variant_detail::__traits<matjson::Value, std::__ndk1::basic_string<char, std::__ndk1::char_traits<char>, std::__ndk1::allocator<char> > >)1, matjson, std::__ndk1::allocator<char> >&>(std::__ndk1::__variant_detail::__dtor<std::__ndk1::__variant_detail::__traits<matjson::Value, std::__ndk1::basic_string<char, std::__ndk1::char_traits<char>, std::__ndk1::allocator<char> > >, (std::__ndk1::__variant_detail::_Trait)1>, std::__ndk1::__variant_detail::__base<(std::__ndk1::__variant_detail::__traits<matjson::Value, std::__ndk1::basic_string<char, std::__ndk1::char_traits<char>, std::__ndk1::allocator<char> > >)1, matjson, std::__ndk1::allocator<char> >&)
PUBLIC 30514 0 geode::impl::ResultData<matjson::Value&, std::__ndk1::basic_string<char, std::__ndk1::char_traits<char>, std::__ndk1::allocator<char> > >::~ResultData()
PUBLIC 30588 0 std::__ndk1::__variant_detail::__visitation::__base::__dispatcher<(unsigned long)0>::__dispatch[abi:ne180000]<std::__ndk1::__variant_detail::__dtor<std::__ndk1::__variant_detail::__traits<std::__ndk1::reference_wrapper<matjson::Value>, std::__ndk1::basic_string<char, std::__ndk1::char_traits<char>, std::__ndk1::allocator<char> > >, (std::__ndk1::__variant_detail::_Trait)1>::__destroy[abi:ne180000]()::{lambda(auto:1&)#1}, std::__ndk1::__variant_detail::__base<(std::__ndk1::__variant_detail::__traits<std::__ndk1::reference_wrapper<matjson::Value>, std::__ndk1::basic_string<char, std::__ndk1::char_traits<char>, std::__ndk1::allocator<char> > >)1, matjson::Value, std::__ndk1::allocator<char> >&>(std::__ndk1::__variant_detail::__dtor<std::__ndk1::__variant_detail::__traits<std::__ndk1::reference_wrapper<matjson::Value>, std::__ndk1::basic_string<char, std::__ndk1::char_traits<char>, std::__ndk1::allocator<char> > >, (std::__ndk1::__variant_detail::_Trait)1>, std::__ndk1::__variant_detail::__base<(std::__ndk1::__variant_detail::__traits<std::__ndk1::reference_wrapper<matjson::Value>, std::__ndk1::basic_string<char, std::__ndk1::char_traits<char>, std::__ndk1::allocator<char> > >)1, matjson::Value, std::__ndk1::allocator<char> >&)
PUBLIC 3058c 0 std::__ndk1::__variant_detail::__visitation::__base::__dispatcher<(unsigned long)1>::__dispatch[abi:ne180000]<std::__ndk1::__variant_detail::__dtor<std::__ndk1::__variant_detail::__traits<std::__ndk1::reference_wrapper<matjson::Value>, std::__ndk1::basic_string<char, std::__ndk1::char_traits<char>, std::__ndk1::allocator<char> > >, (std::__ndk1::__variant_detail::_Trait)1>::__destroy[abi:ne180000]()::{lambda(auto:1&)#1}, std::__ndk1::__variant_detail::__base<(std::__ndk1::__variant_detail::__traits<std::__ndk1::reference_wrapper<matjson::Value>, std::__ndk1::basic_string<char, std::__ndk1::char_traits<char>, std::__ndk1::allocator<char> > >)1, matjson::Value, std::__ndk1::allocator<char> >&>(std::__ndk1::__variant_detail::__dtor<std::__ndk1::__variant_detail::__traits<std::__ndk1::reference_wrapper<matjson::Value>, std::__ndk1::basic_string<char, std::__ndk1::char_traits<char>, std::__ndk1::allocator<char> > >, (std::__ndk1::__variant_detail::_Trait)1>, std::__ndk1::__variant_detail::__base<(std::__ndk1::__variant_detail::__traits<std::__ndk1::reference_wrapper<matjson::Value>, std::__ndk1::basic_string<char, std::__ndk1::char_traits<char>, std::__ndk1::allocator<char> > >)1, matjson::Value, std::__ndk1::allocator<char> >&)
PUBLIC 305a0 0 std::__ndk1::__variant_detail::__visitation::__base::__dispatcher<(unsigned long)0>::__dispatch[abi:ne180000]<std::__ndk1::__variant_detail::__dtor<std::__ndk1::__variant_detail::__traits<std::__ndk1::basic_string<char, std::__ndk1::char_traits<char>, std::__ndk1::allocator<char> >, std::__ndk1::allocator<char> >, (std::__ndk1::__variant_detail::_Trait)1>::__destroy[abi:ne180000]()::{lambda(auto:1&)#1}, std::__ndk1::__variant_detail::__base<(std::__ndk1::__variant_detail::__traits<std::__ndk1::basic_string<char, std::__ndk1::char_traits<char>, std::__ndk1::allocator<char> >, std::__ndk1::allocator<char> >)1, std::__ndk1::allocator<char>, std::__ndk1::allocator<char> >&>(std::__ndk1::__variant_detail::__dtor<std::__ndk1::__variant_detail::__traits<std::__ndk1::basic_string<char, std::__ndk1::char_traits<char>, std::__ndk1::allocator<char> >, std::__ndk1::allocator<char> >, (std::__ndk1::__variant_detail::_Trait)1>, std::__ndk1::__variant_detail::__base<(std::__ndk1::__variant_detail::__traits<std::__ndk1::basic_string<char, std::__ndk1::char_traits<char>, std::__ndk1::allocator<char> >, std::__ndk1::allocator<char> >)1, std::__ndk1::allocator<char>, std::__ndk1::allocator<char> >&)
PUBLIC 305b4 0 std::__ndk1::__variant_detail::__visitation::__base::__dispatcher<(unsigned long)1>::__dispatch[abi:ne180000]<std::__ndk1::__variant_detail::__dtor<std::__ndk1::__variant_detail::__traits<std::__ndk1::basic_string<char, std::__ndk1::char_traits<char>, std::__ndk1::allocator<char> >, std::__ndk1::allocator<char> >, (std::__ndk1::__variant_detail::_Trait)1>::__destroy[abi:ne180000]()::{lambda(auto:1&)#1}, std::__ndk1::__variant_detail::__base<(std::__ndk1::__variant_detail::__traits<std::__ndk1::basic_string<char, std::__ndk1::char_traits<char>, std::__ndk1::allocator<char> >, std::__ndk1::allocator<char> >)1, std::__ndk1::allocator<char>, std::__ndk1::allocator<char> >&>(std::__ndk1::__variant_detail::__dtor<std::__ndk1::__variant_detail::__traits<std::__ndk1::basic_string<char, std::__ndk1::char_traits<char>, std::__ndk1::allocator<char> >, std::__ndk1::allocator<char> >, (std::__ndk1::__variant_detail::_Trait)1>, std::__ndk1::__variant_detail::__base<(std::__ndk1::__variant_detail::__traits<std::__ndk1::basic_string<char, std::__ndk1::char_traits<char>, std::__ndk1::allocator<char> >, std::__ndk1::allocator<char> >)1, std::__ndk1::allocator<char>, std::__ndk1::allocator<char> >&)
PUBLIC 305c8 0 geode::Mod::getSavedValue<std::__ndk1::basic_string<char, std::__ndk1::char_traits<char>, std::__ndk1::allocator<char> > >(std::__ndk1::basic_string_view<char, std::__ndk1::char_traits<char> >)
PUBLIC 307b4 0 std::__ndk1::vector<std::__ndk1::basic_string<char, std::__ndk1::char_traits<char>, std::__ndk1::allocator<char> >, std::__ndk1::allocator<std::__ndk1::basic_string<char, std::__ndk1::char_traits<char>, std::__ndk1::allocator<char> > > >::__push_back_slow_path<std::__ndk1::basic_string<char, std::__ndk1::char_traits<char>, std::__ndk1::allocator<char> > >(std::__ndk1::basic_string<char, std::__ndk1::char_traits<char>, std::__ndk1::allocator<char> >&&)
PUBLIC 30918 0 cocos2d::CCSequence::create(cocos2d::CCFiniteTimeAction*, ...)
PUBLIC 309b0 0 TexturePackSelector::loadEnter()
PUBLIC 30e18 0 TexturePackSelector::onSelectTP(cocos2d::CCObject*)
PUBLIC 310e4 0 TexturePackSelector::reloadDataCallBack(cocos2d::CCObject*)
PUBLIC 31560 0 std::__ndk1::__function::__base<void (FLAlertLayer*, bool)>::~__base()
PUBLIC 31564 0 std::__ndk1::__function::__func<TexturePackSelector::onSelectTP(cocos2d::CCObject*)::{lambda(auto:1, bool)#1}, std::__ndk1::allocator<TexturePackSelector::onSelectTP(cocos2d::CCObject*)::{lambda(auto:1, bool)#1}>, void (FLAlertLayer*, bool)>::~__func()
PUBLIC 31568 0 std::__ndk1::__function::__func<TexturePackSelector::onSelectTP(cocos2d::CCObject*)::{lambda(auto:1, bool)#1}, std::__ndk1::allocator<TexturePackSelector::onSelectTP(cocos2d::CCObject*)::{lambda(auto:1, bool)#1}>, void (FLAlertLayer*, bool)>::__clone() const
PUBLIC 315a0 0 std::__ndk1::__function::__func<TexturePackSelector::onSelectTP(cocos2d::CCObject*)::{lambda(auto:1, bool)#1}, std::__ndk1::allocator<TexturePackSelector::onSelectTP(cocos2d::CCObject*)::{lambda(auto:1, bool)#1}>, void (FLAlertLayer*, bool)>::__clone(std::__ndk1::__function::__base<void (FLAlertLayer*, bool)>*) const
PUBLIC 315b8 0 std::__ndk1::__function::__func<TexturePackSelector::onSelectTP(cocos2d::CCObject*)::{lambda(auto:1, bool)#1}, std::__ndk1::allocator<TexturePackSelector::onSelectTP(cocos2d::CCObject*)::{lambda(auto:1, bool)#1}>, void (FLAlertLayer*, bool)>::destroy()
PUBLIC 315bc 0 std::__ndk1::__function::__func<TexturePackSelector::onSelectTP(cocos2d::CCObject*)::{lambda(auto:1, bool)#1}, std::__ndk1::allocator<TexturePackSelector::onSelectTP(cocos2d::CCObject*)::{lambda(auto:1, bool)#1}>, void (FLAlertLayer*, bool)>::destroy_deallocate()
PUBLIC 315c0 0 std::__ndk1::__function::__func<TexturePackSelector::onSelectTP(cocos2d::CCObject*)::{lambda(auto:1, bool)#1}, std::__ndk1::allocator<TexturePackSelector::onSelectTP(cocos2d::CCObject*)::{lambda(auto:1, bool)#1}>, void (FLAlertLayer*, bool)>::operator()(FLAlertLayer*&&, bool&&)
PUBLIC 31fb0 0 std::__ndk1::__function::__func<TexturePackSelector::onSelectTP(cocos2d::CCObject*)::{lambda(auto:1, bool)#1}, std::__ndk1::allocator<TexturePackSelector::onSelectTP(cocos2d::CCObject*)::{lambda(auto:1, bool)#1}>, void (FLAlertLayer*, bool)>::target(std::type_info const&) const
PUBLIC 31fcc 0 std::__ndk1::__function::__func<TexturePackSelector::onSelectTP(cocos2d::CCObject*)::{lambda(auto:1, bool)#1}, std::__ndk1::allocator<TexturePackSelector::onSelectTP(cocos2d::CCObject*)::{lambda(auto:1, bool)#1}>, void (FLAlertLayer*, bool)>::target_type() const
PUBLIC 31fd8 0 TexturePackSelector::onDownloadTP(std::__ndk1::basic_string<char, std::__ndk1::char_traits<char>, std::__ndk1::allocator<char> >)::{lambda(geode::Task<geode::utils::web::WebResponse, geode::utils::web::WebProgress>::Event*)#1}::~{lambda(geode::Task<geode::utils::web::WebResponse, geode::utils::web::WebProgress>::Event*)#1}()
PUBLIC 3201c 0 fmt::v11::detail::value<fmt::v11::context>::format_custom_arg<std::__ndk1::__fs::filesystem::path, fmt::v11::formatter<std::__ndk1::__fs::filesystem::path, char, void> >(void*, fmt::v11::basic_format_parse_context<char>&, fmt::v11::context&)
PUBLIC 33354 0 fmt::v11::detail::write<char, fmt::v11::basic_appender<char> >(fmt::v11::basic_appender<char>, fmt::v11::basic_string_view<char>, fmt::v11::format_specs const&)
PUBLIC 34a74 0 fmt::v11::detail::for_each_codepoint<fmt::v11::detail::compute_width(fmt::v11::basic_string_view<char>)::count_code_points>(fmt::v11::basic_string_view<char>, fmt::v11::detail::compute_width(fmt::v11::basic_string_view<char>)::count_code_points)::{lambda(char const*, char const*)#1}::operator()(char const*, char const*) const
PUBLIC 34c2c 0 fmt::v11::detail::fill<char, fmt::v11::basic_appender<char> >(fmt::v11::basic_appender<char>, unsigned long, fmt::v11::detail::fill_t const&)
PUBLIC 34dfc 0 fmt::v11::detail::write_codepoint<(unsigned long)2, char, fmt::v11::basic_appender<char> >(fmt::v11::basic_appender<char>, char, unsigned int)
PUBLIC 34f74 0 fmt::v11::basic_memory_buffer<char, (unsigned long)500, std::__ndk1::allocator<char> >::grow(fmt::v11::detail::buffer<char>&, unsigned long)
PUBLIC 34fec 0 fmt::v11::detail::write_codepoint<(unsigned long)2, char, std::__ndk1::back_insert_iterator<fmt::v11::basic_memory_buffer<char, (unsigned long)500, std::__ndk1::allocator<char> > > >(std::__ndk1::back_insert_iterator<fmt::v11::basic_memory_buffer<char, (unsigned long)500, std::__ndk1::allocator<char> > >, char, unsigned int)
PUBLIC 35164 0 std::__ndk1::__function::__func<TexturePackSelector::onDownloadTP(std::__ndk1::basic_string<char, std::__ndk1::char_traits<char>, std::__ndk1::allocator<char> >)::{lambda(geode::Task<geode::utils::web::WebResponse, geode::utils::web::WebProgress>::Event*)#1}, std::__ndk1::allocator<TexturePackSelector::onDownloadTP(std::__ndk1::basic_string<char, std::__ndk1::char_traits<char>, std::__ndk1::allocator<char> >)::{lambda(geode::Task<geode::utils::web::WebResponse, geode::utils::web::WebProgress>::Event*)#1}>, void (geode::Task<geode::utils::web::WebResponse, geode::utils::web::WebProgress>::Event*)>::~__func()
PUBLIC 351b4 0 std::__ndk1::__function::__func<TexturePackSelector::onDownloadTP(std::__ndk1::basic_string<char, std::__ndk1::char_traits<char>, std::__ndk1::allocator<char> >)::{lambda(geode::Task<geode::utils::web::WebResponse, geode::utils::web::WebProgress>::Event*)#1}, std::__ndk1::allocator<TexturePackSelector::onDownloadTP(std::__ndk1::basic_string<char, std::__ndk1::char_traits<char>, std::__ndk1::allocator<char> >)::{lambda(geode::Task<geode::utils::web::WebResponse, geode::utils::web::WebProgress>::Event*)#1}>, void (geode::Task<geode::utils::web::WebResponse, geode::utils::web::WebProgress>::Event*)>::~__func()
PUBLIC 35218 0 std::__ndk1::__function::__func<TexturePackSelector::onDownloadTP(std::__ndk1::basic_string<char, std::__ndk1::char_traits<char>, std::__ndk1::allocator<char> >)::{lambda(geode::Task<geode::utils::web::WebResponse, geode::utils::web::WebProgress>::Event*)#1}, std::__ndk1::allocator<TexturePackSelector::onDownloadTP(std::__ndk1::basic_string<char, std::__ndk1::char_traits<char>, std::__ndk1::allocator<char> >)::{lambda(geode::Task<geode::utils::web::WebResponse, geode::utils::web::WebProgress>::Event*)#1}>, void (geode::Task<geode::utils::web::WebResponse, geode::utils::web::WebProgress>::Event*)>::__clone() const
PUBLIC 352f0 0 std::__ndk1::__function::__func<TexturePackSelector::onDownloadTP(std::__ndk1::basic_string<char, std::__ndk1::char_traits<char>, std::__ndk1::allocator<char> >)::{lambda(geode::Task<geode::utils::web::WebResponse, geode::utils::web::WebProgress>::Event*)#1}, std::__ndk1::allocator<TexturePackSelector::onDownloadTP(std::__ndk1::basic_string<char, std::__ndk1::char_traits<char>, std::__ndk1::allocator<char> >)::{lambda(geode::Task<geode::utils::web::WebResponse, geode::utils::web::WebProgress>::Event*)#1}>, void (geode::Task<geode::utils::web::WebResponse, geode::utils::web::WebProgress>::Event*)>::__clone(std::__ndk1::__function::__base<void (geode::Task<geode::utils::web::WebResponse, geode::utils::web::WebProgress>::Event*)>*) const
PUBLIC 353a4 0 std::__ndk1::__function::__func<TexturePackSelector::onDownloadTP(std::__ndk1::basic_string<char, std::__ndk1::char_traits<char>, std::__ndk1::allocator<char> >)::{lambda(geode::Task<geode::utils::web::WebResponse, geode::utils::web::WebProgress>::Event*)#1}, std::__ndk1::allocator<TexturePackSelector::onDownloadTP(std::__ndk1::basic_string<char, std::__ndk1::char_traits<char>, std::__ndk1::allocator<char> >)::{lambda(geode::Task<geode::utils::web::WebResponse, geode::utils::web::WebProgress>::Event*)#1}>, void (geode::Task<geode::utils::web::WebResponse, geode::utils::web::WebProgress>::Event*)>::destroy()
PUBLIC 353e8 0 std::__ndk1::__function::__func<TexturePackSelector::onDownloadTP(std::__ndk1::basic_string<char, std::__ndk1::char_traits<char>, std::__ndk1::allocator<char> >)::{lambda(geode::Task<geode::utils::web::WebResponse, geode::utils::web::WebProgress>::Event*)#1}, std::__ndk1::allocator<TexturePackSelector::onDownloadTP(std::__ndk1::basic_string<char, std::__ndk1::char_traits<char>, std::__ndk1::allocator<char> >)::{lambda(geode::Task<geode::utils::web::WebResponse, geode::utils::web::WebProgress>::Event*)#1}>, void (geode::Task<geode::utils::web::WebResponse, geode::utils::web::WebProgress>::Event*)>::destroy_deallocate()
PUBLIC 35440 0 std::__ndk1::__function::__func<TexturePackSelector::onDownloadTP(std::__ndk1::basic_string<char, std::__ndk1::char_traits<char>, std::__ndk1::allocator<char> >)::{lambda(geode::Task<geode::utils::web::WebResponse, geode::utils::web::WebProgress>::Event*)#1}, std::__ndk1::allocator<TexturePackSelector::onDownloadTP(std::__ndk1::basic_string<char, std::__ndk1::char_traits<char>, std::__ndk1::allocator<char> >)::{lambda(geode::Task<geode::utils::web::WebResponse, geode::utils::web::WebProgress>::Event*)#1}>, void (geode::Task<geode::utils::web::WebResponse, geode::utils::web::WebProgress>::Event*)>::operator()(geode::Task<geode::utils::web::WebResponse, geode::utils::web::WebProgress>::Event*&&)
PUBLIC 358d4 0 std::__ndk1::__function::__func<TexturePackSelector::onDownloadTP(std::__ndk1::basic_string<char, std::__ndk1::char_traits<char>, std::__ndk1::allocator<char> >)::{lambda(geode::Task<geode::utils::web::WebResponse, geode::utils::web::WebProgress>::Event*)#1}, std::__ndk1::allocator<TexturePackSelector::onDownloadTP(std::__ndk1::basic_string<char, std::__ndk1::char_traits<char>, std::__ndk1::allocator<char> >)::{lambda(geode::Task<geode::utils::web::WebResponse, geode::utils::web::WebProgress>::Event*)#1}>, void (geode::Task<geode::utils::web::WebResponse, geode::utils::web::WebProgress>::Event*)>::target(std::type_info const&) const
PUBLIC 358f0 0 std::__ndk1::__function::__func<TexturePackSelector::onDownloadTP(std::__ndk1::basic_string<char, std::__ndk1::char_traits<char>, std::__ndk1::allocator<char> >)::{lambda(geode::Task<geode::utils::web::WebResponse, geode::utils::web::WebProgress>::Event*)#1}, std::__ndk1::allocator<TexturePackSelector::onDownloadTP(std::__ndk1::basic_string<char, std::__ndk1::char_traits<char>, std::__ndk1::allocator<char> >)::{lambda(geode::Task<geode::utils::web::WebResponse, geode::utils::web::WebProgress>::Event*)#1}>, void (geode::Task<geode::utils::web::WebResponse, geode::utils::web::WebProgress>::Event*)>::target_type() const
PUBLIC 358fc 0 std::__ndk1::__variant_detail::__visitation::__base::__dispatcher<(unsigned long)0>::__dispatch[abi:ne180000]<std::__ndk1::__variant_detail::__dtor<std::__ndk1::__variant_detail::__traits<std::__ndk1::monostate, std::__ndk1::basic_string<char, std::__ndk1::char_traits<char>, std::__ndk1::allocator<char> > >, (std::__ndk1::__variant_detail::_Trait)1>::__destroy[abi:ne180000]()::{lambda(auto:1&)#1}, std::__ndk1::__variant_detail::__base<(std::__ndk1::__variant_detail::__traits<std::__ndk1::monostate, std::__ndk1::basic_string<char, std::__ndk1::char_traits<char>, std::__ndk1::allocator<char> > >)1, std::__ndk1::__variant_detail::__traits, std::__ndk1::allocator<char> >&>(std::__ndk1::__variant_detail::__dtor<std::__ndk1::__variant_detail::__traits<std::__ndk1::monostate, std::__ndk1::basic_string<char, std::__ndk1::char_traits<char>, std::__ndk1::allocator<char> > >, (std::__ndk1::__variant_detail::_Trait)1>, std::__ndk1::__variant_detail::__base<(std::__ndk1::__variant_detail::__traits<std::__ndk1::monostate, std::__ndk1::basic_string<char, std::__ndk1::char_traits<char>, std::__ndk1::allocator<char> > >)1, std::__ndk1::__variant_detail::__traits, std::__ndk1::allocator<char> >&)
PUBLIC 35900 0 std::__ndk1::__variant_detail::__visitation::__base::__dispatcher<(unsigned long)1>::__dispatch[abi:ne180000]<std::__ndk1::__variant_detail::__dtor<std::__ndk1::__variant_detail::__traits<std::__ndk1::monostate, std::__ndk1::basic_string<char, std::__ndk1::char_traits<char>, std::__ndk1::allocator<char> > >, (std::__ndk1::__variant_detail::_Trait)1>::__destroy[abi:ne180000]()::{lambda(auto:1&)#1}, std::__ndk1::__variant_detail::__base<(std::__ndk1::__variant_detail::__traits<std::__ndk1::monostate, std::__ndk1::basic_string<char, std::__ndk1::char_traits<char>, std::__ndk1::allocator<char> > >)1, std::__ndk1::__variant_detail::__traits, std::__ndk1::allocator<char> >&>(std::__ndk1::__variant_detail::__dtor<std::__ndk1::__variant_detail::__traits<std::__ndk1::monostate, std::__ndk1::basic_string<char, std::__ndk1::char_traits<char>, std::__ndk1::allocator<char> > >, (std::__ndk1::__variant_detail::_Trait)1>, std::__ndk1::__variant_detail::__base<(std::__ndk1::__variant_detail::__traits<std::__ndk1::monostate, std::__ndk1::basic_string<char, std::__ndk1::char_traits<char>, std::__ndk1::allocator<char> > >)1, std::__ndk1::__variant_detail::__traits, std::__ndk1::allocator<char> >&)
PUBLIC 35914 0 geode::Popup<std::__ndk1::basic_string<char, std::__ndk1::char_traits<char>, std::__ndk1::allocator<char> > const&>::CloseEvent::~CloseEvent()
PUBLIC 35974 0 geode::Popup<std::__ndk1::basic_string<char, std::__ndk1::char_traits<char>, std::__ndk1::allocator<char> > const&>::CloseEvent::~CloseEvent()
PUBLIC 359e4 0 std::__ndk1::__shared_ptr_emplace<geode::Popup<std::__ndk1::basic_string<char, std::__ndk1::char_traits<char>, std::__ndk1::allocator<char> > const&>::CloseEvent::Impl, std::__ndk1::allocator<geode::Popup<std::__ndk1::basic_string<char, std::__ndk1::char_traits<char>, std::__ndk1::allocator<char> > const&>::CloseEvent::Impl> >::~__shared_ptr_emplace()
PUBLIC 359f4 0 std::__ndk1::__shared_ptr_emplace<geode::Popup<std::__ndk1::basic_string<char, std::__ndk1::char_traits<char>, std::__ndk1::allocator<char> > const&>::CloseEvent::Impl, std::__ndk1::allocator<geode::Popup<std::__ndk1::basic_string<char, std::__ndk1::char_traits<char>, std::__ndk1::allocator<char> > const&>::CloseEvent::Impl> >::~__shared_ptr_emplace()
PUBLIC 35a24 0 std::__ndk1::__shared_ptr_emplace<geode::Popup<std::__ndk1::basic_string<char, std::__ndk1::char_traits<char>, std::__ndk1::allocator<char> > const&>::CloseEvent::Impl, std::__ndk1::allocator<geode::Popup<std::__ndk1::basic_string<char, std::__ndk1::char_traits<char>, std::__ndk1::allocator<char> > const&>::CloseEvent::Impl> >::__on_zero_shared()
PUBLIC 35a28 0 std::__ndk1::__shared_ptr_emplace<geode::Popup<std::__ndk1::basic_string<char, std::__ndk1::char_traits<char>, std::__ndk1::allocator<char> > const&>::CloseEvent::Impl, std::__ndk1::allocator<geode::Popup<std::__ndk1::basic_string<char, std::__ndk1::char_traits<char>, std::__ndk1::allocator<char> > const&>::CloseEvent::Impl> >::__on_zero_shared_weak()
PUBLIC m 35a2c 0 geodeImplicitEntry
PUBLIC 35a68 0 std::__ndk1::unordered_map<void*, bool, std::__ndk1::hash<void*>, std::__ndk1::equal_to<void*>, std::__ndk1::allocator<std::__ndk1::pair<void* const, bool> > >::~unordered_map[abi:ne180000]()
PUBLIC 35ab4 0 wrapFunction(unsigned long, tulip::hook::WrapperMetadata const&)
PUBLIC 35be8 0 geode::impl::ResultData<void*, std::__ndk1::basic_string<char, std::__ndk1::char_traits<char>, std::__ndk1::allocator<char> > >::unwrapErr() &
PUBLIC 35c60 0 geode::impl::ResultData<void*, std::__ndk1::basic_string<char, std::__ndk1::char_traits<char>, std::__ndk1::allocator<char> > >::~ResultData()
PUBLIC 35cd4 0 tulip::hook::WrapperMetadata::~WrapperMetadata()
PUBLIC 35d38 0 cocos2d::CCObject::~CCObject()
PUBLIC 35d5c 0 cocos2d::CCNode::~CCNode()
PUBLIC 35d80 0 cocos2d::CCNodeRGBA::~CCNodeRGBA()
PUBLIC 35da4 0 cocos2d::CCLayer::CCLayer()
PUBLIC 36014 0 {virtual override thunk({offset(-320)}, cocos2d::CCLayer::~CCLayer())}
PUBLIC 3601c 0 cocos2d::CCLayer::~CCLayer()
PUBLIC 36040 0 {virtual override thunk({offset(-320)}, cocos2d::CCLayer::~CCLayer())}
PUBLIC 36068 0 cocos2d::CCLayerRGBA::~CCLayerRGBA()
PUBLIC 36340 0 {virtual override thunk({offset(-320)}, cocos2d::CCLayerRGBA::~CCLayerRGBA())}
PUBLIC 36348 0 cocos2d::CCLayerRGBA::~CCLayerRGBA()
PUBLIC 3636c 0 {virtual override thunk({offset(-320)}, cocos2d::CCLayerRGBA::~CCLayerRGBA())}
PUBLIC 36394 0 cocos2d::CCLayerColor::CCLayerColor()
PUBLIC 365e4 0 {virtual override thunk({offset(-320)}, cocos2d::CCLayerColor::~CCLayerColor())}
PUBLIC 365ec 0 cocos2d::CCLayerColor::~CCLayerColor()
PUBLIC 36610 0 {virtual override thunk({offset(-320)}, cocos2d::CCLayerColor::~CCLayerColor())}
PUBLIC 36638 0 cocos2d::extension::CCScale9Sprite::~CCScale9Sprite()
PUBLIC 368c4 0 cocos2d::extension::CCScale9Sprite::~CCScale9Sprite()
PUBLIC 368e8 0 {virtual override thunk({offset(-320)}, FLAlertLayer::~FLAlertLayer())}
PUBLIC 368f0 0 FLAlertLayer::~FLAlertLayer()
PUBLIC 36914 0 {virtual override thunk({offset(-320)}, FLAlertLayer::~FLAlertLayer())}
PUBLIC 3693c 0 FLAlertLayer::create(FLAlertLayerProtocol*, char const*, gd::string, char const*, char const*, float)
PUBLIC 36af4 0 tulip::hook::AbstractFunction::from<FLAlertLayer*, FLAlertLayerProtocol*, char const*, gd::string, char const*, char const*, float>(FLAlertLayer* (*)(FLAlertLayerProtocol*, char const*, gd::string, char const*, char const*, float))
PUBLIC 36fd8 0 cocos2d::CCNodeRGBA::~CCNodeRGBA()
PUBLIC 37268 0 LevelSelectLayer::~LevelSelectLayer()
PUBLIC 37550 0 {virtual override thunk({offset(-320)}, LevelSelectLayer::~LevelSelectLayer())}
PUBLIC 37558 0 LevelSelectLayer::~LevelSelectLayer()
PUBLIC 3757c 0 {virtual override thunk({offset(-320)}, LevelSelectLayer::~LevelSelectLayer())}
PUBLIC 375a4 0 cocos2d::CCObject::update(float)
PUBLIC 375a8 0 cocos2d::CCNodeRGBA::setOpacityModifyRGB(bool)
PUBLIC 375ac 0 cocos2d::CCNodeRGBA::isOpacityModifyRGB()
PUBLIC 375b4 0 {virtual override thunk({offset(-320)}, cocos2d::CCNodeRGBA::setOpacityModifyRGB(bool))}
PUBLIC 375b8 0 {virtual override thunk({offset(-320)}, cocos2d::CCNodeRGBA::isOpacityModifyRGB())}
PUBLIC 375c0 0 cocos2d::CCLayerColor::~CCLayerColor()
PUBLIC 3787c 0 FLAlertLayer::~FLAlertLayer()
PUBLIC 37b38 0 cocos2d::CCNode::~CCNode()
PUBLIC 37db0 0 cocos2d::CCLayer::~CCLayer()
PUBLIC 38078 0 cocos2d::CCObject::~CCObject()
PUBLIC 38544 0 _ZN5geode15UnwrapExceptionC2IRPvQsr4implE18IsStringStreamableIT_EEENS_4impl5OkTagEOS4_
PUBLIC 38698 0 _ZN5geode15UnwrapExceptionC2IRNSt6__ndk112basic_stringIcNS2_11char_traitsIcEENS2_9allocatorIcEEEEQsr4implE18IsStringStreamableIT_EEENS_4impl6ErrTagEOSA_
PUBLIC 38800 0 std::__ndk1::__variant_detail::__visitation::__base::__dispatcher<(unsigned long)0>::__dispatch[abi:ne180000]<std::__ndk1::__variant_detail::__dtor<std::__ndk1::__variant_detail::__traits<void*, std::__ndk1::basic_string<char, std::__ndk1::char_traits<char>, std::__ndk1::allocator<char> > >, (std::__ndk1::__variant_detail::_Trait)1>::__destroy[abi:ne180000]()::{lambda(auto:1&)#1}, std::__ndk1::__variant_detail::__base<(std::__ndk1::__variant_detail::__traits<void*, std::__ndk1::basic_string<char, std::__ndk1::char_traits<char>, std::__ndk1::allocator<char> > >)1, std::__ndk1::__variant_detail::__traits, std::__ndk1::allocator<char> >&>(std::__ndk1::__variant_detail::__dtor<std::__ndk1::__variant_detail::__traits<void*, std::__ndk1::basic_string<char, std::__ndk1::char_traits<char>, std::__ndk1::allocator<char> > >, (std::__ndk1::__variant_detail::_Trait)1>, std::__ndk1::__variant_detail::__base<(std::__ndk1::__variant_detail::__traits<void*, std::__ndk1::basic_string<char, std::__ndk1::char_traits<char>, std::__ndk1::allocator<char> > >)1, std::__ndk1::__variant_detail::__traits, std::__ndk1::allocator<char> >&)
PUBLIC 38804 0 std::__ndk1::__variant_detail::__visitation::__base::__dispatcher<(unsigned long)1>::__dispatch[abi:ne180000]<std::__ndk1::__variant_detail::__dtor<std::__ndk1::__variant_detail::__traits<void*, std::__ndk1::basic_string<char, std::__ndk1::char_traits<char>, std::__ndk1::allocator<char> > >, (std::__ndk1::__variant_detail::_Trait)1>::__destroy[abi:ne180000]()::{lambda(auto:1&)#1}, std::__ndk1::__variant_detail::__base<(std::__ndk1::__variant_detail::__traits<void*, std::__ndk1::basic_string<char, std::__ndk1::char_traits<char>, std::__ndk1::allocator<char> > >)1, std::__ndk1::__variant_detail::__traits, std::__ndk1::allocator<char> >&>(std::__ndk1::__variant_detail::__dtor<std::__ndk1::__variant_detail::__traits<void*, std::__ndk1::basic_string<char, std::__ndk1::char_traits<char>, std::__ndk1::allocator<char> > >, (std::__ndk1::__variant_detail::_Trait)1>, std::__ndk1::__variant_detail::__base<(std::__ndk1::__variant_detail::__traits<void*, std::__ndk1::basic_string<char, std::__ndk1::char_traits<char>, std::__ndk1::allocator<char> > >)1, std::__ndk1::__variant_detail::__traits, std::__ndk1::allocator<char> >&)
PUBLIC 38818 0 std::__ndk1::__hash_table<std::__ndk1::__hash_value_type<void*, bool>, std::__ndk1::__unordered_map_hasher<void*, std::__ndk1::__hash_value_type<void*, bool>, std::__ndk1::hash<void*>, std::__ndk1::equal_to<void*>, true>, std::__ndk1::__unordered_map_equal<void*, std::__ndk1::__hash_value_type<void*, bool>, std::__ndk1::equal_to<void*>, std::__ndk1::hash<void*>, true>, std::__ndk1::allocator<std::__ndk1::__hash_value_type<void*, bool> > >::__emplace_unique_key_args<void*, std::__ndk1::piecewise_construct_t const&, std::__ndk1::tuple<void* const&>, std::__ndk1::tuple<> >(void* const&, std::__ndk1::piecewise_construct_t const&, std::__ndk1::tuple<void* const&>, std::__ndk1::tuple<>)
PUBLIC 38d00 0 <.plt ELF section in bitz.darkmode_v4.android64.so>
STACK CFI INIT 1f830 10 .cfa: sp 0 +
STACK CFI INIT 1f840 8 .cfa: sp 0 +
STACK CFI INIT 1f848 8 .cfa: sp 0 +
STACK CFI INIT 1f850 14 .cfa: sp 0 +
STACK CFI INIT 1f864 1c .cfa: sp 0 +
STACK CFI INIT 1f880 10 .cfa: sp 0 +
STACK CFI INIT 1f890 134 .cfa: sp 0 +
STACK CFI INIT 1f9c4 84 .cfa: sp 0 +
STACK CFI INIT 1fa48 f4 .cfa: sp 0 +
STACK CFI INIT 1fb3c a8 .cfa: sp 0 +
STACK CFI INIT 1fbe4 7c .cfa: sp 0 +
STACK CFI INIT 1fc60 14 .cfa: sp 0 +
STACK CFI INIT 1fc74 40 .cfa: sp 0 +
STACK CFI INIT 1fcb4 28 .cfa: sp 0 +
STACK CFI INIT 1fcdc 190 .cfa: sp 0 +
STACK CFI INIT 1fe6c 2c8 .cfa: sp 0 +
STACK CFI INIT 20134 8 .cfa: sp 0 +
STACK CFI INIT 2013c 8 .cfa: sp 0 +
STACK CFI INIT 20144 44 .cfa: sp 0 +
STACK CFI INIT 20188 e8 .cfa: sp 0 +
STACK CFI INIT 20270 e8 .cfa: sp 0 +
STACK CFI INIT 20358 14 .cfa: sp 0 +
STACK CFI INIT 2036c 10 .cfa: sp 0 +
STACK CFI INIT 2037c 10 .cfa: sp 0 +
STACK CFI INIT 2038c f0 .cfa: sp 0 +
STACK CFI INIT 2047c 44 .cfa: sp 0 +
STACK CFI INIT 204c0 c .cfa: sp 0 +
STACK CFI INIT 204cc c .cfa: sp 0 +
STACK CFI INIT 204d8 2c .cfa: sp 0 +
STACK CFI INIT 20504 280 .cfa: sp 0 +
STACK CFI INIT 20784 c .cfa: sp 0 +
STACK CFI INIT 20790 120 .cfa: sp 0 +
STACK CFI INIT 208b0 488 .cfa: sp 0 +
STACK CFI INIT 20d38 c48 .cfa: sp 0 +
STACK CFI INIT 21980 134 .cfa: sp 0 +
STACK CFI INIT 21ab4 210 .cfa: sp 0 +
STACK CFI INIT 21cc4 38c .cfa: sp 0 +
STACK CFI INIT 22050 1c8 .cfa: sp 0 +
STACK CFI INIT 22218 9bc .cfa: sp 0 +
STACK CFI INIT 22bd4 2d4 .cfa: sp 0 +
STACK CFI INIT 22ea8 134 .cfa: sp 0 +
STACK CFI INIT 22fdc 120 .cfa: sp 0 +
STACK CFI INIT 230fc 1c8 .cfa: sp 0 +
STACK CFI INIT 232c4 168 .cfa: sp 0 +
STACK CFI INIT 2342c fc .cfa: sp 0 +
STACK CFI INIT 23528 30 .cfa: sp 0 +
STACK CFI INIT 23690 30 .cfa: sp 0 +
STACK CFI INIT 236c0 98 .cfa: sp 0 +
STACK CFI INIT 23758 59c .cfa: sp 0 +
STACK CFI INIT 23cf4 8c .cfa: sp 0 +
STACK CFI INIT 23d80 30 .cfa: sp 0 +
STACK CFI INIT 23db0 3d4 .cfa: sp 0 +
STACK CFI 23db4 .cfa: sp 176 +
STACK CFI 23ddc .cfa: x29 96 + x19: .cfa -8 + ^ x20: .cfa -16 + ^ x21: .cfa -24 + ^ x22: .cfa -32 + ^ x23: .cfa -40 + ^ x24: .cfa -48 + ^ x25: .cfa -56 + ^ x26: .cfa -64 + ^ x27: .cfa -72 + ^ x28: .cfa -80 + ^ .ra: .cfa -88 + ^ x29: .cfa -96 + ^ v8: .cfa -104 + ^ v9: .cfa -112 + ^ v10: .cfa -120 + ^ v11: .cfa -128 + ^ v12: .cfa -144 + ^
STACK CFI 24154 .cfa: sp 176 +
STACK CFI 2417c .cfa: sp 0 +
STACK CFI 24180 .cfa: x29 96 +
STACK CFI INIT 24184 128 .cfa: sp 0 +
STACK CFI 24188 .cfa: sp 80 +
STACK CFI 2419c .cfa: x29 80 + x19: .cfa -8 + ^ x20: .cfa -16 + ^ x21: .cfa -24 + ^ x22: .cfa -32 + ^ x23: .cfa -40 + ^ x24: .cfa -48 + ^ x25: .cfa -64 + ^ .ra: .cfa -72 + ^ x29: .cfa -80 + ^
STACK CFI 24294 .cfa: sp 80 +
STACK CFI 242a8 .cfa: sp 0 +
STACK CFI INIT 2658c 18 .cfa: sp 0 +
STACK CFI INIT 265a4 18 .cfa: sp 0 +
STACK CFI INIT 265bc 18 .cfa: sp 0 +
STACK CFI INIT 265d4 18 .cfa: sp 0 +
STACK CFI INIT 265ec 18 .cfa: sp 0 +
STACK CFI INIT 26604 18 .cfa: sp 0 +
STACK CFI INIT 2661c 18 .cfa: sp 0 +
STACK CFI INIT 26634 18 .cfa: sp 0 +
STACK CFI INIT 26ad0 18 .cfa: sp 0 +
STACK CFI INIT 26ae8 8 .cfa: sp 0 +
STACK CFI INIT 26af0 24 .cfa: sp 0 +
STACK CFI 26af4 .cfa: sp 32 +
STACK CFI 26afc .cfa: x29 32 + x19: .cfa -16 + ^ .ra: .cfa -24 + ^ x29: .cfa -32 + ^
STACK CFI 26b08 .cfa: sp 32 +
STACK CFI 26b10 .cfa: sp 0 +
STACK CFI INIT 26b14 8 .cfa: sp 0 +
STACK CFI INIT 26b1c 28 .cfa: sp 0 +
STACK CFI 26b20 .cfa: sp 32 +
STACK CFI 26b28 .cfa: x29 32 + x19: .cfa -16 + ^ .ra: .cfa -24 + ^ x29: .cfa -32 + ^
STACK CFI 26b38 .cfa: sp 32 +
STACK CFI 26b40 .cfa: sp 0 +
STACK CFI INIT 26b44 4 .cfa: sp 0 +
STACK CFI INIT 26b48 4 .cfa: sp 0 +
STACK CFI INIT 26b4c 4 .cfa: sp 0 +
STACK CFI INIT 26b50 4 .cfa: sp 0 +
STACK CFI INIT 26f48 50 .cfa: sp 0 +
STACK CFI 26f4c .cfa: sp 32 +
STACK CFI 26f54 .cfa: x29 32 + x19: .cfa -16 + ^ .ra: .cfa -24 + ^ x29: .cfa -32 + ^
STACK CFI 26f6c .cfa: sp 32 +
STACK CFI 26f74 .cfa: sp 0 +
STACK CFI 26f78 .cfa: x29 32 +
STACK CFI 26f8c .cfa: sp 32 +
STACK CFI 26f94 .cfa: sp 0 +
STACK CFI INIT 2700c 7c .cfa: sp 0 +
STACK CFI 27010 .cfa: sp 48 +
STACK CFI 2701c .cfa: x29 48 + x19: .cfa -8 + ^ x20: .cfa -16 + ^ x21: .cfa -32 + ^ .ra: .cfa -40 + ^ x29: .cfa -48 + ^
STACK CFI 27068 .cfa: sp 48 +
STACK CFI 27074 .cfa: sp 0 +
STACK CFI 27078 .cfa: sp 48 +
STACK CFI 27084 .cfa: sp 0 +
STACK CFI INIT 27088 4 .cfa: sp 0 +
STACK CFI INIT 2708c 10 .cfa: sp 0 +
STACK CFI 27090 .cfa: sp 16 +
STACK CFI 27094 .cfa: x29 16 + .ra: .cfa -8 + ^ x29: .cfa -16 + ^
STACK CFI INIT 271f0 34 .cfa: sp 0 +
STACK CFI 271f4 .cfa: sp 16 +
STACK CFI 271f8 .cfa: x29 16 + .ra: .cfa -8 + ^ x29: .cfa -16 + ^
STACK CFI INIT 27350 80 .cfa: sp 0 +
STACK CFI 27354 .cfa: sp 48 +
STACK CFI 27360 .cfa: x29 48 + x19: .cfa -8 + ^ x20: .cfa -16 + ^ x21: .cfa -32 + ^ .ra: .cfa -40 + ^ x29: .cfa -48 + ^
STACK CFI 273c0 .cfa: sp 48 +
STACK CFI 273cc .cfa: sp 0 +
STACK CFI INIT 273d0 24 .cfa: sp 0 +
STACK CFI 273d4 .cfa: sp 32 +
STACK CFI 273dc .cfa: x29 32 + x19: .cfa -16 + ^ .ra: .cfa -24 + ^ x29: .cfa -32 + ^
STACK CFI 273e8 .cfa: sp 32 +
STACK CFI 273f0 .cfa: sp 0 +
STACK CFI INIT 27774 14 .cfa: sp 0 +
STACK CFI 27778 .cfa: sp 16 +
STACK CFI 2777c .cfa: x29 16 + .ra: .cfa -8 + ^ x29: .cfa -16 + ^
STACK CFI INIT 277d8 30 .cfa: sp 0 +
STACK CFI 277dc .cfa: sp 32 +
STACK CFI 277e4 .cfa: x29 32 + x19: .cfa -16 + ^ .ra: .cfa -24 + ^ x29: .cfa -32 + ^
STACK CFI 277fc .cfa: sp 32 +
STACK CFI 27804 .cfa: sp 0 +
STACK CFI INIT 27808 34 .cfa: sp 0 +
STACK CFI 2780c .cfa: sp 32 +
STACK CFI 27814 .cfa: x29 32 + x19: .cfa -16 + ^ .ra: .cfa -24 + ^ x29: .cfa -32 + ^
STACK CFI INIT 279b4 148 .cfa: sp 0 +
STACK CFI 279b8 .cfa: sp 48 +
STACK CFI 279c4 .cfa: x29 48 + x19: .cfa -8 + ^ x20: .cfa -16 + ^ x21: .cfa -32 + ^ .ra: .cfa -40 + ^ x29: .cfa -48 + ^
STACK CFI 27aec .cfa: sp 48 +
STACK CFI 27af8 .cfa: sp 0 +
STACK CFI INIT 27d20 80 .cfa: sp 0 +
STACK CFI 27d24 .cfa: sp 48 +
STACK CFI 27d30 .cfa: x29 48 + x19: .cfa -8 + ^ x20: .cfa -16 + ^ x21: .cfa -24 + ^ x22: .cfa -32 + ^ .ra: .cfa -40 + ^ x29: .cfa -48 + ^
STACK CFI 27d48 .cfa: sp 48 +
STACK CFI 27d54 .cfa: sp 0 +
STACK CFI 27d58 .cfa: x29 48 +
STACK CFI 27d88 .cfa: sp 48 +
STACK CFI 27d94 .cfa: sp 0 +
STACK CFI 27d98 .cfa: x29 48 +
STACK CFI INIT 27da0 68 .cfa: sp 0 +
STACK CFI 27da4 .cfa: sp 32 +
STACK CFI 27dac .cfa: x29 32 + x19: .cfa -8 + ^ x20: .cfa -16 + ^ .ra: .cfa -24 + ^ x29: .cfa -32 + ^
STACK CFI 27dc4 .cfa: sp 32 +
STACK CFI 27dcc .cfa: sp 0 +
STACK CFI 27dd0 .cfa: x29 32 +
STACK CFI 27dfc .cfa: sp 32 +
STACK CFI 27e04 .cfa: sp 0 +
STACK CFI INIT 27e08 14 .cfa: sp 0 +
STACK CFI 27e0c .cfa: sp 16 +
STACK CFI 27e10 .cfa: x29 16 + .ra: .cfa -8 + ^ x29: .cfa -16 + ^
STACK CFI INIT 27e1c 4 .cfa: sp 0 +
STACK CFI INIT 27e20 14 .cfa: sp 0 +
STACK CFI INIT 27e34 120 .cfa: sp 0 +
STACK CFI 27e38 .cfa: sp 64 +
STACK CFI 27e48 .cfa: x29 64 + x19: .cfa -8 + ^ x20: .cfa -16 + ^ x21: .cfa -24 + ^ x22: .cfa -32 + ^ x23: .cfa -40 + ^ x24: .cfa -48 + ^ .ra: .cfa -56 + ^ x29: .cfa -64 + ^
STACK CFI 27f40 .cfa: sp 64 +
STACK CFI 27f50 .cfa: sp 0 +
STACK CFI INIT 27f54 4a4 .cfa: sp 0 +
STACK CFI 27f58 .cfa: sp 32 +
STACK CFI 27f60 .cfa: x29 32 + x19: .cfa -8 + ^ x20: .cfa -16 + ^ .ra: .cfa -24 + ^ x29: .cfa -32 + ^
STACK CFI 28340 .cfa: sp 32 +
STACK CFI 28348 .cfa: sp 0 +
STACK CFI 2834c .cfa: x29 32 +
STACK CFI INIT 283f8 84 .cfa: sp 0 +
STACK CFI 28400 .cfa: sp 32 +
STACK CFI 28408 .cfa: x29 32 + x19: .cfa -8 + ^ x20: .cfa -16 + ^ .ra: .cfa -24 + ^ x29: .cfa -32 + ^
STACK CFI 28448 .cfa: sp 32 +
STACK CFI 28450 .cfa: sp 0 +
STACK CFI 28458 .cfa: x29 32 +
STACK CFI INIT 2847c a4 .cfa: sp 0 +
STACK CFI 28480 .cfa: sp 48 +
STACK CFI 2848c .cfa: x29 32 + x19: .cfa -8 + ^ x20: .cfa -16 + ^ .ra: .cfa -24 + ^ x29: .cfa -32 + ^
STACK CFI 2850c .cfa: sp 48 +
STACK CFI 28518 .cfa: sp 0 +
STACK CFI 2851c .cfa: x29 32 +
STACK CFI INIT 28520 50 .cfa: sp 0 +
STACK CFI 28524 .cfa: sp 32 +
STACK CFI 2852c .cfa: x29 32 + x19: .cfa -16 + ^ .ra: .cfa -24 + ^ x29: .cfa -32 + ^
STACK CFI 28544 .cfa: sp 32 +
STACK CFI 2854c .cfa: sp 0 +
STACK CFI 28550 .cfa: x29 32 +
STACK CFI 28564 .cfa: sp 32 +
STACK CFI 2856c .cfa: sp 0 +
STACK CFI INIT 28570 64 .cfa: sp 0 +
STACK CFI 28574 .cfa: sp 32 +
STACK CFI 2857c .cfa: x29 32 + x19: .cfa -16 + ^ .ra: .cfa -24 + ^ x29: .cfa -32 + ^
STACK CFI 285a8 .cfa: sp 32 +
STACK CFI 285b0 .cfa: sp 0 +
STACK CFI 285b4 .cfa: x29 32 +
STACK CFI 285c8 .cfa: sp 32 +
STACK CFI 285d0 .cfa: sp 0 +
STACK CFI INIT 285d4 14 .cfa: sp 0 +
STACK CFI 285d8 .cfa: sp 16 +
STACK CFI 285dc .cfa: x29 16 + .ra: .cfa -8 + ^ x29: .cfa -16 + ^
STACK CFI INIT 285e8 168 .cfa: sp 0 +
STACK CFI 285ec .cfa: sp 80 +
STACK CFI 28600 .cfa: x29 80 + x19: .cfa -8 + ^ x20: .cfa -16 + ^ x21: .cfa -24 + ^ x22: .cfa -32 + ^ x23: .cfa -40 + ^ x24: .cfa -48 + ^ x25: .cfa -56 + ^ x26: .cfa -64 + ^ .ra: .cfa -72 + ^ x29: .cfa -80 + ^
STACK CFI 28738 .cfa: sp 80 +
STACK CFI 2874c .cfa: sp 0 +
STACK CFI INIT 28750 1b0 .cfa: sp 0 +
STACK CFI INIT 28c6c 4 .cfa: sp 0 +
STACK CFI INIT 28c70 2a4 .cfa: sp 0 +
STACK CFI 28c74 .cfa: sp 80 +
STACK CFI 28c88 .cfa: x29 64 + x19: .cfa -8 + ^ x20: .cfa -16 + ^ x21: .cfa -24 + ^ x22: .cfa -32 + ^ x23: .cfa -48 + ^ .ra: .cfa -56 + ^ x29: .cfa -64 + ^
STACK CFI 28ef8 .cfa: sp 80 +
STACK CFI 28f0c .cfa: sp 0 +
STACK CFI 28f10 .cfa: x29 64 +
STACK CFI INIT 28fd4 f8 .cfa: sp 0 +
STACK CFI 28fd8 .cfa: sp 64 +
STACK CFI 28fe8 .cfa: x29 64 + x19: .cfa -8 + ^ x20: .cfa -16 + ^ x21: .cfa -24 + ^ x22: .cfa -32 + ^ x23: .cfa -48 + ^ .ra: .cfa -56 + ^ x29: .cfa -64 + ^
STACK CFI 29044 .cfa: sp 64 +
STACK CFI 29054 .cfa: sp 0 +
STACK CFI 29058 .cfa: x29 64 +
STACK CFI 29074 .cfa: sp 64 +
STACK CFI 29084 .cfa: sp 0 +
STACK CFI 29088 .cfa: x29 64 +
STACK CFI 290b8 .cfa: sp 64 +
STACK CFI 290c8 .cfa: sp 0 +
STACK CFI INIT 293f0 4 .cfa: sp 0 +
STACK CFI INIT 296e8 80 .cfa: sp 0 +
STACK CFI 296ec .cfa: sp 32 +
STACK CFI 296f4 .cfa: x29 32 + x19: .cfa -16 + ^ .ra: .cfa -24 + ^ x29: .cfa -32 + ^
STACK CFI 2975c .cfa: sp 32 +
STACK CFI 29764 .cfa: sp 0 +
STACK CFI INIT 2998c 8 .cfa: sp 0 +
STACK CFI INIT 29994 3c .cfa: sp 0 +
STACK CFI 2999c .cfa: sp 32 +
STACK CFI 299a4 .cfa: x29 32 + x19: .cfa -16 + ^ .ra: .cfa -24 + ^ x29: .cfa -32 + ^
STACK CFI 299c0 .cfa: sp 32 +
STACK CFI 299c8 .cfa: sp 0 +
STACK CFI INIT 29cf8 4 .cfa: sp 0 +
STACK CFI INIT 29fe8 78 .cfa: sp 0 +
STACK CFI 29fec .cfa: sp 32 +
STACK CFI 29ff4 .cfa: x29 32 + x19: .cfa -16 + ^ .ra: .cfa -24 + ^ x29: .cfa -32 + ^
STACK CFI 2a054 .cfa: sp 32 +
STACK CFI 2a05c .cfa: sp 0 +
STACK CFI INIT 2a3a4 4 .cfa: sp 0 +
STACK CFI INIT 2a3a8 318 .cfa: sp 0 +
STACK CFI 2a3ac .cfa: sp 160 +
STACK CFI 2a3cc .cfa: x29 96 + x19: .cfa -8 + ^ x20: .cfa -16 + ^ x21: .cfa -24 + ^ x22: .cfa -32 + ^ x23: .cfa -40 + ^ x24: .cfa -48 + ^ x25: .cfa -56 + ^ x26: .cfa -64 + ^ x27: .cfa -72 + ^ x28: .cfa -80 + ^ .ra: .cfa -88 + ^ x29: .cfa -96 + ^ v8: .cfa -112 + ^
STACK CFI 2a484 .cfa: sp 160 +
STACK CFI 2a4a4 .cfa: sp 0 +
STACK CFI 2a4a8 .cfa: x29 96 +
STACK CFI INIT 2a768 98 .cfa: sp 0 +
STACK CFI INIT 2ab4c 4 .cfa: sp 0 +
STACK CFI INIT 2ab50 1fc .cfa: sp 0 +
STACK CFI 2ab54 .cfa: sp 64 +
STACK CFI 2ab64 .cfa: x29 48 + x19: .cfa -8 + ^ x20: .cfa -16 + ^ x21: .cfa -24 + ^ x22: .cfa -32 + ^ .ra: .cfa -40 + ^ x29: .cfa -48 + ^
STACK CFI 2ad34 .cfa: sp 64 +
STACK CFI 2ad44 .cfa: sp 0 +
STACK CFI 2ad48 .cfa: x29 48 +
STACK CFI INIT 2b0bc 4 .cfa: sp 0 +
STACK CFI INIT 2b0c0 2dc .cfa: sp 0 +
STACK CFI 2b0c4 .cfa: sp 144 +
STACK CFI 2b0e0 .cfa: x29 96 + x19: .cfa -8 + ^ x20: .cfa -16 + ^ x21: .cfa -24 + ^ x22: .cfa -32 + ^ x23: .cfa -40 + ^ x24: .cfa -48 + ^ x25: .cfa -56 + ^ x26: .cfa -64 + ^ x27: .cfa -72 + ^ x28: .cfa -80 + ^ .ra: .cfa -88 + ^ x29: .cfa -96 + ^
STACK CFI 2b1a4 .cfa: sp 144 +
STACK CFI 2b1c0 .cfa: sp 0 +
STACK CFI 2b1c4 .cfa: x29 96 +
STACK CFI INIT 2b444 9c .cfa: sp 0 +
STACK CFI INIT 2b82c 4 .cfa: sp 0 +
STACK CFI INIT 2b830 38 .cfa: sp 0 +
STACK CFI 2b834 .cfa: sp 32 +
STACK CFI 2b83c .cfa: x29 32 + x19: .cfa -8 + ^ x20: .cfa -16 + ^ .ra: .cfa -24 + ^ x29: .cfa -32 + ^
STACK CFI 2b85c .cfa: sp 32 +
STACK CFI 2b864 .cfa: sp 0 +
STACK CFI INIT 2bb5c 4 .cfa: sp 0 +
STACK CFI INIT 2be9c 9c .cfa: sp 0 +
STACK CFI INIT 2cd0c 50 .cfa: sp 0 +
STACK CFI 2cd10 .cfa: sp 32 +
STACK CFI 2cd18 .cfa: x29 32 + x19: .cfa -16 + ^ .ra: .cfa -24 + ^ x29: .cfa -32 + ^
STACK CFI 2cd30 .cfa: sp 32 +
STACK CFI 2cd38 .cfa: sp 0 +
STACK CFI 2cd3c .cfa: x29 32 +
STACK CFI 2cd50 .cfa: sp 32 +
STACK CFI 2cd58 .cfa: sp 0 +
STACK CFI INIT 2ceb0 9c .cfa: sp 0 +
STACK CFI 2ceb4 .cfa: sp 32 +
STACK CFI 2cebc .cfa: x29 32 + x19: .cfa -8 + ^ x20: .cfa -16 + ^ .ra: .cfa -24 + ^ x29: .cfa -32 + ^
STACK CFI 2cf40 .cfa: sp 32 +
STACK CFI 2cf48 .cfa: sp 0 +
STACK CFI INIT 2d200 24 .cfa: sp 0 +
STACK CFI 2d204 .cfa: sp 32 +
STACK CFI 2d20c .cfa: x29 32 + x19: .cfa -16 + ^ .ra: .cfa -24 + ^ x29: .cfa -32 + ^
STACK CFI 2d218 .cfa: sp 32 +
STACK CFI 2d220 .cfa: sp 0 +
STACK CFI INIT 2d224 34 .cfa: sp 0 +
STACK CFI 2d228 .cfa: sp 32 +
STACK CFI 2d230 .cfa: x29 32 + x19: .cfa -8 + ^ x20: .cfa -16 + ^ .ra: .cfa -24 + ^ x29: .cfa -32 + ^
STACK CFI 2d24c .cfa: sp 32 +
STACK CFI 2d254 .cfa: sp 0 +
STACK CFI INIT 2d258 2c .cfa: sp 0 +
STACK CFI 2d25c .cfa: sp 32 +
STACK CFI 2d264 .cfa: x29 32 + x19: .cfa -16 + ^ .ra: .cfa -24 + ^ x29: .cfa -32 + ^
STACK CFI 2d278 .cfa: sp 32 +
STACK CFI 2d280 .cfa: sp 0 +
STACK CFI INIT 2d284 28 .cfa: sp 0 +
STACK CFI INIT 2d2ac 4 .cfa: sp 0 +
STACK CFI INIT 2d2b0 8 .cfa: sp 0 +
STACK CFI INIT 2dc08 8 .cfa: sp 0 +
STACK CFI INIT 2dc10 28 .cfa: sp 0 +
STACK CFI 2dc14 .cfa: sp 32 +
STACK CFI 2dc1c .cfa: x29 32 + x19: .cfa -16 + ^ .ra: .cfa -24 + ^ x29: .cfa -32 + ^
STACK CFI 2dc2c .cfa: sp 32 +
STACK CFI 2dc34 .cfa: sp 0 +
STACK CFI INIT 2dc38 2c .cfa: sp 0 +
STACK CFI INIT 2dc64 4 .cfa: sp 0 +
STACK CFI INIT 2dc68 8 .cfa: sp 0 +
STACK CFI INIT 2dcdc 4 .cfa: sp 0 +
STACK CFI INIT 2dd4c 4 .cfa: sp 0 +
STACK CFI INIT 2df54 4 .cfa: sp 0 +
STACK CFI INIT 2e104 a4 .cfa: sp 0 +
STACK CFI 2e108 .cfa: sp 32 +
STACK CFI 2e110 .cfa: x29 32 + x19: .cfa -8 + ^ x20: .cfa -16 + ^ .ra: .cfa -24 + ^ x29: .cfa -32 + ^
STACK CFI 2e19c .cfa: sp 32 +
STACK CFI 2e1a4 .cfa: sp 0 +
STACK CFI INIT 2e1a8 50 .cfa: sp 0 +
STACK CFI 2e1ac .cfa: sp 32 +
STACK CFI 2e1b4 .cfa: x29 32 + x19: .cfa -16 + ^ .ra: .cfa -24 + ^ x29: .cfa -32 + ^
STACK CFI 2e1cc .cfa: sp 32 +
STACK CFI 2e1d4 .cfa: sp 0 +
STACK CFI 2e1d8 .cfa: x29 32 +
STACK CFI 2e1ec .cfa: sp 32 +
STACK CFI 2e1f4 .cfa: sp 0 +
STACK CFI INIT 2e1f8 50 .cfa: sp 0 +
STACK CFI 2e1fc .cfa: sp 32 +
STACK CFI 2e204 .cfa: x29 32 + x19: .cfa -16 + ^ .ra: .cfa -24 + ^ x29: .cfa -32 + ^
STACK CFI 2e21c .cfa: sp 32 +
STACK CFI 2e224 .cfa: sp 0 +
STACK CFI 2e228 .cfa: x29 32 +
STACK CFI 2e23c .cfa: sp 32 +
STACK CFI 2e244 .cfa: sp 0 +
STACK CFI INIT 2e248 5c .cfa: sp 0 +
STACK CFI 2e24c .cfa: sp 32 +
STACK CFI 2e254 .cfa: x29 32 + x19: .cfa -16 + ^ .ra: .cfa -24 + ^ x29: .cfa -32 + ^
STACK CFI 2e278 .cfa: sp 32 +
STACK CFI 2e280 .cfa: sp 0 +
STACK CFI 2e284 .cfa: x29 32 +
STACK CFI 2e298 .cfa: sp 32 +
STACK CFI 2e2a0 .cfa: sp 0 +
STACK CFI INIT 2e2a4 6c .cfa: sp 0 +
STACK CFI 2e2a8 .cfa: sp 32 +
STACK CFI 2e2b0 .cfa: x29 32 + x19: .cfa -8 + ^ x20: .cfa -16 + ^ .ra: .cfa -24 + ^ x29: .cfa -32 + ^
STACK CFI 2e2dc .cfa: sp 32 +
STACK CFI 2e2e4 .cfa: sp 0 +
STACK CFI 2e2e8 .cfa: x29 32 +
STACK CFI 2e304 .cfa: sp 32 +
STACK CFI 2e30c .cfa: sp 0 +
STACK CFI INIT 2e310 58 .cfa: sp 0 +
STACK CFI 2e314 .cfa: sp 32 +
STACK CFI 2e31c .cfa: x29 32 + x19: .cfa -8 + ^ x20: .cfa -16 + ^ .ra: .cfa -24 + ^ x29: .cfa -32 + ^
STACK CFI 2e35c .cfa: sp 32 +
STACK CFI 2e364 .cfa: sp 0 +
STACK CFI INIT 2e368 4c .cfa: sp 0 +
STACK CFI 2e36c .cfa: sp 32 +
STACK CFI 2e374 .cfa: x29 32 + x19: .cfa -8 + ^ x20: .cfa -16 + ^ .ra: .cfa -24 + ^ x29: .cfa -32 + ^
STACK CFI 2e3a8 .cfa: sp 32 +
STACK CFI 2e3b0 .cfa: sp 0 +
STACK CFI INIT 2e3b4 50 .cfa: sp 0 +
STACK CFI 2e3b8 .cfa: sp 32 +
STACK CFI 2e3c0 .cfa: x29 32 + x19: .cfa -16 + ^ .ra: .cfa -24 + ^ x29: .cfa -32 + ^
STACK CFI 2e3d8 .cfa: sp 32 +
STACK CFI 2e3e0 .cfa: sp 0 +
STACK CFI 2e3e4 .cfa: x29 32 +
STACK CFI 2e3f8 .cfa: sp 32 +
STACK CFI 2e400 .cfa: sp 0 +
STACK CFI INIT 2e404 60 .cfa: sp 0 +
STACK CFI 2e408 .cfa: sp 32 +
STACK CFI 2e410 .cfa: x29 32 + x19: .cfa -8 + ^ x20: .cfa -16 + ^ .ra: .cfa -24 + ^ x29: .cfa -32 + ^
STACK CFI 2e430 .cfa: sp 32 +
STACK CFI 2e438 .cfa: sp 0 +
STACK CFI 2e43c .cfa: x29 32 +
STACK CFI 2e458 .cfa: sp 32 +
STACK CFI 2e460 .cfa: sp 0 +
STACK CFI INIT 2e634 1c .cfa: sp 0 +
STACK CFI INIT 2e650 c .cfa: sp 0 +
STACK CFI INIT 2e65c 60 .cfa: sp 0 +
STACK CFI 2e660 .cfa: sp 32 +
STACK CFI 2e668 .cfa: x29 32 + x19: .cfa -8 + ^ x20: .cfa -16 + ^ .ra: .cfa -24 + ^ x29: .cfa -32 + ^
STACK CFI 2e688 .cfa: sp 32 +
STACK CFI 2e690 .cfa: sp 0 +
STACK CFI 2e694 .cfa: x29 32 +
STACK CFI 2e6b0 .cfa: sp 32 +
STACK CFI 2e6b8 .cfa: sp 0 +
STACK CFI INIT 2e6bc 70 .cfa: sp 0 +
STACK CFI 2e6c0 .cfa: sp 32 +
STACK CFI 2e6c8 .cfa: x29 32 + x19: .cfa -8 + ^ x20: .cfa -16 + ^ .ra: .cfa -24 + ^ x29: .cfa -32 + ^
STACK CFI 2e6f0 .cfa: sp 32 +
STACK CFI 2e6f8 .cfa: sp 0 +
STACK CFI 2e6fc .cfa: x29 32 +
STACK CFI 2e720 .cfa: sp 32 +
STACK CFI 2e728 .cfa: sp 0 +
STACK CFI INIT 2e72c 5c .cfa: sp 0 +
STACK CFI 2e730 .cfa: sp 32 +
STACK CFI 2e738 .cfa: x29 32 + x19: .cfa -16 + ^ .ra: .cfa -24 + ^ x29: .cfa -32 + ^
STACK CFI 2e75c .cfa: sp 32 +
STACK CFI 2e764 .cfa: sp 0 +
STACK CFI 2e768 .cfa: x29 32 +
STACK CFI 2e77c .cfa: sp 32 +
STACK CFI 2e784 .cfa: sp 0 +
STACK CFI INIT 2e788 6c .cfa: sp 0 +
STACK CFI 2e78c .cfa: sp 32 +
STACK CFI 2e794 .cfa: x29 32 + x19: .cfa -8 + ^ x20: .cfa -16 + ^ .ra: .cfa -24 + ^ x29: .cfa -32 + ^
STACK CFI 2e7c0 .cfa: sp 32 +
STACK CFI 2e7c8 .cfa: sp 0 +
STACK CFI 2e7cc .cfa: x29 32 +
STACK CFI 2e7e8 .cfa: sp 32 +
STACK CFI 2e7f0 .cfa: sp 0 +
STACK CFI INIT 2e7f4 58 .cfa: sp 0 +
STACK CFI 2e7f8 .cfa: sp 32 +
STACK CFI 2e800 .cfa: x29 32 + x19: .cfa -8 + ^ x20: .cfa -16 + ^ .ra: .cfa -24 + ^ x29: .cfa -32 + ^
STACK CFI 2e840 .cfa: sp 32 +
STACK CFI 2e848 .cfa: sp 0 +
STACK CFI INIT 2e84c 4c .cfa: sp 0 +
STACK CFI 2e850 .cfa: sp 32 +
STACK CFI 2e858 .cfa: x29 32 + x19: .cfa -8 + ^ x20: .cfa -16 + ^ .ra: .cfa -24 + ^ x29: .cfa -32 + ^
STACK CFI 2e88c .cfa: sp 32 +
STACK CFI 2e894 .cfa: sp 0 +
STACK CFI INIT 2e898 50 .cfa: sp 0 +
STACK CFI 2e89c .cfa: sp 32 +
STACK CFI 2e8a4 .cfa: x29 32 + x19: .cfa -16 + ^ .ra: .cfa -24 + ^ x29: .cfa -32 + ^
STACK CFI 2e8bc .cfa: sp 32 +
STACK CFI 2e8c4 .cfa: sp 0 +
STACK CFI 2e8c8 .cfa: x29 32 +
STACK CFI 2e8dc .cfa: sp 32 +
STACK CFI 2e8e4 .cfa: sp 0 +
STACK CFI INIT 2e8e8 60 .cfa: sp 0 +
STACK CFI 2e8ec .cfa: sp 32 +
STACK CFI 2e8f4 .cfa: x29 32 + x19: .cfa -8 + ^ x20: .cfa -16 + ^ .ra: .cfa -24 + ^ x29: .cfa -32 + ^
STACK CFI 2e914 .cfa: sp 32 +
STACK CFI 2e91c .cfa: sp 0 +
STACK CFI 2e920 .cfa: x29 32 +
STACK CFI 2e93c .cfa: sp 32 +
STACK CFI 2e944 .cfa: sp 0 +
STACK CFI INIT 2eb0c 1c .cfa: sp 0 +
STACK CFI INIT 2eb28 c .cfa: sp 0 +
STACK CFI INIT 2eb34 34 .cfa: sp 0 +
STACK CFI 2eb38 .cfa: sp 16 +
STACK CFI 2eb3c .cfa: x29 16 + .ra: .cfa -8 + ^ x29: .cfa -16 + ^
STACK CFI INIT 2eb68 24 .cfa: sp 0 +
STACK CFI 2eb6c .cfa: sp 32 +
STACK CFI 2eb74 .cfa: x29 32 + x19: .cfa -16 + ^ .ra: .cfa -24 + ^ x29: .cfa -32 + ^
STACK CFI 2eb80 .cfa: sp 32 +
STACK CFI 2eb88 .cfa: sp 0 +
STACK CFI INIT 2eb8c 8c .cfa: sp 0 +
STACK CFI 2eb90 .cfa: sp 48 +
STACK CFI 2eb9c .cfa: x29 48 + x19: .cfa -8 + ^ x20: .cfa -16 + ^ x21: .cfa -24 + ^ x22: .cfa -32 + ^ .ra: .cfa -40 + ^ x29: .cfa -48 + ^
STACK CFI 2eba4 .cfa: sp 48 +
STACK CFI 2ebb0 .cfa: sp 0 +
STACK CFI 2ebb4 .cfa: x29 48 +
STACK CFI 2ec08 .cfa: sp 48 +
STACK CFI 2ec14 .cfa: sp 0 +
STACK CFI INIT 2ec18 60 .cfa: sp 0 +
STACK CFI 2ec28 .cfa: sp 32 +
STACK CFI 2ec30 .cfa: x29 32 + x19: .cfa -8 + ^ x20: .cfa -16 + ^ .ra: .cfa -24 + ^ x29: .cfa -32 + ^
STACK CFI 2ec6c .cfa: sp 32 +
STACK CFI 2ec74 .cfa: sp 0 +
STACK CFI INIT 2ff60 120 .cfa: sp 0 +
STACK CFI 2ff64 .cfa: sp 64 +
STACK CFI 2ff74 .cfa: x29 64 + x19: .cfa -8 + ^ x20: .cfa -16 + ^ x21: .cfa -24 + ^ x22: .cfa -32 + ^ x23: .cfa -40 + ^ x24: .cfa -48 + ^ .ra: .cfa -56 + ^ x29: .cfa -64 + ^
STACK CFI 3006c .cfa: sp 64 +
STACK CFI 3007c .cfa: sp 0 +
STACK CFI INIT 30218 4 .cfa: sp 0 +
STACK CFI INIT 3021c 4 .cfa: sp 0 +
STACK CFI INIT 30220 34 .cfa: sp 0 +
STACK CFI 30224 .cfa: sp 32 +
STACK CFI 3022c .cfa: x29 32 + x19: .cfa -16 + ^ .ra: .cfa -24 + ^ x29: .cfa -32 + ^
STACK CFI 30248 .cfa: sp 32 +
STACK CFI 30250 .cfa: sp 0 +
STACK CFI INIT 30254 14 .cfa: sp 0 +
STACK CFI INIT 30268 4 .cfa: sp 0 +
STACK CFI INIT 3026c 4 .cfa: sp 0 +
STACK CFI INIT 3045c 1c .cfa: sp 0 +
STACK CFI INIT 30478 c .cfa: sp 0 +
STACK CFI INIT 304f8 8 .cfa: sp 0 +
STACK CFI INIT 30500 14 .cfa: sp 0 +
STACK CFI INIT 30588 4 .cfa: sp 0 +
STACK CFI INIT 3058c 14 .cfa: sp 0 +
STACK CFI INIT 305a0 14 .cfa: sp 0 +
STACK CFI INIT 305b4 14 .cfa: sp 0 +
STACK CFI INIT 307b4 164 .cfa: sp 0 +
STACK CFI 307b8 .cfa: sp 48 +
STACK CFI 307c4 .cfa: x29 48 + x19: .cfa -8 + ^ x20: .cfa -16 + ^ x21: .cfa -24 + ^ x22: .cfa -32 + ^ .ra: .cfa -40 + ^ x29: .cfa -48 + ^
STACK CFI 30900 .cfa: sp 48 +
STACK CFI 3090c .cfa: sp 0 +
STACK CFI 30910 .cfa: x29 48 +
STACK CFI INIT 30918 98 .cfa: sp 0 +
STACK CFI 3091c .cfa: sp 304 +
STACK CFI 30928 .cfa: x29 32 + x19: .cfa -8 + ^ x28: .cfa -16 + ^ .ra: .cfa -24 + ^ x29: .cfa -32 + ^
STACK CFI 3099c .cfa: sp 304 +
STACK CFI 309a8 .cfa: sp 0 +
STACK CFI 309ac .cfa: x29 32 +
STACK CFI INIT 31560 4 .cfa: sp 0 +
STACK CFI INIT 31564 4 .cfa: sp 0 +
STACK CFI INIT 31568 38 .cfa: sp 0 +
STACK CFI 3156c .cfa: sp 32 +
STACK CFI 31574 .cfa: x29 32 + x19: .cfa -16 + ^ .ra: .cfa -24 + ^ x29: .cfa -32 + ^
STACK CFI 31594 .cfa: sp 32 +
STACK CFI 3159c .cfa: sp 0 +
STACK CFI INIT 315a0 18 .cfa: sp 0 +
STACK CFI INIT 315b8 4 .cfa: sp 0 +
STACK CFI INIT 315bc 4 .cfa: sp 0 +
STACK CFI INIT 31fb0 1c .cfa: sp 0 +
STACK CFI INIT 31fcc c .cfa: sp 0 +
STACK CFI INIT 31fd8 44 .cfa: sp 0 +
STACK CFI 31fdc .cfa: sp 32 +
STACK CFI 31fe4 .cfa: x29 32 + x19: .cfa -16 + ^ .ra: .cfa -24 + ^ x29: .cfa -32 + ^
STACK CFI 32000 .cfa: sp 32 +
STACK CFI 32008 .cfa: sp 0 +
STACK CFI 3200c .cfa: x29 32 +
STACK CFI 32010 .cfa: sp 32 +
STACK CFI 32018 .cfa: sp 0 +
STACK CFI INIT 33354 1720 .cfa: sp 0 +
STACK CFI 33358 .cfa: sp 208 +
STACK CFI 33374 .cfa: x29 96 + x19: .cfa -8 + ^ x20: .cfa -16 + ^ x21: .cfa -24 + ^ x22: .cfa -32 + ^ x23: .cfa -40 + ^ x24: .cfa -48 + ^ x25: .cfa -56 + ^ x26: .cfa -64 + ^ x27: .cfa -72 + ^ x28: .cfa -80 + ^ .ra: .cfa -88 + ^ x29: .cfa -96 + ^
STACK CFI 34a50 .cfa: sp 208 +
STACK CFI 34a6c .cfa: sp 0 +
STACK CFI 34a70 .cfa: x29 96 +
STACK CFI INIT 34a74 1b8 .cfa: sp 0 +
STACK CFI INIT 34c2c 1d0 .cfa: sp 0 +
STACK CFI 34c30 .cfa: sp 80 +
STACK CFI 34c44 .cfa: x29 80 + x19: .cfa -8 + ^ x20: .cfa -16 + ^ x21: .cfa -24 + ^ x22: .cfa -32 + ^ x23: .cfa -40 + ^ x24: .cfa -48 + ^ x25: .cfa -64 + ^ .ra: .cfa -72 + ^ x29: .cfa -80 + ^
STACK CFI 34de4 .cfa: sp 80 +
STACK CFI 34df8 .cfa: sp 0 +
STACK CFI INIT 34dfc 178 .cfa: sp 0 +
STACK CFI 34e00 .cfa: sp 80 +
STACK CFI 34e14 .cfa: x29 64 + x19: .cfa -8 + ^ x20: .cfa -16 + ^ x21: .cfa -24 + ^ x22: .cfa -32 + ^ x23: .cfa -40 + ^ x24: .cfa -48 + ^ .ra: .cfa -56 + ^ x29: .cfa -64 + ^
STACK CFI 34f58 .cfa: sp 80 +
STACK CFI 34f6c .cfa: sp 0 +
STACK CFI 34f70 .cfa: x29 64 +
STACK CFI INIT 34f74 78 .cfa: sp 0 +
STACK CFI 34f78 .cfa: sp 48 +
STACK CFI 34f84 .cfa: x29 48 + x19: .cfa -8 + ^ x20: .cfa -16 + ^ x21: .cfa -24 + ^ x22: .cfa -32 + ^ .ra: .cfa -40 + ^ x29: .cfa -48 + ^
STACK CFI 34fcc .cfa: sp 48 +
STACK CFI 34fd8 .cfa: sp 0 +
STACK CFI 34fdc .cfa: sp 48 +
STACK CFI 34fe8 .cfa: sp 0 +
STACK CFI INIT 34fec 178 .cfa: sp 0 +
STACK CFI 34ff0 .cfa: sp 80 +
STACK CFI 35004 .cfa: x29 64 + x19: .cfa -8 + ^ x20: .cfa -16 + ^ x21: .cfa -24 + ^ x22: .cfa -32 + ^ x23: .cfa -40 + ^ x24: .cfa -48 + ^ .ra: .cfa -56 + ^ x29: .cfa -64 + ^
STACK CFI 35148 .cfa: sp 80 +
STACK CFI 3515c .cfa: sp 0 +
STACK CFI 35160 .cfa: x29 64 +
STACK CFI INIT 35164 50 .cfa: sp 0 +
STACK CFI 35168 .cfa: sp 32 +
STACK CFI 35170 .cfa: x29 32 + x19: .cfa -16 + ^ .ra: .cfa -24 + ^ x29: .cfa -32 + ^
STACK CFI 35198 .cfa: sp 32 +
STACK CFI 351a0 .cfa: sp 0 +
STACK CFI 351a4 .cfa: x29 32 +
STACK CFI 351a8 .cfa: sp 32 +
STACK CFI 351b0 .cfa: sp 0 +
STACK CFI INIT 351b4 64 .cfa: sp 0 +
STACK CFI 351b8 .cfa: sp 32 +
STACK CFI 351c0 .cfa: x29 32 + x19: .cfa -16 + ^ .ra: .cfa -24 + ^ x29: .cfa -32 + ^
STACK CFI 351e4 .cfa: sp 32 +
STACK CFI 351ec .cfa: sp 0 +
STACK CFI 351f0 .cfa: x29 32 +
STACK CFI 3520c .cfa: sp 32 +
STACK CFI 35214 .cfa: sp 0 +
STACK CFI INIT 353a4 44 .cfa: sp 0 +
STACK CFI 353a8 .cfa: sp 32 +
STACK CFI 353b0 .cfa: x29 32 + x19: .cfa -16 + ^ .ra: .cfa -24 + ^ x29: .cfa -32 + ^
STACK CFI 353cc .cfa: sp 32 +
STACK CFI 353d4 .cfa: sp 0 +
STACK CFI 353d8 .cfa: x29 32 +
STACK CFI 353dc .cfa: sp 32 +
STACK CFI 353e4 .cfa: sp 0 +
STACK CFI INIT 353e8 58 .cfa: sp 0 +
STACK CFI 353ec .cfa: sp 32 +
STACK CFI 353f4 .cfa: x29 32 + x19: .cfa -16 + ^ .ra: .cfa -24 + ^ x29: .cfa -32 + ^
STACK CFI 3540c .cfa: sp 32 +
STACK CFI 35414 .cfa: sp 0 +
STACK CFI 35418 .cfa: x29 32 +
STACK CFI 35434 .cfa: sp 32 +
STACK CFI 3543c .cfa: sp 0 +
STACK CFI INIT 358d4 1c .cfa: sp 0 +
STACK CFI INIT 358f0 c .cfa: sp 0 +
STACK CFI INIT 358fc 4 .cfa: sp 0 +
STACK CFI INIT 35900 14 .cfa: sp 0 +
STACK CFI INIT 35914 60 .cfa: sp 0 +
STACK CFI 35918 .cfa: sp 32 +
STACK CFI 35920 .cfa: x29 32 + x19: .cfa -8 + ^ x20: .cfa -16 + ^ .ra: .cfa -24 + ^ x29: .cfa -32 + ^
STACK CFI 35940 .cfa: sp 32 +
STACK CFI 35948 .cfa: sp 0 +
STACK CFI 3594c .cfa: x29 32 +
STACK CFI 35968 .cfa: sp 32 +
STACK CFI 35970 .cfa: sp 0 +
STACK CFI INIT 35974 70 .cfa: sp 0 +
STACK CFI 35978 .cfa: sp 32 +
STACK CFI 35980 .cfa: x29 32 + x19: .cfa -8 + ^ x20: .cfa -16 + ^ .ra: .cfa -24 + ^ x29: .cfa -32 + ^
STACK CFI 359a8 .cfa: sp 32 +
STACK CFI 359b0 .cfa: sp 0 +
STACK CFI 359b4 .cfa: x29 32 +
STACK CFI 359d8 .cfa: sp 32 +
STACK CFI 359e0 .cfa: sp 0 +
STACK CFI INIT 359e4 10 .cfa: sp 0 +
STACK CFI INIT 359f4 30 .cfa: sp 0 +
STACK CFI 359f8 .cfa: sp 32 +
STACK CFI 35a00 .cfa: x29 32 + x19: .cfa -16 + ^ .ra: .cfa -24 + ^ x29: .cfa -32 + ^
STACK CFI 35a18 .cfa: sp 32 +
STACK CFI 35a20 .cfa: sp 0 +
STACK CFI INIT 35a24 4 .cfa: sp 0 +
STACK CFI INIT 35a28 4 .cfa: sp 0 +
STACK CFI INIT 35a2c 3c .cfa: sp 0 +
STACK CFI 35a30 .cfa: sp 32 +
STACK CFI 35a38 .cfa: x29 32 + x19: .cfa -16 + ^ .ra: .cfa -24 + ^ x29: .cfa -32 + ^
STACK CFI 35a44 .cfa: sp 32 +
STACK CFI 35a4c .cfa: sp 0 +
STACK CFI 35a50 .cfa: x29 32 +
STACK CFI 35a5c .cfa: sp 32 +
STACK CFI 35a64 .cfa: sp 0 +
STACK CFI INIT 35a68 4c .cfa: sp 0 +
STACK CFI 35a6c .cfa: sp 32 +
STACK CFI 35a74 .cfa: x29 32 + x19: .cfa -8 + ^ x20: .cfa -16 + ^ .ra: .cfa -24 + ^ x29: .cfa -32 + ^
STACK CFI 35a9c .cfa: sp 32 +
STACK CFI 35aa4 .cfa: sp 0 +
STACK CFI 35aa8 .cfa: sp 32 +
STACK CFI 35ab0 .cfa: sp 0 +
STACK CFI INIT 35cd4 64 .cfa: sp 0 +
STACK CFI 35cd8 .cfa: sp 32 +
STACK CFI 35ce0 .cfa: x29 32 + x19: .cfa -16 + ^ .ra: .cfa -24 + ^ x29: .cfa -32 + ^
STACK CFI 35d0c .cfa: sp 32 +
STACK CFI 35d14 .cfa: sp 0 +
STACK CFI 35d18 .cfa: x29 32 +
STACK CFI 35d2c .cfa: sp 32 +
STACK CFI 35d34 .cfa: sp 0 +
STACK CFI INIT 35d38 24 .cfa: sp 0 +
STACK CFI 35d3c .cfa: sp 32 +
STACK CFI 35d44 .cfa: x29 32 + x19: .cfa -16 + ^ .ra: .cfa -24 + ^ x29: .cfa -32 + ^
STACK CFI 35d50 .cfa: sp 32 +
STACK CFI 35d58 .cfa: sp 0 +
STACK CFI INIT 35d5c 24 .cfa: sp 0 +
STACK CFI 35d60 .cfa: sp 32 +
STACK CFI 35d68 .cfa: x29 32 + x19: .cfa -16 + ^ .ra: .cfa -24 + ^ x29: .cfa -32 + ^
STACK CFI 35d74 .cfa: sp 32 +
STACK CFI 35d7c .cfa: sp 0 +
STACK CFI INIT 35d80 24 .cfa: sp 0 +
STACK CFI 35d84 .cfa: sp 32 +
STACK CFI 35d8c .cfa: x29 32 + x19: .cfa -16 + ^ .ra: .cfa -24 + ^ x29: .cfa -32 + ^
STACK CFI 35d98 .cfa: sp 32 +
STACK CFI 35da0 .cfa: sp 0 +
STACK CFI INIT 36014 8 .cfa: sp 0 +
STACK CFI INIT 3601c 24 .cfa: sp 0 +
STACK CFI 36020 .cfa: sp 32 +
STACK CFI 36028 .cfa: x29 32 + x19: .cfa -16 + ^ .ra: .cfa -24 + ^ x29: .cfa -32 + ^
STACK CFI 36034 .cfa: sp 32 +
STACK CFI 3603c .cfa: sp 0 +
STACK CFI INIT 36040 28 .cfa: sp 0 +
STACK CFI 36044 .cfa: sp 32 +
STACK CFI 3604c .cfa: x29 32 + x19: .cfa -16 + ^ .ra: .cfa -24 + ^ x29: .cfa -32 + ^
STACK CFI 3605c .cfa: sp 32 +
STACK CFI 36064 .cfa: sp 0 +
STACK CFI INIT 36340 8 .cfa: sp 0 +
STACK CFI INIT 36348 24 .cfa: sp 0 +
STACK CFI 3634c .cfa: sp 32 +
STACK CFI 36354 .cfa: x29 32 + x19: .cfa -16 + ^ .ra: .cfa -24 + ^ x29: .cfa -32 + ^
STACK CFI 36360 .cfa: sp 32 +
STACK CFI 36368 .cfa: sp 0 +
STACK CFI INIT 3636c 28 .cfa: sp 0 +
STACK CFI 36370 .cfa: sp 32 +
STACK CFI 36378 .cfa: x29 32 + x19: .cfa -16 + ^ .ra: .cfa -24 + ^ x29: .cfa -32 + ^
STACK CFI 36388 .cfa: sp 32 +
STACK CFI 36390 .cfa: sp 0 +
STACK CFI INIT 365e4 8 .cfa: sp 0 +
STACK CFI INIT 365ec 24 .cfa: sp 0 +
STACK CFI 365f0 .cfa: sp 32 +
STACK CFI 365f8 .cfa: x29 32 + x19: .cfa -16 + ^ .ra: .cfa -24 + ^ x29: .cfa -32 + ^
STACK CFI 36604 .cfa: sp 32 +
STACK CFI 3660c .cfa: sp 0 +
STACK CFI INIT 36610 28 .cfa: sp 0 +
STACK CFI 36614 .cfa: sp 32 +
STACK CFI 3661c .cfa: x29 32 + x19: .cfa -16 + ^ .ra: .cfa -24 + ^ x29: .cfa -32 + ^
STACK CFI 3662c .cfa: sp 32 +
STACK CFI 36634 .cfa: sp 0 +
STACK CFI INIT 368c4 24 .cfa: sp 0 +
STACK CFI 368c8 .cfa: sp 32 +
STACK CFI 368d0 .cfa: x29 32 + x19: .cfa -16 + ^ .ra: .cfa -24 + ^ x29: .cfa -32 + ^
STACK CFI 368dc .cfa: sp 32 +
STACK CFI 368e4 .cfa: sp 0 +
STACK CFI INIT 368e8 8 .cfa: sp 0 +
STACK CFI INIT 368f0 24 .cfa: sp 0 +
STACK CFI 368f4 .cfa: sp 32 +
STACK CFI 368fc .cfa: x29 32 + x19: .cfa -16 + ^ .ra: .cfa -24 + ^ x29: .cfa -32 + ^
STACK CFI 36908 .cfa: sp 32 +
STACK CFI 36910 .cfa: sp 0 +
STACK CFI INIT 36914 28 .cfa: sp 0 +
STACK CFI 36918 .cfa: sp 32 +
STACK CFI 36920 .cfa: x29 32 + x19: .cfa -16 + ^ .ra: .cfa -24 + ^ x29: .cfa -32 + ^
STACK CFI 36930 .cfa: sp 32 +
STACK CFI 36938 .cfa: sp 0 +
STACK CFI INIT 37550 8 .cfa: sp 0 +
STACK CFI INIT 37558 24 .cfa: sp 0 +
STACK CFI 3755c .cfa: sp 32 +
STACK CFI 37564 .cfa: x29 32 + x19: .cfa -16 + ^ .ra: .cfa -24 + ^ x29: .cfa -32 + ^
STACK CFI 37570 .cfa: sp 32 +
STACK CFI 37578 .cfa: sp 0 +
STACK CFI INIT 3757c 28 .cfa: sp 0 +
STACK CFI 37580 .cfa: sp 32 +
STACK CFI 37588 .cfa: x29 32 + x19: .cfa -16 + ^ .ra: .cfa -24 + ^ x29: .cfa -32 + ^
STACK CFI 37598 .cfa: sp 32 +
STACK CFI 375a0 .cfa: sp 0 +
STACK CFI INIT 375a4 4 .cfa: sp 0 +
STACK CFI INIT 375a8 4 .cfa: sp 0 +
STACK CFI INIT 375ac 8 .cfa: sp 0 +
STACK CFI INIT 375b4 4 .cfa: sp 0 +
STACK CFI INIT 375b8 8 .cfa: sp 0 +
STACK CFI INIT 38800 4 .cfa: sp 0 +
STACK CFI INIT 38804 14 .cfa: sp 0 +
STACK CFI INIT 242ac 45c .cfa: sp 0 +
STACK CFI 242b0 .cfa: sp 224 +
STACK CFI 242cc .cfa: x29 96 + x19: .cfa -8 + ^ x20: .cfa -16 + ^ x21: .cfa -24 + ^ x22: .cfa -32 + ^ x23: .cfa -40 + ^ x24: .cfa -48 + ^ x25: .cfa -56 + ^ x26: .cfa -64 + ^ x27: .cfa -72 + ^ x28: .cfa -80 + ^ .ra: .cfa -88 + ^ x29: .cfa -96 + ^
STACK CFI 245f0 .cfa: sp 224 +
STACK CFI 2460c .cfa: sp 0 +
STACK CFI 24610 .cfa: x29 96 +
STACK CFI INIT 24708 45c .cfa: sp 0 +
STACK CFI 2470c .cfa: sp 224 +
STACK CFI 24728 .cfa: x29 96 + x19: .cfa -8 + ^ x20: .cfa -16 + ^ x21: .cfa -24 + ^ x22: .cfa -32 + ^ x23: .cfa -40 + ^ x24: .cfa -48 + ^ x25: .cfa -56 + ^ x26: .cfa -64 + ^ x27: .cfa -72 + ^ x28: .cfa -80 + ^ .ra: .cfa -88 + ^ x29: .cfa -96 + ^
STACK CFI 24a4c .cfa: sp 224 +
STACK CFI 24a68 .cfa: sp 0 +
STACK CFI 24a6c .cfa: x29 96 +
STACK CFI INIT 24b64 45c .cfa: sp 0 +
STACK CFI 24b68 .cfa: sp 224 +
STACK CFI 24b84 .cfa: x29 96 + x19: .cfa -8 + ^ x20: .cfa -16 + ^ x21: .cfa -24 + ^ x22: .cfa -32 + ^ x23: .cfa -40 + ^ x24: .cfa -48 + ^ x25: .cfa -56 + ^ x26: .cfa -64 + ^ x27: .cfa -72 + ^ x28: .cfa -80 + ^ .ra: .cfa -88 + ^ x29: .cfa -96 + ^
STACK CFI 24ea8 .cfa: sp 224 +
STACK CFI 24ec4 .cfa: sp 0 +
STACK CFI 24ec8 .cfa: x29 96 +
STACK CFI INIT 24fc0 45c .cfa: sp 0 +
STACK CFI 24fc4 .cfa: sp 224 +
STACK CFI 24fe0 .cfa: x29 96 + x19: .cfa -8 + ^ x20: .cfa -16 + ^ x21: .cfa -24 + ^ x22: .cfa -32 + ^ x23: .cfa -40 + ^ x24: .cfa -48 + ^ x25: .cfa -56 + ^ x26: .cfa -64 + ^ x27: .cfa -72 + ^ x28: .cfa -80 + ^ .ra: .cfa -88 + ^ x29: .cfa -96 + ^
STACK CFI 25304 .cfa: sp 224 +
STACK CFI 25320 .cfa: sp 0 +
STACK CFI 25324 .cfa: x29 96 +
STACK CFI INIT 2541c 45c .cfa: sp 0 +
STACK CFI 25420 .cfa: sp 224 +
STACK CFI 2543c .cfa: x29 96 + x19: .cfa -8 + ^ x20: .cfa -16 + ^ x21: .cfa -24 + ^ x22: .cfa -32 + ^ x23: .cfa -40 + ^ x24: .cfa -48 + ^ x25: .cfa -56 + ^ x26: .cfa -64 + ^ x27: .cfa -72 + ^ x28: .cfa -80 + ^ .ra: .cfa -88 + ^ x29: .cfa -96 + ^
STACK CFI 25760 .cfa: sp 224 +
STACK CFI 2577c .cfa: sp 0 +
STACK CFI 25780 .cfa: x29 96 +
STACK CFI INIT 25878 45c .cfa: sp 0 +
STACK CFI 2587c .cfa: sp 224 +
STACK CFI 25898 .cfa: x29 96 + x19: .cfa -8 + ^ x20: .cfa -16 + ^ x21: .cfa -24 + ^ x22: .cfa -32 + ^ x23: .cfa -40 + ^ x24: .cfa -48 + ^ x25: .cfa -56 + ^ x26: .cfa -64 + ^ x27: .cfa -72 + ^ x28: .cfa -80 + ^ .ra: .cfa -88 + ^ x29: .cfa -96 + ^
STACK CFI 25bbc .cfa: sp 224 +
STACK CFI 25bd8 .cfa: sp 0 +
STACK CFI 25bdc .cfa: x29 96 +
STACK CFI INIT 25cd4 45c .cfa: sp 0 +
STACK CFI 25cd8 .cfa: sp 224 +
STACK CFI 25cf4 .cfa: x29 96 + x19: .cfa -8 + ^ x20: .cfa -16 + ^ x21: .cfa -24 + ^ x22: .cfa -32 + ^ x23: .cfa -40 + ^ x24: .cfa -48 + ^ x25: .cfa -56 + ^ x26: .cfa -64 + ^ x27: .cfa -72 + ^ x28: .cfa -80 + ^ .ra: .cfa -88 + ^ x29: .cfa -96 + ^
STACK CFI 26018 .cfa: sp 224 +
STACK CFI 26034 .cfa: sp 0 +
STACK CFI 26038 .cfa: x29 96 +
STACK CFI INIT 26130 45c .cfa: sp 0 +
STACK CFI 26134 .cfa: sp 224 +
STACK CFI 26150 .cfa: x29 96 + x19: .cfa -8 + ^ x20: .cfa -16 + ^ x21: .cfa -24 + ^ x22: .cfa -32 + ^ x23: .cfa -40 + ^ x24: .cfa -48 + ^ x25: .cfa -56 + ^ x26: .cfa -64 + ^ x27: .cfa -72 + ^ x28: .cfa -80 + ^ .ra: .cfa -88 + ^ x29: .cfa -96 + ^
STACK CFI 26474 .cfa: sp 224 +
STACK CFI 26490 .cfa: sp 0 +
STACK CFI 26494 .cfa: x29 96 +
STACK CFI INIT 2664c 484 .cfa: sp 0 +
STACK CFI 26650 .cfa: sp 224 +
STACK CFI 2666c .cfa: x29 96 + x19: .cfa -8 + ^ x20: .cfa -16 + ^ x21: .cfa -24 + ^ x22: .cfa -32 + ^ x23: .cfa -40 + ^ x24: .cfa -48 + ^ x25: .cfa -56 + ^ x26: .cfa -64 + ^ x27: .cfa -72 + ^ x28: .cfa -80 + ^ .ra: .cfa -88 + ^ x29: .cfa -96 + ^
STACK CFI 268dc .cfa: sp 224 +
STACK CFI 268f8 .cfa: sp 0 +
STACK CFI 268fc .cfa: x29 96 +
STACK CFI 269c8 .cfa: sp 224 +
STACK CFI 269e4 .cfa: sp 0 +
STACK CFI 269e8 .cfa: x29 96 +
STACK CFI INIT 26b54 3f4 .cfa: sp 0 +
STACK CFI 26b58 .cfa: sp 208 +
STACK CFI 26b6c .cfa: x29 64 + x19: .cfa -8 + ^ x20: .cfa -16 + ^ x21: .cfa -24 + ^ x22: .cfa -32 + ^ x23: .cfa -48 + ^ .ra: .cfa -56 + ^ x29: .cfa -64 + ^
STACK CFI 26e14 .cfa: sp 208 +
STACK CFI 26e28 .cfa: sp 0 +
STACK CFI 26e2c .cfa: x29 64 +
STACK CFI INIT 26f98 74 .cfa: sp 0 +
STACK CFI 26f9c .cfa: sp 48 +
STACK CFI 26fa8 .cfa: x29 32 + x19: .cfa -8 + ^ x20: .cfa -16 + ^ .ra: .cfa -24 + ^ x29: .cfa -32 + ^
STACK CFI 26ff4 .cfa: sp 48 +
STACK CFI 27000 .cfa: sp 0 +
STACK CFI 27004 .cfa: x29 32 +
STACK CFI INIT 2709c 154 .cfa: sp 0 +
STACK CFI 270a0 .cfa: sp 384 +
STACK CFI 270b4 .cfa: x29 64 + x19: .cfa -8 + ^ x20: .cfa -16 + ^ x21: .cfa -24 + ^ x22: .cfa -32 + ^ x23: .cfa -40 + ^ x28: .cfa -48 + ^ .ra: .cfa -56 + ^ x29: .cfa -64 + ^
STACK CFI 27198 .cfa: sp 384 +
STACK CFI 271ac .cfa: sp 0 +
STACK CFI 271b0 .cfa: x29 64 +
STACK CFI INIT 27224 12c .cfa: sp 0 +
STACK CFI 27228 .cfa: sp 80 +
STACK CFI 2723c .cfa: x29 80 + x19: .cfa -8 + ^ x20: .cfa -16 + ^ x21: .cfa -24 + ^ x22: .cfa -32 + ^ x23: .cfa -40 + ^ x24: .cfa -48 + ^ x25: .cfa -56 + ^ x26: .cfa -64 + ^ .ra: .cfa -72 + ^ x29: .cfa -80 + ^
STACK CFI 27304 .cfa: sp 80 +
STACK CFI 27318 .cfa: sp 0 +
STACK CFI 2731c .cfa: x29 80 +
STACK CFI INIT 273f4 1a4 .cfa: sp 0 +
STACK CFI 273f8 .cfa: sp 112 +
STACK CFI 27410 .cfa: x29 80 + x19: .cfa -8 + ^ x20: .cfa -16 + ^ x21: .cfa -24 + ^ x22: .cfa -32 + ^ x23: .cfa -40 + ^ x24: .cfa -48 + ^ x25: .cfa -56 + ^ x26: .cfa -64 + ^ .ra: .cfa -72 + ^ x29: .cfa -80 + ^
STACK CFI 27500 .cfa: sp 112 +
STACK CFI 27518 .cfa: sp 0 +
STACK CFI 2751c .cfa: x29 80 +
STACK CFI INIT 27598 1dc .cfa: sp 0 +
STACK CFI 2759c .cfa: sp 128 +
STACK CFI 275b8 .cfa: x29 96 + x19: .cfa -8 + ^ x20: .cfa -16 + ^ x21: .cfa -24 + ^ x22: .cfa -32 + ^ x23: .cfa -40 + ^ x24: .cfa -48 + ^ x25: .cfa -56 + ^ x26: .cfa -64 + ^ x27: .cfa -80 + ^ .ra: .cfa -88 + ^ x29: .cfa -96 + ^
STACK CFI 27724 .cfa: sp 128 +
STACK CFI 27740 .cfa: sp 0 +
STACK CFI 27744 .cfa: x29 96 +
STACK CFI INIT 27788 50 .cfa: sp 0 +
STACK CFI 2778c .cfa: sp 32 +
STACK CFI 27794 .cfa: x29 32 + x19: .cfa -8 + ^ x20: .cfa -16 + ^ .ra: .cfa -24 + ^ x29: .cfa -32 + ^
STACK CFI INIT 2783c 178 .cfa: sp 0 +
STACK CFI 27840 .cfa: sp 80 +
STACK CFI 27854 .cfa: x29 80 + x19: .cfa -8 + ^ x20: .cfa -16 + ^ x21: .cfa -24 + ^ x22: .cfa -32 + ^ x23: .cfa -40 + ^ x24: .cfa -48 + ^ x25: .cfa -64 + ^ .ra: .cfa -72 + ^ x29: .cfa -80 + ^
STACK CFI 27980 .cfa: sp 80 +
STACK CFI 27994 .cfa: sp 0 +
STACK CFI 27998 .cfa: x29 80 +
STACK CFI INIT 27afc 224 .cfa: sp 0 +
STACK CFI 27b00 .cfa: sp 128 +
STACK CFI 27b18 .cfa: x29 80 + x19: .cfa -8 + ^ x20: .cfa -16 + ^ x21: .cfa -24 + ^ x22: .cfa -32 + ^ x23: .cfa -40 + ^ x24: .cfa -48 + ^ x25: .cfa -64 + ^ .ra: .cfa -72 + ^ x29: .cfa -80 + ^
STACK CFI 27cb4 .cfa: sp 128 +
STACK CFI 27ccc .cfa: sp 0 +
STACK CFI 27cd0 .cfa: x29 80 +
STACK CFI INIT 28900 36c .cfa: sp 0 +
STACK CFI 28904 .cfa: sp 256 +
STACK CFI 28918 .cfa: x29 64 + x19: .cfa -8 + ^ x20: .cfa -16 + ^ x21: .cfa -24 + ^ x22: .cfa -32 + ^ x23: .cfa -48 + ^ .ra: .cfa -56 + ^ x29: .cfa -64 + ^
STACK CFI 28b48 .cfa: sp 256 +
STACK CFI 28b5c .cfa: sp 0 +
STACK CFI 28b60 .cfa: x29 64 +
STACK CFI INIT 28f14 c0 .cfa: sp 0 +
STACK CFI 28f18 .cfa: sp 32 +
STACK CFI 28f20 .cfa: x29 32 + x19: .cfa -16 + ^ .ra: .cfa -24 + ^ x29: .cfa -32 + ^
STACK CFI 28f54 .cfa: sp 32 +
STACK CFI 28f5c .cfa: sp 0 +
STACK CFI 28f60 .cfa: x29 32 +
STACK CFI 28f64 .cfa: sp 32 +
STACK CFI 28f6c .cfa: sp 0 +
STACK CFI 28f70 .cfa: x29 32 +
STACK CFI INIT 290cc 324 .cfa: sp 0 +
STACK CFI 290d0 .cfa: sp 240 +
STACK CFI 290e4 .cfa: x29 64 + x19: .cfa -8 + ^ x20: .cfa -16 + ^ x21: .cfa -24 + ^ x22: .cfa -32 + ^ x23: .cfa -48 + ^ .ra: .cfa -56 + ^ x29: .cfa -64 + ^
STACK CFI 292e0 .cfa: sp 240 +
STACK CFI 292f4 .cfa: sp 0 +
STACK CFI 292f8 .cfa: x29 64 +
STACK CFI INIT 293f4 24c .cfa: sp 0 +
STACK CFI 293f8 .cfa: sp 144 +
STACK CFI 29408 .cfa: x29 48 + x19: .cfa -8 + ^ x20: .cfa -16 + ^ x21: .cfa -32 + ^ .ra: .cfa -40 + ^ x29: .cfa -48 + ^
STACK CFI 29584 .cfa: sp 144 +
STACK CFI 29594 .cfa: sp 0 +
STACK CFI 29598 .cfa: x29 48 +
STACK CFI INIT 29640 a8 .cfa: sp 0 +
STACK CFI 29644 .cfa: sp 32 +
STACK CFI 2964c .cfa: x29 32 + x19: .cfa -16 + ^ .ra: .cfa -24 + ^ x29: .cfa -32 + ^
STACK CFI 29680 .cfa: sp 32 +
STACK CFI 29688 .cfa: sp 0 +
STACK CFI 2968c .cfa: x29 32 +
STACK CFI 29690 .cfa: sp 32 +
STACK CFI 29698 .cfa: sp 0 +
STACK CFI 2969c .cfa: x29 32 +
STACK CFI INIT 29768 224 .cfa: sp 0 +
STACK CFI 2976c .cfa: sp 80 +
STACK CFI 29780 .cfa: x29 80 + x19: .cfa -8 + ^ x20: .cfa -16 + ^ x21: .cfa -24 + ^ x22: .cfa -32 + ^ x23: .cfa -40 + ^ x24: .cfa -48 + ^ x25: .cfa -56 + ^ x26: .cfa -64 + ^ .ra: .cfa -72 + ^ x29: .cfa -80 + ^
STACK CFI 29960 .cfa: sp 80 +
STACK CFI 29974 .cfa: sp 0 +
STACK CFI 29978 .cfa: x29 80 +
STACK CFI INIT 299d0 328 .cfa: sp 0 +
STACK CFI 299d4 .cfa: sp 256 +
STACK CFI 299e8 .cfa: x29 64 + x19: .cfa -8 + ^ x20: .cfa -16 + ^ x21: .cfa -24 + ^ x22: .cfa -32 + ^ x23: .cfa -48 + ^ .ra: .cfa -56 + ^ x29: .cfa -64 + ^
STACK CFI 29be8 .cfa: sp 256 +
STACK CFI 29bfc .cfa: sp 0 +
STACK CFI 29c00 .cfa: x29 64 +
STACK CFI INIT 29cfc 244 .cfa: sp 0 +
STACK CFI 29d00 .cfa: sp 112 +
STACK CFI 29d10 .cfa: x29 48 + x19: .cfa -8 + ^ x20: .cfa -16 + ^ x21: .cfa -32 + ^ .ra: .cfa -40 + ^ x29: .cfa -48 + ^
STACK CFI 29e8c .cfa: sp 112 +
STACK CFI 29e9c .cfa: sp 0 +
STACK CFI 29ea0 .cfa: x29 48 +
STACK CFI INIT 29f40 a8 .cfa: sp 0 +
STACK CFI 29f44 .cfa: sp 32 +
STACK CFI 29f4c .cfa: x29 32 + x19: .cfa -16 + ^ .ra: .cfa -24 + ^ x29: .cfa -32 + ^
STACK CFI 29f80 .cfa: sp 32 +
STACK CFI 29f88 .cfa: sp 0 +
STACK CFI 29f8c .cfa: x29 32 +
STACK CFI 29f90 .cfa: sp 32 +
STACK CFI 29f98 .cfa: sp 0 +
STACK CFI 29f9c .cfa: x29 32 +
STACK CFI INIT 2a060 344 .cfa: sp 0 +
STACK CFI 2a064 .cfa: sp 192 +
STACK CFI 2a078 .cfa: x29 64 + x19: .cfa -8 + ^ x20: .cfa -16 + ^ x21: .cfa -24 + ^ x22: .cfa -32 + ^ x23: .cfa -40 + ^ x24: .cfa -48 + ^ .ra: .cfa -56 + ^ x29: .cfa -64 + ^
STACK CFI 2a288 .cfa: sp 192 +
STACK CFI 2a29c .cfa: sp 0 +
STACK CFI 2a2a0 .cfa: x29 64 +
STACK CFI INIT 2a6c0 a8 .cfa: sp 0 +
STACK CFI 2a6c4 .cfa: sp 32 +
STACK CFI 2a6cc .cfa: x29 32 + x19: .cfa -16 + ^ .ra: .cfa -24 + ^ x29: .cfa -32 + ^
STACK CFI 2a700 .cfa: sp 32 +
STACK CFI 2a708 .cfa: sp 0 +
STACK CFI 2a70c .cfa: x29 32 +
STACK CFI 2a710 .cfa: sp 32 +
STACK CFI 2a718 .cfa: sp 0 +
STACK CFI 2a71c .cfa: x29 32 +
STACK CFI INIT 2a800 34c .cfa: sp 0 +
STACK CFI 2a804 .cfa: sp 208 +
STACK CFI 2a818 .cfa: x29 64 + x19: .cfa -8 + ^ x20: .cfa -16 + ^ x21: .cfa -24 + ^ x22: .cfa -32 + ^ x23: .cfa -40 + ^ x24: .cfa -48 + ^ .ra: .cfa -56 + ^ x29: .cfa -64 + ^
STACK CFI 2aa28 .cfa: sp 208 +
STACK CFI 2aa3c .cfa: sp 0 +
STACK CFI 2aa40 .cfa: x29 64 +
STACK CFI INIT 2ad4c 370 .cfa: sp 0 +
STACK CFI 2ad50 .cfa: sp 240 +
STACK CFI 2ad64 .cfa: x29 64 + x19: .cfa -8 + ^ x20: .cfa -16 + ^ x21: .cfa -24 + ^ x22: .cfa -32 + ^ x23: .cfa -48 + ^ .ra: .cfa -56 + ^ x29: .cfa -64 + ^
STACK CFI 2af98 .cfa: sp 240 +
STACK CFI 2afac .cfa: sp 0 +
STACK CFI 2afb0 .cfa: x29 64 +
STACK CFI INIT 2b39c a8 .cfa: sp 0 +
STACK CFI 2b3a0 .cfa: sp 32 +
STACK CFI 2b3a8 .cfa: x29 32 + x19: .cfa -16 + ^ .ra: .cfa -24 + ^ x29: .cfa -32 + ^
STACK CFI 2b3dc .cfa: sp 32 +
STACK CFI 2b3e4 .cfa: sp 0 +
STACK CFI 2b3e8 .cfa: x29 32 +
STACK CFI 2b3ec .cfa: sp 32 +
STACK CFI 2b3f4 .cfa: sp 0 +
STACK CFI 2b3f8 .cfa: x29 32 +
STACK CFI INIT 2b4e0 34c .cfa: sp 0 +
STACK CFI 2b4e4 .cfa: sp 192 +
STACK CFI 2b4f8 .cfa: x29 64 + x19: .cfa -8 + ^ x20: .cfa -16 + ^ x21: .cfa -24 + ^ x22: .cfa -32 + ^ x23: .cfa -40 + ^ x24: .cfa -48 + ^ .ra: .cfa -56 + ^ x29: .cfa -64 + ^
STACK CFI 2b708 .cfa: sp 192 +
STACK CFI 2b71c .cfa: sp 0 +
STACK CFI 2b720 .cfa: x29 64 +
STACK CFI INIT 2b868 2f4 .cfa: sp 0 +
STACK CFI 2b86c .cfa: sp 176 +
STACK CFI 2b880 .cfa: x29 64 + x19: .cfa -8 + ^ x20: .cfa -16 + ^ x21: .cfa -24 + ^ x22: .cfa -32 + ^ x23: .cfa -48 + ^ .ra: .cfa -56 + ^ x29: .cfa -64 + ^
STACK CFI 2ba54 .cfa: sp 176 +
STACK CFI 2ba68 .cfa: sp 0 +
STACK CFI 2ba6c .cfa: x29 64 +
STACK CFI INIT 2bb60 294 .cfa: sp 0 +
STACK CFI 2bb64 .cfa: sp 112 +
STACK CFI 2bb7c .cfa: x29 80 + x19: .cfa -8 + ^ x20: .cfa -16 + ^ x21: .cfa -24 + ^ x22: .cfa -32 + ^ x23: .cfa -40 + ^ x24: .cfa -48 + ^ x25: .cfa -64 + ^ .ra: .cfa -72 + ^ x29: .cfa -80 + ^
STACK CFI 2bd7c .cfa: sp 112 +
STACK CFI 2bd94 .cfa: sp 0 +
STACK CFI 2bd98 .cfa: x29 80 +
STACK CFI INIT 2bdf4 a8 .cfa: sp 0 +
STACK CFI 2bdf8 .cfa: sp 32 +
STACK CFI 2be00 .cfa: x29 32 + x19: .cfa -16 + ^ .ra: .cfa -24 + ^ x29: .cfa -32 + ^
STACK CFI 2be34 .cfa: sp 32 +
STACK CFI 2be3c .cfa: sp 0 +
STACK CFI 2be40 .cfa: x29 32 +
STACK CFI 2be44 .cfa: sp 32 +
STACK CFI 2be4c .cfa: sp 0 +
STACK CFI 2be50 .cfa: x29 32 +
STACK CFI INIT 2bf38 dd4 .cfa: sp 0 +
STACK CFI 2bf3c .cfa: sp 464 +
STACK CFI 2bf54 .cfa: x29 80 + x19: .cfa -8 + ^ x20: .cfa -16 + ^ x21: .cfa -24 + ^ x22: .cfa -32 + ^ x23: .cfa -40 + ^ x24: .cfa -48 + ^ x25: .cfa -56 + ^ x28: .cfa -64 + ^ .ra: .cfa -72 + ^ x29: .cfa -80 + ^
STACK CFI 2c7c8 .cfa: sp 464 +
STACK CFI 2c7e0 .cfa: sp 0 +
STACK CFI 2c7e4 .cfa: x29 80 +
STACK CFI INIT 2cd5c 154 .cfa: sp 0 +
STACK CFI 2cd60 .cfa: sp 144 +
STACK CFI 2cd74 .cfa: x29 64 + x19: .cfa -8 + ^ x20: .cfa -16 + ^ x21: .cfa -24 + ^ x22: .cfa -32 + ^ x23: .cfa -40 + ^ x24: .cfa -48 + ^ .ra: .cfa -56 + ^ x29: .cfa -64 + ^
STACK CFI 2ce48 .cfa: sp 144 +
STACK CFI 2ce5c .cfa: sp 0 +
STACK CFI 2ce60 .cfa: x29 64 +
STACK CFI INIT 2cf4c 2b4 .cfa: sp 0 +
STACK CFI 2cf50 .cfa: sp 48 +
STACK CFI 2cf5c .cfa: x29 48 + x19: .cfa -8 + ^ x20: .cfa -16 + ^ x21: .cfa -32 + ^ .ra: .cfa -40 + ^ x29: .cfa -48 + ^
STACK CFI 2d1ec .cfa: sp 48 +
STACK CFI 2d1f8 .cfa: sp 0 +
STACK CFI 2d1fc .cfa: x29 48 +
STACK CFI INIT 2d2b8 808 .cfa: sp 0 +
STACK CFI 2d2bc .cfa: sp 240 +
STACK CFI 2d2e0 .cfa: x29 96 + x19: .cfa -8 + ^ x20: .cfa -16 + ^ x21: .cfa -24 + ^ x22: .cfa -32 + ^ x23: .cfa -40 + ^ x24: .cfa -48 + ^ x25: .cfa -56 + ^ x26: .cfa -64 + ^ x27: .cfa -72 + ^ x28: .cfa -80 + ^ .ra: .cfa -88 + ^ x29: .cfa -96 + ^ v8: .cfa -104 + ^ v9: .cfa -112 + ^ v10: .cfa -120 + ^ v11: .cfa -128 + ^
STACK CFI 2da28 .cfa: sp 240 +
STACK CFI 2da4c .cfa: sp 0 +
STACK CFI 2da50 .cfa: x29 96 +
STACK CFI INIT 2dac0 148 .cfa: sp 0 +
STACK CFI 2dac4 .cfa: sp 96 +
STACK CFI 2dad4 .cfa: x29 48 + x19: .cfa -8 + ^ x20: .cfa -16 + ^ x21: .cfa -32 + ^ .ra: .cfa -40 + ^ x29: .cfa -48 + ^
STACK CFI 2dbbc .cfa: sp 96 +
STACK CFI 2dbcc .cfa: sp 0 +
STACK CFI 2dbd0 .cfa: x29 48 +
STACK CFI INIT 2dc70 6c .cfa: sp 0 +
STACK CFI 2dc74 .cfa: sp 32 +
STACK CFI 2dc7c .cfa: x29 32 + x19: .cfa -16 + ^ .ra: .cfa -24 + ^ x29: .cfa -32 + ^
STACK CFI 2dccc .cfa: sp 32 +
STACK CFI 2dcd4 .cfa: sp 0 +
STACK CFI 2dcd8 .cfa: x29 32 +
STACK CFI INIT 2dce0 6c .cfa: sp 0 +
STACK CFI 2dce4 .cfa: sp 32 +
STACK CFI 2dcec .cfa: x29 32 + x19: .cfa -16 + ^ .ra: .cfa -24 + ^ x29: .cfa -32 + ^
STACK CFI 2dd3c .cfa: sp 32 +
STACK CFI 2dd44 .cfa: sp 0 +
STACK CFI 2dd48 .cfa: x29 32 +
STACK CFI INIT 2dd50 204 .cfa: sp 0 +
STACK CFI 2dd54 .cfa: sp 128 +
STACK CFI 2dd68 .cfa: x29 64 + x19: .cfa -8 + ^ x20: .cfa -16 + ^ x21: .cfa -24 + ^ x22: .cfa -32 + ^ x23: .cfa -40 + ^ x24: .cfa -48 + ^ .ra: .cfa -56 + ^ x29: .cfa -64 + ^
STACK CFI 2de8c .cfa: sp 128 +
STACK CFI 2dea0 .cfa: sp 0 +
STACK CFI 2dea4 .cfa: x29 64 +
STACK CFI INIT 2df58 1ac .cfa: sp 0 +
STACK CFI 2df5c .cfa: sp 128 +
STACK CFI 2df6c .cfa: x29 48 + x19: .cfa -8 + ^ x20: .cfa -16 + ^ x21: .cfa -24 + ^ x22: .cfa -32 + ^ .ra: .cfa -40 + ^ x29: .cfa -48 + ^
STACK CFI 2e088 .cfa: sp 128 +
STACK CFI 2e098 .cfa: sp 0 +
STACK CFI 2e09c .cfa: x29 48 +
STACK CFI INIT 2e464 1d0 .cfa: sp 0 +
STACK CFI 2e468 .cfa: sp 128 +
STACK CFI 2e47c .cfa: x29 64 + x19: .cfa -8 + ^ x20: .cfa -16 + ^ x21: .cfa -24 + ^ x22: .cfa -32 + ^ x23: .cfa -48 + ^ .ra: .cfa -56 + ^ x29: .cfa -64 + ^
STACK CFI 2e5f4 .cfa: sp 128 +
STACK CFI 2e608 .cfa: sp 0 +
STACK CFI 2e60c .cfa: x29 64 +
STACK CFI INIT 2e948 1c4 .cfa: sp 0 +
STACK CFI 2e94c .cfa: sp 112 +
STACK CFI 2e95c .cfa: x29 48 + x19: .cfa -8 + ^ x20: .cfa -16 + ^ x21: .cfa -24 + ^ x22: .cfa -32 + ^ .ra: .cfa -40 + ^ x29: .cfa -48 + ^
STACK CFI 2ead0 .cfa: sp 112 +
STACK CFI 2eae0 .cfa: sp 0 +
STACK CFI 2eae4 .cfa: x29 48 +
STACK CFI INIT 2ec78 f48 .cfa: sp 0 +
STACK CFI 2ec7c .cfa: sp 96 +
STACK CFI 2ec94 .cfa: x29 96 + x19: .cfa -8 + ^ x20: .cfa -16 + ^ x21: .cfa -24 + ^ x22: .cfa -32 + ^ x23: .cfa -40 + ^ x24: .cfa -48 + ^ x25: .cfa -56 + ^ x26: .cfa -64 + ^ x27: .cfa -72 + ^ x28: .cfa -80 + ^ .ra: .cfa -88 + ^ x29: .cfa -96 + ^
STACK CFI 2f948 .cfa: sp 96 +
STACK CFI 2f960 .cfa: sp 0 +
STACK CFI 2f964 .cfa: x29 96 +
STACK CFI INIT 2fbc0 1c8 .cfa: sp 0 +
STACK CFI 2fbc4 .cfa: sp 144 +
STACK CFI 2fbd0 .cfa: x29 32 + x19: .cfa -8 + ^ x20: .cfa -16 + ^ .ra: .cfa -24 + ^ x29: .cfa -32 + ^
STACK CFI 2fd1c .cfa: sp 144 +
STACK CFI 2fd28 .cfa: sp 0 +
STACK CFI 2fd2c .cfa: x29 32 +
STACK CFI INIT 2fd88 74 .cfa: sp 0 +
STACK CFI 2fd8c .cfa: sp 48 +
STACK CFI 2fd98 .cfa: x29 32 + x19: .cfa -8 + ^ x20: .cfa -16 + ^ .ra: .cfa -24 + ^ x29: .cfa -32 + ^
STACK CFI 2fde4 .cfa: sp 48 +
STACK CFI 2fdf0 .cfa: sp 0 +
STACK CFI 2fdf4 .cfa: x29 32 +
STACK CFI INIT 2fdfc 164 .cfa: sp 0 +
STACK CFI 2fe00 .cfa: sp 128 +
STACK CFI 2fe18 .cfa: x29 80 + x19: .cfa -8 + ^ x20: .cfa -16 + ^ x21: .cfa -24 + ^ x22: .cfa -32 + ^ x23: .cfa -40 + ^ x24: .cfa -48 + ^ x25: .cfa -64 + ^ .ra: .cfa -72 + ^ x29: .cfa -80 + ^
STACK CFI 2fecc .cfa: sp 128 +
STACK CFI 2fee4 .cfa: sp 0 +
STACK CFI 2fee8 .cfa: x29 80 +
STACK CFI INIT 30080 198 .cfa: sp 0 +
STACK CFI 30084 .cfa: sp 96 +
STACK CFI 30094 .cfa: x29 48 + x19: .cfa -8 + ^ x20: .cfa -16 + ^ x21: .cfa -32 + ^ .ra: .cfa -40 + ^ x29: .cfa -48 + ^
STACK CFI 30170 .cfa: sp 96 +
STACK CFI 30180 .cfa: sp 0 +
STACK CFI 30184 .cfa: x29 48 +
STACK CFI INIT 30270 1ec .cfa: sp 0 +
STACK CFI 30274 .cfa: sp 112 +
STACK CFI 30284 .cfa: x29 48 + x19: .cfa -8 + ^ x20: .cfa -16 + ^ x21: .cfa -24 + ^ x22: .cfa -32 + ^ .ra: .cfa -40 + ^ x29: .cfa -48 + ^
STACK CFI 303ec .cfa: sp 112 +
STACK CFI 303fc .cfa: sp 0 +
STACK CFI 30400 .cfa: x29 48 +
STACK CFI INIT 30484 74 .cfa: sp 0 +
STACK CFI 30488 .cfa: sp 48 +
STACK CFI 30494 .cfa: x29 32 + x19: .cfa -8 + ^ x20: .cfa -16 + ^ .ra: .cfa -24 + ^ x29: .cfa -32 + ^
STACK CFI 304e0 .cfa: sp 48 +
STACK CFI 304ec .cfa: sp 0 +
STACK CFI 304f0 .cfa: x29 32 +
STACK CFI INIT 30514 74 .cfa: sp 0 +
STACK CFI 30518 .cfa: sp 48 +
STACK CFI 30524 .cfa: x29 32 + x19: .cfa -8 + ^ x20: .cfa -16 + ^ .ra: .cfa -24 + ^ x29: .cfa -32 + ^
STACK CFI 30570 .cfa: sp 48 +
STACK CFI 3057c .cfa: sp 0 +
STACK CFI 30580 .cfa: x29 32 +
STACK CFI INIT 305c8 1ec .cfa: sp 0 +
STACK CFI 305cc .cfa: sp 160 +
STACK CFI 305dc .cfa: x29 48 + x19: .cfa -8 + ^ x20: .cfa -16 + ^ x21: .cfa -24 + ^ x22: .cfa -32 + ^ .ra: .cfa -40 + ^ x29: .cfa -48 + ^
STACK CFI 30744 .cfa: sp 160 +
STACK CFI 30754 .cfa: sp 0 +
STACK CFI 30758 .cfa: x29 48 +
STACK CFI INIT 309b0 468 .cfa: sp 0 +
STACK CFI 309b4 .cfa: sp 224 +
STACK CFI 309d4 .cfa: x29 96 + x19: .cfa -8 + ^ x20: .cfa -16 + ^ x21: .cfa -24 + ^ x22: .cfa -32 + ^ x23: .cfa -40 + ^ x24: .cfa -48 + ^ x25: .cfa -56 + ^ x26: .cfa -64 + ^ x27: .cfa -72 + ^ x28: .cfa -80 + ^ .ra: .cfa -88 + ^ x29: .cfa -96 + ^ v8: .cfa -104 + ^ v9: .cfa -112 + ^
STACK CFI 30d90 .cfa: sp 224 +
STACK CFI 30db0 .cfa: sp 0 +
STACK CFI 30db4 .cfa: x29 96 +
STACK CFI INIT 30e18 2cc .cfa: sp 0 +
STACK CFI 30e1c .cfa: sp 208 +
STACK CFI 30e34 .cfa: x29 80 + x19: .cfa -8 + ^ x20: .cfa -16 + ^ x21: .cfa -24 + ^ x22: .cfa -32 + ^ x23: .cfa -40 + ^ x24: .cfa -48 + ^ x25: .cfa -56 + ^ x26: .cfa -64 + ^ .ra: .cfa -72 + ^ x29: .cfa -80 + ^
STACK CFI 31010 .cfa: sp 208 +
STACK CFI 31028 .cfa: sp 0 +
STACK CFI 3102c .cfa: x29 80 +
STACK CFI INIT 310e4 47c .cfa: sp 0 +
STACK CFI 310e8 .cfa: sp 224 +
STACK CFI 31108 .cfa: x29 96 + x19: .cfa -8 + ^ x20: .cfa -16 + ^ x21: .cfa -24 + ^ x22: .cfa -32 + ^ x23: .cfa -40 + ^ x24: .cfa -48 + ^ x25: .cfa -56 + ^ x26: .cfa -64 + ^ x27: .cfa -72 + ^ x28: .cfa -80 + ^ .ra: .cfa -88 + ^ x29: .cfa -96 + ^ v8: .cfa -104 + ^ v9: .cfa -112 + ^
STACK CFI 314d8 .cfa: sp 224 +
STACK CFI 314f8 .cfa: sp 0 +
STACK CFI 314fc .cfa: x29 96 +
STACK CFI INIT 315c0 9f0 .cfa: sp 0 +
STACK CFI 315c4 .cfa: sp 448 +
STACK CFI 315e0 .cfa: x29 96 + x19: .cfa -8 + ^ x20: .cfa -16 + ^ x21: .cfa -24 + ^ x22: .cfa -32 + ^ x23: .cfa -40 + ^ x24: .cfa -48 + ^ x25: .cfa -56 + ^ x26: .cfa -64 + ^ x27: .cfa -72 + ^ x28: .cfa -80 + ^ .ra: .cfa -88 + ^ x29: .cfa -96 + ^
STACK CFI 31c98 .cfa: sp 448 +
STACK CFI 31cb4 .cfa: sp 0 +
STACK CFI 31cb8 .cfa: x29 96 +
STACK CFI INIT 3201c 1338 .cfa: sp 0 +
STACK CFI 32020 .cfa: sp 96 +
STACK CFI 32038 .cfa: x29 96 + x19: .cfa -8 + ^ x20: .cfa -16 + ^ x21: .cfa -24 + ^ x22: .cfa -32 + ^ x23: .cfa -40 + ^ x24: .cfa -48 + ^ x25: .cfa -56 + ^ x26: .cfa -64 + ^ x27: .cfa -72 + ^ x28: .cfa -80 + ^ .ra: .cfa -88 + ^ x29: .cfa -96 + ^
STACK CFI 331d8 .cfa: sp 96 +
STACK CFI 331f0 .cfa: sp 0 +
STACK CFI 331f4 .cfa: x29 96 +
STACK CFI INIT 35218 d8 .cfa: sp 0 +
STACK CFI 3521c .cfa: sp 32 +
STACK CFI 35224 .cfa: x29 32 + x19: .cfa -8 + ^ x20: .cfa -16 + ^ .ra: .cfa -24 + ^ x29: .cfa -32 + ^
STACK CFI 35290 .cfa: sp 32 +
STACK CFI 35298 .cfa: sp 0 +
STACK CFI 3529c .cfa: x29 32 +
STACK CFI 352ac .cfa: sp 32 +
STACK CFI 352b4 .cfa: sp 0 +
STACK CFI 352b8 .cfa: x29 32 +
STACK CFI INIT 352f0 b4 .cfa: sp 0 +
STACK CFI 352f4 .cfa: sp 32 +
STACK CFI 352fc .cfa: x29 32 + x19: .cfa -8 + ^ x20: .cfa -16 + ^ .ra: .cfa -24 + ^ x29: .cfa -32 + ^
STACK CFI 35348 .cfa: sp 32 +
STACK CFI 35350 .cfa: sp 0 +
STACK CFI 35354 .cfa: x29 32 +
STACK CFI 3537c .cfa: sp 32 +
STACK CFI 35384 .cfa: sp 0 +
STACK CFI 35388 .cfa: x29 32 +
STACK CFI INIT 35440 494 .cfa: sp 0 +
STACK CFI 35444 .cfa: sp 288 +
STACK CFI 3545c .cfa: x29 80 + x19: .cfa -8 + ^ x20: .cfa -16 + ^ x21: .cfa -24 + ^ x22: .cfa -32 + ^ x23: .cfa -40 + ^ x24: .cfa -48 + ^ x28: .cfa -64 + ^ .ra: .cfa -72 + ^ x29: .cfa -80 + ^
STACK CFI 35780 .cfa: sp 288 +
STACK CFI 35798 .cfa: sp 0 +
STACK CFI 3579c .cfa: x29 80 +
STACK CFI INIT 35ab4 134 .cfa: sp 0 +
STACK CFI 35ab8 .cfa: sp 80 +
STACK CFI 35ac4 .cfa: x29 32 + x19: .cfa -8 + ^ x20: .cfa -16 + ^ .ra: .cfa -24 + ^ x29: .cfa -32 + ^
STACK CFI 35af4 .cfa: sp 80 +
STACK CFI 35b00 .cfa: sp 0 +
STACK CFI 35b04 .cfa: x29 32 +
STACK CFI INIT 35be8 78 .cfa: sp 0 +
STACK CFI 35bec .cfa: sp 32 +
STACK CFI 35bf4 .cfa: x29 32 + x19: .cfa -8 + ^ x20: .cfa -16 + ^ .ra: .cfa -24 + ^ x29: .cfa -32 + ^
STACK CFI 35c00 .cfa: sp 32 +
STACK CFI 35c08 .cfa: sp 0 +
STACK CFI 35c0c .cfa: x29 32 +
STACK CFI INIT 35c60 74 .cfa: sp 0 +
STACK CFI 35c64 .cfa: sp 48 +
STACK CFI 35c70 .cfa: x29 32 + x19: .cfa -8 + ^ x20: .cfa -16 + ^ .ra: .cfa -24 + ^ x29: .cfa -32 + ^
STACK CFI 35cbc .cfa: sp 48 +
STACK CFI 35cc8 .cfa: sp 0 +
STACK CFI 35ccc .cfa: x29 32 +
STACK CFI INIT 35da4 270 .cfa: sp 0 +
STACK CFI 35da8 .cfa: sp 112 +
STACK CFI 35db8 .cfa: x29 48 + x19: .cfa -8 + ^ x20: .cfa -16 + ^ x21: .cfa -32 + ^ .ra: .cfa -40 + ^ x29: .cfa -48 + ^
STACK CFI 35ebc .cfa: sp 112 +
STACK CFI 35ecc .cfa: sp 0 +
STACK CFI 35ed0 .cfa: x29 48 +
STACK CFI INIT 36068 2d8 .cfa: sp 0 +
STACK CFI 3606c .cfa: sp 128 +
STACK CFI 36080 .cfa: x29 64 + x19: .cfa -8 + ^ x20: .cfa -16 + ^ x21: .cfa -24 + ^ x22: .cfa -32 + ^ x23: .cfa -48 + ^ .ra: .cfa -56 + ^ x29: .cfa -64 + ^
STACK CFI 361ec .cfa: sp 128 +
STACK CFI 36200 .cfa: sp 0 +
STACK CFI 36204 .cfa: x29 64 +
STACK CFI INIT 36394 250 .cfa: sp 0 +
STACK CFI 36398 .cfa: sp 112 +
STACK CFI 363a8 .cfa: x29 48 + x19: .cfa -8 + ^ x20: .cfa -16 + ^ x21: .cfa -32 + ^ .ra: .cfa -40 + ^ x29: .cfa -48 + ^
STACK CFI 3648c .cfa: sp 112 +
STACK CFI 3649c .cfa: sp 0 +
STACK CFI 364a0 .cfa: x29 48 +
STACK CFI INIT 36638 28c .cfa: sp 0 +
STACK CFI 3663c .cfa: sp 128 +
STACK CFI 36650 .cfa: x29 64 + x19: .cfa -8 + ^ x20: .cfa -16 + ^ x21: .cfa -24 + ^ x22: .cfa -32 + ^ x23: .cfa -48 + ^ .ra: .cfa -56 + ^ x29: .cfa -64 + ^
STACK CFI 36770 .cfa: sp 128 +
STACK CFI 36784 .cfa: sp 0 +
STACK CFI 36788 .cfa: x29 64 +
STACK CFI INIT 3693c 1b8 .cfa: sp 0 +
STACK CFI 36940 .cfa: sp 160 +
STACK CFI 3695c .cfa: x29 72 + x19: .cfa -8 + ^ x20: .cfa -16 + ^ x21: .cfa -24 + ^ x22: .cfa -32 + ^ x23: .cfa -40 + ^ x24: .cfa -48 + ^ x25: .cfa -56 + ^ .ra: .cfa -64 + ^ x29: .cfa -72 + ^ v8: .cfa -80 + ^
STACK CFI 369e0 .cfa: sp 160 +
STACK CFI 369fc .cfa: sp 0 +
STACK CFI 36a00 .cfa: x29 72 +
STACK CFI INIT 36af4 4e4 .cfa: sp 0 +
STACK CFI 36af8 .cfa: sp 96 +
STACK CFI 36b10 .cfa: x29 80 + x19: .cfa -8 + ^ x20: .cfa -16 + ^ x21: .cfa -24 + ^ x22: .cfa -32 + ^ x23: .cfa -40 + ^ x24: .cfa -48 + ^ x25: .cfa -64 + ^ .ra: .cfa -72 + ^ x29: .cfa -80 + ^
STACK CFI 36f54 .cfa: sp 96 +
STACK CFI 36f6c .cfa: sp 0 +
STACK CFI 36f70 .cfa: x29 80 +
STACK CFI INIT 36fd8 290 .cfa: sp 0 +
STACK CFI 36fdc .cfa: sp 128 +
STACK CFI 36ff0 .cfa: x29 64 + x19: .cfa -8 + ^ x20: .cfa -16 + ^ x21: .cfa -24 + ^ x22: .cfa -32 + ^ x23: .cfa -48 + ^ .ra: .cfa -56 + ^ x29: .cfa -64 + ^
STACK CFI 37114 .cfa: sp 128 +
STACK CFI 37128 .cfa: sp 0 +
STACK CFI 3712c .cfa: x29 64 +
STACK CFI INIT 37268 2e8 .cfa: sp 0 +
STACK CFI 3726c .cfa: sp 128 +
STACK CFI 37280 .cfa: x29 64 + x19: .cfa -8 + ^ x20: .cfa -16 + ^ x21: .cfa -24 + ^ x22: .cfa -32 + ^ x23: .cfa -48 + ^ .ra: .cfa -56 + ^ x29: .cfa -64 + ^
STACK CFI 373fc .cfa: sp 128 +
STACK CFI 37410 .cfa: sp 0 +
STACK CFI 37414 .cfa: x29 64 +
STACK CFI INIT 375c0 2bc .cfa: sp 0 +
STACK CFI 375c4 .cfa: sp 128 +
STACK CFI 375d8 .cfa: x29 64 + x19: .cfa -8 + ^ x20: .cfa -16 + ^ x21: .cfa -24 + ^ x22: .cfa -32 + ^ x23: .cfa -48 + ^ .ra: .cfa -56 + ^ x29: .cfa -64 + ^
STACK CFI 37728 .cfa: sp 128 +
STACK CFI 3773c .cfa: sp 0 +
STACK CFI 37740 .cfa: x29 64 +
STACK CFI INIT 3787c 2bc .cfa: sp 0 +
STACK CFI 37880 .cfa: sp 128 +
STACK CFI 37894 .cfa: x29 64 + x19: .cfa -8 + ^ x20: .cfa -16 + ^ x21: .cfa -24 + ^ x22: .cfa -32 + ^ x23: .cfa -48 + ^ .ra: .cfa -56 + ^ x29: .cfa -64 + ^
STACK CFI 379e4 .cfa: sp 128 +
STACK CFI 379f8 .cfa: sp 0 +
STACK CFI 379fc .cfa: x29 64 +
STACK CFI INIT 37b38 278 .cfa: sp 0 +
STACK CFI 37b3c .cfa: sp 128 +
STACK CFI 37b50 .cfa: x29 64 + x19: .cfa -8 + ^ x20: .cfa -16 + ^ x21: .cfa -24 + ^ x22: .cfa -32 + ^ x23: .cfa -48 + ^ .ra: .cfa -56 + ^ x29: .cfa -64 + ^
STACK CFI 37c5c .cfa: sp 128 +
STACK CFI 37c70 .cfa: sp 0 +
STACK CFI 37c74 .cfa: x29 64 +
STACK CFI INIT 37db0 2c8 .cfa: sp 0 +
STACK CFI 37db4 .cfa: sp 128 +
STACK CFI 37dc8 .cfa: x29 64 + x19: .cfa -8 + ^ x20: .cfa -16 + ^ x21: .cfa -24 + ^ x22: .cfa -32 + ^ x23: .cfa -48 + ^ .ra: .cfa -56 + ^ x29: .cfa -64 + ^
STACK CFI 37f24 .cfa: sp 128 +
STACK CFI 37f38 .cfa: sp 0 +
STACK CFI 37f3c .cfa: x29 64 +
STACK CFI INIT 38078 4cc .cfa: sp 0 +
STACK CFI 3807c .cfa: sp 128 +
STACK CFI 38090 .cfa: x29 64 + x19: .cfa -8 + ^ x20: .cfa -16 + ^ x21: .cfa -24 + ^ x22: .cfa -32 + ^ x23: .cfa -48 + ^ .ra: .cfa -56 + ^ x29: .cfa -64 + ^
STACK CFI 3839c .cfa: sp 128 +
STACK CFI 383b0 .cfa: sp 0 +
STACK CFI 383b4 .cfa: x29 64 +
STACK CFI INIT 38544 154 .cfa: sp 0 +
STACK CFI 38548 .cfa: sp 384 +
STACK CFI 3855c .cfa: x29 64 + x19: .cfa -8 + ^ x20: .cfa -16 + ^ x21: .cfa -24 + ^ x22: .cfa -32 + ^ x23: .cfa -40 + ^ x28: .cfa -48 + ^ .ra: .cfa -56 + ^ x29: .cfa -64 + ^
STACK CFI 38640 .cfa: sp 384 +
STACK CFI 38654 .cfa: sp 0 +
STACK CFI 38658 .cfa: x29 64 +
STACK CFI INIT 38698 168 .cfa: sp 0 +
STACK CFI 3869c .cfa: sp 384 +
STACK CFI 386b0 .cfa: x29 64 + x19: .cfa -8 + ^ x20: .cfa -16 + ^ x21: .cfa -24 + ^ x22: .cfa -32 + ^ x23: .cfa -40 + ^ x28: .cfa -48 + ^ .ra: .cfa -56 + ^ x29: .cfa -64 + ^
STACK CFI 387a8 .cfa: sp 384 +
STACK CFI 387bc .cfa: sp 0 +
STACK CFI 387c0 .cfa: x29 64 +
STACK CFI INIT 38818 4e0 .cfa: sp 0 +
STACK CFI 3881c .cfa: sp 64 +
STACK CFI 3882c .cfa: x29 64 + x19: .cfa -8 + ^ x20: .cfa -16 + ^ x21: .cfa -24 + ^ x22: .cfa -32 + ^ x23: .cfa -40 + ^ x24: .cfa -48 + ^ .ra: .cfa -56 + ^ x29: .cfa -64 + ^
STACK CFI 38ccc .cfa: sp 64 +
STACK CFI 38cdc .cfa: sp 0 +
STACK CFI 38ce0 .cfa: x29 64 +
