MODULE Linux arm64 96C7B58D3814BE808842C59CDB7E2BE10 prevter.comment_emojis.android64.so
INFO CODE_ID 8DB5C796143880BE8842C59CDB7E2BE1FD0F1CBD
INFO GENERATOR mozilla/dump_syms 2.3.4
PUBLIC 49ef0 0 __on_dlclose
PUBLIC 49f00 0 __emutls_unregister_key
PUBLIC 49f08 0 __on_dlclose_late
PUBLIC 49f10 0 __atexit_handler_wrapper
PUBLIC 49f24 0 atexit
PUBLIC 49f40 0 pthread_atfork
PUBLIC 49f50 0 unwind_phase2
PUBLIC 4a084 0 _Unwind_Resume
PUBLIC 4a108 0 unwind_phase2_forced
PUBLIC m 4a1fc 0 __unw_init_local
PUBLIC m 4a2a4 0 __unw_get_reg
PUBLIC 4a320 0 __unw_step_stage2
PUBLIC m 4a334 0 __unw_get_proc_info
PUBLIC m 4a374 0 __unw_resume
PUBLIC 4a39c 0 libunwind::CFI_Parser<libunwind::LocalAddressSpace>::decodeFDE(libunwind::LocalAddressSpace&, unsigned long, libunwind::CFI_Parser<libunwind::LocalAddressSpace>::FDE_Info*, libunwind::CFI_Parser<libunwind::LocalAddressSpace>::CIE_Info*, bool)
PUBLIC 4a52c 0 libunwind::CFI_Parser<libunwind::LocalAddressSpace>::parseCIE(libunwind::LocalAddressSpace&, unsigned long, libunwind::CFI_Parser<libunwind::LocalAddressSpace>::CIE_Info*)
PUBLIC 4a7f4 0 libunwind::AbstractUnwindCursor::~AbstractUnwindCursor()
PUBLIC 4a7fc 0 libunwind::UnwindCursor<libunwind::LocalAddressSpace, libunwind::Registers_arm64>::~UnwindCursor()
PUBLIC 4a804 0 libunwind::UnwindCursor<libunwind::LocalAddressSpace, libunwind::Registers_arm64>::validReg(int)
PUBLIC 4a848 0 libunwind::UnwindCursor<libunwind::LocalAddressSpace, libunwind::Registers_arm64>::getReg(int)
PUBLIC 4a930 0 libunwind::UnwindCursor<libunwind::LocalAddressSpace, libunwind::Registers_arm64>::setReg(int, unsigned long)
PUBLIC 4aa18 0 libunwind::UnwindCursor<libunwind::LocalAddressSpace, libunwind::Registers_arm64>::validFloatReg(int)
PUBLIC 4aa2c 0 libunwind::UnwindCursor<libunwind::LocalAddressSpace, libunwind::Registers_arm64>::getFloatReg(int)
PUBLIC 4aa3c 0 libunwind::UnwindCursor<libunwind::LocalAddressSpace, libunwind::Registers_arm64>::setFloatReg(int, double)
PUBLIC 4aa4c 0 libunwind::UnwindCursor<libunwind::LocalAddressSpace, libunwind::Registers_arm64>::step(bool)
PUBLIC 4ab3c 0 libunwind::UnwindCursor<libunwind::LocalAddressSpace, libunwind::Registers_arm64>::getInfo(unw_proc_info_t*)
PUBLIC 4ab80 0 libunwind::UnwindCursor<libunwind::LocalAddressSpace, libunwind::Registers_arm64>::jumpto()
PUBLIC 4ab8c 0 libunwind::UnwindCursor<libunwind::LocalAddressSpace, libunwind::Registers_arm64>::isSignalFrame()
PUBLIC 4ab98 0 libunwind::UnwindCursor<libunwind::LocalAddressSpace, libunwind::Registers_arm64>::getFunctionName(char*, unsigned long, unsigned long*)
PUBLIC 4abc4 0 libunwind::UnwindCursor<libunwind::LocalAddressSpace, libunwind::Registers_arm64>::setInfoBasedOnIPRegister(bool)
PUBLIC 4ae00 0 libunwind::UnwindCursor<libunwind::LocalAddressSpace, libunwind::Registers_arm64>::getRegisterName(int)
PUBLIC 4ae0c 0 libunwind::UnwindCursor<libunwind::LocalAddressSpace, libunwind::Registers_arm64>::stepThroughSigReturn(libunwind::Registers_arm64&)
PUBLIC 4af2c 0 libunwind::DwarfInstructions<libunwind::LocalAddressSpace, libunwind::Registers_arm64>::stepWithDwarf(libunwind::LocalAddressSpace&, unsigned long, unsigned long, libunwind::Registers_arm64&, bool&, bool)
PUBLIC 4b3c0 0 libunwind::CFI_Parser<libunwind::LocalAddressSpace>::parseFDEInstructions(libunwind::LocalAddressSpace&, libunwind::CFI_Parser<libunwind::LocalAddressSpace>::FDE_Info const&, libunwind::CFI_Parser<libunwind::LocalAddressSpace>::CIE_Info const&, unsigned long, int, libunwind::CFI_Parser<libunwind::LocalAddressSpace>::PrologInfo*)
PUBLIC 4bf38 0 libunwind::DwarfInstructions<libunwind::LocalAddressSpace, libunwind::Registers_arm64>::getCFA(libunwind::LocalAddressSpace&, libunwind::CFI_Parser<libunwind::LocalAddressSpace>::PrologInfo const&, libunwind::Registers_arm64 const&)
PUBLIC 4c06c 0 libunwind::DwarfInstructions<libunwind::LocalAddressSpace, libunwind::Registers_arm64>::getSavedRegister(libunwind::LocalAddressSpace&, libunwind::Registers_arm64 const&, unsigned long, libunwind::CFI_Parser<libunwind::LocalAddressSpace>::RegisterLocation const&)
PUBLIC 4c27c 0 libunwind::LocalAddressSpace::getEncodedP(unsigned long&, unsigned long, unsigned char, unsigned long)
PUBLIC 4c608 0 libunwind::LocalAddressSpace::getULEB128(unsigned long&, unsigned long)
PUBLIC 4c7d0 0 libunwind::DwarfInstructions<libunwind::LocalAddressSpace, libunwind::Registers_arm64>::evaluateExpression(unsigned long, libunwind::LocalAddressSpace&, libunwind::Registers_arm64 const&, unsigned long)
PUBLIC 4d194 0 libunwind::UnwindCursor<libunwind::LocalAddressSpace, libunwind::Registers_arm64>::getInfoFromDwarfSection(unsigned long, libunwind::UnwindInfoSections const&, unsigned int)
PUBLIC 4d468 0 libunwind::findUnwindSectionsByPhdr(dl_phdr_info*, unsigned long, void*)
PUBLIC 4d598 0 libunwind::EHHeaderParser<libunwind::LocalAddressSpace>::decodeEHHdr(libunwind::LocalAddressSpace&, unsigned long, unsigned long, libunwind::EHHeaderParser<libunwind::LocalAddressSpace>::EHHeaderInfo&)
PUBLIC 4d6b8 0 libunwind::CFI_Parser<libunwind::LocalAddressSpace>::findFDE(libunwind::LocalAddressSpace&, unsigned long, unsigned long, unsigned long, unsigned long, libunwind::CFI_Parser<libunwind::LocalAddressSpace>::FDE_Info*, libunwind::CFI_Parser<libunwind::LocalAddressSpace>::CIE_Info*)
PUBLIC 4d880 0 libunwind::EHHeaderParser<libunwind::LocalAddressSpace>::findFDE(libunwind::LocalAddressSpace&, unsigned long, unsigned long, unsigned int, libunwind::CFI_Parser<libunwind::LocalAddressSpace>::FDE_Info*, libunwind::CFI_Parser<libunwind::LocalAddressSpace>::CIE_Info*)
PUBLIC 4d9e8 0 libunwind::EHHeaderParser<libunwind::LocalAddressSpace>::getTableEntrySize(unsigned char)
PUBLIC 4dae4 0 libunwind::Registers_arm64::getRegisterName(int)
PUBLIC 4db14 0 __libunwind_Registers_arm64_jumpto
PUBLIC m 4dba4 0 __unw_getcontext
PUBLIC 4dc40 0 __aarch64_ldadd8_relax
PUBLIC 4dc70 0 init_have_lse_atomics
PUBLIC 4dd08 0 __init_cpu_features_constructor
PUBLIC 4dfb4 0 __init_cpu_features
PUBLIC 4e040 0 __aarch64_ldadd8_acq_rel
PUBLIC 4e070 0 std::__ndk1::unordered_map<std::__ndk1::basic_string_view<char32_t, std::__ndk1::char_traits<char32_t> >, char const*, std::__ndk1::hash<std::__ndk1::basic_string_view<char32_t, std::__ndk1::char_traits<char32_t> > >, std::__ndk1::equal_to<std::__ndk1::basic_string_view<char32_t, std::__ndk1::char_traits<char32_t> > >, std::__ndk1::allocator<std::__ndk1::pair<std::__ndk1::basic_string_view<char32_t, std::__ndk1::char_traits<char32_t> > const, char const*> > >::~unordered_map[abi:ne190000]()
PUBLIC 4e0bc 0 std::__ndk1::unordered_map<std::__ndk1::basic_string_view<char32_t, std::__ndk1::char_traits<char32_t> >, std::__ndk1::function<cocos2d::CCNode* (std::__ndk1::basic_string_view<char32_t, std::__ndk1::char_traits<char32_t> >, unsigned int&)>, std::__ndk1::hash<std::__ndk1::basic_string_view<char32_t, std::__ndk1::char_traits<char32_t> > >, std::__ndk1::equal_to<std::__ndk1::basic_string_view<char32_t, std::__ndk1::char_traits<char32_t> > >, std::__ndk1::allocator<std::__ndk1::pair<std::__ndk1::basic_string_view<char32_t, std::__ndk1::char_traits<char32_t> > const, std::__ndk1::function<cocos2d::CCNode* (std::__ndk1::basic_string_view<char32_t, std::__ndk1::char_traits<char32_t> >, unsigned int&)> > > >::~unordered_map[abi:ne190000]()
PUBLIC 4e148 0 __cxx_global_var_init.2
PUBLIC 4e5bc 0 geode::modifier::ModifyBase<geode::modifier::ModifyDerive<ClearFontCacheHook, GameManager> >::~ModifyBase()
PUBLIC 4e5d4 0 __cxx_global_var_init.3
PUBLIC 4ed28 0 geode::modifier::ModifyBase<geode::modifier::ModifyDerive<CommentCellHook, CommentCell> >::~ModifyBase()
PUBLIC 4ed40 0 __cxx_global_var_init.4
PUBLIC 4f1b4 0 geode::modifier::ModifyBase<geode::modifier::ModifyDerive<ShareCommentLayerHook, ShareCommentLayer> >::~ModifyBase()
PUBLIC 4f1cc 0 std::__ndk1::__hash_table<std::__ndk1::__hash_value_type<std::__ndk1::basic_string_view<char32_t, std::__ndk1::char_traits<char32_t> >, char const*>, std::__ndk1::__unordered_map_hasher<std::__ndk1::basic_string_view<char32_t, std::__ndk1::char_traits<char32_t> >, std::__ndk1::__hash_value_type<std::__ndk1::basic_string_view<char32_t, std::__ndk1::char_traits<char32_t> >, char const*>, std::__ndk1::hash<std::__ndk1::basic_string_view<char32_t, std::__ndk1::char_traits<char32_t> > >, std::__ndk1::equal_to<std::__ndk1::basic_string_view<char32_t, std::__ndk1::char_traits<char32_t> > >, true>, std::__ndk1::__unordered_map_equal<std::__ndk1::basic_string_view<char32_t, std::__ndk1::char_traits<char32_t> >, std::__ndk1::__hash_value_type<std::__ndk1::basic_string_view<char32_t, std::__ndk1::char_traits<char32_t> >, char const*>, std::__ndk1::equal_to<std::__ndk1::basic_string_view<char32_t, std::__ndk1::char_traits<char32_t> > >, std::__ndk1::hash<std::__ndk1::basic_string_view<char32_t, std::__ndk1::char_traits<char32_t> > >, true>, std::__ndk1::allocator<std::__ndk1::__hash_value_type<std::__ndk1::basic_string_view<char32_t, std::__ndk1::char_traits<char32_t> >, char const*> > >::~__hash_table()
PUBLIC 4f218 0 __clang_call_terminate
PUBLIC 4f228 0 std::__ndk1::__hash_table<std::__ndk1::__hash_value_type<std::__ndk1::basic_string_view<char32_t, std::__ndk1::char_traits<char32_t> >, char const*>, std::__ndk1::__unordered_map_hasher<std::__ndk1::basic_string_view<char32_t, std::__ndk1::char_traits<char32_t> >, std::__ndk1::__hash_value_type<std::__ndk1::basic_string_view<char32_t, std::__ndk1::char_traits<char32_t> >, char const*>, std::__ndk1::hash<std::__ndk1::basic_string_view<char32_t, std::__ndk1::char_traits<char32_t> > >, std::__ndk1::equal_to<std::__ndk1::basic_string_view<char32_t, std::__ndk1::char_traits<char32_t> > >, true>, std::__ndk1::__unordered_map_equal<std::__ndk1::basic_string_view<char32_t, std::__ndk1::char_traits<char32_t> >, std::__ndk1::__hash_value_type<std::__ndk1::basic_string_view<char32_t, std::__ndk1::char_traits<char32_t> >, char const*>, std::__ndk1::equal_to<std::__ndk1::basic_string_view<char32_t, std::__ndk1::char_traits<char32_t> > >, std::__ndk1::hash<std::__ndk1::basic_string_view<char32_t, std::__ndk1::char_traits<char32_t> > >, true>, std::__ndk1::allocator<std::__ndk1::__hash_value_type<std::__ndk1::basic_string_view<char32_t, std::__ndk1::char_traits<char32_t> >, char const*> > >::__emplace_unique_key_args<std::__ndk1::basic_string_view<char32_t, std::__ndk1::char_traits<char32_t> >, std::__ndk1::pair<std::__ndk1::basic_string_view<char32_t, std::__ndk1::char_traits<char32_t> >, char const*> const&>(std::__ndk1::basic_string_view<char32_t, std::__ndk1::char_traits<char32_t> > const&, std::__ndk1::pair<std::__ndk1::basic_string_view<char32_t, std::__ndk1::char_traits<char32_t> >, char const*> const&)
PUBLIC 4f678 0 std::__ndk1::__murmur2_or_cityhash<unsigned long, (unsigned long)64>::operator()[abi:ne190000](void const*, unsigned long) const
PUBLIC 4fac4 0 std::__throw_bad_array_new_length([abi:ne190000], void)
PUBLIC 4faf8 0 std::__ndk1::__hash_table<std::__ndk1::__hash_value_type<std::__ndk1::basic_string_view<char32_t, std::__ndk1::char_traits<char32_t> >, char const*>, std::__ndk1::__unordered_map_hasher<std::__ndk1::basic_string_view<char32_t, std::__ndk1::char_traits<char32_t> >, std::__ndk1::__hash_value_type<std::__ndk1::basic_string_view<char32_t, std::__ndk1::char_traits<char32_t> >, char const*>, std::__ndk1::hash<std::__ndk1::basic_string_view<char32_t, std::__ndk1::char_traits<char32_t> > >, std::__ndk1::equal_to<std::__ndk1::basic_string_view<char32_t, std::__ndk1::char_traits<char32_t> > >, true>, std::__ndk1::__unordered_map_equal<std::__ndk1::basic_string_view<char32_t, std::__ndk1::char_traits<char32_t> >, std::__ndk1::__hash_value_type<std::__ndk1::basic_string_view<char32_t, std::__ndk1::char_traits<char32_t> >, char const*>, std::__ndk1::equal_to<std::__ndk1::basic_string_view<char32_t, std::__ndk1::char_traits<char32_t> > >, std::__ndk1::hash<std::__ndk1::basic_string_view<char32_t, std::__ndk1::char_traits<char32_t> > >, true>, std::__ndk1::allocator<std::__ndk1::__hash_value_type<std::__ndk1::basic_string_view<char32_t, std::__ndk1::char_traits<char32_t> >, char const*> > >::__do_rehash<true>(unsigned long)
PUBLIC 4fca4 0 _Z17GetFrameAnimationITnN5geode14geode_internal22StringConcatModIDSlashEXtlNS2_ILm7EEEtlA30_cLc112ELc114ELc101ELc118ELc116ELc101ELc114ELc46ELc99ELc111ELc109ELc109ELc101ELc110ELc116ELc95ELc101ELc109ELc111ELc106ELc105ELc115ELc47ELc115ELc104ELc105ELc103ELc103ELc121EEEELm10ELm50EEPN7cocos2d6CCNodeENSt6__ndk117basic_string_viewIDiNS8_11char_traitsIDiEEEERj
PUBLIC 4fcc0 0 _Z17GetFrameAnimationITnN5geode14geode_internal22StringConcatModIDSlashEXtlNS2_ILm5EEEtlA28_cLc112ELc114ELc101ELc118ELc116ELc101ELc114ELc46ELc99ELc111ELc109ELc109ELc101ELc110ELc116ELc95ELc101ELc109ELc111ELc106ELc105ELc115ELc47ELc104ELc121ELc112ELc101EEEELm10ELm14EEPN7cocos2d6CCNodeENSt6__ndk117basic_string_viewIDiNS8_11char_traitsIDiEEEERj
PUBLIC 4fcdc 0 _Z17GetFrameAnimationITnN5geode14geode_internal22StringConcatModIDSlashEXtlNS2_ILm11EEEtlA34_cLc112ELc114ELc101ELc118ELc116ELc101ELc114ELc46ELc99ELc111ELc109ELc109ELc101ELc110ELc116ELc95ELc101ELc109ELc111ELc106ELc105ELc115ELc47ELc112ELc101ELc116ELc109ELc97ELc117ELc114ELc105ELc99ELc101EEEELm5ELm20EEPN7cocos2d6CCNodeENSt6__ndk117basic_string_viewIDiNS8_11char_traitsIDiEEEERj
PUBLIC 4fcf8 0 _Z17GetFrameAnimationITnN5geode14geode_internal22StringConcatModIDSlashEXtlNS2_ILm5EEEtlA28_cLc112ELc114ELc101ELc118ELc116ELc101ELc114ELc46ELc99ELc111ELc109ELc109ELc101ELc110ELc116ELc95ELc101ELc109ELc111ELc106ELc105ELc115ELc47ELc98ELc111ELc110ELc107EEEELm17ELm16EEPN7cocos2d6CCNodeENSt6__ndk117basic_string_viewIDiNS8_11char_traitsIDiEEEERj
PUBLIC 4fd10 0 _Z17GetFrameAnimationITnN5geode14geode_internal22StringConcatModIDSlashEXtlNS2_ILm9EEEtlA32_cLc112ELc114ELc101ELc118ELc116ELc101ELc114ELc46ELc99ELc111ELc109ELc109ELc101ELc110ELc116ELc95ELc101ELc109ELc111ELc106ELc105ELc115ELc47ELc112ELc97ELc114ELc116ELc121ELc105ELc110ELc103EEEELm12ELm25EEPN7cocos2d6CCNodeENSt6__ndk117basic_string_viewIDiNS8_11char_traitsIDiEEEERj
PUBLIC 4fd2c 0 _Z17GetFrameAnimationITnN5geode14geode_internal22StringConcatModIDSlashEXtlNS2_ILm14EEEtlA37_cLc112ELc114ELc101ELc118ELc116ELc101ELc114ELc46ELc99ELc111ELc109ELc109ELc101ELc110ELc116ELc95ELc101ELc109ELc111ELc106ELc105ELc115ELc47ELc110ELc101ELc100ELc95ELc101ELc120ELc112ELc108ELc111ELc115ELc105ELc111ELc110EEEELm12ELm50EEPN7cocos2d6CCNodeENSt6__ndk117basic_string_viewIDiNS8_11char_traitsIDiEEEERj
PUBLIC 4fd48 0 _Z17GetFrameAnimationITnN5geode14geode_internal22StringConcatModIDSlashEXtlNS2_ILm10EEEtlA33_cLc112ELc114ELc101ELc118ELc116ELc101ELc114ELc46ELc99ELc111ELc109ELc109ELc101ELc110ELc116ELc95ELc101ELc109ELc111ELc106ELc105ELc115ELc47ELc112ELc111ELc108ELc97ELc114ELc98ELc101ELc97ELc114EEEELm13ELm33EEPN7cocos2d6CCNodeENSt6__ndk117basic_string_viewIDiNS8_11char_traitsIDiEEEERj
PUBLIC 4fd64 0 _Z17GetFrameAnimationITnN5geode14geode_internal22StringConcatModIDSlashEXtlNS2_ILm14EEEtlA37_cLc112ELc114ELc101ELc118ELc116ELc101ELc114ELc46ELc99ELc111ELc109ELc109ELc101ELc110ELc116ELc95ELc101ELc109ELc111ELc106ELc105ELc115ELc47ELc99ELc111ELc108ELc111ELc110ELc116ELc104ELc114ELc101ELc101ELc99ELc97ELc116EEEELm111ELm33EEPN7cocos2d6CCNodeENSt6__ndk117basic_string_viewIDiNS8_11char_traitsIDiEEEERj
PUBLIC 4fd80 0 _Z17GetFrameAnimationITnN5geode14geode_internal22StringConcatModIDSlashEXtlNS2_ILm19EEEtlA42_cLc112ELc114ELc101ELc118ELc116ELc101ELc114ELc46ELc99ELc111ELc109ELc109ELc101ELc110ELc116ELc95ELc101ELc109ELc111ELc106ELc105ELc115ELc47ELc100ELc101ELc108ELc116ELc97ELc114ELc117ELc110ELc101ELc101ELc120ELc112ELc108ELc111ELc115ELc105ELc111ELc110EEEELm17ELm17EEPN7cocos2d6CCNodeENSt6__ndk117basic_string_viewIDiNS8_11char_traitsIDiEEEERj
PUBLIC 4fd9c 0 _Z17GetFrameAnimationITnN5geode14geode_internal22StringConcatModIDSlashEXtlNS2_ILm12EEEtlA35_cLc112ELc114ELc101ELc118ELc116ELc101ELc114ELc46ELc99ELc111ELc109ELc109ELc101ELc110ELc116ELc95ELc101ELc109ELc111ELc106ELc105ELc115ELc47ELc116ELc114ELc111ELc108ELc108ELc101ELc121ELc122ELc111ELc111ELc109EEEELm178ELm25EEPN7cocos2d6CCNodeENSt6__ndk117basic_string_viewIDiNS8_11char_traitsIDiEEEERj
PUBLIC 4fdb8 0 _Z17GetFrameAnimationITnN5geode14geode_internal22StringConcatModIDSlashEXtlNS2_ILm9EEEtlA32_cLc112ELc114ELc101ELc118ELc116ELc101ELc114ELc46ELc99ELc111ELc109ELc109ELc101ELc110ELc116ELc95ELc101ELc109ELc111ELc106ELc105ELc115ELc47ELc102ELc105ELc115ELc104ELc115ELc112ELc105ELc110EEEELm144ELm28EEPN7cocos2d6CCNodeENSt6__ndk117basic_string_viewIDiNS8_11char_traitsIDiEEEERj
PUBLIC 4fdd4 0 _Z17GetFrameAnimationITnN5geode14geode_internal22StringConcatModIDSlashEXtlNS2_ILm10EEEtlA33_cLc112ELc114ELc101ELc118ELc116ELc101ELc114ELc46ELc99ELc111ELc109ELc109ELc101ELc110ELc116ELc95ELc101ELc109ELc111ELc106ELc105ELc115ELc47ELc99ELc117ELc98ELc101ELc100ELc97ELc110ELc99ELc101EEEELm6ELm14EEPN7cocos2d6CCNodeENSt6__ndk117basic_string_viewIDiNS8_11char_traitsIDiEEEERj
PUBLIC 4fdf0 0 _Z17GetFrameAnimationITnN5geode14geode_internal22StringConcatModIDSlashEXtlNS2_ILm10EEEtlA33_cLc112ELc114ELc101ELc118ELc116ELc101ELc114ELc46ELc99ELc111ELc109ELc109ELc101ELc110ELc116ELc95ELc101ELc109ELc111ELc106ELc105ELc115ELc47ELc99ELc117ELc98ELc101ELc115ELc112ELc101ELc101ELc110EEEELm12ELm25EEPN7cocos2d6CCNodeENSt6__ndk117basic_string_viewIDiNS8_11char_traitsIDiEEEERj
PUBLIC 4fe0c 0 _Z17GetFrameAnimationITnN5geode14geode_internal22StringConcatModIDSlashEXtlNS2_ILm15EEEtlA38_cLc112ELc114ELc101ELc118ELc116ELc101ELc114ELc46ELc99ELc111ELc109ELc109ELc101ELc110ELc116ELc95ELc101ELc109ELc111ELc106ELc105ELc115ELc47ELc99ELc117ELc98ELc101ELc104ELc121ELc112ELc101ELc114ELc116ELc104ELc105ELc110ELc107EEEELm6ELm20EEPN7cocos2d6CCNodeENSt6__ndk117basic_string_viewIDiNS8_11char_traitsIDiEEEERj
PUBLIC 4fe28 0 std::__ndk1::__hash_table<std::__ndk1::__hash_value_type<std::__ndk1::basic_string_view<char32_t, std::__ndk1::char_traits<char32_t> >, std::__ndk1::function<cocos2d::CCNode* (std::__ndk1::basic_string_view<char32_t, std::__ndk1::char_traits<char32_t> >, unsigned int&)> >, std::__ndk1::__unordered_map_hasher<std::__ndk1::basic_string_view<char32_t, std::__ndk1::char_traits<char32_t> >, std::__ndk1::__hash_value_type<std::__ndk1::basic_string_view<char32_t, std::__ndk1::char_traits<char32_t> >, std::__ndk1::function<cocos2d::CCNode* (std::__ndk1::basic_string_view<char32_t, std::__ndk1::char_traits<char32_t> >, unsigned int&)> >, std::__ndk1::hash<std::__ndk1::basic_string_view<char32_t, std::__ndk1::char_traits<char32_t> > >, std::__ndk1::equal_to<std::__ndk1::basic_string_view<char32_t, std::__ndk1::char_traits<char32_t> > >, true>, std::__ndk1::__unordered_map_equal<std::__ndk1::basic_string_view<char32_t, std::__ndk1::char_traits<char32_t> >, std::__ndk1::__hash_value_type<std::__ndk1::basic_string_view<char32_t, std::__ndk1::char_traits<char32_t> >, std::__ndk1::function<cocos2d::CCNode* (std::__ndk1::basic_string_view<char32_t, std::__ndk1::char_traits<char32_t> >, unsigned int&)> >, std::__ndk1::equal_to<std::__ndk1::basic_string_view<char32_t, std::__ndk1::char_traits<char32_t> > >, std::__ndk1::hash<std::__ndk1::basic_string_view<char32_t, std::__ndk1::char_traits<char32_t> > >, true>, std::__ndk1::allocator<std::__ndk1::__hash_value_type<std::__ndk1::basic_string_view<char32_t, std::__ndk1::char_traits<char32_t> >, std::__ndk1::function<cocos2d::CCNode* (std::__ndk1::basic_string_view<char32_t, std::__ndk1::char_traits<char32_t> >, unsigned int&)> > > >::~__hash_table()
PUBLIC 4feb4 0 std::__ndk1::__hash_table<std::__ndk1::__hash_value_type<std::__ndk1::basic_string_view<char32_t, std::__ndk1::char_traits<char32_t> >, std::__ndk1::function<cocos2d::CCNode* (std::__ndk1::basic_string_view<char32_t, std::__ndk1::char_traits<char32_t> >, unsigned int&)> >, std::__ndk1::__unordered_map_hasher<std::__ndk1::basic_string_view<char32_t, std::__ndk1::char_traits<char32_t> >, std::__ndk1::__hash_value_type<std::__ndk1::basic_string_view<char32_t, std::__ndk1::char_traits<char32_t> >, std::__ndk1::function<cocos2d::CCNode* (std::__ndk1::basic_string_view<char32_t, std::__ndk1::char_traits<char32_t> >, unsigned int&)> >, std::__ndk1::hash<std::__ndk1::basic_string_view<char32_t, std::__ndk1::char_traits<char32_t> > >, std::__ndk1::equal_to<std::__ndk1::basic_string_view<char32_t, std::__ndk1::char_traits<char32_t> > >, true>, std::__ndk1::__unordered_map_equal<std::__ndk1::basic_string_view<char32_t, std::__ndk1::char_traits<char32_t> >, std::__ndk1::__hash_value_type<std::__ndk1::basic_string_view<char32_t, std::__ndk1::char_traits<char32_t> >, std::__ndk1::function<cocos2d::CCNode* (std::__ndk1::basic_string_view<char32_t, std::__ndk1::char_traits<char32_t> >, unsigned int&)> >, std::__ndk1::equal_to<std::__ndk1::basic_string_view<char32_t, std::__ndk1::char_traits<char32_t> > >, std::__ndk1::hash<std::__ndk1::basic_string_view<char32_t, std::__ndk1::char_traits<char32_t> > >, true>, std::__ndk1::allocator<std::__ndk1::__hash_value_type<std::__ndk1::basic_string_view<char32_t, std::__ndk1::char_traits<char32_t> >, std::__ndk1::function<cocos2d::CCNode* (std::__ndk1::basic_string_view<char32_t, std::__ndk1::char_traits<char32_t> >, unsigned int&)> > > >::__emplace_unique_key_args<std::__ndk1::basic_string_view<char32_t, std::__ndk1::char_traits<char32_t> >, std::__ndk1::pair<std::__ndk1::basic_string_view<char32_t, std::__ndk1::char_traits<char32_t> >, cocos2d::CCNode* (*)(std::__ndk1::basic_string_view<char32_t, std::__ndk1::char_traits<char32_t> >, unsigned int&)> const&>(std::__ndk1::basic_string_view<char32_t, std::__ndk1::char_traits<char32_t> > const&, std::__ndk1::pair<std::__ndk1::basic_string_view<char32_t, std::__ndk1::char_traits<char32_t> >, cocos2d::CCNode* (*)(std::__ndk1::basic_string_view<char32_t, std::__ndk1::char_traits<char32_t> >, unsigned int&)> const&)
PUBLIC 50328 0 std::__ndk1::unique_ptr<std::__ndk1::__hash_node<std::__ndk1::__hash_value_type<std::__ndk1::basic_string_view<char32_t, std::__ndk1::char_traits<char32_t> >, std::__ndk1::function<cocos2d::CCNode* (std::__ndk1::basic_string_view<char32_t, std::__ndk1::char_traits<char32_t> >, unsigned int&)> >, void*>, std::__ndk1::__hash_node_destructor<std::__ndk1::allocator<std::__ndk1::__hash_node<std::__ndk1::__hash_value_type<std::__ndk1::basic_string_view<char32_t, std::__ndk1::char_traits<char32_t> >, std::__ndk1::function<cocos2d::CCNode* (std::__ndk1::basic_string_view<char32_t, std::__ndk1::char_traits<char32_t> >, unsigned int&)> >, void*> > > >::~unique_ptr[abi:ne190000]()
PUBLIC 50394 0 std::__ndk1::__function::__base<cocos2d::CCNode* (std::__ndk1::basic_string_view<char32_t, std::__ndk1::char_traits<char32_t> >, unsigned int&)>::~__base()
PUBLIC 50398 0 std::__ndk1::__function::__func<cocos2d::CCNode* (*)(std::__ndk1::basic_string_view<char32_t, std::__ndk1::char_traits<char32_t> >, unsigned int&), std::__ndk1::allocator<cocos2d::CCNode* (*)(std::__ndk1::basic_string_view<char32_t, std::__ndk1::char_traits<char32_t> >, unsigned int&)>, cocos2d::CCNode* (std::__ndk1::basic_string_view<char32_t, std::__ndk1::char_traits<char32_t> >, unsigned int&)>::~__func()
PUBLIC 5039c 0 std::__ndk1::__function::__func<cocos2d::CCNode* (*)(std::__ndk1::basic_string_view<char32_t, std::__ndk1::char_traits<char32_t> >, unsigned int&), std::__ndk1::allocator<cocos2d::CCNode* (*)(std::__ndk1::basic_string_view<char32_t, std::__ndk1::char_traits<char32_t> >, unsigned int&)>, cocos2d::CCNode* (std::__ndk1::basic_string_view<char32_t, std::__ndk1::char_traits<char32_t> >, unsigned int&)>::__clone() const
PUBLIC 503d0 0 std::__ndk1::__function::__func<cocos2d::CCNode* (*)(std::__ndk1::basic_string_view<char32_t, std::__ndk1::char_traits<char32_t> >, unsigned int&), std::__ndk1::allocator<cocos2d::CCNode* (*)(std::__ndk1::basic_string_view<char32_t, std::__ndk1::char_traits<char32_t> >, unsigned int&)>, cocos2d::CCNode* (std::__ndk1::basic_string_view<char32_t, std::__ndk1::char_traits<char32_t> >, unsigned int&)>::__clone(std::__ndk1::__function::__base<cocos2d::CCNode* (std::__ndk1::basic_string_view<char32_t, std::__ndk1::char_traits<char32_t> >, unsigned int&)>*) const
PUBLIC 503e4 0 std::__ndk1::__function::__func<cocos2d::CCNode* (*)(std::__ndk1::basic_string_view<char32_t, std::__ndk1::char_traits<char32_t> >, unsigned int&), std::__ndk1::allocator<cocos2d::CCNode* (*)(std::__ndk1::basic_string_view<char32_t, std::__ndk1::char_traits<char32_t> >, unsigned int&)>, cocos2d::CCNode* (std::__ndk1::basic_string_view<char32_t, std::__ndk1::char_traits<char32_t> >, unsigned int&)>::destroy()
PUBLIC 503e8 0 std::__ndk1::__function::__func<cocos2d::CCNode* (*)(std::__ndk1::basic_string_view<char32_t, std::__ndk1::char_traits<char32_t> >, unsigned int&), std::__ndk1::allocator<cocos2d::CCNode* (*)(std::__ndk1::basic_string_view<char32_t, std::__ndk1::char_traits<char32_t> >, unsigned int&)>, cocos2d::CCNode* (std::__ndk1::basic_string_view<char32_t, std::__ndk1::char_traits<char32_t> >, unsigned int&)>::destroy_deallocate()
PUBLIC 503ec 0 std::__ndk1::__function::__func<cocos2d::CCNode* (*)(std::__ndk1::basic_string_view<char32_t, std::__ndk1::char_traits<char32_t> >, unsigned int&), std::__ndk1::allocator<cocos2d::CCNode* (*)(std::__ndk1::basic_string_view<char32_t, std::__ndk1::char_traits<char32_t> >, unsigned int&)>, cocos2d::CCNode* (std::__ndk1::basic_string_view<char32_t, std::__ndk1::char_traits<char32_t> >, unsigned int&)>::operator()(std::__ndk1::basic_string_view<char32_t, std::__ndk1::char_traits<char32_t> >&&, unsigned int&)
PUBLIC 503fc 0 std::__ndk1::__function::__func<cocos2d::CCNode* (*)(std::__ndk1::basic_string_view<char32_t, std::__ndk1::char_traits<char32_t> >, unsigned int&), std::__ndk1::allocator<cocos2d::CCNode* (*)(std::__ndk1::basic_string_view<char32_t, std::__ndk1::char_traits<char32_t> >, unsigned int&)>, cocos2d::CCNode* (std::__ndk1::basic_string_view<char32_t, std::__ndk1::char_traits<char32_t> >, unsigned int&)>::target(std::type_info const&) const
PUBLIC 50418 0 std::__ndk1::__function::__func<cocos2d::CCNode* (*)(std::__ndk1::basic_string_view<char32_t, std::__ndk1::char_traits<char32_t> >, unsigned int&), std::__ndk1::allocator<cocos2d::CCNode* (*)(std::__ndk1::basic_string_view<char32_t, std::__ndk1::char_traits<char32_t> >, unsigned int&)>, cocos2d::CCNode* (std::__ndk1::basic_string_view<char32_t, std::__ndk1::char_traits<char32_t> >, unsigned int&)>::target_type() const
PUBLIC 50424 0 std::__ndk1::__hash_table<std::__ndk1::__hash_value_type<std::__ndk1::basic_string_view<char32_t, std::__ndk1::char_traits<char32_t> >, std::__ndk1::function<cocos2d::CCNode* (std::__ndk1::basic_string_view<char32_t, std::__ndk1::char_traits<char32_t> >, unsigned int&)> >, std::__ndk1::__unordered_map_hasher<std::__ndk1::basic_string_view<char32_t, std::__ndk1::char_traits<char32_t> >, std::__ndk1::__hash_value_type<std::__ndk1::basic_string_view<char32_t, std::__ndk1::char_traits<char32_t> >, std::__ndk1::function<cocos2d::CCNode* (std::__ndk1::basic_string_view<char32_t, std::__ndk1::char_traits<char32_t> >, unsigned int&)> >, std::__ndk1::hash<std::__ndk1::basic_string_view<char32_t, std::__ndk1::char_traits<char32_t> > >, std::__ndk1::equal_to<std::__ndk1::basic_string_view<char32_t, std::__ndk1::char_traits<char32_t> > >, true>, std::__ndk1::__unordered_map_equal<std::__ndk1::basic_string_view<char32_t, std::__ndk1::char_traits<char32_t> >, std::__ndk1::__hash_value_type<std::__ndk1::basic_string_view<char32_t, std::__ndk1::char_traits<char32_t> >, std::__ndk1::function<cocos2d::CCNode* (std::__ndk1::basic_string_view<char32_t, std::__ndk1::char_traits<char32_t> >, unsigned int&)> >, std::__ndk1::equal_to<std::__ndk1::basic_string_view<char32_t, std::__ndk1::char_traits<char32_t> > >, std::__ndk1::hash<std::__ndk1::basic_string_view<char32_t, std::__ndk1::char_traits<char32_t> > >, true>, std::__ndk1::allocator<std::__ndk1::__hash_value_type<std::__ndk1::basic_string_view<char32_t, std::__ndk1::char_traits<char32_t> >, std::__ndk1::function<cocos2d::CCNode* (std::__ndk1::basic_string_view<char32_t, std::__ndk1::char_traits<char32_t> >, unsigned int&)> > > >::__do_rehash<true>(unsigned long)
PUBLIC 505d0 0 std::__ndk1::basic_string<char, std::__ndk1::char_traits<char>, std::__ndk1::allocator<char> >::__throw_length_error[abi:ne190000]() const
PUBLIC 505e4 0 std::__ndk1::__throw_length_error[abi:ne190000](char const*)
PUBLIC 50634 0 std::length_error::length_error[abi:ne190000](char const*)
PUBLIC 50664 0 std::__ndk1::basic_string<char, std::__ndk1::char_traits<char>, std::__ndk1::allocator<char> >::__throw_out_of_range[abi:ne190000]() const
PUBLIC 50678 0 std::__ndk1::__throw_out_of_range[abi:ne190000](char const*)
PUBLIC 506c8 0 std::out_of_range::out_of_range[abi:ne190000](char const*)
PUBLIC 506f8 0 geode::modifier::ModifyDerive<ClearFontCacheHook, GameManager>::apply()
PUBLIC 50a10 0 std::__ndk1::shared_ptr<geode::Hook>::~shared_ptr[abi:ne190000]()
PUBLIC 50a60 0 geode::impl::ResultData<geode::Hook*, std::__ndk1::basic_string<char, std::__ndk1::char_traits<char>, std::__ndk1::allocator<char> > >::~ResultData()
PUBLIC 50ad4 0 std::__ndk1::vector<std::__ndk1::basic_string<char, std::__ndk1::char_traits<char>, std::__ndk1::allocator<char> >, std::__ndk1::allocator<std::__ndk1::basic_string<char, std::__ndk1::char_traits<char>, std::__ndk1::allocator<char> > > >::~vector[abi:ne190000]()
PUBLIC 50b50 0 geode::modifier::ModifyBase<geode::modifier::ModifyDerive<ClearFontCacheHook, GameManager> >::apply()
PUBLIC 50b54 0 _ZN5geode15UnwrapExceptionC2IRPNS_4HookEQsr4implE18IsStringStreamableIT_EEENS_4impl5OkTagEOS5_
PUBLIC 50ca8 0 std::__ndk1::__throw_bad_variant_access[abi:ne190000]()
PUBLIC 50cdc 0 std::__ndk1::basic_stringstream<char, std::__ndk1::char_traits<char>, std::__ndk1::allocator<char> >::basic_stringstream[abi:ne190000]()
PUBLIC m 50e10 0 std::__ndk1::basic_stringstream<char, std::__ndk1::char_traits<char>, std::__ndk1::allocator<char> >::~basic_stringstream()
PUBLIC 50e90 0 geode::UnwrapException::~UnwrapException()
PUBLIC 50eb4 0 std::__ndk1::__put_character_sequence[abi:ne190000]<char, std::__ndk1::char_traits<char> >(std::__ndk1::basic_ostream<char, std::__ndk1::char_traits<char> >, std::__ndk1::basic_ostream const*, unsigned long)
PUBLIC 51058 0 std::__ndk1::__pad_and_output[abi:ne190000]<char, std::__ndk1::char_traits<char> >(std::__ndk1::char_traits<char>, std::__ndk1::ostreambuf_iterator const*, std::__ndk1::ostreambuf_iterator const, std::__ndk1::ostreambuf_iterator const, std::__ndk1::ios_base&, std::__ndk1::ostreambuf_iterator)
PUBLIC 51244 0 std::__ndk1::basic_stringbuf<char, std::__ndk1::char_traits<char>, std::__ndk1::allocator<char> >::str[abi:ne190000]() &&
PUBLIC 513b4 0 std::__ndk1::basic_stringbuf<char, std::__ndk1::char_traits<char>, std::__ndk1::allocator<char> >::__init_buf_ptrs[abi:ne190000]()
PUBLIC 514fc 0 std::__ndk1::basic_string<char, std::__ndk1::char_traits<char>, std::__ndk1::allocator<char> >::__erase_external_with_move(unsigned long, unsigned long)
PUBLIC 51584 0 std::__ndk1::vector<std::__ndk1::basic_string<char, std::__ndk1::char_traits<char>, std::__ndk1::allocator<char> >, std::__ndk1::allocator<std::__ndk1::basic_string<char, std::__ndk1::char_traits<char>, std::__ndk1::allocator<char> > > >::__push_back_slow_path<std::__ndk1::basic_string<char, std::__ndk1::char_traits<char>, std::__ndk1::allocator<char> > const&>(std::__ndk1::basic_string<char, std::__ndk1::char_traits<char>, std::__ndk1::allocator<char> > const&)
PUBLIC 51734 0 std::__ndk1::basic_string<char, std::__ndk1::char_traits<char>, std::__ndk1::allocator<char> >::__init_copy_ctor_external(char const*, unsigned long)
PUBLIC 517c8 0 std::__ndk1::__split_buffer<std::__ndk1::basic_string<char, std::__ndk1::char_traits<char>, std::__ndk1::allocator<char> >, std::__ndk1::allocator<std::__ndk1::basic_string<char, std::__ndk1::char_traits<char>, std::__ndk1::allocator<char> > >&>::~__split_buffer()
PUBLIC 51830 0 std::__ndk1::vector<std::__ndk1::basic_string<char, std::__ndk1::char_traits<char>, std::__ndk1::allocator<char> >, std::__ndk1::allocator<std::__ndk1::basic_string<char, std::__ndk1::char_traits<char>, std::__ndk1::allocator<char> > > >::__throw_length_error[abi:ne190000]() const
PUBLIC 51844 0 std::__ndk1::__variant_detail::__visitation::__base::__dispatcher<(unsigned long)0>::__dispatch[abi:ne190000]<std::__ndk1::__variant_detail::__dtor<std::__ndk1::__variant_detail::__traits<geode::Hook*, std::__ndk1::basic_string<char, std::__ndk1::char_traits<char>, std::__ndk1::allocator<char> > >, (std::__ndk1::__variant_detail::_Trait)1>::__destroy[abi:ne190000]()::{lambda(auto:1&)#1}, std::__ndk1::__variant_detail::__base<(std::__ndk1::__variant_detail::__traits<geode::Hook*, std::__ndk1::basic_string<char, std::__ndk1::char_traits<char>, std::__ndk1::allocator<char> > >)1, geode::Hook, std::__ndk1::allocator<char> >&>(std::__ndk1::__variant_detail::__dtor<std::__ndk1::__variant_detail::__traits<geode::Hook*, std::__ndk1::basic_string<char, std::__ndk1::char_traits<char>, std::__ndk1::allocator<char> > >, (std::__ndk1::__variant_detail::_Trait)1>, std::__ndk1::__variant_detail::__base<(std::__ndk1::__variant_detail::__traits<geode::Hook*, std::__ndk1::basic_string<char, std::__ndk1::char_traits<char>, std::__ndk1::allocator<char> > >)1, geode::Hook, std::__ndk1::allocator<char> >&)
PUBLIC 51848 0 std::__ndk1::__variant_detail::__visitation::__base::__dispatcher<(unsigned long)1>::__dispatch[abi:ne190000]<std::__ndk1::__variant_detail::__dtor<std::__ndk1::__variant_detail::__traits<geode::Hook*, std::__ndk1::basic_string<char, std::__ndk1::char_traits<char>, std::__ndk1::allocator<char> > >, (std::__ndk1::__variant_detail::_Trait)1>::__destroy[abi:ne190000]()::{lambda(auto:1&)#1}, std::__ndk1::__variant_detail::__base<(std::__ndk1::__variant_detail::__traits<geode::Hook*, std::__ndk1::basic_string<char, std::__ndk1::char_traits<char>, std::__ndk1::allocator<char> > >)1, geode::Hook, std::__ndk1::allocator<char> >&>(std::__ndk1::__variant_detail::__dtor<std::__ndk1::__variant_detail::__traits<geode::Hook*, std::__ndk1::basic_string<char, std::__ndk1::char_traits<char>, std::__ndk1::allocator<char> > >, (std::__ndk1::__variant_detail::_Trait)1>, std::__ndk1::__variant_detail::__base<(std::__ndk1::__variant_detail::__traits<geode::Hook*, std::__ndk1::basic_string<char, std::__ndk1::char_traits<char>, std::__ndk1::allocator<char> > >)1, geode::Hook, std::__ndk1::allocator<char> >&)
PUBLIC 5185c 0 std::__ndk1::__tree<std::__ndk1::__value_type<std::__ndk1::basic_string<char, std::__ndk1::char_traits<char>, std::__ndk1::allocator<char> >, std::__ndk1::shared_ptr<geode::Hook> >, std::__ndk1::__map_value_compare<std::__ndk1::basic_string<char, std::__ndk1::char_traits<char>, std::__ndk1::allocator<char> >, std::__ndk1::__value_type<std::__ndk1::basic_string<char, std::__ndk1::char_traits<char>, std::__ndk1::allocator<char> >, std::__ndk1::shared_ptr<geode::Hook> >, std::__ndk1::less<std::__ndk1::basic_string<char, std::__ndk1::char_traits<char>, std::__ndk1::allocator<char> > >, true>, std::__ndk1::allocator<std::__ndk1::__value_type<std::__ndk1::basic_string<char, std::__ndk1::char_traits<char>, std::__ndk1::allocator<char> >, std::__ndk1::shared_ptr<geode::Hook> > > >::find<std::__ndk1::basic_string<char, std::__ndk1::char_traits<char>, std::__ndk1::allocator<char> > >(std::__ndk1::basic_string<char, std::__ndk1::char_traits<char>, std::__ndk1::allocator<char> > const&)
PUBLIC 51984 0 std::__ndk1::__tree<std::__ndk1::__value_type<std::__ndk1::basic_string<char, std::__ndk1::char_traits<char>, std::__ndk1::allocator<char> >, std::__ndk1::shared_ptr<geode::Hook> >, std::__ndk1::__map_value_compare<std::__ndk1::basic_string<char, std::__ndk1::char_traits<char>, std::__ndk1::allocator<char> >, std::__ndk1::__value_type<std::__ndk1::basic_string<char, std::__ndk1::char_traits<char>, std::__ndk1::allocator<char> >, std::__ndk1::shared_ptr<geode::Hook> >, std::__ndk1::less<std::__ndk1::basic_string<char, std::__ndk1::char_traits<char>, std::__ndk1::allocator<char> > >, true>, std::__ndk1::allocator<std::__ndk1::__value_type<std::__ndk1::basic_string<char, std::__ndk1::char_traits<char>, std::__ndk1::allocator<char> >, std::__ndk1::shared_ptr<geode::Hook> > > >::erase(std::__ndk1::__tree_const_iterator<std::__ndk1::__value_type<std::__ndk1::basic_string<char, std::__ndk1::char_traits<char>, std::__ndk1::allocator<char> >, std::__ndk1::shared_ptr<geode::Hook> >, std::__ndk1::__tree_node<std::__ndk1::__value_type<std::__ndk1::basic_string<char, std::__ndk1::char_traits<char>, std::__ndk1::allocator<char> >, std::__ndk1::shared_ptr<geode::Hook> >, void*>*, long>)
PUBLIC 51e28 0 std::__ndk1::__tree<std::__ndk1::__value_type<std::__ndk1::basic_string<char, std::__ndk1::char_traits<char>, std::__ndk1::allocator<char> >, std::__ndk1::shared_ptr<geode::Hook> >, std::__ndk1::__map_value_compare<std::__ndk1::basic_string<char, std::__ndk1::char_traits<char>, std::__ndk1::allocator<char> >, std::__ndk1::__value_type<std::__ndk1::basic_string<char, std::__ndk1::char_traits<char>, std::__ndk1::allocator<char> >, std::__ndk1::shared_ptr<geode::Hook> >, std::__ndk1::less<std::__ndk1::basic_string<char, std::__ndk1::char_traits<char>, std::__ndk1::allocator<char> > >, true>, std::__ndk1::allocator<std::__ndk1::__value_type<std::__ndk1::basic_string<char, std::__ndk1::char_traits<char>, std::__ndk1::allocator<char> >, std::__ndk1::shared_ptr<geode::Hook> > > >::destroy(std::__ndk1::__tree_node<std::__ndk1::__value_type<std::__ndk1::basic_string<char, std::__ndk1::char_traits<char>, std::__ndk1::allocator<char> >, std::__ndk1::shared_ptr<geode::Hook> >, void*>*)
PUBLIC 51eac 0 geode::modifier::AsStaticFunction_reloadAllStep5<ClearFontCacheHook, void (ClearFontCacheHook::*)()>::Impl<void (ClearFontCacheHook::*)()>::function(ClearFontCacheHook*)
PUBLIC 51ec0 0 std::__ndk1::shared_ptr<tulip::hook::CallingConvention>::~shared_ptr[abi:ne190000]()
PUBLIC 51f10 0 tulip::hook::HandlerMetadata::~HandlerMetadata()
PUBLIC 51f74 0 std::__ndk1::vector<tulip::hook::AbstractType, std::__ndk1::allocator<tulip::hook::AbstractType> >::__throw_length_error[abi:ne190000]() const
PUBLIC 51f88 0 std::__ndk1::__tree<std::__ndk1::__value_type<std::__ndk1::basic_string<char, std::__ndk1::char_traits<char>, std::__ndk1::allocator<char> >, std::__ndk1::shared_ptr<geode::Hook> >, std::__ndk1::__map_value_compare<std::__ndk1::basic_string<char, std::__ndk1::char_traits<char>, std::__ndk1::allocator<char> >, std::__ndk1::__value_type<std::__ndk1::basic_string<char, std::__ndk1::char_traits<char>, std::__ndk1::allocator<char> >, std::__ndk1::shared_ptr<geode::Hook> >, std::__ndk1::less<std::__ndk1::basic_string<char, std::__ndk1::char_traits<char>, std::__ndk1::allocator<char> > >, true>, std::__ndk1::allocator<std::__ndk1::__value_type<std::__ndk1::basic_string<char, std::__ndk1::char_traits<char>, std::__ndk1::allocator<char> >, std::__ndk1::shared_ptr<geode::Hook> > > >::__emplace_unique_key_args<std::__ndk1::basic_string<char, std::__ndk1::char_traits<char>, std::__ndk1::allocator<char> >, std::__ndk1::piecewise_construct_t const&, std::__ndk1::tuple<std::__ndk1::basic_string<char, std::__ndk1::char_traits<char>, std::__ndk1::allocator<char> >&&>, std::__ndk1::tuple<> >(std::__ndk1::basic_string<char, std::__ndk1::char_traits<char>, std::__ndk1::allocator<char> > const&, std::__ndk1::piecewise_construct_t const&, std::__ndk1::tuple<std::__ndk1::basic_string<char, std::__ndk1::char_traits<char>, std::__ndk1::allocator<char> >&&>, std::__ndk1::tuple<>)
PUBLIC 520f0 0 std::__ndk1::unique_ptr<std::__ndk1::__tree_node<std::__ndk1::__value_type<std::__ndk1::basic_string<char, std::__ndk1::char_traits<char>, std::__ndk1::allocator<char> >, std::__ndk1::shared_ptr<geode::Hook> >, void*>, std::__ndk1::__tree_node_destructor<std::__ndk1::allocator<std::__ndk1::__tree_node<std::__ndk1::__value_type<std::__ndk1::basic_string<char, std::__ndk1::char_traits<char>, std::__ndk1::allocator<char> >, std::__ndk1::shared_ptr<geode::Hook> >, void*> > > >::~unique_ptr[abi:ne190000]()
PUBLIC 5216c 0 std::__ndk1::__tree_balance_after_insert[abi:ne190000]<std::__ndk1::__tree_node_base<void*>*>(std::__ndk1::__tree_node_base<void*>*, std::__ndk1::__tree_node_base<void*>*)
PUBLIC 52314 0 geode::modifier::ModifyDerive<CommentCellHook, CommentCell>::apply()
PUBLIC 52674 0 geode::modifier::ModifyBase<geode::modifier::ModifyDerive<CommentCellHook, CommentCell> >::apply()
PUBLIC 52678 0 _ZN5geode15UnwrapExceptionC2IRNSt6__ndk112basic_stringIcNS2_11char_traitsIcEENS2_9allocatorIcEEEEQsr4implE18IsStringStreamableIT_EEENS_4impl6ErrTagEOSA_
PUBLIC 527e0 0 std::__ndk1::__variant_detail::__visitation::__base::__dispatcher<(unsigned long)0>::__dispatch[abi:ne190000]<std::__ndk1::__variant_detail::__dtor<std::__ndk1::__variant_detail::__traits<std::__ndk1::monostate, std::__ndk1::basic_string<char, std::__ndk1::char_traits<char>, std::__ndk1::allocator<char> > >, (std::__ndk1::__variant_detail::_Trait)1>::__destroy[abi:ne190000]()::{lambda(auto:1&)#1}, std::__ndk1::__variant_detail::__base<(std::__ndk1::__variant_detail::__traits<std::__ndk1::monostate, std::__ndk1::basic_string<char, std::__ndk1::char_traits<char>, std::__ndk1::allocator<char> > >)1, std::__ndk1::__variant_detail::__traits, std::__ndk1::allocator<char> >&>(std::__ndk1::__variant_detail::__dtor<std::__ndk1::__variant_detail::__traits<std::__ndk1::monostate, std::__ndk1::basic_string<char, std::__ndk1::char_traits<char>, std::__ndk1::allocator<char> > >, (std::__ndk1::__variant_detail::_Trait)1>, std::__ndk1::__variant_detail::__base<(std::__ndk1::__variant_detail::__traits<std::__ndk1::monostate, std::__ndk1::basic_string<char, std::__ndk1::char_traits<char>, std::__ndk1::allocator<char> > >)1, std::__ndk1::__variant_detail::__traits, std::__ndk1::allocator<char> >&)
PUBLIC 527e4 0 std::__ndk1::__variant_detail::__visitation::__base::__dispatcher<(unsigned long)1>::__dispatch[abi:ne190000]<std::__ndk1::__variant_detail::__dtor<std::__ndk1::__variant_detail::__traits<std::__ndk1::monostate, std::__ndk1::basic_string<char, std::__ndk1::char_traits<char>, std::__ndk1::allocator<char> > >, (std::__ndk1::__variant_detail::_Trait)1>::__destroy[abi:ne190000]()::{lambda(auto:1&)#1}, std::__ndk1::__variant_detail::__base<(std::__ndk1::__variant_detail::__traits<std::__ndk1::monostate, std::__ndk1::basic_string<char, std::__ndk1::char_traits<char>, std::__ndk1::allocator<char> > >)1, std::__ndk1::__variant_detail::__traits, std::__ndk1::allocator<char> >&>(std::__ndk1::__variant_detail::__dtor<std::__ndk1::__variant_detail::__traits<std::__ndk1::monostate, std::__ndk1::basic_string<char, std::__ndk1::char_traits<char>, std::__ndk1::allocator<char> > >, (std::__ndk1::__variant_detail::_Trait)1>, std::__ndk1::__variant_detail::__base<(std::__ndk1::__variant_detail::__traits<std::__ndk1::monostate, std::__ndk1::basic_string<char, std::__ndk1::char_traits<char>, std::__ndk1::allocator<char> > >)1, std::__ndk1::__variant_detail::__traits, std::__ndk1::allocator<char> >&)
PUBLIC 527f8 0 geode::modifier::AsStaticFunction_loadFromComment<CommentCellHook, void (CommentCellHook::*)(GJComment*)>::Impl<void (CommentCellHook::*)(GJComment*)>::function(CommentCellHook*, GJComment*)
PUBLIC 52e90 0 geode::modifier::ModifyDerive<ShareCommentLayerHook, ShareCommentLayer>::apply()
PUBLIC 53294 0 geode::modifier::ModifyBase<geode::modifier::ModifyDerive<ShareCommentLayerHook, ShareCommentLayer> >::apply()
PUBLIC 53298 0 geode::modifier::AsStaticFunction_init<ShareCommentLayerHook, bool (ShareCommentLayerHook::*)(gd::string, int, CommentType, int, gd::string)>::Impl<bool (ShareCommentLayerHook::*)(gd::string, int, CommentType, int, gd::string)>::function(ShareCommentLayerHook*, gd::string, int, CommentType, int, gd::string)
PUBLIC 5353c 0 geode::cocos::CCMenuItemExt::createSpriteExtra(cocos2d::CCNode*, std::__ndk1::function<void (CCMenuItemSpriteExtra*)>)
PUBLIC 53674 0 geode::cocos::CCMenuItemExt::assignCallback<CCMenuItemSpriteExtra>(cocos2d::CCMenuItem*, std::__ndk1::function<void (CCMenuItemSpriteExtra*)>)
PUBLIC 53808 0 geode::cocos::CCMenuItemExt::LambdaCallback<CCMenuItemSpriteExtra>::create(std::__ndk1::function<void (CCMenuItemSpriteExtra*)>)
PUBLIC 539d0 0 geode::cocos::CCMenuItemExt::LambdaCallback<CCMenuItemSpriteExtra>::execute(cocos2d::CCNode*)
PUBLIC 53a40 0 cocos2d::CCCopying::copyWithZone(cocos2d::CCZone*)
PUBLIC 53a48 0 geode::cocos::CCMenuItemExt::LambdaCallback<CCMenuItemSpriteExtra>::~LambdaCallback()
PUBLIC 53aa4 0 geode::cocos::CCMenuItemExt::LambdaCallback<CCMenuItemSpriteExtra>::~LambdaCallback()
PUBLIC 53b08 0 cocos2d::CCObject::update(float)
PUBLIC 53b0c 0 std::__ndk1::__throw_bad_function_call[abi:ne190000]()
PUBLIC 53b40 0 std::__ndk1::bad_function_call::~bad_function_call()
PUBLIC 53b64 0 std::__ndk1::__function::__base<void (CCMenuItemSpriteExtra*)>::~__base()
PUBLIC 53b68 0 std::__ndk1::__function::__func<ShareCommentLayerHook::init(gd::string, int, CommentType, int, gd::string)::{lambda(auto:1)#1}, std::__ndk1::allocator<ShareCommentLayerHook::init(gd::string, int, CommentType, int, gd::string)::{lambda(auto:1)#1}>, void (CCMenuItemSpriteExtra*)>::~__func()
PUBLIC 53b6c 0 std::__ndk1::__function::__func<ShareCommentLayerHook::init(gd::string, int, CommentType, int, gd::string)::{lambda(auto:1)#1}, std::__ndk1::allocator<ShareCommentLayerHook::init(gd::string, int, CommentType, int, gd::string)::{lambda(auto:1)#1}>, void (CCMenuItemSpriteExtra*)>::__clone() const
PUBLIC 53ba0 0 std::__ndk1::__function::__func<ShareCommentLayerHook::init(gd::string, int, CommentType, int, gd::string)::{lambda(auto:1)#1}, std::__ndk1::allocator<ShareCommentLayerHook::init(gd::string, int, CommentType, int, gd::string)::{lambda(auto:1)#1}>, void (CCMenuItemSpriteExtra*)>::__clone(std::__ndk1::__function::__base<void (CCMenuItemSpriteExtra*)>*) const
PUBLIC 53bb4 0 std::__ndk1::__function::__func<ShareCommentLayerHook::init(gd::string, int, CommentType, int, gd::string)::{lambda(auto:1)#1}, std::__ndk1::allocator<ShareCommentLayerHook::init(gd::string, int, CommentType, int, gd::string)::{lambda(auto:1)#1}>, void (CCMenuItemSpriteExtra*)>::destroy()
PUBLIC 53bb8 0 std::__ndk1::__function::__func<ShareCommentLayerHook::init(gd::string, int, CommentType, int, gd::string)::{lambda(auto:1)#1}, std::__ndk1::allocator<ShareCommentLayerHook::init(gd::string, int, CommentType, int, gd::string)::{lambda(auto:1)#1}>, void (CCMenuItemSpriteExtra*)>::destroy_deallocate()
PUBLIC 53bbc 0 std::__ndk1::__function::__func<ShareCommentLayerHook::init(gd::string, int, CommentType, int, gd::string)::{lambda(auto:1)#1}, std::__ndk1::allocator<ShareCommentLayerHook::init(gd::string, int, CommentType, int, gd::string)::{lambda(auto:1)#1}>, void (CCMenuItemSpriteExtra*)>::operator()(CCMenuItemSpriteExtra*&&)
PUBLIC 53bd8 0 std::__ndk1::__function::__func<ShareCommentLayerHook::init(gd::string, int, CommentType, int, gd::string)::{lambda(auto:1)#1}, std::__ndk1::allocator<ShareCommentLayerHook::init(gd::string, int, CommentType, int, gd::string)::{lambda(auto:1)#1}>, void (CCMenuItemSpriteExtra*)>::target(std::type_info const&) const
PUBLIC 53bf4 0 std::__ndk1::__function::__func<ShareCommentLayerHook::init(gd::string, int, CommentType, int, gd::string)::{lambda(auto:1)#1}, std::__ndk1::allocator<ShareCommentLayerHook::init(gd::string, int, CommentType, int, gd::string)::{lambda(auto:1)#1}>, void (CCMenuItemSpriteExtra*)>::target_type() const
PUBLIC 53c00 0 _GLOBAL__sub_I_main.cpp
PUBLIC 53e74 0 std::__ndk1::unordered_map<std::__ndk1::basic_string<char, std::__ndk1::char_traits<char>, std::__ndk1::allocator<char> >, BMFontConfiguration, std::__ndk1::hash<std::__ndk1::basic_string<char, std::__ndk1::char_traits<char>, std::__ndk1::allocator<char> > >, std::__ndk1::equal_to<std::__ndk1::basic_string<char, std::__ndk1::char_traits<char>, std::__ndk1::allocator<char> > >, std::__ndk1::allocator<std::__ndk1::pair<std::__ndk1::basic_string<char, std::__ndk1::char_traits<char>, std::__ndk1::allocator<char> > const, BMFontConfiguration> > >::~unordered_map[abi:ne190000]()
PUBLIC 53ed8 0 BMFontConfiguration::~BMFontConfiguration()
PUBLIC 53f5c 0 BMFontConfiguration::purgeCachedData()
PUBLIC 54040 0 BMFontConfiguration::initWithContents(std::__ndk1::basic_string<char, std::__ndk1::char_traits<char>, std::__ndk1::allocator<char> > const&, std::__ndk1::basic_string<char, std::__ndk1::char_traits<char>, std::__ndk1::allocator<char> > const&)
PUBLIC 56d4c 0 std::__ndk1::basic_istringstream<char, std::__ndk1::char_traits<char>, std::__ndk1::allocator<char> >::basic_istringstream[abi:ne190000](std::__ndk1::basic_string<char, std::__ndk1::char_traits<char>, std::__ndk1::allocator<char> > const&, unsigned int)
PUBLIC 56ea4 0 std::__ndk1::operator>>[abi:ne190000]<char, std::__ndk1::char_traits<char>, std::__ndk1::allocator<char> >(std::__ndk1::basic_istream<char, std::__ndk1::char_traits<char> >, std::__ndk1::basic_string<std::__ndk1::basic_istream, char, std::__ndk1::allocator<char> >&)
PUBLIC 570fc 0 geode::impl::ResultData<void, std::__ndk1::basic_string<char, std::__ndk1::char_traits<char>, std::__ndk1::allocator<char> > >::~ResultData()
PUBLIC 57170 0 std::__ndk1::basic_istringstream<char, std::__ndk1::char_traits<char>, std::__ndk1::allocator<char> >::~basic_istringstream()
PUBLIC 571ec 0 std::__ndk1::operator>>[abi:ne190000]<char, std::__ndk1::char_traits<char> >(std::__ndk1::basic_istream<char, std::__ndk1::char_traits<char> >, std::__ndk1::basic_istream&)
PUBLIC 57330 0 fastParse<float>(std::__ndk1::basic_string_view<char, std::__ndk1::char_traits<char> >)
PUBLIC 5749c 0 fastParse<unsigned int>(std::__ndk1::basic_string_view<char, std::__ndk1::char_traits<char> >)
PUBLIC 577f8 0 utf8_to_utf32(std::__ndk1::basic_string_view<char, std::__ndk1::char_traits<char> >)
PUBLIC 578d4 0 Label::create(std::__ndk1::basic_string_view<char, std::__ndk1::char_traits<char> >, std::__ndk1::basic_string_view<char, std::__ndk1::char_traits<char> >)
PUBLIC 57a18 0 Label::init(std::__ndk1::basic_string_view<char, std::__ndk1::char_traits<char> >, std::__ndk1::basic_string_view<char, std::__ndk1::char_traits<char> >, BMFontAlignment, float)
PUBLIC 5892c 0 Label::createWrapped(std::__ndk1::basic_string_view<char, std::__ndk1::char_traits<char> >, std::__ndk1::basic_string_view<char, std::__ndk1::char_traits<char> >, float, float)
PUBLIC 58a78 0 Label::setString(std::__ndk1::basic_string_view<char, std::__ndk1::char_traits<char> >)
PUBLIC 58b54 0 Label::updateChars()
PUBLIC 5b3a4 0 Label::enableEmojis(std::__ndk1::basic_string_view<char, std::__ndk1::char_traits<char> >, std::__ndk1::unordered_map<std::__ndk1::basic_string_view<char32_t, std::__ndk1::char_traits<char32_t> >, char const*, std::__ndk1::hash<std::__ndk1::basic_string_view<char32_t, std::__ndk1::char_traits<char32_t> > >, std::__ndk1::equal_to<std::__ndk1::basic_string_view<char32_t, std::__ndk1::char_traits<char32_t> > >, std::__ndk1::allocator<std::__ndk1::pair<std::__ndk1::basic_string_view<char32_t, std::__ndk1::char_traits<char32_t> > const, char const*> > > const*)
PUBLIC 5b508 0 Label::enableCustomNodes(std::__ndk1::unordered_map<std::__ndk1::basic_string_view<char32_t, std::__ndk1::char_traits<char32_t> >, std::__ndk1::function<cocos2d::CCNode* (std::__ndk1::basic_string_view<char32_t, std::__ndk1::char_traits<char32_t> >, unsigned int&)>, std::__ndk1::hash<std::__ndk1::basic_string_view<char32_t, std::__ndk1::char_traits<char32_t> > >, std::__ndk1::equal_to<std::__ndk1::basic_string_view<char32_t, std::__ndk1::char_traits<char32_t> > >, std::__ndk1::allocator<std::__ndk1::pair<std::__ndk1::basic_string_view<char32_t, std::__ndk1::char_traits<char32_t> > const, std::__ndk1::function<cocos2d::CCNode* (std::__ndk1::basic_string_view<char32_t, std::__ndk1::char_traits<char32_t> >, unsigned int&)> > > > const*)
PUBLIC 5b510 0 Label::limitLabelWidth(float, float, float)
PUBLIC 5b550 0 Label::updateAlignment() const
PUBLIC 5b6b0 0 Label::checkForEmoji(std::__ndk1::basic_string_view<char32_t, std::__ndk1::char_traits<char32_t> >, unsigned int&, float, float&, float, float, float&, std::__ndk1::vector<cocos2d::CCNode*, std::__ndk1::allocator<cocos2d::CCNode*> >&, unsigned long&)
PUBLIC 5c130 0 Label::getFontDefForChar(char32_t, BMFontConfiguration const*, float&, unsigned long&, Label::CachedBatch*&, BMFontConfiguration*&)
PUBLIC 5c434 0 Label::CachedBatch::addChild(cocos2d::CCSprite*, int, int)
PUBLIC 5c524 0 std::__ndk1::basic_string<char, std::__ndk1::char_traits<char>, std::__ndk1::allocator<char> >::__assign_external(char const*, unsigned long)
PUBLIC 5c668 0 std::__ndk1::basic_string<char, std::__ndk1::char_traits<char>, std::__ndk1::allocator<char> >::__assign_external(char const*)
PUBLIC 5c69c 0 std::__ndk1::basic_string<char32_t, std::__ndk1::char_traits<char32_t>, std::__ndk1::allocator<char32_t> >::__throw_length_error[abi:ne190000]() const
PUBLIC 5c6b0 0 Label::~Label()
PUBLIC 5c818 0 Label::~Label()
PUBLIC 5c83c 0 Label::setColor(cocos2d::_ccColor3B const&)
PUBLIC 5c918 0 Label::setOpacity(unsigned char)
PUBLIC 5c96c 0 Label::getColor()
PUBLIC 5c974 0 Label::getDisplayedColor()
PUBLIC 5c97c 0 Label::getDisplayedOpacity()
PUBLIC 5c984 0 Label::getOpacity()
PUBLIC 5c98c 0 Label::setOpacityModifyRGB(bool)
PUBLIC 5c994 0 Label::isOpacityModifyRGB()
PUBLIC 5c99c 0 Label::isCascadeColorEnabled()
PUBLIC 5c9a4 0 Label::setCascadeColorEnabled(bool)
PUBLIC 5c9a8 0 Label::updateDisplayedColor(cocos2d::_ccColor3B const&)
PUBLIC 5c9ac 0 Label::isCascadeOpacityEnabled()
PUBLIC 5c9b4 0 Label::setCascadeOpacityEnabled(bool)
PUBLIC 5c9b8 0 Label::updateDisplayedOpacity(unsigned char)
PUBLIC 5c9bc 0 Label::setString(char const*)
PUBLIC 5c9f0 0 Label::getString()
PUBLIC 5ca08 0 {virtual override thunk({offset(-320)}, Label::setColor(cocos2d::_ccColor3B const&))}
PUBLIC 5caec 0 {virtual override thunk({offset(-320)}, Label::getColor())}
PUBLIC 5caf4 0 {virtual override thunk({offset(-320)}, Label::getDisplayedColor())}
PUBLIC 5cafc 0 {virtual override thunk({offset(-320)}, Label::getDisplayedOpacity())}
PUBLIC 5cb04 0 {virtual override thunk({offset(-320)}, Label::getOpacity())}
PUBLIC 5cb0c 0 {virtual override thunk({offset(-320)}, Label::setOpacity(unsigned char))}
PUBLIC 5cb5c 0 {virtual override thunk({offset(-320)}, Label::setOpacityModifyRGB(bool))}
PUBLIC 5cb64 0 {virtual override thunk({offset(-320)}, Label::isOpacityModifyRGB())}
PUBLIC 5cb6c 0 {virtual override thunk({offset(-320)}, Label::isCascadeColorEnabled())}
PUBLIC 5cb74 0 {virtual override thunk({offset(-320)}, Label::setCascadeColorEnabled(bool))}
PUBLIC 5cb78 0 {virtual override thunk({offset(-320)}, Label::updateDisplayedColor(cocos2d::_ccColor3B const&))}
PUBLIC 5cb7c 0 {virtual override thunk({offset(-320)}, Label::isCascadeOpacityEnabled())}
PUBLIC 5cb84 0 {virtual override thunk({offset(-320)}, Label::setCascadeOpacityEnabled(bool))}
PUBLIC 5cb88 0 {virtual override thunk({offset(-320)}, Label::updateDisplayedOpacity(unsigned char))}
PUBLIC 5cb8c 0 {virtual override thunk({offset(-328)}, Label::setString(char const*))}
PUBLIC 5cbc0 0 {virtual override thunk({offset(-328)}, Label::getString())}
PUBLIC 5cbd8 0 std::__ndk1::vector<std::__ndk1::basic_string_view<char32_t, std::__ndk1::char_traits<char32_t> >, std::__ndk1::allocator<std::__ndk1::basic_string_view<char32_t, std::__ndk1::char_traits<char32_t> > > >::__throw_length_error[abi:ne190000]() const
PUBLIC 5cbec 0 std::__ndk1::vector<std::__ndk1::vector<std::__ndk1::basic_string_view<char32_t, std::__ndk1::char_traits<char32_t> >, std::__ndk1::allocator<std::__ndk1::basic_string_view<char32_t, std::__ndk1::char_traits<char32_t> > > >, std::__ndk1::allocator<std::__ndk1::vector<std::__ndk1::basic_string_view<char32_t, std::__ndk1::char_traits<char32_t> >, std::__ndk1::allocator<std::__ndk1::basic_string_view<char32_t, std::__ndk1::char_traits<char32_t> > > > > >::__push_back_slow_path<std::__ndk1::vector<std::__ndk1::basic_string_view<char32_t, std::__ndk1::char_traits<char32_t> >, std::__ndk1::allocator<std::__ndk1::basic_string_view<char32_t, std::__ndk1::char_traits<char32_t> > > > >(std::__ndk1::vector<std::__ndk1::basic_string_view<char32_t, std::__ndk1::char_traits<char32_t> >, std::__ndk1::allocator<std::__ndk1::basic_string_view<char32_t, std::__ndk1::char_traits<char32_t> > > >&&)
PUBLIC 5cd74 0 std::__ndk1::vector<std::__ndk1::vector<std::__ndk1::basic_string_view<char32_t, std::__ndk1::char_traits<char32_t> >, std::__ndk1::allocator<std::__ndk1::basic_string_view<char32_t, std::__ndk1::char_traits<char32_t> > > >, std::__ndk1::allocator<std::__ndk1::vector<std::__ndk1::basic_string_view<char32_t, std::__ndk1::char_traits<char32_t> >, std::__ndk1::allocator<std::__ndk1::basic_string_view<char32_t, std::__ndk1::char_traits<char32_t> > > > > >::__throw_length_error[abi:ne190000]() const
PUBLIC 5cd88 0 std::__ndk1::vector<cocos2d::CCSprite*, std::__ndk1::allocator<cocos2d::CCSprite*> >::__throw_length_error[abi:ne190000]() const
PUBLIC 5cd9c 0 std::__ndk1::vector<unsigned long, std::__ndk1::allocator<unsigned long> >::__throw_length_error[abi:ne190000]() const
PUBLIC 5cdb0 0 std::__ndk1::vector<cocos2d::CCNode*, std::__ndk1::allocator<cocos2d::CCNode*> >::__throw_length_error[abi:ne190000]() const
PUBLIC 5cdc4 0 std::__ndk1::vector<Label::updateCharsWrapped()::Word, std::__ndk1::allocator<Label::updateCharsWrapped()::Word> >::__throw_length_error[abi:ne190000]() const
PUBLIC 5cdd8 0 std::__ndk1::vector<std::__ndk1::vector<Label::updateCharsWrapped()::Word, std::__ndk1::allocator<Label::updateCharsWrapped()::Word> >, std::__ndk1::allocator<std::__ndk1::vector<Label::updateCharsWrapped()::Word, std::__ndk1::allocator<Label::updateCharsWrapped()::Word> > > >::__throw_length_error[abi:ne190000]() const
PUBLIC 5cdec 0 std::__ndk1::vector<std::__ndk1::vector<cocos2d::CCNode*, std::__ndk1::allocator<cocos2d::CCNode*> >, std::__ndk1::allocator<std::__ndk1::vector<cocos2d::CCNode*, std::__ndk1::allocator<cocos2d::CCNode*> > > >::__push_back_slow_path<std::__ndk1::vector<cocos2d::CCNode*, std::__ndk1::allocator<cocos2d::CCNode*> > >(std::__ndk1::vector<cocos2d::CCNode*, std::__ndk1::allocator<cocos2d::CCNode*> >&&)
PUBLIC 5cf74 0 std::__ndk1::vector<std::__ndk1::vector<cocos2d::CCNode*, std::__ndk1::allocator<cocos2d::CCNode*> >, std::__ndk1::allocator<std::__ndk1::vector<cocos2d::CCNode*, std::__ndk1::allocator<cocos2d::CCNode*> > > >::__throw_length_error[abi:ne190000]() const
PUBLIC 5cf88 0 std::__ndk1::pair<std::__ndk1::basic_string<char, std::__ndk1::char_traits<char>, std::__ndk1::allocator<char> > const, BMFontConfiguration>::~pair()
PUBLIC 5d01c 0 std::__ndk1::unique_ptr<std::__ndk1::__hash_node<std::__ndk1::__hash_value_type<std::__ndk1::basic_string<char, std::__ndk1::char_traits<char>, std::__ndk1::allocator<char> >, BMFontConfiguration>, void*>, std::__ndk1::__hash_node_destructor<std::__ndk1::allocator<std::__ndk1::__hash_node<std::__ndk1::__hash_value_type<std::__ndk1::basic_string<char, std::__ndk1::char_traits<char>, std::__ndk1::allocator<char> >, BMFontConfiguration>, void*> > > >::~unique_ptr[abi:ne190000]()
PUBLIC 5d060 0 std::__ndk1::basic_string<char, std::__ndk1::char_traits<char>, std::__ndk1::allocator<char> >::__assign_no_alias<true>(char const*, unsigned long)
PUBLIC 5d10c 0 std::__ndk1::__variant_detail::__visitation::__base::__dispatcher<(unsigned long)0>::__dispatch[abi:ne190000]<std::__ndk1::__variant_detail::__dtor<std::__ndk1::__variant_detail::__traits<float, std::__ndk1::basic_string<char, std::__ndk1::char_traits<char>, std::__ndk1::allocator<char> > >, (std::__ndk1::__variant_detail::_Trait)1>::__destroy[abi:ne190000]()::{lambda(auto:1&)#1}, std::__ndk1::__variant_detail::__base<(std::__ndk1::__variant_detail::__traits<float, std::__ndk1::basic_string<char, std::__ndk1::char_traits<char>, std::__ndk1::allocator<char> > >)1, float, std::__ndk1::allocator<char> >&>(std::__ndk1::__variant_detail::__dtor<std::__ndk1::__variant_detail::__traits<float, std::__ndk1::basic_string<char, std::__ndk1::char_traits<char>, std::__ndk1::allocator<char> > >, (std::__ndk1::__variant_detail::_Trait)1>, std::__ndk1::__variant_detail::__base<(std::__ndk1::__variant_detail::__traits<float, std::__ndk1::basic_string<char, std::__ndk1::char_traits<char>, std::__ndk1::allocator<char> > >)1, float, std::__ndk1::allocator<char> >&)
PUBLIC 5d110 0 std::__ndk1::__variant_detail::__visitation::__base::__dispatcher<(unsigned long)1>::__dispatch[abi:ne190000]<std::__ndk1::__variant_detail::__dtor<std::__ndk1::__variant_detail::__traits<float, std::__ndk1::basic_string<char, std::__ndk1::char_traits<char>, std::__ndk1::allocator<char> > >, (std::__ndk1::__variant_detail::_Trait)1>::__destroy[abi:ne190000]()::{lambda(auto:1&)#1}, std::__ndk1::__variant_detail::__base<(std::__ndk1::__variant_detail::__traits<float, std::__ndk1::basic_string<char, std::__ndk1::char_traits<char>, std::__ndk1::allocator<char> > >)1, float, std::__ndk1::allocator<char> >&>(std::__ndk1::__variant_detail::__dtor<std::__ndk1::__variant_detail::__traits<float, std::__ndk1::basic_string<char, std::__ndk1::char_traits<char>, std::__ndk1::allocator<char> > >, (std::__ndk1::__variant_detail::_Trait)1>, std::__ndk1::__variant_detail::__base<(std::__ndk1::__variant_detail::__traits<float, std::__ndk1::basic_string<char, std::__ndk1::char_traits<char>, std::__ndk1::allocator<char> > >)1, float, std::__ndk1::allocator<char> >&)
PUBLIC 5d124 0 geode::utils::numFromString<int>(std::__ndk1::basic_string_view<char, std::__ndk1::char_traits<char> >, int)
PUBLIC 5d4e0 0 std::__ndk1::__variant_detail::__visitation::__base::__dispatcher<(unsigned long)0>::__dispatch[abi:ne190000]<std::__ndk1::__variant_detail::__dtor<std::__ndk1::__variant_detail::__traits<int, std::__ndk1::basic_string<char, std::__ndk1::char_traits<char>, std::__ndk1::allocator<char> > >, (std::__ndk1::__variant_detail::_Trait)1>::__destroy[abi:ne190000]()::{lambda(auto:1&)#1}, std::__ndk1::__variant_detail::__base<(std::__ndk1::__variant_detail::__traits<int, std::__ndk1::basic_string<char, std::__ndk1::char_traits<char>, std::__ndk1::allocator<char> > >)1, int, std::__ndk1::allocator<char> >&>(std::__ndk1::__variant_detail::__dtor<std::__ndk1::__variant_detail::__traits<int, std::__ndk1::basic_string<char, std::__ndk1::char_traits<char>, std::__ndk1::allocator<char> > >, (std::__ndk1::__variant_detail::_Trait)1>, std::__ndk1::__variant_detail::__base<(std::__ndk1::__variant_detail::__traits<int, std::__ndk1::basic_string<char, std::__ndk1::char_traits<char>, std::__ndk1::allocator<char> > >)1, int, std::__ndk1::allocator<char> >&)
PUBLIC 5d4e4 0 std::__ndk1::__variant_detail::__visitation::__base::__dispatcher<(unsigned long)1>::__dispatch[abi:ne190000]<std::__ndk1::__variant_detail::__dtor<std::__ndk1::__variant_detail::__traits<int, std::__ndk1::basic_string<char, std::__ndk1::char_traits<char>, std::__ndk1::allocator<char> > >, (std::__ndk1::__variant_detail::_Trait)1>::__destroy[abi:ne190000]()::{lambda(auto:1&)#1}, std::__ndk1::__variant_detail::__base<(std::__ndk1::__variant_detail::__traits<int, std::__ndk1::basic_string<char, std::__ndk1::char_traits<char>, std::__ndk1::allocator<char> > >)1, int, std::__ndk1::allocator<char> >&>(std::__ndk1::__variant_detail::__dtor<std::__ndk1::__variant_detail::__traits<int, std::__ndk1::basic_string<char, std::__ndk1::char_traits<char>, std::__ndk1::allocator<char> > >, (std::__ndk1::__variant_detail::_Trait)1>, std::__ndk1::__variant_detail::__base<(std::__ndk1::__variant_detail::__traits<int, std::__ndk1::basic_string<char, std::__ndk1::char_traits<char>, std::__ndk1::allocator<char> > >)1, int, std::__ndk1::allocator<char> >&)
PUBLIC 5d4f8 0 std::__ndk1::__variant_detail::__visitation::__base::__dispatcher<(unsigned long)0>::__dispatch[abi:ne190000]<std::__ndk1::__variant_detail::__dtor<std::__ndk1::__variant_detail::__traits<unsigned int, std::__ndk1::basic_string<char, std::__ndk1::char_traits<char>, std::__ndk1::allocator<char> > >, (std::__ndk1::__variant_detail::_Trait)1>::__destroy[abi:ne190000]()::{lambda(auto:1&)#1}, std::__ndk1::__variant_detail::__base<(std::__ndk1::__variant_detail::__traits<unsigned int, std::__ndk1::basic_string<char, std::__ndk1::char_traits<char>, std::__ndk1::allocator<char> > >)1, unsigned int, std::__ndk1::allocator<char> >&>(std::__ndk1::__variant_detail::__dtor<std::__ndk1::__variant_detail::__traits<unsigned int, std::__ndk1::basic_string<char, std::__ndk1::char_traits<char>, std::__ndk1::allocator<char> > >, (std::__ndk1::__variant_detail::_Trait)1>, std::__ndk1::__variant_detail::__base<(std::__ndk1::__variant_detail::__traits<unsigned int, std::__ndk1::basic_string<char, std::__ndk1::char_traits<char>, std::__ndk1::allocator<char> > >)1, unsigned int, std::__ndk1::allocator<char> >&)
PUBLIC 5d4fc 0 std::__ndk1::__variant_detail::__visitation::__base::__dispatcher<(unsigned long)1>::__dispatch[abi:ne190000]<std::__ndk1::__variant_detail::__dtor<std::__ndk1::__variant_detail::__traits<unsigned int, std::__ndk1::basic_string<char, std::__ndk1::char_traits<char>, std::__ndk1::allocator<char> > >, (std::__ndk1::__variant_detail::_Trait)1>::__destroy[abi:ne190000]()::{lambda(auto:1&)#1}, std::__ndk1::__variant_detail::__base<(std::__ndk1::__variant_detail::__traits<unsigned int, std::__ndk1::basic_string<char, std::__ndk1::char_traits<char>, std::__ndk1::allocator<char> > >)1, unsigned int, std::__ndk1::allocator<char> >&>(std::__ndk1::__variant_detail::__dtor<std::__ndk1::__variant_detail::__traits<unsigned int, std::__ndk1::basic_string<char, std::__ndk1::char_traits<char>, std::__ndk1::allocator<char> > >, (std::__ndk1::__variant_detail::_Trait)1>, std::__ndk1::__variant_detail::__base<(std::__ndk1::__variant_detail::__traits<unsigned int, std::__ndk1::basic_string<char, std::__ndk1::char_traits<char>, std::__ndk1::allocator<char> > >)1, unsigned int, std::__ndk1::allocator<char> >&)
PUBLIC 5d510 0 std::__ndk1::__hash_table<std::__ndk1::__hash_value_type<std::__ndk1::basic_string_view<char32_t, std::__ndk1::char_traits<char32_t> >, char const*>, std::__ndk1::__unordered_map_hasher<std::__ndk1::basic_string_view<char32_t, std::__ndk1::char_traits<char32_t> >, std::__ndk1::__hash_value_type<std::__ndk1::basic_string_view<char32_t, std::__ndk1::char_traits<char32_t> >, char const*>, std::__ndk1::hash<std::__ndk1::basic_string_view<char32_t, std::__ndk1::char_traits<char32_t> > >, std::__ndk1::equal_to<std::__ndk1::basic_string_view<char32_t, std::__ndk1::char_traits<char32_t> > >, true>, std::__ndk1::__unordered_map_equal<std::__ndk1::basic_string_view<char32_t, std::__ndk1::char_traits<char32_t> >, std::__ndk1::__hash_value_type<std::__ndk1::basic_string_view<char32_t, std::__ndk1::char_traits<char32_t> >, char const*>, std::__ndk1::equal_to<std::__ndk1::basic_string_view<char32_t, std::__ndk1::char_traits<char32_t> > >, std::__ndk1::hash<std::__ndk1::basic_string_view<char32_t, std::__ndk1::char_traits<char32_t> > >, true>, std::__ndk1::allocator<std::__ndk1::__hash_value_type<std::__ndk1::basic_string_view<char32_t, std::__ndk1::char_traits<char32_t> >, char const*> > >::find<std::__ndk1::basic_string_view<char32_t, std::__ndk1::char_traits<char32_t> > >(std::__ndk1::basic_string_view<char32_t, std::__ndk1::char_traits<char32_t> > const&) const
PUBLIC 5d734 0 FrameAnimation::create(char const*, unsigned long, float)
PUBLIC 5d81c 0 FrameAnimation::init(char const*, unsigned long, float)
PUBLIC 5daac 0 FrameAnimation::update(float)
PUBLIC 5db18 0 FrameAnimation::~FrameAnimation()
PUBLIC 5db74 0 FrameAnimation::~FrameAnimation()
PUBLIC 5dbd8 0 cocos2d::CCSprite::setBlendFunc(cocos2d::_ccBlendFunc)
PUBLIC 5dbe4 0 cocos2d::CCSprite::getBlendFunc()
PUBLIC 5dbf0 0 cocos2d::CCSprite::isDirty()
PUBLIC 5dbf8 0 cocos2d::CCSprite::setDirty(bool)
PUBLIC 5dc00 0 {virtual override thunk({offset(-344)}, cocos2d::CCSprite::setBlendFunc(cocos2d::_ccBlendFunc))}
PUBLIC 5dc08 0 {virtual override thunk({offset(-344)}, cocos2d::CCSprite::getBlendFunc())}
PUBLIC 5dc10 0 std::__ndk1::vector<cocos2d::CCSpriteFrame*, std::__ndk1::allocator<cocos2d::CCSpriteFrame*> >::__throw_length_error[abi:ne190000]() const
PUBLIC 5dc24 0 geode::listenForSettingChanges<long, getUIScale()::$_0>(std::__ndk1::basic_string_view<char, std::__ndk1::char_traits<char> >, getUIScale()::$_0&&, geode::Mod*)
PUBLIC 5de80 0 geode::Mod::get<void>()
PUBLIC 5debc 0 geode::Mod::getSettingValue<long>(std::__ndk1::basic_string_view<char, std::__ndk1::char_traits<char> >) const
PUBLIC 5dfd0 0 EmojiPicker::create(CCTextInputNode*)
PUBLIC 5e164 0 geode::Popup<CCTextInputNode*>::~Popup()
PUBLIC 5e1d0 0 EmojiPicker::setup(CCTextInputNode*)
PUBLIC 5e960 0 EmojiPicker::recreateGroups() const
PUBLIC 60274 0 EmojiPicker::createEmojiSprite(std::__ndk1::basic_string_view<char, std::__ndk1::char_traits<char> >)
PUBLIC 60754 0 geode::cocos::CCArrayExt<cocos2d::CCNode*, cocos2d::CCNode>::~CCArrayExt()
PUBLIC 60770 0 EmojiPicker::getEmojiCategories()::$_0::operator()() const
PUBLIC 6090c 0 std::__ndk1::vector<EmojiCategory, std::__ndk1::allocator<EmojiCategory> >::~vector[abi:ne190000]()
PUBLIC 609dc 0 EmojiPicker::getFavoriteEmojis()
PUBLIC 60c5c 0 geode::Mod::getSavedValue<std::__ndk1::map<std::__ndk1::basic_string<char, std::__ndk1::char_traits<char>, std::__ndk1::allocator<char> >, unsigned long, std::__ndk1::less<std::__ndk1::basic_string<char, std::__ndk1::char_traits<char>, std::__ndk1::allocator<char> > >, std::__ndk1::allocator<std::__ndk1::pair<std::__ndk1::basic_string<char, std::__ndk1::char_traits<char>, std::__ndk1::allocator<char> > const, unsigned long> > > >(std::__ndk1::basic_string_view<char, std::__ndk1::char_traits<char> >, std::__ndk1::map<std::__ndk1::basic_string<char, std::__ndk1::char_traits<char>, std::__ndk1::allocator<char> >, unsigned long, std::__ndk1::less<std::__ndk1::basic_string<char, std::__ndk1::char_traits<char>, std::__ndk1::allocator<char> > >, std::__ndk1::allocator<std::__ndk1::pair<std::__ndk1::basic_string<char, std::__ndk1::char_traits<char>, std::__ndk1::allocator<char> > const, unsigned long> > > const&)
PUBLIC 60f7c 0 std::__ndk1::vector<std::__ndk1::pair<std::__ndk1::basic_string<char, std::__ndk1::char_traits<char>, std::__ndk1::allocator<char> >, unsigned long>, std::__ndk1::allocator<std::__ndk1::pair<std::__ndk1::basic_string<char, std::__ndk1::char_traits<char>, std::__ndk1::allocator<char> >, unsigned long> > >::~vector[abi:ne190000]()
PUBLIC 60ff8 0 EmojiPicker::updateScrollLayer() const
PUBLIC 6113c 0 EmojiPicker::beginClose()
PUBLIC 61238 0 cocos2d::CCSequence::create(cocos2d::CCFiniteTimeAction*, ...)
PUBLIC 612d0 0 EmojiPicker::endClose()
PUBLIC 612d8 0 EmojiPicker::ccTouchBegan(cocos2d::CCTouch*, cocos2d::CCEvent*)
PUBLIC 61390 0 {virtual override thunk({offset(-320)}, EmojiPicker::ccTouchBegan(cocos2d::CCTouch*, cocos2d::CCEvent*))}
PUBLIC 61458 0 EmojiPicker::~EmojiPicker()
PUBLIC 614cc 0 geode::Popup<CCTextInputNode*>::registerWithTouchDispatcher()
PUBLIC 614f8 0 geode::Popup<CCTextInputNode*>::keyDown(cocos2d::enumKeyCodes)
PUBLIC 61520 0 cocos2d::CCLayerRGBA::setOpacityModifyRGB(bool)
PUBLIC 61524 0 cocos2d::CCLayerRGBA::isOpacityModifyRGB()
PUBLIC 6152c 0 geode::Popup<CCTextInputNode*>::onClose(cocos2d::CCObject*)
PUBLIC 61660 0 {virtual override thunk({offset(-320)}, EmojiPicker::~EmojiPicker())}
PUBLIC 616cc 0 {virtual override thunk({offset(-320)}, EmojiPicker::~EmojiPicker())}
PUBLIC 61740 0 {virtual override thunk({offset(-344)}, geode::Popup<CCTextInputNode*>::keyDown(cocos2d::enumKeyCodes))}
PUBLIC 6176c 0 cocos2d::CCKeyboardDelegate::keyUp(cocos2d::enumKeyCodes)
PUBLIC 61770 0 cocos2d::CCMouseDelegate::rightKeyDown()
PUBLIC 61774 0 cocos2d::CCMouseDelegate::rightKeyUp()
PUBLIC 61778 0 cocos2d::CCMouseDelegate::scrollWheel(float, float)
PUBLIC 6177c 0 {virtual override thunk({offset(-408)}, cocos2d::CCLayerRGBA::setOpacityModifyRGB(bool))}
PUBLIC 61780 0 {virtual override thunk({offset(-408)}, cocos2d::CCLayerRGBA::isOpacityModifyRGB())}
PUBLIC 61788 0 geode::Popup<CCTextInputNode*>::~Popup()
PUBLIC 6178c 0 {virtual override thunk({offset(-320)}, geode::Popup<CCTextInputNode*>::~Popup())}
PUBLIC 617f8 0 {virtual override thunk({offset(-320)}, geode::Popup<CCTextInputNode*>::~Popup())}
PUBLIC 617fc 0 ProxyNode::~ProxyNode()
PUBLIC 6182c 0 ProxyNode::~ProxyNode()
PUBLIC 61864 0 ProxyNode::draw()
PUBLIC 61954 0 ProxyNode::visit()
PUBLIC 619a0 0 EmojiCategory::~EmojiCategory()
PUBLIC 61a1c 0 _Z21PopulateCategoryInfosILm0ENSt6__ndk15tupleIJ10EmojiGroupIXtl13StringLiteralILm14EEtlA14_cLc71ELc101ELc111ELc109ELc101ELc116ELc114ELc121ELc32ELc68ELc97ELc115ELc104EEEEXtlS3_ILm7EEtlA7_cLc58ELc101ELc97ELc115ELc121ELc58EEEEJ7UnimojiIXtlS3_ILm3EEtlA3_cLc110ELc97EEEELDi114688ELm0ELm0ELb0EES8_IXtlS3_ILm5EEtlA5_cLc97ELc117ELc116ELc111EEEELDi114689ELm0ELm0ELb0EES8_IXtlSC_tlSD_Lc101ELc97ELc115ELc121EEEELDi114690ELm0ELm0ELb0EES8_IXtlS6_tlS7_Lc110ELc111ELc114ELc109ELc97ELc108EEEELDi114691ELm0ELm0ELb0EES8_IXtlSC_tlSD_Lc104ELc97ELc114ELc100EEEELDi114692ELm0ELm0ELb0EES8_IXtlS6_tlS7_Lc104ELc97ELc114ELc100ELc101ELc114EEEELDi114693ELm0ELm0ELb0EES8_IXtlS6_tlS7_Lc105ELc110ELc115ELc97ELc110ELc101EEEELDi114694ELm0ELm0ELb0EES8_IXtlS3_ILm10EEtlA10_cLc101ELc97ELc115ELc121ELc100ELc101ELc109ELc111ELc110EEEELDi114695ELm0ELm0ELb0EES8_IXtlS3_ILm12EEtlA12_cLc109ELc101ELc100ELc105ELc117ELc109ELc100ELc101ELc109ELc111ELc110EEEELDi114696ELm0ELm0ELb0EES8_IXtlSK_tlSL_Lc104ELc97ELc114ELc100ELc100ELc101ELc109ELc111ELc110EEEELDi114697ELm0ELm0ELb0EES8_IXtlSN_tlSO_Lc105ELc110ELc115ELc97ELc110ELc101ELc100ELc101ELc109ELc111ELc110EEEELDi114698ELm0ELm0ELb0EES8_IXtlS3_ILm13EEtlA13_cLc101ELc120ELc116ELc114ELc101ELc109ELc101ELc100ELc101ELc109ELc111ELc110EEEELDi114699ELm0ELm0ELb0EES8_IXtlS6_tlS7_Lc99ELc97ELc115ELc117ELc97ELc108EEEELDi114700ELm0ELm0ELb0EES8_IXtlS3_ILm6EEtlA6_cLc116ELc111ELc117ELc103ELc104EEEELDi114701ELm0ELm0ELb0EES8_IXtlSW_tlSX_Lc99ELc114ELc117ELc101ELc108EEEELDi114702ELm0ELm0ELb0EES8_IXtlSW_tlSX_Lc99ELc114ELc101ELc117ELc108EEEELDi114702ELm0ELm0ELb1EES8_IXtlS3_ILm4EEtlA4_cLc111ELc114ELc98EEEELDi114704ELm0ELm0ELb0EES8_IXtlSC_tlSD_Lc111ELc114ELc98ELc115EEEELDi114705ELm0ELm0ELb0EES8_IXtlS3_ILm8EEtlA8_cLc100ELc105ELc97ELc109ELc111ELc110ELc100EEEELDi114706ELm0ELm0ELb0EES8_IXtlS3_ILm9EEtlA9_cLc100ELc105ELc97ELc109ELc111ELc110ELc100ELc115EEEELDi114707ELm0ELm0ELb0EES8_IXtlS6_tlS7_Lc108ELc111ELc99ELc107ELc101ELc100EEEELDi114714ELm0ELm0ELb0EES8_IXtlS3_ILm11EEtlA11_cLc108ELc111ELc99ELc107ELc101ELc100ELc103ELc114ELc97ELc121EEEELDi114715ELm0ELm0ELb0EES8_IXtlS18_tlS19_Lc117ELc110ELc108ELc111ELc99ELc107ELc101ELc100EEEELDi114716ELm0ELm0ELb0EES8_IXtlS18_tlS19_Lc103ELc111ELc108ELc100ELc99ELc111ELc105ELc110EEEELDi114720ELm0ELm0ELb0EES8_IXtlS3_ILm20EEtlA20_cLc117ELc110ELc99ELc111ELc108ELc108ELc101ELc99ELc116ELc101ELc100ELc117ELc115ELc101ELc114ELc99ELc111ELc105ELc110EEEELDi114721ELm0ELm0ELb0EES8_IXtlS3_ILm19EEtlA19_cLc117ELc115ELc101ELc114ELc99ELc111ELc105ELc110ELc117ELc110ELc118ELc101ELc114ELc105ELc102ELc105ELc101ELc100EEEELDi114722ELm0ELm0ELb0EES8_IXtlS18_tlS19_Lc117ELc115ELc101ELc114ELc99ELc111ELc105ELc110EEEELDi114723ELm0ELm0ELb0EES8_IXtlS6_tlS7_Lc112ELc111ELc105ELc110ELc116ELc115EEEELDi114724ELm0ELm0ELb0EES8_IXtlS11_tlS12_Lc109ELc111ELc100EEEELDi114730ELm0ELm0ELb0EES8_IXtlS18_tlS19_Lc101ELc108ELc100ELc101ELc114ELc109ELc111ELc100EEEELDi114731ELm0ELm0ELb0EES8_IXtlS3_ILm15EEtlA15_cLc108ELc101ELc97ELc100ELc101ELc114ELc98ELc111ELc97ELc114ELc100ELc109ELc111ELc100EEEELDi114732ELm0ELm0ELb0EE11UnimojiBaseIXtlSC_tlSD_Lc115ELc116ELc97ELc114EEEEXtlS11_tlS12_Lc226ELc173ELc144EEEEXtl18StringLiteralUTF32ILm2EEtlA2_DiLDi11088EEEELm0ELm0ELb0EES1U_IXtlSC_tlSD_Lc109ELc111ELc111ELc110EEEEXtlSC_tlSD_Lc240ELc159ELc140ELc153EEEEXtlS1W_tlS1X_LDi127769EEEELm0ELm0ELb0EES1U_IXtlSW_tlSX_Lc99ELc104ELc101ELc99ELc107EEEEXtlS6_tlS7_Lc226ELc156ELc148ELc239ELc184ELc143EEEEXtlS1V_ILm3EEtlA3_DiLDi10004ELDi65039EEEELm0ELm0ELb0EES1U_IXtlSW_tlSX_Lc99ELc114ELc111ELc115ELc115EEEEXtlS11_tlS12_Lc226ELc157ELc140EEEEXtlS1W_tlS1X_LDi10060EEEELm0ELm0ELb0EES1U_IXtlSC_tlSD_Lc108ELc105ELc107ELc101EEEEXtlSC_tlSD_Lc240ELc159ELc145ELc141EEEEXtlS1W_tlS1X_LDi128077EEEELm0ELm0ELb0EES1U_IXtlS15_tlS16_Lc100ELc105ELc115ELc108ELc105ELc107ELc101EEEEXtlSC_tlSD_Lc240ELc159ELc145ELc142EEEEXtlS1W_tlS1X_LDi128078EEEELm0ELm0ELb0EEEES2_IXtlS15_tlS16_Lc84ELc119ELc101ELc109ELc111ELc106ELc105EEEEXtlSS_tlST_Lc58ELc115ELc117ELc110ELc103ELc108ELc97ELc115ELc115ELc101ELc115ELc58EEEEJS1U_IXtlS3_ILm24EEtlA24_cLc102ELc97ELc99ELc101ELc95ELc104ELc111ELc108ELc100ELc105ELc110ELc103ELc95ELc98ELc97ELc99ELc107ELc95ELc116ELc101ELc97ELc114ELc115EEEEXtlSC_tlSD_Lc240ELc159ELc165ELc185EEEEXtlS1W_tlS1X_LDi129401EEEELm0ELm0ELb0EES1U_IXtlSS_tlST_Lc115ELc108ELc105ELc103ELc104ELc116ELc95ELc115ELc109ELc105ELc108ELc101EEEEXtlSC_tlSD_Lc240ELc159ELc153ELc130EEEEXtlS1W_tlS1X_LDi128578EEEELm0ELm0ELb0EES1U_IXtlSC_tlSD_Lc119ELc105ELc110ELc107EEEEXtlSC_tlSD_Lc240ELc159ELc152ELc137EEEEXtlS1W_tlS1X_LDi128521EEEELm0ELm0ELb0EES1U_IXtlS1C_tlS1D_Lc104ELc101ELc97ELc114ELc116ELc95ELc101ELc121ELc101ELc115EEEEXtlSC_tlSD_Lc240ELc159ELc152ELc141EEEEXtlS1W_tlS1X_LDi128525EEEELm0ELm0ELb0EES1U_IXtlS3_ILm27EEtlA27_cLc115ELc109ELc105ELc108ELc105ELc110ELc103ELc95ELc102ELc97ELc99ELc101ELc95ELc119ELc105ELc116ELc104ELc95ELc51ELc95ELc104ELc101ELc97ELc114ELc116ELc115EEEEXtlSC_tlSD_Lc240ELc159ELc165ELc176EEEEXtlS1W_tlS1X_LDi129392EEEELm0ELm0ELb0EES1U_IXtlS3_ILm25EEtlA25_cLc102ELc97ELc99ELc101ELc95ELc119ELc105ELc116ELc104ELc95ELc114ELc97ELc105ELc115ELc101ELc100ELc95ELc101ELc121ELc101ELc98ELc114ELc111ELc119EEEEXtlSC_tlSD_Lc240ELc159ELc164ELc168EEEEXtlS1W_tlS1X_LDi129320EEEELm0ELm0ELb0EES1U_IXtlS3_ILm18EEtlA18_cLc102ELc97ELc99ELc101ELc95ELc119ELc105ELc116ELc104ELc95ELc109ELc111ELc110ELc111ELc99ELc108ELc101EEEEXtlSC_tlSD_Lc240ELc159ELc167ELc144EEEEXtlS1W_tlS1X_LDi129488EEEELm0ELm0ELb0EES1U_IXtlSC_tlSD_Lc110ELc101ELc114ELc100EEEEXtlSC_tlSD_Lc240ELc159ELc164ELc147EEEEXtlS1W_tlS1X_LDi129299EEEELm0ELm0ELb0EES1U_IXtlSN_tlSO_Lc115ELc116ELc97ELc114ELc95ELc115ELc116ELc114ELc117ELc99ELc107EEEEXtlSC_tlSD_Lc240ELc159ELc164ELc169EEEEXtlS1W_tlS1X_LDi129321EEEELm0ELm0ELb0EES1U_IXtlS1C_tlS1D_Lc115ELc117ELc110ELc103ELc108ELc97ELc115ELc115ELc101ELc115EEEEXtlSC_tlSD_Lc240ELc159ELc152ELc142EEEEXtlS1W_tlS1X_LDi128526EEEELm0ELm0ELb0EES1U_IXtlS15_tlS16_Lc112ELc101ELc110ELc115ELc105ELc118ELc101EEEEXtlSC_tlSD_Lc240ELc159ELc152ELc148EEEEXtlS1W_tlS1X_LDi128532EEEELm0ELm0ELb0EES1U_IXtlS15_tlS16_Lc119ELc111ELc114ELc114ELc105ELc101ELc100EEEEXtlSC_tlSD_Lc240ELc159ELc152ELc159EEEEXtlS1W_tlS1X_LDi128543EEEELm0ELm0ELb0EES1U_IXtlS4_tlS5_Lc112ELc108ELc101ELc97ELc100ELc105ELc110ELc103ELc95ELc102ELc97ELc99ELc101EEEEXtlSC_tlSD_Lc240ELc159ELc165ELc186EEEEXtlS1W_tlS1X_LDi129402EEEELm0ELm0ELb0EES1U_IXtlS11_tlS12_Lc99ELc114ELc121EEEEXtlSC_tlSD_Lc240ELc159ELc152ELc162EEEEXtlS1W_tlS1X_LDi128546EEEELm0ELm0ELb0EES1U_IXtlS11_tlS12_Lc115ELc111ELc98EEEEXtlSC_tlSD_Lc240ELc159ELc152ELc173EEEEXtlS1W_tlS1X_LDi128557EEEELm0ELm0ELb0EES1U_IXtlS1R_tlS1S_Lc101ELc120ELc112ELc108ELc111ELc100ELc105ELc110ELc103ELc95ELc104ELc101ELc97ELc100EEEEXtlSC_tlSD_Lc240ELc159ELc164ELc175EEEEXtlS1W_tlS1X_LDi129327EEEELm0ELm0ELb0EES1U_IXtlS6_tlS7_Lc115ELc99ELc114ELc101ELc97ELc109EEEEXtlSC_tlSD_Lc240ELc159ELc152ELc177EEEEXtlS1W_tlS1X_LDi128561EEEELm0ELm0ELb0EES1U_IXtlS15_tlS16_Lc102ELc101ELc97ELc114ELc102ELc117ELc108EEEEXtlSC_tlSD_Lc240ELc159ELc152ELc168EEEEXtlS1W_tlS1X_LDi128552EEEELm0ELm0ELb0EES1U_IXtlS18_tlS19_Lc116ELc104ELc105ELc110ELc107ELc105ELc110ELc103EEEEXtlSC_tlSD_Lc240ELc159ELc164ELc148EEEEXtlS1W_tlS1X_LDi129300EEEELm0ELm0ELb0EES1U_IXtlS4_tlS5_Lc115ELc104ELc117ELc115ELc104ELc105ELc110ELc103ELc95ELc102ELc97ELc99ELc101EEEEXtlSC_tlSD_Lc240ELc159ELc164ELc171EEEEXtlS1W_tlS1X_LDi129323EEEELm0ELm0ELb0EES1U_IXtlS4_tlS5_Lc102ELc97ELc99ELc101ELc95ELc118ELc111ELc109ELc105ELc116ELc105ELc110ELc103EEEEXtlSC_tlSD_Lc240ELc159ELc164ELc174EEEEXtlS1W_tlS1X_LDi129326EEEELm0ELm0ELb0EES1U_IXtlSN_tlSO_Lc115ELc109ELc105ELc108ELc105ELc110ELc103ELc95ELc105ELc109ELc112EEEEXtlSC_tlSD_Lc240ELc159ELc152ELc136EEEEXtlS1W_tlS1X_LDi128520EEEELm0ELm0ELb0EES1U_IXtlSW_tlSX_Lc99ELc108ELc111ELc119ELc110EEEEXtlSC_tlSD_Lc240ELc159ELc164ELc161EEEEXtlS1W_tlS1X_LDi129313EEEELm0ELm0ELb0EES1U_IXtlSW_tlSX_Lc103ELc104ELc111ELc115ELc116EEEEXtlSC_tlSD_Lc240ELc159ELc145ELc187EEEEXtlS1W_tlS1X_LDi128123EEEELm0ELm0ELb0EES1U_IXtlSW_tlSX_Lc115ELc107ELc117ELc108ELc108EEEEXtlSC_tlSD_Lc240ELc159ELc146ELc128EEEEXtlS1W_tlS1X_LDi128128EEEELm0ELm0ELb0EES1U_IXtlSW_tlSX_Lc97ELc108ELc105ELc101ELc110EEEEXtlSC_tlSD_Lc240ELc159ELc145ELc189EEEEXtlS1W_tlS1X_LDi128125EEEELm0ELm0ELb0EES1U_IXtlSW_tlSX_Lc114ELc111ELc98ELc111ELc116EEEEXtlSC_tlSD_Lc240ELc159ELc164ELc150EEEEXtlS1W_tlS1X_LDi129302EEEELm0ELm0ELb0EES1U_IXtlSC_tlSD_Lc99ELc108ELc97ELc112EEEEXtlSC_tlSD_Lc240ELc159ELc145ELc143EEEEXtlS1W_tlS1X_LDi128079EEEELm0ELm0ELb0EES1U_IXtlS4_tlS5_Lc109ELc105ELc100ELc100ELc108ELc101ELc95ELc102ELc105ELc110ELc103ELc101ELc114EEEEXtlSC_tlSD_Lc240ELc159ELc150ELc149EEEEXtlS1W_tlS1X_LDi128405EEEELm0ELm0ELb0EES1U_IXtlSC_tlSD_Lc112ELc114ELc97ELc121EEEEXtlSC_tlSD_Lc240ELc159ELc153ELc143EEEEXtlS1W_tlS1X_LDi128591EEEELm0ELm0ELb0EES1U_IXtlS6_tlS7_Lc116ELc111ELc110ELc103ELc117ELc101EEEEXtlSC_tlSD_Lc240ELc159ELc145ELc133EEEEXtlS1W_tlS1X_LDi128069EEEELm0ELm0ELb0EES1U_IXtlS4_tlS5_Lc115ELc112ELc101ELc97ELc107ELc105ELc110ELc103ELc95ELc104ELc101ELc97ELc100EEEEXtlS15_tlS16_Lc240ELc159ELc151ELc163ELc239ELc184ELc143EEEEXtlS20_tlS21_LDi128483ELDi65039EEEELm0ELm0ELb0EES1U_IXtlSC_tlSD_Lc98ELc97ELc98ELc121EEEEXtlSC_tlSD_Lc240ELc159ELc145ELc182EEEEXtlS1W_tlS1X_LDi128118EEEELm0ELm0ELb0EES1U_IXtlSN_tlSO_Lc100ELc101ELc97ELc102ELc95ELc112ELc101ELc114ELc115ELc111ELc110EEEEXtlSC_tlSD_Lc240ELc159ELc167ELc143EEEEXtlS1W_tlS1X_LDi129487EEEELm0ELm0ELb0EES1U_IXtlS1C_tlS1D_Lc100ELc101ELc97ELc102ELc95ELc119ELc111ELc109ELc97ELc110EEEEXtlS4_tlS5_Lc240ELc159ELc167ELc143ELc226ELc128ELc141ELc226ELc153ELc128ELc239ELc184ELc143EEEEXtlS1V_ILm5EEtlA5_DiLDi129487ELDi8205ELDi9792ELDi65039EEEELm0ELm0ELb0EES1U_IXtlS18_tlS19_Lc100ELc101ELc97ELc102ELc95ELc109ELc97ELc110EEEEXtlS4_tlS5_Lc240ELc159ELc167ELc143ELc226ELc128ELc141ELc226ELc153ELc130ELc239ELc184ELc143EEEEXtlS3D_tlS3E_LDi129487ELDi8205ELDi9794ELDi65039EEEELm0ELm0ELb0EES1U_IXtlS3_ILm22EEtlA22_cLc112ELc101ELc114ELc115ELc111ELc110ELc95ELc105ELc110ELc95ELc115ELc116ELc101ELc97ELc109ELc121ELc95ELc114ELc111ELc111ELc109EEEEXtlSC_tlSD_Lc240ELc159ELc167ELc150EEEEXtlS1W_tlS1X_LDi129494EEEELm0ELm0ELb0EES1U_IXtlSW_tlSX_Lc99ELc114ELc111ELc119ELc110EEEEXtlSC_tlSD_Lc240ELc159ELc145ELc145EEEEXtlS1W_tlS1X_LDi128081EEEELm0ELm0ELb0EES1U_IXtlS11_tlS12_Lc100ELc111ELc103EEEEXtlSC_tlSD_Lc240ELc159ELc144ELc182EEEEXtlS1W_tlS1X_LDi128054EEEELm0ELm0ELb0EES1U_IXtlS11_tlS12_Lc99ELc97ELc116EEEEXtlSC_tlSD_Lc240ELc159ELc144ELc177EEEEXtlS1W_tlS1X_LDi128049EEEELm0ELm0ELb0EES1U_IXtlS11_tlS12_Lc102ELc111ELc120EEEEXtlSC_tlSD_Lc240ELc159ELc166ELc138EEEEXtlS1W_tlS1X_LDi129418EEEELm0ELm0ELb0EES1U_IXtlSC_tlSD_Lc98ELc101ELc97ELc114EEEEXtlSC_tlSD_Lc240ELc159ELc144ELc187EEEEXtlS1W_tlS1X_LDi128059EEEELm0ELm0ELb0EES1U_IXtlS11_tlS12_Lc112ELc105ELc103EEEEXtlSC_tlSD_Lc240ELc159ELc144ELc183EEEEXtlS1W_tlS1X_LDi128055EEEELm0ELm0ELb0EES1U_IXtlSN_tlSO_Lc109ELc111ELc110ELc107ELc101ELc121ELc95ELc102ELc97ELc99ELc101EEEEXtlSC_tlSD_Lc240ELc159ELc144ELc181EEEEXtlS1W_tlS1X_LDi128053EEEELm0ELm0ELb0EES1U_IXtlSN_tlSO_Lc115ELc101ELc101ELc95ELc110ELc111ELc95ELc101ELc118ELc105ELc108EEEEXtlSC_tlSD_Lc240ELc159ELc153ELc136EEEEXtlS1W_tlS1X_LDi128584EEEELm0ELm0ELb0EES1U_IXtlSS_tlST_Lc104ELc101ELc97ELc114ELc95ELc110ELc111ELc95ELc101ELc118ELc105ELc108EEEEXtlSC_tlSD_Lc240ELc159ELc153ELc137EEEEXtlS1W_tlS1X_LDi128585EEEELm0ELm0ELb0EES1U_IXtlS4_tlS5_Lc115ELc112ELc101ELc97ELc107ELc95ELc110ELc111ELc95ELc101ELc118ELc105ELc108EEEEXtlSC_tlSD_Lc240ELc159ELc153ELc138EEEEXtlS1W_tlS1X_LDi128586EEEELm0ELm0ELb0EES1U_IXtlSC_tlSD_Lc102ELc105ELc115ELc104EEEEXtlSC_tlSD_Lc240ELc159ELc144ELc159EEEEXtlS1W_tlS1X_LDi128031EEEELm0ELm0ELb0EES1U_IXtlSN_tlSO_Lc119ELc105ELc108ELc116ELc101ELc100ELc95ELc114ELc111ELc115ELc101EEEEXtlSC_tlSD_Lc240ELc159ELc165ELc128EEEEXtlS1W_tlS1X_LDi129344EEEELm0ELm0ELb0EES1U_IXtlS4_tlS5_Lc115ELc117ELc110ELc95ELc119ELc105ELc116ELc104ELc95ELc102ELc97ELc99ELc101EEEEXtlSC_tlSD_Lc240ELc159ELc140ELc158EEEEXtlS1W_tlS1X_LDi127774EEEELm0ELm0ELb0EES1U_IXtlS1H_tlS1I_Lc102ELc117ELc108ELc108ELc95ELc109ELc111ELc111ELc110ELc95ELc119ELc105ELc116ELc104ELc95ELc102ELc97ELc99ELc101EEEEXtlSC_tlSD_Lc240ELc159ELc140ELc157EEEEXtlS1W_tlS1X_LDi127773EEEELm0ELm0ELb0EES1U_IXtlS1K_tlS1L_Lc110ELc101ELc119ELc95ELc109ELc111ELc111ELc110ELc95ELc119ELc105ELc116ELc104ELc95ELc102ELc97ELc99ELc101EEEEXtlSC_tlSD_Lc240ELc159ELc140ELc154EEEEXtlS1W_tlS1X_LDi127770EEEELm0ELm0ELb0EES1U_IXtlS2J_tlS2K_Lc108ELc97ELc115ELc116ELc95ELc113ELc117ELc97ELc114ELc116ELc101ELc114ELc95ELc109ELc111ELc111ELc110EEEEXtlSC_tlSD_Lc240ELc159ELc140ELc151EEEEXtlS1W_tlS1X_LDi127767EEEELm0ELm0ELb0EES1U_IXtlS18_tlS19_Lc110ELc101ELc119ELc95ELc109ELc111ELc111ELc110EEEEXtlSC_tlSD_Lc240ELc159ELc140ELc145EEEEXtlS1W_tlS1X_LDi127761EEEELm0ELm0ELb0EES1U_IXtlS18_tlS19_Lc115ELc112ELc97ELc114ELc107ELc108ELc101ELc115EEEEXtlS11_tlS12_Lc226ELc156ELc168EEEEXtlS1W_tlS1X_LDi10024EEEELm0ELm0ELb0EES1U_IXtlSC_tlSD_Lc102ELc105ELc114ELc101EEEEXtlSC_tlSD_Lc240ELc159ELc148ELc165EEEEXtlS1W_tlS1X_LDi128293EEEELm0ELm0ELb0EES1U_IXtlSK_tlSL_Lc115ELc110ELc111ELc119ELc102ELc108ELc97ELc107ELc101EEEEXtlS6_tlS7_Lc226ELc157ELc132ELc239ELc184ELc143EEEEXtlS20_tlS21_LDi10052ELDi65039EEEELm0ELm0ELb0EES1U_IXtlS18_tlS19_Lc101ELc103ELc103ELc112ELc108ELc97ELc110ELc116EEEEXtlSC_tlSD_Lc240ELc159ELc141ELc134EEEEXtlS1W_tlS1X_LDi127814EEEELm0ELm0ELb0EES1U_IXtlS6_tlS7_Lc116ELc114ELc111ELc112ELc104ELc121EEEEXtlSC_tlSD_Lc240ELc159ELc143ELc134EEEEXtlS1W_tlS1X_LDi127942EEEELm0ELm0ELb0EES1U_IXtlSN_tlSO_Lc102ELc105ELc114ELc115ELc116ELc95ELc112ELc108ELc97ELc99ELc101EEEEXtlSC_tlSD_Lc240ELc159ELc165ELc135EEEEXtlS1W_tlS1X_LDi129351EEEELm0ELm0ELb0EES1U_IXtlSS_tlST_Lc115ELc101ELc99ELc111ELc110ELc100ELc95ELc112ELc108ELc97ELc99ELc101EEEEXtlSC_tlSD_Lc240ELc159ELc165ELc136EEEEXtlS1W_tlS1X_LDi129352EEEELm0ELm0ELb0EES1U_IXtlSN_tlSO_Lc116ELc104ELc105ELc114ELc100ELc95ELc112ELc108ELc97ELc99ELc101EEEEXtlSC_tlSD_Lc240ELc159ELc165ELc137EEEEXtlS1W_tlS1X_LDi129353EEEELm0ELm0ELb0EES1U_IXtlSW_tlSX_Lc109ELc101ELc100ELc97ELc108EEEEXtlSC_tlSD_Lc240ELc159ELc143ELc133EEEEXtlS1W_tlS1X_LDi127941EEEELm0ELm0ELb0EES1U_IXtlS6_tlS7_Lc114ELc111ELc99ELc107ELc101ELc116EEEEXtlSC_tlSD_Lc240ELc159ELc154ELc128EEEEXtlS1W_tlS1X_LDi128640EEEELm0ELm0ELb0EES1U_IXtlS4_tlS5_Lc102ELc108ELc121ELc105ELc110ELc103ELc95ELc115ELc97ELc117ELc99ELc101ELc114EEEEXtlSC_tlSD_Lc240ELc159ELc155ELc184EEEEXtlS1W_tlS1X_LDi128760EEEELm0ELm0ELb0EES1U_IXtlSW_tlSX_Lc109ELc111ELc121ELc97ELc105EEEEXtlSC_tlSD_Lc240ELc159ELc151ELc191EEEEXtlS1W_tlS1X_LDi128511EEEELm0ELm0ELb0EES1U_IXtlS2J_tlS2K_Lc99ELc97ELc109ELc101ELc114ELc97ELc95ELc119ELc105ELc116ELc104ELc95ELc102ELc108ELc97ELc115ELc104EEEEXtlSC_tlSD_Lc240ELc159ELc147ELc184EEEEXtlS1W_tlS1X_LDi128248EEEELm0ELm0ELb0EES1U_IXtlS11_tlS12_Lc103ELc117ELc110EEEEXtlSC_tlSD_Lc240ELc159ELc148ELc171EEEEXtlS1W_tlS1X_LDi128299EEEELm0ELm0ELb0EES1U_IXtlS3_ILm23EEtlA23_cLc115ELc108ELc101ELc101ELc112ELc105ELc110ELc103ELc95ELc97ELc99ELc99ELc111ELc109ELc109ELc111ELc100ELc97ELc116ELc105ELc111ELc110EEEEXtlSC_tlSD_Lc240ELc159ELc155ELc140EEEEXtlS1W_tlS1X_LDi128716EEEELm0ELm0ELb0EES1U_IXtlSS_tlST_Lc112ELc97ELc114ELc116ELc121ELc95ELc112ELc111ELc112ELc112ELc101ELc114EEEEXtlSC_tlSD_Lc240ELc159ELc142ELc137EEEEXtlS1W_tlS1X_LDi127881EEEELm0ELm0ELb0EES1U_IXtlSW_tlSX_Lc104ELc101ELc97ELc114ELc116EEEEXtlS6_tlS7_Lc226ELc157ELc164ELc239ELc184ELc143EEEEXtlS20_tlS21_LDi10084ELDi65039EEEELm0ELm0ELb0EES1U_IXtlSS_tlST_Lc98ELc114ELc111ELc107ELc101ELc110ELc95ELc104ELc101ELc97ELc114ELc116EEEEXtlSC_tlSD_Lc240ELc159ELc146ELc148EEEEXtlS1W_tlS1X_LDi128148EEEELm0ELm0ELb0EES1U_IXtlSN_tlSO_Lc114ELc97ELc100ELc105ELc111ELc97ELc99ELc116ELc105ELc118ELc101EEEEXtlS6_tlS7_Lc226ELc152ELc162ELc239ELc184ELc143EEEEXtlS20_tlS21_LDi9762ELDi65039EEEELm0ELm0ELb0EES1U_IXtlS11_tlS12_Lc49ELc48ELc48EEEEXtlSC_tlSD_Lc240ELc159ELc146ELc175EEEEXtlS1W_tlS1X_LDi128175EEEELm0ELm0ELb0EES1U_IXtlS18_tlS19_Lc113ELc117ELc101ELc115ELc116ELc105ELc111ELc110EEEEXtlS11_tlS12_Lc226ELc157ELc147EEEEXtlS1W_tlS1X_LDi10067EEEELm0ELm0ELb0EES1U_IXtlS18_tlS19_Lc98ELc97ELc110ELc103ELc98ELc97ELc110ELc103EEEEXtlS6_tlS7_Lc226ELc128ELc188ELc239ELc184ELc143EEEEXtlS20_tlS21_LDi8252ELDi65039EEEELm0ELm0ELb0EES1U_IXtlSC_tlSD_Lc122ELc101ELc114ELc111EEEEXtlS15_tlS16_Lc48ELc239ELc184ELc143ELc226ELc131ELc163EEEEXtlS1V_ILm4EEtlA4_DiLDi48ELDi65039ELDi8419EEEELm0ELm0ELb0EES1U_IXtlS11_tlS12_Lc111ELc110ELc101EEEEXtlS15_tlS16_Lc49ELc239ELc184ELc143ELc226ELc131ELc163EEEEXtlS4P_tlS4Q_LDi49ELDi65039ELDi8419EEEELm0ELm0ELb0EES1U_IXtlS11_tlS12_Lc116ELc119ELc111EEEEXtlS15_tlS16_Lc50ELc239ELc184ELc143ELc226ELc131ELc163EEEEXtlS4P_tlS4Q_LDi50ELDi65039ELDi8419EEEELm0ELm0ELb0EES1U_IXtlSW_tlSX_Lc116ELc104ELc114ELc101ELc101EEEEXtlS15_tlS16_Lc51ELc239ELc184ELc143ELc226ELc131ELc163EEEEXtlS4P_tlS4Q_LDi51ELDi65039ELDi8419EEEELm0ELm0ELb0EES1U_IXtlSC_tlSD_Lc102ELc111ELc117ELc114EEEEXtlS15_tlS16_Lc52ELc239ELc184ELc143ELc226ELc131ELc163EEEEXtlS4P_tlS4Q_LDi52ELDi65039ELDi8419EEEELm0ELm0ELb0EES1U_IXtlSC_tlSD_Lc102ELc105ELc118ELc101EEEEXtlS15_tlS16_Lc53ELc239ELc184ELc143ELc226ELc131ELc163EEEEXtlS4P_tlS4Q_LDi53ELDi65039ELDi8419EEEELm0ELm0ELb0EES1U_IXtlS11_tlS12_Lc115ELc105ELc120EEEEXtlS15_tlS16_Lc54ELc239ELc184ELc143ELc226ELc131ELc163EEEEXtlS4P_tlS4Q_LDi54ELDi65039ELDi8419EEEELm0ELm0ELb0EES1U_IXtlSW_tlSX_Lc115ELc101ELc118ELc101ELc110EEEEXtlS15_tlS16_Lc55ELc239ELc184ELc143ELc226ELc131ELc163EEEEXtlS4P_tlS4Q_LDi55ELDi65039ELDi8419EEEELm0ELm0ELb0EES1U_IXtlSW_tlSX_Lc101ELc105ELc103ELc104ELc116EEEEXtlS15_tlS16_Lc56ELc239ELc184ELc143ELc226ELc131ELc163EEEEXtlS4P_tlS4Q_LDi56ELDi65039ELDi8419EEEELm0ELm0ELb0EES1U_IXtlSC_tlSD_Lc110ELc105ELc110ELc101EEEEXtlS15_tlS16_Lc57ELc239ELc184ELc143ELc226ELc131ELc163EEEEXtlS4P_tlS4Q_LDi57ELDi65039ELDi8419EEEELm0ELm0ELb0EES1U_IXtlSS_tlST_Lc115ELc104ELc111ELc99ELc107ELc101ELc100ELc95ELc102ELc97ELc99ELc101EEEEXtlSC_tlSD_Lc240ELc159ELc152ELc177EEEEXtlS1W_tlS1X_LDi128561EEEELm0ELm0ELb1EES1U_IXtlSS_tlST_Lc102ELc111ELc108ELc100ELc101ELc100ELc95ELc104ELc97ELc110ELc100ELc115EEEEXtlSC_tlSD_Lc240ELc159ELc153ELc143EEEEXtlS1W_tlS1X_LDi128591EEEELm0ELm0ELb1EES1U_IXtlSC_tlSD_Lc116ELc97ELc100ELc97EEEEXtlSC_tlSD_Lc240ELc159ELc142ELc137EEEEXtlS1W_tlS1X_LDi127881EEEELm0ELm0ELb1EEEES2_IXtlS1C_tlS1D_Lc76ELc101ELc103ELc97ELc99ELc121ELc32ELc83ELc101ELc116EEEEXtlSW_tlSX_Lc58ELc110ELc101ELc100ELc58EEEEJS8_IXtlS15_tlS16_Lc97ELc109ELc111ELc110ELc103ELc117ELc115EEEELDi114736ELm0ELm0ELb0EES8_IXtlS6_tlS7_Lc97ELc109ELc111ELc103ELc117ELc115EEEELDi114737ELm0ELm0ELb0EES8_IXtlSC_tlSD_Lc98ELc114ELc117ELc104EEEELDi114738ELm0ELm0ELb0EES8_IXtlS6_tlS7_Lc99ELc97ELc114ELc108ELc111ELc115EEEELDi114739ELm0ELm0ELb0EES8_IXtlS18_tlS19_Lc99ELc108ELc117ELc101ELc108ELc101ELc115ELc115EEEELDi114740ELm0ELm0ELb0EES8_IXtlS15_tlS16_Lc100ELc101ELc115ELc112ELc97ELc105ELc114EEEELDi114741ELm0ELm0ELb0EES8_IXtlS18_tlS19_Lc100ELc101ELc115ELc112ELc97ELc105ELc114ELc50EEEELDi114742ELm0ELm0ELb0EES8_IXtlS11_tlS12_Lc110ELc101ELc100EEEELDi114743ELm0ELm0ELb0EES8_IXtlS6_tlS7_Lc112ELc117ELc115ELc97ELc98ELc63EEEELDi114744ELm0ELm0ELb0EES8_IXtlS18_tlS19_Lc114ELc111ELc98ELc115ELc109ELc105ELc108ELc101EEEELDi114745ELm0ELm0ELb0EES8_IXtlS11_tlS12_Lc115ELc105ELc112EEEELDi114746ELm0ELm0ELb0EES8_IXtlSW_tlSX_Lc115ELc112ELc108ELc97ELc116EEEELDi114747ELm0ELm0ELb0EES8_IXtlS6_tlS7_Lc116ELc101ELc101ELc104ELc101ELc101EEEELDi114748ELm0ELm0ELb0EES8_IXtlSK_tlSL_Lc116ELc114ELc111ELc108ELc108ELc102ELc97ELc99ELc101EEEELDi114749ELm0ELm0ELb0EES8_IXtlSC_tlSD_Lc116ELc114ELc117ELc101EEEELDi114750ELm0ELm0ELb0EES8_IXtlS6_tlS7_Lc119ELc97ELc108ELc116ELc101ELc114EEEELDi114751ELm0ELm0ELb0EES8_IXtlS11_tlS12_Lc119ELc104ELc97EEEELDi114752ELm0ELm0ELb0EES8_IXtlSK_tlSL_Lc119ELc104ELc97ELc100ELc97ELc104ELc101ELc108ELc108EEEELDi114753ELm0ELm0ELb0EES8_IXtlSK_tlSL_Lc121ELc111ELc117ELc115ELc104ELc111ELc117ELc108ELc100EEEELDi114754ELm0ELm0ELb0EES8_IXtlS11_tlS12_Lc99ELc97ELc114EEEELDi114755ELm0ELm0ELb0EES8_IXtlSW_tlSX_Lc122ELc111ELc105ELc110ELc107EEEELDi114756ELm0ELm0ELb0EES8_IXtlS15_tlS16_Lc115ELc104ELc111ELc99ELc107ELc101ELc100EEEELDi114757ELm0ELm0ELb0EES8_IXtlS4_tlS5_Lc112ELc111ELc112ELc112ELc105ELc110ELc98ELc111ELc116ELc116ELc108ELc101ELc115EEEELDi114758ELm0ELm0ELb0EES8_IXtlSW_tlSX_Lc112ELc97ELc114ELc116ELc121EEEELDi114759ELm0ELm0ELb0EES8_IXtlS6_tlS7_Lc112ELc111ELc116ELc98ELc111ELc114EEEELDi114760ELm0ELm0ELb0EES8_IXtlS15_tlS16_Lc100ELc97ELc98ELc109ELc101ELc117ELc112EEEELDi114761ELm0ELm0ELb0EES8_IXtlS4_tlS5_Lc102ELc105ELc114ELc101ELc105ELc110ELc116ELc104ELc101ELc104ELc111ELc108ELc101EEEELDi114762ELm0ELm0ELb0EES8_IXtlS6_tlS7_Lc102ELc105ELc110ELc103ELc101ELc114EEEELDi114763ELm0ELm0ELb0EES8_IXtlSW_tlSX_Lc115ELc111ELc103ELc103ELc121EEEELDi114764ELm0ELm0ELb0EES8_IXtlSC_tlSD_Lc109ELc97ELc121ELc111EEEELDi114765ELm0ELm0ELb0EES8_IXtlS6_tlS7_Lc100ELc105ELc118ELc105ELc110ELc101EEEELDi114766ELm0ELm0ELb0EES8_IXtlSW_tlSX_Lc98ELc117ELc101ELc110ELc111EEEELDi114767ELm0ELm0ELb0EES8_IXtlS1C_tlS1D_Lc114ELc97ELc116ELc116ELc108ELc101ELc100ELc97ELc115ELc104EEEELDi114768ELm0ELm0ELb0EES8_IXtlS9_tlSA_Lc103ELc100EEEELDi114769ELm0ELm0ELb0EES8_IXtlSW_tlSX_Lc103ELc101ELc111ELc100ELc101EEEELDi114770ELm0ELm0ELb0EES8_IXtlSC_tlSD_Lc98ELc111ELc97ELc114EEEELDi114771ELm0ELm0ELb0EES8_IXtlS6_tlS7_Lc109ELc101ELc119ELc104ELc101ELc110EEEELDi114772ELm0ELm0ELb0EES8_IXtlSN_tlSO_Lc99ELc104ELc97ELc110ELc103ELc101ELc116ELc111ELc112ELc105ELc99EEEELDi114773ELm0ELm0ELb0EES8_IXtlS1C_tlS1D_Lc116ELc111ELc117ELc99ELc104ELc103ELc114ELc97ELc115ELc115EEEELDi114774ELm0ELm0ELb0EES8_IXtlS18_tlS19_Lc103ELc103ELc103ELc103ELc103ELc103ELc103ELc103EEEELDi114775ELm0ELm0ELb0EES8_IXtlSC_tlSD_Lc103ELc100ELc111ELc107EEEELDi114776ELm0ELm0ELb0EES8_IXtlS11_tlS12_Lc104ELc117ELc103EEEELDi114777ELm0ELm0ELb0EES8_IXtlSC_tlSD_Lc97ELc110ELc103ELc121EEEELDi114778ELm0ELm0ELb0EES8_IXtlSC_tlSD_Lc108ELc101ELc119ELc100EEEELDi114779ELm0ELm0ELb0EES8_IXtlS15_tlS16_Lc104ELc101ELc97ELc100ELc112ELc97ELc116EEEELDi114780ELm0ELm0ELb0EES8_IXtlS18_tlS19_Lc116ELc114ELc97ELc110ELc115ELc99ELc97ELc116EEEELDi114781ELm0ELm0ELb0EES8_IXtlSK_tlSL_Lc116ELc114ELc97ELc110ELc115ELc99ELc97ELc116ELc50EEEELDi114782ELm0ELm0ELb0EES8_IXtlS1C_tlS1D_Lc115ELc107ELc105ELc108ELc108ELc105ELc115ELc115ELc117ELc101EEEELDi114783ELm0ELm0ELb0EES8_IXtlS11_tlS12_Lc121ELc101ELc115EEEELDi114784ELm0ELm0ELb0EES8_IXtlS15_tlS16_Lc103ELc117ELc110ELc108ELc101ELc102ELc116EEEELDi114785ELm0ELm0ELb0EES8_IXtlS18_tlS19_Lc103ELc117ELc110ELc114ELc105ELc103ELc104ELc116EEEELDi114786ELm0ELm0ELb0EES8_IXtlSC_tlSD_Lc101ELc100ELc103ELc101EEEELDi114787ELm0ELm0ELb0EES8_IXtlS15_tlS16_Lc99ELc111ELc108ELc111ELc103ELc110ELc101EEEELDi114788ELm0ELm0ELb0EES8_IXtlS6_tlS7_Lc103ELc108ELc111ELc98ELc101ELc100EEEELDi114789ELm0ELm0ELb0EES8_IXtlS3_ILm16EEtlA16_cLc108ELc101ELc118ELc101ELc108ELc116ELc104ELc117ELc109ELc98ELc110ELc97ELc105ELc108ELc115EEEELDi114790ELm0ELm0ELb0EES8_IXtlS9_tlSA_Lc111ELc104EEEELDi114791ELm0ELm0ELb0EES8_IXtlS18_tlS19_Lc104ELc111ELc108ELc121ELc109ELc111ELc108ELc121EEEELDi114792ELm0ELm0ELb0EES8_IXtlS4_tlS5_Lc49ELc48ELc48ELc48ELc121ELc97ELc114ELc100ELc115ELc116ELc97ELc114ELc101EEEELDi114793ELm0ELm0ELb0EES8_IXtlSK_tlSL_Lc115ELc112ELc117ELc110ELc99ELc104ELc98ELc111ELc98EEEELDi114794ELm0ELm0ELb0EES8_IXtlS18_tlS19_Lc102ELc114ELc101ELc97ELc107ELc98ELc111ELc98EEEELDi114795ELm0ELm0ELb0EES8_IXtlSW_tlSX_Lc110ELc117ELc104ELc117ELc104EEEELDi114796ELm0ELm0ELb0EES8_IXtlSW_tlSX_Lc121ELc117ELc104ELc117ELc104EEEELDi114797ELm0ELm0ELb0EES8_IXtlS6_tlS7_Lc115ELc104ELc105ELc103ELc103ELc121EEEELDi116224ELm10ELm50ELb0EES8_IXtlSC_tlSD_Lc104ELc121ELc112ELc101EEEELDi116225ELm10ELm14ELb0EES8_IXtlS1C_tlS1D_Lc112ELc101ELc116ELc109ELc97ELc117ELc114ELc105ELc99ELc101EEEELDi116226ELm5ELm20ELb0EES8_IXtlSC_tlSD_Lc98ELc111ELc110ELc107EEEELDi116227ELm17ELm16ELb0EES8_IXtlS18_tlS19_Lc112ELc97ELc114ELc116ELc121ELc105ELc110ELc103EEEELDi116228ELm12ELm25ELb0EES8_IXtlS4_tlS5_Lc110ELc101ELc100ELc95ELc101ELc120ELc112ELc108ELc111ELc115ELc105ELc111ELc110EEEELDi116229ELm12ELm50ELb0EES8_IXtlSK_tlSL_Lc112ELc111ELc108ELc97ELc114ELc98ELc101ELc97ELc114EEEELDi116230ELm13ELm33ELb0EES8_IXtlS4_tlS5_Lc99ELc111ELc108ELc111ELc110ELc116ELc104ELc114ELc101ELc101ELc99ELc97ELc116EEEELDi116231ELm111ELm33ELb0EES8_IXtlS1K_tlS1L_Lc100ELc101ELc108ELc116ELc97ELc114ELc117ELc110ELc101ELc101ELc120ELc112ELc108ELc111ELc115ELc105ELc111ELc110EEEELDi116235ELm17ELm17ELb0EEEES2_IXtlS4_tlS5_Lc67ELc117ELc115ELc116ELc111ELc109ELc32ELc69ELc109ELc111ELc106ELc105ELc115EEEEXtlSN_tlSO_Lc58ELc101ELc121ELc101ELc115ELc83ELc104ELc111ELc99ELc107ELc58EEEEJS8_IXtlSK_tlSL_Lc101ELc121ELc101ELc115ELc83ELc104ELc111ELc99ELc107EEEELDi114944ELm0ELm0ELb0EES8_IXtlS1C_tlS1D_Lc116ELc114ELc111ELc108ELc108ELc115ELc107ELc117ELc108ELc108EEEELDi114945ELm0ELm0ELb0EES8_IXtlS6N_tlS6O_Lc108ELc97ELc117ELc103ELc104ELc65ELc116ELc84ELc104ELc105ELc115ELc85ELc115ELc101ELc114EEEELDi114946ELm0ELm0ELb0EES8_IXtlS15_tlS16_Lc98ELc97ELc108ELc108ELc67ELc97ELc116EEEELDi114947ELm0ELm0ELb0EES8_IXtlS18_tlS19_Lc98ELc105ELc103ELc66ELc114ELc97ELc105ELc110EEEELDi114948ELm0ELm0ELb0EES8_IXtlS15_tlS16_Lc98ELc114ELc101ELc101ELc98ELc108ELc101EEEELDi114949ELm0ELm0ELb0EES8_IXtlSC_tlSD_Lc99ELc97ELc114ELc50EEEELDi114950ELm0ELm0ELb0EES8_IXtlSK_tlSL_Lc102ELc114ELc111ELc119ELc110ELc105ELc110ELc103ELc52EEEELDi114951ELm0ELm0ELb0EES8_IXtlSN_tlSO_Lc106ELc111ELc101ELc68ELc101ELc102ELc101ELc97ELc116ELc101ELc100EEEELDi114952ELm0ELm0ELb0EES8_IXtlS18_tlS19_Lc106ELc111ELc101ELc83ELc104ELc114ELc117ELc103EEEELDi114953ELm0ELm0ELb0EES8_IXtlS6_tlS7_Lc108ELc101ELc116ELc115ELc103ELc111EEEELDi114954ELm0ELm0ELb0EES8_IXtlSW_tlSX_Lc108ELc105ELc110ELc117ELc115EEEELDi114955ELm0ELm0ELb0EES8_IXtlS1C_tlS1D_Lc109ELc111ELc121ELc97ELc105ELc95ELc99ELc117ELc98ELc101EEEELDi114956ELm0ELm0ELb0EES8_IXtlS18_tlS19_Lc113ELc117ELc101ELc109ELc105ELc110ELc101ELc109EEEELDi114957ELm0ELm0ELb0EES8_IXtlS1C_tlS1D_Lc115ELc97ELc100ELc95ELc109ELc97ELc114ELc107ELc117ELc115EEEELDi114958ELm0ELm0ELb0EES8_IXtlSW_tlSX_Lc115ELc112ELc105ELc107ELc101EEEELDi114959ELm0ELm0ELb0EES8_IXtlSN_tlSO_Lc115ELc116ELc101ELc97ELc109ELc95ELc104ELc97ELc112ELc112ELc121EEEELDi114960ELm0ELm0ELb0EES8_IXtlSC_tlSD_Lc116ELc114ELc111ELc108EEEELDi114961ELm0ELm0ELb0EES8_IXtlS15_tlS16_Lc116ELc114ELc111ELc108ELc108ELc101ELc121EEEELDi114962ELm0ELm0ELb0EES8_IXtlSK_tlSL_Lc97ELc108ELc112ELc104ELc97ELc98ELc108ELc101ELc112EEEELDi114963ELm0ELm0ELb0EES8_IXtlSN_tlSO_Lc116ELc114ELc111ELc108ELc108ELc101ELc121ELc122ELc111ELc111ELc109EEEELDi116236ELm178ELm25ELb0EES8_IXtlS18_tlS19_Lc102ELc105ELc115ELc104ELc115ELc112ELc105ELc110EEEELDi116237ELm144ELm28ELb0EEEES2_IXtlS1R_tlS1S_Lc83ELc97ELc109ELc115ELc117ELc110ELc103ELc32ELc69ELc109ELc111ELc106ELc105ELc115EEEEXtlS1C_tlS1D_Lc58ELc103ELc114ELc105ELc110ELc110ELc105ELc110ELc103ELc58EEEEJS8_IXtlS18_tlS19_Lc103ELc114ELc105ELc110ELc110ELc105ELc110ELc103EEEELDi115456ELm0ELm0ELb0EES8_IXtlS6_tlS7_Lc115ELc109ELc105ELc108ELc101ELc121EEEELDi115457ELm0ELm0ELb0EES8_IXtlSC_tlSD_Lc121ELc97ELc97ELc121EEEELDi115458ELm0ELm0ELb0EES8_IXtlS6_tlS7_Lc99ELc104ELc101ELc101ELc107ELc121EEEELDi115459ELm0ELm0ELb0EES8_IXtlS4_tlS5_Lc115ELc108ELc105ELc103ELc104ELc116ELc95ELc115ELc109ELc105ELc108ELc101ELc50EEEELDi115460ELm0ELm0ELb0EES8_IXtlS18_tlS19_Lc98ELc108ELc117ELc115ELc104ELc105ELc110ELc103EEEELDi115461ELm0ELm0ELb0EES8_IXtlSC_tlSD_Lc98ELc108ELc101ELc104EEEELDi115462ELm0ELm0ELb0EES8_IXtlS15_tlS16_Lc104ELc117ELc103ELc103ELc105ELc110ELc103EEEELDi115463ELm0ELm0ELb0EES8_IXtlS15_tlS16_Lc98ELc114ELc111ELc116ELc104ELc101ELc114EEEELDi115464ELm0ELm0ELb0EES8_IXtlS18_tlS19_Lc117ELc110ELc97ELc109ELc117ELc115ELc101ELc100EEEELDi115465ELm0ELm0ELb0EES8_IXtlSW_tlSX_Lc112ELc114ELc111ELc117ELc100EEEELDi115466ELm0ELm0ELb0EES8_IXtlS18_tlS19_Lc112ELc101ELc110ELc115ELc105ELc118ELc101ELc50EEEELDi115467ELm0ELm0ELb0EES8_IXtlSK_tlSL_Lc110ELc97ELc117ELc115ELc101ELc97ELc116ELc101ELc100EEEELDi115468ELm0ELm0ELb0EES8_IXtlSC_tlSD_Lc99ELc111ELc111ELc108EEEELDi115469ELm0ELm0ELb0EES8_IXtlS15_tlS16_Lc119ELc104ELc97ELc116ELc116ELc104ELc101EEEELDi115470ELm0ELm0ELb0EES8_IXtlS4_tlS5_Lc115ELc108ELc105ELc103ELc104ELc116ELc95ELc102ELc114ELc111ELc119ELc110ELc50EEEELDi115471ELm0ELm0ELb0EES8_IXtlS18_tlS19_Lc119ELc104ELc97ELc116ELc116ELc104ELc101ELc102EEEELDi115472ELm0ELm0ELb0EES8_IXtlSC_tlSD_Lc99ELc114ELc121ELc50EEEELDi115473ELm0ELm0ELb0EES8_IXtlS15_tlS16_Lc115ELc111ELc98ELc98ELc105ELc110ELc103EEEELDi115474ELm0ELm0ELb0EES8_IXtlSC_tlSD_Lc101ELc118ELc105ELc108EEEELDi115475ELm0ELm0ELb0EES8_IXtlS6_tlS7_Lc115ELc107ELc117ELc108ELc108ELc50EEEELDi115476ELm0ELm0ELb0EEEES2_IXtlS3_ILm29EEtlA29_cLc67ELc117ELc98ELc101ELc32ELc69ELc109ELc111ELc116ELc101ELc115ELc32ELc40ELc66ELc121ELc32ELc64ELc99ELc121ELc97ELc110ELc102ELc108ELc111ELc119ELc101ELc114ELc41EEEEXtlSN_tlSO_Lc58ELc99ELc117ELc98ELc101ELc104ELc97ELc112ELc112ELc121ELc58EEEEJS8_IXtlS1C_tlS1D_Lc99ELc117ELc98ELc101ELc98ELc97ELc108ELc108ELc105ELc110EEEELDi114801ELm0ELm0ELb0EES8_IXtlSS_tlST_Lc99ELc117ELc98ELc101ELc99ELc111ELc110ELc102ELc117ELc115ELc101ELc100EEEELDi114802ELm0ELm0ELb0EES8_IXtlS18_tlS19_Lc99ELc117ELc98ELc101ELc99ELc111ELc111ELc108EEEELDi114803ELm0ELm0ELb0EES8_IXtlSK_tlSL_Lc99ELc117ELc98ELc101ELc104ELc97ELc112ELc112ELc121EEEELDi114804ELm0ELm0ELb0EES8_IXtlS1C_tlS1D_Lc99ELc117ELc98ELc101ELc108ELc101ELc116ELc115ELc103ELc111EEEELDi114805ELm0ELm0ELb0EES8_IXtlS15_tlS16_Lc99ELc117ELc98ELc101ELc112ELc111ELc103EEEELDi114806ELm0ELm0ELb0EES8_IXtlS1C_tlS1D_Lc99ELc117ELc98ELc101ELc115ELc99ELc97ELc114ELc101ELc100EEEELDi114807ELm0ELm0ELb0EES8_IXtlSK_tlSL_Lc99ELc117ELc98ELc101ELc115ELc116ELc97ELc114ELc101EEEELDi114808ELm0ELm0ELb0EES8_IXtlSK_tlSL_Lc99ELc117ELc98ELc101ELc116ELc104ELc105ELc110ELc107EEEELDi114809ELm0ELm0ELb0EES8_IXtlS18_tlS19_Lc99ELc117ELc98ELc101ELc118ELc105ELc101ELc119EEEELDi114810ELm0ELm0ELb0EES8_IXtlS18_tlS19_Lc99ELc117ELc98ELc101ELc119ELc97ELc118ELc101EEEELDi114811ELm0ELm0ELb0EES8_IXtlS18_tlS19_Lc99ELc117ELc98ELc101ELc119ELc105ELc110ELc107EEEELDi114812ELm0ELm0ELb0EES8_IXtlSS_tlST_Lc100ELc101ELc102ELc97ELc117ELc108ELc116ELc97ELc110ELc103ELc114ELc121EEEELDi114813ELm0ELm0ELb0EES8_IXtlS15_tlS16_Lc101ELc101ELc121ELc105ELc107ELc101ELc115EEEELDi114814ELm0ELm0ELb0EES8_IXtlS18_tlS19_Lc102ELc117ELc109ELc111ELc99ELc117ELc98ELc101EEEELDi114815ELm0ELm0ELb0EES8_IXtlSN_tlSO_Lc114ELc111ELc98ELc116ELc111ELc112ELc112ELc105ELc120ELc101ELc108EEEELDi114816ELm0ELm0ELb0EES8_IXtlSK_tlSL_Lc98ELc111ELc115ELc104ELc121ELc116ELc105ELc109ELc101EEEELDi114800ELm0ELm0ELb0EES8_IXtlS18_tlS19_Lc115ELc109ELc117ELc103ELc122ELc101ELc114ELc111EEEELDi114817ELm0ELm0ELb0EES8_IXtlSK_tlSL_Lc99ELc117ELc98ELc101ELc100ELc97ELc110ELc99ELc101EEEELDi116232ELm6ELm14ELb0EES8_IXtlSK_tlSL_Lc99ELc117ELc98ELc101ELc115ELc112ELc101ELc101ELc110EEEELDi116233ELm12ELm25ELb0EES8_IXtlS1R_tlS1S_Lc99ELc117ELc98ELc101ELc104ELc121ELc112ELc101ELc114ELc116ELc104ELc105ELc110ELc107EEEELDi116234ELm6ELm20ELb0EEEES2_IXtlS3_ILm31EEtlA31_cLc67ELc97ELc116ELc32ELc69ELc109ELc111ELc116ELc101ELc115ELc32ELc40ELc67ELc35ELc32ELc68ELc105ELc115ELc99ELc111ELc114ELc100ELc32ELc83ELc101ELc114ELc118ELc101ELc114ELc41EEEEXtlS18_tlS19_Lc58ELc99ELc97ELc116ELc103ELc117ELc110ELc58EEEEJS8_IXtlS18_tlS19_Lc99ELc97ELc116ELc98ELc108ELc101ELc115ELc115EEEELDi114832ELm0ELm0ELb0EES8_IXtlS15_tlS16_Lc99ELc97ELc116ELc99ELc97ELc115ELc104EEEELDi114833ELm0ELm0ELb0EES8_IXtlS15_tlS16_Lc99ELc97ELc116ELc99ELc111ELc109ELc102EEEELDi114834ELm0ELm0ELb0EES8_IXtlS15_tlS16_Lc99ELc97ELc116ELc99ELc111ELc111ELc108EEEELDi114835ELm0ELm0ELb0EES8_IXtlS6_tlS7_Lc99ELc97ELc116ELc99ELc111ELc112EEEELDi114836ELm0ELm0ELb0EES8_IXtlS15_tlS16_Lc99ELc97ELc116ELc99ELc111ELc114ELc110EEEELDi114837ELm0ELm0ELb0EES8_IXtlS15_tlS16_Lc99ELc97ELc116ELc100ELc101ELc114ELc112EEEELDi114838ELm0ELm0ELb0EES8_IXtlSN_tlSO_Lc99ELc97ELc116ELc102ELc97ELc99ELc101ELc112ELc97ELc108ELc109EEEELDi114839ELm0ELm0ELb0EES8_IXtlS15_tlS16_Lc99ELc97ELc116ELc102ELc105ELc110ELc101EEEELDi114840ELm0ELm0ELb0EES8_IXtlS15_tlS16_Lc99ELc97ELc116ELc103ELc97ELc115ELc109EEEELDi114841ELm0ELm0ELb0EES8_IXtlS15_tlS16_Lc99ELc97ELc116ELc103ELc97ELc115ELc112EEEELDi114842ELm0ELm0ELb0EES8_IXtlS15_tlS16_Lc99ELc97ELc116ELc103ELc105ELc102ELc116EEEELDi114843ELm0ELm0ELb0EES8_IXtlS18_tlS19_Lc99ELc97ELc116ELc103ELc114ELc117ELc109ELc112EEEELDi114844ELm0ELm0ELb0EES8_IXtlS6_tlS7_Lc99ELc97ELc116ELc103ELc117ELc110EEEELDi114845ELm0ELm0ELb0EES8_IXtlSK_tlSL_Lc99ELc97ELc116ELc104ELc97ELc109ELc109ELc101ELc114EEEELDi114846ELm0ELm0ELb0EES8_IXtlSW_tlSX_Lc99ELc97ELc116ELc104ELc105EEEELDi114847ELm0ELm0ELb0EES8_IXtlS15_tlS16_Lc99ELc97ELc116ELc104ELc121ELc112ELc101EEEELDi114848ELm0ELm0ELb0EES8_IXtlS18_tlS19_Lc99ELc97ELc116ELc108ELc97ELc117ELc103ELc104EEEELDi114849ELm0ELm0ELb0EES8_IXtlS15_tlS16_Lc99ELc97ELc116ELc108ELc105ELc99ELc107EEEELDi114850ELm0ELm0ELb0EES8_IXtlS18_tlS19_Lc99ELc97ELc116ELc108ELc111ELc115ELc101ELc114EEEELDi114851ELm0ELm0ELb0EES8_IXtlS15_tlS16_Lc99ELc97ELc116ELc108ELc111ELc115ELc116EEEELDi114852ELm0ELm0ELb0EES8_IXtlS15_tlS16_Lc99ELc97ELc116ELc108ELc111ELc118ELc101EEEELDi114853ELm0ELm0ELb0EES8_IXtlS6_tlS7_Lc99ELc97ELc116ELc108ELc117ELc108EEEELDi114854ELm0ELm0ELb0EES8_IXtlS15_tlS16_Lc99ELc97ELc116ELc108ELc117ELc114ELc107EEEELDi114855ELm0ELm0ELb0EES8_IXtlS18_tlS19_Lc99ELc97ELc116ELc109ELc117ELc115ELc105ELc107EEEELDi114856ELm0ELm0ELb0EES8_IXtlSW_tlSX_Lc99ELc97ELc116ELc111ELc107EEEELDi114857ELm0ELm0ELb0EES8_IXtlS6_tlS7_Lc99ELc97ELc116ELc112ELc97ELc116EEEELDi114858ELm0ELm0ELb0EES8_IXtlS6_tlS7_Lc99ELc97ELc116ELc112ELc108ELc115EEEELDi114859ELm0ELm0ELb0EES8_IXtlS6_tlS7_Lc99ELc97ELc116ELc112ELc111ELc103EEEELDi114860ELm0ELm0ELb0EES8_IXtlS15_tlS16_Lc99ELc97ELc116ELc112ELc111ELc117ELc116EEEELDi114861ELm0ELm0ELb0EES8_IXtlS6_tlS7_Lc99ELc97ELc116ELc114ELc101ELc101EEEELDi114862ELm0ELm0ELb0EES8_IXtlS18_tlS19_Lc99ELc97ELc116ELc115ELc104ELc114ELc117ELc103EEEELDi114863ELm0ELm0ELb0EES8_IXtlS6_tlS7_Lc99ELc97ELc116ELc115ELc104ELc121EEEELDi114864ELm0ELm0ELb0EES8_IXtlS15_tlS16_Lc99ELc97ELc116ELc115ELc105ELc109ELc112EEEELDi114865ELm0ELm0ELb0EES8_IXtlS6_tlS7_Lc99ELc97ELc116ELc115ELc105ELc112EEEELDi114866ELm0ELm0ELb0EES8_IXtlS18_tlS19_Lc99ELc97ELc116ELc115ELc108ELc101ELc101ELc112EEEELDi114867ELm0ELm0ELb0EES8_IXtlS18_tlS19_Lc99ELc97ELc116ELc115ELc109ELc97ELc114ELc116EEEELDi114868ELm0ELm0ELb0EES8_IXtlS18_tlS19_Lc99ELc97ELc116ELc115ELc119ELc101ELc97ELc116EEEELDi114869ELm0ELm0ELb0EES8_IXtlSN_tlSO_Lc99ELc97ELc116ELc116ELc104ELc105ELc110ELc107ELc105ELc110ELc103EEEELDi114870ELm0ELm0ELb0EEEES2_IXtlSS_tlST_Lc80ELc108ELc97ELc121ELc101ELc114ELc32ELc73ELc99ELc111ELc110ELc115EEEEXtlSK_tlSL_Lc58ELc100ELc101ELc102ELc97ELc117ELc108ELc116ELc58EEEEJS8_IXtlS15_tlS16_Lc100ELc101ELc102ELc97ELc117ELc108ELc116EEEELDi114880ELm0ELm0ELb0EES8_IXtlS18_tlS19_Lc115ELc100ELc115ELc108ELc97ELc121ELc101ELc114EEEELDi114881ELm0ELm0ELb0EES8_IXtlS11_tlS12_Lc101ELc118ELc119EEEELDi114882ELm0ELm0ELb0EES8_IXtlSW_tlSX_Lc116ELc114ELc105ELc100ELc101EEEELDi114883ELm0ELm0ELb0EES8_IXtlSW_tlSX_Lc99ELc111ELc108ELc111ELc110EEEELDi114884ELm0ELm0ELb0EES8_IXtlS6_tlS7_Lc114ELc111ELc98ELc116ELc111ELc112EEEELDi114885ELm0ELm0ELb0EES8_IXtlSW_tlSX_Lc119ELc117ELc108ELc122ELc121EEEELDi114886ELm0ELm0ELb0EES8_IXtlS15_tlS16_Lc106ELc117ELc110ELc105ELc112ELc101ELc114EEEELDi114887ELm0ELm0ELb0EES8_IXtlSC_tlSD_Lc114ELc105ELc111ELc116EEEELDi114888ELm0ELm0ELb0EES8_IXtlS6_tlS7_Lc99ELc121ELc99ELc108ELc105ELc99EEEELDi114889ELm0ELm0ELb0EES8_IXtlS4_tlS5_Lc116ELc104ELc101ELc115ELc105ELc108ELc108ELc121ELc100ELc111ELc103ELc103ELc111EEEELDi114890ELm0ELm0ELb0EES8_IXtlS18_tlS19_Lc117ELc112ELc114ELc111ELc120ELc105ELc100ELc101EEEELDi114891ELm0ELm0ELb0EEEEEEEEvT0_RNS0_6vectorI13EmojiCategoryNS0_9allocatorISAQ_EEEE
PUBLIC 659ac 0 std::__ndk1::__exception_guard_exceptions<std::__ndk1::vector<EmojiCategory, std::__ndk1::allocator<EmojiCategory> >::__destroy_vector>::~__exception_guard_exceptions[abi:ne190000]()
PUBLIC 65a8c 0 std::__ndk1::vector<EmojiCategory, std::__ndk1::allocator<EmojiCategory> >::__throw_length_error[abi:ne190000]() const
PUBLIC 65aa0 0 std::__ndk1::__exception_guard_exceptions<std::__ndk1::_AllocatorDestroyRangeReverse<std::__ndk1::allocator<EmojiCategory>, EmojiCategory*> >::~__exception_guard_exceptions[abi:ne190000]()
PUBLIC 65b34 0 std::__ndk1::vector<std::__ndk1::basic_string<char, std::__ndk1::char_traits<char>, std::__ndk1::allocator<char> >, std::__ndk1::allocator<std::__ndk1::basic_string<char, std::__ndk1::char_traits<char>, std::__ndk1::allocator<char> > > >::__init_with_size[abi:ne190000]<std::__ndk1::basic_string<char, std::__ndk1::char_traits<char>, std::__ndk1::allocator<char> >*, std::__ndk1::vector<std::__ndk1::basic_string<char, std::__ndk1::char_traits<char>, std::__ndk1::allocator<char> >, std::__ndk1::allocator<std::__ndk1::basic_string<char, std::__ndk1::char_traits<char>, std::__ndk1::allocator<char> > > >::__init_with_size[abi:ne190000]>(std::__ndk1::basic_string<char, std::__ndk1::char_traits<char>, std::__ndk1::allocator<char> >*, std::__ndk1::vector<std::__ndk1::basic_string<char, std::__ndk1::char_traits<char>, std::__ndk1::allocator<char> >, std::__ndk1::allocator<std::__ndk1::basic_string<char, std::__ndk1::char_traits<char>, std::__ndk1::allocator<char> > > >::__init_with_size[abi:ne190000], unsigned long)
PUBLIC 65ca0 0 std::__ndk1::__exception_guard_exceptions<std::__ndk1::vector<std::__ndk1::basic_string<char, std::__ndk1::char_traits<char>, std::__ndk1::allocator<char> >, std::__ndk1::allocator<std::__ndk1::basic_string<char, std::__ndk1::char_traits<char>, std::__ndk1::allocator<char> > > >::__destroy_vector>::~__exception_guard_exceptions[abi:ne190000]()
PUBLIC 65d2c 0 std::__ndk1::__exception_guard_exceptions<std::__ndk1::_AllocatorDestroyRangeReverse<std::__ndk1::allocator<std::__ndk1::basic_string<char, std::__ndk1::char_traits<char>, std::__ndk1::allocator<char> > >, std::__ndk1::basic_string<char, std::__ndk1::char_traits<char>, std::__ndk1::allocator<char> >*> >::~__exception_guard_exceptions[abi:ne190000]()
PUBLIC 65d8c 0 std::__ndk1::vector<EmojiCategory, std::__ndk1::allocator<EmojiCategory> >::__push_back_slow_path<EmojiCategory>(EmojiCategory&&)
PUBLIC 65f5c 0 _ZN10EmojiGroupIXtl13StringLiteralILm8EEtlA8_cLc84ELc119ELc101ELc109ELc111ELc106ELc105EEEEXtlS0_ILm13EEtlA13_cLc58ELc115ELc117ELc110ELc103ELc108ELc97ELc115ELc115ELc101ELc115ELc58EEEEJ11UnimojiBaseIXtlS0_ILm24EEtlA24_cLc102ELc97ELc99ELc101ELc95ELc104ELc111ELc108ELc100ELc105ELc110ELc103ELc95ELc98ELc97ELc99ELc107ELc95ELc116ELc101ELc97ELc114ELc115EEEEXtlS0_ILm5EEtlA5_cLc240ELc159ELc165ELc185EEEEXtl18StringLiteralUTF32ILm2EEtlA2_DiLDi129401EEEELm0ELm0ELb0EES5_IXtlS3_tlS4_Lc115ELc108ELc105ELc103ELc104ELc116ELc95ELc115ELc109ELc105ELc108ELc101EEEEXtlS8_tlS9_Lc240ELc159ELc153ELc130EEEEXtlSB_tlSC_LDi128578EEEELm0ELm0ELb0EES5_IXtlS8_tlS9_Lc119ELc105ELc110ELc107EEEEXtlS8_tlS9_Lc240ELc159ELc152ELc137EEEEXtlSB_tlSC_LDi128521EEEELm0ELm0ELb0EES5_IXtlS0_ILm11EEtlA11_cLc104ELc101ELc97ELc114ELc116ELc95ELc101ELc121ELc101ELc115EEEEXtlS8_tlS9_Lc240ELc159ELc152ELc141EEEEXtlSB_tlSC_LDi128525EEEELm0ELm0ELb0EES5_IXtlS0_ILm27EEtlA27_cLc115ELc109ELc105ELc108ELc105ELc110ELc103ELc95ELc102ELc97ELc99ELc101ELc95ELc119ELc105ELc116ELc104ELc95ELc51ELc95ELc104ELc101ELc97ELc114ELc116ELc115EEEEXtlS8_tlS9_Lc240ELc159ELc165ELc176EEEEXtlSB_tlSC_LDi129392EEEELm0ELm0ELb0EES5_IXtlS0_ILm25EEtlA25_cLc102ELc97ELc99ELc101ELc95ELc119ELc105ELc116ELc104ELc95ELc114ELc97ELc105ELc115ELc101ELc100ELc95ELc101ELc121ELc101ELc98ELc114ELc111ELc119EEEEXtlS8_tlS9_Lc240ELc159ELc164ELc168EEEEXtlSB_tlSC_LDi129320EEEELm0ELm0ELb0EES5_IXtlS0_ILm18EEtlA18_cLc102ELc97ELc99ELc101ELc95ELc119ELc105ELc116ELc104ELc95ELc109ELc111ELc110ELc111ELc99ELc108ELc101EEEEXtlS8_tlS9_Lc240ELc159ELc167ELc144EEEEXtlSB_tlSC_LDi129488EEEELm0ELm0ELb0EES5_IXtlS8_tlS9_Lc110ELc101ELc114ELc100EEEEXtlS8_tlS9_Lc240ELc159ELc164ELc147EEEEXtlSB_tlSC_LDi129299EEEELm0ELm0ELb0EES5_IXtlS0_ILm12EEtlA12_cLc115ELc116ELc97ELc114ELc95ELc115ELc116ELc114ELc117ELc99ELc107EEEEXtlS8_tlS9_Lc240ELc159ELc164ELc169EEEEXtlSB_tlSC_LDi129321EEEELm0ELm0ELb0EES5_IXtlSG_tlSH_Lc115ELc117ELc110ELc103ELc108ELc97ELc115ELc115ELc101ELc115EEEEXtlS8_tlS9_Lc240ELc159ELc152ELc142EEEEXtlSB_tlSC_LDi128526EEEELm0ELm0ELb0EES5_IXtlS1_tlS2_Lc112ELc101ELc110ELc115ELc105ELc118ELc101EEEEXtlS8_tlS9_Lc240ELc159ELc152ELc148EEEEXtlSB_tlSC_LDi128532EEEELm0ELm0ELb0EES5_IXtlS1_tlS2_Lc119ELc111ELc114ELc114ELc105ELc101ELc100EEEEXtlS8_tlS9_Lc240ELc159ELc152ELc159EEEEXtlSB_tlSC_LDi128543EEEELm0ELm0ELb0EES5_IXtlS0_ILm14EEtlA14_cLc112ELc108ELc101ELc97ELc100ELc105ELc110ELc103ELc95ELc102ELc97ELc99ELc101EEEEXtlS8_tlS9_Lc240ELc159ELc165ELc186EEEEXtlSB_tlSC_LDi129402EEEELm0ELm0ELb0EES5_IXtlS0_ILm4EEtlA4_cLc99ELc114ELc121EEEEXtlS8_tlS9_Lc240ELc159ELc152ELc162EEEEXtlSB_tlSC_LDi128546EEEELm0ELm0ELb0EES5_IXtlS12_tlS13_Lc115ELc111ELc98EEEEXtlS8_tlS9_Lc240ELc159ELc152ELc173EEEEXtlSB_tlSC_LDi128557EEEELm0ELm0ELb0EES5_IXtlS0_ILm15EEtlA15_cLc101ELc120ELc112ELc108ELc111ELc100ELc105ELc110ELc103ELc95ELc104ELc101ELc97ELc100EEEEXtlS8_tlS9_Lc240ELc159ELc164ELc175EEEEXtlSB_tlSC_LDi129327EEEELm0ELm0ELb0EES5_IXtlS0_ILm7EEtlA7_cLc115ELc99ELc114ELc101ELc97ELc109EEEEXtlS8_tlS9_Lc240ELc159ELc152ELc177EEEEXtlSB_tlSC_LDi128561EEEELm0ELm0ELb0EES5_IXtlS1_tlS2_Lc102ELc101ELc97ELc114ELc102ELc117ELc108EEEEXtlS8_tlS9_Lc240ELc159ELc152ELc168EEEEXtlSB_tlSC_LDi128552EEEELm0ELm0ELb0EES5_IXtlS0_ILm9EEtlA9_cLc116ELc104ELc105ELc110ELc107ELc105ELc110ELc103EEEEXtlS8_tlS9_Lc240ELc159ELc164ELc148EEEEXtlSB_tlSC_LDi129300EEEELm0ELm0ELb0EES5_IXtlSZ_tlS10_Lc115ELc104ELc117ELc115ELc104ELc105ELc110ELc103ELc95ELc102ELc97ELc99ELc101EEEEXtlS8_tlS9_Lc240ELc159ELc164ELc171EEEEXtlSB_tlSC_LDi129323EEEELm0ELm0ELb0EES5_IXtlSZ_tlS10_Lc102ELc97ELc99ELc101ELc95ELc118ELc111ELc109ELc105ELc116ELc105ELc110ELc103EEEEXtlS8_tlS9_Lc240ELc159ELc164ELc174EEEEXtlSB_tlSC_LDi129326EEEELm0ELm0ELb0EES5_IXtlST_tlSU_Lc115ELc109ELc105ELc108ELc105ELc110ELc103ELc95ELc105ELc109ELc112EEEEXtlS8_tlS9_Lc240ELc159ELc152ELc136EEEEXtlSB_tlSC_LDi128520EEEELm0ELm0ELb0EES5_IXtlS0_ILm6EEtlA6_cLc99ELc108ELc111ELc119ELc110EEEEXtlS8_tlS9_Lc240ELc159ELc164ELc161EEEEXtlSB_tlSC_LDi129313EEEELm0ELm0ELb0EES5_IXtlS1J_tlS1K_Lc103ELc104ELc111ELc115ELc116EEEEXtlS8_tlS9_Lc240ELc159ELc145ELc187EEEEXtlSB_tlSC_LDi128123EEEELm0ELm0ELb0EES5_IXtlS1J_tlS1K_Lc115ELc107ELc117ELc108ELc108EEEEXtlS8_tlS9_Lc240ELc159ELc146ELc128EEEEXtlSB_tlSC_LDi128128EEEELm0ELm0ELb0EES5_IXtlS1J_tlS1K_Lc97ELc108ELc105ELc101ELc110EEEEXtlS8_tlS9_Lc240ELc159ELc145ELc189EEEEXtlSB_tlSC_LDi128125EEEELm0ELm0ELb0EES5_IXtlS1J_tlS1K_Lc114ELc111ELc98ELc111ELc116EEEEXtlS8_tlS9_Lc240ELc159ELc164ELc150EEEEXtlSB_tlSC_LDi129302EEEELm0ELm0ELb0EES5_IXtlS8_tlS9_Lc99ELc108ELc97ELc112EEEEXtlS8_tlS9_Lc240ELc159ELc145ELc143EEEEXtlSB_tlSC_LDi128079EEEELm0ELm0ELb0EES5_IXtlSZ_tlS10_Lc109ELc105ELc100ELc100ELc108ELc101ELc95ELc102ELc105ELc110ELc103ELc101ELc114EEEEXtlS8_tlS9_Lc240ELc159ELc150ELc149EEEEXtlSB_tlSC_LDi128405EEEELm0ELm0ELb0EES5_IXtlS8_tlS9_Lc112ELc114ELc97ELc121EEEEXtlS8_tlS9_Lc240ELc159ELc153ELc143EEEEXtlSB_tlSC_LDi128591EEEELm0ELm0ELb0EES5_IXtlS19_tlS1A_Lc116ELc111ELc110ELc103ELc117ELc101EEEEXtlS8_tlS9_Lc240ELc159ELc145ELc133EEEEXtlSB_tlSC_LDi128069EEEELm0ELm0ELb0EES5_IXtlSZ_tlS10_Lc115ELc112ELc101ELc97ELc107ELc105ELc110ELc103ELc95ELc104ELc101ELc97ELc100EEEEXtlS1_tlS2_Lc240ELc159ELc151ELc163ELc239ELc184ELc143EEEEXtlSA_ILm3EEtlA3_DiLDi128483ELDi65039EEEELm0ELm0ELb0EES5_IXtlS8_tlS9_Lc98ELc97ELc98ELc121EEEEXtlS8_tlS9_Lc240ELc159ELc145ELc182EEEEXtlSB_tlSC_LDi128118EEEELm0ELm0ELb0EES5_IXtlST_tlSU_Lc100ELc101ELc97ELc102ELc95ELc112ELc101ELc114ELc115ELc111ELc110EEEEXtlS8_tlS9_Lc240ELc159ELc167ELc143EEEEXtlSB_tlSC_LDi129487EEEELm0ELm0ELb0EES5_IXtlSG_tlSH_Lc100ELc101ELc97ELc102ELc95ELc119ELc111ELc109ELc97ELc110EEEEXtlSZ_tlS10_Lc240ELc159ELc167ELc143ELc226ELc128ELc141ELc226ELc153ELc128ELc239ELc184ELc143EEEEXtlSA_ILm5EEtlA5_DiLDi129487ELDi8205ELDi9792ELDi65039EEEELm0ELm0ELb0EES5_IXtlS1D_tlS1E_Lc100ELc101ELc97ELc102ELc95ELc109ELc97ELc110EEEEXtlSZ_tlS10_Lc240ELc159ELc167ELc143ELc226ELc128ELc141ELc226ELc153ELc130ELc239ELc184ELc143EEEEXtlS1Z_tlS20_LDi129487ELDi8205ELDi9794ELDi65039EEEELm0ELm0ELb0EES5_IXtlS0_ILm22EEtlA22_cLc112ELc101ELc114ELc115ELc111ELc110ELc95ELc105ELc110ELc95ELc115ELc116ELc101ELc97ELc109ELc121ELc95ELc114ELc111ELc111ELc109EEEEXtlS8_tlS9_Lc240ELc159ELc167ELc150EEEEXtlSB_tlSC_LDi129494EEEELm0ELm0ELb0EES5_IXtlS1J_tlS1K_Lc99ELc114ELc111ELc119ELc110EEEEXtlS8_tlS9_Lc240ELc159ELc145ELc145EEEEXtlSB_tlSC_LDi128081EEEELm0ELm0ELb0EES5_IXtlS12_tlS13_Lc100ELc111ELc103EEEEXtlS8_tlS9_Lc240ELc159ELc144ELc182EEEEXtlSB_tlSC_LDi128054EEEELm0ELm0ELb0EES5_IXtlS12_tlS13_Lc99ELc97ELc116EEEEXtlS8_tlS9_Lc240ELc159ELc144ELc177EEEEXtlSB_tlSC_LDi128049EEEELm0ELm0ELb0EES5_IXtlS12_tlS13_Lc102ELc111ELc120EEEEXtlS8_tlS9_Lc240ELc159ELc166ELc138EEEEXtlSB_tlSC_LDi129418EEEELm0ELm0ELb0EES5_IXtlS8_tlS9_Lc98ELc101ELc97ELc114EEEEXtlS8_tlS9_Lc240ELc159ELc144ELc187EEEEXtlSB_tlSC_LDi128059EEEELm0ELm0ELb0EES5_IXtlS12_tlS13_Lc112ELc105ELc103EEEEXtlS8_tlS9_Lc240ELc159ELc144ELc183EEEEXtlSB_tlSC_LDi128055EEEELm0ELm0ELb0EES5_IXtlST_tlSU_Lc109ELc111ELc110ELc107ELc101ELc121ELc95ELc102ELc97ELc99ELc101EEEEXtlS8_tlS9_Lc240ELc159ELc144ELc181EEEEXtlSB_tlSC_LDi128053EEEELm0ELm0ELb0EES5_IXtlST_tlSU_Lc115ELc101ELc101ELc95ELc110ELc111ELc95ELc101ELc118ELc105ELc108EEEEXtlS8_tlS9_Lc240ELc159ELc153ELc136EEEEXtlSB_tlSC_LDi128584EEEELm0ELm0ELb0EES5_IXtlS3_tlS4_Lc104ELc101ELc97ELc114ELc95ELc110ELc111ELc95ELc101ELc118ELc105ELc108EEEEXtlS8_tlS9_Lc240ELc159ELc153ELc137EEEEXtlSB_tlSC_LDi128585EEEELm0ELm0ELb0EES5_IXtlSZ_tlS10_Lc115ELc112ELc101ELc97ELc107ELc95ELc110ELc111ELc95ELc101ELc118ELc105ELc108EEEEXtlS8_tlS9_Lc240ELc159ELc153ELc138EEEEXtlSB_tlSC_LDi128586EEEELm0ELm0ELb0EES5_IXtlS8_tlS9_Lc102ELc105ELc115ELc104EEEEXtlS8_tlS9_Lc240ELc159ELc144ELc159EEEEXtlSB_tlSC_LDi128031EEEELm0ELm0ELb0EES5_IXtlST_tlSU_Lc119ELc105ELc108ELc116ELc101ELc100ELc95ELc114ELc111ELc115ELc101EEEEXtlS8_tlS9_Lc240ELc159ELc165ELc128EEEEXtlSB_tlSC_LDi129344EEEELm0ELm0ELb0EES5_IXtlSZ_tlS10_Lc115ELc117ELc110ELc95ELc119ELc105ELc116ELc104ELc95ELc102ELc97ELc99ELc101EEEEXtlS8_tlS9_Lc240ELc159ELc140ELc158EEEEXtlSB_tlSC_LDi127774EEEELm0ELm0ELb0EES5_IXtlS0_ILm20EEtlA20_cLc102ELc117ELc108ELc108ELc95ELc109ELc111ELc111ELc110ELc95ELc119ELc105ELc116ELc104ELc95ELc102ELc97ELc99ELc101EEEEXtlS8_tlS9_Lc240ELc159ELc140ELc157EEEEXtlSB_tlSC_LDi127773EEEELm0ELm0ELb0EES5_IXtlS0_ILm19EEtlA19_cLc110ELc101ELc119ELc95ELc109ELc111ELc111ELc110ELc95ELc119ELc105ELc116ELc104ELc95ELc102ELc97ELc99ELc101EEEEXtlS8_tlS9_Lc240ELc159ELc140ELc154EEEEXtlSB_tlSC_LDi127770EEEELm0ELm0ELb0EES5_IXtlSP_tlSQ_Lc108ELc97ELc115ELc116ELc95ELc113ELc117ELc97ELc114ELc116ELc101ELc114ELc95ELc109ELc111ELc111ELc110EEEEXtlS8_tlS9_Lc240ELc159ELc140ELc151EEEEXtlSB_tlSC_LDi127767EEEELm0ELm0ELb0EES5_IXtlS1D_tlS1E_Lc110ELc101ELc119ELc95ELc109ELc111ELc111ELc110EEEEXtlS8_tlS9_Lc240ELc159ELc140ELc145EEEEXtlSB_tlSC_LDi127761EEEELm0ELm0ELb0EES5_IXtlS1D_tlS1E_Lc115ELc112ELc97ELc114ELc107ELc108ELc101ELc115EEEEXtlS12_tlS13_Lc226ELc156ELc168EEEEXtlSB_tlSC_LDi10024EEEELm0ELm0ELb0EES5_IXtlS8_tlS9_Lc102ELc105ELc114ELc101EEEEXtlS8_tlS9_Lc240ELc159ELc148ELc165EEEEXtlSB_tlSC_LDi128293EEEELm0ELm0ELb0EES5_IXtlS0_ILm10EEtlA10_cLc115ELc110ELc111ELc119ELc102ELc108ELc97ELc107ELc101EEEEXtlS19_tlS1A_Lc226ELc157ELc132ELc239ELc184ELc143EEEEXtlS1U_tlS1V_LDi10052ELDi65039EEEELm0ELm0ELb0EES5_IXtlS1D_tlS1E_Lc101ELc103ELc103ELc112ELc108ELc97ELc110ELc116EEEEXtlS8_tlS9_Lc240ELc159ELc141ELc134EEEEXtlSB_tlSC_LDi127814EEEELm0ELm0ELb0EES5_IXtlS19_tlS1A_Lc116ELc114ELc111ELc112ELc104ELc121EEEEXtlS8_tlS9_Lc240ELc159ELc143ELc134EEEEXtlSB_tlSC_LDi127942EEEELm0ELm0ELb0EES5_IXtlST_tlSU_Lc102ELc105ELc114ELc115ELc116ELc95ELc112ELc108ELc97ELc99ELc101EEEEXtlS8_tlS9_Lc240ELc159ELc165ELc135EEEEXtlSB_tlSC_LDi129351EEEELm0ELm0ELb0EES5_IXtlS3_tlS4_Lc115ELc101ELc99ELc111ELc110ELc100ELc95ELc112ELc108ELc97ELc99ELc101EEEEXtlS8_tlS9_Lc240ELc159ELc165ELc136EEEEXtlSB_tlSC_LDi129352EEEELm0ELm0ELb0EES5_IXtlST_tlSU_Lc116ELc104ELc105ELc114ELc100ELc95ELc112ELc108ELc97ELc99ELc101EEEEXtlS8_tlS9_Lc240ELc159ELc165ELc137EEEEXtlSB_tlSC_LDi129353EEEELm0ELm0ELb0EES5_IXtlS1J_tlS1K_Lc109ELc101ELc100ELc97ELc108EEEEXtlS8_tlS9_Lc240ELc159ELc143ELc133EEEEXtlSB_tlSC_LDi127941EEEELm0ELm0ELb0EES5_IXtlS19_tlS1A_Lc114ELc111ELc99ELc107ELc101ELc116EEEEXtlS8_tlS9_Lc240ELc159ELc154ELc128EEEEXtlSB_tlSC_LDi128640EEEELm0ELm0ELb0EES5_IXtlSZ_tlS10_Lc102ELc108ELc121ELc105ELc110ELc103ELc95ELc115ELc97ELc117ELc99ELc101ELc114EEEEXtlS8_tlS9_Lc240ELc159ELc155ELc184EEEEXtlSB_tlSC_LDi128760EEEELm0ELm0ELb0EES5_IXtlS1J_tlS1K_Lc109ELc111ELc121ELc97ELc105EEEEXtlS8_tlS9_Lc240ELc159ELc151ELc191EEEEXtlSB_tlSC_LDi128511EEEELm0ELm0ELb0EES5_IXtlSP_tlSQ_Lc99ELc97ELc109ELc101ELc114ELc97ELc95ELc119ELc105ELc116ELc104ELc95ELc102ELc108ELc97ELc115ELc104EEEEXtlS8_tlS9_Lc240ELc159ELc147ELc184EEEEXtlSB_tlSC_LDi128248EEEELm0ELm0ELb0EES5_IXtlS12_tlS13_Lc103ELc117ELc110EEEEXtlS8_tlS9_Lc240ELc159ELc148ELc171EEEEXtlSB_tlSC_LDi128299EEEELm0ELm0ELb0EES5_IXtlS0_ILm23EEtlA23_cLc115ELc108ELc101ELc101ELc112ELc105ELc110ELc103ELc95ELc97ELc99ELc99ELc111ELc109ELc109ELc111ELc100ELc97ELc116ELc105ELc111ELc110EEEEXtlS8_tlS9_Lc240ELc159ELc155ELc140EEEEXtlSB_tlSC_LDi128716EEEELm0ELm0ELb0EES5_IXtlS3_tlS4_Lc112ELc97ELc114ELc116ELc121ELc95ELc112ELc111ELc112ELc112ELc101ELc114EEEEXtlS8_tlS9_Lc240ELc159ELc142ELc137EEEEXtlSB_tlSC_LDi127881EEEELm0ELm0ELb0EES5_IXtlS1J_tlS1K_Lc104ELc101ELc97ELc114ELc116EEEEXtlS19_tlS1A_Lc226ELc157ELc164ELc239ELc184ELc143EEEEXtlS1U_tlS1V_LDi10084ELDi65039EEEELm0ELm0ELb0EES5_IXtlS3_tlS4_Lc98ELc114ELc111ELc107ELc101ELc110ELc95ELc104ELc101ELc97ELc114ELc116EEEEXtlS8_tlS9_Lc240ELc159ELc146ELc148EEEEXtlSB_tlSC_LDi128148EEEELm0ELm0ELb0EES5_IXtlST_tlSU_Lc114ELc97ELc100ELc105ELc111ELc97ELc99ELc116ELc105ELc118ELc101EEEEXtlS19_tlS1A_Lc226ELc152ELc162ELc239ELc184ELc143EEEEXtlS1U_tlS1V_LDi9762ELDi65039EEEELm0ELm0ELb0EES5_IXtlS12_tlS13_Lc49ELc48ELc48EEEEXtlS8_tlS9_Lc240ELc159ELc146ELc175EEEEXtlSB_tlSC_LDi128175EEEELm0ELm0ELb0EES5_IXtlS1D_tlS1E_Lc113ELc117ELc101ELc115ELc116ELc105ELc111ELc110EEEEXtlS12_tlS13_Lc226ELc157ELc147EEEEXtlSB_tlSC_LDi10067EEEELm0ELm0ELb0EES5_IXtlS1D_tlS1E_Lc98ELc97ELc110ELc103ELc98ELc97ELc110ELc103EEEEXtlS19_tlS1A_Lc226ELc128ELc188ELc239ELc184ELc143EEEEXtlS1U_tlS1V_LDi8252ELDi65039EEEELm0ELm0ELb0EES5_IXtlS8_tlS9_Lc122ELc101ELc114ELc111EEEEXtlS1_tlS2_Lc48ELc239ELc184ELc143ELc226ELc131ELc163EEEEXtlSA_ILm4EEtlA4_DiLDi48ELDi65039ELDi8419EEEELm0ELm0ELb0EES5_IXtlS12_tlS13_Lc111ELc110ELc101EEEEXtlS1_tlS2_Lc49ELc239ELc184ELc143ELc226ELc131ELc163EEEEXtlS3H_tlS3I_LDi49ELDi65039ELDi8419EEEELm0ELm0ELb0EES5_IXtlS12_tlS13_Lc116ELc119ELc111EEEEXtlS1_tlS2_Lc50ELc239ELc184ELc143ELc226ELc131ELc163EEEEXtlS3H_tlS3I_LDi50ELDi65039ELDi8419EEEELm0ELm0ELb0EES5_IXtlS1J_tlS1K_Lc116ELc104ELc114ELc101ELc101EEEEXtlS1_tlS2_Lc51ELc239ELc184ELc143ELc226ELc131ELc163EEEEXtlS3H_tlS3I_LDi51ELDi65039ELDi8419EEEELm0ELm0ELb0EES5_IXtlS8_tlS9_Lc102ELc111ELc117ELc114EEEEXtlS1_tlS2_Lc52ELc239ELc184ELc143ELc226ELc131ELc163EEEEXtlS3H_tlS3I_LDi52ELDi65039ELDi8419EEEELm0ELm0ELb0EES5_IXtlS8_tlS9_Lc102ELc105ELc118ELc101EEEEXtlS1_tlS2_Lc53ELc239ELc184ELc143ELc226ELc131ELc163EEEEXtlS3H_tlS3I_LDi53ELDi65039ELDi8419EEEELm0ELm0ELb0EES5_IXtlS12_tlS13_Lc115ELc105ELc120EEEEXtlS1_tlS2_Lc54ELc239ELc184ELc143ELc226ELc131ELc163EEEEXtlS3H_tlS3I_LDi54ELDi65039ELDi8419EEEELm0ELm0ELb0EES5_IXtlS1J_tlS1K_Lc115ELc101ELc118ELc101ELc110EEEEXtlS1_tlS2_Lc55ELc239ELc184ELc143ELc226ELc131ELc163EEEEXtlS3H_tlS3I_LDi55ELDi65039ELDi8419EEEELm0ELm0ELb0EES5_IXtlS1J_tlS1K_Lc101ELc105ELc103ELc104ELc116EEEEXtlS1_tlS2_Lc56ELc239ELc184ELc143ELc226ELc131ELc163EEEEXtlS3H_tlS3I_LDi56ELDi65039ELDi8419EEEELm0ELm0ELb0EES5_IXtlS8_tlS9_Lc110ELc105ELc110ELc101EEEEXtlS1_tlS2_Lc57ELc239ELc184ELc143ELc226ELc131ELc163EEEEXtlS3H_tlS3I_LDi57ELDi65039ELDi8419EEEELm0ELm0ELb0EES5_IXtlS3_tlS4_Lc115ELc104ELc111ELc99ELc107ELc101ELc100ELc95ELc102ELc97ELc99ELc101EEEEXtlS8_tlS9_Lc240ELc159ELc152ELc177EEEEXtlSB_tlSC_LDi128561EEEELm0ELm0ELb1EES5_IXtlS3_tlS4_Lc102ELc111ELc108ELc100ELc101ELc100ELc95ELc104ELc97ELc110ELc100ELc115EEEEXtlS8_tlS9_Lc240ELc159ELc153ELc143EEEEXtlSB_tlSC_LDi128591EEEELm0ELm0ELb1EES5_IXtlS8_tlS9_Lc116ELc97ELc100ELc97EEEEXtlS8_tlS9_Lc240ELc159ELc142ELc137EEEEXtlSB_tlSC_LDi127881EEEELm0ELm0ELb1EEEE11getCategoryEv
PUBLIC 6c22c 0 _ZN10EmojiGroupIXtl13StringLiteralILm11EEtlA11_cLc76ELc101ELc103ELc97ELc99ELc121ELc32ELc83ELc101ELc116EEEEXtlS0_ILm6EEtlA6_cLc58ELc110ELc101ELc100ELc58EEEEJ7UnimojiIXtlS0_ILm8EEtlA8_cLc97ELc109ELc111ELc110ELc103ELc117ELc115EEEELDi114736ELm0ELm0ELb0EES5_IXtlS0_ILm7EEtlA7_cLc97ELc109ELc111ELc103ELc117ELc115EEEELDi114737ELm0ELm0ELb0EES5_IXtlS0_ILm5EEtlA5_cLc98ELc114ELc117ELc104EEEELDi114738ELm0ELm0ELb0EES5_IXtlS9_tlSA_Lc99ELc97ELc114ELc108ELc111ELc115EEEELDi114739ELm0ELm0ELb0EES5_IXtlS0_ILm9EEtlA9_cLc99ELc108ELc117ELc101ELc108ELc101ELc115ELc115EEEELDi114740ELm0ELm0ELb0EES5_IXtlS6_tlS7_Lc100ELc101ELc115ELc112ELc97ELc105ELc114EEEELDi114741ELm0ELm0ELb0EES5_IXtlSG_tlSH_Lc100ELc101ELc115ELc112ELc97ELc105ELc114ELc50EEEELDi114742ELm0ELm0ELb0EES5_IXtlS0_ILm4EEtlA4_cLc110ELc101ELc100EEEELDi114743ELm0ELm0ELb0EES5_IXtlS9_tlSA_Lc112ELc117ELc115ELc97ELc98ELc63EEEELDi114744ELm0ELm0ELb0EES5_IXtlSG_tlSH_Lc114ELc111ELc98ELc115ELc109ELc105ELc108ELc101EEEELDi114745ELm0ELm0ELb0EES5_IXtlSL_tlSM_Lc115ELc105ELc112EEEELDi114746ELm0ELm0ELb0EES5_IXtlS3_tlS4_Lc115ELc112ELc108ELc97ELc116EEEELDi114747ELm0ELm0ELb0EES5_IXtlS9_tlSA_Lc116ELc101ELc101ELc104ELc101ELc101EEEELDi114748ELm0ELm0ELb0EES5_IXtlS0_ILm10EEtlA10_cLc116ELc114ELc111ELc108ELc108ELc102ELc97ELc99ELc101EEEELDi114749ELm0ELm0ELb0EES5_IXtlSC_tlSD_Lc116ELc114ELc117ELc101EEEELDi114750ELm0ELm0ELb0EES5_IXtlS9_tlSA_Lc119ELc97ELc108ELc116ELc101ELc114EEEELDi114751ELm0ELm0ELb0EES5_IXtlSL_tlSM_Lc119ELc104ELc97EEEELDi114752ELm0ELm0ELb0EES5_IXtlST_tlSU_Lc119ELc104ELc97ELc100ELc97ELc104ELc101ELc108ELc108EEEELDi114753ELm0ELm0ELb0EES5_IXtlST_tlSU_Lc121ELc111ELc117ELc115ELc104ELc111ELc117ELc108ELc100EEEELDi114754ELm0ELm0ELb0EES5_IXtlSL_tlSM_Lc99ELc97ELc114EEEELDi114755ELm0ELm0ELb0EES5_IXtlS3_tlS4_Lc122ELc111ELc105ELc110ELc107EEEELDi114756ELm0ELm0ELb0EES5_IXtlS6_tlS7_Lc115ELc104ELc111ELc99ELc107ELc101ELc100EEEELDi114757ELm0ELm0ELb0EES5_IXtlS0_ILm14EEtlA14_cLc112ELc111ELc112ELc112ELc105ELc110ELc98ELc111ELc116ELc116ELc108ELc101ELc115EEEELDi114758ELm0ELm0ELb0EES5_IXtlS3_tlS4_Lc112ELc97ELc114ELc116ELc121EEEELDi114759ELm0ELm0ELb0EES5_IXtlS9_tlSA_Lc112ELc111ELc116ELc98ELc111ELc114EEEELDi114760ELm0ELm0ELb0EES5_IXtlS6_tlS7_Lc100ELc97ELc98ELc109ELc101ELc117ELc112EEEELDi114761ELm0ELm0ELb0EES5_IXtlS14_tlS15_Lc102ELc105ELc114ELc101ELc105ELc110ELc116ELc104ELc101ELc104ELc111ELc108ELc101EEEELDi114762ELm0ELm0ELb0EES5_IXtlS9_tlSA_Lc102ELc105ELc110ELc103ELc101ELc114EEEELDi114763ELm0ELm0ELb0EES5_IXtlS3_tlS4_Lc115ELc111ELc103ELc103ELc121EEEELDi114764ELm0ELm0ELb0EES5_IXtlSC_tlSD_Lc109ELc97ELc121ELc111EEEELDi114765ELm0ELm0ELb0EES5_IXtlS9_tlSA_Lc100ELc105ELc118ELc105ELc110ELc101EEEELDi114766ELm0ELm0ELb0EES5_IXtlS3_tlS4_Lc98ELc117ELc101ELc110ELc111EEEELDi114767ELm0ELm0ELb0EES5_IXtlS1_tlS2_Lc114ELc97ELc116ELc116ELc108ELc101ELc100ELc97ELc115ELc104EEEELDi114768ELm0ELm0ELb0EES5_IXtlS0_ILm3EEtlA3_cLc103ELc100EEEELDi114769ELm0ELm0ELb0EES5_IXtlS3_tlS4_Lc103ELc101ELc111ELc100ELc101EEEELDi114770ELm0ELm0ELb0EES5_IXtlSC_tlSD_Lc98ELc111ELc97ELc114EEEELDi114771ELm0ELm0ELb0EES5_IXtlS9_tlSA_Lc109ELc101ELc119ELc104ELc101ELc110EEEELDi114772ELm0ELm0ELb0EES5_IXtlS0_ILm12EEtlA12_cLc99ELc104ELc97ELc110ELc103ELc101ELc116ELc111ELc112ELc105ELc99EEEELDi114773ELm0ELm0ELb0EES5_IXtlS1_tlS2_Lc116ELc111ELc117ELc99ELc104ELc103ELc114ELc97ELc115ELc115EEEELDi114774ELm0ELm0ELb0EES5_IXtlSG_tlSH_Lc103ELc103ELc103ELc103ELc103ELc103ELc103ELc103EEEELDi114775ELm0ELm0ELb0EES5_IXtlSC_tlSD_Lc103ELc100ELc111ELc107EEEELDi114776ELm0ELm0ELb0EES5_IXtlSL_tlSM_Lc104ELc117ELc103EEEELDi114777ELm0ELm0ELb0EES5_IXtlSC_tlSD_Lc97ELc110ELc103ELc121EEEELDi114778ELm0ELm0ELb0EES5_IXtlSC_tlSD_Lc108ELc101ELc119ELc100EEEELDi114779ELm0ELm0ELb0EES5_IXtlS6_tlS7_Lc104ELc101ELc97ELc100ELc112ELc97ELc116EEEELDi114780ELm0ELm0ELb0EES5_IXtlSG_tlSH_Lc116ELc114ELc97ELc110ELc115ELc99ELc97ELc116EEEELDi114781ELm0ELm0ELb0EES5_IXtlST_tlSU_Lc116ELc114ELc97ELc110ELc115ELc99ELc97ELc116ELc50EEEELDi114782ELm0ELm0ELb0EES5_IXtlS1_tlS2_Lc115ELc107ELc105ELc108ELc108ELc105ELc115ELc115ELc117ELc101EEEELDi114783ELm0ELm0ELb0EES5_IXtlSL_tlSM_Lc121ELc101ELc115EEEELDi114784ELm0ELm0ELb0EES5_IXtlS6_tlS7_Lc103ELc117ELc110ELc108ELc101ELc102ELc116EEEELDi114785ELm0ELm0ELb0EES5_IXtlSG_tlSH_Lc103ELc117ELc110ELc114ELc105ELc103ELc104ELc116EEEELDi114786ELm0ELm0ELb0EES5_IXtlSC_tlSD_Lc101ELc100ELc103ELc101EEEELDi114787ELm0ELm0ELb0EES5_IXtlS6_tlS7_Lc99ELc111ELc108ELc111ELc103ELc110ELc101EEEELDi114788ELm0ELm0ELb0EES5_IXtlS9_tlSA_Lc103ELc108ELc111ELc98ELc101ELc100EEEELDi114789ELm0ELm0ELb0EES5_IXtlS0_ILm16EEtlA16_cLc108ELc101ELc118ELc101ELc108ELc116ELc104ELc117ELc109ELc98ELc110ELc97ELc105ELc108ELc115EEEELDi114790ELm0ELm0ELb0EES5_IXtlS1H_tlS1I_Lc111ELc104EEEELDi114791ELm0ELm0ELb0EES5_IXtlSG_tlSH_Lc104ELc111ELc108ELc121ELc109ELc111ELc108ELc121EEEELDi114792ELm0ELm0ELb0EES5_IXtlS14_tlS15_Lc49ELc48ELc48ELc48ELc121ELc97ELc114ELc100ELc115ELc116ELc97ELc114ELc101EEEELDi114793ELm0ELm0ELb0EES5_IXtlST_tlSU_Lc115ELc112ELc117ELc110ELc99ELc104ELc98ELc111ELc98EEEELDi114794ELm0ELm0ELb0EES5_IXtlSG_tlSH_Lc102ELc114ELc101ELc97ELc107ELc98ELc111ELc98EEEELDi114795ELm0ELm0ELb0EES5_IXtlS3_tlS4_Lc110ELc117ELc104ELc117ELc104EEEELDi114796ELm0ELm0ELb0EES5_IXtlS3_tlS4_Lc121ELc117ELc104ELc117ELc104EEEELDi114797ELm0ELm0ELb0EES5_IXtlS9_tlSA_Lc115ELc104ELc105ELc103ELc103ELc121EEEELDi116224ELm10ELm50ELb0EES5_IXtlSC_tlSD_Lc104ELc121ELc112ELc101EEEELDi116225ELm10ELm14ELb0EES5_IXtlS1_tlS2_Lc112ELc101ELc116ELc109ELc97ELc117ELc114ELc105ELc99ELc101EEEELDi116226ELm5ELm20ELb0EES5_IXtlSC_tlSD_Lc98ELc111ELc110ELc107EEEELDi116227ELm17ELm16ELb0EES5_IXtlSG_tlSH_Lc112ELc97ELc114ELc116ELc121ELc105ELc110ELc103EEEELDi116228ELm12ELm25ELb0EES5_IXtlS14_tlS15_Lc110ELc101ELc100ELc95ELc101ELc120ELc112ELc108ELc111ELc115ELc105ELc111ELc110EEEELDi116229ELm12ELm50ELb0EES5_IXtlST_tlSU_Lc112ELc111ELc108ELc97ELc114ELc98ELc101ELc97ELc114EEEELDi116230ELm13ELm33ELb0EES5_IXtlS14_tlS15_Lc99ELc111ELc108ELc111ELc110ELc116ELc104ELc114ELc101ELc101ELc99ELc97ELc116EEEELDi116231ELm111ELm33ELb0EES5_IXtlS0_ILm19EEtlA19_cLc100ELc101ELc108ELc116ELc97ELc114ELc117ELc110ELc101ELc101ELc120ELc112ELc108ELc111ELc115ELc105ELc111ELc110EEEELDi116235ELm17ELm17ELb0EEEE11getCategoryEv
PUBLIC 70f10 0 std::__ndk1::__exception_guard_exceptions<std::__ndk1::vector<std::__ndk1::pair<std::__ndk1::basic_string<char, std::__ndk1::char_traits<char>, std::__ndk1::allocator<char> >, unsigned long>, std::__ndk1::allocator<std::__ndk1::pair<std::__ndk1::basic_string<char, std::__ndk1::char_traits<char>, std::__ndk1::allocator<char> >, unsigned long> > >::__destroy_vector>::~__exception_guard_exceptions[abi:ne190000]()
PUBLIC 70f9c 0 std::__ndk1::vector<std::__ndk1::pair<std::__ndk1::basic_string<char, std::__ndk1::char_traits<char>, std::__ndk1::allocator<char> >, unsigned long>, std::__ndk1::allocator<std::__ndk1::pair<std::__ndk1::basic_string<char, std::__ndk1::char_traits<char>, std::__ndk1::allocator<char> >, unsigned long> > >::__throw_length_error[abi:ne190000]() const
PUBLIC 70fb0 0 std::__ndk1::__exception_guard_exceptions<std::__ndk1::_AllocatorDestroyRangeReverse<std::__ndk1::allocator<std::__ndk1::pair<std::__ndk1::basic_string<char, std::__ndk1::char_traits<char>, std::__ndk1::allocator<char> >, unsigned long> >, std::__ndk1::pair<std::__ndk1::basic_string<char, std::__ndk1::char_traits<char>, std::__ndk1::allocator<char> >, unsigned long>*> >::~__exception_guard_exceptions[abi:ne190000]()
PUBLIC 71010 0 std::__ndk1::__introsort<std::__ndk1::_RangeAlgPolicy, EmojiPicker::getFrequentlyUsedEmojis()::$_0&, std::__ndk1::pair<std::__ndk1::basic_string<char, std::__ndk1::char_traits<char>, std::__ndk1::allocator<char> >, unsigned long>*, false>(std::__ndk1::pair<std::__ndk1::basic_string<char, std::__ndk1::char_traits<char>, std::__ndk1::allocator<char> >, unsigned long>*, std::__ndk1::pair<std::__ndk1::basic_string<char, std::__ndk1::char_traits<char>, std::__ndk1::allocator<char> >, unsigned long>*, EmojiPicker::getFrequentlyUsedEmojis()::$_0&, std::__ndk1::iterator_traits<std::__ndk1::pair<std::__ndk1::basic_string<char, std::__ndk1::char_traits<char>, std::__ndk1::allocator<char> >, unsigned long>*>::difference_type, bool)
PUBLIC 7248c 0 std::__ndk1::__insertion_sort_incomplete[abi:ne190000]<std::__ndk1::_RangeAlgPolicy, EmojiPicker::getFrequentlyUsedEmojis()::$_0&, std::__ndk1::pair<std::__ndk1::basic_string<char, std::__ndk1::char_traits<char>, std::__ndk1::allocator<char> >, unsigned long>*>(std::__ndk1::pair<std::__ndk1::basic_string<char, std::__ndk1::char_traits<char>, std::__ndk1::allocator<char> >, unsigned long>*, std::__ndk1::pair<std::__ndk1::basic_string<char, std::__ndk1::char_traits<char>, std::__ndk1::allocator<char> >, unsigned long>*, EmojiPicker::getFrequentlyUsedEmojis()::$_0&)
PUBLIC 72a08 0 std::__ndk1::__sort4[abi:ne190000]<std::__ndk1::_RangeAlgPolicy, EmojiPicker::getFrequentlyUsedEmojis()::$_0&, std::__ndk1::pair<std::__ndk1::basic_string<char, std::__ndk1::char_traits<char>, std::__ndk1::allocator<char> >, unsigned long>*>(std::__ndk1::pair<std::__ndk1::basic_string<char, std::__ndk1::char_traits<char>, std::__ndk1::allocator<char> >, unsigned long>*, std::__ndk1::pair<std::__ndk1::basic_string<char, std::__ndk1::char_traits<char>, std::__ndk1::allocator<char> >, unsigned long>*, std::__ndk1::pair<std::__ndk1::basic_string<char, std::__ndk1::char_traits<char>, std::__ndk1::allocator<char> >, unsigned long>*, std::__ndk1::pair<std::__ndk1::basic_string<char, std::__ndk1::char_traits<char>, std::__ndk1::allocator<char> >, unsigned long>*, EmojiPicker::getFrequentlyUsedEmojis()::$_0&)
PUBLIC 72c38 0 FeedbackButton::~FeedbackButton()
PUBLIC 72cb8 0 FeedbackButton::~FeedbackButton()
PUBLIC 72d40 0 cocos2d::CCNodeRGBA::setOpacityModifyRGB(bool)
PUBLIC 72d44 0 cocos2d::CCNodeRGBA::isOpacityModifyRGB()
PUBLIC 72d4c 0 FeedbackButton::selected()
PUBLIC 72dc8 0 FeedbackButton::unselected()
PUBLIC 72df0 0 {virtual override thunk({offset(-320)}, cocos2d::CCNodeRGBA::setOpacityModifyRGB(bool))}
PUBLIC 72df4 0 {virtual override thunk({offset(-320)}, cocos2d::CCNodeRGBA::isOpacityModifyRGB())}
PUBLIC 72dfc 0 FeedbackButton::onHold()
PUBLIC 72e38 0 FeedbackButton::onClicked(cocos2d::CCObject*)
PUBLIC 72e64 0 std::__ndk1::__variant_detail::__visitation::__base::__dispatcher<(unsigned long)0>::__dispatch[abi:ne190000]<std::__ndk1::__variant_detail::__dtor<std::__ndk1::__variant_detail::__traits<bool, std::__ndk1::basic_string<char, std::__ndk1::char_traits<char>, std::__ndk1::allocator<char> > >, (std::__ndk1::__variant_detail::_Trait)1>::__destroy[abi:ne190000]()::{lambda(auto:1&)#1}, std::__ndk1::__variant_detail::__base<(std::__ndk1::__variant_detail::__traits<bool, std::__ndk1::basic_string<char, std::__ndk1::char_traits<char>, std::__ndk1::allocator<char> > >)1, bool, std::__ndk1::allocator<char> >&>(std::__ndk1::__variant_detail::__dtor<std::__ndk1::__variant_detail::__traits<bool, std::__ndk1::basic_string<char, std::__ndk1::char_traits<char>, std::__ndk1::allocator<char> > >, (std::__ndk1::__variant_detail::_Trait)1>, std::__ndk1::__variant_detail::__base<(std::__ndk1::__variant_detail::__traits<bool, std::__ndk1::basic_string<char, std::__ndk1::char_traits<char>, std::__ndk1::allocator<char> > >)1, bool, std::__ndk1::allocator<char> >&)
PUBLIC 72e68 0 std::__ndk1::__variant_detail::__visitation::__base::__dispatcher<(unsigned long)1>::__dispatch[abi:ne190000]<std::__ndk1::__variant_detail::__dtor<std::__ndk1::__variant_detail::__traits<bool, std::__ndk1::basic_string<char, std::__ndk1::char_traits<char>, std::__ndk1::allocator<char> > >, (std::__ndk1::__variant_detail::_Trait)1>::__destroy[abi:ne190000]()::{lambda(auto:1&)#1}, std::__ndk1::__variant_detail::__base<(std::__ndk1::__variant_detail::__traits<bool, std::__ndk1::basic_string<char, std::__ndk1::char_traits<char>, std::__ndk1::allocator<char> > >)1, bool, std::__ndk1::allocator<char> >&>(std::__ndk1::__variant_detail::__dtor<std::__ndk1::__variant_detail::__traits<bool, std::__ndk1::basic_string<char, std::__ndk1::char_traits<char>, std::__ndk1::allocator<char> > >, (std::__ndk1::__variant_detail::_Trait)1>, std::__ndk1::__variant_detail::__base<(std::__ndk1::__variant_detail::__traits<bool, std::__ndk1::basic_string<char, std::__ndk1::char_traits<char>, std::__ndk1::allocator<char> > >)1, bool, std::__ndk1::allocator<char> >&)
PUBLIC 72e7c 0 geode::Popup<CCTextInputNode*>::CloseEvent::~CloseEvent()
PUBLIC 72edc 0 geode::Popup<CCTextInputNode*>::CloseEvent::~CloseEvent()
PUBLIC 72f4c 0 std::__ndk1::__shared_ptr_emplace<geode::Popup<CCTextInputNode*>::CloseEvent::Impl, std::__ndk1::allocator<geode::Popup<CCTextInputNode*>::CloseEvent::Impl> >::~__shared_ptr_emplace()
PUBLIC 72f5c 0 std::__ndk1::__shared_ptr_emplace<geode::Popup<CCTextInputNode*>::CloseEvent::Impl, std::__ndk1::allocator<geode::Popup<CCTextInputNode*>::CloseEvent::Impl> >::~__shared_ptr_emplace()
PUBLIC 72f8c 0 std::__ndk1::__shared_ptr_emplace<geode::Popup<CCTextInputNode*>::CloseEvent::Impl, std::__ndk1::allocator<geode::Popup<CCTextInputNode*>::CloseEvent::Impl> >::__on_zero_shared()
PUBLIC 72f90 0 std::__ndk1::__shared_ptr_emplace<geode::Popup<CCTextInputNode*>::CloseEvent::Impl, std::__ndk1::allocator<geode::Popup<CCTextInputNode*>::CloseEvent::Impl> >::__on_zero_shared_weak()
PUBLIC 72f94 0 geode::SettingChangedFilterV3::~SettingChangedFilterV3()
PUBLIC 72fe4 0 std::__ndk1::__function::__base<void (std::__ndk1::shared_ptr<geode::SettingV3>)>::~__base()
PUBLIC 72fe8 0 std::__ndk1::__function::__func<geode::listenForSettingChangesV3<long, getUIScale()::$_0>(std::__ndk1::basic_string_view<char, std::__ndk1::char_traits<char> >, getUIScale()::$_0&&, geode::Mod*)::{lambda(std::__ndk1::shared_ptr<geode::SettingV3>)#1}, std::__ndk1::allocator<geode::listenForSettingChangesV3<long, getUIScale()::$_0>(std::__ndk1::basic_string_view<char, std::__ndk1::char_traits<char> >, getUIScale()::$_0&&, geode::Mod*)::{lambda(std::__ndk1::shared_ptr<geode::SettingV3>)#1}>, void (std::__ndk1::shared_ptr<geode::SettingV3>)>::~__func()
PUBLIC 72fec 0 std::__ndk1::__function::__func<geode::listenForSettingChangesV3<long, getUIScale()::$_0>(std::__ndk1::basic_string_view<char, std::__ndk1::char_traits<char> >, getUIScale()::$_0&&, geode::Mod*)::{lambda(std::__ndk1::shared_ptr<geode::SettingV3>)#1}, std::__ndk1::allocator<geode::listenForSettingChangesV3<long, getUIScale()::$_0>(std::__ndk1::basic_string_view<char, std::__ndk1::char_traits<char> >, getUIScale()::$_0&&, geode::Mod*)::{lambda(std::__ndk1::shared_ptr<geode::SettingV3>)#1}>, void (std::__ndk1::shared_ptr<geode::SettingV3>)>::__clone() const
PUBLIC 73024 0 std::__ndk1::__function::__func<geode::listenForSettingChangesV3<long, getUIScale()::$_0>(std::__ndk1::basic_string_view<char, std::__ndk1::char_traits<char> >, getUIScale()::$_0&&, geode::Mod*)::{lambda(std::__ndk1::shared_ptr<geode::SettingV3>)#1}, std::__ndk1::allocator<geode::listenForSettingChangesV3<long, getUIScale()::$_0>(std::__ndk1::basic_string_view<char, std::__ndk1::char_traits<char> >, getUIScale()::$_0&&, geode::Mod*)::{lambda(std::__ndk1::shared_ptr<geode::SettingV3>)#1}>, void (std::__ndk1::shared_ptr<geode::SettingV3>)>::__clone(std::__ndk1::__function::__base<void (std::__ndk1::shared_ptr<geode::SettingV3>)>*) const
PUBLIC 7303c 0 std::__ndk1::__function::__func<geode::listenForSettingChangesV3<long, getUIScale()::$_0>(std::__ndk1::basic_string_view<char, std::__ndk1::char_traits<char> >, getUIScale()::$_0&&, geode::Mod*)::{lambda(std::__ndk1::shared_ptr<geode::SettingV3>)#1}, std::__ndk1::allocator<geode::listenForSettingChangesV3<long, getUIScale()::$_0>(std::__ndk1::basic_string_view<char, std::__ndk1::char_traits<char> >, getUIScale()::$_0&&, geode::Mod*)::{lambda(std::__ndk1::shared_ptr<geode::SettingV3>)#1}>, void (std::__ndk1::shared_ptr<geode::SettingV3>)>::destroy()
PUBLIC 73040 0 std::__ndk1::__function::__func<geode::listenForSettingChangesV3<long, getUIScale()::$_0>(std::__ndk1::basic_string_view<char, std::__ndk1::char_traits<char> >, getUIScale()::$_0&&, geode::Mod*)::{lambda(std::__ndk1::shared_ptr<geode::SettingV3>)#1}, std::__ndk1::allocator<geode::listenForSettingChangesV3<long, getUIScale()::$_0>(std::__ndk1::basic_string_view<char, std::__ndk1::char_traits<char> >, getUIScale()::$_0&&, geode::Mod*)::{lambda(std::__ndk1::shared_ptr<geode::SettingV3>)#1}>, void (std::__ndk1::shared_ptr<geode::SettingV3>)>::destroy_deallocate()
PUBLIC 73044 0 std::__ndk1::__function::__func<geode::listenForSettingChangesV3<long, getUIScale()::$_0>(std::__ndk1::basic_string_view<char, std::__ndk1::char_traits<char> >, getUIScale()::$_0&&, geode::Mod*)::{lambda(std::__ndk1::shared_ptr<geode::SettingV3>)#1}, std::__ndk1::allocator<geode::listenForSettingChangesV3<long, getUIScale()::$_0>(std::__ndk1::basic_string_view<char, std::__ndk1::char_traits<char> >, getUIScale()::$_0&&, geode::Mod*)::{lambda(std::__ndk1::shared_ptr<geode::SettingV3>)#1}>, void (std::__ndk1::shared_ptr<geode::SettingV3>)>::operator()(std::__ndk1::shared_ptr<geode::SettingV3>&&)
PUBLIC 73130 0 std::__ndk1::__function::__func<geode::listenForSettingChangesV3<long, getUIScale()::$_0>(std::__ndk1::basic_string_view<char, std::__ndk1::char_traits<char> >, getUIScale()::$_0&&, geode::Mod*)::{lambda(std::__ndk1::shared_ptr<geode::SettingV3>)#1}, std::__ndk1::allocator<geode::listenForSettingChangesV3<long, getUIScale()::$_0>(std::__ndk1::basic_string_view<char, std::__ndk1::char_traits<char> >, getUIScale()::$_0&&, geode::Mod*)::{lambda(std::__ndk1::shared_ptr<geode::SettingV3>)#1}>, void (std::__ndk1::shared_ptr<geode::SettingV3>)>::target(std::type_info const&) const
PUBLIC 7314c 0 std::__ndk1::__function::__func<geode::listenForSettingChangesV3<long, getUIScale()::$_0>(std::__ndk1::basic_string_view<char, std::__ndk1::char_traits<char> >, getUIScale()::$_0&&, geode::Mod*)::{lambda(std::__ndk1::shared_ptr<geode::SettingV3>)#1}, std::__ndk1::allocator<geode::listenForSettingChangesV3<long, getUIScale()::$_0>(std::__ndk1::basic_string_view<char, std::__ndk1::char_traits<char> >, getUIScale()::$_0&&, geode::Mod*)::{lambda(std::__ndk1::shared_ptr<geode::SettingV3>)#1}>, void (std::__ndk1::shared_ptr<geode::SettingV3>)>::target_type() const
PUBLIC 73158 0 geode::cast::traverseTypeinfoFor(void*, geode::cast::ClassTypeinfoType const*, char const*)
PUBLIC 73250 0 geode::EventListener<geode::SettingChangedFilterV3>::getPool() const
PUBLIC 73254 0 geode::EventListener<geode::SettingChangedFilterV3>::handle(geode::Event*)
PUBLIC 733b8 0 geode::EventListener<geode::SettingChangedFilterV3>::~EventListener()
PUBLIC 73454 0 geode::EventListener<geode::SettingChangedFilterV3>::~EventListener()
PUBLIC 734f8 0 geode::Popup<CCTextInputNode*>::initBase(float, float, CCTextInputNode*, char const*, cocos2d::CCRect, bool)
PUBLIC 73808 0 std::__ndk1::__function::__func<EmojiPicker::setup(CCTextInputNode*)::$_0, std::__ndk1::allocator<EmojiPicker::setup(CCTextInputNode*)::$_0>, void (CCMenuItemSpriteExtra*)>::~__func()
PUBLIC 7380c 0 std::__ndk1::__function::__func<EmojiPicker::setup(CCTextInputNode*)::$_0, std::__ndk1::allocator<EmojiPicker::setup(CCTextInputNode*)::$_0>, void (CCMenuItemSpriteExtra*)>::__clone() const
PUBLIC 73840 0 std::__ndk1::__function::__func<EmojiPicker::setup(CCTextInputNode*)::$_0, std::__ndk1::allocator<EmojiPicker::setup(CCTextInputNode*)::$_0>, void (CCMenuItemSpriteExtra*)>::__clone(std::__ndk1::__function::__base<void (CCMenuItemSpriteExtra*)>*) const
PUBLIC 73854 0 std::__ndk1::__function::__func<EmojiPicker::setup(CCTextInputNode*)::$_0, std::__ndk1::allocator<EmojiPicker::setup(CCTextInputNode*)::$_0>, void (CCMenuItemSpriteExtra*)>::destroy()
PUBLIC 73858 0 std::__ndk1::__function::__func<EmojiPicker::setup(CCTextInputNode*)::$_0, std::__ndk1::allocator<EmojiPicker::setup(CCTextInputNode*)::$_0>, void (CCMenuItemSpriteExtra*)>::destroy_deallocate()
PUBLIC 7385c 0 std::__ndk1::__function::__func<EmojiPicker::setup(CCTextInputNode*)::$_0, std::__ndk1::allocator<EmojiPicker::setup(CCTextInputNode*)::$_0>, void (CCMenuItemSpriteExtra*)>::operator()(CCMenuItemSpriteExtra*&&)
PUBLIC 73874 0 std::__ndk1::__function::__func<EmojiPicker::setup(CCTextInputNode*)::$_0, std::__ndk1::allocator<EmojiPicker::setup(CCTextInputNode*)::$_0>, void (CCMenuItemSpriteExtra*)>::target(std::type_info const&) const
PUBLIC 73890 0 std::__ndk1::__function::__func<EmojiPicker::setup(CCTextInputNode*)::$_0, std::__ndk1::allocator<EmojiPicker::setup(CCTextInputNode*)::$_0>, void (CCMenuItemSpriteExtra*)>::target_type() const
PUBLIC 7389c 0 std::__ndk1::__function::__func<EmojiPicker::recreateGroups() const::$_0, std::__ndk1::allocator<EmojiPicker::recreateGroups() const::$_0>, void (CCMenuItemSpriteExtra*)>::~__func()
PUBLIC 738a0 0 std::__ndk1::__function::__func<EmojiPicker::recreateGroups() const::$_0, std::__ndk1::allocator<EmojiPicker::recreateGroups() const::$_0>, void (CCMenuItemSpriteExtra*)>::__clone() const
PUBLIC 738d8 0 std::__ndk1::__function::__func<EmojiPicker::recreateGroups() const::$_0, std::__ndk1::allocator<EmojiPicker::recreateGroups() const::$_0>, void (CCMenuItemSpriteExtra*)>::__clone(std::__ndk1::__function::__base<void (CCMenuItemSpriteExtra*)>*) const
PUBLIC 738f0 0 std::__ndk1::__function::__func<EmojiPicker::recreateGroups() const::$_0, std::__ndk1::allocator<EmojiPicker::recreateGroups() const::$_0>, void (CCMenuItemSpriteExtra*)>::destroy()
PUBLIC 738f4 0 std::__ndk1::__function::__func<EmojiPicker::recreateGroups() const::$_0, std::__ndk1::allocator<EmojiPicker::recreateGroups() const::$_0>, void (CCMenuItemSpriteExtra*)>::destroy_deallocate()
PUBLIC 738f8 0 std::__ndk1::__function::__func<EmojiPicker::recreateGroups() const::$_0, std::__ndk1::allocator<EmojiPicker::recreateGroups() const::$_0>, void (CCMenuItemSpriteExtra*)>::operator()(CCMenuItemSpriteExtra*&&)
PUBLIC 73904 0 std::__ndk1::__function::__func<EmojiPicker::recreateGroups() const::$_0, std::__ndk1::allocator<EmojiPicker::recreateGroups() const::$_0>, void (CCMenuItemSpriteExtra*)>::target(std::type_info const&) const
PUBLIC 73920 0 std::__ndk1::__function::__func<EmojiPicker::recreateGroups() const::$_0, std::__ndk1::allocator<EmojiPicker::recreateGroups() const::$_0>, void (CCMenuItemSpriteExtra*)>::target_type() const
PUBLIC 7392c 0 geode::impl::ResultData<matjson::Value&, std::__ndk1::basic_string<char, std::__ndk1::char_traits<char>, std::__ndk1::allocator<char> > >::~ResultData()
PUBLIC 739a0 0 geode::impl::ResultData<std::__ndk1::map<std::__ndk1::basic_string<char, std::__ndk1::char_traits<char>, std::__ndk1::allocator<char> >, unsigned long, std::__ndk1::less<std::__ndk1::basic_string<char, std::__ndk1::char_traits<char>, std::__ndk1::allocator<char> > >, std::__ndk1::allocator<std::__ndk1::pair<std::__ndk1::basic_string<char, std::__ndk1::char_traits<char>, std::__ndk1::allocator<char> > const, unsigned long> > >, std::__ndk1::basic_string<char, std::__ndk1::char_traits<char>, std::__ndk1::allocator<char> > >::~ResultData()
PUBLIC 73a14 0 _ZN7matjson9SerializeINSt6__ndk13mapINS1_12basic_stringIcNS1_11char_traitsIcEENS1_9allocatorIcEEEEmNS1_4lessIS8_EENS6_INS1_4pairIKS8_mEEEEEEE8fromJsonERKNS_5ValueEQrQSJ__Xcldtfp_2asIu7__decayIT_EEEE
PUBLIC 74064 0 geode::impl::ResultData<unsigned long, std::__ndk1::basic_string<char, std::__ndk1::char_traits<char>, std::__ndk1::allocator<char> > >::~ResultData()
PUBLIC 740d8 0 std::__ndk1::unique_ptr<std::__ndk1::__tree_node<std::__ndk1::__value_type<std::__ndk1::basic_string<char, std::__ndk1::char_traits<char>, std::__ndk1::allocator<char> >, unsigned long>, void*>, std::__ndk1::__tree_node_destructor<std::__ndk1::allocator<std::__ndk1::__tree_node<std::__ndk1::__value_type<std::__ndk1::basic_string<char, std::__ndk1::char_traits<char>, std::__ndk1::allocator<char> >, unsigned long>, void*> > > >::~unique_ptr[abi:ne190000]()
PUBLIC 74128 0 std::__ndk1::__variant_detail::__visitation::__base::__dispatcher<(unsigned long)0>::__dispatch[abi:ne190000]<std::__ndk1::__variant_detail::__dtor<std::__ndk1::__variant_detail::__traits<unsigned long, std::__ndk1::basic_string<char, std::__ndk1::char_traits<char>, std::__ndk1::allocator<char> > >, (std::__ndk1::__variant_detail::_Trait)1>::__destroy[abi:ne190000]()::{lambda(auto:1&)#1}, std::__ndk1::__variant_detail::__base<(std::__ndk1::__variant_detail::__traits<unsigned long, std::__ndk1::basic_string<char, std::__ndk1::char_traits<char>, std::__ndk1::allocator<char> > >)1, unsigned long, std::__ndk1::allocator<char> >&>(std::__ndk1::__variant_detail::__dtor<std::__ndk1::__variant_detail::__traits<unsigned long, std::__ndk1::basic_string<char, std::__ndk1::char_traits<char>, std::__ndk1::allocator<char> > >, (std::__ndk1::__variant_detail::_Trait)1>, std::__ndk1::__variant_detail::__base<(std::__ndk1::__variant_detail::__traits<unsigned long, std::__ndk1::basic_string<char, std::__ndk1::char_traits<char>, std::__ndk1::allocator<char> > >)1, unsigned long, std::__ndk1::allocator<char> >&)
PUBLIC 7412c 0 std::__ndk1::__variant_detail::__visitation::__base::__dispatcher<(unsigned long)1>::__dispatch[abi:ne190000]<std::__ndk1::__variant_detail::__dtor<std::__ndk1::__variant_detail::__traits<unsigned long, std::__ndk1::basic_string<char, std::__ndk1::char_traits<char>, std::__ndk1::allocator<char> > >, (std::__ndk1::__variant_detail::_Trait)1>::__destroy[abi:ne190000]()::{lambda(auto:1&)#1}, std::__ndk1::__variant_detail::__base<(std::__ndk1::__variant_detail::__traits<unsigned long, std::__ndk1::basic_string<char, std::__ndk1::char_traits<char>, std::__ndk1::allocator<char> > >)1, unsigned long, std::__ndk1::allocator<char> >&>(std::__ndk1::__variant_detail::__dtor<std::__ndk1::__variant_detail::__traits<unsigned long, std::__ndk1::basic_string<char, std::__ndk1::char_traits<char>, std::__ndk1::allocator<char> > >, (std::__ndk1::__variant_detail::_Trait)1>, std::__ndk1::__variant_detail::__base<(std::__ndk1::__variant_detail::__traits<unsigned long, std::__ndk1::basic_string<char, std::__ndk1::char_traits<char>, std::__ndk1::allocator<char> > >)1, unsigned long, std::__ndk1::allocator<char> >&)
PUBLIC 74140 0 std::__ndk1::__variant_detail::__visitation::__base::__dispatcher<(unsigned long)0>::__dispatch[abi:ne190000]<std::__ndk1::__variant_detail::__dtor<std::__ndk1::__variant_detail::__traits<std::__ndk1::reference_wrapper<matjson::Value>, std::__ndk1::basic_string<char, std::__ndk1::char_traits<char>, std::__ndk1::allocator<char> > >, (std::__ndk1::__variant_detail::_Trait)1>::__destroy[abi:ne190000]()::{lambda(auto:1&)#1}, std::__ndk1::__variant_detail::__base<(std::__ndk1::__variant_detail::__traits<std::__ndk1::reference_wrapper<matjson::Value>, std::__ndk1::basic_string<char, std::__ndk1::char_traits<char>, std::__ndk1::allocator<char> > >)1, matjson::Value, std::__ndk1::allocator<char> >&>(std::__ndk1::__variant_detail::__dtor<std::__ndk1::__variant_detail::__traits<std::__ndk1::reference_wrapper<matjson::Value>, std::__ndk1::basic_string<char, std::__ndk1::char_traits<char>, std::__ndk1::allocator<char> > >, (std::__ndk1::__variant_detail::_Trait)1>, std::__ndk1::__variant_detail::__base<(std::__ndk1::__variant_detail::__traits<std::__ndk1::reference_wrapper<matjson::Value>, std::__ndk1::basic_string<char, std::__ndk1::char_traits<char>, std::__ndk1::allocator<char> > >)1, matjson::Value, std::__ndk1::allocator<char> >&)
PUBLIC 74144 0 std::__ndk1::__variant_detail::__visitation::__base::__dispatcher<(unsigned long)1>::__dispatch[abi:ne190000]<std::__ndk1::__variant_detail::__dtor<std::__ndk1::__variant_detail::__traits<std::__ndk1::reference_wrapper<matjson::Value>, std::__ndk1::basic_string<char, std::__ndk1::char_traits<char>, std::__ndk1::allocator<char> > >, (std::__ndk1::__variant_detail::_Trait)1>::__destroy[abi:ne190000]()::{lambda(auto:1&)#1}, std::__ndk1::__variant_detail::__base<(std::__ndk1::__variant_detail::__traits<std::__ndk1::reference_wrapper<matjson::Value>, std::__ndk1::basic_string<char, std::__ndk1::char_traits<char>, std::__ndk1::allocator<char> > >)1, matjson::Value, std::__ndk1::allocator<char> >&>(std::__ndk1::__variant_detail::__dtor<std::__ndk1::__variant_detail::__traits<std::__ndk1::reference_wrapper<matjson::Value>, std::__ndk1::basic_string<char, std::__ndk1::char_traits<char>, std::__ndk1::allocator<char> > >, (std::__ndk1::__variant_detail::_Trait)1>, std::__ndk1::__variant_detail::__base<(std::__ndk1::__variant_detail::__traits<std::__ndk1::reference_wrapper<matjson::Value>, std::__ndk1::basic_string<char, std::__ndk1::char_traits<char>, std::__ndk1::allocator<char> > >)1, matjson::Value, std::__ndk1::allocator<char> >&)
PUBLIC 74158 0 std::__ndk1::__tree<std::__ndk1::__value_type<std::__ndk1::basic_string<char, std::__ndk1::char_traits<char>, std::__ndk1::allocator<char> >, unsigned long>, std::__ndk1::__map_value_compare<std::__ndk1::basic_string<char, std::__ndk1::char_traits<char>, std::__ndk1::allocator<char> >, std::__ndk1::__value_type<std::__ndk1::basic_string<char, std::__ndk1::char_traits<char>, std::__ndk1::allocator<char> >, unsigned long>, std::__ndk1::less<std::__ndk1::basic_string<char, std::__ndk1::char_traits<char>, std::__ndk1::allocator<char> > >, true>, std::__ndk1::allocator<std::__ndk1::__value_type<std::__ndk1::basic_string<char, std::__ndk1::char_traits<char>, std::__ndk1::allocator<char> >, unsigned long> > >::__emplace_hint_unique_key_args<std::__ndk1::basic_string<char, std::__ndk1::char_traits<char>, std::__ndk1::allocator<char> >, std::__ndk1::pair<std::__ndk1::basic_string<char, std::__ndk1::char_traits<char>, std::__ndk1::allocator<char> > const, unsigned long> const&>(std::__ndk1::__tree_const_iterator<std::__ndk1::__value_type<std::__ndk1::basic_string<char, std::__ndk1::char_traits<char>, std::__ndk1::allocator<char> >, unsigned long>, std::__ndk1::__tree_node<std::__ndk1::__value_type<std::__ndk1::basic_string<char, std::__ndk1::char_traits<char>, std::__ndk1::allocator<char> >, unsigned long>, void*>*, long>, std::__ndk1::basic_string<char, std::__ndk1::char_traits<char>, std::__ndk1::allocator<char> > const&, std::__ndk1::pair<std::__ndk1::basic_string<char, std::__ndk1::char_traits<char>, std::__ndk1::allocator<char> > const, unsigned long> const&)
PUBLIC 745b4 0 std::__ndk1::__tree<std::__ndk1::__value_type<std::__ndk1::basic_string<char, std::__ndk1::char_traits<char>, std::__ndk1::allocator<char> >, unsigned long>, std::__ndk1::__map_value_compare<std::__ndk1::basic_string<char, std::__ndk1::char_traits<char>, std::__ndk1::allocator<char> >, std::__ndk1::__value_type<std::__ndk1::basic_string<char, std::__ndk1::char_traits<char>, std::__ndk1::allocator<char> >, unsigned long>, std::__ndk1::less<std::__ndk1::basic_string<char, std::__ndk1::char_traits<char>, std::__ndk1::allocator<char> > >, true>, std::__ndk1::allocator<std::__ndk1::__value_type<std::__ndk1::basic_string<char, std::__ndk1::char_traits<char>, std::__ndk1::allocator<char> >, unsigned long> > >::destroy(std::__ndk1::__tree_node<std::__ndk1::__value_type<std::__ndk1::basic_string<char, std::__ndk1::char_traits<char>, std::__ndk1::allocator<char> >, unsigned long>, void*>*)
PUBLIC 745fc 0 std::__ndk1::__variant_detail::__visitation::__base::__dispatcher<(unsigned long)0>::__dispatch[abi:ne190000]<std::__ndk1::__variant_detail::__dtor<std::__ndk1::__variant_detail::__traits<std::__ndk1::map<std::__ndk1::basic_string<char, std::__ndk1::char_traits<char>, std::__ndk1::allocator<char> >, unsigned long, std::__ndk1::less<std::__ndk1::allocator<char> >, std::__ndk1::char_traits<char><std::__ndk1::pair<std::__ndk1::allocator<char> const, unsigned long> > >, std::__ndk1::allocator<char> >, (std::__ndk1::__variant_detail::_Trait)1>::__destroy[abi:ne190000]()::{lambda(auto:1&)#1}, std::__ndk1::__variant_detail::__base<(std::__ndk1::__variant_detail::__traits<std::__ndk1::map<std::__ndk1::basic_string<char, std::__ndk1::char_traits<char>, std::__ndk1::allocator<char> >, unsigned long, std::__ndk1::less<std::__ndk1::allocator<char> >, std::__ndk1::char_traits<char><std::__ndk1::pair<std::__ndk1::allocator<char> const, unsigned long> > >, std::__ndk1::allocator<char> >)1, std::__ndk1::char_traits<char><std::__ndk1::pair<std::__ndk1::allocator<char> const, unsigned long> >, std::__ndk1::allocator<char> >&>(std::__ndk1::__variant_detail::__dtor<std::__ndk1::__variant_detail::__traits<std::__ndk1::map<std::__ndk1::basic_string<char, std::__ndk1::char_traits<char>, std::__ndk1::allocator<char> >, unsigned long, std::__ndk1::less<std::__ndk1::allocator<char> >, std::__ndk1::char_traits<char><std::__ndk1::pair<std::__ndk1::allocator<char> const, unsigned long> > >, std::__ndk1::allocator<char> >, (std::__ndk1::__variant_detail::_Trait)1>, std::__ndk1::__variant_detail::__base<(std::__ndk1::__variant_detail::__traits<std::__ndk1::map<std::__ndk1::basic_string<char, std::__ndk1::char_traits<char>, std::__ndk1::allocator<char> >, unsigned long, std::__ndk1::less<std::__ndk1::allocator<char> >, std::__ndk1::char_traits<char><std::__ndk1::pair<std::__ndk1::allocator<char> const, unsigned long> > >, std::__ndk1::allocator<char> >)1, std::__ndk1::char_traits<char><std::__ndk1::pair<std::__ndk1::allocator<char> const, unsigned long> >, std::__ndk1::allocator<char> >&)
PUBLIC 74604 0 std::__ndk1::__variant_detail::__visitation::__base::__dispatcher<(unsigned long)1>::__dispatch[abi:ne190000]<std::__ndk1::__variant_detail::__dtor<std::__ndk1::__variant_detail::__traits<std::__ndk1::map<std::__ndk1::basic_string<char, std::__ndk1::char_traits<char>, std::__ndk1::allocator<char> >, unsigned long, std::__ndk1::less<std::__ndk1::allocator<char> >, std::__ndk1::char_traits<char><std::__ndk1::pair<std::__ndk1::allocator<char> const, unsigned long> > >, std::__ndk1::allocator<char> >, (std::__ndk1::__variant_detail::_Trait)1>::__destroy[abi:ne190000]()::{lambda(auto:1&)#1}, std::__ndk1::__variant_detail::__base<(std::__ndk1::__variant_detail::__traits<std::__ndk1::map<std::__ndk1::basic_string<char, std::__ndk1::char_traits<char>, std::__ndk1::allocator<char> >, unsigned long, std::__ndk1::less<std::__ndk1::allocator<char> >, std::__ndk1::char_traits<char><std::__ndk1::pair<std::__ndk1::allocator<char> const, unsigned long> > >, std::__ndk1::allocator<char> >)1, std::__ndk1::char_traits<char><std::__ndk1::pair<std::__ndk1::allocator<char> const, unsigned long> >, std::__ndk1::allocator<char> >&>(std::__ndk1::__variant_detail::__dtor<std::__ndk1::__variant_detail::__traits<std::__ndk1::map<std::__ndk1::basic_string<char, std::__ndk1::char_traits<char>, std::__ndk1::allocator<char> >, unsigned long, std::__ndk1::less<std::__ndk1::allocator<char> >, std::__ndk1::char_traits<char><std::__ndk1::pair<std::__ndk1::allocator<char> const, unsigned long> > >, std::__ndk1::allocator<char> >, (std::__ndk1::__variant_detail::_Trait)1>, std::__ndk1::__variant_detail::__base<(std::__ndk1::__variant_detail::__traits<std::__ndk1::map<std::__ndk1::basic_string<char, std::__ndk1::char_traits<char>, std::__ndk1::allocator<char> >, unsigned long, std::__ndk1::less<std::__ndk1::allocator<char> >, std::__ndk1::char_traits<char><std::__ndk1::pair<std::__ndk1::allocator<char> const, unsigned long> > >, std::__ndk1::allocator<char> >)1, std::__ndk1::char_traits<char><std::__ndk1::pair<std::__ndk1::allocator<char> const, unsigned long> >, std::__ndk1::allocator<char> >&)
PUBLIC 74618 0 _ZN7matjson9SerializeINSt6__ndk13mapINS1_12basic_stringIcNS1_11char_traitsIcEENS1_9allocatorIcEEEEmNS1_4lessIS8_EENS6_INS1_4pairIKS8_mEEEEEEE6toJsonERKSF_QrQRKT__XcvNS_5ValueEfp_E
PUBLIC 74734 0 geode::impl::ResultData<std::__ndk1::vector<std::__ndk1::basic_string<char, std::__ndk1::char_traits<char>, std::__ndk1::allocator<char> >, std::__ndk1::allocator<std::__ndk1::basic_string<char, std::__ndk1::char_traits<char>, std::__ndk1::allocator<char> > > >, std::__ndk1::basic_string<char, std::__ndk1::char_traits<char>, std::__ndk1::allocator<char> > >::~ResultData()
PUBLIC 747a8 0 _ZN7matjson9SerializeINSt6__ndk16vectorINS1_12basic_stringIcNS1_11char_traitsIcEENS1_9allocatorIcEEEENS6_IS8_EEEEE8fromJsonERKNS_5ValueEQrQSE__Xcldtfp_2asIT_EEE
PUBLIC 74c90 0 geode::impl::ResultData<std::__ndk1::basic_string<char, std::__ndk1::char_traits<char>, std::__ndk1::allocator<char> >, std::__ndk1::basic_string<char, std::__ndk1::char_traits<char>, std::__ndk1::allocator<char> > >::~ResultData()
PUBLIC 74d04 0 std::__ndk1::__variant_detail::__visitation::__base::__dispatcher<(unsigned long)0>::__dispatch[abi:ne190000]<std::__ndk1::__variant_detail::__dtor<std::__ndk1::__variant_detail::__traits<std::__ndk1::basic_string<char, std::__ndk1::char_traits<char>, std::__ndk1::allocator<char> >, std::__ndk1::allocator<char> >, (std::__ndk1::__variant_detail::_Trait)1>::__destroy[abi:ne190000]()::{lambda(auto:1&)#1}, std::__ndk1::__variant_detail::__base<(std::__ndk1::__variant_detail::__traits<std::__ndk1::basic_string<char, std::__ndk1::char_traits<char>, std::__ndk1::allocator<char> >, std::__ndk1::allocator<char> >)1, std::__ndk1::allocator<char>, std::__ndk1::allocator<char> >&>(std::__ndk1::__variant_detail::__dtor<std::__ndk1::__variant_detail::__traits<std::__ndk1::basic_string<char, std::__ndk1::char_traits<char>, std::__ndk1::allocator<char> >, std::__ndk1::allocator<char> >, (std::__ndk1::__variant_detail::_Trait)1>, std::__ndk1::__variant_detail::__base<(std::__ndk1::__variant_detail::__traits<std::__ndk1::basic_string<char, std::__ndk1::char_traits<char>, std::__ndk1::allocator<char> >, std::__ndk1::allocator<char> >)1, std::__ndk1::allocator<char>, std::__ndk1::allocator<char> >&)
PUBLIC 74d18 0 std::__ndk1::__variant_detail::__visitation::__base::__dispatcher<(unsigned long)1>::__dispatch[abi:ne190000]<std::__ndk1::__variant_detail::__dtor<std::__ndk1::__variant_detail::__traits<std::__ndk1::basic_string<char, std::__ndk1::char_traits<char>, std::__ndk1::allocator<char> >, std::__ndk1::allocator<char> >, (std::__ndk1::__variant_detail::_Trait)1>::__destroy[abi:ne190000]()::{lambda(auto:1&)#1}, std::__ndk1::__variant_detail::__base<(std::__ndk1::__variant_detail::__traits<std::__ndk1::basic_string<char, std::__ndk1::char_traits<char>, std::__ndk1::allocator<char> >, std::__ndk1::allocator<char> >)1, std::__ndk1::allocator<char>, std::__ndk1::allocator<char> >&>(std::__ndk1::__variant_detail::__dtor<std::__ndk1::__variant_detail::__traits<std::__ndk1::basic_string<char, std::__ndk1::char_traits<char>, std::__ndk1::allocator<char> >, std::__ndk1::allocator<char> >, (std::__ndk1::__variant_detail::_Trait)1>, std::__ndk1::__variant_detail::__base<(std::__ndk1::__variant_detail::__traits<std::__ndk1::basic_string<char, std::__ndk1::char_traits<char>, std::__ndk1::allocator<char> >, std::__ndk1::allocator<char> >)1, std::__ndk1::allocator<char>, std::__ndk1::allocator<char> >&)
PUBLIC 74d2c 0 std::__ndk1::__variant_detail::__visitation::__base::__dispatcher<(unsigned long)0>::__dispatch[abi:ne190000]<std::__ndk1::__variant_detail::__dtor<std::__ndk1::__variant_detail::__traits<std::__ndk1::vector<std::__ndk1::basic_string<char, std::__ndk1::char_traits<char>, std::__ndk1::allocator<char> >, std::__ndk1::char_traits<char><std::__ndk1::allocator<char> > >, std::__ndk1::allocator<char> >, (std::__ndk1::__variant_detail::_Trait)1>::__destroy[abi:ne190000]()::{lambda(auto:1&)#1}, std::__ndk1::__variant_detail::__base<(std::__ndk1::__variant_detail::__traits<std::__ndk1::vector<std::__ndk1::basic_string<char, std::__ndk1::char_traits<char>, std::__ndk1::allocator<char> >, std::__ndk1::char_traits<char><std::__ndk1::allocator<char> > >, std::__ndk1::allocator<char> >)1, std::__ndk1::char_traits<char><std::__ndk1::allocator<char> >, std::__ndk1::allocator<char> >&>(std::__ndk1::__variant_detail::__dtor<std::__ndk1::__variant_detail::__traits<std::__ndk1::vector<std::__ndk1::basic_string<char, std::__ndk1::char_traits<char>, std::__ndk1::allocator<char> >, std::__ndk1::char_traits<char><std::__ndk1::allocator<char> > >, std::__ndk1::allocator<char> >, (std::__ndk1::__variant_detail::_Trait)1>, std::__ndk1::__variant_detail::__base<(std::__ndk1::__variant_detail::__traits<std::__ndk1::vector<std::__ndk1::basic_string<char, std::__ndk1::char_traits<char>, std::__ndk1::allocator<char> >, std::__ndk1::char_traits<char><std::__ndk1::allocator<char> > >, std::__ndk1::allocator<char> >)1, std::__ndk1::char_traits<char><std::__ndk1::allocator<char> >, std::__ndk1::allocator<char> >&)
PUBLIC 74da8 0 std::__ndk1::__variant_detail::__visitation::__base::__dispatcher<(unsigned long)1>::__dispatch[abi:ne190000]<std::__ndk1::__variant_detail::__dtor<std::__ndk1::__variant_detail::__traits<std::__ndk1::vector<std::__ndk1::basic_string<char, std::__ndk1::char_traits<char>, std::__ndk1::allocator<char> >, std::__ndk1::char_traits<char><std::__ndk1::allocator<char> > >, std::__ndk1::allocator<char> >, (std::__ndk1::__variant_detail::_Trait)1>::__destroy[abi:ne190000]()::{lambda(auto:1&)#1}, std::__ndk1::__variant_detail::__base<(std::__ndk1::__variant_detail::__traits<std::__ndk1::vector<std::__ndk1::basic_string<char, std::__ndk1::char_traits<char>, std::__ndk1::allocator<char> >, std::__ndk1::char_traits<char><std::__ndk1::allocator<char> > >, std::__ndk1::allocator<char> >)1, std::__ndk1::char_traits<char><std::__ndk1::allocator<char> >, std::__ndk1::allocator<char> >&>(std::__ndk1::__variant_detail::__dtor<std::__ndk1::__variant_detail::__traits<std::__ndk1::vector<std::__ndk1::basic_string<char, std::__ndk1::char_traits<char>, std::__ndk1::allocator<char> >, std::__ndk1::char_traits<char><std::__ndk1::allocator<char> > >, std::__ndk1::allocator<char> >, (std::__ndk1::__variant_detail::_Trait)1>, std::__ndk1::__variant_detail::__base<(std::__ndk1::__variant_detail::__traits<std::__ndk1::vector<std::__ndk1::basic_string<char, std::__ndk1::char_traits<char>, std::__ndk1::allocator<char> >, std::__ndk1::char_traits<char><std::__ndk1::allocator<char> > >, std::__ndk1::allocator<char> >)1, std::__ndk1::char_traits<char><std::__ndk1::allocator<char> >, std::__ndk1::allocator<char> >&)
PUBLIC 74dbc 0 _ZN7matjson9SerializeINSt6__ndk16vectorINS1_12basic_stringIcNS1_11char_traitsIcEENS1_9allocatorIcEEEENS6_IS8_EEEEE6toJsonERKSA_QrQRKT__XcvNS_5ValueEfp_E
PUBLIC 7511c 0 std::__ndk1::vector<matjson::Value, std::__ndk1::allocator<matjson::Value> >::~vector[abi:ne190000]()
PUBLIC 75184 0 std::__ndk1::vector<matjson::Value, std::__ndk1::allocator<matjson::Value> >::__throw_length_error[abi:ne190000]() const
PUBLIC 75198 0 std::__ndk1::__function::__func<EmojiPicker::appendGroup(EmojiCategory const&) const::$_1, std::__ndk1::allocator<EmojiPicker::appendGroup(EmojiCategory const&) const::$_1>, void ()>::~__func()
PUBLIC 751b8 0 std::__ndk1::__function::__func<EmojiPicker::appendGroup(EmojiCategory const&) const::$_1, std::__ndk1::allocator<EmojiPicker::appendGroup(EmojiCategory const&) const::$_1>, void ()>::~__func()
PUBLIC 751f8 0 std::__ndk1::__function::__func<EmojiPicker::appendGroup(EmojiCategory const&) const::$_1, std::__ndk1::allocator<EmojiPicker::appendGroup(EmojiCategory const&) const::$_1>, void ()>::__clone() const
PUBLIC 75280 0 std::__ndk1::__function::__func<EmojiPicker::appendGroup(EmojiCategory const&) const::$_1, std::__ndk1::allocator<EmojiPicker::appendGroup(EmojiCategory const&) const::$_1>, void ()>::__clone(std::__ndk1::__function::__base<void ()>*) const
PUBLIC 752c0 0 std::__ndk1::__function::__func<EmojiPicker::appendGroup(EmojiCategory const&) const::$_1, std::__ndk1::allocator<EmojiPicker::appendGroup(EmojiCategory const&) const::$_1>, void ()>::destroy()
PUBLIC 752d4 0 std::__ndk1::__function::__func<EmojiPicker::appendGroup(EmojiCategory const&) const::$_1, std::__ndk1::allocator<EmojiPicker::appendGroup(EmojiCategory const&) const::$_1>, void ()>::destroy_deallocate()
PUBLIC 75308 0 std::__ndk1::__function::__func<EmojiPicker::appendGroup(EmojiCategory const&) const::$_1, std::__ndk1::allocator<EmojiPicker::appendGroup(EmojiCategory const&) const::$_1>, void ()>::operator()()
PUBLIC 75b18 0 std::__ndk1::__function::__func<EmojiPicker::appendGroup(EmojiCategory const&) const::$_1, std::__ndk1::allocator<EmojiPicker::appendGroup(EmojiCategory const&) const::$_1>, void ()>::target(std::type_info const&) const
PUBLIC 75b34 0 std::__ndk1::__function::__func<EmojiPicker::appendGroup(EmojiCategory const&) const::$_1, std::__ndk1::allocator<EmojiPicker::appendGroup(EmojiCategory const&) const::$_1>, void ()>::target_type() const
PUBLIC 75b40 0 std::__ndk1::__function::__func<EmojiPicker::appendGroup(EmojiCategory const&) const::$_2, std::__ndk1::allocator<EmojiPicker::appendGroup(EmojiCategory const&) const::$_2>, void ()>::~__func()
PUBLIC 75b60 0 std::__ndk1::__function::__func<EmojiPicker::appendGroup(EmojiCategory const&) const::$_2, std::__ndk1::allocator<EmojiPicker::appendGroup(EmojiCategory const&) const::$_2>, void ()>::~__func()
PUBLIC 75ba0 0 std::__ndk1::__function::__func<EmojiPicker::appendGroup(EmojiCategory const&) const::$_2, std::__ndk1::allocator<EmojiPicker::appendGroup(EmojiCategory const&) const::$_2>, void ()>::__clone() const
PUBLIC 75c28 0 std::__ndk1::__function::__func<EmojiPicker::appendGroup(EmojiCategory const&) const::$_2, std::__ndk1::allocator<EmojiPicker::appendGroup(EmojiCategory const&) const::$_2>, void ()>::__clone(std::__ndk1::__function::__base<void ()>*) const
PUBLIC 75c68 0 std::__ndk1::__function::__func<EmojiPicker::appendGroup(EmojiCategory const&) const::$_2, std::__ndk1::allocator<EmojiPicker::appendGroup(EmojiCategory const&) const::$_2>, void ()>::destroy()
PUBLIC 75c7c 0 std::__ndk1::__function::__func<EmojiPicker::appendGroup(EmojiCategory const&) const::$_2, std::__ndk1::allocator<EmojiPicker::appendGroup(EmojiCategory const&) const::$_2>, void ()>::destroy_deallocate()
PUBLIC 75cb0 0 std::__ndk1::__function::__func<EmojiPicker::appendGroup(EmojiCategory const&) const::$_2, std::__ndk1::allocator<EmojiPicker::appendGroup(EmojiCategory const&) const::$_2>, void ()>::operator()()
PUBLIC 7622c 0 std::__ndk1::__function::__func<EmojiPicker::appendGroup(EmojiCategory const&) const::$_2, std::__ndk1::allocator<EmojiPicker::appendGroup(EmojiCategory const&) const::$_2>, void ()>::target(std::type_info const&) const
PUBLIC 76248 0 std::__ndk1::__function::__func<EmojiPicker::appendGroup(EmojiCategory const&) const::$_2, std::__ndk1::allocator<EmojiPicker::appendGroup(EmojiCategory const&) const::$_2>, void ()>::target_type() const
PUBLIC 76254 0 std::__ndk1::__function::__func<EmojiPicker::appendGroup(EmojiCategory const&) const::$_0, std::__ndk1::allocator<EmojiPicker::appendGroup(EmojiCategory const&) const::$_0>, void (CCMenuItemSpriteExtra*)>::~__func()
PUBLIC 76258 0 std::__ndk1::__function::__func<EmojiPicker::appendGroup(EmojiCategory const&) const::$_0, std::__ndk1::allocator<EmojiPicker::appendGroup(EmojiCategory const&) const::$_0>, void (CCMenuItemSpriteExtra*)>::__clone() const
PUBLIC 762a8 0 std::__ndk1::__function::__func<EmojiPicker::appendGroup(EmojiCategory const&) const::$_0, std::__ndk1::allocator<EmojiPicker::appendGroup(EmojiCategory const&) const::$_0>, void (CCMenuItemSpriteExtra*)>::__clone(std::__ndk1::__function::__base<void (CCMenuItemSpriteExtra*)>*) const
PUBLIC 762d8 0 std::__ndk1::__function::__func<EmojiPicker::appendGroup(EmojiCategory const&) const::$_0, std::__ndk1::allocator<EmojiPicker::appendGroup(EmojiCategory const&) const::$_0>, void (CCMenuItemSpriteExtra*)>::destroy()
PUBLIC 762dc 0 std::__ndk1::__function::__func<EmojiPicker::appendGroup(EmojiCategory const&) const::$_0, std::__ndk1::allocator<EmojiPicker::appendGroup(EmojiCategory const&) const::$_0>, void (CCMenuItemSpriteExtra*)>::destroy_deallocate()
PUBLIC 762e0 0 std::__ndk1::__function::__func<EmojiPicker::appendGroup(EmojiCategory const&) const::$_0, std::__ndk1::allocator<EmojiPicker::appendGroup(EmojiCategory const&) const::$_0>, void (CCMenuItemSpriteExtra*)>::operator()(CCMenuItemSpriteExtra*&&)
PUBLIC 76444 0 std::__ndk1::__function::__func<EmojiPicker::appendGroup(EmojiCategory const&) const::$_0, std::__ndk1::allocator<EmojiPicker::appendGroup(EmojiCategory const&) const::$_0>, void (CCMenuItemSpriteExtra*)>::target(std::type_info const&) const
PUBLIC 76460 0 std::__ndk1::__function::__func<EmojiPicker::appendGroup(EmojiCategory const&) const::$_0, std::__ndk1::allocator<EmojiPicker::appendGroup(EmojiCategory const&) const::$_0>, void (CCMenuItemSpriteExtra*)>::target_type() const
PUBLIC 7646c 0 _GLOBAL__sub_I_emoji_picker.cpp
PUBLIC 766e0 0 ScrollLayer::scrollWheel(float, float)
PUBLIC 766f0 0 {virtual override thunk({offset(-352)}, ScrollLayer::scrollWheel(float, float))}
PUBLIC 76704 0 ScrollLayer::ccTouchBegan(cocos2d::CCTouch*, cocos2d::CCEvent*)
PUBLIC 767d0 0 {virtual override thunk({offset(-320)}, ScrollLayer::ccTouchBegan(cocos2d::CCTouch*, cocos2d::CCEvent*))}
PUBLIC 768ac 0 ScrollLayer::ccTouchCancelled(cocos2d::CCTouch*, cocos2d::CCEvent*)
PUBLIC 768e8 0 {virtual override thunk({offset(-320)}, ScrollLayer::ccTouchCancelled(cocos2d::CCTouch*, cocos2d::CCEvent*))}
PUBLIC 7692c 0 ScrollLayer::ccTouchEnded(cocos2d::CCTouch*, cocos2d::CCEvent*)
PUBLIC 7695c 0 {virtual override thunk({offset(-320)}, ScrollLayer::ccTouchEnded(cocos2d::CCTouch*, cocos2d::CCEvent*))}
PUBLIC 76990 0 ScrollLayer::ccTouchMoved(cocos2d::CCTouch*, cocos2d::CCEvent*)
PUBLIC 76b14 0 {virtual override thunk({offset(-320)}, ScrollLayer::ccTouchMoved(cocos2d::CCTouch*, cocos2d::CCEvent*))}
PUBLIC 76b1c 0 ScrollLayer::ScrollLayer(cocos2d::CCRect const&, bool, bool)
PUBLIC 76d34 0 ScrollLayer::~ScrollLayer()
PUBLIC 76d98 0 {virtual override thunk({offset(-320)}, ScrollLayer::~ScrollLayer())}
PUBLIC 76dfc 0 ScrollLayer::~ScrollLayer()
PUBLIC 76e68 0 {virtual override thunk({offset(-320)}, ScrollLayer::~ScrollLayer())}
PUBLIC 76ed4 0 ScrollLayer::visit()
PUBLIC 77050 0 ScrollLayer::scrollToTop() const
PUBLIC 77098 0 ScrollLayer::scrollTo(cocos2d::CCNode*) const
PUBLIC 7715c 0 ScrollLayer::create(cocos2d::CCSize const&, bool, bool)
PUBLIC 77204 0 ScrollLayer::registerWithTouchDispatcher()
PUBLIC 77230 0 geode::getMod()
PUBLIC m 7726c 0 geodeImplicitEntry
PUBLIC 772a8 0 simdutf::implementation::autodetect_encoding(char const*, unsigned long) const
PUBLIC 77438 0 simdutf::convert_utf8_to_utf32(char const*, unsigned long, char32_t*)
PUBLIC 77500 0 simdutf::utf32_length_from_utf8(char const*, unsigned long)
PUBLIC 775b8 0 simdutf::arm64::implementation::detect_encodings(char const*, unsigned long) const
PUBLIC 7792c 0 simdutf::arm64::implementation::validate_utf8(char const*, unsigned long) const
PUBLIC 77d14 0 simdutf::arm64::implementation::validate_utf16le(char16_t const*, unsigned long) const
PUBLIC 77e50 0 simdutf::arm64::implementation::validate_utf32(char32_t const*, unsigned long) const
PUBLIC 77f54 0 simdutf::arm64::implementation::validate_utf8_with_errors(char const*, unsigned long) const
PUBLIC 783c4 0 simdutf::arm64::implementation::validate_ascii(char const*, unsigned long) const
PUBLIC 784cc 0 simdutf::arm64::implementation::validate_ascii_with_errors(char const*, unsigned long) const
PUBLIC 78748 0 simdutf::arm64::implementation::validate_utf16be(char16_t const*, unsigned long) const
PUBLIC 78894 0 simdutf::arm64::implementation::validate_utf16le_with_errors(char16_t const*, unsigned long) const
PUBLIC 78a00 0 simdutf::arm64::implementation::validate_utf16be_with_errors(char16_t const*, unsigned long) const
PUBLIC 78b7c 0 simdutf::arm64::implementation::validate_utf32_with_errors(char32_t const*, unsigned long) const
PUBLIC 78ce0 0 simdutf::arm64::implementation::convert_latin1_to_utf8(char const*, unsigned long, char*) const
PUBLIC 78fa8 0 simdutf::arm64::implementation::convert_latin1_to_utf16le(char const*, unsigned long, char16_t*) const
PUBLIC 790ac 0 simdutf::arm64::implementation::convert_latin1_to_utf16be(char const*, unsigned long, char16_t*) const
PUBLIC 791bc 0 simdutf::arm64::implementation::convert_latin1_to_utf32(char const*, unsigned long, char32_t*) const
PUBLIC 79310 0 simdutf::arm64::implementation::convert_utf8_to_latin1(char const*, unsigned long, char*) const
PUBLIC 79754 0 simdutf::arm64::implementation::convert_utf8_to_latin1_with_errors(char const*, unsigned long, char*) const
PUBLIC 79a94 0 simdutf::arm64::implementation::convert_valid_utf8_to_latin1(char const*, unsigned long, char*) const
PUBLIC 79da4 0 simdutf::arm64::implementation::convert_utf8_to_utf16le(char const*, unsigned long, char16_t*) const
PUBLIC 7a604 0 simdutf::arm64::implementation::convert_utf8_to_utf16be(char const*, unsigned long, char16_t*) const
PUBLIC 7aecc 0 simdutf::arm64::implementation::convert_utf8_to_utf16le_with_errors(char const*, unsigned long, char16_t*) const
PUBLIC 7b510 0 simdutf::arm64::implementation::convert_utf8_to_utf16be_with_errors(char const*, unsigned long, char16_t*) const
PUBLIC 7bb6c 0 simdutf::arm64::implementation::convert_valid_utf8_to_utf16le(char const*, unsigned long, char16_t*) const
PUBLIC 7c110 0 simdutf::arm64::implementation::convert_valid_utf8_to_utf16be(char const*, unsigned long, char16_t*) const
PUBLIC 7c700 0 simdutf::arm64::implementation::convert_utf8_to_utf32(char const*, unsigned long, char32_t*) const
PUBLIC 7ce90 0 simdutf::arm64::implementation::convert_utf8_to_utf32_with_errors(char const*, unsigned long, char32_t*) const
PUBLIC 7d434 0 simdutf::arm64::implementation::convert_valid_utf8_to_utf32(char const*, unsigned long, char32_t*) const
PUBLIC 7d8f4 0 simdutf::arm64::implementation::convert_utf16le_to_latin1(char16_t const*, unsigned long, char*) const
PUBLIC 7da58 0 simdutf::arm64::implementation::convert_utf16be_to_latin1(char16_t const*, unsigned long, char*) const
PUBLIC 7dbd8 0 simdutf::arm64::implementation::convert_utf16le_to_latin1_with_errors(char16_t const*, unsigned long, char*) const
PUBLIC 7de9c 0 simdutf::arm64::implementation::convert_utf16be_to_latin1_with_errors(char16_t const*, unsigned long, char*) const
PUBLIC 7e1f0 0 simdutf::arm64::implementation::convert_valid_utf16be_to_latin1(char16_t const*, unsigned long, char*) const
PUBLIC 7e370 0 simdutf::arm64::implementation::convert_valid_utf16le_to_latin1(char16_t const*, unsigned long, char*) const
PUBLIC 7e4d4 0 simdutf::arm64::implementation::convert_utf16le_to_utf8(char16_t const*, unsigned long, char*) const
PUBLIC 7e984 0 simdutf::arm64::implementation::convert_utf16be_to_utf8(char16_t const*, unsigned long, char*) const
PUBLIC 7ee70 0 simdutf::arm64::implementation::convert_utf16le_to_utf8_with_errors(char16_t const*, unsigned long, char*) const
PUBLIC 7f348 0 simdutf::arm64::implementation::convert_utf16be_to_utf8_with_errors(char16_t const*, unsigned long, char*) const
PUBLIC 7f85c 0 simdutf::arm64::implementation::convert_valid_utf16le_to_utf8(char16_t const*, unsigned long, char*) const
PUBLIC 7f860 0 simdutf::arm64::implementation::convert_valid_utf16be_to_utf8(char16_t const*, unsigned long, char*) const
PUBLIC 7f864 0 simdutf::arm64::implementation::convert_utf32_to_utf8(char32_t const*, unsigned long, char*) const
PUBLIC 7fcec 0 simdutf::arm64::implementation::convert_utf32_to_utf8_with_errors(char32_t const*, unsigned long, char*) const
PUBLIC 801ac 0 simdutf::arm64::implementation::convert_utf16le_to_utf32(char16_t const*, unsigned long, char32_t*) const
PUBLIC 80360 0 simdutf::arm64::implementation::convert_utf16be_to_utf32(char16_t const*, unsigned long, char32_t*) const
PUBLIC 80530 0 simdutf::arm64::implementation::convert_utf16le_to_utf32_with_errors(char16_t const*, unsigned long, char32_t*) const
PUBLIC 806f8 0 simdutf::arm64::implementation::convert_utf16be_to_utf32_with_errors(char16_t const*, unsigned long, char32_t*) const
PUBLIC 808d8 0 simdutf::arm64::implementation::convert_utf32_to_latin1(char32_t const*, unsigned long, char*) const
PUBLIC 80a84 0 simdutf::arm64::implementation::convert_utf32_to_latin1_with_errors(char32_t const*, unsigned long, char*) const
PUBLIC 80c88 0 simdutf::arm64::implementation::convert_valid_utf32_to_latin1(char32_t const*, unsigned long, char*) const
PUBLIC 80d84 0 simdutf::arm64::implementation::convert_valid_utf32_to_utf8(char32_t const*, unsigned long, char*) const
PUBLIC 80d88 0 simdutf::arm64::implementation::convert_utf32_to_utf16le(char32_t const*, unsigned long, char16_t*) const
PUBLIC 80f40 0 simdutf::arm64::implementation::convert_utf32_to_utf16be(char32_t const*, unsigned long, char16_t*) const
PUBLIC 81124 0 simdutf::arm64::implementation::convert_utf32_to_utf16le_with_errors(char32_t const*, unsigned long, char16_t*) const
PUBLIC 81388 0 simdutf::arm64::implementation::convert_utf32_to_utf16be_with_errors(char32_t const*, unsigned long, char16_t*) const
PUBLIC 81640 0 simdutf::arm64::implementation::convert_valid_utf32_to_utf16le(char32_t const*, unsigned long, char16_t*) const
PUBLIC 81644 0 simdutf::arm64::implementation::convert_valid_utf32_to_utf16be(char32_t const*, unsigned long, char16_t*) const
PUBLIC 81648 0 simdutf::arm64::implementation::convert_valid_utf16le_to_utf32(char16_t const*, unsigned long, char32_t*) const
PUBLIC 8164c 0 simdutf::arm64::implementation::convert_valid_utf16be_to_utf32(char16_t const*, unsigned long, char32_t*) const
PUBLIC 81650 0 simdutf::arm64::implementation::change_endianness_utf16(char16_t const*, unsigned long, char16_t*) const
PUBLIC 81730 0 simdutf::arm64::implementation::count_utf16le(char16_t const*, unsigned long) const
PUBLIC 81930 0 simdutf::arm64::implementation::count_utf16be(char16_t const*, unsigned long) const
PUBLIC 81b3c 0 simdutf::arm64::implementation::count_utf8(char const*, unsigned long) const
PUBLIC 81e98 0 simdutf::arm64::implementation::latin1_length_from_utf8(char const*, unsigned long) const
PUBLIC 82200 0 simdutf::arm64::implementation::latin1_length_from_utf16(unsigned long) const
PUBLIC 82208 0 simdutf::arm64::implementation::latin1_length_from_utf32(unsigned long) const
PUBLIC 82210 0 simdutf::arm64::implementation::utf8_length_from_latin1(char const*, unsigned long) const
PUBLIC 82268 0 simdutf::arm64::implementation::utf8_length_from_utf16le(char16_t const*, unsigned long) const
PUBLIC 82670 0 simdutf::arm64::implementation::utf8_length_from_utf16be(char16_t const*, unsigned long) const
PUBLIC 82a9c 0 simdutf::arm64::implementation::utf16_length_from_latin1(unsigned long) const
PUBLIC 82aa4 0 simdutf::arm64::implementation::utf32_length_from_latin1(unsigned long) const
PUBLIC 82aac 0 simdutf::arm64::implementation::utf32_length_from_utf16le(char16_t const*, unsigned long) const
PUBLIC 82cac 0 simdutf::arm64::implementation::utf32_length_from_utf16be(char16_t const*, unsigned long) const
PUBLIC 82eb8 0 simdutf::arm64::implementation::utf16_length_from_utf8(char const*, unsigned long) const
PUBLIC 83254 0 simdutf::arm64::implementation::utf8_length_from_utf32(char32_t const*, unsigned long) const
PUBLIC 83480 0 simdutf::arm64::implementation::utf16_length_from_utf32(char32_t const*, unsigned long) const
PUBLIC 835d0 0 simdutf::arm64::implementation::utf32_length_from_utf8(char const*, unsigned long) const
PUBLIC 8392c 0 simdutf::arm64::implementation::maximal_binary_length_from_base64(char const*, unsigned long) const
PUBLIC 8398c 0 simdutf::arm64::implementation::base64_to_binary(char const*, unsigned long, char*, simdutf::base64_options, simdutf::last_chunk_handling_options) const
PUBLIC 83a44 0 simdutf::arm64::(anonymous namespace)::compress_decode_base64<true, true, char>(char*, char const*, unsigned long, simdutf::base64_options, simdutf::last_chunk_handling_options)
PUBLIC 84234 0 simdutf::arm64::(anonymous namespace)::compress_decode_base64<true, false, char>(char*, char const*, unsigned long, simdutf::base64_options, simdutf::last_chunk_handling_options)
PUBLIC 84b8c 0 simdutf::arm64::(anonymous namespace)::compress_decode_base64<false, true, char>(char*, char const*, unsigned long, simdutf::base64_options, simdutf::last_chunk_handling_options)
PUBLIC 85340 0 simdutf::arm64::(anonymous namespace)::compress_decode_base64<false, false, char>(char*, char const*, unsigned long, simdutf::base64_options, simdutf::last_chunk_handling_options)
PUBLIC 85c5c 0 simdutf::arm64::implementation::base64_to_binary_details(char const*, unsigned long, char*, simdutf::base64_options, simdutf::last_chunk_handling_options) const
PUBLIC 85c9c 0 simdutf::arm64::implementation::maximal_binary_length_from_base64(char16_t const*, unsigned long) const
PUBLIC 85cfc 0 simdutf::arm64::implementation::base64_to_binary(char16_t const*, unsigned long, char*, simdutf::base64_options, simdutf::last_chunk_handling_options) const
PUBLIC 85db4 0 simdutf::arm64::(anonymous namespace)::compress_decode_base64<true, true, char16_t>(char*, char16_t const*, unsigned long, simdutf::base64_options, simdutf::last_chunk_handling_options)
PUBLIC 865dc 0 simdutf::arm64::(anonymous namespace)::compress_decode_base64<true, false, char16_t>(char*, char16_t const*, unsigned long, simdutf::base64_options, simdutf::last_chunk_handling_options)
PUBLIC 86fd8 0 simdutf::arm64::(anonymous namespace)::compress_decode_base64<false, true, char16_t>(char*, char16_t const*, unsigned long, simdutf::base64_options, simdutf::last_chunk_handling_options)
PUBLIC 877c4 0 simdutf::arm64::(anonymous namespace)::compress_decode_base64<false, false, char16_t>(char*, char16_t const*, unsigned long, simdutf::base64_options, simdutf::last_chunk_handling_options)
PUBLIC 8817c 0 simdutf::arm64::implementation::base64_to_binary_details(char16_t const*, unsigned long, char*, simdutf::base64_options, simdutf::last_chunk_handling_options) const
PUBLIC 881bc 0 simdutf::arm64::implementation::base64_length_from_binary(unsigned long, simdutf::base64_options) const
PUBLIC 881fc 0 simdutf::arm64::implementation::binary_to_base64(char const*, unsigned long, char*, simdutf::base64_options) const
PUBLIC 883f4 0 simdutf::implementation::name() const
PUBLIC 884a4 0 simdutf::implementation::description() const
PUBLIC 88554 0 simdutf::implementation::required_instruction_sets() const
PUBLIC 8855c 0 simdutf::scalar::(anonymous namespace)::utf8::rewind_and_validate_with_errors(char const*, char const*, unsigned long)
PUBLIC 887d4 0 simdutf::scalar::(anonymous namespace)::utf8_to_latin1::rewind_and_convert_with_errors(unsigned long, char const*, unsigned long, char*)
PUBLIC 889d0 0 simdutf::scalar::(anonymous namespace)::utf8_to_utf32::rewind_and_convert_with_errors(unsigned long, char const*, unsigned long, char32_t*)
PUBLIC 88d5c 0 simdutf::scalar::(anonymous namespace)::utf8_to_utf16::rewind_and_convert_with_errors<(simdutf::endianness)0>(unsigned long, char const*, unsigned long, char16_t*)
PUBLIC 89068 0 simdutf::scalar::(anonymous namespace)::utf8_to_utf16::rewind_and_convert_with_errors<(simdutf::endianness)1>(unsigned long, char const*, unsigned long, char16_t*)
PUBLIC 893c0 0 simdutf::scalar::(anonymous namespace)::base64::base64_tail_decode<char>(char*, char const*, unsigned long, unsigned long, simdutf::base64_options, simdutf::last_chunk_handling_options)
PUBLIC 89764 0 simdutf::scalar::(anonymous namespace)::base64::base64_tail_decode<char16_t>(char*, char16_t const*, unsigned long, unsigned long, simdutf::base64_options, simdutf::last_chunk_handling_options)
PUBLIC 89b6c 0 std::__ndk1::unordered_map<void*, bool, std::__ndk1::hash<void*>, std::__ndk1::equal_to<void*>, std::__ndk1::allocator<std::__ndk1::pair<void* const, bool> > >::~unordered_map[abi:ne190000]()
PUBLIC 89bb8 0 wrapFunction(unsigned long, tulip::hook::WrapperMetadata const&)
PUBLIC 89cec 0 geode::impl::ResultData<void*, std::__ndk1::basic_string<char, std::__ndk1::char_traits<char>, std::__ndk1::allocator<char> > >::unwrapErr() &
PUBLIC 89d64 0 geode::impl::ResultData<void*, std::__ndk1::basic_string<char, std::__ndk1::char_traits<char>, std::__ndk1::allocator<char> > >::~ResultData()
PUBLIC 89dd8 0 tulip::hook::WrapperMetadata::~WrapperMetadata()
PUBLIC 89e3c 0 cocos2d::CCObject::CCObject()
PUBLIC 8a060 0 cocos2d::CCObject::~CCObject()
PUBLIC 8a084 0 cocos2d::CCNode::CCNode()
PUBLIC 8a2e0 0 cocos2d::CCNode::~CCNode()
PUBLIC 8a304 0 cocos2d::CCNodeRGBA::CCNodeRGBA()
PUBLIC 8a568 0 cocos2d::CCNodeRGBA::~CCNodeRGBA()
PUBLIC 8a58c 0 cocos2d::CCSet::CCSet()
PUBLIC 8a7ac 0 cocos2d::CCSet::~CCSet()
PUBLIC 8aa10 0 cocos2d::CCSet::~CCSet()
PUBLIC 8aa34 0 {virtual override thunk({offset(-320)}, cocos2d::CCLayer::~CCLayer())}
PUBLIC 8aa3c 0 cocos2d::CCLayer::~CCLayer()
PUBLIC 8aa60 0 {virtual override thunk({offset(-320)}, cocos2d::CCLayer::~CCLayer())}
PUBLIC 8aa88 0 cocos2d::CCLayerRGBA::~CCLayerRGBA()
PUBLIC 8ad88 0 {virtual override thunk({offset(-320)}, cocos2d::CCLayerRGBA::~CCLayerRGBA())}
PUBLIC 8ad90 0 cocos2d::CCLayerRGBA::~CCLayerRGBA()
PUBLIC 8adb4 0 {virtual override thunk({offset(-320)}, cocos2d::CCLayerRGBA::~CCLayerRGBA())}
PUBLIC 8addc 0 cocos2d::CCLayerColor::CCLayerColor()
PUBLIC 8b040 0 {virtual override thunk({offset(-320)}, cocos2d::CCLayerColor::~CCLayerColor())}
PUBLIC 8b048 0 cocos2d::CCLayerColor::~CCLayerColor()
PUBLIC 8b06c 0 {virtual override thunk({offset(-320)}, cocos2d::CCLayerColor::~CCLayerColor())}
PUBLIC m 8b094 0 cocos2d::CCSprite::CCSprite()
PUBLIC 8b2f4 0 cocos2d::CCSprite::~CCSprite()
PUBLIC 8b318 0 cocos2d::CCMenuItem::~CCMenuItem()
PUBLIC 8b33c 0 FLAlertLayer::FLAlertLayer()
PUBLIC 8b3d8 0 {virtual override thunk({offset(-320)}, FLAlertLayer::~FLAlertLayer())}
PUBLIC 8b3e0 0 FLAlertLayer::~FLAlertLayer()
PUBLIC 8b404 0 {virtual override thunk({offset(-320)}, FLAlertLayer::~FLAlertLayer())}
PUBLIC 8b42c 0 cocos2d::CCNodeRGBA::~CCNodeRGBA()
PUBLIC 8b6e4 0 CCMenuItemSpriteExtra::CCMenuItemSpriteExtra()
PUBLIC 8b79c 0 cocos2d::CCMenuItem::~CCMenuItem()
PUBLIC 8ba5c 0 CCMenuItemSpriteExtra::~CCMenuItemSpriteExtra()
PUBLIC 8baa0 0 CCMenuItemSpriteExtra::~CCMenuItemSpriteExtra()
PUBLIC 8baec 0 CCMenuItemSpriteExtra::create(cocos2d::CCNode*, cocos2d::CCObject*, void (cocos2d::CCObject::*)(cocos2d::CCObject*))
PUBLIC 8bb00 0 CCScrollLayerExt::CCScrollLayerExt(cocos2d::CCRect)
PUBLIC 8bd84 0 tulip::hook::AbstractFunction::from<void, CCScrollLayerExt*, cocos2d::CCRect>(void (*)(CCScrollLayerExt*, cocos2d::CCRect))
PUBLIC 8be24 0 CCScrollLayerExtDelegate::scrllViewWillBeginDecelerating(CCScrollLayerExt*)
PUBLIC 8be28 0 CCScrollLayerExtDelegate::scrollViewDidEndDecelerating(CCScrollLayerExt*)
PUBLIC 8be2c 0 CCScrollLayerExtDelegate::scrollViewTouchMoving(CCScrollLayerExt*)
PUBLIC 8be30 0 CCScrollLayerExtDelegate::scrollViewDidEndMoving(CCScrollLayerExt*)
PUBLIC 8be34 0 CCScrollLayerExtDelegate::scrollViewTouchBegin(CCScrollLayerExt*)
PUBLIC 8be38 0 CCScrollLayerExtDelegate::scrollViewTouchEnd(CCScrollLayerExt*)
PUBLIC 8be3c 0 tulip::hook::AbstractFunction::from<void, CCTextInputNode*, gd::string>(void (*)(CCTextInputNode*, gd::string))
PUBLIC 8bedc 0 CCTextInputNode::setString(gd::string)
PUBLIC 8c054 0 cocos2d::CCSprite::~CCSprite()
PUBLIC 8c314 0 ShareCommentLayer::init(gd::string, int, CommentType, int, gd::string)
PUBLIC 8c4e0 0 tulip::hook::AbstractFunction::from<bool, ShareCommentLayer*, gd::string, int, CommentType, int, gd::string>(bool (*)(ShareCommentLayer*, gd::string, int, CommentType, int, gd::string))
PUBLIC 8c8b4 0 cocos2d::CCLayerColor::~CCLayerColor()
PUBLIC 8cb98 0 cocos2d::CCLayer::~CCLayer()
PUBLIC 8ce88 0 cocos2d::CCNode::~CCNode()
PUBLIC 8d128 0 FLAlertLayer::~FLAlertLayer()
PUBLIC 8d40c 0 cocos2d::CCObject::~CCObject()
PUBLIC 8d900 0 _ZN5geode15UnwrapExceptionC2IRPvQsr4implE18IsStringStreamableIT_EEENS_4impl5OkTagEOS4_
PUBLIC 8da54 0 std::__ndk1::__variant_detail::__visitation::__base::__dispatcher<(unsigned long)0>::__dispatch[abi:ne190000]<std::__ndk1::__variant_detail::__dtor<std::__ndk1::__variant_detail::__traits<void*, std::__ndk1::basic_string<char, std::__ndk1::char_traits<char>, std::__ndk1::allocator<char> > >, (std::__ndk1::__variant_detail::_Trait)1>::__destroy[abi:ne190000]()::{lambda(auto:1&)#1}, std::__ndk1::__variant_detail::__base<(std::__ndk1::__variant_detail::__traits<void*, std::__ndk1::basic_string<char, std::__ndk1::char_traits<char>, std::__ndk1::allocator<char> > >)1, std::__ndk1::__variant_detail::__traits, std::__ndk1::allocator<char> >&>(std::__ndk1::__variant_detail::__dtor<std::__ndk1::__variant_detail::__traits<void*, std::__ndk1::basic_string<char, std::__ndk1::char_traits<char>, std::__ndk1::allocator<char> > >, (std::__ndk1::__variant_detail::_Trait)1>, std::__ndk1::__variant_detail::__base<(std::__ndk1::__variant_detail::__traits<void*, std::__ndk1::basic_string<char, std::__ndk1::char_traits<char>, std::__ndk1::allocator<char> > >)1, std::__ndk1::__variant_detail::__traits, std::__ndk1::allocator<char> >&)
PUBLIC 8da58 0 std::__ndk1::__variant_detail::__visitation::__base::__dispatcher<(unsigned long)1>::__dispatch[abi:ne190000]<std::__ndk1::__variant_detail::__dtor<std::__ndk1::__variant_detail::__traits<void*, std::__ndk1::basic_string<char, std::__ndk1::char_traits<char>, std::__ndk1::allocator<char> > >, (std::__ndk1::__variant_detail::_Trait)1>::__destroy[abi:ne190000]()::{lambda(auto:1&)#1}, std::__ndk1::__variant_detail::__base<(std::__ndk1::__variant_detail::__traits<void*, std::__ndk1::basic_string<char, std::__ndk1::char_traits<char>, std::__ndk1::allocator<char> > >)1, std::__ndk1::__variant_detail::__traits, std::__ndk1::allocator<char> >&>(std::__ndk1::__variant_detail::__dtor<std::__ndk1::__variant_detail::__traits<void*, std::__ndk1::basic_string<char, std::__ndk1::char_traits<char>, std::__ndk1::allocator<char> > >, (std::__ndk1::__variant_detail::_Trait)1>, std::__ndk1::__variant_detail::__base<(std::__ndk1::__variant_detail::__traits<void*, std::__ndk1::basic_string<char, std::__ndk1::char_traits<char>, std::__ndk1::allocator<char> > >)1, std::__ndk1::__variant_detail::__traits, std::__ndk1::allocator<char> >&)
PUBLIC 8da6c 0 std::__ndk1::__hash_table<std::__ndk1::__hash_value_type<void*, bool>, std::__ndk1::__unordered_map_hasher<void*, std::__ndk1::__hash_value_type<void*, bool>, std::__ndk1::hash<void*>, std::__ndk1::equal_to<void*>, true>, std::__ndk1::__unordered_map_equal<void*, std::__ndk1::__hash_value_type<void*, bool>, std::__ndk1::equal_to<void*>, std::__ndk1::hash<void*>, true>, std::__ndk1::allocator<std::__ndk1::__hash_value_type<void*, bool> > >::__emplace_unique_key_args<void*, std::__ndk1::piecewise_construct_t const&, std::__ndk1::tuple<void* const&>, std::__ndk1::tuple<> >(void* const&, std::__ndk1::piecewise_construct_t const&, std::__ndk1::tuple<void* const&>, std::__ndk1::tuple<>)
PUBLIC 8df78 0 __udivti3
PUBLIC 8df84 0 __udivmodti4
PUBLIC m 8e1d0 0 __eqtf2
PUBLIC 8e270 0 __unordtf2
PUBLIC 8e2a8 0 fmt::v11::detail::write_loc(fmt::v11::basic_appender<char>, fmt::v11::loc_value, fmt::v11::format_specs const&, fmt::v11::detail::locale_ref)
PUBLIC 8e53c 0 fmt::v11::format_facet<std::__ndk1::locale>::~format_facet()
PUBLIC 8e5b8 0 fmt::v11::report_error(char const*)
PUBLIC 8e608 0 fmt::v11::format_error::runtime_error(char const*)
PUBLIC 8e634 0 fmt::v11::format_facet<std::__ndk1::locale>::do_put(fmt::v11::basic_appender<char>, fmt::v11::loc_value, fmt::v11::format_specs const&) const
PUBLIC 8edf4 0 fmt::v11::detail::loc_writer<char>::~loc_writer()
PUBLIC 8ee58 0 fmt::v11::vformat(fmt::v11::basic_string_view<char>, fmt::v11::basic_format_args<fmt::v11::context>)
PUBLIC 8efa4 0 fmt::v11::detail::vformat_to<char>(fmt::v11::detail::buffer<char>&, fmt::v11::basic_string_view<char>, fmt::v11::detail::vformat_args<char>::type, fmt::v11::detail::locale_ref)
PUBLIC 8f514 0 fmt::v11::detail::is_printable(unsigned int)
PUBLIC 8f73c 0 fmt::v11::detail::dragonbox::to_decimal<float>(float)
PUBLIC 8fa18 0 fmt::v11::detail::dragonbox::to_decimal<double>(double)
PUBLIC 8ff54 0 fmt::v11::basic_memory_buffer<char, (unsigned long)500, std::__ndk1::allocator<char> >::grow(fmt::v11::detail::buffer<char>&, unsigned long)
PUBLIC 8ffcc 0 fmt::v11::format_facet<std::__ndk1::locale>::~format_facet()
PUBLIC 90058 0 fmt::v11::format_error::~format_error()
PUBLIC 9007c 0 fmt::v11::detail::copy_noinline<char, char const*, fmt::v11::basic_appender<char> >(char const*, char const*, fmt::v11::basic_appender<char>)
PUBLIC 901cc 0 fmt::v11::detail::default_arg_formatter<char>::operator()<bool>(bool)
PUBLIC 90234 0 fmt::v11::detail::default_arg_formatter<char>::operator()<char>(char)
PUBLIC 902c4 0 fmt::v11::detail::default_arg_formatter<char>::operator()<float>(float)
PUBLIC 903b0 0 fmt::v11::detail::default_arg_formatter<char>::operator()<double>(double)
PUBLIC 9049c 0 fmt::v11::detail::default_arg_formatter<char>::operator()<char const*>(char const*)
PUBLIC 904e4 0 fmt::v11::detail::default_arg_formatter<char>::operator()<void const*>(void const*)
PUBLIC 9057c 0 _ZN3fmt3v116detail5writeIcNS0_14basic_appenderIcEEiTnNSt6__ndk19enable_ifIXaaaasr11is_integralIT1_EE5valuentsr3std7is_sameIS7_bEE5valuentsr3std7is_sameIS7_T_EE5valueEiE4typeELi0EEET0_SB_S7_
PUBLIC 907dc 0 fmt::v11::detail::copy_noinline<char, char*, fmt::v11::basic_appender<char> >(char*, char*, fmt::v11::basic_appender<char>)
PUBLIC 9092c 0 _ZN3fmt3v116detail5writeIcNS0_14basic_appenderIcEEjTnNSt6__ndk19enable_ifIXaaaasr11is_integralIT1_EE5valuentsr3std7is_sameIS7_bEE5valuentsr3std7is_sameIS7_T_EE5valueEiE4typeELi0EEET0_SB_S7_
PUBLIC 90b0c 0 _ZN3fmt3v116detail5writeIcNS0_14basic_appenderIcEExTnNSt6__ndk19enable_ifIXaaaasr11is_integralIT1_EE5valuentsr3std7is_sameIS7_bEE5valuentsr3std7is_sameIS7_T_EE5valueEiE4typeELi0EEET0_SB_S7_
PUBLIC 90d90 0 _ZN3fmt3v116detail5writeIcNS0_14basic_appenderIcEEyTnNSt6__ndk19enable_ifIXaaaasr11is_integralIT1_EE5valuentsr3std7is_sameIS7_bEE5valuentsr3std7is_sameIS7_T_EE5valueEiE4typeELi0EEET0_SB_S7_
PUBLIC 90f98 0 _ZN3fmt3v116detail5writeIcNS0_14basic_appenderIcEEnTnNSt6__ndk19enable_ifIXaaaasr11is_integralIT1_EE5valuentsr3std7is_sameIS7_bEE5valuentsr3std7is_sameIS7_T_EE5valueEiE4typeELi0EEET0_SB_S7_
PUBLIC 912f8 0 _ZN3fmt3v116detail5writeIcNS0_14basic_appenderIcEEoTnNSt6__ndk19enable_ifIXaaaasr11is_integralIT1_EE5valuentsr3std7is_sameIS7_bEE5valuentsr3std7is_sameIS7_T_EE5valueEiE4typeELi0EEET0_SB_S7_
PUBLIC 9160c 0 _ZN3fmt3v116detail5writeIcNS0_14basic_appenderIcEEbTnNSt6__ndk19enable_ifIXsr3std7is_sameIT1_bEE5valueEiE4typeELi0EEET0_SA_S7_RKNS0_12format_specsENS1_10locale_refE
PUBLIC 9189c 0 fmt::v11::detail::write_int_noinline<char, fmt::v11::basic_appender<char>, unsigned int>(fmt::v11::basic_appender<char>, fmt::v11::detail::write_int_arg<unsigned int>, fmt::v11::format_specs const&, fmt::v11::detail::locale_ref)
PUBLIC 92664 0 fmt::v11::detail::fill<char, fmt::v11::basic_appender<char> >(fmt::v11::basic_appender<char>, unsigned long, fmt::v11::detail::fill_t const&)
PUBLIC 92834 0 fmt::v11::detail::write_padded<char, (fmt::v11::align::type)1, fmt::v11::basic_appender<char>, fmt::v11::detail::write_char<char, fmt::v11::basic_appender<char> >(fmt::v11::basic_appender<char>, char, fmt::v11::format_specs const&)::{lambda(fmt::v11::basic_appender<char>&)#1}>(fmt::v11::basic_appender<char>, fmt::v11::format_specs const&, unsigned long, unsigned long, fmt::v11::detail::write_char<char, fmt::v11::basic_appender<char> >(fmt::v11::basic_appender<char>, char, fmt::v11::format_specs const&)::{lambda(fmt::v11::basic_appender<char>&)#1})
PUBLIC 92a70 0 fmt::v11::detail::write_escaped_cp<fmt::v11::basic_appender<char>, char>(fmt::v11::basic_appender<char>, fmt::v11::detail::find_escape_result<char> const&)
PUBLIC 92d7c 0 fmt::v11::detail::write_codepoint<(unsigned long)2, char, fmt::v11::basic_appender<char> >(fmt::v11::basic_appender<char>, char, unsigned int)
PUBLIC 92ef4 0 fmt::v11::detail::write_codepoint<(unsigned long)8, char, fmt::v11::basic_appender<char> >(fmt::v11::basic_appender<char>, char, unsigned int)
PUBLIC 9306c 0 fmt::v11::detail::write_padded<char, (fmt::v11::align::type)1, fmt::v11::basic_appender<char>, fmt::v11::detail::write_nonfinite<char, fmt::v11::basic_appender<char> >(fmt::v11::basic_appender<char>, bool, fmt::v11::format_specs, fmt::v11::sign::type)::{lambda(fmt::v11::basic_appender<char>&)#1}>(fmt::v11::basic_appender<char>, fmt::v11::format_specs const&, unsigned long, unsigned long, fmt::v11::detail::write_nonfinite<char, fmt::v11::basic_appender<char> >(fmt::v11::basic_appender<char>, bool, fmt::v11::format_specs, fmt::v11::sign::type)::{lambda(fmt::v11::basic_appender<char>&)#1})
PUBLIC 932ac 0 fmt::v11::detail::do_write_float<char, fmt::v11::basic_appender<char>, fmt::v11::detail::dragonbox::decimal_fp<float>, fmt::v11::detail::digit_grouping<char> >(fmt::v11::basic_appender<char>, fmt::v11::detail::dragonbox::decimal_fp<float> const&, fmt::v11::format_specs const&, fmt::v11::detail::float_specs, fmt::v11::detail::locale_ref)
PUBLIC 93f20 0 fmt::v11::detail::do_write_float<char, fmt::v11::basic_appender<char>, fmt::v11::detail::dragonbox::decimal_fp<float>, fmt::v11::detail::digit_grouping<char> >(fmt::v11::basic_appender<char>, fmt::v11::detail::dragonbox::decimal_fp<float> const&, fmt::v11::format_specs const&, fmt::v11::detail::float_specs, fmt::v11::detail::locale_ref)::{lambda(fmt::v11::basic_appender<char>(fmt::v11::basic_appender<char>))#1}::operator() const
PUBLIC 94074 0 fmt::v11::detail::digit_grouping<char>::digit_grouping(fmt::v11::detail::locale_ref, bool)
PUBLIC 942dc 0 fmt::v11::detail::digit_grouping<char>::~digit_grouping()
PUBLIC 94320 0 fmt::v11::detail::write_exponent<char, fmt::v11::basic_appender<char> >(int, fmt::v11::basic_appender<char>)
PUBLIC 944f0 0 _ZN3fmt3v116detail17write_significandIcjTnNSt6__ndk19enable_ifIXsr3std11is_integralIT0_EE5valueEiE4typeELi0EEEPT_S9_S5_iiS8_
PUBLIC 9466c 0 std::__ndk1::basic_string<char, std::__ndk1::char_traits<char>, std::__ndk1::allocator<char> >::__assign_no_alias<false>(char const*, unsigned long)
PUBLIC 947a8 0 fmt::v11::detail::digit_grouping<char>::apply<fmt::v11::basic_appender<char>, char>(fmt::v11::basic_appender<char>, fmt::v11::basic_string_view<char>) const
PUBLIC 94b60 0 fmt::v11::basic_memory_buffer<int, (unsigned long)500, std::__ndk1::allocator<int> >::grow(fmt::v11::detail::buffer<int>&, unsigned long)
PUBLIC 94c00 0 fmt::v11::detail::do_write_float<char, fmt::v11::basic_appender<char>, fmt::v11::detail::dragonbox::decimal_fp<double>, fmt::v11::detail::digit_grouping<char> >(fmt::v11::basic_appender<char>, fmt::v11::detail::dragonbox::decimal_fp<double> const&, fmt::v11::format_specs const&, fmt::v11::detail::float_specs, fmt::v11::detail::locale_ref)
PUBLIC 958b0 0 fmt::v11::detail::do_write_float<char, fmt::v11::basic_appender<char>, fmt::v11::detail::dragonbox::decimal_fp<double>, fmt::v11::detail::digit_grouping<char> >(fmt::v11::basic_appender<char>, fmt::v11::detail::dragonbox::decimal_fp<double> const&, fmt::v11::format_specs const&, fmt::v11::detail::float_specs, fmt::v11::detail::locale_ref)::{lambda(fmt::v11::basic_appender<char>(fmt::v11::basic_appender<char>))#1}::operator() const
PUBLIC 95a08 0 _ZN3fmt3v116detail17write_significandIcmTnNSt6__ndk19enable_ifIXsr3std11is_integralIT0_EE5valueEiE4typeELi0EEEPT_S9_S5_iiS8_
PUBLIC 95b98 0 fmt::v11::detail::write_float<char, fmt::v11::basic_appender<char>, long double>(fmt::v11::basic_appender<char>, long double, fmt::v11::format_specs, fmt::v11::detail::locale_ref)
PUBLIC 9667c 0 fmt::v11::detail::write_padded<char, (fmt::v11::align::type)2, fmt::v11::basic_appender<char>, fmt::v11::detail::write_bytes<char, (fmt::v11::align::type)2, fmt::v11::basic_appender<char> >(fmt::v11::basic_appender<char>, fmt::v11::basic_string_view<char>, fmt::v11::format_specs const&)::{lambda(fmt::v11::basic_appender<char>&)#1}>(fmt::v11::basic_appender<char>, fmt::v11::format_specs const&, unsigned long, unsigned long, fmt::v11::detail::write_bytes<char, (fmt::v11::align::type)2, fmt::v11::basic_appender<char> >(fmt::v11::basic_appender<char>, fmt::v11::basic_string_view<char>, fmt::v11::format_specs const&)::{lambda(fmt::v11::basic_appender<char>&)#1})
PUBLIC 96858 0 fmt::v11::detail::format_dragon(fmt::v11::detail::basic_fp<unsigned __int128>, unsigned int, int, fmt::v11::detail::buffer<char>&, int&)
PUBLIC 97c7c 0 fmt::v11::detail::bigint::operator<<=(int)
PUBLIC 97da0 0 fmt::v11::detail::bigint::assign_pow10(int)
PUBLIC 984fc 0 fmt::v11::detail::bigint::divmod_assign(fmt::v11::detail::bigint const&)
PUBLIC 98820 0 fmt::v11::basic_memory_buffer<unsigned int, (unsigned long)32, std::__ndk1::allocator<unsigned int> >::grow(fmt::v11::detail::buffer<unsigned int>&, unsigned long)
PUBLIC 988c0 0 fmt::v11::detail::do_write_float<char, fmt::v11::basic_appender<char>, fmt::v11::detail::big_decimal_fp, fmt::v11::detail::digit_grouping<char> >(fmt::v11::basic_appender<char>, fmt::v11::detail::big_decimal_fp const&, fmt::v11::format_specs const&, fmt::v11::detail::float_specs, fmt::v11::detail::locale_ref)
PUBLIC 9976c 0 fmt::v11::detail::do_write_float<char, fmt::v11::basic_appender<char>, fmt::v11::detail::big_decimal_fp, fmt::v11::detail::digit_grouping<char> >(fmt::v11::basic_appender<char>, fmt::v11::detail::big_decimal_fp const&, fmt::v11::format_specs const&, fmt::v11::detail::float_specs, fmt::v11::detail::locale_ref)::{lambda(fmt::v11::basic_appender<char>(fmt::v11::basic_appender<char>))#1}::operator() const
PUBLIC 998cc 0 fmt::v11::detail::write_padded<char, (fmt::v11::align::type)2, fmt::v11::basic_appender<char>, fmt::v11::detail::write_ptr<char, fmt::v11::basic_appender<char>, unsigned long>(fmt::v11::basic_appender<char>, unsigned long, fmt::v11::format_specs const*)::{lambda(fmt::v11::basic_appender<char>&)#1}>(fmt::v11::basic_appender<char>, fmt::v11::format_specs const&, unsigned long, unsigned long, fmt::v11::detail::write_ptr<char, fmt::v11::basic_appender<char>, unsigned long>(fmt::v11::basic_appender<char>, unsigned long, fmt::v11::format_specs const*)::{lambda(fmt::v11::basic_appender<char>&)#1})
PUBLIC 99ae0 0 fmt::v11::detail::parse_replacement_field<char, fmt::v11::detail::vformat_to<char>(fmt::v11::detail::buffer<char>&, fmt::v11::basic_string_view<char>, fmt::v11::detail::vformat_args<char>::type, fmt::v11::detail::locale_ref)::format_handler&>(char const*, char const*, fmt::v11::detail::vformat_to<char>(fmt::v11::detail::buffer<char>&, fmt::v11::basic_string_view<char>, fmt::v11::detail::vformat_args<char>::type, fmt::v11::detail::locale_ref)::format_handler&)
PUBLIC 9b744 0 fmt::v11::detail::parse_dynamic_spec<char>(char const*, char const*, int&, fmt::v11::detail::arg_ref<char>&, fmt::v11::basic_format_parse_context<char>&)
PUBLIC 9b9d4 0 fmt::v11::basic_format_args<fmt::v11::context>::get<char>(fmt::v11::basic_string_view<char>) const
PUBLIC 9bb08 0 fmt::v11::detail::write_int_noinline<char, fmt::v11::basic_appender<char>, unsigned long>(fmt::v11::basic_appender<char>, fmt::v11::detail::write_int_arg<unsigned long>, fmt::v11::format_specs const&, fmt::v11::detail::locale_ref)
PUBLIC 9c954 0 fmt::v11::detail::write_int_noinline<char, fmt::v11::basic_appender<char>, unsigned __int128>(fmt::v11::basic_appender<char>, fmt::v11::detail::write_int_arg<unsigned __int128>, fmt::v11::format_specs const&, fmt::v11::detail::locale_ref)
PUBLIC 9d9bc 0 _ZN3fmt3v116detail15format_hexfloatIdTnNSt6__ndk19enable_ifIXntsr16is_double_doubleIT_EE5valueEiE4typeELi0EEEvS5_NS0_12format_specsERNS1_6bufferIcEE
PUBLIC 9dedc 0 fmt::v11::detail::format_float<double>(double, int, fmt::v11::detail::float_specs, fmt::v11::detail::buffer<char>&)
PUBLIC 9e928 0 fmt::v11::detail::write<char, fmt::v11::basic_appender<char> >(fmt::v11::basic_appender<char>, fmt::v11::basic_string_view<char>, fmt::v11::format_specs const&)
PUBLIC 9fc04 0 fmt::v11::detail::for_each_codepoint<fmt::v11::detail::compute_width(fmt::v11::basic_string_view<char>)::count_code_points>(fmt::v11::basic_string_view<char>, fmt::v11::detail::compute_width(fmt::v11::basic_string_view<char>)::count_code_points)::{lambda(char const*, char const*)#1}::operator()(char const*, char const*) const
PUBLIC 9fdbc 0 fmt::v11::detail::write_int<fmt::v11::basic_appender<char>, unsigned long, char>(fmt::v11::basic_appender<char>, unsigned long, unsigned int, fmt::v11::format_specs const&, fmt::v11::detail::digit_grouping<char> const&)
PUBLIC a0338 0 fmt::v11::detail::write_int<fmt::v11::basic_appender<char>, unsigned __int128, char>(fmt::v11::basic_appender<char>, unsigned __int128, unsigned int, fmt::v11::format_specs const&, fmt::v11::detail::digit_grouping<char> const&)
PUBLIC a09c0 0 <.plt ELF section in prevter.comment_emojis.android64.so>
STACK CFI INIT 49ef0 10 .cfa: sp 0 +
STACK CFI INIT 49f00 8 .cfa: sp 0 +
STACK CFI INIT 49f08 8 .cfa: sp 0 +
STACK CFI INIT 49f10 14 .cfa: sp 0 +
STACK CFI INIT 49f24 1c .cfa: sp 0 +
STACK CFI INIT 49f40 10 .cfa: sp 0 +
STACK CFI INIT 49f50 134 .cfa: sp 0 +
STACK CFI INIT 4a084 84 .cfa: sp 0 +
STACK CFI INIT 4a108 f4 .cfa: sp 0 +
STACK CFI INIT 4a1fc a8 .cfa: sp 0 +
STACK CFI INIT 4a2a4 7c .cfa: sp 0 +
STACK CFI INIT 4a320 14 .cfa: sp 0 +
STACK CFI INIT 4a334 40 .cfa: sp 0 +
STACK CFI INIT 4a374 28 .cfa: sp 0 +
STACK CFI INIT 4a39c 190 .cfa: sp 0 +
STACK CFI INIT 4a52c 2c8 .cfa: sp 0 +
STACK CFI INIT 4a7f4 8 .cfa: sp 0 +
STACK CFI INIT 4a7fc 8 .cfa: sp 0 +
STACK CFI INIT 4a804 44 .cfa: sp 0 +
STACK CFI INIT 4a848 e8 .cfa: sp 0 +
STACK CFI INIT 4a930 e8 .cfa: sp 0 +
STACK CFI INIT 4aa18 14 .cfa: sp 0 +
STACK CFI INIT 4aa2c 10 .cfa: sp 0 +
STACK CFI INIT 4aa3c 10 .cfa: sp 0 +
STACK CFI INIT 4aa4c f0 .cfa: sp 0 +
STACK CFI INIT 4ab3c 44 .cfa: sp 0 +
STACK CFI INIT 4ab80 c .cfa: sp 0 +
STACK CFI INIT 4ab8c c .cfa: sp 0 +
STACK CFI INIT 4ab98 2c .cfa: sp 0 +
STACK CFI INIT 4abc4 23c .cfa: sp 0 +
STACK CFI INIT 4ae00 c .cfa: sp 0 +
STACK CFI INIT 4ae0c 120 .cfa: sp 0 +
STACK CFI INIT 4af2c 494 .cfa: sp 0 +
STACK CFI INIT 4b3c0 b78 .cfa: sp 0 +
STACK CFI INIT 4bf38 134 .cfa: sp 0 +
STACK CFI INIT 4c06c 210 .cfa: sp 0 +
STACK CFI INIT 4c27c 38c .cfa: sp 0 +
STACK CFI INIT 4c608 1c8 .cfa: sp 0 +
STACK CFI INIT 4c7d0 9c4 .cfa: sp 0 +
STACK CFI INIT 4d194 2d4 .cfa: sp 0 +
STACK CFI INIT 4d468 130 .cfa: sp 0 +
STACK CFI INIT 4d598 120 .cfa: sp 0 +
STACK CFI INIT 4d6b8 1c8 .cfa: sp 0 +
STACK CFI INIT 4d880 168 .cfa: sp 0 +
STACK CFI INIT 4d9e8 fc .cfa: sp 0 +
STACK CFI INIT 4dae4 30 .cfa: sp 0 +
STACK CFI INIT 4dc40 30 .cfa: sp 0 +
STACK CFI INIT 4dc70 98 .cfa: sp 0 +
STACK CFI INIT 4dd08 2ac .cfa: sp 0 +
STACK CFI INIT 4dfb4 8c .cfa: sp 0 +
STACK CFI INIT 4e040 30 .cfa: sp 0 +
STACK CFI INIT 4e070 4c .cfa: sp 0 +
STACK CFI 4e074 .cfa: sp 32 +
STACK CFI 4e07c .cfa: x29 32 + x19: .cfa -8 + ^ x20: .cfa -16 + ^ .ra: .cfa -24 + ^ x29: .cfa -32 + ^
STACK CFI 4e0a4 .cfa: sp 32 +
STACK CFI 4e0ac .cfa: sp 0 +
STACK CFI 4e0b0 .cfa: sp 32 +
STACK CFI 4e0b8 .cfa: sp 0 +
STACK CFI INIT 4e0bc 8c .cfa: sp 0 +
STACK CFI 4e0c0 .cfa: sp 48 +
STACK CFI 4e0cc .cfa: x29 48 + x19: .cfa -8 + ^ x20: .cfa -16 + ^ x21: .cfa -32 + ^ .ra: .cfa -40 + ^ x29: .cfa -48 + ^
STACK CFI 4e0e4 .cfa: sp 48 +
STACK CFI 4e0f0 .cfa: sp 0 +
STACK CFI 4e0f4 .cfa: x29 48 +
STACK CFI 4e138 .cfa: sp 48 +
STACK CFI 4e144 .cfa: sp 0 +
STACK CFI INIT 4e5bc 18 .cfa: sp 0 +
STACK CFI INIT 4ed28 18 .cfa: sp 0 +
STACK CFI INIT 4f1b4 18 .cfa: sp 0 +
STACK CFI INIT 4f1cc 4c .cfa: sp 0 +
STACK CFI 4f1d0 .cfa: sp 32 +
STACK CFI 4f1d8 .cfa: x29 32 + x19: .cfa -8 + ^ x20: .cfa -16 + ^ .ra: .cfa -24 + ^ x29: .cfa -32 + ^
STACK CFI 4f200 .cfa: sp 32 +
STACK CFI 4f208 .cfa: sp 0 +
STACK CFI 4f20c .cfa: sp 32 +
STACK CFI 4f214 .cfa: sp 0 +
STACK CFI INIT 4f218 10 .cfa: sp 0 +
STACK CFI 4f21c .cfa: sp 16 +
STACK CFI 4f220 .cfa: x29 16 + .ra: .cfa -8 + ^ x29: .cfa -16 + ^
STACK CFI INIT 4f678 44c .cfa: sp 0 +
STACK CFI INIT 4fac4 34 .cfa: sp 0 +
STACK CFI 4fac8 .cfa: sp 32 +
STACK CFI 4fad0 .cfa: x29 32 + x19: .cfa -16 + ^ .ra: .cfa -24 + ^ x29: .cfa -32 + ^
STACK CFI INIT 4faf8 1ac .cfa: sp 0 +
STACK CFI 4fafc .cfa: sp 32 +
STACK CFI 4fb04 .cfa: x29 32 + x19: .cfa -8 + ^ x20: .cfa -16 + ^ .ra: .cfa -24 + ^ x29: .cfa -32 + ^
STACK CFI 4fbf4 .cfa: sp 32 +
STACK CFI 4fbfc .cfa: sp 0 +
STACK CFI 4fc00 .cfa: x29 32 +
STACK CFI INIT 4fca4 1c .cfa: sp 0 +
STACK CFI INIT 4fcc0 1c .cfa: sp 0 +
STACK CFI INIT 4fcdc 1c .cfa: sp 0 +
STACK CFI INIT 4fcf8 18 .cfa: sp 0 +
STACK CFI INIT 4fd10 1c .cfa: sp 0 +
STACK CFI INIT 4fd2c 1c .cfa: sp 0 +
STACK CFI INIT 4fd48 1c .cfa: sp 0 +
STACK CFI INIT 4fd64 1c .cfa: sp 0 +
STACK CFI INIT 4fd80 1c .cfa: sp 0 +
STACK CFI INIT 4fd9c 1c .cfa: sp 0 +
STACK CFI INIT 4fdb8 1c .cfa: sp 0 +
STACK CFI INIT 4fdd4 1c .cfa: sp 0 +
STACK CFI INIT 4fdf0 1c .cfa: sp 0 +
STACK CFI INIT 4fe0c 1c .cfa: sp 0 +
STACK CFI INIT 4fe28 8c .cfa: sp 0 +
STACK CFI 4fe2c .cfa: sp 48 +
STACK CFI 4fe38 .cfa: x29 48 + x19: .cfa -8 + ^ x20: .cfa -16 + ^ x21: .cfa -32 + ^ .ra: .cfa -40 + ^ x29: .cfa -48 + ^
STACK CFI 4fe50 .cfa: sp 48 +
STACK CFI 4fe5c .cfa: sp 0 +
STACK CFI 4fe60 .cfa: x29 48 +
STACK CFI 4fea4 .cfa: sp 48 +
STACK CFI 4feb0 .cfa: sp 0 +
STACK CFI INIT 50328 6c .cfa: sp 0 +
STACK CFI 5032c .cfa: sp 32 +
STACK CFI 50334 .cfa: x29 32 + x19: .cfa -16 + ^ .ra: .cfa -24 + ^ x29: .cfa -32 + ^
STACK CFI 50364 .cfa: sp 32 +
STACK CFI 5036c .cfa: sp 0 +
STACK CFI 50370 .cfa: x29 32 +
STACK CFI 50388 .cfa: sp 32 +
STACK CFI 50390 .cfa: sp 0 +
STACK CFI INIT 50394 4 .cfa: sp 0 +
STACK CFI INIT 50398 4 .cfa: sp 0 +
STACK CFI INIT 5039c 34 .cfa: sp 0 +
STACK CFI 503a0 .cfa: sp 32 +
STACK CFI 503a8 .cfa: x29 32 + x19: .cfa -16 + ^ .ra: .cfa -24 + ^ x29: .cfa -32 + ^
STACK CFI 503c4 .cfa: sp 32 +
STACK CFI 503cc .cfa: sp 0 +
STACK CFI INIT 503d0 14 .cfa: sp 0 +
STACK CFI INIT 503e4 4 .cfa: sp 0 +
STACK CFI INIT 503e8 4 .cfa: sp 0 +
STACK CFI INIT 503ec 10 .cfa: sp 0 +
STACK CFI INIT 503fc 1c .cfa: sp 0 +
STACK CFI INIT 50418 c .cfa: sp 0 +
STACK CFI INIT 50424 1ac .cfa: sp 0 +
STACK CFI 50428 .cfa: sp 32 +
STACK CFI 50430 .cfa: x29 32 + x19: .cfa -8 + ^ x20: .cfa -16 + ^ .ra: .cfa -24 + ^ x29: .cfa -32 + ^
STACK CFI 50520 .cfa: sp 32 +
STACK CFI 50528 .cfa: sp 0 +
STACK CFI 5052c .cfa: x29 32 +
STACK CFI INIT 505d0 14 .cfa: sp 0 +
STACK CFI 505d4 .cfa: sp 16 +
STACK CFI 505d8 .cfa: x29 16 + .ra: .cfa -8 + ^ x29: .cfa -16 + ^
STACK CFI INIT 50634 30 .cfa: sp 0 +
STACK CFI 50638 .cfa: sp 32 +
STACK CFI 50640 .cfa: x29 32 + x19: .cfa -16 + ^ .ra: .cfa -24 + ^ x29: .cfa -32 + ^
STACK CFI 50658 .cfa: sp 32 +
STACK CFI 50660 .cfa: sp 0 +
STACK CFI INIT 50664 14 .cfa: sp 0 +
STACK CFI 50668 .cfa: sp 16 +
STACK CFI 5066c .cfa: x29 16 + .ra: .cfa -8 + ^ x29: .cfa -16 + ^
STACK CFI INIT 506c8 30 .cfa: sp 0 +
STACK CFI 506cc .cfa: sp 32 +
STACK CFI 506d4 .cfa: x29 32 + x19: .cfa -16 + ^ .ra: .cfa -24 + ^ x29: .cfa -32 + ^
STACK CFI 506ec .cfa: sp 32 +
STACK CFI 506f4 .cfa: sp 0 +
STACK CFI INIT 50a10 50 .cfa: sp 0 +
STACK CFI 50a14 .cfa: sp 32 +
STACK CFI 50a1c .cfa: x29 32 + x19: .cfa -16 + ^ .ra: .cfa -24 + ^ x29: .cfa -32 + ^
STACK CFI 50a34 .cfa: sp 32 +
STACK CFI 50a3c .cfa: sp 0 +
STACK CFI 50a40 .cfa: x29 32 +
STACK CFI 50a54 .cfa: sp 32 +
STACK CFI 50a5c .cfa: sp 0 +
STACK CFI INIT 50ad4 7c .cfa: sp 0 +
STACK CFI 50ad8 .cfa: sp 48 +
STACK CFI 50ae4 .cfa: x29 48 + x19: .cfa -8 + ^ x20: .cfa -16 + ^ x21: .cfa -32 + ^ .ra: .cfa -40 + ^ x29: .cfa -48 + ^
STACK CFI 50b30 .cfa: sp 48 +
STACK CFI 50b3c .cfa: sp 0 +
STACK CFI 50b40 .cfa: sp 48 +
STACK CFI 50b4c .cfa: sp 0 +
STACK CFI INIT 50b50 4 .cfa: sp 0 +
STACK CFI INIT 50ca8 34 .cfa: sp 0 +
STACK CFI 50cac .cfa: sp 16 +
STACK CFI 50cb0 .cfa: x29 16 + .ra: .cfa -8 + ^ x29: .cfa -16 + ^
STACK CFI INIT 50e10 80 .cfa: sp 0 +
STACK CFI 50e14 .cfa: sp 48 +
STACK CFI 50e20 .cfa: x29 48 + x19: .cfa -8 + ^ x20: .cfa -16 + ^ x21: .cfa -32 + ^ .ra: .cfa -40 + ^ x29: .cfa -48 + ^
STACK CFI 50e80 .cfa: sp 48 +
STACK CFI 50e8c .cfa: sp 0 +
STACK CFI INIT 50e90 24 .cfa: sp 0 +
STACK CFI 50e94 .cfa: sp 32 +
STACK CFI 50e9c .cfa: x29 32 + x19: .cfa -16 + ^ .ra: .cfa -24 + ^ x29: .cfa -32 + ^
STACK CFI 50ea8 .cfa: sp 32 +
STACK CFI 50eb0 .cfa: sp 0 +
STACK CFI INIT 513b4 148 .cfa: sp 0 +
STACK CFI 513b8 .cfa: sp 48 +
STACK CFI 513c4 .cfa: x29 48 + x19: .cfa -8 + ^ x20: .cfa -16 + ^ x21: .cfa -32 + ^ .ra: .cfa -40 + ^ x29: .cfa -48 + ^
STACK CFI 514ec .cfa: sp 48 +
STACK CFI 514f8 .cfa: sp 0 +
STACK CFI INIT 514fc 88 .cfa: sp 0 +
STACK CFI 51504 .cfa: sp 48 +
STACK CFI 51510 .cfa: x29 48 + x19: .cfa -8 + ^ x20: .cfa -16 + ^ x21: .cfa -24 + ^ x22: .cfa -32 + ^ .ra: .cfa -40 + ^ x29: .cfa -48 + ^
STACK CFI 51574 .cfa: sp 48 +
STACK CFI 51580 .cfa: sp 0 +
STACK CFI INIT 51734 94 .cfa: sp 0 +
STACK CFI 51738 .cfa: sp 48 +
STACK CFI 51744 .cfa: x29 48 + x19: .cfa -8 + ^ x20: .cfa -16 + ^ x21: .cfa -24 + ^ x22: .cfa -32 + ^ .ra: .cfa -40 + ^ x29: .cfa -48 + ^
STACK CFI 5175c .cfa: sp 48 +
STACK CFI 51768 .cfa: sp 0 +
STACK CFI 5176c .cfa: x29 48 +
STACK CFI 517b0 .cfa: sp 48 +
STACK CFI 517bc .cfa: sp 0 +
STACK CFI 517c0 .cfa: x29 48 +
STACK CFI INIT 517c8 68 .cfa: sp 0 +
STACK CFI 517cc .cfa: sp 32 +
STACK CFI 517d4 .cfa: x29 32 + x19: .cfa -8 + ^ x20: .cfa -16 + ^ .ra: .cfa -24 + ^ x29: .cfa -32 + ^
STACK CFI 517ec .cfa: sp 32 +
STACK CFI 517f4 .cfa: sp 0 +
STACK CFI 517f8 .cfa: x29 32 +
STACK CFI 51824 .cfa: sp 32 +
STACK CFI 5182c .cfa: sp 0 +
STACK CFI INIT 51830 14 .cfa: sp 0 +
STACK CFI 51834 .cfa: sp 16 +
STACK CFI 51838 .cfa: x29 16 + .ra: .cfa -8 + ^ x29: .cfa -16 + ^
STACK CFI INIT 51844 4 .cfa: sp 0 +
STACK CFI INIT 51848 14 .cfa: sp 0 +
STACK CFI INIT 5185c 128 .cfa: sp 0 +
STACK CFI 51860 .cfa: sp 64 +
STACK CFI 51870 .cfa: x29 64 + x19: .cfa -8 + ^ x20: .cfa -16 + ^ x21: .cfa -24 + ^ x22: .cfa -32 + ^ x23: .cfa -40 + ^ x24: .cfa -48 + ^ .ra: .cfa -56 + ^ x29: .cfa -64 + ^
STACK CFI 51970 .cfa: sp 64 +
STACK CFI 51980 .cfa: sp 0 +
STACK CFI INIT 51984 4a4 .cfa: sp 0 +
STACK CFI 51988 .cfa: sp 32 +
STACK CFI 51990 .cfa: x29 32 + x19: .cfa -8 + ^ x20: .cfa -16 + ^ .ra: .cfa -24 + ^ x29: .cfa -32 + ^
STACK CFI 51d70 .cfa: sp 32 +
STACK CFI 51d78 .cfa: sp 0 +
STACK CFI 51d7c .cfa: x29 32 +
STACK CFI INIT 51e28 84 .cfa: sp 0 +
STACK CFI 51e30 .cfa: sp 32 +
STACK CFI 51e38 .cfa: x29 32 + x19: .cfa -8 + ^ x20: .cfa -16 + ^ .ra: .cfa -24 + ^ x29: .cfa -32 + ^
STACK CFI 51e78 .cfa: sp 32 +
STACK CFI 51e80 .cfa: sp 0 +
STACK CFI 51e88 .cfa: x29 32 +
STACK CFI INIT 51eac 14 .cfa: sp 0 +
STACK CFI 51eb0 .cfa: sp 16 +
STACK CFI 51eb4 .cfa: x29 16 + .ra: .cfa -8 + ^ x29: .cfa -16 + ^
STACK CFI 51eb8 .cfa: sp 16 +
STACK CFI 51ebc .cfa: sp 0 +
STACK CFI INIT 51ec0 50 .cfa: sp 0 +
STACK CFI 51ec4 .cfa: sp 32 +
STACK CFI 51ecc .cfa: x29 32 + x19: .cfa -16 + ^ .ra: .cfa -24 + ^ x29: .cfa -32 + ^
STACK CFI 51ee4 .cfa: sp 32 +
STACK CFI 51eec .cfa: sp 0 +
STACK CFI 51ef0 .cfa: x29 32 +
STACK CFI 51f04 .cfa: sp 32 +
STACK CFI 51f0c .cfa: sp 0 +
STACK CFI INIT 51f10 64 .cfa: sp 0 +
STACK CFI 51f14 .cfa: sp 32 +
STACK CFI 51f1c .cfa: x29 32 + x19: .cfa -16 + ^ .ra: .cfa -24 + ^ x29: .cfa -32 + ^
STACK CFI 51f48 .cfa: sp 32 +
STACK CFI 51f50 .cfa: sp 0 +
STACK CFI 51f54 .cfa: x29 32 +
STACK CFI 51f68 .cfa: sp 32 +
STACK CFI 51f70 .cfa: sp 0 +
STACK CFI INIT 51f74 14 .cfa: sp 0 +
STACK CFI 51f78 .cfa: sp 16 +
STACK CFI 51f7c .cfa: x29 16 + .ra: .cfa -8 + ^ x29: .cfa -16 + ^
STACK CFI INIT 51f88 168 .cfa: sp 0 +
STACK CFI 51f8c .cfa: sp 80 +
STACK CFI 51fa0 .cfa: x29 80 + x19: .cfa -8 + ^ x20: .cfa -16 + ^ x21: .cfa -24 + ^ x22: .cfa -32 + ^ x23: .cfa -40 + ^ x24: .cfa -48 + ^ x25: .cfa -56 + ^ x26: .cfa -64 + ^ .ra: .cfa -72 + ^ x29: .cfa -80 + ^
STACK CFI 520d8 .cfa: sp 80 +
STACK CFI 520ec .cfa: sp 0 +
STACK CFI INIT 520f0 7c .cfa: sp 0 +
STACK CFI 520f4 .cfa: sp 32 +
STACK CFI 520fc .cfa: x29 32 + x19: .cfa -8 + ^ x20: .cfa -16 + ^ .ra: .cfa -24 + ^ x29: .cfa -32 + ^
STACK CFI 52154 .cfa: sp 32 +
STACK CFI 5215c .cfa: sp 0 +
STACK CFI 52160 .cfa: sp 32 +
STACK CFI 52168 .cfa: sp 0 +
STACK CFI INIT 5216c 1a8 .cfa: sp 0 +
STACK CFI INIT 52674 4 .cfa: sp 0 +
STACK CFI INIT 527e0 4 .cfa: sp 0 +
STACK CFI INIT 527e4 14 .cfa: sp 0 +
STACK CFI INIT 53294 4 .cfa: sp 0 +
STACK CFI INIT 539d0 70 .cfa: sp 0 +
STACK CFI 539d4 .cfa: sp 48 +
STACK CFI 539e0 .cfa: x29 32 + x19: .cfa -16 + ^ .ra: .cfa -24 + ^ x29: .cfa -32 + ^
STACK CFI 53a18 .cfa: sp 48 +
STACK CFI 53a24 .cfa: sp 0 +
STACK CFI 53a28 .cfa: x29 32 +
STACK CFI INIT 53a40 8 .cfa: sp 0 +
STACK CFI INIT 53a48 5c .cfa: sp 0 +
STACK CFI 53a4c .cfa: sp 32 +
STACK CFI 53a54 .cfa: x29 32 + x19: .cfa -16 + ^ .ra: .cfa -24 + ^ x29: .cfa -32 + ^
STACK CFI 53a98 .cfa: sp 32 +
STACK CFI 53aa0 .cfa: sp 0 +
STACK CFI INIT 53aa4 64 .cfa: sp 0 +
STACK CFI 53aa8 .cfa: sp 32 +
STACK CFI 53ab0 .cfa: x29 32 + x19: .cfa -16 + ^ .ra: .cfa -24 + ^ x29: .cfa -32 + ^
STACK CFI 53afc .cfa: sp 32 +
STACK CFI 53b04 .cfa: sp 0 +
STACK CFI INIT 53b08 4 .cfa: sp 0 +
STACK CFI INIT 53b0c 34 .cfa: sp 0 +
STACK CFI 53b10 .cfa: sp 16 +
STACK CFI 53b14 .cfa: x29 16 + .ra: .cfa -8 + ^ x29: .cfa -16 + ^
STACK CFI INIT 53b40 24 .cfa: sp 0 +
STACK CFI 53b44 .cfa: sp 32 +
STACK CFI 53b4c .cfa: x29 32 + x19: .cfa -16 + ^ .ra: .cfa -24 + ^ x29: .cfa -32 + ^
STACK CFI 53b58 .cfa: sp 32 +
STACK CFI 53b60 .cfa: sp 0 +
STACK CFI INIT 53b64 4 .cfa: sp 0 +
STACK CFI INIT 53b68 4 .cfa: sp 0 +
STACK CFI INIT 53b6c 34 .cfa: sp 0 +
STACK CFI 53b70 .cfa: sp 32 +
STACK CFI 53b78 .cfa: x29 32 + x19: .cfa -16 + ^ .ra: .cfa -24 + ^ x29: .cfa -32 + ^
STACK CFI 53b94 .cfa: sp 32 +
STACK CFI 53b9c .cfa: sp 0 +
STACK CFI INIT 53ba0 14 .cfa: sp 0 +
STACK CFI INIT 53bb4 4 .cfa: sp 0 +
STACK CFI INIT 53bb8 4 .cfa: sp 0 +
STACK CFI INIT 53bbc 1c .cfa: sp 0 +
STACK CFI 53bc0 .cfa: sp 16 +
STACK CFI 53bc4 .cfa: x29 16 + .ra: .cfa -8 + ^ x29: .cfa -16 + ^
STACK CFI 53bd0 .cfa: sp 16 +
STACK CFI 53bd4 .cfa: sp 0 +
STACK CFI INIT 53bd8 1c .cfa: sp 0 +
STACK CFI INIT 53bf4 c .cfa: sp 0 +
STACK CFI INIT 53e74 64 .cfa: sp 0 +
STACK CFI 53e78 .cfa: sp 48 +
STACK CFI 53e84 .cfa: x29 48 + x19: .cfa -8 + ^ x20: .cfa -16 + ^ x21: .cfa -32 + ^ .ra: .cfa -40 + ^ x29: .cfa -48 + ^
STACK CFI 53eb8 .cfa: sp 48 +
STACK CFI 53ec4 .cfa: sp 0 +
STACK CFI 53ec8 .cfa: sp 48 +
STACK CFI 53ed4 .cfa: sp 0 +
STACK CFI INIT 53ed8 84 .cfa: sp 0 +
STACK CFI 53edc .cfa: sp 32 +
STACK CFI 53ee4 .cfa: x29 32 + x19: .cfa -8 + ^ x20: .cfa -16 + ^ .ra: .cfa -24 + ^ x29: .cfa -32 + ^
STACK CFI 53f44 .cfa: sp 32 +
STACK CFI 53f4c .cfa: sp 0 +
STACK CFI 53f50 .cfa: sp 32 +
STACK CFI 53f58 .cfa: sp 0 +
STACK CFI INIT 53f5c e4 .cfa: sp 0 +
STACK CFI 53f60 .cfa: sp 48 +
STACK CFI 53f6c .cfa: x29 48 + x19: .cfa -8 + ^ x20: .cfa -16 + ^ x21: .cfa -32 + ^ .ra: .cfa -40 + ^ x29: .cfa -48 + ^
STACK CFI 53fe4 .cfa: sp 48 +
STACK CFI 53ff0 .cfa: sp 0 +
STACK CFI 53ff4 .cfa: x29 48 +
STACK CFI INIT 57170 7c .cfa: sp 0 +
STACK CFI 57174 .cfa: sp 48 +
STACK CFI 57180 .cfa: x29 48 + x19: .cfa -8 + ^ x20: .cfa -16 + ^ x21: .cfa -32 + ^ .ra: .cfa -40 + ^ x29: .cfa -48 + ^
STACK CFI 571dc .cfa: sp 48 +
STACK CFI 571e8 .cfa: sp 0 +
STACK CFI INIT 577f8 dc .cfa: sp 0 +
STACK CFI 577fc .cfa: sp 64 +
STACK CFI 5780c .cfa: x29 64 + x19: .cfa -8 + ^ x20: .cfa -16 + ^ x21: .cfa -24 + ^ x22: .cfa -32 + ^ x23: .cfa -40 + ^ x24: .cfa -48 + ^ .ra: .cfa -56 + ^ x29: .cfa -64 + ^
STACK CFI 578b4 .cfa: sp 64 +
STACK CFI 578c4 .cfa: sp 0 +
STACK CFI 578c8 .cfa: x29 64 +
STACK CFI INIT 58a78 dc .cfa: sp 0 +
STACK CFI 58a7c .cfa: sp 80 +
STACK CFI 58a8c .cfa: x29 48 + x19: .cfa -8 + ^ x20: .cfa -16 + ^ x21: .cfa -24 + ^ x22: .cfa -32 + ^ .ra: .cfa -40 + ^ x29: .cfa -48 + ^
STACK CFI 58b3c .cfa: sp 80 +
STACK CFI 58b4c .cfa: sp 0 +
STACK CFI 58b50 .cfa: x29 48 +
STACK CFI INIT 5b508 8 .cfa: sp 0 +
STACK CFI INIT 5b510 40 .cfa: sp 0 +
STACK CFI INIT 5b550 160 .cfa: sp 0 +
STACK CFI 5b554 .cfa: sp 96 +
STACK CFI 5b56c .cfa: x29 64 + x19: .cfa -8 + ^ x20: .cfa -16 + ^ x21: .cfa -24 + ^ x22: .cfa -32 + ^ x23: .cfa -48 + ^ .ra: .cfa -56 + ^ x29: .cfa -64 + ^ v8: .cfa -72 + ^ v9: .cfa -80 + ^ v10: .cfa -88 + ^ v11: .cfa -96 + ^
STACK CFI 5b694 .cfa: sp 96 +
STACK CFI 5b6ac .cfa: sp 0 +
STACK CFI INIT 5c130 304 .cfa: sp 0 +
STACK CFI INIT 5c434 f0 .cfa: sp 0 +
STACK CFI 5c438 .cfa: sp 80 +
STACK CFI 5c44c .cfa: x29 80 + x19: .cfa -8 + ^ x20: .cfa -16 + ^ x21: .cfa -24 + ^ x22: .cfa -32 + ^ x23: .cfa -40 + ^ x24: .cfa -48 + ^ x25: .cfa -64 + ^ .ra: .cfa -72 + ^ x29: .cfa -80 + ^
STACK CFI 5c504 .cfa: sp 80 +
STACK CFI 5c518 .cfa: sp 0 +
STACK CFI 5c51c .cfa: x29 80 +
STACK CFI INIT 5c524 144 .cfa: sp 0 +
STACK CFI 5c528 .cfa: sp 80 +
STACK CFI 5c53c .cfa: x29 80 + x19: .cfa -8 + ^ x20: .cfa -16 + ^ x21: .cfa -24 + ^ x22: .cfa -32 + ^ x23: .cfa -40 + ^ x24: .cfa -48 + ^ x25: .cfa -64 + ^ .ra: .cfa -72 + ^ x29: .cfa -80 + ^
STACK CFI 5c648 .cfa: sp 80 +
STACK CFI 5c65c .cfa: sp 0 +
STACK CFI 5c660 .cfa: x29 80 +
STACK CFI INIT 5c668 34 .cfa: sp 0 +
STACK CFI 5c66c .cfa: sp 32 +
STACK CFI 5c674 .cfa: x29 32 + x19: .cfa -8 + ^ x20: .cfa -16 + ^ .ra: .cfa -24 + ^ x29: .cfa -32 + ^
STACK CFI 5c690 .cfa: sp 32 +
STACK CFI 5c698 .cfa: sp 0 +
STACK CFI INIT 5c69c 14 .cfa: sp 0 +
STACK CFI 5c6a0 .cfa: sp 16 +
STACK CFI 5c6a4 .cfa: x29 16 + .ra: .cfa -8 + ^ x29: .cfa -16 + ^
STACK CFI INIT 5c6b0 168 .cfa: sp 0 +
STACK CFI 5c6b4 .cfa: sp 48 +
STACK CFI 5c6c0 .cfa: x29 48 + x19: .cfa -8 + ^ x20: .cfa -16 + ^ x21: .cfa -32 + ^ .ra: .cfa -40 + ^ x29: .cfa -48 + ^
STACK CFI 5c7cc .cfa: sp 48 +
STACK CFI 5c7d8 .cfa: sp 0 +
STACK CFI 5c7dc .cfa: x29 48 +
STACK CFI 5c808 .cfa: sp 48 +
STACK CFI 5c814 .cfa: sp 0 +
STACK CFI INIT 5c818 24 .cfa: sp 0 +
STACK CFI 5c81c .cfa: sp 32 +
STACK CFI 5c824 .cfa: x29 32 + x19: .cfa -16 + ^ .ra: .cfa -24 + ^ x29: .cfa -32 + ^
STACK CFI 5c830 .cfa: sp 32 +
STACK CFI 5c838 .cfa: sp 0 +
STACK CFI INIT 5c83c dc .cfa: sp 0 +
STACK CFI 5c840 .cfa: sp 80 +
STACK CFI 5c854 .cfa: x29 64 + x19: .cfa -8 + ^ x20: .cfa -16 + ^ x21: .cfa -24 + ^ x22: .cfa -32 + ^ x23: .cfa -40 + ^ x24: .cfa -48 + ^ .ra: .cfa -56 + ^ x29: .cfa -64 + ^
STACK CFI 5c8fc .cfa: sp 80 +
STACK CFI 5c910 .cfa: sp 0 +
STACK CFI 5c914 .cfa: x29 64 +
STACK CFI INIT 5c918 54 .cfa: sp 0 +
STACK CFI 5c91c .cfa: sp 48 +
STACK CFI 5c928 .cfa: x29 48 + x19: .cfa -8 + ^ x20: .cfa -16 + ^ x21: .cfa -32 + ^ .ra: .cfa -40 + ^ x29: .cfa -48 + ^
STACK CFI 5c95c .cfa: sp 48 +
STACK CFI 5c968 .cfa: sp 0 +
STACK CFI INIT 5c96c 8 .cfa: sp 0 +
STACK CFI INIT 5c974 8 .cfa: sp 0 +
STACK CFI INIT 5c97c 8 .cfa: sp 0 +
STACK CFI INIT 5c984 8 .cfa: sp 0 +
STACK CFI INIT 5c98c 8 .cfa: sp 0 +
STACK CFI INIT 5c994 8 .cfa: sp 0 +
STACK CFI INIT 5c99c 8 .cfa: sp 0 +
STACK CFI INIT 5c9a4 4 .cfa: sp 0 +
STACK CFI INIT 5c9a8 4 .cfa: sp 0 +
STACK CFI INIT 5c9ac 8 .cfa: sp 0 +
STACK CFI INIT 5c9b4 4 .cfa: sp 0 +
STACK CFI INIT 5c9b8 4 .cfa: sp 0 +
STACK CFI INIT 5c9bc 34 .cfa: sp 0 +
STACK CFI 5c9c0 .cfa: sp 32 +
STACK CFI 5c9c8 .cfa: x29 32 + x19: .cfa -8 + ^ x20: .cfa -16 + ^ .ra: .cfa -24 + ^ x29: .cfa -32 + ^
STACK CFI 5c9e4 .cfa: sp 32 +
STACK CFI 5c9ec .cfa: sp 0 +
STACK CFI INIT 5c9f0 18 .cfa: sp 0 +
STACK CFI INIT 5ca08 e4 .cfa: sp 0 +
STACK CFI 5ca0c .cfa: sp 96 +
STACK CFI 5ca24 .cfa: x29 80 + x19: .cfa -8 + ^ x20: .cfa -16 + ^ x21: .cfa -24 + ^ x22: .cfa -32 + ^ x23: .cfa -40 + ^ x24: .cfa -48 + ^ x25: .cfa -64 + ^ .ra: .cfa -72 + ^ x29: .cfa -80 + ^
STACK CFI 5cacc .cfa: sp 96 +
STACK CFI 5cae4 .cfa: sp 0 +
STACK CFI 5cae8 .cfa: x29 80 +
STACK CFI INIT 5caec 8 .cfa: sp 0 +
STACK CFI INIT 5caf4 8 .cfa: sp 0 +
STACK CFI INIT 5cafc 8 .cfa: sp 0 +
STACK CFI INIT 5cb04 8 .cfa: sp 0 +
STACK CFI INIT 5cb0c 50 .cfa: sp 0 +
STACK CFI 5cb10 .cfa: sp 48 +
STACK CFI 5cb1c .cfa: x29 48 + x19: .cfa -8 + ^ x20: .cfa -16 + ^ x21: .cfa -32 + ^ .ra: .cfa -40 + ^ x29: .cfa -48 + ^
STACK CFI 5cb4c .cfa: sp 48 +
STACK CFI 5cb58 .cfa: sp 0 +
STACK CFI INIT 5cb5c 8 .cfa: sp 0 +
STACK CFI INIT 5cb64 8 .cfa: sp 0 +
STACK CFI INIT 5cb6c 8 .cfa: sp 0 +
STACK CFI INIT 5cb74 4 .cfa: sp 0 +
STACK CFI INIT 5cb78 4 .cfa: sp 0 +
STACK CFI INIT 5cb7c 8 .cfa: sp 0 +
STACK CFI INIT 5cb84 4 .cfa: sp 0 +
STACK CFI INIT 5cb88 4 .cfa: sp 0 +
STACK CFI INIT 5cb8c 34 .cfa: sp 0 +
STACK CFI 5cb90 .cfa: sp 32 +
STACK CFI 5cb98 .cfa: x29 32 + x19: .cfa -8 + ^ x20: .cfa -16 + ^ .ra: .cfa -24 + ^ x29: .cfa -32 + ^
STACK CFI 5cbb4 .cfa: sp 32 +
STACK CFI 5cbbc .cfa: sp 0 +
STACK CFI INIT 5cbc0 18 .cfa: sp 0 +
STACK CFI INIT 5cbd8 14 .cfa: sp 0 +
STACK CFI 5cbdc .cfa: sp 16 +
STACK CFI 5cbe0 .cfa: x29 16 + .ra: .cfa -8 + ^ x29: .cfa -16 + ^
STACK CFI INIT 5cbec 188 .cfa: sp 0 +
STACK CFI 5cbf0 .cfa: sp 80 +
STACK CFI 5cc04 .cfa: x29 80 + x19: .cfa -8 + ^ x20: .cfa -16 + ^ x21: .cfa -24 + ^ x22: .cfa -32 + ^ x23: .cfa -40 + ^ x24: .cfa -48 + ^ x25: .cfa -64 + ^ .ra: .cfa -72 + ^ x29: .cfa -80 + ^
STACK CFI 5cd54 .cfa: sp 80 +
STACK CFI 5cd68 .cfa: sp 0 +
STACK CFI 5cd6c .cfa: x29 80 +
STACK CFI INIT 5cd74 14 .cfa: sp 0 +
STACK CFI 5cd78 .cfa: sp 16 +
STACK CFI 5cd7c .cfa: x29 16 + .ra: .cfa -8 + ^ x29: .cfa -16 + ^
STACK CFI INIT 5cd88 14 .cfa: sp 0 +
STACK CFI 5cd8c .cfa: sp 16 +
STACK CFI 5cd90 .cfa: x29 16 + .ra: .cfa -8 + ^ x29: .cfa -16 + ^
STACK CFI INIT 5cd9c 14 .cfa: sp 0 +
STACK CFI 5cda0 .cfa: sp 16 +
STACK CFI 5cda4 .cfa: x29 16 + .ra: .cfa -8 + ^ x29: .cfa -16 + ^
STACK CFI INIT 5cdb0 14 .cfa: sp 0 +
STACK CFI 5cdb4 .cfa: sp 16 +
STACK CFI 5cdb8 .cfa: x29 16 + .ra: .cfa -8 + ^ x29: .cfa -16 + ^
STACK CFI INIT 5cdc4 14 .cfa: sp 0 +
STACK CFI 5cdc8 .cfa: sp 16 +
STACK CFI 5cdcc .cfa: x29 16 + .ra: .cfa -8 + ^ x29: .cfa -16 + ^
STACK CFI INIT 5cdd8 14 .cfa: sp 0 +
STACK CFI 5cddc .cfa: sp 16 +
STACK CFI 5cde0 .cfa: x29 16 + .ra: .cfa -8 + ^ x29: .cfa -16 + ^
STACK CFI INIT 5cdec 188 .cfa: sp 0 +
STACK CFI 5cdf0 .cfa: sp 80 +
STACK CFI 5ce04 .cfa: x29 80 + x19: .cfa -8 + ^ x20: .cfa -16 + ^ x21: .cfa -24 + ^ x22: .cfa -32 + ^ x23: .cfa -40 + ^ x24: .cfa -48 + ^ x25: .cfa -64 + ^ .ra: .cfa -72 + ^ x29: .cfa -80 + ^
STACK CFI 5cf54 .cfa: sp 80 +
STACK CFI 5cf68 .cfa: sp 0 +
STACK CFI 5cf6c .cfa: x29 80 +
STACK CFI INIT 5cf74 14 .cfa: sp 0 +
STACK CFI 5cf78 .cfa: sp 16 +
STACK CFI 5cf7c .cfa: x29 16 + .ra: .cfa -8 + ^ x29: .cfa -16 + ^
STACK CFI INIT 5cf88 94 .cfa: sp 0 +
STACK CFI 5cf8c .cfa: sp 32 +
STACK CFI 5cf94 .cfa: x29 32 + x19: .cfa -8 + ^ x20: .cfa -16 + ^ .ra: .cfa -24 + ^ x29: .cfa -32 + ^
STACK CFI 5d000 .cfa: sp 32 +
STACK CFI 5d008 .cfa: sp 0 +
STACK CFI 5d00c .cfa: x29 32 +
STACK CFI 5d010 .cfa: sp 32 +
STACK CFI 5d018 .cfa: sp 0 +
STACK CFI INIT 5d01c 44 .cfa: sp 0 +
STACK CFI 5d020 .cfa: sp 32 +
STACK CFI 5d028 .cfa: x29 32 + x19: .cfa -16 + ^ .ra: .cfa -24 + ^ x29: .cfa -32 + ^
STACK CFI 5d048 .cfa: sp 32 +
STACK CFI 5d050 .cfa: sp 0 +
STACK CFI 5d054 .cfa: sp 32 +
STACK CFI 5d05c .cfa: sp 0 +
STACK CFI INIT 5d060 ac .cfa: sp 0 +
STACK CFI 5d064 .cfa: sp 64 +
STACK CFI 5d074 .cfa: x29 64 + x19: .cfa -8 + ^ x20: .cfa -16 + ^ x21: .cfa -24 + ^ x22: .cfa -32 + ^ x23: .cfa -48 + ^ .ra: .cfa -56 + ^ x29: .cfa -64 + ^
STACK CFI 5d0f0 .cfa: sp 64 +
STACK CFI 5d100 .cfa: sp 0 +
STACK CFI 5d104 .cfa: x29 64 +
STACK CFI INIT 5d10c 4 .cfa: sp 0 +
STACK CFI INIT 5d110 14 .cfa: sp 0 +
STACK CFI INIT 5d124 3bc .cfa: sp 0 +
STACK CFI 5d128 .cfa: sp 80 +
STACK CFI 5d134 .cfa: x29 32 + x19: .cfa -8 + ^ x20: .cfa -16 + ^ .ra: .cfa -24 + ^ x29: .cfa -32 + ^
STACK CFI 5d49c .cfa: sp 80 +
STACK CFI 5d4a8 .cfa: sp 0 +
STACK CFI 5d4ac .cfa: x29 32 +
STACK CFI INIT 5d4e0 4 .cfa: sp 0 +
STACK CFI INIT 5d4e4 14 .cfa: sp 0 +
STACK CFI INIT 5d4f8 4 .cfa: sp 0 +
STACK CFI INIT 5d4fc 14 .cfa: sp 0 +
STACK CFI INIT 5daac 6c .cfa: sp 0 +
STACK CFI INIT 5db18 5c .cfa: sp 0 +
STACK CFI 5db1c .cfa: sp 32 +
STACK CFI 5db24 .cfa: x29 32 + x19: .cfa -16 + ^ .ra: .cfa -24 + ^ x29: .cfa -32 + ^
STACK CFI 5db68 .cfa: sp 32 +
STACK CFI 5db70 .cfa: sp 0 +
STACK CFI INIT 5db74 64 .cfa: sp 0 +
STACK CFI 5db78 .cfa: sp 32 +
STACK CFI 5db80 .cfa: x29 32 + x19: .cfa -16 + ^ .ra: .cfa -24 + ^ x29: .cfa -32 + ^
STACK CFI 5dbcc .cfa: sp 32 +
STACK CFI 5dbd4 .cfa: sp 0 +
STACK CFI INIT 5dbd8 c .cfa: sp 0 +
STACK CFI INIT 5dbe4 c .cfa: sp 0 +
STACK CFI INIT 5dbf0 8 .cfa: sp 0 +
STACK CFI INIT 5dbf8 8 .cfa: sp 0 +
STACK CFI INIT 5dc00 8 .cfa: sp 0 +
STACK CFI INIT 5dc08 8 .cfa: sp 0 +
STACK CFI INIT 5dc10 14 .cfa: sp 0 +
STACK CFI 5dc14 .cfa: sp 16 +
STACK CFI 5dc18 .cfa: x29 16 + .ra: .cfa -8 + ^ x29: .cfa -16 + ^
STACK CFI INIT 5de80 3c .cfa: sp 0 +
STACK CFI 5de84 .cfa: sp 32 +
STACK CFI 5de8c .cfa: x29 32 + x19: .cfa -16 + ^ .ra: .cfa -24 + ^ x29: .cfa -32 + ^
STACK CFI 5de98 .cfa: sp 32 +
STACK CFI 5dea0 .cfa: sp 0 +
STACK CFI 5dea4 .cfa: x29 32 +
STACK CFI 5deb0 .cfa: sp 32 +
STACK CFI 5deb8 .cfa: sp 0 +
STACK CFI INIT 5debc 114 .cfa: sp 0 +
STACK CFI 5dec0 .cfa: sp 80 +
STACK CFI 5ded0 .cfa: x29 48 + x19: .cfa -8 + ^ x20: .cfa -16 + ^ x21: .cfa -24 + ^ x22: .cfa -32 + ^ .ra: .cfa -40 + ^ x29: .cfa -48 + ^
STACK CFI 5dfb8 .cfa: sp 80 +
STACK CFI 5dfc8 .cfa: sp 0 +
STACK CFI 5dfcc .cfa: x29 48 +
STACK CFI INIT 6090c d0 .cfa: sp 0 +
STACK CFI 60910 .cfa: sp 64 +
STACK CFI 60920 .cfa: x29 64 + x19: .cfa -8 + ^ x20: .cfa -16 + ^ x21: .cfa -24 + ^ x22: .cfa -32 + ^ x23: .cfa -48 + ^ .ra: .cfa -56 + ^ x29: .cfa -64 + ^
STACK CFI 60940 .cfa: sp 64 +
STACK CFI 60950 .cfa: sp 0 +
STACK CFI 60954 .cfa: x29 64 +
STACK CFI 609b4 .cfa: sp 64 +
STACK CFI 609c4 .cfa: sp 0 +
STACK CFI 609c8 .cfa: sp 64 +
STACK CFI 609d8 .cfa: sp 0 +
STACK CFI INIT 60f7c 7c .cfa: sp 0 +
STACK CFI 60f80 .cfa: sp 48 +
STACK CFI 60f8c .cfa: x29 48 + x19: .cfa -8 + ^ x20: .cfa -16 + ^ x21: .cfa -32 + ^ .ra: .cfa -40 + ^ x29: .cfa -48 + ^
STACK CFI 60fd8 .cfa: sp 48 +
STACK CFI 60fe4 .cfa: sp 0 +
STACK CFI 60fe8 .cfa: sp 48 +
STACK CFI 60ff4 .cfa: sp 0 +
STACK CFI INIT 6113c fc .cfa: sp 0 +
STACK CFI 61140 .cfa: sp 64 +
STACK CFI 61150 .cfa: x29 48 + x19: .cfa -8 + ^ x20: .cfa -16 + ^ x21: .cfa -32 + ^ .ra: .cfa -40 + ^ x29: .cfa -48 + ^
STACK CFI 61220 .cfa: sp 64 +
STACK CFI 61230 .cfa: sp 0 +
STACK CFI 61234 .cfa: x29 48 +
STACK CFI INIT 61238 98 .cfa: sp 0 +
STACK CFI 6123c .cfa: sp 304 +
STACK CFI 61248 .cfa: x29 32 + x19: .cfa -8 + ^ x28: .cfa -16 + ^ .ra: .cfa -24 + ^ x29: .cfa -32 + ^
STACK CFI 612bc .cfa: sp 304 +
STACK CFI 612c8 .cfa: sp 0 +
STACK CFI 612cc .cfa: x29 32 +
STACK CFI INIT 612d0 8 .cfa: sp 0 +
STACK CFI INIT 612d8 b8 .cfa: sp 0 +
STACK CFI 612dc .cfa: sp 80 +
STACK CFI 612f0 .cfa: x29 48 + x19: .cfa -8 + ^ x20: .cfa -16 + ^ x21: .cfa -24 + ^ x22: .cfa -32 + ^ .ra: .cfa -40 + ^ x29: .cfa -48 + ^ v8: .cfa -64 + ^
STACK CFI 61374 .cfa: sp 80 +
STACK CFI 61388 .cfa: sp 0 +
STACK CFI 6138c .cfa: x29 48 +
STACK CFI INIT 61390 c8 .cfa: sp 0 +
STACK CFI 61394 .cfa: sp 80 +
STACK CFI 613ac .cfa: x29 56 + x19: .cfa -8 + ^ x20: .cfa -16 + ^ x21: .cfa -24 + ^ x22: .cfa -32 + ^ x23: .cfa -40 + ^ .ra: .cfa -48 + ^ x29: .cfa -56 + ^ v8: .cfa -64 + ^
STACK CFI 61438 .cfa: sp 80 +
STACK CFI 61450 .cfa: sp 0 +
STACK CFI 61454 .cfa: x29 56 +
STACK CFI INIT 614cc 2c .cfa: sp 0 +
STACK CFI 614d0 .cfa: sp 32 +
STACK CFI 614d8 .cfa: x29 32 + x19: .cfa -16 + ^ .ra: .cfa -24 + ^ x29: .cfa -32 + ^
STACK CFI 614ec .cfa: sp 32 +
STACK CFI 614f4 .cfa: sp 0 +
STACK CFI INIT 614f8 28 .cfa: sp 0 +
STACK CFI INIT 61520 4 .cfa: sp 0 +
STACK CFI INIT 61524 8 .cfa: sp 0 +
STACK CFI INIT 61740 2c .cfa: sp 0 +
STACK CFI INIT 6176c 4 .cfa: sp 0 +
STACK CFI INIT 61770 4 .cfa: sp 0 +
STACK CFI INIT 61774 4 .cfa: sp 0 +
STACK CFI INIT 61778 4 .cfa: sp 0 +
STACK CFI INIT 6177c 4 .cfa: sp 0 +
STACK CFI INIT 61780 8 .cfa: sp 0 +
STACK CFI INIT 61788 4 .cfa: sp 0 +
STACK CFI INIT 617f8 4 .cfa: sp 0 +
STACK CFI INIT 61864 f0 .cfa: sp 0 +
STACK CFI 61868 .cfa: sp 80 +
STACK CFI 61878 .cfa: x29 48 + x19: .cfa -8 + ^ x20: .cfa -16 + ^ x21: .cfa -24 + ^ x22: .cfa -32 + ^ .ra: .cfa -40 + ^ x29: .cfa -48 + ^
STACK CFI 6193c .cfa: sp 80 +
STACK CFI 6194c .cfa: sp 0 +
STACK CFI 61950 .cfa: x29 48 +
STACK CFI INIT 61954 4c .cfa: sp 0 +
STACK CFI 61958 .cfa: sp 32 +
STACK CFI 61960 .cfa: x29 32 + x19: .cfa -16 + ^ .ra: .cfa -24 + ^ x29: .cfa -32 + ^
STACK CFI 61988 .cfa: sp 32 +
STACK CFI 61990 .cfa: sp 0 +
STACK CFI 61994 .cfa: sp 32 +
STACK CFI 6199c .cfa: sp 0 +
STACK CFI INIT 619a0 7c .cfa: sp 0 +
STACK CFI 619a4 .cfa: sp 48 +
STACK CFI 619b0 .cfa: x29 48 + x19: .cfa -8 + ^ x20: .cfa -16 + ^ x21: .cfa -32 + ^ .ra: .cfa -40 + ^ x29: .cfa -48 + ^
STACK CFI 619fc .cfa: sp 48 +
STACK CFI 61a08 .cfa: sp 0 +
STACK CFI 61a0c .cfa: sp 48 +
STACK CFI 61a18 .cfa: sp 0 +
STACK CFI INIT 659ac e0 .cfa: sp 0 +
STACK CFI 659b0 .cfa: sp 64 +
STACK CFI 659c0 .cfa: x29 64 + x19: .cfa -8 + ^ x20: .cfa -16 + ^ x21: .cfa -24 + ^ x22: .cfa -32 + ^ x23: .cfa -40 + ^ x24: .cfa -48 + ^ .ra: .cfa -56 + ^ x29: .cfa -64 + ^
STACK CFI 659c8 .cfa: sp 64 +
STACK CFI 659d8 .cfa: sp 0 +
STACK CFI 659dc .cfa: x29 64 +
STACK CFI 65a00 .cfa: sp 64 +
STACK CFI 65a10 .cfa: sp 0 +
STACK CFI 65a14 .cfa: x29 64 +
STACK CFI 65a78 .cfa: sp 64 +
STACK CFI 65a88 .cfa: sp 0 +
STACK CFI INIT 65a8c 14 .cfa: sp 0 +
STACK CFI 65a90 .cfa: sp 16 +
STACK CFI 65a94 .cfa: x29 16 + .ra: .cfa -8 + ^ x29: .cfa -16 + ^
STACK CFI INIT 65aa0 94 .cfa: sp 0 +
STACK CFI 65ab0 .cfa: sp 48 +
STACK CFI 65abc .cfa: x29 48 + x19: .cfa -8 + ^ x20: .cfa -16 + ^ x21: .cfa -24 + ^ x22: .cfa -32 + ^ .ra: .cfa -40 + ^ x29: .cfa -48 + ^
STACK CFI 65b24 .cfa: sp 48 +
STACK CFI 65b30 .cfa: sp 0 +
STACK CFI INIT 65ca0 8c .cfa: sp 0 +
STACK CFI 65ca4 .cfa: sp 48 +
STACK CFI 65cb0 .cfa: x29 48 + x19: .cfa -8 + ^ x20: .cfa -16 + ^ x21: .cfa -24 + ^ x22: .cfa -32 + ^ .ra: .cfa -40 + ^ x29: .cfa -48 + ^
STACK CFI 65cb8 .cfa: sp 48 +
STACK CFI 65cc4 .cfa: sp 0 +
STACK CFI 65cc8 .cfa: x29 48 +
STACK CFI 65d1c .cfa: sp 48 +
STACK CFI 65d28 .cfa: sp 0 +
STACK CFI INIT 65d2c 60 .cfa: sp 0 +
STACK CFI 65d3c .cfa: sp 32 +
STACK CFI 65d44 .cfa: x29 32 + x19: .cfa -8 + ^ x20: .cfa -16 + ^ .ra: .cfa -24 + ^ x29: .cfa -32 + ^
STACK CFI 65d80 .cfa: sp 32 +
STACK CFI 65d88 .cfa: sp 0 +
STACK CFI INIT 65d8c 1d0 .cfa: sp 0 +
STACK CFI 65d90 .cfa: sp 80 +
STACK CFI 65da4 .cfa: x29 80 + x19: .cfa -8 + ^ x20: .cfa -16 + ^ x21: .cfa -24 + ^ x22: .cfa -32 + ^ x23: .cfa -40 + ^ x24: .cfa -48 + ^ x25: .cfa -56 + ^ x26: .cfa -64 + ^ .ra: .cfa -72 + ^ x29: .cfa -80 + ^
STACK CFI 65f3c .cfa: sp 80 +
STACK CFI 65f50 .cfa: sp 0 +
STACK CFI 65f54 .cfa: x29 80 +
STACK CFI INIT 70f10 8c .cfa: sp 0 +
STACK CFI 70f14 .cfa: sp 48 +
STACK CFI 70f20 .cfa: x29 48 + x19: .cfa -8 + ^ x20: .cfa -16 + ^ x21: .cfa -24 + ^ x22: .cfa -32 + ^ .ra: .cfa -40 + ^ x29: .cfa -48 + ^
STACK CFI 70f28 .cfa: sp 48 +
STACK CFI 70f34 .cfa: sp 0 +
STACK CFI 70f38 .cfa: x29 48 +
STACK CFI 70f8c .cfa: sp 48 +
STACK CFI 70f98 .cfa: sp 0 +
STACK CFI INIT 70f9c 14 .cfa: sp 0 +
STACK CFI 70fa0 .cfa: sp 16 +
STACK CFI 70fa4 .cfa: x29 16 + .ra: .cfa -8 + ^ x29: .cfa -16 + ^
STACK CFI INIT 70fb0 60 .cfa: sp 0 +
STACK CFI 70fc0 .cfa: sp 32 +
STACK CFI 70fc8 .cfa: x29 32 + x19: .cfa -8 + ^ x20: .cfa -16 + ^ .ra: .cfa -24 + ^ x29: .cfa -32 + ^
STACK CFI 71004 .cfa: sp 32 +
STACK CFI 7100c .cfa: sp 0 +
STACK CFI INIT 71010 147c .cfa: sp 0 +
STACK CFI 71014 .cfa: sp 304 +
STACK CFI 71030 .cfa: x29 96 + x19: .cfa -8 + ^ x20: .cfa -16 + ^ x21: .cfa -24 + ^ x22: .cfa -32 + ^ x23: .cfa -40 + ^ x24: .cfa -48 + ^ x25: .cfa -56 + ^ x26: .cfa -64 + ^ x27: .cfa -72 + ^ x28: .cfa -80 + ^ .ra: .cfa -88 + ^ x29: .cfa -96 + ^
STACK CFI 71d98 .cfa: sp 304 +
STACK CFI 71db4 .cfa: sp 0 +
STACK CFI 71db8 .cfa: x29 96 +
STACK CFI 72468 .cfa: sp 304 +
STACK CFI 72484 .cfa: sp 0 +
STACK CFI 72488 .cfa: x29 96 +
STACK CFI INIT 7248c 57c .cfa: sp 0 +
STACK CFI 72490 .cfa: sp 96 +
STACK CFI 724a8 .cfa: x29 96 + x19: .cfa -8 + ^ x20: .cfa -16 + ^ x21: .cfa -24 + ^ x22: .cfa -32 + ^ x23: .cfa -40 + ^ x24: .cfa -48 + ^ x25: .cfa -56 + ^ x26: .cfa -64 + ^ x27: .cfa -72 + ^ x28: .cfa -80 + ^ .ra: .cfa -88 + ^ x29: .cfa -96 + ^
STACK CFI 729e8 .cfa: sp 96 +
STACK CFI 72a00 .cfa: sp 0 +
STACK CFI 72a04 .cfa: x29 96 +
STACK CFI INIT 72a08 230 .cfa: sp 0 +
STACK CFI 72a0c .cfa: sp 288 +
STACK CFI 72a18 .cfa: x29 32 + x28: .cfa -16 + ^ .ra: .cfa -24 + ^ x29: .cfa -32 + ^
STACK CFI 72c24 .cfa: sp 288 +
STACK CFI 72c30 .cfa: sp 0 +
STACK CFI 72c34 .cfa: x29 32 +
STACK CFI INIT 72c38 80 .cfa: sp 0 +
STACK CFI 72c3c .cfa: sp 32 +
STACK CFI 72c44 .cfa: x29 32 + x19: .cfa -16 + ^ .ra: .cfa -24 + ^ x29: .cfa -32 + ^
STACK CFI 72cac .cfa: sp 32 +
STACK CFI 72cb4 .cfa: sp 0 +
STACK CFI INIT 72cb8 88 .cfa: sp 0 +
STACK CFI 72cbc .cfa: sp 32 +
STACK CFI 72cc4 .cfa: x29 32 + x19: .cfa -16 + ^ .ra: .cfa -24 + ^ x29: .cfa -32 + ^
STACK CFI 72d34 .cfa: sp 32 +
STACK CFI 72d3c .cfa: sp 0 +
STACK CFI INIT 72d40 4 .cfa: sp 0 +
STACK CFI INIT 72d44 8 .cfa: sp 0 +
STACK CFI INIT 72d4c 7c .cfa: sp 0 +
STACK CFI 72d50 .cfa: sp 32 +
STACK CFI 72d58 .cfa: x29 32 + x19: .cfa -8 + ^ x20: .cfa -16 + ^ .ra: .cfa -24 + ^ x29: .cfa -32 + ^
STACK CFI 72dbc .cfa: sp 32 +
STACK CFI 72dc4 .cfa: sp 0 +
STACK CFI INIT 72dc8 28 .cfa: sp 0 +
STACK CFI 72dcc .cfa: sp 32 +
STACK CFI 72dd4 .cfa: x29 32 + x19: .cfa -16 + ^ .ra: .cfa -24 + ^ x29: .cfa -32 + ^
STACK CFI 72de4 .cfa: sp 32 +
STACK CFI 72dec .cfa: sp 0 +
STACK CFI INIT 72df0 4 .cfa: sp 0 +
STACK CFI INIT 72df4 8 .cfa: sp 0 +
STACK CFI INIT 72dfc 3c .cfa: sp 0 +
STACK CFI 72e00 .cfa: sp 32 +
STACK CFI 72e08 .cfa: x29 32 + x19: .cfa -16 + ^ .ra: .cfa -24 + ^ x29: .cfa -32 + ^
STACK CFI 72e28 .cfa: sp 32 +
STACK CFI 72e30 .cfa: sp 0 +
STACK CFI 72e34 .cfa: x29 32 +
STACK CFI INIT 72e38 2c .cfa: sp 0 +
STACK CFI 72e5c .cfa: sp 16 +
STACK CFI 72e60 .cfa: x29 16 + .ra: .cfa -8 + ^ x29: .cfa -16 + ^
STACK CFI INIT 72e64 4 .cfa: sp 0 +
STACK CFI INIT 72e68 14 .cfa: sp 0 +
STACK CFI INIT 72e7c 60 .cfa: sp 0 +
STACK CFI 72e80 .cfa: sp 32 +
STACK CFI 72e88 .cfa: x29 32 + x19: .cfa -8 + ^ x20: .cfa -16 + ^ .ra: .cfa -24 + ^ x29: .cfa -32 + ^
STACK CFI 72ea8 .cfa: sp 32 +
STACK CFI 72eb0 .cfa: sp 0 +
STACK CFI 72eb4 .cfa: x29 32 +
STACK CFI 72ed0 .cfa: sp 32 +
STACK CFI 72ed8 .cfa: sp 0 +
STACK CFI INIT 72edc 70 .cfa: sp 0 +
STACK CFI 72ee0 .cfa: sp 32 +
STACK CFI 72ee8 .cfa: x29 32 + x19: .cfa -8 + ^ x20: .cfa -16 + ^ .ra: .cfa -24 + ^ x29: .cfa -32 + ^
STACK CFI 72f10 .cfa: sp 32 +
STACK CFI 72f18 .cfa: sp 0 +
STACK CFI 72f1c .cfa: x29 32 +
STACK CFI 72f40 .cfa: sp 32 +
STACK CFI 72f48 .cfa: sp 0 +
STACK CFI INIT 72f4c 10 .cfa: sp 0 +
STACK CFI INIT 72f5c 30 .cfa: sp 0 +
STACK CFI 72f60 .cfa: sp 32 +
STACK CFI 72f68 .cfa: x29 32 + x19: .cfa -16 + ^ .ra: .cfa -24 + ^ x29: .cfa -32 + ^
STACK CFI 72f80 .cfa: sp 32 +
STACK CFI 72f88 .cfa: sp 0 +
STACK CFI INIT 72f8c 4 .cfa: sp 0 +
STACK CFI INIT 72f90 4 .cfa: sp 0 +
STACK CFI INIT 72f94 50 .cfa: sp 0 +
STACK CFI 72f98 .cfa: sp 32 +
STACK CFI 72fa0 .cfa: x29 32 + x19: .cfa -16 + ^ .ra: .cfa -24 + ^ x29: .cfa -32 + ^
STACK CFI 72fb8 .cfa: sp 32 +
STACK CFI 72fc0 .cfa: sp 0 +
STACK CFI 72fc4 .cfa: x29 32 +
STACK CFI 72fd8 .cfa: sp 32 +
STACK CFI 72fe0 .cfa: sp 0 +
STACK CFI INIT 72fe4 4 .cfa: sp 0 +
STACK CFI INIT 72fe8 4 .cfa: sp 0 +
STACK CFI INIT 72fec 38 .cfa: sp 0 +
STACK CFI 72ff0 .cfa: sp 32 +
STACK CFI 72ff8 .cfa: x29 32 + x19: .cfa -16 + ^ .ra: .cfa -24 + ^ x29: .cfa -32 + ^
STACK CFI 73018 .cfa: sp 32 +
STACK CFI 73020 .cfa: sp 0 +
STACK CFI INIT 73024 18 .cfa: sp 0 +
STACK CFI INIT 7303c 4 .cfa: sp 0 +
STACK CFI INIT 73040 4 .cfa: sp 0 +
STACK CFI INIT 73044 ec .cfa: sp 0 +
STACK CFI 73048 .cfa: sp 32 +
STACK CFI 73050 .cfa: x29 32 + x19: .cfa -8 + ^ x20: .cfa -16 + ^ .ra: .cfa -24 + ^ x29: .cfa -32 + ^
STACK CFI 730d0 .cfa: sp 32 +
STACK CFI 730d8 .cfa: sp 0 +
STACK CFI 730dc .cfa: x29 32 +
STACK CFI 73124 .cfa: sp 32 +
STACK CFI 7312c .cfa: sp 0 +
STACK CFI INIT 73130 1c .cfa: sp 0 +
STACK CFI INIT 7314c c .cfa: sp 0 +
STACK CFI INIT 73158 f8 .cfa: sp 0 +
STACK CFI 7315c .cfa: sp 64 +
STACK CFI 7316c .cfa: x29 64 + x19: .cfa -8 + ^ x20: .cfa -16 + ^ x21: .cfa -24 + ^ x22: .cfa -32 + ^ x23: .cfa -48 + ^ .ra: .cfa -56 + ^ x29: .cfa -64 + ^
STACK CFI 731c8 .cfa: sp 64 +
STACK CFI 731d8 .cfa: sp 0 +
STACK CFI 731dc .cfa: x29 64 +
STACK CFI 731f8 .cfa: sp 64 +
STACK CFI 73208 .cfa: sp 0 +
STACK CFI 7320c .cfa: x29 64 +
STACK CFI 7323c .cfa: sp 64 +
STACK CFI 7324c .cfa: sp 0 +
STACK CFI INIT 73250 4 .cfa: sp 0 +
STACK CFI INIT 733b8 9c .cfa: sp 0 +
STACK CFI 733bc .cfa: sp 32 +
STACK CFI 733c4 .cfa: x29 32 + x19: .cfa -8 + ^ x20: .cfa -16 + ^ .ra: .cfa -24 + ^ x29: .cfa -32 + ^
STACK CFI 73448 .cfa: sp 32 +
STACK CFI 73450 .cfa: sp 0 +
STACK CFI INIT 73454 a4 .cfa: sp 0 +
STACK CFI 73458 .cfa: sp 32 +
STACK CFI 73460 .cfa: x29 32 + x19: .cfa -8 + ^ x20: .cfa -16 + ^ .ra: .cfa -24 + ^ x29: .cfa -32 + ^
STACK CFI 734ec .cfa: sp 32 +
STACK CFI 734f4 .cfa: sp 0 +
STACK CFI INIT 734f8 310 .cfa: sp 0 +
STACK CFI 734fc .cfa: sp 128 +
STACK CFI 73514 .cfa: x29 64 + x19: .cfa -8 + ^ x20: .cfa -16 + ^ x21: .cfa -24 + ^ x22: .cfa -32 + ^ x23: .cfa -40 + ^ x24: .cfa -48 + ^ .ra: .cfa -56 + ^ x29: .cfa -64 + ^ v8: .cfa -72 + ^ v9: .cfa -80 + ^
STACK CFI 7374c .cfa: sp 128 +
STACK CFI 73764 .cfa: sp 0 +
STACK CFI 73768 .cfa: x29 64 +
STACK CFI INIT 73808 4 .cfa: sp 0 +
STACK CFI INIT 7380c 34 .cfa: sp 0 +
STACK CFI 73810 .cfa: sp 32 +
STACK CFI 73818 .cfa: x29 32 + x19: .cfa -16 + ^ .ra: .cfa -24 + ^ x29: .cfa -32 + ^
STACK CFI 73834 .cfa: sp 32 +
STACK CFI 7383c .cfa: sp 0 +
STACK CFI INIT 73840 14 .cfa: sp 0 +
STACK CFI INIT 73854 4 .cfa: sp 0 +
STACK CFI INIT 73858 4 .cfa: sp 0 +
STACK CFI INIT 7385c 18 .cfa: sp 0 +
STACK CFI INIT 73874 1c .cfa: sp 0 +
STACK CFI INIT 73890 c .cfa: sp 0 +
STACK CFI INIT 7389c 4 .cfa: sp 0 +
STACK CFI INIT 738a0 38 .cfa: sp 0 +
STACK CFI 738a4 .cfa: sp 32 +
STACK CFI 738ac .cfa: x29 32 + x19: .cfa -16 + ^ .ra: .cfa -24 + ^ x29: .cfa -32 + ^
STACK CFI 738cc .cfa: sp 32 +
STACK CFI 738d4 .cfa: sp 0 +
STACK CFI INIT 738d8 18 .cfa: sp 0 +
STACK CFI INIT 738f0 4 .cfa: sp 0 +
STACK CFI INIT 738f4 4 .cfa: sp 0 +
STACK CFI INIT 738f8 c .cfa: sp 0 +
STACK CFI INIT 73904 1c .cfa: sp 0 +
STACK CFI INIT 73920 c .cfa: sp 0 +
STACK CFI INIT 740d8 50 .cfa: sp 0 +
STACK CFI 740fc .cfa: sp 32 +
STACK CFI 74104 .cfa: x29 32 + x19: .cfa -16 + ^ .ra: .cfa -24 + ^ x29: .cfa -32 + ^
STACK CFI 74118 .cfa: sp 32 +
STACK CFI 74120 .cfa: sp 0 +
STACK CFI INIT 74128 4 .cfa: sp 0 +
STACK CFI INIT 7412c 14 .cfa: sp 0 +
STACK CFI INIT 74140 4 .cfa: sp 0 +
STACK CFI INIT 74144 14 .cfa: sp 0 +
STACK CFI INIT 745b4 48 .cfa: sp 0 +
STACK CFI 745bc .cfa: sp 32 +
STACK CFI 745c4 .cfa: x29 32 + x19: .cfa -16 + ^ .ra: .cfa -24 + ^ x29: .cfa -32 + ^
STACK CFI 745ec .cfa: sp 32 +
STACK CFI 745f4 .cfa: sp 0 +
STACK CFI INIT 745fc 8 .cfa: sp 0 +
STACK CFI INIT 74604 14 .cfa: sp 0 +
STACK CFI INIT 74d04 14 .cfa: sp 0 +
STACK CFI INIT 74d18 14 .cfa: sp 0 +
STACK CFI INIT 74d2c 7c .cfa: sp 0 +
STACK CFI 74d30 .cfa: sp 48 +
STACK CFI 74d3c .cfa: x29 48 + x19: .cfa -8 + ^ x20: .cfa -16 + ^ x21: .cfa -32 + ^ .ra: .cfa -40 + ^ x29: .cfa -48 + ^
STACK CFI 74d88 .cfa: sp 48 +
STACK CFI 74d94 .cfa: sp 0 +
STACK CFI 74d98 .cfa: sp 48 +
STACK CFI 74da4 .cfa: sp 0 +
STACK CFI INIT 74da8 14 .cfa: sp 0 +
STACK CFI INIT 7511c 68 .cfa: sp 0 +
STACK CFI 75120 .cfa: sp 48 +
STACK CFI 7512c .cfa: x29 48 + x19: .cfa -8 + ^ x20: .cfa -16 + ^ x21: .cfa -32 + ^ .ra: .cfa -40 + ^ x29: .cfa -48 + ^
STACK CFI 75164 .cfa: sp 48 +
STACK CFI 75170 .cfa: sp 0 +
STACK CFI 75174 .cfa: sp 48 +
STACK CFI 75180 .cfa: sp 0 +
STACK CFI INIT 75184 14 .cfa: sp 0 +
STACK CFI 75188 .cfa: sp 16 +
STACK CFI 7518c .cfa: x29 16 + .ra: .cfa -8 + ^ x29: .cfa -16 + ^
STACK CFI INIT 75198 20 .cfa: sp 0 +
STACK CFI INIT 751b8 40 .cfa: sp 0 +
STACK CFI 751d0 .cfa: sp 32 +
STACK CFI 751d8 .cfa: x29 32 + x19: .cfa -16 + ^ .ra: .cfa -24 + ^ x29: .cfa -32 + ^
STACK CFI 751ec .cfa: sp 32 +
STACK CFI 751f4 .cfa: sp 0 +
STACK CFI INIT 75280 40 .cfa: sp 0 +
STACK CFI INIT 752c0 14 .cfa: sp 0 +
STACK CFI INIT 752d4 34 .cfa: sp 0 +
STACK CFI 752e0 .cfa: sp 32 +
STACK CFI 752e8 .cfa: x29 32 + x19: .cfa -16 + ^ .ra: .cfa -24 + ^ x29: .cfa -32 + ^
STACK CFI 752fc .cfa: sp 32 +
STACK CFI 75304 .cfa: sp 0 +
STACK CFI INIT 75b18 1c .cfa: sp 0 +
STACK CFI INIT 75b34 c .cfa: sp 0 +
STACK CFI INIT 75b40 20 .cfa: sp 0 +
STACK CFI INIT 75b60 40 .cfa: sp 0 +
STACK CFI 75b78 .cfa: sp 32 +
STACK CFI 75b80 .cfa: x29 32 + x19: .cfa -16 + ^ .ra: .cfa -24 + ^ x29: .cfa -32 + ^
STACK CFI 75b94 .cfa: sp 32 +
STACK CFI 75b9c .cfa: sp 0 +
STACK CFI INIT 75c28 40 .cfa: sp 0 +
STACK CFI INIT 75c68 14 .cfa: sp 0 +
STACK CFI INIT 75c7c 34 .cfa: sp 0 +
STACK CFI 75c88 .cfa: sp 32 +
STACK CFI 75c90 .cfa: x29 32 + x19: .cfa -16 + ^ .ra: .cfa -24 + ^ x29: .cfa -32 + ^
STACK CFI 75ca4 .cfa: sp 32 +
STACK CFI 75cac .cfa: sp 0 +
STACK CFI INIT 7622c 1c .cfa: sp 0 +
STACK CFI INIT 76248 c .cfa: sp 0 +
STACK CFI INIT 76254 4 .cfa: sp 0 +
STACK CFI INIT 76258 50 .cfa: sp 0 +
STACK CFI 7625c .cfa: sp 32 +
STACK CFI 76264 .cfa: x29 32 + x19: .cfa -16 + ^ .ra: .cfa -24 + ^ x29: .cfa -32 + ^
STACK CFI 7629c .cfa: sp 32 +
STACK CFI 762a4 .cfa: sp 0 +
STACK CFI INIT 762a8 30 .cfa: sp 0 +
STACK CFI INIT 762d8 4 .cfa: sp 0 +
STACK CFI INIT 762dc 4 .cfa: sp 0 +
STACK CFI INIT 76444 1c .cfa: sp 0 +
STACK CFI INIT 76460 c .cfa: sp 0 +
STACK CFI INIT 766e0 10 .cfa: sp 0 +
STACK CFI INIT 766f0 14 .cfa: sp 0 +
STACK CFI INIT 76704 cc .cfa: sp 0 +
STACK CFI 76708 .cfa: sp 80 +
STACK CFI 76718 .cfa: x29 48 + x19: .cfa -8 + ^ x20: .cfa -16 + ^ x21: .cfa -24 + ^ x22: .cfa -32 + ^ .ra: .cfa -40 + ^ x29: .cfa -48 + ^
STACK CFI 767bc .cfa: sp 80 +
STACK CFI 767cc .cfa: sp 0 +
STACK CFI INIT 767d0 dc .cfa: sp 0 +
STACK CFI 767d4 .cfa: sp 96 +
STACK CFI 767e8 .cfa: x29 64 + x19: .cfa -8 + ^ x20: .cfa -16 + ^ x21: .cfa -24 + ^ x22: .cfa -32 + ^ x23: .cfa -48 + ^ .ra: .cfa -56 + ^ x29: .cfa -64 + ^
STACK CFI 76894 .cfa: sp 96 +
STACK CFI 768a8 .cfa: sp 0 +
STACK CFI INIT 768ac 3c .cfa: sp 0 +
STACK CFI 768c0 .cfa: sp 32 +
STACK CFI 768c8 .cfa: x29 32 + x19: .cfa -16 + ^ .ra: .cfa -24 + ^ x29: .cfa -32 + ^
STACK CFI 768dc .cfa: sp 32 +
STACK CFI 768e4 .cfa: sp 0 +
STACK CFI INIT 768e8 44 .cfa: sp 0 +
STACK CFI 768fc .cfa: sp 32 +
STACK CFI 76904 .cfa: x29 32 + x19: .cfa -16 + ^ .ra: .cfa -24 + ^ x29: .cfa -32 + ^
STACK CFI 76920 .cfa: sp 32 +
STACK CFI 76928 .cfa: sp 0 +
STACK CFI INIT 7692c 30 .cfa: sp 0 +
STACK CFI 76930 .cfa: sp 32 +
STACK CFI 76938 .cfa: x29 32 + x19: .cfa -16 + ^ .ra: .cfa -24 + ^ x29: .cfa -32 + ^
STACK CFI 76950 .cfa: sp 32 +
STACK CFI 76958 .cfa: sp 0 +
STACK CFI INIT 7695c 34 .cfa: sp 0 +
STACK CFI 76960 .cfa: sp 32 +
STACK CFI 76968 .cfa: x29 32 + x19: .cfa -16 + ^ .ra: .cfa -24 + ^ x29: .cfa -32 + ^
STACK CFI 76984 .cfa: sp 32 +
STACK CFI 7698c .cfa: sp 0 +
STACK CFI INIT 76b14 8 .cfa: sp 0 +
STACK CFI INIT 76ed4 17c .cfa: sp 0 +
STACK CFI 76ed8 .cfa: sp 112 +
STACK CFI 76eec .cfa: x29 48 + x19: .cfa -8 + ^ x20: .cfa -16 + ^ x21: .cfa -32 + ^ .ra: .cfa -40 + ^ x29: .cfa -48 + ^ v8: .cfa -56 + ^ v9: .cfa -64 + ^
STACK CFI 76ffc .cfa: sp 112 +
STACK CFI 77010 .cfa: sp 0 +
STACK CFI 77014 .cfa: x29 48 +
STACK CFI INIT 77050 48 .cfa: sp 0 +
STACK CFI 77054 .cfa: sp 32 +
STACK CFI 77060 .cfa: x29 24 + x19: .cfa -8 + ^ .ra: .cfa -16 + ^ x29: .cfa -24 + ^ v8: .cfa -32 + ^
STACK CFI 77088 .cfa: sp 32 +
STACK CFI 77094 .cfa: sp 0 +
STACK CFI INIT 77098 c4 .cfa: sp 0 +
STACK CFI 7709c .cfa: sp 48 +
STACK CFI 770a8 .cfa: x29 32 + x19: .cfa -8 + ^ x20: .cfa -16 + ^ .ra: .cfa -24 + ^ x29: .cfa -32 + ^ v8: .cfa -40 + ^ v9: .cfa -48 + ^
STACK CFI 770cc .cfa: sp 48 +
STACK CFI 770d8 .cfa: sp 0 +
STACK CFI 770dc .cfa: x29 32 +
STACK CFI 7714c .cfa: sp 48 +
STACK CFI 77158 .cfa: sp 0 +
STACK CFI INIT 77204 2c .cfa: sp 0 +
STACK CFI 77208 .cfa: sp 32 +
STACK CFI 77210 .cfa: x29 32 + x19: .cfa -16 + ^ .ra: .cfa -24 + ^ x29: .cfa -32 + ^
STACK CFI 77224 .cfa: sp 32 +
STACK CFI 7722c .cfa: sp 0 +
STACK CFI INIT 77230 3c .cfa: sp 0 +
STACK CFI 77234 .cfa: sp 32 +
STACK CFI 7723c .cfa: x29 32 + x19: .cfa -16 + ^ .ra: .cfa -24 + ^ x29: .cfa -32 + ^
STACK CFI 77248 .cfa: sp 32 +
STACK CFI 77250 .cfa: sp 0 +
STACK CFI 77254 .cfa: x29 32 +
STACK CFI 77260 .cfa: sp 32 +
STACK CFI 77268 .cfa: sp 0 +
STACK CFI INIT 7726c 3c .cfa: sp 0 +
STACK CFI 77270 .cfa: sp 32 +
STACK CFI 77278 .cfa: x29 32 + x19: .cfa -16 + ^ .ra: .cfa -24 + ^ x29: .cfa -32 + ^
STACK CFI 77284 .cfa: sp 32 +
STACK CFI 7728c .cfa: sp 0 +
STACK CFI 77290 .cfa: x29 32 +
STACK CFI 7729c .cfa: sp 32 +
STACK CFI 772a4 .cfa: sp 0 +
STACK CFI INIT 772a8 190 .cfa: sp 0 +
STACK CFI 772ac .cfa: sp 48 +
STACK CFI 772b8 .cfa: x29 48 + x19: .cfa -8 + ^ x20: .cfa -16 + ^ x21: .cfa -32 + ^ .ra: .cfa -40 + ^ x29: .cfa -48 + ^
STACK CFI 7734c .cfa: sp 48 +
STACK CFI 77358 .cfa: sp 0 +
STACK CFI 7735c .cfa: x29 48 +
STACK CFI 77360 .cfa: sp 48 +
STACK CFI 7736c .cfa: sp 0 +
STACK CFI 77370 .cfa: x29 48 +
STACK CFI 773a8 .cfa: sp 48 +
STACK CFI 773b4 .cfa: sp 0 +
STACK CFI 773b8 .cfa: x29 48 +
STACK CFI 773dc .cfa: sp 48 +
STACK CFI 773e8 .cfa: sp 0 +
STACK CFI 773ec .cfa: x29 48 +
STACK CFI 77414 .cfa: sp 48 +
STACK CFI 77420 .cfa: sp 0 +
STACK CFI 77424 .cfa: x29 48 +
STACK CFI 77428 .cfa: sp 48 +
STACK CFI 77434 .cfa: sp 0 +
STACK CFI INIT 77438 c8 .cfa: sp 0 +
STACK CFI 7743c .cfa: sp 48 +
STACK CFI 77444 .cfa: x29 16 + .ra: .cfa -8 + ^ x29: .cfa -16 + ^
STACK CFI 77470 .cfa: sp 48 +
STACK CFI 77478 .cfa: sp 0 +
STACK CFI 7747c .cfa: x29 16 +
STACK CFI 774f4 .cfa: sp 48 +
STACK CFI 774fc .cfa: sp 0 +
STACK CFI INIT 77500 b8 .cfa: sp 0 +
STACK CFI 77504 .cfa: sp 32 +
STACK CFI 7750c .cfa: x29 16 + .ra: .cfa -8 + ^ x29: .cfa -16 + ^
STACK CFI 77534 .cfa: sp 32 +
STACK CFI 7753c .cfa: sp 0 +
STACK CFI 77540 .cfa: x29 16 +
STACK CFI 775ac .cfa: sp 32 +
STACK CFI 775b4 .cfa: sp 0 +
STACK CFI INIT 775b8 374 .cfa: sp 0 +
STACK CFI 775bc .cfa: sp 32 +
STACK CFI 775c4 .cfa: x29 32 + x19: .cfa -8 + ^ x20: .cfa -16 + ^ .ra: .cfa -24 + ^ x29: .cfa -32 + ^
STACK CFI 77610 .cfa: sp 32 +
STACK CFI 77618 .cfa: sp 0 +
STACK CFI 7761c .cfa: x29 32 +
STACK CFI 77660 .cfa: sp 32 +
STACK CFI 77668 .cfa: sp 0 +
STACK CFI 7766c .cfa: x29 32 +
STACK CFI 77670 .cfa: sp 32 +
STACK CFI 77678 .cfa: sp 0 +
STACK CFI 7767c .cfa: x29 32 +
STACK CFI 77698 .cfa: sp 32 +
STACK CFI 776a0 .cfa: sp 0 +
STACK CFI 776a4 .cfa: x29 32 +
STACK CFI 77798 .cfa: sp 32 +
STACK CFI 777a0 .cfa: sp 0 +
STACK CFI 777a4 .cfa: x29 32 +
STACK CFI 77834 .cfa: sp 32 +
STACK CFI 7783c .cfa: sp 0 +
STACK CFI 77840 .cfa: x29 32 +
STACK CFI 77910 .cfa: sp 32 +
STACK CFI 77918 .cfa: sp 0 +
STACK CFI 7791c .cfa: x29 32 +
STACK CFI 77920 .cfa: sp 32 +
STACK CFI 77928 .cfa: sp 0 +
STACK CFI INIT 7792c 3e8 .cfa: sp 0 +
STACK CFI 77930 .cfa: sp 208 +
STACK CFI 77948 .cfa: x29 32 + x19: .cfa -16 + ^ .ra: .cfa -24 + ^ x29: .cfa -32 + ^ v8: .cfa -40 + ^ v9: .cfa -48 + ^ v10: .cfa -56 + ^ v11: .cfa -64 + ^ v12: .cfa -72 + ^ v13: .cfa -80 + ^
STACK CFI 77a04 .cfa: sp 208 +
STACK CFI 77a1c .cfa: sp 0 +
STACK CFI 77a20 .cfa: x29 32 +
STACK CFI INIT 77d14 13c .cfa: sp 0 +
STACK CFI INIT 77e50 104 .cfa: sp 0 +
STACK CFI INIT 77f54 470 .cfa: sp 0 +
STACK CFI 77f58 .cfa: sp 224 +
STACK CFI 77f74 .cfa: x29 48 + x19: .cfa -8 + ^ x20: .cfa -16 + ^ x21: .cfa -24 + ^ x22: .cfa -32 + ^ .ra: .cfa -40 + ^ x29: .cfa -48 + ^ v8: .cfa -56 + ^ v9: .cfa -64 + ^ v10: .cfa -72 + ^ v11: .cfa -80 + ^ v12: .cfa -88 + ^ v13: .cfa -96 + ^
STACK CFI 78234 .cfa: sp 224 +
STACK CFI 78250 .cfa: sp 0 +
STACK CFI 78254 .cfa: x29 48 +
STACK CFI INIT 783c4 108 .cfa: sp 0 +
STACK CFI 783c8 .cfa: sp 176 +
STACK CFI 783d4 .cfa: x29 32 + x19: .cfa -16 + ^ .ra: .cfa -24 + ^ x29: .cfa -32 + ^
STACK CFI 784b8 .cfa: sp 176 +
STACK CFI 784c4 .cfa: sp 0 +
STACK CFI 784c8 .cfa: x29 32 +
STACK CFI INIT 784cc 27c .cfa: sp 0 +
STACK CFI 784d0 .cfa: sp 128 +
STACK CFI 784e0 .cfa: x29 48 + x19: .cfa -8 + ^ x20: .cfa -16 + ^ x21: .cfa -24 + ^ x22: .cfa -32 + ^ .ra: .cfa -40 + ^ x29: .cfa -48 + ^
STACK CFI 78730 .cfa: sp 128 +
STACK CFI 78740 .cfa: sp 0 +
STACK CFI 78744 .cfa: x29 48 +
STACK CFI INIT 78748 14c .cfa: sp 0 +
STACK CFI INIT 78894 16c .cfa: sp 0 +
STACK CFI INIT 78a00 17c .cfa: sp 0 +
STACK CFI INIT 78b7c 164 .cfa: sp 0 +
STACK CFI INIT 78ce0 2c8 .cfa: sp 0 +
STACK CFI 78ce4 .cfa: sp 176 +
STACK CFI 78cfc x19: .cfa -8 + ^ x20: .cfa -16 + ^ x21: .cfa -24 + ^ x22: .cfa -32 + ^ x23: .cfa -40 + ^ x24: .cfa -48 + ^ x25: .cfa -56 + ^ x26: .cfa -64 + ^ x27: .cfa -72 + ^ x28: .cfa -80 + ^ .ra: .cfa -88 + ^ x29: .cfa -96 + ^
STACK CFI 78fa4 .cfa: sp 0 +
STACK CFI INIT 78fa8 104 .cfa: sp 0 +
STACK CFI INIT 790ac 110 .cfa: sp 0 +
STACK CFI INIT 791bc 154 .cfa: sp 0 +
STACK CFI INIT 79310 444 .cfa: sp 0 +
STACK CFI 79348 .cfa: sp 64 +
STACK CFI 79354 x19: .cfa -8 + ^ x20: .cfa -16 + ^ x21: .cfa -24 + ^ x22: .cfa -32 + ^ x23: .cfa -40 + ^ x24: .cfa -48 + ^ x25: .cfa -64 + ^
STACK CFI 795a0 .cfa: sp 0 +
STACK CFI 795a4 .cfa: sp 64 +
STACK CFI 79738 .cfa: sp 0 +
STACK CFI 7973c .cfa: sp 64 +
STACK CFI 79750 .cfa: sp 0 +
STACK CFI INIT 79754 340 .cfa: sp 0 +
STACK CFI 79758 .cfa: sp 64 +
STACK CFI 79768 .cfa: x29 48 + x19: .cfa -8 + ^ x20: .cfa -16 + ^ x21: .cfa -32 + ^ .ra: .cfa -40 + ^ x29: .cfa -48 + ^ v8: .cfa -56 + ^ v9: .cfa -64 + ^
STACK CFI 79a00 .cfa: sp 64 +
STACK CFI 79a10 .cfa: sp 0 +
STACK CFI 79a14 .cfa: x29 48 +
STACK CFI 79a38 .cfa: sp 64 +
STACK CFI 79a48 .cfa: sp 0 +
STACK CFI 79a4c .cfa: x29 48 +
STACK CFI 79a54 .cfa: sp 64 +
STACK CFI 79a64 .cfa: sp 0 +
STACK CFI 79a68 .cfa: x29 48 +
STACK CFI 79a70 .cfa: sp 64 +
STACK CFI 79a80 .cfa: sp 0 +
STACK CFI 79a84 .cfa: x29 48 +
STACK CFI INIT 79a94 310 .cfa: sp 0 +
STACK CFI 79acc .cfa: sp 48 +
STACK CFI 79ad4 x19: .cfa -8 + ^ x20: .cfa -16 + ^ x21: .cfa -24 + ^ x22: .cfa -32 + ^ x23: .cfa -40 + ^ x24: .cfa -48 + ^
STACK CFI 79da0 .cfa: sp 0 +
STACK CFI INIT 79da4 860 .cfa: sp 0 +
STACK CFI 79da8 .cfa: sp 160 +
STACK CFI 79dcc x19: .cfa -8 + ^ x20: .cfa -16 + ^ x21: .cfa -24 + ^ x22: .cfa -32 + ^ x23: .cfa -40 + ^ x24: .cfa -48 + ^ x25: .cfa -56 + ^ x26: .cfa -64 + ^ x27: .cfa -72 + ^ x28: .cfa -80 + ^ .ra: .cfa -88 + ^ x29: .cfa -96 + ^ v8: .cfa -104 + ^ v9: .cfa -112 + ^ v10: .cfa -120 + ^ v11: .cfa -128 + ^ v12: .cfa -136 + ^ v13: .cfa -144 + ^ v14: .cfa -152 + ^ v15: .cfa -160 + ^
STACK CFI 7a600 .cfa: sp 0 +
STACK CFI INIT 7a604 8c8 .cfa: sp 0 +
STACK CFI 7a608 .cfa: sp 160 +
STACK CFI 7a62c x19: .cfa -8 + ^ x20: .cfa -16 + ^ x21: .cfa -24 + ^ x22: .cfa -32 + ^ x23: .cfa -40 + ^ x24: .cfa -48 + ^ x25: .cfa -56 + ^ x26: .cfa -64 + ^ x27: .cfa -72 + ^ x28: .cfa -80 + ^ .ra: .cfa -88 + ^ x29: .cfa -96 + ^ v8: .cfa -104 + ^ v9: .cfa -112 + ^ v10: .cfa -120 + ^ v11: .cfa -128 + ^ v12: .cfa -136 + ^ v13: .cfa -144 + ^ v14: .cfa -152 + ^ v15: .cfa -160 + ^
STACK CFI 7aec8 .cfa: sp 0 +
STACK CFI INIT 7aecc 644 .cfa: sp 0 +
STACK CFI 7aed0 .cfa: sp 160 +
STACK CFI 7aef0 .cfa: x29 48 + x19: .cfa -8 + ^ x20: .cfa -16 + ^ x21: .cfa -32 + ^ .ra: .cfa -40 + ^ x29: .cfa -48 + ^ v8: .cfa -56 + ^ v9: .cfa -64 + ^ v10: .cfa -72 + ^ v11: .cfa -80 + ^ v12: .cfa -88 + ^ v13: .cfa -96 + ^ v14: .cfa -104 + ^ v15: .cfa -112 + ^
STACK CFI 7b4ec .cfa: sp 160 +
STACK CFI 7b50c .cfa: sp 0 +
STACK CFI INIT 7b510 65c .cfa: sp 0 +
STACK CFI 7b514 .cfa: sp 160 +
STACK CFI 7b534 .cfa: x29 48 + x19: .cfa -8 + ^ x20: .cfa -16 + ^ x21: .cfa -32 + ^ .ra: .cfa -40 + ^ x29: .cfa -48 + ^ v8: .cfa -56 + ^ v9: .cfa -64 + ^ v10: .cfa -72 + ^ v11: .cfa -80 + ^ v12: .cfa -88 + ^ v13: .cfa -96 + ^ v14: .cfa -104 + ^ v15: .cfa -112 + ^
STACK CFI 7bb48 .cfa: sp 160 +
STACK CFI 7bb68 .cfa: sp 0 +
STACK CFI INIT 7bb6c 5a4 .cfa: sp 0 +
STACK CFI 7bb70 .cfa: sp 80 +
STACK CFI 7bb80 x19: .cfa -8 + ^ x20: .cfa -16 + ^ v8: .cfa -24 + ^ v9: .cfa -32 + ^ v10: .cfa -40 + ^ v11: .cfa -48 + ^ v12: .cfa -56 + ^ v13: .cfa -64 + ^ v14: .cfa -80 + ^
STACK CFI 7bbc4 .cfa: sp 0 +
STACK CFI 7bbc8 .cfa: sp 80 +
STACK CFI INIT 7c110 5f0 .cfa: sp 0 +
STACK CFI 7c114 .cfa: sp 80 +
STACK CFI 7c124 x19: .cfa -8 + ^ x20: .cfa -16 + ^ v8: .cfa -24 + ^ v9: .cfa -32 + ^ v10: .cfa -40 + ^ v11: .cfa -48 + ^ v12: .cfa -56 + ^ v13: .cfa -64 + ^ v14: .cfa -80 + ^
STACK CFI 7c168 .cfa: sp 0 +
STACK CFI 7c16c .cfa: sp 80 +
STACK CFI INIT 7c700 790 .cfa: sp 0 +
STACK CFI 7c704 .cfa: sp 144 +
STACK CFI 7c724 x19: .cfa -8 + ^ x20: .cfa -16 + ^ x21: .cfa -24 + ^ x22: .cfa -32 + ^ x23: .cfa -40 + ^ x24: .cfa -48 + ^ x25: .cfa -56 + ^ x26: .cfa -64 + ^ x27: .cfa -80 + ^ v8: .cfa -88 + ^ v9: .cfa -96 + ^ v10: .cfa -104 + ^ v11: .cfa -112 + ^ v12: .cfa -120 + ^ v13: .cfa -128 + ^ v14: .cfa -136 + ^ v15: .cfa -144 + ^
STACK CFI 7ce8c .cfa: sp 0 +
STACK CFI INIT 7ce90 5a4 .cfa: sp 0 +
STACK CFI 7ce94 .cfa: sp 160 +
STACK CFI 7ceb4 .cfa: x29 48 + x19: .cfa -8 + ^ x20: .cfa -16 + ^ x21: .cfa -32 + ^ .ra: .cfa -40 + ^ x29: .cfa -48 + ^ v8: .cfa -56 + ^ v9: .cfa -64 + ^ v10: .cfa -72 + ^ v11: .cfa -80 + ^ v12: .cfa -88 + ^ v13: .cfa -96 + ^ v14: .cfa -104 + ^ v15: .cfa -112 + ^
STACK CFI 7d410 .cfa: sp 160 +
STACK CFI 7d430 .cfa: sp 0 +
STACK CFI INIT 7d434 4c0 .cfa: sp 0 +
STACK CFI 7d438 .cfa: sp 32 +
STACK CFI 7d43c v8: .cfa -8 + ^ v9: .cfa -16 + ^ v10: .cfa -24 + ^ v11: .cfa -32 + ^
STACK CFI 7d474 .cfa: sp 0 +
STACK CFI 7d478 .cfa: sp 32 +
STACK CFI 7d8f0 .cfa: sp 0 +
STACK CFI INIT 7d8f4 164 .cfa: sp 0 +
STACK CFI INIT 7da58 180 .cfa: sp 0 +
STACK CFI INIT 7dbd8 2c4 .cfa: sp 0 +
STACK CFI 7dbdc .cfa: sp 48 +
STACK CFI 7dbe4 x19: .cfa -8 + ^ x20: .cfa -16 + ^ x21: .cfa -24 + ^ x22: .cfa -32 + ^ x23: .cfa -48 + ^
STACK CFI 7dcec .cfa: sp 0 +
STACK CFI 7dcf0 .cfa: sp 48 +
STACK CFI 7de48 .cfa: sp 0 +
STACK CFI 7de4c .cfa: sp 48 +
STACK CFI 7de98 .cfa: sp 0 +
STACK CFI INIT 7de9c 354 .cfa: sp 0 +
STACK CFI 7dea0 .cfa: sp 48 +
STACK CFI 7dea8 x19: .cfa -8 + ^ x20: .cfa -16 + ^ x21: .cfa -24 + ^ x22: .cfa -32 + ^ x23: .cfa -48 + ^
STACK CFI 7dff0 .cfa: sp 0 +
STACK CFI 7dff4 .cfa: sp 48 +
STACK CFI 7e19c .cfa: sp 0 +
STACK CFI 7e1a0 .cfa: sp 48 +
STACK CFI 7e1ec .cfa: sp 0 +
STACK CFI INIT 7e1f0 180 .cfa: sp 0 +
STACK CFI INIT 7e370 164 .cfa: sp 0 +
STACK CFI INIT 7e4d4 4b0 .cfa: sp 0 +
STACK CFI 7e4d8 .cfa: sp 16 + x19: .cfa -8 + ^ x20: .cfa -16 + ^
STACK CFI 7e960 .cfa: sp 0 +
STACK CFI 7e964 .cfa: sp 16 +
STACK CFI 7e974 .cfa: sp 0 +
STACK CFI 7e978 .cfa: sp 16 +
STACK CFI 7e980 .cfa: sp 0 +
STACK CFI INIT 7e984 4ec .cfa: sp 0 +
STACK CFI 7e988 .cfa: sp 16 + x19: .cfa -8 + ^ x20: .cfa -16 + ^
STACK CFI 7ee4c .cfa: sp 0 +
STACK CFI 7ee50 .cfa: sp 16 +
STACK CFI 7ee60 .cfa: sp 0 +
STACK CFI 7ee64 .cfa: sp 16 +
STACK CFI 7ee6c .cfa: sp 0 +
STACK CFI INIT 7ee70 4d8 .cfa: sp 0 +
STACK CFI 7ee74 .cfa: sp 16 + x19: .cfa -16 + ^
STACK CFI 7f1b4 .cfa: sp 0 +
STACK CFI 7f1b8 .cfa: sp 16 +
STACK CFI 7f334 .cfa: sp 0 +
STACK CFI 7f338 .cfa: sp 16 +
STACK CFI 7f344 .cfa: sp 0 +
STACK CFI INIT 7f348 514 .cfa: sp 0 +
STACK CFI 7f34c .cfa: sp 16 + x19: .cfa -16 + ^
STACK CFI 7f6a4 .cfa: sp 0 +
STACK CFI 7f6a8 .cfa: sp 16 +
STACK CFI 7f848 .cfa: sp 0 +
STACK CFI 7f84c .cfa: sp 16 +
STACK CFI 7f858 .cfa: sp 0 +
STACK CFI INIT 7f85c 4 .cfa: sp 0 +
STACK CFI INIT 7f860 4 .cfa: sp 0 +
STACK CFI INIT 7f864 488 .cfa: sp 0 +
STACK CFI 7f86c .cfa: sp 16 + x19: .cfa -16 + ^
STACK CFI 7fcc8 .cfa: sp 0 +
STACK CFI 7fccc .cfa: sp 16 +
STACK CFI 7fcd4 .cfa: sp 0 +
STACK CFI 7fcd8 .cfa: sp 16 +
STACK CFI 7fce0 .cfa: sp 0 +
STACK CFI INIT 7fcec 4c0 .cfa: sp 0 +
STACK CFI INIT 801ac 1b4 .cfa: sp 0 +
STACK CFI INIT 80360 1d0 .cfa: sp 0 +
STACK CFI INIT 80530 1c8 .cfa: sp 0 +
STACK CFI INIT 806f8 1e0 .cfa: sp 0 +
STACK CFI INIT 808d8 1ac .cfa: sp 0 +
STACK CFI INIT 80a84 204 .cfa: sp 0 +
STACK CFI INIT 80c88 fc .cfa: sp 0 +
STACK CFI INIT 80d84 4 .cfa: sp 0 +
STACK CFI INIT 80d88 1b8 .cfa: sp 0 +
STACK CFI INIT 80f40 1e4 .cfa: sp 0 +
STACK CFI INIT 81124 264 .cfa: sp 0 +
STACK CFI INIT 81388 2b8 .cfa: sp 0 +
STACK CFI INIT 81640 4 .cfa: sp 0 +
STACK CFI INIT 81644 4 .cfa: sp 0 +
STACK CFI INIT 81648 4 .cfa: sp 0 +
STACK CFI INIT 8164c 4 .cfa: sp 0 +
STACK CFI INIT 81650 e0 .cfa: sp 0 +
STACK CFI INIT 81730 200 .cfa: sp 0 +
STACK CFI INIT 81930 20c .cfa: sp 0 +
STACK CFI INIT 81b3c 35c .cfa: sp 0 +
STACK CFI 81bc8 .cfa: sp 32 +
STACK CFI 81bcc v8: .cfa -8 + ^ v9: .cfa -16 + ^ v10: .cfa -32 + ^
STACK CFI 81be0 .cfa: sp 0 +
STACK CFI 81be4 .cfa: sp 32 +
STACK CFI 81e94 .cfa: sp 0 +
STACK CFI INIT 81e98 368 .cfa: sp 0 +
STACK CFI 81eac .cfa: sp 32 +
STACK CFI 81eb0 v8: .cfa -8 + ^ v9: .cfa -16 + ^ v10: .cfa -32 + ^
STACK CFI 81f50 .cfa: sp 0 + v8: v8 v9: v9 v10: v10
STACK CFI INIT 82200 8 .cfa: sp 0 +
STACK CFI INIT 82208 8 .cfa: sp 0 +
STACK CFI INIT 82210 58 .cfa: sp 0 +
STACK CFI INIT 82268 408 .cfa: sp 0 +
STACK CFI 8226c .cfa: sp 16 + v8: .cfa -16 + ^
STACK CFI 8266c .cfa: sp 0 +
STACK CFI INIT 82670 42c .cfa: sp 0 +
STACK CFI 82674 .cfa: sp 16 + v8: .cfa -16 + ^
STACK CFI 82a98 .cfa: sp 0 +
STACK CFI INIT 82a9c 8 .cfa: sp 0 +
STACK CFI INIT 82aa4 8 .cfa: sp 0 +
STACK CFI INIT 82aac 200 .cfa: sp 0 +
STACK CFI INIT 82cac 20c .cfa: sp 0 +
STACK CFI INIT 82eb8 39c .cfa: sp 0 +
STACK CFI INIT 83254 22c .cfa: sp 0 +
STACK CFI INIT 83480 150 .cfa: sp 0 +
STACK CFI INIT 835d0 35c .cfa: sp 0 +
STACK CFI 8365c .cfa: sp 32 +
STACK CFI 83660 v8: .cfa -8 + ^ v9: .cfa -16 + ^ v10: .cfa -32 + ^
STACK CFI 83674 .cfa: sp 0 +
STACK CFI 83678 .cfa: sp 32 +
STACK CFI 83928 .cfa: sp 0 +
STACK CFI INIT 8392c 60 .cfa: sp 0 +
STACK CFI INIT 8398c b8 .cfa: sp 0 +
STACK CFI 83990 .cfa: sp 64 +
STACK CFI 8399c .cfa: x29 32 + x19: .cfa -8 + ^ x20: .cfa -16 + ^ .ra: .cfa -24 + ^ x29: .cfa -32 + ^
STACK CFI 83a30 .cfa: sp 64 +
STACK CFI 83a3c .cfa: sp 0 +
STACK CFI 83a40 .cfa: x29 32 +
STACK CFI INIT 83a44 7f0 .cfa: sp 0 +
STACK CFI 83a48 .cfa: sp 112 +
STACK CFI 83a64 .cfa: x29 96 + x19: .cfa -8 + ^ x20: .cfa -16 + ^ x21: .cfa -24 + ^ x22: .cfa -32 + ^ x23: .cfa -40 + ^ x24: .cfa -48 + ^ x25: .cfa -56 + ^ x26: .cfa -64 + ^ x27: .cfa -72 + ^ x28: .cfa -80 + ^ .ra: .cfa -88 + ^ x29: .cfa -96 + ^ v8: .cfa -104 + ^ v9: .cfa -112 + ^
STACK CFI 841b0 .cfa: sp 112 +
STACK CFI 841cc .cfa: sp 0 +
STACK CFI 841d0 .cfa: x29 96 +
STACK CFI INIT 84234 958 .cfa: sp 0 +
STACK CFI 84238 .cfa: sp 112 +
STACK CFI 84254 .cfa: x29 96 + x19: .cfa -8 + ^ x20: .cfa -16 + ^ x21: .cfa -24 + ^ x22: .cfa -32 + ^ x23: .cfa -40 + ^ x24: .cfa -48 + ^ x25: .cfa -56 + ^ x26: .cfa -64 + ^ x27: .cfa -72 + ^ x28: .cfa -80 + ^ .ra: .cfa -88 + ^ x29: .cfa -96 + ^ v8: .cfa -104 + ^ v9: .cfa -112 + ^
STACK CFI 84a7c .cfa: sp 112 +
STACK CFI 84a98 .cfa: sp 0 +
STACK CFI 84a9c .cfa: x29 96 +
STACK CFI INIT 84b8c 7b4 .cfa: sp 0 +
STACK CFI 84b90 .cfa: sp 96 +
STACK CFI 84ba8 .cfa: x29 96 + x19: .cfa -8 + ^ x20: .cfa -16 + ^ x21: .cfa -24 + ^ x22: .cfa -32 + ^ x23: .cfa -40 + ^ x24: .cfa -48 + ^ x25: .cfa -56 + ^ x26: .cfa -64 + ^ x27: .cfa -72 + ^ x28: .cfa -80 + ^ .ra: .cfa -88 + ^ x29: .cfa -96 + ^
STACK CFI 852c0 .cfa: sp 96 +
STACK CFI 852d8 .cfa: sp 0 +
STACK CFI 852dc .cfa: x29 96 +
STACK CFI INIT 85340 91c .cfa: sp 0 +
STACK CFI 85344 .cfa: sp 96 +
STACK CFI 8535c .cfa: x29 96 + x19: .cfa -8 + ^ x20: .cfa -16 + ^ x21: .cfa -24 + ^ x22: .cfa -32 + ^ x23: .cfa -40 + ^ x24: .cfa -48 + ^ x25: .cfa -56 + ^ x26: .cfa -64 + ^ x27: .cfa -72 + ^ x28: .cfa -80 + ^ .ra: .cfa -88 + ^ x29: .cfa -96 + ^
STACK CFI 85b50 .cfa: sp 96 +
STACK CFI 85b68 .cfa: sp 0 +
STACK CFI 85b6c .cfa: x29 96 +
STACK CFI INIT 85c5c 40 .cfa: sp 0 +
STACK CFI INIT 85c9c 60 .cfa: sp 0 +
STACK CFI INIT 85cfc b8 .cfa: sp 0 +
STACK CFI 85d00 .cfa: sp 64 +
STACK CFI 85d0c .cfa: x29 32 + x19: .cfa -8 + ^ x20: .cfa -16 + ^ .ra: .cfa -24 + ^ x29: .cfa -32 + ^
STACK CFI 85da0 .cfa: sp 64 +
STACK CFI 85dac .cfa: sp 0 +
STACK CFI 85db0 .cfa: x29 32 +
STACK CFI INIT 85db4 828 .cfa: sp 0 +
STACK CFI 85db8 .cfa: sp 112 +
STACK CFI 85dd4 .cfa: x29 96 + x19: .cfa -8 + ^ x20: .cfa -16 + ^ x21: .cfa -24 + ^ x22: .cfa -32 + ^ x23: .cfa -40 + ^ x24: .cfa -48 + ^ x25: .cfa -56 + ^ x26: .cfa -64 + ^ x27: .cfa -72 + ^ x28: .cfa -80 + ^ .ra: .cfa -88 + ^ x29: .cfa -96 + ^ v8: .cfa -104 + ^ v9: .cfa -112 + ^
STACK CFI 86560 .cfa: sp 112 +
STACK CFI 8657c .cfa: sp 0 +
STACK CFI 86580 .cfa: x29 96 +
STACK CFI INIT 865dc 9fc .cfa: sp 0 +
STACK CFI 865e0 .cfa: sp 112 +
STACK CFI 865fc .cfa: x29 96 + x19: .cfa -8 + ^ x20: .cfa -16 + ^ x21: .cfa -24 + ^ x22: .cfa -32 + ^ x23: .cfa -40 + ^ x24: .cfa -48 + ^ x25: .cfa -56 + ^ x26: .cfa -64 + ^ x27: .cfa -72 + ^ x28: .cfa -80 + ^ .ra: .cfa -88 + ^ x29: .cfa -96 + ^ v8: .cfa -104 + ^ v9: .cfa -112 + ^
STACK CFI 86e68 .cfa: sp 112 +
STACK CFI 86e84 .cfa: sp 0 +
STACK CFI 86e88 .cfa: x29 96 +
STACK CFI INIT 86fd8 7ec .cfa: sp 0 +
STACK CFI 86fdc .cfa: sp 96 +
STACK CFI 86ff4 .cfa: x29 96 + x19: .cfa -8 + ^ x20: .cfa -16 + ^ x21: .cfa -24 + ^ x22: .cfa -32 + ^ x23: .cfa -40 + ^ x24: .cfa -48 + ^ x25: .cfa -56 + ^ x26: .cfa -64 + ^ x27: .cfa -72 + ^ x28: .cfa -80 + ^ .ra: .cfa -88 + ^ x29: .cfa -96 + ^
STACK CFI 8774c .cfa: sp 96 +
STACK CFI 87764 .cfa: sp 0 +
STACK CFI 87768 .cfa: x29 96 +
STACK CFI INIT 877c4 9b8 .cfa: sp 0 +
STACK CFI 877c8 .cfa: sp 96 +
STACK CFI 877e0 .cfa: x29 96 + x19: .cfa -8 + ^ x20: .cfa -16 + ^ x21: .cfa -24 + ^ x22: .cfa -32 + ^ x23: .cfa -40 + ^ x24: .cfa -48 + ^ x25: .cfa -56 + ^ x26: .cfa -64 + ^ x27: .cfa -72 + ^ x28: .cfa -80 + ^ .ra: .cfa -88 + ^ x29: .cfa -96 + ^
STACK CFI 88014 .cfa: sp 96 +
STACK CFI 8802c .cfa: sp 0 +
STACK CFI 88030 .cfa: x29 96 +
STACK CFI INIT 8817c 40 .cfa: sp 0 +
STACK CFI INIT 881bc 40 .cfa: sp 0 +
STACK CFI INIT 881fc 1f8 .cfa: sp 0 +
STACK CFI INIT 883f4 b0 .cfa: sp 0 +
STACK CFI 883f8 .cfa: sp 48 +
STACK CFI 88404 .cfa: x29 48 + x19: .cfa -8 + ^ x20: .cfa -16 + ^ x21: .cfa -24 + ^ x22: .cfa -32 + ^ .ra: .cfa -40 + ^ x29: .cfa -48 + ^
STACK CFI 88438 .cfa: sp 48 +
STACK CFI 88444 .cfa: sp 0 +
STACK CFI 88448 .cfa: x29 48 +
STACK CFI 8848c .cfa: sp 48 +
STACK CFI 88498 .cfa: sp 0 +
STACK CFI 8849c .cfa: x29 48 +
STACK CFI INIT 884a4 b0 .cfa: sp 0 +
STACK CFI 884a8 .cfa: sp 48 +
STACK CFI 884b4 .cfa: x29 48 + x19: .cfa -8 + ^ x20: .cfa -16 + ^ x21: .cfa -24 + ^ x22: .cfa -32 + ^ .ra: .cfa -40 + ^ x29: .cfa -48 + ^
STACK CFI 884e8 .cfa: sp 48 +
STACK CFI 884f4 .cfa: sp 0 +
STACK CFI 884f8 .cfa: x29 48 +
STACK CFI 8853c .cfa: sp 48 +
STACK CFI 88548 .cfa: sp 0 +
STACK CFI 8854c .cfa: x29 48 +
STACK CFI INIT 88554 8 .cfa: sp 0 +
STACK CFI INIT 8855c 278 .cfa: sp 0 +
STACK CFI INIT 887d4 1fc .cfa: sp 0 +
STACK CFI INIT 889d0 38c .cfa: sp 0 +
STACK CFI 88a4c .cfa: sp 80 +
STACK CFI 88a5c x19: .cfa -8 + ^ x20: .cfa -16 + ^ x21: .cfa -24 + ^ x22: .cfa -32 + ^ x23: .cfa -40 + ^ x24: .cfa -48 + ^ x25: .cfa -56 + ^ x26: .cfa -64 + ^ x27: .cfa -72 + ^ x28: .cfa -80 + ^
STACK CFI 88cd4 .cfa: sp 0 +
STACK CFI 88d18 .cfa: sp 80 +
STACK CFI 88d58 .cfa: sp 0 +
STACK CFI INIT 88d5c 30c .cfa: sp 0 +
STACK CFI INIT 89068 358 .cfa: sp 0 +
STACK CFI INIT 893c0 3a4 .cfa: sp 0 +
STACK CFI 893c4 .cfa: sp 64 +
STACK CFI 893d4 .cfa: x29 48 + x19: .cfa -8 + ^ x20: .cfa -16 + ^ x21: .cfa -24 + ^ x22: .cfa -32 + ^ .ra: .cfa -40 + ^ x29: .cfa -48 + ^
STACK CFI 89644 .cfa: sp 64 +
STACK CFI 89654 .cfa: sp 0 +
STACK CFI 89658 .cfa: x29 48 +
STACK CFI INIT 89764 408 .cfa: sp 0 +
STACK CFI 89768 .cfa: sp 96 +
STACK CFI 89780 .cfa: x29 80 + x19: .cfa -8 + ^ x20: .cfa -16 + ^ x21: .cfa -24 + ^ x22: .cfa -32 + ^ x23: .cfa -40 + ^ x24: .cfa -48 + ^ x25: .cfa -56 + ^ x26: .cfa -64 + ^ .ra: .cfa -72 + ^ x29: .cfa -80 + ^
STACK CFI 89b4c .cfa: sp 96 +
STACK CFI 89b64 .cfa: sp 0 +
STACK CFI 89b68 .cfa: x29 80 +
STACK CFI INIT 89b6c 4c .cfa: sp 0 +
STACK CFI 89b70 .cfa: sp 32 +
STACK CFI 89b78 .cfa: x29 32 + x19: .cfa -8 + ^ x20: .cfa -16 + ^ .ra: .cfa -24 + ^ x29: .cfa -32 + ^
STACK CFI 89ba0 .cfa: sp 32 +
STACK CFI 89ba8 .cfa: sp 0 +
STACK CFI 89bac .cfa: sp 32 +
STACK CFI 89bb4 .cfa: sp 0 +
STACK CFI INIT 89dd8 64 .cfa: sp 0 +
STACK CFI 89ddc .cfa: sp 32 +
STACK CFI 89de4 .cfa: x29 32 + x19: .cfa -16 + ^ .ra: .cfa -24 + ^ x29: .cfa -32 + ^
STACK CFI 89e10 .cfa: sp 32 +
STACK CFI 89e18 .cfa: sp 0 +
STACK CFI 89e1c .cfa: x29 32 +
STACK CFI 89e30 .cfa: sp 32 +
STACK CFI 89e38 .cfa: sp 0 +
STACK CFI INIT 8a060 24 .cfa: sp 0 +
STACK CFI 8a064 .cfa: sp 32 +
STACK CFI 8a06c .cfa: x29 32 + x19: .cfa -16 + ^ .ra: .cfa -24 + ^ x29: .cfa -32 + ^
STACK CFI 8a078 .cfa: sp 32 +
STACK CFI 8a080 .cfa: sp 0 +
STACK CFI INIT 8a2e0 24 .cfa: sp 0 +
STACK CFI 8a2e4 .cfa: sp 32 +
STACK CFI 8a2ec .cfa: x29 32 + x19: .cfa -16 + ^ .ra: .cfa -24 + ^ x29: .cfa -32 + ^
STACK CFI 8a2f8 .cfa: sp 32 +
STACK CFI 8a300 .cfa: sp 0 +
STACK CFI INIT 8a568 24 .cfa: sp 0 +
STACK CFI 8a56c .cfa: sp 32 +
STACK CFI 8a574 .cfa: x29 32 + x19: .cfa -16 + ^ .ra: .cfa -24 + ^ x29: .cfa -32 + ^
STACK CFI 8a580 .cfa: sp 32 +
STACK CFI 8a588 .cfa: sp 0 +
STACK CFI INIT 8aa10 24 .cfa: sp 0 +
STACK CFI 8aa14 .cfa: sp 32 +
STACK CFI 8aa1c .cfa: x29 32 + x19: .cfa -16 + ^ .ra: .cfa -24 + ^ x29: .cfa -32 + ^
STACK CFI 8aa28 .cfa: sp 32 +
STACK CFI 8aa30 .cfa: sp 0 +
STACK CFI INIT 8aa34 8 .cfa: sp 0 +
STACK CFI INIT 8aa3c 24 .cfa: sp 0 +
STACK CFI 8aa40 .cfa: sp 32 +
STACK CFI 8aa48 .cfa: x29 32 + x19: .cfa -16 + ^ .ra: .cfa -24 + ^ x29: .cfa -32 + ^
STACK CFI 8aa54 .cfa: sp 32 +
STACK CFI 8aa5c .cfa: sp 0 +
STACK CFI INIT 8aa60 28 .cfa: sp 0 +
STACK CFI 8aa64 .cfa: sp 32 +
STACK CFI 8aa6c .cfa: x29 32 + x19: .cfa -16 + ^ .ra: .cfa -24 + ^ x29: .cfa -32 + ^
STACK CFI 8aa7c .cfa: sp 32 +
STACK CFI 8aa84 .cfa: sp 0 +
STACK CFI INIT 8ad88 8 .cfa: sp 0 +
STACK CFI INIT 8ad90 24 .cfa: sp 0 +
STACK CFI 8ad94 .cfa: sp 32 +
STACK CFI 8ad9c .cfa: x29 32 + x19: .cfa -16 + ^ .ra: .cfa -24 + ^ x29: .cfa -32 + ^
STACK CFI 8ada8 .cfa: sp 32 +
STACK CFI 8adb0 .cfa: sp 0 +
STACK CFI INIT 8adb4 28 .cfa: sp 0 +
STACK CFI 8adb8 .cfa: sp 32 +
STACK CFI 8adc0 .cfa: x29 32 + x19: .cfa -16 + ^ .ra: .cfa -24 + ^ x29: .cfa -32 + ^
STACK CFI 8add0 .cfa: sp 32 +
STACK CFI 8add8 .cfa: sp 0 +
STACK CFI INIT 8b040 8 .cfa: sp 0 +
STACK CFI INIT 8b048 24 .cfa: sp 0 +
STACK CFI 8b04c .cfa: sp 32 +
STACK CFI 8b054 .cfa: x29 32 + x19: .cfa -16 + ^ .ra: .cfa -24 + ^ x29: .cfa -32 + ^
STACK CFI 8b060 .cfa: sp 32 +
STACK CFI 8b068 .cfa: sp 0 +
STACK CFI INIT 8b06c 28 .cfa: sp 0 +
STACK CFI 8b070 .cfa: sp 32 +
STACK CFI 8b078 .cfa: x29 32 + x19: .cfa -16 + ^ .ra: .cfa -24 + ^ x29: .cfa -32 + ^
STACK CFI 8b088 .cfa: sp 32 +
STACK CFI 8b090 .cfa: sp 0 +
STACK CFI INIT 8b2f4 24 .cfa: sp 0 +
STACK CFI 8b2f8 .cfa: sp 32 +
STACK CFI 8b300 .cfa: x29 32 + x19: .cfa -16 + ^ .ra: .cfa -24 + ^ x29: .cfa -32 + ^
STACK CFI 8b30c .cfa: sp 32 +
STACK CFI 8b314 .cfa: sp 0 +
STACK CFI INIT 8b318 24 .cfa: sp 0 +
STACK CFI 8b31c .cfa: sp 32 +
STACK CFI 8b324 .cfa: x29 32 + x19: .cfa -16 + ^ .ra: .cfa -24 + ^ x29: .cfa -32 + ^
STACK CFI 8b330 .cfa: sp 32 +
STACK CFI 8b338 .cfa: sp 0 +
STACK CFI INIT 8b33c 9c .cfa: sp 0 +
STACK CFI 8b340 .cfa: sp 32 +
STACK CFI 8b348 .cfa: x29 32 + x19: .cfa -16 + ^ .ra: .cfa -24 + ^ x29: .cfa -32 + ^
STACK CFI 8b3cc .cfa: sp 32 +
STACK CFI 8b3d4 .cfa: sp 0 +
STACK CFI INIT 8b3d8 8 .cfa: sp 0 +
STACK CFI INIT 8b3e0 24 .cfa: sp 0 +
STACK CFI 8b3e4 .cfa: sp 32 +
STACK CFI 8b3ec .cfa: x29 32 + x19: .cfa -16 + ^ .ra: .cfa -24 + ^ x29: .cfa -32 + ^
STACK CFI 8b3f8 .cfa: sp 32 +
STACK CFI 8b400 .cfa: sp 0 +
STACK CFI INIT 8b404 28 .cfa: sp 0 +
STACK CFI 8b408 .cfa: sp 32 +
STACK CFI 8b410 .cfa: x29 32 + x19: .cfa -16 + ^ .ra: .cfa -24 + ^ x29: .cfa -32 + ^
STACK CFI 8b420 .cfa: sp 32 +
STACK CFI 8b428 .cfa: sp 0 +
STACK CFI INIT 8ba5c 44 .cfa: sp 0 +
STACK CFI 8ba60 .cfa: sp 32 +
STACK CFI 8ba68 .cfa: x29 32 + x19: .cfa -16 + ^ .ra: .cfa -24 + ^ x29: .cfa -32 + ^
STACK CFI 8ba94 .cfa: sp 32 +
STACK CFI 8ba9c .cfa: sp 0 +
STACK CFI INIT 8baa0 4c .cfa: sp 0 +
STACK CFI 8baa4 .cfa: sp 32 +
STACK CFI 8baac .cfa: x29 32 + x19: .cfa -16 + ^ .ra: .cfa -24 + ^ x29: .cfa -32 + ^
STACK CFI 8bae0 .cfa: sp 32 +
STACK CFI 8bae8 .cfa: sp 0 +
STACK CFI INIT 8baec 14 .cfa: sp 0 +
STACK CFI INIT 8be24 4 .cfa: sp 0 +
STACK CFI INIT 8be28 4 .cfa: sp 0 +
STACK CFI INIT 8be2c 4 .cfa: sp 0 +
STACK CFI INIT 8be30 4 .cfa: sp 0 +
STACK CFI INIT 8be34 4 .cfa: sp 0 +
STACK CFI INIT 8be38 4 .cfa: sp 0 +
STACK CFI INIT 8da54 4 .cfa: sp 0 +
STACK CFI INIT 8da58 14 .cfa: sp 0 +
STACK CFI INIT 8df78 c .cfa: sp 0 +
STACK CFI INIT 8df84 24c .cfa: sp 0 +
STACK CFI INIT 8e1d0 a0 .cfa: sp 0 +
STACK CFI 8e1dc .cfa: sp 32 +
STACK CFI 8e234 .cfa: sp 0 +
STACK CFI 8e238 .cfa: sp 32 +
STACK CFI 8e240 .cfa: sp 0 +
STACK CFI 8e244 .cfa: sp 32 +
STACK CFI 8e258 .cfa: sp 0 +
STACK CFI 8e25c .cfa: sp 32 +
STACK CFI 8e26c .cfa: sp 0 +
STACK CFI INIT 8e270 38 .cfa: sp 0 +
STACK CFI 8e27c .cfa: sp 32 +
STACK CFI 8e2a4 .cfa: sp 0 +
STACK CFI INIT 8e53c 7c .cfa: sp 0 +
STACK CFI 8e540 .cfa: sp 32 +
STACK CFI 8e548 .cfa: x29 32 + x19: .cfa -16 + ^ .ra: .cfa -24 + ^ x29: .cfa -32 + ^
STACK CFI 8e574 .cfa: sp 32 +
STACK CFI 8e57c .cfa: sp 0 +
STACK CFI 8e580 .cfa: x29 32 +
STACK CFI 8e5ac .cfa: sp 32 +
STACK CFI 8e5b4 .cfa: sp 0 +
STACK CFI INIT 8e608 2c .cfa: sp 0 +
STACK CFI 8e60c .cfa: sp 32 +
STACK CFI 8e614 .cfa: x29 32 + x19: .cfa -16 + ^ .ra: .cfa -24 + ^ x29: .cfa -32 + ^
STACK CFI 8e628 .cfa: sp 32 +
STACK CFI 8e630 .cfa: sp 0 +
STACK CFI INIT 8edf4 64 .cfa: sp 0 +
STACK CFI 8edf8 .cfa: sp 32 +
STACK CFI 8ee00 .cfa: x29 32 + x19: .cfa -16 + ^ .ra: .cfa -24 + ^ x29: .cfa -32 + ^
STACK CFI 8ee1c .cfa: sp 32 +
STACK CFI 8ee24 .cfa: sp 0 +
STACK CFI 8ee28 .cfa: x29 32 +
STACK CFI 8ee4c .cfa: sp 32 +
STACK CFI 8ee54 .cfa: sp 0 +
STACK CFI INIT 8efa4 570 .cfa: sp 0 +
STACK CFI 8efa8 .cfa: sp 176 +
STACK CFI 8efbc .cfa: x29 64 + x19: .cfa -8 + ^ x20: .cfa -16 + ^ x21: .cfa -24 + ^ x22: .cfa -32 + ^ x23: .cfa -40 + ^ x24: .cfa -48 + ^ .ra: .cfa -56 + ^ x29: .cfa -64 + ^
STACK CFI 8f1ec .cfa: sp 176 +
STACK CFI 8f200 .cfa: sp 0 +
STACK CFI 8f204 .cfa: x29 64 +
STACK CFI 8f250 .cfa: sp 176 +
STACK CFI 8f264 .cfa: sp 0 +
STACK CFI 8f268 .cfa: x29 64 +
STACK CFI 8f2a0 .cfa: sp 176 +
STACK CFI 8f2b4 .cfa: sp 0 +
STACK CFI 8f2b8 .cfa: x29 64 +
STACK CFI 8f2d0 .cfa: sp 176 +
STACK CFI 8f2e4 .cfa: sp 0 +
STACK CFI 8f2e8 .cfa: x29 64 +
STACK CFI 8f308 .cfa: sp 176 +
STACK CFI 8f31c .cfa: sp 0 +
STACK CFI 8f320 .cfa: x29 64 +
STACK CFI 8f338 .cfa: sp 176 +
STACK CFI 8f34c .cfa: sp 0 +
STACK CFI 8f350 .cfa: x29 64 +
STACK CFI 8f364 .cfa: sp 176 +
STACK CFI 8f378 .cfa: sp 0 +
STACK CFI 8f37c .cfa: x29 64 +
STACK CFI 8f390 .cfa: sp 176 +
STACK CFI 8f3a4 .cfa: sp 0 +
STACK CFI 8f3a8 .cfa: x29 64 +
STACK CFI 8f3b8 .cfa: sp 176 +
STACK CFI 8f3cc .cfa: sp 0 +
STACK CFI 8f3d0 .cfa: x29 64 +
STACK CFI 8f3e0 .cfa: sp 176 +
STACK CFI 8f3f4 .cfa: sp 0 +
STACK CFI 8f3f8 .cfa: x29 64 +
STACK CFI 8f410 .cfa: sp 176 +
STACK CFI 8f424 .cfa: sp 0 +
STACK CFI 8f428 .cfa: x29 64 +
STACK CFI 8f43c .cfa: sp 176 +
STACK CFI 8f450 .cfa: sp 0 +
STACK CFI 8f454 .cfa: x29 64 +
STACK CFI 8f46c .cfa: sp 176 +
STACK CFI 8f480 .cfa: sp 0 +
STACK CFI 8f484 .cfa: x29 64 +
STACK CFI 8f4b0 .cfa: sp 176 +
STACK CFI 8f4c4 .cfa: sp 0 +
STACK CFI 8f4c8 .cfa: x29 64 +
STACK CFI 8f4dc .cfa: sp 176 +
STACK CFI 8f4f0 .cfa: sp 0 +
STACK CFI 8f4f4 .cfa: x29 64 +
STACK CFI INIT 8f514 228 .cfa: sp 0 +
STACK CFI INIT 8f73c 2dc .cfa: sp 0 +
STACK CFI INIT 8fa18 53c .cfa: sp 0 +
STACK CFI INIT 8ff54 78 .cfa: sp 0 +
STACK CFI 8ff58 .cfa: sp 48 +
STACK CFI 8ff64 .cfa: x29 48 + x19: .cfa -8 + ^ x20: .cfa -16 + ^ x21: .cfa -24 + ^ x22: .cfa -32 + ^ .ra: .cfa -40 + ^ x29: .cfa -48 + ^
STACK CFI 8ffac .cfa: sp 48 +
STACK CFI 8ffb8 .cfa: sp 0 +
STACK CFI 8ffbc .cfa: sp 48 +
STACK CFI 8ffc8 .cfa: sp 0 +
STACK CFI INIT 8ffcc 8c .cfa: sp 0 +
STACK CFI 8ffd0 .cfa: sp 32 +
STACK CFI 8ffd8 .cfa: x29 32 + x19: .cfa -16 + ^ .ra: .cfa -24 + ^ x29: .cfa -32 + ^
STACK CFI 9000c .cfa: sp 32 +
STACK CFI 90014 .cfa: sp 0 +
STACK CFI 90018 .cfa: x29 32 +
STACK CFI 9004c .cfa: sp 32 +
STACK CFI 90054 .cfa: sp 0 +
STACK CFI INIT 90058 24 .cfa: sp 0 +
STACK CFI 9005c .cfa: sp 32 +
STACK CFI 90064 .cfa: x29 32 + x19: .cfa -16 + ^ .ra: .cfa -24 + ^ x29: .cfa -32 + ^
STACK CFI 90070 .cfa: sp 32 +
STACK CFI 90078 .cfa: sp 0 +
STACK CFI INIT 9007c 150 .cfa: sp 0 +
STACK CFI 90080 .cfa: sp 48 +
STACK CFI 9008c .cfa: x29 48 + x19: .cfa -8 + ^ x20: .cfa -16 + ^ x21: .cfa -24 + ^ x22: .cfa -32 + ^ .ra: .cfa -40 + ^ x29: .cfa -48 + ^
STACK CFI 901bc .cfa: sp 48 +
STACK CFI 901c8 .cfa: sp 0 +
STACK CFI INIT 901cc 68 .cfa: sp 0 +
STACK CFI 901d0 .cfa: sp 64 +
STACK CFI 901dc .cfa: x29 32 + x19: .cfa -16 + ^ .ra: .cfa -24 + ^ x29: .cfa -32 + ^
STACK CFI 90220 .cfa: sp 64 +
STACK CFI 9022c .cfa: sp 0 +
STACK CFI 90230 .cfa: x29 32 +
STACK CFI INIT 90234 90 .cfa: sp 0 +
STACK CFI 90238 .cfa: sp 32 +
STACK CFI 90240 .cfa: x29 32 + x19: .cfa -8 + ^ x20: .cfa -16 + ^ .ra: .cfa -24 + ^ x29: .cfa -32 + ^
STACK CFI 9026c .cfa: sp 32 +
STACK CFI 90274 .cfa: sp 0 +
STACK CFI 90278 .cfa: x29 32 +
STACK CFI 902b8 .cfa: sp 32 +
STACK CFI 902c0 .cfa: sp 0 +
STACK CFI INIT 902c4 ec .cfa: sp 0 +
STACK CFI 902c8 .cfa: sp 112 +
STACK CFI 902d8 .cfa: x29 48 + x19: .cfa -8 + ^ x20: .cfa -16 + ^ x21: .cfa -32 + ^ .ra: .cfa -40 + ^ x29: .cfa -48 + ^
STACK CFI 90398 .cfa: sp 112 +
STACK CFI 903a8 .cfa: sp 0 +
STACK CFI 903ac .cfa: x29 48 +
STACK CFI INIT 903b0 ec .cfa: sp 0 +
STACK CFI 903b4 .cfa: sp 112 +
STACK CFI 903c4 .cfa: x29 48 + x19: .cfa -8 + ^ x20: .cfa -16 + ^ x21: .cfa -32 + ^ .ra: .cfa -40 + ^ x29: .cfa -48 + ^
STACK CFI 90484 .cfa: sp 112 +
STACK CFI 90494 .cfa: sp 0 +
STACK CFI 90498 .cfa: x29 48 +
STACK CFI INIT 9049c 48 .cfa: sp 0 +
STACK CFI 904a0 .cfa: sp 32 +
STACK CFI 904a8 .cfa: x29 32 + x19: .cfa -8 + ^ x20: .cfa -16 + ^ .ra: .cfa -24 + ^ x29: .cfa -32 + ^
STACK CFI 904cc .cfa: sp 32 +
STACK CFI 904d4 .cfa: sp 0 +
STACK CFI 904d8 .cfa: x29 32 +
STACK CFI INIT 904e4 98 .cfa: sp 0 +
STACK CFI 904e8 .cfa: sp 80 +
STACK CFI 904f4 .cfa: x29 32 + x19: .cfa -16 + ^ .ra: .cfa -24 + ^ x29: .cfa -32 + ^
STACK CFI 90568 .cfa: sp 80 +
STACK CFI 90574 .cfa: sp 0 +
STACK CFI 90578 .cfa: x29 32 +
STACK CFI INIT 9057c 260 .cfa: sp 0 +
STACK CFI 90580 .cfa: sp 112 +
STACK CFI 90598 .cfa: x29 80 + x19: .cfa -8 + ^ x20: .cfa -16 + ^ x21: .cfa -24 + ^ x22: .cfa -32 + ^ x23: .cfa -40 + ^ x24: .cfa -48 + ^ x25: .cfa -64 + ^ .ra: .cfa -72 + ^ x29: .cfa -80 + ^
STACK CFI 9077c .cfa: sp 112 +
STACK CFI 90794 .cfa: sp 0 +
STACK CFI 90798 .cfa: x29 80 +
STACK CFI INIT 907dc 150 .cfa: sp 0 +
STACK CFI 907e0 .cfa: sp 48 +
STACK CFI 907ec .cfa: x29 48 + x19: .cfa -8 + ^ x20: .cfa -16 + ^ x21: .cfa -24 + ^ x22: .cfa -32 + ^ .ra: .cfa -40 + ^ x29: .cfa -48 + ^
STACK CFI 9091c .cfa: sp 48 +
STACK CFI 90928 .cfa: sp 0 +
STACK CFI INIT 9092c 1e0 .cfa: sp 0 +
STACK CFI 90930 .cfa: sp 96 +
STACK CFI 90944 .cfa: x29 64 + x19: .cfa -8 + ^ x20: .cfa -16 + ^ x21: .cfa -24 + ^ x22: .cfa -32 + ^ x23: .cfa -40 + ^ x24: .cfa -48 + ^ .ra: .cfa -56 + ^ x29: .cfa -64 + ^
STACK CFI 90ac4 .cfa: sp 96 +
STACK CFI 90ad8 .cfa: sp 0 +
STACK CFI 90adc .cfa: x29 64 +
STACK CFI INIT 90b0c 284 .cfa: sp 0 +
STACK CFI 90b10 .cfa: sp 112 +
STACK CFI 90b28 .cfa: x29 80 + x19: .cfa -8 + ^ x20: .cfa -16 + ^ x21: .cfa -24 + ^ x22: .cfa -32 + ^ x23: .cfa -40 + ^ x24: .cfa -48 + ^ x25: .cfa -64 + ^ .ra: .cfa -72 + ^ x29: .cfa -80 + ^
STACK CFI 90d30 .cfa: sp 112 +
STACK CFI 90d48 .cfa: sp 0 +
STACK CFI 90d4c .cfa: x29 80 +
STACK CFI INIT 90d90 208 .cfa: sp 0 +
STACK CFI 90d94 .cfa: sp 96 +
STACK CFI 90da8 .cfa: x29 64 + x19: .cfa -8 + ^ x20: .cfa -16 + ^ x21: .cfa -24 + ^ x22: .cfa -32 + ^ x23: .cfa -40 + ^ x24: .cfa -48 + ^ .ra: .cfa -56 + ^ x29: .cfa -64 + ^
STACK CFI 90f50 .cfa: sp 96 +
STACK CFI 90f64 .cfa: sp 0 +
STACK CFI 90f68 .cfa: x29 64 +
STACK CFI INIT 90f98 360 .cfa: sp 0 +
STACK CFI 90f9c .cfa: sp 160 +
STACK CFI 90fb8 .cfa: x29 96 + x19: .cfa -8 + ^ x20: .cfa -16 + ^ x21: .cfa -24 + ^ x22: .cfa -32 + ^ x23: .cfa -40 + ^ x24: .cfa -48 + ^ x25: .cfa -56 + ^ x26: .cfa -64 + ^ x27: .cfa -72 + ^ x28: .cfa -80 + ^ .ra: .cfa -88 + ^ x29: .cfa -96 + ^
STACK CFI 91284 .cfa: sp 160 +
STACK CFI 912a0 .cfa: sp 0 +
STACK CFI 912a4 .cfa: x29 96 +
STACK CFI INIT 912f8 314 .cfa: sp 0 +
STACK CFI 912fc .cfa: sp 144 +
STACK CFI 91318 .cfa: x29 96 + x19: .cfa -8 + ^ x20: .cfa -16 + ^ x21: .cfa -24 + ^ x22: .cfa -32 + ^ x23: .cfa -40 + ^ x24: .cfa -48 + ^ x25: .cfa -56 + ^ x26: .cfa -64 + ^ x27: .cfa -72 + ^ x28: .cfa -80 + ^ .ra: .cfa -88 + ^ x29: .cfa -96 + ^
STACK CFI 91594 .cfa: sp 144 +
STACK CFI 915b0 .cfa: sp 0 +
STACK CFI 915b4 .cfa: x29 96 +
STACK CFI INIT 9160c 290 .cfa: sp 0 +
STACK CFI 91610 .cfa: sp 128 +
STACK CFI 91628 .cfa: x29 80 + x19: .cfa -8 + ^ x20: .cfa -16 + ^ x21: .cfa -24 + ^ x22: .cfa -32 + ^ x23: .cfa -40 + ^ x24: .cfa -48 + ^ x25: .cfa -56 + ^ x26: .cfa -64 + ^ .ra: .cfa -72 + ^ x29: .cfa -80 + ^
STACK CFI 9187c .cfa: sp 128 +
STACK CFI 91894 .cfa: sp 0 +
STACK CFI 91898 .cfa: x29 80 +
STACK CFI INIT 9189c dc8 .cfa: sp 0 +
STACK CFI 918a0 .cfa: sp 144 +
STACK CFI 918bc .cfa: x29 96 + x19: .cfa -8 + ^ x20: .cfa -16 + ^ x21: .cfa -24 + ^ x22: .cfa -32 + ^ x23: .cfa -40 + ^ x24: .cfa -48 + ^ x25: .cfa -56 + ^ x26: .cfa -64 + ^ x27: .cfa -72 + ^ x28: .cfa -80 + ^ .ra: .cfa -88 + ^ x29: .cfa -96 + ^
STACK CFI 9253c .cfa: sp 144 +
STACK CFI 92558 .cfa: sp 0 +
STACK CFI 9255c .cfa: x29 96 +
STACK CFI INIT 92664 1d0 .cfa: sp 0 +
STACK CFI 92668 .cfa: sp 80 +
STACK CFI 9267c .cfa: x29 80 + x19: .cfa -8 + ^ x20: .cfa -16 + ^ x21: .cfa -24 + ^ x22: .cfa -32 + ^ x23: .cfa -40 + ^ x24: .cfa -48 + ^ x25: .cfa -64 + ^ .ra: .cfa -72 + ^ x29: .cfa -80 + ^
STACK CFI 9281c .cfa: sp 80 +
STACK CFI 92830 .cfa: sp 0 +
STACK CFI INIT 92834 23c .cfa: sp 0 +
STACK CFI 92838 .cfa: sp 112 +
STACK CFI 9284c .cfa: x29 64 + x19: .cfa -8 + ^ x20: .cfa -16 + ^ x21: .cfa -24 + ^ x22: .cfa -32 + ^ x23: .cfa -40 + ^ x24: .cfa -48 + ^ .ra: .cfa -56 + ^ x29: .cfa -64 + ^
STACK CFI 92a28 .cfa: sp 112 +
STACK CFI 92a3c .cfa: sp 0 +
STACK CFI 92a40 .cfa: x29 64 +
STACK CFI INIT 92a70 30c .cfa: sp 0 +
STACK CFI 92a74 .cfa: sp 80 +
STACK CFI 92a88 .cfa: x29 64 + x19: .cfa -8 + ^ x20: .cfa -16 + ^ x21: .cfa -24 + ^ x22: .cfa -32 + ^ x23: .cfa -40 + ^ x24: .cfa -48 + ^ .ra: .cfa -56 + ^ x29: .cfa -64 + ^
STACK CFI 92c04 .cfa: sp 80 +
STACK CFI 92c18 .cfa: sp 0 +
STACK CFI 92c1c .cfa: x29 64 +
STACK CFI INIT 92d7c 178 .cfa: sp 0 +
STACK CFI 92d80 .cfa: sp 80 +
STACK CFI 92d94 .cfa: x29 64 + x19: .cfa -8 + ^ x20: .cfa -16 + ^ x21: .cfa -24 + ^ x22: .cfa -32 + ^ x23: .cfa -40 + ^ x24: .cfa -48 + ^ .ra: .cfa -56 + ^ x29: .cfa -64 + ^
STACK CFI 92ed8 .cfa: sp 80 +
STACK CFI 92eec .cfa: sp 0 +
STACK CFI 92ef0 .cfa: x29 64 +
STACK CFI INIT 92ef4 178 .cfa: sp 0 +
STACK CFI 92ef8 .cfa: sp 80 +
STACK CFI 92f0c .cfa: x29 64 + x19: .cfa -8 + ^ x20: .cfa -16 + ^ x21: .cfa -24 + ^ x22: .cfa -32 + ^ x23: .cfa -40 + ^ x24: .cfa -48 + ^ .ra: .cfa -56 + ^ x29: .cfa -64 + ^
STACK CFI 93050 .cfa: sp 80 +
STACK CFI 93064 .cfa: sp 0 +
STACK CFI 93068 .cfa: x29 64 +
STACK CFI INIT 9306c 240 .cfa: sp 0 +
STACK CFI 93070 .cfa: sp 96 +
STACK CFI 93088 .cfa: x29 96 + x19: .cfa -8 + ^ x20: .cfa -16 + ^ x21: .cfa -24 + ^ x22: .cfa -32 + ^ x23: .cfa -40 + ^ x24: .cfa -48 + ^ x25: .cfa -56 + ^ x26: .cfa -64 + ^ x27: .cfa -72 + ^ x28: .cfa -80 + ^ .ra: .cfa -88 + ^ x29: .cfa -96 + ^
STACK CFI 93290 .cfa: sp 96 +
STACK CFI 932a8 .cfa: sp 0 +
STACK CFI INIT 93f20 154 .cfa: sp 0 +
STACK CFI 93f24 .cfa: sp 96 +
STACK CFI 93f38 .cfa: x29 64 + x19: .cfa -8 + ^ x20: .cfa -16 + ^ x21: .cfa -24 + ^ x22: .cfa -32 + ^ x23: .cfa -48 + ^ .ra: .cfa -56 + ^ x29: .cfa -64 + ^
STACK CFI 94018 .cfa: sp 96 +
STACK CFI 9402c .cfa: sp 0 +
STACK CFI 94030 .cfa: x29 64 +
STACK CFI INIT 942dc 44 .cfa: sp 0 +
STACK CFI 942e0 .cfa: sp 32 +
STACK CFI 942e8 .cfa: x29 32 + x19: .cfa -16 + ^ .ra: .cfa -24 + ^ x29: .cfa -32 + ^
STACK CFI 94304 .cfa: sp 32 +
STACK CFI 9430c .cfa: sp 0 +
STACK CFI 94310 .cfa: x29 32 +
STACK CFI 94314 .cfa: sp 32 +
STACK CFI 9431c .cfa: sp 0 +
STACK CFI INIT 94320 1d0 .cfa: sp 0 +
STACK CFI 94324 .cfa: sp 64 +
STACK CFI 94334 .cfa: x29 64 + x19: .cfa -8 + ^ x20: .cfa -16 + ^ x21: .cfa -24 + ^ x22: .cfa -32 + ^ x23: .cfa -40 + ^ x24: .cfa -48 + ^ .ra: .cfa -56 + ^ x29: .cfa -64 + ^
STACK CFI 943f4 .cfa: sp 64 +
STACK CFI 94404 .cfa: sp 0 +
STACK CFI 94408 .cfa: x29 64 +
STACK CFI INIT 944f0 17c .cfa: sp 0 +
STACK CFI INIT 9466c 13c .cfa: sp 0 +
STACK CFI 94670 .cfa: sp 64 +
STACK CFI 94680 .cfa: x29 64 + x19: .cfa -8 + ^ x20: .cfa -16 + ^ x21: .cfa -24 + ^ x22: .cfa -32 + ^ x23: .cfa -40 + ^ x24: .cfa -48 + ^ .ra: .cfa -56 + ^ x29: .cfa -64 + ^
STACK CFI 94760 .cfa: sp 64 +
STACK CFI 94770 .cfa: sp 0 +
STACK CFI 94774 .cfa: x29 64 +
STACK CFI INIT 94b60 a0 .cfa: sp 0 +
STACK CFI 94b64 .cfa: sp 48 +
STACK CFI 94b70 .cfa: x29 48 + x19: .cfa -8 + ^ x20: .cfa -16 + ^ x21: .cfa -24 + ^ x22: .cfa -32 + ^ .ra: .cfa -40 + ^ x29: .cfa -48 + ^
STACK CFI 94bdc .cfa: sp 48 +
STACK CFI 94be8 .cfa: sp 0 +
STACK CFI 94bec .cfa: sp 48 +
STACK CFI 94bf8 .cfa: sp 0 +
STACK CFI 94bfc .cfa: x29 48 +
STACK CFI INIT 958b0 158 .cfa: sp 0 +
STACK CFI 958b4 .cfa: sp 96 +
STACK CFI 958c8 .cfa: x29 64 + x19: .cfa -8 + ^ x20: .cfa -16 + ^ x21: .cfa -24 + ^ x22: .cfa -32 + ^ x23: .cfa -48 + ^ .ra: .cfa -56 + ^ x29: .cfa -64 + ^
STACK CFI 959ac .cfa: sp 96 +
STACK CFI 959c0 .cfa: sp 0 +
STACK CFI 959c4 .cfa: x29 64 +
STACK CFI INIT 95a08 190 .cfa: sp 0 +
STACK CFI INIT 9667c 1dc .cfa: sp 0 +
STACK CFI 96680 .cfa: sp 80 +
STACK CFI 96694 .cfa: x29 80 + x19: .cfa -8 + ^ x20: .cfa -16 + ^ x21: .cfa -24 + ^ x22: .cfa -32 + ^ x23: .cfa -40 + ^ x24: .cfa -48 + ^ x25: .cfa -64 + ^ .ra: .cfa -72 + ^ x29: .cfa -80 + ^
STACK CFI 96840 .cfa: sp 80 +
STACK CFI 96854 .cfa: sp 0 +
STACK CFI INIT 97c7c 124 .cfa: sp 0 +
STACK CFI 97cac .cfa: sp 32 +
STACK CFI 97cb4 .cfa: x29 32 + x19: .cfa -8 + ^ x20: .cfa -16 + ^ .ra: .cfa -24 + ^ x29: .cfa -32 + ^
STACK CFI 97d94 .cfa: sp 32 +
STACK CFI 97d9c .cfa: sp 0 +
STACK CFI INIT 984fc 324 .cfa: sp 0 +
STACK CFI 98500 .cfa: sp 64 +
STACK CFI 98510 .cfa: x29 64 + x19: .cfa -8 + ^ x20: .cfa -16 + ^ x21: .cfa -24 + ^ x22: .cfa -32 + ^ x23: .cfa -40 + ^ x24: .cfa -48 + ^ .ra: .cfa -56 + ^ x29: .cfa -64 + ^
STACK CFI 9858c .cfa: sp 64 +
STACK CFI 9859c .cfa: sp 0 +
STACK CFI 985a0 .cfa: x29 64 +
STACK CFI 98778 .cfa: sp 64 +
STACK CFI 98788 .cfa: sp 0 +
STACK CFI 9878c .cfa: x29 64 +
STACK CFI 9879c .cfa: sp 64 +
STACK CFI 987ac .cfa: sp 0 +
STACK CFI 987b0 .cfa: x29 64 +
STACK CFI INIT 98820 a0 .cfa: sp 0 +
STACK CFI 98824 .cfa: sp 48 +
STACK CFI 98830 .cfa: x29 48 + x19: .cfa -8 + ^ x20: .cfa -16 + ^ x21: .cfa -24 + ^ x22: .cfa -32 + ^ .ra: .cfa -40 + ^ x29: .cfa -48 + ^
STACK CFI 9889c .cfa: sp 48 +
STACK CFI 988a8 .cfa: sp 0 +
STACK CFI 988ac .cfa: sp 48 +
STACK CFI 988b8 .cfa: sp 0 +
STACK CFI 988bc .cfa: x29 48 +
STACK CFI INIT 9976c 160 .cfa: sp 0 +
STACK CFI 99770 .cfa: sp 64 +
STACK CFI 99780 .cfa: x29 64 + x19: .cfa -8 + ^ x20: .cfa -16 + ^ x21: .cfa -24 + ^ x22: .cfa -32 + ^ x23: .cfa -48 + ^ .ra: .cfa -56 + ^ x29: .cfa -64 + ^
STACK CFI 99878 .cfa: sp 64 +
STACK CFI 99888 .cfa: sp 0 +
STACK CFI 9988c .cfa: x29 64 +
STACK CFI INIT 998cc 214 .cfa: sp 0 +
STACK CFI 998d0 .cfa: sp 128 +
STACK CFI 998ec .cfa: x29 96 + x19: .cfa -8 + ^ x20: .cfa -16 + ^ x21: .cfa -24 + ^ x22: .cfa -32 + ^ x23: .cfa -40 + ^ x24: .cfa -48 + ^ x25: .cfa -56 + ^ x26: .cfa -64 + ^ x27: .cfa -80 + ^ .ra: .cfa -88 + ^ x29: .cfa -96 + ^
STACK CFI 99a68 .cfa: sp 128 +
STACK CFI 99a84 .cfa: sp 0 +
STACK CFI 99a88 .cfa: x29 96 +
STACK CFI INIT 9b744 290 .cfa: sp 0 +
STACK CFI 9b748 .cfa: sp 16 +
STACK CFI 9b74c .cfa: x29 16 + .ra: .cfa -8 + ^ x29: .cfa -16 + ^
STACK CFI 9b7d8 .cfa: sp 16 +
STACK CFI 9b7dc .cfa: sp 0 +
STACK CFI 9b7e0 .cfa: x29 16 +
STACK CFI 9b830 .cfa: sp 16 +
STACK CFI 9b834 .cfa: sp 0 +
STACK CFI 9b838 .cfa: x29 16 +
STACK CFI 9b99c .cfa: sp 16 +
STACK CFI 9b9a0 .cfa: sp 0 +
STACK CFI 9b9a4 .cfa: x29 16 +
STACK CFI INIT 9b9d4 134 .cfa: sp 0 +
STACK CFI 9b9d8 .cfa: sp 96 +
STACK CFI 9b9f0 .cfa: x29 96 + x19: .cfa -8 + ^ x20: .cfa -16 + ^ x21: .cfa -24 + ^ x22: .cfa -32 + ^ x23: .cfa -40 + ^ x24: .cfa -48 + ^ x25: .cfa -56 + ^ x26: .cfa -64 + ^ x27: .cfa -72 + ^ x28: .cfa -80 + ^ .ra: .cfa -88 + ^ x29: .cfa -96 + ^
STACK CFI 9bac0 .cfa: sp 96 +
STACK CFI 9bac4 .cfa: x29 96 +
STACK CFI 9bac8 .cfa: sp 96 +
STACK CFI 9bae0 .cfa: sp 0 +
STACK CFI 9bae4 .cfa: x29 96 +
STACK CFI 9bb04 .cfa: sp 96 +
STACK CFI INIT 9bb08 e4c .cfa: sp 0 +
STACK CFI 9bb0c .cfa: sp 192 +
STACK CFI 9bb28 .cfa: x29 96 + x19: .cfa -8 + ^ x20: .cfa -16 + ^ x21: .cfa -24 + ^ x22: .cfa -32 + ^ x23: .cfa -40 + ^ x24: .cfa -48 + ^ x25: .cfa -56 + ^ x26: .cfa -64 + ^ x27: .cfa -72 + ^ x28: .cfa -80 + ^ .ra: .cfa -88 + ^ x29: .cfa -96 + ^
STACK CFI 9c83c .cfa: sp 192 +
STACK CFI 9c858 .cfa: sp 0 +
STACK CFI 9c85c .cfa: x29 96 +
STACK CFI INIT 9c954 1068 .cfa: sp 0 +
STACK CFI 9c958 .cfa: sp 288 +
STACK CFI 9c974 .cfa: x29 96 + x19: .cfa -8 + ^ x20: .cfa -16 + ^ x21: .cfa -24 + ^ x22: .cfa -32 + ^ x23: .cfa -40 + ^ x24: .cfa -48 + ^ x25: .cfa -56 + ^ x26: .cfa -64 + ^ x27: .cfa -72 + ^ x28: .cfa -80 + ^ .ra: .cfa -88 + ^ x29: .cfa -96 + ^
STACK CFI 9d704 .cfa: sp 288 +
STACK CFI 9d720 .cfa: sp 0 +
STACK CFI 9d724 .cfa: x29 96 +
STACK CFI INIT 9d9bc 520 .cfa: sp 0 +
STACK CFI 9d9c0 .cfa: sp 144 +
STACK CFI 9d9dc .cfa: x29 96 + x19: .cfa -8 + ^ x20: .cfa -16 + ^ x21: .cfa -24 + ^ x22: .cfa -32 + ^ x23: .cfa -40 + ^ x24: .cfa -48 + ^ x25: .cfa -56 + ^ x26: .cfa -64 + ^ x27: .cfa -72 + ^ x28: .cfa -80 + ^ .ra: .cfa -88 + ^ x29: .cfa -96 + ^
STACK CFI 9deb8 .cfa: sp 144 +
STACK CFI 9ded4 .cfa: sp 0 +
STACK CFI 9ded8 .cfa: x29 96 +
STACK CFI INIT 9e928 12dc .cfa: sp 0 +
STACK CFI 9e92c .cfa: sp 208 +
STACK CFI 9e948 .cfa: x29 96 + x19: .cfa -8 + ^ x20: .cfa -16 + ^ x21: .cfa -24 + ^ x22: .cfa -32 + ^ x23: .cfa -40 + ^ x24: .cfa -48 + ^ x25: .cfa -56 + ^ x26: .cfa -64 + ^ x27: .cfa -72 + ^ x28: .cfa -80 + ^ .ra: .cfa -88 + ^ x29: .cfa -96 + ^
STACK CFI 9fbe0 .cfa: sp 208 +
STACK CFI 9fbfc .cfa: sp 0 +
STACK CFI 9fc00 .cfa: x29 96 +
STACK CFI INIT 9fc04 1b8 .cfa: sp 0 +
STACK CFI INIT 4e148 474 .cfa: sp 0 +
STACK CFI 4e14c .cfa: sp 224 +
STACK CFI 4e168 .cfa: x29 96 + x19: .cfa -8 + ^ x20: .cfa -16 + ^ x21: .cfa -24 + ^ x22: .cfa -32 + ^ x23: .cfa -40 + ^ x24: .cfa -48 + ^ x25: .cfa -56 + ^ x26: .cfa -64 + ^ x27: .cfa -72 + ^ x28: .cfa -80 + ^ .ra: .cfa -88 + ^ x29: .cfa -96 + ^
STACK CFI 4e3c8 .cfa: sp 224 +
STACK CFI 4e3e4 .cfa: sp 0 +
STACK CFI 4e3e8 .cfa: x29 96 +
STACK CFI 4e4b4 .cfa: sp 224 +
STACK CFI 4e4d0 .cfa: sp 0 +
STACK CFI 4e4d4 .cfa: x29 96 +
STACK CFI INIT 4e5d4 754 .cfa: sp 0 +
STACK CFI 4e5d8 .cfa: sp 224 +
STACK CFI 4e5f4 .cfa: x29 96 + x19: .cfa -8 + ^ x20: .cfa -16 + ^ x21: .cfa -24 + ^ x22: .cfa -32 + ^ x23: .cfa -40 + ^ x24: .cfa -48 + ^ x25: .cfa -56 + ^ x26: .cfa -64 + ^ x27: .cfa -72 + ^ x28: .cfa -80 + ^ .ra: .cfa -88 + ^ x29: .cfa -96 + ^
STACK CFI 4e75c .cfa: sp 224 +
STACK CFI 4e778 .cfa: sp 0 +
STACK CFI 4e77c .cfa: x29 96 +
STACK CFI 4ebbc .cfa: sp 224 +
STACK CFI 4ebd8 .cfa: sp 0 +
STACK CFI 4ebdc .cfa: x29 96 +
STACK CFI INIT 4ed40 474 .cfa: sp 0 +
STACK CFI 4ed44 .cfa: sp 224 +
STACK CFI 4ed60 .cfa: x29 96 + x19: .cfa -8 + ^ x20: .cfa -16 + ^ x21: .cfa -24 + ^ x22: .cfa -32 + ^ x23: .cfa -40 + ^ x24: .cfa -48 + ^ x25: .cfa -56 + ^ x26: .cfa -64 + ^ x27: .cfa -72 + ^ x28: .cfa -80 + ^ .ra: .cfa -88 + ^ x29: .cfa -96 + ^
STACK CFI 4efc0 .cfa: sp 224 +
STACK CFI 4efdc .cfa: sp 0 +
STACK CFI 4efe0 .cfa: x29 96 +
STACK CFI 4f0ac .cfa: sp 224 +
STACK CFI 4f0c8 .cfa: sp 0 +
STACK CFI 4f0cc .cfa: x29 96 +
STACK CFI INIT 4f228 450 .cfa: sp 0 +
STACK CFI 4f22c .cfa: sp 96 +
STACK CFI 4f244 .cfa: x29 80 + x19: .cfa -8 + ^ x20: .cfa -16 + ^ x21: .cfa -24 + ^ x22: .cfa -32 + ^ x23: .cfa -40 + ^ x24: .cfa -48 + ^ x25: .cfa -56 + ^ x26: .cfa -64 + ^ .ra: .cfa -72 + ^ x29: .cfa -80 + ^
STACK CFI 4f630 .cfa: sp 96 +
STACK CFI 4f648 .cfa: sp 0 +
STACK CFI 4f64c .cfa: x29 80 +
STACK CFI INIT 4feb4 474 .cfa: sp 0 +
STACK CFI 4feb8 .cfa: sp 112 +
STACK CFI 4fed0 .cfa: x29 80 + x19: .cfa -8 + ^ x20: .cfa -16 + ^ x21: .cfa -24 + ^ x22: .cfa -32 + ^ x23: .cfa -40 + ^ x24: .cfa -48 + ^ x25: .cfa -56 + ^ x26: .cfa -64 + ^ .ra: .cfa -72 + ^ x29: .cfa -80 + ^
STACK CFI 502e0 .cfa: sp 112 +
STACK CFI 502f8 .cfa: sp 0 +
STACK CFI 502fc .cfa: x29 80 +
STACK CFI INIT 505e4 50 .cfa: sp 0 +
STACK CFI 505e8 .cfa: sp 32 +
STACK CFI 505f0 .cfa: x29 32 + x19: .cfa -8 + ^ x20: .cfa -16 + ^ .ra: .cfa -24 + ^ x29: .cfa -32 + ^
STACK CFI INIT 50678 50 .cfa: sp 0 +
STACK CFI 5067c .cfa: sp 32 +
STACK CFI 50684 .cfa: x29 32 + x19: .cfa -8 + ^ x20: .cfa -16 + ^ .ra: .cfa -24 + ^ x29: .cfa -32 + ^
STACK CFI INIT 506f8 318 .cfa: sp 0 +
STACK CFI 506fc .cfa: sp 240 +
STACK CFI 50710 .cfa: x29 64 + x19: .cfa -8 + ^ x20: .cfa -16 + ^ x21: .cfa -24 + ^ x22: .cfa -32 + ^ x23: .cfa -48 + ^ .ra: .cfa -56 + ^ x29: .cfa -64 + ^
STACK CFI 508f8 .cfa: sp 240 +
STACK CFI 5090c .cfa: sp 0 +
STACK CFI 50910 .cfa: x29 64 +
STACK CFI INIT 50a60 74 .cfa: sp 0 +
STACK CFI 50a64 .cfa: sp 48 +
STACK CFI 50a70 .cfa: x29 32 + x19: .cfa -8 + ^ x20: .cfa -16 + ^ .ra: .cfa -24 + ^ x29: .cfa -32 + ^
STACK CFI 50abc .cfa: sp 48 +
STACK CFI 50ac8 .cfa: sp 0 +
STACK CFI 50acc .cfa: x29 32 +
STACK CFI INIT 50b54 154 .cfa: sp 0 +
STACK CFI 50b58 .cfa: sp 384 +
STACK CFI 50b6c .cfa: x29 64 + x19: .cfa -8 + ^ x20: .cfa -16 + ^ x21: .cfa -24 + ^ x22: .cfa -32 + ^ x23: .cfa -40 + ^ x28: .cfa -48 + ^ .ra: .cfa -56 + ^ x29: .cfa -64 + ^
STACK CFI 50c50 .cfa: sp 384 +
STACK CFI 50c64 .cfa: sp 0 +
STACK CFI 50c68 .cfa: x29 64 +
STACK CFI INIT 50cdc 134 .cfa: sp 0 +
STACK CFI 50ce0 .cfa: sp 80 +
STACK CFI 50cf4 .cfa: x29 80 + x19: .cfa -8 + ^ x20: .cfa -16 + ^ x21: .cfa -24 + ^ x22: .cfa -32 + ^ x23: .cfa -40 + ^ x24: .cfa -48 + ^ x25: .cfa -56 + ^ x26: .cfa -64 + ^ .ra: .cfa -72 + ^ x29: .cfa -80 + ^
STACK CFI 50dc4 .cfa: sp 80 +
STACK CFI 50dd8 .cfa: sp 0 +
STACK CFI 50ddc .cfa: x29 80 +
STACK CFI INIT 50eb4 1a4 .cfa: sp 0 +
STACK CFI 50eb8 .cfa: sp 112 +
STACK CFI 50ed0 .cfa: x29 80 + x19: .cfa -8 + ^ x20: .cfa -16 + ^ x21: .cfa -24 + ^ x22: .cfa -32 + ^ x23: .cfa -40 + ^ x24: .cfa -48 + ^ x25: .cfa -56 + ^ x26: .cfa -64 + ^ .ra: .cfa -72 + ^ x29: .cfa -80 + ^
STACK CFI 50fc0 .cfa: sp 112 +
STACK CFI 50fd8 .cfa: sp 0 +
STACK CFI 50fdc .cfa: x29 80 +
STACK CFI INIT 51058 1ec .cfa: sp 0 +
STACK CFI 5105c .cfa: sp 128 +
STACK CFI 51078 .cfa: x29 96 + x19: .cfa -8 + ^ x20: .cfa -16 + ^ x21: .cfa -24 + ^ x22: .cfa -32 + ^ x23: .cfa -40 + ^ x24: .cfa -48 + ^ x25: .cfa -56 + ^ x26: .cfa -64 + ^ x27: .cfa -80 + ^ .ra: .cfa -88 + ^ x29: .cfa -96 + ^
STACK CFI 511f4 .cfa: sp 128 +
STACK CFI 51210 .cfa: sp 0 +
STACK CFI 51214 .cfa: x29 96 +
STACK CFI INIT 51244 170 .cfa: sp 0 +
STACK CFI 51248 .cfa: sp 48 +
STACK CFI 51254 .cfa: x29 48 + x19: .cfa -8 + ^ x20: .cfa -16 + ^ x21: .cfa -32 + ^ .ra: .cfa -40 + ^ x29: .cfa -48 + ^
STACK CFI 51388 .cfa: sp 48 +
STACK CFI 51394 .cfa: sp 0 +
STACK CFI 51398 .cfa: x29 48 +
STACK CFI INIT 51584 1b0 .cfa: sp 0 +
STACK CFI 51588 .cfa: sp 128 +
STACK CFI 515a0 .cfa: x29 80 + x19: .cfa -8 + ^ x20: .cfa -16 + ^ x21: .cfa -24 + ^ x22: .cfa -32 + ^ x23: .cfa -40 + ^ x24: .cfa -48 + ^ x25: .cfa -64 + ^ .ra: .cfa -72 + ^ x29: .cfa -80 + ^
STACK CFI 516c4 .cfa: sp 128 +
STACK CFI 516dc .cfa: sp 0 +
STACK CFI 516e0 .cfa: x29 80 +
STACK CFI INIT 52314 360 .cfa: sp 0 +
STACK CFI 52318 .cfa: sp 256 +
STACK CFI 5232c .cfa: x29 64 + x19: .cfa -8 + ^ x20: .cfa -16 + ^ x21: .cfa -24 + ^ x22: .cfa -32 + ^ x23: .cfa -48 + ^ .ra: .cfa -56 + ^ x29: .cfa -64 + ^
STACK CFI 52548 .cfa: sp 256 +
STACK CFI 5255c .cfa: sp 0 +
STACK CFI 52560 .cfa: x29 64 +
STACK CFI INIT 52678 168 .cfa: sp 0 +
STACK CFI 5267c .cfa: sp 384 +
STACK CFI 52690 .cfa: x29 64 + x19: .cfa -8 + ^ x20: .cfa -16 + ^ x21: .cfa -24 + ^ x22: .cfa -32 + ^ x23: .cfa -40 + ^ x28: .cfa -48 + ^ .ra: .cfa -56 + ^ x29: .cfa -64 + ^
STACK CFI 52788 .cfa: sp 384 +
STACK CFI 5279c .cfa: sp 0 +
STACK CFI 527a0 .cfa: x29 64 +
STACK CFI INIT 527f8 698 .cfa: sp 0 +
STACK CFI 527fc .cfa: sp 208 +
STACK CFI 5281c .cfa: x29 96 + x19: .cfa -8 + ^ x20: .cfa -16 + ^ x21: .cfa -24 + ^ x22: .cfa -32 + ^ x23: .cfa -40 + ^ x24: .cfa -48 + ^ x25: .cfa -56 + ^ x26: .cfa -64 + ^ x27: .cfa -72 + ^ x28: .cfa -80 + ^ .ra: .cfa -88 + ^ x29: .cfa -96 + ^ v8: .cfa -104 + ^ v9: .cfa -112 + ^
STACK CFI 52dd4 .cfa: sp 208 +
STACK CFI 52df4 .cfa: sp 0 +
STACK CFI 52df8 .cfa: x29 96 +
STACK CFI INIT 52e90 404 .cfa: sp 0 +
STACK CFI 52e94 .cfa: sp 256 +
STACK CFI 52ea8 .cfa: x29 64 + x19: .cfa -8 + ^ x20: .cfa -16 + ^ x21: .cfa -24 + ^ x22: .cfa -32 + ^ x23: .cfa -40 + ^ x24: .cfa -48 + ^ .ra: .cfa -56 + ^ x29: .cfa -64 + ^
STACK CFI 53148 .cfa: sp 256 +
STACK CFI 5315c .cfa: sp 0 +
STACK CFI 53160 .cfa: x29 64 +
STACK CFI INIT 53298 2a4 .cfa: sp 0 +
STACK CFI 5329c .cfa: sp 192 +
STACK CFI 532b0 .cfa: x29 64 + x19: .cfa -8 + ^ x20: .cfa -16 + ^ x21: .cfa -24 + ^ x22: .cfa -32 + ^ x23: .cfa -40 + ^ x24: .cfa -48 + ^ .ra: .cfa -56 + ^ x29: .cfa -64 + ^
STACK CFI 5347c .cfa: sp 192 +
STACK CFI 53490 .cfa: sp 0 +
STACK CFI 53494 .cfa: x29 64 +
STACK CFI INIT 5353c 138 .cfa: sp 0 +
STACK CFI 53540 .cfa: sp 112 +
STACK CFI 53550 .cfa: x29 48 + x19: .cfa -8 + ^ x20: .cfa -16 + ^ x21: .cfa -32 + ^ .ra: .cfa -40 + ^ x29: .cfa -48 + ^
STACK CFI 5360c .cfa: sp 112 +
STACK CFI 5361c .cfa: sp 0 +
STACK CFI 53620 .cfa: x29 48 +
STACK CFI INIT 53674 194 .cfa: sp 0 +
STACK CFI 53678 .cfa: sp 144 +
STACK CFI 53688 .cfa: x29 48 + x19: .cfa -8 + ^ x20: .cfa -16 + ^ x21: .cfa -24 + ^ x22: .cfa -32 + ^ .ra: .cfa -40 + ^ x29: .cfa -48 + ^
STACK CFI 53788 .cfa: sp 144 +
STACK CFI 53798 .cfa: sp 0 +
STACK CFI 5379c .cfa: x29 48 +
STACK CFI INIT 53808 1c8 .cfa: sp 0 +
STACK CFI 5380c .cfa: sp 112 +
STACK CFI 5381c .cfa: x29 48 + x19: .cfa -8 + ^ x20: .cfa -16 + ^ x21: .cfa -24 + ^ x22: .cfa -32 + ^ .ra: .cfa -40 + ^ x29: .cfa -48 + ^
STACK CFI 53970 .cfa: sp 112 +
STACK CFI 53980 .cfa: sp 0 +
STACK CFI 53984 .cfa: x29 48 +
STACK CFI INIT 53c00 274 .cfa: sp 0 +
STACK CFI 53c04 .cfa: sp 64 +
STACK CFI 53c14 .cfa: x29 64 + x19: .cfa -8 + ^ x20: .cfa -16 + ^ x21: .cfa -24 + ^ x22: .cfa -32 + ^ x23: .cfa -40 + ^ x28: .cfa -48 + ^ .ra: .cfa -56 + ^ x29: .cfa -64 + ^
STACK CFI 53e20 .cfa: sp 64 +
STACK CFI 53e30 .cfa: sp 0 +
STACK CFI 53e34 .cfa: x29 64 +
STACK CFI INIT 54040 2d0c .cfa: sp 0 +
STACK CFI 54044 .cfa: sp 160 +
STACK CFI 5406c .cfa: x29 96 + x19: .cfa -8 + ^ x20: .cfa -16 + ^ x21: .cfa -24 + ^ x22: .cfa -32 + ^ x23: .cfa -40 + ^ x24: .cfa -48 + ^ x25: .cfa -56 + ^ x26: .cfa -64 + ^ x27: .cfa -72 + ^ x28: .cfa -80 + ^ .ra: .cfa -88 + ^ x29: .cfa -96 + ^ v8: .cfa -104 + ^ v9: .cfa -112 + ^ v10: .cfa -120 + ^ v11: .cfa -128 + ^ v12: .cfa -136 + ^ v13: .cfa -144 + ^ v14: .cfa -160 + ^
STACK CFI 56764 .cfa: sp 160 +
STACK CFI 5678c .cfa: sp 0 +
STACK CFI 56790 .cfa: x29 96 +
STACK CFI INIT 56d4c 158 .cfa: sp 0 +
STACK CFI 56d50 .cfa: sp 80 +
STACK CFI 56d64 .cfa: x29 80 + x19: .cfa -8 + ^ x20: .cfa -16 + ^ x21: .cfa -24 + ^ x22: .cfa -32 + ^ x23: .cfa -40 + ^ x24: .cfa -48 + ^ x25: .cfa -64 + ^ .ra: .cfa -72 + ^ x29: .cfa -80 + ^
STACK CFI 56e38 .cfa: sp 80 +
STACK CFI 56e4c .cfa: sp 0 +
STACK CFI 56e50 .cfa: x29 80 +
STACK CFI INIT 56ea4 258 .cfa: sp 0 +
STACK CFI 56ea8 .cfa: sp 112 +
STACK CFI 56ec0 .cfa: x29 80 + x19: .cfa -8 + ^ x20: .cfa -16 + ^ x21: .cfa -24 + ^ x22: .cfa -32 + ^ x23: .cfa -40 + ^ x24: .cfa -48 + ^ x25: .cfa -64 + ^ .ra: .cfa -72 + ^ x29: .cfa -80 + ^
STACK CFI 57048 .cfa: sp 112 +
STACK CFI 57060 .cfa: sp 0 +
STACK CFI 57064 .cfa: x29 80 +
STACK CFI INIT 570fc 74 .cfa: sp 0 +
STACK CFI 57100 .cfa: sp 48 +
STACK CFI 5710c .cfa: x29 32 + x19: .cfa -8 + ^ x20: .cfa -16 + ^ .ra: .cfa -24 + ^ x29: .cfa -32 + ^
STACK CFI 57158 .cfa: sp 48 +
STACK CFI 57164 .cfa: sp 0 +
STACK CFI 57168 .cfa: x29 32 +
STACK CFI INIT 571ec 144 .cfa: sp 0 +
STACK CFI 571f0 .cfa: sp 64 +
STACK CFI 57200 .cfa: x29 48 + x19: .cfa -8 + ^ x20: .cfa -16 + ^ x21: .cfa -32 + ^ .ra: .cfa -40 + ^ x29: .cfa -48 + ^
STACK CFI 572a0 .cfa: sp 64 +
STACK CFI 572b0 .cfa: sp 0 +
STACK CFI 572b4 .cfa: x29 48 +
STACK CFI INIT 57330 16c .cfa: sp 0 +
STACK CFI 57334 .cfa: sp 112 +
STACK CFI 57348 .cfa: x29 40 + x19: .cfa -8 + ^ x20: .cfa -16 + ^ x21: .cfa -24 + ^ .ra: .cfa -32 + ^ x29: .cfa -40 + ^ v8: .cfa -48 + ^
STACK CFI 5747c .cfa: sp 112 +
STACK CFI 57490 .cfa: sp 0 +
STACK CFI 57494 .cfa: x29 40 +
STACK CFI INIT 5749c 35c .cfa: sp 0 +
STACK CFI 574a0 .cfa: sp 96 +
STACK CFI 574ac .cfa: x29 32 + x19: .cfa -8 + ^ x20: .cfa -16 + ^ .ra: .cfa -24 + ^ x29: .cfa -32 + ^
STACK CFI 577d4 .cfa: sp 96 +
STACK CFI 577e0 .cfa: sp 0 +
STACK CFI 577e4 .cfa: x29 32 +
STACK CFI INIT 578d4 144 .cfa: sp 0 +
STACK CFI 578d8 .cfa: sp 64 +
STACK CFI 578e8 .cfa: x29 64 + x19: .cfa -8 + ^ x20: .cfa -16 + ^ x21: .cfa -24 + ^ x22: .cfa -32 + ^ x23: .cfa -48 + ^ .ra: .cfa -56 + ^ x29: .cfa -64 + ^
STACK CFI 579c4 .cfa: sp 64 +
STACK CFI 579d4 .cfa: sp 0 +
STACK CFI 579d8 .cfa: x29 64 +
STACK CFI 579f0 .cfa: sp 64 +
STACK CFI 57a00 .cfa: sp 0 +
STACK CFI 57a04 .cfa: x29 64 +
STACK CFI INIT 57a18 f14 .cfa: sp 0 +
STACK CFI 57a1c .cfa: sp 400 +
STACK CFI 57a3c .cfa: x29 96 + x19: .cfa -8 + ^ x20: .cfa -16 + ^ x21: .cfa -24 + ^ x22: .cfa -32 + ^ x23: .cfa -40 + ^ x24: .cfa -48 + ^ x25: .cfa -56 + ^ x26: .cfa -64 + ^ x27: .cfa -72 + ^ x28: .cfa -80 + ^ .ra: .cfa -88 + ^ x29: .cfa -96 + ^ v8: .cfa -112 + ^
STACK CFI 580e0 .cfa: sp 400 +
STACK CFI 58100 .cfa: sp 0 +
STACK CFI 58104 .cfa: x29 96 +
STACK CFI INIT 5892c 14c .cfa: sp 0 +
STACK CFI 58930 .cfa: sp 80 +
STACK CFI 58944 .cfa: x29 64 + x19: .cfa -8 + ^ x20: .cfa -16 + ^ x21: .cfa -24 + ^ x22: .cfa -32 + ^ x23: .cfa -48 + ^ .ra: .cfa -56 + ^ x29: .cfa -64 + ^ v8: .cfa -72 + ^ v9: .cfa -80 + ^
STACK CFI 58a4c .cfa: sp 80 +
STACK CFI 58a60 .cfa: sp 0 +
STACK CFI 58a64 .cfa: x29 64 +
STACK CFI INIT 58b54 2850 .cfa: sp 0 +
STACK CFI 58b58 .cfa: sp 160 +
STACK CFI 58b80 .cfa: x29 96 + x19: .cfa -8 + ^ x20: .cfa -16 + ^ x21: .cfa -24 + ^ x22: .cfa -32 + ^ x23: .cfa -40 + ^ x24: .cfa -48 + ^ x25: .cfa -56 + ^ x26: .cfa -64 + ^ x27: .cfa -72 + ^ x28: .cfa -80 + ^ .ra: .cfa -88 + ^ x29: .cfa -96 + ^ v8: .cfa -104 + ^ v9: .cfa -112 + ^ v10: .cfa -120 + ^ v11: .cfa -128 + ^ v12: .cfa -136 + ^ v13: .cfa -144 + ^ v14: .cfa -152 + ^ v15: .cfa -160 + ^
STACK CFI 5ab9c .cfa: sp 160 +
STACK CFI 5abc4 .cfa: sp 0 +
STACK CFI 5abc8 .cfa: x29 96 +
STACK CFI INIT 5b3a4 164 .cfa: sp 0 +
STACK CFI 5b3a8 .cfa: sp 80 +
STACK CFI 5b3b8 .cfa: x29 48 + x19: .cfa -8 + ^ x20: .cfa -16 + ^ x21: .cfa -24 + ^ x22: .cfa -32 + ^ .ra: .cfa -40 + ^ x29: .cfa -48 + ^
STACK CFI 5b4c4 .cfa: sp 80 +
STACK CFI 5b4d4 .cfa: sp 0 +
STACK CFI 5b4d8 .cfa: x29 48 +
STACK CFI INIT 5b6b0 a80 .cfa: sp 0 +
STACK CFI 5b6b4 .cfa: sp 224 +
STACK CFI 5b6dc .cfa: x29 96 + x19: .cfa -8 + ^ x20: .cfa -16 + ^ x21: .cfa -24 + ^ x22: .cfa -32 + ^ x23: .cfa -40 + ^ x24: .cfa -48 + ^ x25: .cfa -56 + ^ x26: .cfa -64 + ^ x27: .cfa -72 + ^ x28: .cfa -80 + ^ .ra: .cfa -88 + ^ x29: .cfa -96 + ^ v8: .cfa -104 + ^ v9: .cfa -112 + ^ v10: .cfa -120 + ^ v11: .cfa -128 + ^ v12: .cfa -144 + ^
STACK CFI 5c07c .cfa: sp 224 +
STACK CFI 5c0a4 .cfa: sp 0 +
STACK CFI 5c0a8 .cfa: x29 96 +
STACK CFI INIT 5d510 224 .cfa: sp 0 +
STACK CFI 5d514 .cfa: sp 64 +
STACK CFI 5d524 .cfa: x29 48 + x19: .cfa -8 + ^ x20: .cfa -16 + ^ x21: .cfa -32 + ^ .ra: .cfa -40 + ^ x29: .cfa -48 + ^
STACK CFI 5d718 .cfa: sp 64 +
STACK CFI 5d728 .cfa: sp 0 +
STACK CFI 5d72c .cfa: x29 48 +
STACK CFI INIT 5d734 e8 .cfa: sp 0 +
STACK CFI 5d738 .cfa: sp 48 +
STACK CFI 5d748 .cfa: x29 40 + x19: .cfa -8 + ^ x20: .cfa -16 + ^ x21: .cfa -24 + ^ .ra: .cfa -32 + ^ x29: .cfa -40 + ^ v8: .cfa -48 + ^
STACK CFI 5d7c8 .cfa: sp 48 +
STACK CFI 5d7d8 .cfa: sp 0 +
STACK CFI 5d7dc .cfa: x29 40 +
STACK CFI 5d7f4 .cfa: sp 48 +
STACK CFI 5d804 .cfa: sp 0 +
STACK CFI 5d808 .cfa: x29 40 +
STACK CFI INIT 5d81c 290 .cfa: sp 0 +
STACK CFI 5d820 .cfa: sp 208 +
STACK CFI 5d840 .cfa: x29 96 + x19: .cfa -8 + ^ x20: .cfa -16 + ^ x21: .cfa -24 + ^ x22: .cfa -32 + ^ x23: .cfa -40 + ^ x24: .cfa -48 + ^ x25: .cfa -56 + ^ x26: .cfa -64 + ^ x27: .cfa -72 + ^ x28: .cfa -80 + ^ .ra: .cfa -88 + ^ x29: .cfa -96 + ^ v8: .cfa -112 + ^
STACK CFI 5da24 .cfa: sp 208 +
STACK CFI 5da44 .cfa: sp 0 +
STACK CFI 5da48 .cfa: x29 96 +
STACK CFI INIT 5dc24 25c .cfa: sp 0 +
STACK CFI 5dc28 .cfa: sp 176 +
STACK CFI 5dc38 .cfa: x29 48 + x19: .cfa -8 + ^ x20: .cfa -16 + ^ x21: .cfa -24 + ^ x22: .cfa -32 + ^ .ra: .cfa -40 + ^ x29: .cfa -48 + ^
STACK CFI 5dd98 .cfa: sp 176 +
STACK CFI 5dda8 .cfa: sp 0 +
STACK CFI 5ddac .cfa: x29 48 +
STACK CFI INIT 5dfd0 194 .cfa: sp 0 +
STACK CFI 5dfd4 .cfa: sp 80 +
STACK CFI 5dfe4 .cfa: x29 48 + x19: .cfa -8 + ^ x20: .cfa -16 + ^ x21: .cfa -32 + ^ .ra: .cfa -40 + ^ x29: .cfa -48 + ^
STACK CFI 5e124 .cfa: sp 80 +
STACK CFI 5e134 .cfa: sp 0 +
STACK CFI 5e138 .cfa: x29 48 +
STACK CFI INIT 5e164 6c .cfa: sp 0 +
STACK CFI 5e168 .cfa: sp 32 +
STACK CFI 5e170 .cfa: x29 32 + x19: .cfa -16 + ^ .ra: .cfa -24 + ^ x29: .cfa -32 + ^
STACK CFI 5e1c0 .cfa: sp 32 +
STACK CFI 5e1c8 .cfa: sp 0 +
STACK CFI 5e1cc .cfa: x29 32 +
STACK CFI INIT 5e1d0 790 .cfa: sp 0 +
STACK CFI 5e1d4 .cfa: sp 192 +
STACK CFI 5e1f0 .cfa: x29 72 + x19: .cfa -8 + ^ x20: .cfa -16 + ^ x21: .cfa -24 + ^ x22: .cfa -32 + ^ x23: .cfa -40 + ^ x24: .cfa -48 + ^ x25: .cfa -56 + ^ .ra: .cfa -64 + ^ x29: .cfa -72 + ^ v8: .cfa -80 + ^
STACK CFI 5e8b8 .cfa: sp 192 +
STACK CFI 5e8d4 .cfa: sp 0 +
STACK CFI 5e8d8 .cfa: x29 72 +
STACK CFI INIT 5e960 1914 .cfa: sp 0 +
STACK CFI 5e964 .cfa: sp 160 +
STACK CFI 5e98c .cfa: x29 96 + x19: .cfa -8 + ^ x20: .cfa -16 + ^ x21: .cfa -24 + ^ x22: .cfa -32 + ^ x23: .cfa -40 + ^ x24: .cfa -48 + ^ x25: .cfa -56 + ^ x26: .cfa -64 + ^ x27: .cfa -72 + ^ x28: .cfa -80 + ^ .ra: .cfa -88 + ^ x29: .cfa -96 + ^ v8: .cfa -104 + ^ v9: .cfa -112 + ^ v10: .cfa -120 + ^ v11: .cfa -128 + ^ v12: .cfa -136 + ^ v13: .cfa -144 + ^ v14: .cfa -152 + ^ v15: .cfa -160 + ^
STACK CFI 5fef0 .cfa: sp 160 +
STACK CFI 5ff18 .cfa: sp 0 +
STACK CFI 5ff1c .cfa: x29 96 +
STACK CFI INIT 60274 4e0 .cfa: sp 0 +
STACK CFI 60278 .cfa: sp 128 +
STACK CFI 6028c .cfa: x29 64 + x19: .cfa -8 + ^ x20: .cfa -16 + ^ x21: .cfa -24 + ^ x22: .cfa -32 + ^ x23: .cfa -48 + ^ .ra: .cfa -56 + ^ x29: .cfa -64 + ^
STACK CFI 6067c .cfa: sp 128 +
STACK CFI 60690 .cfa: sp 0 +
STACK CFI 60694 .cfa: x29 64 +
STACK CFI INIT 60754 1c .cfa: sp 0 +
STACK CFI 60758 .cfa: sp 16 +
STACK CFI 6075c .cfa: x29 16 + .ra: .cfa -8 + ^ x29: .cfa -16 + ^
STACK CFI 60764 .cfa: sp 16 +
STACK CFI 60768 .cfa: sp 0 +
STACK CFI 6076c .cfa: x29 16 +
STACK CFI INIT 60770 19c .cfa: sp 0 +
STACK CFI 60774 .cfa: sp 240 +
STACK CFI 60784 .cfa: x29 48 + x19: .cfa -8 + ^ x20: .cfa -16 + ^ x21: .cfa -24 + ^ x22: .cfa -32 + ^ .ra: .cfa -40 + ^ x29: .cfa -48 + ^
STACK CFI 60894 .cfa: sp 240 +
STACK CFI 608a4 .cfa: sp 0 +
STACK CFI 608a8 .cfa: x29 48 +
STACK CFI INIT 609dc 280 .cfa: sp 0 +
STACK CFI 609e0 .cfa: sp 192 +
STACK CFI 609f0 .cfa: x29 48 + x19: .cfa -8 + ^ x20: .cfa -16 + ^ x21: .cfa -32 + ^ .ra: .cfa -40 + ^ x29: .cfa -48 + ^
STACK CFI 60bcc .cfa: sp 192 +
STACK CFI 60bdc .cfa: sp 0 +
STACK CFI 60be0 .cfa: x29 48 +
STACK CFI INIT 60c5c 320 .cfa: sp 0 +
STACK CFI 60c60 .cfa: sp 192 +
STACK CFI 60c74 .cfa: x29 64 + x19: .cfa -8 + ^ x20: .cfa -16 + ^ x21: .cfa -24 + ^ x22: .cfa -32 + ^ x23: .cfa -48 + ^ .ra: .cfa -56 + ^ x29: .cfa -64 + ^
STACK CFI 60ed8 .cfa: sp 192 +
STACK CFI 60eec .cfa: sp 0 +
STACK CFI 60ef0 .cfa: x29 64 +
STACK CFI INIT 60ff8 144 .cfa: sp 0 +
STACK CFI 60ffc .cfa: sp 80 +
STACK CFI 61010 .cfa: x29 48 + x19: .cfa -8 + ^ x20: .cfa -16 + ^ x21: .cfa -24 + ^ x22: .cfa -32 + ^ .ra: .cfa -40 + ^ x29: .cfa -48 + ^ v8: .cfa -56 + ^ v9: .cfa -64 + ^ v10: .cfa -80 + ^
STACK CFI 610f8 .cfa: sp 80 +
STACK CFI 6110c .cfa: sp 0 +
STACK CFI 61110 .cfa: x29 48 +
STACK CFI INIT 61458 74 .cfa: sp 0 +
STACK CFI 6145c .cfa: sp 32 +
STACK CFI 61464 .cfa: x29 32 + x19: .cfa -16 + ^ .ra: .cfa -24 + ^ x29: .cfa -32 + ^
STACK CFI 614bc .cfa: sp 32 +
STACK CFI 614c4 .cfa: sp 0 +
STACK CFI 614c8 .cfa: x29 32 +
STACK CFI INIT 6152c 134 .cfa: sp 0 +
STACK CFI 61530 .cfa: sp 96 +
STACK CFI 61540 .cfa: x29 48 + x19: .cfa -8 + ^ x20: .cfa -16 + ^ x21: .cfa -32 + ^ .ra: .cfa -40 + ^ x29: .cfa -48 + ^
STACK CFI 61614 .cfa: sp 96 +
STACK CFI 61624 .cfa: sp 0 +
STACK CFI 61628 .cfa: x29 48 +
STACK CFI INIT 61660 6c .cfa: sp 0 +
STACK CFI 61664 .cfa: sp 32 +
STACK CFI 6166c .cfa: x29 32 + x19: .cfa -16 + ^ .ra: .cfa -24 + ^ x29: .cfa -32 + ^
STACK CFI 616bc .cfa: sp 32 +
STACK CFI 616c4 .cfa: sp 0 +
STACK CFI 616c8 .cfa: x29 32 +
STACK CFI INIT 616cc 74 .cfa: sp 0 +
STACK CFI 616d0 .cfa: sp 32 +
STACK CFI 616d8 .cfa: x29 32 + x19: .cfa -16 + ^ .ra: .cfa -24 + ^ x29: .cfa -32 + ^
STACK CFI 61730 .cfa: sp 32 +
STACK CFI 61738 .cfa: sp 0 +
STACK CFI 6173c .cfa: x29 32 +
STACK CFI INIT 6178c 6c .cfa: sp 0 +
STACK CFI 61790 .cfa: sp 32 +
STACK CFI 61798 .cfa: x29 32 + x19: .cfa -16 + ^ .ra: .cfa -24 + ^ x29: .cfa -32 + ^
STACK CFI 617e8 .cfa: sp 32 +
STACK CFI 617f0 .cfa: sp 0 +
STACK CFI 617f4 .cfa: x29 32 +
STACK CFI INIT 617fc 30 .cfa: sp 0 +
STACK CFI 61800 .cfa: sp 32 +
STACK CFI 61808 .cfa: x29 32 + x19: .cfa -16 + ^ .ra: .cfa -24 + ^ x29: .cfa -32 + ^
STACK CFI 6181c .cfa: sp 32 +
STACK CFI 61824 .cfa: sp 0 +
STACK CFI 61828 .cfa: x29 32 +
STACK CFI INIT 6182c 38 .cfa: sp 0 +
STACK CFI 61830 .cfa: sp 32 +
STACK CFI 61838 .cfa: x29 32 + x19: .cfa -16 + ^ .ra: .cfa -24 + ^ x29: .cfa -32 + ^
STACK CFI 61854 .cfa: sp 32 +
STACK CFI 6185c .cfa: sp 0 +
STACK CFI 61860 .cfa: x29 32 +
STACK CFI INIT 61a1c 3f90 .cfa: sp 0 +
STACK CFI 61a20 .cfa: sp 224 +
STACK CFI 61a3c .cfa: x29 96 + x19: .cfa -8 + ^ x20: .cfa -16 + ^ x21: .cfa -24 + ^ x22: .cfa -32 + ^ x23: .cfa -40 + ^ x24: .cfa -48 + ^ x25: .cfa -56 + ^ x26: .cfa -64 + ^ x27: .cfa -72 + ^ x28: .cfa -80 + ^ .ra: .cfa -88 + ^ x29: .cfa -96 + ^
STACK CFI 652a8 .cfa: sp 224 +
STACK CFI 652c4 .cfa: sp 0 +
STACK CFI 652c8 .cfa: x29 96 +
STACK CFI 652e0 .cfa: sp 224 +
STACK CFI 652fc .cfa: sp 0 +
STACK CFI 65300 .cfa: x29 96 +
STACK CFI INIT 65b34 16c .cfa: sp 0 +
STACK CFI 65b38 .cfa: sp 144 +
STACK CFI 65b4c .cfa: x29 64 + x19: .cfa -8 + ^ x20: .cfa -16 + ^ x21: .cfa -24 + ^ x22: .cfa -32 + ^ x23: .cfa -40 + ^ x24: .cfa -48 + ^ .ra: .cfa -56 + ^ x29: .cfa -64 + ^
STACK CFI 65c34 .cfa: sp 144 +
STACK CFI 65c48 .cfa: sp 0 +
STACK CFI 65c4c .cfa: x29 64 +
STACK CFI INIT 65f5c 62d0 .cfa: sp 0 +
STACK CFI 65f60 .cfa: sp 320 +
STACK CFI 65f7c .cfa: x29 96 + x19: .cfa -8 + ^ x20: .cfa -16 + ^ x21: .cfa -24 + ^ x22: .cfa -32 + ^ x23: .cfa -40 + ^ x24: .cfa -48 + ^ x25: .cfa -56 + ^ x26: .cfa -64 + ^ x27: .cfa -72 + ^ x28: .cfa -80 + ^ .ra: .cfa -88 + ^ x29: .cfa -96 + ^
STACK CFI 6b138 .cfa: sp 320 +
STACK CFI 6b154 .cfa: sp 0 +
STACK CFI 6b158 .cfa: x29 96 +
STACK CFI INIT 6c22c 4ce4 .cfa: sp 0 +
STACK CFI 6c230 .cfa: sp 240 +
STACK CFI 6c24c .cfa: x29 96 + x19: .cfa -8 + ^ x20: .cfa -16 + ^ x21: .cfa -24 + ^ x22: .cfa -32 + ^ x23: .cfa -40 + ^ x24: .cfa -48 + ^ x25: .cfa -56 + ^ x26: .cfa -64 + ^ x27: .cfa -72 + ^ x28: .cfa -80 + ^ .ra: .cfa -88 + ^ x29: .cfa -96 + ^
STACK CFI 702d4 .cfa: sp 240 +
STACK CFI 702f0 .cfa: sp 0 +
STACK CFI 702f4 .cfa: x29 96 +
STACK CFI INIT 73254 164 .cfa: sp 0 +
STACK CFI 73258 .cfa: sp 112 +
STACK CFI 73268 .cfa: x29 48 + x19: .cfa -8 + ^ x20: .cfa -16 + ^ x21: .cfa -24 + ^ x22: .cfa -32 + ^ .ra: .cfa -40 + ^ x29: .cfa -48 + ^
STACK CFI 73354 .cfa: sp 112 +
STACK CFI 73364 .cfa: sp 0 +
STACK CFI 73368 .cfa: x29 48 +
STACK CFI INIT 7392c 74 .cfa: sp 0 +
STACK CFI 73930 .cfa: sp 48 +
STACK CFI 7393c .cfa: x29 32 + x19: .cfa -8 + ^ x20: .cfa -16 + ^ .ra: .cfa -24 + ^ x29: .cfa -32 + ^
STACK CFI 73988 .cfa: sp 48 +
STACK CFI 73994 .cfa: sp 0 +
STACK CFI 73998 .cfa: x29 32 +
STACK CFI INIT 739a0 74 .cfa: sp 0 +
STACK CFI 739a4 .cfa: sp 48 +
STACK CFI 739b0 .cfa: x29 32 + x19: .cfa -8 + ^ x20: .cfa -16 + ^ .ra: .cfa -24 + ^ x29: .cfa -32 + ^
STACK CFI 739fc .cfa: sp 48 +
STACK CFI 73a08 .cfa: sp 0 +
STACK CFI 73a0c .cfa: x29 32 +
STACK CFI INIT 73a14 650 .cfa: sp 0 +
STACK CFI 73a18 .cfa: sp 336 +
STACK CFI 73a34 .cfa: x29 96 + x19: .cfa -8 + ^ x20: .cfa -16 + ^ x21: .cfa -24 + ^ x22: .cfa -32 + ^ x23: .cfa -40 + ^ x24: .cfa -48 + ^ x25: .cfa -56 + ^ x26: .cfa -64 + ^ x27: .cfa -72 + ^ x28: .cfa -80 + ^ .ra: .cfa -88 + ^ x29: .cfa -96 + ^
STACK CFI 73e94 .cfa: sp 336 +
STACK CFI 73eb0 .cfa: sp 0 +
STACK CFI 73eb4 .cfa: x29 96 +
STACK CFI INIT 74064 74 .cfa: sp 0 +
STACK CFI 74068 .cfa: sp 48 +
STACK CFI 74074 .cfa: x29 32 + x19: .cfa -8 + ^ x20: .cfa -16 + ^ .ra: .cfa -24 + ^ x29: .cfa -32 + ^
STACK CFI 740c0 .cfa: sp 48 +
STACK CFI 740cc .cfa: sp 0 +
STACK CFI 740d0 .cfa: x29 32 +
STACK CFI INIT 74158 45c .cfa: sp 0 +
STACK CFI 7415c .cfa: sp 144 +
STACK CFI 74178 .cfa: x29 96 + x19: .cfa -8 + ^ x20: .cfa -16 + ^ x21: .cfa -24 + ^ x22: .cfa -32 + ^ x23: .cfa -40 + ^ x24: .cfa -48 + ^ x25: .cfa -56 + ^ x26: .cfa -64 + ^ x27: .cfa -72 + ^ x28: .cfa -80 + ^ .ra: .cfa -88 + ^ x29: .cfa -96 + ^
STACK CFI 74568 .cfa: sp 144 +
STACK CFI 74584 .cfa: sp 0 +
STACK CFI 74588 .cfa: x29 96 +
STACK CFI INIT 74618 11c .cfa: sp 0 +
STACK CFI 7461c .cfa: sp 96 +
STACK CFI 74634 .cfa: x29 80 + x19: .cfa -8 + ^ x20: .cfa -16 + ^ x21: .cfa -24 + ^ x22: .cfa -32 + ^ x23: .cfa -40 + ^ x24: .cfa -48 + ^ x25: .cfa -64 + ^ .ra: .cfa -72 + ^ x29: .cfa -80 + ^
STACK CFI 74668 .cfa: sp 96 +
STACK CFI 74680 .cfa: sp 0 +
STACK CFI 74684 .cfa: x29 80 +
STACK CFI INIT 74734 74 .cfa: sp 0 +
STACK CFI 74738 .cfa: sp 48 +
STACK CFI 74744 .cfa: x29 32 + x19: .cfa -8 + ^ x20: .cfa -16 + ^ .ra: .cfa -24 + ^ x29: .cfa -32 + ^
STACK CFI 74790 .cfa: sp 48 +
STACK CFI 7479c .cfa: sp 0 +
STACK CFI 747a0 .cfa: x29 32 +
STACK CFI INIT 747a8 4e8 .cfa: sp 0 +
STACK CFI 747ac .cfa: sp 208 +
STACK CFI 747c8 .cfa: x29 96 + x19: .cfa -8 + ^ x20: .cfa -16 + ^ x21: .cfa -24 + ^ x22: .cfa -32 + ^ x23: .cfa -40 + ^ x24: .cfa -48 + ^ x25: .cfa -56 + ^ x26: .cfa -64 + ^ x27: .cfa -72 + ^ x28: .cfa -80 + ^ .ra: .cfa -88 + ^ x29: .cfa -96 + ^
STACK CFI 74b44 .cfa: sp 208 +
STACK CFI 74b60 .cfa: sp 0 +
STACK CFI 74b64 .cfa: x29 96 +
STACK CFI INIT 74c90 74 .cfa: sp 0 +
STACK CFI 74c94 .cfa: sp 48 +
STACK CFI 74ca0 .cfa: x29 32 + x19: .cfa -8 + ^ x20: .cfa -16 + ^ .ra: .cfa -24 + ^ x29: .cfa -32 + ^
STACK CFI 74cec .cfa: sp 48 +
STACK CFI 74cf8 .cfa: sp 0 +
STACK CFI 74cfc .cfa: x29 32 +
STACK CFI INIT 74dbc 360 .cfa: sp 0 +
STACK CFI 74dc0 .cfa: sp 208 +
STACK CFI 74ddc .cfa: x29 96 + x19: .cfa -8 + ^ x20: .cfa -16 + ^ x21: .cfa -24 + ^ x22: .cfa -32 + ^ x23: .cfa -40 + ^ x24: .cfa -48 + ^ x25: .cfa -56 + ^ x26: .cfa -64 + ^ x27: .cfa -72 + ^ x28: .cfa -80 + ^ .ra: .cfa -88 + ^ x29: .cfa -96 + ^
STACK CFI 75044 .cfa: sp 208 +
STACK CFI 75060 .cfa: sp 0 +
STACK CFI 75064 .cfa: x29 96 +
STACK CFI INIT 751f8 88 .cfa: sp 0 +
STACK CFI 751fc .cfa: sp 32 +
STACK CFI 75204 .cfa: x29 32 + x19: .cfa -8 + ^ x20: .cfa -16 + ^ .ra: .cfa -24 + ^ x29: .cfa -32 + ^
STACK CFI 75244 .cfa: sp 32 +
STACK CFI 7524c .cfa: sp 0 +
STACK CFI 75250 .cfa: x29 32 +
STACK CFI 75260 .cfa: sp 32 +
STACK CFI 75268 .cfa: sp 0 +
STACK CFI 7526c .cfa: x29 32 +
STACK CFI INIT 75308 810 .cfa: sp 0 +
STACK CFI 7530c .cfa: sp 336 +
STACK CFI 75328 .cfa: x29 96 + x19: .cfa -8 + ^ x20: .cfa -16 + ^ x21: .cfa -24 + ^ x22: .cfa -32 + ^ x23: .cfa -40 + ^ x24: .cfa -48 + ^ x25: .cfa -56 + ^ x26: .cfa -64 + ^ x27: .cfa -72 + ^ x28: .cfa -80 + ^ .ra: .cfa -88 + ^ x29: .cfa -96 + ^
STACK CFI 75940 .cfa: sp 336 +
STACK CFI 7595c .cfa: sp 0 +
STACK CFI 75960 .cfa: x29 96 +
STACK CFI INIT 75ba0 88 .cfa: sp 0 +
STACK CFI 75ba4 .cfa: sp 32 +
STACK CFI 75bac .cfa: x29 32 + x19: .cfa -8 + ^ x20: .cfa -16 + ^ .ra: .cfa -24 + ^ x29: .cfa -32 + ^
STACK CFI 75bec .cfa: sp 32 +
STACK CFI 75bf4 .cfa: sp 0 +
STACK CFI 75bf8 .cfa: x29 32 +
STACK CFI 75c08 .cfa: sp 32 +
STACK CFI 75c10 .cfa: sp 0 +
STACK CFI 75c14 .cfa: x29 32 +
STACK CFI INIT 75cb0 57c .cfa: sp 0 +
STACK CFI 75cb4 .cfa: sp 224 +
STACK CFI 75ccc .cfa: x29 80 + x19: .cfa -8 + ^ x20: .cfa -16 + ^ x21: .cfa -24 + ^ x22: .cfa -32 + ^ x23: .cfa -40 + ^ x24: .cfa -48 + ^ x25: .cfa -64 + ^ .ra: .cfa -72 + ^ x29: .cfa -80 + ^
STACK CFI 76160 .cfa: sp 224 +
STACK CFI 76178 .cfa: sp 0 +
STACK CFI 7617c .cfa: x29 80 +
STACK CFI INIT 762e0 164 .cfa: sp 0 +
STACK CFI 762e4 .cfa: sp 80 +
STACK CFI 762fc .cfa: x29 56 + x19: .cfa -8 + ^ x20: .cfa -16 + ^ x21: .cfa -24 + ^ x22: .cfa -32 + ^ x23: .cfa -40 + ^ .ra: .cfa -48 + ^ x29: .cfa -56 + ^ v8: .cfa -64 + ^
STACK CFI 76400 .cfa: sp 80 +
STACK CFI 76418 .cfa: sp 0 +
STACK CFI 7641c .cfa: x29 56 +
STACK CFI INIT 7646c 274 .cfa: sp 0 +
STACK CFI 76470 .cfa: sp 64 +
STACK CFI 76480 .cfa: x29 64 + x19: .cfa -8 + ^ x20: .cfa -16 + ^ x21: .cfa -24 + ^ x22: .cfa -32 + ^ x23: .cfa -40 + ^ x28: .cfa -48 + ^ .ra: .cfa -56 + ^ x29: .cfa -64 + ^
STACK CFI 7668c .cfa: sp 64 +
STACK CFI 7669c .cfa: sp 0 +
STACK CFI 766a0 .cfa: x29 64 +
STACK CFI INIT 76990 184 .cfa: sp 0 +
STACK CFI 76994 .cfa: sp 96 +
STACK CFI 769a8 .cfa: x29 64 + x19: .cfa -8 + ^ x20: .cfa -16 + ^ x21: .cfa -24 + ^ x22: .cfa -32 + ^ x23: .cfa -48 + ^ .ra: .cfa -56 + ^ x29: .cfa -64 + ^
STACK CFI 76ad4 .cfa: sp 96 +
STACK CFI 76ae8 .cfa: sp 0 +
STACK CFI 76aec .cfa: x29 64 +
STACK CFI INIT 76b1c 218 .cfa: sp 0 +
STACK CFI 76b20 .cfa: sp 128 +
STACK CFI 76b34 .cfa: x29 64 + x19: .cfa -8 + ^ x20: .cfa -16 + ^ x21: .cfa -24 + ^ x22: .cfa -32 + ^ x23: .cfa -48 + ^ .ra: .cfa -56 + ^ x29: .cfa -64 + ^
STACK CFI 76cd0 .cfa: sp 128 +
STACK CFI 76ce4 .cfa: sp 0 +
STACK CFI 76ce8 .cfa: x29 64 +
STACK CFI INIT 76d34 64 .cfa: sp 0 +
STACK CFI 76d38 .cfa: sp 32 +
STACK CFI 76d40 .cfa: x29 32 + x19: .cfa -16 + ^ .ra: .cfa -24 + ^ x29: .cfa -32 + ^
STACK CFI 76d88 .cfa: sp 32 +
STACK CFI 76d90 .cfa: sp 0 +
STACK CFI 76d94 .cfa: x29 32 +
STACK CFI INIT 76d98 64 .cfa: sp 0 +
STACK CFI 76d9c .cfa: sp 32 +
STACK CFI 76da4 .cfa: x29 32 + x19: .cfa -16 + ^ .ra: .cfa -24 + ^ x29: .cfa -32 + ^
STACK CFI 76dec .cfa: sp 32 +
STACK CFI 76df4 .cfa: sp 0 +
STACK CFI 76df8 .cfa: x29 32 +
STACK CFI INIT 76dfc 6c .cfa: sp 0 +
STACK CFI 76e00 .cfa: sp 32 +
STACK CFI 76e08 .cfa: x29 32 + x19: .cfa -16 + ^ .ra: .cfa -24 + ^ x29: .cfa -32 + ^
STACK CFI 76e58 .cfa: sp 32 +
STACK CFI 76e60 .cfa: sp 0 +
STACK CFI 76e64 .cfa: x29 32 +
STACK CFI INIT 76e68 6c .cfa: sp 0 +
STACK CFI 76e6c .cfa: sp 32 +
STACK CFI 76e74 .cfa: x29 32 + x19: .cfa -16 + ^ .ra: .cfa -24 + ^ x29: .cfa -32 + ^
STACK CFI 76ec4 .cfa: sp 32 +
STACK CFI 76ecc .cfa: sp 0 +
STACK CFI 76ed0 .cfa: x29 32 +
STACK CFI INIT 7715c a8 .cfa: sp 0 +
STACK CFI 77160 .cfa: sp 80 +
STACK CFI 77170 .cfa: x29 48 + x19: .cfa -8 + ^ x20: .cfa -16 + ^ x21: .cfa -24 + ^ x22: .cfa -32 + ^ .ra: .cfa -40 + ^ x29: .cfa -48 + ^
STACK CFI 771c8 .cfa: sp 80 +
STACK CFI 771d8 .cfa: sp 0 +
STACK CFI 771dc .cfa: x29 48 +
STACK CFI INIT 89bb8 134 .cfa: sp 0 +
STACK CFI 89bbc .cfa: sp 80 +
STACK CFI 89bc8 .cfa: x29 32 + x19: .cfa -8 + ^ x20: .cfa -16 + ^ .ra: .cfa -24 + ^ x29: .cfa -32 + ^
STACK CFI 89bf8 .cfa: sp 80 +
STACK CFI 89c04 .cfa: sp 0 +
STACK CFI 89c08 .cfa: x29 32 +
STACK CFI INIT 89cec 78 .cfa: sp 0 +
STACK CFI 89cf0 .cfa: sp 32 +
STACK CFI 89cf8 .cfa: x29 32 + x19: .cfa -8 + ^ x20: .cfa -16 + ^ .ra: .cfa -24 + ^ x29: .cfa -32 + ^
STACK CFI 89d04 .cfa: sp 32 +
STACK CFI 89d0c .cfa: sp 0 +
STACK CFI 89d10 .cfa: x29 32 +
STACK CFI INIT 89d64 74 .cfa: sp 0 +
STACK CFI 89d68 .cfa: sp 48 +
STACK CFI 89d74 .cfa: x29 32 + x19: .cfa -8 + ^ x20: .cfa -16 + ^ .ra: .cfa -24 + ^ x29: .cfa -32 + ^
STACK CFI 89dc0 .cfa: sp 48 +
STACK CFI 89dcc .cfa: sp 0 +
STACK CFI 89dd0 .cfa: x29 32 +
STACK CFI INIT 89e3c 224 .cfa: sp 0 +
STACK CFI 89e40 .cfa: sp 128 +
STACK CFI 89e50 .cfa: x29 48 + x19: .cfa -8 + ^ x20: .cfa -16 + ^ x21: .cfa -32 + ^ .ra: .cfa -40 + ^ x29: .cfa -48 + ^
STACK CFI 89f00 .cfa: sp 128 +
STACK CFI 89f10 .cfa: sp 0 +
STACK CFI 89f14 .cfa: x29 48 +
STACK CFI INIT 8a084 25c .cfa: sp 0 +
STACK CFI 8a088 .cfa: sp 128 +
STACK CFI 8a098 .cfa: x29 48 + x19: .cfa -8 + ^ x20: .cfa -16 + ^ x21: .cfa -32 + ^ .ra: .cfa -40 + ^ x29: .cfa -48 + ^
STACK CFI 8a180 .cfa: sp 128 +
STACK CFI 8a190 .cfa: sp 0 +
STACK CFI 8a194 .cfa: x29 48 +
STACK CFI INIT 8a304 264 .cfa: sp 0 +
STACK CFI 8a308 .cfa: sp 128 +
STACK CFI 8a318 .cfa: x29 48 + x19: .cfa -8 + ^ x20: .cfa -16 + ^ x21: .cfa -32 + ^ .ra: .cfa -40 + ^ x29: .cfa -48 + ^
STACK CFI 8a410 .cfa: sp 128 +
STACK CFI 8a420 .cfa: sp 0 +
STACK CFI 8a424 .cfa: x29 48 +
STACK CFI INIT 8a58c 220 .cfa: sp 0 +
STACK CFI 8a590 .cfa: sp 128 +
STACK CFI 8a5a0 .cfa: x29 48 + x19: .cfa -8 + ^ x20: .cfa -16 + ^ x21: .cfa -32 + ^ .ra: .cfa -40 + ^ x29: .cfa -48 + ^
STACK CFI 8a64c .cfa: sp 128 +
STACK CFI 8a65c .cfa: sp 0 +
STACK CFI 8a660 .cfa: x29 48 +
STACK CFI INIT 8a7ac 264 .cfa: sp 0 +
STACK CFI 8a7b0 .cfa: sp 144 +
STACK CFI 8a7c4 .cfa: x29 64 + x19: .cfa -8 + ^ x20: .cfa -16 + ^ x21: .cfa -24 + ^ x22: .cfa -32 + ^ x23: .cfa -48 + ^ .ra: .cfa -56 + ^ x29: .cfa -64 + ^
STACK CFI 8a8bc .cfa: sp 144 +
STACK CFI 8a8d0 .cfa: sp 0 +
STACK CFI 8a8d4 .cfa: x29 64 +
STACK CFI INIT 8aa88 300 .cfa: sp 0 +
STACK CFI 8aa8c .cfa: sp 144 +
STACK CFI 8aaa0 .cfa: x29 64 + x19: .cfa -8 + ^ x20: .cfa -16 + ^ x21: .cfa -24 + ^ x22: .cfa -32 + ^ x23: .cfa -48 + ^ .ra: .cfa -56 + ^ x29: .cfa -64 + ^
STACK CFI 8ac34 .cfa: sp 144 +
STACK CFI 8ac48 .cfa: sp 0 +
STACK CFI 8ac4c .cfa: x29 64 +
STACK CFI INIT 8addc 264 .cfa: sp 0 +
STACK CFI 8ade0 .cfa: sp 128 +
STACK CFI 8adf0 .cfa: x29 48 + x19: .cfa -8 + ^ x20: .cfa -16 + ^ x21: .cfa -32 + ^ .ra: .cfa -40 + ^ x29: .cfa -48 + ^
STACK CFI 8aee8 .cfa: sp 128 +
STACK CFI 8aef8 .cfa: sp 0 +
STACK CFI 8aefc .cfa: x29 48 +
STACK CFI INIT 8b094 260 .cfa: sp 0 +
STACK CFI 8b098 .cfa: sp 128 +
STACK CFI 8b0a8 .cfa: x29 48 + x19: .cfa -8 + ^ x20: .cfa -16 + ^ x21: .cfa -32 + ^ .ra: .cfa -40 + ^ x29: .cfa -48 + ^
STACK CFI 8b19c .cfa: sp 128 +
STACK CFI 8b1ac .cfa: sp 0 +
STACK CFI 8b1b0 .cfa: x29 48 +
STACK CFI INIT 8b42c 2b8 .cfa: sp 0 +
STACK CFI 8b430 .cfa: sp 144 +
STACK CFI 8b444 .cfa: x29 64 + x19: .cfa -8 + ^ x20: .cfa -16 + ^ x21: .cfa -24 + ^ x22: .cfa -32 + ^ x23: .cfa -48 + ^ .ra: .cfa -56 + ^ x29: .cfa -64 + ^
STACK CFI 8b590 .cfa: sp 144 +
STACK CFI 8b5a4 .cfa: sp 0 +
STACK CFI 8b5a8 .cfa: x29 64 +
STACK CFI INIT 8b6e4 b8 .cfa: sp 0 +
STACK CFI 8b6e8 .cfa: sp 32 +
STACK CFI 8b6f0 .cfa: x29 32 + x19: .cfa -8 + ^ x20: .cfa -16 + ^ .ra: .cfa -24 + ^ x29: .cfa -32 + ^
STACK CFI 8b760 .cfa: sp 32 +
STACK CFI 8b768 .cfa: sp 0 +
STACK CFI 8b76c .cfa: x29 32 +
STACK CFI INIT 8b79c 2c0 .cfa: sp 0 +
STACK CFI 8b7a0 .cfa: sp 144 +
STACK CFI 8b7b4 .cfa: x29 64 + x19: .cfa -8 + ^ x20: .cfa -16 + ^ x21: .cfa -24 + ^ x22: .cfa -32 + ^ x23: .cfa -48 + ^ .ra: .cfa -56 + ^ x29: .cfa -64 + ^
STACK CFI 8b908 .cfa: sp 144 +
STACK CFI 8b91c .cfa: sp 0 +
STACK CFI 8b920 .cfa: x29 64 +
STACK CFI INIT 8bb00 284 .cfa: sp 0 +
STACK CFI 8bb04 .cfa: sp 160 +
STACK CFI 8bb18 .cfa: x29 64 + x19: .cfa -8 + ^ x20: .cfa -16 + ^ x21: .cfa -24 + ^ x22: .cfa -32 + ^ x23: .cfa -48 + ^ .ra: .cfa -56 + ^ x29: .cfa -64 + ^
STACK CFI 8bc50 .cfa: sp 160 +
STACK CFI 8bc64 .cfa: sp 0 +
STACK CFI 8bc68 .cfa: x29 64 +
STACK CFI INIT 8bd84 a0 .cfa: sp 0 +
STACK CFI 8bd88 .cfa: sp 48 +
STACK CFI 8bd94 .cfa: x29 48 + x19: .cfa -8 + ^ x20: .cfa -16 + ^ x21: .cfa -32 + ^ .ra: .cfa -40 + ^ x29: .cfa -48 + ^
STACK CFI 8bdfc .cfa: sp 48 +
STACK CFI 8be08 .cfa: sp 0 +
STACK CFI 8be0c .cfa: x29 48 +
STACK CFI INIT 8be3c a0 .cfa: sp 0 +
STACK CFI 8be40 .cfa: sp 48 +
STACK CFI 8be4c .cfa: x29 48 + x19: .cfa -8 + ^ x20: .cfa -16 + ^ x21: .cfa -32 + ^ .ra: .cfa -40 + ^ x29: .cfa -48 + ^
STACK CFI 8beb4 .cfa: sp 48 +
STACK CFI 8bec0 .cfa: sp 0 +
STACK CFI 8bec4 .cfa: x29 48 +
STACK CFI INIT 8bedc 178 .cfa: sp 0 +
STACK CFI 8bee0 .cfa: sp 128 +
STACK CFI 8bef0 .cfa: x29 48 + x19: .cfa -8 + ^ x20: .cfa -16 + ^ x21: .cfa -24 + ^ x22: .cfa -32 + ^ .ra: .cfa -40 + ^ x29: .cfa -48 + ^
STACK CFI 8bf4c .cfa: sp 128 +
STACK CFI 8bf5c .cfa: sp 0 +
STACK CFI 8bf60 .cfa: x29 48 +
STACK CFI INIT 8c054 2c0 .cfa: sp 0 +
STACK CFI 8c058 .cfa: sp 144 +
STACK CFI 8c06c .cfa: x29 64 + x19: .cfa -8 + ^ x20: .cfa -16 + ^ x21: .cfa -24 + ^ x22: .cfa -32 + ^ x23: .cfa -48 + ^ .ra: .cfa -56 + ^ x29: .cfa -64 + ^
STACK CFI 8c1c0 .cfa: sp 144 +
STACK CFI 8c1d4 .cfa: sp 0 +
STACK CFI 8c1d8 .cfa: x29 64 +
STACK CFI INIT 8c314 1cc .cfa: sp 0 +
STACK CFI 8c318 .cfa: sp 176 +
STACK CFI 8c330 .cfa: x29 80 + x19: .cfa -8 + ^ x20: .cfa -16 + ^ x21: .cfa -24 + ^ x22: .cfa -32 + ^ x23: .cfa -40 + ^ x24: .cfa -48 + ^ x25: .cfa -56 + ^ x26: .cfa -64 + ^ .ra: .cfa -72 + ^ x29: .cfa -80 + ^
STACK CFI 8c3c8 .cfa: sp 176 +
STACK CFI 8c3e0 .cfa: sp 0 +
STACK CFI 8c3e4 .cfa: x29 80 +
STACK CFI INIT 8c4e0 3d4 .cfa: sp 0 +
STACK CFI 8c4e4 .cfa: sp 96 +
STACK CFI 8c4fc .cfa: x29 80 + x19: .cfa -8 + ^ x20: .cfa -16 + ^ x21: .cfa -24 + ^ x22: .cfa -32 + ^ x23: .cfa -40 + ^ x24: .cfa -48 + ^ x25: .cfa -64 + ^ .ra: .cfa -72 + ^ x29: .cfa -80 + ^
STACK CFI 8c830 .cfa: sp 96 +
STACK CFI 8c848 .cfa: sp 0 +
STACK CFI 8c84c .cfa: x29 80 +
STACK CFI INIT 8c8b4 2e4 .cfa: sp 0 +
STACK CFI 8c8b8 .cfa: sp 144 +
STACK CFI 8c8cc .cfa: x29 64 + x19: .cfa -8 + ^ x20: .cfa -16 + ^ x21: .cfa -24 + ^ x22: .cfa -32 + ^ x23: .cfa -48 + ^ .ra: .cfa -56 + ^ x29: .cfa -64 + ^
STACK CFI 8ca44 .cfa: sp 144 +
STACK CFI 8ca58 .cfa: sp 0 +
STACK CFI 8ca5c .cfa: x29 64 +
STACK CFI INIT 8cb98 2f0 .cfa: sp 0 +
STACK CFI 8cb9c .cfa: sp 144 +
STACK CFI 8cbb0 .cfa: x29 64 + x19: .cfa -8 + ^ x20: .cfa -16 + ^ x21: .cfa -24 + ^ x22: .cfa -32 + ^ x23: .cfa -48 + ^ .ra: .cfa -56 + ^ x29: .cfa -64 + ^
STACK CFI 8cd34 .cfa: sp 144 +
STACK CFI 8cd48 .cfa: sp 0 +
STACK CFI 8cd4c .cfa: x29 64 +
STACK CFI INIT 8ce88 2a0 .cfa: sp 0 +
STACK CFI 8ce8c .cfa: sp 144 +
STACK CFI 8cea0 .cfa: x29 64 + x19: .cfa -8 + ^ x20: .cfa -16 + ^ x21: .cfa -24 + ^ x22: .cfa -32 + ^ x23: .cfa -48 + ^ .ra: .cfa -56 + ^ x29: .cfa -64 + ^
STACK CFI 8cfd4 .cfa: sp 144 +
STACK CFI 8cfe8 .cfa: sp 0 +
STACK CFI 8cfec .cfa: x29 64 +
STACK CFI INIT 8d128 2e4 .cfa: sp 0 +
STACK CFI 8d12c .cfa: sp 144 +
STACK CFI 8d140 .cfa: x29 64 + x19: .cfa -8 + ^ x20: .cfa -16 + ^ x21: .cfa -24 + ^ x22: .cfa -32 + ^ x23: .cfa -48 + ^ .ra: .cfa -56 + ^ x29: .cfa -64 + ^
STACK CFI 8d2b8 .cfa: sp 144 +
STACK CFI 8d2cc .cfa: sp 0 +
STACK CFI 8d2d0 .cfa: x29 64 +
STACK CFI INIT 8d40c 4f4 .cfa: sp 0 +
STACK CFI 8d410 .cfa: sp 144 +
STACK CFI 8d424 .cfa: x29 64 + x19: .cfa -8 + ^ x20: .cfa -16 + ^ x21: .cfa -24 + ^ x22: .cfa -32 + ^ x23: .cfa -48 + ^ .ra: .cfa -56 + ^ x29: .cfa -64 + ^
STACK CFI 8d758 .cfa: sp 144 +
STACK CFI 8d76c .cfa: sp 0 +
STACK CFI 8d770 .cfa: x29 64 +
STACK CFI INIT 8d900 154 .cfa: sp 0 +
STACK CFI 8d904 .cfa: sp 384 +
STACK CFI 8d918 .cfa: x29 64 + x19: .cfa -8 + ^ x20: .cfa -16 + ^ x21: .cfa -24 + ^ x22: .cfa -32 + ^ x23: .cfa -40 + ^ x28: .cfa -48 + ^ .ra: .cfa -56 + ^ x29: .cfa -64 + ^
STACK CFI 8d9fc .cfa: sp 384 +
STACK CFI 8da10 .cfa: sp 0 +
STACK CFI 8da14 .cfa: x29 64 +
STACK CFI INIT 8da6c 50c .cfa: sp 0 +
STACK CFI 8da70 .cfa: sp 64 +
STACK CFI 8da80 .cfa: x29 64 + x19: .cfa -8 + ^ x20: .cfa -16 + ^ x21: .cfa -24 + ^ x22: .cfa -32 + ^ x23: .cfa -40 + ^ x24: .cfa -48 + ^ .ra: .cfa -56 + ^ x29: .cfa -64 + ^
STACK CFI 8dba0 .cfa: sp 64 +
STACK CFI 8dbb0 .cfa: sp 0 +
STACK CFI 8dbb4 .cfa: x29 64 +
STACK CFI 8df4c .cfa: sp 64 +
STACK CFI 8df5c .cfa: sp 0 +
STACK CFI 8df60 .cfa: x29 64 +
STACK CFI INIT 8e2a8 294 .cfa: sp 0 +
STACK CFI 8e2ac .cfa: sp 240 +
STACK CFI 8e2c4 .cfa: x29 80 + x19: .cfa -8 + ^ x20: .cfa -16 + ^ x21: .cfa -24 + ^ x22: .cfa -32 + ^ x23: .cfa -40 + ^ x24: .cfa -48 + ^ x25: .cfa -64 + ^ .ra: .cfa -72 + ^ x29: .cfa -80 + ^
STACK CFI 8e464 .cfa: sp 240 +
STACK CFI 8e47c .cfa: sp 0 +
STACK CFI 8e480 .cfa: x29 80 +
STACK CFI INIT 8e5b8 50 .cfa: sp 0 +
STACK CFI 8e5bc .cfa: sp 32 +
STACK CFI 8e5c4 .cfa: x29 32 + x19: .cfa -8 + ^ x20: .cfa -16 + ^ .ra: .cfa -24 + ^ x29: .cfa -32 + ^
STACK CFI INIT 8e634 7c0 .cfa: sp 0 +
STACK CFI 8e638 .cfa: sp 320 +
STACK CFI 8e654 .cfa: x29 96 + x19: .cfa -8 + ^ x20: .cfa -16 + ^ x21: .cfa -24 + ^ x22: .cfa -32 + ^ x23: .cfa -40 + ^ x24: .cfa -48 + ^ x25: .cfa -56 + ^ x26: .cfa -64 + ^ x27: .cfa -72 + ^ x28: .cfa -80 + ^ .ra: .cfa -88 + ^ x29: .cfa -96 + ^
STACK CFI 8eca4 .cfa: sp 320 +
STACK CFI 8ecc0 .cfa: sp 0 +
STACK CFI 8ecc4 .cfa: x29 96 +
STACK CFI INIT 8ee58 14c .cfa: sp 0 +
STACK CFI 8ee5c .cfa: sp 80 +
STACK CFI 8ee70 .cfa: x29 80 + x19: .cfa -8 + ^ x20: .cfa -16 + ^ x21: .cfa -24 + ^ x22: .cfa -32 + ^ x23: .cfa -40 + ^ x24: .cfa -48 + ^ x28: .cfa -64 + ^ .ra: .cfa -72 + ^ x29: .cfa -80 + ^
STACK CFI 8ef04 .cfa: sp 80 +
STACK CFI 8ef18 .cfa: sp 0 +
STACK CFI 8ef1c .cfa: x29 80 +
STACK CFI INIT 932ac c74 .cfa: sp 0 +
STACK CFI 932b0 .cfa: sp 96 +
STACK CFI 932c8 .cfa: x29 96 + x19: .cfa -8 + ^ x20: .cfa -16 + ^ x21: .cfa -24 + ^ x22: .cfa -32 + ^ x23: .cfa -40 + ^ x24: .cfa -48 + ^ x25: .cfa -56 + ^ x26: .cfa -64 + ^ x27: .cfa -72 + ^ x28: .cfa -80 + ^ .ra: .cfa -88 + ^ x29: .cfa -96 + ^
STACK CFI 93d3c .cfa: sp 96 +
STACK CFI 93d54 .cfa: sp 0 +
STACK CFI 93d58 .cfa: x29 96 +
STACK CFI INIT 94074 268 .cfa: sp 0 +
STACK CFI 94078 .cfa: sp 128 +
STACK CFI 94088 .cfa: x29 48 + x19: .cfa -8 + ^ x20: .cfa -16 + ^ x21: .cfa -24 + ^ x22: .cfa -32 + ^ .ra: .cfa -40 + ^ x29: .cfa -48 + ^
STACK CFI 94228 .cfa: sp 128 +
STACK CFI 94238 .cfa: sp 0 +
STACK CFI 9423c .cfa: x29 48 +
STACK CFI INIT 947a8 3b8 .cfa: sp 0 +
STACK CFI 947ac .cfa: sp 96 +
STACK CFI 947c4 .cfa: x29 96 + x19: .cfa -8 + ^ x20: .cfa -16 + ^ x21: .cfa -24 + ^ x22: .cfa -32 + ^ x23: .cfa -40 + ^ x24: .cfa -48 + ^ x25: .cfa -56 + ^ x26: .cfa -64 + ^ x27: .cfa -72 + ^ x28: .cfa -80 + ^ .ra: .cfa -88 + ^ x29: .cfa -96 + ^
STACK CFI 94b00 .cfa: sp 96 +
STACK CFI 94b18 .cfa: sp 0 +
STACK CFI 94b1c .cfa: x29 96 +
STACK CFI INIT 94c00 cb0 .cfa: sp 0 +
STACK CFI 94c04 .cfa: sp 96 +
STACK CFI 94c1c .cfa: x29 96 + x19: .cfa -8 + ^ x20: .cfa -16 + ^ x21: .cfa -24 + ^ x22: .cfa -32 + ^ x23: .cfa -40 + ^ x24: .cfa -48 + ^ x25: .cfa -56 + ^ x26: .cfa -64 + ^ x27: .cfa -72 + ^ x28: .cfa -80 + ^ .ra: .cfa -88 + ^ x29: .cfa -96 + ^
STACK CFI 956c0 .cfa: sp 96 +
STACK CFI 956d8 .cfa: sp 0 +
STACK CFI 956dc .cfa: x29 96 +
STACK CFI INIT 95b98 ae4 .cfa: sp 0 +
STACK CFI 95b9c .cfa: sp 96 +
STACK CFI 95bb4 .cfa: x29 96 + x19: .cfa -8 + ^ x20: .cfa -16 + ^ x21: .cfa -24 + ^ x22: .cfa -32 + ^ x23: .cfa -40 + ^ x24: .cfa -48 + ^ x25: .cfa -56 + ^ x26: .cfa -64 + ^ x27: .cfa -72 + ^ x28: .cfa -80 + ^ .ra: .cfa -88 + ^ x29: .cfa -96 + ^
STACK CFI 965f0 .cfa: sp 96 +
STACK CFI 96608 .cfa: sp 0 +
STACK CFI 9660c .cfa: x29 96 +
STACK CFI INIT 96858 1424 .cfa: sp 0 +
STACK CFI 9685c .cfa: sp 96 +
STACK CFI 96874 .cfa: x29 96 + x19: .cfa -8 + ^ x20: .cfa -16 + ^ x21: .cfa -24 + ^ x22: .cfa -32 + ^ x23: .cfa -40 + ^ x24: .cfa -48 + ^ x25: .cfa -56 + ^ x26: .cfa -64 + ^ x27: .cfa -72 + ^ x28: .cfa -80 + ^ .ra: .cfa -88 + ^ x29: .cfa -96 + ^
STACK CFI 97b0c .cfa: sp 96 +
STACK CFI 97b24 .cfa: sp 0 +
STACK CFI 97b28 .cfa: x29 96 +
STACK CFI INIT 97da0 75c .cfa: sp 0 +
STACK CFI 97da4 .cfa: sp 368 +
STACK CFI 97dc0 .cfa: x29 96 + x19: .cfa -8 + ^ x20: .cfa -16 + ^ x21: .cfa -24 + ^ x22: .cfa -32 + ^ x23: .cfa -40 + ^ x24: .cfa -48 + ^ x25: .cfa -56 + ^ x26: .cfa -64 + ^ x27: .cfa -72 + ^ x28: .cfa -80 + ^ .ra: .cfa -88 + ^ x29: .cfa -96 + ^
STACK CFI 97e74 .cfa: sp 368 +
STACK CFI 97e90 .cfa: sp 0 +
STACK CFI 97e94 .cfa: x29 96 +
STACK CFI 97ee8 .cfa: sp 368 +
STACK CFI 97f04 .cfa: sp 0 +
STACK CFI 97f08 .cfa: x29 96 +
STACK CFI INIT 988c0 eac .cfa: sp 0 +
STACK CFI 988c4 .cfa: sp 96 +
STACK CFI 988dc .cfa: x29 96 + x19: .cfa -8 + ^ x20: .cfa -16 + ^ x21: .cfa -24 + ^ x22: .cfa -32 + ^ x23: .cfa -40 + ^ x24: .cfa -48 + ^ x25: .cfa -56 + ^ x26: .cfa -64 + ^ x27: .cfa -72 + ^ x28: .cfa -80 + ^ .ra: .cfa -88 + ^ x29: .cfa -96 + ^
STACK CFI 99580 .cfa: sp 96 +
STACK CFI 99598 .cfa: sp 0 +
STACK CFI 9959c .cfa: x29 96 +
STACK CFI INIT 99ae0 1c64 .cfa: sp 0 +
STACK CFI 99ae4 .cfa: sp 112 +
STACK CFI 99b00 .cfa: x29 96 + x19: .cfa -8 + ^ x20: .cfa -16 + ^ x21: .cfa -24 + ^ x22: .cfa -32 + ^ x23: .cfa -40 + ^ x24: .cfa -48 + ^ x25: .cfa -56 + ^ x26: .cfa -64 + ^ x27: .cfa -72 + ^ x28: .cfa -80 + ^ .ra: .cfa -88 + ^ x29: .cfa -96 + ^ v8: .cfa -112 + ^
STACK CFI 99ed4 .cfa: sp 112 +
STACK CFI 99ef0 .cfa: sp 0 +
STACK CFI 99ef4 .cfa: x29 96 +
STACK CFI INIT 9dedc a4c .cfa: sp 0 +
STACK CFI 9dee0 .cfa: sp 144 +
STACK CFI 9def8 .cfa: x29 80 + x19: .cfa -8 + ^ x20: .cfa -16 + ^ x21: .cfa -24 + ^ x22: .cfa -32 + ^ x23: .cfa -40 + ^ x24: .cfa -48 + ^ x25: .cfa -64 + ^ .ra: .cfa -72 + ^ x29: .cfa -80 + ^
STACK CFI 9e880 .cfa: sp 144 +
STACK CFI 9e898 .cfa: sp 0 +
STACK CFI 9e89c .cfa: x29 80 +
STACK CFI INIT 9fdbc 57c .cfa: sp 0 +
STACK CFI 9fdc0 .cfa: sp 96 +
STACK CFI 9fdd8 .cfa: x29 96 + x19: .cfa -8 + ^ x20: .cfa -16 + ^ x21: .cfa -24 + ^ x22: .cfa -32 + ^ x23: .cfa -40 + ^ x24: .cfa -48 + ^ x25: .cfa -56 + ^ x26: .cfa -64 + ^ x27: .cfa -72 + ^ x28: .cfa -80 + ^ .ra: .cfa -88 + ^ x29: .cfa -96 + ^
STACK CFI a029c .cfa: sp 96 +
STACK CFI a02b4 .cfa: sp 0 +
STACK CFI a02b8 .cfa: x29 96 +
STACK CFI INIT a0338 67c .cfa: sp 0 +
STACK CFI a033c .cfa: sp 96 +
STACK CFI a0354 .cfa: x29 96 + x19: .cfa -8 + ^ x20: .cfa -16 + ^ x21: .cfa -24 + ^ x22: .cfa -32 + ^ x23: .cfa -40 + ^ x24: .cfa -48 + ^ x25: .cfa -56 + ^ x26: .cfa -64 + ^ x27: .cfa -72 + ^ x28: .cfa -80 + ^ .ra: .cfa -88 + ^ x29: .cfa -96 + ^
STACK CFI a0918 .cfa: sp 96 +
STACK CFI a0930 .cfa: sp 0 +
STACK CFI a0934 .cfa: x29 96 +
