MODULE Linux arm 9C2CB986FB56A9ECDCBA78214AE083C90 firee.deck.android32.so
INFO CODE_ID 86B92C9C56FBECA9DCBA78214AE083C992C98A4D
INFO GENERATOR mozilla/dump_syms 2.3.4
PUBLIC 1aa40 0 __on_dlclose
PUBLIC 1aa50 0 __emutls_unregister_key
PUBLIC 1aa54 0 __on_dlclose_late
PUBLIC 1aa58 0 __atexit_handler_wrapper
PUBLIC 1aa64 0 atexit
PUBLIC 1aa84 0 pthread_atfork
FUNC 1aa94 16 0 geode::Ref<cocos2d::CCDictionary>::~Ref()
PUBLIC 1aaab 0 __clang_call_terminate
FUNC 1aab8 3c 0 _GLOBAL__sub_I_Variables.cpp
FUNC 1aaf4 2f4 0 __cxx_global_var_init
FUNC 1ade8 20 0 geode::modifier::ModifyBase<geode::modifier::ModifyDerive<BigPicIntro, LoadingLayer> >::~ModifyBase()
FUNC 1ae10 818 0 geode::modifier::ModifyDerive<BigPicIntro, LoadingLayer>::apply()
FUNC 1b628 3a 0 std::__ndk1::shared_ptr<geode::Hook>::~shared_ptr[abi:ne180000]()
FUNC 1b664 60 0 geode::impl::ResultData<geode::Hook*, std::__ndk1::basic_string<char, std::__ndk1::char_traits<char>, std::__ndk1::allocator<char> > >::~ResultData()
FUNC 1b6c4 3e 0 std::__ndk1::vector<std::__ndk1::basic_string<char, std::__ndk1::char_traits<char>, std::__ndk1::allocator<char> >, std::__ndk1::allocator<std::__ndk1::basic_string<char, std::__ndk1::char_traits<char>, std::__ndk1::allocator<char> > > >::~vector[abi:ne180000]()
FUNC 1b702 2 0 geode::modifier::ModifyBase<geode::modifier::ModifyDerive<BigPicIntro, LoadingLayer> >::apply()
FUNC 1b704 f8 0 _ZN5geode15UnwrapExceptionC2IRPNS_4HookEQsr4implE18IsStringStreamableIT_EEENS_4impl5OkTagEOS5_
FUNC 1b7fc 34 0 std::__ndk1::__throw_bad_variant_access[abi:ne180000]()
FUNC 1b830 d8 0 std::__ndk1::basic_stringstream<char, std::__ndk1::char_traits<char>, std::__ndk1::allocator<char> >::basic_stringstream[abi:ne180000]()
FUNC 1b908 68 0 std::__ndk1::basic_stringstream<char, std::__ndk1::char_traits<char>, std::__ndk1::allocator<char> >::~basic_stringstream()
FUNC 1b970 10 0 geode::UnwrapException::~UnwrapException()
FUNC 1b980 108 0 std::__ndk1::__put_character_sequence[abi:ne180000]<char, std::__ndk1::char_traits<char> >(std::__ndk1::basic_ostream<char, std::__ndk1::char_traits<char> >, std::__ndk1::basic_ostream const*, unsigned int)
FUNC 1ba88 110 0 std::__ndk1::__pad_and_output[abi:ne180000]<char, std::__ndk1::char_traits<char> >(std::__ndk1::char_traits<char>, std::__ndk1::ostreambuf_iterator const*, std::__ndk1::ostreambuf_iterator const, std::__ndk1::ostreambuf_iterator const, std::__ndk1::ios_base&, std::__ndk1::ostreambuf_iterator)
FUNC 1bb98 10 0 std::__ndk1::basic_string<char, std::__ndk1::char_traits<char>, std::__ndk1::allocator<char> >::__throw_length_error[abi:ne180000]() const
FUNC 1bba8 38 0 std::__ndk1::__throw_length_error[abi:ne180000](char const*)
FUNC 1bbe0 18 0 std::length_error::length_error[abi:ne180000](char const*)
FUNC 1bbf8 28 0 std::__throw_bad_array_new_length([abi:ne180000], void)
FUNC 1bc20 ce 0 std::__ndk1::basic_stringbuf<char, std::__ndk1::char_traits<char>, std::__ndk1::allocator<char> >::str[abi:ne180000]() &&
FUNC 1bcee e0 0 std::__ndk1::basic_stringbuf<char, std::__ndk1::char_traits<char>, std::__ndk1::allocator<char> >::__init_buf_ptrs[abi:ne180000]()
FUNC 1bdd0 164 0 std::__ndk1::vector<std::__ndk1::basic_string<char, std::__ndk1::char_traits<char>, std::__ndk1::allocator<char> >, std::__ndk1::allocator<std::__ndk1::basic_string<char, std::__ndk1::char_traits<char>, std::__ndk1::allocator<char> > > >::__push_back_slow_path<std::__ndk1::basic_string<char, std::__ndk1::char_traits<char>, std::__ndk1::allocator<char> > const&>(std::__ndk1::basic_string<char, std::__ndk1::char_traits<char>, std::__ndk1::allocator<char> > const&)
FUNC 1bf34 46 0 std::__ndk1::basic_string<char, std::__ndk1::char_traits<char>, std::__ndk1::allocator<char> >::__init_copy_ctor_external(char const*, unsigned int)
FUNC 1bf7a 3c 0 std::__ndk1::__split_buffer<std::__ndk1::basic_string<char, std::__ndk1::char_traits<char>, std::__ndk1::allocator<char> >, std::__ndk1::allocator<std::__ndk1::basic_string<char, std::__ndk1::char_traits<char>, std::__ndk1::allocator<char> > >&>::~__split_buffer()
FUNC 1bfb8 10 0 std::__ndk1::vector<std::__ndk1::basic_string<char, std::__ndk1::char_traits<char>, std::__ndk1::allocator<char> >, std::__ndk1::allocator<std::__ndk1::basic_string<char, std::__ndk1::char_traits<char>, std::__ndk1::allocator<char> > > >::__throw_length_error[abi:ne180000]() const
FUNC 1bfc8 2 0 std::__ndk1::__variant_detail::__visitation::__base::__dispatcher<(unsigned int)0>::__dispatch[abi:ne180000]<std::__ndk1::__variant_detail::__dtor<std::__ndk1::__variant_detail::__traits<geode::Hook*, std::__ndk1::basic_string<char, std::__ndk1::char_traits<char>, std::__ndk1::allocator<char> > >, (std::__ndk1::__variant_detail::_Trait)1>::__destroy[abi:ne180000]()::{lambda(auto:1&)#1}, std::__ndk1::__variant_detail::__base<(std::__ndk1::__variant_detail::__traits<geode::Hook*, std::__ndk1::basic_string<char, std::__ndk1::char_traits<char>, std::__ndk1::allocator<char> > >)1, geode::Hook, std::__ndk1::allocator<char> >&>(std::__ndk1::__variant_detail::__dtor<std::__ndk1::__variant_detail::__traits<geode::Hook*, std::__ndk1::basic_string<char, std::__ndk1::char_traits<char>, std::__ndk1::allocator<char> > >, (std::__ndk1::__variant_detail::_Trait)1>, std::__ndk1::__variant_detail::__base<(std::__ndk1::__variant_detail::__traits<geode::Hook*, std::__ndk1::basic_string<char, std::__ndk1::char_traits<char>, std::__ndk1::allocator<char> > >)1, geode::Hook, std::__ndk1::allocator<char> >&)
FUNC 1bfca e 0 std::__ndk1::__variant_detail::__visitation::__base::__dispatcher<(unsigned int)1>::__dispatch[abi:ne180000]<std::__ndk1::__variant_detail::__dtor<std::__ndk1::__variant_detail::__traits<geode::Hook*, std::__ndk1::basic_string<char, std::__ndk1::char_traits<char>, std::__ndk1::allocator<char> > >, (std::__ndk1::__variant_detail::_Trait)1>::__destroy[abi:ne180000]()::{lambda(auto:1&)#1}, std::__ndk1::__variant_detail::__base<(std::__ndk1::__variant_detail::__traits<geode::Hook*, std::__ndk1::basic_string<char, std::__ndk1::char_traits<char>, std::__ndk1::allocator<char> > >)1, geode::Hook, std::__ndk1::allocator<char> >&>(std::__ndk1::__variant_detail::__dtor<std::__ndk1::__variant_detail::__traits<geode::Hook*, std::__ndk1::basic_string<char, std::__ndk1::char_traits<char>, std::__ndk1::allocator<char> > >, (std::__ndk1::__variant_detail::_Trait)1>, std::__ndk1::__variant_detail::__base<(std::__ndk1::__variant_detail::__traits<geode::Hook*, std::__ndk1::basic_string<char, std::__ndk1::char_traits<char>, std::__ndk1::allocator<char> > >)1, geode::Hook, std::__ndk1::allocator<char> >&)
FUNC 1bfd8 c0 0 std::__ndk1::__tree<std::__ndk1::__value_type<std::__ndk1::basic_string<char, std::__ndk1::char_traits<char>, std::__ndk1::allocator<char> >, std::__ndk1::shared_ptr<geode::Hook> >, std::__ndk1::__map_value_compare<std::__ndk1::basic_string<char, std::__ndk1::char_traits<char>, std::__ndk1::allocator<char> >, std::__ndk1::__value_type<std::__ndk1::basic_string<char, std::__ndk1::char_traits<char>, std::__ndk1::allocator<char> >, std::__ndk1::shared_ptr<geode::Hook> >, std::__ndk1::less<std::__ndk1::basic_string<char, std::__ndk1::char_traits<char>, std::__ndk1::allocator<char> > >, true>, std::__ndk1::allocator<std::__ndk1::__value_type<std::__ndk1::basic_string<char, std::__ndk1::char_traits<char>, std::__ndk1::allocator<char> >, std::__ndk1::shared_ptr<geode::Hook> > > >::find<std::__ndk1::basic_string<char, std::__ndk1::char_traits<char>, std::__ndk1::allocator<char> > >(std::__ndk1::basic_string<char, std::__ndk1::char_traits<char>, std::__ndk1::allocator<char> > const&)
FUNC 1c098 82 0 std::__ndk1::__tree<std::__ndk1::__value_type<std::__ndk1::basic_string<char, std::__ndk1::char_traits<char>, std::__ndk1::allocator<char> >, std::__ndk1::shared_ptr<geode::Hook> >, std::__ndk1::__map_value_compare<std::__ndk1::basic_string<char, std::__ndk1::char_traits<char>, std::__ndk1::allocator<char> >, std::__ndk1::__value_type<std::__ndk1::basic_string<char, std::__ndk1::char_traits<char>, std::__ndk1::allocator<char> >, std::__ndk1::shared_ptr<geode::Hook> >, std::__ndk1::less<std::__ndk1::basic_string<char, std::__ndk1::char_traits<char>, std::__ndk1::allocator<char> > >, true>, std::__ndk1::allocator<std::__ndk1::__value_type<std::__ndk1::basic_string<char, std::__ndk1::char_traits<char>, std::__ndk1::allocator<char> >, std::__ndk1::shared_ptr<geode::Hook> > > >::erase(std::__ndk1::__tree_const_iterator<std::__ndk1::__value_type<std::__ndk1::basic_string<char, std::__ndk1::char_traits<char>, std::__ndk1::allocator<char> >, std::__ndk1::shared_ptr<geode::Hook> >, std::__ndk1::__tree_node<std::__ndk1::__value_type<std::__ndk1::basic_string<char, std::__ndk1::char_traits<char>, std::__ndk1::allocator<char> >, std::__ndk1::shared_ptr<geode::Hook> >, void*>*, int>)
FUNC 1c11a 274 0 std::__ndk1::__tree_remove[abi:ne180000]<std::__ndk1::__tree_node_base<void*>*>(std::__ndk1::__tree_node_base<void*>*, std::__ndk1::__tree_node_base<void*>*)
FUNC 1c38e 5e 0 std::__ndk1::__tree<std::__ndk1::__value_type<std::__ndk1::basic_string<char, std::__ndk1::char_traits<char>, std::__ndk1::allocator<char> >, std::__ndk1::shared_ptr<geode::Hook> >, std::__ndk1::__map_value_compare<std::__ndk1::basic_string<char, std::__ndk1::char_traits<char>, std::__ndk1::allocator<char> >, std::__ndk1::__value_type<std::__ndk1::basic_string<char, std::__ndk1::char_traits<char>, std::__ndk1::allocator<char> >, std::__ndk1::shared_ptr<geode::Hook> >, std::__ndk1::less<std::__ndk1::basic_string<char, std::__ndk1::char_traits<char>, std::__ndk1::allocator<char> > >, true>, std::__ndk1::allocator<std::__ndk1::__value_type<std::__ndk1::basic_string<char, std::__ndk1::char_traits<char>, std::__ndk1::allocator<char> >, std::__ndk1::shared_ptr<geode::Hook> > > >::destroy(std::__ndk1::__tree_node<std::__ndk1::__value_type<std::__ndk1::basic_string<char, std::__ndk1::char_traits<char>, std::__ndk1::allocator<char> >, std::__ndk1::shared_ptr<geode::Hook> >, void*>*)
FUNC 1c3ec 634 0 geode::modifier::AsStaticFunction_init<BigPicIntro, bool (BigPicIntro::*)(bool)>::Impl<bool (BigPicIntro::*)(bool)>::function(BigPicIntro*, bool)
FUNC 1ca20 740 0 geode::modifier::AsStaticFunction_loadAssets<BigPicIntro, void (BigPicIntro::*)()>::Impl<void (BigPicIntro::*)()>::function(BigPicIntro*)
FUNC 1d160 88 0 geode::modifier::AsStaticFunction_updateProgress<BigPicIntro, void (BigPicIntro::*)(int)>::Impl<void (BigPicIntro::*)(int)>::function(BigPicIntro*, int)
FUNC 1d1e8 3a 0 std::__ndk1::shared_ptr<tulip::hook::CallingConvention>::~shared_ptr[abi:ne180000]()
FUNC 1d222 46 0 tulip::hook::HandlerMetadata::~HandlerMetadata()
FUNC 1d268 b4 0 Utils::invisibleInVec(cocos2d::CCLayer*, std::__ndk1::vector<std::__ndk1::basic_string<char, std::__ndk1::char_traits<char>, std::__ndk1::allocator<char> >, std::__ndk1::allocator<std::__ndk1::basic_string<char, std::__ndk1::char_traits<char>, std::__ndk1::allocator<char> > > >)
FUNC 1d31c d8 0 std::__ndk1::vector<std::__ndk1::basic_string<char, std::__ndk1::char_traits<char>, std::__ndk1::allocator<char> >, std::__ndk1::allocator<std::__ndk1::basic_string<char, std::__ndk1::char_traits<char>, std::__ndk1::allocator<char> > > >::vector[abi:ne180000](std::initializer_list<std::__ndk1::basic_string<char, std::__ndk1::char_traits<char>, std::__ndk1::allocator<char> > >)
FUNC 1d3f4 57c 0 geode::modifier::FieldIntermediate<BigPicIntro, LoadingLayer>::self()
FUNC 1d970 2 0 geode::modifier::FieldIntermediate<BigPicIntro, LoadingLayer>::fieldDestructor(void*)
FUNC 1d974 10 0 std::__ndk1::vector<void*, std::__ndk1::allocator<void*> >::__throw_length_error[abi:ne180000]() const
FUNC 1d984 10 0 std::__ndk1::vector<std::__ndk1::function<void (void*)>, std::__ndk1::allocator<std::__ndk1::function<void (void*)> > >::__throw_length_error[abi:ne180000]() const
FUNC 1d994 10 0 std::__ndk1::vector<void*, std::__ndk1::allocator<void*> >::__throw_out_of_range[abi:ne180000]() const
FUNC 1d9a4 38 0 std::__ndk1::__throw_out_of_range[abi:ne180000](char const*)
FUNC 1d9dc 18 0 std::out_of_range::out_of_range[abi:ne180000](char const*)
FUNC 1d9f4 10 0 std::__ndk1::vector<std::__ndk1::function<void (void*)>, std::__ndk1::allocator<std::__ndk1::function<void (void*)> > >::__throw_out_of_range[abi:ne180000]() const
FUNC 1da04 2 0 std::__ndk1::__function::__base<void (void*)>::~__base()
FUNC 1da06 4 0 std::__ndk1::__function::__func<void (*)(void*), std::__ndk1::allocator<void (*)(void*)>, void (void*)>::~__func()
FUNC 1da0c 20 0 std::__ndk1::__function::__func<void (*)(void*), std::__ndk1::allocator<void (*)(void*)>, void (void*)>::__clone() const
FUNC 1da2c 14 0 std::__ndk1::__function::__func<void (*)(void*), std::__ndk1::allocator<void (*)(void*)>, void (void*)>::__clone(std::__ndk1::__function::__base<void (void*)>*) const
FUNC 1da40 2 0 std::__ndk1::__function::__func<void (*)(void*), std::__ndk1::allocator<void (*)(void*)>, void (void*)>::destroy()
FUNC 1da42 4 0 std::__ndk1::__function::__func<void (*)(void*), std::__ndk1::allocator<void (*)(void*)>, void (void*)>::destroy_deallocate()
FUNC 1da46 8 0 std::__ndk1::__function::__func<void (*)(void*), std::__ndk1::allocator<void (*)(void*)>, void (void*)>::operator()(void*&&)
FUNC 1da50 18 0 std::__ndk1::__function::__func<void (*)(void*), std::__ndk1::allocator<void (*)(void*)>, void (void*)>::target(std::type_info const&) const
FUNC 1da68 c 0 std::__ndk1::__function::__func<void (*)(void*), std::__ndk1::allocator<void (*)(void*)>, void (void*)>::target_type() const
FUNC 1da74 4e 0 std::__ndk1::__exception_guard_exceptions<std::__ndk1::vector<std::__ndk1::basic_string<char, std::__ndk1::char_traits<char>, std::__ndk1::allocator<char> >, std::__ndk1::allocator<std::__ndk1::basic_string<char, std::__ndk1::char_traits<char>, std::__ndk1::allocator<char> > > >::__destroy_vector>::~__exception_guard_exceptions[abi:ne180000]()
FUNC 1dac2 3a 0 std::__ndk1::__exception_guard_exceptions<std::__ndk1::_AllocatorDestroyRangeReverse<std::__ndk1::allocator<std::__ndk1::basic_string<char, std::__ndk1::char_traits<char>, std::__ndk1::allocator<char> > >, std::__ndk1::basic_string<char, std::__ndk1::char_traits<char>, std::__ndk1::allocator<char> >*> >::~__exception_guard_exceptions[abi:ne180000]()
FUNC 1dafc ac 0 std::__ndk1::__fs::filesystem::path::operator/=[abi:ne180000](std::__ndk1::__fs::filesystem::path const&)
FUNC 1dba8 66 0 std::__ndk1::basic_string<char, std::__ndk1::char_traits<char>, std::__ndk1::allocator<char> >::__assign_no_alias<true>(char const*, unsigned int)
FUNC 1dc0e a6 0 std::__ndk1::basic_string<char, std::__ndk1::char_traits<char>, std::__ndk1::allocator<char> >::__assign_no_alias<false>(char const*, unsigned int)
FUNC 1dcb4 ba 0 std::__ndk1::__tree<std::__ndk1::__value_type<std::__ndk1::basic_string<char, std::__ndk1::char_traits<char>, std::__ndk1::allocator<char> >, std::__ndk1::shared_ptr<geode::Hook> >, std::__ndk1::__map_value_compare<std::__ndk1::basic_string<char, std::__ndk1::char_traits<char>, std::__ndk1::allocator<char> >, std::__ndk1::__value_type<std::__ndk1::basic_string<char, std::__ndk1::char_traits<char>, std::__ndk1::allocator<char> >, std::__ndk1::shared_ptr<geode::Hook> >, std::__ndk1::less<std::__ndk1::basic_string<char, std::__ndk1::char_traits<char>, std::__ndk1::allocator<char> > >, true>, std::__ndk1::allocator<std::__ndk1::__value_type<std::__ndk1::basic_string<char, std::__ndk1::char_traits<char>, std::__ndk1::allocator<char> >, std::__ndk1::shared_ptr<geode::Hook> > > >::__find_equal<std::__ndk1::basic_string<char, std::__ndk1::char_traits<char>, std::__ndk1::allocator<char> > >(std::__ndk1::__tree_end_node<std::__ndk1::__tree_node_base<void*>*>*&, std::__ndk1::basic_string<char, std::__ndk1::char_traits<char>, std::__ndk1::allocator<char> > const&)
FUNC 1dd6e 14a 0 std::__ndk1::__tree_balance_after_insert[abi:ne180000]<std::__ndk1::__tree_node_base<void*>*>(std::__ndk1::__tree_node_base<void*>*, std::__ndk1::__tree_node_base<void*>*)
FUNC 1deb8 f8 0 geode::Mod::getSettingValue<bool>(std::__ndk1::basic_string_view<char, std::__ndk1::char_traits<char> >) const
FUNC 1dfb0 8c 0 geode::cast::traverseTypeinfoFor(void*, geode::cast::ClassTypeinfoType const*, char const*)
FUNC 1e03c ac 0 geode::cocos::CCMenuItemExt::createSpriteExtra(cocos2d::CCNode*, std::__ndk1::function<void (CCMenuItemSpriteExtra*)>)
FUNC 1e0e8 48 0 cocos2d::CCSequence::create(cocos2d::CCFiniteTimeAction*, ...)
FUNC 1e130 130 0 BigPicIntro::introStepParticle2()
FUNC 1e260 150 0 BigPicIntro::introStep2()
FUNC 1e3b0 d80 0 Utils::createStarParticles(float, int, cocos2d::_ccColor3B, cocos2d::CCPoint, cocos2d::CCPoint)
FUNC 1f130 118 0 geode::cocos::CCMenuItemExt::assignCallback<CCMenuItemSpriteExtra>(cocos2d::CCMenuItem*, std::__ndk1::function<void (CCMenuItemSpriteExtra*)>)
FUNC 1f248 134 0 geode::cocos::CCMenuItemExt::LambdaCallback<CCMenuItemSpriteExtra>::create(std::__ndk1::function<void (CCMenuItemSpriteExtra*)>)
FUNC 1f37c 40 0 geode::cocos::CCMenuItemExt::LambdaCallback<CCMenuItemSpriteExtra>::execute(cocos2d::CCNode*)
FUNC 1f3bc 4 0 cocos2d::CCCopying::copyWithZone(cocos2d::CCZone*)
FUNC 1f3c0 38 0 geode::cocos::CCMenuItemExt::LambdaCallback<CCMenuItemSpriteExtra>::~LambdaCallback()
FUNC 1f3f8 3c 0 geode::cocos::CCMenuItemExt::LambdaCallback<CCMenuItemSpriteExtra>::~LambdaCallback()
FUNC 1f434 2 0 cocos2d::CCObject::update(float)
FUNC 1f438 34 0 std::__ndk1::__throw_bad_function_call[abi:ne180000]()
FUNC 1f46c 10 0 std::__ndk1::bad_function_call::~bad_function_call()
FUNC 1f47c 2 0 std::__ndk1::__function::__base<void (CCMenuItemSpriteExtra*)>::~__base()
FUNC 1f47e 4 0 std::__ndk1::__function::__func<BigPicIntro::introAnimation()::{lambda(cocos2d::CCObject*)#1}, std::__ndk1::allocator<BigPicIntro::introAnimation()::{lambda(cocos2d::CCObject*)#1}>, void (CCMenuItemSpriteExtra*)>::~__func()
FUNC 1f484 20 0 std::__ndk1::__function::__func<BigPicIntro::introAnimation()::{lambda(cocos2d::CCObject*)#1}, std::__ndk1::allocator<BigPicIntro::introAnimation()::{lambda(cocos2d::CCObject*)#1}>, void (CCMenuItemSpriteExtra*)>::__clone() const
FUNC 1f4a4 14 0 std::__ndk1::__function::__func<BigPicIntro::introAnimation()::{lambda(cocos2d::CCObject*)#1}, std::__ndk1::allocator<BigPicIntro::introAnimation()::{lambda(cocos2d::CCObject*)#1}>, void (CCMenuItemSpriteExtra*)>::__clone(std::__ndk1::__function::__base<void (CCMenuItemSpriteExtra*)>*) const
FUNC 1f4b8 2 0 std::__ndk1::__function::__func<BigPicIntro::introAnimation()::{lambda(cocos2d::CCObject*)#1}, std::__ndk1::allocator<BigPicIntro::introAnimation()::{lambda(cocos2d::CCObject*)#1}>, void (CCMenuItemSpriteExtra*)>::destroy()
FUNC 1f4ba 4 0 std::__ndk1::__function::__func<BigPicIntro::introAnimation()::{lambda(cocos2d::CCObject*)#1}, std::__ndk1::allocator<BigPicIntro::introAnimation()::{lambda(cocos2d::CCObject*)#1}>, void (CCMenuItemSpriteExtra*)>::destroy_deallocate()
FUNC 1f4be 1c 0 std::__ndk1::__function::__func<BigPicIntro::introAnimation()::{lambda(cocos2d::CCObject*)#1}, std::__ndk1::allocator<BigPicIntro::introAnimation()::{lambda(cocos2d::CCObject*)#1}>, void (CCMenuItemSpriteExtra*)>::operator()(CCMenuItemSpriteExtra*&&)
FUNC 1f4dc 18 0 std::__ndk1::__function::__func<BigPicIntro::introAnimation()::{lambda(cocos2d::CCObject*)#1}, std::__ndk1::allocator<BigPicIntro::introAnimation()::{lambda(cocos2d::CCObject*)#1}>, void (CCMenuItemSpriteExtra*)>::target(std::type_info const&) const
FUNC 1f4f4 c 0 std::__ndk1::__function::__func<BigPicIntro::introAnimation()::{lambda(cocos2d::CCObject*)#1}, std::__ndk1::allocator<BigPicIntro::introAnimation()::{lambda(cocos2d::CCObject*)#1}>, void (CCMenuItemSpriteExtra*)>::target_type() const
FUNC 1f500 1a0 0 BigPicIntro::introStep3()
FUNC 1f6a0 28 0 BigPicIntro::introStep4()
FUNC 1f6c8 b4 0 cocos2d::CCString::createWithFormat(char const*, ...)
FUNC 1f77c 660 0 __cxx_global_var_init
FUNC 1fddc 20 0 geode::modifier::ModifyBase<geode::modifier::ModifyDerive<BigPic, MenuLayer> >::~ModifyBase()
FUNC 1fe00 7e4 0 geode::modifier::ModifyDerive<BigPic, MenuLayer>::apply()
FUNC 205e4 2 0 geode::modifier::ModifyBase<geode::modifier::ModifyDerive<BigPic, MenuLayer> >::apply()
FUNC 205e8 a8 0 geode::modifier::ModifyBase<geode::modifier::ModifyDerive<BigPic, MenuLayer> >::setHookPriorityAfter(std::__ndk1::basic_string_view<char, std::__ndk1::char_traits<char> >, geode::Mod*)::{lambda(geode::ModStateEvent*)#1}::operator()(geode::ModStateEvent*) const
FUNC 20690 5c 0 std::__ndk1::unique_ptr<std::__ndk1::__tree_node<std::__ndk1::__value_type<std::__ndk1::basic_string<char, std::__ndk1::char_traits<char>, std::__ndk1::allocator<char> >, std::__ndk1::shared_ptr<geode::Hook> >, void*>, std::__ndk1::__tree_node_destructor<std::__ndk1::allocator<std::__ndk1::__tree_node<std::__ndk1::__value_type<std::__ndk1::basic_string<char, std::__ndk1::char_traits<char>, std::__ndk1::allocator<char> >, std::__ndk1::shared_ptr<geode::Hook> >, void*> > > >::~unique_ptr[abi:ne180000]()
FUNC 206ec 104 0 _ZN5geode15UnwrapExceptionC2IRNSt6__ndk112basic_stringIcNS2_11char_traitsIcEENS2_9allocatorIcEEEEQsr4implE18IsStringStreamableIT_EEENS_4impl6ErrTagEOSA_
FUNC 207f0 2 0 std::__ndk1::__function::__base<void (geode::ModStateEvent*)>::~__base()
FUNC 207f2 4 0 std::__ndk1::__function::__func<geode::modifier::ModifyBase<geode::modifier::ModifyDerive<BigPic, MenuLayer> >::setHookPriorityAfter(std::__ndk1::basic_string_view<char, std::__ndk1::char_traits<char> >, geode::Mod*)::{lambda(geode::ModStateEvent*)#1}, std::__ndk1::allocator<geode::modifier::ModifyBase<geode::modifier::ModifyDerive<BigPic, MenuLayer> >::setHookPriorityAfter(std::__ndk1::basic_string_view<char, std::__ndk1::char_traits<char> >, geode::Mod*)::{lambda(geode::ModStateEvent*)#1}>, void (geode::ModStateEvent*)>::~__func()
FUNC 207f8 20 0 std::__ndk1::__function::__func<geode::modifier::ModifyBase<geode::modifier::ModifyDerive<BigPic, MenuLayer> >::setHookPriorityAfter(std::__ndk1::basic_string_view<char, std::__ndk1::char_traits<char> >, geode::Mod*)::{lambda(geode::ModStateEvent*)#1}, std::__ndk1::allocator<geode::modifier::ModifyBase<geode::modifier::ModifyDerive<BigPic, MenuLayer> >::setHookPriorityAfter(std::__ndk1::basic_string_view<char, std::__ndk1::char_traits<char> >, geode::Mod*)::{lambda(geode::ModStateEvent*)#1}>, void (geode::ModStateEvent*)>::__clone() const
FUNC 20818 18 0 std::__ndk1::__function::__func<geode::modifier::ModifyBase<geode::modifier::ModifyDerive<BigPic, MenuLayer> >::setHookPriorityAfter(std::__ndk1::basic_string_view<char, std::__ndk1::char_traits<char> >, geode::Mod*)::{lambda(geode::ModStateEvent*)#1}, std::__ndk1::allocator<geode::modifier::ModifyBase<geode::modifier::ModifyDerive<BigPic, MenuLayer> >::setHookPriorityAfter(std::__ndk1::basic_string_view<char, std::__ndk1::char_traits<char> >, geode::Mod*)::{lambda(geode::ModStateEvent*)#1}>, void (geode::ModStateEvent*)>::__clone(std::__ndk1::__function::__base<void (geode::ModStateEvent*)>*) const
FUNC 20830 2 0 std::__ndk1::__function::__func<geode::modifier::ModifyBase<geode::modifier::ModifyDerive<BigPic, MenuLayer> >::setHookPriorityAfter(std::__ndk1::basic_string_view<char, std::__ndk1::char_traits<char> >, geode::Mod*)::{lambda(geode::ModStateEvent*)#1}, std::__ndk1::allocator<geode::modifier::ModifyBase<geode::modifier::ModifyDerive<BigPic, MenuLayer> >::setHookPriorityAfter(std::__ndk1::basic_string_view<char, std::__ndk1::char_traits<char> >, geode::Mod*)::{lambda(geode::ModStateEvent*)#1}>, void (geode::ModStateEvent*)>::destroy()
FUNC 20832 4 0 std::__ndk1::__function::__func<geode::modifier::ModifyBase<geode::modifier::ModifyDerive<BigPic, MenuLayer> >::setHookPriorityAfter(std::__ndk1::basic_string_view<char, std::__ndk1::char_traits<char> >, geode::Mod*)::{lambda(geode::ModStateEvent*)#1}, std::__ndk1::allocator<geode::modifier::ModifyBase<geode::modifier::ModifyDerive<BigPic, MenuLayer> >::setHookPriorityAfter(std::__ndk1::basic_string_view<char, std::__ndk1::char_traits<char> >, geode::Mod*)::{lambda(geode::ModStateEvent*)#1}>, void (geode::ModStateEvent*)>::destroy_deallocate()
FUNC 20836 6 0 std::__ndk1::__function::__func<geode::modifier::ModifyBase<geode::modifier::ModifyDerive<BigPic, MenuLayer> >::setHookPriorityAfter(std::__ndk1::basic_string_view<char, std::__ndk1::char_traits<char> >, geode::Mod*)::{lambda(geode::ModStateEvent*)#1}, std::__ndk1::allocator<geode::modifier::ModifyBase<geode::modifier::ModifyDerive<BigPic, MenuLayer> >::setHookPriorityAfter(std::__ndk1::basic_string_view<char, std::__ndk1::char_traits<char> >, geode::Mod*)::{lambda(geode::ModStateEvent*)#1}>, void (geode::ModStateEvent*)>::operator()(geode::ModStateEvent*&&)
FUNC 2083c 18 0 std::__ndk1::__function::__func<geode::modifier::ModifyBase<geode::modifier::ModifyDerive<BigPic, MenuLayer> >::setHookPriorityAfter(std::__ndk1::basic_string_view<char, std::__ndk1::char_traits<char> >, geode::Mod*)::{lambda(geode::ModStateEvent*)#1}, std::__ndk1::allocator<geode::modifier::ModifyBase<geode::modifier::ModifyDerive<BigPic, MenuLayer> >::setHookPriorityAfter(std::__ndk1::basic_string_view<char, std::__ndk1::char_traits<char> >, geode::Mod*)::{lambda(geode::ModStateEvent*)#1}>, void (geode::ModStateEvent*)>::target(std::type_info const&) const
FUNC 20854 c 0 std::__ndk1::__function::__func<geode::modifier::ModifyBase<geode::modifier::ModifyDerive<BigPic, MenuLayer> >::setHookPriorityAfter(std::__ndk1::basic_string_view<char, std::__ndk1::char_traits<char> >, geode::Mod*)::{lambda(geode::ModStateEvent*)#1}, std::__ndk1::allocator<geode::modifier::ModifyBase<geode::modifier::ModifyDerive<BigPic, MenuLayer> >::setHookPriorityAfter(std::__ndk1::basic_string_view<char, std::__ndk1::char_traits<char> >, geode::Mod*)::{lambda(geode::ModStateEvent*)#1}>, void (geode::ModStateEvent*)>::target_type() const
FUNC 20860 4 0 geode::EventListener<geode::ModStateFilter>::getPool() const
FUNC 20864 e4 0 geode::EventListener<geode::ModStateFilter>::handle(geode::Event*)
FUNC 20948 38 0 geode::EventListener<geode::ModStateFilter>::~EventListener()
FUNC 20980 3c 0 geode::EventListener<geode::ModStateFilter>::~EventListener()
FUNC 209bc 2 0 std::__ndk1::__variant_detail::__visitation::__base::__dispatcher<(unsigned int)0>::__dispatch[abi:ne180000]<std::__ndk1::__variant_detail::__dtor<std::__ndk1::__variant_detail::__traits<std::__ndk1::monostate, std::__ndk1::basic_string<char, std::__ndk1::char_traits<char>, std::__ndk1::allocator<char> > >, (std::__ndk1::__variant_detail::_Trait)1>::__destroy[abi:ne180000]()::{lambda(auto:1&)#1}, std::__ndk1::__variant_detail::__base<(std::__ndk1::__variant_detail::__traits<std::__ndk1::monostate, std::__ndk1::basic_string<char, std::__ndk1::char_traits<char>, std::__ndk1::allocator<char> > >)1, std::__ndk1::__variant_detail::__traits, std::__ndk1::allocator<char> >&>(std::__ndk1::__variant_detail::__dtor<std::__ndk1::__variant_detail::__traits<std::__ndk1::monostate, std::__ndk1::basic_string<char, std::__ndk1::char_traits<char>, std::__ndk1::allocator<char> > >, (std::__ndk1::__variant_detail::_Trait)1>, std::__ndk1::__variant_detail::__base<(std::__ndk1::__variant_detail::__traits<std::__ndk1::monostate, std::__ndk1::basic_string<char, std::__ndk1::char_traits<char>, std::__ndk1::allocator<char> > >)1, std::__ndk1::__variant_detail::__traits, std::__ndk1::allocator<char> >&)
FUNC 209be e 0 std::__ndk1::__variant_detail::__visitation::__base::__dispatcher<(unsigned int)1>::__dispatch[abi:ne180000]<std::__ndk1::__variant_detail::__dtor<std::__ndk1::__variant_detail::__traits<std::__ndk1::monostate, std::__ndk1::basic_string<char, std::__ndk1::char_traits<char>, std::__ndk1::allocator<char> > >, (std::__ndk1::__variant_detail::_Trait)1>::__destroy[abi:ne180000]()::{lambda(auto:1&)#1}, std::__ndk1::__variant_detail::__base<(std::__ndk1::__variant_detail::__traits<std::__ndk1::monostate, std::__ndk1::basic_string<char, std::__ndk1::char_traits<char>, std::__ndk1::allocator<char> > >)1, std::__ndk1::__variant_detail::__traits, std::__ndk1::allocator<char> >&>(std::__ndk1::__variant_detail::__dtor<std::__ndk1::__variant_detail::__traits<std::__ndk1::monostate, std::__ndk1::basic_string<char, std::__ndk1::char_traits<char>, std::__ndk1::allocator<char> > >, (std::__ndk1::__variant_detail::_Trait)1>, std::__ndk1::__variant_detail::__base<(std::__ndk1::__variant_detail::__traits<std::__ndk1::monostate, std::__ndk1::basic_string<char, std::__ndk1::char_traits<char>, std::__ndk1::allocator<char> > >)1, std::__ndk1::__variant_detail::__traits, std::__ndk1::allocator<char> >&)
FUNC 209cc 7c 0 geode::addresser::getVirtual<bool (MenuLayer::*)()>(bool (MenuLayer::*)())
FUNC 20a48 78c 0 geode::modifier::AsStaticFunction_init<BigPic, bool (BigPic::*)()>::Impl<bool (BigPic::*)()>::function(BigPic*)
FUNC 211d4 7c 0 geode::addresser::getVirtual<void (MenuLayer::*)(cocos2d::enumKeyCodes)>(void (MenuLayer::*)(cocos2d::enumKeyCodes))
FUNC 21250 100 0 geode::modifier::AsStaticFunction_keyDown<BigPic, void (BigPic::*)(cocos2d::enumKeyCodes)>::Impl<void (BigPic::*)(cocos2d::enumKeyCodes)>::function(BigPic*, cocos2d::enumKeyCodes)
FUNC 21350 90 0 geode::modifier::AsStaticFunction_onQuit<BigPic, void (BigPic::*)(cocos2d::CCObject*)>::Impl<void (BigPic::*)(cocos2d::CCObject*)>::function(BigPic*, cocos2d::CCObject*)
FUNC 213e0 6c 0 MenuLayer::MenuLayer(geode::ZeroConstructorType)
FUNC 2144c 4 0 std::__ndk1::__function::__func<BigPic::init()::{lambda()#1}, std::__ndk1::allocator<BigPic::init()::{lambda()#1}>, void ()>::~__func()
FUNC 21450 20 0 std::__ndk1::__function::__func<BigPic::init()::{lambda()#1}, std::__ndk1::allocator<BigPic::init()::{lambda()#1}>, void ()>::__clone() const
FUNC 21470 14 0 std::__ndk1::__function::__func<BigPic::init()::{lambda()#1}, std::__ndk1::allocator<BigPic::init()::{lambda()#1}>, void ()>::__clone(std::__ndk1::__function::__base<void ()>*) const
FUNC 21484 2 0 std::__ndk1::__function::__func<BigPic::init()::{lambda()#1}, std::__ndk1::allocator<BigPic::init()::{lambda()#1}>, void ()>::destroy()
FUNC 21486 4 0 std::__ndk1::__function::__func<BigPic::init()::{lambda()#1}, std::__ndk1::allocator<BigPic::init()::{lambda()#1}>, void ()>::destroy_deallocate()
FUNC 2148a c 0 std::__ndk1::__function::__func<BigPic::init()::{lambda()#1}, std::__ndk1::allocator<BigPic::init()::{lambda()#1}>, void ()>::operator()()
FUNC 21498 18 0 std::__ndk1::__function::__func<BigPic::init()::{lambda()#1}, std::__ndk1::allocator<BigPic::init()::{lambda()#1}>, void ()>::target(std::type_info const&) const
FUNC 214b0 c 0 std::__ndk1::__function::__func<BigPic::init()::{lambda()#1}, std::__ndk1::allocator<BigPic::init()::{lambda()#1}>, void ()>::target_type() const
FUNC 214bc 2 0 std::__ndk1::__function::__base<void ()>::~__base()
FUNC 214be 4 0 std::__ndk1::__function::__func<BigPic::init()::{lambda()#2}, std::__ndk1::allocator<BigPic::init()::{lambda()#2}>, void ()>::~__func()
FUNC 214c4 20 0 std::__ndk1::__function::__func<BigPic::init()::{lambda()#2}, std::__ndk1::allocator<BigPic::init()::{lambda()#2}>, void ()>::__clone() const
FUNC 214e4 14 0 std::__ndk1::__function::__func<BigPic::init()::{lambda()#2}, std::__ndk1::allocator<BigPic::init()::{lambda()#2}>, void ()>::__clone(std::__ndk1::__function::__base<void ()>*) const
FUNC 214f8 2 0 std::__ndk1::__function::__func<BigPic::init()::{lambda()#2}, std::__ndk1::allocator<BigPic::init()::{lambda()#2}>, void ()>::destroy()
FUNC 214fa 4 0 std::__ndk1::__function::__func<BigPic::init()::{lambda()#2}, std::__ndk1::allocator<BigPic::init()::{lambda()#2}>, void ()>::destroy_deallocate()
FUNC 214fe 6 0 std::__ndk1::__function::__func<BigPic::init()::{lambda()#2}, std::__ndk1::allocator<BigPic::init()::{lambda()#2}>, void ()>::operator()()
FUNC 21504 18 0 std::__ndk1::__function::__func<BigPic::init()::{lambda()#2}, std::__ndk1::allocator<BigPic::init()::{lambda()#2}>, void ()>::target(std::type_info const&) const
FUNC 2151c c 0 std::__ndk1::__function::__func<BigPic::init()::{lambda()#2}, std::__ndk1::allocator<BigPic::init()::{lambda()#2}>, void ()>::target_type() const
FUNC 21528 7fc 0 BPAlert::init(std::__ndk1::basic_string<char, std::__ndk1::char_traits<char>, std::__ndk1::allocator<char> >, std::__ndk1::vector<BigPicButton, std::__ndk1::allocator<BigPicButton> >)
FUNC 21d24 30 0 BigPicButton::~BigPicButton()
FUNC 21d54 30 0 BPAlert::init(std::__ndk1::basic_string<char, std::__ndk1::char_traits<char>, std::__ndk1::allocator<char> >, std::__ndk1::vector<BigPicButton, std::__ndk1::allocator<BigPicButton> >)::$_1::~$_1()
FUNC 21d84 8 0 BPAlert::willTouch()
FUNC 21d8c 5e 0 std::__ndk1::vector<BigPicButton, std::__ndk1::allocator<BigPicButton> >::~vector[abi:ne180000]()
FUNC 21dec 454 0 BPAlert::regenItems(int)
FUNC 22240 30 0 BPAlert::regenItems(int)::$_0::~$_0()
FUNC 22270 d8 0 cocos2d::CCNode::getChildByType<cocos2d::extension::CCScale9Sprite>(int)
FUNC 22348 30 0 BPAlert::ccTouchEnded(cocos2d::CCTouch*, cocos2d::CCEvent*)
FUNC 22378 46 0 {virtual override thunk({offset(-264)}, BPAlert::ccTouchEnded(cocos2d::CCTouch*, cocos2d::CCEvent*))}
FUNC 223c0 97c 0 BPAlert::keyDown(cocos2d::enumKeyCodes)
FUNC 22d3c 8 0 {virtual override thunk({offset(-276)}, BPAlert::keyDown(cocos2d::enumKeyCodes))}
FUNC 22d44 19c 0 BPAlert::create(std::__ndk1::basic_string<char, std::__ndk1::char_traits<char>, std::__ndk1::allocator<char> >, std::__ndk1::vector<BigPicButton, std::__ndk1::allocator<BigPicButton> >)
FUNC 22ee0 a8 0 std::__ndk1::vector<BigPicButton, std::__ndk1::allocator<BigPicButton> >::vector(std::__ndk1::vector<BigPicButton, std::__ndk1::allocator<BigPicButton> > const&)
FUNC 22f88 ac 0 BPAlert::~BPAlert()
FUNC 23034 b0 0 BPAlert::~BPAlert()
FUNC 230e4 2 0 BPAlert::keyBackClicked()
FUNC 230e6 2 0 cocos2d::CCLayerRGBA::setOpacityModifyRGB(bool)
FUNC 230e8 4 0 cocos2d::CCLayerRGBA::isOpacityModifyRGB()
FUNC 230ec b0 0 {virtual override thunk({offset(-264)}, BPAlert::~BPAlert())}
FUNC 2319c b4 0 {virtual override thunk({offset(-264)}, BPAlert::~BPAlert())}
FUNC 23250 2 0 {virtual override thunk({offset(-272)}, BPAlert::keyBackClicked())}
FUNC 23252 2 0 cocos2d::CCKeyboardDelegate::keyUp(cocos2d::enumKeyCodes)
FUNC 23254 2 0 cocos2d::CCMouseDelegate::rightKeyDown()
FUNC 23256 2 0 cocos2d::CCMouseDelegate::rightKeyUp()
FUNC 23258 2 0 cocos2d::CCMouseDelegate::scrollWheel(float, float)
FUNC 2325a 2 0 {virtual override thunk({offset(-316)}, cocos2d::CCLayerRGBA::setOpacityModifyRGB(bool))}
FUNC 2325c 4 0 {virtual override thunk({offset(-316)}, cocos2d::CCLayerRGBA::isOpacityModifyRGB())}
FUNC 23260 202 0 std::__ndk1::vector<BigPicButton, std::__ndk1::allocator<BigPicButton> >::__push_back_slow_path<BigPicButton>(BigPicButton&&)
FUNC 23462 5c 0 std::__ndk1::__split_buffer<BigPicButton, std::__ndk1::allocator<BigPicButton>&>::~__split_buffer()
FUNC 234c0 10 0 std::__ndk1::vector<BigPicButton, std::__ndk1::allocator<BigPicButton> >::__throw_length_error[abi:ne180000]() const
FUNC 234d0 d0 0 std::__ndk1::__uninitialized_allocator_copy_impl[abi:ne180000]<std::__ndk1::allocator<BigPicButton>, std::__ndk1::allocator*, std::__ndk1::allocator<BigPicButton>, std::__ndk1::allocator<BigPicButton> >(std::__ndk1::allocator<BigPicButton>&, std::__ndk1::allocator*, std::__ndk1::allocator<BigPicButton>, std::__ndk1::allocator*)
FUNC 235a0 56 0 std::__ndk1::__exception_guard_exceptions<std::__ndk1::_AllocatorDestroyRangeReverse<std::__ndk1::allocator<BigPicButton>, BigPicButton*> >::~__exception_guard_exceptions[abi:ne180000]()
FUNC 235f8 d0 0 BigPicButton::operator=(BigPicButton const&)
FUNC 236c8 cc 0 std::__ndk1::__function::__value_func<void ()>::swap[abi:ne180000](std::__ndk1::__function::__value_func<void ()>&)
FUNC 23794 6e 0 std::__ndk1::__exception_guard_exceptions<std::__ndk1::vector<BigPicButton, std::__ndk1::allocator<BigPicButton> >::__destroy_vector>::~__exception_guard_exceptions[abi:ne180000]()
FUNC 23802 4 0 std::__ndk1::__function::__func<BPAlert::init(std::__ndk1::basic_string<char, std::__ndk1::char_traits<char>, std::__ndk1::allocator<char> >, std::__ndk1::vector<BigPicButton, std::__ndk1::allocator<BigPicButton> >)::$_0, std::__ndk1::allocator<BPAlert::init(std::__ndk1::basic_string<char, std::__ndk1::char_traits<char>, std::__ndk1::allocator<char> >, std::__ndk1::vector<BigPicButton, std::__ndk1::allocator<BigPicButton> >)::$_0>, void ()>::~__func()
FUNC 23808 20 0 std::__ndk1::__function::__func<BPAlert::init(std::__ndk1::basic_string<char, std::__ndk1::char_traits<char>, std::__ndk1::allocator<char> >, std::__ndk1::vector<BigPicButton, std::__ndk1::allocator<BigPicButton> >)::$_0, std::__ndk1::allocator<BPAlert::init(std::__ndk1::basic_string<char, std::__ndk1::char_traits<char>, std::__ndk1::allocator<char> >, std::__ndk1::vector<BigPicButton, std::__ndk1::allocator<BigPicButton> >)::$_0>, void ()>::__clone() const
FUNC 23828 14 0 std::__ndk1::__function::__func<BPAlert::init(std::__ndk1::basic_string<char, std::__ndk1::char_traits<char>, std::__ndk1::allocator<char> >, std::__ndk1::vector<BigPicButton, std::__ndk1::allocator<BigPicButton> >)::$_0, std::__ndk1::allocator<BPAlert::init(std::__ndk1::basic_string<char, std::__ndk1::char_traits<char>, std::__ndk1::allocator<char> >, std::__ndk1::vector<BigPicButton, std::__ndk1::allocator<BigPicButton> >)::$_0>, void ()>::__clone(std::__ndk1::__function::__base<void ()>*) const
FUNC 2383c 2 0 std::__ndk1::__function::__func<BPAlert::init(std::__ndk1::basic_string<char, std::__ndk1::char_traits<char>, std::__ndk1::allocator<char> >, std::__ndk1::vector<BigPicButton, std::__ndk1::allocator<BigPicButton> >)::$_0, std::__ndk1::allocator<BPAlert::init(std::__ndk1::basic_string<char, std::__ndk1::char_traits<char>, std::__ndk1::allocator<char> >, std::__ndk1::vector<BigPicButton, std::__ndk1::allocator<BigPicButton> >)::$_0>, void ()>::destroy()
FUNC 2383e 4 0 std::__ndk1::__function::__func<BPAlert::init(std::__ndk1::basic_string<char, std::__ndk1::char_traits<char>, std::__ndk1::allocator<char> >, std::__ndk1::vector<BigPicButton, std::__ndk1::allocator<BigPicButton> >)::$_0, std::__ndk1::allocator<BPAlert::init(std::__ndk1::basic_string<char, std::__ndk1::char_traits<char>, std::__ndk1::allocator<char> >, std::__ndk1::vector<BigPicButton, std::__ndk1::allocator<BigPicButton> >)::$_0>, void ()>::destroy_deallocate()
FUNC 23842 22 0 std::__ndk1::__function::__func<BPAlert::init(std::__ndk1::basic_string<char, std::__ndk1::char_traits<char>, std::__ndk1::allocator<char> >, std::__ndk1::vector<BigPicButton, std::__ndk1::allocator<BigPicButton> >)::$_0, std::__ndk1::allocator<BPAlert::init(std::__ndk1::basic_string<char, std::__ndk1::char_traits<char>, std::__ndk1::allocator<char> >, std::__ndk1::vector<BigPicButton, std::__ndk1::allocator<BigPicButton> >)::$_0>, void ()>::operator()()
FUNC 23864 18 0 std::__ndk1::__function::__func<BPAlert::init(std::__ndk1::basic_string<char, std::__ndk1::char_traits<char>, std::__ndk1::allocator<char> >, std::__ndk1::vector<BigPicButton, std::__ndk1::allocator<BigPicButton> >)::$_0, std::__ndk1::allocator<BPAlert::init(std::__ndk1::basic_string<char, std::__ndk1::char_traits<char>, std::__ndk1::allocator<char> >, std::__ndk1::vector<BigPicButton, std::__ndk1::allocator<BigPicButton> >)::$_0>, void ()>::target(std::type_info const&) const
FUNC 2387c c 0 std::__ndk1::__function::__func<BPAlert::init(std::__ndk1::basic_string<char, std::__ndk1::char_traits<char>, std::__ndk1::allocator<char> >, std::__ndk1::vector<BigPicButton, std::__ndk1::allocator<BigPicButton> >)::$_0, std::__ndk1::allocator<BPAlert::init(std::__ndk1::basic_string<char, std::__ndk1::char_traits<char>, std::__ndk1::allocator<char> >, std::__ndk1::vector<BigPicButton, std::__ndk1::allocator<BigPicButton> >)::$_0>, void ()>::target_type() const
FUNC 23888 4e0 0 std::__ndk1::vector<BigPicButton, std::__ndk1::allocator<BigPicButton> >::__insert_with_size[abi:ne180000]<std::__ndk1::__wrap_iter<BigPicButton const*>, BigPicButton const*>(BigPicButton const*, std::__ndk1::__wrap_iter<BigPicButton const*>, BigPicButton const*, int)
FUNC 23d68 d0 0 std::__ndk1::__uninitialized_allocator_copy_impl[abi:ne180000]<std::__ndk1::allocator<BigPicButton>, std::__ndk1::allocator const*, std::__ndk1::allocator const, std::__ndk1::allocator*>(std::__ndk1::allocator<BigPicButton>&, std::__ndk1::allocator const*, std::__ndk1::allocator const, std::__ndk1::allocator*)
FUNC 23e38 40 0 std::__ndk1::__function::__func<BPAlert::init(std::__ndk1::basic_string<char, std::__ndk1::char_traits<char>, std::__ndk1::allocator<char> >, std::__ndk1::vector<BigPicButton, std::__ndk1::allocator<BigPicButton> >)::$_1, std::__ndk1::allocator<BPAlert::init(std::__ndk1::basic_string<char, std::__ndk1::char_traits<char>, std::__ndk1::allocator<char> >, std::__ndk1::vector<BigPicButton, std::__ndk1::allocator<BigPicButton> >)::$_1>, void (CCMenuItemSpriteExtra*)>::~__func()
FUNC 23e78 44 0 std::__ndk1::__function::__func<BPAlert::init(std::__ndk1::basic_string<char, std::__ndk1::char_traits<char>, std::__ndk1::allocator<char> >, std::__ndk1::vector<BigPicButton, std::__ndk1::allocator<BigPicButton> >)::$_1, std::__ndk1::allocator<BPAlert::init(std::__ndk1::basic_string<char, std::__ndk1::char_traits<char>, std::__ndk1::allocator<char> >, std::__ndk1::vector<BigPicButton, std::__ndk1::allocator<BigPicButton> >)::$_1>, void (CCMenuItemSpriteExtra*)>::~__func()
FUNC 23ebc 9c 0 std::__ndk1::__function::__func<BPAlert::init(std::__ndk1::basic_string<char, std::__ndk1::char_traits<char>, std::__ndk1::allocator<char> >, std::__ndk1::vector<BigPicButton, std::__ndk1::allocator<BigPicButton> >)::$_1, std::__ndk1::allocator<BPAlert::init(std::__ndk1::basic_string<char, std::__ndk1::char_traits<char>, std::__ndk1::allocator<char> >, std::__ndk1::vector<BigPicButton, std::__ndk1::allocator<BigPicButton> >)::$_1>, void (CCMenuItemSpriteExtra*)>::__clone() const
FUNC 23f58 8c 0 std::__ndk1::__function::__func<BPAlert::init(std::__ndk1::basic_string<char, std::__ndk1::char_traits<char>, std::__ndk1::allocator<char> >, std::__ndk1::vector<BigPicButton, std::__ndk1::allocator<BigPicButton> >)::$_1, std::__ndk1::allocator<BPAlert::init(std::__ndk1::basic_string<char, std::__ndk1::char_traits<char>, std::__ndk1::allocator<char> >, std::__ndk1::vector<BigPicButton, std::__ndk1::allocator<BigPicButton> >)::$_1>, void (CCMenuItemSpriteExtra*)>::__clone(std::__ndk1::__function::__base<void (CCMenuItemSpriteExtra*)>*) const
FUNC 23fe4 32 0 std::__ndk1::__function::__func<BPAlert::init(std::__ndk1::basic_string<char, std::__ndk1::char_traits<char>, std::__ndk1::allocator<char> >, std::__ndk1::vector<BigPicButton, std::__ndk1::allocator<BigPicButton> >)::$_1, std::__ndk1::allocator<BPAlert::init(std::__ndk1::basic_string<char, std::__ndk1::char_traits<char>, std::__ndk1::allocator<char> >, std::__ndk1::vector<BigPicButton, std::__ndk1::allocator<BigPicButton> >)::$_1>, void (CCMenuItemSpriteExtra*)>::destroy()
FUNC 24016 36 0 std::__ndk1::__function::__func<BPAlert::init(std::__ndk1::basic_string<char, std::__ndk1::char_traits<char>, std::__ndk1::allocator<char> >, std::__ndk1::vector<BigPicButton, std::__ndk1::allocator<BigPicButton> >)::$_1, std::__ndk1::allocator<BPAlert::init(std::__ndk1::basic_string<char, std::__ndk1::char_traits<char>, std::__ndk1::allocator<char> >, std::__ndk1::vector<BigPicButton, std::__ndk1::allocator<BigPicButton> >)::$_1>, void (CCMenuItemSpriteExtra*)>::destroy_deallocate()
FUNC 2404c 34 0 std::__ndk1::__function::__func<BPAlert::init(std::__ndk1::basic_string<char, std::__ndk1::char_traits<char>, std::__ndk1::allocator<char> >, std::__ndk1::vector<BigPicButton, std::__ndk1::allocator<BigPicButton> >)::$_1, std::__ndk1::allocator<BPAlert::init(std::__ndk1::basic_string<char, std::__ndk1::char_traits<char>, std::__ndk1::allocator<char> >, std::__ndk1::vector<BigPicButton, std::__ndk1::allocator<BigPicButton> >)::$_1>, void (CCMenuItemSpriteExtra*)>::operator()(CCMenuItemSpriteExtra*&&)
FUNC 24080 18 0 std::__ndk1::__function::__func<BPAlert::init(std::__ndk1::basic_string<char, std::__ndk1::char_traits<char>, std::__ndk1::allocator<char> >, std::__ndk1::vector<BigPicButton, std::__ndk1::allocator<BigPicButton> >)::$_1, std::__ndk1::allocator<BPAlert::init(std::__ndk1::basic_string<char, std::__ndk1::char_traits<char>, std::__ndk1::allocator<char> >, std::__ndk1::vector<BigPicButton, std::__ndk1::allocator<BigPicButton> >)::$_1>, void (CCMenuItemSpriteExtra*)>::target(std::type_info const&) const
FUNC 24098 c 0 std::__ndk1::__function::__func<BPAlert::init(std::__ndk1::basic_string<char, std::__ndk1::char_traits<char>, std::__ndk1::allocator<char> >, std::__ndk1::vector<BigPicButton, std::__ndk1::allocator<BigPicButton> >)::$_1, std::__ndk1::allocator<BPAlert::init(std::__ndk1::basic_string<char, std::__ndk1::char_traits<char>, std::__ndk1::allocator<char> >, std::__ndk1::vector<BigPicButton, std::__ndk1::allocator<BigPicButton> >)::$_1>, void (CCMenuItemSpriteExtra*)>::target_type() const
FUNC 240a4 40 0 std::__ndk1::__function::__func<BPAlert::regenItems(int)::$_0, std::__ndk1::allocator<BPAlert::regenItems(int)::$_0>, void (CCMenuItemSpriteExtra*)>::~__func()
FUNC 240e4 44 0 std::__ndk1::__function::__func<BPAlert::regenItems(int)::$_0, std::__ndk1::allocator<BPAlert::regenItems(int)::$_0>, void (CCMenuItemSpriteExtra*)>::~__func()
FUNC 24128 9c 0 std::__ndk1::__function::__func<BPAlert::regenItems(int)::$_0, std::__ndk1::allocator<BPAlert::regenItems(int)::$_0>, void (CCMenuItemSpriteExtra*)>::__clone() const
FUNC 241c4 8c 0 std::__ndk1::__function::__func<BPAlert::regenItems(int)::$_0, std::__ndk1::allocator<BPAlert::regenItems(int)::$_0>, void (CCMenuItemSpriteExtra*)>::__clone(std::__ndk1::__function::__base<void (CCMenuItemSpriteExtra*)>*) const
FUNC 24250 32 0 std::__ndk1::__function::__func<BPAlert::regenItems(int)::$_0, std::__ndk1::allocator<BPAlert::regenItems(int)::$_0>, void (CCMenuItemSpriteExtra*)>::destroy()
FUNC 24282 36 0 std::__ndk1::__function::__func<BPAlert::regenItems(int)::$_0, std::__ndk1::allocator<BPAlert::regenItems(int)::$_0>, void (CCMenuItemSpriteExtra*)>::destroy_deallocate()
FUNC 242b8 34 0 std::__ndk1::__function::__func<BPAlert::regenItems(int)::$_0, std::__ndk1::allocator<BPAlert::regenItems(int)::$_0>, void (CCMenuItemSpriteExtra*)>::operator()(CCMenuItemSpriteExtra*&&)
FUNC 242ec 18 0 std::__ndk1::__function::__func<BPAlert::regenItems(int)::$_0, std::__ndk1::allocator<BPAlert::regenItems(int)::$_0>, void (CCMenuItemSpriteExtra*)>::target(std::type_info const&) const
FUNC 24304 c 0 std::__ndk1::__function::__func<BPAlert::regenItems(int)::$_0, std::__ndk1::allocator<BPAlert::regenItems(int)::$_0>, void (CCMenuItemSpriteExtra*)>::target_type() const
FUNC 24310 764 0 BPBottomLayer::init()
FUNC 24a74 174 0 BPBottomLayer::changeButtonState(int)
FUNC 24be8 10 0 BPBottomLayer::~BPBottomLayer()
FUNC 24bf8 8 0 {virtual override thunk({offset(-264)}, BPBottomLayer::~BPBottomLayer())}
FUNC 24c00 14 0 {virtual override thunk({offset(-264)}, BPBottomLayer::~BPBottomLayer())}
FUNC 24c14 4 0 std::__ndk1::__function::__func<BPBottomLayer::init()::$_0, std::__ndk1::allocator<BPBottomLayer::init()::$_0>, void (CCMenuItemSpriteExtra*)>::~__func()
FUNC 24c18 20 0 std::__ndk1::__function::__func<BPBottomLayer::init()::$_0, std::__ndk1::allocator<BPBottomLayer::init()::$_0>, void (CCMenuItemSpriteExtra*)>::__clone() const
FUNC 24c38 14 0 std::__ndk1::__function::__func<BPBottomLayer::init()::$_0, std::__ndk1::allocator<BPBottomLayer::init()::$_0>, void (CCMenuItemSpriteExtra*)>::__clone(std::__ndk1::__function::__base<void (CCMenuItemSpriteExtra*)>*) const
FUNC 24c4c 2 0 std::__ndk1::__function::__func<BPBottomLayer::init()::$_0, std::__ndk1::allocator<BPBottomLayer::init()::$_0>, void (CCMenuItemSpriteExtra*)>::destroy()
FUNC 24c4e 4 0 std::__ndk1::__function::__func<BPBottomLayer::init()::$_0, std::__ndk1::allocator<BPBottomLayer::init()::$_0>, void (CCMenuItemSpriteExtra*)>::destroy_deallocate()
FUNC 24c54 98 0 std::__ndk1::__function::__func<BPBottomLayer::init()::$_0, std::__ndk1::allocator<BPBottomLayer::init()::$_0>, void (CCMenuItemSpriteExtra*)>::operator()(CCMenuItemSpriteExtra*&&)
FUNC 24cec 18 0 std::__ndk1::__function::__func<BPBottomLayer::init()::$_0, std::__ndk1::allocator<BPBottomLayer::init()::$_0>, void (CCMenuItemSpriteExtra*)>::target(std::type_info const&) const
FUNC 24d04 c 0 std::__ndk1::__function::__func<BPBottomLayer::init()::$_0, std::__ndk1::allocator<BPBottomLayer::init()::$_0>, void (CCMenuItemSpriteExtra*)>::target_type() const
FUNC 24d10 4 0 std::__ndk1::__function::__func<BPBottomLayer::init()::$_1, std::__ndk1::allocator<BPBottomLayer::init()::$_1>, void (CCMenuItemSpriteExtra*)>::~__func()
FUNC 24d14 18 0 std::__ndk1::__function::__func<BPBottomLayer::init()::$_1, std::__ndk1::allocator<BPBottomLayer::init()::$_1>, void (CCMenuItemSpriteExtra*)>::__clone() const
FUNC 24d2c 10 0 std::__ndk1::__function::__func<BPBottomLayer::init()::$_1, std::__ndk1::allocator<BPBottomLayer::init()::$_1>, void (CCMenuItemSpriteExtra*)>::__clone(std::__ndk1::__function::__base<void (CCMenuItemSpriteExtra*)>*) const
FUNC 24d3c 2 0 std::__ndk1::__function::__func<BPBottomLayer::init()::$_1, std::__ndk1::allocator<BPBottomLayer::init()::$_1>, void (CCMenuItemSpriteExtra*)>::destroy()
FUNC 24d3e 4 0 std::__ndk1::__function::__func<BPBottomLayer::init()::$_1, std::__ndk1::allocator<BPBottomLayer::init()::$_1>, void (CCMenuItemSpriteExtra*)>::destroy_deallocate()
FUNC 24d42 28 0 std::__ndk1::__function::__func<BPBottomLayer::init()::$_1, std::__ndk1::allocator<BPBottomLayer::init()::$_1>, void (CCMenuItemSpriteExtra*)>::operator()(CCMenuItemSpriteExtra*&&)
FUNC 24d6c 18 0 std::__ndk1::__function::__func<BPBottomLayer::init()::$_1, std::__ndk1::allocator<BPBottomLayer::init()::$_1>, void (CCMenuItemSpriteExtra*)>::target(std::type_info const&) const
FUNC 24d84 c 0 std::__ndk1::__function::__func<BPBottomLayer::init()::$_1, std::__ndk1::allocator<BPBottomLayer::init()::$_1>, void (CCMenuItemSpriteExtra*)>::target_type() const
FUNC 24d90 4 0 std::__ndk1::__function::__func<BPBottomLayer::init()::$_2, std::__ndk1::allocator<BPBottomLayer::init()::$_2>, void (CCMenuItemSpriteExtra*)>::~__func()
FUNC 24d94 18 0 std::__ndk1::__function::__func<BPBottomLayer::init()::$_2, std::__ndk1::allocator<BPBottomLayer::init()::$_2>, void (CCMenuItemSpriteExtra*)>::__clone() const
FUNC 24dac 10 0 std::__ndk1::__function::__func<BPBottomLayer::init()::$_2, std::__ndk1::allocator<BPBottomLayer::init()::$_2>, void (CCMenuItemSpriteExtra*)>::__clone(std::__ndk1::__function::__base<void (CCMenuItemSpriteExtra*)>*) const
FUNC 24dbc 2 0 std::__ndk1::__function::__func<BPBottomLayer::init()::$_2, std::__ndk1::allocator<BPBottomLayer::init()::$_2>, void (CCMenuItemSpriteExtra*)>::destroy()
FUNC 24dbe 4 0 std::__ndk1::__function::__func<BPBottomLayer::init()::$_2, std::__ndk1::allocator<BPBottomLayer::init()::$_2>, void (CCMenuItemSpriteExtra*)>::destroy_deallocate()
FUNC 24dc2 28 0 std::__ndk1::__function::__func<BPBottomLayer::init()::$_2, std::__ndk1::allocator<BPBottomLayer::init()::$_2>, void (CCMenuItemSpriteExtra*)>::operator()(CCMenuItemSpriteExtra*&&)
FUNC 24dec 18 0 std::__ndk1::__function::__func<BPBottomLayer::init()::$_2, std::__ndk1::allocator<BPBottomLayer::init()::$_2>, void (CCMenuItemSpriteExtra*)>::target(std::type_info const&) const
FUNC 24e04 c 0 std::__ndk1::__function::__func<BPBottomLayer::init()::$_2, std::__ndk1::allocator<BPBottomLayer::init()::$_2>, void (CCMenuItemSpriteExtra*)>::target_type() const
FUNC 24e10 4 0 std::__ndk1::__function::__func<BPBottomLayer::init()::$_3, std::__ndk1::allocator<BPBottomLayer::init()::$_3>, void (CCMenuItemSpriteExtra*)>::~__func()
FUNC 24e14 18 0 std::__ndk1::__function::__func<BPBottomLayer::init()::$_3, std::__ndk1::allocator<BPBottomLayer::init()::$_3>, void (CCMenuItemSpriteExtra*)>::__clone() const
FUNC 24e2c 10 0 std::__ndk1::__function::__func<BPBottomLayer::init()::$_3, std::__ndk1::allocator<BPBottomLayer::init()::$_3>, void (CCMenuItemSpriteExtra*)>::__clone(std::__ndk1::__function::__base<void (CCMenuItemSpriteExtra*)>*) const
FUNC 24e3c 2 0 std::__ndk1::__function::__func<BPBottomLayer::init()::$_3, std::__ndk1::allocator<BPBottomLayer::init()::$_3>, void (CCMenuItemSpriteExtra*)>::destroy()
FUNC 24e3e 4 0 std::__ndk1::__function::__func<BPBottomLayer::init()::$_3, std::__ndk1::allocator<BPBottomLayer::init()::$_3>, void (CCMenuItemSpriteExtra*)>::destroy_deallocate()
FUNC 24e42 28 0 std::__ndk1::__function::__func<BPBottomLayer::init()::$_3, std::__ndk1::allocator<BPBottomLayer::init()::$_3>, void (CCMenuItemSpriteExtra*)>::operator()(CCMenuItemSpriteExtra*&&)
FUNC 24e6c 18 0 std::__ndk1::__function::__func<BPBottomLayer::init()::$_3, std::__ndk1::allocator<BPBottomLayer::init()::$_3>, void (CCMenuItemSpriteExtra*)>::target(std::type_info const&) const
FUNC 24e84 c 0 std::__ndk1::__function::__func<BPBottomLayer::init()::$_3, std::__ndk1::allocator<BPBottomLayer::init()::$_3>, void (CCMenuItemSpriteExtra*)>::target_type() const
FUNC 24e90 1dd4 0 BPOptionsLayer::regenCategory(BPCategory)
FUNC 26c64 120 0 BPOptionsLayer::setSMSelected()
FUNC 26d84 d4 0 GMDS_Dictionary::getFloatForKey(GameManager*, std::__ndk1::basic_string<char, std::__ndk1::char_traits<char>, std::__ndk1::allocator<char> >)
FUNC 26e58 40 0 GMDS_Dictionary::getBoolForKey(GameManager*, std::__ndk1::basic_string<char, std::__ndk1::char_traits<char>, std::__ndk1::allocator<char> >)
FUNC 26e98 8b4 0 BPOptionsLayer::updateOption(BPOption, matjson::Value)
FUNC 2774c 20 0 geode::Mod::get<void>()
FUNC 2776c 60 0 geode::impl::ResultData<bool, std::__ndk1::basic_string<char, std::__ndk1::char_traits<char>, std::__ndk1::allocator<char> > >::~ResultData()
FUNC 277cc fc 0 geode::Mod::getSettingValue<cocos2d::_ccColor3B>(std::__ndk1::basic_string_view<char, std::__ndk1::char_traits<char> >) const
FUNC 278c8 60 0 geode::impl::ResultData<std::__ndk1::vector<matjson::Value, std::__ndk1::allocator<matjson::Value> >&, std::__ndk1::basic_string<char, std::__ndk1::char_traits<char>, std::__ndk1::allocator<char> > >::~ResultData()
FUNC 27928 60 0 geode::impl::ResultData<std::__ndk1::basic_string<char, std::__ndk1::char_traits<char>, std::__ndk1::allocator<char> >, std::__ndk1::basic_string<char, std::__ndk1::char_traits<char>, std::__ndk1::allocator<char> > >::~ResultData()
FUNC 27988 60 0 geode::impl::ResultData<long long, std::__ndk1::basic_string<char, std::__ndk1::char_traits<char>, std::__ndk1::allocator<char> > >::~ResultData()
FUNC 279e8 2a 0 std::__ndk1::vector<matjson::Value, std::__ndk1::allocator<matjson::Value> >::~vector[abi:ne180000]()
FUNC 27a14 244 0 BPOptionsLayer::onSliderChange(cocos2d::CCObject*)
FUNC 27c58 cc 0 BPOption::BPOption(BPOption const&)
FUNC 27d24 44 0 BPOption::~BPOption()
FUNC 27d68 44 0 BPOptionsLayer::regenCategory(BPCategory)::$_0::~$_0()
FUNC 27dac 44 0 BPOptionsLayer::regenCategory(BPCategory)::$_1::~$_1()
FUNC 27df0 44 0 BPOptionsLayer::regenCategory(BPCategory)::$_2::~$_2()
FUNC 27e34 44 0 BPOptionsLayer::regenCategory(BPCategory)::$_3::~$_3()
FUNC 27e78 bc 0 geode::cocos::CCMenuItemExt::createSpriteExtraWithFilename(std::__ndk1::basic_string_view<char, std::__ndk1::char_traits<char> >, float, std::__ndk1::function<void (CCMenuItemSpriteExtra*)>)
FUNC 27f34 5e 0 BPOptionsLayer::regenCategory(BPCategory)::$_4::~$_4()
FUNC 27f94 30c 0 BPOptionsLayer::keyPressDown(cocos2d::enumKeyCodes)
FUNC 282a0 72 0 std::__ndk1::__exception_guard_exceptions<std::__ndk1::_AllocatorDestroyRangeReverse<std::__ndk1::allocator<BPOption>, BPOption*> >::~__exception_guard_exceptions[abi:ne180000]()
FUNC 28314 10 0 std::__ndk1::vector<BPOption, std::__ndk1::allocator<BPOption> >::__throw_length_error[abi:ne180000]() const
FUNC 28324 82 0 std::__ndk1::vector<BPOption, std::__ndk1::allocator<BPOption> >::__destroy_vector::operator()[abi:ne180000]()
FUNC 283a6 2 0 std::__ndk1::__variant_detail::__visitation::__base::__dispatcher<(unsigned int)0>::__dispatch[abi:ne180000]<std::__ndk1::__variant_detail::__dtor<std::__ndk1::__variant_detail::__traits<bool, std::__ndk1::basic_string<char, std::__ndk1::char_traits<char>, std::__ndk1::allocator<char> > >, (std::__ndk1::__variant_detail::_Trait)1>::__destroy[abi:ne180000]()::{lambda(auto:1&)#1}, std::__ndk1::__variant_detail::__base<(std::__ndk1::__variant_detail::__traits<bool, std::__ndk1::basic_string<char, std::__ndk1::char_traits<char>, std::__ndk1::allocator<char> > >)1, bool, std::__ndk1::allocator<char> >&>(std::__ndk1::__variant_detail::__dtor<std::__ndk1::__variant_detail::__traits<bool, std::__ndk1::basic_string<char, std::__ndk1::char_traits<char>, std::__ndk1::allocator<char> > >, (std::__ndk1::__variant_detail::_Trait)1>, std::__ndk1::__variant_detail::__base<(std::__ndk1::__variant_detail::__traits<bool, std::__ndk1::basic_string<char, std::__ndk1::char_traits<char>, std::__ndk1::allocator<char> > >)1, bool, std::__ndk1::allocator<char> >&)
FUNC 283a8 e 0 std::__ndk1::__variant_detail::__visitation::__base::__dispatcher<(unsigned int)1>::__dispatch[abi:ne180000]<std::__ndk1::__variant_detail::__dtor<std::__ndk1::__variant_detail::__traits<bool, std::__ndk1::basic_string<char, std::__ndk1::char_traits<char>, std::__ndk1::allocator<char> > >, (std::__ndk1::__variant_detail::_Trait)1>::__destroy[abi:ne180000]()::{lambda(auto:1&)#1}, std::__ndk1::__variant_detail::__base<(std::__ndk1::__variant_detail::__traits<bool, std::__ndk1::basic_string<char, std::__ndk1::char_traits<char>, std::__ndk1::allocator<char> > >)1, bool, std::__ndk1::allocator<char> >&>(std::__ndk1::__variant_detail::__dtor<std::__ndk1::__variant_detail::__traits<bool, std::__ndk1::basic_string<char, std::__ndk1::char_traits<char>, std::__ndk1::allocator<char> > >, (std::__ndk1::__variant_detail::_Trait)1>, std::__ndk1::__variant_detail::__base<(std::__ndk1::__variant_detail::__traits<bool, std::__ndk1::basic_string<char, std::__ndk1::char_traits<char>, std::__ndk1::allocator<char> > >)1, bool, std::__ndk1::allocator<char> >&)
FUNC 283b8 a8 0 std::__ndk1::vector<matjson::Value, std::__ndk1::allocator<matjson::Value> >::__init_with_size[abi:ne180000]<matjson::Value*, std::__ndk1::vector<matjson::Value, std::__ndk1::allocator<matjson::Value> >::__init_with_size[abi:ne180000]>(matjson::Value*, std::__ndk1::vector<matjson::Value, std::__ndk1::allocator<matjson::Value> >::__init_with_size[abi:ne180000], unsigned int)
FUNC 28460 42 0 std::__ndk1::__exception_guard_exceptions<std::__ndk1::vector<matjson::Value, std::__ndk1::allocator<matjson::Value> >::__destroy_vector>::~__exception_guard_exceptions[abi:ne180000]()
FUNC 284a4 10 0 std::__ndk1::vector<matjson::Value, std::__ndk1::allocator<matjson::Value> >::__throw_length_error[abi:ne180000]() const
FUNC 284b4 2 0 std::__ndk1::__variant_detail::__visitation::__base::__dispatcher<(unsigned int)0>::__dispatch[abi:ne180000]<std::__ndk1::__variant_detail::__dtor<std::__ndk1::__variant_detail::__traits<std::__ndk1::reference_wrapper<std::__ndk1::vector<matjson::Value, std::__ndk1::allocator<matjson> > >, std::__ndk1::basic_string<char, std::__ndk1::char_traits<char>, matjson::Value<char> > >, (std::__ndk1::__variant_detail::_Trait)1>::__destroy[abi:ne180000]()::{lambda(auto:1&)#1}, std::__ndk1::__variant_detail::__base<(std::__ndk1::__variant_detail::__traits<std::__ndk1::reference_wrapper<std::__ndk1::vector<matjson::Value, std::__ndk1::allocator<matjson> > >, std::__ndk1::basic_string<char, std::__ndk1::char_traits<char>, matjson::Value<char> > >)1, std::__ndk1::vector<matjson::Value, std::__ndk1::allocator<matjson> >, matjson::Value<char> >&>(std::__ndk1::__variant_detail::__dtor<std::__ndk1::__variant_detail::__traits<std::__ndk1::reference_wrapper<std::__ndk1::vector<matjson::Value, std::__ndk1::allocator<matjson> > >, std::__ndk1::basic_string<char, std::__ndk1::char_traits<char>, matjson::Value<char> > >, (std::__ndk1::__variant_detail::_Trait)1>, std::__ndk1::__variant_detail::__base<(std::__ndk1::__variant_detail::__traits<std::__ndk1::reference_wrapper<std::__ndk1::vector<matjson::Value, std::__ndk1::allocator<matjson> > >, std::__ndk1::basic_string<char, std::__ndk1::char_traits<char>, matjson::Value<char> > >)1, std::__ndk1::vector<matjson::Value, std::__ndk1::allocator<matjson> >, matjson::Value<char> >&)
FUNC 284b6 e 0 std::__ndk1::__variant_detail::__visitation::__base::__dispatcher<(unsigned int)1>::__dispatch[abi:ne180000]<std::__ndk1::__variant_detail::__dtor<std::__ndk1::__variant_detail::__traits<std::__ndk1::reference_wrapper<std::__ndk1::vector<matjson::Value, std::__ndk1::allocator<matjson> > >, std::__ndk1::basic_string<char, std::__ndk1::char_traits<char>, matjson::Value<char> > >, (std::__ndk1::__variant_detail::_Trait)1>::__destroy[abi:ne180000]()::{lambda(auto:1&)#1}, std::__ndk1::__variant_detail::__base<(std::__ndk1::__variant_detail::__traits<std::__ndk1::reference_wrapper<std::__ndk1::vector<matjson::Value, std::__ndk1::allocator<matjson> > >, std::__ndk1::basic_string<char, std::__ndk1::char_traits<char>, matjson::Value<char> > >)1, std::__ndk1::vector<matjson::Value, std::__ndk1::allocator<matjson> >, matjson::Value<char> >&>(std::__ndk1::__variant_detail::__dtor<std::__ndk1::__variant_detail::__traits<std::__ndk1::reference_wrapper<std::__ndk1::vector<matjson::Value, std::__ndk1::allocator<matjson> > >, std::__ndk1::basic_string<char, std::__ndk1::char_traits<char>, matjson::Value<char> > >, (std::__ndk1::__variant_detail::_Trait)1>, std::__ndk1::__variant_detail::__base<(std::__ndk1::__variant_detail::__traits<std::__ndk1::reference_wrapper<std::__ndk1::vector<matjson::Value, std::__ndk1::allocator<matjson> > >, std::__ndk1::basic_string<char, std::__ndk1::char_traits<char>, matjson::Value<char> > >)1, std::__ndk1::vector<matjson::Value, std::__ndk1::allocator<matjson> >, matjson::Value<char> >&)
FUNC 284c4 e 0 std::__ndk1::__variant_detail::__visitation::__base::__dispatcher<(unsigned int)0>::__dispatch[abi:ne180000]<std::__ndk1::__variant_detail::__dtor<std::__ndk1::__variant_detail::__traits<std::__ndk1::basic_string<char, std::__ndk1::char_traits<char>, std::__ndk1::allocator<char> >, std::__ndk1::allocator<char> >, (std::__ndk1::__variant_detail::_Trait)1>::__destroy[abi:ne180000]()::{lambda(auto:1&)#1}, std::__ndk1::__variant_detail::__base<(std::__ndk1::__variant_detail::__traits<std::__ndk1::basic_string<char, std::__ndk1::char_traits<char>, std::__ndk1::allocator<char> >, std::__ndk1::allocator<char> >)1, std::__ndk1::allocator<char>, std::__ndk1::allocator<char> >&>(std::__ndk1::__variant_detail::__dtor<std::__ndk1::__variant_detail::__traits<std::__ndk1::basic_string<char, std::__ndk1::char_traits<char>, std::__ndk1::allocator<char> >, std::__ndk1::allocator<char> >, (std::__ndk1::__variant_detail::_Trait)1>, std::__ndk1::__variant_detail::__base<(std::__ndk1::__variant_detail::__traits<std::__ndk1::basic_string<char, std::__ndk1::char_traits<char>, std::__ndk1::allocator<char> >, std::__ndk1::allocator<char> >)1, std::__ndk1::allocator<char>, std::__ndk1::allocator<char> >&)
FUNC 284d2 e 0 std::__ndk1::__variant_detail::__visitation::__base::__dispatcher<(unsigned int)1>::__dispatch[abi:ne180000]<std::__ndk1::__variant_detail::__dtor<std::__ndk1::__variant_detail::__traits<std::__ndk1::basic_string<char, std::__ndk1::char_traits<char>, std::__ndk1::allocator<char> >, std::__ndk1::allocator<char> >, (std::__ndk1::__variant_detail::_Trait)1>::__destroy[abi:ne180000]()::{lambda(auto:1&)#1}, std::__ndk1::__variant_detail::__base<(std::__ndk1::__variant_detail::__traits<std::__ndk1::basic_string<char, std::__ndk1::char_traits<char>, std::__ndk1::allocator<char> >, std::__ndk1::allocator<char> >)1, std::__ndk1::allocator<char>, std::__ndk1::allocator<char> >&>(std::__ndk1::__variant_detail::__dtor<std::__ndk1::__variant_detail::__traits<std::__ndk1::basic_string<char, std::__ndk1::char_traits<char>, std::__ndk1::allocator<char> >, std::__ndk1::allocator<char> >, (std::__ndk1::__variant_detail::_Trait)1>, std::__ndk1::__variant_detail::__base<(std::__ndk1::__variant_detail::__traits<std::__ndk1::basic_string<char, std::__ndk1::char_traits<char>, std::__ndk1::allocator<char> >, std::__ndk1::allocator<char> >)1, std::__ndk1::allocator<char>, std::__ndk1::allocator<char> >&)
FUNC 284e0 2 0 std::__ndk1::__variant_detail::__visitation::__base::__dispatcher<(unsigned int)0>::__dispatch[abi:ne180000]<std::__ndk1::__variant_detail::__dtor<std::__ndk1::__variant_detail::__traits<long long, std::__ndk1::basic_string<char, std::__ndk1::char_traits<char>, std::__ndk1::allocator<char> > >, (std::__ndk1::__variant_detail::_Trait)1>::__destroy[abi:ne180000]()::{lambda(auto:1&)#1}, std::__ndk1::__variant_detail::__base<(std::__ndk1::__variant_detail::__traits<long long, std::__ndk1::basic_string<char, std::__ndk1::char_traits<char>, std::__ndk1::allocator<char> > >)1, long long, std::__ndk1::allocator<char> >&>(std::__ndk1::__variant_detail::__dtor<std::__ndk1::__variant_detail::__traits<long long, std::__ndk1::basic_string<char, std::__ndk1::char_traits<char>, std::__ndk1::allocator<char> > >, (std::__ndk1::__variant_detail::_Trait)1>, std::__ndk1::__variant_detail::__base<(std::__ndk1::__variant_detail::__traits<long long, std::__ndk1::basic_string<char, std::__ndk1::char_traits<char>, std::__ndk1::allocator<char> > >)1, long long, std::__ndk1::allocator<char> >&)
FUNC 284e2 e 0 std::__ndk1::__variant_detail::__visitation::__base::__dispatcher<(unsigned int)1>::__dispatch[abi:ne180000]<std::__ndk1::__variant_detail::__dtor<std::__ndk1::__variant_detail::__traits<long long, std::__ndk1::basic_string<char, std::__ndk1::char_traits<char>, std::__ndk1::allocator<char> > >, (std::__ndk1::__variant_detail::_Trait)1>::__destroy[abi:ne180000]()::{lambda(auto:1&)#1}, std::__ndk1::__variant_detail::__base<(std::__ndk1::__variant_detail::__traits<long long, std::__ndk1::basic_string<char, std::__ndk1::char_traits<char>, std::__ndk1::allocator<char> > >)1, long long, std::__ndk1::allocator<char> >&>(std::__ndk1::__variant_detail::__dtor<std::__ndk1::__variant_detail::__traits<long long, std::__ndk1::basic_string<char, std::__ndk1::char_traits<char>, std::__ndk1::allocator<char> > >, (std::__ndk1::__variant_detail::_Trait)1>, std::__ndk1::__variant_detail::__base<(std::__ndk1::__variant_detail::__traits<long long, std::__ndk1::basic_string<char, std::__ndk1::char_traits<char>, std::__ndk1::allocator<char> > >)1, long long, std::__ndk1::allocator<char> >&)
FUNC 284f0 10 0 BreakLine::~BreakLine()
FUNC 28500 7c 0 BreakLine::draw()
FUNC 2857c 3a 0 std::__ndk1::shared_ptr<geode::BoolSettingV3>::~shared_ptr[abi:ne180000]()
FUNC 285b8 54 0 std::__ndk1::__function::__func<BPOptionsLayer::regenCategory(BPCategory)::$_0, std::__ndk1::allocator<BPOptionsLayer::regenCategory(BPCategory)::$_0>, void (CCMenuItemSpriteExtra*)>::~__func()
FUNC 2860c 5c 0 std::__ndk1::__function::__func<BPOptionsLayer::regenCategory(BPCategory)::$_0, std::__ndk1::allocator<BPOptionsLayer::regenCategory(BPCategory)::$_0>, void (CCMenuItemSpriteExtra*)>::~__func()
FUNC 28668 38 0 std::__ndk1::__function::__func<BPOptionsLayer::regenCategory(BPCategory)::$_0, std::__ndk1::allocator<BPOptionsLayer::regenCategory(BPCategory)::$_0>, void (CCMenuItemSpriteExtra*)>::__clone() const
FUNC 286a0 20 0 std::__ndk1::__function::__func<BPOptionsLayer::regenCategory(BPCategory)::$_0, std::__ndk1::allocator<BPOptionsLayer::regenCategory(BPCategory)::$_0>, void (CCMenuItemSpriteExtra*)>::__clone(std::__ndk1::__function::__base<void (CCMenuItemSpriteExtra*)>*) const
FUNC 286c0 48 0 std::__ndk1::__function::__func<BPOptionsLayer::regenCategory(BPCategory)::$_0, std::__ndk1::allocator<BPOptionsLayer::regenCategory(BPCategory)::$_0>, void (CCMenuItemSpriteExtra*)>::destroy()
FUNC 28708 4c 0 std::__ndk1::__function::__func<BPOptionsLayer::regenCategory(BPCategory)::$_0, std::__ndk1::allocator<BPOptionsLayer::regenCategory(BPCategory)::$_0>, void (CCMenuItemSpriteExtra*)>::destroy_deallocate()
FUNC 28754 a8 0 std::__ndk1::__function::__func<BPOptionsLayer::regenCategory(BPCategory)::$_0, std::__ndk1::allocator<BPOptionsLayer::regenCategory(BPCategory)::$_0>, void (CCMenuItemSpriteExtra*)>::operator()(CCMenuItemSpriteExtra*&&)
FUNC 287fc 18 0 std::__ndk1::__function::__func<BPOptionsLayer::regenCategory(BPCategory)::$_0, std::__ndk1::allocator<BPOptionsLayer::regenCategory(BPCategory)::$_0>, void (CCMenuItemSpriteExtra*)>::target(std::type_info const&) const
FUNC 28814 c 0 std::__ndk1::__function::__func<BPOptionsLayer::regenCategory(BPCategory)::$_0, std::__ndk1::allocator<BPOptionsLayer::regenCategory(BPCategory)::$_0>, void (CCMenuItemSpriteExtra*)>::target_type() const
FUNC 28820 54 0 std::__ndk1::__function::__func<BPOptionsLayer::regenCategory(BPCategory)::$_1, std::__ndk1::allocator<BPOptionsLayer::regenCategory(BPCategory)::$_1>, void (CCMenuItemSpriteExtra*)>::~__func()
FUNC 28874 58 0 std::__ndk1::__function::__func<BPOptionsLayer::regenCategory(BPCategory)::$_1, std::__ndk1::allocator<BPOptionsLayer::regenCategory(BPCategory)::$_1>, void (CCMenuItemSpriteExtra*)>::~__func()
FUNC 288cc 38 0 std::__ndk1::__function::__func<BPOptionsLayer::regenCategory(BPCategory)::$_1, std::__ndk1::allocator<BPOptionsLayer::regenCategory(BPCategory)::$_1>, void (CCMenuItemSpriteExtra*)>::__clone() const
FUNC 28904 1c 0 std::__ndk1::__function::__func<BPOptionsLayer::regenCategory(BPCategory)::$_1, std::__ndk1::allocator<BPOptionsLayer::regenCategory(BPCategory)::$_1>, void (CCMenuItemSpriteExtra*)>::__clone(std::__ndk1::__function::__base<void (CCMenuItemSpriteExtra*)>*) const
FUNC 28920 46 0 std::__ndk1::__function::__func<BPOptionsLayer::regenCategory(BPCategory)::$_1, std::__ndk1::allocator<BPOptionsLayer::regenCategory(BPCategory)::$_1>, void (CCMenuItemSpriteExtra*)>::destroy()
FUNC 28966 4a 0 std::__ndk1::__function::__func<BPOptionsLayer::regenCategory(BPCategory)::$_1, std::__ndk1::allocator<BPOptionsLayer::regenCategory(BPCategory)::$_1>, void (CCMenuItemSpriteExtra*)>::destroy_deallocate()
FUNC 289b0 58 0 std::__ndk1::__function::__func<BPOptionsLayer::regenCategory(BPCategory)::$_1, std::__ndk1::allocator<BPOptionsLayer::regenCategory(BPCategory)::$_1>, void (CCMenuItemSpriteExtra*)>::operator()(CCMenuItemSpriteExtra*&&)
FUNC 28a08 18 0 std::__ndk1::__function::__func<BPOptionsLayer::regenCategory(BPCategory)::$_1, std::__ndk1::allocator<BPOptionsLayer::regenCategory(BPCategory)::$_1>, void (CCMenuItemSpriteExtra*)>::target(std::type_info const&) const
FUNC 28a20 c 0 std::__ndk1::__function::__func<BPOptionsLayer::regenCategory(BPCategory)::$_1, std::__ndk1::allocator<BPOptionsLayer::regenCategory(BPCategory)::$_1>, void (CCMenuItemSpriteExtra*)>::target_type() const
FUNC 28a2c 54 0 std::__ndk1::__function::__func<BPOptionsLayer::regenCategory(BPCategory)::$_2, std::__ndk1::allocator<BPOptionsLayer::regenCategory(BPCategory)::$_2>, void (std::__ndk1::basic_string<char, std::__ndk1::char_traits<char>, std::__ndk1::allocator<char> > const&)>::~__func()
FUNC 28a80 58 0 std::__ndk1::__function::__func<BPOptionsLayer::regenCategory(BPCategory)::$_2, std::__ndk1::allocator<BPOptionsLayer::regenCategory(BPCategory)::$_2>, void (std::__ndk1::basic_string<char, std::__ndk1::char_traits<char>, std::__ndk1::allocator<char> > const&)>::~__func()
FUNC 28ad8 3c 0 std::__ndk1::__function::__func<BPOptionsLayer::regenCategory(BPCategory)::$_2, std::__ndk1::allocator<BPOptionsLayer::regenCategory(BPCategory)::$_2>, void (std::__ndk1::basic_string<char, std::__ndk1::char_traits<char>, std::__ndk1::allocator<char> > const&)>::__clone() const
FUNC 28b14 28 0 std::__ndk1::__function::__func<BPOptionsLayer::regenCategory(BPCategory)::$_2, std::__ndk1::allocator<BPOptionsLayer::regenCategory(BPCategory)::$_2>, void (std::__ndk1::basic_string<char, std::__ndk1::char_traits<char>, std::__ndk1::allocator<char> > const&)>::__clone(std::__ndk1::__function::__base<void (std::__ndk1::basic_string<char, std::__ndk1::char_traits<char>, std::__ndk1::allocator<char> > const&)>*) const
FUNC 28b3c 46 0 std::__ndk1::__function::__func<BPOptionsLayer::regenCategory(BPCategory)::$_2, std::__ndk1::allocator<BPOptionsLayer::regenCategory(BPCategory)::$_2>, void (std::__ndk1::basic_string<char, std::__ndk1::char_traits<char>, std::__ndk1::allocator<char> > const&)>::destroy()
FUNC 28b82 4a 0 std::__ndk1::__function::__func<BPOptionsLayer::regenCategory(BPCategory)::$_2, std::__ndk1::allocator<BPOptionsLayer::regenCategory(BPCategory)::$_2>, void (std::__ndk1::basic_string<char, std::__ndk1::char_traits<char>, std::__ndk1::allocator<char> > const&)>::destroy_deallocate()
FUNC 28bcc 124 0 std::__ndk1::__function::__func<BPOptionsLayer::regenCategory(BPCategory)::$_2, std::__ndk1::allocator<BPOptionsLayer::regenCategory(BPCategory)::$_2>, void (std::__ndk1::basic_string<char, std::__ndk1::char_traits<char>, std::__ndk1::allocator<char> > const&)>::operator()(std::__ndk1::basic_string<char, std::__ndk1::char_traits<char>, std::__ndk1::allocator<char> > const&)
FUNC 28cf0 18 0 std::__ndk1::__function::__func<BPOptionsLayer::regenCategory(BPCategory)::$_2, std::__ndk1::allocator<BPOptionsLayer::regenCategory(BPCategory)::$_2>, void (std::__ndk1::basic_string<char, std::__ndk1::char_traits<char>, std::__ndk1::allocator<char> > const&)>::target(std::type_info const&) const
FUNC 28d08 c 0 std::__ndk1::__function::__func<BPOptionsLayer::regenCategory(BPCategory)::$_2, std::__ndk1::allocator<BPOptionsLayer::regenCategory(BPCategory)::$_2>, void (std::__ndk1::basic_string<char, std::__ndk1::char_traits<char>, std::__ndk1::allocator<char> > const&)>::target_type() const
FUNC 28d14 54 0 std::__ndk1::__function::__func<BPOptionsLayer::regenCategory(BPCategory)::$_3, std::__ndk1::allocator<BPOptionsLayer::regenCategory(BPCategory)::$_3>, void ()>::~__func()
FUNC 28d68 5c 0 std::__ndk1::__function::__func<BPOptionsLayer::regenCategory(BPCategory)::$_3, std::__ndk1::allocator<BPOptionsLayer::regenCategory(BPCategory)::$_3>, void ()>::~__func()
FUNC 28dc4 3c 0 std::__ndk1::__function::__func<BPOptionsLayer::regenCategory(BPCategory)::$_3, std::__ndk1::allocator<BPOptionsLayer::regenCategory(BPCategory)::$_3>, void ()>::__clone() const
FUNC 28e00 2c 0 std::__ndk1::__function::__func<BPOptionsLayer::regenCategory(BPCategory)::$_3, std::__ndk1::allocator<BPOptionsLayer::regenCategory(BPCategory)::$_3>, void ()>::__clone(std::__ndk1::__function::__base<void ()>*) const
FUNC 28e2c 48 0 std::__ndk1::__function::__func<BPOptionsLayer::regenCategory(BPCategory)::$_3, std::__ndk1::allocator<BPOptionsLayer::regenCategory(BPCategory)::$_3>, void ()>::destroy()
FUNC 28e74 4c 0 std::__ndk1::__function::__func<BPOptionsLayer::regenCategory(BPCategory)::$_3, std::__ndk1::allocator<BPOptionsLayer::regenCategory(BPCategory)::$_3>, void ()>::destroy_deallocate()
FUNC 28ec0 ac 0 std::__ndk1::__function::__func<BPOptionsLayer::regenCategory(BPCategory)::$_3, std::__ndk1::allocator<BPOptionsLayer::regenCategory(BPCategory)::$_3>, void ()>::operator()()
FUNC 28f6c 18 0 std::__ndk1::__function::__func<BPOptionsLayer::regenCategory(BPCategory)::$_3, std::__ndk1::allocator<BPOptionsLayer::regenCategory(BPCategory)::$_3>, void ()>::target(std::type_info const&) const
FUNC 28f84 c 0 std::__ndk1::__function::__func<BPOptionsLayer::regenCategory(BPCategory)::$_3, std::__ndk1::allocator<BPOptionsLayer::regenCategory(BPCategory)::$_3>, void ()>::target_type() const
FUNC 28f90 6c 0 std::__ndk1::__function::__func<BPOptionsLayer::regenCategory(BPCategory)::$_4, std::__ndk1::allocator<BPOptionsLayer::regenCategory(BPCategory)::$_4>, void (CCMenuItemSpriteExtra*)>::~__func()
FUNC 28ffc 74 0 std::__ndk1::__function::__func<BPOptionsLayer::regenCategory(BPCategory)::$_4, std::__ndk1::allocator<BPOptionsLayer::regenCategory(BPCategory)::$_4>, void (CCMenuItemSpriteExtra*)>::~__func()
FUNC 29070 34 0 std::__ndk1::__function::__func<BPOptionsLayer::regenCategory(BPCategory)::$_4, std::__ndk1::allocator<BPOptionsLayer::regenCategory(BPCategory)::$_4>, void (CCMenuItemSpriteExtra*)>::__clone() const
FUNC 290a4 18 0 std::__ndk1::__function::__func<BPOptionsLayer::regenCategory(BPCategory)::$_4, std::__ndk1::allocator<BPOptionsLayer::regenCategory(BPCategory)::$_4>, void (CCMenuItemSpriteExtra*)>::__clone(std::__ndk1::__function::__base<void (CCMenuItemSpriteExtra*)>*) const
FUNC 290bc 64 0 std::__ndk1::__function::__func<BPOptionsLayer::regenCategory(BPCategory)::$_4, std::__ndk1::allocator<BPOptionsLayer::regenCategory(BPCategory)::$_4>, void (CCMenuItemSpriteExtra*)>::destroy()
FUNC 29120 64 0 std::__ndk1::__function::__func<BPOptionsLayer::regenCategory(BPCategory)::$_4, std::__ndk1::allocator<BPOptionsLayer::regenCategory(BPCategory)::$_4>, void (CCMenuItemSpriteExtra*)>::destroy_deallocate()
FUNC 29184 c0 0 std::__ndk1::__function::__func<BPOptionsLayer::regenCategory(BPCategory)::$_4, std::__ndk1::allocator<BPOptionsLayer::regenCategory(BPCategory)::$_4>, void (CCMenuItemSpriteExtra*)>::operator()(CCMenuItemSpriteExtra*&&)
FUNC 29244 18 0 std::__ndk1::__function::__func<BPOptionsLayer::regenCategory(BPCategory)::$_4, std::__ndk1::allocator<BPOptionsLayer::regenCategory(BPCategory)::$_4>, void (CCMenuItemSpriteExtra*)>::target(std::type_info const&) const
FUNC 2925c c 0 std::__ndk1::__function::__func<BPOptionsLayer::regenCategory(BPCategory)::$_4, std::__ndk1::allocator<BPOptionsLayer::regenCategory(BPCategory)::$_4>, void (CCMenuItemSpriteExtra*)>::target_type() const
FUNC 29268 8c0 0 processString(std::__ndk1::basic_string<char, std::__ndk1::char_traits<char>, std::__ndk1::allocator<char> > const&)
FUNC 29b28 60 0 std::__ndk1::basic_ostringstream<char, std::__ndk1::char_traits<char>, std::__ndk1::allocator<char> >::~basic_ostringstream()
FUNC 29b88 1f0 0 BigPictureLayer::buttonCallback(cocos2d::CCObject*)
FUNC 29d78 e0 0 cocos2d::CCNode::getChildByType<MenuLayer>(int)
FUNC 29e58 24c 0 BigPictureLayer::createButton(cocos2d::CCSprite*, std::__ndk1::basic_string<char, std::__ndk1::char_traits<char>, std::__ndk1::allocator<char> >, void (cocos2d::CCObject::*)(cocos2d::CCObject*))
FUNC 2a0a4 2f0 0 BigPictureLayer::createButton(cocos2d::CCSprite*, std::__ndk1::basic_string<char, std::__ndk1::char_traits<char>, std::__ndk1::allocator<char> >, std::__ndk1::function<void (cocos2d::CCObject*)>)
FUNC 2a394 d28 0 BigPictureLayer::init()
FUNC 2b0bc 16 0 geode::cocos::CCArrayExt<CCMenuItemSpriteExtra*>::~CCArrayExt()
FUNC 2b0d4 3bc 0 BigPictureLayer::keyPressDown(cocos2d::enumKeyCodes)
FUNC 2b490 230 0 BigPictureLayer::toggleBar()
FUNC 2b6c0 80 0 BigPictureLayer::toggleBarChangeTop(bool)
FUNC 2b740 8 0 BigPictureLayer::allowSelect()
FUNC 2b748 210 0 BigPictureLayer::toggleBar(bool)
FUNC 2b958 6c0 0 BigPictureLayer::createStatusbar()
FUNC 2c018 70 0 BigPictureLayer::updateTime()
FUNC 2c088 118 0 BigPictureLayer::updateBattery()
FUNC 2c1a0 21c 0 Utils::get_current_time_string()
FUNC 2c3bc 15c 0 BigPictureLayer::BigPictureLayer()
FUNC 2c518 8c 0 BigPictureLayer::~BigPictureLayer()
FUNC 2c5a4 90 0 BigPictureLayer::~BigPictureLayer()
FUNC 2c634 94 0 {virtual override thunk({offset(-264)}, BigPictureLayer::~BigPictureLayer())}
FUNC 2c6c8 98 0 {virtual override thunk({offset(-264)}, BigPictureLayer::~BigPictureLayer())}
FUNC 2c760 10 0 std::__ndk1::basic_string<char, std::__ndk1::char_traits<char>, std::__ndk1::allocator<char> >::__throw_out_of_range[abi:ne180000]() const
FUNC 2c770 a 0 BigProfilePage::byeBye()
FUNC 2c77c 3bc 0 fmt::v11::detail::value<fmt::v11::context>::format_custom_arg<std::__ndk1::vector<std::__ndk1::basic_string<char, std::__ndk1::char_traits<char>, std::__ndk1::allocator<char> >, std::__ndk1::allocator<std::__ndk1::basic_string<char, std::__ndk1::char_traits<char>, std::__ndk1::allocator<char> > > >, fmt::v11::formatter<std::__ndk1::vector<std::__ndk1::basic_string<char, std::__ndk1::char_traits<char>, std::__ndk1::allocator<char> >, std::__ndk1::allocator<std::__ndk1::basic_string<char, std::__ndk1::char_traits<char>, std::__ndk1::allocator<char> > > >, char, void> >(void*, fmt::v11::basic_format_parse_context<char>&, fmt::v11::context&)
FUNC 2cb38 468 0 fmt::v11::detail::parse_format_specs<char>(char const*, char const*, fmt::v11::detail::dynamic_format_specs<char>&, fmt::v11::basic_format_parse_context<char>&, fmt::v11::detail::type)
FUNC 2cfa0 10c 0 fmt::v11::detail::parse_dynamic_spec<char>(char const*, char const*, int&, fmt::v11::detail::arg_ref<char>&, fmt::v11::basic_format_parse_context<char>&)
FUNC 2d0ac 114 0 fmt::v11::detail::do_parse_arg_id<char, fmt::v11::detail::dynamic_spec_id_handler<char>&>(char const*, char const*, fmt::v11::detail::dynamic_spec_id_handler<char>&)
FUNC 2d1c0 bc 0 fmt::v11::detail::handle_dynamic_spec<fmt::v11::detail::width_checker, fmt::v11::context>(int&, fmt::v11::detail::arg_ref<fmt::v11::context::char_type>, fmt::v11::context&)
FUNC 2d27c bc 0 fmt::v11::detail::handle_dynamic_spec<fmt::v11::detail::precision_checker, fmt::v11::context>(int&, fmt::v11::detail::arg_ref<fmt::v11::context::char_type>, fmt::v11::context&)
FUNC 2d338 16c 0 fmt::v11::detail::write<char, fmt::v11::basic_appender<char> >(fmt::v11::basic_appender<char>, fmt::v11::basic_string_view<char>, fmt::v11::format_specs const&)
FUNC 2d4a4 118 0 fmt::v11::detail::write_escaped_string<char, fmt::v11::detail::counting_iterator>(fmt::v11::detail::counting_iterator, fmt::v11::basic_string_view<char>)
FUNC 2d5bc 120 0 fmt::v11::detail::write_padded<char, (fmt::v11::align::type)1, fmt::v11::basic_appender<char>, fmt::v11::detail::write<char, fmt::v11::basic_appender<char> >(fmt::v11::basic_appender<char>, fmt::v11::basic_string_view<char>, fmt::v11::format_specs const&)::{lambda(fmt::v11::basic_appender<char>)#1}>(fmt::v11::basic_appender<char>, fmt::v11::format_specs const&, unsigned int, unsigned int, fmt::v11::detail::write<char, fmt::v11::basic_appender<char> >(fmt::v11::basic_appender<char>, fmt::v11::basic_string_view<char>, fmt::v11::format_specs const&)::{lambda(fmt::v11::basic_appender<char>&&)#1})
FUNC 2d6dc 2c4 0 fmt::v11::detail::for_each_codepoint<fmt::v11::detail::code_point_index(fmt::v11::basic_string_view<char>, unsigned int)::{lambda(unsigned int, fmt::v11::basic_string_view<char>)#1}>(fmt::v11::basic_string_view<char>, fmt::v11::detail::code_point_index(fmt::v11::basic_string_view<char>, unsigned int)::{lambda(unsigned int, fmt::v11::basic_string_view<char>)#1})
FUNC 2d9a0 10c 0 fmt::v11::detail::write_escaped_cp<fmt::v11::detail::counting_iterator, char>(fmt::v11::detail::counting_iterator, fmt::v11::detail::find_escape_result<char> const&)
FUNC 2daac 124 0 fmt::v11::detail::for_each_codepoint<fmt::v11::detail::find_escape(char const*, char const*)::{lambda(unsigned int, fmt::v11::basic_string_view<char>)#1}>(fmt::v11::basic_string_view<char>, fmt::v11::detail::find_escape(char const*, char const*)::{lambda(unsigned int, fmt::v11::basic_string_view<char>)#1})::{lambda(char const*, char const*)#1}::operator()(char const*, char const*) const
FUNC 2dbd0 1e4 0 fmt::v11::detail::for_each_codepoint<fmt::v11::detail::compute_width(fmt::v11::basic_string_view<char>)::count_code_points>(fmt::v11::basic_string_view<char>, fmt::v11::detail::compute_width(fmt::v11::basic_string_view<char>)::count_code_points)::{lambda(char const*, char const*)#1}::operator()(char const*, char const*) const
FUNC 2ddb4 fa 0 fmt::v11::detail::fill<char, fmt::v11::basic_appender<char> >(fmt::v11::basic_appender<char>, unsigned int, fmt::v11::detail::fill_t const&)
FUNC 2deb0 1e4 0 fmt::v11::detail::write_escaped_string<char, fmt::v11::basic_appender<char> >(fmt::v11::basic_appender<char>, fmt::v11::basic_string_view<char>)
FUNC 2e094 118 0 fmt::v11::detail::write_escaped_cp<fmt::v11::basic_appender<char>, char>(fmt::v11::basic_appender<char>, fmt::v11::detail::find_escape_result<char> const&)
FUNC 2e1ac e0 0 fmt::v11::detail::write_codepoint<(unsigned int)2, char, fmt::v11::basic_appender<char> >(fmt::v11::basic_appender<char>, char, unsigned int)
FUNC 2e28c dc 0 fmt::v11::detail::write_codepoint<(unsigned int)4, char, fmt::v11::basic_appender<char> >(fmt::v11::basic_appender<char>, char, unsigned int)
FUNC 2e368 e0 0 fmt::v11::detail::write_codepoint<(unsigned int)8, char, fmt::v11::basic_appender<char> >(fmt::v11::basic_appender<char>, char, unsigned int)
FUNC 2e448 60 0 fmt::v11::detail::get_dynamic_spec<fmt::v11::detail::width_checker, fmt::v11::basic_format_arg<fmt::v11::context> >(fmt::v11::basic_format_arg<fmt::v11::context>)
FUNC 2e4a8 106 0 fmt::v11::basic_format_args<fmt::v11::context>::get<char>(fmt::v11::basic_string_view<char>) const
FUNC 2e5b0 60 0 fmt::v11::detail::get_dynamic_spec<fmt::v11::detail::precision_checker, fmt::v11::basic_format_arg<fmt::v11::context> >(fmt::v11::basic_format_arg<fmt::v11::context>)
FUNC 2e610 4 0 std::__ndk1::__function::__func<BigPictureLayer::buttonCallback(cocos2d::CCObject*)::$_0, std::__ndk1::allocator<BigPictureLayer::buttonCallback(cocos2d::CCObject*)::$_0>, void ()>::~__func()
FUNC 2e614 20 0 std::__ndk1::__function::__func<BigPictureLayer::buttonCallback(cocos2d::CCObject*)::$_0, std::__ndk1::allocator<BigPictureLayer::buttonCallback(cocos2d::CCObject*)::$_0>, void ()>::__clone() const
FUNC 2e634 18 0 std::__ndk1::__function::__func<BigPictureLayer::buttonCallback(cocos2d::CCObject*)::$_0, std::__ndk1::allocator<BigPictureLayer::buttonCallback(cocos2d::CCObject*)::$_0>, void ()>::__clone(std::__ndk1::__function::__base<void ()>*) const
FUNC 2e64c 2 0 std::__ndk1::__function::__func<BigPictureLayer::buttonCallback(cocos2d::CCObject*)::$_0, std::__ndk1::allocator<BigPictureLayer::buttonCallback(cocos2d::CCObject*)::$_0>, void ()>::destroy()
FUNC 2e64e 4 0 std::__ndk1::__function::__func<BigPictureLayer::buttonCallback(cocos2d::CCObject*)::$_0, std::__ndk1::allocator<BigPictureLayer::buttonCallback(cocos2d::CCObject*)::$_0>, void ()>::destroy_deallocate()
FUNC 2e654 174 0 std::__ndk1::__function::__func<BigPictureLayer::buttonCallback(cocos2d::CCObject*)::$_0, std::__ndk1::allocator<BigPictureLayer::buttonCallback(cocos2d::CCObject*)::$_0>, void ()>::operator()()
FUNC 2e7c8 18 0 std::__ndk1::__function::__func<BigPictureLayer::buttonCallback(cocos2d::CCObject*)::$_0, std::__ndk1::allocator<BigPictureLayer::buttonCallback(cocos2d::CCObject*)::$_0>, void ()>::target(std::type_info const&) const
FUNC 2e7e0 c 0 std::__ndk1::__function::__func<BigPictureLayer::buttonCallback(cocos2d::CCObject*)::$_0, std::__ndk1::allocator<BigPictureLayer::buttonCallback(cocos2d::CCObject*)::$_0>, void ()>::target_type() const
FUNC 2e7ec 34 0 std::__ndk1::__function::__func<std::__ndk1::function<void (cocos2d::CCObject*)>, std::__ndk1::allocator<std::__ndk1::function<void (cocos2d::CCObject*)> >, void (CCMenuItemSpriteExtra*)>::~__func()
FUNC 2e820 38 0 std::__ndk1::__function::__func<std::__ndk1::function<void (cocos2d::CCObject*)>, std::__ndk1::allocator<std::__ndk1::function<void (cocos2d::CCObject*)> >, void (CCMenuItemSpriteExtra*)>::~__func()
FUNC 2e858 54 0 std::__ndk1::__function::__func<std::__ndk1::function<void (cocos2d::CCObject*)>, std::__ndk1::allocator<std::__ndk1::function<void (cocos2d::CCObject*)> >, void (CCMenuItemSpriteExtra*)>::__clone() const
FUNC 2e8ac 44 0 std::__ndk1::__function::__func<std::__ndk1::function<void (cocos2d::CCObject*)>, std::__ndk1::allocator<std::__ndk1::function<void (cocos2d::CCObject*)> >, void (CCMenuItemSpriteExtra*)>::__clone(std::__ndk1::__function::__base<void (CCMenuItemSpriteExtra*)>*) const
FUNC 2e8f0 1e 0 std::__ndk1::__function::__func<std::__ndk1::function<void (cocos2d::CCObject*)>, std::__ndk1::allocator<std::__ndk1::function<void (cocos2d::CCObject*)> >, void (CCMenuItemSpriteExtra*)>::destroy()
FUNC 2e90e 2a 0 std::__ndk1::__function::__func<std::__ndk1::function<void (cocos2d::CCObject*)>, std::__ndk1::allocator<std::__ndk1::function<void (cocos2d::CCObject*)> >, void (CCMenuItemSpriteExtra*)>::destroy_deallocate()
FUNC 2e938 44 0 std::__ndk1::__function::__func<std::__ndk1::function<void (cocos2d::CCObject*)>, std::__ndk1::allocator<std::__ndk1::function<void (cocos2d::CCObject*)> >, void (CCMenuItemSpriteExtra*)>::operator()(CCMenuItemSpriteExtra*&&)
FUNC 2e97c 18 0 std::__ndk1::__function::__func<std::__ndk1::function<void (cocos2d::CCObject*)>, std::__ndk1::allocator<std::__ndk1::function<void (cocos2d::CCObject*)> >, void (CCMenuItemSpriteExtra*)>::target(std::type_info const&) const
FUNC 2e994 c 0 std::__ndk1::__function::__func<std::__ndk1::function<void (cocos2d::CCObject*)>, std::__ndk1::allocator<std::__ndk1::function<void (cocos2d::CCObject*)> >, void (CCMenuItemSpriteExtra*)>::target_type() const
FUNC 2e9a0 4 0 std::__ndk1::__function::__func<BigPictureLayer::init()::$_0, std::__ndk1::allocator<BigPictureLayer::init()::$_0>, void (cocos2d::CCObject*)>::~__func()
FUNC 2e9a4 20 0 std::__ndk1::__function::__func<BigPictureLayer::init()::$_0, std::__ndk1::allocator<BigPictureLayer::init()::$_0>, void (cocos2d::CCObject*)>::__clone() const
FUNC 2e9c4 18 0 std::__ndk1::__function::__func<BigPictureLayer::init()::$_0, std::__ndk1::allocator<BigPictureLayer::init()::$_0>, void (cocos2d::CCObject*)>::__clone(std::__ndk1::__function::__base<void (cocos2d::CCObject*)>*) const
FUNC 2e9dc 2 0 std::__ndk1::__function::__func<BigPictureLayer::init()::$_0, std::__ndk1::allocator<BigPictureLayer::init()::$_0>, void (cocos2d::CCObject*)>::destroy()
FUNC 2e9de 4 0 std::__ndk1::__function::__func<BigPictureLayer::init()::$_0, std::__ndk1::allocator<BigPictureLayer::init()::$_0>, void (cocos2d::CCObject*)>::destroy_deallocate()
FUNC 2e9e4 284 0 std::__ndk1::__function::__func<BigPictureLayer::init()::$_0, std::__ndk1::allocator<BigPictureLayer::init()::$_0>, void (cocos2d::CCObject*)>::operator()(cocos2d::CCObject*&&)
FUNC 2ec68 18 0 std::__ndk1::__function::__func<BigPictureLayer::init()::$_0, std::__ndk1::allocator<BigPictureLayer::init()::$_0>, void (cocos2d::CCObject*)>::target(std::type_info const&) const
FUNC 2ec80 c 0 std::__ndk1::__function::__func<BigPictureLayer::init()::$_0, std::__ndk1::allocator<BigPictureLayer::init()::$_0>, void (cocos2d::CCObject*)>::target_type() const
FUNC 2ec8c 4 0 std::__ndk1::__function::__func<BigPictureLayer::init()::$_0::operator()(cocos2d::CCObject*) const::{lambda()#1}, std::__ndk1::allocator<BigPictureLayer::init()::$_0::operator()(cocos2d::CCObject*) const::{lambda()#1}>, void ()>::~__func()
FUNC 2ec90 20 0 std::__ndk1::__function::__func<BigPictureLayer::init()::$_0::operator()(cocos2d::CCObject*) const::{lambda()#1}, std::__ndk1::allocator<BigPictureLayer::init()::$_0::operator()(cocos2d::CCObject*) const::{lambda()#1}>, void ()>::__clone() const
FUNC 2ecb0 18 0 std::__ndk1::__function::__func<BigPictureLayer::init()::$_0::operator()(cocos2d::CCObject*) const::{lambda()#1}, std::__ndk1::allocator<BigPictureLayer::init()::$_0::operator()(cocos2d::CCObject*) const::{lambda()#1}>, void ()>::__clone(std::__ndk1::__function::__base<void ()>*) const
FUNC 2ecc8 2 0 std::__ndk1::__function::__func<BigPictureLayer::init()::$_0::operator()(cocos2d::CCObject*) const::{lambda()#1}, std::__ndk1::allocator<BigPictureLayer::init()::$_0::operator()(cocos2d::CCObject*) const::{lambda()#1}>, void ()>::destroy()
FUNC 2ecca 4 0 std::__ndk1::__function::__func<BigPictureLayer::init()::$_0::operator()(cocos2d::CCObject*) const::{lambda()#1}, std::__ndk1::allocator<BigPictureLayer::init()::$_0::operator()(cocos2d::CCObject*) const::{lambda()#1}>, void ()>::destroy_deallocate()
FUNC 2ecd0 bc 0 std::__ndk1::__function::__func<BigPictureLayer::init()::$_0::operator()(cocos2d::CCObject*) const::{lambda()#1}, std::__ndk1::allocator<BigPictureLayer::init()::$_0::operator()(cocos2d::CCObject*) const::{lambda()#1}>, void ()>::operator()()
FUNC 2ed8c 18 0 std::__ndk1::__function::__func<BigPictureLayer::init()::$_0::operator()(cocos2d::CCObject*) const::{lambda()#1}, std::__ndk1::allocator<BigPictureLayer::init()::$_0::operator()(cocos2d::CCObject*) const::{lambda()#1}>, void ()>::target(std::type_info const&) const
FUNC 2eda4 c 0 std::__ndk1::__function::__func<BigPictureLayer::init()::$_0::operator()(cocos2d::CCObject*) const::{lambda()#1}, std::__ndk1::allocator<BigPictureLayer::init()::$_0::operator()(cocos2d::CCObject*) const::{lambda()#1}>, void ()>::target_type() const
FUNC 2edb0 4 0 std::__ndk1::__function::__func<BigPictureLayer::init()::$_0::operator()(cocos2d::CCObject*) const::{lambda()#2}, std::__ndk1::allocator<BigPictureLayer::init()::$_0::operator()(cocos2d::CCObject*) const::{lambda()#2}>, void ()>::~__func()
FUNC 2edb4 20 0 std::__ndk1::__function::__func<BigPictureLayer::init()::$_0::operator()(cocos2d::CCObject*) const::{lambda()#2}, std::__ndk1::allocator<BigPictureLayer::init()::$_0::operator()(cocos2d::CCObject*) const::{lambda()#2}>, void ()>::__clone() const
FUNC 2edd4 14 0 std::__ndk1::__function::__func<BigPictureLayer::init()::$_0::operator()(cocos2d::CCObject*) const::{lambda()#2}, std::__ndk1::allocator<BigPictureLayer::init()::$_0::operator()(cocos2d::CCObject*) const::{lambda()#2}>, void ()>::__clone(std::__ndk1::__function::__base<void ()>*) const
FUNC 2ede8 2 0 std::__ndk1::__function::__func<BigPictureLayer::init()::$_0::operator()(cocos2d::CCObject*) const::{lambda()#2}, std::__ndk1::allocator<BigPictureLayer::init()::$_0::operator()(cocos2d::CCObject*) const::{lambda()#2}>, void ()>::destroy()
FUNC 2edea 4 0 std::__ndk1::__function::__func<BigPictureLayer::init()::$_0::operator()(cocos2d::CCObject*) const::{lambda()#2}, std::__ndk1::allocator<BigPictureLayer::init()::$_0::operator()(cocos2d::CCObject*) const::{lambda()#2}>, void ()>::destroy_deallocate()
FUNC 2edee 26 0 std::__ndk1::__function::__func<BigPictureLayer::init()::$_0::operator()(cocos2d::CCObject*) const::{lambda()#2}, std::__ndk1::allocator<BigPictureLayer::init()::$_0::operator()(cocos2d::CCObject*) const::{lambda()#2}>, void ()>::operator()()
FUNC 2ee14 18 0 std::__ndk1::__function::__func<BigPictureLayer::init()::$_0::operator()(cocos2d::CCObject*) const::{lambda()#2}, std::__ndk1::allocator<BigPictureLayer::init()::$_0::operator()(cocos2d::CCObject*) const::{lambda()#2}>, void ()>::target(std::type_info const&) const
FUNC 2ee2c c 0 std::__ndk1::__function::__func<BigPictureLayer::init()::$_0::operator()(cocos2d::CCObject*) const::{lambda()#2}, std::__ndk1::allocator<BigPictureLayer::init()::$_0::operator()(cocos2d::CCObject*) const::{lambda()#2}>, void ()>::target_type() const
FUNC 2ee38 4 0 std::__ndk1::__function::__func<BigPictureLayer::init()::$_0::operator()(cocos2d::CCObject*) const::{lambda()#3}, std::__ndk1::allocator<BigPictureLayer::init()::$_0::operator()(cocos2d::CCObject*) const::{lambda()#3}>, void ()>::~__func()
FUNC 2ee3c 20 0 std::__ndk1::__function::__func<BigPictureLayer::init()::$_0::operator()(cocos2d::CCObject*) const::{lambda()#3}, std::__ndk1::allocator<BigPictureLayer::init()::$_0::operator()(cocos2d::CCObject*) const::{lambda()#3}>, void ()>::__clone() const
FUNC 2ee5c 18 0 std::__ndk1::__function::__func<BigPictureLayer::init()::$_0::operator()(cocos2d::CCObject*) const::{lambda()#3}, std::__ndk1::allocator<BigPictureLayer::init()::$_0::operator()(cocos2d::CCObject*) const::{lambda()#3}>, void ()>::__clone(std::__ndk1::__function::__base<void ()>*) const
FUNC 2ee74 2 0 std::__ndk1::__function::__func<BigPictureLayer::init()::$_0::operator()(cocos2d::CCObject*) const::{lambda()#3}, std::__ndk1::allocator<BigPictureLayer::init()::$_0::operator()(cocos2d::CCObject*) const::{lambda()#3}>, void ()>::destroy()
FUNC 2ee76 4 0 std::__ndk1::__function::__func<BigPictureLayer::init()::$_0::operator()(cocos2d::CCObject*) const::{lambda()#3}, std::__ndk1::allocator<BigPictureLayer::init()::$_0::operator()(cocos2d::CCObject*) const::{lambda()#3}>, void ()>::destroy_deallocate()
FUNC 2ee7c bc 0 std::__ndk1::__function::__func<BigPictureLayer::init()::$_0::operator()(cocos2d::CCObject*) const::{lambda()#3}, std::__ndk1::allocator<BigPictureLayer::init()::$_0::operator()(cocos2d::CCObject*) const::{lambda()#3}>, void ()>::operator()()
FUNC 2ef38 18 0 std::__ndk1::__function::__func<BigPictureLayer::init()::$_0::operator()(cocos2d::CCObject*) const::{lambda()#3}, std::__ndk1::allocator<BigPictureLayer::init()::$_0::operator()(cocos2d::CCObject*) const::{lambda()#3}>, void ()>::target(std::type_info const&) const
FUNC 2ef50 c 0 std::__ndk1::__function::__func<BigPictureLayer::init()::$_0::operator()(cocos2d::CCObject*) const::{lambda()#3}, std::__ndk1::allocator<BigPictureLayer::init()::$_0::operator()(cocos2d::CCObject*) const::{lambda()#3}>, void ()>::target_type() const
FUNC 2ef5c 4 0 std::__ndk1::__function::__func<BigPictureLayer::init()::$_3, std::__ndk1::allocator<BigPictureLayer::init()::$_3>, void (cocos2d::CCObject*)>::~__func()
FUNC 2ef60 20 0 std::__ndk1::__function::__func<BigPictureLayer::init()::$_3, std::__ndk1::allocator<BigPictureLayer::init()::$_3>, void (cocos2d::CCObject*)>::__clone() const
FUNC 2ef80 14 0 std::__ndk1::__function::__func<BigPictureLayer::init()::$_3, std::__ndk1::allocator<BigPictureLayer::init()::$_3>, void (cocos2d::CCObject*)>::__clone(std::__ndk1::__function::__base<void (cocos2d::CCObject*)>*) const
FUNC 2ef94 2 0 std::__ndk1::__function::__func<BigPictureLayer::init()::$_3, std::__ndk1::allocator<BigPictureLayer::init()::$_3>, void (cocos2d::CCObject*)>::destroy()
FUNC 2ef96 4 0 std::__ndk1::__function::__func<BigPictureLayer::init()::$_3, std::__ndk1::allocator<BigPictureLayer::init()::$_3>, void (cocos2d::CCObject*)>::destroy_deallocate()
FUNC 2ef9a 2e 0 std::__ndk1::__function::__func<BigPictureLayer::init()::$_3, std::__ndk1::allocator<BigPictureLayer::init()::$_3>, void (cocos2d::CCObject*)>::operator()(cocos2d::CCObject*&&)
FUNC 2efc8 18 0 std::__ndk1::__function::__func<BigPictureLayer::init()::$_3, std::__ndk1::allocator<BigPictureLayer::init()::$_3>, void (cocos2d::CCObject*)>::target(std::type_info const&) const
FUNC 2efe0 c 0 std::__ndk1::__function::__func<BigPictureLayer::init()::$_3, std::__ndk1::allocator<BigPictureLayer::init()::$_3>, void (cocos2d::CCObject*)>::target_type() const
FUNC 2efec 2 0 std::__ndk1::__function::__base<void (cocos2d::CCObject*)>::~__base()
FUNC 2efee 4 0 std::__ndk1::__function::__func<BigPictureLayer::init()::$_4, std::__ndk1::allocator<BigPictureLayer::init()::$_4>, void (cocos2d::CCObject*)>::~__func()
FUNC 2eff4 20 0 std::__ndk1::__function::__func<BigPictureLayer::init()::$_4, std::__ndk1::allocator<BigPictureLayer::init()::$_4>, void (cocos2d::CCObject*)>::__clone() const
FUNC 2f014 14 0 std::__ndk1::__function::__func<BigPictureLayer::init()::$_4, std::__ndk1::allocator<BigPictureLayer::init()::$_4>, void (cocos2d::CCObject*)>::__clone(std::__ndk1::__function::__base<void (cocos2d::CCObject*)>*) const
FUNC 2f028 2 0 std::__ndk1::__function::__func<BigPictureLayer::init()::$_4, std::__ndk1::allocator<BigPictureLayer::init()::$_4>, void (cocos2d::CCObject*)>::destroy()
FUNC 2f02a 4 0 std::__ndk1::__function::__func<BigPictureLayer::init()::$_4, std::__ndk1::allocator<BigPictureLayer::init()::$_4>, void (cocos2d::CCObject*)>::destroy_deallocate()
FUNC 2f030 204 0 std::__ndk1::__function::__func<BigPictureLayer::init()::$_4, std::__ndk1::allocator<BigPictureLayer::init()::$_4>, void (cocos2d::CCObject*)>::operator()(cocos2d::CCObject*&&)
FUNC 2f234 18 0 std::__ndk1::__function::__func<BigPictureLayer::init()::$_4, std::__ndk1::allocator<BigPictureLayer::init()::$_4>, void (cocos2d::CCObject*)>::target(std::type_info const&) const
FUNC 2f24c c 0 std::__ndk1::__function::__func<BigPictureLayer::init()::$_4, std::__ndk1::allocator<BigPictureLayer::init()::$_4>, void (cocos2d::CCObject*)>::target_type() const
FUNC 2f258 4 0 std::__ndk1::__function::__func<BigPictureLayer::init()::$_4::operator()(cocos2d::CCObject*) const::{lambda()#1}, std::__ndk1::allocator<BigPictureLayer::init()::$_4::operator()(cocos2d::CCObject*) const::{lambda()#1}>, void ()>::~__func()
FUNC 2f25c 20 0 std::__ndk1::__function::__func<BigPictureLayer::init()::$_4::operator()(cocos2d::CCObject*) const::{lambda()#1}, std::__ndk1::allocator<BigPictureLayer::init()::$_4::operator()(cocos2d::CCObject*) const::{lambda()#1}>, void ()>::__clone() const
FUNC 2f27c 14 0 std::__ndk1::__function::__func<BigPictureLayer::init()::$_4::operator()(cocos2d::CCObject*) const::{lambda()#1}, std::__ndk1::allocator<BigPictureLayer::init()::$_4::operator()(cocos2d::CCObject*) const::{lambda()#1}>, void ()>::__clone(std::__ndk1::__function::__base<void ()>*) const
FUNC 2f290 2 0 std::__ndk1::__function::__func<BigPictureLayer::init()::$_4::operator()(cocos2d::CCObject*) const::{lambda()#1}, std::__ndk1::allocator<BigPictureLayer::init()::$_4::operator()(cocos2d::CCObject*) const::{lambda()#1}>, void ()>::destroy()
FUNC 2f292 4 0 std::__ndk1::__function::__func<BigPictureLayer::init()::$_4::operator()(cocos2d::CCObject*) const::{lambda()#1}, std::__ndk1::allocator<BigPictureLayer::init()::$_4::operator()(cocos2d::CCObject*) const::{lambda()#1}>, void ()>::destroy_deallocate()
FUNC 2f296 4 0 std::__ndk1::__function::__func<BigPictureLayer::init()::$_4::operator()(cocos2d::CCObject*) const::{lambda()#1}, std::__ndk1::allocator<BigPictureLayer::init()::$_4::operator()(cocos2d::CCObject*) const::{lambda()#1}>, void ()>::operator()()
FUNC 2f29c 18 0 std::__ndk1::__function::__func<BigPictureLayer::init()::$_4::operator()(cocos2d::CCObject*) const::{lambda()#1}, std::__ndk1::allocator<BigPictureLayer::init()::$_4::operator()(cocos2d::CCObject*) const::{lambda()#1}>, void ()>::target(std::type_info const&) const
FUNC 2f2b4 c 0 std::__ndk1::__function::__func<BigPictureLayer::init()::$_4::operator()(cocos2d::CCObject*) const::{lambda()#1}, std::__ndk1::allocator<BigPictureLayer::init()::$_4::operator()(cocos2d::CCObject*) const::{lambda()#1}>, void ()>::target_type() const
FUNC 2f2c0 4 0 std::__ndk1::__function::__func<BigPictureLayer::init()::$_4::operator()(cocos2d::CCObject*) const::{lambda()#2}, std::__ndk1::allocator<BigPictureLayer::init()::$_4::operator()(cocos2d::CCObject*) const::{lambda()#2}>, void ()>::~__func()
FUNC 2f2c4 20 0 std::__ndk1::__function::__func<BigPictureLayer::init()::$_4::operator()(cocos2d::CCObject*) const::{lambda()#2}, std::__ndk1::allocator<BigPictureLayer::init()::$_4::operator()(cocos2d::CCObject*) const::{lambda()#2}>, void ()>::__clone() const
FUNC 2f2e4 14 0 std::__ndk1::__function::__func<BigPictureLayer::init()::$_4::operator()(cocos2d::CCObject*) const::{lambda()#2}, std::__ndk1::allocator<BigPictureLayer::init()::$_4::operator()(cocos2d::CCObject*) const::{lambda()#2}>, void ()>::__clone(std::__ndk1::__function::__base<void ()>*) const
FUNC 2f2f8 2 0 std::__ndk1::__function::__func<BigPictureLayer::init()::$_4::operator()(cocos2d::CCObject*) const::{lambda()#2}, std::__ndk1::allocator<BigPictureLayer::init()::$_4::operator()(cocos2d::CCObject*) const::{lambda()#2}>, void ()>::destroy()
FUNC 2f2fa 4 0 std::__ndk1::__function::__func<BigPictureLayer::init()::$_4::operator()(cocos2d::CCObject*) const::{lambda()#2}, std::__ndk1::allocator<BigPictureLayer::init()::$_4::operator()(cocos2d::CCObject*) const::{lambda()#2}>, void ()>::destroy_deallocate()
FUNC 2f2fe 4 0 std::__ndk1::__function::__func<BigPictureLayer::init()::$_4::operator()(cocos2d::CCObject*) const::{lambda()#2}, std::__ndk1::allocator<BigPictureLayer::init()::$_4::operator()(cocos2d::CCObject*) const::{lambda()#2}>, void ()>::operator()()
FUNC 2f304 18 0 std::__ndk1::__function::__func<BigPictureLayer::init()::$_4::operator()(cocos2d::CCObject*) const::{lambda()#2}, std::__ndk1::allocator<BigPictureLayer::init()::$_4::operator()(cocos2d::CCObject*) const::{lambda()#2}>, void ()>::target(std::type_info const&) const
FUNC 2f31c c 0 std::__ndk1::__function::__func<BigPictureLayer::init()::$_4::operator()(cocos2d::CCObject*) const::{lambda()#2}, std::__ndk1::allocator<BigPictureLayer::init()::$_4::operator()(cocos2d::CCObject*) const::{lambda()#2}>, void ()>::target_type() const
FUNC 2f328 4 0 std::__ndk1::__function::__func<BigPictureLayer::createStatusbar()::$_0, std::__ndk1::allocator<BigPictureLayer::createStatusbar()::$_0>, void (CCMenuItemSpriteExtra*)>::~__func()
FUNC 2f32c 20 0 std::__ndk1::__function::__func<BigPictureLayer::createStatusbar()::$_0, std::__ndk1::allocator<BigPictureLayer::createStatusbar()::$_0>, void (CCMenuItemSpriteExtra*)>::__clone() const
FUNC 2f34c 14 0 std::__ndk1::__function::__func<BigPictureLayer::createStatusbar()::$_0, std::__ndk1::allocator<BigPictureLayer::createStatusbar()::$_0>, void (CCMenuItemSpriteExtra*)>::__clone(std::__ndk1::__function::__base<void (CCMenuItemSpriteExtra*)>*) const
FUNC 2f360 2 0 std::__ndk1::__function::__func<BigPictureLayer::createStatusbar()::$_0, std::__ndk1::allocator<BigPictureLayer::createStatusbar()::$_0>, void (CCMenuItemSpriteExtra*)>::destroy()
FUNC 2f362 4 0 std::__ndk1::__function::__func<BigPictureLayer::createStatusbar()::$_0, std::__ndk1::allocator<BigPictureLayer::createStatusbar()::$_0>, void (CCMenuItemSpriteExtra*)>::destroy_deallocate()
FUNC 2f366 14 0 std::__ndk1::__function::__func<BigPictureLayer::createStatusbar()::$_0, std::__ndk1::allocator<BigPictureLayer::createStatusbar()::$_0>, void (CCMenuItemSpriteExtra*)>::operator()(CCMenuItemSpriteExtra*&&)
FUNC 2f37c 18 0 std::__ndk1::__function::__func<BigPictureLayer::createStatusbar()::$_0, std::__ndk1::allocator<BigPictureLayer::createStatusbar()::$_0>, void (CCMenuItemSpriteExtra*)>::target(std::type_info const&) const
FUNC 2f394 c 0 std::__ndk1::__function::__func<BigPictureLayer::createStatusbar()::$_0, std::__ndk1::allocator<BigPictureLayer::createStatusbar()::$_0>, void (CCMenuItemSpriteExtra*)>::target_type() const
FUNC 2f3a0 4 0 std::__ndk1::__function::__func<BigPictureLayer::createStatusbar()::$_1, std::__ndk1::allocator<BigPictureLayer::createStatusbar()::$_1>, void (CCMenuItemSpriteExtra*)>::~__func()
FUNC 2f3a4 20 0 std::__ndk1::__function::__func<BigPictureLayer::createStatusbar()::$_1, std::__ndk1::allocator<BigPictureLayer::createStatusbar()::$_1>, void (CCMenuItemSpriteExtra*)>::__clone() const
FUNC 2f3c4 14 0 std::__ndk1::__function::__func<BigPictureLayer::createStatusbar()::$_1, std::__ndk1::allocator<BigPictureLayer::createStatusbar()::$_1>, void (CCMenuItemSpriteExtra*)>::__clone(std::__ndk1::__function::__base<void (CCMenuItemSpriteExtra*)>*) const
FUNC 2f3d8 2 0 std::__ndk1::__function::__func<BigPictureLayer::createStatusbar()::$_1, std::__ndk1::allocator<BigPictureLayer::createStatusbar()::$_1>, void (CCMenuItemSpriteExtra*)>::destroy()
FUNC 2f3da 4 0 std::__ndk1::__function::__func<BigPictureLayer::createStatusbar()::$_1, std::__ndk1::allocator<BigPictureLayer::createStatusbar()::$_1>, void (CCMenuItemSpriteExtra*)>::destroy_deallocate()
FUNC 2f3e0 8c 0 std::__ndk1::__function::__func<BigPictureLayer::createStatusbar()::$_1, std::__ndk1::allocator<BigPictureLayer::createStatusbar()::$_1>, void (CCMenuItemSpriteExtra*)>::operator()(CCMenuItemSpriteExtra*&&)
FUNC 2f46c 18 0 std::__ndk1::__function::__func<BigPictureLayer::createStatusbar()::$_1, std::__ndk1::allocator<BigPictureLayer::createStatusbar()::$_1>, void (CCMenuItemSpriteExtra*)>::target(std::type_info const&) const
FUNC 2f484 c 0 std::__ndk1::__function::__func<BigPictureLayer::createStatusbar()::$_1, std::__ndk1::allocator<BigPictureLayer::createStatusbar()::$_1>, void (CCMenuItemSpriteExtra*)>::target_type() const
FUNC 2f490 464 0 TopLevels::showFilter()
FUNC 2f8f4 16 0 geode::cocos::CCArrayExt<cocos2d::CCString*>::~CCArrayExt()
FUNC 2f90c 4ac 0 TopLevels::init(TopLevelsCategory)
FUNC 2fdb8 504 0 TopLevels::regenerateLevels()
FUNC 302bc 130 0 LevelItem::setSelected(bool)
FUNC 303ec 16 0 geode::cocos::CCArrayExt<GJGameLevel*>::~CCArrayExt()
FUNC 30404 13c 0 TopLevels::updateSelected(bool)
FUNC 30540 310 0 TopLevels::updateThumbnail()
FUNC 30850 54 0 TopLevels::enterSelected()
FUNC 308a4 88 0 TopLevels::create(TopLevelsCategory)
FUNC 3092c 10 0 TopLevels::~TopLevels()
FUNC 3093c 8 0 {virtual override thunk({offset(-264)}, TopLevels::~TopLevels())}
FUNC 30944 14 0 {virtual override thunk({offset(-264)}, TopLevels::~TopLevels())}
FUNC 30958 4 0 std::__ndk1::__function::__func<TopLevels::showFilter()::$_0, std::__ndk1::allocator<TopLevels::showFilter()::$_0>, void ()>::~__func()
FUNC 3095c 20 0 std::__ndk1::__function::__func<TopLevels::showFilter()::$_0, std::__ndk1::allocator<TopLevels::showFilter()::$_0>, void ()>::__clone() const
FUNC 3097c 14 0 std::__ndk1::__function::__func<TopLevels::showFilter()::$_0, std::__ndk1::allocator<TopLevels::showFilter()::$_0>, void ()>::__clone(std::__ndk1::__function::__base<void ()>*) const
FUNC 30990 2 0 std::__ndk1::__function::__func<TopLevels::showFilter()::$_0, std::__ndk1::allocator<TopLevels::showFilter()::$_0>, void ()>::destroy()
FUNC 30992 4 0 std::__ndk1::__function::__func<TopLevels::showFilter()::$_0, std::__ndk1::allocator<TopLevels::showFilter()::$_0>, void ()>::destroy_deallocate()
FUNC 30998 40 0 std::__ndk1::__function::__func<TopLevels::showFilter()::$_0, std::__ndk1::allocator<TopLevels::showFilter()::$_0>, void ()>::operator()()
FUNC 309d8 18 0 std::__ndk1::__function::__func<TopLevels::showFilter()::$_0, std::__ndk1::allocator<TopLevels::showFilter()::$_0>, void ()>::target(std::type_info const&) const
FUNC 309f0 c 0 std::__ndk1::__function::__func<TopLevels::showFilter()::$_0, std::__ndk1::allocator<TopLevels::showFilter()::$_0>, void ()>::target_type() const
FUNC 309fc a0 0 fmt::v11::detail::value<fmt::v11::context>::format_custom_arg<gd::string, fmt::v11::formatter<gd::string, char, void> >(void*, fmt::v11::basic_format_parse_context<char>&, fmt::v11::context&)
FUNC 30a9c e8 0 fmt::v11::formatter<gd::string, char, void>::format<fmt::v11::context>(gd::string const&, fmt::v11::context&) const
FUNC 30b84 20 0 std::__ndk1::__function::__func<TopLevels::showFilter()::$_1, std::__ndk1::allocator<TopLevels::showFilter()::$_1>, void ()>::~__func()
FUNC 30ba4 28 0 std::__ndk1::__function::__func<TopLevels::showFilter()::$_1, std::__ndk1::allocator<TopLevels::showFilter()::$_1>, void ()>::~__func()
FUNC 30bcc 3c 0 std::__ndk1::__function::__func<TopLevels::showFilter()::$_1, std::__ndk1::allocator<TopLevels::showFilter()::$_1>, void ()>::__clone() const
FUNC 30c08 2c 0 std::__ndk1::__function::__func<TopLevels::showFilter()::$_1, std::__ndk1::allocator<TopLevels::showFilter()::$_1>, void ()>::__clone(std::__ndk1::__function::__base<void ()>*) const
FUNC 30c34 6 0 std::__ndk1::__function::__func<TopLevels::showFilter()::$_1, std::__ndk1::allocator<TopLevels::showFilter()::$_1>, void ()>::destroy()
FUNC 30c3a 16 0 std::__ndk1::__function::__func<TopLevels::showFilter()::$_1, std::__ndk1::allocator<TopLevels::showFilter()::$_1>, void ()>::destroy_deallocate()
FUNC 30c50 cc 0 std::__ndk1::__function::__func<TopLevels::showFilter()::$_1, std::__ndk1::allocator<TopLevels::showFilter()::$_1>, void ()>::operator()()
FUNC 30d1c 18 0 std::__ndk1::__function::__func<TopLevels::showFilter()::$_1, std::__ndk1::allocator<TopLevels::showFilter()::$_1>, void ()>::target(std::type_info const&) const
FUNC 30d34 c 0 std::__ndk1::__function::__func<TopLevels::showFilter()::$_1, std::__ndk1::allocator<TopLevels::showFilter()::$_1>, void ()>::target_type() const
FUNC 30d40 4 0 std::__ndk1::__function::__func<TopLevels::init(TopLevelsCategory)::$_0, std::__ndk1::allocator<TopLevels::init(TopLevelsCategory)::$_0>, void (CCMenuItemSpriteExtra*)>::~__func()
FUNC 30d44 20 0 std::__ndk1::__function::__func<TopLevels::init(TopLevelsCategory)::$_0, std::__ndk1::allocator<TopLevels::init(TopLevelsCategory)::$_0>, void (CCMenuItemSpriteExtra*)>::__clone() const
FUNC 30d64 14 0 std::__ndk1::__function::__func<TopLevels::init(TopLevelsCategory)::$_0, std::__ndk1::allocator<TopLevels::init(TopLevelsCategory)::$_0>, void (CCMenuItemSpriteExtra*)>::__clone(std::__ndk1::__function::__base<void (CCMenuItemSpriteExtra*)>*) const
FUNC 30d78 2 0 std::__ndk1::__function::__func<TopLevels::init(TopLevelsCategory)::$_0, std::__ndk1::allocator<TopLevels::init(TopLevelsCategory)::$_0>, void (CCMenuItemSpriteExtra*)>::destroy()
FUNC 30d7a 4 0 std::__ndk1::__function::__func<TopLevels::init(TopLevelsCategory)::$_0, std::__ndk1::allocator<TopLevels::init(TopLevelsCategory)::$_0>, void (CCMenuItemSpriteExtra*)>::destroy_deallocate()
FUNC 30d7e 6 0 std::__ndk1::__function::__func<TopLevels::init(TopLevelsCategory)::$_0, std::__ndk1::allocator<TopLevels::init(TopLevelsCategory)::$_0>, void (CCMenuItemSpriteExtra*)>::operator()(CCMenuItemSpriteExtra*&&)
FUNC 30d84 18 0 std::__ndk1::__function::__func<TopLevels::init(TopLevelsCategory)::$_0, std::__ndk1::allocator<TopLevels::init(TopLevelsCategory)::$_0>, void (CCMenuItemSpriteExtra*)>::target(std::type_info const&) const
FUNC 30d9c c 0 std::__ndk1::__function::__func<TopLevels::init(TopLevelsCategory)::$_0, std::__ndk1::allocator<TopLevels::init(TopLevelsCategory)::$_0>, void (CCMenuItemSpriteExtra*)>::target_type() const
FUNC 30da8 4 0 std::__ndk1::__function::__func<TopLevels::init(TopLevelsCategory)::$_1, std::__ndk1::allocator<TopLevels::init(TopLevelsCategory)::$_1>, void ()>::~__func()
FUNC 30dac 20 0 std::__ndk1::__function::__func<TopLevels::init(TopLevelsCategory)::$_1, std::__ndk1::allocator<TopLevels::init(TopLevelsCategory)::$_1>, void ()>::__clone() const
FUNC 30dcc 14 0 std::__ndk1::__function::__func<TopLevels::init(TopLevelsCategory)::$_1, std::__ndk1::allocator<TopLevels::init(TopLevelsCategory)::$_1>, void ()>::__clone(std::__ndk1::__function::__base<void ()>*) const
FUNC 30de0 2 0 std::__ndk1::__function::__func<TopLevels::init(TopLevelsCategory)::$_1, std::__ndk1::allocator<TopLevels::init(TopLevelsCategory)::$_1>, void ()>::destroy()
FUNC 30de2 4 0 std::__ndk1::__function::__func<TopLevels::init(TopLevelsCategory)::$_1, std::__ndk1::allocator<TopLevels::init(TopLevelsCategory)::$_1>, void ()>::destroy_deallocate()
FUNC 30de6 10 0 std::__ndk1::__function::__func<TopLevels::init(TopLevelsCategory)::$_1, std::__ndk1::allocator<TopLevels::init(TopLevelsCategory)::$_1>, void ()>::operator()()
FUNC 30df8 18 0 std::__ndk1::__function::__func<TopLevels::init(TopLevelsCategory)::$_1, std::__ndk1::allocator<TopLevels::init(TopLevelsCategory)::$_1>, void ()>::target(std::type_info const&) const
FUNC 30e10 c 0 std::__ndk1::__function::__func<TopLevels::init(TopLevelsCategory)::$_1, std::__ndk1::allocator<TopLevels::init(TopLevelsCategory)::$_1>, void ()>::target_type() const
FUNC 30e1c 2 0 std::__ndk1::__function::__base<void (bool)>::~__base()
FUNC 30e1e 4 0 std::__ndk1::__function::__func<TopLevels::regenerateLevels()::$_0, std::__ndk1::allocator<TopLevels::regenerateLevels()::$_0>, void (bool)>::~__func()
FUNC 30e24 20 0 std::__ndk1::__function::__func<TopLevels::regenerateLevels()::$_0, std::__ndk1::allocator<TopLevels::regenerateLevels()::$_0>, void (bool)>::__clone() const
FUNC 30e44 14 0 std::__ndk1::__function::__func<TopLevels::regenerateLevels()::$_0, std::__ndk1::allocator<TopLevels::regenerateLevels()::$_0>, void (bool)>::__clone(std::__ndk1::__function::__base<void (bool)>*) const
FUNC 30e58 2 0 std::__ndk1::__function::__func<TopLevels::regenerateLevels()::$_0, std::__ndk1::allocator<TopLevels::regenerateLevels()::$_0>, void (bool)>::destroy()
FUNC 30e5a 4 0 std::__ndk1::__function::__func<TopLevels::regenerateLevels()::$_0, std::__ndk1::allocator<TopLevels::regenerateLevels()::$_0>, void (bool)>::destroy_deallocate()
FUNC 30e5e e 0 std::__ndk1::__function::__func<TopLevels::regenerateLevels()::$_0, std::__ndk1::allocator<TopLevels::regenerateLevels()::$_0>, void (bool)>::operator()(bool&&)
FUNC 30e6c 18 0 std::__ndk1::__function::__func<TopLevels::regenerateLevels()::$_0, std::__ndk1::allocator<TopLevels::regenerateLevels()::$_0>, void (bool)>::target(std::type_info const&) const
FUNC 30e84 c 0 std::__ndk1::__function::__func<TopLevels::regenerateLevels()::$_0, std::__ndk1::allocator<TopLevels::regenerateLevels()::$_0>, void (bool)>::target_type() const
FUNC 30e90 4 0 std::__ndk1::__function::__func<TopLevels::regenerateLevels()::$_1, std::__ndk1::allocator<TopLevels::regenerateLevels()::$_1>, void (CCMenuItemSpriteExtra*)>::~__func()
FUNC 30e94 28 0 std::__ndk1::__function::__func<TopLevels::regenerateLevels()::$_1, std::__ndk1::allocator<TopLevels::regenerateLevels()::$_1>, void (CCMenuItemSpriteExtra*)>::__clone() const
FUNC 30ebc 1c 0 std::__ndk1::__function::__func<TopLevels::regenerateLevels()::$_1, std::__ndk1::allocator<TopLevels::regenerateLevels()::$_1>, void (CCMenuItemSpriteExtra*)>::__clone(std::__ndk1::__function::__base<void (CCMenuItemSpriteExtra*)>*) const
FUNC 30ed8 2 0 std::__ndk1::__function::__func<TopLevels::regenerateLevels()::$_1, std::__ndk1::allocator<TopLevels::regenerateLevels()::$_1>, void (CCMenuItemSpriteExtra*)>::destroy()
FUNC 30eda 4 0 std::__ndk1::__function::__func<TopLevels::regenerateLevels()::$_1, std::__ndk1::allocator<TopLevels::regenerateLevels()::$_1>, void (CCMenuItemSpriteExtra*)>::destroy_deallocate()
FUNC 30ee0 16c 0 std::__ndk1::__function::__func<TopLevels::regenerateLevels()::$_1, std::__ndk1::allocator<TopLevels::regenerateLevels()::$_1>, void (CCMenuItemSpriteExtra*)>::operator()(CCMenuItemSpriteExtra*&&)
FUNC 3104c 18 0 std::__ndk1::__function::__func<TopLevels::regenerateLevels()::$_1, std::__ndk1::allocator<TopLevels::regenerateLevels()::$_1>, void (CCMenuItemSpriteExtra*)>::target(std::type_info const&) const
FUNC 31064 c 0 std::__ndk1::__function::__func<TopLevels::regenerateLevels()::$_1, std::__ndk1::allocator<TopLevels::regenerateLevels()::$_1>, void (CCMenuItemSpriteExtra*)>::target_type() const
FUNC 31070 178 0 IconNode::init(cocos2d::CCSprite*, cocos2d::_ccColor3B const&)
FUNC 311e8 10 0 IconNode::~IconNode()
FUNC 311f8 524 0 LevelItem::init(GJGameLevel*, bool)
FUNC 3171c e0 0 LevelItem::LevelItem()
FUNC 317fc 1b0 0 LevelItem::init()
FUNC 319ac 100 0 LevelItem::selectLevel()
FUNC 31aac 29c 0 LevelItem::finishLoadImage(cocos2d::CCImage*)
FUNC 31d48 c4 0 LevelItem::errorLoadImage()
FUNC 31e0c 3a 0 geode::Task<geode::utils::web::WebResponse, geode::utils::web::WebProgress>::~Task()
FUNC 31e48 b0 0 LevelItem::~LevelItem()
FUNC 31ef8 b4 0 LevelItem::~LevelItem()
FUNC 31fac 68 0 geode::EventListener<geode::Task<geode::utils::web::WebResponse, geode::utils::web::WebProgress> >::~EventListener()
FUNC 32014 168 0 geode::Task<geode::utils::web::WebResponse, geode::utils::web::WebProgress>::setListener(geode::EventListenerProtocol*)
FUNC 3217c 4 0 geode::EventListener<geode::Task<geode::utils::web::WebResponse, geode::utils::web::WebProgress> >::getPool() const
FUNC 32180 e8 0 geode::EventListener<geode::Task<geode::utils::web::WebResponse, geode::utils::web::WebProgress> >::handle(geode::Event*)
FUNC 32268 6c 0 geode::EventListener<geode::Task<geode::utils::web::WebResponse, geode::utils::web::WebProgress> >::~EventListener()
FUNC 322d4 3a 0 geode::Task<geode::utils::web::WebResponse, geode::utils::web::WebProgress>::setListener(geode::EventListenerProtocol*)::{lambda()#1}::~{lambda()#1}()
FUNC 3230e 3a 0 geode::Task<geode::utils::web::WebResponse, geode::utils::web::WebProgress>::setListener(geode::EventListenerProtocol*)::{lambda()#2}::~{lambda()#2}()
FUNC 32348 48 0 std::__ndk1::__function::__func<geode::Task<geode::utils::web::WebResponse, geode::utils::web::WebProgress>::setListener(geode::EventListenerProtocol*)::{lambda()#1}, std::__ndk1::allocator<geode::Task<geode::utils::web::WebResponse, geode::utils::web::WebProgress>::setListener(geode::EventListenerProtocol*)::{lambda()#1}>, void ()>::~__func()
FUNC 32390 54 0 std::__ndk1::__function::__func<geode::Task<geode::utils::web::WebResponse, geode::utils::web::WebProgress>::setListener(geode::EventListenerProtocol*)::{lambda()#1}, std::__ndk1::allocator<geode::Task<geode::utils::web::WebResponse, geode::utils::web::WebProgress>::setListener(geode::EventListenerProtocol*)::{lambda()#1}>, void ()>::~__func()
FUNC 323e4 40 0 std::__ndk1::__function::__func<geode::Task<geode::utils::web::WebResponse, geode::utils::web::WebProgress>::setListener(geode::EventListenerProtocol*)::{lambda()#1}, std::__ndk1::allocator<geode::Task<geode::utils::web::WebResponse, geode::utils::web::WebProgress>::setListener(geode::EventListenerProtocol*)::{lambda()#1}>, void ()>::__clone() const
FUNC 32424 34 0 std::__ndk1::__function::__func<geode::Task<geode::utils::web::WebResponse, geode::utils::web::WebProgress>::setListener(geode::EventListenerProtocol*)::{lambda()#1}, std::__ndk1::allocator<geode::Task<geode::utils::web::WebResponse, geode::utils::web::WebProgress>::setListener(geode::EventListenerProtocol*)::{lambda()#1}>, void ()>::__clone(std::__ndk1::__function::__base<void ()>*) const
FUNC 32458 3a 0 std::__ndk1::__function::__func<geode::Task<geode::utils::web::WebResponse, geode::utils::web::WebProgress>::setListener(geode::EventListenerProtocol*)::{lambda()#1}, std::__ndk1::allocator<geode::Task<geode::utils::web::WebResponse, geode::utils::web::WebProgress>::setListener(geode::EventListenerProtocol*)::{lambda()#1}>, void ()>::destroy()
FUNC 32492 44 0 std::__ndk1::__function::__func<geode::Task<geode::utils::web::WebResponse, geode::utils::web::WebProgress>::setListener(geode::EventListenerProtocol*)::{lambda()#1}, std::__ndk1::allocator<geode::Task<geode::utils::web::WebResponse, geode::utils::web::WebProgress>::setListener(geode::EventListenerProtocol*)::{lambda()#1}>, void ()>::destroy_deallocate()
FUNC 324d8 150 0 std::__ndk1::__function::__func<geode::Task<geode::utils::web::WebResponse, geode::utils::web::WebProgress>::setListener(geode::EventListenerProtocol*)::{lambda()#1}, std::__ndk1::allocator<geode::Task<geode::utils::web::WebResponse, geode::utils::web::WebProgress>::setListener(geode::EventListenerProtocol*)::{lambda()#1}>, void ()>::operator()()
FUNC 32628 18 0 std::__ndk1::__function::__func<geode::Task<geode::utils::web::WebResponse, geode::utils::web::WebProgress>::setListener(geode::EventListenerProtocol*)::{lambda()#1}, std::__ndk1::allocator<geode::Task<geode::utils::web::WebResponse, geode::utils::web::WebProgress>::setListener(geode::EventListenerProtocol*)::{lambda()#1}>, void ()>::target(std::type_info const&) const
FUNC 32640 c 0 std::__ndk1::__function::__func<geode::Task<geode::utils::web::WebResponse, geode::utils::web::WebProgress>::setListener(geode::EventListenerProtocol*)::{lambda()#1}, std::__ndk1::allocator<geode::Task<geode::utils::web::WebResponse, geode::utils::web::WebProgress>::setListener(geode::EventListenerProtocol*)::{lambda()#1}>, void ()>::target_type() const
FUNC 3264c 44 0 geode::Task<geode::utils::web::WebResponse, geode::utils::web::WebProgress>::Event::~Event()
FUNC 32690 40 0 geode::Task<geode::utils::web::WebResponse, geode::utils::web::WebProgress>::Event::~Event()
FUNC 326d0 48 0 std::__ndk1::__function::__func<geode::Task<geode::utils::web::WebResponse, geode::utils::web::WebProgress>::setListener(geode::EventListenerProtocol*)::{lambda()#2}, std::__ndk1::allocator<geode::Task<geode::utils::web::WebResponse, geode::utils::web::WebProgress>::setListener(geode::EventListenerProtocol*)::{lambda()#2}>, void ()>::~__func()
FUNC 32718 54 0 std::__ndk1::__function::__func<geode::Task<geode::utils::web::WebResponse, geode::utils::web::WebProgress>::setListener(geode::EventListenerProtocol*)::{lambda()#2}, std::__ndk1::allocator<geode::Task<geode::utils::web::WebResponse, geode::utils::web::WebProgress>::setListener(geode::EventListenerProtocol*)::{lambda()#2}>, void ()>::~__func()
FUNC 3276c 3c 0 std::__ndk1::__function::__func<geode::Task<geode::utils::web::WebResponse, geode::utils::web::WebProgress>::setListener(geode::EventListenerProtocol*)::{lambda()#2}, std::__ndk1::allocator<geode::Task<geode::utils::web::WebResponse, geode::utils::web::WebProgress>::setListener(geode::EventListenerProtocol*)::{lambda()#2}>, void ()>::__clone() const
FUNC 327a8 30 0 std::__ndk1::__function::__func<geode::Task<geode::utils::web::WebResponse, geode::utils::web::WebProgress>::setListener(geode::EventListenerProtocol*)::{lambda()#2}, std::__ndk1::allocator<geode::Task<geode::utils::web::WebResponse, geode::utils::web::WebProgress>::setListener(geode::EventListenerProtocol*)::{lambda()#2}>, void ()>::__clone(std::__ndk1::__function::__base<void ()>*) const
FUNC 327d8 3a 0 std::__ndk1::__function::__func<geode::Task<geode::utils::web::WebResponse, geode::utils::web::WebProgress>::setListener(geode::EventListenerProtocol*)::{lambda()#2}, std::__ndk1::allocator<geode::Task<geode::utils::web::WebResponse, geode::utils::web::WebProgress>::setListener(geode::EventListenerProtocol*)::{lambda()#2}>, void ()>::destroy()
FUNC 32812 44 0 std::__ndk1::__function::__func<geode::Task<geode::utils::web::WebResponse, geode::utils::web::WebProgress>::setListener(geode::EventListenerProtocol*)::{lambda()#2}, std::__ndk1::allocator<geode::Task<geode::utils::web::WebResponse, geode::utils::web::WebProgress>::setListener(geode::EventListenerProtocol*)::{lambda()#2}>, void ()>::destroy_deallocate()
FUNC 32858 150 0 std::__ndk1::__function::__func<geode::Task<geode::utils::web::WebResponse, geode::utils::web::WebProgress>::setListener(geode::EventListenerProtocol*)::{lambda()#2}, std::__ndk1::allocator<geode::Task<geode::utils::web::WebResponse, geode::utils::web::WebProgress>::setListener(geode::EventListenerProtocol*)::{lambda()#2}>, void ()>::operator()()
FUNC 329a8 18 0 std::__ndk1::__function::__func<geode::Task<geode::utils::web::WebResponse, geode::utils::web::WebProgress>::setListener(geode::EventListenerProtocol*)::{lambda()#2}, std::__ndk1::allocator<geode::Task<geode::utils::web::WebResponse, geode::utils::web::WebProgress>::setListener(geode::EventListenerProtocol*)::{lambda()#2}>, void ()>::target(std::type_info const&) const
FUNC 329c0 c 0 std::__ndk1::__function::__func<geode::Task<geode::utils::web::WebResponse, geode::utils::web::WebProgress>::setListener(geode::EventListenerProtocol*)::{lambda()#2}, std::__ndk1::allocator<geode::Task<geode::utils::web::WebResponse, geode::utils::web::WebProgress>::setListener(geode::EventListenerProtocol*)::{lambda()#2}>, void ()>::target_type() const
FUNC 329cc 4 0 std::__ndk1::__function::__func<LevelItem::m_callback::{lambda(bool)#1}, std::__ndk1::allocator<LevelItem::m_callback::{lambda(bool)#1}>, void (bool)>::~__func()
FUNC 329d0 18 0 std::__ndk1::__function::__func<LevelItem::m_callback::{lambda(bool)#1}, std::__ndk1::allocator<LevelItem::m_callback::{lambda(bool)#1}>, void (bool)>::__clone() const
FUNC 329e8 10 0 std::__ndk1::__function::__func<LevelItem::m_callback::{lambda(bool)#1}, std::__ndk1::allocator<LevelItem::m_callback::{lambda(bool)#1}>, void (bool)>::__clone(std::__ndk1::__function::__base<void (bool)>*) const
FUNC 329f8 2 0 std::__ndk1::__function::__func<LevelItem::m_callback::{lambda(bool)#1}, std::__ndk1::allocator<LevelItem::m_callback::{lambda(bool)#1}>, void (bool)>::destroy()
FUNC 329fa 4 0 std::__ndk1::__function::__func<LevelItem::m_callback::{lambda(bool)#1}, std::__ndk1::allocator<LevelItem::m_callback::{lambda(bool)#1}>, void (bool)>::destroy_deallocate()
FUNC 329fe 2 0 std::__ndk1::__function::__func<LevelItem::m_callback::{lambda(bool)#1}, std::__ndk1::allocator<LevelItem::m_callback::{lambda(bool)#1}>, void (bool)>::operator()(bool&&)
FUNC 32a00 18 0 std::__ndk1::__function::__func<LevelItem::m_callback::{lambda(bool)#1}, std::__ndk1::allocator<LevelItem::m_callback::{lambda(bool)#1}>, void (bool)>::target(std::type_info const&) const
FUNC 32a18 c 0 std::__ndk1::__function::__func<LevelItem::m_callback::{lambda(bool)#1}, std::__ndk1::allocator<LevelItem::m_callback::{lambda(bool)#1}>, void (bool)>::target_type() const
FUNC 32a24 2 0 std::__ndk1::__function::__base<void (geode::Task<geode::utils::web::WebResponse, geode::utils::web::WebProgress>::Event*)>::~__base()
FUNC 32a26 4 0 std::__ndk1::__function::__func<LevelItem::loadImage()::$_0, std::__ndk1::allocator<LevelItem::loadImage()::$_0>, void (geode::Task<geode::utils::web::WebResponse, geode::utils::web::WebProgress>::Event*)>::~__func()
FUNC 32a2c 20 0 std::__ndk1::__function::__func<LevelItem::loadImage()::$_0, std::__ndk1::allocator<LevelItem::loadImage()::$_0>, void (geode::Task<geode::utils::web::WebResponse, geode::utils::web::WebProgress>::Event*)>::__clone() const
FUNC 32a4c 14 0 std::__ndk1::__function::__func<LevelItem::loadImage()::$_0, std::__ndk1::allocator<LevelItem::loadImage()::$_0>, void (geode::Task<geode::utils::web::WebResponse, geode::utils::web::WebProgress>::Event*)>::__clone(std::__ndk1::__function::__base<void (geode::Task<geode::utils::web::WebResponse, geode::utils::web::WebProgress>::Event*)>*) const
FUNC 32a60 2 0 std::__ndk1::__function::__func<LevelItem::loadImage()::$_0, std::__ndk1::allocator<LevelItem::loadImage()::$_0>, void (geode::Task<geode::utils::web::WebResponse, geode::utils::web::WebProgress>::Event*)>::destroy()
FUNC 32a62 4 0 std::__ndk1::__function::__func<LevelItem::loadImage()::$_0, std::__ndk1::allocator<LevelItem::loadImage()::$_0>, void (geode::Task<geode::utils::web::WebResponse, geode::utils::web::WebProgress>::Event*)>::destroy_deallocate()
FUNC 32a68 1dc 0 std::__ndk1::__function::__func<LevelItem::loadImage()::$_0, std::__ndk1::allocator<LevelItem::loadImage()::$_0>, void (geode::Task<geode::utils::web::WebResponse, geode::utils::web::WebProgress>::Event*)>::operator()(geode::Task<geode::utils::web::WebResponse, geode::utils::web::WebProgress>::Event*&&)
FUNC 32c44 18 0 std::__ndk1::__function::__func<LevelItem::loadImage()::$_0, std::__ndk1::allocator<LevelItem::loadImage()::$_0>, void (geode::Task<geode::utils::web::WebResponse, geode::utils::web::WebProgress>::Event*)>::target(std::type_info const&) const
FUNC 32c5c c 0 std::__ndk1::__function::__func<LevelItem::loadImage()::$_0, std::__ndk1::allocator<LevelItem::loadImage()::$_0>, void (geode::Task<geode::utils::web::WebResponse, geode::utils::web::WebProgress>::Event*)>::target_type() const
FUNC 32c68 16 0 LevelItem::loadImage()::$_0::operator()(geode::Task<geode::utils::web::WebResponse, geode::utils::web::WebProgress>::Event*) const::{lambda()#1}::~{lambda()#1}()
FUNC 32c7e 16 0 geode::Ref<cocos2d::CCImage>::~Ref()
FUNC 32c94 24 0 std::__ndk1::__function::__func<LevelItem::loadImage()::$_0::operator()(geode::Task<geode::utils::web::WebResponse, geode::utils::web::WebProgress>::Event*) const::{lambda()#1}, std::__ndk1::allocator<LevelItem::loadImage()::$_0::operator()(geode::Task<geode::utils::web::WebResponse, geode::utils::web::WebProgress>::Event*) const::{lambda()#1}>, void ()>::~__func()
FUNC 32cb8 2c 0 std::__ndk1::__function::__func<LevelItem::loadImage()::$_0::operator()(geode::Task<geode::utils::web::WebResponse, geode::utils::web::WebProgress>::Event*) const::{lambda()#1}, std::__ndk1::allocator<LevelItem::loadImage()::$_0::operator()(geode::Task<geode::utils::web::WebResponse, geode::utils::web::WebProgress>::Event*) const::{lambda()#1}>, void ()>::~__func()
FUNC 32ce4 38 0 std::__ndk1::__function::__func<LevelItem::loadImage()::$_0::operator()(geode::Task<geode::utils::web::WebResponse, geode::utils::web::WebProgress>::Event*) const::{lambda()#1}, std::__ndk1::allocator<LevelItem::loadImage()::$_0::operator()(geode::Task<geode::utils::web::WebResponse, geode::utils::web::WebProgress>::Event*) const::{lambda()#1}>, void ()>::__clone() const
FUNC 32d1c 20 0 std::__ndk1::__function::__func<LevelItem::loadImage()::$_0::operator()(geode::Task<geode::utils::web::WebResponse, geode::utils::web::WebProgress>::Event*) const::{lambda()#1}, std::__ndk1::allocator<LevelItem::loadImage()::$_0::operator()(geode::Task<geode::utils::web::WebResponse, geode::utils::web::WebProgress>::Event*) const::{lambda()#1}>, void ()>::__clone(std::__ndk1::__function::__base<void ()>*) const
FUNC 32d3c 16 0 std::__ndk1::__function::__func<LevelItem::loadImage()::$_0::operator()(geode::Task<geode::utils::web::WebResponse, geode::utils::web::WebProgress>::Event*) const::{lambda()#1}, std::__ndk1::allocator<LevelItem::loadImage()::$_0::operator()(geode::Task<geode::utils::web::WebResponse, geode::utils::web::WebProgress>::Event*) const::{lambda()#1}>, void ()>::destroy()
FUNC 32d52 1c 0 std::__ndk1::__function::__func<LevelItem::loadImage()::$_0::operator()(geode::Task<geode::utils::web::WebResponse, geode::utils::web::WebProgress>::Event*) const::{lambda()#1}, std::__ndk1::allocator<LevelItem::loadImage()::$_0::operator()(geode::Task<geode::utils::web::WebResponse, geode::utils::web::WebProgress>::Event*) const::{lambda()#1}>, void ()>::destroy_deallocate()
FUNC 32d6e 8 0 std::__ndk1::__function::__func<LevelItem::loadImage()::$_0::operator()(geode::Task<geode::utils::web::WebResponse, geode::utils::web::WebProgress>::Event*) const::{lambda()#1}, std::__ndk1::allocator<LevelItem::loadImage()::$_0::operator()(geode::Task<geode::utils::web::WebResponse, geode::utils::web::WebProgress>::Event*) const::{lambda()#1}>, void ()>::operator()()
FUNC 32d78 18 0 std::__ndk1::__function::__func<LevelItem::loadImage()::$_0::operator()(geode::Task<geode::utils::web::WebResponse, geode::utils::web::WebProgress>::Event*) const::{lambda()#1}, std::__ndk1::allocator<LevelItem::loadImage()::$_0::operator()(geode::Task<geode::utils::web::WebResponse, geode::utils::web::WebProgress>::Event*) const::{lambda()#1}>, void ()>::target(std::type_info const&) const
FUNC 32d90 c 0 std::__ndk1::__function::__func<LevelItem::loadImage()::$_0::operator()(geode::Task<geode::utils::web::WebResponse, geode::utils::web::WebProgress>::Event*) const::{lambda()#1}, std::__ndk1::allocator<LevelItem::loadImage()::$_0::operator()(geode::Task<geode::utils::web::WebResponse, geode::utils::web::WebProgress>::Event*) const::{lambda()#1}>, void ()>::target_type() const
FUNC 32d9c 14 0 ScrollLayerExt::scrollWheel(float, float)
FUNC 32db0 18 0 {virtual override thunk({offset(-280)}, ScrollLayerExt::scrollWheel(float, float))}
FUNC 32dc8 a0 0 ScrollLayerExt::ccTouchBegan(cocos2d::CCTouch*, cocos2d::CCEvent*)
FUNC 32e68 8 0 {virtual override thunk({offset(-264)}, ScrollLayerExt::ccTouchBegan(cocos2d::CCTouch*, cocos2d::CCEvent*))}
FUNC 32e70 90 0 ScrollLayerExt::ccTouchCancelled(cocos2d::CCTouch*, cocos2d::CCEvent*)
FUNC 32f00 8 0 {virtual override thunk({offset(-264)}, ScrollLayerExt::ccTouchCancelled(cocos2d::CCTouch*, cocos2d::CCEvent*))}
FUNC 32f08 84 0 ScrollLayerExt::ccTouchEnded(cocos2d::CCTouch*, cocos2d::CCEvent*)
FUNC 32f8c 88 0 {virtual override thunk({offset(-264)}, ScrollLayerExt::ccTouchEnded(cocos2d::CCTouch*, cocos2d::CCEvent*))}
FUNC 33014 12c 0 ScrollLayerExt::ccTouchMoved(cocos2d::CCTouch*, cocos2d::CCEvent*)
FUNC 33140 8 0 {virtual override thunk({offset(-264)}, ScrollLayerExt::ccTouchMoved(cocos2d::CCTouch*, cocos2d::CCEvent*))}
FUNC 33148 1f8 0 ScrollLayerExt::ScrollLayerExt(cocos2d::CCRect const&, bool, bool)
FUNC 33340 e4 0 ScrollLayerExt::visit()
FUNC 33424 c8 0 ScrollLayerExt::fixTouchPrio()
FUNC 334ec 84 0 ScrollLayerExt::~ScrollLayerExt()
FUNC 33570 88 0 ScrollLayerExt::~ScrollLayerExt()
FUNC 335f8 88 0 {virtual override thunk({offset(-264)}, ScrollLayerExt::~ScrollLayerExt())}
FUNC 33680 8c 0 {virtual override thunk({offset(-264)}, ScrollLayerExt::~ScrollLayerExt())}
FUNC 3370c 4 0 std::__ndk1::__function::__func<ScrollLayerExt::fixTouchPrio()::$_0, std::__ndk1::allocator<ScrollLayerExt::fixTouchPrio()::$_0>, void ()>::~__func()
FUNC 33710 28 0 std::__ndk1::__function::__func<ScrollLayerExt::fixTouchPrio()::$_0, std::__ndk1::allocator<ScrollLayerExt::fixTouchPrio()::$_0>, void ()>::__clone() const
FUNC 33738 1c 0 std::__ndk1::__function::__func<ScrollLayerExt::fixTouchPrio()::$_0, std::__ndk1::allocator<ScrollLayerExt::fixTouchPrio()::$_0>, void ()>::__clone(std::__ndk1::__function::__base<void ()>*) const
FUNC 33754 2 0 std::__ndk1::__function::__func<ScrollLayerExt::fixTouchPrio()::$_0, std::__ndk1::allocator<ScrollLayerExt::fixTouchPrio()::$_0>, void ()>::destroy()
FUNC 33756 4 0 std::__ndk1::__function::__func<ScrollLayerExt::fixTouchPrio()::$_0, std::__ndk1::allocator<ScrollLayerExt::fixTouchPrio()::$_0>, void ()>::destroy_deallocate()
FUNC 3375a 30 0 std::__ndk1::__function::__func<ScrollLayerExt::fixTouchPrio()::$_0, std::__ndk1::allocator<ScrollLayerExt::fixTouchPrio()::$_0>, void ()>::operator()()
FUNC 3378c 18 0 std::__ndk1::__function::__func<ScrollLayerExt::fixTouchPrio()::$_0, std::__ndk1::allocator<ScrollLayerExt::fixTouchPrio()::$_0>, void ()>::target(std::type_info const&) const
FUNC 337a4 c 0 std::__ndk1::__function::__func<ScrollLayerExt::fixTouchPrio()::$_0, std::__ndk1::allocator<ScrollLayerExt::fixTouchPrio()::$_0>, void ()>::target_type() const
FUNC 337b0 20 0 geodeImplicitEntry
FUNC 337d0 28 0 std::__ndk1::unordered_map<void*, bool, std::__ndk1::hash<void*>, std::__ndk1::equal_to<void*>, std::__ndk1::allocator<std::__ndk1::pair<void* const, bool> > >::~unordered_map[abi:ne180000]()
FUNC 337f8 cc 0 wrapFunction(unsigned int, tulip::hook::WrapperMetadata const&)
FUNC 338c4 48 0 geode::impl::ResultData<void*, std::__ndk1::basic_string<char, std::__ndk1::char_traits<char>, std::__ndk1::allocator<char> > >::unwrapErr() &
FUNC 3390c 60 0 geode::impl::ResultData<void*, std::__ndk1::basic_string<char, std::__ndk1::char_traits<char>, std::__ndk1::allocator<char> > >::~ResultData()
FUNC 3396c 46 0 tulip::hook::WrapperMetadata::~WrapperMetadata()
FUNC 339b4 1b4 0 cocos2d::CCObject::CCObject()
FUNC 33b68 10 0 cocos2d::CCObject::~CCObject()
FUNC 33b78 1c0 0 cocos2d::CCNode::CCNode()
FUNC 33d38 10 0 cocos2d::CCNode::~CCNode()
FUNC 33d48 10 0 cocos2d::CCNodeRGBA::~CCNodeRGBA()
FUNC 33d58 1b8 0 cocos2d::CCSet::CCSet()
FUNC 33f10 228 0 cocos2d::CCSet::~CCSet()
FUNC 34138 10 0 cocos2d::CCSet::~CCSet()
FUNC 34148 1e0 0 cocos2d::CCLayer::CCLayer()
FUNC 34328 8 0 {virtual override thunk({offset(-264)}, cocos2d::CCLayer::~CCLayer())}
FUNC 34330 10 0 cocos2d::CCLayer::~CCLayer()
FUNC 34340 14 0 {virtual override thunk({offset(-264)}, cocos2d::CCLayer::~CCLayer())}
FUNC 34354 27c 0 cocos2d::CCLayerRGBA::~CCLayerRGBA()
FUNC 345d0 8 0 {virtual override thunk({offset(-264)}, cocos2d::CCLayerRGBA::~CCLayerRGBA())}
FUNC 345d8 10 0 cocos2d::CCLayerRGBA::~CCLayerRGBA()
FUNC 345e8 14 0 {virtual override thunk({offset(-264)}, cocos2d::CCLayerRGBA::~CCLayerRGBA())}
FUNC 345fc 1f0 0 cocos2d::CCLayerColor::CCLayerColor()
FUNC 347ec 8 0 {virtual override thunk({offset(-264)}, cocos2d::CCLayerColor::~CCLayerColor())}
FUNC 347f4 10 0 cocos2d::CCLayerColor::~CCLayerColor()
FUNC 34804 14 0 {virtual override thunk({offset(-264)}, cocos2d::CCLayerColor::~CCLayerColor())}
FUNC 34818 238 0 cocos2d::CCTexture2D::~CCTexture2D()
FUNC 34a50 10 0 cocos2d::CCTexture2D::~CCTexture2D()
FUNC 34a60 1c4 0 cocos2d::CCTexture2D::CCTexture2D()
FUNC 34c24 1b8 0 cocos2d::CCImage::CCImage()
FUNC 34ddc 228 0 cocos2d::CCImage::~CCImage()
FUNC 35004 10 0 cocos2d::CCImage::~CCImage()
FUNC 35014 108 0 cocos2d::CCDirector::toggleShowFPS(bool, gd::string, cocos2d::CCPoint)
FUNC 35120 b0 0 tulip::hook::AbstractFunction::from<void, cocos2d::CCDirector*, bool, gd::string, cocos2d::CCPoint>(void (*)(cocos2d::CCDirector*, bool, gd::string, cocos2d::CCPoint))
FUNC 351d0 ec 0 cocos2d::CCDictionary::setObject(cocos2d::CCObject*, gd::string const&)
FUNC 352c0 b0 0 tulip::hook::AbstractFunction::from<void, cocos2d::CCDictionary*, cocos2d::CCObject*, gd::string const&>(void (*)(cocos2d::CCDictionary*, cocos2d::CCObject*, gd::string const&))
FUNC 35370 e4 0 cocos2d::CCDictionary::objectForKey(gd::string const&)
FUNC 35460 70 0 tulip::hook::AbstractFunction::from<cocos2d::CCObject*, cocos2d::CCDictionary*, gd::string const&>(cocos2d::CCObject* (*)(cocos2d::CCDictionary*, gd::string const&))
FUNC 354d0 1e0 0 cocos2d::extension::CCScale9Sprite::CCScale9Sprite()
FUNC 356b0 278 0 cocos2d::extension::CCScale9Sprite::~CCScale9Sprite()
FUNC 35928 10 0 cocos2d::extension::CCScale9Sprite::~CCScale9Sprite()
FUNC 35938 8 0 {virtual override thunk({offset(-264)}, FLAlertLayer::~FLAlertLayer())}
FUNC 35940 10 0 FLAlertLayer::~FLAlertLayer()
FUNC 35950 14 0 {virtual override thunk({offset(-264)}, FLAlertLayer::~FLAlertLayer())}
FUNC 35964 258 0 cocos2d::CCNodeRGBA::~CCNodeRGBA()
FUNC 35bbc 1e4 0 CCScrollLayerExt::CCScrollLayerExt(cocos2d::CCRect)
FUNC 35da0 70 0 tulip::hook::AbstractFunction::from<void, CCScrollLayerExt*, cocos2d::CCRect>(void (*)(CCScrollLayerExt*, cocos2d::CCRect))
FUNC 35e10 2 0 CCScrollLayerExtDelegate::scrllViewWillBeginDecelerating(CCScrollLayerExt*)
FUNC 35e12 2 0 CCScrollLayerExtDelegate::scrollViewDidEndDecelerating(CCScrollLayerExt*)
FUNC 35e14 2 0 CCScrollLayerExtDelegate::scrollViewTouchMoving(CCScrollLayerExt*)
FUNC 35e16 2 0 CCScrollLayerExtDelegate::scrollViewDidEndMoving(CCScrollLayerExt*)
FUNC 35e18 2 0 CCScrollLayerExtDelegate::scrollViewTouchBegin(CCScrollLayerExt*)
FUNC 35e1a 2 0 CCScrollLayerExtDelegate::scrollViewTouchEnd(CCScrollLayerExt*)
FUNC 35e1c f8 0 FMODAudioEngine::playEffect(gd::string)
FUNC 35f20 70 0 tulip::hook::AbstractFunction::from<void, FMODAudioEngine*, gd::string>(void (*)(FMODAudioEngine*, gd::string))
FUNC 35f90 2 0 cocos2d::CCNodeRGBA::setOpacityModifyRGB(bool)
FUNC 35f92 4 0 cocos2d::CCNodeRGBA::isOpacityModifyRGB()
FUNC 35f96 2 0 {virtual override thunk({offset(-264)}, cocos2d::CCNodeRGBA::setOpacityModifyRGB(bool))}
FUNC 35f98 4 0 {virtual override thunk({offset(-264)}, cocos2d::CCNodeRGBA::isOpacityModifyRGB())}
FUNC 35f9c 294 0 cocos2d::CCLayerColor::~CCLayerColor()
FUNC 36230 294 0 FLAlertLayer::~FLAlertLayer()
FUNC 364c4 22c 0 cocos2d::CCNode::~CCNode()
FUNC 366f0 274 0 cocos2d::CCLayer::~CCLayer()
FUNC 36964 42c 0 cocos2d::CCObject::~CCObject()
FUNC 36d90 f8 0 _ZN5geode15UnwrapExceptionC2IRPvQsr4implE18IsStringStreamableIT_EEENS_4impl5OkTagEOS4_
FUNC 36e88 2 0 std::__ndk1::__variant_detail::__visitation::__base::__dispatcher<(unsigned int)0>::__dispatch[abi:ne180000]<std::__ndk1::__variant_detail::__dtor<std::__ndk1::__variant_detail::__traits<void*, std::__ndk1::basic_string<char, std::__ndk1::char_traits<char>, std::__ndk1::allocator<char> > >, (std::__ndk1::__variant_detail::_Trait)1>::__destroy[abi:ne180000]()::{lambda(auto:1&)#1}, std::__ndk1::__variant_detail::__base<(std::__ndk1::__variant_detail::__traits<void*, std::__ndk1::basic_string<char, std::__ndk1::char_traits<char>, std::__ndk1::allocator<char> > >)1, std::__ndk1::__variant_detail::__traits, std::__ndk1::allocator<char> >&>(std::__ndk1::__variant_detail::__dtor<std::__ndk1::__variant_detail::__traits<void*, std::__ndk1::basic_string<char, std::__ndk1::char_traits<char>, std::__ndk1::allocator<char> > >, (std::__ndk1::__variant_detail::_Trait)1>, std::__ndk1::__variant_detail::__base<(std::__ndk1::__variant_detail::__traits<void*, std::__ndk1::basic_string<char, std::__ndk1::char_traits<char>, std::__ndk1::allocator<char> > >)1, std::__ndk1::__variant_detail::__traits, std::__ndk1::allocator<char> >&)
FUNC 36e8a e 0 std::__ndk1::__variant_detail::__visitation::__base::__dispatcher<(unsigned int)1>::__dispatch[abi:ne180000]<std::__ndk1::__variant_detail::__dtor<std::__ndk1::__variant_detail::__traits<void*, std::__ndk1::basic_string<char, std::__ndk1::char_traits<char>, std::__ndk1::allocator<char> > >, (std::__ndk1::__variant_detail::_Trait)1>::__destroy[abi:ne180000]()::{lambda(auto:1&)#1}, std::__ndk1::__variant_detail::__base<(std::__ndk1::__variant_detail::__traits<void*, std::__ndk1::basic_string<char, std::__ndk1::char_traits<char>, std::__ndk1::allocator<char> > >)1, std::__ndk1::__variant_detail::__traits, std::__ndk1::allocator<char> >&>(std::__ndk1::__variant_detail::__dtor<std::__ndk1::__variant_detail::__traits<void*, std::__ndk1::basic_string<char, std::__ndk1::char_traits<char>, std::__ndk1::allocator<char> > >, (std::__ndk1::__variant_detail::_Trait)1>, std::__ndk1::__variant_detail::__base<(std::__ndk1::__variant_detail::__traits<void*, std::__ndk1::basic_string<char, std::__ndk1::char_traits<char>, std::__ndk1::allocator<char> > >)1, std::__ndk1::__variant_detail::__traits, std::__ndk1::allocator<char> >&)
FUNC 36e98 3ea 0 std::__ndk1::__hash_table<std::__ndk1::__hash_value_type<void*, bool>, std::__ndk1::__unordered_map_hasher<void*, std::__ndk1::__hash_value_type<void*, bool>, std::__ndk1::hash<void*>, std::__ndk1::equal_to<void*>, true>, std::__ndk1::__unordered_map_equal<void*, std::__ndk1::__hash_value_type<void*, bool>, std::__ndk1::equal_to<void*>, std::__ndk1::hash<void*>, true>, std::__ndk1::allocator<std::__ndk1::__hash_value_type<void*, bool> > >::__emplace_unique_key_args<void*, std::__ndk1::piecewise_construct_t const&, std::__ndk1::tuple<void* const&>, std::__ndk1::tuple<> >(void* const&, std::__ndk1::piecewise_construct_t const&, std::__ndk1::tuple<void* const&>, std::__ndk1::tuple<>)
FUNC 37284 1cc 0 fmt::v11::detail::write_loc(fmt::v11::basic_appender<char>, fmt::v11::loc_value, fmt::v11::format_specs const&, fmt::v11::detail::locale_ref)
FUNC 37450 44 0 fmt::v11::format_facet<std::__ndk1::locale>::~format_facet()
FUNC 37494 38 0 fmt::v11::report_error(char const*)
FUNC 374cc 18 0 fmt::v11::format_error::runtime_error(char const*)
FUNC 374e4 420 0 fmt::v11::format_facet<std::__ndk1::locale>::do_put(fmt::v11::basic_appender<char>, fmt::v11::loc_value, fmt::v11::format_specs const&) const
FUNC 37904 30 0 fmt::v11::detail::loc_writer<char>::~loc_writer()
FUNC 37934 c0 0 fmt::v11::vformat(fmt::v11::basic_string_view<char>, fmt::v11::basic_format_args<fmt::v11::context>)
FUNC 379f4 1ac 0 fmt::v11::detail::dragonbox::cache_accessor<double>::get_cached_power(int)
FUNC 37ba0 278 0 fmt::v11::detail::vformat_to<char>(fmt::v11::detail::buffer<char>&, fmt::v11::basic_string_view<char>, fmt::v11::detail::vformat_args<char>::type, fmt::v11::detail::locale_ref)
FUNC 37e20 228 0 fmt::v11::detail::is_printable(unsigned int)
FUNC 38048 384 0 fmt::v11::detail::dragonbox::to_decimal<float>(float)
FUNC 383cc 880 0 fmt::v11::detail::dragonbox::to_decimal<double>(double)
FUNC 38c4c 4c 0 fmt::v11::basic_memory_buffer<char, (unsigned int)500, std::__ndk1::allocator<char> >::grow(fmt::v11::detail::buffer<char>&, unsigned int)
FUNC 38c98 48 0 fmt::v11::format_facet<std::__ndk1::locale>::~format_facet()
FUNC 38ce0 10 0 fmt::v11::format_error::~format_error()
FUNC 38cf0 9a 0 fmt::v11::detail::copy_noinline<char, char const*, fmt::v11::basic_appender<char> >(char const*, char const*, fmt::v11::basic_appender<char>)
FUNC 38d8c 54 0 fmt::v11::detail::default_arg_formatter<char>::operator()<bool>(bool)
FUNC 38de0 34 0 fmt::v11::detail::default_arg_formatter<char>::operator()<char>(char)
FUNC 38e14 2c 0 fmt::v11::detail::default_arg_formatter<char>::operator()<char const*>(char const*)
FUNC 38e40 74 0 fmt::v11::detail::default_arg_formatter<char>::operator()<void const*>(void const*)
FUNC 38eb4 1b0 0 _ZN3fmt3v116detail5writeIcNS0_14basic_appenderIcEEiTnNSt6__ndk19enable_ifIXaaaasr11is_integralIT1_EE5valuentsr3std7is_sameIS7_bEE5valuentsr3std7is_sameIS7_T_EE5valueEiE4typeELi0EEET0_SB_S7_
FUNC 39064 9a 0 fmt::v11::detail::copy_noinline<char, char*, fmt::v11::basic_appender<char> >(char*, char*, fmt::v11::basic_appender<char>)
FUNC 39100 174 0 _ZN3fmt3v116detail5writeIcNS0_14basic_appenderIcEEjTnNSt6__ndk19enable_ifIXaaaasr11is_integralIT1_EE5valuentsr3std7is_sameIS7_bEE5valuentsr3std7is_sameIS7_T_EE5valueEiE4typeELi0EEET0_SB_S7_
FUNC 39274 218 0 _ZN3fmt3v116detail5writeIcNS0_14basic_appenderIcEExTnNSt6__ndk19enable_ifIXaaaasr11is_integralIT1_EE5valuentsr3std7is_sameIS7_bEE5valuentsr3std7is_sameIS7_T_EE5valueEiE4typeELi0EEET0_SB_S7_
FUNC 3948c 1dc 0 _ZN3fmt3v116detail5writeIcNS0_14basic_appenderIcEEyTnNSt6__ndk19enable_ifIXaaaasr11is_integralIT1_EE5valuentsr3std7is_sameIS7_bEE5valuentsr3std7is_sameIS7_T_EE5valueEiE4typeELi0EEET0_SB_S7_
FUNC 39668 188 0 _ZN3fmt3v116detail5writeIcNS0_14basic_appenderIcEEbTnNSt6__ndk19enable_ifIXsr3std7is_sameIT1_bEE5valueEiE4typeELi0EEET0_SA_S7_RKNS0_12format_specsENS1_10locale_refE
FUNC 397f0 9f8 0 fmt::v11::detail::write_int_noinline<char, fmt::v11::basic_appender<char>, unsigned int>(fmt::v11::basic_appender<char>, fmt::v11::detail::write_int_arg<unsigned int>, fmt::v11::format_specs const&, fmt::v11::detail::locale_ref)
FUNC 3a1e8 184 0 fmt::v11::detail::write_padded<char, (fmt::v11::align::type)1, fmt::v11::basic_appender<char>, fmt::v11::detail::write_char<char, fmt::v11::basic_appender<char> >(fmt::v11::basic_appender<char>, char, fmt::v11::format_specs const&)::{lambda(fmt::v11::basic_appender<char>&)#1}>(fmt::v11::basic_appender<char>, fmt::v11::format_specs const&, unsigned int, unsigned int, fmt::v11::detail::write_char<char, fmt::v11::basic_appender<char> >(fmt::v11::basic_appender<char>, char, fmt::v11::format_specs const&)::{lambda(fmt::v11::basic_appender<char>&)#1})
FUNC 3a370 73c 0 _ZN3fmt3v116detail5writeIcNS0_14basic_appenderIcEEfTnNSt6__ndk19enable_ifIXsr13is_fast_floatIT1_EE5valueEiE4typeELi0EEET0_SA_S7_
FUNC 3aaac 140 0 fmt::v11::detail::write_padded<char, (fmt::v11::align::type)1, fmt::v11::basic_appender<char>, fmt::v11::detail::write_nonfinite<char, fmt::v11::basic_appender<char> >(fmt::v11::basic_appender<char>, bool, fmt::v11::format_specs, fmt::v11::sign::type)::{lambda(fmt::v11::basic_appender<char>&)#1}>(fmt::v11::basic_appender<char>, fmt::v11::format_specs const&, unsigned int, unsigned int, fmt::v11::detail::write_nonfinite<char, fmt::v11::basic_appender<char> >(fmt::v11::basic_appender<char>, bool, fmt::v11::format_specs, fmt::v11::sign::type)::{lambda(fmt::v11::basic_appender<char>&)#1})
FUNC 3abec e0 0 fmt::v11::detail::do_write_float<char, fmt::v11::basic_appender<char>, fmt::v11::detail::dragonbox::decimal_fp<float>, fmt::v11::detail::digit_grouping<char> >(fmt::v11::basic_appender<char>, fmt::v11::detail::dragonbox::decimal_fp<float> const&, fmt::v11::format_specs const&, fmt::v11::detail::float_specs, fmt::v11::detail::locale_ref)::{lambda(fmt::v11::basic_appender<char>(fmt::v11::basic_appender<char>))#1}::operator() const
FUNC 3accc 194 0 fmt::v11::detail::digit_grouping<char>::digit_grouping(fmt::v11::detail::locale_ref, bool)
FUNC 3ae60 22 0 fmt::v11::detail::digit_grouping<char>::~digit_grouping()
FUNC 3ae84 104 0 fmt::v11::detail::write_exponent<char, fmt::v11::basic_appender<char> >(int, fmt::v11::basic_appender<char>)
FUNC 3af88 144 0 _ZN3fmt3v116detail17write_significandIcjTnNSt6__ndk19enable_ifIXsr3std11is_integralIT0_EE5valueEiE4typeELi0EEEPT_S9_S5_iiS8_
FUNC 3b0cc 21c 0 fmt::v11::detail::digit_grouping<char>::apply<fmt::v11::basic_appender<char>, char>(fmt::v11::basic_appender<char>, fmt::v11::basic_string_view<char>) const
FUNC 3b2e8 6e 0 fmt::v11::basic_memory_buffer<int, (unsigned int)500, std::__ndk1::allocator<int> >::grow(fmt::v11::detail::buffer<int>&, unsigned int)
FUNC 3b360 e4 0 _ZN3fmt3v116detail5writeIcNS0_14basic_appenderIcEEdTnNSt6__ndk19enable_ifIXsr13is_fast_floatIT1_EE5valueEiE4typeELi0EEET0_SA_S7_
FUNC 3b444 9ac 0 fmt::v11::detail::do_write_float<char, fmt::v11::basic_appender<char>, fmt::v11::detail::dragonbox::decimal_fp<double>, fmt::v11::detail::digit_grouping<char> >(fmt::v11::basic_appender<char>, fmt::v11::detail::dragonbox::decimal_fp<double> const&, fmt::v11::format_specs const&, fmt::v11::detail::float_specs, fmt::v11::detail::locale_ref)
FUNC 3bdf0 e8 0 fmt::v11::detail::do_write_float<char, fmt::v11::basic_appender<char>, fmt::v11::detail::dragonbox::decimal_fp<double>, fmt::v11::detail::digit_grouping<char> >(fmt::v11::basic_appender<char>, fmt::v11::detail::dragonbox::decimal_fp<double> const&, fmt::v11::format_specs const&, fmt::v11::detail::float_specs, fmt::v11::detail::locale_ref)::{lambda(fmt::v11::basic_appender<char>(fmt::v11::basic_appender<char>))#1}::operator() const
FUNC 3bed8 19c 0 _ZN3fmt3v116detail17write_significandIcyTnNSt6__ndk19enable_ifIXsr3std11is_integralIT0_EE5valueEiE4typeELi0EEEPT_S9_S5_iiS8_
FUNC 3c080 e4 0 _ZN3fmt3v116detail5writeIcNS0_14basic_appenderIcEEeTnNSt6__ndk19enable_ifIXsr13is_fast_floatIT1_EE5valueEiE4typeELi0EEET0_SA_S7_
FUNC 3c164 150 0 fmt::v11::detail::write_padded<char, (fmt::v11::align::type)2, fmt::v11::basic_appender<char>, fmt::v11::detail::write_ptr<char, fmt::v11::basic_appender<char>, unsigned int>(fmt::v11::basic_appender<char>, unsigned int, fmt::v11::format_specs const*)::{lambda(fmt::v11::basic_appender<char>&)#1}>(fmt::v11::basic_appender<char>, fmt::v11::format_specs const&, unsigned int, unsigned int, fmt::v11::detail::write_ptr<char, fmt::v11::basic_appender<char>, unsigned int>(fmt::v11::basic_appender<char>, unsigned int, fmt::v11::format_specs const*)::{lambda(fmt::v11::basic_appender<char>&)#1})
FUNC 3c2b8 1064 0 fmt::v11::detail::parse_replacement_field<char, fmt::v11::detail::vformat_to<char>(fmt::v11::detail::buffer<char>&, fmt::v11::basic_string_view<char>, fmt::v11::detail::vformat_args<char>::type, fmt::v11::detail::locale_ref)::format_handler&>(char const*, char const*, fmt::v11::detail::vformat_to<char>(fmt::v11::detail::buffer<char>&, fmt::v11::basic_string_view<char>, fmt::v11::detail::vformat_args<char>::type, fmt::v11::detail::locale_ref)::format_handler&)
FUNC 3d31c b78 0 fmt::v11::detail::write_int_noinline<char, fmt::v11::basic_appender<char>, unsigned long long>(fmt::v11::basic_appender<char>, fmt::v11::detail::write_int_arg<unsigned long long>, fmt::v11::format_specs const&, fmt::v11::detail::locale_ref)
FUNC 3de94 3a4 0 _ZN3fmt3v116detail15format_hexfloatIdTnNSt6__ndk19enable_ifIXntsr16is_double_doubleIT_EE5valueEiE4typeELi0EEEvS5_NS0_12format_specsERNS1_6bufferIcEE
FUNC 3e238 ebc 0 fmt::v11::detail::format_float<double>(double, int, fmt::v11::detail::float_specs, fmt::v11::detail::buffer<char>&)
FUNC 3f0f4 10c 0 fmt::v11::detail::write_padded<char, (fmt::v11::align::type)2, fmt::v11::basic_appender<char>, fmt::v11::detail::write_bytes<char, (fmt::v11::align::type)2, fmt::v11::basic_appender<char> >(fmt::v11::basic_appender<char>, fmt::v11::basic_string_view<char>, fmt::v11::format_specs const&)::{lambda(fmt::v11::basic_appender<char>&)#1}>(fmt::v11::basic_appender<char>, fmt::v11::format_specs const&, unsigned int, unsigned int, fmt::v11::detail::write_bytes<char, (fmt::v11::align::type)2, fmt::v11::basic_appender<char> >(fmt::v11::basic_appender<char>, fmt::v11::basic_string_view<char>, fmt::v11::format_specs const&)::{lambda(fmt::v11::basic_appender<char>&)#1})
FUNC 3f200 c4 0 fmt::v11::detail::bigint::operator<<=(int)
FUNC 3f2c4 414 0 fmt::v11::detail::bigint::assign_pow10(int)
FUNC 3f6d8 276 0 fmt::v11::detail::bigint::divmod_assign(fmt::v11::detail::bigint const&)
FUNC 3f94e 6e 0 fmt::v11::basic_memory_buffer<unsigned int, (unsigned int)32, std::__ndk1::allocator<unsigned int> >::grow(fmt::v11::detail::buffer<unsigned int>&, unsigned int)
FUNC 3f9bc 994 0 fmt::v11::detail::do_write_float<char, fmt::v11::basic_appender<char>, fmt::v11::detail::big_decimal_fp, fmt::v11::detail::digit_grouping<char> >(fmt::v11::basic_appender<char>, fmt::v11::detail::big_decimal_fp const&, fmt::v11::format_specs const&, fmt::v11::detail::float_specs, fmt::v11::detail::locale_ref)
FUNC 40350 e0 0 fmt::v11::detail::do_write_float<char, fmt::v11::basic_appender<char>, fmt::v11::detail::big_decimal_fp, fmt::v11::detail::digit_grouping<char> >(fmt::v11::basic_appender<char>, fmt::v11::detail::big_decimal_fp const&, fmt::v11::format_specs const&, fmt::v11::detail::float_specs, fmt::v11::detail::locale_ref)::{lambda(fmt::v11::basic_appender<char>(fmt::v11::basic_appender<char>))#1}::operator() const
FUNC 40430 544 0 fmt::v11::detail::write_int<fmt::v11::basic_appender<char>, unsigned long long, char>(fmt::v11::basic_appender<char>, unsigned long long, unsigned int, fmt::v11::format_specs const&, fmt::v11::detail::digit_grouping<char> const&)
PUBLIC 40975 0 __ThumbV7PILongThunk___cxa_atexit
PUBLIC 40981 0 __ThumbV7PILongThunk__ZdlPv
PUBLIC 4098d 0 __ThumbV7PILongThunk__ZN12LoadingLayer10loadAssetsEv
PUBLIC 40999 0 __ThumbV7PILongThunk__ZN5geode24DefaultEventListenerPool3getEv
PUBLIC 409a5 0 __ThumbV7PILongThunk__ZN5geode21EventListenerProtocolD2Ev
PUBLIC 409b1 0 __ThumbV7PILongThunk__ZN5geode9addresser9Addresser19followThunkFunctionEi
PUBLIC 409bd 0 __ThumbV7PILongThunk__ZN9MenuLayer7keyDownEN7cocos2d12enumKeyCodesE
PUBLIC 409c9 0 __ThumbV7PILongThunk__ZN5geode5cocos19handleTouchPriorityEPN7cocos2d6CCNodeEb
PUBLIC 409d5 0 __ThumbV7PILongThunk__ZN7cocos2d20CCKeyboardDispatcher19dispatchKeyboardMSGENS_12enumKeyCodesEbb
PUBLIC 409e1 0 __ThumbV7PILongThunk__ZN9MenuLayer8onGarageEPN7cocos2d8CCObjectE
PUBLIC 409ed 0 __ThumbV7PILongThunk__ZN7cocos2d10CCDirector12replaceSceneEPNS_7CCSceneE
PUBLIC 409f9 0 __ThumbV7PILongThunk__ZN9MenuLayer6onPlayEPN7cocos2d8CCObjectE
PUBLIC 40a05 0 __ThumbV7PILongThunk__ZN9MenuLayer9onCreatorEPN7cocos2d8CCObjectE
PUBLIC 40a11 0 __ThumbV7PILongThunk__ZN9MenuLayer9onOptionsEPN7cocos2d8CCObjectE
PUBLIC 40a1d 0 __ThumbV7PILongThunk__ZN5geode5utils4game7restartEv
PUBLIC 40a29 0 __ThumbV7PILongThunk__ZN5geode5utils4game4exitEv
PUBLIC 40a35 0 __ThumbV7PILongThunk__ZN2gd6stringD1Ev
PUBLIC 40a41 0 __ThumbV7PILongThunk__ZN7cocos2d10CCDirector9pushSceneEPNS_7CCSceneE
PUBLIC 40a4d 0 __ThumbV7PILongThunk__ZNSt6__ndk119__shared_weak_count14__release_weakEv
PUBLIC 40a59 0 __ThumbV7PILongThunk__ZN5geode5EventD2Ev
PUBLIC 40a65 0 __ThumbV7PILongThunk__ZN7cocos2d8CCObject6retainEv
PUBLIC 40a71 0 __ThumbV7PILongThunk__ZN16CCScrollLayerExt11scrollLayerEf
PUBLIC 40a7d 0 __ThumbV7PILongThunk__ZN7cocos2d17CCTouchDispatcher11setPriorityEiPNS_15CCTouchDelegateE
PUBLIC 40a89 0 __ThumbV7PILongThunk__ZNSt6__ndk16locale5facetD2Ev
PUBLIC 40aa0 0 <.plt ELF section in firee.deck.android32.so>
STACK CFI INIT 1aa94 16 .cfa: sp 0 +
STACK CFI 1aa96 .cfa: sp 16 + .ra: .cfa -4 + ^ r7: .cfa -8 + ^ r6: .cfa -12 + ^ r4: .cfa -16 + ^
STACK CFI 1aa98 .cfa: r7 8 +
STACK CFI INIT 1aaaa c .cfa: sp 0 +
STACK CFI 1aaac .cfa: sp 8 + .ra: .cfa -4 + ^ r7: .cfa -8 + ^
STACK CFI 1aaae .cfa: r7 8 +
STACK CFI INIT 1aab8 3c .cfa: sp 0 +
STACK CFI 1aaba .cfa: sp 8 + .ra: .cfa -4 + ^ r7: .cfa -8 + ^
STACK CFI 1aabc .cfa: r7 8 +
STACK CFI INIT 1aaf4 2f4 .cfa: sp 0 +
STACK CFI 1aaf6 .cfa: sp 20 + .ra: .cfa -4 + ^ r7: .cfa -8 + ^ r6: .cfa -12 + ^ r5: .cfa -16 + ^ r4: .cfa -20 + ^
STACK CFI 1aaf8 .cfa: r7 8 +
STACK CFI 1aafc r11: .cfa -24 + ^ r10: .cfa -28 + ^ r9: .cfa -32 + ^ r8: .cfa -36 + ^
STACK CFI INIT 1ade8 20 .cfa: sp 0 +
STACK CFI 1adea .cfa: sp 16 + .ra: .cfa -4 + ^ r7: .cfa -8 + ^ r6: .cfa -12 + ^ r4: .cfa -16 + ^
STACK CFI 1adec .cfa: r7 8 +
STACK CFI INIT 1ae10 818 .cfa: sp 0 +
STACK CFI 1ae12 .cfa: sp 20 + .ra: .cfa -4 + ^ r7: .cfa -8 + ^ r6: .cfa -12 + ^ r5: .cfa -16 + ^ r4: .cfa -20 + ^
STACK CFI 1ae14 .cfa: r7 8 +
STACK CFI 1ae18 r10: .cfa -24 + ^ r9: .cfa -28 + ^ r8: .cfa -32 + ^
STACK CFI INIT 1b628 3a .cfa: sp 0 +
STACK CFI 1b62a .cfa: sp 16 + .ra: .cfa -4 + ^ r7: .cfa -8 + ^ r5: .cfa -12 + ^ r4: .cfa -16 + ^
STACK CFI 1b62c .cfa: r7 8 +
STACK CFI INIT 1b664 60 .cfa: sp 0 +
STACK CFI 1b666 .cfa: sp 16 + .ra: .cfa -4 + ^ r7: .cfa -8 + ^ r6: .cfa -12 + ^ r4: .cfa -16 + ^
STACK CFI 1b668 .cfa: r7 8 +
STACK CFI INIT 1b6c4 3e .cfa: sp 0 +
STACK CFI 1b6c6 .cfa: sp 20 + .ra: .cfa -4 + ^ r7: .cfa -8 + ^ r6: .cfa -12 + ^ r5: .cfa -16 + ^ r4: .cfa -20 + ^
STACK CFI 1b6c8 .cfa: r7 8 +
STACK CFI 1b6cc r11: .cfa -24 + ^
STACK CFI INIT 1b702 2 .cfa: sp 0 +
STACK CFI INIT 1b704 f8 .cfa: sp 0 +
STACK CFI 1b706 .cfa: sp 20 + .ra: .cfa -4 + ^ r7: .cfa -8 + ^ r6: .cfa -12 + ^ r5: .cfa -16 + ^ r4: .cfa -20 + ^
STACK CFI 1b708 .cfa: r7 8 +
STACK CFI 1b70c r8: .cfa -24 + ^
STACK CFI INIT 1b7fc 34 .cfa: sp 0 +
STACK CFI 1b7fe .cfa: sp 8 + .ra: .cfa -4 + ^ r7: .cfa -8 + ^
STACK CFI 1b800 .cfa: r7 8 +
STACK CFI INIT 1b830 d8 .cfa: sp 0 +
STACK CFI 1b832 .cfa: sp 20 + .ra: .cfa -4 + ^ r7: .cfa -8 + ^ r6: .cfa -12 + ^ r5: .cfa -16 + ^ r4: .cfa -20 + ^
STACK CFI 1b834 .cfa: r7 8 +
STACK CFI 1b838 r11: .cfa -24 + ^ r10: .cfa -28 + ^ r9: .cfa -32 + ^ r8: .cfa -36 + ^
STACK CFI INIT 1b908 68 .cfa: sp 0 +
STACK CFI 1b90a .cfa: sp 20 + .ra: .cfa -4 + ^ r7: .cfa -8 + ^ r6: .cfa -12 + ^ r5: .cfa -16 + ^ r4: .cfa -20 + ^
STACK CFI 1b90c .cfa: r7 8 +
STACK CFI 1b910 r11: .cfa -24 + ^
STACK CFI INIT 1b970 10 .cfa: sp 0 +
STACK CFI 1b972 .cfa: sp 8 + .ra: .cfa -4 + ^ r7: .cfa -8 + ^
STACK CFI 1b974 .cfa: r7 8 +
STACK CFI INIT 1b980 108 .cfa: sp 0 +
STACK CFI 1b982 .cfa: sp 20 + .ra: .cfa -4 + ^ r7: .cfa -8 + ^ r6: .cfa -12 + ^ r5: .cfa -16 + ^ r4: .cfa -20 + ^
STACK CFI 1b984 .cfa: r7 8 +
STACK CFI 1b988 r11: .cfa -24 + ^ r10: .cfa -28 + ^ r9: .cfa -32 + ^ r8: .cfa -36 + ^
STACK CFI INIT 1ba88 110 .cfa: sp 0 +
STACK CFI 1ba8a .cfa: sp 20 + .ra: .cfa -4 + ^ r7: .cfa -8 + ^ r6: .cfa -12 + ^ r5: .cfa -16 + ^ r4: .cfa -20 + ^
STACK CFI 1ba8c .cfa: r7 8 +
STACK CFI 1ba90 r11: .cfa -24 + ^ r10: .cfa -28 + ^ r9: .cfa -32 + ^ r8: .cfa -36 + ^
STACK CFI INIT 1bb98 10 .cfa: sp 0 +
STACK CFI 1bb9a .cfa: sp 8 + .ra: .cfa -4 + ^ r7: .cfa -8 + ^
STACK CFI 1bb9c .cfa: r7 8 +
STACK CFI INIT 1bba8 38 .cfa: sp 0 +
STACK CFI 1bbaa .cfa: sp 16 + .ra: .cfa -4 + ^ r7: .cfa -8 + ^ r5: .cfa -12 + ^ r4: .cfa -16 + ^
STACK CFI 1bbac .cfa: r7 8 +
STACK CFI INIT 1bbe0 18 .cfa: sp 0 +
STACK CFI 1bbe2 .cfa: sp 8 + .ra: .cfa -4 + ^ r7: .cfa -8 + ^
STACK CFI 1bbe4 .cfa: r7 8 +
STACK CFI INIT 1bbf8 28 .cfa: sp 0 +
STACK CFI 1bbfa .cfa: sp 8 + .ra: .cfa -4 + ^ r7: .cfa -8 + ^
STACK CFI 1bbfc .cfa: r7 8 +
STACK CFI INIT 1bc20 ce .cfa: sp 0 +
STACK CFI 1bc22 .cfa: sp 20 + .ra: .cfa -4 + ^ r7: .cfa -8 + ^ r6: .cfa -12 + ^ r5: .cfa -16 + ^ r4: .cfa -20 + ^
STACK CFI 1bc24 .cfa: r7 8 +
STACK CFI 1bc28 r10: .cfa -24 + ^ r9: .cfa -28 + ^ r8: .cfa -32 + ^
STACK CFI INIT 1bcee e0 .cfa: sp 0 +
STACK CFI 1bcf0 .cfa: sp 20 + .ra: .cfa -4 + ^ r7: .cfa -8 + ^ r6: .cfa -12 + ^ r5: .cfa -16 + ^ r4: .cfa -20 + ^
STACK CFI 1bcf2 .cfa: r7 8 +
STACK CFI 1bcf6 r11: .cfa -24 + ^ r9: .cfa -28 + ^ r8: .cfa -32 + ^
STACK CFI INIT 1bdd0 164 .cfa: sp 0 +
STACK CFI 1bdd2 .cfa: sp 20 + .ra: .cfa -4 + ^ r7: .cfa -8 + ^ r6: .cfa -12 + ^ r5: .cfa -16 + ^ r4: .cfa -20 + ^
STACK CFI 1bdd4 .cfa: r7 8 +
STACK CFI 1bdd8 r10: .cfa -24 + ^ r9: .cfa -28 + ^ r8: .cfa -32 + ^
STACK CFI INIT 1bf34 46 .cfa: sp 0 +
STACK CFI 1bf36 .cfa: sp 20 + .ra: .cfa -4 + ^ r7: .cfa -8 + ^ r6: .cfa -12 + ^ r5: .cfa -16 + ^ r4: .cfa -20 + ^
STACK CFI 1bf38 .cfa: r7 8 +
STACK CFI 1bf3c r8: .cfa -24 + ^
STACK CFI INIT 1bf7a 3c .cfa: sp 0 +
STACK CFI 1bf7c .cfa: sp 16 + .ra: .cfa -4 + ^ r7: .cfa -8 + ^ r5: .cfa -12 + ^ r4: .cfa -16 + ^
STACK CFI 1bf7e .cfa: r7 8 +
STACK CFI INIT 1bfb8 10 .cfa: sp 0 +
STACK CFI 1bfba .cfa: sp 8 + .ra: .cfa -4 + ^ r7: .cfa -8 + ^
STACK CFI 1bfbc .cfa: r7 8 +
STACK CFI INIT 1bfc8 2 .cfa: sp 0 +
STACK CFI INIT 1bfca e .cfa: sp 0 +
STACK CFI INIT 1bfd8 c0 .cfa: sp 0 +
STACK CFI 1bfda .cfa: sp 20 + .ra: .cfa -4 + ^ r7: .cfa -8 + ^ r6: .cfa -12 + ^ r5: .cfa -16 + ^ r4: .cfa -20 + ^
STACK CFI 1bfdc .cfa: r7 8 +
STACK CFI 1bfe0 r10: .cfa -24 + ^ r9: .cfa -28 + ^ r8: .cfa -32 + ^
STACK CFI INIT 1c098 82 .cfa: sp 0 +
STACK CFI 1c09a .cfa: sp 20 + .ra: .cfa -4 + ^ r7: .cfa -8 + ^ r6: .cfa -12 + ^ r5: .cfa -16 + ^ r4: .cfa -20 + ^
STACK CFI 1c09c .cfa: r7 8 +
STACK CFI 1c0a0 r11: .cfa -24 + ^
STACK CFI INIT 1c11a 274 .cfa: sp 0 +
STACK CFI 1c11c .cfa: sp 20 + .ra: .cfa -4 + ^ r7: .cfa -8 + ^ r6: .cfa -12 + ^ r5: .cfa -16 + ^ r4: .cfa -20 + ^
STACK CFI 1c11e .cfa: r7 8 +
STACK CFI 1c122 r8: .cfa -24 + ^
STACK CFI INIT 1c38e 5e .cfa: sp 0 +
STACK CFI 1c396 .cfa: sp 16 + .ra: .cfa -4 + ^ r7: .cfa -8 + ^ r5: .cfa -12 + ^ r4: .cfa -16 + ^
STACK CFI 1c398 .cfa: r7 8 +
STACK CFI INIT 1c3ec 634 .cfa: sp 0 +
STACK CFI 1c3ee .cfa: sp 20 + .ra: .cfa -4 + ^ r7: .cfa -8 + ^ r6: .cfa -12 + ^ r5: .cfa -16 + ^ r4: .cfa -20 + ^
STACK CFI 1c3f0 .cfa: r7 8 +
STACK CFI 1c3f4 r11: .cfa -24 + ^ r10: .cfa -28 + ^ r9: .cfa -32 + ^ r8: .cfa -36 + ^
STACK CFI INIT 1ca20 740 .cfa: sp 0 +
STACK CFI 1ca22 .cfa: sp 20 + .ra: .cfa -4 + ^ r7: .cfa -8 + ^ r6: .cfa -12 + ^ r5: .cfa -16 + ^ r4: .cfa -20 + ^
STACK CFI 1ca24 .cfa: r7 8 +
STACK CFI 1ca28 r11: .cfa -24 + ^ r10: .cfa -28 + ^ r9: .cfa -32 + ^ r8: .cfa -36 + ^
STACK CFI INIT 1d160 88 .cfa: sp 0 +
STACK CFI 1d162 .cfa: sp 20 + .ra: .cfa -4 + ^ r7: .cfa -8 + ^ r6: .cfa -12 + ^ r5: .cfa -16 + ^ r4: .cfa -20 + ^
STACK CFI 1d164 .cfa: r7 8 +
STACK CFI 1d168 r11: .cfa -24 + ^
STACK CFI INIT 1d1e8 3a .cfa: sp 0 +
STACK CFI 1d1ea .cfa: sp 16 + .ra: .cfa -4 + ^ r7: .cfa -8 + ^ r5: .cfa -12 + ^ r4: .cfa -16 + ^
STACK CFI 1d1ec .cfa: r7 8 +
STACK CFI INIT 1d222 46 .cfa: sp 0 +
STACK CFI 1d224 .cfa: sp 16 + .ra: .cfa -4 + ^ r7: .cfa -8 + ^ r5: .cfa -12 + ^ r4: .cfa -16 + ^
STACK CFI 1d226 .cfa: r7 8 +
STACK CFI INIT 1d268 b4 .cfa: sp 0 +
STACK CFI 1d26a .cfa: sp 20 + .ra: .cfa -4 + ^ r7: .cfa -8 + ^ r6: .cfa -12 + ^ r5: .cfa -16 + ^ r4: .cfa -20 + ^
STACK CFI 1d26c .cfa: r7 8 +
STACK CFI 1d270 r8: .cfa -24 + ^
STACK CFI INIT 1d31c d8 .cfa: sp 0 +
STACK CFI 1d31e .cfa: sp 20 + .ra: .cfa -4 + ^ r7: .cfa -8 + ^ r6: .cfa -12 + ^ r5: .cfa -16 + ^ r4: .cfa -20 + ^
STACK CFI 1d320 .cfa: r7 8 +
STACK CFI 1d324 r10: .cfa -24 + ^ r9: .cfa -28 + ^ r8: .cfa -32 + ^
STACK CFI INIT 1d3f4 57c .cfa: sp 0 +
STACK CFI 1d3f6 .cfa: sp 20 + .ra: .cfa -4 + ^ r7: .cfa -8 + ^ r6: .cfa -12 + ^ r5: .cfa -16 + ^ r4: .cfa -20 + ^
STACK CFI 1d3f8 .cfa: r7 8 +
STACK CFI 1d3fc r11: .cfa -24 + ^ r10: .cfa -28 + ^ r9: .cfa -32 + ^ r8: .cfa -36 + ^
STACK CFI INIT 1d970 2 .cfa: sp 0 +
STACK CFI INIT 1d974 10 .cfa: sp 0 +
STACK CFI 1d976 .cfa: sp 8 + .ra: .cfa -4 + ^ r7: .cfa -8 + ^
STACK CFI 1d978 .cfa: r7 8 +
STACK CFI INIT 1d984 10 .cfa: sp 0 +
STACK CFI 1d986 .cfa: sp 8 + .ra: .cfa -4 + ^ r7: .cfa -8 + ^
STACK CFI 1d988 .cfa: r7 8 +
STACK CFI INIT 1d994 10 .cfa: sp 0 +
STACK CFI 1d996 .cfa: sp 8 + .ra: .cfa -4 + ^ r7: .cfa -8 + ^
STACK CFI 1d998 .cfa: r7 8 +
STACK CFI INIT 1d9a4 38 .cfa: sp 0 +
STACK CFI 1d9a6 .cfa: sp 16 + .ra: .cfa -4 + ^ r7: .cfa -8 + ^ r5: .cfa -12 + ^ r4: .cfa -16 + ^
STACK CFI 1d9a8 .cfa: r7 8 +
STACK CFI INIT 1d9dc 18 .cfa: sp 0 +
STACK CFI 1d9de .cfa: sp 8 + .ra: .cfa -4 + ^ r7: .cfa -8 + ^
STACK CFI 1d9e0 .cfa: r7 8 +
STACK CFI INIT 1d9f4 10 .cfa: sp 0 +
STACK CFI 1d9f6 .cfa: sp 8 + .ra: .cfa -4 + ^ r7: .cfa -8 + ^
STACK CFI 1d9f8 .cfa: r7 8 +
STACK CFI INIT 1da04 2 .cfa: sp 0 +
STACK CFI INIT 1da06 4 .cfa: sp 0 +
STACK CFI INIT 1da0c 20 .cfa: sp 0 +
STACK CFI 1da0e .cfa: sp 16 + .ra: .cfa -4 + ^ r7: .cfa -8 + ^ r6: .cfa -12 + ^ r4: .cfa -16 + ^
STACK CFI 1da10 .cfa: r7 8 +
STACK CFI INIT 1da2c 14 .cfa: sp 0 +
STACK CFI INIT 1da40 2 .cfa: sp 0 +
STACK CFI INIT 1da42 4 .cfa: sp 0 +
STACK CFI INIT 1da46 8 .cfa: sp 0 +
STACK CFI INIT 1da50 18 .cfa: sp 0 +
STACK CFI INIT 1da68 c .cfa: sp 0 +
STACK CFI INIT 1da74 4e .cfa: sp 0 +
STACK CFI 1da76 .cfa: sp 20 + .ra: .cfa -4 + ^ r7: .cfa -8 + ^ r6: .cfa -12 + ^ r5: .cfa -16 + ^ r4: .cfa -20 + ^
STACK CFI 1da78 .cfa: r7 8 +
STACK CFI 1da7c r8: .cfa -24 + ^
STACK CFI INIT 1dac2 3a .cfa: sp 0 +
STACK CFI 1dac4 .cfa: sp 20 + .ra: .cfa -4 + ^ r7: .cfa -8 + ^ r6: .cfa -12 + ^ r5: .cfa -16 + ^ r4: .cfa -20 + ^
STACK CFI 1dac6 .cfa: r7 8 +
STACK CFI 1daca r11: .cfa -24 + ^
STACK CFI INIT 1dafc ac .cfa: sp 0 +
STACK CFI 1dafe .cfa: sp 16 + .ra: .cfa -4 + ^ r7: .cfa -8 + ^ r5: .cfa -12 + ^ r4: .cfa -16 + ^
STACK CFI 1db00 .cfa: r7 8 +
STACK CFI INIT 1dba8 66 .cfa: sp 0 +
STACK CFI 1dbaa .cfa: sp 20 + .ra: .cfa -4 + ^ r7: .cfa -8 + ^ r6: .cfa -12 + ^ r5: .cfa -16 + ^ r4: .cfa -20 + ^
STACK CFI 1dbac .cfa: r7 8 +
STACK CFI 1dbb0 r11: .cfa -24 + ^ r9: .cfa -28 + ^ r8: .cfa -32 + ^
STACK CFI INIT 1dc0e a6 .cfa: sp 0 +
STACK CFI 1dc10 .cfa: sp 20 + .ra: .cfa -4 + ^ r7: .cfa -8 + ^ r6: .cfa -12 + ^ r5: .cfa -16 + ^ r4: .cfa -20 + ^
STACK CFI 1dc12 .cfa: r7 8 +
STACK CFI 1dc16 r10: .cfa -24 + ^ r9: .cfa -28 + ^ r8: .cfa -32 + ^
STACK CFI INIT 1dcb4 ba .cfa: sp 0 +
STACK CFI 1dcb6 .cfa: sp 20 + .ra: .cfa -4 + ^ r7: .cfa -8 + ^ r6: .cfa -12 + ^ r5: .cfa -16 + ^ r4: .cfa -20 + ^
STACK CFI 1dcb8 .cfa: r7 8 +
STACK CFI 1dcbc r11: .cfa -24 + ^ r10: .cfa -28 + ^ r9: .cfa -32 + ^ r8: .cfa -36 + ^
STACK CFI INIT 1dd6e 14a .cfa: sp 0 +
STACK CFI 1dd80 .cfa: sp 16 + .ra: .cfa -4 + ^ r7: .cfa -8 + ^ r6: .cfa -12 + ^ r4: .cfa -16 + ^
STACK CFI 1dd82 .cfa: r7 8 +
STACK CFI INIT 1deb8 f8 .cfa: sp 0 +
STACK CFI 1deba .cfa: sp 20 + .ra: .cfa -4 + ^ r7: .cfa -8 + ^ r6: .cfa -12 + ^ r5: .cfa -16 + ^ r4: .cfa -20 + ^
STACK CFI 1debc .cfa: r7 8 +
STACK CFI 1dec0 r11: .cfa -24 + ^
STACK CFI INIT 1dfb0 8c .cfa: sp 0 +
STACK CFI 1dfb2 .cfa: sp 20 + .ra: .cfa -4 + ^ r7: .cfa -8 + ^ r6: .cfa -12 + ^ r5: .cfa -16 + ^ r4: .cfa -20 + ^
STACK CFI 1dfb4 .cfa: r7 8 +
STACK CFI 1dfb8 r11: .cfa -24 + ^ r9: .cfa -28 + ^ r8: .cfa -32 + ^
STACK CFI INIT 1e03c ac .cfa: sp 0 +
STACK CFI 1e03e .cfa: sp 16 + .ra: .cfa -4 + ^ r7: .cfa -8 + ^ r5: .cfa -12 + ^ r4: .cfa -16 + ^
STACK CFI 1e040 .cfa: r7 8 +
STACK CFI INIT 1e0e8 48 .cfa: sp 0 +
STACK CFI 1e0ea .cfa: sp 12 +
STACK CFI 1e0ec .cfa: sp 20 + .ra: .cfa -16 + ^ r7: .cfa -20 + ^
STACK CFI 1e0ee .cfa: r7 20 +
STACK CFI INIT 1e130 130 .cfa: sp 0 +
STACK CFI 1e132 .cfa: sp 20 + .ra: .cfa -4 + ^ r7: .cfa -8 + ^ r6: .cfa -12 + ^ r5: .cfa -16 + ^ r4: .cfa -20 + ^
STACK CFI 1e134 .cfa: r7 8 +
STACK CFI 1e138 r10: .cfa -24 + ^ r9: .cfa -28 + ^ r8: .cfa -32 + ^
STACK CFI INIT 1e260 150 .cfa: sp 0 +
STACK CFI 1e262 .cfa: sp 20 + .ra: .cfa -4 + ^ r7: .cfa -8 + ^ r6: .cfa -12 + ^ r5: .cfa -16 + ^ r4: .cfa -20 + ^
STACK CFI 1e264 .cfa: r7 8 +
STACK CFI 1e268 r8: .cfa -24 + ^
STACK CFI INIT 1e3b0 d80 .cfa: sp 0 +
STACK CFI 1e3b2 .cfa: sp 20 + .ra: .cfa -4 + ^ r7: .cfa -8 + ^ r6: .cfa -12 + ^ r5: .cfa -16 + ^ r4: .cfa -20 + ^
STACK CFI 1e3b4 .cfa: r7 8 +
STACK CFI 1e3b8 r11: .cfa -24 + ^ r10: .cfa -28 + ^ r9: .cfa -32 + ^ r8: .cfa -36 + ^
STACK CFI INIT 1f130 118 .cfa: sp 0 +
STACK CFI 1f132 .cfa: sp 20 + .ra: .cfa -4 + ^ r7: .cfa -8 + ^ r6: .cfa -12 + ^ r5: .cfa -16 + ^ r4: .cfa -20 + ^
STACK CFI 1f134 .cfa: r7 8 +
STACK CFI 1f138 r11: .cfa -24 + ^
STACK CFI INIT 1f248 134 .cfa: sp 0 +
STACK CFI 1f24a .cfa: sp 20 + .ra: .cfa -4 + ^ r7: .cfa -8 + ^ r6: .cfa -12 + ^ r5: .cfa -16 + ^ r4: .cfa -20 + ^
STACK CFI 1f24c .cfa: r7 8 +
STACK CFI 1f250 r11: .cfa -24 + ^
STACK CFI INIT 1f37c 40 .cfa: sp 0 +
STACK CFI 1f37e .cfa: sp 8 + .ra: .cfa -4 + ^ r7: .cfa -8 + ^
STACK CFI 1f380 .cfa: r7 8 +
STACK CFI INIT 1f3bc 4 .cfa: sp 0 +
STACK CFI INIT 1f3c0 38 .cfa: sp 0 +
STACK CFI 1f3c2 .cfa: sp 16 + .ra: .cfa -4 + ^ r7: .cfa -8 + ^ r6: .cfa -12 + ^ r4: .cfa -16 + ^
STACK CFI 1f3c4 .cfa: r7 8 +
STACK CFI INIT 1f3f8 3c .cfa: sp 0 +
STACK CFI 1f3fa .cfa: sp 16 + .ra: .cfa -4 + ^ r7: .cfa -8 + ^ r6: .cfa -12 + ^ r4: .cfa -16 + ^
STACK CFI 1f3fc .cfa: r7 8 +
STACK CFI INIT 1f434 2 .cfa: sp 0 +
STACK CFI INIT 1f438 34 .cfa: sp 0 +
STACK CFI 1f43a .cfa: sp 8 + .ra: .cfa -4 + ^ r7: .cfa -8 + ^
STACK CFI 1f43c .cfa: r7 8 +
STACK CFI INIT 1f46c 10 .cfa: sp 0 +
STACK CFI 1f46e .cfa: sp 8 + .ra: .cfa -4 + ^ r7: .cfa -8 + ^
STACK CFI 1f470 .cfa: r7 8 +
STACK CFI INIT 1f47c 2 .cfa: sp 0 +
STACK CFI INIT 1f47e 4 .cfa: sp 0 +
STACK CFI INIT 1f484 20 .cfa: sp 0 +
STACK CFI 1f486 .cfa: sp 16 + .ra: .cfa -4 + ^ r7: .cfa -8 + ^ r6: .cfa -12 + ^ r4: .cfa -16 + ^
STACK CFI 1f488 .cfa: r7 8 +
STACK CFI INIT 1f4a4 14 .cfa: sp 0 +
STACK CFI INIT 1f4b8 2 .cfa: sp 0 +
STACK CFI INIT 1f4ba 4 .cfa: sp 0 +
STACK CFI INIT 1f4be 1c .cfa: sp 0 +
STACK CFI 1f4c0 .cfa: sp 16 + .ra: .cfa -4 + ^ r7: .cfa -8 + ^ r6: .cfa -12 + ^ r4: .cfa -16 + ^
STACK CFI 1f4c2 .cfa: r7 8 +
STACK CFI INIT 1f4dc 18 .cfa: sp 0 +
STACK CFI INIT 1f4f4 c .cfa: sp 0 +
STACK CFI INIT 1f500 1a0 .cfa: sp 0 +
STACK CFI 1f502 .cfa: sp 20 + .ra: .cfa -4 + ^ r7: .cfa -8 + ^ r6: .cfa -12 + ^ r5: .cfa -16 + ^ r4: .cfa -20 + ^
STACK CFI 1f504 .cfa: r7 8 +
STACK CFI 1f508 r11: .cfa -24 + ^ r9: .cfa -28 + ^ r8: .cfa -32 + ^
STACK CFI INIT 1f6a0 28 .cfa: sp 0 +
STACK CFI 1f6a2 .cfa: sp 16 + .ra: .cfa -4 + ^ r7: .cfa -8 + ^ r6: .cfa -12 + ^ r4: .cfa -16 + ^
STACK CFI 1f6a4 .cfa: r7 8 +
STACK CFI INIT 1f6c8 b4 .cfa: sp 0 +
STACK CFI 1f6ca .cfa: sp 12 +
STACK CFI 1f6cc .cfa: sp 32 + .ra: .cfa -16 + ^ r7: .cfa -20 + ^ r6: .cfa -24 + ^ r5: .cfa -28 + ^ r4: .cfa -32 + ^
STACK CFI 1f6ce .cfa: r7 20 +
STACK CFI 1f6d2 r11: .cfa -36 + ^
STACK CFI INIT 1f77c 660 .cfa: sp 0 +
STACK CFI 1f77e .cfa: sp 20 + .ra: .cfa -4 + ^ r7: .cfa -8 + ^ r6: .cfa -12 + ^ r5: .cfa -16 + ^ r4: .cfa -20 + ^
STACK CFI 1f780 .cfa: r7 8 +
STACK CFI 1f784 r11: .cfa -24 + ^ r10: .cfa -28 + ^ r9: .cfa -32 + ^ r8: .cfa -36 + ^
STACK CFI INIT 1fddc 20 .cfa: sp 0 +
STACK CFI 1fdde .cfa: sp 16 + .ra: .cfa -4 + ^ r7: .cfa -8 + ^ r6: .cfa -12 + ^ r4: .cfa -16 + ^
STACK CFI 1fde0 .cfa: r7 8 +
STACK CFI INIT 1fe00 7e4 .cfa: sp 0 +
STACK CFI 1fe02 .cfa: sp 20 + .ra: .cfa -4 + ^ r7: .cfa -8 + ^ r6: .cfa -12 + ^ r5: .cfa -16 + ^ r4: .cfa -20 + ^
STACK CFI 1fe04 .cfa: r7 8 +
STACK CFI 1fe08 r11: .cfa -24 + ^ r9: .cfa -28 + ^ r8: .cfa -32 + ^
STACK CFI INIT 205e4 2 .cfa: sp 0 +
STACK CFI INIT 205e8 a8 .cfa: sp 0 +
STACK CFI 205ea .cfa: sp 20 + .ra: .cfa -4 + ^ r7: .cfa -8 + ^ r6: .cfa -12 + ^ r5: .cfa -16 + ^ r4: .cfa -20 + ^
STACK CFI 205ec .cfa: r7 8 +
STACK CFI 205f0 r11: .cfa -24 + ^ r9: .cfa -28 + ^ r8: .cfa -32 + ^
STACK CFI INIT 20690 5c .cfa: sp 0 +
STACK CFI 20692 .cfa: sp 20 + .ra: .cfa -4 + ^ r7: .cfa -8 + ^ r6: .cfa -12 + ^ r5: .cfa -16 + ^ r4: .cfa -20 + ^
STACK CFI 20694 .cfa: r7 8 +
STACK CFI 20698 r11: .cfa -24 + ^
STACK CFI INIT 206ec 104 .cfa: sp 0 +
STACK CFI 206ee .cfa: sp 20 + .ra: .cfa -4 + ^ r7: .cfa -8 + ^ r6: .cfa -12 + ^ r5: .cfa -16 + ^ r4: .cfa -20 + ^
STACK CFI 206f0 .cfa: r7 8 +
STACK CFI 206f4 r8: .cfa -24 + ^
STACK CFI INIT 207f0 2 .cfa: sp 0 +
STACK CFI INIT 207f2 4 .cfa: sp 0 +
STACK CFI INIT 207f8 20 .cfa: sp 0 +
STACK CFI 207fa .cfa: sp 16 + .ra: .cfa -4 + ^ r7: .cfa -8 + ^ r6: .cfa -12 + ^ r4: .cfa -16 + ^
STACK CFI 207fc .cfa: r7 8 +
STACK CFI INIT 20818 18 .cfa: sp 0 +
STACK CFI INIT 20830 2 .cfa: sp 0 +
STACK CFI INIT 20832 4 .cfa: sp 0 +
STACK CFI INIT 20836 6 .cfa: sp 0 +
STACK CFI INIT 2083c 18 .cfa: sp 0 +
STACK CFI INIT 20854 c .cfa: sp 0 +
STACK CFI INIT 20860 4 .cfa: sp 0 +
STACK CFI INIT 20864 e4 .cfa: sp 0 +
STACK CFI 20866 .cfa: sp 20 + .ra: .cfa -4 + ^ r7: .cfa -8 + ^ r6: .cfa -12 + ^ r5: .cfa -16 + ^ r4: .cfa -20 + ^
STACK CFI 20868 .cfa: r7 8 +
STACK CFI 2086c r11: .cfa -24 + ^
STACK CFI INIT 20948 38 .cfa: sp 0 +
STACK CFI 2094a .cfa: sp 16 + .ra: .cfa -4 + ^ r7: .cfa -8 + ^ r6: .cfa -12 + ^ r4: .cfa -16 + ^
STACK CFI 2094c .cfa: r7 8 +
STACK CFI INIT 20980 3c .cfa: sp 0 +
STACK CFI 20982 .cfa: sp 16 + .ra: .cfa -4 + ^ r7: .cfa -8 + ^ r6: .cfa -12 + ^ r4: .cfa -16 + ^
STACK CFI 20984 .cfa: r7 8 +
STACK CFI INIT 209bc 2 .cfa: sp 0 +
STACK CFI INIT 209be e .cfa: sp 0 +
STACK CFI INIT 209cc 7c .cfa: sp 0 +
STACK CFI 209ce .cfa: sp 16 + .ra: .cfa -4 + ^ r7: .cfa -8 + ^ r6: .cfa -12 + ^ r4: .cfa -16 + ^
STACK CFI 209d0 .cfa: r7 8 +
STACK CFI INIT 20a48 78c .cfa: sp 0 +
STACK CFI 20a4a .cfa: sp 20 + .ra: .cfa -4 + ^ r7: .cfa -8 + ^ r6: .cfa -12 + ^ r5: .cfa -16 + ^ r4: .cfa -20 + ^
STACK CFI 20a4c .cfa: r7 8 +
STACK CFI 20a50 r11: .cfa -24 + ^ r10: .cfa -28 + ^ r9: .cfa -32 + ^ r8: .cfa -36 + ^
STACK CFI INIT 211d4 7c .cfa: sp 0 +
STACK CFI 211d6 .cfa: sp 16 + .ra: .cfa -4 + ^ r7: .cfa -8 + ^ r6: .cfa -12 + ^ r4: .cfa -16 + ^
STACK CFI 211d8 .cfa: r7 8 +
STACK CFI INIT 21250 100 .cfa: sp 0 +
STACK CFI 21252 .cfa: sp 20 + .ra: .cfa -4 + ^ r7: .cfa -8 + ^ r6: .cfa -12 + ^ r5: .cfa -16 + ^ r4: .cfa -20 + ^
STACK CFI 21254 .cfa: r7 8 +
STACK CFI 21258 r8: .cfa -24 + ^
STACK CFI INIT 21350 90 .cfa: sp 0 +
STACK CFI 21352 .cfa: sp 20 + .ra: .cfa -4 + ^ r7: .cfa -8 + ^ r6: .cfa -12 + ^ r5: .cfa -16 + ^ r4: .cfa -20 + ^
STACK CFI 21354 .cfa: r7 8 +
STACK CFI 21358 r11: .cfa -24 + ^
STACK CFI INIT 213e0 6c .cfa: sp 0 +
STACK CFI 213e2 .cfa: sp 16 + .ra: .cfa -4 + ^ r7: .cfa -8 + ^ r6: .cfa -12 + ^ r4: .cfa -16 + ^
STACK CFI 213e4 .cfa: r7 8 +
STACK CFI INIT 2144c 4 .cfa: sp 0 +
STACK CFI INIT 21450 20 .cfa: sp 0 +
STACK CFI 21452 .cfa: sp 16 + .ra: .cfa -4 + ^ r7: .cfa -8 + ^ r6: .cfa -12 + ^ r4: .cfa -16 + ^
STACK CFI 21454 .cfa: r7 8 +
STACK CFI INIT 21470 14 .cfa: sp 0 +
STACK CFI INIT 21484 2 .cfa: sp 0 +
STACK CFI INIT 21486 4 .cfa: sp 0 +
STACK CFI INIT 2148a c .cfa: sp 0 +
STACK CFI INIT 21498 18 .cfa: sp 0 +
STACK CFI INIT 214b0 c .cfa: sp 0 +
STACK CFI INIT 214bc 2 .cfa: sp 0 +
STACK CFI INIT 214be 4 .cfa: sp 0 +
STACK CFI INIT 214c4 20 .cfa: sp 0 +
STACK CFI 214c6 .cfa: sp 16 + .ra: .cfa -4 + ^ r7: .cfa -8 + ^ r6: .cfa -12 + ^ r4: .cfa -16 + ^
STACK CFI 214c8 .cfa: r7 8 +
STACK CFI INIT 214e4 14 .cfa: sp 0 +
STACK CFI INIT 214f8 2 .cfa: sp 0 +
STACK CFI INIT 214fa 4 .cfa: sp 0 +
STACK CFI INIT 214fe 6 .cfa: sp 0 +
STACK CFI INIT 21504 18 .cfa: sp 0 +
STACK CFI INIT 2151c c .cfa: sp 0 +
STACK CFI INIT 0 d8 .cfa: sp 0 +
STACK CFI 2 .cfa: sp 20 + .ra: .cfa -4 + ^ r7: .cfa -8 + ^ r6: .cfa -12 + ^ r5: .cfa -16 + ^ r4: .cfa -20 + ^
STACK CFI 4 .cfa: r7 8 +
STACK CFI 8 r11: .cfa -24 + ^ r9: .cfa -28 + ^ r8: .cfa -32 + ^
STACK CFI INIT 0 d8 .cfa: sp 0 +
STACK CFI 2 .cfa: sp 20 + .ra: .cfa -4 + ^ r7: .cfa -8 + ^ r6: .cfa -12 + ^ r5: .cfa -16 + ^ r4: .cfa -20 + ^
STACK CFI 4 .cfa: r7 8 +
STACK CFI 8 r11: .cfa -24 + ^ r9: .cfa -28 + ^ r8: .cfa -32 + ^
STACK CFI INIT 21528 7fc .cfa: sp 0 +
STACK CFI 2152a .cfa: sp 20 + .ra: .cfa -4 + ^ r7: .cfa -8 + ^ r6: .cfa -12 + ^ r5: .cfa -16 + ^ r4: .cfa -20 + ^
STACK CFI 2152c .cfa: r7 8 +
STACK CFI 21530 r11: .cfa -24 + ^ r10: .cfa -28 + ^ r9: .cfa -32 + ^ r8: .cfa -36 + ^
STACK CFI INIT 21d24 30 .cfa: sp 0 +
STACK CFI 21d26 .cfa: sp 16 + .ra: .cfa -4 + ^ r7: .cfa -8 + ^ r6: .cfa -12 + ^ r4: .cfa -16 + ^
STACK CFI 21d28 .cfa: r7 8 +
STACK CFI INIT 21d54 30 .cfa: sp 0 +
STACK CFI 21d56 .cfa: sp 16 + .ra: .cfa -4 + ^ r7: .cfa -8 + ^ r6: .cfa -12 + ^ r4: .cfa -16 + ^
STACK CFI 21d58 .cfa: r7 8 +
STACK CFI INIT 21d84 8 .cfa: sp 0 +
STACK CFI INIT 21d8c 5e .cfa: sp 0 +
STACK CFI 21d8e .cfa: sp 20 + .ra: .cfa -4 + ^ r7: .cfa -8 + ^ r6: .cfa -12 + ^ r5: .cfa -16 + ^ r4: .cfa -20 + ^
STACK CFI 21d90 .cfa: r7 8 +
STACK CFI 21d94 r11: .cfa -24 + ^
STACK CFI INIT 21dec 454 .cfa: sp 0 +
STACK CFI 21dee .cfa: sp 20 + .ra: .cfa -4 + ^ r7: .cfa -8 + ^ r6: .cfa -12 + ^ r5: .cfa -16 + ^ r4: .cfa -20 + ^
STACK CFI 21df0 .cfa: r7 8 +
STACK CFI 21df4 r11: .cfa -24 + ^ r10: .cfa -28 + ^ r9: .cfa -32 + ^ r8: .cfa -36 + ^
STACK CFI INIT 22240 30 .cfa: sp 0 +
STACK CFI 22242 .cfa: sp 16 + .ra: .cfa -4 + ^ r7: .cfa -8 + ^ r6: .cfa -12 + ^ r4: .cfa -16 + ^
STACK CFI 22244 .cfa: r7 8 +
STACK CFI INIT 22270 d8 .cfa: sp 0 +
STACK CFI 22272 .cfa: sp 20 + .ra: .cfa -4 + ^ r7: .cfa -8 + ^ r6: .cfa -12 + ^ r5: .cfa -16 + ^ r4: .cfa -20 + ^
STACK CFI 22274 .cfa: r7 8 +
STACK CFI 22278 r11: .cfa -24 + ^ r9: .cfa -28 + ^ r8: .cfa -32 + ^
STACK CFI INIT 0 d8 .cfa: sp 0 +
STACK CFI 2 .cfa: sp 20 + .ra: .cfa -4 + ^ r7: .cfa -8 + ^ r6: .cfa -12 + ^ r5: .cfa -16 + ^ r4: .cfa -20 + ^
STACK CFI 4 .cfa: r7 8 +
STACK CFI 8 r11: .cfa -24 + ^ r9: .cfa -28 + ^ r8: .cfa -32 + ^
STACK CFI INIT 22348 30 .cfa: sp 0 +
STACK CFI 22354 .cfa: sp 16 + .ra: .cfa -4 + ^ r7: .cfa -8 + ^ r6: .cfa -12 + ^ r4: .cfa -16 + ^
STACK CFI 22356 .cfa: r7 8 +
STACK CFI INIT 22378 46 .cfa: sp 0 +
STACK CFI 22384 .cfa: sp 20 + .ra: .cfa -4 + ^ r7: .cfa -8 + ^ r6: .cfa -12 + ^ r5: .cfa -16 + ^ r4: .cfa -20 + ^
STACK CFI 22386 .cfa: r7 8 +
STACK CFI 2238a r11: .cfa -24 + ^
STACK CFI INIT 223c0 97c .cfa: sp 0 +
STACK CFI 223c2 .cfa: sp 20 + .ra: .cfa -4 + ^ r7: .cfa -8 + ^ r6: .cfa -12 + ^ r5: .cfa -16 + ^ r4: .cfa -20 + ^
STACK CFI 223c4 .cfa: r7 8 +
STACK CFI 223c8 r11: .cfa -24 + ^ r10: .cfa -28 + ^ r9: .cfa -32 + ^ r8: .cfa -36 + ^
STACK CFI INIT 22d3c 8 .cfa: sp 0 +
STACK CFI INIT 22d44 19c .cfa: sp 0 +
STACK CFI 22d46 .cfa: sp 20 + .ra: .cfa -4 + ^ r7: .cfa -8 + ^ r6: .cfa -12 + ^ r5: .cfa -16 + ^ r4: .cfa -20 + ^
STACK CFI 22d48 .cfa: r7 8 +
STACK CFI 22d4c r11: .cfa -24 + ^ r9: .cfa -28 + ^ r8: .cfa -32 + ^
STACK CFI INIT 22ee0 a8 .cfa: sp 0 +
STACK CFI 22ee2 .cfa: sp 20 + .ra: .cfa -4 + ^ r7: .cfa -8 + ^ r6: .cfa -12 + ^ r5: .cfa -16 + ^ r4: .cfa -20 + ^
STACK CFI 22ee4 .cfa: r7 8 +
STACK CFI 22ee8 r10: .cfa -24 + ^ r9: .cfa -28 + ^ r8: .cfa -32 + ^
STACK CFI INIT 22f88 ac .cfa: sp 0 +
STACK CFI 22f8a .cfa: sp 20 + .ra: .cfa -4 + ^ r7: .cfa -8 + ^ r6: .cfa -12 + ^ r5: .cfa -16 + ^ r4: .cfa -20 + ^
STACK CFI 22f8c .cfa: r7 8 +
STACK CFI 22f90 r11: .cfa -24 + ^
STACK CFI INIT 23034 b0 .cfa: sp 0 +
STACK CFI 23036 .cfa: sp 20 + .ra: .cfa -4 + ^ r7: .cfa -8 + ^ r6: .cfa -12 + ^ r5: .cfa -16 + ^ r4: .cfa -20 + ^
STACK CFI 23038 .cfa: r7 8 +
STACK CFI 2303c r11: .cfa -24 + ^
STACK CFI INIT 230e4 2 .cfa: sp 0 +
STACK CFI INIT 230e6 2 .cfa: sp 0 +
STACK CFI INIT 230e8 4 .cfa: sp 0 +
STACK CFI INIT 230ec b0 .cfa: sp 0 +
STACK CFI 230ee .cfa: sp 20 + .ra: .cfa -4 + ^ r7: .cfa -8 + ^ r6: .cfa -12 + ^ r5: .cfa -16 + ^ r4: .cfa -20 + ^
STACK CFI 230f0 .cfa: r7 8 +
STACK CFI 230f4 r8: .cfa -24 + ^
STACK CFI INIT 2319c b4 .cfa: sp 0 +
STACK CFI 2319e .cfa: sp 20 + .ra: .cfa -4 + ^ r7: .cfa -8 + ^ r6: .cfa -12 + ^ r5: .cfa -16 + ^ r4: .cfa -20 + ^
STACK CFI 231a0 .cfa: r7 8 +
STACK CFI 231a4 r8: .cfa -24 + ^
STACK CFI INIT 23250 2 .cfa: sp 0 +
STACK CFI INIT 23252 2 .cfa: sp 0 +
STACK CFI INIT 23254 2 .cfa: sp 0 +
STACK CFI INIT 23256 2 .cfa: sp 0 +
STACK CFI INIT 23258 2 .cfa: sp 0 +
STACK CFI INIT 2325a 2 .cfa: sp 0 +
STACK CFI INIT 2325c 4 .cfa: sp 0 +
STACK CFI INIT 23260 202 .cfa: sp 0 +
STACK CFI 23262 .cfa: sp 20 + .ra: .cfa -4 + ^ r7: .cfa -8 + ^ r6: .cfa -12 + ^ r5: .cfa -16 + ^ r4: .cfa -20 + ^
STACK CFI 23264 .cfa: r7 8 +
STACK CFI 23268 r11: .cfa -24 + ^ r10: .cfa -28 + ^ r9: .cfa -32 + ^ r8: .cfa -36 + ^
STACK CFI INIT 23462 5c .cfa: sp 0 +
STACK CFI 23464 .cfa: sp 20 + .ra: .cfa -4 + ^ r7: .cfa -8 + ^ r6: .cfa -12 + ^ r5: .cfa -16 + ^ r4: .cfa -20 + ^
STACK CFI 23466 .cfa: r7 8 +
STACK CFI 2346a r8: .cfa -24 + ^
STACK CFI INIT 234c0 10 .cfa: sp 0 +
STACK CFI 234c2 .cfa: sp 8 + .ra: .cfa -4 + ^ r7: .cfa -8 + ^
STACK CFI 234c4 .cfa: r7 8 +
STACK CFI INIT 234d0 d0 .cfa: sp 0 +
STACK CFI 234d2 .cfa: sp 20 + .ra: .cfa -4 + ^ r7: .cfa -8 + ^ r6: .cfa -12 + ^ r5: .cfa -16 + ^ r4: .cfa -20 + ^
STACK CFI 234d4 .cfa: r7 8 +
STACK CFI 234d8 r11: .cfa -24 + ^
STACK CFI INIT 235a0 56 .cfa: sp 0 +
STACK CFI 235a2 .cfa: sp 20 + .ra: .cfa -4 + ^ r7: .cfa -8 + ^ r6: .cfa -12 + ^ r5: .cfa -16 + ^ r4: .cfa -20 + ^
STACK CFI 235a4 .cfa: r7 8 +
STACK CFI 235a8 r11: .cfa -24 + ^
STACK CFI INIT 235f8 d0 .cfa: sp 0 +
STACK CFI 235fa .cfa: sp 20 + .ra: .cfa -4 + ^ r7: .cfa -8 + ^ r6: .cfa -12 + ^ r5: .cfa -16 + ^ r4: .cfa -20 + ^
STACK CFI 235fc .cfa: r7 8 +
STACK CFI 23600 r8: .cfa -24 + ^
STACK CFI INIT 236c8 cc .cfa: sp 0 +
STACK CFI 236ca .cfa: sp 20 + .ra: .cfa -4 + ^ r7: .cfa -8 + ^ r6: .cfa -12 + ^ r5: .cfa -16 + ^ r4: .cfa -20 + ^
STACK CFI 236cc .cfa: r7 8 +
STACK CFI 236d0 r11: .cfa -24 + ^
STACK CFI INIT 23794 6e .cfa: sp 0 +
STACK CFI 23796 .cfa: sp 20 + .ra: .cfa -4 + ^ r7: .cfa -8 + ^ r6: .cfa -12 + ^ r5: .cfa -16 + ^ r4: .cfa -20 + ^
STACK CFI 23798 .cfa: r7 8 +
STACK CFI 2379c r8: .cfa -24 + ^
STACK CFI INIT 23802 4 .cfa: sp 0 +
STACK CFI INIT 23808 20 .cfa: sp 0 +
STACK CFI 2380a .cfa: sp 16 + .ra: .cfa -4 + ^ r7: .cfa -8 + ^ r6: .cfa -12 + ^ r4: .cfa -16 + ^
STACK CFI 2380c .cfa: r7 8 +
STACK CFI INIT 23828 14 .cfa: sp 0 +
STACK CFI INIT 2383c 2 .cfa: sp 0 +
STACK CFI INIT 2383e 4 .cfa: sp 0 +
STACK CFI INIT 23842 22 .cfa: sp 0 +
STACK CFI 23844 .cfa: sp 16 + .ra: .cfa -4 + ^ r7: .cfa -8 + ^ r6: .cfa -12 + ^ r4: .cfa -16 + ^
STACK CFI 23846 .cfa: r7 8 +
STACK CFI INIT 23864 18 .cfa: sp 0 +
STACK CFI INIT 2387c c .cfa: sp 0 +
STACK CFI INIT 23888 4e0 .cfa: sp 0 +
STACK CFI 2388a .cfa: sp 20 + .ra: .cfa -4 + ^ r7: .cfa -8 + ^ r6: .cfa -12 + ^ r5: .cfa -16 + ^ r4: .cfa -20 + ^
STACK CFI 2388c .cfa: r7 8 +
STACK CFI 23890 r11: .cfa -24 + ^ r10: .cfa -28 + ^ r9: .cfa -32 + ^ r8: .cfa -36 + ^
STACK CFI INIT 23d68 d0 .cfa: sp 0 +
STACK CFI 23d6a .cfa: sp 20 + .ra: .cfa -4 + ^ r7: .cfa -8 + ^ r6: .cfa -12 + ^ r5: .cfa -16 + ^ r4: .cfa -20 + ^
STACK CFI 23d6c .cfa: r7 8 +
STACK CFI 23d70 r11: .cfa -24 + ^
STACK CFI INIT 23e38 40 .cfa: sp 0 +
STACK CFI 23e3a .cfa: sp 16 + .ra: .cfa -4 + ^ r7: .cfa -8 + ^ r6: .cfa -12 + ^ r4: .cfa -16 + ^
STACK CFI 23e3c .cfa: r7 8 +
STACK CFI INIT 23e78 44 .cfa: sp 0 +
STACK CFI 23e7a .cfa: sp 16 + .ra: .cfa -4 + ^ r7: .cfa -8 + ^ r6: .cfa -12 + ^ r4: .cfa -16 + ^
STACK CFI 23e7c .cfa: r7 8 +
STACK CFI INIT 23ebc 9c .cfa: sp 0 +
STACK CFI 23ebe .cfa: sp 20 + .ra: .cfa -4 + ^ r7: .cfa -8 + ^ r6: .cfa -12 + ^ r5: .cfa -16 + ^ r4: .cfa -20 + ^
STACK CFI 23ec0 .cfa: r7 8 +
STACK CFI 23ec4 r11: .cfa -24 + ^
STACK CFI INIT 23f58 8c .cfa: sp 0 +
STACK CFI 23f5a .cfa: sp 20 + .ra: .cfa -4 + ^ r7: .cfa -8 + ^ r6: .cfa -12 + ^ r5: .cfa -16 + ^ r4: .cfa -20 + ^
STACK CFI 23f5c .cfa: r7 8 +
STACK CFI 23f60 r11: .cfa -24 + ^
STACK CFI INIT 23fe4 32 .cfa: sp 0 +
STACK CFI 23fe6 .cfa: sp 16 + .ra: .cfa -4 + ^ r7: .cfa -8 + ^ r6: .cfa -12 + ^ r4: .cfa -16 + ^
STACK CFI 23fe8 .cfa: r7 8 +
STACK CFI INIT 24016 36 .cfa: sp 0 +
STACK CFI 24018 .cfa: sp 16 + .ra: .cfa -4 + ^ r7: .cfa -8 + ^ r6: .cfa -12 + ^ r4: .cfa -16 + ^
STACK CFI 2401a .cfa: r7 8 +
STACK CFI INIT 2404c 34 .cfa: sp 0 +
STACK CFI 2404e .cfa: sp 16 + .ra: .cfa -4 + ^ r7: .cfa -8 + ^ r6: .cfa -12 + ^ r4: .cfa -16 + ^
STACK CFI 24050 .cfa: r7 8 +
STACK CFI INIT 24080 18 .cfa: sp 0 +
STACK CFI INIT 24098 c .cfa: sp 0 +
STACK CFI INIT 240a4 40 .cfa: sp 0 +
STACK CFI 240a6 .cfa: sp 16 + .ra: .cfa -4 + ^ r7: .cfa -8 + ^ r6: .cfa -12 + ^ r4: .cfa -16 + ^
STACK CFI 240a8 .cfa: r7 8 +
STACK CFI INIT 240e4 44 .cfa: sp 0 +
STACK CFI 240e6 .cfa: sp 16 + .ra: .cfa -4 + ^ r7: .cfa -8 + ^ r6: .cfa -12 + ^ r4: .cfa -16 + ^
STACK CFI 240e8 .cfa: r7 8 +
STACK CFI INIT 24128 9c .cfa: sp 0 +
STACK CFI 2412a .cfa: sp 20 + .ra: .cfa -4 + ^ r7: .cfa -8 + ^ r6: .cfa -12 + ^ r5: .cfa -16 + ^ r4: .cfa -20 + ^
STACK CFI 2412c .cfa: r7 8 +
STACK CFI 24130 r11: .cfa -24 + ^
STACK CFI INIT 241c4 8c .cfa: sp 0 +
STACK CFI 241c6 .cfa: sp 20 + .ra: .cfa -4 + ^ r7: .cfa -8 + ^ r6: .cfa -12 + ^ r5: .cfa -16 + ^ r4: .cfa -20 + ^
STACK CFI 241c8 .cfa: r7 8 +
STACK CFI 241cc r11: .cfa -24 + ^
STACK CFI INIT 24250 32 .cfa: sp 0 +
STACK CFI 24252 .cfa: sp 16 + .ra: .cfa -4 + ^ r7: .cfa -8 + ^ r6: .cfa -12 + ^ r4: .cfa -16 + ^
STACK CFI 24254 .cfa: r7 8 +
STACK CFI INIT 24282 36 .cfa: sp 0 +
STACK CFI 24284 .cfa: sp 16 + .ra: .cfa -4 + ^ r7: .cfa -8 + ^ r6: .cfa -12 + ^ r4: .cfa -16 + ^
STACK CFI 24286 .cfa: r7 8 +
STACK CFI INIT 242b8 34 .cfa: sp 0 +
STACK CFI 242ba .cfa: sp 16 + .ra: .cfa -4 + ^ r7: .cfa -8 + ^ r6: .cfa -12 + ^ r4: .cfa -16 + ^
STACK CFI 242bc .cfa: r7 8 +
STACK CFI INIT 242ec 18 .cfa: sp 0 +
STACK CFI INIT 24304 c .cfa: sp 0 +
STACK CFI INIT 24310 764 .cfa: sp 0 +
STACK CFI 24312 .cfa: sp 20 + .ra: .cfa -4 + ^ r7: .cfa -8 + ^ r6: .cfa -12 + ^ r5: .cfa -16 + ^ r4: .cfa -20 + ^
STACK CFI 24314 .cfa: r7 8 +
STACK CFI 24318 r11: .cfa -24 + ^ r10: .cfa -28 + ^ r9: .cfa -32 + ^ r8: .cfa -36 + ^
STACK CFI INIT 24a74 174 .cfa: sp 0 +
STACK CFI 24a76 .cfa: sp 16 + .ra: .cfa -4 + ^ r7: .cfa -8 + ^ r5: .cfa -12 + ^ r4: .cfa -16 + ^
STACK CFI 24a78 .cfa: r7 8 +
STACK CFI INIT 0 70 .cfa: sp 0 +
STACK CFI 2 .cfa: sp 16 + .ra: .cfa -4 + ^ r7: .cfa -8 + ^ r6: .cfa -12 + ^ r4: .cfa -16 + ^
STACK CFI 4 .cfa: r7 8 +
STACK CFI INIT 24be8 10 .cfa: sp 0 +
STACK CFI 24bea .cfa: sp 8 + .ra: .cfa -4 + ^ r7: .cfa -8 + ^
STACK CFI 24bec .cfa: r7 8 +
STACK CFI INIT 24bf8 8 .cfa: sp 0 +
STACK CFI INIT 24c00 14 .cfa: sp 0 +
STACK CFI 24c02 .cfa: sp 8 + .ra: .cfa -4 + ^ r7: .cfa -8 + ^
STACK CFI 24c04 .cfa: r7 8 +
STACK CFI INIT 24c14 4 .cfa: sp 0 +
STACK CFI INIT 24c18 20 .cfa: sp 0 +
STACK CFI 24c1a .cfa: sp 16 + .ra: .cfa -4 + ^ r7: .cfa -8 + ^ r6: .cfa -12 + ^ r4: .cfa -16 + ^
STACK CFI 24c1c .cfa: r7 8 +
STACK CFI INIT 24c38 14 .cfa: sp 0 +
STACK CFI INIT 24c4c 2 .cfa: sp 0 +
STACK CFI INIT 24c4e 4 .cfa: sp 0 +
STACK CFI INIT 24c54 98 .cfa: sp 0 +
STACK CFI 24c56 .cfa: sp 20 + .ra: .cfa -4 + ^ r7: .cfa -8 + ^ r6: .cfa -12 + ^ r5: .cfa -16 + ^ r4: .cfa -20 + ^
STACK CFI 24c58 .cfa: r7 8 +
STACK CFI 24c5c r11: .cfa -24 + ^
STACK CFI INIT 24cec 18 .cfa: sp 0 +
STACK CFI INIT 24d04 c .cfa: sp 0 +
STACK CFI INIT 24d10 4 .cfa: sp 0 +
STACK CFI INIT 24d14 18 .cfa: sp 0 +
STACK CFI 24d16 .cfa: sp 8 + .ra: .cfa -4 + ^ r7: .cfa -8 + ^
STACK CFI 24d18 .cfa: r7 8 +
STACK CFI INIT 24d2c 10 .cfa: sp 0 +
STACK CFI INIT 24d3c 2 .cfa: sp 0 +
STACK CFI INIT 24d3e 4 .cfa: sp 0 +
STACK CFI INIT 24d42 28 .cfa: sp 0 +
STACK CFI 24d44 .cfa: sp 8 + .ra: .cfa -4 + ^ r7: .cfa -8 + ^
STACK CFI 24d46 .cfa: r7 8 +
STACK CFI INIT 24d6c 18 .cfa: sp 0 +
STACK CFI INIT 24d84 c .cfa: sp 0 +
STACK CFI INIT 24d90 4 .cfa: sp 0 +
STACK CFI INIT 24d94 18 .cfa: sp 0 +
STACK CFI 24d96 .cfa: sp 8 + .ra: .cfa -4 + ^ r7: .cfa -8 + ^
STACK CFI 24d98 .cfa: r7 8 +
STACK CFI INIT 24dac 10 .cfa: sp 0 +
STACK CFI INIT 24dbc 2 .cfa: sp 0 +
STACK CFI INIT 24dbe 4 .cfa: sp 0 +
STACK CFI INIT 24dc2 28 .cfa: sp 0 +
STACK CFI 24dc4 .cfa: sp 8 + .ra: .cfa -4 + ^ r7: .cfa -8 + ^
STACK CFI 24dc6 .cfa: r7 8 +
STACK CFI INIT 24dec 18 .cfa: sp 0 +
STACK CFI INIT 24e04 c .cfa: sp 0 +
STACK CFI INIT 24e10 4 .cfa: sp 0 +
STACK CFI INIT 24e14 18 .cfa: sp 0 +
STACK CFI 24e16 .cfa: sp 8 + .ra: .cfa -4 + ^ r7: .cfa -8 + ^
STACK CFI 24e18 .cfa: r7 8 +
STACK CFI INIT 24e2c 10 .cfa: sp 0 +
STACK CFI INIT 24e3c 2 .cfa: sp 0 +
STACK CFI INIT 24e3e 4 .cfa: sp 0 +
STACK CFI INIT 24e42 28 .cfa: sp 0 +
STACK CFI 24e44 .cfa: sp 8 + .ra: .cfa -4 + ^ r7: .cfa -8 + ^
STACK CFI 24e46 .cfa: r7 8 +
STACK CFI INIT 24e6c 18 .cfa: sp 0 +
STACK CFI INIT 24e84 c .cfa: sp 0 +
STACK CFI INIT 24e90 1dd4 .cfa: sp 0 +
STACK CFI 24e92 .cfa: sp 20 + .ra: .cfa -4 + ^ r7: .cfa -8 + ^ r6: .cfa -12 + ^ r5: .cfa -16 + ^ r4: .cfa -20 + ^
STACK CFI 24e94 .cfa: r7 8 +
STACK CFI 24e98 r11: .cfa -24 + ^ r10: .cfa -28 + ^ r9: .cfa -32 + ^ r8: .cfa -36 + ^
STACK CFI INIT 26c64 120 .cfa: sp 0 +
STACK CFI 26c66 .cfa: sp 20 + .ra: .cfa -4 + ^ r7: .cfa -8 + ^ r6: .cfa -12 + ^ r5: .cfa -16 + ^ r4: .cfa -20 + ^
STACK CFI 26c68 .cfa: r7 8 +
STACK CFI 26c6c r11: .cfa -24 + ^ r10: .cfa -28 + ^ r9: .cfa -32 + ^ r8: .cfa -36 + ^
STACK CFI INIT 26d84 d4 .cfa: sp 0 +
STACK CFI 26d86 .cfa: sp 16 + .ra: .cfa -4 + ^ r7: .cfa -8 + ^ r5: .cfa -12 + ^ r4: .cfa -16 + ^
STACK CFI 26d88 .cfa: r7 8 +
STACK CFI INIT 26e58 40 .cfa: sp 0 +
STACK CFI 26e5a .cfa: sp 16 + .ra: .cfa -4 + ^ r7: .cfa -8 + ^ r6: .cfa -12 + ^ r4: .cfa -16 + ^
STACK CFI 26e5c .cfa: r7 8 +
STACK CFI INIT 26e98 8b4 .cfa: sp 0 +
STACK CFI 26e9a .cfa: sp 20 + .ra: .cfa -4 + ^ r7: .cfa -8 + ^ r6: .cfa -12 + ^ r5: .cfa -16 + ^ r4: .cfa -20 + ^
STACK CFI 26e9c .cfa: r7 8 +
STACK CFI 26ea0 r11: .cfa -24 + ^ r10: .cfa -28 + ^ r9: .cfa -32 + ^ r8: .cfa -36 + ^
STACK CFI INIT 2774c 20 .cfa: sp 0 +
STACK CFI 2774e .cfa: sp 16 + .ra: .cfa -4 + ^ r7: .cfa -8 + ^ r6: .cfa -12 + ^ r4: .cfa -16 + ^
STACK CFI 27750 .cfa: r7 8 +
STACK CFI INIT 2776c 60 .cfa: sp 0 +
STACK CFI 2776e .cfa: sp 16 + .ra: .cfa -4 + ^ r7: .cfa -8 + ^ r6: .cfa -12 + ^ r4: .cfa -16 + ^
STACK CFI 27770 .cfa: r7 8 +
STACK CFI INIT 277cc fc .cfa: sp 0 +
STACK CFI 277ce .cfa: sp 20 + .ra: .cfa -4 + ^ r7: .cfa -8 + ^ r6: .cfa -12 + ^ r5: .cfa -16 + ^ r4: .cfa -20 + ^
STACK CFI 277d0 .cfa: r7 8 +
STACK CFI 277d4 r11: .cfa -24 + ^
STACK CFI INIT 0 d8 .cfa: sp 0 +
STACK CFI 2 .cfa: sp 20 + .ra: .cfa -4 + ^ r7: .cfa -8 + ^ r6: .cfa -12 + ^ r5: .cfa -16 + ^ r4: .cfa -20 + ^
STACK CFI 4 .cfa: r7 8 +
STACK CFI 8 r11: .cfa -24 + ^ r9: .cfa -28 + ^ r8: .cfa -32 + ^
STACK CFI INIT 278c8 60 .cfa: sp 0 +
STACK CFI 278ca .cfa: sp 16 + .ra: .cfa -4 + ^ r7: .cfa -8 + ^ r6: .cfa -12 + ^ r4: .cfa -16 + ^
STACK CFI 278cc .cfa: r7 8 +
STACK CFI INIT 27928 60 .cfa: sp 0 +
STACK CFI 2792a .cfa: sp 16 + .ra: .cfa -4 + ^ r7: .cfa -8 + ^ r6: .cfa -12 + ^ r4: .cfa -16 + ^
STACK CFI 2792c .cfa: r7 8 +
STACK CFI INIT 27988 60 .cfa: sp 0 +
STACK CFI 2798a .cfa: sp 16 + .ra: .cfa -4 + ^ r7: .cfa -8 + ^ r6: .cfa -12 + ^ r4: .cfa -16 + ^
STACK CFI 2798c .cfa: r7 8 +
STACK CFI INIT 279e8 2a .cfa: sp 0 +
STACK CFI 279ea .cfa: sp 16 + .ra: .cfa -4 + ^ r7: .cfa -8 + ^ r5: .cfa -12 + ^ r4: .cfa -16 + ^
STACK CFI 279ec .cfa: r7 8 +
STACK CFI INIT 27a14 244 .cfa: sp 0 +
STACK CFI 27a16 .cfa: sp 20 + .ra: .cfa -4 + ^ r7: .cfa -8 + ^ r6: .cfa -12 + ^ r5: .cfa -16 + ^ r4: .cfa -20 + ^
STACK CFI 27a18 .cfa: r7 8 +
STACK CFI 27a1c r8: .cfa -24 + ^
STACK CFI INIT 27c58 cc .cfa: sp 0 +
STACK CFI 27c5a .cfa: sp 20 + .ra: .cfa -4 + ^ r7: .cfa -8 + ^ r6: .cfa -12 + ^ r5: .cfa -16 + ^ r4: .cfa -20 + ^
STACK CFI 27c5c .cfa: r7 8 +
STACK CFI 27c60 r11: .cfa -24 + ^ r9: .cfa -28 + ^ r8: .cfa -32 + ^
STACK CFI INIT 27d24 44 .cfa: sp 0 +
STACK CFI 27d26 .cfa: sp 16 + .ra: .cfa -4 + ^ r7: .cfa -8 + ^ r6: .cfa -12 + ^ r4: .cfa -16 + ^
STACK CFI 27d28 .cfa: r7 8 +
STACK CFI INIT 27d68 44 .cfa: sp 0 +
STACK CFI 27d6a .cfa: sp 16 + .ra: .cfa -4 + ^ r7: .cfa -8 + ^ r6: .cfa -12 + ^ r4: .cfa -16 + ^
STACK CFI 27d6c .cfa: r7 8 +
STACK CFI INIT 27dac 44 .cfa: sp 0 +
STACK CFI 27dae .cfa: sp 16 + .ra: .cfa -4 + ^ r7: .cfa -8 + ^ r6: .cfa -12 + ^ r4: .cfa -16 + ^
STACK CFI 27db0 .cfa: r7 8 +
STACK CFI INIT 27df0 44 .cfa: sp 0 +
STACK CFI 27df2 .cfa: sp 16 + .ra: .cfa -4 + ^ r7: .cfa -8 + ^ r6: .cfa -12 + ^ r4: .cfa -16 + ^
STACK CFI 27df4 .cfa: r7 8 +
STACK CFI INIT 27e34 44 .cfa: sp 0 +
STACK CFI 27e36 .cfa: sp 16 + .ra: .cfa -4 + ^ r7: .cfa -8 + ^ r6: .cfa -12 + ^ r4: .cfa -16 + ^
STACK CFI 27e38 .cfa: r7 8 +
STACK CFI INIT 27e78 bc .cfa: sp 0 +
STACK CFI 27e7a .cfa: sp 20 + .ra: .cfa -4 + ^ r7: .cfa -8 + ^ r6: .cfa -12 + ^ r5: .cfa -16 + ^ r4: .cfa -20 + ^
STACK CFI 27e7c .cfa: r7 8 +
STACK CFI 27e80 r11: .cfa -24 + ^
STACK CFI INIT 27f34 5e .cfa: sp 0 +
STACK CFI 27f36 .cfa: sp 20 + .ra: .cfa -4 + ^ r7: .cfa -8 + ^ r6: .cfa -12 + ^ r5: .cfa -16 + ^ r4: .cfa -20 + ^
STACK CFI 27f38 .cfa: r7 8 +
STACK CFI 27f3c r11: .cfa -24 + ^
STACK CFI INIT 27f94 30c .cfa: sp 0 +
STACK CFI 27f96 .cfa: sp 20 + .ra: .cfa -4 + ^ r7: .cfa -8 + ^ r6: .cfa -12 + ^ r5: .cfa -16 + ^ r4: .cfa -20 + ^
STACK CFI 27f98 .cfa: r7 8 +
STACK CFI 27f9c r8: .cfa -24 + ^
STACK CFI INIT 282a0 72 .cfa: sp 0 +
STACK CFI 282a2 .cfa: sp 20 + .ra: .cfa -4 + ^ r7: .cfa -8 + ^ r6: .cfa -12 + ^ r5: .cfa -16 + ^ r4: .cfa -20 + ^
STACK CFI 282a4 .cfa: r7 8 +
STACK CFI 282a8 r11: .cfa -24 + ^
STACK CFI INIT 28314 10 .cfa: sp 0 +
STACK CFI 28316 .cfa: sp 8 + .ra: .cfa -4 + ^ r7: .cfa -8 + ^
STACK CFI 28318 .cfa: r7 8 +
STACK CFI INIT 28324 82 .cfa: sp 0 +
STACK CFI 28326 .cfa: sp 20 + .ra: .cfa -4 + ^ r7: .cfa -8 + ^ r6: .cfa -12 + ^ r5: .cfa -16 + ^ r4: .cfa -20 + ^
STACK CFI 28328 .cfa: r7 8 +
STACK CFI 2832c r8: .cfa -24 + ^
STACK CFI INIT 283a6 2 .cfa: sp 0 +
STACK CFI INIT 283a8 e .cfa: sp 0 +
STACK CFI INIT 283b8 a8 .cfa: sp 0 +
STACK CFI 283ba .cfa: sp 20 + .ra: .cfa -4 + ^ r7: .cfa -8 + ^ r6: .cfa -12 + ^ r5: .cfa -16 + ^ r4: .cfa -20 + ^
STACK CFI 283bc .cfa: r7 8 +
STACK CFI 283c0 r10: .cfa -24 + ^ r9: .cfa -28 + ^ r8: .cfa -32 + ^
STACK CFI INIT 28460 42 .cfa: sp 0 +
STACK CFI 2846a .cfa: sp 20 + .ra: .cfa -4 + ^ r7: .cfa -8 + ^ r6: .cfa -12 + ^ r5: .cfa -16 + ^ r4: .cfa -20 + ^
STACK CFI 2846c .cfa: r7 8 +
STACK CFI 28470 r11: .cfa -24 + ^
STACK CFI INIT 284a4 10 .cfa: sp 0 +
STACK CFI 284a6 .cfa: sp 8 + .ra: .cfa -4 + ^ r7: .cfa -8 + ^
STACK CFI 284a8 .cfa: r7 8 +
STACK CFI INIT 284b4 2 .cfa: sp 0 +
STACK CFI INIT 284b6 e .cfa: sp 0 +
STACK CFI INIT 284c4 e .cfa: sp 0 +
STACK CFI INIT 284d2 e .cfa: sp 0 +
STACK CFI INIT 284e0 2 .cfa: sp 0 +
STACK CFI INIT 284e2 e .cfa: sp 0 +
STACK CFI INIT 284f0 10 .cfa: sp 0 +
STACK CFI 284f2 .cfa: sp 8 + .ra: .cfa -4 + ^ r7: .cfa -8 + ^
STACK CFI 284f4 .cfa: r7 8 +
STACK CFI INIT 28500 7c .cfa: sp 0 +
STACK CFI 28502 .cfa: sp 16 + .ra: .cfa -4 + ^ r7: .cfa -8 + ^ r6: .cfa -12 + ^ r4: .cfa -16 + ^
STACK CFI 28504 .cfa: r7 8 +
STACK CFI INIT 2857c 3a .cfa: sp 0 +
STACK CFI 2857e .cfa: sp 16 + .ra: .cfa -4 + ^ r7: .cfa -8 + ^ r5: .cfa -12 + ^ r4: .cfa -16 + ^
STACK CFI 28580 .cfa: r7 8 +
STACK CFI INIT 285b8 54 .cfa: sp 0 +
STACK CFI 285ba .cfa: sp 16 + .ra: .cfa -4 + ^ r7: .cfa -8 + ^ r6: .cfa -12 + ^ r4: .cfa -16 + ^
STACK CFI 285bc .cfa: r7 8 +
STACK CFI INIT 2860c 5c .cfa: sp 0 +
STACK CFI 2860e .cfa: sp 16 + .ra: .cfa -4 + ^ r7: .cfa -8 + ^ r6: .cfa -12 + ^ r4: .cfa -16 + ^
STACK CFI 28610 .cfa: r7 8 +
STACK CFI INIT 28668 38 .cfa: sp 0 +
STACK CFI 2866a .cfa: sp 16 + .ra: .cfa -4 + ^ r7: .cfa -8 + ^ r5: .cfa -12 + ^ r4: .cfa -16 + ^
STACK CFI 2866c .cfa: r7 8 +
STACK CFI INIT 286a0 20 .cfa: sp 0 +
STACK CFI INIT 286c0 48 .cfa: sp 0 +
STACK CFI 286c2 .cfa: sp 16 + .ra: .cfa -4 + ^ r7: .cfa -8 + ^ r6: .cfa -12 + ^ r4: .cfa -16 + ^
STACK CFI 286c4 .cfa: r7 8 +
STACK CFI INIT 28708 4c .cfa: sp 0 +
STACK CFI 2870a .cfa: sp 16 + .ra: .cfa -4 + ^ r7: .cfa -8 + ^ r6: .cfa -12 + ^ r4: .cfa -16 + ^
STACK CFI 2870c .cfa: r7 8 +
STACK CFI INIT 28754 a8 .cfa: sp 0 +
STACK CFI 28756 .cfa: sp 16 + .ra: .cfa -4 + ^ r7: .cfa -8 + ^ r5: .cfa -12 + ^ r4: .cfa -16 + ^
STACK CFI 28758 .cfa: r7 8 +
STACK CFI INIT 287fc 18 .cfa: sp 0 +
STACK CFI INIT 28814 c .cfa: sp 0 +
STACK CFI INIT 28820 54 .cfa: sp 0 +
STACK CFI 28822 .cfa: sp 16 + .ra: .cfa -4 + ^ r7: .cfa -8 + ^ r6: .cfa -12 + ^ r4: .cfa -16 + ^
STACK CFI 28824 .cfa: r7 8 +
STACK CFI INIT 28874 58 .cfa: sp 0 +
STACK CFI 28876 .cfa: sp 16 + .ra: .cfa -4 + ^ r7: .cfa -8 + ^ r6: .cfa -12 + ^ r4: .cfa -16 + ^
STACK CFI 28878 .cfa: r7 8 +
STACK CFI INIT 288cc 38 .cfa: sp 0 +
STACK CFI 288ce .cfa: sp 16 + .ra: .cfa -4 + ^ r7: .cfa -8 + ^ r5: .cfa -12 + ^ r4: .cfa -16 + ^
STACK CFI 288d0 .cfa: r7 8 +
STACK CFI INIT 28904 1c .cfa: sp 0 +
STACK CFI INIT 28920 46 .cfa: sp 0 +
STACK CFI 28922 .cfa: sp 16 + .ra: .cfa -4 + ^ r7: .cfa -8 + ^ r6: .cfa -12 + ^ r4: .cfa -16 + ^
STACK CFI 28924 .cfa: r7 8 +
STACK CFI INIT 28966 4a .cfa: sp 0 +
STACK CFI 28968 .cfa: sp 16 + .ra: .cfa -4 + ^ r7: .cfa -8 + ^ r6: .cfa -12 + ^ r4: .cfa -16 + ^
STACK CFI 2896a .cfa: r7 8 +
STACK CFI INIT 289b0 58 .cfa: sp 0 +
STACK CFI 289b2 .cfa: sp 16 + .ra: .cfa -4 + ^ r7: .cfa -8 + ^ r6: .cfa -12 + ^ r4: .cfa -16 + ^
STACK CFI 289b4 .cfa: r7 8 +
STACK CFI INIT 28a08 18 .cfa: sp 0 +
STACK CFI INIT 28a20 c .cfa: sp 0 +
STACK CFI INIT 28a2c 54 .cfa: sp 0 +
STACK CFI 28a2e .cfa: sp 16 + .ra: .cfa -4 + ^ r7: .cfa -8 + ^ r6: .cfa -12 + ^ r4: .cfa -16 + ^
STACK CFI 28a30 .cfa: r7 8 +
STACK CFI INIT 28a80 58 .cfa: sp 0 +
STACK CFI 28a82 .cfa: sp 16 + .ra: .cfa -4 + ^ r7: .cfa -8 + ^ r6: .cfa -12 + ^ r4: .cfa -16 + ^
STACK CFI 28a84 .cfa: r7 8 +
STACK CFI INIT 28ad8 3c .cfa: sp 0 +
STACK CFI 28ada .cfa: sp 16 + .ra: .cfa -4 + ^ r7: .cfa -8 + ^ r5: .cfa -12 + ^ r4: .cfa -16 + ^
STACK CFI 28adc .cfa: r7 8 +
STACK CFI INIT 28b14 28 .cfa: sp 0 +
STACK CFI 28b16 .cfa: sp 16 + .ra: .cfa -4 + ^ r7: .cfa -8 + ^ r5: .cfa -12 + ^ r4: .cfa -16 + ^
STACK CFI 28b18 .cfa: r7 8 +
STACK CFI INIT 28b3c 46 .cfa: sp 0 +
STACK CFI 28b3e .cfa: sp 16 + .ra: .cfa -4 + ^ r7: .cfa -8 + ^ r6: .cfa -12 + ^ r4: .cfa -16 + ^
STACK CFI 28b40 .cfa: r7 8 +
STACK CFI INIT 28b82 4a .cfa: sp 0 +
STACK CFI 28b84 .cfa: sp 16 + .ra: .cfa -4 + ^ r7: .cfa -8 + ^ r6: .cfa -12 + ^ r4: .cfa -16 + ^
STACK CFI 28b86 .cfa: r7 8 +
STACK CFI INIT 28bcc 124 .cfa: sp 0 +
STACK CFI 28bce .cfa: sp 16 + .ra: .cfa -4 + ^ r7: .cfa -8 + ^ r5: .cfa -12 + ^ r4: .cfa -16 + ^
STACK CFI 28bd0 .cfa: r7 8 +
STACK CFI INIT 28cf0 18 .cfa: sp 0 +
STACK CFI INIT 28d08 c .cfa: sp 0 +
STACK CFI INIT 28d14 54 .cfa: sp 0 +
STACK CFI 28d16 .cfa: sp 16 + .ra: .cfa -4 + ^ r7: .cfa -8 + ^ r6: .cfa -12 + ^ r4: .cfa -16 + ^
STACK CFI 28d18 .cfa: r7 8 +
STACK CFI INIT 28d68 5c .cfa: sp 0 +
STACK CFI 28d6a .cfa: sp 16 + .ra: .cfa -4 + ^ r7: .cfa -8 + ^ r6: .cfa -12 + ^ r4: .cfa -16 + ^
STACK CFI 28d6c .cfa: r7 8 +
STACK CFI INIT 28dc4 3c .cfa: sp 0 +
STACK CFI 28dc6 .cfa: sp 16 + .ra: .cfa -4 + ^ r7: .cfa -8 + ^ r5: .cfa -12 + ^ r4: .cfa -16 + ^
STACK CFI 28dc8 .cfa: r7 8 +
STACK CFI INIT 28e00 2c .cfa: sp 0 +
STACK CFI 28e02 .cfa: sp 16 + .ra: .cfa -4 + ^ r7: .cfa -8 + ^ r5: .cfa -12 + ^ r4: .cfa -16 + ^
STACK CFI 28e04 .cfa: r7 8 +
STACK CFI INIT 28e2c 48 .cfa: sp 0 +
STACK CFI 28e2e .cfa: sp 16 + .ra: .cfa -4 + ^ r7: .cfa -8 + ^ r6: .cfa -12 + ^ r4: .cfa -16 + ^
STACK CFI 28e30 .cfa: r7 8 +
STACK CFI INIT 28e74 4c .cfa: sp 0 +
STACK CFI 28e76 .cfa: sp 16 + .ra: .cfa -4 + ^ r7: .cfa -8 + ^ r6: .cfa -12 + ^ r4: .cfa -16 + ^
STACK CFI 28e78 .cfa: r7 8 +
STACK CFI INIT 28ec0 ac .cfa: sp 0 +
STACK CFI 28ec2 .cfa: sp 16 + .ra: .cfa -4 + ^ r7: .cfa -8 + ^ r5: .cfa -12 + ^ r4: .cfa -16 + ^
STACK CFI 28ec4 .cfa: r7 8 +
STACK CFI INIT 28f6c 18 .cfa: sp 0 +
STACK CFI INIT 28f84 c .cfa: sp 0 +
STACK CFI INIT 28f90 6c .cfa: sp 0 +
STACK CFI 28f92 .cfa: sp 20 + .ra: .cfa -4 + ^ r7: .cfa -8 + ^ r6: .cfa -12 + ^ r5: .cfa -16 + ^ r4: .cfa -20 + ^
STACK CFI 28f94 .cfa: r7 8 +
STACK CFI 28f98 r11: .cfa -24 + ^
STACK CFI INIT 28ffc 74 .cfa: sp 0 +
STACK CFI 28ffe .cfa: sp 20 + .ra: .cfa -4 + ^ r7: .cfa -8 + ^ r6: .cfa -12 + ^ r5: .cfa -16 + ^ r4: .cfa -20 + ^
STACK CFI 29000 .cfa: r7 8 +
STACK CFI 29004 r11: .cfa -24 + ^
STACK CFI INIT 29070 34 .cfa: sp 0 +
STACK CFI 29072 .cfa: sp 16 + .ra: .cfa -4 + ^ r7: .cfa -8 + ^ r5: .cfa -12 + ^ r4: .cfa -16 + ^
STACK CFI 29074 .cfa: r7 8 +
STACK CFI INIT 290a4 18 .cfa: sp 0 +
STACK CFI INIT 290bc 64 .cfa: sp 0 +
STACK CFI 290be .cfa: sp 20 + .ra: .cfa -4 + ^ r7: .cfa -8 + ^ r6: .cfa -12 + ^ r5: .cfa -16 + ^ r4: .cfa -20 + ^
STACK CFI 290c0 .cfa: r7 8 +
STACK CFI 290c4 r11: .cfa -24 + ^
STACK CFI INIT 29120 64 .cfa: sp 0 +
STACK CFI 29122 .cfa: sp 20 + .ra: .cfa -4 + ^ r7: .cfa -8 + ^ r6: .cfa -12 + ^ r5: .cfa -16 + ^ r4: .cfa -20 + ^
STACK CFI 29124 .cfa: r7 8 +
STACK CFI 29128 r11: .cfa -24 + ^
STACK CFI INIT 29184 c0 .cfa: sp 0 +
STACK CFI 29186 .cfa: sp 16 + .ra: .cfa -4 + ^ r7: .cfa -8 + ^ r5: .cfa -12 + ^ r4: .cfa -16 + ^
STACK CFI 29188 .cfa: r7 8 +
STACK CFI INIT 29244 18 .cfa: sp 0 +
STACK CFI INIT 2925c c .cfa: sp 0 +
STACK CFI INIT 29268 8c0 .cfa: sp 0 +
STACK CFI 2926a .cfa: sp 20 + .ra: .cfa -4 + ^ r7: .cfa -8 + ^ r6: .cfa -12 + ^ r5: .cfa -16 + ^ r4: .cfa -20 + ^
STACK CFI 2926c .cfa: r7 8 +
STACK CFI 29270 r11: .cfa -24 + ^ r10: .cfa -28 + ^ r9: .cfa -32 + ^ r8: .cfa -36 + ^
STACK CFI INIT 29b28 60 .cfa: sp 0 +
STACK CFI 29b2a .cfa: sp 20 + .ra: .cfa -4 + ^ r7: .cfa -8 + ^ r6: .cfa -12 + ^ r5: .cfa -16 + ^ r4: .cfa -20 + ^
STACK CFI 29b2c .cfa: r7 8 +
STACK CFI 29b30 r11: .cfa -24 + ^
STACK CFI INIT 29b88 1f0 .cfa: sp 0 +
STACK CFI 29b8a .cfa: sp 20 + .ra: .cfa -4 + ^ r7: .cfa -8 + ^ r6: .cfa -12 + ^ r5: .cfa -16 + ^ r4: .cfa -20 + ^
STACK CFI 29b8c .cfa: r7 8 +
STACK CFI 29b90 r11: .cfa -24 + ^ r10: .cfa -28 + ^ r9: .cfa -32 + ^ r8: .cfa -36 + ^
STACK CFI INIT 29d78 e0 .cfa: sp 0 +
STACK CFI 29d7a .cfa: sp 20 + .ra: .cfa -4 + ^ r7: .cfa -8 + ^ r6: .cfa -12 + ^ r5: .cfa -16 + ^ r4: .cfa -20 + ^
STACK CFI 29d7c .cfa: r7 8 +
STACK CFI 29d80 r11: .cfa -24 + ^ r9: .cfa -28 + ^ r8: .cfa -32 + ^
STACK CFI INIT 29e58 24c .cfa: sp 0 +
STACK CFI 29e5a .cfa: sp 20 + .ra: .cfa -4 + ^ r7: .cfa -8 + ^ r6: .cfa -12 + ^ r5: .cfa -16 + ^ r4: .cfa -20 + ^
STACK CFI 29e5c .cfa: r7 8 +
STACK CFI 29e60 r11: .cfa -24 + ^ r10: .cfa -28 + ^ r9: .cfa -32 + ^ r8: .cfa -36 + ^
STACK CFI INIT 2a0a4 2f0 .cfa: sp 0 +
STACK CFI 2a0a6 .cfa: sp 20 + .ra: .cfa -4 + ^ r7: .cfa -8 + ^ r6: .cfa -12 + ^ r5: .cfa -16 + ^ r4: .cfa -20 + ^
STACK CFI 2a0a8 .cfa: r7 8 +
STACK CFI 2a0ac r11: .cfa -24 + ^ r10: .cfa -28 + ^ r9: .cfa -32 + ^ r8: .cfa -36 + ^
STACK CFI INIT 2a394 d28 .cfa: sp 0 +
STACK CFI 2a396 .cfa: sp 20 + .ra: .cfa -4 + ^ r7: .cfa -8 + ^ r6: .cfa -12 + ^ r5: .cfa -16 + ^ r4: .cfa -20 + ^
STACK CFI 2a398 .cfa: r7 8 +
STACK CFI 2a39c r11: .cfa -24 + ^ r10: .cfa -28 + ^ r9: .cfa -32 + ^ r8: .cfa -36 + ^
STACK CFI INIT 2b0bc 16 .cfa: sp 0 +
STACK CFI 2b0be .cfa: sp 16 + .ra: .cfa -4 + ^ r7: .cfa -8 + ^ r6: .cfa -12 + ^ r4: .cfa -16 + ^
STACK CFI 2b0c0 .cfa: r7 8 +
STACK CFI INIT 2b0d4 3bc .cfa: sp 0 +
STACK CFI 2b0d6 .cfa: sp 20 + .ra: .cfa -4 + ^ r7: .cfa -8 + ^ r6: .cfa -12 + ^ r5: .cfa -16 + ^ r4: .cfa -20 + ^
STACK CFI 2b0d8 .cfa: r7 8 +
STACK CFI 2b0dc r11: .cfa -24 + ^ r9: .cfa -28 + ^ r8: .cfa -32 + ^
STACK CFI INIT 2b490 230 .cfa: sp 0 +
STACK CFI 2b492 .cfa: sp 20 + .ra: .cfa -4 + ^ r7: .cfa -8 + ^ r6: .cfa -12 + ^ r5: .cfa -16 + ^ r4: .cfa -20 + ^
STACK CFI 2b494 .cfa: r7 8 +
STACK CFI 2b498 r10: .cfa -24 + ^ r9: .cfa -28 + ^ r8: .cfa -32 + ^
STACK CFI INIT 2b6c0 80 .cfa: sp 0 +
STACK CFI 2b6c2 .cfa: sp 16 + .ra: .cfa -4 + ^ r7: .cfa -8 + ^ r5: .cfa -12 + ^ r4: .cfa -16 + ^
STACK CFI 2b6c4 .cfa: r7 8 +
STACK CFI INIT 2b740 8 .cfa: sp 0 +
STACK CFI INIT 2b748 210 .cfa: sp 0 +
STACK CFI 2b74a .cfa: sp 20 + .ra: .cfa -4 + ^ r7: .cfa -8 + ^ r6: .cfa -12 + ^ r5: .cfa -16 + ^ r4: .cfa -20 + ^
STACK CFI 2b74c .cfa: r7 8 +
STACK CFI 2b750 r10: .cfa -24 + ^ r9: .cfa -28 + ^ r8: .cfa -32 + ^
STACK CFI INIT 2b958 6c0 .cfa: sp 0 +
STACK CFI 2b95a .cfa: sp 20 + .ra: .cfa -4 + ^ r7: .cfa -8 + ^ r6: .cfa -12 + ^ r5: .cfa -16 + ^ r4: .cfa -20 + ^
STACK CFI 2b95c .cfa: r7 8 +
STACK CFI 2b960 r10: .cfa -24 + ^ r9: .cfa -28 + ^ r8: .cfa -32 + ^
STACK CFI INIT 2c018 70 .cfa: sp 0 +
STACK CFI 2c01a .cfa: sp 16 + .ra: .cfa -4 + ^ r7: .cfa -8 + ^ r5: .cfa -12 + ^ r4: .cfa -16 + ^
STACK CFI 2c01c .cfa: r7 8 +
STACK CFI INIT 2c088 118 .cfa: sp 0 +
STACK CFI 2c08a .cfa: sp 20 + .ra: .cfa -4 + ^ r7: .cfa -8 + ^ r6: .cfa -12 + ^ r5: .cfa -16 + ^ r4: .cfa -20 + ^
STACK CFI 2c08c .cfa: r7 8 +
STACK CFI 2c090 r11: .cfa -24 + ^
STACK CFI INIT 2c1a0 21c .cfa: sp 0 +
STACK CFI 2c1a2 .cfa: sp 20 + .ra: .cfa -4 + ^ r7: .cfa -8 + ^ r6: .cfa -12 + ^ r5: .cfa -16 + ^ r4: .cfa -20 + ^
STACK CFI 2c1a4 .cfa: r7 8 +
STACK CFI 2c1a8 r11: .cfa -24 + ^ r10: .cfa -28 + ^ r9: .cfa -32 + ^ r8: .cfa -36 + ^
STACK CFI INIT 0 46 .cfa: sp 0 +
STACK CFI 2 .cfa: sp 16 + .ra: .cfa -4 + ^ r7: .cfa -8 + ^ r6: .cfa -12 + ^ r4: .cfa -16 + ^
STACK CFI 4 .cfa: r7 8 +
STACK CFI INIT 2c3bc 15c .cfa: sp 0 +
STACK CFI 2c3be .cfa: sp 20 + .ra: .cfa -4 + ^ r7: .cfa -8 + ^ r6: .cfa -12 + ^ r5: .cfa -16 + ^ r4: .cfa -20 + ^
STACK CFI 2c3c0 .cfa: r7 8 +
STACK CFI 2c3c4 r8: .cfa -24 + ^
STACK CFI INIT 2c518 8c .cfa: sp 0 +
STACK CFI 2c51a .cfa: sp 20 + .ra: .cfa -4 + ^ r7: .cfa -8 + ^ r6: .cfa -12 + ^ r5: .cfa -16 + ^ r4: .cfa -20 + ^
STACK CFI 2c51c .cfa: r7 8 +
STACK CFI 2c520 r11: .cfa -24 + ^
STACK CFI INIT 2c5a4 90 .cfa: sp 0 +
STACK CFI 2c5a6 .cfa: sp 20 + .ra: .cfa -4 + ^ r7: .cfa -8 + ^ r6: .cfa -12 + ^ r5: .cfa -16 + ^ r4: .cfa -20 + ^
STACK CFI 2c5a8 .cfa: r7 8 +
STACK CFI 2c5ac r11: .cfa -24 + ^
STACK CFI INIT 2c634 94 .cfa: sp 0 +
STACK CFI 2c636 .cfa: sp 20 + .ra: .cfa -4 + ^ r7: .cfa -8 + ^ r6: .cfa -12 + ^ r5: .cfa -16 + ^ r4: .cfa -20 + ^
STACK CFI 2c638 .cfa: r7 8 +
STACK CFI 2c63c r8: .cfa -24 + ^
STACK CFI INIT 2c6c8 98 .cfa: sp 0 +
STACK CFI 2c6ca .cfa: sp 20 + .ra: .cfa -4 + ^ r7: .cfa -8 + ^ r6: .cfa -12 + ^ r5: .cfa -16 + ^ r4: .cfa -20 + ^
STACK CFI 2c6cc .cfa: r7 8 +
STACK CFI 2c6d0 r8: .cfa -24 + ^
STACK CFI INIT 2c760 10 .cfa: sp 0 +
STACK CFI 2c762 .cfa: sp 8 + .ra: .cfa -4 + ^ r7: .cfa -8 + ^
STACK CFI 2c764 .cfa: r7 8 +
STACK CFI INIT 2c770 a .cfa: sp 0 +
STACK CFI INIT 2c77c 3bc .cfa: sp 0 +
STACK CFI 2c77e .cfa: sp 20 + .ra: .cfa -4 + ^ r7: .cfa -8 + ^ r6: .cfa -12 + ^ r5: .cfa -16 + ^ r4: .cfa -20 + ^
STACK CFI 2c780 .cfa: r7 8 +
STACK CFI 2c784 r11: .cfa -24 + ^ r10: .cfa -28 + ^ r9: .cfa -32 + ^ r8: .cfa -36 + ^
STACK CFI INIT 2cb38 468 .cfa: sp 0 +
STACK CFI 2cb3a .cfa: sp 20 + .ra: .cfa -4 + ^ r7: .cfa -8 + ^ r6: .cfa -12 + ^ r5: .cfa -16 + ^ r4: .cfa -20 + ^
STACK CFI 2cb3c .cfa: r7 8 +
STACK CFI 2cb40 r11: .cfa -24 + ^ r10: .cfa -28 + ^ r9: .cfa -32 + ^ r8: .cfa -36 + ^
STACK CFI INIT 2cfa0 10c .cfa: sp 0 +
STACK CFI 2cfa2 .cfa: sp 20 + .ra: .cfa -4 + ^ r7: .cfa -8 + ^ r6: .cfa -12 + ^ r5: .cfa -16 + ^ r4: .cfa -20 + ^
STACK CFI 2cfa4 .cfa: r7 8 +
STACK CFI 2cfa8 r11: .cfa -24 + ^
STACK CFI INIT 2d0ac 114 .cfa: sp 0 +
STACK CFI 2d0ae .cfa: sp 20 + .ra: .cfa -4 + ^ r7: .cfa -8 + ^ r6: .cfa -12 + ^ r5: .cfa -16 + ^ r4: .cfa -20 + ^
STACK CFI 2d0b0 .cfa: r7 8 +
STACK CFI 2d0b4 r8: .cfa -24 + ^
STACK CFI INIT 2d1c0 bc .cfa: sp 0 +
STACK CFI 2d1c2 .cfa: sp 20 + .ra: .cfa -4 + ^ r7: .cfa -8 + ^ r6: .cfa -12 + ^ r5: .cfa -16 + ^ r4: .cfa -20 + ^
STACK CFI 2d1c4 .cfa: r7 8 +
STACK CFI 2d1c8 r11: .cfa -24 + ^
STACK CFI INIT 2d27c bc .cfa: sp 0 +
STACK CFI 2d27e .cfa: sp 20 + .ra: .cfa -4 + ^ r7: .cfa -8 + ^ r6: .cfa -12 + ^ r5: .cfa -16 + ^ r4: .cfa -20 + ^
STACK CFI 2d280 .cfa: r7 8 +
STACK CFI 2d284 r11: .cfa -24 + ^
STACK CFI INIT 2d338 16c .cfa: sp 0 +
STACK CFI 2d33a .cfa: sp 20 + .ra: .cfa -4 + ^ r7: .cfa -8 + ^ r6: .cfa -12 + ^ r5: .cfa -16 + ^ r4: .cfa -20 + ^
STACK CFI 2d33c .cfa: r7 8 +
STACK CFI 2d340 r11: .cfa -24 + ^ r10: .cfa -28 + ^ r9: .cfa -32 + ^ r8: .cfa -36 + ^
STACK CFI INIT 2d4a4 118 .cfa: sp 0 +
STACK CFI 2d4a6 .cfa: sp 20 + .ra: .cfa -4 + ^ r7: .cfa -8 + ^ r6: .cfa -12 + ^ r5: .cfa -16 + ^ r4: .cfa -20 + ^
STACK CFI 2d4a8 .cfa: r7 8 +
STACK CFI 2d4ac r11: .cfa -24 + ^ r10: .cfa -28 + ^ r9: .cfa -32 + ^ r8: .cfa -36 + ^
STACK CFI INIT 2d5bc 120 .cfa: sp 0 +
STACK CFI 2d5be .cfa: sp 20 + .ra: .cfa -4 + ^ r7: .cfa -8 + ^ r6: .cfa -12 + ^ r5: .cfa -16 + ^ r4: .cfa -20 + ^
STACK CFI 2d5c0 .cfa: r7 8 +
STACK CFI 2d5c4 r11: .cfa -24 + ^ r10: .cfa -28 + ^ r9: .cfa -32 + ^ r8: .cfa -36 + ^
STACK CFI INIT 2d6dc 2c4 .cfa: sp 0 +
STACK CFI 2d6de .cfa: sp 20 + .ra: .cfa -4 + ^ r7: .cfa -8 + ^ r6: .cfa -12 + ^ r5: .cfa -16 + ^ r4: .cfa -20 + ^
STACK CFI 2d6e0 .cfa: r7 8 +
STACK CFI 2d6e4 r11: .cfa -24 + ^ r10: .cfa -28 + ^ r9: .cfa -32 + ^ r8: .cfa -36 + ^
STACK CFI INIT 2d9a0 10c .cfa: sp 0 +
STACK CFI 2d9a2 .cfa: sp 20 + .ra: .cfa -4 + ^ r7: .cfa -8 + ^ r6: .cfa -12 + ^ r5: .cfa -16 + ^ r4: .cfa -20 + ^
STACK CFI 2d9a4 .cfa: r7 8 +
STACK CFI 2d9a8 r11: .cfa -24 + ^
STACK CFI INIT 2daac 124 .cfa: sp 0 +
STACK CFI 2daae .cfa: sp 20 + .ra: .cfa -4 + ^ r7: .cfa -8 + ^ r6: .cfa -12 + ^ r5: .cfa -16 + ^ r4: .cfa -20 + ^
STACK CFI 2dab0 .cfa: r7 8 +
STACK CFI 2dab4 r11: .cfa -24 + ^ r10: .cfa -28 + ^ r9: .cfa -32 + ^ r8: .cfa -36 + ^
STACK CFI INIT 2dbd0 1e4 .cfa: sp 0 +
STACK CFI 2dbd2 .cfa: sp 20 + .ra: .cfa -4 + ^ r7: .cfa -8 + ^ r6: .cfa -12 + ^ r5: .cfa -16 + ^ r4: .cfa -20 + ^
STACK CFI 2dbd4 .cfa: r7 8 +
STACK CFI 2dbd8 r11: .cfa -24 + ^ r10: .cfa -28 + ^ r9: .cfa -32 + ^ r8: .cfa -36 + ^
STACK CFI INIT 2ddb4 fa .cfa: sp 0 +
STACK CFI 2ddb6 .cfa: sp 20 + .ra: .cfa -4 + ^ r7: .cfa -8 + ^ r6: .cfa -12 + ^ r5: .cfa -16 + ^ r4: .cfa -20 + ^
STACK CFI 2ddb8 .cfa: r7 8 +
STACK CFI 2ddbc r11: .cfa -24 + ^ r10: .cfa -28 + ^ r9: .cfa -32 + ^ r8: .cfa -36 + ^
STACK CFI INIT 2deb0 1e4 .cfa: sp 0 +
STACK CFI 2deb2 .cfa: sp 20 + .ra: .cfa -4 + ^ r7: .cfa -8 + ^ r6: .cfa -12 + ^ r5: .cfa -16 + ^ r4: .cfa -20 + ^
STACK CFI 2deb4 .cfa: r7 8 +
STACK CFI 2deb8 r11: .cfa -24 + ^ r10: .cfa -28 + ^ r9: .cfa -32 + ^ r8: .cfa -36 + ^
STACK CFI INIT 2e094 118 .cfa: sp 0 +
STACK CFI 2e096 .cfa: sp 16 + .ra: .cfa -4 + ^ r7: .cfa -8 + ^ r5: .cfa -12 + ^ r4: .cfa -16 + ^
STACK CFI 2e098 .cfa: r7 8 +
STACK CFI INIT 2e1ac e0 .cfa: sp 0 +
STACK CFI 2e1ae .cfa: sp 20 + .ra: .cfa -4 + ^ r7: .cfa -8 + ^ r6: .cfa -12 + ^ r5: .cfa -16 + ^ r4: .cfa -20 + ^
STACK CFI 2e1b0 .cfa: r7 8 +
STACK CFI 2e1b4 r8: .cfa -24 + ^
STACK CFI INIT 2e28c dc .cfa: sp 0 +
STACK CFI 2e28e .cfa: sp 20 + .ra: .cfa -4 + ^ r7: .cfa -8 + ^ r6: .cfa -12 + ^ r5: .cfa -16 + ^ r4: .cfa -20 + ^
STACK CFI 2e290 .cfa: r7 8 +
STACK CFI 2e294 r8: .cfa -24 + ^
STACK CFI INIT 2e368 e0 .cfa: sp 0 +
STACK CFI 2e36a .cfa: sp 20 + .ra: .cfa -4 + ^ r7: .cfa -8 + ^ r6: .cfa -12 + ^ r5: .cfa -16 + ^ r4: .cfa -20 + ^
STACK CFI 2e36c .cfa: r7 8 +
STACK CFI 2e370 r8: .cfa -24 + ^
STACK CFI INIT 2e448 60 .cfa: sp 0 +
STACK CFI 2e44a .cfa: sp 8 + .ra: .cfa -4 + ^ r7: .cfa -8 + ^
STACK CFI 2e44c .cfa: r7 8 +
STACK CFI INIT 2e4a8 106 .cfa: sp 0 +
STACK CFI 2e4aa .cfa: sp 20 + .ra: .cfa -4 + ^ r7: .cfa -8 + ^ r6: .cfa -12 + ^ r5: .cfa -16 + ^ r4: .cfa -20 + ^
STACK CFI 2e4ac .cfa: r7 8 +
STACK CFI 2e4b0 r11: .cfa -24 + ^ r10: .cfa -28 + ^ r9: .cfa -32 + ^ r8: .cfa -36 + ^
STACK CFI INIT 2e5b0 60 .cfa: sp 0 +
STACK CFI 2e5b2 .cfa: sp 8 + .ra: .cfa -4 + ^ r7: .cfa -8 + ^
STACK CFI 2e5b4 .cfa: r7 8 +
STACK CFI INIT 2e610 4 .cfa: sp 0 +
STACK CFI INIT 2e614 20 .cfa: sp 0 +
STACK CFI 2e616 .cfa: sp 16 + .ra: .cfa -4 + ^ r7: .cfa -8 + ^ r6: .cfa -12 + ^ r4: .cfa -16 + ^
STACK CFI 2e618 .cfa: r7 8 +
STACK CFI INIT 2e634 18 .cfa: sp 0 +
STACK CFI INIT 2e64c 2 .cfa: sp 0 +
STACK CFI INIT 2e64e 4 .cfa: sp 0 +
STACK CFI INIT 2e654 174 .cfa: sp 0 +
STACK CFI 2e656 .cfa: sp 20 + .ra: .cfa -4 + ^ r7: .cfa -8 + ^ r6: .cfa -12 + ^ r5: .cfa -16 + ^ r4: .cfa -20 + ^
STACK CFI 2e658 .cfa: r7 8 +
STACK CFI 2e65c r10: .cfa -24 + ^ r9: .cfa -28 + ^ r8: .cfa -32 + ^
STACK CFI INIT 2e7c8 18 .cfa: sp 0 +
STACK CFI INIT 2e7e0 c .cfa: sp 0 +
STACK CFI INIT 2e7ec 34 .cfa: sp 0 +
STACK CFI 2e7ee .cfa: sp 16 + .ra: .cfa -4 + ^ r7: .cfa -8 + ^ r6: .cfa -12 + ^ r4: .cfa -16 + ^
STACK CFI 2e7f0 .cfa: r7 8 +
STACK CFI INIT 2e820 38 .cfa: sp 0 +
STACK CFI 2e822 .cfa: sp 16 + .ra: .cfa -4 + ^ r7: .cfa -8 + ^ r6: .cfa -12 + ^ r4: .cfa -16 + ^
STACK CFI 2e824 .cfa: r7 8 +
STACK CFI INIT 2e858 54 .cfa: sp 0 +
STACK CFI 2e85a .cfa: sp 16 + .ra: .cfa -4 + ^ r7: .cfa -8 + ^ r5: .cfa -12 + ^ r4: .cfa -16 + ^
STACK CFI 2e85c .cfa: r7 8 +
STACK CFI INIT 2e8ac 44 .cfa: sp 0 +
STACK CFI 2e8ae .cfa: sp 16 + .ra: .cfa -4 + ^ r7: .cfa -8 + ^ r6: .cfa -12 + ^ r4: .cfa -16 + ^
STACK CFI 2e8b0 .cfa: r7 8 +
STACK CFI INIT 2e8f0 1e .cfa: sp 0 +
STACK CFI INIT 2e90e 2a .cfa: sp 0 +
STACK CFI 2e910 .cfa: sp 16 + .ra: .cfa -4 + ^ r7: .cfa -8 + ^ r6: .cfa -12 + ^ r4: .cfa -16 + ^
STACK CFI 2e912 .cfa: r7 8 +
STACK CFI INIT 2e938 44 .cfa: sp 0 +
STACK CFI 2e93a .cfa: sp 8 + .ra: .cfa -4 + ^ r7: .cfa -8 + ^
STACK CFI 2e93c .cfa: r7 8 +
STACK CFI INIT 2e97c 18 .cfa: sp 0 +
STACK CFI INIT 2e994 c .cfa: sp 0 +
STACK CFI INIT 2e9a0 4 .cfa: sp 0 +
STACK CFI INIT 2e9a4 20 .cfa: sp 0 +
STACK CFI 2e9a6 .cfa: sp 16 + .ra: .cfa -4 + ^ r7: .cfa -8 + ^ r6: .cfa -12 + ^ r4: .cfa -16 + ^
STACK CFI 2e9a8 .cfa: r7 8 +
STACK CFI INIT 2e9c4 18 .cfa: sp 0 +
STACK CFI INIT 2e9dc 2 .cfa: sp 0 +
STACK CFI INIT 2e9de 4 .cfa: sp 0 +
STACK CFI INIT 2e9e4 284 .cfa: sp 0 +
STACK CFI 2e9e6 .cfa: sp 20 + .ra: .cfa -4 + ^ r7: .cfa -8 + ^ r6: .cfa -12 + ^ r5: .cfa -16 + ^ r4: .cfa -20 + ^
STACK CFI 2e9e8 .cfa: r7 8 +
STACK CFI 2e9ec r11: .cfa -24 + ^ r10: .cfa -28 + ^ r9: .cfa -32 + ^ r8: .cfa -36 + ^
STACK CFI INIT 2ec68 18 .cfa: sp 0 +
STACK CFI INIT 2ec80 c .cfa: sp 0 +
STACK CFI INIT 2ec8c 4 .cfa: sp 0 +
STACK CFI INIT 2ec90 20 .cfa: sp 0 +
STACK CFI 2ec92 .cfa: sp 16 + .ra: .cfa -4 + ^ r7: .cfa -8 + ^ r6: .cfa -12 + ^ r4: .cfa -16 + ^
STACK CFI 2ec94 .cfa: r7 8 +
STACK CFI INIT 2ecb0 18 .cfa: sp 0 +
STACK CFI INIT 2ecc8 2 .cfa: sp 0 +
STACK CFI INIT 2ecca 4 .cfa: sp 0 +
STACK CFI INIT 2ecd0 bc .cfa: sp 0 +
STACK CFI 2ecd2 .cfa: sp 20 + .ra: .cfa -4 + ^ r7: .cfa -8 + ^ r6: .cfa -12 + ^ r5: .cfa -16 + ^ r4: .cfa -20 + ^
STACK CFI 2ecd4 .cfa: r7 8 +
STACK CFI 2ecd8 r11: .cfa -24 + ^
STACK CFI INIT 2ed8c 18 .cfa: sp 0 +
STACK CFI INIT 2eda4 c .cfa: sp 0 +
STACK CFI INIT 2edb0 4 .cfa: sp 0 +
STACK CFI INIT 2edb4 20 .cfa: sp 0 +
STACK CFI 2edb6 .cfa: sp 16 + .ra: .cfa -4 + ^ r7: .cfa -8 + ^ r6: .cfa -12 + ^ r4: .cfa -16 + ^
STACK CFI 2edb8 .cfa: r7 8 +
STACK CFI INIT 2edd4 14 .cfa: sp 0 +
STACK CFI INIT 2ede8 2 .cfa: sp 0 +
STACK CFI INIT 2edea 4 .cfa: sp 0 +
STACK CFI INIT 2edee 26 .cfa: sp 0 +
STACK CFI 2edf0 .cfa: sp 16 + .ra: .cfa -4 + ^ r7: .cfa -8 + ^ r5: .cfa -12 + ^ r4: .cfa -16 + ^
STACK CFI 2edf2 .cfa: r7 8 +
STACK CFI INIT 2ee14 18 .cfa: sp 0 +
STACK CFI INIT 2ee2c c .cfa: sp 0 +
STACK CFI INIT 2ee38 4 .cfa: sp 0 +
STACK CFI INIT 2ee3c 20 .cfa: sp 0 +
STACK CFI 2ee3e .cfa: sp 16 + .ra: .cfa -4 + ^ r7: .cfa -8 + ^ r6: .cfa -12 + ^ r4: .cfa -16 + ^
STACK CFI 2ee40 .cfa: r7 8 +
STACK CFI INIT 2ee5c 18 .cfa: sp 0 +
STACK CFI INIT 2ee74 2 .cfa: sp 0 +
STACK CFI INIT 2ee76 4 .cfa: sp 0 +
STACK CFI INIT 2ee7c bc .cfa: sp 0 +
STACK CFI 2ee7e .cfa: sp 20 + .ra: .cfa -4 + ^ r7: .cfa -8 + ^ r6: .cfa -12 + ^ r5: .cfa -16 + ^ r4: .cfa -20 + ^
STACK CFI 2ee80 .cfa: r7 8 +
STACK CFI 2ee84 r11: .cfa -24 + ^
STACK CFI INIT 2ef38 18 .cfa: sp 0 +
STACK CFI INIT 2ef50 c .cfa: sp 0 +
STACK CFI INIT 2ef5c 4 .cfa: sp 0 +
STACK CFI INIT 2ef60 20 .cfa: sp 0 +
STACK CFI 2ef62 .cfa: sp 16 + .ra: .cfa -4 + ^ r7: .cfa -8 + ^ r6: .cfa -12 + ^ r4: .cfa -16 + ^
STACK CFI 2ef64 .cfa: r7 8 +
STACK CFI INIT 2ef80 14 .cfa: sp 0 +
STACK CFI INIT 2ef94 2 .cfa: sp 0 +
STACK CFI INIT 2ef96 4 .cfa: sp 0 +
STACK CFI INIT 2ef9a 2e .cfa: sp 0 +
STACK CFI 2ef9c .cfa: sp 8 + .ra: .cfa -4 + ^ r7: .cfa -8 + ^
STACK CFI 2ef9e .cfa: r7 8 +
STACK CFI INIT 2efc8 18 .cfa: sp 0 +
STACK CFI INIT 2efe0 c .cfa: sp 0 +
STACK CFI INIT 2efec 2 .cfa: sp 0 +
STACK CFI INIT 2efee 4 .cfa: sp 0 +
STACK CFI INIT 2eff4 20 .cfa: sp 0 +
STACK CFI 2eff6 .cfa: sp 16 + .ra: .cfa -4 + ^ r7: .cfa -8 + ^ r6: .cfa -12 + ^ r4: .cfa -16 + ^
STACK CFI 2eff8 .cfa: r7 8 +
STACK CFI INIT 2f014 14 .cfa: sp 0 +
STACK CFI INIT 2f028 2 .cfa: sp 0 +
STACK CFI INIT 2f02a 4 .cfa: sp 0 +
STACK CFI INIT 2f030 204 .cfa: sp 0 +
STACK CFI 2f032 .cfa: sp 20 + .ra: .cfa -4 + ^ r7: .cfa -8 + ^ r6: .cfa -12 + ^ r5: .cfa -16 + ^ r4: .cfa -20 + ^
STACK CFI 2f034 .cfa: r7 8 +
STACK CFI 2f038 r11: .cfa -24 + ^ r9: .cfa -28 + ^ r8: .cfa -32 + ^
STACK CFI INIT 2f234 18 .cfa: sp 0 +
STACK CFI INIT 2f24c c .cfa: sp 0 +
STACK CFI INIT 2f258 4 .cfa: sp 0 +
STACK CFI INIT 2f25c 20 .cfa: sp 0 +
STACK CFI 2f25e .cfa: sp 16 + .ra: .cfa -4 + ^ r7: .cfa -8 + ^ r6: .cfa -12 + ^ r4: .cfa -16 + ^
STACK CFI 2f260 .cfa: r7 8 +
STACK CFI INIT 2f27c 14 .cfa: sp 0 +
STACK CFI INIT 2f290 2 .cfa: sp 0 +
STACK CFI INIT 2f292 4 .cfa: sp 0 +
STACK CFI INIT 2f296 4 .cfa: sp 0 +
STACK CFI INIT 2f29c 18 .cfa: sp 0 +
STACK CFI INIT 2f2b4 c .cfa: sp 0 +
STACK CFI INIT 2f2c0 4 .cfa: sp 0 +
STACK CFI INIT 2f2c4 20 .cfa: sp 0 +
STACK CFI 2f2c6 .cfa: sp 16 + .ra: .cfa -4 + ^ r7: .cfa -8 + ^ r6: .cfa -12 + ^ r4: .cfa -16 + ^
STACK CFI 2f2c8 .cfa: r7 8 +
STACK CFI INIT 2f2e4 14 .cfa: sp 0 +
STACK CFI INIT 2f2f8 2 .cfa: sp 0 +
STACK CFI INIT 2f2fa 4 .cfa: sp 0 +
STACK CFI INIT 2f2fe 4 .cfa: sp 0 +
STACK CFI INIT 2f304 18 .cfa: sp 0 +
STACK CFI INIT 2f31c c .cfa: sp 0 +
STACK CFI INIT 2f328 4 .cfa: sp 0 +
STACK CFI INIT 2f32c 20 .cfa: sp 0 +
STACK CFI 2f32e .cfa: sp 16 + .ra: .cfa -4 + ^ r7: .cfa -8 + ^ r6: .cfa -12 + ^ r4: .cfa -16 + ^
STACK CFI 2f330 .cfa: r7 8 +
STACK CFI INIT 2f34c 14 .cfa: sp 0 +
STACK CFI INIT 2f360 2 .cfa: sp 0 +
STACK CFI INIT 2f362 4 .cfa: sp 0 +
STACK CFI INIT 2f366 14 .cfa: sp 0 +
STACK CFI 2f368 .cfa: sp 8 + .ra: .cfa -4 + ^ r7: .cfa -8 + ^
STACK CFI 2f36a .cfa: r7 8 +
STACK CFI INIT 2f37c 18 .cfa: sp 0 +
STACK CFI INIT 2f394 c .cfa: sp 0 +
STACK CFI INIT 2f3a0 4 .cfa: sp 0 +
STACK CFI INIT 2f3a4 20 .cfa: sp 0 +
STACK CFI 2f3a6 .cfa: sp 16 + .ra: .cfa -4 + ^ r7: .cfa -8 + ^ r6: .cfa -12 + ^ r4: .cfa -16 + ^
STACK CFI 2f3a8 .cfa: r7 8 +
STACK CFI INIT 2f3c4 14 .cfa: sp 0 +
STACK CFI INIT 2f3d8 2 .cfa: sp 0 +
STACK CFI INIT 2f3da 4 .cfa: sp 0 +
STACK CFI INIT 2f3e0 8c .cfa: sp 0 +
STACK CFI 2f3e2 .cfa: sp 8 + .ra: .cfa -4 + ^ r7: .cfa -8 + ^
STACK CFI 2f3e4 .cfa: r7 8 +
STACK CFI INIT 2f46c 18 .cfa: sp 0 +
STACK CFI INIT 2f484 c .cfa: sp 0 +
STACK CFI INIT 2f490 464 .cfa: sp 0 +
STACK CFI 2f492 .cfa: sp 20 + .ra: .cfa -4 + ^ r7: .cfa -8 + ^ r6: .cfa -12 + ^ r5: .cfa -16 + ^ r4: .cfa -20 + ^
STACK CFI 2f494 .cfa: r7 8 +
STACK CFI 2f498 r11: .cfa -24 + ^ r10: .cfa -28 + ^ r9: .cfa -32 + ^ r8: .cfa -36 + ^
STACK CFI INIT 2f8f4 16 .cfa: sp 0 +
STACK CFI 2f8f6 .cfa: sp 16 + .ra: .cfa -4 + ^ r7: .cfa -8 + ^ r6: .cfa -12 + ^ r4: .cfa -16 + ^
STACK CFI 2f8f8 .cfa: r7 8 +
STACK CFI INIT 2f90c 4ac .cfa: sp 0 +
STACK CFI 2f90e .cfa: sp 20 + .ra: .cfa -4 + ^ r7: .cfa -8 + ^ r6: .cfa -12 + ^ r5: .cfa -16 + ^ r4: .cfa -20 + ^
STACK CFI 2f910 .cfa: r7 8 +
STACK CFI 2f914 r11: .cfa -24 + ^ r10: .cfa -28 + ^ r9: .cfa -32 + ^ r8: .cfa -36 + ^
STACK CFI INIT 2fdb8 504 .cfa: sp 0 +
STACK CFI 2fdba .cfa: sp 20 + .ra: .cfa -4 + ^ r7: .cfa -8 + ^ r6: .cfa -12 + ^ r5: .cfa -16 + ^ r4: .cfa -20 + ^
STACK CFI 2fdbc .cfa: r7 8 +
STACK CFI 2fdc0 r11: .cfa -24 + ^ r10: .cfa -28 + ^ r9: .cfa -32 + ^ r8: .cfa -36 + ^
STACK CFI INIT 302bc 130 .cfa: sp 0 +
STACK CFI 302be .cfa: sp 20 + .ra: .cfa -4 + ^ r7: .cfa -8 + ^ r6: .cfa -12 + ^ r5: .cfa -16 + ^ r4: .cfa -20 + ^
STACK CFI 302c0 .cfa: r7 8 +
STACK CFI 302c4 r8: .cfa -24 + ^
STACK CFI INIT 303ec 16 .cfa: sp 0 +
STACK CFI 303ee .cfa: sp 16 + .ra: .cfa -4 + ^ r7: .cfa -8 + ^ r6: .cfa -12 + ^ r4: .cfa -16 + ^
STACK CFI 303f0 .cfa: r7 8 +
STACK CFI INIT 30404 13c .cfa: sp 0 +
STACK CFI 30406 .cfa: sp 20 + .ra: .cfa -4 + ^ r7: .cfa -8 + ^ r6: .cfa -12 + ^ r5: .cfa -16 + ^ r4: .cfa -20 + ^
STACK CFI 30408 .cfa: r7 8 +
STACK CFI 3040c r11: .cfa -24 + ^
STACK CFI INIT 30540 310 .cfa: sp 0 +
STACK CFI 30542 .cfa: sp 20 + .ra: .cfa -4 + ^ r7: .cfa -8 + ^ r6: .cfa -12 + ^ r5: .cfa -16 + ^ r4: .cfa -20 + ^
STACK CFI 30544 .cfa: r7 8 +
STACK CFI 30548 r10: .cfa -24 + ^ r9: .cfa -28 + ^ r8: .cfa -32 + ^
STACK CFI INIT 30850 54 .cfa: sp 0 +
STACK CFI 30852 .cfa: sp 8 + .ra: .cfa -4 + ^ r7: .cfa -8 + ^
STACK CFI 30854 .cfa: r7 8 +
STACK CFI INIT 308a4 88 .cfa: sp 0 +
STACK CFI 308a6 .cfa: sp 20 + .ra: .cfa -4 + ^ r7: .cfa -8 + ^ r6: .cfa -12 + ^ r5: .cfa -16 + ^ r4: .cfa -20 + ^
STACK CFI 308a8 .cfa: r7 8 +
STACK CFI 308ac r8: .cfa -24 + ^
STACK CFI INIT 3092c 10 .cfa: sp 0 +
STACK CFI 3092e .cfa: sp 8 + .ra: .cfa -4 + ^ r7: .cfa -8 + ^
STACK CFI 30930 .cfa: r7 8 +
STACK CFI INIT 3093c 8 .cfa: sp 0 +
STACK CFI INIT 30944 14 .cfa: sp 0 +
STACK CFI 30946 .cfa: sp 8 + .ra: .cfa -4 + ^ r7: .cfa -8 + ^
STACK CFI 30948 .cfa: r7 8 +
STACK CFI INIT 30958 4 .cfa: sp 0 +
STACK CFI INIT 3095c 20 .cfa: sp 0 +
STACK CFI 3095e .cfa: sp 16 + .ra: .cfa -4 + ^ r7: .cfa -8 + ^ r6: .cfa -12 + ^ r4: .cfa -16 + ^
STACK CFI 30960 .cfa: r7 8 +
STACK CFI INIT 3097c 14 .cfa: sp 0 +
STACK CFI INIT 30990 2 .cfa: sp 0 +
STACK CFI INIT 30992 4 .cfa: sp 0 +
STACK CFI INIT 30998 40 .cfa: sp 0 +
STACK CFI 3099a .cfa: sp 16 + .ra: .cfa -4 + ^ r7: .cfa -8 + ^ r6: .cfa -12 + ^ r4: .cfa -16 + ^
STACK CFI 3099c .cfa: r7 8 +
STACK CFI INIT 309d8 18 .cfa: sp 0 +
STACK CFI INIT 309f0 c .cfa: sp 0 +
STACK CFI INIT 309fc a0 .cfa: sp 0 +
STACK CFI 309fe .cfa: sp 20 + .ra: .cfa -4 + ^ r7: .cfa -8 + ^ r6: .cfa -12 + ^ r5: .cfa -16 + ^ r4: .cfa -20 + ^
STACK CFI 30a00 .cfa: r7 8 +
STACK CFI 30a04 r11: .cfa -24 + ^
STACK CFI INIT 30a9c e8 .cfa: sp 0 +
STACK CFI 30a9e .cfa: sp 20 + .ra: .cfa -4 + ^ r7: .cfa -8 + ^ r6: .cfa -12 + ^ r5: .cfa -16 + ^ r4: .cfa -20 + ^
STACK CFI 30aa0 .cfa: r7 8 +
STACK CFI 30aa4 r11: .cfa -24 + ^ r9: .cfa -28 + ^ r8: .cfa -32 + ^
STACK CFI INIT 30b84 20 .cfa: sp 0 +
STACK CFI 30b86 .cfa: sp 16 + .ra: .cfa -4 + ^ r7: .cfa -8 + ^ r6: .cfa -12 + ^ r4: .cfa -16 + ^
STACK CFI 30b88 .cfa: r7 8 +
STACK CFI INIT 30ba4 28 .cfa: sp 0 +
STACK CFI 30ba6 .cfa: sp 16 + .ra: .cfa -4 + ^ r7: .cfa -8 + ^ r6: .cfa -12 + ^ r4: .cfa -16 + ^
STACK CFI 30ba8 .cfa: r7 8 +
STACK CFI INIT 30bcc 3c .cfa: sp 0 +
STACK CFI 30bce .cfa: sp 16 + .ra: .cfa -4 + ^ r7: .cfa -8 + ^ r5: .cfa -12 + ^ r4: .cfa -16 + ^
STACK CFI 30bd0 .cfa: r7 8 +
STACK CFI INIT 30c08 2c .cfa: sp 0 +
STACK CFI 30c0a .cfa: sp 16 + .ra: .cfa -4 + ^ r7: .cfa -8 + ^ r5: .cfa -12 + ^ r4: .cfa -16 + ^
STACK CFI 30c0c .cfa: r7 8 +
STACK CFI INIT 30c34 6 .cfa: sp 0 +
STACK CFI INIT 30c3a 16 .cfa: sp 0 +
STACK CFI 30c3c .cfa: sp 16 + .ra: .cfa -4 + ^ r7: .cfa -8 + ^ r6: .cfa -12 + ^ r4: .cfa -16 + ^
STACK CFI 30c3e .cfa: r7 8 +
STACK CFI INIT 30c50 cc .cfa: sp 0 +
STACK CFI 30c52 .cfa: sp 20 + .ra: .cfa -4 + ^ r7: .cfa -8 + ^ r6: .cfa -12 + ^ r5: .cfa -16 + ^ r4: .cfa -20 + ^
STACK CFI 30c54 .cfa: r7 8 +
STACK CFI 30c58 r8: .cfa -24 + ^
STACK CFI INIT 30d1c 18 .cfa: sp 0 +
STACK CFI INIT 30d34 c .cfa: sp 0 +
STACK CFI INIT 30d40 4 .cfa: sp 0 +
STACK CFI INIT 30d44 20 .cfa: sp 0 +
STACK CFI 30d46 .cfa: sp 16 + .ra: .cfa -4 + ^ r7: .cfa -8 + ^ r6: .cfa -12 + ^ r4: .cfa -16 + ^
STACK CFI 30d48 .cfa: r7 8 +
STACK CFI INIT 30d64 14 .cfa: sp 0 +
STACK CFI INIT 30d78 2 .cfa: sp 0 +
STACK CFI INIT 30d7a 4 .cfa: sp 0 +
STACK CFI INIT 30d7e 6 .cfa: sp 0 +
STACK CFI INIT 30d84 18 .cfa: sp 0 +
STACK CFI INIT 30d9c c .cfa: sp 0 +
STACK CFI INIT 30da8 4 .cfa: sp 0 +
STACK CFI INIT 30dac 20 .cfa: sp 0 +
STACK CFI 30dae .cfa: sp 16 + .ra: .cfa -4 + ^ r7: .cfa -8 + ^ r6: .cfa -12 + ^ r4: .cfa -16 + ^
STACK CFI 30db0 .cfa: r7 8 +
STACK CFI INIT 30dcc 14 .cfa: sp 0 +
STACK CFI INIT 30de0 2 .cfa: sp 0 +
STACK CFI INIT 30de2 4 .cfa: sp 0 +
STACK CFI INIT 30de6 10 .cfa: sp 0 +
STACK CFI INIT 30df8 18 .cfa: sp 0 +
STACK CFI INIT 30e10 c .cfa: sp 0 +
STACK CFI INIT 30e1c 2 .cfa: sp 0 +
STACK CFI INIT 30e1e 4 .cfa: sp 0 +
STACK CFI INIT 30e24 20 .cfa: sp 0 +
STACK CFI 30e26 .cfa: sp 16 + .ra: .cfa -4 + ^ r7: .cfa -8 + ^ r6: .cfa -12 + ^ r4: .cfa -16 + ^
STACK CFI 30e28 .cfa: r7 8 +
STACK CFI INIT 30e44 14 .cfa: sp 0 +
STACK CFI INIT 30e58 2 .cfa: sp 0 +
STACK CFI INIT 30e5a 4 .cfa: sp 0 +
STACK CFI INIT 30e5e e .cfa: sp 0 +
STACK CFI INIT 30e6c 18 .cfa: sp 0 +
STACK CFI INIT 30e84 c .cfa: sp 0 +
STACK CFI INIT 30e90 4 .cfa: sp 0 +
STACK CFI INIT 30e94 28 .cfa: sp 0 +
STACK CFI 30e96 .cfa: sp 16 + .ra: .cfa -4 + ^ r7: .cfa -8 + ^ r6: .cfa -12 + ^ r4: .cfa -16 + ^
STACK CFI 30e98 .cfa: r7 8 +
STACK CFI INIT 30ebc 1c .cfa: sp 0 +
STACK CFI INIT 30ed8 2 .cfa: sp 0 +
STACK CFI INIT 30eda 4 .cfa: sp 0 +
STACK CFI INIT 30ee0 16c .cfa: sp 0 +
STACK CFI 30ee2 .cfa: sp 20 + .ra: .cfa -4 + ^ r7: .cfa -8 + ^ r6: .cfa -12 + ^ r5: .cfa -16 + ^ r4: .cfa -20 + ^
STACK CFI 30ee4 .cfa: r7 8 +
STACK CFI 30ee8 r8: .cfa -24 + ^
STACK CFI INIT 3104c 18 .cfa: sp 0 +
STACK CFI INIT 31064 c .cfa: sp 0 +
STACK CFI INIT 31070 178 .cfa: sp 0 +
STACK CFI 31072 .cfa: sp 20 + .ra: .cfa -4 + ^ r7: .cfa -8 + ^ r6: .cfa -12 + ^ r5: .cfa -16 + ^ r4: .cfa -20 + ^
STACK CFI 31074 .cfa: r7 8 +
STACK CFI 31078 r11: .cfa -24 + ^ r10: .cfa -28 + ^ r9: .cfa -32 + ^ r8: .cfa -36 + ^
STACK CFI INIT 0 60 .cfa: sp 0 +
STACK CFI 2 .cfa: sp 20 + .ra: .cfa -4 + ^ r7: .cfa -8 + ^ r6: .cfa -12 + ^ r5: .cfa -16 + ^ r4: .cfa -20 + ^
STACK CFI 4 .cfa: r7 8 +
STACK CFI 8 r11: .cfa -24 + ^
STACK CFI INIT 311e8 10 .cfa: sp 0 +
STACK CFI 311ea .cfa: sp 8 + .ra: .cfa -4 + ^ r7: .cfa -8 + ^
STACK CFI 311ec .cfa: r7 8 +
STACK CFI INIT 311f8 524 .cfa: sp 0 +
STACK CFI 311fa .cfa: sp 20 + .ra: .cfa -4 + ^ r7: .cfa -8 + ^ r6: .cfa -12 + ^ r5: .cfa -16 + ^ r4: .cfa -20 + ^
STACK CFI 311fc .cfa: r7 8 +
STACK CFI 31200 r11: .cfa -24 + ^ r10: .cfa -28 + ^ r9: .cfa -32 + ^ r8: .cfa -36 + ^
STACK CFI INIT 0 58 .cfa: sp 0 +
STACK CFI 2 .cfa: sp 20 + .ra: .cfa -4 + ^ r7: .cfa -8 + ^ r6: .cfa -12 + ^ r5: .cfa -16 + ^ r4: .cfa -20 + ^
STACK CFI 4 .cfa: r7 8 +
STACK CFI 8 r11: .cfa -24 + ^
STACK CFI INIT 3171c e0 .cfa: sp 0 +
STACK CFI 3171e .cfa: sp 20 + .ra: .cfa -4 + ^ r7: .cfa -8 + ^ r6: .cfa -12 + ^ r5: .cfa -16 + ^ r4: .cfa -20 + ^
STACK CFI 31720 .cfa: r7 8 +
STACK CFI 31724 r8: .cfa -24 + ^
STACK CFI INIT 317fc 1b0 .cfa: sp 0 +
STACK CFI 317fe .cfa: sp 20 + .ra: .cfa -4 + ^ r7: .cfa -8 + ^ r6: .cfa -12 + ^ r5: .cfa -16 + ^ r4: .cfa -20 + ^
STACK CFI 31800 .cfa: r7 8 +
STACK CFI 31804 r11: .cfa -24 + ^ r9: .cfa -28 + ^ r8: .cfa -32 + ^
STACK CFI INIT 319ac 100 .cfa: sp 0 +
STACK CFI 319ae .cfa: sp 20 + .ra: .cfa -4 + ^ r7: .cfa -8 + ^ r6: .cfa -12 + ^ r5: .cfa -16 + ^ r4: .cfa -20 + ^
STACK CFI 319b0 .cfa: r7 8 +
STACK CFI 319b4 r8: .cfa -24 + ^
STACK CFI INIT 0 46 .cfa: sp 0 +
STACK CFI 2 .cfa: sp 16 + .ra: .cfa -4 + ^ r7: .cfa -8 + ^ r6: .cfa -12 + ^ r4: .cfa -16 + ^
STACK CFI 4 .cfa: r7 8 +
STACK CFI INIT 31aac 29c .cfa: sp 0 +
STACK CFI 31aae .cfa: sp 20 + .ra: .cfa -4 + ^ r7: .cfa -8 + ^ r6: .cfa -12 + ^ r5: .cfa -16 + ^ r4: .cfa -20 + ^
STACK CFI 31ab0 .cfa: r7 8 +
STACK CFI 31ab4 r11: .cfa -24 + ^ r9: .cfa -28 + ^ r8: .cfa -32 + ^
STACK CFI INIT 31d48 c4 .cfa: sp 0 +
STACK CFI 31d4a .cfa: sp 20 + .ra: .cfa -4 + ^ r7: .cfa -8 + ^ r6: .cfa -12 + ^ r5: .cfa -16 + ^ r4: .cfa -20 + ^
STACK CFI 31d4c .cfa: r7 8 +
STACK CFI 31d50 r8: .cfa -24 + ^
STACK CFI INIT 31e0c 3a .cfa: sp 0 +
STACK CFI 31e0e .cfa: sp 16 + .ra: .cfa -4 + ^ r7: .cfa -8 + ^ r5: .cfa -12 + ^ r4: .cfa -16 + ^
STACK CFI 31e10 .cfa: r7 8 +
STACK CFI INIT 31e48 b0 .cfa: sp 0 +
STACK CFI 31e4a .cfa: sp 20 + .ra: .cfa -4 + ^ r7: .cfa -8 + ^ r6: .cfa -12 + ^ r5: .cfa -16 + ^ r4: .cfa -20 + ^
STACK CFI 31e4c .cfa: r7 8 +
STACK CFI 31e50 r11: .cfa -24 + ^
STACK CFI INIT 31ef8 b4 .cfa: sp 0 +
STACK CFI 31efa .cfa: sp 20 + .ra: .cfa -4 + ^ r7: .cfa -8 + ^ r6: .cfa -12 + ^ r5: .cfa -16 + ^ r4: .cfa -20 + ^
STACK CFI 31efc .cfa: r7 8 +
STACK CFI 31f00 r11: .cfa -24 + ^
STACK CFI INIT 31fac 68 .cfa: sp 0 +
STACK CFI 31fae .cfa: sp 16 + .ra: .cfa -4 + ^ r7: .cfa -8 + ^ r5: .cfa -12 + ^ r4: .cfa -16 + ^
STACK CFI 31fb0 .cfa: r7 8 +
STACK CFI INIT 32014 168 .cfa: sp 0 +
STACK CFI 32016 .cfa: sp 20 + .ra: .cfa -4 + ^ r7: .cfa -8 + ^ r6: .cfa -12 + ^ r5: .cfa -16 + ^ r4: .cfa -20 + ^
STACK CFI 32018 .cfa: r7 8 +
STACK CFI 3201c r11: .cfa -24 + ^ r9: .cfa -28 + ^ r8: .cfa -32 + ^
STACK CFI INIT 3217c 4 .cfa: sp 0 +
STACK CFI INIT 32180 e8 .cfa: sp 0 +
STACK CFI 32182 .cfa: sp 16 + .ra: .cfa -4 + ^ r7: .cfa -8 + ^ r5: .cfa -12 + ^ r4: .cfa -16 + ^
STACK CFI 32184 .cfa: r7 8 +
STACK CFI INIT 32268 6c .cfa: sp 0 +
STACK CFI 3226a .cfa: sp 16 + .ra: .cfa -4 + ^ r7: .cfa -8 + ^ r5: .cfa -12 + ^ r4: .cfa -16 + ^
STACK CFI 3226c .cfa: r7 8 +
STACK CFI INIT 322d4 3a .cfa: sp 0 +
STACK CFI 322d6 .cfa: sp 16 + .ra: .cfa -4 + ^ r7: .cfa -8 + ^ r5: .cfa -12 + ^ r4: .cfa -16 + ^
STACK CFI 322d8 .cfa: r7 8 +
STACK CFI INIT 3230e 3a .cfa: sp 0 +
STACK CFI 32310 .cfa: sp 16 + .ra: .cfa -4 + ^ r7: .cfa -8 + ^ r5: .cfa -12 + ^ r4: .cfa -16 + ^
STACK CFI 32312 .cfa: r7 8 +
STACK CFI INIT 32348 48 .cfa: sp 0 +
STACK CFI 3234a .cfa: sp 16 + .ra: .cfa -4 + ^ r7: .cfa -8 + ^ r5: .cfa -12 + ^ r4: .cfa -16 + ^
STACK CFI 3234c .cfa: r7 8 +
STACK CFI INIT 32390 54 .cfa: sp 0 +
STACK CFI 32392 .cfa: sp 16 + .ra: .cfa -4 + ^ r7: .cfa -8 + ^ r5: .cfa -12 + ^ r4: .cfa -16 + ^
STACK CFI 32394 .cfa: r7 8 +
STACK CFI INIT 323e4 40 .cfa: sp 0 +
STACK CFI 323e6 .cfa: sp 16 + .ra: .cfa -4 + ^ r7: .cfa -8 + ^ r6: .cfa -12 + ^ r4: .cfa -16 + ^
STACK CFI 323e8 .cfa: r7 8 +
STACK CFI INIT 32424 34 .cfa: sp 0 +
STACK CFI INIT 32458 3a .cfa: sp 0 +
STACK CFI 3245a .cfa: sp 16 + .ra: .cfa -4 + ^ r7: .cfa -8 + ^ r6: .cfa -12 + ^ r4: .cfa -16 + ^
STACK CFI 3245c .cfa: r7 8 +
STACK CFI INIT 32492 44 .cfa: sp 0 +
STACK CFI 32494 .cfa: sp 16 + .ra: .cfa -4 + ^ r7: .cfa -8 + ^ r5: .cfa -12 + ^ r4: .cfa -16 + ^
STACK CFI 32496 .cfa: r7 8 +
STACK CFI INIT 324d8 150 .cfa: sp 0 +
STACK CFI 324da .cfa: sp 20 + .ra: .cfa -4 + ^ r7: .cfa -8 + ^ r6: .cfa -12 + ^ r5: .cfa -16 + ^ r4: .cfa -20 + ^
STACK CFI 324dc .cfa: r7 8 +
STACK CFI 324e0 r11: .cfa -24 + ^
STACK CFI INIT 32628 18 .cfa: sp 0 +
STACK CFI INIT 32640 c .cfa: sp 0 +
STACK CFI INIT 3264c 44 .cfa: sp 0 +
STACK CFI 3264e .cfa: sp 16 + .ra: .cfa -4 + ^ r7: .cfa -8 + ^ r5: .cfa -12 + ^ r4: .cfa -16 + ^
STACK CFI 32650 .cfa: r7 8 +
STACK CFI INIT 32690 40 .cfa: sp 0 +
STACK CFI 32692 .cfa: sp 16 + .ra: .cfa -4 + ^ r7: .cfa -8 + ^ r5: .cfa -12 + ^ r4: .cfa -16 + ^
STACK CFI 32694 .cfa: r7 8 +
STACK CFI INIT 326d0 48 .cfa: sp 0 +
STACK CFI 326d2 .cfa: sp 16 + .ra: .cfa -4 + ^ r7: .cfa -8 + ^ r5: .cfa -12 + ^ r4: .cfa -16 + ^
STACK CFI 326d4 .cfa: r7 8 +
STACK CFI INIT 32718 54 .cfa: sp 0 +
STACK CFI 3271a .cfa: sp 16 + .ra: .cfa -4 + ^ r7: .cfa -8 + ^ r5: .cfa -12 + ^ r4: .cfa -16 + ^
STACK CFI 3271c .cfa: r7 8 +
STACK CFI INIT 3276c 3c .cfa: sp 0 +
STACK CFI 3276e .cfa: sp 16 + .ra: .cfa -4 + ^ r7: .cfa -8 + ^ r6: .cfa -12 + ^ r4: .cfa -16 + ^
STACK CFI 32770 .cfa: r7 8 +
STACK CFI INIT 327a8 30 .cfa: sp 0 +
STACK CFI INIT 327d8 3a .cfa: sp 0 +
STACK CFI 327da .cfa: sp 16 + .ra: .cfa -4 + ^ r7: .cfa -8 + ^ r6: .cfa -12 + ^ r4: .cfa -16 + ^
STACK CFI 327dc .cfa: r7 8 +
STACK CFI INIT 32812 44 .cfa: sp 0 +
STACK CFI 32814 .cfa: sp 16 + .ra: .cfa -4 + ^ r7: .cfa -8 + ^ r5: .cfa -12 + ^ r4: .cfa -16 + ^
STACK CFI 32816 .cfa: r7 8 +
STACK CFI INIT 32858 150 .cfa: sp 0 +
STACK CFI 3285a .cfa: sp 20 + .ra: .cfa -4 + ^ r7: .cfa -8 + ^ r6: .cfa -12 + ^ r5: .cfa -16 + ^ r4: .cfa -20 + ^
STACK CFI 3285c .cfa: r7 8 +
STACK CFI 32860 r11: .cfa -24 + ^
STACK CFI INIT 329a8 18 .cfa: sp 0 +
STACK CFI INIT 329c0 c .cfa: sp 0 +
STACK CFI INIT 329cc 4 .cfa: sp 0 +
STACK CFI INIT 329d0 18 .cfa: sp 0 +
STACK CFI 329d2 .cfa: sp 8 + .ra: .cfa -4 + ^ r7: .cfa -8 + ^
STACK CFI 329d4 .cfa: r7 8 +
STACK CFI INIT 329e8 10 .cfa: sp 0 +
STACK CFI INIT 329f8 2 .cfa: sp 0 +
STACK CFI INIT 329fa 4 .cfa: sp 0 +
STACK CFI INIT 329fe 2 .cfa: sp 0 +
STACK CFI INIT 32a00 18 .cfa: sp 0 +
STACK CFI INIT 32a18 c .cfa: sp 0 +
STACK CFI INIT 32a24 2 .cfa: sp 0 +
STACK CFI INIT 32a26 4 .cfa: sp 0 +
STACK CFI INIT 32a2c 20 .cfa: sp 0 +
STACK CFI 32a2e .cfa: sp 16 + .ra: .cfa -4 + ^ r7: .cfa -8 + ^ r6: .cfa -12 + ^ r4: .cfa -16 + ^
STACK CFI 32a30 .cfa: r7 8 +
STACK CFI INIT 32a4c 14 .cfa: sp 0 +
STACK CFI INIT 32a60 2 .cfa: sp 0 +
STACK CFI INIT 32a62 4 .cfa: sp 0 +
STACK CFI INIT 32a68 1dc .cfa: sp 0 +
STACK CFI 32a6a .cfa: sp 20 + .ra: .cfa -4 + ^ r7: .cfa -8 + ^ r6: .cfa -12 + ^ r5: .cfa -16 + ^ r4: .cfa -20 + ^
STACK CFI 32a6c .cfa: r7 8 +
STACK CFI 32a70 r8: .cfa -24 + ^
STACK CFI INIT 32c44 18 .cfa: sp 0 +
STACK CFI INIT 32c5c c .cfa: sp 0 +
STACK CFI INIT 32c68 16 .cfa: sp 0 +
STACK CFI 32c6a .cfa: sp 16 + .ra: .cfa -4 + ^ r7: .cfa -8 + ^ r6: .cfa -12 + ^ r4: .cfa -16 + ^
STACK CFI 32c6c .cfa: r7 8 +
STACK CFI INIT 32c7e 16 .cfa: sp 0 +
STACK CFI 32c80 .cfa: sp 16 + .ra: .cfa -4 + ^ r7: .cfa -8 + ^ r6: .cfa -12 + ^ r4: .cfa -16 + ^
STACK CFI 32c82 .cfa: r7 8 +
STACK CFI INIT 32c94 24 .cfa: sp 0 +
STACK CFI 32c96 .cfa: sp 16 + .ra: .cfa -4 + ^ r7: .cfa -8 + ^ r6: .cfa -12 + ^ r4: .cfa -16 + ^
STACK CFI 32c98 .cfa: r7 8 +
STACK CFI INIT 32cb8 2c .cfa: sp 0 +
STACK CFI 32cba .cfa: sp 16 + .ra: .cfa -4 + ^ r7: .cfa -8 + ^ r6: .cfa -12 + ^ r4: .cfa -16 + ^
STACK CFI 32cbc .cfa: r7 8 +
STACK CFI INIT 32ce4 38 .cfa: sp 0 +
STACK CFI 32ce6 .cfa: sp 16 + .ra: .cfa -4 + ^ r7: .cfa -8 + ^ r5: .cfa -12 + ^ r4: .cfa -16 + ^
STACK CFI 32ce8 .cfa: r7 8 +
STACK CFI INIT 32d1c 20 .cfa: sp 0 +
STACK CFI INIT 32d3c 16 .cfa: sp 0 +
STACK CFI 32d3e .cfa: sp 8 + .ra: .cfa -4 + ^ r7: .cfa -8 + ^
STACK CFI 32d40 .cfa: r7 8 +
STACK CFI INIT 32d52 1c .cfa: sp 0 +
STACK CFI 32d54 .cfa: sp 16 + .ra: .cfa -4 + ^ r7: .cfa -8 + ^ r6: .cfa -12 + ^ r4: .cfa -16 + ^
STACK CFI 32d56 .cfa: r7 8 +
STACK CFI INIT 32d6e 8 .cfa: sp 0 +
STACK CFI INIT 32d78 18 .cfa: sp 0 +
STACK CFI INIT 32d90 c .cfa: sp 0 +
STACK CFI INIT 32d9c 14 .cfa: sp 0 +
STACK CFI INIT 32db0 18 .cfa: sp 0 +
STACK CFI INIT 32dc8 a0 .cfa: sp 0 +
STACK CFI 32dca .cfa: sp 20 + .ra: .cfa -4 + ^ r7: .cfa -8 + ^ r6: .cfa -12 + ^ r5: .cfa -16 + ^ r4: .cfa -20 + ^
STACK CFI 32dcc .cfa: r7 8 +
STACK CFI 32dd0 r11: .cfa -24 + ^
STACK CFI INIT 32e68 8 .cfa: sp 0 +
STACK CFI INIT 32e70 90 .cfa: sp 0 +
STACK CFI 32e72 .cfa: sp 20 + .ra: .cfa -4 + ^ r7: .cfa -8 + ^ r6: .cfa -12 + ^ r5: .cfa -16 + ^ r4: .cfa -20 + ^
STACK CFI 32e74 .cfa: r7 8 +
STACK CFI 32e78 r8: .cfa -24 + ^
STACK CFI INIT 32f00 8 .cfa: sp 0 +
STACK CFI INIT 32f08 84 .cfa: sp 0 +
STACK CFI 32f0a .cfa: sp 20 + .ra: .cfa -4 + ^ r7: .cfa -8 + ^ r6: .cfa -12 + ^ r5: .cfa -16 + ^ r4: .cfa -20 + ^
STACK CFI 32f0c .cfa: r7 8 +
STACK CFI 32f10 r8: .cfa -24 + ^
STACK CFI INIT 32f8c 88 .cfa: sp 0 +
STACK CFI 32f8e .cfa: sp 20 + .ra: .cfa -4 + ^ r7: .cfa -8 + ^ r6: .cfa -12 + ^ r5: .cfa -16 + ^ r4: .cfa -20 + ^
STACK CFI 32f90 .cfa: r7 8 +
STACK CFI 32f94 r8: .cfa -24 + ^
STACK CFI INIT 33014 12c .cfa: sp 0 +
STACK CFI 33016 .cfa: sp 20 + .ra: .cfa -4 + ^ r7: .cfa -8 + ^ r6: .cfa -12 + ^ r5: .cfa -16 + ^ r4: .cfa -20 + ^
STACK CFI 33018 .cfa: r7 8 +
STACK CFI 3301c r11: .cfa -24 + ^ r9: .cfa -28 + ^ r8: .cfa -32 + ^
STACK CFI INIT 33140 8 .cfa: sp 0 +
STACK CFI INIT 33148 1f8 .cfa: sp 0 +
STACK CFI 3314a .cfa: sp 20 + .ra: .cfa -4 + ^ r7: .cfa -8 + ^ r6: .cfa -12 + ^ r5: .cfa -16 + ^ r4: .cfa -20 + ^
STACK CFI 3314c .cfa: r7 8 +
STACK CFI 33150 r11: .cfa -24 + ^ r10: .cfa -28 + ^ r9: .cfa -32 + ^ r8: .cfa -36 + ^
STACK CFI INIT 33340 e4 .cfa: sp 0 +
STACK CFI 33342 .cfa: sp 20 + .ra: .cfa -4 + ^ r7: .cfa -8 + ^ r6: .cfa -12 + ^ r5: .cfa -16 + ^ r4: .cfa -20 + ^
STACK CFI 33344 .cfa: r7 8 +
STACK CFI 33348 r11: .cfa -24 + ^
STACK CFI INIT 0 3a .cfa: sp 0 +
STACK CFI 2 .cfa: sp 20 + .ra: .cfa -4 + ^ r7: .cfa -8 + ^ r6: .cfa -12 + ^ r5: .cfa -16 + ^ r4: .cfa -20 + ^
STACK CFI 4 .cfa: r7 8 +
STACK CFI 8 r8: .cfa -24 + ^
STACK CFI INIT 33424 c8 .cfa: sp 0 +
STACK CFI 33426 .cfa: sp 20 + .ra: .cfa -4 + ^ r7: .cfa -8 + ^ r6: .cfa -12 + ^ r5: .cfa -16 + ^ r4: .cfa -20 + ^
STACK CFI 33428 .cfa: r7 8 +
STACK CFI 3342c r8: .cfa -24 + ^
STACK CFI INIT 334ec 84 .cfa: sp 0 +
STACK CFI 334ee .cfa: sp 16 + .ra: .cfa -4 + ^ r7: .cfa -8 + ^ r5: .cfa -12 + ^ r4: .cfa -16 + ^
STACK CFI 334f0 .cfa: r7 8 +
STACK CFI INIT 33570 88 .cfa: sp 0 +
STACK CFI 33572 .cfa: sp 16 + .ra: .cfa -4 + ^ r7: .cfa -8 + ^ r5: .cfa -12 + ^ r4: .cfa -16 + ^
STACK CFI 33574 .cfa: r7 8 +
STACK CFI INIT 335f8 88 .cfa: sp 0 +
STACK CFI 335fa .cfa: sp 16 + .ra: .cfa -4 + ^ r7: .cfa -8 + ^ r5: .cfa -12 + ^ r4: .cfa -16 + ^
STACK CFI 335fc .cfa: r7 8 +
STACK CFI INIT 33680 8c .cfa: sp 0 +
STACK CFI 33682 .cfa: sp 16 + .ra: .cfa -4 + ^ r7: .cfa -8 + ^ r5: .cfa -12 + ^ r4: .cfa -16 + ^
STACK CFI 33684 .cfa: r7 8 +
STACK CFI INIT 3370c 4 .cfa: sp 0 +
STACK CFI INIT 33710 28 .cfa: sp 0 +
STACK CFI 33712 .cfa: sp 16 + .ra: .cfa -4 + ^ r7: .cfa -8 + ^ r5: .cfa -12 + ^ r4: .cfa -16 + ^
STACK CFI 33714 .cfa: r7 8 +
STACK CFI INIT 33738 1c .cfa: sp 0 +
STACK CFI INIT 33754 2 .cfa: sp 0 +
STACK CFI INIT 33756 4 .cfa: sp 0 +
STACK CFI INIT 3375a 30 .cfa: sp 0 +
STACK CFI 3375c .cfa: sp 16 + .ra: .cfa -4 + ^ r7: .cfa -8 + ^ r6: .cfa -12 + ^ r4: .cfa -16 + ^
STACK CFI 3375e .cfa: r7 8 +
STACK CFI INIT 3378c 18 .cfa: sp 0 +
STACK CFI INIT 337a4 c .cfa: sp 0 +
STACK CFI INIT 0 20 .cfa: sp 0 +
STACK CFI 2 .cfa: sp 16 + .ra: .cfa -4 + ^ r7: .cfa -8 + ^ r6: .cfa -12 + ^ r4: .cfa -16 + ^
STACK CFI 4 .cfa: r7 8 +
STACK CFI INIT 337b0 20 .cfa: sp 0 +
STACK CFI 337b2 .cfa: sp 16 + .ra: .cfa -4 + ^ r7: .cfa -8 + ^ r6: .cfa -12 + ^ r4: .cfa -16 + ^
STACK CFI 337b4 .cfa: r7 8 +
STACK CFI INIT 337d0 28 .cfa: sp 0 +
STACK CFI 337d2 .cfa: sp 16 + .ra: .cfa -4 + ^ r7: .cfa -8 + ^ r5: .cfa -12 + ^ r4: .cfa -16 + ^
STACK CFI 337d4 .cfa: r7 8 +
STACK CFI INIT 337f8 cc .cfa: sp 0 +
STACK CFI 337fa .cfa: sp 16 + .ra: .cfa -4 + ^ r7: .cfa -8 + ^ r6: .cfa -12 + ^ r4: .cfa -16 + ^
STACK CFI 337fc .cfa: r7 8 +
STACK CFI INIT 338c4 48 .cfa: sp 0 +
STACK CFI 338c6 .cfa: sp 16 + .ra: .cfa -4 + ^ r7: .cfa -8 + ^ r5: .cfa -12 + ^ r4: .cfa -16 + ^
STACK CFI 338c8 .cfa: r7 8 +
STACK CFI INIT 3390c 60 .cfa: sp 0 +
STACK CFI 3390e .cfa: sp 16 + .ra: .cfa -4 + ^ r7: .cfa -8 + ^ r6: .cfa -12 + ^ r4: .cfa -16 + ^
STACK CFI 33910 .cfa: r7 8 +
STACK CFI INIT 3396c 46 .cfa: sp 0 +
STACK CFI 3396e .cfa: sp 16 + .ra: .cfa -4 + ^ r7: .cfa -8 + ^ r5: .cfa -12 + ^ r4: .cfa -16 + ^
STACK CFI 33970 .cfa: r7 8 +
STACK CFI INIT 339b4 1b4 .cfa: sp 0 +
STACK CFI 339b6 .cfa: sp 20 + .ra: .cfa -4 + ^ r7: .cfa -8 + ^ r6: .cfa -12 + ^ r5: .cfa -16 + ^ r4: .cfa -20 + ^
STACK CFI 339b8 .cfa: r7 8 +
STACK CFI 339bc r8: .cfa -24 + ^
STACK CFI INIT 33b68 10 .cfa: sp 0 +
STACK CFI 33b6a .cfa: sp 8 + .ra: .cfa -4 + ^ r7: .cfa -8 + ^
STACK CFI 33b6c .cfa: r7 8 +
STACK CFI INIT 33b78 1c0 .cfa: sp 0 +
STACK CFI 33b7a .cfa: sp 20 + .ra: .cfa -4 + ^ r7: .cfa -8 + ^ r6: .cfa -12 + ^ r5: .cfa -16 + ^ r4: .cfa -20 + ^
STACK CFI 33b7c .cfa: r7 8 +
STACK CFI 33b80 r8: .cfa -24 + ^
STACK CFI INIT 33d38 10 .cfa: sp 0 +
STACK CFI 33d3a .cfa: sp 8 + .ra: .cfa -4 + ^ r7: .cfa -8 + ^
STACK CFI 33d3c .cfa: r7 8 +
STACK CFI INIT 33d48 10 .cfa: sp 0 +
STACK CFI 33d4a .cfa: sp 8 + .ra: .cfa -4 + ^ r7: .cfa -8 + ^
STACK CFI 33d4c .cfa: r7 8 +
STACK CFI INIT 33d58 1b8 .cfa: sp 0 +
STACK CFI 33d5a .cfa: sp 20 + .ra: .cfa -4 + ^ r7: .cfa -8 + ^ r6: .cfa -12 + ^ r5: .cfa -16 + ^ r4: .cfa -20 + ^
STACK CFI 33d5c .cfa: r7 8 +
STACK CFI 33d60 r11: .cfa -24 + ^ r9: .cfa -28 + ^ r8: .cfa -32 + ^
STACK CFI INIT 33f10 228 .cfa: sp 0 +
STACK CFI 33f12 .cfa: sp 20 + .ra: .cfa -4 + ^ r7: .cfa -8 + ^ r6: .cfa -12 + ^ r5: .cfa -16 + ^ r4: .cfa -20 + ^
STACK CFI 33f14 .cfa: r7 8 +
STACK CFI 33f18 r11: .cfa -24 + ^ r10: .cfa -28 + ^ r9: .cfa -32 + ^ r8: .cfa -36 + ^
STACK CFI INIT 34138 10 .cfa: sp 0 +
STACK CFI 3413a .cfa: sp 8 + .ra: .cfa -4 + ^ r7: .cfa -8 + ^
STACK CFI 3413c .cfa: r7 8 +
STACK CFI INIT 34148 1e0 .cfa: sp 0 +
STACK CFI 3414a .cfa: sp 20 + .ra: .cfa -4 + ^ r7: .cfa -8 + ^ r6: .cfa -12 + ^ r5: .cfa -16 + ^ r4: .cfa -20 + ^
STACK CFI 3414c .cfa: r7 8 +
STACK CFI 34150 r8: .cfa -24 + ^
STACK CFI INIT 34328 8 .cfa: sp 0 +
STACK CFI INIT 34330 10 .cfa: sp 0 +
STACK CFI 34332 .cfa: sp 8 + .ra: .cfa -4 + ^ r7: .cfa -8 + ^
STACK CFI 34334 .cfa: r7 8 +
STACK CFI INIT 34340 14 .cfa: sp 0 +
STACK CFI 34342 .cfa: sp 8 + .ra: .cfa -4 + ^ r7: .cfa -8 + ^
STACK CFI 34344 .cfa: r7 8 +
STACK CFI INIT 34354 27c .cfa: sp 0 +
STACK CFI 34356 .cfa: sp 20 + .ra: .cfa -4 + ^ r7: .cfa -8 + ^ r6: .cfa -12 + ^ r5: .cfa -16 + ^ r4: .cfa -20 + ^
STACK CFI 34358 .cfa: r7 8 +
STACK CFI 3435c r11: .cfa -24 + ^ r10: .cfa -28 + ^ r9: .cfa -32 + ^ r8: .cfa -36 + ^
STACK CFI INIT 345d0 8 .cfa: sp 0 +
STACK CFI INIT 345d8 10 .cfa: sp 0 +
STACK CFI 345da .cfa: sp 8 + .ra: .cfa -4 + ^ r7: .cfa -8 + ^
STACK CFI 345dc .cfa: r7 8 +
STACK CFI INIT 345e8 14 .cfa: sp 0 +
STACK CFI 345ea .cfa: sp 8 + .ra: .cfa -4 + ^ r7: .cfa -8 + ^
STACK CFI 345ec .cfa: r7 8 +
STACK CFI INIT 345fc 1f0 .cfa: sp 0 +
STACK CFI 345fe .cfa: sp 20 + .ra: .cfa -4 + ^ r7: .cfa -8 + ^ r6: .cfa -12 + ^ r5: .cfa -16 + ^ r4: .cfa -20 + ^
STACK CFI 34600 .cfa: r7 8 +
STACK CFI 34604 r8: .cfa -24 + ^
STACK CFI INIT 347ec 8 .cfa: sp 0 +
STACK CFI INIT 347f4 10 .cfa: sp 0 +
STACK CFI 347f6 .cfa: sp 8 + .ra: .cfa -4 + ^ r7: .cfa -8 + ^
STACK CFI 347f8 .cfa: r7 8 +
STACK CFI INIT 34804 14 .cfa: sp 0 +
STACK CFI 34806 .cfa: sp 8 + .ra: .cfa -4 + ^ r7: .cfa -8 + ^
STACK CFI 34808 .cfa: r7 8 +
STACK CFI INIT 34818 238 .cfa: sp 0 +
STACK CFI 3481a .cfa: sp 20 + .ra: .cfa -4 + ^ r7: .cfa -8 + ^ r6: .cfa -12 + ^ r5: .cfa -16 + ^ r4: .cfa -20 + ^
STACK CFI 3481c .cfa: r7 8 +
STACK CFI 34820 r11: .cfa -24 + ^ r10: .cfa -28 + ^ r9: .cfa -32 + ^ r8: .cfa -36 + ^
STACK CFI INIT 34a50 10 .cfa: sp 0 +
STACK CFI 34a52 .cfa: sp 8 + .ra: .cfa -4 + ^ r7: .cfa -8 + ^
STACK CFI 34a54 .cfa: r7 8 +
STACK CFI INIT 34a60 1c4 .cfa: sp 0 +
STACK CFI 34a62 .cfa: sp 20 + .ra: .cfa -4 + ^ r7: .cfa -8 + ^ r6: .cfa -12 + ^ r5: .cfa -16 + ^ r4: .cfa -20 + ^
STACK CFI 34a64 .cfa: r7 8 +
STACK CFI 34a68 r8: .cfa -24 + ^
STACK CFI INIT 34c24 1b8 .cfa: sp 0 +
STACK CFI 34c26 .cfa: sp 20 + .ra: .cfa -4 + ^ r7: .cfa -8 + ^ r6: .cfa -12 + ^ r5: .cfa -16 + ^ r4: .cfa -20 + ^
STACK CFI 34c28 .cfa: r7 8 +
STACK CFI 34c2c r8: .cfa -24 + ^
STACK CFI INIT 34ddc 228 .cfa: sp 0 +
STACK CFI 34dde .cfa: sp 20 + .ra: .cfa -4 + ^ r7: .cfa -8 + ^ r6: .cfa -12 + ^ r5: .cfa -16 + ^ r4: .cfa -20 + ^
STACK CFI 34de0 .cfa: r7 8 +
STACK CFI 34de4 r11: .cfa -24 + ^ r10: .cfa -28 + ^ r9: .cfa -32 + ^ r8: .cfa -36 + ^
STACK CFI INIT 35004 10 .cfa: sp 0 +
STACK CFI 35006 .cfa: sp 8 + .ra: .cfa -4 + ^ r7: .cfa -8 + ^
STACK CFI 35008 .cfa: r7 8 +
STACK CFI INIT 35014 108 .cfa: sp 0 +
STACK CFI 35016 .cfa: sp 20 + .ra: .cfa -4 + ^ r7: .cfa -8 + ^ r6: .cfa -12 + ^ r5: .cfa -16 + ^ r4: .cfa -20 + ^
STACK CFI 35018 .cfa: r7 8 +
STACK CFI 3501c r11: .cfa -24 + ^ r10: .cfa -28 + ^ r9: .cfa -32 + ^ r8: .cfa -36 + ^
STACK CFI INIT 35120 b0 .cfa: sp 0 +
STACK CFI 35122 .cfa: sp 20 + .ra: .cfa -4 + ^ r7: .cfa -8 + ^ r6: .cfa -12 + ^ r5: .cfa -16 + ^ r4: .cfa -20 + ^
STACK CFI 35124 .cfa: r7 8 +
STACK CFI 35128 r11: .cfa -24 + ^ r9: .cfa -28 + ^ r8: .cfa -32 + ^
STACK CFI INIT 351d0 ec .cfa: sp 0 +
STACK CFI 351d2 .cfa: sp 20 + .ra: .cfa -4 + ^ r7: .cfa -8 + ^ r6: .cfa -12 + ^ r5: .cfa -16 + ^ r4: .cfa -20 + ^
STACK CFI 351d4 .cfa: r7 8 +
STACK CFI 351d8 r10: .cfa -24 + ^ r9: .cfa -28 + ^ r8: .cfa -32 + ^
STACK CFI INIT 352c0 b0 .cfa: sp 0 +
STACK CFI 352c2 .cfa: sp 20 + .ra: .cfa -4 + ^ r7: .cfa -8 + ^ r6: .cfa -12 + ^ r5: .cfa -16 + ^ r4: .cfa -20 + ^
STACK CFI 352c4 .cfa: r7 8 +
STACK CFI 352c8 r8: .cfa -24 + ^
STACK CFI INIT 35370 e4 .cfa: sp 0 +
STACK CFI 35372 .cfa: sp 20 + .ra: .cfa -4 + ^ r7: .cfa -8 + ^ r6: .cfa -12 + ^ r5: .cfa -16 + ^ r4: .cfa -20 + ^
STACK CFI 35374 .cfa: r7 8 +
STACK CFI 35378 r11: .cfa -24 + ^ r9: .cfa -28 + ^ r8: .cfa -32 + ^
STACK CFI INIT 35460 70 .cfa: sp 0 +
STACK CFI 35462 .cfa: sp 20 + .ra: .cfa -4 + ^ r7: .cfa -8 + ^ r6: .cfa -12 + ^ r5: .cfa -16 + ^ r4: .cfa -20 + ^
STACK CFI 35464 .cfa: r7 8 +
STACK CFI 35468 r8: .cfa -24 + ^
STACK CFI INIT 354d0 1e0 .cfa: sp 0 +
STACK CFI 354d2 .cfa: sp 20 + .ra: .cfa -4 + ^ r7: .cfa -8 + ^ r6: .cfa -12 + ^ r5: .cfa -16 + ^ r4: .cfa -20 + ^
STACK CFI 354d4 .cfa: r7 8 +
STACK CFI 354d8 r8: .cfa -24 + ^
STACK CFI INIT 356b0 278 .cfa: sp 0 +
STACK CFI 356b2 .cfa: sp 20 + .ra: .cfa -4 + ^ r7: .cfa -8 + ^ r6: .cfa -12 + ^ r5: .cfa -16 + ^ r4: .cfa -20 + ^
STACK CFI 356b4 .cfa: r7 8 +
STACK CFI 356b8 r11: .cfa -24 + ^ r10: .cfa -28 + ^ r9: .cfa -32 + ^ r8: .cfa -36 + ^
STACK CFI INIT 35928 10 .cfa: sp 0 +
STACK CFI 3592a .cfa: sp 8 + .ra: .cfa -4 + ^ r7: .cfa -8 + ^
STACK CFI 3592c .cfa: r7 8 +
STACK CFI INIT 0 74 .cfa: sp 0 +
STACK CFI 2 .cfa: sp 16 + .ra: .cfa -4 + ^ r7: .cfa -8 + ^ r5: .cfa -12 + ^ r4: .cfa -16 + ^
STACK CFI 4 .cfa: r7 8 +
STACK CFI INIT 35938 8 .cfa: sp 0 +
STACK CFI INIT 35940 10 .cfa: sp 0 +
STACK CFI 35942 .cfa: sp 8 + .ra: .cfa -4 + ^ r7: .cfa -8 + ^
STACK CFI 35944 .cfa: r7 8 +
STACK CFI INIT 35950 14 .cfa: sp 0 +
STACK CFI 35952 .cfa: sp 8 + .ra: .cfa -4 + ^ r7: .cfa -8 + ^
STACK CFI 35954 .cfa: r7 8 +
STACK CFI INIT 35964 258 .cfa: sp 0 +
STACK CFI 35966 .cfa: sp 20 + .ra: .cfa -4 + ^ r7: .cfa -8 + ^ r6: .cfa -12 + ^ r5: .cfa -16 + ^ r4: .cfa -20 + ^
STACK CFI 35968 .cfa: r7 8 +
STACK CFI 3596c r11: .cfa -24 + ^ r10: .cfa -28 + ^ r9: .cfa -32 + ^ r8: .cfa -36 + ^
STACK CFI INIT 0 18 .cfa: sp 0 +
STACK CFI 2 .cfa: sp 8 + .ra: .cfa -4 + ^ r7: .cfa -8 + ^
STACK CFI 4 .cfa: r7 8 +
STACK CFI INIT 35bbc 1e4 .cfa: sp 0 +
STACK CFI 35bbe .cfa: sp 20 + .ra: .cfa -4 + ^ r7: .cfa -8 + ^ r6: .cfa -12 + ^ r5: .cfa -16 + ^ r4: .cfa -20 + ^
STACK CFI 35bc0 .cfa: r7 8 +
STACK CFI 35bc4 r11: .cfa -24 + ^ r9: .cfa -28 + ^ r8: .cfa -32 + ^
STACK CFI INIT 35da0 70 .cfa: sp 0 +
STACK CFI 35da2 .cfa: sp 20 + .ra: .cfa -4 + ^ r7: .cfa -8 + ^ r6: .cfa -12 + ^ r5: .cfa -16 + ^ r4: .cfa -20 + ^
STACK CFI 35da4 .cfa: r7 8 +
STACK CFI 35da8 r11: .cfa -24 + ^
STACK CFI INIT 35e10 2 .cfa: sp 0 +
STACK CFI INIT 35e12 2 .cfa: sp 0 +
STACK CFI INIT 35e14 2 .cfa: sp 0 +
STACK CFI INIT 35e16 2 .cfa: sp 0 +
STACK CFI INIT 35e18 2 .cfa: sp 0 +
STACK CFI INIT 35e1a 2 .cfa: sp 0 +
STACK CFI INIT 0 6 .cfa: sp 0 +
STACK CFI INIT 35e1c f8 .cfa: sp 0 +
STACK CFI 35e1e .cfa: sp 20 + .ra: .cfa -4 + ^ r7: .cfa -8 + ^ r6: .cfa -12 + ^ r5: .cfa -16 + ^ r4: .cfa -20 + ^
STACK CFI 35e20 .cfa: r7 8 +
STACK CFI 35e24 r11: .cfa -24 + ^ r9: .cfa -28 + ^ r8: .cfa -32 + ^
STACK CFI INIT 35f20 70 .cfa: sp 0 +
STACK CFI 35f22 .cfa: sp 20 + .ra: .cfa -4 + ^ r7: .cfa -8 + ^ r6: .cfa -12 + ^ r5: .cfa -16 + ^ r4: .cfa -20 + ^
STACK CFI 35f24 .cfa: r7 8 +
STACK CFI 35f28 r11: .cfa -24 + ^
STACK CFI INIT 0 e .cfa: sp 0 +
STACK CFI INIT 0 e .cfa: sp 0 +
STACK CFI INIT 0 e .cfa: sp 0 +
STACK CFI INIT 0 6 .cfa: sp 0 +
STACK CFI INIT 0 e .cfa: sp 0 +
STACK CFI INIT 0 4 .cfa: sp 0 +
STACK CFI INIT 0 e .cfa: sp 0 +
STACK CFI 2 .cfa: sp 8 + .ra: .cfa -4 + ^ r7: .cfa -8 + ^
STACK CFI 4 .cfa: r7 8 +
STACK CFI INIT 0 14 .cfa: sp 0 +
STACK CFI INIT 0 1c .cfa: sp 0 +
STACK CFI 2 .cfa: sp 16 + .ra: .cfa -4 + ^ r7: .cfa -8 + ^ r6: .cfa -12 + ^ r4: .cfa -16 + ^
STACK CFI 4 .cfa: r7 8 +
STACK CFI INIT 0 a .cfa: sp 0 +
STACK CFI INIT 0 10 .cfa: sp 0 +
STACK CFI INIT 0 c .cfa: sp 0 +
STACK CFI INIT 35f90 2 .cfa: sp 0 +
STACK CFI INIT 35f92 4 .cfa: sp 0 +
STACK CFI INIT 35f96 2 .cfa: sp 0 +
STACK CFI INIT 35f98 4 .cfa: sp 0 +
STACK CFI INIT 35f9c 294 .cfa: sp 0 +
STACK CFI 35f9e .cfa: sp 20 + .ra: .cfa -4 + ^ r7: .cfa -8 + ^ r6: .cfa -12 + ^ r5: .cfa -16 + ^ r4: .cfa -20 + ^
STACK CFI 35fa0 .cfa: r7 8 +
STACK CFI 35fa4 r11: .cfa -24 + ^ r10: .cfa -28 + ^ r9: .cfa -32 + ^ r8: .cfa -36 + ^
STACK CFI INIT 36230 294 .cfa: sp 0 +
STACK CFI 36232 .cfa: sp 20 + .ra: .cfa -4 + ^ r7: .cfa -8 + ^ r6: .cfa -12 + ^ r5: .cfa -16 + ^ r4: .cfa -20 + ^
STACK CFI 36234 .cfa: r7 8 +
STACK CFI 36238 r11: .cfa -24 + ^ r10: .cfa -28 + ^ r9: .cfa -32 + ^ r8: .cfa -36 + ^
STACK CFI INIT 364c4 22c .cfa: sp 0 +
STACK CFI 364c6 .cfa: sp 20 + .ra: .cfa -4 + ^ r7: .cfa -8 + ^ r6: .cfa -12 + ^ r5: .cfa -16 + ^ r4: .cfa -20 + ^
STACK CFI 364c8 .cfa: r7 8 +
STACK CFI 364cc r11: .cfa -24 + ^ r10: .cfa -28 + ^ r9: .cfa -32 + ^ r8: .cfa -36 + ^
STACK CFI INIT 366f0 274 .cfa: sp 0 +
STACK CFI 366f2 .cfa: sp 20 + .ra: .cfa -4 + ^ r7: .cfa -8 + ^ r6: .cfa -12 + ^ r5: .cfa -16 + ^ r4: .cfa -20 + ^
STACK CFI 366f4 .cfa: r7 8 +
STACK CFI 366f8 r11: .cfa -24 + ^ r10: .cfa -28 + ^ r9: .cfa -32 + ^ r8: .cfa -36 + ^
STACK CFI INIT 36964 42c .cfa: sp 0 +
STACK CFI 36966 .cfa: sp 20 + .ra: .cfa -4 + ^ r7: .cfa -8 + ^ r6: .cfa -12 + ^ r5: .cfa -16 + ^ r4: .cfa -20 + ^
STACK CFI 36968 .cfa: r7 8 +
STACK CFI 3696c r11: .cfa -24 + ^ r10: .cfa -28 + ^ r9: .cfa -32 + ^ r8: .cfa -36 + ^
STACK CFI INIT 36d90 f8 .cfa: sp 0 +
STACK CFI 36d92 .cfa: sp 20 + .ra: .cfa -4 + ^ r7: .cfa -8 + ^ r6: .cfa -12 + ^ r5: .cfa -16 + ^ r4: .cfa -20 + ^
STACK CFI 36d94 .cfa: r7 8 +
STACK CFI 36d98 r8: .cfa -24 + ^
STACK CFI INIT 36e88 2 .cfa: sp 0 +
STACK CFI INIT 36e8a e .cfa: sp 0 +
STACK CFI INIT 36e98 3ea .cfa: sp 0 +
STACK CFI 36e9a .cfa: sp 20 + .ra: .cfa -4 + ^ r7: .cfa -8 + ^ r6: .cfa -12 + ^ r5: .cfa -16 + ^ r4: .cfa -20 + ^
STACK CFI 36e9c .cfa: r7 8 +
STACK CFI 36ea0 r11: .cfa -24 + ^ r10: .cfa -28 + ^ r9: .cfa -32 + ^ r8: .cfa -36 + ^
STACK CFI INIT 37284 1cc .cfa: sp 0 +
STACK CFI 37286 .cfa: sp 20 + .ra: .cfa -4 + ^ r7: .cfa -8 + ^ r6: .cfa -12 + ^ r5: .cfa -16 + ^ r4: .cfa -20 + ^
STACK CFI 37288 .cfa: r7 8 +
STACK CFI 3728c r11: .cfa -24 + ^ r10: .cfa -28 + ^ r9: .cfa -32 + ^ r8: .cfa -36 + ^
STACK CFI INIT 37450 44 .cfa: sp 0 +
STACK CFI 37452 .cfa: sp 16 + .ra: .cfa -4 + ^ r7: .cfa -8 + ^ r6: .cfa -12 + ^ r4: .cfa -16 + ^
STACK CFI 37454 .cfa: r7 8 +
STACK CFI INIT 37494 38 .cfa: sp 0 +
STACK CFI 37496 .cfa: sp 16 + .ra: .cfa -4 + ^ r7: .cfa -8 + ^ r5: .cfa -12 + ^ r4: .cfa -16 + ^
STACK CFI 37498 .cfa: r7 8 +
STACK CFI INIT 374cc 18 .cfa: sp 0 +
STACK CFI 374ce .cfa: sp 8 + .ra: .cfa -4 + ^ r7: .cfa -8 + ^
STACK CFI 374d0 .cfa: r7 8 +
STACK CFI INIT 374e4 420 .cfa: sp 0 +
STACK CFI 374e6 .cfa: sp 20 + .ra: .cfa -4 + ^ r7: .cfa -8 + ^ r6: .cfa -12 + ^ r5: .cfa -16 + ^ r4: .cfa -20 + ^
STACK CFI 374e8 .cfa: r7 8 +
STACK CFI 374ec r11: .cfa -24 + ^ r10: .cfa -28 + ^ r9: .cfa -32 + ^ r8: .cfa -36 + ^
STACK CFI INIT 37904 30 .cfa: sp 0 +
STACK CFI 37906 .cfa: sp 16 + .ra: .cfa -4 + ^ r7: .cfa -8 + ^ r6: .cfa -12 + ^ r4: .cfa -16 + ^
STACK CFI 37908 .cfa: r7 8 +
STACK CFI INIT 37934 c0 .cfa: sp 0 +
STACK CFI 37936 .cfa: sp 20 + .ra: .cfa -4 + ^ r7: .cfa -8 + ^ r6: .cfa -12 + ^ r5: .cfa -16 + ^ r4: .cfa -20 + ^
STACK CFI 37938 .cfa: r7 8 +
STACK CFI 3793c r11: .cfa -24 + ^ r9: .cfa -28 + ^ r8: .cfa -32 + ^
STACK CFI INIT 379f4 1ac .cfa: sp 0 +
STACK CFI 379f6 .cfa: sp 20 + .ra: .cfa -4 + ^ r7: .cfa -8 + ^ r6: .cfa -12 + ^ r5: .cfa -16 + ^ r4: .cfa -20 + ^
STACK CFI 379f8 .cfa: r7 8 +
STACK CFI 379fc r11: .cfa -24 + ^ r10: .cfa -28 + ^ r9: .cfa -32 + ^ r8: .cfa -36 + ^
STACK CFI INIT 37ba0 278 .cfa: sp 0 +
STACK CFI 37ba2 .cfa: sp 20 + .ra: .cfa -4 + ^ r7: .cfa -8 + ^ r6: .cfa -12 + ^ r5: .cfa -16 + ^ r4: .cfa -20 + ^
STACK CFI 37ba4 .cfa: r7 8 +
STACK CFI 37ba8 r10: .cfa -24 + ^ r9: .cfa -28 + ^ r8: .cfa -32 + ^
STACK CFI INIT 37e20 228 .cfa: sp 0 +
STACK CFI 37e22 .cfa: sp 20 + .ra: .cfa -4 + ^ r7: .cfa -8 + ^ r6: .cfa -12 + ^ r5: .cfa -16 + ^ r4: .cfa -20 + ^
STACK CFI 37e24 .cfa: r7 8 +
STACK CFI 37e28 r11: .cfa -24 + ^
STACK CFI INIT 38048 384 .cfa: sp 0 +
STACK CFI 3804a .cfa: sp 20 + .ra: .cfa -4 + ^ r7: .cfa -8 + ^ r6: .cfa -12 + ^ r5: .cfa -16 + ^ r4: .cfa -20 + ^
STACK CFI 3804c .cfa: r7 8 +
STACK CFI 38050 r11: .cfa -24 + ^ r10: .cfa -28 + ^ r9: .cfa -32 + ^ r8: .cfa -36 + ^
STACK CFI INIT 383cc 880 .cfa: sp 0 +
STACK CFI 383ce .cfa: sp 20 + .ra: .cfa -4 + ^ r7: .cfa -8 + ^ r6: .cfa -12 + ^ r5: .cfa -16 + ^ r4: .cfa -20 + ^
STACK CFI 383d0 .cfa: r7 8 +
STACK CFI 383d4 r11: .cfa -24 + ^ r10: .cfa -28 + ^ r9: .cfa -32 + ^ r8: .cfa -36 + ^
STACK CFI INIT 38c4c 4c .cfa: sp 0 +
STACK CFI 38c4e .cfa: sp 20 + .ra: .cfa -4 + ^ r7: .cfa -8 + ^ r6: .cfa -12 + ^ r5: .cfa -16 + ^ r4: .cfa -20 + ^
STACK CFI 38c50 .cfa: r7 8 +
STACK CFI 38c54 r8: .cfa -24 + ^
STACK CFI INIT 38c98 48 .cfa: sp 0 +
STACK CFI 38c9a .cfa: sp 16 + .ra: .cfa -4 + ^ r7: .cfa -8 + ^ r6: .cfa -12 + ^ r4: .cfa -16 + ^
STACK CFI 38c9c .cfa: r7 8 +
STACK CFI INIT 38ce0 10 .cfa: sp 0 +
STACK CFI 38ce2 .cfa: sp 8 + .ra: .cfa -4 + ^ r7: .cfa -8 + ^
STACK CFI 38ce4 .cfa: r7 8 +
STACK CFI INIT 38cf0 9a .cfa: sp 0 +
STACK CFI 38cf2 .cfa: sp 20 + .ra: .cfa -4 + ^ r7: .cfa -8 + ^ r6: .cfa -12 + ^ r5: .cfa -16 + ^ r4: .cfa -20 + ^
STACK CFI 38cf4 .cfa: r7 8 +
STACK CFI 38cf8 r11: .cfa -24 + ^ r9: .cfa -28 + ^ r8: .cfa -32 + ^
STACK CFI INIT 38d8c 54 .cfa: sp 0 +
STACK CFI 38d8e .cfa: sp 8 + .ra: .cfa -4 + ^ r7: .cfa -8 + ^
STACK CFI 38d90 .cfa: r7 8 +
STACK CFI INIT 38de0 34 .cfa: sp 0 +
STACK CFI 38de2 .cfa: sp 16 + .ra: .cfa -4 + ^ r7: .cfa -8 + ^ r5: .cfa -12 + ^ r4: .cfa -16 + ^
STACK CFI 38de4 .cfa: r7 8 +
STACK CFI INIT 38e14 2c .cfa: sp 0 +
STACK CFI 38e16 .cfa: sp 16 + .ra: .cfa -4 + ^ r7: .cfa -8 + ^ r5: .cfa -12 + ^ r4: .cfa -16 + ^
STACK CFI 38e18 .cfa: r7 8 +
STACK CFI INIT 38e40 74 .cfa: sp 0 +
STACK CFI 38e42 .cfa: sp 8 + .ra: .cfa -4 + ^ r7: .cfa -8 + ^
STACK CFI 38e44 .cfa: r7 8 +
STACK CFI INIT 38eb4 1b0 .cfa: sp 0 +
STACK CFI 38eb6 .cfa: sp 20 + .ra: .cfa -4 + ^ r7: .cfa -8 + ^ r6: .cfa -12 + ^ r5: .cfa -16 + ^ r4: .cfa -20 + ^
STACK CFI 38eb8 .cfa: r7 8 +
STACK CFI 38ebc r10: .cfa -24 + ^ r9: .cfa -28 + ^ r8: .cfa -32 + ^
STACK CFI INIT 39064 9a .cfa: sp 0 +
STACK CFI 39066 .cfa: sp 20 + .ra: .cfa -4 + ^ r7: .cfa -8 + ^ r6: .cfa -12 + ^ r5: .cfa -16 + ^ r4: .cfa -20 + ^
STACK CFI 39068 .cfa: r7 8 +
STACK CFI 3906c r11: .cfa -24 + ^ r9: .cfa -28 + ^ r8: .cfa -32 + ^
STACK CFI INIT 39100 174 .cfa: sp 0 +
STACK CFI 39102 .cfa: sp 20 + .ra: .cfa -4 + ^ r7: .cfa -8 + ^ r6: .cfa -12 + ^ r5: .cfa -16 + ^ r4: .cfa -20 + ^
STACK CFI 39104 .cfa: r7 8 +
STACK CFI 39108 r10: .cfa -24 + ^ r9: .cfa -28 + ^ r8: .cfa -32 + ^
STACK CFI INIT 39274 218 .cfa: sp 0 +
STACK CFI 39276 .cfa: sp 20 + .ra: .cfa -4 + ^ r7: .cfa -8 + ^ r6: .cfa -12 + ^ r5: .cfa -16 + ^ r4: .cfa -20 + ^
STACK CFI 39278 .cfa: r7 8 +
STACK CFI 3927c r11: .cfa -24 + ^ r10: .cfa -28 + ^ r9: .cfa -32 + ^ r8: .cfa -36 + ^
STACK CFI INIT 3948c 1dc .cfa: sp 0 +
STACK CFI 3948e .cfa: sp 20 + .ra: .cfa -4 + ^ r7: .cfa -8 + ^ r6: .cfa -12 + ^ r5: .cfa -16 + ^ r4: .cfa -20 + ^
STACK CFI 39490 .cfa: r7 8 +
STACK CFI 39494 r11: .cfa -24 + ^ r10: .cfa -28 + ^ r9: .cfa -32 + ^ r8: .cfa -36 + ^
STACK CFI INIT 39668 188 .cfa: sp 0 +
STACK CFI 3966a .cfa: sp 20 + .ra: .cfa -4 + ^ r7: .cfa -8 + ^ r6: .cfa -12 + ^ r5: .cfa -16 + ^ r4: .cfa -20 + ^
STACK CFI 3966c .cfa: r7 8 +
STACK CFI 39670 r11: .cfa -24 + ^ r10: .cfa -28 + ^ r9: .cfa -32 + ^ r8: .cfa -36 + ^
STACK CFI INIT 397f0 9f8 .cfa: sp 0 +
STACK CFI 397f2 .cfa: sp 20 + .ra: .cfa -4 + ^ r7: .cfa -8 + ^ r6: .cfa -12 + ^ r5: .cfa -16 + ^ r4: .cfa -20 + ^
STACK CFI 397f4 .cfa: r7 8 +
STACK CFI 397f8 r11: .cfa -24 + ^ r10: .cfa -28 + ^ r9: .cfa -32 + ^ r8: .cfa -36 + ^
STACK CFI INIT 3a1e8 184 .cfa: sp 0 +
STACK CFI 3a1ea .cfa: sp 20 + .ra: .cfa -4 + ^ r7: .cfa -8 + ^ r6: .cfa -12 + ^ r5: .cfa -16 + ^ r4: .cfa -20 + ^
STACK CFI 3a1ec .cfa: r7 8 +
STACK CFI 3a1f0 r11: .cfa -24 + ^ r10: .cfa -28 + ^ r9: .cfa -32 + ^ r8: .cfa -36 + ^
STACK CFI INIT 3a370 73c .cfa: sp 0 +
STACK CFI 3a372 .cfa: sp 20 + .ra: .cfa -4 + ^ r7: .cfa -8 + ^ r6: .cfa -12 + ^ r5: .cfa -16 + ^ r4: .cfa -20 + ^
STACK CFI 3a374 .cfa: r7 8 +
STACK CFI 3a378 r11: .cfa -24 + ^ r10: .cfa -28 + ^ r9: .cfa -32 + ^ r8: .cfa -36 + ^
STACK CFI INIT 3aaac 140 .cfa: sp 0 +
STACK CFI 3aaae .cfa: sp 20 + .ra: .cfa -4 + ^ r7: .cfa -8 + ^ r6: .cfa -12 + ^ r5: .cfa -16 + ^ r4: .cfa -20 + ^
STACK CFI 3aab0 .cfa: r7 8 +
STACK CFI 3aab4 r11: .cfa -24 + ^ r10: .cfa -28 + ^ r9: .cfa -32 + ^ r8: .cfa -36 + ^
STACK CFI INIT 3abec e0 .cfa: sp 0 +
STACK CFI 3abee .cfa: sp 20 + .ra: .cfa -4 + ^ r7: .cfa -8 + ^ r6: .cfa -12 + ^ r5: .cfa -16 + ^ r4: .cfa -20 + ^
STACK CFI 3abf0 .cfa: r7 8 +
STACK CFI 3abf4 r8: .cfa -24 + ^
STACK CFI INIT 3accc 194 .cfa: sp 0 +
STACK CFI 3acce .cfa: sp 20 + .ra: .cfa -4 + ^ r7: .cfa -8 + ^ r6: .cfa -12 + ^ r5: .cfa -16 + ^ r4: .cfa -20 + ^
STACK CFI 3acd0 .cfa: r7 8 +
STACK CFI 3acd4 r8: .cfa -24 + ^
STACK CFI INIT 3ae60 22 .cfa: sp 0 +
STACK CFI 3ae62 .cfa: sp 16 + .ra: .cfa -4 + ^ r7: .cfa -8 + ^ r6: .cfa -12 + ^ r4: .cfa -16 + ^
STACK CFI 3ae64 .cfa: r7 8 +
STACK CFI INIT 3ae84 104 .cfa: sp 0 +
STACK CFI 3ae86 .cfa: sp 20 + .ra: .cfa -4 + ^ r7: .cfa -8 + ^ r6: .cfa -12 + ^ r5: .cfa -16 + ^ r4: .cfa -20 + ^
STACK CFI 3ae88 .cfa: r7 8 +
STACK CFI 3ae8c r10: .cfa -24 + ^ r9: .cfa -28 + ^ r8: .cfa -32 + ^
STACK CFI INIT 3af88 144 .cfa: sp 0 +
STACK CFI 3af8a .cfa: sp 20 + .ra: .cfa -4 + ^ r7: .cfa -8 + ^ r6: .cfa -12 + ^ r5: .cfa -16 + ^ r4: .cfa -20 + ^
STACK CFI 3af8c .cfa: r7 8 +
STACK CFI 3af90 r11: .cfa -24 + ^ r9: .cfa -28 + ^ r8: .cfa -32 + ^
STACK CFI INIT 3b0cc 21c .cfa: sp 0 +
STACK CFI 3b0ce .cfa: sp 20 + .ra: .cfa -4 + ^ r7: .cfa -8 + ^ r6: .cfa -12 + ^ r5: .cfa -16 + ^ r4: .cfa -20 + ^
STACK CFI 3b0d0 .cfa: r7 8 +
STACK CFI 3b0d4 r11: .cfa -24 + ^ r10: .cfa -28 + ^ r9: .cfa -32 + ^ r8: .cfa -36 + ^
STACK CFI INIT 3b2e8 6e .cfa: sp 0 +
STACK CFI 3b2ea .cfa: sp 20 + .ra: .cfa -4 + ^ r7: .cfa -8 + ^ r6: .cfa -12 + ^ r5: .cfa -16 + ^ r4: .cfa -20 + ^
STACK CFI 3b2ec .cfa: r7 8 +
STACK CFI 3b2f0 r8: .cfa -24 + ^
STACK CFI INIT 3b360 e4 .cfa: sp 0 +
STACK CFI 3b362 .cfa: sp 20 + .ra: .cfa -4 + ^ r7: .cfa -8 + ^ r6: .cfa -12 + ^ r5: .cfa -16 + ^ r4: .cfa -20 + ^
STACK CFI 3b364 .cfa: r7 8 +
STACK CFI 3b368 r11: .cfa -24 + ^
STACK CFI INIT 3b444 9ac .cfa: sp 0 +
STACK CFI 3b446 .cfa: sp 20 + .ra: .cfa -4 + ^ r7: .cfa -8 + ^ r6: .cfa -12 + ^ r5: .cfa -16 + ^ r4: .cfa -20 + ^
STACK CFI 3b448 .cfa: r7 8 +
STACK CFI 3b44c r11: .cfa -24 + ^ r10: .cfa -28 + ^ r9: .cfa -32 + ^ r8: .cfa -36 + ^
STACK CFI INIT 3bdf0 e8 .cfa: sp 0 +
STACK CFI 3bdf2 .cfa: sp 20 + .ra: .cfa -4 + ^ r7: .cfa -8 + ^ r6: .cfa -12 + ^ r5: .cfa -16 + ^ r4: .cfa -20 + ^
STACK CFI 3bdf4 .cfa: r7 8 +
STACK CFI 3bdf8 r8: .cfa -24 + ^
STACK CFI INIT 3bed8 19c .cfa: sp 0 +
STACK CFI 3beda .cfa: sp 20 + .ra: .cfa -4 + ^ r7: .cfa -8 + ^ r6: .cfa -12 + ^ r5: .cfa -16 + ^ r4: .cfa -20 + ^
STACK CFI 3bedc .cfa: r7 8 +
STACK CFI 3bee0 r11: .cfa -24 + ^ r10: .cfa -28 + ^ r9: .cfa -32 + ^ r8: .cfa -36 + ^
STACK CFI INIT 3c080 e4 .cfa: sp 0 +
STACK CFI 3c082 .cfa: sp 20 + .ra: .cfa -4 + ^ r7: .cfa -8 + ^ r6: .cfa -12 + ^ r5: .cfa -16 + ^ r4: .cfa -20 + ^
STACK CFI 3c084 .cfa: r7 8 +
STACK CFI 3c088 r11: .cfa -24 + ^
STACK CFI INIT 3c164 150 .cfa: sp 0 +
STACK CFI 3c166 .cfa: sp 20 + .ra: .cfa -4 + ^ r7: .cfa -8 + ^ r6: .cfa -12 + ^ r5: .cfa -16 + ^ r4: .cfa -20 + ^
STACK CFI 3c168 .cfa: r7 8 +
STACK CFI 3c16c r11: .cfa -24 + ^ r10: .cfa -28 + ^ r9: .cfa -32 + ^ r8: .cfa -36 + ^
STACK CFI INIT 3c2b8 1064 .cfa: sp 0 +
STACK CFI 3c2ba .cfa: sp 20 + .ra: .cfa -4 + ^ r7: .cfa -8 + ^ r6: .cfa -12 + ^ r5: .cfa -16 + ^ r4: .cfa -20 + ^
STACK CFI 3c2bc .cfa: r7 8 +
STACK CFI 3c2c0 r11: .cfa -24 + ^ r10: .cfa -28 + ^ r9: .cfa -32 + ^ r8: .cfa -36 + ^
STACK CFI INIT 3d31c b78 .cfa: sp 0 +
STACK CFI 3d31e .cfa: sp 20 + .ra: .cfa -4 + ^ r7: .cfa -8 + ^ r6: .cfa -12 + ^ r5: .cfa -16 + ^ r4: .cfa -20 + ^
STACK CFI 3d320 .cfa: r7 8 +
STACK CFI 3d324 r11: .cfa -24 + ^ r10: .cfa -28 + ^ r9: .cfa -32 + ^ r8: .cfa -36 + ^
STACK CFI INIT 3de94 3a4 .cfa: sp 0 +
STACK CFI 3de96 .cfa: sp 20 + .ra: .cfa -4 + ^ r7: .cfa -8 + ^ r6: .cfa -12 + ^ r5: .cfa -16 + ^ r4: .cfa -20 + ^
STACK CFI 3de98 .cfa: r7 8 +
STACK CFI 3de9c r11: .cfa -24 + ^ r10: .cfa -28 + ^ r9: .cfa -32 + ^ r8: .cfa -36 + ^
STACK CFI INIT 3e238 ebc .cfa: sp 0 +
STACK CFI 3e23a .cfa: sp 20 + .ra: .cfa -4 + ^ r7: .cfa -8 + ^ r6: .cfa -12 + ^ r5: .cfa -16 + ^ r4: .cfa -20 + ^
STACK CFI 3e23c .cfa: r7 8 +
STACK CFI 3e240 r11: .cfa -24 + ^ r10: .cfa -28 + ^ r9: .cfa -32 + ^ r8: .cfa -36 + ^
STACK CFI INIT 3f0f4 10c .cfa: sp 0 +
STACK CFI 3f0f6 .cfa: sp 20 + .ra: .cfa -4 + ^ r7: .cfa -8 + ^ r6: .cfa -12 + ^ r5: .cfa -16 + ^ r4: .cfa -20 + ^
STACK CFI 3f0f8 .cfa: r7 8 +
STACK CFI 3f0fc r11: .cfa -24 + ^ r10: .cfa -28 + ^ r9: .cfa -32 + ^ r8: .cfa -36 + ^
STACK CFI INIT 3f200 c4 .cfa: sp 0 +
STACK CFI 3f21e .cfa: sp 20 + .ra: .cfa -4 + ^ r7: .cfa -8 + ^ r6: .cfa -12 + ^ r5: .cfa -16 + ^ r4: .cfa -20 + ^
STACK CFI 3f220 .cfa: r7 8 +
STACK CFI 3f224 r8: .cfa -24 + ^
STACK CFI INIT 3f2c4 414 .cfa: sp 0 +
STACK CFI 3f2c6 .cfa: sp 20 + .ra: .cfa -4 + ^ r7: .cfa -8 + ^ r6: .cfa -12 + ^ r5: .cfa -16 + ^ r4: .cfa -20 + ^
STACK CFI 3f2c8 .cfa: r7 8 +
STACK CFI 3f2cc r11: .cfa -24 + ^ r10: .cfa -28 + ^ r9: .cfa -32 + ^ r8: .cfa -36 + ^
STACK CFI INIT 3f6d8 276 .cfa: sp 0 +
STACK CFI 3f6da .cfa: sp 20 + .ra: .cfa -4 + ^ r7: .cfa -8 + ^ r6: .cfa -12 + ^ r5: .cfa -16 + ^ r4: .cfa -20 + ^
STACK CFI 3f6dc .cfa: r7 8 +
STACK CFI 3f6e0 r11: .cfa -24 + ^ r10: .cfa -28 + ^ r9: .cfa -32 + ^ r8: .cfa -36 + ^
STACK CFI INIT 3f94e 6e .cfa: sp 0 +
STACK CFI 3f950 .cfa: sp 20 + .ra: .cfa -4 + ^ r7: .cfa -8 + ^ r6: .cfa -12 + ^ r5: .cfa -16 + ^ r4: .cfa -20 + ^
STACK CFI 3f952 .cfa: r7 8 +
STACK CFI 3f956 r8: .cfa -24 + ^
STACK CFI INIT 3f9bc 994 .cfa: sp 0 +
STACK CFI 3f9be .cfa: sp 20 + .ra: .cfa -4 + ^ r7: .cfa -8 + ^ r6: .cfa -12 + ^ r5: .cfa -16 + ^ r4: .cfa -20 + ^
STACK CFI 3f9c0 .cfa: r7 8 +
STACK CFI 3f9c4 r11: .cfa -24 + ^ r10: .cfa -28 + ^ r9: .cfa -32 + ^ r8: .cfa -36 + ^
STACK CFI INIT 40350 e0 .cfa: sp 0 +
STACK CFI 40352 .cfa: sp 20 + .ra: .cfa -4 + ^ r7: .cfa -8 + ^ r6: .cfa -12 + ^ r5: .cfa -16 + ^ r4: .cfa -20 + ^
STACK CFI 40354 .cfa: r7 8 +
STACK CFI 40358 r11: .cfa -24 + ^ r10: .cfa -28 + ^ r9: .cfa -32 + ^ r8: .cfa -36 + ^
STACK CFI INIT 40430 544 .cfa: sp 0 +
STACK CFI 40432 .cfa: sp 20 + .ra: .cfa -4 + ^ r7: .cfa -8 + ^ r6: .cfa -12 + ^ r5: .cfa -16 + ^ r4: .cfa -20 + ^
STACK CFI 40434 .cfa: r7 8 +
STACK CFI 40438 r11: .cfa -24 + ^ r10: .cfa -28 + ^ r9: .cfa -32 + ^ r8: .cfa -36 + ^
