MODULE Linux arm64 E03CA63FB672A96E4D0057955E4D44820 ninsam.to_the_recent_taaaab.android64.so
INFO CODE_ID 3FA63CE072B66EA94D0057955E4D448299660B0F
INFO GENERATOR mozilla/dump_syms 2.3.4
FILE 0 /home/runner/work/To-The-Recent-TAAAAB/To-The-Recent-TAAAAB/geode-sdk-clone/loader/include/Geode/platform/ItaniumCast.hpp
FILE 1 /usr/local/lib/android/sdk/ndk/27.2.12479018/toolchains/llvm/prebuilt/linux-x86_64/sysroot/usr/include/c++/v1/ostream
FILE 2 /usr/local/lib/android/sdk/ndk/27.2.12479018/toolchains/llvm/prebuilt/linux-x86_64/sysroot/usr/include/c++/v1/variant
FILE 3 /usr/local/lib/android/sdk/ndk/27.2.12479018/toolchains/llvm/prebuilt/linux-x86_64/sysroot/usr/include/c++/v1/__tree
FILE 4 /usr/local/lib/android/sdk/ndk/27.2.12479018/toolchains/llvm/prebuilt/linux-x86_64/sysroot/usr/include/c++/v1/locale
FILE 5 /usr/local/lib/android/sdk/ndk/27.2.12479018/toolchains/llvm/prebuilt/linux-x86_64/sysroot/usr/include/c++/v1/stdexcept
FILE 6 /usr/local/lib/android/sdk/ndk/27.2.12479018/toolchains/llvm/prebuilt/linux-x86_64/sysroot/usr/include/c++/v1/new
FILE 7 /home/runner/work/To-The-Recent-TAAAAB/To-The-Recent-TAAAAB/build/bindings/bindings/Geode/modify/LevelSearchLayer.hpp
FILE 8 /home/runner/work/To-The-Recent-TAAAAB/To-The-Recent-TAAAAB/geode-sdk-clone/loader/include/Geode/modify/Modify.hpp
FILE 9 /usr/local/lib/android/sdk/ndk/27.2.12479018/toolchains/llvm/prebuilt/linux-x86_64/sysroot/usr/include/c++/v1/string
FILE 10 /home/runner/work/To-The-Recent-TAAAAB/To-The-Recent-TAAAAB/cpm-cache/result/a5380f9e23f94b98200baa461086514f602899cb/include/Geode/Result.hpp
FILE 11 /usr/local/lib/android/sdk/ndk/27.2.12479018/toolchains/llvm/prebuilt/linux-x86_64/sysroot/usr/include/c++/v1/vector
FILE 12 /usr/local/lib/android/sdk/ndk/27.2.12479018/toolchains/llvm/prebuilt/linux-x86_64/sysroot/usr/include/c++/v1/__split_buffer
FILE 13 /usr/local/lib/android/sdk/ndk/27.2.12479018/toolchains/llvm/prebuilt/linux-x86_64/sysroot/usr/include/c++/v1/__memory/shared_ptr.h
FILE 14 /home/runner/work/To-The-Recent-TAAAAB/To-The-Recent-TAAAAB/cpm-cache/tuliphook/8d0d2aa407f52cdee9f79187fca5c9affddf8dd5/include/tulip/HandlerData.hpp
FILE 15 /usr/local/lib/android/sdk/ndk/27.2.12479018/toolchains/llvm/prebuilt/linux-x86_64/sysroot/usr/include/c++/v1/sstream
FILE 16 /home/runner/work/To-The-Recent-TAAAAB/To-The-Recent-TAAAAB/geode-sdk-clone/entry.cpp
FILE 17 /home/runner/work/To-The-Recent-TAAAAB/To-The-Recent-TAAAAB/build/bindings/bindings/Geode/GeneratedSource.cpp
FILE 18 /home/runner/work/To-The-Recent-TAAAAB/To-The-Recent-TAAAAB/cpm-cache/tuliphook/8d0d2aa407f52cdee9f79187fca5c9affddf8dd5/include/tulip/WrapperData.hpp
FILE 19 /home/runner/work/To-The-Recent-TAAAAB/To-The-Recent-TAAAAB/cpm-cache/tuliphook/8d0d2aa407f52cdee9f79187fca5c9affddf8dd5/include/tulip/AbstractFunction.hpp
PUBLIC 33e0 0 __on_dlclose
PUBLIC 33f0 0 __emutls_unregister_key
PUBLIC 33f8 0 __on_dlclose_late
PUBLIC 3400 0 __atexit_handler_wrapper
PUBLIC 3414 0 atexit
PUBLIC 3430 0 pthread_atfork
PUBLIC 3440 0 __aarch64_ldadd8_relax
PUBLIC 3470 0 init_have_lse_atomics
PUBLIC 3508 0 __init_cpu_features_constructor
PUBLIC 3aa4 0 __init_cpu_features
PUBLIC 3b30 0 __aarch64_ldadd8_acq_rel
FUNC 3b60 af4 0 __cxx_global_var_init
3b84 ad0 446 8
FUNC 4654 18 0 geode::modifier::ModifyBase<geode::modifier::ModifyDerive<hook7<(anonymous namespace)::hook7Parent>, LevelSearchLayer> >::~ModifyBase()
4654 18 200 8
FUNC 466c 474 0 geode::modifier::ModifyDerive<hook7<(anonymous namespace)::hook7Parent>, LevelSearchLayer>::apply()
466c 34 416 7
46a0 31c 444 7
49bc 30 458 7
49ec f4 444 7
FUNC 4ae0 50 0 std::__ndk1::shared_ptr<geode::Hook>::~shared_ptr[abi:ne180000]()
4ae0 c 643 13
4aec 8 644 13
4af4 10 645 13
4b04 c 646 13
4b10 20 645 13
FUNC 4b30 74 0 geode::impl::ResultData<geode::Hook*, std::__ndk1::basic_string<char, std::__ndk1::char_traits<char>, std::__ndk1::allocator<char> > >::~ResultData()
4b30 74 422 10
FUNC 4ba4 7c 0 std::__ndk1::vector<std::__ndk1::basic_string<char, std::__ndk1::char_traits<char>, std::__ndk1::allocator<char> >, std::__ndk1::allocator<std::__ndk1::basic_string<char, std::__ndk1::char_traits<char>, std::__ndk1::allocator<char> > > >::~vector[abi:ne180000]()
4ba4 7c 501 11
FUNC 4c20 4 0 geode::modifier::ModifyBase<geode::modifier::ModifyDerive<hook7<(anonymous namespace)::hook7Parent>, LevelSearchLayer> >::apply()
4c20 4 416 8
PUBLIC 4c24 0 __clang_call_terminate
FUNC 4c34 154 0 _ZN5geode15UnwrapExceptionC2IRPNS_4HookEQsr4implE18IsStringStreamableIT_EEENS_4impl5OkTagEOS5_
4c34 20 404 10
4c54 48 403 10
4c9c 5c 402 10
4cf8 4 403 10
4cfc 18 402 10
4d14 34 404 10
4d48 40 402 10
FUNC 4d88 34 0 std::__ndk1::__throw_bad_variant_access[abi:ne180000]()
4d88 8 285 2
4d90 2c 287 2
FUNC 4dbc 124 0 std::__ndk1::basic_stringstream<char, std::__ndk1::char_traits<char>, std::__ndk1::allocator<char> >::basic_stringstream[abi:ne180000]()
4dbc 124 1010 15
FUNC 4ee0 80 0 std::__ndk1::basic_stringstream<char, std::__ndk1::char_traits<char>, std::__ndk1::allocator<char> >::~basic_stringstream()
4ee0 80 1102 15
FUNC 4f60 24 0 geode::UnwrapException::~UnwrapException()
4f60 24 413 10
FUNC 4f84 198 0 std::__ndk1::__put_character_sequence[abi:ne180000]<char, std::__ndk1::char_traits<char> >(std::__ndk1::basic_ostream<char, std::__ndk1::char_traits<char> >, std::__ndk1::basic_ostream const*, unsigned long)
4f84 34 665 1
4fb8 c 669 1
4fc4 8 670 1
4fcc c 673 1
4fd8 4 678 1
4fdc 4 673 1
4fe0 4 675 1
4fe4 54 678 1
5038 10 675 1
5048 10 672 1
5058 1c 680 1
5074 8 683 1
507c 38 687 1
50b4 10 678 1
50c4 18 683 1
50dc 10 684 1
50ec 30 685 1
FUNC 511c 1b4 0 std::__ndk1::__pad_and_output[abi:ne180000]<char, std::__ndk1::char_traits<char> >(std::__ndk1::char_traits<char>, std::__ndk1::ostreambuf_iterator const*, std::__ndk1::ostreambuf_iterator const, std::__ndk1::ostreambuf_iterator const, std::__ndk1::ios_base&, std::__ndk1::ostreambuf_iterator)
511c 30 1246 4
514c 4 1247 4
5150 4 1250 4
5154 4 1249 4
5158 10 1255 4
5168 c 1251 4
5174 8 1256 4
517c 1c 1257 4
5198 8 1262 4
51a0 4c 1263 4
51ec 2c 1264 4
5218 1c 1268 4
5234 4 1269 4
5238 8 1270 4
5240 20 1271 4
5260 c 1276 4
526c 34 1278 4
52a0 30 1268 4
FUNC 52d0 14 0 std::__ndk1::basic_string<char, std::__ndk1::char_traits<char>, std::__ndk1::allocator<char> >::__throw_length_error[abi:ne180000]() const
52d0 8 2118 9
52d8 c 2119 9
FUNC 52e4 50 0 std::__ndk1::__throw_length_error[abi:ne180000](char const*)
52e4 10 239 5
52f4 40 241 5
FUNC 5334 30 0 std::length_error::length_error[abi:ne180000](char const*)
5334 30 152 5
FUNC 5364 34 0 std::__throw_bad_array_new_length([abi:ne180000], void)
5364 c 172 6
5370 28 174 6
FUNC 5398 15c 0 std::__ndk1::basic_stringbuf<char, std::__ndk1::char_traits<char>, std::__ndk1::allocator<char> >::str[abi:ne180000]() &&
5398 18 396 15
53b0 40 397 15
53f0 8 398 15
53f8 8 402 15
5400 4 398 15
5404 4 402 15
5408 4 398 15
540c c 402 15
5418 4 398 15
541c 8 402 15
5424 4 398 15
5428 4 402 15
542c 4 398 15
5430 3c 402 15
546c 4 401 15
5470 30 402 15
54a0 1c 403 15
54bc 4 404 15
54c0 34 406 15
FUNC 54f4 148 0 std::__ndk1::basic_stringbuf<char, std::__ndk1::char_traits<char>, std::__ndk1::allocator<char> >::__init_buf_ptrs[abi:ne180000]()
54f4 10 626 15
5504 8 628 15
550c 4 630 15
5510 4 628 15
5514 4 627 15
5518 8 629 15
5520 4 628 15
5524 4 629 15
5528 4 630 15
552c 4 631 15
5530 4 632 15
5534 4 631 15
5538 4 632 15
553c 4 634 15
5540 20 636 15
5560 4 635 15
5564 4 636 15
5568 4 635 15
556c 3c 636 15
55a8 14 637 15
55bc 4 638 15
55c0 4 637 15
55c4 4 638 15
55c8 8 637 15
55d0 4 638 15
55d4 48 639 15
561c 4 640 15
5620 4 643 15
5624 8 644 15
562c 10 647 15
FUNC 563c 70 0 std::__ndk1::basic_string<char, std::__ndk1::char_traits<char>, std::__ndk1::allocator<char> >::__init_copy_ctor_external(char const*, unsigned long)
563c 14 2232 9
5650 8 2237 9
5658 10 2239 9
5668 8 2241 9
5670 10 2243 9
5680 8 2247 9
5688 4 2246 9
568c 4 2247 9
5690 14 2250 9
56a4 8 2242 9
FUNC 56ac 68 0 std::__ndk1::__split_buffer<std::__ndk1::basic_string<char, std::__ndk1::char_traits<char>, std::__ndk1::allocator<char> >, std::__ndk1::allocator<std::__ndk1::basic_string<char, std::__ndk1::char_traits<char>, std::__ndk1::allocator<char> > >&>::~__split_buffer()
56ac c 352 12
56b8 10 353 12
56c8 8 354 12
56d0 c 355 12
56dc 2c 353 12
5708 c 356 12
FUNC 5714 14 0 std::__ndk1::vector<std::__ndk1::basic_string<char, std::__ndk1::char_traits<char>, std::__ndk1::allocator<char> >, std::__ndk1::allocator<std::__ndk1::basic_string<char, std::__ndk1::char_traits<char>, std::__ndk1::allocator<char> > > >::__throw_length_error[abi:ne180000]() const
5714 14 940 11
FUNC 5728 4 0 std::__ndk1::__variant_detail::__visitation::__base::__dispatcher<(unsigned long)0>::__dispatch[abi:ne180000]<std::__ndk1::__variant_detail::__dtor<std::__ndk1::__variant_detail::__traits<geode::Hook*, std::__ndk1::basic_string<char, std::__ndk1::char_traits<char>, std::__ndk1::allocator<char> > >, (std::__ndk1::__variant_detail::_Trait)1>::__destroy[abi:ne180000]()::{lambda(auto:1&)#1}, std::__ndk1::__variant_detail::__base<(std::__ndk1::__variant_detail::__traits<geode::Hook*, std::__ndk1::basic_string<char, std::__ndk1::char_traits<char>, std::__ndk1::allocator<char> > >)1, geode::Hook, std::__ndk1::allocator<char> >&>(std::__ndk1::__variant_detail::__dtor<std::__ndk1::__variant_detail::__traits<geode::Hook*, std::__ndk1::basic_string<char, std::__ndk1::char_traits<char>, std::__ndk1::allocator<char> > >, (std::__ndk1::__variant_detail::_Trait)1>, std::__ndk1::__variant_detail::__base<(std::__ndk1::__variant_detail::__traits<geode::Hook*, std::__ndk1::basic_string<char, std::__ndk1::char_traits<char>, std::__ndk1::allocator<char> > >)1, geode::Hook, std::__ndk1::allocator<char> >&)
5728 4 526 2
FUNC 572c 14 0 std::__ndk1::__variant_detail::__visitation::__base::__dispatcher<(unsigned long)1>::__dispatch[abi:ne180000]<std::__ndk1::__variant_detail::__dtor<std::__ndk1::__variant_detail::__traits<geode::Hook*, std::__ndk1::basic_string<char, std::__ndk1::char_traits<char>, std::__ndk1::allocator<char> > >, (std::__ndk1::__variant_detail::_Trait)1>::__destroy[abi:ne180000]()::{lambda(auto:1&)#1}, std::__ndk1::__variant_detail::__base<(std::__ndk1::__variant_detail::__traits<geode::Hook*, std::__ndk1::basic_string<char, std::__ndk1::char_traits<char>, std::__ndk1::allocator<char> > >)1, geode::Hook, std::__ndk1::allocator<char> >&>(std::__ndk1::__variant_detail::__dtor<std::__ndk1::__variant_detail::__traits<geode::Hook*, std::__ndk1::basic_string<char, std::__ndk1::char_traits<char>, std::__ndk1::allocator<char> > >, (std::__ndk1::__variant_detail::_Trait)1>, std::__ndk1::__variant_detail::__base<(std::__ndk1::__variant_detail::__traits<geode::Hook*, std::__ndk1::basic_string<char, std::__ndk1::char_traits<char>, std::__ndk1::allocator<char> > >)1, geode::Hook, std::__ndk1::allocator<char> >&)
572c 14 526 2
FUNC 5740 84 0 std::__ndk1::__tree<std::__ndk1::__value_type<std::__ndk1::basic_string<char, std::__ndk1::char_traits<char>, std::__ndk1::allocator<char> >, std::__ndk1::shared_ptr<geode::Hook> >, std::__ndk1::__map_value_compare<std::__ndk1::basic_string<char, std::__ndk1::char_traits<char>, std::__ndk1::allocator<char> >, std::__ndk1::__value_type<std::__ndk1::basic_string<char, std::__ndk1::char_traits<char>, std::__ndk1::allocator<char> >, std::__ndk1::shared_ptr<geode::Hook> >, std::__ndk1::less<std::__ndk1::basic_string<char, std::__ndk1::char_traits<char>, std::__ndk1::allocator<char> > >, true>, std::__ndk1::allocator<std::__ndk1::__value_type<std::__ndk1::basic_string<char, std::__ndk1::char_traits<char>, std::__ndk1::allocator<char> >, std::__ndk1::shared_ptr<geode::Hook> > > >::destroy(std::__ndk1::__tree_node<std::__ndk1::__value_type<std::__ndk1::basic_string<char, std::__ndk1::char_traits<char>, std::__ndk1::allocator<char> >, std::__ndk1::shared_ptr<geode::Hook> >, void*>*)
5740 14 1544 3
5754 8 1545 3
575c 8 1546 3
5764 28 1548 3
578c 10 1549 3
579c 4 1551 3
57a0 24 1548 3
FUNC 57c4 254 0 geode::modifier::AsStaticFunction_onMostRecent<hook7<(anonymous namespace)::hook7Parent>, void (hook7<(anonymous namespace)::hook7Parent>::*)(cocos2d::CCObject*)>::Impl<void (hook7<(anonymous namespace)::hook7Parent>::*)(cocos2d::CCObject*)>::function(hook7<(anonymous namespace)::hook7Parent>*, cocos2d::CCObject*)
57c4 254 140 7
FUNC 5a18 50 0 std::__ndk1::shared_ptr<tulip::hook::CallingConvention>::~shared_ptr[abi:ne180000]()
5a18 c 643 13
5a24 8 644 13
5a2c 10 645 13
5a3c c 646 13
5a48 20 645 13
FUNC 5a68 64 0 tulip::hook::HandlerMetadata::~HandlerMetadata()
5a68 64 12 14
FUNC 5acc d8 0 geode::cast::traverseTypeinfoFor(void*, geode::cast::ClassTypeinfoType const*, char const*)
5acc 14 57 0
5ae0 c 59 0
5aec 1c 60 0
5b08 4 64 0
5b0c 4 65 0
5b10 8 64 0
5b18 c 65 0
5b24 4 67 0
5b28 4 60 0
5b2c 4 59 0
5b30 c 60 0
5b3c 18 69 0
5b54 18 80 0
5b6c c 71 0
5b78 4 73 0
5b7c 4 74 0
5b80 4 73 0
5b84 8 74 0
5b8c 18 71 0
FUNC 5ba4 19c 0 std::__ndk1::__tree_balance_after_insert[abi:ne180000]<std::__ndk1::__tree_node_base<void*>*>(std::__ndk1::__tree_node_base<void*>*, std::__ndk1::__tree_node_base<void*>*)
5ba4 c 285 3
5bb0 34 286 3
5be4 10 288 3
5bf4 10 310 3
5c04 4 289 3
5c08 c 290 3
5c14 c 297 3
5c20 38 299 3
5c58 4 303 3
5c5c 4 299 3
5c60 8 305 3
5c68 4 330 3
5c6c 14 317 3
5c80 30 319 3
5cb0 4 323 3
5cb4 4 319 3
5cb8 8 325 3
5cc0 4 322 3
5cc4 4 325 3
5cc8 4 324 3
5ccc 2c 325 3
5cf8 8 330 3
5d00 8 305 3
5d08 4 302 3
5d0c 4 304 3
5d10 2c 305 3
5d3c 4 330 3
FUNC 5d40 30 0 geodeImplicitEntry
5d40 c 16 16
5d4c 18 18 16
5d64 c 19 16
FUNC 5d70 134 0 wrapFunction(unsigned long, tulip::hook::WrapperMetadata const&)
5d70 1c 27 17
5d8c 8 28 17
5d94 8 29 17
5d9c 4 32 17
5da0 20 33 17
5dc0 4 32 17
5dc4 c 29 17
5dd0 30 30 17
5e00 7c 32 17
5e7c 28 33 17
FUNC 5ea4 78 0 geode::impl::ResultData<void*, std::__ndk1::basic_string<char, std::__ndk1::char_traits<char>, std::__ndk1::allocator<char> > >::unwrapErr() &
5ea4 c 560 10
5eb0 c 561 10
5ebc 10 562 10
5ecc 50 565 10
FUNC 5f1c 74 0 geode::impl::ResultData<void*, std::__ndk1::basic_string<char, std::__ndk1::char_traits<char>, std::__ndk1::allocator<char> > >::~ResultData()
5f1c 74 422 10
FUNC 5f90 64 0 tulip::hook::WrapperMetadata::~WrapperMetadata()
5f90 64 10 18
FUNC 5ff4 178 0 FMODAudioEngine::playEffect(gd::string)
5ff4 28 3615 17
601c 14 3617 17
6030 48 3621 17
6078 38 3617 17
60b0 10 3618 17
60c0 4 3617 17
60c4 8 3619 17
60cc 74 3617 17
6140 2c 3621 17
FUNC 616c a4 0 tulip::hook::AbstractFunction::from<void, FMODAudioEngine*, gd::string>(void (*)(FMODAudioEngine*, gd::string))
616c 18 39 19
6184 4 42 19
6188 4 41 19
618c 8 40 19
6194 4 41 19
6198 50 42 19
61e8 28 45 19
FUNC 6210 154 0 _ZN5geode15UnwrapExceptionC2IRPvQsr4implE18IsStringStreamableIT_EEENS_4impl5OkTagEOS4_
6210 20 404 10
6230 48 403 10
6278 5c 402 10
62d4 4 403 10
62d8 18 402 10
62f0 34 404 10
6324 40 402 10
FUNC 6364 168 0 _ZN5geode15UnwrapExceptionC2IRNSt6__ndk112basic_stringIcNS2_11char_traitsIcEENS2_9allocatorIcEEEEQsr4implE18IsStringStreamableIT_EEENS_4impl6ErrTagEOSA_
6364 20 392 10
6384 5c 391 10
63e0 5c 390 10
643c 4 391 10
6440 18 390 10
6458 34 392 10
648c 40 390 10
FUNC 64cc 4 0 std::__ndk1::__variant_detail::__visitation::__base::__dispatcher<(unsigned long)0>::__dispatch[abi:ne180000]<std::__ndk1::__variant_detail::__dtor<std::__ndk1::__variant_detail::__traits<void*, std::__ndk1::basic_string<char, std::__ndk1::char_traits<char>, std::__ndk1::allocator<char> > >, (std::__ndk1::__variant_detail::_Trait)1>::__destroy[abi:ne180000]()::{lambda(auto:1&)#1}, std::__ndk1::__variant_detail::__base<(std::__ndk1::__variant_detail::__traits<void*, std::__ndk1::basic_string<char, std::__ndk1::char_traits<char>, std::__ndk1::allocator<char> > >)1, std::__ndk1::__variant_detail::__traits, std::__ndk1::allocator<char> >&>(std::__ndk1::__variant_detail::__dtor<std::__ndk1::__variant_detail::__traits<void*, std::__ndk1::basic_string<char, std::__ndk1::char_traits<char>, std::__ndk1::allocator<char> > >, (std::__ndk1::__variant_detail::_Trait)1>, std::__ndk1::__variant_detail::__base<(std::__ndk1::__variant_detail::__traits<void*, std::__ndk1::basic_string<char, std::__ndk1::char_traits<char>, std::__ndk1::allocator<char> > >)1, std::__ndk1::__variant_detail::__traits, std::__ndk1::allocator<char> >&)
64cc 4 526 2
FUNC 64d0 14 0 std::__ndk1::__variant_detail::__visitation::__base::__dispatcher<(unsigned long)1>::__dispatch[abi:ne180000]<std::__ndk1::__variant_detail::__dtor<std::__ndk1::__variant_detail::__traits<void*, std::__ndk1::basic_string<char, std::__ndk1::char_traits<char>, std::__ndk1::allocator<char> > >, (std::__ndk1::__variant_detail::_Trait)1>::__destroy[abi:ne180000]()::{lambda(auto:1&)#1}, std::__ndk1::__variant_detail::__base<(std::__ndk1::__variant_detail::__traits<void*, std::__ndk1::basic_string<char, std::__ndk1::char_traits<char>, std::__ndk1::allocator<char> > >)1, std::__ndk1::__variant_detail::__traits, std::__ndk1::allocator<char> >&>(std::__ndk1::__variant_detail::__dtor<std::__ndk1::__variant_detail::__traits<void*, std::__ndk1::basic_string<char, std::__ndk1::char_traits<char>, std::__ndk1::allocator<char> > >, (std::__ndk1::__variant_detail::_Trait)1>, std::__ndk1::__variant_detail::__base<(std::__ndk1::__variant_detail::__traits<void*, std::__ndk1::basic_string<char, std::__ndk1::char_traits<char>, std::__ndk1::allocator<char> > >)1, std::__ndk1::__variant_detail::__traits, std::__ndk1::allocator<char> >&)
64d0 14 526 2
PUBLIC 64f0 0 <.plt ELF section in ninsam.to_the_recent_taaaab.android64.so>
STACK CFI INIT 33e0 10 .cfa: sp 0 +
STACK CFI INIT 33f0 8 .cfa: sp 0 +
STACK CFI INIT 33f8 8 .cfa: sp 0 +
STACK CFI INIT 3400 14 .cfa: sp 0 +
STACK CFI INIT 3414 1c .cfa: sp 0 +
STACK CFI INIT 3430 10 .cfa: sp 0 +
STACK CFI INIT 3440 30 .cfa: sp 0 +
STACK CFI INIT 3470 98 .cfa: sp 0 +
STACK CFI INIT 3508 59c .cfa: sp 0 +
STACK CFI INIT 3aa4 8c .cfa: sp 0 +
STACK CFI INIT 3b30 30 .cfa: sp 0 +
STACK CFI INIT 4654 18 .cfa: sp 0 +
STACK CFI INIT 4ae0 50 .cfa: sp 0 +
STACK CFI 4ae4 .cfa: sp 32 +
STACK CFI 4aec .cfa: x29 32 + x19: .cfa -16 + ^ .ra: .cfa -24 + ^ x29: .cfa -32 + ^
STACK CFI 4b04 .cfa: sp 32 +
STACK CFI 4b0c .cfa: sp 0 +
STACK CFI 4b10 .cfa: x29 32 +
STACK CFI 4b24 .cfa: sp 32 +
STACK CFI 4b2c .cfa: sp 0 +
STACK CFI INIT 4ba4 7c .cfa: sp 0 +
STACK CFI 4ba8 .cfa: sp 48 +
STACK CFI 4bb4 .cfa: x29 48 + x19: .cfa -8 + ^ x20: .cfa -16 + ^ x21: .cfa -32 + ^ .ra: .cfa -40 + ^ x29: .cfa -48 + ^
STACK CFI 4c00 .cfa: sp 48 +
STACK CFI 4c0c .cfa: sp 0 +
STACK CFI 4c10 .cfa: sp 48 +
STACK CFI 4c1c .cfa: sp 0 +
STACK CFI INIT 4c20 4 .cfa: sp 0 +
STACK CFI INIT 4c24 10 .cfa: sp 0 +
STACK CFI 4c28 .cfa: sp 16 +
STACK CFI 4c2c .cfa: x29 16 + .ra: .cfa -8 + ^ x29: .cfa -16 + ^
STACK CFI INIT 4d88 34 .cfa: sp 0 +
STACK CFI 4d8c .cfa: sp 16 +
STACK CFI 4d90 .cfa: x29 16 + .ra: .cfa -8 + ^ x29: .cfa -16 + ^
STACK CFI INIT 4ee0 80 .cfa: sp 0 +
STACK CFI 4ee4 .cfa: sp 48 +
STACK CFI 4ef0 .cfa: x29 48 + x19: .cfa -8 + ^ x20: .cfa -16 + ^ x21: .cfa -32 + ^ .ra: .cfa -40 + ^ x29: .cfa -48 + ^
STACK CFI 4f50 .cfa: sp 48 +
STACK CFI 4f5c .cfa: sp 0 +
STACK CFI INIT 4f60 24 .cfa: sp 0 +
STACK CFI 4f64 .cfa: sp 32 +
STACK CFI 4f6c .cfa: x29 32 + x19: .cfa -16 + ^ .ra: .cfa -24 + ^ x29: .cfa -32 + ^
STACK CFI 4f78 .cfa: sp 32 +
STACK CFI 4f80 .cfa: sp 0 +
STACK CFI INIT 52d0 14 .cfa: sp 0 +
STACK CFI 52d4 .cfa: sp 16 +
STACK CFI 52d8 .cfa: x29 16 + .ra: .cfa -8 + ^ x29: .cfa -16 + ^
STACK CFI INIT 5334 30 .cfa: sp 0 +
STACK CFI 5338 .cfa: sp 32 +
STACK CFI 5340 .cfa: x29 32 + x19: .cfa -16 + ^ .ra: .cfa -24 + ^ x29: .cfa -32 + ^
STACK CFI 5358 .cfa: sp 32 +
STACK CFI 5360 .cfa: sp 0 +
STACK CFI INIT 5364 34 .cfa: sp 0 +
STACK CFI 5368 .cfa: sp 32 +
STACK CFI 5370 .cfa: x29 32 + x19: .cfa -16 + ^ .ra: .cfa -24 + ^ x29: .cfa -32 + ^
STACK CFI INIT 54f4 148 .cfa: sp 0 +
STACK CFI 54f8 .cfa: sp 48 +
STACK CFI 5504 .cfa: x29 48 + x19: .cfa -8 + ^ x20: .cfa -16 + ^ x21: .cfa -32 + ^ .ra: .cfa -40 + ^ x29: .cfa -48 + ^
STACK CFI 562c .cfa: sp 48 +
STACK CFI 5638 .cfa: sp 0 +
STACK CFI INIT 563c 70 .cfa: sp 0 +
STACK CFI 5640 .cfa: sp 48 +
STACK CFI 564c .cfa: x29 48 + x19: .cfa -8 + ^ x20: .cfa -16 + ^ x21: .cfa -24 + ^ x22: .cfa -32 + ^ .ra: .cfa -40 + ^ x29: .cfa -48 + ^
STACK CFI 5694 .cfa: sp 48 +
STACK CFI 56a0 .cfa: sp 0 +
STACK CFI 56a4 .cfa: x29 48 +
STACK CFI INIT 56ac 68 .cfa: sp 0 +
STACK CFI 56b0 .cfa: sp 32 +
STACK CFI 56b8 .cfa: x29 32 + x19: .cfa -8 + ^ x20: .cfa -16 + ^ .ra: .cfa -24 + ^ x29: .cfa -32 + ^
STACK CFI 56d0 .cfa: sp 32 +
STACK CFI 56d8 .cfa: sp 0 +
STACK CFI 56dc .cfa: x29 32 +
STACK CFI 5708 .cfa: sp 32 +
STACK CFI 5710 .cfa: sp 0 +
STACK CFI INIT 5714 14 .cfa: sp 0 +
STACK CFI 5718 .cfa: sp 16 +
STACK CFI 571c .cfa: x29 16 + .ra: .cfa -8 + ^ x29: .cfa -16 + ^
STACK CFI INIT 5728 4 .cfa: sp 0 +
STACK CFI INIT 572c 14 .cfa: sp 0 +
STACK CFI INIT 5740 84 .cfa: sp 0 +
STACK CFI 5748 .cfa: sp 32 +
STACK CFI 5750 .cfa: x29 32 + x19: .cfa -8 + ^ x20: .cfa -16 + ^ .ra: .cfa -24 + ^ x29: .cfa -32 + ^
STACK CFI 5790 .cfa: sp 32 +
STACK CFI 5798 .cfa: sp 0 +
STACK CFI 57a0 .cfa: x29 32 +
STACK CFI INIT 5a18 50 .cfa: sp 0 +
STACK CFI 5a1c .cfa: sp 32 +
STACK CFI 5a24 .cfa: x29 32 + x19: .cfa -16 + ^ .ra: .cfa -24 + ^ x29: .cfa -32 + ^
STACK CFI 5a3c .cfa: sp 32 +
STACK CFI 5a44 .cfa: sp 0 +
STACK CFI 5a48 .cfa: x29 32 +
STACK CFI 5a5c .cfa: sp 32 +
STACK CFI 5a64 .cfa: sp 0 +
STACK CFI INIT 5a68 64 .cfa: sp 0 +
STACK CFI 5a6c .cfa: sp 32 +
STACK CFI 5a74 .cfa: x29 32 + x19: .cfa -16 + ^ .ra: .cfa -24 + ^ x29: .cfa -32 + ^
STACK CFI 5aa0 .cfa: sp 32 +
STACK CFI 5aa8 .cfa: sp 0 +
STACK CFI 5aac .cfa: x29 32 +
STACK CFI 5ac0 .cfa: sp 32 +
STACK CFI 5ac8 .cfa: sp 0 +
STACK CFI INIT 5acc d8 .cfa: sp 0 +
STACK CFI 5ad0 .cfa: sp 64 +
STACK CFI 5ae0 .cfa: x29 64 + x19: .cfa -8 + ^ x20: .cfa -16 + ^ x21: .cfa -24 + ^ x22: .cfa -32 + ^ x23: .cfa -48 + ^ .ra: .cfa -56 + ^ x29: .cfa -64 + ^
STACK CFI 5b58 .cfa: sp 64 +
STACK CFI 5b68 .cfa: sp 0 +
STACK CFI 5b6c .cfa: x29 64 +
STACK CFI INIT 5ba4 19c .cfa: sp 0 +
STACK CFI INIT 5d40 30 .cfa: sp 0 +
STACK CFI 5d44 .cfa: sp 32 +
STACK CFI 5d4c .cfa: x29 32 + x19: .cfa -16 + ^ .ra: .cfa -24 + ^ x29: .cfa -32 + ^
STACK CFI 5d64 .cfa: sp 32 +
STACK CFI 5d6c .cfa: sp 0 +
STACK CFI INIT 5f90 64 .cfa: sp 0 +
STACK CFI 5f94 .cfa: sp 32 +
STACK CFI 5f9c .cfa: x29 32 + x19: .cfa -16 + ^ .ra: .cfa -24 + ^ x29: .cfa -32 + ^
STACK CFI 5fc8 .cfa: sp 32 +
STACK CFI 5fd0 .cfa: sp 0 +
STACK CFI 5fd4 .cfa: x29 32 +
STACK CFI 5fe8 .cfa: sp 32 +
STACK CFI 5ff0 .cfa: sp 0 +
STACK CFI INIT 64cc 4 .cfa: sp 0 +
STACK CFI INIT 64d0 14 .cfa: sp 0 +
STACK CFI INIT 3b60 af4 .cfa: sp 0 +
STACK CFI 3b64 .cfa: sp 240 +
STACK CFI 3b80 .cfa: x29 96 + x19: .cfa -8 + ^ x20: .cfa -16 + ^ x21: .cfa -24 + ^ x22: .cfa -32 + ^ x23: .cfa -40 + ^ x24: .cfa -48 + ^ x25: .cfa -56 + ^ x26: .cfa -64 + ^ x27: .cfa -72 + ^ x28: .cfa -80 + ^ .ra: .cfa -88 + ^ x29: .cfa -96 + ^
STACK CFI 4500 .cfa: sp 240 +
STACK CFI 451c .cfa: sp 0 +
STACK CFI 4520 .cfa: x29 96 +
STACK CFI INIT 466c 474 .cfa: sp 0 +
STACK CFI 4670 .cfa: sp 304 +
STACK CFI 468c .cfa: x29 96 + x19: .cfa -8 + ^ x20: .cfa -16 + ^ x21: .cfa -24 + ^ x22: .cfa -32 + ^ x23: .cfa -40 + ^ x24: .cfa -48 + ^ x25: .cfa -56 + ^ x26: .cfa -64 + ^ x27: .cfa -72 + ^ x28: .cfa -80 + ^ .ra: .cfa -88 + ^ x29: .cfa -96 + ^
STACK CFI 49cc .cfa: sp 304 +
STACK CFI 49e8 .cfa: sp 0 +
STACK CFI 49ec .cfa: x29 96 +
STACK CFI INIT 4b30 74 .cfa: sp 0 +
STACK CFI 4b34 .cfa: sp 48 +
STACK CFI 4b40 .cfa: x29 32 + x19: .cfa -8 + ^ x20: .cfa -16 + ^ .ra: .cfa -24 + ^ x29: .cfa -32 + ^
STACK CFI 4b8c .cfa: sp 48 +
STACK CFI 4b98 .cfa: sp 0 +
STACK CFI 4b9c .cfa: x29 32 +
STACK CFI INIT 4c34 154 .cfa: sp 0 +
STACK CFI 4c38 .cfa: sp 384 +
STACK CFI 4c4c .cfa: x29 64 + x19: .cfa -8 + ^ x20: .cfa -16 + ^ x21: .cfa -24 + ^ x22: .cfa -32 + ^ x23: .cfa -40 + ^ x28: .cfa -48 + ^ .ra: .cfa -56 + ^ x29: .cfa -64 + ^
STACK CFI 4d30 .cfa: sp 384 +
STACK CFI 4d44 .cfa: sp 0 +
STACK CFI 4d48 .cfa: x29 64 +
STACK CFI INIT 4dbc 124 .cfa: sp 0 +
STACK CFI 4dc0 .cfa: sp 80 +
STACK CFI 4dd4 .cfa: x29 80 + x19: .cfa -8 + ^ x20: .cfa -16 + ^ x21: .cfa -24 + ^ x22: .cfa -32 + ^ x23: .cfa -40 + ^ x24: .cfa -48 + ^ x25: .cfa -56 + ^ x26: .cfa -64 + ^ .ra: .cfa -72 + ^ x29: .cfa -80 + ^
STACK CFI 4ea0 .cfa: sp 80 +
STACK CFI 4eb4 .cfa: sp 0 +
STACK CFI 4eb8 .cfa: x29 80 +
STACK CFI INIT 4f84 198 .cfa: sp 0 +
STACK CFI 4f88 .cfa: sp 112 +
STACK CFI 4fa0 .cfa: x29 80 + x19: .cfa -8 + ^ x20: .cfa -16 + ^ x21: .cfa -24 + ^ x22: .cfa -32 + ^ x23: .cfa -40 + ^ x24: .cfa -48 + ^ x25: .cfa -56 + ^ x26: .cfa -64 + ^ .ra: .cfa -72 + ^ x29: .cfa -80 + ^
STACK CFI 5090 .cfa: sp 112 +
STACK CFI 50a8 .cfa: sp 0 +
STACK CFI 50ac .cfa: x29 80 +
STACK CFI INIT 511c 1b4 .cfa: sp 0 +
STACK CFI 5120 .cfa: sp 128 +
STACK CFI 513c .cfa: x29 96 + x19: .cfa -8 + ^ x20: .cfa -16 + ^ x21: .cfa -24 + ^ x22: .cfa -32 + ^ x23: .cfa -40 + ^ x24: .cfa -48 + ^ x25: .cfa -56 + ^ x26: .cfa -64 + ^ x27: .cfa -80 + ^ .ra: .cfa -88 + ^ x29: .cfa -96 + ^
STACK CFI 5280 .cfa: sp 128 +
STACK CFI 529c .cfa: sp 0 +
STACK CFI 52a0 .cfa: x29 96 +
STACK CFI INIT 52e4 50 .cfa: sp 0 +
STACK CFI 52e8 .cfa: sp 32 +
STACK CFI 52f0 .cfa: x29 32 + x19: .cfa -8 + ^ x20: .cfa -16 + ^ .ra: .cfa -24 + ^ x29: .cfa -32 + ^
STACK CFI INIT 5398 15c .cfa: sp 0 +
STACK CFI 539c .cfa: sp 80 +
STACK CFI 53b0 .cfa: x29 80 + x19: .cfa -8 + ^ x20: .cfa -16 + ^ x21: .cfa -24 + ^ x22: .cfa -32 + ^ x23: .cfa -40 + ^ x24: .cfa -48 + ^ x25: .cfa -64 + ^ .ra: .cfa -72 + ^ x29: .cfa -80 + ^
STACK CFI 54c0 .cfa: sp 80 +
STACK CFI 54d4 .cfa: sp 0 +
STACK CFI 54d8 .cfa: x29 80 +
STACK CFI INIT 57c4 254 .cfa: sp 0 +
STACK CFI 57c8 .cfa: sp 80 +
STACK CFI 57d8 .cfa: x29 48 + x19: .cfa -8 + ^ x20: .cfa -16 + ^ x21: .cfa -24 + ^ x22: .cfa -32 + ^ .ra: .cfa -40 + ^ x29: .cfa -48 + ^
STACK CFI 59d4 .cfa: sp 80 +
STACK CFI 59e4 .cfa: sp 0 +
STACK CFI 59e8 .cfa: x29 48 +
STACK CFI INIT 5d70 134 .cfa: sp 0 +
STACK CFI 5d74 .cfa: sp 80 +
STACK CFI 5d80 .cfa: x29 32 + x19: .cfa -8 + ^ x20: .cfa -16 + ^ .ra: .cfa -24 + ^ x29: .cfa -32 + ^
STACK CFI 5db0 .cfa: sp 80 +
STACK CFI 5dbc .cfa: sp 0 +
STACK CFI 5dc0 .cfa: x29 32 +
STACK CFI INIT 5ea4 78 .cfa: sp 0 +
STACK CFI 5ea8 .cfa: sp 32 +
STACK CFI 5eb0 .cfa: x29 32 + x19: .cfa -8 + ^ x20: .cfa -16 + ^ .ra: .cfa -24 + ^ x29: .cfa -32 + ^
STACK CFI 5ebc .cfa: sp 32 +
STACK CFI 5ec4 .cfa: sp 0 +
STACK CFI 5ec8 .cfa: x29 32 +
STACK CFI INIT 5f1c 74 .cfa: sp 0 +
STACK CFI 5f20 .cfa: sp 48 +
STACK CFI 5f2c .cfa: x29 32 + x19: .cfa -8 + ^ x20: .cfa -16 + ^ .ra: .cfa -24 + ^ x29: .cfa -32 + ^
STACK CFI 5f78 .cfa: sp 48 +
STACK CFI 5f84 .cfa: sp 0 +
STACK CFI 5f88 .cfa: x29 32 +
STACK CFI INIT 5ff4 178 .cfa: sp 0 +
STACK CFI 5ff8 .cfa: sp 128 +
STACK CFI 6008 .cfa: x29 48 + x19: .cfa -8 + ^ x20: .cfa -16 + ^ x21: .cfa -24 + ^ x22: .cfa -32 + ^ .ra: .cfa -40 + ^ x29: .cfa -48 + ^
STACK CFI 6064 .cfa: sp 128 +
STACK CFI 6074 .cfa: sp 0 +
STACK CFI 6078 .cfa: x29 48 +
STACK CFI INIT 616c a4 .cfa: sp 0 +
STACK CFI 6170 .cfa: sp 48 +
STACK CFI 617c .cfa: x29 48 + x19: .cfa -8 + ^ x20: .cfa -16 + ^ x21: .cfa -32 + ^ .ra: .cfa -40 + ^ x29: .cfa -48 + ^
STACK CFI 61e8 .cfa: sp 48 +
STACK CFI 61f4 .cfa: sp 0 +
STACK CFI 61f8 .cfa: x29 48 +
STACK CFI INIT 6210 154 .cfa: sp 0 +
STACK CFI 6214 .cfa: sp 384 +
STACK CFI 6228 .cfa: x29 64 + x19: .cfa -8 + ^ x20: .cfa -16 + ^ x21: .cfa -24 + ^ x22: .cfa -32 + ^ x23: .cfa -40 + ^ x28: .cfa -48 + ^ .ra: .cfa -56 + ^ x29: .cfa -64 + ^
STACK CFI 630c .cfa: sp 384 +
STACK CFI 6320 .cfa: sp 0 +
STACK CFI 6324 .cfa: x29 64 +
STACK CFI INIT 6364 168 .cfa: sp 0 +
STACK CFI 6368 .cfa: sp 384 +
STACK CFI 637c .cfa: x29 64 + x19: .cfa -8 + ^ x20: .cfa -16 + ^ x21: .cfa -24 + ^ x22: .cfa -32 + ^ x23: .cfa -40 + ^ x28: .cfa -48 + ^ .ra: .cfa -56 + ^ x29: .cfa -64 + ^
STACK CFI 6474 .cfa: sp 384 +
STACK CFI 6488 .cfa: sp 0 +
STACK CFI 648c .cfa: x29 64 +
