MODULE Linux arm64 8E6F61F68A1C64A2DC70CBF0DDA3B2D90 user95401.robots_directional_rotation.android64.so
INFO CODE_ID F6616F8E1C8AA264DC70CBF0DDA3B2D9E958B8EA
INFO GENERATOR mozilla/dump_syms 2.3.4
PUBLIC 2be0 0 __on_dlclose
PUBLIC 2bf0 0 __emutls_unregister_key
PUBLIC 2bf8 0 __on_dlclose_late
PUBLIC 2c00 0 __atexit_handler_wrapper
PUBLIC 2c14 0 atexit
PUBLIC 2c30 0 pthread_atfork
PUBLIC 2c40 0 __aarch64_ldadd8_relax
PUBLIC 2c70 0 init_have_lse_atomics
PUBLIC 2d08 0 __init_cpu_features_constructor
PUBLIC 32a4 0 __init_cpu_features
PUBLIC 3330 0 __aarch64_ldadd8_acq_rel
PUBLIC 3360 0 __cxx_global_var_init
PUBLIC 33c4 0 __cxx_global_var_init.1
PUBLIC 3f98 0 geode::modifier::ModifyBase<geode::modifier::ModifyDerive<PlayerObjectExt, PlayerObject> >::~ModifyBase()
PUBLIC 3fb0 0 geode::modifier::ModifyDerive<PlayerObjectExt, PlayerObject>::apply()
PUBLIC 45e0 0 std::__ndk1::shared_ptr<geode::Hook>::~shared_ptr[abi:ne180000]()
PUBLIC 4630 0 geode::impl::ResultData<geode::Hook*, std::__ndk1::basic_string<char, std::__ndk1::char_traits<char>, std::__ndk1::allocator<char> > >::~ResultData()
PUBLIC 46a4 0 std::__ndk1::vector<std::__ndk1::basic_string<char, std::__ndk1::char_traits<char>, std::__ndk1::allocator<char> >, std::__ndk1::allocator<std::__ndk1::basic_string<char, std::__ndk1::char_traits<char>, std::__ndk1::allocator<char> > > >::~vector[abi:ne180000]()
PUBLIC 4720 0 geode::modifier::ModifyBase<geode::modifier::ModifyDerive<PlayerObjectExt, PlayerObject> >::apply()
PUBLIC 4724 0 __clang_call_terminate
PUBLIC 4734 0 _ZN5geode15UnwrapExceptionC2IRPNS_4HookEQsr4implE18IsStringStreamableIT_EEENS_4impl5OkTagEOS5_
PUBLIC 4e30 0 std::__ndk1::__throw_bad_variant_access[abi:ne180000]()
PUBLIC m 4e64 0 std::__ndk1::basic_stringstream<char, std::__ndk1::char_traits<char>, std::__ndk1::allocator<char> >::~basic_stringstream()
PUBLIC 4ee4 0 geode::UnwrapException::~UnwrapException()
PUBLIC 4f08 0 std::__ndk1::basic_string<char, std::__ndk1::char_traits<char>, std::__ndk1::allocator<char> >::__throw_length_error[abi:ne180000]() const
PUBLIC 4f1c 0 std::__ndk1::__throw_length_error[abi:ne180000](char const*)
PUBLIC 4f6c 0 std::length_error::length_error[abi:ne180000](char const*)
PUBLIC 4f9c 0 std::__throw_bad_array_new_length([abi:ne180000], void)
PUBLIC 4fd0 0 std::__ndk1::basic_string<char, std::__ndk1::char_traits<char>, std::__ndk1::allocator<char> >::__init_copy_ctor_external(char const*, unsigned long)
PUBLIC 504c 0 std::__ndk1::__split_buffer<std::__ndk1::basic_string<char, std::__ndk1::char_traits<char>, std::__ndk1::allocator<char> >, std::__ndk1::allocator<std::__ndk1::basic_string<char, std::__ndk1::char_traits<char>, std::__ndk1::allocator<char> > >&>::~__split_buffer()
PUBLIC 50b4 0 std::__ndk1::vector<std::__ndk1::basic_string<char, std::__ndk1::char_traits<char>, std::__ndk1::allocator<char> >, std::__ndk1::allocator<std::__ndk1::basic_string<char, std::__ndk1::char_traits<char>, std::__ndk1::allocator<char> > > >::__throw_length_error[abi:ne180000]() const
PUBLIC 50c8 0 std::__ndk1::__variant_detail::__visitation::__base::__dispatcher<(unsigned long)0>::__dispatch[abi:ne180000]<std::__ndk1::__variant_detail::__dtor<std::__ndk1::__variant_detail::__traits<geode::Hook*, std::__ndk1::basic_string<char, std::__ndk1::char_traits<char>, std::__ndk1::allocator<char> > >, (std::__ndk1::__variant_detail::_Trait)1>::__destroy[abi:ne180000]()::{lambda(auto:1&)#1}, std::__ndk1::__variant_detail::__base<(std::__ndk1::__variant_detail::__traits<geode::Hook*, std::__ndk1::basic_string<char, std::__ndk1::char_traits<char>, std::__ndk1::allocator<char> > >)1, geode::Hook, std::__ndk1::allocator<char> >&>(std::__ndk1::__variant_detail::__dtor<std::__ndk1::__variant_detail::__traits<geode::Hook*, std::__ndk1::basic_string<char, std::__ndk1::char_traits<char>, std::__ndk1::allocator<char> > >, (std::__ndk1::__variant_detail::_Trait)1>, std::__ndk1::__variant_detail::__base<(std::__ndk1::__variant_detail::__traits<geode::Hook*, std::__ndk1::basic_string<char, std::__ndk1::char_traits<char>, std::__ndk1::allocator<char> > >)1, geode::Hook, std::__ndk1::allocator<char> >&)
PUBLIC 50cc 0 std::__ndk1::__variant_detail::__visitation::__base::__dispatcher<(unsigned long)1>::__dispatch[abi:ne180000]<std::__ndk1::__variant_detail::__dtor<std::__ndk1::__variant_detail::__traits<geode::Hook*, std::__ndk1::basic_string<char, std::__ndk1::char_traits<char>, std::__ndk1::allocator<char> > >, (std::__ndk1::__variant_detail::_Trait)1>::__destroy[abi:ne180000]()::{lambda(auto:1&)#1}, std::__ndk1::__variant_detail::__base<(std::__ndk1::__variant_detail::__traits<geode::Hook*, std::__ndk1::basic_string<char, std::__ndk1::char_traits<char>, std::__ndk1::allocator<char> > >)1, geode::Hook, std::__ndk1::allocator<char> >&>(std::__ndk1::__variant_detail::__dtor<std::__ndk1::__variant_detail::__traits<geode::Hook*, std::__ndk1::basic_string<char, std::__ndk1::char_traits<char>, std::__ndk1::allocator<char> > >, (std::__ndk1::__variant_detail::_Trait)1>, std::__ndk1::__variant_detail::__base<(std::__ndk1::__variant_detail::__traits<geode::Hook*, std::__ndk1::basic_string<char, std::__ndk1::char_traits<char>, std::__ndk1::allocator<char> > >)1, geode::Hook, std::__ndk1::allocator<char> >&)
PUBLIC 50e0 0 std::__ndk1::__tree<std::__ndk1::__value_type<std::__ndk1::basic_string<char, std::__ndk1::char_traits<char>, std::__ndk1::allocator<char> >, std::__ndk1::shared_ptr<geode::Hook> >, std::__ndk1::__map_value_compare<std::__ndk1::basic_string<char, std::__ndk1::char_traits<char>, std::__ndk1::allocator<char> >, std::__ndk1::__value_type<std::__ndk1::basic_string<char, std::__ndk1::char_traits<char>, std::__ndk1::allocator<char> >, std::__ndk1::shared_ptr<geode::Hook> >, std::__ndk1::less<std::__ndk1::basic_string<char, std::__ndk1::char_traits<char>, std::__ndk1::allocator<char> > >, true>, std::__ndk1::allocator<std::__ndk1::__value_type<std::__ndk1::basic_string<char, std::__ndk1::char_traits<char>, std::__ndk1::allocator<char> >, std::__ndk1::shared_ptr<geode::Hook> > > >::destroy(std::__ndk1::__tree_node<std::__ndk1::__value_type<std::__ndk1::basic_string<char, std::__ndk1::char_traits<char>, std::__ndk1::allocator<char> >, std::__ndk1::shared_ptr<geode::Hook> >, void*>*)
PUBLIC 5164 0 geode::modifier::AsStaticFunction_updateRotation<PlayerObjectExt, void (PlayerObjectExt::*)(float)>::Impl<void (PlayerObjectExt::*)(float)>::function(PlayerObjectExt*, float)
PUBLIC 5320 0 std::__ndk1::shared_ptr<tulip::hook::CallingConvention>::~shared_ptr[abi:ne180000]()
PUBLIC 5370 0 tulip::hook::HandlerMetadata::~HandlerMetadata()
PUBLIC 53d4 0 geode::Mod::getSettingValue<bool>(std::__ndk1::basic_string_view<char, std::__ndk1::char_traits<char> >) const
PUBLIC 5504 0 geode::Mod::getSettingValue<double>(std::__ndk1::basic_string_view<char, std::__ndk1::char_traits<char> >) const
PUBLIC 5630 0 geode::cast::traverseTypeinfoFor(void*, geode::cast::ClassTypeinfoType const*, char const*)
PUBLIC m 5728 0 geodeImplicitEntry
PUBLIC 5770 0 <.plt ELF section in user95401.robots_directional_rotation.android64.so>
STACK CFI INIT 2be0 10 .cfa: sp 0 +
STACK CFI INIT 2bf0 8 .cfa: sp 0 +
STACK CFI INIT 2bf8 8 .cfa: sp 0 +
STACK CFI INIT 2c00 14 .cfa: sp 0 +
STACK CFI INIT 2c14 1c .cfa: sp 0 +
STACK CFI INIT 2c30 10 .cfa: sp 0 +
STACK CFI INIT 2c40 30 .cfa: sp 0 +
STACK CFI INIT 2c70 98 .cfa: sp 0 +
STACK CFI INIT 2d08 59c .cfa: sp 0 +
STACK CFI INIT 32a4 8c .cfa: sp 0 +
STACK CFI INIT 3330 30 .cfa: sp 0 +
STACK CFI INIT 3360 64 .cfa: sp 0 +
STACK CFI 3364 .cfa: sp 32 +
STACK CFI 336c .cfa: x29 32 + x19: .cfa -16 + ^ .ra: .cfa -24 + ^ x29: .cfa -32 + ^
STACK CFI 33ac .cfa: sp 32 +
STACK CFI 33b4 .cfa: sp 0 +
STACK CFI 33b8 .cfa: sp 32 +
STACK CFI 33c0 .cfa: sp 0 +
STACK CFI INIT 3f98 18 .cfa: sp 0 +
STACK CFI INIT 45e0 50 .cfa: sp 0 +
STACK CFI 45e4 .cfa: sp 32 +
STACK CFI 45ec .cfa: x29 32 + x19: .cfa -16 + ^ .ra: .cfa -24 + ^ x29: .cfa -32 + ^
STACK CFI 4604 .cfa: sp 32 +
STACK CFI 460c .cfa: sp 0 +
STACK CFI 4610 .cfa: x29 32 +
STACK CFI 4624 .cfa: sp 32 +
STACK CFI 462c .cfa: sp 0 +
STACK CFI INIT 46a4 7c .cfa: sp 0 +
STACK CFI 46a8 .cfa: sp 48 +
STACK CFI 46b4 .cfa: x29 48 + x19: .cfa -8 + ^ x20: .cfa -16 + ^ x21: .cfa -32 + ^ .ra: .cfa -40 + ^ x29: .cfa -48 + ^
STACK CFI 4700 .cfa: sp 48 +
STACK CFI 470c .cfa: sp 0 +
STACK CFI 4710 .cfa: sp 48 +
STACK CFI 471c .cfa: sp 0 +
STACK CFI INIT 4720 4 .cfa: sp 0 +
STACK CFI INIT 4724 10 .cfa: sp 0 +
STACK CFI 4728 .cfa: sp 16 +
STACK CFI 472c .cfa: x29 16 + .ra: .cfa -8 + ^ x29: .cfa -16 + ^
STACK CFI INIT 4e30 34 .cfa: sp 0 +
STACK CFI 4e34 .cfa: sp 16 +
STACK CFI 4e38 .cfa: x29 16 + .ra: .cfa -8 + ^ x29: .cfa -16 + ^
STACK CFI INIT 4e64 80 .cfa: sp 0 +
STACK CFI 4e68 .cfa: sp 48 +
STACK CFI 4e74 .cfa: x29 48 + x19: .cfa -8 + ^ x20: .cfa -16 + ^ x21: .cfa -32 + ^ .ra: .cfa -40 + ^ x29: .cfa -48 + ^
STACK CFI 4ed4 .cfa: sp 48 +
STACK CFI 4ee0 .cfa: sp 0 +
STACK CFI INIT 4ee4 24 .cfa: sp 0 +
STACK CFI 4ee8 .cfa: sp 32 +
STACK CFI 4ef0 .cfa: x29 32 + x19: .cfa -16 + ^ .ra: .cfa -24 + ^ x29: .cfa -32 + ^
STACK CFI 4efc .cfa: sp 32 +
STACK CFI 4f04 .cfa: sp 0 +
STACK CFI INIT 4f08 14 .cfa: sp 0 +
STACK CFI 4f0c .cfa: sp 16 +
STACK CFI 4f10 .cfa: x29 16 + .ra: .cfa -8 + ^ x29: .cfa -16 + ^
STACK CFI INIT 4f6c 30 .cfa: sp 0 +
STACK CFI 4f70 .cfa: sp 32 +
STACK CFI 4f78 .cfa: x29 32 + x19: .cfa -16 + ^ .ra: .cfa -24 + ^ x29: .cfa -32 + ^
STACK CFI 4f90 .cfa: sp 32 +
STACK CFI 4f98 .cfa: sp 0 +
STACK CFI INIT 4f9c 34 .cfa: sp 0 +
STACK CFI 4fa0 .cfa: sp 32 +
STACK CFI 4fa8 .cfa: x29 32 + x19: .cfa -16 + ^ .ra: .cfa -24 + ^ x29: .cfa -32 + ^
STACK CFI INIT 4fd0 7c .cfa: sp 0 +
STACK CFI 4fd4 .cfa: sp 48 +
STACK CFI 4fe0 .cfa: x29 48 + x19: .cfa -8 + ^ x20: .cfa -16 + ^ x21: .cfa -24 + ^ x22: .cfa -32 + ^ .ra: .cfa -40 + ^ x29: .cfa -48 + ^
STACK CFI 4ff8 .cfa: sp 48 +
STACK CFI 5004 .cfa: sp 0 +
STACK CFI 5008 .cfa: x29 48 +
STACK CFI 5038 .cfa: sp 48 +
STACK CFI 5044 .cfa: sp 0 +
STACK CFI 5048 .cfa: x29 48 +
STACK CFI INIT 504c 68 .cfa: sp 0 +
STACK CFI 5050 .cfa: sp 32 +
STACK CFI 5058 .cfa: x29 32 + x19: .cfa -8 + ^ x20: .cfa -16 + ^ .ra: .cfa -24 + ^ x29: .cfa -32 + ^
STACK CFI 5070 .cfa: sp 32 +
STACK CFI 5078 .cfa: sp 0 +
STACK CFI 507c .cfa: x29 32 +
STACK CFI 50a8 .cfa: sp 32 +
STACK CFI 50b0 .cfa: sp 0 +
STACK CFI INIT 50b4 14 .cfa: sp 0 +
STACK CFI 50b8 .cfa: sp 16 +
STACK CFI 50bc .cfa: x29 16 + .ra: .cfa -8 + ^ x29: .cfa -16 + ^
STACK CFI INIT 50c8 4 .cfa: sp 0 +
STACK CFI INIT 50cc 14 .cfa: sp 0 +
STACK CFI INIT 50e0 84 .cfa: sp 0 +
STACK CFI 50e8 .cfa: sp 32 +
STACK CFI 50f0 .cfa: x29 32 + x19: .cfa -8 + ^ x20: .cfa -16 + ^ .ra: .cfa -24 + ^ x29: .cfa -32 + ^
STACK CFI 5130 .cfa: sp 32 +
STACK CFI 5138 .cfa: sp 0 +
STACK CFI 5140 .cfa: x29 32 +
STACK CFI INIT 5164 1bc .cfa: sp 0 +
STACK CFI 5168 .cfa: sp 64 +
STACK CFI 5178 .cfa: x29 48 + x19: .cfa -8 + ^ x20: .cfa -16 + ^ x21: .cfa -24 + ^ x22: .cfa -32 + ^ .ra: .cfa -40 + ^ x29: .cfa -48 + ^ v8: .cfa -64 + ^
STACK CFI 52a4 .cfa: sp 64 +
STACK CFI 52b4 .cfa: sp 0 +
STACK CFI 52b8 .cfa: x29 48 +
STACK CFI 530c .cfa: sp 64 +
STACK CFI 531c .cfa: sp 0 +
STACK CFI INIT 5320 50 .cfa: sp 0 +
STACK CFI 5324 .cfa: sp 32 +
STACK CFI 532c .cfa: x29 32 + x19: .cfa -16 + ^ .ra: .cfa -24 + ^ x29: .cfa -32 + ^
STACK CFI 5344 .cfa: sp 32 +
STACK CFI 534c .cfa: sp 0 +
STACK CFI 5350 .cfa: x29 32 +
STACK CFI 5364 .cfa: sp 32 +
STACK CFI 536c .cfa: sp 0 +
STACK CFI INIT 5370 64 .cfa: sp 0 +
STACK CFI 5374 .cfa: sp 32 +
STACK CFI 537c .cfa: x29 32 + x19: .cfa -16 + ^ .ra: .cfa -24 + ^ x29: .cfa -32 + ^
STACK CFI 53a8 .cfa: sp 32 +
STACK CFI 53b0 .cfa: sp 0 +
STACK CFI 53b4 .cfa: x29 32 +
STACK CFI 53c8 .cfa: sp 32 +
STACK CFI 53d0 .cfa: sp 0 +
STACK CFI INIT 53d4 130 .cfa: sp 0 +
STACK CFI 53d8 .cfa: sp 80 +
STACK CFI 53e8 .cfa: x29 48 + x19: .cfa -8 + ^ x20: .cfa -16 + ^ x21: .cfa -24 + ^ x22: .cfa -32 + ^ .ra: .cfa -40 + ^ x29: .cfa -48 + ^
STACK CFI 54ec .cfa: sp 80 +
STACK CFI 54fc .cfa: sp 0 +
STACK CFI 5500 .cfa: x29 48 +
STACK CFI INIT 5504 12c .cfa: sp 0 +
STACK CFI 5508 .cfa: sp 96 +
STACK CFI 551c .cfa: x29 48 + x19: .cfa -8 + ^ x20: .cfa -16 + ^ x21: .cfa -24 + ^ x22: .cfa -32 + ^ .ra: .cfa -40 + ^ x29: .cfa -48 + ^ v8: .cfa -64 + ^
STACK CFI 5614 .cfa: sp 96 +
STACK CFI 5628 .cfa: sp 0 +
STACK CFI 562c .cfa: x29 48 +
STACK CFI INIT 5630 f8 .cfa: sp 0 +
STACK CFI 5634 .cfa: sp 64 +
STACK CFI 5644 .cfa: x29 64 + x19: .cfa -8 + ^ x20: .cfa -16 + ^ x21: .cfa -24 + ^ x22: .cfa -32 + ^ x23: .cfa -48 + ^ .ra: .cfa -56 + ^ x29: .cfa -64 + ^
STACK CFI 56a0 .cfa: sp 64 +
STACK CFI 56b0 .cfa: sp 0 +
STACK CFI 56b4 .cfa: x29 64 +
STACK CFI 56d0 .cfa: sp 64 +
STACK CFI 56e0 .cfa: sp 0 +
STACK CFI 56e4 .cfa: x29 64 +
STACK CFI 5714 .cfa: sp 64 +
STACK CFI 5724 .cfa: sp 0 +
STACK CFI INIT 5728 3c .cfa: sp 0 +
STACK CFI 572c .cfa: sp 32 +
STACK CFI 5734 .cfa: x29 32 + x19: .cfa -16 + ^ .ra: .cfa -24 + ^ x29: .cfa -32 + ^
STACK CFI 5740 .cfa: sp 32 +
STACK CFI 5748 .cfa: sp 0 +
STACK CFI 574c .cfa: x29 32 +
STACK CFI 5758 .cfa: sp 32 +
STACK CFI 5760 .cfa: sp 0 +
STACK CFI INIT 33c4 bd4 .cfa: sp 0 +
STACK CFI 33c8 .cfa: sp 240 +
STACK CFI 33e4 .cfa: x29 96 + x19: .cfa -8 + ^ x20: .cfa -16 + ^ x21: .cfa -24 + ^ x22: .cfa -32 + ^ x23: .cfa -40 + ^ x24: .cfa -48 + ^ x25: .cfa -56 + ^ x26: .cfa -64 + ^ x27: .cfa -72 + ^ x28: .cfa -80 + ^ .ra: .cfa -88 + ^ x29: .cfa -96 + ^
STACK CFI 37c0 .cfa: sp 240 +
STACK CFI 37dc .cfa: sp 0 +
STACK CFI 37e0 .cfa: x29 96 +
STACK CFI 3e40 .cfa: sp 240 +
STACK CFI 3e5c .cfa: sp 0 +
STACK CFI 3e60 .cfa: x29 96 +
STACK CFI INIT 3fb0 630 .cfa: sp 0 +
STACK CFI 3fb4 .cfa: sp 288 +
STACK CFI 3fd0 .cfa: x29 96 + x19: .cfa -8 + ^ x20: .cfa -16 + ^ x21: .cfa -24 + ^ x22: .cfa -32 + ^ x23: .cfa -40 + ^ x24: .cfa -48 + ^ x25: .cfa -56 + ^ x26: .cfa -64 + ^ x27: .cfa -72 + ^ x28: .cfa -80 + ^ .ra: .cfa -88 + ^ x29: .cfa -96 + ^
STACK CFI 44b4 .cfa: sp 288 +
STACK CFI 44d0 .cfa: sp 0 +
STACK CFI 44d4 .cfa: x29 96 +
STACK CFI INIT 4630 74 .cfa: sp 0 +
STACK CFI 4634 .cfa: sp 48 +
STACK CFI 4640 .cfa: x29 32 + x19: .cfa -8 + ^ x20: .cfa -16 + ^ .ra: .cfa -24 + ^ x29: .cfa -32 + ^
STACK CFI 468c .cfa: sp 48 +
STACK CFI 4698 .cfa: sp 0 +
STACK CFI 469c .cfa: x29 32 +
STACK CFI INIT 4734 6fc .cfa: sp 0 +
STACK CFI 4738 .cfa: sp 496 +
STACK CFI 4754 .cfa: x29 96 + x19: .cfa -8 + ^ x20: .cfa -16 + ^ x21: .cfa -24 + ^ x22: .cfa -32 + ^ x23: .cfa -40 + ^ x24: .cfa -48 + ^ x25: .cfa -56 + ^ x26: .cfa -64 + ^ x27: .cfa -72 + ^ x28: .cfa -80 + ^ .ra: .cfa -88 + ^ x29: .cfa -96 + ^
STACK CFI 4d04 .cfa: sp 496 +
STACK CFI 4d20 .cfa: sp 0 +
STACK CFI 4d24 .cfa: x29 96 +
STACK CFI INIT 4f1c 50 .cfa: sp 0 +
STACK CFI 4f20 .cfa: sp 32 +
STACK CFI 4f28 .cfa: x29 32 + x19: .cfa -8 + ^ x20: .cfa -16 + ^ .ra: .cfa -24 + ^ x29: .cfa -32 + ^
