MODULE Linux arm64 FBA009E56C04C58C1C087942C22350190 raydeeux_limegradient.warbledcompletions.android64.so
INFO CODE_ID E509A0FB046C8CC51C087942C2235019E687540E
INFO GENERATOR mozilla/dump_syms 2.3.4
PUBLIC cbc0 0 __on_dlclose
PUBLIC cbd0 0 __emutls_unregister_key
PUBLIC cbd8 0 __on_dlclose_late
PUBLIC cbe0 0 __atexit_handler_wrapper
PUBLIC cbf4 0 atexit
PUBLIC cc10 0 pthread_atfork
PUBLIC cc20 0 unwind_phase2
PUBLIC cd54 0 _Unwind_Resume
PUBLIC cdd8 0 unwind_phase2_forced
PUBLIC m cecc 0 __unw_init_local
PUBLIC m cf74 0 __unw_get_reg
PUBLIC cff0 0 __unw_step_stage2
PUBLIC m d004 0 __unw_get_proc_info
PUBLIC m d044 0 __unw_resume
PUBLIC d06c 0 libunwind::CFI_Parser<libunwind::LocalAddressSpace>::decodeFDE(libunwind::LocalAddressSpace&, unsigned long, libunwind::CFI_Parser<libunwind::LocalAddressSpace>::FDE_Info*, libunwind::CFI_Parser<libunwind::LocalAddressSpace>::CIE_Info*, bool)
PUBLIC d1fc 0 libunwind::CFI_Parser<libunwind::LocalAddressSpace>::parseCIE(libunwind::LocalAddressSpace&, unsigned long, libunwind::CFI_Parser<libunwind::LocalAddressSpace>::CIE_Info*)
PUBLIC d4c4 0 libunwind::AbstractUnwindCursor::~AbstractUnwindCursor()
PUBLIC d4cc 0 libunwind::UnwindCursor<libunwind::LocalAddressSpace, libunwind::Registers_arm64>::~UnwindCursor()
PUBLIC d4d4 0 libunwind::UnwindCursor<libunwind::LocalAddressSpace, libunwind::Registers_arm64>::validReg(int)
PUBLIC d518 0 libunwind::UnwindCursor<libunwind::LocalAddressSpace, libunwind::Registers_arm64>::getReg(int)
PUBLIC d600 0 libunwind::UnwindCursor<libunwind::LocalAddressSpace, libunwind::Registers_arm64>::setReg(int, unsigned long)
PUBLIC d6e8 0 libunwind::UnwindCursor<libunwind::LocalAddressSpace, libunwind::Registers_arm64>::validFloatReg(int)
PUBLIC d6fc 0 libunwind::UnwindCursor<libunwind::LocalAddressSpace, libunwind::Registers_arm64>::getFloatReg(int)
PUBLIC d70c 0 libunwind::UnwindCursor<libunwind::LocalAddressSpace, libunwind::Registers_arm64>::setFloatReg(int, double)
PUBLIC d71c 0 libunwind::UnwindCursor<libunwind::LocalAddressSpace, libunwind::Registers_arm64>::step(bool)
PUBLIC d80c 0 libunwind::UnwindCursor<libunwind::LocalAddressSpace, libunwind::Registers_arm64>::getInfo(unw_proc_info_t*)
PUBLIC d850 0 libunwind::UnwindCursor<libunwind::LocalAddressSpace, libunwind::Registers_arm64>::jumpto()
PUBLIC d85c 0 libunwind::UnwindCursor<libunwind::LocalAddressSpace, libunwind::Registers_arm64>::isSignalFrame()
PUBLIC d868 0 libunwind::UnwindCursor<libunwind::LocalAddressSpace, libunwind::Registers_arm64>::getFunctionName(char*, unsigned long, unsigned long*)
PUBLIC d894 0 libunwind::UnwindCursor<libunwind::LocalAddressSpace, libunwind::Registers_arm64>::setInfoBasedOnIPRegister(bool)
PUBLIC db14 0 libunwind::UnwindCursor<libunwind::LocalAddressSpace, libunwind::Registers_arm64>::getRegisterName(int)
PUBLIC db20 0 libunwind::UnwindCursor<libunwind::LocalAddressSpace, libunwind::Registers_arm64>::stepThroughSigReturn(libunwind::Registers_arm64&)
PUBLIC dc40 0 libunwind::DwarfInstructions<libunwind::LocalAddressSpace, libunwind::Registers_arm64>::stepWithDwarf(libunwind::LocalAddressSpace&, unsigned long, unsigned long, libunwind::Registers_arm64&, bool&, bool)
PUBLIC e0c8 0 libunwind::CFI_Parser<libunwind::LocalAddressSpace>::parseFDEInstructions(libunwind::LocalAddressSpace&, libunwind::CFI_Parser<libunwind::LocalAddressSpace>::FDE_Info const&, libunwind::CFI_Parser<libunwind::LocalAddressSpace>::CIE_Info const&, unsigned long, int, libunwind::CFI_Parser<libunwind::LocalAddressSpace>::PrologInfo*)
PUBLIC ed10 0 libunwind::DwarfInstructions<libunwind::LocalAddressSpace, libunwind::Registers_arm64>::getCFA(libunwind::LocalAddressSpace&, libunwind::CFI_Parser<libunwind::LocalAddressSpace>::PrologInfo const&, libunwind::Registers_arm64 const&)
PUBLIC ee44 0 libunwind::DwarfInstructions<libunwind::LocalAddressSpace, libunwind::Registers_arm64>::getSavedRegister(libunwind::LocalAddressSpace&, libunwind::Registers_arm64 const&, unsigned long, libunwind::CFI_Parser<libunwind::LocalAddressSpace>::RegisterLocation const&)
PUBLIC f054 0 libunwind::LocalAddressSpace::getEncodedP(unsigned long&, unsigned long, unsigned char, unsigned long)
PUBLIC f3e0 0 libunwind::LocalAddressSpace::getULEB128(unsigned long&, unsigned long)
PUBLIC f5a8 0 libunwind::DwarfInstructions<libunwind::LocalAddressSpace, libunwind::Registers_arm64>::evaluateExpression(unsigned long, libunwind::LocalAddressSpace&, libunwind::Registers_arm64 const&, unsigned long)
PUBLIC ff64 0 libunwind::UnwindCursor<libunwind::LocalAddressSpace, libunwind::Registers_arm64>::getInfoFromDwarfSection(unsigned long, libunwind::UnwindInfoSections const&, unsigned int)
PUBLIC 10238 0 libunwind::findUnwindSectionsByPhdr(dl_phdr_info*, unsigned long, void*)
PUBLIC 1036c 0 libunwind::EHHeaderParser<libunwind::LocalAddressSpace>::decodeEHHdr(libunwind::LocalAddressSpace&, unsigned long, unsigned long, libunwind::EHHeaderParser<libunwind::LocalAddressSpace>::EHHeaderInfo&)
PUBLIC 1048c 0 libunwind::CFI_Parser<libunwind::LocalAddressSpace>::findFDE(libunwind::LocalAddressSpace&, unsigned long, unsigned long, unsigned long, unsigned long, libunwind::CFI_Parser<libunwind::LocalAddressSpace>::FDE_Info*, libunwind::CFI_Parser<libunwind::LocalAddressSpace>::CIE_Info*)
PUBLIC 10654 0 libunwind::EHHeaderParser<libunwind::LocalAddressSpace>::findFDE(libunwind::LocalAddressSpace&, unsigned long, unsigned long, unsigned int, libunwind::CFI_Parser<libunwind::LocalAddressSpace>::FDE_Info*, libunwind::CFI_Parser<libunwind::LocalAddressSpace>::CIE_Info*)
PUBLIC 107bc 0 libunwind::EHHeaderParser<libunwind::LocalAddressSpace>::getTableEntrySize(unsigned char)
PUBLIC 108b8 0 libunwind::Registers_arm64::getRegisterName(int)
PUBLIC 108e8 0 __libunwind_Registers_arm64_jumpto
PUBLIC m 10978 0 __unw_getcontext
PUBLIC 10a20 0 __aarch64_ldadd8_relax
PUBLIC 10a50 0 init_have_lse_atomics
PUBLIC 10ae8 0 __init_cpu_features_constructor
PUBLIC 11084 0 __init_cpu_features
PUBLIC 11110 0 __aarch64_ldadd8_acq_rel
PUBLIC 11140 0 std::__ndk1::__fs::filesystem::path::~path[abi:ne180000]()
PUBLIC 11154 0 __cxx_global_var_init.2
PUBLIC 11ecc 0 geode::modifier::ModifyBase<geode::modifier::ModifyDerive<SharingEndLevelLayer, EndLevelLayer> >::~ModifyBase()
PUBLIC 11ee4 0 std::__ndk1::basic_string<char, std::__ndk1::char_traits<char>, std::__ndk1::allocator<char> >::__init_copy_ctor_external(char const*, unsigned long)
PUBLIC 11f64 0 std::__ndk1::basic_string<char, std::__ndk1::char_traits<char>, std::__ndk1::allocator<char> >::__throw_length_error[abi:ne180000]() const
PUBLIC 11f78 0 std::__ndk1::__throw_length_error[abi:ne180000](char const*)
PUBLIC 11fc8 0 std::length_error::length_error[abi:ne180000](char const*)
PUBLIC 11ff8 0 std::__throw_bad_array_new_length([abi:ne180000], void)
PUBLIC 1202c 0 __clang_call_terminate
PUBLIC 1203c 0 geode::modifier::ModifyDerive<SharingEndLevelLayer, EndLevelLayer>::apply()
PUBLIC 12474 0 std::__ndk1::shared_ptr<geode::Hook>::~shared_ptr[abi:ne180000]()
PUBLIC 124c4 0 geode::impl::ResultData<geode::Hook*, std::__ndk1::basic_string<char, std::__ndk1::char_traits<char>, std::__ndk1::allocator<char> > >::~ResultData()
PUBLIC 12538 0 std::__ndk1::vector<std::__ndk1::basic_string<char, std::__ndk1::char_traits<char>, std::__ndk1::allocator<char> >, std::__ndk1::allocator<std::__ndk1::basic_string<char, std::__ndk1::char_traits<char>, std::__ndk1::allocator<char> > > >::~vector[abi:ne180000]()
PUBLIC 125b4 0 geode::modifier::ModifyBase<geode::modifier::ModifyDerive<SharingEndLevelLayer, EndLevelLayer> >::apply()
PUBLIC 125b8 0 std::__ndk1::__tree<std::__ndk1::__value_type<std::__ndk1::basic_string<char, std::__ndk1::char_traits<char>, std::__ndk1::allocator<char> >, std::__ndk1::shared_ptr<geode::Hook> >, std::__ndk1::__map_value_compare<std::__ndk1::basic_string<char, std::__ndk1::char_traits<char>, std::__ndk1::allocator<char> >, std::__ndk1::__value_type<std::__ndk1::basic_string<char, std::__ndk1::char_traits<char>, std::__ndk1::allocator<char> >, std::__ndk1::shared_ptr<geode::Hook> >, std::__ndk1::less<std::__ndk1::basic_string<char, std::__ndk1::char_traits<char>, std::__ndk1::allocator<char> > >, true>, std::__ndk1::allocator<std::__ndk1::__value_type<std::__ndk1::basic_string<char, std::__ndk1::char_traits<char>, std::__ndk1::allocator<char> >, std::__ndk1::shared_ptr<geode::Hook> > > >::find<std::__ndk1::basic_string<char, std::__ndk1::char_traits<char>, std::__ndk1::allocator<char> > >(std::__ndk1::basic_string<char, std::__ndk1::char_traits<char>, std::__ndk1::allocator<char> > const&)
PUBLIC 126dc 0 std::__ndk1::unique_ptr<std::__ndk1::__tree_node<std::__ndk1::__value_type<std::__ndk1::basic_string<char, std::__ndk1::char_traits<char>, std::__ndk1::allocator<char> >, std::__ndk1::shared_ptr<geode::Hook> >, void*>, std::__ndk1::__tree_node_destructor<std::__ndk1::allocator<std::__ndk1::__tree_node<std::__ndk1::__value_type<std::__ndk1::basic_string<char, std::__ndk1::char_traits<char>, std::__ndk1::allocator<char> >, std::__ndk1::shared_ptr<geode::Hook> >, void*> > > >::~unique_ptr[abi:ne180000]()
PUBLIC 12758 0 std::__ndk1::__tree_balance_after_insert[abi:ne180000]<std::__ndk1::__tree_node_base<void*>*>(std::__ndk1::__tree_node_base<void*>*, std::__ndk1::__tree_node_base<void*>*)
PUBLIC 12908 0 _ZN5geode15UnwrapExceptionC2IRPNS_4HookEQsr4implE18IsStringStreamableIT_EEENS_4impl5OkTagEOS5_
PUBLIC 12a5c 0 std::__ndk1::__throw_bad_variant_access[abi:ne180000]()
PUBLIC 12a90 0 std::__ndk1::basic_stringstream<char, std::__ndk1::char_traits<char>, std::__ndk1::allocator<char> >::basic_stringstream[abi:ne180000]()
PUBLIC m 12bbc 0 std::__ndk1::basic_stringstream<char, std::__ndk1::char_traits<char>, std::__ndk1::allocator<char> >::~basic_stringstream()
PUBLIC 12c3c 0 geode::UnwrapException::~UnwrapException()
PUBLIC 12c60 0 std::__ndk1::__put_character_sequence[abi:ne180000]<char, std::__ndk1::char_traits<char> >(std::__ndk1::basic_ostream<char, std::__ndk1::char_traits<char> >, std::__ndk1::basic_ostream const*, unsigned long)
PUBLIC 12e04 0 std::__ndk1::__pad_and_output[abi:ne180000]<char, std::__ndk1::char_traits<char> >(std::__ndk1::char_traits<char>, std::__ndk1::ostreambuf_iterator const*, std::__ndk1::ostreambuf_iterator const, std::__ndk1::ostreambuf_iterator const, std::__ndk1::ios_base&, std::__ndk1::ostreambuf_iterator)
PUBLIC 12fe0 0 std::__ndk1::basic_stringbuf<char, std::__ndk1::char_traits<char>, std::__ndk1::allocator<char> >::str[abi:ne180000]() &&
PUBLIC 13158 0 std::__ndk1::basic_stringbuf<char, std::__ndk1::char_traits<char>, std::__ndk1::allocator<char> >::__init_buf_ptrs[abi:ne180000]()
PUBLIC 132a0 0 _ZN5geode15UnwrapExceptionC2IRNSt6__ndk112basic_stringIcNS2_11char_traitsIcEENS2_9allocatorIcEEEEQsr4implE18IsStringStreamableIT_EEENS_4impl6ErrTagEOSA_
PUBLIC 13408 0 std::__ndk1::__variant_detail::__visitation::__base::__dispatcher<(unsigned long)0>::__dispatch[abi:ne180000]<std::__ndk1::__variant_detail::__dtor<std::__ndk1::__variant_detail::__traits<std::__ndk1::monostate, std::__ndk1::basic_string<char, std::__ndk1::char_traits<char>, std::__ndk1::allocator<char> > >, (std::__ndk1::__variant_detail::_Trait)1>::__destroy[abi:ne180000]()::{lambda(auto:1&)#1}, std::__ndk1::__variant_detail::__base<(std::__ndk1::__variant_detail::__traits<std::__ndk1::monostate, std::__ndk1::basic_string<char, std::__ndk1::char_traits<char>, std::__ndk1::allocator<char> > >)1, std::__ndk1::__variant_detail::__traits, std::__ndk1::allocator<char> >&>(std::__ndk1::__variant_detail::__dtor<std::__ndk1::__variant_detail::__traits<std::__ndk1::monostate, std::__ndk1::basic_string<char, std::__ndk1::char_traits<char>, std::__ndk1::allocator<char> > >, (std::__ndk1::__variant_detail::_Trait)1>, std::__ndk1::__variant_detail::__base<(std::__ndk1::__variant_detail::__traits<std::__ndk1::monostate, std::__ndk1::basic_string<char, std::__ndk1::char_traits<char>, std::__ndk1::allocator<char> > >)1, std::__ndk1::__variant_detail::__traits, std::__ndk1::allocator<char> >&)
PUBLIC 1340c 0 std::__ndk1::__variant_detail::__visitation::__base::__dispatcher<(unsigned long)1>::__dispatch[abi:ne180000]<std::__ndk1::__variant_detail::__dtor<std::__ndk1::__variant_detail::__traits<std::__ndk1::monostate, std::__ndk1::basic_string<char, std::__ndk1::char_traits<char>, std::__ndk1::allocator<char> > >, (std::__ndk1::__variant_detail::_Trait)1>::__destroy[abi:ne180000]()::{lambda(auto:1&)#1}, std::__ndk1::__variant_detail::__base<(std::__ndk1::__variant_detail::__traits<std::__ndk1::monostate, std::__ndk1::basic_string<char, std::__ndk1::char_traits<char>, std::__ndk1::allocator<char> > >)1, std::__ndk1::__variant_detail::__traits, std::__ndk1::allocator<char> >&>(std::__ndk1::__variant_detail::__dtor<std::__ndk1::__variant_detail::__traits<std::__ndk1::monostate, std::__ndk1::basic_string<char, std::__ndk1::char_traits<char>, std::__ndk1::allocator<char> > >, (std::__ndk1::__variant_detail::_Trait)1>, std::__ndk1::__variant_detail::__base<(std::__ndk1::__variant_detail::__traits<std::__ndk1::monostate, std::__ndk1::basic_string<char, std::__ndk1::char_traits<char>, std::__ndk1::allocator<char> > >)1, std::__ndk1::__variant_detail::__traits, std::__ndk1::allocator<char> >&)
PUBLIC 13420 0 std::__ndk1::__split_buffer<std::__ndk1::basic_string<char, std::__ndk1::char_traits<char>, std::__ndk1::allocator<char> >, std::__ndk1::allocator<std::__ndk1::basic_string<char, std::__ndk1::char_traits<char>, std::__ndk1::allocator<char> > >&>::~__split_buffer()
PUBLIC 13488 0 std::__ndk1::vector<std::__ndk1::basic_string<char, std::__ndk1::char_traits<char>, std::__ndk1::allocator<char> >, std::__ndk1::allocator<std::__ndk1::basic_string<char, std::__ndk1::char_traits<char>, std::__ndk1::allocator<char> > > >::__throw_length_error[abi:ne180000]() const
PUBLIC 1349c 0 std::__ndk1::__variant_detail::__visitation::__base::__dispatcher<(unsigned long)0>::__dispatch[abi:ne180000]<std::__ndk1::__variant_detail::__dtor<std::__ndk1::__variant_detail::__traits<geode::Hook*, std::__ndk1::basic_string<char, std::__ndk1::char_traits<char>, std::__ndk1::allocator<char> > >, (std::__ndk1::__variant_detail::_Trait)1>::__destroy[abi:ne180000]()::{lambda(auto:1&)#1}, std::__ndk1::__variant_detail::__base<(std::__ndk1::__variant_detail::__traits<geode::Hook*, std::__ndk1::basic_string<char, std::__ndk1::char_traits<char>, std::__ndk1::allocator<char> > >)1, geode::Hook, std::__ndk1::allocator<char> >&>(std::__ndk1::__variant_detail::__dtor<std::__ndk1::__variant_detail::__traits<geode::Hook*, std::__ndk1::basic_string<char, std::__ndk1::char_traits<char>, std::__ndk1::allocator<char> > >, (std::__ndk1::__variant_detail::_Trait)1>, std::__ndk1::__variant_detail::__base<(std::__ndk1::__variant_detail::__traits<geode::Hook*, std::__ndk1::basic_string<char, std::__ndk1::char_traits<char>, std::__ndk1::allocator<char> > >)1, geode::Hook, std::__ndk1::allocator<char> >&)
PUBLIC 134a0 0 std::__ndk1::__variant_detail::__visitation::__base::__dispatcher<(unsigned long)1>::__dispatch[abi:ne180000]<std::__ndk1::__variant_detail::__dtor<std::__ndk1::__variant_detail::__traits<geode::Hook*, std::__ndk1::basic_string<char, std::__ndk1::char_traits<char>, std::__ndk1::allocator<char> > >, (std::__ndk1::__variant_detail::_Trait)1>::__destroy[abi:ne180000]()::{lambda(auto:1&)#1}, std::__ndk1::__variant_detail::__base<(std::__ndk1::__variant_detail::__traits<geode::Hook*, std::__ndk1::basic_string<char, std::__ndk1::char_traits<char>, std::__ndk1::allocator<char> > >)1, geode::Hook, std::__ndk1::allocator<char> >&>(std::__ndk1::__variant_detail::__dtor<std::__ndk1::__variant_detail::__traits<geode::Hook*, std::__ndk1::basic_string<char, std::__ndk1::char_traits<char>, std::__ndk1::allocator<char> > >, (std::__ndk1::__variant_detail::_Trait)1>, std::__ndk1::__variant_detail::__base<(std::__ndk1::__variant_detail::__traits<geode::Hook*, std::__ndk1::basic_string<char, std::__ndk1::char_traits<char>, std::__ndk1::allocator<char> > >)1, geode::Hook, std::__ndk1::allocator<char> >&)
PUBLIC 134b4 0 std::__ndk1::__tree<std::__ndk1::__value_type<std::__ndk1::basic_string<char, std::__ndk1::char_traits<char>, std::__ndk1::allocator<char> >, std::__ndk1::shared_ptr<geode::Hook> >, std::__ndk1::__map_value_compare<std::__ndk1::basic_string<char, std::__ndk1::char_traits<char>, std::__ndk1::allocator<char> >, std::__ndk1::__value_type<std::__ndk1::basic_string<char, std::__ndk1::char_traits<char>, std::__ndk1::allocator<char> >, std::__ndk1::shared_ptr<geode::Hook> >, std::__ndk1::less<std::__ndk1::basic_string<char, std::__ndk1::char_traits<char>, std::__ndk1::allocator<char> > >, true>, std::__ndk1::allocator<std::__ndk1::__value_type<std::__ndk1::basic_string<char, std::__ndk1::char_traits<char>, std::__ndk1::allocator<char> >, std::__ndk1::shared_ptr<geode::Hook> > > >::destroy(std::__ndk1::__tree_node<std::__ndk1::__value_type<std::__ndk1::basic_string<char, std::__ndk1::char_traits<char>, std::__ndk1::allocator<char> >, std::__ndk1::shared_ptr<geode::Hook> >, void*>*)
PUBLIC 13538 0 geode::modifier::AsStaticFunction_customSetup<SharingEndLevelLayer, void (SharingEndLevelLayer::*)()>::Impl<void (SharingEndLevelLayer::*)()>::function(SharingEndLevelLayer*)
PUBLIC 13804 0 geode::addresser::Addresser::addressOfVirtual<void, EndLevelLayer, >(void (EndLevelLayer::*)())
PUBLIC 138ac 0 EndLevelLayer::EndLevelLayer(geode::ZeroConstructorType)
PUBLIC 1393c 0 std::__ndk1::shared_ptr<tulip::hook::CallingConvention>::~shared_ptr[abi:ne180000]()
PUBLIC 1398c 0 tulip::hook::HandlerMetadata::~HandlerMetadata()
PUBLIC 139f0 0 SharingEndLevelLayer::addTwitter(cocos2d::CCMenu*)
PUBLIC 13b94 0 SharingEndLevelLayer::addRedditIfNotRobTopLevel(cocos2d::CCMenu*)
PUBLIC 13d4c 0 SharingEndLevelLayer::addBluesky(cocos2d::CCMenu*)
PUBLIC 14098 0 SharingEndLevelLayer::addMastodon(cocos2d::CCMenu*)
PUBLIC 1423c 0 SharingEndLevelLayer::addDiscord(cocos2d::CCMenu*)
PUBLIC 14424 0 SharingEndLevelLayer::addWeb(cocos2d::CCMenu*)
PUBLIC 145dc 0 SharingEndLevelLayer::addScreenshot(cocos2d::CCMenu*)
PUBLIC 14780 0 geode::Mod::getSettingValue<bool>(std::__ndk1::basic_string_view<char, std::__ndk1::char_traits<char> >) const
PUBLIC 148b0 0 geode::cast::traverseTypeinfoFor(void*, geode::cast::ClassTypeinfoType const*, char const*)
PUBLIC 149a8 0 SharingEndLevelLayer::onTweet(cocos2d::CCObject*)
PUBLIC 14c10 0 SharingEndLevelLayer::shareCompletionTo(std::__ndk1::basic_string_view<char, std::__ndk1::char_traits<char> >)
PUBLIC 15938 0 std::__ndk1::__throw_out_of_range[abi:ne180000](char const*)
PUBLIC 15988 0 std::out_of_range::out_of_range[abi:ne180000](char const*)
PUBLIC 159b8 0 geode::Mod::getSettingValue<std::__ndk1::basic_string<char, std::__ndk1::char_traits<char>, std::__ndk1::allocator<char> > >(std::__ndk1::basic_string_view<char, std::__ndk1::char_traits<char> >) const
PUBLIC 15b48 0 std::__ndk1::shared_ptr<geode::StringSettingV3>::~shared_ptr[abi:ne180000]()
PUBLIC 15b98 0 std::__ndk1::__function::__func<SharingEndLevelLayer::onTweet(cocos2d::CCObject*)::{lambda(auto:1, bool)#1}, std::__ndk1::allocator<SharingEndLevelLayer::onTweet(cocos2d::CCObject*)::{lambda(auto:1, bool)#1}>, void (FLAlertLayer*, bool)>::~__func()
PUBLIC 15b9c 0 std::__ndk1::__function::__func<SharingEndLevelLayer::onTweet(cocos2d::CCObject*)::{lambda(auto:1, bool)#1}, std::__ndk1::allocator<SharingEndLevelLayer::onTweet(cocos2d::CCObject*)::{lambda(auto:1, bool)#1}>, void (FLAlertLayer*, bool)>::__clone() const
PUBLIC 15bd0 0 std::__ndk1::__function::__func<SharingEndLevelLayer::onTweet(cocos2d::CCObject*)::{lambda(auto:1, bool)#1}, std::__ndk1::allocator<SharingEndLevelLayer::onTweet(cocos2d::CCObject*)::{lambda(auto:1, bool)#1}>, void (FLAlertLayer*, bool)>::__clone(std::__ndk1::__function::__base<void (FLAlertLayer*, bool)>*) const
PUBLIC 15be4 0 std::__ndk1::__function::__func<SharingEndLevelLayer::onTweet(cocos2d::CCObject*)::{lambda(auto:1, bool)#1}, std::__ndk1::allocator<SharingEndLevelLayer::onTweet(cocos2d::CCObject*)::{lambda(auto:1, bool)#1}>, void (FLAlertLayer*, bool)>::destroy()
PUBLIC 15be8 0 std::__ndk1::__function::__func<SharingEndLevelLayer::onTweet(cocos2d::CCObject*)::{lambda(auto:1, bool)#1}, std::__ndk1::allocator<SharingEndLevelLayer::onTweet(cocos2d::CCObject*)::{lambda(auto:1, bool)#1}>, void (FLAlertLayer*, bool)>::destroy_deallocate()
PUBLIC 15bec 0 std::__ndk1::__function::__func<SharingEndLevelLayer::onTweet(cocos2d::CCObject*)::{lambda(auto:1, bool)#1}, std::__ndk1::allocator<SharingEndLevelLayer::onTweet(cocos2d::CCObject*)::{lambda(auto:1, bool)#1}>, void (FLAlertLayer*, bool)>::operator()(FLAlertLayer*&&, bool&&)
PUBLIC 15c14 0 std::__ndk1::__function::__func<SharingEndLevelLayer::onTweet(cocos2d::CCObject*)::{lambda(auto:1, bool)#1}, std::__ndk1::allocator<SharingEndLevelLayer::onTweet(cocos2d::CCObject*)::{lambda(auto:1, bool)#1}>, void (FLAlertLayer*, bool)>::target(std::type_info const&) const
PUBLIC 15c30 0 std::__ndk1::__function::__func<SharingEndLevelLayer::onTweet(cocos2d::CCObject*)::{lambda(auto:1, bool)#1}, std::__ndk1::allocator<SharingEndLevelLayer::onTweet(cocos2d::CCObject*)::{lambda(auto:1, bool)#1}>, void (FLAlertLayer*, bool)>::target_type() const
PUBLIC 15c3c 0 SharingEndLevelLayer::onReddit(cocos2d::CCObject*)
PUBLIC 15ed4 0 std::__ndk1::__function::__func<SharingEndLevelLayer::onReddit(cocos2d::CCObject*)::{lambda(auto:1, bool)#1}, std::__ndk1::allocator<SharingEndLevelLayer::onReddit(cocos2d::CCObject*)::{lambda(auto:1, bool)#1}>, void (FLAlertLayer*, bool)>::~__func()
PUBLIC 15ed8 0 std::__ndk1::__function::__func<SharingEndLevelLayer::onReddit(cocos2d::CCObject*)::{lambda(auto:1, bool)#1}, std::__ndk1::allocator<SharingEndLevelLayer::onReddit(cocos2d::CCObject*)::{lambda(auto:1, bool)#1}>, void (FLAlertLayer*, bool)>::__clone() const
PUBLIC 15f0c 0 std::__ndk1::__function::__func<SharingEndLevelLayer::onReddit(cocos2d::CCObject*)::{lambda(auto:1, bool)#1}, std::__ndk1::allocator<SharingEndLevelLayer::onReddit(cocos2d::CCObject*)::{lambda(auto:1, bool)#1}>, void (FLAlertLayer*, bool)>::__clone(std::__ndk1::__function::__base<void (FLAlertLayer*, bool)>*) const
PUBLIC 15f20 0 std::__ndk1::__function::__func<SharingEndLevelLayer::onReddit(cocos2d::CCObject*)::{lambda(auto:1, bool)#1}, std::__ndk1::allocator<SharingEndLevelLayer::onReddit(cocos2d::CCObject*)::{lambda(auto:1, bool)#1}>, void (FLAlertLayer*, bool)>::destroy()
PUBLIC 15f24 0 std::__ndk1::__function::__func<SharingEndLevelLayer::onReddit(cocos2d::CCObject*)::{lambda(auto:1, bool)#1}, std::__ndk1::allocator<SharingEndLevelLayer::onReddit(cocos2d::CCObject*)::{lambda(auto:1, bool)#1}>, void (FLAlertLayer*, bool)>::destroy_deallocate()
PUBLIC 15f28 0 std::__ndk1::__function::__func<SharingEndLevelLayer::onReddit(cocos2d::CCObject*)::{lambda(auto:1, bool)#1}, std::__ndk1::allocator<SharingEndLevelLayer::onReddit(cocos2d::CCObject*)::{lambda(auto:1, bool)#1}>, void (FLAlertLayer*, bool)>::operator()(FLAlertLayer*&&, bool&&)
PUBLIC 15f50 0 std::__ndk1::__function::__func<SharingEndLevelLayer::onReddit(cocos2d::CCObject*)::{lambda(auto:1, bool)#1}, std::__ndk1::allocator<SharingEndLevelLayer::onReddit(cocos2d::CCObject*)::{lambda(auto:1, bool)#1}>, void (FLAlertLayer*, bool)>::target(std::type_info const&) const
PUBLIC 15f6c 0 std::__ndk1::__function::__func<SharingEndLevelLayer::onReddit(cocos2d::CCObject*)::{lambda(auto:1, bool)#1}, std::__ndk1::allocator<SharingEndLevelLayer::onReddit(cocos2d::CCObject*)::{lambda(auto:1, bool)#1}>, void (FLAlertLayer*, bool)>::target_type() const
PUBLIC 15f78 0 SharingEndLevelLayer::onBluesky(cocos2d::CCObject*)
PUBLIC 161e8 0 std::__ndk1::__function::__func<SharingEndLevelLayer::onBluesky(cocos2d::CCObject*)::{lambda(auto:1, bool)#1}, std::__ndk1::allocator<SharingEndLevelLayer::onBluesky(cocos2d::CCObject*)::{lambda(auto:1, bool)#1}>, void (FLAlertLayer*, bool)>::~__func()
PUBLIC 161ec 0 std::__ndk1::__function::__func<SharingEndLevelLayer::onBluesky(cocos2d::CCObject*)::{lambda(auto:1, bool)#1}, std::__ndk1::allocator<SharingEndLevelLayer::onBluesky(cocos2d::CCObject*)::{lambda(auto:1, bool)#1}>, void (FLAlertLayer*, bool)>::__clone() const
PUBLIC 16220 0 std::__ndk1::__function::__func<SharingEndLevelLayer::onBluesky(cocos2d::CCObject*)::{lambda(auto:1, bool)#1}, std::__ndk1::allocator<SharingEndLevelLayer::onBluesky(cocos2d::CCObject*)::{lambda(auto:1, bool)#1}>, void (FLAlertLayer*, bool)>::__clone(std::__ndk1::__function::__base<void (FLAlertLayer*, bool)>*) const
PUBLIC 16234 0 std::__ndk1::__function::__func<SharingEndLevelLayer::onBluesky(cocos2d::CCObject*)::{lambda(auto:1, bool)#1}, std::__ndk1::allocator<SharingEndLevelLayer::onBluesky(cocos2d::CCObject*)::{lambda(auto:1, bool)#1}>, void (FLAlertLayer*, bool)>::destroy()
PUBLIC 16238 0 std::__ndk1::__function::__func<SharingEndLevelLayer::onBluesky(cocos2d::CCObject*)::{lambda(auto:1, bool)#1}, std::__ndk1::allocator<SharingEndLevelLayer::onBluesky(cocos2d::CCObject*)::{lambda(auto:1, bool)#1}>, void (FLAlertLayer*, bool)>::destroy_deallocate()
PUBLIC 1623c 0 std::__ndk1::__function::__func<SharingEndLevelLayer::onBluesky(cocos2d::CCObject*)::{lambda(auto:1, bool)#1}, std::__ndk1::allocator<SharingEndLevelLayer::onBluesky(cocos2d::CCObject*)::{lambda(auto:1, bool)#1}>, void (FLAlertLayer*, bool)>::operator()(FLAlertLayer*&&, bool&&)
PUBLIC 16264 0 std::__ndk1::__function::__func<SharingEndLevelLayer::onBluesky(cocos2d::CCObject*)::{lambda(auto:1, bool)#1}, std::__ndk1::allocator<SharingEndLevelLayer::onBluesky(cocos2d::CCObject*)::{lambda(auto:1, bool)#1}>, void (FLAlertLayer*, bool)>::target(std::type_info const&) const
PUBLIC 16280 0 std::__ndk1::__function::__func<SharingEndLevelLayer::onBluesky(cocos2d::CCObject*)::{lambda(auto:1, bool)#1}, std::__ndk1::allocator<SharingEndLevelLayer::onBluesky(cocos2d::CCObject*)::{lambda(auto:1, bool)#1}>, void (FLAlertLayer*, bool)>::target_type() const
PUBLIC 1628c 0 SharingEndLevelLayer::onMastodon(cocos2d::CCObject*)
PUBLIC 165f4 0 std::__ndk1::__function::__func<SharingEndLevelLayer::onMastodon(cocos2d::CCObject*)::{lambda(auto:1, bool)#1}, std::__ndk1::allocator<SharingEndLevelLayer::onMastodon(cocos2d::CCObject*)::{lambda(auto:1, bool)#1}>, void (FLAlertLayer*, bool)>::~__func()
PUBLIC 165f8 0 std::__ndk1::__function::__func<SharingEndLevelLayer::onMastodon(cocos2d::CCObject*)::{lambda(auto:1, bool)#1}, std::__ndk1::allocator<SharingEndLevelLayer::onMastodon(cocos2d::CCObject*)::{lambda(auto:1, bool)#1}>, void (FLAlertLayer*, bool)>::__clone() const
PUBLIC 1662c 0 std::__ndk1::__function::__func<SharingEndLevelLayer::onMastodon(cocos2d::CCObject*)::{lambda(auto:1, bool)#1}, std::__ndk1::allocator<SharingEndLevelLayer::onMastodon(cocos2d::CCObject*)::{lambda(auto:1, bool)#1}>, void (FLAlertLayer*, bool)>::__clone(std::__ndk1::__function::__base<void (FLAlertLayer*, bool)>*) const
PUBLIC 16640 0 std::__ndk1::__function::__func<SharingEndLevelLayer::onMastodon(cocos2d::CCObject*)::{lambda(auto:1, bool)#1}, std::__ndk1::allocator<SharingEndLevelLayer::onMastodon(cocos2d::CCObject*)::{lambda(auto:1, bool)#1}>, void (FLAlertLayer*, bool)>::destroy()
PUBLIC 16644 0 std::__ndk1::__function::__func<SharingEndLevelLayer::onMastodon(cocos2d::CCObject*)::{lambda(auto:1, bool)#1}, std::__ndk1::allocator<SharingEndLevelLayer::onMastodon(cocos2d::CCObject*)::{lambda(auto:1, bool)#1}>, void (FLAlertLayer*, bool)>::destroy_deallocate()
PUBLIC 16648 0 std::__ndk1::__function::__func<SharingEndLevelLayer::onMastodon(cocos2d::CCObject*)::{lambda(auto:1, bool)#1}, std::__ndk1::allocator<SharingEndLevelLayer::onMastodon(cocos2d::CCObject*)::{lambda(auto:1, bool)#1}>, void (FLAlertLayer*, bool)>::operator()(FLAlertLayer*&&, bool&&)
PUBLIC 16670 0 std::__ndk1::__function::__func<SharingEndLevelLayer::onMastodon(cocos2d::CCObject*)::{lambda(auto:1, bool)#1}, std::__ndk1::allocator<SharingEndLevelLayer::onMastodon(cocos2d::CCObject*)::{lambda(auto:1, bool)#1}>, void (FLAlertLayer*, bool)>::target(std::type_info const&) const
PUBLIC 1668c 0 std::__ndk1::__function::__func<SharingEndLevelLayer::onMastodon(cocos2d::CCObject*)::{lambda(auto:1, bool)#1}, std::__ndk1::allocator<SharingEndLevelLayer::onMastodon(cocos2d::CCObject*)::{lambda(auto:1, bool)#1}>, void (FLAlertLayer*, bool)>::target_type() const
PUBLIC 16698 0 SharingEndLevelLayer::onOpenTheDiscordAppOrSomething(cocos2d::CCObject*)
PUBLIC 16918 0 geode::Mod::getSettingValue<std::__ndk1::__fs::filesystem::path>(std::__ndk1::basic_string_view<char, std::__ndk1::char_traits<char> >) const
PUBLIC 16ab0 0 std::__ndk1::shared_ptr<geode::FileSettingV3>::~shared_ptr[abi:ne180000]()
PUBLIC 16b00 0 SharingEndLevelLayer::openDiscordHopefully()
PUBLIC 16fa0 0 SharingEndLevelLayer::showDiscordFailurePopup()
PUBLIC 170e0 0 std::__ndk1::__function::__func<SharingEndLevelLayer::onOpenTheDiscordAppOrSomething(cocos2d::CCObject*)::{lambda(auto:1, bool)#1}, std::__ndk1::allocator<SharingEndLevelLayer::onOpenTheDiscordAppOrSomething(cocos2d::CCObject*)::{lambda(auto:1, bool)#1}>, void (FLAlertLayer*, bool)>::~__func()
PUBLIC 170e4 0 std::__ndk1::__function::__func<SharingEndLevelLayer::onOpenTheDiscordAppOrSomething(cocos2d::CCObject*)::{lambda(auto:1, bool)#1}, std::__ndk1::allocator<SharingEndLevelLayer::onOpenTheDiscordAppOrSomething(cocos2d::CCObject*)::{lambda(auto:1, bool)#1}>, void (FLAlertLayer*, bool)>::__clone() const
PUBLIC 17118 0 std::__ndk1::__function::__func<SharingEndLevelLayer::onOpenTheDiscordAppOrSomething(cocos2d::CCObject*)::{lambda(auto:1, bool)#1}, std::__ndk1::allocator<SharingEndLevelLayer::onOpenTheDiscordAppOrSomething(cocos2d::CCObject*)::{lambda(auto:1, bool)#1}>, void (FLAlertLayer*, bool)>::__clone(std::__ndk1::__function::__base<void (FLAlertLayer*, bool)>*) const
PUBLIC 1712c 0 std::__ndk1::__function::__func<SharingEndLevelLayer::onOpenTheDiscordAppOrSomething(cocos2d::CCObject*)::{lambda(auto:1, bool)#1}, std::__ndk1::allocator<SharingEndLevelLayer::onOpenTheDiscordAppOrSomething(cocos2d::CCObject*)::{lambda(auto:1, bool)#1}>, void (FLAlertLayer*, bool)>::destroy()
PUBLIC 17130 0 std::__ndk1::__function::__func<SharingEndLevelLayer::onOpenTheDiscordAppOrSomething(cocos2d::CCObject*)::{lambda(auto:1, bool)#1}, std::__ndk1::allocator<SharingEndLevelLayer::onOpenTheDiscordAppOrSomething(cocos2d::CCObject*)::{lambda(auto:1, bool)#1}>, void (FLAlertLayer*, bool)>::destroy_deallocate()
PUBLIC 17134 0 std::__ndk1::__function::__func<SharingEndLevelLayer::onOpenTheDiscordAppOrSomething(cocos2d::CCObject*)::{lambda(auto:1, bool)#1}, std::__ndk1::allocator<SharingEndLevelLayer::onOpenTheDiscordAppOrSomething(cocos2d::CCObject*)::{lambda(auto:1, bool)#1}>, void (FLAlertLayer*, bool)>::operator()(FLAlertLayer*&&, bool&&)
PUBLIC 17144 0 std::__ndk1::__function::__func<SharingEndLevelLayer::onOpenTheDiscordAppOrSomething(cocos2d::CCObject*)::{lambda(auto:1, bool)#1}, std::__ndk1::allocator<SharingEndLevelLayer::onOpenTheDiscordAppOrSomething(cocos2d::CCObject*)::{lambda(auto:1, bool)#1}>, void (FLAlertLayer*, bool)>::target(std::type_info const&) const
PUBLIC 17160 0 std::__ndk1::__function::__func<SharingEndLevelLayer::onOpenTheDiscordAppOrSomething(cocos2d::CCObject*)::{lambda(auto:1, bool)#1}, std::__ndk1::allocator<SharingEndLevelLayer::onOpenTheDiscordAppOrSomething(cocos2d::CCObject*)::{lambda(auto:1, bool)#1}>, void (FLAlertLayer*, bool)>::target_type() const
PUBLIC 1716c 0 SharingEndLevelLayer::onWeb(cocos2d::CCObject*)
PUBLIC 175bc 0 std::__ndk1::__function::__func<SharingEndLevelLayer::onWeb(cocos2d::CCObject*)::{lambda(auto:1, bool)#1}, std::__ndk1::allocator<SharingEndLevelLayer::onWeb(cocos2d::CCObject*)::{lambda(auto:1, bool)#1}>, void (FLAlertLayer*, bool)>::~__func()
PUBLIC 175c0 0 std::__ndk1::__function::__func<SharingEndLevelLayer::onWeb(cocos2d::CCObject*)::{lambda(auto:1, bool)#1}, std::__ndk1::allocator<SharingEndLevelLayer::onWeb(cocos2d::CCObject*)::{lambda(auto:1, bool)#1}>, void (FLAlertLayer*, bool)>::__clone() const
PUBLIC 175f4 0 std::__ndk1::__function::__func<SharingEndLevelLayer::onWeb(cocos2d::CCObject*)::{lambda(auto:1, bool)#1}, std::__ndk1::allocator<SharingEndLevelLayer::onWeb(cocos2d::CCObject*)::{lambda(auto:1, bool)#1}>, void (FLAlertLayer*, bool)>::__clone(std::__ndk1::__function::__base<void (FLAlertLayer*, bool)>*) const
PUBLIC 17608 0 std::__ndk1::__function::__func<SharingEndLevelLayer::onWeb(cocos2d::CCObject*)::{lambda(auto:1, bool)#1}, std::__ndk1::allocator<SharingEndLevelLayer::onWeb(cocos2d::CCObject*)::{lambda(auto:1, bool)#1}>, void (FLAlertLayer*, bool)>::destroy()
PUBLIC 1760c 0 std::__ndk1::__function::__func<SharingEndLevelLayer::onWeb(cocos2d::CCObject*)::{lambda(auto:1, bool)#1}, std::__ndk1::allocator<SharingEndLevelLayer::onWeb(cocos2d::CCObject*)::{lambda(auto:1, bool)#1}>, void (FLAlertLayer*, bool)>::destroy_deallocate()
PUBLIC 17610 0 std::__ndk1::__function::__func<SharingEndLevelLayer::onWeb(cocos2d::CCObject*)::{lambda(auto:1, bool)#1}, std::__ndk1::allocator<SharingEndLevelLayer::onWeb(cocos2d::CCObject*)::{lambda(auto:1, bool)#1}>, void (FLAlertLayer*, bool)>::operator()(FLAlertLayer*&&, bool&&)
PUBLIC 177fc 0 std::__ndk1::__function::__func<SharingEndLevelLayer::onWeb(cocos2d::CCObject*)::{lambda(auto:1, bool)#1}, std::__ndk1::allocator<SharingEndLevelLayer::onWeb(cocos2d::CCObject*)::{lambda(auto:1, bool)#1}>, void (FLAlertLayer*, bool)>::target(std::type_info const&) const
PUBLIC 17818 0 std::__ndk1::__function::__func<SharingEndLevelLayer::onWeb(cocos2d::CCObject*)::{lambda(auto:1, bool)#1}, std::__ndk1::allocator<SharingEndLevelLayer::onWeb(cocos2d::CCObject*)::{lambda(auto:1, bool)#1}>, void (FLAlertLayer*, bool)>::target_type() const
PUBLIC 17824 0 SharingEndLevelLayer::onScreenshot(cocos2d::CCObject*)
PUBLIC 18118 0 geode::modifier::FieldIntermediate<SharingEndLevelLayer, EndLevelLayer>::self()
PUBLIC 1875c 0 geode::modifier::FieldIntermediate<SharingEndLevelLayer, EndLevelLayer>::fieldDestructor(void*)
PUBLIC 18770 0 std::__ndk1::vector<void*, std::__ndk1::allocator<void*> >::__throw_length_error[abi:ne180000]() const
PUBLIC 18784 0 std::__ndk1::vector<std::__ndk1::function<void (void*)>, std::__ndk1::allocator<std::__ndk1::function<void (void*)> > >::__throw_length_error[abi:ne180000]() const
PUBLIC 18798 0 std::__ndk1::vector<void*, std::__ndk1::allocator<void*> >::__throw_out_of_range[abi:ne180000]() const
PUBLIC 187ac 0 std::__ndk1::vector<std::__ndk1::function<void (void*)>, std::__ndk1::allocator<std::__ndk1::function<void (void*)> > >::__throw_out_of_range[abi:ne180000]() const
PUBLIC 187c0 0 std::__ndk1::__function::__base<void (void*)>::~__base()
PUBLIC 187c4 0 std::__ndk1::__function::__func<void (*)(void*), std::__ndk1::allocator<void (*)(void*)>, void (void*)>::~__func()
PUBLIC 187c8 0 std::__ndk1::__function::__func<void (*)(void*), std::__ndk1::allocator<void (*)(void*)>, void (void*)>::__clone() const
PUBLIC 18800 0 std::__ndk1::__function::__func<void (*)(void*), std::__ndk1::allocator<void (*)(void*)>, void (void*)>::__clone(std::__ndk1::__function::__base<void (void*)>*) const
PUBLIC 18818 0 std::__ndk1::__function::__func<void (*)(void*), std::__ndk1::allocator<void (*)(void*)>, void (void*)>::destroy()
PUBLIC 1881c 0 std::__ndk1::__function::__func<void (*)(void*), std::__ndk1::allocator<void (*)(void*)>, void (void*)>::destroy_deallocate()
PUBLIC 18820 0 std::__ndk1::__function::__func<void (*)(void*), std::__ndk1::allocator<void (*)(void*)>, void (void*)>::operator()(void*&&)
PUBLIC 18830 0 std::__ndk1::__function::__func<void (*)(void*), std::__ndk1::allocator<void (*)(void*)>, void (void*)>::target(std::type_info const&) const
PUBLIC 1884c 0 std::__ndk1::__function::__func<void (*)(void*), std::__ndk1::allocator<void (*)(void*)>, void (void*)>::target_type() const
PUBLIC 18858 0 std::__ndk1::__function::__base<void (FLAlertLayer*, bool)>::~__base()
PUBLIC 1885c 0 std::__ndk1::__function::__func<SharingEndLevelLayer::onScreenshot(cocos2d::CCObject*)::{lambda(auto:1, bool)#1}, std::__ndk1::allocator<SharingEndLevelLayer::onScreenshot(cocos2d::CCObject*)::{lambda(auto:1, bool)#1}>, void (FLAlertLayer*, bool)>::~__func()
PUBLIC 18860 0 std::__ndk1::__function::__func<SharingEndLevelLayer::onScreenshot(cocos2d::CCObject*)::{lambda(auto:1, bool)#1}, std::__ndk1::allocator<SharingEndLevelLayer::onScreenshot(cocos2d::CCObject*)::{lambda(auto:1, bool)#1}>, void (FLAlertLayer*, bool)>::__clone() const
PUBLIC 18894 0 std::__ndk1::__function::__func<SharingEndLevelLayer::onScreenshot(cocos2d::CCObject*)::{lambda(auto:1, bool)#1}, std::__ndk1::allocator<SharingEndLevelLayer::onScreenshot(cocos2d::CCObject*)::{lambda(auto:1, bool)#1}>, void (FLAlertLayer*, bool)>::__clone(std::__ndk1::__function::__base<void (FLAlertLayer*, bool)>*) const
PUBLIC 188a8 0 std::__ndk1::__function::__func<SharingEndLevelLayer::onScreenshot(cocos2d::CCObject*)::{lambda(auto:1, bool)#1}, std::__ndk1::allocator<SharingEndLevelLayer::onScreenshot(cocos2d::CCObject*)::{lambda(auto:1, bool)#1}>, void (FLAlertLayer*, bool)>::destroy()
PUBLIC 188ac 0 std::__ndk1::__function::__func<SharingEndLevelLayer::onScreenshot(cocos2d::CCObject*)::{lambda(auto:1, bool)#1}, std::__ndk1::allocator<SharingEndLevelLayer::onScreenshot(cocos2d::CCObject*)::{lambda(auto:1, bool)#1}>, void (FLAlertLayer*, bool)>::destroy_deallocate()
PUBLIC 188b0 0 std::__ndk1::__function::__func<SharingEndLevelLayer::onScreenshot(cocos2d::CCObject*)::{lambda(auto:1, bool)#1}, std::__ndk1::allocator<SharingEndLevelLayer::onScreenshot(cocos2d::CCObject*)::{lambda(auto:1, bool)#1}>, void (FLAlertLayer*, bool)>::operator()(FLAlertLayer*&&, bool&&)
PUBLIC 188c8 0 std::__ndk1::__function::__func<SharingEndLevelLayer::onScreenshot(cocos2d::CCObject*)::{lambda(auto:1, bool)#1}, std::__ndk1::allocator<SharingEndLevelLayer::onScreenshot(cocos2d::CCObject*)::{lambda(auto:1, bool)#1}>, void (FLAlertLayer*, bool)>::target(std::type_info const&) const
PUBLIC 188e4 0 std::__ndk1::__function::__func<SharingEndLevelLayer::onScreenshot(cocos2d::CCObject*)::{lambda(auto:1, bool)#1}, std::__ndk1::allocator<SharingEndLevelLayer::onScreenshot(cocos2d::CCObject*)::{lambda(auto:1, bool)#1}>, void (FLAlertLayer*, bool)>::target_type() const
PUBLIC 188f0 0 _GLOBAL__sub_I_main.cpp
PUBLIC m 189b4 0 geodeImplicitEntry
PUBLIC 189f0 0 wrapFunction(unsigned long, tulip::hook::WrapperMetadata const&)
PUBLIC 18b24 0 geode::impl::ResultData<void*, std::__ndk1::basic_string<char, std::__ndk1::char_traits<char>, std::__ndk1::allocator<char> > >::unwrapErr() &
PUBLIC 18b9c 0 geode::impl::ResultData<void*, std::__ndk1::basic_string<char, std::__ndk1::char_traits<char>, std::__ndk1::allocator<char> > >::~ResultData()
PUBLIC 18c10 0 tulip::hook::WrapperMetadata::~WrapperMetadata()
PUBLIC 18c74 0 FLAlertLayer::create(FLAlertLayerProtocol*, char const*, gd::string, char const*, char const*, float)
PUBLIC 18e2c 0 tulip::hook::AbstractFunction::from<FLAlertLayer*, FLAlertLayerProtocol*, char const*, gd::string, char const*, char const*, float>(FLAlertLayer* (*)(FLAlertLayerProtocol*, char const*, gd::string, char const*, char const*, float))
PUBLIC 18f98 0 _ZN5geode15UnwrapExceptionC2IRPvQsr4implE18IsStringStreamableIT_EEENS_4impl5OkTagEOS4_
PUBLIC 190ec 0 std::__ndk1::__variant_detail::__visitation::__base::__dispatcher<(unsigned long)0>::__dispatch[abi:ne180000]<std::__ndk1::__variant_detail::__dtor<std::__ndk1::__variant_detail::__traits<void*, std::__ndk1::basic_string<char, std::__ndk1::char_traits<char>, std::__ndk1::allocator<char> > >, (std::__ndk1::__variant_detail::_Trait)1>::__destroy[abi:ne180000]()::{lambda(auto:1&)#1}, std::__ndk1::__variant_detail::__base<(std::__ndk1::__variant_detail::__traits<void*, std::__ndk1::basic_string<char, std::__ndk1::char_traits<char>, std::__ndk1::allocator<char> > >)1, std::__ndk1::__variant_detail::__traits, std::__ndk1::allocator<char> >&>(std::__ndk1::__variant_detail::__dtor<std::__ndk1::__variant_detail::__traits<void*, std::__ndk1::basic_string<char, std::__ndk1::char_traits<char>, std::__ndk1::allocator<char> > >, (std::__ndk1::__variant_detail::_Trait)1>, std::__ndk1::__variant_detail::__base<(std::__ndk1::__variant_detail::__traits<void*, std::__ndk1::basic_string<char, std::__ndk1::char_traits<char>, std::__ndk1::allocator<char> > >)1, std::__ndk1::__variant_detail::__traits, std::__ndk1::allocator<char> >&)
PUBLIC 190f0 0 std::__ndk1::__variant_detail::__visitation::__base::__dispatcher<(unsigned long)1>::__dispatch[abi:ne180000]<std::__ndk1::__variant_detail::__dtor<std::__ndk1::__variant_detail::__traits<void*, std::__ndk1::basic_string<char, std::__ndk1::char_traits<char>, std::__ndk1::allocator<char> > >, (std::__ndk1::__variant_detail::_Trait)1>::__destroy[abi:ne180000]()::{lambda(auto:1&)#1}, std::__ndk1::__variant_detail::__base<(std::__ndk1::__variant_detail::__traits<void*, std::__ndk1::basic_string<char, std::__ndk1::char_traits<char>, std::__ndk1::allocator<char> > >)1, std::__ndk1::__variant_detail::__traits, std::__ndk1::allocator<char> >&>(std::__ndk1::__variant_detail::__dtor<std::__ndk1::__variant_detail::__traits<void*, std::__ndk1::basic_string<char, std::__ndk1::char_traits<char>, std::__ndk1::allocator<char> > >, (std::__ndk1::__variant_detail::_Trait)1>, std::__ndk1::__variant_detail::__base<(std::__ndk1::__variant_detail::__traits<void*, std::__ndk1::basic_string<char, std::__ndk1::char_traits<char>, std::__ndk1::allocator<char> > >)1, std::__ndk1::__variant_detail::__traits, std::__ndk1::allocator<char> >&)
PUBLIC 19104 0 __udivti3
PUBLIC 19110 0 __udivmodti4
PUBLIC m 1935c 0 __eqtf2
PUBLIC 193fc 0 __unordtf2
PUBLIC 19434 0 fmt::v11::detail::write_loc(fmt::v11::basic_appender<char>, fmt::v11::loc_value, fmt::v11::format_specs const&, fmt::v11::detail::locale_ref)
PUBLIC 196c8 0 fmt::v11::format_facet<std::__ndk1::locale>::~format_facet()
PUBLIC 19744 0 fmt::v11::report_error(char const*)
PUBLIC 19794 0 fmt::v11::format_error::runtime_error(char const*)
PUBLIC 197c0 0 fmt::v11::format_facet<std::__ndk1::locale>::do_put(fmt::v11::basic_appender<char>, fmt::v11::loc_value, fmt::v11::format_specs const&) const
PUBLIC 19f80 0 fmt::v11::detail::loc_writer<char>::~loc_writer()
PUBLIC 19fe4 0 fmt::v11::detail::vformat_to<char>(fmt::v11::detail::buffer<char>&, fmt::v11::basic_string_view<char>, fmt::v11::detail::vformat_args<char>::type, fmt::v11::detail::locale_ref)
PUBLIC 1a554 0 fmt::v11::detail::is_printable(unsigned int)
PUBLIC 1a77c 0 fmt::v11::detail::dragonbox::to_decimal<float>(float)
PUBLIC 1aa58 0 fmt::v11::detail::dragonbox::to_decimal<double>(double)
PUBLIC 1af94 0 fmt::v11::basic_memory_buffer<char, (unsigned long)500, std::__ndk1::allocator<char> >::grow(fmt::v11::detail::buffer<char>&, unsigned long)
PUBLIC 1b00c 0 fmt::v11::format_facet<std::__ndk1::locale>::~format_facet()
PUBLIC 1b098 0 fmt::v11::format_error::~format_error()
PUBLIC 1b0bc 0 fmt::v11::detail::copy_noinline<char, char const*, fmt::v11::basic_appender<char> >(char const*, char const*, fmt::v11::basic_appender<char>)
PUBLIC 1b20c 0 fmt::v11::detail::default_arg_formatter<char>::operator()<bool>(bool)
PUBLIC 1b274 0 fmt::v11::detail::default_arg_formatter<char>::operator()<char>(char)
PUBLIC 1b304 0 fmt::v11::detail::default_arg_formatter<char>::operator()<float>(float)
PUBLIC 1b3f0 0 fmt::v11::detail::default_arg_formatter<char>::operator()<double>(double)
PUBLIC 1b4dc 0 fmt::v11::detail::default_arg_formatter<char>::operator()<char const*>(char const*)
PUBLIC 1b524 0 fmt::v11::detail::default_arg_formatter<char>::operator()<void const*>(void const*)
PUBLIC 1b5bc 0 _ZN3fmt3v116detail5writeIcNS0_14basic_appenderIcEEiTnNSt6__ndk19enable_ifIXaaaasr11is_integralIT1_EE5valuentsr3std7is_sameIS7_bEE5valuentsr3std7is_sameIS7_T_EE5valueEiE4typeELi0EEET0_SB_S7_
PUBLIC 1b81c 0 fmt::v11::detail::copy_noinline<char, char*, fmt::v11::basic_appender<char> >(char*, char*, fmt::v11::basic_appender<char>)
PUBLIC 1b96c 0 _ZN3fmt3v116detail5writeIcNS0_14basic_appenderIcEEjTnNSt6__ndk19enable_ifIXaaaasr11is_integralIT1_EE5valuentsr3std7is_sameIS7_bEE5valuentsr3std7is_sameIS7_T_EE5valueEiE4typeELi0EEET0_SB_S7_
PUBLIC 1bb4c 0 _ZN3fmt3v116detail5writeIcNS0_14basic_appenderIcEExTnNSt6__ndk19enable_ifIXaaaasr11is_integralIT1_EE5valuentsr3std7is_sameIS7_bEE5valuentsr3std7is_sameIS7_T_EE5valueEiE4typeELi0EEET0_SB_S7_
PUBLIC 1bdd0 0 _ZN3fmt3v116detail5writeIcNS0_14basic_appenderIcEEyTnNSt6__ndk19enable_ifIXaaaasr11is_integralIT1_EE5valuentsr3std7is_sameIS7_bEE5valuentsr3std7is_sameIS7_T_EE5valueEiE4typeELi0EEET0_SB_S7_
PUBLIC 1bfd8 0 _ZN3fmt3v116detail5writeIcNS0_14basic_appenderIcEEnTnNSt6__ndk19enable_ifIXaaaasr11is_integralIT1_EE5valuentsr3std7is_sameIS7_bEE5valuentsr3std7is_sameIS7_T_EE5valueEiE4typeELi0EEET0_SB_S7_
PUBLIC 1c338 0 _ZN3fmt3v116detail5writeIcNS0_14basic_appenderIcEEoTnNSt6__ndk19enable_ifIXaaaasr11is_integralIT1_EE5valuentsr3std7is_sameIS7_bEE5valuentsr3std7is_sameIS7_T_EE5valueEiE4typeELi0EEET0_SB_S7_
PUBLIC 1c64c 0 _ZN3fmt3v116detail5writeIcNS0_14basic_appenderIcEEbTnNSt6__ndk19enable_ifIXsr3std7is_sameIT1_bEE5valueEiE4typeELi0EEET0_SA_S7_RKNS0_12format_specsENS1_10locale_refE
PUBLIC 1c8dc 0 fmt::v11::detail::write_int_noinline<char, fmt::v11::basic_appender<char>, unsigned int>(fmt::v11::basic_appender<char>, fmt::v11::detail::write_int_arg<unsigned int>, fmt::v11::format_specs const&, fmt::v11::detail::locale_ref)
PUBLIC 1d6b8 0 fmt::v11::detail::fill<char, fmt::v11::basic_appender<char> >(fmt::v11::basic_appender<char>, unsigned long, fmt::v11::detail::fill_t const&)
PUBLIC 1d888 0 fmt::v11::detail::write_padded<char, (fmt::v11::align::type)1, fmt::v11::basic_appender<char>, fmt::v11::detail::write_char<char, fmt::v11::basic_appender<char> >(fmt::v11::basic_appender<char>, char, fmt::v11::format_specs const&)::{lambda(fmt::v11::basic_appender<char>&)#1}>(fmt::v11::basic_appender<char>, fmt::v11::format_specs const&, unsigned long, unsigned long, fmt::v11::detail::write_char<char, fmt::v11::basic_appender<char> >(fmt::v11::basic_appender<char>, char, fmt::v11::format_specs const&)::{lambda(fmt::v11::basic_appender<char>&)#1})
PUBLIC 1dac4 0 fmt::v11::detail::write_escaped_cp<fmt::v11::basic_appender<char>, char>(fmt::v11::basic_appender<char>, fmt::v11::detail::find_escape_result<char> const&)
PUBLIC 1ddd0 0 fmt::v11::detail::write_codepoint<(unsigned long)2, char, fmt::v11::basic_appender<char> >(fmt::v11::basic_appender<char>, char, unsigned int)
PUBLIC 1df48 0 fmt::v11::detail::write_codepoint<(unsigned long)8, char, fmt::v11::basic_appender<char> >(fmt::v11::basic_appender<char>, char, unsigned int)
PUBLIC 1e0c0 0 fmt::v11::detail::write_padded<char, (fmt::v11::align::type)1, fmt::v11::basic_appender<char>, fmt::v11::detail::write_nonfinite<char, fmt::v11::basic_appender<char> >(fmt::v11::basic_appender<char>, bool, fmt::v11::format_specs, fmt::v11::sign::type)::{lambda(fmt::v11::basic_appender<char>&)#1}>(fmt::v11::basic_appender<char>, fmt::v11::format_specs const&, unsigned long, unsigned long, fmt::v11::detail::write_nonfinite<char, fmt::v11::basic_appender<char> >(fmt::v11::basic_appender<char>, bool, fmt::v11::format_specs, fmt::v11::sign::type)::{lambda(fmt::v11::basic_appender<char>&)#1})
PUBLIC 1e300 0 fmt::v11::detail::do_write_float<char, fmt::v11::basic_appender<char>, fmt::v11::detail::dragonbox::decimal_fp<float>, fmt::v11::detail::digit_grouping<char> >(fmt::v11::basic_appender<char>, fmt::v11::detail::dragonbox::decimal_fp<float> const&, fmt::v11::format_specs const&, fmt::v11::detail::float_specs, fmt::v11::detail::locale_ref)
PUBLIC 1ef74 0 fmt::v11::detail::do_write_float<char, fmt::v11::basic_appender<char>, fmt::v11::detail::dragonbox::decimal_fp<float>, fmt::v11::detail::digit_grouping<char> >(fmt::v11::basic_appender<char>, fmt::v11::detail::dragonbox::decimal_fp<float> const&, fmt::v11::format_specs const&, fmt::v11::detail::float_specs, fmt::v11::detail::locale_ref)::{lambda(fmt::v11::basic_appender<char>(fmt::v11::basic_appender<char>))#1}::operator() const
PUBLIC 1f0c8 0 fmt::v11::detail::digit_grouping<char>::digit_grouping(fmt::v11::detail::locale_ref, bool)
PUBLIC 1f334 0 fmt::v11::detail::digit_grouping<char>::~digit_grouping()
PUBLIC 1f378 0 fmt::v11::detail::write_exponent<char, fmt::v11::basic_appender<char> >(int, fmt::v11::basic_appender<char>)
PUBLIC 1f548 0 _ZN3fmt3v116detail17write_significandIcjTnNSt6__ndk19enable_ifIXsr3std11is_integralIT0_EE5valueEiE4typeELi0EEEPT_S9_S5_iiS8_
PUBLIC 1f6c4 0 std::__ndk1::basic_string<char, std::__ndk1::char_traits<char>, std::__ndk1::allocator<char> >::__assign_no_alias<true>(char const*, unsigned long)
PUBLIC 1f770 0 std::__ndk1::basic_string<char, std::__ndk1::char_traits<char>, std::__ndk1::allocator<char> >::__assign_no_alias<false>(char const*, unsigned long)
PUBLIC 1f880 0 fmt::v11::detail::digit_grouping<char>::apply<fmt::v11::basic_appender<char>, char>(fmt::v11::basic_appender<char>, fmt::v11::basic_string_view<char>) const
PUBLIC 1fc38 0 fmt::v11::basic_memory_buffer<int, (unsigned long)500, std::__ndk1::allocator<int> >::grow(fmt::v11::detail::buffer<int>&, unsigned long)
PUBLIC 1fcd8 0 fmt::v11::detail::do_write_float<char, fmt::v11::basic_appender<char>, fmt::v11::detail::dragonbox::decimal_fp<double>, fmt::v11::detail::digit_grouping<char> >(fmt::v11::basic_appender<char>, fmt::v11::detail::dragonbox::decimal_fp<double> const&, fmt::v11::format_specs const&, fmt::v11::detail::float_specs, fmt::v11::detail::locale_ref)
PUBLIC 2098c 0 fmt::v11::detail::do_write_float<char, fmt::v11::basic_appender<char>, fmt::v11::detail::dragonbox::decimal_fp<double>, fmt::v11::detail::digit_grouping<char> >(fmt::v11::basic_appender<char>, fmt::v11::detail::dragonbox::decimal_fp<double> const&, fmt::v11::format_specs const&, fmt::v11::detail::float_specs, fmt::v11::detail::locale_ref)::{lambda(fmt::v11::basic_appender<char>(fmt::v11::basic_appender<char>))#1}::operator() const
PUBLIC 20ae4 0 _ZN3fmt3v116detail17write_significandIcmTnNSt6__ndk19enable_ifIXsr3std11is_integralIT0_EE5valueEiE4typeELi0EEEPT_S9_S5_iiS8_
PUBLIC 20c74 0 fmt::v11::detail::write_float<char, fmt::v11::basic_appender<char>, long double>(fmt::v11::basic_appender<char>, long double, fmt::v11::format_specs, fmt::v11::detail::locale_ref)
PUBLIC 21770 0 fmt::v11::detail::write_padded<char, (fmt::v11::align::type)2, fmt::v11::basic_appender<char>, fmt::v11::detail::write_bytes<char, (fmt::v11::align::type)2, fmt::v11::basic_appender<char> >(fmt::v11::basic_appender<char>, fmt::v11::basic_string_view<char>, fmt::v11::format_specs const&)::{lambda(fmt::v11::basic_appender<char>&)#1}>(fmt::v11::basic_appender<char>, fmt::v11::format_specs const&, unsigned long, unsigned long, fmt::v11::detail::write_bytes<char, (fmt::v11::align::type)2, fmt::v11::basic_appender<char> >(fmt::v11::basic_appender<char>, fmt::v11::basic_string_view<char>, fmt::v11::format_specs const&)::{lambda(fmt::v11::basic_appender<char>&)#1})
PUBLIC 2194c 0 fmt::v11::detail::format_dragon(fmt::v11::detail::basic_fp<unsigned __int128>, unsigned int, int, fmt::v11::detail::buffer<char>&, int&)
PUBLIC 22d7c 0 fmt::v11::detail::bigint::operator<<=(int)
PUBLIC 22ea0 0 fmt::v11::detail::bigint::assign_pow10(int)
PUBLIC 235fc 0 fmt::v11::detail::bigint::divmod_assign(fmt::v11::detail::bigint const&)
PUBLIC 2391c 0 fmt::v11::basic_memory_buffer<unsigned int, (unsigned long)32, std::__ndk1::allocator<unsigned int> >::grow(fmt::v11::detail::buffer<unsigned int>&, unsigned long)
PUBLIC 239bc 0 fmt::v11::detail::do_write_float<char, fmt::v11::basic_appender<char>, fmt::v11::detail::big_decimal_fp, fmt::v11::detail::digit_grouping<char> >(fmt::v11::basic_appender<char>, fmt::v11::detail::big_decimal_fp const&, fmt::v11::format_specs const&, fmt::v11::detail::float_specs, fmt::v11::detail::locale_ref)
PUBLIC 2486c 0 fmt::v11::detail::do_write_float<char, fmt::v11::basic_appender<char>, fmt::v11::detail::big_decimal_fp, fmt::v11::detail::digit_grouping<char> >(fmt::v11::basic_appender<char>, fmt::v11::detail::big_decimal_fp const&, fmt::v11::format_specs const&, fmt::v11::detail::float_specs, fmt::v11::detail::locale_ref)::{lambda(fmt::v11::basic_appender<char>(fmt::v11::basic_appender<char>))#1}::operator() const
PUBLIC 249cc 0 fmt::v11::detail::write_padded<char, (fmt::v11::align::type)2, fmt::v11::basic_appender<char>, fmt::v11::detail::write_ptr<char, fmt::v11::basic_appender<char>, unsigned long>(fmt::v11::basic_appender<char>, unsigned long, fmt::v11::format_specs const*)::{lambda(fmt::v11::basic_appender<char>&)#1}>(fmt::v11::basic_appender<char>, fmt::v11::format_specs const&, unsigned long, unsigned long, fmt::v11::detail::write_ptr<char, fmt::v11::basic_appender<char>, unsigned long>(fmt::v11::basic_appender<char>, unsigned long, fmt::v11::format_specs const*)::{lambda(fmt::v11::basic_appender<char>&)#1})
PUBLIC 24be0 0 fmt::v11::detail::parse_replacement_field<char, fmt::v11::detail::vformat_to<char>(fmt::v11::detail::buffer<char>&, fmt::v11::basic_string_view<char>, fmt::v11::detail::vformat_args<char>::type, fmt::v11::detail::locale_ref)::format_handler&>(char const*, char const*, fmt::v11::detail::vformat_to<char>(fmt::v11::detail::buffer<char>&, fmt::v11::basic_string_view<char>, fmt::v11::detail::vformat_args<char>::type, fmt::v11::detail::locale_ref)::format_handler&)
PUBLIC 2687c 0 fmt::v11::detail::parse_dynamic_spec<char>(char const*, char const*, int&, fmt::v11::detail::arg_ref<char>&, fmt::v11::basic_format_parse_context<char>&)
PUBLIC 26b0c 0 fmt::v11::basic_format_args<fmt::v11::context>::get<char>(fmt::v11::basic_string_view<char>) const
PUBLIC 26c64 0 fmt::v11::detail::write_int_noinline<char, fmt::v11::basic_appender<char>, unsigned long>(fmt::v11::basic_appender<char>, fmt::v11::detail::write_int_arg<unsigned long>, fmt::v11::format_specs const&, fmt::v11::detail::locale_ref)
PUBLIC 27ab8 0 fmt::v11::detail::write_int_noinline<char, fmt::v11::basic_appender<char>, unsigned __int128>(fmt::v11::basic_appender<char>, fmt::v11::detail::write_int_arg<unsigned __int128>, fmt::v11::format_specs const&, fmt::v11::detail::locale_ref)
PUBLIC 28b20 0 _ZN3fmt3v116detail15format_hexfloatIdTnNSt6__ndk19enable_ifIXntsr16is_double_doubleIT_EE5valueEiE4typeELi0EEEvS5_NS0_12format_specsERNS1_6bufferIcEE
PUBLIC 29040 0 fmt::v11::detail::format_float<double>(double, int, fmt::v11::detail::float_specs, fmt::v11::detail::buffer<char>&)
PUBLIC 299e0 0 fmt::v11::detail::write<char, fmt::v11::basic_appender<char> >(fmt::v11::basic_appender<char>, fmt::v11::basic_string_view<char>, fmt::v11::format_specs const&)
PUBLIC 2ad4c 0 fmt::v11::detail::for_each_codepoint<fmt::v11::detail::compute_width(fmt::v11::basic_string_view<char>)::count_code_points>(fmt::v11::basic_string_view<char>, fmt::v11::detail::compute_width(fmt::v11::basic_string_view<char>)::count_code_points)::{lambda(char const*, char const*)#1}::operator()(char const*, char const*) const
PUBLIC 2af04 0 fmt::v11::detail::write_int<fmt::v11::basic_appender<char>, unsigned long, char>(fmt::v11::basic_appender<char>, unsigned long, unsigned int, fmt::v11::format_specs const&, fmt::v11::detail::digit_grouping<char> const&)
PUBLIC 2b480 0 fmt::v11::detail::write_int<fmt::v11::basic_appender<char>, unsigned __int128, char>(fmt::v11::basic_appender<char>, unsigned __int128, unsigned int, fmt::v11::format_specs const&, fmt::v11::detail::digit_grouping<char> const&)
PUBLIC 2bb00 0 <.plt ELF section in raydeeux_limegradient.warbledcompletions.android64.so>
STACK CFI INIT cbc0 10 .cfa: sp 0 +
STACK CFI INIT cbd0 8 .cfa: sp 0 +
STACK CFI INIT cbd8 8 .cfa: sp 0 +
STACK CFI INIT cbe0 14 .cfa: sp 0 +
STACK CFI INIT cbf4 1c .cfa: sp 0 +
STACK CFI INIT cc10 10 .cfa: sp 0 +
STACK CFI INIT cc20 134 .cfa: sp 0 +
STACK CFI INIT cd54 84 .cfa: sp 0 +
STACK CFI INIT cdd8 f4 .cfa: sp 0 +
STACK CFI INIT cecc a8 .cfa: sp 0 +
STACK CFI INIT cf74 7c .cfa: sp 0 +
STACK CFI INIT cff0 14 .cfa: sp 0 +
STACK CFI INIT d004 40 .cfa: sp 0 +
STACK CFI INIT d044 28 .cfa: sp 0 +
STACK CFI INIT d06c 190 .cfa: sp 0 +
STACK CFI INIT d1fc 2c8 .cfa: sp 0 +
STACK CFI INIT d4c4 8 .cfa: sp 0 +
STACK CFI INIT d4cc 8 .cfa: sp 0 +
STACK CFI INIT d4d4 44 .cfa: sp 0 +
STACK CFI INIT d518 e8 .cfa: sp 0 +
STACK CFI INIT d600 e8 .cfa: sp 0 +
STACK CFI INIT d6e8 14 .cfa: sp 0 +
STACK CFI INIT d6fc 10 .cfa: sp 0 +
STACK CFI INIT d70c 10 .cfa: sp 0 +
STACK CFI INIT d71c f0 .cfa: sp 0 +
STACK CFI INIT d80c 44 .cfa: sp 0 +
STACK CFI INIT d850 c .cfa: sp 0 +
STACK CFI INIT d85c c .cfa: sp 0 +
STACK CFI INIT d868 2c .cfa: sp 0 +
STACK CFI INIT d894 280 .cfa: sp 0 +
STACK CFI INIT db14 c .cfa: sp 0 +
STACK CFI INIT db20 120 .cfa: sp 0 +
STACK CFI INIT dc40 488 .cfa: sp 0 +
STACK CFI INIT e0c8 c48 .cfa: sp 0 +
STACK CFI INIT ed10 134 .cfa: sp 0 +
STACK CFI INIT ee44 210 .cfa: sp 0 +
STACK CFI INIT f054 38c .cfa: sp 0 +
STACK CFI INIT f3e0 1c8 .cfa: sp 0 +
STACK CFI INIT f5a8 9bc .cfa: sp 0 +
STACK CFI INIT ff64 2d4 .cfa: sp 0 +
STACK CFI INIT 10238 134 .cfa: sp 0 +
STACK CFI INIT 1036c 120 .cfa: sp 0 +
STACK CFI INIT 1048c 1c8 .cfa: sp 0 +
STACK CFI INIT 10654 168 .cfa: sp 0 +
STACK CFI INIT 107bc fc .cfa: sp 0 +
STACK CFI INIT 108b8 30 .cfa: sp 0 +
STACK CFI INIT 10a20 30 .cfa: sp 0 +
STACK CFI INIT 10a50 98 .cfa: sp 0 +
STACK CFI INIT 10ae8 59c .cfa: sp 0 +
STACK CFI INIT 11084 8c .cfa: sp 0 +
STACK CFI INIT 11110 30 .cfa: sp 0 +
STACK CFI INIT 11140 14 .cfa: sp 0 +
STACK CFI INIT 11ecc 18 .cfa: sp 0 +
STACK CFI INIT 11ee4 80 .cfa: sp 0 +
STACK CFI 11ee8 .cfa: sp 48 +
STACK CFI 11ef4 .cfa: x29 48 + x19: .cfa -8 + ^ x20: .cfa -16 + ^ x21: .cfa -24 + ^ x22: .cfa -32 + ^ .ra: .cfa -40 + ^ x29: .cfa -48 + ^
STACK CFI 11f0c .cfa: sp 48 +
STACK CFI 11f18 .cfa: sp 0 +
STACK CFI 11f1c .cfa: x29 48 +
STACK CFI 11f4c .cfa: sp 48 +
STACK CFI 11f58 .cfa: sp 0 +
STACK CFI 11f5c .cfa: x29 48 +
STACK CFI INIT 11f64 14 .cfa: sp 0 +
STACK CFI 11f68 .cfa: sp 16 +
STACK CFI 11f6c .cfa: x29 16 + .ra: .cfa -8 + ^ x29: .cfa -16 + ^
STACK CFI INIT 11fc8 30 .cfa: sp 0 +
STACK CFI 11fcc .cfa: sp 32 +
STACK CFI 11fd4 .cfa: x29 32 + x19: .cfa -16 + ^ .ra: .cfa -24 + ^ x29: .cfa -32 + ^
STACK CFI 11fec .cfa: sp 32 +
STACK CFI 11ff4 .cfa: sp 0 +
STACK CFI INIT 11ff8 34 .cfa: sp 0 +
STACK CFI 11ffc .cfa: sp 32 +
STACK CFI 12004 .cfa: x29 32 + x19: .cfa -16 + ^ .ra: .cfa -24 + ^ x29: .cfa -32 + ^
STACK CFI INIT 1202c 10 .cfa: sp 0 +
STACK CFI 12030 .cfa: sp 16 +
STACK CFI 12034 .cfa: x29 16 + .ra: .cfa -8 + ^ x29: .cfa -16 + ^
STACK CFI INIT 12474 50 .cfa: sp 0 +
STACK CFI 12478 .cfa: sp 32 +
STACK CFI 12480 .cfa: x29 32 + x19: .cfa -16 + ^ .ra: .cfa -24 + ^ x29: .cfa -32 + ^
STACK CFI 12498 .cfa: sp 32 +
STACK CFI 124a0 .cfa: sp 0 +
STACK CFI 124a4 .cfa: x29 32 +
STACK CFI 124b8 .cfa: sp 32 +
STACK CFI 124c0 .cfa: sp 0 +
STACK CFI INIT 12538 7c .cfa: sp 0 +
STACK CFI 1253c .cfa: sp 48 +
STACK CFI 12548 .cfa: x29 48 + x19: .cfa -8 + ^ x20: .cfa -16 + ^ x21: .cfa -32 + ^ .ra: .cfa -40 + ^ x29: .cfa -48 + ^
STACK CFI 12594 .cfa: sp 48 +
STACK CFI 125a0 .cfa: sp 0 +
STACK CFI 125a4 .cfa: sp 48 +
STACK CFI 125b0 .cfa: sp 0 +
STACK CFI INIT 125b4 4 .cfa: sp 0 +
STACK CFI INIT 125b8 124 .cfa: sp 0 +
STACK CFI 125bc .cfa: sp 64 +
STACK CFI 125cc .cfa: x29 64 + x19: .cfa -8 + ^ x20: .cfa -16 + ^ x21: .cfa -24 + ^ x22: .cfa -32 + ^ x23: .cfa -40 + ^ x24: .cfa -48 + ^ .ra: .cfa -56 + ^ x29: .cfa -64 + ^
STACK CFI 126c8 .cfa: sp 64 +
STACK CFI 126d8 .cfa: sp 0 +
STACK CFI INIT 126dc 7c .cfa: sp 0 +
STACK CFI 126e0 .cfa: sp 32 +
STACK CFI 126e8 .cfa: x29 32 + x19: .cfa -8 + ^ x20: .cfa -16 + ^ .ra: .cfa -24 + ^ x29: .cfa -32 + ^
STACK CFI 12740 .cfa: sp 32 +
STACK CFI 12748 .cfa: sp 0 +
STACK CFI 1274c .cfa: sp 32 +
STACK CFI 12754 .cfa: sp 0 +
STACK CFI INIT 12758 1b0 .cfa: sp 0 +
STACK CFI INIT 12a5c 34 .cfa: sp 0 +
STACK CFI 12a60 .cfa: sp 16 +
STACK CFI 12a64 .cfa: x29 16 + .ra: .cfa -8 + ^ x29: .cfa -16 + ^
STACK CFI INIT 12bbc 80 .cfa: sp 0 +
STACK CFI 12bc0 .cfa: sp 48 +
STACK CFI 12bcc .cfa: x29 48 + x19: .cfa -8 + ^ x20: .cfa -16 + ^ x21: .cfa -32 + ^ .ra: .cfa -40 + ^ x29: .cfa -48 + ^
STACK CFI 12c2c .cfa: sp 48 +
STACK CFI 12c38 .cfa: sp 0 +
STACK CFI INIT 12c3c 24 .cfa: sp 0 +
STACK CFI 12c40 .cfa: sp 32 +
STACK CFI 12c48 .cfa: x29 32 + x19: .cfa -16 + ^ .ra: .cfa -24 + ^ x29: .cfa -32 + ^
STACK CFI 12c54 .cfa: sp 32 +
STACK CFI 12c5c .cfa: sp 0 +
STACK CFI INIT 13158 148 .cfa: sp 0 +
STACK CFI 1315c .cfa: sp 48 +
STACK CFI 13168 .cfa: x29 48 + x19: .cfa -8 + ^ x20: .cfa -16 + ^ x21: .cfa -32 + ^ .ra: .cfa -40 + ^ x29: .cfa -48 + ^
STACK CFI 13290 .cfa: sp 48 +
STACK CFI 1329c .cfa: sp 0 +
STACK CFI INIT 13408 4 .cfa: sp 0 +
STACK CFI INIT 1340c 14 .cfa: sp 0 +
STACK CFI INIT 13420 68 .cfa: sp 0 +
STACK CFI 13424 .cfa: sp 32 +
STACK CFI 1342c .cfa: x29 32 + x19: .cfa -8 + ^ x20: .cfa -16 + ^ .ra: .cfa -24 + ^ x29: .cfa -32 + ^
STACK CFI 13444 .cfa: sp 32 +
STACK CFI 1344c .cfa: sp 0 +
STACK CFI 13450 .cfa: x29 32 +
STACK CFI 1347c .cfa: sp 32 +
STACK CFI 13484 .cfa: sp 0 +
STACK CFI INIT 13488 14 .cfa: sp 0 +
STACK CFI 1348c .cfa: sp 16 +
STACK CFI 13490 .cfa: x29 16 + .ra: .cfa -8 + ^ x29: .cfa -16 + ^
STACK CFI INIT 1349c 4 .cfa: sp 0 +
STACK CFI INIT 134a0 14 .cfa: sp 0 +
STACK CFI INIT 134b4 84 .cfa: sp 0 +
STACK CFI 134bc .cfa: sp 32 +
STACK CFI 134c4 .cfa: x29 32 + x19: .cfa -8 + ^ x20: .cfa -16 + ^ .ra: .cfa -24 + ^ x29: .cfa -32 + ^
STACK CFI 13504 .cfa: sp 32 +
STACK CFI 1350c .cfa: sp 0 +
STACK CFI 13514 .cfa: x29 32 +
STACK CFI INIT 138ac 90 .cfa: sp 0 +
STACK CFI 138b0 .cfa: sp 32 +
STACK CFI 138b8 .cfa: x29 32 + x19: .cfa -16 + ^ .ra: .cfa -24 + ^ x29: .cfa -32 + ^
STACK CFI 13930 .cfa: sp 32 +
STACK CFI 13938 .cfa: sp 0 +
STACK CFI INIT 1393c 50 .cfa: sp 0 +
STACK CFI 13940 .cfa: sp 32 +
STACK CFI 13948 .cfa: x29 32 + x19: .cfa -16 + ^ .ra: .cfa -24 + ^ x29: .cfa -32 + ^
STACK CFI 13960 .cfa: sp 32 +
STACK CFI 13968 .cfa: sp 0 +
STACK CFI 1396c .cfa: x29 32 +
STACK CFI 13980 .cfa: sp 32 +
STACK CFI 13988 .cfa: sp 0 +
STACK CFI INIT 1398c 64 .cfa: sp 0 +
STACK CFI 13990 .cfa: sp 32 +
STACK CFI 13998 .cfa: x29 32 + x19: .cfa -16 + ^ .ra: .cfa -24 + ^ x29: .cfa -32 + ^
STACK CFI 139c4 .cfa: sp 32 +
STACK CFI 139cc .cfa: sp 0 +
STACK CFI 139d0 .cfa: x29 32 +
STACK CFI 139e4 .cfa: sp 32 +
STACK CFI 139ec .cfa: sp 0 +
STACK CFI INIT 14780 130 .cfa: sp 0 +
STACK CFI 14784 .cfa: sp 80 +
STACK CFI 14794 .cfa: x29 48 + x19: .cfa -8 + ^ x20: .cfa -16 + ^ x21: .cfa -24 + ^ x22: .cfa -32 + ^ .ra: .cfa -40 + ^ x29: .cfa -48 + ^
STACK CFI 14898 .cfa: sp 80 +
STACK CFI 148a8 .cfa: sp 0 +
STACK CFI 148ac .cfa: x29 48 +
STACK CFI INIT 148b0 f8 .cfa: sp 0 +
STACK CFI 148b4 .cfa: sp 64 +
STACK CFI 148c4 .cfa: x29 64 + x19: .cfa -8 + ^ x20: .cfa -16 + ^ x21: .cfa -24 + ^ x22: .cfa -32 + ^ x23: .cfa -48 + ^ .ra: .cfa -56 + ^ x29: .cfa -64 + ^
STACK CFI 14920 .cfa: sp 64 +
STACK CFI 14930 .cfa: sp 0 +
STACK CFI 14934 .cfa: x29 64 +
STACK CFI 14950 .cfa: sp 64 +
STACK CFI 14960 .cfa: sp 0 +
STACK CFI 14964 .cfa: x29 64 +
STACK CFI 14994 .cfa: sp 64 +
STACK CFI 149a4 .cfa: sp 0 +
STACK CFI INIT 15988 30 .cfa: sp 0 +
STACK CFI 1598c .cfa: sp 32 +
STACK CFI 15994 .cfa: x29 32 + x19: .cfa -16 + ^ .ra: .cfa -24 + ^ x29: .cfa -32 + ^
STACK CFI 159ac .cfa: sp 32 +
STACK CFI 159b4 .cfa: sp 0 +
STACK CFI INIT 15b48 50 .cfa: sp 0 +
STACK CFI 15b4c .cfa: sp 32 +
STACK CFI 15b54 .cfa: x29 32 + x19: .cfa -16 + ^ .ra: .cfa -24 + ^ x29: .cfa -32 + ^
STACK CFI 15b6c .cfa: sp 32 +
STACK CFI 15b74 .cfa: sp 0 +
STACK CFI 15b78 .cfa: x29 32 +
STACK CFI 15b8c .cfa: sp 32 +
STACK CFI 15b94 .cfa: sp 0 +
STACK CFI INIT 15b98 4 .cfa: sp 0 +
STACK CFI INIT 15b9c 34 .cfa: sp 0 +
STACK CFI 15ba0 .cfa: sp 32 +
STACK CFI 15ba8 .cfa: x29 32 + x19: .cfa -16 + ^ .ra: .cfa -24 + ^ x29: .cfa -32 + ^
STACK CFI 15bc4 .cfa: sp 32 +
STACK CFI 15bcc .cfa: sp 0 +
STACK CFI INIT 15bd0 14 .cfa: sp 0 +
STACK CFI INIT 15be4 4 .cfa: sp 0 +
STACK CFI INIT 15be8 4 .cfa: sp 0 +
STACK CFI INIT 15bec 28 .cfa: sp 0 +
STACK CFI INIT 15c14 1c .cfa: sp 0 +
STACK CFI INIT 15c30 c .cfa: sp 0 +
STACK CFI INIT 15ed4 4 .cfa: sp 0 +
STACK CFI INIT 15ed8 34 .cfa: sp 0 +
STACK CFI 15edc .cfa: sp 32 +
STACK CFI 15ee4 .cfa: x29 32 + x19: .cfa -16 + ^ .ra: .cfa -24 + ^ x29: .cfa -32 + ^
STACK CFI 15f00 .cfa: sp 32 +
STACK CFI 15f08 .cfa: sp 0 +
STACK CFI INIT 15f0c 14 .cfa: sp 0 +
STACK CFI INIT 15f20 4 .cfa: sp 0 +
STACK CFI INIT 15f24 4 .cfa: sp 0 +
STACK CFI INIT 15f28 28 .cfa: sp 0 +
STACK CFI INIT 15f50 1c .cfa: sp 0 +
STACK CFI INIT 15f6c c .cfa: sp 0 +
STACK CFI INIT 161e8 4 .cfa: sp 0 +
STACK CFI INIT 161ec 34 .cfa: sp 0 +
STACK CFI 161f0 .cfa: sp 32 +
STACK CFI 161f8 .cfa: x29 32 + x19: .cfa -16 + ^ .ra: .cfa -24 + ^ x29: .cfa -32 + ^
STACK CFI 16214 .cfa: sp 32 +
STACK CFI 1621c .cfa: sp 0 +
STACK CFI INIT 16220 14 .cfa: sp 0 +
STACK CFI INIT 16234 4 .cfa: sp 0 +
STACK CFI INIT 16238 4 .cfa: sp 0 +
STACK CFI INIT 1623c 28 .cfa: sp 0 +
STACK CFI INIT 16264 1c .cfa: sp 0 +
STACK CFI INIT 16280 c .cfa: sp 0 +
STACK CFI INIT 165f4 4 .cfa: sp 0 +
STACK CFI INIT 165f8 34 .cfa: sp 0 +
STACK CFI 165fc .cfa: sp 32 +
STACK CFI 16604 .cfa: x29 32 + x19: .cfa -16 + ^ .ra: .cfa -24 + ^ x29: .cfa -32 + ^
STACK CFI 16620 .cfa: sp 32 +
STACK CFI 16628 .cfa: sp 0 +
STACK CFI INIT 1662c 14 .cfa: sp 0 +
STACK CFI INIT 16640 4 .cfa: sp 0 +
STACK CFI INIT 16644 4 .cfa: sp 0 +
STACK CFI INIT 16648 28 .cfa: sp 0 +
STACK CFI INIT 16670 1c .cfa: sp 0 +
STACK CFI INIT 1668c c .cfa: sp 0 +
STACK CFI INIT 16ab0 50 .cfa: sp 0 +
STACK CFI 16ab4 .cfa: sp 32 +
STACK CFI 16abc .cfa: x29 32 + x19: .cfa -16 + ^ .ra: .cfa -24 + ^ x29: .cfa -32 + ^
STACK CFI 16ad4 .cfa: sp 32 +
STACK CFI 16adc .cfa: sp 0 +
STACK CFI 16ae0 .cfa: x29 32 +
STACK CFI 16af4 .cfa: sp 32 +
STACK CFI 16afc .cfa: sp 0 +
STACK CFI INIT 170e0 4 .cfa: sp 0 +
STACK CFI INIT 170e4 34 .cfa: sp 0 +
STACK CFI 170e8 .cfa: sp 32 +
STACK CFI 170f0 .cfa: x29 32 + x19: .cfa -16 + ^ .ra: .cfa -24 + ^ x29: .cfa -32 + ^
STACK CFI 1710c .cfa: sp 32 +
STACK CFI 17114 .cfa: sp 0 +
STACK CFI INIT 17118 14 .cfa: sp 0 +
STACK CFI INIT 1712c 4 .cfa: sp 0 +
STACK CFI INIT 17130 4 .cfa: sp 0 +
STACK CFI INIT 17134 10 .cfa: sp 0 +
STACK CFI INIT 17144 1c .cfa: sp 0 +
STACK CFI INIT 17160 c .cfa: sp 0 +
STACK CFI INIT 175bc 4 .cfa: sp 0 +
STACK CFI INIT 175c0 34 .cfa: sp 0 +
STACK CFI 175c4 .cfa: sp 32 +
STACK CFI 175cc .cfa: x29 32 + x19: .cfa -16 + ^ .ra: .cfa -24 + ^ x29: .cfa -32 + ^
STACK CFI 175e8 .cfa: sp 32 +
STACK CFI 175f0 .cfa: sp 0 +
STACK CFI INIT 175f4 14 .cfa: sp 0 +
STACK CFI INIT 17608 4 .cfa: sp 0 +
STACK CFI INIT 1760c 4 .cfa: sp 0 +
STACK CFI INIT 177fc 1c .cfa: sp 0 +
STACK CFI INIT 17818 c .cfa: sp 0 +
STACK CFI INIT 1875c 14 .cfa: sp 0 +
STACK CFI INIT 18770 14 .cfa: sp 0 +
STACK CFI 18774 .cfa: sp 16 +
STACK CFI 18778 .cfa: x29 16 + .ra: .cfa -8 + ^ x29: .cfa -16 + ^
STACK CFI INIT 18784 14 .cfa: sp 0 +
STACK CFI 18788 .cfa: sp 16 +
STACK CFI 1878c .cfa: x29 16 + .ra: .cfa -8 + ^ x29: .cfa -16 + ^
STACK CFI INIT 18798 14 .cfa: sp 0 +
STACK CFI 1879c .cfa: sp 16 +
STACK CFI 187a0 .cfa: x29 16 + .ra: .cfa -8 + ^ x29: .cfa -16 + ^
STACK CFI INIT 187ac 14 .cfa: sp 0 +
STACK CFI 187b0 .cfa: sp 16 +
STACK CFI 187b4 .cfa: x29 16 + .ra: .cfa -8 + ^ x29: .cfa -16 + ^
STACK CFI INIT 187c0 4 .cfa: sp 0 +
STACK CFI INIT 187c4 4 .cfa: sp 0 +
STACK CFI INIT 187c8 38 .cfa: sp 0 +
STACK CFI 187cc .cfa: sp 32 +
STACK CFI 187d4 .cfa: x29 32 + x19: .cfa -16 + ^ .ra: .cfa -24 + ^ x29: .cfa -32 + ^
STACK CFI 187f4 .cfa: sp 32 +
STACK CFI 187fc .cfa: sp 0 +
STACK CFI INIT 18800 18 .cfa: sp 0 +
STACK CFI INIT 18818 4 .cfa: sp 0 +
STACK CFI INIT 1881c 4 .cfa: sp 0 +
STACK CFI INIT 18820 10 .cfa: sp 0 +
STACK CFI INIT 18830 1c .cfa: sp 0 +
STACK CFI INIT 1884c c .cfa: sp 0 +
STACK CFI INIT 18858 4 .cfa: sp 0 +
STACK CFI INIT 1885c 4 .cfa: sp 0 +
STACK CFI INIT 18860 34 .cfa: sp 0 +
STACK CFI 18864 .cfa: sp 32 +
STACK CFI 1886c .cfa: x29 32 + x19: .cfa -16 + ^ .ra: .cfa -24 + ^ x29: .cfa -32 + ^
STACK CFI 18888 .cfa: sp 32 +
STACK CFI 18890 .cfa: sp 0 +
STACK CFI INIT 18894 14 .cfa: sp 0 +
STACK CFI INIT 188a8 4 .cfa: sp 0 +
STACK CFI INIT 188ac 4 .cfa: sp 0 +
STACK CFI INIT 188b0 18 .cfa: sp 0 +
STACK CFI INIT 188c8 1c .cfa: sp 0 +
STACK CFI INIT 188e4 c .cfa: sp 0 +
STACK CFI INIT 188f0 c4 .cfa: sp 0 +
STACK CFI 188f4 .cfa: sp 32 +
STACK CFI 188fc .cfa: x29 32 + x19: .cfa -8 + ^ x20: .cfa -16 + ^ .ra: .cfa -24 + ^ x29: .cfa -32 + ^
STACK CFI 189a8 .cfa: sp 32 +
STACK CFI 189b0 .cfa: sp 0 +
STACK CFI INIT 189b4 3c .cfa: sp 0 +
STACK CFI 189b8 .cfa: sp 32 +
STACK CFI 189c0 .cfa: x29 32 + x19: .cfa -16 + ^ .ra: .cfa -24 + ^ x29: .cfa -32 + ^
STACK CFI 189cc .cfa: sp 32 +
STACK CFI 189d4 .cfa: sp 0 +
STACK CFI 189d8 .cfa: x29 32 +
STACK CFI 189e4 .cfa: sp 32 +
STACK CFI 189ec .cfa: sp 0 +
STACK CFI INIT 18c10 64 .cfa: sp 0 +
STACK CFI 18c14 .cfa: sp 32 +
STACK CFI 18c1c .cfa: x29 32 + x19: .cfa -16 + ^ .ra: .cfa -24 + ^ x29: .cfa -32 + ^
STACK CFI 18c48 .cfa: sp 32 +
STACK CFI 18c50 .cfa: sp 0 +
STACK CFI 18c54 .cfa: x29 32 +
STACK CFI 18c68 .cfa: sp 32 +
STACK CFI 18c70 .cfa: sp 0 +
STACK CFI INIT 190ec 4 .cfa: sp 0 +
STACK CFI INIT 190f0 14 .cfa: sp 0 +
STACK CFI INIT 19104 c .cfa: sp 0 +
STACK CFI INIT 19110 24c .cfa: sp 0 +
STACK CFI INIT 1935c a0 .cfa: sp 0 +
STACK CFI 19368 .cfa: sp 32 +
STACK CFI 193c0 .cfa: sp 0 +
STACK CFI 193c4 .cfa: sp 32 +
STACK CFI 193cc .cfa: sp 0 +
STACK CFI 193d0 .cfa: sp 32 +
STACK CFI 193e4 .cfa: sp 0 +
STACK CFI 193e8 .cfa: sp 32 +
STACK CFI 193f8 .cfa: sp 0 +
STACK CFI INIT 193fc 38 .cfa: sp 0 +
STACK CFI 19408 .cfa: sp 32 +
STACK CFI 19430 .cfa: sp 0 +
STACK CFI INIT 196c8 7c .cfa: sp 0 +
STACK CFI 196cc .cfa: sp 32 +
STACK CFI 196d4 .cfa: x29 32 + x19: .cfa -16 + ^ .ra: .cfa -24 + ^ x29: .cfa -32 + ^
STACK CFI 19700 .cfa: sp 32 +
STACK CFI 19708 .cfa: sp 0 +
STACK CFI 1970c .cfa: x29 32 +
STACK CFI 19738 .cfa: sp 32 +
STACK CFI 19740 .cfa: sp 0 +
STACK CFI INIT 19794 2c .cfa: sp 0 +
STACK CFI 19798 .cfa: sp 32 +
STACK CFI 197a0 .cfa: x29 32 + x19: .cfa -16 + ^ .ra: .cfa -24 + ^ x29: .cfa -32 + ^
STACK CFI 197b4 .cfa: sp 32 +
STACK CFI 197bc .cfa: sp 0 +
STACK CFI INIT 19f80 64 .cfa: sp 0 +
STACK CFI 19f84 .cfa: sp 32 +
STACK CFI 19f8c .cfa: x29 32 + x19: .cfa -16 + ^ .ra: .cfa -24 + ^ x29: .cfa -32 + ^
STACK CFI 19fa8 .cfa: sp 32 +
STACK CFI 19fb0 .cfa: sp 0 +
STACK CFI 19fb4 .cfa: x29 32 +
STACK CFI 19fd8 .cfa: sp 32 +
STACK CFI 19fe0 .cfa: sp 0 +
STACK CFI INIT 19fe4 570 .cfa: sp 0 +
STACK CFI 19fe8 .cfa: sp 176 +
STACK CFI 19ffc .cfa: x29 64 + x19: .cfa -8 + ^ x20: .cfa -16 + ^ x21: .cfa -24 + ^ x22: .cfa -32 + ^ x23: .cfa -40 + ^ x24: .cfa -48 + ^ .ra: .cfa -56 + ^ x29: .cfa -64 + ^
STACK CFI 1a22c .cfa: sp 176 +
STACK CFI 1a240 .cfa: sp 0 +
STACK CFI 1a244 .cfa: x29 64 +
STACK CFI 1a290 .cfa: sp 176 +
STACK CFI 1a2a4 .cfa: sp 0 +
STACK CFI 1a2a8 .cfa: x29 64 +
STACK CFI 1a2e0 .cfa: sp 176 +
STACK CFI 1a2f4 .cfa: sp 0 +
STACK CFI 1a2f8 .cfa: x29 64 +
STACK CFI 1a310 .cfa: sp 176 +
STACK CFI 1a324 .cfa: sp 0 +
STACK CFI 1a328 .cfa: x29 64 +
STACK CFI 1a348 .cfa: sp 176 +
STACK CFI 1a35c .cfa: sp 0 +
STACK CFI 1a360 .cfa: x29 64 +
STACK CFI 1a378 .cfa: sp 176 +
STACK CFI 1a38c .cfa: sp 0 +
STACK CFI 1a390 .cfa: x29 64 +
STACK CFI 1a3a4 .cfa: sp 176 +
STACK CFI 1a3b8 .cfa: sp 0 +
STACK CFI 1a3bc .cfa: x29 64 +
STACK CFI 1a3d0 .cfa: sp 176 +
STACK CFI 1a3e4 .cfa: sp 0 +
STACK CFI 1a3e8 .cfa: x29 64 +
STACK CFI 1a3f8 .cfa: sp 176 +
STACK CFI 1a40c .cfa: sp 0 +
STACK CFI 1a410 .cfa: x29 64 +
STACK CFI 1a420 .cfa: sp 176 +
STACK CFI 1a434 .cfa: sp 0 +
STACK CFI 1a438 .cfa: x29 64 +
STACK CFI 1a450 .cfa: sp 176 +
STACK CFI 1a464 .cfa: sp 0 +
STACK CFI 1a468 .cfa: x29 64 +
STACK CFI 1a47c .cfa: sp 176 +
STACK CFI 1a490 .cfa: sp 0 +
STACK CFI 1a494 .cfa: x29 64 +
STACK CFI 1a4ac .cfa: sp 176 +
STACK CFI 1a4c0 .cfa: sp 0 +
STACK CFI 1a4c4 .cfa: x29 64 +
STACK CFI 1a4f0 .cfa: sp 176 +
STACK CFI 1a504 .cfa: sp 0 +
STACK CFI 1a508 .cfa: x29 64 +
STACK CFI 1a51c .cfa: sp 176 +
STACK CFI 1a530 .cfa: sp 0 +
STACK CFI 1a534 .cfa: x29 64 +
STACK CFI INIT 1a554 228 .cfa: sp 0 +
STACK CFI INIT 1a77c 2dc .cfa: sp 0 +
STACK CFI INIT 1aa58 53c .cfa: sp 0 +
STACK CFI INIT 1af94 78 .cfa: sp 0 +
STACK CFI 1af98 .cfa: sp 48 +
STACK CFI 1afa4 .cfa: x29 48 + x19: .cfa -8 + ^ x20: .cfa -16 + ^ x21: .cfa -24 + ^ x22: .cfa -32 + ^ .ra: .cfa -40 + ^ x29: .cfa -48 + ^
STACK CFI 1afec .cfa: sp 48 +
STACK CFI 1aff8 .cfa: sp 0 +
STACK CFI 1affc .cfa: sp 48 +
STACK CFI 1b008 .cfa: sp 0 +
STACK CFI INIT 1b00c 8c .cfa: sp 0 +
STACK CFI 1b010 .cfa: sp 32 +
STACK CFI 1b018 .cfa: x29 32 + x19: .cfa -16 + ^ .ra: .cfa -24 + ^ x29: .cfa -32 + ^
STACK CFI 1b04c .cfa: sp 32 +
STACK CFI 1b054 .cfa: sp 0 +
STACK CFI 1b058 .cfa: x29 32 +
STACK CFI 1b08c .cfa: sp 32 +
STACK CFI 1b094 .cfa: sp 0 +
STACK CFI INIT 1b098 24 .cfa: sp 0 +
STACK CFI 1b09c .cfa: sp 32 +
STACK CFI 1b0a4 .cfa: x29 32 + x19: .cfa -16 + ^ .ra: .cfa -24 + ^ x29: .cfa -32 + ^
STACK CFI 1b0b0 .cfa: sp 32 +
STACK CFI 1b0b8 .cfa: sp 0 +
STACK CFI INIT 1b0bc 150 .cfa: sp 0 +
STACK CFI 1b0c0 .cfa: sp 48 +
STACK CFI 1b0cc .cfa: x29 48 + x19: .cfa -8 + ^ x20: .cfa -16 + ^ x21: .cfa -24 + ^ x22: .cfa -32 + ^ .ra: .cfa -40 + ^ x29: .cfa -48 + ^
STACK CFI 1b1fc .cfa: sp 48 +
STACK CFI 1b208 .cfa: sp 0 +
STACK CFI INIT 1b20c 68 .cfa: sp 0 +
STACK CFI 1b210 .cfa: sp 64 +
STACK CFI 1b21c .cfa: x29 32 + x19: .cfa -16 + ^ .ra: .cfa -24 + ^ x29: .cfa -32 + ^
STACK CFI 1b260 .cfa: sp 64 +
STACK CFI 1b26c .cfa: sp 0 +
STACK CFI 1b270 .cfa: x29 32 +
STACK CFI INIT 1b274 90 .cfa: sp 0 +
STACK CFI 1b278 .cfa: sp 32 +
STACK CFI 1b280 .cfa: x29 32 + x19: .cfa -8 + ^ x20: .cfa -16 + ^ .ra: .cfa -24 + ^ x29: .cfa -32 + ^
STACK CFI 1b2ac .cfa: sp 32 +
STACK CFI 1b2b4 .cfa: sp 0 +
STACK CFI 1b2b8 .cfa: x29 32 +
STACK CFI 1b2f8 .cfa: sp 32 +
STACK CFI 1b300 .cfa: sp 0 +
STACK CFI INIT 1b304 ec .cfa: sp 0 +
STACK CFI 1b308 .cfa: sp 112 +
STACK CFI 1b318 .cfa: x29 48 + x19: .cfa -8 + ^ x20: .cfa -16 + ^ x21: .cfa -32 + ^ .ra: .cfa -40 + ^ x29: .cfa -48 + ^
STACK CFI 1b3d8 .cfa: sp 112 +
STACK CFI 1b3e8 .cfa: sp 0 +
STACK CFI 1b3ec .cfa: x29 48 +
STACK CFI INIT 1b3f0 ec .cfa: sp 0 +
STACK CFI 1b3f4 .cfa: sp 112 +
STACK CFI 1b404 .cfa: x29 48 + x19: .cfa -8 + ^ x20: .cfa -16 + ^ x21: .cfa -32 + ^ .ra: .cfa -40 + ^ x29: .cfa -48 + ^
STACK CFI 1b4c4 .cfa: sp 112 +
STACK CFI 1b4d4 .cfa: sp 0 +
STACK CFI 1b4d8 .cfa: x29 48 +
STACK CFI INIT 1b4dc 48 .cfa: sp 0 +
STACK CFI 1b4e0 .cfa: sp 32 +
STACK CFI 1b4e8 .cfa: x29 32 + x19: .cfa -8 + ^ x20: .cfa -16 + ^ .ra: .cfa -24 + ^ x29: .cfa -32 + ^
STACK CFI 1b50c .cfa: sp 32 +
STACK CFI 1b514 .cfa: sp 0 +
STACK CFI 1b518 .cfa: x29 32 +
STACK CFI INIT 1b524 98 .cfa: sp 0 +
STACK CFI 1b528 .cfa: sp 80 +
STACK CFI 1b534 .cfa: x29 32 + x19: .cfa -16 + ^ .ra: .cfa -24 + ^ x29: .cfa -32 + ^
STACK CFI 1b5a8 .cfa: sp 80 +
STACK CFI 1b5b4 .cfa: sp 0 +
STACK CFI 1b5b8 .cfa: x29 32 +
STACK CFI INIT 1b5bc 260 .cfa: sp 0 +
STACK CFI 1b5c0 .cfa: sp 112 +
STACK CFI 1b5d8 .cfa: x29 80 + x19: .cfa -8 + ^ x20: .cfa -16 + ^ x21: .cfa -24 + ^ x22: .cfa -32 + ^ x23: .cfa -40 + ^ x24: .cfa -48 + ^ x25: .cfa -64 + ^ .ra: .cfa -72 + ^ x29: .cfa -80 + ^
STACK CFI 1b7bc .cfa: sp 112 +
STACK CFI 1b7d4 .cfa: sp 0 +
STACK CFI 1b7d8 .cfa: x29 80 +
STACK CFI INIT 1b81c 150 .cfa: sp 0 +
STACK CFI 1b820 .cfa: sp 48 +
STACK CFI 1b82c .cfa: x29 48 + x19: .cfa -8 + ^ x20: .cfa -16 + ^ x21: .cfa -24 + ^ x22: .cfa -32 + ^ .ra: .cfa -40 + ^ x29: .cfa -48 + ^
STACK CFI 1b95c .cfa: sp 48 +
STACK CFI 1b968 .cfa: sp 0 +
STACK CFI INIT 1b96c 1e0 .cfa: sp 0 +
STACK CFI 1b970 .cfa: sp 96 +
STACK CFI 1b984 .cfa: x29 64 + x19: .cfa -8 + ^ x20: .cfa -16 + ^ x21: .cfa -24 + ^ x22: .cfa -32 + ^ x23: .cfa -40 + ^ x24: .cfa -48 + ^ .ra: .cfa -56 + ^ x29: .cfa -64 + ^
STACK CFI 1bb04 .cfa: sp 96 +
STACK CFI 1bb18 .cfa: sp 0 +
STACK CFI 1bb1c .cfa: x29 64 +
STACK CFI INIT 1bb4c 284 .cfa: sp 0 +
STACK CFI 1bb50 .cfa: sp 112 +
STACK CFI 1bb68 .cfa: x29 80 + x19: .cfa -8 + ^ x20: .cfa -16 + ^ x21: .cfa -24 + ^ x22: .cfa -32 + ^ x23: .cfa -40 + ^ x24: .cfa -48 + ^ x25: .cfa -64 + ^ .ra: .cfa -72 + ^ x29: .cfa -80 + ^
STACK CFI 1bd70 .cfa: sp 112 +
STACK CFI 1bd88 .cfa: sp 0 +
STACK CFI 1bd8c .cfa: x29 80 +
STACK CFI INIT 1bdd0 208 .cfa: sp 0 +
STACK CFI 1bdd4 .cfa: sp 96 +
STACK CFI 1bde8 .cfa: x29 64 + x19: .cfa -8 + ^ x20: .cfa -16 + ^ x21: .cfa -24 + ^ x22: .cfa -32 + ^ x23: .cfa -40 + ^ x24: .cfa -48 + ^ .ra: .cfa -56 + ^ x29: .cfa -64 + ^
STACK CFI 1bf90 .cfa: sp 96 +
STACK CFI 1bfa4 .cfa: sp 0 +
STACK CFI 1bfa8 .cfa: x29 64 +
STACK CFI INIT 1bfd8 360 .cfa: sp 0 +
STACK CFI 1bfdc .cfa: sp 160 +
STACK CFI 1bff8 .cfa: x29 96 + x19: .cfa -8 + ^ x20: .cfa -16 + ^ x21: .cfa -24 + ^ x22: .cfa -32 + ^ x23: .cfa -40 + ^ x24: .cfa -48 + ^ x25: .cfa -56 + ^ x26: .cfa -64 + ^ x27: .cfa -72 + ^ x28: .cfa -80 + ^ .ra: .cfa -88 + ^ x29: .cfa -96 + ^
STACK CFI 1c2c4 .cfa: sp 160 +
STACK CFI 1c2e0 .cfa: sp 0 +
STACK CFI 1c2e4 .cfa: x29 96 +
STACK CFI INIT 1c338 314 .cfa: sp 0 +
STACK CFI 1c33c .cfa: sp 144 +
STACK CFI 1c358 .cfa: x29 96 + x19: .cfa -8 + ^ x20: .cfa -16 + ^ x21: .cfa -24 + ^ x22: .cfa -32 + ^ x23: .cfa -40 + ^ x24: .cfa -48 + ^ x25: .cfa -56 + ^ x26: .cfa -64 + ^ x27: .cfa -72 + ^ x28: .cfa -80 + ^ .ra: .cfa -88 + ^ x29: .cfa -96 + ^
STACK CFI 1c5d4 .cfa: sp 144 +
STACK CFI 1c5f0 .cfa: sp 0 +
STACK CFI 1c5f4 .cfa: x29 96 +
STACK CFI INIT 1c64c 290 .cfa: sp 0 +
STACK CFI 1c650 .cfa: sp 128 +
STACK CFI 1c668 .cfa: x29 80 + x19: .cfa -8 + ^ x20: .cfa -16 + ^ x21: .cfa -24 + ^ x22: .cfa -32 + ^ x23: .cfa -40 + ^ x24: .cfa -48 + ^ x25: .cfa -56 + ^ x26: .cfa -64 + ^ .ra: .cfa -72 + ^ x29: .cfa -80 + ^
STACK CFI 1c8bc .cfa: sp 128 +
STACK CFI 1c8d4 .cfa: sp 0 +
STACK CFI 1c8d8 .cfa: x29 80 +
STACK CFI INIT 1c8dc ddc .cfa: sp 0 +
STACK CFI 1c8e0 .cfa: sp 144 +
STACK CFI 1c8fc .cfa: x29 96 + x19: .cfa -8 + ^ x20: .cfa -16 + ^ x21: .cfa -24 + ^ x22: .cfa -32 + ^ x23: .cfa -40 + ^ x24: .cfa -48 + ^ x25: .cfa -56 + ^ x26: .cfa -64 + ^ x27: .cfa -72 + ^ x28: .cfa -80 + ^ .ra: .cfa -88 + ^ x29: .cfa -96 + ^
STACK CFI 1d590 .cfa: sp 144 +
STACK CFI 1d5ac .cfa: sp 0 +
STACK CFI 1d5b0 .cfa: x29 96 +
STACK CFI INIT 1d6b8 1d0 .cfa: sp 0 +
STACK CFI 1d6bc .cfa: sp 80 +
STACK CFI 1d6d0 .cfa: x29 80 + x19: .cfa -8 + ^ x20: .cfa -16 + ^ x21: .cfa -24 + ^ x22: .cfa -32 + ^ x23: .cfa -40 + ^ x24: .cfa -48 + ^ x25: .cfa -64 + ^ .ra: .cfa -72 + ^ x29: .cfa -80 + ^
STACK CFI 1d870 .cfa: sp 80 +
STACK CFI 1d884 .cfa: sp 0 +
STACK CFI INIT 1d888 23c .cfa: sp 0 +
STACK CFI 1d88c .cfa: sp 112 +
STACK CFI 1d8a0 .cfa: x29 64 + x19: .cfa -8 + ^ x20: .cfa -16 + ^ x21: .cfa -24 + ^ x22: .cfa -32 + ^ x23: .cfa -40 + ^ x24: .cfa -48 + ^ .ra: .cfa -56 + ^ x29: .cfa -64 + ^
STACK CFI 1da7c .cfa: sp 112 +
STACK CFI 1da90 .cfa: sp 0 +
STACK CFI 1da94 .cfa: x29 64 +
STACK CFI INIT 1dac4 30c .cfa: sp 0 +
STACK CFI 1dac8 .cfa: sp 80 +
STACK CFI 1dadc .cfa: x29 64 + x19: .cfa -8 + ^ x20: .cfa -16 + ^ x21: .cfa -24 + ^ x22: .cfa -32 + ^ x23: .cfa -40 + ^ x24: .cfa -48 + ^ .ra: .cfa -56 + ^ x29: .cfa -64 + ^
STACK CFI 1dc58 .cfa: sp 80 +
STACK CFI 1dc6c .cfa: sp 0 +
STACK CFI 1dc70 .cfa: x29 64 +
STACK CFI INIT 1ddd0 178 .cfa: sp 0 +
STACK CFI 1ddd4 .cfa: sp 80 +
STACK CFI 1dde8 .cfa: x29 64 + x19: .cfa -8 + ^ x20: .cfa -16 + ^ x21: .cfa -24 + ^ x22: .cfa -32 + ^ x23: .cfa -40 + ^ x24: .cfa -48 + ^ .ra: .cfa -56 + ^ x29: .cfa -64 + ^
STACK CFI 1df2c .cfa: sp 80 +
STACK CFI 1df40 .cfa: sp 0 +
STACK CFI 1df44 .cfa: x29 64 +
STACK CFI INIT 1df48 178 .cfa: sp 0 +
STACK CFI 1df4c .cfa: sp 80 +
STACK CFI 1df60 .cfa: x29 64 + x19: .cfa -8 + ^ x20: .cfa -16 + ^ x21: .cfa -24 + ^ x22: .cfa -32 + ^ x23: .cfa -40 + ^ x24: .cfa -48 + ^ .ra: .cfa -56 + ^ x29: .cfa -64 + ^
STACK CFI 1e0a4 .cfa: sp 80 +
STACK CFI 1e0b8 .cfa: sp 0 +
STACK CFI 1e0bc .cfa: x29 64 +
STACK CFI INIT 1e0c0 240 .cfa: sp 0 +
STACK CFI 1e0c4 .cfa: sp 96 +
STACK CFI 1e0dc .cfa: x29 96 + x19: .cfa -8 + ^ x20: .cfa -16 + ^ x21: .cfa -24 + ^ x22: .cfa -32 + ^ x23: .cfa -40 + ^ x24: .cfa -48 + ^ x25: .cfa -56 + ^ x26: .cfa -64 + ^ x27: .cfa -72 + ^ x28: .cfa -80 + ^ .ra: .cfa -88 + ^ x29: .cfa -96 + ^
STACK CFI 1e2e4 .cfa: sp 96 +
STACK CFI 1e2fc .cfa: sp 0 +
STACK CFI INIT 1ef74 154 .cfa: sp 0 +
STACK CFI 1ef78 .cfa: sp 96 +
STACK CFI 1ef8c .cfa: x29 64 + x19: .cfa -8 + ^ x20: .cfa -16 + ^ x21: .cfa -24 + ^ x22: .cfa -32 + ^ x23: .cfa -48 + ^ .ra: .cfa -56 + ^ x29: .cfa -64 + ^
STACK CFI 1f06c .cfa: sp 96 +
STACK CFI 1f080 .cfa: sp 0 +
STACK CFI 1f084 .cfa: x29 64 +
STACK CFI INIT 1f334 44 .cfa: sp 0 +
STACK CFI 1f338 .cfa: sp 32 +
STACK CFI 1f340 .cfa: x29 32 + x19: .cfa -16 + ^ .ra: .cfa -24 + ^ x29: .cfa -32 + ^
STACK CFI 1f35c .cfa: sp 32 +
STACK CFI 1f364 .cfa: sp 0 +
STACK CFI 1f368 .cfa: x29 32 +
STACK CFI 1f36c .cfa: sp 32 +
STACK CFI 1f374 .cfa: sp 0 +
STACK CFI INIT 1f378 1d0 .cfa: sp 0 +
STACK CFI 1f37c .cfa: sp 64 +
STACK CFI 1f38c .cfa: x29 64 + x19: .cfa -8 + ^ x20: .cfa -16 + ^ x21: .cfa -24 + ^ x22: .cfa -32 + ^ x23: .cfa -40 + ^ x24: .cfa -48 + ^ .ra: .cfa -56 + ^ x29: .cfa -64 + ^
STACK CFI 1f44c .cfa: sp 64 +
STACK CFI 1f45c .cfa: sp 0 +
STACK CFI 1f460 .cfa: x29 64 +
STACK CFI INIT 1f548 17c .cfa: sp 0 +
STACK CFI INIT 1f6c4 ac .cfa: sp 0 +
STACK CFI 1f6c8 .cfa: sp 64 +
STACK CFI 1f6d8 .cfa: x29 64 + x19: .cfa -8 + ^ x20: .cfa -16 + ^ x21: .cfa -24 + ^ x22: .cfa -32 + ^ x23: .cfa -48 + ^ .ra: .cfa -56 + ^ x29: .cfa -64 + ^
STACK CFI 1f754 .cfa: sp 64 +
STACK CFI 1f764 .cfa: sp 0 +
STACK CFI 1f768 .cfa: x29 64 +
STACK CFI INIT 1f770 110 .cfa: sp 0 +
STACK CFI 1f774 .cfa: sp 64 +
STACK CFI 1f784 .cfa: x29 64 + x19: .cfa -8 + ^ x20: .cfa -16 + ^ x21: .cfa -24 + ^ x22: .cfa -32 + ^ x23: .cfa -40 + ^ x24: .cfa -48 + ^ .ra: .cfa -56 + ^ x29: .cfa -64 + ^
STACK CFI 1f864 .cfa: sp 64 +
STACK CFI 1f874 .cfa: sp 0 +
STACK CFI 1f878 .cfa: x29 64 +
STACK CFI INIT 1fc38 a0 .cfa: sp 0 +
STACK CFI 1fc3c .cfa: sp 48 +
STACK CFI 1fc48 .cfa: x29 48 + x19: .cfa -8 + ^ x20: .cfa -16 + ^ x21: .cfa -24 + ^ x22: .cfa -32 + ^ .ra: .cfa -40 + ^ x29: .cfa -48 + ^
STACK CFI 1fcb4 .cfa: sp 48 +
STACK CFI 1fcc0 .cfa: sp 0 +
STACK CFI 1fcc4 .cfa: sp 48 +
STACK CFI 1fcd0 .cfa: sp 0 +
STACK CFI 1fcd4 .cfa: x29 48 +
STACK CFI INIT 2098c 158 .cfa: sp 0 +
STACK CFI 20990 .cfa: sp 96 +
STACK CFI 209a4 .cfa: x29 64 + x19: .cfa -8 + ^ x20: .cfa -16 + ^ x21: .cfa -24 + ^ x22: .cfa -32 + ^ x23: .cfa -48 + ^ .ra: .cfa -56 + ^ x29: .cfa -64 + ^
STACK CFI 20a88 .cfa: sp 96 +
STACK CFI 20a9c .cfa: sp 0 +
STACK CFI 20aa0 .cfa: x29 64 +
STACK CFI INIT 20ae4 190 .cfa: sp 0 +
STACK CFI INIT 21770 1dc .cfa: sp 0 +
STACK CFI 21774 .cfa: sp 80 +
STACK CFI 21788 .cfa: x29 80 + x19: .cfa -8 + ^ x20: .cfa -16 + ^ x21: .cfa -24 + ^ x22: .cfa -32 + ^ x23: .cfa -40 + ^ x24: .cfa -48 + ^ x25: .cfa -64 + ^ .ra: .cfa -72 + ^ x29: .cfa -80 + ^
STACK CFI 21934 .cfa: sp 80 +
STACK CFI 21948 .cfa: sp 0 +
STACK CFI INIT 22d7c 124 .cfa: sp 0 +
STACK CFI 22dac .cfa: sp 32 +
STACK CFI 22db4 .cfa: x29 32 + x19: .cfa -8 + ^ x20: .cfa -16 + ^ .ra: .cfa -24 + ^ x29: .cfa -32 + ^
STACK CFI 22e94 .cfa: sp 32 +
STACK CFI 22e9c .cfa: sp 0 +
STACK CFI INIT 235fc 320 .cfa: sp 0 +
STACK CFI 23600 .cfa: sp 64 +
STACK CFI 23610 .cfa: x29 64 + x19: .cfa -8 + ^ x20: .cfa -16 + ^ x21: .cfa -24 + ^ x22: .cfa -32 + ^ x23: .cfa -40 + ^ x24: .cfa -48 + ^ .ra: .cfa -56 + ^ x29: .cfa -64 + ^
STACK CFI 2368c .cfa: sp 64 +
STACK CFI 2369c .cfa: sp 0 +
STACK CFI 236a0 .cfa: x29 64 +
STACK CFI 23874 .cfa: sp 64 +
STACK CFI 23884 .cfa: sp 0 +
STACK CFI 23888 .cfa: x29 64 +
STACK CFI 23898 .cfa: sp 64 +
STACK CFI 238a8 .cfa: sp 0 +
STACK CFI 238ac .cfa: x29 64 +
STACK CFI INIT 2391c a0 .cfa: sp 0 +
STACK CFI 23920 .cfa: sp 48 +
STACK CFI 2392c .cfa: x29 48 + x19: .cfa -8 + ^ x20: .cfa -16 + ^ x21: .cfa -24 + ^ x22: .cfa -32 + ^ .ra: .cfa -40 + ^ x29: .cfa -48 + ^
STACK CFI 23998 .cfa: sp 48 +
STACK CFI 239a4 .cfa: sp 0 +
STACK CFI 239a8 .cfa: sp 48 +
STACK CFI 239b4 .cfa: sp 0 +
STACK CFI 239b8 .cfa: x29 48 +
STACK CFI INIT 2486c 160 .cfa: sp 0 +
STACK CFI 24870 .cfa: sp 64 +
STACK CFI 24880 .cfa: x29 64 + x19: .cfa -8 + ^ x20: .cfa -16 + ^ x21: .cfa -24 + ^ x22: .cfa -32 + ^ x23: .cfa -48 + ^ .ra: .cfa -56 + ^ x29: .cfa -64 + ^
STACK CFI 24978 .cfa: sp 64 +
STACK CFI 24988 .cfa: sp 0 +
STACK CFI 2498c .cfa: x29 64 +
STACK CFI INIT 249cc 214 .cfa: sp 0 +
STACK CFI 249d0 .cfa: sp 128 +
STACK CFI 249ec .cfa: x29 96 + x19: .cfa -8 + ^ x20: .cfa -16 + ^ x21: .cfa -24 + ^ x22: .cfa -32 + ^ x23: .cfa -40 + ^ x24: .cfa -48 + ^ x25: .cfa -56 + ^ x26: .cfa -64 + ^ x27: .cfa -80 + ^ .ra: .cfa -88 + ^ x29: .cfa -96 + ^
STACK CFI 24b68 .cfa: sp 128 +
STACK CFI 24b84 .cfa: sp 0 +
STACK CFI 24b88 .cfa: x29 96 +
STACK CFI INIT 2687c 290 .cfa: sp 0 +
STACK CFI 26880 .cfa: sp 16 +
STACK CFI 26884 .cfa: x29 16 + .ra: .cfa -8 + ^ x29: .cfa -16 + ^
STACK CFI 26910 .cfa: sp 16 +
STACK CFI 26914 .cfa: sp 0 +
STACK CFI 26918 .cfa: x29 16 +
STACK CFI 26968 .cfa: sp 16 +
STACK CFI 2696c .cfa: sp 0 +
STACK CFI 26970 .cfa: x29 16 +
STACK CFI 26ad4 .cfa: sp 16 +
STACK CFI 26ad8 .cfa: sp 0 +
STACK CFI 26adc .cfa: x29 16 +
STACK CFI INIT 26b0c 158 .cfa: sp 0 +
STACK CFI 26b10 .cfa: sp 112 +
STACK CFI 26b2c .cfa: x29 96 + x19: .cfa -8 + ^ x20: .cfa -16 + ^ x21: .cfa -24 + ^ x22: .cfa -32 + ^ x23: .cfa -40 + ^ x24: .cfa -48 + ^ x25: .cfa -56 + ^ x26: .cfa -64 + ^ x27: .cfa -72 + ^ x28: .cfa -80 + ^ .ra: .cfa -88 + ^ x29: .cfa -96 + ^
STACK CFI 26c14 .cfa: sp 112 +
STACK CFI 26c18 .cfa: x29 96 +
STACK CFI 26c20 .cfa: sp 112 +
STACK CFI 26c3c .cfa: sp 0 +
STACK CFI 26c40 .cfa: x29 96 +
STACK CFI 26c60 .cfa: sp 112 +
STACK CFI INIT 26c64 e54 .cfa: sp 0 +
STACK CFI 26c68 .cfa: sp 192 +
STACK CFI 26c84 .cfa: x29 96 + x19: .cfa -8 + ^ x20: .cfa -16 + ^ x21: .cfa -24 + ^ x22: .cfa -32 + ^ x23: .cfa -40 + ^ x24: .cfa -48 + ^ x25: .cfa -56 + ^ x26: .cfa -64 + ^ x27: .cfa -72 + ^ x28: .cfa -80 + ^ .ra: .cfa -88 + ^ x29: .cfa -96 + ^
STACK CFI 279a0 .cfa: sp 192 +
STACK CFI 279bc .cfa: sp 0 +
STACK CFI 279c0 .cfa: x29 96 +
STACK CFI INIT 27ab8 1068 .cfa: sp 0 +
STACK CFI 27abc .cfa: sp 288 +
STACK CFI 27ad8 .cfa: x29 96 + x19: .cfa -8 + ^ x20: .cfa -16 + ^ x21: .cfa -24 + ^ x22: .cfa -32 + ^ x23: .cfa -40 + ^ x24: .cfa -48 + ^ x25: .cfa -56 + ^ x26: .cfa -64 + ^ x27: .cfa -72 + ^ x28: .cfa -80 + ^ .ra: .cfa -88 + ^ x29: .cfa -96 + ^
STACK CFI 28868 .cfa: sp 288 +
STACK CFI 28884 .cfa: sp 0 +
STACK CFI 28888 .cfa: x29 96 +
STACK CFI INIT 28b20 520 .cfa: sp 0 +
STACK CFI 28b24 .cfa: sp 144 +
STACK CFI 28b40 .cfa: x29 96 + x19: .cfa -8 + ^ x20: .cfa -16 + ^ x21: .cfa -24 + ^ x22: .cfa -32 + ^ x23: .cfa -40 + ^ x24: .cfa -48 + ^ x25: .cfa -56 + ^ x26: .cfa -64 + ^ x27: .cfa -72 + ^ x28: .cfa -80 + ^ .ra: .cfa -88 + ^ x29: .cfa -96 + ^
STACK CFI 2901c .cfa: sp 144 +
STACK CFI 29038 .cfa: sp 0 +
STACK CFI 2903c .cfa: x29 96 +
STACK CFI INIT 299e0 136c .cfa: sp 0 +
STACK CFI 299e4 .cfa: sp 224 +
STACK CFI 29a00 .cfa: x29 96 + x19: .cfa -8 + ^ x20: .cfa -16 + ^ x21: .cfa -24 + ^ x22: .cfa -32 + ^ x23: .cfa -40 + ^ x24: .cfa -48 + ^ x25: .cfa -56 + ^ x26: .cfa -64 + ^ x27: .cfa -72 + ^ x28: .cfa -80 + ^ .ra: .cfa -88 + ^ x29: .cfa -96 + ^
STACK CFI 2ad28 .cfa: sp 224 +
STACK CFI 2ad44 .cfa: sp 0 +
STACK CFI 2ad48 .cfa: x29 96 +
STACK CFI INIT 2ad4c 1b8 .cfa: sp 0 +
STACK CFI INIT 11154 d78 .cfa: sp 0 +
STACK CFI 11158 .cfa: sp 240 +
STACK CFI 11174 .cfa: x29 96 + x19: .cfa -8 + ^ x20: .cfa -16 + ^ x21: .cfa -24 + ^ x22: .cfa -32 + ^ x23: .cfa -40 + ^ x24: .cfa -48 + ^ x25: .cfa -56 + ^ x26: .cfa -64 + ^ x27: .cfa -72 + ^ x28: .cfa -80 + ^ .ra: .cfa -88 + ^ x29: .cfa -96 + ^
STACK CFI 112c8 .cfa: sp 240 +
STACK CFI 112e4 .cfa: sp 0 +
STACK CFI 112e8 .cfa: x29 96 +
STACK CFI 11d2c .cfa: sp 240 +
STACK CFI 11d48 .cfa: sp 0 +
STACK CFI 11d4c .cfa: x29 96 +
STACK CFI INIT 11f78 50 .cfa: sp 0 +
STACK CFI 11f7c .cfa: sp 32 +
STACK CFI 11f84 .cfa: x29 32 + x19: .cfa -8 + ^ x20: .cfa -16 + ^ .ra: .cfa -24 + ^ x29: .cfa -32 + ^
STACK CFI INIT 1203c 438 .cfa: sp 0 +
STACK CFI 12040 .cfa: sp 288 +
STACK CFI 1205c .cfa: x29 96 + x19: .cfa -8 + ^ x20: .cfa -16 + ^ x21: .cfa -24 + ^ x22: .cfa -32 + ^ x23: .cfa -40 + ^ x24: .cfa -48 + ^ x25: .cfa -56 + ^ x26: .cfa -64 + ^ x27: .cfa -72 + ^ x28: .cfa -80 + ^ .ra: .cfa -88 + ^ x29: .cfa -96 + ^
STACK CFI 12350 .cfa: sp 288 +
STACK CFI 1236c .cfa: sp 0 +
STACK CFI 12370 .cfa: x29 96 +
STACK CFI INIT 124c4 74 .cfa: sp 0 +
STACK CFI 124c8 .cfa: sp 48 +
STACK CFI 124d4 .cfa: x29 32 + x19: .cfa -8 + ^ x20: .cfa -16 + ^ .ra: .cfa -24 + ^ x29: .cfa -32 + ^
STACK CFI 12520 .cfa: sp 48 +
STACK CFI 1252c .cfa: sp 0 +
STACK CFI 12530 .cfa: x29 32 +
STACK CFI INIT 12908 154 .cfa: sp 0 +
STACK CFI 1290c .cfa: sp 384 +
STACK CFI 12920 .cfa: x29 64 + x19: .cfa -8 + ^ x20: .cfa -16 + ^ x21: .cfa -24 + ^ x22: .cfa -32 + ^ x23: .cfa -40 + ^ x28: .cfa -48 + ^ .ra: .cfa -56 + ^ x29: .cfa -64 + ^
STACK CFI 12a04 .cfa: sp 384 +
STACK CFI 12a18 .cfa: sp 0 +
STACK CFI 12a1c .cfa: x29 64 +
STACK CFI INIT 12a90 12c .cfa: sp 0 +
STACK CFI 12a94 .cfa: sp 80 +
STACK CFI 12aa8 .cfa: x29 80 + x19: .cfa -8 + ^ x20: .cfa -16 + ^ x21: .cfa -24 + ^ x22: .cfa -32 + ^ x23: .cfa -40 + ^ x24: .cfa -48 + ^ x25: .cfa -56 + ^ x26: .cfa -64 + ^ .ra: .cfa -72 + ^ x29: .cfa -80 + ^
STACK CFI 12b70 .cfa: sp 80 +
STACK CFI 12b84 .cfa: sp 0 +
STACK CFI 12b88 .cfa: x29 80 +
STACK CFI INIT 12c60 1a4 .cfa: sp 0 +
STACK CFI 12c64 .cfa: sp 112 +
STACK CFI 12c7c .cfa: x29 80 + x19: .cfa -8 + ^ x20: .cfa -16 + ^ x21: .cfa -24 + ^ x22: .cfa -32 + ^ x23: .cfa -40 + ^ x24: .cfa -48 + ^ x25: .cfa -56 + ^ x26: .cfa -64 + ^ .ra: .cfa -72 + ^ x29: .cfa -80 + ^
STACK CFI 12d6c .cfa: sp 112 +
STACK CFI 12d84 .cfa: sp 0 +
STACK CFI 12d88 .cfa: x29 80 +
STACK CFI INIT 12e04 1dc .cfa: sp 0 +
STACK CFI 12e08 .cfa: sp 128 +
STACK CFI 12e24 .cfa: x29 96 + x19: .cfa -8 + ^ x20: .cfa -16 + ^ x21: .cfa -24 + ^ x22: .cfa -32 + ^ x23: .cfa -40 + ^ x24: .cfa -48 + ^ x25: .cfa -56 + ^ x26: .cfa -64 + ^ x27: .cfa -80 + ^ .ra: .cfa -88 + ^ x29: .cfa -96 + ^
STACK CFI 12f90 .cfa: sp 128 +
STACK CFI 12fac .cfa: sp 0 +
STACK CFI 12fb0 .cfa: x29 96 +
STACK CFI INIT 12fe0 178 .cfa: sp 0 +
STACK CFI 12fe4 .cfa: sp 80 +
STACK CFI 12ff8 .cfa: x29 80 + x19: .cfa -8 + ^ x20: .cfa -16 + ^ x21: .cfa -24 + ^ x22: .cfa -32 + ^ x23: .cfa -40 + ^ x24: .cfa -48 + ^ x25: .cfa -64 + ^ .ra: .cfa -72 + ^ x29: .cfa -80 + ^
STACK CFI 13124 .cfa: sp 80 +
STACK CFI 13138 .cfa: sp 0 +
STACK CFI 1313c .cfa: x29 80 +
STACK CFI INIT 132a0 168 .cfa: sp 0 +
STACK CFI 132a4 .cfa: sp 384 +
STACK CFI 132b8 .cfa: x29 64 + x19: .cfa -8 + ^ x20: .cfa -16 + ^ x21: .cfa -24 + ^ x22: .cfa -32 + ^ x23: .cfa -40 + ^ x28: .cfa -48 + ^ .ra: .cfa -56 + ^ x29: .cfa -64 + ^
STACK CFI 133b0 .cfa: sp 384 +
STACK CFI 133c4 .cfa: sp 0 +
STACK CFI 133c8 .cfa: x29 64 +
STACK CFI INIT 13538 2cc .cfa: sp 0 +
STACK CFI 1353c .cfa: sp 96 +
STACK CFI 13550 .cfa: x29 64 + x19: .cfa -8 + ^ x20: .cfa -16 + ^ x21: .cfa -24 + ^ x22: .cfa -32 + ^ x23: .cfa -40 + ^ x24: .cfa -48 + ^ .ra: .cfa -56 + ^ x29: .cfa -64 + ^
STACK CFI 135dc .cfa: sp 96 +
STACK CFI 135f0 .cfa: sp 0 +
STACK CFI 135f4 .cfa: x29 64 +
STACK CFI INIT 13804 a8 .cfa: sp 0 +
STACK CFI 13808 .cfa: sp 32 +
STACK CFI 13810 .cfa: x29 32 + x19: .cfa -16 + ^ .ra: .cfa -24 + ^ x29: .cfa -32 + ^
STACK CFI 13844 .cfa: sp 32 +
STACK CFI 1384c .cfa: sp 0 +
STACK CFI 13850 .cfa: x29 32 +
STACK CFI 13854 .cfa: sp 32 +
STACK CFI 1385c .cfa: sp 0 +
STACK CFI 13860 .cfa: x29 32 +
STACK CFI INIT 139f0 1a4 .cfa: sp 0 +
STACK CFI 139f4 .cfa: sp 80 +
STACK CFI 13a04 .cfa: x29 48 + x19: .cfa -8 + ^ x20: .cfa -16 + ^ x21: .cfa -24 + ^ x22: .cfa -32 + ^ .ra: .cfa -40 + ^ x29: .cfa -48 + ^
STACK CFI 13b50 .cfa: sp 80 +
STACK CFI 13b60 .cfa: sp 0 +
STACK CFI 13b64 .cfa: x29 48 +
STACK CFI INIT 13b94 1b8 .cfa: sp 0 +
STACK CFI 13b98 .cfa: sp 80 +
STACK CFI 13ba8 .cfa: x29 48 + x19: .cfa -8 + ^ x20: .cfa -16 + ^ x21: .cfa -24 + ^ x22: .cfa -32 + ^ .ra: .cfa -40 + ^ x29: .cfa -48 + ^
STACK CFI 13d08 .cfa: sp 80 +
STACK CFI 13d18 .cfa: sp 0 +
STACK CFI 13d1c .cfa: x29 48 +
STACK CFI INIT 13d4c 34c .cfa: sp 0 +
STACK CFI 13d50 .cfa: sp 128 +
STACK CFI 13d64 .cfa: x29 64 + x19: .cfa -8 + ^ x20: .cfa -16 + ^ x21: .cfa -24 + ^ x22: .cfa -32 + ^ x23: .cfa -48 + ^ .ra: .cfa -56 + ^ x29: .cfa -64 + ^
STACK CFI 13ff8 .cfa: sp 128 +
STACK CFI 1400c .cfa: sp 0 +
STACK CFI 14010 .cfa: x29 64 +
STACK CFI INIT 14098 1a4 .cfa: sp 0 +
STACK CFI 1409c .cfa: sp 80 +
STACK CFI 140ac .cfa: x29 48 + x19: .cfa -8 + ^ x20: .cfa -16 + ^ x21: .cfa -24 + ^ x22: .cfa -32 + ^ .ra: .cfa -40 + ^ x29: .cfa -48 + ^
STACK CFI 141f8 .cfa: sp 80 +
STACK CFI 14208 .cfa: sp 0 +
STACK CFI 1420c .cfa: x29 48 +
STACK CFI INIT 1423c 1e8 .cfa: sp 0 +
STACK CFI 14240 .cfa: sp 80 +
STACK CFI 14250 .cfa: x29 48 + x19: .cfa -8 + ^ x20: .cfa -16 + ^ x21: .cfa -24 + ^ x22: .cfa -32 + ^ .ra: .cfa -40 + ^ x29: .cfa -48 + ^
STACK CFI 143e0 .cfa: sp 80 +
STACK CFI 143f0 .cfa: sp 0 +
STACK CFI 143f4 .cfa: x29 48 +
STACK CFI INIT 14424 1b8 .cfa: sp 0 +
STACK CFI 14428 .cfa: sp 80 +
STACK CFI 14438 .cfa: x29 48 + x19: .cfa -8 + ^ x20: .cfa -16 + ^ x21: .cfa -24 + ^ x22: .cfa -32 + ^ .ra: .cfa -40 + ^ x29: .cfa -48 + ^
STACK CFI 14594 .cfa: sp 80 +
STACK CFI 145a4 .cfa: sp 0 +
STACK CFI 145a8 .cfa: x29 48 +
STACK CFI INIT 145dc 1a4 .cfa: sp 0 +
STACK CFI 145e0 .cfa: sp 80 +
STACK CFI 145f0 .cfa: x29 48 + x19: .cfa -8 + ^ x20: .cfa -16 + ^ x21: .cfa -24 + ^ x22: .cfa -32 + ^ .ra: .cfa -40 + ^ x29: .cfa -48 + ^
STACK CFI 1473c .cfa: sp 80 +
STACK CFI 1474c .cfa: sp 0 +
STACK CFI 14750 .cfa: x29 48 +
STACK CFI INIT 149a8 268 .cfa: sp 0 +
STACK CFI 149ac .cfa: sp 144 +
STACK CFI 149bc .cfa: x29 48 + x19: .cfa -8 + ^ x20: .cfa -16 + ^ x21: .cfa -32 + ^ .ra: .cfa -40 + ^ x29: .cfa -48 + ^
STACK CFI 14a94 .cfa: sp 144 +
STACK CFI 14aa4 .cfa: sp 0 +
STACK CFI 14aa8 .cfa: x29 48 +
STACK CFI 14b84 .cfa: sp 144 +
STACK CFI 14b94 .cfa: sp 0 +
STACK CFI 14b98 .cfa: x29 48 +
STACK CFI INIT 14c10 d28 .cfa: sp 0 +
STACK CFI 14c14 .cfa: sp 96 +
STACK CFI 14c2c .cfa: x29 96 + x19: .cfa -8 + ^ x20: .cfa -16 + ^ x21: .cfa -24 + ^ x22: .cfa -32 + ^ x23: .cfa -40 + ^ x24: .cfa -48 + ^ x25: .cfa -56 + ^ x26: .cfa -64 + ^ x27: .cfa -72 + ^ x28: .cfa -80 + ^ .ra: .cfa -88 + ^ x29: .cfa -96 + ^
STACK CFI 15770 .cfa: sp 96 +
STACK CFI 15788 .cfa: sp 0 +
STACK CFI 1578c .cfa: x29 96 +
STACK CFI INIT 15938 50 .cfa: sp 0 +
STACK CFI 1593c .cfa: sp 32 +
STACK CFI 15944 .cfa: x29 32 + x19: .cfa -8 + ^ x20: .cfa -16 + ^ .ra: .cfa -24 + ^ x29: .cfa -32 + ^
STACK CFI INIT 159b8 190 .cfa: sp 0 +
STACK CFI 159bc .cfa: sp 96 +
STACK CFI 159d0 .cfa: x29 64 + x19: .cfa -8 + ^ x20: .cfa -16 + ^ x21: .cfa -24 + ^ x22: .cfa -32 + ^ x23: .cfa -48 + ^ .ra: .cfa -56 + ^ x29: .cfa -64 + ^
STACK CFI 15ac8 .cfa: sp 96 +
STACK CFI 15adc .cfa: sp 0 +
STACK CFI 15ae0 .cfa: x29 64 +
STACK CFI INIT 15c3c 298 .cfa: sp 0 +
STACK CFI 15c40 .cfa: sp 144 +
STACK CFI 15c50 .cfa: x29 48 + x19: .cfa -8 + ^ x20: .cfa -16 + ^ x21: .cfa -32 + ^ .ra: .cfa -40 + ^ x29: .cfa -48 + ^
STACK CFI 15d0c .cfa: sp 144 +
STACK CFI 15d1c .cfa: sp 0 +
STACK CFI 15d20 .cfa: x29 48 +
STACK CFI 15d60 .cfa: sp 144 +
STACK CFI 15d70 .cfa: sp 0 +
STACK CFI 15d74 .cfa: x29 48 +
STACK CFI INIT 15f78 270 .cfa: sp 0 +
STACK CFI 15f7c .cfa: sp 144 +
STACK CFI 15f8c .cfa: x29 48 + x19: .cfa -8 + ^ x20: .cfa -16 + ^ x21: .cfa -32 + ^ .ra: .cfa -40 + ^ x29: .cfa -48 + ^
STACK CFI 16064 .cfa: sp 144 +
STACK CFI 16074 .cfa: sp 0 +
STACK CFI 16078 .cfa: x29 48 +
STACK CFI 1615c .cfa: sp 144 +
STACK CFI 1616c .cfa: sp 0 +
STACK CFI 16170 .cfa: x29 48 +
STACK CFI INIT 1628c 368 .cfa: sp 0 +
STACK CFI 16290 .cfa: sp 80 +
STACK CFI 162a4 .cfa: x29 80 + x19: .cfa -8 + ^ x20: .cfa -16 + ^ x21: .cfa -24 + ^ x22: .cfa -32 + ^ x23: .cfa -40 + ^ x24: .cfa -48 + ^ x25: .cfa -56 + ^ x28: .cfa -64 + ^ .ra: .cfa -72 + ^ x29: .cfa -80 + ^
STACK CFI 16384 .cfa: sp 80 +
STACK CFI 16398 .cfa: sp 0 +
STACK CFI 1639c .cfa: x29 80 +
STACK CFI 16554 .cfa: sp 80 +
STACK CFI 16568 .cfa: sp 0 +
STACK CFI 1656c .cfa: x29 80 +
STACK CFI INIT 16698 280 .cfa: sp 0 +
STACK CFI 1669c .cfa: sp 144 +
STACK CFI 166ac .cfa: x29 48 + x19: .cfa -8 + ^ x20: .cfa -16 + ^ x21: .cfa -32 + ^ .ra: .cfa -40 + ^ x29: .cfa -48 + ^
STACK CFI 16770 .cfa: sp 144 +
STACK CFI 16780 .cfa: sp 0 +
STACK CFI 16784 .cfa: x29 48 +
STACK CFI 1688c .cfa: sp 144 +
STACK CFI 1689c .cfa: sp 0 +
STACK CFI 168a0 .cfa: x29 48 +
STACK CFI INIT 16918 198 .cfa: sp 0 +
STACK CFI 1691c .cfa: sp 96 +
STACK CFI 16930 .cfa: x29 64 + x19: .cfa -8 + ^ x20: .cfa -16 + ^ x21: .cfa -24 + ^ x22: .cfa -32 + ^ x23: .cfa -48 + ^ .ra: .cfa -56 + ^ x29: .cfa -64 + ^
STACK CFI 16a30 .cfa: sp 96 +
STACK CFI 16a44 .cfa: sp 0 +
STACK CFI 16a48 .cfa: x29 64 +
STACK CFI INIT 16b00 4a0 .cfa: sp 0 +
STACK CFI 16b04 .cfa: sp 224 +
STACK CFI 16b14 .cfa: x29 48 + x19: .cfa -8 + ^ x20: .cfa -16 + ^ x21: .cfa -32 + ^ .ra: .cfa -40 + ^ x29: .cfa -48 + ^
STACK CFI 16e38 .cfa: sp 224 +
STACK CFI 16e48 .cfa: sp 0 +
STACK CFI 16e4c .cfa: x29 48 +
STACK CFI INIT 16fa0 140 .cfa: sp 0 +
STACK CFI 16fa4 .cfa: sp 80 +
STACK CFI 16fb0 .cfa: x29 32 + x19: .cfa -8 + ^ x20: .cfa -16 + ^ .ra: .cfa -24 + ^ x29: .cfa -32 + ^
STACK CFI 17080 .cfa: sp 80 +
STACK CFI 1708c .cfa: sp 0 +
STACK CFI 17090 .cfa: x29 32 +
STACK CFI INIT 1716c 450 .cfa: sp 0 +
STACK CFI 17170 .cfa: sp 80 +
STACK CFI 17184 .cfa: x29 80 + x19: .cfa -8 + ^ x20: .cfa -16 + ^ x21: .cfa -24 + ^ x22: .cfa -32 + ^ x23: .cfa -40 + ^ x24: .cfa -48 + ^ x25: .cfa -56 + ^ x28: .cfa -64 + ^ .ra: .cfa -72 + ^ x29: .cfa -80 + ^
STACK CFI 174e4 .cfa: sp 80 +
STACK CFI 174f8 .cfa: sp 0 +
STACK CFI 174fc .cfa: x29 80 +
STACK CFI INIT 17610 1ec .cfa: sp 0 +
STACK CFI 17614 .cfa: sp 80 +
STACK CFI 17628 .cfa: x29 80 + x19: .cfa -8 + ^ x20: .cfa -16 + ^ x21: .cfa -24 + ^ x22: .cfa -32 + ^ x23: .cfa -40 + ^ x24: .cfa -48 + ^ x28: .cfa -64 + ^ .ra: .cfa -72 + ^ x29: .cfa -80 + ^
STACK CFI 17748 .cfa: sp 80 +
STACK CFI 1775c .cfa: sp 0 +
STACK CFI 17760 .cfa: x29 80 +
STACK CFI INIT 17824 8f4 .cfa: sp 0 +
STACK CFI 17828 .cfa: sp 112 +
STACK CFI 17844 .cfa: x29 96 + x19: .cfa -8 + ^ x20: .cfa -16 + ^ x21: .cfa -24 + ^ x22: .cfa -32 + ^ x23: .cfa -40 + ^ x24: .cfa -48 + ^ x25: .cfa -56 + ^ x26: .cfa -64 + ^ x27: .cfa -72 + ^ x28: .cfa -80 + ^ .ra: .cfa -88 + ^ x29: .cfa -96 + ^ v8: .cfa -112 + ^
STACK CFI 17f70 .cfa: sp 112 +
STACK CFI 17f8c .cfa: sp 0 +
STACK CFI 17f90 .cfa: x29 96 +
STACK CFI INIT 18118 644 .cfa: sp 0 +
STACK CFI 1811c .cfa: sp 224 +
STACK CFI 18138 .cfa: x29 96 + x19: .cfa -8 + ^ x20: .cfa -16 + ^ x21: .cfa -24 + ^ x22: .cfa -32 + ^ x23: .cfa -40 + ^ x24: .cfa -48 + ^ x25: .cfa -56 + ^ x26: .cfa -64 + ^ x27: .cfa -72 + ^ x28: .cfa -80 + ^ .ra: .cfa -88 + ^ x29: .cfa -96 + ^
STACK CFI 185ec .cfa: sp 224 +
STACK CFI 18608 .cfa: sp 0 +
STACK CFI 1860c .cfa: x29 96 +
STACK CFI INIT 189f0 134 .cfa: sp 0 +
STACK CFI 189f4 .cfa: sp 80 +
STACK CFI 18a00 .cfa: x29 32 + x19: .cfa -8 + ^ x20: .cfa -16 + ^ .ra: .cfa -24 + ^ x29: .cfa -32 + ^
STACK CFI 18a30 .cfa: sp 80 +
STACK CFI 18a3c .cfa: sp 0 +
STACK CFI 18a40 .cfa: x29 32 +
STACK CFI INIT 18b24 78 .cfa: sp 0 +
STACK CFI 18b28 .cfa: sp 32 +
STACK CFI 18b30 .cfa: x29 32 + x19: .cfa -8 + ^ x20: .cfa -16 + ^ .ra: .cfa -24 + ^ x29: .cfa -32 + ^
STACK CFI 18b3c .cfa: sp 32 +
STACK CFI 18b44 .cfa: sp 0 +
STACK CFI 18b48 .cfa: x29 32 +
STACK CFI INIT 18b9c 74 .cfa: sp 0 +
STACK CFI 18ba0 .cfa: sp 48 +
STACK CFI 18bac .cfa: x29 32 + x19: .cfa -8 + ^ x20: .cfa -16 + ^ .ra: .cfa -24 + ^ x29: .cfa -32 + ^
STACK CFI 18bf8 .cfa: sp 48 +
STACK CFI 18c04 .cfa: sp 0 +
STACK CFI 18c08 .cfa: x29 32 +
STACK CFI INIT 18c74 1b8 .cfa: sp 0 +
STACK CFI 18c78 .cfa: sp 160 +
STACK CFI 18c94 .cfa: x29 72 + x19: .cfa -8 + ^ x20: .cfa -16 + ^ x21: .cfa -24 + ^ x22: .cfa -32 + ^ x23: .cfa -40 + ^ x24: .cfa -48 + ^ x25: .cfa -56 + ^ .ra: .cfa -64 + ^ x29: .cfa -72 + ^ v8: .cfa -80 + ^
STACK CFI 18d18 .cfa: sp 160 +
STACK CFI 18d34 .cfa: sp 0 +
STACK CFI 18d38 .cfa: x29 72 +
STACK CFI INIT 18e2c 16c .cfa: sp 0 +
STACK CFI 18e30 .cfa: sp 64 +
STACK CFI 18e40 .cfa: x29 48 + x19: .cfa -8 + ^ x20: .cfa -16 + ^ x21: .cfa -24 + ^ x22: .cfa -32 + ^ .ra: .cfa -40 + ^ x29: .cfa -48 + ^
STACK CFI 18f38 .cfa: sp 64 +
STACK CFI 18f48 .cfa: sp 0 +
STACK CFI 18f4c .cfa: x29 48 +
STACK CFI INIT 18f98 154 .cfa: sp 0 +
STACK CFI 18f9c .cfa: sp 384 +
STACK CFI 18fb0 .cfa: x29 64 + x19: .cfa -8 + ^ x20: .cfa -16 + ^ x21: .cfa -24 + ^ x22: .cfa -32 + ^ x23: .cfa -40 + ^ x28: .cfa -48 + ^ .ra: .cfa -56 + ^ x29: .cfa -64 + ^
STACK CFI 19094 .cfa: sp 384 +
STACK CFI 190a8 .cfa: sp 0 +
STACK CFI 190ac .cfa: x29 64 +
STACK CFI INIT 19434 294 .cfa: sp 0 +
STACK CFI 19438 .cfa: sp 240 +
STACK CFI 19450 .cfa: x29 80 + x19: .cfa -8 + ^ x20: .cfa -16 + ^ x21: .cfa -24 + ^ x22: .cfa -32 + ^ x23: .cfa -40 + ^ x24: .cfa -48 + ^ x25: .cfa -64 + ^ .ra: .cfa -72 + ^ x29: .cfa -80 + ^
STACK CFI 195f0 .cfa: sp 240 +
STACK CFI 19608 .cfa: sp 0 +
STACK CFI 1960c .cfa: x29 80 +
STACK CFI INIT 19744 50 .cfa: sp 0 +
STACK CFI 19748 .cfa: sp 32 +
STACK CFI 19750 .cfa: x29 32 + x19: .cfa -8 + ^ x20: .cfa -16 + ^ .ra: .cfa -24 + ^ x29: .cfa -32 + ^
STACK CFI INIT 197c0 7c0 .cfa: sp 0 +
STACK CFI 197c4 .cfa: sp 320 +
STACK CFI 197e0 .cfa: x29 96 + x19: .cfa -8 + ^ x20: .cfa -16 + ^ x21: .cfa -24 + ^ x22: .cfa -32 + ^ x23: .cfa -40 + ^ x24: .cfa -48 + ^ x25: .cfa -56 + ^ x26: .cfa -64 + ^ x27: .cfa -72 + ^ x28: .cfa -80 + ^ .ra: .cfa -88 + ^ x29: .cfa -96 + ^
STACK CFI 19e30 .cfa: sp 320 +
STACK CFI 19e4c .cfa: sp 0 +
STACK CFI 19e50 .cfa: x29 96 +
STACK CFI INIT 1e300 c74 .cfa: sp 0 +
STACK CFI 1e304 .cfa: sp 96 +
STACK CFI 1e31c .cfa: x29 96 + x19: .cfa -8 + ^ x20: .cfa -16 + ^ x21: .cfa -24 + ^ x22: .cfa -32 + ^ x23: .cfa -40 + ^ x24: .cfa -48 + ^ x25: .cfa -56 + ^ x26: .cfa -64 + ^ x27: .cfa -72 + ^ x28: .cfa -80 + ^ .ra: .cfa -88 + ^ x29: .cfa -96 + ^
STACK CFI 1ed94 .cfa: sp 96 +
STACK CFI 1edac .cfa: sp 0 +
STACK CFI 1edb0 .cfa: x29 96 +
STACK CFI INIT 1f0c8 26c .cfa: sp 0 +
STACK CFI 1f0cc .cfa: sp 128 +
STACK CFI 1f0dc .cfa: x29 48 + x19: .cfa -8 + ^ x20: .cfa -16 + ^ x21: .cfa -24 + ^ x22: .cfa -32 + ^ .ra: .cfa -40 + ^ x29: .cfa -48 + ^
STACK CFI 1f280 .cfa: sp 128 +
STACK CFI 1f290 .cfa: sp 0 +
STACK CFI 1f294 .cfa: x29 48 +
STACK CFI INIT 1f880 3b8 .cfa: sp 0 +
STACK CFI 1f884 .cfa: sp 96 +
STACK CFI 1f89c .cfa: x29 96 + x19: .cfa -8 + ^ x20: .cfa -16 + ^ x21: .cfa -24 + ^ x22: .cfa -32 + ^ x23: .cfa -40 + ^ x24: .cfa -48 + ^ x25: .cfa -56 + ^ x26: .cfa -64 + ^ x27: .cfa -72 + ^ x28: .cfa -80 + ^ .ra: .cfa -88 + ^ x29: .cfa -96 + ^
STACK CFI 1fbd8 .cfa: sp 96 +
STACK CFI 1fbf0 .cfa: sp 0 +
STACK CFI 1fbf4 .cfa: x29 96 +
STACK CFI INIT 1fcd8 cb4 .cfa: sp 0 +
STACK CFI 1fcdc .cfa: sp 96 +
STACK CFI 1fcf4 .cfa: x29 96 + x19: .cfa -8 + ^ x20: .cfa -16 + ^ x21: .cfa -24 + ^ x22: .cfa -32 + ^ x23: .cfa -40 + ^ x24: .cfa -48 + ^ x25: .cfa -56 + ^ x26: .cfa -64 + ^ x27: .cfa -72 + ^ x28: .cfa -80 + ^ .ra: .cfa -88 + ^ x29: .cfa -96 + ^
STACK CFI 2079c .cfa: sp 96 +
STACK CFI 207b4 .cfa: sp 0 +
STACK CFI 207b8 .cfa: x29 96 +
STACK CFI INIT 20c74 afc .cfa: sp 0 +
STACK CFI 20c78 .cfa: sp 96 +
STACK CFI 20c90 .cfa: x29 96 + x19: .cfa -8 + ^ x20: .cfa -16 + ^ x21: .cfa -24 + ^ x22: .cfa -32 + ^ x23: .cfa -40 + ^ x24: .cfa -48 + ^ x25: .cfa -56 + ^ x26: .cfa -64 + ^ x27: .cfa -72 + ^ x28: .cfa -80 + ^ .ra: .cfa -88 + ^ x29: .cfa -96 + ^
STACK CFI 216e4 .cfa: sp 96 +
STACK CFI 216fc .cfa: sp 0 +
STACK CFI 21700 .cfa: x29 96 +
STACK CFI INIT 2194c 1430 .cfa: sp 0 +
STACK CFI 21950 .cfa: sp 96 +
STACK CFI 21968 .cfa: x29 96 + x19: .cfa -8 + ^ x20: .cfa -16 + ^ x21: .cfa -24 + ^ x22: .cfa -32 + ^ x23: .cfa -40 + ^ x24: .cfa -48 + ^ x25: .cfa -56 + ^ x26: .cfa -64 + ^ x27: .cfa -72 + ^ x28: .cfa -80 + ^ .ra: .cfa -88 + ^ x29: .cfa -96 + ^
STACK CFI 22c04 .cfa: sp 96 +
STACK CFI 22c1c .cfa: sp 0 +
STACK CFI 22c20 .cfa: x29 96 +
STACK CFI INIT 22ea0 75c .cfa: sp 0 +
STACK CFI 22ea4 .cfa: sp 368 +
STACK CFI 22ec0 .cfa: x29 96 + x19: .cfa -8 + ^ x20: .cfa -16 + ^ x21: .cfa -24 + ^ x22: .cfa -32 + ^ x23: .cfa -40 + ^ x24: .cfa -48 + ^ x25: .cfa -56 + ^ x26: .cfa -64 + ^ x27: .cfa -72 + ^ x28: .cfa -80 + ^ .ra: .cfa -88 + ^ x29: .cfa -96 + ^
STACK CFI 22f74 .cfa: sp 368 +
STACK CFI 22f90 .cfa: sp 0 +
STACK CFI 22f94 .cfa: x29 96 +
STACK CFI 22fe8 .cfa: sp 368 +
STACK CFI 23004 .cfa: sp 0 +
STACK CFI 23008 .cfa: x29 96 +
STACK CFI INIT 239bc eb0 .cfa: sp 0 +
STACK CFI 239c0 .cfa: sp 96 +
STACK CFI 239d8 .cfa: x29 96 + x19: .cfa -8 + ^ x20: .cfa -16 + ^ x21: .cfa -24 + ^ x22: .cfa -32 + ^ x23: .cfa -40 + ^ x24: .cfa -48 + ^ x25: .cfa -56 + ^ x26: .cfa -64 + ^ x27: .cfa -72 + ^ x28: .cfa -80 + ^ .ra: .cfa -88 + ^ x29: .cfa -96 + ^
STACK CFI 24680 .cfa: sp 96 +
STACK CFI 24698 .cfa: sp 0 +
STACK CFI 2469c .cfa: x29 96 +
STACK CFI INIT 24be0 1c9c .cfa: sp 0 +
STACK CFI 24be4 .cfa: sp 112 +
STACK CFI 24c00 .cfa: x29 96 + x19: .cfa -8 + ^ x20: .cfa -16 + ^ x21: .cfa -24 + ^ x22: .cfa -32 + ^ x23: .cfa -40 + ^ x24: .cfa -48 + ^ x25: .cfa -56 + ^ x26: .cfa -64 + ^ x27: .cfa -72 + ^ x28: .cfa -80 + ^ .ra: .cfa -88 + ^ x29: .cfa -96 + ^ v8: .cfa -112 + ^
STACK CFI 24fe8 .cfa: sp 112 +
STACK CFI 25004 .cfa: sp 0 +
STACK CFI 25008 .cfa: x29 96 +
STACK CFI INIT 29040 9a0 .cfa: sp 0 +
STACK CFI 29044 .cfa: sp 144 +
STACK CFI 2905c .cfa: x29 80 + x19: .cfa -8 + ^ x20: .cfa -16 + ^ x21: .cfa -24 + ^ x22: .cfa -32 + ^ x23: .cfa -40 + ^ x24: .cfa -48 + ^ x25: .cfa -64 + ^ .ra: .cfa -72 + ^ x29: .cfa -80 + ^
STACK CFI 2995c .cfa: sp 144 +
STACK CFI 29974 .cfa: sp 0 +
STACK CFI 29978 .cfa: x29 80 +
STACK CFI INIT 2af04 57c .cfa: sp 0 +
STACK CFI 2af08 .cfa: sp 96 +
STACK CFI 2af20 .cfa: x29 96 + x19: .cfa -8 + ^ x20: .cfa -16 + ^ x21: .cfa -24 + ^ x22: .cfa -32 + ^ x23: .cfa -40 + ^ x24: .cfa -48 + ^ x25: .cfa -56 + ^ x26: .cfa -64 + ^ x27: .cfa -72 + ^ x28: .cfa -80 + ^ .ra: .cfa -88 + ^ x29: .cfa -96 + ^
STACK CFI 2b3e4 .cfa: sp 96 +
STACK CFI 2b3fc .cfa: sp 0 +
STACK CFI 2b400 .cfa: x29 96 +
STACK CFI INIT 2b480 67c .cfa: sp 0 +
STACK CFI 2b484 .cfa: sp 96 +
STACK CFI 2b49c .cfa: x29 96 + x19: .cfa -8 + ^ x20: .cfa -16 + ^ x21: .cfa -24 + ^ x22: .cfa -32 + ^ x23: .cfa -40 + ^ x24: .cfa -48 + ^ x25: .cfa -56 + ^ x26: .cfa -64 + ^ x27: .cfa -72 + ^ x28: .cfa -80 + ^ .ra: .cfa -88 + ^ x29: .cfa -96 + ^
STACK CFI 2ba60 .cfa: sp 96 +
STACK CFI 2ba78 .cfa: sp 0 +
STACK CFI 2ba7c .cfa: x29 96 +
