MODULE Linux arm64 CF1D31A14D33DF058B20D78DA6A5B8CC0 alphalaneous.object_summary.android64.so
INFO CODE_ID A1311DCF334D05DF8B20D78DA6A5B8CC1BDF15C9
INFO GENERATOR mozilla/dump_syms 2.3.4
PUBLIC 16d80 0 __on_dlclose
PUBLIC 16d90 0 __emutls_unregister_key
PUBLIC 16d98 0 __on_dlclose_late
PUBLIC 16da0 0 __atexit_handler_wrapper
PUBLIC 16db4 0 atexit
PUBLIC 16dd0 0 pthread_atfork
PUBLIC 16de0 0 ObjectItem::init(GameObject*, GameObject*, int, int, cocos2d::CCSize const&)
PUBLIC 16f18 0 ObjectItem::createNode(GameObject*, int)
PUBLIC 17598 0 std::__ndk1::basic_string<char, std::__ndk1::char_traits<char>, std::__ndk1::allocator<char> >::__throw_length_error[abi:ne180000]() const
PUBLIC 175ac 0 std::__ndk1::__throw_length_error[abi:ne180000](char const*)
PUBLIC 175fc 0 std::length_error::length_error[abi:ne180000](char const*)
PUBLIC 1762c 0 cocos2d::CCCopying::copyWithZone(cocos2d::CCZone*)
PUBLIC 17634 0 ObjectItem::~ObjectItem()
PUBLIC 17658 0 geode::cast::traverseTypeinfoFor(void*, geode::cast::ClassTypeinfoType const*, char const*)
PUBLIC 1775c 0 ObjectList::init(std::__ndk1::map<int, int, std::__ndk1::less<int>, std::__ndk1::allocator<std::__ndk1::pair<int const, int> > >, SortOptions, cocos2d::CCSize const&)
PUBLIC 18054 0 ObjectList::create(std::__ndk1::map<int, int, std::__ndk1::less<int>, std::__ndk1::allocator<std::__ndk1::pair<int const, int> > >, SortOptions, cocos2d::CCSize const&)
PUBLIC 18184 0 std::__ndk1::basic_string<char, std::__ndk1::char_traits<char>, std::__ndk1::allocator<char> >::__init_copy_ctor_external(char const*, unsigned long)
PUBLIC 18204 0 std::__throw_bad_array_new_length([abi:ne180000], void)
PUBLIC 18238 0 std::__ndk1::vector<std::__ndk1::pair<int, int>, std::__ndk1::allocator<std::__ndk1::pair<int, int> > >::__throw_length_error[abi:ne180000]() const
PUBLIC 1824c 0 std::__ndk1::__introsort<std::__ndk1::_ClassicAlgPolicy, ObjectList::init(std::__ndk1::map<int, int, std::__ndk1::less<int>, std::__ndk1::allocator<std::__ndk1::pair<int const, int> > >, SortOptions, cocos2d::CCSize const&)::$_0&, std::__ndk1::pair<int, int>*, false>(std::__ndk1::pair<int, int>*, std::__ndk1::pair<int, int>*, ObjectList::init(std::__ndk1::map<int, int, std::__ndk1::less<int>, std::__ndk1::allocator<std::__ndk1::pair<int const, int> > >, SortOptions, cocos2d::CCSize const&)::$_0&, std::__ndk1::iterator_traits<std::__ndk1::pair<int, int>*>::difference_type, bool)
PUBLIC 19170 0 std::__ndk1::__insertion_sort_incomplete[abi:ne180000]<std::__ndk1::_ClassicAlgPolicy, ObjectList::init(std::__ndk1::map<int, int, std::__ndk1::less<int>, std::__ndk1::allocator<std::__ndk1::pair<int const, int> > >, SortOptions, cocos2d::CCSize const&)::$_0&, std::__ndk1::allocator<int, int>*>(std::__ndk1::allocator<int, int>*, std::__ndk1::allocator<int, int>*, ObjectList::init(std::__ndk1::map<int, int, std::__ndk1::less<int>, std::__ndk1::allocator<std::__ndk1::pair<int const, int> > >, SortOptions, cocos2d::CCSize const&)::$_0&)
PUBLIC 19628 0 std::__ndk1::__sort4[abi:ne180000]<std::__ndk1::_ClassicAlgPolicy, ObjectList::init(std::__ndk1::map<int, int, std::__ndk1::less<int>, std::__ndk1::allocator<std::__ndk1::pair<int const, int> > >, SortOptions, cocos2d::CCSize const&)::$_0&, std::__ndk1::allocator<int, int>*>(std::__ndk1::allocator<int, int>*, std::__ndk1::allocator<int, int>*, std::__ndk1::allocator<int, int>*, std::__ndk1::allocator<int, int>*, ObjectList::init(std::__ndk1::map<int, int, std::__ndk1::less<int>, std::__ndk1::allocator<std::__ndk1::pair<int const, int> > >, SortOptions, cocos2d::CCSize const&)::$_0&)
PUBLIC 1981c 0 ObjectList::~ObjectList()
PUBLIC 19840 0 std::__ndk1::__tree<std::__ndk1::__value_type<int, int>, std::__ndk1::__map_value_compare<int, std::__ndk1::__value_type<int, int>, std::__ndk1::less<int>, true>, std::__ndk1::allocator<std::__ndk1::__value_type<int, int> > >::destroy(std::__ndk1::__tree_node<std::__ndk1::__value_type<int, int>, void*>*)
PUBLIC 19884 0 std::__ndk1::map<int, int, std::__ndk1::less<int>, std::__ndk1::allocator<std::__ndk1::pair<int const, int> > >::insert[abi:ne180000]<std::__ndk1::__map_const_iterator<std::__ndk1::__tree_const_iterator<std::__ndk1::__value_type<int, int>, std::__ndk1::__tree_node<std::__ndk1::__value_type, void*>*, long> > >(std::__ndk1::__map_const_iterator<std::__ndk1::__tree_const_iterator<std::__ndk1::__value_type<int, int>, std::__ndk1::__tree_node<std::__ndk1::__value_type, void*>*, long> >, std::__ndk1::__map_const_iterator<std::__ndk1::__tree_const_iterator<std::__ndk1::__value_type<int, int>, std::__ndk1::__tree_node<std::__ndk1::__value_type, void*>*, long> >)
PUBLIC 199a8 0 std::__ndk1::__tree<std::__ndk1::__value_type<int, int>, std::__ndk1::__map_value_compare<int, std::__ndk1::__value_type<int, int>, std::__ndk1::less<int>, true>, std::__ndk1::allocator<std::__ndk1::__value_type<int, int> > >::__find_equal<int>(std::__ndk1::__tree_const_iterator<std::__ndk1::__value_type<int, int>, std::__ndk1::__tree_node<std::__ndk1::__value_type<int, int>, void*>*, long>, std::__ndk1::__tree_end_node<std::__ndk1::__tree_node_base<void*>*>*&, std::__ndk1::__tree_node_base<void*>*&, int const&)
PUBLIC 19b58 0 std::__ndk1::__tree_balance_after_insert[abi:ne180000]<std::__ndk1::__tree_node_base<void*>*>(std::__ndk1::__tree_node_base<void*>*, std::__ndk1::__tree_node_base<void*>*)
PUBLIC 19d10 0 __aarch64_ldadd8_acq_rel
PUBLIC 19d40 0 init_have_lse_atomics
PUBLIC 19dd8 0 __init_cpu_features_constructor
PUBLIC 1a374 0 __init_cpu_features
PUBLIC 1a400 0 geode::Popup<>::setCloseButtonSpr(cocos2d::CCSprite*, float)
PUBLIC 1a550 0 ObjectPopup::setup()
PUBLIC 1adbc 0 ObjectPopup::generateList(SortOptions)
PUBLIC 1b4cc 0 ObjectPopup::createToggler(std::__ndk1::basic_string<char, std::__ndk1::char_traits<char>, std::__ndk1::allocator<char> >, void (cocos2d::CCObject::*)(cocos2d::CCObject*), bool, float)
PUBLIC 1b794 0 ObjectPopup::onSort(cocos2d::CCObject*)
PUBLIC 1b7f4 0 ObjectPopup::onSolids(cocos2d::CCObject*)
PUBLIC 1b8cc 0 ObjectPopup::onHazards(cocos2d::CCObject*)
PUBLIC 1b9a4 0 ObjectPopup::onDecoration(cocos2d::CCObject*)
PUBLIC 1ba7c 0 ObjectPopup::onPortals(cocos2d::CCObject*)
PUBLIC 1bb54 0 ObjectPopup::onPadsOrbs(cocos2d::CCObject*)
PUBLIC 1bc2c 0 ObjectPopup::onTriggers(cocos2d::CCObject*)
PUBLIC 1bd04 0 ObjectPopup::onShowHidden(cocos2d::CCObject*)
PUBLIC 1bd64 0 geode::cocos::CCArrayExt<GameObject*, GameObject>::~CCArrayExt()
PUBLIC 1bd80 0 ObjectPopup::onClose(cocos2d::CCObject*)
PUBLIC 1bdd0 0 ObjectPopup::create(LevelEditorLayer*)
PUBLIC 1bf88 0 geode::Popup<>::~Popup()
PUBLIC 1bff4 0 ObjectPopup::~ObjectPopup()
PUBLIC 1c068 0 geode::Popup<>::registerWithTouchDispatcher()
PUBLIC 1c094 0 geode::Popup<>::keyDown(cocos2d::enumKeyCodes)
PUBLIC 1c0bc 0 cocos2d::CCLayerRGBA::setOpacityModifyRGB(bool)
PUBLIC 1c0c0 0 cocos2d::CCLayerRGBA::isOpacityModifyRGB()
PUBLIC 1c0c8 0 {virtual override thunk({offset(-320)}, ObjectPopup::~ObjectPopup())}
PUBLIC 1c134 0 {virtual override thunk({offset(-320)}, ObjectPopup::~ObjectPopup())}
PUBLIC 1c1a8 0 {virtual override thunk({offset(-344)}, geode::Popup<>::keyDown(cocos2d::enumKeyCodes))}
PUBLIC 1c1d4 0 cocos2d::CCKeyboardDelegate::keyUp(cocos2d::enumKeyCodes)
PUBLIC 1c1d8 0 cocos2d::CCMouseDelegate::rightKeyDown()
PUBLIC 1c1dc 0 cocos2d::CCMouseDelegate::rightKeyUp()
PUBLIC 1c1e0 0 cocos2d::CCMouseDelegate::scrollWheel(float, float)
PUBLIC 1c1e4 0 {virtual override thunk({offset(-408)}, cocos2d::CCLayerRGBA::setOpacityModifyRGB(bool))}
PUBLIC 1c1e8 0 {virtual override thunk({offset(-408)}, cocos2d::CCLayerRGBA::isOpacityModifyRGB())}
PUBLIC 1c1f0 0 __clang_call_terminate
PUBLIC 1c200 0 std::__ndk1::__tree<std::__ndk1::__value_type<int, bool>, std::__ndk1::__map_value_compare<int, std::__ndk1::__value_type<int, bool>, std::__ndk1::less<int>, true>, std::__ndk1::allocator<std::__ndk1::__value_type<int, bool> > >::destroy(std::__ndk1::__tree_node<std::__ndk1::__value_type<int, bool>, void*>*)
PUBLIC 1c23c 0 geode::Popup<>::~Popup()
PUBLIC 1c240 0 geode::Popup<>::onClose(cocos2d::CCObject*)
PUBLIC 1c388 0 {virtual override thunk({offset(-320)}, geode::Popup<>::~Popup())}
PUBLIC 1c3f4 0 {virtual override thunk({offset(-320)}, geode::Popup<>::~Popup())}
PUBLIC 1c3f8 0 geode::Popup<>::CloseEvent::~CloseEvent()
PUBLIC 1c458 0 geode::Popup<>::CloseEvent::~CloseEvent()
PUBLIC 1c4c8 0 std::__ndk1::__shared_ptr_emplace<geode::Popup<>::CloseEvent::Impl, std::__ndk1::allocator<geode::Popup<>::CloseEvent::Impl> >::~__shared_ptr_emplace()
PUBLIC 1c4d8 0 std::__ndk1::__shared_ptr_emplace<geode::Popup<>::CloseEvent::Impl, std::__ndk1::allocator<geode::Popup<>::CloseEvent::Impl> >::~__shared_ptr_emplace()
PUBLIC 1c508 0 std::__ndk1::__shared_ptr_emplace<geode::Popup<>::CloseEvent::Impl, std::__ndk1::allocator<geode::Popup<>::CloseEvent::Impl> >::__on_zero_shared()
PUBLIC 1c50c 0 std::__ndk1::__shared_ptr_emplace<geode::Popup<>::CloseEvent::Impl, std::__ndk1::allocator<geode::Popup<>::CloseEvent::Impl> >::__on_zero_shared_weak()
PUBLIC 1c510 0 geode::Popup<>::initBase(float, float, char const*, cocos2d::CCRect, bool)
PUBLIC 1c818 0 geode::Ref<cocos2d::CCNode>::~Ref()
PUBLIC 1c840 0 __aarch64_ldadd8_relax
PUBLIC 1c870 0 __cxx_global_var_init
PUBLIC 1d444 0 geode::modifier::ModifyBase<geode::modifier::ModifyDerive<MyLevelSettingsLayer, LevelSettingsLayer> >::~ModifyBase()
PUBLIC 1d45c 0 geode::modifier::ModifyDerive<MyLevelSettingsLayer, LevelSettingsLayer>::apply()
PUBLIC 1d920 0 std::__ndk1::shared_ptr<geode::Hook>::~shared_ptr[abi:ne180000]()
PUBLIC 1d970 0 geode::impl::ResultData<geode::Hook*, std::__ndk1::basic_string<char, std::__ndk1::char_traits<char>, std::__ndk1::allocator<char> > >::~ResultData()
PUBLIC 1d9e4 0 std::__ndk1::vector<std::__ndk1::basic_string<char, std::__ndk1::char_traits<char>, std::__ndk1::allocator<char> >, std::__ndk1::allocator<std::__ndk1::basic_string<char, std::__ndk1::char_traits<char>, std::__ndk1::allocator<char> > > >::~vector[abi:ne180000]()
PUBLIC 1da60 0 geode::modifier::ModifyBase<geode::modifier::ModifyDerive<MyLevelSettingsLayer, LevelSettingsLayer> >::apply()
PUBLIC 1da64 0 _ZN5geode15UnwrapExceptionC2IRPNS_4HookEQsr4implE18IsStringStreamableIT_EEENS_4impl5OkTagEOS5_
PUBLIC 1dbb8 0 std::__ndk1::__throw_bad_variant_access[abi:ne180000]()
PUBLIC 1dbec 0 std::__ndk1::basic_stringstream<char, std::__ndk1::char_traits<char>, std::__ndk1::allocator<char> >::basic_stringstream[abi:ne180000]()
PUBLIC m 1dd18 0 std::__ndk1::basic_stringstream<char, std::__ndk1::char_traits<char>, std::__ndk1::allocator<char> >::~basic_stringstream()
PUBLIC 1dd98 0 geode::UnwrapException::~UnwrapException()
PUBLIC 1ddbc 0 std::__ndk1::__put_character_sequence[abi:ne180000]<char, std::__ndk1::char_traits<char> >(std::__ndk1::basic_ostream<char, std::__ndk1::char_traits<char> >, std::__ndk1::basic_ostream const*, unsigned long)
PUBLIC 1df60 0 std::__ndk1::__pad_and_output[abi:ne180000]<char, std::__ndk1::char_traits<char> >(std::__ndk1::char_traits<char>, std::__ndk1::ostreambuf_iterator const*, std::__ndk1::ostreambuf_iterator const, std::__ndk1::ostreambuf_iterator const, std::__ndk1::ios_base&, std::__ndk1::ostreambuf_iterator)
PUBLIC 1e13c 0 std::__ndk1::basic_stringbuf<char, std::__ndk1::char_traits<char>, std::__ndk1::allocator<char> >::str[abi:ne180000]() &&
PUBLIC 1e2b4 0 std::__ndk1::basic_stringbuf<char, std::__ndk1::char_traits<char>, std::__ndk1::allocator<char> >::__init_buf_ptrs[abi:ne180000]()
PUBLIC 1e3fc 0 std::__ndk1::__split_buffer<std::__ndk1::basic_string<char, std::__ndk1::char_traits<char>, std::__ndk1::allocator<char> >, std::__ndk1::allocator<std::__ndk1::basic_string<char, std::__ndk1::char_traits<char>, std::__ndk1::allocator<char> > >&>::~__split_buffer()
PUBLIC 1e464 0 std::__ndk1::vector<std::__ndk1::basic_string<char, std::__ndk1::char_traits<char>, std::__ndk1::allocator<char> >, std::__ndk1::allocator<std::__ndk1::basic_string<char, std::__ndk1::char_traits<char>, std::__ndk1::allocator<char> > > >::__throw_length_error[abi:ne180000]() const
PUBLIC 1e478 0 std::__ndk1::__variant_detail::__visitation::__base::__dispatcher<(unsigned long)0>::__dispatch[abi:ne180000]<std::__ndk1::__variant_detail::__dtor<std::__ndk1::__variant_detail::__traits<geode::Hook*, std::__ndk1::basic_string<char, std::__ndk1::char_traits<char>, std::__ndk1::allocator<char> > >, (std::__ndk1::__variant_detail::_Trait)1>::__destroy[abi:ne180000]()::{lambda(auto:1&)#1}, std::__ndk1::__variant_detail::__base<(std::__ndk1::__variant_detail::__traits<geode::Hook*, std::__ndk1::basic_string<char, std::__ndk1::char_traits<char>, std::__ndk1::allocator<char> > >)1, geode::Hook, std::__ndk1::allocator<char> >&>(std::__ndk1::__variant_detail::__dtor<std::__ndk1::__variant_detail::__traits<geode::Hook*, std::__ndk1::basic_string<char, std::__ndk1::char_traits<char>, std::__ndk1::allocator<char> > >, (std::__ndk1::__variant_detail::_Trait)1>, std::__ndk1::__variant_detail::__base<(std::__ndk1::__variant_detail::__traits<geode::Hook*, std::__ndk1::basic_string<char, std::__ndk1::char_traits<char>, std::__ndk1::allocator<char> > >)1, geode::Hook, std::__ndk1::allocator<char> >&)
PUBLIC 1e47c 0 std::__ndk1::__variant_detail::__visitation::__base::__dispatcher<(unsigned long)1>::__dispatch[abi:ne180000]<std::__ndk1::__variant_detail::__dtor<std::__ndk1::__variant_detail::__traits<geode::Hook*, std::__ndk1::basic_string<char, std::__ndk1::char_traits<char>, std::__ndk1::allocator<char> > >, (std::__ndk1::__variant_detail::_Trait)1>::__destroy[abi:ne180000]()::{lambda(auto:1&)#1}, std::__ndk1::__variant_detail::__base<(std::__ndk1::__variant_detail::__traits<geode::Hook*, std::__ndk1::basic_string<char, std::__ndk1::char_traits<char>, std::__ndk1::allocator<char> > >)1, geode::Hook, std::__ndk1::allocator<char> >&>(std::__ndk1::__variant_detail::__dtor<std::__ndk1::__variant_detail::__traits<geode::Hook*, std::__ndk1::basic_string<char, std::__ndk1::char_traits<char>, std::__ndk1::allocator<char> > >, (std::__ndk1::__variant_detail::_Trait)1>, std::__ndk1::__variant_detail::__base<(std::__ndk1::__variant_detail::__traits<geode::Hook*, std::__ndk1::basic_string<char, std::__ndk1::char_traits<char>, std::__ndk1::allocator<char> > >)1, geode::Hook, std::__ndk1::allocator<char> >&)
PUBLIC 1e490 0 std::__ndk1::__tree<std::__ndk1::__value_type<std::__ndk1::basic_string<char, std::__ndk1::char_traits<char>, std::__ndk1::allocator<char> >, std::__ndk1::shared_ptr<geode::Hook> >, std::__ndk1::__map_value_compare<std::__ndk1::basic_string<char, std::__ndk1::char_traits<char>, std::__ndk1::allocator<char> >, std::__ndk1::__value_type<std::__ndk1::basic_string<char, std::__ndk1::char_traits<char>, std::__ndk1::allocator<char> >, std::__ndk1::shared_ptr<geode::Hook> >, std::__ndk1::less<std::__ndk1::basic_string<char, std::__ndk1::char_traits<char>, std::__ndk1::allocator<char> > >, true>, std::__ndk1::allocator<std::__ndk1::__value_type<std::__ndk1::basic_string<char, std::__ndk1::char_traits<char>, std::__ndk1::allocator<char> >, std::__ndk1::shared_ptr<geode::Hook> > > >::destroy(std::__ndk1::__tree_node<std::__ndk1::__value_type<std::__ndk1::basic_string<char, std::__ndk1::char_traits<char>, std::__ndk1::allocator<char> >, std::__ndk1::shared_ptr<geode::Hook> >, void*>*)
PUBLIC 1e514 0 geode::modifier::AsStaticFunction_init<MyLevelSettingsLayer, bool (MyLevelSettingsLayer::*)(LevelSettingsObject*, LevelEditorLayer*)>::Impl<bool (MyLevelSettingsLayer::*)(LevelSettingsObject*, LevelEditorLayer*)>::function(MyLevelSettingsLayer*, LevelSettingsObject*, LevelEditorLayer*)
PUBLIC 1e6f8 0 std::__ndk1::shared_ptr<tulip::hook::CallingConvention>::~shared_ptr[abi:ne180000]()
PUBLIC 1e748 0 tulip::hook::HandlerMetadata::~HandlerMetadata()
PUBLIC 1e7ac 0 MyLevelSettingsLayer::showObjectSummary(cocos2d::CCObject*)
PUBLIC m 1e7cc 0 geodeImplicitEntry
PUBLIC 1e808 0 std::__ndk1::unordered_map<void*, bool, std::__ndk1::hash<void*>, std::__ndk1::equal_to<void*>, std::__ndk1::allocator<std::__ndk1::pair<void* const, bool> > >::~unordered_map[abi:ne180000]()
PUBLIC 1e854 0 wrapFunction(unsigned long, tulip::hook::WrapperMetadata const&)
PUBLIC 1e988 0 geode::impl::ResultData<void*, std::__ndk1::basic_string<char, std::__ndk1::char_traits<char>, std::__ndk1::allocator<char> > >::unwrapErr() &
PUBLIC 1ea00 0 geode::impl::ResultData<void*, std::__ndk1::basic_string<char, std::__ndk1::char_traits<char>, std::__ndk1::allocator<char> > >::~ResultData()
PUBLIC 1ea74 0 tulip::hook::WrapperMetadata::~WrapperMetadata()
PUBLIC 1ead8 0 cocos2d::CCObject::~CCObject()
PUBLIC 1eafc 0 cocos2d::CCNode::CCNode()
PUBLIC 1ed58 0 cocos2d::CCNode::~CCNode()
PUBLIC 1ed7c 0 {virtual override thunk({offset(-320)}, cocos2d::CCLayer::~CCLayer())}
PUBLIC 1ed84 0 cocos2d::CCLayer::~CCLayer()
PUBLIC 1eda8 0 {virtual override thunk({offset(-320)}, cocos2d::CCLayer::~CCLayer())}
PUBLIC 1edd0 0 cocos2d::CCLayerRGBA::~CCLayerRGBA()
PUBLIC 1f0d0 0 {virtual override thunk({offset(-320)}, cocos2d::CCLayerRGBA::~CCLayerRGBA())}
PUBLIC 1f0d8 0 cocos2d::CCLayerRGBA::~CCLayerRGBA()
PUBLIC 1f0fc 0 {virtual override thunk({offset(-320)}, cocos2d::CCLayerRGBA::~CCLayerRGBA())}
PUBLIC 1f124 0 cocos2d::CCLayerColor::CCLayerColor()
PUBLIC 1f388 0 {virtual override thunk({offset(-320)}, cocos2d::CCLayerColor::~CCLayerColor())}
PUBLIC 1f390 0 cocos2d::CCLayerColor::~CCLayerColor()
PUBLIC 1f3b4 0 {virtual override thunk({offset(-320)}, cocos2d::CCLayerColor::~CCLayerColor())}
PUBLIC 1f3dc 0 {virtual override thunk({offset(-320)}, FLAlertLayer::~FLAlertLayer())}
PUBLIC 1f3e4 0 FLAlertLayer::~FLAlertLayer()
PUBLIC 1f408 0 {virtual override thunk({offset(-320)}, FLAlertLayer::~FLAlertLayer())}
PUBLIC 1f430 0 tulip::hook::AbstractFunction::from<void, GameObject*, gd::string>(void (*)(GameObject*, gd::string))
PUBLIC 1f4d4 0 GameObject::addColorSprite(gd::string)
PUBLIC 1f64c 0 CCMenuItemToggler::createWithStandardSprites(cocos2d::CCObject*, void (cocos2d::CCObject::*)(cocos2d::CCObject*), float)
PUBLIC 1f844 0 gd::map<int, gd::string>::operator[](int const&)
PUBLIC 1f9a0 0 cocos2d::CCObject::update(float)
PUBLIC 1f9a4 0 cocos2d::CCLayerColor::~CCLayerColor()
PUBLIC 1fc88 0 cocos2d::CCLayer::~CCLayer()
PUBLIC 1ff78 0 cocos2d::CCNode::~CCNode()
PUBLIC 20218 0 FLAlertLayer::~FLAlertLayer()
PUBLIC 204fc 0 cocos2d::CCObject::~CCObject()
PUBLIC 209f0 0 _ZN5geode15UnwrapExceptionC2IRPvQsr4implE18IsStringStreamableIT_EEENS_4impl5OkTagEOS4_
PUBLIC 20b44 0 _ZN5geode15UnwrapExceptionC2IRNSt6__ndk112basic_stringIcNS2_11char_traitsIcEENS2_9allocatorIcEEEEQsr4implE18IsStringStreamableIT_EEENS_4impl6ErrTagEOSA_
PUBLIC 20cac 0 std::__ndk1::__variant_detail::__visitation::__base::__dispatcher<(unsigned long)0>::__dispatch[abi:ne180000]<std::__ndk1::__variant_detail::__dtor<std::__ndk1::__variant_detail::__traits<void*, std::__ndk1::basic_string<char, std::__ndk1::char_traits<char>, std::__ndk1::allocator<char> > >, (std::__ndk1::__variant_detail::_Trait)1>::__destroy[abi:ne180000]()::{lambda(auto:1&)#1}, std::__ndk1::__variant_detail::__base<(std::__ndk1::__variant_detail::__traits<void*, std::__ndk1::basic_string<char, std::__ndk1::char_traits<char>, std::__ndk1::allocator<char> > >)1, std::__ndk1::__variant_detail::__traits, std::__ndk1::allocator<char> >&>(std::__ndk1::__variant_detail::__dtor<std::__ndk1::__variant_detail::__traits<void*, std::__ndk1::basic_string<char, std::__ndk1::char_traits<char>, std::__ndk1::allocator<char> > >, (std::__ndk1::__variant_detail::_Trait)1>, std::__ndk1::__variant_detail::__base<(std::__ndk1::__variant_detail::__traits<void*, std::__ndk1::basic_string<char, std::__ndk1::char_traits<char>, std::__ndk1::allocator<char> > >)1, std::__ndk1::__variant_detail::__traits, std::__ndk1::allocator<char> >&)
PUBLIC 20cb0 0 std::__ndk1::__variant_detail::__visitation::__base::__dispatcher<(unsigned long)1>::__dispatch[abi:ne180000]<std::__ndk1::__variant_detail::__dtor<std::__ndk1::__variant_detail::__traits<void*, std::__ndk1::basic_string<char, std::__ndk1::char_traits<char>, std::__ndk1::allocator<char> > >, (std::__ndk1::__variant_detail::_Trait)1>::__destroy[abi:ne180000]()::{lambda(auto:1&)#1}, std::__ndk1::__variant_detail::__base<(std::__ndk1::__variant_detail::__traits<void*, std::__ndk1::basic_string<char, std::__ndk1::char_traits<char>, std::__ndk1::allocator<char> > >)1, std::__ndk1::__variant_detail::__traits, std::__ndk1::allocator<char> >&>(std::__ndk1::__variant_detail::__dtor<std::__ndk1::__variant_detail::__traits<void*, std::__ndk1::basic_string<char, std::__ndk1::char_traits<char>, std::__ndk1::allocator<char> > >, (std::__ndk1::__variant_detail::_Trait)1>, std::__ndk1::__variant_detail::__base<(std::__ndk1::__variant_detail::__traits<void*, std::__ndk1::basic_string<char, std::__ndk1::char_traits<char>, std::__ndk1::allocator<char> > >)1, std::__ndk1::__variant_detail::__traits, std::__ndk1::allocator<char> >&)
PUBLIC 20cc4 0 geode::stl::_rb_insert_rebalance(bool, geode::stl::_rb_tree_base*, geode::stl::_rb_tree_base*, geode::stl::_rb_tree_base&)
PUBLIC 20f7c 0 std::__ndk1::__hash_table<std::__ndk1::__hash_value_type<void*, bool>, std::__ndk1::__unordered_map_hasher<void*, std::__ndk1::__hash_value_type<void*, bool>, std::__ndk1::hash<void*>, std::__ndk1::equal_to<void*>, true>, std::__ndk1::__unordered_map_equal<void*, std::__ndk1::__hash_value_type<void*, bool>, std::__ndk1::equal_to<void*>, std::__ndk1::hash<void*>, true>, std::__ndk1::allocator<std::__ndk1::__hash_value_type<void*, bool> > >::__emplace_unique_key_args<void*, std::__ndk1::piecewise_construct_t const&, std::__ndk1::tuple<void* const&>, std::__ndk1::tuple<> >(void* const&, std::__ndk1::piecewise_construct_t const&, std::__ndk1::tuple<void* const&>, std::__ndk1::tuple<>)
PUBLIC 21488 0 gd::map<int, gd::string>::insert_pair(std::__ndk1::pair<int, gd::string> const&)
PUBLIC 21688 0 __udivti3
PUBLIC 21694 0 __udivmodti4
PUBLIC m 218e0 0 __eqtf2
PUBLIC 21980 0 __unordtf2
PUBLIC 219b8 0 fmt::v11::detail::write_loc(fmt::v11::basic_appender<char>, fmt::v11::loc_value, fmt::v11::format_specs const&, fmt::v11::detail::locale_ref)
PUBLIC 21c4c 0 fmt::v11::format_facet<std::__ndk1::locale>::~format_facet()
PUBLIC 21cc8 0 fmt::v11::report_error(char const*)
PUBLIC 21d18 0 fmt::v11::format_error::runtime_error(char const*)
PUBLIC 21d44 0 fmt::v11::format_facet<std::__ndk1::locale>::do_put(fmt::v11::basic_appender<char>, fmt::v11::loc_value, fmt::v11::format_specs const&) const
PUBLIC 22504 0 fmt::v11::detail::loc_writer<char>::~loc_writer()
PUBLIC 22568 0 fmt::v11::detail::vformat_to<char>(fmt::v11::detail::buffer<char>&, fmt::v11::basic_string_view<char>, fmt::v11::detail::vformat_args<char>::type, fmt::v11::detail::locale_ref)
PUBLIC 22ad8 0 fmt::v11::detail::is_printable(unsigned int)
PUBLIC 22d00 0 fmt::v11::detail::dragonbox::to_decimal<float>(float)
PUBLIC 22fdc 0 fmt::v11::detail::dragonbox::to_decimal<double>(double)
PUBLIC 23518 0 fmt::v11::basic_memory_buffer<char, (unsigned long)500, std::__ndk1::allocator<char> >::grow(fmt::v11::detail::buffer<char>&, unsigned long)
PUBLIC 23590 0 fmt::v11::format_facet<std::__ndk1::locale>::~format_facet()
PUBLIC 2361c 0 fmt::v11::format_error::~format_error()
PUBLIC 23640 0 fmt::v11::detail::copy_noinline<char, char const*, fmt::v11::basic_appender<char> >(char const*, char const*, fmt::v11::basic_appender<char>)
PUBLIC 23790 0 fmt::v11::detail::default_arg_formatter<char>::operator()<bool>(bool)
PUBLIC 237f8 0 fmt::v11::detail::default_arg_formatter<char>::operator()<char>(char)
PUBLIC 23888 0 fmt::v11::detail::default_arg_formatter<char>::operator()<float>(float)
PUBLIC 23974 0 fmt::v11::detail::default_arg_formatter<char>::operator()<double>(double)
PUBLIC 23a60 0 fmt::v11::detail::default_arg_formatter<char>::operator()<char const*>(char const*)
PUBLIC 23aa8 0 fmt::v11::detail::default_arg_formatter<char>::operator()<void const*>(void const*)
PUBLIC 23b40 0 _ZN3fmt3v116detail5writeIcNS0_14basic_appenderIcEEiTnNSt6__ndk19enable_ifIXaaaasr11is_integralIT1_EE5valuentsr3std7is_sameIS7_bEE5valuentsr3std7is_sameIS7_T_EE5valueEiE4typeELi0EEET0_SB_S7_
PUBLIC 23da0 0 fmt::v11::detail::copy_noinline<char, char*, fmt::v11::basic_appender<char> >(char*, char*, fmt::v11::basic_appender<char>)
PUBLIC 23ef0 0 _ZN3fmt3v116detail5writeIcNS0_14basic_appenderIcEEjTnNSt6__ndk19enable_ifIXaaaasr11is_integralIT1_EE5valuentsr3std7is_sameIS7_bEE5valuentsr3std7is_sameIS7_T_EE5valueEiE4typeELi0EEET0_SB_S7_
PUBLIC 240d0 0 _ZN3fmt3v116detail5writeIcNS0_14basic_appenderIcEExTnNSt6__ndk19enable_ifIXaaaasr11is_integralIT1_EE5valuentsr3std7is_sameIS7_bEE5valuentsr3std7is_sameIS7_T_EE5valueEiE4typeELi0EEET0_SB_S7_
PUBLIC 24354 0 _ZN3fmt3v116detail5writeIcNS0_14basic_appenderIcEEyTnNSt6__ndk19enable_ifIXaaaasr11is_integralIT1_EE5valuentsr3std7is_sameIS7_bEE5valuentsr3std7is_sameIS7_T_EE5valueEiE4typeELi0EEET0_SB_S7_
PUBLIC 2455c 0 _ZN3fmt3v116detail5writeIcNS0_14basic_appenderIcEEnTnNSt6__ndk19enable_ifIXaaaasr11is_integralIT1_EE5valuentsr3std7is_sameIS7_bEE5valuentsr3std7is_sameIS7_T_EE5valueEiE4typeELi0EEET0_SB_S7_
PUBLIC 248bc 0 _ZN3fmt3v116detail5writeIcNS0_14basic_appenderIcEEoTnNSt6__ndk19enable_ifIXaaaasr11is_integralIT1_EE5valuentsr3std7is_sameIS7_bEE5valuentsr3std7is_sameIS7_T_EE5valueEiE4typeELi0EEET0_SB_S7_
PUBLIC 24bd0 0 _ZN3fmt3v116detail5writeIcNS0_14basic_appenderIcEEbTnNSt6__ndk19enable_ifIXsr3std7is_sameIT1_bEE5valueEiE4typeELi0EEET0_SA_S7_RKNS0_12format_specsENS1_10locale_refE
PUBLIC 24e60 0 fmt::v11::detail::write_int_noinline<char, fmt::v11::basic_appender<char>, unsigned int>(fmt::v11::basic_appender<char>, fmt::v11::detail::write_int_arg<unsigned int>, fmt::v11::format_specs const&, fmt::v11::detail::locale_ref)
PUBLIC 25c3c 0 fmt::v11::detail::fill<char, fmt::v11::basic_appender<char> >(fmt::v11::basic_appender<char>, unsigned long, fmt::v11::detail::fill_t const&)
PUBLIC 25e0c 0 fmt::v11::detail::write_padded<char, (fmt::v11::align::type)1, fmt::v11::basic_appender<char>, fmt::v11::detail::write_char<char, fmt::v11::basic_appender<char> >(fmt::v11::basic_appender<char>, char, fmt::v11::format_specs const&)::{lambda(fmt::v11::basic_appender<char>&)#1}>(fmt::v11::basic_appender<char>, fmt::v11::format_specs const&, unsigned long, unsigned long, fmt::v11::detail::write_char<char, fmt::v11::basic_appender<char> >(fmt::v11::basic_appender<char>, char, fmt::v11::format_specs const&)::{lambda(fmt::v11::basic_appender<char>&)#1})
PUBLIC 26048 0 fmt::v11::detail::write_escaped_cp<fmt::v11::basic_appender<char>, char>(fmt::v11::basic_appender<char>, fmt::v11::detail::find_escape_result<char> const&)
PUBLIC 26354 0 fmt::v11::detail::write_codepoint<(unsigned long)2, char, fmt::v11::basic_appender<char> >(fmt::v11::basic_appender<char>, char, unsigned int)
PUBLIC 264cc 0 fmt::v11::detail::write_codepoint<(unsigned long)8, char, fmt::v11::basic_appender<char> >(fmt::v11::basic_appender<char>, char, unsigned int)
PUBLIC 26644 0 fmt::v11::detail::write_padded<char, (fmt::v11::align::type)1, fmt::v11::basic_appender<char>, fmt::v11::detail::write_nonfinite<char, fmt::v11::basic_appender<char> >(fmt::v11::basic_appender<char>, bool, fmt::v11::format_specs, fmt::v11::sign::type)::{lambda(fmt::v11::basic_appender<char>&)#1}>(fmt::v11::basic_appender<char>, fmt::v11::format_specs const&, unsigned long, unsigned long, fmt::v11::detail::write_nonfinite<char, fmt::v11::basic_appender<char> >(fmt::v11::basic_appender<char>, bool, fmt::v11::format_specs, fmt::v11::sign::type)::{lambda(fmt::v11::basic_appender<char>&)#1})
PUBLIC 26884 0 fmt::v11::detail::do_write_float<char, fmt::v11::basic_appender<char>, fmt::v11::detail::dragonbox::decimal_fp<float>, fmt::v11::detail::digit_grouping<char> >(fmt::v11::basic_appender<char>, fmt::v11::detail::dragonbox::decimal_fp<float> const&, fmt::v11::format_specs const&, fmt::v11::detail::float_specs, fmt::v11::detail::locale_ref)
PUBLIC 274f8 0 fmt::v11::detail::do_write_float<char, fmt::v11::basic_appender<char>, fmt::v11::detail::dragonbox::decimal_fp<float>, fmt::v11::detail::digit_grouping<char> >(fmt::v11::basic_appender<char>, fmt::v11::detail::dragonbox::decimal_fp<float> const&, fmt::v11::format_specs const&, fmt::v11::detail::float_specs, fmt::v11::detail::locale_ref)::{lambda(fmt::v11::basic_appender<char>(fmt::v11::basic_appender<char>))#1}::operator() const
PUBLIC 2764c 0 fmt::v11::detail::digit_grouping<char>::digit_grouping(fmt::v11::detail::locale_ref, bool)
PUBLIC 278b8 0 fmt::v11::detail::digit_grouping<char>::~digit_grouping()
PUBLIC 278fc 0 fmt::v11::detail::write_exponent<char, fmt::v11::basic_appender<char> >(int, fmt::v11::basic_appender<char>)
PUBLIC 27acc 0 _ZN3fmt3v116detail17write_significandIcjTnNSt6__ndk19enable_ifIXsr3std11is_integralIT0_EE5valueEiE4typeELi0EEEPT_S9_S5_iiS8_
PUBLIC 27c48 0 std::__ndk1::basic_string<char, std::__ndk1::char_traits<char>, std::__ndk1::allocator<char> >::__assign_no_alias<true>(char const*, unsigned long)
PUBLIC 27cf4 0 std::__ndk1::basic_string<char, std::__ndk1::char_traits<char>, std::__ndk1::allocator<char> >::__assign_no_alias<false>(char const*, unsigned long)
PUBLIC 27e04 0 fmt::v11::detail::digit_grouping<char>::apply<fmt::v11::basic_appender<char>, char>(fmt::v11::basic_appender<char>, fmt::v11::basic_string_view<char>) const
PUBLIC 281bc 0 fmt::v11::basic_memory_buffer<int, (unsigned long)500, std::__ndk1::allocator<int> >::grow(fmt::v11::detail::buffer<int>&, unsigned long)
PUBLIC 2825c 0 fmt::v11::detail::do_write_float<char, fmt::v11::basic_appender<char>, fmt::v11::detail::dragonbox::decimal_fp<double>, fmt::v11::detail::digit_grouping<char> >(fmt::v11::basic_appender<char>, fmt::v11::detail::dragonbox::decimal_fp<double> const&, fmt::v11::format_specs const&, fmt::v11::detail::float_specs, fmt::v11::detail::locale_ref)
PUBLIC 28f10 0 fmt::v11::detail::do_write_float<char, fmt::v11::basic_appender<char>, fmt::v11::detail::dragonbox::decimal_fp<double>, fmt::v11::detail::digit_grouping<char> >(fmt::v11::basic_appender<char>, fmt::v11::detail::dragonbox::decimal_fp<double> const&, fmt::v11::format_specs const&, fmt::v11::detail::float_specs, fmt::v11::detail::locale_ref)::{lambda(fmt::v11::basic_appender<char>(fmt::v11::basic_appender<char>))#1}::operator() const
PUBLIC 29068 0 _ZN3fmt3v116detail17write_significandIcmTnNSt6__ndk19enable_ifIXsr3std11is_integralIT0_EE5valueEiE4typeELi0EEEPT_S9_S5_iiS8_
PUBLIC 291f8 0 fmt::v11::detail::write_float<char, fmt::v11::basic_appender<char>, long double>(fmt::v11::basic_appender<char>, long double, fmt::v11::format_specs, fmt::v11::detail::locale_ref)
PUBLIC 29cf4 0 fmt::v11::detail::write_padded<char, (fmt::v11::align::type)2, fmt::v11::basic_appender<char>, fmt::v11::detail::write_bytes<char, (fmt::v11::align::type)2, fmt::v11::basic_appender<char> >(fmt::v11::basic_appender<char>, fmt::v11::basic_string_view<char>, fmt::v11::format_specs const&)::{lambda(fmt::v11::basic_appender<char>&)#1}>(fmt::v11::basic_appender<char>, fmt::v11::format_specs const&, unsigned long, unsigned long, fmt::v11::detail::write_bytes<char, (fmt::v11::align::type)2, fmt::v11::basic_appender<char> >(fmt::v11::basic_appender<char>, fmt::v11::basic_string_view<char>, fmt::v11::format_specs const&)::{lambda(fmt::v11::basic_appender<char>&)#1})
PUBLIC 29ed0 0 fmt::v11::detail::format_dragon(fmt::v11::detail::basic_fp<unsigned __int128>, unsigned int, int, fmt::v11::detail::buffer<char>&, int&)
PUBLIC 2b300 0 fmt::v11::detail::bigint::operator<<=(int)
PUBLIC 2b424 0 fmt::v11::detail::bigint::assign_pow10(int)
PUBLIC 2bb80 0 fmt::v11::detail::bigint::divmod_assign(fmt::v11::detail::bigint const&)
PUBLIC 2bea0 0 fmt::v11::basic_memory_buffer<unsigned int, (unsigned long)32, std::__ndk1::allocator<unsigned int> >::grow(fmt::v11::detail::buffer<unsigned int>&, unsigned long)
PUBLIC 2bf40 0 fmt::v11::detail::do_write_float<char, fmt::v11::basic_appender<char>, fmt::v11::detail::big_decimal_fp, fmt::v11::detail::digit_grouping<char> >(fmt::v11::basic_appender<char>, fmt::v11::detail::big_decimal_fp const&, fmt::v11::format_specs const&, fmt::v11::detail::float_specs, fmt::v11::detail::locale_ref)
PUBLIC 2cdf0 0 fmt::v11::detail::do_write_float<char, fmt::v11::basic_appender<char>, fmt::v11::detail::big_decimal_fp, fmt::v11::detail::digit_grouping<char> >(fmt::v11::basic_appender<char>, fmt::v11::detail::big_decimal_fp const&, fmt::v11::format_specs const&, fmt::v11::detail::float_specs, fmt::v11::detail::locale_ref)::{lambda(fmt::v11::basic_appender<char>(fmt::v11::basic_appender<char>))#1}::operator() const
PUBLIC 2cf50 0 fmt::v11::detail::write_padded<char, (fmt::v11::align::type)2, fmt::v11::basic_appender<char>, fmt::v11::detail::write_ptr<char, fmt::v11::basic_appender<char>, unsigned long>(fmt::v11::basic_appender<char>, unsigned long, fmt::v11::format_specs const*)::{lambda(fmt::v11::basic_appender<char>&)#1}>(fmt::v11::basic_appender<char>, fmt::v11::format_specs const&, unsigned long, unsigned long, fmt::v11::detail::write_ptr<char, fmt::v11::basic_appender<char>, unsigned long>(fmt::v11::basic_appender<char>, unsigned long, fmt::v11::format_specs const*)::{lambda(fmt::v11::basic_appender<char>&)#1})
PUBLIC 2d164 0 fmt::v11::detail::parse_replacement_field<char, fmt::v11::detail::vformat_to<char>(fmt::v11::detail::buffer<char>&, fmt::v11::basic_string_view<char>, fmt::v11::detail::vformat_args<char>::type, fmt::v11::detail::locale_ref)::format_handler&>(char const*, char const*, fmt::v11::detail::vformat_to<char>(fmt::v11::detail::buffer<char>&, fmt::v11::basic_string_view<char>, fmt::v11::detail::vformat_args<char>::type, fmt::v11::detail::locale_ref)::format_handler&)
PUBLIC 2ee00 0 fmt::v11::detail::parse_dynamic_spec<char>(char const*, char const*, int&, fmt::v11::detail::arg_ref<char>&, fmt::v11::basic_format_parse_context<char>&)
PUBLIC 2f090 0 fmt::v11::basic_format_args<fmt::v11::context>::get<char>(fmt::v11::basic_string_view<char>) const
PUBLIC 2f1e8 0 fmt::v11::detail::write_int_noinline<char, fmt::v11::basic_appender<char>, unsigned long>(fmt::v11::basic_appender<char>, fmt::v11::detail::write_int_arg<unsigned long>, fmt::v11::format_specs const&, fmt::v11::detail::locale_ref)
PUBLIC 3003c 0 fmt::v11::detail::write_int_noinline<char, fmt::v11::basic_appender<char>, unsigned __int128>(fmt::v11::basic_appender<char>, fmt::v11::detail::write_int_arg<unsigned __int128>, fmt::v11::format_specs const&, fmt::v11::detail::locale_ref)
PUBLIC 310a4 0 _ZN3fmt3v116detail15format_hexfloatIdTnNSt6__ndk19enable_ifIXntsr16is_double_doubleIT_EE5valueEiE4typeELi0EEEvS5_NS0_12format_specsERNS1_6bufferIcEE
PUBLIC 315c4 0 fmt::v11::detail::format_float<double>(double, int, fmt::v11::detail::float_specs, fmt::v11::detail::buffer<char>&)
PUBLIC 31f64 0 fmt::v11::detail::write<char, fmt::v11::basic_appender<char> >(fmt::v11::basic_appender<char>, fmt::v11::basic_string_view<char>, fmt::v11::format_specs const&)
PUBLIC 332d0 0 fmt::v11::detail::for_each_codepoint<fmt::v11::detail::compute_width(fmt::v11::basic_string_view<char>)::count_code_points>(fmt::v11::basic_string_view<char>, fmt::v11::detail::compute_width(fmt::v11::basic_string_view<char>)::count_code_points)::{lambda(char const*, char const*)#1}::operator()(char const*, char const*) const
PUBLIC 33488 0 fmt::v11::detail::write_int<fmt::v11::basic_appender<char>, unsigned long, char>(fmt::v11::basic_appender<char>, unsigned long, unsigned int, fmt::v11::format_specs const&, fmt::v11::detail::digit_grouping<char> const&)
PUBLIC 33a04 0 fmt::v11::detail::write_int<fmt::v11::basic_appender<char>, unsigned __int128, char>(fmt::v11::basic_appender<char>, unsigned __int128, unsigned int, fmt::v11::format_specs const&, fmt::v11::detail::digit_grouping<char> const&)
PUBLIC 34080 0 <.plt ELF section in alphalaneous.object_summary.android64.so>
STACK CFI INIT 16d80 10 .cfa: sp 0 +
STACK CFI INIT 16d90 8 .cfa: sp 0 +
STACK CFI INIT 16d98 8 .cfa: sp 0 +
STACK CFI INIT 16da0 14 .cfa: sp 0 +
STACK CFI INIT 16db4 1c .cfa: sp 0 +
STACK CFI INIT 16dd0 10 .cfa: sp 0 +
STACK CFI INIT 16de0 138 .cfa: sp 0 +
STACK CFI 16de4 .cfa: sp 96 +
STACK CFI 16dfc .cfa: x29 80 + x19: .cfa -8 + ^ x20: .cfa -16 + ^ x21: .cfa -24 + ^ x22: .cfa -32 + ^ x23: .cfa -40 + ^ x24: .cfa -48 + ^ x25: .cfa -56 + ^ x26: .cfa -64 + ^ .ra: .cfa -72 + ^ x29: .cfa -80 + ^
STACK CFI 16ef8 .cfa: sp 96 +
STACK CFI 16f10 .cfa: sp 0 +
STACK CFI 16f14 .cfa: x29 80 +
STACK CFI INIT 17598 14 .cfa: sp 0 +
STACK CFI 1759c .cfa: sp 16 +
STACK CFI 175a0 .cfa: x29 16 + .ra: .cfa -8 + ^ x29: .cfa -16 + ^
STACK CFI INIT 175fc 30 .cfa: sp 0 +
STACK CFI 17600 .cfa: sp 32 +
STACK CFI 17608 .cfa: x29 32 + x19: .cfa -16 + ^ .ra: .cfa -24 + ^ x29: .cfa -32 + ^
STACK CFI 17620 .cfa: sp 32 +
STACK CFI 17628 .cfa: sp 0 +
STACK CFI INIT 1762c 8 .cfa: sp 0 +
STACK CFI INIT 17634 24 .cfa: sp 0 +
STACK CFI 17638 .cfa: sp 32 +
STACK CFI 17640 .cfa: x29 32 + x19: .cfa -16 + ^ .ra: .cfa -24 + ^ x29: .cfa -32 + ^
STACK CFI 1764c .cfa: sp 32 +
STACK CFI 17654 .cfa: sp 0 +
STACK CFI INIT 17658 104 .cfa: sp 0 +
STACK CFI 1765c .cfa: sp 64 +
STACK CFI 1766c .cfa: x29 64 + x19: .cfa -8 + ^ x20: .cfa -16 + ^ x21: .cfa -24 + ^ x22: .cfa -32 + ^ x23: .cfa -48 + ^ .ra: .cfa -56 + ^ x29: .cfa -64 + ^
STACK CFI 176c8 .cfa: sp 64 +
STACK CFI 176d8 .cfa: sp 0 +
STACK CFI 176dc .cfa: x29 64 +
STACK CFI 176f8 .cfa: sp 64 +
STACK CFI 17708 .cfa: sp 0 +
STACK CFI 1770c .cfa: x29 64 +
STACK CFI 17748 .cfa: sp 64 +
STACK CFI 17758 .cfa: sp 0 +
STACK CFI INIT 18184 80 .cfa: sp 0 +
STACK CFI 18188 .cfa: sp 48 +
STACK CFI 18194 .cfa: x29 48 + x19: .cfa -8 + ^ x20: .cfa -16 + ^ x21: .cfa -24 + ^ x22: .cfa -32 + ^ .ra: .cfa -40 + ^ x29: .cfa -48 + ^
STACK CFI 181ac .cfa: sp 48 +
STACK CFI 181b8 .cfa: sp 0 +
STACK CFI 181bc .cfa: x29 48 +
STACK CFI 181ec .cfa: sp 48 +
STACK CFI 181f8 .cfa: sp 0 +
STACK CFI 181fc .cfa: x29 48 +
STACK CFI INIT 18204 34 .cfa: sp 0 +
STACK CFI 18208 .cfa: sp 32 +
STACK CFI 18210 .cfa: x29 32 + x19: .cfa -16 + ^ .ra: .cfa -24 + ^ x29: .cfa -32 + ^
STACK CFI INIT 18238 14 .cfa: sp 0 +
STACK CFI 1823c .cfa: sp 16 +
STACK CFI 18240 .cfa: x29 16 + .ra: .cfa -8 + ^ x29: .cfa -16 + ^
STACK CFI INIT 1824c f24 .cfa: sp 0 +
STACK CFI 18250 .cfa: sp 112 +
STACK CFI 1826c .cfa: x29 96 + x19: .cfa -8 + ^ x20: .cfa -16 + ^ x21: .cfa -24 + ^ x22: .cfa -32 + ^ x23: .cfa -40 + ^ x24: .cfa -48 + ^ x25: .cfa -56 + ^ x26: .cfa -64 + ^ x27: .cfa -72 + ^ x28: .cfa -80 + ^ .ra: .cfa -88 + ^ x29: .cfa -96 + ^
STACK CFI 18cc4 .cfa: sp 112 +
STACK CFI 18ce0 .cfa: sp 0 +
STACK CFI 18ce4 .cfa: x29 96 +
STACK CFI 19150 .cfa: sp 112 +
STACK CFI 1916c .cfa: sp 0 +
STACK CFI INIT 19170 4b8 .cfa: sp 0 +
STACK CFI 19174 .cfa: sp 48 +
STACK CFI 19180 .cfa: x29 48 + x19: .cfa -8 + ^ x20: .cfa -16 + ^ x21: .cfa -32 + ^ .ra: .cfa -40 + ^ x29: .cfa -48 + ^
STACK CFI 19198 .cfa: sp 48 +
STACK CFI 191a4 .cfa: sp 0 +
STACK CFI 191a8 .cfa: x29 48 +
STACK CFI 192b4 .cfa: sp 48 +
STACK CFI 192c0 .cfa: sp 0 +
STACK CFI 192c4 .cfa: x29 48 +
STACK CFI 19318 .cfa: sp 48 +
STACK CFI 19324 .cfa: sp 0 +
STACK CFI 19328 .cfa: x29 48 +
STACK CFI 193f8 .cfa: sp 48 +
STACK CFI 19404 .cfa: sp 0 +
STACK CFI 19408 .cfa: x29 48 +
STACK CFI 194fc .cfa: sp 48 +
STACK CFI 19508 .cfa: sp 0 +
STACK CFI 1950c .cfa: x29 48 +
STACK CFI 19618 .cfa: sp 48 +
STACK CFI 19624 .cfa: sp 0 +
STACK CFI INIT 19628 1f4 .cfa: sp 0 +
STACK CFI INIT 1981c 24 .cfa: sp 0 +
STACK CFI 19820 .cfa: sp 32 +
STACK CFI 19828 .cfa: x29 32 + x19: .cfa -16 + ^ .ra: .cfa -24 + ^ x29: .cfa -32 + ^
STACK CFI 19834 .cfa: sp 32 +
STACK CFI 1983c .cfa: sp 0 +
STACK CFI INIT 19840 44 .cfa: sp 0 +
STACK CFI 19848 .cfa: sp 32 +
STACK CFI 19850 .cfa: x29 32 + x19: .cfa -8 + ^ x20: .cfa -16 + ^ .ra: .cfa -24 + ^ x29: .cfa -32 + ^
STACK CFI 19874 .cfa: sp 32 +
STACK CFI 1987c .cfa: sp 0 +
STACK CFI INIT 19884 124 .cfa: sp 0 +
STACK CFI 19888 .cfa: sp 96 +
STACK CFI 1989c .cfa: x29 64 + x19: .cfa -8 + ^ x20: .cfa -16 + ^ x21: .cfa -24 + ^ x22: .cfa -32 + ^ x23: .cfa -48 + ^ .ra: .cfa -56 + ^ x29: .cfa -64 + ^
STACK CFI 1998c .cfa: sp 96 +
STACK CFI 199a0 .cfa: sp 0 +
STACK CFI 199a4 .cfa: x29 64 +
STACK CFI INIT 199a8 1b0 .cfa: sp 0 +
STACK CFI INIT 19b58 1b0 .cfa: sp 0 +
STACK CFI INIT 19d10 30 .cfa: sp 0 +
STACK CFI INIT 19d40 98 .cfa: sp 0 +
STACK CFI INIT 19dd8 59c .cfa: sp 0 +
STACK CFI INIT 1a374 8c .cfa: sp 0 +
STACK CFI INIT 1b794 60 .cfa: sp 0 +
STACK CFI 1b798 .cfa: sp 32 +
STACK CFI 1b7a0 .cfa: x29 32 + x19: .cfa -16 + ^ .ra: .cfa -24 + ^ x29: .cfa -32 + ^
STACK CFI 1b7e8 .cfa: sp 32 +
STACK CFI 1b7f0 .cfa: sp 0 +
STACK CFI INIT 1b7f4 d8 .cfa: sp 0 +
STACK CFI 1b7f8 .cfa: sp 48 +
STACK CFI 1b804 .cfa: x29 48 + x19: .cfa -8 + ^ x20: .cfa -16 + ^ x21: .cfa -32 + ^ .ra: .cfa -40 + ^ x29: .cfa -48 + ^
STACK CFI 1b8bc .cfa: sp 48 +
STACK CFI 1b8c8 .cfa: sp 0 +
STACK CFI INIT 1b8cc d8 .cfa: sp 0 +
STACK CFI 1b8d0 .cfa: sp 48 +
STACK CFI 1b8dc .cfa: x29 48 + x19: .cfa -8 + ^ x20: .cfa -16 + ^ x21: .cfa -32 + ^ .ra: .cfa -40 + ^ x29: .cfa -48 + ^
STACK CFI 1b994 .cfa: sp 48 +
STACK CFI 1b9a0 .cfa: sp 0 +
STACK CFI INIT 1b9a4 d8 .cfa: sp 0 +
STACK CFI 1b9a8 .cfa: sp 48 +
STACK CFI 1b9b4 .cfa: x29 48 + x19: .cfa -8 + ^ x20: .cfa -16 + ^ x21: .cfa -32 + ^ .ra: .cfa -40 + ^ x29: .cfa -48 + ^
STACK CFI 1ba6c .cfa: sp 48 +
STACK CFI 1ba78 .cfa: sp 0 +
STACK CFI INIT 1ba7c d8 .cfa: sp 0 +
STACK CFI 1ba80 .cfa: sp 48 +
STACK CFI 1ba8c .cfa: x29 48 + x19: .cfa -8 + ^ x20: .cfa -16 + ^ x21: .cfa -32 + ^ .ra: .cfa -40 + ^ x29: .cfa -48 + ^
STACK CFI 1bb44 .cfa: sp 48 +
STACK CFI 1bb50 .cfa: sp 0 +
STACK CFI INIT 1bb54 d8 .cfa: sp 0 +
STACK CFI 1bb58 .cfa: sp 48 +
STACK CFI 1bb64 .cfa: x29 48 + x19: .cfa -8 + ^ x20: .cfa -16 + ^ x21: .cfa -32 + ^ .ra: .cfa -40 + ^ x29: .cfa -48 + ^
STACK CFI 1bc1c .cfa: sp 48 +
STACK CFI 1bc28 .cfa: sp 0 +
STACK CFI INIT 1bc2c d8 .cfa: sp 0 +
STACK CFI 1bc30 .cfa: sp 48 +
STACK CFI 1bc3c .cfa: x29 48 + x19: .cfa -8 + ^ x20: .cfa -16 + ^ x21: .cfa -24 + ^ x22: .cfa -32 + ^ .ra: .cfa -40 + ^ x29: .cfa -48 + ^
STACK CFI 1bcf4 .cfa: sp 48 +
STACK CFI 1bd00 .cfa: sp 0 +
STACK CFI INIT 1bd04 60 .cfa: sp 0 +
STACK CFI 1bd08 .cfa: sp 32 +
STACK CFI 1bd10 .cfa: x29 32 + x19: .cfa -16 + ^ .ra: .cfa -24 + ^ x29: .cfa -32 + ^
STACK CFI 1bd58 .cfa: sp 32 +
STACK CFI 1bd60 .cfa: sp 0 +
STACK CFI INIT 1bd80 50 .cfa: sp 0 +
STACK CFI 1bd84 .cfa: sp 32 +
STACK CFI 1bd8c .cfa: x29 32 + x19: .cfa -16 + ^ .ra: .cfa -24 + ^ x29: .cfa -32 + ^
STACK CFI 1bdc4 .cfa: sp 32 +
STACK CFI 1bdcc .cfa: sp 0 +
STACK CFI INIT 1c068 2c .cfa: sp 0 +
STACK CFI 1c06c .cfa: sp 32 +
STACK CFI 1c074 .cfa: x29 32 + x19: .cfa -16 + ^ .ra: .cfa -24 + ^ x29: .cfa -32 + ^
STACK CFI 1c088 .cfa: sp 32 +
STACK CFI 1c090 .cfa: sp 0 +
STACK CFI INIT 1c094 28 .cfa: sp 0 +
STACK CFI INIT 1c0bc 4 .cfa: sp 0 +
STACK CFI INIT 1c0c0 8 .cfa: sp 0 +
STACK CFI INIT 1c1a8 2c .cfa: sp 0 +
STACK CFI INIT 1c1d4 4 .cfa: sp 0 +
STACK CFI INIT 1c1d8 4 .cfa: sp 0 +
STACK CFI INIT 1c1dc 4 .cfa: sp 0 +
STACK CFI INIT 1c1e0 4 .cfa: sp 0 +
STACK CFI INIT 1c1e4 4 .cfa: sp 0 +
STACK CFI INIT 1c1e8 8 .cfa: sp 0 +
STACK CFI INIT 1c1f0 10 .cfa: sp 0 +
STACK CFI 1c1f4 .cfa: sp 16 +
STACK CFI 1c1f8 .cfa: x29 16 + .ra: .cfa -8 + ^ x29: .cfa -16 + ^
STACK CFI INIT 1c200 3c .cfa: sp 0 +
STACK CFI 1c208 .cfa: sp 32 +
STACK CFI 1c210 .cfa: x29 32 + x19: .cfa -16 + ^ .ra: .cfa -24 + ^ x29: .cfa -32 + ^
STACK CFI 1c22c .cfa: sp 32 +
STACK CFI 1c234 .cfa: sp 0 +
STACK CFI INIT 1c23c 4 .cfa: sp 0 +
STACK CFI INIT 1c3f4 4 .cfa: sp 0 +
STACK CFI INIT 1c3f8 60 .cfa: sp 0 +
STACK CFI 1c3fc .cfa: sp 32 +
STACK CFI 1c404 .cfa: x29 32 + x19: .cfa -8 + ^ x20: .cfa -16 + ^ .ra: .cfa -24 + ^ x29: .cfa -32 + ^
STACK CFI 1c424 .cfa: sp 32 +
STACK CFI 1c42c .cfa: sp 0 +
STACK CFI 1c430 .cfa: x29 32 +
STACK CFI 1c44c .cfa: sp 32 +
STACK CFI 1c454 .cfa: sp 0 +
STACK CFI INIT 1c458 70 .cfa: sp 0 +
STACK CFI 1c45c .cfa: sp 32 +
STACK CFI 1c464 .cfa: x29 32 + x19: .cfa -8 + ^ x20: .cfa -16 + ^ .ra: .cfa -24 + ^ x29: .cfa -32 + ^
STACK CFI 1c48c .cfa: sp 32 +
STACK CFI 1c494 .cfa: sp 0 +
STACK CFI 1c498 .cfa: x29 32 +
STACK CFI 1c4bc .cfa: sp 32 +
STACK CFI 1c4c4 .cfa: sp 0 +
STACK CFI INIT 1c4c8 10 .cfa: sp 0 +
STACK CFI INIT 1c4d8 30 .cfa: sp 0 +
STACK CFI 1c4dc .cfa: sp 32 +
STACK CFI 1c4e4 .cfa: x29 32 + x19: .cfa -16 + ^ .ra: .cfa -24 + ^ x29: .cfa -32 + ^
STACK CFI 1c4fc .cfa: sp 32 +
STACK CFI 1c504 .cfa: sp 0 +
STACK CFI INIT 1c508 4 .cfa: sp 0 +
STACK CFI INIT 1c50c 4 .cfa: sp 0 +
STACK CFI INIT 1c510 308 .cfa: sp 0 +
STACK CFI 1c514 .cfa: sp 128 +
STACK CFI 1c52c .cfa: x29 64 + x19: .cfa -8 + ^ x20: .cfa -16 + ^ x21: .cfa -24 + ^ x22: .cfa -32 + ^ x23: .cfa -48 + ^ .ra: .cfa -56 + ^ x29: .cfa -64 + ^ v8: .cfa -72 + ^ v9: .cfa -80 + ^
STACK CFI 1c760 .cfa: sp 128 +
STACK CFI 1c778 .cfa: sp 0 +
STACK CFI 1c77c .cfa: x29 64 +
STACK CFI INIT 1c840 30 .cfa: sp 0 +
STACK CFI INIT 1d444 18 .cfa: sp 0 +
STACK CFI INIT 1d920 50 .cfa: sp 0 +
STACK CFI 1d924 .cfa: sp 32 +
STACK CFI 1d92c .cfa: x29 32 + x19: .cfa -16 + ^ .ra: .cfa -24 + ^ x29: .cfa -32 + ^
STACK CFI 1d944 .cfa: sp 32 +
STACK CFI 1d94c .cfa: sp 0 +
STACK CFI 1d950 .cfa: x29 32 +
STACK CFI 1d964 .cfa: sp 32 +
STACK CFI 1d96c .cfa: sp 0 +
STACK CFI INIT 1d9e4 7c .cfa: sp 0 +
STACK CFI 1d9e8 .cfa: sp 48 +
STACK CFI 1d9f4 .cfa: x29 48 + x19: .cfa -8 + ^ x20: .cfa -16 + ^ x21: .cfa -32 + ^ .ra: .cfa -40 + ^ x29: .cfa -48 + ^
STACK CFI 1da40 .cfa: sp 48 +
STACK CFI 1da4c .cfa: sp 0 +
STACK CFI 1da50 .cfa: sp 48 +
STACK CFI 1da5c .cfa: sp 0 +
STACK CFI INIT 1da60 4 .cfa: sp 0 +
STACK CFI INIT 1dbb8 34 .cfa: sp 0 +
STACK CFI 1dbbc .cfa: sp 16 +
STACK CFI 1dbc0 .cfa: x29 16 + .ra: .cfa -8 + ^ x29: .cfa -16 + ^
STACK CFI INIT 1dd18 80 .cfa: sp 0 +
STACK CFI 1dd1c .cfa: sp 48 +
STACK CFI 1dd28 .cfa: x29 48 + x19: .cfa -8 + ^ x20: .cfa -16 + ^ x21: .cfa -32 + ^ .ra: .cfa -40 + ^ x29: .cfa -48 + ^
STACK CFI 1dd88 .cfa: sp 48 +
STACK CFI 1dd94 .cfa: sp 0 +
STACK CFI INIT 1dd98 24 .cfa: sp 0 +
STACK CFI 1dd9c .cfa: sp 32 +
STACK CFI 1dda4 .cfa: x29 32 + x19: .cfa -16 + ^ .ra: .cfa -24 + ^ x29: .cfa -32 + ^
STACK CFI 1ddb0 .cfa: sp 32 +
STACK CFI 1ddb8 .cfa: sp 0 +
STACK CFI INIT 1e2b4 148 .cfa: sp 0 +
STACK CFI 1e2b8 .cfa: sp 48 +
STACK CFI 1e2c4 .cfa: x29 48 + x19: .cfa -8 + ^ x20: .cfa -16 + ^ x21: .cfa -32 + ^ .ra: .cfa -40 + ^ x29: .cfa -48 + ^
STACK CFI 1e3ec .cfa: sp 48 +
STACK CFI 1e3f8 .cfa: sp 0 +
STACK CFI INIT 1e3fc 68 .cfa: sp 0 +
STACK CFI 1e400 .cfa: sp 32 +
STACK CFI 1e408 .cfa: x29 32 + x19: .cfa -8 + ^ x20: .cfa -16 + ^ .ra: .cfa -24 + ^ x29: .cfa -32 + ^
STACK CFI 1e420 .cfa: sp 32 +
STACK CFI 1e428 .cfa: sp 0 +
STACK CFI 1e42c .cfa: x29 32 +
STACK CFI 1e458 .cfa: sp 32 +
STACK CFI 1e460 .cfa: sp 0 +
STACK CFI INIT 1e464 14 .cfa: sp 0 +
STACK CFI 1e468 .cfa: sp 16 +
STACK CFI 1e46c .cfa: x29 16 + .ra: .cfa -8 + ^ x29: .cfa -16 + ^
STACK CFI INIT 1e478 4 .cfa: sp 0 +
STACK CFI INIT 1e47c 14 .cfa: sp 0 +
STACK CFI INIT 1e490 84 .cfa: sp 0 +
STACK CFI 1e498 .cfa: sp 32 +
STACK CFI 1e4a0 .cfa: x29 32 + x19: .cfa -8 + ^ x20: .cfa -16 + ^ .ra: .cfa -24 + ^ x29: .cfa -32 + ^
STACK CFI 1e4e0 .cfa: sp 32 +
STACK CFI 1e4e8 .cfa: sp 0 +
STACK CFI 1e4f0 .cfa: x29 32 +
STACK CFI INIT 1e6f8 50 .cfa: sp 0 +
STACK CFI 1e6fc .cfa: sp 32 +
STACK CFI 1e704 .cfa: x29 32 + x19: .cfa -16 + ^ .ra: .cfa -24 + ^ x29: .cfa -32 + ^
STACK CFI 1e71c .cfa: sp 32 +
STACK CFI 1e724 .cfa: sp 0 +
STACK CFI 1e728 .cfa: x29 32 +
STACK CFI 1e73c .cfa: sp 32 +
STACK CFI 1e744 .cfa: sp 0 +
STACK CFI INIT 1e748 64 .cfa: sp 0 +
STACK CFI 1e74c .cfa: sp 32 +
STACK CFI 1e754 .cfa: x29 32 + x19: .cfa -16 + ^ .ra: .cfa -24 + ^ x29: .cfa -32 + ^
STACK CFI 1e780 .cfa: sp 32 +
STACK CFI 1e788 .cfa: sp 0 +
STACK CFI 1e78c .cfa: x29 32 +
STACK CFI 1e7a0 .cfa: sp 32 +
STACK CFI 1e7a8 .cfa: sp 0 +
STACK CFI INIT 1e7ac 20 .cfa: sp 0 +
STACK CFI 1e7b0 .cfa: sp 16 +
STACK CFI 1e7b4 .cfa: x29 16 + .ra: .cfa -8 + ^ x29: .cfa -16 + ^
STACK CFI 1e7c4 .cfa: sp 16 +
STACK CFI 1e7c8 .cfa: sp 0 +
STACK CFI INIT 1e7cc 3c .cfa: sp 0 +
STACK CFI 1e7d0 .cfa: sp 32 +
STACK CFI 1e7d8 .cfa: x29 32 + x19: .cfa -16 + ^ .ra: .cfa -24 + ^ x29: .cfa -32 + ^
STACK CFI 1e7e4 .cfa: sp 32 +
STACK CFI 1e7ec .cfa: sp 0 +
STACK CFI 1e7f0 .cfa: x29 32 +
STACK CFI 1e7fc .cfa: sp 32 +
STACK CFI 1e804 .cfa: sp 0 +
STACK CFI INIT 1e808 4c .cfa: sp 0 +
STACK CFI 1e80c .cfa: sp 32 +
STACK CFI 1e814 .cfa: x29 32 + x19: .cfa -8 + ^ x20: .cfa -16 + ^ .ra: .cfa -24 + ^ x29: .cfa -32 + ^
STACK CFI 1e83c .cfa: sp 32 +
STACK CFI 1e844 .cfa: sp 0 +
STACK CFI 1e848 .cfa: sp 32 +
STACK CFI 1e850 .cfa: sp 0 +
STACK CFI INIT 1ea74 64 .cfa: sp 0 +
STACK CFI 1ea78 .cfa: sp 32 +
STACK CFI 1ea80 .cfa: x29 32 + x19: .cfa -16 + ^ .ra: .cfa -24 + ^ x29: .cfa -32 + ^
STACK CFI 1eaac .cfa: sp 32 +
STACK CFI 1eab4 .cfa: sp 0 +
STACK CFI 1eab8 .cfa: x29 32 +
STACK CFI 1eacc .cfa: sp 32 +
STACK CFI 1ead4 .cfa: sp 0 +
STACK CFI INIT 1ead8 24 .cfa: sp 0 +
STACK CFI 1eadc .cfa: sp 32 +
STACK CFI 1eae4 .cfa: x29 32 + x19: .cfa -16 + ^ .ra: .cfa -24 + ^ x29: .cfa -32 + ^
STACK CFI 1eaf0 .cfa: sp 32 +
STACK CFI 1eaf8 .cfa: sp 0 +
STACK CFI INIT 1ed58 24 .cfa: sp 0 +
STACK CFI 1ed5c .cfa: sp 32 +
STACK CFI 1ed64 .cfa: x29 32 + x19: .cfa -16 + ^ .ra: .cfa -24 + ^ x29: .cfa -32 + ^
STACK CFI 1ed70 .cfa: sp 32 +
STACK CFI 1ed78 .cfa: sp 0 +
STACK CFI INIT 1ed7c 8 .cfa: sp 0 +
STACK CFI INIT 1ed84 24 .cfa: sp 0 +
STACK CFI 1ed88 .cfa: sp 32 +
STACK CFI 1ed90 .cfa: x29 32 + x19: .cfa -16 + ^ .ra: .cfa -24 + ^ x29: .cfa -32 + ^
STACK CFI 1ed9c .cfa: sp 32 +
STACK CFI 1eda4 .cfa: sp 0 +
STACK CFI INIT 1eda8 28 .cfa: sp 0 +
STACK CFI 1edac .cfa: sp 32 +
STACK CFI 1edb4 .cfa: x29 32 + x19: .cfa -16 + ^ .ra: .cfa -24 + ^ x29: .cfa -32 + ^
STACK CFI 1edc4 .cfa: sp 32 +
STACK CFI 1edcc .cfa: sp 0 +
STACK CFI INIT 1f0d0 8 .cfa: sp 0 +
STACK CFI INIT 1f0d8 24 .cfa: sp 0 +
STACK CFI 1f0dc .cfa: sp 32 +
STACK CFI 1f0e4 .cfa: x29 32 + x19: .cfa -16 + ^ .ra: .cfa -24 + ^ x29: .cfa -32 + ^
STACK CFI 1f0f0 .cfa: sp 32 +
STACK CFI 1f0f8 .cfa: sp 0 +
STACK CFI INIT 1f0fc 28 .cfa: sp 0 +
STACK CFI 1f100 .cfa: sp 32 +
STACK CFI 1f108 .cfa: x29 32 + x19: .cfa -16 + ^ .ra: .cfa -24 + ^ x29: .cfa -32 + ^
STACK CFI 1f118 .cfa: sp 32 +
STACK CFI 1f120 .cfa: sp 0 +
STACK CFI INIT 1f388 8 .cfa: sp 0 +
STACK CFI INIT 1f390 24 .cfa: sp 0 +
STACK CFI 1f394 .cfa: sp 32 +
STACK CFI 1f39c .cfa: x29 32 + x19: .cfa -16 + ^ .ra: .cfa -24 + ^ x29: .cfa -32 + ^
STACK CFI 1f3a8 .cfa: sp 32 +
STACK CFI 1f3b0 .cfa: sp 0 +
STACK CFI INIT 1f3b4 28 .cfa: sp 0 +
STACK CFI 1f3b8 .cfa: sp 32 +
STACK CFI 1f3c0 .cfa: x29 32 + x19: .cfa -16 + ^ .ra: .cfa -24 + ^ x29: .cfa -32 + ^
STACK CFI 1f3d0 .cfa: sp 32 +
STACK CFI 1f3d8 .cfa: sp 0 +
STACK CFI INIT 1f3dc 8 .cfa: sp 0 +
STACK CFI INIT 1f3e4 24 .cfa: sp 0 +
STACK CFI 1f3e8 .cfa: sp 32 +
STACK CFI 1f3f0 .cfa: x29 32 + x19: .cfa -16 + ^ .ra: .cfa -24 + ^ x29: .cfa -32 + ^
STACK CFI 1f3fc .cfa: sp 32 +
STACK CFI 1f404 .cfa: sp 0 +
STACK CFI INIT 1f408 28 .cfa: sp 0 +
STACK CFI 1f40c .cfa: sp 32 +
STACK CFI 1f414 .cfa: x29 32 + x19: .cfa -16 + ^ .ra: .cfa -24 + ^ x29: .cfa -32 + ^
STACK CFI 1f424 .cfa: sp 32 +
STACK CFI 1f42c .cfa: sp 0 +
STACK CFI INIT 1f64c 1f8 .cfa: sp 0 +
STACK CFI 1f650 .cfa: sp 112 +
STACK CFI 1f670 .cfa: x29 72 + x19: .cfa -8 + ^ x20: .cfa -16 + ^ x21: .cfa -24 + ^ x22: .cfa -32 + ^ x23: .cfa -40 + ^ x24: .cfa -48 + ^ x25: .cfa -56 + ^ .ra: .cfa -64 + ^ x29: .cfa -72 + ^ v8: .cfa -80 + ^ v9: .cfa -88 + ^ v10: .cfa -96 + ^
STACK CFI 1f81c .cfa: sp 112 +
STACK CFI 1f83c .cfa: sp 0 +
STACK CFI 1f840 .cfa: x29 72 +
STACK CFI INIT 1f9a0 4 .cfa: sp 0 +
STACK CFI INIT 20cac 4 .cfa: sp 0 +
STACK CFI INIT 20cb0 14 .cfa: sp 0 +
STACK CFI INIT 20cc4 2b8 .cfa: sp 0 +
STACK CFI INIT 21688 c .cfa: sp 0 +
STACK CFI INIT 21694 24c .cfa: sp 0 +
STACK CFI INIT 218e0 a0 .cfa: sp 0 +
STACK CFI 218ec .cfa: sp 32 +
STACK CFI 21944 .cfa: sp 0 +
STACK CFI 21948 .cfa: sp 32 +
STACK CFI 21950 .cfa: sp 0 +
STACK CFI 21954 .cfa: sp 32 +
STACK CFI 21968 .cfa: sp 0 +
STACK CFI 2196c .cfa: sp 32 +
STACK CFI 2197c .cfa: sp 0 +
STACK CFI INIT 21980 38 .cfa: sp 0 +
STACK CFI 2198c .cfa: sp 32 +
STACK CFI 219b4 .cfa: sp 0 +
STACK CFI INIT 21c4c 7c .cfa: sp 0 +
STACK CFI 21c50 .cfa: sp 32 +
STACK CFI 21c58 .cfa: x29 32 + x19: .cfa -16 + ^ .ra: .cfa -24 + ^ x29: .cfa -32 + ^
STACK CFI 21c84 .cfa: sp 32 +
STACK CFI 21c8c .cfa: sp 0 +
STACK CFI 21c90 .cfa: x29 32 +
STACK CFI 21cbc .cfa: sp 32 +
STACK CFI 21cc4 .cfa: sp 0 +
STACK CFI INIT 21d18 2c .cfa: sp 0 +
STACK CFI 21d1c .cfa: sp 32 +
STACK CFI 21d24 .cfa: x29 32 + x19: .cfa -16 + ^ .ra: .cfa -24 + ^ x29: .cfa -32 + ^
STACK CFI 21d38 .cfa: sp 32 +
STACK CFI 21d40 .cfa: sp 0 +
STACK CFI INIT 22504 64 .cfa: sp 0 +
STACK CFI 22508 .cfa: sp 32 +
STACK CFI 22510 .cfa: x29 32 + x19: .cfa -16 + ^ .ra: .cfa -24 + ^ x29: .cfa -32 + ^
STACK CFI 2252c .cfa: sp 32 +
STACK CFI 22534 .cfa: sp 0 +
STACK CFI 22538 .cfa: x29 32 +
STACK CFI 2255c .cfa: sp 32 +
STACK CFI 22564 .cfa: sp 0 +
STACK CFI INIT 22568 570 .cfa: sp 0 +
STACK CFI 2256c .cfa: sp 176 +
STACK CFI 22580 .cfa: x29 64 + x19: .cfa -8 + ^ x20: .cfa -16 + ^ x21: .cfa -24 + ^ x22: .cfa -32 + ^ x23: .cfa -40 + ^ x24: .cfa -48 + ^ .ra: .cfa -56 + ^ x29: .cfa -64 + ^
STACK CFI 227b0 .cfa: sp 176 +
STACK CFI 227c4 .cfa: sp 0 +
STACK CFI 227c8 .cfa: x29 64 +
STACK CFI 22814 .cfa: sp 176 +
STACK CFI 22828 .cfa: sp 0 +
STACK CFI 2282c .cfa: x29 64 +
STACK CFI 22864 .cfa: sp 176 +
STACK CFI 22878 .cfa: sp 0 +
STACK CFI 2287c .cfa: x29 64 +
STACK CFI 22894 .cfa: sp 176 +
STACK CFI 228a8 .cfa: sp 0 +
STACK CFI 228ac .cfa: x29 64 +
STACK CFI 228cc .cfa: sp 176 +
STACK CFI 228e0 .cfa: sp 0 +
STACK CFI 228e4 .cfa: x29 64 +
STACK CFI 228fc .cfa: sp 176 +
STACK CFI 22910 .cfa: sp 0 +
STACK CFI 22914 .cfa: x29 64 +
STACK CFI 22928 .cfa: sp 176 +
STACK CFI 2293c .cfa: sp 0 +
STACK CFI 22940 .cfa: x29 64 +
STACK CFI 22954 .cfa: sp 176 +
STACK CFI 22968 .cfa: sp 0 +
STACK CFI 2296c .cfa: x29 64 +
STACK CFI 2297c .cfa: sp 176 +
STACK CFI 22990 .cfa: sp 0 +
STACK CFI 22994 .cfa: x29 64 +
STACK CFI 229a4 .cfa: sp 176 +
STACK CFI 229b8 .cfa: sp 0 +
STACK CFI 229bc .cfa: x29 64 +
STACK CFI 229d4 .cfa: sp 176 +
STACK CFI 229e8 .cfa: sp 0 +
STACK CFI 229ec .cfa: x29 64 +
STACK CFI 22a00 .cfa: sp 176 +
STACK CFI 22a14 .cfa: sp 0 +
STACK CFI 22a18 .cfa: x29 64 +
STACK CFI 22a30 .cfa: sp 176 +
STACK CFI 22a44 .cfa: sp 0 +
STACK CFI 22a48 .cfa: x29 64 +
STACK CFI 22a74 .cfa: sp 176 +
STACK CFI 22a88 .cfa: sp 0 +
STACK CFI 22a8c .cfa: x29 64 +
STACK CFI 22aa0 .cfa: sp 176 +
STACK CFI 22ab4 .cfa: sp 0 +
STACK CFI 22ab8 .cfa: x29 64 +
STACK CFI INIT 22ad8 228 .cfa: sp 0 +
STACK CFI INIT 22d00 2dc .cfa: sp 0 +
STACK CFI INIT 22fdc 53c .cfa: sp 0 +
STACK CFI INIT 23518 78 .cfa: sp 0 +
STACK CFI 2351c .cfa: sp 48 +
STACK CFI 23528 .cfa: x29 48 + x19: .cfa -8 + ^ x20: .cfa -16 + ^ x21: .cfa -24 + ^ x22: .cfa -32 + ^ .ra: .cfa -40 + ^ x29: .cfa -48 + ^
STACK CFI 23570 .cfa: sp 48 +
STACK CFI 2357c .cfa: sp 0 +
STACK CFI 23580 .cfa: sp 48 +
STACK CFI 2358c .cfa: sp 0 +
STACK CFI INIT 23590 8c .cfa: sp 0 +
STACK CFI 23594 .cfa: sp 32 +
STACK CFI 2359c .cfa: x29 32 + x19: .cfa -16 + ^ .ra: .cfa -24 + ^ x29: .cfa -32 + ^
STACK CFI 235d0 .cfa: sp 32 +
STACK CFI 235d8 .cfa: sp 0 +
STACK CFI 235dc .cfa: x29 32 +
STACK CFI 23610 .cfa: sp 32 +
STACK CFI 23618 .cfa: sp 0 +
STACK CFI INIT 2361c 24 .cfa: sp 0 +
STACK CFI 23620 .cfa: sp 32 +
STACK CFI 23628 .cfa: x29 32 + x19: .cfa -16 + ^ .ra: .cfa -24 + ^ x29: .cfa -32 + ^
STACK CFI 23634 .cfa: sp 32 +
STACK CFI 2363c .cfa: sp 0 +
STACK CFI INIT 23640 150 .cfa: sp 0 +
STACK CFI 23644 .cfa: sp 48 +
STACK CFI 23650 .cfa: x29 48 + x19: .cfa -8 + ^ x20: .cfa -16 + ^ x21: .cfa -24 + ^ x22: .cfa -32 + ^ .ra: .cfa -40 + ^ x29: .cfa -48 + ^
STACK CFI 23780 .cfa: sp 48 +
STACK CFI 2378c .cfa: sp 0 +
STACK CFI INIT 23790 68 .cfa: sp 0 +
STACK CFI 23794 .cfa: sp 64 +
STACK CFI 237a0 .cfa: x29 32 + x19: .cfa -16 + ^ .ra: .cfa -24 + ^ x29: .cfa -32 + ^
STACK CFI 237e4 .cfa: sp 64 +
STACK CFI 237f0 .cfa: sp 0 +
STACK CFI 237f4 .cfa: x29 32 +
STACK CFI INIT 237f8 90 .cfa: sp 0 +
STACK CFI 237fc .cfa: sp 32 +
STACK CFI 23804 .cfa: x29 32 + x19: .cfa -8 + ^ x20: .cfa -16 + ^ .ra: .cfa -24 + ^ x29: .cfa -32 + ^
STACK CFI 23830 .cfa: sp 32 +
STACK CFI 23838 .cfa: sp 0 +
STACK CFI 2383c .cfa: x29 32 +
STACK CFI 2387c .cfa: sp 32 +
STACK CFI 23884 .cfa: sp 0 +
STACK CFI INIT 23888 ec .cfa: sp 0 +
STACK CFI 2388c .cfa: sp 112 +
STACK CFI 2389c .cfa: x29 48 + x19: .cfa -8 + ^ x20: .cfa -16 + ^ x21: .cfa -32 + ^ .ra: .cfa -40 + ^ x29: .cfa -48 + ^
STACK CFI 2395c .cfa: sp 112 +
STACK CFI 2396c .cfa: sp 0 +
STACK CFI 23970 .cfa: x29 48 +
STACK CFI INIT 23974 ec .cfa: sp 0 +
STACK CFI 23978 .cfa: sp 112 +
STACK CFI 23988 .cfa: x29 48 + x19: .cfa -8 + ^ x20: .cfa -16 + ^ x21: .cfa -32 + ^ .ra: .cfa -40 + ^ x29: .cfa -48 + ^
STACK CFI 23a48 .cfa: sp 112 +
STACK CFI 23a58 .cfa: sp 0 +
STACK CFI 23a5c .cfa: x29 48 +
STACK CFI INIT 23a60 48 .cfa: sp 0 +
STACK CFI 23a64 .cfa: sp 32 +
STACK CFI 23a6c .cfa: x29 32 + x19: .cfa -8 + ^ x20: .cfa -16 + ^ .ra: .cfa -24 + ^ x29: .cfa -32 + ^
STACK CFI 23a90 .cfa: sp 32 +
STACK CFI 23a98 .cfa: sp 0 +
STACK CFI 23a9c .cfa: x29 32 +
STACK CFI INIT 23aa8 98 .cfa: sp 0 +
STACK CFI 23aac .cfa: sp 80 +
STACK CFI 23ab8 .cfa: x29 32 + x19: .cfa -16 + ^ .ra: .cfa -24 + ^ x29: .cfa -32 + ^
STACK CFI 23b2c .cfa: sp 80 +
STACK CFI 23b38 .cfa: sp 0 +
STACK CFI 23b3c .cfa: x29 32 +
STACK CFI INIT 23b40 260 .cfa: sp 0 +
STACK CFI 23b44 .cfa: sp 112 +
STACK CFI 23b5c .cfa: x29 80 + x19: .cfa -8 + ^ x20: .cfa -16 + ^ x21: .cfa -24 + ^ x22: .cfa -32 + ^ x23: .cfa -40 + ^ x24: .cfa -48 + ^ x25: .cfa -64 + ^ .ra: .cfa -72 + ^ x29: .cfa -80 + ^
STACK CFI 23d40 .cfa: sp 112 +
STACK CFI 23d58 .cfa: sp 0 +
STACK CFI 23d5c .cfa: x29 80 +
STACK CFI INIT 23da0 150 .cfa: sp 0 +
STACK CFI 23da4 .cfa: sp 48 +
STACK CFI 23db0 .cfa: x29 48 + x19: .cfa -8 + ^ x20: .cfa -16 + ^ x21: .cfa -24 + ^ x22: .cfa -32 + ^ .ra: .cfa -40 + ^ x29: .cfa -48 + ^
STACK CFI 23ee0 .cfa: sp 48 +
STACK CFI 23eec .cfa: sp 0 +
STACK CFI INIT 23ef0 1e0 .cfa: sp 0 +
STACK CFI 23ef4 .cfa: sp 96 +
STACK CFI 23f08 .cfa: x29 64 + x19: .cfa -8 + ^ x20: .cfa -16 + ^ x21: .cfa -24 + ^ x22: .cfa -32 + ^ x23: .cfa -40 + ^ x24: .cfa -48 + ^ .ra: .cfa -56 + ^ x29: .cfa -64 + ^
STACK CFI 24088 .cfa: sp 96 +
STACK CFI 2409c .cfa: sp 0 +
STACK CFI 240a0 .cfa: x29 64 +
STACK CFI INIT 240d0 284 .cfa: sp 0 +
STACK CFI 240d4 .cfa: sp 112 +
STACK CFI 240ec .cfa: x29 80 + x19: .cfa -8 + ^ x20: .cfa -16 + ^ x21: .cfa -24 + ^ x22: .cfa -32 + ^ x23: .cfa -40 + ^ x24: .cfa -48 + ^ x25: .cfa -64 + ^ .ra: .cfa -72 + ^ x29: .cfa -80 + ^
STACK CFI 242f4 .cfa: sp 112 +
STACK CFI 2430c .cfa: sp 0 +
STACK CFI 24310 .cfa: x29 80 +
STACK CFI INIT 24354 208 .cfa: sp 0 +
STACK CFI 24358 .cfa: sp 96 +
STACK CFI 2436c .cfa: x29 64 + x19: .cfa -8 + ^ x20: .cfa -16 + ^ x21: .cfa -24 + ^ x22: .cfa -32 + ^ x23: .cfa -40 + ^ x24: .cfa -48 + ^ .ra: .cfa -56 + ^ x29: .cfa -64 + ^
STACK CFI 24514 .cfa: sp 96 +
STACK CFI 24528 .cfa: sp 0 +
STACK CFI 2452c .cfa: x29 64 +
STACK CFI INIT 2455c 360 .cfa: sp 0 +
STACK CFI 24560 .cfa: sp 160 +
STACK CFI 2457c .cfa: x29 96 + x19: .cfa -8 + ^ x20: .cfa -16 + ^ x21: .cfa -24 + ^ x22: .cfa -32 + ^ x23: .cfa -40 + ^ x24: .cfa -48 + ^ x25: .cfa -56 + ^ x26: .cfa -64 + ^ x27: .cfa -72 + ^ x28: .cfa -80 + ^ .ra: .cfa -88 + ^ x29: .cfa -96 + ^
STACK CFI 24848 .cfa: sp 160 +
STACK CFI 24864 .cfa: sp 0 +
STACK CFI 24868 .cfa: x29 96 +
STACK CFI INIT 248bc 314 .cfa: sp 0 +
STACK CFI 248c0 .cfa: sp 144 +
STACK CFI 248dc .cfa: x29 96 + x19: .cfa -8 + ^ x20: .cfa -16 + ^ x21: .cfa -24 + ^ x22: .cfa -32 + ^ x23: .cfa -40 + ^ x24: .cfa -48 + ^ x25: .cfa -56 + ^ x26: .cfa -64 + ^ x27: .cfa -72 + ^ x28: .cfa -80 + ^ .ra: .cfa -88 + ^ x29: .cfa -96 + ^
STACK CFI 24b58 .cfa: sp 144 +
STACK CFI 24b74 .cfa: sp 0 +
STACK CFI 24b78 .cfa: x29 96 +
STACK CFI INIT 24bd0 290 .cfa: sp 0 +
STACK CFI 24bd4 .cfa: sp 128 +
STACK CFI 24bec .cfa: x29 80 + x19: .cfa -8 + ^ x20: .cfa -16 + ^ x21: .cfa -24 + ^ x22: .cfa -32 + ^ x23: .cfa -40 + ^ x24: .cfa -48 + ^ x25: .cfa -56 + ^ x26: .cfa -64 + ^ .ra: .cfa -72 + ^ x29: .cfa -80 + ^
STACK CFI 24e40 .cfa: sp 128 +
STACK CFI 24e58 .cfa: sp 0 +
STACK CFI 24e5c .cfa: x29 80 +
STACK CFI INIT 24e60 ddc .cfa: sp 0 +
STACK CFI 24e64 .cfa: sp 144 +
STACK CFI 24e80 .cfa: x29 96 + x19: .cfa -8 + ^ x20: .cfa -16 + ^ x21: .cfa -24 + ^ x22: .cfa -32 + ^ x23: .cfa -40 + ^ x24: .cfa -48 + ^ x25: .cfa -56 + ^ x26: .cfa -64 + ^ x27: .cfa -72 + ^ x28: .cfa -80 + ^ .ra: .cfa -88 + ^ x29: .cfa -96 + ^
STACK CFI 25b14 .cfa: sp 144 +
STACK CFI 25b30 .cfa: sp 0 +
STACK CFI 25b34 .cfa: x29 96 +
STACK CFI INIT 25c3c 1d0 .cfa: sp 0 +
STACK CFI 25c40 .cfa: sp 80 +
STACK CFI 25c54 .cfa: x29 80 + x19: .cfa -8 + ^ x20: .cfa -16 + ^ x21: .cfa -24 + ^ x22: .cfa -32 + ^ x23: .cfa -40 + ^ x24: .cfa -48 + ^ x25: .cfa -64 + ^ .ra: .cfa -72 + ^ x29: .cfa -80 + ^
STACK CFI 25df4 .cfa: sp 80 +
STACK CFI 25e08 .cfa: sp 0 +
STACK CFI INIT 25e0c 23c .cfa: sp 0 +
STACK CFI 25e10 .cfa: sp 112 +
STACK CFI 25e24 .cfa: x29 64 + x19: .cfa -8 + ^ x20: .cfa -16 + ^ x21: .cfa -24 + ^ x22: .cfa -32 + ^ x23: .cfa -40 + ^ x24: .cfa -48 + ^ .ra: .cfa -56 + ^ x29: .cfa -64 + ^
STACK CFI 26000 .cfa: sp 112 +
STACK CFI 26014 .cfa: sp 0 +
STACK CFI 26018 .cfa: x29 64 +
STACK CFI INIT 26048 30c .cfa: sp 0 +
STACK CFI 2604c .cfa: sp 80 +
STACK CFI 26060 .cfa: x29 64 + x19: .cfa -8 + ^ x20: .cfa -16 + ^ x21: .cfa -24 + ^ x22: .cfa -32 + ^ x23: .cfa -40 + ^ x24: .cfa -48 + ^ .ra: .cfa -56 + ^ x29: .cfa -64 + ^
STACK CFI 261dc .cfa: sp 80 +
STACK CFI 261f0 .cfa: sp 0 +
STACK CFI 261f4 .cfa: x29 64 +
STACK CFI INIT 26354 178 .cfa: sp 0 +
STACK CFI 26358 .cfa: sp 80 +
STACK CFI 2636c .cfa: x29 64 + x19: .cfa -8 + ^ x20: .cfa -16 + ^ x21: .cfa -24 + ^ x22: .cfa -32 + ^ x23: .cfa -40 + ^ x24: .cfa -48 + ^ .ra: .cfa -56 + ^ x29: .cfa -64 + ^
STACK CFI 264b0 .cfa: sp 80 +
STACK CFI 264c4 .cfa: sp 0 +
STACK CFI 264c8 .cfa: x29 64 +
STACK CFI INIT 264cc 178 .cfa: sp 0 +
STACK CFI 264d0 .cfa: sp 80 +
STACK CFI 264e4 .cfa: x29 64 + x19: .cfa -8 + ^ x20: .cfa -16 + ^ x21: .cfa -24 + ^ x22: .cfa -32 + ^ x23: .cfa -40 + ^ x24: .cfa -48 + ^ .ra: .cfa -56 + ^ x29: .cfa -64 + ^
STACK CFI 26628 .cfa: sp 80 +
STACK CFI 2663c .cfa: sp 0 +
STACK CFI 26640 .cfa: x29 64 +
STACK CFI INIT 26644 240 .cfa: sp 0 +
STACK CFI 26648 .cfa: sp 96 +
STACK CFI 26660 .cfa: x29 96 + x19: .cfa -8 + ^ x20: .cfa -16 + ^ x21: .cfa -24 + ^ x22: .cfa -32 + ^ x23: .cfa -40 + ^ x24: .cfa -48 + ^ x25: .cfa -56 + ^ x26: .cfa -64 + ^ x27: .cfa -72 + ^ x28: .cfa -80 + ^ .ra: .cfa -88 + ^ x29: .cfa -96 + ^
STACK CFI 26868 .cfa: sp 96 +
STACK CFI 26880 .cfa: sp 0 +
STACK CFI INIT 274f8 154 .cfa: sp 0 +
STACK CFI 274fc .cfa: sp 96 +
STACK CFI 27510 .cfa: x29 64 + x19: .cfa -8 + ^ x20: .cfa -16 + ^ x21: .cfa -24 + ^ x22: .cfa -32 + ^ x23: .cfa -48 + ^ .ra: .cfa -56 + ^ x29: .cfa -64 + ^
STACK CFI 275f0 .cfa: sp 96 +
STACK CFI 27604 .cfa: sp 0 +
STACK CFI 27608 .cfa: x29 64 +
STACK CFI INIT 278b8 44 .cfa: sp 0 +
STACK CFI 278bc .cfa: sp 32 +
STACK CFI 278c4 .cfa: x29 32 + x19: .cfa -16 + ^ .ra: .cfa -24 + ^ x29: .cfa -32 + ^
STACK CFI 278e0 .cfa: sp 32 +
STACK CFI 278e8 .cfa: sp 0 +
STACK CFI 278ec .cfa: x29 32 +
STACK CFI 278f0 .cfa: sp 32 +
STACK CFI 278f8 .cfa: sp 0 +
STACK CFI INIT 278fc 1d0 .cfa: sp 0 +
STACK CFI 27900 .cfa: sp 64 +
STACK CFI 27910 .cfa: x29 64 + x19: .cfa -8 + ^ x20: .cfa -16 + ^ x21: .cfa -24 + ^ x22: .cfa -32 + ^ x23: .cfa -40 + ^ x24: .cfa -48 + ^ .ra: .cfa -56 + ^ x29: .cfa -64 + ^
STACK CFI 279d0 .cfa: sp 64 +
STACK CFI 279e0 .cfa: sp 0 +
STACK CFI 279e4 .cfa: x29 64 +
STACK CFI INIT 27acc 17c .cfa: sp 0 +
STACK CFI INIT 27c48 ac .cfa: sp 0 +
STACK CFI 27c4c .cfa: sp 64 +
STACK CFI 27c5c .cfa: x29 64 + x19: .cfa -8 + ^ x20: .cfa -16 + ^ x21: .cfa -24 + ^ x22: .cfa -32 + ^ x23: .cfa -48 + ^ .ra: .cfa -56 + ^ x29: .cfa -64 + ^
STACK CFI 27cd8 .cfa: sp 64 +
STACK CFI 27ce8 .cfa: sp 0 +
STACK CFI 27cec .cfa: x29 64 +
STACK CFI INIT 27cf4 110 .cfa: sp 0 +
STACK CFI 27cf8 .cfa: sp 64 +
STACK CFI 27d08 .cfa: x29 64 + x19: .cfa -8 + ^ x20: .cfa -16 + ^ x21: .cfa -24 + ^ x22: .cfa -32 + ^ x23: .cfa -40 + ^ x24: .cfa -48 + ^ .ra: .cfa -56 + ^ x29: .cfa -64 + ^
STACK CFI 27de8 .cfa: sp 64 +
STACK CFI 27df8 .cfa: sp 0 +
STACK CFI 27dfc .cfa: x29 64 +
STACK CFI INIT 281bc a0 .cfa: sp 0 +
STACK CFI 281c0 .cfa: sp 48 +
STACK CFI 281cc .cfa: x29 48 + x19: .cfa -8 + ^ x20: .cfa -16 + ^ x21: .cfa -24 + ^ x22: .cfa -32 + ^ .ra: .cfa -40 + ^ x29: .cfa -48 + ^
STACK CFI 28238 .cfa: sp 48 +
STACK CFI 28244 .cfa: sp 0 +
STACK CFI 28248 .cfa: sp 48 +
STACK CFI 28254 .cfa: sp 0 +
STACK CFI 28258 .cfa: x29 48 +
STACK CFI INIT 28f10 158 .cfa: sp 0 +
STACK CFI 28f14 .cfa: sp 96 +
STACK CFI 28f28 .cfa: x29 64 + x19: .cfa -8 + ^ x20: .cfa -16 + ^ x21: .cfa -24 + ^ x22: .cfa -32 + ^ x23: .cfa -48 + ^ .ra: .cfa -56 + ^ x29: .cfa -64 + ^
STACK CFI 2900c .cfa: sp 96 +
STACK CFI 29020 .cfa: sp 0 +
STACK CFI 29024 .cfa: x29 64 +
STACK CFI INIT 29068 190 .cfa: sp 0 +
STACK CFI INIT 29cf4 1dc .cfa: sp 0 +
STACK CFI 29cf8 .cfa: sp 80 +
STACK CFI 29d0c .cfa: x29 80 + x19: .cfa -8 + ^ x20: .cfa -16 + ^ x21: .cfa -24 + ^ x22: .cfa -32 + ^ x23: .cfa -40 + ^ x24: .cfa -48 + ^ x25: .cfa -64 + ^ .ra: .cfa -72 + ^ x29: .cfa -80 + ^
STACK CFI 29eb8 .cfa: sp 80 +
STACK CFI 29ecc .cfa: sp 0 +
STACK CFI INIT 2b300 124 .cfa: sp 0 +
STACK CFI 2b330 .cfa: sp 32 +
STACK CFI 2b338 .cfa: x29 32 + x19: .cfa -8 + ^ x20: .cfa -16 + ^ .ra: .cfa -24 + ^ x29: .cfa -32 + ^
STACK CFI 2b418 .cfa: sp 32 +
STACK CFI 2b420 .cfa: sp 0 +
STACK CFI INIT 2bb80 320 .cfa: sp 0 +
STACK CFI 2bb84 .cfa: sp 64 +
STACK CFI 2bb94 .cfa: x29 64 + x19: .cfa -8 + ^ x20: .cfa -16 + ^ x21: .cfa -24 + ^ x22: .cfa -32 + ^ x23: .cfa -40 + ^ x24: .cfa -48 + ^ .ra: .cfa -56 + ^ x29: .cfa -64 + ^
STACK CFI 2bc10 .cfa: sp 64 +
STACK CFI 2bc20 .cfa: sp 0 +
STACK CFI 2bc24 .cfa: x29 64 +
STACK CFI 2bdf8 .cfa: sp 64 +
STACK CFI 2be08 .cfa: sp 0 +
STACK CFI 2be0c .cfa: x29 64 +
STACK CFI 2be1c .cfa: sp 64 +
STACK CFI 2be2c .cfa: sp 0 +
STACK CFI 2be30 .cfa: x29 64 +
STACK CFI INIT 2bea0 a0 .cfa: sp 0 +
STACK CFI 2bea4 .cfa: sp 48 +
STACK CFI 2beb0 .cfa: x29 48 + x19: .cfa -8 + ^ x20: .cfa -16 + ^ x21: .cfa -24 + ^ x22: .cfa -32 + ^ .ra: .cfa -40 + ^ x29: .cfa -48 + ^
STACK CFI 2bf1c .cfa: sp 48 +
STACK CFI 2bf28 .cfa: sp 0 +
STACK CFI 2bf2c .cfa: sp 48 +
STACK CFI 2bf38 .cfa: sp 0 +
STACK CFI 2bf3c .cfa: x29 48 +
STACK CFI INIT 2cdf0 160 .cfa: sp 0 +
STACK CFI 2cdf4 .cfa: sp 64 +
STACK CFI 2ce04 .cfa: x29 64 + x19: .cfa -8 + ^ x20: .cfa -16 + ^ x21: .cfa -24 + ^ x22: .cfa -32 + ^ x23: .cfa -48 + ^ .ra: .cfa -56 + ^ x29: .cfa -64 + ^
STACK CFI 2cefc .cfa: sp 64 +
STACK CFI 2cf0c .cfa: sp 0 +
STACK CFI 2cf10 .cfa: x29 64 +
STACK CFI INIT 2cf50 214 .cfa: sp 0 +
STACK CFI 2cf54 .cfa: sp 128 +
STACK CFI 2cf70 .cfa: x29 96 + x19: .cfa -8 + ^ x20: .cfa -16 + ^ x21: .cfa -24 + ^ x22: .cfa -32 + ^ x23: .cfa -40 + ^ x24: .cfa -48 + ^ x25: .cfa -56 + ^ x26: .cfa -64 + ^ x27: .cfa -80 + ^ .ra: .cfa -88 + ^ x29: .cfa -96 + ^
STACK CFI 2d0ec .cfa: sp 128 +
STACK CFI 2d108 .cfa: sp 0 +
STACK CFI 2d10c .cfa: x29 96 +
STACK CFI INIT 2ee00 290 .cfa: sp 0 +
STACK CFI 2ee04 .cfa: sp 16 +
STACK CFI 2ee08 .cfa: x29 16 + .ra: .cfa -8 + ^ x29: .cfa -16 + ^
STACK CFI 2ee94 .cfa: sp 16 +
STACK CFI 2ee98 .cfa: sp 0 +
STACK CFI 2ee9c .cfa: x29 16 +
STACK CFI 2eeec .cfa: sp 16 +
STACK CFI 2eef0 .cfa: sp 0 +
STACK CFI 2eef4 .cfa: x29 16 +
STACK CFI 2f058 .cfa: sp 16 +
STACK CFI 2f05c .cfa: sp 0 +
STACK CFI 2f060 .cfa: x29 16 +
STACK CFI INIT 2f090 158 .cfa: sp 0 +
STACK CFI 2f094 .cfa: sp 112 +
STACK CFI 2f0b0 .cfa: x29 96 + x19: .cfa -8 + ^ x20: .cfa -16 + ^ x21: .cfa -24 + ^ x22: .cfa -32 + ^ x23: .cfa -40 + ^ x24: .cfa -48 + ^ x25: .cfa -56 + ^ x26: .cfa -64 + ^ x27: .cfa -72 + ^ x28: .cfa -80 + ^ .ra: .cfa -88 + ^ x29: .cfa -96 + ^
STACK CFI 2f198 .cfa: sp 112 +
STACK CFI 2f19c .cfa: x29 96 +
STACK CFI 2f1a4 .cfa: sp 112 +
STACK CFI 2f1c0 .cfa: sp 0 +
STACK CFI 2f1c4 .cfa: x29 96 +
STACK CFI 2f1e4 .cfa: sp 112 +
STACK CFI INIT 2f1e8 e54 .cfa: sp 0 +
STACK CFI 2f1ec .cfa: sp 192 +
STACK CFI 2f208 .cfa: x29 96 + x19: .cfa -8 + ^ x20: .cfa -16 + ^ x21: .cfa -24 + ^ x22: .cfa -32 + ^ x23: .cfa -40 + ^ x24: .cfa -48 + ^ x25: .cfa -56 + ^ x26: .cfa -64 + ^ x27: .cfa -72 + ^ x28: .cfa -80 + ^ .ra: .cfa -88 + ^ x29: .cfa -96 + ^
STACK CFI 2ff24 .cfa: sp 192 +
STACK CFI 2ff40 .cfa: sp 0 +
STACK CFI 2ff44 .cfa: x29 96 +
STACK CFI INIT 3003c 1068 .cfa: sp 0 +
STACK CFI 30040 .cfa: sp 288 +
STACK CFI 3005c .cfa: x29 96 + x19: .cfa -8 + ^ x20: .cfa -16 + ^ x21: .cfa -24 + ^ x22: .cfa -32 + ^ x23: .cfa -40 + ^ x24: .cfa -48 + ^ x25: .cfa -56 + ^ x26: .cfa -64 + ^ x27: .cfa -72 + ^ x28: .cfa -80 + ^ .ra: .cfa -88 + ^ x29: .cfa -96 + ^
STACK CFI 30dec .cfa: sp 288 +
STACK CFI 30e08 .cfa: sp 0 +
STACK CFI 30e0c .cfa: x29 96 +
STACK CFI INIT 310a4 520 .cfa: sp 0 +
STACK CFI 310a8 .cfa: sp 144 +
STACK CFI 310c4 .cfa: x29 96 + x19: .cfa -8 + ^ x20: .cfa -16 + ^ x21: .cfa -24 + ^ x22: .cfa -32 + ^ x23: .cfa -40 + ^ x24: .cfa -48 + ^ x25: .cfa -56 + ^ x26: .cfa -64 + ^ x27: .cfa -72 + ^ x28: .cfa -80 + ^ .ra: .cfa -88 + ^ x29: .cfa -96 + ^
STACK CFI 315a0 .cfa: sp 144 +
STACK CFI 315bc .cfa: sp 0 +
STACK CFI 315c0 .cfa: x29 96 +
STACK CFI INIT 31f64 136c .cfa: sp 0 +
STACK CFI 31f68 .cfa: sp 224 +
STACK CFI 31f84 .cfa: x29 96 + x19: .cfa -8 + ^ x20: .cfa -16 + ^ x21: .cfa -24 + ^ x22: .cfa -32 + ^ x23: .cfa -40 + ^ x24: .cfa -48 + ^ x25: .cfa -56 + ^ x26: .cfa -64 + ^ x27: .cfa -72 + ^ x28: .cfa -80 + ^ .ra: .cfa -88 + ^ x29: .cfa -96 + ^
STACK CFI 332ac .cfa: sp 224 +
STACK CFI 332c8 .cfa: sp 0 +
STACK CFI 332cc .cfa: x29 96 +
STACK CFI INIT 332d0 1b8 .cfa: sp 0 +
STACK CFI INIT 16f18 680 .cfa: sp 0 +
STACK CFI 16f1c .cfa: sp 128 +
STACK CFI 16f3c .cfa: x29 96 + x19: .cfa -8 + ^ x20: .cfa -16 + ^ x21: .cfa -24 + ^ x22: .cfa -32 + ^ x23: .cfa -40 + ^ x24: .cfa -48 + ^ x25: .cfa -56 + ^ x26: .cfa -64 + ^ x27: .cfa -72 + ^ x28: .cfa -80 + ^ .ra: .cfa -88 + ^ x29: .cfa -96 + ^ v8: .cfa -104 + ^ v9: .cfa -112 + ^ v10: .cfa -120 + ^ v11: .cfa -128 + ^
STACK CFI 174c0 .cfa: sp 128 +
STACK CFI 174e0 .cfa: sp 0 +
STACK CFI 174e4 .cfa: x29 96 +
STACK CFI INIT 175ac 50 .cfa: sp 0 +
STACK CFI 175b0 .cfa: sp 32 +
STACK CFI 175b8 .cfa: x29 32 + x19: .cfa -8 + ^ x20: .cfa -16 + ^ .ra: .cfa -24 + ^ x29: .cfa -32 + ^
STACK CFI INIT 1775c 8f8 .cfa: sp 0 +
STACK CFI 17760 .cfa: sp 240 +
STACK CFI 1777c .cfa: x29 96 + x19: .cfa -8 + ^ x20: .cfa -16 + ^ x21: .cfa -24 + ^ x22: .cfa -32 + ^ x23: .cfa -40 + ^ x24: .cfa -48 + ^ x25: .cfa -56 + ^ x26: .cfa -64 + ^ x27: .cfa -72 + ^ x28: .cfa -80 + ^ .ra: .cfa -88 + ^ x29: .cfa -96 + ^
STACK CFI 17f50 .cfa: sp 240 +
STACK CFI 17f6c .cfa: sp 0 +
STACK CFI 17f70 .cfa: x29 96 +
STACK CFI INIT 18054 130 .cfa: sp 0 +
STACK CFI 18058 .cfa: sp 96 +
STACK CFI 1806c .cfa: x29 64 + x19: .cfa -8 + ^ x20: .cfa -16 + ^ x21: .cfa -24 + ^ x22: .cfa -32 + ^ x23: .cfa -48 + ^ .ra: .cfa -56 + ^ x29: .cfa -64 + ^
STACK CFI 1812c .cfa: sp 96 +
STACK CFI 18140 .cfa: sp 0 +
STACK CFI 18144 .cfa: x29 64 +
STACK CFI INIT 1a400 150 .cfa: sp 0 +
STACK CFI 1a404 .cfa: sp 96 +
STACK CFI 1a418 .cfa: x29 48 + x19: .cfa -8 + ^ x20: .cfa -16 + ^ x21: .cfa -24 + ^ x22: .cfa -32 + ^ .ra: .cfa -40 + ^ x29: .cfa -48 + ^ v8: .cfa -64 + ^
STACK CFI 1a50c .cfa: sp 96 +
STACK CFI 1a520 .cfa: sp 0 +
STACK CFI 1a524 .cfa: x29 48 +
STACK CFI INIT 1a550 86c .cfa: sp 0 +
STACK CFI 1a554 .cfa: sp 288 +
STACK CFI 1a568 .cfa: x29 64 + x19: .cfa -8 + ^ x20: .cfa -16 + ^ x21: .cfa -24 + ^ x22: .cfa -32 + ^ x23: .cfa -40 + ^ x28: .cfa -48 + ^ .ra: .cfa -56 + ^ x29: .cfa -64 + ^
STACK CFI 1acdc .cfa: sp 288 +
STACK CFI 1acf0 .cfa: sp 0 +
STACK CFI 1acf4 .cfa: x29 64 +
STACK CFI INIT 1adbc 710 .cfa: sp 0 +
STACK CFI 1adc0 .cfa: sp 96 +
STACK CFI 1add8 .cfa: x29 96 + x19: .cfa -8 + ^ x20: .cfa -16 + ^ x21: .cfa -24 + ^ x22: .cfa -32 + ^ x23: .cfa -40 + ^ x24: .cfa -48 + ^ x25: .cfa -56 + ^ x26: .cfa -64 + ^ x27: .cfa -72 + ^ x28: .cfa -80 + ^ .ra: .cfa -88 + ^ x29: .cfa -96 + ^
STACK CFI 1b34c .cfa: sp 96 +
STACK CFI 1b364 .cfa: sp 0 +
STACK CFI 1b368 .cfa: x29 96 +
STACK CFI INIT 1b4cc 2c8 .cfa: sp 0 +
STACK CFI 1b4d0 .cfa: sp 176 +
STACK CFI 1b4ec .cfa: x29 80 + x19: .cfa -8 + ^ x20: .cfa -16 + ^ x21: .cfa -24 + ^ x22: .cfa -32 + ^ x23: .cfa -40 + ^ x24: .cfa -48 + ^ x25: .cfa -56 + ^ x26: .cfa -64 + ^ .ra: .cfa -72 + ^ x29: .cfa -80 + ^ v8: .cfa -96 + ^
STACK CFI 1b710 .cfa: sp 176 +
STACK CFI 1b72c .cfa: sp 0 +
STACK CFI 1b730 .cfa: x29 80 +
STACK CFI INIT 1bd64 1c .cfa: sp 0 +
STACK CFI 1bd68 .cfa: sp 16 +
STACK CFI 1bd6c .cfa: x29 16 + .ra: .cfa -8 + ^ x29: .cfa -16 + ^
STACK CFI 1bd74 .cfa: sp 16 +
STACK CFI 1bd78 .cfa: sp 0 +
STACK CFI 1bd7c .cfa: x29 16 +
STACK CFI INIT 1bdd0 1b8 .cfa: sp 0 +
STACK CFI 1bdd4 .cfa: sp 80 +
STACK CFI 1bde4 .cfa: x29 48 + x19: .cfa -8 + ^ x20: .cfa -16 + ^ x21: .cfa -32 + ^ .ra: .cfa -40 + ^ x29: .cfa -48 + ^
STACK CFI 1bf4c .cfa: sp 80 +
STACK CFI 1bf5c .cfa: sp 0 +
STACK CFI 1bf60 .cfa: x29 48 +
STACK CFI INIT 1bf88 6c .cfa: sp 0 +
STACK CFI 1bf8c .cfa: sp 32 +
STACK CFI 1bf94 .cfa: x29 32 + x19: .cfa -16 + ^ .ra: .cfa -24 + ^ x29: .cfa -32 + ^
STACK CFI 1bfe4 .cfa: sp 32 +
STACK CFI 1bfec .cfa: sp 0 +
STACK CFI 1bff0 .cfa: x29 32 +
STACK CFI INIT 1bff4 74 .cfa: sp 0 +
STACK CFI 1bff8 .cfa: sp 32 +
STACK CFI 1c000 .cfa: x29 32 + x19: .cfa -16 + ^ .ra: .cfa -24 + ^ x29: .cfa -32 + ^
STACK CFI 1c058 .cfa: sp 32 +
STACK CFI 1c060 .cfa: sp 0 +
STACK CFI 1c064 .cfa: x29 32 +
STACK CFI INIT 1c0c8 6c .cfa: sp 0 +
STACK CFI 1c0cc .cfa: sp 32 +
STACK CFI 1c0d4 .cfa: x29 32 + x19: .cfa -16 + ^ .ra: .cfa -24 + ^ x29: .cfa -32 + ^
STACK CFI 1c124 .cfa: sp 32 +
STACK CFI 1c12c .cfa: sp 0 +
STACK CFI 1c130 .cfa: x29 32 +
STACK CFI INIT 1c134 74 .cfa: sp 0 +
STACK CFI 1c138 .cfa: sp 32 +
STACK CFI 1c140 .cfa: x29 32 + x19: .cfa -16 + ^ .ra: .cfa -24 + ^ x29: .cfa -32 + ^
STACK CFI 1c198 .cfa: sp 32 +
STACK CFI 1c1a0 .cfa: sp 0 +
STACK CFI 1c1a4 .cfa: x29 32 +
STACK CFI INIT 1c240 148 .cfa: sp 0 +
STACK CFI 1c244 .cfa: sp 96 +
STACK CFI 1c254 .cfa: x29 48 + x19: .cfa -8 + ^ x20: .cfa -16 + ^ x21: .cfa -32 + ^ .ra: .cfa -40 + ^ x29: .cfa -48 + ^
STACK CFI 1c33c .cfa: sp 96 +
STACK CFI 1c34c .cfa: sp 0 +
STACK CFI 1c350 .cfa: x29 48 +
STACK CFI INIT 1c388 6c .cfa: sp 0 +
STACK CFI 1c38c .cfa: sp 32 +
STACK CFI 1c394 .cfa: x29 32 + x19: .cfa -16 + ^ .ra: .cfa -24 + ^ x29: .cfa -32 + ^
STACK CFI 1c3e4 .cfa: sp 32 +
STACK CFI 1c3ec .cfa: sp 0 +
STACK CFI 1c3f0 .cfa: x29 32 +
STACK CFI INIT 1c818 20 .cfa: sp 0 +
STACK CFI 1c81c .cfa: sp 16 +
STACK CFI 1c820 .cfa: x29 16 + .ra: .cfa -8 + ^ x29: .cfa -16 + ^
STACK CFI 1c82c .cfa: sp 16 +
STACK CFI 1c830 .cfa: sp 0 +
STACK CFI 1c834 .cfa: x29 16 +
STACK CFI INIT 1c870 bd4 .cfa: sp 0 +
STACK CFI 1c874 .cfa: sp 240 +
STACK CFI 1c890 .cfa: x29 96 + x19: .cfa -8 + ^ x20: .cfa -16 + ^ x21: .cfa -24 + ^ x22: .cfa -32 + ^ x23: .cfa -40 + ^ x24: .cfa -48 + ^ x25: .cfa -56 + ^ x26: .cfa -64 + ^ x27: .cfa -72 + ^ x28: .cfa -80 + ^ .ra: .cfa -88 + ^ x29: .cfa -96 + ^
STACK CFI 1cc6c .cfa: sp 240 +
STACK CFI 1cc88 .cfa: sp 0 +
STACK CFI 1cc8c .cfa: x29 96 +
STACK CFI 1d2ec .cfa: sp 240 +
STACK CFI 1d308 .cfa: sp 0 +
STACK CFI 1d30c .cfa: x29 96 +
STACK CFI INIT 1d45c 4c4 .cfa: sp 0 +
STACK CFI 1d460 .cfa: sp 288 +
STACK CFI 1d47c .cfa: x29 96 + x19: .cfa -8 + ^ x20: .cfa -16 + ^ x21: .cfa -24 + ^ x22: .cfa -32 + ^ x23: .cfa -40 + ^ x24: .cfa -48 + ^ x25: .cfa -56 + ^ x26: .cfa -64 + ^ x27: .cfa -72 + ^ x28: .cfa -80 + ^ .ra: .cfa -88 + ^ x29: .cfa -96 + ^
STACK CFI 1d7d4 .cfa: sp 288 +
STACK CFI 1d7f0 .cfa: sp 0 +
STACK CFI 1d7f4 .cfa: x29 96 +
STACK CFI INIT 1d970 74 .cfa: sp 0 +
STACK CFI 1d974 .cfa: sp 48 +
STACK CFI 1d980 .cfa: x29 32 + x19: .cfa -8 + ^ x20: .cfa -16 + ^ .ra: .cfa -24 + ^ x29: .cfa -32 + ^
STACK CFI 1d9cc .cfa: sp 48 +
STACK CFI 1d9d8 .cfa: sp 0 +
STACK CFI 1d9dc .cfa: x29 32 +
STACK CFI INIT 1da64 154 .cfa: sp 0 +
STACK CFI 1da68 .cfa: sp 384 +
STACK CFI 1da7c .cfa: x29 64 + x19: .cfa -8 + ^ x20: .cfa -16 + ^ x21: .cfa -24 + ^ x22: .cfa -32 + ^ x23: .cfa -40 + ^ x28: .cfa -48 + ^ .ra: .cfa -56 + ^ x29: .cfa -64 + ^
STACK CFI 1db60 .cfa: sp 384 +
STACK CFI 1db74 .cfa: sp 0 +
STACK CFI 1db78 .cfa: x29 64 +
STACK CFI INIT 1dbec 12c .cfa: sp 0 +
STACK CFI 1dbf0 .cfa: sp 80 +
STACK CFI 1dc04 .cfa: x29 80 + x19: .cfa -8 + ^ x20: .cfa -16 + ^ x21: .cfa -24 + ^ x22: .cfa -32 + ^ x23: .cfa -40 + ^ x24: .cfa -48 + ^ x25: .cfa -56 + ^ x26: .cfa -64 + ^ .ra: .cfa -72 + ^ x29: .cfa -80 + ^
STACK CFI 1dccc .cfa: sp 80 +
STACK CFI 1dce0 .cfa: sp 0 +
STACK CFI 1dce4 .cfa: x29 80 +
STACK CFI INIT 1ddbc 1a4 .cfa: sp 0 +
STACK CFI 1ddc0 .cfa: sp 112 +
STACK CFI 1ddd8 .cfa: x29 80 + x19: .cfa -8 + ^ x20: .cfa -16 + ^ x21: .cfa -24 + ^ x22: .cfa -32 + ^ x23: .cfa -40 + ^ x24: .cfa -48 + ^ x25: .cfa -56 + ^ x26: .cfa -64 + ^ .ra: .cfa -72 + ^ x29: .cfa -80 + ^
STACK CFI 1dec8 .cfa: sp 112 +
STACK CFI 1dee0 .cfa: sp 0 +
STACK CFI 1dee4 .cfa: x29 80 +
STACK CFI INIT 1df60 1dc .cfa: sp 0 +
STACK CFI 1df64 .cfa: sp 128 +
STACK CFI 1df80 .cfa: x29 96 + x19: .cfa -8 + ^ x20: .cfa -16 + ^ x21: .cfa -24 + ^ x22: .cfa -32 + ^ x23: .cfa -40 + ^ x24: .cfa -48 + ^ x25: .cfa -56 + ^ x26: .cfa -64 + ^ x27: .cfa -80 + ^ .ra: .cfa -88 + ^ x29: .cfa -96 + ^
STACK CFI 1e0ec .cfa: sp 128 +
STACK CFI 1e108 .cfa: sp 0 +
STACK CFI 1e10c .cfa: x29 96 +
STACK CFI INIT 1e13c 178 .cfa: sp 0 +
STACK CFI 1e140 .cfa: sp 80 +
STACK CFI 1e154 .cfa: x29 80 + x19: .cfa -8 + ^ x20: .cfa -16 + ^ x21: .cfa -24 + ^ x22: .cfa -32 + ^ x23: .cfa -40 + ^ x24: .cfa -48 + ^ x25: .cfa -64 + ^ .ra: .cfa -72 + ^ x29: .cfa -80 + ^
STACK CFI 1e280 .cfa: sp 80 +
STACK CFI 1e294 .cfa: sp 0 +
STACK CFI 1e298 .cfa: x29 80 +
STACK CFI INIT 1e514 1e4 .cfa: sp 0 +
STACK CFI 1e518 .cfa: sp 112 +
STACK CFI 1e52c .cfa: x29 64 + x19: .cfa -8 + ^ x20: .cfa -16 + ^ x21: .cfa -24 + ^ x22: .cfa -32 + ^ x23: .cfa -48 + ^ .ra: .cfa -56 + ^ x29: .cfa -64 + ^
STACK CFI 1e6b0 .cfa: sp 112 +
STACK CFI 1e6c4 .cfa: sp 0 +
STACK CFI 1e6c8 .cfa: x29 64 +
STACK CFI INIT 1e854 134 .cfa: sp 0 +
STACK CFI 1e858 .cfa: sp 80 +
STACK CFI 1e864 .cfa: x29 32 + x19: .cfa -8 + ^ x20: .cfa -16 + ^ .ra: .cfa -24 + ^ x29: .cfa -32 + ^
STACK CFI 1e894 .cfa: sp 80 +
STACK CFI 1e8a0 .cfa: sp 0 +
STACK CFI 1e8a4 .cfa: x29 32 +
STACK CFI INIT 1e988 78 .cfa: sp 0 +
STACK CFI 1e98c .cfa: sp 32 +
STACK CFI 1e994 .cfa: x29 32 + x19: .cfa -8 + ^ x20: .cfa -16 + ^ .ra: .cfa -24 + ^ x29: .cfa -32 + ^
STACK CFI 1e9a0 .cfa: sp 32 +
STACK CFI 1e9a8 .cfa: sp 0 +
STACK CFI 1e9ac .cfa: x29 32 +
STACK CFI INIT 1ea00 74 .cfa: sp 0 +
STACK CFI 1ea04 .cfa: sp 48 +
STACK CFI 1ea10 .cfa: x29 32 + x19: .cfa -8 + ^ x20: .cfa -16 + ^ .ra: .cfa -24 + ^ x29: .cfa -32 + ^
STACK CFI 1ea5c .cfa: sp 48 +
STACK CFI 1ea68 .cfa: sp 0 +
STACK CFI 1ea6c .cfa: x29 32 +
STACK CFI INIT 1eafc 25c .cfa: sp 0 +
STACK CFI 1eb00 .cfa: sp 128 +
STACK CFI 1eb10 .cfa: x29 48 + x19: .cfa -8 + ^ x20: .cfa -16 + ^ x21: .cfa -32 + ^ .ra: .cfa -40 + ^ x29: .cfa -48 + ^
STACK CFI 1ebf8 .cfa: sp 128 +
STACK CFI 1ec08 .cfa: sp 0 +
STACK CFI 1ec0c .cfa: x29 48 +
STACK CFI INIT 1edd0 300 .cfa: sp 0 +
STACK CFI 1edd4 .cfa: sp 144 +
STACK CFI 1ede8 .cfa: x29 64 + x19: .cfa -8 + ^ x20: .cfa -16 + ^ x21: .cfa -24 + ^ x22: .cfa -32 + ^ x23: .cfa -48 + ^ .ra: .cfa -56 + ^ x29: .cfa -64 + ^
STACK CFI 1ef7c .cfa: sp 144 +
STACK CFI 1ef90 .cfa: sp 0 +
STACK CFI 1ef94 .cfa: x29 64 +
STACK CFI INIT 1f124 264 .cfa: sp 0 +
STACK CFI 1f128 .cfa: sp 128 +
STACK CFI 1f138 .cfa: x29 48 + x19: .cfa -8 + ^ x20: .cfa -16 + ^ x21: .cfa -32 + ^ .ra: .cfa -40 + ^ x29: .cfa -48 + ^
STACK CFI 1f230 .cfa: sp 128 +
STACK CFI 1f240 .cfa: sp 0 +
STACK CFI 1f244 .cfa: x29 48 +
STACK CFI INIT 1f430 a4 .cfa: sp 0 +
STACK CFI 1f434 .cfa: sp 48 +
STACK CFI 1f440 .cfa: x29 48 + x19: .cfa -8 + ^ x20: .cfa -16 + ^ x21: .cfa -32 + ^ .ra: .cfa -40 + ^ x29: .cfa -48 + ^
STACK CFI 1f4ac .cfa: sp 48 +
STACK CFI 1f4b8 .cfa: sp 0 +
STACK CFI 1f4bc .cfa: x29 48 +
STACK CFI INIT 1f4d4 178 .cfa: sp 0 +
STACK CFI 1f4d8 .cfa: sp 128 +
STACK CFI 1f4e8 .cfa: x29 48 + x19: .cfa -8 + ^ x20: .cfa -16 + ^ x21: .cfa -24 + ^ x22: .cfa -32 + ^ .ra: .cfa -40 + ^ x29: .cfa -48 + ^
STACK CFI 1f544 .cfa: sp 128 +
STACK CFI 1f554 .cfa: sp 0 +
STACK CFI 1f558 .cfa: x29 48 +
STACK CFI INIT 1f844 15c .cfa: sp 0 +
STACK CFI 1f848 .cfa: sp 96 +
STACK CFI 1f85c .cfa: x29 64 + x19: .cfa -8 + ^ x20: .cfa -16 + ^ x21: .cfa -24 + ^ x22: .cfa -32 + ^ x23: .cfa -48 + ^ .ra: .cfa -56 + ^ x29: .cfa -64 + ^
STACK CFI 1f950 .cfa: sp 96 +
STACK CFI 1f964 .cfa: sp 0 +
STACK CFI 1f968 .cfa: x29 64 +
STACK CFI INIT 1f9a4 2e4 .cfa: sp 0 +
STACK CFI 1f9a8 .cfa: sp 144 +
STACK CFI 1f9bc .cfa: x29 64 + x19: .cfa -8 + ^ x20: .cfa -16 + ^ x21: .cfa -24 + ^ x22: .cfa -32 + ^ x23: .cfa -48 + ^ .ra: .cfa -56 + ^ x29: .cfa -64 + ^
STACK CFI 1fb34 .cfa: sp 144 +
STACK CFI 1fb48 .cfa: sp 0 +
STACK CFI 1fb4c .cfa: x29 64 +
STACK CFI INIT 1fc88 2f0 .cfa: sp 0 +
STACK CFI 1fc8c .cfa: sp 144 +
STACK CFI 1fca0 .cfa: x29 64 + x19: .cfa -8 + ^ x20: .cfa -16 + ^ x21: .cfa -24 + ^ x22: .cfa -32 + ^ x23: .cfa -48 + ^ .ra: .cfa -56 + ^ x29: .cfa -64 + ^
STACK CFI 1fe24 .cfa: sp 144 +
STACK CFI 1fe38 .cfa: sp 0 +
STACK CFI 1fe3c .cfa: x29 64 +
STACK CFI INIT 1ff78 2a0 .cfa: sp 0 +
STACK CFI 1ff7c .cfa: sp 144 +
STACK CFI 1ff90 .cfa: x29 64 + x19: .cfa -8 + ^ x20: .cfa -16 + ^ x21: .cfa -24 + ^ x22: .cfa -32 + ^ x23: .cfa -48 + ^ .ra: .cfa -56 + ^ x29: .cfa -64 + ^
STACK CFI 200c4 .cfa: sp 144 +
STACK CFI 200d8 .cfa: sp 0 +
STACK CFI 200dc .cfa: x29 64 +
STACK CFI INIT 20218 2e4 .cfa: sp 0 +
STACK CFI 2021c .cfa: sp 144 +
STACK CFI 20230 .cfa: x29 64 + x19: .cfa -8 + ^ x20: .cfa -16 + ^ x21: .cfa -24 + ^ x22: .cfa -32 + ^ x23: .cfa -48 + ^ .ra: .cfa -56 + ^ x29: .cfa -64 + ^
STACK CFI 203a8 .cfa: sp 144 +
STACK CFI 203bc .cfa: sp 0 +
STACK CFI 203c0 .cfa: x29 64 +
STACK CFI INIT 204fc 4f4 .cfa: sp 0 +
STACK CFI 20500 .cfa: sp 144 +
STACK CFI 20514 .cfa: x29 64 + x19: .cfa -8 + ^ x20: .cfa -16 + ^ x21: .cfa -24 + ^ x22: .cfa -32 + ^ x23: .cfa -48 + ^ .ra: .cfa -56 + ^ x29: .cfa -64 + ^
STACK CFI 20848 .cfa: sp 144 +
STACK CFI 2085c .cfa: sp 0 +
STACK CFI 20860 .cfa: x29 64 +
STACK CFI INIT 209f0 154 .cfa: sp 0 +
STACK CFI 209f4 .cfa: sp 384 +
STACK CFI 20a08 .cfa: x29 64 + x19: .cfa -8 + ^ x20: .cfa -16 + ^ x21: .cfa -24 + ^ x22: .cfa -32 + ^ x23: .cfa -40 + ^ x28: .cfa -48 + ^ .ra: .cfa -56 + ^ x29: .cfa -64 + ^
STACK CFI 20aec .cfa: sp 384 +
STACK CFI 20b00 .cfa: sp 0 +
STACK CFI 20b04 .cfa: x29 64 +
STACK CFI INIT 20b44 168 .cfa: sp 0 +
STACK CFI 20b48 .cfa: sp 384 +
STACK CFI 20b5c .cfa: x29 64 + x19: .cfa -8 + ^ x20: .cfa -16 + ^ x21: .cfa -24 + ^ x22: .cfa -32 + ^ x23: .cfa -40 + ^ x28: .cfa -48 + ^ .ra: .cfa -56 + ^ x29: .cfa -64 + ^
STACK CFI 20c54 .cfa: sp 384 +
STACK CFI 20c68 .cfa: sp 0 +
STACK CFI 20c6c .cfa: x29 64 +
STACK CFI INIT 20f7c 50c .cfa: sp 0 +
STACK CFI 20f80 .cfa: sp 64 +
STACK CFI 20f90 .cfa: x29 64 + x19: .cfa -8 + ^ x20: .cfa -16 + ^ x21: .cfa -24 + ^ x22: .cfa -32 + ^ x23: .cfa -40 + ^ x24: .cfa -48 + ^ .ra: .cfa -56 + ^ x29: .cfa -64 + ^
STACK CFI 210b0 .cfa: sp 64 +
STACK CFI 210c0 .cfa: sp 0 +
STACK CFI 210c4 .cfa: x29 64 +
STACK CFI 2145c .cfa: sp 64 +
STACK CFI 2146c .cfa: sp 0 +
STACK CFI 21470 .cfa: x29 64 +
STACK CFI INIT 21488 200 .cfa: sp 0 +
STACK CFI 2148c .cfa: sp 64 +
STACK CFI 2149c .cfa: x29 64 + x19: .cfa -8 + ^ x20: .cfa -16 + ^ x21: .cfa -24 + ^ x22: .cfa -32 + ^ x23: .cfa -40 + ^ x24: .cfa -48 + ^ .ra: .cfa -56 + ^ x29: .cfa -64 + ^
STACK CFI 21634 .cfa: sp 64 +
STACK CFI 21644 .cfa: sp 0 +
STACK CFI 21648 .cfa: x29 64 +
STACK CFI INIT 219b8 294 .cfa: sp 0 +
STACK CFI 219bc .cfa: sp 240 +
STACK CFI 219d4 .cfa: x29 80 + x19: .cfa -8 + ^ x20: .cfa -16 + ^ x21: .cfa -24 + ^ x22: .cfa -32 + ^ x23: .cfa -40 + ^ x24: .cfa -48 + ^ x25: .cfa -64 + ^ .ra: .cfa -72 + ^ x29: .cfa -80 + ^
STACK CFI 21b74 .cfa: sp 240 +
STACK CFI 21b8c .cfa: sp 0 +
STACK CFI 21b90 .cfa: x29 80 +
STACK CFI INIT 21cc8 50 .cfa: sp 0 +
STACK CFI 21ccc .cfa: sp 32 +
STACK CFI 21cd4 .cfa: x29 32 + x19: .cfa -8 + ^ x20: .cfa -16 + ^ .ra: .cfa -24 + ^ x29: .cfa -32 + ^
STACK CFI INIT 21d44 7c0 .cfa: sp 0 +
STACK CFI 21d48 .cfa: sp 320 +
STACK CFI 21d64 .cfa: x29 96 + x19: .cfa -8 + ^ x20: .cfa -16 + ^ x21: .cfa -24 + ^ x22: .cfa -32 + ^ x23: .cfa -40 + ^ x24: .cfa -48 + ^ x25: .cfa -56 + ^ x26: .cfa -64 + ^ x27: .cfa -72 + ^ x28: .cfa -80 + ^ .ra: .cfa -88 + ^ x29: .cfa -96 + ^
STACK CFI 223b4 .cfa: sp 320 +
STACK CFI 223d0 .cfa: sp 0 +
STACK CFI 223d4 .cfa: x29 96 +
STACK CFI INIT 26884 c74 .cfa: sp 0 +
STACK CFI 26888 .cfa: sp 96 +
STACK CFI 268a0 .cfa: x29 96 + x19: .cfa -8 + ^ x20: .cfa -16 + ^ x21: .cfa -24 + ^ x22: .cfa -32 + ^ x23: .cfa -40 + ^ x24: .cfa -48 + ^ x25: .cfa -56 + ^ x26: .cfa -64 + ^ x27: .cfa -72 + ^ x28: .cfa -80 + ^ .ra: .cfa -88 + ^ x29: .cfa -96 + ^
STACK CFI 27318 .cfa: sp 96 +
STACK CFI 27330 .cfa: sp 0 +
STACK CFI 27334 .cfa: x29 96 +
STACK CFI INIT 2764c 26c .cfa: sp 0 +
STACK CFI 27650 .cfa: sp 128 +
STACK CFI 27660 .cfa: x29 48 + x19: .cfa -8 + ^ x20: .cfa -16 + ^ x21: .cfa -24 + ^ x22: .cfa -32 + ^ .ra: .cfa -40 + ^ x29: .cfa -48 + ^
STACK CFI 27804 .cfa: sp 128 +
STACK CFI 27814 .cfa: sp 0 +
STACK CFI 27818 .cfa: x29 48 +
STACK CFI INIT 27e04 3b8 .cfa: sp 0 +
STACK CFI 27e08 .cfa: sp 96 +
STACK CFI 27e20 .cfa: x29 96 + x19: .cfa -8 + ^ x20: .cfa -16 + ^ x21: .cfa -24 + ^ x22: .cfa -32 + ^ x23: .cfa -40 + ^ x24: .cfa -48 + ^ x25: .cfa -56 + ^ x26: .cfa -64 + ^ x27: .cfa -72 + ^ x28: .cfa -80 + ^ .ra: .cfa -88 + ^ x29: .cfa -96 + ^
STACK CFI 2815c .cfa: sp 96 +
STACK CFI 28174 .cfa: sp 0 +
STACK CFI 28178 .cfa: x29 96 +
STACK CFI INIT 2825c cb4 .cfa: sp 0 +
STACK CFI 28260 .cfa: sp 96 +
STACK CFI 28278 .cfa: x29 96 + x19: .cfa -8 + ^ x20: .cfa -16 + ^ x21: .cfa -24 + ^ x22: .cfa -32 + ^ x23: .cfa -40 + ^ x24: .cfa -48 + ^ x25: .cfa -56 + ^ x26: .cfa -64 + ^ x27: .cfa -72 + ^ x28: .cfa -80 + ^ .ra: .cfa -88 + ^ x29: .cfa -96 + ^
STACK CFI 28d20 .cfa: sp 96 +
STACK CFI 28d38 .cfa: sp 0 +
STACK CFI 28d3c .cfa: x29 96 +
STACK CFI INIT 291f8 afc .cfa: sp 0 +
STACK CFI 291fc .cfa: sp 96 +
STACK CFI 29214 .cfa: x29 96 + x19: .cfa -8 + ^ x20: .cfa -16 + ^ x21: .cfa -24 + ^ x22: .cfa -32 + ^ x23: .cfa -40 + ^ x24: .cfa -48 + ^ x25: .cfa -56 + ^ x26: .cfa -64 + ^ x27: .cfa -72 + ^ x28: .cfa -80 + ^ .ra: .cfa -88 + ^ x29: .cfa -96 + ^
STACK CFI 29c68 .cfa: sp 96 +
STACK CFI 29c80 .cfa: sp 0 +
STACK CFI 29c84 .cfa: x29 96 +
STACK CFI INIT 29ed0 1430 .cfa: sp 0 +
STACK CFI 29ed4 .cfa: sp 96 +
STACK CFI 29eec .cfa: x29 96 + x19: .cfa -8 + ^ x20: .cfa -16 + ^ x21: .cfa -24 + ^ x22: .cfa -32 + ^ x23: .cfa -40 + ^ x24: .cfa -48 + ^ x25: .cfa -56 + ^ x26: .cfa -64 + ^ x27: .cfa -72 + ^ x28: .cfa -80 + ^ .ra: .cfa -88 + ^ x29: .cfa -96 + ^
STACK CFI 2b188 .cfa: sp 96 +
STACK CFI 2b1a0 .cfa: sp 0 +
STACK CFI 2b1a4 .cfa: x29 96 +
STACK CFI INIT 2b424 75c .cfa: sp 0 +
STACK CFI 2b428 .cfa: sp 368 +
STACK CFI 2b444 .cfa: x29 96 + x19: .cfa -8 + ^ x20: .cfa -16 + ^ x21: .cfa -24 + ^ x22: .cfa -32 + ^ x23: .cfa -40 + ^ x24: .cfa -48 + ^ x25: .cfa -56 + ^ x26: .cfa -64 + ^ x27: .cfa -72 + ^ x28: .cfa -80 + ^ .ra: .cfa -88 + ^ x29: .cfa -96 + ^
STACK CFI 2b4f8 .cfa: sp 368 +
STACK CFI 2b514 .cfa: sp 0 +
STACK CFI 2b518 .cfa: x29 96 +
STACK CFI 2b56c .cfa: sp 368 +
STACK CFI 2b588 .cfa: sp 0 +
STACK CFI 2b58c .cfa: x29 96 +
STACK CFI INIT 2bf40 eb0 .cfa: sp 0 +
STACK CFI 2bf44 .cfa: sp 96 +
STACK CFI 2bf5c .cfa: x29 96 + x19: .cfa -8 + ^ x20: .cfa -16 + ^ x21: .cfa -24 + ^ x22: .cfa -32 + ^ x23: .cfa -40 + ^ x24: .cfa -48 + ^ x25: .cfa -56 + ^ x26: .cfa -64 + ^ x27: .cfa -72 + ^ x28: .cfa -80 + ^ .ra: .cfa -88 + ^ x29: .cfa -96 + ^
STACK CFI 2cc04 .cfa: sp 96 +
STACK CFI 2cc1c .cfa: sp 0 +
STACK CFI 2cc20 .cfa: x29 96 +
STACK CFI INIT 2d164 1c9c .cfa: sp 0 +
STACK CFI 2d168 .cfa: sp 112 +
STACK CFI 2d184 .cfa: x29 96 + x19: .cfa -8 + ^ x20: .cfa -16 + ^ x21: .cfa -24 + ^ x22: .cfa -32 + ^ x23: .cfa -40 + ^ x24: .cfa -48 + ^ x25: .cfa -56 + ^ x26: .cfa -64 + ^ x27: .cfa -72 + ^ x28: .cfa -80 + ^ .ra: .cfa -88 + ^ x29: .cfa -96 + ^ v8: .cfa -112 + ^
STACK CFI 2d56c .cfa: sp 112 +
STACK CFI 2d588 .cfa: sp 0 +
STACK CFI 2d58c .cfa: x29 96 +
STACK CFI INIT 315c4 9a0 .cfa: sp 0 +
STACK CFI 315c8 .cfa: sp 144 +
STACK CFI 315e0 .cfa: x29 80 + x19: .cfa -8 + ^ x20: .cfa -16 + ^ x21: .cfa -24 + ^ x22: .cfa -32 + ^ x23: .cfa -40 + ^ x24: .cfa -48 + ^ x25: .cfa -64 + ^ .ra: .cfa -72 + ^ x29: .cfa -80 + ^
STACK CFI 31ee0 .cfa: sp 144 +
STACK CFI 31ef8 .cfa: sp 0 +
STACK CFI 31efc .cfa: x29 80 +
STACK CFI INIT 33488 57c .cfa: sp 0 +
STACK CFI 3348c .cfa: sp 96 +
STACK CFI 334a4 .cfa: x29 96 + x19: .cfa -8 + ^ x20: .cfa -16 + ^ x21: .cfa -24 + ^ x22: .cfa -32 + ^ x23: .cfa -40 + ^ x24: .cfa -48 + ^ x25: .cfa -56 + ^ x26: .cfa -64 + ^ x27: .cfa -72 + ^ x28: .cfa -80 + ^ .ra: .cfa -88 + ^ x29: .cfa -96 + ^
STACK CFI 33968 .cfa: sp 96 +
STACK CFI 33980 .cfa: sp 0 +
STACK CFI 33984 .cfa: x29 96 +
STACK CFI INIT 33a04 67c .cfa: sp 0 +
STACK CFI 33a08 .cfa: sp 96 +
STACK CFI 33a20 .cfa: x29 96 + x19: .cfa -8 + ^ x20: .cfa -16 + ^ x21: .cfa -24 + ^ x22: .cfa -32 + ^ x23: .cfa -40 + ^ x24: .cfa -48 + ^ x25: .cfa -56 + ^ x26: .cfa -64 + ^ x27: .cfa -72 + ^ x28: .cfa -80 + ^ .ra: .cfa -88 + ^ x29: .cfa -96 + ^
STACK CFI 33fe4 .cfa: sp 96 +
STACK CFI 33ffc .cfa: sp 0 +
STACK CFI 34000 .cfa: x29 96 +
