MODULE Linux arm64 67ED3CBE943555E52F1FF89AB81B446D0 thesillydoggo.qolmod.android64.so
INFO CODE_ID BE3CED673594E5552F1FF89AB81B446DAAF4A199
INFO GENERATOR mozilla/dump_syms 2.3.4
PUBLIC f83c0 0 __on_dlclose
PUBLIC f83d0 0 __emutls_unregister_key
PUBLIC f83d8 0 __on_dlclose_late
PUBLIC f83e0 0 __atexit_handler_wrapper
PUBLIC f83f4 0 atexit
PUBLIC f8410 0 pthread_atfork
PUBLIC f8420 0 __aarch64_ldadd8_relax
PUBLIC f8450 0 init_have_lse_atomics
PUBLIC f84e8 0 __init_cpu_features_constructor
PUBLIC f8a84 0 __init_cpu_features
PUBLIC f8b10 0 __aarch64_ldadd8_acq_rel
FUNC f8b40 5c 0 __cxx_global_var_init
FUNC f8b9c 5c 0 __cxx_global_var_init.1
FUNC f8bf8 18 0 std::__ndk1::vector<BlurLayer*, std::__ndk1::allocator<BlurLayer*> >::~vector[abi:ne180000]()
FUNC f8c10 4bc 0 __cxx_global_var_init.2
FUNC f90cc 150 0 std::__ndk1::vector<std::__ndk1::basic_string<char, std::__ndk1::char_traits<char>, std::__ndk1::allocator<char> >, std::__ndk1::allocator<std::__ndk1::basic_string<char, std::__ndk1::char_traits<char>, std::__ndk1::allocator<char> > > >::vector[abi:ne180000](std::initializer_list<std::__ndk1::basic_string<char, std::__ndk1::char_traits<char>, std::__ndk1::allocator<char> > >)
FUNC f921c 7c 0 std::__ndk1::vector<std::__ndk1::basic_string<char, std::__ndk1::char_traits<char>, std::__ndk1::allocator<char> >, std::__ndk1::allocator<std::__ndk1::basic_string<char, std::__ndk1::char_traits<char>, std::__ndk1::allocator<char> > > >::~vector[abi:ne180000]()
FUNC f9298 6c 0 __cxx_global_var_init.28
FUNC f9304 4c 0 std::__ndk1::unordered_map<unsigned long, bool, std::__ndk1::hash<unsigned long>, std::__ndk1::equal_to<unsigned long>, std::__ndk1::allocator<std::__ndk1::pair<unsigned long const, bool> > >::~unordered_map[abi:ne180000]()
FUNC f9350 338 0 Module::Module(std::__ndk1::basic_string<char, std::__ndk1::char_traits<char>, std::__ndk1::allocator<char> >, std::__ndk1::basic_string<char, std::__ndk1::char_traits<char>, std::__ndk1::allocator<char> >, std::__ndk1::basic_string<char, std::__ndk1::char_traits<char>, std::__ndk1::allocator<char> >, bool, std::__ndk1::basic_string<char, std::__ndk1::char_traits<char>, std::__ndk1::allocator<char> >, bool)
FUNC f9688 60 0 __cxx_global_var_init.31
FUNC f96e8 1c 0 geode::modifier::ModifyBase<geode::modifier::ModifyDerive<WindowMouseDispatcher, cocos2d::CCMouseDispatcher> >::~ModifyBase()
PUBLIC f9704 0 __clang_call_terminate
FUNC f9714 14 0 std::__ndk1::basic_string<char, std::__ndk1::char_traits<char>, std::__ndk1::allocator<char> >::__throw_length_error[abi:ne180000]() const
FUNC f9728 50 0 std::__ndk1::__throw_length_error[abi:ne180000](char const*)
FUNC f9778 30 0 std::length_error::length_error[abi:ne180000](char const*)
FUNC f97a8 34 0 std::__throw_bad_array_new_length([abi:ne180000], void)
FUNC f97dc 8c 0 std::__ndk1::__exception_guard_exceptions<std::__ndk1::vector<std::__ndk1::basic_string<char, std::__ndk1::char_traits<char>, std::__ndk1::allocator<char> >, std::__ndk1::allocator<std::__ndk1::basic_string<char, std::__ndk1::char_traits<char>, std::__ndk1::allocator<char> > > >::__destroy_vector>::~__exception_guard_exceptions[abi:ne180000]()
FUNC f9868 14 0 std::__ndk1::vector<std::__ndk1::basic_string<char, std::__ndk1::char_traits<char>, std::__ndk1::allocator<char> >, std::__ndk1::allocator<std::__ndk1::basic_string<char, std::__ndk1::char_traits<char>, std::__ndk1::allocator<char> > > >::__throw_length_error[abi:ne180000]() const
FUNC f987c 60 0 std::__ndk1::__exception_guard_exceptions<std::__ndk1::_AllocatorDestroyRangeReverse<std::__ndk1::allocator<std::__ndk1::basic_string<char, std::__ndk1::char_traits<char>, std::__ndk1::allocator<char> > >, std::__ndk1::basic_string<char, std::__ndk1::char_traits<char>, std::__ndk1::allocator<char> >*> >::~__exception_guard_exceptions[abi:ne180000]()
FUNC f98dc 70 0 std::__ndk1::basic_string<char, std::__ndk1::char_traits<char>, std::__ndk1::allocator<char> >::__init_copy_ctor_external(char const*, unsigned long)
FUNC f994c ac 0 std::__ndk1::basic_string<char, std::__ndk1::char_traits<char>, std::__ndk1::allocator<char> >::__assign_no_alias<true>(char const*, unsigned long)
FUNC f99f8 100 0 std::__ndk1::basic_string<char, std::__ndk1::char_traits<char>, std::__ndk1::allocator<char> >::__assign_no_alias<false>(char const*, unsigned long)
FUNC f9af8 14 0 std::__ndk1::vector<QOLModExt::ModuleExt*, std::__ndk1::allocator<QOLModExt::ModuleExt*> >::__throw_length_error[abi:ne180000]() const
FUNC f9b0c 14 0 std::__ndk1::vector<Module*, std::__ndk1::allocator<Module*> >::__throw_length_error[abi:ne180000]() const
FUNC f9b20 3c0 0 geode::modifier::ModifyBase<geode::modifier::ModifyDerive<WindowMouseDispatcher, cocos2d::CCMouseDispatcher> >::ModifyBase()
FUNC f9ee0 2f4 0 geode::modifier::ModifyDerive<WindowMouseDispatcher, cocos2d::CCMouseDispatcher>::apply()
FUNC fa1d4 50 0 std::__ndk1::shared_ptr<geode::Hook>::~shared_ptr[abi:ne180000]()
FUNC fa224 74 0 geode::impl::ResultData<geode::Hook*, std::__ndk1::basic_string<char, std::__ndk1::char_traits<char>, std::__ndk1::allocator<char> > >::~ResultData()
FUNC fa298 4 0 geode::modifier::ModifyBase<geode::modifier::ModifyDerive<WindowMouseDispatcher, cocos2d::CCMouseDispatcher> >::apply()
FUNC fa29c 154 0 _ZN5geode15UnwrapExceptionC2IRPNS_4HookEQsr4implE18IsStringStreamableIT_EEENS_4impl5OkTagEOS5_
FUNC fa3f0 34 0 std::__ndk1::__throw_bad_variant_access[abi:ne180000]()
FUNC fa424 124 0 std::__ndk1::basic_stringstream<char, std::__ndk1::char_traits<char>, std::__ndk1::allocator<char> >::basic_stringstream[abi:ne180000]()
FUNC fa548 80 0 std::__ndk1::basic_stringstream<char, std::__ndk1::char_traits<char>, std::__ndk1::allocator<char> >::~basic_stringstream()
FUNC fa5c8 24 0 geode::UnwrapException::~UnwrapException()
FUNC fa5ec 198 0 std::__ndk1::__put_character_sequence[abi:ne180000]<char, std::__ndk1::char_traits<char> >(std::__ndk1::basic_ostream<char, std::__ndk1::char_traits<char> >, std::__ndk1::basic_ostream const*, unsigned long)
FUNC fa784 1b4 0 std::__ndk1::__pad_and_output[abi:ne180000]<char, std::__ndk1::char_traits<char> >(std::__ndk1::char_traits<char>, std::__ndk1::ostreambuf_iterator const*, std::__ndk1::ostreambuf_iterator const, std::__ndk1::ostreambuf_iterator const, std::__ndk1::ios_base&, std::__ndk1::ostreambuf_iterator)
FUNC fa938 15c 0 std::__ndk1::basic_stringbuf<char, std::__ndk1::char_traits<char>, std::__ndk1::allocator<char> >::str[abi:ne180000]() &&
FUNC faa94 148 0 std::__ndk1::basic_stringbuf<char, std::__ndk1::char_traits<char>, std::__ndk1::allocator<char> >::__init_buf_ptrs[abi:ne180000]()
FUNC fabdc 21c 0 std::__ndk1::vector<std::__ndk1::basic_string<char, std::__ndk1::char_traits<char>, std::__ndk1::allocator<char> >, std::__ndk1::allocator<std::__ndk1::basic_string<char, std::__ndk1::char_traits<char>, std::__ndk1::allocator<char> > > >::__push_back_slow_path<std::__ndk1::basic_string<char, std::__ndk1::char_traits<char>, std::__ndk1::allocator<char> > const&>(std::__ndk1::basic_string<char, std::__ndk1::char_traits<char>, std::__ndk1::allocator<char> > const&)
FUNC fadf8 68 0 std::__ndk1::__split_buffer<std::__ndk1::basic_string<char, std::__ndk1::char_traits<char>, std::__ndk1::allocator<char> >, std::__ndk1::allocator<std::__ndk1::basic_string<char, std::__ndk1::char_traits<char>, std::__ndk1::allocator<char> > >&>::~__split_buffer()
FUNC fae60 4 0 std::__ndk1::__variant_detail::__visitation::__base::__dispatcher<(unsigned long)0>::__dispatch[abi:ne180000]<std::__ndk1::__variant_detail::__dtor<std::__ndk1::__variant_detail::__traits<geode::Hook*, std::__ndk1::basic_string<char, std::__ndk1::char_traits<char>, std::__ndk1::allocator<char> > >, (std::__ndk1::__variant_detail::_Trait)1>::__destroy[abi:ne180000]()::{lambda(auto:1&)#1}, std::__ndk1::__variant_detail::__base<(std::__ndk1::__variant_detail::__traits<geode::Hook*, std::__ndk1::basic_string<char, std::__ndk1::char_traits<char>, std::__ndk1::allocator<char> > >)1, geode::Hook, std::__ndk1::allocator<char> >&>(std::__ndk1::__variant_detail::__dtor<std::__ndk1::__variant_detail::__traits<geode::Hook*, std::__ndk1::basic_string<char, std::__ndk1::char_traits<char>, std::__ndk1::allocator<char> > >, (std::__ndk1::__variant_detail::_Trait)1>, std::__ndk1::__variant_detail::__base<(std::__ndk1::__variant_detail::__traits<geode::Hook*, std::__ndk1::basic_string<char, std::__ndk1::char_traits<char>, std::__ndk1::allocator<char> > >)1, geode::Hook, std::__ndk1::allocator<char> >&)
FUNC fae64 14 0 std::__ndk1::__variant_detail::__visitation::__base::__dispatcher<(unsigned long)1>::__dispatch[abi:ne180000]<std::__ndk1::__variant_detail::__dtor<std::__ndk1::__variant_detail::__traits<geode::Hook*, std::__ndk1::basic_string<char, std::__ndk1::char_traits<char>, std::__ndk1::allocator<char> > >, (std::__ndk1::__variant_detail::_Trait)1>::__destroy[abi:ne180000]()::{lambda(auto:1&)#1}, std::__ndk1::__variant_detail::__base<(std::__ndk1::__variant_detail::__traits<geode::Hook*, std::__ndk1::basic_string<char, std::__ndk1::char_traits<char>, std::__ndk1::allocator<char> > >)1, geode::Hook, std::__ndk1::allocator<char> >&>(std::__ndk1::__variant_detail::__dtor<std::__ndk1::__variant_detail::__traits<geode::Hook*, std::__ndk1::basic_string<char, std::__ndk1::char_traits<char>, std::__ndk1::allocator<char> > >, (std::__ndk1::__variant_detail::_Trait)1>, std::__ndk1::__variant_detail::__base<(std::__ndk1::__variant_detail::__traits<geode::Hook*, std::__ndk1::basic_string<char, std::__ndk1::char_traits<char>, std::__ndk1::allocator<char> > >)1, geode::Hook, std::__ndk1::allocator<char> >&)
FUNC fae78 fc 0 std::__ndk1::__tree<std::__ndk1::__value_type<std::__ndk1::basic_string<char, std::__ndk1::char_traits<char>, std::__ndk1::allocator<char> >, std::__ndk1::shared_ptr<geode::Hook> >, std::__ndk1::__map_value_compare<std::__ndk1::basic_string<char, std::__ndk1::char_traits<char>, std::__ndk1::allocator<char> >, std::__ndk1::__value_type<std::__ndk1::basic_string<char, std::__ndk1::char_traits<char>, std::__ndk1::allocator<char> >, std::__ndk1::shared_ptr<geode::Hook> >, std::__ndk1::less<std::__ndk1::basic_string<char, std::__ndk1::char_traits<char>, std::__ndk1::allocator<char> > >, true>, std::__ndk1::allocator<std::__ndk1::__value_type<std::__ndk1::basic_string<char, std::__ndk1::char_traits<char>, std::__ndk1::allocator<char> >, std::__ndk1::shared_ptr<geode::Hook> > > >::find<std::__ndk1::basic_string<char, std::__ndk1::char_traits<char>, std::__ndk1::allocator<char> > >(std::__ndk1::basic_string<char, std::__ndk1::char_traits<char>, std::__ndk1::allocator<char> > const&)
FUNC faf74 d4 0 std::__ndk1::__tree<std::__ndk1::__value_type<std::__ndk1::basic_string<char, std::__ndk1::char_traits<char>, std::__ndk1::allocator<char> >, std::__ndk1::shared_ptr<geode::Hook> >, std::__ndk1::__map_value_compare<std::__ndk1::basic_string<char, std::__ndk1::char_traits<char>, std::__ndk1::allocator<char> >, std::__ndk1::__value_type<std::__ndk1::basic_string<char, std::__ndk1::char_traits<char>, std::__ndk1::allocator<char> >, std::__ndk1::shared_ptr<geode::Hook> >, std::__ndk1::less<std::__ndk1::basic_string<char, std::__ndk1::char_traits<char>, std::__ndk1::allocator<char> > >, true>, std::__ndk1::allocator<std::__ndk1::__value_type<std::__ndk1::basic_string<char, std::__ndk1::char_traits<char>, std::__ndk1::allocator<char> >, std::__ndk1::shared_ptr<geode::Hook> > > >::erase(std::__ndk1::__tree_const_iterator<std::__ndk1::__value_type<std::__ndk1::basic_string<char, std::__ndk1::char_traits<char>, std::__ndk1::allocator<char> >, std::__ndk1::shared_ptr<geode::Hook> >, std::__ndk1::__tree_node<std::__ndk1::__value_type<std::__ndk1::basic_string<char, std::__ndk1::char_traits<char>, std::__ndk1::allocator<char> >, std::__ndk1::shared_ptr<geode::Hook> >, void*>*, long>)
FUNC fb048 388 0 std::__ndk1::__tree_remove[abi:ne180000]<std::__ndk1::__tree_node_base<void*>*>(std::__ndk1::__tree_node_base<void*>*, std::__ndk1::__tree_node_base<void*>*)
FUNC fb3d0 8c 0 std::__ndk1::__tree<std::__ndk1::__value_type<std::__ndk1::basic_string<char, std::__ndk1::char_traits<char>, std::__ndk1::allocator<char> >, std::__ndk1::shared_ptr<geode::Hook> >, std::__ndk1::__map_value_compare<std::__ndk1::basic_string<char, std::__ndk1::char_traits<char>, std::__ndk1::allocator<char> >, std::__ndk1::__value_type<std::__ndk1::basic_string<char, std::__ndk1::char_traits<char>, std::__ndk1::allocator<char> >, std::__ndk1::shared_ptr<geode::Hook> >, std::__ndk1::less<std::__ndk1::basic_string<char, std::__ndk1::char_traits<char>, std::__ndk1::allocator<char> > >, true>, std::__ndk1::allocator<std::__ndk1::__value_type<std::__ndk1::basic_string<char, std::__ndk1::char_traits<char>, std::__ndk1::allocator<char> >, std::__ndk1::shared_ptr<geode::Hook> > > >::destroy(std::__ndk1::__tree_node<std::__ndk1::__value_type<std::__ndk1::basic_string<char, std::__ndk1::char_traits<char>, std::__ndk1::allocator<char> >, std::__ndk1::shared_ptr<geode::Hook> >, void*>*)
FUNC fb45c 118 0 geode::Hook::create<bool (*)(WindowMouseDispatcher*, float, float)>(void*, bool (*)(WindowMouseDispatcher*, float, float), std::__ndk1::basic_string<char, std::__ndk1::char_traits<char>, std::__ndk1::allocator<char> > const&, tulip::hook::TulipConvention, tulip::hook::HookMetadata const&)
FUNC fb574 84 0 geode::modifier::AsStaticFunction_dispatchScrollMSG<WindowMouseDispatcher, bool (WindowMouseDispatcher::*)(float, float)>::Impl<bool (WindowMouseDispatcher::*)(float, float)>::function(WindowMouseDispatcher*, float, float)
FUNC fb5f8 fc 0 tulip::hook::AbstractFunction::from<bool, WindowMouseDispatcher*, float, float>(bool (*)(WindowMouseDispatcher*, float, float))
FUNC fb6f4 50 0 std::__ndk1::shared_ptr<tulip::hook::CallingConvention>::~shared_ptr[abi:ne180000]()
FUNC fb744 64 0 tulip::hook::HandlerMetadata::~HandlerMetadata()
FUNC fb7a8 14 0 std::__ndk1::vector<tulip::hook::AbstractType, std::__ndk1::allocator<tulip::hook::AbstractType> >::__throw_length_error[abi:ne180000]() const
FUNC fb7bc 104 0 std::__ndk1::__tree<std::__ndk1::__value_type<std::__ndk1::basic_string<char, std::__ndk1::char_traits<char>, std::__ndk1::allocator<char> >, std::__ndk1::shared_ptr<geode::Hook> >, std::__ndk1::__map_value_compare<std::__ndk1::basic_string<char, std::__ndk1::char_traits<char>, std::__ndk1::allocator<char> >, std::__ndk1::__value_type<std::__ndk1::basic_string<char, std::__ndk1::char_traits<char>, std::__ndk1::allocator<char> >, std::__ndk1::shared_ptr<geode::Hook> >, std::__ndk1::less<std::__ndk1::basic_string<char, std::__ndk1::char_traits<char>, std::__ndk1::allocator<char> > >, true>, std::__ndk1::allocator<std::__ndk1::__value_type<std::__ndk1::basic_string<char, std::__ndk1::char_traits<char>, std::__ndk1::allocator<char> >, std::__ndk1::shared_ptr<geode::Hook> > > >::__find_equal<std::__ndk1::basic_string<char, std::__ndk1::char_traits<char>, std::__ndk1::allocator<char> > >(std::__ndk1::__tree_end_node<std::__ndk1::__tree_node_base<void*>*>*&, std::__ndk1::basic_string<char, std::__ndk1::char_traits<char>, std::__ndk1::allocator<char> > const&)
FUNC fb8c0 19c 0 std::__ndk1::__tree_balance_after_insert[abi:ne180000]<std::__ndk1::__tree_node_base<void*>*>(std::__ndk1::__tree_node_base<void*>*, std::__ndk1::__tree_node_base<void*>*)
FUNC fba5c 9e0 0 geodeExecFunction48<(anonymous namespace)::ExecFuncUnique48>()::{lambda(QOLModExt::PushWindowEvent*)#1}::__invoke(QOLModExt::PushWindowEvent*)
FUNC fc43c 14 0 std::__ndk1::vector<Window*, std::__ndk1::allocator<Window*> >::__throw_length_error[abi:ne180000]() const
FUNC fc450 4 0 geode::EventListener<geode::EventFilter<QOLModExt::PushWindowEvent> >::getPool() const
FUNC fc454 1a0 0 geode::EventListener<geode::EventFilter<QOLModExt::PushWindowEvent> >::handle(geode::Event*)
FUNC fc5f4 5c 0 geode::EventListener<geode::EventFilter<QOLModExt::PushWindowEvent> >::~EventListener()
FUNC fc650 64 0 geode::EventListener<geode::EventFilter<QOLModExt::PushWindowEvent> >::~EventListener()
FUNC fc6b4 4 0 std::__ndk1::__function::__base<geode::ListenerResult(QOLModExt::PushWindowEvent*)>::~__base()
FUNC fc6b8 4 0 std::__ndk1::__function::__func<geode::ListenerResult (*)(QOLModExt::PushWindowEvent*), std::__ndk1::allocator<geode::ListenerResult (*)(QOLModExt::PushWindowEvent*)>, geode::ListenerResult(QOLModExt::PushWindowEvent*)>::~__func()
FUNC fc6bc 34 0 std::__ndk1::__function::__func<geode::ListenerResult (*)(QOLModExt::PushWindowEvent*), std::__ndk1::allocator<geode::ListenerResult (*)(QOLModExt::PushWindowEvent*)>, geode::ListenerResult(QOLModExt::PushWindowEvent*)>::__clone() const
FUNC fc6f0 14 0 std::__ndk1::__function::__func<geode::ListenerResult (*)(QOLModExt::PushWindowEvent*), std::__ndk1::allocator<geode::ListenerResult (*)(QOLModExt::PushWindowEvent*)>, geode::ListenerResult(QOLModExt::PushWindowEvent*)>::__clone(std::__ndk1::__function::__base<geode::ListenerResult(QOLModExt::PushWindowEvent*)>*) const
FUNC fc704 4 0 std::__ndk1::__function::__func<geode::ListenerResult (*)(QOLModExt::PushWindowEvent*), std::__ndk1::allocator<geode::ListenerResult (*)(QOLModExt::PushWindowEvent*)>, geode::ListenerResult(QOLModExt::PushWindowEvent*)>::destroy()
FUNC fc708 4 0 std::__ndk1::__function::__func<geode::ListenerResult (*)(QOLModExt::PushWindowEvent*), std::__ndk1::allocator<geode::ListenerResult (*)(QOLModExt::PushWindowEvent*)>, geode::ListenerResult(QOLModExt::PushWindowEvent*)>::destroy_deallocate()
FUNC fc70c 10 0 std::__ndk1::__function::__func<geode::ListenerResult (*)(QOLModExt::PushWindowEvent*), std::__ndk1::allocator<geode::ListenerResult (*)(QOLModExt::PushWindowEvent*)>, geode::ListenerResult(QOLModExt::PushWindowEvent*)>::operator()(QOLModExt::PushWindowEvent*&&)
FUNC fc71c 1c 0 std::__ndk1::__function::__func<geode::ListenerResult (*)(QOLModExt::PushWindowEvent*), std::__ndk1::allocator<geode::ListenerResult (*)(QOLModExt::PushWindowEvent*)>, geode::ListenerResult(QOLModExt::PushWindowEvent*)>::target(std::type_info const&) const
FUNC fc738 c 0 std::__ndk1::__function::__func<geode::ListenerResult (*)(QOLModExt::PushWindowEvent*), std::__ndk1::allocator<geode::ListenerResult (*)(QOLModExt::PushWindowEvent*)>, geode::ListenerResult(QOLModExt::PushWindowEvent*)>::target_type() const
FUNC fc744 e4 0 geode::cast::traverseTypeinfoFor(void*, geode::cast::ClassTypeinfoType const*, char const*)
FUNC fc828 34 0 std::__ndk1::__throw_bad_function_call[abi:ne180000]()
FUNC fc85c 24 0 std::__ndk1::bad_function_call::~bad_function_call()
FUNC fc880 b8 0 geodeExecFunction48<(anonymous namespace)::ExecFuncUnique48>()::{lambda(QOLModExt::ToggleModuleEvent*)#1}::__invoke(QOLModExt::ToggleModuleEvent*)
FUNC fc938 4 0 geode::EventListener<geode::EventFilter<QOLModExt::ToggleModuleEvent> >::getPool() const
FUNC fc93c 1a0 0 geode::EventListener<geode::EventFilter<QOLModExt::ToggleModuleEvent> >::handle(geode::Event*)
FUNC fcadc 5c 0 geode::EventListener<geode::EventFilter<QOLModExt::ToggleModuleEvent> >::~EventListener()
FUNC fcb38 64 0 geode::EventListener<geode::EventFilter<QOLModExt::ToggleModuleEvent> >::~EventListener()
FUNC fcb9c 4 0 std::__ndk1::__function::__base<geode::ListenerResult(QOLModExt::ToggleModuleEvent*)>::~__base()
FUNC fcba0 4 0 std::__ndk1::__function::__func<geode::ListenerResult (*)(QOLModExt::ToggleModuleEvent*), std::__ndk1::allocator<geode::ListenerResult (*)(QOLModExt::ToggleModuleEvent*)>, geode::ListenerResult(QOLModExt::ToggleModuleEvent*)>::~__func()
FUNC fcba4 34 0 std::__ndk1::__function::__func<geode::ListenerResult (*)(QOLModExt::ToggleModuleEvent*), std::__ndk1::allocator<geode::ListenerResult (*)(QOLModExt::ToggleModuleEvent*)>, geode::ListenerResult(QOLModExt::ToggleModuleEvent*)>::__clone() const
FUNC fcbd8 14 0 std::__ndk1::__function::__func<geode::ListenerResult (*)(QOLModExt::ToggleModuleEvent*), std::__ndk1::allocator<geode::ListenerResult (*)(QOLModExt::ToggleModuleEvent*)>, geode::ListenerResult(QOLModExt::ToggleModuleEvent*)>::__clone(std::__ndk1::__function::__base<geode::ListenerResult(QOLModExt::ToggleModuleEvent*)>*) const
FUNC fcbec 4 0 std::__ndk1::__function::__func<geode::ListenerResult (*)(QOLModExt::ToggleModuleEvent*), std::__ndk1::allocator<geode::ListenerResult (*)(QOLModExt::ToggleModuleEvent*)>, geode::ListenerResult(QOLModExt::ToggleModuleEvent*)>::destroy()
FUNC fcbf0 4 0 std::__ndk1::__function::__func<geode::ListenerResult (*)(QOLModExt::ToggleModuleEvent*), std::__ndk1::allocator<geode::ListenerResult (*)(QOLModExt::ToggleModuleEvent*)>, geode::ListenerResult(QOLModExt::ToggleModuleEvent*)>::destroy_deallocate()
FUNC fcbf4 10 0 std::__ndk1::__function::__func<geode::ListenerResult (*)(QOLModExt::ToggleModuleEvent*), std::__ndk1::allocator<geode::ListenerResult (*)(QOLModExt::ToggleModuleEvent*)>, geode::ListenerResult(QOLModExt::ToggleModuleEvent*)>::operator()(QOLModExt::ToggleModuleEvent*&&)
FUNC fcc04 1c 0 std::__ndk1::__function::__func<geode::ListenerResult (*)(QOLModExt::ToggleModuleEvent*), std::__ndk1::allocator<geode::ListenerResult (*)(QOLModExt::ToggleModuleEvent*)>, geode::ListenerResult(QOLModExt::ToggleModuleEvent*)>::target(std::type_info const&) const
FUNC fcc20 c 0 std::__ndk1::__function::__func<geode::ListenerResult (*)(QOLModExt::ToggleModuleEvent*), std::__ndk1::allocator<geode::ListenerResult (*)(QOLModExt::ToggleModuleEvent*)>, geode::ListenerResult(QOLModExt::ToggleModuleEvent*)>::target_type() const
FUNC fcc2c 1fc 0 geodeExecFunction48<(anonymous namespace)::ExecFuncUnique48>()::{lambda(QOLModExt::CommentEmojisOverrideLabelCreatePrivateEventPleaseDoNotUseOrIWillTouchYou*)#1}::__invoke(QOLModExt::CommentEmojisOverrideLabelCreatePrivateEventPleaseDoNotUseOrIWillTouchYou*)
FUNC fce28 4 0 geode::EventListener<geode::EventFilter<QOLModExt::CommentEmojisOverrideLabelCreatePrivateEventPleaseDoNotUseOrIWillTouchYou> >::getPool() const
FUNC fce2c 1a0 0 geode::EventListener<geode::EventFilter<QOLModExt::CommentEmojisOverrideLabelCreatePrivateEventPleaseDoNotUseOrIWillTouchYou> >::handle(geode::Event*)
FUNC fcfcc 5c 0 geode::EventListener<geode::EventFilter<QOLModExt::CommentEmojisOverrideLabelCreatePrivateEventPleaseDoNotUseOrIWillTouchYou> >::~EventListener()
FUNC fd028 64 0 geode::EventListener<geode::EventFilter<QOLModExt::CommentEmojisOverrideLabelCreatePrivateEventPleaseDoNotUseOrIWillTouchYou> >::~EventListener()
FUNC fd08c 4 0 std::__ndk1::__function::__base<geode::ListenerResult(QOLModExt::CommentEmojisOverrideLabelCreatePrivateEventPleaseDoNotUseOrIWillTouchYou*)>::~__base()
FUNC fd090 4 0 std::__ndk1::__function::__func<geode::ListenerResult (*)(QOLModExt::CommentEmojisOverrideLabelCreatePrivateEventPleaseDoNotUseOrIWillTouchYou*), std::__ndk1::allocator<geode::ListenerResult (*)(QOLModExt::CommentEmojisOverrideLabelCreatePrivateEventPleaseDoNotUseOrIWillTouchYou*)>, geode::ListenerResult(QOLModExt::CommentEmojisOverrideLabelCreatePrivateEventPleaseDoNotUseOrIWillTouchYou*)>::~__func()
FUNC fd094 34 0 std::__ndk1::__function::__func<geode::ListenerResult (*)(QOLModExt::CommentEmojisOverrideLabelCreatePrivateEventPleaseDoNotUseOrIWillTouchYou*), std::__ndk1::allocator<geode::ListenerResult (*)(QOLModExt::CommentEmojisOverrideLabelCreatePrivateEventPleaseDoNotUseOrIWillTouchYou*)>, geode::ListenerResult(QOLModExt::CommentEmojisOverrideLabelCreatePrivateEventPleaseDoNotUseOrIWillTouchYou*)>::__clone() const
FUNC fd0c8 14 0 std::__ndk1::__function::__func<geode::ListenerResult (*)(QOLModExt::CommentEmojisOverrideLabelCreatePrivateEventPleaseDoNotUseOrIWillTouchYou*), std::__ndk1::allocator<geode::ListenerResult (*)(QOLModExt::CommentEmojisOverrideLabelCreatePrivateEventPleaseDoNotUseOrIWillTouchYou*)>, geode::ListenerResult(QOLModExt::CommentEmojisOverrideLabelCreatePrivateEventPleaseDoNotUseOrIWillTouchYou*)>::__clone(std::__ndk1::__function::__base<geode::ListenerResult(QOLModExt::CommentEmojisOverrideLabelCreatePrivateEventPleaseDoNotUseOrIWillTouchYou*)>*) const
FUNC fd0dc 4 0 std::__ndk1::__function::__func<geode::ListenerResult (*)(QOLModExt::CommentEmojisOverrideLabelCreatePrivateEventPleaseDoNotUseOrIWillTouchYou*), std::__ndk1::allocator<geode::ListenerResult (*)(QOLModExt::CommentEmojisOverrideLabelCreatePrivateEventPleaseDoNotUseOrIWillTouchYou*)>, geode::ListenerResult(QOLModExt::CommentEmojisOverrideLabelCreatePrivateEventPleaseDoNotUseOrIWillTouchYou*)>::destroy()
FUNC fd0e0 4 0 std::__ndk1::__function::__func<geode::ListenerResult (*)(QOLModExt::CommentEmojisOverrideLabelCreatePrivateEventPleaseDoNotUseOrIWillTouchYou*), std::__ndk1::allocator<geode::ListenerResult (*)(QOLModExt::CommentEmojisOverrideLabelCreatePrivateEventPleaseDoNotUseOrIWillTouchYou*)>, geode::ListenerResult(QOLModExt::CommentEmojisOverrideLabelCreatePrivateEventPleaseDoNotUseOrIWillTouchYou*)>::destroy_deallocate()
FUNC fd0e4 10 0 std::__ndk1::__function::__func<geode::ListenerResult (*)(QOLModExt::CommentEmojisOverrideLabelCreatePrivateEventPleaseDoNotUseOrIWillTouchYou*), std::__ndk1::allocator<geode::ListenerResult (*)(QOLModExt::CommentEmojisOverrideLabelCreatePrivateEventPleaseDoNotUseOrIWillTouchYou*)>, geode::ListenerResult(QOLModExt::CommentEmojisOverrideLabelCreatePrivateEventPleaseDoNotUseOrIWillTouchYou*)>::operator()(QOLModExt::CommentEmojisOverrideLabelCreatePrivateEventPleaseDoNotUseOrIWillTouchYou*&&)
FUNC fd0f4 1c 0 std::__ndk1::__function::__func<geode::ListenerResult (*)(QOLModExt::CommentEmojisOverrideLabelCreatePrivateEventPleaseDoNotUseOrIWillTouchYou*), std::__ndk1::allocator<geode::ListenerResult (*)(QOLModExt::CommentEmojisOverrideLabelCreatePrivateEventPleaseDoNotUseOrIWillTouchYou*)>, geode::ListenerResult(QOLModExt::CommentEmojisOverrideLabelCreatePrivateEventPleaseDoNotUseOrIWillTouchYou*)>::target(std::type_info const&) const
FUNC fd110 c 0 std::__ndk1::__function::__func<geode::ListenerResult (*)(QOLModExt::CommentEmojisOverrideLabelCreatePrivateEventPleaseDoNotUseOrIWillTouchYou*), std::__ndk1::allocator<geode::ListenerResult (*)(QOLModExt::CommentEmojisOverrideLabelCreatePrivateEventPleaseDoNotUseOrIWillTouchYou*)>, geode::ListenerResult(QOLModExt::CommentEmojisOverrideLabelCreatePrivateEventPleaseDoNotUseOrIWillTouchYou*)>::target_type() const
FUNC fd11c 134 0 _GLOBAL__sub_I_QOLModExt.cpp
FUNC fd250 5c 0 __cxx_global_var_init.29
FUNC fd2ac 18 0 std::__ndk1::vector<TransLabelBMFont*, std::__ndk1::allocator<TransLabelBMFont*> >::~vector[abi:ne180000]()
FUNC fd2c4 5c 0 __cxx_global_var_init.30
FUNC fd320 18 0 std::__ndk1::vector<cocos2d::CCNode*, std::__ndk1::allocator<cocos2d::CCNode*> >::~vector[abi:ne180000]()
FUNC fd338 60 0 __cxx_global_var_init.31
FUNC fd398 20 0 geode::Ref<cocos2d::CCSprite>::~Ref()
FUNC fd3b8 5c 0 __cxx_global_var_init.32
FUNC fd414 18 0 std::__ndk1::vector<cocos2d::extension::CCScale9Sprite*, std::__ndk1::allocator<cocos2d::extension::CCScale9Sprite*> >::~vector[abi:ne180000]()
FUNC fd42c 5c 0 __cxx_global_var_init.33
FUNC fd488 18 0 std::__ndk1::vector<CCMenuItemSpriteExtra*, std::__ndk1::allocator<CCMenuItemSpriteExtra*> >::~vector[abi:ne180000]()
FUNC fd4a0 5c 0 __cxx_global_var_init.34
FUNC fd4fc 5c 0 __cxx_global_var_init.35
FUNC fd558 7c 0 std::__ndk1::vector<std::__ndk1::vector<cocos2d::CCNode*, std::__ndk1::allocator<cocos2d::CCNode*> >, std::__ndk1::allocator<std::__ndk1::vector<cocos2d::CCNode*, std::__ndk1::allocator<cocos2d::CCNode*> > > >::~vector[abi:ne180000]()
FUNC fd5d4 c4 0 __cxx_global_var_init.36
FUNC fd698 294 0 AndroidBall::init()
FUNC fd92c aa0 0 AndroidBall::UpdateVisible(bool)
FUNC fe3cc 17c 0 AndroidBall::_ccTouchBegan(cocos2d::CCTouch*, cocos2d::CCEvent*)
FUNC fe548 1a8 0 AndroidBall::_ccTouchEnded(cocos2d::CCTouch*, cocos2d::CCEvent*)
FUNC fe6f0 30 0 geode::Mod::get<void>()
FUNC fe720 e0 0 geode::Mod::setSavedValue<float>(std::__ndk1::basic_string_view<char, std::__ndk1::char_traits<char> >, float const&)
FUNC fe800 134 0 AndroidBall::_ccTouchMoved(cocos2d::CCTouch*, cocos2d::CCEvent*)
FUNC fe934 8 0 AndroidBall::update(float)
FUNC fe93c 154 0 cocos2d::CCNode::getChildByType<PauseLayer, PauseLayer>(int)
FUNC fea90 154 0 cocos2d::CCNode::getChildByType<LevelEditorLayer, LevelEditorLayer>(int)
FUNC febe4 1d0 0 geode::Mod::getSavedValue<int>(std::__ndk1::basic_string_view<char, std::__ndk1::char_traits<char> >, int const&)
FUNC fedb4 48 0 AndroidBall::~AndroidBall()
FUNC fedfc 50 0 {virtual override thunk({offset(-320)}, AndroidBall::~AndroidBall())}
FUNC fee4c 68 0 AndroidBall::~AndroidBall()
FUNC feeb4 68 0 {virtual override thunk({offset(-320)}, AndroidBall::~AndroidBall())}
FUNC fef1c 1e0 0 geode::Mod::getSavedValue<bool>(std::__ndk1::basic_string_view<char, std::__ndk1::char_traits<char> >, bool const&)
FUNC ff0fc 1e8 0 AndroidBall::setColonThreeEnabled()
FUNC ff2e4 d0 0 geode::Mod::setSavedValue<bool>(std::__ndk1::basic_string_view<char, std::__ndk1::char_traits<char> >, bool const&)
FUNC ff3b4 c8 0 QOLModTouchDispatcher::touches(cocos2d::CCSet*, cocos2d::CCEvent*, unsigned int)
FUNC ff47c 8 0 cocos2d::CCCopying::copyWithZone(cocos2d::CCZone*)
FUNC ff484 4 0 cocos2d::CCKeyboardDelegate::keyUp(cocos2d::enumKeyCodes)
FUNC ff488 4 0 cocos2d::CCMouseDelegate::rightKeyDown()
FUNC ff48c 4 0 cocos2d::CCMouseDelegate::rightKeyUp()
FUNC ff490 4 0 cocos2d::CCMouseDelegate::scrollWheel(float, float)
FUNC ff494 60 0 __cxx_global_var_init.50
FUNC ff4f4 1c 0 geode::modifier::ModifyBase<geode::modifier::ModifyDerive<SafePlayLayer, PlayLayer> >::~ModifyBase()
FUNC ff510 60 0 __cxx_global_var_init.51
FUNC ff570 1c 0 geode::modifier::ModifyBase<geode::modifier::ModifyDerive<SafeGJGameLevel, GJGameLevel> >::~ModifyBase()
FUNC ff58c 60 0 __cxx_global_var_init.52
FUNC ff5ec 1c 0 geode::modifier::ModifyBase<geode::modifier::ModifyDerive<SafeEndLevelLayer, EndLevelLayer> >::~ModifyBase()
FUNC ff608 60 0 __cxx_global_var_init.53
FUNC ff668 1c 0 geode::modifier::ModifyBase<geode::modifier::ModifyDerive<QOLModTouchDispatcher, cocos2d::CCTouchDispatcher> >::~ModifyBase()
FUNC ff684 400 0 __cxx_global_var_init.54
FUNC ffa84 400 0 __cxx_global_var_init.55
FUNC ffe84 1c 0 geode::modifier::ModifyBase<geode::modifier::ModifyDerive<hook270<(anonymous namespace)::hook270Parent>, cocos2d::CCScene> >::~ModifyBase()
FUNC ffea0 1c 0 geode::modifier::ModifyBase<geode::modifier::ModifyDerive<hook290<(anonymous namespace)::hook290Parent>, AppDelegate> >::~ModifyBase()
FUNC ffebc 124 0 ColourUtility::hsvToRgb(cocos2d::_ccHSVValue const&)
FUNC fffe0 7c 0 std::__ndk1::unique_ptr<std::__ndk1::__tree_node<std::__ndk1::__value_type<std::__ndk1::basic_string<char, std::__ndk1::char_traits<char>, std::__ndk1::allocator<char> >, std::__ndk1::shared_ptr<geode::Hook> >, void*>, std::__ndk1::__tree_node_destructor<std::__ndk1::allocator<std::__ndk1::__tree_node<std::__ndk1::__value_type<std::__ndk1::basic_string<char, std::__ndk1::char_traits<char>, std::__ndk1::allocator<char> >, std::__ndk1::shared_ptr<geode::Hook> >, void*> > > >::~unique_ptr[abi:ne180000]()
FUNC 10005c 3c0 0 geode::modifier::ModifyBase<geode::modifier::ModifyDerive<SafePlayLayer, PlayLayer> >::ModifyBase()
FUNC 10041c 964 0 geode::modifier::ModifyDerive<SafePlayLayer, PlayLayer>::apply()
FUNC 100d80 4 0 geode::modifier::ModifyBase<geode::modifier::ModifyDerive<SafePlayLayer, PlayLayer> >::apply()
FUNC 100d84 118 0 geode::Hook::create<bool (*)(SafePlayLayer*, GJGameLevel*, bool, bool)>(void*, bool (*)(SafePlayLayer*, GJGameLevel*, bool, bool), std::__ndk1::basic_string<char, std::__ndk1::char_traits<char>, std::__ndk1::allocator<char> > const&, tulip::hook::TulipConvention, tulip::hook::HookMetadata const&)
FUNC 100e9c 4 0 geode::modifier::AsStaticFunction_init<SafePlayLayer, bool (SafePlayLayer::*)(GJGameLevel*, bool, bool)>::Impl<bool (SafePlayLayer::*)(GJGameLevel*, bool, bool)>::function(SafePlayLayer*, GJGameLevel*, bool, bool)
FUNC 100ea0 134 0 geode::Hook::create<void (*)(SafePlayLayer*)>(void*, void (*)(SafePlayLayer*), std::__ndk1::basic_string<char, std::__ndk1::char_traits<char>, std::__ndk1::allocator<char> > const&, tulip::hook::TulipConvention, tulip::hook::HookMetadata const&)
FUNC 100fd4 4 0 geode::modifier::AsStaticFunction_levelComplete<SafePlayLayer, void (SafePlayLayer::*)()>::Impl<void (SafePlayLayer::*)()>::function(SafePlayLayer*)
FUNC 100fd8 6c 0 geode::modifier::AsStaticFunction_resetLevel<SafePlayLayer, void (SafePlayLayer::*)()>::Impl<void (SafePlayLayer::*)()>::function(SafePlayLayer*)
FUNC 101044 118 0 geode::Hook::create<void (*)(SafePlayLayer*, bool, int, int, bool, bool, bool)>(void*, void (*)(SafePlayLayer*, bool, int, int, bool, bool, bool), std::__ndk1::basic_string<char, std::__ndk1::char_traits<char>, std::__ndk1::allocator<char> > const&, tulip::hook::TulipConvention, tulip::hook::HookMetadata const&)
FUNC 10115c 4 0 geode::modifier::AsStaticFunction_showNewBest<SafePlayLayer, void (SafePlayLayer::*)(bool, int, int, bool, bool, bool)>::Impl<void (SafePlayLayer::*)(bool, int, int, bool, bool, bool)>::function(SafePlayLayer*, bool, int, int, bool, bool, bool)
FUNC 101160 2a0 0 tulip::hook::AbstractFunction::from<bool, SafePlayLayer*, GJGameLevel*, bool, bool>(bool (*)(SafePlayLayer*, GJGameLevel*, bool, bool))
FUNC 101400 540 0 tulip::hook::AbstractFunction::from<void, SafePlayLayer*, bool, int, int, bool, bool, bool>(void (*)(SafePlayLayer*, bool, int, int, bool, bool, bool))
FUNC 101940 3c0 0 geode::modifier::ModifyBase<geode::modifier::ModifyDerive<SafeGJGameLevel, GJGameLevel> >::ModifyBase()
FUNC 101d00 2f0 0 geode::modifier::ModifyDerive<SafeGJGameLevel, GJGameLevel>::apply()
FUNC 101ff0 4 0 geode::modifier::ModifyBase<geode::modifier::ModifyDerive<SafeGJGameLevel, GJGameLevel> >::apply()
FUNC 101ff4 118 0 geode::Hook::create<void (*)(SafeGJGameLevel*, int, bool, int, int, bool)>(void*, void (*)(SafeGJGameLevel*, int, bool, int, int, bool), std::__ndk1::basic_string<char, std::__ndk1::char_traits<char>, std::__ndk1::allocator<char> > const&, tulip::hook::TulipConvention, tulip::hook::HookMetadata const&)
FUNC 10210c 4 0 geode::modifier::AsStaticFunction_savePercentage<SafeGJGameLevel, void (SafeGJGameLevel::*)(int, bool, int, int, bool)>::Impl<void (SafeGJGameLevel::*)(int, bool, int, int, bool)>::function(SafeGJGameLevel*, int, bool, int, int, bool)
FUNC 102110 45c 0 tulip::hook::AbstractFunction::from<void, SafeGJGameLevel*, int, bool, int, int, bool>(void (*)(SafeGJGameLevel*, int, bool, int, int, bool))
FUNC 10256c 3c0 0 geode::modifier::ModifyBase<geode::modifier::ModifyDerive<SafeEndLevelLayer, EndLevelLayer> >::ModifyBase()
FUNC 10292c 2f0 0 geode::modifier::ModifyDerive<SafeEndLevelLayer, EndLevelLayer>::apply()
FUNC 102c1c 4 0 geode::modifier::ModifyBase<geode::modifier::ModifyDerive<SafeEndLevelLayer, EndLevelLayer> >::apply()
FUNC 102c20 6c 0 geode::addresser::getVirtual<void (EndLevelLayer::*)()>(void (EndLevelLayer::*)())
FUNC 102c8c 134 0 geode::Hook::create<void (*)(SafeEndLevelLayer*)>(void*, void (*)(SafeEndLevelLayer*), std::__ndk1::basic_string<char, std::__ndk1::char_traits<char>, std::__ndk1::allocator<char> > const&, tulip::hook::TulipConvention, tulip::hook::HookMetadata const&)
FUNC 102dc0 4 0 geode::modifier::AsStaticFunction_customSetup<SafeEndLevelLayer, void (SafeEndLevelLayer::*)()>::Impl<void (SafeEndLevelLayer::*)()>::function(SafeEndLevelLayer*)
FUNC 102dc4 8c 0 _ZN5geode9addresser9Addresser14cachedInstanceI13EndLevelLayerEEPT_vQ18HasZeroConstructorIS4_E
FUNC 102e50 90 0 EndLevelLayer::EndLevelLayer(geode::ZeroConstructorType)
FUNC 102ee0 184 0 geode::Mod::getSavedValue<bool>(std::__ndk1::basic_string_view<char, std::__ndk1::char_traits<char> >)
FUNC 103064 74 0 geode::impl::ResultData<matjson::Value&, std::__ndk1::basic_string<char, std::__ndk1::char_traits<char>, std::__ndk1::allocator<char> > >::~ResultData()
FUNC 1030d8 168 0 _ZN5geode15UnwrapExceptionC2IRNSt6__ndk112basic_stringIcNS2_11char_traitsIcEENS2_9allocatorIcEEEEQsr4implE18IsStringStreamableIT_EEENS_4impl6ErrTagEOSA_
FUNC 103240 4 0 std::__ndk1::__variant_detail::__visitation::__base::__dispatcher<(unsigned long)0>::__dispatch[abi:ne180000]<std::__ndk1::__variant_detail::__dtor<std::__ndk1::__variant_detail::__traits<std::__ndk1::reference_wrapper<matjson::Value>, std::__ndk1::basic_string<char, std::__ndk1::char_traits<char>, std::__ndk1::allocator<char> > >, (std::__ndk1::__variant_detail::_Trait)1>::__destroy[abi:ne180000]()::{lambda(auto:1&)#1}, std::__ndk1::__variant_detail::__base<(std::__ndk1::__variant_detail::__traits<std::__ndk1::reference_wrapper<matjson::Value>, std::__ndk1::basic_string<char, std::__ndk1::char_traits<char>, std::__ndk1::allocator<char> > >)1, matjson::Value, std::__ndk1::allocator<char> >&>(std::__ndk1::__variant_detail::__dtor<std::__ndk1::__variant_detail::__traits<std::__ndk1::reference_wrapper<matjson::Value>, std::__ndk1::basic_string<char, std::__ndk1::char_traits<char>, std::__ndk1::allocator<char> > >, (std::__ndk1::__variant_detail::_Trait)1>, std::__ndk1::__variant_detail::__base<(std::__ndk1::__variant_detail::__traits<std::__ndk1::reference_wrapper<matjson::Value>, std::__ndk1::basic_string<char, std::__ndk1::char_traits<char>, std::__ndk1::allocator<char> > >)1, matjson::Value, std::__ndk1::allocator<char> >&)
FUNC 103244 14 0 std::__ndk1::__variant_detail::__visitation::__base::__dispatcher<(unsigned long)1>::__dispatch[abi:ne180000]<std::__ndk1::__variant_detail::__dtor<std::__ndk1::__variant_detail::__traits<std::__ndk1::reference_wrapper<matjson::Value>, std::__ndk1::basic_string<char, std::__ndk1::char_traits<char>, std::__ndk1::allocator<char> > >, (std::__ndk1::__variant_detail::_Trait)1>::__destroy[abi:ne180000]()::{lambda(auto:1&)#1}, std::__ndk1::__variant_detail::__base<(std::__ndk1::__variant_detail::__traits<std::__ndk1::reference_wrapper<matjson::Value>, std::__ndk1::basic_string<char, std::__ndk1::char_traits<char>, std::__ndk1::allocator<char> > >)1, matjson::Value, std::__ndk1::allocator<char> >&>(std::__ndk1::__variant_detail::__dtor<std::__ndk1::__variant_detail::__traits<std::__ndk1::reference_wrapper<matjson::Value>, std::__ndk1::basic_string<char, std::__ndk1::char_traits<char>, std::__ndk1::allocator<char> > >, (std::__ndk1::__variant_detail::_Trait)1>, std::__ndk1::__variant_detail::__base<(std::__ndk1::__variant_detail::__traits<std::__ndk1::reference_wrapper<matjson::Value>, std::__ndk1::basic_string<char, std::__ndk1::char_traits<char>, std::__ndk1::allocator<char> > >)1, matjson::Value, std::__ndk1::allocator<char> >&)
FUNC 103258 4 0 std::__ndk1::__variant_detail::__visitation::__base::__dispatcher<(unsigned long)0>::__dispatch[abi:ne180000]<std::__ndk1::__variant_detail::__dtor<std::__ndk1::__variant_detail::__traits<bool, std::__ndk1::basic_string<char, std::__ndk1::char_traits<char>, std::__ndk1::allocator<char> > >, (std::__ndk1::__variant_detail::_Trait)1>::__destroy[abi:ne180000]()::{lambda(auto:1&)#1}, std::__ndk1::__variant_detail::__base<(std::__ndk1::__variant_detail::__traits<bool, std::__ndk1::basic_string<char, std::__ndk1::char_traits<char>, std::__ndk1::allocator<char> > >)1, bool, std::__ndk1::allocator<char> >&>(std::__ndk1::__variant_detail::__dtor<std::__ndk1::__variant_detail::__traits<bool, std::__ndk1::basic_string<char, std::__ndk1::char_traits<char>, std::__ndk1::allocator<char> > >, (std::__ndk1::__variant_detail::_Trait)1>, std::__ndk1::__variant_detail::__base<(std::__ndk1::__variant_detail::__traits<bool, std::__ndk1::basic_string<char, std::__ndk1::char_traits<char>, std::__ndk1::allocator<char> > >)1, bool, std::__ndk1::allocator<char> >&)
FUNC 10325c 14 0 std::__ndk1::__variant_detail::__visitation::__base::__dispatcher<(unsigned long)1>::__dispatch[abi:ne180000]<std::__ndk1::__variant_detail::__dtor<std::__ndk1::__variant_detail::__traits<bool, std::__ndk1::basic_string<char, std::__ndk1::char_traits<char>, std::__ndk1::allocator<char> > >, (std::__ndk1::__variant_detail::_Trait)1>::__destroy[abi:ne180000]()::{lambda(auto:1&)#1}, std::__ndk1::__variant_detail::__base<(std::__ndk1::__variant_detail::__traits<bool, std::__ndk1::basic_string<char, std::__ndk1::char_traits<char>, std::__ndk1::allocator<char> > >)1, bool, std::__ndk1::allocator<char> >&>(std::__ndk1::__variant_detail::__dtor<std::__ndk1::__variant_detail::__traits<bool, std::__ndk1::basic_string<char, std::__ndk1::char_traits<char>, std::__ndk1::allocator<char> > >, (std::__ndk1::__variant_detail::_Trait)1>, std::__ndk1::__variant_detail::__base<(std::__ndk1::__variant_detail::__traits<bool, std::__ndk1::basic_string<char, std::__ndk1::char_traits<char>, std::__ndk1::allocator<char> > >)1, bool, std::__ndk1::allocator<char> >&)
FUNC 103270 104 0 matjson::Value::as<int>() const
FUNC 103374 4 0 std::__ndk1::__variant_detail::__visitation::__base::__dispatcher<(unsigned long)0>::__dispatch[abi:ne180000]<std::__ndk1::__variant_detail::__dtor<std::__ndk1::__variant_detail::__traits<long, std::__ndk1::basic_string<char, std::__ndk1::char_traits<char>, std::__ndk1::allocator<char> > >, (std::__ndk1::__variant_detail::_Trait)1>::__destroy[abi:ne180000]()::{lambda(auto:1&)#1}, std::__ndk1::__variant_detail::__base<(std::__ndk1::__variant_detail::__traits<long, std::__ndk1::basic_string<char, std::__ndk1::char_traits<char>, std::__ndk1::allocator<char> > >)1, long, std::__ndk1::allocator<char> >&>(std::__ndk1::__variant_detail::__dtor<std::__ndk1::__variant_detail::__traits<long, std::__ndk1::basic_string<char, std::__ndk1::char_traits<char>, std::__ndk1::allocator<char> > >, (std::__ndk1::__variant_detail::_Trait)1>, std::__ndk1::__variant_detail::__base<(std::__ndk1::__variant_detail::__traits<long, std::__ndk1::basic_string<char, std::__ndk1::char_traits<char>, std::__ndk1::allocator<char> > >)1, long, std::__ndk1::allocator<char> >&)
FUNC 103378 14 0 std::__ndk1::__variant_detail::__visitation::__base::__dispatcher<(unsigned long)1>::__dispatch[abi:ne180000]<std::__ndk1::__variant_detail::__dtor<std::__ndk1::__variant_detail::__traits<long, std::__ndk1::basic_string<char, std::__ndk1::char_traits<char>, std::__ndk1::allocator<char> > >, (std::__ndk1::__variant_detail::_Trait)1>::__destroy[abi:ne180000]()::{lambda(auto:1&)#1}, std::__ndk1::__variant_detail::__base<(std::__ndk1::__variant_detail::__traits<long, std::__ndk1::basic_string<char, std::__ndk1::char_traits<char>, std::__ndk1::allocator<char> > >)1, long, std::__ndk1::allocator<char> >&>(std::__ndk1::__variant_detail::__dtor<std::__ndk1::__variant_detail::__traits<long, std::__ndk1::basic_string<char, std::__ndk1::char_traits<char>, std::__ndk1::allocator<char> > >, (std::__ndk1::__variant_detail::_Trait)1>, std::__ndk1::__variant_detail::__base<(std::__ndk1::__variant_detail::__traits<long, std::__ndk1::basic_string<char, std::__ndk1::char_traits<char>, std::__ndk1::allocator<char> > >)1, long, std::__ndk1::allocator<char> >&)
FUNC 10338c 4 0 std::__ndk1::__variant_detail::__visitation::__base::__dispatcher<(unsigned long)0>::__dispatch[abi:ne180000]<std::__ndk1::__variant_detail::__dtor<std::__ndk1::__variant_detail::__traits<int, std::__ndk1::basic_string<char, std::__ndk1::char_traits<char>, std::__ndk1::allocator<char> > >, (std::__ndk1::__variant_detail::_Trait)1>::__destroy[abi:ne180000]()::{lambda(auto:1&)#1}, std::__ndk1::__variant_detail::__base<(std::__ndk1::__variant_detail::__traits<int, std::__ndk1::basic_string<char, std::__ndk1::char_traits<char>, std::__ndk1::allocator<char> > >)1, int, std::__ndk1::allocator<char> >&>(std::__ndk1::__variant_detail::__dtor<std::__ndk1::__variant_detail::__traits<int, std::__ndk1::basic_string<char, std::__ndk1::char_traits<char>, std::__ndk1::allocator<char> > >, (std::__ndk1::__variant_detail::_Trait)1>, std::__ndk1::__variant_detail::__base<(std::__ndk1::__variant_detail::__traits<int, std::__ndk1::basic_string<char, std::__ndk1::char_traits<char>, std::__ndk1::allocator<char> > >)1, int, std::__ndk1::allocator<char> >&)
FUNC 103390 14 0 std::__ndk1::__variant_detail::__visitation::__base::__dispatcher<(unsigned long)1>::__dispatch[abi:ne180000]<std::__ndk1::__variant_detail::__dtor<std::__ndk1::__variant_detail::__traits<int, std::__ndk1::basic_string<char, std::__ndk1::char_traits<char>, std::__ndk1::allocator<char> > >, (std::__ndk1::__variant_detail::_Trait)1>::__destroy[abi:ne180000]()::{lambda(auto:1&)#1}, std::__ndk1::__variant_detail::__base<(std::__ndk1::__variant_detail::__traits<int, std::__ndk1::basic_string<char, std::__ndk1::char_traits<char>, std::__ndk1::allocator<char> > >)1, int, std::__ndk1::allocator<char> >&>(std::__ndk1::__variant_detail::__dtor<std::__ndk1::__variant_detail::__traits<int, std::__ndk1::basic_string<char, std::__ndk1::char_traits<char>, std::__ndk1::allocator<char> > >, (std::__ndk1::__variant_detail::_Trait)1>, std::__ndk1::__variant_detail::__base<(std::__ndk1::__variant_detail::__traits<int, std::__ndk1::basic_string<char, std::__ndk1::char_traits<char>, std::__ndk1::allocator<char> > >)1, int, std::__ndk1::allocator<char> >&)
FUNC 1033a4 40c 0 geode::modifier::ModifyBase<geode::modifier::ModifyDerive<QOLModTouchDispatcher, cocos2d::CCTouchDispatcher> >::ModifyBase()
FUNC 1037b0 2fc 0 geode::modifier::ModifyDerive<QOLModTouchDispatcher, cocos2d::CCTouchDispatcher>::apply()
FUNC 103aac 4 0 geode::modifier::ModifyBase<geode::modifier::ModifyDerive<QOLModTouchDispatcher, cocos2d::CCTouchDispatcher> >::apply()
FUNC 103ab0 170 0 geode::modifier::ModifyBase<geode::modifier::ModifyDerive<QOLModTouchDispatcher, cocos2d::CCTouchDispatcher> >::setHookPriority(std::__ndk1::basic_string_view<char, std::__ndk1::char_traits<char> >, int)
FUNC 103c20 19c 0 geode::modifier::ModifyBase<geode::modifier::ModifyDerive<QOLModTouchDispatcher, cocos2d::CCTouchDispatcher> >::getHook(std::__ndk1::basic_string_view<char, std::__ndk1::char_traits<char> >)
FUNC 103dbc 12c 0 std::__ndk1::__tree<std::__ndk1::__value_type<std::__ndk1::basic_string<char, std::__ndk1::char_traits<char>, std::__ndk1::allocator<char> >, std::__ndk1::shared_ptr<geode::Hook> >, std::__ndk1::__map_value_compare<std::__ndk1::basic_string<char, std::__ndk1::char_traits<char>, std::__ndk1::allocator<char> >, std::__ndk1::__value_type<std::__ndk1::basic_string<char, std::__ndk1::char_traits<char>, std::__ndk1::allocator<char> >, std::__ndk1::shared_ptr<geode::Hook> >, std::__ndk1::less<std::__ndk1::basic_string<char, std::__ndk1::char_traits<char>, std::__ndk1::allocator<char> > >, true>, std::__ndk1::allocator<std::__ndk1::__value_type<std::__ndk1::basic_string<char, std::__ndk1::char_traits<char>, std::__ndk1::allocator<char> >, std::__ndk1::shared_ptr<geode::Hook> > > >::__emplace_unique_key_args<std::__ndk1::basic_string<char, std::__ndk1::char_traits<char>, std::__ndk1::allocator<char> >, std::__ndk1::piecewise_construct_t const&, std::__ndk1::tuple<std::__ndk1::basic_string<char, std::__ndk1::char_traits<char>, std::__ndk1::allocator<char> > const&>, std::__ndk1::tuple<> >(std::__ndk1::basic_string<char, std::__ndk1::char_traits<char>, std::__ndk1::allocator<char> > const&, std::__ndk1::piecewise_construct_t const&, std::__ndk1::tuple<std::__ndk1::basic_string<char, std::__ndk1::char_traits<char>, std::__ndk1::allocator<char> > const&>, std::__ndk1::tuple<>)
FUNC 103ee8 4 0 std::__ndk1::__variant_detail::__visitation::__base::__dispatcher<(unsigned long)0>::__dispatch[abi:ne180000]<std::__ndk1::__variant_detail::__dtor<std::__ndk1::__variant_detail::__traits<std::__ndk1::monostate, std::__ndk1::basic_string<char, std::__ndk1::char_traits<char>, std::__ndk1::allocator<char> > >, (std::__ndk1::__variant_detail::_Trait)1>::__destroy[abi:ne180000]()::{lambda(auto:1&)#1}, std::__ndk1::__variant_detail::__base<(std::__ndk1::__variant_detail::__traits<std::__ndk1::monostate, std::__ndk1::basic_string<char, std::__ndk1::char_traits<char>, std::__ndk1::allocator<char> > >)1, std::__ndk1::__variant_detail::__traits, std::__ndk1::allocator<char> >&>(std::__ndk1::__variant_detail::__dtor<std::__ndk1::__variant_detail::__traits<std::__ndk1::monostate, std::__ndk1::basic_string<char, std::__ndk1::char_traits<char>, std::__ndk1::allocator<char> > >, (std::__ndk1::__variant_detail::_Trait)1>, std::__ndk1::__variant_detail::__base<(std::__ndk1::__variant_detail::__traits<std::__ndk1::monostate, std::__ndk1::basic_string<char, std::__ndk1::char_traits<char>, std::__ndk1::allocator<char> > >)1, std::__ndk1::__variant_detail::__traits, std::__ndk1::allocator<char> >&)
FUNC 103eec 14 0 std::__ndk1::__variant_detail::__visitation::__base::__dispatcher<(unsigned long)1>::__dispatch[abi:ne180000]<std::__ndk1::__variant_detail::__dtor<std::__ndk1::__variant_detail::__traits<std::__ndk1::monostate, std::__ndk1::basic_string<char, std::__ndk1::char_traits<char>, std::__ndk1::allocator<char> > >, (std::__ndk1::__variant_detail::_Trait)1>::__destroy[abi:ne180000]()::{lambda(auto:1&)#1}, std::__ndk1::__variant_detail::__base<(std::__ndk1::__variant_detail::__traits<std::__ndk1::monostate, std::__ndk1::basic_string<char, std::__ndk1::char_traits<char>, std::__ndk1::allocator<char> > >)1, std::__ndk1::__variant_detail::__traits, std::__ndk1::allocator<char> >&>(std::__ndk1::__variant_detail::__dtor<std::__ndk1::__variant_detail::__traits<std::__ndk1::monostate, std::__ndk1::basic_string<char, std::__ndk1::char_traits<char>, std::__ndk1::allocator<char> > >, (std::__ndk1::__variant_detail::_Trait)1>, std::__ndk1::__variant_detail::__base<(std::__ndk1::__variant_detail::__traits<std::__ndk1::monostate, std::__ndk1::basic_string<char, std::__ndk1::char_traits<char>, std::__ndk1::allocator<char> > >)1, std::__ndk1::__variant_detail::__traits, std::__ndk1::allocator<char> >&)
FUNC 103f00 118 0 geode::Hook::create<void (*)(QOLModTouchDispatcher*, cocos2d::CCSet*, cocos2d::CCEvent*, unsigned int)>(void*, void (*)(QOLModTouchDispatcher*, cocos2d::CCSet*, cocos2d::CCEvent*, unsigned int), std::__ndk1::basic_string<char, std::__ndk1::char_traits<char>, std::__ndk1::allocator<char> > const&, tulip::hook::TulipConvention, tulip::hook::HookMetadata const&)
FUNC 104018 4 0 geode::modifier::AsStaticFunction_touches<QOLModTouchDispatcher, void (QOLModTouchDispatcher::*)(cocos2d::CCSet*, cocos2d::CCEvent*, unsigned int)>::Impl<void (QOLModTouchDispatcher::*)(cocos2d::CCSet*, cocos2d::CCEvent*, unsigned int)>::function(QOLModTouchDispatcher*, cocos2d::CCSet*, cocos2d::CCEvent*, unsigned int)
FUNC 10401c 2a8 0 tulip::hook::AbstractFunction::from<void, QOLModTouchDispatcher*, cocos2d::CCSet*, cocos2d::CCEvent*, unsigned int>(void (*)(QOLModTouchDispatcher*, cocos2d::CCSet*, cocos2d::CCEvent*, unsigned int))
FUNC 1042c4 184 0 geode::Mod::getSavedValue<float>(std::__ndk1::basic_string_view<char, std::__ndk1::char_traits<char> >)
FUNC 104448 108 0 matjson::Value::as<float>() const
FUNC 104550 4 0 std::__ndk1::__variant_detail::__visitation::__base::__dispatcher<(unsigned long)0>::__dispatch[abi:ne180000]<std::__ndk1::__variant_detail::__dtor<std::__ndk1::__variant_detail::__traits<double, std::__ndk1::basic_string<char, std::__ndk1::char_traits<char>, std::__ndk1::allocator<char> > >, (std::__ndk1::__variant_detail::_Trait)1>::__destroy[abi:ne180000]()::{lambda(auto:1&)#1}, std::__ndk1::__variant_detail::__base<(std::__ndk1::__variant_detail::__traits<double, std::__ndk1::basic_string<char, std::__ndk1::char_traits<char>, std::__ndk1::allocator<char> > >)1, double, std::__ndk1::allocator<char> >&>(std::__ndk1::__variant_detail::__dtor<std::__ndk1::__variant_detail::__traits<double, std::__ndk1::basic_string<char, std::__ndk1::char_traits<char>, std::__ndk1::allocator<char> > >, (std::__ndk1::__variant_detail::_Trait)1>, std::__ndk1::__variant_detail::__base<(std::__ndk1::__variant_detail::__traits<double, std::__ndk1::basic_string<char, std::__ndk1::char_traits<char>, std::__ndk1::allocator<char> > >)1, double, std::__ndk1::allocator<char> >&)
FUNC 104554 14 0 std::__ndk1::__variant_detail::__visitation::__base::__dispatcher<(unsigned long)1>::__dispatch[abi:ne180000]<std::__ndk1::__variant_detail::__dtor<std::__ndk1::__variant_detail::__traits<double, std::__ndk1::basic_string<char, std::__ndk1::char_traits<char>, std::__ndk1::allocator<char> > >, (std::__ndk1::__variant_detail::_Trait)1>::__destroy[abi:ne180000]()::{lambda(auto:1&)#1}, std::__ndk1::__variant_detail::__base<(std::__ndk1::__variant_detail::__traits<double, std::__ndk1::basic_string<char, std::__ndk1::char_traits<char>, std::__ndk1::allocator<char> > >)1, double, std::__ndk1::allocator<char> >&>(std::__ndk1::__variant_detail::__dtor<std::__ndk1::__variant_detail::__traits<double, std::__ndk1::basic_string<char, std::__ndk1::char_traits<char>, std::__ndk1::allocator<char> > >, (std::__ndk1::__variant_detail::_Trait)1>, std::__ndk1::__variant_detail::__base<(std::__ndk1::__variant_detail::__traits<double, std::__ndk1::basic_string<char, std::__ndk1::char_traits<char>, std::__ndk1::allocator<char> > >)1, double, std::__ndk1::allocator<char> >&)
FUNC 104568 4 0 std::__ndk1::__variant_detail::__visitation::__base::__dispatcher<(unsigned long)0>::__dispatch[abi:ne180000]<std::__ndk1::__variant_detail::__dtor<std::__ndk1::__variant_detail::__traits<float, std::__ndk1::basic_string<char, std::__ndk1::char_traits<char>, std::__ndk1::allocator<char> > >, (std::__ndk1::__variant_detail::_Trait)1>::__destroy[abi:ne180000]()::{lambda(auto:1&)#1}, std::__ndk1::__variant_detail::__base<(std::__ndk1::__variant_detail::__traits<float, std::__ndk1::basic_string<char, std::__ndk1::char_traits<char>, std::__ndk1::allocator<char> > >)1, float, std::__ndk1::allocator<char> >&>(std::__ndk1::__variant_detail::__dtor<std::__ndk1::__variant_detail::__traits<float, std::__ndk1::basic_string<char, std::__ndk1::char_traits<char>, std::__ndk1::allocator<char> > >, (std::__ndk1::__variant_detail::_Trait)1>, std::__ndk1::__variant_detail::__base<(std::__ndk1::__variant_detail::__traits<float, std::__ndk1::basic_string<char, std::__ndk1::char_traits<char>, std::__ndk1::allocator<char> > >)1, float, std::__ndk1::allocator<char> >&)
FUNC 10456c 14 0 std::__ndk1::__variant_detail::__visitation::__base::__dispatcher<(unsigned long)1>::__dispatch[abi:ne180000]<std::__ndk1::__variant_detail::__dtor<std::__ndk1::__variant_detail::__traits<float, std::__ndk1::basic_string<char, std::__ndk1::char_traits<char>, std::__ndk1::allocator<char> > >, (std::__ndk1::__variant_detail::_Trait)1>::__destroy[abi:ne180000]()::{lambda(auto:1&)#1}, std::__ndk1::__variant_detail::__base<(std::__ndk1::__variant_detail::__traits<float, std::__ndk1::basic_string<char, std::__ndk1::char_traits<char>, std::__ndk1::allocator<char> > >)1, float, std::__ndk1::allocator<char> >&>(std::__ndk1::__variant_detail::__dtor<std::__ndk1::__variant_detail::__traits<float, std::__ndk1::basic_string<char, std::__ndk1::char_traits<char>, std::__ndk1::allocator<char> > >, (std::__ndk1::__variant_detail::_Trait)1>, std::__ndk1::__variant_detail::__base<(std::__ndk1::__variant_detail::__traits<float, std::__ndk1::basic_string<char, std::__ndk1::char_traits<char>, std::__ndk1::allocator<char> > >)1, float, std::__ndk1::allocator<char> >&)
FUNC 104580 398 0 geode::modifier::ModifyDerive<hook270<(anonymous namespace)::hook270Parent>, cocos2d::CCScene>::apply()
FUNC 104918 4 0 geode::modifier::ModifyBase<geode::modifier::ModifyDerive<hook270<(anonymous namespace)::hook270Parent>, cocos2d::CCScene> >::apply()
FUNC 10491c 8c 0 geode::modifier::AsStaticFunction_getHighestChildZ<hook270<(anonymous namespace)::hook270Parent>, int (hook270<(anonymous namespace)::hook270Parent>::*)()>::Impl<int (hook270<(anonymous namespace)::hook270Parent>::*)()>::function(hook270<(anonymous namespace)::hook270Parent>*)
FUNC 1049a8 3dc 0 geode::modifier::ModifyDerive<hook290<(anonymous namespace)::hook290Parent>, AppDelegate>::apply()
FUNC 104d84 4 0 geode::modifier::ModifyBase<geode::modifier::ModifyDerive<hook290<(anonymous namespace)::hook290Parent>, AppDelegate> >::apply()
FUNC 104d88 248 0 geode::modifier::AsStaticFunction_willSwitchToScene<hook290<(anonymous namespace)::hook290Parent>, void (hook290<(anonymous namespace)::hook290Parent>::*)(cocos2d::CCScene*)>::Impl<void (hook290<(anonymous namespace)::hook290Parent>::*)(cocos2d::CCScene*)>::function(hook290<(anonymous namespace)::hook290Parent>*, cocos2d::CCScene*)
FUNC 104fd0 e0 0 geode::addresser::Addresser::addressOfVirtual<void, AppDelegate, cocos2d::CCScene*>(void (AppDelegate::*)(cocos2d::CCScene*))
FUNC 1050b0 1b88 0 AndroidUI::setup()
FUNC 106c38 d0 0 BlurLayer::create()
FUNC 106d08 2e0 0 AndroidUI::onPressTab(cocos2d::CCObject*)
FUNC 106fe8 58c 0 AndroidUI::updateVersionLabel()
FUNC 107574 c8 0 AndroidUI::get()
FUNC 10763c 50 0 geode::Task<geode::Result<std::__ndk1::optional<geode::VersionInfo>, std::__ndk1::basic_string<char, std::__ndk1::char_traits<char>, std::__ndk1::allocator<char> > >, std::__ndk1::monostate>::~Task()
FUNC 10768c e4 0 AndroidUI::onUpdate(cocos2d::CCObject*)
FUNC 107770 28 0 AndroidUI::update(float)
FUNC 107798 9ac 0 AndroidUI::textChanged(CCTextInputNode*)
FUNC 108144 8 0 {virtual override thunk({offset(-672)}, AndroidUI::textChanged(CCTextInputNode*))}
FUNC 10814c e0 0 AndroidUI::create()
FUNC 10822c 1f0 0 AndroidUI::AndroidUI()
FUNC 10841c e4 0 AndroidUI::addToScene()
FUNC 108500 11c 0 AndroidUI::keyDown(cocos2d::enumKeyCodes)
FUNC 10861c 28 0 geode::Popup<>::keyDown(cocos2d::enumKeyCodes)
FUNC 108644 8 0 {virtual override thunk({offset(-344)}, AndroidUI::keyDown(cocos2d::enumKeyCodes))}
FUNC 10864c 154 0 AndroidUI::~AndroidUI()
FUNC 1087a0 24 0 AndroidUI::~AndroidUI()
FUNC 1087c4 2c 0 geode::Popup<>::registerWithTouchDispatcher()
FUNC 1087f0 4 0 cocos2d::CCLayerRGBA::setOpacityModifyRGB(bool)
FUNC 1087f4 8 0 cocos2d::CCLayerRGBA::isOpacityModifyRGB()
FUNC 1087fc 148 0 geode::Popup<>::onClose(cocos2d::CCObject*)
FUNC 108944 8 0 {virtual override thunk({offset(-320)}, AndroidUI::~AndroidUI())}
FUNC 10894c 28 0 {virtual override thunk({offset(-320)}, AndroidUI::~AndroidUI())}
FUNC 108974 4 0 {virtual override thunk({offset(-408)}, cocos2d::CCLayerRGBA::setOpacityModifyRGB(bool))}
FUNC 108978 8 0 {virtual override thunk({offset(-408)}, cocos2d::CCLayerRGBA::isOpacityModifyRGB())}
FUNC 108980 9b4 0 std::__ndk1::__introsort<std::__ndk1::_ClassicAlgPolicy, AndroidUI::setup()::$_0&, Window**, false>(Window**, Window**, AndroidUI::setup()::$_0&, std::__ndk1::iterator_traits<Window**>::difference_type, bool)
FUNC 109334 174 0 _ZNSt6__ndk124__sort5_maybe_branchlessB8ne180000INS_17_ClassicAlgPolicyERZN9AndroidUI5setupEvE3$_0PP6WindowTnNS_9enable_ifIXntsr21__use_branchless_sortIT0_T1_EE5valueEiE4typeELi0EEEvSA_SA_SA_SA_SA_S9_
FUNC 1094a8 2f8 0 std::__ndk1::__insertion_sort_incomplete[abi:ne180000]<std::__ndk1::_ClassicAlgPolicy, AndroidUI::setup()::$_0&, Window**>(Window**, Window**, AndroidUI::setup()::$_0&)
FUNC 1097a0 14 0 std::__ndk1::vector<CategoryTabSprite*, std::__ndk1::allocator<CategoryTabSprite*> >::__throw_length_error[abi:ne180000]() const
FUNC 1097b4 14 0 std::__ndk1::vector<CCMenuItemSpriteExtra*, std::__ndk1::allocator<CCMenuItemSpriteExtra*> >::__throw_length_error[abi:ne180000]() const
FUNC 1097c8 14 0 std::__ndk1::vector<cocos2d::CCMenu*, std::__ndk1::allocator<cocos2d::CCMenu*> >::__throw_length_error[abi:ne180000]() const
FUNC 1097dc 6c 0 geode::Popup<>::~Popup()
FUNC 109848 4 0 geode::Popup<>::~Popup()
FUNC 10984c 6c 0 {virtual override thunk({offset(-320)}, geode::Popup<>::~Popup())}
FUNC 1098b8 4 0 {virtual override thunk({offset(-320)}, geode::Popup<>::~Popup())}
FUNC 1098bc 2c 0 {virtual override thunk({offset(-344)}, geode::Popup<>::keyDown(cocos2d::enumKeyCodes))}
FUNC 1098e8 21c 0 geode::Task<geode::Result<std::__ndk1::optional<geode::VersionInfo>, std::__ndk1::basic_string<char, std::__ndk1::char_traits<char>, std::__ndk1::allocator<char> > >, std::__ndk1::monostate>::setListener(geode::EventListenerProtocol*)
FUNC 109b04 4 0 geode::EventListener<geode::Task<geode::Result<std::__ndk1::optional<geode::VersionInfo>, std::__ndk1::basic_string<char, std::__ndk1::char_traits<char>, std::__ndk1::allocator<char> > >, std::__ndk1::monostate> >::getPool() const
FUNC 109b08 1ac 0 geode::EventListener<geode::Task<geode::Result<std::__ndk1::optional<geode::VersionInfo>, std::__ndk1::basic_string<char, std::__ndk1::char_traits<char>, std::__ndk1::allocator<char> > >, std::__ndk1::monostate> >::handle(geode::Event*)
FUNC 109cb4 8c 0 geode::EventListener<geode::Task<geode::Result<std::__ndk1::optional<geode::VersionInfo>, std::__ndk1::basic_string<char, std::__ndk1::char_traits<char>, std::__ndk1::allocator<char> > >, std::__ndk1::monostate> >::~EventListener()
FUNC 109d40 94 0 geode::EventListener<geode::Task<geode::Result<std::__ndk1::optional<geode::VersionInfo>, std::__ndk1::basic_string<char, std::__ndk1::char_traits<char>, std::__ndk1::allocator<char> > >, std::__ndk1::monostate> >::~EventListener()
FUNC 109dd4 50 0 geode::Task<geode::Result<std::__ndk1::optional<geode::VersionInfo>, std::__ndk1::basic_string<char, std::__ndk1::char_traits<char>, std::__ndk1::allocator<char> > >, std::__ndk1::monostate>::setListener(geode::EventListenerProtocol*)::{lambda()#1}::~{lambda()#1}()
FUNC 109e24 50 0 geode::Task<geode::Result<std::__ndk1::optional<geode::VersionInfo>, std::__ndk1::basic_string<char, std::__ndk1::char_traits<char>, std::__ndk1::allocator<char> > >, std::__ndk1::monostate>::setListener(geode::EventListenerProtocol*)::{lambda()#2}::~{lambda()#2}()
FUNC 109e74 5c 0 std::__ndk1::__function::__func<geode::Task<geode::Result<std::__ndk1::optional<geode::VersionInfo>, std::__ndk1::basic_string<char, std::__ndk1::char_traits<char>, std::__ndk1::allocator<char> > >, std::__ndk1::monostate>::setListener(geode::EventListenerProtocol*)::{lambda()#1}, std::__ndk1::allocator<geode::Task<geode::Result<std::__ndk1::optional<geode::VersionInfo>, std::__ndk1::basic_string<char, std::__ndk1::char_traits<char>, std::__ndk1::allocator<char> > >, std::__ndk1::monostate>::setListener(geode::EventListenerProtocol*)::{lambda()#1}>, void ()>::~__func()
FUNC 109ed0 5c 0 std::__ndk1::__function::__func<geode::Task<geode::Result<std::__ndk1::optional<geode::VersionInfo>, std::__ndk1::basic_string<char, std::__ndk1::char_traits<char>, std::__ndk1::allocator<char> > >, std::__ndk1::monostate>::setListener(geode::EventListenerProtocol*)::{lambda()#1}, std::__ndk1::allocator<geode::Task<geode::Result<std::__ndk1::optional<geode::VersionInfo>, std::__ndk1::basic_string<char, std::__ndk1::char_traits<char>, std::__ndk1::allocator<char> > >, std::__ndk1::monostate>::setListener(geode::EventListenerProtocol*)::{lambda()#1}>, void ()>::~__func()
FUNC 109f2c 58 0 std::__ndk1::__function::__func<geode::Task<geode::Result<std::__ndk1::optional<geode::VersionInfo>, std::__ndk1::basic_string<char, std::__ndk1::char_traits<char>, std::__ndk1::allocator<char> > >, std::__ndk1::monostate>::setListener(geode::EventListenerProtocol*)::{lambda()#1}, std::__ndk1::allocator<geode::Task<geode::Result<std::__ndk1::optional<geode::VersionInfo>, std::__ndk1::basic_string<char, std::__ndk1::char_traits<char>, std::__ndk1::allocator<char> > >, std::__ndk1::monostate>::setListener(geode::EventListenerProtocol*)::{lambda()#1}>, void ()>::__clone() const
FUNC 109f84 4c 0 std::__ndk1::__function::__func<geode::Task<geode::Result<std::__ndk1::optional<geode::VersionInfo>, std::__ndk1::basic_string<char, std::__ndk1::char_traits<char>, std::__ndk1::allocator<char> > >, std::__ndk1::monostate>::setListener(geode::EventListenerProtocol*)::{lambda()#1}, std::__ndk1::allocator<geode::Task<geode::Result<std::__ndk1::optional<geode::VersionInfo>, std::__ndk1::basic_string<char, std::__ndk1::char_traits<char>, std::__ndk1::allocator<char> > >, std::__ndk1::monostate>::setListener(geode::EventListenerProtocol*)::{lambda()#1}>, void ()>::__clone(std::__ndk1::__function::__base<void ()>*) const
FUNC 109fd0 50 0 std::__ndk1::__function::__func<geode::Task<geode::Result<std::__ndk1::optional<geode::VersionInfo>, std::__ndk1::basic_string<char, std::__ndk1::char_traits<char>, std::__ndk1::allocator<char> > >, std::__ndk1::monostate>::setListener(geode::EventListenerProtocol*)::{lambda()#1}, std::__ndk1::allocator<geode::Task<geode::Result<std::__ndk1::optional<geode::VersionInfo>, std::__ndk1::basic_string<char, std::__ndk1::char_traits<char>, std::__ndk1::allocator<char> > >, std::__ndk1::monostate>::setListener(geode::EventListenerProtocol*)::{lambda()#1}>, void ()>::destroy()
FUNC 10a020 50 0 std::__ndk1::__function::__func<geode::Task<geode::Result<std::__ndk1::optional<geode::VersionInfo>, std::__ndk1::basic_string<char, std::__ndk1::char_traits<char>, std::__ndk1::allocator<char> > >, std::__ndk1::monostate>::setListener(geode::EventListenerProtocol*)::{lambda()#1}, std::__ndk1::allocator<geode::Task<geode::Result<std::__ndk1::optional<geode::VersionInfo>, std::__ndk1::basic_string<char, std::__ndk1::char_traits<char>, std::__ndk1::allocator<char> > >, std::__ndk1::monostate>::setListener(geode::EventListenerProtocol*)::{lambda()#1}>, void ()>::destroy_deallocate()
FUNC 10a070 198 0 std::__ndk1::__function::__func<geode::Task<geode::Result<std::__ndk1::optional<geode::VersionInfo>, std::__ndk1::basic_string<char, std::__ndk1::char_traits<char>, std::__ndk1::allocator<char> > >, std::__ndk1::monostate>::setListener(geode::EventListenerProtocol*)::{lambda()#1}, std::__ndk1::allocator<geode::Task<geode::Result<std::__ndk1::optional<geode::VersionInfo>, std::__ndk1::basic_string<char, std::__ndk1::char_traits<char>, std::__ndk1::allocator<char> > >, std::__ndk1::monostate>::setListener(geode::EventListenerProtocol*)::{lambda()#1}>, void ()>::operator()()
FUNC 10a208 1c 0 std::__ndk1::__function::__func<geode::Task<geode::Result<std::__ndk1::optional<geode::VersionInfo>, std::__ndk1::basic_string<char, std::__ndk1::char_traits<char>, std::__ndk1::allocator<char> > >, std::__ndk1::monostate>::setListener(geode::EventListenerProtocol*)::{lambda()#1}, std::__ndk1::allocator<geode::Task<geode::Result<std::__ndk1::optional<geode::VersionInfo>, std::__ndk1::basic_string<char, std::__ndk1::char_traits<char>, std::__ndk1::allocator<char> > >, std::__ndk1::monostate>::setListener(geode::EventListenerProtocol*)::{lambda()#1}>, void ()>::target(std::type_info const&) const
FUNC 10a224 c 0 std::__ndk1::__function::__func<geode::Task<geode::Result<std::__ndk1::optional<geode::VersionInfo>, std::__ndk1::basic_string<char, std::__ndk1::char_traits<char>, std::__ndk1::allocator<char> > >, std::__ndk1::monostate>::setListener(geode::EventListenerProtocol*)::{lambda()#1}, std::__ndk1::allocator<geode::Task<geode::Result<std::__ndk1::optional<geode::VersionInfo>, std::__ndk1::basic_string<char, std::__ndk1::char_traits<char>, std::__ndk1::allocator<char> > >, std::__ndk1::monostate>::setListener(geode::EventListenerProtocol*)::{lambda()#1}>, void ()>::target_type() const
FUNC 10a230 50 0 geode::Task<geode::Result<std::__ndk1::optional<geode::VersionInfo>, std::__ndk1::basic_string<char, std::__ndk1::char_traits<char>, std::__ndk1::allocator<char> > >, std::__ndk1::monostate>::Event::~Event()
FUNC 10a280 58 0 geode::Task<geode::Result<std::__ndk1::optional<geode::VersionInfo>, std::__ndk1::basic_string<char, std::__ndk1::char_traits<char>, std::__ndk1::allocator<char> > >, std::__ndk1::monostate>::Event::~Event()
FUNC 10a2d8 5c 0 std::__ndk1::__function::__func<geode::Task<geode::Result<std::__ndk1::optional<geode::VersionInfo>, std::__ndk1::basic_string<char, std::__ndk1::char_traits<char>, std::__ndk1::allocator<char> > >, std::__ndk1::monostate>::setListener(geode::EventListenerProtocol*)::{lambda()#2}, std::__ndk1::allocator<geode::Task<geode::Result<std::__ndk1::optional<geode::VersionInfo>, std::__ndk1::basic_string<char, std::__ndk1::char_traits<char>, std::__ndk1::allocator<char> > >, std::__ndk1::monostate>::setListener(geode::EventListenerProtocol*)::{lambda()#2}>, void ()>::~__func()
FUNC 10a334 5c 0 std::__ndk1::__function::__func<geode::Task<geode::Result<std::__ndk1::optional<geode::VersionInfo>, std::__ndk1::basic_string<char, std::__ndk1::char_traits<char>, std::__ndk1::allocator<char> > >, std::__ndk1::monostate>::setListener(geode::EventListenerProtocol*)::{lambda()#2}, std::__ndk1::allocator<geode::Task<geode::Result<std::__ndk1::optional<geode::VersionInfo>, std::__ndk1::basic_string<char, std::__ndk1::char_traits<char>, std::__ndk1::allocator<char> > >, std::__ndk1::monostate>::setListener(geode::EventListenerProtocol*)::{lambda()#2}>, void ()>::~__func()
FUNC 10a390 58 0 std::__ndk1::__function::__func<geode::Task<geode::Result<std::__ndk1::optional<geode::VersionInfo>, std::__ndk1::basic_string<char, std::__ndk1::char_traits<char>, std::__ndk1::allocator<char> > >, std::__ndk1::monostate>::setListener(geode::EventListenerProtocol*)::{lambda()#2}, std::__ndk1::allocator<geode::Task<geode::Result<std::__ndk1::optional<geode::VersionInfo>, std::__ndk1::basic_string<char, std::__ndk1::char_traits<char>, std::__ndk1::allocator<char> > >, std::__ndk1::monostate>::setListener(geode::EventListenerProtocol*)::{lambda()#2}>, void ()>::__clone() const
FUNC 10a3e8 4c 0 std::__ndk1::__function::__func<geode::Task<geode::Result<std::__ndk1::optional<geode::VersionInfo>, std::__ndk1::basic_string<char, std::__ndk1::char_traits<char>, std::__ndk1::allocator<char> > >, std::__ndk1::monostate>::setListener(geode::EventListenerProtocol*)::{lambda()#2}, std::__ndk1::allocator<geode::Task<geode::Result<std::__ndk1::optional<geode::VersionInfo>, std::__ndk1::basic_string<char, std::__ndk1::char_traits<char>, std::__ndk1::allocator<char> > >, std::__ndk1::monostate>::setListener(geode::EventListenerProtocol*)::{lambda()#2}>, void ()>::__clone(std::__ndk1::__function::__base<void ()>*) const
FUNC 10a434 50 0 std::__ndk1::__function::__func<geode::Task<geode::Result<std::__ndk1::optional<geode::VersionInfo>, std::__ndk1::basic_string<char, std::__ndk1::char_traits<char>, std::__ndk1::allocator<char> > >, std::__ndk1::monostate>::setListener(geode::EventListenerProtocol*)::{lambda()#2}, std::__ndk1::allocator<geode::Task<geode::Result<std::__ndk1::optional<geode::VersionInfo>, std::__ndk1::basic_string<char, std::__ndk1::char_traits<char>, std::__ndk1::allocator<char> > >, std::__ndk1::monostate>::setListener(geode::EventListenerProtocol*)::{lambda()#2}>, void ()>::destroy()
FUNC 10a484 50 0 std::__ndk1::__function::__func<geode::Task<geode::Result<std::__ndk1::optional<geode::VersionInfo>, std::__ndk1::basic_string<char, std::__ndk1::char_traits<char>, std::__ndk1::allocator<char> > >, std::__ndk1::monostate>::setListener(geode::EventListenerProtocol*)::{lambda()#2}, std::__ndk1::allocator<geode::Task<geode::Result<std::__ndk1::optional<geode::VersionInfo>, std::__ndk1::basic_string<char, std::__ndk1::char_traits<char>, std::__ndk1::allocator<char> > >, std::__ndk1::monostate>::setListener(geode::EventListenerProtocol*)::{lambda()#2}>, void ()>::destroy_deallocate()
FUNC 10a4d4 188 0 std::__ndk1::__function::__func<geode::Task<geode::Result<std::__ndk1::optional<geode::VersionInfo>, std::__ndk1::basic_string<char, std::__ndk1::char_traits<char>, std::__ndk1::allocator<char> > >, std::__ndk1::monostate>::setListener(geode::EventListenerProtocol*)::{lambda()#2}, std::__ndk1::allocator<geode::Task<geode::Result<std::__ndk1::optional<geode::VersionInfo>, std::__ndk1::basic_string<char, std::__ndk1::char_traits<char>, std::__ndk1::allocator<char> > >, std::__ndk1::monostate>::setListener(geode::EventListenerProtocol*)::{lambda()#2}>, void ()>::operator()()
FUNC 10a65c 1c 0 std::__ndk1::__function::__func<geode::Task<geode::Result<std::__ndk1::optional<geode::VersionInfo>, std::__ndk1::basic_string<char, std::__ndk1::char_traits<char>, std::__ndk1::allocator<char> > >, std::__ndk1::monostate>::setListener(geode::EventListenerProtocol*)::{lambda()#2}, std::__ndk1::allocator<geode::Task<geode::Result<std::__ndk1::optional<geode::VersionInfo>, std::__ndk1::basic_string<char, std::__ndk1::char_traits<char>, std::__ndk1::allocator<char> > >, std::__ndk1::monostate>::setListener(geode::EventListenerProtocol*)::{lambda()#2}>, void ()>::target(std::type_info const&) const
FUNC 10a678 c 0 std::__ndk1::__function::__func<geode::Task<geode::Result<std::__ndk1::optional<geode::VersionInfo>, std::__ndk1::basic_string<char, std::__ndk1::char_traits<char>, std::__ndk1::allocator<char> > >, std::__ndk1::monostate>::setListener(geode::EventListenerProtocol*)::{lambda()#2}, std::__ndk1::allocator<geode::Task<geode::Result<std::__ndk1::optional<geode::VersionInfo>, std::__ndk1::basic_string<char, std::__ndk1::char_traits<char>, std::__ndk1::allocator<char> > >, std::__ndk1::monostate>::setListener(geode::EventListenerProtocol*)::{lambda()#2}>, void ()>::target_type() const
FUNC 10a684 4 0 std::__ndk1::__function::__base<void (geode::Task<geode::Result<std::__ndk1::optional<geode::VersionInfo>, std::__ndk1::basic_string<char, std::__ndk1::char_traits<char>, std::__ndk1::allocator<char> > >, std::__ndk1::monostate>::Event*)>::~__base()
FUNC 10a688 4 0 std::__ndk1::__function::__func<AndroidUI::updateVersionLabel()::$_0, std::__ndk1::allocator<AndroidUI::updateVersionLabel()::$_0>, void (geode::Task<geode::Result<std::__ndk1::optional<geode::VersionInfo>, std::__ndk1::basic_string<char, std::__ndk1::char_traits<char>, std::__ndk1::allocator<char> > >, std::__ndk1::monostate>::Event*)>::~__func()
FUNC 10a68c 34 0 std::__ndk1::__function::__func<AndroidUI::updateVersionLabel()::$_0, std::__ndk1::allocator<AndroidUI::updateVersionLabel()::$_0>, void (geode::Task<geode::Result<std::__ndk1::optional<geode::VersionInfo>, std::__ndk1::basic_string<char, std::__ndk1::char_traits<char>, std::__ndk1::allocator<char> > >, std::__ndk1::monostate>::Event*)>::__clone() const
FUNC 10a6c0 14 0 std::__ndk1::__function::__func<AndroidUI::updateVersionLabel()::$_0, std::__ndk1::allocator<AndroidUI::updateVersionLabel()::$_0>, void (geode::Task<geode::Result<std::__ndk1::optional<geode::VersionInfo>, std::__ndk1::basic_string<char, std::__ndk1::char_traits<char>, std::__ndk1::allocator<char> > >, std::__ndk1::monostate>::Event*)>::__clone(std::__ndk1::__function::__base<void (geode::Task<geode::Result<std::__ndk1::optional<geode::VersionInfo>, std::__ndk1::basic_string<char, std::__ndk1::char_traits<char>, std::__ndk1::allocator<char> > >, std::__ndk1::monostate>::Event*)>*) const
FUNC 10a6d4 4 0 std::__ndk1::__function::__func<AndroidUI::updateVersionLabel()::$_0, std::__ndk1::allocator<AndroidUI::updateVersionLabel()::$_0>, void (geode::Task<geode::Result<std::__ndk1::optional<geode::VersionInfo>, std::__ndk1::basic_string<char, std::__ndk1::char_traits<char>, std::__ndk1::allocator<char> > >, std::__ndk1::monostate>::Event*)>::destroy()
FUNC 10a6d8 4 0 std::__ndk1::__function::__func<AndroidUI::updateVersionLabel()::$_0, std::__ndk1::allocator<AndroidUI::updateVersionLabel()::$_0>, void (geode::Task<geode::Result<std::__ndk1::optional<geode::VersionInfo>, std::__ndk1::basic_string<char, std::__ndk1::char_traits<char>, std::__ndk1::allocator<char> > >, std::__ndk1::monostate>::Event*)>::destroy_deallocate()
FUNC 10a6dc f0 0 std::__ndk1::__function::__func<AndroidUI::updateVersionLabel()::$_0, std::__ndk1::allocator<AndroidUI::updateVersionLabel()::$_0>, void (geode::Task<geode::Result<std::__ndk1::optional<geode::VersionInfo>, std::__ndk1::basic_string<char, std::__ndk1::char_traits<char>, std::__ndk1::allocator<char> > >, std::__ndk1::monostate>::Event*)>::operator()(geode::Task<geode::Result<std::__ndk1::optional<geode::VersionInfo>, std::__ndk1::basic_string<char, std::__ndk1::char_traits<char>, std::__ndk1::allocator<char> > >, std::__ndk1::monostate>::Event*&&)
FUNC 10a7cc 1c 0 std::__ndk1::__function::__func<AndroidUI::updateVersionLabel()::$_0, std::__ndk1::allocator<AndroidUI::updateVersionLabel()::$_0>, void (geode::Task<geode::Result<std::__ndk1::optional<geode::VersionInfo>, std::__ndk1::basic_string<char, std::__ndk1::char_traits<char>, std::__ndk1::allocator<char> > >, std::__ndk1::monostate>::Event*)>::target(std::type_info const&) const
FUNC 10a7e8 c 0 std::__ndk1::__function::__func<AndroidUI::updateVersionLabel()::$_0, std::__ndk1::allocator<AndroidUI::updateVersionLabel()::$_0>, void (geode::Task<geode::Result<std::__ndk1::optional<geode::VersionInfo>, std::__ndk1::basic_string<char, std::__ndk1::char_traits<char>, std::__ndk1::allocator<char> > >, std::__ndk1::monostate>::Event*)>::target_type() const
FUNC 10a7f4 2ec 0 geode::Popup<>::initBase(float, float, char const*, cocos2d::CCRect, bool)
FUNC 10aae0 50 0 geode::Popup<>::CloseEvent::~CloseEvent()
FUNC 10ab30 58 0 geode::Popup<>::CloseEvent::~CloseEvent()
FUNC 10ab88 10 0 std::__ndk1::__shared_ptr_emplace<geode::Popup<>::CloseEvent::Impl, std::__ndk1::allocator<geode::Popup<>::CloseEvent::Impl> >::~__shared_ptr_emplace()
FUNC 10ab98 30 0 std::__ndk1::__shared_ptr_emplace<geode::Popup<>::CloseEvent::Impl, std::__ndk1::allocator<geode::Popup<>::CloseEvent::Impl> >::~__shared_ptr_emplace()
FUNC 10abc8 4 0 std::__ndk1::__shared_ptr_emplace<geode::Popup<>::CloseEvent::Impl, std::__ndk1::allocator<geode::Popup<>::CloseEvent::Impl> >::__on_zero_shared()
FUNC 10abcc 4 0 std::__ndk1::__shared_ptr_emplace<geode::Popup<>::CloseEvent::Impl, std::__ndk1::allocator<geode::Popup<>::CloseEvent::Impl> >::__on_zero_shared_weak()
FUNC 10abd0 17c 0 Client::Client()
FUNC 10ad4c 31c 0 Client::setLanguage(std::__ndk1::basic_string<char, std::__ndk1::char_traits<char>, std::__ndk1::allocator<char> >)
FUNC 10b068 298 0 geode::Mod::getSavedValue<std::__ndk1::basic_string<char, std::__ndk1::char_traits<char>, std::__ndk1::allocator<char> > >(std::__ndk1::basic_string_view<char, std::__ndk1::char_traits<char> >, std::__ndk1::basic_string<char, std::__ndk1::char_traits<char>, std::__ndk1::allocator<char> > const&)
FUNC 10b300 20 0 geode::Ref<BlurLayer>::~Ref()
FUNC 10b320 1ac 0 Client::handleKeybinds(cocos2d::enumKeyCodes, bool, bool)
FUNC 10b4cc 254 0 Client::initImGui()
FUNC 10b720 450 0 Client::setUIScale(float)
FUNC 10bb70 1d4 0 geode::Mod::getSavedValue<float>(std::__ndk1::basic_string_view<char, std::__ndk1::char_traits<char> >, float const&)
FUNC 10bd44 2fd4 0 Client::loadImGuiTheme(std::__ndk1::basic_string<char, std::__ndk1::char_traits<char>, std::__ndk1::allocator<char> >)
FUNC 10ed18 654 0 Client::sortWindows(bool)
FUNC 10f36c 3a4 0 Client::toggleWindowVisibility(WindowTransitionType, bool)
FUNC 10f710 2d0 0 Client::drawImGui()
FUNC 10f9e0 484 0 Client::GetModuleEnabled(std::__ndk1::basic_string_view<char, std::__ndk1::char_traits<char> >)
FUNC 10fe64 74 0 geode::impl::ResultData<matjson::Value, std::__ndk1::basic_string<char, std::__ndk1::char_traits<char>, std::__ndk1::allocator<char> > >::~ResultData()
FUNC 10fed8 140 0 geode::Mod::setSavedValue<std::__ndk1::basic_string<char, std::__ndk1::char_traits<char>, std::__ndk1::allocator<char> > >(std::__ndk1::basic_string_view<char, std::__ndk1::char_traits<char> >, std::__ndk1::basic_string<char, std::__ndk1::char_traits<char>, std::__ndk1::allocator<char> > const&)
FUNC 110018 6f8 0 Client::getLanguages()
FUNC 110710 50 0 std::__ndk1::__fs::filesystem::directory_iterator::~directory_iterator[abi:ne180000]()
FUNC 110760 7c 0 std::__ndk1::vector<std::__ndk1::__fs::filesystem::path, std::__ndk1::allocator<std::__ndk1::__fs::filesystem::path> >::~vector[abi:ne180000]()
FUNC 1107dc 310 0 Client::getThemeColour(std::__ndk1::basic_string<char, std::__ndk1::char_traits<char>, std::__ndk1::allocator<char> >, cocos2d::_ccColor4B)
FUNC 110aec 74 0 geode::impl::ResultData<cocos2d::_ccColor4B, std::__ndk1::basic_string<char, std::__ndk1::char_traits<char>, std::__ndk1::allocator<char> > >::~ResultData()
FUNC 110b60 110 0 Client::GetModule(std::__ndk1::basic_string<char, std::__ndk1::char_traits<char>, std::__ndk1::allocator<char> >)
FUNC 110c70 c4 0 std::__ndk1::__fs::filesystem::path::operator/=[abi:ne180000](std::__ndk1::__fs::filesystem::path const&)
FUNC 110d34 2ec 0 _ZNSt6__ndk112basic_stringIcNS_11char_traitsIcEENS_9allocatorIcEEE6appendB8ne180000IPKcTnNS_9enable_ifIXsr31__has_forward_iterator_categoryIT_EE5valueEiE4typeELi0EEERS5_SA_SA_
FUNC 111020 8 0 std::__ndk1::__variant_detail::__visitation::__base::__dispatcher<(unsigned long)0>::__dispatch[abi:ne180000]<std::__ndk1::__variant_detail::__dtor<std::__ndk1::__variant_detail::__traits<matjson::Value, std::__ndk1::basic_string<char, std::__ndk1::char_traits<char>, std::__ndk1::allocator<char> > >, (std::__ndk1::__variant_detail::_Trait)1>::__destroy[abi:ne180000]()::{lambda(auto:1&)#1}, std::__ndk1::__variant_detail::__base<(std::__ndk1::__variant_detail::__traits<matjson::Value, std::__ndk1::basic_string<char, std::__ndk1::char_traits<char>, std::__ndk1::allocator<char> > >)1, matjson, std::__ndk1::allocator<char> >&>(std::__ndk1::__variant_detail::__dtor<std::__ndk1::__variant_detail::__traits<matjson::Value, std::__ndk1::basic_string<char, std::__ndk1::char_traits<char>, std::__ndk1::allocator<char> > >, (std::__ndk1::__variant_detail::_Trait)1>, std::__ndk1::__variant_detail::__base<(std::__ndk1::__variant_detail::__traits<matjson::Value, std::__ndk1::basic_string<char, std::__ndk1::char_traits<char>, std::__ndk1::allocator<char> > >)1, matjson, std::__ndk1::allocator<char> >&)
FUNC 111028 14 0 std::__ndk1::__variant_detail::__visitation::__base::__dispatcher<(unsigned long)1>::__dispatch[abi:ne180000]<std::__ndk1::__variant_detail::__dtor<std::__ndk1::__variant_detail::__traits<matjson::Value, std::__ndk1::basic_string<char, std::__ndk1::char_traits<char>, std::__ndk1::allocator<char> > >, (std::__ndk1::__variant_detail::_Trait)1>::__destroy[abi:ne180000]()::{lambda(auto:1&)#1}, std::__ndk1::__variant_detail::__base<(std::__ndk1::__variant_detail::__traits<matjson::Value, std::__ndk1::basic_string<char, std::__ndk1::char_traits<char>, std::__ndk1::allocator<char> > >)1, matjson, std::__ndk1::allocator<char> >&>(std::__ndk1::__variant_detail::__dtor<std::__ndk1::__variant_detail::__traits<matjson::Value, std::__ndk1::basic_string<char, std::__ndk1::char_traits<char>, std::__ndk1::allocator<char> > >, (std::__ndk1::__variant_detail::_Trait)1>, std::__ndk1::__variant_detail::__base<(std::__ndk1::__variant_detail::__traits<matjson::Value, std::__ndk1::basic_string<char, std::__ndk1::char_traits<char>, std::__ndk1::allocator<char> > >)1, matjson, std::__ndk1::allocator<char> >&)
FUNC 11103c 68 0 std::__ndk1::__split_buffer<std::__ndk1::__fs::filesystem::path, std::__ndk1::allocator<std::__ndk1::__fs::filesystem::path>&>::~__split_buffer()
FUNC 1110a4 14 0 std::__ndk1::vector<std::__ndk1::__fs::filesystem::path, std::__ndk1::allocator<std::__ndk1::__fs::filesystem::path> >::__throw_length_error[abi:ne180000]() const
FUNC 1110b8 9b4 0 std::__ndk1::__introsort<std::__ndk1::_ClassicAlgPolicy, Client::sortWindows(bool)::$_0&, Window**, false>(Window**, Window**, Client::sortWindows(bool)::$_0&, std::__ndk1::iterator_traits<Window**>::difference_type, bool)
FUNC 111a6c 174 0 _ZNSt6__ndk124__sort5_maybe_branchlessB8ne180000INS_17_ClassicAlgPolicyERZN6Client11sortWindowsEbE3$_0PP6WindowTnNS_9enable_ifIXntsr21__use_branchless_sortIT0_T1_EE5valueEiE4typeELi0EEEvSA_SA_SA_SA_SA_S9_
FUNC 111be0 2f8 0 std::__ndk1::__insertion_sort_incomplete[abi:ne180000]<std::__ndk1::_ClassicAlgPolicy, Client::sortWindows(bool)::$_0&, Window**>(Window**, Window**, Client::sortWindows(bool)::$_0&)
FUNC 111ed8 a30 0 std::__ndk1::__introsort<std::__ndk1::_ClassicAlgPolicy, Client::toggleWindowVisibility(WindowTransitionType, bool)::$_0&, Window**, false>(Window**, Window**, Client::toggleWindowVisibility(WindowTransitionType, bool)::$_0&, std::__ndk1::iterator_traits<Window**>::difference_type, bool)
FUNC 112908 158 0 _ZNSt6__ndk124__sort5_maybe_branchlessB8ne180000INS_17_ClassicAlgPolicyERZN6Client22toggleWindowVisibilityE20WindowTransitionTypebE3$_0PP6WindowTnNS_9enable_ifIXntsr21__use_branchless_sortIT0_T1_EE5valueEiE4typeELi0EEEvSB_SB_SB_SB_SB_SA_
FUNC 112a60 168 0 std::__ndk1::__sort3[abi:ne180000]<std::__ndk1::_ClassicAlgPolicy, Client::toggleWindowVisibility(WindowTransitionType, bool)::$_0&, Window**>(Window**, Window**, Window**, Client::toggleWindowVisibility(WindowTransitionType, bool)::$_0&)
FUNC 112bc8 200 0 std::__ndk1::__insertion_sort_incomplete[abi:ne180000]<std::__ndk1::_ClassicAlgPolicy, Client::toggleWindowVisibility(WindowTransitionType, bool)::$_0&, Window**>(Window**, Window**, Client::toggleWindowVisibility(WindowTransitionType, bool)::$_0&)
FUNC 112dc8 110 0 std::__ndk1::__sort4[abi:ne180000]<std::__ndk1::_ClassicAlgPolicy, Client::toggleWindowVisibility(WindowTransitionType, bool)::$_0&, Window**>(Window**, Window**, Window**, Window**, Client::toggleWindowVisibility(WindowTransitionType, bool)::$_0&)
FUNC 112ed8 4 0 std::__ndk1::__variant_detail::__visitation::__base::__dispatcher<(unsigned long)0>::__dispatch[abi:ne180000]<std::__ndk1::__variant_detail::__dtor<std::__ndk1::__variant_detail::__traits<cocos2d::_ccColor4B, std::__ndk1::basic_string<char, std::__ndk1::char_traits<char>, std::__ndk1::allocator<char> > >, (std::__ndk1::__variant_detail::_Trait)1>::__destroy[abi:ne180000]()::{lambda(auto:1&)#1}, std::__ndk1::__variant_detail::__base<(std::__ndk1::__variant_detail::__traits<cocos2d::_ccColor4B, std::__ndk1::basic_string<char, std::__ndk1::char_traits<char>, std::__ndk1::allocator<char> > >)1, cocos2d, std::__ndk1::allocator<char> >&>(std::__ndk1::__variant_detail::__dtor<std::__ndk1::__variant_detail::__traits<cocos2d::_ccColor4B, std::__ndk1::basic_string<char, std::__ndk1::char_traits<char>, std::__ndk1::allocator<char> > >, (std::__ndk1::__variant_detail::_Trait)1>, std::__ndk1::__variant_detail::__base<(std::__ndk1::__variant_detail::__traits<cocos2d::_ccColor4B, std::__ndk1::basic_string<char, std::__ndk1::char_traits<char>, std::__ndk1::allocator<char> > >)1, cocos2d, std::__ndk1::allocator<char> >&)
FUNC 112edc 14 0 std::__ndk1::__variant_detail::__visitation::__base::__dispatcher<(unsigned long)1>::__dispatch[abi:ne180000]<std::__ndk1::__variant_detail::__dtor<std::__ndk1::__variant_detail::__traits<cocos2d::_ccColor4B, std::__ndk1::basic_string<char, std::__ndk1::char_traits<char>, std::__ndk1::allocator<char> > >, (std::__ndk1::__variant_detail::_Trait)1>::__destroy[abi:ne180000]()::{lambda(auto:1&)#1}, std::__ndk1::__variant_detail::__base<(std::__ndk1::__variant_detail::__traits<cocos2d::_ccColor4B, std::__ndk1::basic_string<char, std::__ndk1::char_traits<char>, std::__ndk1::allocator<char> > >)1, cocos2d, std::__ndk1::allocator<char> >&>(std::__ndk1::__variant_detail::__dtor<std::__ndk1::__variant_detail::__traits<cocos2d::_ccColor4B, std::__ndk1::basic_string<char, std::__ndk1::char_traits<char>, std::__ndk1::allocator<char> > >, (std::__ndk1::__variant_detail::_Trait)1>, std::__ndk1::__variant_detail::__base<(std::__ndk1::__variant_detail::__traits<cocos2d::_ccColor4B, std::__ndk1::basic_string<char, std::__ndk1::char_traits<char>, std::__ndk1::allocator<char> > >)1, cocos2d, std::__ndk1::allocator<char> >&)
FUNC 112ef0 74 0 geode::impl::ResultData<std::__ndk1::basic_string<char, std::__ndk1::char_traits<char>, std::__ndk1::allocator<char> >, std::__ndk1::basic_string<char, std::__ndk1::char_traits<char>, std::__ndk1::allocator<char> > >::~ResultData()
FUNC 112f64 14 0 std::__ndk1::__variant_detail::__visitation::__base::__dispatcher<(unsigned long)0>::__dispatch[abi:ne180000]<std::__ndk1::__variant_detail::__dtor<std::__ndk1::__variant_detail::__traits<std::__ndk1::basic_string<char, std::__ndk1::char_traits<char>, std::__ndk1::allocator<char> >, std::__ndk1::allocator<char> >, (std::__ndk1::__variant_detail::_Trait)1>::__destroy[abi:ne180000]()::{lambda(auto:1&)#1}, std::__ndk1::__variant_detail::__base<(std::__ndk1::__variant_detail::__traits<std::__ndk1::basic_string<char, std::__ndk1::char_traits<char>, std::__ndk1::allocator<char> >, std::__ndk1::allocator<char> >)1, std::__ndk1::allocator<char>, std::__ndk1::allocator<char> >&>(std::__ndk1::__variant_detail::__dtor<std::__ndk1::__variant_detail::__traits<std::__ndk1::basic_string<char, std::__ndk1::char_traits<char>, std::__ndk1::allocator<char> >, std::__ndk1::allocator<char> >, (std::__ndk1::__variant_detail::_Trait)1>, std::__ndk1::__variant_detail::__base<(std::__ndk1::__variant_detail::__traits<std::__ndk1::basic_string<char, std::__ndk1::char_traits<char>, std::__ndk1::allocator<char> >, std::__ndk1::allocator<char> >)1, std::__ndk1::allocator<char>, std::__ndk1::allocator<char> >&)
FUNC 112f78 14 0 std::__ndk1::__variant_detail::__visitation::__base::__dispatcher<(unsigned long)1>::__dispatch[abi:ne180000]<std::__ndk1::__variant_detail::__dtor<std::__ndk1::__variant_detail::__traits<std::__ndk1::basic_string<char, std::__ndk1::char_traits<char>, std::__ndk1::allocator<char> >, std::__ndk1::allocator<char> >, (std::__ndk1::__variant_detail::_Trait)1>::__destroy[abi:ne180000]()::{lambda(auto:1&)#1}, std::__ndk1::__variant_detail::__base<(std::__ndk1::__variant_detail::__traits<std::__ndk1::basic_string<char, std::__ndk1::char_traits<char>, std::__ndk1::allocator<char> >, std::__ndk1::allocator<char> >)1, std::__ndk1::allocator<char>, std::__ndk1::allocator<char> >&>(std::__ndk1::__variant_detail::__dtor<std::__ndk1::__variant_detail::__traits<std::__ndk1::basic_string<char, std::__ndk1::char_traits<char>, std::__ndk1::allocator<char> >, std::__ndk1::allocator<char> >, (std::__ndk1::__variant_detail::_Trait)1>, std::__ndk1::__variant_detail::__base<(std::__ndk1::__variant_detail::__traits<std::__ndk1::basic_string<char, std::__ndk1::char_traits<char>, std::__ndk1::allocator<char> >, std::__ndk1::allocator<char> >)1, std::__ndk1::allocator<char>, std::__ndk1::allocator<char> >&)
FUNC 112f8c 4 0 std::__ndk1::__function::__func<Client::initImGui()::$_0, std::__ndk1::allocator<Client::initImGui()::$_0>, void ()>::~__func()
FUNC 112f90 34 0 std::__ndk1::__function::__func<Client::initImGui()::$_0, std::__ndk1::allocator<Client::initImGui()::$_0>, void ()>::__clone() const
FUNC 112fc4 14 0 std::__ndk1::__function::__func<Client::initImGui()::$_0, std::__ndk1::allocator<Client::initImGui()::$_0>, void ()>::__clone(std::__ndk1::__function::__base<void ()>*) const
FUNC 112fd8 4 0 std::__ndk1::__function::__func<Client::initImGui()::$_0, std::__ndk1::allocator<Client::initImGui()::$_0>, void ()>::destroy()
FUNC 112fdc 4 0 std::__ndk1::__function::__func<Client::initImGui()::$_0, std::__ndk1::allocator<Client::initImGui()::$_0>, void ()>::destroy_deallocate()
FUNC 112fe0 10 0 std::__ndk1::__function::__func<Client::initImGui()::$_0, std::__ndk1::allocator<Client::initImGui()::$_0>, void ()>::operator()()
FUNC 112ff0 1c 0 std::__ndk1::__function::__func<Client::initImGui()::$_0, std::__ndk1::allocator<Client::initImGui()::$_0>, void ()>::target(std::type_info const&) const
FUNC 11300c c 0 std::__ndk1::__function::__func<Client::initImGui()::$_0, std::__ndk1::allocator<Client::initImGui()::$_0>, void ()>::target_type() const
FUNC 113018 1dc 0 geode::Mod::getSavedValue<std::__ndk1::basic_string<char, std::__ndk1::char_traits<char>, std::__ndk1::allocator<char> > >(std::__ndk1::basic_string_view<char, std::__ndk1::char_traits<char> >)
FUNC 1131f4 3c 0 std::__ndk1::__tree<std::__ndk1::__value_type<float, float>, std::__ndk1::__map_value_compare<float, std::__ndk1::__value_type<float, float>, std::__ndk1::less<float>, true>, std::__ndk1::allocator<std::__ndk1::__value_type<float, float> > >::destroy(std::__ndk1::__tree_node<std::__ndk1::__value_type<float, float>, void*>*)
FUNC 113230 4 0 std::__ndk1::__function::__func<Client::setUIScale(float)::$_0, std::__ndk1::allocator<Client::setUIScale(float)::$_0>, void ()>::~__func()
FUNC 113234 38 0 std::__ndk1::__function::__func<Client::setUIScale(float)::$_0, std::__ndk1::allocator<Client::setUIScale(float)::$_0>, void ()>::__clone() const
FUNC 11326c 18 0 std::__ndk1::__function::__func<Client::setUIScale(float)::$_0, std::__ndk1::allocator<Client::setUIScale(float)::$_0>, void ()>::__clone(std::__ndk1::__function::__base<void ()>*) const
FUNC 113284 4 0 std::__ndk1::__function::__func<Client::setUIScale(float)::$_0, std::__ndk1::allocator<Client::setUIScale(float)::$_0>, void ()>::destroy()
FUNC 113288 4 0 std::__ndk1::__function::__func<Client::setUIScale(float)::$_0, std::__ndk1::allocator<Client::setUIScale(float)::$_0>, void ()>::destroy_deallocate()
FUNC 11328c f0 0 std::__ndk1::__function::__func<Client::setUIScale(float)::$_0, std::__ndk1::allocator<Client::setUIScale(float)::$_0>, void ()>::operator()()
FUNC 11337c 1c 0 std::__ndk1::__function::__func<Client::setUIScale(float)::$_0, std::__ndk1::allocator<Client::setUIScale(float)::$_0>, void ()>::target(std::type_info const&) const
FUNC 113398 c 0 std::__ndk1::__function::__func<Client::setUIScale(float)::$_0, std::__ndk1::allocator<Client::setUIScale(float)::$_0>, void ()>::target_type() const
FUNC 1133a4 4 0 std::__ndk1::__function::__base<void ()>::~__base()
FUNC 1133a8 4 0 std::__ndk1::__function::__func<Client::setUIScale(float)::$_0::operator()() const::{lambda()#1}, std::__ndk1::allocator<Client::setUIScale(float)::$_0::operator()() const::{lambda()#1}>, void ()>::~__func()
FUNC 1133ac 38 0 std::__ndk1::__function::__func<Client::setUIScale(float)::$_0::operator()() const::{lambda()#1}, std::__ndk1::allocator<Client::setUIScale(float)::$_0::operator()() const::{lambda()#1}>, void ()>::__clone() const
FUNC 1133e4 18 0 std::__ndk1::__function::__func<Client::setUIScale(float)::$_0::operator()() const::{lambda()#1}, std::__ndk1::allocator<Client::setUIScale(float)::$_0::operator()() const::{lambda()#1}>, void ()>::__clone(std::__ndk1::__function::__base<void ()>*) const
FUNC 1133fc 4 0 std::__ndk1::__function::__func<Client::setUIScale(float)::$_0::operator()() const::{lambda()#1}, std::__ndk1::allocator<Client::setUIScale(float)::$_0::operator()() const::{lambda()#1}>, void ()>::destroy()
FUNC 113400 4 0 std::__ndk1::__function::__func<Client::setUIScale(float)::$_0::operator()() const::{lambda()#1}, std::__ndk1::allocator<Client::setUIScale(float)::$_0::operator()() const::{lambda()#1}>, void ()>::destroy_deallocate()
FUNC 113404 c 0 std::__ndk1::__function::__func<Client::setUIScale(float)::$_0::operator()() const::{lambda()#1}, std::__ndk1::allocator<Client::setUIScale(float)::$_0::operator()() const::{lambda()#1}>, void ()>::operator()()
FUNC 113410 1c 0 std::__ndk1::__function::__func<Client::setUIScale(float)::$_0::operator()() const::{lambda()#1}, std::__ndk1::allocator<Client::setUIScale(float)::$_0::operator()() const::{lambda()#1}>, void ()>::target(std::type_info const&) const
FUNC 11342c c 0 std::__ndk1::__function::__func<Client::setUIScale(float)::$_0::operator()() const::{lambda()#1}, std::__ndk1::allocator<Client::setUIScale(float)::$_0::operator()() const::{lambda()#1}>, void ()>::target_type() const
FUNC 113438 d8 0 fmt::v11::detail::value<fmt::v11::context>::format_custom_arg<std::__ndk1::optional<std::__ndk1::basic_string<char, std::__ndk1::char_traits<char>, std::__ndk1::allocator<char> > >, fmt::v11::formatter<std::__ndk1::optional<std::__ndk1::basic_string<char, std::__ndk1::char_traits<char>, std::__ndk1::allocator<char> > >, char, void> >(void*, fmt::v11::basic_format_parse_context<char>&, fmt::v11::context&)
FUNC 113510 1a4 0 fmt::v11::formatter<std::__ndk1::optional<std::__ndk1::basic_string<char, std::__ndk1::char_traits<char>, std::__ndk1::allocator<char> > >, char, void>::format<fmt::v11::context>(std::__ndk1::optional<std::__ndk1::basic_string<char, std::__ndk1::char_traits<char>, std::__ndk1::allocator<char> > > const&, fmt::v11::context&) const
FUNC 1136b4 4a4 0 fmt::v11::detail::parse_format_specs<char>(char const*, char const*, fmt::v11::detail::dynamic_format_specs<char>&, fmt::v11::basic_format_parse_context<char>&, fmt::v11::detail::type)
FUNC 113b58 1a4 0 fmt::v11::detail::parse_dynamic_spec<char>(char const*, char const*, int&, fmt::v11::detail::arg_ref<char>&, fmt::v11::basic_format_parse_context<char>&)
FUNC 113cfc 17c 0 fmt::v11::detail::do_parse_arg_id<char, fmt::v11::detail::dynamic_spec_id_handler<char>&>(char const*, char const*, fmt::v11::detail::dynamic_spec_id_handler<char>&)
FUNC 113e78 150 0 fmt::v11::detail::copy_noinline<char, char const*, fmt::v11::basic_appender<char> >(char const*, char const*, fmt::v11::basic_appender<char>)
FUNC 113fc8 114 0 fmt::v11::detail::handle_dynamic_spec<fmt::v11::detail::width_checker, fmt::v11::context>(int&, fmt::v11::detail::arg_ref<fmt::v11::context::char_type>, fmt::v11::context&)
FUNC 1140dc 114 0 fmt::v11::detail::handle_dynamic_spec<fmt::v11::detail::precision_checker, fmt::v11::context>(int&, fmt::v11::detail::arg_ref<fmt::v11::context::char_type>, fmt::v11::context&)
FUNC 1141f0 27c 0 fmt::v11::detail::write<char, fmt::v11::basic_appender<char> >(fmt::v11::basic_appender<char>, fmt::v11::basic_string_view<char>, fmt::v11::format_specs const&)
FUNC 11446c 200 0 fmt::v11::detail::write_escaped_string<char, fmt::v11::detail::counting_iterator>(fmt::v11::detail::counting_iterator, fmt::v11::basic_string_view<char>)
FUNC 11466c 20c 0 fmt::v11::detail::write_padded<char, (fmt::v11::align::type)1, fmt::v11::basic_appender<char>, fmt::v11::detail::write<char, fmt::v11::basic_appender<char> >(fmt::v11::basic_appender<char>, fmt::v11::basic_string_view<char>, fmt::v11::format_specs const&)::{lambda(fmt::v11::basic_appender<char>)#1}>(fmt::v11::basic_appender<char>, fmt::v11::format_specs const&, unsigned long, unsigned long, fmt::v11::detail::write<char, fmt::v11::basic_appender<char> >(fmt::v11::basic_appender<char>, fmt::v11::basic_string_view<char>, fmt::v11::format_specs const&)::{lambda(fmt::v11::basic_appender<char>&&)#1})
FUNC 114878 3ac 0 fmt::v11::detail::for_each_codepoint<fmt::v11::detail::code_point_index(fmt::v11::basic_string_view<char>, unsigned long)::{lambda(unsigned int, fmt::v11::basic_string_view<char>)#1}>(fmt::v11::basic_string_view<char>, fmt::v11::detail::code_point_index(fmt::v11::basic_string_view<char>, unsigned long)::{lambda(unsigned int, fmt::v11::basic_string_view<char>)#1})
FUNC 114c24 194 0 fmt::v11::detail::write_escaped_cp<fmt::v11::detail::counting_iterator, char>(fmt::v11::detail::counting_iterator, fmt::v11::detail::find_escape_result<char> const&)
FUNC 114db8 17c 0 fmt::v11::detail::for_each_codepoint<fmt::v11::detail::find_escape(char const*, char const*)::{lambda(unsigned int, fmt::v11::basic_string_view<char>)#1}>(fmt::v11::basic_string_view<char>, fmt::v11::detail::find_escape(char const*, char const*)::{lambda(unsigned int, fmt::v11::basic_string_view<char>)#1})::{lambda(char const*, char const*)#1}::operator()(char const*, char const*) const
FUNC 114f34 1b8 0 fmt::v11::detail::for_each_codepoint<fmt::v11::detail::compute_width(fmt::v11::basic_string_view<char>)::count_code_points>(fmt::v11::basic_string_view<char>, fmt::v11::detail::compute_width(fmt::v11::basic_string_view<char>)::count_code_points)::{lambda(char const*, char const*)#1}::operator()(char const*, char const*) const
FUNC 1150ec 1d0 0 fmt::v11::detail::fill<char, fmt::v11::basic_appender<char> >(fmt::v11::basic_appender<char>, unsigned long, fmt::v11::detail::fill_t const&)
FUNC 1152bc 380 0 fmt::v11::detail::write_escaped_string<char, fmt::v11::basic_appender<char> >(fmt::v11::basic_appender<char>, fmt::v11::basic_string_view<char>)
FUNC 11563c 1e4 0 fmt::v11::detail::write_escaped_cp<fmt::v11::basic_appender<char>, char>(fmt::v11::basic_appender<char>, fmt::v11::detail::find_escape_result<char> const&)
FUNC 115820 178 0 fmt::v11::detail::write_codepoint<(unsigned long)2, char, fmt::v11::basic_appender<char> >(fmt::v11::basic_appender<char>, char, unsigned int)
FUNC 115998 178 0 fmt::v11::detail::write_codepoint<(unsigned long)4, char, fmt::v11::basic_appender<char> >(fmt::v11::basic_appender<char>, char, unsigned int)
FUNC 115b10 178 0 fmt::v11::detail::write_codepoint<(unsigned long)8, char, fmt::v11::basic_appender<char> >(fmt::v11::basic_appender<char>, char, unsigned int)
FUNC 115c88 94 0 fmt::v11::detail::get_dynamic_spec<fmt::v11::detail::width_checker, fmt::v11::basic_format_arg<fmt::v11::context> >(fmt::v11::basic_format_arg<fmt::v11::context>)
FUNC 115d1c 158 0 fmt::v11::basic_format_args<fmt::v11::context>::get<char>(fmt::v11::basic_string_view<char>) const
FUNC 115e74 94 0 fmt::v11::detail::get_dynamic_spec<fmt::v11::detail::precision_checker, fmt::v11::basic_format_arg<fmt::v11::context> >(fmt::v11::basic_format_arg<fmt::v11::context>)
FUNC 115f08 438 0 std::__ndk1::__murmur2_or_cityhash<unsigned long, (unsigned long)64>::operator()[abi:ne180000](void const*, unsigned long) const
FUNC 116340 15c 0 std::__ndk1::__hash_table<std::__ndk1::__hash_value_type<unsigned long, bool>, std::__ndk1::__unordered_map_hasher<unsigned long, std::__ndk1::__hash_value_type<unsigned long, bool>, std::__ndk1::hash<unsigned long>, std::__ndk1::equal_to<unsigned long>, true>, std::__ndk1::__unordered_map_equal<unsigned long, std::__ndk1::__hash_value_type<unsigned long, bool>, std::__ndk1::equal_to<unsigned long>, std::__ndk1::hash<unsigned long>, true>, std::__ndk1::allocator<std::__ndk1::__hash_value_type<unsigned long, bool> > >::__do_rehash<true>(unsigned long)
FUNC 11649c 2cc 0 std::__ndk1::__hash_table<std::__ndk1::__hash_value_type<unsigned long, bool>, std::__ndk1::__unordered_map_hasher<unsigned long, std::__ndk1::__hash_value_type<unsigned long, bool>, std::__ndk1::hash<unsigned long>, std::__ndk1::equal_to<unsigned long>, true>, std::__ndk1::__unordered_map_equal<unsigned long, std::__ndk1::__hash_value_type<unsigned long, bool>, std::__ndk1::equal_to<unsigned long>, std::__ndk1::hash<unsigned long>, true>, std::__ndk1::allocator<std::__ndk1::__hash_value_type<unsigned long, bool> > >::__emplace_unique_key_args<unsigned long, std::__ndk1::piecewise_construct_t const&, std::__ndk1::tuple<unsigned long&&>, std::__ndk1::tuple<> >(unsigned long const&, std::__ndk1::piecewise_construct_t const&, std::__ndk1::tuple<unsigned long&&>, std::__ndk1::tuple<>)
FUNC 116768 7c 0 Dropdown::onToggleVisible(cocos2d::CCObject*)
FUNC 1167e4 250 0 Dropdown::setVis(bool)
FUNC 116a34 c8 0 Dropdown::onPress(cocos2d::CCObject*)
FUNC 116afc 144 0 Dropdown::setSelected(int)
FUNC 116c40 b4 0 Dropdown::visit()
FUNC 116cf4 680 0 Dropdown::init(cocos2d::CCSize, std::__ndk1::vector<std::__ndk1::basic_string<char, std::__ndk1::char_traits<char>, std::__ndk1::allocator<char> >, std::__ndk1::allocator<std::__ndk1::basic_string<char, std::__ndk1::char_traits<char>, std::__ndk1::allocator<char> > > >, void (cocos2d::CCObject::*)(cocos2d::CCObject*), int)
FUNC 117374 2c 0 Dropdown::registerWithTouchDispatcher()
FUNC 1173a0 1d4 0 Dropdown::create(cocos2d::CCSize, std::__ndk1::vector<std::__ndk1::basic_string<char, std::__ndk1::char_traits<char>, std::__ndk1::allocator<char> >, std::__ndk1::allocator<std::__ndk1::basic_string<char, std::__ndk1::char_traits<char>, std::__ndk1::allocator<char> > > >, void (cocos2d::CCObject::*)(cocos2d::CCObject*), int)
FUNC 117574 b8 0 Dropdown::~Dropdown()
FUNC 11762c c0 0 Dropdown::~Dropdown()
FUNC 1176ec 4 0 cocos2d::CCMenu::setOpacityModifyRGB(bool)
FUNC 1176f0 8 0 cocos2d::CCMenu::isOpacityModifyRGB()
FUNC 1176f8 8 0 cocos2d::CCMenu::isEnabled()
FUNC 117700 8 0 cocos2d::CCMenu::setEnabled(bool)
FUNC 117708 bc 0 {virtual override thunk({offset(-320)}, Dropdown::~Dropdown())}
FUNC 1177c4 c4 0 {virtual override thunk({offset(-320)}, Dropdown::~Dropdown())}
FUNC 117888 4 0 {virtual override thunk({offset(-408)}, cocos2d::CCMenu::setOpacityModifyRGB(bool))}
FUNC 11788c 8 0 {virtual override thunk({offset(-408)}, cocos2d::CCMenu::isOpacityModifyRGB())}
FUNC 117894 24 0 CCContentSizeTo::~CCContentSizeTo()
FUNC 1178b8 70 0 CCContentSizeTo::update(float)
FUNC 117928 8 0 cocos2d::CCAction::setTag(int)
FUNC 117930 40 0 CCContentSizeTo::startWithTarget(cocos2d::CCNode*)
FUNC 117970 3d8 0 std::__ndk1::vector<std::__ndk1::basic_string<char, std::__ndk1::char_traits<char>, std::__ndk1::allocator<char> >, std::__ndk1::allocator<std::__ndk1::basic_string<char, std::__ndk1::char_traits<char>, std::__ndk1::allocator<char> > > >::__assign_with_size[abi:ne180000]<std::__ndk1::basic_string<char, std::__ndk1::char_traits<char>, std::__ndk1::allocator<char> >*, std::__ndk1::vector<std::__ndk1::basic_string<char, std::__ndk1::char_traits<char>, std::__ndk1::allocator<char> >, std::__ndk1::allocator<std::__ndk1::basic_string<char, std::__ndk1::char_traits<char>, std::__ndk1::allocator<char> > > >::__assign_with_size[abi:ne180000]>(std::__ndk1::basic_string<char, std::__ndk1::char_traits<char>, std::__ndk1::allocator<char> >*, std::__ndk1::vector<std::__ndk1::basic_string<char, std::__ndk1::char_traits<char>, std::__ndk1::allocator<char> >, std::__ndk1::allocator<std::__ndk1::basic_string<char, std::__ndk1::char_traits<char>, std::__ndk1::allocator<char> > > >::__assign_with_size[abi:ne180000], long)
FUNC 117d48 14 0 std::__ndk1::vector<cocos2d::CCMenuItemSprite*, std::__ndk1::allocator<cocos2d::CCMenuItemSprite*> >::__throw_length_error[abi:ne180000]() const
FUNC 117d5c 160 0 std::__ndk1::vector<std::__ndk1::basic_string<char, std::__ndk1::char_traits<char>, std::__ndk1::allocator<char> >, std::__ndk1::allocator<std::__ndk1::basic_string<char, std::__ndk1::char_traits<char>, std::__ndk1::allocator<char> > > >::__init_with_size[abi:ne180000]<std::__ndk1::basic_string<char, std::__ndk1::char_traits<char>, std::__ndk1::allocator<char> >*, std::__ndk1::vector<std::__ndk1::basic_string<char, std::__ndk1::char_traits<char>, std::__ndk1::allocator<char> >, std::__ndk1::allocator<std::__ndk1::basic_string<char, std::__ndk1::char_traits<char>, std::__ndk1::allocator<char> > > >::__init_with_size[abi:ne180000]>(std::__ndk1::basic_string<char, std::__ndk1::char_traits<char>, std::__ndk1::allocator<char> >*, std::__ndk1::vector<std::__ndk1::basic_string<char, std::__ndk1::char_traits<char>, std::__ndk1::allocator<char> >, std::__ndk1::allocator<std::__ndk1::basic_string<char, std::__ndk1::char_traits<char>, std::__ndk1::allocator<char> > > >::__init_with_size[abi:ne180000], unsigned long)
FUNC 117ebc 135c 0 Module::drawImGui()
FUNC 119218 28c 0 Module::onToggleAndroid(cocos2d::CCObject*)
FUNC 1194a4 70 0 Module::onOptionsAndroid(cocos2d::CCObject*)
FUNC 119514 d8 0 Module::onInfoAndroid(cocos2d::CCObject*)
FUNC 1195ec 1e0 0 Module::enableHooks()
FUNC 1197cc 1e0 0 Module::disableHooks()
FUNC 1199ac 1d0 0 Module::enablePatches()
FUNC 119b7c 1d0 0 Module::disablePatches()
FUNC 119d4c 64c 0 Module::makeAndroid(cocos2d::CCNode*, cocos2d::CCPoint)
FUNC 11a398 14c 0 Module::addHookRaw(geode::Result<geode::Hook*, std::__ndk1::basic_string<char, std::__ndk1::char_traits<char>, std::__ndk1::allocator<char> > >)
FUNC 11a4e4 1f8 0 Module::addHook(geode::Hook*)
FUNC 11a6dc 74 0 geode::impl::ResultData<void, std::__ndk1::basic_string<char, std::__ndk1::char_traits<char>, std::__ndk1::allocator<char> > >::~ResultData()
FUNC 11a750 1f8 0 Module::addPatch(geode::Patch*)
FUNC 11a948 250 0 Module::save()
FUNC 11ab98 214 0 Module::load()
FUNC 11adac 108 0 Module::~Module()
FUNC 11aeb4 24 0 Module::~Module()
FUNC 11aed8 20 0 Module::onChange()
FUNC 11aef8 14 0 std::__ndk1::vector<geode::Hook*, std::__ndk1::allocator<geode::Hook*> >::__throw_length_error[abi:ne180000]() const
FUNC 11af0c 14 0 std::__ndk1::vector<geode::Patch*, std::__ndk1::allocator<geode::Patch*> >::__throw_length_error[abi:ne180000]() const
FUNC 11af20 4 0 std::__ndk1::__function::__func<Module::makeAndroid(cocos2d::CCNode*, cocos2d::CCPoint)::$_0, std::__ndk1::allocator<Module::makeAndroid(cocos2d::CCNode*, cocos2d::CCPoint)::$_0>, void ()>::~__func()
FUNC 11af24 44 0 std::__ndk1::__function::__func<Module::makeAndroid(cocos2d::CCNode*, cocos2d::CCPoint)::$_0, std::__ndk1::allocator<Module::makeAndroid(cocos2d::CCNode*, cocos2d::CCPoint)::$_0>, void ()>::__clone() const
FUNC 11af68 28 0 std::__ndk1::__function::__func<Module::makeAndroid(cocos2d::CCNode*, cocos2d::CCPoint)::$_0, std::__ndk1::allocator<Module::makeAndroid(cocos2d::CCNode*, cocos2d::CCPoint)::$_0>, void ()>::__clone(std::__ndk1::__function::__base<void ()>*) const
FUNC 11af90 4 0 std::__ndk1::__function::__func<Module::makeAndroid(cocos2d::CCNode*, cocos2d::CCPoint)::$_0, std::__ndk1::allocator<Module::makeAndroid(cocos2d::CCNode*, cocos2d::CCPoint)::$_0>, void ()>::destroy()
FUNC 11af94 4 0 std::__ndk1::__function::__func<Module::makeAndroid(cocos2d::CCNode*, cocos2d::CCPoint)::$_0, std::__ndk1::allocator<Module::makeAndroid(cocos2d::CCNode*, cocos2d::CCPoint)::$_0>, void ()>::destroy_deallocate()
FUNC 11af98 a4 0 std::__ndk1::__function::__func<Module::makeAndroid(cocos2d::CCNode*, cocos2d::CCPoint)::$_0, std::__ndk1::allocator<Module::makeAndroid(cocos2d::CCNode*, cocos2d::CCPoint)::$_0>, void ()>::operator()()
FUNC 11b03c 1c 0 std::__ndk1::__function::__func<Module::makeAndroid(cocos2d::CCNode*, cocos2d::CCPoint)::$_0, std::__ndk1::allocator<Module::makeAndroid(cocos2d::CCNode*, cocos2d::CCPoint)::$_0>, void ()>::target(std::type_info const&) const
FUNC 11b058 c 0 std::__ndk1::__function::__func<Module::makeAndroid(cocos2d::CCNode*, cocos2d::CCPoint)::$_0, std::__ndk1::allocator<Module::makeAndroid(cocos2d::CCNode*, cocos2d::CCPoint)::$_0>, void ()>::target_type() const
FUNC 11b064 4 0 std::__ndk1::__function::__func<Module::makeAndroid(cocos2d::CCNode*, cocos2d::CCPoint)::$_1, std::__ndk1::allocator<Module::makeAndroid(cocos2d::CCNode*, cocos2d::CCPoint)::$_1>, void ()>::~__func()
FUNC 11b068 44 0 std::__ndk1::__function::__func<Module::makeAndroid(cocos2d::CCNode*, cocos2d::CCPoint)::$_1, std::__ndk1::allocator<Module::makeAndroid(cocos2d::CCNode*, cocos2d::CCPoint)::$_1>, void ()>::__clone() const
FUNC 11b0ac 28 0 std::__ndk1::__function::__func<Module::makeAndroid(cocos2d::CCNode*, cocos2d::CCPoint)::$_1, std::__ndk1::allocator<Module::makeAndroid(cocos2d::CCNode*, cocos2d::CCPoint)::$_1>, void ()>::__clone(std::__ndk1::__function::__base<void ()>*) const
FUNC 11b0d4 4 0 std::__ndk1::__function::__func<Module::makeAndroid(cocos2d::CCNode*, cocos2d::CCPoint)::$_1, std::__ndk1::allocator<Module::makeAndroid(cocos2d::CCNode*, cocos2d::CCPoint)::$_1>, void ()>::destroy()
FUNC 11b0d8 4 0 std::__ndk1::__function::__func<Module::makeAndroid(cocos2d::CCNode*, cocos2d::CCPoint)::$_1, std::__ndk1::allocator<Module::makeAndroid(cocos2d::CCNode*, cocos2d::CCPoint)::$_1>, void ()>::destroy_deallocate()
FUNC 11b0dc a0 0 std::__ndk1::__function::__func<Module::makeAndroid(cocos2d::CCNode*, cocos2d::CCPoint)::$_1, std::__ndk1::allocator<Module::makeAndroid(cocos2d::CCNode*, cocos2d::CCPoint)::$_1>, void ()>::operator()()
FUNC 11b17c 1c 0 std::__ndk1::__function::__func<Module::makeAndroid(cocos2d::CCNode*, cocos2d::CCPoint)::$_1, std::__ndk1::allocator<Module::makeAndroid(cocos2d::CCNode*, cocos2d::CCPoint)::$_1>, void ()>::target(std::type_info const&) const
FUNC 11b198 c 0 std::__ndk1::__function::__func<Module::makeAndroid(cocos2d::CCNode*, cocos2d::CCPoint)::$_1, std::__ndk1::allocator<Module::makeAndroid(cocos2d::CCNode*, cocos2d::CCPoint)::$_1>, void ()>::target_type() const
FUNC 11b1a4 270 0 ColourModule::makeAndroid(cocos2d::CCNode*, cocos2d::CCPoint)
FUNC 11b414 3c 0 ColourModule::onPickColourAndroid(cocos2d::CCObject*)
FUNC 11b450 4c 0 ColourModule::updateColor(cocos2d::_ccColor4B const&)
FUNC 11b49c 50 0 {virtual override thunk({offset(-624)}, ColourModule::updateColor(cocos2d::_ccColor4B const&))}
FUNC 11b4ec 174 0 ColourModule::ColourModule(std::__ndk1::basic_string<char, std::__ndk1::char_traits<char>, std::__ndk1::allocator<char> >, std::__ndk1::basic_string<char, std::__ndk1::char_traits<char>, std::__ndk1::allocator<char> >, cocos2d::_ccColor3B)
FUNC 11b660 198 0 ColourModule::save()
FUNC 11b7f8 e4 0 geode::Mod::setSavedValue<cocos2d::_ccColor3B>(std::__ndk1::basic_string_view<char, std::__ndk1::char_traits<char> >, cocos2d::_ccColor3B const&)
FUNC 11b8dc 1b4 0 ColourModule::load()
FUNC 11ba90 1f4 0 geode::Mod::getSavedValue<cocos2d::_ccColor3B>(std::__ndk1::basic_string_view<char, std::__ndk1::char_traits<char> >, cocos2d::_ccColor3B const&)
FUNC 11bc84 24 0 ColourModule::~ColourModule()
FUNC 11bca8 180 0 geode::Mod::getSavedValue<cocos2d::_ccColor3B>(std::__ndk1::basic_string_view<char, std::__ndk1::char_traits<char> >)
FUNC 11be28 4 0 std::__ndk1::__variant_detail::__visitation::__base::__dispatcher<(unsigned long)0>::__dispatch[abi:ne180000]<std::__ndk1::__variant_detail::__dtor<std::__ndk1::__variant_detail::__traits<cocos2d::_ccColor3B, std::__ndk1::basic_string<char, std::__ndk1::char_traits<char>, std::__ndk1::allocator<char> > >, (std::__ndk1::__variant_detail::_Trait)1>::__destroy[abi:ne180000]()::{lambda(auto:1&)#1}, std::__ndk1::__variant_detail::__base<(std::__ndk1::__variant_detail::__traits<cocos2d::_ccColor3B, std::__ndk1::basic_string<char, std::__ndk1::char_traits<char>, std::__ndk1::allocator<char> > >)1, cocos2d, std::__ndk1::allocator<char> >&>(std::__ndk1::__variant_detail::__dtor<std::__ndk1::__variant_detail::__traits<cocos2d::_ccColor3B, std::__ndk1::basic_string<char, std::__ndk1::char_traits<char>, std::__ndk1::allocator<char> > >, (std::__ndk1::__variant_detail::_Trait)1>, std::__ndk1::__variant_detail::__base<(std::__ndk1::__variant_detail::__traits<cocos2d::_ccColor3B, std::__ndk1::basic_string<char, std::__ndk1::char_traits<char>, std::__ndk1::allocator<char> > >)1, cocos2d, std::__ndk1::allocator<char> >&)
FUNC 11be2c 14 0 std::__ndk1::__variant_detail::__visitation::__base::__dispatcher<(unsigned long)1>::__dispatch[abi:ne180000]<std::__ndk1::__variant_detail::__dtor<std::__ndk1::__variant_detail::__traits<cocos2d::_ccColor3B, std::__ndk1::basic_string<char, std::__ndk1::char_traits<char>, std::__ndk1::allocator<char> > >, (std::__ndk1::__variant_detail::_Trait)1>::__destroy[abi:ne180000]()::{lambda(auto:1&)#1}, std::__ndk1::__variant_detail::__base<(std::__ndk1::__variant_detail::__traits<cocos2d::_ccColor3B, std::__ndk1::basic_string<char, std::__ndk1::char_traits<char>, std::__ndk1::allocator<char> > >)1, cocos2d, std::__ndk1::allocator<char> >&>(std::__ndk1::__variant_detail::__dtor<std::__ndk1::__variant_detail::__traits<cocos2d::_ccColor3B, std::__ndk1::basic_string<char, std::__ndk1::char_traits<char>, std::__ndk1::allocator<char> > >, (std::__ndk1::__variant_detail::_Trait)1>, std::__ndk1::__variant_detail::__base<(std::__ndk1::__variant_detail::__traits<cocos2d::_ccColor3B, std::__ndk1::basic_string<char, std::__ndk1::char_traits<char>, std::__ndk1::allocator<char> > >)1, cocos2d, std::__ndk1::allocator<char> >&)
FUNC 11be40 d0 0 geode::Mod::setSavedValue<int>(std::__ndk1::basic_string_view<char, std::__ndk1::char_traits<char> >, int const&)
FUNC 11bf10 178 0 geode::Mod::getSavedValue<int>(std::__ndk1::basic_string_view<char, std::__ndk1::char_traits<char> >)
FUNC 11c088 5c 0 __cxx_global_var_init.29
FUNC 11c0e4 18 0 std::__ndk1::vector<ThreadedLabelBMFont*, std::__ndk1::allocator<ThreadedLabelBMFont*> >::~vector[abi:ne180000]()
FUNC 11c0fc 4 0 std::__ndk1::__function::__base<void (std::__ndk1::basic_string<char, std::__ndk1::char_traits<char>, std::__ndk1::allocator<char> >)>::~__base()
FUNC 11c100 1c4 0 imguiTextInputChanged(ImGuiInputTextCallbackData*)
FUNC 11c2c4 94 0 InputModule::drawImGui()
FUNC 11c358 554 0 InputModule::makeAndroid(cocos2d::CCNode*, cocos2d::CCPoint)
FUNC 11c8ac bc 0 InputModule::textChanged(CCTextInputNode*)
FUNC 11c968 c0 0 {virtual override thunk({offset(-624)}, InputModule::textChanged(CCTextInputNode*))}
FUNC 11ca28 148 0 InputModule::InputModule()
FUNC 11cb70 24c 0 InputModule::InputModule(std::__ndk1::basic_string<char, std::__ndk1::char_traits<char>, std::__ndk1::allocator<char> >, std::__ndk1::basic_string<char, std::__ndk1::char_traits<char>, std::__ndk1::allocator<char> >, std::__ndk1::basic_string<char, std::__ndk1::char_traits<char>, std::__ndk1::allocator<char> >)
FUNC 11cdbc 1ac 0 InputModule::save()
FUNC 11cf68 248 0 InputModule::load()
FUNC 11d1b0 2a8 0 InputModule::updateValue()
FUNC 11d458 1c4 0 geode::utils::numFromString<int>(std::__ndk1::basic_string_view<char, std::__ndk1::char_traits<char> >, int)
FUNC 11d61c 74 0 geode::impl::ResultData<float, std::__ndk1::basic_string<char, std::__ndk1::char_traits<char>, std::__ndk1::allocator<char> > >::~ResultData()
FUNC 11d690 90 0 InputModule::~InputModule()
FUNC 11d720 98 0 InputModule::~InputModule()
FUNC 11d7b8 128 0 std::__ndk1::basic_string<char, std::__ndk1::char_traits<char>, std::__ndk1::allocator<char> >::__assign_external(char const*, unsigned long)
FUNC 11d8e0 4 0 std::__ndk1::__function::__func<InputModule::load()::$_0, std::__ndk1::allocator<InputModule::load()::$_0>, void ()>::~__func()
FUNC 11d8e4 34 0 std::__ndk1::__function::__func<InputModule::load()::$_0, std::__ndk1::allocator<InputModule::load()::$_0>, void ()>::__clone() const
FUNC 11d918 14 0 std::__ndk1::__function::__func<InputModule::load()::$_0, std::__ndk1::allocator<InputModule::load()::$_0>, void ()>::__clone(std::__ndk1::__function::__base<void ()>*) const
FUNC 11d92c 4 0 std::__ndk1::__function::__func<InputModule::load()::$_0, std::__ndk1::allocator<InputModule::load()::$_0>, void ()>::destroy()
FUNC 11d930 4 0 std::__ndk1::__function::__func<InputModule::load()::$_0, std::__ndk1::allocator<InputModule::load()::$_0>, void ()>::destroy_deallocate()
FUNC 11d934 120 0 std::__ndk1::__function::__func<InputModule::load()::$_0, std::__ndk1::allocator<InputModule::load()::$_0>, void ()>::operator()()
FUNC 11da54 1c 0 std::__ndk1::__function::__func<InputModule::load()::$_0, std::__ndk1::allocator<InputModule::load()::$_0>, void ()>::target(std::type_info const&) const
FUNC 11da70 c 0 std::__ndk1::__function::__func<InputModule::load()::$_0, std::__ndk1::allocator<InputModule::load()::$_0>, void ()>::target_type() const
FUNC 11da7c 270 0 _ZNSt6__ndk121__from_chars_integralB8ne180000IjTnNS_9enable_ifIXsr11is_unsignedIT_EE5valueEiE4typeELi0EEENS_17from_chars_resultEPKcS7_RS2_i
FUNC 11dcec 1a0 0 _ZNSt6__ndk124__subject_seq_combinatorB8ne180000IPKcjZNS_21__from_chars_integralB8ne180000IjTnNS_9enable_ifIXsr11is_unsignedIT_EE5valueEiE4typeELi0EEENS_17from_chars_resultES2_S2_RS5_iEUlS2_S2_RjiE_JiEEES8_S5_S5_RT0_T1_DpT2_
FUNC 11de8c 208 0 _ZZNSt6__ndk121__from_chars_integralB8ne180000IjTnNS_9enable_ifIXsr11is_unsignedIT_EE5valueEiE4typeELi0EEENS_17from_chars_resultEPKcS7_RS2_iENKUlS7_S7_RjiE_clES7_S7_S9_i
FUNC 11e094 32c 0 SliderModule::makeAndroid(cocos2d::CCNode*, cocos2d::CCPoint)
FUNC 11e3c0 48 0 SliderModule::onSliderChanged(cocos2d::CCObject*)
FUNC 11e408 144 0 SliderModule::SliderModule(std::__ndk1::basic_string<char, std::__ndk1::char_traits<char>, std::__ndk1::allocator<char> >, std::__ndk1::basic_string<char, std::__ndk1::char_traits<char>, std::__ndk1::allocator<char> >, float)
FUNC 11e54c 198 0 SliderModule::save()
FUNC 11e6e4 1a0 0 SliderModule::load()
FUNC 11e884 24 0 SliderModule::~SliderModule()
FUNC 11e8a8 4dc 0 TransCustomizerModule::makeAndroid(cocos2d::CCNode*, cocos2d::CCPoint)
FUNC 11ed84 1f8 0 TransCustomizerModule::onLeft(cocos2d::CCObject*)
FUNC 11ef7c 1f8 0 TransCustomizerModule::onRight(cocos2d::CCObject*)
FUNC 11f174 4 0 TransCustomizerModule::save()
FUNC 11f178 4 0 TransCustomizerModule::load()
FUNC 11f17c 24 0 TransCustomizerModule::~TransCustomizerModule()
FUNC 11f1a0 4 0 std::__ndk1::__function::__base<void (std::__ndk1::basic_string<char, std::__ndk1::char_traits<char>, std::__ndk1::allocator<char> > const&)>::~__base()
FUNC 11f1a4 4 0 std::__ndk1::__function::__func<TransCustomizerModule::makeAndroid(cocos2d::CCNode*, cocos2d::CCPoint)::$_0, std::__ndk1::allocator<TransCustomizerModule::makeAndroid(cocos2d::CCNode*, cocos2d::CCPoint)::$_0>, void (std::__ndk1::basic_string<char, std::__ndk1::char_traits<char>, std::__ndk1::allocator<char> > const&)>::~__func()
FUNC 11f1a8 34 0 std::__ndk1::__function::__func<TransCustomizerModule::makeAndroid(cocos2d::CCNode*, cocos2d::CCPoint)::$_0, std::__ndk1::allocator<TransCustomizerModule::makeAndroid(cocos2d::CCNode*, cocos2d::CCPoint)::$_0>, void (std::__ndk1::basic_string<char, std::__ndk1::char_traits<char>, std::__ndk1::allocator<char> > const&)>::__clone() const
FUNC 11f1dc 14 0 std::__ndk1::__function::__func<TransCustomizerModule::makeAndroid(cocos2d::CCNode*, cocos2d::CCPoint)::$_0, std::__ndk1::allocator<TransCustomizerModule::makeAndroid(cocos2d::CCNode*, cocos2d::CCPoint)::$_0>, void (std::__ndk1::basic_string<char, std::__ndk1::char_traits<char>, std::__ndk1::allocator<char> > const&)>::__clone(std::__ndk1::__function::__base<void (std::__ndk1::basic_string<char, std::__ndk1::char_traits<char>, std::__ndk1::allocator<char> > const&)>*) const
FUNC 11f1f0 4 0 std::__ndk1::__function::__func<TransCustomizerModule::makeAndroid(cocos2d::CCNode*, cocos2d::CCPoint)::$_0, std::__ndk1::allocator<TransCustomizerModule::makeAndroid(cocos2d::CCNode*, cocos2d::CCPoint)::$_0>, void (std::__ndk1::basic_string<char, std::__ndk1::char_traits<char>, std::__ndk1::allocator<char> > const&)>::destroy()
FUNC 11f1f4 4 0 std::__ndk1::__function::__func<TransCustomizerModule::makeAndroid(cocos2d::CCNode*, cocos2d::CCPoint)::$_0, std::__ndk1::allocator<TransCustomizerModule::makeAndroid(cocos2d::CCNode*, cocos2d::CCPoint)::$_0>, void (std::__ndk1::basic_string<char, std::__ndk1::char_traits<char>, std::__ndk1::allocator<char> > const&)>::destroy_deallocate()
FUNC 11f1f8 214 0 std::__ndk1::__function::__func<TransCustomizerModule::makeAndroid(cocos2d::CCNode*, cocos2d::CCPoint)::$_0, std::__ndk1::allocator<TransCustomizerModule::makeAndroid(cocos2d::CCNode*, cocos2d::CCPoint)::$_0>, void (std::__ndk1::basic_string<char, std::__ndk1::char_traits<char>, std::__ndk1::allocator<char> > const&)>::operator()(std::__ndk1::basic_string<char, std::__ndk1::char_traits<char>, std::__ndk1::allocator<char> > const&)
FUNC 11f40c 1c 0 std::__ndk1::__function::__func<TransCustomizerModule::makeAndroid(cocos2d::CCNode*, cocos2d::CCPoint)::$_0, std::__ndk1::allocator<TransCustomizerModule::makeAndroid(cocos2d::CCNode*, cocos2d::CCPoint)::$_0>, void (std::__ndk1::basic_string<char, std::__ndk1::char_traits<char>, std::__ndk1::allocator<char> > const&)>::target(std::type_info const&) const
FUNC 11f428 c 0 std::__ndk1::__function::__func<TransCustomizerModule::makeAndroid(cocos2d::CCNode*, cocos2d::CCPoint)::$_0, std::__ndk1::allocator<TransCustomizerModule::makeAndroid(cocos2d::CCNode*, cocos2d::CCPoint)::$_0>, void (std::__ndk1::basic_string<char, std::__ndk1::char_traits<char>, std::__ndk1::allocator<char> > const&)>::target_type() const
FUNC 11f434 4c4 0 Window::drawImGui()
FUNC 11f8f8 4 0 Window::getPosition()
FUNC 11f8fc 30 0 Window::setPosition(cocos2d::CCPoint const&)
FUNC 11f92c 368 0 Window::cocosCreate(cocos2d::CCMenu*)
FUNC 11fc94 9c 0 Window::~Window()
FUNC 11fd30 a4 0 Window::~Window()
FUNC 11fdd4 2e4c 0 Config::cocosCreate(cocos2d::CCMenu*)
FUNC 122c20 10c 0 Config::createTabButton(std::__ndk1::basic_string<char, std::__ndk1::char_traits<char>, std::__ndk1::allocator<char> >, int)
FUNC 122d2c 7c 0 Config::onDropdownChanged(cocos2d::CCObject*)
FUNC 122da8 38 0 Config::onManageKeybinds(cocos2d::CCObject*)
FUNC 122de0 38 0 Config::onChangeLanguage(cocos2d::CCObject*)
FUNC 122e18 36c 0 Config::onSliderChanged(cocos2d::CCObject*)
FUNC 123184 b8 0 Config::onDisableGP(cocos2d::CCObject*)
FUNC 12323c b8 0 Config::onDisableEditor(cocos2d::CCObject*)
FUNC 1232f4 9f8 0 Config::createBtn(cocos2d::CCNode*, int)
FUNC 123cec 26c 0 Config::onRoxi(cocos2d::CCObject*)
FUNC 123f58 254 0 Config::onLink(cocos2d::CCObject*)
FUNC 1241ac 220 0 Config::onChangeTab(cocos2d::CCObject*)
FUNC 1243cc 20 0 geode::cocos::CCArrayExt<cocos2d::CCNode*, cocos2d::CCNode>::~CCArrayExt()
FUNC 1243ec 20 0 geode::cocos::CCArrayExt<CCMenuItemToggler*, CCMenuItemToggler>::~CCArrayExt()
FUNC 12440c 404 0 Config::changeTheme(cocos2d::CCObject*)
FUNC 124810 660 0 Config::drawImGui()
FUNC 124e70 a4 0 Config::~Config()
FUNC 124f14 14 0 std::__ndk1::vector<cocos2d::CCNode*, std::__ndk1::allocator<cocos2d::CCNode*> >::__throw_length_error[abi:ne180000]() const
FUNC 124f28 14 0 std::__ndk1::vector<cocos2d::extension::CCScale9Sprite*, std::__ndk1::allocator<cocos2d::extension::CCScale9Sprite*> >::__throw_length_error[abi:ne180000]() const
FUNC 124f3c 14 0 std::__ndk1::basic_string<char, std::__ndk1::char_traits<char>, std::__ndk1::allocator<char> >::__throw_out_of_range[abi:ne180000]() const
FUNC 124f50 50 0 std::__ndk1::__throw_out_of_range[abi:ne180000](char const*)
FUNC 124fa0 30 0 std::out_of_range::out_of_range[abi:ne180000](char const*)
FUNC 124fd0 4 0 std::__ndk1::__function::__base<void (FLAlertLayer*, bool)>::~__base()
FUNC 124fd4 4 0 std::__ndk1::__function::__func<Config::onLink(cocos2d::CCObject*)::$_0, std::__ndk1::allocator<Config::onLink(cocos2d::CCObject*)::$_0>, void (FLAlertLayer*, bool)>::~__func()
FUNC 124fd8 24 0 std::__ndk1::__function::__func<Config::onLink(cocos2d::CCObject*)::$_0, std::__ndk1::allocator<Config::onLink(cocos2d::CCObject*)::$_0>, void (FLAlertLayer*, bool)>::__clone() const
FUNC 124ffc 10 0 std::__ndk1::__function::__func<Config::onLink(cocos2d::CCObject*)::$_0, std::__ndk1::allocator<Config::onLink(cocos2d::CCObject*)::$_0>, void (FLAlertLayer*, bool)>::__clone(std::__ndk1::__function::__base<void (FLAlertLayer*, bool)>*) const
FUNC 12500c 4 0 std::__ndk1::__function::__func<Config::onLink(cocos2d::CCObject*)::$_0, std::__ndk1::allocator<Config::onLink(cocos2d::CCObject*)::$_0>, void (FLAlertLayer*, bool)>::destroy()
FUNC 125010 4 0 std::__ndk1::__function::__func<Config::onLink(cocos2d::CCObject*)::$_0, std::__ndk1::allocator<Config::onLink(cocos2d::CCObject*)::$_0>, void (FLAlertLayer*, bool)>::destroy_deallocate()
FUNC 125014 54 0 std::__ndk1::__function::__func<Config::onLink(cocos2d::CCObject*)::$_0, std::__ndk1::allocator<Config::onLink(cocos2d::CCObject*)::$_0>, void (FLAlertLayer*, bool)>::operator()(FLAlertLayer*&&, bool&&)
FUNC 125068 1c 0 std::__ndk1::__function::__func<Config::onLink(cocos2d::CCObject*)::$_0, std::__ndk1::allocator<Config::onLink(cocos2d::CCObject*)::$_0>, void (FLAlertLayer*, bool)>::target(std::type_info const&) const
FUNC 125084 c 0 std::__ndk1::__function::__func<Config::onLink(cocos2d::CCObject*)::$_0, std::__ndk1::allocator<Config::onLink(cocos2d::CCObject*)::$_0>, void (FLAlertLayer*, bool)>::target_type() const
FUNC 125090 3b8 0 EffectUI::getColourForSelected(int, bool)
FUNC 125448 164 0 EffectUI::getIncompatibleModLoaded()
FUNC 1255ac 330 0 EffectUI::getIncompatibleMods()
FUNC 1258dc 400 0 EffectUI::updateValues()
FUNC 125cdc 570 0 __cxx_global_var_init.41
FUNC 12624c 400 0 __cxx_global_var_init.42
FUNC 12664c 4 0 _GLOBAL__sub_I_IconEffects.cpp
FUNC 126650 1c 0 geode::modifier::ModifyBase<geode::modifier::ModifyDerive<hook132<(anonymous namespace)::hook132Parent>, GJBaseGameLayer> >::~ModifyBase()
FUNC 12666c 1c 0 geode::modifier::ModifyBase<geode::modifier::ModifyDerive<hook180<(anonymous namespace)::hook180Parent>, MenuLayer> >::~ModifyBase()
FUNC 126688 3d4 0 geode::modifier::ModifyDerive<hook132<(anonymous namespace)::hook132Parent>, GJBaseGameLayer>::apply()
FUNC 126a5c 4 0 geode::modifier::ModifyBase<geode::modifier::ModifyDerive<hook132<(anonymous namespace)::hook132Parent>, GJBaseGameLayer> >::apply()
FUNC 126a60 14c 0 geode::modifier::ModifyBase<geode::modifier::ModifyDerive<hook132<(anonymous namespace)::hook132Parent>, GJBaseGameLayer> >::getHook(std::__ndk1::basic_string_view<char, std::__ndk1::char_traits<char> >)
FUNC 126bac 6c 0 geode::addresser::getVirtual<void (GJBaseGameLayer::*)(float)>(void (GJBaseGameLayer::*)(float))
FUNC 126c18 2c0 0 geode::modifier::AsStaticFunction_update<hook132<(anonymous namespace)::hook132Parent>, void (hook132<(anonymous namespace)::hook132Parent>::*)(float)>::Impl<void (hook132<(anonymous namespace)::hook132Parent>::*)(float)>::function(hook132<(anonymous namespace)::hook132Parent>*, float)
FUNC 126ed8 8c 0 _ZN5geode9addresser9Addresser14cachedInstanceI15GJBaseGameLayerEEPT_vQ18HasZeroConstructorIS4_E
FUNC 126f64 71c 0 GJBaseGameLayer::GJBaseGameLayer(geode::ZeroConstructorType)
FUNC 127680 550 0 GJGameState::GJGameState()
FUNC 127bd0 78 0 geode::stl::unordered_map<int, int, geode::stl::hash<int>, geode::stl::equal_to<int>, std::__ndk1::allocator<std::__ndk1::pair<int const, int> > >::~unordered_map()
FUNC 127c48 78 0 geode::stl::unordered_set<int, geode::stl::hash<int>, geode::stl::equal_to<int>, std::__ndk1::allocator<int> >::~unordered_set()
FUNC 127cc0 84 0 geode::stl::unordered_map<int, gd::string, geode::stl::hash<int>, geode::stl::equal_to<int>, std::__ndk1::allocator<std::__ndk1::pair<int const, gd::string> > >::~unordered_map()
FUNC 127d44 1c 0 gd::map<std::__ndk1::pair<int, int>, int>::~map()
FUNC 127d60 8c 0 geode::stl::unordered_map<int, gd::vector<LabelGameObject*>, geode::stl::hash<int>, geode::stl::equal_to<int>, std::__ndk1::allocator<std::__ndk1::pair<int const, gd::vector<LabelGameObject*> > > >::~unordered_map()
FUNC 127dec 78 0 geode::stl::unordered_map<int, std::__ndk1::pair<int, int>, geode::stl::hash<int>, geode::stl::equal_to<int>, std::__ndk1::allocator<std::__ndk1::pair<int const, std::__ndk1::pair<int, int> > > >::~unordered_map()
FUNC 127e64 8c 0 geode::stl::unordered_map<int, gd::vector<GameObject*>, geode::stl::hash<int>, geode::stl::equal_to<int>, std::__ndk1::allocator<std::__ndk1::pair<int const, gd::vector<GameObject*> > > >::~unordered_map()
FUNC 127ef0 78 0 geode::stl::unordered_map<int, cocos2d::CCPoint, geode::stl::hash<int>, geode::stl::equal_to<int>, std::__ndk1::allocator<std::__ndk1::pair<int const, cocos2d::CCPoint> > >::~unordered_map()
FUNC 127f68 104 0 gd::vector<geode::stl::unordered_map<int, int, geode::stl::hash<int>, geode::stl::equal_to<int>, std::__ndk1::allocator<std::__ndk1::pair<int const, int> > > >::~vector()
FUNC 12806c 440 0 GJGameState::~GJGameState()
FUNC 1284ac 78 0 geode::stl::unordered_map<int, SongChannelState, geode::stl::hash<int>, geode::stl::equal_to<int>, std::__ndk1::allocator<std::__ndk1::pair<int const, SongChannelState> > >::~unordered_map()
FUNC 128524 1c 0 gd::map<std::__ndk1::pair<int, int>, SFXTriggerInstance>::~map()
FUNC 128540 90 0 geode::stl::unordered_map<int, std::__ndk1::vector<int, std::__ndk1::allocator<int> >, geode::stl::hash<int>, geode::stl::equal_to<int>, std::__ndk1::allocator<std::__ndk1::pair<int const, std::__ndk1::vector<int, std::__ndk1::allocator<int> > > > >::~unordered_map()
FUNC 1285d0 98 0 gd::vector<EnterEffectInstance>::~vector()
FUNC 128668 60 0 geode::stl::unordered_map<int, std::__ndk1::vector<EnterEffectInstance, std::__ndk1::allocator<EnterEffectInstance> >, geode::stl::hash<int>, geode::stl::equal_to<int>, std::__ndk1::allocator<std::__ndk1::pair<int const, std::__ndk1::vector<EnterEffectInstance, std::__ndk1::allocator<EnterEffectInstance> > > > >::~unordered_map()
FUNC 1286c8 1c 0 gd::map<std::__ndk1::pair<GJGameEvent, int>, int>::~map()
FUNC 1286e4 1c 0 gd::map<std::__ndk1::pair<GJGameEvent, int>, gd::vector<EventTriggerInstance> >::~map()
FUNC 128700 78 0 geode::stl::unordered_map<int, EnhancedGameObject*, geode::stl::hash<int>, geode::stl::equal_to<int>, std::__ndk1::allocator<std::__ndk1::pair<int const, EnhancedGameObject*> > >::~unordered_map()
FUNC 128778 78 0 geode::stl::unordered_map<int, GameObjectPhysics, geode::stl::hash<int>, geode::stl::equal_to<int>, std::__ndk1::allocator<std::__ndk1::pair<int const, GameObjectPhysics> > >::~unordered_map()
FUNC 1287f0 78 0 geode::stl::unordered_map<int, GJValueTween, geode::stl::hash<int>, geode::stl::equal_to<int>, std::__ndk1::allocator<std::__ndk1::pair<int const, GJValueTween> > >::~unordered_map()
FUNC 128868 78 0 geode::stl::unordered_map<int, bool, geode::stl::hash<int>, geode::stl::equal_to<int>, std::__ndk1::allocator<std::__ndk1::pair<int const, bool> > >::~unordered_map()
FUNC 1288e0 1cc 0 gd::map<std::__ndk1::pair<GJGameEvent, int>, gd::vector<EventTriggerInstance> >::map(std::__ndk1::map<std::__ndk1::pair<GJGameEvent, int>, gd::vector<EventTriggerInstance>, std::__ndk1::less<std::__ndk1::pair<GJGameEvent, int> >, std::__ndk1::allocator<std::__ndk1::pair<std::__ndk1::pair<GJGameEvent, int> const, gd::vector<EventTriggerInstance> > > >)
FUNC 128aac 250 0 gd::map<std::__ndk1::pair<GJGameEvent, int>, gd::vector<EventTriggerInstance> >::insert_pair(std::__ndk1::pair<std::__ndk1::pair<GJGameEvent, int>, gd::vector<EventTriggerInstance> > const&)
FUNC 128cfc 80 0 std::__ndk1::pair<std::__ndk1::pair<GJGameEvent, int>, gd::vector<EventTriggerInstance> >::~pair()
FUNC 128d7c 80 0 std::__ndk1::pair<std::__ndk1::pair<GJGameEvent, int> const, gd::vector<EventTriggerInstance> >::~pair()
FUNC 128dfc 194 0 gd::vector<EventTriggerInstance>::vector(gd::vector<EventTriggerInstance> const&)
FUNC 128f90 250 0 geode::stl::_rb_insert_rebalance(bool, geode::stl::_rb_tree_base*, geode::stl::_rb_tree_base*, geode::stl::_rb_tree_base&)
FUNC 1291e0 1c8 0 gd::vector<EventTriggerInstance>::operator=(gd::vector<EventTriggerInstance> const&)
FUNC 1293a8 80 0 gd::vector<EventTriggerInstance>::~vector()
FUNC 129428 98 0 std::__ndk1::__tree<std::__ndk1::__value_type<std::__ndk1::pair<GJGameEvent, int>, gd::vector<EventTriggerInstance> >, std::__ndk1::__map_value_compare<std::__ndk1::pair<GJGameEvent, int>, std::__ndk1::__value_type<std::__ndk1::pair<GJGameEvent, int>, gd::vector<EventTriggerInstance> >, std::__ndk1::less<std::__ndk1::pair<GJGameEvent, int> >, true>, std::__ndk1::allocator<std::__ndk1::__value_type<std::__ndk1::pair<GJGameEvent, int>, gd::vector<EventTriggerInstance> > > >::destroy(std::__ndk1::__tree_node<std::__ndk1::__value_type<std::__ndk1::pair<GJGameEvent, int>, gd::vector<EventTriggerInstance> >, void*>*)
FUNC 1294c0 4c 0 gd::map<std::__ndk1::pair<int, int>, SFXTriggerInstance>::erase(geode::stl::_rb_tree_node<std::__ndk1::pair<std::__ndk1::pair<int, int>, SFXTriggerInstance> >*)
FUNC 12950c 4c 0 gd::map<int, EnterEffectAnimValue>::erase(geode::stl::_rb_tree_node<std::__ndk1::pair<int, EnterEffectAnimValue> >*)
FUNC 129558 88 0 geode::stl::__detail::_Hashtable_alloc<std::__ndk1::allocator<geode::stl::__detail::_Hash_node<std::__ndk1::pair<int const, std::__ndk1::vector<EnterEffectInstance, std::__ndk1::allocator<EnterEffectInstance> > >, false> > >::_M_deallocate_nodes(geode::stl::__detail::_Hash_node<std::__ndk1::pair<int const, std::__ndk1::vector<EnterEffectInstance, std::__ndk1::allocator<EnterEffectInstance> > >, false>*)
FUNC 1295e0 4c 0 gd::map<std::__ndk1::pair<GJGameEvent, int>, int>::erase(geode::stl::_rb_tree_node<std::__ndk1::pair<std::__ndk1::pair<GJGameEvent, int>, int> >*)
FUNC 12962c a8 0 gd::map<std::__ndk1::pair<GJGameEvent, int>, gd::vector<EventTriggerInstance> >::erase(geode::stl::_rb_tree_node<std::__ndk1::pair<std::__ndk1::pair<GJGameEvent, int>, gd::vector<EventTriggerInstance> > >*)
FUNC 1296d4 4c 0 gd::map<std::__ndk1::pair<int, int>, int>::erase(geode::stl::_rb_tree_node<std::__ndk1::pair<std::__ndk1::pair<int, int>, int> >*)
FUNC 129720 364 0 geode::modifier::ModifyDerive<hook180<(anonymous namespace)::hook180Parent>, MenuLayer>::apply()
FUNC 129a84 4 0 geode::modifier::ModifyBase<geode::modifier::ModifyDerive<hook180<(anonymous namespace)::hook180Parent>, MenuLayer> >::apply()
FUNC 129a88 6c 0 geode::addresser::getVirtual<bool (MenuLayer::*)()>(bool (MenuLayer::*)())
FUNC 129af4 e4 0 geode::modifier::AsStaticFunction_init<hook180<(anonymous namespace)::hook180Parent>, bool (hook180<(anonymous namespace)::hook180Parent>::*)()>::Impl<bool (hook180<(anonymous namespace)::hook180Parent>::*)()>::function(hook180<(anonymous namespace)::hook180Parent>*)
FUNC 129bd8 8c 0 _ZN5geode9addresser9Addresser14cachedInstanceI9MenuLayerEEPT_vQ18HasZeroConstructorIS4_E
FUNC 129c64 9c 0 MenuLayer::MenuLayer(geode::ZeroConstructorType)
FUNC 129d00 ca0 0 Labels::cocosCreate(cocos2d::CCMenu*)
FUNC 12a9a0 1204 0 Labels::onAddItem(cocos2d::CCObject*)
FUNC 12bba4 38 0 Labels::onSetupSafeZone(cocos2d::CCObject*)
FUNC 12bbdc 704 0 Labels::onImportFromFile(cocos2d::CCObject*)
FUNC 12c2e0 10c4 0 Labels::refreshList()
FUNC 12d3a4 408 0 Labels::save()
FUNC 12d7ac 174 0 Labels::onDelete(cocos2d::CCObject*)
FUNC 12d920 4c 0 Labels::onSettings(cocos2d::CCObject*)
FUNC 12d96c 58 0 Labels::onToggleVisible(cocos2d::CCObject*)
FUNC 12d9c4 68 0 std::__ndk1::vector<matjson::Value, std::__ndk1::allocator<matjson::Value> >::~vector[abi:ne180000]()
FUNC 12da2c 440 0 Labels::load()
FUNC 12de6c 269c 0 Labels::loadFromPrevSave()
FUNC 130508 1b8 0 geode::Mod::getSavedValue<matjson::Value>(std::__ndk1::basic_string_view<char, std::__ndk1::char_traits<char> >)
FUNC 1306c0 74 0 geode::impl::ResultData<std::__ndk1::vector<matjson::Value, std::__ndk1::allocator<matjson::Value> >&, std::__ndk1::basic_string<char, std::__ndk1::char_traits<char>, std::__ndk1::allocator<char> > >::~ResultData()
FUNC 130734 50 0 geode::Task<geode::Result<std::__ndk1::vector<std::__ndk1::__fs::filesystem::path, std::__ndk1::allocator<std::__ndk1::__fs::filesystem::path> >, std::__ndk1::basic_string<char, std::__ndk1::char_traits<char>, std::__ndk1::allocator<char> > >, std::__ndk1::monostate>::~Task()
FUNC 130784 80 0 geode::utils::file::FilePickOptions::Filter::~Filter()
FUNC 130804 58 0 geode::utils::file::FilePickOptions::~FilePickOptions()
FUNC 13085c 600 0 Labels::importFromFile(std::__ndk1::__fs::filesystem::path)
FUNC 130e5c 168 0 geodeExecFunction726<(anonymous namespace)::ExecFuncUnique726>(geode::ModStateEvent*)
FUNC 130fc4 e8 0 Labels::~Labels()
FUNC 1310ac 24 0 Labels::~Labels()
FUNC 1310d0 60 0 __cxx_global_var_init.125
FUNC 131130 1c 0 geode::modifier::ModifyBase<geode::modifier::ModifyDerive<BestPlayLayer, PlayLayer> >::~ModifyBase()
FUNC 13114c 60 0 __cxx_global_var_init.126
FUNC 1311ac 1c 0 geode::modifier::ModifyBase<geode::modifier::ModifyDerive<RunPlayLayer, PlayLayer> >::~ModifyBase()
FUNC 1311c8 14 0 std::__ndk1::vector<LabelEvent, std::__ndk1::allocator<LabelEvent> >::__throw_length_error[abi:ne180000]() const
FUNC 1311dc 11c 0 std::__ndk1::vector<matjson::Value, std::__ndk1::allocator<matjson::Value> >::__push_back_slow_path<matjson::Value>(matjson::Value&&)
FUNC 1312f8 14 0 std::__ndk1::vector<matjson::Value, std::__ndk1::allocator<matjson::Value> >::__throw_length_error[abi:ne180000]() const
FUNC 13130c 7c 0 std::__ndk1::__exception_guard_exceptions<std::__ndk1::vector<matjson::Value, std::__ndk1::allocator<matjson::Value> >::__destroy_vector>::~__exception_guard_exceptions[abi:ne180000]()
FUNC 131388 4 0 std::__ndk1::__variant_detail::__visitation::__base::__dispatcher<(unsigned long)0>::__dispatch[abi:ne180000]<std::__ndk1::__variant_detail::__dtor<std::__ndk1::__variant_detail::__traits<std::__ndk1::reference_wrapper<std::__ndk1::vector<matjson::Value, std::__ndk1::allocator<matjson> > >, std::__ndk1::basic_string<char, std::__ndk1::char_traits<char>, matjson::Value<char> > >, (std::__ndk1::__variant_detail::_Trait)1>::__destroy[abi:ne180000]()::{lambda(auto:1&)#1}, std::__ndk1::__variant_detail::__base<(std::__ndk1::__variant_detail::__traits<std::__ndk1::reference_wrapper<std::__ndk1::vector<matjson::Value, std::__ndk1::allocator<matjson> > >, std::__ndk1::basic_string<char, std::__ndk1::char_traits<char>, matjson::Value<char> > >)1, std::__ndk1::vector<matjson::Value, std::__ndk1::allocator<matjson> >, matjson::Value<char> >&>(std::__ndk1::__variant_detail::__dtor<std::__ndk1::__variant_detail::__traits<std::__ndk1::reference_wrapper<std::__ndk1::vector<matjson::Value, std::__ndk1::allocator<matjson> > >, std::__ndk1::basic_string<char, std::__ndk1::char_traits<char>, matjson::Value<char> > >, (std::__ndk1::__variant_detail::_Trait)1>, std::__ndk1::__variant_detail::__base<(std::__ndk1::__variant_detail::__traits<std::__ndk1::reference_wrapper<std::__ndk1::vector<matjson::Value, std::__ndk1::allocator<matjson> > >, std::__ndk1::basic_string<char, std::__ndk1::char_traits<char>, matjson::Value<char> > >)1, std::__ndk1::vector<matjson::Value, std::__ndk1::allocator<matjson> >, matjson::Value<char> >&)
FUNC 13138c 14 0 std::__ndk1::__variant_detail::__visitation::__base::__dispatcher<(unsigned long)1>::__dispatch[abi:ne180000]<std::__ndk1::__variant_detail::__dtor<std::__ndk1::__variant_detail::__traits<std::__ndk1::reference_wrapper<std::__ndk1::vector<matjson::Value, std::__ndk1::allocator<matjson> > >, std::__ndk1::basic_string<char, std::__ndk1::char_traits<char>, matjson::Value<char> > >, (std::__ndk1::__variant_detail::_Trait)1>::__destroy[abi:ne180000]()::{lambda(auto:1&)#1}, std::__ndk1::__variant_detail::__base<(std::__ndk1::__variant_detail::__traits<std::__ndk1::reference_wrapper<std::__ndk1::vector<matjson::Value, std::__ndk1::allocator<matjson> > >, std::__ndk1::basic_string<char, std::__ndk1::char_traits<char>, matjson::Value<char> > >)1, std::__ndk1::vector<matjson::Value, std::__ndk1::allocator<matjson> >, matjson::Value<char> >&>(std::__ndk1::__variant_detail::__dtor<std::__ndk1::__variant_detail::__traits<std::__ndk1::reference_wrapper<std::__ndk1::vector<matjson::Value, std::__ndk1::allocator<matjson> > >, std::__ndk1::basic_string<char, std::__ndk1::char_traits<char>, matjson::Value<char> > >, (std::__ndk1::__variant_detail::_Trait)1>, std::__ndk1::__variant_detail::__base<(std::__ndk1::__variant_detail::__traits<std::__ndk1::reference_wrapper<std::__ndk1::vector<matjson::Value, std::__ndk1::allocator<matjson> > >, std::__ndk1::basic_string<char, std::__ndk1::char_traits<char>, matjson::Value<char> > >)1, std::__ndk1::vector<matjson::Value, std::__ndk1::allocator<matjson> >, matjson::Value<char> >&)
FUNC 1313a0 2d4 0 std::__ndk1::vector<geode::utils::file::FilePickOptions::Filter, std::__ndk1::allocator<geode::utils::file::FilePickOptions::Filter> >::__push_back_slow_path<geode::utils::file::FilePickOptions::Filter const&>(geode::utils::file::FilePickOptions::Filter const&)
FUNC 131674 12c 0 std::__ndk1::unordered_set<std::__ndk1::basic_string<char, std::__ndk1::char_traits<char>, std::__ndk1::allocator<char> >, std::__ndk1::hash<std::__ndk1::basic_string<char, std::__ndk1::char_traits<char>, std::__ndk1::allocator<char> > >, std::__ndk1::equal_to<std::__ndk1::basic_string<char, std::__ndk1::char_traits<char>, std::__ndk1::allocator<char> > >, std::__ndk1::allocator<std::__ndk1::basic_string<char, std::__ndk1::char_traits<char>, std::__ndk1::allocator<char> > > >::unordered_set(std::__ndk1::unordered_set<std::__ndk1::basic_string<char, std::__ndk1::char_traits<char>, std::__ndk1::allocator<char> >, std::__ndk1::hash<std::__ndk1::basic_string<char, std::__ndk1::char_traits<char>, std::__ndk1::allocator<char> > >, std::__ndk1::equal_to<std::__ndk1::basic_string<char, std::__ndk1::char_traits<char>, std::__ndk1::allocator<char> > >, std::__ndk1::allocator<std::__ndk1::basic_string<char, std::__ndk1::char_traits<char>, std::__ndk1::allocator<char> > > > const&)
FUNC 1317a0 70 0 std::__ndk1::__hash_table<std::__ndk1::basic_string<char, std::__ndk1::char_traits<char>, std::__ndk1::allocator<char> >, std::__ndk1::hash<std::__ndk1::basic_string<char, std::__ndk1::char_traits<char>, std::__ndk1::allocator<char> > >, std::__ndk1::equal_to<std::__ndk1::basic_string<char, std::__ndk1::char_traits<char>, std::__ndk1::allocator<char> > >, std::__ndk1::allocator<std::__ndk1::basic_string<char, std::__ndk1::char_traits<char>, std::__ndk1::allocator<char> > > >::~__hash_table()
FUNC 131810 15c 0 std::__ndk1::__hash_table<std::__ndk1::basic_string<char, std::__ndk1::char_traits<char>, std::__ndk1::allocator<char> >, std::__ndk1::hash<std::__ndk1::basic_string<char, std::__ndk1::char_traits<char>, std::__ndk1::allocator<char> > >, std::__ndk1::equal_to<std::__ndk1::basic_string<char, std::__ndk1::char_traits<char>, std::__ndk1::allocator<char> > >, std::__ndk1::allocator<std::__ndk1::basic_string<char, std::__ndk1::char_traits<char>, std::__ndk1::allocator<char> > > >::__do_rehash<true>(unsigned long)
FUNC 13196c 400 0 std::__ndk1::__hash_table<std::__ndk1::basic_string<char, std::__ndk1::char_traits<char>, std::__ndk1::allocator<char> >, std::__ndk1::hash<std::__ndk1::basic_string<char, std::__ndk1::char_traits<char>, std::__ndk1::allocator<char> > >, std::__ndk1::equal_to<std::__ndk1::basic_string<char, std::__ndk1::char_traits<char>, std::__ndk1::allocator<char> > >, std::__ndk1::allocator<std::__ndk1::basic_string<char, std::__ndk1::char_traits<char>, std::__ndk1::allocator<char> > > >::__emplace_unique_key_args<std::__ndk1::basic_string<char, std::__ndk1::char_traits<char>, std::__ndk1::allocator<char> >, std::__ndk1::basic_string<char, std::__ndk1::char_traits<char>, std::__ndk1::allocator<char> > const&>(std::__ndk1::basic_string<char, std::__ndk1::char_traits<char>, std::__ndk1::allocator<char> > const&, std::__ndk1::basic_string<char, std::__ndk1::char_traits<char>, std::__ndk1::allocator<char> > const&)
FUNC 131d6c 50 0 std::__ndk1::unique_ptr<std::__ndk1::__hash_node<std::__ndk1::basic_string<char, std::__ndk1::char_traits<char>, std::__ndk1::allocator<char> >, void*>, std::__ndk1::__hash_node_destructor<std::__ndk1::allocator<std::__ndk1::__hash_node<std::__ndk1::basic_string<char, std::__ndk1::char_traits<char>, std::__ndk1::allocator<char> >, void*> > > >::~unique_ptr[abi:ne180000]()
FUNC 131dbc 4c 0 std::__ndk1::__hash_table<std::__ndk1::basic_string<char, std::__ndk1::char_traits<char>, std::__ndk1::allocator<char> >, std::__ndk1::hash<std::__ndk1::basic_string<char, std::__ndk1::char_traits<char>, std::__ndk1::allocator<char> > >, std::__ndk1::equal_to<std::__ndk1::basic_string<char, std::__ndk1::char_traits<char>, std::__ndk1::allocator<char> > >, std::__ndk1::allocator<std::__ndk1::basic_string<char, std::__ndk1::char_traits<char>, std::__ndk1::allocator<char> > > >::__deallocate_node(std::__ndk1::__hash_node_base<std::__ndk1::__hash_node<std::__ndk1::basic_string<char, std::__ndk1::char_traits<char>, std::__ndk1::allocator<char> >, void*>*>*)
FUNC 131e08 38 0 std::__ndk1::__split_buffer<geode::utils::file::FilePickOptions::Filter, std::__ndk1::allocator<geode::utils::file::FilePickOptions::Filter>&>::~__split_buffer()
FUNC 131e40 14 0 std::__ndk1::vector<geode::utils::file::FilePickOptions::Filter, std::__ndk1::allocator<geode::utils::file::FilePickOptions::Filter> >::__throw_length_error[abi:ne180000]() const
FUNC 131e54 a8 0 std::__ndk1::__split_buffer<geode::utils::file::FilePickOptions::Filter, std::__ndk1::allocator<geode::utils::file::FilePickOptions::Filter>&>::__destruct_at_end[abi:ne180000](geode::utils::file::FilePickOptions::Filter*)
FUNC 131efc a4 0 std::__ndk1::vector<geode::utils::file::FilePickOptions::Filter, std::__ndk1::allocator<geode::utils::file::FilePickOptions::Filter> >::__base_destruct_at_end[abi:ne180000](geode::utils::file::FilePickOptions::Filter*)
FUNC 131fa0 3c0 0 geode::modifier::ModifyBase<geode::modifier::ModifyDerive<BestPlayLayer, PlayLayer> >::ModifyBase()
FUNC 132360 514 0 geode::modifier::ModifyDerive<BestPlayLayer, PlayLayer>::apply()
FUNC 132874 4 0 geode::modifier::ModifyBase<geode::modifier::ModifyDerive<BestPlayLayer, PlayLayer> >::apply()
FUNC 132878 6c 0 geode::addresser::getVirtual<void (PlayLayer::*)(PlayerObject*, GameObject*)>(void (PlayLayer::*)(PlayerObject*, GameObject*))
FUNC 1328e4 118 0 geode::Hook::create<void (*)(BestPlayLayer*, PlayerObject*, GameObject*)>(void*, void (*)(BestPlayLayer*, PlayerObject*, GameObject*), std::__ndk1::basic_string<char, std::__ndk1::char_traits<char>, std::__ndk1::allocator<char> > const&, tulip::hook::TulipConvention, tulip::hook::HookMetadata const&)
FUNC 1329fc 4 0 geode::modifier::AsStaticFunction_destroyPlayer<BestPlayLayer, void (BestPlayLayer::*)(PlayerObject*, GameObject*)>::Impl<void (BestPlayLayer::*)(PlayerObject*, GameObject*)>::function(BestPlayLayer*, PlayerObject*, GameObject*)
FUNC 132a00 134 0 geode::Hook::create<void (*)(BestPlayLayer*)>(void*, void (*)(BestPlayLayer*), std::__ndk1::basic_string<char, std::__ndk1::char_traits<char>, std::__ndk1::allocator<char> > const&, tulip::hook::TulipConvention, tulip::hook::HookMetadata const&)
FUNC 132b34 44 0 geode::modifier::AsStaticFunction_resetLevel<BestPlayLayer, void (BestPlayLayer::*)()>::Impl<void (BestPlayLayer::*)()>::function(BestPlayLayer*)
FUNC 132b78 8c 0 _ZN5geode9addresser9Addresser14cachedInstanceI9PlayLayerEEPT_vQ18HasZeroConstructorIS4_E
FUNC 132c04 94 0 PlayLayer::PlayLayer(geode::ZeroConstructorType)
FUNC 132c98 718 0 GJBaseGameLayer::GJBaseGameLayer(geode::ZeroConstructorType, unsigned long)
FUNC 1333b0 f8 0 tulip::hook::AbstractFunction::from<void, BestPlayLayer*, PlayerObject*, GameObject*>(void (*)(BestPlayLayer*, PlayerObject*, GameObject*))
FUNC 1334a8 3c0 0 geode::modifier::ModifyBase<geode::modifier::ModifyDerive<RunPlayLayer, PlayLayer> >::ModifyBase()
FUNC 133868 2c4 0 geode::modifier::ModifyDerive<RunPlayLayer, PlayLayer>::apply()
FUNC 133b2c 4 0 geode::modifier::ModifyBase<geode::modifier::ModifyDerive<RunPlayLayer, PlayLayer> >::apply()
FUNC 133b30 134 0 geode::Hook::create<void (*)(RunPlayLayer*)>(void*, void (*)(RunPlayLayer*), std::__ndk1::basic_string<char, std::__ndk1::char_traits<char>, std::__ndk1::allocator<char> > const&, tulip::hook::TulipConvention, tulip::hook::HookMetadata const&)
FUNC 133c64 44 0 geode::modifier::AsStaticFunction_resetLevel<RunPlayLayer, void (RunPlayLayer::*)()>::Impl<void (RunPlayLayer::*)()>::function(RunPlayLayer*)
FUNC 133ca8 4 0 std::__ndk1::__function::__func<Labels::onDelete(cocos2d::CCObject*)::$_0, std::__ndk1::allocator<Labels::onDelete(cocos2d::CCObject*)::$_0>, void (FLAlertLayer*, bool)>::~__func()
FUNC 133cac 38 0 std::__ndk1::__function::__func<Labels::onDelete(cocos2d::CCObject*)::$_0, std::__ndk1::allocator<Labels::onDelete(cocos2d::CCObject*)::$_0>, void (FLAlertLayer*, bool)>::__clone() const
FUNC 133ce4 18 0 std::__ndk1::__function::__func<Labels::onDelete(cocos2d::CCObject*)::$_0, std::__ndk1::allocator<Labels::onDelete(cocos2d::CCObject*)::$_0>, void (FLAlertLayer*, bool)>::__clone(std::__ndk1::__function::__base<void (FLAlertLayer*, bool)>*) const
FUNC 133cfc 4 0 std::__ndk1::__function::__func<Labels::onDelete(cocos2d::CCObject*)::$_0, std::__ndk1::allocator<Labels::onDelete(cocos2d::CCObject*)::$_0>, void (FLAlertLayer*, bool)>::destroy()
FUNC 133d00 4 0 std::__ndk1::__function::__func<Labels::onDelete(cocos2d::CCObject*)::$_0, std::__ndk1::allocator<Labels::onDelete(cocos2d::CCObject*)::$_0>, void (FLAlertLayer*, bool)>::destroy_deallocate()
FUNC 133d04 114 0 std::__ndk1::__function::__func<Labels::onDelete(cocos2d::CCObject*)::$_0, std::__ndk1::allocator<Labels::onDelete(cocos2d::CCObject*)::$_0>, void (FLAlertLayer*, bool)>::operator()(FLAlertLayer*&&, bool&&)
FUNC 133e18 1c 0 std::__ndk1::__function::__func<Labels::onDelete(cocos2d::CCObject*)::$_0, std::__ndk1::allocator<Labels::onDelete(cocos2d::CCObject*)::$_0>, void (FLAlertLayer*, bool)>::target(std::type_info const&) const
FUNC 133e34 c 0 std::__ndk1::__function::__func<Labels::onDelete(cocos2d::CCObject*)::$_0, std::__ndk1::allocator<Labels::onDelete(cocos2d::CCObject*)::$_0>, void (FLAlertLayer*, bool)>::target_type() const
FUNC 133e40 4 0 std::__ndk1::__function::__func<Labels::refreshList()::$_1, std::__ndk1::allocator<Labels::refreshList()::$_1>, void (std::__ndk1::basic_string<char, std::__ndk1::char_traits<char>, std::__ndk1::allocator<char> > const&)>::~__func()
FUNC 133e44 38 0 std::__ndk1::__function::__func<Labels::refreshList()::$_1, std::__ndk1::allocator<Labels::refreshList()::$_1>, void (std::__ndk1::basic_string<char, std::__ndk1::char_traits<char>, std::__ndk1::allocator<char> > const&)>::__clone() const
FUNC 133e7c 18 0 std::__ndk1::__function::__func<Labels::refreshList()::$_1, std::__ndk1::allocator<Labels::refreshList()::$_1>, void (std::__ndk1::basic_string<char, std::__ndk1::char_traits<char>, std::__ndk1::allocator<char> > const&)>::__clone(std::__ndk1::__function::__base<void (std::__ndk1::basic_string<char, std::__ndk1::char_traits<char>, std::__ndk1::allocator<char> > const&)>*) const
FUNC 133e94 4 0 std::__ndk1::__function::__func<Labels::refreshList()::$_1, std::__ndk1::allocator<Labels::refreshList()::$_1>, void (std::__ndk1::basic_string<char, std::__ndk1::char_traits<char>, std::__ndk1::allocator<char> > const&)>::destroy()
FUNC 133e98 4 0 std::__ndk1::__function::__func<Labels::refreshList()::$_1, std::__ndk1::allocator<Labels::refreshList()::$_1>, void (std::__ndk1::basic_string<char, std::__ndk1::char_traits<char>, std::__ndk1::allocator<char> > const&)>::destroy_deallocate()
FUNC 133e9c 80 0 std::__ndk1::__function::__func<Labels::refreshList()::$_1, std::__ndk1::allocator<Labels::refreshList()::$_1>, void (std::__ndk1::basic_string<char, std::__ndk1::char_traits<char>, std::__ndk1::allocator<char> > const&)>::operator()(std::__ndk1::basic_string<char, std::__ndk1::char_traits<char>, std::__ndk1::allocator<char> > const&)
FUNC 133f1c 1c 0 std::__ndk1::__function::__func<Labels::refreshList()::$_1, std::__ndk1::allocator<Labels::refreshList()::$_1>, void (std::__ndk1::basic_string<char, std::__ndk1::char_traits<char>, std::__ndk1::allocator<char> > const&)>::target(std::type_info const&) const
FUNC 133f38 c 0 std::__ndk1::__function::__func<Labels::refreshList()::$_1, std::__ndk1::allocator<Labels::refreshList()::$_1>, void (std::__ndk1::basic_string<char, std::__ndk1::char_traits<char>, std::__ndk1::allocator<char> > const&)>::target_type() const
FUNC 133f44 4 0 std::__ndk1::__function::__func<Labels::refreshList()::$_2, std::__ndk1::allocator<Labels::refreshList()::$_2>, void ()>::~__func()
FUNC 133f48 38 0 std::__ndk1::__function::__func<Labels::refreshList()::$_2, std::__ndk1::allocator<Labels::refreshList()::$_2>, void ()>::__clone() const
FUNC 133f80 18 0 std::__ndk1::__function::__func<Labels::refreshList()::$_2, std::__ndk1::allocator<Labels::refreshList()::$_2>, void ()>::__clone(std::__ndk1::__function::__base<void ()>*) const
FUNC 133f98 4 0 std::__ndk1::__function::__func<Labels::refreshList()::$_2, std::__ndk1::allocator<Labels::refreshList()::$_2>, void ()>::destroy()
FUNC 133f9c 4 0 std::__ndk1::__function::__func<Labels::refreshList()::$_2, std::__ndk1::allocator<Labels::refreshList()::$_2>, void ()>::destroy_deallocate()
FUNC 133fa0 8c 0 std::__ndk1::__function::__func<Labels::refreshList()::$_2, std::__ndk1::allocator<Labels::refreshList()::$_2>, void ()>::operator()()
FUNC 13402c 1c 0 std::__ndk1::__function::__func<Labels::refreshList()::$_2, std::__ndk1::allocator<Labels::refreshList()::$_2>, void ()>::target(std::type_info const&) const
FUNC 134048 c 0 std::__ndk1::__function::__func<Labels::refreshList()::$_2, std::__ndk1::allocator<Labels::refreshList()::$_2>, void ()>::target_type() const
FUNC 134054 4 0 std::__ndk1::__function::__func<Labels::refreshList()::$_0, std::__ndk1::allocator<Labels::refreshList()::$_0>, void ()>::~__func()
FUNC 134058 40 0 std::__ndk1::__function::__func<Labels::refreshList()::$_0, std::__ndk1::allocator<Labels::refreshList()::$_0>, void ()>::__clone() const
FUNC 134098 20 0 std::__ndk1::__function::__func<Labels::refreshList()::$_0, std::__ndk1::allocator<Labels::refreshList()::$_0>, void ()>::__clone(std::__ndk1::__function::__base<void ()>*) const
FUNC 1340b8 4 0 std::__ndk1::__function::__func<Labels::refreshList()::$_0, std::__ndk1::allocator<Labels::refreshList()::$_0>, void ()>::destroy()
FUNC 1340bc 4 0 std::__ndk1::__function::__func<Labels::refreshList()::$_0, std::__ndk1::allocator<Labels::refreshList()::$_0>, void ()>::destroy_deallocate()
FUNC 1340c0 268 0 std::__ndk1::__function::__func<Labels::refreshList()::$_0, std::__ndk1::allocator<Labels::refreshList()::$_0>, void ()>::operator()()
FUNC 134328 1c 0 std::__ndk1::__function::__func<Labels::refreshList()::$_0, std::__ndk1::allocator<Labels::refreshList()::$_0>, void ()>::target(std::type_info const&) const
FUNC 134344 c 0 std::__ndk1::__function::__func<Labels::refreshList()::$_0, std::__ndk1::allocator<Labels::refreshList()::$_0>, void ()>::target_type() const
FUNC 134350 a94 0 std::__ndk1::__introsort<std::__ndk1::_ClassicAlgPolicy, Labels::refreshList()::$_0::operator()() const::{lambda(cocos2d::CCNode*, cocos2d::CCNode*)#1}&, cocos2d::CCNode**, false>(cocos2d::CCNode**, cocos2d::CCNode**, Labels::refreshList()::$_0::operator()() const::{lambda(cocos2d::CCNode*, cocos2d::CCNode*)#1}&, std::__ndk1::iterator_traits<cocos2d::CCNode**>::difference_type, bool)
FUNC 134de4 158 0 std::__ndk1::__sort3[abi:ne180000]<std::__ndk1::_ClassicAlgPolicy, Labels::refreshList()::$_0::operator()() const::{lambda(cocos2d::CCNode*, cocos2d::CCNode&)#1}, cocos2d::CCNode*>(cocos2d::CCNode*, cocos2d::CCNode*, cocos2d::CCNode*, Labels::refreshList()::$_0::operator()() const::{lambda(cocos2d::CCNode*, cocos2d::CCNode&)#1})
FUNC 134f3c 2d0 0 std::__ndk1::__insertion_sort_incomplete[abi:ne180000]<std::__ndk1::_ClassicAlgPolicy, Labels::refreshList()::$_0::operator()() const::{lambda(cocos2d::CCNode*, cocos2d::CCNode&)#1}, cocos2d::CCNode*>(cocos2d::CCNode*, cocos2d::CCNode*, Labels::refreshList()::$_0::operator()() const::{lambda(cocos2d::CCNode*, cocos2d::CCNode&)#1})
FUNC 13520c 104 0 std::__ndk1::__sort4[abi:ne180000]<std::__ndk1::_ClassicAlgPolicy, Labels::refreshList()::$_0::operator()() const::{lambda(cocos2d::CCNode*, cocos2d::CCNode&)#1}, cocos2d::CCNode*>(cocos2d::CCNode*, cocos2d::CCNode*, cocos2d::CCNode*, cocos2d::CCNode*, Labels::refreshList()::$_0::operator()() const::{lambda(cocos2d::CCNode*, cocos2d::CCNode&)#1})
FUNC 135310 16c 0 std::__ndk1::__hash_table<std::__ndk1::basic_string<char, std::__ndk1::char_traits<char>, std::__ndk1::allocator<char> >, std::__ndk1::hash<std::__ndk1::basic_string<char, std::__ndk1::char_traits<char>, std::__ndk1::allocator<char> > >, std::__ndk1::equal_to<std::__ndk1::basic_string<char, std::__ndk1::char_traits<char>, std::__ndk1::allocator<char> > >, std::__ndk1::allocator<std::__ndk1::basic_string<char, std::__ndk1::char_traits<char>, std::__ndk1::allocator<char> > > >::__assign_unique<std::__ndk1::basic_string<char, std::__ndk1::char_traits<char>, std::__ndk1::allocator<char> > const*>(std::__ndk1::basic_string<char, std::__ndk1::char_traits<char>, std::__ndk1::allocator<char> > const*, std::__ndk1::basic_string<char, std::__ndk1::char_traits<char>, std::__ndk1::allocator<char> > const*)
FUNC 13547c 158 0 std::__ndk1::__hash_table<std::__ndk1::basic_string<char, std::__ndk1::char_traits<char>, std::__ndk1::allocator<char> >, std::__ndk1::hash<std::__ndk1::basic_string<char, std::__ndk1::char_traits<char>, std::__ndk1::allocator<char> > >, std::__ndk1::equal_to<std::__ndk1::basic_string<char, std::__ndk1::char_traits<char>, std::__ndk1::allocator<char> > >, std::__ndk1::allocator<std::__ndk1::basic_string<char, std::__ndk1::char_traits<char>, std::__ndk1::allocator<char> > > >::__node_insert_unique(std::__ndk1::__hash_node<std::__ndk1::basic_string<char, std::__ndk1::char_traits<char>, std::__ndk1::allocator<char> >, void*>*)
FUNC 1355d4 270 0 std::__ndk1::__hash_table<std::__ndk1::basic_string<char, std::__ndk1::char_traits<char>, std::__ndk1::allocator<char> >, std::__ndk1::hash<std::__ndk1::basic_string<char, std::__ndk1::char_traits<char>, std::__ndk1::allocator<char> > >, std::__ndk1::equal_to<std::__ndk1::basic_string<char, std::__ndk1::char_traits<char>, std::__ndk1::allocator<char> > >, std::__ndk1::allocator<std::__ndk1::basic_string<char, std::__ndk1::char_traits<char>, std::__ndk1::allocator<char> > > >::__node_insert_unique_prepare[abi:ne180000](unsigned long, std::__ndk1::basic_string<char, std::__ndk1::char_traits<char>, std::__ndk1::allocator<char> >&)
FUNC 135844 4 0 geode::EventListener<geode::Task<geode::Result<std::__ndk1::vector<std::__ndk1::__fs::filesystem::path, std::__ndk1::allocator<std::__ndk1::__fs::filesystem::path> >, std::__ndk1::basic_string<char, std::__ndk1::char_traits<char>, std::__ndk1::allocator<char> > >, std::__ndk1::monostate> >::getPool() const
FUNC 135848 1ac 0 geode::EventListener<geode::Task<geode::Result<std::__ndk1::vector<std::__ndk1::__fs::filesystem::path, std::__ndk1::allocator<std::__ndk1::__fs::filesystem::path> >, std::__ndk1::basic_string<char, std::__ndk1::char_traits<char>, std::__ndk1::allocator<char> > >, std::__ndk1::monostate> >::handle(geode::Event*)
FUNC 1359f4 8c 0 geode::EventListener<geode::Task<geode::Result<std::__ndk1::vector<std::__ndk1::__fs::filesystem::path, std::__ndk1::allocator<std::__ndk1::__fs::filesystem::path> >, std::__ndk1::basic_string<char, std::__ndk1::char_traits<char>, std::__ndk1::allocator<char> > >, std::__ndk1::monostate> >::~EventListener()
FUNC 135a80 94 0 geode::EventListener<geode::Task<geode::Result<std::__ndk1::vector<std::__ndk1::__fs::filesystem::path, std::__ndk1::allocator<std::__ndk1::__fs::filesystem::path> >, std::__ndk1::basic_string<char, std::__ndk1::char_traits<char>, std::__ndk1::allocator<char> > >, std::__ndk1::monostate> >::~EventListener()
FUNC 135b14 50 0 geode::Task<geode::Result<std::__ndk1::vector<std::__ndk1::__fs::filesystem::path, std::__ndk1::allocator<std::__ndk1::__fs::filesystem::path> >, std::__ndk1::basic_string<char, std::__ndk1::char_traits<char>, std::__ndk1::allocator<char> > >, std::__ndk1::monostate>::setListener(geode::EventListenerProtocol*)::{lambda()#1}::~{lambda()#1}()
FUNC 135b64 50 0 geode::Task<geode::Result<std::__ndk1::vector<std::__ndk1::__fs::filesystem::path, std::__ndk1::allocator<std::__ndk1::__fs::filesystem::path> >, std::__ndk1::basic_string<char, std::__ndk1::char_traits<char>, std::__ndk1::allocator<char> > >, std::__ndk1::monostate>::setListener(geode::EventListenerProtocol*)::{lambda()#2}::~{lambda()#2}()
FUNC 135bb4 5c 0 std::__ndk1::__function::__func<geode::Task<geode::Result<std::__ndk1::vector<std::__ndk1::__fs::filesystem::path, std::__ndk1::allocator<std::__ndk1::__fs::filesystem::path> >, std::__ndk1::basic_string<char, std::__ndk1::char_traits<char>, std::__ndk1::allocator<char> > >, std::__ndk1::monostate>::setListener(geode::EventListenerProtocol*)::{lambda()#1}, std::__ndk1::allocator<geode::Task<geode::Result<std::__ndk1::vector<std::__ndk1::__fs::filesystem::path, std::__ndk1::allocator<std::__ndk1::__fs::filesystem::path> >, std::__ndk1::basic_string<char, std::__ndk1::char_traits<char>, std::__ndk1::allocator<char> > >, std::__ndk1::monostate>::setListener(geode::EventListenerProtocol*)::{lambda()#1}>, void ()>::~__func()
FUNC 135c10 5c 0 std::__ndk1::__function::__func<geode::Task<geode::Result<std::__ndk1::vector<std::__ndk1::__fs::filesystem::path, std::__ndk1::allocator<std::__ndk1::__fs::filesystem::path> >, std::__ndk1::basic_string<char, std::__ndk1::char_traits<char>, std::__ndk1::allocator<char> > >, std::__ndk1::monostate>::setListener(geode::EventListenerProtocol*)::{lambda()#1}, std::__ndk1::allocator<geode::Task<geode::Result<std::__ndk1::vector<std::__ndk1::__fs::filesystem::path, std::__ndk1::allocator<std::__ndk1::__fs::filesystem::path> >, std::__ndk1::basic_string<char, std::__ndk1::char_traits<char>, std::__ndk1::allocator<char> > >, std::__ndk1::monostate>::setListener(geode::EventListenerProtocol*)::{lambda()#1}>, void ()>::~__func()
FUNC 135c6c 58 0 std::__ndk1::__function::__func<geode::Task<geode::Result<std::__ndk1::vector<std::__ndk1::__fs::filesystem::path, std::__ndk1::allocator<std::__ndk1::__fs::filesystem::path> >, std::__ndk1::basic_string<char, std::__ndk1::char_traits<char>, std::__ndk1::allocator<char> > >, std::__ndk1::monostate>::setListener(geode::EventListenerProtocol*)::{lambda()#1}, std::__ndk1::allocator<geode::Task<geode::Result<std::__ndk1::vector<std::__ndk1::__fs::filesystem::path, std::__ndk1::allocator<std::__ndk1::__fs::filesystem::path> >, std::__ndk1::basic_string<char, std::__ndk1::char_traits<char>, std::__ndk1::allocator<char> > >, std::__ndk1::monostate>::setListener(geode::EventListenerProtocol*)::{lambda()#1}>, void ()>::__clone() const
FUNC 135cc4 4c 0 std::__ndk1::__function::__func<geode::Task<geode::Result<std::__ndk1::vector<std::__ndk1::__fs::filesystem::path, std::__ndk1::allocator<std::__ndk1::__fs::filesystem::path> >, std::__ndk1::basic_string<char, std::__ndk1::char_traits<char>, std::__ndk1::allocator<char> > >, std::__ndk1::monostate>::setListener(geode::EventListenerProtocol*)::{lambda()#1}, std::__ndk1::allocator<geode::Task<geode::Result<std::__ndk1::vector<std::__ndk1::__fs::filesystem::path, std::__ndk1::allocator<std::__ndk1::__fs::filesystem::path> >, std::__ndk1::basic_string<char, std::__ndk1::char_traits<char>, std::__ndk1::allocator<char> > >, std::__ndk1::monostate>::setListener(geode::EventListenerProtocol*)::{lambda()#1}>, void ()>::__clone(std::__ndk1::__function::__base<void ()>*) const
FUNC 135d10 50 0 std::__ndk1::__function::__func<geode::Task<geode::Result<std::__ndk1::vector<std::__ndk1::__fs::filesystem::path, std::__ndk1::allocator<std::__ndk1::__fs::filesystem::path> >, std::__ndk1::basic_string<char, std::__ndk1::char_traits<char>, std::__ndk1::allocator<char> > >, std::__ndk1::monostate>::setListener(geode::EventListenerProtocol*)::{lambda()#1}, std::__ndk1::allocator<geode::Task<geode::Result<std::__ndk1::vector<std::__ndk1::__fs::filesystem::path, std::__ndk1::allocator<std::__ndk1::__fs::filesystem::path> >, std::__ndk1::basic_string<char, std::__ndk1::char_traits<char>, std::__ndk1::allocator<char> > >, std::__ndk1::monostate>::setListener(geode::EventListenerProtocol*)::{lambda()#1}>, void ()>::destroy()
FUNC 135d60 50 0 std::__ndk1::__function::__func<geode::Task<geode::Result<std::__ndk1::vector<std::__ndk1::__fs::filesystem::path, std::__ndk1::allocator<std::__ndk1::__fs::filesystem::path> >, std::__ndk1::basic_string<char, std::__ndk1::char_traits<char>, std::__ndk1::allocator<char> > >, std::__ndk1::monostate>::setListener(geode::EventListenerProtocol*)::{lambda()#1}, std::__ndk1::allocator<geode::Task<geode::Result<std::__ndk1::vector<std::__ndk1::__fs::filesystem::path, std::__ndk1::allocator<std::__ndk1::__fs::filesystem::path> >, std::__ndk1::basic_string<char, std::__ndk1::char_traits<char>, std::__ndk1::allocator<char> > >, std::__ndk1::monostate>::setListener(geode::EventListenerProtocol*)::{lambda()#1}>, void ()>::destroy_deallocate()
FUNC 135db0 198 0 std::__ndk1::__function::__func<geode::Task<geode::Result<std::__ndk1::vector<std::__ndk1::__fs::filesystem::path, std::__ndk1::allocator<std::__ndk1::__fs::filesystem::path> >, std::__ndk1::basic_string<char, std::__ndk1::char_traits<char>, std::__ndk1::allocator<char> > >, std::__ndk1::monostate>::setListener(geode::EventListenerProtocol*)::{lambda()#1}, std::__ndk1::allocator<geode::Task<geode::Result<std::__ndk1::vector<std::__ndk1::__fs::filesystem::path, std::__ndk1::allocator<std::__ndk1::__fs::filesystem::path> >, std::__ndk1::basic_string<char, std::__ndk1::char_traits<char>, std::__ndk1::allocator<char> > >, std::__ndk1::monostate>::setListener(geode::EventListenerProtocol*)::{lambda()#1}>, void ()>::operator()()
FUNC 135f48 1c 0 std::__ndk1::__function::__func<geode::Task<geode::Result<std::__ndk1::vector<std::__ndk1::__fs::filesystem::path, std::__ndk1::allocator<std::__ndk1::__fs::filesystem::path> >, std::__ndk1::basic_string<char, std::__ndk1::char_traits<char>, std::__ndk1::allocator<char> > >, std::__ndk1::monostate>::setListener(geode::EventListenerProtocol*)::{lambda()#1}, std::__ndk1::allocator<geode::Task<geode::Result<std::__ndk1::vector<std::__ndk1::__fs::filesystem::path, std::__ndk1::allocator<std::__ndk1::__fs::filesystem::path> >, std::__ndk1::basic_string<char, std::__ndk1::char_traits<char>, std::__ndk1::allocator<char> > >, std::__ndk1::monostate>::setListener(geode::EventListenerProtocol*)::{lambda()#1}>, void ()>::target(std::type_info const&) const
FUNC 135f64 c 0 std::__ndk1::__function::__func<geode::Task<geode::Result<std::__ndk1::vector<std::__ndk1::__fs::filesystem::path, std::__ndk1::allocator<std::__ndk1::__fs::filesystem::path> >, std::__ndk1::basic_string<char, std::__ndk1::char_traits<char>, std::__ndk1::allocator<char> > >, std::__ndk1::monostate>::setListener(geode::EventListenerProtocol*)::{lambda()#1}, std::__ndk1::allocator<geode::Task<geode::Result<std::__ndk1::vector<std::__ndk1::__fs::filesystem::path, std::__ndk1::allocator<std::__ndk1::__fs::filesystem::path> >, std::__ndk1::basic_string<char, std::__ndk1::char_traits<char>, std::__ndk1::allocator<char> > >, std::__ndk1::monostate>::setListener(geode::EventListenerProtocol*)::{lambda()#1}>, void ()>::target_type() const
FUNC 135f70 50 0 geode::Task<geode::Result<std::__ndk1::vector<std::__ndk1::__fs::filesystem::path, std::__ndk1::allocator<std::__ndk1::__fs::filesystem::path> >, std::__ndk1::basic_string<char, std::__ndk1::char_traits<char>, std::__ndk1::allocator<char> > >, std::__ndk1::monostate>::Event::~Event()
FUNC 135fc0 58 0 geode::Task<geode::Result<std::__ndk1::vector<std::__ndk1::__fs::filesystem::path, std::__ndk1::allocator<std::__ndk1::__fs::filesystem::path> >, std::__ndk1::basic_string<char, std::__ndk1::char_traits<char>, std::__ndk1::allocator<char> > >, std::__ndk1::monostate>::Event::~Event()
FUNC 136018 5c 0 std::__ndk1::__function::__func<geode::Task<geode::Result<std::__ndk1::vector<std::__ndk1::__fs::filesystem::path, std::__ndk1::allocator<std::__ndk1::__fs::filesystem::path> >, std::__ndk1::basic_string<char, std::__ndk1::char_traits<char>, std::__ndk1::allocator<char> > >, std::__ndk1::monostate>::setListener(geode::EventListenerProtocol*)::{lambda()#2}, std::__ndk1::allocator<geode::Task<geode::Result<std::__ndk1::vector<std::__ndk1::__fs::filesystem::path, std::__ndk1::allocator<std::__ndk1::__fs::filesystem::path> >, std::__ndk1::basic_string<char, std::__ndk1::char_traits<char>, std::__ndk1::allocator<char> > >, std::__ndk1::monostate>::setListener(geode::EventListenerProtocol*)::{lambda()#2}>, void ()>::~__func()
FUNC 136074 5c 0 std::__ndk1::__function::__func<geode::Task<geode::Result<std::__ndk1::vector<std::__ndk1::__fs::filesystem::path, std::__ndk1::allocator<std::__ndk1::__fs::filesystem::path> >, std::__ndk1::basic_string<char, std::__ndk1::char_traits<char>, std::__ndk1::allocator<char> > >, std::__ndk1::monostate>::setListener(geode::EventListenerProtocol*)::{lambda()#2}, std::__ndk1::allocator<geode::Task<geode::Result<std::__ndk1::vector<std::__ndk1::__fs::filesystem::path, std::__ndk1::allocator<std::__ndk1::__fs::filesystem::path> >, std::__ndk1::basic_string<char, std::__ndk1::char_traits<char>, std::__ndk1::allocator<char> > >, std::__ndk1::monostate>::setListener(geode::EventListenerProtocol*)::{lambda()#2}>, void ()>::~__func()
FUNC 1360d0 58 0 std::__ndk1::__function::__func<geode::Task<geode::Result<std::__ndk1::vector<std::__ndk1::__fs::filesystem::path, std::__ndk1::allocator<std::__ndk1::__fs::filesystem::path> >, std::__ndk1::basic_string<char, std::__ndk1::char_traits<char>, std::__ndk1::allocator<char> > >, std::__ndk1::monostate>::setListener(geode::EventListenerProtocol*)::{lambda()#2}, std::__ndk1::allocator<geode::Task<geode::Result<std::__ndk1::vector<std::__ndk1::__fs::filesystem::path, std::__ndk1::allocator<std::__ndk1::__fs::filesystem::path> >, std::__ndk1::basic_string<char, std::__ndk1::char_traits<char>, std::__ndk1::allocator<char> > >, std::__ndk1::monostate>::setListener(geode::EventListenerProtocol*)::{lambda()#2}>, void ()>::__clone() const
FUNC 136128 4c 0 std::__ndk1::__function::__func<geode::Task<geode::Result<std::__ndk1::vector<std::__ndk1::__fs::filesystem::path, std::__ndk1::allocator<std::__ndk1::__fs::filesystem::path> >, std::__ndk1::basic_string<char, std::__ndk1::char_traits<char>, std::__ndk1::allocator<char> > >, std::__ndk1::monostate>::setListener(geode::EventListenerProtocol*)::{lambda()#2}, std::__ndk1::allocator<geode::Task<geode::Result<std::__ndk1::vector<std::__ndk1::__fs::filesystem::path, std::__ndk1::allocator<std::__ndk1::__fs::filesystem::path> >, std::__ndk1::basic_string<char, std::__ndk1::char_traits<char>, std::__ndk1::allocator<char> > >, std::__ndk1::monostate>::setListener(geode::EventListenerProtocol*)::{lambda()#2}>, void ()>::__clone(std::__ndk1::__function::__base<void ()>*) const
FUNC 136174 50 0 std::__ndk1::__function::__func<geode::Task<geode::Result<std::__ndk1::vector<std::__ndk1::__fs::filesystem::path, std::__ndk1::allocator<std::__ndk1::__fs::filesystem::path> >, std::__ndk1::basic_string<char, std::__ndk1::char_traits<char>, std::__ndk1::allocator<char> > >, std::__ndk1::monostate>::setListener(geode::EventListenerProtocol*)::{lambda()#2}, std::__ndk1::allocator<geode::Task<geode::Result<std::__ndk1::vector<std::__ndk1::__fs::filesystem::path, std::__ndk1::allocator<std::__ndk1::__fs::filesystem::path> >, std::__ndk1::basic_string<char, std::__ndk1::char_traits<char>, std::__ndk1::allocator<char> > >, std::__ndk1::monostate>::setListener(geode::EventListenerProtocol*)::{lambda()#2}>, void ()>::destroy()
FUNC 1361c4 50 0 std::__ndk1::__function::__func<geode::Task<geode::Result<std::__ndk1::vector<std::__ndk1::__fs::filesystem::path, std::__ndk1::allocator<std::__ndk1::__fs::filesystem::path> >, std::__ndk1::basic_string<char, std::__ndk1::char_traits<char>, std::__ndk1::allocator<char> > >, std::__ndk1::monostate>::setListener(geode::EventListenerProtocol*)::{lambda()#2}, std::__ndk1::allocator<geode::Task<geode::Result<std::__ndk1::vector<std::__ndk1::__fs::filesystem::path, std::__ndk1::allocator<std::__ndk1::__fs::filesystem::path> >, std::__ndk1::basic_string<char, std::__ndk1::char_traits<char>, std::__ndk1::allocator<char> > >, std::__ndk1::monostate>::setListener(geode::EventListenerProtocol*)::{lambda()#2}>, void ()>::destroy_deallocate()
FUNC 136214 188 0 std::__ndk1::__function::__func<geode::Task<geode::Result<std::__ndk1::vector<std::__ndk1::__fs::filesystem::path, std::__ndk1::allocator<std::__ndk1::__fs::filesystem::path> >, std::__ndk1::basic_string<char, std::__ndk1::char_traits<char>, std::__ndk1::allocator<char> > >, std::__ndk1::monostate>::setListener(geode::EventListenerProtocol*)::{lambda()#2}, std::__ndk1::allocator<geode::Task<geode::Result<std::__ndk1::vector<std::__ndk1::__fs::filesystem::path, std::__ndk1::allocator<std::__ndk1::__fs::filesystem::path> >, std::__ndk1::basic_string<char, std::__ndk1::char_traits<char>, std::__ndk1::allocator<char> > >, std::__ndk1::monostate>::setListener(geode::EventListenerProtocol*)::{lambda()#2}>, void ()>::operator()()
FUNC 13639c 1c 0 std::__ndk1::__function::__func<geode::Task<geode::Result<std::__ndk1::vector<std::__ndk1::__fs::filesystem::path, std::__ndk1::allocator<std::__ndk1::__fs::filesystem::path> >, std::__ndk1::basic_string<char, std::__ndk1::char_traits<char>, std::__ndk1::allocator<char> > >, std::__ndk1::monostate>::setListener(geode::EventListenerProtocol*)::{lambda()#2}, std::__ndk1::allocator<geode::Task<geode::Result<std::__ndk1::vector<std::__ndk1::__fs::filesystem::path, std::__ndk1::allocator<std::__ndk1::__fs::filesystem::path> >, std::__ndk1::basic_string<char, std::__ndk1::char_traits<char>, std::__ndk1::allocator<char> > >, std::__ndk1::monostate>::setListener(geode::EventListenerProtocol*)::{lambda()#2}>, void ()>::target(std::type_info const&) const
FUNC 1363b8 c 0 std::__ndk1::__function::__func<geode::Task<geode::Result<std::__ndk1::vector<std::__ndk1::__fs::filesystem::path, std::__ndk1::allocator<std::__ndk1::__fs::filesystem::path> >, std::__ndk1::basic_string<char, std::__ndk1::char_traits<char>, std::__ndk1::allocator<char> > >, std::__ndk1::monostate>::setListener(geode::EventListenerProtocol*)::{lambda()#2}, std::__ndk1::allocator<geode::Task<geode::Result<std::__ndk1::vector<std::__ndk1::__fs::filesystem::path, std::__ndk1::allocator<std::__ndk1::__fs::filesystem::path> >, std::__ndk1::basic_string<char, std::__ndk1::char_traits<char>, std::__ndk1::allocator<char> > >, std::__ndk1::monostate>::setListener(geode::EventListenerProtocol*)::{lambda()#2}>, void ()>::target_type() const
FUNC 1363c4 4 0 std::__ndk1::__function::__base<void (geode::Task<geode::Result<std::__ndk1::vector<std::__ndk1::__fs::filesystem::path, std::__ndk1::allocator<std::__ndk1::__fs::filesystem::path> >, std::__ndk1::basic_string<char, std::__ndk1::char_traits<char>, std::__ndk1::allocator<char> > >, std::__ndk1::monostate>::Event*)>::~__base()
FUNC 1363c8 4 0 _ZNSt6__ndk110__function6__funcIZNK5geode4TaskINS2_6ResultINS_6vectorINS_4__fs10filesystem4pathENS_9allocatorIS8_EEEENS_12basic_stringIcNS_11char_traitsIcEENS9_IcEEEEEENS_9monostateEE6listenIZN6Labels16onImportFromFileEPN7cocos2d8CCObjectEE3$_0ZNKSJ_6listenISP_EEvOT_EUlRKSR_E_ZNKSQ_ISP_EEvSS_EUlvE_EEvSS_OT0_OT1_EUlPNSJ_5EventEE_NS9_IS13_EEFvS12_EED0Ev
FUNC 1363cc 40 0 _ZNKSt6__ndk110__function6__funcIZNK5geode4TaskINS2_6ResultINS_6vectorINS_4__fs10filesystem4pathENS_9allocatorIS8_EEEENS_12basic_stringIcNS_11char_traitsIcEENS9_IcEEEEEENS_9monostateEE6listenIZN6Labels16onImportFromFileEPN7cocos2d8CCObjectEE3$_0ZNKSJ_6listenISP_EEvOT_EUlRKSR_E_ZNKSQ_ISP_EEvSS_EUlvE_EEvSS_OT0_OT1_EUlPNSJ_5EventEE_NS9_IS13_EEFvS12_EE7__cloneEv
FUNC 13640c 20 0 _ZNKSt6__ndk110__function6__funcIZNK5geode4TaskINS2_6ResultINS_6vectorINS_4__fs10filesystem4pathENS_9allocatorIS8_EEEENS_12basic_stringIcNS_11char_traitsIcEENS9_IcEEEEEENS_9monostateEE6listenIZN6Labels16onImportFromFileEPN7cocos2d8CCObjectEE3$_0ZNKSJ_6listenISP_EEvOT_EUlRKSR_E_ZNKSQ_ISP_EEvSS_EUlvE_EEvSS_OT0_OT1_EUlPNSJ_5EventEE_NS9_IS13_EEFvS12_EE7__cloneEPNS0_6__baseIS15_EE
FUNC 13642c 4 0 _ZNSt6__ndk110__function6__funcIZNK5geode4TaskINS2_6ResultINS_6vectorINS_4__fs10filesystem4pathENS_9allocatorIS8_EEEENS_12basic_stringIcNS_11char_traitsIcEENS9_IcEEEEEENS_9monostateEE6listenIZN6Labels16onImportFromFileEPN7cocos2d8CCObjectEE3$_0ZNKSJ_6listenISP_EEvOT_EUlRKSR_E_ZNKSQ_ISP_EEvSS_EUlvE_EEvSS_OT0_OT1_EUlPNSJ_5EventEE_NS9_IS13_EEFvS12_EE7destroyEv
FUNC 136430 4 0 _ZNSt6__ndk110__function6__funcIZNK5geode4TaskINS2_6ResultINS_6vectorINS_4__fs10filesystem4pathENS_9allocatorIS8_EEEENS_12basic_stringIcNS_11char_traitsIcEENS9_IcEEEEEENS_9monostateEE6listenIZN6Labels16onImportFromFileEPN7cocos2d8CCObjectEE3$_0ZNKSJ_6listenISP_EEvOT_EUlRKSR_E_ZNKSQ_ISP_EEvSS_EUlvE_EEvSS_OT0_OT1_EUlPNSJ_5EventEE_NS9_IS13_EEFvS12_EE18destroy_deallocateEv
FUNC 136434 354 0 _ZNSt6__ndk110__function6__funcIZNK5geode4TaskINS2_6ResultINS_6vectorINS_4__fs10filesystem4pathENS_9allocatorIS8_EEEENS_12basic_stringIcNS_11char_traitsIcEENS9_IcEEEEEENS_9monostateEE6listenIZN6Labels16onImportFromFileEPN7cocos2d8CCObjectEE3$_0ZNKSJ_6listenISP_EEvOT_EUlRKSR_E_ZNKSQ_ISP_EEvSS_EUlvE_EEvSS_OT0_OT1_EUlPNSJ_5EventEE_NS9_IS13_EEFvS12_EEclEOS12_
FUNC 136788 1c 0 _ZNKSt6__ndk110__function6__funcIZNK5geode4TaskINS2_6ResultINS_6vectorINS_4__fs10filesystem4pathENS_9allocatorIS8_EEEENS_12basic_stringIcNS_11char_traitsIcEENS9_IcEEEEEENS_9monostateEE6listenIZN6Labels16onImportFromFileEPN7cocos2d8CCObjectEE3$_0ZNKSJ_6listenISP_EEvOT_EUlRKSR_E_ZNKSQ_ISP_EEvSS_EUlvE_EEvSS_OT0_OT1_EUlPNSJ_5EventEE_NS9_IS13_EEFvS12_EE6targetERKSt9type_info
FUNC 1367a4 c 0 _ZNKSt6__ndk110__function6__funcIZNK5geode4TaskINS2_6ResultINS_6vectorINS_4__fs10filesystem4pathENS_9allocatorIS8_EEEENS_12basic_stringIcNS_11char_traitsIcEENS9_IcEEEEEENS_9monostateEE6listenIZN6Labels16onImportFromFileEPN7cocos2d8CCObjectEE3$_0ZNKSJ_6listenISP_EEvOT_EUlRKSR_E_ZNKSQ_ISP_EEvSS_EUlvE_EEvSS_OT0_OT1_EUlPNSJ_5EventEE_NS9_IS13_EEFvS12_EE11target_typeEv
FUNC 1367b0 8c 0 std::__ndk1::__exception_guard_exceptions<std::__ndk1::vector<std::__ndk1::__fs::filesystem::path, std::__ndk1::allocator<std::__ndk1::__fs::filesystem::path> >::__destroy_vector>::~__exception_guard_exceptions[abi:ne180000]()
FUNC 13683c 60 0 std::__ndk1::__exception_guard_exceptions<std::__ndk1::_AllocatorDestroyRangeReverse<std::__ndk1::allocator<std::__ndk1::__fs::filesystem::path>, std::__ndk1::__fs::filesystem::path*> >::~__exception_guard_exceptions[abi:ne180000]()
FUNC 13689c 4 0 _ZNSt6__ndk110__function6__funcIZZNK5geode4TaskINS2_6ResultINS_6vectorINS_4__fs10filesystem4pathENS_9allocatorIS8_EEEENS_12basic_stringIcNS_11char_traitsIcEENS9_IcEEEEEENS_9monostateEE6listenIZN6Labels16onImportFromFileEPN7cocos2d8CCObjectEE3$_0ZNKSJ_6listenISP_EEvOT_EUlRKSR_E_ZNKSQ_ISP_EEvSS_EUlvE_EEvSS_OT0_OT1_ENUlPNSJ_5EventEE_clES12_EUlvE_NS9_IS14_EEFvvEED0Ev
FUNC 1368a0 34 0 _ZNKSt6__ndk110__function6__funcIZZNK5geode4TaskINS2_6ResultINS_6vectorINS_4__fs10filesystem4pathENS_9allocatorIS8_EEEENS_12basic_stringIcNS_11char_traitsIcEENS9_IcEEEEEENS_9monostateEE6listenIZN6Labels16onImportFromFileEPN7cocos2d8CCObjectEE3$_0ZNKSJ_6listenISP_EEvOT_EUlRKSR_E_ZNKSQ_ISP_EEvSS_EUlvE_EEvSS_OT0_OT1_ENUlPNSJ_5EventEE_clES12_EUlvE_NS9_IS14_EEFvvEE7__cloneEv
FUNC 1368d4 14 0 _ZNKSt6__ndk110__function6__funcIZZNK5geode4TaskINS2_6ResultINS_6vectorINS_4__fs10filesystem4pathENS_9allocatorIS8_EEEENS_12basic_stringIcNS_11char_traitsIcEENS9_IcEEEEEENS_9monostateEE6listenIZN6Labels16onImportFromFileEPN7cocos2d8CCObjectEE3$_0ZNKSJ_6listenISP_EEvOT_EUlRKSR_E_ZNKSQ_ISP_EEvSS_EUlvE_EEvSS_OT0_OT1_ENUlPNSJ_5EventEE_clES12_EUlvE_NS9_IS14_EEFvvEE7__cloneEPNS0_6__baseIS16_EE
FUNC 1368e8 4 0 _ZNSt6__ndk110__function6__funcIZZNK5geode4TaskINS2_6ResultINS_6vectorINS_4__fs10filesystem4pathENS_9allocatorIS8_EEEENS_12basic_stringIcNS_11char_traitsIcEENS9_IcEEEEEENS_9monostateEE6listenIZN6Labels16onImportFromFileEPN7cocos2d8CCObjectEE3$_0ZNKSJ_6listenISP_EEvOT_EUlRKSR_E_ZNKSQ_ISP_EEvSS_EUlvE_EEvSS_OT0_OT1_ENUlPNSJ_5EventEE_clES12_EUlvE_NS9_IS14_EEFvvEE7destroyEv
FUNC 1368ec 4 0 _ZNSt6__ndk110__function6__funcIZZNK5geode4TaskINS2_6ResultINS_6vectorINS_4__fs10filesystem4pathENS_9allocatorIS8_EEEENS_12basic_stringIcNS_11char_traitsIcEENS9_IcEEEEEENS_9monostateEE6listenIZN6Labels16onImportFromFileEPN7cocos2d8CCObjectEE3$_0ZNKSJ_6listenISP_EEvOT_EUlRKSR_E_ZNKSQ_ISP_EEvSS_EUlvE_EEvSS_OT0_OT1_ENUlPNSJ_5EventEE_clES12_EUlvE_NS9_IS14_EEFvvEE18destroy_deallocateEv
FUNC 1368f0 18 0 _ZNSt6__ndk110__function6__funcIZZNK5geode4TaskINS2_6ResultINS_6vectorINS_4__fs10filesystem4pathENS_9allocatorIS8_EEEENS_12basic_stringIcNS_11char_traitsIcEENS9_IcEEEEEENS_9monostateEE6listenIZN6Labels16onImportFromFileEPN7cocos2d8CCObjectEE3$_0ZNKSJ_6listenISP_EEvOT_EUlRKSR_E_ZNKSQ_ISP_EEvSS_EUlvE_EEvSS_OT0_OT1_ENUlPNSJ_5EventEE_clES12_EUlvE_NS9_IS14_EEFvvEEclEv
FUNC 136908 1c 0 _ZNKSt6__ndk110__function6__funcIZZNK5geode4TaskINS2_6ResultINS_6vectorINS_4__fs10filesystem4pathENS_9allocatorIS8_EEEENS_12basic_stringIcNS_11char_traitsIcEENS9_IcEEEEEENS_9monostateEE6listenIZN6Labels16onImportFromFileEPN7cocos2d8CCObjectEE3$_0ZNKSJ_6listenISP_EEvOT_EUlRKSR_E_ZNKSQ_ISP_EEvSS_EUlvE_EEvSS_OT0_OT1_ENUlPNSJ_5EventEE_clES12_EUlvE_NS9_IS14_EEFvvEE6targetERKSt9type_info
FUNC 136924 c 0 _ZNKSt6__ndk110__function6__funcIZZNK5geode4TaskINS2_6ResultINS_6vectorINS_4__fs10filesystem4pathENS_9allocatorIS8_EEEENS_12basic_stringIcNS_11char_traitsIcEENS9_IcEEEEEENS_9monostateEE6listenIZN6Labels16onImportFromFileEPN7cocos2d8CCObjectEE3$_0ZNKSJ_6listenISP_EEvOT_EUlRKSR_E_ZNKSQ_ISP_EEvSS_EUlvE_EEvSS_OT0_OT1_ENUlPNSJ_5EventEE_clES12_EUlvE_NS9_IS14_EEFvvEE11target_typeEv
FUNC 136930 4 0 std::__ndk1::__function::__base<void (std::__ndk1::vector<std::__ndk1::basic_string<char, std::__ndk1::char_traits<char>, std::__ndk1::allocator<char> >, std::__ndk1::allocator<std::__ndk1::basic_string<char, std::__ndk1::char_traits<char>, std::__ndk1::allocator<char> > > >)>::~__base()
FUNC 136934 4 0 std::__ndk1::__function::__func<geodeExecFunction726<(anonymous namespace)::ExecFuncUnique726>(geode::ModStateEvent*)::{lambda(std::__ndk1::vector<std::__ndk1::basic_string<char, std::__ndk1::char_traits<char>, std::__ndk1::allocator<char> >, std::__ndk1::allocator<std::__ndk1::basic_string<char, std::__ndk1::char_traits<char>, std::__ndk1::allocator<char> > > >)#1}, std::__ndk1::allocator<geodeExecFunction726<(anonymous namespace)::ExecFuncUnique726>(geode::ModStateEvent*)::{lambda(std::__ndk1::vector<std::__ndk1::basic_string<char, std::__ndk1::char_traits<char>, std::__ndk1::allocator<char> >, std::__ndk1::allocator<std::__ndk1::basic_string<char, std::__ndk1::char_traits<char>, std::__ndk1::allocator<char> > > >)#1}>, void (std::__ndk1::vector<std::__ndk1::basic_string<char, std::__ndk1::char_traits<char>, std::__ndk1::allocator<char> >, std::__ndk1::allocator<std::__ndk1::basic_string<char, std::__ndk1::char_traits<char>, std::__ndk1::allocator<char> > > >)>::~__func()
FUNC 136938 24 0 std::__ndk1::__function::__func<geodeExecFunction726<(anonymous namespace)::ExecFuncUnique726>(geode::ModStateEvent*)::{lambda(std::__ndk1::vector<std::__ndk1::basic_string<char, std::__ndk1::char_traits<char>, std::__ndk1::allocator<char> >, std::__ndk1::allocator<std::__ndk1::basic_string<char, std::__ndk1::char_traits<char>, std::__ndk1::allocator<char> > > >)#1}, std::__ndk1::allocator<geodeExecFunction726<(anonymous namespace)::ExecFuncUnique726>(geode::ModStateEvent*)::{lambda(std::__ndk1::vector<std::__ndk1::basic_string<char, std::__ndk1::char_traits<char>, std::__ndk1::allocator<char> >, std::__ndk1::allocator<std::__ndk1::basic_string<char, std::__ndk1::char_traits<char>, std::__ndk1::allocator<char> > > >)#1}>, void (std::__ndk1::vector<std::__ndk1::basic_string<char, std::__ndk1::char_traits<char>, std::__ndk1::allocator<char> >, std::__ndk1::allocator<std::__ndk1::basic_string<char, std::__ndk1::char_traits<char>, std::__ndk1::allocator<char> > > >)>::__clone() const
FUNC 13695c 10 0 std::__ndk1::__function::__func<geodeExecFunction726<(anonymous namespace)::ExecFuncUnique726>(geode::ModStateEvent*)::{lambda(std::__ndk1::vector<std::__ndk1::basic_string<char, std::__ndk1::char_traits<char>, std::__ndk1::allocator<char> >, std::__ndk1::allocator<std::__ndk1::basic_string<char, std::__ndk1::char_traits<char>, std::__ndk1::allocator<char> > > >)#1}, std::__ndk1::allocator<geodeExecFunction726<(anonymous namespace)::ExecFuncUnique726>(geode::ModStateEvent*)::{lambda(std::__ndk1::vector<std::__ndk1::basic_string<char, std::__ndk1::char_traits<char>, std::__ndk1::allocator<char> >, std::__ndk1::allocator<std::__ndk1::basic_string<char, std::__ndk1::char_traits<char>, std::__ndk1::allocator<char> > > >)#1}>, void (std::__ndk1::vector<std::__ndk1::basic_string<char, std::__ndk1::char_traits<char>, std::__ndk1::allocator<char> >, std::__ndk1::allocator<std::__ndk1::basic_string<char, std::__ndk1::char_traits<char>, std::__ndk1::allocator<char> > > >)>::__clone(std::__ndk1::__function::__base<void (std::__ndk1::vector<std::__ndk1::basic_string<char, std::__ndk1::char_traits<char>, std::__ndk1::allocator<char> >, std::__ndk1::allocator<std::__ndk1::basic_string<char, std::__ndk1::char_traits<char>, std::__ndk1::allocator<char> > > >)>*) const
FUNC 13696c 4 0 std::__ndk1::__function::__func<geodeExecFunction726<(anonymous namespace)::ExecFuncUnique726>(geode::ModStateEvent*)::{lambda(std::__ndk1::vector<std::__ndk1::basic_string<char, std::__ndk1::char_traits<char>, std::__ndk1::allocator<char> >, std::__ndk1::allocator<std::__ndk1::basic_string<char, std::__ndk1::char_traits<char>, std::__ndk1::allocator<char> > > >)#1}, std::__ndk1::allocator<geodeExecFunction726<(anonymous namespace)::ExecFuncUnique726>(geode::ModStateEvent*)::{lambda(std::__ndk1::vector<std::__ndk1::basic_string<char, std::__ndk1::char_traits<char>, std::__ndk1::allocator<char> >, std::__ndk1::allocator<std::__ndk1::basic_string<char, std::__ndk1::char_traits<char>, std::__ndk1::allocator<char> > > >)#1}>, void (std::__ndk1::vector<std::__ndk1::basic_string<char, std::__ndk1::char_traits<char>, std::__ndk1::allocator<char> >, std::__ndk1::allocator<std::__ndk1::basic_string<char, std::__ndk1::char_traits<char>, std::__ndk1::allocator<char> > > >)>::destroy()
FUNC 136970 4 0 std::__ndk1::__function::__func<geodeExecFunction726<(anonymous namespace)::ExecFuncUnique726>(geode::ModStateEvent*)::{lambda(std::__ndk1::vector<std::__ndk1::basic_string<char, std::__ndk1::char_traits<char>, std::__ndk1::allocator<char> >, std::__ndk1::allocator<std::__ndk1::basic_string<char, std::__ndk1::char_traits<char>, std::__ndk1::allocator<char> > > >)#1}, std::__ndk1::allocator<geodeExecFunction726<(anonymous namespace)::ExecFuncUnique726>(geode::ModStateEvent*)::{lambda(std::__ndk1::vector<std::__ndk1::basic_string<char, std::__ndk1::char_traits<char>, std::__ndk1::allocator<char> >, std::__ndk1::allocator<std::__ndk1::basic_string<char, std::__ndk1::char_traits<char>, std::__ndk1::allocator<char> > > >)#1}>, void (std::__ndk1::vector<std::__ndk1::basic_string<char, std::__ndk1::char_traits<char>, std::__ndk1::allocator<char> >, std::__ndk1::allocator<std::__ndk1::basic_string<char, std::__ndk1::char_traits<char>, std::__ndk1::allocator<char> > > >)>::destroy_deallocate()
FUNC 136974 1ac 0 std::__ndk1::__function::__func<geodeExecFunction726<(anonymous namespace)::ExecFuncUnique726>(geode::ModStateEvent*)::{lambda(std::__ndk1::vector<std::__ndk1::basic_string<char, std::__ndk1::char_traits<char>, std::__ndk1::allocator<char> >, std::__ndk1::allocator<std::__ndk1::basic_string<char, std::__ndk1::char_traits<char>, std::__ndk1::allocator<char> > > >)#1}, std::__ndk1::allocator<geodeExecFunction726<(anonymous namespace)::ExecFuncUnique726>(geode::ModStateEvent*)::{lambda(std::__ndk1::vector<std::__ndk1::basic_string<char, std::__ndk1::char_traits<char>, std::__ndk1::allocator<char> >, std::__ndk1::allocator<std::__ndk1::basic_string<char, std::__ndk1::char_traits<char>, std::__ndk1::allocator<char> > > >)#1}>, void (std::__ndk1::vector<std::__ndk1::basic_string<char, std::__ndk1::char_traits<char>, std::__ndk1::allocator<char> >, std::__ndk1::allocator<std::__ndk1::basic_string<char, std::__ndk1::char_traits<char>, std::__ndk1::allocator<char> > > >)>::operator()(std::__ndk1::vector<std::__ndk1::basic_string<char, std::__ndk1::char_traits<char>, std::__ndk1::allocator<char> >, std::__ndk1::allocator<std::__ndk1::basic_string<char, std::__ndk1::char_traits<char>, std::__ndk1::allocator<char> > > >&&)
FUNC 136b20 1c 0 std::__ndk1::__function::__func<geodeExecFunction726<(anonymous namespace)::ExecFuncUnique726>(geode::ModStateEvent*)::{lambda(std::__ndk1::vector<std::__ndk1::basic_string<char, std::__ndk1::char_traits<char>, std::__ndk1::allocator<char> >, std::__ndk1::allocator<std::__ndk1::basic_string<char, std::__ndk1::char_traits<char>, std::__ndk1::allocator<char> > > >)#1}, std::__ndk1::allocator<geodeExecFunction726<(anonymous namespace)::ExecFuncUnique726>(geode::ModStateEvent*)::{lambda(std::__ndk1::vector<std::__ndk1::basic_string<char, std::__ndk1::char_traits<char>, std::__ndk1::allocator<char> >, std::__ndk1::allocator<std::__ndk1::basic_string<char, std::__ndk1::char_traits<char>, std::__ndk1::allocator<char> > > >)#1}>, void (std::__ndk1::vector<std::__ndk1::basic_string<char, std::__ndk1::char_traits<char>, std::__ndk1::allocator<char> >, std::__ndk1::allocator<std::__ndk1::basic_string<char, std::__ndk1::char_traits<char>, std::__ndk1::allocator<char> > > >)>::target(std::type_info const&) const
FUNC 136b3c c 0 std::__ndk1::__function::__func<geodeExecFunction726<(anonymous namespace)::ExecFuncUnique726>(geode::ModStateEvent*)::{lambda(std::__ndk1::vector<std::__ndk1::basic_string<char, std::__ndk1::char_traits<char>, std::__ndk1::allocator<char> >, std::__ndk1::allocator<std::__ndk1::basic_string<char, std::__ndk1::char_traits<char>, std::__ndk1::allocator<char> > > >)#1}, std::__ndk1::allocator<geodeExecFunction726<(anonymous namespace)::ExecFuncUnique726>(geode::ModStateEvent*)::{lambda(std::__ndk1::vector<std::__ndk1::basic_string<char, std::__ndk1::char_traits<char>, std::__ndk1::allocator<char> >, std::__ndk1::allocator<std::__ndk1::basic_string<char, std::__ndk1::char_traits<char>, std::__ndk1::allocator<char> > > >)#1}>, void (std::__ndk1::vector<std::__ndk1::basic_string<char, std::__ndk1::char_traits<char>, std::__ndk1::allocator<char> >, std::__ndk1::allocator<std::__ndk1::basic_string<char, std::__ndk1::char_traits<char>, std::__ndk1::allocator<char> > > >)>::target_type() const
FUNC 136b48 4 0 geode::EventListener<geode::ModStateFilter>::getPool() const
FUNC 136b4c 174 0 geode::EventListener<geode::ModStateFilter>::handle(geode::Event*)
FUNC 136cc0 5c 0 geode::EventListener<geode::ModStateFilter>::~EventListener()
FUNC 136d1c 64 0 geode::EventListener<geode::ModStateFilter>::~EventListener()
FUNC 136d80 4 0 std::__ndk1::__function::__base<void (geode::ModStateEvent*)>::~__base()
FUNC 136d84 4 0 std::__ndk1::__function::__func<void (*)(geode::ModStateEvent*), std::__ndk1::allocator<void (*)(geode::ModStateEvent*)>, void (geode::ModStateEvent*)>::~__func()
FUNC 136d88 34 0 std::__ndk1::__function::__func<void (*)(geode::ModStateEvent*), std::__ndk1::allocator<void (*)(geode::ModStateEvent*)>, void (geode::ModStateEvent*)>::__clone() const
FUNC 136dbc 14 0 std::__ndk1::__function::__func<void (*)(geode::ModStateEvent*), std::__ndk1::allocator<void (*)(geode::ModStateEvent*)>, void (geode::ModStateEvent*)>::__clone(std::__ndk1::__function::__base<void (geode::ModStateEvent*)>*) const
FUNC 136dd0 4 0 std::__ndk1::__function::__func<void (*)(geode::ModStateEvent*), std::__ndk1::allocator<void (*)(geode::ModStateEvent*)>, void (geode::ModStateEvent*)>::destroy()
FUNC 136dd4 4 0 std::__ndk1::__function::__func<void (*)(geode::ModStateEvent*), std::__ndk1::allocator<void (*)(geode::ModStateEvent*)>, void (geode::ModStateEvent*)>::destroy_deallocate()
FUNC 136dd8 10 0 std::__ndk1::__function::__func<void (*)(geode::ModStateEvent*), std::__ndk1::allocator<void (*)(geode::ModStateEvent*)>, void (geode::ModStateEvent*)>::operator()(geode::ModStateEvent*&&)
FUNC 136de8 1c 0 std::__ndk1::__function::__func<void (*)(geode::ModStateEvent*), std::__ndk1::allocator<void (*)(geode::ModStateEvent*)>, void (geode::ModStateEvent*)>::target(std::type_info const&) const
FUNC 136e04 c 0 std::__ndk1::__function::__func<void (*)(geode::ModStateEvent*), std::__ndk1::allocator<void (*)(geode::ModStateEvent*)>, void (geode::ModStateEvent*)>::target_type() const
FUNC 136e10 12c 0 _GLOBAL__sub_I_Labels.cpp
FUNC 136f3c 154 0 cocos2d::CCNode::getChildByType<LevelInfoLayer, LevelInfoLayer>(int)
FUNC 137090 154 0 cocos2d::CCNode::getChildByType<cocos2d::CCMenu, cocos2d::CCMenu>(int)
FUNC 1371e4 154 0 cocos2d::CCNode::getChildByType<TextArea, TextArea>(int)
FUNC 137338 d0 0 Speedhack::onClear(cocos2d::CCObject*)
FUNC 137408 198 0 Speedhack::sliderChanged(cocos2d::CCObject*)
FUNC 1375a0 35c 0 Speedhack::onPreset(cocos2d::CCObject*)
FUNC 1378fc 3b8 0 Speedhack::updatePresets()
FUNC 137cb4 114 0 Speedhack::updatePresetsSprites(int)
FUNC 137dc8 2a0 0 geode::Mod::setSavedValue<std::__ndk1::vector<float, std::__ndk1::allocator<float> > >(std::__ndk1::basic_string_view<char, std::__ndk1::char_traits<char> >, std::__ndk1::vector<float, std::__ndk1::allocator<float> > const&)
FUNC 138068 b70 0 Speedhack::cocosCreate(cocos2d::CCMenu*)
FUNC 138bd8 484 0 Speedhack::onNewPreset(cocos2d::CCObject*)
FUNC 13905c 88 0 Speedhack::onDeletePreset(cocos2d::CCObject*)
FUNC 1390e4 284 0 Speedhack::textChanged(CCTextInputNode*)
FUNC 139368 c8 0 Speedhack::~Speedhack()
FUNC 139430 24 0 Speedhack::~Speedhack()
FUNC 139454 14 0 std::__ndk1::vector<float, std::__ndk1::allocator<float> >::__throw_length_error[abi:ne180000]() const
FUNC 139468 98c 0 std::__ndk1::__introsort<std::__ndk1::_ClassicAlgPolicy, Speedhack::updatePresets()::$_0&, float*, false>(float*, float*, Speedhack::updatePresets()::$_0&, std::__ndk1::iterator_traits<float*>::difference_type, bool)
FUNC 139df4 3a0 0 std::__ndk1::__insertion_sort_incomplete[abi:ne180000]<std::__ndk1::_ClassicAlgPolicy, Speedhack::updatePresets()::$_0&, float*>(float*, float*, Speedhack::updatePresets()::$_0&)
FUNC 13a194 74 0 geode::impl::ResultData<std::__ndk1::vector<float, std::__ndk1::allocator<float> >, std::__ndk1::basic_string<char, std::__ndk1::char_traits<char>, std::__ndk1::allocator<char> > >::~ResultData()
FUNC 13a208 550 0 _ZN7matjson9SerializeINSt6__ndk16vectorIfNS1_9allocatorIfEEEEE8fromJsonERKNS_5ValueEQrQS9__Xcldtfp_2asIT_EEE
FUNC 13a758 14 0 std::__ndk1::__variant_detail::__visitation::__base::__dispatcher<(unsigned long)0>::__dispatch[abi:ne180000]<std::__ndk1::__variant_detail::__dtor<std::__ndk1::__variant_detail::__traits<std::__ndk1::vector<float, std::__ndk1::allocator<float> >, std::__ndk1::basic_string<char, std::__ndk1::char_traits<char>, std::__ndk1::vector<char> > >, (std::__ndk1::__variant_detail::_Trait)1>::__destroy[abi:ne180000]()::{lambda(auto:1&)#1}, std::__ndk1::__variant_detail::__base<(std::__ndk1::__variant_detail::__traits<std::__ndk1::vector<float, std::__ndk1::allocator<float> >, std::__ndk1::basic_string<char, std::__ndk1::char_traits<char>, std::__ndk1::vector<char> > >)1, std::__ndk1::allocator<float>, std::__ndk1::vector<char> >&>(std::__ndk1::__variant_detail::__dtor<std::__ndk1::__variant_detail::__traits<std::__ndk1::vector<float, std::__ndk1::allocator<float> >, std::__ndk1::basic_string<char, std::__ndk1::char_traits<char>, std::__ndk1::vector<char> > >, (std::__ndk1::__variant_detail::_Trait)1>, std::__ndk1::__variant_detail::__base<(std::__ndk1::__variant_detail::__traits<std::__ndk1::vector<float, std::__ndk1::allocator<float> >, std::__ndk1::basic_string<char, std::__ndk1::char_traits<char>, std::__ndk1::vector<char> > >)1, std::__ndk1::allocator<float>, std::__ndk1::vector<char> >&)
FUNC 13a76c 14 0 std::__ndk1::__variant_detail::__visitation::__base::__dispatcher<(unsigned long)1>::__dispatch[abi:ne180000]<std::__ndk1::__variant_detail::__dtor<std::__ndk1::__variant_detail::__traits<std::__ndk1::vector<float, std::__ndk1::allocator<float> >, std::__ndk1::basic_string<char, std::__ndk1::char_traits<char>, std::__ndk1::vector<char> > >, (std::__ndk1::__variant_detail::_Trait)1>::__destroy[abi:ne180000]()::{lambda(auto:1&)#1}, std::__ndk1::__variant_detail::__base<(std::__ndk1::__variant_detail::__traits<std::__ndk1::vector<float, std::__ndk1::allocator<float> >, std::__ndk1::basic_string<char, std::__ndk1::char_traits<char>, std::__ndk1::vector<char> > >)1, std::__ndk1::allocator<float>, std::__ndk1::vector<char> >&>(std::__ndk1::__variant_detail::__dtor<std::__ndk1::__variant_detail::__traits<std::__ndk1::vector<float, std::__ndk1::allocator<float> >, std::__ndk1::basic_string<char, std::__ndk1::char_traits<char>, std::__ndk1::vector<char> > >, (std::__ndk1::__variant_detail::_Trait)1>, std::__ndk1::__variant_detail::__base<(std::__ndk1::__variant_detail::__traits<std::__ndk1::vector<float, std::__ndk1::allocator<float> >, std::__ndk1::basic_string<char, std::__ndk1::char_traits<char>, std::__ndk1::vector<char> > >)1, std::__ndk1::allocator<float>, std::__ndk1::vector<char> >&)
FUNC 13a780 1f0 0 _ZN7matjson9SerializeINSt6__ndk16vectorIfNS1_9allocatorIfEEEEE6toJsonERKS5_QrQRKT__XcvNS_5ValueEfp_E
FUNC 13a970 4 0 Universal::cocosCreate(cocos2d::CCMenu*)
FUNC 13a974 a4 0 Universal::~Universal()
FUNC 13aa18 400 0 __cxx_global_var_init.42
FUNC 13ae18 1c 0 geode::modifier::ModifyBase<geode::modifier::ModifyDerive<hook11<(anonymous namespace)::hook11Parent>, SecretLayer2> >::~ModifyBase()
FUNC 13ae34 3b4 0 geode::modifier::ModifyDerive<hook11<(anonymous namespace)::hook11Parent>, SecretLayer2>::apply()
FUNC 13b1e8 4 0 geode::modifier::ModifyBase<geode::modifier::ModifyDerive<hook11<(anonymous namespace)::hook11Parent>, SecretLayer2> >::apply()
FUNC 13b1ec 474 0 geode::modifier::AsStaticFunction_onSubmit<hook11<(anonymous namespace)::hook11Parent>, void (hook11<(anonymous namespace)::hook11Parent>::*)(cocos2d::CCObject*)>::Impl<void (hook11<(anonymous namespace)::hook11Parent>::*)(cocos2d::CCObject*)>::function(hook11<(anonymous namespace)::hook11Parent>*, cocos2d::CCObject*)
FUNC 13b660 154 0 cocos2d::CCNode::getChildByType<CCTextInputNode, CCTextInputNode>(int)
FUNC 13b7b4 b4 0 std::__ndk1::random_device::random_device[abi:ne180000]()
FUNC 13b868 134 0 std::__ndk1::uniform_int_distribution<int>::operator()<std::__ndk1::mersenne_twister_engine<unsigned long, (unsigned long)32, (unsigned long)624, (unsigned long)397, (unsigned long)31, (unsigned long)2567483615, (unsigned long)11, (unsigned long)4294967295, (unsigned long)7, (unsigned long)2636928640, (unsigned long)15, (unsigned long)4022730752, (unsigned long)18, (unsigned long)1812433253> >(std::__ndk1::mersenne_twister_engine<unsigned long, (unsigned long)32, (unsigned long)624, (unsigned long)397, (unsigned long)31, (unsigned long)2567483615, (unsigned long)11, (unsigned long)4294967295, (unsigned long)7, (unsigned long)2636928640, (unsigned long)15, (unsigned long)4022730752, (unsigned long)18, (unsigned long)1812433253>&, std::__ndk1::uniform_int_distribution<int>::param_type const&)
FUNC 13b99c 1f4 0 std::__ndk1::__independent_bits_engine<std::__ndk1::mersenne_twister_engine<unsigned long, (unsigned long)32, (unsigned long)624, (unsigned long)397, (unsigned long)31, (unsigned long)2567483615, (unsigned long)11, (unsigned long)4294967295, (unsigned long)7, (unsigned long)2636928640, (unsigned long)15, (unsigned long)4022730752, (unsigned long)18, (unsigned long)1812433253>, unsigned int>::__eval(std::__ndk1::integral_constant<bool, true>)
FUNC 13bb90 1d4 0 fmt::v11::detail::value<fmt::v11::context>::format_custom_arg<gd::string, fmt::v11::formatter<gd::string, char, void> >(void*, fmt::v11::basic_format_parse_context<char>&, fmt::v11::context&)
FUNC 13bd64 5c0 0 std::__ndk1::__hash_table<std::__ndk1::__hash_value_type<std::__ndk1::basic_string<char, std::__ndk1::char_traits<char>, std::__ndk1::allocator<char> >, std::__ndk1::function<void (std::__ndk1::vector<std::__ndk1::basic_string<char, std::__ndk1::char_traits<char>, std::__ndk1::allocator<char> >, std::__ndk1::allocator<std::__ndk1::basic_string<char, std::__ndk1::char_traits<char>, std::__ndk1::allocator<char> > > >)> >, std::__ndk1::__unordered_map_hasher<std::__ndk1::basic_string<char, std::__ndk1::char_traits<char>, std::__ndk1::allocator<char> >, std::__ndk1::__hash_value_type<std::__ndk1::basic_string<char, std::__ndk1::char_traits<char>, std::__ndk1::allocator<char> >, std::__ndk1::function<void (std::__ndk1::vector<std::__ndk1::basic_string<char, std::__ndk1::char_traits<char>, std::__ndk1::allocator<char> >, std::__ndk1::allocator<std::__ndk1::basic_string<char, std::__ndk1::char_traits<char>, std::__ndk1::allocator<char> > > >)> >, std::__ndk1::hash<std::__ndk1::basic_string<char, std::__ndk1::char_traits<char>, std::__ndk1::allocator<char> > >, std::__ndk1::equal_to<std::__ndk1::basic_string<char, std::__ndk1::char_traits<char>, std::__ndk1::allocator<char> > >, true>, std::__ndk1::__unordered_map_equal<std::__ndk1::basic_string<char, std::__ndk1::char_traits<char>, std::__ndk1::allocator<char> >, std::__ndk1::__hash_value_type<std::__ndk1::basic_string<char, std::__ndk1::char_traits<char>, std::__ndk1::allocator<char> >, std::__ndk1::function<void (std::__ndk1::vector<std::__ndk1::basic_string<char, std::__ndk1::char_traits<char>, std::__ndk1::allocator<char> >, std::__ndk1::allocator<std::__ndk1::basic_string<char, std::__ndk1::char_traits<char>, std::__ndk1::allocator<char> > > >)> >, std::__ndk1::equal_to<std::__ndk1::basic_string<char, std::__ndk1::char_traits<char>, std::__ndk1::allocator<char> > >, std::__ndk1::hash<std::__ndk1::basic_string<char, std::__ndk1::char_traits<char>, std::__ndk1::allocator<char> > >, true>, std::__ndk1::allocator<std::__ndk1::__hash_value_type<std::__ndk1::basic_string<char, std::__ndk1::char_traits<char>, std::__ndk1::allocator<char> >, std::__ndk1::function<void (std::__ndk1::vector<std::__ndk1::basic_string<char, std::__ndk1::char_traits<char>, std::__ndk1::allocator<char> >, std::__ndk1::allocator<std::__ndk1::basic_string<char, std::__ndk1::char_traits<char>, std::__ndk1::allocator<char> > > >)> > > >::__emplace_unique_key_args<std::__ndk1::basic_string<char, std::__ndk1::char_traits<char>, std::__ndk1::allocator<char> >, std::__ndk1::basic_string<char, std::__ndk1::char_traits<char>, std::__ndk1::allocator<char> >&, std::__ndk1::function<void (std::__ndk1::vector<std::__ndk1::basic_string<char, std::__ndk1::char_traits<char>, std::__ndk1::allocator<char> >, std::__ndk1::allocator<std::__ndk1::basic_string<char, std::__ndk1::char_traits<char>, std::__ndk1::allocator<char> > > >)>&>(std::__ndk1::basic_string<char, std::__ndk1::char_traits<char>, std::__ndk1::allocator<char> > const&, std::__ndk1::basic_string<char, std::__ndk1::char_traits<char>, std::__ndk1::allocator<char> >&, std::__ndk1::function<void (std::__ndk1::vector<std::__ndk1::basic_string<char, std::__ndk1::char_traits<char>, std::__ndk1::allocator<char> >, std::__ndk1::allocator<std::__ndk1::basic_string<char, std::__ndk1::char_traits<char>, std::__ndk1::allocator<char> > > >)>&)
FUNC 13c324 7c 0 std::__ndk1::unique_ptr<std::__ndk1::__hash_node<std::__ndk1::__hash_value_type<std::__ndk1::basic_string<char, std::__ndk1::char_traits<char>, std::__ndk1::allocator<char> >, std::__ndk1::function<void (std::__ndk1::vector<std::__ndk1::basic_string<char, std::__ndk1::char_traits<char>, std::__ndk1::allocator<char> >, std::__ndk1::allocator<std::__ndk1::basic_string<char, std::__ndk1::char_traits<char>, std::__ndk1::allocator<char> > > >)> >, void*>, std::__ndk1::__hash_node_destructor<std::__ndk1::allocator<std::__ndk1::__hash_node<std::__ndk1::__hash_value_type<std::__ndk1::basic_string<char, std::__ndk1::char_traits<char>, std::__ndk1::allocator<char> >, std::__ndk1::function<void (std::__ndk1::vector<std::__ndk1::basic_string<char, std::__ndk1::char_traits<char>, std::__ndk1::allocator<char> >, std::__ndk1::allocator<std::__ndk1::basic_string<char, std::__ndk1::char_traits<char>, std::__ndk1::allocator<char> > > >)> >, void*> > > >::~unique_ptr[abi:ne180000]()
FUNC 13c3a0 400 0 __cxx_global_var_init.30
FUNC 13c7a0 1c 0 geode::modifier::ModifyBase<geode::modifier::ModifyDerive<hook13<(anonymous namespace)::hook13Parent>, PlayLayer> >::~ModifyBase()
FUNC 13c7bc 394 0 geode::modifier::ModifyDerive<hook13<(anonymous namespace)::hook13Parent>, PlayLayer>::apply()
FUNC 13cb50 4 0 geode::modifier::ModifyBase<geode::modifier::ModifyDerive<hook13<(anonymous namespace)::hook13Parent>, PlayLayer> >::apply()
FUNC 13cb54 7c0 0 geode::modifier::AsStaticFunction_updateProgressbar<hook13<(anonymous namespace)::hook13Parent>, void (hook13<(anonymous namespace)::hook13Parent>::*)()>::Impl<void (hook13<(anonymous namespace)::hook13Parent>::*)()>::function(hook13<(anonymous namespace)::hook13Parent>*)
FUNC 13d314 188 0 geode::modifier::FieldIntermediate<hook13<(anonymous namespace)::hook13Parent>, PlayLayer>::operator->()
FUNC 13d49c 290 0 geode::modifier::FieldContainer::getField(unsigned long)
FUNC 13d72c 114 0 geode::modifier::FieldContainer::setField(unsigned long, unsigned long, std::__ndk1::function<void (void*)>)
FUNC 13d840 4 0 geode::modifier::FieldIntermediate<hook13<(anonymous namespace)::hook13Parent>, PlayLayer>::fieldDestructor(void*)
FUNC 13d844 14 0 std::__ndk1::vector<void*, std::__ndk1::allocator<void*> >::__throw_length_error[abi:ne180000]() const
FUNC 13d858 200 0 std::__ndk1::vector<std::__ndk1::function<void (void*)>, std::__ndk1::allocator<std::__ndk1::function<void (void*)> > >::__push_back_slow_path<std::__ndk1::function<void (void*)> >(std::__ndk1::function<void (void*)>&&)
FUNC 13da58 14 0 std::__ndk1::vector<std::__ndk1::function<void (void*)>, std::__ndk1::allocator<std::__ndk1::function<void (void*)> > >::__throw_length_error[abi:ne180000]() const
FUNC 13da6c 14 0 std::__ndk1::vector<void*, std::__ndk1::allocator<void*> >::__throw_out_of_range[abi:ne180000]() const
FUNC 13da80 14 0 std::__ndk1::vector<std::__ndk1::function<void (void*)>, std::__ndk1::allocator<std::__ndk1::function<void (void*)> > >::__throw_out_of_range[abi:ne180000]() const
FUNC 13da94 4 0 std::__ndk1::__function::__base<void (void*)>::~__base()
FUNC 13da98 4 0 std::__ndk1::__function::__func<void (*)(void*), std::__ndk1::allocator<void (*)(void*)>, void (void*)>::~__func()
FUNC 13da9c 38 0 std::__ndk1::__function::__func<void (*)(void*), std::__ndk1::allocator<void (*)(void*)>, void (void*)>::__clone() const
FUNC 13dad4 18 0 std::__ndk1::__function::__func<void (*)(void*), std::__ndk1::allocator<void (*)(void*)>, void (void*)>::__clone(std::__ndk1::__function::__base<void (void*)>*) const
FUNC 13daec 4 0 std::__ndk1::__function::__func<void (*)(void*), std::__ndk1::allocator<void (*)(void*)>, void (void*)>::destroy()
FUNC 13daf0 4 0 std::__ndk1::__function::__func<void (*)(void*), std::__ndk1::allocator<void (*)(void*)>, void (void*)>::destroy_deallocate()
FUNC 13daf4 10 0 std::__ndk1::__function::__func<void (*)(void*), std::__ndk1::allocator<void (*)(void*)>, void (void*)>::operator()(void*&&)
FUNC 13db04 1c 0 std::__ndk1::__function::__func<void (*)(void*), std::__ndk1::allocator<void (*)(void*)>, void (void*)>::target(std::type_info const&) const
FUNC 13db20 c 0 std::__ndk1::__function::__func<void (*)(void*), std::__ndk1::allocator<void (*)(void*)>, void (void*)>::target_type() const
FUNC 13db2c 78 0 fmt::v11::basic_memory_buffer<char, (unsigned long)500, std::__ndk1::allocator<char> >::grow(fmt::v11::detail::buffer<char>&, unsigned long)
FUNC 13dba4 258 0 fmt::v11::detail::write_padded<char, (fmt::v11::align::type)1, fmt::v11::basic_appender<char>, fmt::v11::detail::write_nonfinite<char, fmt::v11::basic_appender<char> >(fmt::v11::basic_appender<char>, bool, fmt::v11::format_specs, fmt::v11::sign::type)::{lambda(fmt::v11::basic_appender<char>&)#1}>(fmt::v11::basic_appender<char>, fmt::v11::format_specs const&, unsigned long, unsigned long, fmt::v11::detail::write_nonfinite<char, fmt::v11::basic_appender<char> >(fmt::v11::basic_appender<char>, bool, fmt::v11::format_specs, fmt::v11::sign::type)::{lambda(fmt::v11::basic_appender<char>&)#1})
FUNC 13ddfc 6c8 0 fmt::v11::detail::do_write_float<char, fmt::v11::basic_appender<char>, fmt::v11::detail::dragonbox::decimal_fp<float>, fmt::v11::detail::digit_grouping<char> >(fmt::v11::basic_appender<char>, fmt::v11::detail::dragonbox::decimal_fp<float> const&, fmt::v11::format_specs const&, fmt::v11::detail::float_specs, fmt::v11::detail::locale_ref)
FUNC 13e4c4 154 0 fmt::v11::detail::do_write_float<char, fmt::v11::basic_appender<char>, fmt::v11::detail::dragonbox::decimal_fp<float>, fmt::v11::detail::digit_grouping<char> >(fmt::v11::basic_appender<char>, fmt::v11::detail::dragonbox::decimal_fp<float> const&, fmt::v11::format_specs const&, fmt::v11::detail::float_specs, fmt::v11::detail::locale_ref)::{lambda(fmt::v11::basic_appender<char>(fmt::v11::basic_appender<char>))#1}::operator() const
FUNC 13e618 1a0 0 fmt::v11::detail::digit_grouping<char>::digit_grouping(fmt::v11::detail::locale_ref, bool)
FUNC 13e7b8 44 0 fmt::v11::detail::digit_grouping<char>::~digit_grouping()
FUNC 13e7fc 1a4 0 fmt::v11::detail::write_exponent<char, fmt::v11::basic_appender<char> >(int, fmt::v11::basic_appender<char>)
FUNC 13e9a0 17c 0 _ZN3fmt3v116detail17write_significandIcjTnNSt6__ndk19enable_ifIXsr3std11is_integralIT0_EE5valueEiE4typeELi0EEEPT_S9_S5_iiS8_
FUNC 13eb1c 150 0 fmt::v11::detail::copy_noinline<char, char*, fmt::v11::basic_appender<char> >(char*, char*, fmt::v11::basic_appender<char>)
FUNC 13ec6c 134 0 fmt::v11::detail::do_write_float<char, fmt::v11::basic_appender<char>, fmt::v11::detail::dragonbox::decimal_fp<float>, fmt::v11::detail::digit_grouping<char> >(fmt::v11::basic_appender<char>, fmt::v11::detail::dragonbox::decimal_fp<float> const&, fmt::v11::format_specs const&, fmt::v11::detail::float_specs, fmt::v11::detail::locale_ref)::{lambda(fmt::v11::basic_appender<char>(fmt::v11::basic_appender<char>))#2}::operator() const
FUNC 13eda0 2c0 0 fmt::v11::detail::write_significand<char, fmt::v11::basic_appender<char>, unsigned int, fmt::v11::detail::digit_grouping<char> >(fmt::v11::basic_appender<char>, unsigned int, int, int, fmt::v11::detail::digit_grouping<char> const&)
FUNC 13f060 3a4 0 fmt::v11::detail::digit_grouping<char>::apply<fmt::v11::basic_appender<char>, char>(fmt::v11::basic_appender<char>, fmt::v11::basic_string_view<char>) const
FUNC 13f404 a0 0 fmt::v11::basic_memory_buffer<int, (unsigned long)500, std::__ndk1::allocator<int> >::grow(fmt::v11::detail::buffer<int>&, unsigned long)
FUNC 13f4a4 190 0 fmt::v11::detail::write_padded<char, (fmt::v11::align::type)2, fmt::v11::basic_appender<char>, fmt::v11::detail::do_write_float<char, fmt::v11::basic_appender<char>, fmt::v11::detail::dragonbox::decimal_fp<float>, fmt::v11::detail::digit_grouping<char> >(fmt::v11::basic_appender<char>, fmt::v11::detail::dragonbox::decimal_fp<float> const&, fmt::v11::format_specs const&, fmt::v11::detail::float_specs, fmt::v11::detail::locale_ref)::{lambda(fmt::v11::basic_appender<char>&)#3}>(fmt::v11::basic_appender<char>, fmt::v11::format_specs const&, unsigned long, unsigned long, fmt::v11::detail::do_write_float<char, fmt::v11::basic_appender<char>, fmt::v11::detail::dragonbox::decimal_fp<float>, fmt::v11::detail::digit_grouping<char> >(fmt::v11::basic_appender<char>, fmt::v11::detail::dragonbox::decimal_fp<float> const&, fmt::v11::format_specs const&, fmt::v11::detail::float_specs, fmt::v11::detail::locale_ref)::{lambda(fmt::v11::basic_appender<char>&)#3})
FUNC 13f634 148 0 fmt::v11::detail::write_significand<fmt::v11::basic_appender<char>, char, unsigned int, fmt::v11::detail::digit_grouping<char> >(fmt::v11::basic_appender<char>, unsigned int, int, int, char, fmt::v11::detail::digit_grouping<char> const&)
FUNC 13f77c 21c 0 fmt::v11::detail::do_write_float<char, fmt::v11::basic_appender<char>, fmt::v11::detail::dragonbox::decimal_fp<float>, fmt::v11::detail::digit_grouping<char> >(fmt::v11::basic_appender<char>, fmt::v11::detail::dragonbox::decimal_fp<float> const&, fmt::v11::format_specs const&, fmt::v11::detail::float_specs, fmt::v11::detail::locale_ref)::{lambda(fmt::v11::basic_appender<char>(fmt::v11::basic_appender<char>))#4}::operator() const
FUNC 13f998 678 0 __cxx_global_var_init.30
FUNC 140010 1c 0 geode::modifier::ModifyBase<geode::modifier::ModifyDerive<hook11<(anonymous namespace)::hook11Parent>, GJBaseGameLayer> >::~ModifyBase()
FUNC 14002c 74 0 std::__ndk1::__variant_detail::__dtor<std::__ndk1::__variant_detail::__traits<geode::Hook*, std::__ndk1::basic_string<char, std::__ndk1::char_traits<char>, std::__ndk1::allocator<char> > >, (std::__ndk1::__variant_detail::_Trait)1>::~__dtor()
FUNC 1400a0 478 0 geode::modifier::ModifyDerive<hook11<(anonymous namespace)::hook11Parent>, GJBaseGameLayer>::apply()
FUNC 140518 4 0 geode::modifier::ModifyBase<geode::modifier::ModifyDerive<hook11<(anonymous namespace)::hook11Parent>, GJBaseGameLayer> >::apply()
FUNC 14051c 74 0 hook11<(anonymous namespace)::hook11Parent>::onModify<geode::modifier::ModifyBase<geode::modifier::ModifyDerive<hook11<(anonymous namespace)::hook11Parent>, GJBaseGameLayer> > >(geode::modifier::ModifyBase<geode::modifier::ModifyDerive<hook11<(anonymous namespace)::hook11Parent>, GJBaseGameLayer> >&)::{lambda()#1}::~{lambda()#1}()
FUNC 140590 c 0 std::__ndk1::__variant_detail::__visitation::__base::__dispatcher<(unsigned long)0, (unsigned long)0>::__dispatch[abi:ne180000]<std::__ndk1::__variant_detail::__ctor<std::__ndk1::__variant_detail::__traits<geode::Hook*, std::__ndk1::basic_string<char, std::__ndk1::char_traits<char>, std::__ndk1::allocator<char> > > >::__generic_construct[abi:ne180000]<std::__ndk1::__variant_detail::__copy_constructor<std::__ndk1::basic_string<char, std::__ndk1::char_traits<char>, std::__ndk1::allocator<char> >, (std::__ndk1::__variant_detail::_Trait)1> const&>(std::__ndk1::__variant_detail::__traits<geode::Hook*, std::__ndk1::basic_string<char, std::__ndk1::char_traits<char>, std::__ndk1::allocator<char> > >&, std::__ndk1::__variant_detail::__copy_constructor<std::__ndk1::basic_string<char, std::__ndk1::char_traits<char>, std::__ndk1::allocator<char> >, (std::__ndk1::__variant_detail::_Trait)1> const&)::{lambda(std::__ndk1::__variant_detail::__copy_constructor<std::__ndk1::basic_string<char, std::__ndk1::char_traits<char>, std::__ndk1::allocator<char> >, (std::__ndk1::__variant_detail::_Trait)1> const&, auto:2&&)#1}, std::__ndk1::__variant_detail::__base<(std::__ndk1::__variant_detail::__ctor<std::__ndk1::__variant_detail::__traits<geode::Hook*, std::__ndk1::basic_string<char, std::__ndk1::char_traits<char>, std::__ndk1::allocator<char> > > >::__generic_construct[abi:ne180000])1, geode::Hook, std::__ndk1::allocator<char> >&, std::__ndk1::__variant_detail::__ctor<std::__ndk1::__variant_detail::__traits<geode::Hook*, std::__ndk1::basic_string<char, std::__ndk1::char_traits<char>, std::__ndk1::allocator<char> > > >::__generic_construct[abi:ne180000]<std::__ndk1::__variant_detail::__copy_constructor<std::__ndk1::basic_string<char, std::__ndk1::char_traits<char>, std::__ndk1::allocator<char> >, (std::__ndk1::__variant_detail::_Trait)1> const&>(std::__ndk1::__variant_detail::__traits<geode::Hook*, std::__ndk1::basic_string<char, std::__ndk1::char_traits<char>, std::__ndk1::allocator<char> > >&, std::__ndk1::__variant_detail::__copy_constructor<std::__ndk1::basic_string<char, std::__ndk1::char_traits<char>, std::__ndk1::allocator<char> >, (std::__ndk1::__variant_detail::_Trait)1> const&)::{lambda(std::__ndk1::__variant_detail::__copy_constructor<std::__ndk1::basic_string<char, std::__ndk1::char_traits<char>, std::__ndk1::allocator<char> >, (std::__ndk1::__variant_detail::_Trait)1> const&, auto:2&&)#1} const&>(std::__ndk1::__variant_detail::__copy_constructor<std::__ndk1::basic_string<char, std::__ndk1::char_traits<char>, std::__ndk1::allocator<char> >, (std::__ndk1::__variant_detail::_Trait)1> const&, std::__ndk1::__variant_detail::__base<(std::__ndk1::__variant_detail::__ctor<std::__ndk1::__variant_detail::__traits<geode::Hook*, std::__ndk1::basic_string<char, std::__ndk1::char_traits<char>, std::__ndk1::allocator<char> > > >::__generic_construct[abi:ne180000])1, geode::Hook, std::__ndk1::allocator<char> >&, std::__ndk1::__variant_detail::__ctor<std::__ndk1::__variant_detail::__traits<geode::Hook*, std::__ndk1::basic_string<char, std::__ndk1::char_traits<char>, std::__ndk1::allocator<char> > > >::__generic_construct[abi:ne180000]<std::__ndk1::__variant_detail::__copy_constructor<std::__ndk1::basic_string<char, std::__ndk1::char_traits<char>, std::__ndk1::allocator<char> >, (std::__ndk1::__variant_detail::_Trait)1> const&>(std::__ndk1::__variant_detail::__traits<geode::Hook*, std::__ndk1::basic_string<char, std::__ndk1::char_traits<char>, std::__ndk1::allocator<char> > >&, std::__ndk1::__variant_detail::__copy_constructor<std::__ndk1::basic_string<char, std::__ndk1::char_traits<char>, std::__ndk1::allocator<char> >, (std::__ndk1::__variant_detail::_Trait)1> const&)::{lambda(std::__ndk1::__variant_detail::__copy_constructor<std::__ndk1::basic_string<char, std::__ndk1::char_traits<char>, std::__ndk1::allocator<char> >, (std::__ndk1::__variant_detail::_Trait)1> const&, auto:2&&)#1} const&)
FUNC 14059c 2c 0 std::__ndk1::__variant_detail::__visitation::__base::__dispatcher<(unsigned long)1, (unsigned long)1>::__dispatch[abi:ne180000]<std::__ndk1::__variant_detail::__ctor<std::__ndk1::__variant_detail::__traits<geode::Hook*, std::__ndk1::basic_string<char, std::__ndk1::char_traits<char>, std::__ndk1::allocator<char> > > >::__generic_construct[abi:ne180000]<std::__ndk1::__variant_detail::__copy_constructor<std::__ndk1::basic_string<char, std::__ndk1::char_traits<char>, std::__ndk1::allocator<char> >, (std::__ndk1::__variant_detail::_Trait)1> const&>(std::__ndk1::__variant_detail::__traits<geode::Hook*, std::__ndk1::basic_string<char, std::__ndk1::char_traits<char>, std::__ndk1::allocator<char> > >&, std::__ndk1::__variant_detail::__copy_constructor<std::__ndk1::basic_string<char, std::__ndk1::char_traits<char>, std::__ndk1::allocator<char> >, (std::__ndk1::__variant_detail::_Trait)1> const&)::{lambda(std::__ndk1::__variant_detail::__copy_constructor<std::__ndk1::basic_string<char, std::__ndk1::char_traits<char>, std::__ndk1::allocator<char> >, (std::__ndk1::__variant_detail::_Trait)1> const&, auto:2&&)#1}, std::__ndk1::__variant_detail::__base<(std::__ndk1::__variant_detail::__ctor<std::__ndk1::__variant_detail::__traits<geode::Hook*, std::__ndk1::basic_string<char, std::__ndk1::char_traits<char>, std::__ndk1::allocator<char> > > >::__generic_construct[abi:ne180000])1, geode::Hook, std::__ndk1::allocator<char> >&, std::__ndk1::__variant_detail::__ctor<std::__ndk1::__variant_detail::__traits<geode::Hook*, std::__ndk1::basic_string<char, std::__ndk1::char_traits<char>, std::__ndk1::allocator<char> > > >::__generic_construct[abi:ne180000]<std::__ndk1::__variant_detail::__copy_constructor<std::__ndk1::basic_string<char, std::__ndk1::char_traits<char>, std::__ndk1::allocator<char> >, (std::__ndk1::__variant_detail::_Trait)1> const&>(std::__ndk1::__variant_detail::__traits<geode::Hook*, std::__ndk1::basic_string<char, std::__ndk1::char_traits<char>, std::__ndk1::allocator<char> > >&, std::__ndk1::__variant_detail::__copy_constructor<std::__ndk1::basic_string<char, std::__ndk1::char_traits<char>, std::__ndk1::allocator<char> >, (std::__ndk1::__variant_detail::_Trait)1> const&)::{lambda(std::__ndk1::__variant_detail::__copy_constructor<std::__ndk1::basic_string<char, std::__ndk1::char_traits<char>, std::__ndk1::allocator<char> >, (std::__ndk1::__variant_detail::_Trait)1> const&, auto:2&&)#1} const&>(std::__ndk1::__variant_detail::__copy_constructor<std::__ndk1::basic_string<char, std::__ndk1::char_traits<char>, std::__ndk1::allocator<char> >, (std::__ndk1::__variant_detail::_Trait)1> const&, std::__ndk1::__variant_detail::__base<(std::__ndk1::__variant_detail::__ctor<std::__ndk1::__variant_detail::__traits<geode::Hook*, std::__ndk1::basic_string<char, std::__ndk1::char_traits<char>, std::__ndk1::allocator<char> > > >::__generic_construct[abi:ne180000])1, geode::Hook, std::__ndk1::allocator<char> >&, std::__ndk1::__variant_detail::__ctor<std::__ndk1::__variant_detail::__traits<geode::Hook*, std::__ndk1::basic_string<char, std::__ndk1::char_traits<char>, std::__ndk1::allocator<char> > > >::__generic_construct[abi:ne180000]<std::__ndk1::__variant_detail::__copy_constructor<std::__ndk1::basic_string<char, std::__ndk1::char_traits<char>, std::__ndk1::allocator<char> >, (std::__ndk1::__variant_detail::_Trait)1> const&>(std::__ndk1::__variant_detail::__traits<geode::Hook*, std::__ndk1::basic_string<char, std::__ndk1::char_traits<char>, std::__ndk1::allocator<char> > >&, std::__ndk1::__variant_detail::__copy_constructor<std::__ndk1::basic_string<char, std::__ndk1::char_traits<char>, std::__ndk1::allocator<char> >, (std::__ndk1::__variant_detail::_Trait)1> const&)::{lambda(std::__ndk1::__variant_detail::__copy_constructor<std::__ndk1::basic_string<char, std::__ndk1::char_traits<char>, std::__ndk1::allocator<char> >, (std::__ndk1::__variant_detail::_Trait)1> const&, auto:2&&)#1} const&)
FUNC 1405c8 80 0 std::__ndk1::__function::__func<hook11<(anonymous namespace)::hook11Parent>::onModify<geode::modifier::ModifyBase<geode::modifier::ModifyDerive<hook11<(anonymous namespace)::hook11Parent>, GJBaseGameLayer> > >(geode::modifier::ModifyBase<geode::modifier::ModifyDerive<hook11<(anonymous namespace)::hook11Parent>, GJBaseGameLayer> >&)::{lambda()#1}, std::__ndk1::allocator<hook11<(anonymous namespace)::hook11Parent>::onModify<geode::modifier::ModifyBase<geode::modifier::ModifyDerive<hook11<(anonymous namespace)::hook11Parent>, GJBaseGameLayer> > >(geode::modifier::ModifyBase<geode::modifier::ModifyDerive<hook11<(anonymous namespace)::hook11Parent>, GJBaseGameLayer> >&)::{lambda()#1}>, void ()>::~__func()
FUNC 140648 80 0 std::__ndk1::__function::__func<hook11<(anonymous namespace)::hook11Parent>::onModify<geode::modifier::ModifyBase<geode::modifier::ModifyDerive<hook11<(anonymous namespace)::hook11Parent>, GJBaseGameLayer> > >(geode::modifier::ModifyBase<geode::modifier::ModifyDerive<hook11<(anonymous namespace)::hook11Parent>, GJBaseGameLayer> >&)::{lambda()#1}, std::__ndk1::allocator<hook11<(anonymous namespace)::hook11Parent>::onModify<geode::modifier::ModifyBase<geode::modifier::ModifyDerive<hook11<(anonymous namespace)::hook11Parent>, GJBaseGameLayer> > >(geode::modifier::ModifyBase<geode::modifier::ModifyDerive<hook11<(anonymous namespace)::hook11Parent>, GJBaseGameLayer> >&)::{lambda()#1}>, void ()>::~__func()
FUNC 1406c8 d4 0 std::__ndk1::__function::__func<hook11<(anonymous namespace)::hook11Parent>::onModify<geode::modifier::ModifyBase<geode::modifier::ModifyDerive<hook11<(anonymous namespace)::hook11Parent>, GJBaseGameLayer> > >(geode::modifier::ModifyBase<geode::modifier::ModifyDerive<hook11<(anonymous namespace)::hook11Parent>, GJBaseGameLayer> >&)::{lambda()#1}, std::__ndk1::allocator<hook11<(anonymous namespace)::hook11Parent>::onModify<geode::modifier::ModifyBase<geode::modifier::ModifyDerive<hook11<(anonymous namespace)::hook11Parent>, GJBaseGameLayer> > >(geode::modifier::ModifyBase<geode::modifier::ModifyDerive<hook11<(anonymous namespace)::hook11Parent>, GJBaseGameLayer> >&)::{lambda()#1}>, void ()>::__clone() const
FUNC 14079c c0 0 std::__ndk1::__function::__func<hook11<(anonymous namespace)::hook11Parent>::onModify<geode::modifier::ModifyBase<geode::modifier::ModifyDerive<hook11<(anonymous namespace)::hook11Parent>, GJBaseGameLayer> > >(geode::modifier::ModifyBase<geode::modifier::ModifyDerive<hook11<(anonymous namespace)::hook11Parent>, GJBaseGameLayer> >&)::{lambda()#1}, std::__ndk1::allocator<hook11<(anonymous namespace)::hook11Parent>::onModify<geode::modifier::ModifyBase<geode::modifier::ModifyDerive<hook11<(anonymous namespace)::hook11Parent>, GJBaseGameLayer> > >(geode::modifier::ModifyBase<geode::modifier::ModifyDerive<hook11<(anonymous namespace)::hook11Parent>, GJBaseGameLayer> >&)::{lambda()#1}>, void ()>::__clone(std::__ndk1::__function::__base<void ()>*) const
FUNC 14085c 74 0 std::__ndk1::__function::__func<hook11<(anonymous namespace)::hook11Parent>::onModify<geode::modifier::ModifyBase<geode::modifier::ModifyDerive<hook11<(anonymous namespace)::hook11Parent>, GJBaseGameLayer> > >(geode::modifier::ModifyBase<geode::modifier::ModifyDerive<hook11<(anonymous namespace)::hook11Parent>, GJBaseGameLayer> >&)::{lambda()#1}, std::__ndk1::allocator<hook11<(anonymous namespace)::hook11Parent>::onModify<geode::modifier::ModifyBase<geode::modifier::ModifyDerive<hook11<(anonymous namespace)::hook11Parent>, GJBaseGameLayer> > >(geode::modifier::ModifyBase<geode::modifier::ModifyDerive<hook11<(anonymous namespace)::hook11Parent>, GJBaseGameLayer> >&)::{lambda()#1}>, void ()>::destroy()
FUNC 1408d0 74 0 std::__ndk1::__function::__func<hook11<(anonymous namespace)::hook11Parent>::onModify<geode::modifier::ModifyBase<geode::modifier::ModifyDerive<hook11<(anonymous namespace)::hook11Parent>, GJBaseGameLayer> > >(geode::modifier::ModifyBase<geode::modifier::ModifyDerive<hook11<(anonymous namespace)::hook11Parent>, GJBaseGameLayer> >&)::{lambda()#1}, std::__ndk1::allocator<hook11<(anonymous namespace)::hook11Parent>::onModify<geode::modifier::ModifyBase<geode::modifier::ModifyDerive<hook11<(anonymous namespace)::hook11Parent>, GJBaseGameLayer> > >(geode::modifier::ModifyBase<geode::modifier::ModifyDerive<hook11<(anonymous namespace)::hook11Parent>, GJBaseGameLayer> >&)::{lambda()#1}>, void ()>::destroy_deallocate()
FUNC 140944 11c 0 std::__ndk1::__function::__func<hook11<(anonymous namespace)::hook11Parent>::onModify<geode::modifier::ModifyBase<geode::modifier::ModifyDerive<hook11<(anonymous namespace)::hook11Parent>, GJBaseGameLayer> > >(geode::modifier::ModifyBase<geode::modifier::ModifyDerive<hook11<(anonymous namespace)::hook11Parent>, GJBaseGameLayer> >&)::{lambda()#1}, std::__ndk1::allocator<hook11<(anonymous namespace)::hook11Parent>::onModify<geode::modifier::ModifyBase<geode::modifier::ModifyDerive<hook11<(anonymous namespace)::hook11Parent>, GJBaseGameLayer> > >(geode::modifier::ModifyBase<geode::modifier::ModifyDerive<hook11<(anonymous namespace)::hook11Parent>, GJBaseGameLayer> >&)::{lambda()#1}>, void ()>::operator()()
FUNC 140a60 1c 0 std::__ndk1::__function::__func<hook11<(anonymous namespace)::hook11Parent>::onModify<geode::modifier::ModifyBase<geode::modifier::ModifyDerive<hook11<(anonymous namespace)::hook11Parent>, GJBaseGameLayer> > >(geode::modifier::ModifyBase<geode::modifier::ModifyDerive<hook11<(anonymous namespace)::hook11Parent>, GJBaseGameLayer> >&)::{lambda()#1}, std::__ndk1::allocator<hook11<(anonymous namespace)::hook11Parent>::onModify<geode::modifier::ModifyBase<geode::modifier::ModifyDerive<hook11<(anonymous namespace)::hook11Parent>, GJBaseGameLayer> > >(geode::modifier::ModifyBase<geode::modifier::ModifyDerive<hook11<(anonymous namespace)::hook11Parent>, GJBaseGameLayer> >&)::{lambda()#1}>, void ()>::target(std::type_info const&) const
FUNC 140a7c c 0 std::__ndk1::__function::__func<hook11<(anonymous namespace)::hook11Parent>::onModify<geode::modifier::ModifyBase<geode::modifier::ModifyDerive<hook11<(anonymous namespace)::hook11Parent>, GJBaseGameLayer> > >(geode::modifier::ModifyBase<geode::modifier::ModifyDerive<hook11<(anonymous namespace)::hook11Parent>, GJBaseGameLayer> >&)::{lambda()#1}, std::__ndk1::allocator<hook11<(anonymous namespace)::hook11Parent>::onModify<geode::modifier::ModifyBase<geode::modifier::ModifyDerive<hook11<(anonymous namespace)::hook11Parent>, GJBaseGameLayer> > >(geode::modifier::ModifyBase<geode::modifier::ModifyDerive<hook11<(anonymous namespace)::hook11Parent>, GJBaseGameLayer> >&)::{lambda()#1}>, void ()>::target_type() const
FUNC 140a88 c 0 std::__ndk1::__variant_detail::__visitation::__base::__dispatcher<(unsigned long)0, (unsigned long)0>::__dispatch[abi:ne180000]<std::__ndk1::__variant_detail::__ctor<std::__ndk1::__variant_detail::__traits<geode::Hook*, std::__ndk1::basic_string<char, std::__ndk1::char_traits<char>, std::__ndk1::allocator<char> > > >::__generic_construct[abi:ne180000]<std::__ndk1::__variant_detail::__move_constructor<std::__ndk1::basic_string<char, std::__ndk1::char_traits<char>, std::__ndk1::allocator<char> >, (std::__ndk1::__variant_detail::_Trait)1> >(std::__ndk1::__variant_detail::__traits<geode::Hook*, std::__ndk1::basic_string<char, std::__ndk1::char_traits<char>, std::__ndk1::allocator<char> > >&, std::__ndk1::__variant_detail::__move_constructor<std::__ndk1::basic_string<char, std::__ndk1::char_traits<char>, std::__ndk1::allocator<char> >, (std::__ndk1::__variant_detail::_Trait)1>&&)::{lambda(std::__ndk1::__variant_detail::__move_constructor<std::__ndk1::basic_string<char, std::__ndk1::char_traits<char>, std::__ndk1::allocator<char> >, (std::__ndk1::__variant_detail::_Trait)1>&, auto:2&&)#1}, std::__ndk1::__variant_detail::__base<(std::__ndk1::__variant_detail::__ctor<std::__ndk1::__variant_detail::__traits<geode::Hook*, std::__ndk1::basic_string<char, std::__ndk1::char_traits<char>, std::__ndk1::allocator<char> > > >::__generic_construct[abi:ne180000])1, geode::Hook, std::__ndk1::allocator<char> >&, std::__ndk1::__variant_detail::__ctor<std::__ndk1::__variant_detail::__traits<geode::Hook*, std::__ndk1::basic_string<char, std::__ndk1::char_traits<char>, std::__ndk1::allocator<char> > > >::__generic_construct[abi:ne180000]<std::__ndk1::__variant_detail::__move_constructor<std::__ndk1::basic_string<char, std::__ndk1::char_traits<char>, std::__ndk1::allocator<char> >, (std::__ndk1::__variant_detail::_Trait)1> >(std::__ndk1::__variant_detail::__traits<geode::Hook*, std::__ndk1::basic_string<char, std::__ndk1::char_traits<char>, std::__ndk1::allocator<char> > >&, std::__ndk1::__variant_detail::__move_constructor<std::__ndk1::basic_string<char, std::__ndk1::char_traits<char>, std::__ndk1::allocator<char> >, (std::__ndk1::__variant_detail::_Trait)1>&&)::{lambda(std::__ndk1::__variant_detail::__move_constructor<std::__ndk1::basic_string<char, std::__ndk1::char_traits<char>, std::__ndk1::allocator<char> >, (std::__ndk1::__variant_detail::_Trait)1>&, auto:2&&)#1}>(std::__ndk1::__variant_detail::__move_constructor<std::__ndk1::basic_string<char, std::__ndk1::char_traits<char>, std::__ndk1::allocator<char> >, (std::__ndk1::__variant_detail::_Trait)1>, std::__ndk1::__variant_detail::__base<(std::__ndk1::__variant_detail::__ctor<std::__ndk1::__variant_detail::__traits<geode::Hook*, std::__ndk1::basic_string<char, std::__ndk1::char_traits<char>, std::__ndk1::allocator<char> > > >::__generic_construct[abi:ne180000])1, geode::Hook, std::__ndk1::allocator<char> >&, std::__ndk1::__variant_detail::__ctor<std::__ndk1::__variant_detail::__traits<geode::Hook*, std::__ndk1::basic_string<char, std::__ndk1::char_traits<char>, std::__ndk1::allocator<char> > > >::__generic_construct[abi:ne180000]<std::__ndk1::__variant_detail::__move_constructor<std::__ndk1::basic_string<char, std::__ndk1::char_traits<char>, std::__ndk1::allocator<char> >, (std::__ndk1::__variant_detail::_Trait)1> >(std::__ndk1::__variant_detail::__traits<geode::Hook*, std::__ndk1::basic_string<char, std::__ndk1::char_traits<char>, std::__ndk1::allocator<char> > >&, std::__ndk1::__variant_detail::__move_constructor<std::__ndk1::basic_string<char, std::__ndk1::char_traits<char>, std::__ndk1::allocator<char> >, (std::__ndk1::__variant_detail::_Trait)1>&&)::{lambda(std::__ndk1::__variant_detail::__move_constructor<std::__ndk1::basic_string<char, std::__ndk1::char_traits<char>, std::__ndk1::allocator<char> >, (std::__ndk1::__variant_detail::_Trait)1>&, auto:2&&)#1})
FUNC 140a94 1c 0 std::__ndk1::__variant_detail::__visitation::__base::__dispatcher<(unsigned long)1, (unsigned long)1>::__dispatch[abi:ne180000]<std::__ndk1::__variant_detail::__ctor<std::__ndk1::__variant_detail::__traits<geode::Hook*, std::__ndk1::basic_string<char, std::__ndk1::char_traits<char>, std::__ndk1::allocator<char> > > >::__generic_construct[abi:ne180000]<std::__ndk1::__variant_detail::__move_constructor<std::__ndk1::basic_string<char, std::__ndk1::char_traits<char>, std::__ndk1::allocator<char> >, (std::__ndk1::__variant_detail::_Trait)1> >(std::__ndk1::__variant_detail::__traits<geode::Hook*, std::__ndk1::basic_string<char, std::__ndk1::char_traits<char>, std::__ndk1::allocator<char> > >&, std::__ndk1::__variant_detail::__move_constructor<std::__ndk1::basic_string<char, std::__ndk1::char_traits<char>, std::__ndk1::allocator<char> >, (std::__ndk1::__variant_detail::_Trait)1>&&)::{lambda(std::__ndk1::__variant_detail::__move_constructor<std::__ndk1::basic_string<char, std::__ndk1::char_traits<char>, std::__ndk1::allocator<char> >, (std::__ndk1::__variant_detail::_Trait)1>&, auto:2&&)#1}, std::__ndk1::__variant_detail::__base<(std::__ndk1::__variant_detail::__ctor<std::__ndk1::__variant_detail::__traits<geode::Hook*, std::__ndk1::basic_string<char, std::__ndk1::char_traits<char>, std::__ndk1::allocator<char> > > >::__generic_construct[abi:ne180000])1, geode::Hook, std::__ndk1::allocator<char> >&, std::__ndk1::__variant_detail::__ctor<std::__ndk1::__variant_detail::__traits<geode::Hook*, std::__ndk1::basic_string<char, std::__ndk1::char_traits<char>, std::__ndk1::allocator<char> > > >::__generic_construct[abi:ne180000]<std::__ndk1::__variant_detail::__move_constructor<std::__ndk1::basic_string<char, std::__ndk1::char_traits<char>, std::__ndk1::allocator<char> >, (std::__ndk1::__variant_detail::_Trait)1> >(std::__ndk1::__variant_detail::__traits<geode::Hook*, std::__ndk1::basic_string<char, std::__ndk1::char_traits<char>, std::__ndk1::allocator<char> > >&, std::__ndk1::__variant_detail::__move_constructor<std::__ndk1::basic_string<char, std::__ndk1::char_traits<char>, std::__ndk1::allocator<char> >, (std::__ndk1::__variant_detail::_Trait)1>&&)::{lambda(std::__ndk1::__variant_detail::__move_constructor<std::__ndk1::basic_string<char, std::__ndk1::char_traits<char>, std::__ndk1::allocator<char> >, (std::__ndk1::__variant_detail::_Trait)1>&, auto:2&&)#1}>(std::__ndk1::__variant_detail::__move_constructor<std::__ndk1::basic_string<char, std::__ndk1::char_traits<char>, std::__ndk1::allocator<char> >, (std::__ndk1::__variant_detail::_Trait)1>, std::__ndk1::__variant_detail::__base<(std::__ndk1::__variant_detail::__ctor<std::__ndk1::__variant_detail::__traits<geode::Hook*, std::__ndk1::basic_string<char, std::__ndk1::char_traits<char>, std::__ndk1::allocator<char> > > >::__generic_construct[abi:ne180000])1, geode::Hook, std::__ndk1::allocator<char> >&, std::__ndk1::__variant_detail::__ctor<std::__ndk1::__variant_detail::__traits<geode::Hook*, std::__ndk1::basic_string<char, std::__ndk1::char_traits<char>, std::__ndk1::allocator<char> > > >::__generic_construct[abi:ne180000]<std::__ndk1::__variant_detail::__move_constructor<std::__ndk1::basic_string<char, std::__ndk1::char_traits<char>, std::__ndk1::allocator<char> >, (std::__ndk1::__variant_detail::_Trait)1> >(std::__ndk1::__variant_detail::__traits<geode::Hook*, std::__ndk1::basic_string<char, std::__ndk1::char_traits<char>, std::__ndk1::allocator<char> > >&, std::__ndk1::__variant_detail::__move_constructor<std::__ndk1::basic_string<char, std::__ndk1::char_traits<char>, std::__ndk1::allocator<char> >, (std::__ndk1::__variant_detail::_Trait)1>&&)::{lambda(std::__ndk1::__variant_detail::__move_constructor<std::__ndk1::basic_string<char, std::__ndk1::char_traits<char>, std::__ndk1::allocator<char> >, (std::__ndk1::__variant_detail::_Trait)1>&, auto:2&&)#1})
FUNC 140ab0 1cc 0 geode::modifier::AsStaticFunction_collisionCheckObjects<hook11<(anonymous namespace)::hook11Parent>, void (hook11<(anonymous namespace)::hook11Parent>::*)(PlayerObject*, gd::vector<GameObject*>*, int, float)>::Impl<void (hook11<(anonymous namespace)::hook11Parent>::*)(PlayerObject*, gd::vector<GameObject*>*, int, float)>::function(hook11<(anonymous namespace)::hook11Parent>*, PlayerObject*, gd::vector<GameObject*>*, int, float)
FUNC 140c7c 7e4 0 __cxx_global_var_init.30
FUNC 141460 1c 0 geode::modifier::ModifyBase<geode::modifier::ModifyDerive<hook8<(anonymous namespace)::hook8Parent>, UILayer> >::~ModifyBase()
FUNC 14147c 6c 0 std::__ndk1::pair<std::__ndk1::basic_string<char, std::__ndk1::char_traits<char>, std::__ndk1::allocator<char> > const, std::__ndk1::shared_ptr<geode::Hook> >::~pair()
FUNC 1414e8 71c 0 geode::modifier::ModifyDerive<hook8<(anonymous namespace)::hook8Parent>, UILayer>::apply()
FUNC 141c04 4 0 geode::modifier::ModifyBase<geode::modifier::ModifyDerive<hook8<(anonymous namespace)::hook8Parent>, UILayer> >::apply()
FUNC 141c08 24 0 std::__ndk1::__function::__func<hook8<(anonymous namespace)::hook8Parent>::onModify<geode::modifier::ModifyBase<geode::modifier::ModifyDerive<hook8<(anonymous namespace)::hook8Parent>, UILayer> > >(geode::modifier::ModifyBase<geode::modifier::ModifyDerive<hook8<(anonymous namespace)::hook8Parent>, UILayer> >&)::{lambda()#1}, std::__ndk1::allocator<hook8<(anonymous namespace)::hook8Parent>::onModify<geode::modifier::ModifyBase<geode::modifier::ModifyDerive<hook8<(anonymous namespace)::hook8Parent>, UILayer> > >(geode::modifier::ModifyBase<geode::modifier::ModifyDerive<hook8<(anonymous namespace)::hook8Parent>, UILayer> >&)::{lambda()#1}>, void ()>::~__func()
FUNC 141c2c 40 0 std::__ndk1::__function::__func<hook8<(anonymous namespace)::hook8Parent>::onModify<geode::modifier::ModifyBase<geode::modifier::ModifyDerive<hook8<(anonymous namespace)::hook8Parent>, UILayer> > >(geode::modifier::ModifyBase<geode::modifier::ModifyDerive<hook8<(anonymous namespace)::hook8Parent>, UILayer> >&)::{lambda()#1}, std::__ndk1::allocator<hook8<(anonymous namespace)::hook8Parent>::onModify<geode::modifier::ModifyBase<geode::modifier::ModifyDerive<hook8<(anonymous namespace)::hook8Parent>, UILayer> > >(geode::modifier::ModifyBase<geode::modifier::ModifyDerive<hook8<(anonymous namespace)::hook8Parent>, UILayer> >&)::{lambda()#1}>, void ()>::~__func()
FUNC 141c6c b0 0 std::__ndk1::__function::__func<hook8<(anonymous namespace)::hook8Parent>::onModify<geode::modifier::ModifyBase<geode::modifier::ModifyDerive<hook8<(anonymous namespace)::hook8Parent>, UILayer> > >(geode::modifier::ModifyBase<geode::modifier::ModifyDerive<hook8<(anonymous namespace)::hook8Parent>, UILayer> >&)::{lambda()#1}, std::__ndk1::allocator<hook8<(anonymous namespace)::hook8Parent>::onModify<geode::modifier::ModifyBase<geode::modifier::ModifyDerive<hook8<(anonymous namespace)::hook8Parent>, UILayer> > >(geode::modifier::ModifyBase<geode::modifier::ModifyDerive<hook8<(anonymous namespace)::hook8Parent>, UILayer> >&)::{lambda()#1}>, void ()>::__clone() const
FUNC 141d1c 98 0 std::__ndk1::__function::__func<hook8<(anonymous namespace)::hook8Parent>::onModify<geode::modifier::ModifyBase<geode::modifier::ModifyDerive<hook8<(anonymous namespace)::hook8Parent>, UILayer> > >(geode::modifier::ModifyBase<geode::modifier::ModifyDerive<hook8<(anonymous namespace)::hook8Parent>, UILayer> >&)::{lambda()#1}, std::__ndk1::allocator<hook8<(anonymous namespace)::hook8Parent>::onModify<geode::modifier::ModifyBase<geode::modifier::ModifyDerive<hook8<(anonymous namespace)::hook8Parent>, UILayer> > >(geode::modifier::ModifyBase<geode::modifier::ModifyDerive<hook8<(anonymous namespace)::hook8Parent>, UILayer> >&)::{lambda()#1}>, void ()>::__clone(std::__ndk1::__function::__base<void ()>*) const
FUNC 141db4 18 0 std::__ndk1::__function::__func<hook8<(anonymous namespace)::hook8Parent>::onModify<geode::modifier::ModifyBase<geode::modifier::ModifyDerive<hook8<(anonymous namespace)::hook8Parent>, UILayer> > >(geode::modifier::ModifyBase<geode::modifier::ModifyDerive<hook8<(anonymous namespace)::hook8Parent>, UILayer> >&)::{lambda()#1}, std::__ndk1::allocator<hook8<(anonymous namespace)::hook8Parent>::onModify<geode::modifier::ModifyBase<geode::modifier::ModifyDerive<hook8<(anonymous namespace)::hook8Parent>, UILayer> > >(geode::modifier::ModifyBase<geode::modifier::ModifyDerive<hook8<(anonymous namespace)::hook8Parent>, UILayer> >&)::{lambda()#1}>, void ()>::destroy()
FUNC 141dcc 34 0 std::__ndk1::__function::__func<hook8<(anonymous namespace)::hook8Parent>::onModify<geode::modifier::ModifyBase<geode::modifier::ModifyDerive<hook8<(anonymous namespace)::hook8Parent>, UILayer> > >(geode::modifier::ModifyBase<geode::modifier::ModifyDerive<hook8<(anonymous namespace)::hook8Parent>, UILayer> >&)::{lambda()#1}, std::__ndk1::allocator<hook8<(anonymous namespace)::hook8Parent>::onModify<geode::modifier::ModifyBase<geode::modifier::ModifyDerive<hook8<(anonymous namespace)::hook8Parent>, UILayer> > >(geode::modifier::ModifyBase<geode::modifier::ModifyDerive<hook8<(anonymous namespace)::hook8Parent>, UILayer> >&)::{lambda()#1}>, void ()>::destroy_deallocate()
FUNC 141e00 ac 0 std::__ndk1::__function::__func<hook8<(anonymous namespace)::hook8Parent>::onModify<geode::modifier::ModifyBase<geode::modifier::ModifyDerive<hook8<(anonymous namespace)::hook8Parent>, UILayer> > >(geode::modifier::ModifyBase<geode::modifier::ModifyDerive<hook8<(anonymous namespace)::hook8Parent>, UILayer> >&)::{lambda()#1}, std::__ndk1::allocator<hook8<(anonymous namespace)::hook8Parent>::onModify<geode::modifier::ModifyBase<geode::modifier::ModifyDerive<hook8<(anonymous namespace)::hook8Parent>, UILayer> > >(geode::modifier::ModifyBase<geode::modifier::ModifyDerive<hook8<(anonymous namespace)::hook8Parent>, UILayer> >&)::{lambda()#1}>, void ()>::operator()()
FUNC 141eac 1c 0 std::__ndk1::__function::__func<hook8<(anonymous namespace)::hook8Parent>::onModify<geode::modifier::ModifyBase<geode::modifier::ModifyDerive<hook8<(anonymous namespace)::hook8Parent>, UILayer> > >(geode::modifier::ModifyBase<geode::modifier::ModifyDerive<hook8<(anonymous namespace)::hook8Parent>, UILayer> >&)::{lambda()#1}, std::__ndk1::allocator<hook8<(anonymous namespace)::hook8Parent>::onModify<geode::modifier::ModifyBase<geode::modifier::ModifyDerive<hook8<(anonymous namespace)::hook8Parent>, UILayer> > >(geode::modifier::ModifyBase<geode::modifier::ModifyDerive<hook8<(anonymous namespace)::hook8Parent>, UILayer> >&)::{lambda()#1}>, void ()>::target(std::type_info const&) const
FUNC 141ec8 c 0 std::__ndk1::__function::__func<hook8<(anonymous namespace)::hook8Parent>::onModify<geode::modifier::ModifyBase<geode::modifier::ModifyDerive<hook8<(anonymous namespace)::hook8Parent>, UILayer> > >(geode::modifier::ModifyBase<geode::modifier::ModifyDerive<hook8<(anonymous namespace)::hook8Parent>, UILayer> >&)::{lambda()#1}, std::__ndk1::allocator<hook8<(anonymous namespace)::hook8Parent>::onModify<geode::modifier::ModifyBase<geode::modifier::ModifyDerive<hook8<(anonymous namespace)::hook8Parent>, UILayer> > >(geode::modifier::ModifyBase<geode::modifier::ModifyDerive<hook8<(anonymous namespace)::hook8Parent>, UILayer> >&)::{lambda()#1}>, void ()>::target_type() const
FUNC 141ed4 c 0 geode::modifier::AsStaticFunction_handleKeypress<hook8<(anonymous namespace)::hook8Parent>, void (hook8<(anonymous namespace)::hook8Parent>::*)(cocos2d::enumKeyCodes, bool)>::Impl<void (hook8<(anonymous namespace)::hook8Parent>::*)(cocos2d::enumKeyCodes, bool)>::function(hook8<(anonymous namespace)::hook8Parent>*, cocos2d::enumKeyCodes, bool)
FUNC 141ee0 c 0 geode::modifier::AsStaticFunction_onPause<hook8<(anonymous namespace)::hook8Parent>, void (hook8<(anonymous namespace)::hook8Parent>::*)(cocos2d::CCObject*)>::Impl<void (hook8<(anonymous namespace)::hook8Parent>::*)(cocos2d::CCObject*)>::function(hook8<(anonymous namespace)::hook8Parent>*, cocos2d::CCObject*)
FUNC 141eec 828 0 __cxx_global_var_init.31
FUNC 142714 1c 0 geode::modifier::ModifyBase<geode::modifier::ModifyDerive<AutoBaseGameLayer, GJBaseGameLayer> >::~ModifyBase()
FUNC 142730 398 0 geode::modifier::ModifyDerive<AutoBaseGameLayer, GJBaseGameLayer>::apply()
FUNC 142ac8 4 0 geode::modifier::ModifyBase<geode::modifier::ModifyDerive<AutoBaseGameLayer, GJBaseGameLayer> >::apply()
FUNC 142acc 24 0 std::__ndk1::__function::__func<AutoBaseGameLayer::onModify<geode::modifier::ModifyBase<geode::modifier::ModifyDerive<AutoBaseGameLayer, GJBaseGameLayer> > >(geode::modifier::ModifyBase<geode::modifier::ModifyDerive<AutoBaseGameLayer, GJBaseGameLayer> >&)::{lambda()#1}, std::__ndk1::allocator<AutoBaseGameLayer::onModify<geode::modifier::ModifyBase<geode::modifier::ModifyDerive<AutoBaseGameLayer, GJBaseGameLayer> > >(geode::modifier::ModifyBase<geode::modifier::ModifyDerive<AutoBaseGameLayer, GJBaseGameLayer> >&)::{lambda()#1}>, void ()>::~__func()
FUNC 142af0 40 0 std::__ndk1::__function::__func<AutoBaseGameLayer::onModify<geode::modifier::ModifyBase<geode::modifier::ModifyDerive<AutoBaseGameLayer, GJBaseGameLayer> > >(geode::modifier::ModifyBase<geode::modifier::ModifyDerive<AutoBaseGameLayer, GJBaseGameLayer> >&)::{lambda()#1}, std::__ndk1::allocator<AutoBaseGameLayer::onModify<geode::modifier::ModifyBase<geode::modifier::ModifyDerive<AutoBaseGameLayer, GJBaseGameLayer> > >(geode::modifier::ModifyBase<geode::modifier::ModifyDerive<AutoBaseGameLayer, GJBaseGameLayer> >&)::{lambda()#1}>, void ()>::~__func()
FUNC 142b30 b0 0 std::__ndk1::__function::__func<AutoBaseGameLayer::onModify<geode::modifier::ModifyBase<geode::modifier::ModifyDerive<AutoBaseGameLayer, GJBaseGameLayer> > >(geode::modifier::ModifyBase<geode::modifier::ModifyDerive<AutoBaseGameLayer, GJBaseGameLayer> >&)::{lambda()#1}, std::__ndk1::allocator<AutoBaseGameLayer::onModify<geode::modifier::ModifyBase<geode::modifier::ModifyDerive<AutoBaseGameLayer, GJBaseGameLayer> > >(geode::modifier::ModifyBase<geode::modifier::ModifyDerive<AutoBaseGameLayer, GJBaseGameLayer> >&)::{lambda()#1}>, void ()>::__clone() const
FUNC 142be0 98 0 std::__ndk1::__function::__func<AutoBaseGameLayer::onModify<geode::modifier::ModifyBase<geode::modifier::ModifyDerive<AutoBaseGameLayer, GJBaseGameLayer> > >(geode::modifier::ModifyBase<geode::modifier::ModifyDerive<AutoBaseGameLayer, GJBaseGameLayer> >&)::{lambda()#1}, std::__ndk1::allocator<AutoBaseGameLayer::onModify<geode::modifier::ModifyBase<geode::modifier::ModifyDerive<AutoBaseGameLayer, GJBaseGameLayer> > >(geode::modifier::ModifyBase<geode::modifier::ModifyDerive<AutoBaseGameLayer, GJBaseGameLayer> >&)::{lambda()#1}>, void ()>::__clone(std::__ndk1::__function::__base<void ()>*) const
FUNC 142c78 18 0 std::__ndk1::__function::__func<AutoBaseGameLayer::onModify<geode::modifier::ModifyBase<geode::modifier::ModifyDerive<AutoBaseGameLayer, GJBaseGameLayer> > >(geode::modifier::ModifyBase<geode::modifier::ModifyDerive<AutoBaseGameLayer, GJBaseGameLayer> >&)::{lambda()#1}, std::__ndk1::allocator<AutoBaseGameLayer::onModify<geode::modifier::ModifyBase<geode::modifier::ModifyDerive<AutoBaseGameLayer, GJBaseGameLayer> > >(geode::modifier::ModifyBase<geode::modifier::ModifyDerive<AutoBaseGameLayer, GJBaseGameLayer> >&)::{lambda()#1}>, void ()>::destroy()
FUNC 142c90 34 0 std::__ndk1::__function::__func<AutoBaseGameLayer::onModify<geode::modifier::ModifyBase<geode::modifier::ModifyDerive<AutoBaseGameLayer, GJBaseGameLayer> > >(geode::modifier::ModifyBase<geode::modifier::ModifyDerive<AutoBaseGameLayer, GJBaseGameLayer> >&)::{lambda()#1}, std::__ndk1::allocator<AutoBaseGameLayer::onModify<geode::modifier::ModifyBase<geode::modifier::ModifyDerive<AutoBaseGameLayer, GJBaseGameLayer> > >(geode::modifier::ModifyBase<geode::modifier::ModifyDerive<AutoBaseGameLayer, GJBaseGameLayer> >&)::{lambda()#1}>, void ()>::destroy_deallocate()
FUNC 142cc4 b0 0 std::__ndk1::__function::__func<AutoBaseGameLayer::onModify<geode::modifier::ModifyBase<geode::modifier::ModifyDerive<AutoBaseGameLayer, GJBaseGameLayer> > >(geode::modifier::ModifyBase<geode::modifier::ModifyDerive<AutoBaseGameLayer, GJBaseGameLayer> >&)::{lambda()#1}, std::__ndk1::allocator<AutoBaseGameLayer::onModify<geode::modifier::ModifyBase<geode::modifier::ModifyDerive<AutoBaseGameLayer, GJBaseGameLayer> > >(geode::modifier::ModifyBase<geode::modifier::ModifyDerive<AutoBaseGameLayer, GJBaseGameLayer> >&)::{lambda()#1}>, void ()>::operator()()
FUNC 142d74 1c 0 std::__ndk1::__function::__func<AutoBaseGameLayer::onModify<geode::modifier::ModifyBase<geode::modifier::ModifyDerive<AutoBaseGameLayer, GJBaseGameLayer> > >(geode::modifier::ModifyBase<geode::modifier::ModifyDerive<AutoBaseGameLayer, GJBaseGameLayer> >&)::{lambda()#1}, std::__ndk1::allocator<AutoBaseGameLayer::onModify<geode::modifier::ModifyBase<geode::modifier::ModifyDerive<AutoBaseGameLayer, GJBaseGameLayer> > >(geode::modifier::ModifyBase<geode::modifier::ModifyDerive<AutoBaseGameLayer, GJBaseGameLayer> >&)::{lambda()#1}>, void ()>::target(std::type_info const&) const
FUNC 142d90 c 0 std::__ndk1::__function::__func<AutoBaseGameLayer::onModify<geode::modifier::ModifyBase<geode::modifier::ModifyDerive<AutoBaseGameLayer, GJBaseGameLayer> > >(geode::modifier::ModifyBase<geode::modifier::ModifyDerive<AutoBaseGameLayer, GJBaseGameLayer> >&)::{lambda()#1}, std::__ndk1::allocator<AutoBaseGameLayer::onModify<geode::modifier::ModifyBase<geode::modifier::ModifyDerive<AutoBaseGameLayer, GJBaseGameLayer> > >(geode::modifier::ModifyBase<geode::modifier::ModifyDerive<AutoBaseGameLayer, GJBaseGameLayer> >&)::{lambda()#1}>, void ()>::target_type() const
FUNC 142d9c 270 0 geode::modifier::AsStaticFunction_checkRepellPlayer<AutoBaseGameLayer, void (AutoBaseGameLayer::*)()>::Impl<void (AutoBaseGameLayer::*)()>::function(AutoBaseGameLayer*)
FUNC 14300c 18c 0 geode::modifier::FieldIntermediate<AutoBaseGameLayer, GJBaseGameLayer>::self()
FUNC 143198 4 0 geode::modifier::FieldIntermediate<AutoBaseGameLayer, GJBaseGameLayer>::fieldDestructor(void*)
FUNC 14319c 4 0 std::__ndk1::__function::__func<geodeExecFunction60<(anonymous namespace)::ExecFuncUnique60>()::{lambda()#1}, std::__ndk1::allocator<geodeExecFunction60<(anonymous namespace)::ExecFuncUnique60>()::{lambda()#1}>, void ()>::~__func()
FUNC 1431a0 24 0 std::__ndk1::__function::__func<geodeExecFunction60<(anonymous namespace)::ExecFuncUnique60>()::{lambda()#1}, std::__ndk1::allocator<geodeExecFunction60<(anonymous namespace)::ExecFuncUnique60>()::{lambda()#1}>, void ()>::__clone() const
FUNC 1431c4 10 0 std::__ndk1::__function::__func<geodeExecFunction60<(anonymous namespace)::ExecFuncUnique60>()::{lambda()#1}, std::__ndk1::allocator<geodeExecFunction60<(anonymous namespace)::ExecFuncUnique60>()::{lambda()#1}>, void ()>::__clone(std::__ndk1::__function::__base<void ()>*) const
FUNC 1431d4 4 0 std::__ndk1::__function::__func<geodeExecFunction60<(anonymous namespace)::ExecFuncUnique60>()::{lambda()#1}, std::__ndk1::allocator<geodeExecFunction60<(anonymous namespace)::ExecFuncUnique60>()::{lambda()#1}>, void ()>::destroy()
FUNC 1431d8 4 0 std::__ndk1::__function::__func<geodeExecFunction60<(anonymous namespace)::ExecFuncUnique60>()::{lambda()#1}, std::__ndk1::allocator<geodeExecFunction60<(anonymous namespace)::ExecFuncUnique60>()::{lambda()#1}>, void ()>::destroy_deallocate()
FUNC 1431dc 9c 0 std::__ndk1::__function::__func<geodeExecFunction60<(anonymous namespace)::ExecFuncUnique60>()::{lambda()#1}, std::__ndk1::allocator<geodeExecFunction60<(anonymous namespace)::ExecFuncUnique60>()::{lambda()#1}>, void ()>::operator()()
FUNC 143278 1c 0 std::__ndk1::__function::__func<geodeExecFunction60<(anonymous namespace)::ExecFuncUnique60>()::{lambda()#1}, std::__ndk1::allocator<geodeExecFunction60<(anonymous namespace)::ExecFuncUnique60>()::{lambda()#1}>, void ()>::target(std::type_info const&) const
FUNC 143294 c 0 std::__ndk1::__function::__func<geodeExecFunction60<(anonymous namespace)::ExecFuncUnique60>()::{lambda()#1}, std::__ndk1::allocator<geodeExecFunction60<(anonymous namespace)::ExecFuncUnique60>()::{lambda()#1}>, void ()>::target_type() const
FUNC 1432a0 d8 0 _GLOBAL__sub_I_AutoClicker.cpp
FUNC 143378 7e4 0 __cxx_global_var_init.30
FUNC 143b5c 1c 0 geode::modifier::ModifyBase<geode::modifier::ModifyDerive<hook8<(anonymous namespace)::hook8Parent>, PlayLayer> >::~ModifyBase()
FUNC 143b78 680 0 geode::modifier::ModifyDerive<hook8<(anonymous namespace)::hook8Parent>, PlayLayer>::apply()
FUNC 1441f8 4 0 geode::modifier::ModifyBase<geode::modifier::ModifyDerive<hook8<(anonymous namespace)::hook8Parent>, PlayLayer> >::apply()
FUNC 1441fc 24 0 std::__ndk1::__function::__func<hook8<(anonymous namespace)::hook8Parent>::onModify<geode::modifier::ModifyBase<geode::modifier::ModifyDerive<hook8<(anonymous namespace)::hook8Parent>, PlayLayer> > >(geode::modifier::ModifyBase<geode::modifier::ModifyDerive<hook8<(anonymous namespace)::hook8Parent>, PlayLayer> >&)::{lambda()#1}, std::__ndk1::allocator<hook8<(anonymous namespace)::hook8Parent>::onModify<geode::modifier::ModifyBase<geode::modifier::ModifyDerive<hook8<(anonymous namespace)::hook8Parent>, PlayLayer> > >(geode::modifier::ModifyBase<geode::modifier::ModifyDerive<hook8<(anonymous namespace)::hook8Parent>, PlayLayer> >&)::{lambda()#1}>, void ()>::~__func()
FUNC 144220 40 0 std::__ndk1::__function::__func<hook8<(anonymous namespace)::hook8Parent>::onModify<geode::modifier::ModifyBase<geode::modifier::ModifyDerive<hook8<(anonymous namespace)::hook8Parent>, PlayLayer> > >(geode::modifier::ModifyBase<geode::modifier::ModifyDerive<hook8<(anonymous namespace)::hook8Parent>, PlayLayer> >&)::{lambda()#1}, std::__ndk1::allocator<hook8<(anonymous namespace)::hook8Parent>::onModify<geode::modifier::ModifyBase<geode::modifier::ModifyDerive<hook8<(anonymous namespace)::hook8Parent>, PlayLayer> > >(geode::modifier::ModifyBase<geode::modifier::ModifyDerive<hook8<(anonymous namespace)::hook8Parent>, PlayLayer> >&)::{lambda()#1}>, void ()>::~__func()
FUNC 144260 b0 0 std::__ndk1::__function::__func<hook8<(anonymous namespace)::hook8Parent>::onModify<geode::modifier::ModifyBase<geode::modifier::ModifyDerive<hook8<(anonymous namespace)::hook8Parent>, PlayLayer> > >(geode::modifier::ModifyBase<geode::modifier::ModifyDerive<hook8<(anonymous namespace)::hook8Parent>, PlayLayer> >&)::{lambda()#1}, std::__ndk1::allocator<hook8<(anonymous namespace)::hook8Parent>::onModify<geode::modifier::ModifyBase<geode::modifier::ModifyDerive<hook8<(anonymous namespace)::hook8Parent>, PlayLayer> > >(geode::modifier::ModifyBase<geode::modifier::ModifyDerive<hook8<(anonymous namespace)::hook8Parent>, PlayLayer> >&)::{lambda()#1}>, void ()>::__clone() const
FUNC 144310 98 0 std::__ndk1::__function::__func<hook8<(anonymous namespace)::hook8Parent>::onModify<geode::modifier::ModifyBase<geode::modifier::ModifyDerive<hook8<(anonymous namespace)::hook8Parent>, PlayLayer> > >(geode::modifier::ModifyBase<geode::modifier::ModifyDerive<hook8<(anonymous namespace)::hook8Parent>, PlayLayer> >&)::{lambda()#1}, std::__ndk1::allocator<hook8<(anonymous namespace)::hook8Parent>::onModify<geode::modifier::ModifyBase<geode::modifier::ModifyDerive<hook8<(anonymous namespace)::hook8Parent>, PlayLayer> > >(geode::modifier::ModifyBase<geode::modifier::ModifyDerive<hook8<(anonymous namespace)::hook8Parent>, PlayLayer> >&)::{lambda()#1}>, void ()>::__clone(std::__ndk1::__function::__base<void ()>*) const
FUNC 1443a8 18 0 std::__ndk1::__function::__func<hook8<(anonymous namespace)::hook8Parent>::onModify<geode::modifier::ModifyBase<geode::modifier::ModifyDerive<hook8<(anonymous namespace)::hook8Parent>, PlayLayer> > >(geode::modifier::ModifyBase<geode::modifier::ModifyDerive<hook8<(anonymous namespace)::hook8Parent>, PlayLayer> >&)::{lambda()#1}, std::__ndk1::allocator<hook8<(anonymous namespace)::hook8Parent>::onModify<geode::modifier::ModifyBase<geode::modifier::ModifyDerive<hook8<(anonymous namespace)::hook8Parent>, PlayLayer> > >(geode::modifier::ModifyBase<geode::modifier::ModifyDerive<hook8<(anonymous namespace)::hook8Parent>, PlayLayer> >&)::{lambda()#1}>, void ()>::destroy()
FUNC 1443c0 34 0 std::__ndk1::__function::__func<hook8<(anonymous namespace)::hook8Parent>::onModify<geode::modifier::ModifyBase<geode::modifier::ModifyDerive<hook8<(anonymous namespace)::hook8Parent>, PlayLayer> > >(geode::modifier::ModifyBase<geode::modifier::ModifyDerive<hook8<(anonymous namespace)::hook8Parent>, PlayLayer> >&)::{lambda()#1}, std::__ndk1::allocator<hook8<(anonymous namespace)::hook8Parent>::onModify<geode::modifier::ModifyBase<geode::modifier::ModifyDerive<hook8<(anonymous namespace)::hook8Parent>, PlayLayer> > >(geode::modifier::ModifyBase<geode::modifier::ModifyDerive<hook8<(anonymous namespace)::hook8Parent>, PlayLayer> >&)::{lambda()#1}>, void ()>::destroy_deallocate()
FUNC 1443f4 ac 0 std::__ndk1::__function::__func<hook8<(anonymous namespace)::hook8Parent>::onModify<geode::modifier::ModifyBase<geode::modifier::ModifyDerive<hook8<(anonymous namespace)::hook8Parent>, PlayLayer> > >(geode::modifier::ModifyBase<geode::modifier::ModifyDerive<hook8<(anonymous namespace)::hook8Parent>, PlayLayer> >&)::{lambda()#1}, std::__ndk1::allocator<hook8<(anonymous namespace)::hook8Parent>::onModify<geode::modifier::ModifyBase<geode::modifier::ModifyDerive<hook8<(anonymous namespace)::hook8Parent>, PlayLayer> > >(geode::modifier::ModifyBase<geode::modifier::ModifyDerive<hook8<(anonymous namespace)::hook8Parent>, PlayLayer> >&)::{lambda()#1}>, void ()>::operator()()
FUNC 1444a0 1c 0 std::__ndk1::__function::__func<hook8<(anonymous namespace)::hook8Parent>::onModify<geode::modifier::ModifyBase<geode::modifier::ModifyDerive<hook8<(anonymous namespace)::hook8Parent>, PlayLayer> > >(geode::modifier::ModifyBase<geode::modifier::ModifyDerive<hook8<(anonymous namespace)::hook8Parent>, PlayLayer> >&)::{lambda()#1}, std::__ndk1::allocator<hook8<(anonymous namespace)::hook8Parent>::onModify<geode::modifier::ModifyBase<geode::modifier::ModifyDerive<hook8<(anonymous namespace)::hook8Parent>, PlayLayer> > >(geode::modifier::ModifyBase<geode::modifier::ModifyDerive<hook8<(anonymous namespace)::hook8Parent>, PlayLayer> >&)::{lambda()#1}>, void ()>::target(std::type_info const&) const
FUNC 1444bc c 0 std::__ndk1::__function::__func<hook8<(anonymous namespace)::hook8Parent>::onModify<geode::modifier::ModifyBase<geode::modifier::ModifyDerive<hook8<(anonymous namespace)::hook8Parent>, PlayLayer> > >(geode::modifier::ModifyBase<geode::modifier::ModifyDerive<hook8<(anonymous namespace)::hook8Parent>, PlayLayer> >&)::{lambda()#1}, std::__ndk1::allocator<hook8<(anonymous namespace)::hook8Parent>::onModify<geode::modifier::ModifyBase<geode::modifier::ModifyDerive<hook8<(anonymous namespace)::hook8Parent>, PlayLayer> > >(geode::modifier::ModifyBase<geode::modifier::ModifyDerive<hook8<(anonymous namespace)::hook8Parent>, PlayLayer> >&)::{lambda()#1}>, void ()>::target_type() const
FUNC 1444c8 188 0 geode::modifier::AsStaticFunction_addObject<hook8<(anonymous namespace)::hook8Parent>, void (hook8<(anonymous namespace)::hook8Parent>::*)(GameObject*)>::Impl<void (hook8<(anonymous namespace)::hook8Parent>::*)(GameObject*)>::function(hook8<(anonymous namespace)::hook8Parent>*, GameObject*)
FUNC 144650 64 0 geode::modifier::AsStaticFunction_resetLevel<hook8<(anonymous namespace)::hook8Parent>, void (hook8<(anonymous namespace)::hook8Parent>::*)()>::Impl<void (hook8<(anonymous namespace)::hook8Parent>::*)()>::function(hook8<(anonymous namespace)::hook8Parent>*)
FUNC 1446b4 18c 0 geode::modifier::FieldIntermediate<hook8<(anonymous namespace)::hook8Parent>, PlayLayer>::operator->()
FUNC 144840 18 0 geode::modifier::FieldIntermediate<hook8<(anonymous namespace)::hook8Parent>, PlayLayer>::fieldDestructor(void*)
FUNC 144858 14 0 std::__ndk1::vector<EffectGameObject*, std::__ndk1::allocator<EffectGameObject*> >::__throw_length_error[abi:ne180000]() const
FUNC 14486c 66c 0 __cxx_global_var_init.30
FUNC 144ed8 66c 0 __cxx_global_var_init.31
FUNC 145544 1c 0 geode::modifier::ModifyBase<geode::modifier::ModifyDerive<hook9<(anonymous namespace)::hook9Parent>, LevelInfoLayer> >::~ModifyBase()
FUNC 145560 1c 0 geode::modifier::ModifyBase<geode::modifier::ModifyDerive<hook22<(anonymous namespace)::hook22Parent>, EditLevelLayer> >::~ModifyBase()
FUNC 14557c 404 0 geode::modifier::ModifyDerive<hook9<(anonymous namespace)::hook9Parent>, LevelInfoLayer>::apply()
FUNC 145980 4 0 geode::modifier::ModifyBase<geode::modifier::ModifyDerive<hook9<(anonymous namespace)::hook9Parent>, LevelInfoLayer> >::apply()
FUNC 145984 74 0 hook9<(anonymous namespace)::hook9Parent>::onModify<geode::modifier::ModifyBase<geode::modifier::ModifyDerive<hook9<(anonymous namespace)::hook9Parent>, LevelInfoLayer> > >(geode::modifier::ModifyBase<geode::modifier::ModifyDerive<hook9<(anonymous namespace)::hook9Parent>, LevelInfoLayer> >&)::{lambda()#1}::~{lambda()#1}()
FUNC 1459f8 80 0 std::__ndk1::__function::__func<hook9<(anonymous namespace)::hook9Parent>::onModify<geode::modifier::ModifyBase<geode::modifier::ModifyDerive<hook9<(anonymous namespace)::hook9Parent>, LevelInfoLayer> > >(geode::modifier::ModifyBase<geode::modifier::ModifyDerive<hook9<(anonymous namespace)::hook9Parent>, LevelInfoLayer> >&)::{lambda()#1}, std::__ndk1::allocator<hook9<(anonymous namespace)::hook9Parent>::onModify<geode::modifier::ModifyBase<geode::modifier::ModifyDerive<hook9<(anonymous namespace)::hook9Parent>, LevelInfoLayer> > >(geode::modifier::ModifyBase<geode::modifier::ModifyDerive<hook9<(anonymous namespace)::hook9Parent>, LevelInfoLayer> >&)::{lambda()#1}>, void ()>::~__func()
FUNC 145a78 80 0 std::__ndk1::__function::__func<hook9<(anonymous namespace)::hook9Parent>::onModify<geode::modifier::ModifyBase<geode::modifier::ModifyDerive<hook9<(anonymous namespace)::hook9Parent>, LevelInfoLayer> > >(geode::modifier::ModifyBase<geode::modifier::ModifyDerive<hook9<(anonymous namespace)::hook9Parent>, LevelInfoLayer> >&)::{lambda()#1}, std::__ndk1::allocator<hook9<(anonymous namespace)::hook9Parent>::onModify<geode::modifier::ModifyBase<geode::modifier::ModifyDerive<hook9<(anonymous namespace)::hook9Parent>, LevelInfoLayer> > >(geode::modifier::ModifyBase<geode::modifier::ModifyDerive<hook9<(anonymous namespace)::hook9Parent>, LevelInfoLayer> >&)::{lambda()#1}>, void ()>::~__func()
FUNC 145af8 d4 0 std::__ndk1::__function::__func<hook9<(anonymous namespace)::hook9Parent>::onModify<geode::modifier::ModifyBase<geode::modifier::ModifyDerive<hook9<(anonymous namespace)::hook9Parent>, LevelInfoLayer> > >(geode::modifier::ModifyBase<geode::modifier::ModifyDerive<hook9<(anonymous namespace)::hook9Parent>, LevelInfoLayer> >&)::{lambda()#1}, std::__ndk1::allocator<hook9<(anonymous namespace)::hook9Parent>::onModify<geode::modifier::ModifyBase<geode::modifier::ModifyDerive<hook9<(anonymous namespace)::hook9Parent>, LevelInfoLayer> > >(geode::modifier::ModifyBase<geode::modifier::ModifyDerive<hook9<(anonymous namespace)::hook9Parent>, LevelInfoLayer> >&)::{lambda()#1}>, void ()>::__clone() const
FUNC 145bcc c0 0 std::__ndk1::__function::__func<hook9<(anonymous namespace)::hook9Parent>::onModify<geode::modifier::ModifyBase<geode::modifier::ModifyDerive<hook9<(anonymous namespace)::hook9Parent>, LevelInfoLayer> > >(geode::modifier::ModifyBase<geode::modifier::ModifyDerive<hook9<(anonymous namespace)::hook9Parent>, LevelInfoLayer> >&)::{lambda()#1}, std::__ndk1::allocator<hook9<(anonymous namespace)::hook9Parent>::onModify<geode::modifier::ModifyBase<geode::modifier::ModifyDerive<hook9<(anonymous namespace)::hook9Parent>, LevelInfoLayer> > >(geode::modifier::ModifyBase<geode::modifier::ModifyDerive<hook9<(anonymous namespace)::hook9Parent>, LevelInfoLayer> >&)::{lambda()#1}>, void ()>::__clone(std::__ndk1::__function::__base<void ()>*) const
FUNC 145c8c 74 0 std::__ndk1::__function::__func<hook9<(anonymous namespace)::hook9Parent>::onModify<geode::modifier::ModifyBase<geode::modifier::ModifyDerive<hook9<(anonymous namespace)::hook9Parent>, LevelInfoLayer> > >(geode::modifier::ModifyBase<geode::modifier::ModifyDerive<hook9<(anonymous namespace)::hook9Parent>, LevelInfoLayer> >&)::{lambda()#1}, std::__ndk1::allocator<hook9<(anonymous namespace)::hook9Parent>::onModify<geode::modifier::ModifyBase<geode::modifier::ModifyDerive<hook9<(anonymous namespace)::hook9Parent>, LevelInfoLayer> > >(geode::modifier::ModifyBase<geode::modifier::ModifyDerive<hook9<(anonymous namespace)::hook9Parent>, LevelInfoLayer> >&)::{lambda()#1}>, void ()>::destroy()
FUNC 145d00 74 0 std::__ndk1::__function::__func<hook9<(anonymous namespace)::hook9Parent>::onModify<geode::modifier::ModifyBase<geode::modifier::ModifyDerive<hook9<(anonymous namespace)::hook9Parent>, LevelInfoLayer> > >(geode::modifier::ModifyBase<geode::modifier::ModifyDerive<hook9<(anonymous namespace)::hook9Parent>, LevelInfoLayer> >&)::{lambda()#1}, std::__ndk1::allocator<hook9<(anonymous namespace)::hook9Parent>::onModify<geode::modifier::ModifyBase<geode::modifier::ModifyDerive<hook9<(anonymous namespace)::hook9Parent>, LevelInfoLayer> > >(geode::modifier::ModifyBase<geode::modifier::ModifyDerive<hook9<(anonymous namespace)::hook9Parent>, LevelInfoLayer> >&)::{lambda()#1}>, void ()>::destroy_deallocate()
FUNC 145d74 11c 0 std::__ndk1::__function::__func<hook9<(anonymous namespace)::hook9Parent>::onModify<geode::modifier::ModifyBase<geode::modifier::ModifyDerive<hook9<(anonymous namespace)::hook9Parent>, LevelInfoLayer> > >(geode::modifier::ModifyBase<geode::modifier::ModifyDerive<hook9<(anonymous namespace)::hook9Parent>, LevelInfoLayer> >&)::{lambda()#1}, std::__ndk1::allocator<hook9<(anonymous namespace)::hook9Parent>::onModify<geode::modifier::ModifyBase<geode::modifier::ModifyDerive<hook9<(anonymous namespace)::hook9Parent>, LevelInfoLayer> > >(geode::modifier::ModifyBase<geode::modifier::ModifyDerive<hook9<(anonymous namespace)::hook9Parent>, LevelInfoLayer> >&)::{lambda()#1}>, void ()>::operator()()
FUNC 145e90 1c 0 std::__ndk1::__function::__func<hook9<(anonymous namespace)::hook9Parent>::onModify<geode::modifier::ModifyBase<geode::modifier::ModifyDerive<hook9<(anonymous namespace)::hook9Parent>, LevelInfoLayer> > >(geode::modifier::ModifyBase<geode::modifier::ModifyDerive<hook9<(anonymous namespace)::hook9Parent>, LevelInfoLayer> >&)::{lambda()#1}, std::__ndk1::allocator<hook9<(anonymous namespace)::hook9Parent>::onModify<geode::modifier::ModifyBase<geode::modifier::ModifyDerive<hook9<(anonymous namespace)::hook9Parent>, LevelInfoLayer> > >(geode::modifier::ModifyBase<geode::modifier::ModifyDerive<hook9<(anonymous namespace)::hook9Parent>, LevelInfoLayer> >&)::{lambda()#1}>, void ()>::target(std::type_info const&) const
FUNC 145eac c 0 std::__ndk1::__function::__func<hook9<(anonymous namespace)::hook9Parent>::onModify<geode::modifier::ModifyBase<geode::modifier::ModifyDerive<hook9<(anonymous namespace)::hook9Parent>, LevelInfoLayer> > >(geode::modifier::ModifyBase<geode::modifier::ModifyDerive<hook9<(anonymous namespace)::hook9Parent>, LevelInfoLayer> >&)::{lambda()#1}, std::__ndk1::allocator<hook9<(anonymous namespace)::hook9Parent>::onModify<geode::modifier::ModifyBase<geode::modifier::ModifyDerive<hook9<(anonymous namespace)::hook9Parent>, LevelInfoLayer> > >(geode::modifier::ModifyBase<geode::modifier::ModifyDerive<hook9<(anonymous namespace)::hook9Parent>, LevelInfoLayer> >&)::{lambda()#1}>, void ()>::target_type() const
FUNC 145eb8 34 0 geode::modifier::AsStaticFunction_init<hook9<(anonymous namespace)::hook9Parent>, bool (hook9<(anonymous namespace)::hook9Parent>::*)(GJGameLevel*, bool)>::Impl<bool (hook9<(anonymous namespace)::hook9Parent>::*)(GJGameLevel*, bool)>::function(hook9<(anonymous namespace)::hook9Parent>*, GJGameLevel*, bool)
FUNC 145eec 3c0 0 geode::modifier::ModifyDerive<hook22<(anonymous namespace)::hook22Parent>, EditLevelLayer>::apply()
FUNC 1462ac 4 0 geode::modifier::ModifyBase<geode::modifier::ModifyDerive<hook22<(anonymous namespace)::hook22Parent>, EditLevelLayer> >::apply()
FUNC 1462b0 74 0 hook22<(anonymous namespace)::hook22Parent>::onModify<geode::modifier::ModifyBase<geode::modifier::ModifyDerive<hook22<(anonymous namespace)::hook22Parent>, EditLevelLayer> > >(geode::modifier::ModifyBase<geode::modifier::ModifyDerive<hook22<(anonymous namespace)::hook22Parent>, EditLevelLayer> >&)::{lambda()#1}::~{lambda()#1}()
FUNC 146324 80 0 std::__ndk1::__function::__func<hook22<(anonymous namespace)::hook22Parent>::onModify<geode::modifier::ModifyBase<geode::modifier::ModifyDerive<hook22<(anonymous namespace)::hook22Parent>, EditLevelLayer> > >(geode::modifier::ModifyBase<geode::modifier::ModifyDerive<hook22<(anonymous namespace)::hook22Parent>, EditLevelLayer> >&)::{lambda()#1}, std::__ndk1::allocator<hook22<(anonymous namespace)::hook22Parent>::onModify<geode::modifier::ModifyBase<geode::modifier::ModifyDerive<hook22<(anonymous namespace)::hook22Parent>, EditLevelLayer> > >(geode::modifier::ModifyBase<geode::modifier::ModifyDerive<hook22<(anonymous namespace)::hook22Parent>, EditLevelLayer> >&)::{lambda()#1}>, void ()>::~__func()
FUNC 1463a4 80 0 std::__ndk1::__function::__func<hook22<(anonymous namespace)::hook22Parent>::onModify<geode::modifier::ModifyBase<geode::modifier::ModifyDerive<hook22<(anonymous namespace)::hook22Parent>, EditLevelLayer> > >(geode::modifier::ModifyBase<geode::modifier::ModifyDerive<hook22<(anonymous namespace)::hook22Parent>, EditLevelLayer> >&)::{lambda()#1}, std::__ndk1::allocator<hook22<(anonymous namespace)::hook22Parent>::onModify<geode::modifier::ModifyBase<geode::modifier::ModifyDerive<hook22<(anonymous namespace)::hook22Parent>, EditLevelLayer> > >(geode::modifier::ModifyBase<geode::modifier::ModifyDerive<hook22<(anonymous namespace)::hook22Parent>, EditLevelLayer> >&)::{lambda()#1}>, void ()>::~__func()
FUNC 146424 d4 0 std::__ndk1::__function::__func<hook22<(anonymous namespace)::hook22Parent>::onModify<geode::modifier::ModifyBase<geode::modifier::ModifyDerive<hook22<(anonymous namespace)::hook22Parent>, EditLevelLayer> > >(geode::modifier::ModifyBase<geode::modifier::ModifyDerive<hook22<(anonymous namespace)::hook22Parent>, EditLevelLayer> >&)::{lambda()#1}, std::__ndk1::allocator<hook22<(anonymous namespace)::hook22Parent>::onModify<geode::modifier::ModifyBase<geode::modifier::ModifyDerive<hook22<(anonymous namespace)::hook22Parent>, EditLevelLayer> > >(geode::modifier::ModifyBase<geode::modifier::ModifyDerive<hook22<(anonymous namespace)::hook22Parent>, EditLevelLayer> >&)::{lambda()#1}>, void ()>::__clone() const
FUNC 1464f8 c0 0 std::__ndk1::__function::__func<hook22<(anonymous namespace)::hook22Parent>::onModify<geode::modifier::ModifyBase<geode::modifier::ModifyDerive<hook22<(anonymous namespace)::hook22Parent>, EditLevelLayer> > >(geode::modifier::ModifyBase<geode::modifier::ModifyDerive<hook22<(anonymous namespace)::hook22Parent>, EditLevelLayer> >&)::{lambda()#1}, std::__ndk1::allocator<hook22<(anonymous namespace)::hook22Parent>::onModify<geode::modifier::ModifyBase<geode::modifier::ModifyDerive<hook22<(anonymous namespace)::hook22Parent>, EditLevelLayer> > >(geode::modifier::ModifyBase<geode::modifier::ModifyDerive<hook22<(anonymous namespace)::hook22Parent>, EditLevelLayer> >&)::{lambda()#1}>, void ()>::__clone(std::__ndk1::__function::__base<void ()>*) const
FUNC 1465b8 74 0 std::__ndk1::__function::__func<hook22<(anonymous namespace)::hook22Parent>::onModify<geode::modifier::ModifyBase<geode::modifier::ModifyDerive<hook22<(anonymous namespace)::hook22Parent>, EditLevelLayer> > >(geode::modifier::ModifyBase<geode::modifier::ModifyDerive<hook22<(anonymous namespace)::hook22Parent>, EditLevelLayer> >&)::{lambda()#1}, std::__ndk1::allocator<hook22<(anonymous namespace)::hook22Parent>::onModify<geode::modifier::ModifyBase<geode::modifier::ModifyDerive<hook22<(anonymous namespace)::hook22Parent>, EditLevelLayer> > >(geode::modifier::ModifyBase<geode::modifier::ModifyDerive<hook22<(anonymous namespace)::hook22Parent>, EditLevelLayer> >&)::{lambda()#1}>, void ()>::destroy()
FUNC 14662c 74 0 std::__ndk1::__function::__func<hook22<(anonymous namespace)::hook22Parent>::onModify<geode::modifier::ModifyBase<geode::modifier::ModifyDerive<hook22<(anonymous namespace)::hook22Parent>, EditLevelLayer> > >(geode::modifier::ModifyBase<geode::modifier::ModifyDerive<hook22<(anonymous namespace)::hook22Parent>, EditLevelLayer> >&)::{lambda()#1}, std::__ndk1::allocator<hook22<(anonymous namespace)::hook22Parent>::onModify<geode::modifier::ModifyBase<geode::modifier::ModifyDerive<hook22<(anonymous namespace)::hook22Parent>, EditLevelLayer> > >(geode::modifier::ModifyBase<geode::modifier::ModifyDerive<hook22<(anonymous namespace)::hook22Parent>, EditLevelLayer> >&)::{lambda()#1}>, void ()>::destroy_deallocate()
FUNC 1466a0 11c 0 std::__ndk1::__function::__func<hook22<(anonymous namespace)::hook22Parent>::onModify<geode::modifier::ModifyBase<geode::modifier::ModifyDerive<hook22<(anonymous namespace)::hook22Parent>, EditLevelLayer> > >(geode::modifier::ModifyBase<geode::modifier::ModifyDerive<hook22<(anonymous namespace)::hook22Parent>, EditLevelLayer> >&)::{lambda()#1}, std::__ndk1::allocator<hook22<(anonymous namespace)::hook22Parent>::onModify<geode::modifier::ModifyBase<geode::modifier::ModifyDerive<hook22<(anonymous namespace)::hook22Parent>, EditLevelLayer> > >(geode::modifier::ModifyBase<geode::modifier::ModifyDerive<hook22<(anonymous namespace)::hook22Parent>, EditLevelLayer> >&)::{lambda()#1}>, void ()>::operator()()
FUNC 1467bc 1c 0 std::__ndk1::__function::__func<hook22<(anonymous namespace)::hook22Parent>::onModify<geode::modifier::ModifyBase<geode::modifier::ModifyDerive<hook22<(anonymous namespace)::hook22Parent>, EditLevelLayer> > >(geode::modifier::ModifyBase<geode::modifier::ModifyDerive<hook22<(anonymous namespace)::hook22Parent>, EditLevelLayer> >&)::{lambda()#1}, std::__ndk1::allocator<hook22<(anonymous namespace)::hook22Parent>::onModify<geode::modifier::ModifyBase<geode::modifier::ModifyDerive<hook22<(anonymous namespace)::hook22Parent>, EditLevelLayer> > >(geode::modifier::ModifyBase<geode::modifier::ModifyDerive<hook22<(anonymous namespace)::hook22Parent>, EditLevelLayer> >&)::{lambda()#1}>, void ()>::target(std::type_info const&) const
FUNC 1467d8 c 0 std::__ndk1::__function::__func<hook22<(anonymous namespace)::hook22Parent>::onModify<geode::modifier::ModifyBase<geode::modifier::ModifyDerive<hook22<(anonymous namespace)::hook22Parent>, EditLevelLayer> > >(geode::modifier::ModifyBase<geode::modifier::ModifyDerive<hook22<(anonymous namespace)::hook22Parent>, EditLevelLayer> >&)::{lambda()#1}, std::__ndk1::allocator<hook22<(anonymous namespace)::hook22Parent>::onModify<geode::modifier::ModifyBase<geode::modifier::ModifyDerive<hook22<(anonymous namespace)::hook22Parent>, EditLevelLayer> > >(geode::modifier::ModifyBase<geode::modifier::ModifyDerive<hook22<(anonymous namespace)::hook22Parent>, EditLevelLayer> >&)::{lambda()#1}>, void ()>::target_type() const
FUNC 1467e4 34 0 geode::modifier::AsStaticFunction_init<hook22<(anonymous namespace)::hook22Parent>, bool (hook22<(anonymous namespace)::hook22Parent>::*)(GJGameLevel*)>::Impl<bool (hook22<(anonymous namespace)::hook22Parent>::*)(GJGameLevel*)>::function(hook22<(anonymous namespace)::hook22Parent>*, GJGameLevel*)
FUNC 146818 668 0 __cxx_global_var_init.30
FUNC 146e80 1c 0 geode::modifier::ModifyBase<geode::modifier::ModifyDerive<hook8<(anonymous namespace)::hook8Parent>, PlayLayer> >::~ModifyBase()
FUNC 146e9c 400 0 geode::modifier::ModifyDerive<hook8<(anonymous namespace)::hook8Parent>, PlayLayer>::apply()
FUNC 14729c 4 0 geode::modifier::ModifyBase<geode::modifier::ModifyDerive<hook8<(anonymous namespace)::hook8Parent>, PlayLayer> >::apply()
FUNC 1472a0 74 0 hook8<(anonymous namespace)::hook8Parent>::onModify<geode::modifier::ModifyBase<geode::modifier::ModifyDerive<hook8<(anonymous namespace)::hook8Parent>, PlayLayer> > >(geode::modifier::ModifyBase<geode::modifier::ModifyDerive<hook8<(anonymous namespace)::hook8Parent>, PlayLayer> >&)::{lambda()#1}::~{lambda()#1}()
FUNC 147314 80 0 std::__ndk1::__function::__func<hook8<(anonymous namespace)::hook8Parent>::onModify<geode::modifier::ModifyBase<geode::modifier::ModifyDerive<hook8<(anonymous namespace)::hook8Parent>, PlayLayer> > >(geode::modifier::ModifyBase<geode::modifier::ModifyDerive<hook8<(anonymous namespace)::hook8Parent>, PlayLayer> >&)::{lambda()#1}, std::__ndk1::allocator<hook8<(anonymous namespace)::hook8Parent>::onModify<geode::modifier::ModifyBase<geode::modifier::ModifyDerive<hook8<(anonymous namespace)::hook8Parent>, PlayLayer> > >(geode::modifier::ModifyBase<geode::modifier::ModifyDerive<hook8<(anonymous namespace)::hook8Parent>, PlayLayer> >&)::{lambda()#1}>, void ()>::~__func()
FUNC 147394 80 0 std::__ndk1::__function::__func<hook8<(anonymous namespace)::hook8Parent>::onModify<geode::modifier::ModifyBase<geode::modifier::ModifyDerive<hook8<(anonymous namespace)::hook8Parent>, PlayLayer> > >(geode::modifier::ModifyBase<geode::modifier::ModifyDerive<hook8<(anonymous namespace)::hook8Parent>, PlayLayer> >&)::{lambda()#1}, std::__ndk1::allocator<hook8<(anonymous namespace)::hook8Parent>::onModify<geode::modifier::ModifyBase<geode::modifier::ModifyDerive<hook8<(anonymous namespace)::hook8Parent>, PlayLayer> > >(geode::modifier::ModifyBase<geode::modifier::ModifyDerive<hook8<(anonymous namespace)::hook8Parent>, PlayLayer> >&)::{lambda()#1}>, void ()>::~__func()
FUNC 147414 d4 0 std::__ndk1::__function::__func<hook8<(anonymous namespace)::hook8Parent>::onModify<geode::modifier::ModifyBase<geode::modifier::ModifyDerive<hook8<(anonymous namespace)::hook8Parent>, PlayLayer> > >(geode::modifier::ModifyBase<geode::modifier::ModifyDerive<hook8<(anonymous namespace)::hook8Parent>, PlayLayer> >&)::{lambda()#1}, std::__ndk1::allocator<hook8<(anonymous namespace)::hook8Parent>::onModify<geode::modifier::ModifyBase<geode::modifier::ModifyDerive<hook8<(anonymous namespace)::hook8Parent>, PlayLayer> > >(geode::modifier::ModifyBase<geode::modifier::ModifyDerive<hook8<(anonymous namespace)::hook8Parent>, PlayLayer> >&)::{lambda()#1}>, void ()>::__clone() const
FUNC 1474e8 c0 0 std::__ndk1::__function::__func<hook8<(anonymous namespace)::hook8Parent>::onModify<geode::modifier::ModifyBase<geode::modifier::ModifyDerive<hook8<(anonymous namespace)::hook8Parent>, PlayLayer> > >(geode::modifier::ModifyBase<geode::modifier::ModifyDerive<hook8<(anonymous namespace)::hook8Parent>, PlayLayer> >&)::{lambda()#1}, std::__ndk1::allocator<hook8<(anonymous namespace)::hook8Parent>::onModify<geode::modifier::ModifyBase<geode::modifier::ModifyDerive<hook8<(anonymous namespace)::hook8Parent>, PlayLayer> > >(geode::modifier::ModifyBase<geode::modifier::ModifyDerive<hook8<(anonymous namespace)::hook8Parent>, PlayLayer> >&)::{lambda()#1}>, void ()>::__clone(std::__ndk1::__function::__base<void ()>*) const
FUNC 1475a8 74 0 std::__ndk1::__function::__func<hook8<(anonymous namespace)::hook8Parent>::onModify<geode::modifier::ModifyBase<geode::modifier::ModifyDerive<hook8<(anonymous namespace)::hook8Parent>, PlayLayer> > >(geode::modifier::ModifyBase<geode::modifier::ModifyDerive<hook8<(anonymous namespace)::hook8Parent>, PlayLayer> >&)::{lambda()#1}, std::__ndk1::allocator<hook8<(anonymous namespace)::hook8Parent>::onModify<geode::modifier::ModifyBase<geode::modifier::ModifyDerive<hook8<(anonymous namespace)::hook8Parent>, PlayLayer> > >(geode::modifier::ModifyBase<geode::modifier::ModifyDerive<hook8<(anonymous namespace)::hook8Parent>, PlayLayer> >&)::{lambda()#1}>, void ()>::destroy()
FUNC 14761c 74 0 std::__ndk1::__function::__func<hook8<(anonymous namespace)::hook8Parent>::onModify<geode::modifier::ModifyBase<geode::modifier::ModifyDerive<hook8<(anonymous namespace)::hook8Parent>, PlayLayer> > >(geode::modifier::ModifyBase<geode::modifier::ModifyDerive<hook8<(anonymous namespace)::hook8Parent>, PlayLayer> >&)::{lambda()#1}, std::__ndk1::allocator<hook8<(anonymous namespace)::hook8Parent>::onModify<geode::modifier::ModifyBase<geode::modifier::ModifyDerive<hook8<(anonymous namespace)::hook8Parent>, PlayLayer> > >(geode::modifier::ModifyBase<geode::modifier::ModifyDerive<hook8<(anonymous namespace)::hook8Parent>, PlayLayer> >&)::{lambda()#1}>, void ()>::destroy_deallocate()
FUNC 147690 120 0 std::__ndk1::__function::__func<hook8<(anonymous namespace)::hook8Parent>::onModify<geode::modifier::ModifyBase<geode::modifier::ModifyDerive<hook8<(anonymous namespace)::hook8Parent>, PlayLayer> > >(geode::modifier::ModifyBase<geode::modifier::ModifyDerive<hook8<(anonymous namespace)::hook8Parent>, PlayLayer> >&)::{lambda()#1}, std::__ndk1::allocator<hook8<(anonymous namespace)::hook8Parent>::onModify<geode::modifier::ModifyBase<geode::modifier::ModifyDerive<hook8<(anonymous namespace)::hook8Parent>, PlayLayer> > >(geode::modifier::ModifyBase<geode::modifier::ModifyDerive<hook8<(anonymous namespace)::hook8Parent>, PlayLayer> >&)::{lambda()#1}>, void ()>::operator()()
FUNC 1477b0 1c 0 std::__ndk1::__function::__func<hook8<(anonymous namespace)::hook8Parent>::onModify<geode::modifier::ModifyBase<geode::modifier::ModifyDerive<hook8<(anonymous namespace)::hook8Parent>, PlayLayer> > >(geode::modifier::ModifyBase<geode::modifier::ModifyDerive<hook8<(anonymous namespace)::hook8Parent>, PlayLayer> >&)::{lambda()#1}, std::__ndk1::allocator<hook8<(anonymous namespace)::hook8Parent>::onModify<geode::modifier::ModifyBase<geode::modifier::ModifyDerive<hook8<(anonymous namespace)::hook8Parent>, PlayLayer> > >(geode::modifier::ModifyBase<geode::modifier::ModifyDerive<hook8<(anonymous namespace)::hook8Parent>, PlayLayer> >&)::{lambda()#1}>, void ()>::target(std::type_info const&) const
FUNC 1477cc c 0 std::__ndk1::__function::__func<hook8<(anonymous namespace)::hook8Parent>::onModify<geode::modifier::ModifyBase<geode::modifier::ModifyDerive<hook8<(anonymous namespace)::hook8Parent>, PlayLayer> > >(geode::modifier::ModifyBase<geode::modifier::ModifyDerive<hook8<(anonymous namespace)::hook8Parent>, PlayLayer> >&)::{lambda()#1}, std::__ndk1::allocator<hook8<(anonymous namespace)::hook8Parent>::onModify<geode::modifier::ModifyBase<geode::modifier::ModifyDerive<hook8<(anonymous namespace)::hook8Parent>, PlayLayer> > >(geode::modifier::ModifyBase<geode::modifier::ModifyDerive<hook8<(anonymous namespace)::hook8Parent>, PlayLayer> >&)::{lambda()#1}>, void ()>::target_type() const
FUNC 1477d8 38 0 geode::modifier::AsStaticFunction_init<hook8<(anonymous namespace)::hook8Parent>, bool (hook8<(anonymous namespace)::hook8Parent>::*)(GJGameLevel*, bool, bool)>::Impl<bool (hook8<(anonymous namespace)::hook8Parent>::*)(GJGameLevel*, bool, bool)>::function(hook8<(anonymous namespace)::hook8Parent>*, GJGameLevel*, bool, bool)
FUNC 147810 66c 0 __cxx_global_var_init.30
FUNC 147e7c 1c 0 geode::modifier::ModifyBase<geode::modifier::ModifyDerive<hook10<(anonymous namespace)::hook10Parent>, LevelInfoLayer> >::~ModifyBase()
FUNC 147e98 404 0 geode::modifier::ModifyDerive<hook10<(anonymous namespace)::hook10Parent>, LevelInfoLayer>::apply()
FUNC 14829c 4 0 geode::modifier::ModifyBase<geode::modifier::ModifyDerive<hook10<(anonymous namespace)::hook10Parent>, LevelInfoLayer> >::apply()
FUNC 1482a0 74 0 hook10<(anonymous namespace)::hook10Parent>::onModify<geode::modifier::ModifyBase<geode::modifier::ModifyDerive<hook10<(anonymous namespace)::hook10Parent>, LevelInfoLayer> > >(geode::modifier::ModifyBase<geode::modifier::ModifyDerive<hook10<(anonymous namespace)::hook10Parent>, LevelInfoLayer> >&)::{lambda()#1}::~{lambda()#1}()
FUNC 148314 80 0 std::__ndk1::__function::__func<hook10<(anonymous namespace)::hook10Parent>::onModify<geode::modifier::ModifyBase<geode::modifier::ModifyDerive<hook10<(anonymous namespace)::hook10Parent>, LevelInfoLayer> > >(geode::modifier::ModifyBase<geode::modifier::ModifyDerive<hook10<(anonymous namespace)::hook10Parent>, LevelInfoLayer> >&)::{lambda()#1}, std::__ndk1::allocator<hook10<(anonymous namespace)::hook10Parent>::onModify<geode::modifier::ModifyBase<geode::modifier::ModifyDerive<hook10<(anonymous namespace)::hook10Parent>, LevelInfoLayer> > >(geode::modifier::ModifyBase<geode::modifier::ModifyDerive<hook10<(anonymous namespace)::hook10Parent>, LevelInfoLayer> >&)::{lambda()#1}>, void ()>::~__func()
FUNC 148394 80 0 std::__ndk1::__function::__func<hook10<(anonymous namespace)::hook10Parent>::onModify<geode::modifier::ModifyBase<geode::modifier::ModifyDerive<hook10<(anonymous namespace)::hook10Parent>, LevelInfoLayer> > >(geode::modifier::ModifyBase<geode::modifier::ModifyDerive<hook10<(anonymous namespace)::hook10Parent>, LevelInfoLayer> >&)::{lambda()#1}, std::__ndk1::allocator<hook10<(anonymous namespace)::hook10Parent>::onModify<geode::modifier::ModifyBase<geode::modifier::ModifyDerive<hook10<(anonymous namespace)::hook10Parent>, LevelInfoLayer> > >(geode::modifier::ModifyBase<geode::modifier::ModifyDerive<hook10<(anonymous namespace)::hook10Parent>, LevelInfoLayer> >&)::{lambda()#1}>, void ()>::~__func()
FUNC 148414 d4 0 std::__ndk1::__function::__func<hook10<(anonymous namespace)::hook10Parent>::onModify<geode::modifier::ModifyBase<geode::modifier::ModifyDerive<hook10<(anonymous namespace)::hook10Parent>, LevelInfoLayer> > >(geode::modifier::ModifyBase<geode::modifier::ModifyDerive<hook10<(anonymous namespace)::hook10Parent>, LevelInfoLayer> >&)::{lambda()#1}, std::__ndk1::allocator<hook10<(anonymous namespace)::hook10Parent>::onModify<geode::modifier::ModifyBase<geode::modifier::ModifyDerive<hook10<(anonymous namespace)::hook10Parent>, LevelInfoLayer> > >(geode::modifier::ModifyBase<geode::modifier::ModifyDerive<hook10<(anonymous namespace)::hook10Parent>, LevelInfoLayer> >&)::{lambda()#1}>, void ()>::__clone() const
FUNC 1484e8 c0 0 std::__ndk1::__function::__func<hook10<(anonymous namespace)::hook10Parent>::onModify<geode::modifier::ModifyBase<geode::modifier::ModifyDerive<hook10<(anonymous namespace)::hook10Parent>, LevelInfoLayer> > >(geode::modifier::ModifyBase<geode::modifier::ModifyDerive<hook10<(anonymous namespace)::hook10Parent>, LevelInfoLayer> >&)::{lambda()#1}, std::__ndk1::allocator<hook10<(anonymous namespace)::hook10Parent>::onModify<geode::modifier::ModifyBase<geode::modifier::ModifyDerive<hook10<(anonymous namespace)::hook10Parent>, LevelInfoLayer> > >(geode::modifier::ModifyBase<geode::modifier::ModifyDerive<hook10<(anonymous namespace)::hook10Parent>, LevelInfoLayer> >&)::{lambda()#1}>, void ()>::__clone(std::__ndk1::__function::__base<void ()>*) const
FUNC 1485a8 74 0 std::__ndk1::__function::__func<hook10<(anonymous namespace)::hook10Parent>::onModify<geode::modifier::ModifyBase<geode::modifier::ModifyDerive<hook10<(anonymous namespace)::hook10Parent>, LevelInfoLayer> > >(geode::modifier::ModifyBase<geode::modifier::ModifyDerive<hook10<(anonymous namespace)::hook10Parent>, LevelInfoLayer> >&)::{lambda()#1}, std::__ndk1::allocator<hook10<(anonymous namespace)::hook10Parent>::onModify<geode::modifier::ModifyBase<geode::modifier::ModifyDerive<hook10<(anonymous namespace)::hook10Parent>, LevelInfoLayer> > >(geode::modifier::ModifyBase<geode::modifier::ModifyDerive<hook10<(anonymous namespace)::hook10Parent>, LevelInfoLayer> >&)::{lambda()#1}>, void ()>::destroy()
FUNC 14861c 74 0 std::__ndk1::__function::__func<hook10<(anonymous namespace)::hook10Parent>::onModify<geode::modifier::ModifyBase<geode::modifier::ModifyDerive<hook10<(anonymous namespace)::hook10Parent>, LevelInfoLayer> > >(geode::modifier::ModifyBase<geode::modifier::ModifyDerive<hook10<(anonymous namespace)::hook10Parent>, LevelInfoLayer> >&)::{lambda()#1}, std::__ndk1::allocator<hook10<(anonymous namespace)::hook10Parent>::onModify<geode::modifier::ModifyBase<geode::modifier::ModifyDerive<hook10<(anonymous namespace)::hook10Parent>, LevelInfoLayer> > >(geode::modifier::ModifyBase<geode::modifier::ModifyDerive<hook10<(anonymous namespace)::hook10Parent>, LevelInfoLayer> >&)::{lambda()#1}>, void ()>::destroy_deallocate()
FUNC 148690 11c 0 std::__ndk1::__function::__func<hook10<(anonymous namespace)::hook10Parent>::onModify<geode::modifier::ModifyBase<geode::modifier::ModifyDerive<hook10<(anonymous namespace)::hook10Parent>, LevelInfoLayer> > >(geode::modifier::ModifyBase<geode::modifier::ModifyDerive<hook10<(anonymous namespace)::hook10Parent>, LevelInfoLayer> >&)::{lambda()#1}, std::__ndk1::allocator<hook10<(anonymous namespace)::hook10Parent>::onModify<geode::modifier::ModifyBase<geode::modifier::ModifyDerive<hook10<(anonymous namespace)::hook10Parent>, LevelInfoLayer> > >(geode::modifier::ModifyBase<geode::modifier::ModifyDerive<hook10<(anonymous namespace)::hook10Parent>, LevelInfoLayer> >&)::{lambda()#1}>, void ()>::operator()()
FUNC 1487ac 1c 0 std::__ndk1::__function::__func<hook10<(anonymous namespace)::hook10Parent>::onModify<geode::modifier::ModifyBase<geode::modifier::ModifyDerive<hook10<(anonymous namespace)::hook10Parent>, LevelInfoLayer> > >(geode::modifier::ModifyBase<geode::modifier::ModifyDerive<hook10<(anonymous namespace)::hook10Parent>, LevelInfoLayer> >&)::{lambda()#1}, std::__ndk1::allocator<hook10<(anonymous namespace)::hook10Parent>::onModify<geode::modifier::ModifyBase<geode::modifier::ModifyDerive<hook10<(anonymous namespace)::hook10Parent>, LevelInfoLayer> > >(geode::modifier::ModifyBase<geode::modifier::ModifyDerive<hook10<(anonymous namespace)::hook10Parent>, LevelInfoLayer> >&)::{lambda()#1}>, void ()>::target(std::type_info const&) const
FUNC 1487c8 c 0 std::__ndk1::__function::__func<hook10<(anonymous namespace)::hook10Parent>::onModify<geode::modifier::ModifyBase<geode::modifier::ModifyDerive<hook10<(anonymous namespace)::hook10Parent>, LevelInfoLayer> > >(geode::modifier::ModifyBase<geode::modifier::ModifyDerive<hook10<(anonymous namespace)::hook10Parent>, LevelInfoLayer> >&)::{lambda()#1}, std::__ndk1::allocator<hook10<(anonymous namespace)::hook10Parent>::onModify<geode::modifier::ModifyBase<geode::modifier::ModifyDerive<hook10<(anonymous namespace)::hook10Parent>, LevelInfoLayer> > >(geode::modifier::ModifyBase<geode::modifier::ModifyDerive<hook10<(anonymous namespace)::hook10Parent>, LevelInfoLayer> >&)::{lambda()#1}>, void ()>::target_type() const
FUNC 1487d4 f4 0 geode::modifier::AsStaticFunction_init<hook10<(anonymous namespace)::hook10Parent>, bool (hook10<(anonymous namespace)::hook10Parent>::*)(GJGameLevel*, bool)>::Impl<bool (hook10<(anonymous namespace)::hook10Parent>::*)(GJGameLevel*, bool)>::function(hook10<(anonymous namespace)::hook10Parent>*, GJGameLevel*, bool)
FUNC 1488c8 4 0 std::__ndk1::__function::__func<hook10<(anonymous namespace)::hook10Parent>::init(GJGameLevel*, bool)::{lambda()#1}, std::__ndk1::allocator<hook10<(anonymous namespace)::hook10Parent>::init(GJGameLevel*, bool)::{lambda()#1}>, void ()>::~__func()
FUNC 1488cc 34 0 std::__ndk1::__function::__func<hook10<(anonymous namespace)::hook10Parent>::init(GJGameLevel*, bool)::{lambda()#1}, std::__ndk1::allocator<hook10<(anonymous namespace)::hook10Parent>::init(GJGameLevel*, bool)::{lambda()#1}>, void ()>::__clone() const
FUNC 148900 14 0 std::__ndk1::__function::__func<hook10<(anonymous namespace)::hook10Parent>::init(GJGameLevel*, bool)::{lambda()#1}, std::__ndk1::allocator<hook10<(anonymous namespace)::hook10Parent>::init(GJGameLevel*, bool)::{lambda()#1}>, void ()>::__clone(std::__ndk1::__function::__base<void ()>*) const
FUNC 148914 4 0 std::__ndk1::__function::__func<hook10<(anonymous namespace)::hook10Parent>::init(GJGameLevel*, bool)::{lambda()#1}, std::__ndk1::allocator<hook10<(anonymous namespace)::hook10Parent>::init(GJGameLevel*, bool)::{lambda()#1}>, void ()>::destroy()
FUNC 148918 4 0 std::__ndk1::__function::__func<hook10<(anonymous namespace)::hook10Parent>::init(GJGameLevel*, bool)::{lambda()#1}, std::__ndk1::allocator<hook10<(anonymous namespace)::hook10Parent>::init(GJGameLevel*, bool)::{lambda()#1}>, void ()>::destroy_deallocate()
FUNC 14891c 50 0 std::__ndk1::__function::__func<hook10<(anonymous namespace)::hook10Parent>::init(GJGameLevel*, bool)::{lambda()#1}, std::__ndk1::allocator<hook10<(anonymous namespace)::hook10Parent>::init(GJGameLevel*, bool)::{lambda()#1}>, void ()>::operator()()
FUNC 14896c 1c 0 std::__ndk1::__function::__func<hook10<(anonymous namespace)::hook10Parent>::init(GJGameLevel*, bool)::{lambda()#1}, std::__ndk1::allocator<hook10<(anonymous namespace)::hook10Parent>::init(GJGameLevel*, bool)::{lambda()#1}>, void ()>::target(std::type_info const&) const
FUNC 148988 c 0 std::__ndk1::__function::__func<hook10<(anonymous namespace)::hook10Parent>::init(GJGameLevel*, bool)::{lambda()#1}, std::__ndk1::allocator<hook10<(anonymous namespace)::hook10Parent>::init(GJGameLevel*, bool)::{lambda()#1}>, void ()>::target_type() const
FUNC 148994 7e4 0 __cxx_global_var_init.30
FUNC 149178 1c 0 geode::modifier::ModifyBase<geode::modifier::ModifyDerive<hook8<(anonymous namespace)::hook8Parent>, PlayerObject> >::~ModifyBase()
FUNC 149194 3dc 0 geode::modifier::ModifyDerive<hook8<(anonymous namespace)::hook8Parent>, PlayerObject>::apply()
FUNC 149570 4 0 geode::modifier::ModifyBase<geode::modifier::ModifyDerive<hook8<(anonymous namespace)::hook8Parent>, PlayerObject> >::apply()
FUNC 149574 24 0 std::__ndk1::__function::__func<hook8<(anonymous namespace)::hook8Parent>::onModify<geode::modifier::ModifyBase<geode::modifier::ModifyDerive<hook8<(anonymous namespace)::hook8Parent>, PlayerObject> > >(geode::modifier::ModifyBase<geode::modifier::ModifyDerive<hook8<(anonymous namespace)::hook8Parent>, PlayerObject> >&)::{lambda()#1}, std::__ndk1::allocator<hook8<(anonymous namespace)::hook8Parent>::onModify<geode::modifier::ModifyBase<geode::modifier::ModifyDerive<hook8<(anonymous namespace)::hook8Parent>, PlayerObject> > >(geode::modifier::ModifyBase<geode::modifier::ModifyDerive<hook8<(anonymous namespace)::hook8Parent>, PlayerObject> >&)::{lambda()#1}>, void ()>::~__func()
FUNC 149598 40 0 std::__ndk1::__function::__func<hook8<(anonymous namespace)::hook8Parent>::onModify<geode::modifier::ModifyBase<geode::modifier::ModifyDerive<hook8<(anonymous namespace)::hook8Parent>, PlayerObject> > >(geode::modifier::ModifyBase<geode::modifier::ModifyDerive<hook8<(anonymous namespace)::hook8Parent>, PlayerObject> >&)::{lambda()#1}, std::__ndk1::allocator<hook8<(anonymous namespace)::hook8Parent>::onModify<geode::modifier::ModifyBase<geode::modifier::ModifyDerive<hook8<(anonymous namespace)::hook8Parent>, PlayerObject> > >(geode::modifier::ModifyBase<geode::modifier::ModifyDerive<hook8<(anonymous namespace)::hook8Parent>, PlayerObject> >&)::{lambda()#1}>, void ()>::~__func()
FUNC 1495d8 b0 0 std::__ndk1::__function::__func<hook8<(anonymous namespace)::hook8Parent>::onModify<geode::modifier::ModifyBase<geode::modifier::ModifyDerive<hook8<(anonymous namespace)::hook8Parent>, PlayerObject> > >(geode::modifier::ModifyBase<geode::modifier::ModifyDerive<hook8<(anonymous namespace)::hook8Parent>, PlayerObject> >&)::{lambda()#1}, std::__ndk1::allocator<hook8<(anonymous namespace)::hook8Parent>::onModify<geode::modifier::ModifyBase<geode::modifier::ModifyDerive<hook8<(anonymous namespace)::hook8Parent>, PlayerObject> > >(geode::modifier::ModifyBase<geode::modifier::ModifyDerive<hook8<(anonymous namespace)::hook8Parent>, PlayerObject> >&)::{lambda()#1}>, void ()>::__clone() const
FUNC 149688 98 0 std::__ndk1::__function::__func<hook8<(anonymous namespace)::hook8Parent>::onModify<geode::modifier::ModifyBase<geode::modifier::ModifyDerive<hook8<(anonymous namespace)::hook8Parent>, PlayerObject> > >(geode::modifier::ModifyBase<geode::modifier::ModifyDerive<hook8<(anonymous namespace)::hook8Parent>, PlayerObject> >&)::{lambda()#1}, std::__ndk1::allocator<hook8<(anonymous namespace)::hook8Parent>::onModify<geode::modifier::ModifyBase<geode::modifier::ModifyDerive<hook8<(anonymous namespace)::hook8Parent>, PlayerObject> > >(geode::modifier::ModifyBase<geode::modifier::ModifyDerive<hook8<(anonymous namespace)::hook8Parent>, PlayerObject> >&)::{lambda()#1}>, void ()>::__clone(std::__ndk1::__function::__base<void ()>*) const
FUNC 149720 18 0 std::__ndk1::__function::__func<hook8<(anonymous namespace)::hook8Parent>::onModify<geode::modifier::ModifyBase<geode::modifier::ModifyDerive<hook8<(anonymous namespace)::hook8Parent>, PlayerObject> > >(geode::modifier::ModifyBase<geode::modifier::ModifyDerive<hook8<(anonymous namespace)::hook8Parent>, PlayerObject> >&)::{lambda()#1}, std::__ndk1::allocator<hook8<(anonymous namespace)::hook8Parent>::onModify<geode::modifier::ModifyBase<geode::modifier::ModifyDerive<hook8<(anonymous namespace)::hook8Parent>, PlayerObject> > >(geode::modifier::ModifyBase<geode::modifier::ModifyDerive<hook8<(anonymous namespace)::hook8Parent>, PlayerObject> >&)::{lambda()#1}>, void ()>::destroy()
FUNC 149738 34 0 std::__ndk1::__function::__func<hook8<(anonymous namespace)::hook8Parent>::onModify<geode::modifier::ModifyBase<geode::modifier::ModifyDerive<hook8<(anonymous namespace)::hook8Parent>, PlayerObject> > >(geode::modifier::ModifyBase<geode::modifier::ModifyDerive<hook8<(anonymous namespace)::hook8Parent>, PlayerObject> >&)::{lambda()#1}, std::__ndk1::allocator<hook8<(anonymous namespace)::hook8Parent>::onModify<geode::modifier::ModifyBase<geode::modifier::ModifyDerive<hook8<(anonymous namespace)::hook8Parent>, PlayerObject> > >(geode::modifier::ModifyBase<geode::modifier::ModifyDerive<hook8<(anonymous namespace)::hook8Parent>, PlayerObject> >&)::{lambda()#1}>, void ()>::destroy_deallocate()
FUNC 14976c a8 0 std::__ndk1::__function::__func<hook8<(anonymous namespace)::hook8Parent>::onModify<geode::modifier::ModifyBase<geode::modifier::ModifyDerive<hook8<(anonymous namespace)::hook8Parent>, PlayerObject> > >(geode::modifier::ModifyBase<geode::modifier::ModifyDerive<hook8<(anonymous namespace)::hook8Parent>, PlayerObject> >&)::{lambda()#1}, std::__ndk1::allocator<hook8<(anonymous namespace)::hook8Parent>::onModify<geode::modifier::ModifyBase<geode::modifier::ModifyDerive<hook8<(anonymous namespace)::hook8Parent>, PlayerObject> > >(geode::modifier::ModifyBase<geode::modifier::ModifyDerive<hook8<(anonymous namespace)::hook8Parent>, PlayerObject> >&)::{lambda()#1}>, void ()>::operator()()
FUNC 149814 1c 0 std::__ndk1::__function::__func<hook8<(anonymous namespace)::hook8Parent>::onModify<geode::modifier::ModifyBase<geode::modifier::ModifyDerive<hook8<(anonymous namespace)::hook8Parent>, PlayerObject> > >(geode::modifier::ModifyBase<geode::modifier::ModifyDerive<hook8<(anonymous namespace)::hook8Parent>, PlayerObject> >&)::{lambda()#1}, std::__ndk1::allocator<hook8<(anonymous namespace)::hook8Parent>::onModify<geode::modifier::ModifyBase<geode::modifier::ModifyDerive<hook8<(anonymous namespace)::hook8Parent>, PlayerObject> > >(geode::modifier::ModifyBase<geode::modifier::ModifyDerive<hook8<(anonymous namespace)::hook8Parent>, PlayerObject> >&)::{lambda()#1}>, void ()>::target(std::type_info const&) const
FUNC 149830 c 0 std::__ndk1::__function::__func<hook8<(anonymous namespace)::hook8Parent>::onModify<geode::modifier::ModifyBase<geode::modifier::ModifyDerive<hook8<(anonymous namespace)::hook8Parent>, PlayerObject> > >(geode::modifier::ModifyBase<geode::modifier::ModifyDerive<hook8<(anonymous namespace)::hook8Parent>, PlayerObject> >&)::{lambda()#1}, std::__ndk1::allocator<hook8<(anonymous namespace)::hook8Parent>::onModify<geode::modifier::ModifyBase<geode::modifier::ModifyDerive<hook8<(anonymous namespace)::hook8Parent>, PlayerObject> > >(geode::modifier::ModifyBase<geode::modifier::ModifyDerive<hook8<(anonymous namespace)::hook8Parent>, PlayerObject> >&)::{lambda()#1}>, void ()>::target_type() const
FUNC 14983c 70 0 geode::modifier::AsStaticFunction_switchedToMode<hook8<(anonymous namespace)::hook8Parent>, void (hook8<(anonymous namespace)::hook8Parent>::*)(GameObjectType)>::Impl<void (hook8<(anonymous namespace)::hook8Parent>::*)(GameObjectType)>::function(hook8<(anonymous namespace)::hook8Parent>*, GameObjectType)
FUNC 1498ac 6d8 0 __cxx_global_var_init.30
FUNC 149f84 1c 0 geode::modifier::ModifyBase<geode::modifier::ModifyDerive<hook9<(anonymous namespace)::hook9Parent>, SecretLayer2> >::~ModifyBase()
FUNC 149fa0 3c0 0 geode::modifier::ModifyDerive<hook9<(anonymous namespace)::hook9Parent>, SecretLayer2>::apply()
FUNC 14a360 4 0 geode::modifier::ModifyBase<geode::modifier::ModifyDerive<hook9<(anonymous namespace)::hook9Parent>, SecretLayer2> >::apply()
FUNC 14a364 144 0 geode::modifier::ModifyBase<geode::modifier::ModifyDerive<hook9<(anonymous namespace)::hook9Parent>, SecretLayer2> >::getHook(std::__ndk1::basic_string_view<char, std::__ndk1::char_traits<char> >)
FUNC 14a4a8 74 0 hook9<(anonymous namespace)::hook9Parent>::onModify<geode::modifier::ModifyBase<geode::modifier::ModifyDerive<hook9<(anonymous namespace)::hook9Parent>, SecretLayer2> > >(geode::modifier::ModifyBase<geode::modifier::ModifyDerive<hook9<(anonymous namespace)::hook9Parent>, SecretLayer2> >&)::{lambda()#1}::~{lambda()#1}()
FUNC 14a51c 80 0 std::__ndk1::__function::__func<hook9<(anonymous namespace)::hook9Parent>::onModify<geode::modifier::ModifyBase<geode::modifier::ModifyDerive<hook9<(anonymous namespace)::hook9Parent>, SecretLayer2> > >(geode::modifier::ModifyBase<geode::modifier::ModifyDerive<hook9<(anonymous namespace)::hook9Parent>, SecretLayer2> >&)::{lambda()#1}, std::__ndk1::allocator<hook9<(anonymous namespace)::hook9Parent>::onModify<geode::modifier::ModifyBase<geode::modifier::ModifyDerive<hook9<(anonymous namespace)::hook9Parent>, SecretLayer2> > >(geode::modifier::ModifyBase<geode::modifier::ModifyDerive<hook9<(anonymous namespace)::hook9Parent>, SecretLayer2> >&)::{lambda()#1}>, void ()>::~__func()
FUNC 14a59c 80 0 std::__ndk1::__function::__func<hook9<(anonymous namespace)::hook9Parent>::onModify<geode::modifier::ModifyBase<geode::modifier::ModifyDerive<hook9<(anonymous namespace)::hook9Parent>, SecretLayer2> > >(geode::modifier::ModifyBase<geode::modifier::ModifyDerive<hook9<(anonymous namespace)::hook9Parent>, SecretLayer2> >&)::{lambda()#1}, std::__ndk1::allocator<hook9<(anonymous namespace)::hook9Parent>::onModify<geode::modifier::ModifyBase<geode::modifier::ModifyDerive<hook9<(anonymous namespace)::hook9Parent>, SecretLayer2> > >(geode::modifier::ModifyBase<geode::modifier::ModifyDerive<hook9<(anonymous namespace)::hook9Parent>, SecretLayer2> >&)::{lambda()#1}>, void ()>::~__func()
FUNC 14a61c d4 0 std::__ndk1::__function::__func<hook9<(anonymous namespace)::hook9Parent>::onModify<geode::modifier::ModifyBase<geode::modifier::ModifyDerive<hook9<(anonymous namespace)::hook9Parent>, SecretLayer2> > >(geode::modifier::ModifyBase<geode::modifier::ModifyDerive<hook9<(anonymous namespace)::hook9Parent>, SecretLayer2> >&)::{lambda()#1}, std::__ndk1::allocator<hook9<(anonymous namespace)::hook9Parent>::onModify<geode::modifier::ModifyBase<geode::modifier::ModifyDerive<hook9<(anonymous namespace)::hook9Parent>, SecretLayer2> > >(geode::modifier::ModifyBase<geode::modifier::ModifyDerive<hook9<(anonymous namespace)::hook9Parent>, SecretLayer2> >&)::{lambda()#1}>, void ()>::__clone() const
FUNC 14a6f0 c0 0 std::__ndk1::__function::__func<hook9<(anonymous namespace)::hook9Parent>::onModify<geode::modifier::ModifyBase<geode::modifier::ModifyDerive<hook9<(anonymous namespace)::hook9Parent>, SecretLayer2> > >(geode::modifier::ModifyBase<geode::modifier::ModifyDerive<hook9<(anonymous namespace)::hook9Parent>, SecretLayer2> >&)::{lambda()#1}, std::__ndk1::allocator<hook9<(anonymous namespace)::hook9Parent>::onModify<geode::modifier::ModifyBase<geode::modifier::ModifyDerive<hook9<(anonymous namespace)::hook9Parent>, SecretLayer2> > >(geode::modifier::ModifyBase<geode::modifier::ModifyDerive<hook9<(anonymous namespace)::hook9Parent>, SecretLayer2> >&)::{lambda()#1}>, void ()>::__clone(std::__ndk1::__function::__base<void ()>*) const
FUNC 14a7b0 74 0 std::__ndk1::__function::__func<hook9<(anonymous namespace)::hook9Parent>::onModify<geode::modifier::ModifyBase<geode::modifier::ModifyDerive<hook9<(anonymous namespace)::hook9Parent>, SecretLayer2> > >(geode::modifier::ModifyBase<geode::modifier::ModifyDerive<hook9<(anonymous namespace)::hook9Parent>, SecretLayer2> >&)::{lambda()#1}, std::__ndk1::allocator<hook9<(anonymous namespace)::hook9Parent>::onModify<geode::modifier::ModifyBase<geode::modifier::ModifyDerive<hook9<(anonymous namespace)::hook9Parent>, SecretLayer2> > >(geode::modifier::ModifyBase<geode::modifier::ModifyDerive<hook9<(anonymous namespace)::hook9Parent>, SecretLayer2> >&)::{lambda()#1}>, void ()>::destroy()
FUNC 14a824 74 0 std::__ndk1::__function::__func<hook9<(anonymous namespace)::hook9Parent>::onModify<geode::modifier::ModifyBase<geode::modifier::ModifyDerive<hook9<(anonymous namespace)::hook9Parent>, SecretLayer2> > >(geode::modifier::ModifyBase<geode::modifier::ModifyDerive<hook9<(anonymous namespace)::hook9Parent>, SecretLayer2> >&)::{lambda()#1}, std::__ndk1::allocator<hook9<(anonymous namespace)::hook9Parent>::onModify<geode::modifier::ModifyBase<geode::modifier::ModifyDerive<hook9<(anonymous namespace)::hook9Parent>, SecretLayer2> > >(geode::modifier::ModifyBase<geode::modifier::ModifyDerive<hook9<(anonymous namespace)::hook9Parent>, SecretLayer2> >&)::{lambda()#1}>, void ()>::destroy_deallocate()
FUNC 14a898 120 0 std::__ndk1::__function::__func<hook9<(anonymous namespace)::hook9Parent>::onModify<geode::modifier::ModifyBase<geode::modifier::ModifyDerive<hook9<(anonymous namespace)::hook9Parent>, SecretLayer2> > >(geode::modifier::ModifyBase<geode::modifier::ModifyDerive<hook9<(anonymous namespace)::hook9Parent>, SecretLayer2> >&)::{lambda()#1}, std::__ndk1::allocator<hook9<(anonymous namespace)::hook9Parent>::onModify<geode::modifier::ModifyBase<geode::modifier::ModifyDerive<hook9<(anonymous namespace)::hook9Parent>, SecretLayer2> > >(geode::modifier::ModifyBase<geode::modifier::ModifyDerive<hook9<(anonymous namespace)::hook9Parent>, SecretLayer2> >&)::{lambda()#1}>, void ()>::operator()()
FUNC 14a9b8 1c 0 std::__ndk1::__function::__func<hook9<(anonymous namespace)::hook9Parent>::onModify<geode::modifier::ModifyBase<geode::modifier::ModifyDerive<hook9<(anonymous namespace)::hook9Parent>, SecretLayer2> > >(geode::modifier::ModifyBase<geode::modifier::ModifyDerive<hook9<(anonymous namespace)::hook9Parent>, SecretLayer2> >&)::{lambda()#1}, std::__ndk1::allocator<hook9<(anonymous namespace)::hook9Parent>::onModify<geode::modifier::ModifyBase<geode::modifier::ModifyDerive<hook9<(anonymous namespace)::hook9Parent>, SecretLayer2> > >(geode::modifier::ModifyBase<geode::modifier::ModifyDerive<hook9<(anonymous namespace)::hook9Parent>, SecretLayer2> >&)::{lambda()#1}>, void ()>::target(std::type_info const&) const
FUNC 14a9d4 c 0 std::__ndk1::__function::__func<hook9<(anonymous namespace)::hook9Parent>::onModify<geode::modifier::ModifyBase<geode::modifier::ModifyDerive<hook9<(anonymous namespace)::hook9Parent>, SecretLayer2> > >(geode::modifier::ModifyBase<geode::modifier::ModifyDerive<hook9<(anonymous namespace)::hook9Parent>, SecretLayer2> >&)::{lambda()#1}, std::__ndk1::allocator<hook9<(anonymous namespace)::hook9Parent>::onModify<geode::modifier::ModifyBase<geode::modifier::ModifyDerive<hook9<(anonymous namespace)::hook9Parent>, SecretLayer2> > >(geode::modifier::ModifyBase<geode::modifier::ModifyDerive<hook9<(anonymous namespace)::hook9Parent>, SecretLayer2> >&)::{lambda()#1}>, void ()>::target_type() const
FUNC 14a9e0 68 0 geode::modifier::AsStaticFunction_onDoor<hook9<(anonymous namespace)::hook9Parent>, void (hook9<(anonymous namespace)::hook9Parent>::*)(cocos2d::CCObject*)>::Impl<void (hook9<(anonymous namespace)::hook9Parent>::*)(cocos2d::CCObject*)>::function(hook9<(anonymous namespace)::hook9Parent>*, cocos2d::CCObject*)
FUNC 14aa48 6d8 0 __cxx_global_var_init.30
FUNC 14b120 1c 0 geode::modifier::ModifyBase<geode::modifier::ModifyDerive<hook8<(anonymous namespace)::hook8Parent>, SecretLayer2> >::~ModifyBase()
FUNC 14b13c 3dc 0 geode::modifier::ModifyDerive<hook8<(anonymous namespace)::hook8Parent>, SecretLayer2>::apply()
FUNC 14b518 4 0 geode::modifier::ModifyBase<geode::modifier::ModifyDerive<hook8<(anonymous namespace)::hook8Parent>, SecretLayer2> >::apply()
FUNC 14b51c 150 0 geode::modifier::ModifyBase<geode::modifier::ModifyDerive<hook8<(anonymous namespace)::hook8Parent>, SecretLayer2> >::getHook(std::__ndk1::basic_string_view<char, std::__ndk1::char_traits<char> >)
FUNC 14b66c 74 0 hook8<(anonymous namespace)::hook8Parent>::onModify<geode::modifier::ModifyBase<geode::modifier::ModifyDerive<hook8<(anonymous namespace)::hook8Parent>, SecretLayer2> > >(geode::modifier::ModifyBase<geode::modifier::ModifyDerive<hook8<(anonymous namespace)::hook8Parent>, SecretLayer2> >&)::{lambda()#1}::~{lambda()#1}()
FUNC 14b6e0 80 0 std::__ndk1::__function::__func<hook8<(anonymous namespace)::hook8Parent>::onModify<geode::modifier::ModifyBase<geode::modifier::ModifyDerive<hook8<(anonymous namespace)::hook8Parent>, SecretLayer2> > >(geode::modifier::ModifyBase<geode::modifier::ModifyDerive<hook8<(anonymous namespace)::hook8Parent>, SecretLayer2> >&)::{lambda()#1}, std::__ndk1::allocator<hook8<(anonymous namespace)::hook8Parent>::onModify<geode::modifier::ModifyBase<geode::modifier::ModifyDerive<hook8<(anonymous namespace)::hook8Parent>, SecretLayer2> > >(geode::modifier::ModifyBase<geode::modifier::ModifyDerive<hook8<(anonymous namespace)::hook8Parent>, SecretLayer2> >&)::{lambda()#1}>, void ()>::~__func()
FUNC 14b760 80 0 std::__ndk1::__function::__func<hook8<(anonymous namespace)::hook8Parent>::onModify<geode::modifier::ModifyBase<geode::modifier::ModifyDerive<hook8<(anonymous namespace)::hook8Parent>, SecretLayer2> > >(geode::modifier::ModifyBase<geode::modifier::ModifyDerive<hook8<(anonymous namespace)::hook8Parent>, SecretLayer2> >&)::{lambda()#1}, std::__ndk1::allocator<hook8<(anonymous namespace)::hook8Parent>::onModify<geode::modifier::ModifyBase<geode::modifier::ModifyDerive<hook8<(anonymous namespace)::hook8Parent>, SecretLayer2> > >(geode::modifier::ModifyBase<geode::modifier::ModifyDerive<hook8<(anonymous namespace)::hook8Parent>, SecretLayer2> >&)::{lambda()#1}>, void ()>::~__func()
FUNC 14b7e0 d4 0 std::__ndk1::__function::__func<hook8<(anonymous namespace)::hook8Parent>::onModify<geode::modifier::ModifyBase<geode::modifier::ModifyDerive<hook8<(anonymous namespace)::hook8Parent>, SecretLayer2> > >(geode::modifier::ModifyBase<geode::modifier::ModifyDerive<hook8<(anonymous namespace)::hook8Parent>, SecretLayer2> >&)::{lambda()#1}, std::__ndk1::allocator<hook8<(anonymous namespace)::hook8Parent>::onModify<geode::modifier::ModifyBase<geode::modifier::ModifyDerive<hook8<(anonymous namespace)::hook8Parent>, SecretLayer2> > >(geode::modifier::ModifyBase<geode::modifier::ModifyDerive<hook8<(anonymous namespace)::hook8Parent>, SecretLayer2> >&)::{lambda()#1}>, void ()>::__clone() const
FUNC 14b8b4 c0 0 std::__ndk1::__function::__func<hook8<(anonymous namespace)::hook8Parent>::onModify<geode::modifier::ModifyBase<geode::modifier::ModifyDerive<hook8<(anonymous namespace)::hook8Parent>, SecretLayer2> > >(geode::modifier::ModifyBase<geode::modifier::ModifyDerive<hook8<(anonymous namespace)::hook8Parent>, SecretLayer2> >&)::{lambda()#1}, std::__ndk1::allocator<hook8<(anonymous namespace)::hook8Parent>::onModify<geode::modifier::ModifyBase<geode::modifier::ModifyDerive<hook8<(anonymous namespace)::hook8Parent>, SecretLayer2> > >(geode::modifier::ModifyBase<geode::modifier::ModifyDerive<hook8<(anonymous namespace)::hook8Parent>, SecretLayer2> >&)::{lambda()#1}>, void ()>::__clone(std::__ndk1::__function::__base<void ()>*) const
FUNC 14b974 74 0 std::__ndk1::__function::__func<hook8<(anonymous namespace)::hook8Parent>::onModify<geode::modifier::ModifyBase<geode::modifier::ModifyDerive<hook8<(anonymous namespace)::hook8Parent>, SecretLayer2> > >(geode::modifier::ModifyBase<geode::modifier::ModifyDerive<hook8<(anonymous namespace)::hook8Parent>, SecretLayer2> >&)::{lambda()#1}, std::__ndk1::allocator<hook8<(anonymous namespace)::hook8Parent>::onModify<geode::modifier::ModifyBase<geode::modifier::ModifyDerive<hook8<(anonymous namespace)::hook8Parent>, SecretLayer2> > >(geode::modifier::ModifyBase<geode::modifier::ModifyDerive<hook8<(anonymous namespace)::hook8Parent>, SecretLayer2> >&)::{lambda()#1}>, void ()>::destroy()
FUNC 14b9e8 74 0 std::__ndk1::__function::__func<hook8<(anonymous namespace)::hook8Parent>::onModify<geode::modifier::ModifyBase<geode::modifier::ModifyDerive<hook8<(anonymous namespace)::hook8Parent>, SecretLayer2> > >(geode::modifier::ModifyBase<geode::modifier::ModifyDerive<hook8<(anonymous namespace)::hook8Parent>, SecretLayer2> >&)::{lambda()#1}, std::__ndk1::allocator<hook8<(anonymous namespace)::hook8Parent>::onModify<geode::modifier::ModifyBase<geode::modifier::ModifyDerive<hook8<(anonymous namespace)::hook8Parent>, SecretLayer2> > >(geode::modifier::ModifyBase<geode::modifier::ModifyDerive<hook8<(anonymous namespace)::hook8Parent>, SecretLayer2> >&)::{lambda()#1}>, void ()>::destroy_deallocate()
FUNC 14ba5c 124 0 std::__ndk1::__function::__func<hook8<(anonymous namespace)::hook8Parent>::onModify<geode::modifier::ModifyBase<geode::modifier::ModifyDerive<hook8<(anonymous namespace)::hook8Parent>, SecretLayer2> > >(geode::modifier::ModifyBase<geode::modifier::ModifyDerive<hook8<(anonymous namespace)::hook8Parent>, SecretLayer2> >&)::{lambda()#1}, std::__ndk1::allocator<hook8<(anonymous namespace)::hook8Parent>::onModify<geode::modifier::ModifyBase<geode::modifier::ModifyDerive<hook8<(anonymous namespace)::hook8Parent>, SecretLayer2> > >(geode::modifier::ModifyBase<geode::modifier::ModifyDerive<hook8<(anonymous namespace)::hook8Parent>, SecretLayer2> >&)::{lambda()#1}>, void ()>::operator()()
FUNC 14bb80 1c 0 std::__ndk1::__function::__func<hook8<(anonymous namespace)::hook8Parent>::onModify<geode::modifier::ModifyBase<geode::modifier::ModifyDerive<hook8<(anonymous namespace)::hook8Parent>, SecretLayer2> > >(geode::modifier::ModifyBase<geode::modifier::ModifyDerive<hook8<(anonymous namespace)::hook8Parent>, SecretLayer2> >&)::{lambda()#1}, std::__ndk1::allocator<hook8<(anonymous namespace)::hook8Parent>::onModify<geode::modifier::ModifyBase<geode::modifier::ModifyDerive<hook8<(anonymous namespace)::hook8Parent>, SecretLayer2> > >(geode::modifier::ModifyBase<geode::modifier::ModifyDerive<hook8<(anonymous namespace)::hook8Parent>, SecretLayer2> >&)::{lambda()#1}>, void ()>::target(std::type_info const&) const
FUNC 14bb9c c 0 std::__ndk1::__function::__func<hook8<(anonymous namespace)::hook8Parent>::onModify<geode::modifier::ModifyBase<geode::modifier::ModifyDerive<hook8<(anonymous namespace)::hook8Parent>, SecretLayer2> > >(geode::modifier::ModifyBase<geode::modifier::ModifyDerive<hook8<(anonymous namespace)::hook8Parent>, SecretLayer2> >&)::{lambda()#1}, std::__ndk1::allocator<hook8<(anonymous namespace)::hook8Parent>::onModify<geode::modifier::ModifyBase<geode::modifier::ModifyDerive<hook8<(anonymous namespace)::hook8Parent>, SecretLayer2> > >(geode::modifier::ModifyBase<geode::modifier::ModifyDerive<hook8<(anonymous namespace)::hook8Parent>, SecretLayer2> >&)::{lambda()#1}>, void ()>::target_type() const
FUNC 14bba8 54 0 geode::modifier::AsStaticFunction_onSecretLevel<hook8<(anonymous namespace)::hook8Parent>, void (hook8<(anonymous namespace)::hook8Parent>::*)(cocos2d::CCObject*)>::Impl<void (hook8<(anonymous namespace)::hook8Parent>::*)(cocos2d::CCObject*)>::function(hook8<(anonymous namespace)::hook8Parent>*, cocos2d::CCObject*)
FUNC 14bbfc 6d8 0 __cxx_global_var_init.30
FUNC 14c2d4 1c 0 geode::modifier::ModifyBase<geode::modifier::ModifyDerive<hook8<(anonymous namespace)::hook8Parent>, CreatorLayer> >::~ModifyBase()
FUNC 14c2f0 3dc 0 geode::modifier::ModifyDerive<hook8<(anonymous namespace)::hook8Parent>, CreatorLayer>::apply()
FUNC 14c6cc 4 0 geode::modifier::ModifyBase<geode::modifier::ModifyDerive<hook8<(anonymous namespace)::hook8Parent>, CreatorLayer> >::apply()
FUNC 14c6d0 150 0 geode::modifier::ModifyBase<geode::modifier::ModifyDerive<hook8<(anonymous namespace)::hook8Parent>, CreatorLayer> >::getHook(std::__ndk1::basic_string_view<char, std::__ndk1::char_traits<char> >)
FUNC 14c820 74 0 hook8<(anonymous namespace)::hook8Parent>::onModify<geode::modifier::ModifyBase<geode::modifier::ModifyDerive<hook8<(anonymous namespace)::hook8Parent>, CreatorLayer> > >(geode::modifier::ModifyBase<geode::modifier::ModifyDerive<hook8<(anonymous namespace)::hook8Parent>, CreatorLayer> >&)::{lambda()#1}::~{lambda()#1}()
FUNC 14c894 80 0 std::__ndk1::__function::__func<hook8<(anonymous namespace)::hook8Parent>::onModify<geode::modifier::ModifyBase<geode::modifier::ModifyDerive<hook8<(anonymous namespace)::hook8Parent>, CreatorLayer> > >(geode::modifier::ModifyBase<geode::modifier::ModifyDerive<hook8<(anonymous namespace)::hook8Parent>, CreatorLayer> >&)::{lambda()#1}, std::__ndk1::allocator<hook8<(anonymous namespace)::hook8Parent>::onModify<geode::modifier::ModifyBase<geode::modifier::ModifyDerive<hook8<(anonymous namespace)::hook8Parent>, CreatorLayer> > >(geode::modifier::ModifyBase<geode::modifier::ModifyDerive<hook8<(anonymous namespace)::hook8Parent>, CreatorLayer> >&)::{lambda()#1}>, void ()>::~__func()
FUNC 14c914 80 0 std::__ndk1::__function::__func<hook8<(anonymous namespace)::hook8Parent>::onModify<geode::modifier::ModifyBase<geode::modifier::ModifyDerive<hook8<(anonymous namespace)::hook8Parent>, CreatorLayer> > >(geode::modifier::ModifyBase<geode::modifier::ModifyDerive<hook8<(anonymous namespace)::hook8Parent>, CreatorLayer> >&)::{lambda()#1}, std::__ndk1::allocator<hook8<(anonymous namespace)::hook8Parent>::onModify<geode::modifier::ModifyBase<geode::modifier::ModifyDerive<hook8<(anonymous namespace)::hook8Parent>, CreatorLayer> > >(geode::modifier::ModifyBase<geode::modifier::ModifyDerive<hook8<(anonymous namespace)::hook8Parent>, CreatorLayer> >&)::{lambda()#1}>, void ()>::~__func()
FUNC 14c994 d4 0 std::__ndk1::__function::__func<hook8<(anonymous namespace)::hook8Parent>::onModify<geode::modifier::ModifyBase<geode::modifier::ModifyDerive<hook8<(anonymous namespace)::hook8Parent>, CreatorLayer> > >(geode::modifier::ModifyBase<geode::modifier::ModifyDerive<hook8<(anonymous namespace)::hook8Parent>, CreatorLayer> >&)::{lambda()#1}, std::__ndk1::allocator<hook8<(anonymous namespace)::hook8Parent>::onModify<geode::modifier::ModifyBase<geode::modifier::ModifyDerive<hook8<(anonymous namespace)::hook8Parent>, CreatorLayer> > >(geode::modifier::ModifyBase<geode::modifier::ModifyDerive<hook8<(anonymous namespace)::hook8Parent>, CreatorLayer> >&)::{lambda()#1}>, void ()>::__clone() const
FUNC 14ca68 c0 0 std::__ndk1::__function::__func<hook8<(anonymous namespace)::hook8Parent>::onModify<geode::modifier::ModifyBase<geode::modifier::ModifyDerive<hook8<(anonymous namespace)::hook8Parent>, CreatorLayer> > >(geode::modifier::ModifyBase<geode::modifier::ModifyDerive<hook8<(anonymous namespace)::hook8Parent>, CreatorLayer> >&)::{lambda()#1}, std::__ndk1::allocator<hook8<(anonymous namespace)::hook8Parent>::onModify<geode::modifier::ModifyBase<geode::modifier::ModifyDerive<hook8<(anonymous namespace)::hook8Parent>, CreatorLayer> > >(geode::modifier::ModifyBase<geode::modifier::ModifyDerive<hook8<(anonymous namespace)::hook8Parent>, CreatorLayer> >&)::{lambda()#1}>, void ()>::__clone(std::__ndk1::__function::__base<void ()>*) const
FUNC 14cb28 74 0 std::__ndk1::__function::__func<hook8<(anonymous namespace)::hook8Parent>::onModify<geode::modifier::ModifyBase<geode::modifier::ModifyDerive<hook8<(anonymous namespace)::hook8Parent>, CreatorLayer> > >(geode::modifier::ModifyBase<geode::modifier::ModifyDerive<hook8<(anonymous namespace)::hook8Parent>, CreatorLayer> >&)::{lambda()#1}, std::__ndk1::allocator<hook8<(anonymous namespace)::hook8Parent>::onModify<geode::modifier::ModifyBase<geode::modifier::ModifyDerive<hook8<(anonymous namespace)::hook8Parent>, CreatorLayer> > >(geode::modifier::ModifyBase<geode::modifier::ModifyDerive<hook8<(anonymous namespace)::hook8Parent>, CreatorLayer> >&)::{lambda()#1}>, void ()>::destroy()
FUNC 14cb9c 74 0 std::__ndk1::__function::__func<hook8<(anonymous namespace)::hook8Parent>::onModify<geode::modifier::ModifyBase<geode::modifier::ModifyDerive<hook8<(anonymous namespace)::hook8Parent>, CreatorLayer> > >(geode::modifier::ModifyBase<geode::modifier::ModifyDerive<hook8<(anonymous namespace)::hook8Parent>, CreatorLayer> >&)::{lambda()#1}, std::__ndk1::allocator<hook8<(anonymous namespace)::hook8Parent>::onModify<geode::modifier::ModifyBase<geode::modifier::ModifyDerive<hook8<(anonymous namespace)::hook8Parent>, CreatorLayer> > >(geode::modifier::ModifyBase<geode::modifier::ModifyDerive<hook8<(anonymous namespace)::hook8Parent>, CreatorLayer> >&)::{lambda()#1}>, void ()>::destroy_deallocate()
FUNC 14cc10 124 0 std::__ndk1::__function::__func<hook8<(anonymous namespace)::hook8Parent>::onModify<geode::modifier::ModifyBase<geode::modifier::ModifyDerive<hook8<(anonymous namespace)::hook8Parent>, CreatorLayer> > >(geode::modifier::ModifyBase<geode::modifier::ModifyDerive<hook8<(anonymous namespace)::hook8Parent>, CreatorLayer> >&)::{lambda()#1}, std::__ndk1::allocator<hook8<(anonymous namespace)::hook8Parent>::onModify<geode::modifier::ModifyBase<geode::modifier::ModifyDerive<hook8<(anonymous namespace)::hook8Parent>, CreatorLayer> > >(geode::modifier::ModifyBase<geode::modifier::ModifyDerive<hook8<(anonymous namespace)::hook8Parent>, CreatorLayer> >&)::{lambda()#1}>, void ()>::operator()()
FUNC 14cd34 1c 0 std::__ndk1::__function::__func<hook8<(anonymous namespace)::hook8Parent>::onModify<geode::modifier::ModifyBase<geode::modifier::ModifyDerive<hook8<(anonymous namespace)::hook8Parent>, CreatorLayer> > >(geode::modifier::ModifyBase<geode::modifier::ModifyDerive<hook8<(anonymous namespace)::hook8Parent>, CreatorLayer> >&)::{lambda()#1}, std::__ndk1::allocator<hook8<(anonymous namespace)::hook8Parent>::onModify<geode::modifier::ModifyBase<geode::modifier::ModifyDerive<hook8<(anonymous namespace)::hook8Parent>, CreatorLayer> > >(geode::modifier::ModifyBase<geode::modifier::ModifyDerive<hook8<(anonymous namespace)::hook8Parent>, CreatorLayer> >&)::{lambda()#1}>, void ()>::target(std::type_info const&) const
FUNC 14cd50 c 0 std::__ndk1::__function::__func<hook8<(anonymous namespace)::hook8Parent>::onModify<geode::modifier::ModifyBase<geode::modifier::ModifyDerive<hook8<(anonymous namespace)::hook8Parent>, CreatorLayer> > >(geode::modifier::ModifyBase<geode::modifier::ModifyDerive<hook8<(anonymous namespace)::hook8Parent>, CreatorLayer> >&)::{lambda()#1}, std::__ndk1::allocator<hook8<(anonymous namespace)::hook8Parent>::onModify<geode::modifier::ModifyBase<geode::modifier::ModifyDerive<hook8<(anonymous namespace)::hook8Parent>, CreatorLayer> > >(geode::modifier::ModifyBase<geode::modifier::ModifyDerive<hook8<(anonymous namespace)::hook8Parent>, CreatorLayer> >&)::{lambda()#1}>, void ()>::target_type() const
FUNC 14cd5c 34 0 geode::modifier::AsStaticFunction_onTreasureRoom<hook8<(anonymous namespace)::hook8Parent>, void (hook8<(anonymous namespace)::hook8Parent>::*)(cocos2d::CCObject*)>::Impl<void (hook8<(anonymous namespace)::hook8Parent>::*)(cocos2d::CCObject*)>::function(hook8<(anonymous namespace)::hook8Parent>*, cocos2d::CCObject*)
FUNC 14cd90 6d8 0 __cxx_global_var_init.30
FUNC 14d468 1c 0 geode::modifier::ModifyBase<geode::modifier::ModifyDerive<hook8<(anonymous namespace)::hook8Parent>, CreatorLayer> >::~ModifyBase()
FUNC 14d484 3dc 0 geode::modifier::ModifyDerive<hook8<(anonymous namespace)::hook8Parent>, CreatorLayer>::apply()
FUNC 14d860 4 0 geode::modifier::ModifyBase<geode::modifier::ModifyDerive<hook8<(anonymous namespace)::hook8Parent>, CreatorLayer> >::apply()
FUNC 14d864 150 0 geode::modifier::ModifyBase<geode::modifier::ModifyDerive<hook8<(anonymous namespace)::hook8Parent>, CreatorLayer> >::getHook(std::__ndk1::basic_string_view<char, std::__ndk1::char_traits<char> >)
FUNC 14d9b4 74 0 hook8<(anonymous namespace)::hook8Parent>::onModify<geode::modifier::ModifyBase<geode::modifier::ModifyDerive<hook8<(anonymous namespace)::hook8Parent>, CreatorLayer> > >(geode::modifier::ModifyBase<geode::modifier::ModifyDerive<hook8<(anonymous namespace)::hook8Parent>, CreatorLayer> >&)::{lambda()#1}::~{lambda()#1}()
FUNC 14da28 80 0 std::__ndk1::__function::__func<hook8<(anonymous namespace)::hook8Parent>::onModify<geode::modifier::ModifyBase<geode::modifier::ModifyDerive<hook8<(anonymous namespace)::hook8Parent>, CreatorLayer> > >(geode::modifier::ModifyBase<geode::modifier::ModifyDerive<hook8<(anonymous namespace)::hook8Parent>, CreatorLayer> >&)::{lambda()#1}, std::__ndk1::allocator<hook8<(anonymous namespace)::hook8Parent>::onModify<geode::modifier::ModifyBase<geode::modifier::ModifyDerive<hook8<(anonymous namespace)::hook8Parent>, CreatorLayer> > >(geode::modifier::ModifyBase<geode::modifier::ModifyDerive<hook8<(anonymous namespace)::hook8Parent>, CreatorLayer> >&)::{lambda()#1}>, void ()>::~__func()
FUNC 14daa8 80 0 std::__ndk1::__function::__func<hook8<(anonymous namespace)::hook8Parent>::onModify<geode::modifier::ModifyBase<geode::modifier::ModifyDerive<hook8<(anonymous namespace)::hook8Parent>, CreatorLayer> > >(geode::modifier::ModifyBase<geode::modifier::ModifyDerive<hook8<(anonymous namespace)::hook8Parent>, CreatorLayer> >&)::{lambda()#1}, std::__ndk1::allocator<hook8<(anonymous namespace)::hook8Parent>::onModify<geode::modifier::ModifyBase<geode::modifier::ModifyDerive<hook8<(anonymous namespace)::hook8Parent>, CreatorLayer> > >(geode::modifier::ModifyBase<geode::modifier::ModifyDerive<hook8<(anonymous namespace)::hook8Parent>, CreatorLayer> >&)::{lambda()#1}>, void ()>::~__func()
FUNC 14db28 d4 0 std::__ndk1::__function::__func<hook8<(anonymous namespace)::hook8Parent>::onModify<geode::modifier::ModifyBase<geode::modifier::ModifyDerive<hook8<(anonymous namespace)::hook8Parent>, CreatorLayer> > >(geode::modifier::ModifyBase<geode::modifier::ModifyDerive<hook8<(anonymous namespace)::hook8Parent>, CreatorLayer> >&)::{lambda()#1}, std::__ndk1::allocator<hook8<(anonymous namespace)::hook8Parent>::onModify<geode::modifier::ModifyBase<geode::modifier::ModifyDerive<hook8<(anonymous namespace)::hook8Parent>, CreatorLayer> > >(geode::modifier::ModifyBase<geode::modifier::ModifyDerive<hook8<(anonymous namespace)::hook8Parent>, CreatorLayer> >&)::{lambda()#1}>, void ()>::__clone() const
FUNC 14dbfc c0 0 std::__ndk1::__function::__func<hook8<(anonymous namespace)::hook8Parent>::onModify<geode::modifier::ModifyBase<geode::modifier::ModifyDerive<hook8<(anonymous namespace)::hook8Parent>, CreatorLayer> > >(geode::modifier::ModifyBase<geode::modifier::ModifyDerive<hook8<(anonymous namespace)::hook8Parent>, CreatorLayer> >&)::{lambda()#1}, std::__ndk1::allocator<hook8<(anonymous namespace)::hook8Parent>::onModify<geode::modifier::ModifyBase<geode::modifier::ModifyDerive<hook8<(anonymous namespace)::hook8Parent>, CreatorLayer> > >(geode::modifier::ModifyBase<geode::modifier::ModifyDerive<hook8<(anonymous namespace)::hook8Parent>, CreatorLayer> >&)::{lambda()#1}>, void ()>::__clone(std::__ndk1::__function::__base<void ()>*) const
FUNC 14dcbc 74 0 std::__ndk1::__function::__func<hook8<(anonymous namespace)::hook8Parent>::onModify<geode::modifier::ModifyBase<geode::modifier::ModifyDerive<hook8<(anonymous namespace)::hook8Parent>, CreatorLayer> > >(geode::modifier::ModifyBase<geode::modifier::ModifyDerive<hook8<(anonymous namespace)::hook8Parent>, CreatorLayer> >&)::{lambda()#1}, std::__ndk1::allocator<hook8<(anonymous namespace)::hook8Parent>::onModify<geode::modifier::ModifyBase<geode::modifier::ModifyDerive<hook8<(anonymous namespace)::hook8Parent>, CreatorLayer> > >(geode::modifier::ModifyBase<geode::modifier::ModifyDerive<hook8<(anonymous namespace)::hook8Parent>, CreatorLayer> >&)::{lambda()#1}>, void ()>::destroy()
FUNC 14dd30 74 0 std::__ndk1::__function::__func<hook8<(anonymous namespace)::hook8Parent>::onModify<geode::modifier::ModifyBase<geode::modifier::ModifyDerive<hook8<(anonymous namespace)::hook8Parent>, CreatorLayer> > >(geode::modifier::ModifyBase<geode::modifier::ModifyDerive<hook8<(anonymous namespace)::hook8Parent>, CreatorLayer> >&)::{lambda()#1}, std::__ndk1::allocator<hook8<(anonymous namespace)::hook8Parent>::onModify<geode::modifier::ModifyBase<geode::modifier::ModifyDerive<hook8<(anonymous namespace)::hook8Parent>, CreatorLayer> > >(geode::modifier::ModifyBase<geode::modifier::ModifyDerive<hook8<(anonymous namespace)::hook8Parent>, CreatorLayer> >&)::{lambda()#1}>, void ()>::destroy_deallocate()
FUNC 14dda4 14c 0 std::__ndk1::__function::__func<hook8<(anonymous namespace)::hook8Parent>::onModify<geode::modifier::ModifyBase<geode::modifier::ModifyDerive<hook8<(anonymous namespace)::hook8Parent>, CreatorLayer> > >(geode::modifier::ModifyBase<geode::modifier::ModifyDerive<hook8<(anonymous namespace)::hook8Parent>, CreatorLayer> >&)::{lambda()#1}, std::__ndk1::allocator<hook8<(anonymous namespace)::hook8Parent>::onModify<geode::modifier::ModifyBase<geode::modifier::ModifyDerive<hook8<(anonymous namespace)::hook8Parent>, CreatorLayer> > >(geode::modifier::ModifyBase<geode::modifier::ModifyDerive<hook8<(anonymous namespace)::hook8Parent>, CreatorLayer> >&)::{lambda()#1}>, void ()>::operator()()
FUNC 14def0 1c 0 std::__ndk1::__function::__func<hook8<(anonymous namespace)::hook8Parent>::onModify<geode::modifier::ModifyBase<geode::modifier::ModifyDerive<hook8<(anonymous namespace)::hook8Parent>, CreatorLayer> > >(geode::modifier::ModifyBase<geode::modifier::ModifyDerive<hook8<(anonymous namespace)::hook8Parent>, CreatorLayer> >&)::{lambda()#1}, std::__ndk1::allocator<hook8<(anonymous namespace)::hook8Parent>::onModify<geode::modifier::ModifyBase<geode::modifier::ModifyDerive<hook8<(anonymous namespace)::hook8Parent>, CreatorLayer> > >(geode::modifier::ModifyBase<geode::modifier::ModifyDerive<hook8<(anonymous namespace)::hook8Parent>, CreatorLayer> >&)::{lambda()#1}>, void ()>::target(std::type_info const&) const
FUNC 14df0c c 0 std::__ndk1::__function::__func<hook8<(anonymous namespace)::hook8Parent>::onModify<geode::modifier::ModifyBase<geode::modifier::ModifyDerive<hook8<(anonymous namespace)::hook8Parent>, CreatorLayer> > >(geode::modifier::ModifyBase<geode::modifier::ModifyDerive<hook8<(anonymous namespace)::hook8Parent>, CreatorLayer> >&)::{lambda()#1}, std::__ndk1::allocator<hook8<(anonymous namespace)::hook8Parent>::onModify<geode::modifier::ModifyBase<geode::modifier::ModifyDerive<hook8<(anonymous namespace)::hook8Parent>, CreatorLayer> > >(geode::modifier::ModifyBase<geode::modifier::ModifyDerive<hook8<(anonymous namespace)::hook8Parent>, CreatorLayer> >&)::{lambda()#1}>, void ()>::target_type() const
FUNC 14df18 30 0 geode::modifier::AsStaticFunction_onSecretVault<hook8<(anonymous namespace)::hook8Parent>, void (hook8<(anonymous namespace)::hook8Parent>::*)(cocos2d::CCObject*)>::Impl<void (hook8<(anonymous namespace)::hook8Parent>::*)(cocos2d::CCObject*)>::function(hook8<(anonymous namespace)::hook8Parent>*, cocos2d::CCObject*)
FUNC 14df48 7e4 0 __cxx_global_var_init.30
FUNC 14e72c 1c 0 geode::modifier::ModifyBase<geode::modifier::ModifyDerive<hook9<(anonymous namespace)::hook9Parent>, SecretRewardsLayer> >::~ModifyBase()
FUNC 14e748 534 0 geode::modifier::ModifyDerive<hook9<(anonymous namespace)::hook9Parent>, SecretRewardsLayer>::apply()
FUNC 14ec7c 4 0 geode::modifier::ModifyBase<geode::modifier::ModifyDerive<hook9<(anonymous namespace)::hook9Parent>, SecretRewardsLayer> >::apply()
FUNC 14ec80 24 0 std::__ndk1::__function::__func<hook9<(anonymous namespace)::hook9Parent>::onModify<geode::modifier::ModifyBase<geode::modifier::ModifyDerive<hook9<(anonymous namespace)::hook9Parent>, SecretRewardsLayer> > >(geode::modifier::ModifyBase<geode::modifier::ModifyDerive<hook9<(anonymous namespace)::hook9Parent>, SecretRewardsLayer> >&)::{lambda()#1}, std::__ndk1::allocator<hook9<(anonymous namespace)::hook9Parent>::onModify<geode::modifier::ModifyBase<geode::modifier::ModifyDerive<hook9<(anonymous namespace)::hook9Parent>, SecretRewardsLayer> > >(geode::modifier::ModifyBase<geode::modifier::ModifyDerive<hook9<(anonymous namespace)::hook9Parent>, SecretRewardsLayer> >&)::{lambda()#1}>, void ()>::~__func()
FUNC 14eca4 40 0 std::__ndk1::__function::__func<hook9<(anonymous namespace)::hook9Parent>::onModify<geode::modifier::ModifyBase<geode::modifier::ModifyDerive<hook9<(anonymous namespace)::hook9Parent>, SecretRewardsLayer> > >(geode::modifier::ModifyBase<geode::modifier::ModifyDerive<hook9<(anonymous namespace)::hook9Parent>, SecretRewardsLayer> >&)::{lambda()#1}, std::__ndk1::allocator<hook9<(anonymous namespace)::hook9Parent>::onModify<geode::modifier::ModifyBase<geode::modifier::ModifyDerive<hook9<(anonymous namespace)::hook9Parent>, SecretRewardsLayer> > >(geode::modifier::ModifyBase<geode::modifier::ModifyDerive<hook9<(anonymous namespace)::hook9Parent>, SecretRewardsLayer> >&)::{lambda()#1}>, void ()>::~__func()
FUNC 14ece4 b0 0 std::__ndk1::__function::__func<hook9<(anonymous namespace)::hook9Parent>::onModify<geode::modifier::ModifyBase<geode::modifier::ModifyDerive<hook9<(anonymous namespace)::hook9Parent>, SecretRewardsLayer> > >(geode::modifier::ModifyBase<geode::modifier::ModifyDerive<hook9<(anonymous namespace)::hook9Parent>, SecretRewardsLayer> >&)::{lambda()#1}, std::__ndk1::allocator<hook9<(anonymous namespace)::hook9Parent>::onModify<geode::modifier::ModifyBase<geode::modifier::ModifyDerive<hook9<(anonymous namespace)::hook9Parent>, SecretRewardsLayer> > >(geode::modifier::ModifyBase<geode::modifier::ModifyDerive<hook9<(anonymous namespace)::hook9Parent>, SecretRewardsLayer> >&)::{lambda()#1}>, void ()>::__clone() const
FUNC 14ed94 98 0 std::__ndk1::__function::__func<hook9<(anonymous namespace)::hook9Parent>::onModify<geode::modifier::ModifyBase<geode::modifier::ModifyDerive<hook9<(anonymous namespace)::hook9Parent>, SecretRewardsLayer> > >(geode::modifier::ModifyBase<geode::modifier::ModifyDerive<hook9<(anonymous namespace)::hook9Parent>, SecretRewardsLayer> >&)::{lambda()#1}, std::__ndk1::allocator<hook9<(anonymous namespace)::hook9Parent>::onModify<geode::modifier::ModifyBase<geode::modifier::ModifyDerive<hook9<(anonymous namespace)::hook9Parent>, SecretRewardsLayer> > >(geode::modifier::ModifyBase<geode::modifier::ModifyDerive<hook9<(anonymous namespace)::hook9Parent>, SecretRewardsLayer> >&)::{lambda()#1}>, void ()>::__clone(std::__ndk1::__function::__base<void ()>*) const
FUNC 14ee2c 18 0 std::__ndk1::__function::__func<hook9<(anonymous namespace)::hook9Parent>::onModify<geode::modifier::ModifyBase<geode::modifier::ModifyDerive<hook9<(anonymous namespace)::hook9Parent>, SecretRewardsLayer> > >(geode::modifier::ModifyBase<geode::modifier::ModifyDerive<hook9<(anonymous namespace)::hook9Parent>, SecretRewardsLayer> >&)::{lambda()#1}, std::__ndk1::allocator<hook9<(anonymous namespace)::hook9Parent>::onModify<geode::modifier::ModifyBase<geode::modifier::ModifyDerive<hook9<(anonymous namespace)::hook9Parent>, SecretRewardsLayer> > >(geode::modifier::ModifyBase<geode::modifier::ModifyDerive<hook9<(anonymous namespace)::hook9Parent>, SecretRewardsLayer> >&)::{lambda()#1}>, void ()>::destroy()
FUNC 14ee44 34 0 std::__ndk1::__function::__func<hook9<(anonymous namespace)::hook9Parent>::onModify<geode::modifier::ModifyBase<geode::modifier::ModifyDerive<hook9<(anonymous namespace)::hook9Parent>, SecretRewardsLayer> > >(geode::modifier::ModifyBase<geode::modifier::ModifyDerive<hook9<(anonymous namespace)::hook9Parent>, SecretRewardsLayer> >&)::{lambda()#1}, std::__ndk1::allocator<hook9<(anonymous namespace)::hook9Parent>::onModify<geode::modifier::ModifyBase<geode::modifier::ModifyDerive<hook9<(anonymous namespace)::hook9Parent>, SecretRewardsLayer> > >(geode::modifier::ModifyBase<geode::modifier::ModifyDerive<hook9<(anonymous namespace)::hook9Parent>, SecretRewardsLayer> >&)::{lambda()#1}>, void ()>::destroy_deallocate()
FUNC 14ee78 b0 0 std::__ndk1::__function::__func<hook9<(anonymous namespace)::hook9Parent>::onModify<geode::modifier::ModifyBase<geode::modifier::ModifyDerive<hook9<(anonymous namespace)::hook9Parent>, SecretRewardsLayer> > >(geode::modifier::ModifyBase<geode::modifier::ModifyDerive<hook9<(anonymous namespace)::hook9Parent>, SecretRewardsLayer> >&)::{lambda()#1}, std::__ndk1::allocator<hook9<(anonymous namespace)::hook9Parent>::onModify<geode::modifier::ModifyBase<geode::modifier::ModifyDerive<hook9<(anonymous namespace)::hook9Parent>, SecretRewardsLayer> > >(geode::modifier::ModifyBase<geode::modifier::ModifyDerive<hook9<(anonymous namespace)::hook9Parent>, SecretRewardsLayer> >&)::{lambda()#1}>, void ()>::operator()()
FUNC 14ef28 1c 0 std::__ndk1::__function::__func<hook9<(anonymous namespace)::hook9Parent>::onModify<geode::modifier::ModifyBase<geode::modifier::ModifyDerive<hook9<(anonymous namespace)::hook9Parent>, SecretRewardsLayer> > >(geode::modifier::ModifyBase<geode::modifier::ModifyDerive<hook9<(anonymous namespace)::hook9Parent>, SecretRewardsLayer> >&)::{lambda()#1}, std::__ndk1::allocator<hook9<(anonymous namespace)::hook9Parent>::onModify<geode::modifier::ModifyBase<geode::modifier::ModifyDerive<hook9<(anonymous namespace)::hook9Parent>, SecretRewardsLayer> > >(geode::modifier::ModifyBase<geode::modifier::ModifyDerive<hook9<(anonymous namespace)::hook9Parent>, SecretRewardsLayer> >&)::{lambda()#1}>, void ()>::target(std::type_info const&) const
FUNC 14ef44 c 0 std::__ndk1::__function::__func<hook9<(anonymous namespace)::hook9Parent>::onModify<geode::modifier::ModifyBase<geode::modifier::ModifyDerive<hook9<(anonymous namespace)::hook9Parent>, SecretRewardsLayer> > >(geode::modifier::ModifyBase<geode::modifier::ModifyDerive<hook9<(anonymous namespace)::hook9Parent>, SecretRewardsLayer> >&)::{lambda()#1}, std::__ndk1::allocator<hook9<(anonymous namespace)::hook9Parent>::onModify<geode::modifier::ModifyBase<geode::modifier::ModifyDerive<hook9<(anonymous namespace)::hook9Parent>, SecretRewardsLayer> > >(geode::modifier::ModifyBase<geode::modifier::ModifyDerive<hook9<(anonymous namespace)::hook9Parent>, SecretRewardsLayer> >&)::{lambda()#1}>, void ()>::target_type() const
FUNC 14ef50 184 0 geode::Hook::create<void (*)(hook9<(anonymous namespace)::hook9Parent>*, cocos2d::CCObject*)>(void*, void (*)(hook9<(anonymous namespace)::hook9Parent>*, cocos2d::CCObject*), std::__ndk1::basic_string<char, std::__ndk1::char_traits<char>, std::__ndk1::allocator<char> > const&, tulip::hook::TulipConvention, tulip::hook::HookMetadata const&)
FUNC 14f0d4 130 0 geode::modifier::AsStaticFunction_onGoldChest<hook9<(anonymous namespace)::hook9Parent>, void (hook9<(anonymous namespace)::hook9Parent>::*)(cocos2d::CCObject*)>::Impl<void (hook9<(anonymous namespace)::hook9Parent>::*)(cocos2d::CCObject*)>::function(hook9<(anonymous namespace)::hook9Parent>*, cocos2d::CCObject*)
FUNC 14f204 12c 0 geode::modifier::AsStaticFunction_onSelectItem<hook9<(anonymous namespace)::hook9Parent>, void (hook9<(anonymous namespace)::hook9Parent>::*)(cocos2d::CCObject*)>::Impl<void (hook9<(anonymous namespace)::hook9Parent>::*)(cocos2d::CCObject*)>::function(hook9<(anonymous namespace)::hook9Parent>*, cocos2d::CCObject*)
FUNC 14f330 400 0 __cxx_global_var_init.30
FUNC 14f730 1c 0 geode::modifier::ModifyBase<geode::modifier::ModifyDerive<hook13<(anonymous namespace)::hook13Parent>, PlayLayer> >::~ModifyBase()
FUNC 14f74c 9fc 0 geode::modifier::ModifyDerive<hook13<(anonymous namespace)::hook13Parent>, PlayLayer>::apply()
FUNC 150148 4 0 geode::modifier::ModifyBase<geode::modifier::ModifyDerive<hook13<(anonymous namespace)::hook13Parent>, PlayLayer> >::apply()
FUNC 15014c 6c 0 geode::addresser::getVirtual<void (PlayLayer::*)(float)>(void (PlayLayer::*)(float))
FUNC 1501b8 184 0 geode::modifier::AsStaticFunction_postUpdate<hook13<(anonymous namespace)::hook13Parent>, void (hook13<(anonymous namespace)::hook13Parent>::*)(float)>::Impl<void (hook13<(anonymous namespace)::hook13Parent>::*)(float)>::function(hook13<(anonymous namespace)::hook13Parent>*, float)
FUNC 15033c 18c 0 geode::modifier::AsStaticFunction_addObject<hook13<(anonymous namespace)::hook13Parent>, void (hook13<(anonymous namespace)::hook13Parent>::*)(GameObject*)>::Impl<void (hook13<(anonymous namespace)::hook13Parent>::*)(GameObject*)>::function(hook13<(anonymous namespace)::hook13Parent>*, GameObject*)
FUNC 1504c8 d4 0 geode::modifier::AsStaticFunction_init<hook13<(anonymous namespace)::hook13Parent>, bool (hook13<(anonymous namespace)::hook13Parent>::*)(GJGameLevel*, bool, bool)>::Impl<bool (hook13<(anonymous namespace)::hook13Parent>::*)(GJGameLevel*, bool, bool)>::function(hook13<(anonymous namespace)::hook13Parent>*, GJGameLevel*, bool, bool)
FUNC 15059c 18c 0 geode::modifier::FieldIntermediate<hook13<(anonymous namespace)::hook13Parent>, PlayLayer>::operator->()
FUNC 150728 18 0 geode::modifier::FieldIntermediate<hook13<(anonymous namespace)::hook13Parent>, PlayLayer>::fieldDestructor(void*)
FUNC 150740 14 0 std::__ndk1::vector<GameObject*, std::__ndk1::allocator<GameObject*> >::__throw_length_error[abi:ne180000]() const
FUNC 150754 678 0 __cxx_global_var_init.30
FUNC 150dcc 1c 0 geode::modifier::ModifyBase<geode::modifier::ModifyDerive<hook8<(anonymous namespace)::hook8Parent>, GJBaseGameLayer> >::~ModifyBase()
FUNC 150de8 478 0 geode::modifier::ModifyDerive<hook8<(anonymous namespace)::hook8Parent>, GJBaseGameLayer>::apply()
FUNC 151260 4 0 geode::modifier::ModifyBase<geode::modifier::ModifyDerive<hook8<(anonymous namespace)::hook8Parent>, GJBaseGameLayer> >::apply()
FUNC 151264 74 0 hook8<(anonymous namespace)::hook8Parent>::onModify<geode::modifier::ModifyBase<geode::modifier::ModifyDerive<hook8<(anonymous namespace)::hook8Parent>, GJBaseGameLayer> > >(geode::modifier::ModifyBase<geode::modifier::ModifyDerive<hook8<(anonymous namespace)::hook8Parent>, GJBaseGameLayer> >&)::{lambda()#1}::~{lambda()#1}()
FUNC 1512d8 80 0 std::__ndk1::__function::__func<hook8<(anonymous namespace)::hook8Parent>::onModify<geode::modifier::ModifyBase<geode::modifier::ModifyDerive<hook8<(anonymous namespace)::hook8Parent>, GJBaseGameLayer> > >(geode::modifier::ModifyBase<geode::modifier::ModifyDerive<hook8<(anonymous namespace)::hook8Parent>, GJBaseGameLayer> >&)::{lambda()#1}, std::__ndk1::allocator<hook8<(anonymous namespace)::hook8Parent>::onModify<geode::modifier::ModifyBase<geode::modifier::ModifyDerive<hook8<(anonymous namespace)::hook8Parent>, GJBaseGameLayer> > >(geode::modifier::ModifyBase<geode::modifier::ModifyDerive<hook8<(anonymous namespace)::hook8Parent>, GJBaseGameLayer> >&)::{lambda()#1}>, void ()>::~__func()
FUNC 151358 80 0 std::__ndk1::__function::__func<hook8<(anonymous namespace)::hook8Parent>::onModify<geode::modifier::ModifyBase<geode::modifier::ModifyDerive<hook8<(anonymous namespace)::hook8Parent>, GJBaseGameLayer> > >(geode::modifier::ModifyBase<geode::modifier::ModifyDerive<hook8<(anonymous namespace)::hook8Parent>, GJBaseGameLayer> >&)::{lambda()#1}, std::__ndk1::allocator<hook8<(anonymous namespace)::hook8Parent>::onModify<geode::modifier::ModifyBase<geode::modifier::ModifyDerive<hook8<(anonymous namespace)::hook8Parent>, GJBaseGameLayer> > >(geode::modifier::ModifyBase<geode::modifier::ModifyDerive<hook8<(anonymous namespace)::hook8Parent>, GJBaseGameLayer> >&)::{lambda()#1}>, void ()>::~__func()
FUNC 1513d8 d4 0 std::__ndk1::__function::__func<hook8<(anonymous namespace)::hook8Parent>::onModify<geode::modifier::ModifyBase<geode::modifier::ModifyDerive<hook8<(anonymous namespace)::hook8Parent>, GJBaseGameLayer> > >(geode::modifier::ModifyBase<geode::modifier::ModifyDerive<hook8<(anonymous namespace)::hook8Parent>, GJBaseGameLayer> >&)::{lambda()#1}, std::__ndk1::allocator<hook8<(anonymous namespace)::hook8Parent>::onModify<geode::modifier::ModifyBase<geode::modifier::ModifyDerive<hook8<(anonymous namespace)::hook8Parent>, GJBaseGameLayer> > >(geode::modifier::ModifyBase<geode::modifier::ModifyDerive<hook8<(anonymous namespace)::hook8Parent>, GJBaseGameLayer> >&)::{lambda()#1}>, void ()>::__clone() const
FUNC 1514ac c0 0 std::__ndk1::__function::__func<hook8<(anonymous namespace)::hook8Parent>::onModify<geode::modifier::ModifyBase<geode::modifier::ModifyDerive<hook8<(anonymous namespace)::hook8Parent>, GJBaseGameLayer> > >(geode::modifier::ModifyBase<geode::modifier::ModifyDerive<hook8<(anonymous namespace)::hook8Parent>, GJBaseGameLayer> >&)::{lambda()#1}, std::__ndk1::allocator<hook8<(anonymous namespace)::hook8Parent>::onModify<geode::modifier::ModifyBase<geode::modifier::ModifyDerive<hook8<(anonymous namespace)::hook8Parent>, GJBaseGameLayer> > >(geode::modifier::ModifyBase<geode::modifier::ModifyDerive<hook8<(anonymous namespace)::hook8Parent>, GJBaseGameLayer> >&)::{lambda()#1}>, void ()>::__clone(std::__ndk1::__function::__base<void ()>*) const
FUNC 15156c 74 0 std::__ndk1::__function::__func<hook8<(anonymous namespace)::hook8Parent>::onModify<geode::modifier::ModifyBase<geode::modifier::ModifyDerive<hook8<(anonymous namespace)::hook8Parent>, GJBaseGameLayer> > >(geode::modifier::ModifyBase<geode::modifier::ModifyDerive<hook8<(anonymous namespace)::hook8Parent>, GJBaseGameLayer> >&)::{lambda()#1}, std::__ndk1::allocator<hook8<(anonymous namespace)::hook8Parent>::onModify<geode::modifier::ModifyBase<geode::modifier::ModifyDerive<hook8<(anonymous namespace)::hook8Parent>, GJBaseGameLayer> > >(geode::modifier::ModifyBase<geode::modifier::ModifyDerive<hook8<(anonymous namespace)::hook8Parent>, GJBaseGameLayer> >&)::{lambda()#1}>, void ()>::destroy()
FUNC 1515e0 74 0 std::__ndk1::__function::__func<hook8<(anonymous namespace)::hook8Parent>::onModify<geode::modifier::ModifyBase<geode::modifier::ModifyDerive<hook8<(anonymous namespace)::hook8Parent>, GJBaseGameLayer> > >(geode::modifier::ModifyBase<geode::modifier::ModifyDerive<hook8<(anonymous namespace)::hook8Parent>, GJBaseGameLayer> >&)::{lambda()#1}, std::__ndk1::allocator<hook8<(anonymous namespace)::hook8Parent>::onModify<geode::modifier::ModifyBase<geode::modifier::ModifyDerive<hook8<(anonymous namespace)::hook8Parent>, GJBaseGameLayer> > >(geode::modifier::ModifyBase<geode::modifier::ModifyDerive<hook8<(anonymous namespace)::hook8Parent>, GJBaseGameLayer> >&)::{lambda()#1}>, void ()>::destroy_deallocate()
FUNC 151654 120 0 std::__ndk1::__function::__func<hook8<(anonymous namespace)::hook8Parent>::onModify<geode::modifier::ModifyBase<geode::modifier::ModifyDerive<hook8<(anonymous namespace)::hook8Parent>, GJBaseGameLayer> > >(geode::modifier::ModifyBase<geode::modifier::ModifyDerive<hook8<(anonymous namespace)::hook8Parent>, GJBaseGameLayer> >&)::{lambda()#1}, std::__ndk1::allocator<hook8<(anonymous namespace)::hook8Parent>::onModify<geode::modifier::ModifyBase<geode::modifier::ModifyDerive<hook8<(anonymous namespace)::hook8Parent>, GJBaseGameLayer> > >(geode::modifier::ModifyBase<geode::modifier::ModifyDerive<hook8<(anonymous namespace)::hook8Parent>, GJBaseGameLayer> >&)::{lambda()#1}>, void ()>::operator()()
FUNC 151774 1c 0 std::__ndk1::__function::__func<hook8<(anonymous namespace)::hook8Parent>::onModify<geode::modifier::ModifyBase<geode::modifier::ModifyDerive<hook8<(anonymous namespace)::hook8Parent>, GJBaseGameLayer> > >(geode::modifier::ModifyBase<geode::modifier::ModifyDerive<hook8<(anonymous namespace)::hook8Parent>, GJBaseGameLayer> >&)::{lambda()#1}, std::__ndk1::allocator<hook8<(anonymous namespace)::hook8Parent>::onModify<geode::modifier::ModifyBase<geode::modifier::ModifyDerive<hook8<(anonymous namespace)::hook8Parent>, GJBaseGameLayer> > >(geode::modifier::ModifyBase<geode::modifier::ModifyDerive<hook8<(anonymous namespace)::hook8Parent>, GJBaseGameLayer> >&)::{lambda()#1}>, void ()>::target(std::type_info const&) const
FUNC 151790 c 0 std::__ndk1::__function::__func<hook8<(anonymous namespace)::hook8Parent>::onModify<geode::modifier::ModifyBase<geode::modifier::ModifyDerive<hook8<(anonymous namespace)::hook8Parent>, GJBaseGameLayer> > >(geode::modifier::ModifyBase<geode::modifier::ModifyDerive<hook8<(anonymous namespace)::hook8Parent>, GJBaseGameLayer> >&)::{lambda()#1}, std::__ndk1::allocator<hook8<(anonymous namespace)::hook8Parent>::onModify<geode::modifier::ModifyBase<geode::modifier::ModifyDerive<hook8<(anonymous namespace)::hook8Parent>, GJBaseGameLayer> > >(geode::modifier::ModifyBase<geode::modifier::ModifyDerive<hook8<(anonymous namespace)::hook8Parent>, GJBaseGameLayer> >&)::{lambda()#1}>, void ()>::target_type() const
FUNC 15179c 150 0 geode::modifier::AsStaticFunction_collisionCheckObjects<hook8<(anonymous namespace)::hook8Parent>, void (hook8<(anonymous namespace)::hook8Parent>::*)(PlayerObject*, gd::vector<GameObject*>*, int, float)>::Impl<void (hook8<(anonymous namespace)::hook8Parent>::*)(PlayerObject*, gd::vector<GameObject*>*, int, float)>::function(hook8<(anonymous namespace)::hook8Parent>*, PlayerObject*, gd::vector<GameObject*>*, int, float)
FUNC 1518ec 674 0 __cxx_global_var_init.30
FUNC 151f60 1c 0 geode::modifier::ModifyBase<geode::modifier::ModifyDerive<hook8<(anonymous namespace)::hook8Parent>, ProfilePage> >::~ModifyBase()
FUNC 151f7c 3d8 0 geode::modifier::ModifyDerive<hook8<(anonymous namespace)::hook8Parent>, ProfilePage>::apply()
FUNC 152354 4 0 geode::modifier::ModifyBase<geode::modifier::ModifyDerive<hook8<(anonymous namespace)::hook8Parent>, ProfilePage> >::apply()
FUNC 152358 74 0 hook8<(anonymous namespace)::hook8Parent>::onModify<geode::modifier::ModifyBase<geode::modifier::ModifyDerive<hook8<(anonymous namespace)::hook8Parent>, ProfilePage> > >(geode::modifier::ModifyBase<geode::modifier::ModifyDerive<hook8<(anonymous namespace)::hook8Parent>, ProfilePage> >&)::{lambda()#1}::~{lambda()#1}()
FUNC 1523cc 80 0 std::__ndk1::__function::__func<hook8<(anonymous namespace)::hook8Parent>::onModify<geode::modifier::ModifyBase<geode::modifier::ModifyDerive<hook8<(anonymous namespace)::hook8Parent>, ProfilePage> > >(geode::modifier::ModifyBase<geode::modifier::ModifyDerive<hook8<(anonymous namespace)::hook8Parent>, ProfilePage> >&)::{lambda()#1}, std::__ndk1::allocator<hook8<(anonymous namespace)::hook8Parent>::onModify<geode::modifier::ModifyBase<geode::modifier::ModifyDerive<hook8<(anonymous namespace)::hook8Parent>, ProfilePage> > >(geode::modifier::ModifyBase<geode::modifier::ModifyDerive<hook8<(anonymous namespace)::hook8Parent>, ProfilePage> >&)::{lambda()#1}>, void ()>::~__func()
FUNC 15244c 80 0 std::__ndk1::__function::__func<hook8<(anonymous namespace)::hook8Parent>::onModify<geode::modifier::ModifyBase<geode::modifier::ModifyDerive<hook8<(anonymous namespace)::hook8Parent>, ProfilePage> > >(geode::modifier::ModifyBase<geode::modifier::ModifyDerive<hook8<(anonymous namespace)::hook8Parent>, ProfilePage> >&)::{lambda()#1}, std::__ndk1::allocator<hook8<(anonymous namespace)::hook8Parent>::onModify<geode::modifier::ModifyBase<geode::modifier::ModifyDerive<hook8<(anonymous namespace)::hook8Parent>, ProfilePage> > >(geode::modifier::ModifyBase<geode::modifier::ModifyDerive<hook8<(anonymous namespace)::hook8Parent>, ProfilePage> >&)::{lambda()#1}>, void ()>::~__func()
FUNC 1524cc d4 0 std::__ndk1::__function::__func<hook8<(anonymous namespace)::hook8Parent>::onModify<geode::modifier::ModifyBase<geode::modifier::ModifyDerive<hook8<(anonymous namespace)::hook8Parent>, ProfilePage> > >(geode::modifier::ModifyBase<geode::modifier::ModifyDerive<hook8<(anonymous namespace)::hook8Parent>, ProfilePage> >&)::{lambda()#1}, std::__ndk1::allocator<hook8<(anonymous namespace)::hook8Parent>::onModify<geode::modifier::ModifyBase<geode::modifier::ModifyDerive<hook8<(anonymous namespace)::hook8Parent>, ProfilePage> > >(geode::modifier::ModifyBase<geode::modifier::ModifyDerive<hook8<(anonymous namespace)::hook8Parent>, ProfilePage> >&)::{lambda()#1}>, void ()>::__clone() const
FUNC 1525a0 c0 0 std::__ndk1::__function::__func<hook8<(anonymous namespace)::hook8Parent>::onModify<geode::modifier::ModifyBase<geode::modifier::ModifyDerive<hook8<(anonymous namespace)::hook8Parent>, ProfilePage> > >(geode::modifier::ModifyBase<geode::modifier::ModifyDerive<hook8<(anonymous namespace)::hook8Parent>, ProfilePage> >&)::{lambda()#1}, std::__ndk1::allocator<hook8<(anonymous namespace)::hook8Parent>::onModify<geode::modifier::ModifyBase<geode::modifier::ModifyDerive<hook8<(anonymous namespace)::hook8Parent>, ProfilePage> > >(geode::modifier::ModifyBase<geode::modifier::ModifyDerive<hook8<(anonymous namespace)::hook8Parent>, ProfilePage> >&)::{lambda()#1}>, void ()>::__clone(std::__ndk1::__function::__base<void ()>*) const
FUNC 152660 74 0 std::__ndk1::__function::__func<hook8<(anonymous namespace)::hook8Parent>::onModify<geode::modifier::ModifyBase<geode::modifier::ModifyDerive<hook8<(anonymous namespace)::hook8Parent>, ProfilePage> > >(geode::modifier::ModifyBase<geode::modifier::ModifyDerive<hook8<(anonymous namespace)::hook8Parent>, ProfilePage> >&)::{lambda()#1}, std::__ndk1::allocator<hook8<(anonymous namespace)::hook8Parent>::onModify<geode::modifier::ModifyBase<geode::modifier::ModifyDerive<hook8<(anonymous namespace)::hook8Parent>, ProfilePage> > >(geode::modifier::ModifyBase<geode::modifier::ModifyDerive<hook8<(anonymous namespace)::hook8Parent>, ProfilePage> >&)::{lambda()#1}>, void ()>::destroy()
FUNC 1526d4 74 0 std::__ndk1::__function::__func<hook8<(anonymous namespace)::hook8Parent>::onModify<geode::modifier::ModifyBase<geode::modifier::ModifyDerive<hook8<(anonymous namespace)::hook8Parent>, ProfilePage> > >(geode::modifier::ModifyBase<geode::modifier::ModifyDerive<hook8<(anonymous namespace)::hook8Parent>, ProfilePage> >&)::{lambda()#1}, std::__ndk1::allocator<hook8<(anonymous namespace)::hook8Parent>::onModify<geode::modifier::ModifyBase<geode::modifier::ModifyDerive<hook8<(anonymous namespace)::hook8Parent>, ProfilePage> > >(geode::modifier::ModifyBase<geode::modifier::ModifyDerive<hook8<(anonymous namespace)::hook8Parent>, ProfilePage> >&)::{lambda()#1}>, void ()>::destroy_deallocate()
FUNC 152748 120 0 std::__ndk1::__function::__func<hook8<(anonymous namespace)::hook8Parent>::onModify<geode::modifier::ModifyBase<geode::modifier::ModifyDerive<hook8<(anonymous namespace)::hook8Parent>, ProfilePage> > >(geode::modifier::ModifyBase<geode::modifier::ModifyDerive<hook8<(anonymous namespace)::hook8Parent>, ProfilePage> >&)::{lambda()#1}, std::__ndk1::allocator<hook8<(anonymous namespace)::hook8Parent>::onModify<geode::modifier::ModifyBase<geode::modifier::ModifyDerive<hook8<(anonymous namespace)::hook8Parent>, ProfilePage> > >(geode::modifier::ModifyBase<geode::modifier::ModifyDerive<hook8<(anonymous namespace)::hook8Parent>, ProfilePage> >&)::{lambda()#1}>, void ()>::operator()()
FUNC 152868 1c 0 std::__ndk1::__function::__func<hook8<(anonymous namespace)::hook8Parent>::onModify<geode::modifier::ModifyBase<geode::modifier::ModifyDerive<hook8<(anonymous namespace)::hook8Parent>, ProfilePage> > >(geode::modifier::ModifyBase<geode::modifier::ModifyDerive<hook8<(anonymous namespace)::hook8Parent>, ProfilePage> >&)::{lambda()#1}, std::__ndk1::allocator<hook8<(anonymous namespace)::hook8Parent>::onModify<geode::modifier::ModifyBase<geode::modifier::ModifyDerive<hook8<(anonymous namespace)::hook8Parent>, ProfilePage> > >(geode::modifier::ModifyBase<geode::modifier::ModifyDerive<hook8<(anonymous namespace)::hook8Parent>, ProfilePage> >&)::{lambda()#1}>, void ()>::target(std::type_info const&) const
FUNC 152884 c 0 std::__ndk1::__function::__func<hook8<(anonymous namespace)::hook8Parent>::onModify<geode::modifier::ModifyBase<geode::modifier::ModifyDerive<hook8<(anonymous namespace)::hook8Parent>, ProfilePage> > >(geode::modifier::ModifyBase<geode::modifier::ModifyDerive<hook8<(anonymous namespace)::hook8Parent>, ProfilePage> >&)::{lambda()#1}, std::__ndk1::allocator<hook8<(anonymous namespace)::hook8Parent>::onModify<geode::modifier::ModifyBase<geode::modifier::ModifyDerive<hook8<(anonymous namespace)::hook8Parent>, ProfilePage> > >(geode::modifier::ModifyBase<geode::modifier::ModifyDerive<hook8<(anonymous namespace)::hook8Parent>, ProfilePage> >&)::{lambda()#1}>, void ()>::target_type() const
FUNC 152890 2c 0 geode::modifier::AsStaticFunction_loadPageFromUserInfo<hook8<(anonymous namespace)::hook8Parent>, void (hook8<(anonymous namespace)::hook8Parent>::*)(GJUserScore*)>::Impl<void (hook8<(anonymous namespace)::hook8Parent>::*)(GJUserScore*)>::function(hook8<(anonymous namespace)::hook8Parent>*, GJUserScore*)
FUNC 1528bc 678 0 __cxx_global_var_init.30
FUNC 152f34 1c 0 geode::modifier::ModifyBase<geode::modifier::ModifyDerive<hook8<(anonymous namespace)::hook8Parent>, PlayLayer> >::~ModifyBase()
FUNC 152f50 414 0 geode::modifier::ModifyDerive<hook8<(anonymous namespace)::hook8Parent>, PlayLayer>::apply()
FUNC 153364 4 0 geode::modifier::ModifyBase<geode::modifier::ModifyDerive<hook8<(anonymous namespace)::hook8Parent>, PlayLayer> >::apply()
FUNC 153368 74 0 hook8<(anonymous namespace)::hook8Parent>::onModify<geode::modifier::ModifyBase<geode::modifier::ModifyDerive<hook8<(anonymous namespace)::hook8Parent>, PlayLayer> > >(geode::modifier::ModifyBase<geode::modifier::ModifyDerive<hook8<(anonymous namespace)::hook8Parent>, PlayLayer> >&)::{lambda()#1}::~{lambda()#1}()
FUNC 1533dc 80 0 std::__ndk1::__function::__func<hook8<(anonymous namespace)::hook8Parent>::onModify<geode::modifier::ModifyBase<geode::modifier::ModifyDerive<hook8<(anonymous namespace)::hook8Parent>, PlayLayer> > >(geode::modifier::ModifyBase<geode::modifier::ModifyDerive<hook8<(anonymous namespace)::hook8Parent>, PlayLayer> >&)::{lambda()#1}, std::__ndk1::allocator<hook8<(anonymous namespace)::hook8Parent>::onModify<geode::modifier::ModifyBase<geode::modifier::ModifyDerive<hook8<(anonymous namespace)::hook8Parent>, PlayLayer> > >(geode::modifier::ModifyBase<geode::modifier::ModifyDerive<hook8<(anonymous namespace)::hook8Parent>, PlayLayer> >&)::{lambda()#1}>, void ()>::~__func()
FUNC 15345c 80 0 std::__ndk1::__function::__func<hook8<(anonymous namespace)::hook8Parent>::onModify<geode::modifier::ModifyBase<geode::modifier::ModifyDerive<hook8<(anonymous namespace)::hook8Parent>, PlayLayer> > >(geode::modifier::ModifyBase<geode::modifier::ModifyDerive<hook8<(anonymous namespace)::hook8Parent>, PlayLayer> >&)::{lambda()#1}, std::__ndk1::allocator<hook8<(anonymous namespace)::hook8Parent>::onModify<geode::modifier::ModifyBase<geode::modifier::ModifyDerive<hook8<(anonymous namespace)::hook8Parent>, PlayLayer> > >(geode::modifier::ModifyBase<geode::modifier::ModifyDerive<hook8<(anonymous namespace)::hook8Parent>, PlayLayer> >&)::{lambda()#1}>, void ()>::~__func()
FUNC 1534dc d4 0 std::__ndk1::__function::__func<hook8<(anonymous namespace)::hook8Parent>::onModify<geode::modifier::ModifyBase<geode::modifier::ModifyDerive<hook8<(anonymous namespace)::hook8Parent>, PlayLayer> > >(geode::modifier::ModifyBase<geode::modifier::ModifyDerive<hook8<(anonymous namespace)::hook8Parent>, PlayLayer> >&)::{lambda()#1}, std::__ndk1::allocator<hook8<(anonymous namespace)::hook8Parent>::onModify<geode::modifier::ModifyBase<geode::modifier::ModifyDerive<hook8<(anonymous namespace)::hook8Parent>, PlayLayer> > >(geode::modifier::ModifyBase<geode::modifier::ModifyDerive<hook8<(anonymous namespace)::hook8Parent>, PlayLayer> >&)::{lambda()#1}>, void ()>::__clone() const
FUNC 1535b0 c0 0 std::__ndk1::__function::__func<hook8<(anonymous namespace)::hook8Parent>::onModify<geode::modifier::ModifyBase<geode::modifier::ModifyDerive<hook8<(anonymous namespace)::hook8Parent>, PlayLayer> > >(geode::modifier::ModifyBase<geode::modifier::ModifyDerive<hook8<(anonymous namespace)::hook8Parent>, PlayLayer> >&)::{lambda()#1}, std::__ndk1::allocator<hook8<(anonymous namespace)::hook8Parent>::onModify<geode::modifier::ModifyBase<geode::modifier::ModifyDerive<hook8<(anonymous namespace)::hook8Parent>, PlayLayer> > >(geode::modifier::ModifyBase<geode::modifier::ModifyDerive<hook8<(anonymous namespace)::hook8Parent>, PlayLayer> >&)::{lambda()#1}>, void ()>::__clone(std::__ndk1::__function::__base<void ()>*) const
FUNC 153670 74 0 std::__ndk1::__function::__func<hook8<(anonymous namespace)::hook8Parent>::onModify<geode::modifier::ModifyBase<geode::modifier::ModifyDerive<hook8<(anonymous namespace)::hook8Parent>, PlayLayer> > >(geode::modifier::ModifyBase<geode::modifier::ModifyDerive<hook8<(anonymous namespace)::hook8Parent>, PlayLayer> >&)::{lambda()#1}, std::__ndk1::allocator<hook8<(anonymous namespace)::hook8Parent>::onModify<geode::modifier::ModifyBase<geode::modifier::ModifyDerive<hook8<(anonymous namespace)::hook8Parent>, PlayLayer> > >(geode::modifier::ModifyBase<geode::modifier::ModifyDerive<hook8<(anonymous namespace)::hook8Parent>, PlayLayer> >&)::{lambda()#1}>, void ()>::destroy()
FUNC 1536e4 74 0 std::__ndk1::__function::__func<hook8<(anonymous namespace)::hook8Parent>::onModify<geode::modifier::ModifyBase<geode::modifier::ModifyDerive<hook8<(anonymous namespace)::hook8Parent>, PlayLayer> > >(geode::modifier::ModifyBase<geode::modifier::ModifyDerive<hook8<(anonymous namespace)::hook8Parent>, PlayLayer> >&)::{lambda()#1}, std::__ndk1::allocator<hook8<(anonymous namespace)::hook8Parent>::onModify<geode::modifier::ModifyBase<geode::modifier::ModifyDerive<hook8<(anonymous namespace)::hook8Parent>, PlayLayer> > >(geode::modifier::ModifyBase<geode::modifier::ModifyDerive<hook8<(anonymous namespace)::hook8Parent>, PlayLayer> >&)::{lambda()#1}>, void ()>::destroy_deallocate()
FUNC 153758 11c 0 std::__ndk1::__function::__func<hook8<(anonymous namespace)::hook8Parent>::onModify<geode::modifier::ModifyBase<geode::modifier::ModifyDerive<hook8<(anonymous namespace)::hook8Parent>, PlayLayer> > >(geode::modifier::ModifyBase<geode::modifier::ModifyDerive<hook8<(anonymous namespace)::hook8Parent>, PlayLayer> >&)::{lambda()#1}, std::__ndk1::allocator<hook8<(anonymous namespace)::hook8Parent>::onModify<geode::modifier::ModifyBase<geode::modifier::ModifyDerive<hook8<(anonymous namespace)::hook8Parent>, PlayLayer> > >(geode::modifier::ModifyBase<geode::modifier::ModifyDerive<hook8<(anonymous namespace)::hook8Parent>, PlayLayer> >&)::{lambda()#1}>, void ()>::operator()()
FUNC 153874 1c 0 std::__ndk1::__function::__func<hook8<(anonymous namespace)::hook8Parent>::onModify<geode::modifier::ModifyBase<geode::modifier::ModifyDerive<hook8<(anonymous namespace)::hook8Parent>, PlayLayer> > >(geode::modifier::ModifyBase<geode::modifier::ModifyDerive<hook8<(anonymous namespace)::hook8Parent>, PlayLayer> >&)::{lambda()#1}, std::__ndk1::allocator<hook8<(anonymous namespace)::hook8Parent>::onModify<geode::modifier::ModifyBase<geode::modifier::ModifyDerive<hook8<(anonymous namespace)::hook8Parent>, PlayLayer> > >(geode::modifier::ModifyBase<geode::modifier::ModifyDerive<hook8<(anonymous namespace)::hook8Parent>, PlayLayer> >&)::{lambda()#1}>, void ()>::target(std::type_info const&) const
FUNC 153890 c 0 std::__ndk1::__function::__func<hook8<(anonymous namespace)::hook8Parent>::onModify<geode::modifier::ModifyBase<geode::modifier::ModifyDerive<hook8<(anonymous namespace)::hook8Parent>, PlayLayer> > >(geode::modifier::ModifyBase<geode::modifier::ModifyDerive<hook8<(anonymous namespace)::hook8Parent>, PlayLayer> >&)::{lambda()#1}, std::__ndk1::allocator<hook8<(anonymous namespace)::hook8Parent>::onModify<geode::modifier::ModifyBase<geode::modifier::ModifyDerive<hook8<(anonymous namespace)::hook8Parent>, PlayLayer> > >(geode::modifier::ModifyBase<geode::modifier::ModifyDerive<hook8<(anonymous namespace)::hook8Parent>, PlayLayer> >&)::{lambda()#1}>, void ()>::target_type() const
FUNC 15389c b4 0 geode::modifier::AsStaticFunction_destroyPlayer<hook8<(anonymous namespace)::hook8Parent>, void (hook8<(anonymous namespace)::hook8Parent>::*)(PlayerObject*, GameObject*)>::Impl<void (hook8<(anonymous namespace)::hook8Parent>::*)(PlayerObject*, GameObject*)>::function(hook8<(anonymous namespace)::hook8Parent>*, PlayerObject*, GameObject*)
FUNC 153950 66c 0 __cxx_global_var_init.30
FUNC 153fbc 1c 0 geode::modifier::ModifyBase<geode::modifier::ModifyDerive<hook9<(anonymous namespace)::hook9Parent>, LevelInfoLayer> >::~ModifyBase()
FUNC 153fd8 444 0 __cxx_global_var_init.31
FUNC 15441c 1c 0 geode::modifier::ModifyBase<geode::modifier::ModifyDerive<ShowPasswordLayer, NumberInputLayer> >::~ModifyBase()
FUNC 154438 404 0 geode::modifier::ModifyDerive<hook9<(anonymous namespace)::hook9Parent>, LevelInfoLayer>::apply()
FUNC 15483c 4 0 geode::modifier::ModifyBase<geode::modifier::ModifyDerive<hook9<(anonymous namespace)::hook9Parent>, LevelInfoLayer> >::apply()
FUNC 154840 74 0 hook9<(anonymous namespace)::hook9Parent>::onModify<geode::modifier::ModifyBase<geode::modifier::ModifyDerive<hook9<(anonymous namespace)::hook9Parent>, LevelInfoLayer> > >(geode::modifier::ModifyBase<geode::modifier::ModifyDerive<hook9<(anonymous namespace)::hook9Parent>, LevelInfoLayer> >&)::{lambda()#1}::~{lambda()#1}()
FUNC 1548b4 80 0 std::__ndk1::__function::__func<hook9<(anonymous namespace)::hook9Parent>::onModify<geode::modifier::ModifyBase<geode::modifier::ModifyDerive<hook9<(anonymous namespace)::hook9Parent>, LevelInfoLayer> > >(geode::modifier::ModifyBase<geode::modifier::ModifyDerive<hook9<(anonymous namespace)::hook9Parent>, LevelInfoLayer> >&)::{lambda()#1}, std::__ndk1::allocator<hook9<(anonymous namespace)::hook9Parent>::onModify<geode::modifier::ModifyBase<geode::modifier::ModifyDerive<hook9<(anonymous namespace)::hook9Parent>, LevelInfoLayer> > >(geode::modifier::ModifyBase<geode::modifier::ModifyDerive<hook9<(anonymous namespace)::hook9Parent>, LevelInfoLayer> >&)::{lambda()#1}>, void ()>::~__func()
FUNC 154934 80 0 std::__ndk1::__function::__func<hook9<(anonymous namespace)::hook9Parent>::onModify<geode::modifier::ModifyBase<geode::modifier::ModifyDerive<hook9<(anonymous namespace)::hook9Parent>, LevelInfoLayer> > >(geode::modifier::ModifyBase<geode::modifier::ModifyDerive<hook9<(anonymous namespace)::hook9Parent>, LevelInfoLayer> >&)::{lambda()#1}, std::__ndk1::allocator<hook9<(anonymous namespace)::hook9Parent>::onModify<geode::modifier::ModifyBase<geode::modifier::ModifyDerive<hook9<(anonymous namespace)::hook9Parent>, LevelInfoLayer> > >(geode::modifier::ModifyBase<geode::modifier::ModifyDerive<hook9<(anonymous namespace)::hook9Parent>, LevelInfoLayer> >&)::{lambda()#1}>, void ()>::~__func()
FUNC 1549b4 d4 0 std::__ndk1::__function::__func<hook9<(anonymous namespace)::hook9Parent>::onModify<geode::modifier::ModifyBase<geode::modifier::ModifyDerive<hook9<(anonymous namespace)::hook9Parent>, LevelInfoLayer> > >(geode::modifier::ModifyBase<geode::modifier::ModifyDerive<hook9<(anonymous namespace)::hook9Parent>, LevelInfoLayer> >&)::{lambda()#1}, std::__ndk1::allocator<hook9<(anonymous namespace)::hook9Parent>::onModify<geode::modifier::ModifyBase<geode::modifier::ModifyDerive<hook9<(anonymous namespace)::hook9Parent>, LevelInfoLayer> > >(geode::modifier::ModifyBase<geode::modifier::ModifyDerive<hook9<(anonymous namespace)::hook9Parent>, LevelInfoLayer> >&)::{lambda()#1}>, void ()>::__clone() const
FUNC 154a88 c0 0 std::__ndk1::__function::__func<hook9<(anonymous namespace)::hook9Parent>::onModify<geode::modifier::ModifyBase<geode::modifier::ModifyDerive<hook9<(anonymous namespace)::hook9Parent>, LevelInfoLayer> > >(geode::modifier::ModifyBase<geode::modifier::ModifyDerive<hook9<(anonymous namespace)::hook9Parent>, LevelInfoLayer> >&)::{lambda()#1}, std::__ndk1::allocator<hook9<(anonymous namespace)::hook9Parent>::onModify<geode::modifier::ModifyBase<geode::modifier::ModifyDerive<hook9<(anonymous namespace)::hook9Parent>, LevelInfoLayer> > >(geode::modifier::ModifyBase<geode::modifier::ModifyDerive<hook9<(anonymous namespace)::hook9Parent>, LevelInfoLayer> >&)::{lambda()#1}>, void ()>::__clone(std::__ndk1::__function::__base<void ()>*) const
FUNC 154b48 74 0 std::__ndk1::__function::__func<hook9<(anonymous namespace)::hook9Parent>::onModify<geode::modifier::ModifyBase<geode::modifier::ModifyDerive<hook9<(anonymous namespace)::hook9Parent>, LevelInfoLayer> > >(geode::modifier::ModifyBase<geode::modifier::ModifyDerive<hook9<(anonymous namespace)::hook9Parent>, LevelInfoLayer> >&)::{lambda()#1}, std::__ndk1::allocator<hook9<(anonymous namespace)::hook9Parent>::onModify<geode::modifier::ModifyBase<geode::modifier::ModifyDerive<hook9<(anonymous namespace)::hook9Parent>, LevelInfoLayer> > >(geode::modifier::ModifyBase<geode::modifier::ModifyDerive<hook9<(anonymous namespace)::hook9Parent>, LevelInfoLayer> >&)::{lambda()#1}>, void ()>::destroy()
FUNC 154bbc 74 0 std::__ndk1::__function::__func<hook9<(anonymous namespace)::hook9Parent>::onModify<geode::modifier::ModifyBase<geode::modifier::ModifyDerive<hook9<(anonymous namespace)::hook9Parent>, LevelInfoLayer> > >(geode::modifier::ModifyBase<geode::modifier::ModifyDerive<hook9<(anonymous namespace)::hook9Parent>, LevelInfoLayer> >&)::{lambda()#1}, std::__ndk1::allocator<hook9<(anonymous namespace)::hook9Parent>::onModify<geode::modifier::ModifyBase<geode::modifier::ModifyDerive<hook9<(anonymous namespace)::hook9Parent>, LevelInfoLayer> > >(geode::modifier::ModifyBase<geode::modifier::ModifyDerive<hook9<(anonymous namespace)::hook9Parent>, LevelInfoLayer> >&)::{lambda()#1}>, void ()>::destroy_deallocate()
FUNC 154c30 11c 0 std::__ndk1::__function::__func<hook9<(anonymous namespace)::hook9Parent>::onModify<geode::modifier::ModifyBase<geode::modifier::ModifyDerive<hook9<(anonymous namespace)::hook9Parent>, LevelInfoLayer> > >(geode::modifier::ModifyBase<geode::modifier::ModifyDerive<hook9<(anonymous namespace)::hook9Parent>, LevelInfoLayer> >&)::{lambda()#1}, std::__ndk1::allocator<hook9<(anonymous namespace)::hook9Parent>::onModify<geode::modifier::ModifyBase<geode::modifier::ModifyDerive<hook9<(anonymous namespace)::hook9Parent>, LevelInfoLayer> > >(geode::modifier::ModifyBase<geode::modifier::ModifyDerive<hook9<(anonymous namespace)::hook9Parent>, LevelInfoLayer> >&)::{lambda()#1}>, void ()>::operator()()
FUNC 154d4c 1c 0 std::__ndk1::__function::__func<hook9<(anonymous namespace)::hook9Parent>::onModify<geode::modifier::ModifyBase<geode::modifier::ModifyDerive<hook9<(anonymous namespace)::hook9Parent>, LevelInfoLayer> > >(geode::modifier::ModifyBase<geode::modifier::ModifyDerive<hook9<(anonymous namespace)::hook9Parent>, LevelInfoLayer> >&)::{lambda()#1}, std::__ndk1::allocator<hook9<(anonymous namespace)::hook9Parent>::onModify<geode::modifier::ModifyBase<geode::modifier::ModifyDerive<hook9<(anonymous namespace)::hook9Parent>, LevelInfoLayer> > >(geode::modifier::ModifyBase<geode::modifier::ModifyDerive<hook9<(anonymous namespace)::hook9Parent>, LevelInfoLayer> >&)::{lambda()#1}>, void ()>::target(std::type_info const&) const
FUNC 154d68 c 0 std::__ndk1::__function::__func<hook9<(anonymous namespace)::hook9Parent>::onModify<geode::modifier::ModifyBase<geode::modifier::ModifyDerive<hook9<(anonymous namespace)::hook9Parent>, LevelInfoLayer> > >(geode::modifier::ModifyBase<geode::modifier::ModifyDerive<hook9<(anonymous namespace)::hook9Parent>, LevelInfoLayer> >&)::{lambda()#1}, std::__ndk1::allocator<hook9<(anonymous namespace)::hook9Parent>::onModify<geode::modifier::ModifyBase<geode::modifier::ModifyDerive<hook9<(anonymous namespace)::hook9Parent>, LevelInfoLayer> > >(geode::modifier::ModifyBase<geode::modifier::ModifyDerive<hook9<(anonymous namespace)::hook9Parent>, LevelInfoLayer> >&)::{lambda()#1}>, void ()>::target_type() const
FUNC 154d74 33c 0 geode::modifier::AsStaticFunction_init<hook9<(anonymous namespace)::hook9Parent>, bool (hook9<(anonymous namespace)::hook9Parent>::*)(GJGameLevel*, bool)>::Impl<bool (hook9<(anonymous namespace)::hook9Parent>::*)(GJGameLevel*, bool)>::function(hook9<(anonymous namespace)::hook9Parent>*, GJGameLevel*, bool)
FUNC 1550b0 364 0 geode::modifier::ModifyDerive<ShowPasswordLayer, NumberInputLayer>::apply()
FUNC 155414 4 0 geode::modifier::ModifyBase<geode::modifier::ModifyDerive<ShowPasswordLayer, NumberInputLayer> >::apply()
FUNC 155418 b8 0 geode::addresser::getVirtual<bool (NumberInputLayer::*)()>(bool (NumberInputLayer::*)())
FUNC 1554d0 10c 0 geode::modifier::AsStaticFunction_init<ShowPasswordLayer, bool (ShowPasswordLayer::*)()>::Impl<bool (ShowPasswordLayer::*)()>::function(ShowPasswordLayer*)
FUNC 1555dc a0 0 NumberInputLayer::NumberInputLayer(geode::ZeroConstructorType)
FUNC 15567c 2c8 0 ShowPasswordLayer::onShowPassword(cocos2d::CCObject*)
FUNC 155944 668 0 __cxx_global_var_init.30
FUNC 155fac 1c 0 geode::modifier::ModifyBase<geode::modifier::ModifyDerive<hook8<(anonymous namespace)::hook8Parent>, MenuLayer> >::~ModifyBase()
FUNC 155fc8 364 0 geode::modifier::ModifyDerive<hook8<(anonymous namespace)::hook8Parent>, MenuLayer>::apply()
FUNC 15632c 4 0 geode::modifier::ModifyBase<geode::modifier::ModifyDerive<hook8<(anonymous namespace)::hook8Parent>, MenuLayer> >::apply()
FUNC 156330 74 0 hook8<(anonymous namespace)::hook8Parent>::onModify<geode::modifier::ModifyBase<geode::modifier::ModifyDerive<hook8<(anonymous namespace)::hook8Parent>, MenuLayer> > >(geode::modifier::ModifyBase<geode::modifier::ModifyDerive<hook8<(anonymous namespace)::hook8Parent>, MenuLayer> >&)::{lambda()#1}::~{lambda()#1}()
FUNC 1563a4 80 0 std::__ndk1::__function::__func<hook8<(anonymous namespace)::hook8Parent>::onModify<geode::modifier::ModifyBase<geode::modifier::ModifyDerive<hook8<(anonymous namespace)::hook8Parent>, MenuLayer> > >(geode::modifier::ModifyBase<geode::modifier::ModifyDerive<hook8<(anonymous namespace)::hook8Parent>, MenuLayer> >&)::{lambda()#1}, std::__ndk1::allocator<hook8<(anonymous namespace)::hook8Parent>::onModify<geode::modifier::ModifyBase<geode::modifier::ModifyDerive<hook8<(anonymous namespace)::hook8Parent>, MenuLayer> > >(geode::modifier::ModifyBase<geode::modifier::ModifyDerive<hook8<(anonymous namespace)::hook8Parent>, MenuLayer> >&)::{lambda()#1}>, void ()>::~__func()
FUNC 156424 80 0 std::__ndk1::__function::__func<hook8<(anonymous namespace)::hook8Parent>::onModify<geode::modifier::ModifyBase<geode::modifier::ModifyDerive<hook8<(anonymous namespace)::hook8Parent>, MenuLayer> > >(geode::modifier::ModifyBase<geode::modifier::ModifyDerive<hook8<(anonymous namespace)::hook8Parent>, MenuLayer> >&)::{lambda()#1}, std::__ndk1::allocator<hook8<(anonymous namespace)::hook8Parent>::onModify<geode::modifier::ModifyBase<geode::modifier::ModifyDerive<hook8<(anonymous namespace)::hook8Parent>, MenuLayer> > >(geode::modifier::ModifyBase<geode::modifier::ModifyDerive<hook8<(anonymous namespace)::hook8Parent>, MenuLayer> >&)::{lambda()#1}>, void ()>::~__func()
FUNC 1564a4 d4 0 std::__ndk1::__function::__func<hook8<(anonymous namespace)::hook8Parent>::onModify<geode::modifier::ModifyBase<geode::modifier::ModifyDerive<hook8<(anonymous namespace)::hook8Parent>, MenuLayer> > >(geode::modifier::ModifyBase<geode::modifier::ModifyDerive<hook8<(anonymous namespace)::hook8Parent>, MenuLayer> >&)::{lambda()#1}, std::__ndk1::allocator<hook8<(anonymous namespace)::hook8Parent>::onModify<geode::modifier::ModifyBase<geode::modifier::ModifyDerive<hook8<(anonymous namespace)::hook8Parent>, MenuLayer> > >(geode::modifier::ModifyBase<geode::modifier::ModifyDerive<hook8<(anonymous namespace)::hook8Parent>, MenuLayer> >&)::{lambda()#1}>, void ()>::__clone() const
FUNC 156578 c0 0 std::__ndk1::__function::__func<hook8<(anonymous namespace)::hook8Parent>::onModify<geode::modifier::ModifyBase<geode::modifier::ModifyDerive<hook8<(anonymous namespace)::hook8Parent>, MenuLayer> > >(geode::modifier::ModifyBase<geode::modifier::ModifyDerive<hook8<(anonymous namespace)::hook8Parent>, MenuLayer> >&)::{lambda()#1}, std::__ndk1::allocator<hook8<(anonymous namespace)::hook8Parent>::onModify<geode::modifier::ModifyBase<geode::modifier::ModifyDerive<hook8<(anonymous namespace)::hook8Parent>, MenuLayer> > >(geode::modifier::ModifyBase<geode::modifier::ModifyDerive<hook8<(anonymous namespace)::hook8Parent>, MenuLayer> >&)::{lambda()#1}>, void ()>::__clone(std::__ndk1::__function::__base<void ()>*) const
FUNC 156638 74 0 std::__ndk1::__function::__func<hook8<(anonymous namespace)::hook8Parent>::onModify<geode::modifier::ModifyBase<geode::modifier::ModifyDerive<hook8<(anonymous namespace)::hook8Parent>, MenuLayer> > >(geode::modifier::ModifyBase<geode::modifier::ModifyDerive<hook8<(anonymous namespace)::hook8Parent>, MenuLayer> >&)::{lambda()#1}, std::__ndk1::allocator<hook8<(anonymous namespace)::hook8Parent>::onModify<geode::modifier::ModifyBase<geode::modifier::ModifyDerive<hook8<(anonymous namespace)::hook8Parent>, MenuLayer> > >(geode::modifier::ModifyBase<geode::modifier::ModifyDerive<hook8<(anonymous namespace)::hook8Parent>, MenuLayer> >&)::{lambda()#1}>, void ()>::destroy()
FUNC 1566ac 74 0 std::__ndk1::__function::__func<hook8<(anonymous namespace)::hook8Parent>::onModify<geode::modifier::ModifyBase<geode::modifier::ModifyDerive<hook8<(anonymous namespace)::hook8Parent>, MenuLayer> > >(geode::modifier::ModifyBase<geode::modifier::ModifyDerive<hook8<(anonymous namespace)::hook8Parent>, MenuLayer> >&)::{lambda()#1}, std::__ndk1::allocator<hook8<(anonymous namespace)::hook8Parent>::onModify<geode::modifier::ModifyBase<geode::modifier::ModifyDerive<hook8<(anonymous namespace)::hook8Parent>, MenuLayer> > >(geode::modifier::ModifyBase<geode::modifier::ModifyDerive<hook8<(anonymous namespace)::hook8Parent>, MenuLayer> >&)::{lambda()#1}>, void ()>::destroy_deallocate()
FUNC 156720 120 0 std::__ndk1::__function::__func<hook8<(anonymous namespace)::hook8Parent>::onModify<geode::modifier::ModifyBase<geode::modifier::ModifyDerive<hook8<(anonymous namespace)::hook8Parent>, MenuLayer> > >(geode::modifier::ModifyBase<geode::modifier::ModifyDerive<hook8<(anonymous namespace)::hook8Parent>, MenuLayer> >&)::{lambda()#1}, std::__ndk1::allocator<hook8<(anonymous namespace)::hook8Parent>::onModify<geode::modifier::ModifyBase<geode::modifier::ModifyDerive<hook8<(anonymous namespace)::hook8Parent>, MenuLayer> > >(geode::modifier::ModifyBase<geode::modifier::ModifyDerive<hook8<(anonymous namespace)::hook8Parent>, MenuLayer> >&)::{lambda()#1}>, void ()>::operator()()
FUNC 156840 1c 0 std::__ndk1::__function::__func<hook8<(anonymous namespace)::hook8Parent>::onModify<geode::modifier::ModifyBase<geode::modifier::ModifyDerive<hook8<(anonymous namespace)::hook8Parent>, MenuLayer> > >(geode::modifier::ModifyBase<geode::modifier::ModifyDerive<hook8<(anonymous namespace)::hook8Parent>, MenuLayer> >&)::{lambda()#1}, std::__ndk1::allocator<hook8<(anonymous namespace)::hook8Parent>::onModify<geode::modifier::ModifyBase<geode::modifier::ModifyDerive<hook8<(anonymous namespace)::hook8Parent>, MenuLayer> > >(geode::modifier::ModifyBase<geode::modifier::ModifyDerive<hook8<(anonymous namespace)::hook8Parent>, MenuLayer> >&)::{lambda()#1}>, void ()>::target(std::type_info const&) const
FUNC 15685c c 0 std::__ndk1::__function::__func<hook8<(anonymous namespace)::hook8Parent>::onModify<geode::modifier::ModifyBase<geode::modifier::ModifyDerive<hook8<(anonymous namespace)::hook8Parent>, MenuLayer> > >(geode::modifier::ModifyBase<geode::modifier::ModifyDerive<hook8<(anonymous namespace)::hook8Parent>, MenuLayer> >&)::{lambda()#1}, std::__ndk1::allocator<hook8<(anonymous namespace)::hook8Parent>::onModify<geode::modifier::ModifyBase<geode::modifier::ModifyDerive<hook8<(anonymous namespace)::hook8Parent>, MenuLayer> > >(geode::modifier::ModifyBase<geode::modifier::ModifyDerive<hook8<(anonymous namespace)::hook8Parent>, MenuLayer> >&)::{lambda()#1}>, void ()>::target_type() const
FUNC 156868 118 0 geode::modifier::AsStaticFunction_init<hook8<(anonymous namespace)::hook8Parent>, bool (hook8<(anonymous namespace)::hook8Parent>::*)()>::Impl<bool (hook8<(anonymous namespace)::hook8Parent>::*)()>::function(hook8<(anonymous namespace)::hook8Parent>*)
FUNC 156980 7e4 0 __cxx_global_var_init.30
FUNC 157164 7e4 0 __cxx_global_var_init.31
FUNC 157948 1c 0 geode::modifier::ModifyBase<geode::modifier::ModifyDerive<hook11<(anonymous namespace)::hook11Parent>, HardStreak> >::~ModifyBase()
FUNC 157964 1c 0 geode::modifier::ModifyBase<geode::modifier::ModifyDerive<hook22<(anonymous namespace)::hook22Parent>, PlayerObject> >::~ModifyBase()
FUNC 157980 3d4 0 geode::modifier::ModifyDerive<hook11<(anonymous namespace)::hook11Parent>, HardStreak>::apply()
FUNC 157d54 4 0 geode::modifier::ModifyBase<geode::modifier::ModifyDerive<hook11<(anonymous namespace)::hook11Parent>, HardStreak> >::apply()
FUNC 157d58 24 0 std::__ndk1::__function::__func<hook11<(anonymous namespace)::hook11Parent>::onModify<geode::modifier::ModifyBase<geode::modifier::ModifyDerive<hook11<(anonymous namespace)::hook11Parent>, HardStreak> > >(geode::modifier::ModifyBase<geode::modifier::ModifyDerive<hook11<(anonymous namespace)::hook11Parent>, HardStreak> >&)::{lambda()#1}, std::__ndk1::allocator<hook11<(anonymous namespace)::hook11Parent>::onModify<geode::modifier::ModifyBase<geode::modifier::ModifyDerive<hook11<(anonymous namespace)::hook11Parent>, HardStreak> > >(geode::modifier::ModifyBase<geode::modifier::ModifyDerive<hook11<(anonymous namespace)::hook11Parent>, HardStreak> >&)::{lambda()#1}>, void ()>::~__func()
FUNC 157d7c 40 0 std::__ndk1::__function::__func<hook11<(anonymous namespace)::hook11Parent>::onModify<geode::modifier::ModifyBase<geode::modifier::ModifyDerive<hook11<(anonymous namespace)::hook11Parent>, HardStreak> > >(geode::modifier::ModifyBase<geode::modifier::ModifyDerive<hook11<(anonymous namespace)::hook11Parent>, HardStreak> >&)::{lambda()#1}, std::__ndk1::allocator<hook11<(anonymous namespace)::hook11Parent>::onModify<geode::modifier::ModifyBase<geode::modifier::ModifyDerive<hook11<(anonymous namespace)::hook11Parent>, HardStreak> > >(geode::modifier::ModifyBase<geode::modifier::ModifyDerive<hook11<(anonymous namespace)::hook11Parent>, HardStreak> >&)::{lambda()#1}>, void ()>::~__func()
FUNC 157dbc b0 0 std::__ndk1::__function::__func<hook11<(anonymous namespace)::hook11Parent>::onModify<geode::modifier::ModifyBase<geode::modifier::ModifyDerive<hook11<(anonymous namespace)::hook11Parent>, HardStreak> > >(geode::modifier::ModifyBase<geode::modifier::ModifyDerive<hook11<(anonymous namespace)::hook11Parent>, HardStreak> >&)::{lambda()#1}, std::__ndk1::allocator<hook11<(anonymous namespace)::hook11Parent>::onModify<geode::modifier::ModifyBase<geode::modifier::ModifyDerive<hook11<(anonymous namespace)::hook11Parent>, HardStreak> > >(geode::modifier::ModifyBase<geode::modifier::ModifyDerive<hook11<(anonymous namespace)::hook11Parent>, HardStreak> >&)::{lambda()#1}>, void ()>::__clone() const
FUNC 157e6c 98 0 std::__ndk1::__function::__func<hook11<(anonymous namespace)::hook11Parent>::onModify<geode::modifier::ModifyBase<geode::modifier::ModifyDerive<hook11<(anonymous namespace)::hook11Parent>, HardStreak> > >(geode::modifier::ModifyBase<geode::modifier::ModifyDerive<hook11<(anonymous namespace)::hook11Parent>, HardStreak> >&)::{lambda()#1}, std::__ndk1::allocator<hook11<(anonymous namespace)::hook11Parent>::onModify<geode::modifier::ModifyBase<geode::modifier::ModifyDerive<hook11<(anonymous namespace)::hook11Parent>, HardStreak> > >(geode::modifier::ModifyBase<geode::modifier::ModifyDerive<hook11<(anonymous namespace)::hook11Parent>, HardStreak> >&)::{lambda()#1}>, void ()>::__clone(std::__ndk1::__function::__base<void ()>*) const
FUNC 157f04 18 0 std::__ndk1::__function::__func<hook11<(anonymous namespace)::hook11Parent>::onModify<geode::modifier::ModifyBase<geode::modifier::ModifyDerive<hook11<(anonymous namespace)::hook11Parent>, HardStreak> > >(geode::modifier::ModifyBase<geode::modifier::ModifyDerive<hook11<(anonymous namespace)::hook11Parent>, HardStreak> >&)::{lambda()#1}, std::__ndk1::allocator<hook11<(anonymous namespace)::hook11Parent>::onModify<geode::modifier::ModifyBase<geode::modifier::ModifyDerive<hook11<(anonymous namespace)::hook11Parent>, HardStreak> > >(geode::modifier::ModifyBase<geode::modifier::ModifyDerive<hook11<(anonymous namespace)::hook11Parent>, HardStreak> >&)::{lambda()#1}>, void ()>::destroy()
FUNC 157f1c 34 0 std::__ndk1::__function::__func<hook11<(anonymous namespace)::hook11Parent>::onModify<geode::modifier::ModifyBase<geode::modifier::ModifyDerive<hook11<(anonymous namespace)::hook11Parent>, HardStreak> > >(geode::modifier::ModifyBase<geode::modifier::ModifyDerive<hook11<(anonymous namespace)::hook11Parent>, HardStreak> >&)::{lambda()#1}, std::__ndk1::allocator<hook11<(anonymous namespace)::hook11Parent>::onModify<geode::modifier::ModifyBase<geode::modifier::ModifyDerive<hook11<(anonymous namespace)::hook11Parent>, HardStreak> > >(geode::modifier::ModifyBase<geode::modifier::ModifyDerive<hook11<(anonymous namespace)::hook11Parent>, HardStreak> >&)::{lambda()#1}>, void ()>::destroy_deallocate()
FUNC 157f50 a8 0 std::__ndk1::__function::__func<hook11<(anonymous namespace)::hook11Parent>::onModify<geode::modifier::ModifyBase<geode::modifier::ModifyDerive<hook11<(anonymous namespace)::hook11Parent>, HardStreak> > >(geode::modifier::ModifyBase<geode::modifier::ModifyDerive<hook11<(anonymous namespace)::hook11Parent>, HardStreak> >&)::{lambda()#1}, std::__ndk1::allocator<hook11<(anonymous namespace)::hook11Parent>::onModify<geode::modifier::ModifyBase<geode::modifier::ModifyDerive<hook11<(anonymous namespace)::hook11Parent>, HardStreak> > >(geode::modifier::ModifyBase<geode::modifier::ModifyDerive<hook11<(anonymous namespace)::hook11Parent>, HardStreak> >&)::{lambda()#1}>, void ()>::operator()()
FUNC 157ff8 1c 0 std::__ndk1::__function::__func<hook11<(anonymous namespace)::hook11Parent>::onModify<geode::modifier::ModifyBase<geode::modifier::ModifyDerive<hook11<(anonymous namespace)::hook11Parent>, HardStreak> > >(geode::modifier::ModifyBase<geode::modifier::ModifyDerive<hook11<(anonymous namespace)::hook11Parent>, HardStreak> >&)::{lambda()#1}, std::__ndk1::allocator<hook11<(anonymous namespace)::hook11Parent>::onModify<geode::modifier::ModifyBase<geode::modifier::ModifyDerive<hook11<(anonymous namespace)::hook11Parent>, HardStreak> > >(geode::modifier::ModifyBase<geode::modifier::ModifyDerive<hook11<(anonymous namespace)::hook11Parent>, HardStreak> >&)::{lambda()#1}>, void ()>::target(std::type_info const&) const
FUNC 158014 c 0 std::__ndk1::__function::__func<hook11<(anonymous namespace)::hook11Parent>::onModify<geode::modifier::ModifyBase<geode::modifier::ModifyDerive<hook11<(anonymous namespace)::hook11Parent>, HardStreak> > >(geode::modifier::ModifyBase<geode::modifier::ModifyDerive<hook11<(anonymous namespace)::hook11Parent>, HardStreak> >&)::{lambda()#1}, std::__ndk1::allocator<hook11<(anonymous namespace)::hook11Parent>::onModify<geode::modifier::ModifyBase<geode::modifier::ModifyDerive<hook11<(anonymous namespace)::hook11Parent>, HardStreak> > >(geode::modifier::ModifyBase<geode::modifier::ModifyDerive<hook11<(anonymous namespace)::hook11Parent>, HardStreak> >&)::{lambda()#1}>, void ()>::target_type() const
FUNC 158020 44 0 geode::modifier::AsStaticFunction_updateStroke<hook11<(anonymous namespace)::hook11Parent>, void (hook11<(anonymous namespace)::hook11Parent>::*)(float)>::Impl<void (hook11<(anonymous namespace)::hook11Parent>::*)(float)>::function(hook11<(anonymous namespace)::hook11Parent>*, float)
FUNC 158064 848 0 geode::modifier::ModifyDerive<hook22<(anonymous namespace)::hook22Parent>, PlayerObject>::apply()
FUNC 1588ac 4 0 geode::modifier::ModifyBase<geode::modifier::ModifyDerive<hook22<(anonymous namespace)::hook22Parent>, PlayerObject> >::apply()
FUNC 1588b0 24 0 std::__ndk1::__function::__func<hook22<(anonymous namespace)::hook22Parent>::onModify<geode::modifier::ModifyBase<geode::modifier::ModifyDerive<hook22<(anonymous namespace)::hook22Parent>, PlayerObject> > >(geode::modifier::ModifyBase<geode::modifier::ModifyDerive<hook22<(anonymous namespace)::hook22Parent>, PlayerObject> >&)::{lambda()#1}, std::__ndk1::allocator<hook22<(anonymous namespace)::hook22Parent>::onModify<geode::modifier::ModifyBase<geode::modifier::ModifyDerive<hook22<(anonymous namespace)::hook22Parent>, PlayerObject> > >(geode::modifier::ModifyBase<geode::modifier::ModifyDerive<hook22<(anonymous namespace)::hook22Parent>, PlayerObject> >&)::{lambda()#1}>, void ()>::~__func()
FUNC 1588d4 40 0 std::__ndk1::__function::__func<hook22<(anonymous namespace)::hook22Parent>::onModify<geode::modifier::ModifyBase<geode::modifier::ModifyDerive<hook22<(anonymous namespace)::hook22Parent>, PlayerObject> > >(geode::modifier::ModifyBase<geode::modifier::ModifyDerive<hook22<(anonymous namespace)::hook22Parent>, PlayerObject> >&)::{lambda()#1}, std::__ndk1::allocator<hook22<(anonymous namespace)::hook22Parent>::onModify<geode::modifier::ModifyBase<geode::modifier::ModifyDerive<hook22<(anonymous namespace)::hook22Parent>, PlayerObject> > >(geode::modifier::ModifyBase<geode::modifier::ModifyDerive<hook22<(anonymous namespace)::hook22Parent>, PlayerObject> >&)::{lambda()#1}>, void ()>::~__func()
FUNC 158914 b0 0 std::__ndk1::__function::__func<hook22<(anonymous namespace)::hook22Parent>::onModify<geode::modifier::ModifyBase<geode::modifier::ModifyDerive<hook22<(anonymous namespace)::hook22Parent>, PlayerObject> > >(geode::modifier::ModifyBase<geode::modifier::ModifyDerive<hook22<(anonymous namespace)::hook22Parent>, PlayerObject> >&)::{lambda()#1}, std::__ndk1::allocator<hook22<(anonymous namespace)::hook22Parent>::onModify<geode::modifier::ModifyBase<geode::modifier::ModifyDerive<hook22<(anonymous namespace)::hook22Parent>, PlayerObject> > >(geode::modifier::ModifyBase<geode::modifier::ModifyDerive<hook22<(anonymous namespace)::hook22Parent>, PlayerObject> >&)::{lambda()#1}>, void ()>::__clone() const
FUNC 1589c4 98 0 std::__ndk1::__function::__func<hook22<(anonymous namespace)::hook22Parent>::onModify<geode::modifier::ModifyBase<geode::modifier::ModifyDerive<hook22<(anonymous namespace)::hook22Parent>, PlayerObject> > >(geode::modifier::ModifyBase<geode::modifier::ModifyDerive<hook22<(anonymous namespace)::hook22Parent>, PlayerObject> >&)::{lambda()#1}, std::__ndk1::allocator<hook22<(anonymous namespace)::hook22Parent>::onModify<geode::modifier::ModifyBase<geode::modifier::ModifyDerive<hook22<(anonymous namespace)::hook22Parent>, PlayerObject> > >(geode::modifier::ModifyBase<geode::modifier::ModifyDerive<hook22<(anonymous namespace)::hook22Parent>, PlayerObject> >&)::{lambda()#1}>, void ()>::__clone(std::__ndk1::__function::__base<void ()>*) const
FUNC 158a5c 18 0 std::__ndk1::__function::__func<hook22<(anonymous namespace)::hook22Parent>::onModify<geode::modifier::ModifyBase<geode::modifier::ModifyDerive<hook22<(anonymous namespace)::hook22Parent>, PlayerObject> > >(geode::modifier::ModifyBase<geode::modifier::ModifyDerive<hook22<(anonymous namespace)::hook22Parent>, PlayerObject> >&)::{lambda()#1}, std::__ndk1::allocator<hook22<(anonymous namespace)::hook22Parent>::onModify<geode::modifier::ModifyBase<geode::modifier::ModifyDerive<hook22<(anonymous namespace)::hook22Parent>, PlayerObject> > >(geode::modifier::ModifyBase<geode::modifier::ModifyDerive<hook22<(anonymous namespace)::hook22Parent>, PlayerObject> >&)::{lambda()#1}>, void ()>::destroy()
FUNC 158a74 34 0 std::__ndk1::__function::__func<hook22<(anonymous namespace)::hook22Parent>::onModify<geode::modifier::ModifyBase<geode::modifier::ModifyDerive<hook22<(anonymous namespace)::hook22Parent>, PlayerObject> > >(geode::modifier::ModifyBase<geode::modifier::ModifyDerive<hook22<(anonymous namespace)::hook22Parent>, PlayerObject> >&)::{lambda()#1}, std::__ndk1::allocator<hook22<(anonymous namespace)::hook22Parent>::onModify<geode::modifier::ModifyBase<geode::modifier::ModifyDerive<hook22<(anonymous namespace)::hook22Parent>, PlayerObject> > >(geode::modifier::ModifyBase<geode::modifier::ModifyDerive<hook22<(anonymous namespace)::hook22Parent>, PlayerObject> >&)::{lambda()#1}>, void ()>::destroy_deallocate()
FUNC 158aa8 a8 0 std::__ndk1::__function::__func<hook22<(anonymous namespace)::hook22Parent>::onModify<geode::modifier::ModifyBase<geode::modifier::ModifyDerive<hook22<(anonymous namespace)::hook22Parent>, PlayerObject> > >(geode::modifier::ModifyBase<geode::modifier::ModifyDerive<hook22<(anonymous namespace)::hook22Parent>, PlayerObject> >&)::{lambda()#1}, std::__ndk1::allocator<hook22<(anonymous namespace)::hook22Parent>::onModify<geode::modifier::ModifyBase<geode::modifier::ModifyDerive<hook22<(anonymous namespace)::hook22Parent>, PlayerObject> > >(geode::modifier::ModifyBase<geode::modifier::ModifyDerive<hook22<(anonymous namespace)::hook22Parent>, PlayerObject> >&)::{lambda()#1}>, void ()>::operator()()
FUNC 158b50 1c 0 std::__ndk1::__function::__func<hook22<(anonymous namespace)::hook22Parent>::onModify<geode::modifier::ModifyBase<geode::modifier::ModifyDerive<hook22<(anonymous namespace)::hook22Parent>, PlayerObject> > >(geode::modifier::ModifyBase<geode::modifier::ModifyDerive<hook22<(anonymous namespace)::hook22Parent>, PlayerObject> >&)::{lambda()#1}, std::__ndk1::allocator<hook22<(anonymous namespace)::hook22Parent>::onModify<geode::modifier::ModifyBase<geode::modifier::ModifyDerive<hook22<(anonymous namespace)::hook22Parent>, PlayerObject> > >(geode::modifier::ModifyBase<geode::modifier::ModifyDerive<hook22<(anonymous namespace)::hook22Parent>, PlayerObject> >&)::{lambda()#1}>, void ()>::target(std::type_info const&) const
FUNC 158b6c c 0 std::__ndk1::__function::__func<hook22<(anonymous namespace)::hook22Parent>::onModify<geode::modifier::ModifyBase<geode::modifier::ModifyDerive<hook22<(anonymous namespace)::hook22Parent>, PlayerObject> > >(geode::modifier::ModifyBase<geode::modifier::ModifyDerive<hook22<(anonymous namespace)::hook22Parent>, PlayerObject> >&)::{lambda()#1}, std::__ndk1::allocator<hook22<(anonymous namespace)::hook22Parent>::onModify<geode::modifier::ModifyBase<geode::modifier::ModifyDerive<hook22<(anonymous namespace)::hook22Parent>, PlayerObject> > >(geode::modifier::ModifyBase<geode::modifier::ModifyDerive<hook22<(anonymous namespace)::hook22Parent>, PlayerObject> >&)::{lambda()#1}>, void ()>::target_type() const
FUNC 158b78 6c 0 geode::addresser::getVirtual<void (PlayerObject::*)(float)>(void (PlayerObject::*)(float))
FUNC 158be4 184 0 geode::Hook::create<void (*)(hook22<(anonymous namespace)::hook22Parent>*, float)>(void*, void (*)(hook22<(anonymous namespace)::hook22Parent>*, float), std::__ndk1::basic_string<char, std::__ndk1::char_traits<char>, std::__ndk1::allocator<char> > const&, tulip::hook::TulipConvention, tulip::hook::HookMetadata const&)
FUNC 158d68 50 0 geode::modifier::AsStaticFunction_update<hook22<(anonymous namespace)::hook22Parent>, void (hook22<(anonymous namespace)::hook22Parent>::*)(float)>::Impl<void (hook22<(anonymous namespace)::hook22Parent>::*)(float)>::function(hook22<(anonymous namespace)::hook22Parent>*, float)
FUNC 158db8 60 0 geode::modifier::AsStaticFunction_fadeOutStreak2<hook22<(anonymous namespace)::hook22Parent>, void (hook22<(anonymous namespace)::hook22Parent>::*)(float)>::Impl<void (hook22<(anonymous namespace)::hook22Parent>::*)(float)>::function(hook22<(anonymous namespace)::hook22Parent>*, float)
FUNC 158e18 b0 0 geode::modifier::AsStaticFunction_placeStreakPoint<hook22<(anonymous namespace)::hook22Parent>, void (hook22<(anonymous namespace)::hook22Parent>::*)()>::Impl<void (hook22<(anonymous namespace)::hook22Parent>::*)()>::function(hook22<(anonymous namespace)::hook22Parent>*)
FUNC 158ec8 8c 0 _ZN5geode9addresser9Addresser14cachedInstanceI12PlayerObjectEEPT_vQ18HasZeroConstructorIS4_E
FUNC 158f54 2b0 0 PlayerObject::PlayerObject(geode::ZeroConstructorType)
FUNC 159204 1c 0 gd::map<int, bool>::~map()
FUNC 159220 78 0 geode::stl::unordered_map<int, GameObject*, geode::stl::hash<int>, geode::stl::equal_to<int>, std::__ndk1::allocator<std::__ndk1::pair<int const, GameObject*> > >::~unordered_map()
FUNC 159298 78 0 geode::stl::unordered_map<int, GJPointDouble, geode::stl::hash<int>, geode::stl::equal_to<int>, std::__ndk1::allocator<std::__ndk1::pair<int const, GJPointDouble> > >::~unordered_map()
FUNC 159310 48 0 GameObject::~GameObject()
FUNC 159358 4c 0 gd::map<int, bool>::erase(geode::stl::_rb_tree_node<std::__ndk1::pair<int, bool> >*)
FUNC 1593a4 678 0 __cxx_global_var_init.33
FUNC 159a1c 1c 0 geode::modifier::ModifyBase<geode::modifier::ModifyDerive<hook9<(anonymous namespace)::hook9Parent>, EndLevelLayer> >::~ModifyBase()
FUNC 159a38 394 0 geode::modifier::ModifyDerive<hook9<(anonymous namespace)::hook9Parent>, EndLevelLayer>::apply()
FUNC 159dcc 4 0 geode::modifier::ModifyBase<geode::modifier::ModifyDerive<hook9<(anonymous namespace)::hook9Parent>, EndLevelLayer> >::apply()
FUNC 159dd0 74 0 hook9<(anonymous namespace)::hook9Parent>::onModify<geode::modifier::ModifyBase<geode::modifier::ModifyDerive<hook9<(anonymous namespace)::hook9Parent>, EndLevelLayer> > >(geode::modifier::ModifyBase<geode::modifier::ModifyDerive<hook9<(anonymous namespace)::hook9Parent>, EndLevelLayer> >&)::{lambda()#1}::~{lambda()#1}()
FUNC 159e44 80 0 std::__ndk1::__function::__func<hook9<(anonymous namespace)::hook9Parent>::onModify<geode::modifier::ModifyBase<geode::modifier::ModifyDerive<hook9<(anonymous namespace)::hook9Parent>, EndLevelLayer> > >(geode::modifier::ModifyBase<geode::modifier::ModifyDerive<hook9<(anonymous namespace)::hook9Parent>, EndLevelLayer> >&)::{lambda()#1}, std::__ndk1::allocator<hook9<(anonymous namespace)::hook9Parent>::onModify<geode::modifier::ModifyBase<geode::modifier::ModifyDerive<hook9<(anonymous namespace)::hook9Parent>, EndLevelLayer> > >(geode::modifier::ModifyBase<geode::modifier::ModifyDerive<hook9<(anonymous namespace)::hook9Parent>, EndLevelLayer> >&)::{lambda()#1}>, void ()>::~__func()
FUNC 159ec4 80 0 std::__ndk1::__function::__func<hook9<(anonymous namespace)::hook9Parent>::onModify<geode::modifier::ModifyBase<geode::modifier::ModifyDerive<hook9<(anonymous namespace)::hook9Parent>, EndLevelLayer> > >(geode::modifier::ModifyBase<geode::modifier::ModifyDerive<hook9<(anonymous namespace)::hook9Parent>, EndLevelLayer> >&)::{lambda()#1}, std::__ndk1::allocator<hook9<(anonymous namespace)::hook9Parent>::onModify<geode::modifier::ModifyBase<geode::modifier::ModifyDerive<hook9<(anonymous namespace)::hook9Parent>, EndLevelLayer> > >(geode::modifier::ModifyBase<geode::modifier::ModifyDerive<hook9<(anonymous namespace)::hook9Parent>, EndLevelLayer> >&)::{lambda()#1}>, void ()>::~__func()
FUNC 159f44 d4 0 std::__ndk1::__function::__func<hook9<(anonymous namespace)::hook9Parent>::onModify<geode::modifier::ModifyBase<geode::modifier::ModifyDerive<hook9<(anonymous namespace)::hook9Parent>, EndLevelLayer> > >(geode::modifier::ModifyBase<geode::modifier::ModifyDerive<hook9<(anonymous namespace)::hook9Parent>, EndLevelLayer> >&)::{lambda()#1}, std::__ndk1::allocator<hook9<(anonymous namespace)::hook9Parent>::onModify<geode::modifier::ModifyBase<geode::modifier::ModifyDerive<hook9<(anonymous namespace)::hook9Parent>, EndLevelLayer> > >(geode::modifier::ModifyBase<geode::modifier::ModifyDerive<hook9<(anonymous namespace)::hook9Parent>, EndLevelLayer> >&)::{lambda()#1}>, void ()>::__clone() const
FUNC 15a018 c0 0 std::__ndk1::__function::__func<hook9<(anonymous namespace)::hook9Parent>::onModify<geode::modifier::ModifyBase<geode::modifier::ModifyDerive<hook9<(anonymous namespace)::hook9Parent>, EndLevelLayer> > >(geode::modifier::ModifyBase<geode::modifier::ModifyDerive<hook9<(anonymous namespace)::hook9Parent>, EndLevelLayer> >&)::{lambda()#1}, std::__ndk1::allocator<hook9<(anonymous namespace)::hook9Parent>::onModify<geode::modifier::ModifyBase<geode::modifier::ModifyDerive<hook9<(anonymous namespace)::hook9Parent>, EndLevelLayer> > >(geode::modifier::ModifyBase<geode::modifier::ModifyDerive<hook9<(anonymous namespace)::hook9Parent>, EndLevelLayer> >&)::{lambda()#1}>, void ()>::__clone(std::__ndk1::__function::__base<void ()>*) const
FUNC 15a0d8 74 0 std::__ndk1::__function::__func<hook9<(anonymous namespace)::hook9Parent>::onModify<geode::modifier::ModifyBase<geode::modifier::ModifyDerive<hook9<(anonymous namespace)::hook9Parent>, EndLevelLayer> > >(geode::modifier::ModifyBase<geode::modifier::ModifyDerive<hook9<(anonymous namespace)::hook9Parent>, EndLevelLayer> >&)::{lambda()#1}, std::__ndk1::allocator<hook9<(anonymous namespace)::hook9Parent>::onModify<geode::modifier::ModifyBase<geode::modifier::ModifyDerive<hook9<(anonymous namespace)::hook9Parent>, EndLevelLayer> > >(geode::modifier::ModifyBase<geode::modifier::ModifyDerive<hook9<(anonymous namespace)::hook9Parent>, EndLevelLayer> >&)::{lambda()#1}>, void ()>::destroy()
FUNC 15a14c 74 0 std::__ndk1::__function::__func<hook9<(anonymous namespace)::hook9Parent>::onModify<geode::modifier::ModifyBase<geode::modifier::ModifyDerive<hook9<(anonymous namespace)::hook9Parent>, EndLevelLayer> > >(geode::modifier::ModifyBase<geode::modifier::ModifyDerive<hook9<(anonymous namespace)::hook9Parent>, EndLevelLayer> >&)::{lambda()#1}, std::__ndk1::allocator<hook9<(anonymous namespace)::hook9Parent>::onModify<geode::modifier::ModifyBase<geode::modifier::ModifyDerive<hook9<(anonymous namespace)::hook9Parent>, EndLevelLayer> > >(geode::modifier::ModifyBase<geode::modifier::ModifyDerive<hook9<(anonymous namespace)::hook9Parent>, EndLevelLayer> >&)::{lambda()#1}>, void ()>::destroy_deallocate()
FUNC 15a1c0 13c 0 std::__ndk1::__function::__func<hook9<(anonymous namespace)::hook9Parent>::onModify<geode::modifier::ModifyBase<geode::modifier::ModifyDerive<hook9<(anonymous namespace)::hook9Parent>, EndLevelLayer> > >(geode::modifier::ModifyBase<geode::modifier::ModifyDerive<hook9<(anonymous namespace)::hook9Parent>, EndLevelLayer> >&)::{lambda()#1}, std::__ndk1::allocator<hook9<(anonymous namespace)::hook9Parent>::onModify<geode::modifier::ModifyBase<geode::modifier::ModifyDerive<hook9<(anonymous namespace)::hook9Parent>, EndLevelLayer> > >(geode::modifier::ModifyBase<geode::modifier::ModifyDerive<hook9<(anonymous namespace)::hook9Parent>, EndLevelLayer> >&)::{lambda()#1}>, void ()>::operator()()
FUNC 15a2fc 1c 0 std::__ndk1::__function::__func<hook9<(anonymous namespace)::hook9Parent>::onModify<geode::modifier::ModifyBase<geode::modifier::ModifyDerive<hook9<(anonymous namespace)::hook9Parent>, EndLevelLayer> > >(geode::modifier::ModifyBase<geode::modifier::ModifyDerive<hook9<(anonymous namespace)::hook9Parent>, EndLevelLayer> >&)::{lambda()#1}, std::__ndk1::allocator<hook9<(anonymous namespace)::hook9Parent>::onModify<geode::modifier::ModifyBase<geode::modifier::ModifyDerive<hook9<(anonymous namespace)::hook9Parent>, EndLevelLayer> > >(geode::modifier::ModifyBase<geode::modifier::ModifyDerive<hook9<(anonymous namespace)::hook9Parent>, EndLevelLayer> >&)::{lambda()#1}>, void ()>::target(std::type_info const&) const
FUNC 15a318 c 0 std::__ndk1::__function::__func<hook9<(anonymous namespace)::hook9Parent>::onModify<geode::modifier::ModifyBase<geode::modifier::ModifyDerive<hook9<(anonymous namespace)::hook9Parent>, EndLevelLayer> > >(geode::modifier::ModifyBase<geode::modifier::ModifyDerive<hook9<(anonymous namespace)::hook9Parent>, EndLevelLayer> >&)::{lambda()#1}, std::__ndk1::allocator<hook9<(anonymous namespace)::hook9Parent>::onModify<geode::modifier::ModifyBase<geode::modifier::ModifyDerive<hook9<(anonymous namespace)::hook9Parent>, EndLevelLayer> > >(geode::modifier::ModifyBase<geode::modifier::ModifyDerive<hook9<(anonymous namespace)::hook9Parent>, EndLevelLayer> >&)::{lambda()#1}>, void ()>::target_type() const
FUNC 15a324 204 0 geode::modifier::AsStaticFunction_customSetup<hook9<(anonymous namespace)::hook9Parent>, void (hook9<(anonymous namespace)::hook9Parent>::*)()>::Impl<void (hook9<(anonymous namespace)::hook9Parent>::*)()>::function(hook9<(anonymous namespace)::hook9Parent>*)
FUNC 15a528 678 0 __cxx_global_var_init.30
FUNC 15aba0 670 0 __cxx_global_var_init.31
FUNC 15b210 1c 0 geode::modifier::ModifyBase<geode::modifier::ModifyDerive<hook9<(anonymous namespace)::hook9Parent>, FMODAudioEngine> >::~ModifyBase()
FUNC 15b22c 1c 0 geode::modifier::ModifyBase<geode::modifier::ModifyDerive<hook17<(anonymous namespace)::hook17Parent>, MusicDownloadManager> >::~ModifyBase()
FUNC 15b248 478 0 geode::modifier::ModifyDerive<hook9<(anonymous namespace)::hook9Parent>, FMODAudioEngine>::apply()
FUNC 15b6c0 4 0 geode::modifier::ModifyBase<geode::modifier::ModifyDerive<hook9<(anonymous namespace)::hook9Parent>, FMODAudioEngine> >::apply()
FUNC 15b6c4 74 0 hook9<(anonymous namespace)::hook9Parent>::onModify<geode::modifier::ModifyBase<geode::modifier::ModifyDerive<hook9<(anonymous namespace)::hook9Parent>, FMODAudioEngine> > >(geode::modifier::ModifyBase<geode::modifier::ModifyDerive<hook9<(anonymous namespace)::hook9Parent>, FMODAudioEngine> >&)::{lambda()#1}::~{lambda()#1}()
FUNC 15b738 80 0 std::__ndk1::__function::__func<hook9<(anonymous namespace)::hook9Parent>::onModify<geode::modifier::ModifyBase<geode::modifier::ModifyDerive<hook9<(anonymous namespace)::hook9Parent>, FMODAudioEngine> > >(geode::modifier::ModifyBase<geode::modifier::ModifyDerive<hook9<(anonymous namespace)::hook9Parent>, FMODAudioEngine> >&)::{lambda()#1}, std::__ndk1::allocator<hook9<(anonymous namespace)::hook9Parent>::onModify<geode::modifier::ModifyBase<geode::modifier::ModifyDerive<hook9<(anonymous namespace)::hook9Parent>, FMODAudioEngine> > >(geode::modifier::ModifyBase<geode::modifier::ModifyDerive<hook9<(anonymous namespace)::hook9Parent>, FMODAudioEngine> >&)::{lambda()#1}>, void ()>::~__func()
FUNC 15b7b8 80 0 std::__ndk1::__function::__func<hook9<(anonymous namespace)::hook9Parent>::onModify<geode::modifier::ModifyBase<geode::modifier::ModifyDerive<hook9<(anonymous namespace)::hook9Parent>, FMODAudioEngine> > >(geode::modifier::ModifyBase<geode::modifier::ModifyDerive<hook9<(anonymous namespace)::hook9Parent>, FMODAudioEngine> >&)::{lambda()#1}, std::__ndk1::allocator<hook9<(anonymous namespace)::hook9Parent>::onModify<geode::modifier::ModifyBase<geode::modifier::ModifyDerive<hook9<(anonymous namespace)::hook9Parent>, FMODAudioEngine> > >(geode::modifier::ModifyBase<geode::modifier::ModifyDerive<hook9<(anonymous namespace)::hook9Parent>, FMODAudioEngine> >&)::{lambda()#1}>, void ()>::~__func()
FUNC 15b838 d4 0 std::__ndk1::__function::__func<hook9<(anonymous namespace)::hook9Parent>::onModify<geode::modifier::ModifyBase<geode::modifier::ModifyDerive<hook9<(anonymous namespace)::hook9Parent>, FMODAudioEngine> > >(geode::modifier::ModifyBase<geode::modifier::ModifyDerive<hook9<(anonymous namespace)::hook9Parent>, FMODAudioEngine> >&)::{lambda()#1}, std::__ndk1::allocator<hook9<(anonymous namespace)::hook9Parent>::onModify<geode::modifier::ModifyBase<geode::modifier::ModifyDerive<hook9<(anonymous namespace)::hook9Parent>, FMODAudioEngine> > >(geode::modifier::ModifyBase<geode::modifier::ModifyDerive<hook9<(anonymous namespace)::hook9Parent>, FMODAudioEngine> >&)::{lambda()#1}>, void ()>::__clone() const
FUNC 15b90c c0 0 std::__ndk1::__function::__func<hook9<(anonymous namespace)::hook9Parent>::onModify<geode::modifier::ModifyBase<geode::modifier::ModifyDerive<hook9<(anonymous namespace)::hook9Parent>, FMODAudioEngine> > >(geode::modifier::ModifyBase<geode::modifier::ModifyDerive<hook9<(anonymous namespace)::hook9Parent>, FMODAudioEngine> >&)::{lambda()#1}, std::__ndk1::allocator<hook9<(anonymous namespace)::hook9Parent>::onModify<geode::modifier::ModifyBase<geode::modifier::ModifyDerive<hook9<(anonymous namespace)::hook9Parent>, FMODAudioEngine> > >(geode::modifier::ModifyBase<geode::modifier::ModifyDerive<hook9<(anonymous namespace)::hook9Parent>, FMODAudioEngine> >&)::{lambda()#1}>, void ()>::__clone(std::__ndk1::__function::__base<void ()>*) const
FUNC 15b9cc 74 0 std::__ndk1::__function::__func<hook9<(anonymous namespace)::hook9Parent>::onModify<geode::modifier::ModifyBase<geode::modifier::ModifyDerive<hook9<(anonymous namespace)::hook9Parent>, FMODAudioEngine> > >(geode::modifier::ModifyBase<geode::modifier::ModifyDerive<hook9<(anonymous namespace)::hook9Parent>, FMODAudioEngine> >&)::{lambda()#1}, std::__ndk1::allocator<hook9<(anonymous namespace)::hook9Parent>::onModify<geode::modifier::ModifyBase<geode::modifier::ModifyDerive<hook9<(anonymous namespace)::hook9Parent>, FMODAudioEngine> > >(geode::modifier::ModifyBase<geode::modifier::ModifyDerive<hook9<(anonymous namespace)::hook9Parent>, FMODAudioEngine> >&)::{lambda()#1}>, void ()>::destroy()
FUNC 15ba40 74 0 std::__ndk1::__function::__func<hook9<(anonymous namespace)::hook9Parent>::onModify<geode::modifier::ModifyBase<geode::modifier::ModifyDerive<hook9<(anonymous namespace)::hook9Parent>, FMODAudioEngine> > >(geode::modifier::ModifyBase<geode::modifier::ModifyDerive<hook9<(anonymous namespace)::hook9Parent>, FMODAudioEngine> >&)::{lambda()#1}, std::__ndk1::allocator<hook9<(anonymous namespace)::hook9Parent>::onModify<geode::modifier::ModifyBase<geode::modifier::ModifyDerive<hook9<(anonymous namespace)::hook9Parent>, FMODAudioEngine> > >(geode::modifier::ModifyBase<geode::modifier::ModifyDerive<hook9<(anonymous namespace)::hook9Parent>, FMODAudioEngine> >&)::{lambda()#1}>, void ()>::destroy_deallocate()
FUNC 15bab4 118 0 std::__ndk1::__function::__func<hook9<(anonymous namespace)::hook9Parent>::onModify<geode::modifier::ModifyBase<geode::modifier::ModifyDerive<hook9<(anonymous namespace)::hook9Parent>, FMODAudioEngine> > >(geode::modifier::ModifyBase<geode::modifier::ModifyDerive<hook9<(anonymous namespace)::hook9Parent>, FMODAudioEngine> >&)::{lambda()#1}, std::__ndk1::allocator<hook9<(anonymous namespace)::hook9Parent>::onModify<geode::modifier::ModifyBase<geode::modifier::ModifyDerive<hook9<(anonymous namespace)::hook9Parent>, FMODAudioEngine> > >(geode::modifier::ModifyBase<geode::modifier::ModifyDerive<hook9<(anonymous namespace)::hook9Parent>, FMODAudioEngine> >&)::{lambda()#1}>, void ()>::operator()()
FUNC 15bbcc 1c 0 std::__ndk1::__function::__func<hook9<(anonymous namespace)::hook9Parent>::onModify<geode::modifier::ModifyBase<geode::modifier::ModifyDerive<hook9<(anonymous namespace)::hook9Parent>, FMODAudioEngine> > >(geode::modifier::ModifyBase<geode::modifier::ModifyDerive<hook9<(anonymous namespace)::hook9Parent>, FMODAudioEngine> >&)::{lambda()#1}, std::__ndk1::allocator<hook9<(anonymous namespace)::hook9Parent>::onModify<geode::modifier::ModifyBase<geode::modifier::ModifyDerive<hook9<(anonymous namespace)::hook9Parent>, FMODAudioEngine> > >(geode::modifier::ModifyBase<geode::modifier::ModifyDerive<hook9<(anonymous namespace)::hook9Parent>, FMODAudioEngine> >&)::{lambda()#1}>, void ()>::target(std::type_info const&) const
FUNC 15bbe8 c 0 std::__ndk1::__function::__func<hook9<(anonymous namespace)::hook9Parent>::onModify<geode::modifier::ModifyBase<geode::modifier::ModifyDerive<hook9<(anonymous namespace)::hook9Parent>, FMODAudioEngine> > >(geode::modifier::ModifyBase<geode::modifier::ModifyDerive<hook9<(anonymous namespace)::hook9Parent>, FMODAudioEngine> >&)::{lambda()#1}, std::__ndk1::allocator<hook9<(anonymous namespace)::hook9Parent>::onModify<geode::modifier::ModifyBase<geode::modifier::ModifyDerive<hook9<(anonymous namespace)::hook9Parent>, FMODAudioEngine> > >(geode::modifier::ModifyBase<geode::modifier::ModifyDerive<hook9<(anonymous namespace)::hook9Parent>, FMODAudioEngine> >&)::{lambda()#1}>, void ()>::target_type() const
FUNC 15bbf4 d4 0 geode::modifier::AsStaticFunction_playEffect<hook9<(anonymous namespace)::hook9Parent>, void (hook9<(anonymous namespace)::hook9Parent>::*)(gd::string, float, float, float)>::Impl<void (hook9<(anonymous namespace)::hook9Parent>::*)(gd::string, float, float, float)>::function(hook9<(anonymous namespace)::hook9Parent>*, gd::string, float, float, float)
FUNC 15bcc8 3d0 0 geode::modifier::ModifyDerive<hook17<(anonymous namespace)::hook17Parent>, MusicDownloadManager>::apply()
FUNC 15c098 4 0 geode::modifier::ModifyBase<geode::modifier::ModifyDerive<hook17<(anonymous namespace)::hook17Parent>, MusicDownloadManager> >::apply()
FUNC 15c09c 74 0 hook17<(anonymous namespace)::hook17Parent>::onModify<geode::modifier::ModifyBase<geode::modifier::ModifyDerive<hook17<(anonymous namespace)::hook17Parent>, MusicDownloadManager> > >(geode::modifier::ModifyBase<geode::modifier::ModifyDerive<hook17<(anonymous namespace)::hook17Parent>, MusicDownloadManager> >&)::{lambda()#1}::~{lambda()#1}()
FUNC 15c110 80 0 std::__ndk1::__function::__func<hook17<(anonymous namespace)::hook17Parent>::onModify<geode::modifier::ModifyBase<geode::modifier::ModifyDerive<hook17<(anonymous namespace)::hook17Parent>, MusicDownloadManager> > >(geode::modifier::ModifyBase<geode::modifier::ModifyDerive<hook17<(anonymous namespace)::hook17Parent>, MusicDownloadManager> >&)::{lambda()#1}, std::__ndk1::allocator<hook17<(anonymous namespace)::hook17Parent>::onModify<geode::modifier::ModifyBase<geode::modifier::ModifyDerive<hook17<(anonymous namespace)::hook17Parent>, MusicDownloadManager> > >(geode::modifier::ModifyBase<geode::modifier::ModifyDerive<hook17<(anonymous namespace)::hook17Parent>, MusicDownloadManager> >&)::{lambda()#1}>, void ()>::~__func()
FUNC 15c190 80 0 std::__ndk1::__function::__func<hook17<(anonymous namespace)::hook17Parent>::onModify<geode::modifier::ModifyBase<geode::modifier::ModifyDerive<hook17<(anonymous namespace)::hook17Parent>, MusicDownloadManager> > >(geode::modifier::ModifyBase<geode::modifier::ModifyDerive<hook17<(anonymous namespace)::hook17Parent>, MusicDownloadManager> >&)::{lambda()#1}, std::__ndk1::allocator<hook17<(anonymous namespace)::hook17Parent>::onModify<geode::modifier::ModifyBase<geode::modifier::ModifyDerive<hook17<(anonymous namespace)::hook17Parent>, MusicDownloadManager> > >(geode::modifier::ModifyBase<geode::modifier::ModifyDerive<hook17<(anonymous namespace)::hook17Parent>, MusicDownloadManager> >&)::{lambda()#1}>, void ()>::~__func()
FUNC 15c210 d4 0 std::__ndk1::__function::__func<hook17<(anonymous namespace)::hook17Parent>::onModify<geode::modifier::ModifyBase<geode::modifier::ModifyDerive<hook17<(anonymous namespace)::hook17Parent>, MusicDownloadManager> > >(geode::modifier::ModifyBase<geode::modifier::ModifyDerive<hook17<(anonymous namespace)::hook17Parent>, MusicDownloadManager> >&)::{lambda()#1}, std::__ndk1::allocator<hook17<(anonymous namespace)::hook17Parent>::onModify<geode::modifier::ModifyBase<geode::modifier::ModifyDerive<hook17<(anonymous namespace)::hook17Parent>, MusicDownloadManager> > >(geode::modifier::ModifyBase<geode::modifier::ModifyDerive<hook17<(anonymous namespace)::hook17Parent>, MusicDownloadManager> >&)::{lambda()#1}>, void ()>::__clone() const
FUNC 15c2e4 c0 0 std::__ndk1::__function::__func<hook17<(anonymous namespace)::hook17Parent>::onModify<geode::modifier::ModifyBase<geode::modifier::ModifyDerive<hook17<(anonymous namespace)::hook17Parent>, MusicDownloadManager> > >(geode::modifier::ModifyBase<geode::modifier::ModifyDerive<hook17<(anonymous namespace)::hook17Parent>, MusicDownloadManager> >&)::{lambda()#1}, std::__ndk1::allocator<hook17<(anonymous namespace)::hook17Parent>::onModify<geode::modifier::ModifyBase<geode::modifier::ModifyDerive<hook17<(anonymous namespace)::hook17Parent>, MusicDownloadManager> > >(geode::modifier::ModifyBase<geode::modifier::ModifyDerive<hook17<(anonymous namespace)::hook17Parent>, MusicDownloadManager> >&)::{lambda()#1}>, void ()>::__clone(std::__ndk1::__function::__base<void ()>*) const
FUNC 15c3a4 74 0 std::__ndk1::__function::__func<hook17<(anonymous namespace)::hook17Parent>::onModify<geode::modifier::ModifyBase<geode::modifier::ModifyDerive<hook17<(anonymous namespace)::hook17Parent>, MusicDownloadManager> > >(geode::modifier::ModifyBase<geode::modifier::ModifyDerive<hook17<(anonymous namespace)::hook17Parent>, MusicDownloadManager> >&)::{lambda()#1}, std::__ndk1::allocator<hook17<(anonymous namespace)::hook17Parent>::onModify<geode::modifier::ModifyBase<geode::modifier::ModifyDerive<hook17<(anonymous namespace)::hook17Parent>, MusicDownloadManager> > >(geode::modifier::ModifyBase<geode::modifier::ModifyDerive<hook17<(anonymous namespace)::hook17Parent>, MusicDownloadManager> >&)::{lambda()#1}>, void ()>::destroy()
FUNC 15c418 74 0 std::__ndk1::__function::__func<hook17<(anonymous namespace)::hook17Parent>::onModify<geode::modifier::ModifyBase<geode::modifier::ModifyDerive<hook17<(anonymous namespace)::hook17Parent>, MusicDownloadManager> > >(geode::modifier::ModifyBase<geode::modifier::ModifyDerive<hook17<(anonymous namespace)::hook17Parent>, MusicDownloadManager> >&)::{lambda()#1}, std::__ndk1::allocator<hook17<(anonymous namespace)::hook17Parent>::onModify<geode::modifier::ModifyBase<geode::modifier::ModifyDerive<hook17<(anonymous namespace)::hook17Parent>, MusicDownloadManager> > >(geode::modifier::ModifyBase<geode::modifier::ModifyDerive<hook17<(anonymous namespace)::hook17Parent>, MusicDownloadManager> >&)::{lambda()#1}>, void ()>::destroy_deallocate()
FUNC 15c48c 118 0 std::__ndk1::__function::__func<hook17<(anonymous namespace)::hook17Parent>::onModify<geode::modifier::ModifyBase<geode::modifier::ModifyDerive<hook17<(anonymous namespace)::hook17Parent>, MusicDownloadManager> > >(geode::modifier::ModifyBase<geode::modifier::ModifyDerive<hook17<(anonymous namespace)::hook17Parent>, MusicDownloadManager> >&)::{lambda()#1}, std::__ndk1::allocator<hook17<(anonymous namespace)::hook17Parent>::onModify<geode::modifier::ModifyBase<geode::modifier::ModifyDerive<hook17<(anonymous namespace)::hook17Parent>, MusicDownloadManager> > >(geode::modifier::ModifyBase<geode::modifier::ModifyDerive<hook17<(anonymous namespace)::hook17Parent>, MusicDownloadManager> >&)::{lambda()#1}>, void ()>::operator()()
FUNC 15c5a4 1c 0 std::__ndk1::__function::__func<hook17<(anonymous namespace)::hook17Parent>::onModify<geode::modifier::ModifyBase<geode::modifier::ModifyDerive<hook17<(anonymous namespace)::hook17Parent>, MusicDownloadManager> > >(geode::modifier::ModifyBase<geode::modifier::ModifyDerive<hook17<(anonymous namespace)::hook17Parent>, MusicDownloadManager> >&)::{lambda()#1}, std::__ndk1::allocator<hook17<(anonymous namespace)::hook17Parent>::onModify<geode::modifier::ModifyBase<geode::modifier::ModifyDerive<hook17<(anonymous namespace)::hook17Parent>, MusicDownloadManager> > >(geode::modifier::ModifyBase<geode::modifier::ModifyDerive<hook17<(anonymous namespace)::hook17Parent>, MusicDownloadManager> >&)::{lambda()#1}>, void ()>::target(std::type_info const&) const
FUNC 15c5c0 c 0 std::__ndk1::__function::__func<hook17<(anonymous namespace)::hook17Parent>::onModify<geode::modifier::ModifyBase<geode::modifier::ModifyDerive<hook17<(anonymous namespace)::hook17Parent>, MusicDownloadManager> > >(geode::modifier::ModifyBase<geode::modifier::ModifyDerive<hook17<(anonymous namespace)::hook17Parent>, MusicDownloadManager> >&)::{lambda()#1}, std::__ndk1::allocator<hook17<(anonymous namespace)::hook17Parent>::onModify<geode::modifier::ModifyBase<geode::modifier::ModifyDerive<hook17<(anonymous namespace)::hook17Parent>, MusicDownloadManager> > >(geode::modifier::ModifyBase<geode::modifier::ModifyDerive<hook17<(anonymous namespace)::hook17Parent>, MusicDownloadManager> >&)::{lambda()#1}>, void ()>::target_type() const
FUNC 15c5cc 10 0 geode::modifier::AsStaticFunction_pathForSFX<hook17<(anonymous namespace)::hook17Parent>, gd::string (hook17<(anonymous namespace)::hook17Parent>::*)(int)>::Impl<gd::string (hook17<(anonymous namespace)::hook17Parent>::*)(int)>::function(hook17<(anonymous namespace)::hook17Parent>*, int)
FUNC 15c5dc 400 0 __cxx_global_var_init.30
FUNC 15c9dc 1c 0 geode::modifier::ModifyBase<geode::modifier::ModifyDerive<hook8<(anonymous namespace)::hook8Parent>, GJBaseGameLayer> >::~ModifyBase()
FUNC 15c9f8 388 0 geode::modifier::ModifyDerive<hook8<(anonymous namespace)::hook8Parent>, GJBaseGameLayer>::apply()
FUNC 15cd80 4 0 geode::modifier::ModifyBase<geode::modifier::ModifyDerive<hook8<(anonymous namespace)::hook8Parent>, GJBaseGameLayer> >::apply()
FUNC 15cd84 6c 0 geode::addresser::getVirtual<void (GJBaseGameLayer::*)()>(void (GJBaseGameLayer::*)())
FUNC 15cdf0 168 0 geode::modifier::AsStaticFunction_updateDebugDraw<hook8<(anonymous namespace)::hook8Parent>, void (hook8<(anonymous namespace)::hook8Parent>::*)()>::Impl<void (hook8<(anonymous namespace)::hook8Parent>::*)()>::function(hook8<(anonymous namespace)::hook8Parent>*)
FUNC 15cf58 20 0 geode::cocos::CCArrayExt<GameObject*, GameObject>::~CCArrayExt()
FUNC 15cf78 400 0 __cxx_global_var_init.30
FUNC 15d378 1c 0 geode::modifier::ModifyBase<geode::modifier::ModifyDerive<hook8<(anonymous namespace)::hook8Parent>, PlayerObject> >::~ModifyBase()
FUNC 15d394 3dc 0 geode::modifier::ModifyDerive<hook8<(anonymous namespace)::hook8Parent>, PlayerObject>::apply()
FUNC 15d770 4 0 geode::modifier::ModifyBase<geode::modifier::ModifyDerive<hook8<(anonymous namespace)::hook8Parent>, PlayerObject> >::apply()
FUNC 15d774 64 0 geode::modifier::AsStaticFunction_toggleGhostEffect<hook8<(anonymous namespace)::hook8Parent>, void (hook8<(anonymous namespace)::hook8Parent>::*)(GhostType)>::Impl<void (hook8<(anonymous namespace)::hook8Parent>::*)(GhostType)>::function(hook8<(anonymous namespace)::hook8Parent>*, GhostType)
FUNC 15d7d8 668 0 __cxx_global_var_init.30
FUNC 15de40 1c 0 geode::modifier::ModifyBase<geode::modifier::ModifyDerive<hook8<(anonymous namespace)::hook8Parent>, PlayLayer> >::~ModifyBase()
FUNC 15de5c 400 0 geode::modifier::ModifyDerive<hook8<(anonymous namespace)::hook8Parent>, PlayLayer>::apply()
FUNC 15e25c 4 0 geode::modifier::ModifyBase<geode::modifier::ModifyDerive<hook8<(anonymous namespace)::hook8Parent>, PlayLayer> >::apply()
FUNC 15e260 74 0 hook8<(anonymous namespace)::hook8Parent>::onModify<geode::modifier::ModifyBase<geode::modifier::ModifyDerive<hook8<(anonymous namespace)::hook8Parent>, PlayLayer> > >(geode::modifier::ModifyBase<geode::modifier::ModifyDerive<hook8<(anonymous namespace)::hook8Parent>, PlayLayer> >&)::{lambda()#1}::~{lambda()#1}()
FUNC 15e2d4 80 0 std::__ndk1::__function::__func<hook8<(anonymous namespace)::hook8Parent>::onModify<geode::modifier::ModifyBase<geode::modifier::ModifyDerive<hook8<(anonymous namespace)::hook8Parent>, PlayLayer> > >(geode::modifier::ModifyBase<geode::modifier::ModifyDerive<hook8<(anonymous namespace)::hook8Parent>, PlayLayer> >&)::{lambda()#1}, std::__ndk1::allocator<hook8<(anonymous namespace)::hook8Parent>::onModify<geode::modifier::ModifyBase<geode::modifier::ModifyDerive<hook8<(anonymous namespace)::hook8Parent>, PlayLayer> > >(geode::modifier::ModifyBase<geode::modifier::ModifyDerive<hook8<(anonymous namespace)::hook8Parent>, PlayLayer> >&)::{lambda()#1}>, void ()>::~__func()
FUNC 15e354 80 0 std::__ndk1::__function::__func<hook8<(anonymous namespace)::hook8Parent>::onModify<geode::modifier::ModifyBase<geode::modifier::ModifyDerive<hook8<(anonymous namespace)::hook8Parent>, PlayLayer> > >(geode::modifier::ModifyBase<geode::modifier::ModifyDerive<hook8<(anonymous namespace)::hook8Parent>, PlayLayer> >&)::{lambda()#1}, std::__ndk1::allocator<hook8<(anonymous namespace)::hook8Parent>::onModify<geode::modifier::ModifyBase<geode::modifier::ModifyDerive<hook8<(anonymous namespace)::hook8Parent>, PlayLayer> > >(geode::modifier::ModifyBase<geode::modifier::ModifyDerive<hook8<(anonymous namespace)::hook8Parent>, PlayLayer> >&)::{lambda()#1}>, void ()>::~__func()
FUNC 15e3d4 d4 0 std::__ndk1::__function::__func<hook8<(anonymous namespace)::hook8Parent>::onModify<geode::modifier::ModifyBase<geode::modifier::ModifyDerive<hook8<(anonymous namespace)::hook8Parent>, PlayLayer> > >(geode::modifier::ModifyBase<geode::modifier::ModifyDerive<hook8<(anonymous namespace)::hook8Parent>, PlayLayer> >&)::{lambda()#1}, std::__ndk1::allocator<hook8<(anonymous namespace)::hook8Parent>::onModify<geode::modifier::ModifyBase<geode::modifier::ModifyDerive<hook8<(anonymous namespace)::hook8Parent>, PlayLayer> > >(geode::modifier::ModifyBase<geode::modifier::ModifyDerive<hook8<(anonymous namespace)::hook8Parent>, PlayLayer> >&)::{lambda()#1}>, void ()>::__clone() const
FUNC 15e4a8 c0 0 std::__ndk1::__function::__func<hook8<(anonymous namespace)::hook8Parent>::onModify<geode::modifier::ModifyBase<geode::modifier::ModifyDerive<hook8<(anonymous namespace)::hook8Parent>, PlayLayer> > >(geode::modifier::ModifyBase<geode::modifier::ModifyDerive<hook8<(anonymous namespace)::hook8Parent>, PlayLayer> >&)::{lambda()#1}, std::__ndk1::allocator<hook8<(anonymous namespace)::hook8Parent>::onModify<geode::modifier::ModifyBase<geode::modifier::ModifyDerive<hook8<(anonymous namespace)::hook8Parent>, PlayLayer> > >(geode::modifier::ModifyBase<geode::modifier::ModifyDerive<hook8<(anonymous namespace)::hook8Parent>, PlayLayer> >&)::{lambda()#1}>, void ()>::__clone(std::__ndk1::__function::__base<void ()>*) const
FUNC 15e568 74 0 std::__ndk1::__function::__func<hook8<(anonymous namespace)::hook8Parent>::onModify<geode::modifier::ModifyBase<geode::modifier::ModifyDerive<hook8<(anonymous namespace)::hook8Parent>, PlayLayer> > >(geode::modifier::ModifyBase<geode::modifier::ModifyDerive<hook8<(anonymous namespace)::hook8Parent>, PlayLayer> >&)::{lambda()#1}, std::__ndk1::allocator<hook8<(anonymous namespace)::hook8Parent>::onModify<geode::modifier::ModifyBase<geode::modifier::ModifyDerive<hook8<(anonymous namespace)::hook8Parent>, PlayLayer> > >(geode::modifier::ModifyBase<geode::modifier::ModifyDerive<hook8<(anonymous namespace)::hook8Parent>, PlayLayer> >&)::{lambda()#1}>, void ()>::destroy()
FUNC 15e5dc 74 0 std::__ndk1::__function::__func<hook8<(anonymous namespace)::hook8Parent>::onModify<geode::modifier::ModifyBase<geode::modifier::ModifyDerive<hook8<(anonymous namespace)::hook8Parent>, PlayLayer> > >(geode::modifier::ModifyBase<geode::modifier::ModifyDerive<hook8<(anonymous namespace)::hook8Parent>, PlayLayer> >&)::{lambda()#1}, std::__ndk1::allocator<hook8<(anonymous namespace)::hook8Parent>::onModify<geode::modifier::ModifyBase<geode::modifier::ModifyDerive<hook8<(anonymous namespace)::hook8Parent>, PlayLayer> > >(geode::modifier::ModifyBase<geode::modifier::ModifyDerive<hook8<(anonymous namespace)::hook8Parent>, PlayLayer> >&)::{lambda()#1}>, void ()>::destroy_deallocate()
FUNC 15e650 120 0 std::__ndk1::__function::__func<hook8<(anonymous namespace)::hook8Parent>::onModify<geode::modifier::ModifyBase<geode::modifier::ModifyDerive<hook8<(anonymous namespace)::hook8Parent>, PlayLayer> > >(geode::modifier::ModifyBase<geode::modifier::ModifyDerive<hook8<(anonymous namespace)::hook8Parent>, PlayLayer> >&)::{lambda()#1}, std::__ndk1::allocator<hook8<(anonymous namespace)::hook8Parent>::onModify<geode::modifier::ModifyBase<geode::modifier::ModifyDerive<hook8<(anonymous namespace)::hook8Parent>, PlayLayer> > >(geode::modifier::ModifyBase<geode::modifier::ModifyDerive<hook8<(anonymous namespace)::hook8Parent>, PlayLayer> >&)::{lambda()#1}>, void ()>::operator()()
FUNC 15e770 1c 0 std::__ndk1::__function::__func<hook8<(anonymous namespace)::hook8Parent>::onModify<geode::modifier::ModifyBase<geode::modifier::ModifyDerive<hook8<(anonymous namespace)::hook8Parent>, PlayLayer> > >(geode::modifier::ModifyBase<geode::modifier::ModifyDerive<hook8<(anonymous namespace)::hook8Parent>, PlayLayer> >&)::{lambda()#1}, std::__ndk1::allocator<hook8<(anonymous namespace)::hook8Parent>::onModify<geode::modifier::ModifyBase<geode::modifier::ModifyDerive<hook8<(anonymous namespace)::hook8Parent>, PlayLayer> > >(geode::modifier::ModifyBase<geode::modifier::ModifyDerive<hook8<(anonymous namespace)::hook8Parent>, PlayLayer> >&)::{lambda()#1}>, void ()>::target(std::type_info const&) const
FUNC 15e78c c 0 std::__ndk1::__function::__func<hook8<(anonymous namespace)::hook8Parent>::onModify<geode::modifier::ModifyBase<geode::modifier::ModifyDerive<hook8<(anonymous namespace)::hook8Parent>, PlayLayer> > >(geode::modifier::ModifyBase<geode::modifier::ModifyDerive<hook8<(anonymous namespace)::hook8Parent>, PlayLayer> >&)::{lambda()#1}, std::__ndk1::allocator<hook8<(anonymous namespace)::hook8Parent>::onModify<geode::modifier::ModifyBase<geode::modifier::ModifyDerive<hook8<(anonymous namespace)::hook8Parent>, PlayLayer> > >(geode::modifier::ModifyBase<geode::modifier::ModifyDerive<hook8<(anonymous namespace)::hook8Parent>, PlayLayer> >&)::{lambda()#1}>, void ()>::target_type() const
FUNC 15e798 5c 0 geode::modifier::AsStaticFunction_init<hook8<(anonymous namespace)::hook8Parent>, bool (hook8<(anonymous namespace)::hook8Parent>::*)(GJGameLevel*, bool, bool)>::Impl<bool (hook8<(anonymous namespace)::hook8Parent>::*)(GJGameLevel*, bool, bool)>::function(hook8<(anonymous namespace)::hook8Parent>*, GJGameLevel*, bool, bool)
FUNC 15e7f4 400 0 __cxx_global_var_init.30
FUNC 15ebf4 1c 0 geode::modifier::ModifyBase<geode::modifier::ModifyDerive<hook11<(anonymous namespace)::hook11Parent>, cocos2d::CCMotionStreak> >::~ModifyBase()
FUNC 15ec10 3dc 0 geode::modifier::ModifyDerive<hook11<(anonymous namespace)::hook11Parent>, cocos2d::CCMotionStreak>::apply()
FUNC 15efec 4 0 geode::modifier::ModifyBase<geode::modifier::ModifyDerive<hook11<(anonymous namespace)::hook11Parent>, cocos2d::CCMotionStreak> >::apply()
FUNC 15eff0 6c 0 geode::addresser::getVirtual<void (cocos2d::CCMotionStreak::*)(float)>(void (cocos2d::CCMotionStreak::*)(float))
FUNC 15f05c 64 0 geode::modifier::AsStaticFunction_update<hook11<(anonymous namespace)::hook11Parent>, void (hook11<(anonymous namespace)::hook11Parent>::*)(float)>::Impl<void (hook11<(anonymous namespace)::hook11Parent>::*)(float)>::function(hook11<(anonymous namespace)::hook11Parent>*, float)
FUNC 15f0c0 8c 0 _ZN5geode9addresser9Addresser14cachedInstanceIN7cocos2d14CCMotionStreakEEEPT_vQ18HasZeroConstructorIS5_E
FUNC 15f14c 88 0 cocos2d::CCMotionStreak::CCMotionStreak(geode::ZeroConstructorType)
FUNC 15f1d4 194 0 geode::modifier::FieldIntermediate<SteppedBaseGameLayer, GJBaseGameLayer>::self()
FUNC 15f368 20 0 geode::Ref<CheckpointObject>::~Ref()
FUNC 15f388 2e0 0 SteppedUILayer::updateUI()
FUNC 15f668 148 0 SteppedBaseGameLayer::restoreState()
FUNC 15f7b0 158 0 SteppedBaseGameLayer::stepFrame()
FUNC 15f908 58 0 SteppedUILayer::onTogglePaused(cocos2d::CCObject*)
FUNC 15f960 30 0 SteppedUILayer::onPreviousFrame(cocos2d::CCObject*)
FUNC 15f990 30 0 SteppedUILayer::onStepFrame(cocos2d::CCObject*)
FUNC 15f9c0 828 0 __cxx_global_var_init.42
FUNC 1601e8 1c 0 geode::modifier::ModifyBase<geode::modifier::ModifyDerive<SteppedBaseGameLayer, GJBaseGameLayer> >::~ModifyBase()
FUNC 160204 444 0 __cxx_global_var_init.43
FUNC 160648 1c 0 geode::modifier::ModifyBase<geode::modifier::ModifyDerive<SteppedUILayer, UILayer> >::~ModifyBase()
FUNC 160664 828 0 __cxx_global_var_init.44
FUNC 160e8c 1c 0 geode::modifier::ModifyBase<geode::modifier::ModifyDerive<SteppedKeyboardDispatcher, cocos2d::CCKeyboardDispatcher> >::~ModifyBase()
FUNC 160ea8 74 0 geode::modifier::FieldIntermediate<SteppedBaseGameLayer, GJBaseGameLayer>::fieldDestructor(void*)
FUNC 160f1c 14 0 std::__ndk1::vector<geode::Ref<CheckpointObject>, std::__ndk1::allocator<geode::Ref<CheckpointObject> > >::__throw_length_error[abi:ne180000]() const
FUNC 160f30 188 0 geode::modifier::FieldIntermediate<SteppedUILayer, UILayer>::self()
FUNC 1610b8 4 0 geode::modifier::FieldIntermediate<SteppedUILayer, UILayer>::fieldDestructor(void*)
FUNC 1610bc 6c8 0 geode::modifier::ModifyDerive<SteppedBaseGameLayer, GJBaseGameLayer>::apply()
FUNC 161784 4 0 geode::modifier::ModifyBase<geode::modifier::ModifyDerive<SteppedBaseGameLayer, GJBaseGameLayer> >::apply()
FUNC 161788 24 0 std::__ndk1::__function::__func<SteppedBaseGameLayer::onModify<geode::modifier::ModifyBase<geode::modifier::ModifyDerive<SteppedBaseGameLayer, GJBaseGameLayer> > >(geode::modifier::ModifyBase<geode::modifier::ModifyDerive<SteppedBaseGameLayer, GJBaseGameLayer> >&)::{lambda()#1}, std::__ndk1::allocator<SteppedBaseGameLayer::onModify<geode::modifier::ModifyBase<geode::modifier::ModifyDerive<SteppedBaseGameLayer, GJBaseGameLayer> > >(geode::modifier::ModifyBase<geode::modifier::ModifyDerive<SteppedBaseGameLayer, GJBaseGameLayer> >&)::{lambda()#1}>, void ()>::~__func()
FUNC 1617ac 40 0 std::__ndk1::__function::__func<SteppedBaseGameLayer::onModify<geode::modifier::ModifyBase<geode::modifier::ModifyDerive<SteppedBaseGameLayer, GJBaseGameLayer> > >(geode::modifier::ModifyBase<geode::modifier::ModifyDerive<SteppedBaseGameLayer, GJBaseGameLayer> >&)::{lambda()#1}, std::__ndk1::allocator<SteppedBaseGameLayer::onModify<geode::modifier::ModifyBase<geode::modifier::ModifyDerive<SteppedBaseGameLayer, GJBaseGameLayer> > >(geode::modifier::ModifyBase<geode::modifier::ModifyDerive<SteppedBaseGameLayer, GJBaseGameLayer> >&)::{lambda()#1}>, void ()>::~__func()
FUNC 1617ec b0 0 std::__ndk1::__function::__func<SteppedBaseGameLayer::onModify<geode::modifier::ModifyBase<geode::modifier::ModifyDerive<SteppedBaseGameLayer, GJBaseGameLayer> > >(geode::modifier::ModifyBase<geode::modifier::ModifyDerive<SteppedBaseGameLayer, GJBaseGameLayer> >&)::{lambda()#1}, std::__ndk1::allocator<SteppedBaseGameLayer::onModify<geode::modifier::ModifyBase<geode::modifier::ModifyDerive<SteppedBaseGameLayer, GJBaseGameLayer> > >(geode::modifier::ModifyBase<geode::modifier::ModifyDerive<SteppedBaseGameLayer, GJBaseGameLayer> >&)::{lambda()#1}>, void ()>::__clone() const
FUNC 16189c 98 0 std::__ndk1::__function::__func<SteppedBaseGameLayer::onModify<geode::modifier::ModifyBase<geode::modifier::ModifyDerive<SteppedBaseGameLayer, GJBaseGameLayer> > >(geode::modifier::ModifyBase<geode::modifier::ModifyDerive<SteppedBaseGameLayer, GJBaseGameLayer> >&)::{lambda()#1}, std::__ndk1::allocator<SteppedBaseGameLayer::onModify<geode::modifier::ModifyBase<geode::modifier::ModifyDerive<SteppedBaseGameLayer, GJBaseGameLayer> > >(geode::modifier::ModifyBase<geode::modifier::ModifyDerive<SteppedBaseGameLayer, GJBaseGameLayer> >&)::{lambda()#1}>, void ()>::__clone(std::__ndk1::__function::__base<void ()>*) const
FUNC 161934 18 0 std::__ndk1::__function::__func<SteppedBaseGameLayer::onModify<geode::modifier::ModifyBase<geode::modifier::ModifyDerive<SteppedBaseGameLayer, GJBaseGameLayer> > >(geode::modifier::ModifyBase<geode::modifier::ModifyDerive<SteppedBaseGameLayer, GJBaseGameLayer> >&)::{lambda()#1}, std::__ndk1::allocator<SteppedBaseGameLayer::onModify<geode::modifier::ModifyBase<geode::modifier::ModifyDerive<SteppedBaseGameLayer, GJBaseGameLayer> > >(geode::modifier::ModifyBase<geode::modifier::ModifyDerive<SteppedBaseGameLayer, GJBaseGameLayer> >&)::{lambda()#1}>, void ()>::destroy()
FUNC 16194c 34 0 std::__ndk1::__function::__func<SteppedBaseGameLayer::onModify<geode::modifier::ModifyBase<geode::modifier::ModifyDerive<SteppedBaseGameLayer, GJBaseGameLayer> > >(geode::modifier::ModifyBase<geode::modifier::ModifyDerive<SteppedBaseGameLayer, GJBaseGameLayer> >&)::{lambda()#1}, std::__ndk1::allocator<SteppedBaseGameLayer::onModify<geode::modifier::ModifyBase<geode::modifier::ModifyDerive<SteppedBaseGameLayer, GJBaseGameLayer> > >(geode::modifier::ModifyBase<geode::modifier::ModifyDerive<SteppedBaseGameLayer, GJBaseGameLayer> >&)::{lambda()#1}>, void ()>::destroy_deallocate()
FUNC 161980 ac 0 std::__ndk1::__function::__func<SteppedBaseGameLayer::onModify<geode::modifier::ModifyBase<geode::modifier::ModifyDerive<SteppedBaseGameLayer, GJBaseGameLayer> > >(geode::modifier::ModifyBase<geode::modifier::ModifyDerive<SteppedBaseGameLayer, GJBaseGameLayer> >&)::{lambda()#1}, std::__ndk1::allocator<SteppedBaseGameLayer::onModify<geode::modifier::ModifyBase<geode::modifier::ModifyDerive<SteppedBaseGameLayer, GJBaseGameLayer> > >(geode::modifier::ModifyBase<geode::modifier::ModifyDerive<SteppedBaseGameLayer, GJBaseGameLayer> >&)::{lambda()#1}>, void ()>::operator()()
FUNC 161a2c 1c 0 std::__ndk1::__function::__func<SteppedBaseGameLayer::onModify<geode::modifier::ModifyBase<geode::modifier::ModifyDerive<SteppedBaseGameLayer, GJBaseGameLayer> > >(geode::modifier::ModifyBase<geode::modifier::ModifyDerive<SteppedBaseGameLayer, GJBaseGameLayer> >&)::{lambda()#1}, std::__ndk1::allocator<SteppedBaseGameLayer::onModify<geode::modifier::ModifyBase<geode::modifier::ModifyDerive<SteppedBaseGameLayer, GJBaseGameLayer> > >(geode::modifier::ModifyBase<geode::modifier::ModifyDerive<SteppedBaseGameLayer, GJBaseGameLayer> >&)::{lambda()#1}>, void ()>::target(std::type_info const&) const
FUNC 161a48 c 0 std::__ndk1::__function::__func<SteppedBaseGameLayer::onModify<geode::modifier::ModifyBase<geode::modifier::ModifyDerive<SteppedBaseGameLayer, GJBaseGameLayer> > >(geode::modifier::ModifyBase<geode::modifier::ModifyDerive<SteppedBaseGameLayer, GJBaseGameLayer> >&)::{lambda()#1}, std::__ndk1::allocator<SteppedBaseGameLayer::onModify<geode::modifier::ModifyBase<geode::modifier::ModifyDerive<SteppedBaseGameLayer, GJBaseGameLayer> > >(geode::modifier::ModifyBase<geode::modifier::ModifyDerive<SteppedBaseGameLayer, GJBaseGameLayer> >&)::{lambda()#1}>, void ()>::target_type() const
FUNC 161a54 64 0 geode::modifier::AsStaticFunction_update<SteppedBaseGameLayer, void (SteppedBaseGameLayer::*)(float)>::Impl<void (SteppedBaseGameLayer::*)(float)>::function(SteppedBaseGameLayer*, float)
FUNC 161ab8 334 0 geode::modifier::AsStaticFunction_checkRepellPlayer<SteppedBaseGameLayer, void (SteppedBaseGameLayer::*)()>::Impl<void (SteppedBaseGameLayer::*)()>::function(SteppedBaseGameLayer*)
FUNC 161dec 3b4 0 geode::modifier::ModifyDerive<SteppedUILayer, UILayer>::apply()
FUNC 1621a0 4 0 geode::modifier::ModifyBase<geode::modifier::ModifyDerive<SteppedUILayer, UILayer> >::apply()
FUNC 1621a4 33c 0 geode::modifier::AsStaticFunction_init<SteppedUILayer, bool (SteppedUILayer::*)(GJBaseGameLayer*)>::Impl<bool (SteppedUILayer::*)(GJBaseGameLayer*)>::function(SteppedUILayer*, GJBaseGameLayer*)
FUNC 1624e0 440 0 geode::modifier::ModifyDerive<SteppedKeyboardDispatcher, cocos2d::CCKeyboardDispatcher>::apply()
FUNC 162920 4 0 geode::modifier::ModifyBase<geode::modifier::ModifyDerive<SteppedKeyboardDispatcher, cocos2d::CCKeyboardDispatcher> >::apply()
FUNC 162924 24 0 std::__ndk1::__function::__func<SteppedKeyboardDispatcher::onModify<geode::modifier::ModifyBase<geode::modifier::ModifyDerive<SteppedKeyboardDispatcher, cocos2d::CCKeyboardDispatcher> > >(geode::modifier::ModifyBase<geode::modifier::ModifyDerive<SteppedKeyboardDispatcher, cocos2d::CCKeyboardDispatcher> >&)::{lambda()#1}, std::__ndk1::allocator<SteppedKeyboardDispatcher::onModify<geode::modifier::ModifyBase<geode::modifier::ModifyDerive<SteppedKeyboardDispatcher, cocos2d::CCKeyboardDispatcher> > >(geode::modifier::ModifyBase<geode::modifier::ModifyDerive<SteppedKeyboardDispatcher, cocos2d::CCKeyboardDispatcher> >&)::{lambda()#1}>, void ()>::~__func()
FUNC 162948 40 0 std::__ndk1::__function::__func<SteppedKeyboardDispatcher::onModify<geode::modifier::ModifyBase<geode::modifier::ModifyDerive<SteppedKeyboardDispatcher, cocos2d::CCKeyboardDispatcher> > >(geode::modifier::ModifyBase<geode::modifier::ModifyDerive<SteppedKeyboardDispatcher, cocos2d::CCKeyboardDispatcher> >&)::{lambda()#1}, std::__ndk1::allocator<SteppedKeyboardDispatcher::onModify<geode::modifier::ModifyBase<geode::modifier::ModifyDerive<SteppedKeyboardDispatcher, cocos2d::CCKeyboardDispatcher> > >(geode::modifier::ModifyBase<geode::modifier::ModifyDerive<SteppedKeyboardDispatcher, cocos2d::CCKeyboardDispatcher> >&)::{lambda()#1}>, void ()>::~__func()
FUNC 162988 b0 0 std::__ndk1::__function::__func<SteppedKeyboardDispatcher::onModify<geode::modifier::ModifyBase<geode::modifier::ModifyDerive<SteppedKeyboardDispatcher, cocos2d::CCKeyboardDispatcher> > >(geode::modifier::ModifyBase<geode::modifier::ModifyDerive<SteppedKeyboardDispatcher, cocos2d::CCKeyboardDispatcher> >&)::{lambda()#1}, std::__ndk1::allocator<SteppedKeyboardDispatcher::onModify<geode::modifier::ModifyBase<geode::modifier::ModifyDerive<SteppedKeyboardDispatcher, cocos2d::CCKeyboardDispatcher> > >(geode::modifier::ModifyBase<geode::modifier::ModifyDerive<SteppedKeyboardDispatcher, cocos2d::CCKeyboardDispatcher> >&)::{lambda()#1}>, void ()>::__clone() const
FUNC 162a38 98 0 std::__ndk1::__function::__func<SteppedKeyboardDispatcher::onModify<geode::modifier::ModifyBase<geode::modifier::ModifyDerive<SteppedKeyboardDispatcher, cocos2d::CCKeyboardDispatcher> > >(geode::modifier::ModifyBase<geode::modifier::ModifyDerive<SteppedKeyboardDispatcher, cocos2d::CCKeyboardDispatcher> >&)::{lambda()#1}, std::__ndk1::allocator<SteppedKeyboardDispatcher::onModify<geode::modifier::ModifyBase<geode::modifier::ModifyDerive<SteppedKeyboardDispatcher, cocos2d::CCKeyboardDispatcher> > >(geode::modifier::ModifyBase<geode::modifier::ModifyDerive<SteppedKeyboardDispatcher, cocos2d::CCKeyboardDispatcher> >&)::{lambda()#1}>, void ()>::__clone(std::__ndk1::__function::__base<void ()>*) const
FUNC 162ad0 18 0 std::__ndk1::__function::__func<SteppedKeyboardDispatcher::onModify<geode::modifier::ModifyBase<geode::modifier::ModifyDerive<SteppedKeyboardDispatcher, cocos2d::CCKeyboardDispatcher> > >(geode::modifier::ModifyBase<geode::modifier::ModifyDerive<SteppedKeyboardDispatcher, cocos2d::CCKeyboardDispatcher> >&)::{lambda()#1}, std::__ndk1::allocator<SteppedKeyboardDispatcher::onModify<geode::modifier::ModifyBase<geode::modifier::ModifyDerive<SteppedKeyboardDispatcher, cocos2d::CCKeyboardDispatcher> > >(geode::modifier::ModifyBase<geode::modifier::ModifyDerive<SteppedKeyboardDispatcher, cocos2d::CCKeyboardDispatcher> >&)::{lambda()#1}>, void ()>::destroy()
FUNC 162ae8 34 0 std::__ndk1::__function::__func<SteppedKeyboardDispatcher::onModify<geode::modifier::ModifyBase<geode::modifier::ModifyDerive<SteppedKeyboardDispatcher, cocos2d::CCKeyboardDispatcher> > >(geode::modifier::ModifyBase<geode::modifier::ModifyDerive<SteppedKeyboardDispatcher, cocos2d::CCKeyboardDispatcher> >&)::{lambda()#1}, std::__ndk1::allocator<SteppedKeyboardDispatcher::onModify<geode::modifier::ModifyBase<geode::modifier::ModifyDerive<SteppedKeyboardDispatcher, cocos2d::CCKeyboardDispatcher> > >(geode::modifier::ModifyBase<geode::modifier::ModifyDerive<SteppedKeyboardDispatcher, cocos2d::CCKeyboardDispatcher> >&)::{lambda()#1}>, void ()>::destroy_deallocate()
FUNC 162b1c ac 0 std::__ndk1::__function::__func<SteppedKeyboardDispatcher::onModify<geode::modifier::ModifyBase<geode::modifier::ModifyDerive<SteppedKeyboardDispatcher, cocos2d::CCKeyboardDispatcher> > >(geode::modifier::ModifyBase<geode::modifier::ModifyDerive<SteppedKeyboardDispatcher, cocos2d::CCKeyboardDispatcher> >&)::{lambda()#1}, std::__ndk1::allocator<SteppedKeyboardDispatcher::onModify<geode::modifier::ModifyBase<geode::modifier::ModifyDerive<SteppedKeyboardDispatcher, cocos2d::CCKeyboardDispatcher> > >(geode::modifier::ModifyBase<geode::modifier::ModifyDerive<SteppedKeyboardDispatcher, cocos2d::CCKeyboardDispatcher> >&)::{lambda()#1}>, void ()>::operator()()
FUNC 162bc8 1c 0 std::__ndk1::__function::__func<SteppedKeyboardDispatcher::onModify<geode::modifier::ModifyBase<geode::modifier::ModifyDerive<SteppedKeyboardDispatcher, cocos2d::CCKeyboardDispatcher> > >(geode::modifier::ModifyBase<geode::modifier::ModifyDerive<SteppedKeyboardDispatcher, cocos2d::CCKeyboardDispatcher> >&)::{lambda()#1}, std::__ndk1::allocator<SteppedKeyboardDispatcher::onModify<geode::modifier::ModifyBase<geode::modifier::ModifyDerive<SteppedKeyboardDispatcher, cocos2d::CCKeyboardDispatcher> > >(geode::modifier::ModifyBase<geode::modifier::ModifyDerive<SteppedKeyboardDispatcher, cocos2d::CCKeyboardDispatcher> >&)::{lambda()#1}>, void ()>::target(std::type_info const&) const
FUNC 162be4 c 0 std::__ndk1::__function::__func<SteppedKeyboardDispatcher::onModify<geode::modifier::ModifyBase<geode::modifier::ModifyDerive<SteppedKeyboardDispatcher, cocos2d::CCKeyboardDispatcher> > >(geode::modifier::ModifyBase<geode::modifier::ModifyDerive<SteppedKeyboardDispatcher, cocos2d::CCKeyboardDispatcher> >&)::{lambda()#1}, std::__ndk1::allocator<SteppedKeyboardDispatcher::onModify<geode::modifier::ModifyBase<geode::modifier::ModifyDerive<SteppedKeyboardDispatcher, cocos2d::CCKeyboardDispatcher> > >(geode::modifier::ModifyBase<geode::modifier::ModifyDerive<SteppedKeyboardDispatcher, cocos2d::CCKeyboardDispatcher> >&)::{lambda()#1}>, void ()>::target_type() const
FUNC 162bf0 c8 0 geode::modifier::AsStaticFunction_dispatchKeyboardMSG<SteppedKeyboardDispatcher, bool (SteppedKeyboardDispatcher::*)(cocos2d::enumKeyCodes, bool, bool)>::Impl<bool (SteppedKeyboardDispatcher::*)(cocos2d::enumKeyCodes, bool, bool)>::function(SteppedKeyboardDispatcher*, cocos2d::enumKeyCodes, bool, bool)
FUNC 162cb8 4 0 std::__ndk1::__function::__func<geodeExecFunction222<(anonymous namespace)::ExecFuncUnique222>()::{lambda()#1}, std::__ndk1::allocator<geodeExecFunction222<(anonymous namespace)::ExecFuncUnique222>()::{lambda()#1}>, void ()>::~__func()
FUNC 162cbc 24 0 std::__ndk1::__function::__func<geodeExecFunction222<(anonymous namespace)::ExecFuncUnique222>()::{lambda()#1}, std::__ndk1::allocator<geodeExecFunction222<(anonymous namespace)::ExecFuncUnique222>()::{lambda()#1}>, void ()>::__clone() const
FUNC 162ce0 10 0 std::__ndk1::__function::__func<geodeExecFunction222<(anonymous namespace)::ExecFuncUnique222>()::{lambda()#1}, std::__ndk1::allocator<geodeExecFunction222<(anonymous namespace)::ExecFuncUnique222>()::{lambda()#1}>, void ()>::__clone(std::__ndk1::__function::__base<void ()>*) const
FUNC 162cf0 4 0 std::__ndk1::__function::__func<geodeExecFunction222<(anonymous namespace)::ExecFuncUnique222>()::{lambda()#1}, std::__ndk1::allocator<geodeExecFunction222<(anonymous namespace)::ExecFuncUnique222>()::{lambda()#1}>, void ()>::destroy()
FUNC 162cf4 4 0 std::__ndk1::__function::__func<geodeExecFunction222<(anonymous namespace)::ExecFuncUnique222>()::{lambda()#1}, std::__ndk1::allocator<geodeExecFunction222<(anonymous namespace)::ExecFuncUnique222>()::{lambda()#1}>, void ()>::destroy_deallocate()
FUNC 162cf8 100 0 std::__ndk1::__function::__func<geodeExecFunction222<(anonymous namespace)::ExecFuncUnique222>()::{lambda()#1}, std::__ndk1::allocator<geodeExecFunction222<(anonymous namespace)::ExecFuncUnique222>()::{lambda()#1}>, void ()>::operator()()
FUNC 162df8 1c 0 std::__ndk1::__function::__func<geodeExecFunction222<(anonymous namespace)::ExecFuncUnique222>()::{lambda()#1}, std::__ndk1::allocator<geodeExecFunction222<(anonymous namespace)::ExecFuncUnique222>()::{lambda()#1}>, void ()>::target(std::type_info const&) const
FUNC 162e14 c 0 std::__ndk1::__function::__func<geodeExecFunction222<(anonymous namespace)::ExecFuncUnique222>()::{lambda()#1}, std::__ndk1::allocator<geodeExecFunction222<(anonymous namespace)::ExecFuncUnique222>()::{lambda()#1}>, void ()>::target_type() const
FUNC 162e20 4 0 ModuleChangeDelegate::onModuleChanged(bool)
FUNC 162e24 34 0 FrameStepperUIDelegate::initOptionsLayer(cocos2d::CCLayer*)
FUNC 162e58 1a0 0 EditPositionLayer::create(EditPositionType)
FUNC 162ff8 4 0 std::__ndk1::__function::__base<void (bool)>::~__base()
FUNC 162ffc 4 0 std::__ndk1::__function::__func<geodeExecFunction222<(anonymous namespace)::ExecFuncUnique222>()::{lambda()#1}::operator()() const::{lambda(bool)#1}, std::__ndk1::allocator<geodeExecFunction222<(anonymous namespace)::ExecFuncUnique222>()::{lambda()#1}::operator()() const::{lambda(bool)#1}>, void (bool)>::~__func()
FUNC 163000 24 0 std::__ndk1::__function::__func<geodeExecFunction222<(anonymous namespace)::ExecFuncUnique222>()::{lambda()#1}::operator()() const::{lambda(bool)#1}, std::__ndk1::allocator<geodeExecFunction222<(anonymous namespace)::ExecFuncUnique222>()::{lambda()#1}::operator()() const::{lambda(bool)#1}>, void (bool)>::__clone() const
FUNC 163024 10 0 std::__ndk1::__function::__func<geodeExecFunction222<(anonymous namespace)::ExecFuncUnique222>()::{lambda()#1}::operator()() const::{lambda(bool)#1}, std::__ndk1::allocator<geodeExecFunction222<(anonymous namespace)::ExecFuncUnique222>()::{lambda()#1}::operator()() const::{lambda(bool)#1}>, void (bool)>::__clone(std::__ndk1::__function::__base<void (bool)>*) const
FUNC 163034 4 0 std::__ndk1::__function::__func<geodeExecFunction222<(anonymous namespace)::ExecFuncUnique222>()::{lambda()#1}::operator()() const::{lambda(bool)#1}, std::__ndk1::allocator<geodeExecFunction222<(anonymous namespace)::ExecFuncUnique222>()::{lambda()#1}::operator()() const::{lambda(bool)#1}>, void (bool)>::destroy()
FUNC 163038 4 0 std::__ndk1::__function::__func<geodeExecFunction222<(anonymous namespace)::ExecFuncUnique222>()::{lambda()#1}::operator()() const::{lambda(bool)#1}, std::__ndk1::allocator<geodeExecFunction222<(anonymous namespace)::ExecFuncUnique222>()::{lambda()#1}::operator()() const::{lambda(bool)#1}>, void (bool)>::destroy_deallocate()
FUNC 16303c 70 0 std::__ndk1::__function::__func<geodeExecFunction222<(anonymous namespace)::ExecFuncUnique222>()::{lambda()#1}::operator()() const::{lambda(bool)#1}, std::__ndk1::allocator<geodeExecFunction222<(anonymous namespace)::ExecFuncUnique222>()::{lambda()#1}::operator()() const::{lambda(bool)#1}>, void (bool)>::operator()(bool&&)
FUNC 1630ac 1c 0 std::__ndk1::__function::__func<geodeExecFunction222<(anonymous namespace)::ExecFuncUnique222>()::{lambda()#1}::operator()() const::{lambda(bool)#1}, std::__ndk1::allocator<geodeExecFunction222<(anonymous namespace)::ExecFuncUnique222>()::{lambda()#1}::operator()() const::{lambda(bool)#1}>, void (bool)>::target(std::type_info const&) const
FUNC 1630c8 c 0 std::__ndk1::__function::__func<geodeExecFunction222<(anonymous namespace)::ExecFuncUnique222>()::{lambda()#1}::operator()() const::{lambda(bool)#1}, std::__ndk1::allocator<geodeExecFunction222<(anonymous namespace)::ExecFuncUnique222>()::{lambda()#1}::operator()() const::{lambda(bool)#1}>, void (bool)>::target_type() const
FUNC 1630d4 168 0 std::__ndk1::__function::__value_func<void (bool)>::swap[abi:ne180000](std::__ndk1::__function::__value_func<void (bool)>&)
FUNC 16323c 110 0 _GLOBAL__sub_I_FrameStepper.cpp
FUNC 16334c 67c 0 __cxx_global_var_init.30
FUNC 1639c8 1c 0 geode::modifier::ModifyBase<geode::modifier::ModifyDerive<hook10<(anonymous namespace)::hook10Parent>, EditorUI> >::~ModifyBase()
FUNC 1639e4 42c 0 geode::modifier::ModifyDerive<hook10<(anonymous namespace)::hook10Parent>, EditorUI>::apply()
FUNC 163e10 4 0 geode::modifier::ModifyBase<geode::modifier::ModifyDerive<hook10<(anonymous namespace)::hook10Parent>, EditorUI> >::apply()
FUNC 163e14 74 0 hook10<(anonymous namespace)::hook10Parent>::onModify<geode::modifier::ModifyBase<geode::modifier::ModifyDerive<hook10<(anonymous namespace)::hook10Parent>, EditorUI> > >(geode::modifier::ModifyBase<geode::modifier::ModifyDerive<hook10<(anonymous namespace)::hook10Parent>, EditorUI> >&)::{lambda()#1}::~{lambda()#1}()
FUNC 163e88 80 0 std::__ndk1::__function::__func<hook10<(anonymous namespace)::hook10Parent>::onModify<geode::modifier::ModifyBase<geode::modifier::ModifyDerive<hook10<(anonymous namespace)::hook10Parent>, EditorUI> > >(geode::modifier::ModifyBase<geode::modifier::ModifyDerive<hook10<(anonymous namespace)::hook10Parent>, EditorUI> >&)::{lambda()#1}, std::__ndk1::allocator<hook10<(anonymous namespace)::hook10Parent>::onModify<geode::modifier::ModifyBase<geode::modifier::ModifyDerive<hook10<(anonymous namespace)::hook10Parent>, EditorUI> > >(geode::modifier::ModifyBase<geode::modifier::ModifyDerive<hook10<(anonymous namespace)::hook10Parent>, EditorUI> >&)::{lambda()#1}>, void ()>::~__func()
FUNC 163f08 80 0 std::__ndk1::__function::__func<hook10<(anonymous namespace)::hook10Parent>::onModify<geode::modifier::ModifyBase<geode::modifier::ModifyDerive<hook10<(anonymous namespace)::hook10Parent>, EditorUI> > >(geode::modifier::ModifyBase<geode::modifier::ModifyDerive<hook10<(anonymous namespace)::hook10Parent>, EditorUI> >&)::{lambda()#1}, std::__ndk1::allocator<hook10<(anonymous namespace)::hook10Parent>::onModify<geode::modifier::ModifyBase<geode::modifier::ModifyDerive<hook10<(anonymous namespace)::hook10Parent>, EditorUI> > >(geode::modifier::ModifyBase<geode::modifier::ModifyDerive<hook10<(anonymous namespace)::hook10Parent>, EditorUI> >&)::{lambda()#1}>, void ()>::~__func()
FUNC 163f88 d4 0 std::__ndk1::__function::__func<hook10<(anonymous namespace)::hook10Parent>::onModify<geode::modifier::ModifyBase<geode::modifier::ModifyDerive<hook10<(anonymous namespace)::hook10Parent>, EditorUI> > >(geode::modifier::ModifyBase<geode::modifier::ModifyDerive<hook10<(anonymous namespace)::hook10Parent>, EditorUI> >&)::{lambda()#1}, std::__ndk1::allocator<hook10<(anonymous namespace)::hook10Parent>::onModify<geode::modifier::ModifyBase<geode::modifier::ModifyDerive<hook10<(anonymous namespace)::hook10Parent>, EditorUI> > >(geode::modifier::ModifyBase<geode::modifier::ModifyDerive<hook10<(anonymous namespace)::hook10Parent>, EditorUI> >&)::{lambda()#1}>, void ()>::__clone() const
FUNC 16405c c0 0 std::__ndk1::__function::__func<hook10<(anonymous namespace)::hook10Parent>::onModify<geode::modifier::ModifyBase<geode::modifier::ModifyDerive<hook10<(anonymous namespace)::hook10Parent>, EditorUI> > >(geode::modifier::ModifyBase<geode::modifier::ModifyDerive<hook10<(anonymous namespace)::hook10Parent>, EditorUI> >&)::{lambda()#1}, std::__ndk1::allocator<hook10<(anonymous namespace)::hook10Parent>::onModify<geode::modifier::ModifyBase<geode::modifier::ModifyDerive<hook10<(anonymous namespace)::hook10Parent>, EditorUI> > >(geode::modifier::ModifyBase<geode::modifier::ModifyDerive<hook10<(anonymous namespace)::hook10Parent>, EditorUI> >&)::{lambda()#1}>, void ()>::__clone(std::__ndk1::__function::__base<void ()>*) const
FUNC 16411c 74 0 std::__ndk1::__function::__func<hook10<(anonymous namespace)::hook10Parent>::onModify<geode::modifier::ModifyBase<geode::modifier::ModifyDerive<hook10<(anonymous namespace)::hook10Parent>, EditorUI> > >(geode::modifier::ModifyBase<geode::modifier::ModifyDerive<hook10<(anonymous namespace)::hook10Parent>, EditorUI> >&)::{lambda()#1}, std::__ndk1::allocator<hook10<(anonymous namespace)::hook10Parent>::onModify<geode::modifier::ModifyBase<geode::modifier::ModifyDerive<hook10<(anonymous namespace)::hook10Parent>, EditorUI> > >(geode::modifier::ModifyBase<geode::modifier::ModifyDerive<hook10<(anonymous namespace)::hook10Parent>, EditorUI> >&)::{lambda()#1}>, void ()>::destroy()
FUNC 164190 74 0 std::__ndk1::__function::__func<hook10<(anonymous namespace)::hook10Parent>::onModify<geode::modifier::ModifyBase<geode::modifier::ModifyDerive<hook10<(anonymous namespace)::hook10Parent>, EditorUI> > >(geode::modifier::ModifyBase<geode::modifier::ModifyDerive<hook10<(anonymous namespace)::hook10Parent>, EditorUI> >&)::{lambda()#1}, std::__ndk1::allocator<hook10<(anonymous namespace)::hook10Parent>::onModify<geode::modifier::ModifyBase<geode::modifier::ModifyDerive<hook10<(anonymous namespace)::hook10Parent>, EditorUI> > >(geode::modifier::ModifyBase<geode::modifier::ModifyDerive<hook10<(anonymous namespace)::hook10Parent>, EditorUI> >&)::{lambda()#1}>, void ()>::destroy_deallocate()
FUNC 164204 124 0 std::__ndk1::__function::__func<hook10<(anonymous namespace)::hook10Parent>::onModify<geode::modifier::ModifyBase<geode::modifier::ModifyDerive<hook10<(anonymous namespace)::hook10Parent>, EditorUI> > >(geode::modifier::ModifyBase<geode::modifier::ModifyDerive<hook10<(anonymous namespace)::hook10Parent>, EditorUI> >&)::{lambda()#1}, std::__ndk1::allocator<hook10<(anonymous namespace)::hook10Parent>::onModify<geode::modifier::ModifyBase<geode::modifier::ModifyDerive<hook10<(anonymous namespace)::hook10Parent>, EditorUI> > >(geode::modifier::ModifyBase<geode::modifier::ModifyDerive<hook10<(anonymous namespace)::hook10Parent>, EditorUI> >&)::{lambda()#1}>, void ()>::operator()()
FUNC 164328 1c 0 std::__ndk1::__function::__func<hook10<(anonymous namespace)::hook10Parent>::onModify<geode::modifier::ModifyBase<geode::modifier::ModifyDerive<hook10<(anonymous namespace)::hook10Parent>, EditorUI> > >(geode::modifier::ModifyBase<geode::modifier::ModifyDerive<hook10<(anonymous namespace)::hook10Parent>, EditorUI> >&)::{lambda()#1}, std::__ndk1::allocator<hook10<(anonymous namespace)::hook10Parent>::onModify<geode::modifier::ModifyBase<geode::modifier::ModifyDerive<hook10<(anonymous namespace)::hook10Parent>, EditorUI> > >(geode::modifier::ModifyBase<geode::modifier::ModifyDerive<hook10<(anonymous namespace)::hook10Parent>, EditorUI> >&)::{lambda()#1}>, void ()>::target(std::type_info const&) const
FUNC 164344 c 0 std::__ndk1::__function::__func<hook10<(anonymous namespace)::hook10Parent>::onModify<geode::modifier::ModifyBase<geode::modifier::ModifyDerive<hook10<(anonymous namespace)::hook10Parent>, EditorUI> > >(geode::modifier::ModifyBase<geode::modifier::ModifyDerive<hook10<(anonymous namespace)::hook10Parent>, EditorUI> >&)::{lambda()#1}, std::__ndk1::allocator<hook10<(anonymous namespace)::hook10Parent>::onModify<geode::modifier::ModifyBase<geode::modifier::ModifyDerive<hook10<(anonymous namespace)::hook10Parent>, EditorUI> > >(geode::modifier::ModifyBase<geode::modifier::ModifyDerive<hook10<(anonymous namespace)::hook10Parent>, EditorUI> >&)::{lambda()#1}>, void ()>::target_type() const
FUNC 164350 4 0 geode::modifier::AsStaticFunction_constrainGameLayerPosition<hook10<(anonymous namespace)::hook10Parent>, void (hook10<(anonymous namespace)::hook10Parent>::*)(float, float)>::Impl<void (hook10<(anonymous namespace)::hook10Parent>::*)(float, float)>::function(hook10<(anonymous namespace)::hook10Parent>*, float, float)
FUNC 164354 7e4 0 __cxx_global_var_init.30
FUNC 164b38 7e4 0 __cxx_global_var_init.31
FUNC 16531c 1c 0 geode::modifier::ModifyBase<geode::modifier::ModifyDerive<hook9<(anonymous namespace)::hook9Parent>, GameStatsManager> >::~ModifyBase()
FUNC 165338 1c 0 geode::modifier::ModifyBase<geode::modifier::ModifyDerive<hook20<(anonymous namespace)::hook20Parent>, PlayLayer> >::~ModifyBase()
FUNC 165354 420 0 geode::modifier::ModifyDerive<hook9<(anonymous namespace)::hook9Parent>, GameStatsManager>::apply()
FUNC 165774 4 0 geode::modifier::ModifyBase<geode::modifier::ModifyDerive<hook9<(anonymous namespace)::hook9Parent>, GameStatsManager> >::apply()
FUNC 165778 24 0 std::__ndk1::__function::__func<hook9<(anonymous namespace)::hook9Parent>::onModify<geode::modifier::ModifyBase<geode::modifier::ModifyDerive<hook9<(anonymous namespace)::hook9Parent>, GameStatsManager> > >(geode::modifier::ModifyBase<geode::modifier::ModifyDerive<hook9<(anonymous namespace)::hook9Parent>, GameStatsManager> >&)::{lambda()#1}, std::__ndk1::allocator<hook9<(anonymous namespace)::hook9Parent>::onModify<geode::modifier::ModifyBase<geode::modifier::ModifyDerive<hook9<(anonymous namespace)::hook9Parent>, GameStatsManager> > >(geode::modifier::ModifyBase<geode::modifier::ModifyDerive<hook9<(anonymous namespace)::hook9Parent>, GameStatsManager> >&)::{lambda()#1}>, void ()>::~__func()
FUNC 16579c 40 0 std::__ndk1::__function::__func<hook9<(anonymous namespace)::hook9Parent>::onModify<geode::modifier::ModifyBase<geode::modifier::ModifyDerive<hook9<(anonymous namespace)::hook9Parent>, GameStatsManager> > >(geode::modifier::ModifyBase<geode::modifier::ModifyDerive<hook9<(anonymous namespace)::hook9Parent>, GameStatsManager> >&)::{lambda()#1}, std::__ndk1::allocator<hook9<(anonymous namespace)::hook9Parent>::onModify<geode::modifier::ModifyBase<geode::modifier::ModifyDerive<hook9<(anonymous namespace)::hook9Parent>, GameStatsManager> > >(geode::modifier::ModifyBase<geode::modifier::ModifyDerive<hook9<(anonymous namespace)::hook9Parent>, GameStatsManager> >&)::{lambda()#1}>, void ()>::~__func()
FUNC 1657dc b0 0 std::__ndk1::__function::__func<hook9<(anonymous namespace)::hook9Parent>::onModify<geode::modifier::ModifyBase<geode::modifier::ModifyDerive<hook9<(anonymous namespace)::hook9Parent>, GameStatsManager> > >(geode::modifier::ModifyBase<geode::modifier::ModifyDerive<hook9<(anonymous namespace)::hook9Parent>, GameStatsManager> >&)::{lambda()#1}, std::__ndk1::allocator<hook9<(anonymous namespace)::hook9Parent>::onModify<geode::modifier::ModifyBase<geode::modifier::ModifyDerive<hook9<(anonymous namespace)::hook9Parent>, GameStatsManager> > >(geode::modifier::ModifyBase<geode::modifier::ModifyDerive<hook9<(anonymous namespace)::hook9Parent>, GameStatsManager> >&)::{lambda()#1}>, void ()>::__clone() const
FUNC 16588c 98 0 std::__ndk1::__function::__func<hook9<(anonymous namespace)::hook9Parent>::onModify<geode::modifier::ModifyBase<geode::modifier::ModifyDerive<hook9<(anonymous namespace)::hook9Parent>, GameStatsManager> > >(geode::modifier::ModifyBase<geode::modifier::ModifyDerive<hook9<(anonymous namespace)::hook9Parent>, GameStatsManager> >&)::{lambda()#1}, std::__ndk1::allocator<hook9<(anonymous namespace)::hook9Parent>::onModify<geode::modifier::ModifyBase<geode::modifier::ModifyDerive<hook9<(anonymous namespace)::hook9Parent>, GameStatsManager> > >(geode::modifier::ModifyBase<geode::modifier::ModifyDerive<hook9<(anonymous namespace)::hook9Parent>, GameStatsManager> >&)::{lambda()#1}>, void ()>::__clone(std::__ndk1::__function::__base<void ()>*) const
FUNC 165924 18 0 std::__ndk1::__function::__func<hook9<(anonymous namespace)::hook9Parent>::onModify<geode::modifier::ModifyBase<geode::modifier::ModifyDerive<hook9<(anonymous namespace)::hook9Parent>, GameStatsManager> > >(geode::modifier::ModifyBase<geode::modifier::ModifyDerive<hook9<(anonymous namespace)::hook9Parent>, GameStatsManager> >&)::{lambda()#1}, std::__ndk1::allocator<hook9<(anonymous namespace)::hook9Parent>::onModify<geode::modifier::ModifyBase<geode::modifier::ModifyDerive<hook9<(anonymous namespace)::hook9Parent>, GameStatsManager> > >(geode::modifier::ModifyBase<geode::modifier::ModifyDerive<hook9<(anonymous namespace)::hook9Parent>, GameStatsManager> >&)::{lambda()#1}>, void ()>::destroy()
FUNC 16593c 34 0 std::__ndk1::__function::__func<hook9<(anonymous namespace)::hook9Parent>::onModify<geode::modifier::ModifyBase<geode::modifier::ModifyDerive<hook9<(anonymous namespace)::hook9Parent>, GameStatsManager> > >(geode::modifier::ModifyBase<geode::modifier::ModifyDerive<hook9<(anonymous namespace)::hook9Parent>, GameStatsManager> >&)::{lambda()#1}, std::__ndk1::allocator<hook9<(anonymous namespace)::hook9Parent>::onModify<geode::modifier::ModifyBase<geode::modifier::ModifyDerive<hook9<(anonymous namespace)::hook9Parent>, GameStatsManager> > >(geode::modifier::ModifyBase<geode::modifier::ModifyDerive<hook9<(anonymous namespace)::hook9Parent>, GameStatsManager> >&)::{lambda()#1}>, void ()>::destroy_deallocate()
FUNC 165970 ac 0 std::__ndk1::__function::__func<hook9<(anonymous namespace)::hook9Parent>::onModify<geode::modifier::ModifyBase<geode::modifier::ModifyDerive<hook9<(anonymous namespace)::hook9Parent>, GameStatsManager> > >(geode::modifier::ModifyBase<geode::modifier::ModifyDerive<hook9<(anonymous namespace)::hook9Parent>, GameStatsManager> >&)::{lambda()#1}, std::__ndk1::allocator<hook9<(anonymous namespace)::hook9Parent>::onModify<geode::modifier::ModifyBase<geode::modifier::ModifyDerive<hook9<(anonymous namespace)::hook9Parent>, GameStatsManager> > >(geode::modifier::ModifyBase<geode::modifier::ModifyDerive<hook9<(anonymous namespace)::hook9Parent>, GameStatsManager> >&)::{lambda()#1}>, void ()>::operator()()
FUNC 165a1c 1c 0 std::__ndk1::__function::__func<hook9<(anonymous namespace)::hook9Parent>::onModify<geode::modifier::ModifyBase<geode::modifier::ModifyDerive<hook9<(anonymous namespace)::hook9Parent>, GameStatsManager> > >(geode::modifier::ModifyBase<geode::modifier::ModifyDerive<hook9<(anonymous namespace)::hook9Parent>, GameStatsManager> >&)::{lambda()#1}, std::__ndk1::allocator<hook9<(anonymous namespace)::hook9Parent>::onModify<geode::modifier::ModifyBase<geode::modifier::ModifyDerive<hook9<(anonymous namespace)::hook9Parent>, GameStatsManager> > >(geode::modifier::ModifyBase<geode::modifier::ModifyDerive<hook9<(anonymous namespace)::hook9Parent>, GameStatsManager> >&)::{lambda()#1}>, void ()>::target(std::type_info const&) const
FUNC 165a38 c 0 std::__ndk1::__function::__func<hook9<(anonymous namespace)::hook9Parent>::onModify<geode::modifier::ModifyBase<geode::modifier::ModifyDerive<hook9<(anonymous namespace)::hook9Parent>, GameStatsManager> > >(geode::modifier::ModifyBase<geode::modifier::ModifyDerive<hook9<(anonymous namespace)::hook9Parent>, GameStatsManager> >&)::{lambda()#1}, std::__ndk1::allocator<hook9<(anonymous namespace)::hook9Parent>::onModify<geode::modifier::ModifyBase<geode::modifier::ModifyDerive<hook9<(anonymous namespace)::hook9Parent>, GameStatsManager> > >(geode::modifier::ModifyBase<geode::modifier::ModifyDerive<hook9<(anonymous namespace)::hook9Parent>, GameStatsManager> >&)::{lambda()#1}>, void ()>::target_type() const
FUNC 165a44 5c 0 geode::modifier::AsStaticFunction_incrementStat<hook9<(anonymous namespace)::hook9Parent>, void (hook9<(anonymous namespace)::hook9Parent>::*)(char const*, int)>::Impl<void (hook9<(anonymous namespace)::hook9Parent>::*)(char const*, int)>::function(hook9<(anonymous namespace)::hook9Parent>*, char const*, int)
FUNC 165aa0 36c 0 geode::modifier::ModifyDerive<hook20<(anonymous namespace)::hook20Parent>, PlayLayer>::apply()
FUNC 165e0c 4 0 geode::modifier::ModifyBase<geode::modifier::ModifyDerive<hook20<(anonymous namespace)::hook20Parent>, PlayLayer> >::apply()
FUNC 165e10 24 0 std::__ndk1::__function::__func<hook20<(anonymous namespace)::hook20Parent>::onModify<geode::modifier::ModifyBase<geode::modifier::ModifyDerive<hook20<(anonymous namespace)::hook20Parent>, PlayLayer> > >(geode::modifier::ModifyBase<geode::modifier::ModifyDerive<hook20<(anonymous namespace)::hook20Parent>, PlayLayer> >&)::{lambda()#1}, std::__ndk1::allocator<hook20<(anonymous namespace)::hook20Parent>::onModify<geode::modifier::ModifyBase<geode::modifier::ModifyDerive<hook20<(anonymous namespace)::hook20Parent>, PlayLayer> > >(geode::modifier::ModifyBase<geode::modifier::ModifyDerive<hook20<(anonymous namespace)::hook20Parent>, PlayLayer> >&)::{lambda()#1}>, void ()>::~__func()
FUNC 165e34 40 0 std::__ndk1::__function::__func<hook20<(anonymous namespace)::hook20Parent>::onModify<geode::modifier::ModifyBase<geode::modifier::ModifyDerive<hook20<(anonymous namespace)::hook20Parent>, PlayLayer> > >(geode::modifier::ModifyBase<geode::modifier::ModifyDerive<hook20<(anonymous namespace)::hook20Parent>, PlayLayer> >&)::{lambda()#1}, std::__ndk1::allocator<hook20<(anonymous namespace)::hook20Parent>::onModify<geode::modifier::ModifyBase<geode::modifier::ModifyDerive<hook20<(anonymous namespace)::hook20Parent>, PlayLayer> > >(geode::modifier::ModifyBase<geode::modifier::ModifyDerive<hook20<(anonymous namespace)::hook20Parent>, PlayLayer> >&)::{lambda()#1}>, void ()>::~__func()
FUNC 165e74 b0 0 std::__ndk1::__function::__func<hook20<(anonymous namespace)::hook20Parent>::onModify<geode::modifier::ModifyBase<geode::modifier::ModifyDerive<hook20<(anonymous namespace)::hook20Parent>, PlayLayer> > >(geode::modifier::ModifyBase<geode::modifier::ModifyDerive<hook20<(anonymous namespace)::hook20Parent>, PlayLayer> >&)::{lambda()#1}, std::__ndk1::allocator<hook20<(anonymous namespace)::hook20Parent>::onModify<geode::modifier::ModifyBase<geode::modifier::ModifyDerive<hook20<(anonymous namespace)::hook20Parent>, PlayLayer> > >(geode::modifier::ModifyBase<geode::modifier::ModifyDerive<hook20<(anonymous namespace)::hook20Parent>, PlayLayer> >&)::{lambda()#1}>, void ()>::__clone() const
FUNC 165f24 98 0 std::__ndk1::__function::__func<hook20<(anonymous namespace)::hook20Parent>::onModify<geode::modifier::ModifyBase<geode::modifier::ModifyDerive<hook20<(anonymous namespace)::hook20Parent>, PlayLayer> > >(geode::modifier::ModifyBase<geode::modifier::ModifyDerive<hook20<(anonymous namespace)::hook20Parent>, PlayLayer> >&)::{lambda()#1}, std::__ndk1::allocator<hook20<(anonymous namespace)::hook20Parent>::onModify<geode::modifier::ModifyBase<geode::modifier::ModifyDerive<hook20<(anonymous namespace)::hook20Parent>, PlayLayer> > >(geode::modifier::ModifyBase<geode::modifier::ModifyDerive<hook20<(anonymous namespace)::hook20Parent>, PlayLayer> >&)::{lambda()#1}>, void ()>::__clone(std::__ndk1::__function::__base<void ()>*) const
FUNC 165fbc 18 0 std::__ndk1::__function::__func<hook20<(anonymous namespace)::hook20Parent>::onModify<geode::modifier::ModifyBase<geode::modifier::ModifyDerive<hook20<(anonymous namespace)::hook20Parent>, PlayLayer> > >(geode::modifier::ModifyBase<geode::modifier::ModifyDerive<hook20<(anonymous namespace)::hook20Parent>, PlayLayer> >&)::{lambda()#1}, std::__ndk1::allocator<hook20<(anonymous namespace)::hook20Parent>::onModify<geode::modifier::ModifyBase<geode::modifier::ModifyDerive<hook20<(anonymous namespace)::hook20Parent>, PlayLayer> > >(geode::modifier::ModifyBase<geode::modifier::ModifyDerive<hook20<(anonymous namespace)::hook20Parent>, PlayLayer> >&)::{lambda()#1}>, void ()>::destroy()
FUNC 165fd4 34 0 std::__ndk1::__function::__func<hook20<(anonymous namespace)::hook20Parent>::onModify<geode::modifier::ModifyBase<geode::modifier::ModifyDerive<hook20<(anonymous namespace)::hook20Parent>, PlayLayer> > >(geode::modifier::ModifyBase<geode::modifier::ModifyDerive<hook20<(anonymous namespace)::hook20Parent>, PlayLayer> >&)::{lambda()#1}, std::__ndk1::allocator<hook20<(anonymous namespace)::hook20Parent>::onModify<geode::modifier::ModifyBase<geode::modifier::ModifyDerive<hook20<(anonymous namespace)::hook20Parent>, PlayLayer> > >(geode::modifier::ModifyBase<geode::modifier::ModifyDerive<hook20<(anonymous namespace)::hook20Parent>, PlayLayer> >&)::{lambda()#1}>, void ()>::destroy_deallocate()
FUNC 166008 ac 0 std::__ndk1::__function::__func<hook20<(anonymous namespace)::hook20Parent>::onModify<geode::modifier::ModifyBase<geode::modifier::ModifyDerive<hook20<(anonymous namespace)::hook20Parent>, PlayLayer> > >(geode::modifier::ModifyBase<geode::modifier::ModifyDerive<hook20<(anonymous namespace)::hook20Parent>, PlayLayer> >&)::{lambda()#1}, std::__ndk1::allocator<hook20<(anonymous namespace)::hook20Parent>::onModify<geode::modifier::ModifyBase<geode::modifier::ModifyDerive<hook20<(anonymous namespace)::hook20Parent>, PlayLayer> > >(geode::modifier::ModifyBase<geode::modifier::ModifyDerive<hook20<(anonymous namespace)::hook20Parent>, PlayLayer> >&)::{lambda()#1}>, void ()>::operator()()
FUNC 1660b4 1c 0 std::__ndk1::__function::__func<hook20<(anonymous namespace)::hook20Parent>::onModify<geode::modifier::ModifyBase<geode::modifier::ModifyDerive<hook20<(anonymous namespace)::hook20Parent>, PlayLayer> > >(geode::modifier::ModifyBase<geode::modifier::ModifyDerive<hook20<(anonymous namespace)::hook20Parent>, PlayLayer> >&)::{lambda()#1}, std::__ndk1::allocator<hook20<(anonymous namespace)::hook20Parent>::onModify<geode::modifier::ModifyBase<geode::modifier::ModifyDerive<hook20<(anonymous namespace)::hook20Parent>, PlayLayer> > >(geode::modifier::ModifyBase<geode::modifier::ModifyDerive<hook20<(anonymous namespace)::hook20Parent>, PlayLayer> >&)::{lambda()#1}>, void ()>::target(std::type_info const&) const
FUNC 1660d0 c 0 std::__ndk1::__function::__func<hook20<(anonymous namespace)::hook20Parent>::onModify<geode::modifier::ModifyBase<geode::modifier::ModifyDerive<hook20<(anonymous namespace)::hook20Parent>, PlayLayer> > >(geode::modifier::ModifyBase<geode::modifier::ModifyDerive<hook20<(anonymous namespace)::hook20Parent>, PlayLayer> >&)::{lambda()#1}, std::__ndk1::allocator<hook20<(anonymous namespace)::hook20Parent>::onModify<geode::modifier::ModifyBase<geode::modifier::ModifyDerive<hook20<(anonymous namespace)::hook20Parent>, PlayLayer> > >(geode::modifier::ModifyBase<geode::modifier::ModifyDerive<hook20<(anonymous namespace)::hook20Parent>, PlayLayer> >&)::{lambda()#1}>, void ()>::target_type() const
FUNC 1660dc 70 0 geode::modifier::AsStaticFunction_resetLevel<hook20<(anonymous namespace)::hook20Parent>, void (hook20<(anonymous namespace)::hook20Parent>::*)()>::Impl<void (hook20<(anonymous namespace)::hook20Parent>::*)()>::function(hook20<(anonymous namespace)::hook20Parent>*)
FUNC 16614c 444 0 __cxx_global_var_init.30
FUNC 166590 1c 0 geode::modifier::ModifyBase<geode::modifier::ModifyDerive<OptionsLayerExt, OptionsLayer> >::~ModifyBase()
FUNC 1665ac 400 0 __cxx_global_var_init.31
FUNC 1669ac 1c 0 geode::modifier::ModifyBase<geode::modifier::ModifyDerive<hook45<(anonymous namespace)::hook45Parent>, PauseLayer> >::~ModifyBase()
FUNC 1669c8 38c 0 geode::modifier::ModifyDerive<OptionsLayerExt, OptionsLayer>::apply()
FUNC 166d54 4 0 geode::modifier::ModifyBase<geode::modifier::ModifyDerive<OptionsLayerExt, OptionsLayer> >::apply()
FUNC 166d58 a8 0 geode::addresser::getVirtual<void (OptionsLayer::*)()>(void (OptionsLayer::*)())
FUNC 166e00 1d8 0 geode::modifier::AsStaticFunction_customSetup<OptionsLayerExt, void (OptionsLayerExt::*)()>::Impl<void (OptionsLayerExt::*)()>::function(OptionsLayerExt*)
FUNC 166fd8 90 0 OptionsLayer::OptionsLayer(geode::ZeroConstructorType)
FUNC 167068 44 0 OptionsLayerExt::onPauseOptions(cocos2d::CCObject*)
FUNC 1670ac 3b4 0 geode::modifier::ModifyDerive<hook45<(anonymous namespace)::hook45Parent>, PauseLayer>::apply()
FUNC 167460 4 0 geode::modifier::ModifyBase<geode::modifier::ModifyDerive<hook45<(anonymous namespace)::hook45Parent>, PauseLayer> >::apply()
FUNC 167464 88 0 geode::modifier::AsStaticFunction_onSettings<hook45<(anonymous namespace)::hook45Parent>, void (hook45<(anonymous namespace)::hook45Parent>::*)(cocos2d::CCObject*)>::Impl<void (hook45<(anonymous namespace)::hook45Parent>::*)(cocos2d::CCObject*)>::function(hook45<(anonymous namespace)::hook45Parent>*, cocos2d::CCObject*)
FUNC 1674ec 7e4 0 __cxx_global_var_init.30
FUNC 167cd0 7e4 0 __cxx_global_var_init.31
FUNC 1684b4 7e4 0 __cxx_global_var_init.32
FUNC 168c98 7e4 0 __cxx_global_var_init.33
FUNC 16947c 7e4 0 __cxx_global_var_init.34
FUNC 169c60 1c 0 geode::modifier::ModifyBase<geode::modifier::ModifyDerive<hook12<(anonymous namespace)::hook12Parent>, cocos2d::CCSpriteFrameCache> >::~ModifyBase()
FUNC 169c7c 1c 0 geode::modifier::ModifyBase<geode::modifier::ModifyDerive<hook26<(anonymous namespace)::hook26Parent>, GJBaseGameLayer> >::~ModifyBase()
FUNC 169c98 1c 0 geode::modifier::ModifyBase<geode::modifier::ModifyDerive<hook39<(anonymous namespace)::hook39Parent>, EnhancedGameObject> >::~ModifyBase()
FUNC 169cb4 1c 0 geode::modifier::ModifyBase<geode::modifier::ModifyDerive<hook57<(anonymous namespace)::hook57Parent>, CCCircleWave> >::~ModifyBase()
FUNC 169cd0 1c 0 geode::modifier::ModifyBase<geode::modifier::ModifyDerive<hook69<(anonymous namespace)::hook69Parent>, GameObject> >::~ModifyBase()
FUNC 169cec 3dc 0 geode::modifier::ModifyDerive<hook12<(anonymous namespace)::hook12Parent>, cocos2d::CCSpriteFrameCache>::apply()
FUNC 16a0c8 4 0 geode::modifier::ModifyBase<geode::modifier::ModifyDerive<hook12<(anonymous namespace)::hook12Parent>, cocos2d::CCSpriteFrameCache> >::apply()
FUNC 16a0cc 24 0 std::__ndk1::__function::__func<hook12<(anonymous namespace)::hook12Parent>::onModify<geode::modifier::ModifyBase<geode::modifier::ModifyDerive<hook12<(anonymous namespace)::hook12Parent>, cocos2d::CCSpriteFrameCache> > >(geode::modifier::ModifyBase<geode::modifier::ModifyDerive<hook12<(anonymous namespace)::hook12Parent>, cocos2d::CCSpriteFrameCache> >&)::{lambda()#1}, std::__ndk1::allocator<hook12<(anonymous namespace)::hook12Parent>::onModify<geode::modifier::ModifyBase<geode::modifier::ModifyDerive<hook12<(anonymous namespace)::hook12Parent>, cocos2d::CCSpriteFrameCache> > >(geode::modifier::ModifyBase<geode::modifier::ModifyDerive<hook12<(anonymous namespace)::hook12Parent>, cocos2d::CCSpriteFrameCache> >&)::{lambda()#1}>, void ()>::~__func()
FUNC 16a0f0 40 0 std::__ndk1::__function::__func<hook12<(anonymous namespace)::hook12Parent>::onModify<geode::modifier::ModifyBase<geode::modifier::ModifyDerive<hook12<(anonymous namespace)::hook12Parent>, cocos2d::CCSpriteFrameCache> > >(geode::modifier::ModifyBase<geode::modifier::ModifyDerive<hook12<(anonymous namespace)::hook12Parent>, cocos2d::CCSpriteFrameCache> >&)::{lambda()#1}, std::__ndk1::allocator<hook12<(anonymous namespace)::hook12Parent>::onModify<geode::modifier::ModifyBase<geode::modifier::ModifyDerive<hook12<(anonymous namespace)::hook12Parent>, cocos2d::CCSpriteFrameCache> > >(geode::modifier::ModifyBase<geode::modifier::ModifyDerive<hook12<(anonymous namespace)::hook12Parent>, cocos2d::CCSpriteFrameCache> >&)::{lambda()#1}>, void ()>::~__func()
FUNC 16a130 b0 0 std::__ndk1::__function::__func<hook12<(anonymous namespace)::hook12Parent>::onModify<geode::modifier::ModifyBase<geode::modifier::ModifyDerive<hook12<(anonymous namespace)::hook12Parent>, cocos2d::CCSpriteFrameCache> > >(geode::modifier::ModifyBase<geode::modifier::ModifyDerive<hook12<(anonymous namespace)::hook12Parent>, cocos2d::CCSpriteFrameCache> >&)::{lambda()#1}, std::__ndk1::allocator<hook12<(anonymous namespace)::hook12Parent>::onModify<geode::modifier::ModifyBase<geode::modifier::ModifyDerive<hook12<(anonymous namespace)::hook12Parent>, cocos2d::CCSpriteFrameCache> > >(geode::modifier::ModifyBase<geode::modifier::ModifyDerive<hook12<(anonymous namespace)::hook12Parent>, cocos2d::CCSpriteFrameCache> >&)::{lambda()#1}>, void ()>::__clone() const
FUNC 16a1e0 98 0 std::__ndk1::__function::__func<hook12<(anonymous namespace)::hook12Parent>::onModify<geode::modifier::ModifyBase<geode::modifier::ModifyDerive<hook12<(anonymous namespace)::hook12Parent>, cocos2d::CCSpriteFrameCache> > >(geode::modifier::ModifyBase<geode::modifier::ModifyDerive<hook12<(anonymous namespace)::hook12Parent>, cocos2d::CCSpriteFrameCache> >&)::{lambda()#1}, std::__ndk1::allocator<hook12<(anonymous namespace)::hook12Parent>::onModify<geode::modifier::ModifyBase<geode::modifier::ModifyDerive<hook12<(anonymous namespace)::hook12Parent>, cocos2d::CCSpriteFrameCache> > >(geode::modifier::ModifyBase<geode::modifier::ModifyDerive<hook12<(anonymous namespace)::hook12Parent>, cocos2d::CCSpriteFrameCache> >&)::{lambda()#1}>, void ()>::__clone(std::__ndk1::__function::__base<void ()>*) const
FUNC 16a278 18 0 std::__ndk1::__function::__func<hook12<(anonymous namespace)::hook12Parent>::onModify<geode::modifier::ModifyBase<geode::modifier::ModifyDerive<hook12<(anonymous namespace)::hook12Parent>, cocos2d::CCSpriteFrameCache> > >(geode::modifier::ModifyBase<geode::modifier::ModifyDerive<hook12<(anonymous namespace)::hook12Parent>, cocos2d::CCSpriteFrameCache> >&)::{lambda()#1}, std::__ndk1::allocator<hook12<(anonymous namespace)::hook12Parent>::onModify<geode::modifier::ModifyBase<geode::modifier::ModifyDerive<hook12<(anonymous namespace)::hook12Parent>, cocos2d::CCSpriteFrameCache> > >(geode::modifier::ModifyBase<geode::modifier::ModifyDerive<hook12<(anonymous namespace)::hook12Parent>, cocos2d::CCSpriteFrameCache> >&)::{lambda()#1}>, void ()>::destroy()
FUNC 16a290 34 0 std::__ndk1::__function::__func<hook12<(anonymous namespace)::hook12Parent>::onModify<geode::modifier::ModifyBase<geode::modifier::ModifyDerive<hook12<(anonymous namespace)::hook12Parent>, cocos2d::CCSpriteFrameCache> > >(geode::modifier::ModifyBase<geode::modifier::ModifyDerive<hook12<(anonymous namespace)::hook12Parent>, cocos2d::CCSpriteFrameCache> >&)::{lambda()#1}, std::__ndk1::allocator<hook12<(anonymous namespace)::hook12Parent>::onModify<geode::modifier::ModifyBase<geode::modifier::ModifyDerive<hook12<(anonymous namespace)::hook12Parent>, cocos2d::CCSpriteFrameCache> > >(geode::modifier::ModifyBase<geode::modifier::ModifyDerive<hook12<(anonymous namespace)::hook12Parent>, cocos2d::CCSpriteFrameCache> >&)::{lambda()#1}>, void ()>::destroy_deallocate()
FUNC 16a2c4 ac 0 std::__ndk1::__function::__func<hook12<(anonymous namespace)::hook12Parent>::onModify<geode::modifier::ModifyBase<geode::modifier::ModifyDerive<hook12<(anonymous namespace)::hook12Parent>, cocos2d::CCSpriteFrameCache> > >(geode::modifier::ModifyBase<geode::modifier::ModifyDerive<hook12<(anonymous namespace)::hook12Parent>, cocos2d::CCSpriteFrameCache> >&)::{lambda()#1}, std::__ndk1::allocator<hook12<(anonymous namespace)::hook12Parent>::onModify<geode::modifier::ModifyBase<geode::modifier::ModifyDerive<hook12<(anonymous namespace)::hook12Parent>, cocos2d::CCSpriteFrameCache> > >(geode::modifier::ModifyBase<geode::modifier::ModifyDerive<hook12<(anonymous namespace)::hook12Parent>, cocos2d::CCSpriteFrameCache> >&)::{lambda()#1}>, void ()>::operator()()
FUNC 16a370 1c 0 std::__ndk1::__function::__func<hook12<(anonymous namespace)::hook12Parent>::onModify<geode::modifier::ModifyBase<geode::modifier::ModifyDerive<hook12<(anonymous namespace)::hook12Parent>, cocos2d::CCSpriteFrameCache> > >(geode::modifier::ModifyBase<geode::modifier::ModifyDerive<hook12<(anonymous namespace)::hook12Parent>, cocos2d::CCSpriteFrameCache> >&)::{lambda()#1}, std::__ndk1::allocator<hook12<(anonymous namespace)::hook12Parent>::onModify<geode::modifier::ModifyBase<geode::modifier::ModifyDerive<hook12<(anonymous namespace)::hook12Parent>, cocos2d::CCSpriteFrameCache> > >(geode::modifier::ModifyBase<geode::modifier::ModifyDerive<hook12<(anonymous namespace)::hook12Parent>, cocos2d::CCSpriteFrameCache> >&)::{lambda()#1}>, void ()>::target(std::type_info const&) const
FUNC 16a38c c 0 std::__ndk1::__function::__func<hook12<(anonymous namespace)::hook12Parent>::onModify<geode::modifier::ModifyBase<geode::modifier::ModifyDerive<hook12<(anonymous namespace)::hook12Parent>, cocos2d::CCSpriteFrameCache> > >(geode::modifier::ModifyBase<geode::modifier::ModifyDerive<hook12<(anonymous namespace)::hook12Parent>, cocos2d::CCSpriteFrameCache> >&)::{lambda()#1}, std::__ndk1::allocator<hook12<(anonymous namespace)::hook12Parent>::onModify<geode::modifier::ModifyBase<geode::modifier::ModifyDerive<hook12<(anonymous namespace)::hook12Parent>, cocos2d::CCSpriteFrameCache> > >(geode::modifier::ModifyBase<geode::modifier::ModifyDerive<hook12<(anonymous namespace)::hook12Parent>, cocos2d::CCSpriteFrameCache> >&)::{lambda()#1}>, void ()>::target_type() const
FUNC 16a398 2d0 0 geode::modifier::AsStaticFunction_spriteFrameByName<hook12<(anonymous namespace)::hook12Parent>, cocos2d::CCSpriteFrame* (hook12<(anonymous namespace)::hook12Parent>::*)(char const*)>::Impl<cocos2d::CCSpriteFrame* (hook12<(anonymous namespace)::hook12Parent>::*)(char const*)>::function(hook12<(anonymous namespace)::hook12Parent>*, char const*)
FUNC 16a668 3dc 0 geode::modifier::ModifyDerive<hook26<(anonymous namespace)::hook26Parent>, GJBaseGameLayer>::apply()
FUNC 16aa44 4 0 geode::modifier::ModifyBase<geode::modifier::ModifyDerive<hook26<(anonymous namespace)::hook26Parent>, GJBaseGameLayer> >::apply()
FUNC 16aa48 24 0 std::__ndk1::__function::__func<hook26<(anonymous namespace)::hook26Parent>::onModify<geode::modifier::ModifyBase<geode::modifier::ModifyDerive<hook26<(anonymous namespace)::hook26Parent>, GJBaseGameLayer> > >(geode::modifier::ModifyBase<geode::modifier::ModifyDerive<hook26<(anonymous namespace)::hook26Parent>, GJBaseGameLayer> >&)::{lambda()#1}, std::__ndk1::allocator<hook26<(anonymous namespace)::hook26Parent>::onModify<geode::modifier::ModifyBase<geode::modifier::ModifyDerive<hook26<(anonymous namespace)::hook26Parent>, GJBaseGameLayer> > >(geode::modifier::ModifyBase<geode::modifier::ModifyDerive<hook26<(anonymous namespace)::hook26Parent>, GJBaseGameLayer> >&)::{lambda()#1}>, void ()>::~__func()
FUNC 16aa6c 40 0 std::__ndk1::__function::__func<hook26<(anonymous namespace)::hook26Parent>::onModify<geode::modifier::ModifyBase<geode::modifier::ModifyDerive<hook26<(anonymous namespace)::hook26Parent>, GJBaseGameLayer> > >(geode::modifier::ModifyBase<geode::modifier::ModifyDerive<hook26<(anonymous namespace)::hook26Parent>, GJBaseGameLayer> >&)::{lambda()#1}, std::__ndk1::allocator<hook26<(anonymous namespace)::hook26Parent>::onModify<geode::modifier::ModifyBase<geode::modifier::ModifyDerive<hook26<(anonymous namespace)::hook26Parent>, GJBaseGameLayer> > >(geode::modifier::ModifyBase<geode::modifier::ModifyDerive<hook26<(anonymous namespace)::hook26Parent>, GJBaseGameLayer> >&)::{lambda()#1}>, void ()>::~__func()
FUNC 16aaac b0 0 std::__ndk1::__function::__func<hook26<(anonymous namespace)::hook26Parent>::onModify<geode::modifier::ModifyBase<geode::modifier::ModifyDerive<hook26<(anonymous namespace)::hook26Parent>, GJBaseGameLayer> > >(geode::modifier::ModifyBase<geode::modifier::ModifyDerive<hook26<(anonymous namespace)::hook26Parent>, GJBaseGameLayer> >&)::{lambda()#1}, std::__ndk1::allocator<hook26<(anonymous namespace)::hook26Parent>::onModify<geode::modifier::ModifyBase<geode::modifier::ModifyDerive<hook26<(anonymous namespace)::hook26Parent>, GJBaseGameLayer> > >(geode::modifier::ModifyBase<geode::modifier::ModifyDerive<hook26<(anonymous namespace)::hook26Parent>, GJBaseGameLayer> >&)::{lambda()#1}>, void ()>::__clone() const
FUNC 16ab5c 98 0 std::__ndk1::__function::__func<hook26<(anonymous namespace)::hook26Parent>::onModify<geode::modifier::ModifyBase<geode::modifier::ModifyDerive<hook26<(anonymous namespace)::hook26Parent>, GJBaseGameLayer> > >(geode::modifier::ModifyBase<geode::modifier::ModifyDerive<hook26<(anonymous namespace)::hook26Parent>, GJBaseGameLayer> >&)::{lambda()#1}, std::__ndk1::allocator<hook26<(anonymous namespace)::hook26Parent>::onModify<geode::modifier::ModifyBase<geode::modifier::ModifyDerive<hook26<(anonymous namespace)::hook26Parent>, GJBaseGameLayer> > >(geode::modifier::ModifyBase<geode::modifier::ModifyDerive<hook26<(anonymous namespace)::hook26Parent>, GJBaseGameLayer> >&)::{lambda()#1}>, void ()>::__clone(std::__ndk1::__function::__base<void ()>*) const
FUNC 16abf4 18 0 std::__ndk1::__function::__func<hook26<(anonymous namespace)::hook26Parent>::onModify<geode::modifier::ModifyBase<geode::modifier::ModifyDerive<hook26<(anonymous namespace)::hook26Parent>, GJBaseGameLayer> > >(geode::modifier::ModifyBase<geode::modifier::ModifyDerive<hook26<(anonymous namespace)::hook26Parent>, GJBaseGameLayer> >&)::{lambda()#1}, std::__ndk1::allocator<hook26<(anonymous namespace)::hook26Parent>::onModify<geode::modifier::ModifyBase<geode::modifier::ModifyDerive<hook26<(anonymous namespace)::hook26Parent>, GJBaseGameLayer> > >(geode::modifier::ModifyBase<geode::modifier::ModifyDerive<hook26<(anonymous namespace)::hook26Parent>, GJBaseGameLayer> >&)::{lambda()#1}>, void ()>::destroy()
FUNC 16ac0c 34 0 std::__ndk1::__function::__func<hook26<(anonymous namespace)::hook26Parent>::onModify<geode::modifier::ModifyBase<geode::modifier::ModifyDerive<hook26<(anonymous namespace)::hook26Parent>, GJBaseGameLayer> > >(geode::modifier::ModifyBase<geode::modifier::ModifyDerive<hook26<(anonymous namespace)::hook26Parent>, GJBaseGameLayer> >&)::{lambda()#1}, std::__ndk1::allocator<hook26<(anonymous namespace)::hook26Parent>::onModify<geode::modifier::ModifyBase<geode::modifier::ModifyDerive<hook26<(anonymous namespace)::hook26Parent>, GJBaseGameLayer> > >(geode::modifier::ModifyBase<geode::modifier::ModifyDerive<hook26<(anonymous namespace)::hook26Parent>, GJBaseGameLayer> >&)::{lambda()#1}>, void ()>::destroy_deallocate()
FUNC 16ac40 ac 0 std::__ndk1::__function::__func<hook26<(anonymous namespace)::hook26Parent>::onModify<geode::modifier::ModifyBase<geode::modifier::ModifyDerive<hook26<(anonymous namespace)::hook26Parent>, GJBaseGameLayer> > >(geode::modifier::ModifyBase<geode::modifier::ModifyDerive<hook26<(anonymous namespace)::hook26Parent>, GJBaseGameLayer> >&)::{lambda()#1}, std::__ndk1::allocator<hook26<(anonymous namespace)::hook26Parent>::onModify<geode::modifier::ModifyBase<geode::modifier::ModifyDerive<hook26<(anonymous namespace)::hook26Parent>, GJBaseGameLayer> > >(geode::modifier::ModifyBase<geode::modifier::ModifyDerive<hook26<(anonymous namespace)::hook26Parent>, GJBaseGameLayer> >&)::{lambda()#1}>, void ()>::operator()()
FUNC 16acec 1c 0 std::__ndk1::__function::__func<hook26<(anonymous namespace)::hook26Parent>::onModify<geode::modifier::ModifyBase<geode::modifier::ModifyDerive<hook26<(anonymous namespace)::hook26Parent>, GJBaseGameLayer> > >(geode::modifier::ModifyBase<geode::modifier::ModifyDerive<hook26<(anonymous namespace)::hook26Parent>, GJBaseGameLayer> >&)::{lambda()#1}, std::__ndk1::allocator<hook26<(anonymous namespace)::hook26Parent>::onModify<geode::modifier::ModifyBase<geode::modifier::ModifyDerive<hook26<(anonymous namespace)::hook26Parent>, GJBaseGameLayer> > >(geode::modifier::ModifyBase<geode::modifier::ModifyDerive<hook26<(anonymous namespace)::hook26Parent>, GJBaseGameLayer> >&)::{lambda()#1}>, void ()>::target(std::type_info const&) const
FUNC 16ad08 c 0 std::__ndk1::__function::__func<hook26<(anonymous namespace)::hook26Parent>::onModify<geode::modifier::ModifyBase<geode::modifier::ModifyDerive<hook26<(anonymous namespace)::hook26Parent>, GJBaseGameLayer> > >(geode::modifier::ModifyBase<geode::modifier::ModifyDerive<hook26<(anonymous namespace)::hook26Parent>, GJBaseGameLayer> >&)::{lambda()#1}, std::__ndk1::allocator<hook26<(anonymous namespace)::hook26Parent>::onModify<geode::modifier::ModifyBase<geode::modifier::ModifyDerive<hook26<(anonymous namespace)::hook26Parent>, GJBaseGameLayer> > >(geode::modifier::ModifyBase<geode::modifier::ModifyDerive<hook26<(anonymous namespace)::hook26Parent>, GJBaseGameLayer> >&)::{lambda()#1}>, void ()>::target_type() const
FUNC 16ad14 3c 0 geode::modifier::AsStaticFunction_hasUniqueCoin<hook26<(anonymous namespace)::hook26Parent>, bool (hook26<(anonymous namespace)::hook26Parent>::*)(EffectGameObject*)>::Impl<bool (hook26<(anonymous namespace)::hook26Parent>::*)(EffectGameObject*)>::function(hook26<(anonymous namespace)::hook26Parent>*, EffectGameObject*)
FUNC 16ad50 398 0 geode::modifier::ModifyDerive<hook39<(anonymous namespace)::hook39Parent>, EnhancedGameObject>::apply()
FUNC 16b0e8 4 0 geode::modifier::ModifyBase<geode::modifier::ModifyDerive<hook39<(anonymous namespace)::hook39Parent>, EnhancedGameObject> >::apply()
FUNC 16b0ec 24 0 std::__ndk1::__function::__func<hook39<(anonymous namespace)::hook39Parent>::onModify<geode::modifier::ModifyBase<geode::modifier::ModifyDerive<hook39<(anonymous namespace)::hook39Parent>, EnhancedGameObject> > >(geode::modifier::ModifyBase<geode::modifier::ModifyDerive<hook39<(anonymous namespace)::hook39Parent>, EnhancedGameObject> >&)::{lambda()#1}, std::__ndk1::allocator<hook39<(anonymous namespace)::hook39Parent>::onModify<geode::modifier::ModifyBase<geode::modifier::ModifyDerive<hook39<(anonymous namespace)::hook39Parent>, EnhancedGameObject> > >(geode::modifier::ModifyBase<geode::modifier::ModifyDerive<hook39<(anonymous namespace)::hook39Parent>, EnhancedGameObject> >&)::{lambda()#1}>, void ()>::~__func()
FUNC 16b110 40 0 std::__ndk1::__function::__func<hook39<(anonymous namespace)::hook39Parent>::onModify<geode::modifier::ModifyBase<geode::modifier::ModifyDerive<hook39<(anonymous namespace)::hook39Parent>, EnhancedGameObject> > >(geode::modifier::ModifyBase<geode::modifier::ModifyDerive<hook39<(anonymous namespace)::hook39Parent>, EnhancedGameObject> >&)::{lambda()#1}, std::__ndk1::allocator<hook39<(anonymous namespace)::hook39Parent>::onModify<geode::modifier::ModifyBase<geode::modifier::ModifyDerive<hook39<(anonymous namespace)::hook39Parent>, EnhancedGameObject> > >(geode::modifier::ModifyBase<geode::modifier::ModifyDerive<hook39<(anonymous namespace)::hook39Parent>, EnhancedGameObject> >&)::{lambda()#1}>, void ()>::~__func()
FUNC 16b150 b0 0 std::__ndk1::__function::__func<hook39<(anonymous namespace)::hook39Parent>::onModify<geode::modifier::ModifyBase<geode::modifier::ModifyDerive<hook39<(anonymous namespace)::hook39Parent>, EnhancedGameObject> > >(geode::modifier::ModifyBase<geode::modifier::ModifyDerive<hook39<(anonymous namespace)::hook39Parent>, EnhancedGameObject> >&)::{lambda()#1}, std::__ndk1::allocator<hook39<(anonymous namespace)::hook39Parent>::onModify<geode::modifier::ModifyBase<geode::modifier::ModifyDerive<hook39<(anonymous namespace)::hook39Parent>, EnhancedGameObject> > >(geode::modifier::ModifyBase<geode::modifier::ModifyDerive<hook39<(anonymous namespace)::hook39Parent>, EnhancedGameObject> >&)::{lambda()#1}>, void ()>::__clone() const
FUNC 16b200 98 0 std::__ndk1::__function::__func<hook39<(anonymous namespace)::hook39Parent>::onModify<geode::modifier::ModifyBase<geode::modifier::ModifyDerive<hook39<(anonymous namespace)::hook39Parent>, EnhancedGameObject> > >(geode::modifier::ModifyBase<geode::modifier::ModifyDerive<hook39<(anonymous namespace)::hook39Parent>, EnhancedGameObject> >&)::{lambda()#1}, std::__ndk1::allocator<hook39<(anonymous namespace)::hook39Parent>::onModify<geode::modifier::ModifyBase<geode::modifier::ModifyDerive<hook39<(anonymous namespace)::hook39Parent>, EnhancedGameObject> > >(geode::modifier::ModifyBase<geode::modifier::ModifyDerive<hook39<(anonymous namespace)::hook39Parent>, EnhancedGameObject> >&)::{lambda()#1}>, void ()>::__clone(std::__ndk1::__function::__base<void ()>*) const
FUNC 16b298 18 0 std::__ndk1::__function::__func<hook39<(anonymous namespace)::hook39Parent>::onModify<geode::modifier::ModifyBase<geode::modifier::ModifyDerive<hook39<(anonymous namespace)::hook39Parent>, EnhancedGameObject> > >(geode::modifier::ModifyBase<geode::modifier::ModifyDerive<hook39<(anonymous namespace)::hook39Parent>, EnhancedGameObject> >&)::{lambda()#1}, std::__ndk1::allocator<hook39<(anonymous namespace)::hook39Parent>::onModify<geode::modifier::ModifyBase<geode::modifier::ModifyDerive<hook39<(anonymous namespace)::hook39Parent>, EnhancedGameObject> > >(geode::modifier::ModifyBase<geode::modifier::ModifyDerive<hook39<(anonymous namespace)::hook39Parent>, EnhancedGameObject> >&)::{lambda()#1}>, void ()>::destroy()
FUNC 16b2b0 34 0 std::__ndk1::__function::__func<hook39<(anonymous namespace)::hook39Parent>::onModify<geode::modifier::ModifyBase<geode::modifier::ModifyDerive<hook39<(anonymous namespace)::hook39Parent>, EnhancedGameObject> > >(geode::modifier::ModifyBase<geode::modifier::ModifyDerive<hook39<(anonymous namespace)::hook39Parent>, EnhancedGameObject> >&)::{lambda()#1}, std::__ndk1::allocator<hook39<(anonymous namespace)::hook39Parent>::onModify<geode::modifier::ModifyBase<geode::modifier::ModifyDerive<hook39<(anonymous namespace)::hook39Parent>, EnhancedGameObject> > >(geode::modifier::ModifyBase<geode::modifier::ModifyDerive<hook39<(anonymous namespace)::hook39Parent>, EnhancedGameObject> >&)::{lambda()#1}>, void ()>::destroy_deallocate()
FUNC 16b2e4 ac 0 std::__ndk1::__function::__func<hook39<(anonymous namespace)::hook39Parent>::onModify<geode::modifier::ModifyBase<geode::modifier::ModifyDerive<hook39<(anonymous namespace)::hook39Parent>, EnhancedGameObject> > >(geode::modifier::ModifyBase<geode::modifier::ModifyDerive<hook39<(anonymous namespace)::hook39Parent>, EnhancedGameObject> >&)::{lambda()#1}, std::__ndk1::allocator<hook39<(anonymous namespace)::hook39Parent>::onModify<geode::modifier::ModifyBase<geode::modifier::ModifyDerive<hook39<(anonymous namespace)::hook39Parent>, EnhancedGameObject> > >(geode::modifier::ModifyBase<geode::modifier::ModifyDerive<hook39<(anonymous namespace)::hook39Parent>, EnhancedGameObject> >&)::{lambda()#1}>, void ()>::operator()()
FUNC 16b390 1c 0 std::__ndk1::__function::__func<hook39<(anonymous namespace)::hook39Parent>::onModify<geode::modifier::ModifyBase<geode::modifier::ModifyDerive<hook39<(anonymous namespace)::hook39Parent>, EnhancedGameObject> > >(geode::modifier::ModifyBase<geode::modifier::ModifyDerive<hook39<(anonymous namespace)::hook39Parent>, EnhancedGameObject> >&)::{lambda()#1}, std::__ndk1::allocator<hook39<(anonymous namespace)::hook39Parent>::onModify<geode::modifier::ModifyBase<geode::modifier::ModifyDerive<hook39<(anonymous namespace)::hook39Parent>, EnhancedGameObject> > >(geode::modifier::ModifyBase<geode::modifier::ModifyDerive<hook39<(anonymous namespace)::hook39Parent>, EnhancedGameObject> >&)::{lambda()#1}>, void ()>::target(std::type_info const&) const
FUNC 16b3ac c 0 std::__ndk1::__function::__func<hook39<(anonymous namespace)::hook39Parent>::onModify<geode::modifier::ModifyBase<geode::modifier::ModifyDerive<hook39<(anonymous namespace)::hook39Parent>, EnhancedGameObject> > >(geode::modifier::ModifyBase<geode::modifier::ModifyDerive<hook39<(anonymous namespace)::hook39Parent>, EnhancedGameObject> >&)::{lambda()#1}, std::__ndk1::allocator<hook39<(anonymous namespace)::hook39Parent>::onModify<geode::modifier::ModifyBase<geode::modifier::ModifyDerive<hook39<(anonymous namespace)::hook39Parent>, EnhancedGameObject> > >(geode::modifier::ModifyBase<geode::modifier::ModifyDerive<hook39<(anonymous namespace)::hook39Parent>, EnhancedGameObject> >&)::{lambda()#1}>, void ()>::target_type() const
FUNC 16b3b8 98 0 geode::modifier::AsStaticFunction_updateUserCoin<hook39<(anonymous namespace)::hook39Parent>, void (hook39<(anonymous namespace)::hook39Parent>::*)()>::Impl<void (hook39<(anonymous namespace)::hook39Parent>::*)()>::function(hook39<(anonymous namespace)::hook39Parent>*)
FUNC 16b450 44c 0 geode::modifier::ModifyDerive<hook57<(anonymous namespace)::hook57Parent>, CCCircleWave>::apply()
FUNC 16b89c 4 0 geode::modifier::ModifyBase<geode::modifier::ModifyDerive<hook57<(anonymous namespace)::hook57Parent>, CCCircleWave> >::apply()
FUNC 16b8a0 24 0 std::__ndk1::__function::__func<hook57<(anonymous namespace)::hook57Parent>::onModify<geode::modifier::ModifyBase<geode::modifier::ModifyDerive<hook57<(anonymous namespace)::hook57Parent>, CCCircleWave> > >(geode::modifier::ModifyBase<geode::modifier::ModifyDerive<hook57<(anonymous namespace)::hook57Parent>, CCCircleWave> >&)::{lambda()#1}, std::__ndk1::allocator<hook57<(anonymous namespace)::hook57Parent>::onModify<geode::modifier::ModifyBase<geode::modifier::ModifyDerive<hook57<(anonymous namespace)::hook57Parent>, CCCircleWave> > >(geode::modifier::ModifyBase<geode::modifier::ModifyDerive<hook57<(anonymous namespace)::hook57Parent>, CCCircleWave> >&)::{lambda()#1}>, void ()>::~__func()
FUNC 16b8c4 40 0 std::__ndk1::__function::__func<hook57<(anonymous namespace)::hook57Parent>::onModify<geode::modifier::ModifyBase<geode::modifier::ModifyDerive<hook57<(anonymous namespace)::hook57Parent>, CCCircleWave> > >(geode::modifier::ModifyBase<geode::modifier::ModifyDerive<hook57<(anonymous namespace)::hook57Parent>, CCCircleWave> >&)::{lambda()#1}, std::__ndk1::allocator<hook57<(anonymous namespace)::hook57Parent>::onModify<geode::modifier::ModifyBase<geode::modifier::ModifyDerive<hook57<(anonymous namespace)::hook57Parent>, CCCircleWave> > >(geode::modifier::ModifyBase<geode::modifier::ModifyDerive<hook57<(anonymous namespace)::hook57Parent>, CCCircleWave> >&)::{lambda()#1}>, void ()>::~__func()
FUNC 16b904 b0 0 std::__ndk1::__function::__func<hook57<(anonymous namespace)::hook57Parent>::onModify<geode::modifier::ModifyBase<geode::modifier::ModifyDerive<hook57<(anonymous namespace)::hook57Parent>, CCCircleWave> > >(geode::modifier::ModifyBase<geode::modifier::ModifyDerive<hook57<(anonymous namespace)::hook57Parent>, CCCircleWave> >&)::{lambda()#1}, std::__ndk1::allocator<hook57<(anonymous namespace)::hook57Parent>::onModify<geode::modifier::ModifyBase<geode::modifier::ModifyDerive<hook57<(anonymous namespace)::hook57Parent>, CCCircleWave> > >(geode::modifier::ModifyBase<geode::modifier::ModifyDerive<hook57<(anonymous namespace)::hook57Parent>, CCCircleWave> >&)::{lambda()#1}>, void ()>::__clone() const
