MODULE Linux arm 9C96F8F14FF86F298D610E739B5DAFA90 weebify.high-graphics-android.android32.so
INFO CODE_ID F1F8969CF84F296F8D610E739B5DAFA97708FC08
INFO GENERATOR mozilla/dump_syms 2.3.4
PUBLIC 108b0 0 __on_dlclose
PUBLIC 108c0 0 __emutls_unregister_key
PUBLIC 108c4 0 __on_dlclose_late
PUBLIC 108c8 0 __atexit_handler_wrapper
PUBLIC 108d4 0 atexit
PUBLIC 108f4 0 pthread_atfork
FUNC 10904 164 0 __cxx_global_var_init
FUNC 10a68 c2 0 _ZNSt6__ndk14pairINS_12basic_stringIcNS_11char_traitsIcEENS_9allocatorIcEEEES6_EC2B8ne180000IRA36_KcRA47_S9_TnNS_9enable_ifIXclsr10_CheckArgsE17__enable_implicitIT_T0_EEEiE4typeELi0EEEOSF_OSG_
FUNC 10b2a 96 0 _ZNSt6__ndk14pairIKNS_12basic_stringIcNS_11char_traitsIcEENS_9allocatorIcEEEENS0_IS6_S6_EEEC2B8ne180000ILb1ETnNS_9enable_ifIXclsr13_CheckArgsDepIXT_EEE17__enable_implicitIRS7_RKS8_EEEiE4typeELi0EEESC_SE_
FUNC 10bc0 2e 0 std::__ndk1::pair<std::__ndk1::basic_string<char, std::__ndk1::char_traits<char>, std::__ndk1::allocator<char> > const, std::__ndk1::pair<std::__ndk1::basic_string<char, std::__ndk1::char_traits<char>, std::__ndk1::allocator<char> >, std::__ndk1::basic_string<char, std::__ndk1::char_traits<char>, std::__ndk1::allocator<char> > > >::~pair()
FUNC 10bee 22 0 std::__ndk1::pair<std::__ndk1::basic_string<char, std::__ndk1::char_traits<char>, std::__ndk1::allocator<char> >, std::__ndk1::basic_string<char, std::__ndk1::char_traits<char>, std::__ndk1::allocator<char> > >::~pair()
FUNC 10c10 10 0 std::__ndk1::map<std::__ndk1::basic_string<char, std::__ndk1::char_traits<char>, std::__ndk1::allocator<char> >, std::__ndk1::pair<std::__ndk1::basic_string<char, std::__ndk1::char_traits<char>, std::__ndk1::allocator<char> >, std::__ndk1::basic_string<char, std::__ndk1::char_traits<char>, std::__ndk1::allocator<char> > >, std::__ndk1::less<std::__ndk1::basic_string<char, std::__ndk1::char_traits<char>, std::__ndk1::allocator<char> > >, std::__ndk1::allocator<std::__ndk1::pair<std::__ndk1::basic_string<char, std::__ndk1::char_traits<char>, std::__ndk1::allocator<char> > const, std::__ndk1::pair<std::__ndk1::basic_string<char, std::__ndk1::char_traits<char>, std::__ndk1::allocator<char> >, std::__ndk1::basic_string<char, std::__ndk1::char_traits<char>, std::__ndk1::allocator<char> > > > > >::~map[abi:ne180000]()
FUNC 10c20 bc 0 HighGraphics::HighGraphics()
FUNC 10cdc 1e 0 HighGraphics::~HighGraphics()
FUNC 10cfa 3a 0 std::__ndk1::__fs::filesystem::directory_iterator::~directory_iterator[abi:ne180000]()
FUNC 10d34 760 0 geodeExecFunction26<(anonymous namespace)::ExecFuncUnique26>(geode::ModStateEvent*)
FUNC 11494 10 0 std::__ndk1::basic_string<char, std::__ndk1::char_traits<char>, std::__ndk1::allocator<char> >::__throw_length_error[abi:ne180000]() const
FUNC 114a4 38 0 std::__ndk1::__throw_length_error[abi:ne180000](char const*)
FUNC 114dc 18 0 std::length_error::length_error[abi:ne180000](char const*)
FUNC 114f4 46 0 std::__ndk1::basic_string<char, std::__ndk1::char_traits<char>, std::__ndk1::allocator<char> >::__init_copy_ctor_external(char const*, unsigned int)
FUNC 1153c 290 0 std::__ndk1::__tree<std::__ndk1::__value_type<std::__ndk1::basic_string<char, std::__ndk1::char_traits<char>, std::__ndk1::allocator<char> >, int>, std::__ndk1::__map_value_compare<std::__ndk1::basic_string<char, std::__ndk1::char_traits<char>, std::__ndk1::allocator<char> >, std::__ndk1::__value_type<std::__ndk1::basic_string<char, std::__ndk1::char_traits<char>, std::__ndk1::allocator<char> >, int>, std::__ndk1::less<std::__ndk1::basic_string<char, std::__ndk1::char_traits<char>, std::__ndk1::allocator<char> > >, true>, std::__ndk1::allocator<std::__ndk1::__value_type<std::__ndk1::basic_string<char, std::__ndk1::char_traits<char>, std::__ndk1::allocator<char> >, int> > >::__emplace_hint_unique_key_args<std::__ndk1::basic_string<char, std::__ndk1::char_traits<char>, std::__ndk1::allocator<char> >, std::__ndk1::pair<std::__ndk1::basic_string<char, std::__ndk1::char_traits<char>, std::__ndk1::allocator<char> > const, int> const&>(std::__ndk1::__tree_const_iterator<std::__ndk1::__value_type<std::__ndk1::basic_string<char, std::__ndk1::char_traits<char>, std::__ndk1::allocator<char> >, int>, std::__ndk1::__tree_node<std::__ndk1::__value_type<std::__ndk1::basic_string<char, std::__ndk1::char_traits<char>, std::__ndk1::allocator<char> >, int>, void*>*, int>, std::__ndk1::basic_string<char, std::__ndk1::char_traits<char>, std::__ndk1::allocator<char> > const&, std::__ndk1::pair<std::__ndk1::basic_string<char, std::__ndk1::char_traits<char>, std::__ndk1::allocator<char> > const, int> const&)
FUNC 117cc 3a 0 std::__ndk1::unique_ptr<std::__ndk1::__tree_node<std::__ndk1::__value_type<std::__ndk1::basic_string<char, std::__ndk1::char_traits<char>, std::__ndk1::allocator<char> >, int>, void*>, std::__ndk1::__tree_node_destructor<std::__ndk1::allocator<std::__ndk1::__tree_node<std::__ndk1::__value_type<std::__ndk1::basic_string<char, std::__ndk1::char_traits<char>, std::__ndk1::allocator<char> >, int>, void*> > > >::~unique_ptr[abi:ne180000]()
FUNC 11806 ba 0 std::__ndk1::__tree<std::__ndk1::__value_type<std::__ndk1::basic_string<char, std::__ndk1::char_traits<char>, std::__ndk1::allocator<char> >, int>, std::__ndk1::__map_value_compare<std::__ndk1::basic_string<char, std::__ndk1::char_traits<char>, std::__ndk1::allocator<char> >, std::__ndk1::__value_type<std::__ndk1::basic_string<char, std::__ndk1::char_traits<char>, std::__ndk1::allocator<char> >, int>, std::__ndk1::less<std::__ndk1::basic_string<char, std::__ndk1::char_traits<char>, std::__ndk1::allocator<char> > >, true>, std::__ndk1::allocator<std::__ndk1::__value_type<std::__ndk1::basic_string<char, std::__ndk1::char_traits<char>, std::__ndk1::allocator<char> >, int> > >::__find_equal<std::__ndk1::basic_string<char, std::__ndk1::char_traits<char>, std::__ndk1::allocator<char> > >(std::__ndk1::__tree_end_node<std::__ndk1::__tree_node_base<void*>*>*&, std::__ndk1::basic_string<char, std::__ndk1::char_traits<char>, std::__ndk1::allocator<char> > const&)
FUNC 118c0 14a 0 std::__ndk1::__tree_balance_after_insert[abi:ne180000]<std::__ndk1::__tree_node_base<void*>*>(std::__ndk1::__tree_node_base<void*>*, std::__ndk1::__tree_node_base<void*>*)
FUNC 11a0a 32 0 std::__ndk1::__tree<std::__ndk1::__value_type<std::__ndk1::basic_string<char, std::__ndk1::char_traits<char>, std::__ndk1::allocator<char> >, int>, std::__ndk1::__map_value_compare<std::__ndk1::basic_string<char, std::__ndk1::char_traits<char>, std::__ndk1::allocator<char> >, std::__ndk1::__value_type<std::__ndk1::basic_string<char, std::__ndk1::char_traits<char>, std::__ndk1::allocator<char> >, int>, std::__ndk1::less<std::__ndk1::basic_string<char, std::__ndk1::char_traits<char>, std::__ndk1::allocator<char> > >, true>, std::__ndk1::allocator<std::__ndk1::__value_type<std::__ndk1::basic_string<char, std::__ndk1::char_traits<char>, std::__ndk1::allocator<char> >, int> > >::destroy(std::__ndk1::__tree_node<std::__ndk1::__value_type<std::__ndk1::basic_string<char, std::__ndk1::char_traits<char>, std::__ndk1::allocator<char> >, int>, void*>*)
FUNC 11a3c ac 0 std::__ndk1::__fs::filesystem::path::operator/=[abi:ne180000](std::__ndk1::__fs::filesystem::path const&)
FUNC 11ae8 66 0 std::__ndk1::basic_string<char, std::__ndk1::char_traits<char>, std::__ndk1::allocator<char> >::__assign_no_alias<true>(char const*, unsigned int)
FUNC 11b4e a6 0 std::__ndk1::basic_string<char, std::__ndk1::char_traits<char>, std::__ndk1::allocator<char> >::__assign_no_alias<false>(char const*, unsigned int)
FUNC 11bf4 b0 0 std::__ndk1::__tree<std::__ndk1::__value_type<std::__ndk1::basic_string<char, std::__ndk1::char_traits<char>, std::__ndk1::allocator<char> >, std::__ndk1::pair<std::__ndk1::basic_string<char, std::__ndk1::char_traits<char>, std::__ndk1::allocator<char> >, std::__ndk1::basic_string<char, std::__ndk1::char_traits<char>, std::__ndk1::allocator<char> > > >, std::__ndk1::__map_value_compare<std::__ndk1::basic_string<char, std::__ndk1::char_traits<char>, std::__ndk1::allocator<char> >, std::__ndk1::__value_type<std::__ndk1::basic_string<char, std::__ndk1::char_traits<char>, std::__ndk1::allocator<char> >, std::__ndk1::pair<std::__ndk1::basic_string<char, std::__ndk1::char_traits<char>, std::__ndk1::allocator<char> >, std::__ndk1::basic_string<char, std::__ndk1::char_traits<char>, std::__ndk1::allocator<char> > > >, std::__ndk1::less<std::__ndk1::basic_string<char, std::__ndk1::char_traits<char>, std::__ndk1::allocator<char> > >, true>, std::__ndk1::allocator<std::__ndk1::__value_type<std::__ndk1::basic_string<char, std::__ndk1::char_traits<char>, std::__ndk1::allocator<char> >, std::__ndk1::pair<std::__ndk1::basic_string<char, std::__ndk1::char_traits<char>, std::__ndk1::allocator<char> >, std::__ndk1::basic_string<char, std::__ndk1::char_traits<char>, std::__ndk1::allocator<char> > > > > >::__emplace_hint_unique_key_args<std::__ndk1::basic_string<char, std::__ndk1::char_traits<char>, std::__ndk1::allocator<char> >, std::__ndk1::pair<std::__ndk1::basic_string<char, std::__ndk1::char_traits<char>, std::__ndk1::allocator<char> > const, std::__ndk1::pair<std::__ndk1::basic_string<char, std::__ndk1::char_traits<char>, std::__ndk1::allocator<char> >, std::__ndk1::basic_string<char, std::__ndk1::char_traits<char>, std::__ndk1::allocator<char> > > > const&>(std::__ndk1::__tree_const_iterator<std::__ndk1::__value_type<std::__ndk1::basic_string<char, std::__ndk1::char_traits<char>, std::__ndk1::allocator<char> >, std::__ndk1::pair<std::__ndk1::basic_string<char, std::__ndk1::char_traits<char>, std::__ndk1::allocator<char> >, std::__ndk1::basic_string<char, std::__ndk1::char_traits<char>, std::__ndk1::allocator<char> > > >, std::__ndk1::__tree_node<std::__ndk1::__value_type<std::__ndk1::basic_string<char, std::__ndk1::char_traits<char>, std::__ndk1::allocator<char> >, std::__ndk1::pair<std::__ndk1::basic_string<char, std::__ndk1::char_traits<char>, std::__ndk1::allocator<char> >, std::__ndk1::basic_string<char, std::__ndk1::char_traits<char>, std::__ndk1::allocator<char> > > >, void*>*, int>, std::__ndk1::basic_string<char, std::__ndk1::char_traits<char>, std::__ndk1::allocator<char> > const&, std::__ndk1::pair<std::__ndk1::basic_string<char, std::__ndk1::char_traits<char>, std::__ndk1::allocator<char> > const, std::__ndk1::pair<std::__ndk1::basic_string<char, std::__ndk1::char_traits<char>, std::__ndk1::allocator<char> >, std::__ndk1::basic_string<char, std::__ndk1::char_traits<char>, std::__ndk1::allocator<char> > > > const&)
FUNC 11ca4 1fc 0 std::__ndk1::__tree<std::__ndk1::__value_type<std::__ndk1::basic_string<char, std::__ndk1::char_traits<char>, std::__ndk1::allocator<char> >, std::__ndk1::pair<std::__ndk1::basic_string<char, std::__ndk1::char_traits<char>, std::__ndk1::allocator<char> >, std::__ndk1::basic_string<char, std::__ndk1::char_traits<char>, std::__ndk1::allocator<char> > > >, std::__ndk1::__map_value_compare<std::__ndk1::basic_string<char, std::__ndk1::char_traits<char>, std::__ndk1::allocator<char> >, std::__ndk1::__value_type<std::__ndk1::basic_string<char, std::__ndk1::char_traits<char>, std::__ndk1::allocator<char> >, std::__ndk1::pair<std::__ndk1::basic_string<char, std::__ndk1::char_traits<char>, std::__ndk1::allocator<char> >, std::__ndk1::basic_string<char, std::__ndk1::char_traits<char>, std::__ndk1::allocator<char> > > >, std::__ndk1::less<std::__ndk1::basic_string<char, std::__ndk1::char_traits<char>, std::__ndk1::allocator<char> > >, true>, std::__ndk1::allocator<std::__ndk1::__value_type<std::__ndk1::basic_string<char, std::__ndk1::char_traits<char>, std::__ndk1::allocator<char> >, std::__ndk1::pair<std::__ndk1::basic_string<char, std::__ndk1::char_traits<char>, std::__ndk1::allocator<char> >, std::__ndk1::basic_string<char, std::__ndk1::char_traits<char>, std::__ndk1::allocator<char> > > > > >::__find_equal<std::__ndk1::basic_string<char, std::__ndk1::char_traits<char>, std::__ndk1::allocator<char> > >(std::__ndk1::__tree_const_iterator<std::__ndk1::__value_type<std::__ndk1::basic_string<char, std::__ndk1::char_traits<char>, std::__ndk1::allocator<char> >, std::__ndk1::pair<std::__ndk1::basic_string<char, std::__ndk1::char_traits<char>, std::__ndk1::allocator<char> >, std::__ndk1::basic_string<char, std::__ndk1::char_traits<char>, std::__ndk1::allocator<char> > > >, std::__ndk1::__tree_node<std::__ndk1::__value_type<std::__ndk1::basic_string<char, std::__ndk1::char_traits<char>, std::__ndk1::allocator<char> >, std::__ndk1::pair<std::__ndk1::basic_string<char, std::__ndk1::char_traits<char>, std::__ndk1::allocator<char> >, std::__ndk1::basic_string<char, std::__ndk1::char_traits<char>, std::__ndk1::allocator<char> > > >, void*>*, int>, std::__ndk1::__tree_end_node<std::__ndk1::__tree_node_base<void*>*>*&, std::__ndk1::__tree_node_base<void*>*&, std::__ndk1::basic_string<char, std::__ndk1::char_traits<char>, std::__ndk1::allocator<char> > const&)
FUNC 11ea0 42 0 std::__ndk1::unique_ptr<std::__ndk1::__tree_node<std::__ndk1::__value_type<std::__ndk1::basic_string<char, std::__ndk1::char_traits<char>, std::__ndk1::allocator<char> >, std::__ndk1::pair<std::__ndk1::basic_string<char, std::__ndk1::char_traits<char>, std::__ndk1::allocator<char> >, std::__ndk1::basic_string<char, std::__ndk1::char_traits<char>, std::__ndk1::allocator<char> > > >, void*>, std::__ndk1::__tree_node_destructor<std::__ndk1::allocator<std::__ndk1::__tree_node<std::__ndk1::__value_type<std::__ndk1::basic_string<char, std::__ndk1::char_traits<char>, std::__ndk1::allocator<char> >, std::__ndk1::pair<std::__ndk1::basic_string<char, std::__ndk1::char_traits<char>, std::__ndk1::allocator<char> >, std::__ndk1::basic_string<char, std::__ndk1::char_traits<char>, std::__ndk1::allocator<char> > > >, void*> > > >::~unique_ptr[abi:ne180000]()
FUNC 11ee2 ba 0 std::__ndk1::__tree<std::__ndk1::__value_type<std::__ndk1::basic_string<char, std::__ndk1::char_traits<char>, std::__ndk1::allocator<char> >, std::__ndk1::pair<std::__ndk1::basic_string<char, std::__ndk1::char_traits<char>, std::__ndk1::allocator<char> >, std::__ndk1::basic_string<char, std::__ndk1::char_traits<char>, std::__ndk1::allocator<char> > > >, std::__ndk1::__map_value_compare<std::__ndk1::basic_string<char, std::__ndk1::char_traits<char>, std::__ndk1::allocator<char> >, std::__ndk1::__value_type<std::__ndk1::basic_string<char, std::__ndk1::char_traits<char>, std::__ndk1::allocator<char> >, std::__ndk1::pair<std::__ndk1::basic_string<char, std::__ndk1::char_traits<char>, std::__ndk1::allocator<char> >, std::__ndk1::basic_string<char, std::__ndk1::char_traits<char>, std::__ndk1::allocator<char> > > >, std::__ndk1::less<std::__ndk1::basic_string<char, std::__ndk1::char_traits<char>, std::__ndk1::allocator<char> > >, true>, std::__ndk1::allocator<std::__ndk1::__value_type<std::__ndk1::basic_string<char, std::__ndk1::char_traits<char>, std::__ndk1::allocator<char> >, std::__ndk1::pair<std::__ndk1::basic_string<char, std::__ndk1::char_traits<char>, std::__ndk1::allocator<char> >, std::__ndk1::basic_string<char, std::__ndk1::char_traits<char>, std::__ndk1::allocator<char> > > > > >::__find_equal<std::__ndk1::basic_string<char, std::__ndk1::char_traits<char>, std::__ndk1::allocator<char> > >(std::__ndk1::__tree_end_node<std::__ndk1::__tree_node_base<void*>*>*&, std::__ndk1::basic_string<char, std::__ndk1::char_traits<char>, std::__ndk1::allocator<char> > const&)
FUNC 11f9c 9a 0 std::__ndk1::pair<std::__ndk1::basic_string<char, std::__ndk1::char_traits<char>, std::__ndk1::allocator<char> > const, std::__ndk1::pair<std::__ndk1::basic_string<char, std::__ndk1::char_traits<char>, std::__ndk1::allocator<char> >, std::__ndk1::basic_string<char, std::__ndk1::char_traits<char>, std::__ndk1::allocator<char> > > >::pair[abi:ne180000](std::__ndk1::pair<std::__ndk1::basic_string<char, std::__ndk1::char_traits<char>, std::__ndk1::allocator<char> > const, std::__ndk1::pair<std::__ndk1::basic_string<char, std::__ndk1::char_traits<char>, std::__ndk1::allocator<char> >, std::__ndk1::basic_string<char, std::__ndk1::char_traits<char>, std::__ndk1::allocator<char> > > > const&)
FUNC 12036 4c 0 std::__ndk1::__tree<std::__ndk1::__value_type<std::__ndk1::basic_string<char, std::__ndk1::char_traits<char>, std::__ndk1::allocator<char> >, std::__ndk1::pair<std::__ndk1::basic_string<char, std::__ndk1::char_traits<char>, std::__ndk1::allocator<char> >, std::__ndk1::basic_string<char, std::__ndk1::char_traits<char>, std::__ndk1::allocator<char> > > >, std::__ndk1::__map_value_compare<std::__ndk1::basic_string<char, std::__ndk1::char_traits<char>, std::__ndk1::allocator<char> >, std::__ndk1::__value_type<std::__ndk1::basic_string<char, std::__ndk1::char_traits<char>, std::__ndk1::allocator<char> >, std::__ndk1::pair<std::__ndk1::basic_string<char, std::__ndk1::char_traits<char>, std::__ndk1::allocator<char> >, std::__ndk1::basic_string<char, std::__ndk1::char_traits<char>, std::__ndk1::allocator<char> > > >, std::__ndk1::less<std::__ndk1::basic_string<char, std::__ndk1::char_traits<char>, std::__ndk1::allocator<char> > >, true>, std::__ndk1::allocator<std::__ndk1::__value_type<std::__ndk1::basic_string<char, std::__ndk1::char_traits<char>, std::__ndk1::allocator<char> >, std::__ndk1::pair<std::__ndk1::basic_string<char, std::__ndk1::char_traits<char>, std::__ndk1::allocator<char> >, std::__ndk1::basic_string<char, std::__ndk1::char_traits<char>, std::__ndk1::allocator<char> > > > > >::destroy(std::__ndk1::__tree_node<std::__ndk1::__value_type<std::__ndk1::basic_string<char, std::__ndk1::char_traits<char>, std::__ndk1::allocator<char> >, std::__ndk1::pair<std::__ndk1::basic_string<char, std::__ndk1::char_traits<char>, std::__ndk1::allocator<char> >, std::__ndk1::basic_string<char, std::__ndk1::char_traits<char>, std::__ndk1::allocator<char> > > >, void*>*)
FUNC 12084 1e0 0 _ZNSt6__ndk112basic_stringIcNS_11char_traitsIcEENS_9allocatorIcEEE6appendB8ne180000IPKcTnNS_9enable_ifIXsr31__has_forward_iterator_categoryIT_EE5valueEiE4typeELi0EEERS5_SA_SA_
FUNC 12264 34 0 std::__ndk1::__throw_bad_optional_access[abi:ne180000]()
FUNC 12298 4 0 geode::EventListener<geode::ModStateFilter>::getPool() const
FUNC 1229c e4 0 geode::EventListener<geode::ModStateFilter>::handle(geode::Event*)
FUNC 12380 38 0 geode::EventListener<geode::ModStateFilter>::~EventListener()
FUNC 123b8 3c 0 geode::EventListener<geode::ModStateFilter>::~EventListener()
FUNC 123f4 2 0 std::__ndk1::__function::__base<void (geode::ModStateEvent*)>::~__base()
FUNC 123f6 4 0 std::__ndk1::__function::__func<void (*)(geode::ModStateEvent*), std::__ndk1::allocator<void (*)(geode::ModStateEvent*)>, void (geode::ModStateEvent*)>::~__func()
FUNC 123fc 20 0 std::__ndk1::__function::__func<void (*)(geode::ModStateEvent*), std::__ndk1::allocator<void (*)(geode::ModStateEvent*)>, void (geode::ModStateEvent*)>::__clone() const
FUNC 1241c 14 0 std::__ndk1::__function::__func<void (*)(geode::ModStateEvent*), std::__ndk1::allocator<void (*)(geode::ModStateEvent*)>, void (geode::ModStateEvent*)>::__clone(std::__ndk1::__function::__base<void (geode::ModStateEvent*)>*) const
FUNC 12430 2 0 std::__ndk1::__function::__func<void (*)(geode::ModStateEvent*), std::__ndk1::allocator<void (*)(geode::ModStateEvent*)>, void (geode::ModStateEvent*)>::destroy()
FUNC 12432 4 0 std::__ndk1::__function::__func<void (*)(geode::ModStateEvent*), std::__ndk1::allocator<void (*)(geode::ModStateEvent*)>, void (geode::ModStateEvent*)>::destroy_deallocate()
FUNC 12436 8 0 std::__ndk1::__function::__func<void (*)(geode::ModStateEvent*), std::__ndk1::allocator<void (*)(geode::ModStateEvent*)>, void (geode::ModStateEvent*)>::operator()(geode::ModStateEvent*&&)
FUNC 12440 18 0 std::__ndk1::__function::__func<void (*)(geode::ModStateEvent*), std::__ndk1::allocator<void (*)(geode::ModStateEvent*)>, void (geode::ModStateEvent*)>::target(std::type_info const&) const
FUNC 12458 c 0 std::__ndk1::__function::__func<void (*)(geode::ModStateEvent*), std::__ndk1::allocator<void (*)(geode::ModStateEvent*)>, void (geode::ModStateEvent*)>::target_type() const
FUNC 12464 8c 0 geode::cast::traverseTypeinfoFor(void*, geode::cast::ClassTypeinfoType const*, char const*)
FUNC 124f0 cc 0 _GLOBAL__sub_I_HighGraphics.cpp
FUNC 125bc 120 0 HighTexturesPopup::createButton(char const*, float, char const*, std::__ndk1::basic_string<char, std::__ndk1::char_traits<char>, std::__ndk1::allocator<char> >, void (cocos2d::CCObject::*)(cocos2d::CCObject*))
FUNC 126dc 94 0 HighTexturesPopup::keyDown(cocos2d::enumKeyCodes)
FUNC 12770 80 0 geode::Mod::setSavedValue<bool>(std::__ndk1::basic_string_view<char, std::__ndk1::char_traits<char> >, bool const&)
FUNC 127f0 18 0 geode::Popup<bool>::keyDown(cocos2d::enumKeyCodes)
FUNC 12808 98 0 {virtual override thunk({offset(-276)}, HighTexturesPopup::keyDown(cocos2d::enumKeyCodes))}
FUNC 128a0 c28 0 HighTexturesPopup::setup(bool)
FUNC 134c8 4 0 HighTexturesPopup::onDownload(cocos2d::CCObject*)
FUNC 134cc 1b8 0 HighTexturesPopup::onExtract(cocos2d::CCObject*)
FUNC 13684 2d4 0 HighTexturesPopup::onRetry(cocos2d::CCObject*)
FUNC 13958 60 0 HighTexturesPopup::onRestart(cocos2d::CCObject*)
FUNC 139b8 34 0 HighTexturesPopup::onHide(cocos2d::CCObject*)
FUNC 139ec d0 0 HighTexturesPopup::setDownloadPercentage(float, cocos2d::_ccColor3B)
FUNC 13ac0 ac 0 HighTexturesPopup::create(bool)
FUNC 13b6c 1c0 0 HighTexturesPopup::HighTexturesPopup()
FUNC 13d2c 3d4 0 HighTexturesPopup::startDownload()
FUNC 14100 674 0 HighTexturesPopup::startExtract(std::__ndk1::__fs::filesystem::path, std::__ndk1::__fs::filesystem::path)
FUNC 14774 d0 0 HighTexturesPopup::setExtractPercentage(float, cocos2d::_ccColor3B)
FUNC 14844 22 0 HighTexturesPopup::getExtractTask(std::__ndk1::__fs::filesystem::path, std::__ndk1::__fs::filesystem::path)::$_0::~$_0()
FUNC 14866 3a 0 geode::Task<geode::utils::web::WebResponse, geode::utils::web::WebProgress>::~Task()
FUNC 148a0 3a 0 geode::Task<geode::Result<void, std::__ndk1::basic_string<char, std::__ndk1::char_traits<char>, std::__ndk1::allocator<char> > >, float>::~Task()
FUNC 148dc 190 0 HighTexturesPopup::downloadFailed(std::__ndk1::basic_string<char, std::__ndk1::char_traits<char>, std::__ndk1::allocator<char> >)
FUNC 14a6c cc 0 HighTexturesPopup::notifyFailure(std::__ndk1::basic_string<char, std::__ndk1::char_traits<char>, std::__ndk1::allocator<char> >, std::__ndk1::basic_string<char, std::__ndk1::char_traits<char>, std::__ndk1::allocator<char> >)
FUNC 14b38 194 0 HighTexturesPopup::extractFailed(std::__ndk1::basic_string<char, std::__ndk1::char_traits<char>, std::__ndk1::allocator<char> >)
FUNC 14ccc 4 0 cocos2d::CCCopying::copyWithZone(cocos2d::CCZone*)
FUNC 14cd0 184 0 HighTexturesPopup::~HighTexturesPopup()
FUNC 14e54 10 0 HighTexturesPopup::~HighTexturesPopup()
FUNC 14e64 20 0 geode::Popup<bool>::registerWithTouchDispatcher()
FUNC 14e84 2 0 cocos2d::CCLayerRGBA::setOpacityModifyRGB(bool)
FUNC 14e86 4 0 cocos2d::CCLayerRGBA::isOpacityModifyRGB()
FUNC 14e8c e4 0 geode::Popup<bool>::onClose(cocos2d::CCObject*)
FUNC 14f70 8 0 {virtual override thunk({offset(-264)}, HighTexturesPopup::~HighTexturesPopup())}
FUNC 14f78 14 0 {virtual override thunk({offset(-264)}, HighTexturesPopup::~HighTexturesPopup())}
FUNC 14f8c 2 0 cocos2d::CCKeyboardDelegate::keyUp(cocos2d::enumKeyCodes)
FUNC 14f8e 2 0 cocos2d::CCMouseDelegate::rightKeyDown()
FUNC 14f90 2 0 cocos2d::CCMouseDelegate::rightKeyUp()
FUNC 14f92 2 0 cocos2d::CCMouseDelegate::scrollWheel(float, float)
FUNC 14f94 2 0 {virtual override thunk({offset(-316)}, cocos2d::CCLayerRGBA::setOpacityModifyRGB(bool))}
FUNC 14f96 4 0 {virtual override thunk({offset(-316)}, cocos2d::CCLayerRGBA::isOpacityModifyRGB())}
PUBLIC 14f9b 0 __clang_call_terminate
FUNC 14fa8 68 0 geode::EventListener<geode::Task<geode::utils::web::WebResponse, geode::utils::web::WebProgress> >::~EventListener()
FUNC 15010 5c 0 geode::Popup<bool>::~Popup()
FUNC 1506c 2 0 geode::Popup<bool>::~Popup()
FUNC 15070 60 0 {virtual override thunk({offset(-264)}, geode::Popup<bool>::~Popup())}
FUNC 150d0 2 0 {virtual override thunk({offset(-264)}, geode::Popup<bool>::~Popup())}
FUNC 150d2 1c 0 {virtual override thunk({offset(-276)}, geode::Popup<bool>::keyDown(cocos2d::enumKeyCodes))}
FUNC 150f0 168 0 geode::Task<geode::utils::web::WebResponse, geode::utils::web::WebProgress>::setListener(geode::EventListenerProtocol*)
FUNC 15258 4 0 geode::EventListener<geode::Task<geode::utils::web::WebResponse, geode::utils::web::WebProgress> >::getPool() const
FUNC 1525c e8 0 geode::EventListener<geode::Task<geode::utils::web::WebResponse, geode::utils::web::WebProgress> >::handle(geode::Event*)
FUNC 15344 6c 0 geode::EventListener<geode::Task<geode::utils::web::WebResponse, geode::utils::web::WebProgress> >::~EventListener()
FUNC 153b0 3a 0 geode::Task<geode::utils::web::WebResponse, geode::utils::web::WebProgress>::setListener(geode::EventListenerProtocol*)::{lambda()#1}::~{lambda()#1}()
FUNC 153ea 3a 0 geode::Task<geode::utils::web::WebResponse, geode::utils::web::WebProgress>::setListener(geode::EventListenerProtocol*)::{lambda()#2}::~{lambda()#2}()
FUNC 15424 48 0 std::__ndk1::__function::__func<geode::Task<geode::utils::web::WebResponse, geode::utils::web::WebProgress>::setListener(geode::EventListenerProtocol*)::{lambda()#1}, std::__ndk1::allocator<geode::Task<geode::utils::web::WebResponse, geode::utils::web::WebProgress>::setListener(geode::EventListenerProtocol*)::{lambda()#1}>, void ()>::~__func()
FUNC 1546c 54 0 std::__ndk1::__function::__func<geode::Task<geode::utils::web::WebResponse, geode::utils::web::WebProgress>::setListener(geode::EventListenerProtocol*)::{lambda()#1}, std::__ndk1::allocator<geode::Task<geode::utils::web::WebResponse, geode::utils::web::WebProgress>::setListener(geode::EventListenerProtocol*)::{lambda()#1}>, void ()>::~__func()
FUNC 154c0 40 0 std::__ndk1::__function::__func<geode::Task<geode::utils::web::WebResponse, geode::utils::web::WebProgress>::setListener(geode::EventListenerProtocol*)::{lambda()#1}, std::__ndk1::allocator<geode::Task<geode::utils::web::WebResponse, geode::utils::web::WebProgress>::setListener(geode::EventListenerProtocol*)::{lambda()#1}>, void ()>::__clone() const
FUNC 15500 34 0 std::__ndk1::__function::__func<geode::Task<geode::utils::web::WebResponse, geode::utils::web::WebProgress>::setListener(geode::EventListenerProtocol*)::{lambda()#1}, std::__ndk1::allocator<geode::Task<geode::utils::web::WebResponse, geode::utils::web::WebProgress>::setListener(geode::EventListenerProtocol*)::{lambda()#1}>, void ()>::__clone(std::__ndk1::__function::__base<void ()>*) const
FUNC 15534 3a 0 std::__ndk1::__function::__func<geode::Task<geode::utils::web::WebResponse, geode::utils::web::WebProgress>::setListener(geode::EventListenerProtocol*)::{lambda()#1}, std::__ndk1::allocator<geode::Task<geode::utils::web::WebResponse, geode::utils::web::WebProgress>::setListener(geode::EventListenerProtocol*)::{lambda()#1}>, void ()>::destroy()
FUNC 1556e 44 0 std::__ndk1::__function::__func<geode::Task<geode::utils::web::WebResponse, geode::utils::web::WebProgress>::setListener(geode::EventListenerProtocol*)::{lambda()#1}, std::__ndk1::allocator<geode::Task<geode::utils::web::WebResponse, geode::utils::web::WebProgress>::setListener(geode::EventListenerProtocol*)::{lambda()#1}>, void ()>::destroy_deallocate()
FUNC 155b4 150 0 std::__ndk1::__function::__func<geode::Task<geode::utils::web::WebResponse, geode::utils::web::WebProgress>::setListener(geode::EventListenerProtocol*)::{lambda()#1}, std::__ndk1::allocator<geode::Task<geode::utils::web::WebResponse, geode::utils::web::WebProgress>::setListener(geode::EventListenerProtocol*)::{lambda()#1}>, void ()>::operator()()
FUNC 15704 18 0 std::__ndk1::__function::__func<geode::Task<geode::utils::web::WebResponse, geode::utils::web::WebProgress>::setListener(geode::EventListenerProtocol*)::{lambda()#1}, std::__ndk1::allocator<geode::Task<geode::utils::web::WebResponse, geode::utils::web::WebProgress>::setListener(geode::EventListenerProtocol*)::{lambda()#1}>, void ()>::target(std::type_info const&) const
FUNC 1571c c 0 std::__ndk1::__function::__func<geode::Task<geode::utils::web::WebResponse, geode::utils::web::WebProgress>::setListener(geode::EventListenerProtocol*)::{lambda()#1}, std::__ndk1::allocator<geode::Task<geode::utils::web::WebResponse, geode::utils::web::WebProgress>::setListener(geode::EventListenerProtocol*)::{lambda()#1}>, void ()>::target_type() const
FUNC 15728 44 0 geode::Task<geode::utils::web::WebResponse, geode::utils::web::WebProgress>::Event::~Event()
FUNC 1576c 40 0 geode::Task<geode::utils::web::WebResponse, geode::utils::web::WebProgress>::Event::~Event()
FUNC 157ac 48 0 std::__ndk1::__function::__func<geode::Task<geode::utils::web::WebResponse, geode::utils::web::WebProgress>::setListener(geode::EventListenerProtocol*)::{lambda()#2}, std::__ndk1::allocator<geode::Task<geode::utils::web::WebResponse, geode::utils::web::WebProgress>::setListener(geode::EventListenerProtocol*)::{lambda()#2}>, void ()>::~__func()
FUNC 157f4 54 0 std::__ndk1::__function::__func<geode::Task<geode::utils::web::WebResponse, geode::utils::web::WebProgress>::setListener(geode::EventListenerProtocol*)::{lambda()#2}, std::__ndk1::allocator<geode::Task<geode::utils::web::WebResponse, geode::utils::web::WebProgress>::setListener(geode::EventListenerProtocol*)::{lambda()#2}>, void ()>::~__func()
FUNC 15848 3c 0 std::__ndk1::__function::__func<geode::Task<geode::utils::web::WebResponse, geode::utils::web::WebProgress>::setListener(geode::EventListenerProtocol*)::{lambda()#2}, std::__ndk1::allocator<geode::Task<geode::utils::web::WebResponse, geode::utils::web::WebProgress>::setListener(geode::EventListenerProtocol*)::{lambda()#2}>, void ()>::__clone() const
FUNC 15884 30 0 std::__ndk1::__function::__func<geode::Task<geode::utils::web::WebResponse, geode::utils::web::WebProgress>::setListener(geode::EventListenerProtocol*)::{lambda()#2}, std::__ndk1::allocator<geode::Task<geode::utils::web::WebResponse, geode::utils::web::WebProgress>::setListener(geode::EventListenerProtocol*)::{lambda()#2}>, void ()>::__clone(std::__ndk1::__function::__base<void ()>*) const
FUNC 158b4 3a 0 std::__ndk1::__function::__func<geode::Task<geode::utils::web::WebResponse, geode::utils::web::WebProgress>::setListener(geode::EventListenerProtocol*)::{lambda()#2}, std::__ndk1::allocator<geode::Task<geode::utils::web::WebResponse, geode::utils::web::WebProgress>::setListener(geode::EventListenerProtocol*)::{lambda()#2}>, void ()>::destroy()
FUNC 158ee 44 0 std::__ndk1::__function::__func<geode::Task<geode::utils::web::WebResponse, geode::utils::web::WebProgress>::setListener(geode::EventListenerProtocol*)::{lambda()#2}, std::__ndk1::allocator<geode::Task<geode::utils::web::WebResponse, geode::utils::web::WebProgress>::setListener(geode::EventListenerProtocol*)::{lambda()#2}>, void ()>::destroy_deallocate()
FUNC 15934 150 0 std::__ndk1::__function::__func<geode::Task<geode::utils::web::WebResponse, geode::utils::web::WebProgress>::setListener(geode::EventListenerProtocol*)::{lambda()#2}, std::__ndk1::allocator<geode::Task<geode::utils::web::WebResponse, geode::utils::web::WebProgress>::setListener(geode::EventListenerProtocol*)::{lambda()#2}>, void ()>::operator()()
FUNC 15a84 18 0 std::__ndk1::__function::__func<geode::Task<geode::utils::web::WebResponse, geode::utils::web::WebProgress>::setListener(geode::EventListenerProtocol*)::{lambda()#2}, std::__ndk1::allocator<geode::Task<geode::utils::web::WebResponse, geode::utils::web::WebProgress>::setListener(geode::EventListenerProtocol*)::{lambda()#2}>, void ()>::target(std::type_info const&) const
FUNC 15a9c c 0 std::__ndk1::__function::__func<geode::Task<geode::utils::web::WebResponse, geode::utils::web::WebProgress>::setListener(geode::EventListenerProtocol*)::{lambda()#2}, std::__ndk1::allocator<geode::Task<geode::utils::web::WebResponse, geode::utils::web::WebProgress>::setListener(geode::EventListenerProtocol*)::{lambda()#2}>, void ()>::target_type() const
FUNC 15aa8 34 0 std::__ndk1::__throw_bad_function_call[abi:ne180000]()
FUNC 15adc 10 0 std::__ndk1::bad_function_call::~bad_function_call()
FUNC 15aec 168 0 geode::Task<geode::Result<void, std::__ndk1::basic_string<char, std::__ndk1::char_traits<char>, std::__ndk1::allocator<char> > >, float>::setListener(geode::EventListenerProtocol*)
FUNC 15c54 4 0 geode::EventListener<geode::Task<geode::Result<void, std::__ndk1::basic_string<char, std::__ndk1::char_traits<char>, std::__ndk1::allocator<char> > >, float> >::getPool() const
FUNC 15c58 e8 0 geode::EventListener<geode::Task<geode::Result<void, std::__ndk1::basic_string<char, std::__ndk1::char_traits<char>, std::__ndk1::allocator<char> > >, float> >::handle(geode::Event*)
FUNC 15d40 68 0 geode::EventListener<geode::Task<geode::Result<void, std::__ndk1::basic_string<char, std::__ndk1::char_traits<char>, std::__ndk1::allocator<char> > >, float> >::~EventListener()
FUNC 15da8 6c 0 geode::EventListener<geode::Task<geode::Result<void, std::__ndk1::basic_string<char, std::__ndk1::char_traits<char>, std::__ndk1::allocator<char> > >, float> >::~EventListener()
FUNC 15e14 3a 0 geode::Task<geode::Result<void, std::__ndk1::basic_string<char, std::__ndk1::char_traits<char>, std::__ndk1::allocator<char> > >, float>::setListener(geode::EventListenerProtocol*)::{lambda()#1}::~{lambda()#1}()
FUNC 15e4e 3a 0 geode::Task<geode::Result<void, std::__ndk1::basic_string<char, std::__ndk1::char_traits<char>, std::__ndk1::allocator<char> > >, float>::setListener(geode::EventListenerProtocol*)::{lambda()#2}::~{lambda()#2}()
FUNC 15e88 48 0 std::__ndk1::__function::__func<geode::Task<geode::Result<void, std::__ndk1::basic_string<char, std::__ndk1::char_traits<char>, std::__ndk1::allocator<char> > >, float>::setListener(geode::EventListenerProtocol*)::{lambda()#1}, std::__ndk1::allocator<geode::Task<geode::Result<void, std::__ndk1::basic_string<char, std::__ndk1::char_traits<char>, std::__ndk1::allocator<char> > >, float>::setListener(geode::EventListenerProtocol*)::{lambda()#1}>, void ()>::~__func()
FUNC 15ed0 54 0 std::__ndk1::__function::__func<geode::Task<geode::Result<void, std::__ndk1::basic_string<char, std::__ndk1::char_traits<char>, std::__ndk1::allocator<char> > >, float>::setListener(geode::EventListenerProtocol*)::{lambda()#1}, std::__ndk1::allocator<geode::Task<geode::Result<void, std::__ndk1::basic_string<char, std::__ndk1::char_traits<char>, std::__ndk1::allocator<char> > >, float>::setListener(geode::EventListenerProtocol*)::{lambda()#1}>, void ()>::~__func()
FUNC 15f24 40 0 std::__ndk1::__function::__func<geode::Task<geode::Result<void, std::__ndk1::basic_string<char, std::__ndk1::char_traits<char>, std::__ndk1::allocator<char> > >, float>::setListener(geode::EventListenerProtocol*)::{lambda()#1}, std::__ndk1::allocator<geode::Task<geode::Result<void, std::__ndk1::basic_string<char, std::__ndk1::char_traits<char>, std::__ndk1::allocator<char> > >, float>::setListener(geode::EventListenerProtocol*)::{lambda()#1}>, void ()>::__clone() const
FUNC 15f64 34 0 std::__ndk1::__function::__func<geode::Task<geode::Result<void, std::__ndk1::basic_string<char, std::__ndk1::char_traits<char>, std::__ndk1::allocator<char> > >, float>::setListener(geode::EventListenerProtocol*)::{lambda()#1}, std::__ndk1::allocator<geode::Task<geode::Result<void, std::__ndk1::basic_string<char, std::__ndk1::char_traits<char>, std::__ndk1::allocator<char> > >, float>::setListener(geode::EventListenerProtocol*)::{lambda()#1}>, void ()>::__clone(std::__ndk1::__function::__base<void ()>*) const
FUNC 15f98 3a 0 std::__ndk1::__function::__func<geode::Task<geode::Result<void, std::__ndk1::basic_string<char, std::__ndk1::char_traits<char>, std::__ndk1::allocator<char> > >, float>::setListener(geode::EventListenerProtocol*)::{lambda()#1}, std::__ndk1::allocator<geode::Task<geode::Result<void, std::__ndk1::basic_string<char, std::__ndk1::char_traits<char>, std::__ndk1::allocator<char> > >, float>::setListener(geode::EventListenerProtocol*)::{lambda()#1}>, void ()>::destroy()
FUNC 15fd2 44 0 std::__ndk1::__function::__func<geode::Task<geode::Result<void, std::__ndk1::basic_string<char, std::__ndk1::char_traits<char>, std::__ndk1::allocator<char> > >, float>::setListener(geode::EventListenerProtocol*)::{lambda()#1}, std::__ndk1::allocator<geode::Task<geode::Result<void, std::__ndk1::basic_string<char, std::__ndk1::char_traits<char>, std::__ndk1::allocator<char> > >, float>::setListener(geode::EventListenerProtocol*)::{lambda()#1}>, void ()>::destroy_deallocate()
FUNC 16018 150 0 std::__ndk1::__function::__func<geode::Task<geode::Result<void, std::__ndk1::basic_string<char, std::__ndk1::char_traits<char>, std::__ndk1::allocator<char> > >, float>::setListener(geode::EventListenerProtocol*)::{lambda()#1}, std::__ndk1::allocator<geode::Task<geode::Result<void, std::__ndk1::basic_string<char, std::__ndk1::char_traits<char>, std::__ndk1::allocator<char> > >, float>::setListener(geode::EventListenerProtocol*)::{lambda()#1}>, void ()>::operator()()
FUNC 16168 18 0 std::__ndk1::__function::__func<geode::Task<geode::Result<void, std::__ndk1::basic_string<char, std::__ndk1::char_traits<char>, std::__ndk1::allocator<char> > >, float>::setListener(geode::EventListenerProtocol*)::{lambda()#1}, std::__ndk1::allocator<geode::Task<geode::Result<void, std::__ndk1::basic_string<char, std::__ndk1::char_traits<char>, std::__ndk1::allocator<char> > >, float>::setListener(geode::EventListenerProtocol*)::{lambda()#1}>, void ()>::target(std::type_info const&) const
FUNC 16180 c 0 std::__ndk1::__function::__func<geode::Task<geode::Result<void, std::__ndk1::basic_string<char, std::__ndk1::char_traits<char>, std::__ndk1::allocator<char> > >, float>::setListener(geode::EventListenerProtocol*)::{lambda()#1}, std::__ndk1::allocator<geode::Task<geode::Result<void, std::__ndk1::basic_string<char, std::__ndk1::char_traits<char>, std::__ndk1::allocator<char> > >, float>::setListener(geode::EventListenerProtocol*)::{lambda()#1}>, void ()>::target_type() const
FUNC 1618c 3a 0 std::__ndk1::shared_ptr<geode::Task<geode::Result<void, std::__ndk1::basic_string<char, std::__ndk1::char_traits<char>, std::__ndk1::allocator<char> > >, float>::Handle>::~shared_ptr[abi:ne180000]()
FUNC 161c6 44 0 geode::Task<geode::Result<void, std::__ndk1::basic_string<char, std::__ndk1::char_traits<char>, std::__ndk1::allocator<char> > >, float>::Event::~Event()
FUNC 1620a 40 0 geode::Task<geode::Result<void, std::__ndk1::basic_string<char, std::__ndk1::char_traits<char>, std::__ndk1::allocator<char> > >, float>::Event::~Event()
FUNC 1624c 48 0 std::__ndk1::__function::__func<geode::Task<geode::Result<void, std::__ndk1::basic_string<char, std::__ndk1::char_traits<char>, std::__ndk1::allocator<char> > >, float>::setListener(geode::EventListenerProtocol*)::{lambda()#2}, std::__ndk1::allocator<geode::Task<geode::Result<void, std::__ndk1::basic_string<char, std::__ndk1::char_traits<char>, std::__ndk1::allocator<char> > >, float>::setListener(geode::EventListenerProtocol*)::{lambda()#2}>, void ()>::~__func()
FUNC 16294 54 0 std::__ndk1::__function::__func<geode::Task<geode::Result<void, std::__ndk1::basic_string<char, std::__ndk1::char_traits<char>, std::__ndk1::allocator<char> > >, float>::setListener(geode::EventListenerProtocol*)::{lambda()#2}, std::__ndk1::allocator<geode::Task<geode::Result<void, std::__ndk1::basic_string<char, std::__ndk1::char_traits<char>, std::__ndk1::allocator<char> > >, float>::setListener(geode::EventListenerProtocol*)::{lambda()#2}>, void ()>::~__func()
FUNC 162e8 3c 0 std::__ndk1::__function::__func<geode::Task<geode::Result<void, std::__ndk1::basic_string<char, std::__ndk1::char_traits<char>, std::__ndk1::allocator<char> > >, float>::setListener(geode::EventListenerProtocol*)::{lambda()#2}, std::__ndk1::allocator<geode::Task<geode::Result<void, std::__ndk1::basic_string<char, std::__ndk1::char_traits<char>, std::__ndk1::allocator<char> > >, float>::setListener(geode::EventListenerProtocol*)::{lambda()#2}>, void ()>::__clone() const
FUNC 16324 30 0 std::__ndk1::__function::__func<geode::Task<geode::Result<void, std::__ndk1::basic_string<char, std::__ndk1::char_traits<char>, std::__ndk1::allocator<char> > >, float>::setListener(geode::EventListenerProtocol*)::{lambda()#2}, std::__ndk1::allocator<geode::Task<geode::Result<void, std::__ndk1::basic_string<char, std::__ndk1::char_traits<char>, std::__ndk1::allocator<char> > >, float>::setListener(geode::EventListenerProtocol*)::{lambda()#2}>, void ()>::__clone(std::__ndk1::__function::__base<void ()>*) const
FUNC 16354 3a 0 std::__ndk1::__function::__func<geode::Task<geode::Result<void, std::__ndk1::basic_string<char, std::__ndk1::char_traits<char>, std::__ndk1::allocator<char> > >, float>::setListener(geode::EventListenerProtocol*)::{lambda()#2}, std::__ndk1::allocator<geode::Task<geode::Result<void, std::__ndk1::basic_string<char, std::__ndk1::char_traits<char>, std::__ndk1::allocator<char> > >, float>::setListener(geode::EventListenerProtocol*)::{lambda()#2}>, void ()>::destroy()
FUNC 1638e 44 0 std::__ndk1::__function::__func<geode::Task<geode::Result<void, std::__ndk1::basic_string<char, std::__ndk1::char_traits<char>, std::__ndk1::allocator<char> > >, float>::setListener(geode::EventListenerProtocol*)::{lambda()#2}, std::__ndk1::allocator<geode::Task<geode::Result<void, std::__ndk1::basic_string<char, std::__ndk1::char_traits<char>, std::__ndk1::allocator<char> > >, float>::setListener(geode::EventListenerProtocol*)::{lambda()#2}>, void ()>::destroy_deallocate()
FUNC 163d4 150 0 std::__ndk1::__function::__func<geode::Task<geode::Result<void, std::__ndk1::basic_string<char, std::__ndk1::char_traits<char>, std::__ndk1::allocator<char> > >, float>::setListener(geode::EventListenerProtocol*)::{lambda()#2}, std::__ndk1::allocator<geode::Task<geode::Result<void, std::__ndk1::basic_string<char, std::__ndk1::char_traits<char>, std::__ndk1::allocator<char> > >, float>::setListener(geode::EventListenerProtocol*)::{lambda()#2}>, void ()>::operator()()
FUNC 16524 18 0 std::__ndk1::__function::__func<geode::Task<geode::Result<void, std::__ndk1::basic_string<char, std::__ndk1::char_traits<char>, std::__ndk1::allocator<char> > >, float>::setListener(geode::EventListenerProtocol*)::{lambda()#2}, std::__ndk1::allocator<geode::Task<geode::Result<void, std::__ndk1::basic_string<char, std::__ndk1::char_traits<char>, std::__ndk1::allocator<char> > >, float>::setListener(geode::EventListenerProtocol*)::{lambda()#2}>, void ()>::target(std::type_info const&) const
FUNC 1653c c 0 std::__ndk1::__function::__func<geode::Task<geode::Result<void, std::__ndk1::basic_string<char, std::__ndk1::char_traits<char>, std::__ndk1::allocator<char> > >, float>::setListener(geode::EventListenerProtocol*)::{lambda()#2}, std::__ndk1::allocator<geode::Task<geode::Result<void, std::__ndk1::basic_string<char, std::__ndk1::char_traits<char>, std::__ndk1::allocator<char> > >, float>::setListener(geode::EventListenerProtocol*)::{lambda()#2}>, void ()>::target_type() const
FUNC 16548 110 0 geode::Mod::getSavedValue<bool>(std::__ndk1::basic_string_view<char, std::__ndk1::char_traits<char> >)
FUNC 16658 60 0 geode::impl::ResultData<matjson::Value&, std::__ndk1::basic_string<char, std::__ndk1::char_traits<char>, std::__ndk1::allocator<char> > >::~ResultData()
FUNC 166b8 34 0 std::__ndk1::__throw_bad_variant_access[abi:ne180000]()
FUNC 166ec 2 0 std::__ndk1::__variant_detail::__visitation::__base::__dispatcher<(unsigned int)0>::__dispatch[abi:ne180000]<std::__ndk1::__variant_detail::__dtor<std::__ndk1::__variant_detail::__traits<std::__ndk1::reference_wrapper<matjson::Value>, std::__ndk1::basic_string<char, std::__ndk1::char_traits<char>, std::__ndk1::allocator<char> > >, (std::__ndk1::__variant_detail::_Trait)1>::__destroy[abi:ne180000]()::{lambda(auto:1&)#1}, std::__ndk1::__variant_detail::__base<(std::__ndk1::__variant_detail::__traits<std::__ndk1::reference_wrapper<matjson::Value>, std::__ndk1::basic_string<char, std::__ndk1::char_traits<char>, std::__ndk1::allocator<char> > >)1, matjson::Value, std::__ndk1::allocator<char> >&>(std::__ndk1::__variant_detail::__dtor<std::__ndk1::__variant_detail::__traits<std::__ndk1::reference_wrapper<matjson::Value>, std::__ndk1::basic_string<char, std::__ndk1::char_traits<char>, std::__ndk1::allocator<char> > >, (std::__ndk1::__variant_detail::_Trait)1>, std::__ndk1::__variant_detail::__base<(std::__ndk1::__variant_detail::__traits<std::__ndk1::reference_wrapper<matjson::Value>, std::__ndk1::basic_string<char, std::__ndk1::char_traits<char>, std::__ndk1::allocator<char> > >)1, matjson::Value, std::__ndk1::allocator<char> >&)
FUNC 166ee e 0 std::__ndk1::__variant_detail::__visitation::__base::__dispatcher<(unsigned int)1>::__dispatch[abi:ne180000]<std::__ndk1::__variant_detail::__dtor<std::__ndk1::__variant_detail::__traits<std::__ndk1::reference_wrapper<matjson::Value>, std::__ndk1::basic_string<char, std::__ndk1::char_traits<char>, std::__ndk1::allocator<char> > >, (std::__ndk1::__variant_detail::_Trait)1>::__destroy[abi:ne180000]()::{lambda(auto:1&)#1}, std::__ndk1::__variant_detail::__base<(std::__ndk1::__variant_detail::__traits<std::__ndk1::reference_wrapper<matjson::Value>, std::__ndk1::basic_string<char, std::__ndk1::char_traits<char>, std::__ndk1::allocator<char> > >)1, matjson::Value, std::__ndk1::allocator<char> >&>(std::__ndk1::__variant_detail::__dtor<std::__ndk1::__variant_detail::__traits<std::__ndk1::reference_wrapper<matjson::Value>, std::__ndk1::basic_string<char, std::__ndk1::char_traits<char>, std::__ndk1::allocator<char> > >, (std::__ndk1::__variant_detail::_Trait)1>, std::__ndk1::__variant_detail::__base<(std::__ndk1::__variant_detail::__traits<std::__ndk1::reference_wrapper<matjson::Value>, std::__ndk1::basic_string<char, std::__ndk1::char_traits<char>, std::__ndk1::allocator<char> > >)1, matjson::Value, std::__ndk1::allocator<char> >&)
FUNC 166fc 2 0 std::__ndk1::__variant_detail::__visitation::__base::__dispatcher<(unsigned int)0>::__dispatch[abi:ne180000]<std::__ndk1::__variant_detail::__dtor<std::__ndk1::__variant_detail::__traits<bool, std::__ndk1::basic_string<char, std::__ndk1::char_traits<char>, std::__ndk1::allocator<char> > >, (std::__ndk1::__variant_detail::_Trait)1>::__destroy[abi:ne180000]()::{lambda(auto:1&)#1}, std::__ndk1::__variant_detail::__base<(std::__ndk1::__variant_detail::__traits<bool, std::__ndk1::basic_string<char, std::__ndk1::char_traits<char>, std::__ndk1::allocator<char> > >)1, bool, std::__ndk1::allocator<char> >&>(std::__ndk1::__variant_detail::__dtor<std::__ndk1::__variant_detail::__traits<bool, std::__ndk1::basic_string<char, std::__ndk1::char_traits<char>, std::__ndk1::allocator<char> > >, (std::__ndk1::__variant_detail::_Trait)1>, std::__ndk1::__variant_detail::__base<(std::__ndk1::__variant_detail::__traits<bool, std::__ndk1::basic_string<char, std::__ndk1::char_traits<char>, std::__ndk1::allocator<char> > >)1, bool, std::__ndk1::allocator<char> >&)
FUNC 166fe e 0 std::__ndk1::__variant_detail::__visitation::__base::__dispatcher<(unsigned int)1>::__dispatch[abi:ne180000]<std::__ndk1::__variant_detail::__dtor<std::__ndk1::__variant_detail::__traits<bool, std::__ndk1::basic_string<char, std::__ndk1::char_traits<char>, std::__ndk1::allocator<char> > >, (std::__ndk1::__variant_detail::_Trait)1>::__destroy[abi:ne180000]()::{lambda(auto:1&)#1}, std::__ndk1::__variant_detail::__base<(std::__ndk1::__variant_detail::__traits<bool, std::__ndk1::basic_string<char, std::__ndk1::char_traits<char>, std::__ndk1::allocator<char> > >)1, bool, std::__ndk1::allocator<char> >&>(std::__ndk1::__variant_detail::__dtor<std::__ndk1::__variant_detail::__traits<bool, std::__ndk1::basic_string<char, std::__ndk1::char_traits<char>, std::__ndk1::allocator<char> > >, (std::__ndk1::__variant_detail::_Trait)1>, std::__ndk1::__variant_detail::__base<(std::__ndk1::__variant_detail::__traits<bool, std::__ndk1::basic_string<char, std::__ndk1::char_traits<char>, std::__ndk1::allocator<char> > >)1, bool, std::__ndk1::allocator<char> >&)
FUNC 1670c 248 0 geode::Popup<bool>::initBase(float, float, bool, char const*, cocos2d::CCRect, bool)
FUNC 16954 3a 0 geode::Task<geode::Result<void, std::__ndk1::basic_string<char, std::__ndk1::char_traits<char>, std::__ndk1::allocator<char> > >, float>::run(std::__ndk1::function<geode::Task<geode::Result<void, std::__ndk1::basic_string<char, std::__ndk1::char_traits<char>, std::__ndk1::allocator<char> > >, float>::Result(std::__ndk1::function<void (float)>, std::__ndk1::function<bool ()>)>&&, std::__ndk1::basic_string_view<char, std::__ndk1::char_traits<char> >)::{lambda()#1}::~{lambda()#1}()
FUNC 16990 10 0 std::__ndk1::__shared_ptr_emplace<geode::Task<geode::Result<void, std::__ndk1::basic_string<char, std::__ndk1::char_traits<char>, std::__ndk1::allocator<char> > >, float>::Handle, std::__ndk1::allocator<geode::Task<geode::Result<void, std::__ndk1::basic_string<char, std::__ndk1::char_traits<char>, std::__ndk1::allocator<char> > >, float>::Handle> >::~__shared_ptr_emplace()
FUNC 169a0 1c 0 std::__ndk1::__shared_ptr_emplace<geode::Task<geode::Result<void, std::__ndk1::basic_string<char, std::__ndk1::char_traits<char>, std::__ndk1::allocator<char> > >, float>::Handle, std::__ndk1::allocator<geode::Task<geode::Result<void, std::__ndk1::basic_string<char, std::__ndk1::char_traits<char>, std::__ndk1::allocator<char> > >, float>::Handle> >::~__shared_ptr_emplace()
FUNC 169bc bc 0 std::__ndk1::__shared_ptr_emplace<geode::Task<geode::Result<void, std::__ndk1::basic_string<char, std::__ndk1::char_traits<char>, std::__ndk1::allocator<char> > >, float>::Handle, std::__ndk1::allocator<geode::Task<geode::Result<void, std::__ndk1::basic_string<char, std::__ndk1::char_traits<char>, std::__ndk1::allocator<char> > >, float>::Handle> >::__on_zero_shared()
FUNC 16a78 4 0 std::__ndk1::__shared_ptr_emplace<geode::Task<geode::Result<void, std::__ndk1::basic_string<char, std::__ndk1::char_traits<char>, std::__ndk1::allocator<char> > >, float>::Handle, std::__ndk1::allocator<geode::Task<geode::Result<void, std::__ndk1::basic_string<char, std::__ndk1::char_traits<char>, std::__ndk1::allocator<char> > >, float>::Handle> >::__on_zero_shared_weak()
FUNC 16a7c 64 0 std::__ndk1::__optional_destruct_base<geode::Result<void, std::__ndk1::basic_string<char, std::__ndk1::char_traits<char>, std::__ndk1::allocator<char> > >, false>::~__optional_destruct_base[abi:ne180000]()
FUNC 16ae0 2 0 std::__ndk1::__variant_detail::__visitation::__base::__dispatcher<(unsigned int)0>::__dispatch[abi:ne180000]<std::__ndk1::__variant_detail::__dtor<std::__ndk1::__variant_detail::__traits<std::__ndk1::monostate, std::__ndk1::basic_string<char, std::__ndk1::char_traits<char>, std::__ndk1::allocator<char> > >, (std::__ndk1::__variant_detail::_Trait)1>::__destroy[abi:ne180000]()::{lambda(auto:1&)#1}, std::__ndk1::__variant_detail::__base<(std::__ndk1::__variant_detail::__traits<std::__ndk1::monostate, std::__ndk1::basic_string<char, std::__ndk1::char_traits<char>, std::__ndk1::allocator<char> > >)1, std::__ndk1::__variant_detail::__traits, std::__ndk1::allocator<char> >&>(std::__ndk1::__variant_detail::__dtor<std::__ndk1::__variant_detail::__traits<std::__ndk1::monostate, std::__ndk1::basic_string<char, std::__ndk1::char_traits<char>, std::__ndk1::allocator<char> > >, (std::__ndk1::__variant_detail::_Trait)1>, std::__ndk1::__variant_detail::__base<(std::__ndk1::__variant_detail::__traits<std::__ndk1::monostate, std::__ndk1::basic_string<char, std::__ndk1::char_traits<char>, std::__ndk1::allocator<char> > >)1, std::__ndk1::__variant_detail::__traits, std::__ndk1::allocator<char> >&)
FUNC 16ae2 e 0 std::__ndk1::__variant_detail::__visitation::__base::__dispatcher<(unsigned int)1>::__dispatch[abi:ne180000]<std::__ndk1::__variant_detail::__dtor<std::__ndk1::__variant_detail::__traits<std::__ndk1::monostate, std::__ndk1::basic_string<char, std::__ndk1::char_traits<char>, std::__ndk1::allocator<char> > >, (std::__ndk1::__variant_detail::_Trait)1>::__destroy[abi:ne180000]()::{lambda(auto:1&)#1}, std::__ndk1::__variant_detail::__base<(std::__ndk1::__variant_detail::__traits<std::__ndk1::monostate, std::__ndk1::basic_string<char, std::__ndk1::char_traits<char>, std::__ndk1::allocator<char> > >)1, std::__ndk1::__variant_detail::__traits, std::__ndk1::allocator<char> >&>(std::__ndk1::__variant_detail::__dtor<std::__ndk1::__variant_detail::__traits<std::__ndk1::monostate, std::__ndk1::basic_string<char, std::__ndk1::char_traits<char>, std::__ndk1::allocator<char> > >, (std::__ndk1::__variant_detail::_Trait)1>, std::__ndk1::__variant_detail::__base<(std::__ndk1::__variant_detail::__traits<std::__ndk1::monostate, std::__ndk1::basic_string<char, std::__ndk1::char_traits<char>, std::__ndk1::allocator<char> > >)1, std::__ndk1::__variant_detail::__traits, std::__ndk1::allocator<char> >&)
FUNC 16af0 4cc 0 std::__ndk1::__thread_proxy[abi:ne180000]<std::__ndk1::tuple<std::__ndk1::unique_ptr<std::__ndk1::__thread_struct, std::__ndk1::default_delete<std::__ndk1::unique_ptr> >, geode::Task<std::__ndk1::unique_ptr<std::__ndk1::__thread_struct, std::__ndk1::default_delete<std::__ndk1::unique_ptr> >::Result<void, std::__ndk1::basic_string<char, std::__ndk1::char_traits<char>, std::__ndk1::allocator<char> > >, float>::run(std::__ndk1::function<std::__ndk1::unique_ptr<std::__ndk1::__thread_struct, std::__ndk1::default_delete<std::__ndk1::unique_ptr> >(geode::Task<std::__ndk1::unique_ptr<std::__ndk1::__thread_struct, std::__ndk1::default_delete<std::__ndk1::unique_ptr> >::Result<void, std::__ndk1::basic_string<char, std::__ndk1::char_traits<char>, std::__ndk1::allocator<char> > >, float><void (float)>, geode::Task<std::__ndk1::unique_ptr<std::__ndk1::__thread_struct, std::__ndk1::default_delete<std::__ndk1::unique_ptr> >::Result<void, std::__ndk1::basic_string<char, std::__ndk1::char_traits<char>, std::__ndk1::allocator<char> > >, float><bool ()>)::Result<void, std::__ndk1::basic_string<char, std::__ndk1::char_traits<char>, std::__ndk1::allocator<char> > >::Result>&&, std::__ndk1::basic_string_view<char, std::__ndk1::char_traits>)::{lambda()#1}> >(std::__ndk1::tuple<std::__ndk1::unique_ptr<std::__ndk1::__thread_struct, std::__ndk1::default_delete<std::__ndk1::unique_ptr> >, geode::Task<std::__ndk1::unique_ptr<std::__ndk1::__thread_struct, std::__ndk1::default_delete<std::__ndk1::unique_ptr> >::Result<void, std::__ndk1::basic_string<char, std::__ndk1::char_traits<char>, std::__ndk1::allocator<char> > >, float>::run(std::__ndk1::function<std::__ndk1::unique_ptr<std::__ndk1::__thread_struct, std::__ndk1::default_delete<std::__ndk1::unique_ptr> >(geode::Task<std::__ndk1::unique_ptr<std::__ndk1::__thread_struct, std::__ndk1::default_delete<std::__ndk1::unique_ptr> >::Result<void, std::__ndk1::basic_string<char, std::__ndk1::char_traits<char>, std::__ndk1::allocator<char> > >, float><void (float)>, geode::Task<std::__ndk1::unique_ptr<std::__ndk1::__thread_struct, std::__ndk1::default_delete<std::__ndk1::unique_ptr> >::Result<void, std::__ndk1::basic_string<char, std::__ndk1::char_traits<char>, std::__ndk1::allocator<char> > >, float><bool ()>)::Result<void, std::__ndk1::basic_string<char, std::__ndk1::char_traits<char>, std::__ndk1::allocator<char> > >::Result>&&, std::__ndk1::basic_string_view<char, std::__ndk1::char_traits>)::{lambda()#1}>)
FUNC 16fbc 22 0 std::__ndk1::unique_ptr<std::__ndk1::__thread_struct, std::__ndk1::default_delete<std::__ndk1::__thread_struct> >::~unique_ptr[abi:ne180000]()
FUNC 16fe0 60 0 geode::Task<geode::Result<void, std::__ndk1::basic_string<char, std::__ndk1::char_traits<char>, std::__ndk1::allocator<char> > >, float>::Result::~Result()
FUNC 17040 2c 0 std::__ndk1::__function::__func<geode::Task<geode::Result<void, std::__ndk1::basic_string<char, std::__ndk1::char_traits<char>, std::__ndk1::allocator<char> > >, float>::run(std::__ndk1::function<geode::Task<geode::Result<void, std::__ndk1::basic_string<char, std::__ndk1::char_traits<char>, std::__ndk1::allocator<char> > >, float>::Result(std::__ndk1::function<void (float)>, std::__ndk1::function<bool ()>)>&&, std::__ndk1::basic_string_view<char, std::__ndk1::char_traits<char> >)::{lambda()#1}::operator()() const::{lambda(float)#1}, std::__ndk1::allocator<geode::Task<geode::Result<void, std::__ndk1::basic_string<char, std::__ndk1::char_traits<char>, std::__ndk1::allocator<char> > >, float>::run(std::__ndk1::function<geode::Task<geode::Result<void, std::__ndk1::basic_string<char, std::__ndk1::char_traits<char>, std::__ndk1::allocator<char> > >, float>::Result(std::__ndk1::function<void (float)>, std::__ndk1::function<bool ()>)>&&, std::__ndk1::basic_string_view<char, std::__ndk1::char_traits<char> >)::{lambda()#1}::operator()() const::{lambda(float)#1}>, void (float)>::~__func()
FUNC 1706c 30 0 std::__ndk1::__function::__func<geode::Task<geode::Result<void, std::__ndk1::basic_string<char, std::__ndk1::char_traits<char>, std::__ndk1::allocator<char> > >, float>::run(std::__ndk1::function<geode::Task<geode::Result<void, std::__ndk1::basic_string<char, std::__ndk1::char_traits<char>, std::__ndk1::allocator<char> > >, float>::Result(std::__ndk1::function<void (float)>, std::__ndk1::function<bool ()>)>&&, std::__ndk1::basic_string_view<char, std::__ndk1::char_traits<char> >)::{lambda()#1}::operator()() const::{lambda(float)#1}, std::__ndk1::allocator<geode::Task<geode::Result<void, std::__ndk1::basic_string<char, std::__ndk1::char_traits<char>, std::__ndk1::allocator<char> > >, float>::run(std::__ndk1::function<geode::Task<geode::Result<void, std::__ndk1::basic_string<char, std::__ndk1::char_traits<char>, std::__ndk1::allocator<char> > >, float>::Result(std::__ndk1::function<void (float)>, std::__ndk1::function<bool ()>)>&&, std::__ndk1::basic_string_view<char, std::__ndk1::char_traits<char> >)::{lambda()#1}::operator()() const::{lambda(float)#1}>, void (float)>::~__func()
FUNC 1709c 38 0 std::__ndk1::__function::__func<geode::Task<geode::Result<void, std::__ndk1::basic_string<char, std::__ndk1::char_traits<char>, std::__ndk1::allocator<char> > >, float>::run(std::__ndk1::function<geode::Task<geode::Result<void, std::__ndk1::basic_string<char, std::__ndk1::char_traits<char>, std::__ndk1::allocator<char> > >, float>::Result(std::__ndk1::function<void (float)>, std::__ndk1::function<bool ()>)>&&, std::__ndk1::basic_string_view<char, std::__ndk1::char_traits<char> >)::{lambda()#1}::operator()() const::{lambda(float)#1}, std::__ndk1::allocator<geode::Task<geode::Result<void, std::__ndk1::basic_string<char, std::__ndk1::char_traits<char>, std::__ndk1::allocator<char> > >, float>::run(std::__ndk1::function<geode::Task<geode::Result<void, std::__ndk1::basic_string<char, std::__ndk1::char_traits<char>, std::__ndk1::allocator<char> > >, float>::Result(std::__ndk1::function<void (float)>, std::__ndk1::function<bool ()>)>&&, std::__ndk1::basic_string_view<char, std::__ndk1::char_traits<char> >)::{lambda()#1}::operator()() const::{lambda(float)#1}>, void (float)>::__clone() const
FUNC 170d4 30 0 std::__ndk1::__function::__func<geode::Task<geode::Result<void, std::__ndk1::basic_string<char, std::__ndk1::char_traits<char>, std::__ndk1::allocator<char> > >, float>::run(std::__ndk1::function<geode::Task<geode::Result<void, std::__ndk1::basic_string<char, std::__ndk1::char_traits<char>, std::__ndk1::allocator<char> > >, float>::Result(std::__ndk1::function<void (float)>, std::__ndk1::function<bool ()>)>&&, std::__ndk1::basic_string_view<char, std::__ndk1::char_traits<char> >)::{lambda()#1}::operator()() const::{lambda(float)#1}, std::__ndk1::allocator<geode::Task<geode::Result<void, std::__ndk1::basic_string<char, std::__ndk1::char_traits<char>, std::__ndk1::allocator<char> > >, float>::run(std::__ndk1::function<geode::Task<geode::Result<void, std::__ndk1::basic_string<char, std::__ndk1::char_traits<char>, std::__ndk1::allocator<char> > >, float>::Result(std::__ndk1::function<void (float)>, std::__ndk1::function<bool ()>)>&&, std::__ndk1::basic_string_view<char, std::__ndk1::char_traits<char> >)::{lambda()#1}::operator()() const::{lambda(float)#1}>, void (float)>::__clone(std::__ndk1::__function::__base<void (float)>*) const
FUNC 17104 c 0 std::__ndk1::__function::__func<geode::Task<geode::Result<void, std::__ndk1::basic_string<char, std::__ndk1::char_traits<char>, std::__ndk1::allocator<char> > >, float>::run(std::__ndk1::function<geode::Task<geode::Result<void, std::__ndk1::basic_string<char, std::__ndk1::char_traits<char>, std::__ndk1::allocator<char> > >, float>::Result(std::__ndk1::function<void (float)>, std::__ndk1::function<bool ()>)>&&, std::__ndk1::basic_string_view<char, std::__ndk1::char_traits<char> >)::{lambda()#1}::operator()() const::{lambda(float)#1}, std::__ndk1::allocator<geode::Task<geode::Result<void, std::__ndk1::basic_string<char, std::__ndk1::char_traits<char>, std::__ndk1::allocator<char> > >, float>::run(std::__ndk1::function<geode::Task<geode::Result<void, std::__ndk1::basic_string<char, std::__ndk1::char_traits<char>, std::__ndk1::allocator<char> > >, float>::Result(std::__ndk1::function<void (float)>, std::__ndk1::function<bool ()>)>&&, std::__ndk1::basic_string_view<char, std::__ndk1::char_traits<char> >)::{lambda()#1}::operator()() const::{lambda(float)#1}>, void (float)>::destroy()
FUNC 17110 20 0 std::__ndk1::__function::__func<geode::Task<geode::Result<void, std::__ndk1::basic_string<char, std::__ndk1::char_traits<char>, std::__ndk1::allocator<char> > >, float>::run(std::__ndk1::function<geode::Task<geode::Result<void, std::__ndk1::basic_string<char, std::__ndk1::char_traits<char>, std::__ndk1::allocator<char> > >, float>::Result(std::__ndk1::function<void (float)>, std::__ndk1::function<bool ()>)>&&, std::__ndk1::basic_string_view<char, std::__ndk1::char_traits<char> >)::{lambda()#1}::operator()() const::{lambda(float)#1}, std::__ndk1::allocator<geode::Task<geode::Result<void, std::__ndk1::basic_string<char, std::__ndk1::char_traits<char>, std::__ndk1::allocator<char> > >, float>::run(std::__ndk1::function<geode::Task<geode::Result<void, std::__ndk1::basic_string<char, std::__ndk1::char_traits<char>, std::__ndk1::allocator<char> > >, float>::Result(std::__ndk1::function<void (float)>, std::__ndk1::function<bool ()>)>&&, std::__ndk1::basic_string_view<char, std::__ndk1::char_traits<char> >)::{lambda()#1}::operator()() const::{lambda(float)#1}>, void (float)>::destroy_deallocate()
FUNC 17130 124 0 std::__ndk1::__function::__func<geode::Task<geode::Result<void, std::__ndk1::basic_string<char, std::__ndk1::char_traits<char>, std::__ndk1::allocator<char> > >, float>::run(std::__ndk1::function<geode::Task<geode::Result<void, std::__ndk1::basic_string<char, std::__ndk1::char_traits<char>, std::__ndk1::allocator<char> > >, float>::Result(std::__ndk1::function<void (float)>, std::__ndk1::function<bool ()>)>&&, std::__ndk1::basic_string_view<char, std::__ndk1::char_traits<char> >)::{lambda()#1}::operator()() const::{lambda(float)#1}, std::__ndk1::allocator<geode::Task<geode::Result<void, std::__ndk1::basic_string<char, std::__ndk1::char_traits<char>, std::__ndk1::allocator<char> > >, float>::run(std::__ndk1::function<geode::Task<geode::Result<void, std::__ndk1::basic_string<char, std::__ndk1::char_traits<char>, std::__ndk1::allocator<char> > >, float>::Result(std::__ndk1::function<void (float)>, std::__ndk1::function<bool ()>)>&&, std::__ndk1::basic_string_view<char, std::__ndk1::char_traits<char> >)::{lambda()#1}::operator()() const::{lambda(float)#1}>, void (float)>::operator()(float&&)
FUNC 17254 18 0 std::__ndk1::__function::__func<geode::Task<geode::Result<void, std::__ndk1::basic_string<char, std::__ndk1::char_traits<char>, std::__ndk1::allocator<char> > >, float>::run(std::__ndk1::function<geode::Task<geode::Result<void, std::__ndk1::basic_string<char, std::__ndk1::char_traits<char>, std::__ndk1::allocator<char> > >, float>::Result(std::__ndk1::function<void (float)>, std::__ndk1::function<bool ()>)>&&, std::__ndk1::basic_string_view<char, std::__ndk1::char_traits<char> >)::{lambda()#1}::operator()() const::{lambda(float)#1}, std::__ndk1::allocator<geode::Task<geode::Result<void, std::__ndk1::basic_string<char, std::__ndk1::char_traits<char>, std::__ndk1::allocator<char> > >, float>::run(std::__ndk1::function<geode::Task<geode::Result<void, std::__ndk1::basic_string<char, std::__ndk1::char_traits<char>, std::__ndk1::allocator<char> > >, float>::Result(std::__ndk1::function<void (float)>, std::__ndk1::function<bool ()>)>&&, std::__ndk1::basic_string_view<char, std::__ndk1::char_traits<char> >)::{lambda()#1}::operator()() const::{lambda(float)#1}>, void (float)>::target(std::type_info const&) const
FUNC 1726c c 0 std::__ndk1::__function::__func<geode::Task<geode::Result<void, std::__ndk1::basic_string<char, std::__ndk1::char_traits<char>, std::__ndk1::allocator<char> > >, float>::run(std::__ndk1::function<geode::Task<geode::Result<void, std::__ndk1::basic_string<char, std::__ndk1::char_traits<char>, std::__ndk1::allocator<char> > >, float>::Result(std::__ndk1::function<void (float)>, std::__ndk1::function<bool ()>)>&&, std::__ndk1::basic_string_view<char, std::__ndk1::char_traits<char> >)::{lambda()#1}::operator()() const::{lambda(float)#1}, std::__ndk1::allocator<geode::Task<geode::Result<void, std::__ndk1::basic_string<char, std::__ndk1::char_traits<char>, std::__ndk1::allocator<char> > >, float>::run(std::__ndk1::function<geode::Task<geode::Result<void, std::__ndk1::basic_string<char, std::__ndk1::char_traits<char>, std::__ndk1::allocator<char> > >, float>::Result(std::__ndk1::function<void (float)>, std::__ndk1::function<bool ()>)>&&, std::__ndk1::basic_string_view<char, std::__ndk1::char_traits<char> >)::{lambda()#1}::operator()() const::{lambda(float)#1}>, void (float)>::target_type() const
FUNC 17278 3a 0 geode::Task<geode::Result<void, std::__ndk1::basic_string<char, std::__ndk1::char_traits<char>, std::__ndk1::allocator<char> > >, float>::progress(std::__ndk1::shared_ptr<geode::Task<geode::Result<void, std::__ndk1::basic_string<char, std::__ndk1::char_traits<char>, std::__ndk1::allocator<char> > >, float>::Handle>, float&&)::{lambda()#1}::~{lambda()#1}()
FUNC 172b4 48 0 std::__ndk1::__function::__func<geode::Task<geode::Result<void, std::__ndk1::basic_string<char, std::__ndk1::char_traits<char>, std::__ndk1::allocator<char> > >, float>::progress(std::__ndk1::shared_ptr<geode::Task<geode::Result<void, std::__ndk1::basic_string<char, std::__ndk1::char_traits<char>, std::__ndk1::allocator<char> > >, float>::Handle>, float&&)::{lambda()#1}, std::__ndk1::allocator<geode::Task<geode::Result<void, std::__ndk1::basic_string<char, std::__ndk1::char_traits<char>, std::__ndk1::allocator<char> > >, float>::progress(std::__ndk1::shared_ptr<geode::Task<geode::Result<void, std::__ndk1::basic_string<char, std::__ndk1::char_traits<char>, std::__ndk1::allocator<char> > >, float>::Handle>, float&&)::{lambda()#1}>, void ()>::~__func()
FUNC 172fc 54 0 std::__ndk1::__function::__func<geode::Task<geode::Result<void, std::__ndk1::basic_string<char, std::__ndk1::char_traits<char>, std::__ndk1::allocator<char> > >, float>::progress(std::__ndk1::shared_ptr<geode::Task<geode::Result<void, std::__ndk1::basic_string<char, std::__ndk1::char_traits<char>, std::__ndk1::allocator<char> > >, float>::Handle>, float&&)::{lambda()#1}, std::__ndk1::allocator<geode::Task<geode::Result<void, std::__ndk1::basic_string<char, std::__ndk1::char_traits<char>, std::__ndk1::allocator<char> > >, float>::progress(std::__ndk1::shared_ptr<geode::Task<geode::Result<void, std::__ndk1::basic_string<char, std::__ndk1::char_traits<char>, std::__ndk1::allocator<char> > >, float>::Handle>, float&&)::{lambda()#1}>, void ()>::~__func()
FUNC 17350 3c 0 std::__ndk1::__function::__func<geode::Task<geode::Result<void, std::__ndk1::basic_string<char, std::__ndk1::char_traits<char>, std::__ndk1::allocator<char> > >, float>::progress(std::__ndk1::shared_ptr<geode::Task<geode::Result<void, std::__ndk1::basic_string<char, std::__ndk1::char_traits<char>, std::__ndk1::allocator<char> > >, float>::Handle>, float&&)::{lambda()#1}, std::__ndk1::allocator<geode::Task<geode::Result<void, std::__ndk1::basic_string<char, std::__ndk1::char_traits<char>, std::__ndk1::allocator<char> > >, float>::progress(std::__ndk1::shared_ptr<geode::Task<geode::Result<void, std::__ndk1::basic_string<char, std::__ndk1::char_traits<char>, std::__ndk1::allocator<char> > >, float>::Handle>, float&&)::{lambda()#1}>, void ()>::__clone() const
FUNC 1738c 30 0 std::__ndk1::__function::__func<geode::Task<geode::Result<void, std::__ndk1::basic_string<char, std::__ndk1::char_traits<char>, std::__ndk1::allocator<char> > >, float>::progress(std::__ndk1::shared_ptr<geode::Task<geode::Result<void, std::__ndk1::basic_string<char, std::__ndk1::char_traits<char>, std::__ndk1::allocator<char> > >, float>::Handle>, float&&)::{lambda()#1}, std::__ndk1::allocator<geode::Task<geode::Result<void, std::__ndk1::basic_string<char, std::__ndk1::char_traits<char>, std::__ndk1::allocator<char> > >, float>::progress(std::__ndk1::shared_ptr<geode::Task<geode::Result<void, std::__ndk1::basic_string<char, std::__ndk1::char_traits<char>, std::__ndk1::allocator<char> > >, float>::Handle>, float&&)::{lambda()#1}>, void ()>::__clone(std::__ndk1::__function::__base<void ()>*) const
FUNC 173bc 3a 0 std::__ndk1::__function::__func<geode::Task<geode::Result<void, std::__ndk1::basic_string<char, std::__ndk1::char_traits<char>, std::__ndk1::allocator<char> > >, float>::progress(std::__ndk1::shared_ptr<geode::Task<geode::Result<void, std::__ndk1::basic_string<char, std::__ndk1::char_traits<char>, std::__ndk1::allocator<char> > >, float>::Handle>, float&&)::{lambda()#1}, std::__ndk1::allocator<geode::Task<geode::Result<void, std::__ndk1::basic_string<char, std::__ndk1::char_traits<char>, std::__ndk1::allocator<char> > >, float>::progress(std::__ndk1::shared_ptr<geode::Task<geode::Result<void, std::__ndk1::basic_string<char, std::__ndk1::char_traits<char>, std::__ndk1::allocator<char> > >, float>::Handle>, float&&)::{lambda()#1}>, void ()>::destroy()
FUNC 173f6 44 0 std::__ndk1::__function::__func<geode::Task<geode::Result<void, std::__ndk1::basic_string<char, std::__ndk1::char_traits<char>, std::__ndk1::allocator<char> > >, float>::progress(std::__ndk1::shared_ptr<geode::Task<geode::Result<void, std::__ndk1::basic_string<char, std::__ndk1::char_traits<char>, std::__ndk1::allocator<char> > >, float>::Handle>, float&&)::{lambda()#1}, std::__ndk1::allocator<geode::Task<geode::Result<void, std::__ndk1::basic_string<char, std::__ndk1::char_traits<char>, std::__ndk1::allocator<char> > >, float>::progress(std::__ndk1::shared_ptr<geode::Task<geode::Result<void, std::__ndk1::basic_string<char, std::__ndk1::char_traits<char>, std::__ndk1::allocator<char> > >, float>::Handle>, float&&)::{lambda()#1}>, void ()>::destroy_deallocate()
FUNC 1743c 154 0 std::__ndk1::__function::__func<geode::Task<geode::Result<void, std::__ndk1::basic_string<char, std::__ndk1::char_traits<char>, std::__ndk1::allocator<char> > >, float>::progress(std::__ndk1::shared_ptr<geode::Task<geode::Result<void, std::__ndk1::basic_string<char, std::__ndk1::char_traits<char>, std::__ndk1::allocator<char> > >, float>::Handle>, float&&)::{lambda()#1}, std::__ndk1::allocator<geode::Task<geode::Result<void, std::__ndk1::basic_string<char, std::__ndk1::char_traits<char>, std::__ndk1::allocator<char> > >, float>::progress(std::__ndk1::shared_ptr<geode::Task<geode::Result<void, std::__ndk1::basic_string<char, std::__ndk1::char_traits<char>, std::__ndk1::allocator<char> > >, float>::Handle>, float&&)::{lambda()#1}>, void ()>::operator()()
FUNC 17590 18 0 std::__ndk1::__function::__func<geode::Task<geode::Result<void, std::__ndk1::basic_string<char, std::__ndk1::char_traits<char>, std::__ndk1::allocator<char> > >, float>::progress(std::__ndk1::shared_ptr<geode::Task<geode::Result<void, std::__ndk1::basic_string<char, std::__ndk1::char_traits<char>, std::__ndk1::allocator<char> > >, float>::Handle>, float&&)::{lambda()#1}, std::__ndk1::allocator<geode::Task<geode::Result<void, std::__ndk1::basic_string<char, std::__ndk1::char_traits<char>, std::__ndk1::allocator<char> > >, float>::progress(std::__ndk1::shared_ptr<geode::Task<geode::Result<void, std::__ndk1::basic_string<char, std::__ndk1::char_traits<char>, std::__ndk1::allocator<char> > >, float>::Handle>, float&&)::{lambda()#1}>, void ()>::target(std::type_info const&) const
FUNC 175a8 c 0 std::__ndk1::__function::__func<geode::Task<geode::Result<void, std::__ndk1::basic_string<char, std::__ndk1::char_traits<char>, std::__ndk1::allocator<char> > >, float>::progress(std::__ndk1::shared_ptr<geode::Task<geode::Result<void, std::__ndk1::basic_string<char, std::__ndk1::char_traits<char>, std::__ndk1::allocator<char> > >, float>::Handle>, float&&)::{lambda()#1}, std::__ndk1::allocator<geode::Task<geode::Result<void, std::__ndk1::basic_string<char, std::__ndk1::char_traits<char>, std::__ndk1::allocator<char> > >, float>::progress(std::__ndk1::shared_ptr<geode::Task<geode::Result<void, std::__ndk1::basic_string<char, std::__ndk1::char_traits<char>, std::__ndk1::allocator<char> > >, float>::Handle>, float&&)::{lambda()#1}>, void ()>::target_type() const
FUNC 175b4 2c 0 std::__ndk1::__function::__func<geode::Task<geode::Result<void, std::__ndk1::basic_string<char, std::__ndk1::char_traits<char>, std::__ndk1::allocator<char> > >, float>::run(std::__ndk1::function<geode::Task<geode::Result<void, std::__ndk1::basic_string<char, std::__ndk1::char_traits<char>, std::__ndk1::allocator<char> > >, float>::Result(std::__ndk1::function<void (float)>, std::__ndk1::function<bool ()>)>&&, std::__ndk1::basic_string_view<char, std::__ndk1::char_traits<char> >)::{lambda()#1}::operator()() const::{lambda()#1}, std::__ndk1::allocator<geode::Task<geode::Result<void, std::__ndk1::basic_string<char, std::__ndk1::char_traits<char>, std::__ndk1::allocator<char> > >, float>::run(std::__ndk1::function<geode::Task<geode::Result<void, std::__ndk1::basic_string<char, std::__ndk1::char_traits<char>, std::__ndk1::allocator<char> > >, float>::Result(std::__ndk1::function<void (float)>, std::__ndk1::function<bool ()>)>&&, std::__ndk1::basic_string_view<char, std::__ndk1::char_traits<char> >)::{lambda()#1}::operator()() const::{lambda()#1}>, bool ()>::~__func()
FUNC 175e0 30 0 std::__ndk1::__function::__func<geode::Task<geode::Result<void, std::__ndk1::basic_string<char, std::__ndk1::char_traits<char>, std::__ndk1::allocator<char> > >, float>::run(std::__ndk1::function<geode::Task<geode::Result<void, std::__ndk1::basic_string<char, std::__ndk1::char_traits<char>, std::__ndk1::allocator<char> > >, float>::Result(std::__ndk1::function<void (float)>, std::__ndk1::function<bool ()>)>&&, std::__ndk1::basic_string_view<char, std::__ndk1::char_traits<char> >)::{lambda()#1}::operator()() const::{lambda()#1}, std::__ndk1::allocator<geode::Task<geode::Result<void, std::__ndk1::basic_string<char, std::__ndk1::char_traits<char>, std::__ndk1::allocator<char> > >, float>::run(std::__ndk1::function<geode::Task<geode::Result<void, std::__ndk1::basic_string<char, std::__ndk1::char_traits<char>, std::__ndk1::allocator<char> > >, float>::Result(std::__ndk1::function<void (float)>, std::__ndk1::function<bool ()>)>&&, std::__ndk1::basic_string_view<char, std::__ndk1::char_traits<char> >)::{lambda()#1}::operator()() const::{lambda()#1}>, bool ()>::~__func()
FUNC 17610 38 0 std::__ndk1::__function::__func<geode::Task<geode::Result<void, std::__ndk1::basic_string<char, std::__ndk1::char_traits<char>, std::__ndk1::allocator<char> > >, float>::run(std::__ndk1::function<geode::Task<geode::Result<void, std::__ndk1::basic_string<char, std::__ndk1::char_traits<char>, std::__ndk1::allocator<char> > >, float>::Result(std::__ndk1::function<void (float)>, std::__ndk1::function<bool ()>)>&&, std::__ndk1::basic_string_view<char, std::__ndk1::char_traits<char> >)::{lambda()#1}::operator()() const::{lambda()#1}, std::__ndk1::allocator<geode::Task<geode::Result<void, std::__ndk1::basic_string<char, std::__ndk1::char_traits<char>, std::__ndk1::allocator<char> > >, float>::run(std::__ndk1::function<geode::Task<geode::Result<void, std::__ndk1::basic_string<char, std::__ndk1::char_traits<char>, std::__ndk1::allocator<char> > >, float>::Result(std::__ndk1::function<void (float)>, std::__ndk1::function<bool ()>)>&&, std::__ndk1::basic_string_view<char, std::__ndk1::char_traits<char> >)::{lambda()#1}::operator()() const::{lambda()#1}>, bool ()>::__clone() const
FUNC 17648 30 0 std::__ndk1::__function::__func<geode::Task<geode::Result<void, std::__ndk1::basic_string<char, std::__ndk1::char_traits<char>, std::__ndk1::allocator<char> > >, float>::run(std::__ndk1::function<geode::Task<geode::Result<void, std::__ndk1::basic_string<char, std::__ndk1::char_traits<char>, std::__ndk1::allocator<char> > >, float>::Result(std::__ndk1::function<void (float)>, std::__ndk1::function<bool ()>)>&&, std::__ndk1::basic_string_view<char, std::__ndk1::char_traits<char> >)::{lambda()#1}::operator()() const::{lambda()#1}, std::__ndk1::allocator<geode::Task<geode::Result<void, std::__ndk1::basic_string<char, std::__ndk1::char_traits<char>, std::__ndk1::allocator<char> > >, float>::run(std::__ndk1::function<geode::Task<geode::Result<void, std::__ndk1::basic_string<char, std::__ndk1::char_traits<char>, std::__ndk1::allocator<char> > >, float>::Result(std::__ndk1::function<void (float)>, std::__ndk1::function<bool ()>)>&&, std::__ndk1::basic_string_view<char, std::__ndk1::char_traits<char> >)::{lambda()#1}::operator()() const::{lambda()#1}>, bool ()>::__clone(std::__ndk1::__function::__base<bool ()>*) const
FUNC 17678 c 0 std::__ndk1::__function::__func<geode::Task<geode::Result<void, std::__ndk1::basic_string<char, std::__ndk1::char_traits<char>, std::__ndk1::allocator<char> > >, float>::run(std::__ndk1::function<geode::Task<geode::Result<void, std::__ndk1::basic_string<char, std::__ndk1::char_traits<char>, std::__ndk1::allocator<char> > >, float>::Result(std::__ndk1::function<void (float)>, std::__ndk1::function<bool ()>)>&&, std::__ndk1::basic_string_view<char, std::__ndk1::char_traits<char> >)::{lambda()#1}::operator()() const::{lambda()#1}, std::__ndk1::allocator<geode::Task<geode::Result<void, std::__ndk1::basic_string<char, std::__ndk1::char_traits<char>, std::__ndk1::allocator<char> > >, float>::run(std::__ndk1::function<geode::Task<geode::Result<void, std::__ndk1::basic_string<char, std::__ndk1::char_traits<char>, std::__ndk1::allocator<char> > >, float>::Result(std::__ndk1::function<void (float)>, std::__ndk1::function<bool ()>)>&&, std::__ndk1::basic_string_view<char, std::__ndk1::char_traits<char> >)::{lambda()#1}::operator()() const::{lambda()#1}>, bool ()>::destroy()
FUNC 17684 20 0 std::__ndk1::__function::__func<geode::Task<geode::Result<void, std::__ndk1::basic_string<char, std::__ndk1::char_traits<char>, std::__ndk1::allocator<char> > >, float>::run(std::__ndk1::function<geode::Task<geode::Result<void, std::__ndk1::basic_string<char, std::__ndk1::char_traits<char>, std::__ndk1::allocator<char> > >, float>::Result(std::__ndk1::function<void (float)>, std::__ndk1::function<bool ()>)>&&, std::__ndk1::basic_string_view<char, std::__ndk1::char_traits<char> >)::{lambda()#1}::operator()() const::{lambda()#1}, std::__ndk1::allocator<geode::Task<geode::Result<void, std::__ndk1::basic_string<char, std::__ndk1::char_traits<char>, std::__ndk1::allocator<char> > >, float>::run(std::__ndk1::function<geode::Task<geode::Result<void, std::__ndk1::basic_string<char, std::__ndk1::char_traits<char>, std::__ndk1::allocator<char> > >, float>::Result(std::__ndk1::function<void (float)>, std::__ndk1::function<bool ()>)>&&, std::__ndk1::basic_string_view<char, std::__ndk1::char_traits<char> >)::{lambda()#1}::operator()() const::{lambda()#1}>, bool ()>::destroy_deallocate()
FUNC 176a4 a0 0 std::__ndk1::__function::__func<geode::Task<geode::Result<void, std::__ndk1::basic_string<char, std::__ndk1::char_traits<char>, std::__ndk1::allocator<char> > >, float>::run(std::__ndk1::function<geode::Task<geode::Result<void, std::__ndk1::basic_string<char, std::__ndk1::char_traits<char>, std::__ndk1::allocator<char> > >, float>::Result(std::__ndk1::function<void (float)>, std::__ndk1::function<bool ()>)>&&, std::__ndk1::basic_string_view<char, std::__ndk1::char_traits<char> >)::{lambda()#1}::operator()() const::{lambda()#1}, std::__ndk1::allocator<geode::Task<geode::Result<void, std::__ndk1::basic_string<char, std::__ndk1::char_traits<char>, std::__ndk1::allocator<char> > >, float>::run(std::__ndk1::function<geode::Task<geode::Result<void, std::__ndk1::basic_string<char, std::__ndk1::char_traits<char>, std::__ndk1::allocator<char> > >, float>::Result(std::__ndk1::function<void (float)>, std::__ndk1::function<bool ()>)>&&, std::__ndk1::basic_string_view<char, std::__ndk1::char_traits<char> >)::{lambda()#1}::operator()() const::{lambda()#1}>, bool ()>::operator()()
FUNC 17744 18 0 std::__ndk1::__function::__func<geode::Task<geode::Result<void, std::__ndk1::basic_string<char, std::__ndk1::char_traits<char>, std::__ndk1::allocator<char> > >, float>::run(std::__ndk1::function<geode::Task<geode::Result<void, std::__ndk1::basic_string<char, std::__ndk1::char_traits<char>, std::__ndk1::allocator<char> > >, float>::Result(std::__ndk1::function<void (float)>, std::__ndk1::function<bool ()>)>&&, std::__ndk1::basic_string_view<char, std::__ndk1::char_traits<char> >)::{lambda()#1}::operator()() const::{lambda()#1}, std::__ndk1::allocator<geode::Task<geode::Result<void, std::__ndk1::basic_string<char, std::__ndk1::char_traits<char>, std::__ndk1::allocator<char> > >, float>::run(std::__ndk1::function<geode::Task<geode::Result<void, std::__ndk1::basic_string<char, std::__ndk1::char_traits<char>, std::__ndk1::allocator<char> > >, float>::Result(std::__ndk1::function<void (float)>, std::__ndk1::function<bool ()>)>&&, std::__ndk1::basic_string_view<char, std::__ndk1::char_traits<char> >)::{lambda()#1}::operator()() const::{lambda()#1}>, bool ()>::target(std::type_info const&) const
FUNC 1775c c 0 std::__ndk1::__function::__func<geode::Task<geode::Result<void, std::__ndk1::basic_string<char, std::__ndk1::char_traits<char>, std::__ndk1::allocator<char> > >, float>::run(std::__ndk1::function<geode::Task<geode::Result<void, std::__ndk1::basic_string<char, std::__ndk1::char_traits<char>, std::__ndk1::allocator<char> > >, float>::Result(std::__ndk1::function<void (float)>, std::__ndk1::function<bool ()>)>&&, std::__ndk1::basic_string_view<char, std::__ndk1::char_traits<char> >)::{lambda()#1}::operator()() const::{lambda()#1}, std::__ndk1::allocator<geode::Task<geode::Result<void, std::__ndk1::basic_string<char, std::__ndk1::char_traits<char>, std::__ndk1::allocator<char> > >, float>::run(std::__ndk1::function<geode::Task<geode::Result<void, std::__ndk1::basic_string<char, std::__ndk1::char_traits<char>, std::__ndk1::allocator<char> > >, float>::Result(std::__ndk1::function<void (float)>, std::__ndk1::function<bool ()>)>&&, std::__ndk1::basic_string_view<char, std::__ndk1::char_traits<char> >)::{lambda()#1}::operator()() const::{lambda()#1}>, bool ()>::target_type() const
FUNC 17768 3a 0 geode::Task<geode::Result<void, std::__ndk1::basic_string<char, std::__ndk1::char_traits<char>, std::__ndk1::allocator<char> > >, float>::cancel(std::__ndk1::shared_ptr<geode::Task<geode::Result<void, std::__ndk1::basic_string<char, std::__ndk1::char_traits<char>, std::__ndk1::allocator<char> > >, float>::Handle>, bool)::{lambda()#1}::~{lambda()#1}()
FUNC 177a4 48 0 std::__ndk1::__function::__func<geode::Task<geode::Result<void, std::__ndk1::basic_string<char, std::__ndk1::char_traits<char>, std::__ndk1::allocator<char> > >, float>::cancel(std::__ndk1::shared_ptr<geode::Task<geode::Result<void, std::__ndk1::basic_string<char, std::__ndk1::char_traits<char>, std::__ndk1::allocator<char> > >, float>::Handle>, bool)::{lambda()#1}, std::__ndk1::allocator<geode::Task<geode::Result<void, std::__ndk1::basic_string<char, std::__ndk1::char_traits<char>, std::__ndk1::allocator<char> > >, float>::cancel(std::__ndk1::shared_ptr<geode::Task<geode::Result<void, std::__ndk1::basic_string<char, std::__ndk1::char_traits<char>, std::__ndk1::allocator<char> > >, float>::Handle>, bool)::{lambda()#1}>, void ()>::~__func()
FUNC 177ec 54 0 std::__ndk1::__function::__func<geode::Task<geode::Result<void, std::__ndk1::basic_string<char, std::__ndk1::char_traits<char>, std::__ndk1::allocator<char> > >, float>::cancel(std::__ndk1::shared_ptr<geode::Task<geode::Result<void, std::__ndk1::basic_string<char, std::__ndk1::char_traits<char>, std::__ndk1::allocator<char> > >, float>::Handle>, bool)::{lambda()#1}, std::__ndk1::allocator<geode::Task<geode::Result<void, std::__ndk1::basic_string<char, std::__ndk1::char_traits<char>, std::__ndk1::allocator<char> > >, float>::cancel(std::__ndk1::shared_ptr<geode::Task<geode::Result<void, std::__ndk1::basic_string<char, std::__ndk1::char_traits<char>, std::__ndk1::allocator<char> > >, float>::Handle>, bool)::{lambda()#1}>, void ()>::~__func()
FUNC 17840 38 0 std::__ndk1::__function::__func<geode::Task<geode::Result<void, std::__ndk1::basic_string<char, std::__ndk1::char_traits<char>, std::__ndk1::allocator<char> > >, float>::cancel(std::__ndk1::shared_ptr<geode::Task<geode::Result<void, std::__ndk1::basic_string<char, std::__ndk1::char_traits<char>, std::__ndk1::allocator<char> > >, float>::Handle>, bool)::{lambda()#1}, std::__ndk1::allocator<geode::Task<geode::Result<void, std::__ndk1::basic_string<char, std::__ndk1::char_traits<char>, std::__ndk1::allocator<char> > >, float>::cancel(std::__ndk1::shared_ptr<geode::Task<geode::Result<void, std::__ndk1::basic_string<char, std::__ndk1::char_traits<char>, std::__ndk1::allocator<char> > >, float>::Handle>, bool)::{lambda()#1}>, void ()>::__clone() const
FUNC 17878 30 0 std::__ndk1::__function::__func<geode::Task<geode::Result<void, std::__ndk1::basic_string<char, std::__ndk1::char_traits<char>, std::__ndk1::allocator<char> > >, float>::cancel(std::__ndk1::shared_ptr<geode::Task<geode::Result<void, std::__ndk1::basic_string<char, std::__ndk1::char_traits<char>, std::__ndk1::allocator<char> > >, float>::Handle>, bool)::{lambda()#1}, std::__ndk1::allocator<geode::Task<geode::Result<void, std::__ndk1::basic_string<char, std::__ndk1::char_traits<char>, std::__ndk1::allocator<char> > >, float>::cancel(std::__ndk1::shared_ptr<geode::Task<geode::Result<void, std::__ndk1::basic_string<char, std::__ndk1::char_traits<char>, std::__ndk1::allocator<char> > >, float>::Handle>, bool)::{lambda()#1}>, void ()>::__clone(std::__ndk1::__function::__base<void ()>*) const
FUNC 178a8 3a 0 std::__ndk1::__function::__func<geode::Task<geode::Result<void, std::__ndk1::basic_string<char, std::__ndk1::char_traits<char>, std::__ndk1::allocator<char> > >, float>::cancel(std::__ndk1::shared_ptr<geode::Task<geode::Result<void, std::__ndk1::basic_string<char, std::__ndk1::char_traits<char>, std::__ndk1::allocator<char> > >, float>::Handle>, bool)::{lambda()#1}, std::__ndk1::allocator<geode::Task<geode::Result<void, std::__ndk1::basic_string<char, std::__ndk1::char_traits<char>, std::__ndk1::allocator<char> > >, float>::cancel(std::__ndk1::shared_ptr<geode::Task<geode::Result<void, std::__ndk1::basic_string<char, std::__ndk1::char_traits<char>, std::__ndk1::allocator<char> > >, float>::Handle>, bool)::{lambda()#1}>, void ()>::destroy()
FUNC 178e2 44 0 std::__ndk1::__function::__func<geode::Task<geode::Result<void, std::__ndk1::basic_string<char, std::__ndk1::char_traits<char>, std::__ndk1::allocator<char> > >, float>::cancel(std::__ndk1::shared_ptr<geode::Task<geode::Result<void, std::__ndk1::basic_string<char, std::__ndk1::char_traits<char>, std::__ndk1::allocator<char> > >, float>::Handle>, bool)::{lambda()#1}, std::__ndk1::allocator<geode::Task<geode::Result<void, std::__ndk1::basic_string<char, std::__ndk1::char_traits<char>, std::__ndk1::allocator<char> > >, float>::cancel(std::__ndk1::shared_ptr<geode::Task<geode::Result<void, std::__ndk1::basic_string<char, std::__ndk1::char_traits<char>, std::__ndk1::allocator<char> > >, float>::Handle>, bool)::{lambda()#1}>, void ()>::destroy_deallocate()
FUNC 17928 164 0 std::__ndk1::__function::__func<geode::Task<geode::Result<void, std::__ndk1::basic_string<char, std::__ndk1::char_traits<char>, std::__ndk1::allocator<char> > >, float>::cancel(std::__ndk1::shared_ptr<geode::Task<geode::Result<void, std::__ndk1::basic_string<char, std::__ndk1::char_traits<char>, std::__ndk1::allocator<char> > >, float>::Handle>, bool)::{lambda()#1}, std::__ndk1::allocator<geode::Task<geode::Result<void, std::__ndk1::basic_string<char, std::__ndk1::char_traits<char>, std::__ndk1::allocator<char> > >, float>::cancel(std::__ndk1::shared_ptr<geode::Task<geode::Result<void, std::__ndk1::basic_string<char, std::__ndk1::char_traits<char>, std::__ndk1::allocator<char> > >, float>::Handle>, bool)::{lambda()#1}>, void ()>::operator()()
FUNC 17a8c 18 0 std::__ndk1::__function::__func<geode::Task<geode::Result<void, std::__ndk1::basic_string<char, std::__ndk1::char_traits<char>, std::__ndk1::allocator<char> > >, float>::cancel(std::__ndk1::shared_ptr<geode::Task<geode::Result<void, std::__ndk1::basic_string<char, std::__ndk1::char_traits<char>, std::__ndk1::allocator<char> > >, float>::Handle>, bool)::{lambda()#1}, std::__ndk1::allocator<geode::Task<geode::Result<void, std::__ndk1::basic_string<char, std::__ndk1::char_traits<char>, std::__ndk1::allocator<char> > >, float>::cancel(std::__ndk1::shared_ptr<geode::Task<geode::Result<void, std::__ndk1::basic_string<char, std::__ndk1::char_traits<char>, std::__ndk1::allocator<char> > >, float>::Handle>, bool)::{lambda()#1}>, void ()>::target(std::type_info const&) const
FUNC 17aa4 c 0 std::__ndk1::__function::__func<geode::Task<geode::Result<void, std::__ndk1::basic_string<char, std::__ndk1::char_traits<char>, std::__ndk1::allocator<char> > >, float>::cancel(std::__ndk1::shared_ptr<geode::Task<geode::Result<void, std::__ndk1::basic_string<char, std::__ndk1::char_traits<char>, std::__ndk1::allocator<char> > >, float>::Handle>, bool)::{lambda()#1}, std::__ndk1::allocator<geode::Task<geode::Result<void, std::__ndk1::basic_string<char, std::__ndk1::char_traits<char>, std::__ndk1::allocator<char> > >, float>::cancel(std::__ndk1::shared_ptr<geode::Task<geode::Result<void, std::__ndk1::basic_string<char, std::__ndk1::char_traits<char>, std::__ndk1::allocator<char> > >, float>::Handle>, bool)::{lambda()#1}>, void ()>::target_type() const
FUNC 17ab0 3a 0 geode::Task<geode::Result<void, std::__ndk1::basic_string<char, std::__ndk1::char_traits<char>, std::__ndk1::allocator<char> > >, float>::finish(std::__ndk1::shared_ptr<geode::Task<geode::Result<void, std::__ndk1::basic_string<char, std::__ndk1::char_traits<char>, std::__ndk1::allocator<char> > >, float>::Handle>, geode::Result<void, std::__ndk1::basic_string<char, std::__ndk1::char_traits<char>, std::__ndk1::allocator<char> > >&&)::{lambda()#1}::~{lambda()#1}()
FUNC 17aea 2 0 std::__ndk1::__variant_detail::__visitation::__base::__dispatcher<(unsigned int)0, (unsigned int)0>::__dispatch[abi:ne180000]<std::__ndk1::__variant_detail::__ctor<std::__ndk1::__variant_detail::__traits<std::__ndk1::monostate, std::__ndk1::basic_string<char, std::__ndk1::char_traits<char>, std::__ndk1::allocator<char> > > >::__generic_construct[abi:ne180000]<std::__ndk1::__variant_detail::__move_constructor<std::__ndk1::basic_string<char, std::__ndk1::char_traits<char>, std::__ndk1::allocator<char> >, (std::__ndk1::__variant_detail::_Trait)1> >(std::__ndk1::__variant_detail::__traits<std::__ndk1::monostate, std::__ndk1::basic_string<char, std::__ndk1::char_traits<char>, std::__ndk1::allocator<char> > >&, std::__ndk1::__variant_detail::__move_constructor<std::__ndk1::basic_string<char, std::__ndk1::char_traits<char>, std::__ndk1::allocator<char> >, (std::__ndk1::__variant_detail::_Trait)1>&&)::{lambda(std::__ndk1::__variant_detail::__move_constructor<std::__ndk1::basic_string<char, std::__ndk1::char_traits<char>, std::__ndk1::allocator<char> >, (std::__ndk1::__variant_detail::_Trait)1>&, auto:2&&)#1}, std::__ndk1::__variant_detail::__base<(std::__ndk1::__variant_detail::__ctor<std::__ndk1::__variant_detail::__traits<std::__ndk1::monostate, std::__ndk1::basic_string<char, std::__ndk1::char_traits<char>, std::__ndk1::allocator<char> > > >::__generic_construct[abi:ne180000])1, std::__ndk1::__variant_detail::__traits, std::__ndk1::allocator<char> >&, std::__ndk1::__variant_detail::__ctor<std::__ndk1::__variant_detail::__traits<std::__ndk1::monostate, std::__ndk1::basic_string<char, std::__ndk1::char_traits<char>, std::__ndk1::allocator<char> > > >::__generic_construct[abi:ne180000]<std::__ndk1::__variant_detail::__move_constructor<std::__ndk1::basic_string<char, std::__ndk1::char_traits<char>, std::__ndk1::allocator<char> >, (std::__ndk1::__variant_detail::_Trait)1> >(std::__ndk1::__variant_detail::__traits<std::__ndk1::monostate, std::__ndk1::basic_string<char, std::__ndk1::char_traits<char>, std::__ndk1::allocator<char> > >&, std::__ndk1::__variant_detail::__move_constructor<std::__ndk1::basic_string<char, std::__ndk1::char_traits<char>, std::__ndk1::allocator<char> >, (std::__ndk1::__variant_detail::_Trait)1>&&)::{lambda(std::__ndk1::__variant_detail::__move_constructor<std::__ndk1::basic_string<char, std::__ndk1::char_traits<char>, std::__ndk1::allocator<char> >, (std::__ndk1::__variant_detail::_Trait)1>&, auto:2&&)#1}>(std::__ndk1::__variant_detail::__move_constructor<std::__ndk1::basic_string<char, std::__ndk1::char_traits<char>, std::__ndk1::allocator<char> >, (std::__ndk1::__variant_detail::_Trait)1>, std::__ndk1::__variant_detail::__base<(std::__ndk1::__variant_detail::__ctor<std::__ndk1::__variant_detail::__traits<std::__ndk1::monostate, std::__ndk1::basic_string<char, std::__ndk1::char_traits<char>, std::__ndk1::allocator<char> > > >::__generic_construct[abi:ne180000])1, std::__ndk1::__variant_detail::__traits, std::__ndk1::allocator<char> >&, std::__ndk1::__variant_detail::__ctor<std::__ndk1::__variant_detail::__traits<std::__ndk1::monostate, std::__ndk1::basic_string<char, std::__ndk1::char_traits<char>, std::__ndk1::allocator<char> > > >::__generic_construct[abi:ne180000]<std::__ndk1::__variant_detail::__move_constructor<std::__ndk1::basic_string<char, std::__ndk1::char_traits<char>, std::__ndk1::allocator<char> >, (std::__ndk1::__variant_detail::_Trait)1> >(std::__ndk1::__variant_detail::__traits<std::__ndk1::monostate, std::__ndk1::basic_string<char, std::__ndk1::char_traits<char>, std::__ndk1::allocator<char> > >&, std::__ndk1::__variant_detail::__move_constructor<std::__ndk1::basic_string<char, std::__ndk1::char_traits<char>, std::__ndk1::allocator<char> >, (std::__ndk1::__variant_detail::_Trait)1>&&)::{lambda(std::__ndk1::__variant_detail::__move_constructor<std::__ndk1::basic_string<char, std::__ndk1::char_traits<char>, std::__ndk1::allocator<char> >, (std::__ndk1::__variant_detail::_Trait)1>&, auto:2&&)#1})
FUNC 17aec 16 0 std::__ndk1::__variant_detail::__visitation::__base::__dispatcher<(unsigned int)1, (unsigned int)1>::__dispatch[abi:ne180000]<std::__ndk1::__variant_detail::__ctor<std::__ndk1::__variant_detail::__traits<std::__ndk1::monostate, std::__ndk1::basic_string<char, std::__ndk1::char_traits<char>, std::__ndk1::allocator<char> > > >::__generic_construct[abi:ne180000]<std::__ndk1::__variant_detail::__move_constructor<std::__ndk1::basic_string<char, std::__ndk1::char_traits<char>, std::__ndk1::allocator<char> >, (std::__ndk1::__variant_detail::_Trait)1> >(std::__ndk1::__variant_detail::__traits<std::__ndk1::monostate, std::__ndk1::basic_string<char, std::__ndk1::char_traits<char>, std::__ndk1::allocator<char> > >&, std::__ndk1::__variant_detail::__move_constructor<std::__ndk1::basic_string<char, std::__ndk1::char_traits<char>, std::__ndk1::allocator<char> >, (std::__ndk1::__variant_detail::_Trait)1>&&)::{lambda(std::__ndk1::__variant_detail::__move_constructor<std::__ndk1::basic_string<char, std::__ndk1::char_traits<char>, std::__ndk1::allocator<char> >, (std::__ndk1::__variant_detail::_Trait)1>&, auto:2&&)#1}, std::__ndk1::__variant_detail::__base<(std::__ndk1::__variant_detail::__ctor<std::__ndk1::__variant_detail::__traits<std::__ndk1::monostate, std::__ndk1::basic_string<char, std::__ndk1::char_traits<char>, std::__ndk1::allocator<char> > > >::__generic_construct[abi:ne180000])1, std::__ndk1::__variant_detail::__traits, std::__ndk1::allocator<char> >&, std::__ndk1::__variant_detail::__ctor<std::__ndk1::__variant_detail::__traits<std::__ndk1::monostate, std::__ndk1::basic_string<char, std::__ndk1::char_traits<char>, std::__ndk1::allocator<char> > > >::__generic_construct[abi:ne180000]<std::__ndk1::__variant_detail::__move_constructor<std::__ndk1::basic_string<char, std::__ndk1::char_traits<char>, std::__ndk1::allocator<char> >, (std::__ndk1::__variant_detail::_Trait)1> >(std::__ndk1::__variant_detail::__traits<std::__ndk1::monostate, std::__ndk1::basic_string<char, std::__ndk1::char_traits<char>, std::__ndk1::allocator<char> > >&, std::__ndk1::__variant_detail::__move_constructor<std::__ndk1::basic_string<char, std::__ndk1::char_traits<char>, std::__ndk1::allocator<char> >, (std::__ndk1::__variant_detail::_Trait)1>&&)::{lambda(std::__ndk1::__variant_detail::__move_constructor<std::__ndk1::basic_string<char, std::__ndk1::char_traits<char>, std::__ndk1::allocator<char> >, (std::__ndk1::__variant_detail::_Trait)1>&, auto:2&&)#1}>(std::__ndk1::__variant_detail::__move_constructor<std::__ndk1::basic_string<char, std::__ndk1::char_traits<char>, std::__ndk1::allocator<char> >, (std::__ndk1::__variant_detail::_Trait)1>, std::__ndk1::__variant_detail::__base<(std::__ndk1::__variant_detail::__ctor<std::__ndk1::__variant_detail::__traits<std::__ndk1::monostate, std::__ndk1::basic_string<char, std::__ndk1::char_traits<char>, std::__ndk1::allocator<char> > > >::__generic_construct[abi:ne180000])1, std::__ndk1::__variant_detail::__traits, std::__ndk1::allocator<char> >&, std::__ndk1::__variant_detail::__ctor<std::__ndk1::__variant_detail::__traits<std::__ndk1::monostate, std::__ndk1::basic_string<char, std::__ndk1::char_traits<char>, std::__ndk1::allocator<char> > > >::__generic_construct[abi:ne180000]<std::__ndk1::__variant_detail::__move_constructor<std::__ndk1::basic_string<char, std::__ndk1::char_traits<char>, std::__ndk1::allocator<char> >, (std::__ndk1::__variant_detail::_Trait)1> >(std::__ndk1::__variant_detail::__traits<std::__ndk1::monostate, std::__ndk1::basic_string<char, std::__ndk1::char_traits<char>, std::__ndk1::allocator<char> > >&, std::__ndk1::__variant_detail::__move_constructor<std::__ndk1::basic_string<char, std::__ndk1::char_traits<char>, std::__ndk1::allocator<char> >, (std::__ndk1::__variant_detail::_Trait)1>&&)::{lambda(std::__ndk1::__variant_detail::__move_constructor<std::__ndk1::basic_string<char, std::__ndk1::char_traits<char>, std::__ndk1::allocator<char> >, (std::__ndk1::__variant_detail::_Trait)1>&, auto:2&&)#1})
FUNC 17b04 48 0 std::__ndk1::__function::__func<geode::Task<geode::Result<void, std::__ndk1::basic_string<char, std::__ndk1::char_traits<char>, std::__ndk1::allocator<char> > >, float>::finish(std::__ndk1::shared_ptr<geode::Task<geode::Result<void, std::__ndk1::basic_string<char, std::__ndk1::char_traits<char>, std::__ndk1::allocator<char> > >, float>::Handle>, geode::Result<void, std::__ndk1::basic_string<char, std::__ndk1::char_traits<char>, std::__ndk1::allocator<char> > >&&)::{lambda()#1}, std::__ndk1::allocator<geode::Task<geode::Result<void, std::__ndk1::basic_string<char, std::__ndk1::char_traits<char>, std::__ndk1::allocator<char> > >, float>::finish(std::__ndk1::shared_ptr<geode::Task<geode::Result<void, std::__ndk1::basic_string<char, std::__ndk1::char_traits<char>, std::__ndk1::allocator<char> > >, float>::Handle>, geode::Result<void, std::__ndk1::basic_string<char, std::__ndk1::char_traits<char>, std::__ndk1::allocator<char> > >&&)::{lambda()#1}>, void ()>::~__func()
FUNC 17b4c 54 0 std::__ndk1::__function::__func<geode::Task<geode::Result<void, std::__ndk1::basic_string<char, std::__ndk1::char_traits<char>, std::__ndk1::allocator<char> > >, float>::finish(std::__ndk1::shared_ptr<geode::Task<geode::Result<void, std::__ndk1::basic_string<char, std::__ndk1::char_traits<char>, std::__ndk1::allocator<char> > >, float>::Handle>, geode::Result<void, std::__ndk1::basic_string<char, std::__ndk1::char_traits<char>, std::__ndk1::allocator<char> > >&&)::{lambda()#1}, std::__ndk1::allocator<geode::Task<geode::Result<void, std::__ndk1::basic_string<char, std::__ndk1::char_traits<char>, std::__ndk1::allocator<char> > >, float>::finish(std::__ndk1::shared_ptr<geode::Task<geode::Result<void, std::__ndk1::basic_string<char, std::__ndk1::char_traits<char>, std::__ndk1::allocator<char> > >, float>::Handle>, geode::Result<void, std::__ndk1::basic_string<char, std::__ndk1::char_traits<char>, std::__ndk1::allocator<char> > >&&)::{lambda()#1}>, void ()>::~__func()
FUNC 17ba0 3c 0 std::__ndk1::__function::__func<geode::Task<geode::Result<void, std::__ndk1::basic_string<char, std::__ndk1::char_traits<char>, std::__ndk1::allocator<char> > >, float>::finish(std::__ndk1::shared_ptr<geode::Task<geode::Result<void, std::__ndk1::basic_string<char, std::__ndk1::char_traits<char>, std::__ndk1::allocator<char> > >, float>::Handle>, geode::Result<void, std::__ndk1::basic_string<char, std::__ndk1::char_traits<char>, std::__ndk1::allocator<char> > >&&)::{lambda()#1}, std::__ndk1::allocator<geode::Task<geode::Result<void, std::__ndk1::basic_string<char, std::__ndk1::char_traits<char>, std::__ndk1::allocator<char> > >, float>::finish(std::__ndk1::shared_ptr<geode::Task<geode::Result<void, std::__ndk1::basic_string<char, std::__ndk1::char_traits<char>, std::__ndk1::allocator<char> > >, float>::Handle>, geode::Result<void, std::__ndk1::basic_string<char, std::__ndk1::char_traits<char>, std::__ndk1::allocator<char> > >&&)::{lambda()#1}>, void ()>::__clone() const
FUNC 17bdc 30 0 std::__ndk1::__function::__func<geode::Task<geode::Result<void, std::__ndk1::basic_string<char, std::__ndk1::char_traits<char>, std::__ndk1::allocator<char> > >, float>::finish(std::__ndk1::shared_ptr<geode::Task<geode::Result<void, std::__ndk1::basic_string<char, std::__ndk1::char_traits<char>, std::__ndk1::allocator<char> > >, float>::Handle>, geode::Result<void, std::__ndk1::basic_string<char, std::__ndk1::char_traits<char>, std::__ndk1::allocator<char> > >&&)::{lambda()#1}, std::__ndk1::allocator<geode::Task<geode::Result<void, std::__ndk1::basic_string<char, std::__ndk1::char_traits<char>, std::__ndk1::allocator<char> > >, float>::finish(std::__ndk1::shared_ptr<geode::Task<geode::Result<void, std::__ndk1::basic_string<char, std::__ndk1::char_traits<char>, std::__ndk1::allocator<char> > >, float>::Handle>, geode::Result<void, std::__ndk1::basic_string<char, std::__ndk1::char_traits<char>, std::__ndk1::allocator<char> > >&&)::{lambda()#1}>, void ()>::__clone(std::__ndk1::__function::__base<void ()>*) const
FUNC 17c0c 3a 0 std::__ndk1::__function::__func<geode::Task<geode::Result<void, std::__ndk1::basic_string<char, std::__ndk1::char_traits<char>, std::__ndk1::allocator<char> > >, float>::finish(std::__ndk1::shared_ptr<geode::Task<geode::Result<void, std::__ndk1::basic_string<char, std::__ndk1::char_traits<char>, std::__ndk1::allocator<char> > >, float>::Handle>, geode::Result<void, std::__ndk1::basic_string<char, std::__ndk1::char_traits<char>, std::__ndk1::allocator<char> > >&&)::{lambda()#1}, std::__ndk1::allocator<geode::Task<geode::Result<void, std::__ndk1::basic_string<char, std::__ndk1::char_traits<char>, std::__ndk1::allocator<char> > >, float>::finish(std::__ndk1::shared_ptr<geode::Task<geode::Result<void, std::__ndk1::basic_string<char, std::__ndk1::char_traits<char>, std::__ndk1::allocator<char> > >, float>::Handle>, geode::Result<void, std::__ndk1::basic_string<char, std::__ndk1::char_traits<char>, std::__ndk1::allocator<char> > >&&)::{lambda()#1}>, void ()>::destroy()
FUNC 17c46 44 0 std::__ndk1::__function::__func<geode::Task<geode::Result<void, std::__ndk1::basic_string<char, std::__ndk1::char_traits<char>, std::__ndk1::allocator<char> > >, float>::finish(std::__ndk1::shared_ptr<geode::Task<geode::Result<void, std::__ndk1::basic_string<char, std::__ndk1::char_traits<char>, std::__ndk1::allocator<char> > >, float>::Handle>, geode::Result<void, std::__ndk1::basic_string<char, std::__ndk1::char_traits<char>, std::__ndk1::allocator<char> > >&&)::{lambda()#1}, std::__ndk1::allocator<geode::Task<geode::Result<void, std::__ndk1::basic_string<char, std::__ndk1::char_traits<char>, std::__ndk1::allocator<char> > >, float>::finish(std::__ndk1::shared_ptr<geode::Task<geode::Result<void, std::__ndk1::basic_string<char, std::__ndk1::char_traits<char>, std::__ndk1::allocator<char> > >, float>::Handle>, geode::Result<void, std::__ndk1::basic_string<char, std::__ndk1::char_traits<char>, std::__ndk1::allocator<char> > >&&)::{lambda()#1}>, void ()>::destroy_deallocate()
FUNC 17c8c 16c 0 std::__ndk1::__function::__func<geode::Task<geode::Result<void, std::__ndk1::basic_string<char, std::__ndk1::char_traits<char>, std::__ndk1::allocator<char> > >, float>::finish(std::__ndk1::shared_ptr<geode::Task<geode::Result<void, std::__ndk1::basic_string<char, std::__ndk1::char_traits<char>, std::__ndk1::allocator<char> > >, float>::Handle>, geode::Result<void, std::__ndk1::basic_string<char, std::__ndk1::char_traits<char>, std::__ndk1::allocator<char> > >&&)::{lambda()#1}, std::__ndk1::allocator<geode::Task<geode::Result<void, std::__ndk1::basic_string<char, std::__ndk1::char_traits<char>, std::__ndk1::allocator<char> > >, float>::finish(std::__ndk1::shared_ptr<geode::Task<geode::Result<void, std::__ndk1::basic_string<char, std::__ndk1::char_traits<char>, std::__ndk1::allocator<char> > >, float>::Handle>, geode::Result<void, std::__ndk1::basic_string<char, std::__ndk1::char_traits<char>, std::__ndk1::allocator<char> > >&&)::{lambda()#1}>, void ()>::operator()()
FUNC 17df8 18 0 std::__ndk1::__function::__func<geode::Task<geode::Result<void, std::__ndk1::basic_string<char, std::__ndk1::char_traits<char>, std::__ndk1::allocator<char> > >, float>::finish(std::__ndk1::shared_ptr<geode::Task<geode::Result<void, std::__ndk1::basic_string<char, std::__ndk1::char_traits<char>, std::__ndk1::allocator<char> > >, float>::Handle>, geode::Result<void, std::__ndk1::basic_string<char, std::__ndk1::char_traits<char>, std::__ndk1::allocator<char> > >&&)::{lambda()#1}, std::__ndk1::allocator<geode::Task<geode::Result<void, std::__ndk1::basic_string<char, std::__ndk1::char_traits<char>, std::__ndk1::allocator<char> > >, float>::finish(std::__ndk1::shared_ptr<geode::Task<geode::Result<void, std::__ndk1::basic_string<char, std::__ndk1::char_traits<char>, std::__ndk1::allocator<char> > >, float>::Handle>, geode::Result<void, std::__ndk1::basic_string<char, std::__ndk1::char_traits<char>, std::__ndk1::allocator<char> > >&&)::{lambda()#1}>, void ()>::target(std::type_info const&) const
FUNC 17e10 c 0 std::__ndk1::__function::__func<geode::Task<geode::Result<void, std::__ndk1::basic_string<char, std::__ndk1::char_traits<char>, std::__ndk1::allocator<char> > >, float>::finish(std::__ndk1::shared_ptr<geode::Task<geode::Result<void, std::__ndk1::basic_string<char, std::__ndk1::char_traits<char>, std::__ndk1::allocator<char> > >, float>::Handle>, geode::Result<void, std::__ndk1::basic_string<char, std::__ndk1::char_traits<char>, std::__ndk1::allocator<char> > >&&)::{lambda()#1}, std::__ndk1::allocator<geode::Task<geode::Result<void, std::__ndk1::basic_string<char, std::__ndk1::char_traits<char>, std::__ndk1::allocator<char> > >, float>::finish(std::__ndk1::shared_ptr<geode::Task<geode::Result<void, std::__ndk1::basic_string<char, std::__ndk1::char_traits<char>, std::__ndk1::allocator<char> > >, float>::Handle>, geode::Result<void, std::__ndk1::basic_string<char, std::__ndk1::char_traits<char>, std::__ndk1::allocator<char> > >&&)::{lambda()#1}>, void ()>::target_type() const
FUNC 17e1c 60 0 std::__ndk1::__variant_detail::__visitation::__base::__dispatcher<(unsigned int)0>::__dispatch[abi:ne180000]<std::__ndk1::__variant_detail::__dtor<std::__ndk1::__variant_detail::__traits<geode::Result<void, std::__ndk1::basic_string<char, std::__ndk1::char_traits<char>, std::__ndk1::allocator<char> > >, std::__ndk1::__variant_detail::__traits::Task<std::__ndk1::basic_string<char, std::__ndk1::char_traits<char>, std::__ndk1::allocator<char> >, float>::Cancel>, (std::__ndk1::__variant_detail::_Trait)1>::__destroy[abi:ne180000]()::{lambda(auto:1&)#1}, std::__ndk1::__variant_detail::__base<(std::__ndk1::__variant_detail::__traits<geode::Result<void, std::__ndk1::basic_string<char, std::__ndk1::char_traits<char>, std::__ndk1::allocator<char> > >, std::__ndk1::__variant_detail::__traits::Task<std::__ndk1::basic_string<char, std::__ndk1::char_traits<char>, std::__ndk1::allocator<char> >, float>::Cancel>)1, std::__ndk1::basic_string<char, std::__ndk1::char_traits<char>, std::__ndk1::allocator<char> >, std::__ndk1::__variant_detail::__traits::Task<std::__ndk1::basic_string<char, std::__ndk1::char_traits<char>, std::__ndk1::allocator<char> >, float> >&>(std::__ndk1::__variant_detail::__dtor<std::__ndk1::__variant_detail::__traits<geode::Result<void, std::__ndk1::basic_string<char, std::__ndk1::char_traits<char>, std::__ndk1::allocator<char> > >, std::__ndk1::__variant_detail::__traits::Task<std::__ndk1::basic_string<char, std::__ndk1::char_traits<char>, std::__ndk1::allocator<char> >, float>::Cancel>, (std::__ndk1::__variant_detail::_Trait)1>, std::__ndk1::__variant_detail::__base<(std::__ndk1::__variant_detail::__traits<geode::Result<void, std::__ndk1::basic_string<char, std::__ndk1::char_traits<char>, std::__ndk1::allocator<char> > >, std::__ndk1::__variant_detail::__traits::Task<std::__ndk1::basic_string<char, std::__ndk1::char_traits<char>, std::__ndk1::allocator<char> >, float>::Cancel>)1, std::__ndk1::basic_string<char, std::__ndk1::char_traits<char>, std::__ndk1::allocator<char> >, std::__ndk1::__variant_detail::__traits::Task<std::__ndk1::basic_string<char, std::__ndk1::char_traits<char>, std::__ndk1::allocator<char> >, float> >&)
FUNC 17e7c 2 0 std::__ndk1::__variant_detail::__visitation::__base::__dispatcher<(unsigned int)1>::__dispatch[abi:ne180000]<std::__ndk1::__variant_detail::__dtor<std::__ndk1::__variant_detail::__traits<geode::Result<void, std::__ndk1::basic_string<char, std::__ndk1::char_traits<char>, std::__ndk1::allocator<char> > >, std::__ndk1::__variant_detail::__traits::Task<std::__ndk1::basic_string<char, std::__ndk1::char_traits<char>, std::__ndk1::allocator<char> >, float>::Cancel>, (std::__ndk1::__variant_detail::_Trait)1>::__destroy[abi:ne180000]()::{lambda(auto:1&)#1}, std::__ndk1::__variant_detail::__base<(std::__ndk1::__variant_detail::__traits<geode::Result<void, std::__ndk1::basic_string<char, std::__ndk1::char_traits<char>, std::__ndk1::allocator<char> > >, std::__ndk1::__variant_detail::__traits::Task<std::__ndk1::basic_string<char, std::__ndk1::char_traits<char>, std::__ndk1::allocator<char> >, float>::Cancel>)1, std::__ndk1::basic_string<char, std::__ndk1::char_traits<char>, std::__ndk1::allocator<char> >, std::__ndk1::__variant_detail::__traits::Task<std::__ndk1::basic_string<char, std::__ndk1::char_traits<char>, std::__ndk1::allocator<char> >, float> >&>(std::__ndk1::__variant_detail::__dtor<std::__ndk1::__variant_detail::__traits<geode::Result<void, std::__ndk1::basic_string<char, std::__ndk1::char_traits<char>, std::__ndk1::allocator<char> > >, std::__ndk1::__variant_detail::__traits::Task<std::__ndk1::basic_string<char, std::__ndk1::char_traits<char>, std::__ndk1::allocator<char> >, float>::Cancel>, (std::__ndk1::__variant_detail::_Trait)1>, std::__ndk1::__variant_detail::__base<(std::__ndk1::__variant_detail::__traits<geode::Result<void, std::__ndk1::basic_string<char, std::__ndk1::char_traits<char>, std::__ndk1::allocator<char> > >, std::__ndk1::__variant_detail::__traits::Task<std::__ndk1::basic_string<char, std::__ndk1::char_traits<char>, std::__ndk1::allocator<char> >, float>::Cancel>)1, std::__ndk1::basic_string<char, std::__ndk1::char_traits<char>, std::__ndk1::allocator<char> >, std::__ndk1::__variant_detail::__traits::Task<std::__ndk1::basic_string<char, std::__ndk1::char_traits<char>, std::__ndk1::allocator<char> >, float> >&)
FUNC 17e7e 56 0 std::__ndk1::default_delete<std::__ndk1::tuple<std::__ndk1::unique_ptr<std::__ndk1::__thread_struct, std::__ndk1::default_delete<std::__ndk1::__thread_struct> >, geode::Task<geode::Result<void, std::__ndk1::basic_string<char, std::__ndk1::char_traits<char>, std::__ndk1::allocator<char> > >, float>::run(std::__ndk1::function<geode::Task<geode::Result<void, std::__ndk1::basic_string<char, std::__ndk1::char_traits<char>, std::__ndk1::allocator<char> > >, float>::Result(std::__ndk1::function<void (float)>, std::__ndk1::function<bool ()>)>&&, std::__ndk1::basic_string_view<char, std::__ndk1::char_traits<char> >)::{lambda()#1}> >::operator()[abi:ne180000](std::__ndk1::tuple<std::__ndk1::unique_ptr<std::__ndk1::__thread_struct, std::__ndk1::default_delete<std::__ndk1::__thread_struct> >, geode::Task<geode::Result<void, std::__ndk1::basic_string<char, std::__ndk1::char_traits<char>, std::__ndk1::allocator<char> > >, float>::run(std::__ndk1::function<geode::Task<geode::Result<void, std::__ndk1::basic_string<char, std::__ndk1::char_traits<char>, std::__ndk1::allocator<char> > >, float>::Result(std::__ndk1::function<void (float)>, std::__ndk1::function<bool ()>)>&&, std::__ndk1::basic_string_view<char, std::__ndk1::char_traits<char> >)::{lambda()#1}>*) const
FUNC 17ed4 30 0 std::__ndk1::__function::__func<HighTexturesPopup::getExtractTask(std::__ndk1::__fs::filesystem::path, std::__ndk1::__fs::filesystem::path)::$_0, std::__ndk1::allocator<HighTexturesPopup::getExtractTask(std::__ndk1::__fs::filesystem::path, std::__ndk1::__fs::filesystem::path)::$_0>, geode::Task<geode::Result<void, std::__ndk1::basic_string<char, std::__ndk1::char_traits<char>, std::__ndk1::allocator<char> > >, float>::Result(std::__ndk1::function<void (float)>, std::__ndk1::function<bool ()>)>::~__func()
FUNC 17f04 34 0 std::__ndk1::__function::__func<HighTexturesPopup::getExtractTask(std::__ndk1::__fs::filesystem::path, std::__ndk1::__fs::filesystem::path)::$_0, std::__ndk1::allocator<HighTexturesPopup::getExtractTask(std::__ndk1::__fs::filesystem::path, std::__ndk1::__fs::filesystem::path)::$_0>, geode::Task<geode::Result<void, std::__ndk1::basic_string<char, std::__ndk1::char_traits<char>, std::__ndk1::allocator<char> > >, float>::Result(std::__ndk1::function<void (float)>, std::__ndk1::function<bool ()>)>::~__func()
FUNC 17f38 88 0 std::__ndk1::__function::__func<HighTexturesPopup::getExtractTask(std::__ndk1::__fs::filesystem::path, std::__ndk1::__fs::filesystem::path)::$_0, std::__ndk1::allocator<HighTexturesPopup::getExtractTask(std::__ndk1::__fs::filesystem::path, std::__ndk1::__fs::filesystem::path)::$_0>, geode::Task<geode::Result<void, std::__ndk1::basic_string<char, std::__ndk1::char_traits<char>, std::__ndk1::allocator<char> > >, float>::Result(std::__ndk1::function<void (float)>, std::__ndk1::function<bool ()>)>::__clone() const
FUNC 17fc0 7c 0 std::__ndk1::__function::__func<HighTexturesPopup::getExtractTask(std::__ndk1::__fs::filesystem::path, std::__ndk1::__fs::filesystem::path)::$_0, std::__ndk1::allocator<HighTexturesPopup::getExtractTask(std::__ndk1::__fs::filesystem::path, std::__ndk1::__fs::filesystem::path)::$_0>, geode::Task<geode::Result<void, std::__ndk1::basic_string<char, std::__ndk1::char_traits<char>, std::__ndk1::allocator<char> > >, float>::Result(std::__ndk1::function<void (float)>, std::__ndk1::function<bool ()>)>::__clone(std::__ndk1::__function::__base<geode::Task<geode::Result<void, std::__ndk1::basic_string<char, std::__ndk1::char_traits<char>, std::__ndk1::allocator<char> > >, float>::Result(std::__ndk1::function<void (float)>, std::__ndk1::function<bool ()>)>*) const
FUNC 1803c 24 0 std::__ndk1::__function::__func<HighTexturesPopup::getExtractTask(std::__ndk1::__fs::filesystem::path, std::__ndk1::__fs::filesystem::path)::$_0, std::__ndk1::allocator<HighTexturesPopup::getExtractTask(std::__ndk1::__fs::filesystem::path, std::__ndk1::__fs::filesystem::path)::$_0>, geode::Task<geode::Result<void, std::__ndk1::basic_string<char, std::__ndk1::char_traits<char>, std::__ndk1::allocator<char> > >, float>::Result(std::__ndk1::function<void (float)>, std::__ndk1::function<bool ()>)>::destroy()
FUNC 18060 28 0 std::__ndk1::__function::__func<HighTexturesPopup::getExtractTask(std::__ndk1::__fs::filesystem::path, std::__ndk1::__fs::filesystem::path)::$_0, std::__ndk1::allocator<HighTexturesPopup::getExtractTask(std::__ndk1::__fs::filesystem::path, std::__ndk1::__fs::filesystem::path)::$_0>, geode::Task<geode::Result<void, std::__ndk1::basic_string<char, std::__ndk1::char_traits<char>, std::__ndk1::allocator<char> > >, float>::Result(std::__ndk1::function<void (float)>, std::__ndk1::function<bool ()>)>::destroy_deallocate()
FUNC 18088 258 0 std::__ndk1::__function::__func<HighTexturesPopup::getExtractTask(std::__ndk1::__fs::filesystem::path, std::__ndk1::__fs::filesystem::path)::$_0, std::__ndk1::allocator<HighTexturesPopup::getExtractTask(std::__ndk1::__fs::filesystem::path, std::__ndk1::__fs::filesystem::path)::$_0>, geode::Task<geode::Result<void, std::__ndk1::basic_string<char, std::__ndk1::char_traits<char>, std::__ndk1::allocator<char> > >, float>::Result(std::__ndk1::function<void (float)>, std::__ndk1::function<bool ()>)>::operator()(std::__ndk1::function<void (float)>&&, std::__ndk1::function<bool ()>&&)
FUNC 182e0 18 0 std::__ndk1::__function::__func<HighTexturesPopup::getExtractTask(std::__ndk1::__fs::filesystem::path, std::__ndk1::__fs::filesystem::path)::$_0, std::__ndk1::allocator<HighTexturesPopup::getExtractTask(std::__ndk1::__fs::filesystem::path, std::__ndk1::__fs::filesystem::path)::$_0>, geode::Task<geode::Result<void, std::__ndk1::basic_string<char, std::__ndk1::char_traits<char>, std::__ndk1::allocator<char> > >, float>::Result(std::__ndk1::function<void (float)>, std::__ndk1::function<bool ()>)>::target(std::type_info const&) const
FUNC 182f8 c 0 std::__ndk1::__function::__func<HighTexturesPopup::getExtractTask(std::__ndk1::__fs::filesystem::path, std::__ndk1::__fs::filesystem::path)::$_0, std::__ndk1::allocator<HighTexturesPopup::getExtractTask(std::__ndk1::__fs::filesystem::path, std::__ndk1::__fs::filesystem::path)::$_0>, geode::Task<geode::Result<void, std::__ndk1::basic_string<char, std::__ndk1::char_traits<char>, std::__ndk1::allocator<char> > >, float>::Result(std::__ndk1::function<void (float)>, std::__ndk1::function<bool ()>)>::target_type() const
FUNC 18304 34 0 std::__ndk1::__function::__func<HighTexturesPopup::getExtractTask(std::__ndk1::__fs::filesystem::path, std::__ndk1::__fs::filesystem::path)::$_0::operator()<std::__ndk1::function<void (float)>, std::__ndk1::function<bool ()> >(std::__ndk1::function<void (float)>, std::__ndk1::function<bool ()>) const::{lambda(auto:1, auto:2)#1}, std::__ndk1::allocator<HighTexturesPopup::getExtractTask(std::__ndk1::__fs::filesystem::path, std::__ndk1::__fs::filesystem::path)::$_0::operator()<std::__ndk1::function<void (float)>, std::__ndk1::function<bool ()> >(std::__ndk1::function<void (float)>, std::__ndk1::function<bool ()>) const::{lambda(auto:1, auto:2)#1}>, void (unsigned int, unsigned int)>::~__func()
FUNC 18338 38 0 std::__ndk1::__function::__func<HighTexturesPopup::getExtractTask(std::__ndk1::__fs::filesystem::path, std::__ndk1::__fs::filesystem::path)::$_0::operator()<std::__ndk1::function<void (float)>, std::__ndk1::function<bool ()> >(std::__ndk1::function<void (float)>, std::__ndk1::function<bool ()>) const::{lambda(auto:1, auto:2)#1}, std::__ndk1::allocator<HighTexturesPopup::getExtractTask(std::__ndk1::__fs::filesystem::path, std::__ndk1::__fs::filesystem::path)::$_0::operator()<std::__ndk1::function<void (float)>, std::__ndk1::function<bool ()> >(std::__ndk1::function<void (float)>, std::__ndk1::function<bool ()>) const::{lambda(auto:1, auto:2)#1}>, void (unsigned int, unsigned int)>::~__func()
FUNC 18370 54 0 std::__ndk1::__function::__func<HighTexturesPopup::getExtractTask(std::__ndk1::__fs::filesystem::path, std::__ndk1::__fs::filesystem::path)::$_0::operator()<std::__ndk1::function<void (float)>, std::__ndk1::function<bool ()> >(std::__ndk1::function<void (float)>, std::__ndk1::function<bool ()>) const::{lambda(auto:1, auto:2)#1}, std::__ndk1::allocator<HighTexturesPopup::getExtractTask(std::__ndk1::__fs::filesystem::path, std::__ndk1::__fs::filesystem::path)::$_0::operator()<std::__ndk1::function<void (float)>, std::__ndk1::function<bool ()> >(std::__ndk1::function<void (float)>, std::__ndk1::function<bool ()>) const::{lambda(auto:1, auto:2)#1}>, void (unsigned int, unsigned int)>::__clone() const
FUNC 183c4 44 0 std::__ndk1::__function::__func<HighTexturesPopup::getExtractTask(std::__ndk1::__fs::filesystem::path, std::__ndk1::__fs::filesystem::path)::$_0::operator()<std::__ndk1::function<void (float)>, std::__ndk1::function<bool ()> >(std::__ndk1::function<void (float)>, std::__ndk1::function<bool ()>) const::{lambda(auto:1, auto:2)#1}, std::__ndk1::allocator<HighTexturesPopup::getExtractTask(std::__ndk1::__fs::filesystem::path, std::__ndk1::__fs::filesystem::path)::$_0::operator()<std::__ndk1::function<void (float)>, std::__ndk1::function<bool ()> >(std::__ndk1::function<void (float)>, std::__ndk1::function<bool ()>) const::{lambda(auto:1, auto:2)#1}>, void (unsigned int, unsigned int)>::__clone(std::__ndk1::__function::__base<void (unsigned int, unsigned int)>*) const
FUNC 18408 1e 0 std::__ndk1::__function::__func<HighTexturesPopup::getExtractTask(std::__ndk1::__fs::filesystem::path, std::__ndk1::__fs::filesystem::path)::$_0::operator()<std::__ndk1::function<void (float)>, std::__ndk1::function<bool ()> >(std::__ndk1::function<void (float)>, std::__ndk1::function<bool ()>) const::{lambda(auto:1, auto:2)#1}, std::__ndk1::allocator<HighTexturesPopup::getExtractTask(std::__ndk1::__fs::filesystem::path, std::__ndk1::__fs::filesystem::path)::$_0::operator()<std::__ndk1::function<void (float)>, std::__ndk1::function<bool ()> >(std::__ndk1::function<void (float)>, std::__ndk1::function<bool ()>) const::{lambda(auto:1, auto:2)#1}>, void (unsigned int, unsigned int)>::destroy()
FUNC 18426 2a 0 std::__ndk1::__function::__func<HighTexturesPopup::getExtractTask(std::__ndk1::__fs::filesystem::path, std::__ndk1::__fs::filesystem::path)::$_0::operator()<std::__ndk1::function<void (float)>, std::__ndk1::function<bool ()> >(std::__ndk1::function<void (float)>, std::__ndk1::function<bool ()>) const::{lambda(auto:1, auto:2)#1}, std::__ndk1::allocator<HighTexturesPopup::getExtractTask(std::__ndk1::__fs::filesystem::path, std::__ndk1::__fs::filesystem::path)::$_0::operator()<std::__ndk1::function<void (float)>, std::__ndk1::function<bool ()> >(std::__ndk1::function<void (float)>, std::__ndk1::function<bool ()>) const::{lambda(auto:1, auto:2)#1}>, void (unsigned int, unsigned int)>::destroy_deallocate()
FUNC 18450 64 0 std::__ndk1::__function::__func<HighTexturesPopup::getExtractTask(std::__ndk1::__fs::filesystem::path, std::__ndk1::__fs::filesystem::path)::$_0::operator()<std::__ndk1::function<void (float)>, std::__ndk1::function<bool ()> >(std::__ndk1::function<void (float)>, std::__ndk1::function<bool ()>) const::{lambda(auto:1, auto:2)#1}, std::__ndk1::allocator<HighTexturesPopup::getExtractTask(std::__ndk1::__fs::filesystem::path, std::__ndk1::__fs::filesystem::path)::$_0::operator()<std::__ndk1::function<void (float)>, std::__ndk1::function<bool ()> >(std::__ndk1::function<void (float)>, std::__ndk1::function<bool ()>) const::{lambda(auto:1, auto:2)#1}>, void (unsigned int, unsigned int)>::operator()(unsigned int&&, unsigned int&&)
FUNC 184b4 18 0 std::__ndk1::__function::__func<HighTexturesPopup::getExtractTask(std::__ndk1::__fs::filesystem::path, std::__ndk1::__fs::filesystem::path)::$_0::operator()<std::__ndk1::function<void (float)>, std::__ndk1::function<bool ()> >(std::__ndk1::function<void (float)>, std::__ndk1::function<bool ()>) const::{lambda(auto:1, auto:2)#1}, std::__ndk1::allocator<HighTexturesPopup::getExtractTask(std::__ndk1::__fs::filesystem::path, std::__ndk1::__fs::filesystem::path)::$_0::operator()<std::__ndk1::function<void (float)>, std::__ndk1::function<bool ()> >(std::__ndk1::function<void (float)>, std::__ndk1::function<bool ()>) const::{lambda(auto:1, auto:2)#1}>, void (unsigned int, unsigned int)>::target(std::type_info const&) const
FUNC 184cc c 0 std::__ndk1::__function::__func<HighTexturesPopup::getExtractTask(std::__ndk1::__fs::filesystem::path, std::__ndk1::__fs::filesystem::path)::$_0::operator()<std::__ndk1::function<void (float)>, std::__ndk1::function<bool ()> >(std::__ndk1::function<void (float)>, std::__ndk1::function<bool ()>) const::{lambda(auto:1, auto:2)#1}, std::__ndk1::allocator<HighTexturesPopup::getExtractTask(std::__ndk1::__fs::filesystem::path, std::__ndk1::__fs::filesystem::path)::$_0::operator()<std::__ndk1::function<void (float)>, std::__ndk1::function<bool ()> >(std::__ndk1::function<void (float)>, std::__ndk1::function<bool ()>) const::{lambda(auto:1, auto:2)#1}>, void (unsigned int, unsigned int)>::target_type() const
FUNC 184d8 d8 0 std::__ndk1::__tree<std::__ndk1::__value_type<std::__ndk1::basic_string<char, std::__ndk1::char_traits<char>, std::__ndk1::allocator<char> >, std::__ndk1::pair<std::__ndk1::basic_string<char, std::__ndk1::char_traits<char>, std::__ndk1::allocator<char> >, std::__ndk1::basic_string<char, std::__ndk1::char_traits<char>, std::__ndk1::allocator<char> > > >, std::__ndk1::__map_value_compare<std::__ndk1::basic_string<char, std::__ndk1::char_traits<char>, std::__ndk1::allocator<char> >, std::__ndk1::__value_type<std::__ndk1::basic_string<char, std::__ndk1::char_traits<char>, std::__ndk1::allocator<char> >, std::__ndk1::pair<std::__ndk1::basic_string<char, std::__ndk1::char_traits<char>, std::__ndk1::allocator<char> >, std::__ndk1::basic_string<char, std::__ndk1::char_traits<char>, std::__ndk1::allocator<char> > > >, std::__ndk1::less<std::__ndk1::basic_string<char, std::__ndk1::char_traits<char>, std::__ndk1::allocator<char> > >, true>, std::__ndk1::allocator<std::__ndk1::__value_type<std::__ndk1::basic_string<char, std::__ndk1::char_traits<char>, std::__ndk1::allocator<char> >, std::__ndk1::pair<std::__ndk1::basic_string<char, std::__ndk1::char_traits<char>, std::__ndk1::allocator<char> >, std::__ndk1::basic_string<char, std::__ndk1::char_traits<char>, std::__ndk1::allocator<char> > > > > >::__emplace_unique_key_args<std::__ndk1::basic_string<char, std::__ndk1::char_traits<char>, std::__ndk1::allocator<char> >, std::__ndk1::piecewise_construct_t const&, std::__ndk1::tuple<std::__ndk1::basic_string<char, std::__ndk1::char_traits<char>, std::__ndk1::allocator<char> > const&>, std::__ndk1::tuple<> >(std::__ndk1::basic_string<char, std::__ndk1::char_traits<char>, std::__ndk1::allocator<char> > const&, std::__ndk1::piecewise_construct_t const&, std::__ndk1::tuple<std::__ndk1::basic_string<char, std::__ndk1::char_traits<char>, std::__ndk1::allocator<char> > const&>, std::__ndk1::tuple<>)
FUNC 185b0 2c 0 std::__ndk1::__function::__func<HighTexturesPopup::startDownload()::$_0, std::__ndk1::allocator<HighTexturesPopup::startDownload()::$_0>, void (geode::Task<geode::utils::web::WebResponse, geode::utils::web::WebProgress>::Event*)>::~__func()
FUNC 185dc 30 0 std::__ndk1::__function::__func<HighTexturesPopup::startDownload()::$_0, std::__ndk1::allocator<HighTexturesPopup::startDownload()::$_0>, void (geode::Task<geode::utils::web::WebResponse, geode::utils::web::WebProgress>::Event*)>::~__func()
FUNC 1860c 58 0 std::__ndk1::__function::__func<HighTexturesPopup::startDownload()::$_0, std::__ndk1::allocator<HighTexturesPopup::startDownload()::$_0>, void (geode::Task<geode::utils::web::WebResponse, geode::utils::web::WebProgress>::Event*)>::__clone() const
FUNC 18664 44 0 std::__ndk1::__function::__func<HighTexturesPopup::startDownload()::$_0, std::__ndk1::allocator<HighTexturesPopup::startDownload()::$_0>, void (geode::Task<geode::utils::web::WebResponse, geode::utils::web::WebProgress>::Event*)>::__clone(std::__ndk1::__function::__base<void (geode::Task<geode::utils::web::WebResponse, geode::utils::web::WebProgress>::Event*)>*) const
FUNC 186a8 e 0 std::__ndk1::__function::__func<HighTexturesPopup::startDownload()::$_0, std::__ndk1::allocator<HighTexturesPopup::startDownload()::$_0>, void (geode::Task<geode::utils::web::WebResponse, geode::utils::web::WebProgress>::Event*)>::destroy()
FUNC 186b6 22 0 std::__ndk1::__function::__func<HighTexturesPopup::startDownload()::$_0, std::__ndk1::allocator<HighTexturesPopup::startDownload()::$_0>, void (geode::Task<geode::utils::web::WebResponse, geode::utils::web::WebProgress>::Event*)>::destroy_deallocate()
FUNC 186d8 568 0 std::__ndk1::__function::__func<HighTexturesPopup::startDownload()::$_0, std::__ndk1::allocator<HighTexturesPopup::startDownload()::$_0>, void (geode::Task<geode::utils::web::WebResponse, geode::utils::web::WebProgress>::Event*)>::operator()(geode::Task<geode::utils::web::WebResponse, geode::utils::web::WebProgress>::Event*&&)
FUNC 18c40 18 0 std::__ndk1::__function::__func<HighTexturesPopup::startDownload()::$_0, std::__ndk1::allocator<HighTexturesPopup::startDownload()::$_0>, void (geode::Task<geode::utils::web::WebResponse, geode::utils::web::WebProgress>::Event*)>::target(std::type_info const&) const
FUNC 18c58 c 0 std::__ndk1::__function::__func<HighTexturesPopup::startDownload()::$_0, std::__ndk1::allocator<HighTexturesPopup::startDownload()::$_0>, void (geode::Task<geode::utils::web::WebResponse, geode::utils::web::WebProgress>::Event*)>::target_type() const
FUNC 18c64 2c 0 std::__ndk1::__function::__func<HighTexturesPopup::startExtract(std::__ndk1::__fs::filesystem::path, std::__ndk1::__fs::filesystem::path)::$_0, std::__ndk1::allocator<HighTexturesPopup::startExtract(std::__ndk1::__fs::filesystem::path, std::__ndk1::__fs::filesystem::path)::$_0>, void (geode::Task<geode::Result<void, std::__ndk1::basic_string<char, std::__ndk1::char_traits<char>, std::__ndk1::allocator<char> > >, float>::Event*)>::~__func()
FUNC 18c90 30 0 std::__ndk1::__function::__func<HighTexturesPopup::startExtract(std::__ndk1::__fs::filesystem::path, std::__ndk1::__fs::filesystem::path)::$_0, std::__ndk1::allocator<HighTexturesPopup::startExtract(std::__ndk1::__fs::filesystem::path, std::__ndk1::__fs::filesystem::path)::$_0>, void (geode::Task<geode::Result<void, std::__ndk1::basic_string<char, std::__ndk1::char_traits<char>, std::__ndk1::allocator<char> > >, float>::Event*)>::~__func()
FUNC 18cc0 54 0 std::__ndk1::__function::__func<HighTexturesPopup::startExtract(std::__ndk1::__fs::filesystem::path, std::__ndk1::__fs::filesystem::path)::$_0, std::__ndk1::allocator<HighTexturesPopup::startExtract(std::__ndk1::__fs::filesystem::path, std::__ndk1::__fs::filesystem::path)::$_0>, void (geode::Task<geode::Result<void, std::__ndk1::basic_string<char, std::__ndk1::char_traits<char>, std::__ndk1::allocator<char> > >, float>::Event*)>::__clone() const
FUNC 18d14 40 0 std::__ndk1::__function::__func<HighTexturesPopup::startExtract(std::__ndk1::__fs::filesystem::path, std::__ndk1::__fs::filesystem::path)::$_0, std::__ndk1::allocator<HighTexturesPopup::startExtract(std::__ndk1::__fs::filesystem::path, std::__ndk1::__fs::filesystem::path)::$_0>, void (geode::Task<geode::Result<void, std::__ndk1::basic_string<char, std::__ndk1::char_traits<char>, std::__ndk1::allocator<char> > >, float>::Event*)>::__clone(std::__ndk1::__function::__base<void (geode::Task<geode::Result<void, std::__ndk1::basic_string<char, std::__ndk1::char_traits<char>, std::__ndk1::allocator<char> > >, float>::Event*)>*) const
FUNC 18d54 e 0 std::__ndk1::__function::__func<HighTexturesPopup::startExtract(std::__ndk1::__fs::filesystem::path, std::__ndk1::__fs::filesystem::path)::$_0, std::__ndk1::allocator<HighTexturesPopup::startExtract(std::__ndk1::__fs::filesystem::path, std::__ndk1::__fs::filesystem::path)::$_0>, void (geode::Task<geode::Result<void, std::__ndk1::basic_string<char, std::__ndk1::char_traits<char>, std::__ndk1::allocator<char> > >, float>::Event*)>::destroy()
FUNC 18d62 22 0 std::__ndk1::__function::__func<HighTexturesPopup::startExtract(std::__ndk1::__fs::filesystem::path, std::__ndk1::__fs::filesystem::path)::$_0, std::__ndk1::allocator<HighTexturesPopup::startExtract(std::__ndk1::__fs::filesystem::path, std::__ndk1::__fs::filesystem::path)::$_0>, void (geode::Task<geode::Result<void, std::__ndk1::basic_string<char, std::__ndk1::char_traits<char>, std::__ndk1::allocator<char> > >, float>::Event*)>::destroy_deallocate()
FUNC 18d84 2f8 0 std::__ndk1::__function::__func<HighTexturesPopup::startExtract(std::__ndk1::__fs::filesystem::path, std::__ndk1::__fs::filesystem::path)::$_0, std::__ndk1::allocator<HighTexturesPopup::startExtract(std::__ndk1::__fs::filesystem::path, std::__ndk1::__fs::filesystem::path)::$_0>, void (geode::Task<geode::Result<void, std::__ndk1::basic_string<char, std::__ndk1::char_traits<char>, std::__ndk1::allocator<char> > >, float>::Event*)>::operator()(geode::Task<geode::Result<void, std::__ndk1::basic_string<char, std::__ndk1::char_traits<char>, std::__ndk1::allocator<char> > >, float>::Event*&&)
FUNC 1907c 18 0 std::__ndk1::__function::__func<HighTexturesPopup::startExtract(std::__ndk1::__fs::filesystem::path, std::__ndk1::__fs::filesystem::path)::$_0, std::__ndk1::allocator<HighTexturesPopup::startExtract(std::__ndk1::__fs::filesystem::path, std::__ndk1::__fs::filesystem::path)::$_0>, void (geode::Task<geode::Result<void, std::__ndk1::basic_string<char, std::__ndk1::char_traits<char>, std::__ndk1::allocator<char> > >, float>::Event*)>::target(std::type_info const&) const
FUNC 19094 c 0 std::__ndk1::__function::__func<HighTexturesPopup::startExtract(std::__ndk1::__fs::filesystem::path, std::__ndk1::__fs::filesystem::path)::$_0, std::__ndk1::allocator<HighTexturesPopup::startExtract(std::__ndk1::__fs::filesystem::path, std::__ndk1::__fs::filesystem::path)::$_0>, void (geode::Task<geode::Result<void, std::__ndk1::basic_string<char, std::__ndk1::char_traits<char>, std::__ndk1::allocator<char> > >, float>::Event*)>::target_type() const
FUNC 190a0 44 0 geode::Popup<bool>::CloseEvent::~CloseEvent()
FUNC 190e4 40 0 geode::Popup<bool>::CloseEvent::~CloseEvent()
FUNC 19124 10 0 std::__ndk1::__shared_ptr_emplace<geode::Popup<bool>::CloseEvent::Impl, std::__ndk1::allocator<geode::Popup<bool>::CloseEvent::Impl> >::~__shared_ptr_emplace()
FUNC 19134 1c 0 std::__ndk1::__shared_ptr_emplace<geode::Popup<bool>::CloseEvent::Impl, std::__ndk1::allocator<geode::Popup<bool>::CloseEvent::Impl> >::~__shared_ptr_emplace()
FUNC 19150 2 0 std::__ndk1::__shared_ptr_emplace<geode::Popup<bool>::CloseEvent::Impl, std::__ndk1::allocator<geode::Popup<bool>::CloseEvent::Impl> >::__on_zero_shared()
FUNC 19152 4 0 std::__ndk1::__shared_ptr_emplace<geode::Popup<bool>::CloseEvent::Impl, std::__ndk1::allocator<geode::Popup<bool>::CloseEvent::Impl> >::__on_zero_shared_weak()
FUNC 19158 2d0 0 __cxx_global_var_init
FUNC 19428 20 0 geode::modifier::ModifyBase<geode::modifier::ModifyDerive<hook5<(anonymous namespace)::hook5Parent>, cocos2d::CCDirector> >::~ModifyBase()
FUNC 19450 330 0 geode::modifier::ModifyDerive<hook5<(anonymous namespace)::hook5Parent>, cocos2d::CCDirector>::apply()
FUNC 19780 3a 0 std::__ndk1::shared_ptr<geode::Hook>::~shared_ptr[abi:ne180000]()
FUNC 197bc 60 0 geode::impl::ResultData<geode::Hook*, std::__ndk1::basic_string<char, std::__ndk1::char_traits<char>, std::__ndk1::allocator<char> > >::~ResultData()
FUNC 1981c 3e 0 std::__ndk1::vector<std::__ndk1::basic_string<char, std::__ndk1::char_traits<char>, std::__ndk1::allocator<char> >, std::__ndk1::allocator<std::__ndk1::basic_string<char, std::__ndk1::char_traits<char>, std::__ndk1::allocator<char> > > >::~vector[abi:ne180000]()
FUNC 1985a 2 0 geode::modifier::ModifyBase<geode::modifier::ModifyDerive<hook5<(anonymous namespace)::hook5Parent>, cocos2d::CCDirector> >::apply()
FUNC 1985c f8 0 _ZN5geode15UnwrapExceptionC2IRPNS_4HookEQsr4implE18IsStringStreamableIT_EEENS_4impl5OkTagEOS5_
FUNC 19954 d8 0 std::__ndk1::basic_stringstream<char, std::__ndk1::char_traits<char>, std::__ndk1::allocator<char> >::basic_stringstream[abi:ne180000]()
FUNC 19a2c 68 0 std::__ndk1::basic_stringstream<char, std::__ndk1::char_traits<char>, std::__ndk1::allocator<char> >::~basic_stringstream()
FUNC 19a94 10 0 geode::UnwrapException::~UnwrapException()
FUNC 19aa4 108 0 std::__ndk1::__put_character_sequence[abi:ne180000]<char, std::__ndk1::char_traits<char> >(std::__ndk1::basic_ostream<char, std::__ndk1::char_traits<char> >, std::__ndk1::basic_ostream const*, unsigned int)
FUNC 19bac 110 0 std::__ndk1::__pad_and_output[abi:ne180000]<char, std::__ndk1::char_traits<char> >(std::__ndk1::char_traits<char>, std::__ndk1::ostreambuf_iterator const*, std::__ndk1::ostreambuf_iterator const, std::__ndk1::ostreambuf_iterator const, std::__ndk1::ios_base&, std::__ndk1::ostreambuf_iterator)
FUNC 19cbc 28 0 std::__throw_bad_array_new_length([abi:ne180000], void)
FUNC 19ce4 ce 0 std::__ndk1::basic_stringbuf<char, std::__ndk1::char_traits<char>, std::__ndk1::allocator<char> >::str[abi:ne180000]() &&
FUNC 19db2 e0 0 std::__ndk1::basic_stringbuf<char, std::__ndk1::char_traits<char>, std::__ndk1::allocator<char> >::__init_buf_ptrs[abi:ne180000]()
FUNC 19e94 164 0 std::__ndk1::vector<std::__ndk1::basic_string<char, std::__ndk1::char_traits<char>, std::__ndk1::allocator<char> >, std::__ndk1::allocator<std::__ndk1::basic_string<char, std::__ndk1::char_traits<char>, std::__ndk1::allocator<char> > > >::__push_back_slow_path<std::__ndk1::basic_string<char, std::__ndk1::char_traits<char>, std::__ndk1::allocator<char> > const&>(std::__ndk1::basic_string<char, std::__ndk1::char_traits<char>, std::__ndk1::allocator<char> > const&)
FUNC 19ff8 3c 0 std::__ndk1::__split_buffer<std::__ndk1::basic_string<char, std::__ndk1::char_traits<char>, std::__ndk1::allocator<char> >, std::__ndk1::allocator<std::__ndk1::basic_string<char, std::__ndk1::char_traits<char>, std::__ndk1::allocator<char> > >&>::~__split_buffer()
FUNC 1a034 10 0 std::__ndk1::vector<std::__ndk1::basic_string<char, std::__ndk1::char_traits<char>, std::__ndk1::allocator<char> >, std::__ndk1::allocator<std::__ndk1::basic_string<char, std::__ndk1::char_traits<char>, std::__ndk1::allocator<char> > > >::__throw_length_error[abi:ne180000]() const
FUNC 1a044 2 0 std::__ndk1::__variant_detail::__visitation::__base::__dispatcher<(unsigned int)0>::__dispatch[abi:ne180000]<std::__ndk1::__variant_detail::__dtor<std::__ndk1::__variant_detail::__traits<geode::Hook*, std::__ndk1::basic_string<char, std::__ndk1::char_traits<char>, std::__ndk1::allocator<char> > >, (std::__ndk1::__variant_detail::_Trait)1>::__destroy[abi:ne180000]()::{lambda(auto:1&)#1}, std::__ndk1::__variant_detail::__base<(std::__ndk1::__variant_detail::__traits<geode::Hook*, std::__ndk1::basic_string<char, std::__ndk1::char_traits<char>, std::__ndk1::allocator<char> > >)1, geode::Hook, std::__ndk1::allocator<char> >&>(std::__ndk1::__variant_detail::__dtor<std::__ndk1::__variant_detail::__traits<geode::Hook*, std::__ndk1::basic_string<char, std::__ndk1::char_traits<char>, std::__ndk1::allocator<char> > >, (std::__ndk1::__variant_detail::_Trait)1>, std::__ndk1::__variant_detail::__base<(std::__ndk1::__variant_detail::__traits<geode::Hook*, std::__ndk1::basic_string<char, std::__ndk1::char_traits<char>, std::__ndk1::allocator<char> > >)1, geode::Hook, std::__ndk1::allocator<char> >&)
FUNC 1a046 e 0 std::__ndk1::__variant_detail::__visitation::__base::__dispatcher<(unsigned int)1>::__dispatch[abi:ne180000]<std::__ndk1::__variant_detail::__dtor<std::__ndk1::__variant_detail::__traits<geode::Hook*, std::__ndk1::basic_string<char, std::__ndk1::char_traits<char>, std::__ndk1::allocator<char> > >, (std::__ndk1::__variant_detail::_Trait)1>::__destroy[abi:ne180000]()::{lambda(auto:1&)#1}, std::__ndk1::__variant_detail::__base<(std::__ndk1::__variant_detail::__traits<geode::Hook*, std::__ndk1::basic_string<char, std::__ndk1::char_traits<char>, std::__ndk1::allocator<char> > >)1, geode::Hook, std::__ndk1::allocator<char> >&>(std::__ndk1::__variant_detail::__dtor<std::__ndk1::__variant_detail::__traits<geode::Hook*, std::__ndk1::basic_string<char, std::__ndk1::char_traits<char>, std::__ndk1::allocator<char> > >, (std::__ndk1::__variant_detail::_Trait)1>, std::__ndk1::__variant_detail::__base<(std::__ndk1::__variant_detail::__traits<geode::Hook*, std::__ndk1::basic_string<char, std::__ndk1::char_traits<char>, std::__ndk1::allocator<char> > >)1, geode::Hook, std::__ndk1::allocator<char> >&)
FUNC 1a054 c0 0 std::__ndk1::__tree<std::__ndk1::__value_type<std::__ndk1::basic_string<char, std::__ndk1::char_traits<char>, std::__ndk1::allocator<char> >, std::__ndk1::shared_ptr<geode::Hook> >, std::__ndk1::__map_value_compare<std::__ndk1::basic_string<char, std::__ndk1::char_traits<char>, std::__ndk1::allocator<char> >, std::__ndk1::__value_type<std::__ndk1::basic_string<char, std::__ndk1::char_traits<char>, std::__ndk1::allocator<char> >, std::__ndk1::shared_ptr<geode::Hook> >, std::__ndk1::less<std::__ndk1::basic_string<char, std::__ndk1::char_traits<char>, std::__ndk1::allocator<char> > >, true>, std::__ndk1::allocator<std::__ndk1::__value_type<std::__ndk1::basic_string<char, std::__ndk1::char_traits<char>, std::__ndk1::allocator<char> >, std::__ndk1::shared_ptr<geode::Hook> > > >::find<std::__ndk1::basic_string<char, std::__ndk1::char_traits<char>, std::__ndk1::allocator<char> > >(std::__ndk1::basic_string<char, std::__ndk1::char_traits<char>, std::__ndk1::allocator<char> > const&)
FUNC 1a114 82 0 std::__ndk1::__tree<std::__ndk1::__value_type<std::__ndk1::basic_string<char, std::__ndk1::char_traits<char>, std::__ndk1::allocator<char> >, std::__ndk1::shared_ptr<geode::Hook> >, std::__ndk1::__map_value_compare<std::__ndk1::basic_string<char, std::__ndk1::char_traits<char>, std::__ndk1::allocator<char> >, std::__ndk1::__value_type<std::__ndk1::basic_string<char, std::__ndk1::char_traits<char>, std::__ndk1::allocator<char> >, std::__ndk1::shared_ptr<geode::Hook> >, std::__ndk1::less<std::__ndk1::basic_string<char, std::__ndk1::char_traits<char>, std::__ndk1::allocator<char> > >, true>, std::__ndk1::allocator<std::__ndk1::__value_type<std::__ndk1::basic_string<char, std::__ndk1::char_traits<char>, std::__ndk1::allocator<char> >, std::__ndk1::shared_ptr<geode::Hook> > > >::erase(std::__ndk1::__tree_const_iterator<std::__ndk1::__value_type<std::__ndk1::basic_string<char, std::__ndk1::char_traits<char>, std::__ndk1::allocator<char> >, std::__ndk1::shared_ptr<geode::Hook> >, std::__ndk1::__tree_node<std::__ndk1::__value_type<std::__ndk1::basic_string<char, std::__ndk1::char_traits<char>, std::__ndk1::allocator<char> >, std::__ndk1::shared_ptr<geode::Hook> >, void*>*, int>)
FUNC 1a196 274 0 std::__ndk1::__tree_remove[abi:ne180000]<std::__ndk1::__tree_node_base<void*>*>(std::__ndk1::__tree_node_base<void*>*, std::__ndk1::__tree_node_base<void*>*)
FUNC 1a40a 5e 0 std::__ndk1::__tree<std::__ndk1::__value_type<std::__ndk1::basic_string<char, std::__ndk1::char_traits<char>, std::__ndk1::allocator<char> >, std::__ndk1::shared_ptr<geode::Hook> >, std::__ndk1::__map_value_compare<std::__ndk1::basic_string<char, std::__ndk1::char_traits<char>, std::__ndk1::allocator<char> >, std::__ndk1::__value_type<std::__ndk1::basic_string<char, std::__ndk1::char_traits<char>, std::__ndk1::allocator<char> >, std::__ndk1::shared_ptr<geode::Hook> >, std::__ndk1::less<std::__ndk1::basic_string<char, std::__ndk1::char_traits<char>, std::__ndk1::allocator<char> > >, true>, std::__ndk1::allocator<std::__ndk1::__value_type<std::__ndk1::basic_string<char, std::__ndk1::char_traits<char>, std::__ndk1::allocator<char> >, std::__ndk1::shared_ptr<geode::Hook> > > >::destroy(std::__ndk1::__tree_node<std::__ndk1::__value_type<std::__ndk1::basic_string<char, std::__ndk1::char_traits<char>, std::__ndk1::allocator<char> >, std::__ndk1::shared_ptr<geode::Hook> >, void*>*)
FUNC 1a468 20 0 geode::modifier::AsStaticFunction_updateContentScale<hook5<(anonymous namespace)::hook5Parent>, void (hook5<(anonymous namespace)::hook5Parent>::*)(cocos2d::TextureQuality)>::Impl<void (hook5<(anonymous namespace)::hook5Parent>::*)(cocos2d::TextureQuality)>::function(hook5<(anonymous namespace)::hook5Parent>*, cocos2d::TextureQuality)
FUNC 1a488 3a 0 std::__ndk1::shared_ptr<tulip::hook::CallingConvention>::~shared_ptr[abi:ne180000]()
FUNC 1a4c2 46 0 tulip::hook::HandlerMetadata::~HandlerMetadata()
FUNC 1a508 ba 0 std::__ndk1::__tree<std::__ndk1::__value_type<std::__ndk1::basic_string<char, std::__ndk1::char_traits<char>, std::__ndk1::allocator<char> >, std::__ndk1::shared_ptr<geode::Hook> >, std::__ndk1::__map_value_compare<std::__ndk1::basic_string<char, std::__ndk1::char_traits<char>, std::__ndk1::allocator<char> >, std::__ndk1::__value_type<std::__ndk1::basic_string<char, std::__ndk1::char_traits<char>, std::__ndk1::allocator<char> >, std::__ndk1::shared_ptr<geode::Hook> >, std::__ndk1::less<std::__ndk1::basic_string<char, std::__ndk1::char_traits<char>, std::__ndk1::allocator<char> > >, true>, std::__ndk1::allocator<std::__ndk1::__value_type<std::__ndk1::basic_string<char, std::__ndk1::char_traits<char>, std::__ndk1::allocator<char> >, std::__ndk1::shared_ptr<geode::Hook> > > >::__find_equal<std::__ndk1::basic_string<char, std::__ndk1::char_traits<char>, std::__ndk1::allocator<char> > >(std::__ndk1::__tree_end_node<std::__ndk1::__tree_node_base<void*>*>*&, std::__ndk1::basic_string<char, std::__ndk1::char_traits<char>, std::__ndk1::allocator<char> > const&)
FUNC 1a5c4 2d0 0 __cxx_global_var_init.3
FUNC 1a894 20 0 geode::modifier::ModifyBase<geode::modifier::ModifyDerive<hook7<(anonymous namespace)::hook7Parent>, LoadingLayer> >::~ModifyBase()
FUNC 1a8c0 310 0 geode::modifier::ModifyDerive<hook7<(anonymous namespace)::hook7Parent>, LoadingLayer>::apply()
FUNC 1abd0 2 0 geode::modifier::ModifyBase<geode::modifier::ModifyDerive<hook7<(anonymous namespace)::hook7Parent>, LoadingLayer> >::apply()
FUNC 1abd4 280 0 geode::modifier::AsStaticFunction_init<hook7<(anonymous namespace)::hook7Parent>, bool (hook7<(anonymous namespace)::hook7Parent>::*)(bool)>::Impl<bool (hook7<(anonymous namespace)::hook7Parent>::*)(bool)>::function(hook7<(anonymous namespace)::hook7Parent>*, bool)
FUNC 1ae54 c4 0 std::__ndk1::__tree<std::__ndk1::__value_type<std::__ndk1::basic_string<char, std::__ndk1::char_traits<char>, std::__ndk1::allocator<char> >, int>, std::__ndk1::__map_value_compare<std::__ndk1::basic_string<char, std::__ndk1::char_traits<char>, std::__ndk1::allocator<char> >, std::__ndk1::__value_type<std::__ndk1::basic_string<char, std::__ndk1::char_traits<char>, std::__ndk1::allocator<char> >, int>, std::__ndk1::less<std::__ndk1::basic_string<char, std::__ndk1::char_traits<char>, std::__ndk1::allocator<char> > >, true>, std::__ndk1::allocator<std::__ndk1::__value_type<std::__ndk1::basic_string<char, std::__ndk1::char_traits<char>, std::__ndk1::allocator<char> >, int> > >::__emplace_unique_key_args<std::__ndk1::basic_string<char, std::__ndk1::char_traits<char>, std::__ndk1::allocator<char> >, std::__ndk1::piecewise_construct_t const&, std::__ndk1::tuple<std::__ndk1::basic_string<char, std::__ndk1::char_traits<char>, std::__ndk1::allocator<char> > const&>, std::__ndk1::tuple<> >(std::__ndk1::basic_string<char, std::__ndk1::char_traits<char>, std::__ndk1::allocator<char> > const&, std::__ndk1::piecewise_construct_t const&, std::__ndk1::tuple<std::__ndk1::basic_string<char, std::__ndk1::char_traits<char>, std::__ndk1::allocator<char> > const&>, std::__ndk1::tuple<>)
FUNC 1af18 2d0 0 __cxx_global_var_init.3
FUNC 1b1e8 20 0 geode::modifier::ModifyBase<geode::modifier::ModifyDerive<hook10<(anonymous namespace)::hook10Parent>, MenuLayer> >::~ModifyBase()
FUNC 1b208 2c4 0 geode::modifier::ModifyDerive<hook10<(anonymous namespace)::hook10Parent>, MenuLayer>::apply()
FUNC 1b4cc 2 0 geode::modifier::ModifyBase<geode::modifier::ModifyDerive<hook10<(anonymous namespace)::hook10Parent>, MenuLayer> >::apply()
FUNC 1b4d0 5ec 0 geode::modifier::AsStaticFunction_scene<hook10<(anonymous namespace)::hook10Parent>, cocos2d::CCScene* (*)(bool)>::Impl<cocos2d::CCScene* (*)(bool)>::function(bool)
FUNC 1babc 2f4 0 __cxx_global_var_init
FUNC 1bdb0 20 0 geode::modifier::ModifyBase<geode::modifier::ModifyDerive<AltOptionsLayer, OptionsLayer> >::~ModifyBase()
FUNC 1bdd0 588 0 geode::modifier::ModifyDerive<AltOptionsLayer, OptionsLayer>::apply()
FUNC 1c358 2 0 geode::modifier::ModifyBase<geode::modifier::ModifyDerive<AltOptionsLayer, OptionsLayer> >::apply()
FUNC 1c35c 7c 0 geode::addresser::getVirtual<void (OptionsLayer::*)()>(void (OptionsLayer::*)())
FUNC 1c3d8 19c 0 geode::modifier::AsStaticFunction_customSetup<AltOptionsLayer, void (AltOptionsLayer::*)()>::Impl<void (AltOptionsLayer::*)()>::function(AltOptionsLayer*)
FUNC 1c574 14 0 geode::modifier::AsStaticFunction_onVideo<AltOptionsLayer, void (AltOptionsLayer::*)(cocos2d::CCObject*)>::Impl<void (AltOptionsLayer::*)(cocos2d::CCObject*)>::function(AltOptionsLayer*, cocos2d::CCObject*)
FUNC 1c588 80 0 OptionsLayer::OptionsLayer(geode::ZeroConstructorType)
FUNC 1c608 14 0 AltOptionsLayer::onVideo(cocos2d::CCObject*)
FUNC 1c61c 20 0 geodeImplicitEntry
FUNC 1c63c 28 0 std::__ndk1::unordered_map<void*, bool, std::__ndk1::hash<void*>, std::__ndk1::equal_to<void*>, std::__ndk1::allocator<std::__ndk1::pair<void* const, bool> > >::~unordered_map[abi:ne180000]()
FUNC 1c664 cc 0 wrapFunction(unsigned int, tulip::hook::WrapperMetadata const&)
FUNC 1c730 48 0 geode::impl::ResultData<void*, std::__ndk1::basic_string<char, std::__ndk1::char_traits<char>, std::__ndk1::allocator<char> > >::unwrapErr() &
FUNC 1c778 60 0 geode::impl::ResultData<void*, std::__ndk1::basic_string<char, std::__ndk1::char_traits<char>, std::__ndk1::allocator<char> > >::~ResultData()
FUNC 1c7d8 46 0 tulip::hook::WrapperMetadata::~WrapperMetadata()
FUNC 1c81e 10 0 cocos2d::CCObject::~CCObject()
FUNC 1c82e 10 0 cocos2d::CCNode::~CCNode()
FUNC 1c83e 8 0 {virtual override thunk({offset(-264)}, cocos2d::CCLayer::~CCLayer())}
FUNC 1c846 10 0 cocos2d::CCLayer::~CCLayer()
FUNC 1c856 14 0 {virtual override thunk({offset(-264)}, cocos2d::CCLayer::~CCLayer())}
FUNC 1c86c 258 0 cocos2d::CCLayerRGBA::~CCLayerRGBA()
FUNC 1cac4 8 0 {virtual override thunk({offset(-264)}, cocos2d::CCLayerRGBA::~CCLayerRGBA())}
FUNC 1cacc 10 0 cocos2d::CCLayerRGBA::~CCLayerRGBA()
FUNC 1cadc 14 0 {virtual override thunk({offset(-264)}, cocos2d::CCLayerRGBA::~CCLayerRGBA())}
FUNC 1caf0 1e4 0 cocos2d::CCLayerColor::CCLayerColor()
FUNC 1ccd4 8 0 {virtual override thunk({offset(-264)}, cocos2d::CCLayerColor::~CCLayerColor())}
FUNC 1ccdc 10 0 cocos2d::CCLayerColor::~CCLayerColor()
FUNC 1ccec 14 0 {virtual override thunk({offset(-264)}, cocos2d::CCLayerColor::~CCLayerColor())}
FUNC 1cd00 8 0 {virtual override thunk({offset(-264)}, FLAlertLayer::~FLAlertLayer())}
FUNC 1cd08 10 0 FLAlertLayer::~FLAlertLayer()
FUNC 1cd18 14 0 {virtual override thunk({offset(-264)}, FLAlertLayer::~FLAlertLayer())}
FUNC 1cd2c 11c 0 FLAlertLayer::create(FLAlertLayerProtocol*, char const*, gd::string, char const*, char const*, float)
FUNC 1ce50 100 0 tulip::hook::AbstractFunction::from<FLAlertLayer*, FLAlertLayerProtocol*, char const*, gd::string, char const*, char const*, float>(FLAlertLayer* (*)(FLAlertLayerProtocol*, char const*, gd::string, char const*, char const*, float))
FUNC 1cf50 2 0 cocos2d::CCObject::update(float)
FUNC 1cf54 280 0 cocos2d::CCLayerColor::~CCLayerColor()
FUNC 1d1d4 280 0 FLAlertLayer::~FLAlertLayer()
FUNC 1d454 214 0 cocos2d::CCNode::~CCNode()
FUNC 1d668 25c 0 cocos2d::CCLayer::~CCLayer()
FUNC 1d8c4 410 0 cocos2d::CCObject::~CCObject()
FUNC 1dcd4 f8 0 _ZN5geode15UnwrapExceptionC2IRPvQsr4implE18IsStringStreamableIT_EEENS_4impl5OkTagEOS4_
FUNC 1ddcc 104 0 _ZN5geode15UnwrapExceptionC2IRNSt6__ndk112basic_stringIcNS2_11char_traitsIcEENS2_9allocatorIcEEEEQsr4implE18IsStringStreamableIT_EEENS_4impl6ErrTagEOSA_
FUNC 1ded0 2 0 std::__ndk1::__variant_detail::__visitation::__base::__dispatcher<(unsigned int)0>::__dispatch[abi:ne180000]<std::__ndk1::__variant_detail::__dtor<std::__ndk1::__variant_detail::__traits<void*, std::__ndk1::basic_string<char, std::__ndk1::char_traits<char>, std::__ndk1::allocator<char> > >, (std::__ndk1::__variant_detail::_Trait)1>::__destroy[abi:ne180000]()::{lambda(auto:1&)#1}, std::__ndk1::__variant_detail::__base<(std::__ndk1::__variant_detail::__traits<void*, std::__ndk1::basic_string<char, std::__ndk1::char_traits<char>, std::__ndk1::allocator<char> > >)1, std::__ndk1::__variant_detail::__traits, std::__ndk1::allocator<char> >&>(std::__ndk1::__variant_detail::__dtor<std::__ndk1::__variant_detail::__traits<void*, std::__ndk1::basic_string<char, std::__ndk1::char_traits<char>, std::__ndk1::allocator<char> > >, (std::__ndk1::__variant_detail::_Trait)1>, std::__ndk1::__variant_detail::__base<(std::__ndk1::__variant_detail::__traits<void*, std::__ndk1::basic_string<char, std::__ndk1::char_traits<char>, std::__ndk1::allocator<char> > >)1, std::__ndk1::__variant_detail::__traits, std::__ndk1::allocator<char> >&)
FUNC 1ded2 e 0 std::__ndk1::__variant_detail::__visitation::__base::__dispatcher<(unsigned int)1>::__dispatch[abi:ne180000]<std::__ndk1::__variant_detail::__dtor<std::__ndk1::__variant_detail::__traits<void*, std::__ndk1::basic_string<char, std::__ndk1::char_traits<char>, std::__ndk1::allocator<char> > >, (std::__ndk1::__variant_detail::_Trait)1>::__destroy[abi:ne180000]()::{lambda(auto:1&)#1}, std::__ndk1::__variant_detail::__base<(std::__ndk1::__variant_detail::__traits<void*, std::__ndk1::basic_string<char, std::__ndk1::char_traits<char>, std::__ndk1::allocator<char> > >)1, std::__ndk1::__variant_detail::__traits, std::__ndk1::allocator<char> >&>(std::__ndk1::__variant_detail::__dtor<std::__ndk1::__variant_detail::__traits<void*, std::__ndk1::basic_string<char, std::__ndk1::char_traits<char>, std::__ndk1::allocator<char> > >, (std::__ndk1::__variant_detail::_Trait)1>, std::__ndk1::__variant_detail::__base<(std::__ndk1::__variant_detail::__traits<void*, std::__ndk1::basic_string<char, std::__ndk1::char_traits<char>, std::__ndk1::allocator<char> > >)1, std::__ndk1::__variant_detail::__traits, std::__ndk1::allocator<char> >&)
FUNC 1dee0 3f2 0 std::__ndk1::__hash_table<std::__ndk1::__hash_value_type<void*, bool>, std::__ndk1::__unordered_map_hasher<void*, std::__ndk1::__hash_value_type<void*, bool>, std::__ndk1::hash<void*>, std::__ndk1::equal_to<void*>, true>, std::__ndk1::__unordered_map_equal<void*, std::__ndk1::__hash_value_type<void*, bool>, std::__ndk1::equal_to<void*>, std::__ndk1::hash<void*>, true>, std::__ndk1::allocator<std::__ndk1::__hash_value_type<void*, bool> > >::__emplace_unique_key_args<void*, std::__ndk1::piecewise_construct_t const&, std::__ndk1::tuple<void* const&>, std::__ndk1::tuple<> >(void* const&, std::__ndk1::piecewise_construct_t const&, std::__ndk1::tuple<void* const&>, std::__ndk1::tuple<>)
FUNC 1e2d4 1cc 0 fmt::v11::detail::write_loc(fmt::v11::basic_appender<char>, fmt::v11::loc_value, fmt::v11::format_specs const&, fmt::v11::detail::locale_ref)
FUNC 1e4a0 44 0 fmt::v11::format_facet<std::__ndk1::locale>::~format_facet()
FUNC 1e4e4 38 0 fmt::v11::report_error(char const*)
FUNC 1e51c 18 0 fmt::v11::format_error::runtime_error(char const*)
FUNC 1e534 420 0 fmt::v11::format_facet<std::__ndk1::locale>::do_put(fmt::v11::basic_appender<char>, fmt::v11::loc_value, fmt::v11::format_specs const&) const
FUNC 1e954 30 0 fmt::v11::detail::loc_writer<char>::~loc_writer()
FUNC 1e984 c0 0 fmt::v11::vformat(fmt::v11::basic_string_view<char>, fmt::v11::basic_format_args<fmt::v11::context>)
FUNC 1ea44 1ac 0 fmt::v11::detail::dragonbox::cache_accessor<double>::get_cached_power(int)
FUNC 1ebf0 278 0 fmt::v11::detail::vformat_to<char>(fmt::v11::detail::buffer<char>&, fmt::v11::basic_string_view<char>, fmt::v11::detail::vformat_args<char>::type, fmt::v11::detail::locale_ref)
FUNC 1ee70 228 0 fmt::v11::detail::is_printable(unsigned int)
FUNC 1f098 384 0 fmt::v11::detail::dragonbox::to_decimal<float>(float)
FUNC 1f41c 880 0 fmt::v11::detail::dragonbox::to_decimal<double>(double)
FUNC 1fc9c 4c 0 fmt::v11::basic_memory_buffer<char, (unsigned int)500, std::__ndk1::allocator<char> >::grow(fmt::v11::detail::buffer<char>&, unsigned int)
FUNC 1fce8 48 0 fmt::v11::format_facet<std::__ndk1::locale>::~format_facet()
FUNC 1fd30 10 0 fmt::v11::format_error::~format_error()
FUNC 1fd40 9a 0 fmt::v11::detail::copy_noinline<char, char const*, fmt::v11::basic_appender<char> >(char const*, char const*, fmt::v11::basic_appender<char>)
FUNC 1fddc 54 0 fmt::v11::detail::default_arg_formatter<char>::operator()<bool>(bool)
FUNC 1fe30 34 0 fmt::v11::detail::default_arg_formatter<char>::operator()<char>(char)
FUNC 1fe64 2c 0 fmt::v11::detail::default_arg_formatter<char>::operator()<char const*>(char const*)
FUNC 1fe90 74 0 fmt::v11::detail::default_arg_formatter<char>::operator()<void const*>(void const*)
FUNC 1ff04 1b0 0 _ZN3fmt3v116detail5writeIcNS0_14basic_appenderIcEEiTnNSt6__ndk19enable_ifIXaaaasr11is_integralIT1_EE5valuentsr3std7is_sameIS7_bEE5valuentsr3std7is_sameIS7_T_EE5valueEiE4typeELi0EEET0_SB_S7_
FUNC 200b4 9a 0 fmt::v11::detail::copy_noinline<char, char*, fmt::v11::basic_appender<char> >(char*, char*, fmt::v11::basic_appender<char>)
FUNC 20150 174 0 _ZN3fmt3v116detail5writeIcNS0_14basic_appenderIcEEjTnNSt6__ndk19enable_ifIXaaaasr11is_integralIT1_EE5valuentsr3std7is_sameIS7_bEE5valuentsr3std7is_sameIS7_T_EE5valueEiE4typeELi0EEET0_SB_S7_
FUNC 202c4 218 0 _ZN3fmt3v116detail5writeIcNS0_14basic_appenderIcEExTnNSt6__ndk19enable_ifIXaaaasr11is_integralIT1_EE5valuentsr3std7is_sameIS7_bEE5valuentsr3std7is_sameIS7_T_EE5valueEiE4typeELi0EEET0_SB_S7_
FUNC 204dc 1dc 0 _ZN3fmt3v116detail5writeIcNS0_14basic_appenderIcEEyTnNSt6__ndk19enable_ifIXaaaasr11is_integralIT1_EE5valuentsr3std7is_sameIS7_bEE5valuentsr3std7is_sameIS7_T_EE5valueEiE4typeELi0EEET0_SB_S7_
FUNC 206b8 188 0 _ZN3fmt3v116detail5writeIcNS0_14basic_appenderIcEEbTnNSt6__ndk19enable_ifIXsr3std7is_sameIT1_bEE5valueEiE4typeELi0EEET0_SA_S7_RKNS0_12format_specsENS1_10locale_refE
FUNC 20840 9f8 0 fmt::v11::detail::write_int_noinline<char, fmt::v11::basic_appender<char>, unsigned int>(fmt::v11::basic_appender<char>, fmt::v11::detail::write_int_arg<unsigned int>, fmt::v11::format_specs const&, fmt::v11::detail::locale_ref)
FUNC 21238 fa 0 fmt::v11::detail::fill<char, fmt::v11::basic_appender<char> >(fmt::v11::basic_appender<char>, unsigned int, fmt::v11::detail::fill_t const&)
FUNC 21334 184 0 fmt::v11::detail::write_padded<char, (fmt::v11::align::type)1, fmt::v11::basic_appender<char>, fmt::v11::detail::write_char<char, fmt::v11::basic_appender<char> >(fmt::v11::basic_appender<char>, char, fmt::v11::format_specs const&)::{lambda(fmt::v11::basic_appender<char>&)#1}>(fmt::v11::basic_appender<char>, fmt::v11::format_specs const&, unsigned int, unsigned int, fmt::v11::detail::write_char<char, fmt::v11::basic_appender<char> >(fmt::v11::basic_appender<char>, char, fmt::v11::format_specs const&)::{lambda(fmt::v11::basic_appender<char>&)#1})
FUNC 214b8 214 0 fmt::v11::detail::write_escaped_cp<fmt::v11::basic_appender<char>, char>(fmt::v11::basic_appender<char>, fmt::v11::detail::find_escape_result<char> const&)
FUNC 216cc e0 0 fmt::v11::detail::write_codepoint<(unsigned int)2, char, fmt::v11::basic_appender<char> >(fmt::v11::basic_appender<char>, char, unsigned int)
FUNC 217ac e0 0 fmt::v11::detail::write_codepoint<(unsigned int)8, char, fmt::v11::basic_appender<char> >(fmt::v11::basic_appender<char>, char, unsigned int)
FUNC 21890 73c 0 _ZN3fmt3v116detail5writeIcNS0_14basic_appenderIcEEfTnNSt6__ndk19enable_ifIXsr13is_fast_floatIT1_EE5valueEiE4typeELi0EEET0_SA_S7_
FUNC 21fcc 140 0 fmt::v11::detail::write_padded<char, (fmt::v11::align::type)1, fmt::v11::basic_appender<char>, fmt::v11::detail::write_nonfinite<char, fmt::v11::basic_appender<char> >(fmt::v11::basic_appender<char>, bool, fmt::v11::format_specs, fmt::v11::sign::type)::{lambda(fmt::v11::basic_appender<char>&)#1}>(fmt::v11::basic_appender<char>, fmt::v11::format_specs const&, unsigned int, unsigned int, fmt::v11::detail::write_nonfinite<char, fmt::v11::basic_appender<char> >(fmt::v11::basic_appender<char>, bool, fmt::v11::format_specs, fmt::v11::sign::type)::{lambda(fmt::v11::basic_appender<char>&)#1})
FUNC 2210c e0 0 fmt::v11::detail::do_write_float<char, fmt::v11::basic_appender<char>, fmt::v11::detail::dragonbox::decimal_fp<float>, fmt::v11::detail::digit_grouping<char> >(fmt::v11::basic_appender<char>, fmt::v11::detail::dragonbox::decimal_fp<float> const&, fmt::v11::format_specs const&, fmt::v11::detail::float_specs, fmt::v11::detail::locale_ref)::{lambda(fmt::v11::basic_appender<char>(fmt::v11::basic_appender<char>))#1}::operator() const
FUNC 221ec 194 0 fmt::v11::detail::digit_grouping<char>::digit_grouping(fmt::v11::detail::locale_ref, bool)
FUNC 22380 22 0 fmt::v11::detail::digit_grouping<char>::~digit_grouping()
FUNC 223a4 104 0 fmt::v11::detail::write_exponent<char, fmt::v11::basic_appender<char> >(int, fmt::v11::basic_appender<char>)
FUNC 224a8 144 0 _ZN3fmt3v116detail17write_significandIcjTnNSt6__ndk19enable_ifIXsr3std11is_integralIT0_EE5valueEiE4typeELi0EEEPT_S9_S5_iiS8_
FUNC 225ec 21c 0 fmt::v11::detail::digit_grouping<char>::apply<fmt::v11::basic_appender<char>, char>(fmt::v11::basic_appender<char>, fmt::v11::basic_string_view<char>) const
FUNC 22808 6e 0 fmt::v11::basic_memory_buffer<int, (unsigned int)500, std::__ndk1::allocator<int> >::grow(fmt::v11::detail::buffer<int>&, unsigned int)
FUNC 22880 e4 0 _ZN3fmt3v116detail5writeIcNS0_14basic_appenderIcEEdTnNSt6__ndk19enable_ifIXsr13is_fast_floatIT1_EE5valueEiE4typeELi0EEET0_SA_S7_
FUNC 22964 9ac 0 fmt::v11::detail::do_write_float<char, fmt::v11::basic_appender<char>, fmt::v11::detail::dragonbox::decimal_fp<double>, fmt::v11::detail::digit_grouping<char> >(fmt::v11::basic_appender<char>, fmt::v11::detail::dragonbox::decimal_fp<double> const&, fmt::v11::format_specs const&, fmt::v11::detail::float_specs, fmt::v11::detail::locale_ref)
FUNC 23310 e8 0 fmt::v11::detail::do_write_float<char, fmt::v11::basic_appender<char>, fmt::v11::detail::dragonbox::decimal_fp<double>, fmt::v11::detail::digit_grouping<char> >(fmt::v11::basic_appender<char>, fmt::v11::detail::dragonbox::decimal_fp<double> const&, fmt::v11::format_specs const&, fmt::v11::detail::float_specs, fmt::v11::detail::locale_ref)::{lambda(fmt::v11::basic_appender<char>(fmt::v11::basic_appender<char>))#1}::operator() const
FUNC 233f8 19c 0 _ZN3fmt3v116detail17write_significandIcyTnNSt6__ndk19enable_ifIXsr3std11is_integralIT0_EE5valueEiE4typeELi0EEEPT_S9_S5_iiS8_
FUNC 235a0 e4 0 _ZN3fmt3v116detail5writeIcNS0_14basic_appenderIcEEeTnNSt6__ndk19enable_ifIXsr13is_fast_floatIT1_EE5valueEiE4typeELi0EEET0_SA_S7_
FUNC 23684 150 0 fmt::v11::detail::write_padded<char, (fmt::v11::align::type)2, fmt::v11::basic_appender<char>, fmt::v11::detail::write_ptr<char, fmt::v11::basic_appender<char>, unsigned int>(fmt::v11::basic_appender<char>, unsigned int, fmt::v11::format_specs const*)::{lambda(fmt::v11::basic_appender<char>&)#1}>(fmt::v11::basic_appender<char>, fmt::v11::format_specs const&, unsigned int, unsigned int, fmt::v11::detail::write_ptr<char, fmt::v11::basic_appender<char>, unsigned int>(fmt::v11::basic_appender<char>, unsigned int, fmt::v11::format_specs const*)::{lambda(fmt::v11::basic_appender<char>&)#1})
FUNC 237d8 1660 0 fmt::v11::detail::parse_replacement_field<char, fmt::v11::detail::vformat_to<char>(fmt::v11::detail::buffer<char>&, fmt::v11::basic_string_view<char>, fmt::v11::detail::vformat_args<char>::type, fmt::v11::detail::locale_ref)::format_handler&>(char const*, char const*, fmt::v11::detail::vformat_to<char>(fmt::v11::detail::buffer<char>&, fmt::v11::basic_string_view<char>, fmt::v11::detail::vformat_args<char>::type, fmt::v11::detail::locale_ref)::format_handler&)
FUNC 24e38 1cc 0 fmt::v11::detail::parse_dynamic_spec<char>(char const*, char const*, int&, fmt::v11::detail::arg_ref<char>&, fmt::v11::basic_format_parse_context<char>&)
FUNC 25004 106 0 fmt::v11::basic_format_args<fmt::v11::context>::get<char>(fmt::v11::basic_string_view<char>) const
FUNC 2510c b78 0 fmt::v11::detail::write_int_noinline<char, fmt::v11::basic_appender<char>, unsigned long long>(fmt::v11::basic_appender<char>, fmt::v11::detail::write_int_arg<unsigned long long>, fmt::v11::format_specs const&, fmt::v11::detail::locale_ref)
FUNC 25c84 3a4 0 _ZN3fmt3v116detail15format_hexfloatIdTnNSt6__ndk19enable_ifIXntsr16is_double_doubleIT_EE5valueEiE4typeELi0EEEvS5_NS0_12format_specsERNS1_6bufferIcEE
FUNC 26028 ebc 0 fmt::v11::detail::format_float<double>(double, int, fmt::v11::detail::float_specs, fmt::v11::detail::buffer<char>&)
FUNC 26ee4 10c 0 fmt::v11::detail::write_padded<char, (fmt::v11::align::type)2, fmt::v11::basic_appender<char>, fmt::v11::detail::write_bytes<char, (fmt::v11::align::type)2, fmt::v11::basic_appender<char> >(fmt::v11::basic_appender<char>, fmt::v11::basic_string_view<char>, fmt::v11::format_specs const&)::{lambda(fmt::v11::basic_appender<char>&)#1}>(fmt::v11::basic_appender<char>, fmt::v11::format_specs const&, unsigned int, unsigned int, fmt::v11::detail::write_bytes<char, (fmt::v11::align::type)2, fmt::v11::basic_appender<char> >(fmt::v11::basic_appender<char>, fmt::v11::basic_string_view<char>, fmt::v11::format_specs const&)::{lambda(fmt::v11::basic_appender<char>&)#1})
FUNC 26ff0 c4 0 fmt::v11::detail::bigint::operator<<=(int)
FUNC 270b4 414 0 fmt::v11::detail::bigint::assign_pow10(int)
FUNC 274c8 276 0 fmt::v11::detail::bigint::divmod_assign(fmt::v11::detail::bigint const&)
FUNC 2773e 6e 0 fmt::v11::basic_memory_buffer<unsigned int, (unsigned int)32, std::__ndk1::allocator<unsigned int> >::grow(fmt::v11::detail::buffer<unsigned int>&, unsigned int)
FUNC 277ac 994 0 fmt::v11::detail::do_write_float<char, fmt::v11::basic_appender<char>, fmt::v11::detail::big_decimal_fp, fmt::v11::detail::digit_grouping<char> >(fmt::v11::basic_appender<char>, fmt::v11::detail::big_decimal_fp const&, fmt::v11::format_specs const&, fmt::v11::detail::float_specs, fmt::v11::detail::locale_ref)
FUNC 28140 e0 0 fmt::v11::detail::do_write_float<char, fmt::v11::basic_appender<char>, fmt::v11::detail::big_decimal_fp, fmt::v11::detail::digit_grouping<char> >(fmt::v11::basic_appender<char>, fmt::v11::detail::big_decimal_fp const&, fmt::v11::format_specs const&, fmt::v11::detail::float_specs, fmt::v11::detail::locale_ref)::{lambda(fmt::v11::basic_appender<char>(fmt::v11::basic_appender<char>))#1}::operator() const
FUNC 28220 820 0 fmt::v11::detail::write<char, fmt::v11::basic_appender<char> >(fmt::v11::basic_appender<char>, fmt::v11::basic_string_view<char>, fmt::v11::format_specs const&)
FUNC 28a40 124 0 fmt::v11::detail::for_each_codepoint<fmt::v11::detail::find_escape(char const*, char const*)::{lambda(unsigned int, fmt::v11::basic_string_view<char>)#1}>(fmt::v11::basic_string_view<char>, fmt::v11::detail::find_escape(char const*, char const*)::{lambda(unsigned int, fmt::v11::basic_string_view<char>)#1})::{lambda(char const*, char const*)#1}::operator()(char const*, char const*) const
FUNC 28b70 1e4 0 fmt::v11::detail::for_each_codepoint<fmt::v11::detail::compute_width(fmt::v11::basic_string_view<char>)::count_code_points>(fmt::v11::basic_string_view<char>, fmt::v11::detail::compute_width(fmt::v11::basic_string_view<char>)::count_code_points)::{lambda(char const*, char const*)#1}::operator()(char const*, char const*) const
FUNC 28d54 544 0 fmt::v11::detail::write_int<fmt::v11::basic_appender<char>, unsigned long long, char>(fmt::v11::basic_appender<char>, unsigned long long, unsigned int, fmt::v11::format_specs const&, fmt::v11::detail::digit_grouping<char> const&)
PUBLIC 29299 0 __ThumbV7PILongThunk__ZdlPv
PUBLIC 292a5 0 __ThumbV7PILongThunk__ZN5geode24DefaultEventListenerPool3getEv
PUBLIC 292b1 0 __ThumbV7PILongThunk__ZN5geode21EventListenerProtocolD2Ev
PUBLIC 292bd 0 __ThumbV7PILongThunk__ZN12FLAlertLayer7keyDownEN7cocos2d12enumKeyCodesE
PUBLIC 292c9 0 __ThumbV7PILongThunk__ZN7cocos2d17CCTouchDispatcher19addTargetedDelegateEPNS_15CCTouchDelegateEib
PUBLIC 292d5 0 __ThumbV7PILongThunk__ZNSt6__ndk119__shared_weak_count14__release_weakEv
PUBLIC 292e1 0 __ThumbV7PILongThunk__ZN5geode5EventD2Ev
PUBLIC 292ed 0 __ThumbV7PILongThunk__ZNSt6__ndk119__shared_weak_countD2Ev
PUBLIC 292f9 0 __ThumbV7PILongThunk___cxa_atexit
PUBLIC 29305 0 __ThumbV7PILongThunk__ZN5geode9addresser9Addresser19followThunkFunctionEi
PUBLIC 29311 0 __ThumbV7PILongThunk__ZNSt6__ndk16locale5facetD2Ev
PUBLIC 29320 0 <.plt ELF section in weebify.high-graphics-android.android32.so>
STACK CFI INIT 10904 164 .cfa: sp 0 +
STACK CFI 10906 .cfa: sp 16 + .ra: .cfa -4 + ^ r7: .cfa -8 + ^ r5: .cfa -12 + ^ r4: .cfa -16 + ^
STACK CFI 10908 .cfa: r7 8 +
STACK CFI INIT 10a68 c2 .cfa: sp 0 +
STACK CFI 10a6a .cfa: sp 20 + .ra: .cfa -4 + ^ r7: .cfa -8 + ^ r6: .cfa -12 + ^ r5: .cfa -16 + ^ r4: .cfa -20 + ^
STACK CFI 10a6c .cfa: r7 8 +
STACK CFI 10a70 r10: .cfa -24 + ^ r9: .cfa -28 + ^ r8: .cfa -32 + ^
STACK CFI INIT 10b2a 96 .cfa: sp 0 +
STACK CFI 10b2c .cfa: sp 20 + .ra: .cfa -4 + ^ r7: .cfa -8 + ^ r6: .cfa -12 + ^ r5: .cfa -16 + ^ r4: .cfa -20 + ^
STACK CFI 10b2e .cfa: r7 8 +
STACK CFI 10b32 r11: .cfa -24 + ^
STACK CFI INIT 10bc0 2e .cfa: sp 0 +
STACK CFI 10bc2 .cfa: sp 16 + .ra: .cfa -4 + ^ r7: .cfa -8 + ^ r6: .cfa -12 + ^ r4: .cfa -16 + ^
STACK CFI 10bc4 .cfa: r7 8 +
STACK CFI INIT 10bee 22 .cfa: sp 0 +
STACK CFI 10bf0 .cfa: sp 16 + .ra: .cfa -4 + ^ r7: .cfa -8 + ^ r6: .cfa -12 + ^ r4: .cfa -16 + ^
STACK CFI 10bf2 .cfa: r7 8 +
STACK CFI INIT 10c10 10 .cfa: sp 0 +
STACK CFI 10c12 .cfa: sp 16 + .ra: .cfa -4 + ^ r7: .cfa -8 + ^ r6: .cfa -12 + ^ r4: .cfa -16 + ^
STACK CFI 10c14 .cfa: r7 8 +
STACK CFI INIT 0 78 .cfa: sp 0 +
STACK CFI 2 .cfa: sp 8 + .ra: .cfa -4 + ^ r7: .cfa -8 + ^
STACK CFI 4 .cfa: r7 8 +
STACK CFI INIT 10c20 bc .cfa: sp 0 +
STACK CFI 10c22 .cfa: sp 20 + .ra: .cfa -4 + ^ r7: .cfa -8 + ^ r6: .cfa -12 + ^ r5: .cfa -16 + ^ r4: .cfa -20 + ^
STACK CFI 10c24 .cfa: r7 8 +
STACK CFI 10c28 r11: .cfa -24 + ^
STACK CFI INIT 10cdc 1e .cfa: sp 0 +
STACK CFI 10cde .cfa: sp 16 + .ra: .cfa -4 + ^ r7: .cfa -8 + ^ r6: .cfa -12 + ^ r4: .cfa -16 + ^
STACK CFI 10ce0 .cfa: r7 8 +
STACK CFI INIT 10cfa 3a .cfa: sp 0 +
STACK CFI 10cfc .cfa: sp 16 + .ra: .cfa -4 + ^ r7: .cfa -8 + ^ r5: .cfa -12 + ^ r4: .cfa -16 + ^
STACK CFI 10cfe .cfa: r7 8 +
STACK CFI INIT 10d34 760 .cfa: sp 0 +
STACK CFI 10d36 .cfa: sp 20 + .ra: .cfa -4 + ^ r7: .cfa -8 + ^ r6: .cfa -12 + ^ r5: .cfa -16 + ^ r4: .cfa -20 + ^
STACK CFI 10d38 .cfa: r7 8 +
STACK CFI 10d3c r11: .cfa -24 + ^ r10: .cfa -28 + ^ r9: .cfa -32 + ^ r8: .cfa -36 + ^
STACK CFI INIT 11494 10 .cfa: sp 0 +
STACK CFI 11496 .cfa: sp 8 + .ra: .cfa -4 + ^ r7: .cfa -8 + ^
STACK CFI 11498 .cfa: r7 8 +
STACK CFI INIT 114a4 38 .cfa: sp 0 +
STACK CFI 114a6 .cfa: sp 16 + .ra: .cfa -4 + ^ r7: .cfa -8 + ^ r5: .cfa -12 + ^ r4: .cfa -16 + ^
STACK CFI 114a8 .cfa: r7 8 +
STACK CFI INIT 114dc 18 .cfa: sp 0 +
STACK CFI 114de .cfa: sp 8 + .ra: .cfa -4 + ^ r7: .cfa -8 + ^
STACK CFI 114e0 .cfa: r7 8 +
STACK CFI INIT 114f4 46 .cfa: sp 0 +
STACK CFI 114f6 .cfa: sp 20 + .ra: .cfa -4 + ^ r7: .cfa -8 + ^ r6: .cfa -12 + ^ r5: .cfa -16 + ^ r4: .cfa -20 + ^
STACK CFI 114f8 .cfa: r7 8 +
STACK CFI 114fc r8: .cfa -24 + ^
STACK CFI INIT 1153c 290 .cfa: sp 0 +
STACK CFI 1153e .cfa: sp 20 + .ra: .cfa -4 + ^ r7: .cfa -8 + ^ r6: .cfa -12 + ^ r5: .cfa -16 + ^ r4: .cfa -20 + ^
STACK CFI 11540 .cfa: r7 8 +
STACK CFI 11544 r11: .cfa -24 + ^ r10: .cfa -28 + ^ r9: .cfa -32 + ^ r8: .cfa -36 + ^
STACK CFI INIT 117cc 3a .cfa: sp 0 +
STACK CFI 117d8 .cfa: sp 16 + .ra: .cfa -4 + ^ r7: .cfa -8 + ^ r5: .cfa -12 + ^ r4: .cfa -16 + ^
STACK CFI 117da .cfa: r7 8 +
STACK CFI INIT 11806 ba .cfa: sp 0 +
STACK CFI 11808 .cfa: sp 20 + .ra: .cfa -4 + ^ r7: .cfa -8 + ^ r6: .cfa -12 + ^ r5: .cfa -16 + ^ r4: .cfa -20 + ^
STACK CFI 1180a .cfa: r7 8 +
STACK CFI 1180e r11: .cfa -24 + ^ r10: .cfa -28 + ^ r9: .cfa -32 + ^ r8: .cfa -36 + ^
STACK CFI INIT 118c0 14a .cfa: sp 0 +
STACK CFI 118d2 .cfa: sp 16 + .ra: .cfa -4 + ^ r7: .cfa -8 + ^ r6: .cfa -12 + ^ r4: .cfa -16 + ^
STACK CFI 118d4 .cfa: r7 8 +
STACK CFI INIT 11a0a 32 .cfa: sp 0 +
STACK CFI 11a12 .cfa: sp 16 + .ra: .cfa -4 + ^ r7: .cfa -8 + ^ r5: .cfa -12 + ^ r4: .cfa -16 + ^
STACK CFI 11a14 .cfa: r7 8 +
STACK CFI INIT 11a3c ac .cfa: sp 0 +
STACK CFI 11a3e .cfa: sp 16 + .ra: .cfa -4 + ^ r7: .cfa -8 + ^ r5: .cfa -12 + ^ r4: .cfa -16 + ^
STACK CFI 11a40 .cfa: r7 8 +
STACK CFI INIT 11ae8 66 .cfa: sp 0 +
STACK CFI 11aea .cfa: sp 20 + .ra: .cfa -4 + ^ r7: .cfa -8 + ^ r6: .cfa -12 + ^ r5: .cfa -16 + ^ r4: .cfa -20 + ^
STACK CFI 11aec .cfa: r7 8 +
STACK CFI 11af0 r11: .cfa -24 + ^ r9: .cfa -28 + ^ r8: .cfa -32 + ^
STACK CFI INIT 11b4e a6 .cfa: sp 0 +
STACK CFI 11b50 .cfa: sp 20 + .ra: .cfa -4 + ^ r7: .cfa -8 + ^ r6: .cfa -12 + ^ r5: .cfa -16 + ^ r4: .cfa -20 + ^
STACK CFI 11b52 .cfa: r7 8 +
STACK CFI 11b56 r10: .cfa -24 + ^ r9: .cfa -28 + ^ r8: .cfa -32 + ^
STACK CFI INIT 11bf4 b0 .cfa: sp 0 +
STACK CFI 11bf6 .cfa: sp 20 + .ra: .cfa -4 + ^ r7: .cfa -8 + ^ r6: .cfa -12 + ^ r5: .cfa -16 + ^ r4: .cfa -20 + ^
STACK CFI 11bf8 .cfa: r7 8 +
STACK CFI 11bfc r10: .cfa -24 + ^ r9: .cfa -28 + ^ r8: .cfa -32 + ^
STACK CFI INIT 11ca4 1fc .cfa: sp 0 +
STACK CFI 11ca6 .cfa: sp 20 + .ra: .cfa -4 + ^ r7: .cfa -8 + ^ r6: .cfa -12 + ^ r5: .cfa -16 + ^ r4: .cfa -20 + ^
STACK CFI 11ca8 .cfa: r7 8 +
STACK CFI 11cac r11: .cfa -24 + ^ r10: .cfa -28 + ^ r9: .cfa -32 + ^ r8: .cfa -36 + ^
STACK CFI INIT 11ea0 42 .cfa: sp 0 +
STACK CFI 11ea2 .cfa: sp 16 + .ra: .cfa -4 + ^ r7: .cfa -8 + ^ r5: .cfa -12 + ^ r4: .cfa -16 + ^
STACK CFI 11ea4 .cfa: r7 8 +
STACK CFI INIT 11ee2 ba .cfa: sp 0 +
STACK CFI 11ee4 .cfa: sp 20 + .ra: .cfa -4 + ^ r7: .cfa -8 + ^ r6: .cfa -12 + ^ r5: .cfa -16 + ^ r4: .cfa -20 + ^
STACK CFI 11ee6 .cfa: r7 8 +
STACK CFI 11eea r11: .cfa -24 + ^ r10: .cfa -28 + ^ r9: .cfa -32 + ^ r8: .cfa -36 + ^
STACK CFI INIT 11f9c 9a .cfa: sp 0 +
STACK CFI 11f9e .cfa: sp 20 + .ra: .cfa -4 + ^ r7: .cfa -8 + ^ r6: .cfa -12 + ^ r5: .cfa -16 + ^ r4: .cfa -20 + ^
STACK CFI 11fa0 .cfa: r7 8 +
STACK CFI 11fa4 r11: .cfa -24 + ^
STACK CFI INIT 12036 4c .cfa: sp 0 +
STACK CFI 1203e .cfa: sp 16 + .ra: .cfa -4 + ^ r7: .cfa -8 + ^ r5: .cfa -12 + ^ r4: .cfa -16 + ^
STACK CFI 12040 .cfa: r7 8 +
STACK CFI INIT 12084 1e0 .cfa: sp 0 +
STACK CFI 12086 .cfa: sp 20 + .ra: .cfa -4 + ^ r7: .cfa -8 + ^ r6: .cfa -12 + ^ r5: .cfa -16 + ^ r4: .cfa -20 + ^
STACK CFI 12088 .cfa: r7 8 +
STACK CFI 1208c r11: .cfa -24 + ^ r10: .cfa -28 + ^ r9: .cfa -32 + ^ r8: .cfa -36 + ^
STACK CFI INIT 12264 34 .cfa: sp 0 +
STACK CFI 12266 .cfa: sp 8 + .ra: .cfa -4 + ^ r7: .cfa -8 + ^
STACK CFI 12268 .cfa: r7 8 +
STACK CFI INIT 12298 4 .cfa: sp 0 +
STACK CFI INIT 1229c e4 .cfa: sp 0 +
STACK CFI 1229e .cfa: sp 20 + .ra: .cfa -4 + ^ r7: .cfa -8 + ^ r6: .cfa -12 + ^ r5: .cfa -16 + ^ r4: .cfa -20 + ^
STACK CFI 122a0 .cfa: r7 8 +
STACK CFI 122a4 r11: .cfa -24 + ^
STACK CFI INIT 12380 38 .cfa: sp 0 +
STACK CFI 12382 .cfa: sp 16 + .ra: .cfa -4 + ^ r7: .cfa -8 + ^ r6: .cfa -12 + ^ r4: .cfa -16 + ^
STACK CFI 12384 .cfa: r7 8 +
STACK CFI INIT 123b8 3c .cfa: sp 0 +
STACK CFI 123ba .cfa: sp 16 + .ra: .cfa -4 + ^ r7: .cfa -8 + ^ r6: .cfa -12 + ^ r4: .cfa -16 + ^
STACK CFI 123bc .cfa: r7 8 +
STACK CFI INIT 123f4 2 .cfa: sp 0 +
STACK CFI INIT 123f6 4 .cfa: sp 0 +
STACK CFI INIT 123fc 20 .cfa: sp 0 +
STACK CFI 123fe .cfa: sp 16 + .ra: .cfa -4 + ^ r7: .cfa -8 + ^ r6: .cfa -12 + ^ r4: .cfa -16 + ^
STACK CFI 12400 .cfa: r7 8 +
STACK CFI INIT 1241c 14 .cfa: sp 0 +
STACK CFI INIT 12430 2 .cfa: sp 0 +
STACK CFI INIT 12432 4 .cfa: sp 0 +
STACK CFI INIT 12436 8 .cfa: sp 0 +
STACK CFI INIT 12440 18 .cfa: sp 0 +
STACK CFI INIT 12458 c .cfa: sp 0 +
STACK CFI INIT 12464 8c .cfa: sp 0 +
STACK CFI 12466 .cfa: sp 20 + .ra: .cfa -4 + ^ r7: .cfa -8 + ^ r6: .cfa -12 + ^ r5: .cfa -16 + ^ r4: .cfa -20 + ^
STACK CFI 12468 .cfa: r7 8 +
STACK CFI 1246c r11: .cfa -24 + ^ r9: .cfa -28 + ^ r8: .cfa -32 + ^
STACK CFI INIT 124f0 cc .cfa: sp 0 +
STACK CFI 124f2 .cfa: sp 20 + .ra: .cfa -4 + ^ r7: .cfa -8 + ^ r6: .cfa -12 + ^ r5: .cfa -16 + ^ r4: .cfa -20 + ^
STACK CFI 124f4 .cfa: r7 8 +
STACK CFI 124f8 r8: .cfa -24 + ^
STACK CFI INIT 125bc 120 .cfa: sp 0 +
STACK CFI 125be .cfa: sp 20 + .ra: .cfa -4 + ^ r7: .cfa -8 + ^ r6: .cfa -12 + ^ r5: .cfa -16 + ^ r4: .cfa -20 + ^
STACK CFI 125c0 .cfa: r7 8 +
STACK CFI 125c4 r11: .cfa -24 + ^ r9: .cfa -28 + ^ r8: .cfa -32 + ^
STACK CFI INIT 126dc 94 .cfa: sp 0 +
STACK CFI 126de .cfa: sp 16 + .ra: .cfa -4 + ^ r7: .cfa -8 + ^ r6: .cfa -12 + ^ r4: .cfa -16 + ^
STACK CFI 126e0 .cfa: r7 8 +
STACK CFI INIT 12770 80 .cfa: sp 0 +
STACK CFI 12772 .cfa: sp 20 + .ra: .cfa -4 + ^ r7: .cfa -8 + ^ r6: .cfa -12 + ^ r5: .cfa -16 + ^ r4: .cfa -20 + ^
STACK CFI 12774 .cfa: r7 8 +
STACK CFI 12778 r10: .cfa -24 + ^ r9: .cfa -28 + ^ r8: .cfa -32 + ^
STACK CFI INIT 127f0 18 .cfa: sp 0 +
STACK CFI INIT 12808 98 .cfa: sp 0 +
STACK CFI 1280a .cfa: sp 16 + .ra: .cfa -4 + ^ r7: .cfa -8 + ^ r6: .cfa -12 + ^ r4: .cfa -16 + ^
STACK CFI 1280c .cfa: r7 8 +
STACK CFI INIT 128a0 c28 .cfa: sp 0 +
STACK CFI 128a2 .cfa: sp 20 + .ra: .cfa -4 + ^ r7: .cfa -8 + ^ r6: .cfa -12 + ^ r5: .cfa -16 + ^ r4: .cfa -20 + ^
STACK CFI 128a4 .cfa: r7 8 +
STACK CFI 128a8 r11: .cfa -24 + ^ r10: .cfa -28 + ^ r9: .cfa -32 + ^ r8: .cfa -36 + ^
STACK CFI INIT 134c8 4 .cfa: sp 0 +
STACK CFI INIT 134cc 1b8 .cfa: sp 0 +
STACK CFI 134ce .cfa: sp 20 + .ra: .cfa -4 + ^ r7: .cfa -8 + ^ r6: .cfa -12 + ^ r5: .cfa -16 + ^ r4: .cfa -20 + ^
STACK CFI 134d0 .cfa: r7 8 +
STACK CFI 134d4 r10: .cfa -24 + ^ r9: .cfa -28 + ^ r8: .cfa -32 + ^
STACK CFI INIT 13684 2d4 .cfa: sp 0 +
STACK CFI 13686 .cfa: sp 20 + .ra: .cfa -4 + ^ r7: .cfa -8 + ^ r6: .cfa -12 + ^ r5: .cfa -16 + ^ r4: .cfa -20 + ^
STACK CFI 13688 .cfa: r7 8 +
STACK CFI 1368c r11: .cfa -24 + ^ r10: .cfa -28 + ^ r9: .cfa -32 + ^ r8: .cfa -36 + ^
STACK CFI INIT 13958 60 .cfa: sp 0 +
STACK CFI 1395a .cfa: sp 16 + .ra: .cfa -4 + ^ r7: .cfa -8 + ^ r6: .cfa -12 + ^ r4: .cfa -16 + ^
STACK CFI 1395c .cfa: r7 8 +
STACK CFI INIT 139b8 34 .cfa: sp 0 +
STACK CFI 139ba .cfa: sp 16 + .ra: .cfa -4 + ^ r7: .cfa -8 + ^ r6: .cfa -12 + ^ r4: .cfa -16 + ^
STACK CFI 139bc .cfa: r7 8 +
STACK CFI INIT 139ec d0 .cfa: sp 0 +
STACK CFI 139ee .cfa: sp 20 + .ra: .cfa -4 + ^ r7: .cfa -8 + ^ r6: .cfa -12 + ^ r5: .cfa -16 + ^ r4: .cfa -20 + ^
STACK CFI 139f0 .cfa: r7 8 +
STACK CFI 139f4 r11: .cfa -24 + ^
STACK CFI INIT 13ac0 ac .cfa: sp 0 +
STACK CFI 13ac2 .cfa: sp 16 + .ra: .cfa -4 + ^ r7: .cfa -8 + ^ r5: .cfa -12 + ^ r4: .cfa -16 + ^
STACK CFI 13ac4 .cfa: r7 8 +
STACK CFI INIT 13b6c 1c0 .cfa: sp 0 +
STACK CFI 13b6e .cfa: sp 20 + .ra: .cfa -4 + ^ r7: .cfa -8 + ^ r6: .cfa -12 + ^ r5: .cfa -16 + ^ r4: .cfa -20 + ^
STACK CFI 13b70 .cfa: r7 8 +
STACK CFI 13b74 r11: .cfa -24 + ^ r9: .cfa -28 + ^ r8: .cfa -32 + ^
STACK CFI INIT 13d2c 3d4 .cfa: sp 0 +
STACK CFI 13d2e .cfa: sp 20 + .ra: .cfa -4 + ^ r7: .cfa -8 + ^ r6: .cfa -12 + ^ r5: .cfa -16 + ^ r4: .cfa -20 + ^
STACK CFI 13d30 .cfa: r7 8 +
STACK CFI 13d34 r11: .cfa -24 + ^ r10: .cfa -28 + ^ r9: .cfa -32 + ^ r8: .cfa -36 + ^
STACK CFI INIT 14100 674 .cfa: sp 0 +
STACK CFI 14102 .cfa: sp 20 + .ra: .cfa -4 + ^ r7: .cfa -8 + ^ r6: .cfa -12 + ^ r5: .cfa -16 + ^ r4: .cfa -20 + ^
STACK CFI 14104 .cfa: r7 8 +
STACK CFI 14108 r11: .cfa -24 + ^ r10: .cfa -28 + ^ r9: .cfa -32 + ^ r8: .cfa -36 + ^
STACK CFI INIT 14774 d0 .cfa: sp 0 +
STACK CFI 14776 .cfa: sp 20 + .ra: .cfa -4 + ^ r7: .cfa -8 + ^ r6: .cfa -12 + ^ r5: .cfa -16 + ^ r4: .cfa -20 + ^
STACK CFI 14778 .cfa: r7 8 +
STACK CFI 1477c r11: .cfa -24 + ^
STACK CFI INIT 14844 22 .cfa: sp 0 +
STACK CFI 14846 .cfa: sp 16 + .ra: .cfa -4 + ^ r7: .cfa -8 + ^ r6: .cfa -12 + ^ r4: .cfa -16 + ^
STACK CFI 14848 .cfa: r7 8 +
STACK CFI INIT 14866 3a .cfa: sp 0 +
STACK CFI 14868 .cfa: sp 16 + .ra: .cfa -4 + ^ r7: .cfa -8 + ^ r5: .cfa -12 + ^ r4: .cfa -16 + ^
STACK CFI 1486a .cfa: r7 8 +
STACK CFI INIT 148a0 3a .cfa: sp 0 +
STACK CFI 148a2 .cfa: sp 16 + .ra: .cfa -4 + ^ r7: .cfa -8 + ^ r5: .cfa -12 + ^ r4: .cfa -16 + ^
STACK CFI 148a4 .cfa: r7 8 +
STACK CFI INIT 148dc 190 .cfa: sp 0 +
STACK CFI 148de .cfa: sp 20 + .ra: .cfa -4 + ^ r7: .cfa -8 + ^ r6: .cfa -12 + ^ r5: .cfa -16 + ^ r4: .cfa -20 + ^
STACK CFI 148e0 .cfa: r7 8 +
STACK CFI 148e4 r8: .cfa -24 + ^
STACK CFI INIT 14a6c cc .cfa: sp 0 +
STACK CFI 14a6e .cfa: sp 20 + .ra: .cfa -4 + ^ r7: .cfa -8 + ^ r6: .cfa -12 + ^ r5: .cfa -16 + ^ r4: .cfa -20 + ^
STACK CFI 14a70 .cfa: r7 8 +
STACK CFI 14a74 r11: .cfa -24 + ^
STACK CFI INIT 14b38 194 .cfa: sp 0 +
STACK CFI 14b3a .cfa: sp 20 + .ra: .cfa -4 + ^ r7: .cfa -8 + ^ r6: .cfa -12 + ^ r5: .cfa -16 + ^ r4: .cfa -20 + ^
STACK CFI 14b3c .cfa: r7 8 +
STACK CFI 14b40 r8: .cfa -24 + ^
STACK CFI INIT 14ccc 4 .cfa: sp 0 +
STACK CFI INIT 14cd0 184 .cfa: sp 0 +
STACK CFI 14cd2 .cfa: sp 20 + .ra: .cfa -4 + ^ r7: .cfa -8 + ^ r6: .cfa -12 + ^ r5: .cfa -16 + ^ r4: .cfa -20 + ^
STACK CFI 14cd4 .cfa: r7 8 +
STACK CFI 14cd8 r8: .cfa -24 + ^
STACK CFI INIT 14e54 10 .cfa: sp 0 +
STACK CFI 14e56 .cfa: sp 8 + .ra: .cfa -4 + ^ r7: .cfa -8 + ^
STACK CFI 14e58 .cfa: r7 8 +
STACK CFI INIT 14e64 20 .cfa: sp 0 +
STACK CFI 14e66 .cfa: sp 16 + .ra: .cfa -4 + ^ r7: .cfa -8 + ^ r6: .cfa -12 + ^ r4: .cfa -16 + ^
STACK CFI 14e68 .cfa: r7 8 +
STACK CFI INIT 14e84 2 .cfa: sp 0 +
STACK CFI INIT 14e86 4 .cfa: sp 0 +
STACK CFI INIT 14e8c e4 .cfa: sp 0 +
STACK CFI 14e8e .cfa: sp 16 + .ra: .cfa -4 + ^ r7: .cfa -8 + ^ r5: .cfa -12 + ^ r4: .cfa -16 + ^
STACK CFI 14e90 .cfa: r7 8 +
STACK CFI INIT 14f70 8 .cfa: sp 0 +
STACK CFI INIT 14f78 14 .cfa: sp 0 +
STACK CFI 14f7a .cfa: sp 8 + .ra: .cfa -4 + ^ r7: .cfa -8 + ^
STACK CFI 14f7c .cfa: r7 8 +
STACK CFI INIT 14f8c 2 .cfa: sp 0 +
STACK CFI INIT 14f8e 2 .cfa: sp 0 +
STACK CFI INIT 14f90 2 .cfa: sp 0 +
STACK CFI INIT 14f92 2 .cfa: sp 0 +
STACK CFI INIT 14f94 2 .cfa: sp 0 +
STACK CFI INIT 14f96 4 .cfa: sp 0 +
STACK CFI INIT 14f9a c .cfa: sp 0 +
STACK CFI 14f9c .cfa: sp 8 + .ra: .cfa -4 + ^ r7: .cfa -8 + ^
STACK CFI 14f9e .cfa: r7 8 +
STACK CFI INIT 14fa8 68 .cfa: sp 0 +
STACK CFI 14faa .cfa: sp 16 + .ra: .cfa -4 + ^ r7: .cfa -8 + ^ r5: .cfa -12 + ^ r4: .cfa -16 + ^
STACK CFI 14fac .cfa: r7 8 +
STACK CFI INIT 15010 5c .cfa: sp 0 +
STACK CFI 15012 .cfa: sp 16 + .ra: .cfa -4 + ^ r7: .cfa -8 + ^ r6: .cfa -12 + ^ r4: .cfa -16 + ^
STACK CFI 15014 .cfa: r7 8 +
STACK CFI INIT 1506c 2 .cfa: sp 0 +
STACK CFI INIT 15070 60 .cfa: sp 0 +
STACK CFI 15072 .cfa: sp 16 + .ra: .cfa -4 + ^ r7: .cfa -8 + ^ r6: .cfa -12 + ^ r4: .cfa -16 + ^
STACK CFI 15074 .cfa: r7 8 +
STACK CFI INIT 150d0 2 .cfa: sp 0 +
STACK CFI INIT 150d2 1c .cfa: sp 0 +
STACK CFI INIT 150f0 168 .cfa: sp 0 +
STACK CFI 150f2 .cfa: sp 20 + .ra: .cfa -4 + ^ r7: .cfa -8 + ^ r6: .cfa -12 + ^ r5: .cfa -16 + ^ r4: .cfa -20 + ^
STACK CFI 150f4 .cfa: r7 8 +
STACK CFI 150f8 r11: .cfa -24 + ^ r9: .cfa -28 + ^ r8: .cfa -32 + ^
STACK CFI INIT 15258 4 .cfa: sp 0 +
STACK CFI INIT 1525c e8 .cfa: sp 0 +
STACK CFI 1525e .cfa: sp 16 + .ra: .cfa -4 + ^ r7: .cfa -8 + ^ r5: .cfa -12 + ^ r4: .cfa -16 + ^
STACK CFI 15260 .cfa: r7 8 +
STACK CFI INIT 15344 6c .cfa: sp 0 +
STACK CFI 15346 .cfa: sp 16 + .ra: .cfa -4 + ^ r7: .cfa -8 + ^ r5: .cfa -12 + ^ r4: .cfa -16 + ^
STACK CFI 15348 .cfa: r7 8 +
STACK CFI INIT 153b0 3a .cfa: sp 0 +
STACK CFI 153b2 .cfa: sp 16 + .ra: .cfa -4 + ^ r7: .cfa -8 + ^ r5: .cfa -12 + ^ r4: .cfa -16 + ^
STACK CFI 153b4 .cfa: r7 8 +
STACK CFI INIT 153ea 3a .cfa: sp 0 +
STACK CFI 153ec .cfa: sp 16 + .ra: .cfa -4 + ^ r7: .cfa -8 + ^ r5: .cfa -12 + ^ r4: .cfa -16 + ^
STACK CFI 153ee .cfa: r7 8 +
STACK CFI INIT 15424 48 .cfa: sp 0 +
STACK CFI 15426 .cfa: sp 16 + .ra: .cfa -4 + ^ r7: .cfa -8 + ^ r5: .cfa -12 + ^ r4: .cfa -16 + ^
STACK CFI 15428 .cfa: r7 8 +
STACK CFI INIT 1546c 54 .cfa: sp 0 +
STACK CFI 1546e .cfa: sp 16 + .ra: .cfa -4 + ^ r7: .cfa -8 + ^ r5: .cfa -12 + ^ r4: .cfa -16 + ^
STACK CFI 15470 .cfa: r7 8 +
STACK CFI INIT 154c0 40 .cfa: sp 0 +
STACK CFI 154c2 .cfa: sp 16 + .ra: .cfa -4 + ^ r7: .cfa -8 + ^ r6: .cfa -12 + ^ r4: .cfa -16 + ^
STACK CFI 154c4 .cfa: r7 8 +
STACK CFI INIT 15500 34 .cfa: sp 0 +
STACK CFI INIT 15534 3a .cfa: sp 0 +
STACK CFI 15536 .cfa: sp 16 + .ra: .cfa -4 + ^ r7: .cfa -8 + ^ r6: .cfa -12 + ^ r4: .cfa -16 + ^
STACK CFI 15538 .cfa: r7 8 +
STACK CFI INIT 1556e 44 .cfa: sp 0 +
STACK CFI 15570 .cfa: sp 16 + .ra: .cfa -4 + ^ r7: .cfa -8 + ^ r5: .cfa -12 + ^ r4: .cfa -16 + ^
STACK CFI 15572 .cfa: r7 8 +
STACK CFI INIT 155b4 150 .cfa: sp 0 +
STACK CFI 155b6 .cfa: sp 20 + .ra: .cfa -4 + ^ r7: .cfa -8 + ^ r6: .cfa -12 + ^ r5: .cfa -16 + ^ r4: .cfa -20 + ^
STACK CFI 155b8 .cfa: r7 8 +
STACK CFI 155bc r11: .cfa -24 + ^
STACK CFI INIT 15704 18 .cfa: sp 0 +
STACK CFI INIT 1571c c .cfa: sp 0 +
STACK CFI INIT 15728 44 .cfa: sp 0 +
STACK CFI 1572a .cfa: sp 16 + .ra: .cfa -4 + ^ r7: .cfa -8 + ^ r5: .cfa -12 + ^ r4: .cfa -16 + ^
STACK CFI 1572c .cfa: r7 8 +
STACK CFI INIT 1576c 40 .cfa: sp 0 +
STACK CFI 1576e .cfa: sp 16 + .ra: .cfa -4 + ^ r7: .cfa -8 + ^ r5: .cfa -12 + ^ r4: .cfa -16 + ^
STACK CFI 15770 .cfa: r7 8 +
STACK CFI INIT 157ac 48 .cfa: sp 0 +
STACK CFI 157ae .cfa: sp 16 + .ra: .cfa -4 + ^ r7: .cfa -8 + ^ r5: .cfa -12 + ^ r4: .cfa -16 + ^
STACK CFI 157b0 .cfa: r7 8 +
STACK CFI INIT 157f4 54 .cfa: sp 0 +
STACK CFI 157f6 .cfa: sp 16 + .ra: .cfa -4 + ^ r7: .cfa -8 + ^ r5: .cfa -12 + ^ r4: .cfa -16 + ^
STACK CFI 157f8 .cfa: r7 8 +
STACK CFI INIT 15848 3c .cfa: sp 0 +
STACK CFI 1584a .cfa: sp 16 + .ra: .cfa -4 + ^ r7: .cfa -8 + ^ r6: .cfa -12 + ^ r4: .cfa -16 + ^
STACK CFI 1584c .cfa: r7 8 +
STACK CFI INIT 15884 30 .cfa: sp 0 +
STACK CFI INIT 158b4 3a .cfa: sp 0 +
STACK CFI 158b6 .cfa: sp 16 + .ra: .cfa -4 + ^ r7: .cfa -8 + ^ r6: .cfa -12 + ^ r4: .cfa -16 + ^
STACK CFI 158b8 .cfa: r7 8 +
STACK CFI INIT 158ee 44 .cfa: sp 0 +
STACK CFI 158f0 .cfa: sp 16 + .ra: .cfa -4 + ^ r7: .cfa -8 + ^ r5: .cfa -12 + ^ r4: .cfa -16 + ^
STACK CFI 158f2 .cfa: r7 8 +
STACK CFI INIT 15934 150 .cfa: sp 0 +
STACK CFI 15936 .cfa: sp 20 + .ra: .cfa -4 + ^ r7: .cfa -8 + ^ r6: .cfa -12 + ^ r5: .cfa -16 + ^ r4: .cfa -20 + ^
STACK CFI 15938 .cfa: r7 8 +
STACK CFI 1593c r11: .cfa -24 + ^
STACK CFI INIT 15a84 18 .cfa: sp 0 +
STACK CFI INIT 15a9c c .cfa: sp 0 +
STACK CFI INIT 15aa8 34 .cfa: sp 0 +
STACK CFI 15aaa .cfa: sp 8 + .ra: .cfa -4 + ^ r7: .cfa -8 + ^
STACK CFI 15aac .cfa: r7 8 +
STACK CFI INIT 15adc 10 .cfa: sp 0 +
STACK CFI 15ade .cfa: sp 8 + .ra: .cfa -4 + ^ r7: .cfa -8 + ^
STACK CFI 15ae0 .cfa: r7 8 +
STACK CFI INIT 15aec 168 .cfa: sp 0 +
STACK CFI 15aee .cfa: sp 20 + .ra: .cfa -4 + ^ r7: .cfa -8 + ^ r6: .cfa -12 + ^ r5: .cfa -16 + ^ r4: .cfa -20 + ^
STACK CFI 15af0 .cfa: r7 8 +
STACK CFI 15af4 r11: .cfa -24 + ^ r9: .cfa -28 + ^ r8: .cfa -32 + ^
STACK CFI INIT 15c54 4 .cfa: sp 0 +
STACK CFI INIT 15c58 e8 .cfa: sp 0 +
STACK CFI 15c5a .cfa: sp 16 + .ra: .cfa -4 + ^ r7: .cfa -8 + ^ r5: .cfa -12 + ^ r4: .cfa -16 + ^
STACK CFI 15c5c .cfa: r7 8 +
STACK CFI INIT 15d40 68 .cfa: sp 0 +
STACK CFI 15d42 .cfa: sp 16 + .ra: .cfa -4 + ^ r7: .cfa -8 + ^ r5: .cfa -12 + ^ r4: .cfa -16 + ^
STACK CFI 15d44 .cfa: r7 8 +
STACK CFI INIT 15da8 6c .cfa: sp 0 +
STACK CFI 15daa .cfa: sp 16 + .ra: .cfa -4 + ^ r7: .cfa -8 + ^ r5: .cfa -12 + ^ r4: .cfa -16 + ^
STACK CFI 15dac .cfa: r7 8 +
STACK CFI INIT 15e14 3a .cfa: sp 0 +
STACK CFI 15e16 .cfa: sp 16 + .ra: .cfa -4 + ^ r7: .cfa -8 + ^ r5: .cfa -12 + ^ r4: .cfa -16 + ^
STACK CFI 15e18 .cfa: r7 8 +
STACK CFI INIT 15e4e 3a .cfa: sp 0 +
STACK CFI 15e50 .cfa: sp 16 + .ra: .cfa -4 + ^ r7: .cfa -8 + ^ r5: .cfa -12 + ^ r4: .cfa -16 + ^
STACK CFI 15e52 .cfa: r7 8 +
STACK CFI INIT 15e88 48 .cfa: sp 0 +
STACK CFI 15e8a .cfa: sp 16 + .ra: .cfa -4 + ^ r7: .cfa -8 + ^ r5: .cfa -12 + ^ r4: .cfa -16 + ^
STACK CFI 15e8c .cfa: r7 8 +
STACK CFI INIT 15ed0 54 .cfa: sp 0 +
STACK CFI 15ed2 .cfa: sp 16 + .ra: .cfa -4 + ^ r7: .cfa -8 + ^ r5: .cfa -12 + ^ r4: .cfa -16 + ^
STACK CFI 15ed4 .cfa: r7 8 +
STACK CFI INIT 15f24 40 .cfa: sp 0 +
STACK CFI 15f26 .cfa: sp 16 + .ra: .cfa -4 + ^ r7: .cfa -8 + ^ r6: .cfa -12 + ^ r4: .cfa -16 + ^
STACK CFI 15f28 .cfa: r7 8 +
STACK CFI INIT 15f64 34 .cfa: sp 0 +
STACK CFI INIT 15f98 3a .cfa: sp 0 +
STACK CFI 15f9a .cfa: sp 16 + .ra: .cfa -4 + ^ r7: .cfa -8 + ^ r6: .cfa -12 + ^ r4: .cfa -16 + ^
STACK CFI 15f9c .cfa: r7 8 +
STACK CFI INIT 15fd2 44 .cfa: sp 0 +
STACK CFI 15fd4 .cfa: sp 16 + .ra: .cfa -4 + ^ r7: .cfa -8 + ^ r5: .cfa -12 + ^ r4: .cfa -16 + ^
STACK CFI 15fd6 .cfa: r7 8 +
STACK CFI INIT 16018 150 .cfa: sp 0 +
STACK CFI 1601a .cfa: sp 20 + .ra: .cfa -4 + ^ r7: .cfa -8 + ^ r6: .cfa -12 + ^ r5: .cfa -16 + ^ r4: .cfa -20 + ^
STACK CFI 1601c .cfa: r7 8 +
STACK CFI 16020 r11: .cfa -24 + ^
STACK CFI INIT 16168 18 .cfa: sp 0 +
STACK CFI INIT 16180 c .cfa: sp 0 +
STACK CFI INIT 1618c 3a .cfa: sp 0 +
STACK CFI 1618e .cfa: sp 16 + .ra: .cfa -4 + ^ r7: .cfa -8 + ^ r5: .cfa -12 + ^ r4: .cfa -16 + ^
STACK CFI 16190 .cfa: r7 8 +
STACK CFI INIT 161c6 44 .cfa: sp 0 +
STACK CFI 161c8 .cfa: sp 16 + .ra: .cfa -4 + ^ r7: .cfa -8 + ^ r5: .cfa -12 + ^ r4: .cfa -16 + ^
STACK CFI 161ca .cfa: r7 8 +
STACK CFI INIT 1620a 40 .cfa: sp 0 +
STACK CFI 1620c .cfa: sp 16 + .ra: .cfa -4 + ^ r7: .cfa -8 + ^ r5: .cfa -12 + ^ r4: .cfa -16 + ^
STACK CFI 1620e .cfa: r7 8 +
STACK CFI INIT 1624c 48 .cfa: sp 0 +
STACK CFI 1624e .cfa: sp 16 + .ra: .cfa -4 + ^ r7: .cfa -8 + ^ r5: .cfa -12 + ^ r4: .cfa -16 + ^
STACK CFI 16250 .cfa: r7 8 +
STACK CFI INIT 16294 54 .cfa: sp 0 +
STACK CFI 16296 .cfa: sp 16 + .ra: .cfa -4 + ^ r7: .cfa -8 + ^ r5: .cfa -12 + ^ r4: .cfa -16 + ^
STACK CFI 16298 .cfa: r7 8 +
STACK CFI INIT 162e8 3c .cfa: sp 0 +
STACK CFI 162ea .cfa: sp 16 + .ra: .cfa -4 + ^ r7: .cfa -8 + ^ r6: .cfa -12 + ^ r4: .cfa -16 + ^
STACK CFI 162ec .cfa: r7 8 +
STACK CFI INIT 16324 30 .cfa: sp 0 +
STACK CFI INIT 16354 3a .cfa: sp 0 +
STACK CFI 16356 .cfa: sp 16 + .ra: .cfa -4 + ^ r7: .cfa -8 + ^ r6: .cfa -12 + ^ r4: .cfa -16 + ^
STACK CFI 16358 .cfa: r7 8 +
STACK CFI INIT 1638e 44 .cfa: sp 0 +
STACK CFI 16390 .cfa: sp 16 + .ra: .cfa -4 + ^ r7: .cfa -8 + ^ r5: .cfa -12 + ^ r4: .cfa -16 + ^
STACK CFI 16392 .cfa: r7 8 +
STACK CFI INIT 163d4 150 .cfa: sp 0 +
STACK CFI 163d6 .cfa: sp 20 + .ra: .cfa -4 + ^ r7: .cfa -8 + ^ r6: .cfa -12 + ^ r5: .cfa -16 + ^ r4: .cfa -20 + ^
STACK CFI 163d8 .cfa: r7 8 +
STACK CFI 163dc r11: .cfa -24 + ^
STACK CFI INIT 16524 18 .cfa: sp 0 +
STACK CFI INIT 1653c c .cfa: sp 0 +
STACK CFI INIT 16548 110 .cfa: sp 0 +
STACK CFI 1654a .cfa: sp 20 + .ra: .cfa -4 + ^ r7: .cfa -8 + ^ r6: .cfa -12 + ^ r5: .cfa -16 + ^ r4: .cfa -20 + ^
STACK CFI 1654c .cfa: r7 8 +
STACK CFI 16550 r11: .cfa -24 + ^
STACK CFI INIT 16658 60 .cfa: sp 0 +
STACK CFI 1665a .cfa: sp 16 + .ra: .cfa -4 + ^ r7: .cfa -8 + ^ r6: .cfa -12 + ^ r4: .cfa -16 + ^
STACK CFI 1665c .cfa: r7 8 +
STACK CFI INIT 166b8 34 .cfa: sp 0 +
STACK CFI 166ba .cfa: sp 8 + .ra: .cfa -4 + ^ r7: .cfa -8 + ^
STACK CFI 166bc .cfa: r7 8 +
STACK CFI INIT 166ec 2 .cfa: sp 0 +
STACK CFI INIT 166ee e .cfa: sp 0 +
STACK CFI INIT 166fc 2 .cfa: sp 0 +
STACK CFI INIT 166fe e .cfa: sp 0 +
STACK CFI INIT 1670c 248 .cfa: sp 0 +
STACK CFI 1670e .cfa: sp 20 + .ra: .cfa -4 + ^ r7: .cfa -8 + ^ r6: .cfa -12 + ^ r5: .cfa -16 + ^ r4: .cfa -20 + ^
STACK CFI 16710 .cfa: r7 8 +
STACK CFI 16714 r10: .cfa -24 + ^ r9: .cfa -28 + ^ r8: .cfa -32 + ^
STACK CFI INIT 16954 3a .cfa: sp 0 +
STACK CFI 16956 .cfa: sp 16 + .ra: .cfa -4 + ^ r7: .cfa -8 + ^ r6: .cfa -12 + ^ r4: .cfa -16 + ^
STACK CFI 16958 .cfa: r7 8 +
STACK CFI INIT 16990 10 .cfa: sp 0 +
STACK CFI INIT 169a0 1c .cfa: sp 0 +
STACK CFI 169a2 .cfa: sp 8 + .ra: .cfa -4 + ^ r7: .cfa -8 + ^
STACK CFI 169a4 .cfa: r7 8 +
STACK CFI INIT 169bc bc .cfa: sp 0 +
STACK CFI 169be .cfa: sp 20 + .ra: .cfa -4 + ^ r7: .cfa -8 + ^ r6: .cfa -12 + ^ r5: .cfa -16 + ^ r4: .cfa -20 + ^
STACK CFI 169c0 .cfa: r7 8 +
STACK CFI 169c4 r11: .cfa -24 + ^
STACK CFI INIT 16a78 4 .cfa: sp 0 +
STACK CFI INIT 16a7c 64 .cfa: sp 0 +
STACK CFI 16a7e .cfa: sp 16 + .ra: .cfa -4 + ^ r7: .cfa -8 + ^ r6: .cfa -12 + ^ r4: .cfa -16 + ^
STACK CFI 16a80 .cfa: r7 8 +
STACK CFI INIT 16ae0 2 .cfa: sp 0 +
STACK CFI INIT 16ae2 e .cfa: sp 0 +
STACK CFI INIT 16af0 4cc .cfa: sp 0 +
STACK CFI 16af2 .cfa: sp 20 + .ra: .cfa -4 + ^ r7: .cfa -8 + ^ r6: .cfa -12 + ^ r5: .cfa -16 + ^ r4: .cfa -20 + ^
STACK CFI 16af4 .cfa: r7 8 +
STACK CFI 16af8 r11: .cfa -24 + ^ r10: .cfa -28 + ^ r9: .cfa -32 + ^ r8: .cfa -36 + ^
STACK CFI INIT 16fbc 22 .cfa: sp 0 +
STACK CFI 16fc8 .cfa: sp 16 + .ra: .cfa -4 + ^ r7: .cfa -8 + ^ r6: .cfa -12 + ^ r4: .cfa -16 + ^
STACK CFI 16fca .cfa: r7 8 +
STACK CFI INIT 16fe0 60 .cfa: sp 0 +
STACK CFI 16fe2 .cfa: sp 16 + .ra: .cfa -4 + ^ r7: .cfa -8 + ^ r6: .cfa -12 + ^ r4: .cfa -16 + ^
STACK CFI 16fe4 .cfa: r7 8 +
STACK CFI INIT 17040 2c .cfa: sp 0 +
STACK CFI 17054 .cfa: sp 16 + .ra: .cfa -4 + ^ r7: .cfa -8 + ^ r6: .cfa -12 + ^ r4: .cfa -16 + ^
STACK CFI 17056 .cfa: r7 8 +
STACK CFI INIT 1706c 30 .cfa: sp 0 +
STACK CFI 17082 .cfa: sp 16 + .ra: .cfa -4 + ^ r7: .cfa -8 + ^ r6: .cfa -12 + ^ r4: .cfa -16 + ^
STACK CFI 17084 .cfa: r7 8 +
STACK CFI INIT 1709c 38 .cfa: sp 0 +
STACK CFI 1709e .cfa: sp 16 + .ra: .cfa -4 + ^ r7: .cfa -8 + ^ r6: .cfa -12 + ^ r4: .cfa -16 + ^
STACK CFI 170a0 .cfa: r7 8 +
STACK CFI INIT 170d4 30 .cfa: sp 0 +
STACK CFI INIT 17104 c .cfa: sp 0 +
STACK CFI INIT 17110 20 .cfa: sp 0 +
STACK CFI 1711c .cfa: sp 16 + .ra: .cfa -4 + ^ r7: .cfa -8 + ^ r6: .cfa -12 + ^ r4: .cfa -16 + ^
STACK CFI 1711e .cfa: r7 8 +
STACK CFI INIT 17130 124 .cfa: sp 0 +
STACK CFI 17132 .cfa: sp 20 + .ra: .cfa -4 + ^ r7: .cfa -8 + ^ r6: .cfa -12 + ^ r5: .cfa -16 + ^ r4: .cfa -20 + ^
STACK CFI 17134 .cfa: r7 8 +
STACK CFI 17138 r8: .cfa -24 + ^
STACK CFI INIT 17254 18 .cfa: sp 0 +
STACK CFI INIT 1726c c .cfa: sp 0 +
STACK CFI INIT 17278 3a .cfa: sp 0 +
STACK CFI 1727a .cfa: sp 16 + .ra: .cfa -4 + ^ r7: .cfa -8 + ^ r5: .cfa -12 + ^ r4: .cfa -16 + ^
STACK CFI 1727c .cfa: r7 8 +
STACK CFI INIT 172b4 48 .cfa: sp 0 +
STACK CFI 172b6 .cfa: sp 16 + .ra: .cfa -4 + ^ r7: .cfa -8 + ^ r5: .cfa -12 + ^ r4: .cfa -16 + ^
STACK CFI 172b8 .cfa: r7 8 +
STACK CFI INIT 172fc 54 .cfa: sp 0 +
STACK CFI 172fe .cfa: sp 16 + .ra: .cfa -4 + ^ r7: .cfa -8 + ^ r5: .cfa -12 + ^ r4: .cfa -16 + ^
STACK CFI 17300 .cfa: r7 8 +
STACK CFI INIT 17350 3c .cfa: sp 0 +
STACK CFI 17352 .cfa: sp 16 + .ra: .cfa -4 + ^ r7: .cfa -8 + ^ r6: .cfa -12 + ^ r4: .cfa -16 + ^
STACK CFI 17354 .cfa: r7 8 +
STACK CFI INIT 1738c 30 .cfa: sp 0 +
STACK CFI INIT 173bc 3a .cfa: sp 0 +
STACK CFI 173be .cfa: sp 16 + .ra: .cfa -4 + ^ r7: .cfa -8 + ^ r6: .cfa -12 + ^ r4: .cfa -16 + ^
STACK CFI 173c0 .cfa: r7 8 +
STACK CFI INIT 173f6 44 .cfa: sp 0 +
STACK CFI 173f8 .cfa: sp 16 + .ra: .cfa -4 + ^ r7: .cfa -8 + ^ r5: .cfa -12 + ^ r4: .cfa -16 + ^
STACK CFI 173fa .cfa: r7 8 +
STACK CFI INIT 1743c 154 .cfa: sp 0 +
STACK CFI 1743e .cfa: sp 16 + .ra: .cfa -4 + ^ r7: .cfa -8 + ^ r6: .cfa -12 + ^ r4: .cfa -16 + ^
STACK CFI 17440 .cfa: r7 8 +
STACK CFI INIT 17590 18 .cfa: sp 0 +
STACK CFI INIT 175a8 c .cfa: sp 0 +
STACK CFI INIT 175b4 2c .cfa: sp 0 +
STACK CFI 175c8 .cfa: sp 16 + .ra: .cfa -4 + ^ r7: .cfa -8 + ^ r6: .cfa -12 + ^ r4: .cfa -16 + ^
STACK CFI 175ca .cfa: r7 8 +
STACK CFI INIT 175e0 30 .cfa: sp 0 +
STACK CFI 175f6 .cfa: sp 16 + .ra: .cfa -4 + ^ r7: .cfa -8 + ^ r6: .cfa -12 + ^ r4: .cfa -16 + ^
STACK CFI 175f8 .cfa: r7 8 +
STACK CFI INIT 17610 38 .cfa: sp 0 +
STACK CFI 17612 .cfa: sp 16 + .ra: .cfa -4 + ^ r7: .cfa -8 + ^ r6: .cfa -12 + ^ r4: .cfa -16 + ^
STACK CFI 17614 .cfa: r7 8 +
STACK CFI INIT 17648 30 .cfa: sp 0 +
STACK CFI INIT 17678 c .cfa: sp 0 +
STACK CFI INIT 17684 20 .cfa: sp 0 +
STACK CFI 17690 .cfa: sp 16 + .ra: .cfa -4 + ^ r7: .cfa -8 + ^ r6: .cfa -12 + ^ r4: .cfa -16 + ^
STACK CFI 17692 .cfa: r7 8 +
STACK CFI INIT 176a4 a0 .cfa: sp 0 +
STACK CFI 176a6 .cfa: sp 20 + .ra: .cfa -4 + ^ r7: .cfa -8 + ^ r6: .cfa -12 + ^ r5: .cfa -16 + ^ r4: .cfa -20 + ^
STACK CFI 176a8 .cfa: r7 8 +
STACK CFI 176ac r11: .cfa -24 + ^
STACK CFI INIT 17744 18 .cfa: sp 0 +
STACK CFI INIT 1775c c .cfa: sp 0 +
STACK CFI INIT 17768 3a .cfa: sp 0 +
STACK CFI 1776a .cfa: sp 16 + .ra: .cfa -4 + ^ r7: .cfa -8 + ^ r5: .cfa -12 + ^ r4: .cfa -16 + ^
STACK CFI 1776c .cfa: r7 8 +
STACK CFI INIT 177a4 48 .cfa: sp 0 +
STACK CFI 177a6 .cfa: sp 16 + .ra: .cfa -4 + ^ r7: .cfa -8 + ^ r5: .cfa -12 + ^ r4: .cfa -16 + ^
STACK CFI 177a8 .cfa: r7 8 +
STACK CFI INIT 177ec 54 .cfa: sp 0 +
STACK CFI 177ee .cfa: sp 16 + .ra: .cfa -4 + ^ r7: .cfa -8 + ^ r5: .cfa -12 + ^ r4: .cfa -16 + ^
STACK CFI 177f0 .cfa: r7 8 +
STACK CFI INIT 17840 38 .cfa: sp 0 +
STACK CFI 17842 .cfa: sp 16 + .ra: .cfa -4 + ^ r7: .cfa -8 + ^ r6: .cfa -12 + ^ r4: .cfa -16 + ^
STACK CFI 17844 .cfa: r7 8 +
STACK CFI INIT 17878 30 .cfa: sp 0 +
STACK CFI INIT 178a8 3a .cfa: sp 0 +
STACK CFI 178aa .cfa: sp 16 + .ra: .cfa -4 + ^ r7: .cfa -8 + ^ r6: .cfa -12 + ^ r4: .cfa -16 + ^
STACK CFI 178ac .cfa: r7 8 +
STACK CFI INIT 178e2 44 .cfa: sp 0 +
STACK CFI 178e4 .cfa: sp 16 + .ra: .cfa -4 + ^ r7: .cfa -8 + ^ r5: .cfa -12 + ^ r4: .cfa -16 + ^
STACK CFI 178e6 .cfa: r7 8 +
STACK CFI INIT 17928 164 .cfa: sp 0 +
STACK CFI 1792a .cfa: sp 16 + .ra: .cfa -4 + ^ r7: .cfa -8 + ^ r5: .cfa -12 + ^ r4: .cfa -16 + ^
STACK CFI 1792c .cfa: r7 8 +
STACK CFI INIT 17a8c 18 .cfa: sp 0 +
STACK CFI INIT 17aa4 c .cfa: sp 0 +
STACK CFI INIT 17ab0 3a .cfa: sp 0 +
STACK CFI 17ab2 .cfa: sp 16 + .ra: .cfa -4 + ^ r7: .cfa -8 + ^ r5: .cfa -12 + ^ r4: .cfa -16 + ^
STACK CFI 17ab4 .cfa: r7 8 +
STACK CFI INIT 17aea 2 .cfa: sp 0 +
STACK CFI INIT 17aec 16 .cfa: sp 0 +
STACK CFI INIT 17b04 48 .cfa: sp 0 +
STACK CFI 17b06 .cfa: sp 16 + .ra: .cfa -4 + ^ r7: .cfa -8 + ^ r5: .cfa -12 + ^ r4: .cfa -16 + ^
STACK CFI 17b08 .cfa: r7 8 +
STACK CFI INIT 17b4c 54 .cfa: sp 0 +
STACK CFI 17b4e .cfa: sp 16 + .ra: .cfa -4 + ^ r7: .cfa -8 + ^ r5: .cfa -12 + ^ r4: .cfa -16 + ^
STACK CFI 17b50 .cfa: r7 8 +
STACK CFI INIT 17ba0 3c .cfa: sp 0 +
STACK CFI 17ba2 .cfa: sp 16 + .ra: .cfa -4 + ^ r7: .cfa -8 + ^ r6: .cfa -12 + ^ r4: .cfa -16 + ^
STACK CFI 17ba4 .cfa: r7 8 +
STACK CFI INIT 17bdc 30 .cfa: sp 0 +
STACK CFI INIT 17c0c 3a .cfa: sp 0 +
STACK CFI 17c0e .cfa: sp 16 + .ra: .cfa -4 + ^ r7: .cfa -8 + ^ r6: .cfa -12 + ^ r4: .cfa -16 + ^
STACK CFI 17c10 .cfa: r7 8 +
STACK CFI INIT 17c46 44 .cfa: sp 0 +
STACK CFI 17c48 .cfa: sp 16 + .ra: .cfa -4 + ^ r7: .cfa -8 + ^ r5: .cfa -12 + ^ r4: .cfa -16 + ^
STACK CFI 17c4a .cfa: r7 8 +
STACK CFI INIT 17c8c 16c .cfa: sp 0 +
STACK CFI 17c8e .cfa: sp 20 + .ra: .cfa -4 + ^ r7: .cfa -8 + ^ r6: .cfa -12 + ^ r5: .cfa -16 + ^ r4: .cfa -20 + ^
STACK CFI 17c90 .cfa: r7 8 +
STACK CFI 17c94 r11: .cfa -24 + ^
STACK CFI INIT 17df8 18 .cfa: sp 0 +
STACK CFI INIT 17e10 c .cfa: sp 0 +
STACK CFI INIT 17e1c 60 .cfa: sp 0 +
STACK CFI 17e1e .cfa: sp 16 + .ra: .cfa -4 + ^ r7: .cfa -8 + ^ r6: .cfa -12 + ^ r4: .cfa -16 + ^
STACK CFI 17e20 .cfa: r7 8 +
STACK CFI INIT 17e7c 2 .cfa: sp 0 +
STACK CFI INIT 17e7e 56 .cfa: sp 0 +
STACK CFI 17e86 .cfa: sp 16 + .ra: .cfa -4 + ^ r7: .cfa -8 + ^ r6: .cfa -12 + ^ r4: .cfa -16 + ^
STACK CFI 17e88 .cfa: r7 8 +
STACK CFI INIT 17ed4 30 .cfa: sp 0 +
STACK CFI 17ed6 .cfa: sp 16 + .ra: .cfa -4 + ^ r7: .cfa -8 + ^ r6: .cfa -12 + ^ r4: .cfa -16 + ^
STACK CFI 17ed8 .cfa: r7 8 +
STACK CFI INIT 17f04 34 .cfa: sp 0 +
STACK CFI 17f06 .cfa: sp 16 + .ra: .cfa -4 + ^ r7: .cfa -8 + ^ r6: .cfa -12 + ^ r4: .cfa -16 + ^
STACK CFI 17f08 .cfa: r7 8 +
STACK CFI INIT 17f38 88 .cfa: sp 0 +
STACK CFI 17f3a .cfa: sp 20 + .ra: .cfa -4 + ^ r7: .cfa -8 + ^ r6: .cfa -12 + ^ r5: .cfa -16 + ^ r4: .cfa -20 + ^
STACK CFI 17f3c .cfa: r7 8 +
STACK CFI 17f40 r11: .cfa -24 + ^
STACK CFI INIT 17fc0 7c .cfa: sp 0 +
STACK CFI 17fc2 .cfa: sp 20 + .ra: .cfa -4 + ^ r7: .cfa -8 + ^ r6: .cfa -12 + ^ r5: .cfa -16 + ^ r4: .cfa -20 + ^
STACK CFI 17fc4 .cfa: r7 8 +
STACK CFI 17fc8 r11: .cfa -24 + ^
STACK CFI INIT 1803c 24 .cfa: sp 0 +
STACK CFI 1803e .cfa: sp 16 + .ra: .cfa -4 + ^ r7: .cfa -8 + ^ r6: .cfa -12 + ^ r4: .cfa -16 + ^
STACK CFI 18040 .cfa: r7 8 +
STACK CFI INIT 18060 28 .cfa: sp 0 +
STACK CFI 18062 .cfa: sp 16 + .ra: .cfa -4 + ^ r7: .cfa -8 + ^ r6: .cfa -12 + ^ r4: .cfa -16 + ^
STACK CFI 18064 .cfa: r7 8 +
STACK CFI INIT 18088 258 .cfa: sp 0 +
STACK CFI 1808a .cfa: sp 20 + .ra: .cfa -4 + ^ r7: .cfa -8 + ^ r6: .cfa -12 + ^ r5: .cfa -16 + ^ r4: .cfa -20 + ^
STACK CFI 1808c .cfa: r7 8 +
STACK CFI 18090 r8: .cfa -24 + ^
STACK CFI INIT 182e0 18 .cfa: sp 0 +
STACK CFI INIT 182f8 c .cfa: sp 0 +
STACK CFI INIT 18304 34 .cfa: sp 0 +
STACK CFI 18306 .cfa: sp 16 + .ra: .cfa -4 + ^ r7: .cfa -8 + ^ r6: .cfa -12 + ^ r4: .cfa -16 + ^
STACK CFI 18308 .cfa: r7 8 +
STACK CFI INIT 18338 38 .cfa: sp 0 +
STACK CFI 1833a .cfa: sp 16 + .ra: .cfa -4 + ^ r7: .cfa -8 + ^ r6: .cfa -12 + ^ r4: .cfa -16 + ^
STACK CFI 1833c .cfa: r7 8 +
STACK CFI INIT 18370 54 .cfa: sp 0 +
STACK CFI 18372 .cfa: sp 16 + .ra: .cfa -4 + ^ r7: .cfa -8 + ^ r5: .cfa -12 + ^ r4: .cfa -16 + ^
STACK CFI 18374 .cfa: r7 8 +
STACK CFI INIT 183c4 44 .cfa: sp 0 +
STACK CFI 183c6 .cfa: sp 16 + .ra: .cfa -4 + ^ r7: .cfa -8 + ^ r6: .cfa -12 + ^ r4: .cfa -16 + ^
STACK CFI 183c8 .cfa: r7 8 +
STACK CFI INIT 18408 1e .cfa: sp 0 +
STACK CFI INIT 18426 2a .cfa: sp 0 +
STACK CFI 18428 .cfa: sp 16 + .ra: .cfa -4 + ^ r7: .cfa -8 + ^ r6: .cfa -12 + ^ r4: .cfa -16 + ^
STACK CFI 1842a .cfa: r7 8 +
STACK CFI INIT 18450 64 .cfa: sp 0 +
STACK CFI 18452 .cfa: sp 8 + .ra: .cfa -4 + ^ r7: .cfa -8 + ^
STACK CFI 18454 .cfa: r7 8 +
STACK CFI INIT 184b4 18 .cfa: sp 0 +
STACK CFI INIT 184cc c .cfa: sp 0 +
STACK CFI INIT 184d8 d8 .cfa: sp 0 +
STACK CFI 184da .cfa: sp 20 + .ra: .cfa -4 + ^ r7: .cfa -8 + ^ r6: .cfa -12 + ^ r5: .cfa -16 + ^ r4: .cfa -20 + ^
STACK CFI 184dc .cfa: r7 8 +
STACK CFI 184e0 r10: .cfa -24 + ^ r9: .cfa -28 + ^ r8: .cfa -32 + ^
STACK CFI INIT 185b0 2c .cfa: sp 0 +
STACK CFI 185c2 .cfa: sp 16 + .ra: .cfa -4 + ^ r7: .cfa -8 + ^ r6: .cfa -12 + ^ r4: .cfa -16 + ^
STACK CFI 185c4 .cfa: r7 8 +
STACK CFI INIT 185dc 30 .cfa: sp 0 +
STACK CFI 185f0 .cfa: sp 16 + .ra: .cfa -4 + ^ r7: .cfa -8 + ^ r6: .cfa -12 + ^ r4: .cfa -16 + ^
STACK CFI 185f2 .cfa: r7 8 +
STACK CFI INIT 1860c 58 .cfa: sp 0 +
STACK CFI 1860e .cfa: sp 16 + .ra: .cfa -4 + ^ r7: .cfa -8 + ^ r5: .cfa -12 + ^ r4: .cfa -16 + ^
STACK CFI 18610 .cfa: r7 8 +
STACK CFI INIT 18664 44 .cfa: sp 0 +
STACK CFI 18666 .cfa: sp 16 + .ra: .cfa -4 + ^ r7: .cfa -8 + ^ r5: .cfa -12 + ^ r4: .cfa -16 + ^
STACK CFI 18668 .cfa: r7 8 +
STACK CFI INIT 186a8 e .cfa: sp 0 +
STACK CFI INIT 186b6 22 .cfa: sp 0 +
STACK CFI 186c2 .cfa: sp 16 + .ra: .cfa -4 + ^ r7: .cfa -8 + ^ r6: .cfa -12 + ^ r4: .cfa -16 + ^
STACK CFI 186c4 .cfa: r7 8 +
STACK CFI INIT 186d8 568 .cfa: sp 0 +
STACK CFI 186da .cfa: sp 20 + .ra: .cfa -4 + ^ r7: .cfa -8 + ^ r6: .cfa -12 + ^ r5: .cfa -16 + ^ r4: .cfa -20 + ^
STACK CFI 186dc .cfa: r7 8 +
STACK CFI 186e0 r11: .cfa -24 + ^ r10: .cfa -28 + ^ r9: .cfa -32 + ^ r8: .cfa -36 + ^
STACK CFI INIT 18c40 18 .cfa: sp 0 +
STACK CFI INIT 18c58 c .cfa: sp 0 +
STACK CFI INIT 18c64 2c .cfa: sp 0 +
STACK CFI 18c76 .cfa: sp 16 + .ra: .cfa -4 + ^ r7: .cfa -8 + ^ r6: .cfa -12 + ^ r4: .cfa -16 + ^
STACK CFI 18c78 .cfa: r7 8 +
STACK CFI INIT 18c90 30 .cfa: sp 0 +
STACK CFI 18ca4 .cfa: sp 16 + .ra: .cfa -4 + ^ r7: .cfa -8 + ^ r6: .cfa -12 + ^ r4: .cfa -16 + ^
STACK CFI 18ca6 .cfa: r7 8 +
STACK CFI INIT 18cc0 54 .cfa: sp 0 +
STACK CFI 18cc2 .cfa: sp 16 + .ra: .cfa -4 + ^ r7: .cfa -8 + ^ r5: .cfa -12 + ^ r4: .cfa -16 + ^
STACK CFI 18cc4 .cfa: r7 8 +
STACK CFI INIT 18d14 40 .cfa: sp 0 +
STACK CFI 18d16 .cfa: sp 16 + .ra: .cfa -4 + ^ r7: .cfa -8 + ^ r5: .cfa -12 + ^ r4: .cfa -16 + ^
STACK CFI 18d18 .cfa: r7 8 +
STACK CFI INIT 18d54 e .cfa: sp 0 +
STACK CFI INIT 18d62 22 .cfa: sp 0 +
STACK CFI 18d6e .cfa: sp 16 + .ra: .cfa -4 + ^ r7: .cfa -8 + ^ r6: .cfa -12 + ^ r4: .cfa -16 + ^
STACK CFI 18d70 .cfa: r7 8 +
STACK CFI INIT 18d84 2f8 .cfa: sp 0 +
STACK CFI 18d86 .cfa: sp 16 + .ra: .cfa -4 + ^ r7: .cfa -8 + ^ r5: .cfa -12 + ^ r4: .cfa -16 + ^
STACK CFI 18d88 .cfa: r7 8 +
STACK CFI INIT 1907c 18 .cfa: sp 0 +
STACK CFI INIT 19094 c .cfa: sp 0 +
STACK CFI INIT 190a0 44 .cfa: sp 0 +
STACK CFI 190a2 .cfa: sp 16 + .ra: .cfa -4 + ^ r7: .cfa -8 + ^ r5: .cfa -12 + ^ r4: .cfa -16 + ^
STACK CFI 190a4 .cfa: r7 8 +
STACK CFI INIT 190e4 40 .cfa: sp 0 +
STACK CFI 190e6 .cfa: sp 16 + .ra: .cfa -4 + ^ r7: .cfa -8 + ^ r5: .cfa -12 + ^ r4: .cfa -16 + ^
STACK CFI 190e8 .cfa: r7 8 +
STACK CFI INIT 19124 10 .cfa: sp 0 +
STACK CFI INIT 19134 1c .cfa: sp 0 +
STACK CFI 19136 .cfa: sp 8 + .ra: .cfa -4 + ^ r7: .cfa -8 + ^
STACK CFI 19138 .cfa: r7 8 +
STACK CFI INIT 19150 2 .cfa: sp 0 +
STACK CFI INIT 19152 4 .cfa: sp 0 +
STACK CFI INIT 19158 2d0 .cfa: sp 0 +
STACK CFI 1915a .cfa: sp 20 + .ra: .cfa -4 + ^ r7: .cfa -8 + ^ r6: .cfa -12 + ^ r5: .cfa -16 + ^ r4: .cfa -20 + ^
STACK CFI 1915c .cfa: r7 8 +
STACK CFI 19160 r11: .cfa -24 + ^ r10: .cfa -28 + ^ r9: .cfa -32 + ^ r8: .cfa -36 + ^
STACK CFI INIT 19428 20 .cfa: sp 0 +
STACK CFI 1942a .cfa: sp 16 + .ra: .cfa -4 + ^ r7: .cfa -8 + ^ r6: .cfa -12 + ^ r4: .cfa -16 + ^
STACK CFI 1942c .cfa: r7 8 +
STACK CFI INIT 19450 330 .cfa: sp 0 +
STACK CFI 19452 .cfa: sp 20 + .ra: .cfa -4 + ^ r7: .cfa -8 + ^ r6: .cfa -12 + ^ r5: .cfa -16 + ^ r4: .cfa -20 + ^
STACK CFI 19454 .cfa: r7 8 +
STACK CFI 19458 r10: .cfa -24 + ^ r9: .cfa -28 + ^ r8: .cfa -32 + ^
STACK CFI INIT 19780 3a .cfa: sp 0 +
STACK CFI 19782 .cfa: sp 16 + .ra: .cfa -4 + ^ r7: .cfa -8 + ^ r5: .cfa -12 + ^ r4: .cfa -16 + ^
STACK CFI 19784 .cfa: r7 8 +
STACK CFI INIT 197bc 60 .cfa: sp 0 +
STACK CFI 197be .cfa: sp 16 + .ra: .cfa -4 + ^ r7: .cfa -8 + ^ r6: .cfa -12 + ^ r4: .cfa -16 + ^
STACK CFI 197c0 .cfa: r7 8 +
STACK CFI INIT 1981c 3e .cfa: sp 0 +
STACK CFI 1981e .cfa: sp 20 + .ra: .cfa -4 + ^ r7: .cfa -8 + ^ r6: .cfa -12 + ^ r5: .cfa -16 + ^ r4: .cfa -20 + ^
STACK CFI 19820 .cfa: r7 8 +
STACK CFI 19824 r11: .cfa -24 + ^
STACK CFI INIT 1985a 2 .cfa: sp 0 +
STACK CFI INIT 1985c f8 .cfa: sp 0 +
STACK CFI 1985e .cfa: sp 20 + .ra: .cfa -4 + ^ r7: .cfa -8 + ^ r6: .cfa -12 + ^ r5: .cfa -16 + ^ r4: .cfa -20 + ^
STACK CFI 19860 .cfa: r7 8 +
STACK CFI 19864 r8: .cfa -24 + ^
STACK CFI INIT 19954 d8 .cfa: sp 0 +
STACK CFI 19956 .cfa: sp 20 + .ra: .cfa -4 + ^ r7: .cfa -8 + ^ r6: .cfa -12 + ^ r5: .cfa -16 + ^ r4: .cfa -20 + ^
STACK CFI 19958 .cfa: r7 8 +
STACK CFI 1995c r11: .cfa -24 + ^ r10: .cfa -28 + ^ r9: .cfa -32 + ^ r8: .cfa -36 + ^
STACK CFI INIT 19a2c 68 .cfa: sp 0 +
STACK CFI 19a2e .cfa: sp 20 + .ra: .cfa -4 + ^ r7: .cfa -8 + ^ r6: .cfa -12 + ^ r5: .cfa -16 + ^ r4: .cfa -20 + ^
STACK CFI 19a30 .cfa: r7 8 +
STACK CFI 19a34 r11: .cfa -24 + ^
STACK CFI INIT 19a94 10 .cfa: sp 0 +
STACK CFI 19a96 .cfa: sp 8 + .ra: .cfa -4 + ^ r7: .cfa -8 + ^
STACK CFI 19a98 .cfa: r7 8 +
STACK CFI INIT 19aa4 108 .cfa: sp 0 +
STACK CFI 19aa6 .cfa: sp 20 + .ra: .cfa -4 + ^ r7: .cfa -8 + ^ r6: .cfa -12 + ^ r5: .cfa -16 + ^ r4: .cfa -20 + ^
STACK CFI 19aa8 .cfa: r7 8 +
STACK CFI 19aac r11: .cfa -24 + ^ r10: .cfa -28 + ^ r9: .cfa -32 + ^ r8: .cfa -36 + ^
STACK CFI INIT 19bac 110 .cfa: sp 0 +
STACK CFI 19bae .cfa: sp 20 + .ra: .cfa -4 + ^ r7: .cfa -8 + ^ r6: .cfa -12 + ^ r5: .cfa -16 + ^ r4: .cfa -20 + ^
STACK CFI 19bb0 .cfa: r7 8 +
STACK CFI 19bb4 r11: .cfa -24 + ^ r10: .cfa -28 + ^ r9: .cfa -32 + ^ r8: .cfa -36 + ^
STACK CFI INIT 19cbc 28 .cfa: sp 0 +
STACK CFI 19cbe .cfa: sp 8 + .ra: .cfa -4 + ^ r7: .cfa -8 + ^
STACK CFI 19cc0 .cfa: r7 8 +
STACK CFI INIT 19ce4 ce .cfa: sp 0 +
STACK CFI 19ce6 .cfa: sp 20 + .ra: .cfa -4 + ^ r7: .cfa -8 + ^ r6: .cfa -12 + ^ r5: .cfa -16 + ^ r4: .cfa -20 + ^
STACK CFI 19ce8 .cfa: r7 8 +
STACK CFI 19cec r10: .cfa -24 + ^ r9: .cfa -28 + ^ r8: .cfa -32 + ^
STACK CFI INIT 19db2 e0 .cfa: sp 0 +
STACK CFI 19db4 .cfa: sp 20 + .ra: .cfa -4 + ^ r7: .cfa -8 + ^ r6: .cfa -12 + ^ r5: .cfa -16 + ^ r4: .cfa -20 + ^
STACK CFI 19db6 .cfa: r7 8 +
STACK CFI 19dba r11: .cfa -24 + ^ r9: .cfa -28 + ^ r8: .cfa -32 + ^
STACK CFI INIT 19e94 164 .cfa: sp 0 +
STACK CFI 19e96 .cfa: sp 20 + .ra: .cfa -4 + ^ r7: .cfa -8 + ^ r6: .cfa -12 + ^ r5: .cfa -16 + ^ r4: .cfa -20 + ^
STACK CFI 19e98 .cfa: r7 8 +
STACK CFI 19e9c r10: .cfa -24 + ^ r9: .cfa -28 + ^ r8: .cfa -32 + ^
STACK CFI INIT 19ff8 3c .cfa: sp 0 +
STACK CFI 19ffa .cfa: sp 16 + .ra: .cfa -4 + ^ r7: .cfa -8 + ^ r5: .cfa -12 + ^ r4: .cfa -16 + ^
STACK CFI 19ffc .cfa: r7 8 +
STACK CFI INIT 1a034 10 .cfa: sp 0 +
STACK CFI 1a036 .cfa: sp 8 + .ra: .cfa -4 + ^ r7: .cfa -8 + ^
STACK CFI 1a038 .cfa: r7 8 +
STACK CFI INIT 1a044 2 .cfa: sp 0 +
STACK CFI INIT 1a046 e .cfa: sp 0 +
STACK CFI INIT 1a054 c0 .cfa: sp 0 +
STACK CFI 1a056 .cfa: sp 20 + .ra: .cfa -4 + ^ r7: .cfa -8 + ^ r6: .cfa -12 + ^ r5: .cfa -16 + ^ r4: .cfa -20 + ^
STACK CFI 1a058 .cfa: r7 8 +
STACK CFI 1a05c r10: .cfa -24 + ^ r9: .cfa -28 + ^ r8: .cfa -32 + ^
STACK CFI INIT 1a114 82 .cfa: sp 0 +
STACK CFI 1a116 .cfa: sp 20 + .ra: .cfa -4 + ^ r7: .cfa -8 + ^ r6: .cfa -12 + ^ r5: .cfa -16 + ^ r4: .cfa -20 + ^
STACK CFI 1a118 .cfa: r7 8 +
STACK CFI 1a11c r11: .cfa -24 + ^
STACK CFI INIT 1a196 274 .cfa: sp 0 +
STACK CFI 1a198 .cfa: sp 20 + .ra: .cfa -4 + ^ r7: .cfa -8 + ^ r6: .cfa -12 + ^ r5: .cfa -16 + ^ r4: .cfa -20 + ^
STACK CFI 1a19a .cfa: r7 8 +
STACK CFI 1a19e r8: .cfa -24 + ^
STACK CFI INIT 1a40a 5e .cfa: sp 0 +
STACK CFI 1a412 .cfa: sp 16 + .ra: .cfa -4 + ^ r7: .cfa -8 + ^ r5: .cfa -12 + ^ r4: .cfa -16 + ^
STACK CFI 1a414 .cfa: r7 8 +
STACK CFI INIT 1a468 20 .cfa: sp 0 +
STACK CFI 1a46a .cfa: sp 16 + .ra: .cfa -4 + ^ r7: .cfa -8 + ^ r5: .cfa -12 + ^ r4: .cfa -16 + ^
STACK CFI 1a46c .cfa: r7 8 +
STACK CFI INIT 1a488 3a .cfa: sp 0 +
STACK CFI 1a48a .cfa: sp 16 + .ra: .cfa -4 + ^ r7: .cfa -8 + ^ r5: .cfa -12 + ^ r4: .cfa -16 + ^
STACK CFI 1a48c .cfa: r7 8 +
STACK CFI INIT 1a4c2 46 .cfa: sp 0 +
STACK CFI 1a4c4 .cfa: sp 16 + .ra: .cfa -4 + ^ r7: .cfa -8 + ^ r5: .cfa -12 + ^ r4: .cfa -16 + ^
STACK CFI 1a4c6 .cfa: r7 8 +
STACK CFI INIT 1a508 ba .cfa: sp 0 +
STACK CFI 1a50a .cfa: sp 20 + .ra: .cfa -4 + ^ r7: .cfa -8 + ^ r6: .cfa -12 + ^ r5: .cfa -16 + ^ r4: .cfa -20 + ^
STACK CFI 1a50c .cfa: r7 8 +
STACK CFI 1a510 r11: .cfa -24 + ^ r10: .cfa -28 + ^ r9: .cfa -32 + ^ r8: .cfa -36 + ^
STACK CFI INIT 1a5c4 2d0 .cfa: sp 0 +
STACK CFI 1a5c6 .cfa: sp 20 + .ra: .cfa -4 + ^ r7: .cfa -8 + ^ r6: .cfa -12 + ^ r5: .cfa -16 + ^ r4: .cfa -20 + ^
STACK CFI 1a5c8 .cfa: r7 8 +
STACK CFI 1a5cc r11: .cfa -24 + ^ r10: .cfa -28 + ^ r9: .cfa -32 + ^ r8: .cfa -36 + ^
STACK CFI INIT 1a894 20 .cfa: sp 0 +
STACK CFI 1a896 .cfa: sp 16 + .ra: .cfa -4 + ^ r7: .cfa -8 + ^ r6: .cfa -12 + ^ r4: .cfa -16 + ^
STACK CFI 1a898 .cfa: r7 8 +
STACK CFI INIT 1a8c0 310 .cfa: sp 0 +
STACK CFI 1a8c2 .cfa: sp 20 + .ra: .cfa -4 + ^ r7: .cfa -8 + ^ r6: .cfa -12 + ^ r5: .cfa -16 + ^ r4: .cfa -20 + ^
STACK CFI 1a8c4 .cfa: r7 8 +
STACK CFI 1a8c8 r11: .cfa -24 + ^ r9: .cfa -28 + ^ r8: .cfa -32 + ^
STACK CFI INIT 1abd0 2 .cfa: sp 0 +
STACK CFI INIT 1abd4 280 .cfa: sp 0 +
STACK CFI 1abd6 .cfa: sp 20 + .ra: .cfa -4 + ^ r7: .cfa -8 + ^ r6: .cfa -12 + ^ r5: .cfa -16 + ^ r4: .cfa -20 + ^
STACK CFI 1abd8 .cfa: r7 8 +
STACK CFI 1abdc r8: .cfa -24 + ^
STACK CFI INIT 1ae54 c4 .cfa: sp 0 +
STACK CFI 1ae56 .cfa: sp 20 + .ra: .cfa -4 + ^ r7: .cfa -8 + ^ r6: .cfa -12 + ^ r5: .cfa -16 + ^ r4: .cfa -20 + ^
STACK CFI 1ae58 .cfa: r7 8 +
STACK CFI 1ae5c r10: .cfa -24 + ^ r9: .cfa -28 + ^ r8: .cfa -32 + ^
STACK CFI INIT 1af18 2d0 .cfa: sp 0 +
STACK CFI 1af1a .cfa: sp 20 + .ra: .cfa -4 + ^ r7: .cfa -8 + ^ r6: .cfa -12 + ^ r5: .cfa -16 + ^ r4: .cfa -20 + ^
STACK CFI 1af1c .cfa: r7 8 +
STACK CFI 1af20 r11: .cfa -24 + ^ r10: .cfa -28 + ^ r9: .cfa -32 + ^ r8: .cfa -36 + ^
STACK CFI INIT 1b1e8 20 .cfa: sp 0 +
STACK CFI 1b1ea .cfa: sp 16 + .ra: .cfa -4 + ^ r7: .cfa -8 + ^ r6: .cfa -12 + ^ r4: .cfa -16 + ^
STACK CFI 1b1ec .cfa: r7 8 +
STACK CFI INIT 1b208 2c4 .cfa: sp 0 +
STACK CFI 1b20a .cfa: sp 20 + .ra: .cfa -4 + ^ r7: .cfa -8 + ^ r6: .cfa -12 + ^ r5: .cfa -16 + ^ r4: .cfa -20 + ^
STACK CFI 1b20c .cfa: r7 8 +
STACK CFI 1b210 r8: .cfa -24 + ^
STACK CFI INIT 1b4cc 2 .cfa: sp 0 +
STACK CFI INIT 1b4d0 5ec .cfa: sp 0 +
STACK CFI 1b4d2 .cfa: sp 20 + .ra: .cfa -4 + ^ r7: .cfa -8 + ^ r6: .cfa -12 + ^ r5: .cfa -16 + ^ r4: .cfa -20 + ^
STACK CFI 1b4d4 .cfa: r7 8 +
STACK CFI 1b4d8 r11: .cfa -24 + ^ r10: .cfa -28 + ^ r9: .cfa -32 + ^ r8: .cfa -36 + ^
STACK CFI INIT 1babc 2f4 .cfa: sp 0 +
STACK CFI 1babe .cfa: sp 20 + .ra: .cfa -4 + ^ r7: .cfa -8 + ^ r6: .cfa -12 + ^ r5: .cfa -16 + ^ r4: .cfa -20 + ^
STACK CFI 1bac0 .cfa: r7 8 +
STACK CFI 1bac4 r11: .cfa -24 + ^ r10: .cfa -28 + ^ r9: .cfa -32 + ^ r8: .cfa -36 + ^
STACK CFI INIT 1bdb0 20 .cfa: sp 0 +
STACK CFI 1bdb2 .cfa: sp 16 + .ra: .cfa -4 + ^ r7: .cfa -8 + ^ r6: .cfa -12 + ^ r4: .cfa -16 + ^
STACK CFI 1bdb4 .cfa: r7 8 +
STACK CFI INIT 1bdd0 588 .cfa: sp 0 +
STACK CFI 1bdd2 .cfa: sp 20 + .ra: .cfa -4 + ^ r7: .cfa -8 + ^ r6: .cfa -12 + ^ r5: .cfa -16 + ^ r4: .cfa -20 + ^
STACK CFI 1bdd4 .cfa: r7 8 +
STACK CFI 1bdd8 r10: .cfa -24 + ^ r9: .cfa -28 + ^ r8: .cfa -32 + ^
STACK CFI INIT 1c358 2 .cfa: sp 0 +
STACK CFI INIT 1c35c 7c .cfa: sp 0 +
STACK CFI 1c35e .cfa: sp 16 + .ra: .cfa -4 + ^ r7: .cfa -8 + ^ r6: .cfa -12 + ^ r4: .cfa -16 + ^
STACK CFI 1c360 .cfa: r7 8 +
STACK CFI INIT 1c3d8 19c .cfa: sp 0 +
STACK CFI 1c3da .cfa: sp 20 + .ra: .cfa -4 + ^ r7: .cfa -8 + ^ r6: .cfa -12 + ^ r5: .cfa -16 + ^ r4: .cfa -20 + ^
STACK CFI 1c3dc .cfa: r7 8 +
STACK CFI 1c3e0 r11: .cfa -24 + ^ r10: .cfa -28 + ^ r9: .cfa -32 + ^ r8: .cfa -36 + ^
STACK CFI INIT 1c574 14 .cfa: sp 0 +
STACK CFI 1c576 .cfa: sp 8 + .ra: .cfa -4 + ^ r7: .cfa -8 + ^
STACK CFI 1c578 .cfa: r7 8 +
STACK CFI INIT 1c588 80 .cfa: sp 0 +
STACK CFI 1c58a .cfa: sp 16 + .ra: .cfa -4 + ^ r7: .cfa -8 + ^ r6: .cfa -12 + ^ r4: .cfa -16 + ^
STACK CFI 1c58c .cfa: r7 8 +
STACK CFI INIT 1c608 14 .cfa: sp 0 +
STACK CFI 1c60a .cfa: sp 8 + .ra: .cfa -4 + ^ r7: .cfa -8 + ^
STACK CFI 1c60c .cfa: r7 8 +
STACK CFI INIT 0 20 .cfa: sp 0 +
STACK CFI 2 .cfa: sp 16 + .ra: .cfa -4 + ^ r7: .cfa -8 + ^ r6: .cfa -12 + ^ r4: .cfa -16 + ^
STACK CFI 4 .cfa: r7 8 +
STACK CFI INIT 1c61c 20 .cfa: sp 0 +
STACK CFI 1c61e .cfa: sp 16 + .ra: .cfa -4 + ^ r7: .cfa -8 + ^ r6: .cfa -12 + ^ r4: .cfa -16 + ^
STACK CFI 1c620 .cfa: r7 8 +
STACK CFI INIT 1c63c 28 .cfa: sp 0 +
STACK CFI 1c63e .cfa: sp 16 + .ra: .cfa -4 + ^ r7: .cfa -8 + ^ r5: .cfa -12 + ^ r4: .cfa -16 + ^
STACK CFI 1c640 .cfa: r7 8 +
STACK CFI INIT 1c664 cc .cfa: sp 0 +
STACK CFI 1c666 .cfa: sp 16 + .ra: .cfa -4 + ^ r7: .cfa -8 + ^ r6: .cfa -12 + ^ r4: .cfa -16 + ^
STACK CFI 1c668 .cfa: r7 8 +
STACK CFI INIT 1c730 48 .cfa: sp 0 +
STACK CFI 1c732 .cfa: sp 16 + .ra: .cfa -4 + ^ r7: .cfa -8 + ^ r5: .cfa -12 + ^ r4: .cfa -16 + ^
STACK CFI 1c734 .cfa: r7 8 +
STACK CFI INIT 1c778 60 .cfa: sp 0 +
STACK CFI 1c77a .cfa: sp 16 + .ra: .cfa -4 + ^ r7: .cfa -8 + ^ r6: .cfa -12 + ^ r4: .cfa -16 + ^
STACK CFI 1c77c .cfa: r7 8 +
STACK CFI INIT 1c7d8 46 .cfa: sp 0 +
STACK CFI 1c7da .cfa: sp 16 + .ra: .cfa -4 + ^ r7: .cfa -8 + ^ r5: .cfa -12 + ^ r4: .cfa -16 + ^
STACK CFI 1c7dc .cfa: r7 8 +
STACK CFI INIT 1c81e 10 .cfa: sp 0 +
STACK CFI 1c820 .cfa: sp 8 + .ra: .cfa -4 + ^ r7: .cfa -8 + ^
STACK CFI 1c822 .cfa: r7 8 +
STACK CFI INIT 1c82e 10 .cfa: sp 0 +
STACK CFI 1c830 .cfa: sp 8 + .ra: .cfa -4 + ^ r7: .cfa -8 + ^
STACK CFI 1c832 .cfa: r7 8 +
STACK CFI INIT 1c83e 8 .cfa: sp 0 +
STACK CFI INIT 1c846 10 .cfa: sp 0 +
STACK CFI 1c848 .cfa: sp 8 + .ra: .cfa -4 + ^ r7: .cfa -8 + ^
STACK CFI 1c84a .cfa: r7 8 +
STACK CFI INIT 1c856 14 .cfa: sp 0 +
STACK CFI 1c858 .cfa: sp 8 + .ra: .cfa -4 + ^ r7: .cfa -8 + ^
STACK CFI 1c85a .cfa: r7 8 +
STACK CFI INIT 1c86c 258 .cfa: sp 0 +
STACK CFI 1c86e .cfa: sp 20 + .ra: .cfa -4 + ^ r7: .cfa -8 + ^ r6: .cfa -12 + ^ r5: .cfa -16 + ^ r4: .cfa -20 + ^
STACK CFI 1c870 .cfa: r7 8 +
STACK CFI 1c874 r11: .cfa -24 + ^ r10: .cfa -28 + ^ r9: .cfa -32 + ^ r8: .cfa -36 + ^
STACK CFI INIT 1cac4 8 .cfa: sp 0 +
STACK CFI INIT 1cacc 10 .cfa: sp 0 +
STACK CFI 1cace .cfa: sp 8 + .ra: .cfa -4 + ^ r7: .cfa -8 + ^
STACK CFI 1cad0 .cfa: r7 8 +
STACK CFI INIT 1cadc 14 .cfa: sp 0 +
STACK CFI 1cade .cfa: sp 8 + .ra: .cfa -4 + ^ r7: .cfa -8 + ^
STACK CFI 1cae0 .cfa: r7 8 +
STACK CFI INIT 1caf0 1e4 .cfa: sp 0 +
STACK CFI 1caf2 .cfa: sp 20 + .ra: .cfa -4 + ^ r7: .cfa -8 + ^ r6: .cfa -12 + ^ r5: .cfa -16 + ^ r4: .cfa -20 + ^
STACK CFI 1caf4 .cfa: r7 8 +
STACK CFI 1caf8 r8: .cfa -24 + ^
STACK CFI INIT 1ccd4 8 .cfa: sp 0 +
STACK CFI INIT 1ccdc 10 .cfa: sp 0 +
STACK CFI 1ccde .cfa: sp 8 + .ra: .cfa -4 + ^ r7: .cfa -8 + ^
STACK CFI 1cce0 .cfa: r7 8 +
STACK CFI INIT 1ccec 14 .cfa: sp 0 +
STACK CFI 1ccee .cfa: sp 8 + .ra: .cfa -4 + ^ r7: .cfa -8 + ^
STACK CFI 1ccf0 .cfa: r7 8 +
STACK CFI INIT 0 74 .cfa: sp 0 +
STACK CFI 2 .cfa: sp 16 + .ra: .cfa -4 + ^ r7: .cfa -8 + ^ r5: .cfa -12 + ^ r4: .cfa -16 + ^
STACK CFI 4 .cfa: r7 8 +
STACK CFI INIT 1cd00 8 .cfa: sp 0 +
STACK CFI INIT 1cd08 10 .cfa: sp 0 +
STACK CFI 1cd0a .cfa: sp 8 + .ra: .cfa -4 + ^ r7: .cfa -8 + ^
STACK CFI 1cd0c .cfa: r7 8 +
STACK CFI INIT 1cd18 14 .cfa: sp 0 +
STACK CFI 1cd1a .cfa: sp 8 + .ra: .cfa -4 + ^ r7: .cfa -8 + ^
STACK CFI 1cd1c .cfa: r7 8 +
STACK CFI INIT 1cd2c 11c .cfa: sp 0 +
STACK CFI 1cd2e .cfa: sp 20 + .ra: .cfa -4 + ^ r7: .cfa -8 + ^ r6: .cfa -12 + ^ r5: .cfa -16 + ^ r4: .cfa -20 + ^
STACK CFI 1cd30 .cfa: r7 8 +
STACK CFI 1cd34 r11: .cfa -24 + ^ r10: .cfa -28 + ^ r9: .cfa -32 + ^ r8: .cfa -36 + ^
STACK CFI INIT 1ce50 100 .cfa: sp 0 +
STACK CFI 1ce52 .cfa: sp 20 + .ra: .cfa -4 + ^ r7: .cfa -8 + ^ r6: .cfa -12 + ^ r5: .cfa -16 + ^ r4: .cfa -20 + ^
STACK CFI 1ce54 .cfa: r7 8 +
STACK CFI 1ce58 r10: .cfa -24 + ^ r9: .cfa -28 + ^ r8: .cfa -32 + ^
STACK CFI INIT 0 70 .cfa: sp 0 +
STACK CFI 2 .cfa: sp 20 + .ra: .cfa -4 + ^ r7: .cfa -8 + ^ r6: .cfa -12 + ^ r5: .cfa -16 + ^ r4: .cfa -20 + ^
STACK CFI 4 .cfa: r7 8 +
STACK CFI 8 r11: .cfa -24 + ^
STACK CFI INIT 0 20 .cfa: sp 0 +
STACK CFI 2 .cfa: sp 16 + .ra: .cfa -4 + ^ r7: .cfa -8 + ^ r6: .cfa -12 + ^ r4: .cfa -16 + ^
STACK CFI 4 .cfa: r7 8 +
STACK CFI INIT 0 18 .cfa: sp 0 +
STACK CFI 2 .cfa: sp 8 + .ra: .cfa -4 + ^ r7: .cfa -8 + ^
STACK CFI 4 .cfa: r7 8 +
STACK CFI INIT 1cf50 2 .cfa: sp 0 +
STACK CFI INIT 1cf54 280 .cfa: sp 0 +
STACK CFI 1cf56 .cfa: sp 20 + .ra: .cfa -4 + ^ r7: .cfa -8 + ^ r6: .cfa -12 + ^ r5: .cfa -16 + ^ r4: .cfa -20 + ^
STACK CFI 1cf58 .cfa: r7 8 +
STACK CFI 1cf5c r11: .cfa -24 + ^ r10: .cfa -28 + ^ r9: .cfa -32 + ^ r8: .cfa -36 + ^
STACK CFI INIT 1d1d4 280 .cfa: sp 0 +
STACK CFI 1d1d6 .cfa: sp 20 + .ra: .cfa -4 + ^ r7: .cfa -8 + ^ r6: .cfa -12 + ^ r5: .cfa -16 + ^ r4: .cfa -20 + ^
STACK CFI 1d1d8 .cfa: r7 8 +
STACK CFI 1d1dc r11: .cfa -24 + ^ r10: .cfa -28 + ^ r9: .cfa -32 + ^ r8: .cfa -36 + ^
STACK CFI INIT 1d454 214 .cfa: sp 0 +
STACK CFI 1d456 .cfa: sp 20 + .ra: .cfa -4 + ^ r7: .cfa -8 + ^ r6: .cfa -12 + ^ r5: .cfa -16 + ^ r4: .cfa -20 + ^
STACK CFI 1d458 .cfa: r7 8 +
STACK CFI 1d45c r11: .cfa -24 + ^ r10: .cfa -28 + ^ r9: .cfa -32 + ^ r8: .cfa -36 + ^
STACK CFI INIT 1d668 25c .cfa: sp 0 +
STACK CFI 1d66a .cfa: sp 20 + .ra: .cfa -4 + ^ r7: .cfa -8 + ^ r6: .cfa -12 + ^ r5: .cfa -16 + ^ r4: .cfa -20 + ^
STACK CFI 1d66c .cfa: r7 8 +
STACK CFI 1d670 r11: .cfa -24 + ^ r10: .cfa -28 + ^ r9: .cfa -32 + ^ r8: .cfa -36 + ^
STACK CFI INIT 1d8c4 410 .cfa: sp 0 +
STACK CFI 1d8c6 .cfa: sp 20 + .ra: .cfa -4 + ^ r7: .cfa -8 + ^ r6: .cfa -12 + ^ r5: .cfa -16 + ^ r4: .cfa -20 + ^
STACK CFI 1d8c8 .cfa: r7 8 +
STACK CFI 1d8cc r11: .cfa -24 + ^ r10: .cfa -28 + ^ r9: .cfa -32 + ^ r8: .cfa -36 + ^
STACK CFI INIT 1dcd4 f8 .cfa: sp 0 +
STACK CFI 1dcd6 .cfa: sp 20 + .ra: .cfa -4 + ^ r7: .cfa -8 + ^ r6: .cfa -12 + ^ r5: .cfa -16 + ^ r4: .cfa -20 + ^
STACK CFI 1dcd8 .cfa: r7 8 +
STACK CFI 1dcdc r8: .cfa -24 + ^
STACK CFI INIT 1ddcc 104 .cfa: sp 0 +
STACK CFI 1ddce .cfa: sp 20 + .ra: .cfa -4 + ^ r7: .cfa -8 + ^ r6: .cfa -12 + ^ r5: .cfa -16 + ^ r4: .cfa -20 + ^
STACK CFI 1ddd0 .cfa: r7 8 +
STACK CFI 1ddd4 r8: .cfa -24 + ^
STACK CFI INIT 1ded0 2 .cfa: sp 0 +
STACK CFI INIT 1ded2 e .cfa: sp 0 +
STACK CFI INIT 1dee0 3f2 .cfa: sp 0 +
STACK CFI 1dee2 .cfa: sp 20 + .ra: .cfa -4 + ^ r7: .cfa -8 + ^ r6: .cfa -12 + ^ r5: .cfa -16 + ^ r4: .cfa -20 + ^
STACK CFI 1dee4 .cfa: r7 8 +
STACK CFI 1dee8 r11: .cfa -24 + ^ r10: .cfa -28 + ^ r9: .cfa -32 + ^ r8: .cfa -36 + ^
STACK CFI INIT 1e2d4 1cc .cfa: sp 0 +
STACK CFI 1e2d6 .cfa: sp 20 + .ra: .cfa -4 + ^ r7: .cfa -8 + ^ r6: .cfa -12 + ^ r5: .cfa -16 + ^ r4: .cfa -20 + ^
STACK CFI 1e2d8 .cfa: r7 8 +
STACK CFI 1e2dc r11: .cfa -24 + ^ r10: .cfa -28 + ^ r9: .cfa -32 + ^ r8: .cfa -36 + ^
STACK CFI INIT 1e4a0 44 .cfa: sp 0 +
STACK CFI 1e4a2 .cfa: sp 16 + .ra: .cfa -4 + ^ r7: .cfa -8 + ^ r6: .cfa -12 + ^ r4: .cfa -16 + ^
STACK CFI 1e4a4 .cfa: r7 8 +
STACK CFI INIT 1e4e4 38 .cfa: sp 0 +
STACK CFI 1e4e6 .cfa: sp 16 + .ra: .cfa -4 + ^ r7: .cfa -8 + ^ r5: .cfa -12 + ^ r4: .cfa -16 + ^
STACK CFI 1e4e8 .cfa: r7 8 +
STACK CFI INIT 1e51c 18 .cfa: sp 0 +
STACK CFI 1e51e .cfa: sp 8 + .ra: .cfa -4 + ^ r7: .cfa -8 + ^
STACK CFI 1e520 .cfa: r7 8 +
STACK CFI INIT 1e534 420 .cfa: sp 0 +
STACK CFI 1e536 .cfa: sp 20 + .ra: .cfa -4 + ^ r7: .cfa -8 + ^ r6: .cfa -12 + ^ r5: .cfa -16 + ^ r4: .cfa -20 + ^
STACK CFI 1e538 .cfa: r7 8 +
STACK CFI 1e53c r11: .cfa -24 + ^ r10: .cfa -28 + ^ r9: .cfa -32 + ^ r8: .cfa -36 + ^
STACK CFI INIT 1e954 30 .cfa: sp 0 +
STACK CFI 1e956 .cfa: sp 16 + .ra: .cfa -4 + ^ r7: .cfa -8 + ^ r6: .cfa -12 + ^ r4: .cfa -16 + ^
STACK CFI 1e958 .cfa: r7 8 +
STACK CFI INIT 1e984 c0 .cfa: sp 0 +
STACK CFI 1e986 .cfa: sp 20 + .ra: .cfa -4 + ^ r7: .cfa -8 + ^ r6: .cfa -12 + ^ r5: .cfa -16 + ^ r4: .cfa -20 + ^
STACK CFI 1e988 .cfa: r7 8 +
STACK CFI 1e98c r11: .cfa -24 + ^ r9: .cfa -28 + ^ r8: .cfa -32 + ^
STACK CFI INIT 1ea44 1ac .cfa: sp 0 +
STACK CFI 1ea46 .cfa: sp 20 + .ra: .cfa -4 + ^ r7: .cfa -8 + ^ r6: .cfa -12 + ^ r5: .cfa -16 + ^ r4: .cfa -20 + ^
STACK CFI 1ea48 .cfa: r7 8 +
STACK CFI 1ea4c r11: .cfa -24 + ^ r10: .cfa -28 + ^ r9: .cfa -32 + ^ r8: .cfa -36 + ^
STACK CFI INIT 1ebf0 278 .cfa: sp 0 +
STACK CFI 1ebf2 .cfa: sp 20 + .ra: .cfa -4 + ^ r7: .cfa -8 + ^ r6: .cfa -12 + ^ r5: .cfa -16 + ^ r4: .cfa -20 + ^
STACK CFI 1ebf4 .cfa: r7 8 +
STACK CFI 1ebf8 r10: .cfa -24 + ^ r9: .cfa -28 + ^ r8: .cfa -32 + ^
STACK CFI INIT 1ee70 228 .cfa: sp 0 +
STACK CFI 1ee72 .cfa: sp 20 + .ra: .cfa -4 + ^ r7: .cfa -8 + ^ r6: .cfa -12 + ^ r5: .cfa -16 + ^ r4: .cfa -20 + ^
STACK CFI 1ee74 .cfa: r7 8 +
STACK CFI 1ee78 r11: .cfa -24 + ^
STACK CFI INIT 1f098 384 .cfa: sp 0 +
STACK CFI 1f09a .cfa: sp 20 + .ra: .cfa -4 + ^ r7: .cfa -8 + ^ r6: .cfa -12 + ^ r5: .cfa -16 + ^ r4: .cfa -20 + ^
STACK CFI 1f09c .cfa: r7 8 +
STACK CFI 1f0a0 r11: .cfa -24 + ^ r10: .cfa -28 + ^ r9: .cfa -32 + ^ r8: .cfa -36 + ^
STACK CFI INIT 1f41c 880 .cfa: sp 0 +
STACK CFI 1f41e .cfa: sp 20 + .ra: .cfa -4 + ^ r7: .cfa -8 + ^ r6: .cfa -12 + ^ r5: .cfa -16 + ^ r4: .cfa -20 + ^
STACK CFI 1f420 .cfa: r7 8 +
STACK CFI 1f424 r11: .cfa -24 + ^ r10: .cfa -28 + ^ r9: .cfa -32 + ^ r8: .cfa -36 + ^
STACK CFI INIT 1fc9c 4c .cfa: sp 0 +
STACK CFI 1fc9e .cfa: sp 20 + .ra: .cfa -4 + ^ r7: .cfa -8 + ^ r6: .cfa -12 + ^ r5: .cfa -16 + ^ r4: .cfa -20 + ^
STACK CFI 1fca0 .cfa: r7 8 +
STACK CFI 1fca4 r8: .cfa -24 + ^
STACK CFI INIT 1fce8 48 .cfa: sp 0 +
STACK CFI 1fcea .cfa: sp 16 + .ra: .cfa -4 + ^ r7: .cfa -8 + ^ r6: .cfa -12 + ^ r4: .cfa -16 + ^
STACK CFI 1fcec .cfa: r7 8 +
STACK CFI INIT 1fd30 10 .cfa: sp 0 +
STACK CFI 1fd32 .cfa: sp 8 + .ra: .cfa -4 + ^ r7: .cfa -8 + ^
STACK CFI 1fd34 .cfa: r7 8 +
STACK CFI INIT 1fd40 9a .cfa: sp 0 +
STACK CFI 1fd42 .cfa: sp 20 + .ra: .cfa -4 + ^ r7: .cfa -8 + ^ r6: .cfa -12 + ^ r5: .cfa -16 + ^ r4: .cfa -20 + ^
STACK CFI 1fd44 .cfa: r7 8 +
STACK CFI 1fd48 r11: .cfa -24 + ^ r9: .cfa -28 + ^ r8: .cfa -32 + ^
STACK CFI INIT 1fddc 54 .cfa: sp 0 +
STACK CFI 1fdde .cfa: sp 8 + .ra: .cfa -4 + ^ r7: .cfa -8 + ^
STACK CFI 1fde0 .cfa: r7 8 +
STACK CFI INIT 1fe30 34 .cfa: sp 0 +
STACK CFI 1fe32 .cfa: sp 16 + .ra: .cfa -4 + ^ r7: .cfa -8 + ^ r5: .cfa -12 + ^ r4: .cfa -16 + ^
STACK CFI 1fe34 .cfa: r7 8 +
STACK CFI INIT 1fe64 2c .cfa: sp 0 +
STACK CFI 1fe66 .cfa: sp 16 + .ra: .cfa -4 + ^ r7: .cfa -8 + ^ r5: .cfa -12 + ^ r4: .cfa -16 + ^
STACK CFI 1fe68 .cfa: r7 8 +
STACK CFI INIT 1fe90 74 .cfa: sp 0 +
STACK CFI 1fe92 .cfa: sp 8 + .ra: .cfa -4 + ^ r7: .cfa -8 + ^
STACK CFI 1fe94 .cfa: r7 8 +
STACK CFI INIT 1ff04 1b0 .cfa: sp 0 +
STACK CFI 1ff06 .cfa: sp 20 + .ra: .cfa -4 + ^ r7: .cfa -8 + ^ r6: .cfa -12 + ^ r5: .cfa -16 + ^ r4: .cfa -20 + ^
STACK CFI 1ff08 .cfa: r7 8 +
STACK CFI 1ff0c r10: .cfa -24 + ^ r9: .cfa -28 + ^ r8: .cfa -32 + ^
STACK CFI INIT 200b4 9a .cfa: sp 0 +
STACK CFI 200b6 .cfa: sp 20 + .ra: .cfa -4 + ^ r7: .cfa -8 + ^ r6: .cfa -12 + ^ r5: .cfa -16 + ^ r4: .cfa -20 + ^
STACK CFI 200b8 .cfa: r7 8 +
STACK CFI 200bc r11: .cfa -24 + ^ r9: .cfa -28 + ^ r8: .cfa -32 + ^
STACK CFI INIT 20150 174 .cfa: sp 0 +
STACK CFI 20152 .cfa: sp 20 + .ra: .cfa -4 + ^ r7: .cfa -8 + ^ r6: .cfa -12 + ^ r5: .cfa -16 + ^ r4: .cfa -20 + ^
STACK CFI 20154 .cfa: r7 8 +
STACK CFI 20158 r10: .cfa -24 + ^ r9: .cfa -28 + ^ r8: .cfa -32 + ^
STACK CFI INIT 202c4 218 .cfa: sp 0 +
STACK CFI 202c6 .cfa: sp 20 + .ra: .cfa -4 + ^ r7: .cfa -8 + ^ r6: .cfa -12 + ^ r5: .cfa -16 + ^ r4: .cfa -20 + ^
STACK CFI 202c8 .cfa: r7 8 +
STACK CFI 202cc r11: .cfa -24 + ^ r10: .cfa -28 + ^ r9: .cfa -32 + ^ r8: .cfa -36 + ^
STACK CFI INIT 204dc 1dc .cfa: sp 0 +
STACK CFI 204de .cfa: sp 20 + .ra: .cfa -4 + ^ r7: .cfa -8 + ^ r6: .cfa -12 + ^ r5: .cfa -16 + ^ r4: .cfa -20 + ^
STACK CFI 204e0 .cfa: r7 8 +
STACK CFI 204e4 r11: .cfa -24 + ^ r10: .cfa -28 + ^ r9: .cfa -32 + ^ r8: .cfa -36 + ^
STACK CFI INIT 206b8 188 .cfa: sp 0 +
STACK CFI 206ba .cfa: sp 20 + .ra: .cfa -4 + ^ r7: .cfa -8 + ^ r6: .cfa -12 + ^ r5: .cfa -16 + ^ r4: .cfa -20 + ^
STACK CFI 206bc .cfa: r7 8 +
STACK CFI 206c0 r11: .cfa -24 + ^ r10: .cfa -28 + ^ r9: .cfa -32 + ^ r8: .cfa -36 + ^
STACK CFI INIT 20840 9f8 .cfa: sp 0 +
STACK CFI 20842 .cfa: sp 20 + .ra: .cfa -4 + ^ r7: .cfa -8 + ^ r6: .cfa -12 + ^ r5: .cfa -16 + ^ r4: .cfa -20 + ^
STACK CFI 20844 .cfa: r7 8 +
STACK CFI 20848 r11: .cfa -24 + ^ r10: .cfa -28 + ^ r9: .cfa -32 + ^ r8: .cfa -36 + ^
STACK CFI INIT 21238 fa .cfa: sp 0 +
STACK CFI 2123a .cfa: sp 20 + .ra: .cfa -4 + ^ r7: .cfa -8 + ^ r6: .cfa -12 + ^ r5: .cfa -16 + ^ r4: .cfa -20 + ^
STACK CFI 2123c .cfa: r7 8 +
STACK CFI 21240 r11: .cfa -24 + ^ r10: .cfa -28 + ^ r9: .cfa -32 + ^ r8: .cfa -36 + ^
STACK CFI INIT 21334 184 .cfa: sp 0 +
STACK CFI 21336 .cfa: sp 20 + .ra: .cfa -4 + ^ r7: .cfa -8 + ^ r6: .cfa -12 + ^ r5: .cfa -16 + ^ r4: .cfa -20 + ^
STACK CFI 21338 .cfa: r7 8 +
STACK CFI 2133c r11: .cfa -24 + ^ r10: .cfa -28 + ^ r9: .cfa -32 + ^ r8: .cfa -36 + ^
STACK CFI INIT 214b8 214 .cfa: sp 0 +
STACK CFI 214ba .cfa: sp 20 + .ra: .cfa -4 + ^ r7: .cfa -8 + ^ r6: .cfa -12 + ^ r5: .cfa -16 + ^ r4: .cfa -20 + ^
STACK CFI 214bc .cfa: r7 8 +
STACK CFI 214c0 r8: .cfa -24 + ^
STACK CFI INIT 216cc e0 .cfa: sp 0 +
STACK CFI 216ce .cfa: sp 20 + .ra: .cfa -4 + ^ r7: .cfa -8 + ^ r6: .cfa -12 + ^ r5: .cfa -16 + ^ r4: .cfa -20 + ^
STACK CFI 216d0 .cfa: r7 8 +
STACK CFI 216d4 r8: .cfa -24 + ^
STACK CFI INIT 217ac e0 .cfa: sp 0 +
STACK CFI 217ae .cfa: sp 20 + .ra: .cfa -4 + ^ r7: .cfa -8 + ^ r6: .cfa -12 + ^ r5: .cfa -16 + ^ r4: .cfa -20 + ^
STACK CFI 217b0 .cfa: r7 8 +
STACK CFI 217b4 r8: .cfa -24 + ^
STACK CFI INIT 21890 73c .cfa: sp 0 +
STACK CFI 21892 .cfa: sp 20 + .ra: .cfa -4 + ^ r7: .cfa -8 + ^ r6: .cfa -12 + ^ r5: .cfa -16 + ^ r4: .cfa -20 + ^
STACK CFI 21894 .cfa: r7 8 +
STACK CFI 21898 r11: .cfa -24 + ^ r10: .cfa -28 + ^ r9: .cfa -32 + ^ r8: .cfa -36 + ^
STACK CFI INIT 21fcc 140 .cfa: sp 0 +
STACK CFI 21fce .cfa: sp 20 + .ra: .cfa -4 + ^ r7: .cfa -8 + ^ r6: .cfa -12 + ^ r5: .cfa -16 + ^ r4: .cfa -20 + ^
STACK CFI 21fd0 .cfa: r7 8 +
STACK CFI 21fd4 r11: .cfa -24 + ^ r10: .cfa -28 + ^ r9: .cfa -32 + ^ r8: .cfa -36 + ^
STACK CFI INIT 2210c e0 .cfa: sp 0 +
STACK CFI 2210e .cfa: sp 20 + .ra: .cfa -4 + ^ r7: .cfa -8 + ^ r6: .cfa -12 + ^ r5: .cfa -16 + ^ r4: .cfa -20 + ^
STACK CFI 22110 .cfa: r7 8 +
STACK CFI 22114 r8: .cfa -24 + ^
STACK CFI INIT 221ec 194 .cfa: sp 0 +
STACK CFI 221ee .cfa: sp 20 + .ra: .cfa -4 + ^ r7: .cfa -8 + ^ r6: .cfa -12 + ^ r5: .cfa -16 + ^ r4: .cfa -20 + ^
STACK CFI 221f0 .cfa: r7 8 +
STACK CFI 221f4 r8: .cfa -24 + ^
STACK CFI INIT 22380 22 .cfa: sp 0 +
STACK CFI 22382 .cfa: sp 16 + .ra: .cfa -4 + ^ r7: .cfa -8 + ^ r6: .cfa -12 + ^ r4: .cfa -16 + ^
STACK CFI 22384 .cfa: r7 8 +
STACK CFI INIT 223a4 104 .cfa: sp 0 +
STACK CFI 223a6 .cfa: sp 20 + .ra: .cfa -4 + ^ r7: .cfa -8 + ^ r6: .cfa -12 + ^ r5: .cfa -16 + ^ r4: .cfa -20 + ^
STACK CFI 223a8 .cfa: r7 8 +
STACK CFI 223ac r10: .cfa -24 + ^ r9: .cfa -28 + ^ r8: .cfa -32 + ^
STACK CFI INIT 224a8 144 .cfa: sp 0 +
STACK CFI 224aa .cfa: sp 20 + .ra: .cfa -4 + ^ r7: .cfa -8 + ^ r6: .cfa -12 + ^ r5: .cfa -16 + ^ r4: .cfa -20 + ^
STACK CFI 224ac .cfa: r7 8 +
STACK CFI 224b0 r11: .cfa -24 + ^ r9: .cfa -28 + ^ r8: .cfa -32 + ^
STACK CFI INIT 225ec 21c .cfa: sp 0 +
STACK CFI 225ee .cfa: sp 20 + .ra: .cfa -4 + ^ r7: .cfa -8 + ^ r6: .cfa -12 + ^ r5: .cfa -16 + ^ r4: .cfa -20 + ^
STACK CFI 225f0 .cfa: r7 8 +
STACK CFI 225f4 r11: .cfa -24 + ^ r10: .cfa -28 + ^ r9: .cfa -32 + ^ r8: .cfa -36 + ^
STACK CFI INIT 22808 6e .cfa: sp 0 +
STACK CFI 2280a .cfa: sp 20 + .ra: .cfa -4 + ^ r7: .cfa -8 + ^ r6: .cfa -12 + ^ r5: .cfa -16 + ^ r4: .cfa -20 + ^
STACK CFI 2280c .cfa: r7 8 +
STACK CFI 22810 r8: .cfa -24 + ^
STACK CFI INIT 22880 e4 .cfa: sp 0 +
STACK CFI 22882 .cfa: sp 20 + .ra: .cfa -4 + ^ r7: .cfa -8 + ^ r6: .cfa -12 + ^ r5: .cfa -16 + ^ r4: .cfa -20 + ^
STACK CFI 22884 .cfa: r7 8 +
STACK CFI 22888 r11: .cfa -24 + ^
STACK CFI INIT 22964 9ac .cfa: sp 0 +
STACK CFI 22966 .cfa: sp 20 + .ra: .cfa -4 + ^ r7: .cfa -8 + ^ r6: .cfa -12 + ^ r5: .cfa -16 + ^ r4: .cfa -20 + ^
STACK CFI 22968 .cfa: r7 8 +
STACK CFI 2296c r11: .cfa -24 + ^ r10: .cfa -28 + ^ r9: .cfa -32 + ^ r8: .cfa -36 + ^
STACK CFI INIT 23310 e8 .cfa: sp 0 +
STACK CFI 23312 .cfa: sp 20 + .ra: .cfa -4 + ^ r7: .cfa -8 + ^ r6: .cfa -12 + ^ r5: .cfa -16 + ^ r4: .cfa -20 + ^
STACK CFI 23314 .cfa: r7 8 +
STACK CFI 23318 r8: .cfa -24 + ^
STACK CFI INIT 233f8 19c .cfa: sp 0 +
STACK CFI 233fa .cfa: sp 20 + .ra: .cfa -4 + ^ r7: .cfa -8 + ^ r6: .cfa -12 + ^ r5: .cfa -16 + ^ r4: .cfa -20 + ^
STACK CFI 233fc .cfa: r7 8 +
STACK CFI 23400 r11: .cfa -24 + ^ r10: .cfa -28 + ^ r9: .cfa -32 + ^ r8: .cfa -36 + ^
STACK CFI INIT 235a0 e4 .cfa: sp 0 +
STACK CFI 235a2 .cfa: sp 20 + .ra: .cfa -4 + ^ r7: .cfa -8 + ^ r6: .cfa -12 + ^ r5: .cfa -16 + ^ r4: .cfa -20 + ^
STACK CFI 235a4 .cfa: r7 8 +
STACK CFI 235a8 r11: .cfa -24 + ^
STACK CFI INIT 23684 150 .cfa: sp 0 +
STACK CFI 23686 .cfa: sp 20 + .ra: .cfa -4 + ^ r7: .cfa -8 + ^ r6: .cfa -12 + ^ r5: .cfa -16 + ^ r4: .cfa -20 + ^
STACK CFI 23688 .cfa: r7 8 +
STACK CFI 2368c r11: .cfa -24 + ^ r10: .cfa -28 + ^ r9: .cfa -32 + ^ r8: .cfa -36 + ^
STACK CFI INIT 237d8 1660 .cfa: sp 0 +
STACK CFI 237da .cfa: sp 20 + .ra: .cfa -4 + ^ r7: .cfa -8 + ^ r6: .cfa -12 + ^ r5: .cfa -16 + ^ r4: .cfa -20 + ^
STACK CFI 237dc .cfa: r7 8 +
STACK CFI 237e0 r11: .cfa -24 + ^ r10: .cfa -28 + ^ r9: .cfa -32 + ^ r8: .cfa -36 + ^
STACK CFI INIT 24e38 1cc .cfa: sp 0 +
STACK CFI 24e3a .cfa: sp 20 + .ra: .cfa -4 + ^ r7: .cfa -8 + ^ r6: .cfa -12 + ^ r5: .cfa -16 + ^ r4: .cfa -20 + ^
STACK CFI 24e3c .cfa: r7 8 +
STACK CFI 24e40 r8: .cfa -24 + ^
STACK CFI INIT 25004 106 .cfa: sp 0 +
STACK CFI 25006 .cfa: sp 20 + .ra: .cfa -4 + ^ r7: .cfa -8 + ^ r6: .cfa -12 + ^ r5: .cfa -16 + ^ r4: .cfa -20 + ^
STACK CFI 25008 .cfa: r7 8 +
STACK CFI 2500c r11: .cfa -24 + ^ r10: .cfa -28 + ^ r9: .cfa -32 + ^ r8: .cfa -36 + ^
STACK CFI INIT 2510c b78 .cfa: sp 0 +
STACK CFI 2510e .cfa: sp 20 + .ra: .cfa -4 + ^ r7: .cfa -8 + ^ r6: .cfa -12 + ^ r5: .cfa -16 + ^ r4: .cfa -20 + ^
STACK CFI 25110 .cfa: r7 8 +
STACK CFI 25114 r11: .cfa -24 + ^ r10: .cfa -28 + ^ r9: .cfa -32 + ^ r8: .cfa -36 + ^
STACK CFI INIT 25c84 3a4 .cfa: sp 0 +
STACK CFI 25c86 .cfa: sp 20 + .ra: .cfa -4 + ^ r7: .cfa -8 + ^ r6: .cfa -12 + ^ r5: .cfa -16 + ^ r4: .cfa -20 + ^
STACK CFI 25c88 .cfa: r7 8 +
STACK CFI 25c8c r11: .cfa -24 + ^ r10: .cfa -28 + ^ r9: .cfa -32 + ^ r8: .cfa -36 + ^
STACK CFI INIT 26028 ebc .cfa: sp 0 +
STACK CFI 2602a .cfa: sp 20 + .ra: .cfa -4 + ^ r7: .cfa -8 + ^ r6: .cfa -12 + ^ r5: .cfa -16 + ^ r4: .cfa -20 + ^
STACK CFI 2602c .cfa: r7 8 +
STACK CFI 26030 r11: .cfa -24 + ^ r10: .cfa -28 + ^ r9: .cfa -32 + ^ r8: .cfa -36 + ^
STACK CFI INIT 26ee4 10c .cfa: sp 0 +
STACK CFI 26ee6 .cfa: sp 20 + .ra: .cfa -4 + ^ r7: .cfa -8 + ^ r6: .cfa -12 + ^ r5: .cfa -16 + ^ r4: .cfa -20 + ^
STACK CFI 26ee8 .cfa: r7 8 +
STACK CFI 26eec r11: .cfa -24 + ^ r10: .cfa -28 + ^ r9: .cfa -32 + ^ r8: .cfa -36 + ^
STACK CFI INIT 26ff0 c4 .cfa: sp 0 +
STACK CFI 2700e .cfa: sp 20 + .ra: .cfa -4 + ^ r7: .cfa -8 + ^ r6: .cfa -12 + ^ r5: .cfa -16 + ^ r4: .cfa -20 + ^
STACK CFI 27010 .cfa: r7 8 +
STACK CFI 27014 r8: .cfa -24 + ^
STACK CFI INIT 270b4 414 .cfa: sp 0 +
STACK CFI 270b6 .cfa: sp 20 + .ra: .cfa -4 + ^ r7: .cfa -8 + ^ r6: .cfa -12 + ^ r5: .cfa -16 + ^ r4: .cfa -20 + ^
STACK CFI 270b8 .cfa: r7 8 +
STACK CFI 270bc r11: .cfa -24 + ^ r10: .cfa -28 + ^ r9: .cfa -32 + ^ r8: .cfa -36 + ^
STACK CFI INIT 274c8 276 .cfa: sp 0 +
STACK CFI 274ca .cfa: sp 20 + .ra: .cfa -4 + ^ r7: .cfa -8 + ^ r6: .cfa -12 + ^ r5: .cfa -16 + ^ r4: .cfa -20 + ^
STACK CFI 274cc .cfa: r7 8 +
STACK CFI 274d0 r11: .cfa -24 + ^ r10: .cfa -28 + ^ r9: .cfa -32 + ^ r8: .cfa -36 + ^
STACK CFI INIT 2773e 6e .cfa: sp 0 +
STACK CFI 27740 .cfa: sp 20 + .ra: .cfa -4 + ^ r7: .cfa -8 + ^ r6: .cfa -12 + ^ r5: .cfa -16 + ^ r4: .cfa -20 + ^
STACK CFI 27742 .cfa: r7 8 +
STACK CFI 27746 r8: .cfa -24 + ^
STACK CFI INIT 277ac 994 .cfa: sp 0 +
STACK CFI 277ae .cfa: sp 20 + .ra: .cfa -4 + ^ r7: .cfa -8 + ^ r6: .cfa -12 + ^ r5: .cfa -16 + ^ r4: .cfa -20 + ^
STACK CFI 277b0 .cfa: r7 8 +
STACK CFI 277b4 r11: .cfa -24 + ^ r10: .cfa -28 + ^ r9: .cfa -32 + ^ r8: .cfa -36 + ^
STACK CFI INIT 28140 e0 .cfa: sp 0 +
STACK CFI 28142 .cfa: sp 20 + .ra: .cfa -4 + ^ r7: .cfa -8 + ^ r6: .cfa -12 + ^ r5: .cfa -16 + ^ r4: .cfa -20 + ^
STACK CFI 28144 .cfa: r7 8 +
STACK CFI 28148 r11: .cfa -24 + ^ r10: .cfa -28 + ^ r9: .cfa -32 + ^ r8: .cfa -36 + ^
STACK CFI INIT 28220 820 .cfa: sp 0 +
STACK CFI 28222 .cfa: sp 20 + .ra: .cfa -4 + ^ r7: .cfa -8 + ^ r6: .cfa -12 + ^ r5: .cfa -16 + ^ r4: .cfa -20 + ^
STACK CFI 28224 .cfa: r7 8 +
STACK CFI 28228 r11: .cfa -24 + ^ r10: .cfa -28 + ^ r9: .cfa -32 + ^ r8: .cfa -36 + ^
STACK CFI INIT 28a40 124 .cfa: sp 0 +
STACK CFI 28a42 .cfa: sp 20 + .ra: .cfa -4 + ^ r7: .cfa -8 + ^ r6: .cfa -12 + ^ r5: .cfa -16 + ^ r4: .cfa -20 + ^
STACK CFI 28a44 .cfa: r7 8 +
STACK CFI 28a48 r11: .cfa -24 + ^ r10: .cfa -28 + ^ r9: .cfa -32 + ^ r8: .cfa -36 + ^
STACK CFI INIT 28b70 1e4 .cfa: sp 0 +
STACK CFI 28b72 .cfa: sp 20 + .ra: .cfa -4 + ^ r7: .cfa -8 + ^ r6: .cfa -12 + ^ r5: .cfa -16 + ^ r4: .cfa -20 + ^
STACK CFI 28b74 .cfa: r7 8 +
STACK CFI 28b78 r11: .cfa -24 + ^ r10: .cfa -28 + ^ r9: .cfa -32 + ^ r8: .cfa -36 + ^
STACK CFI INIT 28d54 544 .cfa: sp 0 +
STACK CFI 28d56 .cfa: sp 20 + .ra: .cfa -4 + ^ r7: .cfa -8 + ^ r6: .cfa -12 + ^ r5: .cfa -16 + ^ r4: .cfa -20 + ^
STACK CFI 28d58 .cfa: r7 8 +
STACK CFI 28d5c r11: .cfa -24 + ^ r10: .cfa -28 + ^ r9: .cfa -32 + ^ r8: .cfa -36 + ^
