MODULE Linux arm64 A66BC5D0D2FC235E51B96300A85E31790 timestepyt.secretlayer6.android64.so
INFO CODE_ID D0C56BA6FCD25E2351B96300A85E31795D31DF69
INFO GENERATOR mozilla/dump_syms 2.3.4
PUBLIC a5b0 0 __on_dlclose
PUBLIC a5c0 0 __emutls_unregister_key
PUBLIC a5c8 0 __on_dlclose_late
PUBLIC a5d0 0 __atexit_handler_wrapper
PUBLIC a5e4 0 atexit
PUBLIC a600 0 pthread_atfork
PUBLIC a610 0 __aarch64_ldadd8_relax
PUBLIC a640 0 init_have_lse_atomics
PUBLIC a6d8 0 __init_cpu_features_constructor
PUBLIC ac74 0 __init_cpu_features
PUBLIC ad00 0 __aarch64_ldadd8_acq_rel
PUBLIC ad30 0 __cxx_global_var_init
PUBLIC ad90 0 geode::modifier::ModifyBase<geode::modifier::ModifyDerive<MySecretLayer6, SecretLayer6> >::~ModifyBase()
PUBLIC adac 0 __cxx_global_var_init.1
PUBLIC b22c 0 geode::modifier::ModifyBase<geode::modifier::ModifyDerive<MySecretLayer5, SecretLayer5> >::~ModifyBase()
PUBLIC b248 0 geode::modifier::ModifyBase<geode::modifier::ModifyDerive<MySecretLayer6, SecretLayer6> >::ModifyBase()
PUBLIC b644 0 geode::modifier::ModifyDerive<MySecretLayer6, SecretLayer6>::apply()
PUBLIC b8c4 0 std::__ndk1::shared_ptr<geode::Hook>::~shared_ptr[abi:ne180000]()
PUBLIC b914 0 geode::impl::ResultData<geode::Hook*, std::__ndk1::basic_string<char, std::__ndk1::char_traits<char>, std::__ndk1::allocator<char> > >::~ResultData()
PUBLIC b988 0 std::__ndk1::vector<std::__ndk1::basic_string<char, std::__ndk1::char_traits<char>, std::__ndk1::allocator<char> >, std::__ndk1::allocator<std::__ndk1::basic_string<char, std::__ndk1::char_traits<char>, std::__ndk1::allocator<char> > > >::~vector[abi:ne180000]()
PUBLIC ba04 0 geode::modifier::ModifyBase<geode::modifier::ModifyDerive<MySecretLayer6, SecretLayer6> >::apply()
PUBLIC ba08 0 __clang_call_terminate
PUBLIC ba18 0 _ZN5geode15UnwrapExceptionC2IRPNS_4HookEQsr4implE18IsStringStreamableIT_EEENS_4impl5OkTagEOS5_
PUBLIC bb6c 0 std::__ndk1::__throw_bad_variant_access[abi:ne180000]()
PUBLIC bba0 0 std::__ndk1::basic_stringstream<char, std::__ndk1::char_traits<char>, std::__ndk1::allocator<char> >::basic_stringstream[abi:ne180000]()
PUBLIC m bccc 0 std::__ndk1::basic_stringstream<char, std::__ndk1::char_traits<char>, std::__ndk1::allocator<char> >::~basic_stringstream()
PUBLIC bd4c 0 geode::UnwrapException::~UnwrapException()
PUBLIC bd70 0 std::__ndk1::__put_character_sequence[abi:ne180000]<char, std::__ndk1::char_traits<char> >(std::__ndk1::basic_ostream<char, std::__ndk1::char_traits<char> >, std::__ndk1::basic_ostream const*, unsigned long)
PUBLIC bf14 0 std::__ndk1::__pad_and_output[abi:ne180000]<char, std::__ndk1::char_traits<char> >(std::__ndk1::char_traits<char>, std::__ndk1::ostreambuf_iterator const*, std::__ndk1::ostreambuf_iterator const, std::__ndk1::ostreambuf_iterator const, std::__ndk1::ios_base&, std::__ndk1::ostreambuf_iterator)
PUBLIC c0f0 0 std::__ndk1::basic_string<char, std::__ndk1::char_traits<char>, std::__ndk1::allocator<char> >::__throw_length_error[abi:ne180000]() const
PUBLIC c104 0 std::__ndk1::__throw_length_error[abi:ne180000](char const*)
PUBLIC c154 0 std::length_error::length_error[abi:ne180000](char const*)
PUBLIC c184 0 std::__throw_bad_array_new_length([abi:ne180000], void)
PUBLIC c1b8 0 std::__ndk1::basic_stringbuf<char, std::__ndk1::char_traits<char>, std::__ndk1::allocator<char> >::str[abi:ne180000]() &&
PUBLIC c330 0 std::__ndk1::basic_stringbuf<char, std::__ndk1::char_traits<char>, std::__ndk1::allocator<char> >::__init_buf_ptrs[abi:ne180000]()
PUBLIC c478 0 std::__ndk1::vector<std::__ndk1::basic_string<char, std::__ndk1::char_traits<char>, std::__ndk1::allocator<char> >, std::__ndk1::allocator<std::__ndk1::basic_string<char, std::__ndk1::char_traits<char>, std::__ndk1::allocator<char> > > >::__push_back_slow_path<std::__ndk1::basic_string<char, std::__ndk1::char_traits<char>, std::__ndk1::allocator<char> > const&>(std::__ndk1::basic_string<char, std::__ndk1::char_traits<char>, std::__ndk1::allocator<char> > const&)
PUBLIC c6a0 0 std::__ndk1::basic_string<char, std::__ndk1::char_traits<char>, std::__ndk1::allocator<char> >::__init_copy_ctor_external(char const*, unsigned long)
PUBLIC c720 0 std::__ndk1::__split_buffer<std::__ndk1::basic_string<char, std::__ndk1::char_traits<char>, std::__ndk1::allocator<char> >, std::__ndk1::allocator<std::__ndk1::basic_string<char, std::__ndk1::char_traits<char>, std::__ndk1::allocator<char> > >&>::~__split_buffer()
PUBLIC c788 0 std::__ndk1::vector<std::__ndk1::basic_string<char, std::__ndk1::char_traits<char>, std::__ndk1::allocator<char> >, std::__ndk1::allocator<std::__ndk1::basic_string<char, std::__ndk1::char_traits<char>, std::__ndk1::allocator<char> > > >::__throw_length_error[abi:ne180000]() const
PUBLIC c79c 0 std::__ndk1::__variant_detail::__visitation::__base::__dispatcher<(unsigned long)0>::__dispatch[abi:ne180000]<std::__ndk1::__variant_detail::__dtor<std::__ndk1::__variant_detail::__traits<geode::Hook*, std::__ndk1::basic_string<char, std::__ndk1::char_traits<char>, std::__ndk1::allocator<char> > >, (std::__ndk1::__variant_detail::_Trait)1>::__destroy[abi:ne180000]()::{lambda(auto:1&)#1}, std::__ndk1::__variant_detail::__base<(std::__ndk1::__variant_detail::__traits<geode::Hook*, std::__ndk1::basic_string<char, std::__ndk1::char_traits<char>, std::__ndk1::allocator<char> > >)1, geode::Hook, std::__ndk1::allocator<char> >&>(std::__ndk1::__variant_detail::__dtor<std::__ndk1::__variant_detail::__traits<geode::Hook*, std::__ndk1::basic_string<char, std::__ndk1::char_traits<char>, std::__ndk1::allocator<char> > >, (std::__ndk1::__variant_detail::_Trait)1>, std::__ndk1::__variant_detail::__base<(std::__ndk1::__variant_detail::__traits<geode::Hook*, std::__ndk1::basic_string<char, std::__ndk1::char_traits<char>, std::__ndk1::allocator<char> > >)1, geode::Hook, std::__ndk1::allocator<char> >&)
PUBLIC c7a0 0 std::__ndk1::__variant_detail::__visitation::__base::__dispatcher<(unsigned long)1>::__dispatch[abi:ne180000]<std::__ndk1::__variant_detail::__dtor<std::__ndk1::__variant_detail::__traits<geode::Hook*, std::__ndk1::basic_string<char, std::__ndk1::char_traits<char>, std::__ndk1::allocator<char> > >, (std::__ndk1::__variant_detail::_Trait)1>::__destroy[abi:ne180000]()::{lambda(auto:1&)#1}, std::__ndk1::__variant_detail::__base<(std::__ndk1::__variant_detail::__traits<geode::Hook*, std::__ndk1::basic_string<char, std::__ndk1::char_traits<char>, std::__ndk1::allocator<char> > >)1, geode::Hook, std::__ndk1::allocator<char> >&>(std::__ndk1::__variant_detail::__dtor<std::__ndk1::__variant_detail::__traits<geode::Hook*, std::__ndk1::basic_string<char, std::__ndk1::char_traits<char>, std::__ndk1::allocator<char> > >, (std::__ndk1::__variant_detail::_Trait)1>, std::__ndk1::__variant_detail::__base<(std::__ndk1::__variant_detail::__traits<geode::Hook*, std::__ndk1::basic_string<char, std::__ndk1::char_traits<char>, std::__ndk1::allocator<char> > >)1, geode::Hook, std::__ndk1::allocator<char> >&)
PUBLIC c7b4 0 std::__ndk1::__tree<std::__ndk1::__value_type<std::__ndk1::basic_string<char, std::__ndk1::char_traits<char>, std::__ndk1::allocator<char> >, std::__ndk1::shared_ptr<geode::Hook> >, std::__ndk1::__map_value_compare<std::__ndk1::basic_string<char, std::__ndk1::char_traits<char>, std::__ndk1::allocator<char> >, std::__ndk1::__value_type<std::__ndk1::basic_string<char, std::__ndk1::char_traits<char>, std::__ndk1::allocator<char> >, std::__ndk1::shared_ptr<geode::Hook> >, std::__ndk1::less<std::__ndk1::basic_string<char, std::__ndk1::char_traits<char>, std::__ndk1::allocator<char> > >, true>, std::__ndk1::allocator<std::__ndk1::__value_type<std::__ndk1::basic_string<char, std::__ndk1::char_traits<char>, std::__ndk1::allocator<char> >, std::__ndk1::shared_ptr<geode::Hook> > > >::find<std::__ndk1::basic_string<char, std::__ndk1::char_traits<char>, std::__ndk1::allocator<char> > >(std::__ndk1::basic_string<char, std::__ndk1::char_traits<char>, std::__ndk1::allocator<char> > const&)
PUBLIC c8d4 0 std::__ndk1::__tree<std::__ndk1::__value_type<std::__ndk1::basic_string<char, std::__ndk1::char_traits<char>, std::__ndk1::allocator<char> >, std::__ndk1::shared_ptr<geode::Hook> >, std::__ndk1::__map_value_compare<std::__ndk1::basic_string<char, std::__ndk1::char_traits<char>, std::__ndk1::allocator<char> >, std::__ndk1::__value_type<std::__ndk1::basic_string<char, std::__ndk1::char_traits<char>, std::__ndk1::allocator<char> >, std::__ndk1::shared_ptr<geode::Hook> >, std::__ndk1::less<std::__ndk1::basic_string<char, std::__ndk1::char_traits<char>, std::__ndk1::allocator<char> > >, true>, std::__ndk1::allocator<std::__ndk1::__value_type<std::__ndk1::basic_string<char, std::__ndk1::char_traits<char>, std::__ndk1::allocator<char> >, std::__ndk1::shared_ptr<geode::Hook> > > >::erase(std::__ndk1::__tree_const_iterator<std::__ndk1::__value_type<std::__ndk1::basic_string<char, std::__ndk1::char_traits<char>, std::__ndk1::allocator<char> >, std::__ndk1::shared_ptr<geode::Hook> >, std::__ndk1::__tree_node<std::__ndk1::__value_type<std::__ndk1::basic_string<char, std::__ndk1::char_traits<char>, std::__ndk1::allocator<char> >, std::__ndk1::shared_ptr<geode::Hook> >, void*>*, long>)
PUBLIC c9a8 0 std::__ndk1::__tree_remove[abi:ne180000]<std::__ndk1::__tree_node_base<void*>*>(std::__ndk1::__tree_node_base<void*>*, std::__ndk1::__tree_node_base<void*>*)
PUBLIC cd70 0 std::__ndk1::__tree<std::__ndk1::__value_type<std::__ndk1::basic_string<char, std::__ndk1::char_traits<char>, std::__ndk1::allocator<char> >, std::__ndk1::shared_ptr<geode::Hook> >, std::__ndk1::__map_value_compare<std::__ndk1::basic_string<char, std::__ndk1::char_traits<char>, std::__ndk1::allocator<char> >, std::__ndk1::__value_type<std::__ndk1::basic_string<char, std::__ndk1::char_traits<char>, std::__ndk1::allocator<char> >, std::__ndk1::shared_ptr<geode::Hook> >, std::__ndk1::less<std::__ndk1::basic_string<char, std::__ndk1::char_traits<char>, std::__ndk1::allocator<char> > >, true>, std::__ndk1::allocator<std::__ndk1::__value_type<std::__ndk1::basic_string<char, std::__ndk1::char_traits<char>, std::__ndk1::allocator<char> >, std::__ndk1::shared_ptr<geode::Hook> > > >::destroy(std::__ndk1::__tree_node<std::__ndk1::__value_type<std::__ndk1::basic_string<char, std::__ndk1::char_traits<char>, std::__ndk1::allocator<char> >, std::__ndk1::shared_ptr<geode::Hook> >, void*>*)
PUBLIC cdfc 0 geode::Hook::create<void (*)(MySecretLayer6*, cocos2d::CCObject*)>(void*, void (*)(MySecretLayer6*, cocos2d::CCObject*), std::__ndk1::basic_string<char, std::__ndk1::char_traits<char>, std::__ndk1::allocator<char> > const&, tulip::hook::TulipConvention, tulip::hook::HookMetadata const&)
PUBLIC cf80 0 geode::modifier::AsStaticFunction_onBack<MySecretLayer6, void (MySecretLayer6::*)(cocos2d::CCObject*)>::Impl<void (MySecretLayer6::*)(cocos2d::CCObject*)>::function(MySecretLayer6*, cocos2d::CCObject*)
PUBLIC d030 0 std::__ndk1::shared_ptr<tulip::hook::CallingConvention>::~shared_ptr[abi:ne180000]()
PUBLIC d080 0 tulip::hook::HandlerMetadata::~HandlerMetadata()
PUBLIC d0e4 0 std::__ndk1::__tree<std::__ndk1::__value_type<std::__ndk1::basic_string<char, std::__ndk1::char_traits<char>, std::__ndk1::allocator<char> >, std::__ndk1::shared_ptr<geode::Hook> >, std::__ndk1::__map_value_compare<std::__ndk1::basic_string<char, std::__ndk1::char_traits<char>, std::__ndk1::allocator<char> >, std::__ndk1::__value_type<std::__ndk1::basic_string<char, std::__ndk1::char_traits<char>, std::__ndk1::allocator<char> >, std::__ndk1::shared_ptr<geode::Hook> >, std::__ndk1::less<std::__ndk1::basic_string<char, std::__ndk1::char_traits<char>, std::__ndk1::allocator<char> > >, true>, std::__ndk1::allocator<std::__ndk1::__value_type<std::__ndk1::basic_string<char, std::__ndk1::char_traits<char>, std::__ndk1::allocator<char> >, std::__ndk1::shared_ptr<geode::Hook> > > >::__emplace_unique_key_args<std::__ndk1::basic_string<char, std::__ndk1::char_traits<char>, std::__ndk1::allocator<char> >, std::__ndk1::piecewise_construct_t const&, std::__ndk1::tuple<std::__ndk1::basic_string<char, std::__ndk1::char_traits<char>, std::__ndk1::allocator<char> >&&>, std::__ndk1::tuple<> >(std::__ndk1::basic_string<char, std::__ndk1::char_traits<char>, std::__ndk1::allocator<char> > const&, std::__ndk1::piecewise_construct_t const&, std::__ndk1::tuple<std::__ndk1::basic_string<char, std::__ndk1::char_traits<char>, std::__ndk1::allocator<char> >&&>, std::__ndk1::tuple<>)
PUBLIC d25c 0 std::__ndk1::__tree_balance_after_insert[abi:ne180000]<std::__ndk1::__tree_node_base<void*>*>(std::__ndk1::__tree_node_base<void*>*, std::__ndk1::__tree_node_base<void*>*)
PUBLIC d40c 0 geode::modifier::ModifyDerive<MySecretLayer5, SecretLayer5>::apply()
PUBLIC d9e0 0 geode::modifier::ModifyBase<geode::modifier::ModifyDerive<MySecretLayer5, SecretLayer5> >::apply()
PUBLIC d9e4 0 geode::modifier::AsStaticFunction_init<MySecretLayer5, bool (MySecretLayer5::*)()>::Impl<bool (MySecretLayer5::*)()>::function(MySecretLayer5*)
PUBLIC dcac 0 geode::modifier::AsStaticFunction_onSubmit<MySecretLayer5, void (MySecretLayer5::*)(cocos2d::CCObject*)>::Impl<void (MySecretLayer5::*)(cocos2d::CCObject*)>::function(MySecretLayer5*, cocos2d::CCObject*)
PUBLIC e388 0 geode::addresser::Addresser::addressOfVirtual<bool, SecretLayer5, >(bool (SecretLayer5::*)())
PUBLIC e450 0 SecretLayer5::SecretLayer5(geode::ZeroConstructorType)
PUBLIC e504 0 MySecretLayer5::onIcon(cocos2d::CCObject*)
PUBLIC e540 0 geode::Mod::getSavedValue<bool>(std::__ndk1::basic_string_view<char, std::__ndk1::char_traits<char> >, bool const&)
PUBLIC e724 0 geode::cast::traverseTypeinfoFor(void*, geode::cast::ClassTypeinfoType const*, char const*)
PUBLIC e81c 0 geode::impl::ResultData<matjson::Value&, std::__ndk1::basic_string<char, std::__ndk1::char_traits<char>, std::__ndk1::allocator<char> > >::~ResultData()
PUBLIC e890 0 std::__ndk1::__variant_detail::__visitation::__base::__dispatcher<(unsigned long)0>::__dispatch[abi:ne180000]<std::__ndk1::__variant_detail::__dtor<std::__ndk1::__variant_detail::__traits<std::__ndk1::reference_wrapper<matjson::Value>, std::__ndk1::basic_string<char, std::__ndk1::char_traits<char>, std::__ndk1::allocator<char> > >, (std::__ndk1::__variant_detail::_Trait)1>::__destroy[abi:ne180000]()::{lambda(auto:1&)#1}, std::__ndk1::__variant_detail::__base<(std::__ndk1::__variant_detail::__traits<std::__ndk1::reference_wrapper<matjson::Value>, std::__ndk1::basic_string<char, std::__ndk1::char_traits<char>, std::__ndk1::allocator<char> > >)1, matjson::Value, std::__ndk1::allocator<char> >&>(std::__ndk1::__variant_detail::__dtor<std::__ndk1::__variant_detail::__traits<std::__ndk1::reference_wrapper<matjson::Value>, std::__ndk1::basic_string<char, std::__ndk1::char_traits<char>, std::__ndk1::allocator<char> > >, (std::__ndk1::__variant_detail::_Trait)1>, std::__ndk1::__variant_detail::__base<(std::__ndk1::__variant_detail::__traits<std::__ndk1::reference_wrapper<matjson::Value>, std::__ndk1::basic_string<char, std::__ndk1::char_traits<char>, std::__ndk1::allocator<char> > >)1, matjson::Value, std::__ndk1::allocator<char> >&)
PUBLIC e894 0 std::__ndk1::__variant_detail::__visitation::__base::__dispatcher<(unsigned long)1>::__dispatch[abi:ne180000]<std::__ndk1::__variant_detail::__dtor<std::__ndk1::__variant_detail::__traits<std::__ndk1::reference_wrapper<matjson::Value>, std::__ndk1::basic_string<char, std::__ndk1::char_traits<char>, std::__ndk1::allocator<char> > >, (std::__ndk1::__variant_detail::_Trait)1>::__destroy[abi:ne180000]()::{lambda(auto:1&)#1}, std::__ndk1::__variant_detail::__base<(std::__ndk1::__variant_detail::__traits<std::__ndk1::reference_wrapper<matjson::Value>, std::__ndk1::basic_string<char, std::__ndk1::char_traits<char>, std::__ndk1::allocator<char> > >)1, matjson::Value, std::__ndk1::allocator<char> >&>(std::__ndk1::__variant_detail::__dtor<std::__ndk1::__variant_detail::__traits<std::__ndk1::reference_wrapper<matjson::Value>, std::__ndk1::basic_string<char, std::__ndk1::char_traits<char>, std::__ndk1::allocator<char> > >, (std::__ndk1::__variant_detail::_Trait)1>, std::__ndk1::__variant_detail::__base<(std::__ndk1::__variant_detail::__traits<std::__ndk1::reference_wrapper<matjson::Value>, std::__ndk1::basic_string<char, std::__ndk1::char_traits<char>, std::__ndk1::allocator<char> > >)1, matjson::Value, std::__ndk1::allocator<char> >&)
PUBLIC e8a8 0 std::__ndk1::__variant_detail::__visitation::__base::__dispatcher<(unsigned long)0>::__dispatch[abi:ne180000]<std::__ndk1::__variant_detail::__dtor<std::__ndk1::__variant_detail::__traits<bool, std::__ndk1::basic_string<char, std::__ndk1::char_traits<char>, std::__ndk1::allocator<char> > >, (std::__ndk1::__variant_detail::_Trait)1>::__destroy[abi:ne180000]()::{lambda(auto:1&)#1}, std::__ndk1::__variant_detail::__base<(std::__ndk1::__variant_detail::__traits<bool, std::__ndk1::basic_string<char, std::__ndk1::char_traits<char>, std::__ndk1::allocator<char> > >)1, bool, std::__ndk1::allocator<char> >&>(std::__ndk1::__variant_detail::__dtor<std::__ndk1::__variant_detail::__traits<bool, std::__ndk1::basic_string<char, std::__ndk1::char_traits<char>, std::__ndk1::allocator<char> > >, (std::__ndk1::__variant_detail::_Trait)1>, std::__ndk1::__variant_detail::__base<(std::__ndk1::__variant_detail::__traits<bool, std::__ndk1::basic_string<char, std::__ndk1::char_traits<char>, std::__ndk1::allocator<char> > >)1, bool, std::__ndk1::allocator<char> >&)
PUBLIC e8ac 0 std::__ndk1::__variant_detail::__visitation::__base::__dispatcher<(unsigned long)1>::__dispatch[abi:ne180000]<std::__ndk1::__variant_detail::__dtor<std::__ndk1::__variant_detail::__traits<bool, std::__ndk1::basic_string<char, std::__ndk1::char_traits<char>, std::__ndk1::allocator<char> > >, (std::__ndk1::__variant_detail::_Trait)1>::__destroy[abi:ne180000]()::{lambda(auto:1&)#1}, std::__ndk1::__variant_detail::__base<(std::__ndk1::__variant_detail::__traits<bool, std::__ndk1::basic_string<char, std::__ndk1::char_traits<char>, std::__ndk1::allocator<char> > >)1, bool, std::__ndk1::allocator<char> >&>(std::__ndk1::__variant_detail::__dtor<std::__ndk1::__variant_detail::__traits<bool, std::__ndk1::basic_string<char, std::__ndk1::char_traits<char>, std::__ndk1::allocator<char> > >, (std::__ndk1::__variant_detail::_Trait)1>, std::__ndk1::__variant_detail::__base<(std::__ndk1::__variant_detail::__traits<bool, std::__ndk1::basic_string<char, std::__ndk1::char_traits<char>, std::__ndk1::allocator<char> > >)1, bool, std::__ndk1::allocator<char> >&)
PUBLIC e8c0 0 geode::modifier::FieldIntermediate<MySecretLayer5, SecretLayer5>::self()
PUBLIC ef08 0 geode::modifier::FieldIntermediate<MySecretLayer5, SecretLayer5>::fieldDestructor(void*)
PUBLIC ef0c 0 std::__ndk1::vector<void*, std::__ndk1::allocator<void*> >::__throw_length_error[abi:ne180000]() const
PUBLIC ef20 0 std::__ndk1::vector<std::__ndk1::function<void (void*)>, std::__ndk1::allocator<std::__ndk1::function<void (void*)> > >::__throw_length_error[abi:ne180000]() const
PUBLIC ef34 0 std::__ndk1::vector<void*, std::__ndk1::allocator<void*> >::__throw_out_of_range[abi:ne180000]() const
PUBLIC ef40 0 std::__ndk1::__throw_out_of_range[abi:ne180000](char const*)
PUBLIC ef90 0 std::out_of_range::out_of_range[abi:ne180000](char const*)
PUBLIC efc0 0 std::__ndk1::vector<std::__ndk1::function<void (void*)>, std::__ndk1::allocator<std::__ndk1::function<void (void*)> > >::__throw_out_of_range[abi:ne180000]() const
PUBLIC efcc 0 std::__ndk1::__function::__base<void (void*)>::~__base()
PUBLIC efd0 0 std::__ndk1::__function::__func<void (*)(void*), std::__ndk1::allocator<void (*)(void*)>, void (void*)>::~__func()
PUBLIC efd4 0 std::__ndk1::__function::__func<void (*)(void*), std::__ndk1::allocator<void (*)(void*)>, void (void*)>::__clone() const
PUBLIC f00c 0 std::__ndk1::__function::__func<void (*)(void*), std::__ndk1::allocator<void (*)(void*)>, void (void*)>::__clone(std::__ndk1::__function::__base<void (void*)>*) const
PUBLIC f024 0 std::__ndk1::__function::__func<void (*)(void*), std::__ndk1::allocator<void (*)(void*)>, void (void*)>::destroy()
PUBLIC f028 0 std::__ndk1::__function::__func<void (*)(void*), std::__ndk1::allocator<void (*)(void*)>, void (void*)>::destroy_deallocate()
PUBLIC f02c 0 std::__ndk1::__function::__func<void (*)(void*), std::__ndk1::allocator<void (*)(void*)>, void (void*)>::operator()(void*&&)
PUBLIC f03c 0 std::__ndk1::__function::__func<void (*)(void*), std::__ndk1::allocator<void (*)(void*)>, void (void*)>::target(std::type_info const&) const
PUBLIC f058 0 std::__ndk1::__function::__func<void (*)(void*), std::__ndk1::allocator<void (*)(void*)>, void (void*)>::target_type() const
PUBLIC f064 0 MySecretLayer5::Fields::dialogClosed(DialogLayer*)
PUBLIC f0dc 0 cocos2d::CCSequence::create(cocos2d::CCFiniteTimeAction*, ...)
PUBLIC m f174 0 geodeImplicitEntry
PUBLIC f1b0 0 std::__ndk1::unordered_map<void*, bool, std::__ndk1::hash<void*>, std::__ndk1::equal_to<void*>, std::__ndk1::allocator<std::__ndk1::pair<void* const, bool> > >::~unordered_map[abi:ne180000]()
PUBLIC f1fc 0 wrapFunction(unsigned long, tulip::hook::WrapperMetadata const&)
PUBLIC f330 0 geode::impl::ResultData<void*, std::__ndk1::basic_string<char, std::__ndk1::char_traits<char>, std::__ndk1::allocator<char> > >::unwrapErr() &
PUBLIC f3a8 0 geode::impl::ResultData<void*, std::__ndk1::basic_string<char, std::__ndk1::char_traits<char>, std::__ndk1::allocator<char> > >::~ResultData()
PUBLIC f41c 0 tulip::hook::WrapperMetadata::~WrapperMetadata()
PUBLIC f480 0 cocos2d::CCObject::~CCObject()
PUBLIC f4a4 0 cocos2d::CCNode::~CCNode()
PUBLIC f4c8 0 {virtual override thunk({offset(-320)}, cocos2d::CCLayer::~CCLayer())}
PUBLIC f4d0 0 cocos2d::CCLayer::~CCLayer()
PUBLIC f4f4 0 {virtual override thunk({offset(-320)}, cocos2d::CCLayer::~CCLayer())}
PUBLIC f51c 0 tulip::hook::AbstractFunction::from<void, CCTextInputNode*, gd::string>(void (*)(CCTextInputNode*, gd::string))
PUBLIC f5c0 0 CCTextInputNode::setString(gd::string)
PUBLIC f738 0 DialogObject::create(gd::string, gd::string, int, float, bool, cocos2d::_ccColor3B)
PUBLIC f90c 0 tulip::hook::AbstractFunction::from<DialogObject*, gd::string, gd::string, int, float, bool, cocos2d::_ccColor3B>(DialogObject* (*)(gd::string, gd::string, int, float, bool, cocos2d::_ccColor3B))
PUBLIC fa84 0 tulip::hook::AbstractFunction::from<void, GameManager*, gd::string>(void (*)(GameManager*, gd::string))
PUBLIC fb28 0 GameManager::fadeInMusic(gd::string)
PUBLIC fca0 0 cocos2d::CCCopying::copyWithZone(cocos2d::CCZone*)
PUBLIC fca8 0 cocos2d::CCObject::update(float)
PUBLIC fcac 0 cocos2d::CCKeyboardDelegate::keyUp(cocos2d::enumKeyCodes)
PUBLIC fcb0 0 cocos2d::CCMouseDelegate::rightKeyDown()
PUBLIC fcb4 0 cocos2d::CCMouseDelegate::rightKeyUp()
PUBLIC fcb8 0 cocos2d::CCMouseDelegate::scrollWheel(float, float)
PUBLIC fcbc 0 cocos2d::CCNode::~CCNode()
PUBLIC ff34 0 cocos2d::CCLayer::~CCLayer()
PUBLIC 101fc 0 cocos2d::CCObject::~CCObject()
PUBLIC 106c8 0 _ZN5geode15UnwrapExceptionC2IRPvQsr4implE18IsStringStreamableIT_EEENS_4impl5OkTagEOS4_
PUBLIC 1081c 0 _ZN5geode15UnwrapExceptionC2IRNSt6__ndk112basic_stringIcNS2_11char_traitsIcEENS2_9allocatorIcEEEEQsr4implE18IsStringStreamableIT_EEENS_4impl6ErrTagEOSA_
PUBLIC 10984 0 std::__ndk1::__variant_detail::__visitation::__base::__dispatcher<(unsigned long)0>::__dispatch[abi:ne180000]<std::__ndk1::__variant_detail::__dtor<std::__ndk1::__variant_detail::__traits<void*, std::__ndk1::basic_string<char, std::__ndk1::char_traits<char>, std::__ndk1::allocator<char> > >, (std::__ndk1::__variant_detail::_Trait)1>::__destroy[abi:ne180000]()::{lambda(auto:1&)#1}, std::__ndk1::__variant_detail::__base<(std::__ndk1::__variant_detail::__traits<void*, std::__ndk1::basic_string<char, std::__ndk1::char_traits<char>, std::__ndk1::allocator<char> > >)1, std::__ndk1::__variant_detail::__traits, std::__ndk1::allocator<char> >&>(std::__ndk1::__variant_detail::__dtor<std::__ndk1::__variant_detail::__traits<void*, std::__ndk1::basic_string<char, std::__ndk1::char_traits<char>, std::__ndk1::allocator<char> > >, (std::__ndk1::__variant_detail::_Trait)1>, std::__ndk1::__variant_detail::__base<(std::__ndk1::__variant_detail::__traits<void*, std::__ndk1::basic_string<char, std::__ndk1::char_traits<char>, std::__ndk1::allocator<char> > >)1, std::__ndk1::__variant_detail::__traits, std::__ndk1::allocator<char> >&)
PUBLIC 10988 0 std::__ndk1::__variant_detail::__visitation::__base::__dispatcher<(unsigned long)1>::__dispatch[abi:ne180000]<std::__ndk1::__variant_detail::__dtor<std::__ndk1::__variant_detail::__traits<void*, std::__ndk1::basic_string<char, std::__ndk1::char_traits<char>, std::__ndk1::allocator<char> > >, (std::__ndk1::__variant_detail::_Trait)1>::__destroy[abi:ne180000]()::{lambda(auto:1&)#1}, std::__ndk1::__variant_detail::__base<(std::__ndk1::__variant_detail::__traits<void*, std::__ndk1::basic_string<char, std::__ndk1::char_traits<char>, std::__ndk1::allocator<char> > >)1, std::__ndk1::__variant_detail::__traits, std::__ndk1::allocator<char> >&>(std::__ndk1::__variant_detail::__dtor<std::__ndk1::__variant_detail::__traits<void*, std::__ndk1::basic_string<char, std::__ndk1::char_traits<char>, std::__ndk1::allocator<char> > >, (std::__ndk1::__variant_detail::_Trait)1>, std::__ndk1::__variant_detail::__base<(std::__ndk1::__variant_detail::__traits<void*, std::__ndk1::basic_string<char, std::__ndk1::char_traits<char>, std::__ndk1::allocator<char> > >)1, std::__ndk1::__variant_detail::__traits, std::__ndk1::allocator<char> >&)
PUBLIC 1099c 0 std::__ndk1::__hash_table<std::__ndk1::__hash_value_type<void*, bool>, std::__ndk1::__unordered_map_hasher<void*, std::__ndk1::__hash_value_type<void*, bool>, std::__ndk1::hash<void*>, std::__ndk1::equal_to<void*>, true>, std::__ndk1::__unordered_map_equal<void*, std::__ndk1::__hash_value_type<void*, bool>, std::__ndk1::equal_to<void*>, std::__ndk1::hash<void*>, true>, std::__ndk1::allocator<std::__ndk1::__hash_value_type<void*, bool> > >::__emplace_unique_key_args<void*, std::__ndk1::piecewise_construct_t const&, std::__ndk1::tuple<void* const&>, std::__ndk1::tuple<> >(void* const&, std::__ndk1::piecewise_construct_t const&, std::__ndk1::tuple<void* const&>, std::__ndk1::tuple<>)
PUBLIC 10e80 0 <.plt ELF section in timestepyt.secretlayer6.android64.so>
STACK CFI INIT a5b0 10 .cfa: sp 0 +
STACK CFI INIT a5c0 8 .cfa: sp 0 +
STACK CFI INIT a5c8 8 .cfa: sp 0 +
STACK CFI INIT a5d0 14 .cfa: sp 0 +
STACK CFI INIT a5e4 1c .cfa: sp 0 +
STACK CFI INIT a600 10 .cfa: sp 0 +
STACK CFI INIT a610 30 .cfa: sp 0 +
STACK CFI INIT a640 98 .cfa: sp 0 +
STACK CFI INIT a6d8 59c .cfa: sp 0 +
STACK CFI INIT ac74 8c .cfa: sp 0 +
STACK CFI INIT ad00 30 .cfa: sp 0 +
STACK CFI INIT ad30 60 .cfa: sp 0 +
STACK CFI ad40 .cfa: sp 32 +
STACK CFI ad48 .cfa: x29 32 + x19: .cfa -16 + ^ .ra: .cfa -24 + ^ x29: .cfa -32 + ^
STACK CFI ad80 .cfa: sp 32 +
STACK CFI ad88 .cfa: sp 0 +
STACK CFI INIT ad90 1c .cfa: sp 0 +
STACK CFI INIT b22c 1c .cfa: sp 0 +
STACK CFI INIT b8c4 50 .cfa: sp 0 +
STACK CFI b8c8 .cfa: sp 32 +
STACK CFI b8d0 .cfa: x29 32 + x19: .cfa -16 + ^ .ra: .cfa -24 + ^ x29: .cfa -32 + ^
STACK CFI b8e8 .cfa: sp 32 +
STACK CFI b8f0 .cfa: sp 0 +
STACK CFI b8f4 .cfa: x29 32 +
STACK CFI b908 .cfa: sp 32 +
STACK CFI b910 .cfa: sp 0 +
STACK CFI INIT b988 7c .cfa: sp 0 +
STACK CFI b98c .cfa: sp 48 +
STACK CFI b998 .cfa: x29 48 + x19: .cfa -8 + ^ x20: .cfa -16 + ^ x21: .cfa -32 + ^ .ra: .cfa -40 + ^ x29: .cfa -48 + ^
STACK CFI b9e4 .cfa: sp 48 +
STACK CFI b9f0 .cfa: sp 0 +
STACK CFI b9f4 .cfa: sp 48 +
STACK CFI ba00 .cfa: sp 0 +
STACK CFI INIT ba04 4 .cfa: sp 0 +
STACK CFI INIT ba08 10 .cfa: sp 0 +
STACK CFI ba0c .cfa: sp 16 +
STACK CFI ba10 .cfa: x29 16 + .ra: .cfa -8 + ^ x29: .cfa -16 + ^
STACK CFI INIT bb6c 34 .cfa: sp 0 +
STACK CFI bb70 .cfa: sp 16 +
STACK CFI bb74 .cfa: x29 16 + .ra: .cfa -8 + ^ x29: .cfa -16 + ^
STACK CFI INIT bccc 80 .cfa: sp 0 +
STACK CFI bcd0 .cfa: sp 48 +
STACK CFI bcdc .cfa: x29 48 + x19: .cfa -8 + ^ x20: .cfa -16 + ^ x21: .cfa -32 + ^ .ra: .cfa -40 + ^ x29: .cfa -48 + ^
STACK CFI bd3c .cfa: sp 48 +
STACK CFI bd48 .cfa: sp 0 +
STACK CFI INIT bd4c 24 .cfa: sp 0 +
STACK CFI bd50 .cfa: sp 32 +
STACK CFI bd58 .cfa: x29 32 + x19: .cfa -16 + ^ .ra: .cfa -24 + ^ x29: .cfa -32 + ^
STACK CFI bd64 .cfa: sp 32 +
STACK CFI bd6c .cfa: sp 0 +
STACK CFI INIT c0f0 14 .cfa: sp 0 +
STACK CFI c0f4 .cfa: sp 16 +
STACK CFI c0f8 .cfa: x29 16 + .ra: .cfa -8 + ^ x29: .cfa -16 + ^
STACK CFI INIT c154 30 .cfa: sp 0 +
STACK CFI c158 .cfa: sp 32 +
STACK CFI c160 .cfa: x29 32 + x19: .cfa -16 + ^ .ra: .cfa -24 + ^ x29: .cfa -32 + ^
STACK CFI c178 .cfa: sp 32 +
STACK CFI c180 .cfa: sp 0 +
STACK CFI INIT c184 34 .cfa: sp 0 +
STACK CFI c188 .cfa: sp 32 +
STACK CFI c190 .cfa: x29 32 + x19: .cfa -16 + ^ .ra: .cfa -24 + ^ x29: .cfa -32 + ^
STACK CFI INIT c330 148 .cfa: sp 0 +
STACK CFI c334 .cfa: sp 48 +
STACK CFI c340 .cfa: x29 48 + x19: .cfa -8 + ^ x20: .cfa -16 + ^ x21: .cfa -32 + ^ .ra: .cfa -40 + ^ x29: .cfa -48 + ^
STACK CFI c468 .cfa: sp 48 +
STACK CFI c474 .cfa: sp 0 +
STACK CFI INIT c6a0 80 .cfa: sp 0 +
STACK CFI c6a4 .cfa: sp 48 +
STACK CFI c6b0 .cfa: x29 48 + x19: .cfa -8 + ^ x20: .cfa -16 + ^ x21: .cfa -24 + ^ x22: .cfa -32 + ^ .ra: .cfa -40 + ^ x29: .cfa -48 + ^
STACK CFI c6c8 .cfa: sp 48 +
STACK CFI c6d4 .cfa: sp 0 +
STACK CFI c6d8 .cfa: x29 48 +
STACK CFI c708 .cfa: sp 48 +
STACK CFI c714 .cfa: sp 0 +
STACK CFI c718 .cfa: x29 48 +
STACK CFI INIT c720 68 .cfa: sp 0 +
STACK CFI c724 .cfa: sp 32 +
STACK CFI c72c .cfa: x29 32 + x19: .cfa -8 + ^ x20: .cfa -16 + ^ .ra: .cfa -24 + ^ x29: .cfa -32 + ^
STACK CFI c744 .cfa: sp 32 +
STACK CFI c74c .cfa: sp 0 +
STACK CFI c750 .cfa: x29 32 +
STACK CFI c77c .cfa: sp 32 +
STACK CFI c784 .cfa: sp 0 +
STACK CFI INIT c788 14 .cfa: sp 0 +
STACK CFI c78c .cfa: sp 16 +
STACK CFI c790 .cfa: x29 16 + .ra: .cfa -8 + ^ x29: .cfa -16 + ^
STACK CFI INIT c79c 4 .cfa: sp 0 +
STACK CFI INIT c7a0 14 .cfa: sp 0 +
STACK CFI INIT c7b4 120 .cfa: sp 0 +
STACK CFI c7b8 .cfa: sp 64 +
STACK CFI c7c8 .cfa: x29 64 + x19: .cfa -8 + ^ x20: .cfa -16 + ^ x21: .cfa -24 + ^ x22: .cfa -32 + ^ x23: .cfa -40 + ^ x24: .cfa -48 + ^ .ra: .cfa -56 + ^ x29: .cfa -64 + ^
STACK CFI c8c0 .cfa: sp 64 +
STACK CFI c8d0 .cfa: sp 0 +
STACK CFI INIT c8d4 d4 .cfa: sp 0 +
STACK CFI c8d8 .cfa: sp 48 +
STACK CFI c8e4 .cfa: x29 48 + x19: .cfa -8 + ^ x20: .cfa -16 + ^ x21: .cfa -32 + ^ .ra: .cfa -40 + ^ x29: .cfa -48 + ^
STACK CFI c974 .cfa: sp 48 +
STACK CFI c980 .cfa: sp 0 +
STACK CFI c984 .cfa: x29 48 +
STACK CFI INIT c9a8 3c8 .cfa: sp 0 +
STACK CFI INIT cd70 8c .cfa: sp 0 +
STACK CFI cd78 .cfa: sp 32 +
STACK CFI cd80 .cfa: x29 32 + x19: .cfa -8 + ^ x20: .cfa -16 + ^ .ra: .cfa -24 + ^ x29: .cfa -32 + ^
STACK CFI cdc8 .cfa: sp 32 +
STACK CFI cdd0 .cfa: sp 0 +
STACK CFI cdd8 .cfa: x29 32 +
STACK CFI INIT d030 50 .cfa: sp 0 +
STACK CFI d034 .cfa: sp 32 +
STACK CFI d03c .cfa: x29 32 + x19: .cfa -16 + ^ .ra: .cfa -24 + ^ x29: .cfa -32 + ^
STACK CFI d054 .cfa: sp 32 +
STACK CFI d05c .cfa: sp 0 +
STACK CFI d060 .cfa: x29 32 +
STACK CFI d074 .cfa: sp 32 +
STACK CFI d07c .cfa: sp 0 +
STACK CFI INIT d080 64 .cfa: sp 0 +
STACK CFI d084 .cfa: sp 32 +
STACK CFI d08c .cfa: x29 32 + x19: .cfa -16 + ^ .ra: .cfa -24 + ^ x29: .cfa -32 + ^
STACK CFI d0b8 .cfa: sp 32 +
STACK CFI d0c0 .cfa: sp 0 +
STACK CFI d0c4 .cfa: x29 32 +
STACK CFI d0d8 .cfa: sp 32 +
STACK CFI d0e0 .cfa: sp 0 +
STACK CFI INIT d0e4 178 .cfa: sp 0 +
STACK CFI d0e8 .cfa: sp 80 +
STACK CFI d0fc .cfa: x29 80 + x19: .cfa -8 + ^ x20: .cfa -16 + ^ x21: .cfa -24 + ^ x22: .cfa -32 + ^ x23: .cfa -40 + ^ x24: .cfa -48 + ^ x25: .cfa -56 + ^ x26: .cfa -64 + ^ .ra: .cfa -72 + ^ x29: .cfa -80 + ^
STACK CFI d244 .cfa: sp 80 +
STACK CFI d258 .cfa: sp 0 +
STACK CFI INIT d25c 1b0 .cfa: sp 0 +
STACK CFI INIT d9e0 4 .cfa: sp 0 +
STACK CFI INIT e504 3c .cfa: sp 0 +
STACK CFI e508 .cfa: sp 32 +
STACK CFI e510 .cfa: x29 32 + x19: .cfa -8 + ^ x20: .cfa -16 + ^ .ra: .cfa -24 + ^ x29: .cfa -32 + ^
STACK CFI e534 .cfa: sp 32 +
STACK CFI e53c .cfa: sp 0 +
STACK CFI INIT e724 f8 .cfa: sp 0 +
STACK CFI e728 .cfa: sp 64 +
STACK CFI e738 .cfa: x29 64 + x19: .cfa -8 + ^ x20: .cfa -16 + ^ x21: .cfa -24 + ^ x22: .cfa -32 + ^ x23: .cfa -48 + ^ .ra: .cfa -56 + ^ x29: .cfa -64 + ^
STACK CFI e794 .cfa: sp 64 +
STACK CFI e7a4 .cfa: sp 0 +
STACK CFI e7a8 .cfa: x29 64 +
STACK CFI e7c4 .cfa: sp 64 +
STACK CFI e7d4 .cfa: sp 0 +
STACK CFI e7d8 .cfa: x29 64 +
STACK CFI e808 .cfa: sp 64 +
STACK CFI e818 .cfa: sp 0 +
STACK CFI INIT e890 4 .cfa: sp 0 +
STACK CFI INIT e894 14 .cfa: sp 0 +
STACK CFI INIT e8a8 4 .cfa: sp 0 +
STACK CFI INIT e8ac 14 .cfa: sp 0 +
STACK CFI INIT ef08 4 .cfa: sp 0 +
STACK CFI INIT ef0c 14 .cfa: sp 0 +
STACK CFI ef10 .cfa: sp 16 +
STACK CFI ef14 .cfa: x29 16 + .ra: .cfa -8 + ^ x29: .cfa -16 + ^
STACK CFI INIT ef20 14 .cfa: sp 0 +
STACK CFI ef24 .cfa: sp 16 +
STACK CFI ef28 .cfa: x29 16 + .ra: .cfa -8 + ^ x29: .cfa -16 + ^
STACK CFI INIT ef34 c .cfa: sp 0 +
STACK CFI ef38 .cfa: sp 16 +
STACK CFI ef3c .cfa: x29 16 + .ra: .cfa -8 + ^ x29: .cfa -16 + ^
STACK CFI INIT ef90 30 .cfa: sp 0 +
STACK CFI ef94 .cfa: sp 32 +
STACK CFI ef9c .cfa: x29 32 + x19: .cfa -16 + ^ .ra: .cfa -24 + ^ x29: .cfa -32 + ^
STACK CFI efb4 .cfa: sp 32 +
STACK CFI efbc .cfa: sp 0 +
STACK CFI INIT efc0 c .cfa: sp 0 +
STACK CFI efc4 .cfa: sp 16 +
STACK CFI efc8 .cfa: x29 16 + .ra: .cfa -8 + ^ x29: .cfa -16 + ^
STACK CFI INIT efcc 4 .cfa: sp 0 +
STACK CFI INIT efd0 4 .cfa: sp 0 +
STACK CFI INIT efd4 38 .cfa: sp 0 +
STACK CFI efd8 .cfa: sp 32 +
STACK CFI efe0 .cfa: x29 32 + x19: .cfa -16 + ^ .ra: .cfa -24 + ^ x29: .cfa -32 + ^
STACK CFI f000 .cfa: sp 32 +
STACK CFI f008 .cfa: sp 0 +
STACK CFI INIT f00c 18 .cfa: sp 0 +
STACK CFI INIT f024 4 .cfa: sp 0 +
STACK CFI INIT f028 4 .cfa: sp 0 +
STACK CFI INIT f02c 10 .cfa: sp 0 +
STACK CFI INIT f03c 1c .cfa: sp 0 +
STACK CFI INIT f058 c .cfa: sp 0 +
STACK CFI INIT f064 78 .cfa: sp 0 +
STACK CFI f070 .cfa: sp 32 +
STACK CFI f078 .cfa: x29 32 + x19: .cfa -8 + ^ x20: .cfa -16 + ^ .ra: .cfa -24 + ^ x29: .cfa -32 + ^
STACK CFI f0cc .cfa: sp 32 +
STACK CFI f0d4 .cfa: sp 0 +
STACK CFI INIT f0dc 98 .cfa: sp 0 +
STACK CFI f0e0 .cfa: sp 304 +
STACK CFI f0ec .cfa: x29 32 + x19: .cfa -8 + ^ x28: .cfa -16 + ^ .ra: .cfa -24 + ^ x29: .cfa -32 + ^
STACK CFI f160 .cfa: sp 304 +
STACK CFI f16c .cfa: sp 0 +
STACK CFI f170 .cfa: x29 32 +
STACK CFI INIT f174 3c .cfa: sp 0 +
STACK CFI f178 .cfa: sp 32 +
STACK CFI f180 .cfa: x29 32 + x19: .cfa -16 + ^ .ra: .cfa -24 + ^ x29: .cfa -32 + ^
STACK CFI f18c .cfa: sp 32 +
STACK CFI f194 .cfa: sp 0 +
STACK CFI f198 .cfa: x29 32 +
STACK CFI f1a4 .cfa: sp 32 +
STACK CFI f1ac .cfa: sp 0 +
STACK CFI INIT f1b0 4c .cfa: sp 0 +
STACK CFI f1b4 .cfa: sp 32 +
STACK CFI f1bc .cfa: x29 32 + x19: .cfa -8 + ^ x20: .cfa -16 + ^ .ra: .cfa -24 + ^ x29: .cfa -32 + ^
STACK CFI f1e4 .cfa: sp 32 +
STACK CFI f1ec .cfa: sp 0 +
STACK CFI f1f0 .cfa: sp 32 +
STACK CFI f1f8 .cfa: sp 0 +
STACK CFI INIT f41c 64 .cfa: sp 0 +
STACK CFI f420 .cfa: sp 32 +
STACK CFI f428 .cfa: x29 32 + x19: .cfa -16 + ^ .ra: .cfa -24 + ^ x29: .cfa -32 + ^
STACK CFI f454 .cfa: sp 32 +
STACK CFI f45c .cfa: sp 0 +
STACK CFI f460 .cfa: x29 32 +
STACK CFI f474 .cfa: sp 32 +
STACK CFI f47c .cfa: sp 0 +
STACK CFI INIT f480 24 .cfa: sp 0 +
STACK CFI f484 .cfa: sp 32 +
STACK CFI f48c .cfa: x29 32 + x19: .cfa -16 + ^ .ra: .cfa -24 + ^ x29: .cfa -32 + ^
STACK CFI f498 .cfa: sp 32 +
STACK CFI f4a0 .cfa: sp 0 +
STACK CFI INIT f4a4 24 .cfa: sp 0 +
STACK CFI f4a8 .cfa: sp 32 +
STACK CFI f4b0 .cfa: x29 32 + x19: .cfa -16 + ^ .ra: .cfa -24 + ^ x29: .cfa -32 + ^
STACK CFI f4bc .cfa: sp 32 +
STACK CFI f4c4 .cfa: sp 0 +
STACK CFI INIT f4c8 8 .cfa: sp 0 +
STACK CFI INIT f4d0 24 .cfa: sp 0 +
STACK CFI f4d4 .cfa: sp 32 +
STACK CFI f4dc .cfa: x29 32 + x19: .cfa -16 + ^ .ra: .cfa -24 + ^ x29: .cfa -32 + ^
STACK CFI f4e8 .cfa: sp 32 +
STACK CFI f4f0 .cfa: sp 0 +
STACK CFI INIT f4f4 28 .cfa: sp 0 +
STACK CFI f4f8 .cfa: sp 32 +
STACK CFI f500 .cfa: x29 32 + x19: .cfa -16 + ^ .ra: .cfa -24 + ^ x29: .cfa -32 + ^
STACK CFI f510 .cfa: sp 32 +
STACK CFI f518 .cfa: sp 0 +
STACK CFI INIT fca0 8 .cfa: sp 0 +
STACK CFI INIT fca8 4 .cfa: sp 0 +
STACK CFI INIT fcac 4 .cfa: sp 0 +
STACK CFI INIT fcb0 4 .cfa: sp 0 +
STACK CFI INIT fcb4 4 .cfa: sp 0 +
STACK CFI INIT fcb8 4 .cfa: sp 0 +
STACK CFI INIT 10984 4 .cfa: sp 0 +
STACK CFI INIT 10988 14 .cfa: sp 0 +
STACK CFI INIT adac 480 .cfa: sp 0 +
STACK CFI adb0 .cfa: sp 224 +
STACK CFI adcc .cfa: x29 96 + x19: .cfa -8 + ^ x20: .cfa -16 + ^ x21: .cfa -24 + ^ x22: .cfa -32 + ^ x23: .cfa -40 + ^ x24: .cfa -48 + ^ x25: .cfa -56 + ^ x26: .cfa -64 + ^ x27: .cfa -80 + ^ .ra: .cfa -88 + ^ x29: .cfa -96 + ^
STACK CFI b038 .cfa: sp 224 +
STACK CFI b054 .cfa: sp 0 +
STACK CFI b058 .cfa: x29 96 +
STACK CFI b124 .cfa: sp 224 +
STACK CFI b140 .cfa: sp 0 +
STACK CFI b144 .cfa: x29 96 +
STACK CFI INIT b248 3fc .cfa: sp 0 +
STACK CFI b24c .cfa: sp 224 +
STACK CFI b268 .cfa: x29 96 + x19: .cfa -8 + ^ x20: .cfa -16 + ^ x21: .cfa -24 + ^ x22: .cfa -32 + ^ x23: .cfa -40 + ^ x24: .cfa -48 + ^ x25: .cfa -56 + ^ x26: .cfa -64 + ^ x27: .cfa -72 + ^ x28: .cfa -80 + ^ .ra: .cfa -88 + ^ x29: .cfa -96 + ^
STACK CFI b540 .cfa: sp 224 +
STACK CFI b55c .cfa: sp 0 +
STACK CFI b560 .cfa: x29 96 +
STACK CFI INIT b644 280 .cfa: sp 0 +
STACK CFI b648 .cfa: sp 144 +
STACK CFI b65c .cfa: x29 64 + x19: .cfa -8 + ^ x20: .cfa -16 + ^ x21: .cfa -24 + ^ x22: .cfa -32 + ^ x23: .cfa -48 + ^ .ra: .cfa -56 + ^ x29: .cfa -64 + ^
STACK CFI b7f4 .cfa: sp 144 +
STACK CFI b808 .cfa: sp 0 +
STACK CFI b80c .cfa: x29 64 +
STACK CFI INIT b914 74 .cfa: sp 0 +
STACK CFI b918 .cfa: sp 48 +
STACK CFI b924 .cfa: x29 32 + x19: .cfa -8 + ^ x20: .cfa -16 + ^ .ra: .cfa -24 + ^ x29: .cfa -32 + ^
STACK CFI b970 .cfa: sp 48 +
STACK CFI b97c .cfa: sp 0 +
STACK CFI b980 .cfa: x29 32 +
STACK CFI INIT ba18 154 .cfa: sp 0 +
STACK CFI ba1c .cfa: sp 384 +
STACK CFI ba30 .cfa: x29 64 + x19: .cfa -8 + ^ x20: .cfa -16 + ^ x21: .cfa -24 + ^ x22: .cfa -32 + ^ x23: .cfa -40 + ^ x28: .cfa -48 + ^ .ra: .cfa -56 + ^ x29: .cfa -64 + ^
STACK CFI bb14 .cfa: sp 384 +
STACK CFI bb28 .cfa: sp 0 +
STACK CFI bb2c .cfa: x29 64 +
STACK CFI INIT bba0 12c .cfa: sp 0 +
STACK CFI bba4 .cfa: sp 80 +
STACK CFI bbb8 .cfa: x29 80 + x19: .cfa -8 + ^ x20: .cfa -16 + ^ x21: .cfa -24 + ^ x22: .cfa -32 + ^ x23: .cfa -40 + ^ x24: .cfa -48 + ^ x25: .cfa -56 + ^ x26: .cfa -64 + ^ .ra: .cfa -72 + ^ x29: .cfa -80 + ^
STACK CFI bc80 .cfa: sp 80 +
STACK CFI bc94 .cfa: sp 0 +
STACK CFI bc98 .cfa: x29 80 +
STACK CFI INIT bd70 1a4 .cfa: sp 0 +
STACK CFI bd74 .cfa: sp 112 +
STACK CFI bd8c .cfa: x29 80 + x19: .cfa -8 + ^ x20: .cfa -16 + ^ x21: .cfa -24 + ^ x22: .cfa -32 + ^ x23: .cfa -40 + ^ x24: .cfa -48 + ^ x25: .cfa -56 + ^ x26: .cfa -64 + ^ .ra: .cfa -72 + ^ x29: .cfa -80 + ^
STACK CFI be7c .cfa: sp 112 +
STACK CFI be94 .cfa: sp 0 +
STACK CFI be98 .cfa: x29 80 +
STACK CFI INIT bf14 1dc .cfa: sp 0 +
STACK CFI bf18 .cfa: sp 128 +
STACK CFI bf34 .cfa: x29 96 + x19: .cfa -8 + ^ x20: .cfa -16 + ^ x21: .cfa -24 + ^ x22: .cfa -32 + ^ x23: .cfa -40 + ^ x24: .cfa -48 + ^ x25: .cfa -56 + ^ x26: .cfa -64 + ^ x27: .cfa -80 + ^ .ra: .cfa -88 + ^ x29: .cfa -96 + ^
STACK CFI c0a0 .cfa: sp 128 +
STACK CFI c0bc .cfa: sp 0 +
STACK CFI c0c0 .cfa: x29 96 +
STACK CFI INIT c104 50 .cfa: sp 0 +
STACK CFI c108 .cfa: sp 32 +
STACK CFI c110 .cfa: x29 32 + x19: .cfa -8 + ^ x20: .cfa -16 + ^ .ra: .cfa -24 + ^ x29: .cfa -32 + ^
STACK CFI INIT c1b8 178 .cfa: sp 0 +
STACK CFI c1bc .cfa: sp 80 +
STACK CFI c1d0 .cfa: x29 80 + x19: .cfa -8 + ^ x20: .cfa -16 + ^ x21: .cfa -24 + ^ x22: .cfa -32 + ^ x23: .cfa -40 + ^ x24: .cfa -48 + ^ x25: .cfa -64 + ^ .ra: .cfa -72 + ^ x29: .cfa -80 + ^
STACK CFI c2fc .cfa: sp 80 +
STACK CFI c310 .cfa: sp 0 +
STACK CFI c314 .cfa: x29 80 +
STACK CFI INIT c478 228 .cfa: sp 0 +
STACK CFI c47c .cfa: sp 128 +
STACK CFI c494 .cfa: x29 80 + x19: .cfa -8 + ^ x20: .cfa -16 + ^ x21: .cfa -24 + ^ x22: .cfa -32 + ^ x23: .cfa -40 + ^ x24: .cfa -48 + ^ x25: .cfa -64 + ^ .ra: .cfa -72 + ^ x29: .cfa -80 + ^
STACK CFI c630 .cfa: sp 128 +
STACK CFI c648 .cfa: sp 0 +
STACK CFI c64c .cfa: x29 80 +
STACK CFI INIT cdfc 184 .cfa: sp 0 +
STACK CFI ce00 .cfa: sp 160 +
STACK CFI ce18 .cfa: x29 80 + x19: .cfa -8 + ^ x20: .cfa -16 + ^ x21: .cfa -24 + ^ x22: .cfa -32 + ^ x23: .cfa -40 + ^ x24: .cfa -48 + ^ x25: .cfa -56 + ^ x26: .cfa -64 + ^ .ra: .cfa -72 + ^ x29: .cfa -80 + ^
STACK CFI cf18 .cfa: sp 160 +
STACK CFI cf30 .cfa: sp 0 +
STACK CFI cf34 .cfa: x29 80 +
STACK CFI INIT cf80 b0 .cfa: sp 0 +
STACK CFI cf84 .cfa: sp 64 +
STACK CFI cf94 .cfa: x29 48 + x19: .cfa -8 + ^ x20: .cfa -16 + ^ x21: .cfa -32 + ^ .ra: .cfa -40 + ^ x29: .cfa -48 + ^
STACK CFI cff4 .cfa: sp 64 +
STACK CFI d004 .cfa: sp 0 +
STACK CFI d008 .cfa: x29 48 +
STACK CFI INIT d40c 5d4 .cfa: sp 0 +
STACK CFI d410 .cfa: sp 224 +
STACK CFI d428 .cfa: x29 80 + x19: .cfa -8 + ^ x20: .cfa -16 + ^ x21: .cfa -24 + ^ x22: .cfa -32 + ^ x23: .cfa -40 + ^ x24: .cfa -48 + ^ x25: .cfa -56 + ^ x26: .cfa -64 + ^ .ra: .cfa -72 + ^ x29: .cfa -80 + ^
STACK CFI d818 .cfa: sp 224 +
STACK CFI d830 .cfa: sp 0 +
STACK CFI d834 .cfa: x29 80 +
STACK CFI INIT d9e4 2c8 .cfa: sp 0 +
STACK CFI d9e8 .cfa: sp 144 +
STACK CFI da04 .cfa: x29 64 + x19: .cfa -8 + ^ x20: .cfa -16 + ^ x21: .cfa -24 + ^ x22: .cfa -32 + ^ x23: .cfa -40 + ^ x24: .cfa -48 + ^ .ra: .cfa -56 + ^ x29: .cfa -64 + ^ v8: .cfa -72 + ^ v9: .cfa -80 + ^ v10: .cfa -96 + ^
STACK CFI dc28 .cfa: sp 144 +
STACK CFI dc44 .cfa: sp 0 +
STACK CFI dc48 .cfa: x29 64 +
STACK CFI INIT dcac 6dc .cfa: sp 0 +
STACK CFI dcb0 .cfa: sp 240 +
STACK CFI dcc4 .cfa: x29 64 + x19: .cfa -8 + ^ x20: .cfa -16 + ^ x21: .cfa -24 + ^ x22: .cfa -32 + ^ x23: .cfa -48 + ^ .ra: .cfa -56 + ^ x29: .cfa -64 + ^
STACK CFI df54 .cfa: sp 240 +
STACK CFI df68 .cfa: sp 0 +
STACK CFI df6c .cfa: x29 64 +
STACK CFI INIT e388 c8 .cfa: sp 0 +
STACK CFI e38c .cfa: sp 32 +
STACK CFI e394 .cfa: x29 32 + x19: .cfa -8 + ^ x20: .cfa -16 + ^ .ra: .cfa -24 + ^ x29: .cfa -32 + ^
STACK CFI e3c8 .cfa: sp 32 +
STACK CFI e3d0 .cfa: sp 0 +
STACK CFI e3d4 .cfa: x29 32 +
STACK CFI e3d8 .cfa: sp 32 +
STACK CFI e3e0 .cfa: sp 0 +
STACK CFI e3e4 .cfa: x29 32 +
STACK CFI INIT e450 b4 .cfa: sp 0 +
STACK CFI e454 .cfa: sp 32 +
STACK CFI e45c .cfa: x29 32 + x19: .cfa -8 + ^ x20: .cfa -16 + ^ .ra: .cfa -24 + ^ x29: .cfa -32 + ^
STACK CFI e4e4 .cfa: sp 32 +
STACK CFI e4ec .cfa: sp 0 +
STACK CFI e4f0 .cfa: x29 32 +
STACK CFI INIT e540 1e4 .cfa: sp 0 +
STACK CFI e544 .cfa: sp 192 +
STACK CFI e558 .cfa: x29 64 + x19: .cfa -8 + ^ x20: .cfa -16 + ^ x21: .cfa -24 + ^ x22: .cfa -32 + ^ x23: .cfa -48 + ^ .ra: .cfa -56 + ^ x29: .cfa -64 + ^
STACK CFI e6b4 .cfa: sp 192 +
STACK CFI e6c8 .cfa: sp 0 +
STACK CFI e6cc .cfa: x29 64 +
STACK CFI INIT e81c 74 .cfa: sp 0 +
STACK CFI e820 .cfa: sp 48 +
STACK CFI e82c .cfa: x29 32 + x19: .cfa -8 + ^ x20: .cfa -16 + ^ .ra: .cfa -24 + ^ x29: .cfa -32 + ^
STACK CFI e878 .cfa: sp 48 +
STACK CFI e884 .cfa: sp 0 +
STACK CFI e888 .cfa: x29 32 +
STACK CFI INIT e8c0 648 .cfa: sp 0 +
STACK CFI e8c4 .cfa: sp 224 +
STACK CFI e8e0 .cfa: x29 96 + x19: .cfa -8 + ^ x20: .cfa -16 + ^ x21: .cfa -24 + ^ x22: .cfa -32 + ^ x23: .cfa -40 + ^ x24: .cfa -48 + ^ x25: .cfa -56 + ^ x26: .cfa -64 + ^ x27: .cfa -72 + ^ x28: .cfa -80 + ^ .ra: .cfa -88 + ^ x29: .cfa -96 + ^
STACK CFI ed98 .cfa: sp 224 +
STACK CFI edb4 .cfa: sp 0 +
STACK CFI edb8 .cfa: x29 96 +
STACK CFI INIT ef40 50 .cfa: sp 0 +
STACK CFI ef44 .cfa: sp 32 +
STACK CFI ef4c .cfa: x29 32 + x19: .cfa -8 + ^ x20: .cfa -16 + ^ .ra: .cfa -24 + ^ x29: .cfa -32 + ^
STACK CFI INIT f1fc 134 .cfa: sp 0 +
STACK CFI f200 .cfa: sp 80 +
STACK CFI f20c .cfa: x29 32 + x19: .cfa -8 + ^ x20: .cfa -16 + ^ .ra: .cfa -24 + ^ x29: .cfa -32 + ^
STACK CFI f23c .cfa: sp 80 +
STACK CFI f248 .cfa: sp 0 +
STACK CFI f24c .cfa: x29 32 +
STACK CFI INIT f330 78 .cfa: sp 0 +
STACK CFI f334 .cfa: sp 32 +
STACK CFI f33c .cfa: x29 32 + x19: .cfa -8 + ^ x20: .cfa -16 + ^ .ra: .cfa -24 + ^ x29: .cfa -32 + ^
STACK CFI f348 .cfa: sp 32 +
STACK CFI f350 .cfa: sp 0 +
STACK CFI f354 .cfa: x29 32 +
STACK CFI INIT f3a8 74 .cfa: sp 0 +
STACK CFI f3ac .cfa: sp 48 +
STACK CFI f3b8 .cfa: x29 32 + x19: .cfa -8 + ^ x20: .cfa -16 + ^ .ra: .cfa -24 + ^ x29: .cfa -32 + ^
STACK CFI f404 .cfa: sp 48 +
STACK CFI f410 .cfa: sp 0 +
STACK CFI f414 .cfa: x29 32 +
STACK CFI INIT f51c a4 .cfa: sp 0 +
STACK CFI f520 .cfa: sp 48 +
STACK CFI f52c .cfa: x29 48 + x19: .cfa -8 + ^ x20: .cfa -16 + ^ x21: .cfa -32 + ^ .ra: .cfa -40 + ^ x29: .cfa -48 + ^
STACK CFI f598 .cfa: sp 48 +
STACK CFI f5a4 .cfa: sp 0 +
STACK CFI f5a8 .cfa: x29 48 +
STACK CFI INIT f5c0 178 .cfa: sp 0 +
STACK CFI f5c4 .cfa: sp 128 +
STACK CFI f5d4 .cfa: x29 48 + x19: .cfa -8 + ^ x20: .cfa -16 + ^ x21: .cfa -24 + ^ x22: .cfa -32 + ^ .ra: .cfa -40 + ^ x29: .cfa -48 + ^
STACK CFI f630 .cfa: sp 128 +
STACK CFI f640 .cfa: sp 0 +
STACK CFI f644 .cfa: x29 48 +
STACK CFI INIT f738 1d4 .cfa: sp 0 +
STACK CFI f73c .cfa: sp 176 +
STACK CFI f758 .cfa: x29 72 + x19: .cfa -8 + ^ x20: .cfa -16 + ^ x21: .cfa -24 + ^ x22: .cfa -32 + ^ x23: .cfa -40 + ^ x24: .cfa -48 + ^ x25: .cfa -56 + ^ .ra: .cfa -64 + ^ x29: .cfa -72 + ^ v8: .cfa -80 + ^
STACK CFI f7f0 .cfa: sp 176 +
STACK CFI f80c .cfa: sp 0 +
STACK CFI f810 .cfa: x29 72 +
STACK CFI INIT f90c 178 .cfa: sp 0 +
STACK CFI f910 .cfa: sp 64 +
STACK CFI f920 .cfa: x29 48 + x19: .cfa -8 + ^ x20: .cfa -16 + ^ x21: .cfa -24 + ^ x22: .cfa -32 + ^ .ra: .cfa -40 + ^ x29: .cfa -48 + ^
STACK CFI fa24 .cfa: sp 64 +
STACK CFI fa34 .cfa: sp 0 +
STACK CFI fa38 .cfa: x29 48 +
STACK CFI INIT fa84 a4 .cfa: sp 0 +
STACK CFI fa88 .cfa: sp 48 +
STACK CFI fa94 .cfa: x29 48 + x19: .cfa -8 + ^ x20: .cfa -16 + ^ x21: .cfa -32 + ^ .ra: .cfa -40 + ^ x29: .cfa -48 + ^
STACK CFI fb00 .cfa: sp 48 +
STACK CFI fb0c .cfa: sp 0 +
STACK CFI fb10 .cfa: x29 48 +
STACK CFI INIT fb28 178 .cfa: sp 0 +
STACK CFI fb2c .cfa: sp 128 +
STACK CFI fb3c .cfa: x29 48 + x19: .cfa -8 + ^ x20: .cfa -16 + ^ x21: .cfa -24 + ^ x22: .cfa -32 + ^ .ra: .cfa -40 + ^ x29: .cfa -48 + ^
STACK CFI fb98 .cfa: sp 128 +
STACK CFI fba8 .cfa: sp 0 +
STACK CFI fbac .cfa: x29 48 +
STACK CFI INIT fcbc 278 .cfa: sp 0 +
STACK CFI fcc0 .cfa: sp 128 +
STACK CFI fcd4 .cfa: x29 64 + x19: .cfa -8 + ^ x20: .cfa -16 + ^ x21: .cfa -24 + ^ x22: .cfa -32 + ^ x23: .cfa -48 + ^ .ra: .cfa -56 + ^ x29: .cfa -64 + ^
STACK CFI fde0 .cfa: sp 128 +
STACK CFI fdf4 .cfa: sp 0 +
STACK CFI fdf8 .cfa: x29 64 +
STACK CFI INIT ff34 2c8 .cfa: sp 0 +
STACK CFI ff38 .cfa: sp 128 +
STACK CFI ff4c .cfa: x29 64 + x19: .cfa -8 + ^ x20: .cfa -16 + ^ x21: .cfa -24 + ^ x22: .cfa -32 + ^ x23: .cfa -48 + ^ .ra: .cfa -56 + ^ x29: .cfa -64 + ^
STACK CFI 100a8 .cfa: sp 128 +
STACK CFI 100bc .cfa: sp 0 +
STACK CFI 100c0 .cfa: x29 64 +
STACK CFI INIT 101fc 4cc .cfa: sp 0 +
STACK CFI 10200 .cfa: sp 128 +
STACK CFI 10214 .cfa: x29 64 + x19: .cfa -8 + ^ x20: .cfa -16 + ^ x21: .cfa -24 + ^ x22: .cfa -32 + ^ x23: .cfa -48 + ^ .ra: .cfa -56 + ^ x29: .cfa -64 + ^
STACK CFI 10520 .cfa: sp 128 +
STACK CFI 10534 .cfa: sp 0 +
STACK CFI 10538 .cfa: x29 64 +
STACK CFI INIT 106c8 154 .cfa: sp 0 +
STACK CFI 106cc .cfa: sp 384 +
STACK CFI 106e0 .cfa: x29 64 + x19: .cfa -8 + ^ x20: .cfa -16 + ^ x21: .cfa -24 + ^ x22: .cfa -32 + ^ x23: .cfa -40 + ^ x28: .cfa -48 + ^ .ra: .cfa -56 + ^ x29: .cfa -64 + ^
STACK CFI 107c4 .cfa: sp 384 +
STACK CFI 107d8 .cfa: sp 0 +
STACK CFI 107dc .cfa: x29 64 +
STACK CFI INIT 1081c 168 .cfa: sp 0 +
STACK CFI 10820 .cfa: sp 384 +
STACK CFI 10834 .cfa: x29 64 + x19: .cfa -8 + ^ x20: .cfa -16 + ^ x21: .cfa -24 + ^ x22: .cfa -32 + ^ x23: .cfa -40 + ^ x28: .cfa -48 + ^ .ra: .cfa -56 + ^ x29: .cfa -64 + ^
STACK CFI 1092c .cfa: sp 384 +
STACK CFI 10940 .cfa: sp 0 +
STACK CFI 10944 .cfa: x29 64 +
STACK CFI INIT 1099c 4e0 .cfa: sp 0 +
STACK CFI 109a0 .cfa: sp 64 +
STACK CFI 109b0 .cfa: x29 64 + x19: .cfa -8 + ^ x20: .cfa -16 + ^ x21: .cfa -24 + ^ x22: .cfa -32 + ^ x23: .cfa -40 + ^ x24: .cfa -48 + ^ .ra: .cfa -56 + ^ x29: .cfa -64 + ^
STACK CFI 10e50 .cfa: sp 64 +
STACK CFI 10e60 .cfa: sp 0 +
STACK CFI 10e64 .cfa: x29 64 +
