MODULE Linux arm64 ADAF06C917EA441FAA2577FC0D039DF50 covernts.custom_wraith_codes.android64.so
INFO CODE_ID C906AFADEA171F44AA2577FC0D039DF5997E9DE3
INFO GENERATOR mozilla/dump_syms 2.3.4
PUBLIC a030 0 __on_dlclose
PUBLIC a040 0 __emutls_unregister_key
PUBLIC a048 0 __on_dlclose_late
PUBLIC a050 0 __atexit_handler_wrapper
PUBLIC a064 0 atexit
PUBLIC a080 0 pthread_atfork
PUBLIC a090 0 __aarch64_ldadd8_relax
PUBLIC a0c0 0 init_have_lse_atomics
PUBLIC a158 0 __init_cpu_features_constructor
PUBLIC a6f4 0 __init_cpu_features
PUBLIC a780 0 __aarch64_ldadd8_acq_rel
PUBLIC a7b0 0 removeSpaces(std::__ndk1::basic_string<char, std::__ndk1::char_traits<char>, std::__ndk1::allocator<char> >)
PUBLIC a8e8 0 __cxx_global_var_init
PUBLIC b6ac 0 geode::modifier::ModifyBase<geode::modifier::ModifyDerive<CustomWraithCodes, SecretLayer5> >::~ModifyBase()
PUBLIC b6c4 0 std::__ndk1::basic_string<char, std::__ndk1::char_traits<char>, std::__ndk1::allocator<char> >::__throw_out_of_range[abi:ne180000]() const
PUBLIC b6d8 0 std::__ndk1::basic_string<char, std::__ndk1::char_traits<char>, std::__ndk1::allocator<char> >::__erase_external_with_move(unsigned long, unsigned long)
PUBLIC b760 0 std::__ndk1::__throw_out_of_range[abi:ne180000](char const*)
PUBLIC b7b0 0 std::out_of_range::out_of_range[abi:ne180000](char const*)
PUBLIC b7e0 0 __clang_call_terminate
PUBLIC b7f0 0 geode::modifier::ModifyDerive<CustomWraithCodes, SecretLayer5>::apply()
PUBLIC c014 0 std::__ndk1::shared_ptr<geode::Hook>::~shared_ptr[abi:ne180000]()
PUBLIC c064 0 geode::impl::ResultData<geode::Hook*, std::__ndk1::basic_string<char, std::__ndk1::char_traits<char>, std::__ndk1::allocator<char> > >::~ResultData()
PUBLIC c0d8 0 std::__ndk1::vector<std::__ndk1::basic_string<char, std::__ndk1::char_traits<char>, std::__ndk1::allocator<char> >, std::__ndk1::allocator<std::__ndk1::basic_string<char, std::__ndk1::char_traits<char>, std::__ndk1::allocator<char> > > >::~vector[abi:ne180000]()
PUBLIC c154 0 geode::modifier::ModifyBase<geode::modifier::ModifyDerive<CustomWraithCodes, SecretLayer5> >::apply()
PUBLIC c158 0 std::__ndk1::basic_string<char, std::__ndk1::char_traits<char>, std::__ndk1::allocator<char> >::__throw_length_error[abi:ne180000]() const
PUBLIC c16c 0 std::__ndk1::__throw_length_error[abi:ne180000](char const*)
PUBLIC c1bc 0 std::length_error::length_error[abi:ne180000](char const*)
PUBLIC c1ec 0 std::__throw_bad_array_new_length([abi:ne180000], void)
PUBLIC c220 0 std::__ndk1::__tree<std::__ndk1::__value_type<std::__ndk1::basic_string<char, std::__ndk1::char_traits<char>, std::__ndk1::allocator<char> >, std::__ndk1::shared_ptr<geode::Hook> >, std::__ndk1::__map_value_compare<std::__ndk1::basic_string<char, std::__ndk1::char_traits<char>, std::__ndk1::allocator<char> >, std::__ndk1::__value_type<std::__ndk1::basic_string<char, std::__ndk1::char_traits<char>, std::__ndk1::allocator<char> >, std::__ndk1::shared_ptr<geode::Hook> >, std::__ndk1::less<std::__ndk1::basic_string<char, std::__ndk1::char_traits<char>, std::__ndk1::allocator<char> > >, true>, std::__ndk1::allocator<std::__ndk1::__value_type<std::__ndk1::basic_string<char, std::__ndk1::char_traits<char>, std::__ndk1::allocator<char> >, std::__ndk1::shared_ptr<geode::Hook> > > >::find<std::__ndk1::basic_string<char, std::__ndk1::char_traits<char>, std::__ndk1::allocator<char> > >(std::__ndk1::basic_string<char, std::__ndk1::char_traits<char>, std::__ndk1::allocator<char> > const&)
PUBLIC c344 0 std::__ndk1::unique_ptr<std::__ndk1::__tree_node<std::__ndk1::__value_type<std::__ndk1::basic_string<char, std::__ndk1::char_traits<char>, std::__ndk1::allocator<char> >, std::__ndk1::shared_ptr<geode::Hook> >, void*>, std::__ndk1::__tree_node_destructor<std::__ndk1::allocator<std::__ndk1::__tree_node<std::__ndk1::__value_type<std::__ndk1::basic_string<char, std::__ndk1::char_traits<char>, std::__ndk1::allocator<char> >, std::__ndk1::shared_ptr<geode::Hook> >, void*> > > >::~unique_ptr[abi:ne180000]()
PUBLIC c3c0 0 std::__ndk1::basic_string<char, std::__ndk1::char_traits<char>, std::__ndk1::allocator<char> >::__init_copy_ctor_external(char const*, unsigned long)
PUBLIC c440 0 std::__ndk1::__tree_balance_after_insert[abi:ne180000]<std::__ndk1::__tree_node_base<void*>*>(std::__ndk1::__tree_node_base<void*>*, std::__ndk1::__tree_node_base<void*>*)
PUBLIC c5f0 0 _ZN5geode15UnwrapExceptionC2IRPNS_4HookEQsr4implE18IsStringStreamableIT_EEENS_4impl5OkTagEOS5_
PUBLIC c744 0 std::__ndk1::__throw_bad_variant_access[abi:ne180000]()
PUBLIC c778 0 std::__ndk1::basic_stringstream<char, std::__ndk1::char_traits<char>, std::__ndk1::allocator<char> >::basic_stringstream[abi:ne180000]()
PUBLIC m c8a4 0 std::__ndk1::basic_stringstream<char, std::__ndk1::char_traits<char>, std::__ndk1::allocator<char> >::~basic_stringstream()
PUBLIC c924 0 geode::UnwrapException::~UnwrapException()
PUBLIC c948 0 std::__ndk1::__put_character_sequence[abi:ne180000]<char, std::__ndk1::char_traits<char> >(std::__ndk1::basic_ostream<char, std::__ndk1::char_traits<char> >, std::__ndk1::basic_ostream const*, unsigned long)
PUBLIC caec 0 std::__ndk1::__pad_and_output[abi:ne180000]<char, std::__ndk1::char_traits<char> >(std::__ndk1::char_traits<char>, std::__ndk1::ostreambuf_iterator const*, std::__ndk1::ostreambuf_iterator const, std::__ndk1::ostreambuf_iterator const, std::__ndk1::ios_base&, std::__ndk1::ostreambuf_iterator)
PUBLIC ccc8 0 std::__ndk1::basic_stringbuf<char, std::__ndk1::char_traits<char>, std::__ndk1::allocator<char> >::str[abi:ne180000]() &&
PUBLIC ce40 0 std::__ndk1::basic_stringbuf<char, std::__ndk1::char_traits<char>, std::__ndk1::allocator<char> >::__init_buf_ptrs[abi:ne180000]()
PUBLIC cf88 0 _ZN5geode15UnwrapExceptionC2IRNSt6__ndk112basic_stringIcNS2_11char_traitsIcEENS2_9allocatorIcEEEEQsr4implE18IsStringStreamableIT_EEENS_4impl6ErrTagEOSA_
PUBLIC d0f0 0 std::__ndk1::__variant_detail::__visitation::__base::__dispatcher<(unsigned long)0>::__dispatch[abi:ne180000]<std::__ndk1::__variant_detail::__dtor<std::__ndk1::__variant_detail::__traits<std::__ndk1::monostate, std::__ndk1::basic_string<char, std::__ndk1::char_traits<char>, std::__ndk1::allocator<char> > >, (std::__ndk1::__variant_detail::_Trait)1>::__destroy[abi:ne180000]()::{lambda(auto:1&)#1}, std::__ndk1::__variant_detail::__base<(std::__ndk1::__variant_detail::__traits<std::__ndk1::monostate, std::__ndk1::basic_string<char, std::__ndk1::char_traits<char>, std::__ndk1::allocator<char> > >)1, std::__ndk1::__variant_detail::__traits, std::__ndk1::allocator<char> >&>(std::__ndk1::__variant_detail::__dtor<std::__ndk1::__variant_detail::__traits<std::__ndk1::monostate, std::__ndk1::basic_string<char, std::__ndk1::char_traits<char>, std::__ndk1::allocator<char> > >, (std::__ndk1::__variant_detail::_Trait)1>, std::__ndk1::__variant_detail::__base<(std::__ndk1::__variant_detail::__traits<std::__ndk1::monostate, std::__ndk1::basic_string<char, std::__ndk1::char_traits<char>, std::__ndk1::allocator<char> > >)1, std::__ndk1::__variant_detail::__traits, std::__ndk1::allocator<char> >&)
PUBLIC d0f4 0 std::__ndk1::__variant_detail::__visitation::__base::__dispatcher<(unsigned long)1>::__dispatch[abi:ne180000]<std::__ndk1::__variant_detail::__dtor<std::__ndk1::__variant_detail::__traits<std::__ndk1::monostate, std::__ndk1::basic_string<char, std::__ndk1::char_traits<char>, std::__ndk1::allocator<char> > >, (std::__ndk1::__variant_detail::_Trait)1>::__destroy[abi:ne180000]()::{lambda(auto:1&)#1}, std::__ndk1::__variant_detail::__base<(std::__ndk1::__variant_detail::__traits<std::__ndk1::monostate, std::__ndk1::basic_string<char, std::__ndk1::char_traits<char>, std::__ndk1::allocator<char> > >)1, std::__ndk1::__variant_detail::__traits, std::__ndk1::allocator<char> >&>(std::__ndk1::__variant_detail::__dtor<std::__ndk1::__variant_detail::__traits<std::__ndk1::monostate, std::__ndk1::basic_string<char, std::__ndk1::char_traits<char>, std::__ndk1::allocator<char> > >, (std::__ndk1::__variant_detail::_Trait)1>, std::__ndk1::__variant_detail::__base<(std::__ndk1::__variant_detail::__traits<std::__ndk1::monostate, std::__ndk1::basic_string<char, std::__ndk1::char_traits<char>, std::__ndk1::allocator<char> > >)1, std::__ndk1::__variant_detail::__traits, std::__ndk1::allocator<char> >&)
PUBLIC d108 0 std::__ndk1::__split_buffer<std::__ndk1::basic_string<char, std::__ndk1::char_traits<char>, std::__ndk1::allocator<char> >, std::__ndk1::allocator<std::__ndk1::basic_string<char, std::__ndk1::char_traits<char>, std::__ndk1::allocator<char> > >&>::~__split_buffer()
PUBLIC d170 0 std::__ndk1::vector<std::__ndk1::basic_string<char, std::__ndk1::char_traits<char>, std::__ndk1::allocator<char> >, std::__ndk1::allocator<std::__ndk1::basic_string<char, std::__ndk1::char_traits<char>, std::__ndk1::allocator<char> > > >::__throw_length_error[abi:ne180000]() const
PUBLIC d184 0 std::__ndk1::__variant_detail::__visitation::__base::__dispatcher<(unsigned long)0>::__dispatch[abi:ne180000]<std::__ndk1::__variant_detail::__dtor<std::__ndk1::__variant_detail::__traits<geode::Hook*, std::__ndk1::basic_string<char, std::__ndk1::char_traits<char>, std::__ndk1::allocator<char> > >, (std::__ndk1::__variant_detail::_Trait)1>::__destroy[abi:ne180000]()::{lambda(auto:1&)#1}, std::__ndk1::__variant_detail::__base<(std::__ndk1::__variant_detail::__traits<geode::Hook*, std::__ndk1::basic_string<char, std::__ndk1::char_traits<char>, std::__ndk1::allocator<char> > >)1, geode::Hook, std::__ndk1::allocator<char> >&>(std::__ndk1::__variant_detail::__dtor<std::__ndk1::__variant_detail::__traits<geode::Hook*, std::__ndk1::basic_string<char, std::__ndk1::char_traits<char>, std::__ndk1::allocator<char> > >, (std::__ndk1::__variant_detail::_Trait)1>, std::__ndk1::__variant_detail::__base<(std::__ndk1::__variant_detail::__traits<geode::Hook*, std::__ndk1::basic_string<char, std::__ndk1::char_traits<char>, std::__ndk1::allocator<char> > >)1, geode::Hook, std::__ndk1::allocator<char> >&)
PUBLIC d188 0 std::__ndk1::__variant_detail::__visitation::__base::__dispatcher<(unsigned long)1>::__dispatch[abi:ne180000]<std::__ndk1::__variant_detail::__dtor<std::__ndk1::__variant_detail::__traits<geode::Hook*, std::__ndk1::basic_string<char, std::__ndk1::char_traits<char>, std::__ndk1::allocator<char> > >, (std::__ndk1::__variant_detail::_Trait)1>::__destroy[abi:ne180000]()::{lambda(auto:1&)#1}, std::__ndk1::__variant_detail::__base<(std::__ndk1::__variant_detail::__traits<geode::Hook*, std::__ndk1::basic_string<char, std::__ndk1::char_traits<char>, std::__ndk1::allocator<char> > >)1, geode::Hook, std::__ndk1::allocator<char> >&>(std::__ndk1::__variant_detail::__dtor<std::__ndk1::__variant_detail::__traits<geode::Hook*, std::__ndk1::basic_string<char, std::__ndk1::char_traits<char>, std::__ndk1::allocator<char> > >, (std::__ndk1::__variant_detail::_Trait)1>, std::__ndk1::__variant_detail::__base<(std::__ndk1::__variant_detail::__traits<geode::Hook*, std::__ndk1::basic_string<char, std::__ndk1::char_traits<char>, std::__ndk1::allocator<char> > >)1, geode::Hook, std::__ndk1::allocator<char> >&)
PUBLIC d19c 0 std::__ndk1::__tree<std::__ndk1::__value_type<std::__ndk1::basic_string<char, std::__ndk1::char_traits<char>, std::__ndk1::allocator<char> >, std::__ndk1::shared_ptr<geode::Hook> >, std::__ndk1::__map_value_compare<std::__ndk1::basic_string<char, std::__ndk1::char_traits<char>, std::__ndk1::allocator<char> >, std::__ndk1::__value_type<std::__ndk1::basic_string<char, std::__ndk1::char_traits<char>, std::__ndk1::allocator<char> >, std::__ndk1::shared_ptr<geode::Hook> >, std::__ndk1::less<std::__ndk1::basic_string<char, std::__ndk1::char_traits<char>, std::__ndk1::allocator<char> > >, true>, std::__ndk1::allocator<std::__ndk1::__value_type<std::__ndk1::basic_string<char, std::__ndk1::char_traits<char>, std::__ndk1::allocator<char> >, std::__ndk1::shared_ptr<geode::Hook> > > >::destroy(std::__ndk1::__tree_node<std::__ndk1::__value_type<std::__ndk1::basic_string<char, std::__ndk1::char_traits<char>, std::__ndk1::allocator<char> >, std::__ndk1::shared_ptr<geode::Hook> >, void*>*)
PUBLIC d220 0 geode::modifier::AsStaticFunction_init<CustomWraithCodes, bool (CustomWraithCodes::*)()>::Impl<bool (CustomWraithCodes::*)()>::function(CustomWraithCodes*)
PUBLIC d620 0 geode::modifier::AsStaticFunction_onlineRewardStatusFailed<CustomWraithCodes, void (CustomWraithCodes::*)()>::Impl<void (CustomWraithCodes::*)()>::function(CustomWraithCodes*)
PUBLIC d944 0 geode::modifier::AsStaticFunction_onSubmit<CustomWraithCodes, void (CustomWraithCodes::*)(cocos2d::CCObject*)>::Impl<void (CustomWraithCodes::*)(cocos2d::CCObject*)>::function(CustomWraithCodes*, cocos2d::CCObject*)
PUBLIC daa0 0 geode::addresser::Addresser::addressOfVirtual<bool, SecretLayer5, >(bool (SecretLayer5::*)())
PUBLIC db68 0 SecretLayer5::SecretLayer5(geode::ZeroConstructorType)
PUBLIC dc1c 0 std::__ndk1::shared_ptr<tulip::hook::CallingConvention>::~shared_ptr[abi:ne180000]()
PUBLIC dc6c 0 tulip::hook::HandlerMetadata::~HandlerMetadata()
PUBLIC dcd0 0 geode::impl::ResultData<matjson::Value&, std::__ndk1::basic_string<char, std::__ndk1::char_traits<char>, std::__ndk1::allocator<char> > >::~ResultData()
PUBLIC dd44 0 std::__ndk1::__variant_detail::__visitation::__base::__dispatcher<(unsigned long)0>::__dispatch[abi:ne180000]<std::__ndk1::__variant_detail::__dtor<std::__ndk1::__variant_detail::__traits<std::__ndk1::reference_wrapper<matjson::Value>, std::__ndk1::basic_string<char, std::__ndk1::char_traits<char>, std::__ndk1::allocator<char> > >, (std::__ndk1::__variant_detail::_Trait)1>::__destroy[abi:ne180000]()::{lambda(auto:1&)#1}, std::__ndk1::__variant_detail::__base<(std::__ndk1::__variant_detail::__traits<std::__ndk1::reference_wrapper<matjson::Value>, std::__ndk1::basic_string<char, std::__ndk1::char_traits<char>, std::__ndk1::allocator<char> > >)1, matjson::Value, std::__ndk1::allocator<char> >&>(std::__ndk1::__variant_detail::__dtor<std::__ndk1::__variant_detail::__traits<std::__ndk1::reference_wrapper<matjson::Value>, std::__ndk1::basic_string<char, std::__ndk1::char_traits<char>, std::__ndk1::allocator<char> > >, (std::__ndk1::__variant_detail::_Trait)1>, std::__ndk1::__variant_detail::__base<(std::__ndk1::__variant_detail::__traits<std::__ndk1::reference_wrapper<matjson::Value>, std::__ndk1::basic_string<char, std::__ndk1::char_traits<char>, std::__ndk1::allocator<char> > >)1, matjson::Value, std::__ndk1::allocator<char> >&)
PUBLIC dd48 0 std::__ndk1::__variant_detail::__visitation::__base::__dispatcher<(unsigned long)1>::__dispatch[abi:ne180000]<std::__ndk1::__variant_detail::__dtor<std::__ndk1::__variant_detail::__traits<std::__ndk1::reference_wrapper<matjson::Value>, std::__ndk1::basic_string<char, std::__ndk1::char_traits<char>, std::__ndk1::allocator<char> > >, (std::__ndk1::__variant_detail::_Trait)1>::__destroy[abi:ne180000]()::{lambda(auto:1&)#1}, std::__ndk1::__variant_detail::__base<(std::__ndk1::__variant_detail::__traits<std::__ndk1::reference_wrapper<matjson::Value>, std::__ndk1::basic_string<char, std::__ndk1::char_traits<char>, std::__ndk1::allocator<char> > >)1, matjson::Value, std::__ndk1::allocator<char> >&>(std::__ndk1::__variant_detail::__dtor<std::__ndk1::__variant_detail::__traits<std::__ndk1::reference_wrapper<matjson::Value>, std::__ndk1::basic_string<char, std::__ndk1::char_traits<char>, std::__ndk1::allocator<char> > >, (std::__ndk1::__variant_detail::_Trait)1>, std::__ndk1::__variant_detail::__base<(std::__ndk1::__variant_detail::__traits<std::__ndk1::reference_wrapper<matjson::Value>, std::__ndk1::basic_string<char, std::__ndk1::char_traits<char>, std::__ndk1::allocator<char> > >)1, matjson::Value, std::__ndk1::allocator<char> >&)
PUBLIC dd5c 0 std::__ndk1::__variant_detail::__visitation::__base::__dispatcher<(unsigned long)0>::__dispatch[abi:ne180000]<std::__ndk1::__variant_detail::__dtor<std::__ndk1::__variant_detail::__traits<bool, std::__ndk1::basic_string<char, std::__ndk1::char_traits<char>, std::__ndk1::allocator<char> > >, (std::__ndk1::__variant_detail::_Trait)1>::__destroy[abi:ne180000]()::{lambda(auto:1&)#1}, std::__ndk1::__variant_detail::__base<(std::__ndk1::__variant_detail::__traits<bool, std::__ndk1::basic_string<char, std::__ndk1::char_traits<char>, std::__ndk1::allocator<char> > >)1, bool, std::__ndk1::allocator<char> >&>(std::__ndk1::__variant_detail::__dtor<std::__ndk1::__variant_detail::__traits<bool, std::__ndk1::basic_string<char, std::__ndk1::char_traits<char>, std::__ndk1::allocator<char> > >, (std::__ndk1::__variant_detail::_Trait)1>, std::__ndk1::__variant_detail::__base<(std::__ndk1::__variant_detail::__traits<bool, std::__ndk1::basic_string<char, std::__ndk1::char_traits<char>, std::__ndk1::allocator<char> > >)1, bool, std::__ndk1::allocator<char> >&)
PUBLIC dd60 0 std::__ndk1::__variant_detail::__visitation::__base::__dispatcher<(unsigned long)1>::__dispatch[abi:ne180000]<std::__ndk1::__variant_detail::__dtor<std::__ndk1::__variant_detail::__traits<bool, std::__ndk1::basic_string<char, std::__ndk1::char_traits<char>, std::__ndk1::allocator<char> > >, (std::__ndk1::__variant_detail::_Trait)1>::__destroy[abi:ne180000]()::{lambda(auto:1&)#1}, std::__ndk1::__variant_detail::__base<(std::__ndk1::__variant_detail::__traits<bool, std::__ndk1::basic_string<char, std::__ndk1::char_traits<char>, std::__ndk1::allocator<char> > >)1, bool, std::__ndk1::allocator<char> >&>(std::__ndk1::__variant_detail::__dtor<std::__ndk1::__variant_detail::__traits<bool, std::__ndk1::basic_string<char, std::__ndk1::char_traits<char>, std::__ndk1::allocator<char> > >, (std::__ndk1::__variant_detail::_Trait)1>, std::__ndk1::__variant_detail::__base<(std::__ndk1::__variant_detail::__traits<bool, std::__ndk1::basic_string<char, std::__ndk1::char_traits<char>, std::__ndk1::allocator<char> > >)1, bool, std::__ndk1::allocator<char> >&)
PUBLIC dd74 0 std::__ndk1::__tree<std::__ndk1::__value_type<std::__ndk1::basic_string<char, std::__ndk1::char_traits<char>, std::__ndk1::allocator<char> >, std::__ndk1::shared_ptr<geode::Hook> >, std::__ndk1::__map_value_compare<std::__ndk1::basic_string<char, std::__ndk1::char_traits<char>, std::__ndk1::allocator<char> >, std::__ndk1::__value_type<std::__ndk1::basic_string<char, std::__ndk1::char_traits<char>, std::__ndk1::allocator<char> >, std::__ndk1::shared_ptr<geode::Hook> >, std::__ndk1::less<std::__ndk1::basic_string<char, std::__ndk1::char_traits<char>, std::__ndk1::allocator<char> > >, true>, std::__ndk1::allocator<std::__ndk1::__value_type<std::__ndk1::basic_string<char, std::__ndk1::char_traits<char>, std::__ndk1::allocator<char> >, std::__ndk1::shared_ptr<geode::Hook> > > >::__emplace_unique_key_args<std::__ndk1::basic_string<char, std::__ndk1::char_traits<char>, std::__ndk1::allocator<char> >, std::__ndk1::piecewise_construct_t const&, std::__ndk1::tuple<std::__ndk1::basic_string<char, std::__ndk1::char_traits<char>, std::__ndk1::allocator<char> >&&>, std::__ndk1::tuple<> >(std::__ndk1::basic_string<char, std::__ndk1::char_traits<char>, std::__ndk1::allocator<char> > const&, std::__ndk1::piecewise_construct_t const&, std::__ndk1::tuple<std::__ndk1::basic_string<char, std::__ndk1::char_traits<char>, std::__ndk1::allocator<char> >&&>, std::__ndk1::tuple<>)
PUBLIC dedc 0 geode::addresser::Addresser::addressOfVirtual<void, SecretLayer5, >(void (SecretLayer5::*)())
PUBLIC dfa4 0 geode::Mod::getSettingValue<std::__ndk1::basic_string<char, std::__ndk1::char_traits<char>, std::__ndk1::allocator<char> > >(std::__ndk1::basic_string_view<char, std::__ndk1::char_traits<char> >) const
PUBLIC e134 0 cocos2d::CCSequence::create(cocos2d::CCFiniteTimeAction*, ...)
PUBLIC e1cc 0 CustomWraithCodes::showSuccess_W()
PUBLIC e1d0 0 CustomWraithCodes::fadeLoadingCircle_W()
PUBLIC e1e4 0 CustomWraithCodes::showReward_W()
PUBLIC e840 0 std::__ndk1::shared_ptr<geode::StringSettingV3>::~shared_ptr[abi:ne180000]()
PUBLIC e890 0 geode::cast::traverseTypeinfoFor(void*, geode::cast::ClassTypeinfoType const*, char const*)
PUBLIC e988 0 geode::modifier::FieldIntermediate<CustomWraithCodes, SecretLayer5>::self()
PUBLIC efcc 0 geode::modifier::FieldIntermediate<CustomWraithCodes, SecretLayer5>::fieldDestructor(void*)
PUBLIC efe0 0 std::__ndk1::vector<void*, std::__ndk1::allocator<void*> >::__throw_length_error[abi:ne180000]() const
PUBLIC eff4 0 std::__ndk1::vector<std::__ndk1::function<void (void*)>, std::__ndk1::allocator<std::__ndk1::function<void (void*)> > >::__throw_length_error[abi:ne180000]() const
PUBLIC f008 0 std::__ndk1::vector<void*, std::__ndk1::allocator<void*> >::__throw_out_of_range[abi:ne180000]() const
PUBLIC f01c 0 std::__ndk1::vector<std::__ndk1::function<void (void*)>, std::__ndk1::allocator<std::__ndk1::function<void (void*)> > >::__throw_out_of_range[abi:ne180000]() const
PUBLIC f030 0 std::__ndk1::__function::__base<void (void*)>::~__base()
PUBLIC f034 0 std::__ndk1::__function::__func<void (*)(void*), std::__ndk1::allocator<void (*)(void*)>, void (void*)>::~__func()
PUBLIC f038 0 std::__ndk1::__function::__func<void (*)(void*), std::__ndk1::allocator<void (*)(void*)>, void (void*)>::__clone() const
PUBLIC f070 0 std::__ndk1::__function::__func<void (*)(void*), std::__ndk1::allocator<void (*)(void*)>, void (void*)>::__clone(std::__ndk1::__function::__base<void (void*)>*) const
PUBLIC f088 0 std::__ndk1::__function::__func<void (*)(void*), std::__ndk1::allocator<void (*)(void*)>, void (void*)>::destroy()
PUBLIC f08c 0 std::__ndk1::__function::__func<void (*)(void*), std::__ndk1::allocator<void (*)(void*)>, void (void*)>::destroy_deallocate()
PUBLIC f090 0 std::__ndk1::__function::__func<void (*)(void*), std::__ndk1::allocator<void (*)(void*)>, void (void*)>::operator()(void*&&)
PUBLIC f0a0 0 std::__ndk1::__function::__func<void (*)(void*), std::__ndk1::allocator<void (*)(void*)>, void (void*)>::target(std::type_info const&) const
PUBLIC f0bc 0 std::__ndk1::__function::__func<void (*)(void*), std::__ndk1::allocator<void (*)(void*)>, void (void*)>::target_type() const
PUBLIC m f0c8 0 geodeImplicitEntry
PUBLIC f104 0 std::__ndk1::unordered_map<void*, bool, std::__ndk1::hash<void*>, std::__ndk1::equal_to<void*>, std::__ndk1::allocator<std::__ndk1::pair<void* const, bool> > >::~unordered_map[abi:ne180000]()
PUBLIC f150 0 wrapFunction(unsigned long, tulip::hook::WrapperMetadata const&)
PUBLIC f284 0 geode::impl::ResultData<void*, std::__ndk1::basic_string<char, std::__ndk1::char_traits<char>, std::__ndk1::allocator<char> > >::unwrapErr() &
PUBLIC f2fc 0 geode::impl::ResultData<void*, std::__ndk1::basic_string<char, std::__ndk1::char_traits<char>, std::__ndk1::allocator<char> > >::~ResultData()
PUBLIC f370 0 tulip::hook::WrapperMetadata::~WrapperMetadata()
PUBLIC f3d4 0 cocos2d::CCObject::~CCObject()
PUBLIC f3f8 0 cocos2d::CCNode::~CCNode()
PUBLIC f41c 0 {virtual override thunk({offset(-320)}, cocos2d::CCLayer::~CCLayer())}
PUBLIC f424 0 cocos2d::CCLayer::~CCLayer()
PUBLIC f448 0 {virtual override thunk({offset(-320)}, cocos2d::CCLayer::~CCLayer())}
PUBLIC f470 0 FLAlertLayer::create(FLAlertLayerProtocol*, char const*, gd::string, char const*, char const*, float)
PUBLIC f628 0 tulip::hook::AbstractFunction::from<FLAlertLayer*, FLAlertLayerProtocol*, char const*, gd::string, char const*, char const*, float>(FLAlertLayer* (*)(FLAlertLayerProtocol*, char const*, gd::string, char const*, char const*, float))
PUBLIC f794 0 cocos2d::CCCopying::copyWithZone(cocos2d::CCZone*)
PUBLIC f79c 0 cocos2d::CCObject::update(float)
PUBLIC f7a0 0 cocos2d::CCKeyboardDelegate::keyUp(cocos2d::enumKeyCodes)
PUBLIC f7a4 0 cocos2d::CCMouseDelegate::rightKeyDown()
PUBLIC f7a8 0 cocos2d::CCMouseDelegate::rightKeyUp()
PUBLIC f7ac 0 cocos2d::CCMouseDelegate::scrollWheel(float, float)
PUBLIC f7b0 0 cocos2d::CCNode::~CCNode()
PUBLIC fa28 0 cocos2d::CCLayer::~CCLayer()
PUBLIC fcf0 0 cocos2d::CCObject::~CCObject()
PUBLIC 101bc 0 _ZN5geode15UnwrapExceptionC2IRPvQsr4implE18IsStringStreamableIT_EEENS_4impl5OkTagEOS4_
PUBLIC 10310 0 std::__ndk1::__variant_detail::__visitation::__base::__dispatcher<(unsigned long)0>::__dispatch[abi:ne180000]<std::__ndk1::__variant_detail::__dtor<std::__ndk1::__variant_detail::__traits<void*, std::__ndk1::basic_string<char, std::__ndk1::char_traits<char>, std::__ndk1::allocator<char> > >, (std::__ndk1::__variant_detail::_Trait)1>::__destroy[abi:ne180000]()::{lambda(auto:1&)#1}, std::__ndk1::__variant_detail::__base<(std::__ndk1::__variant_detail::__traits<void*, std::__ndk1::basic_string<char, std::__ndk1::char_traits<char>, std::__ndk1::allocator<char> > >)1, std::__ndk1::__variant_detail::__traits, std::__ndk1::allocator<char> >&>(std::__ndk1::__variant_detail::__dtor<std::__ndk1::__variant_detail::__traits<void*, std::__ndk1::basic_string<char, std::__ndk1::char_traits<char>, std::__ndk1::allocator<char> > >, (std::__ndk1::__variant_detail::_Trait)1>, std::__ndk1::__variant_detail::__base<(std::__ndk1::__variant_detail::__traits<void*, std::__ndk1::basic_string<char, std::__ndk1::char_traits<char>, std::__ndk1::allocator<char> > >)1, std::__ndk1::__variant_detail::__traits, std::__ndk1::allocator<char> >&)
PUBLIC 10314 0 std::__ndk1::__variant_detail::__visitation::__base::__dispatcher<(unsigned long)1>::__dispatch[abi:ne180000]<std::__ndk1::__variant_detail::__dtor<std::__ndk1::__variant_detail::__traits<void*, std::__ndk1::basic_string<char, std::__ndk1::char_traits<char>, std::__ndk1::allocator<char> > >, (std::__ndk1::__variant_detail::_Trait)1>::__destroy[abi:ne180000]()::{lambda(auto:1&)#1}, std::__ndk1::__variant_detail::__base<(std::__ndk1::__variant_detail::__traits<void*, std::__ndk1::basic_string<char, std::__ndk1::char_traits<char>, std::__ndk1::allocator<char> > >)1, std::__ndk1::__variant_detail::__traits, std::__ndk1::allocator<char> >&>(std::__ndk1::__variant_detail::__dtor<std::__ndk1::__variant_detail::__traits<void*, std::__ndk1::basic_string<char, std::__ndk1::char_traits<char>, std::__ndk1::allocator<char> > >, (std::__ndk1::__variant_detail::_Trait)1>, std::__ndk1::__variant_detail::__base<(std::__ndk1::__variant_detail::__traits<void*, std::__ndk1::basic_string<char, std::__ndk1::char_traits<char>, std::__ndk1::allocator<char> > >)1, std::__ndk1::__variant_detail::__traits, std::__ndk1::allocator<char> >&)
PUBLIC 10328 0 std::__ndk1::__hash_table<std::__ndk1::__hash_value_type<void*, bool>, std::__ndk1::__unordered_map_hasher<void*, std::__ndk1::__hash_value_type<void*, bool>, std::__ndk1::hash<void*>, std::__ndk1::equal_to<void*>, true>, std::__ndk1::__unordered_map_equal<void*, std::__ndk1::__hash_value_type<void*, bool>, std::__ndk1::equal_to<void*>, std::__ndk1::hash<void*>, true>, std::__ndk1::allocator<std::__ndk1::__hash_value_type<void*, bool> > >::__emplace_unique_key_args<void*, std::__ndk1::piecewise_construct_t const&, std::__ndk1::tuple<void* const&>, std::__ndk1::tuple<> >(void* const&, std::__ndk1::piecewise_construct_t const&, std::__ndk1::tuple<void* const&>, std::__ndk1::tuple<>)
PUBLIC 10810 0 <.plt ELF section in covernts.custom_wraith_codes.android64.so>
STACK CFI INIT a030 10 .cfa: sp 0 +
STACK CFI INIT a040 8 .cfa: sp 0 +
STACK CFI INIT a048 8 .cfa: sp 0 +
STACK CFI INIT a050 14 .cfa: sp 0 +
STACK CFI INIT a064 1c .cfa: sp 0 +
STACK CFI INIT a080 10 .cfa: sp 0 +
STACK CFI INIT a090 30 .cfa: sp 0 +
STACK CFI INIT a0c0 98 .cfa: sp 0 +
STACK CFI INIT a158 59c .cfa: sp 0 +
STACK CFI INIT a6f4 8c .cfa: sp 0 +
STACK CFI INIT a780 30 .cfa: sp 0 +
STACK CFI INIT a7b0 138 .cfa: sp 0 +
STACK CFI a7b4 .cfa: sp 96 +
STACK CFI a7cc .cfa: x29 96 + x19: .cfa -8 + ^ x20: .cfa -16 + ^ x21: .cfa -24 + ^ x22: .cfa -32 + ^ x23: .cfa -40 + ^ x24: .cfa -48 + ^ x25: .cfa -56 + ^ x26: .cfa -64 + ^ x27: .cfa -72 + ^ x28: .cfa -80 + ^ .ra: .cfa -88 + ^ x29: .cfa -96 + ^
STACK CFI a8c8 .cfa: sp 96 +
STACK CFI a8e0 .cfa: sp 0 +
STACK CFI a8e4 .cfa: x29 96 +
STACK CFI INIT b6ac 18 .cfa: sp 0 +
STACK CFI INIT b6c4 14 .cfa: sp 0 +
STACK CFI b6c8 .cfa: sp 16 +
STACK CFI b6cc .cfa: x29 16 + .ra: .cfa -8 + ^ x29: .cfa -16 + ^
STACK CFI INIT b6d8 88 .cfa: sp 0 +
STACK CFI b6e0 .cfa: sp 48 +
STACK CFI b6ec .cfa: x29 48 + x19: .cfa -8 + ^ x20: .cfa -16 + ^ x21: .cfa -24 + ^ x22: .cfa -32 + ^ .ra: .cfa -40 + ^ x29: .cfa -48 + ^
STACK CFI b750 .cfa: sp 48 +
STACK CFI b75c .cfa: sp 0 +
STACK CFI INIT b7b0 30 .cfa: sp 0 +
STACK CFI b7b4 .cfa: sp 32 +
STACK CFI b7bc .cfa: x29 32 + x19: .cfa -16 + ^ .ra: .cfa -24 + ^ x29: .cfa -32 + ^
STACK CFI b7d4 .cfa: sp 32 +
STACK CFI b7dc .cfa: sp 0 +
STACK CFI INIT b7e0 10 .cfa: sp 0 +
STACK CFI b7e4 .cfa: sp 16 +
STACK CFI b7e8 .cfa: x29 16 + .ra: .cfa -8 + ^ x29: .cfa -16 + ^
STACK CFI INIT c014 50 .cfa: sp 0 +
STACK CFI c018 .cfa: sp 32 +
STACK CFI c020 .cfa: x29 32 + x19: .cfa -16 + ^ .ra: .cfa -24 + ^ x29: .cfa -32 + ^
STACK CFI c038 .cfa: sp 32 +
STACK CFI c040 .cfa: sp 0 +
STACK CFI c044 .cfa: x29 32 +
STACK CFI c058 .cfa: sp 32 +
STACK CFI c060 .cfa: sp 0 +
STACK CFI INIT c0d8 7c .cfa: sp 0 +
STACK CFI c0dc .cfa: sp 48 +
STACK CFI c0e8 .cfa: x29 48 + x19: .cfa -8 + ^ x20: .cfa -16 + ^ x21: .cfa -32 + ^ .ra: .cfa -40 + ^ x29: .cfa -48 + ^
STACK CFI c134 .cfa: sp 48 +
STACK CFI c140 .cfa: sp 0 +
STACK CFI c144 .cfa: sp 48 +
STACK CFI c150 .cfa: sp 0 +
STACK CFI INIT c154 4 .cfa: sp 0 +
STACK CFI INIT c158 14 .cfa: sp 0 +
STACK CFI c15c .cfa: sp 16 +
STACK CFI c160 .cfa: x29 16 + .ra: .cfa -8 + ^ x29: .cfa -16 + ^
STACK CFI INIT c1bc 30 .cfa: sp 0 +
STACK CFI c1c0 .cfa: sp 32 +
STACK CFI c1c8 .cfa: x29 32 + x19: .cfa -16 + ^ .ra: .cfa -24 + ^ x29: .cfa -32 + ^
STACK CFI c1e0 .cfa: sp 32 +
STACK CFI c1e8 .cfa: sp 0 +
STACK CFI INIT c1ec 34 .cfa: sp 0 +
STACK CFI c1f0 .cfa: sp 32 +
STACK CFI c1f8 .cfa: x29 32 + x19: .cfa -16 + ^ .ra: .cfa -24 + ^ x29: .cfa -32 + ^
STACK CFI INIT c220 124 .cfa: sp 0 +
STACK CFI c224 .cfa: sp 64 +
STACK CFI c234 .cfa: x29 64 + x19: .cfa -8 + ^ x20: .cfa -16 + ^ x21: .cfa -24 + ^ x22: .cfa -32 + ^ x23: .cfa -40 + ^ x24: .cfa -48 + ^ .ra: .cfa -56 + ^ x29: .cfa -64 + ^
STACK CFI c330 .cfa: sp 64 +
STACK CFI c340 .cfa: sp 0 +
STACK CFI INIT c344 7c .cfa: sp 0 +
STACK CFI c348 .cfa: sp 32 +
STACK CFI c350 .cfa: x29 32 + x19: .cfa -8 + ^ x20: .cfa -16 + ^ .ra: .cfa -24 + ^ x29: .cfa -32 + ^
STACK CFI c3a8 .cfa: sp 32 +
STACK CFI c3b0 .cfa: sp 0 +
STACK CFI c3b4 .cfa: sp 32 +
STACK CFI c3bc .cfa: sp 0 +
STACK CFI INIT c3c0 80 .cfa: sp 0 +
STACK CFI c3c4 .cfa: sp 48 +
STACK CFI c3d0 .cfa: x29 48 + x19: .cfa -8 + ^ x20: .cfa -16 + ^ x21: .cfa -24 + ^ x22: .cfa -32 + ^ .ra: .cfa -40 + ^ x29: .cfa -48 + ^
STACK CFI c3e8 .cfa: sp 48 +
STACK CFI c3f4 .cfa: sp 0 +
STACK CFI c3f8 .cfa: x29 48 +
STACK CFI c428 .cfa: sp 48 +
STACK CFI c434 .cfa: sp 0 +
STACK CFI c438 .cfa: x29 48 +
STACK CFI INIT c440 1b0 .cfa: sp 0 +
STACK CFI INIT c744 34 .cfa: sp 0 +
STACK CFI c748 .cfa: sp 16 +
STACK CFI c74c .cfa: x29 16 + .ra: .cfa -8 + ^ x29: .cfa -16 + ^
STACK CFI INIT c8a4 80 .cfa: sp 0 +
STACK CFI c8a8 .cfa: sp 48 +
STACK CFI c8b4 .cfa: x29 48 + x19: .cfa -8 + ^ x20: .cfa -16 + ^ x21: .cfa -32 + ^ .ra: .cfa -40 + ^ x29: .cfa -48 + ^
STACK CFI c914 .cfa: sp 48 +
STACK CFI c920 .cfa: sp 0 +
STACK CFI INIT c924 24 .cfa: sp 0 +
STACK CFI c928 .cfa: sp 32 +
STACK CFI c930 .cfa: x29 32 + x19: .cfa -16 + ^ .ra: .cfa -24 + ^ x29: .cfa -32 + ^
STACK CFI c93c .cfa: sp 32 +
STACK CFI c944 .cfa: sp 0 +
STACK CFI INIT ce40 148 .cfa: sp 0 +
STACK CFI ce44 .cfa: sp 48 +
STACK CFI ce50 .cfa: x29 48 + x19: .cfa -8 + ^ x20: .cfa -16 + ^ x21: .cfa -32 + ^ .ra: .cfa -40 + ^ x29: .cfa -48 + ^
STACK CFI cf78 .cfa: sp 48 +
STACK CFI cf84 .cfa: sp 0 +
STACK CFI INIT d0f0 4 .cfa: sp 0 +
STACK CFI INIT d0f4 14 .cfa: sp 0 +
STACK CFI INIT d108 68 .cfa: sp 0 +
STACK CFI d10c .cfa: sp 32 +
STACK CFI d114 .cfa: x29 32 + x19: .cfa -8 + ^ x20: .cfa -16 + ^ .ra: .cfa -24 + ^ x29: .cfa -32 + ^
STACK CFI d12c .cfa: sp 32 +
STACK CFI d134 .cfa: sp 0 +
STACK CFI d138 .cfa: x29 32 +
STACK CFI d164 .cfa: sp 32 +
STACK CFI d16c .cfa: sp 0 +
STACK CFI INIT d170 14 .cfa: sp 0 +
STACK CFI d174 .cfa: sp 16 +
STACK CFI d178 .cfa: x29 16 + .ra: .cfa -8 + ^ x29: .cfa -16 + ^
STACK CFI INIT d184 4 .cfa: sp 0 +
STACK CFI INIT d188 14 .cfa: sp 0 +
STACK CFI INIT d19c 84 .cfa: sp 0 +
STACK CFI d1a4 .cfa: sp 32 +
STACK CFI d1ac .cfa: x29 32 + x19: .cfa -8 + ^ x20: .cfa -16 + ^ .ra: .cfa -24 + ^ x29: .cfa -32 + ^
STACK CFI d1ec .cfa: sp 32 +
STACK CFI d1f4 .cfa: sp 0 +
STACK CFI d1fc .cfa: x29 32 +
STACK CFI INIT dc1c 50 .cfa: sp 0 +
STACK CFI dc20 .cfa: sp 32 +
STACK CFI dc28 .cfa: x29 32 + x19: .cfa -16 + ^ .ra: .cfa -24 + ^ x29: .cfa -32 + ^
STACK CFI dc40 .cfa: sp 32 +
STACK CFI dc48 .cfa: sp 0 +
STACK CFI dc4c .cfa: x29 32 +
STACK CFI dc60 .cfa: sp 32 +
STACK CFI dc68 .cfa: sp 0 +
STACK CFI INIT dc6c 64 .cfa: sp 0 +
STACK CFI dc70 .cfa: sp 32 +
STACK CFI dc78 .cfa: x29 32 + x19: .cfa -16 + ^ .ra: .cfa -24 + ^ x29: .cfa -32 + ^
STACK CFI dca4 .cfa: sp 32 +
STACK CFI dcac .cfa: sp 0 +
STACK CFI dcb0 .cfa: x29 32 +
STACK CFI dcc4 .cfa: sp 32 +
STACK CFI dccc .cfa: sp 0 +
STACK CFI INIT dd44 4 .cfa: sp 0 +
STACK CFI INIT dd48 14 .cfa: sp 0 +
STACK CFI INIT dd5c 4 .cfa: sp 0 +
STACK CFI INIT dd60 14 .cfa: sp 0 +
STACK CFI INIT dd74 168 .cfa: sp 0 +
STACK CFI dd78 .cfa: sp 80 +
STACK CFI dd8c .cfa: x29 80 + x19: .cfa -8 + ^ x20: .cfa -16 + ^ x21: .cfa -24 + ^ x22: .cfa -32 + ^ x23: .cfa -40 + ^ x24: .cfa -48 + ^ x25: .cfa -56 + ^ x26: .cfa -64 + ^ .ra: .cfa -72 + ^ x29: .cfa -80 + ^
STACK CFI dec4 .cfa: sp 80 +
STACK CFI ded8 .cfa: sp 0 +
STACK CFI INIT e134 98 .cfa: sp 0 +
STACK CFI e138 .cfa: sp 304 +
STACK CFI e144 .cfa: x29 32 + x19: .cfa -8 + ^ x28: .cfa -16 + ^ .ra: .cfa -24 + ^ x29: .cfa -32 + ^
STACK CFI e1b8 .cfa: sp 304 +
STACK CFI e1c4 .cfa: sp 0 +
STACK CFI e1c8 .cfa: x29 32 +
STACK CFI INIT e1cc 4 .cfa: sp 0 +
STACK CFI INIT e1d0 14 .cfa: sp 0 +
STACK CFI INIT e840 50 .cfa: sp 0 +
STACK CFI e844 .cfa: sp 32 +
STACK CFI e84c .cfa: x29 32 + x19: .cfa -16 + ^ .ra: .cfa -24 + ^ x29: .cfa -32 + ^
STACK CFI e864 .cfa: sp 32 +
STACK CFI e86c .cfa: sp 0 +
STACK CFI e870 .cfa: x29 32 +
STACK CFI e884 .cfa: sp 32 +
STACK CFI e88c .cfa: sp 0 +
STACK CFI INIT e890 f8 .cfa: sp 0 +
STACK CFI e894 .cfa: sp 64 +
STACK CFI e8a4 .cfa: x29 64 + x19: .cfa -8 + ^ x20: .cfa -16 + ^ x21: .cfa -24 + ^ x22: .cfa -32 + ^ x23: .cfa -48 + ^ .ra: .cfa -56 + ^ x29: .cfa -64 + ^
STACK CFI e900 .cfa: sp 64 +
STACK CFI e910 .cfa: sp 0 +
STACK CFI e914 .cfa: x29 64 +
STACK CFI e930 .cfa: sp 64 +
STACK CFI e940 .cfa: sp 0 +
STACK CFI e944 .cfa: x29 64 +
STACK CFI e974 .cfa: sp 64 +
STACK CFI e984 .cfa: sp 0 +
STACK CFI INIT efcc 14 .cfa: sp 0 +
STACK CFI INIT efe0 14 .cfa: sp 0 +
STACK CFI efe4 .cfa: sp 16 +
STACK CFI efe8 .cfa: x29 16 + .ra: .cfa -8 + ^ x29: .cfa -16 + ^
STACK CFI INIT eff4 14 .cfa: sp 0 +
STACK CFI eff8 .cfa: sp 16 +
STACK CFI effc .cfa: x29 16 + .ra: .cfa -8 + ^ x29: .cfa -16 + ^
STACK CFI INIT f008 14 .cfa: sp 0 +
STACK CFI f00c .cfa: sp 16 +
STACK CFI f010 .cfa: x29 16 + .ra: .cfa -8 + ^ x29: .cfa -16 + ^
STACK CFI INIT f01c 14 .cfa: sp 0 +
STACK CFI f020 .cfa: sp 16 +
STACK CFI f024 .cfa: x29 16 + .ra: .cfa -8 + ^ x29: .cfa -16 + ^
STACK CFI INIT f030 4 .cfa: sp 0 +
STACK CFI INIT f034 4 .cfa: sp 0 +
STACK CFI INIT f038 38 .cfa: sp 0 +
STACK CFI f03c .cfa: sp 32 +
STACK CFI f044 .cfa: x29 32 + x19: .cfa -16 + ^ .ra: .cfa -24 + ^ x29: .cfa -32 + ^
STACK CFI f064 .cfa: sp 32 +
STACK CFI f06c .cfa: sp 0 +
STACK CFI INIT f070 18 .cfa: sp 0 +
STACK CFI INIT f088 4 .cfa: sp 0 +
STACK CFI INIT f08c 4 .cfa: sp 0 +
STACK CFI INIT f090 10 .cfa: sp 0 +
STACK CFI INIT f0a0 1c .cfa: sp 0 +
STACK CFI INIT f0bc c .cfa: sp 0 +
STACK CFI INIT f0c8 3c .cfa: sp 0 +
STACK CFI f0cc .cfa: sp 32 +
STACK CFI f0d4 .cfa: x29 32 + x19: .cfa -16 + ^ .ra: .cfa -24 + ^ x29: .cfa -32 + ^
STACK CFI f0e0 .cfa: sp 32 +
STACK CFI f0e8 .cfa: sp 0 +
STACK CFI f0ec .cfa: x29 32 +
STACK CFI f0f8 .cfa: sp 32 +
STACK CFI f100 .cfa: sp 0 +
STACK CFI INIT f104 4c .cfa: sp 0 +
STACK CFI f108 .cfa: sp 32 +
STACK CFI f110 .cfa: x29 32 + x19: .cfa -8 + ^ x20: .cfa -16 + ^ .ra: .cfa -24 + ^ x29: .cfa -32 + ^
STACK CFI f138 .cfa: sp 32 +
STACK CFI f140 .cfa: sp 0 +
STACK CFI f144 .cfa: sp 32 +
STACK CFI f14c .cfa: sp 0 +
STACK CFI INIT f370 64 .cfa: sp 0 +
STACK CFI f374 .cfa: sp 32 +
STACK CFI f37c .cfa: x29 32 + x19: .cfa -16 + ^ .ra: .cfa -24 + ^ x29: .cfa -32 + ^
STACK CFI f3a8 .cfa: sp 32 +
STACK CFI f3b0 .cfa: sp 0 +
STACK CFI f3b4 .cfa: x29 32 +
STACK CFI f3c8 .cfa: sp 32 +
STACK CFI f3d0 .cfa: sp 0 +
STACK CFI INIT f3d4 24 .cfa: sp 0 +
STACK CFI f3d8 .cfa: sp 32 +
STACK CFI f3e0 .cfa: x29 32 + x19: .cfa -16 + ^ .ra: .cfa -24 + ^ x29: .cfa -32 + ^
STACK CFI f3ec .cfa: sp 32 +
STACK CFI f3f4 .cfa: sp 0 +
STACK CFI INIT f3f8 24 .cfa: sp 0 +
STACK CFI f3fc .cfa: sp 32 +
STACK CFI f404 .cfa: x29 32 + x19: .cfa -16 + ^ .ra: .cfa -24 + ^ x29: .cfa -32 + ^
STACK CFI f410 .cfa: sp 32 +
STACK CFI f418 .cfa: sp 0 +
STACK CFI INIT f41c 8 .cfa: sp 0 +
STACK CFI INIT f424 24 .cfa: sp 0 +
STACK CFI f428 .cfa: sp 32 +
STACK CFI f430 .cfa: x29 32 + x19: .cfa -16 + ^ .ra: .cfa -24 + ^ x29: .cfa -32 + ^
STACK CFI f43c .cfa: sp 32 +
STACK CFI f444 .cfa: sp 0 +
STACK CFI INIT f448 28 .cfa: sp 0 +
STACK CFI f44c .cfa: sp 32 +
STACK CFI f454 .cfa: x29 32 + x19: .cfa -16 + ^ .ra: .cfa -24 + ^ x29: .cfa -32 + ^
STACK CFI f464 .cfa: sp 32 +
STACK CFI f46c .cfa: sp 0 +
STACK CFI INIT f794 8 .cfa: sp 0 +
STACK CFI INIT f79c 4 .cfa: sp 0 +
STACK CFI INIT f7a0 4 .cfa: sp 0 +
STACK CFI INIT f7a4 4 .cfa: sp 0 +
STACK CFI INIT f7a8 4 .cfa: sp 0 +
STACK CFI INIT f7ac 4 .cfa: sp 0 +
STACK CFI INIT 10310 4 .cfa: sp 0 +
STACK CFI INIT 10314 14 .cfa: sp 0 +
STACK CFI INIT a8e8 dc4 .cfa: sp 0 +
STACK CFI a8ec .cfa: sp 240 +
STACK CFI a908 .cfa: x29 96 + x19: .cfa -8 + ^ x20: .cfa -16 + ^ x21: .cfa -24 + ^ x22: .cfa -32 + ^ x23: .cfa -40 + ^ x24: .cfa -48 + ^ x25: .cfa -56 + ^ x26: .cfa -64 + ^ x27: .cfa -72 + ^ x28: .cfa -80 + ^ .ra: .cfa -88 + ^ x29: .cfa -96 + ^
STACK CFI aa64 .cfa: sp 240 +
STACK CFI aa80 .cfa: sp 0 +
STACK CFI aa84 .cfa: x29 96 +
STACK CFI b51c .cfa: sp 240 +
STACK CFI b538 .cfa: sp 0 +
STACK CFI b53c .cfa: x29 96 +
STACK CFI INIT b760 50 .cfa: sp 0 +
STACK CFI b764 .cfa: sp 32 +
STACK CFI b76c .cfa: x29 32 + x19: .cfa -8 + ^ x20: .cfa -16 + ^ .ra: .cfa -24 + ^ x29: .cfa -32 + ^
STACK CFI INIT b7f0 824 .cfa: sp 0 +
STACK CFI b7f4 .cfa: sp 256 +
STACK CFI b80c .cfa: x29 80 + x19: .cfa -8 + ^ x20: .cfa -16 + ^ x21: .cfa -24 + ^ x22: .cfa -32 + ^ x23: .cfa -40 + ^ x24: .cfa -48 + ^ x25: .cfa -56 + ^ x26: .cfa -64 + ^ .ra: .cfa -72 + ^ x29: .cfa -80 + ^
STACK CFI bdb0 .cfa: sp 256 +
STACK CFI bdc8 .cfa: sp 0 +
STACK CFI bdcc .cfa: x29 80 +
STACK CFI INIT c064 74 .cfa: sp 0 +
STACK CFI c068 .cfa: sp 48 +
STACK CFI c074 .cfa: x29 32 + x19: .cfa -8 + ^ x20: .cfa -16 + ^ .ra: .cfa -24 + ^ x29: .cfa -32 + ^
STACK CFI c0c0 .cfa: sp 48 +
STACK CFI c0cc .cfa: sp 0 +
STACK CFI c0d0 .cfa: x29 32 +
STACK CFI INIT c16c 50 .cfa: sp 0 +
STACK CFI c170 .cfa: sp 32 +
STACK CFI c178 .cfa: x29 32 + x19: .cfa -8 + ^ x20: .cfa -16 + ^ .ra: .cfa -24 + ^ x29: .cfa -32 + ^
STACK CFI INIT c5f0 154 .cfa: sp 0 +
STACK CFI c5f4 .cfa: sp 384 +
STACK CFI c608 .cfa: x29 64 + x19: .cfa -8 + ^ x20: .cfa -16 + ^ x21: .cfa -24 + ^ x22: .cfa -32 + ^ x23: .cfa -40 + ^ x28: .cfa -48 + ^ .ra: .cfa -56 + ^ x29: .cfa -64 + ^
STACK CFI c6ec .cfa: sp 384 +
STACK CFI c700 .cfa: sp 0 +
STACK CFI c704 .cfa: x29 64 +
STACK CFI INIT c778 12c .cfa: sp 0 +
STACK CFI c77c .cfa: sp 80 +
STACK CFI c790 .cfa: x29 80 + x19: .cfa -8 + ^ x20: .cfa -16 + ^ x21: .cfa -24 + ^ x22: .cfa -32 + ^ x23: .cfa -40 + ^ x24: .cfa -48 + ^ x25: .cfa -56 + ^ x26: .cfa -64 + ^ .ra: .cfa -72 + ^ x29: .cfa -80 + ^
STACK CFI c858 .cfa: sp 80 +
STACK CFI c86c .cfa: sp 0 +
STACK CFI c870 .cfa: x29 80 +
STACK CFI INIT c948 1a4 .cfa: sp 0 +
STACK CFI c94c .cfa: sp 112 +
STACK CFI c964 .cfa: x29 80 + x19: .cfa -8 + ^ x20: .cfa -16 + ^ x21: .cfa -24 + ^ x22: .cfa -32 + ^ x23: .cfa -40 + ^ x24: .cfa -48 + ^ x25: .cfa -56 + ^ x26: .cfa -64 + ^ .ra: .cfa -72 + ^ x29: .cfa -80 + ^
STACK CFI ca54 .cfa: sp 112 +
STACK CFI ca6c .cfa: sp 0 +
STACK CFI ca70 .cfa: x29 80 +
STACK CFI INIT caec 1dc .cfa: sp 0 +
STACK CFI caf0 .cfa: sp 128 +
STACK CFI cb0c .cfa: x29 96 + x19: .cfa -8 + ^ x20: .cfa -16 + ^ x21: .cfa -24 + ^ x22: .cfa -32 + ^ x23: .cfa -40 + ^ x24: .cfa -48 + ^ x25: .cfa -56 + ^ x26: .cfa -64 + ^ x27: .cfa -80 + ^ .ra: .cfa -88 + ^ x29: .cfa -96 + ^
STACK CFI cc78 .cfa: sp 128 +
STACK CFI cc94 .cfa: sp 0 +
STACK CFI cc98 .cfa: x29 96 +
STACK CFI INIT ccc8 178 .cfa: sp 0 +
STACK CFI cccc .cfa: sp 80 +
STACK CFI cce0 .cfa: x29 80 + x19: .cfa -8 + ^ x20: .cfa -16 + ^ x21: .cfa -24 + ^ x22: .cfa -32 + ^ x23: .cfa -40 + ^ x24: .cfa -48 + ^ x25: .cfa -64 + ^ .ra: .cfa -72 + ^ x29: .cfa -80 + ^
STACK CFI ce0c .cfa: sp 80 +
STACK CFI ce20 .cfa: sp 0 +
STACK CFI ce24 .cfa: x29 80 +
STACK CFI INIT cf88 168 .cfa: sp 0 +
STACK CFI cf8c .cfa: sp 384 +
STACK CFI cfa0 .cfa: x29 64 + x19: .cfa -8 + ^ x20: .cfa -16 + ^ x21: .cfa -24 + ^ x22: .cfa -32 + ^ x23: .cfa -40 + ^ x28: .cfa -48 + ^ .ra: .cfa -56 + ^ x29: .cfa -64 + ^
STACK CFI d098 .cfa: sp 384 +
STACK CFI d0ac .cfa: sp 0 +
STACK CFI d0b0 .cfa: x29 64 +
STACK CFI INIT d220 400 .cfa: sp 0 +
STACK CFI d224 .cfa: sp 224 +
STACK CFI d240 .cfa: x29 96 + x19: .cfa -8 + ^ x20: .cfa -16 + ^ x21: .cfa -24 + ^ x22: .cfa -32 + ^ x23: .cfa -40 + ^ x24: .cfa -48 + ^ x25: .cfa -56 + ^ x26: .cfa -64 + ^ x27: .cfa -80 + ^ .ra: .cfa -88 + ^ x29: .cfa -96 + ^
STACK CFI d558 .cfa: sp 224 +
STACK CFI d574 .cfa: sp 0 +
STACK CFI d578 .cfa: x29 96 +
STACK CFI INIT d620 324 .cfa: sp 0 +
STACK CFI d624 .cfa: sp 192 +
STACK CFI d63c .cfa: x29 80 + x19: .cfa -8 + ^ x20: .cfa -16 + ^ x21: .cfa -24 + ^ x22: .cfa -32 + ^ x23: .cfa -40 + ^ x24: .cfa -48 + ^ x25: .cfa -64 + ^ .ra: .cfa -72 + ^ x29: .cfa -80 + ^
STACK CFI d874 .cfa: sp 192 +
STACK CFI d88c .cfa: sp 0 +
STACK CFI d890 .cfa: x29 80 +
STACK CFI INIT d944 15c .cfa: sp 0 +
STACK CFI d948 .cfa: sp 112 +
STACK CFI d958 .cfa: x29 48 + x19: .cfa -8 + ^ x20: .cfa -16 + ^ x21: .cfa -24 + ^ x22: .cfa -32 + ^ .ra: .cfa -40 + ^ x29: .cfa -48 + ^
STACK CFI d9f4 .cfa: sp 112 +
STACK CFI da04 .cfa: sp 0 +
STACK CFI da08 .cfa: x29 48 +
STACK CFI INIT daa0 c8 .cfa: sp 0 +
STACK CFI daa4 .cfa: sp 32 +
STACK CFI daac .cfa: x29 32 + x19: .cfa -8 + ^ x20: .cfa -16 + ^ .ra: .cfa -24 + ^ x29: .cfa -32 + ^
STACK CFI dae0 .cfa: sp 32 +
STACK CFI dae8 .cfa: sp 0 +
STACK CFI daec .cfa: x29 32 +
STACK CFI daf0 .cfa: sp 32 +
STACK CFI daf8 .cfa: sp 0 +
STACK CFI dafc .cfa: x29 32 +
STACK CFI INIT db68 b4 .cfa: sp 0 +
STACK CFI db6c .cfa: sp 32 +
STACK CFI db74 .cfa: x29 32 + x19: .cfa -8 + ^ x20: .cfa -16 + ^ .ra: .cfa -24 + ^ x29: .cfa -32 + ^
STACK CFI dbfc .cfa: sp 32 +
STACK CFI dc04 .cfa: sp 0 +
STACK CFI dc08 .cfa: x29 32 +
STACK CFI INIT dcd0 74 .cfa: sp 0 +
STACK CFI dcd4 .cfa: sp 48 +
STACK CFI dce0 .cfa: x29 32 + x19: .cfa -8 + ^ x20: .cfa -16 + ^ .ra: .cfa -24 + ^ x29: .cfa -32 + ^
STACK CFI dd2c .cfa: sp 48 +
STACK CFI dd38 .cfa: sp 0 +
STACK CFI dd3c .cfa: x29 32 +
STACK CFI INIT dedc c8 .cfa: sp 0 +
STACK CFI dee0 .cfa: sp 32 +
STACK CFI dee8 .cfa: x29 32 + x19: .cfa -8 + ^ x20: .cfa -16 + ^ .ra: .cfa -24 + ^ x29: .cfa -32 + ^
STACK CFI df1c .cfa: sp 32 +
STACK CFI df24 .cfa: sp 0 +
STACK CFI df28 .cfa: x29 32 +
STACK CFI df2c .cfa: sp 32 +
STACK CFI df34 .cfa: sp 0 +
STACK CFI df38 .cfa: x29 32 +
STACK CFI INIT dfa4 190 .cfa: sp 0 +
STACK CFI dfa8 .cfa: sp 96 +
STACK CFI dfbc .cfa: x29 64 + x19: .cfa -8 + ^ x20: .cfa -16 + ^ x21: .cfa -24 + ^ x22: .cfa -32 + ^ x23: .cfa -48 + ^ .ra: .cfa -56 + ^ x29: .cfa -64 + ^
STACK CFI e0b4 .cfa: sp 96 +
STACK CFI e0c8 .cfa: sp 0 +
STACK CFI e0cc .cfa: x29 64 +
STACK CFI INIT e1e4 65c .cfa: sp 0 +
STACK CFI e1e8 .cfa: sp 192 +
STACK CFI e204 .cfa: x29 96 + x19: .cfa -8 + ^ x20: .cfa -16 + ^ x21: .cfa -24 + ^ x22: .cfa -32 + ^ x23: .cfa -40 + ^ x24: .cfa -48 + ^ x25: .cfa -56 + ^ x26: .cfa -64 + ^ x27: .cfa -72 + ^ x28: .cfa -80 + ^ .ra: .cfa -88 + ^ x29: .cfa -96 + ^
STACK CFI e774 .cfa: sp 192 +
STACK CFI e790 .cfa: sp 0 +
STACK CFI e794 .cfa: x29 96 +
STACK CFI INIT e988 644 .cfa: sp 0 +
STACK CFI e98c .cfa: sp 224 +
STACK CFI e9a8 .cfa: x29 96 + x19: .cfa -8 + ^ x20: .cfa -16 + ^ x21: .cfa -24 + ^ x22: .cfa -32 + ^ x23: .cfa -40 + ^ x24: .cfa -48 + ^ x25: .cfa -56 + ^ x26: .cfa -64 + ^ x27: .cfa -72 + ^ x28: .cfa -80 + ^ .ra: .cfa -88 + ^ x29: .cfa -96 + ^
STACK CFI ee5c .cfa: sp 224 +
STACK CFI ee78 .cfa: sp 0 +
STACK CFI ee7c .cfa: x29 96 +
STACK CFI INIT f150 134 .cfa: sp 0 +
STACK CFI f154 .cfa: sp 80 +
STACK CFI f160 .cfa: x29 32 + x19: .cfa -8 + ^ x20: .cfa -16 + ^ .ra: .cfa -24 + ^ x29: .cfa -32 + ^
STACK CFI f190 .cfa: sp 80 +
STACK CFI f19c .cfa: sp 0 +
STACK CFI f1a0 .cfa: x29 32 +
STACK CFI INIT f284 78 .cfa: sp 0 +
STACK CFI f288 .cfa: sp 32 +
STACK CFI f290 .cfa: x29 32 + x19: .cfa -8 + ^ x20: .cfa -16 + ^ .ra: .cfa -24 + ^ x29: .cfa -32 + ^
STACK CFI f29c .cfa: sp 32 +
STACK CFI f2a4 .cfa: sp 0 +
STACK CFI f2a8 .cfa: x29 32 +
STACK CFI INIT f2fc 74 .cfa: sp 0 +
STACK CFI f300 .cfa: sp 48 +
STACK CFI f30c .cfa: x29 32 + x19: .cfa -8 + ^ x20: .cfa -16 + ^ .ra: .cfa -24 + ^ x29: .cfa -32 + ^
STACK CFI f358 .cfa: sp 48 +
STACK CFI f364 .cfa: sp 0 +
STACK CFI f368 .cfa: x29 32 +
STACK CFI INIT f470 1b8 .cfa: sp 0 +
STACK CFI f474 .cfa: sp 160 +
STACK CFI f490 .cfa: x29 72 + x19: .cfa -8 + ^ x20: .cfa -16 + ^ x21: .cfa -24 + ^ x22: .cfa -32 + ^ x23: .cfa -40 + ^ x24: .cfa -48 + ^ x25: .cfa -56 + ^ .ra: .cfa -64 + ^ x29: .cfa -72 + ^ v8: .cfa -80 + ^
STACK CFI f514 .cfa: sp 160 +
STACK CFI f530 .cfa: sp 0 +
STACK CFI f534 .cfa: x29 72 +
STACK CFI INIT f628 16c .cfa: sp 0 +
STACK CFI f62c .cfa: sp 64 +
STACK CFI f63c .cfa: x29 48 + x19: .cfa -8 + ^ x20: .cfa -16 + ^ x21: .cfa -24 + ^ x22: .cfa -32 + ^ .ra: .cfa -40 + ^ x29: .cfa -48 + ^
STACK CFI f734 .cfa: sp 64 +
STACK CFI f744 .cfa: sp 0 +
STACK CFI f748 .cfa: x29 48 +
STACK CFI INIT f7b0 278 .cfa: sp 0 +
STACK CFI f7b4 .cfa: sp 128 +
STACK CFI f7c8 .cfa: x29 64 + x19: .cfa -8 + ^ x20: .cfa -16 + ^ x21: .cfa -24 + ^ x22: .cfa -32 + ^ x23: .cfa -48 + ^ .ra: .cfa -56 + ^ x29: .cfa -64 + ^
STACK CFI f8d4 .cfa: sp 128 +
STACK CFI f8e8 .cfa: sp 0 +
STACK CFI f8ec .cfa: x29 64 +
STACK CFI INIT fa28 2c8 .cfa: sp 0 +
STACK CFI fa2c .cfa: sp 128 +
STACK CFI fa40 .cfa: x29 64 + x19: .cfa -8 + ^ x20: .cfa -16 + ^ x21: .cfa -24 + ^ x22: .cfa -32 + ^ x23: .cfa -48 + ^ .ra: .cfa -56 + ^ x29: .cfa -64 + ^
STACK CFI fb9c .cfa: sp 128 +
STACK CFI fbb0 .cfa: sp 0 +
STACK CFI fbb4 .cfa: x29 64 +
STACK CFI INIT fcf0 4cc .cfa: sp 0 +
STACK CFI fcf4 .cfa: sp 128 +
STACK CFI fd08 .cfa: x29 64 + x19: .cfa -8 + ^ x20: .cfa -16 + ^ x21: .cfa -24 + ^ x22: .cfa -32 + ^ x23: .cfa -48 + ^ .ra: .cfa -56 + ^ x29: .cfa -64 + ^
STACK CFI 10014 .cfa: sp 128 +
STACK CFI 10028 .cfa: sp 0 +
STACK CFI 1002c .cfa: x29 64 +
STACK CFI INIT 101bc 154 .cfa: sp 0 +
STACK CFI 101c0 .cfa: sp 384 +
STACK CFI 101d4 .cfa: x29 64 + x19: .cfa -8 + ^ x20: .cfa -16 + ^ x21: .cfa -24 + ^ x22: .cfa -32 + ^ x23: .cfa -40 + ^ x28: .cfa -48 + ^ .ra: .cfa -56 + ^ x29: .cfa -64 + ^
STACK CFI 102b8 .cfa: sp 384 +
STACK CFI 102cc .cfa: sp 0 +
STACK CFI 102d0 .cfa: x29 64 +
STACK CFI INIT 10328 4e0 .cfa: sp 0 +
STACK CFI 1032c .cfa: sp 64 +
STACK CFI 1033c .cfa: x29 64 + x19: .cfa -8 + ^ x20: .cfa -16 + ^ x21: .cfa -24 + ^ x22: .cfa -32 + ^ x23: .cfa -40 + ^ x24: .cfa -48 + ^ .ra: .cfa -56 + ^ x29: .cfa -64 + ^
STACK CFI 107dc .cfa: sp 64 +
STACK CFI 107ec .cfa: sp 0 +
STACK CFI 107f0 .cfa: x29 64 +
