MODULE Linux arm64 0077481928156806E5BD0A8E3AC3ECBB0 weebify.restartbtn.android64.so
INFO CODE_ID 1948770015280668E5BD0A8E3AC3ECBBA0009EA7
INFO GENERATOR mozilla/dump_syms 2.3.4
FILE 0 /home/runner/work/restartbutton-geode/restartbutton-geode/geode-sdk-clone/loader/include/Geode/utils/addresser.hpp
FILE 1 /home/runner/work/restartbutton-geode/restartbutton-geode/geode-sdk-clone/loader/include/Geode/platform/ItaniumCast.hpp
FILE 2 /usr/local/lib/android/sdk/ndk/27.2.12479018/toolchains/llvm/prebuilt/linux-x86_64/sysroot/usr/include/c++/v1/ostream
FILE 3 /usr/local/lib/android/sdk/ndk/27.2.12479018/toolchains/llvm/prebuilt/linux-x86_64/sysroot/usr/include/c++/v1/variant
FILE 4 /usr/local/lib/android/sdk/ndk/27.2.12479018/toolchains/llvm/prebuilt/linux-x86_64/sysroot/usr/include/c++/v1/stdexcept
FILE 5 /usr/local/lib/android/sdk/ndk/27.2.12479018/toolchains/llvm/prebuilt/linux-x86_64/sysroot/usr/include/c++/v1/__tree
FILE 6 /usr/local/lib/android/sdk/ndk/27.2.12479018/toolchains/llvm/prebuilt/linux-x86_64/sysroot/usr/include/c++/v1/locale
FILE 7 /usr/local/lib/android/sdk/ndk/27.2.12479018/toolchains/llvm/prebuilt/linux-x86_64/sysroot/usr/include/c++/v1/new
FILE 8 /home/runner/work/restartbutton-geode/restartbutton-geode/build/bindings/bindings/Geode/modify/MenuLayer.hpp
FILE 9 /home/runner/work/restartbutton-geode/restartbutton-geode/build/bindings/bindings/Geode/modify/CCKeyboardDispatcher.hpp
FILE 10 /home/runner/work/restartbutton-geode/restartbutton-geode/src/main.cpp
FILE 11 /home/runner/work/restartbutton-geode/restartbutton-geode/geode-sdk-clone/loader/include/Geode/modify/Modify.hpp
FILE 12 /usr/local/lib/android/sdk/ndk/27.2.12479018/toolchains/llvm/prebuilt/linux-x86_64/sysroot/usr/include/c++/v1/vector
FILE 13 /usr/local/lib/android/sdk/ndk/27.2.12479018/toolchains/llvm/prebuilt/linux-x86_64/sysroot/usr/include/c++/v1/string
FILE 14 /home/runner/work/restartbutton-geode/restartbutton-geode/cpm-cache/result/28b1b03e0682509636d5e5825265ce2421aac4dc/include/Geode/Result.hpp
FILE 15 /usr/local/lib/android/sdk/ndk/27.2.12479018/toolchains/llvm/prebuilt/linux-x86_64/sysroot/usr/include/c++/v1/__memory/shared_ptr.h
FILE 16 /usr/local/lib/android/sdk/ndk/27.2.12479018/toolchains/llvm/prebuilt/linux-x86_64/sysroot/usr/include/c++/v1/__functional/function.h
FILE 17 /home/runner/work/restartbutton-geode/restartbutton-geode/cpm-cache/tuliphook/727bc6fdab39f84eb52f1519195d5488a312e77e/include/tulip/HandlerData.hpp
FILE 18 /usr/local/lib/android/sdk/ndk/27.2.12479018/toolchains/llvm/prebuilt/linux-x86_64/sysroot/usr/include/c++/v1/sstream
FILE 19 /usr/local/lib/android/sdk/ndk/27.2.12479018/toolchains/llvm/prebuilt/linux-x86_64/sysroot/usr/include/c++/v1/__split_buffer
FILE 20 /home/runner/work/restartbutton-geode/restartbutton-geode/build/bindings/bindings/Geode/binding/MenuLayer.hpp
FILE 21 /home/runner/work/restartbutton-geode/restartbutton-geode/geode-sdk-clone/loader/include/Geode/loader/Mod.hpp
FILE 22 /home/runner/work/restartbutton-geode/restartbutton-geode/geode-sdk-clone/entry.cpp
PUBLIC 43e0 0 __on_dlclose
PUBLIC 43f0 0 __emutls_unregister_key
PUBLIC 43f8 0 __on_dlclose_late
PUBLIC 4400 0 __atexit_handler_wrapper
PUBLIC 4414 0 atexit
PUBLIC 4430 0 pthread_atfork
PUBLIC 4440 0 __aarch64_ldadd8_relax
PUBLIC 4470 0 init_have_lse_atomics
PUBLIC 4508 0 __init_cpu_features_constructor
PUBLIC 4aa4 0 __init_cpu_features
PUBLIC 4b30 0 __aarch64_ldadd8_acq_rel
FUNC 4b60 1d4 0 restart()
4b60 1c 8 10
4b7c 1c 9 10
4b98 1c 10 10
4bb4 4 9 10
4bb8 30 13 10
4be8 8 15 10
4bf0 8 13 10
4bf8 8 15 10
4c00 28 11 10
4c28 24 20 10
4c4c 50 11 10
4c9c 20 21 10
4cbc 78 11 10
FUNC 4d34 1e8 0 reload()
4d34 1c 23 10
4d50 18 24 10
4d68 20 25 10
4d88 4 24 10
4d8c 8 26 10
4d94 4 29 10
4d98 4 26 10
4d9c 34 29 10
4dd0 8 31 10
4dd8 4 29 10
4ddc 8 31 10
4de4 2c 27 10
4e10 24 36 10
4e34 50 27 10
4e84 20 37 10
4ea4 78 27 10
FUNC 4f1c 444 0 __cxx_global_var_init
4f58 408 346 11
FUNC 5360 18 0 geode::modifier::ModifyBase<geode::modifier::ModifyDerive<AltMenuLayer, MenuLayer> >::~ModifyBase()
5360 18 141 11
FUNC 5378 41c 0 __cxx_global_var_init.8
539c 3f8 346 11
FUNC 5794 18 0 geode::modifier::ModifyBase<geode::modifier::ModifyDerive<hook129<(anonymous namespace)::hook129Parent>, cocos2d::CCKeyboardDispatcher> >::~ModifyBase()
5794 18 141 11
PUBLIC 57ac 0 __clang_call_terminate
FUNC 57bc 14 0 std::__ndk1::basic_string<char, std::__ndk1::char_traits<char>, std::__ndk1::allocator<char> >::__throw_length_error[abi:ne180000]() const
57bc 8 2118 13
57c4 c 2119 13
FUNC 57d0 50 0 std::__ndk1::__throw_length_error[abi:ne180000](char const*)
57d0 10 239 4
57e0 40 241 4
FUNC 5820 30 0 std::length_error::length_error[abi:ne180000](char const*)
5820 30 152 4
FUNC 5850 34 0 std::__throw_bad_array_new_length([abi:ne180000], void)
5850 c 172 7
585c 28 174 7
FUNC 5884 4 0 std::__ndk1::__function::__func<restart()::$_0, std::__ndk1::allocator<restart()::$_0>, void (FLAlertLayer*, bool)>::~__func()
5884 4 250 16
FUNC 5888 24 0 std::__ndk1::__function::__func<restart()::$_0, std::__ndk1::allocator<restart()::$_0>, void (FLAlertLayer*, bool)>::__clone() const
5888 8 277 16
5890 8 282 16
5898 c 283 16
58a4 8 285 16
FUNC 58ac 10 0 std::__ndk1::__function::__func<restart()::$_0, std::__ndk1::allocator<restart()::$_0>, void (FLAlertLayer*, bool)>::__clone(std::__ndk1::__function::__base<void (FLAlertLayer*, bool)>*) const
58ac c 289 16
58b8 4 290 16
FUNC 58bc 4 0 std::__ndk1::__function::__func<restart()::$_0, std::__ndk1::allocator<restart()::$_0>, void (FLAlertLayer*, bool)>::destroy()
58bc 4 295 16
FUNC 58c0 4 0 std::__ndk1::__function::__func<restart()::$_0, std::__ndk1::allocator<restart()::$_0>, void (FLAlertLayer*, bool)>::destroy_deallocate()
58c0 4 303 16
FUNC 58c4 10 0 std::__ndk1::__function::__func<restart()::$_0, std::__ndk1::allocator<restart()::$_0>, void (FLAlertLayer*, bool)>::operator()(FLAlertLayer*&&, bool&&)
58c4 10 308 16
FUNC 58d4 1c 0 std::__ndk1::__function::__func<restart()::$_0, std::__ndk1::allocator<restart()::$_0>, void (FLAlertLayer*, bool)>::target(std::type_info const&) const
58d4 18 315 16
58ec 4 318 16
FUNC 58f0 c 0 std::__ndk1::__function::__func<restart()::$_0, std::__ndk1::allocator<restart()::$_0>, void (FLAlertLayer*, bool)>::target_type() const
58f0 c 322 16
FUNC 58fc 4 0 std::__ndk1::__function::__base<void (FLAlertLayer*, bool)>::~__base()
58fc 4 235 16
FUNC 5900 4 0 std::__ndk1::__function::__func<reload()::$_0, std::__ndk1::allocator<reload()::$_0>, void (FLAlertLayer*, bool)>::~__func()
5900 4 250 16
FUNC 5904 24 0 std::__ndk1::__function::__func<reload()::$_0, std::__ndk1::allocator<reload()::$_0>, void (FLAlertLayer*, bool)>::__clone() const
5904 8 277 16
590c 8 282 16
5914 c 283 16
5920 8 285 16
FUNC 5928 10 0 std::__ndk1::__function::__func<reload()::$_0, std::__ndk1::allocator<reload()::$_0>, void (FLAlertLayer*, bool)>::__clone(std::__ndk1::__function::__base<void (FLAlertLayer*, bool)>*) const
5928 c 289 16
5934 4 290 16
FUNC 5938 4 0 std::__ndk1::__function::__func<reload()::$_0, std::__ndk1::allocator<reload()::$_0>, void (FLAlertLayer*, bool)>::destroy()
5938 4 295 16
FUNC 593c 4 0 std::__ndk1::__function::__func<reload()::$_0, std::__ndk1::allocator<reload()::$_0>, void (FLAlertLayer*, bool)>::destroy_deallocate()
593c 4 303 16
FUNC 5940 34 0 std::__ndk1::__function::__func<reload()::$_0, std::__ndk1::allocator<reload()::$_0>, void (FLAlertLayer*, bool)>::operator()(FLAlertLayer*&&, bool&&)
5940 34 308 16
FUNC 5974 1c 0 std::__ndk1::__function::__func<reload()::$_0, std::__ndk1::allocator<reload()::$_0>, void (FLAlertLayer*, bool)>::target(std::type_info const&) const
5974 18 315 16
598c 4 318 16
FUNC 5990 c 0 std::__ndk1::__function::__func<reload()::$_0, std::__ndk1::allocator<reload()::$_0>, void (FLAlertLayer*, bool)>::target_type() const
5990 c 322 16
FUNC 599c 600 0 geode::modifier::ModifyDerive<AltMenuLayer, MenuLayer>::apply()
599c 30 431 8
59cc 218 434 8
5be4 218 471 8
5dfc 2c 476 8
5e28 48 434 8
5e70 48 471 8
5eb8 30 434 8
5ee8 40 471 8
5f28 74 434 8
FUNC 5f9c 50 0 std::__ndk1::shared_ptr<geode::Hook>::~shared_ptr[abi:ne180000]()
5f9c c 643 15
5fa8 8 644 15
5fb0 10 645 15
5fc0 c 646 15
5fcc 20 645 15
FUNC 5fec 74 0 geode::impl::ResultData<geode::Hook*, std::__ndk1::basic_string<char, std::__ndk1::char_traits<char>, std::__ndk1::allocator<char> > >::~ResultData()
5fec 74 334 14
FUNC 6060 7c 0 std::__ndk1::vector<std::__ndk1::basic_string<char, std::__ndk1::char_traits<char>, std::__ndk1::allocator<char> >, std::__ndk1::allocator<std::__ndk1::basic_string<char, std::__ndk1::char_traits<char>, std::__ndk1::allocator<char> > > >::~vector[abi:ne180000]()
6060 7c 501 12
FUNC 60dc 4 0 geode::modifier::ModifyBase<geode::modifier::ModifyDerive<AltMenuLayer, MenuLayer> >::apply()
60dc 4 316 11
FUNC 60e0 154 0 _ZN5geode15UnwrapExceptionC2IRPNS_4HookEQsr4implE18IsStringStreamableIT_EEENS_4impl5OkTagEOS5_
60e0 20 316 14
6100 48 315 14
6148 5c 314 14
61a4 4 315 14
61a8 18 314 14
61c0 34 316 14
61f4 40 314 14
FUNC 6234 34 0 std::__ndk1::__throw_bad_variant_access[abi:ne180000]()
6234 8 285 3
623c 2c 287 3
FUNC 6268 124 0 std::__ndk1::basic_stringstream<char, std::__ndk1::char_traits<char>, std::__ndk1::allocator<char> >::basic_stringstream[abi:ne180000]()
6268 124 1010 18
FUNC 638c 80 0 std::__ndk1::basic_stringstream<char, std::__ndk1::char_traits<char>, std::__ndk1::allocator<char> >::~basic_stringstream()
638c 80 1102 18
FUNC 640c 24 0 geode::UnwrapException::~UnwrapException()
640c 24 325 14
FUNC 6430 198 0 std::__ndk1::__put_character_sequence[abi:ne180000]<char, std::__ndk1::char_traits<char> >(std::__ndk1::basic_ostream<char, std::__ndk1::char_traits<char> >, std::__ndk1::basic_ostream const*, unsigned long)
6430 34 665 2
6464 c 669 2
6470 8 670 2
6478 c 673 2
6484 4 678 2
6488 4 673 2
648c 4 675 2
6490 54 678 2
64e4 10 675 2
64f4 10 672 2
6504 1c 680 2
6520 8 683 2
6528 38 687 2
6560 10 678 2
6570 18 683 2
6588 10 684 2
6598 30 685 2
FUNC 65c8 1b4 0 std::__ndk1::__pad_and_output[abi:ne180000]<char, std::__ndk1::char_traits<char> >(std::__ndk1::char_traits<char>, std::__ndk1::ostreambuf_iterator const*, std::__ndk1::ostreambuf_iterator const, std::__ndk1::ostreambuf_iterator const, std::__ndk1::ios_base&, std::__ndk1::ostreambuf_iterator)
65c8 30 1246 6
65f8 4 1247 6
65fc 4 1250 6
6600 4 1249 6
6604 10 1255 6
6614 c 1251 6
6620 8 1256 6
6628 1c 1257 6
6644 8 1262 6
664c 4c 1263 6
6698 2c 1264 6
66c4 1c 1268 6
66e0 4 1269 6
66e4 8 1270 6
66ec 20 1271 6
670c c 1276 6
6718 34 1278 6
674c 30 1268 6
FUNC 677c 15c 0 std::__ndk1::basic_stringbuf<char, std::__ndk1::char_traits<char>, std::__ndk1::allocator<char> >::str[abi:ne180000]() &&
677c 18 396 18
6794 40 397 18
67d4 8 398 18
67dc 8 402 18
67e4 4 398 18
67e8 4 402 18
67ec 4 398 18
67f0 c 402 18
67fc 4 398 18
6800 8 402 18
6808 4 398 18
680c 4 402 18
6810 4 398 18
6814 3c 402 18
6850 4 401 18
6854 30 402 18
6884 1c 403 18
68a0 4 404 18
68a4 34 406 18
FUNC 68d8 148 0 std::__ndk1::basic_stringbuf<char, std::__ndk1::char_traits<char>, std::__ndk1::allocator<char> >::__init_buf_ptrs[abi:ne180000]()
68d8 10 626 18
68e8 8 628 18
68f0 4 630 18
68f4 4 628 18
68f8 4 627 18
68fc 8 629 18
6904 4 628 18
6908 4 629 18
690c 4 630 18
6910 4 631 18
6914 4 632 18
6918 4 631 18
691c 4 632 18
6920 4 634 18
6924 20 636 18
6944 4 635 18
6948 4 636 18
694c 4 635 18
6950 3c 636 18
698c 14 637 18
69a0 4 638 18
69a4 4 637 18
69a8 4 638 18
69ac 8 637 18
69b4 4 638 18
69b8 48 639 18
6a00 4 640 18
6a04 4 643 18
6a08 8 644 18
6a10 10 647 18
FUNC 6a20 218 0 std::__ndk1::vector<std::__ndk1::basic_string<char, std::__ndk1::char_traits<char>, std::__ndk1::allocator<char> >, std::__ndk1::allocator<std::__ndk1::basic_string<char, std::__ndk1::char_traits<char>, std::__ndk1::allocator<char> > > >::__push_back_slow_path<std::__ndk1::basic_string<char, std::__ndk1::char_traits<char>, std::__ndk1::allocator<char> > const&>(std::__ndk1::basic_string<char, std::__ndk1::char_traits<char>, std::__ndk1::allocator<char> > const&)
6a20 30 1449 12
6a50 94 1451 12
6ae4 4 1453 12
6ae8 4 1451 12
6aec 24 1453 12
6b10 4 1455 12
6b14 4 1454 12
6b18 4 1455 12
6b1c 4 1454 12
6b20 44 1455 12
6b64 4 1457 12
6b68 10 1455 12
6b78 70 1457 12
6be8 2c 1451 12
6c14 24 1457 12
FUNC 6c38 70 0 std::__ndk1::basic_string<char, std::__ndk1::char_traits<char>, std::__ndk1::allocator<char> >::__init_copy_ctor_external(char const*, unsigned long)
6c38 14 2232 13
6c4c 8 2237 13
6c54 10 2239 13
6c64 8 2241 13
6c6c 10 2243 13
6c7c 8 2247 13
6c84 4 2246 13
6c88 4 2247 13
6c8c 14 2250 13
6ca0 8 2242 13
FUNC 6ca8 68 0 std::__ndk1::__split_buffer<std::__ndk1::basic_string<char, std::__ndk1::char_traits<char>, std::__ndk1::allocator<char> >, std::__ndk1::allocator<std::__ndk1::basic_string<char, std::__ndk1::char_traits<char>, std::__ndk1::allocator<char> > >&>::~__split_buffer()
6ca8 c 352 19
6cb4 10 353 19
6cc4 8 354 19
6ccc c 355 19
6cd8 2c 353 19
6d04 c 356 19
FUNC 6d10 14 0 std::__ndk1::vector<std::__ndk1::basic_string<char, std::__ndk1::char_traits<char>, std::__ndk1::allocator<char> >, std::__ndk1::allocator<std::__ndk1::basic_string<char, std::__ndk1::char_traits<char>, std::__ndk1::allocator<char> > > >::__throw_length_error[abi:ne180000]() const
6d10 14 940 12
FUNC 6d24 4 0 std::__ndk1::__variant_detail::__visitation::__base::__dispatcher<(unsigned long)0>::__dispatch[abi:ne180000]<std::__ndk1::__variant_detail::__dtor<std::__ndk1::__variant_detail::__traits<geode::Hook*, std::__ndk1::basic_string<char, std::__ndk1::char_traits<char>, std::__ndk1::allocator<char> > >, (std::__ndk1::__variant_detail::_Trait)1>::__destroy[abi:ne180000]()::{lambda(auto:1&)#1}, std::__ndk1::__variant_detail::__base<(std::__ndk1::__variant_detail::__traits<geode::Hook*, std::__ndk1::basic_string<char, std::__ndk1::char_traits<char>, std::__ndk1::allocator<char> > >)1, geode::Hook, std::__ndk1::allocator<char> >&>(std::__ndk1::__variant_detail::__dtor<std::__ndk1::__variant_detail::__traits<geode::Hook*, std::__ndk1::basic_string<char, std::__ndk1::char_traits<char>, std::__ndk1::allocator<char> > >, (std::__ndk1::__variant_detail::_Trait)1>, std::__ndk1::__variant_detail::__base<(std::__ndk1::__variant_detail::__traits<geode::Hook*, std::__ndk1::basic_string<char, std::__ndk1::char_traits<char>, std::__ndk1::allocator<char> > >)1, geode::Hook, std::__ndk1::allocator<char> >&)
6d24 4 526 3
FUNC 6d28 14 0 std::__ndk1::__variant_detail::__visitation::__base::__dispatcher<(unsigned long)1>::__dispatch[abi:ne180000]<std::__ndk1::__variant_detail::__dtor<std::__ndk1::__variant_detail::__traits<geode::Hook*, std::__ndk1::basic_string<char, std::__ndk1::char_traits<char>, std::__ndk1::allocator<char> > >, (std::__ndk1::__variant_detail::_Trait)1>::__destroy[abi:ne180000]()::{lambda(auto:1&)#1}, std::__ndk1::__variant_detail::__base<(std::__ndk1::__variant_detail::__traits<geode::Hook*, std::__ndk1::basic_string<char, std::__ndk1::char_traits<char>, std::__ndk1::allocator<char> > >)1, geode::Hook, std::__ndk1::allocator<char> >&>(std::__ndk1::__variant_detail::__dtor<std::__ndk1::__variant_detail::__traits<geode::Hook*, std::__ndk1::basic_string<char, std::__ndk1::char_traits<char>, std::__ndk1::allocator<char> > >, (std::__ndk1::__variant_detail::_Trait)1>, std::__ndk1::__variant_detail::__base<(std::__ndk1::__variant_detail::__traits<geode::Hook*, std::__ndk1::basic_string<char, std::__ndk1::char_traits<char>, std::__ndk1::allocator<char> > >)1, geode::Hook, std::__ndk1::allocator<char> >&)
6d28 14 526 3
FUNC 6d3c fc 0 std::__ndk1::__tree<std::__ndk1::__value_type<std::__ndk1::basic_string<char, std::__ndk1::char_traits<char>, std::__ndk1::allocator<char> >, std::__ndk1::shared_ptr<geode::Hook> >, std::__ndk1::__map_value_compare<std::__ndk1::basic_string<char, std::__ndk1::char_traits<char>, std::__ndk1::allocator<char> >, std::__ndk1::__value_type<std::__ndk1::basic_string<char, std::__ndk1::char_traits<char>, std::__ndk1::allocator<char> >, std::__ndk1::shared_ptr<geode::Hook> >, std::__ndk1::less<std::__ndk1::basic_string<char, std::__ndk1::char_traits<char>, std::__ndk1::allocator<char> > >, true>, std::__ndk1::allocator<std::__ndk1::__value_type<std::__ndk1::basic_string<char, std::__ndk1::char_traits<char>, std::__ndk1::allocator<char> >, std::__ndk1::shared_ptr<geode::Hook> > > >::find<std::__ndk1::basic_string<char, std::__ndk1::char_traits<char>, std::__ndk1::allocator<char> > >(std::__ndk1::basic_string<char, std::__ndk1::char_traits<char>, std::__ndk1::allocator<char> > const&)
6d3c 18 2087 5
6d54 7c 2088 5
6dd0 50 2089 5
6e20 18 2092 5
FUNC 6e38 454 0 std::__ndk1::__tree<std::__ndk1::__value_type<std::__ndk1::basic_string<char, std::__ndk1::char_traits<char>, std::__ndk1::allocator<char> >, std::__ndk1::shared_ptr<geode::Hook> >, std::__ndk1::__map_value_compare<std::__ndk1::basic_string<char, std::__ndk1::char_traits<char>, std::__ndk1::allocator<char> >, std::__ndk1::__value_type<std::__ndk1::basic_string<char, std::__ndk1::char_traits<char>, std::__ndk1::allocator<char> >, std::__ndk1::shared_ptr<geode::Hook> >, std::__ndk1::less<std::__ndk1::basic_string<char, std::__ndk1::char_traits<char>, std::__ndk1::allocator<char> > >, true>, std::__ndk1::allocator<std::__ndk1::__value_type<std::__ndk1::basic_string<char, std::__ndk1::char_traits<char>, std::__ndk1::allocator<char> >, std::__ndk1::shared_ptr<geode::Hook> > > >::erase(std::__ndk1::__tree_const_iterator<std::__ndk1::__value_type<std::__ndk1::basic_string<char, std::__ndk1::char_traits<char>, std::__ndk1::allocator<char> >, std::__ndk1::shared_ptr<geode::Hook> >, std::__ndk1::__tree_node<std::__ndk1::__value_type<std::__ndk1::basic_string<char, std::__ndk1::char_traits<char>, std::__ndk1::allocator<char> >, std::__ndk1::shared_ptr<geode::Hook> >, void*>*, long>)
6e38 c 2046 5
6e44 284 2048 5
70c8 14 2050 5
70dc 4 2048 5
70e0 c 2050 5
70ec a4 2048 5
7190 40 2050 5
71d0 10 2051 5
71e0 a0 2048 5
7280 c 2050 5
FUNC 728c 84 0 std::__ndk1::__tree<std::__ndk1::__value_type<std::__ndk1::basic_string<char, std::__ndk1::char_traits<char>, std::__ndk1::allocator<char> >, std::__ndk1::shared_ptr<geode::Hook> >, std::__ndk1::__map_value_compare<std::__ndk1::basic_string<char, std::__ndk1::char_traits<char>, std::__ndk1::allocator<char> >, std::__ndk1::__value_type<std::__ndk1::basic_string<char, std::__ndk1::char_traits<char>, std::__ndk1::allocator<char> >, std::__ndk1::shared_ptr<geode::Hook> >, std::__ndk1::less<std::__ndk1::basic_string<char, std::__ndk1::char_traits<char>, std::__ndk1::allocator<char> > >, true>, std::__ndk1::allocator<std::__ndk1::__value_type<std::__ndk1::basic_string<char, std::__ndk1::char_traits<char>, std::__ndk1::allocator<char> >, std::__ndk1::shared_ptr<geode::Hook> > > >::destroy(std::__ndk1::__tree_node<std::__ndk1::__value_type<std::__ndk1::basic_string<char, std::__ndk1::char_traits<char>, std::__ndk1::allocator<char> >, std::__ndk1::shared_ptr<geode::Hook> >, void*>*)
728c 14 1544 5
72a0 8 1545 5
72a8 8 1546 5
72b0 28 1548 5
72d8 10 1549 5
72e8 4 1551 5
72ec 24 1548 5
FUNC 7310 20 0 geode::modifier::AsStaticFunction_scene<AltMenuLayer, cocos2d::CCScene* (*)(bool)>::Impl<cocos2d::CCScene* (*)(bool)>::function(bool)
7310 20 10 8
FUNC 7330 a8 0 geode::addresser::getVirtual<bool (MenuLayer::*)()>(bool (MenuLayer::*)())
7330 c 169 0
733c 9c 170 0
FUNC 73d8 5c0 0 geode::modifier::AsStaticFunction_init<AltMenuLayer, bool (AltMenuLayer::*)()>::Impl<bool (AltMenuLayer::*)()>::function(AltMenuLayer*)
73d8 5c0 185 8
FUNC 7998 50 0 std::__ndk1::shared_ptr<tulip::hook::CallingConvention>::~shared_ptr[abi:ne180000]()
7998 c 643 15
79a4 8 644 15
79ac 10 645 15
79bc c 646 15
79c8 20 645 15
FUNC 79e8 64 0 tulip::hook::HandlerMetadata::~HandlerMetadata()
79e8 64 12 17
FUNC 7a4c 104 0 std::__ndk1::__tree<std::__ndk1::__value_type<std::__ndk1::basic_string<char, std::__ndk1::char_traits<char>, std::__ndk1::allocator<char> >, std::__ndk1::shared_ptr<geode::Hook> >, std::__ndk1::__map_value_compare<std::__ndk1::basic_string<char, std::__ndk1::char_traits<char>, std::__ndk1::allocator<char> >, std::__ndk1::__value_type<std::__ndk1::basic_string<char, std::__ndk1::char_traits<char>, std::__ndk1::allocator<char> >, std::__ndk1::shared_ptr<geode::Hook> >, std::__ndk1::less<std::__ndk1::basic_string<char, std::__ndk1::char_traits<char>, std::__ndk1::allocator<char> > >, true>, std::__ndk1::allocator<std::__ndk1::__value_type<std::__ndk1::basic_string<char, std::__ndk1::char_traits<char>, std::__ndk1::allocator<char> >, std::__ndk1::shared_ptr<geode::Hook> > > >::__find_equal<std::__ndk1::basic_string<char, std::__ndk1::char_traits<char>, std::__ndk1::allocator<char> > >(std::__ndk1::__tree_end_node<std::__ndk1::__tree_node_base<void*>*>*&, std::__ndk1::basic_string<char, std::__ndk1::char_traits<char>, std::__ndk1::allocator<char> > const&)
7a4c 20 1682 5
7a6c 4 1683 5
7a70 20 1685 5
7a90 10 1688 5
7aa0 50 1687 5
7af0 2c 1695 5
7b1c 14 1696 5
7b30 20 1711 5
FUNC 7b50 19c 0 std::__ndk1::__tree_balance_after_insert[abi:ne180000]<std::__ndk1::__tree_node_base<void*>*>(std::__ndk1::__tree_node_base<void*>*, std::__ndk1::__tree_node_base<void*>*)
7b50 c 285 5
7b5c 34 286 5
7b90 10 288 5
7ba0 10 310 5
7bb0 4 289 5
7bb4 c 290 5
7bc0 c 297 5
7bcc 38 299 5
7c04 4 303 5
7c08 4 299 5
7c0c 8 305 5
7c14 4 330 5
7c18 14 317 5
7c2c 30 319 5
7c5c 4 323 5
7c60 4 319 5
7c64 8 325 5
7c6c 4 322 5
7c70 4 325 5
7c74 4 324 5
7c78 2c 325 5
7ca4 8 330 5
7cac 8 305 5
7cb4 4 302 5
7cb8 4 304 5
7cbc 2c 305 5
7ce8 4 330 5
FUNC 7cec 9c 0 MenuLayer::MenuLayer(geode::ZeroConstructorType)
7cec 9c 17 20
FUNC 7d88 130 0 geode::Mod::getSettingValue<bool>(std::__ndk1::basic_string_view<char, std::__ndk1::char_traits<char> >) const
7d88 20 228 21
7da8 7c 230 21
7e24 10 231 21
7e34 50 230 21
7e84 8 234 21
7e8c 8 230 21
7e94 24 234 21
FUNC 7eb8 4 0 AltMenuLayer::onRestart(cocos2d::CCObject*)
7eb8 4 120 10
FUNC 7ebc 4 0 AltMenuLayer::onReload(cocos2d::CCObject*)
7ebc 4 124 10
FUNC 7ec0 d8 0 geode::cast::traverseTypeinfoFor(void*, geode::cast::ClassTypeinfoType const*, char const*)
7ec0 14 57 1
7ed4 c 59 1
7ee0 1c 60 1
7efc 4 64 1
7f00 4 65 1
7f04 8 64 1
7f0c c 65 1
7f18 4 67 1
7f1c 4 60 1
7f20 4 59 1
7f24 c 60 1
7f30 18 69 1
7f48 18 80 1
7f60 c 71 1
7f6c 4 73 1
7f70 4 74 1
7f74 4 73 1
7f78 8 74 1
7f80 18 71 1
FUNC 7f98 43c 0 geode::modifier::ModifyDerive<hook129<(anonymous namespace)::hook129Parent>, cocos2d::CCKeyboardDispatcher>::apply()
7f98 30 156 9
7fc8 2cc 166 9
8294 2c 172 9
82c0 114 166 9
FUNC 83d4 4 0 geode::modifier::ModifyBase<geode::modifier::ModifyDerive<hook129<(anonymous namespace)::hook129Parent>, cocos2d::CCKeyboardDispatcher> >::apply()
83d4 4 316 11
FUNC 83d8 d8 0 geode::modifier::AsStaticFunction_dispatchKeyboardMSG<hook129<(anonymous namespace)::hook129Parent>, bool (hook129<(anonymous namespace)::hook129Parent>::*)(cocos2d::enumKeyCodes, bool, bool)>::Impl<bool (hook129<(anonymous namespace)::hook129Parent>::*)(cocos2d::enumKeyCodes, bool, bool)>::function(hook129<(anonymous namespace)::hook129Parent>*, cocos2d::enumKeyCodes, bool, bool)
83d8 d8 50 9
FUNC 84b0 30 0 geodeImplicitEntry
84b0 c 16 22
84bc 18 18 22
84d4 c 19 22
PUBLIC 84e0 0 <.plt ELF section in weebify.restartbtn.android64.so>
STACK CFI INIT 43e0 10 .cfa: sp 0 +
STACK CFI INIT 43f0 8 .cfa: sp 0 +
STACK CFI INIT 43f8 8 .cfa: sp 0 +
STACK CFI INIT 4400 14 .cfa: sp 0 +
STACK CFI INIT 4414 1c .cfa: sp 0 +
STACK CFI INIT 4430 10 .cfa: sp 0 +
STACK CFI INIT 4440 30 .cfa: sp 0 +
STACK CFI INIT 4470 98 .cfa: sp 0 +
STACK CFI INIT 4508 59c .cfa: sp 0 +
STACK CFI INIT 4aa4 8c .cfa: sp 0 +
STACK CFI INIT 4b30 30 .cfa: sp 0 +
STACK CFI INIT 5360 18 .cfa: sp 0 +
STACK CFI INIT 5794 18 .cfa: sp 0 +
STACK CFI INIT 57ac 10 .cfa: sp 0 +
STACK CFI 57b0 .cfa: sp 16 +
STACK CFI 57b4 .cfa: x29 16 + .ra: .cfa -8 + ^ x29: .cfa -16 + ^
STACK CFI INIT 57bc 14 .cfa: sp 0 +
STACK CFI 57c0 .cfa: sp 16 +
STACK CFI 57c4 .cfa: x29 16 + .ra: .cfa -8 + ^ x29: .cfa -16 + ^
STACK CFI INIT 5820 30 .cfa: sp 0 +
STACK CFI 5824 .cfa: sp 32 +
STACK CFI 582c .cfa: x29 32 + x19: .cfa -16 + ^ .ra: .cfa -24 + ^ x29: .cfa -32 + ^
STACK CFI 5844 .cfa: sp 32 +
STACK CFI 584c .cfa: sp 0 +
STACK CFI INIT 5850 34 .cfa: sp 0 +
STACK CFI 5854 .cfa: sp 32 +
STACK CFI 585c .cfa: x29 32 + x19: .cfa -16 + ^ .ra: .cfa -24 + ^ x29: .cfa -32 + ^
STACK CFI INIT 5884 4 .cfa: sp 0 +
STACK CFI INIT 5888 24 .cfa: sp 0 +
STACK CFI 588c .cfa: sp 16 +
STACK CFI 5890 .cfa: x29 16 + .ra: .cfa -8 + ^ x29: .cfa -16 + ^
STACK CFI 58a4 .cfa: sp 16 +
STACK CFI 58a8 .cfa: sp 0 +
STACK CFI INIT 58ac 10 .cfa: sp 0 +
STACK CFI INIT 58bc 4 .cfa: sp 0 +
STACK CFI INIT 58c0 4 .cfa: sp 0 +
STACK CFI INIT 58c4 10 .cfa: sp 0 +
STACK CFI INIT 58d4 1c .cfa: sp 0 +
STACK CFI INIT 58f0 c .cfa: sp 0 +
STACK CFI INIT 58fc 4 .cfa: sp 0 +
STACK CFI INIT 5900 4 .cfa: sp 0 +
STACK CFI INIT 5904 24 .cfa: sp 0 +
STACK CFI 5908 .cfa: sp 16 +
STACK CFI 590c .cfa: x29 16 + .ra: .cfa -8 + ^ x29: .cfa -16 + ^
STACK CFI 5920 .cfa: sp 16 +
STACK CFI 5924 .cfa: sp 0 +
STACK CFI INIT 5928 10 .cfa: sp 0 +
STACK CFI INIT 5938 4 .cfa: sp 0 +
STACK CFI INIT 593c 4 .cfa: sp 0 +
STACK CFI INIT 5940 34 .cfa: sp 0 +
STACK CFI 594c .cfa: sp 16 +
STACK CFI 5950 .cfa: x29 16 + .ra: .cfa -8 + ^ x29: .cfa -16 + ^
STACK CFI 5968 .cfa: sp 16 +
STACK CFI 596c .cfa: sp 0 +
STACK CFI INIT 5974 1c .cfa: sp 0 +
STACK CFI INIT 5990 c .cfa: sp 0 +
STACK CFI INIT 5f9c 50 .cfa: sp 0 +
STACK CFI 5fa0 .cfa: sp 32 +
STACK CFI 5fa8 .cfa: x29 32 + x19: .cfa -16 + ^ .ra: .cfa -24 + ^ x29: .cfa -32 + ^
STACK CFI 5fc0 .cfa: sp 32 +
STACK CFI 5fc8 .cfa: sp 0 +
STACK CFI 5fcc .cfa: x29 32 +
STACK CFI 5fe0 .cfa: sp 32 +
STACK CFI 5fe8 .cfa: sp 0 +
STACK CFI INIT 6060 7c .cfa: sp 0 +
STACK CFI 6064 .cfa: sp 48 +
STACK CFI 6070 .cfa: x29 48 + x19: .cfa -8 + ^ x20: .cfa -16 + ^ x21: .cfa -32 + ^ .ra: .cfa -40 + ^ x29: .cfa -48 + ^
STACK CFI 60bc .cfa: sp 48 +
STACK CFI 60c8 .cfa: sp 0 +
STACK CFI 60cc .cfa: sp 48 +
STACK CFI 60d8 .cfa: sp 0 +
STACK CFI INIT 60dc 4 .cfa: sp 0 +
STACK CFI INIT 6234 34 .cfa: sp 0 +
STACK CFI 6238 .cfa: sp 16 +
STACK CFI 623c .cfa: x29 16 + .ra: .cfa -8 + ^ x29: .cfa -16 + ^
STACK CFI INIT 638c 80 .cfa: sp 0 +
STACK CFI 6390 .cfa: sp 48 +
STACK CFI 639c .cfa: x29 48 + x19: .cfa -8 + ^ x20: .cfa -16 + ^ x21: .cfa -32 + ^ .ra: .cfa -40 + ^ x29: .cfa -48 + ^
STACK CFI 63fc .cfa: sp 48 +
STACK CFI 6408 .cfa: sp 0 +
STACK CFI INIT 640c 24 .cfa: sp 0 +
STACK CFI 6410 .cfa: sp 32 +
STACK CFI 6418 .cfa: x29 32 + x19: .cfa -16 + ^ .ra: .cfa -24 + ^ x29: .cfa -32 + ^
STACK CFI 6424 .cfa: sp 32 +
STACK CFI 642c .cfa: sp 0 +
STACK CFI INIT 68d8 148 .cfa: sp 0 +
STACK CFI 68dc .cfa: sp 48 +
STACK CFI 68e8 .cfa: x29 48 + x19: .cfa -8 + ^ x20: .cfa -16 + ^ x21: .cfa -32 + ^ .ra: .cfa -40 + ^ x29: .cfa -48 + ^
STACK CFI 6a10 .cfa: sp 48 +
STACK CFI 6a1c .cfa: sp 0 +
STACK CFI INIT 6c38 70 .cfa: sp 0 +
STACK CFI 6c3c .cfa: sp 48 +
STACK CFI 6c48 .cfa: x29 48 + x19: .cfa -8 + ^ x20: .cfa -16 + ^ x21: .cfa -24 + ^ x22: .cfa -32 + ^ .ra: .cfa -40 + ^ x29: .cfa -48 + ^
STACK CFI 6c90 .cfa: sp 48 +
STACK CFI 6c9c .cfa: sp 0 +
STACK CFI 6ca0 .cfa: x29 48 +
STACK CFI INIT 6ca8 68 .cfa: sp 0 +
STACK CFI 6cac .cfa: sp 32 +
STACK CFI 6cb4 .cfa: x29 32 + x19: .cfa -8 + ^ x20: .cfa -16 + ^ .ra: .cfa -24 + ^ x29: .cfa -32 + ^
STACK CFI 6ccc .cfa: sp 32 +
STACK CFI 6cd4 .cfa: sp 0 +
STACK CFI 6cd8 .cfa: x29 32 +
STACK CFI 6d04 .cfa: sp 32 +
STACK CFI 6d0c .cfa: sp 0 +
STACK CFI INIT 6d10 14 .cfa: sp 0 +
STACK CFI 6d14 .cfa: sp 16 +
STACK CFI 6d18 .cfa: x29 16 + .ra: .cfa -8 + ^ x29: .cfa -16 + ^
STACK CFI INIT 6d24 4 .cfa: sp 0 +
STACK CFI INIT 6d28 14 .cfa: sp 0 +
STACK CFI INIT 6d3c fc .cfa: sp 0 +
STACK CFI 6d40 .cfa: sp 64 +
STACK CFI 6d50 .cfa: x29 64 + x19: .cfa -8 + ^ x20: .cfa -16 + ^ x21: .cfa -24 + ^ x22: .cfa -32 + ^ x23: .cfa -40 + ^ x24: .cfa -48 + ^ .ra: .cfa -56 + ^ x29: .cfa -64 + ^
STACK CFI 6e24 .cfa: sp 64 +
STACK CFI 6e34 .cfa: sp 0 +
STACK CFI INIT 6e38 454 .cfa: sp 0 +
STACK CFI 6e3c .cfa: sp 32 +
STACK CFI 6e44 .cfa: x29 32 + x19: .cfa -8 + ^ x20: .cfa -16 + ^ .ra: .cfa -24 + ^ x29: .cfa -32 + ^
STACK CFI 71d4 .cfa: sp 32 +
STACK CFI 71dc .cfa: sp 0 +
STACK CFI 71e0 .cfa: x29 32 +
STACK CFI INIT 728c 84 .cfa: sp 0 +
STACK CFI 7294 .cfa: sp 32 +
STACK CFI 729c .cfa: x29 32 + x19: .cfa -8 + ^ x20: .cfa -16 + ^ .ra: .cfa -24 + ^ x29: .cfa -32 + ^
STACK CFI 72dc .cfa: sp 32 +
STACK CFI 72e4 .cfa: sp 0 +
STACK CFI 72ec .cfa: x29 32 +
STACK CFI INIT 7310 20 .cfa: sp 0 +
STACK CFI INIT 7998 50 .cfa: sp 0 +
STACK CFI 799c .cfa: sp 32 +
STACK CFI 79a4 .cfa: x29 32 + x19: .cfa -16 + ^ .ra: .cfa -24 + ^ x29: .cfa -32 + ^
STACK CFI 79bc .cfa: sp 32 +
STACK CFI 79c4 .cfa: sp 0 +
STACK CFI 79c8 .cfa: x29 32 +
STACK CFI 79dc .cfa: sp 32 +
STACK CFI 79e4 .cfa: sp 0 +
STACK CFI INIT 79e8 64 .cfa: sp 0 +
STACK CFI 79ec .cfa: sp 32 +
STACK CFI 79f4 .cfa: x29 32 + x19: .cfa -16 + ^ .ra: .cfa -24 + ^ x29: .cfa -32 + ^
STACK CFI 7a20 .cfa: sp 32 +
STACK CFI 7a28 .cfa: sp 0 +
STACK CFI 7a2c .cfa: x29 32 +
STACK CFI 7a40 .cfa: sp 32 +
STACK CFI 7a48 .cfa: sp 0 +
STACK CFI INIT 7a4c 104 .cfa: sp 0 +
STACK CFI 7a50 .cfa: sp 80 +
STACK CFI 7a64 .cfa: x29 80 + x19: .cfa -8 + ^ x20: .cfa -16 + ^ x21: .cfa -24 + ^ x22: .cfa -32 + ^ x23: .cfa -40 + ^ x24: .cfa -48 + ^ x25: .cfa -56 + ^ x26: .cfa -64 + ^ .ra: .cfa -72 + ^ x29: .cfa -80 + ^
STACK CFI 7b38 .cfa: sp 80 +
STACK CFI 7b4c .cfa: sp 0 +
STACK CFI INIT 7b50 19c .cfa: sp 0 +
STACK CFI INIT 7cec 9c .cfa: sp 0 +
STACK CFI INIT 7d88 130 .cfa: sp 0 +
STACK CFI 7d8c .cfa: sp 80 +
STACK CFI 7d9c .cfa: x29 48 + x19: .cfa -8 + ^ x20: .cfa -16 + ^ x21: .cfa -24 + ^ x22: .cfa -32 + ^ .ra: .cfa -40 + ^ x29: .cfa -48 + ^
STACK CFI 7ea0 .cfa: sp 80 +
STACK CFI 7eb0 .cfa: sp 0 +
STACK CFI 7eb4 .cfa: x29 48 +
STACK CFI INIT 7eb8 4 .cfa: sp 0 +
STACK CFI INIT 7ebc 4 .cfa: sp 0 +
STACK CFI INIT 7ec0 d8 .cfa: sp 0 +
STACK CFI 7ec4 .cfa: sp 64 +
STACK CFI 7ed4 .cfa: x29 64 + x19: .cfa -8 + ^ x20: .cfa -16 + ^ x21: .cfa -24 + ^ x22: .cfa -32 + ^ x23: .cfa -48 + ^ .ra: .cfa -56 + ^ x29: .cfa -64 + ^
STACK CFI 7f4c .cfa: sp 64 +
STACK CFI 7f5c .cfa: sp 0 +
STACK CFI 7f60 .cfa: x29 64 +
STACK CFI INIT 83d4 4 .cfa: sp 0 +
STACK CFI INIT 83d8 d8 .cfa: sp 0 +
STACK CFI 83dc .cfa: sp 64 +
STACK CFI 83ec .cfa: x29 64 + x19: .cfa -8 + ^ x20: .cfa -16 + ^ x21: .cfa -24 + ^ x22: .cfa -32 + ^ x23: .cfa -40 + ^ x24: .cfa -48 + ^ .ra: .cfa -56 + ^ x29: .cfa -64 + ^
STACK CFI 849c .cfa: sp 64 +
STACK CFI 84ac .cfa: sp 0 +
STACK CFI INIT 84b0 30 .cfa: sp 0 +
STACK CFI 84b4 .cfa: sp 32 +
STACK CFI 84bc .cfa: x29 32 + x19: .cfa -16 + ^ .ra: .cfa -24 + ^ x29: .cfa -32 + ^
STACK CFI 84d4 .cfa: sp 32 +
STACK CFI 84dc .cfa: sp 0 +
STACK CFI INIT 4b60 1d4 .cfa: sp 0 +
STACK CFI 4b64 .cfa: sp 160 +
STACK CFI 4b70 .cfa: x29 32 + x19: .cfa -8 + ^ x20: .cfa -16 + ^ .ra: .cfa -24 + ^ x29: .cfa -32 + ^
STACK CFI 4cac .cfa: sp 160 +
STACK CFI 4cb8 .cfa: sp 0 +
STACK CFI 4cbc .cfa: x29 32 +
STACK CFI INIT 4d34 1e8 .cfa: sp 0 +
STACK CFI 4d38 .cfa: sp 160 +
STACK CFI 4d44 .cfa: x29 32 + x19: .cfa -8 + ^ x20: .cfa -16 + ^ .ra: .cfa -24 + ^ x29: .cfa -32 + ^
STACK CFI 4e94 .cfa: sp 160 +
STACK CFI 4ea0 .cfa: sp 0 +
STACK CFI 4ea4 .cfa: x29 32 +
STACK CFI INIT 4f1c 444 .cfa: sp 0 +
STACK CFI 4f20 .cfa: sp 224 +
STACK CFI 4f3c .cfa: x29 96 + x19: .cfa -8 + ^ x20: .cfa -16 + ^ x21: .cfa -24 + ^ x22: .cfa -32 + ^ x23: .cfa -40 + ^ x24: .cfa -48 + ^ x25: .cfa -56 + ^ x26: .cfa -64 + ^ x27: .cfa -72 + ^ x28: .cfa -80 + ^ .ra: .cfa -88 + ^ x29: .cfa -96 + ^
STACK CFI 5170 .cfa: sp 224 +
STACK CFI 518c .cfa: sp 0 +
STACK CFI 5190 .cfa: x29 96 +
STACK CFI 525c .cfa: sp 224 +
STACK CFI 5278 .cfa: sp 0 +
STACK CFI 527c .cfa: x29 96 +
STACK CFI INIT 5378 41c .cfa: sp 0 +
STACK CFI 537c .cfa: sp 224 +
STACK CFI 5398 .cfa: x29 96 + x19: .cfa -8 + ^ x20: .cfa -16 + ^ x21: .cfa -24 + ^ x22: .cfa -32 + ^ x23: .cfa -40 + ^ x24: .cfa -48 + ^ x25: .cfa -56 + ^ x26: .cfa -64 + ^ x27: .cfa -72 + ^ x28: .cfa -80 + ^ .ra: .cfa -88 + ^ x29: .cfa -96 + ^
STACK CFI 5680 .cfa: sp 224 +
STACK CFI 569c .cfa: sp 0 +
STACK CFI 56a0 .cfa: x29 96 +
STACK CFI INIT 57d0 50 .cfa: sp 0 +
STACK CFI 57d4 .cfa: sp 32 +
STACK CFI 57dc .cfa: x29 32 + x19: .cfa -8 + ^ x20: .cfa -16 + ^ .ra: .cfa -24 + ^ x29: .cfa -32 + ^
STACK CFI INIT 599c 600 .cfa: sp 0 +
STACK CFI 59a0 .cfa: sp 208 +
STACK CFI 59b8 .cfa: x29 80 + x19: .cfa -8 + ^ x20: .cfa -16 + ^ x21: .cfa -24 + ^ x22: .cfa -32 + ^ x23: .cfa -40 + ^ x24: .cfa -48 + ^ x25: .cfa -56 + ^ x26: .cfa -64 + ^ .ra: .cfa -72 + ^ x29: .cfa -80 + ^
STACK CFI 5e0c .cfa: sp 208 +
STACK CFI 5e24 .cfa: sp 0 +
STACK CFI 5e28 .cfa: x29 80 +
STACK CFI INIT 5fec 74 .cfa: sp 0 +
STACK CFI 5ff0 .cfa: sp 48 +
STACK CFI 5ffc .cfa: x29 32 + x19: .cfa -8 + ^ x20: .cfa -16 + ^ .ra: .cfa -24 + ^ x29: .cfa -32 + ^
STACK CFI 6048 .cfa: sp 48 +
STACK CFI 6054 .cfa: sp 0 +
STACK CFI 6058 .cfa: x29 32 +
STACK CFI INIT 60e0 154 .cfa: sp 0 +
STACK CFI 60e4 .cfa: sp 384 +
STACK CFI 60f8 .cfa: x29 64 + x19: .cfa -8 + ^ x20: .cfa -16 + ^ x21: .cfa -24 + ^ x22: .cfa -32 + ^ x23: .cfa -40 + ^ x28: .cfa -48 + ^ .ra: .cfa -56 + ^ x29: .cfa -64 + ^
STACK CFI 61dc .cfa: sp 384 +
STACK CFI 61f0 .cfa: sp 0 +
STACK CFI 61f4 .cfa: x29 64 +
STACK CFI INIT 6268 124 .cfa: sp 0 +
STACK CFI 626c .cfa: sp 80 +
STACK CFI 6280 .cfa: x29 80 + x19: .cfa -8 + ^ x20: .cfa -16 + ^ x21: .cfa -24 + ^ x22: .cfa -32 + ^ x23: .cfa -40 + ^ x24: .cfa -48 + ^ x25: .cfa -56 + ^ x26: .cfa -64 + ^ .ra: .cfa -72 + ^ x29: .cfa -80 + ^
STACK CFI 634c .cfa: sp 80 +
STACK CFI 6360 .cfa: sp 0 +
STACK CFI 6364 .cfa: x29 80 +
STACK CFI INIT 6430 198 .cfa: sp 0 +
STACK CFI 6434 .cfa: sp 112 +
STACK CFI 644c .cfa: x29 80 + x19: .cfa -8 + ^ x20: .cfa -16 + ^ x21: .cfa -24 + ^ x22: .cfa -32 + ^ x23: .cfa -40 + ^ x24: .cfa -48 + ^ x25: .cfa -56 + ^ x26: .cfa -64 + ^ .ra: .cfa -72 + ^ x29: .cfa -80 + ^
STACK CFI 653c .cfa: sp 112 +
STACK CFI 6554 .cfa: sp 0 +
STACK CFI 6558 .cfa: x29 80 +
STACK CFI INIT 65c8 1b4 .cfa: sp 0 +
STACK CFI 65cc .cfa: sp 128 +
STACK CFI 65e8 .cfa: x29 96 + x19: .cfa -8 + ^ x20: .cfa -16 + ^ x21: .cfa -24 + ^ x22: .cfa -32 + ^ x23: .cfa -40 + ^ x24: .cfa -48 + ^ x25: .cfa -56 + ^ x26: .cfa -64 + ^ x27: .cfa -80 + ^ .ra: .cfa -88 + ^ x29: .cfa -96 + ^
STACK CFI 672c .cfa: sp 128 +
STACK CFI 6748 .cfa: sp 0 +
STACK CFI 674c .cfa: x29 96 +
STACK CFI INIT 677c 15c .cfa: sp 0 +
STACK CFI 6780 .cfa: sp 80 +
STACK CFI 6794 .cfa: x29 80 + x19: .cfa -8 + ^ x20: .cfa -16 + ^ x21: .cfa -24 + ^ x22: .cfa -32 + ^ x23: .cfa -40 + ^ x24: .cfa -48 + ^ x25: .cfa -64 + ^ .ra: .cfa -72 + ^ x29: .cfa -80 + ^
STACK CFI 68a4 .cfa: sp 80 +
STACK CFI 68b8 .cfa: sp 0 +
STACK CFI 68bc .cfa: x29 80 +
STACK CFI INIT 6a20 218 .cfa: sp 0 +
STACK CFI 6a24 .cfa: sp 128 +
STACK CFI 6a3c .cfa: x29 80 + x19: .cfa -8 + ^ x20: .cfa -16 + ^ x21: .cfa -24 + ^ x22: .cfa -32 + ^ x23: .cfa -40 + ^ x24: .cfa -48 + ^ x25: .cfa -64 + ^ .ra: .cfa -72 + ^ x29: .cfa -80 + ^
STACK CFI 6bcc .cfa: sp 128 +
STACK CFI 6be4 .cfa: sp 0 +
STACK CFI 6be8 .cfa: x29 80 +
STACK CFI INIT 7330 a8 .cfa: sp 0 +
STACK CFI 7334 .cfa: sp 32 +
STACK CFI 733c .cfa: x29 32 + x19: .cfa -8 + ^ x20: .cfa -16 + ^ .ra: .cfa -24 + ^ x29: .cfa -32 + ^
STACK CFI 7370 .cfa: sp 32 +
STACK CFI 7378 .cfa: sp 0 +
STACK CFI 737c .cfa: x29 32 +
STACK CFI 7380 .cfa: sp 32 +
STACK CFI 7388 .cfa: sp 0 +
STACK CFI 738c .cfa: x29 32 +
STACK CFI INIT 73d8 5c0 .cfa: sp 0 +
STACK CFI 73dc .cfa: sp 128 +
STACK CFI 73f8 .cfa: x29 72 + x19: .cfa -8 + ^ x20: .cfa -16 + ^ x21: .cfa -24 + ^ x22: .cfa -32 + ^ x23: .cfa -40 + ^ x24: .cfa -48 + ^ x25: .cfa -56 + ^ .ra: .cfa -64 + ^ x29: .cfa -72 + ^ v8: .cfa -80 + ^
STACK CFI 793c .cfa: sp 128 +
STACK CFI 7958 .cfa: sp 0 +
STACK CFI 795c .cfa: x29 72 +
STACK CFI INIT 7f98 43c .cfa: sp 0 +
STACK CFI 7f9c .cfa: sp 288 +
STACK CFI 7fb4 .cfa: x29 80 + x19: .cfa -8 + ^ x20: .cfa -16 + ^ x21: .cfa -24 + ^ x22: .cfa -32 + ^ x23: .cfa -40 + ^ x24: .cfa -48 + ^ x28: .cfa -64 + ^ .ra: .cfa -72 + ^ x29: .cfa -80 + ^
STACK CFI 82a4 .cfa: sp 288 +
STACK CFI 82bc .cfa: sp 0 +
STACK CFI 82c0 .cfa: x29 80 +
