MODULE Linux arm64 E0820943A839E1DA7A42833BC71C50C50 user95401.mainlevelseditor.android64.so
INFO CODE_ID 430982E039A8DAE17A42833BC71C50C50550EFA2
INFO GENERATOR mozilla/dump_syms 2.3.4
PUBLIC 4bc30 0 __on_dlclose
PUBLIC 4bc40 0 __emutls_unregister_key
PUBLIC 4bc48 0 __on_dlclose_late
PUBLIC 4bc50 0 __atexit_handler_wrapper
PUBLIC 4bc64 0 atexit
PUBLIC 4bc80 0 pthread_atfork
PUBLIC 4bc90 0 unwind_phase2
PUBLIC 4bdc8 0 _Unwind_Resume
PUBLIC 4be50 0 unwind_phase2_forced
PUBLIC m 4bf44 0 __unw_init_local
PUBLIC m 4bff0 0 __unw_get_reg
PUBLIC 4c06c 0 __unw_step_stage2
PUBLIC m 4c080 0 __unw_get_proc_info
PUBLIC m 4c0c0 0 __unw_resume
PUBLIC 4c0e8 0 libunwind::CFI_Parser<libunwind::LocalAddressSpace>::decodeFDE(libunwind::LocalAddressSpace&, unsigned long, libunwind::CFI_Parser<libunwind::LocalAddressSpace>::FDE_Info*, libunwind::CFI_Parser<libunwind::LocalAddressSpace>::CIE_Info*, bool)
PUBLIC 4c278 0 libunwind::CFI_Parser<libunwind::LocalAddressSpace>::parseCIE(libunwind::LocalAddressSpace&, unsigned long, libunwind::CFI_Parser<libunwind::LocalAddressSpace>::CIE_Info*)
PUBLIC 4c538 0 libunwind::AbstractUnwindCursor::~AbstractUnwindCursor()
PUBLIC 4c540 0 libunwind::UnwindCursor<libunwind::LocalAddressSpace, libunwind::Registers_arm64>::~UnwindCursor()
PUBLIC 4c548 0 libunwind::UnwindCursor<libunwind::LocalAddressSpace, libunwind::Registers_arm64>::validReg(int)
PUBLIC 4c588 0 libunwind::UnwindCursor<libunwind::LocalAddressSpace, libunwind::Registers_arm64>::getReg(int)
PUBLIC 4c6a8 0 libunwind::UnwindCursor<libunwind::LocalAddressSpace, libunwind::Registers_arm64>::setReg(int, unsigned long)
PUBLIC 4c7c8 0 libunwind::UnwindCursor<libunwind::LocalAddressSpace, libunwind::Registers_arm64>::validFloatReg(int)
PUBLIC 4c7dc 0 libunwind::UnwindCursor<libunwind::LocalAddressSpace, libunwind::Registers_arm64>::getFloatReg(int)
PUBLIC 4c7ec 0 libunwind::UnwindCursor<libunwind::LocalAddressSpace, libunwind::Registers_arm64>::setFloatReg(int, double)
PUBLIC 4c7fc 0 libunwind::UnwindCursor<libunwind::LocalAddressSpace, libunwind::Registers_arm64>::step(bool)
PUBLIC 4c8d4 0 libunwind::UnwindCursor<libunwind::LocalAddressSpace, libunwind::Registers_arm64>::getInfo(unw_proc_info_t*)
PUBLIC 4c918 0 libunwind::UnwindCursor<libunwind::LocalAddressSpace, libunwind::Registers_arm64>::jumpto()
PUBLIC 4c924 0 libunwind::UnwindCursor<libunwind::LocalAddressSpace, libunwind::Registers_arm64>::isSignalFrame()
PUBLIC 4c930 0 libunwind::UnwindCursor<libunwind::LocalAddressSpace, libunwind::Registers_arm64>::getFunctionName(char*, unsigned long, unsigned long*)
PUBLIC 4c95c 0 libunwind::UnwindCursor<libunwind::LocalAddressSpace, libunwind::Registers_arm64>::setInfoBasedOnIPRegister(bool)
PUBLIC 4cbdc 0 libunwind::UnwindCursor<libunwind::LocalAddressSpace, libunwind::Registers_arm64>::getRegisterName(int)
PUBLIC 4cbe8 0 libunwind::UnwindCursor<libunwind::LocalAddressSpace, libunwind::Registers_arm64>::stepThroughSigReturn(libunwind::Registers_arm64&)
PUBLIC 4cd0c 0 libunwind::DwarfInstructions<libunwind::LocalAddressSpace, libunwind::Registers_arm64>::stepWithDwarf(libunwind::LocalAddressSpace&, unsigned long, unsigned long, libunwind::Registers_arm64&, bool&, bool)
PUBLIC 4d1c8 0 libunwind::CFI_Parser<libunwind::LocalAddressSpace>::parseFDEInstructions(libunwind::LocalAddressSpace&, libunwind::CFI_Parser<libunwind::LocalAddressSpace>::FDE_Info const&, libunwind::CFI_Parser<libunwind::LocalAddressSpace>::CIE_Info const&, unsigned long, int, libunwind::CFI_Parser<libunwind::LocalAddressSpace>::PrologInfo*)
PUBLIC 4dcdc 0 libunwind::DwarfInstructions<libunwind::LocalAddressSpace, libunwind::Registers_arm64>::getCFA(libunwind::LocalAddressSpace&, libunwind::CFI_Parser<libunwind::LocalAddressSpace>::PrologInfo const&, libunwind::Registers_arm64 const&)
PUBLIC 4ddd8 0 libunwind::DwarfInstructions<libunwind::LocalAddressSpace, libunwind::Registers_arm64>::getSavedRegister(libunwind::LocalAddressSpace&, libunwind::Registers_arm64 const&, unsigned long, libunwind::CFI_Parser<libunwind::LocalAddressSpace>::RegisterLocation const&)
PUBLIC 4dfd4 0 libunwind::LocalAddressSpace::getEncodedP(unsigned long&, unsigned long, unsigned char, unsigned long)
PUBLIC 4e2f8 0 libunwind::LocalAddressSpace::getULEB128(unsigned long&, unsigned long)
PUBLIC 4e4c8 0 libunwind::DwarfInstructions<libunwind::LocalAddressSpace, libunwind::Registers_arm64>::evaluateExpression(unsigned long, libunwind::LocalAddressSpace&, libunwind::Registers_arm64 const&, unsigned long)
PUBLIC 4ee8c 0 libunwind::UnwindCursor<libunwind::LocalAddressSpace, libunwind::Registers_arm64>::getInfoFromDwarfSection(unsigned long, libunwind::UnwindInfoSections const&, unsigned int)
PUBLIC 4f174 0 libunwind::findUnwindSectionsByPhdr(dl_phdr_info*, unsigned long, void*)
PUBLIC 4f314 0 libunwind::CFI_Parser<libunwind::LocalAddressSpace>::findFDE(libunwind::LocalAddressSpace&, unsigned long, unsigned long, unsigned long, unsigned long, libunwind::CFI_Parser<libunwind::LocalAddressSpace>::FDE_Info*, libunwind::CFI_Parser<libunwind::LocalAddressSpace>::CIE_Info*)
PUBLIC 4f4dc 0 libunwind::EHHeaderParser<libunwind::LocalAddressSpace>::findFDE(libunwind::LocalAddressSpace&, unsigned long, unsigned long, unsigned int, libunwind::CFI_Parser<libunwind::LocalAddressSpace>::FDE_Info*, libunwind::CFI_Parser<libunwind::LocalAddressSpace>::CIE_Info*)
PUBLIC 4f6a8 0 libunwind::EHHeaderParser<libunwind::LocalAddressSpace>::getTableEntrySize(unsigned char)
PUBLIC 4f790 0 libunwind::Registers_arm64::getRegisterName(int)
PUBLIC 4f7c0 0 __libunwind_Registers_arm64_jumpto
PUBLIC m 4f850 0 __unw_getcontext
PUBLIC 4f8f0 0 __aarch64_ldadd8_relax
PUBLIC 4f920 0 init_have_lse_atomics
PUBLIC 4f9b8 0 init_cpu_features_resolver
PUBLIC 4fdf0 0 init_cpu_features
PUBLIC 4fe90 0 __aarch64_ldadd8_acq_rel
PUBLIC 4fec0 0 __cxx_global_var_init
PUBLIC m 4ff28 0 CopyFromLocal()
PUBLIC 502d4 0 std::__ndk1::__fs::filesystem::operator/[abi:v170000](std::__ndk1::__fs::filesystem::path const&, std::__ndk1::__fs::filesystem::path const)
PUBLIC m 503e0 0 CopyFromData()
PUBLIC 50644 0 geodeExecFunction33<(anonymous namespace)::ExecFuncUnique33>(geode::ModStateEvent*)
PUBLIC 506d4 0 __cxx_global_var_init.3
PUBLIC 50c48 0 _GLOBAL__sub_I__a_local_config.cpp
PUBLIC 50d64 0 geode::modifier::ModifyBase<geode::modifier::ModifyDerive<hook39<(anonymous namespace)::hook39Parent>, AppDelegate> >::~ModifyBase()
PUBLIC 50d80 0 std::__ndk1::basic_string<char, std::__ndk1::char_traits<char>, std::__ndk1::allocator<char> >::__throw_length_error[abi:v170000]() const
PUBLIC 50d94 0 std::__ndk1::__throw_length_error[abi:v170000](char const*)
PUBLIC 50de4 0 std::length_error::length_error[abi:v170000](char const*)
PUBLIC 50e14 0 std::__throw_bad_array_new_length([abi:v170000], void)
PUBLIC 50e48 0 __clang_call_terminate
PUBLIC m 50e58 0 std::__ndk1::basic_string<char, std::__ndk1::char_traits<char>, std::__ndk1::allocator<char> >::append[abi:v170000]<char const*>(std::__ndk1::enable_if, std::__ndk1::enable_if)
PUBLIC m 5114c 0 geode::EventListener<geode::ModStateFilter>::getPool() const
PUBLIC m 51150 0 geode::EventListener<geode::ModStateFilter>::handle(geode::Event*)
PUBLIC m 51258 0 geode::EventListener<geode::ModStateFilter>::~EventListener()
PUBLIC m 5129c 0 geode::EventListener<geode::ModStateFilter>::~EventListener()
PUBLIC m 512e8 0 geode::utils::MiniFunctionStateBase<void, geode::ModStateEvent*>::~MiniFunctionStateBase()
PUBLIC m 512ec 0 geode::utils::MiniFunctionState<void (*)(geode::ModStateEvent*), void, geode::ModStateEvent*>::~MiniFunctionState()
PUBLIC m 512f0 0 geode::utils::MiniFunctionState<void (*)(geode::ModStateEvent*), void, geode::ModStateEvent*>::call(geode::ModStateEvent*) const
PUBLIC m 512fc 0 geode::utils::MiniFunctionState<void (*)(geode::ModStateEvent*), void, geode::ModStateEvent*>::clone() const
PUBLIC m 51334 0 geode::cast::traverseTypeinfoFor(void*, geode::cast::ClassTypeinfoType const*, char const*)
PUBLIC 51434 0 geode::modifier::ModifyDerive<hook39<(anonymous namespace)::hook39Parent>, AppDelegate>::apply()
PUBLIC 51810 0 std::__ndk1::shared_ptr<geode::Hook>::~shared_ptr[abi:v170000]()
PUBLIC 51860 0 geode::modifier::ModifyBase<geode::modifier::ModifyDerive<hook39<(anonymous namespace)::hook39Parent>, AppDelegate> >::apply()
PUBLIC m 51864 0 std::__ndk1::vector<std::__ndk1::basic_string<char, std::__ndk1::char_traits<char>, std::__ndk1::allocator<char> >, std::__ndk1::allocator<std::__ndk1::basic_string<char, std::__ndk1::char_traits<char>, std::__ndk1::allocator<char> > > >::__push_back_slow_path<std::__ndk1::basic_string<char, std::__ndk1::char_traits<char>, std::__ndk1::allocator<char> > const&>(std::__ndk1::basic_string<char, std::__ndk1::char_traits<char>, std::__ndk1::allocator<char> > const&)
PUBLIC 51af0 0 std::__ndk1::__split_buffer<std::__ndk1::basic_string<char, std::__ndk1::char_traits<char>, std::__ndk1::allocator<char> >, std::__ndk1::allocator<std::__ndk1::basic_string<char, std::__ndk1::char_traits<char>, std::__ndk1::allocator<char> > >&>::~__split_buffer()
PUBLIC 51b58 0 std::__ndk1::vector<std::__ndk1::basic_string<char, std::__ndk1::char_traits<char>, std::__ndk1::allocator<char> >, std::__ndk1::allocator<std::__ndk1::basic_string<char, std::__ndk1::char_traits<char>, std::__ndk1::allocator<char> > > >::__throw_length_error[abi:v170000]() const
PUBLIC m 51b6c 0 std::__ndk1::__tree<std::__ndk1::__value_type<std::__ndk1::basic_string<char, std::__ndk1::char_traits<char>, std::__ndk1::allocator<char> >, std::__ndk1::shared_ptr<geode::Hook> >, std::__ndk1::__map_value_compare<std::__ndk1::basic_string<char, std::__ndk1::char_traits<char>, std::__ndk1::allocator<char> >, std::__ndk1::__value_type<std::__ndk1::basic_string<char, std::__ndk1::char_traits<char>, std::__ndk1::allocator<char> >, std::__ndk1::shared_ptr<geode::Hook> >, std::__ndk1::less<std::__ndk1::basic_string<char, std::__ndk1::char_traits<char>, std::__ndk1::allocator<char> > >, true>, std::__ndk1::allocator<std::__ndk1::__value_type<std::__ndk1::basic_string<char, std::__ndk1::char_traits<char>, std::__ndk1::allocator<char> >, std::__ndk1::shared_ptr<geode::Hook> > > >::find<std::__ndk1::basic_string<char, std::__ndk1::char_traits<char>, std::__ndk1::allocator<char> > >(std::__ndk1::basic_string<char, std::__ndk1::char_traits<char>, std::__ndk1::allocator<char> > const&)
PUBLIC m 51c78 0 std::__ndk1::__tree<std::__ndk1::__value_type<std::__ndk1::basic_string<char, std::__ndk1::char_traits<char>, std::__ndk1::allocator<char> >, std::__ndk1::shared_ptr<geode::Hook> >, std::__ndk1::__map_value_compare<std::__ndk1::basic_string<char, std::__ndk1::char_traits<char>, std::__ndk1::allocator<char> >, std::__ndk1::__value_type<std::__ndk1::basic_string<char, std::__ndk1::char_traits<char>, std::__ndk1::allocator<char> >, std::__ndk1::shared_ptr<geode::Hook> >, std::__ndk1::less<std::__ndk1::basic_string<char, std::__ndk1::char_traits<char>, std::__ndk1::allocator<char> > >, true>, std::__ndk1::allocator<std::__ndk1::__value_type<std::__ndk1::basic_string<char, std::__ndk1::char_traits<char>, std::__ndk1::allocator<char> >, std::__ndk1::shared_ptr<geode::Hook> > > >::erase(std::__ndk1::__tree_const_iterator<std::__ndk1::__value_type<std::__ndk1::basic_string<char, std::__ndk1::char_traits<char>, std::__ndk1::allocator<char> >, std::__ndk1::shared_ptr<geode::Hook> >, std::__ndk1::__tree_node<std::__ndk1::__value_type<std::__ndk1::basic_string<char, std::__ndk1::char_traits<char>, std::__ndk1::allocator<char> >, std::__ndk1::shared_ptr<geode::Hook> >, void*>*, long>)
PUBLIC 51d4c 0 std::__ndk1::__tree_remove[abi:v170000]<std::__ndk1::__tree_node_base<void*>*>(std::__ndk1::__tree_node_base<void*>*, std::__ndk1::__tree_node_base<void*>*)
PUBLIC m 52114 0 std::__ndk1::__tree<std::__ndk1::__value_type<std::__ndk1::basic_string<char, std::__ndk1::char_traits<char>, std::__ndk1::allocator<char> >, std::__ndk1::shared_ptr<geode::Hook> >, std::__ndk1::__map_value_compare<std::__ndk1::basic_string<char, std::__ndk1::char_traits<char>, std::__ndk1::allocator<char> >, std::__ndk1::__value_type<std::__ndk1::basic_string<char, std::__ndk1::char_traits<char>, std::__ndk1::allocator<char> >, std::__ndk1::shared_ptr<geode::Hook> >, std::__ndk1::less<std::__ndk1::basic_string<char, std::__ndk1::char_traits<char>, std::__ndk1::allocator<char> > >, true>, std::__ndk1::allocator<std::__ndk1::__value_type<std::__ndk1::basic_string<char, std::__ndk1::char_traits<char>, std::__ndk1::allocator<char> >, std::__ndk1::shared_ptr<geode::Hook> > > >::destroy(std::__ndk1::__tree_node<std::__ndk1::__value_type<std::__ndk1::basic_string<char, std::__ndk1::char_traits<char>, std::__ndk1::allocator<char> >, std::__ndk1::shared_ptr<geode::Hook> >, void*>*)
PUBLIC 521a0 0 geode::modifier::AsStaticFunction_trySaveGame<hook39<(anonymous namespace)::hook39Parent>, void (hook39<(anonymous namespace)::hook39Parent>::*)(bool)>::Impl<void (hook39<(anonymous namespace)::hook39Parent>::*)(bool)>::function(hook39<(anonymous namespace)::hook39Parent>*, bool)
PUBLIC m 521b4 0 geode::addresser::Addresser::addressOfVirtual<void, AppDelegate, bool>(void (AppDelegate::*)(bool))
PUBLIC 52298 0 std::__ndk1::shared_ptr<tulip::hook::CallingConvention>::~shared_ptr[abi:v170000]()
PUBLIC m 522e8 0 tulip::hook::HandlerMetadata::~HandlerMetadata()
PUBLIC m 5234c 0 std::__ndk1::__tree<std::__ndk1::__value_type<std::__ndk1::basic_string<char, std::__ndk1::char_traits<char>, std::__ndk1::allocator<char> >, std::__ndk1::shared_ptr<geode::Hook> >, std::__ndk1::__map_value_compare<std::__ndk1::basic_string<char, std::__ndk1::char_traits<char>, std::__ndk1::allocator<char> >, std::__ndk1::__value_type<std::__ndk1::basic_string<char, std::__ndk1::char_traits<char>, std::__ndk1::allocator<char> >, std::__ndk1::shared_ptr<geode::Hook> >, std::__ndk1::less<std::__ndk1::basic_string<char, std::__ndk1::char_traits<char>, std::__ndk1::allocator<char> > >, true>, std::__ndk1::allocator<std::__ndk1::__value_type<std::__ndk1::basic_string<char, std::__ndk1::char_traits<char>, std::__ndk1::allocator<char> >, std::__ndk1::shared_ptr<geode::Hook> > > >::__find_equal<std::__ndk1::basic_string<char, std::__ndk1::char_traits<char>, std::__ndk1::allocator<char> > >(std::__ndk1::__tree_end_node<std::__ndk1::__tree_node_base<void*>*>*&, std::__ndk1::basic_string<char, std::__ndk1::char_traits<char>, std::__ndk1::allocator<char> > const&)
PUBLIC 52450 0 std::__ndk1::__tree_balance_after_insert[abi:v170000]<std::__ndk1::__tree_node_base<void*>*>(std::__ndk1::__tree_node_base<void*>*, std::__ndk1::__tree_node_base<void*>*)
PUBLIC m 52604 0 CopyConfigFromUnzipped()
PUBLIC 52858 0 geodeExecFunction18<(anonymous namespace)::ExecFuncUnique18>(geode::ModStateEvent*)
PUBLIC 528e8 0 _GLOBAL__sub_I__a_package_config.cpp
PUBLIC 52a04 0 __cxx_global_var_init
PUBLIC 52b54 0 std::__ndk1::__fs::filesystem::path::~path[abi:v170000]()
PUBLIC 52b68 0 __cxx_global_var_init.1
PUBLIC 52c70 0 __cxx_global_var_init.3
PUBLIC 52dc0 0 __cxx_global_var_init.5
PUBLIC 52ec8 0 __cxx_global_var_init.7
PUBLIC 52fd0 0 __cxx_global_var_init.9
PUBLIC 5302c 0 __cxx_global_var_init.10
PUBLIC 53094 0 __cxx_global_var_init.11
PUBLIC 530e8 0 __cxx_global_var_init.12
PUBLIC 5313c 0 __cxx_global_var_init.13
PUBLIC 53190 0 __cxx_global_var_init.14
PUBLIC 53738 0 geode::modifier::ModifyBase<geode::modifier::ModifyDerive<LevelPageExt, LevelPage> >::~ModifyBase()
PUBLIC 53754 0 __cxx_global_var_init.15
PUBLIC 53cfc 0 geode::modifier::ModifyBase<geode::modifier::ModifyDerive<SongInfoLayerExt, FLAlertLayer> >::~ModifyBase()
PUBLIC 53d18 0 __cxx_global_var_init.16
PUBLIC 542c0 0 geode::modifier::ModifyBase<geode::modifier::ModifyDerive<PauseLayerExt, PauseLayer> >::~ModifyBase()
PUBLIC 542dc 0 geode::modifier::ModifyDerive<LevelPageExt, LevelPage>::apply()
PUBLIC 549c4 0 std::__ndk1::vector<std::__ndk1::basic_string<char, std::__ndk1::char_traits<char>, std::__ndk1::allocator<char> >, std::__ndk1::allocator<std::__ndk1::basic_string<char, std::__ndk1::char_traits<char>, std::__ndk1::allocator<char> > > >::~vector[abi:v170000]()
PUBLIC 54a40 0 geode::modifier::ModifyBase<geode::modifier::ModifyDerive<LevelPageExt, LevelPage> >::apply()
PUBLIC 54a44 0 geode::modifier::AsStaticFunction_init<LevelPageExt, bool (LevelPageExt::*)(GJGameLevel*)>::Impl<bool (LevelPageExt::*)(GJGameLevel*)>::function(LevelPageExt*, GJGameLevel*)
PUBLIC m 54d84 0 std::__ndk1::basic_string<char, std::__ndk1::char_traits<char>, std::__ndk1::allocator<char> >::basic_string[abi:v170000]<std::nullptr_t>()
PUBLIC 54e0c 0 geode::modifier::AsStaticFunction_updateDynamicPage<LevelPageExt, void (LevelPageExt::*)(GJGameLevel*)>::Impl<void (LevelPageExt::*)(GJGameLevel*)>::function(LevelPageExt*, GJGameLevel*)
PUBLIC 54f2c 0 LevelPageExt::deleteLevel(cocos2d::CCObject*)
PUBLIC 55614 0 mle_ui::settingsButtonSprite()
PUBLIC 557a0 0 LevelPageExt::editLevel(cocos2d::CCObject*)
PUBLIC 56480 0 LevelPageExt::deleteLevel(cocos2d::CCObject*)::{lambda(void*, bool)#1}::~{lambda(void*, bool)#1}()
PUBLIC 564c4 0 LevelPageExt::deleteLevel(cocos2d::CCObject*)::{lambda(void*, bool)#1}::{lambda(void*, bool)#1}({lambda(void*, bool)#1} const&)
PUBLIC 56614 0 geode::utils::MiniFunctionState<LevelPageExt::deleteLevel(cocos2d::CCObject*)::{lambda(void*, bool)#1}, void, FLAlertLayer*, bool>::~MiniFunctionState()
PUBLIC 56658 0 geode::utils::MiniFunctionState<LevelPageExt::deleteLevel(cocos2d::CCObject*)::{lambda(void*, bool)#1}, void, FLAlertLayer*, bool>::~MiniFunctionState()
PUBLIC 566b0 0 geode::utils::MiniFunctionState<LevelPageExt::deleteLevel(cocos2d::CCObject*)::{lambda(void*, bool)#1}, void, FLAlertLayer*, bool>::call(FLAlertLayer*, bool) const
PUBLIC 57558 0 geode::utils::MiniFunctionState<LevelPageExt::deleteLevel(cocos2d::CCObject*)::{lambda(void*, bool)#1}, void, FLAlertLayer*, bool>::clone() const
PUBLIC 575ac 0 fs::rename(std::__ndk1::__fs::filesystem::path, std::__ndk1::__fs::filesystem::path, std::__ndk1::basic_string<char, std::__ndk1::char_traits<char>, std::__ndk1::allocator<char> >&)
PUBLIC m 57e1c 0 fmt::v10::detail::value<fmt::v10::basic_format_context<fmt::v10::appender, char> >::format_custom_arg<std::__ndk1::__fs::filesystem::path, fmt::v10::formatter<std::__ndk1::__fs::filesystem::path, char, void> >(void*, fmt::v10::basic_format_parse_context<char>&, fmt::v10::basic_format_context<fmt::v10::appender, char>&)
PUBLIC m 57ec4 0 fmt::v10::formatter<std::__ndk1::__fs::filesystem::path, char, void>::parse<fmt::v10::basic_format_parse_context<char> >(fmt::v10::basic_format_parse_context<char>&)
PUBLIC m 58110 0 fmt::v10::formatter<std::__ndk1::__fs::filesystem::path, char, void>::format<fmt::v10::basic_format_context<fmt::v10::appender, char> >(std::__ndk1::__fs::filesystem::path const&, fmt::v10::basic_format_context<fmt::v10::appender, char>&) const
PUBLIC m 5835c 0 fmt::v10::detail::parse_dynamic_spec<char>(char const*, char const*, int&, fmt::v10::detail::arg_ref<char>&, fmt::v10::basic_format_parse_context<char>&)
PUBLIC m 58514 0 fmt::v10::detail::do_parse_arg_id<char, fmt::v10::detail::dynamic_spec_id_handler<char>&>(char const*, char const*, fmt::v10::detail::dynamic_spec_id_handler<char>&)
PUBLIC m 586a4 0 fmt::v10::detail::handle_dynamic_spec<fmt::v10::detail::width_checker, fmt::v10::basic_format_context<fmt::v10::appender, char> >(int&, fmt::v10::detail::arg_ref<fmt::v10::basic_format_context<fmt::v10::appender, char>::char_type>, fmt::v10::basic_format_context<fmt::v10::appender, char>&)
PUBLIC m 587b4 0 fmt::v10::detail::write<char, fmt::v10::appender>(fmt::v10::appender, fmt::v10::basic_string_view<char>, fmt::v10::format_specs<char> const&)
PUBLIC m 58970 0 fmt::v10::detail::get_dynamic_spec<fmt::v10::detail::width_checker, fmt::v10::basic_format_arg<fmt::v10::basic_format_context<fmt::v10::appender, char> > >(fmt::v10::basic_format_arg<fmt::v10::basic_format_context<fmt::v10::appender, char> >)
PUBLIC m 58a00 0 fmt::v10::basic_format_args<fmt::v10::basic_format_context<fmt::v10::appender, char> >::get<char>(fmt::v10::basic_string_view<char>) const
PUBLIC 58b5c 0 std::__ndk1::__fs::filesystem::path::string[abi:v170000]<char, std::__ndk1::char_traits<char>, std::__ndk1::allocator<char> >(std::__ndk1::char_traits<char> const&) const
PUBLIC m 58c34 0 fmt::v10::detail::write_escaped_string<char, fmt::v10::detail::counting_iterator>(fmt::v10::detail::counting_iterator, fmt::v10::basic_string_view<char>)
PUBLIC m 59084 0 fmt::v10::detail::write_padded<(fmt::v10::align::type)1, fmt::v10::appender, char, fmt::v10::detail::write<char, fmt::v10::appender>(fmt::v10::appender, fmt::v10::basic_string_view<char>, fmt::v10::format_specs<char> const&)::{lambda(fmt::v10::appender)#1}>(fmt::v10::appender, fmt::v10::format_specs<char> const&, unsigned long, unsigned long, fmt::v10::detail::write<char, fmt::v10::appender>(fmt::v10::appender, fmt::v10::basic_string_view<char>, fmt::v10::format_specs<char> const&)::{lambda(fmt::v10::appender&&)#1})
PUBLIC m 59288 0 fmt::v10::detail::for_each_codepoint<fmt::v10::detail::code_point_index(fmt::v10::basic_string_view<char>, unsigned long)::{lambda(unsigned int, fmt::v10::basic_string_view<char>)#1}>(fmt::v10::basic_string_view<char>, fmt::v10::detail::code_point_index(fmt::v10::basic_string_view<char>, unsigned long)::{lambda(unsigned int, fmt::v10::basic_string_view<char>)#1})
PUBLIC m 595b8 0 fmt::v10::detail::write_escaped_cp<fmt::v10::detail::counting_iterator, char>(fmt::v10::detail::counting_iterator, fmt::v10::detail::find_escape_result<char> const&)
PUBLIC m 59758 0 fmt::v10::detail::for_each_codepoint<fmt::v10::detail::compute_width(fmt::v10::basic_string_view<char>)::count_code_points>(fmt::v10::basic_string_view<char>, fmt::v10::detail::compute_width(fmt::v10::basic_string_view<char>)::count_code_points)::{lambda(char const*, char const*)#1}::operator()(char const*, char const*) const
PUBLIC m 5990c 0 fmt::v10::detail::fill<fmt::v10::appender, char>(fmt::v10::appender, unsigned long, fmt::v10::detail::fill_t<char> const&)
PUBLIC m 59afc 0 fmt::v10::detail::write_escaped_string<char, fmt::v10::appender>(fmt::v10::appender, fmt::v10::basic_string_view<char>)
PUBLIC m 5a0e0 0 fmt::v10::detail::write_escaped_cp<fmt::v10::appender, char>(fmt::v10::appender, fmt::v10::detail::find_escape_result<char> const&)
PUBLIC m 5a2dc 0 fmt::v10::detail::write_codepoint<(unsigned long)2, char, fmt::v10::appender>(fmt::v10::appender, char, unsigned int)
PUBLIC m 5a45c 0 fmt::v10::detail::write_codepoint<(unsigned long)4, char, fmt::v10::appender>(fmt::v10::appender, char, unsigned int)
PUBLIC m 5a5dc 0 fmt::v10::detail::write_codepoint<(unsigned long)8, char, fmt::v10::appender>(fmt::v10::appender, char, unsigned int)
PUBLIC m 5a75c 0 fmt::v10::basic_memory_buffer<char, (unsigned long)500, std::__ndk1::allocator<char> >::grow(unsigned long)
PUBLIC m 5a894 0 fmt::v10::detail::write_escaped_string<char, std::__ndk1::back_insert_iterator<fmt::v10::basic_memory_buffer<char, (unsigned long)500, std::__ndk1::allocator<char> > > >(std::__ndk1::back_insert_iterator<fmt::v10::basic_memory_buffer<char, (unsigned long)500, std::__ndk1::allocator<char> > >, fmt::v10::basic_string_view<char>)
PUBLIC m 5ad90 0 fmt::v10::detail::write_escaped_cp<std::__ndk1::back_insert_iterator<fmt::v10::basic_memory_buffer<char, (unsigned long)500, std::__ndk1::allocator<char> > >, char>(std::__ndk1::back_insert_iterator<fmt::v10::basic_memory_buffer<char, (unsigned long)500, std::__ndk1::allocator<char> > >, fmt::v10::detail::find_escape_result<char> const&)
PUBLIC m 5af8c 0 fmt::v10::detail::write_codepoint<(unsigned long)2, char, std::__ndk1::back_insert_iterator<fmt::v10::basic_memory_buffer<char, (unsigned long)500, std::__ndk1::allocator<char> > > >(std::__ndk1::back_insert_iterator<fmt::v10::basic_memory_buffer<char, (unsigned long)500, std::__ndk1::allocator<char> > >, char, unsigned int)
PUBLIC m 5b0f8 0 fmt::v10::detail::write_codepoint<(unsigned long)4, char, std::__ndk1::back_insert_iterator<fmt::v10::basic_memory_buffer<char, (unsigned long)500, std::__ndk1::allocator<char> > > >(std::__ndk1::back_insert_iterator<fmt::v10::basic_memory_buffer<char, (unsigned long)500, std::__ndk1::allocator<char> > >, char, unsigned int)
PUBLIC m 5b2d4 0 fmt::v10::detail::write_codepoint<(unsigned long)8, char, std::__ndk1::back_insert_iterator<fmt::v10::basic_memory_buffer<char, (unsigned long)500, std::__ndk1::allocator<char> > > >(std::__ndk1::back_insert_iterator<fmt::v10::basic_memory_buffer<char, (unsigned long)500, std::__ndk1::allocator<char> > >, char, unsigned int)
PUBLIC m 5b590 0 std::__ndk1::basic_string<char, std::__ndk1::char_traits<char>, std::__ndk1::allocator<char> >::__assign_external(char const*, unsigned long)
PUBLIC m 5b6cc 0 fmt::v10::detail::value<fmt::v10::basic_format_context<fmt::v10::appender, char> >::format_custom_arg<std::__ndk1::error_code, fmt::v10::formatter<std::__ndk1::error_code, char, void> >(void*, fmt::v10::basic_format_parse_context<char>&, fmt::v10::basic_format_context<fmt::v10::appender, char>&)
PUBLIC m 5b720 0 fmt::v10::formatter<std::__ndk1::error_code, char, void>::format<fmt::v10::basic_format_context<fmt::v10::appender, char> >(std::__ndk1::error_code const&, fmt::v10::basic_format_context<fmt::v10::appender, char>&) const
PUBLIC 5b804 0 fmt::v10::detail::write_bytes<(fmt::v10::align::type)1, char, fmt::v10::appender>(fmt::v10::appender, fmt::v10::basic_string_view<char>, fmt::v10::format_specs<char> const&)
PUBLIC m 5b9ec 0 fmt::v10::detail::write<char, fmt::v10::appender, int, 0>(fmt::v10::appender, int)
PUBLIC m 5bc28 0 fmt::v10::detail::copy_str_noinline<char, char*, fmt::v10::appender>(char*, char*, fmt::v10::appender)
PUBLIC 5bd94 0 cocos2d::CCCopying::copyWithZone(cocos2d::CCZone*)
PUBLIC 5bd9c 0 mle_ui::LevelConfigPopup::~LevelConfigPopup()
PUBLIC 5be90 0 mle_ui::LevelConfigPopup::~LevelConfigPopup()
PUBLIC 5bf8c 0 cocos2d::CCLayerRGBA::setOpacityModifyRGB(bool)
PUBLIC 5bf90 0 cocos2d::CCLayerRGBA::isOpacityModifyRGB()
PUBLIC 5bf98 0 mle_ui::LevelConfigPopup::textChanged(CCTextInputNode*)
PUBLIC 5c68c 0 mle_ui::LevelConfigPopup::FLAlert_Clicked(FLAlertLayer*, bool)
PUBLIC 5d760 0 {virtual override thunk({offset(-320)}, mle_ui::LevelConfigPopup::~LevelConfigPopup())}
PUBLIC 5d854 0 {virtual override thunk({offset(-320)}, mle_ui::LevelConfigPopup::~LevelConfigPopup())}
PUBLIC 5d950 0 cocos2d::CCKeyboardDelegate::keyUp(cocos2d::enumKeyCodes)
PUBLIC 5d954 0 cocos2d::CCMouseDelegate::rightKeyDown()
PUBLIC 5d958 0 cocos2d::CCMouseDelegate::rightKeyUp()
PUBLIC 5d95c 0 cocos2d::CCMouseDelegate::scrollWheel(float, float)
PUBLIC 5d960 0 {virtual override thunk({offset(-408)}, cocos2d::CCLayerRGBA::setOpacityModifyRGB(bool))}
PUBLIC 5d964 0 {virtual override thunk({offset(-408)}, cocos2d::CCLayerRGBA::isOpacityModifyRGB())}
PUBLIC 5d96c 0 {virtual override thunk({offset(-632)}, mle_ui::LevelConfigPopup::FLAlert_Clicked(FLAlertLayer*, bool))}
PUBLIC 5d974 0 {virtual override thunk({offset(-640)}, mle_ui::LevelConfigPopup::textChanged(CCTextInputNode*))}
PUBLIC 5d97c 0 std::__ndk1::__function::__func<mle_ui::LevelConfigPopup::m_onSave::{lambda()#1}, std::__ndk1::allocator<mle_ui::LevelConfigPopup::m_onSave::{lambda()#1}>, void ()>::~__func()
PUBLIC 5d980 0 std::__ndk1::__function::__func<mle_ui::LevelConfigPopup::m_onSave::{lambda()#1}, std::__ndk1::allocator<mle_ui::LevelConfigPopup::m_onSave::{lambda()#1}>, void ()>::__clone() const
PUBLIC 5d9a4 0 std::__ndk1::__function::__func<mle_ui::LevelConfigPopup::m_onSave::{lambda()#1}, std::__ndk1::allocator<mle_ui::LevelConfigPopup::m_onSave::{lambda()#1}>, void ()>::__clone(std::__ndk1::__function::__base<void ()>*) const
PUBLIC 5d9b4 0 std::__ndk1::__function::__func<mle_ui::LevelConfigPopup::m_onSave::{lambda()#1}, std::__ndk1::allocator<mle_ui::LevelConfigPopup::m_onSave::{lambda()#1}>, void ()>::destroy()
PUBLIC 5d9b8 0 std::__ndk1::__function::__func<mle_ui::LevelConfigPopup::m_onSave::{lambda()#1}, std::__ndk1::allocator<mle_ui::LevelConfigPopup::m_onSave::{lambda()#1}>, void ()>::destroy_deallocate()
PUBLIC 5d9bc 0 std::__ndk1::__function::__func<mle_ui::LevelConfigPopup::m_onSave::{lambda()#1}, std::__ndk1::allocator<mle_ui::LevelConfigPopup::m_onSave::{lambda()#1}>, void ()>::operator()()
PUBLIC 5d9c0 0 std::__ndk1::__function::__func<mle_ui::LevelConfigPopup::m_onSave::{lambda()#1}, std::__ndk1::allocator<mle_ui::LevelConfigPopup::m_onSave::{lambda()#1}>, void ()>::target(std::type_info const&) const
PUBLIC 5d9dc 0 std::__ndk1::__function::__func<mle_ui::LevelConfigPopup::m_onSave::{lambda()#1}, std::__ndk1::allocator<mle_ui::LevelConfigPopup::m_onSave::{lambda()#1}>, void ()>::target_type() const
PUBLIC m 5d9e8 0 mle_ui::LevelConfigPopup::onBrowseSongs(cocos2d::CCObject*)
PUBLIC 5da04 0 mle_ui::AudiosListMDPopup::create()
PUBLIC 5ee40 0 mle_ui::AudiosListMDPopup::~AudiosListMDPopup()
PUBLIC 5eebc 0 mle_ui::AudiosListMDPopup::scrollViewDidEndMoving(CCScrollLayerExt*)
PUBLIC 5ef10 0 {virtual override thunk({offset(-320)}, mle_ui::AudiosListMDPopup::~AudiosListMDPopup())}
PUBLIC 5ef84 0 {virtual override thunk({offset(-320)}, mle_ui::AudiosListMDPopup::~AudiosListMDPopup())}
PUBLIC 5f000 0 {virtual override thunk({offset(-640)}, mle_ui::AudiosListMDPopup::scrollViewDidEndMoving(CCScrollLayerExt*))}
PUBLIC 5f054 0 std::__ndk1::__fs::filesystem::directory_iterator::~directory_iterator[abi:v170000]()
PUBLIC 5f0a4 0 fs::read(std::__ndk1::__fs::filesystem::path, std::__ndk1::basic_string<char, std::__ndk1::char_traits<char>, std::__ndk1::allocator<char> >&)
PUBLIC 5f8ac 0 mle_leveltools::levelFromJson(matjson::Value, GJGameLevel*)
PUBLIC 6039c 0 std::__ndk1::__tree<std::__ndk1::__fs::filesystem::path, mle_ui::AudiosListMDPopup::FileNumbericSort, std::__ndk1::allocator<std::__ndk1::__fs::filesystem::path> >::__emplace_unique_key_args<std::__ndk1::__fs::filesystem::path, std::__ndk1::__fs::filesystem::path const&>(std::__ndk1::__fs::filesystem::path const&, std::__ndk1::__fs::filesystem::path const&)
PUBLIC 6051c 0 mle_ui::AudiosListMDPopup::FileNumbericSort::operator()(std::__ndk1::__fs::filesystem::path const&, std::__ndk1::__fs::filesystem::path const&) const
PUBLIC m 61458 0 std::__ndk1::basic_regex<char, std::__ndk1::regex_traits<char> >::basic_regex[abi:v170000]<std::__ndk1::char_traits<char>, std::__ndk1::allocator<char> >(std::__ndk1::regex_constants::syntax_option_type)
PUBLIC m 61520 0 std::__ndk1::basic_regex<char, std::__ndk1::regex_traits<char> >::~basic_regex()
PUBLIC 61580 0 std::__ndk1::regex_replace[abi:v170000]<std::__ndk1::back_insert_iterator<std::__ndk1::basic_string<char, std::__ndk1::char_traits<char>, std::__ndk1::allocator<char> > >, std::__ndk1::__wrap_iter<char const*>, std::__ndk1::regex_traits<char>, char>(std::__ndk1::regex_traits<char>, std::__ndk1::__wrap_iter<char const*>, std::__ndk1::back_insert_iterator<std::__ndk1::basic_string<char, std::__ndk1::char_traits<char>, std::__ndk1::allocator<char> > >, std::__ndk1::basic_regex<char, std::__ndk1::regex_traits<char> > const&, std::__ndk1::basic_regex const*, std::__ndk1::regex_constants::match_flag_type)
PUBLIC 61920 0 std::__ndk1::regex_iterator<std::__ndk1::__wrap_iter<char const*>, char, std::__ndk1::regex_traits<char> >::regex_iterator(std::__ndk1::__wrap_iter<char const*>, std::__ndk1::__wrap_iter<char const*>, std::__ndk1::basic_regex<char, std::__ndk1::regex_traits<char> > const&, std::__ndk1::regex_constants::match_flag_type)
PUBLIC 61a68 0 std::__ndk1::match_results<std::__ndk1::__wrap_iter<char const*>, std::__ndk1::allocator<std::__ndk1::sub_match<std::__ndk1::__wrap_iter<char const*> > > >::format<std::__ndk1::back_insert_iterator<std::__ndk1::basic_string<char, std::__ndk1::char_traits<char>, std::__ndk1::allocator<char> > > >(std::__ndk1::back_insert_iterator<std::__ndk1::basic_string<char, std::__ndk1::char_traits<char>, std::__ndk1::allocator<char> > >, char const*, char const*, std::__ndk1::regex_constants::match_flag_type) const
PUBLIC 61e3c 0 std::__ndk1::regex_iterator<std::__ndk1::__wrap_iter<char const*>, char, std::__ndk1::regex_traits<char> >::operator++()
PUBLIC m 6203c 0 std::__ndk1::basic_regex<char, std::__ndk1::regex_traits<char> >::__search<std::__ndk1::allocator<std::__ndk1::sub_match<char const*> > >(char const*, char const*, std::__ndk1::match_results<char const*, std::__ndk1::allocator<std::__ndk1::sub_match<char const*> > >&, std::__ndk1::regex_constants::match_flag_type) const
PUBLIC m 622ac 0 std::__ndk1::match_results<std::__ndk1::__wrap_iter<char const*>, std::__ndk1::allocator<std::__ndk1::sub_match<std::__ndk1::__wrap_iter<char const*> > > >::__assign[abi:v170000]<char const*, std::__ndk1::allocator<std::__ndk1::sub_match<char const*> > >(std::__ndk1::__wrap_iter<char const*>, std::__ndk1::__wrap_iter<char const*>, std::__ndk1::match_results<char const*, std::__ndk1::allocator<std::__ndk1::sub_match<char const*> > > const&, bool)
PUBLIC 6247c 0 std::__ndk1::vector<std::__ndk1::sub_match<char const*>, std::__ndk1::allocator<std::__ndk1::sub_match<char const*> > >::assign(unsigned long, std::__ndk1::sub_match<char const*> const&)
PUBLIC m 62618 0 std::__ndk1::basic_regex<char, std::__ndk1::regex_traits<char> >::__match_at_start_ecma<std::__ndk1::allocator<std::__ndk1::sub_match<char const*> > >(char const*, char const*, std::__ndk1::match_results<char const*, std::__ndk1::allocator<std::__ndk1::sub_match<char const*> > >&, std::__ndk1::regex_constants::match_flag_type, bool) const
PUBLIC m 62aa8 0 std::__ndk1::basic_regex<char, std::__ndk1::regex_traits<char> >::__match_at_start_posix_nosubs<std::__ndk1::allocator<std::__ndk1::sub_match<char const*> > >(char const*, char const*, std::__ndk1::match_results<char const*, std::__ndk1::allocator<std::__ndk1::sub_match<char const*> > >&, std::__ndk1::regex_constants::match_flag_type, bool) const
PUBLIC m 63414 0 std::__ndk1::basic_regex<char, std::__ndk1::regex_traits<char> >::__match_at_start_posix_subs<std::__ndk1::allocator<std::__ndk1::sub_match<char const*> > >(char const*, char const*, std::__ndk1::match_results<char const*, std::__ndk1::allocator<std::__ndk1::sub_match<char const*> > >&, std::__ndk1::regex_constants::match_flag_type, bool) const
PUBLIC m 63a38 0 std::__ndk1::__state<char>::~__state()
PUBLIC 63a7c 0 std::__ndk1::__throw_regex_error[abi:v170000]<(std::__ndk1::regex_constants::error_type)12>()
PUBLIC m 63ac8 0 std::__ndk1::__state<char>::__state(std::__ndk1::__state<char> const&)
PUBLIC 63c34 0 std::__ndk1::__throw_regex_error[abi:v170000]<(std::__ndk1::regex_constants::error_type)16>()
PUBLIC 63c80 0 std::__ndk1::vector<std::__ndk1::__state<char>, std::__ndk1::allocator<std::__ndk1::__state<char> > >::~vector[abi:v170000]()
PUBLIC m 63d1c 0 std::__ndk1::vector<std::__ndk1::__state<char>, std::__ndk1::allocator<std::__ndk1::__state<char> > >::__push_back_slow_path<std::__ndk1::__state<char> >(std::__ndk1::__state<char>&&)
PUBLIC 63ef0 0 std::__ndk1::vector<std::__ndk1::__state<char>, std::__ndk1::allocator<std::__ndk1::__state<char> > >::__throw_length_error[abi:v170000]() const
PUBLIC 63f04 0 std::__ndk1::vector<std::__ndk1::sub_match<char const*>, std::__ndk1::allocator<std::__ndk1::sub_match<char const*> > >::__append(unsigned long, std::__ndk1::sub_match<char const*> const&)
PUBLIC 640a8 0 std::__ndk1::vector<std::__ndk1::sub_match<char const*>, std::__ndk1::allocator<std::__ndk1::sub_match<char const*> > >::__throw_length_error[abi:v170000]() const
PUBLIC 640bc 0 std::__ndk1::vector<std::__ndk1::pair<unsigned long, char const*>, std::__ndk1::allocator<std::__ndk1::pair<unsigned long, char const*> > >::__append(unsigned long)
PUBLIC 641fc 0 std::__ndk1::vector<std::__ndk1::pair<unsigned long, char const*>, std::__ndk1::allocator<std::__ndk1::pair<unsigned long, char const*> > >::__throw_length_error[abi:v170000]() const
PUBLIC 64210 0 std::__ndk1::deque<std::__ndk1::__state<char>, std::__ndk1::allocator<std::__ndk1::__state<char> > >::clear()
PUBLIC 6436c 0 std::__ndk1::deque<std::__ndk1::__state<char>, std::__ndk1::allocator<std::__ndk1::__state<char> > >::~deque[abi:v170000]()
PUBLIC 643e8 0 std::__ndk1::deque<std::__ndk1::__state<char>, std::__ndk1::allocator<std::__ndk1::__state<char> > >::__add_back_capacity()
PUBLIC 649e0 0 std::__ndk1::__split_buffer<std::__ndk1::__state<char>*, std::__ndk1::allocator<std::__ndk1::__state<char>*> >::push_back(std::__ndk1::__state<char>*&&)
PUBLIC 64b64 0 std::__ndk1::__split_buffer<std::__ndk1::__state<char>*, std::__ndk1::allocator<std::__ndk1::__state<char>*> >::push_front(std::__ndk1::__state<char>*&&)
PUBLIC 64cf4 0 std::__ndk1::deque<std::__ndk1::__state<char>, std::__ndk1::allocator<std::__ndk1::__state<char> > >::__add_front_capacity()
PUBLIC 650e0 0 std::__ndk1::__split_buffer<std::__ndk1::__state<char>*, std::__ndk1::allocator<std::__ndk1::__state<char>*> >::push_front(std::__ndk1::__state<char>* const&)
PUBLIC m 65270 0 std::__ndk1::vector<std::__ndk1::sub_match<char const*>, std::__ndk1::allocator<std::__ndk1::sub_match<char const*> > >::assign<std::__ndk1::sub_match<char const*>*, 0>(std::__ndk1::sub_match<char const*>*, std::__ndk1::sub_match<char const*>*)
PUBLIC m 65434 0 std::__ndk1::vector<std::__ndk1::pair<unsigned long, char const*>, std::__ndk1::allocator<std::__ndk1::pair<unsigned long, char const*> > >::assign<std::__ndk1::pair<unsigned long, char const*>*, 0>(std::__ndk1::pair<unsigned long, char const*>*, std::__ndk1::pair<unsigned long, char const*>*)
PUBLIC 6564c 0 std::__ndk1::vector<std::__ndk1::sub_match<std::__ndk1::__wrap_iter<char const*> >, std::__ndk1::allocator<std::__ndk1::sub_match<std::__ndk1::__wrap_iter<char const*> > > >::__append(unsigned long)
PUBLIC 657e4 0 std::__ndk1::vector<std::__ndk1::sub_match<std::__ndk1::__wrap_iter<char const*> >, std::__ndk1::allocator<std::__ndk1::sub_match<std::__ndk1::__wrap_iter<char const*> > > >::__throw_length_error[abi:v170000]() const
PUBLIC 657f8 0 std::__ndk1::__throw_regex_error[abi:v170000]<(std::__ndk1::regex_constants::error_type)3>()
PUBLIC 65844 0 std::__ndk1::shared_ptr<std::__ndk1::__empty_state<char> >::~shared_ptr[abi:v170000]()
PUBLIC m 65894 0 std::__ndk1::basic_regex<char, std::__ndk1::regex_traits<char> >::__parse<std::__ndk1::__wrap_iter<char const*> >(std::__ndk1::__wrap_iter<char const*>, std::__ndk1::__wrap_iter<char const*>)
PUBLIC 65a84 0 std::__ndk1::__throw_regex_error[abi:v170000]<(std::__ndk1::regex_constants::error_type)17>()
PUBLIC m 65ad0 0 std::__ndk1::basic_regex<char, std::__ndk1::regex_traits<char> >::__parse_ecma_exp<std::__ndk1::__wrap_iter<char const*> >(std::__ndk1::__wrap_iter<char const*>, std::__ndk1::__wrap_iter<char const*>)
PUBLIC m 65d48 0 std::__ndk1::basic_regex<char, std::__ndk1::regex_traits<char> >::__parse_basic_reg_exp<std::__ndk1::__wrap_iter<char const*> >(std::__ndk1::__wrap_iter<char const*>, std::__ndk1::__wrap_iter<char const*>)
PUBLIC m 65ec8 0 std::__ndk1::basic_regex<char, std::__ndk1::regex_traits<char> >::__parse_extended_reg_exp<std::__ndk1::__wrap_iter<char const*> >(std::__ndk1::__wrap_iter<char const*>, std::__ndk1::__wrap_iter<char const*>)
PUBLIC m 66034 0 std::__ndk1::basic_regex<char, std::__ndk1::regex_traits<char> >::__parse_grep<std::__ndk1::__wrap_iter<char const*> >(std::__ndk1::__wrap_iter<char const*>, std::__ndk1::__wrap_iter<char const*>)
PUBLIC m 66208 0 std::__ndk1::basic_regex<char, std::__ndk1::regex_traits<char> >::__parse_egrep<std::__ndk1::__wrap_iter<char const*> >(std::__ndk1::__wrap_iter<char const*>, std::__ndk1::__wrap_iter<char const*>)
PUBLIC 663dc 0 std::__ndk1::__throw_regex_error[abi:v170000]<(std::__ndk1::regex_constants::error_type)14>()
PUBLIC m 66428 0 std::__ndk1::__end_state<char>::~__end_state()
PUBLIC m 6642c 0 std::__ndk1::__end_state<char>::__exec(std::__ndk1::__state<char>&) const
PUBLIC 66438 0 std::__ndk1::__node<char>::__exec_split(bool, std::__ndk1::__state<char>&) const
PUBLIC 6643c 0 std::__ndk1::__node<char>::__exec(std::__ndk1::__state<char>&) const
PUBLIC m 66440 0 std::__ndk1::__shared_ptr_pointer<std::__ndk1::__empty_state<char>*, std::__ndk1::shared_ptr<std::__ndk1::__empty_state<char> >::__shared_ptr_default_delete<std::__ndk1::__empty_state<char>, std::__ndk1::__empty_state<char> >, std::__ndk1::allocator<std::__ndk1::__empty_state<char> > >::~__shared_ptr_pointer()
PUBLIC m 66464 0 std::__ndk1::__shared_ptr_pointer<std::__ndk1::__empty_state<char>*, std::__ndk1::shared_ptr<std::__ndk1::__empty_state<char> >::__shared_ptr_default_delete<std::__ndk1::__empty_state<char>, std::__ndk1::__empty_state<char> >, std::__ndk1::allocator<std::__ndk1::__empty_state<char> > >::__on_zero_shared()
PUBLIC m 6647c 0 std::__ndk1::__shared_ptr_pointer<std::__ndk1::__empty_state<char>*, std::__ndk1::shared_ptr<std::__ndk1::__empty_state<char> >::__shared_ptr_default_delete<std::__ndk1::__empty_state<char>, std::__ndk1::__empty_state<char> >, std::__ndk1::allocator<std::__ndk1::__empty_state<char> > >::__get_deleter(std::type_info const&) const
PUBLIC m 66498 0 std::__ndk1::__shared_ptr_pointer<std::__ndk1::__empty_state<char>*, std::__ndk1::shared_ptr<std::__ndk1::__empty_state<char> >::__shared_ptr_default_delete<std::__ndk1::__empty_state<char>, std::__ndk1::__empty_state<char> >, std::__ndk1::allocator<std::__ndk1::__empty_state<char> > >::__on_zero_shared_weak()
PUBLIC m 6649c 0 std::__ndk1::__empty_state<char>::~__empty_state()
PUBLIC m 664e0 0 std::__ndk1::__empty_state<char>::__exec(std::__ndk1::__state<char>&) const
PUBLIC m 664f4 0 std::__ndk1::__owns_one_state<char>::~__owns_one_state()
PUBLIC m 66538 0 std::__ndk1::basic_regex<char, std::__ndk1::regex_traits<char> >::__parse_assertion<std::__ndk1::__wrap_iter<char const*> >(std::__ndk1::__wrap_iter<char const*>, std::__ndk1::__wrap_iter<char const*>)
PUBLIC m 66848 0 std::__ndk1::basic_regex<char, std::__ndk1::regex_traits<char> >::__parse_atom<std::__ndk1::__wrap_iter<char const*> >(std::__ndk1::__wrap_iter<char const*>, std::__ndk1::__wrap_iter<char const*>)
PUBLIC m 66aa0 0 std::__ndk1::basic_regex<char, std::__ndk1::regex_traits<char> >::__parse_ERE_dupl_symbol<std::__ndk1::__wrap_iter<char const*> >(std::__ndk1::__wrap_iter<char const*>, std::__ndk1::__wrap_iter<char const*>, std::__ndk1::__owns_one_state<char>*, unsigned int, unsigned int)
PUBLIC 66e9c 0 std::__ndk1::basic_regex<char, std::__ndk1::regex_traits<char> >::basic_regex[abi:v170000]()
PUBLIC m 66f08 0 std::__ndk1::basic_regex<char, std::__ndk1::regex_traits<char> >::__push_lookahead(std::__ndk1::basic_regex<char, std::__ndk1::regex_traits<char> > const&, bool, unsigned int)
PUBLIC 66fc0 0 std::__ndk1::__throw_regex_error[abi:v170000]<(std::__ndk1::regex_constants::error_type)6>()
PUBLIC m 6700c 0 std::__ndk1::__l_anchor_multiline<char>::~__l_anchor_multiline()
PUBLIC m 67050 0 std::__ndk1::__l_anchor_multiline<char>::__exec(std::__ndk1::__state<char>&) const
PUBLIC m 670b4 0 std::__ndk1::__r_anchor_multiline<char>::~__r_anchor_multiline()
PUBLIC m 670f8 0 std::__ndk1::__r_anchor_multiline<char>::__exec(std::__ndk1::__state<char>&) const
PUBLIC m 6714c 0 std::__ndk1::__word_boundary<char, std::__ndk1::regex_traits<char> >::~__word_boundary()
PUBLIC m 671ac 0 std::__ndk1::__word_boundary<char, std::__ndk1::regex_traits<char> >::~__word_boundary()
PUBLIC m 67208 0 std::__ndk1::__word_boundary<char, std::__ndk1::regex_traits<char> >::__exec(std::__ndk1::__state<char>&) const
PUBLIC m 67318 0 std::__ndk1::__lookahead<char, std::__ndk1::regex_traits<char> >::~__lookahead()
PUBLIC m 673b8 0 std::__ndk1::__lookahead<char, std::__ndk1::regex_traits<char> >::~__lookahead()
PUBLIC m 67450 0 std::__ndk1::__lookahead<char, std::__ndk1::regex_traits<char> >::__exec(std::__ndk1::__state<char>&) const
PUBLIC 67608 0 std::__ndk1::basic_regex<char, std::__ndk1::regex_traits<char> >::__parse_atom_escape<std::__ndk1::__wrap_iter<char const*> >(std::__ndk1::__wrap_iter<char const*>, std::__ndk1::__wrap_iter<char const*>)
PUBLIC m 67780 0 std::__ndk1::basic_regex<char, std::__ndk1::regex_traits<char> >::__parse_bracket_expression<std::__ndk1::__wrap_iter<char const*> >(std::__ndk1::__wrap_iter<char const*>, std::__ndk1::__wrap_iter<char const*>)
PUBLIC 678d0 0 std::__ndk1::__throw_regex_error[abi:v170000]<(std::__ndk1::regex_constants::error_type)11>()
PUBLIC m 6791c 0 std::__ndk1::basic_regex<char, std::__ndk1::regex_traits<char> >::__parse_pattern_character<std::__ndk1::__wrap_iter<char const*> >(std::__ndk1::__wrap_iter<char const*>, std::__ndk1::__wrap_iter<char const*>)
PUBLIC m 67984 0 std::__ndk1::__match_any_but_newline<char>::~__match_any_but_newline()
PUBLIC m 679c8 0 std::__ndk1::basic_regex<char, std::__ndk1::regex_traits<char> >::__parse_character_class_escape<std::__ndk1::__wrap_iter<char const*> >(std::__ndk1::__wrap_iter<char const*>, std::__ndk1::__wrap_iter<char const*>)
PUBLIC m 67bc8 0 std::__ndk1::basic_regex<char, std::__ndk1::regex_traits<char> >::__parse_character_escape<std::__ndk1::__wrap_iter<char const*> >(std::__ndk1::__wrap_iter<char const*>, std::__ndk1::__wrap_iter<char const*>, std::__ndk1::basic_string<char, std::__ndk1::char_traits<char>, std::__ndk1::allocator<char> >*)
PUBLIC m 680a8 0 std::__ndk1::basic_regex<char, std::__ndk1::regex_traits<char> >::__push_char(char)
PUBLIC 681f4 0 std::__ndk1::__throw_regex_error[abi:v170000]<(std::__ndk1::regex_constants::error_type)4>()
PUBLIC m 68240 0 std::__ndk1::basic_regex<char, std::__ndk1::regex_traits<char> >::__push_back_ref(int)
PUBLIC m 6830c 0 std::__ndk1::__match_char_icase<char, std::__ndk1::regex_traits<char> >::~__match_char_icase()
PUBLIC m 6836c 0 std::__ndk1::__match_char_icase<char, std::__ndk1::regex_traits<char> >::~__match_char_icase()
PUBLIC m 683c8 0 std::__ndk1::__match_char_icase<char, std::__ndk1::regex_traits<char> >::__exec(std::__ndk1::__state<char>&) const
PUBLIC m 68448 0 std::__ndk1::__match_char_collate<char, std::__ndk1::regex_traits<char> >::~__match_char_collate()
PUBLIC m 684a8 0 std::__ndk1::__match_char_collate<char, std::__ndk1::regex_traits<char> >::~__match_char_collate()
PUBLIC m 68504 0 std::__ndk1::__match_char_collate<char, std::__ndk1::regex_traits<char> >::__exec(std::__ndk1::__state<char>&) const
PUBLIC m 6854c 0 std::__ndk1::__match_char<char>::~__match_char()
PUBLIC m 68590 0 std::__ndk1::__match_char<char>::__exec(std::__ndk1::__state<char>&) const
PUBLIC m 685d8 0 std::__ndk1::__back_ref_icase<char, std::__ndk1::regex_traits<char> >::~__back_ref_icase()
PUBLIC m 68638 0 std::__ndk1::__back_ref_icase<char, std::__ndk1::regex_traits<char> >::~__back_ref_icase()
PUBLIC m 68694 0 std::__ndk1::__back_ref_icase<char, std::__ndk1::regex_traits<char> >::__exec(std::__ndk1::__state<char>&) const
PUBLIC m 6878c 0 std::__ndk1::__back_ref_collate<char, std::__ndk1::regex_traits<char> >::~__back_ref_collate()
PUBLIC m 687ec 0 std::__ndk1::__back_ref_collate<char, std::__ndk1::regex_traits<char> >::~__back_ref_collate()
PUBLIC m 68848 0 std::__ndk1::__back_ref_collate<char, std::__ndk1::regex_traits<char> >::__exec(std::__ndk1::__state<char>&) const
PUBLIC m 688e0 0 std::__ndk1::__back_ref<char>::~__back_ref()
PUBLIC m 68924 0 std::__ndk1::__back_ref<char>::__exec(std::__ndk1::__state<char>&) const
PUBLIC 689e8 0 std::__ndk1::__bracket_expression<char, std::__ndk1::regex_traits<char> >::__add_char[abi:v170000](char)
PUBLIC 68e60 0 std::__ndk1::__bracket_expression<char, std::__ndk1::regex_traits<char> >::__bracket_expression[abi:v170000](std::__ndk1::regex_traits<char> const&, std::__ndk1::__node<char>*, bool, bool, bool)
PUBLIC 6903c 0 std::__ndk1::vector<std::__ndk1::pair<std::__ndk1::basic_string<char, std::__ndk1::char_traits<char>, std::__ndk1::allocator<char> >, std::__ndk1::basic_string<char, std::__ndk1::char_traits<char>, std::__ndk1::allocator<char> > >, std::__ndk1::allocator<std::__ndk1::pair<std::__ndk1::basic_string<char, std::__ndk1::char_traits<char>, std::__ndk1::allocator<char> >, std::__ndk1::basic_string<char, std::__ndk1::char_traits<char>, std::__ndk1::allocator<char> > > > >::~vector[abi:v170000]()
PUBLIC m 690e8 0 std::__ndk1::__bracket_expression<char, std::__ndk1::regex_traits<char> >::~__bracket_expression()
PUBLIC m 6923c 0 std::__ndk1::__bracket_expression<char, std::__ndk1::regex_traits<char> >::~__bracket_expression()
PUBLIC m 69260 0 std::__ndk1::__bracket_expression<char, std::__ndk1::regex_traits<char> >::__exec(std::__ndk1::__state<char>&) const
PUBLIC m 69d14 0 std::__ndk1::pair<std::__ndk1::basic_string<char, std::__ndk1::char_traits<char>, std::__ndk1::allocator<char> >, std::__ndk1::basic_string<char, std::__ndk1::char_traits<char>, std::__ndk1::allocator<char> > >::~pair()
PUBLIC m 69d58 0 std::__ndk1::regex_traits<char>::transform<char*>(char*, char*) const
PUBLIC m 69eb8 0 std::__ndk1::regex_traits<char>::__lookup_collatename<char*>(char*, char*, char) const
PUBLIC m 6a130 0 std::__ndk1::regex_traits<char>::__transform_primary<char*>(char*, char*, char) const
PUBLIC 6a2f4 0 std::__ndk1::vector<char, std::__ndk1::allocator<char> >::__throw_length_error[abi:v170000]() const
PUBLIC 6a308 0 std::__ndk1::__throw_regex_error[abi:v170000]<(std::__ndk1::regex_constants::error_type)5>()
PUBLIC m 6a354 0 std::__ndk1::basic_regex<char, std::__ndk1::regex_traits<char> >::__parse_expression_term<std::__ndk1::__wrap_iter<char const*> >(std::__ndk1::__wrap_iter<char const*>, std::__ndk1::__wrap_iter<char const*>, std::__ndk1::__bracket_expression<char, std::__ndk1::regex_traits<char> >*)
PUBLIC m 6a998 0 std::__ndk1::basic_regex<char, std::__ndk1::regex_traits<char> >::__parse_equivalence_class<std::__ndk1::__wrap_iter<char const*> >(std::__ndk1::__wrap_iter<char const*>, std::__ndk1::__wrap_iter<char const*>, std::__ndk1::__bracket_expression<char, std::__ndk1::regex_traits<char> >*)
PUBLIC m 6ace0 0 std::__ndk1::basic_regex<char, std::__ndk1::regex_traits<char> >::__parse_character_class<std::__ndk1::__wrap_iter<char const*> >(std::__ndk1::__wrap_iter<char const*>, std::__ndk1::__wrap_iter<char const*>, std::__ndk1::__bracket_expression<char, std::__ndk1::regex_traits<char> >*)
PUBLIC m 6ada4 0 std::__ndk1::basic_regex<char, std::__ndk1::regex_traits<char> >::__parse_collating_symbol<std::__ndk1::__wrap_iter<char const*> >(std::__ndk1::__wrap_iter<char const*>, std::__ndk1::__wrap_iter<char const*>, std::__ndk1::basic_string<char, std::__ndk1::char_traits<char>, std::__ndk1::allocator<char> >&)
PUBLIC m 6aedc 0 std::__ndk1::basic_regex<char, std::__ndk1::regex_traits<char> >::__parse_class_escape<std::__ndk1::__wrap_iter<char const*> >(std::__ndk1::__wrap_iter<char const*>, std::__ndk1::__wrap_iter<char const*>, std::__ndk1::basic_string<char, std::__ndk1::char_traits<char>, std::__ndk1::allocator<char> >&, std::__ndk1::__bracket_expression<char, std::__ndk1::regex_traits<char> >*)
PUBLIC m 6b06c 0 std::__ndk1::basic_regex<char, std::__ndk1::regex_traits<char> >::__parse_awk_escape<std::__ndk1::__wrap_iter<char const*> >(std::__ndk1::__wrap_iter<char const*>, std::__ndk1::__wrap_iter<char const*>, std::__ndk1::basic_string<char, std::__ndk1::char_traits<char>, std::__ndk1::allocator<char> >*)
PUBLIC 6b480 0 std::__ndk1::__bracket_expression<char, std::__ndk1::regex_traits<char> >::__add_range[abi:v170000](std::__ndk1::basic_string<char, std::__ndk1::char_traits<char>, std::__ndk1::allocator<char> >, std::__ndk1::allocator<char>)
PUBLIC 6b914 0 std::__ndk1::__bracket_expression<char, std::__ndk1::regex_traits<char> >::__add_digraph[abi:v170000](char, char)
PUBLIC 6bcec 0 std::__ndk1::__throw_regex_error[abi:v170000]<(std::__ndk1::regex_constants::error_type)1>()
PUBLIC m 6bd38 0 std::__ndk1::regex_traits<char>::__lookup_collatename<std::__ndk1::__wrap_iter<char const*> >(std::__ndk1::__wrap_iter<char const*>, std::__ndk1::__wrap_iter<char const*>, char) const
PUBLIC m 6c004 0 std::__ndk1::regex_traits<char>::__transform_primary<std::__ndk1::__wrap_iter<char*> >(std::__ndk1::__wrap_iter<char*>, std::__ndk1::__wrap_iter<char*>, char) const
PUBLIC 6c21c 0 std::__ndk1::__throw_regex_error[abi:v170000]<(std::__ndk1::regex_constants::error_type)2>()
PUBLIC m 6c268 0 std::__ndk1::regex_traits<char>::__lookup_classname<std::__ndk1::__wrap_iter<char const*> >(std::__ndk1::__wrap_iter<char const*>, std::__ndk1::__wrap_iter<char const*>, bool, char) const
PUBLIC 6c438 0 std::__ndk1::__bracket_expression<char, std::__ndk1::regex_traits<char> >::__add_neg_char[abi:v170000](char)
PUBLIC m 6c8b0 0 std::__ndk1::regex_traits<char>::transform<std::__ndk1::__wrap_iter<char*> >(std::__ndk1::__wrap_iter<char*>, std::__ndk1::__wrap_iter<char*>) const
PUBLIC 6ca64 0 std::__ndk1::__throw_regex_error[abi:v170000]<(std::__ndk1::regex_constants::error_type)9>()
PUBLIC m 6cab0 0 std::__ndk1::vector<std::__ndk1::pair<std::__ndk1::basic_string<char, std::__ndk1::char_traits<char>, std::__ndk1::allocator<char> >, std::__ndk1::basic_string<char, std::__ndk1::char_traits<char>, std::__ndk1::allocator<char> > >, std::__ndk1::allocator<std::__ndk1::pair<std::__ndk1::basic_string<char, std::__ndk1::char_traits<char>, std::__ndk1::allocator<char> >, std::__ndk1::basic_string<char, std::__ndk1::char_traits<char>, std::__ndk1::allocator<char> > > > >::__push_back_slow_path<std::__ndk1::pair<std::__ndk1::basic_string<char, std::__ndk1::char_traits<char>, std::__ndk1::allocator<char> >, std::__ndk1::basic_string<char, std::__ndk1::char_traits<char>, std::__ndk1::allocator<char> > > >(std::__ndk1::pair<std::__ndk1::basic_string<char, std::__ndk1::char_traits<char>, std::__ndk1::allocator<char> >, std::__ndk1::basic_string<char, std::__ndk1::char_traits<char>, std::__ndk1::allocator<char> > >&&)
PUBLIC 6cc6c 0 std::__ndk1::vector<std::__ndk1::pair<std::__ndk1::basic_string<char, std::__ndk1::char_traits<char>, std::__ndk1::allocator<char> >, std::__ndk1::basic_string<char, std::__ndk1::char_traits<char>, std::__ndk1::allocator<char> > >, std::__ndk1::allocator<std::__ndk1::pair<std::__ndk1::basic_string<char, std::__ndk1::char_traits<char>, std::__ndk1::allocator<char> >, std::__ndk1::basic_string<char, std::__ndk1::char_traits<char>, std::__ndk1::allocator<char> > > > >::__throw_length_error[abi:v170000]() const
PUBLIC 6cc80 0 std::__ndk1::vector<std::__ndk1::pair<char, char>, std::__ndk1::allocator<std::__ndk1::pair<char, char> > >::__throw_length_error[abi:v170000]() const
PUBLIC m 6cc94 0 std::__ndk1::__begin_marked_subexpression<char>::~__begin_marked_subexpression()
PUBLIC m 6ccd8 0 std::__ndk1::__begin_marked_subexpression<char>::__exec(std::__ndk1::__state<char>&) const
PUBLIC m 6cd08 0 std::__ndk1::__end_marked_subexpression<char>::~__end_marked_subexpression()
PUBLIC m 6cd4c 0 std::__ndk1::__end_marked_subexpression<char>::__exec(std::__ndk1::__state<char>&) const
PUBLIC m 6cd88 0 std::__ndk1::basic_regex<char, std::__ndk1::regex_traits<char> >::__push_loop(unsigned long, unsigned long, std::__ndk1::__owns_one_state<char>*, unsigned long, unsigned long, bool)
PUBLIC 6cecc 0 std::__ndk1::__throw_regex_error[abi:v170000]<(std::__ndk1::regex_constants::error_type)8>()
PUBLIC 6cf18 0 std::__ndk1::__throw_regex_error[abi:v170000]<(std::__ndk1::regex_constants::error_type)7>()
PUBLIC m 6cf64 0 std::__ndk1::__owns_two_states<char>::~__owns_two_states()
PUBLIC m 6cfd0 0 std::__ndk1::__loop<char>::~__loop()
PUBLIC m 6d038 0 std::__ndk1::__loop<char>::__exec(std::__ndk1::__state<char>&) const
PUBLIC m 6d208 0 std::__ndk1::__loop<char>::__exec_split(bool, std::__ndk1::__state<char>&) const
PUBLIC m 6d2cc 0 std::__ndk1::__owns_two_states<char>::~__owns_two_states()
PUBLIC 6d334 0 std::__ndk1::__node<char>::~__node()
PUBLIC m 6d338 0 std::__ndk1::__repeat_one_loop<char>::~__repeat_one_loop()
PUBLIC m 6d33c 0 std::__ndk1::__repeat_one_loop<char>::__exec(std::__ndk1::__state<char>&) const
PUBLIC m 6d350 0 std::__ndk1::__alternate<char>::~__alternate()
PUBLIC m 6d3b8 0 std::__ndk1::__alternate<char>::__exec(std::__ndk1::__state<char>&) const
PUBLIC m 6d3c4 0 std::__ndk1::__alternate<char>::__exec_split(bool, std::__ndk1::__state<char>&) const
PUBLIC m 6d3e8 0 std::__ndk1::__empty_non_own_state<char>::~__empty_non_own_state()
PUBLIC m 6d3ec 0 std::__ndk1::__empty_non_own_state<char>::__exec(std::__ndk1::__state<char>&) const
PUBLIC 6d400 0 std::__ndk1::__throw_regex_error[abi:v170000]<(std::__ndk1::regex_constants::error_type)15>()
PUBLIC m 6d44c 0 std::__ndk1::basic_regex<char, std::__ndk1::regex_traits<char> >::__parse_nondupl_RE<std::__ndk1::__wrap_iter<char const*> >(std::__ndk1::__wrap_iter<char const*>, std::__ndk1::__wrap_iter<char const*>)
PUBLIC m 6d660 0 std::__ndk1::basic_regex<char, std::__ndk1::regex_traits<char> >::__parse_RE_dupl_symbol<std::__ndk1::__wrap_iter<char const*> >(std::__ndk1::__wrap_iter<char const*>, std::__ndk1::__wrap_iter<char const*>, std::__ndk1::__owns_one_state<char>*, unsigned int, unsigned int)
PUBLIC m 6d918 0 std::__ndk1::basic_regex<char, std::__ndk1::regex_traits<char> >::__parse_one_char_or_coll_elem_RE<std::__ndk1::__wrap_iter<char const*> >(std::__ndk1::__wrap_iter<char const*>, std::__ndk1::__wrap_iter<char const*>)
PUBLIC m 6da50 0 std::__ndk1::__owns_one_state<char>::~__owns_one_state()
PUBLIC m 6da7c 0 std::__ndk1::__match_any<char>::~__match_any()
PUBLIC m 6dac0 0 std::__ndk1::__match_any<char>::__exec(std::__ndk1::__state<char>&) const
PUBLIC m 6db00 0 std::__ndk1::basic_regex<char, std::__ndk1::regex_traits<char> >::__test_back_ref(char)
PUBLIC m 6db60 0 std::__ndk1::basic_regex<char, std::__ndk1::regex_traits<char> >::__parse_ERE_expression<std::__ndk1::__wrap_iter<char const*> >(std::__ndk1::__wrap_iter<char const*>, std::__ndk1::__wrap_iter<char const*>)
PUBLIC m 6dde4 0 std::__ndk1::basic_regex<char, std::__ndk1::regex_traits<char> >::__parse_ORD_CHAR_ERE<std::__ndk1::__wrap_iter<char const*> >(std::__ndk1::__wrap_iter<char const*>, std::__ndk1::__wrap_iter<char const*>)
PUBLIC m 6de54 0 std::__ndk1::basic_regex<char, std::__ndk1::regex_traits<char> >::__parse_QUOTED_CHAR_ERE<std::__ndk1::__wrap_iter<char const*> >(std::__ndk1::__wrap_iter<char const*>, std::__ndk1::__wrap_iter<char const*>)
PUBLIC 6df14 0 std::__ndk1::__throw_out_of_range[abi:v170000](char const*)
PUBLIC 6df64 0 std::out_of_range::out_of_range[abi:v170000](char const*)
PUBLIC 6df94 0 std::__ndk1::__tree<std::__ndk1::__fs::filesystem::path, mle_ui::AudiosListMDPopup::FileNumbericSort, std::__ndk1::allocator<std::__ndk1::__fs::filesystem::path> >::destroy(std::__ndk1::__tree_node<std::__ndk1::__fs::filesystem::path, void*>*)
PUBLIC 6dfe4 0 mle_leveltools::jsonFromLevel(GJGameLevel*)
PUBLIC 6e708 0 std::__ndk1::basic_ofstream<char, std::__ndk1::char_traits<char> >::basic_ofstream[abi:v170000](std::__ndk1::__fs::filesystem::path const&, unsigned int)
PUBLIC m 6e80c 0 std::__ndk1::basic_ofstream<char, std::__ndk1::char_traits<char> >::~basic_ofstream()
PUBLIC 6e860 0 std::__ndk1::__put_character_sequence[abi:v170000]<char, std::__ndk1::char_traits<char> >(std::__ndk1::basic_ostream<char, std::__ndk1::char_traits<char> >, std::__ndk1::basic_ostream const*, unsigned long)
PUBLIC 6ea04 0 std::__ndk1::__pad_and_output[abi:v170000]<char, std::__ndk1::char_traits<char> >(std::__ndk1::char_traits<char>, std::__ndk1::ostreambuf_iterator const*, std::__ndk1::ostreambuf_iterator const, std::__ndk1::ostreambuf_iterator const, std::__ndk1::ios_base&, std::__ndk1::ostreambuf_iterator)
PUBLIC m 6ebe0 0 std::__ndk1::basic_filebuf<char, std::__ndk1::char_traits<char> >::basic_filebuf()
PUBLIC m 6ed18 0 std::__ndk1::basic_filebuf<char, std::__ndk1::char_traits<char> >::open(char const*, unsigned int)
PUBLIC m 6ee50 0 std::__ndk1::basic_filebuf<char, std::__ndk1::char_traits<char> >::~basic_filebuf()
PUBLIC m 6ef0c 0 std::__ndk1::basic_ofstream<char, std::__ndk1::char_traits<char> >::~basic_ofstream()
PUBLIC m 6ef68 0 {virtual override thunk({virtual offset(0, -24)}, std::__ndk1::basic_ofstream<char, std::__ndk1::char_traits<char> >::~basic_ofstream())}
PUBLIC m 6efc8 0 {virtual override thunk({virtual offset(0, -24)}, std::__ndk1::basic_ofstream<char, std::__ndk1::char_traits<char> >::~basic_ofstream())}
PUBLIC m 6f030 0 std::__ndk1::basic_filebuf<char, std::__ndk1::char_traits<char> >::~basic_filebuf()
PUBLIC m 6f054 0 std::__ndk1::basic_filebuf<char, std::__ndk1::char_traits<char> >::imbue(std::__ndk1::locale const&)
PUBLIC m 6f154 0 std::__ndk1::basic_filebuf<char, std::__ndk1::char_traits<char> >::setbuf(char*, long)
PUBLIC m 6f26c 0 std::__ndk1::basic_filebuf<char, std::__ndk1::char_traits<char> >::seekoff(long long, std::__ndk1::ios_base::seekdir, unsigned int)
PUBLIC m 6f338 0 std::__ndk1::basic_filebuf<char, std::__ndk1::char_traits<char> >::seekpos(std::__ndk1::fpos<mbstate_t>, unsigned int)
PUBLIC m 6f3bc 0 std::__ndk1::basic_filebuf<char, std::__ndk1::char_traits<char> >::sync()
PUBLIC m 6f5e4 0 std::__ndk1::basic_filebuf<char, std::__ndk1::char_traits<char> >::underflow()
PUBLIC m 6f884 0 std::__ndk1::basic_filebuf<char, std::__ndk1::char_traits<char> >::pbackfail(int)
PUBLIC m 6f8e4 0 std::__ndk1::basic_filebuf<char, std::__ndk1::char_traits<char> >::overflow(int)
PUBLIC 6fb28 0 std::__ndk1::__throw_bad_cast[abi:v170000]()
PUBLIC 6fb5c 0 std::__ndk1::__throw_bad_function_call[abi:v170000]()
PUBLIC m 6fb90 0 std::__ndk1::bad_function_call::~bad_function_call()
PUBLIC 6fbb4 0 mle_ui::LevelConfigPopup::customSetup()::{lambda(auto:1, auto:2, geode::CommonFilter(auto:1, auto:2, geode::CommonFilter))#1}::operator()<char const*, char const*> const
PUBLIC m 6ffb4 0 mle_ui::LevelConfigPopup::onPlayMusic(cocos2d::CCObject*)
PUBLIC m 7045c 0 mle_ui::LevelConfigPopup::onLevelEdit(cocos2d::CCObject*)
PUBLIC 7068c 0 mle_audiotools::Audio::Audio(int, bool)
PUBLIC 70b10 0 mle_audiotools::Audio::~Audio()
PUBLIC 70b7c 0 mle_audiotools::Audio::updateFromFile(mle_audiotools::Audio*)
PUBLIC 7151c 0 mle_audiotools::Audio::resetJson()
PUBLIC 7184c 0 std::__ndk1::basic_regex<char, std::__ndk1::regex_traits<char> >::basic_regex[abi:v170000](char const*, std::__ndk1::regex_constants::syntax_option_type)
PUBLIC 71908 0 std::__ndk1::regex_replace[abi:v170000]<std::__ndk1::back_insert_iterator<std::__ndk1::basic_string<char, std::__ndk1::char_traits<char>, std::__ndk1::allocator<char> > >, char const*, std::__ndk1::regex_traits<char>, char>(std::__ndk1::regex_traits<char>, char const*, std::__ndk1::back_insert_iterator<std::__ndk1::basic_string<char, std::__ndk1::char_traits<char>, std::__ndk1::allocator<char> > >, std::__ndk1::basic_regex<char, std::__ndk1::regex_traits<char> > const&, std::__ndk1::basic_regex const*, std::__ndk1::regex_constants::match_flag_type)
PUBLIC 71cf8 0 std::__ndk1::match_results<char const*, std::__ndk1::allocator<std::__ndk1::sub_match<char const*> > >::format<std::__ndk1::back_insert_iterator<std::__ndk1::basic_string<char, std::__ndk1::char_traits<char>, std::__ndk1::allocator<char> > > >(std::__ndk1::back_insert_iterator<std::__ndk1::basic_string<char, std::__ndk1::char_traits<char>, std::__ndk1::allocator<char> > >, char const*, char const*, std::__ndk1::regex_constants::match_flag_type) const
PUBLIC 720cc 0 std::__ndk1::regex_iterator<char const*, char, std::__ndk1::regex_traits<char> >::operator++()
PUBLIC 721b0 0 std::__ndk1::basic_regex<char, std::__ndk1::regex_traits<char> >::__parse<char const*>(char const*, char const*)
PUBLIC 725f8 0 std::__ndk1::basic_regex<char, std::__ndk1::regex_traits<char> >::__parse_ecma_exp<char const*>(char const*, char const*)
PUBLIC 72860 0 std::__ndk1::basic_regex<char, std::__ndk1::regex_traits<char> >::__parse_basic_reg_exp<char const*>(char const*, char const*)
PUBLIC 729e0 0 std::__ndk1::basic_regex<char, std::__ndk1::regex_traits<char> >::__parse_extended_reg_exp<char const*>(char const*, char const*)
PUBLIC 72b50 0 std::__ndk1::basic_regex<char, std::__ndk1::regex_traits<char> >::__parse_grep<char const*>(char const*, char const*)
PUBLIC 72d24 0 std::__ndk1::basic_regex<char, std::__ndk1::regex_traits<char> >::__parse_egrep<char const*>(char const*, char const*)
PUBLIC 72ef8 0 std::__ndk1::basic_regex<char, std::__ndk1::regex_traits<char> >::__parse_assertion<char const*>(char const*, char const*)
PUBLIC 73208 0 std::__ndk1::basic_regex<char, std::__ndk1::regex_traits<char> >::__parse_atom<char const*>(char const*, char const*)
PUBLIC 73478 0 std::__ndk1::basic_regex<char, std::__ndk1::regex_traits<char> >::__parse_ERE_dupl_symbol<char const*>(char const*, char const*, std::__ndk1::__owns_one_state<char>*, unsigned int, unsigned int)
PUBLIC 7386c 0 std::__ndk1::basic_regex<char, std::__ndk1::regex_traits<char> >::__parse_atom_escape<char const*>(char const*, char const*)
PUBLIC 739e0 0 std::__ndk1::basic_regex<char, std::__ndk1::regex_traits<char> >::__parse_bracket_expression<char const*>(char const*, char const*)
PUBLIC 73b30 0 std::__ndk1::basic_regex<char, std::__ndk1::regex_traits<char> >::__parse_pattern_character<char const*>(char const*, char const*)
PUBLIC 73b98 0 std::__ndk1::basic_regex<char, std::__ndk1::regex_traits<char> >::__parse_character_class_escape<char const*>(char const*, char const*)
PUBLIC 73d98 0 std::__ndk1::basic_regex<char, std::__ndk1::regex_traits<char> >::__parse_character_escape<char const*>(char const*, char const*, std::__ndk1::basic_string<char, std::__ndk1::char_traits<char>, std::__ndk1::allocator<char> >*)
PUBLIC 7426c 0 std::__ndk1::basic_regex<char, std::__ndk1::regex_traits<char> >::__parse_expression_term<char const*>(char const*, char const*, std::__ndk1::__bracket_expression<char, std::__ndk1::regex_traits<char> >*)
PUBLIC 74898 0 std::__ndk1::basic_regex<char, std::__ndk1::regex_traits<char> >::__parse_equivalence_class<char const*>(char const*, char const*, std::__ndk1::__bracket_expression<char, std::__ndk1::regex_traits<char> >*)
PUBLIC 74bd8 0 std::__ndk1::basic_regex<char, std::__ndk1::regex_traits<char> >::__parse_collating_symbol<char const*>(char const*, char const*, std::__ndk1::basic_string<char, std::__ndk1::char_traits<char>, std::__ndk1::allocator<char> >&)
PUBLIC 74d14 0 std::__ndk1::basic_regex<char, std::__ndk1::regex_traits<char> >::__parse_class_escape<char const*>(char const*, char const*, std::__ndk1::basic_string<char, std::__ndk1::char_traits<char>, std::__ndk1::allocator<char> >&, std::__ndk1::__bracket_expression<char, std::__ndk1::regex_traits<char> >*)
PUBLIC 74eb0 0 std::__ndk1::basic_regex<char, std::__ndk1::regex_traits<char> >::__parse_awk_escape<char const*>(char const*, char const*, std::__ndk1::basic_string<char, std::__ndk1::char_traits<char>, std::__ndk1::allocator<char> >*)
PUBLIC 752c4 0 std::__ndk1::regex_traits<char>::__lookup_collatename<char const*>(char const*, char const*, char) const
PUBLIC 7553c 0 std::__ndk1::regex_traits<char>::__lookup_classname<char const*>(char const*, char const*, bool, char) const
PUBLIC 756b8 0 std::__ndk1::basic_regex<char, std::__ndk1::regex_traits<char> >::__parse_nondupl_RE<char const*>(char const*, char const*)
PUBLIC 758f0 0 std::__ndk1::basic_regex<char, std::__ndk1::regex_traits<char> >::__parse_RE_dupl_symbol<char const*>(char const*, char const*, std::__ndk1::__owns_one_state<char>*, unsigned int, unsigned int)
PUBLIC 75b70 0 std::__ndk1::basic_regex<char, std::__ndk1::regex_traits<char> >::__parse_one_char_or_coll_elem_RE<char const*>(char const*, char const*)
PUBLIC 75ca4 0 std::__ndk1::basic_regex<char, std::__ndk1::regex_traits<char> >::__parse_ERE_expression<char const*>(char const*, char const*)
PUBLIC 75f20 0 std::__ndk1::basic_regex<char, std::__ndk1::regex_traits<char> >::__parse_ORD_CHAR_ERE<char const*>(char const*, char const*)
PUBLIC 75f90 0 std::__ndk1::basic_regex<char, std::__ndk1::regex_traits<char> >::__parse_QUOTED_CHAR_ERE<char const*>(char const*, char const*)
PUBLIC 7604c 0 std::__ndk1::__function::__func<LevelPageExt::editLevel(cocos2d::CCObject*)::{lambda()#1}, std::__ndk1::allocator<LevelPageExt::editLevel(cocos2d::CCObject*)::{lambda()#1}>, void ()>::~__func()
PUBLIC 76050 0 std::__ndk1::__function::__func<LevelPageExt::editLevel(cocos2d::CCObject*)::{lambda()#1}, std::__ndk1::allocator<LevelPageExt::editLevel(cocos2d::CCObject*)::{lambda()#1}>, void ()>::__clone() const
PUBLIC 76084 0 std::__ndk1::__function::__func<LevelPageExt::editLevel(cocos2d::CCObject*)::{lambda()#1}, std::__ndk1::allocator<LevelPageExt::editLevel(cocos2d::CCObject*)::{lambda()#1}>, void ()>::__clone(std::__ndk1::__function::__base<void ()>*) const
PUBLIC 76098 0 std::__ndk1::__function::__func<LevelPageExt::editLevel(cocos2d::CCObject*)::{lambda()#1}, std::__ndk1::allocator<LevelPageExt::editLevel(cocos2d::CCObject*)::{lambda()#1}>, void ()>::destroy()
PUBLIC 7609c 0 std::__ndk1::__function::__func<LevelPageExt::editLevel(cocos2d::CCObject*)::{lambda()#1}, std::__ndk1::allocator<LevelPageExt::editLevel(cocos2d::CCObject*)::{lambda()#1}>, void ()>::destroy_deallocate()
PUBLIC 760a0 0 std::__ndk1::__function::__func<LevelPageExt::editLevel(cocos2d::CCObject*)::{lambda()#1}, std::__ndk1::allocator<LevelPageExt::editLevel(cocos2d::CCObject*)::{lambda()#1}>, void ()>::operator()()
PUBLIC 760fc 0 std::__ndk1::__function::__func<LevelPageExt::editLevel(cocos2d::CCObject*)::{lambda()#1}, std::__ndk1::allocator<LevelPageExt::editLevel(cocos2d::CCObject*)::{lambda()#1}>, void ()>::target(std::type_info const&) const
PUBLIC 76118 0 std::__ndk1::__function::__func<LevelPageExt::editLevel(cocos2d::CCObject*)::{lambda()#1}, std::__ndk1::allocator<LevelPageExt::editLevel(cocos2d::CCObject*)::{lambda()#1}>, void ()>::target_type() const
PUBLIC 76124 0 std::__ndk1::__function::__value_func<void ()>::swap[abi:v170000](std::__ndk1::__function::__value_func<void ()>&)
PUBLIC 762bc 0 geode::modifier::ModifyDerive<SongInfoLayerExt, FLAlertLayer>::apply()
PUBLIC 76630 0 geode::modifier::ModifyBase<geode::modifier::ModifyDerive<SongInfoLayerExt, FLAlertLayer> >::apply()
PUBLIC 76634 0 geode::modifier::AsStaticFunction_show<SongInfoLayerExt, void (SongInfoLayerExt::*)()>::Impl<void (SongInfoLayerExt::*)()>::function(SongInfoLayerExt*)
PUBLIC 766a0 0 geode::addresser::Addresser::addressOfVirtual<void, FLAlertLayer, >(void (FLAlertLayer::*)())
PUBLIC 767b8 0 SongInfoLayerExt::songInfoLayerSetupSch(float)
PUBLIC 76aa8 0 SongInfoLayerExt::onConfigureSong(cocos2d::CCObject*)
PUBLIC 776bc 0 SongInfoLayerExt::onCopySong(cocos2d::CCObject*)
PUBLIC 7888c 0 mle_audiotools::Audio::operator=(mle_audiotools::Audio&&)
PUBLIC 789b4 0 mle_ui::AudioConfigPopup::~AudioConfigPopup()
PUBLIC 78b00 0 mle_ui::AudioConfigPopup::~AudioConfigPopup()
PUBLIC 78c54 0 mle_ui::AudioConfigPopup::textChanged(CCTextInputNode*)
PUBLIC 79254 0 mle_ui::AudioConfigPopup::FLAlert_Clicked(FLAlertLayer*, bool)
PUBLIC 79abc 0 {virtual override thunk({offset(-320)}, mle_ui::AudioConfigPopup::~AudioConfigPopup())}
PUBLIC 79c08 0 {virtual override thunk({offset(-320)}, mle_ui::AudioConfigPopup::~AudioConfigPopup())}
PUBLIC 79c10 0 {virtual override thunk({offset(-632)}, mle_ui::AudioConfigPopup::FLAlert_Clicked(FLAlertLayer*, bool))}
PUBLIC 79c18 0 {virtual override thunk({offset(-640)}, mle_ui::AudioConfigPopup::textChanged(CCTextInputNode*))}
PUBLIC 79c20 0 std::__ndk1::__function::__func<mle_ui::AudioConfigPopup::m_onSave::{lambda()#1}, std::__ndk1::allocator<mle_ui::AudioConfigPopup::m_onSave::{lambda()#1}>, void ()>::~__func()
PUBLIC 79c24 0 std::__ndk1::__function::__func<mle_ui::AudioConfigPopup::m_onSave::{lambda()#1}, std::__ndk1::allocator<mle_ui::AudioConfigPopup::m_onSave::{lambda()#1}>, void ()>::__clone() const
PUBLIC 79c48 0 std::__ndk1::__function::__func<mle_ui::AudioConfigPopup::m_onSave::{lambda()#1}, std::__ndk1::allocator<mle_ui::AudioConfigPopup::m_onSave::{lambda()#1}>, void ()>::__clone(std::__ndk1::__function::__base<void ()>*) const
PUBLIC 79c58 0 std::__ndk1::__function::__func<mle_ui::AudioConfigPopup::m_onSave::{lambda()#1}, std::__ndk1::allocator<mle_ui::AudioConfigPopup::m_onSave::{lambda()#1}>, void ()>::destroy()
PUBLIC 79c5c 0 std::__ndk1::__function::__func<mle_ui::AudioConfigPopup::m_onSave::{lambda()#1}, std::__ndk1::allocator<mle_ui::AudioConfigPopup::m_onSave::{lambda()#1}>, void ()>::destroy_deallocate()
PUBLIC 79c60 0 std::__ndk1::__function::__func<mle_ui::AudioConfigPopup::m_onSave::{lambda()#1}, std::__ndk1::allocator<mle_ui::AudioConfigPopup::m_onSave::{lambda()#1}>, void ()>::operator()()
PUBLIC 79c64 0 std::__ndk1::__function::__func<mle_ui::AudioConfigPopup::m_onSave::{lambda()#1}, std::__ndk1::allocator<mle_ui::AudioConfigPopup::m_onSave::{lambda()#1}>, void ()>::target(std::type_info const&) const
PUBLIC 79c80 0 std::__ndk1::__function::__func<mle_ui::AudioConfigPopup::m_onSave::{lambda()#1}, std::__ndk1::allocator<mle_ui::AudioConfigPopup::m_onSave::{lambda()#1}>, void ()>::target_type() const
PUBLIC m 79c8c 0 mle_ui::AudioConfigPopup::onBrowseArtists(cocos2d::CCObject*)
PUBLIC 79ce0 0 mle_ui::ArtistsLayer::create()
PUBLIC 7acb8 0 mle_ui::ArtistsLayer::addArtistsCell(int, bool&, CCContentLayer*)
PUBLIC m 7b510 0 mle_ui::ArtistsLayer::onNew(cocos2d::CCObject*)
PUBLIC 7b69c 0 mle_ui::ArtistsLayer::~ArtistsLayer()
PUBLIC 7b6c0 0 mle_ui::ArtistsLayer::scrollViewDidEndMoving(CCScrollLayerExt*)
PUBLIC 7b714 0 {virtual override thunk({offset(-320)}, mle_ui::ArtistsLayer::~ArtistsLayer())}
PUBLIC 7b71c 0 {virtual override thunk({offset(-320)}, mle_ui::ArtistsLayer::~ArtistsLayer())}
PUBLIC 7b744 0 {virtual override thunk({offset(-608)}, mle_ui::ArtistsLayer::scrollViewDidEndMoving(CCScrollLayerExt*))}
PUBLIC 7b798 0 std::__ndk1::__tree<std::__ndk1::__fs::filesystem::path, mle_ui::ArtistsLayer::FileNumbericSort, std::__ndk1::allocator<std::__ndk1::__fs::filesystem::path> >::__emplace_unique_key_args<std::__ndk1::__fs::filesystem::path, std::__ndk1::__fs::filesystem::path const&>(std::__ndk1::__fs::filesystem::path const&, std::__ndk1::__fs::filesystem::path const&)
PUBLIC 7b918 0 mle_ui::ArtistsLayer::FileNumbericSort::operator()(std::__ndk1::__fs::filesystem::path const&, std::__ndk1::__fs::filesystem::path const&) const
PUBLIC 7c854 0 mle_audiotools::Artist::Artist(int, bool)
PUBLIC m 7ccb4 0 mle_ui::ArtistsLayer::onView(cocos2d::CCObject*)
PUBLIC 7cd78 0 mle_audiotools::Artist::~Artist()
PUBLIC 7cde4 0 mle_audiotools::Artist::updateFromFile(mle_audiotools::Artist*)
PUBLIC 7d784 0 mle_audiotools::Artist::resetJson()
PUBLIC 7da84 0 mle_ui::ArtistsConfigPopup::create(int)
PUBLIC 7dd60 0 mle_audiotools::Artist::operator=(mle_audiotools::Artist&&)
PUBLIC 7de88 0 mle_ui::ArtistsConfigPopup::customSetup()
PUBLIC 7e118 0 mle_ui::ArtistsConfigPopup::~ArtistsConfigPopup()
PUBLIC 7e264 0 mle_ui::ArtistsConfigPopup::~ArtistsConfigPopup()
PUBLIC 7e3b8 0 mle_ui::ArtistsConfigPopup::FLAlert_Clicked(FLAlertLayer*, bool)
PUBLIC 7e6ac 0 {virtual override thunk({offset(-320)}, mle_ui::ArtistsConfigPopup::~ArtistsConfigPopup())}
PUBLIC 7e7f8 0 {virtual override thunk({offset(-320)}, mle_ui::ArtistsConfigPopup::~ArtistsConfigPopup())}
PUBLIC 7e800 0 {virtual override thunk({offset(-632)}, mle_ui::ArtistsConfigPopup::FLAlert_Clicked(FLAlertLayer*, bool))}
PUBLIC 7e808 0 std::__ndk1::__function::__func<mle_ui::ArtistsConfigPopup::m_onSave::{lambda()#1}, std::__ndk1::allocator<mle_ui::ArtistsConfigPopup::m_onSave::{lambda()#1}>, void ()>::~__func()
PUBLIC 7e80c 0 std::__ndk1::__function::__func<mle_ui::ArtistsConfigPopup::m_onSave::{lambda()#1}, std::__ndk1::allocator<mle_ui::ArtistsConfigPopup::m_onSave::{lambda()#1}>, void ()>::__clone() const
PUBLIC 7e830 0 std::__ndk1::__function::__func<mle_ui::ArtistsConfigPopup::m_onSave::{lambda()#1}, std::__ndk1::allocator<mle_ui::ArtistsConfigPopup::m_onSave::{lambda()#1}>, void ()>::__clone(std::__ndk1::__function::__base<void ()>*) const
PUBLIC 7e840 0 std::__ndk1::__function::__func<mle_ui::ArtistsConfigPopup::m_onSave::{lambda()#1}, std::__ndk1::allocator<mle_ui::ArtistsConfigPopup::m_onSave::{lambda()#1}>, void ()>::destroy()
PUBLIC 7e844 0 std::__ndk1::__function::__func<mle_ui::ArtistsConfigPopup::m_onSave::{lambda()#1}, std::__ndk1::allocator<mle_ui::ArtistsConfigPopup::m_onSave::{lambda()#1}>, void ()>::destroy_deallocate()
PUBLIC 7e848 0 std::__ndk1::__function::__func<mle_ui::ArtistsConfigPopup::m_onSave::{lambda()#1}, std::__ndk1::allocator<mle_ui::ArtistsConfigPopup::m_onSave::{lambda()#1}>, void ()>::operator()()
PUBLIC 7e84c 0 std::__ndk1::__function::__func<mle_ui::ArtistsConfigPopup::m_onSave::{lambda()#1}, std::__ndk1::allocator<mle_ui::ArtistsConfigPopup::m_onSave::{lambda()#1}>, void ()>::target(std::type_info const&) const
PUBLIC 7e868 0 std::__ndk1::__function::__func<mle_ui::ArtistsConfigPopup::m_onSave::{lambda()#1}, std::__ndk1::allocator<mle_ui::ArtistsConfigPopup::m_onSave::{lambda()#1}>, void ()>::target_type() const
PUBLIC 7e874 0 mle_ui::ArtistsConfigPopup::applyInputs()
PUBLIC 7eb24 0 mle_ui::ArtistsConfigPopup::customSetup()::{lambda(auto:1, auto:2, geode::CommonFilter(auto:1, auto:2, geode::CommonFilter))#1}::operator()<char const*, char const*> const
PUBLIC 7ee74 0 mle_ui::ArtistsConfigPopup::loadInputs()
PUBLIC m 7f3f4 0 mle_ui::ArtistsConfigPopup::onDelete(cocos2d::CCObject*)
PUBLIC 7f60c 0 std::__ndk1::__function::__base<void ()>::~__base()
PUBLIC 7f610 0 std::__ndk1::__function::__func<mle_ui::ArtistsLayer::onView(cocos2d::CCObject*)::{lambda()#1}, std::__ndk1::allocator<mle_ui::ArtistsLayer::onView(cocos2d::CCObject*)::{lambda()#1}>, void ()>::~__func()
PUBLIC 7f614 0 std::__ndk1::__function::__func<mle_ui::ArtistsLayer::onView(cocos2d::CCObject*)::{lambda()#1}, std::__ndk1::allocator<mle_ui::ArtistsLayer::onView(cocos2d::CCObject*)::{lambda()#1}>, void ()>::__clone() const
PUBLIC 7f648 0 std::__ndk1::__function::__func<mle_ui::ArtistsLayer::onView(cocos2d::CCObject*)::{lambda()#1}, std::__ndk1::allocator<mle_ui::ArtistsLayer::onView(cocos2d::CCObject*)::{lambda()#1}>, void ()>::__clone(std::__ndk1::__function::__base<void ()>*) const
PUBLIC 7f65c 0 std::__ndk1::__function::__func<mle_ui::ArtistsLayer::onView(cocos2d::CCObject*)::{lambda()#1}, std::__ndk1::allocator<mle_ui::ArtistsLayer::onView(cocos2d::CCObject*)::{lambda()#1}>, void ()>::destroy()
PUBLIC 7f660 0 std::__ndk1::__function::__func<mle_ui::ArtistsLayer::onView(cocos2d::CCObject*)::{lambda()#1}, std::__ndk1::allocator<mle_ui::ArtistsLayer::onView(cocos2d::CCObject*)::{lambda()#1}>, void ()>::destroy_deallocate()
PUBLIC 7f664 0 std::__ndk1::__function::__func<mle_ui::ArtistsLayer::onView(cocos2d::CCObject*)::{lambda()#1}, std::__ndk1::allocator<mle_ui::ArtistsLayer::onView(cocos2d::CCObject*)::{lambda()#1}>, void ()>::operator()()
PUBLIC 7f6d0 0 std::__ndk1::__function::__func<mle_ui::ArtistsLayer::onView(cocos2d::CCObject*)::{lambda()#1}, std::__ndk1::allocator<mle_ui::ArtistsLayer::onView(cocos2d::CCObject*)::{lambda()#1}>, void ()>::target(std::type_info const&) const
PUBLIC 7f6ec 0 std::__ndk1::__function::__func<mle_ui::ArtistsLayer::onView(cocos2d::CCObject*)::{lambda()#1}, std::__ndk1::allocator<mle_ui::ArtistsLayer::onView(cocos2d::CCObject*)::{lambda()#1}>, void ()>::target_type() const
PUBLIC 7f6f8 0 std::__ndk1::__tree<std::__ndk1::__fs::filesystem::path, mle_ui::ArtistsLayer::FileNumbericSort, std::__ndk1::allocator<std::__ndk1::__fs::filesystem::path> >::destroy(std::__ndk1::__tree_node<std::__ndk1::__fs::filesystem::path, void*>*)
PUBLIC 7f748 0 mle_ui::AudioConfigPopup::customSetup()::{lambda(auto:1, auto:2, geode::CommonFilter(auto:1, auto:2, geode::CommonFilter))#1}::operator()<char const*, char const*> const
PUBLIC m 7fa98 0 mle_ui::AudioConfigPopup::onPlayMusic(cocos2d::CCObject*)
PUBLIC 7fc1c 0 std::__ndk1::__function::__func<SongInfoLayerExt::onConfigureSong(cocos2d::CCObject*)::{lambda()#1}, std::__ndk1::allocator<SongInfoLayerExt::onConfigureSong(cocos2d::CCObject*)::{lambda()#1}>, void ()>::~__func()
PUBLIC 7fc20 0 std::__ndk1::__function::__func<SongInfoLayerExt::onConfigureSong(cocos2d::CCObject*)::{lambda()#1}, std::__ndk1::allocator<SongInfoLayerExt::onConfigureSong(cocos2d::CCObject*)::{lambda()#1}>, void ()>::__clone() const
PUBLIC 7fc58 0 std::__ndk1::__function::__func<SongInfoLayerExt::onConfigureSong(cocos2d::CCObject*)::{lambda()#1}, std::__ndk1::allocator<SongInfoLayerExt::onConfigureSong(cocos2d::CCObject*)::{lambda()#1}>, void ()>::__clone(std::__ndk1::__function::__base<void ()>*) const
PUBLIC 7fc70 0 std::__ndk1::__function::__func<SongInfoLayerExt::onConfigureSong(cocos2d::CCObject*)::{lambda()#1}, std::__ndk1::allocator<SongInfoLayerExt::onConfigureSong(cocos2d::CCObject*)::{lambda()#1}>, void ()>::destroy()
PUBLIC 7fc74 0 std::__ndk1::__function::__func<SongInfoLayerExt::onConfigureSong(cocos2d::CCObject*)::{lambda()#1}, std::__ndk1::allocator<SongInfoLayerExt::onConfigureSong(cocos2d::CCObject*)::{lambda()#1}>, void ()>::destroy_deallocate()
PUBLIC 7fc78 0 std::__ndk1::__function::__func<SongInfoLayerExt::onConfigureSong(cocos2d::CCObject*)::{lambda()#1}, std::__ndk1::allocator<SongInfoLayerExt::onConfigureSong(cocos2d::CCObject*)::{lambda()#1}>, void ()>::operator()()
PUBLIC 7fee0 0 std::__ndk1::__function::__func<SongInfoLayerExt::onConfigureSong(cocos2d::CCObject*)::{lambda()#1}, std::__ndk1::allocator<SongInfoLayerExt::onConfigureSong(cocos2d::CCObject*)::{lambda()#1}>, void ()>::target(std::type_info const&) const
PUBLIC 7fefc 0 std::__ndk1::__function::__func<SongInfoLayerExt::onConfigureSong(cocos2d::CCObject*)::{lambda()#1}, std::__ndk1::allocator<SongInfoLayerExt::onConfigureSong(cocos2d::CCObject*)::{lambda()#1}>, void ()>::target_type() const
PUBLIC 7ff08 0 mle_audiotools::Audio::openInfoLayer()
PUBLIC 80150 0 geode::cocos::findFirstChildRecursive<SongsLayer>(cocos2d::CCNode*, geode::utils::MiniFunction<bool (SongsLayer*)>)
PUBLIC 80328 0 geode::cocos::findFirstChildRecursive<CustomListView>(cocos2d::CCNode*, geode::utils::MiniFunction<bool (CustomListView*)>)
PUBLIC m 804fc 0 geode::utils::terminate<void>(std::__ndk1::basic_string<char, std::__ndk1::char_traits<char>, std::__ndk1::allocator<char> > const&, geode::Mod*, unsigned long)
PUBLIC 8051c 0 geode::utils::MiniFunctionState<SongInfoLayerExt::onConfigureSong(cocos2d::CCObject*)::{lambda()#1}::operator()() const::{lambda(auto:1)#1}, bool, SongsLayer*>::~MiniFunctionState()
PUBLIC 80520 0 geode::utils::MiniFunctionState<SongInfoLayerExt::onConfigureSong(cocos2d::CCObject*)::{lambda()#1}::operator()() const::{lambda(auto:1)#1}, bool, SongsLayer*>::call(SongsLayer*) const
PUBLIC 80528 0 geode::utils::MiniFunctionState<SongInfoLayerExt::onConfigureSong(cocos2d::CCObject*)::{lambda()#1}::operator()() const::{lambda(auto:1)#1}, bool, SongsLayer*>::clone() const
PUBLIC 8054c 0 geode::utils::MiniFunctionStateBase<bool, SongsLayer*>::~MiniFunctionStateBase()
PUBLIC 80550 0 geode::utils::MiniFunctionState<SongInfoLayerExt::onConfigureSong(cocos2d::CCObject*)::{lambda()#1}::operator()() const::{lambda(auto:1)#2}, bool, CustomListView*>::~MiniFunctionState()
PUBLIC 80554 0 geode::utils::MiniFunctionState<SongInfoLayerExt::onConfigureSong(cocos2d::CCObject*)::{lambda()#1}::operator()() const::{lambda(auto:1)#2}, bool, CustomListView*>::call(CustomListView*) const
PUBLIC 8055c 0 geode::utils::MiniFunctionState<SongInfoLayerExt::onConfigureSong(cocos2d::CCObject*)::{lambda()#1}::operator()() const::{lambda(auto:1)#2}, bool, CustomListView*>::clone() const
PUBLIC 80580 0 geode::utils::MiniFunctionStateBase<bool, CustomListView*>::~MiniFunctionStateBase()
PUBLIC 80584 0 mle_ui::CopyAudioPopup::~CopyAudioPopup()
PUBLIC 80738 0 mle_ui::CopyAudioPopup::~CopyAudioPopup()
PUBLIC 8075c 0 mle_ui::CopyAudioPopup::FLAlert_Clicked(FLAlertLayer*, bool)
PUBLIC 81224 0 {virtual override thunk({offset(-320)}, mle_ui::CopyAudioPopup::~CopyAudioPopup())}
PUBLIC 8122c 0 {virtual override thunk({offset(-320)}, mle_ui::CopyAudioPopup::~CopyAudioPopup())}
PUBLIC 81254 0 {virtual override thunk({offset(-632)}, mle_ui::CopyAudioPopup::FLAlert_Clicked(FLAlertLayer*, bool))}
PUBLIC 8125c 0 std::__ndk1::__function::__func<mle_ui::CopyAudioPopup::m_onSave::{lambda()#1}, std::__ndk1::allocator<mle_ui::CopyAudioPopup::m_onSave::{lambda()#1}>, void ()>::~__func()
PUBLIC 81260 0 std::__ndk1::__function::__func<mle_ui::CopyAudioPopup::m_onSave::{lambda()#1}, std::__ndk1::allocator<mle_ui::CopyAudioPopup::m_onSave::{lambda()#1}>, void ()>::__clone() const
PUBLIC 81284 0 std::__ndk1::__function::__func<mle_ui::CopyAudioPopup::m_onSave::{lambda()#1}, std::__ndk1::allocator<mle_ui::CopyAudioPopup::m_onSave::{lambda()#1}>, void ()>::__clone(std::__ndk1::__function::__base<void ()>*) const
PUBLIC 81294 0 std::__ndk1::__function::__func<mle_ui::CopyAudioPopup::m_onSave::{lambda()#1}, std::__ndk1::allocator<mle_ui::CopyAudioPopup::m_onSave::{lambda()#1}>, void ()>::destroy()
PUBLIC 81298 0 std::__ndk1::__function::__func<mle_ui::CopyAudioPopup::m_onSave::{lambda()#1}, std::__ndk1::allocator<mle_ui::CopyAudioPopup::m_onSave::{lambda()#1}>, void ()>::destroy_deallocate()
PUBLIC 8129c 0 std::__ndk1::__function::__func<mle_ui::CopyAudioPopup::m_onSave::{lambda()#1}, std::__ndk1::allocator<mle_ui::CopyAudioPopup::m_onSave::{lambda()#1}>, void ()>::operator()()
PUBLIC 812a0 0 std::__ndk1::__function::__func<mle_ui::CopyAudioPopup::m_onSave::{lambda()#1}, std::__ndk1::allocator<mle_ui::CopyAudioPopup::m_onSave::{lambda()#1}>, void ()>::target(std::type_info const&) const
PUBLIC 812bc 0 std::__ndk1::__function::__func<mle_ui::CopyAudioPopup::m_onSave::{lambda()#1}, std::__ndk1::allocator<mle_ui::CopyAudioPopup::m_onSave::{lambda()#1}>, void ()>::target_type() const
PUBLIC 812c8 0 geode::cocos::CCMenuItemExt::assignCallback<CCMenuItemSpriteExtra>(cocos2d::CCMenuItem*, geode::utils::MiniFunction<void (CCMenuItemSpriteExtra*)>&&)
PUBLIC m 81408 0 geode::cocos::CCMenuItemExt::LambdaCallback<CCMenuItemSpriteExtra>::execute(cocos2d::CCNode*)
PUBLIC 814f4 0 geode::cocos::CCMenuItemExt::LambdaCallback<CCMenuItemSpriteExtra>::~LambdaCallback()
PUBLIC 81534 0 geode::cocos::CCMenuItemExt::LambdaCallback<CCMenuItemSpriteExtra>::~LambdaCallback()
PUBLIC 8157c 0 cocos2d::CCObject::update(float)
PUBLIC 81580 0 geode::utils::MiniFunctionState<mle_ui::CopyAudioPopup::customSetup()::{lambda(auto:1)#1}, void, CCMenuItemSpriteExtra*>::~MiniFunctionState()
PUBLIC 81584 0 geode::utils::MiniFunctionState<mle_ui::CopyAudioPopup::customSetup()::{lambda(auto:1)#1}, void, CCMenuItemSpriteExtra*>::call(CCMenuItemSpriteExtra*) const
PUBLIC 815a0 0 geode::utils::MiniFunctionState<mle_ui::CopyAudioPopup::customSetup()::{lambda(auto:1)#1}, void, CCMenuItemSpriteExtra*>::clone() const
PUBLIC 815c4 0 geode::utils::MiniFunctionStateBase<void, CCMenuItemSpriteExtra*>::~MiniFunctionStateBase()
PUBLIC 815c8 0 geode::utils::MiniFunctionState<mle_ui::CopyAudioPopup::customSetup()::{lambda(auto:1)#2}, void, CCMenuItemSpriteExtra*>::~MiniFunctionState()
PUBLIC 815cc 0 geode::utils::MiniFunctionState<mle_ui::CopyAudioPopup::customSetup()::{lambda(auto:1)#2}, void, CCMenuItemSpriteExtra*>::call(CCMenuItemSpriteExtra*) const
PUBLIC 81608 0 geode::utils::MiniFunctionState<mle_ui::CopyAudioPopup::customSetup()::{lambda(auto:1)#2}, void, CCMenuItemSpriteExtra*>::clone() const
PUBLIC 8162c 0 geode::modifier::ModifyDerive<PauseLayerExt, PauseLayer>::apply()
PUBLIC 819b8 0 geode::modifier::ModifyBase<geode::modifier::ModifyDerive<PauseLayerExt, PauseLayer> >::apply()
PUBLIC 819bc 0 geode::modifier::AsStaticFunction_customSetup<PauseLayerExt, void (PauseLayerExt::*)()>::Impl<void (PauseLayerExt::*)()>::function(PauseLayerExt*)
PUBLIC 81b94 0 geode::addresser::Addresser::addressOfVirtual<void, PauseLayer, >(void (PauseLayer::*)())
PUBLIC 81c8c 0 PauseLayerExt::copyLevel(cocos2d::CCObject*)
PUBLIC 82504 0 mle_ui::CopyLevelPopup::~CopyLevelPopup()
PUBLIC 825f8 0 mle_ui::CopyLevelPopup::~CopyLevelPopup()
PUBLIC 826f4 0 mle_ui::CopyLevelPopup::FLAlert_Clicked(FLAlertLayer*, bool)
PUBLIC 827b8 0 {virtual override thunk({offset(-320)}, mle_ui::CopyLevelPopup::~CopyLevelPopup())}
PUBLIC 828ac 0 {virtual override thunk({offset(-320)}, mle_ui::CopyLevelPopup::~CopyLevelPopup())}
PUBLIC 829a8 0 {virtual override thunk({offset(-632)}, mle_ui::CopyLevelPopup::FLAlert_Clicked(FLAlertLayer*, bool))}
PUBLIC 82a70 0 std::__ndk1::__function::__func<mle_ui::CopyLevelPopup::m_onSave::{lambda()#1}, std::__ndk1::allocator<mle_ui::CopyLevelPopup::m_onSave::{lambda()#1}>, void ()>::~__func()
PUBLIC 82a74 0 std::__ndk1::__function::__func<mle_ui::CopyLevelPopup::m_onSave::{lambda()#1}, std::__ndk1::allocator<mle_ui::CopyLevelPopup::m_onSave::{lambda()#1}>, void ()>::__clone() const
PUBLIC 82a98 0 std::__ndk1::__function::__func<mle_ui::CopyLevelPopup::m_onSave::{lambda()#1}, std::__ndk1::allocator<mle_ui::CopyLevelPopup::m_onSave::{lambda()#1}>, void ()>::__clone(std::__ndk1::__function::__base<void ()>*) const
PUBLIC 82aa8 0 std::__ndk1::__function::__func<mle_ui::CopyLevelPopup::m_onSave::{lambda()#1}, std::__ndk1::allocator<mle_ui::CopyLevelPopup::m_onSave::{lambda()#1}>, void ()>::destroy()
PUBLIC 82aac 0 std::__ndk1::__function::__func<mle_ui::CopyLevelPopup::m_onSave::{lambda()#1}, std::__ndk1::allocator<mle_ui::CopyLevelPopup::m_onSave::{lambda()#1}>, void ()>::destroy_deallocate()
PUBLIC 82ab0 0 std::__ndk1::__function::__func<mle_ui::CopyLevelPopup::m_onSave::{lambda()#1}, std::__ndk1::allocator<mle_ui::CopyLevelPopup::m_onSave::{lambda()#1}>, void ()>::operator()()
PUBLIC 82ab4 0 std::__ndk1::__function::__func<mle_ui::CopyLevelPopup::m_onSave::{lambda()#1}, std::__ndk1::allocator<mle_ui::CopyLevelPopup::m_onSave::{lambda()#1}>, void ()>::target(std::type_info const&) const
PUBLIC 82ad0 0 std::__ndk1::__function::__func<mle_ui::CopyLevelPopup::m_onSave::{lambda()#1}, std::__ndk1::allocator<mle_ui::CopyLevelPopup::m_onSave::{lambda()#1}>, void ()>::target_type() const
PUBLIC 82adc 0 mle_ui::CopyLevelPopup::applyInputs()
PUBLIC 82ec0 0 mle_leveltools::updateLevelDataAndMetaFiles(gd::string, GJGameLevel*)
PUBLIC 83448 0 mle_leveltools::replaceUserCoinsBySecretOnesInLevel(GJGameLevel*)
PUBLIC 835f8 0 geode::utils::MiniFunctionState<mle_ui::CopyLevelPopup::customSetup()::{lambda(auto:1)#1}, void, CCMenuItemSpriteExtra*>::~MiniFunctionState()
PUBLIC 835fc 0 geode::utils::MiniFunctionState<mle_ui::CopyLevelPopup::customSetup()::{lambda(auto:1)#1}, void, CCMenuItemSpriteExtra*>::call(CCMenuItemSpriteExtra*) const
PUBLIC 84b9c 0 geode::utils::MiniFunctionState<mle_ui::CopyLevelPopup::customSetup()::{lambda(auto:1)#1}, void, CCMenuItemSpriteExtra*>::clone() const
PUBLIC 84bc0 0 mle_ui::LevelsListMDPopup::~LevelsListMDPopup()
PUBLIC 84c3c 0 mle_ui::LevelsListMDPopup::scrollViewDidEndMoving(CCScrollLayerExt*)
PUBLIC 84c90 0 {virtual override thunk({offset(-320)}, mle_ui::LevelsListMDPopup::~LevelsListMDPopup())}
PUBLIC 84d04 0 {virtual override thunk({offset(-320)}, mle_ui::LevelsListMDPopup::~LevelsListMDPopup())}
PUBLIC 84d80 0 {virtual override thunk({offset(-640)}, mle_ui::LevelsListMDPopup::scrollViewDidEndMoving(CCScrollLayerExt*))}
PUBLIC 84dd4 0 mle_ui::LevelsListMDPopup::FileNumbericSort::operator()(std::__ndk1::__fs::filesystem::path const&, std::__ndk1::__fs::filesystem::path const&) const
PUBLIC 85d0c 0 std::__ndk1::__tree<std::__ndk1::__fs::filesystem::path, mle_ui::LevelsListMDPopup::FileNumbericSort, std::__ndk1::allocator<std::__ndk1::__fs::filesystem::path> >::destroy(std::__ndk1::__tree_node<std::__ndk1::__fs::filesystem::path, void*>*)
PUBLIC 85d54 0 geode::utils::MiniFunctionState<mle_ui::CopyLevelPopup::customSetup()::{lambda(auto:1)#2}, void, CCMenuItemSpriteExtra*>::~MiniFunctionState()
PUBLIC 85d58 0 geode::utils::MiniFunctionState<mle_ui::CopyLevelPopup::customSetup()::{lambda(auto:1)#2}, void, CCMenuItemSpriteExtra*>::call(CCMenuItemSpriteExtra*) const
PUBLIC 85d94 0 geode::utils::MiniFunctionState<mle_ui::CopyLevelPopup::customSetup()::{lambda(auto:1)#2}, void, CCMenuItemSpriteExtra*>::clone() const
PUBLIC 85db8 0 __cxx_global_var_init.14
PUBLIC 86360 0 geode::modifier::ModifyBase<geode::modifier::ModifyDerive<EditorPauseLayerExt, EditorPauseLayer> >::~ModifyBase()
PUBLIC 8637c 0 __cxx_global_var_init.15
PUBLIC 86924 0 geode::modifier::ModifyBase<geode::modifier::ModifyDerive<EditorUIExt, EditorUI> >::~ModifyBase()
PUBLIC 86940 0 __cxx_global_var_init.16
PUBLIC 86ee8 0 geode::modifier::ModifyBase<geode::modifier::ModifyDerive<LevelSettingsLayerExt, FLAlertLayer> >::~ModifyBase()
PUBLIC 86f04 0 geode::modifier::ModifyDerive<EditorPauseLayerExt, EditorPauseLayer>::apply()
PUBLIC 875b8 0 geode::modifier::ModifyBase<geode::modifier::ModifyDerive<EditorPauseLayerExt, EditorPauseLayer> >::apply()
PUBLIC 875bc 0 geode::modifier::AsStaticFunction_init<EditorPauseLayerExt, bool (EditorPauseLayerExt::*)(LevelEditorLayer*)>::Impl<bool (EditorPauseLayerExt::*)(LevelEditorLayer*)>::function(EditorPauseLayerExt*, LevelEditorLayer*)
PUBLIC 87908 0 geode::modifier::AsStaticFunction_saveLevel<EditorPauseLayerExt, void (EditorPauseLayerExt::*)()>::Impl<void (EditorPauseLayerExt::*)()>::function(EditorPauseLayerExt*)
PUBLIC 879fc 0 geode::cocos::findFirstChildRecursive<cocos2d::CCLabelBMFont>(cocos2d::CCNode*, geode::utils::MiniFunction<bool (cocos2d::CCLabelBMFont*)>)
PUBLIC 87bd0 0 geode::utils::MiniFunctionState<EditorPauseLayerExt::init(LevelEditorLayer*)::{lambda(auto:1)#1}, bool, cocos2d::CCLabelBMFont*>::~MiniFunctionState()
PUBLIC 87bd4 0 geode::utils::MiniFunctionState<EditorPauseLayerExt::init(LevelEditorLayer*)::{lambda(auto:1)#1}, bool, cocos2d::CCLabelBMFont*>::call(cocos2d::CCLabelBMFont*) const
PUBLIC 87bdc 0 geode::utils::MiniFunctionState<EditorPauseLayerExt::init(LevelEditorLayer*)::{lambda(auto:1)#1}, bool, cocos2d::CCLabelBMFont*>::clone() const
PUBLIC 87c00 0 geode::modifier::ModifyDerive<EditorUIExt, EditorUI>::apply()
PUBLIC 87fac 0 geode::modifier::ModifyBase<geode::modifier::ModifyDerive<EditorUIExt, EditorUI> >::apply()
PUBLIC 87fb0 0 geode::modifier::AsStaticFunction_init<EditorUIExt, bool (EditorUIExt::*)(LevelEditorLayer*)>::Impl<bool (EditorUIExt::*)(LevelEditorLayer*)>::function(EditorUIExt*, LevelEditorLayer*)
PUBLIC 880dc 0 EditorUIExt::customEditObjectSpecial(cocos2d::CCObject*)
PUBLIC 8828c 0 geode::modifier::FieldIntermediate<EditorUIExt, EditorUI>::self()
PUBLIC m 88414 0 geode::modifier::FieldContainer::getField(unsigned long)
PUBLIC m 88674 0 geode::modifier::FieldContainer::setField(unsigned long, unsigned long, geode::utils::MiniFunction<void (void*)>)
PUBLIC 88714 0 geode::modifier::FieldIntermediate<EditorUIExt, EditorUI>::fieldDestructor(void*)
PUBLIC 88718 0 std::__ndk1::vector<void*, std::__ndk1::allocator<void*> >::__throw_length_error[abi:v170000]() const
PUBLIC m 8872c 0 std::__ndk1::vector<geode::utils::MiniFunction<void (void*)>, std::__ndk1::allocator<geode::utils::MiniFunction<void (void*)> > >::__push_back_slow_path<geode::utils::MiniFunction<void (void*)> >(geode::utils::MiniFunction<void (void*)>&&)
PUBLIC 88958 0 std::__ndk1::__split_buffer<geode::utils::MiniFunction<void (void*)>, std::__ndk1::allocator<geode::utils::MiniFunction<void (void*)> >&>::~__split_buffer()
PUBLIC 889b4 0 std::__ndk1::vector<geode::utils::MiniFunction<void (void*)>, std::__ndk1::allocator<geode::utils::MiniFunction<void (void*)> > >::__throw_length_error[abi:v170000]() const
PUBLIC 889c8 0 std::__ndk1::vector<void*, std::__ndk1::allocator<void*> >::__throw_out_of_range[abi:v170000]() const
PUBLIC 889dc 0 std::__ndk1::vector<geode::utils::MiniFunction<void (void*)>, std::__ndk1::allocator<geode::utils::MiniFunction<void (void*)> > >::__throw_out_of_range[abi:v170000]() const
PUBLIC m 889f0 0 geode::utils::MiniFunctionStateBase<void, void*>::~MiniFunctionStateBase()
PUBLIC m 889f4 0 geode::utils::MiniFunctionState<void (*)(void*), void, void*>::~MiniFunctionState()
PUBLIC m 889f8 0 geode::utils::MiniFunctionState<void (*)(void*), void, void*>::call(void*) const
PUBLIC m 88a04 0 geode::utils::MiniFunctionState<void (*)(void*), void, void*>::clone() const
PUBLIC 88a3c 0 geode::modifier::ModifyDerive<LevelSettingsLayerExt, FLAlertLayer>::apply()
PUBLIC 88db0 0 geode::modifier::ModifyBase<geode::modifier::ModifyDerive<LevelSettingsLayerExt, FLAlertLayer> >::apply()
PUBLIC 88db4 0 geode::modifier::AsStaticFunction_show<LevelSettingsLayerExt, void (LevelSettingsLayerExt::*)()>::Impl<void (LevelSettingsLayerExt::*)()>::function(LevelSettingsLayerExt*)
PUBLIC 89e70 0 geode::cocos::findFirstChildRecursive<CCMenuItemSpriteExtra>(cocos2d::CCNode*, geode::utils::MiniFunction<bool (CCMenuItemSpriteExtra*)>)
PUBLIC 8a044 0 LevelSettingsLayerExt::audioIdFromLabel(cocos2d::CCLabelBMFont*)
PUBLIC 8a4c8 0 LevelSettingsLayerExt::updateLabel(cocos2d::CCLabelBMFont*, bool)
PUBLIC 8a640 0 LevelSettingsLayerExt::onPrevAudio(cocos2d::CCObject*)
PUBLIC 8a844 0 LevelSettingsLayerExt::onNextAudio(cocos2d::CCObject*)
PUBLIC 8aa98 0 geode::utils::MiniFunctionState<LevelSettingsLayerExt::setupSch(float)::{lambda(CCMenuItemSpriteExtra*)#1}, bool, CCMenuItemSpriteExtra*>::~MiniFunctionState()
PUBLIC 8aa9c 0 geode::utils::MiniFunctionState<LevelSettingsLayerExt::setupSch(float)::{lambda(CCMenuItemSpriteExtra*)#1}, bool, CCMenuItemSpriteExtra*>::call(CCMenuItemSpriteExtra*) const
PUBLIC 8abd4 0 geode::utils::MiniFunctionState<LevelSettingsLayerExt::setupSch(float)::{lambda(CCMenuItemSpriteExtra*)#1}, bool, CCMenuItemSpriteExtra*>::clone() const
PUBLIC 8abf8 0 geode::utils::MiniFunctionStateBase<bool, CCMenuItemSpriteExtra*>::~MiniFunctionStateBase()
PUBLIC 8abfc 0 geode::cocos::frameName(cocos2d::CCNode*)
PUBLIC 8b200 0 geode::cocos::CCDictionaryExt<std::__ndk1::basic_string<char, std::__ndk1::char_traits<char>, std::__ndk1::allocator<char> >, cocos2d::CCSpriteFrame*>::~CCDictionaryExt()
PUBLIC 8b21c 0 geode::cocos::CCDictionaryExt<std::__ndk1::basic_string<char, std::__ndk1::char_traits<char>, std::__ndk1::allocator<char> >, cocos2d::CCTexture2D*>::~CCDictionaryExt()
PUBLIC 8b238 0 geode::utils::MiniFunctionState<LevelSettingsLayerExt::setupSch(float)::{lambda(CCMenuItemSpriteExtra*)#2}, bool, CCMenuItemSpriteExtra*>::~MiniFunctionState()
PUBLIC 8b23c 0 geode::utils::MiniFunctionState<LevelSettingsLayerExt::setupSch(float)::{lambda(CCMenuItemSpriteExtra*)#2}, bool, CCMenuItemSpriteExtra*>::call(CCMenuItemSpriteExtra*) const
PUBLIC 8b37c 0 geode::utils::MiniFunctionState<LevelSettingsLayerExt::setupSch(float)::{lambda(CCMenuItemSpriteExtra*)#2}, bool, CCMenuItemSpriteExtra*>::clone() const
PUBLIC 8b3a0 0 geode::utils::MiniFunctionState<LevelSettingsLayerExt::setupSch(float)::{lambda(cocos2d::CCLabelBMFont*)#1}, bool, cocos2d::CCLabelBMFont*>::~MiniFunctionState()
PUBLIC 8b3a4 0 geode::utils::MiniFunctionState<LevelSettingsLayerExt::setupSch(float)::{lambda(cocos2d::CCLabelBMFont*)#1}, bool, cocos2d::CCLabelBMFont*>::call(cocos2d::CCLabelBMFont*) const
PUBLIC 8b3d4 0 geode::utils::MiniFunctionState<LevelSettingsLayerExt::setupSch(float)::{lambda(cocos2d::CCLabelBMFont*)#1}, bool, cocos2d::CCLabelBMFont*>::clone() const
PUBLIC 8b3f8 0 geode::utils::string::explode(std::__ndk1::basic_string<char, std::__ndk1::char_traits<char>, std::__ndk1::allocator<char> >, std::__ndk1::basic_string<char, std::__ndk1::char_traits<char>, std::__ndk1::allocator<char> >)
PUBLIC m 8b848 0 std::__ndk1::vector<std::__ndk1::basic_string<char, std::__ndk1::char_traits<char>, std::__ndk1::allocator<char> >, std::__ndk1::allocator<std::__ndk1::basic_string<char, std::__ndk1::char_traits<char>, std::__ndk1::allocator<char> > > >::__push_back_slow_path<std::__ndk1::basic_string<char, std::__ndk1::char_traits<char>, std::__ndk1::allocator<char> > >(std::__ndk1::basic_string<char, std::__ndk1::char_traits<char>, std::__ndk1::allocator<char> >&&)
PUBLIC 8b9b8 0 LevelSettingsLayerExt::getCurrentAudioNode()
PUBLIC 8bac0 0 geode::utils::MiniFunctionStateBase<bool, cocos2d::CCLabelBMFont*>::~MiniFunctionStateBase()
PUBLIC 8bac4 0 geode::utils::MiniFunctionState<LevelSettingsLayerExt::getCurrentAudioNode()::{lambda(cocos2d::CCLabelBMFont*)#1}, bool, cocos2d::CCLabelBMFont*>::~MiniFunctionState()
PUBLIC 8bac8 0 geode::utils::MiniFunctionState<LevelSettingsLayerExt::getCurrentAudioNode()::{lambda(cocos2d::CCLabelBMFont*)#1}, bool, cocos2d::CCLabelBMFont*>::call(cocos2d::CCLabelBMFont*) const
PUBLIC 8bad8 0 geode::utils::MiniFunctionState<LevelSettingsLayerExt::getCurrentAudioNode()::{lambda(cocos2d::CCLabelBMFont*)#1}, bool, cocos2d::CCLabelBMFont*>::clone() const
PUBLIC 8bafc 0 __cxx_global_var_init.14
PUBLIC 8c070 0 __cxx_global_var_init.16
PUBLIC 8c5e4 0 geode::modifier::ModifyBase<geode::modifier::ModifyDerive<hook5<(anonymous namespace)::hook5Parent>, PlayLayer> >::~ModifyBase()
PUBLIC 8c600 0 __cxx_global_var_init.15
PUBLIC 8cba8 0 geode::modifier::ModifyBase<geode::modifier::ModifyDerive<LocalLevelManagerExt, LocalLevelManager> >::~ModifyBase()
PUBLIC 8cbc4 0 geode::modifier::ModifyBase<geode::modifier::ModifyDerive<hook44<(anonymous namespace)::hook44Parent>, LevelTools> >::~ModifyBase()
PUBLIC 8cbe0 0 geode::modifier::ModifyDerive<hook5<(anonymous namespace)::hook5Parent>, PlayLayer>::apply()
PUBLIC 8d2c4 0 geode::modifier::ModifyBase<geode::modifier::ModifyDerive<hook5<(anonymous namespace)::hook5Parent>, PlayLayer> >::apply()
PUBLIC 8d2c8 0 geode::modifier::AsStaticFunction_init<hook5<(anonymous namespace)::hook5Parent>, bool (hook5<(anonymous namespace)::hook5Parent>::*)(GJGameLevel*, bool, bool)>::Impl<bool (hook5<(anonymous namespace)::hook5Parent>::*)(GJGameLevel*, bool, bool)>::function(hook5<(anonymous namespace)::hook5Parent>*, GJGameLevel*, bool, bool)
PUBLIC 8d2fc 0 geode::modifier::AsStaticFunction_resetLevel<hook5<(anonymous namespace)::hook5Parent>, void (hook5<(anonymous namespace)::hook5Parent>::*)()>::Impl<void (hook5<(anonymous namespace)::hook5Parent>::*)()>::function(hook5<(anonymous namespace)::hook5Parent>*)
PUBLIC 8d3c8 0 geode::modifier::ModifyDerive<LocalLevelManagerExt, LocalLevelManager>::apply()
PUBLIC 8d7a4 0 geode::modifier::ModifyBase<geode::modifier::ModifyDerive<LocalLevelManagerExt, LocalLevelManager> >::apply()
PUBLIC 8d7a8 0 geode::modifier::AsStaticFunction_getMainLevelString<LocalLevelManagerExt, gd::string (LocalLevelManagerExt::*)(int)>::Impl<gd::string (LocalLevelManagerExt::*)(int)>::function(LocalLevelManagerExt*, int)
PUBLIC 8def8 0 geode::modifier::ModifyDerive<hook44<(anonymous namespace)::hook44Parent>, LevelTools>::apply()
PUBLIC 8e2bc 0 geode::modifier::ModifyBase<geode::modifier::ModifyDerive<hook44<(anonymous namespace)::hook44Parent>, LevelTools> >::apply()
PUBLIC 8e2c0 0 geode::modifier::AsStaticFunction_getLevel<hook44<(anonymous namespace)::hook44Parent>, GJGameLevel* (*)(int, bool)>::Impl<GJGameLevel* (*)(int, bool)>::function(int, bool)
PUBLIC 8e960 0 __cxx_global_var_init.14
PUBLIC 8ef08 0 geode::modifier::ModifyBase<geode::modifier::ModifyDerive<BoomScrollLayerExt, BoomScrollLayer> >::~ModifyBase()
PUBLIC 8ef24 0 __cxx_global_var_init.15
PUBLIC 8f498 0 __cxx_global_var_init.17
PUBLIC 8fa0c 0 geode::modifier::ModifyBase<geode::modifier::ModifyDerive<hook43<(anonymous namespace)::hook43Parent>, LevelPage> >::~ModifyBase()
PUBLIC 8fa28 0 __cxx_global_var_init.16
PUBLIC 8ffd0 0 geode::modifier::ModifyBase<geode::modifier::ModifyDerive<LevelAreaLayerExt, cocos2d::CCLayer> >::~ModifyBase()
PUBLIC 8ffec 0 geode::modifier::ModifyBase<geode::modifier::ModifyDerive<hook86<(anonymous namespace)::hook86Parent>, LevelAreaLayer> >::~ModifyBase()
PUBLIC 90008 0 geode::modifier::ModifyDerive<BoomScrollLayerExt, BoomScrollLayer>::apply()
PUBLIC 90468 0 geode::modifier::ModifyBase<geode::modifier::ModifyDerive<BoomScrollLayerExt, BoomScrollLayer> >::apply()
PUBLIC 9046c 0 geode::modifier::AsStaticFunction_create<BoomScrollLayerExt, BoomScrollLayer* (*)(cocos2d::CCArray*, int, bool, cocos2d::CCArray*, DynamicScrollDelegate*)>::Impl<BoomScrollLayer* (*)(cocos2d::CCArray*, int, bool, cocos2d::CCArray*, DynamicScrollDelegate*)>::function(cocos2d::CCArray*, int, bool, cocos2d::CCArray*, DynamicScrollDelegate*)
PUBLIC 90c6c 0 std::__ndk1::vector<tulip::hook::AbstractType, std::__ndk1::allocator<tulip::hook::AbstractType> >::__throw_length_error[abi:v170000]() const
PUBLIC m 90c80 0 cpp::bitwizeshift::bad_result_access<std::__ndk1::basic_string<char, std::__ndk1::char_traits<char>, std::__ndk1::allocator<char> > >::~bad_result_access()
PUBLIC m 90cc0 0 cpp::bitwizeshift::bad_result_access<std::__ndk1::basic_string<char, std::__ndk1::char_traits<char>, std::__ndk1::allocator<char> > >::~bad_result_access()
PUBLIC 90d08 0 geode::modifier::ModifyDerive<hook43<(anonymous namespace)::hook43Parent>, LevelPage>::apply()
PUBLIC 910ec 0 geode::modifier::ModifyBase<geode::modifier::ModifyDerive<hook43<(anonymous namespace)::hook43Parent>, LevelPage> >::apply()
PUBLIC 910f0 0 geode::modifier::AsStaticFunction_updateDynamicPage<hook43<(anonymous namespace)::hook43Parent>, void (hook43<(anonymous namespace)::hook43Parent>::*)(GJGameLevel*)>::Impl<void (hook43<(anonymous namespace)::hook43Parent>::*)(GJGameLevel*)>::function(hook43<(anonymous namespace)::hook43Parent>*, GJGameLevel*)
PUBLIC 913fc 0 geode::modifier::ModifyDerive<LevelAreaLayerExt, cocos2d::CCLayer>::apply()
PUBLIC 91764 0 geode::modifier::ModifyBase<geode::modifier::ModifyDerive<LevelAreaLayerExt, cocos2d::CCLayer> >::apply()
PUBLIC 91768 0 geode::modifier::AsStaticFunction_init<LevelAreaLayerExt, bool (LevelAreaLayerExt::*)()>::Impl<bool (LevelAreaLayerExt::*)()>::function(LevelAreaLayerExt*)
PUBLIC 917cc 0 geode::addresser::Addresser::addressOfVirtual<bool, cocos2d::CCLayer, >(bool (cocos2d::CCLayer::*)())
PUBLIC 918f8 0 LevelAreaLayerExt::customSetupSch(float)
PUBLIC 919a8 0 geode::utils::MiniFunctionState<LevelAreaLayerExt::customSetupSch(float)::{lambda(auto:1)#1}, bool, CCMenuItemSpriteExtra*>::~MiniFunctionState()
PUBLIC 919ac 0 geode::utils::MiniFunctionState<LevelAreaLayerExt::customSetupSch(float)::{lambda(auto:1)#1}, bool, CCMenuItemSpriteExtra*>::call(CCMenuItemSpriteExtra*) const
PUBLIC 91ad0 0 geode::utils::MiniFunctionState<LevelAreaLayerExt::customSetupSch(float)::{lambda(auto:1)#1}, bool, CCMenuItemSpriteExtra*>::clone() const
PUBLIC 91af4 0 LevelAreaLayerExt::onBack(cocos2d::CCObject*)
PUBLIC 91d38 0 geode::modifier::ModifyDerive<hook86<(anonymous namespace)::hook86Parent>, LevelAreaLayer>::apply()
PUBLIC 920d0 0 geode::modifier::ModifyBase<geode::modifier::ModifyDerive<hook86<(anonymous namespace)::hook86Parent>, LevelAreaLayer> >::apply()
PUBLIC 920d4 0 geode::modifier::AsStaticFunction_keyBackClicked<hook86<(anonymous namespace)::hook86Parent>, void (hook86<(anonymous namespace)::hook86Parent>::*)()>::Impl<void (hook86<(anonymous namespace)::hook86Parent>::*)()>::function(hook86<(anonymous namespace)::hook86Parent>*)
PUBLIC 920e8 0 geode::addresser::Addresser::addressOfVirtual<void, LevelAreaLayer, >(void (LevelAreaLayer::*)())
PUBLIC m 92220 0 Loaded()
PUBLIC 92f60 0 __cxx_global_var_init.23
PUBLIC 934d4 0 geode::modifier::ModifyBase<geode::modifier::ModifyDerive<hook39<(anonymous namespace)::hook39Parent>, LoadingLayer> >::~ModifyBase()
PUBLIC 934f0 0 geode::modifier::ModifyDerive<hook39<(anonymous namespace)::hook39Parent>, LoadingLayer>::apply()
PUBLIC 93888 0 geode::modifier::ModifyBase<geode::modifier::ModifyDerive<hook39<(anonymous namespace)::hook39Parent>, LoadingLayer> >::apply()
PUBLIC 9388c 0 geode::modifier::AsStaticFunction_loadAssets<hook39<(anonymous namespace)::hook39Parent>, void (hook39<(anonymous namespace)::hook39Parent>::*)()>::Impl<void (hook39<(anonymous namespace)::hook39Parent>::*)()>::function(hook39<(anonymous namespace)::hook39Parent>*)
PUBLIC 938c8 0 __cxx_global_var_init.14
PUBLIC 93e3c 0 geode::modifier::ModifyBase<geode::modifier::ModifyDerive<hook6<(anonymous namespace)::hook6Parent>, LevelTools> >::~ModifyBase()
PUBLIC 93e58 0 __cxx_global_var_init.15
PUBLIC 94400 0 geode::modifier::ModifyBase<geode::modifier::ModifyDerive<SongsLayerExt, SongsLayer> >::~ModifyBase()
PUBLIC 9441c 0 __cxx_global_var_init.16
PUBLIC 949c4 0 geode::modifier::ModifyBase<geode::modifier::ModifyDerive<CustomSongWidgetExt, CustomSongWidget> >::~ModifyBase()
PUBLIC 949e0 0 geode::modifier::ModifyDerive<hook6<(anonymous namespace)::hook6Parent>, LevelTools>::apply()
PUBLIC 95c0c 0 geode::modifier::ModifyBase<geode::modifier::ModifyDerive<hook6<(anonymous namespace)::hook6Parent>, LevelTools> >::apply()
PUBLIC 95c10 0 geode::modifier::AsStaticFunction_artistForAudio<hook6<(anonymous namespace)::hook6Parent>, int (*)(int)>::Impl<int (*)(int)>::function(int)
PUBLIC 95d04 0 geode::Hook::create<gd::string (*)(int)>(void*, gd::string (*)(int), std::__ndk1::basic_string<char, std::__ndk1::char_traits<char>, std::__ndk1::allocator<char> > const&, tulip::hook::TulipConvention, tulip::hook::HookMetadata const&)
PUBLIC 95e38 0 geode::modifier::AsStaticFunction_getAudioFileName<hook6<(anonymous namespace)::hook6Parent>, gd::string (*)(int)>::Impl<gd::string (*)(int)>::function(int)
PUBLIC 95fc0 0 geode::modifier::AsStaticFunction_getAudioTitle<hook6<(anonymous namespace)::hook6Parent>, gd::string (*)(int)>::Impl<gd::string (*)(int)>::function(int)
PUBLIC 96148 0 geode::modifier::AsStaticFunction_nameForArtist<hook6<(anonymous namespace)::hook6Parent>, gd::string (*)(int)>::Impl<gd::string (*)(int)>::function(int)
PUBLIC 962d0 0 geode::modifier::AsStaticFunction_ngURLForArtist<hook6<(anonymous namespace)::hook6Parent>, gd::string (*)(int)>::Impl<gd::string (*)(int)>::function(int)
PUBLIC 96458 0 geode::modifier::AsStaticFunction_urlForAudio<hook6<(anonymous namespace)::hook6Parent>, gd::string (*)(int)>::Impl<gd::string (*)(int)>::function(int)
PUBLIC 965e0 0 geode::modifier::AsStaticFunction_ytURLForArtist<hook6<(anonymous namespace)::hook6Parent>, gd::string (*)(int)>::Impl<gd::string (*)(int)>::function(int)
PUBLIC 96768 0 geode::modifier::ModifyDerive<SongsLayerExt, SongsLayer>::apply()
PUBLIC 96af4 0 geode::modifier::ModifyBase<geode::modifier::ModifyDerive<SongsLayerExt, SongsLayer> >::apply()
PUBLIC 96af8 0 geode::modifier::AsStaticFunction_customSetup<SongsLayerExt, void (SongsLayerExt::*)()>::Impl<void (SongsLayerExt::*)()>::function(SongsLayerExt*)
PUBLIC 97544 0 geode::addresser::Addresser::addressOfVirtual<void, SongsLayer, >(void (SongsLayer::*)())
PUBLIC 9763c 0 SongsLayerExt::addSongCell(int, bool&, CCContentLayer*)
PUBLIC 981d0 0 SongsLayerExt::onViewArtists(cocos2d::CCObject*)
PUBLIC 98224 0 geode::utils::MiniFunctionState<SongsLayerExt::customSetup()::{lambda(auto:1)#1}, bool, CustomListView*>::~MiniFunctionState()
PUBLIC 98228 0 geode::utils::MiniFunctionState<SongsLayerExt::customSetup()::{lambda(auto:1)#1}, bool, CustomListView*>::call(CustomListView*) const
PUBLIC 98230 0 geode::utils::MiniFunctionState<SongsLayerExt::customSetup()::{lambda(auto:1)#1}, bool, CustomListView*>::clone() const
PUBLIC 98254 0 SongsLayerExt::onView(cocos2d::CCObject*)
PUBLIC 98344 0 geode::modifier::ModifyDerive<CustomSongWidgetExt, CustomSongWidget>::apply()
PUBLIC 9871c 0 geode::modifier::ModifyBase<geode::modifier::ModifyDerive<CustomSongWidgetExt, CustomSongWidget> >::apply()
PUBLIC 98720 0 geode::modifier::AsStaticFunction_onMore<CustomSongWidgetExt, void (CustomSongWidgetExt::*)(cocos2d::CCObject*)>::Impl<void (CustomSongWidgetExt::*)(cocos2d::CCObject*)>::function(CustomSongWidgetExt*, cocos2d::CCObject*)
PUBLIC 993a8 0 geode::cocos::findFirstChildRecursive<SongInfoLayer>(cocos2d::CCNode*, geode::utils::MiniFunction<bool (SongInfoLayer*)>)
PUBLIC 99580 0 geode::utils::MiniFunctionState<CustomSongWidgetExt::onMore(cocos2d::CCObject*)::{lambda(auto:1)#1}, bool, SongInfoLayer*>::~MiniFunctionState()
PUBLIC 99584 0 geode::utils::MiniFunctionState<CustomSongWidgetExt::onMore(cocos2d::CCObject*)::{lambda(auto:1)#1}, bool, SongInfoLayer*>::call(SongInfoLayer*) const
PUBLIC 9958c 0 geode::utils::MiniFunctionState<CustomSongWidgetExt::onMore(cocos2d::CCObject*)::{lambda(auto:1)#1}, bool, SongInfoLayer*>::clone() const
PUBLIC 995b0 0 geode::utils::MiniFunctionStateBase<bool, SongInfoLayer*>::~MiniFunctionStateBase()
PUBLIC m 995b4 0 geode::getMod()
PUBLIC m 995f0 0 geodeImplicitEntry
PUBLIC 9962c 0 cocos2d::CCDestructor::~CCDestructor()
PUBLIC 99728 0 wrapFunction(unsigned long, tulip::hook::WrapperMetadata const&)
PUBLIC 99864 0 tulip::hook::Result<void*, std::__ndk1::basic_string<char, std::__ndk1::char_traits<char>, std::__ndk1::allocator<char> > >::unwrapErr() &
PUBLIC 99920 0 tulip::hook::Result<void*, std::__ndk1::basic_string<char, std::__ndk1::char_traits<char>, std::__ndk1::allocator<char> > >::unwrap() &
PUBLIC 99a20 0 tulip::hook::WrapperMetadata::~WrapperMetadata()
PUBLIC 99a84 0 cocos2d::CCObject::CCObject()
PUBLIC 99bf8 0 cocos2d::CCNode::~CCNode()
PUBLIC 99c1c 0 {virtual override thunk({offset(-320)}, cocos2d::CCLayer::~CCLayer())}
PUBLIC 99c24 0 cocos2d::CCLayer::~CCLayer()
PUBLIC 99c48 0 {virtual override thunk({offset(-320)}, cocos2d::CCLayer::~CCLayer())}
PUBLIC 99c70 0 cocos2d::CCObject::~CCObject()
PUBLIC 99c94 0 cocos2d::CCLayerColor::CCLayerColor()
PUBLIC 99e3c 0 cocos2d::CCLayerRGBA::CCLayerRGBA()
PUBLIC 9a228 0 cocos2d::CCLayerRGBA::~CCLayerRGBA()
PUBLIC 9a4e4 0 {virtual override thunk({offset(-320)}, cocos2d::CCLayerColor::~CCLayerColor())}
PUBLIC 9a4ec 0 cocos2d::CCLayerColor::~CCLayerColor()
PUBLIC 9a510 0 {virtual override thunk({offset(-320)}, cocos2d::CCLayerColor::~CCLayerColor())}
PUBLIC 9a538 0 {virtual override thunk({offset(-320)}, cocos2d::CCLayerRGBA::~CCLayerRGBA())}
PUBLIC 9a540 0 cocos2d::CCLayerRGBA::~CCLayerRGBA()
PUBLIC 9a564 0 {virtual override thunk({offset(-320)}, cocos2d::CCLayerRGBA::~CCLayerRGBA())}
PUBLIC 9a58c 0 cocos2d::CCDictionary::setObject(cocos2d::CCObject*, gd::string const&)
PUBLIC 9a6ec 0 tulip::hook::AbstractFunction::from<void, cocos2d::CCDictionary*, cocos2d::CCObject*, gd::string const&>(void (*)(cocos2d::CCDictionary*, cocos2d::CCObject*, gd::string const&))
PUBLIC 9a7ec 0 cocos2d::CCDictionary::objectForKey(gd::string const&)
PUBLIC 9a93c 0 tulip::hook::AbstractFunction::from<cocos2d::CCObject*, cocos2d::CCDictionary*, gd::string const&>(cocos2d::CCObject* (*)(cocos2d::CCDictionary*, gd::string const&))
PUBLIC 9a9e0 0 cocos2d::ZipUtils::compressString(gd::string const&, bool, int)
PUBLIC 9ab48 0 tulip::hook::AbstractFunction::from<gd::string, gd::string const&, bool, int>(gd::string (*)(gd::string const&, bool, int))
PUBLIC 9ac40 0 cocos2d::ZipUtils::decompressString(gd::string const&, bool, int)
PUBLIC 9ada8 0 GJDropDownLayer::ccTouchMoved(cocos2d::CCTouch*, cocos2d::CCEvent*)
PUBLIC 9adac 0 {virtual override thunk({offset(-320)}, GJDropDownLayer::ccTouchMoved(cocos2d::CCTouch*, cocos2d::CCEvent*))}
PUBLIC 9adb0 0 GJDropDownLayer::ccTouchEnded(cocos2d::CCTouch*, cocos2d::CCEvent*)
PUBLIC 9adb4 0 {virtual override thunk({offset(-320)}, GJDropDownLayer::ccTouchEnded(cocos2d::CCTouch*, cocos2d::CCEvent*))}
PUBLIC 9adb8 0 GJDropDownLayer::ccTouchCancelled(cocos2d::CCTouch*, cocos2d::CCEvent*)
PUBLIC 9adbc 0 {virtual override thunk({offset(-320)}, GJDropDownLayer::ccTouchCancelled(cocos2d::CCTouch*, cocos2d::CCEvent*))}
PUBLIC 9adc0 0 GJDropDownLayer::customSetup()
PUBLIC 9adc4 0 GJDropDownLayer::enterAnimFinished()
PUBLIC 9adc8 0 FLAlertLayerProtocol::FLAlert_Clicked(FLAlertLayer*, bool)
PUBLIC 9adcc 0 {virtual override thunk({offset(-320)}, FLAlertLayer::~FLAlertLayer())}
PUBLIC 9ae40 0 FLAlertLayer::~FLAlertLayer()
PUBLIC 9aebc 0 {virtual override thunk({offset(-320)}, FLAlertLayer::~FLAlertLayer())}
PUBLIC 9af38 0 FLAlertLayer::init(FLAlertLayerProtocol*, char const*, gd::string, char const*, char const*, float, bool, float, float)
PUBLIC 9b120 0 tulip::hook::AbstractFunction::from<bool, FLAlertLayer*, FLAlertLayerProtocol*, char const*, gd::string, char const*, char const*, float, bool, float, float>(bool (*)(FLAlertLayer*, FLAlertLayerProtocol*, char const*, gd::string, char const*, char const*, float, bool, float, float))
PUBLIC 9b660 0 TextInputDelegate::textChanged(CCTextInputNode*)
PUBLIC 9b664 0 TextInputDelegate::textInputOpened(CCTextInputNode*)
PUBLIC 9b668 0 TextInputDelegate::textInputClosed(CCTextInputNode*)
PUBLIC 9b66c 0 TextInputDelegate::textInputShouldOffset(CCTextInputNode*, float)
PUBLIC 9b670 0 TextInputDelegate::textInputReturn(CCTextInputNode*)
PUBLIC 9b674 0 TextInputDelegate::allowTextInput(CCTextInputNode*)
PUBLIC 9b67c 0 TextInputDelegate::enterPressed(CCTextInputNode*)
PUBLIC 9b680 0 CCScrollLayerExtDelegate::scrllViewWillBeginDecelerating(CCScrollLayerExt*)
PUBLIC 9b684 0 CCScrollLayerExtDelegate::scrollViewDidEndDecelerating(CCScrollLayerExt*)
PUBLIC 9b688 0 CCScrollLayerExtDelegate::scrollViewTouchMoving(CCScrollLayerExt*)
PUBLIC 9b68c 0 CCScrollLayerExtDelegate::scrollViewTouchBegin(CCScrollLayerExt*)
PUBLIC 9b690 0 CCScrollLayerExtDelegate::scrollViewTouchEnd(CCScrollLayerExt*)
PUBLIC 9b694 0 tulip::hook::AbstractFunction::from<void, CCTextInputNode*, gd::string>(void (*)(CCTextInputNode*, gd::string))
PUBLIC 9b734 0 CCTextInputNode::setString(gd::string)
PUBLIC 9b8ac 0 cocos2d::CCString::createWithFormat(char const*, ...)
PUBLIC 9b9ec 0 GameManager::fadeInMusic(gd::string)
PUBLIC 9bb64 0 tulip::hook::AbstractFunction::from<void, GameManager*, gd::string>(void (*)(GameManager*, gd::string))
PUBLIC 9bc04 0 SongInfoObject::create(int, gd::string, gd::string, int, float, gd::string, gd::string, gd::string, int, gd::string, bool, int, int)
PUBLIC 9be98 0 tulip::hook::AbstractFunction::from<SongInfoObject*, int, gd::string, gd::string, int, float, gd::string, gd::string, gd::string, int, gd::string, bool, int, int>(SongInfoObject* (*)(int, gd::string, gd::string, int, float, gd::string, gd::string, gd::string, int, gd::string, bool, int, int))
PUBLIC 9c9d4 0 TextArea::create(gd::string, char const*, float, float, cocos2d::CCPoint, float, bool)
PUBLIC 9cb9c 0 tulip::hook::AbstractFunction::from<TextArea*, gd::string, char const*, float, float, cocos2d::CCPoint, float, bool>(TextArea* (*)(gd::string, char const*, float, float, cocos2d::CCPoint, float, bool))
PUBLIC 9ce00 0 cocos2d::CCLayerColor::~CCLayerColor()
PUBLIC m 9d0a0 0 FLAlertLayer::~FLAlertLayer()
PUBLIC m 9d114 0 cocos2d::CCLayer::~CCLayer()
PUBLIC 9d3c0 0 cocos2d::CCObject::~CCObject()
PUBLIC 9d5e4 0 cocos2d::CCNode::~CCNode()
PUBLIC 9d840 0 tulip::hook::lib::bitwizeshift::bad_result_access<std::__ndk1::basic_string<char, std::__ndk1::char_traits<char>, std::__ndk1::allocator<char> > >::~bad_result_access()
PUBLIC 9d87c 0 tulip::hook::lib::bitwizeshift::bad_result_access<std::__ndk1::basic_string<char, std::__ndk1::char_traits<char>, std::__ndk1::allocator<char> > >::~bad_result_access()
PUBLIC 9d8c0 0 std::__ndk1::__hash_table<std::__ndk1::__hash_value_type<void*, bool>, std::__ndk1::__unordered_map_hasher<void*, std::__ndk1::__hash_value_type<void*, bool>, std::__ndk1::hash<void*>, std::__ndk1::equal_to<void*>, true>, std::__ndk1::__unordered_map_equal<void*, std::__ndk1::__hash_value_type<void*, bool>, std::__ndk1::equal_to<void*>, std::__ndk1::hash<void*>, true>, std::__ndk1::allocator<std::__ndk1::__hash_value_type<void*, bool> > >::__emplace_unique_key_args<void*, std::__ndk1::piecewise_construct_t const&, std::__ndk1::tuple<void* const&>, std::__ndk1::tuple<> >(void* const&, std::__ndk1::piecewise_construct_t const&, std::__ndk1::tuple<void* const&>, std::__ndk1::tuple<>)
PUBLIC 9dda4 0 std::__ndk1::__hash_table<std::__ndk1::__hash_value_type<void*, bool>, std::__ndk1::__unordered_map_hasher<void*, std::__ndk1::__hash_value_type<void*, bool>, std::__ndk1::hash<void*>, std::__ndk1::equal_to<void*>, true>, std::__ndk1::__unordered_map_equal<void*, std::__ndk1::__hash_value_type<void*, bool>, std::__ndk1::equal_to<void*>, std::__ndk1::hash<void*>, true>, std::__ndk1::allocator<std::__ndk1::__hash_value_type<void*, bool> > >::find<void*>(void* const&)
PUBLIC 9deb8 0 std::__ndk1::__hash_table<std::__ndk1::__hash_value_type<void*, bool>, std::__ndk1::__unordered_map_hasher<void*, std::__ndk1::__hash_value_type<void*, bool>, std::__ndk1::hash<void*>, std::__ndk1::equal_to<void*>, true>, std::__ndk1::__unordered_map_equal<void*, std::__ndk1::__hash_value_type<void*, bool>, std::__ndk1::equal_to<void*>, std::__ndk1::hash<void*>, true>, std::__ndk1::allocator<std::__ndk1::__hash_value_type<void*, bool> > >::remove(std::__ndk1::__hash_const_iterator<std::__ndk1::__hash_node<std::__ndk1::__hash_value_type<void*, bool>, void*>*>)
PUBLIC 9dfec 0 __udivti3
PUBLIC 9dff8 0 __udivmodti4
PUBLIC m 9e22c 0 __eqtf2
PUBLIC 9e2cc 0 __unordtf2
PUBLIC m 9e304 0 fmt::v10::detail::assert_fail(char const*, int, char const*)
PUBLIC m 9e334 0 fmt::v10::detail::throw_format_error(char const*)
PUBLIC m 9e384 0 fmt::v10::format_error::runtime_error(char const*)
PUBLIC m 9e3b4 0 fmt::v10::detail::format_error_code(fmt::v10::detail::buffer<char>&, int, fmt::v10::basic_string_view<char>)
PUBLIC m 9e4a0 0 fmt::v10::detail::report_error(void (*)(fmt::v10::detail::buffer<char>&, int, char const*), int, char const*)
PUBLIC m 9e554 0 fmt::v10::detail::write_loc(fmt::v10::appender, fmt::v10::loc_value, fmt::v10::format_specs<char> const&, fmt::v10::detail::locale_ref)
PUBLIC m 9e6e4 0 fmt::v10::detail::locale_ref::get<std::__ndk1::locale>() const
PUBLIC m 9e6f8 0 fmt::v10::format_facet<std::__ndk1::locale>::format_facet(std::__ndk1::locale&)
PUBLIC m 9e894 0 fmt::v10::format_facet<std::__ndk1::locale>::~format_facet()
PUBLIC m 9e914 0 fmt::v10::format_facet<std::__ndk1::locale>::do_put(fmt::v10::appender, fmt::v10::loc_value, fmt::v10::format_specs<char> const&) const
PUBLIC m 9ec1c 0 fmt::v10::loc_value::visit<fmt::v10::detail::loc_writer<char> >(fmt::v10::detail::loc_writer<char>&&)
PUBLIC m 9eca4 0 fmt::v10::detail::loc_writer<char>::~loc_writer()
PUBLIC m 9ed08 0 fmt::v10::vsystem_error(int, fmt::v10::basic_string_view<char>, fmt::v10::basic_format_args<fmt::v10::basic_format_context<fmt::v10::appender, char> >)
PUBLIC m 9ee98 0 fmt::v10::vformat(fmt::v10::basic_string_view<char>, fmt::v10::basic_format_args<fmt::v10::basic_format_context<fmt::v10::appender, char> >)
PUBLIC m 9efc0 0 fmt::v10::detail::dragonbox::get_cached_power(int)
PUBLIC m 9f06c 0 fmt::v10::detail::utf8_to_utf16::utf8_to_utf16(fmt::v10::basic_string_view<char>)
PUBLIC m 9f1c8 0 fmt::v10::format_system_error(fmt::v10::detail::buffer<char>&, int, char const*)
PUBLIC m 9f2dc 0 fmt::v10::report_system_error(int, char const*)
PUBLIC m 9f390 0 fmt::v10::detail::vformat_to<char>(fmt::v10::detail::buffer<char>&, fmt::v10::basic_string_view<char>, fmt::v10::detail::vformat_args<char>::type, fmt::v10::detail::locale_ref)
PUBLIC m 9fa90 0 fmt::v10::detail::write_console(int, fmt::v10::basic_string_view<char>)
PUBLIC m 9fa98 0 fmt::v10::detail::write_console(__sFILE*, fmt::v10::basic_string_view<char>)
PUBLIC m 9faa0 0 fmt::v10::detail::print(__sFILE*, fmt::v10::basic_string_view<char>)
PUBLIC m 9fb1c 0 fmt::v10::vprint(__sFILE*, fmt::v10::basic_string_view<char>, fmt::v10::basic_format_args<fmt::v10::basic_format_context<fmt::v10::appender, char> >)
PUBLIC m 9fc60 0 fmt::v10::vprint(fmt::v10::basic_string_view<char>, fmt::v10::basic_format_args<fmt::v10::basic_format_context<fmt::v10::appender, char> >)
PUBLIC m 9fc88 0 fmt::v10::detail::is_printable(unsigned int)
PUBLIC m 9feac 0 fmt::v10::detail::dragonbox::to_decimal<float>(float)
PUBLIC m a01b4 0 fmt::v10::detail::dragonbox::to_decimal<double>(double)
PUBLIC m a0760 0 fmt::v10::detail::locale_ref::locale_ref<std::__ndk1::locale>()
PUBLIC m a0768 0 fmt::v10::detail::thousands_sep_impl<char>(fmt::v10::detail::locale_ref)
PUBLIC m a0880 0 fmt::v10::detail::decimal_point_impl<char>(fmt::v10::detail::locale_ref)
PUBLIC m a092c 0 fmt::v10::detail::buffer<char>::append<char>(char const*, char const*)
PUBLIC m a0a94 0 fmt::v10::detail::thousands_sep_impl<wchar_t>(fmt::v10::detail::locale_ref)
PUBLIC m a0bac 0 fmt::v10::detail::decimal_point_impl<wchar_t>(fmt::v10::detail::locale_ref)
PUBLIC m a0c58 0 fmt::v10::detail::buffer<wchar_t>::append<wchar_t>(wchar_t const*, wchar_t const*)
PUBLIC m a0d70 0 fmt::v10::format_error::~format_error()
PUBLIC m a0d94 0 fmt::v10::format_facet<std::__ndk1::locale>::~format_facet()
PUBLIC m a0e24 0 fmt::v10::basic_memory_buffer<wchar_t, (unsigned long)500, std::__ndk1::allocator<wchar_t> >::grow(unsigned long)
PUBLIC a0f34 0 fmt::v10::detail::for_each_codepoint<fmt::v10::detail::utf8_to_utf16::utf8_to_utf16(fmt::v10::basic_string_view<char>)::$_0>(fmt::v10::basic_string_view<char>, fmt::v10::detail::utf8_to_utf16::utf8_to_utf16(fmt::v10::basic_string_view<char>)::$_0)::{lambda(char const*, char const*)#1}::operator()(char const*, char const*) const
PUBLIC m a1138 0 fmt::v10::detail::copy_str_noinline<char, char const*, std::__ndk1::back_insert_iterator<fmt::v10::detail::buffer<char> > >(char const*, char const*, std::__ndk1::back_insert_iterator<fmt::v10::detail::buffer<char> >)
PUBLIC a11b8 0 fmt::v10::system_error<>(int, fmt::v10::basic_format_string<char, fmt::v10::type_identity<>::type>, &&)
PUBLIC m a121c 0 fmt::v10::detail::write<char, fmt::v10::appender, unsigned int, 0>(fmt::v10::appender, unsigned int)
PUBLIC m a13c8 0 fmt::v10::detail::write<char, fmt::v10::appender, long long, 0>(fmt::v10::appender, long long)
PUBLIC m a1628 0 fmt::v10::detail::write<char, fmt::v10::appender, unsigned long long, 0>(fmt::v10::appender, unsigned long long)
PUBLIC m a17fc 0 fmt::v10::detail::write<char, fmt::v10::appender, __int128, 0>(fmt::v10::appender, __int128)
PUBLIC m a1b34 0 fmt::v10::detail::write<char, fmt::v10::appender, unsigned __int128, 0>(fmt::v10::appender, unsigned __int128)
PUBLIC m a1e08 0 fmt::v10::detail::write<char, fmt::v10::appender, bool, 0>(fmt::v10::appender, bool, fmt::v10::format_specs<char> const&, fmt::v10::detail::locale_ref)
PUBLIC m a1f44 0 fmt::v10::detail::write_int_noinline<char, fmt::v10::appender, unsigned int>(fmt::v10::appender, fmt::v10::detail::write_int_arg<unsigned int>, fmt::v10::format_specs<char> const&, fmt::v10::detail::locale_ref)
PUBLIC m a2818 0 fmt::v10::detail::write_int<fmt::v10::appender, char, fmt::v10::detail::write_int<char, fmt::v10::appender, unsigned int>(fmt::v10::appender, fmt::v10::detail::write_int_arg<unsigned int>, fmt::v10::format_specs<char> const&, fmt::v10::detail::locale_ref)::{lambda(fmt::v10::appender)#1}>(fmt::v10::appender, int, unsigned int, fmt::v10::format_specs<char> const&, fmt::v10::detail::write_int<char, fmt::v10::appender, unsigned int>(fmt::v10::appender, fmt::v10::detail::write_int_arg<unsigned int>, fmt::v10::format_specs<char> const&, fmt::v10::detail::locale_ref)::{lambda(fmt::v10::appender)#1})::{lambda(fmt::v10::appender(fmt::v10::appender))#1}::operator() const
PUBLIC m a29a8 0 fmt::v10::detail::write_int<fmt::v10::appender, char, fmt::v10::detail::write_int<char, fmt::v10::appender, unsigned int>(fmt::v10::appender, fmt::v10::detail::write_int_arg<unsigned int>, fmt::v10::format_specs<char> const&, fmt::v10::detail::locale_ref)::{lambda(fmt::v10::appender)#2}>(fmt::v10::appender, int, unsigned int, fmt::v10::format_specs<char> const&, fmt::v10::detail::write_int<char, fmt::v10::appender, unsigned int>(fmt::v10::appender, fmt::v10::detail::write_int_arg<unsigned int>, fmt::v10::format_specs<char> const&, fmt::v10::detail::locale_ref)::{lambda(fmt::v10::appender)#2})::{lambda(fmt::v10::appender(fmt::v10::appender))#1}::operator() const
PUBLIC m a2b70 0 fmt::v10::detail::write_int<fmt::v10::appender, char, fmt::v10::detail::write_int<char, fmt::v10::appender, unsigned int>(fmt::v10::appender, fmt::v10::detail::write_int_arg<unsigned int>, fmt::v10::format_specs<char> const&, fmt::v10::detail::locale_ref)::{lambda(fmt::v10::appender)#3}>(fmt::v10::appender, int, unsigned int, fmt::v10::format_specs<char> const&, fmt::v10::detail::write_int<char, fmt::v10::appender, unsigned int>(fmt::v10::appender, fmt::v10::detail::write_int_arg<unsigned int>, fmt::v10::format_specs<char> const&, fmt::v10::detail::locale_ref)::{lambda(fmt::v10::appender)#3})::{lambda(fmt::v10::appender(fmt::v10::appender))#1}::operator() const
PUBLIC m a2d08 0 fmt::v10::detail::write_int<fmt::v10::appender, char, fmt::v10::detail::write_int<char, fmt::v10::appender, unsigned int>(fmt::v10::appender, fmt::v10::detail::write_int_arg<unsigned int>, fmt::v10::format_specs<char> const&, fmt::v10::detail::locale_ref)::{lambda(fmt::v10::appender)#4}>(fmt::v10::appender, int, unsigned int, fmt::v10::format_specs<char> const&, fmt::v10::detail::write_int<char, fmt::v10::appender, unsigned int>(fmt::v10::appender, fmt::v10::detail::write_int_arg<unsigned int>, fmt::v10::format_specs<char> const&, fmt::v10::detail::locale_ref)::{lambda(fmt::v10::appender)#4})::{lambda(fmt::v10::appender(fmt::v10::appender))#1}::operator() const
PUBLIC m a2e9c 0 fmt::v10::detail::write_escaped_char<char, fmt::v10::appender>(fmt::v10::appender, char)
PUBLIC m a301c 0 fmt::v10::detail::write_padded<(fmt::v10::align::type)1, fmt::v10::appender, char, fmt::v10::detail::write_nonfinite<char, fmt::v10::appender>(fmt::v10::appender, bool, fmt::v10::format_specs<char>, fmt::v10::detail::float_specs const&)::{lambda(fmt::v10::appender&)#1}>(fmt::v10::appender, fmt::v10::format_specs<char> const&, unsigned long, unsigned long, fmt::v10::detail::write_nonfinite<char, fmt::v10::appender>(fmt::v10::appender, bool, fmt::v10::format_specs<char>, fmt::v10::detail::float_specs const&)::{lambda(fmt::v10::appender&)#1})
PUBLIC m a3260 0 fmt::v10::detail::do_write_float<fmt::v10::appender, fmt::v10::detail::dragonbox::decimal_fp<float>, char, fmt::v10::detail::digit_grouping<char> >(fmt::v10::appender, fmt::v10::detail::dragonbox::decimal_fp<float> const&, fmt::v10::format_specs<char> const&, fmt::v10::detail::float_specs, fmt::v10::detail::locale_ref)
PUBLIC m a38ec 0 fmt::v10::detail::do_write_float<fmt::v10::appender, fmt::v10::detail::dragonbox::decimal_fp<float>, char, fmt::v10::detail::digit_grouping<char> >(fmt::v10::appender, fmt::v10::detail::dragonbox::decimal_fp<float> const&, fmt::v10::format_specs<char> const&, fmt::v10::detail::float_specs, fmt::v10::detail::locale_ref)::{lambda(fmt::v10::appender(fmt::v10::appender))#1}::operator() const
PUBLIC m a3a40 0 fmt::v10::detail::digit_grouping<char>::digit_grouping(fmt::v10::detail::locale_ref, bool)
PUBLIC m a3c00 0 fmt::v10::detail::digit_grouping<char>::~digit_grouping()
PUBLIC m a3c44 0 fmt::v10::detail::write_exponent<char, fmt::v10::appender>(int, fmt::v10::appender)
PUBLIC m a3e2c 0 fmt::v10::detail::write_significand<char, unsigned int, 0>(char*, unsigned int, int, int, char)
PUBLIC m a3fb4 0 fmt::v10::detail::do_write_float<fmt::v10::appender, fmt::v10::detail::dragonbox::decimal_fp<float>, char, fmt::v10::detail::digit_grouping<char> >(fmt::v10::appender, fmt::v10::detail::dragonbox::decimal_fp<float> const&, fmt::v10::format_specs<char> const&, fmt::v10::detail::float_specs, fmt::v10::detail::locale_ref)::{lambda(fmt::v10::appender(fmt::v10::appender))#2}::operator() const
PUBLIC m a40f0 0 fmt::v10::detail::write_significand<char, fmt::v10::appender, unsigned int, fmt::v10::detail::digit_grouping<char> >(fmt::v10::appender, unsigned int, int, int, fmt::v10::detail::digit_grouping<char> const&)
PUBLIC m a43b8 0 fmt::v10::detail::digit_grouping<char>::apply<fmt::v10::appender, char>(fmt::v10::appender, fmt::v10::basic_string_view<char>) const
PUBLIC m a4798 0 fmt::v10::basic_memory_buffer<int, (unsigned long)500, std::__ndk1::allocator<int> >::grow(unsigned long)
PUBLIC m a48a8 0 fmt::v10::detail::write_padded<(fmt::v10::align::type)2, fmt::v10::appender, char, fmt::v10::detail::do_write_float<fmt::v10::appender, fmt::v10::detail::dragonbox::decimal_fp<float>, char, fmt::v10::detail::digit_grouping<char> >(fmt::v10::appender, fmt::v10::detail::dragonbox::decimal_fp<float> const&, fmt::v10::format_specs<char> const&, fmt::v10::detail::float_specs, fmt::v10::detail::locale_ref)::{lambda(fmt::v10::appender&)#3}>(fmt::v10::appender, fmt::v10::format_specs<char> const&, unsigned long, unsigned long, fmt::v10::detail::do_write_float<fmt::v10::appender, fmt::v10::detail::dragonbox::decimal_fp<float>, char, fmt::v10::detail::digit_grouping<char> >(fmt::v10::appender, fmt::v10::detail::dragonbox::decimal_fp<float> const&, fmt::v10::format_specs<char> const&, fmt::v10::detail::float_specs, fmt::v10::detail::locale_ref)::{lambda(fmt::v10::appender&)#3})
PUBLIC m a4a14 0 fmt::v10::detail::write_significand<fmt::v10::appender, char, unsigned int, fmt::v10::detail::digit_grouping<char> >(fmt::v10::appender, unsigned int, int, int, char, fmt::v10::detail::digit_grouping<char> const&)
PUBLIC m a4b5c 0 fmt::v10::detail::do_write_float<fmt::v10::appender, fmt::v10::detail::dragonbox::decimal_fp<float>, char, fmt::v10::detail::digit_grouping<char> >(fmt::v10::appender, fmt::v10::detail::dragonbox::decimal_fp<float> const&, fmt::v10::format_specs<char> const&, fmt::v10::detail::float_specs, fmt::v10::detail::locale_ref)::{lambda(fmt::v10::appender(fmt::v10::appender))#4}::operator() const
PUBLIC m a4d80 0 fmt::v10::detail::do_write_float<fmt::v10::appender, fmt::v10::detail::dragonbox::decimal_fp<double>, char, fmt::v10::detail::digit_grouping<char> >(fmt::v10::appender, fmt::v10::detail::dragonbox::decimal_fp<double> const&, fmt::v10::format_specs<char> const&, fmt::v10::detail::float_specs, fmt::v10::detail::locale_ref)
PUBLIC m a541c 0 fmt::v10::detail::do_write_float<fmt::v10::appender, fmt::v10::detail::dragonbox::decimal_fp<double>, char, fmt::v10::detail::digit_grouping<char> >(fmt::v10::appender, fmt::v10::detail::dragonbox::decimal_fp<double> const&, fmt::v10::format_specs<char> const&, fmt::v10::detail::float_specs, fmt::v10::detail::locale_ref)::{lambda(fmt::v10::appender(fmt::v10::appender))#1}::operator() const
PUBLIC m a5574 0 fmt::v10::detail::write_significand<char, unsigned long, 0>(char*, unsigned long, int, int, char)
PUBLIC m a5720 0 fmt::v10::detail::do_write_float<fmt::v10::appender, fmt::v10::detail::dragonbox::decimal_fp<double>, char, fmt::v10::detail::digit_grouping<char> >(fmt::v10::appender, fmt::v10::detail::dragonbox::decimal_fp<double> const&, fmt::v10::format_specs<char> const&, fmt::v10::detail::float_specs, fmt::v10::detail::locale_ref)::{lambda(fmt::v10::appender(fmt::v10::appender))#2}::operator() const
PUBLIC m a585c 0 fmt::v10::detail::write_significand<char, fmt::v10::appender, unsigned long, fmt::v10::detail::digit_grouping<char> >(fmt::v10::appender, unsigned long, int, int, fmt::v10::detail::digit_grouping<char> const&)
PUBLIC m a5b3c 0 fmt::v10::detail::write_padded<(fmt::v10::align::type)2, fmt::v10::appender, char, fmt::v10::detail::do_write_float<fmt::v10::appender, fmt::v10::detail::dragonbox::decimal_fp<double>, char, fmt::v10::detail::digit_grouping<char> >(fmt::v10::appender, fmt::v10::detail::dragonbox::decimal_fp<double> const&, fmt::v10::format_specs<char> const&, fmt::v10::detail::float_specs, fmt::v10::detail::locale_ref)::{lambda(fmt::v10::appender&)#3}>(fmt::v10::appender, fmt::v10::format_specs<char> const&, unsigned long, unsigned long, fmt::v10::detail::do_write_float<fmt::v10::appender, fmt::v10::detail::dragonbox::decimal_fp<double>, char, fmt::v10::detail::digit_grouping<char> >(fmt::v10::appender, fmt::v10::detail::dragonbox::decimal_fp<double> const&, fmt::v10::format_specs<char> const&, fmt::v10::detail::float_specs, fmt::v10::detail::locale_ref)::{lambda(fmt::v10::appender&)#3})
PUBLIC m a5ca8 0 fmt::v10::detail::write_significand<fmt::v10::appender, char, unsigned long, fmt::v10::detail::digit_grouping<char> >(fmt::v10::appender, unsigned long, int, int, char, fmt::v10::detail::digit_grouping<char> const&)
PUBLIC m a5df0 0 fmt::v10::detail::do_write_float<fmt::v10::appender, fmt::v10::detail::dragonbox::decimal_fp<double>, char, fmt::v10::detail::digit_grouping<char> >(fmt::v10::appender, fmt::v10::detail::dragonbox::decimal_fp<double> const&, fmt::v10::format_specs<char> const&, fmt::v10::detail::float_specs, fmt::v10::detail::locale_ref)::{lambda(fmt::v10::appender(fmt::v10::appender))#4}::operator() const
PUBLIC m a6020 0 fmt::v10::detail::write_float<char, fmt::v10::appender, long double>(fmt::v10::appender, long double, fmt::v10::format_specs<char>, fmt::v10::detail::locale_ref)
PUBLIC m a6460 0 fmt::v10::detail::format_hexfloat<long double, 0>(long double, int, fmt::v10::detail::float_specs, fmt::v10::detail::buffer<char>&)
PUBLIC a6a08 0 fmt::v10::detail::write_bytes<(fmt::v10::align::type)2, char, fmt::v10::appender>(fmt::v10::appender, fmt::v10::basic_string_view<char>, fmt::v10::format_specs<char> const&)
PUBLIC m a6bf0 0 fmt::v10::detail::format_float<long double>(long double, int, fmt::v10::detail::float_specs, fmt::v10::detail::buffer<char>&)
PUBLIC m a6ebc 0 fmt::v10::detail::format_dragon(fmt::v10::detail::basic_fp<unsigned __int128>, unsigned int, int, fmt::v10::detail::buffer<char>&, int&)
PUBLIC m a832c 0 fmt::v10::detail::bigint::operator<<=(int)
PUBLIC m a8458 0 fmt::v10::detail::bigint::assign_pow10(int)
PUBLIC m a85c8 0 fmt::v10::detail::bigint::divmod_assign(fmt::v10::detail::bigint const&)
PUBLIC m a8934 0 fmt::v10::basic_memory_buffer<unsigned int, (unsigned long)32, std::__ndk1::allocator<unsigned int> >::grow(unsigned long)
PUBLIC m a8a44 0 fmt::v10::detail::bigint::square()
PUBLIC m a8ff8 0 fmt::v10::detail::do_write_float<fmt::v10::appender, fmt::v10::detail::big_decimal_fp, char, fmt::v10::detail::digit_grouping<char> >(fmt::v10::appender, fmt::v10::detail::big_decimal_fp const&, fmt::v10::format_specs<char> const&, fmt::v10::detail::float_specs, fmt::v10::detail::locale_ref)
PUBLIC m a966c 0 fmt::v10::detail::do_write_float<fmt::v10::appender, fmt::v10::detail::big_decimal_fp, char, fmt::v10::detail::digit_grouping<char> >(fmt::v10::appender, fmt::v10::detail::big_decimal_fp const&, fmt::v10::format_specs<char> const&, fmt::v10::detail::float_specs, fmt::v10::detail::locale_ref)::{lambda(fmt::v10::appender(fmt::v10::appender))#1}::operator() const
PUBLIC m a97e8 0 fmt::v10::detail::copy_str_noinline<char, char const*, fmt::v10::appender>(char const*, char const*, fmt::v10::appender)
PUBLIC m a9954 0 fmt::v10::detail::do_write_float<fmt::v10::appender, fmt::v10::detail::big_decimal_fp, char, fmt::v10::detail::digit_grouping<char> >(fmt::v10::appender, fmt::v10::detail::big_decimal_fp const&, fmt::v10::format_specs<char> const&, fmt::v10::detail::float_specs, fmt::v10::detail::locale_ref)::{lambda(fmt::v10::appender(fmt::v10::appender))#2}::operator() const
PUBLIC m a9a90 0 fmt::v10::detail::write_significand<char, fmt::v10::appender, char const*, fmt::v10::detail::digit_grouping<char> >(fmt::v10::appender, char const*, int, int, fmt::v10::detail::digit_grouping<char> const&)
PUBLIC m a9eb8 0 fmt::v10::detail::write_padded<(fmt::v10::align::type)2, fmt::v10::appender, char, fmt::v10::detail::do_write_float<fmt::v10::appender, fmt::v10::detail::big_decimal_fp, char, fmt::v10::detail::digit_grouping<char> >(fmt::v10::appender, fmt::v10::detail::big_decimal_fp const&, fmt::v10::format_specs<char> const&, fmt::v10::detail::float_specs, fmt::v10::detail::locale_ref)::{lambda(fmt::v10::appender&)#3}>(fmt::v10::appender, fmt::v10::format_specs<char> const&, unsigned long, unsigned long, fmt::v10::detail::do_write_float<fmt::v10::appender, fmt::v10::detail::big_decimal_fp, char, fmt::v10::detail::digit_grouping<char> >(fmt::v10::appender, fmt::v10::detail::big_decimal_fp const&, fmt::v10::format_specs<char> const&, fmt::v10::detail::float_specs, fmt::v10::detail::locale_ref)::{lambda(fmt::v10::appender&)#3})
PUBLIC m aa024 0 fmt::v10::detail::write_significand<fmt::v10::appender, char, char const*, fmt::v10::detail::digit_grouping<char> >(fmt::v10::appender, char const*, int, int, char, fmt::v10::detail::digit_grouping<char> const&)
PUBLIC m aa250 0 fmt::v10::detail::do_write_float<fmt::v10::appender, fmt::v10::detail::big_decimal_fp, char, fmt::v10::detail::digit_grouping<char> >(fmt::v10::appender, fmt::v10::detail::big_decimal_fp const&, fmt::v10::format_specs<char> const&, fmt::v10::detail::float_specs, fmt::v10::detail::locale_ref)::{lambda(fmt::v10::appender(fmt::v10::appender))#4}::operator() const
PUBLIC m aa4f4 0 fmt::v10::detail::write_padded<(fmt::v10::align::type)2, fmt::v10::appender, char, fmt::v10::detail::write_ptr<char, fmt::v10::appender, unsigned long>(fmt::v10::appender, unsigned long, fmt::v10::format_specs<char> const*)::{lambda(fmt::v10::appender&)#1}>(fmt::v10::appender, fmt::v10::format_specs<char> const&, unsigned long, unsigned long, fmt::v10::detail::write_ptr<char, fmt::v10::appender, unsigned long>(fmt::v10::appender, unsigned long, fmt::v10::format_specs<char> const*)::{lambda(fmt::v10::appender&)#1})
PUBLIC m aa6cc 0 fmt::v10::detail::parse_replacement_field<char, fmt::v10::detail::vformat_to<char>(fmt::v10::detail::buffer<char>&, fmt::v10::basic_string_view<char>, fmt::v10::detail::vformat_args<char>::type, fmt::v10::detail::locale_ref)::format_handler&>(char const*, char const*, fmt::v10::detail::vformat_to<char>(fmt::v10::detail::buffer<char>&, fmt::v10::basic_string_view<char>, fmt::v10::detail::vformat_args<char>::type, fmt::v10::detail::locale_ref)::format_handler&)
PUBLIC m aad00 0 fmt::v10::detail::vformat_to<char>(fmt::v10::detail::buffer<char>&, fmt::v10::basic_string_view<char>, fmt::v10::detail::vformat_args<char>::type, fmt::v10::detail::locale_ref)::format_handler::on_format_specs(int, char const*, char const*)
PUBLIC m ab894 0 fmt::v10::detail::do_parse_arg_id<char, fmt::v10::detail::parse_replacement_field<char, fmt::v10::detail::vformat_to<char>(fmt::v10::detail::buffer<char>&, fmt::v10::basic_string_view<char>, fmt::v10::detail::vformat_args<char>::type, fmt::v10::detail::locale_ref)::format_handler&>(char const*, char const*, fmt::v10::detail::vformat_to<char>(fmt::v10::detail::buffer<char>&, fmt::v10::basic_string_view<char>, fmt::v10::detail::vformat_args<char>::type, fmt::v10::detail::locale_ref)::format_handler&)::id_adapter&>(char const*, char const*, fmt::v10::detail::parse_replacement_field<char, fmt::v10::detail::vformat_to<char>(fmt::v10::detail::buffer<char>&, fmt::v10::basic_string_view<char>, fmt::v10::detail::vformat_args<char>::type, fmt::v10::detail::locale_ref)::format_handler&>(char const*, char const*, fmt::v10::detail::vformat_to<char>(fmt::v10::detail::buffer<char>&, fmt::v10::basic_string_view<char>, fmt::v10::detail::vformat_args<char>::type, fmt::v10::detail::locale_ref)::format_handler&)::id_adapter&)
PUBLIC m abaf0 0 fmt::v10::detail::handle_dynamic_spec<fmt::v10::detail::precision_checker, fmt::v10::basic_format_context<fmt::v10::appender, char> >(int&, fmt::v10::detail::arg_ref<fmt::v10::basic_format_context<fmt::v10::appender, char>::char_type>, fmt::v10::basic_format_context<fmt::v10::appender, char>&)
PUBLIC m abc00 0 fmt::v10::detail::get_dynamic_spec<fmt::v10::detail::precision_checker, fmt::v10::basic_format_arg<fmt::v10::basic_format_context<fmt::v10::appender, char> > >(fmt::v10::basic_format_arg<fmt::v10::basic_format_context<fmt::v10::appender, char> >)
PUBLIC m abc90 0 fmt::v10::detail::write_int_noinline<char, fmt::v10::appender, unsigned long>(fmt::v10::appender, fmt::v10::detail::write_int_arg<unsigned long>, fmt::v10::format_specs<char> const&, fmt::v10::detail::locale_ref)
PUBLIC m ac5c4 0 fmt::v10::detail::write_int<fmt::v10::appender, char, fmt::v10::detail::write_int<char, fmt::v10::appender, unsigned long>(fmt::v10::appender, fmt::v10::detail::write_int_arg<unsigned long>, fmt::v10::format_specs<char> const&, fmt::v10::detail::locale_ref)::{lambda(fmt::v10::appender)#1}>(fmt::v10::appender, int, unsigned int, fmt::v10::format_specs<char> const&, fmt::v10::detail::write_int<char, fmt::v10::appender, unsigned long>(fmt::v10::appender, fmt::v10::detail::write_int_arg<unsigned long>, fmt::v10::format_specs<char> const&, fmt::v10::detail::locale_ref)::{lambda(fmt::v10::appender)#1})::{lambda(fmt::v10::appender(fmt::v10::appender))#1}::operator() const
PUBLIC m ac760 0 fmt::v10::detail::write_int<fmt::v10::appender, char, fmt::v10::detail::write_int<char, fmt::v10::appender, unsigned long>(fmt::v10::appender, fmt::v10::detail::write_int_arg<unsigned long>, fmt::v10::format_specs<char> const&, fmt::v10::detail::locale_ref)::{lambda(fmt::v10::appender)#2}>(fmt::v10::appender, int, unsigned int, fmt::v10::format_specs<char> const&, fmt::v10::detail::write_int<char, fmt::v10::appender, unsigned long>(fmt::v10::appender, fmt::v10::detail::write_int_arg<unsigned long>, fmt::v10::format_specs<char> const&, fmt::v10::detail::locale_ref)::{lambda(fmt::v10::appender)#2})::{lambda(fmt::v10::appender(fmt::v10::appender))#1}::operator() const
PUBLIC m ac92c 0 fmt::v10::detail::write_int<fmt::v10::appender, char, fmt::v10::detail::write_int<char, fmt::v10::appender, unsigned long>(fmt::v10::appender, fmt::v10::detail::write_int_arg<unsigned long>, fmt::v10::format_specs<char> const&, fmt::v10::detail::locale_ref)::{lambda(fmt::v10::appender)#3}>(fmt::v10::appender, int, unsigned int, fmt::v10::format_specs<char> const&, fmt::v10::detail::write_int<char, fmt::v10::appender, unsigned long>(fmt::v10::appender, fmt::v10::detail::write_int_arg<unsigned long>, fmt::v10::format_specs<char> const&, fmt::v10::detail::locale_ref)::{lambda(fmt::v10::appender)#3})::{lambda(fmt::v10::appender(fmt::v10::appender))#1}::operator() const
PUBLIC m acacc 0 fmt::v10::detail::write_int<fmt::v10::appender, char, fmt::v10::detail::write_int<char, fmt::v10::appender, unsigned long>(fmt::v10::appender, fmt::v10::detail::write_int_arg<unsigned long>, fmt::v10::format_specs<char> const&, fmt::v10::detail::locale_ref)::{lambda(fmt::v10::appender)#4}>(fmt::v10::appender, int, unsigned int, fmt::v10::format_specs<char> const&, fmt::v10::detail::write_int<char, fmt::v10::appender, unsigned long>(fmt::v10::appender, fmt::v10::detail::write_int_arg<unsigned long>, fmt::v10::format_specs<char> const&, fmt::v10::detail::locale_ref)::{lambda(fmt::v10::appender)#4})::{lambda(fmt::v10::appender(fmt::v10::appender))#1}::operator() const
PUBLIC m acc64 0 fmt::v10::detail::write_int_noinline<char, fmt::v10::appender, unsigned __int128>(fmt::v10::appender, fmt::v10::detail::write_int_arg<unsigned __int128>, fmt::v10::format_specs<char> const&, fmt::v10::detail::locale_ref)
PUBLIC m ad720 0 fmt::v10::detail::write_int<fmt::v10::appender, char, fmt::v10::detail::write_int<char, fmt::v10::appender, unsigned __int128>(fmt::v10::appender, fmt::v10::detail::write_int_arg<unsigned __int128>, fmt::v10::format_specs<char> const&, fmt::v10::detail::locale_ref)::{lambda(fmt::v10::appender)#1}>(fmt::v10::appender, int, unsigned int, fmt::v10::format_specs<char> const&, fmt::v10::detail::write_int<char, fmt::v10::appender, unsigned __int128>(fmt::v10::appender, fmt::v10::detail::write_int_arg<unsigned __int128>, fmt::v10::format_specs<char> const&, fmt::v10::detail::locale_ref)::{lambda(fmt::v10::appender)#1})::{lambda(fmt::v10::appender(fmt::v10::appender))#1}::operator() const
PUBLIC m ad8f4 0 fmt::v10::detail::write_int<fmt::v10::appender, char, fmt::v10::detail::write_int<char, fmt::v10::appender, unsigned __int128>(fmt::v10::appender, fmt::v10::detail::write_int_arg<unsigned __int128>, fmt::v10::format_specs<char> const&, fmt::v10::detail::locale_ref)::{lambda(fmt::v10::appender)#2}>(fmt::v10::appender, int, unsigned int, fmt::v10::format_specs<char> const&, fmt::v10::detail::write_int<char, fmt::v10::appender, unsigned __int128>(fmt::v10::appender, fmt::v10::detail::write_int_arg<unsigned __int128>, fmt::v10::format_specs<char> const&, fmt::v10::detail::locale_ref)::{lambda(fmt::v10::appender)#2})::{lambda(fmt::v10::appender(fmt::v10::appender))#1}::operator() const
PUBLIC m adadc 0 fmt::v10::detail::write_int<fmt::v10::appender, char, fmt::v10::detail::write_int<char, fmt::v10::appender, unsigned __int128>(fmt::v10::appender, fmt::v10::detail::write_int_arg<unsigned __int128>, fmt::v10::format_specs<char> const&, fmt::v10::detail::locale_ref)::{lambda(fmt::v10::appender)#3}>(fmt::v10::appender, int, unsigned int, fmt::v10::format_specs<char> const&, fmt::v10::detail::write_int<char, fmt::v10::appender, unsigned __int128>(fmt::v10::appender, fmt::v10::detail::write_int_arg<unsigned __int128>, fmt::v10::format_specs<char> const&, fmt::v10::detail::locale_ref)::{lambda(fmt::v10::appender)#3})::{lambda(fmt::v10::appender(fmt::v10::appender))#1}::operator() const
PUBLIC m adc9c 0 fmt::v10::detail::write_int<fmt::v10::appender, char, fmt::v10::detail::write_int<char, fmt::v10::appender, unsigned __int128>(fmt::v10::appender, fmt::v10::detail::write_int_arg<unsigned __int128>, fmt::v10::format_specs<char> const&, fmt::v10::detail::locale_ref)::{lambda(fmt::v10::appender)#4}>(fmt::v10::appender, int, unsigned int, fmt::v10::format_specs<char> const&, fmt::v10::detail::write_int<char, fmt::v10::appender, unsigned __int128>(fmt::v10::appender, fmt::v10::detail::write_int_arg<unsigned __int128>, fmt::v10::format_specs<char> const&, fmt::v10::detail::locale_ref)::{lambda(fmt::v10::appender)#4})::{lambda(fmt::v10::appender(fmt::v10::appender))#1}::operator() const
PUBLIC m ade50 0 fmt::v10::detail::write<char, fmt::v10::appender>(fmt::v10::appender, char, fmt::v10::format_specs<char> const&, fmt::v10::detail::locale_ref)
PUBLIC m ae044 0 fmt::v10::detail::write_float<char, fmt::v10::appender, float>(fmt::v10::appender, float, fmt::v10::format_specs<char>, fmt::v10::detail::locale_ref)
PUBLIC m ae434 0 fmt::v10::detail::format_hexfloat<double, 0>(double, int, fmt::v10::detail::float_specs, fmt::v10::detail::buffer<char>&)
PUBLIC m ae994 0 fmt::v10::detail::format_float<double>(double, int, fmt::v10::detail::float_specs, fmt::v10::detail::buffer<char>&)
PUBLIC m af198 0 fmt::v10::detail::write<char, fmt::v10::appender, unsigned long, 0>(fmt::v10::appender, unsigned long)
PUBLIC m af36c 0 fmt::v10::detail::write_float<char, fmt::v10::appender, double>(fmt::v10::appender, double, fmt::v10::format_specs<char>, fmt::v10::detail::locale_ref)
PUBLIC m af758 0 fmt::v10::vformat_to<fmt::v10::appender, 0>(fmt::v10::appender, fmt::v10::basic_string_view<char>, fmt::v10::basic_format_args<fmt::v10::basic_format_context<fmt::v10::appender, char> >)
PUBLIC m af8c4 0 fmt::v10::detail::iterator_buffer<fmt::v10::appender, char, fmt::v10::detail::buffer_traits>::~iterator_buffer()
PUBLIC m af954 0 fmt::v10::detail::iterator_buffer<fmt::v10::appender, char, fmt::v10::detail::buffer_traits>::grow(unsigned long)
PUBLIC m af9ec 0 fmt::v10::detail::loc_writer<char>::operator()<int, 0>(int)
PUBLIC m afcc8 0 fmt::v10::detail::loc_writer<char>::operator()<unsigned int, 0>(unsigned int)
PUBLIC m aff80 0 fmt::v10::detail::loc_writer<char>::operator()<long long, 0>(long long)
PUBLIC m b025c 0 fmt::v10::detail::loc_writer<char>::operator()<unsigned long long, 0>(unsigned long long)
PUBLIC m b0514 0 fmt::v10::detail::loc_writer<char>::operator()<__int128, 0>(__int128)
PUBLIC m b07fc 0 fmt::v10::detail::loc_writer<char>::operator()<unsigned __int128, 0>(unsigned __int128)
PUBLIC m b0abc 0 fmt::v10::detail::write_int<fmt::v10::appender, unsigned long, char>(fmt::v10::appender, unsigned long, unsigned int, fmt::v10::format_specs<char> const&, fmt::v10::detail::digit_grouping<char> const&)
PUBLIC m b10b4 0 fmt::v10::detail::write_padded<(fmt::v10::align::type)2, fmt::v10::appender, char, fmt::v10::detail::write_int<fmt::v10::appender, unsigned long, char>(fmt::v10::appender, unsigned long, unsigned int, fmt::v10::format_specs<char> const&, fmt::v10::detail::digit_grouping<char> const&)::{lambda(fmt::v10::appender)#1}>(fmt::v10::appender, fmt::v10::format_specs<char> const&, unsigned long, unsigned long, fmt::v10::detail::write_int<fmt::v10::appender, unsigned long, char>(fmt::v10::appender, unsigned long, unsigned int, fmt::v10::format_specs<char> const&, fmt::v10::detail::digit_grouping<char> const&)::{lambda(fmt::v10::appender&&)#1})
PUBLIC m b11b0 0 fmt::v10::detail::write_int<fmt::v10::appender, unsigned __int128, char>(fmt::v10::appender, unsigned __int128, unsigned int, fmt::v10::format_specs<char> const&, fmt::v10::detail::digit_grouping<char> const&)
PUBLIC m b1920 0 fmt::v10::detail::write_padded<(fmt::v10::align::type)2, fmt::v10::appender, char, fmt::v10::detail::write_int<fmt::v10::appender, unsigned __int128, char>(fmt::v10::appender, unsigned __int128, unsigned int, fmt::v10::format_specs<char> const&, fmt::v10::detail::digit_grouping<char> const&)::{lambda(fmt::v10::appender)#1}>(fmt::v10::appender, fmt::v10::format_specs<char> const&, unsigned long, unsigned long, fmt::v10::detail::write_int<fmt::v10::appender, unsigned __int128, char>(fmt::v10::appender, unsigned __int128, unsigned int, fmt::v10::format_specs<char> const&, fmt::v10::detail::digit_grouping<char> const&)::{lambda(fmt::v10::appender&&)#1})
PUBLIC b1a20 0 <.plt ELF section in user95401.mainlevelseditor.android64.so>
STACK CFI INIT 4bc30 10 .cfa: sp 0 +
STACK CFI INIT 4bc40 8 .cfa: sp 0 +
STACK CFI INIT 4bc48 8 .cfa: sp 0 +
STACK CFI INIT 4bc50 14 .cfa: sp 0 +
STACK CFI INIT 4bc64 1c .cfa: sp 0 +
STACK CFI INIT 4bc80 10 .cfa: sp 0 +
STACK CFI INIT 4bc90 138 .cfa: sp 0 +
STACK CFI INIT 4bdc8 88 .cfa: sp 0 +
STACK CFI INIT 4be50 f4 .cfa: sp 0 +
STACK CFI INIT 4bf44 ac .cfa: sp 0 +
STACK CFI INIT 4bff0 7c .cfa: sp 0 +
STACK CFI INIT 4c06c 14 .cfa: sp 0 +
STACK CFI INIT 4c080 40 .cfa: sp 0 +
STACK CFI INIT 4c0c0 28 .cfa: sp 0 +
STACK CFI INIT 4c0e8 190 .cfa: sp 0 +
STACK CFI INIT 4c278 2c0 .cfa: sp 0 +
STACK CFI INIT 4c538 8 .cfa: sp 0 +
STACK CFI INIT 4c540 8 .cfa: sp 0 +
STACK CFI INIT 4c548 40 .cfa: sp 0 +
STACK CFI INIT 4c588 120 .cfa: sp 0 +
STACK CFI INIT 4c6a8 120 .cfa: sp 0 +
STACK CFI INIT 4c7c8 14 .cfa: sp 0 +
STACK CFI INIT 4c7dc 10 .cfa: sp 0 +
STACK CFI INIT 4c7ec 10 .cfa: sp 0 +
STACK CFI INIT 4c7fc d8 .cfa: sp 0 +
STACK CFI INIT 4c8d4 44 .cfa: sp 0 +
STACK CFI INIT 4c918 c .cfa: sp 0 +
STACK CFI INIT 4c924 c .cfa: sp 0 +
STACK CFI INIT 4c930 2c .cfa: sp 0 +
STACK CFI INIT 4c95c 280 .cfa: sp 0 +
STACK CFI INIT 4cbdc c .cfa: sp 0 +
STACK CFI INIT 4cbe8 124 .cfa: sp 0 +
STACK CFI INIT 4cd0c 4bc .cfa: sp 0 +
STACK CFI INIT 4d1c8 b14 .cfa: sp 0 +
STACK CFI INIT 4dcdc fc .cfa: sp 0 +
STACK CFI INIT 4ddd8 1fc .cfa: sp 0 +
STACK CFI INIT 4dfd4 324 .cfa: sp 0 +
STACK CFI INIT 4e2f8 1d0 .cfa: sp 0 +
STACK CFI INIT 4e4c8 9c4 .cfa: sp 0 +
STACK CFI INIT 4ee8c 2e8 .cfa: sp 0 +
STACK CFI INIT 4f174 1a0 .cfa: sp 0 +
STACK CFI INIT 4f314 1c8 .cfa: sp 0 +
STACK CFI INIT 4f4dc 1cc .cfa: sp 0 +
STACK CFI INIT 4f6a8 e8 .cfa: sp 0 +
STACK CFI INIT 4f790 30 .cfa: sp 0 +
STACK CFI INIT 4f8f0 30 .cfa: sp 0 +
STACK CFI INIT 4f920 98 .cfa: sp 0 +
STACK CFI INIT 4f9b8 438 .cfa: sp 0 +
STACK CFI 4f9c0 .cfa: sp 48 +
STACK CFI 4f9c8 x19: .cfa -8 + ^ x20: .cfa -16 + ^ x21: .cfa -24 + ^ x22: .cfa -32 + ^ x23: .cfa -40 + ^ x24: .cfa -48 + ^
STACK CFI 4f9e0 .cfa: sp 0 +
STACK CFI 4f9e4 .cfa: sp 48 +
STACK CFI 4fdd0 .cfa: sp 0 +
STACK CFI 4fdd4 .cfa: sp 48 +
STACK CFI 4fdec .cfa: sp 0 +
STACK CFI INIT 4fdf0 98 .cfa: sp 0 +
STACK CFI INIT 4fe90 30 .cfa: sp 0 +
STACK CFI INIT 4fec0 68 .cfa: sp 0 +
STACK CFI 4fec4 .cfa: sp 32 +
STACK CFI 4fecc .cfa: x29 32 + x19: .cfa -16 + ^ .ra: .cfa -24 + ^ x29: .cfa -32 + ^
STACK CFI 4ff10 .cfa: sp 32 +
STACK CFI 4ff18 .cfa: sp 0 +
STACK CFI 4ff1c .cfa: sp 32 +
STACK CFI 4ff24 .cfa: sp 0 +
STACK CFI INIT 50644 90 .cfa: sp 0 +
STACK CFI 50648 .cfa: sp 80 +
STACK CFI 50654 .cfa: x29 32 + x19: .cfa -8 + ^ x20: .cfa -16 + ^ .ra: .cfa -24 + ^ x29: .cfa -32 + ^
STACK CFI 506c0 .cfa: sp 80 +
STACK CFI 506cc .cfa: sp 0 +
STACK CFI 506d0 .cfa: x29 32 +
STACK CFI INIT 50d64 1c .cfa: sp 0 +
STACK CFI INIT 50d80 14 .cfa: sp 0 +
STACK CFI 50d84 .cfa: sp 16 +
STACK CFI 50d88 .cfa: x29 16 + .ra: .cfa -8 + ^ x29: .cfa -16 + ^
STACK CFI INIT 50de4 30 .cfa: sp 0 +
STACK CFI 50de8 .cfa: sp 32 +
STACK CFI 50df0 .cfa: x29 32 + x19: .cfa -16 + ^ .ra: .cfa -24 + ^ x29: .cfa -32 + ^
STACK CFI 50e08 .cfa: sp 32 +
STACK CFI 50e10 .cfa: sp 0 +
STACK CFI INIT 50e14 34 .cfa: sp 0 +
STACK CFI 50e18 .cfa: sp 32 +
STACK CFI 50e20 .cfa: x29 32 + x19: .cfa -16 + ^ .ra: .cfa -24 + ^ x29: .cfa -32 + ^
STACK CFI INIT 50e48 10 .cfa: sp 0 +
STACK CFI 50e4c .cfa: sp 16 +
STACK CFI 50e50 .cfa: x29 16 + .ra: .cfa -8 + ^ x29: .cfa -16 + ^
STACK CFI INIT 5114c 4 .cfa: sp 0 +
STACK CFI INIT 51258 44 .cfa: sp 0 +
STACK CFI 5125c .cfa: sp 32 +
STACK CFI 51264 .cfa: x29 32 + x19: .cfa -16 + ^ .ra: .cfa -24 + ^ x29: .cfa -32 + ^
STACK CFI 51290 .cfa: sp 32 +
STACK CFI 51298 .cfa: sp 0 +
STACK CFI INIT 5129c 4c .cfa: sp 0 +
STACK CFI 512a0 .cfa: sp 32 +
STACK CFI 512a8 .cfa: x29 32 + x19: .cfa -16 + ^ .ra: .cfa -24 + ^ x29: .cfa -32 + ^
STACK CFI 512dc .cfa: sp 32 +
STACK CFI 512e4 .cfa: sp 0 +
STACK CFI INIT 512e8 4 .cfa: sp 0 +
STACK CFI INIT 512ec 4 .cfa: sp 0 +
STACK CFI INIT 512f0 c .cfa: sp 0 +
STACK CFI INIT 512fc 38 .cfa: sp 0 +
STACK CFI 51300 .cfa: sp 32 +
STACK CFI 51308 .cfa: x29 32 + x19: .cfa -16 + ^ .ra: .cfa -24 + ^ x29: .cfa -32 + ^
STACK CFI 51328 .cfa: sp 32 +
STACK CFI 51330 .cfa: sp 0 +
STACK CFI INIT 51334 100 .cfa: sp 0 +
STACK CFI 51338 .cfa: sp 64 +
STACK CFI 51348 .cfa: x29 64 + x19: .cfa -8 + ^ x20: .cfa -16 + ^ x21: .cfa -24 + ^ x22: .cfa -32 + ^ x23: .cfa -48 + ^ .ra: .cfa -56 + ^ x29: .cfa -64 + ^
STACK CFI 513a0 .cfa: sp 64 +
STACK CFI 513b0 .cfa: sp 0 +
STACK CFI 513b4 .cfa: x29 64 +
STACK CFI 513d0 .cfa: sp 64 +
STACK CFI 513e0 .cfa: sp 0 +
STACK CFI 513e4 .cfa: x29 64 +
STACK CFI 51420 .cfa: sp 64 +
STACK CFI 51430 .cfa: sp 0 +
STACK CFI INIT 51810 50 .cfa: sp 0 +
STACK CFI 51814 .cfa: sp 32 +
STACK CFI 5181c .cfa: x29 32 + x19: .cfa -16 + ^ .ra: .cfa -24 + ^ x29: .cfa -32 + ^
STACK CFI 51834 .cfa: sp 32 +
STACK CFI 5183c .cfa: sp 0 +
STACK CFI 51840 .cfa: x29 32 +
STACK CFI 51854 .cfa: sp 32 +
STACK CFI 5185c .cfa: sp 0 +
STACK CFI INIT 51860 4 .cfa: sp 0 +
STACK CFI INIT 51af0 68 .cfa: sp 0 +
STACK CFI 51af4 .cfa: sp 32 +
STACK CFI 51afc .cfa: x29 32 + x19: .cfa -8 + ^ x20: .cfa -16 + ^ .ra: .cfa -24 + ^ x29: .cfa -32 + ^
STACK CFI 51b14 .cfa: sp 32 +
STACK CFI 51b1c .cfa: sp 0 +
STACK CFI 51b20 .cfa: x29 32 +
STACK CFI 51b4c .cfa: sp 32 +
STACK CFI 51b54 .cfa: sp 0 +
STACK CFI INIT 51b58 14 .cfa: sp 0 +
STACK CFI 51b5c .cfa: sp 16 +
STACK CFI 51b60 .cfa: x29 16 + .ra: .cfa -8 + ^ x29: .cfa -16 + ^
STACK CFI INIT 51b6c 10c .cfa: sp 0 +
STACK CFI 51b70 .cfa: sp 64 +
STACK CFI 51b80 .cfa: x29 64 + x19: .cfa -8 + ^ x20: .cfa -16 + ^ x21: .cfa -24 + ^ x22: .cfa -32 + ^ x23: .cfa -40 + ^ x24: .cfa -48 + ^ .ra: .cfa -56 + ^ x29: .cfa -64 + ^
STACK CFI 51c64 .cfa: sp 64 +
STACK CFI 51c74 .cfa: sp 0 +
STACK CFI INIT 51c78 d4 .cfa: sp 0 +
STACK CFI 51c7c .cfa: sp 48 +
STACK CFI 51c88 .cfa: x29 48 + x19: .cfa -8 + ^ x20: .cfa -16 + ^ x21: .cfa -32 + ^ .ra: .cfa -40 + ^ x29: .cfa -48 + ^
STACK CFI 51d18 .cfa: sp 48 +
STACK CFI 51d24 .cfa: sp 0 +
STACK CFI 51d28 .cfa: x29 48 +
STACK CFI INIT 51d4c 3c8 .cfa: sp 0 +
STACK CFI INIT 52114 8c .cfa: sp 0 +
STACK CFI 5211c .cfa: sp 32 +
STACK CFI 52124 .cfa: x29 32 + x19: .cfa -8 + ^ x20: .cfa -16 + ^ .ra: .cfa -24 + ^ x29: .cfa -32 + ^
STACK CFI 5216c .cfa: sp 32 +
STACK CFI 52174 .cfa: sp 0 +
STACK CFI 5217c .cfa: x29 32 +
STACK CFI INIT 521a0 14 .cfa: sp 0 +
STACK CFI 521a4 .cfa: sp 16 +
STACK CFI 521a8 .cfa: x29 16 + .ra: .cfa -8 + ^ x29: .cfa -16 + ^
STACK CFI 521ac .cfa: sp 16 +
STACK CFI 521b0 .cfa: sp 0 +
STACK CFI INIT 52298 50 .cfa: sp 0 +
STACK CFI 5229c .cfa: sp 32 +
STACK CFI 522a4 .cfa: x29 32 + x19: .cfa -16 + ^ .ra: .cfa -24 + ^ x29: .cfa -32 + ^
STACK CFI 522bc .cfa: sp 32 +
STACK CFI 522c4 .cfa: sp 0 +
STACK CFI 522c8 .cfa: x29 32 +
STACK CFI 522dc .cfa: sp 32 +
STACK CFI 522e4 .cfa: sp 0 +
STACK CFI INIT 522e8 64 .cfa: sp 0 +
STACK CFI 522ec .cfa: sp 32 +
STACK CFI 522f4 .cfa: x29 32 + x19: .cfa -16 + ^ .ra: .cfa -24 + ^ x29: .cfa -32 + ^
STACK CFI 52320 .cfa: sp 32 +
STACK CFI 52328 .cfa: sp 0 +
STACK CFI 5232c .cfa: x29 32 +
STACK CFI 52340 .cfa: sp 32 +
STACK CFI 52348 .cfa: sp 0 +
STACK CFI INIT 5234c 104 .cfa: sp 0 +
STACK CFI 52350 .cfa: sp 80 +
STACK CFI 52364 .cfa: x29 80 + x19: .cfa -8 + ^ x20: .cfa -16 + ^ x21: .cfa -24 + ^ x22: .cfa -32 + ^ x23: .cfa -40 + ^ x24: .cfa -48 + ^ x25: .cfa -56 + ^ x26: .cfa -64 + ^ .ra: .cfa -72 + ^ x29: .cfa -80 + ^
STACK CFI 52438 .cfa: sp 80 +
STACK CFI 5244c .cfa: sp 0 +
STACK CFI INIT 52450 1b4 .cfa: sp 0 +
STACK CFI INIT 52858 90 .cfa: sp 0 +
STACK CFI 5285c .cfa: sp 80 +
STACK CFI 52868 .cfa: x29 32 + x19: .cfa -8 + ^ x20: .cfa -16 + ^ .ra: .cfa -24 + ^ x29: .cfa -32 + ^
STACK CFI 528d4 .cfa: sp 80 +
STACK CFI 528e0 .cfa: sp 0 +
STACK CFI 528e4 .cfa: x29 32 +
STACK CFI INIT 52b54 14 .cfa: sp 0 +
STACK CFI INIT 52fd0 5c .cfa: sp 0 +
STACK CFI 52fd4 .cfa: sp 16 +
STACK CFI 52fd8 .cfa: x29 16 + .ra: .cfa -8 + ^ x29: .cfa -16 + ^
STACK CFI 5301c .cfa: sp 16 +
STACK CFI 53020 .cfa: sp 0 +
STACK CFI 53024 .cfa: sp 16 +
STACK CFI 53028 .cfa: sp 0 +
STACK CFI INIT 5302c 68 .cfa: sp 0 +
STACK CFI 53030 .cfa: sp 32 +
STACK CFI 53038 .cfa: x29 32 + x19: .cfa -16 + ^ .ra: .cfa -24 + ^ x29: .cfa -32 + ^
STACK CFI 5307c .cfa: sp 32 +
STACK CFI 53084 .cfa: sp 0 +
STACK CFI 53088 .cfa: sp 32 +
STACK CFI 53090 .cfa: sp 0 +
STACK CFI INIT 53094 54 .cfa: sp 0 +
STACK CFI 53098 .cfa: sp 16 +
STACK CFI 5309c .cfa: x29 16 + .ra: .cfa -8 + ^ x29: .cfa -16 + ^
STACK CFI 530d8 .cfa: sp 16 +
STACK CFI 530dc .cfa: sp 0 +
STACK CFI 530e0 .cfa: sp 16 +
STACK CFI 530e4 .cfa: sp 0 +
STACK CFI INIT 530e8 54 .cfa: sp 0 +
STACK CFI 530ec .cfa: sp 16 +
STACK CFI 530f0 .cfa: x29 16 + .ra: .cfa -8 + ^ x29: .cfa -16 + ^
STACK CFI 5312c .cfa: sp 16 +
STACK CFI 53130 .cfa: sp 0 +
STACK CFI 53134 .cfa: sp 16 +
STACK CFI 53138 .cfa: sp 0 +
STACK CFI INIT 5313c 54 .cfa: sp 0 +
STACK CFI 53140 .cfa: sp 16 +
STACK CFI 53144 .cfa: x29 16 + .ra: .cfa -8 + ^ x29: .cfa -16 + ^
STACK CFI 53180 .cfa: sp 16 +
STACK CFI 53184 .cfa: sp 0 +
STACK CFI 53188 .cfa: sp 16 +
STACK CFI 5318c .cfa: sp 0 +
STACK CFI INIT 53738 1c .cfa: sp 0 +
STACK CFI INIT 53cfc 1c .cfa: sp 0 +
STACK CFI INIT 542c0 1c .cfa: sp 0 +
STACK CFI INIT 549c4 7c .cfa: sp 0 +
STACK CFI 549c8 .cfa: sp 48 +
STACK CFI 549d4 .cfa: x29 48 + x19: .cfa -8 + ^ x20: .cfa -16 + ^ x21: .cfa -32 + ^ .ra: .cfa -40 + ^ x29: .cfa -48 + ^
STACK CFI 54a18 .cfa: sp 48 +
STACK CFI 54a24 .cfa: sp 0 +
STACK CFI 54a28 .cfa: x29 48 +
STACK CFI 54a30 .cfa: sp 48 +
STACK CFI 54a3c .cfa: sp 0 +
STACK CFI INIT 54a40 4 .cfa: sp 0 +
STACK CFI INIT 54d84 88 .cfa: sp 0 +
STACK CFI 54d88 .cfa: sp 48 +
STACK CFI 54d94 .cfa: x29 48 + x19: .cfa -8 + ^ x20: .cfa -16 + ^ x21: .cfa -24 + ^ x22: .cfa -32 + ^ .ra: .cfa -40 + ^ x29: .cfa -48 + ^
STACK CFI 54df4 .cfa: sp 48 +
STACK CFI 54e00 .cfa: sp 0 +
STACK CFI 54e04 .cfa: x29 48 +
STACK CFI INIT 55614 18c .cfa: sp 0 +
STACK CFI 55618 .cfa: sp 64 +
STACK CFI 55628 .cfa: x29 48 + x19: .cfa -8 + ^ x20: .cfa -16 + ^ x21: .cfa -32 + ^ .ra: .cfa -40 + ^ x29: .cfa -48 + ^
STACK CFI 55788 .cfa: sp 64 +
STACK CFI 55798 .cfa: sp 0 +
STACK CFI 5579c .cfa: x29 48 +
STACK CFI INIT 56480 44 .cfa: sp 0 +
STACK CFI 56484 .cfa: sp 32 +
STACK CFI 5648c .cfa: x29 32 + x19: .cfa -16 + ^ .ra: .cfa -24 + ^ x29: .cfa -32 + ^
STACK CFI 564a8 .cfa: sp 32 +
STACK CFI 564b0 .cfa: sp 0 +
STACK CFI 564b4 .cfa: x29 32 +
STACK CFI 564b8 .cfa: sp 32 +
STACK CFI 564c0 .cfa: sp 0 +
STACK CFI INIT 56614 44 .cfa: sp 0 +
STACK CFI 56618 .cfa: sp 32 +
STACK CFI 56620 .cfa: x29 32 + x19: .cfa -16 + ^ .ra: .cfa -24 + ^ x29: .cfa -32 + ^
STACK CFI 5663c .cfa: sp 32 +
STACK CFI 56644 .cfa: sp 0 +
STACK CFI 56648 .cfa: x29 32 +
STACK CFI 5664c .cfa: sp 32 +
STACK CFI 56654 .cfa: sp 0 +
STACK CFI INIT 56658 58 .cfa: sp 0 +
STACK CFI 5665c .cfa: sp 32 +
STACK CFI 56664 .cfa: x29 32 + x19: .cfa -16 + ^ .ra: .cfa -24 + ^ x29: .cfa -32 + ^
STACK CFI 5667c .cfa: sp 32 +
STACK CFI 56684 .cfa: sp 0 +
STACK CFI 56688 .cfa: x29 32 +
STACK CFI 566a4 .cfa: sp 32 +
STACK CFI 566ac .cfa: sp 0 +
STACK CFI INIT 57e1c a8 .cfa: sp 0 +
STACK CFI 57e20 .cfa: sp 112 +
STACK CFI 57e30 .cfa: x29 48 + x19: .cfa -8 + ^ x20: .cfa -16 + ^ x21: .cfa -24 + ^ x22: .cfa -32 + ^ .ra: .cfa -40 + ^ x29: .cfa -48 + ^
STACK CFI 57eac .cfa: sp 112 +
STACK CFI 57ebc .cfa: sp 0 +
STACK CFI 57ec0 .cfa: x29 48 +
STACK CFI INIT 57ec4 24c .cfa: sp 0 +
STACK CFI 57ec8 .cfa: sp 32 +
STACK CFI 57ed0 .cfa: x29 32 + x19: .cfa -8 + ^ x20: .cfa -16 + ^ .ra: .cfa -24 + ^ x29: .cfa -32 + ^
STACK CFI 58070 .cfa: sp 32 +
STACK CFI 58078 .cfa: sp 0 +
STACK CFI 5807c .cfa: x29 32 +
STACK CFI 58080 .cfa: sp 32 +
STACK CFI 58088 .cfa: sp 0 +
STACK CFI 5808c .cfa: sp 32 +
STACK CFI 58094 .cfa: sp 0 +
STACK CFI 58098 .cfa: x29 32 +
STACK CFI INIT 5835c 1b8 .cfa: sp 0 +
STACK CFI 58360 .cfa: sp 64 +
STACK CFI 5836c .cfa: x29 32 + x19: .cfa -8 + ^ x20: .cfa -16 + ^ .ra: .cfa -24 + ^ x29: .cfa -32 + ^
STACK CFI 584ac .cfa: sp 64 +
STACK CFI 584b8 .cfa: sp 0 +
STACK CFI 584bc .cfa: x29 32 +
STACK CFI INIT 58514 190 .cfa: sp 0 +
STACK CFI 58518 .cfa: sp 16 +
STACK CFI 5851c .cfa: x29 16 + .ra: .cfa -8 + ^ x29: .cfa -16 + ^
STACK CFI 585ac .cfa: sp 16 +
STACK CFI 585b0 .cfa: sp 0 +
STACK CFI 585b4 .cfa: x29 16 +
STACK CFI 58684 .cfa: sp 16 +
STACK CFI 58688 .cfa: sp 0 +
STACK CFI 5868c .cfa: x29 16 +
STACK CFI INIT 586a4 110 .cfa: sp 0 +
STACK CFI 586a8 .cfa: sp 128 +
STACK CFI 586b8 .cfa: x29 48 + x19: .cfa -8 + ^ x20: .cfa -16 + ^ x21: .cfa -32 + ^ .ra: .cfa -40 + ^ x29: .cfa -48 + ^
STACK CFI 58780 .cfa: sp 128 +
STACK CFI 58790 .cfa: sp 0 +
STACK CFI 58794 .cfa: x29 48 +
STACK CFI INIT 587b4 1bc .cfa: sp 0 +
STACK CFI 587b8 .cfa: sp 176 +
STACK CFI 587d4 .cfa: x29 96 + x19: .cfa -8 + ^ x20: .cfa -16 + ^ x21: .cfa -24 + ^ x22: .cfa -32 + ^ x23: .cfa -40 + ^ x24: .cfa -48 + ^ x25: .cfa -56 + ^ x26: .cfa -64 + ^ x27: .cfa -72 + ^ x28: .cfa -80 + ^ .ra: .cfa -88 + ^ x29: .cfa -96 + ^
STACK CFI 5894c .cfa: sp 176 +
STACK CFI 58968 .cfa: sp 0 +
STACK CFI 5896c .cfa: x29 96 +
STACK CFI INIT 58970 90 .cfa: sp 0 +
STACK CFI 58974 .cfa: sp 16 +
STACK CFI 58978 .cfa: x29 16 + .ra: .cfa -8 + ^ x29: .cfa -16 + ^
STACK CFI 589d4 .cfa: sp 16 +
STACK CFI 589d8 .cfa: sp 0 +
STACK CFI 589dc .cfa: x29 16 +
STACK CFI INIT 58a00 15c .cfa: sp 0 +
STACK CFI 58a04 .cfa: sp 112 +
STACK CFI 58a20 .cfa: x29 96 + x19: .cfa -8 + ^ x20: .cfa -16 + ^ x21: .cfa -24 + ^ x22: .cfa -32 + ^ x23: .cfa -40 + ^ x24: .cfa -48 + ^ x25: .cfa -56 + ^ x26: .cfa -64 + ^ x27: .cfa -72 + ^ x28: .cfa -80 + ^ .ra: .cfa -88 + ^ x29: .cfa -96 + ^
STACK CFI 58b0c .cfa: sp 112 +
STACK CFI 58b10 .cfa: x29 96 +
STACK CFI 58b18 .cfa: sp 112 +
STACK CFI 58b34 .cfa: sp 0 +
STACK CFI 58b38 .cfa: x29 96 +
STACK CFI 58b58 .cfa: sp 112 +
STACK CFI INIT 58c34 450 .cfa: sp 0 +
STACK CFI 58c38 .cfa: sp 160 +
STACK CFI 58c54 .cfa: x29 96 + x19: .cfa -8 + ^ x20: .cfa -16 + ^ x21: .cfa -24 + ^ x22: .cfa -32 + ^ x23: .cfa -40 + ^ x24: .cfa -48 + ^ x25: .cfa -56 + ^ x26: .cfa -64 + ^ x27: .cfa -72 + ^ x28: .cfa -80 + ^ .ra: .cfa -88 + ^ x29: .cfa -96 + ^
STACK CFI 59060 .cfa: sp 160 +
STACK CFI 5907c .cfa: sp 0 +
STACK CFI 59080 .cfa: x29 96 +
STACK CFI INIT 59084 204 .cfa: sp 0 +
STACK CFI 59088 .cfa: sp 80 +
STACK CFI 5909c .cfa: x29 80 + x19: .cfa -8 + ^ x20: .cfa -16 + ^ x21: .cfa -24 + ^ x22: .cfa -32 + ^ x23: .cfa -40 + ^ x24: .cfa -48 + ^ x25: .cfa -64 + ^ .ra: .cfa -72 + ^ x29: .cfa -80 + ^
STACK CFI 59108 .cfa: sp 80 +
STACK CFI 5911c .cfa: sp 0 +
STACK CFI 59120 .cfa: x29 80 +
STACK CFI 5912c .cfa: sp 80 +
STACK CFI 59140 .cfa: sp 0 +
STACK CFI 59144 .cfa: x29 80 +
STACK CFI INIT 59288 330 .cfa: sp 0 +
STACK CFI 5928c .cfa: sp 112 +
STACK CFI 592a8 .cfa: x29 96 + x19: .cfa -8 + ^ x20: .cfa -16 + ^ x21: .cfa -24 + ^ x22: .cfa -32 + ^ x23: .cfa -40 + ^ x24: .cfa -48 + ^ x25: .cfa -56 + ^ x26: .cfa -64 + ^ x27: .cfa -72 + ^ x28: .cfa -80 + ^ .ra: .cfa -88 + ^ x29: .cfa -96 + ^
STACK CFI 59594 .cfa: sp 112 +
STACK CFI 595b0 .cfa: sp 0 +
STACK CFI 595b4 .cfa: x29 96 +
STACK CFI INIT 595b8 1a0 .cfa: sp 0 +
STACK CFI 595bc .cfa: sp 32 +
STACK CFI 595c4 .cfa: x29 16 + .ra: .cfa -8 + ^ x29: .cfa -16 + ^
STACK CFI 59608 .cfa: sp 32 +
STACK CFI 59610 .cfa: sp 0 +
STACK CFI 59614 .cfa: x29 16 +
STACK CFI INIT 59758 1b4 .cfa: sp 0 +
STACK CFI INIT 5990c 1f0 .cfa: sp 0 +
STACK CFI 59910 .cfa: sp 80 +
STACK CFI 59924 .cfa: x29 80 + x19: .cfa -8 + ^ x20: .cfa -16 + ^ x21: .cfa -24 + ^ x22: .cfa -32 + ^ x23: .cfa -40 + ^ x24: .cfa -48 + ^ x25: .cfa -64 + ^ .ra: .cfa -72 + ^ x29: .cfa -80 + ^
STACK CFI 59ae4 .cfa: sp 80 +
STACK CFI 59af8 .cfa: sp 0 +
STACK CFI INIT 59afc 5e4 .cfa: sp 0 +
STACK CFI 59b00 .cfa: sp 160 +
STACK CFI 59b1c .cfa: x29 96 + x19: .cfa -8 + ^ x20: .cfa -16 + ^ x21: .cfa -24 + ^ x22: .cfa -32 + ^ x23: .cfa -40 + ^ x24: .cfa -48 + ^ x25: .cfa -56 + ^ x26: .cfa -64 + ^ x27: .cfa -72 + ^ x28: .cfa -80 + ^ .ra: .cfa -88 + ^ x29: .cfa -96 + ^
STACK CFI 5a0bc .cfa: sp 160 +
STACK CFI 5a0d8 .cfa: sp 0 +
STACK CFI 5a0dc .cfa: x29 96 +
STACK CFI INIT 5a0e0 1fc .cfa: sp 0 +
STACK CFI 5a0e4 .cfa: sp 48 +
STACK CFI 5a0f0 .cfa: x29 48 + x19: .cfa -8 + ^ x20: .cfa -16 + ^ x21: .cfa -32 + ^ .ra: .cfa -40 + ^ x29: .cfa -48 + ^
STACK CFI 5a19c .cfa: sp 48 +
STACK CFI 5a1a8 .cfa: sp 0 +
STACK CFI 5a1ac .cfa: x29 48 +
STACK CFI 5a258 .cfa: sp 48 +
STACK CFI 5a264 .cfa: sp 0 +
STACK CFI 5a268 .cfa: x29 48 +
STACK CFI 5a27c .cfa: sp 48 +
STACK CFI 5a288 .cfa: sp 0 +
STACK CFI 5a28c .cfa: x29 48 +
STACK CFI 5a2a0 .cfa: sp 48 +
STACK CFI 5a2ac .cfa: sp 0 +
STACK CFI 5a2b0 .cfa: x29 48 +
STACK CFI INIT 5a2dc 180 .cfa: sp 0 +
STACK CFI 5a2e0 .cfa: sp 80 +
STACK CFI 5a2f4 .cfa: x29 64 + x19: .cfa -8 + ^ x20: .cfa -16 + ^ x21: .cfa -24 + ^ x22: .cfa -32 + ^ x23: .cfa -40 + ^ x24: .cfa -48 + ^ .ra: .cfa -56 + ^ x29: .cfa -64 + ^
STACK CFI 5a440 .cfa: sp 80 +
STACK CFI 5a454 .cfa: sp 0 +
STACK CFI 5a458 .cfa: x29 64 +
STACK CFI INIT 5a45c 180 .cfa: sp 0 +
STACK CFI 5a460 .cfa: sp 80 +
STACK CFI 5a474 .cfa: x29 64 + x19: .cfa -8 + ^ x20: .cfa -16 + ^ x21: .cfa -24 + ^ x22: .cfa -32 + ^ x23: .cfa -40 + ^ x24: .cfa -48 + ^ .ra: .cfa -56 + ^ x29: .cfa -64 + ^
STACK CFI 5a5c0 .cfa: sp 80 +
STACK CFI 5a5d4 .cfa: sp 0 +
STACK CFI 5a5d8 .cfa: x29 64 +
STACK CFI INIT 5a5dc 180 .cfa: sp 0 +
STACK CFI 5a5e0 .cfa: sp 80 +
STACK CFI 5a5f4 .cfa: x29 64 + x19: .cfa -8 + ^ x20: .cfa -16 + ^ x21: .cfa -24 + ^ x22: .cfa -32 + ^ x23: .cfa -40 + ^ x24: .cfa -48 + ^ .ra: .cfa -56 + ^ x29: .cfa -64 + ^
STACK CFI 5a740 .cfa: sp 80 +
STACK CFI 5a754 .cfa: sp 0 +
STACK CFI 5a758 .cfa: x29 64 +
STACK CFI INIT 5a75c 138 .cfa: sp 0 +
STACK CFI 5a760 .cfa: sp 48 +
STACK CFI 5a76c .cfa: x29 48 + x19: .cfa -8 + ^ x20: .cfa -16 + ^ x21: .cfa -32 + ^ .ra: .cfa -40 + ^ x29: .cfa -48 + ^
STACK CFI 5a874 .cfa: sp 48 +
STACK CFI 5a880 .cfa: sp 0 +
STACK CFI 5a884 .cfa: sp 48 +
STACK CFI 5a890 .cfa: sp 0 +
STACK CFI INIT 5a894 4fc .cfa: sp 0 +
STACK CFI 5a898 .cfa: sp 160 +
STACK CFI 5a8b4 .cfa: x29 96 + x19: .cfa -8 + ^ x20: .cfa -16 + ^ x21: .cfa -24 + ^ x22: .cfa -32 + ^ x23: .cfa -40 + ^ x24: .cfa -48 + ^ x25: .cfa -56 + ^ x26: .cfa -64 + ^ x27: .cfa -72 + ^ x28: .cfa -80 + ^ .ra: .cfa -88 + ^ x29: .cfa -96 + ^
STACK CFI 5ad6c .cfa: sp 160 +
STACK CFI 5ad88 .cfa: sp 0 +
STACK CFI 5ad8c .cfa: x29 96 +
STACK CFI INIT 5ad90 1fc .cfa: sp 0 +
STACK CFI 5ad94 .cfa: sp 48 +
STACK CFI 5ada0 .cfa: x29 48 + x19: .cfa -8 + ^ x20: .cfa -16 + ^ x21: .cfa -32 + ^ .ra: .cfa -40 + ^ x29: .cfa -48 + ^
STACK CFI 5ae4c .cfa: sp 48 +
STACK CFI 5ae58 .cfa: sp 0 +
STACK CFI 5ae5c .cfa: x29 48 +
STACK CFI 5af08 .cfa: sp 48 +
STACK CFI 5af14 .cfa: sp 0 +
STACK CFI 5af18 .cfa: x29 48 +
STACK CFI 5af2c .cfa: sp 48 +
STACK CFI 5af38 .cfa: sp 0 +
STACK CFI 5af3c .cfa: x29 48 +
STACK CFI 5af50 .cfa: sp 48 +
STACK CFI 5af5c .cfa: sp 0 +
STACK CFI 5af60 .cfa: x29 48 +
STACK CFI INIT 5af8c 16c .cfa: sp 0 +
STACK CFI 5af90 .cfa: sp 64 +
STACK CFI 5afa0 .cfa: x29 48 + x19: .cfa -8 + ^ x20: .cfa -16 + ^ x21: .cfa -24 + ^ x22: .cfa -32 + ^ .ra: .cfa -40 + ^ x29: .cfa -48 + ^
STACK CFI 5b0e0 .cfa: sp 64 +
STACK CFI 5b0f0 .cfa: sp 0 +
STACK CFI 5b0f4 .cfa: x29 48 +
STACK CFI INIT 5b0f8 1dc .cfa: sp 0 +
STACK CFI 5b0fc .cfa: sp 64 +
STACK CFI 5b10c .cfa: x29 48 + x19: .cfa -8 + ^ x20: .cfa -16 + ^ x21: .cfa -24 + ^ x22: .cfa -32 + ^ .ra: .cfa -40 + ^ x29: .cfa -48 + ^
STACK CFI 5b2bc .cfa: sp 64 +
STACK CFI 5b2cc .cfa: sp 0 +
STACK CFI 5b2d0 .cfa: x29 48 +
STACK CFI INIT 5b2d4 2bc .cfa: sp 0 +
STACK CFI 5b2d8 .cfa: sp 64 +
STACK CFI 5b2e8 .cfa: x29 48 + x19: .cfa -8 + ^ x20: .cfa -16 + ^ x21: .cfa -24 + ^ x22: .cfa -32 + ^ .ra: .cfa -40 + ^ x29: .cfa -48 + ^
STACK CFI 5b578 .cfa: sp 64 +
STACK CFI 5b588 .cfa: sp 0 +
STACK CFI 5b58c .cfa: x29 48 +
STACK CFI INIT 5b590 13c .cfa: sp 0 +
STACK CFI 5b594 .cfa: sp 80 +
STACK CFI 5b5a8 .cfa: x29 80 + x19: .cfa -8 + ^ x20: .cfa -16 + ^ x21: .cfa -24 + ^ x22: .cfa -32 + ^ x23: .cfa -40 + ^ x24: .cfa -48 + ^ x25: .cfa -56 + ^ x26: .cfa -64 + ^ .ra: .cfa -72 + ^ x29: .cfa -80 + ^
STACK CFI 5b6ac .cfa: sp 80 +
STACK CFI 5b6c0 .cfa: sp 0 +
STACK CFI 5b6c4 .cfa: x29 80 +
STACK CFI INIT 5b6cc 54 .cfa: sp 0 +
STACK CFI 5b6d0 .cfa: sp 48 +
STACK CFI 5b6dc .cfa: x29 32 + x19: .cfa -8 + ^ x20: .cfa -16 + ^ .ra: .cfa -24 + ^ x29: .cfa -32 + ^
STACK CFI 5b70c .cfa: sp 48 +
STACK CFI 5b718 .cfa: sp 0 +
STACK CFI 5b71c .cfa: x29 32 +
STACK CFI INIT 5b720 e4 .cfa: sp 0 +
STACK CFI 5b724 .cfa: sp 80 +
STACK CFI 5b734 .cfa: x29 48 + x19: .cfa -8 + ^ x20: .cfa -16 + ^ x21: .cfa -24 + ^ x22: .cfa -32 + ^ .ra: .cfa -40 + ^ x29: .cfa -48 + ^
STACK CFI 5b7ec .cfa: sp 80 +
STACK CFI 5b7fc .cfa: sp 0 +
STACK CFI 5b800 .cfa: x29 48 +
STACK CFI INIT 5b804 1e8 .cfa: sp 0 +
STACK CFI 5b808 .cfa: sp 80 +
STACK CFI 5b81c .cfa: x29 80 + x19: .cfa -8 + ^ x20: .cfa -16 + ^ x21: .cfa -24 + ^ x22: .cfa -32 + ^ x23: .cfa -40 + ^ x24: .cfa -48 + ^ x25: .cfa -64 + ^ .ra: .cfa -72 + ^ x29: .cfa -80 + ^
STACK CFI 5b9b0 .cfa: sp 80 +
STACK CFI 5b9c4 .cfa: sp 0 +
STACK CFI 5b9c8 .cfa: x29 80 +
STACK CFI 5b9d4 .cfa: sp 80 +
STACK CFI 5b9e8 .cfa: sp 0 +
STACK CFI INIT 5b9ec 23c .cfa: sp 0 +
STACK CFI 5b9f0 .cfa: sp 80 +
STACK CFI 5ba00 .cfa: x29 48 + x19: .cfa -8 + ^ x20: .cfa -16 + ^ x21: .cfa -24 + ^ x22: .cfa -32 + ^ .ra: .cfa -40 + ^ x29: .cfa -48 + ^
STACK CFI 5bbd0 .cfa: sp 80 +
STACK CFI 5bbe0 .cfa: sp 0 +
STACK CFI 5bbe4 .cfa: x29 48 +
STACK CFI INIT 5bc28 16c .cfa: sp 0 +
STACK CFI 5bc2c .cfa: sp 48 +
STACK CFI 5bc38 .cfa: x29 48 + x19: .cfa -8 + ^ x20: .cfa -16 + ^ x21: .cfa -24 + ^ x22: .cfa -32 + ^ .ra: .cfa -40 + ^ x29: .cfa -48 + ^
STACK CFI 5bd84 .cfa: sp 48 +
STACK CFI 5bd90 .cfa: sp 0 +
STACK CFI INIT 5bd94 8 .cfa: sp 0 +
STACK CFI INIT 5bf8c 4 .cfa: sp 0 +
STACK CFI INIT 5bf90 8 .cfa: sp 0 +
STACK CFI INIT 5d950 4 .cfa: sp 0 +
STACK CFI INIT 5d954 4 .cfa: sp 0 +
STACK CFI INIT 5d958 4 .cfa: sp 0 +
STACK CFI INIT 5d95c 4 .cfa: sp 0 +
STACK CFI INIT 5d960 4 .cfa: sp 0 +
STACK CFI INIT 5d964 8 .cfa: sp 0 +
STACK CFI INIT 5d96c 8 .cfa: sp 0 +
STACK CFI INIT 5d974 8 .cfa: sp 0 +
STACK CFI INIT 5d97c 4 .cfa: sp 0 +
STACK CFI INIT 5d980 24 .cfa: sp 0 +
STACK CFI 5d984 .cfa: sp 16 +
STACK CFI 5d988 .cfa: x29 16 + .ra: .cfa -8 + ^ x29: .cfa -16 + ^
STACK CFI 5d99c .cfa: sp 16 +
STACK CFI 5d9a0 .cfa: sp 0 +
STACK CFI INIT 5d9a4 10 .cfa: sp 0 +
STACK CFI INIT 5d9b4 4 .cfa: sp 0 +
STACK CFI INIT 5d9b8 4 .cfa: sp 0 +
STACK CFI INIT 5d9bc 4 .cfa: sp 0 +
STACK CFI INIT 5d9c0 1c .cfa: sp 0 +
STACK CFI INIT 5d9dc c .cfa: sp 0 +
STACK CFI INIT 5d9e8 1c .cfa: sp 0 +
STACK CFI 5d9ec .cfa: sp 16 +
STACK CFI 5d9f0 .cfa: x29 16 + .ra: .cfa -8 + ^ x29: .cfa -16 + ^
STACK CFI 5d9fc .cfa: sp 16 +
STACK CFI 5da00 .cfa: sp 0 +
STACK CFI INIT 5eebc 54 .cfa: sp 0 +
STACK CFI 5eec0 .cfa: sp 32 +
STACK CFI 5eec8 .cfa: x29 32 + x19: .cfa -16 + ^ .ra: .cfa -24 + ^ x29: .cfa -32 + ^
STACK CFI 5ef04 .cfa: sp 32 +
STACK CFI 5ef0c .cfa: sp 0 +
STACK CFI INIT 5f000 54 .cfa: sp 0 +
STACK CFI 5f004 .cfa: sp 32 +
STACK CFI 5f00c .cfa: x29 32 + x19: .cfa -16 + ^ .ra: .cfa -24 + ^ x29: .cfa -32 + ^
STACK CFI 5f048 .cfa: sp 32 +
STACK CFI 5f050 .cfa: sp 0 +
STACK CFI INIT 5f054 50 .cfa: sp 0 +
STACK CFI 5f058 .cfa: sp 32 +
STACK CFI 5f060 .cfa: x29 32 + x19: .cfa -16 + ^ .ra: .cfa -24 + ^ x29: .cfa -32 + ^
STACK CFI 5f078 .cfa: sp 32 +
STACK CFI 5f080 .cfa: sp 0 +
STACK CFI 5f084 .cfa: x29 32 +
STACK CFI 5f098 .cfa: sp 32 +
STACK CFI 5f0a0 .cfa: sp 0 +
STACK CFI INIT 61520 60 .cfa: sp 0 +
STACK CFI 61524 .cfa: sp 32 +
STACK CFI 6152c .cfa: x29 32 + x19: .cfa -8 + ^ x20: .cfa -16 + ^ .ra: .cfa -24 + ^ x29: .cfa -32 + ^
STACK CFI 6154c .cfa: sp 32 +
STACK CFI 61554 .cfa: sp 0 +
STACK CFI 61558 .cfa: x29 32 +
STACK CFI 61574 .cfa: sp 32 +
STACK CFI 6157c .cfa: sp 0 +
STACK CFI INIT 61a68 3d4 .cfa: sp 0 +
STACK CFI 61a6c .cfa: sp 128 +
STACK CFI 61a88 .cfa: x29 96 + x19: .cfa -8 + ^ x20: .cfa -16 + ^ x21: .cfa -24 + ^ x22: .cfa -32 + ^ x23: .cfa -40 + ^ x24: .cfa -48 + ^ x25: .cfa -56 + ^ x26: .cfa -64 + ^ x27: .cfa -72 + ^ x28: .cfa -80 + ^ .ra: .cfa -88 + ^ x29: .cfa -96 + ^
STACK CFI 61e14 .cfa: sp 128 +
STACK CFI 61e30 .cfa: sp 0 +
STACK CFI 61e34 .cfa: x29 96 +
STACK CFI INIT 6203c 270 .cfa: sp 0 +
STACK CFI 62040 .cfa: sp 80 +
STACK CFI 62054 .cfa: x29 80 + x19: .cfa -8 + ^ x20: .cfa -16 + ^ x21: .cfa -24 + ^ x22: .cfa -32 + ^ x23: .cfa -40 + ^ x24: .cfa -48 + ^ x25: .cfa -64 + ^ .ra: .cfa -72 + ^ x29: .cfa -80 + ^
STACK CFI 62188 .cfa: sp 80 +
STACK CFI 6219c .cfa: sp 0 +
STACK CFI 621a0 .cfa: x29 80 +
STACK CFI 62294 .cfa: sp 80 +
STACK CFI 622a8 .cfa: sp 0 +
STACK CFI INIT 622ac 1d0 .cfa: sp 0 +
STACK CFI 622b0 .cfa: sp 64 +
STACK CFI 622c0 .cfa: x29 64 + x19: .cfa -8 + ^ x20: .cfa -16 + ^ x21: .cfa -24 + ^ x22: .cfa -32 + ^ x23: .cfa -40 + ^ x24: .cfa -48 + ^ .ra: .cfa -56 + ^ x29: .cfa -64 + ^
STACK CFI 62468 .cfa: sp 64 +
STACK CFI 62478 .cfa: sp 0 +
STACK CFI INIT 6247c 19c .cfa: sp 0 +
STACK CFI 62480 .cfa: sp 48 +
STACK CFI 6248c .cfa: x29 48 + x19: .cfa -8 + ^ x20: .cfa -16 + ^ x21: .cfa -24 + ^ x22: .cfa -32 + ^ .ra: .cfa -40 + ^ x29: .cfa -48 + ^
STACK CFI 625e4 .cfa: sp 48 +
STACK CFI 625f0 .cfa: sp 0 +
STACK CFI 625f4 .cfa: x29 48 +
STACK CFI 62600 .cfa: sp 48 +
STACK CFI 6260c .cfa: sp 0 +
STACK CFI 62610 .cfa: x29 48 +
STACK CFI INIT 63a38 44 .cfa: sp 0 +
STACK CFI 63a3c .cfa: sp 32 +
STACK CFI 63a44 .cfa: x29 32 + x19: .cfa -16 + ^ .ra: .cfa -24 + ^ x29: .cfa -32 + ^
STACK CFI 63a64 .cfa: sp 32 +
STACK CFI 63a6c .cfa: sp 0 +
STACK CFI 63a70 .cfa: sp 32 +
STACK CFI 63a78 .cfa: sp 0 +
STACK CFI INIT 63c80 9c .cfa: sp 0 +
STACK CFI 63c84 .cfa: sp 48 +
STACK CFI 63c90 .cfa: x29 48 + x19: .cfa -8 + ^ x20: .cfa -16 + ^ x21: .cfa -24 + ^ x22: .cfa -32 + ^ .ra: .cfa -40 + ^ x29: .cfa -48 + ^
STACK CFI 63cb0 .cfa: sp 48 +
STACK CFI 63cbc .cfa: sp 0 +
STACK CFI 63cc0 .cfa: x29 48 +
STACK CFI 63cf4 .cfa: sp 48 +
STACK CFI 63d00 .cfa: sp 0 +
STACK CFI 63d04 .cfa: x29 48 +
STACK CFI 63d0c .cfa: sp 48 +
STACK CFI 63d18 .cfa: sp 0 +
STACK CFI INIT 63d1c 1d4 .cfa: sp 0 +
STACK CFI 63d20 .cfa: sp 48 +
STACK CFI 63d2c .cfa: x29 48 + x19: .cfa -8 + ^ x20: .cfa -16 + ^ x21: .cfa -24 + ^ x22: .cfa -32 + ^ .ra: .cfa -40 + ^ x29: .cfa -48 + ^
STACK CFI 63e84 .cfa: sp 48 +
STACK CFI 63e90 .cfa: sp 0 +
STACK CFI 63e94 .cfa: x29 48 +
STACK CFI 63ed4 .cfa: sp 48 +
STACK CFI 63ee0 .cfa: sp 0 +
STACK CFI 63ee4 .cfa: x29 48 +
STACK CFI INIT 63ef0 14 .cfa: sp 0 +
STACK CFI 63ef4 .cfa: sp 16 +
STACK CFI 63ef8 .cfa: x29 16 + .ra: .cfa -8 + ^ x29: .cfa -16 + ^
STACK CFI INIT 63f04 1a4 .cfa: sp 0 +
STACK CFI 63f08 .cfa: sp 64 +
STACK CFI 63f18 .cfa: x29 64 + x19: .cfa -8 + ^ x20: .cfa -16 + ^ x21: .cfa -24 + ^ x22: .cfa -32 + ^ x23: .cfa -40 + ^ x24: .cfa -48 + ^ .ra: .cfa -56 + ^ x29: .cfa -64 + ^
STACK CFI 64074 .cfa: sp 64 +
STACK CFI 64084 .cfa: sp 0 +
STACK CFI 64088 .cfa: sp 64 +
STACK CFI 64098 .cfa: sp 0 +
STACK CFI 6409c .cfa: x29 64 +
STACK CFI INIT 640a8 14 .cfa: sp 0 +
STACK CFI 640ac .cfa: sp 16 +
STACK CFI 640b0 .cfa: x29 16 + .ra: .cfa -8 + ^ x29: .cfa -16 + ^
STACK CFI INIT 640bc 140 .cfa: sp 0 +
STACK CFI 640c0 .cfa: sp 80 +
STACK CFI 640d4 .cfa: x29 80 + x19: .cfa -8 + ^ x20: .cfa -16 + ^ x21: .cfa -24 + ^ x22: .cfa -32 + ^ x23: .cfa -40 + ^ x24: .cfa -48 + ^ x25: .cfa -64 + ^ .ra: .cfa -72 + ^ x29: .cfa -80 + ^
STACK CFI 641c0 .cfa: sp 80 +
STACK CFI 641d4 .cfa: sp 0 +
STACK CFI 641d8 .cfa: sp 80 +
STACK CFI 641ec .cfa: sp 0 +
STACK CFI 641f0 .cfa: x29 80 +
STACK CFI INIT 641fc 14 .cfa: sp 0 +
STACK CFI 64200 .cfa: sp 16 +
STACK CFI 64204 .cfa: x29 16 + .ra: .cfa -8 + ^ x29: .cfa -16 + ^
STACK CFI INIT 64210 15c .cfa: sp 0 +
STACK CFI 64214 .cfa: sp 64 +
STACK CFI 64224 .cfa: x29 64 + x19: .cfa -8 + ^ x20: .cfa -16 + ^ x21: .cfa -24 + ^ x22: .cfa -32 + ^ x23: .cfa -48 + ^ .ra: .cfa -56 + ^ x29: .cfa -64 + ^
STACK CFI 64358 .cfa: sp 64 +
STACK CFI 64368 .cfa: sp 0 +
STACK CFI INIT 6436c 7c .cfa: sp 0 +
STACK CFI 64370 .cfa: sp 48 +
STACK CFI 6437c .cfa: x29 48 + x19: .cfa -8 + ^ x20: .cfa -16 + ^ x21: .cfa -32 + ^ .ra: .cfa -40 + ^ x29: .cfa -48 + ^
STACK CFI 643c8 .cfa: sp 48 +
STACK CFI 643d4 .cfa: sp 0 +
STACK CFI 643d8 .cfa: sp 48 +
STACK CFI 643e4 .cfa: sp 0 +
STACK CFI INIT 649e0 184 .cfa: sp 0 +
STACK CFI 649e4 .cfa: sp 80 +
STACK CFI 649f8 .cfa: x29 80 + x19: .cfa -8 + ^ x20: .cfa -16 + ^ x21: .cfa -24 + ^ x22: .cfa -32 + ^ x23: .cfa -40 + ^ x24: .cfa -48 + ^ x25: .cfa -64 + ^ .ra: .cfa -72 + ^ x29: .cfa -80 + ^
STACK CFI 64b48 .cfa: sp 80 +
STACK CFI 64b5c .cfa: sp 0 +
STACK CFI 64b60 .cfa: x29 80 +
STACK CFI INIT 64b64 190 .cfa: sp 0 +
STACK CFI 64b68 .cfa: sp 64 +
STACK CFI 64b78 .cfa: x29 64 + x19: .cfa -8 + ^ x20: .cfa -16 + ^ x21: .cfa -24 + ^ x22: .cfa -32 + ^ x23: .cfa -40 + ^ x24: .cfa -48 + ^ .ra: .cfa -56 + ^ x29: .cfa -64 + ^
STACK CFI 64cdc .cfa: sp 64 +
STACK CFI 64cec .cfa: sp 0 +
STACK CFI 64cf0 .cfa: x29 64 +
STACK CFI INIT 650e0 190 .cfa: sp 0 +
STACK CFI 650e4 .cfa: sp 64 +
STACK CFI 650f4 .cfa: x29 64 + x19: .cfa -8 + ^ x20: .cfa -16 + ^ x21: .cfa -24 + ^ x22: .cfa -32 + ^ x23: .cfa -40 + ^ x24: .cfa -48 + ^ .ra: .cfa -56 + ^ x29: .cfa -64 + ^
STACK CFI 65258 .cfa: sp 64 +
STACK CFI 65268 .cfa: sp 0 +
STACK CFI 6526c .cfa: x29 64 +
STACK CFI INIT 65270 1c4 .cfa: sp 0 +
STACK CFI 65274 .cfa: sp 64 +
STACK CFI 65284 .cfa: x29 64 + x19: .cfa -8 + ^ x20: .cfa -16 + ^ x21: .cfa -24 + ^ x22: .cfa -32 + ^ x23: .cfa -40 + ^ x24: .cfa -48 + ^ .ra: .cfa -56 + ^ x29: .cfa -64 + ^
STACK CFI 6537c .cfa: sp 64 +
STACK CFI 6538c .cfa: sp 0 +
STACK CFI 65390 .cfa: x29 64 +
STACK CFI 65400 .cfa: sp 64 +
STACK CFI 65410 .cfa: sp 0 +
STACK CFI 65414 .cfa: x29 64 +
STACK CFI 65418 .cfa: sp 64 +
STACK CFI 65428 .cfa: sp 0 +
STACK CFI 6542c .cfa: x29 64 +
STACK CFI INIT 65434 218 .cfa: sp 0 +
STACK CFI 65438 .cfa: sp 64 +
STACK CFI 65448 .cfa: x29 64 + x19: .cfa -8 + ^ x20: .cfa -16 + ^ x21: .cfa -24 + ^ x22: .cfa -32 + ^ x23: .cfa -40 + ^ x24: .cfa -48 + ^ .ra: .cfa -56 + ^ x29: .cfa -64 + ^
STACK CFI 654f8 .cfa: sp 64 +
STACK CFI 65508 .cfa: sp 0 +
STACK CFI 6550c .cfa: x29 64 +
STACK CFI 65574 .cfa: sp 64 +
STACK CFI 65584 .cfa: sp 0 +
STACK CFI 65588 .cfa: x29 64 +
STACK CFI 65598 .cfa: sp 64 +
STACK CFI 655a8 .cfa: sp 0 +
STACK CFI 655ac .cfa: x29 64 +
STACK CFI INIT 6564c 198 .cfa: sp 0 +
STACK CFI 65650 .cfa: sp 64 +
STACK CFI 65660 .cfa: x29 64 + x19: .cfa -8 + ^ x20: .cfa -16 + ^ x21: .cfa -24 + ^ x22: .cfa -32 + ^ x23: .cfa -48 + ^ .ra: .cfa -56 + ^ x29: .cfa -64 + ^
STACK CFI 657b0 .cfa: sp 64 +
STACK CFI 657c0 .cfa: sp 0 +
STACK CFI 657c4 .cfa: sp 64 +
STACK CFI 657d4 .cfa: sp 0 +
STACK CFI 657d8 .cfa: x29 64 +
STACK CFI INIT 657e4 14 .cfa: sp 0 +
STACK CFI 657e8 .cfa: sp 16 +
STACK CFI 657ec .cfa: x29 16 + .ra: .cfa -8 + ^ x29: .cfa -16 + ^
STACK CFI INIT 65844 50 .cfa: sp 0 +
STACK CFI 65848 .cfa: sp 32 +
STACK CFI 65850 .cfa: x29 32 + x19: .cfa -16 + ^ .ra: .cfa -24 + ^ x29: .cfa -32 + ^
STACK CFI 65868 .cfa: sp 32 +
STACK CFI 65870 .cfa: sp 0 +
STACK CFI 65874 .cfa: x29 32 +
STACK CFI 65888 .cfa: sp 32 +
STACK CFI 65890 .cfa: sp 0 +
STACK CFI INIT 65ad0 278 .cfa: sp 0 +
STACK CFI 65ad4 .cfa: sp 112 +
STACK CFI 65af0 .cfa: x29 96 + x19: .cfa -8 + ^ x20: .cfa -16 + ^ x21: .cfa -24 + ^ x22: .cfa -32 + ^ x23: .cfa -40 + ^ x24: .cfa -48 + ^ x25: .cfa -56 + ^ x26: .cfa -64 + ^ x27: .cfa -72 + ^ x28: .cfa -80 + ^ .ra: .cfa -88 + ^ x29: .cfa -96 + ^
STACK CFI 65d28 .cfa: sp 112 +
STACK CFI 65d44 .cfa: sp 0 +
STACK CFI INIT 65d48 180 .cfa: sp 0 +
STACK CFI 65d4c .cfa: sp 64 +
STACK CFI 65d5c .cfa: x29 64 + x19: .cfa -8 + ^ x20: .cfa -16 + ^ x21: .cfa -24 + ^ x22: .cfa -32 + ^ x23: .cfa -48 + ^ .ra: .cfa -56 + ^ x29: .cfa -64 + ^
STACK CFI 65e94 .cfa: sp 64 +
STACK CFI 65ea4 .cfa: sp 0 +
STACK CFI 65ea8 .cfa: x29 64 +
STACK CFI 65eb0 .cfa: sp 64 +
STACK CFI 65ec0 .cfa: sp 0 +
STACK CFI 65ec4 .cfa: x29 64 +
STACK CFI INIT 65ec8 16c .cfa: sp 0 +
STACK CFI 65ecc .cfa: sp 96 +
STACK CFI 65ee4 .cfa: x29 96 + x19: .cfa -8 + ^ x20: .cfa -16 + ^ x21: .cfa -24 + ^ x22: .cfa -32 + ^ x23: .cfa -40 + ^ x24: .cfa -48 + ^ x25: .cfa -56 + ^ x26: .cfa -64 + ^ x27: .cfa -80 + ^ .ra: .cfa -88 + ^ x29: .cfa -96 + ^
STACK CFI 66014 .cfa: sp 96 +
STACK CFI 6602c .cfa: sp 0 +
STACK CFI 66030 .cfa: x29 96 +
STACK CFI INIT 66034 1d4 .cfa: sp 0 +
STACK CFI 66038 .cfa: sp 96 +
STACK CFI 66050 .cfa: x29 96 + x19: .cfa -8 + ^ x20: .cfa -16 + ^ x21: .cfa -24 + ^ x22: .cfa -32 + ^ x23: .cfa -40 + ^ x24: .cfa -48 + ^ x25: .cfa -56 + ^ x26: .cfa -64 + ^ x27: .cfa -80 + ^ .ra: .cfa -88 + ^ x29: .cfa -96 + ^
STACK CFI 661ec .cfa: sp 96 +
STACK CFI 66204 .cfa: sp 0 +
STACK CFI INIT 66208 1d4 .cfa: sp 0 +
STACK CFI 6620c .cfa: sp 96 +
STACK CFI 66224 .cfa: x29 96 + x19: .cfa -8 + ^ x20: .cfa -16 + ^ x21: .cfa -24 + ^ x22: .cfa -32 + ^ x23: .cfa -40 + ^ x24: .cfa -48 + ^ x25: .cfa -56 + ^ x26: .cfa -64 + ^ x27: .cfa -80 + ^ .ra: .cfa -88 + ^ x29: .cfa -96 + ^
STACK CFI 663c0 .cfa: sp 96 +
STACK CFI 663d8 .cfa: sp 0 +
STACK CFI INIT 66428 4 .cfa: sp 0 +
STACK CFI INIT 6642c c .cfa: sp 0 +
STACK CFI INIT 66438 4 .cfa: sp 0 +
STACK CFI INIT 6643c 4 .cfa: sp 0 +
STACK CFI INIT 66440 24 .cfa: sp 0 +
STACK CFI 66444 .cfa: sp 32 +
STACK CFI 6644c .cfa: x29 32 + x19: .cfa -16 + ^ .ra: .cfa -24 + ^ x29: .cfa -32 + ^
STACK CFI 66458 .cfa: sp 32 +
STACK CFI 66460 .cfa: sp 0 +
STACK CFI INIT 66464 18 .cfa: sp 0 +
STACK CFI INIT 6647c 1c .cfa: sp 0 +
STACK CFI INIT 66498 4 .cfa: sp 0 +
STACK CFI INIT 6649c 44 .cfa: sp 0 +
STACK CFI 664a0 .cfa: sp 32 +
STACK CFI 664a8 .cfa: x29 32 + x19: .cfa -16 + ^ .ra: .cfa -24 + ^ x29: .cfa -32 + ^
STACK CFI 664d4 .cfa: sp 32 +
STACK CFI 664dc .cfa: sp 0 +
STACK CFI INIT 664e0 14 .cfa: sp 0 +
STACK CFI INIT 664f4 44 .cfa: sp 0 +
STACK CFI 664f8 .cfa: sp 32 +
STACK CFI 66500 .cfa: x29 32 + x19: .cfa -16 + ^ .ra: .cfa -24 + ^ x29: .cfa -32 + ^
STACK CFI 6652c .cfa: sp 32 +
STACK CFI 66534 .cfa: sp 0 +
STACK CFI INIT 66848 258 .cfa: sp 0 +
STACK CFI 6684c .cfa: sp 64 +
STACK CFI 6685c .cfa: x29 64 + x19: .cfa -8 + ^ x20: .cfa -16 + ^ x21: .cfa -24 + ^ x22: .cfa -32 + ^ x23: .cfa -48 + ^ .ra: .cfa -56 + ^ x29: .cfa -64 + ^
STACK CFI 66940 .cfa: sp 64 +
STACK CFI 66950 .cfa: sp 0 +
STACK CFI 66954 .cfa: x29 64 +
STACK CFI 669e4 .cfa: sp 64 +
STACK CFI 669f4 .cfa: sp 0 +
STACK CFI 669f8 .cfa: x29 64 +
STACK CFI 66a84 .cfa: sp 64 +
STACK CFI 66a94 .cfa: sp 0 +
STACK CFI 66a98 .cfa: x29 64 +
STACK CFI INIT 66aa0 3fc .cfa: sp 0 +
STACK CFI 66aa4 .cfa: sp 32 +
STACK CFI 66aac .cfa: x29 32 + x19: .cfa -16 + ^ .ra: .cfa -24 + ^ x29: .cfa -32 + ^
STACK CFI 66b14 .cfa: sp 32 +
STACK CFI 66b1c .cfa: sp 0 +
STACK CFI 66b20 .cfa: x29 32 +
STACK CFI 66c14 .cfa: sp 32 +
STACK CFI 66c1c .cfa: sp 0 +
STACK CFI 66c20 .cfa: x29 32 +
STACK CFI 66c5c .cfa: sp 32 +
STACK CFI 66c64 .cfa: sp 0 +
STACK CFI 66c68 .cfa: x29 32 +
STACK CFI 66ca4 .cfa: sp 32 +
STACK CFI 66cac .cfa: sp 0 +
STACK CFI 66cb0 .cfa: x29 32 +
STACK CFI 66cdc .cfa: sp 32 +
STACK CFI 66ce4 .cfa: sp 0 +
STACK CFI 66ce8 .cfa: x29 32 +
STACK CFI 66d04 .cfa: sp 32 +
STACK CFI 66d0c .cfa: sp 0 +
STACK CFI 66d10 .cfa: x29 32 +
STACK CFI 66d74 .cfa: sp 32 +
STACK CFI 66d7c .cfa: sp 0 +
STACK CFI 66d80 .cfa: x29 32 +
STACK CFI 66e50 .cfa: sp 32 +
STACK CFI 66e58 .cfa: sp 0 +
STACK CFI 66e5c .cfa: x29 32 +
STACK CFI 66e88 .cfa: sp 32 +
STACK CFI 66e90 .cfa: sp 0 +
STACK CFI 66e94 .cfa: x29 32 +
STACK CFI INIT 66f08 b8 .cfa: sp 0 +
STACK CFI 66f0c .cfa: sp 64 +
STACK CFI 66f1c .cfa: x29 64 + x19: .cfa -8 + ^ x20: .cfa -16 + ^ x21: .cfa -24 + ^ x22: .cfa -32 + ^ x23: .cfa -48 + ^ .ra: .cfa -56 + ^ x29: .cfa -64 + ^
STACK CFI 66fac .cfa: sp 64 +
STACK CFI 66fbc .cfa: sp 0 +
STACK CFI INIT 6700c 44 .cfa: sp 0 +
STACK CFI 67010 .cfa: sp 32 +
STACK CFI 67018 .cfa: x29 32 + x19: .cfa -16 + ^ .ra: .cfa -24 + ^ x29: .cfa -32 + ^
STACK CFI 67044 .cfa: sp 32 +
STACK CFI 6704c .cfa: sp 0 +
STACK CFI INIT 67050 64 .cfa: sp 0 +
STACK CFI INIT 670b4 44 .cfa: sp 0 +
STACK CFI 670b8 .cfa: sp 32 +
STACK CFI 670c0 .cfa: x29 32 + x19: .cfa -16 + ^ .ra: .cfa -24 + ^ x29: .cfa -32 + ^
STACK CFI 670ec .cfa: sp 32 +
STACK CFI 670f4 .cfa: sp 0 +
STACK CFI INIT 670f8 54 .cfa: sp 0 +
STACK CFI INIT 6714c 60 .cfa: sp 0 +
STACK CFI 67150 .cfa: sp 32 +
STACK CFI 67158 .cfa: x29 32 + x19: .cfa -16 + ^ .ra: .cfa -24 + ^ x29: .cfa -32 + ^
STACK CFI 67194 .cfa: sp 32 +
STACK CFI 6719c .cfa: sp 0 +
STACK CFI 671a0 .cfa: sp 32 +
STACK CFI 671a8 .cfa: sp 0 +
STACK CFI INIT 671ac 5c .cfa: sp 0 +
STACK CFI 671b0 .cfa: sp 32 +
STACK CFI 671b8 .cfa: x29 32 + x19: .cfa -16 + ^ .ra: .cfa -24 + ^ x29: .cfa -32 + ^
STACK CFI 671fc .cfa: sp 32 +
STACK CFI 67204 .cfa: sp 0 +
STACK CFI INIT 67208 110 .cfa: sp 0 +
STACK CFI INIT 67318 a0 .cfa: sp 0 +
STACK CFI 6731c .cfa: sp 48 +
STACK CFI 67328 .cfa: x29 48 + x19: .cfa -8 + ^ x20: .cfa -16 + ^ x21: .cfa -32 + ^ .ra: .cfa -40 + ^ x29: .cfa -48 + ^
STACK CFI 67398 .cfa: sp 48 +
STACK CFI 673a4 .cfa: sp 0 +
STACK CFI 673a8 .cfa: sp 48 +
STACK CFI 673b4 .cfa: sp 0 +
STACK CFI INIT 673b8 98 .cfa: sp 0 +
STACK CFI 673bc .cfa: sp 48 +
STACK CFI 673c8 .cfa: x29 48 + x19: .cfa -8 + ^ x20: .cfa -16 + ^ x21: .cfa -32 + ^ .ra: .cfa -40 + ^ x29: .cfa -48 + ^
STACK CFI 67440 .cfa: sp 48 +
STACK CFI 6744c .cfa: sp 0 +
STACK CFI INIT 67608 178 .cfa: sp 0 +
STACK CFI 6760c .cfa: sp 64 +
STACK CFI 6761c .cfa: x29 64 + x19: .cfa -8 + ^ x20: .cfa -16 + ^ x21: .cfa -24 + ^ x22: .cfa -32 + ^ x23: .cfa -48 + ^ .ra: .cfa -56 + ^ x29: .cfa -64 + ^
STACK CFI 67670 .cfa: sp 64 +
STACK CFI 67680 .cfa: sp 0 +
STACK CFI 67684 .cfa: x29 64 +
STACK CFI 67730 .cfa: sp 64 +
STACK CFI 67740 .cfa: sp 0 +
STACK CFI 67744 .cfa: x29 64 +
STACK CFI 67764 .cfa: sp 64 +
STACK CFI 67774 .cfa: sp 0 +
STACK CFI 67778 .cfa: x29 64 +
STACK CFI INIT 6791c 68 .cfa: sp 0 +
STACK CFI 67920 .cfa: sp 32 +
STACK CFI 67928 .cfa: x29 32 + x19: .cfa -16 + ^ .ra: .cfa -24 + ^ x29: .cfa -32 + ^
STACK CFI 67960 .cfa: sp 32 +
STACK CFI 67968 .cfa: sp 0 +
STACK CFI 6796c .cfa: x29 32 +
STACK CFI 67978 .cfa: sp 32 +
STACK CFI 67980 .cfa: sp 0 +
STACK CFI INIT 67984 44 .cfa: sp 0 +
STACK CFI 67988 .cfa: sp 32 +
STACK CFI 67990 .cfa: x29 32 + x19: .cfa -16 + ^ .ra: .cfa -24 + ^ x29: .cfa -32 + ^
STACK CFI 679bc .cfa: sp 32 +
STACK CFI 679c4 .cfa: sp 0 +
STACK CFI INIT 67bc8 4e0 .cfa: sp 0 +
STACK CFI 67bcc .cfa: sp 32 +
STACK CFI 67bd4 .cfa: x29 32 + x19: .cfa -16 + ^ .ra: .cfa -24 + ^ x29: .cfa -32 + ^
STACK CFI 67c28 .cfa: sp 32 +
STACK CFI 67c30 .cfa: sp 0 +
STACK CFI 67c34 .cfa: x29 32 +
STACK CFI 67e74 .cfa: sp 32 +
STACK CFI 67e7c .cfa: sp 0 +
STACK CFI 67e80 .cfa: x29 32 +
STACK CFI 67e9c .cfa: sp 32 +
STACK CFI 67ea4 .cfa: sp 0 +
STACK CFI 67ea8 .cfa: x29 32 +
STACK CFI 67eb8 .cfa: sp 32 +
STACK CFI 67ec0 .cfa: sp 0 +
STACK CFI 67ec4 .cfa: x29 32 +
STACK CFI 67ed4 .cfa: sp 32 +
STACK CFI 67edc .cfa: sp 0 +
STACK CFI 67ee0 .cfa: x29 32 +
STACK CFI 67ef0 .cfa: sp 32 +
STACK CFI 67ef8 .cfa: sp 0 +
STACK CFI 67efc .cfa: x29 32 +
STACK CFI 67f0c .cfa: sp 32 +
STACK CFI 67f14 .cfa: sp 0 +
STACK CFI 67f18 .cfa: x29 32 +
STACK CFI 67f28 .cfa: sp 32 +
STACK CFI 67f30 .cfa: sp 0 +
STACK CFI 67f34 .cfa: x29 32 +
STACK CFI 67f44 .cfa: sp 32 +
STACK CFI 67f4c .cfa: sp 0 +
STACK CFI 67f50 .cfa: x29 32 +
STACK CFI 67f5c .cfa: sp 32 +
STACK CFI 67f64 .cfa: sp 0 +
STACK CFI 67f68 .cfa: x29 32 +
STACK CFI 67f80 .cfa: sp 32 +
STACK CFI 67f88 .cfa: sp 0 +
STACK CFI 67f8c .cfa: x29 32 +
STACK CFI 67fa8 .cfa: sp 32 +
STACK CFI 67fb0 .cfa: sp 0 +
STACK CFI 67fb4 .cfa: x29 32 +
STACK CFI 67fd0 .cfa: sp 32 +
STACK CFI 67fd8 .cfa: sp 0 +
STACK CFI 67fdc .cfa: x29 32 +
STACK CFI 67ff8 .cfa: sp 32 +
STACK CFI 68000 .cfa: sp 0 +
STACK CFI 68004 .cfa: x29 32 +
STACK CFI 68020 .cfa: sp 32 +
STACK CFI 68028 .cfa: sp 0 +
STACK CFI 6802c .cfa: x29 32 +
STACK CFI 68048 .cfa: sp 32 +
STACK CFI 68050 .cfa: sp 0 +
STACK CFI 68054 .cfa: x29 32 +
STACK CFI 68070 .cfa: sp 32 +
STACK CFI 68078 .cfa: sp 0 +
STACK CFI 6807c .cfa: x29 32 +
STACK CFI 68098 .cfa: sp 32 +
STACK CFI 680a0 .cfa: sp 0 +
STACK CFI 680a4 .cfa: x29 32 +
STACK CFI INIT 68240 cc .cfa: sp 0 +
STACK CFI 68244 .cfa: sp 48 +
STACK CFI 68250 .cfa: x29 48 + x19: .cfa -8 + ^ x20: .cfa -16 + ^ x21: .cfa -32 + ^ .ra: .cfa -40 + ^ x29: .cfa -48 + ^
STACK CFI 682fc .cfa: sp 48 +
STACK CFI 68308 .cfa: sp 0 +
STACK CFI INIT 6830c 60 .cfa: sp 0 +
STACK CFI 68310 .cfa: sp 32 +
STACK CFI 68318 .cfa: x29 32 + x19: .cfa -16 + ^ .ra: .cfa -24 + ^ x29: .cfa -32 + ^
STACK CFI 68354 .cfa: sp 32 +
STACK CFI 6835c .cfa: sp 0 +
STACK CFI 68360 .cfa: sp 32 +
STACK CFI 68368 .cfa: sp 0 +
STACK CFI INIT 6836c 5c .cfa: sp 0 +
STACK CFI 68370 .cfa: sp 32 +
STACK CFI 68378 .cfa: x29 32 + x19: .cfa -16 + ^ .ra: .cfa -24 + ^ x29: .cfa -32 + ^
STACK CFI 683bc .cfa: sp 32 +
STACK CFI 683c4 .cfa: sp 0 +
STACK CFI INIT 683c8 80 .cfa: sp 0 +
STACK CFI 683cc .cfa: sp 32 +
STACK CFI 683d4 .cfa: x29 32 + x19: .cfa -8 + ^ x20: .cfa -16 + ^ .ra: .cfa -24 + ^ x29: .cfa -32 + ^
STACK CFI 68424 .cfa: sp 32 +
STACK CFI 6842c .cfa: sp 0 +
STACK CFI 68430 .cfa: x29 32 +
STACK CFI 6843c .cfa: sp 32 +
STACK CFI 68444 .cfa: sp 0 +
STACK CFI INIT 68448 60 .cfa: sp 0 +
STACK CFI 6844c .cfa: sp 32 +
STACK CFI 68454 .cfa: x29 32 + x19: .cfa -16 + ^ .ra: .cfa -24 + ^ x29: .cfa -32 + ^
STACK CFI 68490 .cfa: sp 32 +
STACK CFI 68498 .cfa: sp 0 +
STACK CFI 6849c .cfa: sp 32 +
STACK CFI 684a4 .cfa: sp 0 +
STACK CFI INIT 684a8 5c .cfa: sp 0 +
STACK CFI 684ac .cfa: sp 32 +
STACK CFI 684b4 .cfa: x29 32 + x19: .cfa -16 + ^ .ra: .cfa -24 + ^ x29: .cfa -32 + ^
STACK CFI 684f8 .cfa: sp 32 +
STACK CFI 68500 .cfa: sp 0 +
STACK CFI INIT 68504 48 .cfa: sp 0 +
STACK CFI INIT 6854c 44 .cfa: sp 0 +
STACK CFI 68550 .cfa: sp 32 +
STACK CFI 68558 .cfa: x29 32 + x19: .cfa -16 + ^ .ra: .cfa -24 + ^ x29: .cfa -32 + ^
STACK CFI 68584 .cfa: sp 32 +
STACK CFI 6858c .cfa: sp 0 +
STACK CFI INIT 68590 48 .cfa: sp 0 +
STACK CFI INIT 685d8 60 .cfa: sp 0 +
STACK CFI 685dc .cfa: sp 32 +
STACK CFI 685e4 .cfa: x29 32 + x19: .cfa -16 + ^ .ra: .cfa -24 + ^ x29: .cfa -32 + ^
STACK CFI 68620 .cfa: sp 32 +
STACK CFI 68628 .cfa: sp 0 +
STACK CFI 6862c .cfa: sp 32 +
STACK CFI 68634 .cfa: sp 0 +
STACK CFI INIT 68638 5c .cfa: sp 0 +
STACK CFI 6863c .cfa: sp 32 +
STACK CFI 68644 .cfa: x29 32 + x19: .cfa -16 + ^ .ra: .cfa -24 + ^ x29: .cfa -32 + ^
STACK CFI 68688 .cfa: sp 32 +
STACK CFI 68690 .cfa: sp 0 +
STACK CFI INIT 68694 f8 .cfa: sp 0 +
STACK CFI 68698 .cfa: sp 64 +
STACK CFI 686a8 .cfa: x29 64 + x19: .cfa -8 + ^ x20: .cfa -16 + ^ x21: .cfa -24 + ^ x22: .cfa -32 + ^ x23: .cfa -40 + ^ x24: .cfa -48 + ^ .ra: .cfa -56 + ^ x29: .cfa -64 + ^
STACK CFI 686ec .cfa: sp 64 +
STACK CFI 686fc .cfa: sp 0 +
STACK CFI 68700 .cfa: x29 64 +
STACK CFI 68778 .cfa: sp 64 +
STACK CFI 68788 .cfa: sp 0 +
STACK CFI INIT 6878c 60 .cfa: sp 0 +
STACK CFI 68790 .cfa: sp 32 +
STACK CFI 68798 .cfa: x29 32 + x19: .cfa -16 + ^ .ra: .cfa -24 + ^ x29: .cfa -32 + ^
STACK CFI 687d4 .cfa: sp 32 +
STACK CFI 687dc .cfa: sp 0 +
STACK CFI 687e0 .cfa: sp 32 +
STACK CFI 687e8 .cfa: sp 0 +
STACK CFI INIT 687ec 5c .cfa: sp 0 +
STACK CFI 687f0 .cfa: sp 32 +
STACK CFI 687f8 .cfa: x29 32 + x19: .cfa -16 + ^ .ra: .cfa -24 + ^ x29: .cfa -32 + ^
STACK CFI 6883c .cfa: sp 32 +
STACK CFI 68844 .cfa: sp 0 +
STACK CFI INIT 68848 98 .cfa: sp 0 +
STACK CFI INIT 688e0 44 .cfa: sp 0 +
STACK CFI 688e4 .cfa: sp 32 +
STACK CFI 688ec .cfa: x29 32 + x19: .cfa -16 + ^ .ra: .cfa -24 + ^ x29: .cfa -32 + ^
STACK CFI 68918 .cfa: sp 32 +
STACK CFI 68920 .cfa: sp 0 +
STACK CFI INIT 68924 c4 .cfa: sp 0 +
STACK CFI 68928 .cfa: sp 16 +
STACK CFI 6892c .cfa: x29 16 + .ra: .cfa -8 + ^ x29: .cfa -16 + ^
STACK CFI 68990 .cfa: sp 16 +
STACK CFI 68994 .cfa: sp 0 +
STACK CFI 68998 .cfa: x29 16 +
STACK CFI 689dc .cfa: sp 16 +
STACK CFI 689e0 .cfa: sp 0 +
STACK CFI 689e4 .cfa: x29 16 +
STACK CFI INIT 689e8 478 .cfa: sp 0 +
STACK CFI 689ec .cfa: sp 80 +
STACK CFI 68a00 .cfa: x29 80 + x19: .cfa -8 + ^ x20: .cfa -16 + ^ x21: .cfa -24 + ^ x22: .cfa -32 + ^ x23: .cfa -40 + ^ x24: .cfa -48 + ^ x25: .cfa -64 + ^ .ra: .cfa -72 + ^ x29: .cfa -80 + ^
STACK CFI 68cc8 .cfa: sp 80 +
STACK CFI 68cdc .cfa: sp 0 +
STACK CFI 68ce0 .cfa: x29 80 +
STACK CFI 68e40 .cfa: sp 80 +
STACK CFI 68e54 .cfa: sp 0 +
STACK CFI 68e58 .cfa: x29 80 +
STACK CFI INIT 6903c ac .cfa: sp 0 +
STACK CFI 69040 .cfa: sp 48 +
STACK CFI 6904c .cfa: x29 48 + x19: .cfa -8 + ^ x20: .cfa -16 + ^ x21: .cfa -24 + ^ x22: .cfa -32 + ^ .ra: .cfa -40 + ^ x29: .cfa -48 + ^
STACK CFI 6906c .cfa: sp 48 +
STACK CFI 69078 .cfa: sp 0 +
STACK CFI 6907c .cfa: x29 48 +
STACK CFI 690c0 .cfa: sp 48 +
STACK CFI 690cc .cfa: sp 0 +
STACK CFI 690d0 .cfa: x29 48 +
STACK CFI 690d8 .cfa: sp 48 +
STACK CFI 690e4 .cfa: sp 0 +
STACK CFI INIT 690e8 154 .cfa: sp 0 +
STACK CFI 690ec .cfa: sp 48 +
STACK CFI 690f8 .cfa: x29 48 + x19: .cfa -8 + ^ x20: .cfa -16 + ^ x21: .cfa -24 + ^ x22: .cfa -32 + ^ .ra: .cfa -40 + ^ x29: .cfa -48 + ^
STACK CFI 6921c .cfa: sp 48 +
STACK CFI 69228 .cfa: sp 0 +
STACK CFI 6922c .cfa: sp 48 +
STACK CFI 69238 .cfa: sp 0 +
STACK CFI INIT 6923c 24 .cfa: sp 0 +
STACK CFI 69240 .cfa: sp 32 +
STACK CFI 69248 .cfa: x29 32 + x19: .cfa -16 + ^ .ra: .cfa -24 + ^ x29: .cfa -32 + ^
STACK CFI 69254 .cfa: sp 32 +
STACK CFI 6925c .cfa: sp 0 +
STACK CFI INIT 69d14 44 .cfa: sp 0 +
STACK CFI 69d18 .cfa: sp 32 +
STACK CFI 69d20 .cfa: x29 32 + x19: .cfa -16 + ^ .ra: .cfa -24 + ^ x29: .cfa -32 + ^
STACK CFI 69d3c .cfa: sp 32 +
STACK CFI 69d44 .cfa: sp 0 +
STACK CFI 69d48 .cfa: x29 32 +
STACK CFI 69d4c .cfa: sp 32 +
STACK CFI 69d54 .cfa: sp 0 +
STACK CFI INIT 6a2f4 14 .cfa: sp 0 +
STACK CFI 6a2f8 .cfa: sp 16 +
STACK CFI 6a2fc .cfa: x29 16 + .ra: .cfa -8 + ^ x29: .cfa -16 + ^
STACK CFI INIT 6ace0 c4 .cfa: sp 0 +
STACK CFI 6ace4 .cfa: sp 32 +
STACK CFI 6acec .cfa: x29 32 + x19: .cfa -8 + ^ x20: .cfa -16 + ^ .ra: .cfa -24 + ^ x29: .cfa -32 + ^
STACK CFI 6ad90 .cfa: sp 32 +
STACK CFI 6ad98 .cfa: sp 0 +
STACK CFI 6ad9c .cfa: x29 32 +
STACK CFI INIT 6ada4 138 .cfa: sp 0 +
STACK CFI 6ada8 .cfa: sp 80 +
STACK CFI 6adb8 .cfa: x29 48 + x19: .cfa -8 + ^ x20: .cfa -16 + ^ x21: .cfa -32 + ^ .ra: .cfa -40 + ^ x29: .cfa -48 + ^
STACK CFI 6ae9c .cfa: sp 80 +
STACK CFI 6aeac .cfa: sp 0 +
STACK CFI 6aeb0 .cfa: x29 48 +
STACK CFI INIT 6aedc 190 .cfa: sp 0 +
STACK CFI 6aee0 .cfa: sp 32 +
STACK CFI 6aee8 .cfa: x29 32 + x19: .cfa -16 + ^ .ra: .cfa -24 + ^ x29: .cfa -32 + ^
STACK CFI 6af4c .cfa: sp 32 +
STACK CFI 6af54 .cfa: sp 0 +
STACK CFI 6af58 .cfa: x29 32 +
STACK CFI 6af68 .cfa: sp 32 +
STACK CFI 6af70 .cfa: sp 0 +
STACK CFI 6af74 .cfa: x29 32 +
STACK CFI 6af90 .cfa: sp 32 +
STACK CFI 6af98 .cfa: sp 0 +
STACK CFI 6af9c .cfa: x29 32 +
STACK CFI 6afb8 .cfa: sp 32 +
STACK CFI 6afc0 .cfa: sp 0 +
STACK CFI 6afc4 .cfa: x29 32 +
STACK CFI 6afd4 .cfa: sp 32 +
STACK CFI 6afdc .cfa: sp 0 +
STACK CFI 6afe0 .cfa: x29 32 +
STACK CFI 6aff0 .cfa: sp 32 +
STACK CFI 6aff8 .cfa: sp 0 +
STACK CFI 6affc .cfa: x29 32 +
STACK CFI 6b018 .cfa: sp 32 +
STACK CFI 6b020 .cfa: sp 0 +
STACK CFI 6b024 .cfa: x29 32 +
STACK CFI 6b03c .cfa: sp 32 +
STACK CFI 6b044 .cfa: sp 0 +
STACK CFI 6b048 .cfa: x29 32 +
STACK CFI 6b05c .cfa: sp 32 +
STACK CFI 6b064 .cfa: sp 0 +
STACK CFI 6b068 .cfa: x29 32 +
STACK CFI INIT 6b06c 414 .cfa: sp 0 +
STACK CFI 6b070 .cfa: sp 32 +
STACK CFI 6b078 .cfa: x29 32 + x19: .cfa -8 + ^ x20: .cfa -16 + ^ .ra: .cfa -24 + ^ x29: .cfa -32 + ^
STACK CFI 6b0d4 .cfa: sp 32 +
STACK CFI 6b0dc .cfa: sp 0 +
STACK CFI 6b0e0 .cfa: x29 32 +
STACK CFI 6b224 .cfa: sp 32 +
STACK CFI 6b22c .cfa: sp 0 +
STACK CFI 6b230 .cfa: x29 32 +
STACK CFI 6b254 .cfa: sp 32 +
STACK CFI 6b25c .cfa: sp 0 +
STACK CFI 6b260 .cfa: x29 32 +
STACK CFI 6b270 .cfa: sp 32 +
STACK CFI 6b278 .cfa: sp 0 +
STACK CFI 6b27c .cfa: x29 32 +
STACK CFI 6b28c .cfa: sp 32 +
STACK CFI 6b294 .cfa: sp 0 +
STACK CFI 6b298 .cfa: x29 32 +
STACK CFI 6b2a8 .cfa: sp 32 +
STACK CFI 6b2b0 .cfa: sp 0 +
STACK CFI 6b2b4 .cfa: x29 32 +
STACK CFI 6b2c4 .cfa: sp 32 +
STACK CFI 6b2cc .cfa: sp 0 +
STACK CFI 6b2d0 .cfa: x29 32 +
STACK CFI 6b2e0 .cfa: sp 32 +
STACK CFI 6b2e8 .cfa: sp 0 +
STACK CFI 6b2ec .cfa: x29 32 +
STACK CFI 6b2fc .cfa: sp 32 +
STACK CFI 6b304 .cfa: sp 0 +
STACK CFI 6b308 .cfa: x29 32 +
STACK CFI 6b318 .cfa: sp 32 +
STACK CFI 6b320 .cfa: sp 0 +
STACK CFI 6b324 .cfa: x29 32 +
STACK CFI 6b340 .cfa: sp 32 +
STACK CFI 6b348 .cfa: sp 0 +
STACK CFI 6b34c .cfa: x29 32 +
STACK CFI 6b368 .cfa: sp 32 +
STACK CFI 6b370 .cfa: sp 0 +
STACK CFI 6b374 .cfa: x29 32 +
STACK CFI 6b390 .cfa: sp 32 +
STACK CFI 6b398 .cfa: sp 0 +
STACK CFI 6b39c .cfa: x29 32 +
STACK CFI 6b3b8 .cfa: sp 32 +
STACK CFI 6b3c0 .cfa: sp 0 +
STACK CFI 6b3c4 .cfa: x29 32 +
STACK CFI 6b3e0 .cfa: sp 32 +
STACK CFI 6b3e8 .cfa: sp 0 +
STACK CFI 6b3ec .cfa: x29 32 +
STACK CFI 6b408 .cfa: sp 32 +
STACK CFI 6b410 .cfa: sp 0 +
STACK CFI 6b414 .cfa: x29 32 +
STACK CFI 6b430 .cfa: sp 32 +
STACK CFI 6b438 .cfa: sp 0 +
STACK CFI 6b43c .cfa: x29 32 +
STACK CFI 6b454 .cfa: sp 32 +
STACK CFI 6b45c .cfa: sp 0 +
STACK CFI 6b460 .cfa: x29 32 +
STACK CFI 6b470 .cfa: sp 32 +
STACK CFI 6b478 .cfa: sp 0 +
STACK CFI 6b47c .cfa: x29 32 +
STACK CFI INIT 6b914 3d8 .cfa: sp 0 +
STACK CFI 6b918 .cfa: sp 80 +
STACK CFI 6b92c .cfa: x29 80 + x19: .cfa -8 + ^ x20: .cfa -16 + ^ x21: .cfa -24 + ^ x22: .cfa -32 + ^ x23: .cfa -40 + ^ x24: .cfa -48 + ^ x25: .cfa -56 + ^ x26: .cfa -64 + ^ .ra: .cfa -72 + ^ x29: .cfa -80 + ^
STACK CFI 6bcb0 .cfa: sp 80 +
STACK CFI 6bcc4 .cfa: sp 0 +
STACK CFI 6bcc8 .cfa: sp 80 +
STACK CFI 6bcdc .cfa: sp 0 +
STACK CFI 6bce0 .cfa: x29 80 +
STACK CFI INIT 6c438 478 .cfa: sp 0 +
STACK CFI 6c43c .cfa: sp 80 +
STACK CFI 6c450 .cfa: x29 80 + x19: .cfa -8 + ^ x20: .cfa -16 + ^ x21: .cfa -24 + ^ x22: .cfa -32 + ^ x23: .cfa -40 + ^ x24: .cfa -48 + ^ x25: .cfa -64 + ^ .ra: .cfa -72 + ^ x29: .cfa -80 + ^
STACK CFI 6c718 .cfa: sp 80 +
STACK CFI 6c72c .cfa: sp 0 +
STACK CFI 6c730 .cfa: x29 80 +
STACK CFI 6c890 .cfa: sp 80 +
STACK CFI 6c8a4 .cfa: sp 0 +
STACK CFI 6c8a8 .cfa: x29 80 +
STACK CFI INIT 6cab0 1bc .cfa: sp 0 +
STACK CFI 6cab4 .cfa: sp 48 +
STACK CFI 6cac0 .cfa: x29 48 + x19: .cfa -8 + ^ x20: .cfa -16 + ^ x21: .cfa -24 + ^ x22: .cfa -32 + ^ .ra: .cfa -40 + ^ x29: .cfa -48 + ^
STACK CFI 6cbf0 .cfa: sp 48 +
STACK CFI 6cbfc .cfa: sp 0 +
STACK CFI 6cc00 .cfa: x29 48 +
STACK CFI 6cc50 .cfa: sp 48 +
STACK CFI 6cc5c .cfa: sp 0 +
STACK CFI 6cc60 .cfa: x29 48 +
STACK CFI INIT 6cc6c 14 .cfa: sp 0 +
STACK CFI 6cc70 .cfa: sp 16 +
STACK CFI 6cc74 .cfa: x29 16 + .ra: .cfa -8 + ^ x29: .cfa -16 + ^
STACK CFI INIT 6cc80 14 .cfa: sp 0 +
STACK CFI 6cc84 .cfa: sp 16 +
STACK CFI 6cc88 .cfa: x29 16 + .ra: .cfa -8 + ^ x29: .cfa -16 + ^
STACK CFI INIT 6cc94 44 .cfa: sp 0 +
STACK CFI 6cc98 .cfa: sp 32 +
STACK CFI 6cca0 .cfa: x29 32 + x19: .cfa -16 + ^ .ra: .cfa -24 + ^ x29: .cfa -32 + ^
STACK CFI 6cccc .cfa: sp 32 +
STACK CFI 6ccd4 .cfa: sp 0 +
STACK CFI INIT 6ccd8 30 .cfa: sp 0 +
STACK CFI INIT 6cd08 44 .cfa: sp 0 +
STACK CFI 6cd0c .cfa: sp 32 +
STACK CFI 6cd14 .cfa: x29 32 + x19: .cfa -16 + ^ .ra: .cfa -24 + ^ x29: .cfa -32 + ^
STACK CFI 6cd40 .cfa: sp 32 +
STACK CFI 6cd48 .cfa: sp 0 +
STACK CFI INIT 6cd4c 3c .cfa: sp 0 +
STACK CFI INIT 6cf64 6c .cfa: sp 0 +
STACK CFI 6cf68 .cfa: sp 32 +
STACK CFI 6cf70 .cfa: x29 32 + x19: .cfa -16 + ^ .ra: .cfa -24 + ^ x29: .cfa -32 + ^
STACK CFI 6cfb8 .cfa: sp 32 +
STACK CFI 6cfc0 .cfa: sp 0 +
STACK CFI 6cfc4 .cfa: sp 32 +
STACK CFI 6cfcc .cfa: sp 0 +
STACK CFI INIT 6cfd0 68 .cfa: sp 0 +
STACK CFI 6cfd4 .cfa: sp 32 +
STACK CFI 6cfdc .cfa: x29 32 + x19: .cfa -16 + ^ .ra: .cfa -24 + ^ x29: .cfa -32 + ^
STACK CFI 6d02c .cfa: sp 32 +
STACK CFI 6d034 .cfa: sp 0 +
STACK CFI INIT 6d038 1d0 .cfa: sp 0 +
STACK CFI INIT 6d208 c4 .cfa: sp 0 +
STACK CFI INIT 6d2cc 68 .cfa: sp 0 +
STACK CFI 6d2d0 .cfa: sp 32 +
STACK CFI 6d2d8 .cfa: x29 32 + x19: .cfa -16 + ^ .ra: .cfa -24 + ^ x29: .cfa -32 + ^
STACK CFI 6d328 .cfa: sp 32 +
STACK CFI 6d330 .cfa: sp 0 +
STACK CFI INIT 6d334 4 .cfa: sp 0 +
STACK CFI INIT 6d338 4 .cfa: sp 0 +
STACK CFI INIT 6d33c 14 .cfa: sp 0 +
STACK CFI INIT 6d350 68 .cfa: sp 0 +
STACK CFI 6d354 .cfa: sp 32 +
STACK CFI 6d35c .cfa: x29 32 + x19: .cfa -16 + ^ .ra: .cfa -24 + ^ x29: .cfa -32 + ^
STACK CFI 6d3ac .cfa: sp 32 +
STACK CFI 6d3b4 .cfa: sp 0 +
STACK CFI INIT 6d3b8 c .cfa: sp 0 +
STACK CFI INIT 6d3c4 24 .cfa: sp 0 +
STACK CFI INIT 6d3e8 4 .cfa: sp 0 +
STACK CFI INIT 6d3ec 14 .cfa: sp 0 +
STACK CFI INIT 6d44c 214 .cfa: sp 0 +
STACK CFI 6d450 .cfa: sp 64 +
STACK CFI 6d460 .cfa: x29 64 + x19: .cfa -8 + ^ x20: .cfa -16 + ^ x21: .cfa -24 + ^ x22: .cfa -32 + ^ x23: .cfa -40 + ^ x24: .cfa -48 + ^ .ra: .cfa -56 + ^ x29: .cfa -64 + ^
STACK CFI 6d480 .cfa: sp 64 +
STACK CFI 6d490 .cfa: sp 0 +
STACK CFI 6d494 .cfa: x29 64 +
STACK CFI 6d560 .cfa: sp 64 +
STACK CFI 6d570 .cfa: sp 0 +
STACK CFI 6d574 .cfa: x29 64 +
STACK CFI 6d644 .cfa: sp 64 +
STACK CFI 6d654 .cfa: sp 0 +
STACK CFI 6d658 .cfa: x29 64 +
STACK CFI INIT 6d660 2b8 .cfa: sp 0 +
STACK CFI 6d664 .cfa: sp 32 +
STACK CFI 6d66c .cfa: x29 32 + x19: .cfa -8 + ^ x20: .cfa -16 + ^ .ra: .cfa -24 + ^ x29: .cfa -32 + ^
STACK CFI 6d6a4 .cfa: sp 32 +
STACK CFI 6d6ac .cfa: sp 0 +
STACK CFI 6d6b0 .cfa: x29 32 +
STACK CFI 6d7dc .cfa: sp 32 +
STACK CFI 6d7e4 .cfa: sp 0 +
STACK CFI 6d7e8 .cfa: x29 32 +
STACK CFI 6d82c .cfa: sp 32 +
STACK CFI 6d834 .cfa: sp 0 +
STACK CFI 6d838 .cfa: x29 32 +
STACK CFI 6d8dc .cfa: sp 32 +
STACK CFI 6d8e4 .cfa: sp 0 +
STACK CFI 6d8e8 .cfa: x29 32 +
STACK CFI 6d904 .cfa: sp 32 +
STACK CFI 6d90c .cfa: sp 0 +
STACK CFI 6d910 .cfa: x29 32 +
STACK CFI INIT 6d918 138 .cfa: sp 0 +
STACK CFI 6d91c .cfa: sp 48 +
STACK CFI 6d928 .cfa: x29 48 + x19: .cfa -8 + ^ x20: .cfa -16 + ^ x21: .cfa -32 + ^ .ra: .cfa -40 + ^ x29: .cfa -48 + ^
STACK CFI 6d958 .cfa: sp 48 +
STACK CFI 6d964 .cfa: sp 0 +
STACK CFI 6d968 .cfa: x29 48 +
STACK CFI 6d9d4 .cfa: sp 48 +
STACK CFI 6d9e0 .cfa: sp 0 +
STACK CFI 6d9e4 .cfa: x29 48 +
STACK CFI 6da24 .cfa: sp 48 +
STACK CFI 6da30 .cfa: sp 0 +
STACK CFI 6da34 .cfa: x29 48 +
STACK CFI 6da40 .cfa: sp 48 +
STACK CFI 6da4c .cfa: sp 0 +
STACK CFI INIT 6da50 2c .cfa: sp 0 +
STACK CFI INIT 6da7c 44 .cfa: sp 0 +
STACK CFI 6da80 .cfa: sp 32 +
STACK CFI 6da88 .cfa: x29 32 + x19: .cfa -16 + ^ .ra: .cfa -24 + ^ x29: .cfa -32 + ^
STACK CFI 6dab4 .cfa: sp 32 +
STACK CFI 6dabc .cfa: sp 0 +
STACK CFI INIT 6dac0 40 .cfa: sp 0 +
STACK CFI INIT 6db00 60 .cfa: sp 0 +
STACK CFI 6db04 .cfa: sp 16 +
STACK CFI 6db08 .cfa: x29 16 + .ra: .cfa -8 + ^ x29: .cfa -16 + ^
STACK CFI 6db48 .cfa: sp 16 +
STACK CFI 6db4c .cfa: sp 0 +
STACK CFI 6db50 .cfa: x29 16 +
STACK CFI 6db54 .cfa: sp 16 +
STACK CFI 6db58 .cfa: sp 0 +
STACK CFI 6db5c .cfa: x29 16 +
STACK CFI INIT 6db60 284 .cfa: sp 0 +
STACK CFI 6db64 .cfa: sp 80 +
STACK CFI 6db78 .cfa: x29 80 + x19: .cfa -8 + ^ x20: .cfa -16 + ^ x21: .cfa -24 + ^ x22: .cfa -32 + ^ x23: .cfa -40 + ^ x24: .cfa -48 + ^ x25: .cfa -64 + ^ .ra: .cfa -72 + ^ x29: .cfa -80 + ^
STACK CFI 6ddac .cfa: sp 80 +
STACK CFI 6ddc0 .cfa: sp 0 +
STACK CFI 6ddc4 .cfa: x29 80 +
STACK CFI 6ddc8 .cfa: sp 80 +
STACK CFI 6dddc .cfa: sp 0 +
STACK CFI 6dde0 .cfa: x29 80 +
STACK CFI INIT 6dde4 70 .cfa: sp 0 +
STACK CFI 6dde8 .cfa: sp 32 +
STACK CFI 6ddf0 .cfa: x29 32 + x19: .cfa -16 + ^ .ra: .cfa -24 + ^ x29: .cfa -32 + ^
STACK CFI 6de28 .cfa: sp 32 +
STACK CFI 6de30 .cfa: sp 0 +
STACK CFI 6de34 .cfa: x29 32 +
STACK CFI 6de48 .cfa: sp 32 +
STACK CFI 6de50 .cfa: sp 0 +
STACK CFI INIT 6de54 c0 .cfa: sp 0 +
STACK CFI 6de58 .cfa: sp 32 +
STACK CFI 6de60 .cfa: x29 32 + x19: .cfa -16 + ^ .ra: .cfa -24 + ^ x29: .cfa -32 + ^
STACK CFI 6debc .cfa: sp 32 +
STACK CFI 6dec4 .cfa: sp 0 +
STACK CFI 6dec8 .cfa: x29 32 +
STACK CFI 6dee0 .cfa: sp 32 +
STACK CFI 6dee8 .cfa: sp 0 +
STACK CFI 6deec .cfa: x29 32 +
STACK CFI 6df08 .cfa: sp 32 +
STACK CFI 6df10 .cfa: sp 0 +
STACK CFI INIT 6df64 30 .cfa: sp 0 +
STACK CFI 6df68 .cfa: sp 32 +
STACK CFI 6df70 .cfa: x29 32 + x19: .cfa -16 + ^ .ra: .cfa -24 + ^ x29: .cfa -32 + ^
STACK CFI 6df88 .cfa: sp 32 +
STACK CFI 6df90 .cfa: sp 0 +
STACK CFI INIT 6df94 50 .cfa: sp 0 +
STACK CFI 6df9c .cfa: sp 32 +
STACK CFI 6dfa4 .cfa: x29 32 + x19: .cfa -8 + ^ x20: .cfa -16 + ^ .ra: .cfa -24 + ^ x29: .cfa -32 + ^
STACK CFI 6dfd4 .cfa: sp 32 +
STACK CFI 6dfdc .cfa: sp 0 +
STACK CFI INIT 6e80c 54 .cfa: sp 0 +
STACK CFI 6e810 .cfa: sp 32 +
STACK CFI 6e818 .cfa: x29 32 + x19: .cfa -8 + ^ x20: .cfa -16 + ^ .ra: .cfa -24 + ^ x29: .cfa -32 + ^
STACK CFI 6e854 .cfa: sp 32 +
STACK CFI 6e85c .cfa: sp 0 +
STACK CFI INIT 6ed18 138 .cfa: sp 0 +
STACK CFI 6ed1c .cfa: sp 32 +
STACK CFI 6ed24 .cfa: x29 32 + x19: .cfa -8 + ^ x20: .cfa -16 + ^ .ra: .cfa -24 + ^ x29: .cfa -32 + ^
STACK CFI 6ed30 .cfa: sp 32 +
STACK CFI 6ed38 .cfa: sp 0 +
STACK CFI 6ed3c .cfa: x29 32 +
STACK CFI 6ee34 .cfa: sp 32 +
STACK CFI 6ee3c .cfa: sp 0 +
STACK CFI 6ee40 .cfa: x29 32 +
STACK CFI 6ee44 .cfa: sp 32 +
STACK CFI 6ee4c .cfa: sp 0 +
STACK CFI INIT 6ef0c 5c .cfa: sp 0 +
STACK CFI 6ef10 .cfa: sp 32 +
STACK CFI 6ef18 .cfa: x29 32 + x19: .cfa -8 + ^ x20: .cfa -16 + ^ .ra: .cfa -24 + ^ x29: .cfa -32 + ^
STACK CFI 6ef5c .cfa: sp 32 +
STACK CFI 6ef64 .cfa: sp 0 +
STACK CFI INIT 6ef68 60 .cfa: sp 0 +
STACK CFI 6ef6c .cfa: sp 32 +
STACK CFI 6ef74 .cfa: x29 32 + x19: .cfa -8 + ^ x20: .cfa -16 + ^ .ra: .cfa -24 + ^ x29: .cfa -32 + ^
STACK CFI 6efbc .cfa: sp 32 +
STACK CFI 6efc4 .cfa: sp 0 +
STACK CFI INIT 6efc8 68 .cfa: sp 0 +
STACK CFI 6efcc .cfa: sp 32 +
STACK CFI 6efd4 .cfa: x29 32 + x19: .cfa -8 + ^ x20: .cfa -16 + ^ .ra: .cfa -24 + ^ x29: .cfa -32 + ^
STACK CFI 6f024 .cfa: sp 32 +
STACK CFI 6f02c .cfa: sp 0 +
STACK CFI INIT 6f030 24 .cfa: sp 0 +
STACK CFI 6f034 .cfa: sp 32 +
STACK CFI 6f03c .cfa: x29 32 + x19: .cfa -16 + ^ .ra: .cfa -24 + ^ x29: .cfa -32 + ^
STACK CFI 6f048 .cfa: sp 32 +
STACK CFI 6f050 .cfa: sp 0 +
STACK CFI INIT 6f054 100 .cfa: sp 0 +
STACK CFI 6f058 .cfa: sp 32 +
STACK CFI 6f060 .cfa: x29 32 + x19: .cfa -8 + ^ x20: .cfa -16 + ^ .ra: .cfa -24 + ^ x29: .cfa -32 + ^
STACK CFI 6f0e8 .cfa: sp 32 +
STACK CFI 6f0f0 .cfa: sp 0 +
STACK CFI 6f0f4 .cfa: x29 32 +
STACK CFI 6f110 .cfa: sp 32 +
STACK CFI 6f118 .cfa: sp 0 +
STACK CFI 6f11c .cfa: x29 32 +
STACK CFI 6f148 .cfa: sp 32 +
STACK CFI 6f150 .cfa: sp 0 +
STACK CFI INIT 6f154 118 .cfa: sp 0 +
STACK CFI 6f158 .cfa: sp 48 +
STACK CFI 6f164 .cfa: x29 48 + x19: .cfa -8 + ^ x20: .cfa -16 + ^ x21: .cfa -24 + ^ x22: .cfa -32 + ^ .ra: .cfa -40 + ^ x29: .cfa -48 + ^
STACK CFI 6f1f0 .cfa: sp 48 +
STACK CFI 6f1fc .cfa: sp 0 +
STACK CFI 6f200 .cfa: x29 48 +
STACK CFI 6f238 .cfa: sp 48 +
STACK CFI 6f244 .cfa: sp 0 +
STACK CFI 6f248 .cfa: x29 48 +
STACK CFI 6f25c .cfa: sp 48 +
STACK CFI 6f268 .cfa: sp 0 +
STACK CFI INIT 6f26c cc .cfa: sp 0 +
STACK CFI 6f270 .cfa: sp 48 +
STACK CFI 6f27c .cfa: x29 48 + x19: .cfa -8 + ^ x20: .cfa -16 + ^ x21: .cfa -24 + ^ x22: .cfa -32 + ^ .ra: .cfa -40 + ^ x29: .cfa -48 + ^
STACK CFI 6f304 .cfa: sp 48 +
STACK CFI 6f310 .cfa: sp 0 +
STACK CFI 6f314 .cfa: x29 48 +
STACK CFI 6f324 .cfa: sp 48 +
STACK CFI 6f330 .cfa: sp 0 +
STACK CFI 6f334 .cfa: x29 48 +
STACK CFI INIT 6f338 84 .cfa: sp 0 +
STACK CFI 6f33c .cfa: sp 48 +
STACK CFI 6f348 .cfa: x29 48 + x19: .cfa -8 + ^ x20: .cfa -16 + ^ x21: .cfa -32 + ^ .ra: .cfa -40 + ^ x29: .cfa -48 + ^
STACK CFI 6f390 .cfa: sp 48 +
STACK CFI 6f39c .cfa: sp 0 +
STACK CFI 6f3a0 .cfa: x29 48 +
STACK CFI 6f3ac .cfa: sp 48 +
STACK CFI 6f3b8 .cfa: sp 0 +
STACK CFI INIT 6f3bc 228 .cfa: sp 0 +
STACK CFI 6f3c0 .cfa: sp 80 +
STACK CFI 6f3d4 .cfa: x29 64 + x19: .cfa -8 + ^ x20: .cfa -16 + ^ x21: .cfa -24 + ^ x22: .cfa -32 + ^ x23: .cfa -48 + ^ .ra: .cfa -56 + ^ x29: .cfa -64 + ^
STACK CFI 6f57c .cfa: sp 80 +
STACK CFI 6f590 .cfa: sp 0 +
STACK CFI 6f594 .cfa: x29 64 +
STACK CFI INIT 6f5e4 2a0 .cfa: sp 0 +
STACK CFI 6f5e8 .cfa: sp 96 +
STACK CFI 6f5fc .cfa: x29 64 + x19: .cfa -8 + ^ x20: .cfa -16 + ^ x21: .cfa -24 + ^ x22: .cfa -32 + ^ x23: .cfa -48 + ^ .ra: .cfa -56 + ^ x29: .cfa -64 + ^
STACK CFI 6f83c .cfa: sp 96 +
STACK CFI 6f850 .cfa: sp 0 +
STACK CFI 6f854 .cfa: x29 64 +
STACK CFI INIT 6f884 60 .cfa: sp 0 +
STACK CFI INIT 6f8e4 244 .cfa: sp 0 +
STACK CFI 6f8e8 .cfa: sp 112 +
STACK CFI 6f900 .cfa: x29 80 + x19: .cfa -8 + ^ x20: .cfa -16 + ^ x21: .cfa -24 + ^ x22: .cfa -32 + ^ x23: .cfa -40 + ^ x24: .cfa -48 + ^ x25: .cfa -56 + ^ x26: .cfa -64 + ^ .ra: .cfa -72 + ^ x29: .cfa -80 + ^
STACK CFI 6fb08 .cfa: sp 112 +
STACK CFI 6fb20 .cfa: sp 0 +
STACK CFI 6fb24 .cfa: x29 80 +
STACK CFI INIT 6fb28 34 .cfa: sp 0 +
STACK CFI 6fb2c .cfa: sp 32 +
STACK CFI 6fb34 .cfa: x29 32 + x19: .cfa -16 + ^ .ra: .cfa -24 + ^ x29: .cfa -32 + ^
STACK CFI INIT 6fb5c 34 .cfa: sp 0 +
STACK CFI 6fb60 .cfa: sp 16 +
STACK CFI 6fb64 .cfa: x29 16 + .ra: .cfa -8 + ^ x29: .cfa -16 + ^
STACK CFI INIT 6fb90 24 .cfa: sp 0 +
STACK CFI 6fb94 .cfa: sp 32 +
STACK CFI 6fb9c .cfa: x29 32 + x19: .cfa -16 + ^ .ra: .cfa -24 + ^ x29: .cfa -32 + ^
STACK CFI 6fba8 .cfa: sp 32 +
STACK CFI 6fbb0 .cfa: sp 0 +
STACK CFI INIT 70b10 6c .cfa: sp 0 +
STACK CFI 70b14 .cfa: sp 32 +
STACK CFI 70b1c .cfa: x29 32 + x19: .cfa -16 + ^ .ra: .cfa -24 + ^ x29: .cfa -32 + ^
STACK CFI 70b40 .cfa: sp 32 +
STACK CFI 70b48 .cfa: sp 0 +
STACK CFI 70b4c .cfa: x29 32 +
STACK CFI 70b70 .cfa: sp 32 +
STACK CFI 70b78 .cfa: sp 0 +
STACK CFI INIT 71cf8 3d4 .cfa: sp 0 +
STACK CFI 71cfc .cfa: sp 128 +
STACK CFI 71d18 .cfa: x29 96 + x19: .cfa -8 + ^ x20: .cfa -16 + ^ x21: .cfa -24 + ^ x22: .cfa -32 + ^ x23: .cfa -40 + ^ x24: .cfa -48 + ^ x25: .cfa -56 + ^ x26: .cfa -64 + ^ x27: .cfa -72 + ^ x28: .cfa -80 + ^ .ra: .cfa -88 + ^ x29: .cfa -96 + ^
STACK CFI 720a4 .cfa: sp 128 +
STACK CFI 720c0 .cfa: sp 0 +
STACK CFI 720c4 .cfa: x29 96 +
STACK CFI INIT 720cc e4 .cfa: sp 0 +
STACK CFI 720d0 .cfa: sp 48 +
STACK CFI 720dc .cfa: x29 48 + x19: .cfa -8 + ^ x20: .cfa -16 + ^ x21: .cfa -32 + ^ .ra: .cfa -40 + ^ x29: .cfa -48 + ^
STACK CFI 7218c .cfa: sp 48 +
STACK CFI 72198 .cfa: sp 0 +
STACK CFI 7219c .cfa: x29 48 +
STACK CFI INIT 725f8 268 .cfa: sp 0 +
STACK CFI 725fc .cfa: sp 112 +
STACK CFI 72618 .cfa: x29 96 + x19: .cfa -8 + ^ x20: .cfa -16 + ^ x21: .cfa -24 + ^ x22: .cfa -32 + ^ x23: .cfa -40 + ^ x24: .cfa -48 + ^ x25: .cfa -56 + ^ x26: .cfa -64 + ^ x27: .cfa -72 + ^ x28: .cfa -80 + ^ .ra: .cfa -88 + ^ x29: .cfa -96 + ^
STACK CFI 72840 .cfa: sp 112 +
STACK CFI 7285c .cfa: sp 0 +
STACK CFI INIT 72860 180 .cfa: sp 0 +
STACK CFI 72864 .cfa: sp 64 +
STACK CFI 72874 .cfa: x29 64 + x19: .cfa -8 + ^ x20: .cfa -16 + ^ x21: .cfa -24 + ^ x22: .cfa -32 + ^ x23: .cfa -48 + ^ .ra: .cfa -56 + ^ x29: .cfa -64 + ^
STACK CFI 729ac .cfa: sp 64 +
STACK CFI 729bc .cfa: sp 0 +
STACK CFI 729c0 .cfa: x29 64 +
STACK CFI 729c8 .cfa: sp 64 +
STACK CFI 729d8 .cfa: sp 0 +
STACK CFI 729dc .cfa: x29 64 +
STACK CFI INIT 729e0 170 .cfa: sp 0 +
STACK CFI 729e4 .cfa: sp 96 +
STACK CFI 729fc .cfa: x29 96 + x19: .cfa -8 + ^ x20: .cfa -16 + ^ x21: .cfa -24 + ^ x22: .cfa -32 + ^ x23: .cfa -40 + ^ x24: .cfa -48 + ^ x25: .cfa -56 + ^ x26: .cfa -64 + ^ x27: .cfa -80 + ^ .ra: .cfa -88 + ^ x29: .cfa -96 + ^
STACK CFI 72b30 .cfa: sp 96 +
STACK CFI 72b48 .cfa: sp 0 +
STACK CFI 72b4c .cfa: x29 96 +
STACK CFI INIT 72b50 1d4 .cfa: sp 0 +
STACK CFI 72b54 .cfa: sp 96 +
STACK CFI 72b6c .cfa: x29 96 + x19: .cfa -8 + ^ x20: .cfa -16 + ^ x21: .cfa -24 + ^ x22: .cfa -32 + ^ x23: .cfa -40 + ^ x24: .cfa -48 + ^ x25: .cfa -56 + ^ x26: .cfa -64 + ^ x27: .cfa -80 + ^ .ra: .cfa -88 + ^ x29: .cfa -96 + ^
STACK CFI 72d08 .cfa: sp 96 +
STACK CFI 72d20 .cfa: sp 0 +
STACK CFI INIT 72d24 1d4 .cfa: sp 0 +
STACK CFI 72d28 .cfa: sp 96 +
STACK CFI 72d40 .cfa: x29 96 + x19: .cfa -8 + ^ x20: .cfa -16 + ^ x21: .cfa -24 + ^ x22: .cfa -32 + ^ x23: .cfa -40 + ^ x24: .cfa -48 + ^ x25: .cfa -56 + ^ x26: .cfa -64 + ^ x27: .cfa -80 + ^ .ra: .cfa -88 + ^ x29: .cfa -96 + ^
STACK CFI 72edc .cfa: sp 96 +
STACK CFI 72ef4 .cfa: sp 0 +
STACK CFI INIT 73208 270 .cfa: sp 0 +
STACK CFI 7320c .cfa: sp 64 +
STACK CFI 7321c .cfa: x29 64 + x19: .cfa -8 + ^ x20: .cfa -16 + ^ x21: .cfa -24 + ^ x22: .cfa -32 + ^ x23: .cfa -40 + ^ x24: .cfa -48 + ^ .ra: .cfa -56 + ^ x29: .cfa -64 + ^
STACK CFI 73300 .cfa: sp 64 +
STACK CFI 73310 .cfa: sp 0 +
STACK CFI 73314 .cfa: x29 64 +
STACK CFI 73320 .cfa: sp 64 +
STACK CFI 73330 .cfa: sp 0 +
STACK CFI 73334 .cfa: x29 64 +
STACK CFI 73340 .cfa: sp 64 +
STACK CFI 73350 .cfa: sp 0 +
STACK CFI 73354 .cfa: x29 64 +
STACK CFI 733b8 .cfa: sp 64 +
STACK CFI 733c8 .cfa: sp 0 +
STACK CFI 733cc .cfa: x29 64 +
STACK CFI 7345c .cfa: sp 64 +
STACK CFI 7346c .cfa: sp 0 +
STACK CFI 73470 .cfa: x29 64 +
STACK CFI INIT 73478 3f4 .cfa: sp 0 +
STACK CFI 7347c .cfa: sp 32 +
STACK CFI 73484 .cfa: x29 32 + x19: .cfa -16 + ^ .ra: .cfa -24 + ^ x29: .cfa -32 + ^
STACK CFI 735d0 .cfa: sp 32 +
STACK CFI 735d8 .cfa: sp 0 +
STACK CFI 735dc .cfa: x29 32 +
STACK CFI 735e4 .cfa: sp 32 +
STACK CFI 735ec .cfa: sp 0 +
STACK CFI 735f0 .cfa: x29 32 +
STACK CFI 7362c .cfa: sp 32 +
STACK CFI 73634 .cfa: sp 0 +
STACK CFI 73638 .cfa: x29 32 +
STACK CFI 73674 .cfa: sp 32 +
STACK CFI 7367c .cfa: sp 0 +
STACK CFI 73680 .cfa: x29 32 +
STACK CFI 736ac .cfa: sp 32 +
STACK CFI 736b4 .cfa: sp 0 +
STACK CFI 736b8 .cfa: x29 32 +
STACK CFI 736d4 .cfa: sp 32 +
STACK CFI 736dc .cfa: sp 0 +
STACK CFI 736e0 .cfa: x29 32 +
STACK CFI 73744 .cfa: sp 32 +
STACK CFI 7374c .cfa: sp 0 +
STACK CFI 73750 .cfa: x29 32 +
STACK CFI 73820 .cfa: sp 32 +
STACK CFI 73828 .cfa: sp 0 +
STACK CFI 7382c .cfa: x29 32 +
STACK CFI 73858 .cfa: sp 32 +
STACK CFI 73860 .cfa: sp 0 +
STACK CFI 73864 .cfa: x29 32 +
STACK CFI INIT 7386c 174 .cfa: sp 0 +
STACK CFI 73870 .cfa: sp 64 +
STACK CFI 73880 .cfa: x29 64 + x19: .cfa -8 + ^ x20: .cfa -16 + ^ x21: .cfa -24 + ^ x22: .cfa -32 + ^ x23: .cfa -48 + ^ .ra: .cfa -56 + ^ x29: .cfa -64 + ^
STACK CFI 738d0 .cfa: sp 64 +
STACK CFI 738e0 .cfa: sp 0 +
STACK CFI 738e4 .cfa: x29 64 +
STACK CFI 73990 .cfa: sp 64 +
STACK CFI 739a0 .cfa: sp 0 +
STACK CFI 739a4 .cfa: x29 64 +
STACK CFI 739c4 .cfa: sp 64 +
STACK CFI 739d4 .cfa: sp 0 +
STACK CFI 739d8 .cfa: x29 64 +
STACK CFI INIT 73b30 68 .cfa: sp 0 +
STACK CFI 73b34 .cfa: sp 32 +
STACK CFI 73b3c .cfa: x29 32 + x19: .cfa -16 + ^ .ra: .cfa -24 + ^ x29: .cfa -32 + ^
STACK CFI 73b74 .cfa: sp 32 +
STACK CFI 73b7c .cfa: sp 0 +
STACK CFI 73b80 .cfa: x29 32 +
STACK CFI 73b8c .cfa: sp 32 +
STACK CFI 73b94 .cfa: sp 0 +
STACK CFI INIT 73d98 4d4 .cfa: sp 0 +
STACK CFI 73d9c .cfa: sp 32 +
STACK CFI 73da4 .cfa: x29 32 + x19: .cfa -16 + ^ .ra: .cfa -24 + ^ x29: .cfa -32 + ^
STACK CFI 73df8 .cfa: sp 32 +
STACK CFI 73e00 .cfa: sp 0 +
STACK CFI 73e04 .cfa: x29 32 +
STACK CFI 74038 .cfa: sp 32 +
STACK CFI 74040 .cfa: sp 0 +
STACK CFI 74044 .cfa: x29 32 +
STACK CFI 74060 .cfa: sp 32 +
STACK CFI 74068 .cfa: sp 0 +
STACK CFI 7406c .cfa: x29 32 +
STACK CFI 7407c .cfa: sp 32 +
STACK CFI 74084 .cfa: sp 0 +
STACK CFI 74088 .cfa: x29 32 +
STACK CFI 74098 .cfa: sp 32 +
STACK CFI 740a0 .cfa: sp 0 +
STACK CFI 740a4 .cfa: x29 32 +
STACK CFI 740b4 .cfa: sp 32 +
STACK CFI 740bc .cfa: sp 0 +
STACK CFI 740c0 .cfa: x29 32 +
STACK CFI 740d0 .cfa: sp 32 +
STACK CFI 740d8 .cfa: sp 0 +
STACK CFI 740dc .cfa: x29 32 +
STACK CFI 740ec .cfa: sp 32 +
STACK CFI 740f4 .cfa: sp 0 +
STACK CFI 740f8 .cfa: x29 32 +
STACK CFI 74108 .cfa: sp 32 +
STACK CFI 74110 .cfa: sp 0 +
STACK CFI 74114 .cfa: x29 32 +
STACK CFI 74120 .cfa: sp 32 +
STACK CFI 74128 .cfa: sp 0 +
STACK CFI 7412c .cfa: x29 32 +
STACK CFI 74144 .cfa: sp 32 +
STACK CFI 7414c .cfa: sp 0 +
STACK CFI 74150 .cfa: x29 32 +
STACK CFI 7416c .cfa: sp 32 +
STACK CFI 74174 .cfa: sp 0 +
STACK CFI 74178 .cfa: x29 32 +
STACK CFI 74194 .cfa: sp 32 +
STACK CFI 7419c .cfa: sp 0 +
STACK CFI 741a0 .cfa: x29 32 +
STACK CFI 741bc .cfa: sp 32 +
STACK CFI 741c4 .cfa: sp 0 +
STACK CFI 741c8 .cfa: x29 32 +
STACK CFI 741e4 .cfa: sp 32 +
STACK CFI 741ec .cfa: sp 0 +
STACK CFI 741f0 .cfa: x29 32 +
STACK CFI 7420c .cfa: sp 32 +
STACK CFI 74214 .cfa: sp 0 +
STACK CFI 74218 .cfa: x29 32 +
STACK CFI 74234 .cfa: sp 32 +
STACK CFI 7423c .cfa: sp 0 +
STACK CFI 74240 .cfa: x29 32 +
STACK CFI 7425c .cfa: sp 32 +
STACK CFI 74264 .cfa: sp 0 +
STACK CFI 74268 .cfa: x29 32 +
STACK CFI INIT 74bd8 13c .cfa: sp 0 +
STACK CFI 74bdc .cfa: sp 80 +
STACK CFI 74bec .cfa: x29 48 + x19: .cfa -8 + ^ x20: .cfa -16 + ^ x21: .cfa -24 + ^ x22: .cfa -32 + ^ .ra: .cfa -40 + ^ x29: .cfa -48 + ^
STACK CFI 74cd4 .cfa: sp 80 +
STACK CFI 74ce4 .cfa: sp 0 +
STACK CFI 74ce8 .cfa: x29 48 +
STACK CFI INIT 74d14 19c .cfa: sp 0 +
STACK CFI 74d18 .cfa: sp 32 +
STACK CFI 74d20 .cfa: x29 32 + x19: .cfa -16 + ^ .ra: .cfa -24 + ^ x29: .cfa -32 + ^
STACK CFI 74d64 .cfa: sp 32 +
STACK CFI 74d6c .cfa: sp 0 +
STACK CFI 74d70 .cfa: x29 32 +
STACK CFI 74d90 .cfa: sp 32 +
STACK CFI 74d98 .cfa: sp 0 +
STACK CFI 74d9c .cfa: x29 32 +
STACK CFI 74dac .cfa: sp 32 +
STACK CFI 74db4 .cfa: sp 0 +
STACK CFI 74db8 .cfa: x29 32 +
STACK CFI 74dd4 .cfa: sp 32 +
STACK CFI 74ddc .cfa: sp 0 +
STACK CFI 74de0 .cfa: x29 32 +
STACK CFI 74dfc .cfa: sp 32 +
STACK CFI 74e04 .cfa: sp 0 +
STACK CFI 74e08 .cfa: x29 32 +
STACK CFI 74e18 .cfa: sp 32 +
STACK CFI 74e20 .cfa: sp 0 +
STACK CFI 74e24 .cfa: x29 32 +
STACK CFI 74e34 .cfa: sp 32 +
STACK CFI 74e3c .cfa: sp 0 +
STACK CFI 74e40 .cfa: x29 32 +
STACK CFI 74e5c .cfa: sp 32 +
STACK CFI 74e64 .cfa: sp 0 +
STACK CFI 74e68 .cfa: x29 32 +
STACK CFI 74e80 .cfa: sp 32 +
STACK CFI 74e88 .cfa: sp 0 +
STACK CFI 74e8c .cfa: x29 32 +
STACK CFI 74ea0 .cfa: sp 32 +
STACK CFI 74ea8 .cfa: sp 0 +
STACK CFI 74eac .cfa: x29 32 +
STACK CFI INIT 74eb0 414 .cfa: sp 0 +
STACK CFI 74eb4 .cfa: sp 32 +
STACK CFI 74ebc .cfa: x29 32 + x19: .cfa -8 + ^ x20: .cfa -16 + ^ .ra: .cfa -24 + ^ x29: .cfa -32 + ^
STACK CFI 74f18 .cfa: sp 32 +
STACK CFI 74f20 .cfa: sp 0 +
STACK CFI 74f24 .cfa: x29 32 +
STACK CFI 75068 .cfa: sp 32 +
STACK CFI 75070 .cfa: sp 0 +
STACK CFI 75074 .cfa: x29 32 +
STACK CFI 75098 .cfa: sp 32 +
STACK CFI 750a0 .cfa: sp 0 +
STACK CFI 750a4 .cfa: x29 32 +
STACK CFI 750b4 .cfa: sp 32 +
STACK CFI 750bc .cfa: sp 0 +
STACK CFI 750c0 .cfa: x29 32 +
STACK CFI 750d0 .cfa: sp 32 +
STACK CFI 750d8 .cfa: sp 0 +
STACK CFI 750dc .cfa: x29 32 +
STACK CFI 750ec .cfa: sp 32 +
STACK CFI 750f4 .cfa: sp 0 +
STACK CFI 750f8 .cfa: x29 32 +
STACK CFI 75108 .cfa: sp 32 +
STACK CFI 75110 .cfa: sp 0 +
STACK CFI 75114 .cfa: x29 32 +
STACK CFI 75124 .cfa: sp 32 +
STACK CFI 7512c .cfa: sp 0 +
STACK CFI 75130 .cfa: x29 32 +
STACK CFI 75140 .cfa: sp 32 +
STACK CFI 75148 .cfa: sp 0 +
STACK CFI 7514c .cfa: x29 32 +
STACK CFI 7515c .cfa: sp 32 +
STACK CFI 75164 .cfa: sp 0 +
STACK CFI 75168 .cfa: x29 32 +
STACK CFI 75184 .cfa: sp 32 +
STACK CFI 7518c .cfa: sp 0 +
STACK CFI 75190 .cfa: x29 32 +
STACK CFI 751ac .cfa: sp 32 +
STACK CFI 751b4 .cfa: sp 0 +
STACK CFI 751b8 .cfa: x29 32 +
STACK CFI 751d4 .cfa: sp 32 +
STACK CFI 751dc .cfa: sp 0 +
STACK CFI 751e0 .cfa: x29 32 +
STACK CFI 751fc .cfa: sp 32 +
STACK CFI 75204 .cfa: sp 0 +
STACK CFI 75208 .cfa: x29 32 +
STACK CFI 75224 .cfa: sp 32 +
STACK CFI 7522c .cfa: sp 0 +
STACK CFI 75230 .cfa: x29 32 +
STACK CFI 7524c .cfa: sp 32 +
STACK CFI 75254 .cfa: sp 0 +
STACK CFI 75258 .cfa: x29 32 +
STACK CFI 75274 .cfa: sp 32 +
STACK CFI 7527c .cfa: sp 0 +
STACK CFI 75280 .cfa: x29 32 +
STACK CFI 75298 .cfa: sp 32 +
STACK CFI 752a0 .cfa: sp 0 +
STACK CFI 752a4 .cfa: x29 32 +
STACK CFI 752b4 .cfa: sp 32 +
STACK CFI 752bc .cfa: sp 0 +
STACK CFI 752c0 .cfa: x29 32 +
STACK CFI INIT 756b8 238 .cfa: sp 0 +
STACK CFI 756bc .cfa: sp 64 +
STACK CFI 756cc .cfa: x29 64 + x19: .cfa -8 + ^ x20: .cfa -16 + ^ x21: .cfa -24 + ^ x22: .cfa -32 + ^ x23: .cfa -40 + ^ x24: .cfa -48 + ^ .ra: .cfa -56 + ^ x29: .cfa -64 + ^
STACK CFI 757bc .cfa: sp 64 +
STACK CFI 757cc .cfa: sp 0 +
STACK CFI 757d0 .cfa: x29 64 +
STACK CFI 757d8 .cfa: sp 64 +
STACK CFI 757e8 .cfa: sp 0 +
STACK CFI 757ec .cfa: x29 64 +
STACK CFI 758bc .cfa: sp 64 +
STACK CFI 758cc .cfa: sp 0 +
STACK CFI 758d0 .cfa: x29 64 +
STACK CFI 758d4 .cfa: sp 64 +
STACK CFI 758e4 .cfa: sp 0 +
STACK CFI 758e8 .cfa: x29 64 +
STACK CFI INIT 758f0 280 .cfa: sp 0 +
STACK CFI 758f4 .cfa: sp 32 +
STACK CFI 758fc .cfa: x29 32 + x19: .cfa -16 + ^ .ra: .cfa -24 + ^ x29: .cfa -32 + ^
STACK CFI 75934 .cfa: sp 32 +
STACK CFI 7593c .cfa: sp 0 +
STACK CFI 75940 .cfa: x29 32 +
STACK CFI 75a90 .cfa: sp 32 +
STACK CFI 75a98 .cfa: sp 0 +
STACK CFI 75a9c .cfa: x29 32 +
STACK CFI 75ae0 .cfa: sp 32 +
STACK CFI 75ae8 .cfa: sp 0 +
STACK CFI 75aec .cfa: x29 32 +
STACK CFI 75b60 .cfa: sp 32 +
STACK CFI 75b68 .cfa: sp 0 +
STACK CFI 75b6c .cfa: x29 32 +
STACK CFI INIT 75b70 134 .cfa: sp 0 +
STACK CFI 75b74 .cfa: sp 48 +
STACK CFI 75b80 .cfa: x29 48 + x19: .cfa -8 + ^ x20: .cfa -16 + ^ x21: .cfa -32 + ^ .ra: .cfa -40 + ^ x29: .cfa -48 + ^
STACK CFI 75bb0 .cfa: sp 48 +
STACK CFI 75bbc .cfa: sp 0 +
STACK CFI 75bc0 .cfa: x29 48 +
STACK CFI 75c2c .cfa: sp 48 +
STACK CFI 75c38 .cfa: sp 0 +
STACK CFI 75c3c .cfa: x29 48 +
STACK CFI 75c78 .cfa: sp 48 +
STACK CFI 75c84 .cfa: sp 0 +
STACK CFI 75c88 .cfa: x29 48 +
STACK CFI 75c94 .cfa: sp 48 +
STACK CFI 75ca0 .cfa: sp 0 +
STACK CFI INIT 75ca4 27c .cfa: sp 0 +
STACK CFI 75ca8 .cfa: sp 80 +
STACK CFI 75cbc .cfa: x29 80 + x19: .cfa -8 + ^ x20: .cfa -16 + ^ x21: .cfa -24 + ^ x22: .cfa -32 + ^ x23: .cfa -40 + ^ x24: .cfa -48 + ^ x25: .cfa -64 + ^ .ra: .cfa -72 + ^ x29: .cfa -80 + ^
STACK CFI 75ee8 .cfa: sp 80 +
STACK CFI 75efc .cfa: sp 0 +
STACK CFI 75f00 .cfa: x29 80 +
STACK CFI 75f04 .cfa: sp 80 +
STACK CFI 75f18 .cfa: sp 0 +
STACK CFI 75f1c .cfa: x29 80 +
STACK CFI INIT 75f20 70 .cfa: sp 0 +
STACK CFI 75f24 .cfa: sp 32 +
STACK CFI 75f2c .cfa: x29 32 + x19: .cfa -16 + ^ .ra: .cfa -24 + ^ x29: .cfa -32 + ^
STACK CFI 75f64 .cfa: sp 32 +
STACK CFI 75f6c .cfa: sp 0 +
STACK CFI 75f70 .cfa: x29 32 +
STACK CFI 75f84 .cfa: sp 32 +
STACK CFI 75f8c .cfa: sp 0 +
STACK CFI INIT 75f90 bc .cfa: sp 0 +
STACK CFI 75f94 .cfa: sp 32 +
STACK CFI 75f9c .cfa: x29 32 + x19: .cfa -16 + ^ .ra: .cfa -24 + ^ x29: .cfa -32 + ^
STACK CFI 75ff8 .cfa: sp 32 +
STACK CFI 76000 .cfa: sp 0 +
STACK CFI 76004 .cfa: x29 32 +
STACK CFI 76018 .cfa: sp 32 +
STACK CFI 76020 .cfa: sp 0 +
STACK CFI 76024 .cfa: x29 32 +
STACK CFI 76040 .cfa: sp 32 +
STACK CFI 76048 .cfa: sp 0 +
STACK CFI INIT 7604c 4 .cfa: sp 0 +
STACK CFI INIT 76050 34 .cfa: sp 0 +
STACK CFI 76054 .cfa: sp 32 +
STACK CFI 7605c .cfa: x29 32 + x19: .cfa -16 + ^ .ra: .cfa -24 + ^ x29: .cfa -32 + ^
STACK CFI 76078 .cfa: sp 32 +
STACK CFI 76080 .cfa: sp 0 +
STACK CFI INIT 76084 14 .cfa: sp 0 +
STACK CFI INIT 76098 4 .cfa: sp 0 +
STACK CFI INIT 7609c 4 .cfa: sp 0 +
STACK CFI INIT 760a0 5c .cfa: sp 0 +
STACK CFI 760a4 .cfa: sp 32 +
STACK CFI 760ac .cfa: x29 32 + x19: .cfa -8 + ^ x20: .cfa -16 + ^ .ra: .cfa -24 + ^ x29: .cfa -32 + ^
STACK CFI 760f0 .cfa: sp 32 +
STACK CFI 760f8 .cfa: sp 0 +
STACK CFI INIT 760fc 1c .cfa: sp 0 +
STACK CFI INIT 76118 c .cfa: sp 0 +
STACK CFI INIT 76630 4 .cfa: sp 0 +
STACK CFI INIT 76634 6c .cfa: sp 0 +
STACK CFI 76638 .cfa: sp 32 +
STACK CFI 76640 .cfa: x29 32 + x19: .cfa -16 + ^ .ra: .cfa -24 + ^ x29: .cfa -32 + ^
STACK CFI 76688 .cfa: sp 32 +
STACK CFI 76690 .cfa: sp 0 +
STACK CFI 76694 .cfa: sp 32 +
STACK CFI 7669c .cfa: sp 0 +
STACK CFI INIT 79c08 8 .cfa: sp 0 +
STACK CFI INIT 79c10 8 .cfa: sp 0 +
STACK CFI INIT 79c18 8 .cfa: sp 0 +
STACK CFI INIT 79c20 4 .cfa: sp 0 +
STACK CFI INIT 79c24 24 .cfa: sp 0 +
STACK CFI 79c28 .cfa: sp 16 +
STACK CFI 79c2c .cfa: x29 16 + .ra: .cfa -8 + ^ x29: .cfa -16 + ^
STACK CFI 79c40 .cfa: sp 16 +
STACK CFI 79c44 .cfa: sp 0 +
STACK CFI INIT 79c48 10 .cfa: sp 0 +
STACK CFI INIT 79c58 4 .cfa: sp 0 +
STACK CFI INIT 79c5c 4 .cfa: sp 0 +
STACK CFI INIT 79c60 4 .cfa: sp 0 +
STACK CFI INIT 79c64 1c .cfa: sp 0 +
STACK CFI INIT 79c80 c .cfa: sp 0 +
STACK CFI INIT 79c8c 54 .cfa: sp 0 +
STACK CFI 79c90 .cfa: sp 32 +
STACK CFI 79c98 .cfa: x29 32 + x19: .cfa -8 + ^ x20: .cfa -16 + ^ .ra: .cfa -24 + ^ x29: .cfa -32 + ^
STACK CFI 79cd4 .cfa: sp 32 +
STACK CFI 79cdc .cfa: sp 0 +
STACK CFI INIT 7b69c 24 .cfa: sp 0 +
STACK CFI 7b6a0 .cfa: sp 32 +
STACK CFI 7b6a8 .cfa: x29 32 + x19: .cfa -16 + ^ .ra: .cfa -24 + ^ x29: .cfa -32 + ^
STACK CFI 7b6b4 .cfa: sp 32 +
STACK CFI 7b6bc .cfa: sp 0 +
STACK CFI INIT 7b6c0 54 .cfa: sp 0 +
STACK CFI 7b6c4 .cfa: sp 32 +
STACK CFI 7b6cc .cfa: x29 32 + x19: .cfa -16 + ^ .ra: .cfa -24 + ^ x29: .cfa -32 + ^
STACK CFI 7b708 .cfa: sp 32 +
STACK CFI 7b710 .cfa: sp 0 +
STACK CFI INIT 7b714 8 .cfa: sp 0 +
STACK CFI INIT 7b71c 28 .cfa: sp 0 +
STACK CFI 7b720 .cfa: sp 32 +
STACK CFI 7b728 .cfa: x29 32 + x19: .cfa -16 + ^ .ra: .cfa -24 + ^ x29: .cfa -32 + ^
STACK CFI 7b738 .cfa: sp 32 +
STACK CFI 7b740 .cfa: sp 0 +
STACK CFI INIT 7b744 54 .cfa: sp 0 +
STACK CFI 7b748 .cfa: sp 32 +
STACK CFI 7b750 .cfa: x29 32 + x19: .cfa -16 + ^ .ra: .cfa -24 + ^ x29: .cfa -32 + ^
STACK CFI 7b78c .cfa: sp 32 +
STACK CFI 7b794 .cfa: sp 0 +
STACK CFI INIT 7ccb4 c4 .cfa: sp 0 +
STACK CFI 7ccb8 .cfa: sp 112 +
STACK CFI 7ccc8 .cfa: x29 48 + x19: .cfa -8 + ^ x20: .cfa -16 + ^ x21: .cfa -24 + ^ x22: .cfa -32 + ^ .ra: .cfa -40 + ^ x29: .cfa -48 + ^
STACK CFI 7cd60 .cfa: sp 112 +
STACK CFI 7cd70 .cfa: sp 0 +
STACK CFI 7cd74 .cfa: x29 48 +
STACK CFI INIT 7cd78 6c .cfa: sp 0 +
STACK CFI 7cd7c .cfa: sp 32 +
STACK CFI 7cd84 .cfa: x29 32 + x19: .cfa -16 + ^ .ra: .cfa -24 + ^ x29: .cfa -32 + ^
STACK CFI 7cda8 .cfa: sp 32 +
STACK CFI 7cdb0 .cfa: sp 0 +
STACK CFI 7cdb4 .cfa: x29 32 +
STACK CFI 7cdd8 .cfa: sp 32 +
STACK CFI 7cde0 .cfa: sp 0 +
STACK CFI INIT 7e7f8 8 .cfa: sp 0 +
STACK CFI INIT 7e800 8 .cfa: sp 0 +
STACK CFI INIT 7e808 4 .cfa: sp 0 +
STACK CFI INIT 7e80c 24 .cfa: sp 0 +
STACK CFI 7e810 .cfa: sp 16 +
STACK CFI 7e814 .cfa: x29 16 + .ra: .cfa -8 + ^ x29: .cfa -16 + ^
STACK CFI 7e828 .cfa: sp 16 +
STACK CFI 7e82c .cfa: sp 0 +
STACK CFI INIT 7e830 10 .cfa: sp 0 +
STACK CFI INIT 7e840 4 .cfa: sp 0 +
STACK CFI INIT 7e844 4 .cfa: sp 0 +
STACK CFI INIT 7e848 4 .cfa: sp 0 +
STACK CFI INIT 7e84c 1c .cfa: sp 0 +
STACK CFI INIT 7e868 c .cfa: sp 0 +
STACK CFI INIT 7f60c 4 .cfa: sp 0 +
STACK CFI INIT 7f610 4 .cfa: sp 0 +
STACK CFI INIT 7f614 34 .cfa: sp 0 +
STACK CFI 7f618 .cfa: sp 32 +
STACK CFI 7f620 .cfa: x29 32 + x19: .cfa -16 + ^ .ra: .cfa -24 + ^ x29: .cfa -32 + ^
STACK CFI 7f63c .cfa: sp 32 +
STACK CFI 7f644 .cfa: sp 0 +
STACK CFI INIT 7f648 14 .cfa: sp 0 +
STACK CFI INIT 7f65c 4 .cfa: sp 0 +
STACK CFI INIT 7f660 4 .cfa: sp 0 +
STACK CFI INIT 7f664 6c .cfa: sp 0 +
STACK CFI 7f668 .cfa: sp 32 +
STACK CFI 7f670 .cfa: x29 32 + x19: .cfa -8 + ^ x20: .cfa -16 + ^ .ra: .cfa -24 + ^ x29: .cfa -32 + ^
STACK CFI 7f6c4 .cfa: sp 32 +
STACK CFI 7f6cc .cfa: sp 0 +
STACK CFI INIT 7f6d0 1c .cfa: sp 0 +
STACK CFI INIT 7f6ec c .cfa: sp 0 +
STACK CFI INIT 7f6f8 50 .cfa: sp 0 +
STACK CFI 7f700 .cfa: sp 32 +
STACK CFI 7f708 .cfa: x29 32 + x19: .cfa -8 + ^ x20: .cfa -16 + ^ .ra: .cfa -24 + ^ x29: .cfa -32 + ^
STACK CFI 7f738 .cfa: sp 32 +
STACK CFI 7f740 .cfa: sp 0 +
STACK CFI INIT 7fc1c 4 .cfa: sp 0 +
STACK CFI INIT 7fc20 38 .cfa: sp 0 +
STACK CFI 7fc24 .cfa: sp 32 +
STACK CFI 7fc2c .cfa: x29 32 + x19: .cfa -16 + ^ .ra: .cfa -24 + ^ x29: .cfa -32 + ^
STACK CFI 7fc4c .cfa: sp 32 +
STACK CFI 7fc54 .cfa: sp 0 +
STACK CFI INIT 7fc58 18 .cfa: sp 0 +
STACK CFI INIT 7fc70 4 .cfa: sp 0 +
STACK CFI INIT 7fc74 4 .cfa: sp 0 +
STACK CFI INIT 7fee0 1c .cfa: sp 0 +
STACK CFI INIT 7fefc c .cfa: sp 0 +
STACK CFI INIT 804fc 20 .cfa: sp 0 +
STACK CFI 80500 .cfa: sp 16 +
STACK CFI 80504 .cfa: x29 16 + .ra: .cfa -8 + ^ x29: .cfa -16 + ^
STACK CFI INIT 8051c 4 .cfa: sp 0 +
STACK CFI INIT 80520 8 .cfa: sp 0 +
STACK CFI INIT 80528 24 .cfa: sp 0 +
STACK CFI 8052c .cfa: sp 16 +
STACK CFI 80530 .cfa: x29 16 + .ra: .cfa -8 + ^ x29: .cfa -16 + ^
STACK CFI 80544 .cfa: sp 16 +
STACK CFI 80548 .cfa: sp 0 +
STACK CFI INIT 8054c 4 .cfa: sp 0 +
STACK CFI INIT 80550 4 .cfa: sp 0 +
STACK CFI INIT 80554 8 .cfa: sp 0 +
STACK CFI INIT 8055c 24 .cfa: sp 0 +
STACK CFI 80560 .cfa: sp 16 +
STACK CFI 80564 .cfa: x29 16 + .ra: .cfa -8 + ^ x29: .cfa -16 + ^
STACK CFI 80578 .cfa: sp 16 +
STACK CFI 8057c .cfa: sp 0 +
STACK CFI INIT 80580 4 .cfa: sp 0 +
STACK CFI INIT 80738 24 .cfa: sp 0 +
STACK CFI 8073c .cfa: sp 32 +
STACK CFI 80744 .cfa: x29 32 + x19: .cfa -16 + ^ .ra: .cfa -24 + ^ x29: .cfa -32 + ^
STACK CFI 80750 .cfa: sp 32 +
STACK CFI 80758 .cfa: sp 0 +
STACK CFI INIT 81224 8 .cfa: sp 0 +
STACK CFI INIT 8122c 28 .cfa: sp 0 +
STACK CFI 81230 .cfa: sp 32 +
STACK CFI 81238 .cfa: x29 32 + x19: .cfa -16 + ^ .ra: .cfa -24 + ^ x29: .cfa -32 + ^
STACK CFI 81248 .cfa: sp 32 +
STACK CFI 81250 .cfa: sp 0 +
STACK CFI INIT 81254 8 .cfa: sp 0 +
STACK CFI INIT 8125c 4 .cfa: sp 0 +
STACK CFI INIT 81260 24 .cfa: sp 0 +
STACK CFI 81264 .cfa: sp 16 +
STACK CFI 81268 .cfa: x29 16 + .ra: .cfa -8 + ^ x29: .cfa -16 + ^
STACK CFI 8127c .cfa: sp 16 +
STACK CFI 81280 .cfa: sp 0 +
STACK CFI INIT 81284 10 .cfa: sp 0 +
STACK CFI INIT 81294 4 .cfa: sp 0 +
STACK CFI INIT 81298 4 .cfa: sp 0 +
STACK CFI INIT 8129c 4 .cfa: sp 0 +
STACK CFI INIT 812a0 1c .cfa: sp 0 +
STACK CFI INIT 812bc c .cfa: sp 0 +
STACK CFI INIT 814f4 40 .cfa: sp 0 +
STACK CFI 814f8 .cfa: sp 32 +
STACK CFI 81500 .cfa: x29 32 + x19: .cfa -16 + ^ .ra: .cfa -24 + ^ x29: .cfa -32 + ^
STACK CFI 81528 .cfa: sp 32 +
STACK CFI 81530 .cfa: sp 0 +
STACK CFI INIT 81534 48 .cfa: sp 0 +
STACK CFI 81538 .cfa: sp 32 +
STACK CFI 81540 .cfa: x29 32 + x19: .cfa -16 + ^ .ra: .cfa -24 + ^ x29: .cfa -32 + ^
STACK CFI 81570 .cfa: sp 32 +
STACK CFI 81578 .cfa: sp 0 +
STACK CFI INIT 8157c 4 .cfa: sp 0 +
STACK CFI INIT 81580 4 .cfa: sp 0 +
STACK CFI INIT 81584 1c .cfa: sp 0 +
STACK CFI 81588 .cfa: sp 16 +
STACK CFI 8158c .cfa: x29 16 + .ra: .cfa -8 + ^ x29: .cfa -16 + ^
STACK CFI 81598 .cfa: sp 16 +
STACK CFI 8159c .cfa: sp 0 +
STACK CFI INIT 815a0 24 .cfa: sp 0 +
STACK CFI 815a4 .cfa: sp 16 +
STACK CFI 815a8 .cfa: x29 16 + .ra: .cfa -8 + ^ x29: .cfa -16 + ^
STACK CFI 815bc .cfa: sp 16 +
STACK CFI 815c0 .cfa: sp 0 +
STACK CFI INIT 815c4 4 .cfa: sp 0 +
STACK CFI INIT 815c8 4 .cfa: sp 0 +
STACK CFI INIT 815cc 3c .cfa: sp 0 +
STACK CFI 815d0 .cfa: sp 32 +
STACK CFI 815d8 .cfa: x29 32 + x19: .cfa -16 + ^ .ra: .cfa -24 + ^ x29: .cfa -32 + ^
STACK CFI 815e4 .cfa: sp 32 +
STACK CFI 815ec .cfa: sp 0 +
STACK CFI 815f0 .cfa: x29 32 +
STACK CFI 815fc .cfa: sp 32 +
STACK CFI 81604 .cfa: sp 0 +
STACK CFI INIT 81608 24 .cfa: sp 0 +
STACK CFI 8160c .cfa: sp 16 +
STACK CFI 81610 .cfa: x29 16 + .ra: .cfa -8 + ^ x29: .cfa -16 + ^
STACK CFI 81624 .cfa: sp 16 +
STACK CFI 81628 .cfa: sp 0 +
STACK CFI INIT 819b8 4 .cfa: sp 0 +
STACK CFI INIT 82a70 4 .cfa: sp 0 +
STACK CFI INIT 82a74 24 .cfa: sp 0 +
STACK CFI 82a78 .cfa: sp 16 +
STACK CFI 82a7c .cfa: x29 16 + .ra: .cfa -8 + ^ x29: .cfa -16 + ^
STACK CFI 82a90 .cfa: sp 16 +
STACK CFI 82a94 .cfa: sp 0 +
STACK CFI INIT 82a98 10 .cfa: sp 0 +
STACK CFI INIT 82aa8 4 .cfa: sp 0 +
STACK CFI INIT 82aac 4 .cfa: sp 0 +
STACK CFI INIT 82ab0 4 .cfa: sp 0 +
STACK CFI INIT 82ab4 1c .cfa: sp 0 +
STACK CFI INIT 82ad0 c .cfa: sp 0 +
STACK CFI INIT 835f8 4 .cfa: sp 0 +
STACK CFI INIT 84b9c 24 .cfa: sp 0 +
STACK CFI 84ba0 .cfa: sp 16 +
STACK CFI 84ba4 .cfa: x29 16 + .ra: .cfa -8 + ^ x29: .cfa -16 + ^
STACK CFI 84bb8 .cfa: sp 16 +
STACK CFI 84bbc .cfa: sp 0 +
STACK CFI INIT 84c3c 54 .cfa: sp 0 +
STACK CFI 84c40 .cfa: sp 32 +
STACK CFI 84c48 .cfa: x29 32 + x19: .cfa -16 + ^ .ra: .cfa -24 + ^ x29: .cfa -32 + ^
STACK CFI 84c84 .cfa: sp 32 +
STACK CFI 84c8c .cfa: sp 0 +
STACK CFI INIT 84d80 54 .cfa: sp 0 +
STACK CFI 84d84 .cfa: sp 32 +
STACK CFI 84d8c .cfa: x29 32 + x19: .cfa -16 + ^ .ra: .cfa -24 + ^ x29: .cfa -32 + ^
STACK CFI 84dc8 .cfa: sp 32 +
STACK CFI 84dd0 .cfa: sp 0 +
STACK CFI INIT 85d0c 48 .cfa: sp 0 +
STACK CFI 85d14 .cfa: sp 32 +
STACK CFI 85d1c .cfa: x29 32 + x19: .cfa -16 + ^ .ra: .cfa -24 + ^ x29: .cfa -32 + ^
STACK CFI 85d44 .cfa: sp 32 +
STACK CFI 85d4c .cfa: sp 0 +
STACK CFI INIT 85d54 4 .cfa: sp 0 +
STACK CFI INIT 85d58 3c .cfa: sp 0 +
STACK CFI 85d5c .cfa: sp 32 +
STACK CFI 85d64 .cfa: x29 32 + x19: .cfa -16 + ^ .ra: .cfa -24 + ^ x29: .cfa -32 + ^
STACK CFI 85d70 .cfa: sp 32 +
STACK CFI 85d78 .cfa: sp 0 +
STACK CFI 85d7c .cfa: x29 32 +
STACK CFI 85d88 .cfa: sp 32 +
STACK CFI 85d90 .cfa: sp 0 +
STACK CFI INIT 85d94 24 .cfa: sp 0 +
STACK CFI 85d98 .cfa: sp 16 +
STACK CFI 85d9c .cfa: x29 16 + .ra: .cfa -8 + ^ x29: .cfa -16 + ^
STACK CFI 85db0 .cfa: sp 16 +
STACK CFI 85db4 .cfa: sp 0 +
STACK CFI INIT 86360 1c .cfa: sp 0 +
STACK CFI INIT 86924 1c .cfa: sp 0 +
STACK CFI INIT 86ee8 1c .cfa: sp 0 +
STACK CFI INIT 875b8 4 .cfa: sp 0 +
STACK CFI INIT 87bd0 4 .cfa: sp 0 +
STACK CFI INIT 87bd4 8 .cfa: sp 0 +
STACK CFI INIT 87bdc 24 .cfa: sp 0 +
STACK CFI 87be0 .cfa: sp 16 +
STACK CFI 87be4 .cfa: x29 16 + .ra: .cfa -8 + ^ x29: .cfa -16 + ^
STACK CFI 87bf8 .cfa: sp 16 +
STACK CFI 87bfc .cfa: sp 0 +
STACK CFI INIT 87fac 4 .cfa: sp 0 +
STACK CFI INIT 88674 a0 .cfa: sp 0 +
STACK CFI 88678 .cfa: sp 48 +
STACK CFI 88684 .cfa: x29 48 + x19: .cfa -8 + ^ x20: .cfa -16 + ^ x21: .cfa -24 + ^ x22: .cfa -32 + ^ .ra: .cfa -40 + ^ x29: .cfa -48 + ^
STACK CFI 886fc .cfa: sp 48 +
STACK CFI 88708 .cfa: sp 0 +
STACK CFI 8870c .cfa: x29 48 +
STACK CFI INIT 88714 4 .cfa: sp 0 +
STACK CFI INIT 88718 14 .cfa: sp 0 +
STACK CFI 8871c .cfa: sp 16 +
STACK CFI 88720 .cfa: x29 16 + .ra: .cfa -8 + ^ x29: .cfa -16 + ^
STACK CFI INIT 88958 5c .cfa: sp 0 +
STACK CFI 8895c .cfa: sp 32 +
STACK CFI 88964 .cfa: x29 32 + x19: .cfa -8 + ^ x20: .cfa -16 + ^ .ra: .cfa -24 + ^ x29: .cfa -32 + ^
STACK CFI 8899c .cfa: sp 32 +
STACK CFI 889a4 .cfa: sp 0 +
STACK CFI 889a8 .cfa: sp 32 +
STACK CFI 889b0 .cfa: sp 0 +
STACK CFI INIT 889b4 14 .cfa: sp 0 +
STACK CFI 889b8 .cfa: sp 16 +
STACK CFI 889bc .cfa: x29 16 + .ra: .cfa -8 + ^ x29: .cfa -16 + ^
STACK CFI INIT 889c8 14 .cfa: sp 0 +
STACK CFI 889cc .cfa: sp 16 +
STACK CFI 889d0 .cfa: x29 16 + .ra: .cfa -8 + ^ x29: .cfa -16 + ^
STACK CFI INIT 889dc 14 .cfa: sp 0 +
STACK CFI 889e0 .cfa: sp 16 +
STACK CFI 889e4 .cfa: x29 16 + .ra: .cfa -8 + ^ x29: .cfa -16 + ^
STACK CFI INIT 889f0 4 .cfa: sp 0 +
STACK CFI INIT 889f4 4 .cfa: sp 0 +
STACK CFI INIT 889f8 c .cfa: sp 0 +
STACK CFI INIT 88a04 38 .cfa: sp 0 +
STACK CFI 88a08 .cfa: sp 32 +
STACK CFI 88a10 .cfa: x29 32 + x19: .cfa -16 + ^ .ra: .cfa -24 + ^ x29: .cfa -32 + ^
STACK CFI 88a30 .cfa: sp 32 +
STACK CFI 88a38 .cfa: sp 0 +
STACK CFI INIT 88db0 4 .cfa: sp 0 +
STACK CFI INIT 8aa98 4 .cfa: sp 0 +
STACK CFI INIT 8aa9c 138 .cfa: sp 0 +
STACK CFI 8aaa0 .cfa: sp 80 +
STACK CFI 8aab0 .cfa: x29 48 + x19: .cfa -8 + ^ x20: .cfa -16 + ^ x21: .cfa -32 + ^ .ra: .cfa -40 + ^ x29: .cfa -48 + ^
STACK CFI 8abc0 .cfa: sp 80 +
STACK CFI 8abd0 .cfa: sp 0 +
STACK CFI INIT 8abd4 24 .cfa: sp 0 +
STACK CFI 8abd8 .cfa: sp 16 +
STACK CFI 8abdc .cfa: x29 16 + .ra: .cfa -8 + ^ x29: .cfa -16 + ^
STACK CFI 8abf0 .cfa: sp 16 +
STACK CFI 8abf4 .cfa: sp 0 +
STACK CFI INIT 8abf8 4 .cfa: sp 0 +
STACK CFI INIT 8b238 4 .cfa: sp 0 +
STACK CFI INIT 8b23c 140 .cfa: sp 0 +
STACK CFI 8b240 .cfa: sp 80 +
STACK CFI 8b250 .cfa: x29 48 + x19: .cfa -8 + ^ x20: .cfa -16 + ^ x21: .cfa -32 + ^ .ra: .cfa -40 + ^ x29: .cfa -48 + ^
STACK CFI 8b368 .cfa: sp 80 +
STACK CFI 8b378 .cfa: sp 0 +
STACK CFI INIT 8b37c 24 .cfa: sp 0 +
STACK CFI 8b380 .cfa: sp 16 +
STACK CFI 8b384 .cfa: x29 16 + .ra: .cfa -8 + ^ x29: .cfa -16 + ^
STACK CFI 8b398 .cfa: sp 16 +
STACK CFI 8b39c .cfa: sp 0 +
STACK CFI INIT 8b3a0 4 .cfa: sp 0 +
STACK CFI INIT 8b3a4 30 .cfa: sp 0 +
STACK CFI 8b3a8 .cfa: sp 16 +
STACK CFI 8b3ac .cfa: x29 16 + .ra: .cfa -8 + ^ x29: .cfa -16 + ^
STACK CFI 8b3cc .cfa: sp 16 +
STACK CFI 8b3d0 .cfa: sp 0 +
STACK CFI INIT 8b3d4 24 .cfa: sp 0 +
STACK CFI 8b3d8 .cfa: sp 16 +
STACK CFI 8b3dc .cfa: x29 16 + .ra: .cfa -8 + ^ x29: .cfa -16 + ^
STACK CFI 8b3f0 .cfa: sp 16 +
STACK CFI 8b3f4 .cfa: sp 0 +
STACK CFI INIT 8b848 170 .cfa: sp 0 +
STACK CFI 8b84c .cfa: sp 48 +
STACK CFI 8b858 .cfa: x29 48 + x19: .cfa -8 + ^ x20: .cfa -16 + ^ x21: .cfa -24 + ^ x22: .cfa -32 + ^ .ra: .cfa -40 + ^ x29: .cfa -48 + ^
STACK CFI 8b98c .cfa: sp 48 +
STACK CFI 8b998 .cfa: sp 0 +
STACK CFI 8b99c .cfa: sp 48 +
STACK CFI 8b9a8 .cfa: sp 0 +
STACK CFI 8b9ac .cfa: x29 48 +
STACK CFI INIT 8bac0 4 .cfa: sp 0 +
STACK CFI INIT 8bac4 4 .cfa: sp 0 +
STACK CFI INIT 8bac8 10 .cfa: sp 0 +
STACK CFI INIT 8bad8 24 .cfa: sp 0 +
STACK CFI 8badc .cfa: sp 16 +
STACK CFI 8bae0 .cfa: x29 16 + .ra: .cfa -8 + ^ x29: .cfa -16 + ^
STACK CFI 8baf4 .cfa: sp 16 +
STACK CFI 8baf8 .cfa: sp 0 +
STACK CFI INIT 8c5e4 1c .cfa: sp 0 +
STACK CFI INIT 8cba8 1c .cfa: sp 0 +
STACK CFI INIT 8cbc4 1c .cfa: sp 0 +
STACK CFI INIT 8d2c4 4 .cfa: sp 0 +
STACK CFI INIT 8d2c8 34 .cfa: sp 0 +
STACK CFI 8d2cc .cfa: sp 32 +
STACK CFI 8d2d4 .cfa: x29 32 + x19: .cfa -8 + ^ x20: .cfa -16 + ^ .ra: .cfa -24 + ^ x29: .cfa -32 + ^
STACK CFI 8d2f0 .cfa: sp 32 +
STACK CFI 8d2f8 .cfa: sp 0 +
STACK CFI INIT 8d7a4 4 .cfa: sp 0 +
STACK CFI INIT 8e2bc 4 .cfa: sp 0 +
STACK CFI INIT 8ef08 1c .cfa: sp 0 +
STACK CFI INIT 8fa0c 1c .cfa: sp 0 +
STACK CFI INIT 8ffd0 1c .cfa: sp 0 +
STACK CFI INIT 8ffec 1c .cfa: sp 0 +
STACK CFI INIT 90468 4 .cfa: sp 0 +
STACK CFI INIT 90c6c 14 .cfa: sp 0 +
STACK CFI 90c70 .cfa: sp 16 +
STACK CFI 90c74 .cfa: x29 16 + .ra: .cfa -8 + ^ x29: .cfa -16 + ^
STACK CFI INIT 90c80 40 .cfa: sp 0 +
STACK CFI 90c84 .cfa: sp 32 +
STACK CFI 90c8c .cfa: x29 32 + x19: .cfa -16 + ^ .ra: .cfa -24 + ^ x29: .cfa -32 + ^
STACK CFI 90cb4 .cfa: sp 32 +
STACK CFI 90cbc .cfa: sp 0 +
STACK CFI INIT 90cc0 48 .cfa: sp 0 +
STACK CFI 90cc4 .cfa: sp 32 +
STACK CFI 90ccc .cfa: x29 32 + x19: .cfa -16 + ^ .ra: .cfa -24 + ^ x29: .cfa -32 + ^
STACK CFI 90cfc .cfa: sp 32 +
STACK CFI 90d04 .cfa: sp 0 +
STACK CFI INIT 910ec 4 .cfa: sp 0 +
STACK CFI INIT 91764 4 .cfa: sp 0 +
STACK CFI INIT 91768 64 .cfa: sp 0 +
STACK CFI 9176c .cfa: sp 32 +
STACK CFI 91774 .cfa: x29 32 + x19: .cfa -16 + ^ .ra: .cfa -24 + ^ x29: .cfa -32 + ^
STACK CFI 917c0 .cfa: sp 32 +
STACK CFI 917c8 .cfa: sp 0 +
STACK CFI INIT 919a8 4 .cfa: sp 0 +
STACK CFI INIT 91ad0 24 .cfa: sp 0 +
STACK CFI 91ad4 .cfa: sp 16 +
STACK CFI 91ad8 .cfa: x29 16 + .ra: .cfa -8 + ^ x29: .cfa -16 + ^
STACK CFI 91aec .cfa: sp 16 +
STACK CFI 91af0 .cfa: sp 0 +
STACK CFI INIT 920d0 4 .cfa: sp 0 +
STACK CFI INIT 920d4 14 .cfa: sp 0 +
STACK CFI 920d8 .cfa: sp 16 +
STACK CFI 920dc .cfa: x29 16 + .ra: .cfa -8 + ^ x29: .cfa -16 + ^
STACK CFI 920e0 .cfa: sp 16 +
STACK CFI 920e4 .cfa: sp 0 +
STACK CFI INIT 934d4 1c .cfa: sp 0 +
STACK CFI INIT 93888 4 .cfa: sp 0 +
STACK CFI INIT 9388c 3c .cfa: sp 0 +
STACK CFI 93890 .cfa: sp 32 +
STACK CFI 93898 .cfa: x29 32 + x19: .cfa -16 + ^ .ra: .cfa -24 + ^ x29: .cfa -32 + ^
STACK CFI 938a8 .cfa: sp 32 +
STACK CFI 938b0 .cfa: sp 0 +
STACK CFI 938b4 .cfa: x29 32 +
STACK CFI 938bc .cfa: sp 32 +
STACK CFI 938c4 .cfa: sp 0 +
STACK CFI INIT 93e3c 1c .cfa: sp 0 +
STACK CFI INIT 94400 1c .cfa: sp 0 +
STACK CFI INIT 949c4 1c .cfa: sp 0 +
STACK CFI INIT 95c0c 4 .cfa: sp 0 +
STACK CFI INIT 95c10 f4 .cfa: sp 0 +
STACK CFI 95c14 .cfa: sp 144 +
STACK CFI 95c24 .cfa: x29 48 + x19: .cfa -8 + ^ x20: .cfa -16 + ^ x21: .cfa -32 + ^ .ra: .cfa -40 + ^ x29: .cfa -48 + ^
STACK CFI 95c58 .cfa: sp 144 +
STACK CFI 95c68 .cfa: sp 0 +
STACK CFI 95c6c .cfa: x29 48 +
STACK CFI 95cb4 .cfa: sp 144 +
STACK CFI 95cc4 .cfa: sp 0 +
STACK CFI 95cc8 .cfa: x29 48 +
STACK CFI INIT 96af4 4 .cfa: sp 0 +
STACK CFI INIT 981d0 54 .cfa: sp 0 +
STACK CFI 981d4 .cfa: sp 32 +
STACK CFI 981dc .cfa: x29 32 + x19: .cfa -8 + ^ x20: .cfa -16 + ^ .ra: .cfa -24 + ^ x29: .cfa -32 + ^
STACK CFI 98218 .cfa: sp 32 +
STACK CFI 98220 .cfa: sp 0 +
STACK CFI INIT 98224 4 .cfa: sp 0 +
STACK CFI INIT 98228 8 .cfa: sp 0 +
STACK CFI INIT 98230 24 .cfa: sp 0 +
STACK CFI 98234 .cfa: sp 16 +
STACK CFI 98238 .cfa: x29 16 + .ra: .cfa -8 + ^ x29: .cfa -16 + ^
STACK CFI 9824c .cfa: sp 16 +
STACK CFI 98250 .cfa: sp 0 +
STACK CFI INIT 9871c 4 .cfa: sp 0 +
STACK CFI INIT 99580 4 .cfa: sp 0 +
STACK CFI INIT 99584 8 .cfa: sp 0 +
STACK CFI INIT 9958c 24 .cfa: sp 0 +
STACK CFI 99590 .cfa: sp 16 +
STACK CFI 99594 .cfa: x29 16 + .ra: .cfa -8 + ^ x29: .cfa -16 + ^
STACK CFI 995a8 .cfa: sp 16 +
STACK CFI 995ac .cfa: sp 0 +
STACK CFI INIT 995b0 4 .cfa: sp 0 +
STACK CFI INIT 995b4 3c .cfa: sp 0 +
STACK CFI 995b8 .cfa: sp 32 +
STACK CFI 995c0 .cfa: x29 32 + x19: .cfa -16 + ^ .ra: .cfa -24 + ^ x29: .cfa -32 + ^
STACK CFI 995cc .cfa: sp 32 +
STACK CFI 995d4 .cfa: sp 0 +
STACK CFI 995d8 .cfa: x29 32 +
STACK CFI 995e4 .cfa: sp 32 +
STACK CFI 995ec .cfa: sp 0 +
STACK CFI INIT 995f0 3c .cfa: sp 0 +
STACK CFI 995f4 .cfa: sp 32 +
STACK CFI 995fc .cfa: x29 32 + x19: .cfa -16 + ^ .ra: .cfa -24 + ^ x29: .cfa -32 + ^
STACK CFI 99608 .cfa: sp 32 +
STACK CFI 99610 .cfa: sp 0 +
STACK CFI 99614 .cfa: x29 32 +
STACK CFI 99620 .cfa: sp 32 +
STACK CFI 99628 .cfa: sp 0 +
STACK CFI INIT 99864 bc .cfa: sp 0 +
STACK CFI 99868 .cfa: sp 48 +
STACK CFI 99874 .cfa: x29 48 + x19: .cfa -8 + ^ x20: .cfa -16 + ^ x21: .cfa -24 + ^ x22: .cfa -32 + ^ .ra: .cfa -40 + ^ x29: .cfa -48 + ^
STACK CFI 99888 .cfa: sp 48 +
STACK CFI 99894 .cfa: sp 0 +
STACK CFI 99898 .cfa: x29 48 +
STACK CFI 998b0 .cfa: sp 48 +
STACK CFI 998bc .cfa: sp 0 +
STACK CFI 998c0 .cfa: x29 48 +
STACK CFI 99908 .cfa: sp 48 +
STACK CFI 99914 .cfa: sp 0 +
STACK CFI 99918 .cfa: x29 48 +
STACK CFI INIT 99a20 64 .cfa: sp 0 +
STACK CFI 99a24 .cfa: sp 32 +
STACK CFI 99a2c .cfa: x29 32 + x19: .cfa -16 + ^ .ra: .cfa -24 + ^ x29: .cfa -32 + ^
STACK CFI 99a58 .cfa: sp 32 +
STACK CFI 99a60 .cfa: sp 0 +
STACK CFI 99a64 .cfa: x29 32 +
STACK CFI 99a78 .cfa: sp 32 +
STACK CFI 99a80 .cfa: sp 0 +
STACK CFI INIT 99bf8 24 .cfa: sp 0 +
STACK CFI 99bfc .cfa: sp 32 +
STACK CFI 99c04 .cfa: x29 32 + x19: .cfa -16 + ^ .ra: .cfa -24 + ^ x29: .cfa -32 + ^
STACK CFI 99c10 .cfa: sp 32 +
STACK CFI 99c18 .cfa: sp 0 +
STACK CFI INIT 99c1c 8 .cfa: sp 0 +
STACK CFI INIT 99c24 24 .cfa: sp 0 +
STACK CFI 99c28 .cfa: sp 32 +
STACK CFI 99c30 .cfa: x29 32 + x19: .cfa -16 + ^ .ra: .cfa -24 + ^ x29: .cfa -32 + ^
STACK CFI 99c3c .cfa: sp 32 +
STACK CFI 99c44 .cfa: sp 0 +
STACK CFI INIT 99c48 28 .cfa: sp 0 +
STACK CFI 99c4c .cfa: sp 32 +
STACK CFI 99c54 .cfa: x29 32 + x19: .cfa -16 + ^ .ra: .cfa -24 + ^ x29: .cfa -32 + ^
STACK CFI 99c64 .cfa: sp 32 +
STACK CFI 99c6c .cfa: sp 0 +
STACK CFI INIT 99c70 24 .cfa: sp 0 +
STACK CFI 99c74 .cfa: sp 32 +
STACK CFI 99c7c .cfa: x29 32 + x19: .cfa -16 + ^ .ra: .cfa -24 + ^ x29: .cfa -32 + ^
STACK CFI 99c88 .cfa: sp 32 +
STACK CFI 99c90 .cfa: sp 0 +
STACK CFI INIT 9a4e4 8 .cfa: sp 0 +
STACK CFI INIT 9a4ec 24 .cfa: sp 0 +
STACK CFI 9a4f0 .cfa: sp 32 +
STACK CFI 9a4f8 .cfa: x29 32 + x19: .cfa -16 + ^ .ra: .cfa -24 + ^ x29: .cfa -32 + ^
STACK CFI 9a504 .cfa: sp 32 +
STACK CFI 9a50c .cfa: sp 0 +
STACK CFI INIT 9a510 28 .cfa: sp 0 +
STACK CFI 9a514 .cfa: sp 32 +
STACK CFI 9a51c .cfa: x29 32 + x19: .cfa -16 + ^ .ra: .cfa -24 + ^ x29: .cfa -32 + ^
STACK CFI 9a52c .cfa: sp 32 +
STACK CFI 9a534 .cfa: sp 0 +
STACK CFI INIT 9a538 8 .cfa: sp 0 +
STACK CFI INIT 9a540 24 .cfa: sp 0 +
STACK CFI 9a544 .cfa: sp 32 +
STACK CFI 9a54c .cfa: x29 32 + x19: .cfa -16 + ^ .ra: .cfa -24 + ^ x29: .cfa -32 + ^
STACK CFI 9a558 .cfa: sp 32 +
STACK CFI 9a560 .cfa: sp 0 +
STACK CFI INIT 9a564 28 .cfa: sp 0 +
STACK CFI 9a568 .cfa: sp 32 +
STACK CFI 9a570 .cfa: x29 32 + x19: .cfa -16 + ^ .ra: .cfa -24 + ^ x29: .cfa -32 + ^
STACK CFI 9a580 .cfa: sp 32 +
STACK CFI 9a588 .cfa: sp 0 +
STACK CFI INIT 9ada8 4 .cfa: sp 0 +
STACK CFI INIT 9adac 4 .cfa: sp 0 +
STACK CFI INIT 9adb0 4 .cfa: sp 0 +
STACK CFI INIT 9adb4 4 .cfa: sp 0 +
STACK CFI INIT 9adb8 4 .cfa: sp 0 +
STACK CFI INIT 9adbc 4 .cfa: sp 0 +
STACK CFI INIT 9adc0 4 .cfa: sp 0 +
STACK CFI INIT 9adc4 4 .cfa: sp 0 +
STACK CFI INIT 9adc8 4 .cfa: sp 0 +
STACK CFI INIT 9b660 4 .cfa: sp 0 +
STACK CFI INIT 9b664 4 .cfa: sp 0 +
STACK CFI INIT 9b668 4 .cfa: sp 0 +
STACK CFI INIT 9b66c 4 .cfa: sp 0 +
STACK CFI INIT 9b670 4 .cfa: sp 0 +
STACK CFI INIT 9b674 8 .cfa: sp 0 +
STACK CFI INIT 9b67c 4 .cfa: sp 0 +
STACK CFI INIT 9b680 4 .cfa: sp 0 +
STACK CFI INIT 9b684 4 .cfa: sp 0 +
STACK CFI INIT 9b688 4 .cfa: sp 0 +
STACK CFI INIT 9b68c 4 .cfa: sp 0 +
STACK CFI INIT 9b690 4 .cfa: sp 0 +
STACK CFI INIT 9d840 3c .cfa: sp 0 +
STACK CFI 9d844 .cfa: sp 32 +
STACK CFI 9d84c .cfa: x29 32 + x19: .cfa -16 + ^ .ra: .cfa -24 + ^ x29: .cfa -32 + ^
STACK CFI 9d870 .cfa: sp 32 +
STACK CFI 9d878 .cfa: sp 0 +
STACK CFI INIT 9d87c 44 .cfa: sp 0 +
STACK CFI 9d880 .cfa: sp 32 +
STACK CFI 9d888 .cfa: x29 32 + x19: .cfa -16 + ^ .ra: .cfa -24 + ^ x29: .cfa -32 + ^
STACK CFI 9d8b4 .cfa: sp 32 +
STACK CFI 9d8bc .cfa: sp 0 +
STACK CFI INIT 9dda4 114 .cfa: sp 0 +
STACK CFI INIT 9deb8 134 .cfa: sp 0 +
STACK CFI INIT 9dfec c .cfa: sp 0 +
STACK CFI INIT 9dff8 234 .cfa: sp 0 +
STACK CFI INIT 9e22c a0 .cfa: sp 0 +
STACK CFI 9e238 .cfa: sp 32 +
STACK CFI 9e290 .cfa: sp 0 +
STACK CFI 9e294 .cfa: sp 32 +
STACK CFI 9e29c .cfa: sp 0 +
STACK CFI 9e2a0 .cfa: sp 32 +
STACK CFI 9e2b4 .cfa: sp 0 +
STACK CFI 9e2b8 .cfa: sp 32 +
STACK CFI 9e2c8 .cfa: sp 0 +
STACK CFI INIT 9e2cc 38 .cfa: sp 0 +
STACK CFI 9e2d8 .cfa: sp 32 +
STACK CFI 9e300 .cfa: sp 0 +
STACK CFI INIT 9e304 30 .cfa: sp 0 +
STACK CFI 9e308 .cfa: sp 16 +
STACK CFI 9e30c .cfa: x29 16 + .ra: .cfa -8 + ^ x29: .cfa -16 + ^
STACK CFI INIT 9e384 30 .cfa: sp 0 +
STACK CFI 9e388 .cfa: sp 32 +
STACK CFI 9e390 .cfa: x29 32 + x19: .cfa -16 + ^ .ra: .cfa -24 + ^ x29: .cfa -32 + ^
STACK CFI 9e3a8 .cfa: sp 32 +
STACK CFI 9e3b0 .cfa: sp 0 +
STACK CFI INIT 9e6e4 14 .cfa: sp 0 +
STACK CFI INIT 9e894 80 .cfa: sp 0 +
STACK CFI 9e898 .cfa: sp 32 +
STACK CFI 9e8a0 .cfa: x29 32 + x19: .cfa -16 + ^ .ra: .cfa -24 + ^ x29: .cfa -32 + ^
STACK CFI 9e8d0 .cfa: sp 32 +
STACK CFI 9e8d8 .cfa: sp 0 +
STACK CFI 9e8dc .cfa: x29 32 +
STACK CFI 9e908 .cfa: sp 32 +
STACK CFI 9e910 .cfa: sp 0 +
STACK CFI INIT 9ec1c 88 .cfa: sp 0 +
STACK CFI INIT 9eca4 64 .cfa: sp 0 +
STACK CFI 9eca8 .cfa: sp 32 +
STACK CFI 9ecb0 .cfa: x29 32 + x19: .cfa -16 + ^ .ra: .cfa -24 + ^ x29: .cfa -32 + ^
STACK CFI 9eccc .cfa: sp 32 +
STACK CFI 9ecd4 .cfa: sp 0 +
STACK CFI 9ecd8 .cfa: x29 32 +
STACK CFI 9ecfc .cfa: sp 32 +
STACK CFI 9ed04 .cfa: sp 0 +
STACK CFI INIT 9efc0 ac .cfa: sp 0 +
STACK CFI INIT 9f2dc b4 .cfa: sp 0 +
STACK CFI 9f2e0 .cfa: sp 48 +
STACK CFI 9f2ec .cfa: x29 48 + x19: .cfa -8 + ^ x20: .cfa -16 + ^ x21: .cfa -24 + ^ x28: .cfa -32 + ^ .ra: .cfa -40 + ^ x29: .cfa -48 + ^
STACK CFI 9f37c .cfa: sp 48 +
STACK CFI 9f388 .cfa: sp 0 +
STACK CFI 9f38c .cfa: x29 48 +
STACK CFI INIT 9f390 700 .cfa: sp 0 +
STACK CFI 9f394 .cfa: sp 192 +
STACK CFI 9f3a8 .cfa: x29 64 + x19: .cfa -8 + ^ x20: .cfa -16 + ^ x21: .cfa -24 + ^ x22: .cfa -32 + ^ x23: .cfa -40 + ^ x24: .cfa -48 + ^ .ra: .cfa -56 + ^ x29: .cfa -64 + ^
STACK CFI 9f5d8 .cfa: sp 192 +
STACK CFI 9f5ec .cfa: sp 0 +
STACK CFI 9f5f0 .cfa: x29 64 +
STACK CFI 9f654 .cfa: sp 192 +
STACK CFI 9f668 .cfa: sp 0 +
STACK CFI 9f66c .cfa: x29 64 +
STACK CFI 9f688 .cfa: sp 192 +
STACK CFI 9f69c .cfa: sp 0 +
STACK CFI 9f6a0 .cfa: x29 64 +
STACK CFI 9f75c .cfa: sp 192 +
STACK CFI 9f770 .cfa: sp 0 +
STACK CFI 9f774 .cfa: x29 64 +
STACK CFI 9f7b0 .cfa: sp 192 +
STACK CFI 9f7c4 .cfa: sp 0 +
STACK CFI 9f7c8 .cfa: x29 64 +
STACK CFI 9f7e0 .cfa: sp 192 +
STACK CFI 9f7f4 .cfa: sp 0 +
STACK CFI 9f7f8 .cfa: x29 64 +
STACK CFI 9f810 .cfa: sp 192 +
STACK CFI 9f824 .cfa: sp 0 +
STACK CFI 9f828 .cfa: x29 64 +
STACK CFI 9f844 .cfa: sp 192 +
STACK CFI 9f858 .cfa: sp 0 +
STACK CFI 9f85c .cfa: x29 64 +
STACK CFI 9f984 .cfa: sp 192 +
STACK CFI 9f998 .cfa: sp 0 +
STACK CFI 9f99c .cfa: x29 64 +
STACK CFI INIT 9fa90 8 .cfa: sp 0 +
STACK CFI INIT 9fa98 8 .cfa: sp 0 +
STACK CFI INIT 9fc60 28 .cfa: sp 0 +
STACK CFI INIT 9fc88 224 .cfa: sp 0 +
STACK CFI INIT 9feac 308 .cfa: sp 0 +
STACK CFI INIT a01b4 5ac .cfa: sp 0 +
STACK CFI INIT a0760 8 .cfa: sp 0 +
STACK CFI INIT a092c 168 .cfa: sp 0 +
STACK CFI a0930 .cfa: sp 48 +
STACK CFI a093c .cfa: x29 48 + x19: .cfa -8 + ^ x20: .cfa -16 + ^ x21: .cfa -24 + ^ x22: .cfa -32 + ^ .ra: .cfa -40 + ^ x29: .cfa -48 + ^
STACK CFI a0a84 .cfa: sp 48 +
STACK CFI a0a90 .cfa: sp 0 +
STACK CFI INIT a0c58 118 .cfa: sp 0 +
STACK CFI a0c5c .cfa: sp 48 +
STACK CFI a0c68 .cfa: x29 48 + x19: .cfa -8 + ^ x20: .cfa -16 + ^ x21: .cfa -24 + ^ x22: .cfa -32 + ^ .ra: .cfa -40 + ^ x29: .cfa -48 + ^
STACK CFI a0d60 .cfa: sp 48 +
STACK CFI a0d6c .cfa: sp 0 +
STACK CFI INIT a0d70 24 .cfa: sp 0 +
STACK CFI a0d74 .cfa: sp 32 +
STACK CFI a0d7c .cfa: x29 32 + x19: .cfa -16 + ^ .ra: .cfa -24 + ^ x29: .cfa -32 + ^
STACK CFI a0d88 .cfa: sp 32 +
STACK CFI a0d90 .cfa: sp 0 +
STACK CFI INIT a0d94 90 .cfa: sp 0 +
STACK CFI a0d98 .cfa: sp 32 +
STACK CFI a0da0 .cfa: x29 32 + x19: .cfa -16 + ^ .ra: .cfa -24 + ^ x29: .cfa -32 + ^
STACK CFI a0dd8 .cfa: sp 32 +
STACK CFI a0de0 .cfa: sp 0 +
STACK CFI a0de4 .cfa: x29 32 +
STACK CFI a0e18 .cfa: sp 32 +
STACK CFI a0e20 .cfa: sp 0 +
STACK CFI INIT a0e24 110 .cfa: sp 0 +
STACK CFI a0e28 .cfa: sp 48 +
STACK CFI a0e34 .cfa: x29 48 + x19: .cfa -8 + ^ x20: .cfa -16 + ^ x21: .cfa -32 + ^ .ra: .cfa -40 + ^ x29: .cfa -48 + ^
STACK CFI a0f10 .cfa: sp 48 +
STACK CFI a0f1c .cfa: sp 0 +
STACK CFI a0f20 .cfa: sp 48 +
STACK CFI a0f2c .cfa: sp 0 +
STACK CFI a0f30 .cfa: x29 48 +
STACK CFI INIT a1138 80 .cfa: sp 0 +
STACK CFI a113c .cfa: sp 48 +
STACK CFI a1148 .cfa: x29 48 + x19: .cfa -8 + ^ x20: .cfa -16 + ^ x21: .cfa -24 + ^ x22: .cfa -32 + ^ .ra: .cfa -40 + ^ x29: .cfa -48 + ^
STACK CFI a11a8 .cfa: sp 48 +
STACK CFI a11b4 .cfa: sp 0 +
STACK CFI INIT a11b8 64 .cfa: sp 0 +
STACK CFI a11bc .cfa: sp 64 +
STACK CFI a11c8 .cfa: x29 32 + x19: .cfa -16 + ^ .ra: .cfa -24 + ^ x29: .cfa -32 + ^
STACK CFI a1208 .cfa: sp 64 +
STACK CFI a1214 .cfa: sp 0 +
STACK CFI a1218 .cfa: x29 32 +
STACK CFI INIT a121c 1ac .cfa: sp 0 +
STACK CFI a1220 .cfa: sp 64 +
STACK CFI a122c .cfa: x29 32 + x19: .cfa -16 + ^ .ra: .cfa -24 + ^ x29: .cfa -32 + ^
STACK CFI a1390 .cfa: sp 64 +
STACK CFI a139c .cfa: sp 0 +
STACK CFI a13a0 .cfa: x29 32 +
STACK CFI INIT a13c8 260 .cfa: sp 0 +
STACK CFI a13cc .cfa: sp 80 +
STACK CFI a13dc .cfa: x29 48 + x19: .cfa -8 + ^ x20: .cfa -16 + ^ x21: .cfa -24 + ^ x22: .cfa -32 + ^ .ra: .cfa -40 + ^ x29: .cfa -48 + ^
STACK CFI a15d0 .cfa: sp 80 +
STACK CFI a15e0 .cfa: sp 0 +
STACK CFI a15e4 .cfa: x29 48 +
STACK CFI INIT a1628 1d4 .cfa: sp 0 +
STACK CFI a162c .cfa: sp 64 +
STACK CFI a1638 .cfa: x29 32 + x19: .cfa -16 + ^ .ra: .cfa -24 + ^ x29: .cfa -32 + ^
STACK CFI a17c4 .cfa: sp 64 +
STACK CFI a17d0 .cfa: sp 0 +
STACK CFI a17d4 .cfa: x29 32 +
STACK CFI INIT a17fc 338 .cfa: sp 0 +
STACK CFI a1800 .cfa: sp 160 +
STACK CFI a181c .cfa: x29 96 + x19: .cfa -8 + ^ x20: .cfa -16 + ^ x21: .cfa -24 + ^ x22: .cfa -32 + ^ x23: .cfa -40 + ^ x24: .cfa -48 + ^ x25: .cfa -56 + ^ x26: .cfa -64 + ^ x27: .cfa -72 + ^ x28: .cfa -80 + ^ .ra: .cfa -88 + ^ x29: .cfa -96 + ^
STACK CFI a1ac0 .cfa: sp 160 +
STACK CFI a1adc .cfa: sp 0 +
STACK CFI a1ae0 .cfa: x29 96 +
STACK CFI INIT a1b34 2d4 .cfa: sp 0 +
STACK CFI a1b38 .cfa: sp 144 +
STACK CFI a1b54 .cfa: x29 96 + x19: .cfa -8 + ^ x20: .cfa -16 + ^ x21: .cfa -24 + ^ x22: .cfa -32 + ^ x23: .cfa -40 + ^ x24: .cfa -48 + ^ x25: .cfa -56 + ^ x26: .cfa -64 + ^ x27: .cfa -72 + ^ x28: .cfa -80 + ^ .ra: .cfa -88 + ^ x29: .cfa -96 + ^
STACK CFI a1de4 .cfa: sp 144 +
STACK CFI a1e00 .cfa: sp 0 +
STACK CFI a1e04 .cfa: x29 96 +
STACK CFI INIT a1e08 13c .cfa: sp 0 +
STACK CFI a1e0c .cfa: sp 96 +
STACK CFI a1e1c .cfa: x29 48 + x19: .cfa -8 + ^ x20: .cfa -16 + ^ x21: .cfa -24 + ^ x22: .cfa -32 + ^ .ra: .cfa -40 + ^ x29: .cfa -48 + ^
STACK CFI a1e88 .cfa: sp 96 +
STACK CFI a1e98 .cfa: sp 0 +
STACK CFI a1e9c .cfa: x29 48 +
STACK CFI a1ee0 .cfa: sp 96 +
STACK CFI a1ef0 .cfa: sp 0 +
STACK CFI a1ef4 .cfa: x29 48 +
STACK CFI a1f2c .cfa: sp 96 +
STACK CFI a1f3c .cfa: sp 0 +
STACK CFI a1f40 .cfa: x29 48 +
STACK CFI INIT a1f44 8d4 .cfa: sp 0 +
STACK CFI a1f48 .cfa: sp 112 +
STACK CFI a1f5c .cfa: x29 64 + x19: .cfa -8 + ^ x20: .cfa -16 + ^ x21: .cfa -24 + ^ x22: .cfa -32 + ^ x23: .cfa -40 + ^ x24: .cfa -48 + ^ .ra: .cfa -56 + ^ x29: .cfa -64 + ^
STACK CFI a2220 .cfa: sp 112 +
STACK CFI a2234 .cfa: sp 0 +
STACK CFI a2238 .cfa: x29 64 +
STACK CFI a27e0 .cfa: sp 112 +
STACK CFI a27f4 .cfa: sp 0 +
STACK CFI a27f8 .cfa: x29 64 +
STACK CFI INIT a2818 190 .cfa: sp 0 +
STACK CFI a281c .cfa: sp 96 +
STACK CFI a2830 .cfa: x29 64 + x19: .cfa -8 + ^ x20: .cfa -16 + ^ x21: .cfa -24 + ^ x22: .cfa -32 + ^ x23: .cfa -48 + ^ .ra: .cfa -56 + ^ x29: .cfa -64 + ^
STACK CFI a298c .cfa: sp 96 +
STACK CFI a29a0 .cfa: sp 0 +
STACK CFI a29a4 .cfa: x29 64 +
STACK CFI INIT a29a8 1c8 .cfa: sp 0 +
STACK CFI a29ac .cfa: sp 96 +
STACK CFI a29c0 .cfa: x29 64 + x19: .cfa -8 + ^ x20: .cfa -16 + ^ x21: .cfa -24 + ^ x22: .cfa -32 + ^ x23: .cfa -48 + ^ .ra: .cfa -56 + ^ x29: .cfa -64 + ^
STACK CFI a2b54 .cfa: sp 96 +
STACK CFI a2b68 .cfa: sp 0 +
STACK CFI a2b6c .cfa: x29 64 +
STACK CFI INIT a2b70 198 .cfa: sp 0 +
STACK CFI a2b74 .cfa: sp 112 +
STACK CFI a2b88 .cfa: x29 64 + x19: .cfa -8 + ^ x20: .cfa -16 + ^ x21: .cfa -24 + ^ x22: .cfa -32 + ^ x23: .cfa -48 + ^ .ra: .cfa -56 + ^ x29: .cfa -64 + ^
STACK CFI a2cec .cfa: sp 112 +
STACK CFI a2d00 .cfa: sp 0 +
STACK CFI a2d04 .cfa: x29 64 +
STACK CFI INIT a2d08 194 .cfa: sp 0 +
STACK CFI a2d0c .cfa: sp 96 +
STACK CFI a2d20 .cfa: x29 64 + x19: .cfa -8 + ^ x20: .cfa -16 + ^ x21: .cfa -24 + ^ x22: .cfa -32 + ^ x23: .cfa -48 + ^ .ra: .cfa -56 + ^ x29: .cfa -64 + ^
STACK CFI a2e80 .cfa: sp 96 +
STACK CFI a2e94 .cfa: sp 0 +
STACK CFI a2e98 .cfa: x29 64 +
STACK CFI INIT a2e9c 180 .cfa: sp 0 +
STACK CFI a2ea0 .cfa: sp 96 +
STACK CFI a2eb0 .cfa: x29 48 + x19: .cfa -8 + ^ x20: .cfa -16 + ^ x21: .cfa -24 + ^ x22: .cfa -32 + ^ .ra: .cfa -40 + ^ x29: .cfa -48 + ^
STACK CFI a2fdc .cfa: sp 96 +
STACK CFI a2fec .cfa: sp 0 +
STACK CFI a2ff0 .cfa: x29 48 +
STACK CFI INIT a301c 244 .cfa: sp 0 +
STACK CFI a3020 .cfa: sp 96 +
STACK CFI a3038 .cfa: x29 96 + x19: .cfa -8 + ^ x20: .cfa -16 + ^ x21: .cfa -24 + ^ x22: .cfa -32 + ^ x23: .cfa -40 + ^ x24: .cfa -48 + ^ x25: .cfa -56 + ^ x26: .cfa -64 + ^ x27: .cfa -72 + ^ x28: .cfa -80 + ^ .ra: .cfa -88 + ^ x29: .cfa -96 + ^
STACK CFI a3220 .cfa: sp 96 +
STACK CFI a3238 .cfa: sp 0 +
STACK CFI a323c .cfa: x29 96 +
STACK CFI a3244 .cfa: sp 96 +
STACK CFI a325c .cfa: sp 0 +
STACK CFI INIT a38ec 154 .cfa: sp 0 +
STACK CFI a38f0 .cfa: sp 80 +
STACK CFI a3900 .cfa: x29 48 + x19: .cfa -8 + ^ x20: .cfa -16 + ^ x21: .cfa -24 + ^ x22: .cfa -32 + ^ .ra: .cfa -40 + ^ x29: .cfa -48 + ^
STACK CFI a39e4 .cfa: sp 80 +
STACK CFI a39f4 .cfa: sp 0 +
STACK CFI a39f8 .cfa: x29 48 +
STACK CFI INIT a3c00 44 .cfa: sp 0 +
STACK CFI a3c04 .cfa: sp 32 +
STACK CFI a3c0c .cfa: x29 32 + x19: .cfa -16 + ^ .ra: .cfa -24 + ^ x29: .cfa -32 + ^
STACK CFI a3c28 .cfa: sp 32 +
STACK CFI a3c30 .cfa: sp 0 +
STACK CFI a3c34 .cfa: x29 32 +
STACK CFI a3c38 .cfa: sp 32 +
STACK CFI a3c40 .cfa: sp 0 +
STACK CFI INIT a3c44 1e8 .cfa: sp 0 +
STACK CFI a3c48 .cfa: sp 64 +
STACK CFI a3c58 .cfa: x29 64 + x19: .cfa -8 + ^ x20: .cfa -16 + ^ x21: .cfa -24 + ^ x22: .cfa -32 + ^ x23: .cfa -40 + ^ x24: .cfa -48 + ^ .ra: .cfa -56 + ^ x29: .cfa -64 + ^
STACK CFI a3d24 .cfa: sp 64 +
STACK CFI a3d34 .cfa: sp 0 +
STACK CFI a3d38 .cfa: x29 64 +
STACK CFI INIT a3e2c 188 .cfa: sp 0 +
STACK CFI INIT a3fb4 13c .cfa: sp 0 +
STACK CFI a3fb8 .cfa: sp 48 +
STACK CFI a3fc4 .cfa: x29 48 + x19: .cfa -8 + ^ x20: .cfa -16 + ^ x21: .cfa -32 + ^ .ra: .cfa -40 + ^ x29: .cfa -48 + ^
STACK CFI a40e0 .cfa: sp 48 +
STACK CFI a40ec .cfa: sp 0 +
STACK CFI INIT a4798 110 .cfa: sp 0 +
STACK CFI a479c .cfa: sp 48 +
STACK CFI a47a8 .cfa: x29 48 + x19: .cfa -8 + ^ x20: .cfa -16 + ^ x21: .cfa -32 + ^ .ra: .cfa -40 + ^ x29: .cfa -48 + ^
STACK CFI a4884 .cfa: sp 48 +
STACK CFI a4890 .cfa: sp 0 +
STACK CFI a4894 .cfa: sp 48 +
STACK CFI a48a0 .cfa: sp 0 +
STACK CFI a48a4 .cfa: x29 48 +
STACK CFI INIT a48a8 16c .cfa: sp 0 +
STACK CFI a48ac .cfa: sp 64 +
STACK CFI a48bc .cfa: x29 64 + x19: .cfa -8 + ^ x20: .cfa -16 + ^ x21: .cfa -24 + ^ x22: .cfa -32 + ^ x23: .cfa -40 + ^ x24: .cfa -48 + ^ .ra: .cfa -56 + ^ x29: .cfa -64 + ^
STACK CFI a49e0 .cfa: sp 64 +
STACK CFI a49f0 .cfa: sp 0 +
STACK CFI a49f4 .cfa: x29 64 +
STACK CFI a4a00 .cfa: sp 64 +
STACK CFI a4a10 .cfa: sp 0 +
STACK CFI INIT a4b5c 224 .cfa: sp 0 +
STACK CFI a4b60 .cfa: sp 96 +
STACK CFI a4b74 .cfa: x29 64 + x19: .cfa -8 + ^ x20: .cfa -16 + ^ x21: .cfa -24 + ^ x22: .cfa -32 + ^ x23: .cfa -48 + ^ .ra: .cfa -56 + ^ x29: .cfa -64 + ^
STACK CFI a4d64 .cfa: sp 96 +
STACK CFI a4d78 .cfa: sp 0 +
STACK CFI a4d7c .cfa: x29 64 +
STACK CFI INIT a541c 158 .cfa: sp 0 +
STACK CFI a5420 .cfa: sp 80 +
STACK CFI a5430 .cfa: x29 48 + x19: .cfa -8 + ^ x20: .cfa -16 + ^ x21: .cfa -24 + ^ x22: .cfa -32 + ^ .ra: .cfa -40 + ^ x29: .cfa -48 + ^
STACK CFI a5518 .cfa: sp 80 +
STACK CFI a5528 .cfa: sp 0 +
STACK CFI a552c .cfa: x29 48 +
STACK CFI INIT a5574 1ac .cfa: sp 0 +
STACK CFI INIT a5720 13c .cfa: sp 0 +
STACK CFI a5724 .cfa: sp 48 +
STACK CFI a5730 .cfa: x29 48 + x19: .cfa -8 + ^ x20: .cfa -16 + ^ x21: .cfa -32 + ^ .ra: .cfa -40 + ^ x29: .cfa -48 + ^
STACK CFI a584c .cfa: sp 48 +
STACK CFI a5858 .cfa: sp 0 +
STACK CFI INIT a5b3c 16c .cfa: sp 0 +
STACK CFI a5b40 .cfa: sp 64 +
STACK CFI a5b50 .cfa: x29 64 + x19: .cfa -8 + ^ x20: .cfa -16 + ^ x21: .cfa -24 + ^ x22: .cfa -32 + ^ x23: .cfa -40 + ^ x24: .cfa -48 + ^ .ra: .cfa -56 + ^ x29: .cfa -64 + ^
STACK CFI a5c74 .cfa: sp 64 +
STACK CFI a5c84 .cfa: sp 0 +
STACK CFI a5c88 .cfa: x29 64 +
STACK CFI a5c94 .cfa: sp 64 +
STACK CFI a5ca4 .cfa: sp 0 +
STACK CFI INIT a5df0 230 .cfa: sp 0 +
STACK CFI a5df4 .cfa: sp 96 +
STACK CFI a5e08 .cfa: x29 64 + x19: .cfa -8 + ^ x20: .cfa -16 + ^ x21: .cfa -24 + ^ x22: .cfa -32 + ^ x23: .cfa -48 + ^ .ra: .cfa -56 + ^ x29: .cfa -64 + ^
STACK CFI a6004 .cfa: sp 96 +
STACK CFI a6018 .cfa: sp 0 +
STACK CFI a601c .cfa: x29 64 +
STACK CFI INIT a6460 5a8 .cfa: sp 0 +
STACK CFI a6464 .cfa: sp 176 +
STACK CFI a6480 .cfa: x29 96 + x19: .cfa -8 + ^ x20: .cfa -16 + ^ x21: .cfa -24 + ^ x22: .cfa -32 + ^ x23: .cfa -40 + ^ x24: .cfa -48 + ^ x25: .cfa -56 + ^ x26: .cfa -64 + ^ x27: .cfa -72 + ^ x28: .cfa -80 + ^ .ra: .cfa -88 + ^ x29: .cfa -96 + ^
STACK CFI a69e4 .cfa: sp 176 +
STACK CFI a6a00 .cfa: sp 0 +
STACK CFI a6a04 .cfa: x29 96 +
STACK CFI INIT a6a08 1e8 .cfa: sp 0 +
STACK CFI a6a0c .cfa: sp 80 +
STACK CFI a6a20 .cfa: x29 80 + x19: .cfa -8 + ^ x20: .cfa -16 + ^ x21: .cfa -24 + ^ x22: .cfa -32 + ^ x23: .cfa -40 + ^ x24: .cfa -48 + ^ x25: .cfa -64 + ^ .ra: .cfa -72 + ^ x29: .cfa -80 + ^
STACK CFI a6bb4 .cfa: sp 80 +
STACK CFI a6bc8 .cfa: sp 0 +
STACK CFI a6bcc .cfa: x29 80 +
STACK CFI a6bd8 .cfa: sp 80 +
STACK CFI a6bec .cfa: sp 0 +
STACK CFI INIT a6bf0 2cc .cfa: sp 0 +
STACK CFI a6bf4 .cfa: sp 160 +
STACK CFI a6c08 .cfa: x29 64 + x19: .cfa -8 + ^ x20: .cfa -16 + ^ x21: .cfa -24 + ^ x22: .cfa -32 + ^ x23: .cfa -40 + ^ x24: .cfa -48 + ^ .ra: .cfa -56 + ^ x29: .cfa -64 + ^
STACK CFI a6e7c .cfa: sp 160 +
STACK CFI a6e90 .cfa: sp 0 +
STACK CFI a6e94 .cfa: x29 64 +
STACK CFI INIT a832c 12c .cfa: sp 0 +
STACK CFI a8330 .cfa: sp 32 +
STACK CFI a8338 .cfa: x29 32 + x19: .cfa -8 + ^ x20: .cfa -16 + ^ .ra: .cfa -24 + ^ x29: .cfa -32 + ^
STACK CFI a844c .cfa: sp 32 +
STACK CFI a8454 .cfa: sp 0 +
STACK CFI INIT a8458 170 .cfa: sp 0 +
STACK CFI a845c .cfa: sp 48 +
STACK CFI a8468 .cfa: x29 48 + x19: .cfa -8 + ^ x20: .cfa -16 + ^ x21: .cfa -24 + ^ x22: .cfa -32 + ^ .ra: .cfa -40 + ^ x29: .cfa -48 + ^
STACK CFI a84d4 .cfa: sp 48 +
STACK CFI a84e0 .cfa: sp 0 +
STACK CFI a84e4 .cfa: x29 48 +
STACK CFI a8520 .cfa: sp 48 +
STACK CFI a852c .cfa: sp 0 +
STACK CFI a8530 .cfa: x29 48 +
STACK CFI INIT a85c8 36c .cfa: sp 0 +
STACK CFI a85cc .cfa: sp 80 +
STACK CFI a85e0 .cfa: x29 80 + x19: .cfa -8 + ^ x20: .cfa -16 + ^ x21: .cfa -24 + ^ x22: .cfa -32 + ^ x23: .cfa -40 + ^ x24: .cfa -48 + ^ x25: .cfa -64 + ^ .ra: .cfa -72 + ^ x29: .cfa -80 + ^
STACK CFI a8770 .cfa: sp 80 +
STACK CFI a8784 .cfa: sp 0 +
STACK CFI a8788 .cfa: x29 80 +
STACK CFI INIT a8934 110 .cfa: sp 0 +
STACK CFI a8938 .cfa: sp 48 +
STACK CFI a8944 .cfa: x29 48 + x19: .cfa -8 + ^ x20: .cfa -16 + ^ x21: .cfa -32 + ^ .ra: .cfa -40 + ^ x29: .cfa -48 + ^
STACK CFI a8a20 .cfa: sp 48 +
STACK CFI a8a2c .cfa: sp 0 +
STACK CFI a8a30 .cfa: sp 48 +
STACK CFI a8a3c .cfa: sp 0 +
STACK CFI a8a40 .cfa: x29 48 +
STACK CFI INIT a966c 17c .cfa: sp 0 +
STACK CFI a9670 .cfa: sp 64 +
STACK CFI a9680 .cfa: x29 64 + x19: .cfa -8 + ^ x20: .cfa -16 + ^ x21: .cfa -24 + ^ x22: .cfa -32 + ^ x23: .cfa -40 + ^ x24: .cfa -48 + ^ .ra: .cfa -56 + ^ x29: .cfa -64 + ^
STACK CFI a9790 .cfa: sp 64 +
STACK CFI a97a0 .cfa: sp 0 +
STACK CFI a97a4 .cfa: x29 64 +
STACK CFI INIT a97e8 16c .cfa: sp 0 +
STACK CFI a97ec .cfa: sp 48 +
STACK CFI a97f8 .cfa: x29 48 + x19: .cfa -8 + ^ x20: .cfa -16 + ^ x21: .cfa -24 + ^ x22: .cfa -32 + ^ .ra: .cfa -40 + ^ x29: .cfa -48 + ^
STACK CFI a9944 .cfa: sp 48 +
STACK CFI a9950 .cfa: sp 0 +
STACK CFI INIT a9954 13c .cfa: sp 0 +
STACK CFI a9958 .cfa: sp 48 +
STACK CFI a9964 .cfa: x29 48 + x19: .cfa -8 + ^ x20: .cfa -16 + ^ x21: .cfa -32 + ^ .ra: .cfa -40 + ^ x29: .cfa -48 + ^
STACK CFI a9a80 .cfa: sp 48 +
STACK CFI a9a8c .cfa: sp 0 +
STACK CFI INIT a9eb8 16c .cfa: sp 0 +
STACK CFI a9ebc .cfa: sp 64 +
STACK CFI a9ecc .cfa: x29 64 + x19: .cfa -8 + ^ x20: .cfa -16 + ^ x21: .cfa -24 + ^ x22: .cfa -32 + ^ x23: .cfa -40 + ^ x24: .cfa -48 + ^ .ra: .cfa -56 + ^ x29: .cfa -64 + ^
STACK CFI a9ff0 .cfa: sp 64 +
STACK CFI aa000 .cfa: sp 0 +
STACK CFI aa004 .cfa: x29 64 +
STACK CFI aa010 .cfa: sp 64 +
STACK CFI aa020 .cfa: sp 0 +
STACK CFI INIT aa250 2a4 .cfa: sp 0 +
STACK CFI aa254 .cfa: sp 48 +
STACK CFI aa260 .cfa: x29 48 + x19: .cfa -8 + ^ x20: .cfa -16 + ^ x21: .cfa -24 + ^ x22: .cfa -32 + ^ .ra: .cfa -40 + ^ x29: .cfa -48 + ^
STACK CFI aa4e4 .cfa: sp 48 +
STACK CFI aa4f0 .cfa: sp 0 +
STACK CFI INIT aa4f4 1d8 .cfa: sp 0 +
STACK CFI aa4f8 .cfa: sp 96 +
STACK CFI aa50c .cfa: x29 64 + x19: .cfa -8 + ^ x20: .cfa -16 + ^ x21: .cfa -24 + ^ x22: .cfa -32 + ^ x23: .cfa -40 + ^ x24: .cfa -48 + ^ .ra: .cfa -56 + ^ x29: .cfa -64 + ^
STACK CFI aa658 .cfa: sp 96 +
STACK CFI aa66c .cfa: sp 0 +
STACK CFI aa670 .cfa: x29 64 +
STACK CFI INIT aa6cc 634 .cfa: sp 0 +
STACK CFI aa6d0 .cfa: sp 192 +
STACK CFI aa6e4 .cfa: x29 64 + x19: .cfa -8 + ^ x20: .cfa -16 + ^ x21: .cfa -24 + ^ x22: .cfa -32 + ^ x23: .cfa -40 + ^ x24: .cfa -48 + ^ .ra: .cfa -56 + ^ x29: .cfa -64 + ^
STACK CFI aac58 .cfa: sp 192 +
STACK CFI aac6c .cfa: sp 0 +
STACK CFI aac70 .cfa: x29 64 +
STACK CFI INIT aad00 b94 .cfa: sp 0 +
STACK CFI aad04 .cfa: sp 384 +
STACK CFI aad20 .cfa: x29 96 + x19: .cfa -8 + ^ x20: .cfa -16 + ^ x21: .cfa -24 + ^ x22: .cfa -32 + ^ x23: .cfa -40 + ^ x24: .cfa -48 + ^ x25: .cfa -56 + ^ x26: .cfa -64 + ^ x27: .cfa -72 + ^ x28: .cfa -80 + ^ .ra: .cfa -88 + ^ x29: .cfa -96 + ^
STACK CFI ab798 .cfa: sp 384 +
STACK CFI ab7b4 .cfa: sp 0 +
STACK CFI ab7b8 .cfa: x29 96 +
STACK CFI INIT ab894 25c .cfa: sp 0 +
STACK CFI ab898 .cfa: sp 112 +
STACK CFI ab8b4 .cfa: x29 96 + x19: .cfa -8 + ^ x20: .cfa -16 + ^ x21: .cfa -24 + ^ x22: .cfa -32 + ^ x23: .cfa -40 + ^ x24: .cfa -48 + ^ x25: .cfa -56 + ^ x26: .cfa -64 + ^ x27: .cfa -72 + ^ x28: .cfa -80 + ^ .ra: .cfa -88 + ^ x29: .cfa -96 + ^
STACK CFI abab8 .cfa: sp 112 +
STACK CFI abad4 .cfa: sp 0 +
STACK CFI abad8 .cfa: x29 96 +
STACK CFI INIT abaf0 110 .cfa: sp 0 +
STACK CFI abaf4 .cfa: sp 128 +
STACK CFI abb04 .cfa: x29 48 + x19: .cfa -8 + ^ x20: .cfa -16 + ^ x21: .cfa -32 + ^ .ra: .cfa -40 + ^ x29: .cfa -48 + ^
STACK CFI abbcc .cfa: sp 128 +
STACK CFI abbdc .cfa: sp 0 +
STACK CFI abbe0 .cfa: x29 48 +
STACK CFI INIT abc00 90 .cfa: sp 0 +
STACK CFI abc04 .cfa: sp 16 +
STACK CFI abc08 .cfa: x29 16 + .ra: .cfa -8 + ^ x29: .cfa -16 + ^
STACK CFI abc64 .cfa: sp 16 +
STACK CFI abc68 .cfa: sp 0 +
STACK CFI abc6c .cfa: x29 16 +
STACK CFI INIT abc90 934 .cfa: sp 0 +
STACK CFI abc94 .cfa: sp 160 +
STACK CFI abcac .cfa: x29 80 + x19: .cfa -8 + ^ x20: .cfa -16 + ^ x21: .cfa -24 + ^ x22: .cfa -32 + ^ x23: .cfa -40 + ^ x24: .cfa -48 + ^ x25: .cfa -64 + ^ .ra: .cfa -72 + ^ x29: .cfa -80 + ^
STACK CFI abf98 .cfa: sp 160 +
STACK CFI abfb0 .cfa: sp 0 +
STACK CFI abfb4 .cfa: x29 80 +
STACK CFI ac588 .cfa: sp 160 +
STACK CFI ac5a0 .cfa: sp 0 +
STACK CFI ac5a4 .cfa: x29 80 +
STACK CFI INIT ac5c4 19c .cfa: sp 0 +
STACK CFI ac5c8 .cfa: sp 96 +
STACK CFI ac5dc .cfa: x29 64 + x19: .cfa -8 + ^ x20: .cfa -16 + ^ x21: .cfa -24 + ^ x22: .cfa -32 + ^ x23: .cfa -48 + ^ .ra: .cfa -56 + ^ x29: .cfa -64 + ^
STACK CFI ac744 .cfa: sp 96 +
STACK CFI ac758 .cfa: sp 0 +
STACK CFI ac75c .cfa: x29 64 +
STACK CFI INIT ac760 1cc .cfa: sp 0 +
STACK CFI ac764 .cfa: sp 96 +
STACK CFI ac778 .cfa: x29 64 + x19: .cfa -8 + ^ x20: .cfa -16 + ^ x21: .cfa -24 + ^ x22: .cfa -32 + ^ x23: .cfa -48 + ^ .ra: .cfa -56 + ^ x29: .cfa -64 + ^
STACK CFI ac910 .cfa: sp 96 +
STACK CFI ac924 .cfa: sp 0 +
STACK CFI ac928 .cfa: x29 64 +
STACK CFI INIT ac92c 1a0 .cfa: sp 0 +
STACK CFI ac930 .cfa: sp 144 +
STACK CFI ac944 .cfa: x29 64 + x19: .cfa -8 + ^ x20: .cfa -16 + ^ x21: .cfa -24 + ^ x22: .cfa -32 + ^ x23: .cfa -48 + ^ .ra: .cfa -56 + ^ x29: .cfa -64 + ^
STACK CFI acab0 .cfa: sp 144 +
STACK CFI acac4 .cfa: sp 0 +
STACK CFI acac8 .cfa: x29 64 +
STACK CFI INIT acacc 198 .cfa: sp 0 +
STACK CFI acad0 .cfa: sp 96 +
STACK CFI acae4 .cfa: x29 64 + x19: .cfa -8 + ^ x20: .cfa -16 + ^ x21: .cfa -24 + ^ x22: .cfa -32 + ^ x23: .cfa -48 + ^ .ra: .cfa -56 + ^ x29: .cfa -64 + ^
STACK CFI acc48 .cfa: sp 96 +
STACK CFI acc5c .cfa: sp 0 +
STACK CFI acc60 .cfa: x29 64 +
STACK CFI INIT acc64 abc .cfa: sp 0 +
STACK CFI acc68 .cfa: sp 256 +
STACK CFI acc84 .cfa: x29 96 + x19: .cfa -8 + ^ x20: .cfa -16 + ^ x21: .cfa -24 + ^ x22: .cfa -32 + ^ x23: .cfa -40 + ^ x24: .cfa -48 + ^ x25: .cfa -56 + ^ x26: .cfa -64 + ^ x27: .cfa -72 + ^ x28: .cfa -80 + ^ .ra: .cfa -88 + ^ x29: .cfa -96 + ^
STACK CFI acf94 .cfa: sp 256 +
STACK CFI acfb0 .cfa: sp 0 +
STACK CFI acfb4 .cfa: x29 96 +
STACK CFI ad6c0 .cfa: sp 256 +
STACK CFI ad6dc .cfa: sp 0 +
STACK CFI ad6e0 .cfa: x29 96 +
STACK CFI INIT ad720 1d4 .cfa: sp 0 +
STACK CFI ad724 .cfa: sp 144 +
STACK CFI ad740 .cfa: x29 96 + x19: .cfa -8 + ^ x20: .cfa -16 + ^ x21: .cfa -24 + ^ x22: .cfa -32 + ^ x23: .cfa -40 + ^ x24: .cfa -48 + ^ x25: .cfa -56 + ^ x26: .cfa -64 + ^ x27: .cfa -80 + ^ .ra: .cfa -88 + ^ x29: .cfa -96 + ^
STACK CFI ad8d0 .cfa: sp 144 +
STACK CFI ad8ec .cfa: sp 0 +
STACK CFI ad8f0 .cfa: x29 96 +
STACK CFI INIT ad8f4 1e8 .cfa: sp 0 +
STACK CFI ad8f8 .cfa: sp 112 +
STACK CFI ad90c .cfa: x29 64 + x19: .cfa -8 + ^ x20: .cfa -16 + ^ x21: .cfa -24 + ^ x22: .cfa -32 + ^ x23: .cfa -48 + ^ .ra: .cfa -56 + ^ x29: .cfa -64 + ^
STACK CFI adac0 .cfa: sp 112 +
STACK CFI adad4 .cfa: sp 0 +
STACK CFI adad8 .cfa: x29 64 +
STACK CFI INIT adadc 1c0 .cfa: sp 0 +
STACK CFI adae0 .cfa: sp 208 +
STACK CFI adaf4 .cfa: x29 64 + x19: .cfa -8 + ^ x20: .cfa -16 + ^ x21: .cfa -24 + ^ x22: .cfa -32 + ^ x23: .cfa -48 + ^ .ra: .cfa -56 + ^ x29: .cfa -64 + ^
STACK CFI adc80 .cfa: sp 208 +
STACK CFI adc94 .cfa: sp 0 +
STACK CFI adc98 .cfa: x29 64 +
STACK CFI INIT adc9c 1b4 .cfa: sp 0 +
STACK CFI adca0 .cfa: sp 128 +
STACK CFI adcb4 .cfa: x29 64 + x19: .cfa -8 + ^ x20: .cfa -16 + ^ x21: .cfa -24 + ^ x22: .cfa -32 + ^ x23: .cfa -48 + ^ .ra: .cfa -56 + ^ x29: .cfa -64 + ^
STACK CFI ade34 .cfa: sp 128 +
STACK CFI ade48 .cfa: sp 0 +
STACK CFI ade4c .cfa: x29 64 +
STACK CFI INIT ade50 1f4 .cfa: sp 0 +
STACK CFI ade54 .cfa: sp 128 +
STACK CFI ade6c .cfa: x29 80 + x19: .cfa -8 + ^ x20: .cfa -16 + ^ x21: .cfa -24 + ^ x22: .cfa -32 + ^ x23: .cfa -40 + ^ x24: .cfa -48 + ^ x25: .cfa -64 + ^ .ra: .cfa -72 + ^ x29: .cfa -80 + ^
STACK CFI adf78 .cfa: sp 128 +
STACK CFI adf90 .cfa: sp 0 +
STACK CFI adf94 .cfa: x29 80 +
STACK CFI ae008 .cfa: sp 128 +
STACK CFI ae020 .cfa: sp 0 +
STACK CFI ae024 .cfa: x29 80 +
STACK CFI INIT ae434 560 .cfa: sp 0 +
STACK CFI ae438 .cfa: sp 144 +
STACK CFI ae454 .cfa: x29 96 + x19: .cfa -8 + ^ x20: .cfa -16 + ^ x21: .cfa -24 + ^ x22: .cfa -32 + ^ x23: .cfa -40 + ^ x24: .cfa -48 + ^ x25: .cfa -56 + ^ x26: .cfa -64 + ^ x27: .cfa -72 + ^ x28: .cfa -80 + ^ .ra: .cfa -88 + ^ x29: .cfa -96 + ^
STACK CFI ae970 .cfa: sp 144 +
STACK CFI ae98c .cfa: sp 0 +
STACK CFI ae990 .cfa: x29 96 +
STACK CFI INIT af198 1d4 .cfa: sp 0 +
STACK CFI af19c .cfa: sp 64 +
STACK CFI af1a8 .cfa: x29 32 + x19: .cfa -16 + ^ .ra: .cfa -24 + ^ x29: .cfa -32 + ^
STACK CFI af334 .cfa: sp 64 +
STACK CFI af340 .cfa: sp 0 +
STACK CFI af344 .cfa: x29 32 +
STACK CFI INIT af954 98 .cfa: sp 0 +
STACK CFI af958 .cfa: sp 64 +
STACK CFI af968 .cfa: x29 64 + x19: .cfa -8 + ^ x20: .cfa -16 + ^ x21: .cfa -24 + ^ x22: .cfa -32 + ^ x23: .cfa -48 + ^ .ra: .cfa -56 + ^ x29: .cfa -64 + ^
STACK CFI af9d8 .cfa: sp 64 +
STACK CFI af9e8 .cfa: sp 0 +
STACK CFI INIT b10b4 fc .cfa: sp 0 +
STACK CFI b10b8 .cfa: sp 64 +
STACK CFI b10c8 .cfa: x29 64 + x19: .cfa -8 + ^ x20: .cfa -16 + ^ x21: .cfa -24 + ^ x22: .cfa -32 + ^ x23: .cfa -40 + ^ x24: .cfa -48 + ^ .ra: .cfa -56 + ^ x29: .cfa -64 + ^
STACK CFI b1138 .cfa: sp 64 +
STACK CFI b1148 .cfa: sp 0 +
STACK CFI b114c .cfa: x29 64 +
STACK CFI b119c .cfa: sp 64 +
STACK CFI b11ac .cfa: sp 0 +
STACK CFI INIT b1920 fc .cfa: sp 0 +
STACK CFI b1924 .cfa: sp 64 +
STACK CFI b1934 .cfa: x29 64 + x19: .cfa -8 + ^ x20: .cfa -16 + ^ x21: .cfa -24 + ^ x22: .cfa -32 + ^ x23: .cfa -40 + ^ x24: .cfa -48 + ^ .ra: .cfa -56 + ^ x29: .cfa -64 + ^
STACK CFI b19a4 .cfa: sp 64 +
STACK CFI b19b4 .cfa: sp 0 +
STACK CFI b19b8 .cfa: x29 64 +
STACK CFI b1a08 .cfa: sp 64 +
STACK CFI b1a18 .cfa: sp 0 +
STACK CFI INIT 4ff28 3ac .cfa: sp 0 +
STACK CFI 4ff2c .cfa: sp 176 +
STACK CFI 4ff3c .cfa: x29 48 + x19: .cfa -8 + ^ x20: .cfa -16 + ^ x21: .cfa -32 + ^ .ra: .cfa -40 + ^ x29: .cfa -48 + ^
STACK CFI 501d4 .cfa: sp 176 +
STACK CFI 501e4 .cfa: sp 0 +
STACK CFI 501e8 .cfa: x29 48 +
STACK CFI INIT 502d4 10c .cfa: sp 0 +
STACK CFI 502d8 .cfa: sp 64 +
STACK CFI 502e8 .cfa: x29 64 + x19: .cfa -8 + ^ x20: .cfa -16 + ^ x21: .cfa -24 + ^ x22: .cfa -32 + ^ x23: .cfa -48 + ^ .ra: .cfa -56 + ^ x29: .cfa -64 + ^
STACK CFI 503a8 .cfa: sp 64 +
STACK CFI 503b8 .cfa: sp 0 +
STACK CFI 503bc .cfa: x29 64 +
STACK CFI INIT 503e0 264 .cfa: sp 0 +
STACK CFI 503e4 .cfa: sp 160 +
STACK CFI 503f4 .cfa: x29 48 + x19: .cfa -8 + ^ x20: .cfa -16 + ^ x21: .cfa -32 + ^ .ra: .cfa -40 + ^ x29: .cfa -48 + ^
STACK CFI 50588 .cfa: sp 160 +
STACK CFI 50598 .cfa: sp 0 +
STACK CFI 5059c .cfa: x29 48 +
STACK CFI INIT 506d4 574 .cfa: sp 0 +
STACK CFI 506d8 .cfa: sp 256 +
STACK CFI 506f4 .cfa: x29 96 + x19: .cfa -8 + ^ x20: .cfa -16 + ^ x21: .cfa -24 + ^ x22: .cfa -32 + ^ x23: .cfa -40 + ^ x24: .cfa -48 + ^ x25: .cfa -56 + ^ x26: .cfa -64 + ^ x27: .cfa -72 + ^ x28: .cfa -80 + ^ .ra: .cfa -88 + ^ x29: .cfa -96 + ^
STACK CFI 50ad4 .cfa: sp 256 +
STACK CFI 50af0 .cfa: sp 0 +
STACK CFI 50af4 .cfa: x29 96 +
STACK CFI INIT 50d94 50 .cfa: sp 0 +
STACK CFI 50d98 .cfa: sp 32 +
STACK CFI 50da0 .cfa: x29 32 + x19: .cfa -8 + ^ x20: .cfa -16 + ^ .ra: .cfa -24 + ^ x29: .cfa -32 + ^
STACK CFI INIT 50e58 2f4 .cfa: sp 0 +
STACK CFI 50e5c .cfa: sp 128 +
STACK CFI 50e78 .cfa: x29 96 + x19: .cfa -8 + ^ x20: .cfa -16 + ^ x21: .cfa -24 + ^ x22: .cfa -32 + ^ x23: .cfa -40 + ^ x24: .cfa -48 + ^ x25: .cfa -56 + ^ x26: .cfa -64 + ^ x27: .cfa -72 + ^ x28: .cfa -80 + ^ .ra: .cfa -88 + ^ x29: .cfa -96 + ^
STACK CFI 510cc .cfa: sp 128 +
STACK CFI 510e8 .cfa: sp 0 +
STACK CFI 510ec .cfa: x29 96 +
STACK CFI INIT 51150 108 .cfa: sp 0 +
STACK CFI 51154 .cfa: sp 64 +
STACK CFI 51164 .cfa: x29 48 + x19: .cfa -8 + ^ x20: .cfa -16 + ^ x21: .cfa -32 + ^ .ra: .cfa -40 + ^ x29: .cfa -48 + ^
STACK CFI 5120c .cfa: sp 64 +
STACK CFI 5121c .cfa: sp 0 +
STACK CFI 51220 .cfa: x29 48 +
STACK CFI INIT 51434 3dc .cfa: sp 0 +
STACK CFI 51438 .cfa: sp 240 +
STACK CFI 5144c .cfa: x29 64 + x19: .cfa -8 + ^ x20: .cfa -16 + ^ x21: .cfa -24 + ^ x22: .cfa -32 + ^ x23: .cfa -48 + ^ .ra: .cfa -56 + ^ x29: .cfa -64 + ^
STACK CFI 516e4 .cfa: sp 240 +
STACK CFI 516f8 .cfa: sp 0 +
STACK CFI 516fc .cfa: x29 64 +
STACK CFI INIT 51864 28c .cfa: sp 0 +
STACK CFI 51868 .cfa: sp 144 +
STACK CFI 51884 .cfa: x29 96 + x19: .cfa -8 + ^ x20: .cfa -16 + ^ x21: .cfa -24 + ^ x22: .cfa -32 + ^ x23: .cfa -40 + ^ x24: .cfa -48 + ^ x25: .cfa -56 + ^ x26: .cfa -64 + ^ x27: .cfa -80 + ^ .ra: .cfa -88 + ^ x29: .cfa -96 + ^
STACK CFI 51a34 .cfa: sp 144 +
STACK CFI 51a50 .cfa: sp 0 +
STACK CFI 51a54 .cfa: x29 96 +
STACK CFI 51a64 .cfa: sp 144 +
STACK CFI 51a80 .cfa: sp 0 +
STACK CFI 51a84 .cfa: x29 96 +
STACK CFI INIT 521b4 e4 .cfa: sp 0 +
STACK CFI 521b8 .cfa: sp 48 +
STACK CFI 521c4 .cfa: x29 48 + x19: .cfa -8 + ^ x20: .cfa -16 + ^ x21: .cfa -24 + ^ x22: .cfa -32 + ^ .ra: .cfa -40 + ^ x29: .cfa -48 + ^
STACK CFI 52214 .cfa: sp 48 +
STACK CFI 52220 .cfa: sp 0 +
STACK CFI 52224 .cfa: x29 48 +
STACK CFI 52228 .cfa: sp 48 +
STACK CFI 52234 .cfa: sp 0 +
STACK CFI 52238 .cfa: x29 48 +
STACK CFI INIT 50c48 11c .cfa: sp 0 +
STACK CFI 50c4c .cfa: sp 80 +
STACK CFI 50c5c .cfa: x29 48 + x19: .cfa -8 + ^ x20: .cfa -16 + ^ x21: .cfa -32 + ^ .ra: .cfa -40 + ^ x29: .cfa -48 + ^
STACK CFI 50cf8 .cfa: sp 80 +
STACK CFI 50d08 .cfa: sp 0 +
STACK CFI 50d0c .cfa: x29 48 +
STACK CFI INIT 52604 254 .cfa: sp 0 +
STACK CFI 52608 .cfa: sp 160 +
STACK CFI 52614 .cfa: x29 32 + x19: .cfa -8 + ^ x20: .cfa -16 + ^ .ra: .cfa -24 + ^ x29: .cfa -32 + ^
STACK CFI 52788 .cfa: sp 160 +
STACK CFI 52794 .cfa: sp 0 +
STACK CFI 52798 .cfa: x29 32 +
STACK CFI INIT 528e8 11c .cfa: sp 0 +
STACK CFI 528ec .cfa: sp 80 +
STACK CFI 528fc .cfa: x29 48 + x19: .cfa -8 + ^ x20: .cfa -16 + ^ x21: .cfa -32 + ^ .ra: .cfa -40 + ^ x29: .cfa -48 + ^
STACK CFI 52998 .cfa: sp 80 +
STACK CFI 529a8 .cfa: sp 0 +
STACK CFI 529ac .cfa: x29 48 +
STACK CFI INIT 52a04 150 .cfa: sp 0 +
STACK CFI 52a08 .cfa: sp 96 +
STACK CFI 52a14 .cfa: x29 32 + x19: .cfa -8 + ^ x20: .cfa -16 + ^ .ra: .cfa -24 + ^ x29: .cfa -32 + ^
STACK CFI 52aec .cfa: sp 96 +
STACK CFI 52af8 .cfa: sp 0 +
STACK CFI 52afc .cfa: x29 32 +
STACK CFI INIT 52b68 108 .cfa: sp 0 +
STACK CFI 52b6c .cfa: sp 64 +
STACK CFI 52b78 .cfa: x29 32 + x19: .cfa -8 + ^ x20: .cfa -16 + ^ .ra: .cfa -24 + ^ x29: .cfa -32 + ^
STACK CFI 52c20 .cfa: sp 64 +
STACK CFI 52c2c .cfa: sp 0 +
STACK CFI 52c30 .cfa: x29 32 +
STACK CFI INIT 52c70 150 .cfa: sp 0 +
STACK CFI 52c74 .cfa: sp 96 +
STACK CFI 52c80 .cfa: x29 32 + x19: .cfa -8 + ^ x20: .cfa -16 + ^ .ra: .cfa -24 + ^ x29: .cfa -32 + ^
STACK CFI 52d58 .cfa: sp 96 +
STACK CFI 52d64 .cfa: sp 0 +
STACK CFI 52d68 .cfa: x29 32 +
STACK CFI INIT 52dc0 108 .cfa: sp 0 +
STACK CFI 52dc4 .cfa: sp 64 +
STACK CFI 52dd0 .cfa: x29 32 + x19: .cfa -8 + ^ x20: .cfa -16 + ^ .ra: .cfa -24 + ^ x29: .cfa -32 + ^
STACK CFI 52e78 .cfa: sp 64 +
STACK CFI 52e84 .cfa: sp 0 +
STACK CFI 52e88 .cfa: x29 32 +
STACK CFI INIT 52ec8 108 .cfa: sp 0 +
STACK CFI 52ecc .cfa: sp 64 +
STACK CFI 52ed8 .cfa: x29 32 + x19: .cfa -8 + ^ x20: .cfa -16 + ^ .ra: .cfa -24 + ^ x29: .cfa -32 + ^
STACK CFI 52f80 .cfa: sp 64 +
STACK CFI 52f8c .cfa: sp 0 +
STACK CFI 52f90 .cfa: x29 32 +
STACK CFI INIT 53190 5a8 .cfa: sp 0 +
STACK CFI 53194 .cfa: sp 256 +
STACK CFI 531b0 .cfa: x29 96 + x19: .cfa -8 + ^ x20: .cfa -16 + ^ x21: .cfa -24 + ^ x22: .cfa -32 + ^ x23: .cfa -40 + ^ x24: .cfa -48 + ^ x25: .cfa -56 + ^ x26: .cfa -64 + ^ x27: .cfa -72 + ^ x28: .cfa -80 + ^ .ra: .cfa -88 + ^ x29: .cfa -96 + ^
STACK CFI 534c8 .cfa: sp 256 +
STACK CFI 534e4 .cfa: sp 0 +
STACK CFI 534e8 .cfa: x29 96 +
STACK CFI 535c4 .cfa: sp 256 +
STACK CFI 535e0 .cfa: sp 0 +
STACK CFI 535e4 .cfa: x29 96 +
STACK CFI INIT 53754 5a8 .cfa: sp 0 +
STACK CFI 53758 .cfa: sp 256 +
STACK CFI 53774 .cfa: x29 96 + x19: .cfa -8 + ^ x20: .cfa -16 + ^ x21: .cfa -24 + ^ x22: .cfa -32 + ^ x23: .cfa -40 + ^ x24: .cfa -48 + ^ x25: .cfa -56 + ^ x26: .cfa -64 + ^ x27: .cfa -72 + ^ x28: .cfa -80 + ^ .ra: .cfa -88 + ^ x29: .cfa -96 + ^
STACK CFI 53a8c .cfa: sp 256 +
STACK CFI 53aa8 .cfa: sp 0 +
STACK CFI 53aac .cfa: x29 96 +
STACK CFI 53b88 .cfa: sp 256 +
STACK CFI 53ba4 .cfa: sp 0 +
STACK CFI 53ba8 .cfa: x29 96 +
STACK CFI INIT 53d18 5a8 .cfa: sp 0 +
STACK CFI 53d1c .cfa: sp 256 +
STACK CFI 53d38 .cfa: x29 96 + x19: .cfa -8 + ^ x20: .cfa -16 + ^ x21: .cfa -24 + ^ x22: .cfa -32 + ^ x23: .cfa -40 + ^ x24: .cfa -48 + ^ x25: .cfa -56 + ^ x26: .cfa -64 + ^ x27: .cfa -72 + ^ x28: .cfa -80 + ^ .ra: .cfa -88 + ^ x29: .cfa -96 + ^
STACK CFI 54050 .cfa: sp 256 +
STACK CFI 5406c .cfa: sp 0 +
STACK CFI 54070 .cfa: x29 96 +
STACK CFI 5414c .cfa: sp 256 +
STACK CFI 54168 .cfa: sp 0 +
STACK CFI 5416c .cfa: x29 96 +
STACK CFI INIT 542dc 6e8 .cfa: sp 0 +
STACK CFI 542e0 .cfa: sp 288 +
STACK CFI 542fc .cfa: x29 96 + x19: .cfa -8 + ^ x20: .cfa -16 + ^ x21: .cfa -24 + ^ x22: .cfa -32 + ^ x23: .cfa -40 + ^ x24: .cfa -48 + ^ x25: .cfa -56 + ^ x26: .cfa -64 + ^ x28: .cfa -80 + ^ .ra: .cfa -88 + ^ x29: .cfa -96 + ^
STACK CFI 547f8 .cfa: sp 288 +
STACK CFI 54814 .cfa: sp 0 +
STACK CFI 54818 .cfa: x29 96 +
STACK CFI INIT 54a44 340 .cfa: sp 0 +
STACK CFI 54a48 .cfa: sp 96 +
STACK CFI 54a5c .cfa: x29 64 + x19: .cfa -8 + ^ x20: .cfa -16 + ^ x21: .cfa -24 + ^ x22: .cfa -32 + ^ x23: .cfa -48 + ^ .ra: .cfa -56 + ^ x29: .cfa -64 + ^
STACK CFI 54d34 .cfa: sp 96 +
STACK CFI 54d48 .cfa: sp 0 +
STACK CFI 54d4c .cfa: x29 64 +
STACK CFI INIT 54e0c 120 .cfa: sp 0 +
STACK CFI 54e10 .cfa: sp 80 +
STACK CFI 54e20 .cfa: x29 48 + x19: .cfa -8 + ^ x20: .cfa -16 + ^ x21: .cfa -32 + ^ .ra: .cfa -40 + ^ x29: .cfa -48 + ^
STACK CFI 54ee8 .cfa: sp 80 +
STACK CFI 54ef8 .cfa: sp 0 +
STACK CFI 54efc .cfa: x29 48 +
STACK CFI INIT 54f2c 6e8 .cfa: sp 0 +
STACK CFI 54f30 .cfa: sp 96 +
STACK CFI 54f48 .cfa: x29 96 + x19: .cfa -8 + ^ x20: .cfa -16 + ^ x21: .cfa -24 + ^ x22: .cfa -32 + ^ x23: .cfa -40 + ^ x24: .cfa -48 + ^ x25: .cfa -56 + ^ x26: .cfa -64 + ^ x27: .cfa -72 + ^ x28: .cfa -80 + ^ .ra: .cfa -88 + ^ x29: .cfa -96 + ^
STACK CFI 55474 .cfa: sp 96 +
STACK CFI 5548c .cfa: sp 0 +
STACK CFI 55490 .cfa: x29 96 +
STACK CFI INIT 557a0 ce0 .cfa: sp 0 +
STACK CFI 557a4 .cfa: sp 96 +
STACK CFI 557bc .cfa: x29 96 + x19: .cfa -8 + ^ x20: .cfa -16 + ^ x21: .cfa -24 + ^ x22: .cfa -32 + ^ x23: .cfa -40 + ^ x24: .cfa -48 + ^ x25: .cfa -56 + ^ x26: .cfa -64 + ^ x27: .cfa -72 + ^ x28: .cfa -80 + ^ .ra: .cfa -88 + ^ x29: .cfa -96 + ^
STACK CFI 562fc .cfa: sp 96 +
STACK CFI 56314 .cfa: sp 0 +
STACK CFI 56318 .cfa: x29 96 +
STACK CFI INIT 564c4 150 .cfa: sp 0 +
STACK CFI 564c8 .cfa: sp 64 +
STACK CFI 564d8 .cfa: x29 64 + x19: .cfa -8 + ^ x20: .cfa -16 + ^ x21: .cfa -24 + ^ x22: .cfa -32 + ^ x23: .cfa -40 + ^ x24: .cfa -48 + ^ .ra: .cfa -56 + ^ x29: .cfa -64 + ^
STACK CFI 565d8 .cfa: sp 64 +
STACK CFI 565e8 .cfa: sp 0 +
STACK CFI 565ec .cfa: x29 64 +
STACK CFI INIT 566b0 ea8 .cfa: sp 0 +
STACK CFI 566b4 .cfa: sp 96 +
STACK CFI 566cc .cfa: x29 96 + x19: .cfa -8 + ^ x20: .cfa -16 + ^ x21: .cfa -24 + ^ x22: .cfa -32 + ^ x23: .cfa -40 + ^ x24: .cfa -48 + ^ x25: .cfa -56 + ^ x26: .cfa -64 + ^ x27: .cfa -72 + ^ x28: .cfa -80 + ^ .ra: .cfa -88 + ^ x29: .cfa -96 + ^
STACK CFI 5729c .cfa: sp 96 +
STACK CFI 572b4 .cfa: sp 0 +
STACK CFI 572b8 .cfa: x29 96 +
STACK CFI INIT 57558 54 .cfa: sp 0 +
STACK CFI 5755c .cfa: sp 32 +
STACK CFI 57564 .cfa: x29 32 + x19: .cfa -8 + ^ x20: .cfa -16 + ^ .ra: .cfa -24 + ^ x29: .cfa -32 + ^
STACK CFI 5758c .cfa: sp 32 +
STACK CFI 57594 .cfa: sp 0 +
STACK CFI 57598 .cfa: x29 32 +
STACK CFI INIT 575ac 870 .cfa: sp 0 +
STACK CFI 575b0 .cfa: sp 96 +
STACK CFI 575c8 .cfa: x29 96 + x19: .cfa -8 + ^ x20: .cfa -16 + ^ x21: .cfa -24 + ^ x22: .cfa -32 + ^ x23: .cfa -40 + ^ x24: .cfa -48 + ^ x25: .cfa -56 + ^ x26: .cfa -64 + ^ x27: .cfa -72 + ^ x28: .cfa -80 + ^ .ra: .cfa -88 + ^ x29: .cfa -96 + ^
STACK CFI 57cac .cfa: sp 96 +
STACK CFI 57cc4 .cfa: sp 0 +
STACK CFI 57cc8 .cfa: x29 96 +
STACK CFI INIT 58110 24c .cfa: sp 0 +
STACK CFI 58114 .cfa: sp 80 +
STACK CFI 58128 .cfa: x29 80 + x19: .cfa -8 + ^ x20: .cfa -16 + ^ x21: .cfa -24 + ^ x22: .cfa -32 + ^ x23: .cfa -40 + ^ x24: .cfa -48 + ^ x25: .cfa -56 + ^ x28: .cfa -64 + ^ .ra: .cfa -72 + ^ x29: .cfa -80 + ^
STACK CFI 582c8 .cfa: sp 80 +
STACK CFI 582dc .cfa: sp 0 +
STACK CFI 582e0 .cfa: x29 80 +
STACK CFI INIT 58b5c d8 .cfa: sp 0 +
STACK CFI 58b60 .cfa: sp 64 +
STACK CFI 58b70 .cfa: x29 64 + x19: .cfa -8 + ^ x20: .cfa -16 + ^ x21: .cfa -24 + ^ x22: .cfa -32 + ^ x23: .cfa -40 + ^ x24: .cfa -48 + ^ .ra: .cfa -56 + ^ x29: .cfa -64 + ^
STACK CFI 58bf8 .cfa: sp 64 +
STACK CFI 58c08 .cfa: sp 0 +
STACK CFI 58c0c .cfa: x29 64 +
STACK CFI INIT 5bd9c f4 .cfa: sp 0 +
STACK CFI 5bda0 .cfa: sp 32 +
STACK CFI 5bda8 .cfa: x29 32 + x19: .cfa -16 + ^ .ra: .cfa -24 + ^ x29: .cfa -32 + ^
STACK CFI 5be80 .cfa: sp 32 +
STACK CFI 5be88 .cfa: sp 0 +
STACK CFI 5be8c .cfa: x29 32 +
STACK CFI INIT 5be90 fc .cfa: sp 0 +
STACK CFI 5be94 .cfa: sp 32 +
STACK CFI 5be9c .cfa: x29 32 + x19: .cfa -16 + ^ .ra: .cfa -24 + ^ x29: .cfa -32 + ^
STACK CFI 5bf7c .cfa: sp 32 +
STACK CFI 5bf84 .cfa: sp 0 +
STACK CFI 5bf88 .cfa: x29 32 +
STACK CFI INIT 5bf98 6f4 .cfa: sp 0 +
STACK CFI 5bf9c .cfa: sp 144 +
STACK CFI 5bfb4 .cfa: x29 80 + x19: .cfa -8 + ^ x20: .cfa -16 + ^ x21: .cfa -24 + ^ x22: .cfa -32 + ^ x23: .cfa -40 + ^ x24: .cfa -48 + ^ x25: .cfa -64 + ^ .ra: .cfa -72 + ^ x29: .cfa -80 + ^
STACK CFI 5c604 .cfa: sp 144 +
STACK CFI 5c61c .cfa: sp 0 +
STACK CFI 5c620 .cfa: x29 80 +
STACK CFI INIT 5c68c 10d4 .cfa: sp 0 +
STACK CFI 5c690 .cfa: sp 80 +
STACK CFI 5c6a4 .cfa: x29 80 + x19: .cfa -8 + ^ x20: .cfa -16 + ^ x21: .cfa -24 + ^ x22: .cfa -32 + ^ x23: .cfa -40 + ^ x24: .cfa -48 + ^ x25: .cfa -56 + ^ x28: .cfa -64 + ^ .ra: .cfa -72 + ^ x29: .cfa -80 + ^
STACK CFI 5d644 .cfa: sp 80 +
STACK CFI 5d658 .cfa: sp 0 +
STACK CFI 5d65c .cfa: x29 80 +
STACK CFI INIT 5d760 f4 .cfa: sp 0 +
STACK CFI 5d764 .cfa: sp 32 +
STACK CFI 5d76c .cfa: x29 32 + x19: .cfa -8 + ^ x20: .cfa -16 + ^ .ra: .cfa -24 + ^ x29: .cfa -32 + ^
STACK CFI 5d844 .cfa: sp 32 +
STACK CFI 5d84c .cfa: sp 0 +
STACK CFI 5d850 .cfa: x29 32 +
STACK CFI INIT 5d854 fc .cfa: sp 0 +
STACK CFI 5d858 .cfa: sp 32 +
STACK CFI 5d860 .cfa: x29 32 + x19: .cfa -8 + ^ x20: .cfa -16 + ^ .ra: .cfa -24 + ^ x29: .cfa -32 + ^
STACK CFI 5d940 .cfa: sp 32 +
STACK CFI 5d948 .cfa: sp 0 +
STACK CFI 5d94c .cfa: x29 32 +
STACK CFI INIT 5da04 143c .cfa: sp 0 +
STACK CFI 5da08 .cfa: sp 96 +
STACK CFI 5da20 .cfa: x29 96 + x19: .cfa -8 + ^ x20: .cfa -16 + ^ x21: .cfa -24 + ^ x22: .cfa -32 + ^ x23: .cfa -40 + ^ x24: .cfa -48 + ^ x25: .cfa -56 + ^ x26: .cfa -64 + ^ x27: .cfa -72 + ^ x28: .cfa -80 + ^ .ra: .cfa -88 + ^ x29: .cfa -96 + ^
STACK CFI 5e948 .cfa: sp 96 +
STACK CFI 5e960 .cfa: sp 0 +
STACK CFI 5e964 .cfa: x29 96 +
STACK CFI INIT 5ee40 7c .cfa: sp 0 +
STACK CFI 5ee44 .cfa: sp 32 +
STACK CFI 5ee4c .cfa: x29 32 + x19: .cfa -16 + ^ .ra: .cfa -24 + ^ x29: .cfa -32 + ^
STACK CFI 5eeac .cfa: sp 32 +
STACK CFI 5eeb4 .cfa: sp 0 +
STACK CFI 5eeb8 .cfa: x29 32 +
STACK CFI INIT 5ef10 74 .cfa: sp 0 +
STACK CFI 5ef14 .cfa: sp 32 +
STACK CFI 5ef1c .cfa: x29 32 + x19: .cfa -16 + ^ .ra: .cfa -24 + ^ x29: .cfa -32 + ^
STACK CFI 5ef74 .cfa: sp 32 +
STACK CFI 5ef7c .cfa: sp 0 +
STACK CFI 5ef80 .cfa: x29 32 +
STACK CFI INIT 5ef84 7c .cfa: sp 0 +
STACK CFI 5ef88 .cfa: sp 32 +
STACK CFI 5ef90 .cfa: x29 32 + x19: .cfa -16 + ^ .ra: .cfa -24 + ^ x29: .cfa -32 + ^
STACK CFI 5eff0 .cfa: sp 32 +
STACK CFI 5eff8 .cfa: sp 0 +
STACK CFI 5effc .cfa: x29 32 +
STACK CFI INIT 5f0a4 808 .cfa: sp 0 +
STACK CFI 5f0a8 .cfa: sp 96 +
STACK CFI 5f0c0 .cfa: x29 96 + x19: .cfa -8 + ^ x20: .cfa -16 + ^ x21: .cfa -24 + ^ x22: .cfa -32 + ^ x23: .cfa -40 + ^ x24: .cfa -48 + ^ x25: .cfa -56 + ^ x26: .cfa -64 + ^ x27: .cfa -72 + ^ x28: .cfa -80 + ^ .ra: .cfa -88 + ^ x29: .cfa -96 + ^
STACK CFI 5f734 .cfa: sp 96 +
STACK CFI 5f74c .cfa: sp 0 +
STACK CFI 5f750 .cfa: x29 96 +
STACK CFI INIT 5f8ac af0 .cfa: sp 0 +
STACK CFI 5f8b0 .cfa: sp 192 +
STACK CFI 5f8cc .cfa: x29 96 + x19: .cfa -8 + ^ x20: .cfa -16 + ^ x21: .cfa -24 + ^ x22: .cfa -32 + ^ x23: .cfa -40 + ^ x24: .cfa -48 + ^ x25: .cfa -56 + ^ x26: .cfa -64 + ^ x27: .cfa -72 + ^ x28: .cfa -80 + ^ .ra: .cfa -88 + ^ x29: .cfa -96 + ^
STACK CFI 60240 .cfa: sp 192 +
STACK CFI 6025c .cfa: sp 0 +
STACK CFI 60260 .cfa: x29 96 +
STACK CFI INIT 6039c 180 .cfa: sp 0 +
STACK CFI 603a0 .cfa: sp 80 +
STACK CFI 603b4 .cfa: x29 80 + x19: .cfa -8 + ^ x20: .cfa -16 + ^ x21: .cfa -24 + ^ x22: .cfa -32 + ^ x23: .cfa -40 + ^ x24: .cfa -48 + ^ x25: .cfa -64 + ^ .ra: .cfa -72 + ^ x29: .cfa -80 + ^
STACK CFI 604dc .cfa: sp 80 +
STACK CFI 604f0 .cfa: sp 0 +
STACK CFI 604f4 .cfa: x29 80 +
STACK CFI INIT 6051c f3c .cfa: sp 0 +
STACK CFI 60520 .cfa: sp 336 +
STACK CFI 6053c .cfa: x29 96 + x19: .cfa -8 + ^ x20: .cfa -16 + ^ x21: .cfa -24 + ^ x22: .cfa -32 + ^ x23: .cfa -40 + ^ x24: .cfa -48 + ^ x25: .cfa -56 + ^ x26: .cfa -64 + ^ x27: .cfa -72 + ^ x28: .cfa -80 + ^ .ra: .cfa -88 + ^ x29: .cfa -96 + ^
STACK CFI 61184 .cfa: sp 336 +
STACK CFI 611a0 .cfa: sp 0 +
STACK CFI 611a4 .cfa: x29 96 +
STACK CFI INIT 61458 c8 .cfa: sp 0 +
STACK CFI 6145c .cfa: sp 48 +
STACK CFI 61468 .cfa: x29 48 + x19: .cfa -8 + ^ x20: .cfa -16 + ^ x21: .cfa -32 + ^ .ra: .cfa -40 + ^ x29: .cfa -48 + ^
STACK CFI 614e8 .cfa: sp 48 +
STACK CFI 614f4 .cfa: sp 0 +
STACK CFI 614f8 .cfa: x29 48 +
STACK CFI INIT 61580 3a0 .cfa: sp 0 +
STACK CFI 61584 .cfa: sp 304 +
STACK CFI 615a0 .cfa: x29 96 + x19: .cfa -8 + ^ x20: .cfa -16 + ^ x21: .cfa -24 + ^ x22: .cfa -32 + ^ x23: .cfa -40 + ^ x24: .cfa -48 + ^ x25: .cfa -56 + ^ x26: .cfa -64 + ^ x27: .cfa -72 + ^ x28: .cfa -80 + ^ .ra: .cfa -88 + ^ x29: .cfa -96 + ^
STACK CFI 6186c .cfa: sp 304 +
STACK CFI 61888 .cfa: sp 0 +
STACK CFI 6188c .cfa: x29 96 +
STACK CFI INIT 61920 148 .cfa: sp 0 +
STACK CFI 61924 .cfa: sp 192 +
STACK CFI 61938 .cfa: x29 64 + x19: .cfa -8 + ^ x20: .cfa -16 + ^ x21: .cfa -24 + ^ x22: .cfa -32 + ^ x23: .cfa -40 + ^ x24: .cfa -48 + ^ .ra: .cfa -56 + ^ x29: .cfa -64 + ^
STACK CFI 619f4 .cfa: sp 192 +
STACK CFI 61a08 .cfa: sp 0 +
STACK CFI 61a0c .cfa: x29 64 +
STACK CFI INIT 61e3c 200 .cfa: sp 0 +
STACK CFI 61e40 .cfa: sp 208 +
STACK CFI 61e58 .cfa: x29 80 + x19: .cfa -8 + ^ x20: .cfa -16 + ^ x21: .cfa -24 + ^ x22: .cfa -32 + ^ x23: .cfa -40 + ^ x24: .cfa -48 + ^ x25: .cfa -64 + ^ .ra: .cfa -72 + ^ x29: .cfa -80 + ^
STACK CFI 61f58 .cfa: sp 208 +
STACK CFI 61f70 .cfa: sp 0 +
STACK CFI 61f74 .cfa: x29 80 +
STACK CFI INIT 62618 490 .cfa: sp 0 +
STACK CFI 6261c .cfa: sp 288 +
STACK CFI 62638 .cfa: x29 96 + x19: .cfa -8 + ^ x20: .cfa -16 + ^ x21: .cfa -24 + ^ x22: .cfa -32 + ^ x23: .cfa -40 + ^ x24: .cfa -48 + ^ x25: .cfa -56 + ^ x26: .cfa -64 + ^ x27: .cfa -72 + ^ x28: .cfa -80 + ^ .ra: .cfa -88 + ^ x29: .cfa -96 + ^
STACK CFI 62998 .cfa: sp 288 +
STACK CFI 629b4 .cfa: sp 0 +
STACK CFI 629b8 .cfa: x29 96 +
STACK CFI INIT 62aa8 96c .cfa: sp 0 +
STACK CFI 62aac .cfa: sp 352 +
STACK CFI 62ac8 .cfa: x29 96 + x19: .cfa -8 + ^ x20: .cfa -16 + ^ x21: .cfa -24 + ^ x22: .cfa -32 + ^ x23: .cfa -40 + ^ x24: .cfa -48 + ^ x25: .cfa -56 + ^ x26: .cfa -64 + ^ x27: .cfa -72 + ^ x28: .cfa -80 + ^ .ra: .cfa -88 + ^ x29: .cfa -96 + ^
STACK CFI 63374 .cfa: sp 352 +
STACK CFI 63390 .cfa: sp 0 +
STACK CFI 63394 .cfa: x29 96 +
STACK CFI INIT 63414 624 .cfa: sp 0 +
STACK CFI 63418 .cfa: sp 448 +
STACK CFI 63434 .cfa: x29 96 + x19: .cfa -8 + ^ x20: .cfa -16 + ^ x21: .cfa -24 + ^ x22: .cfa -32 + ^ x23: .cfa -40 + ^ x24: .cfa -48 + ^ x25: .cfa -56 + ^ x26: .cfa -64 + ^ x27: .cfa -72 + ^ x28: .cfa -80 + ^ .ra: .cfa -88 + ^ x29: .cfa -96 + ^
STACK CFI 63990 .cfa: sp 448 +
STACK CFI 639ac .cfa: sp 0 +
STACK CFI 639b0 .cfa: x29 96 +
STACK CFI INIT 63a7c 4c .cfa: sp 0 +
STACK CFI 63a80 .cfa: sp 32 +
STACK CFI 63a88 .cfa: x29 32 + x19: .cfa -8 + ^ x20: .cfa -16 + ^ .ra: .cfa -24 + ^ x29: .cfa -32 + ^
STACK CFI INIT 63ac8 16c .cfa: sp 0 +
STACK CFI 63acc .cfa: sp 64 +
STACK CFI 63adc .cfa: x29 64 + x19: .cfa -8 + ^ x20: .cfa -16 + ^ x21: .cfa -24 + ^ x22: .cfa -32 + ^ x23: .cfa -48 + ^ .ra: .cfa -56 + ^ x29: .cfa -64 + ^
STACK CFI 63bcc .cfa: sp 64 +
STACK CFI 63bdc .cfa: sp 0 +
STACK CFI 63be0 .cfa: x29 64 +
STACK CFI INIT 63c34 4c .cfa: sp 0 +
STACK CFI 63c38 .cfa: sp 32 +
STACK CFI 63c40 .cfa: x29 32 + x19: .cfa -8 + ^ x20: .cfa -16 + ^ .ra: .cfa -24 + ^ x29: .cfa -32 + ^
STACK CFI INIT 643e8 5f8 .cfa: sp 0 +
STACK CFI 643ec .cfa: sp 128 +
STACK CFI 64408 .cfa: x29 96 + x19: .cfa -8 + ^ x20: .cfa -16 + ^ x21: .cfa -24 + ^ x22: .cfa -32 + ^ x23: .cfa -40 + ^ x24: .cfa -48 + ^ x25: .cfa -56 + ^ x26: .cfa -64 + ^ x27: .cfa -72 + ^ x28: .cfa -80 + ^ .ra: .cfa -88 + ^ x29: .cfa -96 + ^
STACK CFI 64568 .cfa: sp 128 +
STACK CFI 64584 .cfa: sp 0 +
STACK CFI 64588 .cfa: x29 96 +
STACK CFI 648b4 .cfa: sp 128 +
STACK CFI 648d0 .cfa: sp 0 +
STACK CFI 648d4 .cfa: x29 96 +
STACK CFI INIT 64cf4 3ec .cfa: sp 0 +
STACK CFI 64cf8 .cfa: sp 112 +
STACK CFI 64d14 .cfa: x29 96 + x19: .cfa -8 + ^ x20: .cfa -16 + ^ x21: .cfa -24 + ^ x22: .cfa -32 + ^ x23: .cfa -40 + ^ x24: .cfa -48 + ^ x25: .cfa -56 + ^ x26: .cfa -64 + ^ x27: .cfa -72 + ^ x28: .cfa -80 + ^ .ra: .cfa -88 + ^ x29: .cfa -96 + ^
STACK CFI 64ecc .cfa: sp 112 +
STACK CFI 64ee8 .cfa: sp 0 +
STACK CFI 64eec .cfa: x29 96 +
STACK CFI 65048 .cfa: sp 112 +
STACK CFI 65064 .cfa: sp 0 +
STACK CFI 65068 .cfa: x29 96 +
STACK CFI INIT 657f8 4c .cfa: sp 0 +
STACK CFI 657fc .cfa: sp 32 +
STACK CFI 65804 .cfa: x29 32 + x19: .cfa -8 + ^ x20: .cfa -16 + ^ .ra: .cfa -24 + ^ x29: .cfa -32 + ^
STACK CFI INIT 65894 1f0 .cfa: sp 0 +
STACK CFI 65898 .cfa: sp 64 +
STACK CFI 658a8 .cfa: x29 64 + x19: .cfa -8 + ^ x20: .cfa -16 + ^ x21: .cfa -24 + ^ x22: .cfa -32 + ^ x23: .cfa -40 + ^ x24: .cfa -48 + ^ .ra: .cfa -56 + ^ x29: .cfa -64 + ^
STACK CFI 659a8 .cfa: sp 64 +
STACK CFI 659b8 .cfa: sp 0 +
STACK CFI 659bc .cfa: x29 64 +
STACK CFI 659c8 .cfa: sp 64 +
STACK CFI 659d8 .cfa: sp 0 +
STACK CFI 659dc .cfa: x29 64 +
STACK CFI 659e8 .cfa: sp 64 +
STACK CFI 659f8 .cfa: sp 0 +
STACK CFI 659fc .cfa: x29 64 +
STACK CFI 65a08 .cfa: sp 64 +
STACK CFI 65a18 .cfa: sp 0 +
STACK CFI 65a1c .cfa: x29 64 +
STACK CFI 65a28 .cfa: sp 64 +
STACK CFI 65a38 .cfa: sp 0 +
STACK CFI 65a3c .cfa: x29 64 +
STACK CFI INIT 65a84 4c .cfa: sp 0 +
STACK CFI 65a88 .cfa: sp 32 +
STACK CFI 65a90 .cfa: x29 32 + x19: .cfa -8 + ^ x20: .cfa -16 + ^ .ra: .cfa -24 + ^ x29: .cfa -32 + ^
STACK CFI INIT 663dc 4c .cfa: sp 0 +
STACK CFI 663e0 .cfa: sp 32 +
STACK CFI 663e8 .cfa: x29 32 + x19: .cfa -8 + ^ x20: .cfa -16 + ^ .ra: .cfa -24 + ^ x29: .cfa -32 + ^
STACK CFI INIT 66538 310 .cfa: sp 0 +
STACK CFI 6653c .cfa: sp 144 +
STACK CFI 66550 .cfa: x29 64 + x19: .cfa -8 + ^ x20: .cfa -16 + ^ x21: .cfa -24 + ^ x22: .cfa -32 + ^ x23: .cfa -48 + ^ .ra: .cfa -56 + ^ x29: .cfa -64 + ^
STACK CFI 666c0 .cfa: sp 144 +
STACK CFI 666d4 .cfa: sp 0 +
STACK CFI 666d8 .cfa: x29 64 +
STACK CFI INIT 66e9c 6c .cfa: sp 0 +
STACK CFI 66ea0 .cfa: sp 32 +
STACK CFI 66ea8 .cfa: x29 32 + x19: .cfa -8 + ^ x20: .cfa -16 + ^ .ra: .cfa -24 + ^ x29: .cfa -32 + ^
STACK CFI 66ee8 .cfa: sp 32 +
STACK CFI 66ef0 .cfa: sp 0 +
STACK CFI 66ef4 .cfa: x29 32 +
STACK CFI INIT 66fc0 4c .cfa: sp 0 +
STACK CFI 66fc4 .cfa: sp 32 +
STACK CFI 66fcc .cfa: x29 32 + x19: .cfa -8 + ^ x20: .cfa -16 + ^ .ra: .cfa -24 + ^ x29: .cfa -32 + ^
STACK CFI INIT 67450 1b8 .cfa: sp 0 +
STACK CFI 67454 .cfa: sp 176 +
STACK CFI 67464 .cfa: x29 48 + x19: .cfa -8 + ^ x20: .cfa -16 + ^ x21: .cfa -24 + ^ x22: .cfa -32 + ^ .ra: .cfa -40 + ^ x29: .cfa -48 + ^
STACK CFI 675c0 .cfa: sp 176 +
STACK CFI 675d0 .cfa: sp 0 +
STACK CFI 675d4 .cfa: x29 48 +
STACK CFI INIT 67780 150 .cfa: sp 0 +
STACK CFI 67784 .cfa: sp 64 +
STACK CFI 67794 .cfa: x29 64 + x19: .cfa -8 + ^ x20: .cfa -16 + ^ x21: .cfa -24 + ^ x22: .cfa -32 + ^ x23: .cfa -48 + ^ .ra: .cfa -56 + ^ x29: .cfa -64 + ^
STACK CFI 678a4 .cfa: sp 64 +
STACK CFI 678b4 .cfa: sp 0 +
STACK CFI 678b8 .cfa: x29 64 +
STACK CFI INIT 678d0 4c .cfa: sp 0 +
STACK CFI 678d4 .cfa: sp 32 +
STACK CFI 678dc .cfa: x29 32 + x19: .cfa -8 + ^ x20: .cfa -16 + ^ .ra: .cfa -24 + ^ x29: .cfa -32 + ^
STACK CFI INIT 679c8 200 .cfa: sp 0 +
STACK CFI 679cc .cfa: sp 48 +
STACK CFI 679d8 .cfa: x29 48 + x19: .cfa -8 + ^ x20: .cfa -16 + ^ x21: .cfa -32 + ^ .ra: .cfa -40 + ^ x29: .cfa -48 + ^
STACK CFI 67b34 .cfa: sp 48 +
STACK CFI 67b40 .cfa: sp 0 +
STACK CFI 67b44 .cfa: x29 48 +
STACK CFI 67b90 .cfa: sp 48 +
STACK CFI 67b9c .cfa: sp 0 +
STACK CFI 67ba0 .cfa: x29 48 +
STACK CFI INIT 680a8 14c .cfa: sp 0 +
STACK CFI 680ac .cfa: sp 48 +
STACK CFI 680b8 .cfa: x29 48 + x19: .cfa -8 + ^ x20: .cfa -16 + ^ x21: .cfa -24 + ^ x22: .cfa -32 + ^ .ra: .cfa -40 + ^ x29: .cfa -48 + ^
STACK CFI 681a4 .cfa: sp 48 +
STACK CFI 681b0 .cfa: sp 0 +
STACK CFI 681b4 .cfa: x29 48 +
STACK CFI INIT 681f4 4c .cfa: sp 0 +
STACK CFI 681f8 .cfa: sp 32 +
STACK CFI 68200 .cfa: x29 32 + x19: .cfa -8 + ^ x20: .cfa -16 + ^ .ra: .cfa -24 + ^ x29: .cfa -32 + ^
STACK CFI INIT 68e60 1dc .cfa: sp 0 +
STACK CFI 68e64 .cfa: sp 128 +
STACK CFI 68e7c .cfa: x29 80 + x19: .cfa -8 + ^ x20: .cfa -16 + ^ x21: .cfa -24 + ^ x22: .cfa -32 + ^ x23: .cfa -40 + ^ x24: .cfa -48 + ^ x25: .cfa -56 + ^ x26: .cfa -64 + ^ .ra: .cfa -72 + ^ x29: .cfa -80 + ^
STACK CFI 68f6c .cfa: sp 128 +
STACK CFI 68f84 .cfa: sp 0 +
STACK CFI 68f88 .cfa: x29 80 +
STACK CFI INIT 69260 ab4 .cfa: sp 0 +
STACK CFI 69264 .cfa: sp 224 +
STACK CFI 69280 .cfa: x29 96 + x19: .cfa -8 + ^ x20: .cfa -16 + ^ x21: .cfa -24 + ^ x22: .cfa -32 + ^ x23: .cfa -40 + ^ x24: .cfa -48 + ^ x25: .cfa -56 + ^ x26: .cfa -64 + ^ x27: .cfa -72 + ^ x28: .cfa -80 + ^ .ra: .cfa -88 + ^ x29: .cfa -96 + ^
STACK CFI 69cc0 .cfa: sp 224 +
STACK CFI 69cdc .cfa: sp 0 +
STACK CFI 69ce0 .cfa: x29 96 +
STACK CFI INIT 69d58 160 .cfa: sp 0 +
STACK CFI 69d5c .cfa: sp 112 +
STACK CFI 69d74 .cfa: x29 80 + x19: .cfa -8 + ^ x20: .cfa -16 + ^ x21: .cfa -24 + ^ x22: .cfa -32 + ^ x23: .cfa -40 + ^ x24: .cfa -48 + ^ x25: .cfa -56 + ^ x26: .cfa -64 + ^ .ra: .cfa -72 + ^ x29: .cfa -80 + ^
STACK CFI 69e54 .cfa: sp 112 +
STACK CFI 69e6c .cfa: sp 0 +
STACK CFI 69e70 .cfa: x29 80 +
STACK CFI INIT 69eb8 278 .cfa: sp 0 +
STACK CFI 69ebc .cfa: sp 144 +
STACK CFI 69ed4 .cfa: x29 80 + x19: .cfa -8 + ^ x20: .cfa -16 + ^ x21: .cfa -24 + ^ x22: .cfa -32 + ^ x23: .cfa -40 + ^ x24: .cfa -48 + ^ x25: .cfa -56 + ^ x26: .cfa -64 + ^ .ra: .cfa -72 + ^ x29: .cfa -80 + ^
STACK CFI 6a088 .cfa: sp 144 +
STACK CFI 6a0a0 .cfa: sp 0 +
STACK CFI 6a0a4 .cfa: x29 80 +
STACK CFI INIT 6a130 1c4 .cfa: sp 0 +
STACK CFI 6a134 .cfa: sp 112 +
STACK CFI 6a14c .cfa: x29 80 + x19: .cfa -8 + ^ x20: .cfa -16 + ^ x21: .cfa -24 + ^ x22: .cfa -32 + ^ x23: .cfa -40 + ^ x24: .cfa -48 + ^ x25: .cfa -56 + ^ x26: .cfa -64 + ^ .ra: .cfa -72 + ^ x29: .cfa -80 + ^
STACK CFI 6a278 .cfa: sp 112 +
STACK CFI 6a290 .cfa: sp 0 +
STACK CFI 6a294 .cfa: x29 80 +
STACK CFI INIT 6a308 4c .cfa: sp 0 +
STACK CFI 6a30c .cfa: sp 32 +
STACK CFI 6a314 .cfa: x29 32 + x19: .cfa -8 + ^ x20: .cfa -16 + ^ .ra: .cfa -24 + ^ x29: .cfa -32 + ^
STACK CFI INIT 6a354 644 .cfa: sp 0 +
STACK CFI 6a358 .cfa: sp 208 +
STACK CFI 6a370 .cfa: x29 80 + x19: .cfa -8 + ^ x20: .cfa -16 + ^ x21: .cfa -24 + ^ x22: .cfa -32 + ^ x23: .cfa -40 + ^ x24: .cfa -48 + ^ x25: .cfa -64 + ^ .ra: .cfa -72 + ^ x29: .cfa -80 + ^
STACK CFI 6a758 .cfa: sp 208 +
STACK CFI 6a770 .cfa: sp 0 +
STACK CFI 6a774 .cfa: x29 80 +
STACK CFI INIT 6a998 348 .cfa: sp 0 +
STACK CFI 6a99c .cfa: sp 144 +
STACK CFI 6a9b4 .cfa: x29 80 + x19: .cfa -8 + ^ x20: .cfa -16 + ^ x21: .cfa -24 + ^ x22: .cfa -32 + ^ x23: .cfa -40 + ^ x24: .cfa -48 + ^ x25: .cfa -64 + ^ .ra: .cfa -72 + ^ x29: .cfa -80 + ^
STACK CFI 6abec .cfa: sp 144 +
STACK CFI 6ac04 .cfa: sp 0 +
STACK CFI 6ac08 .cfa: x29 80 +
STACK CFI INIT 6b480 494 .cfa: sp 0 +
STACK CFI 6b484 .cfa: sp 176 +
STACK CFI 6b498 .cfa: x29 64 + x19: .cfa -8 + ^ x20: .cfa -16 + ^ x21: .cfa -24 + ^ x22: .cfa -32 + ^ x23: .cfa -40 + ^ x24: .cfa -48 + ^ .ra: .cfa -56 + ^ x29: .cfa -64 + ^
STACK CFI 6b858 .cfa: sp 176 +
STACK CFI 6b86c .cfa: sp 0 +
STACK CFI 6b870 .cfa: x29 64 +
STACK CFI INIT 6bcec 4c .cfa: sp 0 +
STACK CFI 6bcf0 .cfa: sp 32 +
STACK CFI 6bcf8 .cfa: x29 32 + x19: .cfa -8 + ^ x20: .cfa -16 + ^ .ra: .cfa -24 + ^ x29: .cfa -32 + ^
STACK CFI INIT 6bd38 2cc .cfa: sp 0 +
STACK CFI 6bd3c .cfa: sp 144 +
STACK CFI 6bd54 .cfa: x29 80 + x19: .cfa -8 + ^ x20: .cfa -16 + ^ x21: .cfa -24 + ^ x22: .cfa -32 + ^ x23: .cfa -40 + ^ x24: .cfa -48 + ^ x25: .cfa -64 + ^ .ra: .cfa -72 + ^ x29: .cfa -80 + ^
STACK CFI 6bf5c .cfa: sp 144 +
STACK CFI 6bf74 .cfa: sp 0 +
STACK CFI 6bf78 .cfa: x29 80 +
STACK CFI INIT 6c004 218 .cfa: sp 0 +
STACK CFI 6c008 .cfa: sp 112 +
STACK CFI 6c020 .cfa: x29 80 + x19: .cfa -8 + ^ x20: .cfa -16 + ^ x21: .cfa -24 + ^ x22: .cfa -32 + ^ x23: .cfa -40 + ^ x24: .cfa -48 + ^ x25: .cfa -64 + ^ .ra: .cfa -72 + ^ x29: .cfa -80 + ^
STACK CFI 6c1a0 .cfa: sp 112 +
STACK CFI 6c1b8 .cfa: sp 0 +
STACK CFI 6c1bc .cfa: x29 80 +
STACK CFI INIT 6c21c 4c .cfa: sp 0 +
STACK CFI 6c220 .cfa: sp 32 +
STACK CFI 6c228 .cfa: x29 32 + x19: .cfa -8 + ^ x20: .cfa -16 + ^ .ra: .cfa -24 + ^ x29: .cfa -32 + ^
STACK CFI INIT 6c268 1d0 .cfa: sp 0 +
STACK CFI 6c26c .cfa: sp 112 +
STACK CFI 6c284 .cfa: x29 80 + x19: .cfa -8 + ^ x20: .cfa -16 + ^ x21: .cfa -24 + ^ x22: .cfa -32 + ^ x23: .cfa -40 + ^ x24: .cfa -48 + ^ x25: .cfa -64 + ^ .ra: .cfa -72 + ^ x29: .cfa -80 + ^
STACK CFI 6c3d4 .cfa: sp 112 +
STACK CFI 6c3ec .cfa: sp 0 +
STACK CFI 6c3f0 .cfa: x29 80 +
STACK CFI INIT 6c8b0 1b4 .cfa: sp 0 +
STACK CFI 6c8b4 .cfa: sp 112 +
STACK CFI 6c8cc .cfa: x29 80 + x19: .cfa -8 + ^ x20: .cfa -16 + ^ x21: .cfa -24 + ^ x22: .cfa -32 + ^ x23: .cfa -40 + ^ x24: .cfa -48 + ^ x25: .cfa -64 + ^ .ra: .cfa -72 + ^ x29: .cfa -80 + ^
STACK CFI 6ca00 .cfa: sp 112 +
STACK CFI 6ca18 .cfa: sp 0 +
STACK CFI 6ca1c .cfa: x29 80 +
STACK CFI INIT 6ca64 4c .cfa: sp 0 +
STACK CFI 6ca68 .cfa: sp 32 +
STACK CFI 6ca70 .cfa: x29 32 + x19: .cfa -8 + ^ x20: .cfa -16 + ^ .ra: .cfa -24 + ^ x29: .cfa -32 + ^
STACK CFI INIT 6cd88 144 .cfa: sp 0 +
STACK CFI 6cd8c .cfa: sp 96 +
STACK CFI 6cda4 .cfa: x29 96 + x19: .cfa -8 + ^ x20: .cfa -16 + ^ x21: .cfa -24 + ^ x22: .cfa -32 + ^ x23: .cfa -40 + ^ x24: .cfa -48 + ^ x25: .cfa -56 + ^ x26: .cfa -64 + ^ x27: .cfa -72 + ^ x28: .cfa -80 + ^ .ra: .cfa -88 + ^ x29: .cfa -96 + ^
STACK CFI 6ce60 .cfa: sp 96 +
STACK CFI 6ce78 .cfa: sp 0 +
STACK CFI 6ce7c .cfa: x29 96 +
STACK CFI INIT 6cecc 4c .cfa: sp 0 +
STACK CFI 6ced0 .cfa: sp 32 +
STACK CFI 6ced8 .cfa: x29 32 + x19: .cfa -8 + ^ x20: .cfa -16 + ^ .ra: .cfa -24 + ^ x29: .cfa -32 + ^
STACK CFI INIT 6cf18 4c .cfa: sp 0 +
STACK CFI 6cf1c .cfa: sp 32 +
STACK CFI 6cf24 .cfa: x29 32 + x19: .cfa -8 + ^ x20: .cfa -16 + ^ .ra: .cfa -24 + ^ x29: .cfa -32 + ^
STACK CFI INIT 6d400 4c .cfa: sp 0 +
STACK CFI 6d404 .cfa: sp 32 +
STACK CFI 6d40c .cfa: x29 32 + x19: .cfa -8 + ^ x20: .cfa -16 + ^ .ra: .cfa -24 + ^ x29: .cfa -32 + ^
STACK CFI INIT 6df14 50 .cfa: sp 0 +
STACK CFI 6df18 .cfa: sp 32 +
STACK CFI 6df20 .cfa: x29 32 + x19: .cfa -8 + ^ x20: .cfa -16 + ^ .ra: .cfa -24 + ^ x29: .cfa -32 + ^
STACK CFI INIT 6dfe4 724 .cfa: sp 0 +
STACK CFI 6dfe8 .cfa: sp 368 +
STACK CFI 6e000 .cfa: x29 80 + x19: .cfa -8 + ^ x20: .cfa -16 + ^ x21: .cfa -24 + ^ x22: .cfa -32 + ^ x23: .cfa -40 + ^ x24: .cfa -48 + ^ x25: .cfa -56 + ^ x28: .cfa -64 + ^ .ra: .cfa -72 + ^ x29: .cfa -80 + ^
STACK CFI 6e608 .cfa: sp 368 +
STACK CFI 6e620 .cfa: sp 0 +
STACK CFI 6e624 .cfa: x29 80 +
STACK CFI INIT 6e708 104 .cfa: sp 0 +
STACK CFI 6e70c .cfa: sp 64 +
STACK CFI 6e71c .cfa: x29 64 + x19: .cfa -8 + ^ x20: .cfa -16 + ^ x21: .cfa -24 + ^ x22: .cfa -32 + ^ x23: .cfa -48 + ^ .ra: .cfa -56 + ^ x29: .cfa -64 + ^
STACK CFI 6e7b8 .cfa: sp 64 +
STACK CFI 6e7c8 .cfa: sp 0 +
STACK CFI 6e7cc .cfa: x29 64 +
STACK CFI INIT 6e860 1a4 .cfa: sp 0 +
STACK CFI 6e864 .cfa: sp 112 +
STACK CFI 6e87c .cfa: x29 80 + x19: .cfa -8 + ^ x20: .cfa -16 + ^ x21: .cfa -24 + ^ x22: .cfa -32 + ^ x23: .cfa -40 + ^ x24: .cfa -48 + ^ x25: .cfa -56 + ^ x26: .cfa -64 + ^ .ra: .cfa -72 + ^ x29: .cfa -80 + ^
STACK CFI 6e968 .cfa: sp 112 +
STACK CFI 6e980 .cfa: sp 0 +
STACK CFI 6e984 .cfa: x29 80 +
STACK CFI INIT 6ea04 1dc .cfa: sp 0 +
STACK CFI 6ea08 .cfa: sp 128 +
STACK CFI 6ea24 .cfa: x29 96 + x19: .cfa -8 + ^ x20: .cfa -16 + ^ x21: .cfa -24 + ^ x22: .cfa -32 + ^ x23: .cfa -40 + ^ x24: .cfa -48 + ^ x25: .cfa -56 + ^ x26: .cfa -64 + ^ x27: .cfa -80 + ^ .ra: .cfa -88 + ^ x29: .cfa -96 + ^
STACK CFI 6eb90 .cfa: sp 128 +
STACK CFI 6ebac .cfa: sp 0 +
STACK CFI 6ebb0 .cfa: x29 96 +
STACK CFI INIT 6ebe0 138 .cfa: sp 0 +
STACK CFI 6ebe4 .cfa: sp 64 +
STACK CFI 6ebf4 .cfa: x29 48 + x19: .cfa -8 + ^ x20: .cfa -16 + ^ x21: .cfa -24 + ^ x22: .cfa -32 + ^ .ra: .cfa -40 + ^ x29: .cfa -48 + ^
STACK CFI 6ecc8 .cfa: sp 64 +
STACK CFI 6ecd8 .cfa: sp 0 +
STACK CFI 6ecdc .cfa: x29 48 +
STACK CFI INIT 6ee50 bc .cfa: sp 0 +
STACK CFI 6ee54 .cfa: sp 48 +
STACK CFI 6ee60 .cfa: x29 48 + x19: .cfa -8 + ^ x20: .cfa -16 + ^ x21: .cfa -32 + ^ .ra: .cfa -40 + ^ x29: .cfa -48 + ^
STACK CFI 6eed4 .cfa: sp 48 +
STACK CFI 6eee0 .cfa: sp 0 +
STACK CFI 6eee4 .cfa: x29 48 +
STACK CFI INIT 6fbb4 400 .cfa: sp 0 +
STACK CFI 6fbb8 .cfa: sp 176 +
STACK CFI 6fbd8 .cfa: x29 96 + x19: .cfa -8 + ^ x20: .cfa -16 + ^ x21: .cfa -24 + ^ x22: .cfa -32 + ^ x23: .cfa -40 + ^ x24: .cfa -48 + ^ x25: .cfa -56 + ^ x26: .cfa -64 + ^ x27: .cfa -72 + ^ x28: .cfa -80 + ^ .ra: .cfa -88 + ^ x29: .cfa -96 + ^ v8: .cfa -112 + ^
STACK CFI 6fefc .cfa: sp 176 +
STACK CFI 6ff1c .cfa: sp 0 +
STACK CFI 6ff20 .cfa: x29 96 +
STACK CFI INIT 6ffb4 4a8 .cfa: sp 0 +
STACK CFI 6ffb8 .cfa: sp 160 +
STACK CFI 6ffc8 .cfa: x29 48 + x19: .cfa -8 + ^ x20: .cfa -16 + ^ x21: .cfa -24 + ^ x22: .cfa -32 + ^ .ra: .cfa -40 + ^ x29: .cfa -48 + ^
STACK CFI 703c4 .cfa: sp 160 +
STACK CFI 703d4 .cfa: sp 0 +
STACK CFI 703d8 .cfa: x29 48 +
STACK CFI INIT 7045c 230 .cfa: sp 0 +
STACK CFI 70460 .cfa: sp 160 +
STACK CFI 70470 .cfa: x29 48 + x19: .cfa -8 + ^ x20: .cfa -16 + ^ x21: .cfa -24 + ^ x22: .cfa -32 + ^ .ra: .cfa -40 + ^ x29: .cfa -48 + ^
STACK CFI 705fc .cfa: sp 160 +
STACK CFI 7060c .cfa: sp 0 +
STACK CFI 70610 .cfa: x29 48 +
STACK CFI INIT 7068c 484 .cfa: sp 0 +
STACK CFI 70690 .cfa: sp 96 +
STACK CFI 706a8 .cfa: x29 96 + x19: .cfa -8 + ^ x20: .cfa -16 + ^ x21: .cfa -24 + ^ x22: .cfa -32 + ^ x23: .cfa -40 + ^ x24: .cfa -48 + ^ x25: .cfa -56 + ^ x26: .cfa -64 + ^ x27: .cfa -72 + ^ x28: .cfa -80 + ^ .ra: .cfa -88 + ^ x29: .cfa -96 + ^
STACK CFI 709d4 .cfa: sp 96 +
STACK CFI 709ec .cfa: sp 0 +
STACK CFI 709f0 .cfa: x29 96 +
STACK CFI INIT 70b7c 9a0 .cfa: sp 0 +
STACK CFI 70b80 .cfa: sp 96 +
STACK CFI 70b98 .cfa: x29 96 + x19: .cfa -8 + ^ x20: .cfa -16 + ^ x21: .cfa -24 + ^ x22: .cfa -32 + ^ x23: .cfa -40 + ^ x24: .cfa -48 + ^ x25: .cfa -56 + ^ x26: .cfa -64 + ^ x28: .cfa -80 + ^ .ra: .cfa -88 + ^ x29: .cfa -96 + ^
STACK CFI 712fc .cfa: sp 96 +
STACK CFI 71314 .cfa: sp 0 +
STACK CFI 71318 .cfa: x29 96 +
STACK CFI INIT 7151c 330 .cfa: sp 0 +
STACK CFI 71520 .cfa: sp 208 +
STACK CFI 71538 .cfa: x29 80 + x19: .cfa -8 + ^ x20: .cfa -16 + ^ x21: .cfa -24 + ^ x22: .cfa -32 + ^ x23: .cfa -40 + ^ x24: .cfa -48 + ^ x25: .cfa -64 + ^ .ra: .cfa -72 + ^ x29: .cfa -80 + ^
STACK CFI 717a8 .cfa: sp 208 +
STACK CFI 717c0 .cfa: sp 0 +
STACK CFI 717c4 .cfa: x29 80 +
STACK CFI INIT 7184c bc .cfa: sp 0 +
STACK CFI 71850 .cfa: sp 48 +
STACK CFI 7185c .cfa: x29 48 + x19: .cfa -8 + ^ x20: .cfa -16 + ^ x21: .cfa -24 + ^ x22: .cfa -32 + ^ .ra: .cfa -40 + ^ x29: .cfa -48 + ^
STACK CFI 718d0 .cfa: sp 48 +
STACK CFI 718dc .cfa: sp 0 +
STACK CFI 718e0 .cfa: x29 48 +
STACK CFI INIT 71908 3f0 .cfa: sp 0 +
STACK CFI 7190c .cfa: sp 304 +
STACK CFI 71928 .cfa: x29 96 + x19: .cfa -8 + ^ x20: .cfa -16 + ^ x21: .cfa -24 + ^ x22: .cfa -32 + ^ x23: .cfa -40 + ^ x24: .cfa -48 + ^ x25: .cfa -56 + ^ x26: .cfa -64 + ^ x27: .cfa -72 + ^ x28: .cfa -80 + ^ .ra: .cfa -88 + ^ x29: .cfa -96 + ^
STACK CFI 71c28 .cfa: sp 304 +
STACK CFI 71c44 .cfa: sp 0 +
STACK CFI 71c48 .cfa: x29 96 +
STACK CFI INIT 721b0 448 .cfa: sp 0 +
STACK CFI 721b4 .cfa: sp 112 +
STACK CFI 721d0 .cfa: x29 96 + x19: .cfa -8 + ^ x20: .cfa -16 + ^ x21: .cfa -24 + ^ x22: .cfa -32 + ^ x23: .cfa -40 + ^ x24: .cfa -48 + ^ x25: .cfa -56 + ^ x26: .cfa -64 + ^ x27: .cfa -72 + ^ x28: .cfa -80 + ^ .ra: .cfa -88 + ^ x29: .cfa -96 + ^
STACK CFI 722d0 .cfa: sp 112 +
STACK CFI 722ec .cfa: sp 0 +
STACK CFI 722f0 .cfa: x29 96 +
STACK CFI 722fc .cfa: sp 112 +
STACK CFI 72318 .cfa: sp 0 +
STACK CFI 7231c .cfa: x29 96 +
STACK CFI 72398 .cfa: sp 112 +
STACK CFI 723b4 .cfa: sp 0 +
STACK CFI 723b8 .cfa: x29 96 +
STACK CFI 723c4 .cfa: sp 112 +
STACK CFI 723e0 .cfa: sp 0 +
STACK CFI 723e4 .cfa: x29 96 +
STACK CFI 72590 .cfa: sp 112 +
STACK CFI 725ac .cfa: sp 0 +
STACK CFI 725b0 .cfa: x29 96 +
STACK CFI INIT 72ef8 310 .cfa: sp 0 +
STACK CFI 72efc .cfa: sp 144 +
STACK CFI 72f10 .cfa: x29 64 + x19: .cfa -8 + ^ x20: .cfa -16 + ^ x21: .cfa -24 + ^ x22: .cfa -32 + ^ x23: .cfa -48 + ^ .ra: .cfa -56 + ^ x29: .cfa -64 + ^
STACK CFI 73080 .cfa: sp 144 +
STACK CFI 73094 .cfa: sp 0 +
STACK CFI 73098 .cfa: x29 64 +
STACK CFI INIT 739e0 150 .cfa: sp 0 +
STACK CFI 739e4 .cfa: sp 64 +
STACK CFI 739f4 .cfa: x29 64 + x19: .cfa -8 + ^ x20: .cfa -16 + ^ x21: .cfa -24 + ^ x22: .cfa -32 + ^ x23: .cfa -48 + ^ .ra: .cfa -56 + ^ x29: .cfa -64 + ^
STACK CFI 73b04 .cfa: sp 64 +
STACK CFI 73b14 .cfa: sp 0 +
STACK CFI 73b18 .cfa: x29 64 +
STACK CFI INIT 73b98 200 .cfa: sp 0 +
STACK CFI 73b9c .cfa: sp 48 +
STACK CFI 73ba8 .cfa: x29 48 + x19: .cfa -8 + ^ x20: .cfa -16 + ^ x21: .cfa -32 + ^ .ra: .cfa -40 + ^ x29: .cfa -48 + ^
STACK CFI 73d04 .cfa: sp 48 +
STACK CFI 73d10 .cfa: sp 0 +
STACK CFI 73d14 .cfa: x29 48 +
STACK CFI 73d60 .cfa: sp 48 +
STACK CFI 73d6c .cfa: sp 0 +
STACK CFI 73d70 .cfa: x29 48 +
STACK CFI INIT 7426c 62c .cfa: sp 0 +
STACK CFI 74270 .cfa: sp 208 +
STACK CFI 74288 .cfa: x29 80 + x19: .cfa -8 + ^ x20: .cfa -16 + ^ x21: .cfa -24 + ^ x22: .cfa -32 + ^ x23: .cfa -40 + ^ x24: .cfa -48 + ^ x25: .cfa -64 + ^ .ra: .cfa -72 + ^ x29: .cfa -80 + ^
STACK CFI 74620 .cfa: sp 208 +
STACK CFI 74638 .cfa: sp 0 +
STACK CFI 7463c .cfa: x29 80 +
STACK CFI INIT 74898 340 .cfa: sp 0 +
STACK CFI 7489c .cfa: sp 144 +
STACK CFI 748b4 .cfa: x29 80 + x19: .cfa -8 + ^ x20: .cfa -16 + ^ x21: .cfa -24 + ^ x22: .cfa -32 + ^ x23: .cfa -40 + ^ x24: .cfa -48 + ^ x25: .cfa -56 + ^ x26: .cfa -64 + ^ .ra: .cfa -72 + ^ x29: .cfa -80 + ^
STACK CFI 74af0 .cfa: sp 144 +
STACK CFI 74b08 .cfa: sp 0 +
STACK CFI 74b0c .cfa: x29 80 +
STACK CFI INIT 752c4 278 .cfa: sp 0 +
STACK CFI 752c8 .cfa: sp 144 +
STACK CFI 752e0 .cfa: x29 80 + x19: .cfa -8 + ^ x20: .cfa -16 + ^ x21: .cfa -24 + ^ x22: .cfa -32 + ^ x23: .cfa -40 + ^ x24: .cfa -48 + ^ x25: .cfa -56 + ^ x26: .cfa -64 + ^ .ra: .cfa -72 + ^ x29: .cfa -80 + ^
STACK CFI 75494 .cfa: sp 144 +
STACK CFI 754ac .cfa: sp 0 +
STACK CFI 754b0 .cfa: x29 80 +
STACK CFI INIT 7553c 17c .cfa: sp 0 +
STACK CFI 75540 .cfa: sp 112 +
STACK CFI 75558 .cfa: x29 80 + x19: .cfa -8 + ^ x20: .cfa -16 + ^ x21: .cfa -24 + ^ x22: .cfa -32 + ^ x23: .cfa -40 + ^ x24: .cfa -48 + ^ x25: .cfa -56 + ^ x26: .cfa -64 + ^ .ra: .cfa -72 + ^ x29: .cfa -80 + ^
STACK CFI 75654 .cfa: sp 112 +
STACK CFI 7566c .cfa: sp 0 +
STACK CFI 75670 .cfa: x29 80 +
STACK CFI INIT 76124 198 .cfa: sp 0 +
STACK CFI 76128 .cfa: sp 96 +
STACK CFI 76138 .cfa: x29 48 + x19: .cfa -8 + ^ x20: .cfa -16 + ^ x21: .cfa -32 + ^ .ra: .cfa -40 + ^ x29: .cfa -48 + ^
STACK CFI 76214 .cfa: sp 96 +
STACK CFI 76224 .cfa: sp 0 +
STACK CFI 76228 .cfa: x29 48 +
STACK CFI INIT 762bc 374 .cfa: sp 0 +
STACK CFI 762c0 .cfa: sp 192 +
STACK CFI 762d4 .cfa: x29 64 + x19: .cfa -8 + ^ x20: .cfa -16 + ^ x21: .cfa -24 + ^ x22: .cfa -32 + ^ x23: .cfa -48 + ^ .ra: .cfa -56 + ^ x29: .cfa -64 + ^
STACK CFI 76524 .cfa: sp 192 +
STACK CFI 76538 .cfa: sp 0 +
STACK CFI 7653c .cfa: x29 64 +
STACK CFI INIT 766a0 118 .cfa: sp 0 +
STACK CFI 766a4 .cfa: sp 48 +
STACK CFI 766b0 .cfa: x29 48 + x19: .cfa -8 + ^ x20: .cfa -16 + ^ x21: .cfa -24 + ^ x22: .cfa -32 + ^ .ra: .cfa -40 + ^ x29: .cfa -48 + ^
STACK CFI 76700 .cfa: sp 48 +
STACK CFI 7670c .cfa: sp 0 +
STACK CFI 76710 .cfa: x29 48 +
STACK CFI 76714 .cfa: sp 48 +
STACK CFI 76720 .cfa: sp 0 +
STACK CFI 76724 .cfa: x29 48 +
STACK CFI INIT 767b8 2f0 .cfa: sp 0 +
STACK CFI 767bc .cfa: sp 112 +
STACK CFI 767cc .cfa: x29 48 + x19: .cfa -8 + ^ x20: .cfa -16 + ^ x21: .cfa -24 + ^ x22: .cfa -32 + ^ .ra: .cfa -40 + ^ x29: .cfa -48 + ^
STACK CFI 76a4c .cfa: sp 112 +
STACK CFI 76a5c .cfa: sp 0 +
STACK CFI 76a60 .cfa: x29 48 +
STACK CFI INIT 76aa8 c14 .cfa: sp 0 +
STACK CFI 76aac .cfa: sp 96 +
STACK CFI 76ac4 .cfa: x29 96 + x19: .cfa -8 + ^ x20: .cfa -16 + ^ x21: .cfa -24 + ^ x22: .cfa -32 + ^ x23: .cfa -40 + ^ x24: .cfa -48 + ^ x25: .cfa -56 + ^ x26: .cfa -64 + ^ x27: .cfa -72 + ^ x28: .cfa -80 + ^ .ra: .cfa -88 + ^ x29: .cfa -96 + ^
STACK CFI 774a0 .cfa: sp 96 +
STACK CFI 774b8 .cfa: sp 0 +
STACK CFI 774bc .cfa: x29 96 +
STACK CFI INIT 776bc 11d0 .cfa: sp 0 +
STACK CFI 776c0 .cfa: sp 96 +
STACK CFI 776d8 .cfa: x29 96 + x19: .cfa -8 + ^ x20: .cfa -16 + ^ x21: .cfa -24 + ^ x22: .cfa -32 + ^ x23: .cfa -40 + ^ x24: .cfa -48 + ^ x25: .cfa -56 + ^ x26: .cfa -64 + ^ x27: .cfa -72 + ^ x28: .cfa -80 + ^ .ra: .cfa -88 + ^ x29: .cfa -96 + ^
STACK CFI 78540 .cfa: sp 96 +
STACK CFI 78558 .cfa: sp 0 +
STACK CFI 7855c .cfa: x29 96 +
STACK CFI INIT 7888c 128 .cfa: sp 0 +
STACK CFI 78890 .cfa: sp 80 +
STACK CFI 788a4 .cfa: x29 64 + x19: .cfa -8 + ^ x20: .cfa -16 + ^ x21: .cfa -24 + ^ x22: .cfa -32 + ^ x23: .cfa -48 + ^ .ra: .cfa -56 + ^ x29: .cfa -64 + ^
STACK CFI 78974 .cfa: sp 80 +
STACK CFI 78988 .cfa: sp 0 +
STACK CFI 7898c .cfa: x29 64 +
STACK CFI INIT 789b4 14c .cfa: sp 0 +
STACK CFI 789b8 .cfa: sp 32 +
STACK CFI 789c0 .cfa: x29 32 + x19: .cfa -16 + ^ .ra: .cfa -24 + ^ x29: .cfa -32 + ^
STACK CFI 78af0 .cfa: sp 32 +
STACK CFI 78af8 .cfa: sp 0 +
STACK CFI 78afc .cfa: x29 32 +
STACK CFI INIT 78b00 154 .cfa: sp 0 +
STACK CFI 78b04 .cfa: sp 32 +
STACK CFI 78b0c .cfa: x29 32 + x19: .cfa -16 + ^ .ra: .cfa -24 + ^ x29: .cfa -32 + ^
STACK CFI 78c44 .cfa: sp 32 +
STACK CFI 78c4c .cfa: sp 0 +
STACK CFI 78c50 .cfa: x29 32 +
STACK CFI INIT 78c54 600 .cfa: sp 0 +
STACK CFI 78c58 .cfa: sp 160 +
STACK CFI 78c70 .cfa: x29 80 + x19: .cfa -8 + ^ x20: .cfa -16 + ^ x21: .cfa -24 + ^ x22: .cfa -32 + ^ x23: .cfa -40 + ^ x24: .cfa -48 + ^ x25: .cfa -64 + ^ .ra: .cfa -72 + ^ x29: .cfa -80 + ^
STACK CFI 79184 .cfa: sp 160 +
STACK CFI 7919c .cfa: sp 0 +
STACK CFI 791a0 .cfa: x29 80 +
STACK CFI INIT 79254 868 .cfa: sp 0 +
STACK CFI 79258 .cfa: sp 80 +
STACK CFI 7926c .cfa: x29 80 + x19: .cfa -8 + ^ x20: .cfa -16 + ^ x21: .cfa -24 + ^ x22: .cfa -32 + ^ x23: .cfa -40 + ^ x24: .cfa -48 + ^ x25: .cfa -56 + ^ x28: .cfa -64 + ^ .ra: .cfa -72 + ^ x29: .cfa -80 + ^
STACK CFI 799a8 .cfa: sp 80 +
STACK CFI 799bc .cfa: sp 0 +
STACK CFI 799c0 .cfa: x29 80 +
STACK CFI INIT 79abc 14c .cfa: sp 0 +
STACK CFI 79ac0 .cfa: sp 32 +
STACK CFI 79ac8 .cfa: x29 32 + x19: .cfa -8 + ^ x20: .cfa -16 + ^ .ra: .cfa -24 + ^ x29: .cfa -32 + ^
STACK CFI 79bf8 .cfa: sp 32 +
STACK CFI 79c00 .cfa: sp 0 +
STACK CFI 79c04 .cfa: x29 32 +
STACK CFI INIT 79ce0 fd8 .cfa: sp 0 +
STACK CFI 79ce4 .cfa: sp 480 +
STACK CFI 79d04 .cfa: x29 96 + x19: .cfa -8 + ^ x20: .cfa -16 + ^ x21: .cfa -24 + ^ x22: .cfa -32 + ^ x23: .cfa -40 + ^ x24: .cfa -48 + ^ x25: .cfa -56 + ^ x26: .cfa -64 + ^ x27: .cfa -72 + ^ x28: .cfa -80 + ^ .ra: .cfa -88 + ^ x29: .cfa -96 + ^ v8: .cfa -112 + ^
STACK CFI 7a9a8 .cfa: sp 480 +
STACK CFI 7a9c8 .cfa: sp 0 +
STACK CFI 7a9cc .cfa: x29 96 +
STACK CFI INIT 7acb8 858 .cfa: sp 0 +
STACK CFI 7acbc .cfa: sp 128 +
STACK CFI 7acdc .cfa: x29 96 + x19: .cfa -8 + ^ x20: .cfa -16 + ^ x21: .cfa -24 + ^ x22: .cfa -32 + ^ x23: .cfa -40 + ^ x24: .cfa -48 + ^ x25: .cfa -56 + ^ x26: .cfa -64 + ^ x27: .cfa -72 + ^ x28: .cfa -80 + ^ .ra: .cfa -88 + ^ x29: .cfa -96 + ^ v8: .cfa -104 + ^ v9: .cfa -112 + ^ v10: .cfa -128 + ^
STACK CFI 7b410 .cfa: sp 128 +
STACK CFI 7b430 .cfa: sp 0 +
STACK CFI 7b434 .cfa: x29 96 +
STACK CFI INIT 7b510 18c .cfa: sp 0 +
STACK CFI 7b514 .cfa: sp 144 +
STACK CFI 7b524 .cfa: x29 48 + x19: .cfa -8 + ^ x20: .cfa -16 + ^ x21: .cfa -32 + ^ .ra: .cfa -40 + ^ x29: .cfa -48 + ^
STACK CFI 7b65c .cfa: sp 144 +
STACK CFI 7b66c .cfa: sp 0 +
STACK CFI 7b670 .cfa: x29 48 +
STACK CFI INIT 7b798 180 .cfa: sp 0 +
STACK CFI 7b79c .cfa: sp 80 +
STACK CFI 7b7b0 .cfa: x29 80 + x19: .cfa -8 + ^ x20: .cfa -16 + ^ x21: .cfa -24 + ^ x22: .cfa -32 + ^ x23: .cfa -40 + ^ x24: .cfa -48 + ^ x25: .cfa -64 + ^ .ra: .cfa -72 + ^ x29: .cfa -80 + ^
STACK CFI 7b8d8 .cfa: sp 80 +
STACK CFI 7b8ec .cfa: sp 0 +
STACK CFI 7b8f0 .cfa: x29 80 +
STACK CFI INIT 7b918 f3c .cfa: sp 0 +
STACK CFI 7b91c .cfa: sp 336 +
STACK CFI 7b938 .cfa: x29 96 + x19: .cfa -8 + ^ x20: .cfa -16 + ^ x21: .cfa -24 + ^ x22: .cfa -32 + ^ x23: .cfa -40 + ^ x24: .cfa -48 + ^ x25: .cfa -56 + ^ x26: .cfa -64 + ^ x27: .cfa -72 + ^ x28: .cfa -80 + ^ .ra: .cfa -88 + ^ x29: .cfa -96 + ^
STACK CFI 7c580 .cfa: sp 336 +
STACK CFI 7c59c .cfa: sp 0 +
STACK CFI 7c5a0 .cfa: x29 96 +
STACK CFI INIT 7c854 460 .cfa: sp 0 +
STACK CFI 7c858 .cfa: sp 96 +
STACK CFI 7c870 .cfa: x29 96 + x19: .cfa -8 + ^ x20: .cfa -16 + ^ x21: .cfa -24 + ^ x22: .cfa -32 + ^ x23: .cfa -40 + ^ x24: .cfa -48 + ^ x25: .cfa -56 + ^ x26: .cfa -64 + ^ x27: .cfa -72 + ^ x28: .cfa -80 + ^ .ra: .cfa -88 + ^ x29: .cfa -96 + ^
STACK CFI 7cb78 .cfa: sp 96 +
STACK CFI 7cb90 .cfa: sp 0 +
STACK CFI 7cb94 .cfa: x29 96 +
STACK CFI INIT 7cde4 9a0 .cfa: sp 0 +
STACK CFI 7cde8 .cfa: sp 96 +
STACK CFI 7ce00 .cfa: x29 96 + x19: .cfa -8 + ^ x20: .cfa -16 + ^ x21: .cfa -24 + ^ x22: .cfa -32 + ^ x23: .cfa -40 + ^ x24: .cfa -48 + ^ x25: .cfa -56 + ^ x26: .cfa -64 + ^ x28: .cfa -80 + ^ .ra: .cfa -88 + ^ x29: .cfa -96 + ^
STACK CFI 7d550 .cfa: sp 96 +
STACK CFI 7d568 .cfa: sp 0 +
STACK CFI 7d56c .cfa: x29 96 +
STACK CFI INIT 7d784 300 .cfa: sp 0 +
STACK CFI 7d788 .cfa: sp 192 +
STACK CFI 7d7a0 .cfa: x29 80 + x19: .cfa -8 + ^ x20: .cfa -16 + ^ x21: .cfa -24 + ^ x22: .cfa -32 + ^ x23: .cfa -40 + ^ x24: .cfa -48 + ^ x25: .cfa -64 + ^ .ra: .cfa -72 + ^ x29: .cfa -80 + ^
STACK CFI 7d9e0 .cfa: sp 192 +
STACK CFI 7d9f8 .cfa: sp 0 +
STACK CFI 7d9fc .cfa: x29 80 +
STACK CFI INIT 7da84 2dc .cfa: sp 0 +
STACK CFI 7da88 .cfa: sp 176 +
STACK CFI 7da9c .cfa: x29 64 + x19: .cfa -8 + ^ x20: .cfa -16 + ^ x21: .cfa -24 + ^ x22: .cfa -32 + ^ x23: .cfa -48 + ^ .ra: .cfa -56 + ^ x29: .cfa -64 + ^
STACK CFI 7dca8 .cfa: sp 176 +
STACK CFI 7dcbc .cfa: sp 0 +
STACK CFI 7dcc0 .cfa: x29 64 +
STACK CFI INIT 7dd60 128 .cfa: sp 0 +
STACK CFI 7dd64 .cfa: sp 80 +
STACK CFI 7dd78 .cfa: x29 64 + x19: .cfa -8 + ^ x20: .cfa -16 + ^ x21: .cfa -24 + ^ x22: .cfa -32 + ^ x23: .cfa -48 + ^ .ra: .cfa -56 + ^ x29: .cfa -64 + ^
STACK CFI 7de48 .cfa: sp 80 +
STACK CFI 7de5c .cfa: sp 0 +
STACK CFI 7de60 .cfa: x29 64 +
STACK CFI INIT 7de88 290 .cfa: sp 0 +
STACK CFI 7de8c .cfa: sp 96 +
STACK CFI 7de9c .cfa: x29 48 + x19: .cfa -8 + ^ x20: .cfa -16 + ^ x21: .cfa -24 + ^ x22: .cfa -32 + ^ .ra: .cfa -40 + ^ x29: .cfa -48 + ^
STACK CFI 7e0d4 .cfa: sp 96 +
STACK CFI 7e0e4 .cfa: sp 0 +
STACK CFI 7e0e8 .cfa: x29 48 +
STACK CFI INIT 7e118 14c .cfa: sp 0 +
STACK CFI 7e11c .cfa: sp 32 +
STACK CFI 7e124 .cfa: x29 32 + x19: .cfa -16 + ^ .ra: .cfa -24 + ^ x29: .cfa -32 + ^
STACK CFI 7e254 .cfa: sp 32 +
STACK CFI 7e25c .cfa: sp 0 +
STACK CFI 7e260 .cfa: x29 32 +
STACK CFI INIT 7e264 154 .cfa: sp 0 +
STACK CFI 7e268 .cfa: sp 32 +
STACK CFI 7e270 .cfa: x29 32 + x19: .cfa -16 + ^ .ra: .cfa -24 + ^ x29: .cfa -32 + ^
STACK CFI 7e3a8 .cfa: sp 32 +
STACK CFI 7e3b0 .cfa: sp 0 +
STACK CFI 7e3b4 .cfa: x29 32 +
STACK CFI INIT 7e3b8 2f4 .cfa: sp 0 +
STACK CFI 7e3bc .cfa: sp 80 +
STACK CFI 7e3d0 .cfa: x29 80 + x19: .cfa -8 + ^ x20: .cfa -16 + ^ x21: .cfa -24 + ^ x22: .cfa -32 + ^ x23: .cfa -40 + ^ x24: .cfa -48 + ^ x25: .cfa -56 + ^ x28: .cfa -64 + ^ .ra: .cfa -72 + ^ x29: .cfa -80 + ^
STACK CFI 7e5e0 .cfa: sp 80 +
STACK CFI 7e5f4 .cfa: sp 0 +
STACK CFI 7e5f8 .cfa: x29 80 +
STACK CFI INIT 7e6ac 14c .cfa: sp 0 +
STACK CFI 7e6b0 .cfa: sp 32 +
STACK CFI 7e6b8 .cfa: x29 32 + x19: .cfa -8 + ^ x20: .cfa -16 + ^ .ra: .cfa -24 + ^ x29: .cfa -32 + ^
STACK CFI 7e7e8 .cfa: sp 32 +
STACK CFI 7e7f0 .cfa: sp 0 +
STACK CFI 7e7f4 .cfa: x29 32 +
STACK CFI INIT 7e874 2b0 .cfa: sp 0 +
STACK CFI 7e878 .cfa: sp 96 +
STACK CFI 7e88c .cfa: x29 64 + x19: .cfa -8 + ^ x20: .cfa -16 + ^ x21: .cfa -24 + ^ x22: .cfa -32 + ^ x23: .cfa -48 + ^ .ra: .cfa -56 + ^ x29: .cfa -64 + ^
STACK CFI 7ea8c .cfa: sp 96 +
STACK CFI 7eaa0 .cfa: sp 0 +
STACK CFI 7eaa4 .cfa: x29 64 +
STACK CFI INIT 7eb24 350 .cfa: sp 0 +
STACK CFI 7eb28 .cfa: sp 176 +
STACK CFI 7eb48 .cfa: x29 96 + x19: .cfa -8 + ^ x20: .cfa -16 + ^ x21: .cfa -24 + ^ x22: .cfa -32 + ^ x23: .cfa -40 + ^ x24: .cfa -48 + ^ x25: .cfa -56 + ^ x26: .cfa -64 + ^ x27: .cfa -72 + ^ x28: .cfa -80 + ^ .ra: .cfa -88 + ^ x29: .cfa -96 + ^ v8: .cfa -112 + ^
STACK CFI 7edbc .cfa: sp 176 +
STACK CFI 7eddc .cfa: sp 0 +
STACK CFI 7ede0 .cfa: x29 96 +
STACK CFI INIT 7ee74 580 .cfa: sp 0 +
STACK CFI 7ee78 .cfa: sp 96 +
STACK CFI 7ee90 .cfa: x29 96 + x19: .cfa -8 + ^ x20: .cfa -16 + ^ x21: .cfa -24 + ^ x22: .cfa -32 + ^ x23: .cfa -40 + ^ x24: .cfa -48 + ^ x25: .cfa -56 + ^ x26: .cfa -64 + ^ x27: .cfa -72 + ^ x28: .cfa -80 + ^ .ra: .cfa -88 + ^ x29: .cfa -96 + ^
STACK CFI 7f300 .cfa: sp 96 +
STACK CFI 7f318 .cfa: sp 0 +
STACK CFI 7f31c .cfa: x29 96 +
STACK CFI INIT 7f3f4 218 .cfa: sp 0 +
STACK CFI 7f3f8 .cfa: sp 80 +
STACK CFI 7f40c .cfa: x29 80 + x19: .cfa -8 + ^ x20: .cfa -16 + ^ x21: .cfa -24 + ^ x22: .cfa -32 + ^ x23: .cfa -40 + ^ x24: .cfa -48 + ^ x25: .cfa -56 + ^ x28: .cfa -64 + ^ .ra: .cfa -72 + ^ x29: .cfa -80 + ^
STACK CFI 7f570 .cfa: sp 80 +
STACK CFI 7f584 .cfa: sp 0 +
STACK CFI 7f588 .cfa: x29 80 +
STACK CFI INIT 7f748 350 .cfa: sp 0 +
STACK CFI 7f74c .cfa: sp 176 +
STACK CFI 7f76c .cfa: x29 96 + x19: .cfa -8 + ^ x20: .cfa -16 + ^ x21: .cfa -24 + ^ x22: .cfa -32 + ^ x23: .cfa -40 + ^ x24: .cfa -48 + ^ x25: .cfa -56 + ^ x26: .cfa -64 + ^ x27: .cfa -72 + ^ x28: .cfa -80 + ^ .ra: .cfa -88 + ^ x29: .cfa -96 + ^ v8: .cfa -112 + ^
STACK CFI 7f9e0 .cfa: sp 176 +
STACK CFI 7fa00 .cfa: sp 0 +
STACK CFI 7fa04 .cfa: x29 96 +
STACK CFI INIT 7fa98 184 .cfa: sp 0 +
STACK CFI 7fa9c .cfa: sp 96 +
STACK CFI 7faac .cfa: x29 48 + x19: .cfa -8 + ^ x20: .cfa -16 + ^ x21: .cfa -24 + ^ x22: .cfa -32 + ^ .ra: .cfa -40 + ^ x29: .cfa -48 + ^
STACK CFI 7fb84 .cfa: sp 96 +
STACK CFI 7fb94 .cfa: sp 0 +
STACK CFI 7fb98 .cfa: x29 48 +
STACK CFI INIT 7fc78 268 .cfa: sp 0 +
STACK CFI 7fc7c .cfa: sp 176 +
STACK CFI 7fc90 .cfa: x29 64 + x19: .cfa -8 + ^ x20: .cfa -16 + ^ x21: .cfa -24 + ^ x22: .cfa -32 + ^ x23: .cfa -48 + ^ .ra: .cfa -56 + ^ x29: .cfa -64 + ^
STACK CFI 7fe5c .cfa: sp 176 +
STACK CFI 7fe70 .cfa: sp 0 +
STACK CFI 7fe74 .cfa: x29 64 +
STACK CFI INIT 7ff08 248 .cfa: sp 0 +
STACK CFI 7ff0c .cfa: sp 224 +
STACK CFI 7ff1c .cfa: x29 48 + x19: .cfa -8 + ^ x20: .cfa -16 + ^ x21: .cfa -24 + ^ x22: .cfa -32 + ^ .ra: .cfa -40 + ^ x29: .cfa -48 + ^
STACK CFI 800b0 .cfa: sp 224 +
STACK CFI 800c0 .cfa: sp 0 +
STACK CFI 800c4 .cfa: x29 48 +
STACK CFI INIT 80150 1d8 .cfa: sp 0 +
STACK CFI 80154 .cfa: sp 112 +
STACK CFI 80168 .cfa: x29 64 + x19: .cfa -8 + ^ x20: .cfa -16 + ^ x21: .cfa -24 + ^ x22: .cfa -32 + ^ x23: .cfa -40 + ^ x24: .cfa -48 + ^ .ra: .cfa -56 + ^ x29: .cfa -64 + ^
STACK CFI 80290 .cfa: sp 112 +
STACK CFI 802a4 .cfa: sp 0 +
STACK CFI 802a8 .cfa: x29 64 +
STACK CFI INIT 80328 1d4 .cfa: sp 0 +
STACK CFI 8032c .cfa: sp 112 +
STACK CFI 80340 .cfa: x29 64 + x19: .cfa -8 + ^ x20: .cfa -16 + ^ x21: .cfa -24 + ^ x22: .cfa -32 + ^ x23: .cfa -48 + ^ .ra: .cfa -56 + ^ x29: .cfa -64 + ^
STACK CFI 80460 .cfa: sp 112 +
STACK CFI 80474 .cfa: sp 0 +
STACK CFI 80478 .cfa: x29 64 +
STACK CFI INIT 80584 1b4 .cfa: sp 0 +
STACK CFI 80588 .cfa: sp 32 +
STACK CFI 80590 .cfa: x29 32 + x19: .cfa -16 + ^ .ra: .cfa -24 + ^ x29: .cfa -32 + ^
STACK CFI 80724 .cfa: sp 32 +
STACK CFI 8072c .cfa: sp 0 +
STACK CFI 80730 .cfa: x29 32 +
STACK CFI INIT 8075c ac8 .cfa: sp 0 +
STACK CFI 80760 .cfa: sp 96 +
STACK CFI 80778 .cfa: x29 96 + x19: .cfa -8 + ^ x20: .cfa -16 + ^ x21: .cfa -24 + ^ x22: .cfa -32 + ^ x23: .cfa -40 + ^ x24: .cfa -48 + ^ x25: .cfa -56 + ^ x26: .cfa -64 + ^ x27: .cfa -72 + ^ x28: .cfa -80 + ^ .ra: .cfa -88 + ^ x29: .cfa -96 + ^
STACK CFI 80fc8 .cfa: sp 96 +
STACK CFI 80fe0 .cfa: sp 0 +
STACK CFI 80fe4 .cfa: x29 96 +
STACK CFI INIT 812c8 140 .cfa: sp 0 +
STACK CFI 812cc .cfa: sp 80 +
STACK CFI 812dc .cfa: x29 48 + x19: .cfa -8 + ^ x20: .cfa -16 + ^ x21: .cfa -24 + ^ x22: .cfa -32 + ^ .ra: .cfa -40 + ^ x29: .cfa -48 + ^
STACK CFI 813ac .cfa: sp 80 +
STACK CFI 813bc .cfa: sp 0 +
STACK CFI 813c0 .cfa: x29 48 +
STACK CFI INIT 81408 ec .cfa: sp 0 +
STACK CFI 8140c .cfa: sp 80 +
STACK CFI 81418 .cfa: x29 32 + x19: .cfa -16 + ^ .ra: .cfa -24 + ^ x29: .cfa -32 + ^
STACK CFI 81444 .cfa: sp 80 +
STACK CFI 81450 .cfa: sp 0 +
STACK CFI 81454 .cfa: x29 32 +
STACK CFI INIT 8162c 38c .cfa: sp 0 +
STACK CFI 81630 .cfa: sp 224 +
STACK CFI 81644 .cfa: x29 64 + x19: .cfa -8 + ^ x20: .cfa -16 + ^ x21: .cfa -24 + ^ x22: .cfa -32 + ^ x23: .cfa -48 + ^ .ra: .cfa -56 + ^ x29: .cfa -64 + ^
STACK CFI 818ac .cfa: sp 224 +
STACK CFI 818c0 .cfa: sp 0 +
STACK CFI 818c4 .cfa: x29 64 +
STACK CFI INIT 819bc 1d8 .cfa: sp 0 +
STACK CFI 819c0 .cfa: sp 80 +
STACK CFI 819d0 .cfa: x29 48 + x19: .cfa -8 + ^ x20: .cfa -16 + ^ x21: .cfa -32 + ^ .ra: .cfa -40 + ^ x29: .cfa -48 + ^
STACK CFI 81b3c .cfa: sp 80 +
STACK CFI 81b4c .cfa: sp 0 +
STACK CFI 81b50 .cfa: x29 48 +
STACK CFI INIT 81b94 f8 .cfa: sp 0 +
STACK CFI 81b98 .cfa: sp 32 +
STACK CFI 81ba0 .cfa: x29 32 + x19: .cfa -8 + ^ x20: .cfa -16 + ^ .ra: .cfa -24 + ^ x29: .cfa -32 + ^
STACK CFI 81bd8 .cfa: sp 32 +
STACK CFI 81be0 .cfa: sp 0 +
STACK CFI 81be4 .cfa: x29 32 +
STACK CFI 81be8 .cfa: sp 32 +
STACK CFI 81bf0 .cfa: sp 0 +
STACK CFI 81bf4 .cfa: x29 32 +
STACK CFI INIT 81c8c 878 .cfa: sp 0 +
STACK CFI 81c90 .cfa: sp 96 +
STACK CFI 81ca8 .cfa: x29 96 + x19: .cfa -8 + ^ x20: .cfa -16 + ^ x21: .cfa -24 + ^ x22: .cfa -32 + ^ x23: .cfa -40 + ^ x24: .cfa -48 + ^ x25: .cfa -56 + ^ x26: .cfa -64 + ^ x27: .cfa -72 + ^ x28: .cfa -80 + ^ .ra: .cfa -88 + ^ x29: .cfa -96 + ^
STACK CFI 823f4 .cfa: sp 96 +
STACK CFI 8240c .cfa: sp 0 +
STACK CFI 82410 .cfa: x29 96 +
STACK CFI INIT 82504 f4 .cfa: sp 0 +
STACK CFI 82508 .cfa: sp 32 +
STACK CFI 82510 .cfa: x29 32 + x19: .cfa -16 + ^ .ra: .cfa -24 + ^ x29: .cfa -32 + ^
STACK CFI 825e8 .cfa: sp 32 +
STACK CFI 825f0 .cfa: sp 0 +
STACK CFI 825f4 .cfa: x29 32 +
STACK CFI INIT 825f8 fc .cfa: sp 0 +
STACK CFI 825fc .cfa: sp 32 +
STACK CFI 82604 .cfa: x29 32 + x19: .cfa -16 + ^ .ra: .cfa -24 + ^ x29: .cfa -32 + ^
STACK CFI 826e4 .cfa: sp 32 +
STACK CFI 826ec .cfa: sp 0 +
STACK CFI 826f0 .cfa: x29 32 +
STACK CFI INIT 826f4 c4 .cfa: sp 0 +
STACK CFI 826f8 .cfa: sp 48 +
STACK CFI 82704 .cfa: x29 32 + x19: .cfa -8 + ^ x20: .cfa -16 + ^ .ra: .cfa -24 + ^ x29: .cfa -32 + ^
STACK CFI 8276c .cfa: sp 48 +
STACK CFI 82778 .cfa: sp 0 +
STACK CFI 8277c .cfa: x29 32 +
STACK CFI INIT 827b8 f4 .cfa: sp 0 +
STACK CFI 827bc .cfa: sp 32 +
STACK CFI 827c4 .cfa: x29 32 + x19: .cfa -8 + ^ x20: .cfa -16 + ^ .ra: .cfa -24 + ^ x29: .cfa -32 + ^
STACK CFI 8289c .cfa: sp 32 +
STACK CFI 828a4 .cfa: sp 0 +
STACK CFI 828a8 .cfa: x29 32 +
STACK CFI INIT 828ac fc .cfa: sp 0 +
STACK CFI 828b0 .cfa: sp 32 +
STACK CFI 828b8 .cfa: x29 32 + x19: .cfa -8 + ^ x20: .cfa -16 + ^ .ra: .cfa -24 + ^ x29: .cfa -32 + ^
STACK CFI 82998 .cfa: sp 32 +
STACK CFI 829a0 .cfa: sp 0 +
STACK CFI 829a4 .cfa: x29 32 +
STACK CFI INIT 829a8 c8 .cfa: sp 0 +
STACK CFI 829ac .cfa: sp 48 +
STACK CFI 829b8 .cfa: x29 32 + x19: .cfa -8 + ^ x20: .cfa -16 + ^ .ra: .cfa -24 + ^ x29: .cfa -32 + ^
STACK CFI 82a24 .cfa: sp 48 +
STACK CFI 82a30 .cfa: sp 0 +
STACK CFI 82a34 .cfa: x29 32 +
STACK CFI INIT 82adc 3e4 .cfa: sp 0 +
STACK CFI 82ae0 .cfa: sp 112 +
STACK CFI 82af0 .cfa: x29 48 + x19: .cfa -8 + ^ x20: .cfa -16 + ^ x21: .cfa -32 + ^ .ra: .cfa -40 + ^ x29: .cfa -48 + ^
STACK CFI 82e6c .cfa: sp 112 +
STACK CFI 82e7c .cfa: sp 0 +
STACK CFI 82e80 .cfa: x29 48 +
STACK CFI INIT 82ec0 588 .cfa: sp 0 +
STACK CFI 82ec4 .cfa: sp 96 +
STACK CFI 82edc .cfa: x29 96 + x19: .cfa -8 + ^ x20: .cfa -16 + ^ x21: .cfa -24 + ^ x22: .cfa -32 + ^ x23: .cfa -40 + ^ x24: .cfa -48 + ^ x25: .cfa -56 + ^ x26: .cfa -64 + ^ x27: .cfa -72 + ^ x28: .cfa -80 + ^ .ra: .cfa -88 + ^ x29: .cfa -96 + ^
STACK CFI 832f4 .cfa: sp 96 +
STACK CFI 8330c .cfa: sp 0 +
STACK CFI 83310 .cfa: x29 96 +
STACK CFI INIT 83448 1b0 .cfa: sp 0 +
STACK CFI 8344c .cfa: sp 160 +
STACK CFI 8345c .cfa: x29 48 + x19: .cfa -8 + ^ x20: .cfa -16 + ^ x21: .cfa -24 + ^ x22: .cfa -32 + ^ .ra: .cfa -40 + ^ x29: .cfa -48 + ^
STACK CFI 83580 .cfa: sp 160 +
STACK CFI 83590 .cfa: sp 0 +
STACK CFI 83594 .cfa: x29 48 +
STACK CFI INIT 835fc 15a0 .cfa: sp 0 +
STACK CFI 83600 .cfa: sp 96 +
STACK CFI 83618 .cfa: x29 96 + x19: .cfa -8 + ^ x20: .cfa -16 + ^ x21: .cfa -24 + ^ x22: .cfa -32 + ^ x23: .cfa -40 + ^ x24: .cfa -48 + ^ x25: .cfa -56 + ^ x26: .cfa -64 + ^ x27: .cfa -72 + ^ x28: .cfa -80 + ^ .ra: .cfa -88 + ^ x29: .cfa -96 + ^
STACK CFI 84628 .cfa: sp 96 +
STACK CFI 84640 .cfa: sp 0 +
STACK CFI 84644 .cfa: x29 96 +
STACK CFI INIT 84bc0 7c .cfa: sp 0 +
STACK CFI 84bc4 .cfa: sp 32 +
STACK CFI 84bcc .cfa: x29 32 + x19: .cfa -16 + ^ .ra: .cfa -24 + ^ x29: .cfa -32 + ^
STACK CFI 84c2c .cfa: sp 32 +
STACK CFI 84c34 .cfa: sp 0 +
STACK CFI 84c38 .cfa: x29 32 +
STACK CFI INIT 84c90 74 .cfa: sp 0 +
STACK CFI 84c94 .cfa: sp 32 +
STACK CFI 84c9c .cfa: x29 32 + x19: .cfa -16 + ^ .ra: .cfa -24 + ^ x29: .cfa -32 + ^
STACK CFI 84cf4 .cfa: sp 32 +
STACK CFI 84cfc .cfa: sp 0 +
STACK CFI 84d00 .cfa: x29 32 +
STACK CFI INIT 84d04 7c .cfa: sp 0 +
STACK CFI 84d08 .cfa: sp 32 +
STACK CFI 84d10 .cfa: x29 32 + x19: .cfa -16 + ^ .ra: .cfa -24 + ^ x29: .cfa -32 + ^
STACK CFI 84d70 .cfa: sp 32 +
STACK CFI 84d78 .cfa: sp 0 +
STACK CFI 84d7c .cfa: x29 32 +
STACK CFI INIT 84dd4 f38 .cfa: sp 0 +
STACK CFI 84dd8 .cfa: sp 336 +
STACK CFI 84df4 .cfa: x29 96 + x19: .cfa -8 + ^ x20: .cfa -16 + ^ x21: .cfa -24 + ^ x22: .cfa -32 + ^ x23: .cfa -40 + ^ x24: .cfa -48 + ^ x25: .cfa -56 + ^ x26: .cfa -64 + ^ x27: .cfa -72 + ^ x28: .cfa -80 + ^ .ra: .cfa -88 + ^ x29: .cfa -96 + ^
STACK CFI 85a38 .cfa: sp 336 +
STACK CFI 85a54 .cfa: sp 0 +
STACK CFI 85a58 .cfa: x29 96 +
STACK CFI INIT 85db8 5a8 .cfa: sp 0 +
STACK CFI 85dbc .cfa: sp 256 +
STACK CFI 85dd8 .cfa: x29 96 + x19: .cfa -8 + ^ x20: .cfa -16 + ^ x21: .cfa -24 + ^ x22: .cfa -32 + ^ x23: .cfa -40 + ^ x24: .cfa -48 + ^ x25: .cfa -56 + ^ x26: .cfa -64 + ^ x27: .cfa -72 + ^ x28: .cfa -80 + ^ .ra: .cfa -88 + ^ x29: .cfa -96 + ^
STACK CFI 860f0 .cfa: sp 256 +
STACK CFI 8610c .cfa: sp 0 +
STACK CFI 86110 .cfa: x29 96 +
STACK CFI 861ec .cfa: sp 256 +
STACK CFI 86208 .cfa: sp 0 +
STACK CFI 8620c .cfa: x29 96 +
STACK CFI INIT 8637c 5a8 .cfa: sp 0 +
STACK CFI 86380 .cfa: sp 256 +
STACK CFI 8639c .cfa: x29 96 + x19: .cfa -8 + ^ x20: .cfa -16 + ^ x21: .cfa -24 + ^ x22: .cfa -32 + ^ x23: .cfa -40 + ^ x24: .cfa -48 + ^ x25: .cfa -56 + ^ x26: .cfa -64 + ^ x27: .cfa -72 + ^ x28: .cfa -80 + ^ .ra: .cfa -88 + ^ x29: .cfa -96 + ^
STACK CFI 866b4 .cfa: sp 256 +
STACK CFI 866d0 .cfa: sp 0 +
STACK CFI 866d4 .cfa: x29 96 +
STACK CFI 867b0 .cfa: sp 256 +
STACK CFI 867cc .cfa: sp 0 +
STACK CFI 867d0 .cfa: x29 96 +
STACK CFI INIT 86940 5a8 .cfa: sp 0 +
STACK CFI 86944 .cfa: sp 256 +
STACK CFI 86960 .cfa: x29 96 + x19: .cfa -8 + ^ x20: .cfa -16 + ^ x21: .cfa -24 + ^ x22: .cfa -32 + ^ x23: .cfa -40 + ^ x24: .cfa -48 + ^ x25: .cfa -56 + ^ x26: .cfa -64 + ^ x27: .cfa -72 + ^ x28: .cfa -80 + ^ .ra: .cfa -88 + ^ x29: .cfa -96 + ^
STACK CFI 86c78 .cfa: sp 256 +
STACK CFI 86c94 .cfa: sp 0 +
STACK CFI 86c98 .cfa: x29 96 +
STACK CFI 86d74 .cfa: sp 256 +
STACK CFI 86d90 .cfa: sp 0 +
STACK CFI 86d94 .cfa: x29 96 +
STACK CFI INIT 86f04 6b4 .cfa: sp 0 +
STACK CFI 86f08 .cfa: sp 256 +
STACK CFI 86f20 .cfa: x29 80 + x19: .cfa -8 + ^ x20: .cfa -16 + ^ x21: .cfa -24 + ^ x22: .cfa -32 + ^ x23: .cfa -40 + ^ x24: .cfa -48 + ^ x25: .cfa -56 + ^ x26: .cfa -64 + ^ .ra: .cfa -72 + ^ x29: .cfa -80 + ^
STACK CFI 873f4 .cfa: sp 256 +
STACK CFI 8740c .cfa: sp 0 +
STACK CFI 87410 .cfa: x29 80 +
STACK CFI INIT 875bc 34c .cfa: sp 0 +
STACK CFI 875c0 .cfa: sp 128 +
STACK CFI 875d8 .cfa: x29 56 + x19: .cfa -8 + ^ x20: .cfa -16 + ^ x21: .cfa -24 + ^ x22: .cfa -32 + ^ x23: .cfa -40 + ^ .ra: .cfa -48 + ^ x29: .cfa -56 + ^ v8: .cfa -64 + ^
STACK CFI 8788c .cfa: sp 128 +
STACK CFI 878a4 .cfa: sp 0 +
STACK CFI 878a8 .cfa: x29 56 +
STACK CFI INIT 87908 f4 .cfa: sp 0 +
STACK CFI 8790c .cfa: sp 80 +
STACK CFI 8791c .cfa: x29 48 + x19: .cfa -8 + ^ x20: .cfa -16 + ^ x21: .cfa -32 + ^ .ra: .cfa -40 + ^ x29: .cfa -48 + ^
STACK CFI 879a8 .cfa: sp 80 +
STACK CFI 879b8 .cfa: sp 0 +
STACK CFI 879bc .cfa: x29 48 +
STACK CFI INIT 879fc 1d4 .cfa: sp 0 +
STACK CFI 87a00 .cfa: sp 112 +
STACK CFI 87a14 .cfa: x29 64 + x19: .cfa -8 + ^ x20: .cfa -16 + ^ x21: .cfa -24 + ^ x22: .cfa -32 + ^ x23: .cfa -40 + ^ x24: .cfa -48 + ^ .ra: .cfa -56 + ^ x29: .cfa -64 + ^
STACK CFI 87b38 .cfa: sp 112 +
STACK CFI 87b4c .cfa: sp 0 +
STACK CFI 87b50 .cfa: x29 64 +
STACK CFI INIT 87c00 3ac .cfa: sp 0 +
STACK CFI 87c04 .cfa: sp 192 +
STACK CFI 87c18 .cfa: x29 64 + x19: .cfa -8 + ^ x20: .cfa -16 + ^ x21: .cfa -24 + ^ x22: .cfa -32 + ^ x23: .cfa -40 + ^ x24: .cfa -48 + ^ .ra: .cfa -56 + ^ x29: .cfa -64 + ^
STACK CFI 87e8c .cfa: sp 192 +
STACK CFI 87ea0 .cfa: sp 0 +
STACK CFI 87ea4 .cfa: x29 64 +
STACK CFI INIT 87fb0 12c .cfa: sp 0 +
STACK CFI 87fb4 .cfa: sp 96 +
STACK CFI 87fc8 .cfa: x29 64 + x19: .cfa -8 + ^ x20: .cfa -16 + ^ x21: .cfa -24 + ^ x22: .cfa -32 + ^ x23: .cfa -48 + ^ .ra: .cfa -56 + ^ x29: .cfa -64 + ^
STACK CFI 88084 .cfa: sp 96 +
STACK CFI 88098 .cfa: sp 0 +
STACK CFI 8809c .cfa: x29 64 +
STACK CFI INIT 880dc 1b0 .cfa: sp 0 +
STACK CFI 880e0 .cfa: sp 80 +
STACK CFI 880f0 .cfa: x29 48 + x19: .cfa -8 + ^ x20: .cfa -16 + ^ x21: .cfa -24 + ^ x22: .cfa -32 + ^ .ra: .cfa -40 + ^ x29: .cfa -48 + ^
STACK CFI 88234 .cfa: sp 80 +
STACK CFI 88244 .cfa: sp 0 +
STACK CFI 88248 .cfa: x29 48 +
STACK CFI INIT 8828c 188 .cfa: sp 0 +
STACK CFI 88290 .cfa: sp 64 +
STACK CFI 882a0 .cfa: x29 64 + x19: .cfa -8 + ^ x20: .cfa -16 + ^ x21: .cfa -24 + ^ x22: .cfa -32 + ^ x23: .cfa -48 + ^ .ra: .cfa -56 + ^ x29: .cfa -64 + ^
STACK CFI 882e8 .cfa: sp 64 +
STACK CFI 882f8 .cfa: sp 0 +
STACK CFI 882fc .cfa: x29 64 +
STACK CFI 883a0 .cfa: sp 64 +
STACK CFI 883b0 .cfa: sp 0 +
STACK CFI 883b4 .cfa: x29 64 +
STACK CFI INIT 88414 260 .cfa: sp 0 +
STACK CFI 88418 .cfa: sp 112 +
STACK CFI 88434 .cfa: x29 96 + x19: .cfa -8 + ^ x20: .cfa -16 + ^ x21: .cfa -24 + ^ x22: .cfa -32 + ^ x23: .cfa -40 + ^ x24: .cfa -48 + ^ x25: .cfa -56 + ^ x26: .cfa -64 + ^ x27: .cfa -72 + ^ x28: .cfa -80 + ^ .ra: .cfa -88 + ^ x29: .cfa -96 + ^
STACK CFI 8846c .cfa: sp 112 +
STACK CFI 88488 .cfa: sp 0 +
STACK CFI 8848c .cfa: x29 96 +
STACK CFI INIT 8872c 22c .cfa: sp 0 +
STACK CFI 88730 .cfa: sp 128 +
STACK CFI 88748 .cfa: x29 80 + x19: .cfa -8 + ^ x20: .cfa -16 + ^ x21: .cfa -24 + ^ x22: .cfa -32 + ^ x23: .cfa -40 + ^ x24: .cfa -48 + ^ x25: .cfa -64 + ^ .ra: .cfa -72 + ^ x29: .cfa -80 + ^
STACK CFI 8885c .cfa: sp 128 +
STACK CFI 88874 .cfa: sp 0 +
STACK CFI 88878 .cfa: x29 80 +
STACK CFI 888a8 .cfa: sp 128 +
STACK CFI 888c0 .cfa: sp 0 +
STACK CFI 888c4 .cfa: x29 80 +
STACK CFI INIT 88a3c 374 .cfa: sp 0 +
STACK CFI 88a40 .cfa: sp 192 +
STACK CFI 88a54 .cfa: x29 64 + x19: .cfa -8 + ^ x20: .cfa -16 + ^ x21: .cfa -24 + ^ x22: .cfa -32 + ^ x23: .cfa -48 + ^ .ra: .cfa -56 + ^ x29: .cfa -64 + ^
STACK CFI 88ca4 .cfa: sp 192 +
STACK CFI 88cb8 .cfa: sp 0 +
STACK CFI 88cbc .cfa: x29 64 +
STACK CFI INIT 88db4 10bc .cfa: sp 0 +
STACK CFI 88db8 .cfa: sp 96 +
STACK CFI 88dd0 .cfa: x29 96 + x19: .cfa -8 + ^ x20: .cfa -16 + ^ x21: .cfa -24 + ^ x22: .cfa -32 + ^ x23: .cfa -40 + ^ x24: .cfa -48 + ^ x25: .cfa -56 + ^ x26: .cfa -64 + ^ x27: .cfa -72 + ^ x28: .cfa -80 + ^ .ra: .cfa -88 + ^ x29: .cfa -96 + ^
STACK CFI 89b40 .cfa: sp 96 +
STACK CFI 89b58 .cfa: sp 0 +
STACK CFI 89b5c .cfa: x29 96 +
STACK CFI INIT 89e70 1d4 .cfa: sp 0 +
STACK CFI 89e74 .cfa: sp 112 +
STACK CFI 89e88 .cfa: x29 64 + x19: .cfa -8 + ^ x20: .cfa -16 + ^ x21: .cfa -24 + ^ x22: .cfa -32 + ^ x23: .cfa -48 + ^ .ra: .cfa -56 + ^ x29: .cfa -64 + ^
STACK CFI 89fa8 .cfa: sp 112 +
STACK CFI 89fbc .cfa: sp 0 +
STACK CFI 89fc0 .cfa: x29 64 +
STACK CFI INIT 8a044 484 .cfa: sp 0 +
STACK CFI 8a048 .cfa: sp 192 +
STACK CFI 8a05c .cfa: x29 64 + x19: .cfa -8 + ^ x20: .cfa -16 + ^ x21: .cfa -24 + ^ x22: .cfa -32 + ^ x23: .cfa -48 + ^ .ra: .cfa -56 + ^ x29: .cfa -64 + ^
STACK CFI 8a410 .cfa: sp 192 +
STACK CFI 8a424 .cfa: sp 0 +
STACK CFI 8a428 .cfa: x29 64 +
STACK CFI INIT 8a4c8 178 .cfa: sp 0 +
STACK CFI 8a4cc .cfa: sp 80 +
STACK CFI 8a4dc .cfa: x29 48 + x19: .cfa -8 + ^ x20: .cfa -16 + ^ x21: .cfa -32 + ^ .ra: .cfa -40 + ^ x29: .cfa -48 + ^
STACK CFI 8a5ec .cfa: sp 80 +
STACK CFI 8a5fc .cfa: sp 0 +
STACK CFI 8a600 .cfa: x29 48 +
STACK CFI INIT 8a640 204 .cfa: sp 0 +
STACK CFI 8a644 .cfa: sp 112 +
STACK CFI 8a654 .cfa: x29 48 + x19: .cfa -8 + ^ x20: .cfa -16 + ^ x21: .cfa -24 + ^ x22: .cfa -32 + ^ .ra: .cfa -40 + ^ x29: .cfa -48 + ^
STACK CFI 8a7fc .cfa: sp 112 +
STACK CFI 8a80c .cfa: sp 0 +
STACK CFI 8a810 .cfa: x29 48 +
STACK CFI INIT 8a844 254 .cfa: sp 0 +
STACK CFI 8a848 .cfa: sp 112 +
STACK CFI 8a858 .cfa: x29 48 + x19: .cfa -8 + ^ x20: .cfa -16 + ^ x21: .cfa -24 + ^ x22: .cfa -32 + ^ .ra: .cfa -40 + ^ x29: .cfa -48 + ^
STACK CFI 8aa4c .cfa: sp 112 +
STACK CFI 8aa5c .cfa: sp 0 +
STACK CFI 8aa60 .cfa: x29 48 +
STACK CFI INIT 8abfc 604 .cfa: sp 0 +
STACK CFI 8ac00 .cfa: sp 192 +
STACK CFI 8ac24 .cfa: x29 96 + x19: .cfa -8 + ^ x20: .cfa -16 + ^ x21: .cfa -24 + ^ x22: .cfa -32 + ^ x23: .cfa -40 + ^ x24: .cfa -48 + ^ x25: .cfa -56 + ^ x26: .cfa -64 + ^ x27: .cfa -72 + ^ x28: .cfa -80 + ^ .ra: .cfa -88 + ^ x29: .cfa -96 + ^ v8: .cfa -104 + ^ v9: .cfa -112 + ^ v10: .cfa -120 + ^ v11: .cfa -128 + ^
STACK CFI 8b018 .cfa: sp 192 +
STACK CFI 8b03c .cfa: sp 0 +
STACK CFI 8b040 .cfa: x29 96 +
STACK CFI INIT 8b200 1c .cfa: sp 0 +
STACK CFI 8b204 .cfa: sp 16 +
STACK CFI 8b208 .cfa: x29 16 + .ra: .cfa -8 + ^ x29: .cfa -16 + ^
STACK CFI 8b210 .cfa: sp 16 +
STACK CFI 8b214 .cfa: sp 0 +
STACK CFI 8b218 .cfa: x29 16 +
STACK CFI INIT 8b21c 1c .cfa: sp 0 +
STACK CFI 8b220 .cfa: sp 16 +
STACK CFI 8b224 .cfa: x29 16 + .ra: .cfa -8 + ^ x29: .cfa -16 + ^
STACK CFI 8b22c .cfa: sp 16 +
STACK CFI 8b230 .cfa: sp 0 +
STACK CFI 8b234 .cfa: x29 16 +
STACK CFI INIT 8b3f8 450 .cfa: sp 0 +
STACK CFI 8b3fc .cfa: sp 176 +
STACK CFI 8b418 .cfa: x29 96 + x19: .cfa -8 + ^ x20: .cfa -16 + ^ x21: .cfa -24 + ^ x22: .cfa -32 + ^ x23: .cfa -40 + ^ x24: .cfa -48 + ^ x25: .cfa -56 + ^ x26: .cfa -64 + ^ x27: .cfa -72 + ^ x28: .cfa -80 + ^ .ra: .cfa -88 + ^ x29: .cfa -96 + ^
STACK CFI 8b770 .cfa: sp 176 +
STACK CFI 8b78c .cfa: sp 0 +
STACK CFI 8b790 .cfa: x29 96 +
STACK CFI INIT 8b9b8 108 .cfa: sp 0 +
STACK CFI 8b9bc .cfa: sp 96 +
STACK CFI 8b9cc .cfa: x29 48 + x19: .cfa -8 + ^ x20: .cfa -16 + ^ x21: .cfa -32 + ^ .ra: .cfa -40 + ^ x29: .cfa -48 + ^
STACK CFI 8ba64 .cfa: sp 96 +
STACK CFI 8ba74 .cfa: sp 0 +
STACK CFI 8ba78 .cfa: x29 48 +
STACK CFI INIT 8bafc 574 .cfa: sp 0 +
STACK CFI 8bb00 .cfa: sp 256 +
STACK CFI 8bb1c .cfa: x29 96 + x19: .cfa -8 + ^ x20: .cfa -16 + ^ x21: .cfa -24 + ^ x22: .cfa -32 + ^ x23: .cfa -40 + ^ x24: .cfa -48 + ^ x25: .cfa -56 + ^ x26: .cfa -64 + ^ x27: .cfa -72 + ^ x28: .cfa -80 + ^ .ra: .cfa -88 + ^ x29: .cfa -96 + ^
STACK CFI 8befc .cfa: sp 256 +
STACK CFI 8bf18 .cfa: sp 0 +
STACK CFI 8bf1c .cfa: x29 96 +
STACK CFI INIT 8c600 5a8 .cfa: sp 0 +
STACK CFI 8c604 .cfa: sp 256 +
STACK CFI 8c620 .cfa: x29 96 + x19: .cfa -8 + ^ x20: .cfa -16 + ^ x21: .cfa -24 + ^ x22: .cfa -32 + ^ x23: .cfa -40 + ^ x24: .cfa -48 + ^ x25: .cfa -56 + ^ x26: .cfa -64 + ^ x27: .cfa -72 + ^ x28: .cfa -80 + ^ .ra: .cfa -88 + ^ x29: .cfa -96 + ^
STACK CFI 8c938 .cfa: sp 256 +
STACK CFI 8c954 .cfa: sp 0 +
STACK CFI 8c958 .cfa: x29 96 +
STACK CFI 8ca34 .cfa: sp 256 +
STACK CFI 8ca50 .cfa: sp 0 +
STACK CFI 8ca54 .cfa: x29 96 +
STACK CFI INIT 8c070 574 .cfa: sp 0 +
STACK CFI 8c074 .cfa: sp 256 +
STACK CFI 8c090 .cfa: x29 96 + x19: .cfa -8 + ^ x20: .cfa -16 + ^ x21: .cfa -24 + ^ x22: .cfa -32 + ^ x23: .cfa -40 + ^ x24: .cfa -48 + ^ x25: .cfa -56 + ^ x26: .cfa -64 + ^ x27: .cfa -72 + ^ x28: .cfa -80 + ^ .ra: .cfa -88 + ^ x29: .cfa -96 + ^
STACK CFI 8c470 .cfa: sp 256 +
STACK CFI 8c48c .cfa: sp 0 +
STACK CFI 8c490 .cfa: x29 96 +
STACK CFI INIT 8cbe0 6e4 .cfa: sp 0 +
STACK CFI 8cbe4 .cfa: sp 240 +
STACK CFI 8cc00 .cfa: x29 96 + x19: .cfa -8 + ^ x20: .cfa -16 + ^ x21: .cfa -24 + ^ x22: .cfa -32 + ^ x23: .cfa -40 + ^ x24: .cfa -48 + ^ x25: .cfa -56 + ^ x26: .cfa -64 + ^ x27: .cfa -72 + ^ x28: .cfa -80 + ^ .ra: .cfa -88 + ^ x29: .cfa -96 + ^
STACK CFI 8d0f0 .cfa: sp 240 +
STACK CFI 8d10c .cfa: sp 0 +
STACK CFI 8d110 .cfa: x29 96 +
STACK CFI INIT 8d2fc cc .cfa: sp 0 +
STACK CFI 8d300 .cfa: sp 64 +
STACK CFI 8d310 .cfa: x29 48 + x19: .cfa -8 + ^ x20: .cfa -16 + ^ x21: .cfa -32 + ^ .ra: .cfa -40 + ^ x29: .cfa -48 + ^
STACK CFI 8d38c .cfa: sp 64 +
STACK CFI 8d39c .cfa: sp 0 +
STACK CFI 8d3a0 .cfa: x29 48 +
STACK CFI INIT 8d3c8 3dc .cfa: sp 0 +
STACK CFI 8d3cc .cfa: sp 240 +
STACK CFI 8d3e0 .cfa: x29 64 + x19: .cfa -8 + ^ x20: .cfa -16 + ^ x21: .cfa -24 + ^ x22: .cfa -32 + ^ x23: .cfa -48 + ^ .ra: .cfa -56 + ^ x29: .cfa -64 + ^
STACK CFI 8d67c .cfa: sp 240 +
STACK CFI 8d690 .cfa: sp 0 +
STACK CFI 8d694 .cfa: x29 64 +
STACK CFI INIT 8d7a8 750 .cfa: sp 0 +
STACK CFI 8d7ac .cfa: sp 96 +
STACK CFI 8d7c4 .cfa: x29 96 + x19: .cfa -8 + ^ x20: .cfa -16 + ^ x21: .cfa -24 + ^ x22: .cfa -32 + ^ x23: .cfa -40 + ^ x24: .cfa -48 + ^ x25: .cfa -56 + ^ x26: .cfa -64 + ^ x27: .cfa -72 + ^ x28: .cfa -80 + ^ .ra: .cfa -88 + ^ x29: .cfa -96 + ^
STACK CFI 8dd10 .cfa: sp 96 +
STACK CFI 8dd28 .cfa: sp 0 +
STACK CFI 8dd2c .cfa: x29 96 +
STACK CFI INIT 8def8 3c4 .cfa: sp 0 +
STACK CFI 8defc .cfa: sp 192 +
STACK CFI 8df10 .cfa: x29 64 + x19: .cfa -8 + ^ x20: .cfa -16 + ^ x21: .cfa -24 + ^ x22: .cfa -32 + ^ x23: .cfa -48 + ^ .ra: .cfa -56 + ^ x29: .cfa -64 + ^
STACK CFI 8e198 .cfa: sp 192 +
STACK CFI 8e1ac .cfa: sp 0 +
STACK CFI 8e1b0 .cfa: x29 64 +
STACK CFI INIT 8e2c0 6a0 .cfa: sp 0 +
STACK CFI 8e2c4 .cfa: sp 80 +
STACK CFI 8e2d8 .cfa: x29 80 + x19: .cfa -8 + ^ x20: .cfa -16 + ^ x21: .cfa -24 + ^ x22: .cfa -32 + ^ x23: .cfa -40 + ^ x24: .cfa -48 + ^ x25: .cfa -56 + ^ x28: .cfa -64 + ^ .ra: .cfa -72 + ^ x29: .cfa -80 + ^
STACK CFI 8e7e8 .cfa: sp 80 +
STACK CFI 8e7fc .cfa: sp 0 +
STACK CFI 8e800 .cfa: x29 80 +
STACK CFI INIT 8e960 5a8 .cfa: sp 0 +
STACK CFI 8e964 .cfa: sp 256 +
STACK CFI 8e980 .cfa: x29 96 + x19: .cfa -8 + ^ x20: .cfa -16 + ^ x21: .cfa -24 + ^ x22: .cfa -32 + ^ x23: .cfa -40 + ^ x24: .cfa -48 + ^ x25: .cfa -56 + ^ x26: .cfa -64 + ^ x27: .cfa -72 + ^ x28: .cfa -80 + ^ .ra: .cfa -88 + ^ x29: .cfa -96 + ^
STACK CFI 8ec98 .cfa: sp 256 +
STACK CFI 8ecb4 .cfa: sp 0 +
STACK CFI 8ecb8 .cfa: x29 96 +
STACK CFI 8ed94 .cfa: sp 256 +
STACK CFI 8edb0 .cfa: sp 0 +
STACK CFI 8edb4 .cfa: x29 96 +
STACK CFI INIT 8ef24 574 .cfa: sp 0 +
STACK CFI 8ef28 .cfa: sp 256 +
STACK CFI 8ef44 .cfa: x29 96 + x19: .cfa -8 + ^ x20: .cfa -16 + ^ x21: .cfa -24 + ^ x22: .cfa -32 + ^ x23: .cfa -40 + ^ x24: .cfa -48 + ^ x25: .cfa -56 + ^ x26: .cfa -64 + ^ x27: .cfa -72 + ^ x28: .cfa -80 + ^ .ra: .cfa -88 + ^ x29: .cfa -96 + ^
STACK CFI 8f324 .cfa: sp 256 +
STACK CFI 8f340 .cfa: sp 0 +
STACK CFI 8f344 .cfa: x29 96 +
STACK CFI INIT 8fa28 5a8 .cfa: sp 0 +
STACK CFI 8fa2c .cfa: sp 256 +
STACK CFI 8fa48 .cfa: x29 96 + x19: .cfa -8 + ^ x20: .cfa -16 + ^ x21: .cfa -24 + ^ x22: .cfa -32 + ^ x23: .cfa -40 + ^ x24: .cfa -48 + ^ x25: .cfa -56 + ^ x26: .cfa -64 + ^ x27: .cfa -72 + ^ x28: .cfa -80 + ^ .ra: .cfa -88 + ^ x29: .cfa -96 + ^
STACK CFI 8fd60 .cfa: sp 256 +
STACK CFI 8fd7c .cfa: sp 0 +
STACK CFI 8fd80 .cfa: x29 96 +
STACK CFI 8fe5c .cfa: sp 256 +
STACK CFI 8fe78 .cfa: sp 0 +
STACK CFI 8fe7c .cfa: x29 96 +
STACK CFI INIT 8f498 574 .cfa: sp 0 +
STACK CFI 8f49c .cfa: sp 256 +
STACK CFI 8f4b8 .cfa: x29 96 + x19: .cfa -8 + ^ x20: .cfa -16 + ^ x21: .cfa -24 + ^ x22: .cfa -32 + ^ x23: .cfa -40 + ^ x24: .cfa -48 + ^ x25: .cfa -56 + ^ x26: .cfa -64 + ^ x27: .cfa -72 + ^ x28: .cfa -80 + ^ .ra: .cfa -88 + ^ x29: .cfa -96 + ^
STACK CFI 8f898 .cfa: sp 256 +
STACK CFI 8f8b4 .cfa: sp 0 +
STACK CFI 8f8b8 .cfa: x29 96 +
STACK CFI INIT 90008 460 .cfa: sp 0 +
STACK CFI 9000c .cfa: sp 240 +
STACK CFI 90020 .cfa: x29 64 + x19: .cfa -8 + ^ x20: .cfa -16 + ^ x21: .cfa -24 + ^ x22: .cfa -32 + ^ x23: .cfa -40 + ^ x24: .cfa -48 + ^ .ra: .cfa -56 + ^ x29: .cfa -64 + ^
STACK CFI 90330 .cfa: sp 240 +
STACK CFI 90344 .cfa: sp 0 +
STACK CFI 90348 .cfa: x29 64 +
STACK CFI INIT 9046c 800 .cfa: sp 0 +
STACK CFI 90470 .cfa: sp 304 +
STACK CFI 9048c .cfa: x29 96 + x19: .cfa -8 + ^ x20: .cfa -16 + ^ x21: .cfa -24 + ^ x22: .cfa -32 + ^ x23: .cfa -40 + ^ x24: .cfa -48 + ^ x25: .cfa -56 + ^ x26: .cfa -64 + ^ x27: .cfa -72 + ^ x28: .cfa -80 + ^ .ra: .cfa -88 + ^ x29: .cfa -96 + ^
STACK CFI 905d0 .cfa: sp 304 +
STACK CFI 905ec .cfa: sp 0 +
STACK CFI 905f0 .cfa: x29 96 +
STACK CFI 90b60 .cfa: sp 304 +
STACK CFI 90b7c .cfa: sp 0 +
STACK CFI 90b80 .cfa: x29 96 +
STACK CFI INIT 90d08 3e4 .cfa: sp 0 +
STACK CFI 90d0c .cfa: sp 256 +
STACK CFI 90d20 .cfa: x29 64 + x19: .cfa -8 + ^ x20: .cfa -16 + ^ x21: .cfa -24 + ^ x22: .cfa -32 + ^ x23: .cfa -48 + ^ .ra: .cfa -56 + ^ x29: .cfa -64 + ^
STACK CFI 90fc0 .cfa: sp 256 +
STACK CFI 90fd4 .cfa: sp 0 +
STACK CFI 90fd8 .cfa: x29 64 +
STACK CFI INIT 910f0 30c .cfa: sp 0 +
STACK CFI 910f4 .cfa: sp 192 +
STACK CFI 91108 .cfa: x29 64 + x19: .cfa -8 + ^ x20: .cfa -16 + ^ x21: .cfa -24 + ^ x22: .cfa -32 + ^ x23: .cfa -40 + ^ x24: .cfa -48 + ^ .ra: .cfa -56 + ^ x29: .cfa -64 + ^
STACK CFI 91324 .cfa: sp 192 +
STACK CFI 91338 .cfa: sp 0 +
STACK CFI 9133c .cfa: x29 64 +
STACK CFI INIT 913fc 368 .cfa: sp 0 +
STACK CFI 91400 .cfa: sp 192 +
STACK CFI 91414 .cfa: x29 64 + x19: .cfa -8 + ^ x20: .cfa -16 + ^ x21: .cfa -24 + ^ x22: .cfa -32 + ^ x23: .cfa -48 + ^ .ra: .cfa -56 + ^ x29: .cfa -64 + ^
STACK CFI 91660 .cfa: sp 192 +
STACK CFI 91674 .cfa: sp 0 +
STACK CFI 91678 .cfa: x29 64 +
STACK CFI INIT 917cc 12c .cfa: sp 0 +
STACK CFI 917d0 .cfa: sp 32 +
STACK CFI 917d8 .cfa: x29 32 + x19: .cfa -16 + ^ .ra: .cfa -24 + ^ x29: .cfa -32 + ^
STACK CFI 91810 .cfa: sp 32 +
STACK CFI 91818 .cfa: sp 0 +
STACK CFI 9181c .cfa: x29 32 +
STACK CFI 91820 .cfa: sp 32 +
STACK CFI 91828 .cfa: sp 0 +
STACK CFI 9182c .cfa: x29 32 +
STACK CFI INIT 918f8 b0 .cfa: sp 0 +
STACK CFI 918fc .cfa: sp 48 +
STACK CFI 91908 .cfa: x29 32 + x19: .cfa -8 + ^ x20: .cfa -16 + ^ .ra: .cfa -24 + ^ x29: .cfa -32 + ^
STACK CFI 91960 .cfa: sp 48 +
STACK CFI 9196c .cfa: sp 0 +
STACK CFI 91970 .cfa: x29 32 +
STACK CFI INIT 919ac 124 .cfa: sp 0 +
STACK CFI 919b0 .cfa: sp 80 +
STACK CFI 919c0 .cfa: x29 48 + x19: .cfa -8 + ^ x20: .cfa -16 + ^ x21: .cfa -24 + ^ x22: .cfa -32 + ^ .ra: .cfa -40 + ^ x29: .cfa -48 + ^
STACK CFI 91a8c .cfa: sp 80 +
STACK CFI 91a9c .cfa: sp 0 +
STACK CFI 91aa0 .cfa: x29 48 +
STACK CFI INIT 91af4 244 .cfa: sp 0 +
STACK CFI 91af8 .cfa: sp 128 +
STACK CFI 91b08 .cfa: x29 48 + x19: .cfa -8 + ^ x20: .cfa -16 + ^ x21: .cfa -32 + ^ .ra: .cfa -40 + ^ x29: .cfa -48 + ^
STACK CFI 91c9c .cfa: sp 128 +
STACK CFI 91cac .cfa: sp 0 +
STACK CFI 91cb0 .cfa: x29 48 +
STACK CFI INIT 91d38 398 .cfa: sp 0 +
STACK CFI 91d3c .cfa: sp 240 +
STACK CFI 91d50 .cfa: x29 64 + x19: .cfa -8 + ^ x20: .cfa -16 + ^ x21: .cfa -24 + ^ x22: .cfa -32 + ^ x23: .cfa -48 + ^ .ra: .cfa -56 + ^ x29: .cfa -64 + ^
STACK CFI 91fc0 .cfa: sp 240 +
STACK CFI 91fd4 .cfa: sp 0 +
STACK CFI 91fd8 .cfa: x29 64 +
STACK CFI INIT 920e8 138 .cfa: sp 0 +
STACK CFI 920ec .cfa: sp 32 +
STACK CFI 920f4 .cfa: x29 32 + x19: .cfa -16 + ^ .ra: .cfa -24 + ^ x29: .cfa -32 + ^
STACK CFI 9212c .cfa: sp 32 +
STACK CFI 92134 .cfa: sp 0 +
STACK CFI 92138 .cfa: x29 32 +
STACK CFI 9213c .cfa: sp 32 +
STACK CFI 92144 .cfa: sp 0 +
STACK CFI 92148 .cfa: x29 32 +
STACK CFI INIT 92220 d40 .cfa: sp 0 +
STACK CFI 92224 .cfa: sp 96 +
STACK CFI 9223c .cfa: x29 96 + x19: .cfa -8 + ^ x20: .cfa -16 + ^ x21: .cfa -24 + ^ x22: .cfa -32 + ^ x23: .cfa -40 + ^ x24: .cfa -48 + ^ x25: .cfa -56 + ^ x26: .cfa -64 + ^ x27: .cfa -72 + ^ x28: .cfa -80 + ^ .ra: .cfa -88 + ^ x29: .cfa -96 + ^
STACK CFI 92d00 .cfa: sp 96 +
STACK CFI 92d18 .cfa: sp 0 +
STACK CFI 92d1c .cfa: x29 96 +
STACK CFI INIT 92f60 574 .cfa: sp 0 +
STACK CFI 92f64 .cfa: sp 256 +
STACK CFI 92f80 .cfa: x29 96 + x19: .cfa -8 + ^ x20: .cfa -16 + ^ x21: .cfa -24 + ^ x22: .cfa -32 + ^ x23: .cfa -40 + ^ x24: .cfa -48 + ^ x25: .cfa -56 + ^ x26: .cfa -64 + ^ x27: .cfa -72 + ^ x28: .cfa -80 + ^ .ra: .cfa -88 + ^ x29: .cfa -96 + ^
STACK CFI 93360 .cfa: sp 256 +
STACK CFI 9337c .cfa: sp 0 +
STACK CFI 93380 .cfa: x29 96 +
STACK CFI INIT 934f0 398 .cfa: sp 0 +
STACK CFI 934f4 .cfa: sp 224 +
STACK CFI 93508 .cfa: x29 64 + x19: .cfa -8 + ^ x20: .cfa -16 + ^ x21: .cfa -24 + ^ x22: .cfa -32 + ^ x23: .cfa -48 + ^ .ra: .cfa -56 + ^ x29: .cfa -64 + ^
STACK CFI 93770 .cfa: sp 224 +
STACK CFI 93784 .cfa: sp 0 +
STACK CFI 93788 .cfa: x29 64 +
STACK CFI INIT 938c8 574 .cfa: sp 0 +
STACK CFI 938cc .cfa: sp 256 +
STACK CFI 938e8 .cfa: x29 96 + x19: .cfa -8 + ^ x20: .cfa -16 + ^ x21: .cfa -24 + ^ x22: .cfa -32 + ^ x23: .cfa -40 + ^ x24: .cfa -48 + ^ x25: .cfa -56 + ^ x26: .cfa -64 + ^ x27: .cfa -72 + ^ x28: .cfa -80 + ^ .ra: .cfa -88 + ^ x29: .cfa -96 + ^
STACK CFI 93cc8 .cfa: sp 256 +
STACK CFI 93ce4 .cfa: sp 0 +
STACK CFI 93ce8 .cfa: x29 96 +
STACK CFI INIT 93e58 5a8 .cfa: sp 0 +
STACK CFI 93e5c .cfa: sp 256 +
STACK CFI 93e78 .cfa: x29 96 + x19: .cfa -8 + ^ x20: .cfa -16 + ^ x21: .cfa -24 + ^ x22: .cfa -32 + ^ x23: .cfa -40 + ^ x24: .cfa -48 + ^ x25: .cfa -56 + ^ x26: .cfa -64 + ^ x27: .cfa -72 + ^ x28: .cfa -80 + ^ .ra: .cfa -88 + ^ x29: .cfa -96 + ^
STACK CFI 94190 .cfa: sp 256 +
STACK CFI 941ac .cfa: sp 0 +
STACK CFI 941b0 .cfa: x29 96 +
STACK CFI 9428c .cfa: sp 256 +
STACK CFI 942a8 .cfa: sp 0 +
STACK CFI 942ac .cfa: x29 96 +
STACK CFI INIT 9441c 5a8 .cfa: sp 0 +
STACK CFI 94420 .cfa: sp 256 +
STACK CFI 9443c .cfa: x29 96 + x19: .cfa -8 + ^ x20: .cfa -16 + ^ x21: .cfa -24 + ^ x22: .cfa -32 + ^ x23: .cfa -40 + ^ x24: .cfa -48 + ^ x25: .cfa -56 + ^ x26: .cfa -64 + ^ x27: .cfa -72 + ^ x28: .cfa -80 + ^ .ra: .cfa -88 + ^ x29: .cfa -96 + ^
STACK CFI 94754 .cfa: sp 256 +
STACK CFI 94770 .cfa: sp 0 +
STACK CFI 94774 .cfa: x29 96 +
STACK CFI 94850 .cfa: sp 256 +
STACK CFI 9486c .cfa: sp 0 +
STACK CFI 94870 .cfa: x29 96 +
STACK CFI INIT 949e0 122c .cfa: sp 0 +
STACK CFI 949e4 .cfa: sp 288 +
STACK CFI 94a00 .cfa: x29 96 + x19: .cfa -8 + ^ x20: .cfa -16 + ^ x21: .cfa -24 + ^ x22: .cfa -32 + ^ x23: .cfa -40 + ^ x24: .cfa -48 + ^ x25: .cfa -56 + ^ x26: .cfa -64 + ^ x28: .cfa -80 + ^ .ra: .cfa -88 + ^ x29: .cfa -96 + ^
STACK CFI 957d4 .cfa: sp 288 +
STACK CFI 957f0 .cfa: sp 0 +
STACK CFI 957f4 .cfa: x29 96 +
STACK CFI INIT 95d04 134 .cfa: sp 0 +
STACK CFI 95d08 .cfa: sp 128 +
STACK CFI 95d1c .cfa: x29 64 + x19: .cfa -8 + ^ x20: .cfa -16 + ^ x21: .cfa -24 + ^ x22: .cfa -32 + ^ x23: .cfa -40 + ^ x24: .cfa -48 + ^ .ra: .cfa -56 + ^ x29: .cfa -64 + ^
STACK CFI 95de8 .cfa: sp 128 +
STACK CFI 95dfc .cfa: sp 0 +
STACK CFI 95e00 .cfa: x29 64 +
STACK CFI INIT 95e38 188 .cfa: sp 0 +
STACK CFI 95e3c .cfa: sp 144 +
STACK CFI 95e4c .cfa: x29 48 + x19: .cfa -8 + ^ x20: .cfa -16 + ^ x21: .cfa -32 + ^ .ra: .cfa -40 + ^ x29: .cfa -48 + ^
STACK CFI 95e88 .cfa: sp 144 +
STACK CFI 95e98 .cfa: sp 0 +
STACK CFI 95e9c .cfa: x29 48 +
STACK CFI 95f34 .cfa: sp 144 +
STACK CFI 95f44 .cfa: sp 0 +
STACK CFI 95f48 .cfa: x29 48 +
STACK CFI INIT 95fc0 188 .cfa: sp 0 +
STACK CFI 95fc4 .cfa: sp 144 +
STACK CFI 95fd4 .cfa: x29 48 + x19: .cfa -8 + ^ x20: .cfa -16 + ^ x21: .cfa -32 + ^ .ra: .cfa -40 + ^ x29: .cfa -48 + ^
STACK CFI 96010 .cfa: sp 144 +
STACK CFI 96020 .cfa: sp 0 +
STACK CFI 96024 .cfa: x29 48 +
STACK CFI 960bc .cfa: sp 144 +
STACK CFI 960cc .cfa: sp 0 +
STACK CFI 960d0 .cfa: x29 48 +
STACK CFI INIT 96148 188 .cfa: sp 0 +
STACK CFI 9614c .cfa: sp 144 +
STACK CFI 9615c .cfa: x29 48 + x19: .cfa -8 + ^ x20: .cfa -16 + ^ x21: .cfa -32 + ^ .ra: .cfa -40 + ^ x29: .cfa -48 + ^
STACK CFI 96198 .cfa: sp 144 +
STACK CFI 961a8 .cfa: sp 0 +
STACK CFI 961ac .cfa: x29 48 +
STACK CFI 96244 .cfa: sp 144 +
STACK CFI 96254 .cfa: sp 0 +
STACK CFI 96258 .cfa: x29 48 +
STACK CFI INIT 962d0 188 .cfa: sp 0 +
STACK CFI 962d4 .cfa: sp 144 +
STACK CFI 962e4 .cfa: x29 48 + x19: .cfa -8 + ^ x20: .cfa -16 + ^ x21: .cfa -32 + ^ .ra: .cfa -40 + ^ x29: .cfa -48 + ^
STACK CFI 96320 .cfa: sp 144 +
STACK CFI 96330 .cfa: sp 0 +
STACK CFI 96334 .cfa: x29 48 +
STACK CFI 963cc .cfa: sp 144 +
STACK CFI 963dc .cfa: sp 0 +
STACK CFI 963e0 .cfa: x29 48 +
STACK CFI INIT 96458 188 .cfa: sp 0 +
STACK CFI 9645c .cfa: sp 144 +
STACK CFI 9646c .cfa: x29 48 + x19: .cfa -8 + ^ x20: .cfa -16 + ^ x21: .cfa -32 + ^ .ra: .cfa -40 + ^ x29: .cfa -48 + ^
STACK CFI 964a8 .cfa: sp 144 +
STACK CFI 964b8 .cfa: sp 0 +
STACK CFI 964bc .cfa: x29 48 +
STACK CFI 96554 .cfa: sp 144 +
STACK CFI 96564 .cfa: sp 0 +
STACK CFI 96568 .cfa: x29 48 +
STACK CFI INIT 965e0 188 .cfa: sp 0 +
STACK CFI 965e4 .cfa: sp 144 +
STACK CFI 965f4 .cfa: x29 48 + x19: .cfa -8 + ^ x20: .cfa -16 + ^ x21: .cfa -32 + ^ .ra: .cfa -40 + ^ x29: .cfa -48 + ^
STACK CFI 96630 .cfa: sp 144 +
STACK CFI 96640 .cfa: sp 0 +
STACK CFI 96644 .cfa: x29 48 +
STACK CFI 966dc .cfa: sp 144 +
STACK CFI 966ec .cfa: sp 0 +
STACK CFI 966f0 .cfa: x29 48 +
STACK CFI INIT 96768 38c .cfa: sp 0 +
STACK CFI 9676c .cfa: sp 224 +
STACK CFI 96780 .cfa: x29 64 + x19: .cfa -8 + ^ x20: .cfa -16 + ^ x21: .cfa -24 + ^ x22: .cfa -32 + ^ x23: .cfa -48 + ^ .ra: .cfa -56 + ^ x29: .cfa -64 + ^
STACK CFI 969e8 .cfa: sp 224 +
STACK CFI 969fc .cfa: sp 0 +
STACK CFI 96a00 .cfa: x29 64 +
STACK CFI INIT 96af8 a4c .cfa: sp 0 +
STACK CFI 96afc .cfa: sp 336 +
STACK CFI 96b1c .cfa: x29 96 + x19: .cfa -8 + ^ x20: .cfa -16 + ^ x21: .cfa -24 + ^ x22: .cfa -32 + ^ x23: .cfa -40 + ^ x24: .cfa -48 + ^ x25: .cfa -56 + ^ x26: .cfa -64 + ^ x27: .cfa -72 + ^ x28: .cfa -80 + ^ .ra: .cfa -88 + ^ x29: .cfa -96 + ^ v8: .cfa -112 + ^
STACK CFI 973f4 .cfa: sp 336 +
STACK CFI 97414 .cfa: sp 0 +
STACK CFI 97418 .cfa: x29 96 +
STACK CFI INIT 97544 f8 .cfa: sp 0 +
STACK CFI 97548 .cfa: sp 32 +
STACK CFI 97550 .cfa: x29 32 + x19: .cfa -8 + ^ x20: .cfa -16 + ^ .ra: .cfa -24 + ^ x29: .cfa -32 + ^
STACK CFI 97588 .cfa: sp 32 +
STACK CFI 97590 .cfa: sp 0 +
STACK CFI 97594 .cfa: x29 32 +
STACK CFI 97598 .cfa: sp 32 +
STACK CFI 975a0 .cfa: sp 0 +
STACK CFI 975a4 .cfa: x29 32 +
STACK CFI INIT 9763c b94 .cfa: sp 0 +
STACK CFI 97640 .cfa: sp 128 +
STACK CFI 97660 .cfa: x29 96 + x19: .cfa -8 + ^ x20: .cfa -16 + ^ x21: .cfa -24 + ^ x22: .cfa -32 + ^ x23: .cfa -40 + ^ x24: .cfa -48 + ^ x25: .cfa -56 + ^ x26: .cfa -64 + ^ x27: .cfa -72 + ^ x28: .cfa -80 + ^ .ra: .cfa -88 + ^ x29: .cfa -96 + ^ v8: .cfa -104 + ^ v9: .cfa -112 + ^ v10: .cfa -128 + ^
STACK CFI 98080 .cfa: sp 128 +
STACK CFI 980a0 .cfa: sp 0 +
STACK CFI 980a4 .cfa: x29 96 +
STACK CFI INIT 98254 f0 .cfa: sp 0 +
STACK CFI 98258 .cfa: sp 128 +
STACK CFI 98264 .cfa: x29 32 + x19: .cfa -8 + ^ x20: .cfa -16 + ^ .ra: .cfa -24 + ^ x29: .cfa -32 + ^
STACK CFI 98308 .cfa: sp 128 +
STACK CFI 98314 .cfa: sp 0 +
STACK CFI 98318 .cfa: x29 32 +
STACK CFI INIT 98344 3d8 .cfa: sp 0 +
STACK CFI 98348 .cfa: sp 240 +
STACK CFI 9835c .cfa: x29 64 + x19: .cfa -8 + ^ x20: .cfa -16 + ^ x21: .cfa -24 + ^ x22: .cfa -32 + ^ x23: .cfa -48 + ^ .ra: .cfa -56 + ^ x29: .cfa -64 + ^
STACK CFI 985f4 .cfa: sp 240 +
STACK CFI 98608 .cfa: sp 0 +
STACK CFI 9860c .cfa: x29 64 +
STACK CFI INIT 98720 c88 .cfa: sp 0 +
STACK CFI 98724 .cfa: sp 96 +
STACK CFI 9873c .cfa: x29 96 + x19: .cfa -8 + ^ x20: .cfa -16 + ^ x21: .cfa -24 + ^ x22: .cfa -32 + ^ x23: .cfa -40 + ^ x24: .cfa -48 + ^ x25: .cfa -56 + ^ x26: .cfa -64 + ^ x28: .cfa -80 + ^ .ra: .cfa -88 + ^ x29: .cfa -96 + ^
STACK CFI 99150 .cfa: sp 96 +
STACK CFI 99168 .cfa: sp 0 +
STACK CFI 9916c .cfa: x29 96 +
STACK CFI INIT 993a8 1d8 .cfa: sp 0 +
STACK CFI 993ac .cfa: sp 112 +
STACK CFI 993c0 .cfa: x29 64 + x19: .cfa -8 + ^ x20: .cfa -16 + ^ x21: .cfa -24 + ^ x22: .cfa -32 + ^ x23: .cfa -40 + ^ x24: .cfa -48 + ^ .ra: .cfa -56 + ^ x29: .cfa -64 + ^
STACK CFI 994e8 .cfa: sp 112 +
STACK CFI 994fc .cfa: sp 0 +
STACK CFI 99500 .cfa: x29 64 +
STACK CFI INIT 9962c fc .cfa: sp 0 +
STACK CFI 99630 .cfa: sp 96 +
STACK CFI 99640 .cfa: x29 48 + x19: .cfa -8 + ^ x20: .cfa -16 + ^ x21: .cfa -32 + ^ .ra: .cfa -40 + ^ x29: .cfa -48 + ^
STACK CFI 996b8 .cfa: sp 96 +
STACK CFI 996c8 .cfa: sp 0 +
STACK CFI 996cc .cfa: x29 48 +
STACK CFI INIT 99728 13c .cfa: sp 0 +
STACK CFI 9972c .cfa: sp 112 +
STACK CFI 9973c .cfa: x29 48 + x19: .cfa -8 + ^ x20: .cfa -16 + ^ x21: .cfa -24 + ^ x22: .cfa -32 + ^ .ra: .cfa -40 + ^ x29: .cfa -48 + ^
STACK CFI 99790 .cfa: sp 112 +
STACK CFI 997a0 .cfa: sp 0 +
STACK CFI 997a4 .cfa: x29 48 +
STACK CFI INIT 99920 100 .cfa: sp 0 +
STACK CFI 99924 .cfa: sp 48 +
STACK CFI 99930 .cfa: x29 48 + x19: .cfa -8 + ^ x20: .cfa -16 + ^ x21: .cfa -24 + ^ x22: .cfa -32 + ^ .ra: .cfa -40 + ^ x29: .cfa -48 + ^
STACK CFI 99940 .cfa: sp 48 +
STACK CFI 9994c .cfa: sp 0 +
STACK CFI 99950 .cfa: x29 48 +
STACK CFI INIT 99a84 174 .cfa: sp 0 +
STACK CFI 99a88 .cfa: sp 112 +
STACK CFI 99a98 .cfa: x29 48 + x19: .cfa -8 + ^ x20: .cfa -16 + ^ x21: .cfa -32 + ^ .ra: .cfa -40 + ^ x29: .cfa -48 + ^
STACK CFI 99ae4 .cfa: sp 112 +
STACK CFI 99af4 .cfa: sp 0 +
STACK CFI 99af8 .cfa: x29 48 +
STACK CFI INIT 99c94 1a8 .cfa: sp 0 +
STACK CFI 99c98 .cfa: sp 112 +
STACK CFI 99ca8 .cfa: x29 48 + x19: .cfa -8 + ^ x20: .cfa -16 + ^ x21: .cfa -32 + ^ .ra: .cfa -40 + ^ x29: .cfa -48 + ^
STACK CFI 99d28 .cfa: sp 112 +
STACK CFI 99d38 .cfa: sp 0 +
STACK CFI 99d3c .cfa: x29 48 +
STACK CFI INIT 99e3c 3ec .cfa: sp 0 +
STACK CFI 99e40 .cfa: sp 112 +
STACK CFI 99e50 .cfa: x29 48 + x19: .cfa -8 + ^ x20: .cfa -16 + ^ x21: .cfa -32 + ^ .ra: .cfa -40 + ^ x29: .cfa -48 + ^
STACK CFI 99f5c .cfa: sp 112 +
STACK CFI 99f6c .cfa: sp 0 +
STACK CFI 99f70 .cfa: x29 48 +
STACK CFI INIT 9a228 2bc .cfa: sp 0 +
STACK CFI 9a22c .cfa: sp 128 +
STACK CFI 9a240 .cfa: x29 64 + x19: .cfa -8 + ^ x20: .cfa -16 + ^ x21: .cfa -24 + ^ x22: .cfa -32 + ^ x23: .cfa -40 + ^ x24: .cfa -48 + ^ .ra: .cfa -56 + ^ x29: .cfa -64 + ^
STACK CFI 9a394 .cfa: sp 128 +
STACK CFI 9a3a8 .cfa: sp 0 +
STACK CFI 9a3ac .cfa: x29 64 +
STACK CFI INIT 9a58c 160 .cfa: sp 0 +
STACK CFI 9a590 .cfa: sp 144 +
STACK CFI 9a5a4 .cfa: x29 64 + x19: .cfa -8 + ^ x20: .cfa -16 + ^ x21: .cfa -24 + ^ x22: .cfa -32 + ^ x23: .cfa -48 + ^ .ra: .cfa -56 + ^ x29: .cfa -64 + ^
STACK CFI 9a5f4 .cfa: sp 144 +
STACK CFI 9a608 .cfa: sp 0 +
STACK CFI 9a60c .cfa: x29 64 +
STACK CFI INIT 9a6ec 100 .cfa: sp 0 +
STACK CFI 9a6f0 .cfa: sp 64 +
STACK CFI 9a700 .cfa: x29 48 + x19: .cfa -8 + ^ x20: .cfa -16 + ^ x21: .cfa -24 + ^ x22: .cfa -32 + ^ .ra: .cfa -40 + ^ x29: .cfa -48 + ^
STACK CFI 9a7a0 .cfa: sp 64 +
STACK CFI 9a7b0 .cfa: sp 0 +
STACK CFI 9a7b4 .cfa: sp 64 +
STACK CFI 9a7c4 .cfa: sp 0 +
STACK CFI 9a7c8 .cfa: x29 48 +
STACK CFI INIT 9a7ec 150 .cfa: sp 0 +
STACK CFI 9a7f0 .cfa: sp 128 +
STACK CFI 9a800 .cfa: x29 48 + x19: .cfa -8 + ^ x20: .cfa -16 + ^ x21: .cfa -24 + ^ x22: .cfa -32 + ^ .ra: .cfa -40 + ^ x29: .cfa -48 + ^
STACK CFI 9a848 .cfa: sp 128 +
STACK CFI 9a858 .cfa: sp 0 +
STACK CFI 9a85c .cfa: x29 48 +
STACK CFI INIT 9a93c a4 .cfa: sp 0 +
STACK CFI 9a940 .cfa: sp 64 +
STACK CFI 9a950 .cfa: x29 48 + x19: .cfa -8 + ^ x20: .cfa -16 + ^ x21: .cfa -32 + ^ .ra: .cfa -40 + ^ x29: .cfa -48 + ^
STACK CFI 9a9b4 .cfa: sp 64 +
STACK CFI 9a9c4 .cfa: sp 0 +
STACK CFI 9a9c8 .cfa: x29 48 +
STACK CFI INIT 9a9e0 168 .cfa: sp 0 +
STACK CFI 9a9e4 .cfa: sp 144 +
STACK CFI 9a9f8 .cfa: x29 64 + x19: .cfa -8 + ^ x20: .cfa -16 + ^ x21: .cfa -24 + ^ x22: .cfa -32 + ^ x23: .cfa -40 + ^ x24: .cfa -48 + ^ .ra: .cfa -56 + ^ x29: .cfa -64 + ^
STACK CFI 9aa50 .cfa: sp 144 +
STACK CFI 9aa64 .cfa: sp 0 +
STACK CFI 9aa68 .cfa: x29 64 +
STACK CFI INIT 9ab48 f8 .cfa: sp 0 +
STACK CFI 9ab4c .cfa: sp 48 +
STACK CFI 9ab58 .cfa: x29 48 + x19: .cfa -8 + ^ x20: .cfa -16 + ^ x21: .cfa -24 + ^ x22: .cfa -32 + ^ .ra: .cfa -40 + ^ x29: .cfa -48 + ^
STACK CFI 9abfc .cfa: sp 48 +
STACK CFI 9ac08 .cfa: sp 0 +
STACK CFI 9ac0c .cfa: sp 48 +
STACK CFI 9ac18 .cfa: sp 0 +
STACK CFI 9ac1c .cfa: x29 48 +
STACK CFI INIT 9ac40 168 .cfa: sp 0 +
STACK CFI 9ac44 .cfa: sp 144 +
STACK CFI 9ac58 .cfa: x29 64 + x19: .cfa -8 + ^ x20: .cfa -16 + ^ x21: .cfa -24 + ^ x22: .cfa -32 + ^ x23: .cfa -40 + ^ x24: .cfa -48 + ^ .ra: .cfa -56 + ^ x29: .cfa -64 + ^
STACK CFI 9acb0 .cfa: sp 144 +
STACK CFI 9acc4 .cfa: sp 0 +
STACK CFI 9acc8 .cfa: x29 64 +
STACK CFI INIT 9adcc 74 .cfa: sp 0 +
STACK CFI 9add0 .cfa: sp 32 +
STACK CFI 9add8 .cfa: x29 32 + x19: .cfa -16 + ^ .ra: .cfa -24 + ^ x29: .cfa -32 + ^
STACK CFI 9ae30 .cfa: sp 32 +
STACK CFI 9ae38 .cfa: sp 0 +
STACK CFI 9ae3c .cfa: x29 32 +
STACK CFI INIT 9ae40 7c .cfa: sp 0 +
STACK CFI 9ae44 .cfa: sp 32 +
STACK CFI 9ae4c .cfa: x29 32 + x19: .cfa -16 + ^ .ra: .cfa -24 + ^ x29: .cfa -32 + ^
STACK CFI 9aeac .cfa: sp 32 +
STACK CFI 9aeb4 .cfa: sp 0 +
STACK CFI 9aeb8 .cfa: x29 32 +
STACK CFI INIT 9aebc 7c .cfa: sp 0 +
STACK CFI 9aec0 .cfa: sp 32 +
STACK CFI 9aec8 .cfa: x29 32 + x19: .cfa -16 + ^ .ra: .cfa -24 + ^ x29: .cfa -32 + ^
STACK CFI 9af28 .cfa: sp 32 +
STACK CFI 9af30 .cfa: sp 0 +
STACK CFI 9af34 .cfa: x29 32 +
STACK CFI INIT 9af38 1e8 .cfa: sp 0 +
STACK CFI 9af3c .cfa: sp 192 +
STACK CFI 9af60 .cfa: x29 88 + x19: .cfa -8 + ^ x20: .cfa -16 + ^ x21: .cfa -24 + ^ x22: .cfa -32 + ^ x23: .cfa -40 + ^ x24: .cfa -48 + ^ x25: .cfa -56 + ^ x26: .cfa -64 + ^ x27: .cfa -72 + ^ .ra: .cfa -80 + ^ x29: .cfa -88 + ^ v8: .cfa -96 + ^ v9: .cfa -104 + ^ v10: .cfa -112 + ^
STACK CFI 9b004 .cfa: sp 192 +
STACK CFI 9b028 .cfa: sp 0 +
STACK CFI 9b02c .cfa: x29 88 +
STACK CFI INIT 9b120 540 .cfa: sp 0 +
STACK CFI 9b124 .cfa: sp 96 +
STACK CFI 9b138 .cfa: x29 64 + x19: .cfa -8 + ^ x20: .cfa -16 + ^ x21: .cfa -24 + ^ x22: .cfa -32 + ^ x23: .cfa -40 + ^ x24: .cfa -48 + ^ .ra: .cfa -56 + ^ x29: .cfa -64 + ^
STACK CFI 9b4f4 .cfa: sp 96 +
STACK CFI 9b508 .cfa: sp 0 +
STACK CFI 9b50c .cfa: x29 64 +
STACK CFI 9b5d8 .cfa: sp 96 +
STACK CFI 9b5ec .cfa: sp 0 +
STACK CFI 9b5f0 .cfa: x29 64 +
STACK CFI INIT 9b694 a0 .cfa: sp 0 +
STACK CFI 9b698 .cfa: sp 48 +
STACK CFI 9b6a4 .cfa: x29 48 + x19: .cfa -8 + ^ x20: .cfa -16 + ^ x21: .cfa -32 + ^ .ra: .cfa -40 + ^ x29: .cfa -48 + ^
STACK CFI 9b70c .cfa: sp 48 +
STACK CFI 9b718 .cfa: sp 0 +
STACK CFI 9b71c .cfa: x29 48 +
STACK CFI INIT 9b734 178 .cfa: sp 0 +
STACK CFI 9b738 .cfa: sp 128 +
STACK CFI 9b748 .cfa: x29 48 + x19: .cfa -8 + ^ x20: .cfa -16 + ^ x21: .cfa -24 + ^ x22: .cfa -32 + ^ .ra: .cfa -40 + ^ x29: .cfa -48 + ^
STACK CFI 9b7a4 .cfa: sp 128 +
STACK CFI 9b7b4 .cfa: sp 0 +
STACK CFI 9b7b8 .cfa: x29 48 +
STACK CFI INIT 9b8ac 140 .cfa: sp 0 +
STACK CFI 9b8b0 .cfa: sp 336 +
STACK CFI 9b8c4 .cfa: x29 64 + x19: .cfa -8 + ^ x20: .cfa -16 + ^ x21: .cfa -24 + ^ x22: .cfa -32 + ^ x28: .cfa -48 + ^ .ra: .cfa -56 + ^ x29: .cfa -64 + ^
STACK CFI 9b9ac .cfa: sp 336 +
STACK CFI 9b9c0 .cfa: sp 0 +
STACK CFI 9b9c4 .cfa: x29 64 +
STACK CFI INIT 9b9ec 178 .cfa: sp 0 +
STACK CFI 9b9f0 .cfa: sp 128 +
STACK CFI 9ba00 .cfa: x29 48 + x19: .cfa -8 + ^ x20: .cfa -16 + ^ x21: .cfa -24 + ^ x22: .cfa -32 + ^ .ra: .cfa -40 + ^ x29: .cfa -48 + ^
STACK CFI 9ba5c .cfa: sp 128 +
STACK CFI 9ba6c .cfa: sp 0 +
STACK CFI 9ba70 .cfa: x29 48 +
STACK CFI INIT 9bb64 a0 .cfa: sp 0 +
STACK CFI 9bb68 .cfa: sp 48 +
STACK CFI 9bb74 .cfa: x29 48 + x19: .cfa -8 + ^ x20: .cfa -16 + ^ x21: .cfa -32 + ^ .ra: .cfa -40 + ^ x29: .cfa -48 + ^
STACK CFI 9bbdc .cfa: sp 48 +
STACK CFI 9bbe8 .cfa: sp 0 +
STACK CFI 9bbec .cfa: x29 48 +
STACK CFI INIT 9bc04 294 .cfa: sp 0 +
STACK CFI 9bc08 .cfa: sp 272 +
STACK CFI 9bc28 .cfa: x29 96 + x19: .cfa -8 + ^ x20: .cfa -16 + ^ x21: .cfa -24 + ^ x22: .cfa -32 + ^ x23: .cfa -40 + ^ x24: .cfa -48 + ^ x25: .cfa -56 + ^ x26: .cfa -64 + ^ x27: .cfa -72 + ^ x28: .cfa -80 + ^ .ra: .cfa -88 + ^ x29: .cfa -96 + ^ v8: .cfa -112 + ^
STACK CFI 9bd4c .cfa: sp 272 +
STACK CFI 9bd6c .cfa: sp 0 +
STACK CFI 9bd70 .cfa: x29 96 +
STACK CFI INIT 9be98 b3c .cfa: sp 0 +
STACK CFI 9be9c .cfa: sp 112 +
STACK CFI 9beb4 .cfa: x29 80 + x19: .cfa -8 + ^ x20: .cfa -16 + ^ x21: .cfa -24 + ^ x22: .cfa -32 + ^ x23: .cfa -40 + ^ x24: .cfa -48 + ^ x25: .cfa -64 + ^ .ra: .cfa -72 + ^ x29: .cfa -80 + ^
STACK CFI 9c8c4 .cfa: sp 112 +
STACK CFI 9c8dc .cfa: sp 0 +
STACK CFI 9c8e0 .cfa: sp 112 +
STACK CFI 9c8f8 .cfa: sp 0 +
STACK CFI 9c8fc .cfa: x29 80 +
STACK CFI INIT 9c9d4 1c8 .cfa: sp 0 +
STACK CFI 9c9d8 .cfa: sp 192 +
STACK CFI 9c9f4 .cfa: x29 64 + x19: .cfa -8 + ^ x20: .cfa -16 + ^ x21: .cfa -24 + ^ x22: .cfa -32 + ^ x23: .cfa -40 + ^ x24: .cfa -48 + ^ .ra: .cfa -56 + ^ x29: .cfa -64 + ^ v8: .cfa -72 + ^ v9: .cfa -80 + ^ v10: .cfa -96 + ^
STACK CFI 9ca88 .cfa: sp 192 +
STACK CFI 9caa4 .cfa: sp 0 +
STACK CFI 9caa8 .cfa: x29 64 +
STACK CFI INIT 9cb9c 264 .cfa: sp 0 +
STACK CFI 9cba0 .cfa: sp 96 +
STACK CFI 9cbb4 .cfa: x29 64 + x19: .cfa -8 + ^ x20: .cfa -16 + ^ x21: .cfa -24 + ^ x22: .cfa -32 + ^ x23: .cfa -40 + ^ x24: .cfa -48 + ^ .ra: .cfa -56 + ^ x29: .cfa -64 + ^
STACK CFI 9ccdc .cfa: sp 96 +
STACK CFI 9ccf0 .cfa: sp 0 +
STACK CFI 9ccf4 .cfa: x29 64 +
STACK CFI 9cda8 .cfa: sp 96 +
STACK CFI 9cdbc .cfa: sp 0 +
STACK CFI 9cdc0 .cfa: x29 64 +
STACK CFI INIT 9ce00 2a0 .cfa: sp 0 +
STACK CFI 9ce04 .cfa: sp 128 +
STACK CFI 9ce18 .cfa: x29 64 + x19: .cfa -8 + ^ x20: .cfa -16 + ^ x21: .cfa -24 + ^ x22: .cfa -32 + ^ x23: .cfa -40 + ^ x24: .cfa -48 + ^ .ra: .cfa -56 + ^ x29: .cfa -64 + ^
STACK CFI 9cf50 .cfa: sp 128 +
STACK CFI 9cf64 .cfa: sp 0 +
STACK CFI 9cf68 .cfa: x29 64 +
STACK CFI INIT 9d0a0 74 .cfa: sp 0 +
STACK CFI 9d0a4 .cfa: sp 32 +
STACK CFI 9d0ac .cfa: x29 32 + x19: .cfa -16 + ^ .ra: .cfa -24 + ^ x29: .cfa -32 + ^
STACK CFI 9d104 .cfa: sp 32 +
STACK CFI 9d10c .cfa: sp 0 +
STACK CFI 9d110 .cfa: x29 32 +
STACK CFI INIT 9d114 2ac .cfa: sp 0 +
STACK CFI 9d118 .cfa: sp 128 +
STACK CFI 9d12c .cfa: x29 64 + x19: .cfa -8 + ^ x20: .cfa -16 + ^ x21: .cfa -24 + ^ x22: .cfa -32 + ^ x23: .cfa -40 + ^ x24: .cfa -48 + ^ .ra: .cfa -56 + ^ x29: .cfa -64 + ^
STACK CFI 9d270 .cfa: sp 128 +
STACK CFI 9d284 .cfa: sp 0 +
STACK CFI 9d288 .cfa: x29 64 +
STACK CFI INIT 9d3c0 224 .cfa: sp 0 +
STACK CFI 9d3c4 .cfa: sp 128 +
STACK CFI 9d3d8 .cfa: x29 64 + x19: .cfa -8 + ^ x20: .cfa -16 + ^ x21: .cfa -24 + ^ x22: .cfa -32 + ^ x23: .cfa -40 + ^ x24: .cfa -48 + ^ .ra: .cfa -56 + ^ x29: .cfa -64 + ^
STACK CFI 9d494 .cfa: sp 128 +
STACK CFI 9d4a8 .cfa: sp 0 +
STACK CFI 9d4ac .cfa: x29 64 +
STACK CFI INIT 9d5e4 25c .cfa: sp 0 +
STACK CFI 9d5e8 .cfa: sp 128 +
STACK CFI 9d5fc .cfa: x29 64 + x19: .cfa -8 + ^ x20: .cfa -16 + ^ x21: .cfa -24 + ^ x22: .cfa -32 + ^ x23: .cfa -40 + ^ x24: .cfa -48 + ^ .ra: .cfa -56 + ^ x29: .cfa -64 + ^
STACK CFI 9d6f0 .cfa: sp 128 +
STACK CFI 9d704 .cfa: sp 0 +
STACK CFI 9d708 .cfa: x29 64 +
STACK CFI INIT 9d8c0 4e4 .cfa: sp 0 +
STACK CFI 9d8c4 .cfa: sp 64 +
STACK CFI 9d8d4 .cfa: x29 64 + x19: .cfa -8 + ^ x20: .cfa -16 + ^ x21: .cfa -24 + ^ x22: .cfa -32 + ^ x23: .cfa -40 + ^ x24: .cfa -48 + ^ .ra: .cfa -56 + ^ x29: .cfa -64 + ^
STACK CFI 9d964 .cfa: sp 64 +
STACK CFI 9d974 .cfa: sp 0 +
STACK CFI 9d978 .cfa: x29 64 +
STACK CFI 9dd78 .cfa: sp 64 +
STACK CFI 9dd88 .cfa: sp 0 +
STACK CFI 9dd8c .cfa: x29 64 +
STACK CFI INIT 9e334 50 .cfa: sp 0 +
STACK CFI 9e338 .cfa: sp 32 +
STACK CFI 9e340 .cfa: x29 32 + x19: .cfa -8 + ^ x20: .cfa -16 + ^ .ra: .cfa -24 + ^ x29: .cfa -32 + ^
STACK CFI INIT 9e3b4 ec .cfa: sp 0 +
STACK CFI 9e3b8 .cfa: sp 96 +
STACK CFI 9e3c8 .cfa: x29 48 + x19: .cfa -8 + ^ x20: .cfa -16 + ^ x21: .cfa -32 + ^ .ra: .cfa -40 + ^ x29: .cfa -48 + ^
STACK CFI 9e484 .cfa: sp 96 +
STACK CFI 9e494 .cfa: sp 0 +
STACK CFI 9e498 .cfa: x29 48 +
STACK CFI INIT 9e4a0 b4 .cfa: sp 0 +
STACK CFI 9e4a4 .cfa: sp 48 +
STACK CFI 9e4b0 .cfa: x29 48 + x19: .cfa -8 + ^ x20: .cfa -16 + ^ x21: .cfa -24 + ^ x28: .cfa -32 + ^ .ra: .cfa -40 + ^ x29: .cfa -48 + ^
STACK CFI 9e53c .cfa: sp 48 +
STACK CFI 9e548 .cfa: sp 0 +
STACK CFI 9e54c .cfa: x29 48 +
STACK CFI INIT 9e554 190 .cfa: sp 0 +
STACK CFI 9e558 .cfa: sp 208 +
STACK CFI 9e568 .cfa: x29 48 + x19: .cfa -8 + ^ x20: .cfa -16 + ^ x21: .cfa -24 + ^ x22: .cfa -32 + ^ .ra: .cfa -40 + ^ x29: .cfa -48 + ^
STACK CFI 9e66c .cfa: sp 208 +
STACK CFI 9e67c .cfa: sp 0 +
STACK CFI 9e680 .cfa: x29 48 +
STACK CFI INIT 9e6f8 19c .cfa: sp 0 +
STACK CFI 9e6fc .cfa: sp 96 +
STACK CFI 9e710 .cfa: x29 64 + x19: .cfa -8 + ^ x20: .cfa -16 + ^ x21: .cfa -24 + ^ x22: .cfa -32 + ^ x23: .cfa -48 + ^ .ra: .cfa -56 + ^ x29: .cfa -64 + ^
STACK CFI 9e7f4 .cfa: sp 96 +
STACK CFI 9e808 .cfa: sp 0 +
STACK CFI 9e80c .cfa: x29 64 +
STACK CFI INIT 9e914 308 .cfa: sp 0 +
STACK CFI 9e918 .cfa: sp 160 +
STACK CFI 9e92c .cfa: x29 64 + x19: .cfa -8 + ^ x20: .cfa -16 + ^ x21: .cfa -24 + ^ x22: .cfa -32 + ^ x23: .cfa -40 + ^ x24: .cfa -48 + ^ .ra: .cfa -56 + ^ x29: .cfa -64 + ^
STACK CFI 9eb40 .cfa: sp 160 +
STACK CFI 9eb54 .cfa: sp 0 +
STACK CFI 9eb58 .cfa: x29 64 +
STACK CFI INIT 9ed08 190 .cfa: sp 0 +
STACK CFI 9ed0c .cfa: sp 96 +
STACK CFI 9ed24 .cfa: x29 96 + x19: .cfa -8 + ^ x20: .cfa -16 + ^ x21: .cfa -24 + ^ x22: .cfa -32 + ^ x23: .cfa -40 + ^ x24: .cfa -48 + ^ x25: .cfa -56 + ^ x26: .cfa -64 + ^ x27: .cfa -72 + ^ x28: .cfa -80 + ^ .ra: .cfa -88 + ^ x29: .cfa -96 + ^
STACK CFI 9ee34 .cfa: sp 96 +
STACK CFI 9ee4c .cfa: sp 0 +
STACK CFI 9ee50 .cfa: x29 96 +
STACK CFI INIT 9ee98 128 .cfa: sp 0 +
STACK CFI 9ee9c .cfa: sp 80 +
STACK CFI 9eeb0 .cfa: x29 80 + x19: .cfa -8 + ^ x20: .cfa -16 + ^ x21: .cfa -24 + ^ x22: .cfa -32 + ^ x23: .cfa -40 + ^ x24: .cfa -48 + ^ x28: .cfa -64 + ^ .ra: .cfa -72 + ^ x29: .cfa -80 + ^
STACK CFI 9ef74 .cfa: sp 80 +
STACK CFI 9ef88 .cfa: sp 0 +
STACK CFI 9ef8c .cfa: x29 80 +
STACK CFI INIT 9f06c 15c .cfa: sp 0 +
STACK CFI 9f070 .cfa: sp 80 +
STACK CFI 9f084 .cfa: x29 64 + x19: .cfa -8 + ^ x20: .cfa -16 + ^ x21: .cfa -24 + ^ x22: .cfa -32 + ^ x23: .cfa -40 + ^ x24: .cfa -48 + ^ .ra: .cfa -56 + ^ x29: .cfa -64 + ^
STACK CFI 9f178 .cfa: sp 80 +
STACK CFI 9f18c .cfa: sp 0 +
STACK CFI 9f190 .cfa: x29 64 +
STACK CFI INIT 9f1c8 114 .cfa: sp 0 +
STACK CFI 9f1cc .cfa: sp 112 +
STACK CFI 9f1e0 .cfa: x29 64 + x19: .cfa -8 + ^ x20: .cfa -16 + ^ x21: .cfa -24 + ^ x22: .cfa -32 + ^ x23: .cfa -48 + ^ .ra: .cfa -56 + ^ x29: .cfa -64 + ^
STACK CFI 9f250 .cfa: sp 112 +
STACK CFI 9f264 .cfa: sp 0 +
STACK CFI 9f268 .cfa: x29 64 +
STACK CFI INIT 9faa0 7c .cfa: sp 0 +
STACK CFI 9faa4 .cfa: sp 32 +
STACK CFI 9faac .cfa: x29 32 + x19: .cfa -8 + ^ x20: .cfa -16 + ^ .ra: .cfa -24 + ^ x29: .cfa -32 + ^
STACK CFI 9fac8 .cfa: sp 32 +
STACK CFI 9fad0 .cfa: sp 0 +
STACK CFI 9fad4 .cfa: x29 32 +
STACK CFI INIT 9fb1c 144 .cfa: sp 0 +
STACK CFI 9fb20 .cfa: sp 64 +
STACK CFI 9fb30 .cfa: x29 64 + x19: .cfa -8 + ^ x20: .cfa -16 + ^ x21: .cfa -24 + ^ x22: .cfa -32 + ^ x28: .cfa -48 + ^ .ra: .cfa -56 + ^ x29: .cfa -64 + ^
STACK CFI 9fbb4 .cfa: sp 64 +
STACK CFI 9fbc4 .cfa: sp 0 +
STACK CFI 9fbc8 .cfa: x29 64 +
STACK CFI INIT a0768 118 .cfa: sp 0 +
STACK CFI a076c .cfa: sp 80 +
STACK CFI a077c .cfa: x29 48 + x19: .cfa -8 + ^ x20: .cfa -16 + ^ x21: .cfa -32 + ^ .ra: .cfa -40 + ^ x29: .cfa -48 + ^
STACK CFI a082c .cfa: sp 80 +
STACK CFI a083c .cfa: sp 0 +
STACK CFI a0840 .cfa: x29 48 +
STACK CFI INIT a0880 ac .cfa: sp 0 +
STACK CFI a0884 .cfa: sp 48 +
STACK CFI a0890 .cfa: x29 32 + x19: .cfa -8 + ^ x20: .cfa -16 + ^ .ra: .cfa -24 + ^ x29: .cfa -32 + ^
STACK CFI a08f4 .cfa: sp 48 +
STACK CFI a0900 .cfa: sp 0 +
STACK CFI a0904 .cfa: x29 32 +
STACK CFI INIT a0a94 118 .cfa: sp 0 +
STACK CFI a0a98 .cfa: sp 80 +
STACK CFI a0aa8 .cfa: x29 48 + x19: .cfa -8 + ^ x20: .cfa -16 + ^ x21: .cfa -32 + ^ .ra: .cfa -40 + ^ x29: .cfa -48 + ^
STACK CFI a0b58 .cfa: sp 80 +
STACK CFI a0b68 .cfa: sp 0 +
STACK CFI a0b6c .cfa: x29 48 +
STACK CFI INIT a0bac ac .cfa: sp 0 +
STACK CFI a0bb0 .cfa: sp 48 +
STACK CFI a0bbc .cfa: x29 32 + x19: .cfa -8 + ^ x20: .cfa -16 + ^ .ra: .cfa -24 + ^ x29: .cfa -32 + ^
STACK CFI a0c20 .cfa: sp 48 +
STACK CFI a0c2c .cfa: sp 0 +
STACK CFI a0c30 .cfa: x29 32 +
STACK CFI INIT a0f34 204 .cfa: sp 0 +
STACK CFI a0f38 .cfa: sp 80 +
STACK CFI a0f4c .cfa: x29 80 + x19: .cfa -8 + ^ x20: .cfa -16 + ^ x21: .cfa -24 + ^ x22: .cfa -32 + ^ x23: .cfa -40 + ^ x24: .cfa -48 + ^ x25: .cfa -64 + ^ .ra: .cfa -72 + ^ x29: .cfa -80 + ^
STACK CFI a10dc .cfa: sp 80 +
STACK CFI a10f0 .cfa: sp 0 +
STACK CFI a10f4 .cfa: x29 80 +
STACK CFI INIT a3260 68c .cfa: sp 0 +
STACK CFI a3264 .cfa: sp 288 +
STACK CFI a3280 .cfa: x29 96 + x19: .cfa -8 + ^ x20: .cfa -16 + ^ x21: .cfa -24 + ^ x22: .cfa -32 + ^ x23: .cfa -40 + ^ x24: .cfa -48 + ^ x25: .cfa -56 + ^ x26: .cfa -64 + ^ x27: .cfa -72 + ^ x28: .cfa -80 + ^ .ra: .cfa -88 + ^ x29: .cfa -96 + ^
STACK CFI a37e8 .cfa: sp 288 +
STACK CFI a3804 .cfa: sp 0 +
STACK CFI a3808 .cfa: x29 96 +
STACK CFI INIT a3a40 1c0 .cfa: sp 0 +
STACK CFI a3a44 .cfa: sp 144 +
STACK CFI a3a58 .cfa: x29 64 + x19: .cfa -8 + ^ x20: .cfa -16 + ^ x21: .cfa -24 + ^ x22: .cfa -32 + ^ x23: .cfa -40 + ^ x24: .cfa -48 + ^ .ra: .cfa -56 + ^ x29: .cfa -64 + ^
STACK CFI a3b4c .cfa: sp 144 +
STACK CFI a3b60 .cfa: sp 0 +
STACK CFI a3b64 .cfa: x29 64 +
STACK CFI INIT a40f0 2c8 .cfa: sp 0 +
STACK CFI a40f4 .cfa: sp 80 +
STACK CFI a4108 .cfa: x29 80 + x19: .cfa -8 + ^ x20: .cfa -16 + ^ x21: .cfa -24 + ^ x22: .cfa -32 + ^ x23: .cfa -40 + ^ x24: .cfa -48 + ^ x28: .cfa -64 + ^ .ra: .cfa -72 + ^ x29: .cfa -80 + ^
STACK CFI a436c .cfa: sp 80 +
STACK CFI a4380 .cfa: sp 0 +
STACK CFI a4384 .cfa: x29 80 +
STACK CFI INIT a43b8 3e0 .cfa: sp 0 +
STACK CFI a43bc .cfa: sp 96 +
STACK CFI a43d4 .cfa: x29 96 + x19: .cfa -8 + ^ x20: .cfa -16 + ^ x21: .cfa -24 + ^ x22: .cfa -32 + ^ x23: .cfa -40 + ^ x24: .cfa -48 + ^ x25: .cfa -56 + ^ x26: .cfa -64 + ^ x27: .cfa -72 + ^ x28: .cfa -80 + ^ .ra: .cfa -88 + ^ x29: .cfa -96 + ^
STACK CFI a4738 .cfa: sp 96 +
STACK CFI a4750 .cfa: sp 0 +
STACK CFI a4754 .cfa: x29 96 +
STACK CFI INIT a4a14 148 .cfa: sp 0 +
STACK CFI a4a18 .cfa: sp 64 +
STACK CFI a4a28 .cfa: x29 64 + x19: .cfa -8 + ^ x20: .cfa -16 + ^ x21: .cfa -24 + ^ x22: .cfa -32 + ^ x23: .cfa -40 + ^ x28: .cfa -48 + ^ .ra: .cfa -56 + ^ x29: .cfa -64 + ^
STACK CFI a4b14 .cfa: sp 64 +
STACK CFI a4b24 .cfa: sp 0 +
STACK CFI a4b28 .cfa: x29 64 +
STACK CFI INIT a4d80 69c .cfa: sp 0 +
STACK CFI a4d84 .cfa: sp 288 +
STACK CFI a4da0 .cfa: x29 96 + x19: .cfa -8 + ^ x20: .cfa -16 + ^ x21: .cfa -24 + ^ x22: .cfa -32 + ^ x23: .cfa -40 + ^ x24: .cfa -48 + ^ x25: .cfa -56 + ^ x26: .cfa -64 + ^ x27: .cfa -72 + ^ x28: .cfa -80 + ^ .ra: .cfa -88 + ^ x29: .cfa -96 + ^
STACK CFI a5318 .cfa: sp 288 +
STACK CFI a5334 .cfa: sp 0 +
STACK CFI a5338 .cfa: x29 96 +
STACK CFI INIT a585c 2e0 .cfa: sp 0 +
STACK CFI a5860 .cfa: sp 80 +
STACK CFI a5874 .cfa: x29 80 + x19: .cfa -8 + ^ x20: .cfa -16 + ^ x21: .cfa -24 + ^ x22: .cfa -32 + ^ x23: .cfa -40 + ^ x24: .cfa -48 + ^ x28: .cfa -64 + ^ .ra: .cfa -72 + ^ x29: .cfa -80 + ^
STACK CFI a5af0 .cfa: sp 80 +
STACK CFI a5b04 .cfa: sp 0 +
STACK CFI a5b08 .cfa: x29 80 +
STACK CFI INIT a5ca8 148 .cfa: sp 0 +
STACK CFI a5cac .cfa: sp 64 +
STACK CFI a5cbc .cfa: x29 64 + x19: .cfa -8 + ^ x20: .cfa -16 + ^ x21: .cfa -24 + ^ x22: .cfa -32 + ^ x23: .cfa -40 + ^ x28: .cfa -48 + ^ .ra: .cfa -56 + ^ x29: .cfa -64 + ^
STACK CFI a5da8 .cfa: sp 64 +
STACK CFI a5db8 .cfa: sp 0 +
STACK CFI a5dbc .cfa: x29 64 +
STACK CFI INIT a6020 440 .cfa: sp 0 +
STACK CFI a6024 .cfa: sp 80 +
STACK CFI a6038 .cfa: x29 80 + x19: .cfa -8 + ^ x20: .cfa -16 + ^ x21: .cfa -24 + ^ x22: .cfa -32 + ^ x23: .cfa -40 + ^ x24: .cfa -48 + ^ x25: .cfa -56 + ^ x28: .cfa -64 + ^ .ra: .cfa -72 + ^ x29: .cfa -80 + ^
STACK CFI a63d4 .cfa: sp 80 +
STACK CFI a63e8 .cfa: sp 0 +
STACK CFI a63ec .cfa: x29 80 +
STACK CFI INIT a6ebc 1470 .cfa: sp 0 +
STACK CFI a6ec0 .cfa: sp 96 +
STACK CFI a6ed8 .cfa: x29 96 + x19: .cfa -8 + ^ x20: .cfa -16 + ^ x21: .cfa -24 + ^ x22: .cfa -32 + ^ x23: .cfa -40 + ^ x24: .cfa -48 + ^ x25: .cfa -56 + ^ x26: .cfa -64 + ^ x27: .cfa -72 + ^ x28: .cfa -80 + ^ .ra: .cfa -88 + ^ x29: .cfa -96 + ^
STACK CFI a805c .cfa: sp 96 +
STACK CFI a8074 .cfa: sp 0 +
STACK CFI a8078 .cfa: x29 96 +
STACK CFI INIT a8a44 5b4 .cfa: sp 0 +
STACK CFI a8a48 .cfa: sp 304 +
STACK CFI a8a64 .cfa: x29 96 + x19: .cfa -8 + ^ x20: .cfa -16 + ^ x21: .cfa -24 + ^ x22: .cfa -32 + ^ x23: .cfa -40 + ^ x24: .cfa -48 + ^ x25: .cfa -56 + ^ x26: .cfa -64 + ^ x27: .cfa -72 + ^ x28: .cfa -80 + ^ .ra: .cfa -88 + ^ x29: .cfa -96 + ^
STACK CFI a8f7c .cfa: sp 304 +
STACK CFI a8f98 .cfa: sp 0 +
STACK CFI a8f9c .cfa: x29 96 +
STACK CFI INIT a8ff8 674 .cfa: sp 0 +
STACK CFI a8ffc .cfa: sp 288 +
STACK CFI a9018 .cfa: x29 96 + x19: .cfa -8 + ^ x20: .cfa -16 + ^ x21: .cfa -24 + ^ x22: .cfa -32 + ^ x23: .cfa -40 + ^ x24: .cfa -48 + ^ x25: .cfa -56 + ^ x26: .cfa -64 + ^ x27: .cfa -72 + ^ x28: .cfa -80 + ^ .ra: .cfa -88 + ^ x29: .cfa -96 + ^
STACK CFI a9568 .cfa: sp 288 +
STACK CFI a9584 .cfa: sp 0 +
STACK CFI a9588 .cfa: x29 96 +
STACK CFI INIT a9a90 428 .cfa: sp 0 +
STACK CFI a9a94 .cfa: sp 96 +
STACK CFI a9aac .cfa: x29 96 + x19: .cfa -8 + ^ x20: .cfa -16 + ^ x21: .cfa -24 + ^ x22: .cfa -32 + ^ x23: .cfa -40 + ^ x24: .cfa -48 + ^ x25: .cfa -56 + ^ x26: .cfa -64 + ^ x28: .cfa -80 + ^ .ra: .cfa -88 + ^ x29: .cfa -96 + ^
STACK CFI a9e64 .cfa: sp 96 +
STACK CFI a9e7c .cfa: sp 0 +
STACK CFI a9e80 .cfa: x29 96 +
STACK CFI INIT aa024 22c .cfa: sp 0 +
STACK CFI aa028 .cfa: sp 96 +
STACK CFI aa040 .cfa: x29 96 + x19: .cfa -8 + ^ x20: .cfa -16 + ^ x21: .cfa -24 + ^ x22: .cfa -32 + ^ x23: .cfa -40 + ^ x24: .cfa -48 + ^ x25: .cfa -56 + ^ x26: .cfa -64 + ^ x27: .cfa -72 + ^ x28: .cfa -80 + ^ .ra: .cfa -88 + ^ x29: .cfa -96 + ^
STACK CFI aa1cc .cfa: sp 96 +
STACK CFI aa1e4 .cfa: sp 0 +
STACK CFI aa1e8 .cfa: x29 96 +
STACK CFI aa200 .cfa: sp 96 +
STACK CFI aa218 .cfa: sp 0 +
STACK CFI aa21c .cfa: x29 96 +
STACK CFI INIT ae044 3f0 .cfa: sp 0 +
STACK CFI ae048 .cfa: sp 80 +
STACK CFI ae060 .cfa: x29 72 + x19: .cfa -8 + ^ x20: .cfa -16 + ^ x21: .cfa -24 + ^ x22: .cfa -32 + ^ x23: .cfa -40 + ^ x24: .cfa -48 + ^ x28: .cfa -56 + ^ .ra: .cfa -64 + ^ x29: .cfa -72 + ^ v8: .cfa -80 + ^
STACK CFI ae3a4 .cfa: sp 80 +
STACK CFI ae3bc .cfa: sp 0 +
STACK CFI ae3c0 .cfa: x29 72 +
STACK CFI INIT ae994 804 .cfa: sp 0 +
STACK CFI ae998 .cfa: sp 144 +
STACK CFI ae9b0 .cfa: x29 80 + x19: .cfa -8 + ^ x20: .cfa -16 + ^ x21: .cfa -24 + ^ x22: .cfa -32 + ^ x23: .cfa -40 + ^ x24: .cfa -48 + ^ x25: .cfa -64 + ^ .ra: .cfa -72 + ^ x29: .cfa -80 + ^
STACK CFI af0f0 .cfa: sp 144 +
STACK CFI af108 .cfa: sp 0 +
STACK CFI af10c .cfa: x29 80 +
STACK CFI INIT af36c 3ec .cfa: sp 0 +
STACK CFI af370 .cfa: sp 80 +
STACK CFI af388 .cfa: x29 72 + x19: .cfa -8 + ^ x20: .cfa -16 + ^ x21: .cfa -24 + ^ x22: .cfa -32 + ^ x23: .cfa -40 + ^ x24: .cfa -48 + ^ x28: .cfa -56 + ^ .ra: .cfa -64 + ^ x29: .cfa -72 + ^ v8: .cfa -80 + ^
STACK CFI af6c8 .cfa: sp 80 +
STACK CFI af6e0 .cfa: sp 0 +
STACK CFI af6e4 .cfa: x29 72 +
STACK CFI INIT af758 16c .cfa: sp 0 +
STACK CFI af75c .cfa: sp 384 +
STACK CFI af774 .cfa: x29 80 + x19: .cfa -8 + ^ x20: .cfa -16 + ^ x21: .cfa -24 + ^ x22: .cfa -32 + ^ x23: .cfa -40 + ^ x24: .cfa -48 + ^ x28: .cfa -64 + ^ .ra: .cfa -72 + ^ x29: .cfa -80 + ^
STACK CFI af834 .cfa: sp 384 +
STACK CFI af84c .cfa: sp 0 +
STACK CFI af850 .cfa: x29 80 +
STACK CFI INIT af8c4 90 .cfa: sp 0 +
STACK CFI af8c8 .cfa: sp 64 +
STACK CFI af8d8 .cfa: x29 64 + x19: .cfa -8 + ^ x20: .cfa -16 + ^ x21: .cfa -24 + ^ x22: .cfa -32 + ^ x23: .cfa -48 + ^ .ra: .cfa -56 + ^ x29: .cfa -64 + ^
STACK CFI af93c .cfa: sp 64 +
STACK CFI af94c .cfa: sp 0 +
STACK CFI af950 .cfa: x29 64 +
STACK CFI INIT af9ec 2dc .cfa: sp 0 +
STACK CFI af9f0 .cfa: sp 224 +
STACK CFI afa0c .cfa: x29 96 + x19: .cfa -8 + ^ x20: .cfa -16 + ^ x21: .cfa -24 + ^ x22: .cfa -32 + ^ x23: .cfa -40 + ^ x24: .cfa -48 + ^ x25: .cfa -56 + ^ x26: .cfa -64 + ^ x27: .cfa -80 + ^ .ra: .cfa -88 + ^ x29: .cfa -96 + ^
STACK CFI afc08 .cfa: sp 224 +
STACK CFI afc24 .cfa: sp 0 +
STACK CFI afc28 .cfa: x29 96 +
STACK CFI INIT afcc8 2b8 .cfa: sp 0 +
STACK CFI afccc .cfa: sp 224 +
STACK CFI afce8 .cfa: x29 96 + x19: .cfa -8 + ^ x20: .cfa -16 + ^ x21: .cfa -24 + ^ x22: .cfa -32 + ^ x23: .cfa -40 + ^ x24: .cfa -48 + ^ x25: .cfa -56 + ^ x26: .cfa -64 + ^ x27: .cfa -80 + ^ .ra: .cfa -88 + ^ x29: .cfa -96 + ^
STACK CFI afec0 .cfa: sp 224 +
STACK CFI afedc .cfa: sp 0 +
STACK CFI afee0 .cfa: x29 96 +
STACK CFI INIT aff80 2dc .cfa: sp 0 +
STACK CFI aff84 .cfa: sp 224 +
STACK CFI affa0 .cfa: x29 96 + x19: .cfa -8 + ^ x20: .cfa -16 + ^ x21: .cfa -24 + ^ x22: .cfa -32 + ^ x23: .cfa -40 + ^ x24: .cfa -48 + ^ x25: .cfa -56 + ^ x26: .cfa -64 + ^ x27: .cfa -80 + ^ .ra: .cfa -88 + ^ x29: .cfa -96 + ^
STACK CFI b019c .cfa: sp 224 +
STACK CFI b01b8 .cfa: sp 0 +
STACK CFI b01bc .cfa: x29 96 +
STACK CFI INIT b025c 2b8 .cfa: sp 0 +
STACK CFI b0260 .cfa: sp 224 +
STACK CFI b027c .cfa: x29 96 + x19: .cfa -8 + ^ x20: .cfa -16 + ^ x21: .cfa -24 + ^ x22: .cfa -32 + ^ x23: .cfa -40 + ^ x24: .cfa -48 + ^ x25: .cfa -56 + ^ x26: .cfa -64 + ^ x27: .cfa -80 + ^ .ra: .cfa -88 + ^ x29: .cfa -96 + ^
STACK CFI b0454 .cfa: sp 224 +
STACK CFI b0470 .cfa: sp 0 +
STACK CFI b0474 .cfa: x29 96 +
STACK CFI INIT b0514 2e8 .cfa: sp 0 +
STACK CFI b0518 .cfa: sp 224 +
STACK CFI b0534 .cfa: x29 96 + x19: .cfa -8 + ^ x20: .cfa -16 + ^ x21: .cfa -24 + ^ x22: .cfa -32 + ^ x23: .cfa -40 + ^ x24: .cfa -48 + ^ x25: .cfa -56 + ^ x26: .cfa -64 + ^ x27: .cfa -72 + ^ x28: .cfa -80 + ^ .ra: .cfa -88 + ^ x29: .cfa -96 + ^
STACK CFI b073c .cfa: sp 224 +
STACK CFI b0758 .cfa: sp 0 +
STACK CFI b075c .cfa: x29 96 +
STACK CFI INIT b07fc 2c0 .cfa: sp 0 +
STACK CFI b0800 .cfa: sp 224 +
STACK CFI b081c .cfa: x29 96 + x19: .cfa -8 + ^ x20: .cfa -16 + ^ x21: .cfa -24 + ^ x22: .cfa -32 + ^ x23: .cfa -40 + ^ x24: .cfa -48 + ^ x25: .cfa -56 + ^ x26: .cfa -64 + ^ x27: .cfa -72 + ^ x28: .cfa -80 + ^ .ra: .cfa -88 + ^ x29: .cfa -96 + ^
STACK CFI b09fc .cfa: sp 224 +
STACK CFI b0a18 .cfa: sp 0 +
STACK CFI b0a1c .cfa: x29 96 +
STACK CFI INIT b0abc 5f8 .cfa: sp 0 +
STACK CFI b0ac0 .cfa: sp 96 +
STACK CFI b0ad8 .cfa: x29 96 + x19: .cfa -8 + ^ x20: .cfa -16 + ^ x21: .cfa -24 + ^ x22: .cfa -32 + ^ x23: .cfa -40 + ^ x24: .cfa -48 + ^ x25: .cfa -56 + ^ x26: .cfa -64 + ^ x27: .cfa -72 + ^ x28: .cfa -80 + ^ .ra: .cfa -88 + ^ x29: .cfa -96 + ^
STACK CFI b1040 .cfa: sp 96 +
STACK CFI b1058 .cfa: sp 0 +
STACK CFI b105c .cfa: x29 96 +
STACK CFI INIT b11b0 770 .cfa: sp 0 +
STACK CFI b11b4 .cfa: sp 96 +
STACK CFI b11cc .cfa: x29 96 + x19: .cfa -8 + ^ x20: .cfa -16 + ^ x21: .cfa -24 + ^ x22: .cfa -32 + ^ x23: .cfa -40 + ^ x24: .cfa -48 + ^ x25: .cfa -56 + ^ x26: .cfa -64 + ^ x27: .cfa -72 + ^ x28: .cfa -80 + ^ .ra: .cfa -88 + ^ x29: .cfa -96 + ^
STACK CFI b18ac .cfa: sp 96 +
STACK CFI b18c4 .cfa: sp 0 +
STACK CFI b18c8 .cfa: x29 96 +
