MODULE Linux arm64 6219B5E7BF8542B62C5288A1E276E7690 alphalaneous.hide.android64.so
INFO CODE_ID E7B5196285BFB6422C5288A1E276E7694C01A28D
INFO GENERATOR mozilla/dump_syms 2.3.4
PUBLIC 5f90 0 __on_dlclose
PUBLIC 5fa0 0 __emutls_unregister_key
PUBLIC 5fa8 0 __on_dlclose_late
PUBLIC 5fb0 0 __atexit_handler_wrapper
PUBLIC 5fc4 0 atexit
PUBLIC 5fe0 0 pthread_atfork
PUBLIC 5ff0 0 unwind_phase2
PUBLIC 6124 0 _Unwind_Resume
PUBLIC 61a8 0 unwind_phase2_forced
PUBLIC m 629c 0 __unw_init_local
PUBLIC m 6344 0 __unw_get_reg
PUBLIC 63c0 0 __unw_step_stage2
PUBLIC m 63d4 0 __unw_get_proc_info
PUBLIC m 6414 0 __unw_resume
PUBLIC 643c 0 libunwind::CFI_Parser<libunwind::LocalAddressSpace>::decodeFDE(libunwind::LocalAddressSpace&, unsigned long, libunwind::CFI_Parser<libunwind::LocalAddressSpace>::FDE_Info*, libunwind::CFI_Parser<libunwind::LocalAddressSpace>::CIE_Info*, bool)
PUBLIC 65cc 0 libunwind::CFI_Parser<libunwind::LocalAddressSpace>::parseCIE(libunwind::LocalAddressSpace&, unsigned long, libunwind::CFI_Parser<libunwind::LocalAddressSpace>::CIE_Info*)
PUBLIC 6894 0 libunwind::AbstractUnwindCursor::~AbstractUnwindCursor()
PUBLIC 689c 0 libunwind::UnwindCursor<libunwind::LocalAddressSpace, libunwind::Registers_arm64>::~UnwindCursor()
PUBLIC 68a4 0 libunwind::UnwindCursor<libunwind::LocalAddressSpace, libunwind::Registers_arm64>::validReg(int)
PUBLIC 68e8 0 libunwind::UnwindCursor<libunwind::LocalAddressSpace, libunwind::Registers_arm64>::getReg(int)
PUBLIC 69d0 0 libunwind::UnwindCursor<libunwind::LocalAddressSpace, libunwind::Registers_arm64>::setReg(int, unsigned long)
PUBLIC 6ab8 0 libunwind::UnwindCursor<libunwind::LocalAddressSpace, libunwind::Registers_arm64>::validFloatReg(int)
PUBLIC 6acc 0 libunwind::UnwindCursor<libunwind::LocalAddressSpace, libunwind::Registers_arm64>::getFloatReg(int)
PUBLIC 6adc 0 libunwind::UnwindCursor<libunwind::LocalAddressSpace, libunwind::Registers_arm64>::setFloatReg(int, double)
PUBLIC 6aec 0 libunwind::UnwindCursor<libunwind::LocalAddressSpace, libunwind::Registers_arm64>::step(bool)
PUBLIC 6bdc 0 libunwind::UnwindCursor<libunwind::LocalAddressSpace, libunwind::Registers_arm64>::getInfo(unw_proc_info_t*)
PUBLIC 6c20 0 libunwind::UnwindCursor<libunwind::LocalAddressSpace, libunwind::Registers_arm64>::jumpto()
PUBLIC 6c2c 0 libunwind::UnwindCursor<libunwind::LocalAddressSpace, libunwind::Registers_arm64>::isSignalFrame()
PUBLIC 6c38 0 libunwind::UnwindCursor<libunwind::LocalAddressSpace, libunwind::Registers_arm64>::getFunctionName(char*, unsigned long, unsigned long*)
PUBLIC 6c64 0 libunwind::UnwindCursor<libunwind::LocalAddressSpace, libunwind::Registers_arm64>::setInfoBasedOnIPRegister(bool)
PUBLIC 6ee4 0 libunwind::UnwindCursor<libunwind::LocalAddressSpace, libunwind::Registers_arm64>::getRegisterName(int)
PUBLIC 6ef0 0 libunwind::UnwindCursor<libunwind::LocalAddressSpace, libunwind::Registers_arm64>::stepThroughSigReturn(libunwind::Registers_arm64&)
PUBLIC 7010 0 libunwind::DwarfInstructions<libunwind::LocalAddressSpace, libunwind::Registers_arm64>::stepWithDwarf(libunwind::LocalAddressSpace&, unsigned long, unsigned long, libunwind::Registers_arm64&, bool&, bool)
PUBLIC 7498 0 libunwind::CFI_Parser<libunwind::LocalAddressSpace>::parseFDEInstructions(libunwind::LocalAddressSpace&, libunwind::CFI_Parser<libunwind::LocalAddressSpace>::FDE_Info const&, libunwind::CFI_Parser<libunwind::LocalAddressSpace>::CIE_Info const&, unsigned long, int, libunwind::CFI_Parser<libunwind::LocalAddressSpace>::PrologInfo*)
PUBLIC 80e0 0 libunwind::DwarfInstructions<libunwind::LocalAddressSpace, libunwind::Registers_arm64>::getCFA(libunwind::LocalAddressSpace&, libunwind::CFI_Parser<libunwind::LocalAddressSpace>::PrologInfo const&, libunwind::Registers_arm64 const&)
PUBLIC 8214 0 libunwind::DwarfInstructions<libunwind::LocalAddressSpace, libunwind::Registers_arm64>::getSavedRegister(libunwind::LocalAddressSpace&, libunwind::Registers_arm64 const&, unsigned long, libunwind::CFI_Parser<libunwind::LocalAddressSpace>::RegisterLocation const&)
PUBLIC 8424 0 libunwind::LocalAddressSpace::getEncodedP(unsigned long&, unsigned long, unsigned char, unsigned long)
PUBLIC 87b0 0 libunwind::LocalAddressSpace::getULEB128(unsigned long&, unsigned long)
PUBLIC 8978 0 libunwind::DwarfInstructions<libunwind::LocalAddressSpace, libunwind::Registers_arm64>::evaluateExpression(unsigned long, libunwind::LocalAddressSpace&, libunwind::Registers_arm64 const&, unsigned long)
PUBLIC 9334 0 libunwind::UnwindCursor<libunwind::LocalAddressSpace, libunwind::Registers_arm64>::getInfoFromDwarfSection(unsigned long, libunwind::UnwindInfoSections const&, unsigned int)
PUBLIC 9608 0 libunwind::findUnwindSectionsByPhdr(dl_phdr_info*, unsigned long, void*)
PUBLIC 973c 0 libunwind::EHHeaderParser<libunwind::LocalAddressSpace>::decodeEHHdr(libunwind::LocalAddressSpace&, unsigned long, unsigned long, libunwind::EHHeaderParser<libunwind::LocalAddressSpace>::EHHeaderInfo&)
PUBLIC 985c 0 libunwind::CFI_Parser<libunwind::LocalAddressSpace>::findFDE(libunwind::LocalAddressSpace&, unsigned long, unsigned long, unsigned long, unsigned long, libunwind::CFI_Parser<libunwind::LocalAddressSpace>::FDE_Info*, libunwind::CFI_Parser<libunwind::LocalAddressSpace>::CIE_Info*)
PUBLIC 9a24 0 libunwind::EHHeaderParser<libunwind::LocalAddressSpace>::findFDE(libunwind::LocalAddressSpace&, unsigned long, unsigned long, unsigned int, libunwind::CFI_Parser<libunwind::LocalAddressSpace>::FDE_Info*, libunwind::CFI_Parser<libunwind::LocalAddressSpace>::CIE_Info*)
PUBLIC 9b8c 0 libunwind::EHHeaderParser<libunwind::LocalAddressSpace>::getTableEntrySize(unsigned char)
PUBLIC 9c88 0 libunwind::Registers_arm64::getRegisterName(int)
PUBLIC 9cb8 0 __libunwind_Registers_arm64_jumpto
PUBLIC m 9d48 0 __unw_getcontext
PUBLIC 9df0 0 __aarch64_ldadd8_relax
PUBLIC 9e20 0 init_have_lse_atomics
PUBLIC 9eb8 0 __init_cpu_features_constructor
PUBLIC a454 0 __init_cpu_features
PUBLIC a4e0 0 __aarch64_ldadd8_acq_rel
PUBLIC a510 0 __cxx_global_var_init
PUBLIC ac20 0 geode::modifier::ModifyBase<geode::modifier::ModifyDerive<MyEditLevelLayer, EditLevelLayer> >::~ModifyBase()
PUBLIC ac38 0 __cxx_global_var_init.1
PUBLIC b0bc 0 geode::modifier::ModifyBase<geode::modifier::ModifyDerive<MyCCKeyboardDispatcher, cocos2d::CCKeyboardDispatcher> >::~ModifyBase()
PUBLIC b0d4 0 geode::modifier::ModifyDerive<MyEditLevelLayer, EditLevelLayer>::apply()
PUBLIC b42c 0 std::__ndk1::shared_ptr<geode::Hook>::~shared_ptr[abi:ne180000]()
PUBLIC b47c 0 geode::impl::ResultData<geode::Hook*, std::__ndk1::basic_string<char, std::__ndk1::char_traits<char>, std::__ndk1::allocator<char> > >::~ResultData()
PUBLIC b4f0 0 std::__ndk1::vector<std::__ndk1::basic_string<char, std::__ndk1::char_traits<char>, std::__ndk1::allocator<char> >, std::__ndk1::allocator<std::__ndk1::basic_string<char, std::__ndk1::char_traits<char>, std::__ndk1::allocator<char> > > >::~vector[abi:ne180000]()
PUBLIC b56c 0 geode::modifier::ModifyBase<geode::modifier::ModifyDerive<MyEditLevelLayer, EditLevelLayer> >::apply()
PUBLIC b570 0 __clang_call_terminate
PUBLIC b580 0 std::__ndk1::basic_string<char, std::__ndk1::char_traits<char>, std::__ndk1::allocator<char> >::__throw_length_error[abi:ne180000]() const
PUBLIC b594 0 std::__ndk1::__throw_length_error[abi:ne180000](char const*)
PUBLIC b5e4 0 std::length_error::length_error[abi:ne180000](char const*)
PUBLIC b614 0 std::__throw_bad_array_new_length([abi:ne180000], void)
PUBLIC b648 0 std::__ndk1::__tree<std::__ndk1::__value_type<std::__ndk1::basic_string<char, std::__ndk1::char_traits<char>, std::__ndk1::allocator<char> >, std::__ndk1::shared_ptr<geode::Hook> >, std::__ndk1::__map_value_compare<std::__ndk1::basic_string<char, std::__ndk1::char_traits<char>, std::__ndk1::allocator<char> >, std::__ndk1::__value_type<std::__ndk1::basic_string<char, std::__ndk1::char_traits<char>, std::__ndk1::allocator<char> >, std::__ndk1::shared_ptr<geode::Hook> >, std::__ndk1::less<std::__ndk1::basic_string<char, std::__ndk1::char_traits<char>, std::__ndk1::allocator<char> > >, true>, std::__ndk1::allocator<std::__ndk1::__value_type<std::__ndk1::basic_string<char, std::__ndk1::char_traits<char>, std::__ndk1::allocator<char> >, std::__ndk1::shared_ptr<geode::Hook> > > >::find<std::__ndk1::basic_string<char, std::__ndk1::char_traits<char>, std::__ndk1::allocator<char> > >(std::__ndk1::basic_string<char, std::__ndk1::char_traits<char>, std::__ndk1::allocator<char> > const&)
PUBLIC b768 0 std::__ndk1::basic_string<char, std::__ndk1::char_traits<char>, std::__ndk1::allocator<char> >::__init_copy_ctor_external(char const*, unsigned long)
PUBLIC b7e4 0 std::__ndk1::__tree_balance_after_insert[abi:ne180000]<std::__ndk1::__tree_node_base<void*>*>(std::__ndk1::__tree_node_base<void*>*, std::__ndk1::__tree_node_base<void*>*)
PUBLIC b994 0 _ZN5geode15UnwrapExceptionC2IRPNS_4HookEQsr4implE18IsStringStreamableIT_EEENS_4impl5OkTagEOS5_
PUBLIC bae8 0 std::__ndk1::__throw_bad_variant_access[abi:ne180000]()
PUBLIC bb1c 0 std::__ndk1::basic_stringstream<char, std::__ndk1::char_traits<char>, std::__ndk1::allocator<char> >::basic_stringstream[abi:ne180000]()
PUBLIC m bc48 0 std::__ndk1::basic_stringstream<char, std::__ndk1::char_traits<char>, std::__ndk1::allocator<char> >::~basic_stringstream()
PUBLIC bcc8 0 geode::UnwrapException::~UnwrapException()
PUBLIC bcec 0 std::__ndk1::__put_character_sequence[abi:ne180000]<char, std::__ndk1::char_traits<char> >(std::__ndk1::basic_ostream<char, std::__ndk1::char_traits<char> >, std::__ndk1::basic_ostream const*, unsigned long)
PUBLIC bfc4 0 std::__ndk1::basic_stringbuf<char, std::__ndk1::char_traits<char>, std::__ndk1::allocator<char> >::str[abi:ne180000]() &&
PUBLIC c25c 0 std::__ndk1::__variant_detail::__visitation::__base::__dispatcher<(unsigned long)0>::__dispatch[abi:ne180000]<std::__ndk1::__variant_detail::__dtor<std::__ndk1::__variant_detail::__traits<std::__ndk1::monostate, std::__ndk1::basic_string<char, std::__ndk1::char_traits<char>, std::__ndk1::allocator<char> > >, (std::__ndk1::__variant_detail::_Trait)1>::__destroy[abi:ne180000]()::{lambda(auto:1&)#1}, std::__ndk1::__variant_detail::__base<(std::__ndk1::__variant_detail::__traits<std::__ndk1::monostate, std::__ndk1::basic_string<char, std::__ndk1::char_traits<char>, std::__ndk1::allocator<char> > >)1, std::__ndk1::__variant_detail::__traits, std::__ndk1::allocator<char> >&>(std::__ndk1::__variant_detail::__dtor<std::__ndk1::__variant_detail::__traits<std::__ndk1::monostate, std::__ndk1::basic_string<char, std::__ndk1::char_traits<char>, std::__ndk1::allocator<char> > >, (std::__ndk1::__variant_detail::_Trait)1>, std::__ndk1::__variant_detail::__base<(std::__ndk1::__variant_detail::__traits<std::__ndk1::monostate, std::__ndk1::basic_string<char, std::__ndk1::char_traits<char>, std::__ndk1::allocator<char> > >)1, std::__ndk1::__variant_detail::__traits, std::__ndk1::allocator<char> >&)
PUBLIC c260 0 std::__ndk1::__variant_detail::__visitation::__base::__dispatcher<(unsigned long)1>::__dispatch[abi:ne180000]<std::__ndk1::__variant_detail::__dtor<std::__ndk1::__variant_detail::__traits<std::__ndk1::monostate, std::__ndk1::basic_string<char, std::__ndk1::char_traits<char>, std::__ndk1::allocator<char> > >, (std::__ndk1::__variant_detail::_Trait)1>::__destroy[abi:ne180000]()::{lambda(auto:1&)#1}, std::__ndk1::__variant_detail::__base<(std::__ndk1::__variant_detail::__traits<std::__ndk1::monostate, std::__ndk1::basic_string<char, std::__ndk1::char_traits<char>, std::__ndk1::allocator<char> > >)1, std::__ndk1::__variant_detail::__traits, std::__ndk1::allocator<char> >&>(std::__ndk1::__variant_detail::__dtor<std::__ndk1::__variant_detail::__traits<std::__ndk1::monostate, std::__ndk1::basic_string<char, std::__ndk1::char_traits<char>, std::__ndk1::allocator<char> > >, (std::__ndk1::__variant_detail::_Trait)1>, std::__ndk1::__variant_detail::__base<(std::__ndk1::__variant_detail::__traits<std::__ndk1::monostate, std::__ndk1::basic_string<char, std::__ndk1::char_traits<char>, std::__ndk1::allocator<char> > >)1, std::__ndk1::__variant_detail::__traits, std::__ndk1::allocator<char> >&)
PUBLIC c274 0 std::__ndk1::vector<std::__ndk1::basic_string<char, std::__ndk1::char_traits<char>, std::__ndk1::allocator<char> >, std::__ndk1::allocator<std::__ndk1::basic_string<char, std::__ndk1::char_traits<char>, std::__ndk1::allocator<char> > > >::__push_back_slow_path<std::__ndk1::basic_string<char, std::__ndk1::char_traits<char>, std::__ndk1::allocator<char> > const&>(std::__ndk1::basic_string<char, std::__ndk1::char_traits<char>, std::__ndk1::allocator<char> > const&)
PUBLIC c498 0 std::__ndk1::__split_buffer<std::__ndk1::basic_string<char, std::__ndk1::char_traits<char>, std::__ndk1::allocator<char> >, std::__ndk1::allocator<std::__ndk1::basic_string<char, std::__ndk1::char_traits<char>, std::__ndk1::allocator<char> > >&>::~__split_buffer()
PUBLIC c500 0 std::__ndk1::vector<std::__ndk1::basic_string<char, std::__ndk1::char_traits<char>, std::__ndk1::allocator<char> >, std::__ndk1::allocator<std::__ndk1::basic_string<char, std::__ndk1::char_traits<char>, std::__ndk1::allocator<char> > > >::__throw_length_error[abi:ne180000]() const
PUBLIC c514 0 std::__ndk1::__variant_detail::__visitation::__base::__dispatcher<(unsigned long)0>::__dispatch[abi:ne180000]<std::__ndk1::__variant_detail::__dtor<std::__ndk1::__variant_detail::__traits<geode::Hook*, std::__ndk1::basic_string<char, std::__ndk1::char_traits<char>, std::__ndk1::allocator<char> > >, (std::__ndk1::__variant_detail::_Trait)1>::__destroy[abi:ne180000]()::{lambda(auto:1&)#1}, std::__ndk1::__variant_detail::__base<(std::__ndk1::__variant_detail::__traits<geode::Hook*, std::__ndk1::basic_string<char, std::__ndk1::char_traits<char>, std::__ndk1::allocator<char> > >)1, geode::Hook, std::__ndk1::allocator<char> >&>(std::__ndk1::__variant_detail::__dtor<std::__ndk1::__variant_detail::__traits<geode::Hook*, std::__ndk1::basic_string<char, std::__ndk1::char_traits<char>, std::__ndk1::allocator<char> > >, (std::__ndk1::__variant_detail::_Trait)1>, std::__ndk1::__variant_detail::__base<(std::__ndk1::__variant_detail::__traits<geode::Hook*, std::__ndk1::basic_string<char, std::__ndk1::char_traits<char>, std::__ndk1::allocator<char> > >)1, geode::Hook, std::__ndk1::allocator<char> >&)
PUBLIC c518 0 std::__ndk1::__variant_detail::__visitation::__base::__dispatcher<(unsigned long)1>::__dispatch[abi:ne180000]<std::__ndk1::__variant_detail::__dtor<std::__ndk1::__variant_detail::__traits<geode::Hook*, std::__ndk1::basic_string<char, std::__ndk1::char_traits<char>, std::__ndk1::allocator<char> > >, (std::__ndk1::__variant_detail::_Trait)1>::__destroy[abi:ne180000]()::{lambda(auto:1&)#1}, std::__ndk1::__variant_detail::__base<(std::__ndk1::__variant_detail::__traits<geode::Hook*, std::__ndk1::basic_string<char, std::__ndk1::char_traits<char>, std::__ndk1::allocator<char> > >)1, geode::Hook, std::__ndk1::allocator<char> >&>(std::__ndk1::__variant_detail::__dtor<std::__ndk1::__variant_detail::__traits<geode::Hook*, std::__ndk1::basic_string<char, std::__ndk1::char_traits<char>, std::__ndk1::allocator<char> > >, (std::__ndk1::__variant_detail::_Trait)1>, std::__ndk1::__variant_detail::__base<(std::__ndk1::__variant_detail::__traits<geode::Hook*, std::__ndk1::basic_string<char, std::__ndk1::char_traits<char>, std::__ndk1::allocator<char> > >)1, geode::Hook, std::__ndk1::allocator<char> >&)
PUBLIC c52c 0 std::__ndk1::__tree<std::__ndk1::__value_type<std::__ndk1::basic_string<char, std::__ndk1::char_traits<char>, std::__ndk1::allocator<char> >, std::__ndk1::shared_ptr<geode::Hook> >, std::__ndk1::__map_value_compare<std::__ndk1::basic_string<char, std::__ndk1::char_traits<char>, std::__ndk1::allocator<char> >, std::__ndk1::__value_type<std::__ndk1::basic_string<char, std::__ndk1::char_traits<char>, std::__ndk1::allocator<char> >, std::__ndk1::shared_ptr<geode::Hook> >, std::__ndk1::less<std::__ndk1::basic_string<char, std::__ndk1::char_traits<char>, std::__ndk1::allocator<char> > >, true>, std::__ndk1::allocator<std::__ndk1::__value_type<std::__ndk1::basic_string<char, std::__ndk1::char_traits<char>, std::__ndk1::allocator<char> >, std::__ndk1::shared_ptr<geode::Hook> > > >::erase(std::__ndk1::__tree_const_iterator<std::__ndk1::__value_type<std::__ndk1::basic_string<char, std::__ndk1::char_traits<char>, std::__ndk1::allocator<char> >, std::__ndk1::shared_ptr<geode::Hook> >, std::__ndk1::__tree_node<std::__ndk1::__value_type<std::__ndk1::basic_string<char, std::__ndk1::char_traits<char>, std::__ndk1::allocator<char> >, std::__ndk1::shared_ptr<geode::Hook> >, void*>*, long>)
PUBLIC c9d0 0 std::__ndk1::__tree<std::__ndk1::__value_type<std::__ndk1::basic_string<char, std::__ndk1::char_traits<char>, std::__ndk1::allocator<char> >, std::__ndk1::shared_ptr<geode::Hook> >, std::__ndk1::__map_value_compare<std::__ndk1::basic_string<char, std::__ndk1::char_traits<char>, std::__ndk1::allocator<char> >, std::__ndk1::__value_type<std::__ndk1::basic_string<char, std::__ndk1::char_traits<char>, std::__ndk1::allocator<char> >, std::__ndk1::shared_ptr<geode::Hook> >, std::__ndk1::less<std::__ndk1::basic_string<char, std::__ndk1::char_traits<char>, std::__ndk1::allocator<char> > >, true>, std::__ndk1::allocator<std::__ndk1::__value_type<std::__ndk1::basic_string<char, std::__ndk1::char_traits<char>, std::__ndk1::allocator<char> >, std::__ndk1::shared_ptr<geode::Hook> > > >::destroy(std::__ndk1::__tree_node<std::__ndk1::__value_type<std::__ndk1::basic_string<char, std::__ndk1::char_traits<char>, std::__ndk1::allocator<char> >, std::__ndk1::shared_ptr<geode::Hook> >, void*>*)
PUBLIC ca54 0 geode::modifier::AsStaticFunction_init<MyEditLevelLayer, bool (MyEditLevelLayer::*)(GJGameLevel*)>::Impl<bool (MyEditLevelLayer::*)(GJGameLevel*)>::function(MyEditLevelLayer*, GJGameLevel*)
PUBLIC cd84 0 std::__ndk1::shared_ptr<tulip::hook::CallingConvention>::~shared_ptr[abi:ne180000]()
PUBLIC cdd4 0 tulip::hook::HandlerMetadata::~HandlerMetadata()
PUBLIC ce38 0 geode::modifier::FieldIntermediate<MyEditLevelLayer, EditLevelLayer>::self()
PUBLIC d484 0 geode::modifier::FieldIntermediate<MyEditLevelLayer, EditLevelLayer>::fieldDestructor(void*)
PUBLIC d488 0 std::__ndk1::vector<void*, std::__ndk1::allocator<void*> >::__throw_length_error[abi:ne180000]() const
PUBLIC d49c 0 std::__ndk1::vector<std::__ndk1::function<void (void*)>, std::__ndk1::allocator<std::__ndk1::function<void (void*)> > >::__throw_length_error[abi:ne180000]() const
PUBLIC d4b0 0 std::__ndk1::vector<void*, std::__ndk1::allocator<void*> >::__throw_out_of_range[abi:ne180000]() const
PUBLIC d4bc 0 std::__ndk1::__throw_out_of_range[abi:ne180000](char const*)
PUBLIC d504 0 std::out_of_range::out_of_range[abi:ne180000](char const*)
PUBLIC d53c 0 std::__ndk1::vector<std::__ndk1::function<void (void*)>, std::__ndk1::allocator<std::__ndk1::function<void (void*)> > >::__throw_out_of_range[abi:ne180000]() const
PUBLIC d548 0 std::__ndk1::__function::__base<void (void*)>::~__base()
PUBLIC d54c 0 std::__ndk1::__function::__func<void (*)(void*), std::__ndk1::allocator<void (*)(void*)>, void (void*)>::~__func()
PUBLIC d550 0 std::__ndk1::__function::__func<void (*)(void*), std::__ndk1::allocator<void (*)(void*)>, void (void*)>::__clone() const
PUBLIC d588 0 std::__ndk1::__function::__func<void (*)(void*), std::__ndk1::allocator<void (*)(void*)>, void (void*)>::__clone(std::__ndk1::__function::__base<void (void*)>*) const
PUBLIC d5a0 0 std::__ndk1::__function::__func<void (*)(void*), std::__ndk1::allocator<void (*)(void*)>, void (void*)>::destroy()
PUBLIC d5a4 0 std::__ndk1::__function::__func<void (*)(void*), std::__ndk1::allocator<void (*)(void*)>, void (void*)>::destroy_deallocate()
PUBLIC d5a8 0 std::__ndk1::__function::__func<void (*)(void*), std::__ndk1::allocator<void (*)(void*)>, void (void*)>::operator()(void*&&)
PUBLIC d5b8 0 std::__ndk1::__function::__func<void (*)(void*), std::__ndk1::allocator<void (*)(void*)>, void (void*)>::target(std::type_info const&) const
PUBLIC d5d4 0 std::__ndk1::__function::__func<void (*)(void*), std::__ndk1::allocator<void (*)(void*)>, void (void*)>::target_type() const
PUBLIC d5e0 0 std::__ndk1::__tree<std::__ndk1::__value_type<std::__ndk1::basic_string<char, std::__ndk1::char_traits<char>, std::__ndk1::allocator<char> >, std::__ndk1::shared_ptr<geode::Hook> >, std::__ndk1::__map_value_compare<std::__ndk1::basic_string<char, std::__ndk1::char_traits<char>, std::__ndk1::allocator<char> >, std::__ndk1::__value_type<std::__ndk1::basic_string<char, std::__ndk1::char_traits<char>, std::__ndk1::allocator<char> >, std::__ndk1::shared_ptr<geode::Hook> >, std::__ndk1::less<std::__ndk1::basic_string<char, std::__ndk1::char_traits<char>, std::__ndk1::allocator<char> > >, true>, std::__ndk1::allocator<std::__ndk1::__value_type<std::__ndk1::basic_string<char, std::__ndk1::char_traits<char>, std::__ndk1::allocator<char> >, std::__ndk1::shared_ptr<geode::Hook> > > >::__emplace_unique_key_args<std::__ndk1::basic_string<char, std::__ndk1::char_traits<char>, std::__ndk1::allocator<char> >, std::__ndk1::piecewise_construct_t const&, std::__ndk1::tuple<std::__ndk1::basic_string<char, std::__ndk1::char_traits<char>, std::__ndk1::allocator<char> >&&>, std::__ndk1::tuple<> >(std::__ndk1::basic_string<char, std::__ndk1::char_traits<char>, std::__ndk1::allocator<char> > const&, std::__ndk1::piecewise_construct_t const&, std::__ndk1::tuple<std::__ndk1::basic_string<char, std::__ndk1::char_traits<char>, std::__ndk1::allocator<char> >&&>, std::__ndk1::tuple<>)
PUBLIC d748 0 geode::modifier::ModifyDerive<MyCCKeyboardDispatcher, cocos2d::CCKeyboardDispatcher>::apply()
PUBLIC db20 0 geode::modifier::ModifyBase<geode::modifier::ModifyDerive<MyCCKeyboardDispatcher, cocos2d::CCKeyboardDispatcher> >::apply()
PUBLIC db24 0 geode::modifier::AsStaticFunction_dispatchKeyboardMSG<MyCCKeyboardDispatcher, bool (MyCCKeyboardDispatcher::*)(cocos2d::enumKeyCodes, bool, bool)>::Impl<bool (MyCCKeyboardDispatcher::*)(cocos2d::enumKeyCodes, bool, bool)>::function(MyCCKeyboardDispatcher*, cocos2d::enumKeyCodes, bool, bool)
PUBLIC dc58 0 std::__ndk1::__function::__base<void ()>::~__base()
PUBLIC dc5c 0 std::__ndk1::__function::__func<MyCCKeyboardDispatcher::dispatchKeyboardMSG(cocos2d::enumKeyCodes, bool, bool)::{lambda()#1}, std::__ndk1::allocator<MyCCKeyboardDispatcher::dispatchKeyboardMSG(cocos2d::enumKeyCodes, bool, bool)::{lambda()#1}>, void ()>::~__func()
PUBLIC dc60 0 std::__ndk1::__function::__func<MyCCKeyboardDispatcher::dispatchKeyboardMSG(cocos2d::enumKeyCodes, bool, bool)::{lambda()#1}, std::__ndk1::allocator<MyCCKeyboardDispatcher::dispatchKeyboardMSG(cocos2d::enumKeyCodes, bool, bool)::{lambda()#1}>, void ()>::__clone() const
PUBLIC dc94 0 std::__ndk1::__function::__func<MyCCKeyboardDispatcher::dispatchKeyboardMSG(cocos2d::enumKeyCodes, bool, bool)::{lambda()#1}, std::__ndk1::allocator<MyCCKeyboardDispatcher::dispatchKeyboardMSG(cocos2d::enumKeyCodes, bool, bool)::{lambda()#1}>, void ()>::__clone(std::__ndk1::__function::__base<void ()>*) const
PUBLIC dcac 0 std::__ndk1::__function::__func<MyCCKeyboardDispatcher::dispatchKeyboardMSG(cocos2d::enumKeyCodes, bool, bool)::{lambda()#1}, std::__ndk1::allocator<MyCCKeyboardDispatcher::dispatchKeyboardMSG(cocos2d::enumKeyCodes, bool, bool)::{lambda()#1}>, void ()>::destroy()
PUBLIC dcb0 0 std::__ndk1::__function::__func<MyCCKeyboardDispatcher::dispatchKeyboardMSG(cocos2d::enumKeyCodes, bool, bool)::{lambda()#1}, std::__ndk1::allocator<MyCCKeyboardDispatcher::dispatchKeyboardMSG(cocos2d::enumKeyCodes, bool, bool)::{lambda()#1}>, void ()>::destroy_deallocate()
PUBLIC dcb4 0 std::__ndk1::__function::__func<MyCCKeyboardDispatcher::dispatchKeyboardMSG(cocos2d::enumKeyCodes, bool, bool)::{lambda()#1}, std::__ndk1::allocator<MyCCKeyboardDispatcher::dispatchKeyboardMSG(cocos2d::enumKeyCodes, bool, bool)::{lambda()#1}>, void ()>::operator()()
PUBLIC de40 0 std::__ndk1::__function::__func<MyCCKeyboardDispatcher::dispatchKeyboardMSG(cocos2d::enumKeyCodes, bool, bool)::{lambda()#1}, std::__ndk1::allocator<MyCCKeyboardDispatcher::dispatchKeyboardMSG(cocos2d::enumKeyCodes, bool, bool)::{lambda()#1}>, void ()>::target(std::type_info const&) const
PUBLIC de5c 0 std::__ndk1::__function::__func<MyCCKeyboardDispatcher::dispatchKeyboardMSG(cocos2d::enumKeyCodes, bool, bool)::{lambda()#1}, std::__ndk1::allocator<MyCCKeyboardDispatcher::dispatchKeyboardMSG(cocos2d::enumKeyCodes, bool, bool)::{lambda()#1}>, void ()>::target_type() const
PUBLIC de68 0 geode::cast::traverseTypeinfoFor(void*, geode::cast::ClassTypeinfoType const*, char const*)
PUBLIC m df60 0 geodeImplicitEntry
PUBLIC dfa0 0 <.plt ELF section in alphalaneous.hide.android64.so>
STACK CFI INIT 5f90 10 .cfa: sp 0 +
STACK CFI INIT 5fa0 8 .cfa: sp 0 +
STACK CFI INIT 5fa8 8 .cfa: sp 0 +
STACK CFI INIT 5fb0 14 .cfa: sp 0 +
STACK CFI INIT 5fc4 1c .cfa: sp 0 +
STACK CFI INIT 5fe0 10 .cfa: sp 0 +
STACK CFI INIT 5ff0 134 .cfa: sp 0 +
STACK CFI INIT 6124 84 .cfa: sp 0 +
STACK CFI INIT 61a8 f4 .cfa: sp 0 +
STACK CFI INIT 629c a8 .cfa: sp 0 +
STACK CFI INIT 6344 7c .cfa: sp 0 +
STACK CFI INIT 63c0 14 .cfa: sp 0 +
STACK CFI INIT 63d4 40 .cfa: sp 0 +
STACK CFI INIT 6414 28 .cfa: sp 0 +
STACK CFI INIT 643c 190 .cfa: sp 0 +
STACK CFI INIT 65cc 2c8 .cfa: sp 0 +
STACK CFI INIT 6894 8 .cfa: sp 0 +
STACK CFI INIT 689c 8 .cfa: sp 0 +
STACK CFI INIT 68a4 44 .cfa: sp 0 +
STACK CFI INIT 68e8 e8 .cfa: sp 0 +
STACK CFI INIT 69d0 e8 .cfa: sp 0 +
STACK CFI INIT 6ab8 14 .cfa: sp 0 +
STACK CFI INIT 6acc 10 .cfa: sp 0 +
STACK CFI INIT 6adc 10 .cfa: sp 0 +
STACK CFI INIT 6aec f0 .cfa: sp 0 +
STACK CFI INIT 6bdc 44 .cfa: sp 0 +
STACK CFI INIT 6c20 c .cfa: sp 0 +
STACK CFI INIT 6c2c c .cfa: sp 0 +
STACK CFI INIT 6c38 2c .cfa: sp 0 +
STACK CFI INIT 6c64 280 .cfa: sp 0 +
STACK CFI INIT 6ee4 c .cfa: sp 0 +
STACK CFI INIT 6ef0 120 .cfa: sp 0 +
STACK CFI INIT 7010 488 .cfa: sp 0 +
STACK CFI INIT 7498 c48 .cfa: sp 0 +
STACK CFI INIT 80e0 134 .cfa: sp 0 +
STACK CFI INIT 8214 210 .cfa: sp 0 +
STACK CFI INIT 8424 38c .cfa: sp 0 +
STACK CFI INIT 87b0 1c8 .cfa: sp 0 +
STACK CFI INIT 8978 9bc .cfa: sp 0 +
STACK CFI INIT 9334 2d4 .cfa: sp 0 +
STACK CFI INIT 9608 134 .cfa: sp 0 +
STACK CFI INIT 973c 120 .cfa: sp 0 +
STACK CFI INIT 985c 1c8 .cfa: sp 0 +
STACK CFI INIT 9a24 168 .cfa: sp 0 +
STACK CFI INIT 9b8c fc .cfa: sp 0 +
STACK CFI INIT 9c88 30 .cfa: sp 0 +
STACK CFI INIT 9df0 30 .cfa: sp 0 +
STACK CFI INIT 9e20 98 .cfa: sp 0 +
STACK CFI INIT 9eb8 59c .cfa: sp 0 +
STACK CFI INIT a454 8c .cfa: sp 0 +
STACK CFI INIT a4e0 30 .cfa: sp 0 +
STACK CFI INIT ac20 18 .cfa: sp 0 +
STACK CFI INIT b0bc 18 .cfa: sp 0 +
STACK CFI INIT b42c 50 .cfa: sp 0 +
STACK CFI b430 .cfa: sp 32 +
STACK CFI b438 .cfa: x29 32 + x19: .cfa -16 + ^ .ra: .cfa -24 + ^ x29: .cfa -32 + ^
STACK CFI b450 .cfa: sp 32 +
STACK CFI b458 .cfa: sp 0 +
STACK CFI b45c .cfa: x29 32 +
STACK CFI b470 .cfa: sp 32 +
STACK CFI b478 .cfa: sp 0 +
STACK CFI INIT b4f0 7c .cfa: sp 0 +
STACK CFI b4f4 .cfa: sp 48 +
STACK CFI b500 .cfa: x29 48 + x19: .cfa -8 + ^ x20: .cfa -16 + ^ x21: .cfa -32 + ^ .ra: .cfa -40 + ^ x29: .cfa -48 + ^
STACK CFI b54c .cfa: sp 48 +
STACK CFI b558 .cfa: sp 0 +
STACK CFI b55c .cfa: sp 48 +
STACK CFI b568 .cfa: sp 0 +
STACK CFI INIT b56c 4 .cfa: sp 0 +
STACK CFI INIT b570 10 .cfa: sp 0 +
STACK CFI b574 .cfa: sp 16 +
STACK CFI b578 .cfa: x29 16 + .ra: .cfa -8 + ^ x29: .cfa -16 + ^
STACK CFI INIT b580 14 .cfa: sp 0 +
STACK CFI b584 .cfa: sp 16 +
STACK CFI b588 .cfa: x29 16 + .ra: .cfa -8 + ^ x29: .cfa -16 + ^
STACK CFI INIT b5e4 30 .cfa: sp 0 +
STACK CFI b5e8 .cfa: sp 32 +
STACK CFI b5f0 .cfa: x29 32 + x19: .cfa -16 + ^ .ra: .cfa -24 + ^ x29: .cfa -32 + ^
STACK CFI b608 .cfa: sp 32 +
STACK CFI b610 .cfa: sp 0 +
STACK CFI INIT b614 34 .cfa: sp 0 +
STACK CFI b618 .cfa: sp 32 +
STACK CFI b620 .cfa: x29 32 + x19: .cfa -16 + ^ .ra: .cfa -24 + ^ x29: .cfa -32 + ^
STACK CFI INIT b648 120 .cfa: sp 0 +
STACK CFI b64c .cfa: sp 64 +
STACK CFI b65c .cfa: x29 64 + x19: .cfa -8 + ^ x20: .cfa -16 + ^ x21: .cfa -24 + ^ x22: .cfa -32 + ^ x23: .cfa -40 + ^ x24: .cfa -48 + ^ .ra: .cfa -56 + ^ x29: .cfa -64 + ^
STACK CFI b754 .cfa: sp 64 +
STACK CFI b764 .cfa: sp 0 +
STACK CFI INIT b768 7c .cfa: sp 0 +
STACK CFI b76c .cfa: sp 48 +
STACK CFI b778 .cfa: x29 48 + x19: .cfa -8 + ^ x20: .cfa -16 + ^ x21: .cfa -24 + ^ x22: .cfa -32 + ^ .ra: .cfa -40 + ^ x29: .cfa -48 + ^
STACK CFI b790 .cfa: sp 48 +
STACK CFI b79c .cfa: sp 0 +
STACK CFI b7a0 .cfa: x29 48 +
STACK CFI b7d0 .cfa: sp 48 +
STACK CFI b7dc .cfa: sp 0 +
STACK CFI b7e0 .cfa: x29 48 +
STACK CFI INIT b7e4 1b0 .cfa: sp 0 +
STACK CFI INIT bae8 34 .cfa: sp 0 +
STACK CFI baec .cfa: sp 16 +
STACK CFI baf0 .cfa: x29 16 + .ra: .cfa -8 + ^ x29: .cfa -16 + ^
STACK CFI INIT bc48 80 .cfa: sp 0 +
STACK CFI bc4c .cfa: sp 48 +
STACK CFI bc58 .cfa: x29 48 + x19: .cfa -8 + ^ x20: .cfa -16 + ^ x21: .cfa -32 + ^ .ra: .cfa -40 + ^ x29: .cfa -48 + ^
STACK CFI bcb8 .cfa: sp 48 +
STACK CFI bcc4 .cfa: sp 0 +
STACK CFI INIT bcc8 24 .cfa: sp 0 +
STACK CFI bccc .cfa: sp 32 +
STACK CFI bcd4 .cfa: x29 32 + x19: .cfa -16 + ^ .ra: .cfa -24 + ^ x29: .cfa -32 + ^
STACK CFI bce0 .cfa: sp 32 +
STACK CFI bce8 .cfa: sp 0 +
STACK CFI INIT c25c 4 .cfa: sp 0 +
STACK CFI INIT c260 14 .cfa: sp 0 +
STACK CFI INIT c498 68 .cfa: sp 0 +
STACK CFI c49c .cfa: sp 32 +
STACK CFI c4a4 .cfa: x29 32 + x19: .cfa -8 + ^ x20: .cfa -16 + ^ .ra: .cfa -24 + ^ x29: .cfa -32 + ^
STACK CFI c4bc .cfa: sp 32 +
STACK CFI c4c4 .cfa: sp 0 +
STACK CFI c4c8 .cfa: x29 32 +
STACK CFI c4f4 .cfa: sp 32 +
STACK CFI c4fc .cfa: sp 0 +
STACK CFI INIT c500 14 .cfa: sp 0 +
STACK CFI c504 .cfa: sp 16 +
STACK CFI c508 .cfa: x29 16 + .ra: .cfa -8 + ^ x29: .cfa -16 + ^
STACK CFI INIT c514 4 .cfa: sp 0 +
STACK CFI INIT c518 14 .cfa: sp 0 +
STACK CFI INIT c52c 4a4 .cfa: sp 0 +
STACK CFI c530 .cfa: sp 32 +
STACK CFI c538 .cfa: x29 32 + x19: .cfa -8 + ^ x20: .cfa -16 + ^ .ra: .cfa -24 + ^ x29: .cfa -32 + ^
STACK CFI c918 .cfa: sp 32 +
STACK CFI c920 .cfa: sp 0 +
STACK CFI c924 .cfa: x29 32 +
STACK CFI INIT c9d0 84 .cfa: sp 0 +
STACK CFI c9d8 .cfa: sp 32 +
STACK CFI c9e0 .cfa: x29 32 + x19: .cfa -8 + ^ x20: .cfa -16 + ^ .ra: .cfa -24 + ^ x29: .cfa -32 + ^
STACK CFI ca20 .cfa: sp 32 +
STACK CFI ca28 .cfa: sp 0 +
STACK CFI ca30 .cfa: x29 32 +
STACK CFI INIT cd84 50 .cfa: sp 0 +
STACK CFI cd88 .cfa: sp 32 +
STACK CFI cd90 .cfa: x29 32 + x19: .cfa -16 + ^ .ra: .cfa -24 + ^ x29: .cfa -32 + ^
STACK CFI cda8 .cfa: sp 32 +
STACK CFI cdb0 .cfa: sp 0 +
STACK CFI cdb4 .cfa: x29 32 +
STACK CFI cdc8 .cfa: sp 32 +
STACK CFI cdd0 .cfa: sp 0 +
STACK CFI INIT cdd4 64 .cfa: sp 0 +
STACK CFI cdd8 .cfa: sp 32 +
STACK CFI cde0 .cfa: x29 32 + x19: .cfa -16 + ^ .ra: .cfa -24 + ^ x29: .cfa -32 + ^
STACK CFI ce0c .cfa: sp 32 +
STACK CFI ce14 .cfa: sp 0 +
STACK CFI ce18 .cfa: x29 32 +
STACK CFI ce2c .cfa: sp 32 +
STACK CFI ce34 .cfa: sp 0 +
STACK CFI INIT d484 4 .cfa: sp 0 +
STACK CFI INIT d488 14 .cfa: sp 0 +
STACK CFI d48c .cfa: sp 16 +
STACK CFI d490 .cfa: x29 16 + .ra: .cfa -8 + ^ x29: .cfa -16 + ^
STACK CFI INIT d49c 14 .cfa: sp 0 +
STACK CFI d4a0 .cfa: sp 16 +
STACK CFI d4a4 .cfa: x29 16 + .ra: .cfa -8 + ^ x29: .cfa -16 + ^
STACK CFI INIT d4b0 c .cfa: sp 0 +
STACK CFI d4b4 .cfa: sp 16 +
STACK CFI d4b8 .cfa: x29 16 + .ra: .cfa -8 + ^ x29: .cfa -16 + ^
STACK CFI INIT d504 38 .cfa: sp 0 +
STACK CFI d508 .cfa: sp 32 +
STACK CFI d510 .cfa: x29 32 + x19: .cfa -16 + ^ .ra: .cfa -24 + ^ x29: .cfa -32 + ^
STACK CFI d530 .cfa: sp 32 +
STACK CFI d538 .cfa: sp 0 +
STACK CFI INIT d53c c .cfa: sp 0 +
STACK CFI d540 .cfa: sp 16 +
STACK CFI d544 .cfa: x29 16 + .ra: .cfa -8 + ^ x29: .cfa -16 + ^
STACK CFI INIT d548 4 .cfa: sp 0 +
STACK CFI INIT d54c 4 .cfa: sp 0 +
STACK CFI INIT d550 38 .cfa: sp 0 +
STACK CFI d554 .cfa: sp 32 +
STACK CFI d55c .cfa: x29 32 + x19: .cfa -16 + ^ .ra: .cfa -24 + ^ x29: .cfa -32 + ^
STACK CFI d57c .cfa: sp 32 +
STACK CFI d584 .cfa: sp 0 +
STACK CFI INIT d588 18 .cfa: sp 0 +
STACK CFI INIT d5a0 4 .cfa: sp 0 +
STACK CFI INIT d5a4 4 .cfa: sp 0 +
STACK CFI INIT d5a8 10 .cfa: sp 0 +
STACK CFI INIT d5b8 1c .cfa: sp 0 +
STACK CFI INIT d5d4 c .cfa: sp 0 +
STACK CFI INIT d5e0 168 .cfa: sp 0 +
STACK CFI d5e4 .cfa: sp 80 +
STACK CFI d5f8 .cfa: x29 80 + x19: .cfa -8 + ^ x20: .cfa -16 + ^ x21: .cfa -24 + ^ x22: .cfa -32 + ^ x23: .cfa -40 + ^ x24: .cfa -48 + ^ x25: .cfa -56 + ^ x26: .cfa -64 + ^ .ra: .cfa -72 + ^ x29: .cfa -80 + ^
STACK CFI d730 .cfa: sp 80 +
STACK CFI d744 .cfa: sp 0 +
STACK CFI INIT db20 4 .cfa: sp 0 +
STACK CFI INIT dc58 4 .cfa: sp 0 +
STACK CFI INIT dc5c 4 .cfa: sp 0 +
STACK CFI INIT dc60 34 .cfa: sp 0 +
STACK CFI dc64 .cfa: sp 32 +
STACK CFI dc6c .cfa: x29 32 + x19: .cfa -16 + ^ .ra: .cfa -24 + ^ x29: .cfa -32 + ^
STACK CFI dc88 .cfa: sp 32 +
STACK CFI dc90 .cfa: sp 0 +
STACK CFI INIT dc94 18 .cfa: sp 0 +
STACK CFI INIT dcac 4 .cfa: sp 0 +
STACK CFI INIT dcb0 4 .cfa: sp 0 +
STACK CFI INIT dcb4 18c .cfa: sp 0 +
STACK CFI dcb8 .cfa: sp 48 +
STACK CFI dcc4 .cfa: x29 48 + x19: .cfa -8 + ^ x20: .cfa -16 + ^ x21: .cfa -32 + ^ .ra: .cfa -40 + ^ x29: .cfa -48 + ^
STACK CFI de20 .cfa: sp 48 +
STACK CFI de2c .cfa: sp 0 +
STACK CFI de30 .cfa: sp 48 +
STACK CFI de3c .cfa: sp 0 +
STACK CFI INIT de40 1c .cfa: sp 0 +
STACK CFI INIT de5c c .cfa: sp 0 +
STACK CFI INIT de68 f8 .cfa: sp 0 +
STACK CFI de6c .cfa: sp 64 +
STACK CFI de7c .cfa: x29 64 + x19: .cfa -8 + ^ x20: .cfa -16 + ^ x21: .cfa -24 + ^ x22: .cfa -32 + ^ x23: .cfa -48 + ^ .ra: .cfa -56 + ^ x29: .cfa -64 + ^
STACK CFI ded8 .cfa: sp 64 +
STACK CFI dee8 .cfa: sp 0 +
STACK CFI deec .cfa: x29 64 +
STACK CFI df08 .cfa: sp 64 +
STACK CFI df18 .cfa: sp 0 +
STACK CFI df1c .cfa: x29 64 +
STACK CFI df4c .cfa: sp 64 +
STACK CFI df5c .cfa: sp 0 +
STACK CFI INIT df60 3c .cfa: sp 0 +
STACK CFI df64 .cfa: sp 32 +
STACK CFI df6c .cfa: x29 32 + x19: .cfa -16 + ^ .ra: .cfa -24 + ^ x29: .cfa -32 + ^
STACK CFI df78 .cfa: sp 32 +
STACK CFI df80 .cfa: sp 0 +
STACK CFI df84 .cfa: x29 32 +
STACK CFI df90 .cfa: sp 32 +
STACK CFI df98 .cfa: sp 0 +
STACK CFI INIT a510 710 .cfa: sp 0 +
STACK CFI a514 .cfa: sp 224 +
STACK CFI a530 .cfa: x29 96 + x19: .cfa -8 + ^ x20: .cfa -16 + ^ x21: .cfa -24 + ^ x22: .cfa -32 + ^ x23: .cfa -40 + ^ x24: .cfa -48 + ^ x25: .cfa -56 + ^ x26: .cfa -64 + ^ x27: .cfa -72 + ^ x28: .cfa -80 + ^ .ra: .cfa -88 + ^ x29: .cfa -96 + ^
STACK CFI a688 .cfa: sp 224 +
STACK CFI a6a4 .cfa: sp 0 +
STACK CFI a6a8 .cfa: x29 96 +
STACK CFI aadc .cfa: sp 224 +
STACK CFI aaf8 .cfa: sp 0 +
STACK CFI aafc .cfa: x29 96 +
STACK CFI INIT ac38 484 .cfa: sp 0 +
STACK CFI ac3c .cfa: sp 224 +
STACK CFI ac58 .cfa: x29 96 + x19: .cfa -8 + ^ x20: .cfa -16 + ^ x21: .cfa -24 + ^ x22: .cfa -32 + ^ x23: .cfa -40 + ^ x24: .cfa -48 + ^ x25: .cfa -56 + ^ x26: .cfa -64 + ^ x27: .cfa -72 + ^ x28: .cfa -80 + ^ .ra: .cfa -88 + ^ x29: .cfa -96 + ^
STACK CFI aec8 .cfa: sp 224 +
STACK CFI aee4 .cfa: sp 0 +
STACK CFI aee8 .cfa: x29 96 +
STACK CFI afb4 .cfa: sp 224 +
STACK CFI afd0 .cfa: sp 0 +
STACK CFI afd4 .cfa: x29 96 +
STACK CFI INIT b0d4 358 .cfa: sp 0 +
STACK CFI b0d8 .cfa: sp 208 +
STACK CFI b0ec .cfa: x29 64 + x19: .cfa -8 + ^ x20: .cfa -16 + ^ x21: .cfa -24 + ^ x22: .cfa -32 + ^ x23: .cfa -48 + ^ .ra: .cfa -56 + ^ x29: .cfa -64 + ^
STACK CFI b308 .cfa: sp 208 +
STACK CFI b31c .cfa: sp 0 +
STACK CFI b320 .cfa: x29 64 +
STACK CFI INIT b47c 74 .cfa: sp 0 +
STACK CFI b480 .cfa: sp 48 +
STACK CFI b48c .cfa: x29 32 + x19: .cfa -8 + ^ x20: .cfa -16 + ^ .ra: .cfa -24 + ^ x29: .cfa -32 + ^
STACK CFI b4d8 .cfa: sp 48 +
STACK CFI b4e4 .cfa: sp 0 +
STACK CFI b4e8 .cfa: x29 32 +
STACK CFI INIT b594 50 .cfa: sp 0 +
STACK CFI b598 .cfa: sp 32 +
STACK CFI b5a0 .cfa: x29 32 + x19: .cfa -8 + ^ x20: .cfa -16 + ^ .ra: .cfa -24 + ^ x29: .cfa -32 + ^
STACK CFI INIT b994 154 .cfa: sp 0 +
STACK CFI b998 .cfa: sp 384 +
STACK CFI b9ac .cfa: x29 64 + x19: .cfa -8 + ^ x20: .cfa -16 + ^ x21: .cfa -24 + ^ x22: .cfa -32 + ^ x23: .cfa -40 + ^ x28: .cfa -48 + ^ .ra: .cfa -56 + ^ x29: .cfa -64 + ^
STACK CFI ba90 .cfa: sp 384 +
STACK CFI baa4 .cfa: sp 0 +
STACK CFI baa8 .cfa: x29 64 +
STACK CFI INIT bb1c 12c .cfa: sp 0 +
STACK CFI bb20 .cfa: sp 80 +
STACK CFI bb34 .cfa: x29 80 + x19: .cfa -8 + ^ x20: .cfa -16 + ^ x21: .cfa -24 + ^ x22: .cfa -32 + ^ x23: .cfa -40 + ^ x24: .cfa -48 + ^ x25: .cfa -56 + ^ x26: .cfa -64 + ^ .ra: .cfa -72 + ^ x29: .cfa -80 + ^
STACK CFI bbfc .cfa: sp 80 +
STACK CFI bc10 .cfa: sp 0 +
STACK CFI bc14 .cfa: x29 80 +
STACK CFI INIT bcec 2d8 .cfa: sp 0 +
STACK CFI bcf0 .cfa: sp 144 +
STACK CFI bd0c .cfa: x29 96 + x19: .cfa -8 + ^ x20: .cfa -16 + ^ x21: .cfa -24 + ^ x22: .cfa -32 + ^ x23: .cfa -40 + ^ x24: .cfa -48 + ^ x25: .cfa -56 + ^ x26: .cfa -64 + ^ x27: .cfa -72 + ^ x28: .cfa -80 + ^ .ra: .cfa -88 + ^ x29: .cfa -96 + ^
STACK CFI bf10 .cfa: sp 144 +
STACK CFI bf2c .cfa: sp 0 +
STACK CFI bf30 .cfa: x29 96 +
STACK CFI INIT bfc4 298 .cfa: sp 0 +
STACK CFI bfc8 .cfa: sp 80 +
STACK CFI bfdc .cfa: x29 80 + x19: .cfa -8 + ^ x20: .cfa -16 + ^ x21: .cfa -24 + ^ x22: .cfa -32 + ^ x23: .cfa -40 + ^ x24: .cfa -48 + ^ x25: .cfa -64 + ^ .ra: .cfa -72 + ^ x29: .cfa -80 + ^
STACK CFI c228 .cfa: sp 80 +
STACK CFI c23c .cfa: sp 0 +
STACK CFI c240 .cfa: x29 80 +
STACK CFI INIT c274 224 .cfa: sp 0 +
STACK CFI c278 .cfa: sp 128 +
STACK CFI c290 .cfa: x29 80 + x19: .cfa -8 + ^ x20: .cfa -16 + ^ x21: .cfa -24 + ^ x22: .cfa -32 + ^ x23: .cfa -40 + ^ x24: .cfa -48 + ^ x25: .cfa -64 + ^ .ra: .cfa -72 + ^ x29: .cfa -80 + ^
STACK CFI c42c .cfa: sp 128 +
STACK CFI c444 .cfa: sp 0 +
STACK CFI c448 .cfa: x29 80 +
STACK CFI INIT ca54 330 .cfa: sp 0 +
STACK CFI ca58 .cfa: sp 96 +
STACK CFI ca6c .cfa: x29 64 + x19: .cfa -8 + ^ x20: .cfa -16 + ^ x21: .cfa -24 + ^ x22: .cfa -32 + ^ x23: .cfa -48 + ^ .ra: .cfa -56 + ^ x29: .cfa -64 + ^
STACK CFI cd3c .cfa: sp 96 +
STACK CFI cd50 .cfa: sp 0 +
STACK CFI cd54 .cfa: x29 64 +
STACK CFI INIT ce38 64c .cfa: sp 0 +
STACK CFI ce3c .cfa: sp 224 +
STACK CFI ce58 .cfa: x29 96 + x19: .cfa -8 + ^ x20: .cfa -16 + ^ x21: .cfa -24 + ^ x22: .cfa -32 + ^ x23: .cfa -40 + ^ x24: .cfa -48 + ^ x25: .cfa -56 + ^ x26: .cfa -64 + ^ x27: .cfa -72 + ^ x28: .cfa -80 + ^ .ra: .cfa -88 + ^ x29: .cfa -96 + ^
STACK CFI d314 .cfa: sp 224 +
STACK CFI d330 .cfa: sp 0 +
STACK CFI d334 .cfa: x29 96 +
STACK CFI INIT d4bc 48 .cfa: sp 0 +
STACK CFI d4c0 .cfa: sp 32 +
STACK CFI d4c8 .cfa: x29 32 + x19: .cfa -8 + ^ x20: .cfa -16 + ^ .ra: .cfa -24 + ^ x29: .cfa -32 + ^
STACK CFI INIT d748 3d8 .cfa: sp 0 +
STACK CFI d74c .cfa: sp 288 +
STACK CFI d764 .cfa: x29 80 + x19: .cfa -8 + ^ x20: .cfa -16 + ^ x21: .cfa -24 + ^ x22: .cfa -32 + ^ x23: .cfa -40 + ^ x24: .cfa -48 + ^ x28: .cfa -64 + ^ .ra: .cfa -72 + ^ x29: .cfa -80 + ^
STACK CFI d9e4 .cfa: sp 288 +
STACK CFI d9fc .cfa: sp 0 +
STACK CFI da00 .cfa: x29 80 +
STACK CFI INIT db24 134 .cfa: sp 0 +
STACK CFI db28 .cfa: sp 128 +
STACK CFI db3c .cfa: x29 64 + x19: .cfa -8 + ^ x20: .cfa -16 + ^ x21: .cfa -24 + ^ x22: .cfa -32 + ^ x23: .cfa -40 + ^ x24: .cfa -48 + ^ .ra: .cfa -56 + ^ x29: .cfa -64 + ^
STACK CFI dbf0 .cfa: sp 128 +
STACK CFI dc04 .cfa: sp 0 +
STACK CFI dc08 .cfa: x29 64 +
