MODULE Linux arm64 BC8B5874F7E3DABD7C5BC203CE65490E0 trealdry.dynamic-icon-change.android64.so
INFO CODE_ID 74588BBCE3F7BDDA7C5BC203CE65490E397224D3
INFO GENERATOR mozilla/dump_syms 2.3.4
FILE 0 /home/runner/work/Dynamic-Icon-Change/Dynamic-Icon-Change/geode-sdk-clone/loader/include/Geode/utils/addresser.hpp
FILE 1 /home/runner/work/Dynamic-Icon-Change/Dynamic-Icon-Change/geode-sdk-clone/loader/include/Geode/platform/ItaniumCast.hpp
FILE 2 /usr/local/lib/android/sdk/ndk/27.2.12479018/toolchains/llvm/prebuilt/linux-x86_64/sysroot/usr/include/c++/v1/ostream
FILE 3 /usr/local/lib/android/sdk/ndk/27.2.12479018/toolchains/llvm/prebuilt/linux-x86_64/sysroot/usr/include/c++/v1/variant
FILE 4 /usr/local/lib/android/sdk/ndk/27.2.12479018/toolchains/llvm/prebuilt/linux-x86_64/sysroot/usr/include/c++/v1/stdexcept
FILE 5 /usr/local/lib/android/sdk/ndk/27.2.12479018/toolchains/llvm/prebuilt/linux-x86_64/sysroot/usr/include/c++/v1/__tree
FILE 6 /usr/local/lib/android/sdk/ndk/27.2.12479018/toolchains/llvm/prebuilt/linux-x86_64/sysroot/usr/include/c++/v1/locale
FILE 7 /usr/local/lib/android/sdk/ndk/27.2.12479018/toolchains/llvm/prebuilt/linux-x86_64/sysroot/usr/include/c++/v1/new
FILE 8 /home/runner/work/Dynamic-Icon-Change/Dynamic-Icon-Change/build/bindings/bindings/Geode/modify/PlayLayer.hpp
FILE 9 /home/runner/work/Dynamic-Icon-Change/Dynamic-Icon-Change/build/bindings/bindings/Geode/modify/PlayerObject.hpp
FILE 10 /home/runner/work/Dynamic-Icon-Change/Dynamic-Icon-Change/build/bindings/bindings/Geode/modify/PauseLayer.hpp
FILE 11 /home/runner/work/Dynamic-Icon-Change/Dynamic-Icon-Change/build/bindings/bindings/Geode/modify/LevelEditorLayer.hpp
FILE 12 /home/runner/work/Dynamic-Icon-Change/Dynamic-Icon-Change/build/bindings/bindings/Geode/modify/AppDelegate.hpp
FILE 13 /home/runner/work/Dynamic-Icon-Change/Dynamic-Icon-Change/geode-sdk-clone/loader/include/Geode/modify/Modify.hpp
FILE 14 /usr/local/lib/android/sdk/ndk/27.2.12479018/toolchains/llvm/prebuilt/linux-x86_64/sysroot/usr/include/c++/v1/vector
FILE 15 /usr/local/lib/android/sdk/ndk/27.2.12479018/toolchains/llvm/prebuilt/linux-x86_64/sysroot/usr/include/c++/v1/string
FILE 16 /home/runner/work/Dynamic-Icon-Change/Dynamic-Icon-Change/cpm-cache/result/a5380f9e23f94b98200baa461086514f602899cb/include/Geode/Result.hpp
FILE 17 /usr/local/lib/android/sdk/ndk/27.2.12479018/toolchains/llvm/prebuilt/linux-x86_64/sysroot/usr/include/c++/v1/__memory/shared_ptr.h
FILE 18 /home/runner/work/Dynamic-Icon-Change/Dynamic-Icon-Change/geode-sdk-clone/loader/include/Geode/loader/Event.hpp
FILE 19 /home/runner/work/Dynamic-Icon-Change/Dynamic-Icon-Change/geode-sdk-clone/loader/include/Geode/loader/SettingV3.hpp
FILE 20 /usr/local/lib/android/sdk/ndk/27.2.12479018/toolchains/llvm/prebuilt/linux-x86_64/sysroot/usr/include/c++/v1/__functional/function.h
FILE 21 /home/runner/work/Dynamic-Icon-Change/Dynamic-Icon-Change/cpm-cache/tuliphook/8d0d2aa407f52cdee9f79187fca5c9affddf8dd5/include/tulip/HandlerData.hpp
FILE 22 /usr/local/lib/android/sdk/ndk/27.2.12479018/toolchains/llvm/prebuilt/linux-x86_64/sysroot/usr/include/c++/v1/sstream
FILE 23 /usr/local/lib/android/sdk/ndk/27.2.12479018/toolchains/llvm/prebuilt/linux-x86_64/sysroot/usr/include/c++/v1/__split_buffer
FILE 24 /home/runner/work/Dynamic-Icon-Change/Dynamic-Icon-Change/geode-sdk-clone/loader/include/Geode/loader/Hook.hpp
FILE 25 /home/runner/work/Dynamic-Icon-Change/Dynamic-Icon-Change/build/bindings/bindings/Geode/binding/PauseLayer.hpp
FILE 26 /home/runner/work/Dynamic-Icon-Change/Dynamic-Icon-Change/src/main.cpp
FILE 27 /home/runner/work/Dynamic-Icon-Change/Dynamic-Icon-Change/src/IconManager.cpp
FILE 28 /home/runner/work/Dynamic-Icon-Change/Dynamic-Icon-Change/src/DynamicIconChange.cpp
FILE 29 /home/runner/work/Dynamic-Icon-Change/Dynamic-Icon-Change/geode-sdk-clone/loader/include/Geode/loader/Mod.hpp
FILE 30 /home/runner/work/Dynamic-Icon-Change/Dynamic-Icon-Change/src/DynamicIconChange.hpp
FILE 31 /home/runner/work/Dynamic-Icon-Change/Dynamic-Icon-Change/src/IconManager.hpp
FILE 32 /home/runner/work/Dynamic-Icon-Change/Dynamic-Icon-Change/geode-sdk-clone/entry.cpp
FILE 33 /home/runner/work/Dynamic-Icon-Change/Dynamic-Icon-Change/build/bindings/bindings/Geode/GeneratedSource.cpp
PUBLIC 88f0 0 __on_dlclose
PUBLIC 8900 0 __emutls_unregister_key
PUBLIC 8908 0 __on_dlclose_late
PUBLIC 8910 0 __atexit_handler_wrapper
PUBLIC 8924 0 atexit
PUBLIC 8940 0 pthread_atfork
PUBLIC 8950 0 unwind_phase2
PUBLIC 8a84 0 _Unwind_Resume
PUBLIC 8b08 0 unwind_phase2_forced
PUBLIC m 8bfc 0 __unw_init_local
PUBLIC m 8ca4 0 __unw_get_reg
PUBLIC 8d20 0 __unw_step_stage2
PUBLIC m 8d34 0 __unw_get_proc_info
PUBLIC m 8d74 0 __unw_resume
PUBLIC 8d9c 0 libunwind::CFI_Parser<libunwind::LocalAddressSpace>::decodeFDE(libunwind::LocalAddressSpace&, unsigned long, libunwind::CFI_Parser<libunwind::LocalAddressSpace>::FDE_Info*, libunwind::CFI_Parser<libunwind::LocalAddressSpace>::CIE_Info*, bool)
PUBLIC 8f2c 0 libunwind::CFI_Parser<libunwind::LocalAddressSpace>::parseCIE(libunwind::LocalAddressSpace&, unsigned long, libunwind::CFI_Parser<libunwind::LocalAddressSpace>::CIE_Info*)
PUBLIC 91f4 0 libunwind::AbstractUnwindCursor::~AbstractUnwindCursor()
PUBLIC 91fc 0 libunwind::UnwindCursor<libunwind::LocalAddressSpace, libunwind::Registers_arm64>::~UnwindCursor()
PUBLIC 9204 0 libunwind::UnwindCursor<libunwind::LocalAddressSpace, libunwind::Registers_arm64>::validReg(int)
PUBLIC 9248 0 libunwind::UnwindCursor<libunwind::LocalAddressSpace, libunwind::Registers_arm64>::getReg(int)
PUBLIC 9330 0 libunwind::UnwindCursor<libunwind::LocalAddressSpace, libunwind::Registers_arm64>::setReg(int, unsigned long)
PUBLIC 9418 0 libunwind::UnwindCursor<libunwind::LocalAddressSpace, libunwind::Registers_arm64>::validFloatReg(int)
PUBLIC 942c 0 libunwind::UnwindCursor<libunwind::LocalAddressSpace, libunwind::Registers_arm64>::getFloatReg(int)
PUBLIC 943c 0 libunwind::UnwindCursor<libunwind::LocalAddressSpace, libunwind::Registers_arm64>::setFloatReg(int, double)
PUBLIC 944c 0 libunwind::UnwindCursor<libunwind::LocalAddressSpace, libunwind::Registers_arm64>::step(bool)
PUBLIC 953c 0 libunwind::UnwindCursor<libunwind::LocalAddressSpace, libunwind::Registers_arm64>::getInfo(unw_proc_info_t*)
PUBLIC 9580 0 libunwind::UnwindCursor<libunwind::LocalAddressSpace, libunwind::Registers_arm64>::jumpto()
PUBLIC 958c 0 libunwind::UnwindCursor<libunwind::LocalAddressSpace, libunwind::Registers_arm64>::isSignalFrame()
PUBLIC 9598 0 libunwind::UnwindCursor<libunwind::LocalAddressSpace, libunwind::Registers_arm64>::getFunctionName(char*, unsigned long, unsigned long*)
PUBLIC 95c4 0 libunwind::UnwindCursor<libunwind::LocalAddressSpace, libunwind::Registers_arm64>::setInfoBasedOnIPRegister(bool)
PUBLIC 9844 0 libunwind::UnwindCursor<libunwind::LocalAddressSpace, libunwind::Registers_arm64>::getRegisterName(int)
PUBLIC 9850 0 libunwind::UnwindCursor<libunwind::LocalAddressSpace, libunwind::Registers_arm64>::stepThroughSigReturn(libunwind::Registers_arm64&)
PUBLIC 9970 0 libunwind::DwarfInstructions<libunwind::LocalAddressSpace, libunwind::Registers_arm64>::stepWithDwarf(libunwind::LocalAddressSpace&, unsigned long, unsigned long, libunwind::Registers_arm64&, bool&, bool)
PUBLIC 9df8 0 libunwind::CFI_Parser<libunwind::LocalAddressSpace>::parseFDEInstructions(libunwind::LocalAddressSpace&, libunwind::CFI_Parser<libunwind::LocalAddressSpace>::FDE_Info const&, libunwind::CFI_Parser<libunwind::LocalAddressSpace>::CIE_Info const&, unsigned long, int, libunwind::CFI_Parser<libunwind::LocalAddressSpace>::PrologInfo*)
PUBLIC aa40 0 libunwind::DwarfInstructions<libunwind::LocalAddressSpace, libunwind::Registers_arm64>::getCFA(libunwind::LocalAddressSpace&, libunwind::CFI_Parser<libunwind::LocalAddressSpace>::PrologInfo const&, libunwind::Registers_arm64 const&)
PUBLIC ab74 0 libunwind::DwarfInstructions<libunwind::LocalAddressSpace, libunwind::Registers_arm64>::getSavedRegister(libunwind::LocalAddressSpace&, libunwind::Registers_arm64 const&, unsigned long, libunwind::CFI_Parser<libunwind::LocalAddressSpace>::RegisterLocation const&)
PUBLIC ad84 0 libunwind::LocalAddressSpace::getEncodedP(unsigned long&, unsigned long, unsigned char, unsigned long)
PUBLIC b110 0 libunwind::LocalAddressSpace::getULEB128(unsigned long&, unsigned long)
PUBLIC b2d8 0 libunwind::DwarfInstructions<libunwind::LocalAddressSpace, libunwind::Registers_arm64>::evaluateExpression(unsigned long, libunwind::LocalAddressSpace&, libunwind::Registers_arm64 const&, unsigned long)
PUBLIC bc94 0 libunwind::UnwindCursor<libunwind::LocalAddressSpace, libunwind::Registers_arm64>::getInfoFromDwarfSection(unsigned long, libunwind::UnwindInfoSections const&, unsigned int)
PUBLIC bf68 0 libunwind::findUnwindSectionsByPhdr(dl_phdr_info*, unsigned long, void*)
PUBLIC c09c 0 libunwind::EHHeaderParser<libunwind::LocalAddressSpace>::decodeEHHdr(libunwind::LocalAddressSpace&, unsigned long, unsigned long, libunwind::EHHeaderParser<libunwind::LocalAddressSpace>::EHHeaderInfo&)
PUBLIC c1bc 0 libunwind::CFI_Parser<libunwind::LocalAddressSpace>::findFDE(libunwind::LocalAddressSpace&, unsigned long, unsigned long, unsigned long, unsigned long, libunwind::CFI_Parser<libunwind::LocalAddressSpace>::FDE_Info*, libunwind::CFI_Parser<libunwind::LocalAddressSpace>::CIE_Info*)
PUBLIC c384 0 libunwind::EHHeaderParser<libunwind::LocalAddressSpace>::findFDE(libunwind::LocalAddressSpace&, unsigned long, unsigned long, unsigned int, libunwind::CFI_Parser<libunwind::LocalAddressSpace>::FDE_Info*, libunwind::CFI_Parser<libunwind::LocalAddressSpace>::CIE_Info*)
PUBLIC c4ec 0 libunwind::EHHeaderParser<libunwind::LocalAddressSpace>::getTableEntrySize(unsigned char)
PUBLIC c5e8 0 libunwind::Registers_arm64::getRegisterName(int)
PUBLIC c618 0 __libunwind_Registers_arm64_jumpto
PUBLIC m c6a8 0 __unw_getcontext
PUBLIC c750 0 __aarch64_ldadd8_relax
PUBLIC c780 0 init_have_lse_atomics
PUBLIC c818 0 __init_cpu_features_constructor
PUBLIC cdb4 0 __init_cpu_features
PUBLIC ce40 0 __aarch64_ldadd8_acq_rel
FUNC ce70 444 0 __cxx_global_var_init.2
ceac 408 446 13
FUNC d2b4 18 0 geode::modifier::ModifyBase<geode::modifier::ModifyDerive<MyPlayLayer, PlayLayer> >::~ModifyBase()
d2b4 18 200 13
FUNC d2cc 444 0 __cxx_global_var_init.3
d308 408 446 13
FUNC d710 18 0 geode::modifier::ModifyBase<geode::modifier::ModifyDerive<MyPlayerObject, PlayerObject> >::~ModifyBase()
d710 18 200 13
FUNC d728 444 0 __cxx_global_var_init.4
d764 408 446 13
FUNC db6c 18 0 geode::modifier::ModifyBase<geode::modifier::ModifyDerive<MyPauseLayer, PauseLayer> >::~ModifyBase()
db6c 18 200 13
FUNC db84 444 0 __cxx_global_var_init.5
dbc0 408 446 13
FUNC dfc8 18 0 geode::modifier::ModifyBase<geode::modifier::ModifyDerive<MyLevelEditorLayer, LevelEditorLayer> >::~ModifyBase()
dfc8 18 200 13
FUNC dfe0 444 0 __cxx_global_var_init.6
e01c 408 446 13
FUNC e424 18 0 geode::modifier::ModifyBase<geode::modifier::ModifyDerive<MyAppDelegate, AppDelegate> >::~ModifyBase()
e424 18 200 13
FUNC e43c e8 0 geode::EventListener<geode::SettingChangedFilterV3>::EventListener(std::__ndk1::function<void (std::__ndk1::shared_ptr<geode::SettingV3>)>, geode::SettingChangedFilterV3)
e43c 14 158 18
e450 8 157 18
e458 8 158 18
e460 4 157 18
e464 4 156 18
e468 44 157 18
e4ac 4 159 18
e4b0 8 160 18
e4b8 1c 161 18
e4d4 4 157 18
e4d8 4c 161 18
FUNC e524 50 0 geode::SettingChangedFilterV3::~SettingChangedFilterV3()
e524 50 651 19
FUNC e574 4 0 std::__ndk1::__function::__func<geode::listenForSettingChangesV3<bool, geodeExecFunction20<(anonymous namespace)::ExecFuncUnique20>()::{lambda(bool)#1}>(std::__ndk1::basic_string_view<char, std::__ndk1::char_traits<char> >, geodeExecFunction20<(anonymous namespace)::ExecFuncUnique20>()::{lambda(bool)#1}&&, geode::Mod*)::{lambda(std::__ndk1::shared_ptr<geode::SettingV3>)#1}, std::__ndk1::allocator<geode::listenForSettingChangesV3<bool, geodeExecFunction20<(anonymous namespace)::ExecFuncUnique20>()::{lambda(bool)#1}>(std::__ndk1::basic_string_view<char, std::__ndk1::char_traits<char> >, geodeExecFunction20<(anonymous namespace)::ExecFuncUnique20>()::{lambda(bool)#1}&&, geode::Mod*)::{lambda(std::__ndk1::shared_ptr<geode::SettingV3>)#1}>, void (std::__ndk1::shared_ptr<geode::SettingV3>)>::~__func()
e574 4 250 20
FUNC e578 38 0 std::__ndk1::__function::__func<geode::listenForSettingChangesV3<bool, geodeExecFunction20<(anonymous namespace)::ExecFuncUnique20>()::{lambda(bool)#1}>(std::__ndk1::basic_string_view<char, std::__ndk1::char_traits<char> >, geodeExecFunction20<(anonymous namespace)::ExecFuncUnique20>()::{lambda(bool)#1}&&, geode::Mod*)::{lambda(std::__ndk1::shared_ptr<geode::SettingV3>)#1}, std::__ndk1::allocator<geode::listenForSettingChangesV3<bool, geodeExecFunction20<(anonymous namespace)::ExecFuncUnique20>()::{lambda(bool)#1}>(std::__ndk1::basic_string_view<char, std::__ndk1::char_traits<char> >, geodeExecFunction20<(anonymous namespace)::ExecFuncUnique20>()::{lambda(bool)#1}&&, geode::Mod*)::{lambda(std::__ndk1::shared_ptr<geode::SettingV3>)#1}>, void (std::__ndk1::shared_ptr<geode::SettingV3>)>::__clone() const
e578 10 277 20
e588 8 282 20
e590 14 283 20
e5a4 c 285 20
FUNC e5b0 18 0 std::__ndk1::__function::__func<geode::listenForSettingChangesV3<bool, geodeExecFunction20<(anonymous namespace)::ExecFuncUnique20>()::{lambda(bool)#1}>(std::__ndk1::basic_string_view<char, std::__ndk1::char_traits<char> >, geodeExecFunction20<(anonymous namespace)::ExecFuncUnique20>()::{lambda(bool)#1}&&, geode::Mod*)::{lambda(std::__ndk1::shared_ptr<geode::SettingV3>)#1}, std::__ndk1::allocator<geode::listenForSettingChangesV3<bool, geodeExecFunction20<(anonymous namespace)::ExecFuncUnique20>()::{lambda(bool)#1}>(std::__ndk1::basic_string_view<char, std::__ndk1::char_traits<char> >, geodeExecFunction20<(anonymous namespace)::ExecFuncUnique20>()::{lambda(bool)#1}&&, geode::Mod*)::{lambda(std::__ndk1::shared_ptr<geode::SettingV3>)#1}>, void (std::__ndk1::shared_ptr<geode::SettingV3>)>::__clone(std::__ndk1::__function::__base<void (std::__ndk1::shared_ptr<geode::SettingV3>)>*) const
e5b0 14 289 20
e5c4 4 290 20
FUNC e5c8 4 0 std::__ndk1::__function::__func<geode::listenForSettingChangesV3<bool, geodeExecFunction20<(anonymous namespace)::ExecFuncUnique20>()::{lambda(bool)#1}>(std::__ndk1::basic_string_view<char, std::__ndk1::char_traits<char> >, geodeExecFunction20<(anonymous namespace)::ExecFuncUnique20>()::{lambda(bool)#1}&&, geode::Mod*)::{lambda(std::__ndk1::shared_ptr<geode::SettingV3>)#1}, std::__ndk1::allocator<geode::listenForSettingChangesV3<bool, geodeExecFunction20<(anonymous namespace)::ExecFuncUnique20>()::{lambda(bool)#1}>(std::__ndk1::basic_string_view<char, std::__ndk1::char_traits<char> >, geodeExecFunction20<(anonymous namespace)::ExecFuncUnique20>()::{lambda(bool)#1}&&, geode::Mod*)::{lambda(std::__ndk1::shared_ptr<geode::SettingV3>)#1}>, void (std::__ndk1::shared_ptr<geode::SettingV3>)>::destroy()
e5c8 4 295 20
FUNC e5cc 4 0 std::__ndk1::__function::__func<geode::listenForSettingChangesV3<bool, geodeExecFunction20<(anonymous namespace)::ExecFuncUnique20>()::{lambda(bool)#1}>(std::__ndk1::basic_string_view<char, std::__ndk1::char_traits<char> >, geodeExecFunction20<(anonymous namespace)::ExecFuncUnique20>()::{lambda(bool)#1}&&, geode::Mod*)::{lambda(std::__ndk1::shared_ptr<geode::SettingV3>)#1}, std::__ndk1::allocator<geode::listenForSettingChangesV3<bool, geodeExecFunction20<(anonymous namespace)::ExecFuncUnique20>()::{lambda(bool)#1}>(std::__ndk1::basic_string_view<char, std::__ndk1::char_traits<char> >, geodeExecFunction20<(anonymous namespace)::ExecFuncUnique20>()::{lambda(bool)#1}&&, geode::Mod*)::{lambda(std::__ndk1::shared_ptr<geode::SettingV3>)#1}>, void (std::__ndk1::shared_ptr<geode::SettingV3>)>::destroy_deallocate()
e5cc 4 303 20
FUNC e5d0 e8 0 std::__ndk1::__function::__func<geode::listenForSettingChangesV3<bool, geodeExecFunction20<(anonymous namespace)::ExecFuncUnique20>()::{lambda(bool)#1}>(std::__ndk1::basic_string_view<char, std::__ndk1::char_traits<char> >, geodeExecFunction20<(anonymous namespace)::ExecFuncUnique20>()::{lambda(bool)#1}&&, geode::Mod*)::{lambda(std::__ndk1::shared_ptr<geode::SettingV3>)#1}, std::__ndk1::allocator<geode::listenForSettingChangesV3<bool, geodeExecFunction20<(anonymous namespace)::ExecFuncUnique20>()::{lambda(bool)#1}>(std::__ndk1::basic_string_view<char, std::__ndk1::char_traits<char> >, geodeExecFunction20<(anonymous namespace)::ExecFuncUnique20>()::{lambda(bool)#1}&&, geode::Mod*)::{lambda(std::__ndk1::shared_ptr<geode::SettingV3>)#1}>, void (std::__ndk1::shared_ptr<geode::SettingV3>)>::operator()(std::__ndk1::shared_ptr<geode::SettingV3>&&)
e5d0 c 307 20
e5dc dc 308 20
FUNC e6b8 1c 0 std::__ndk1::__function::__func<geode::listenForSettingChangesV3<bool, geodeExecFunction20<(anonymous namespace)::ExecFuncUnique20>()::{lambda(bool)#1}>(std::__ndk1::basic_string_view<char, std::__ndk1::char_traits<char> >, geodeExecFunction20<(anonymous namespace)::ExecFuncUnique20>()::{lambda(bool)#1}&&, geode::Mod*)::{lambda(std::__ndk1::shared_ptr<geode::SettingV3>)#1}, std::__ndk1::allocator<geode::listenForSettingChangesV3<bool, geodeExecFunction20<(anonymous namespace)::ExecFuncUnique20>()::{lambda(bool)#1}>(std::__ndk1::basic_string_view<char, std::__ndk1::char_traits<char> >, geodeExecFunction20<(anonymous namespace)::ExecFuncUnique20>()::{lambda(bool)#1}&&, geode::Mod*)::{lambda(std::__ndk1::shared_ptr<geode::SettingV3>)#1}>, void (std::__ndk1::shared_ptr<geode::SettingV3>)>::target(std::type_info const&) const
e6b8 18 315 20
e6d0 4 318 20
FUNC e6d4 c 0 std::__ndk1::__function::__func<geode::listenForSettingChangesV3<bool, geodeExecFunction20<(anonymous namespace)::ExecFuncUnique20>()::{lambda(bool)#1}>(std::__ndk1::basic_string_view<char, std::__ndk1::char_traits<char> >, geodeExecFunction20<(anonymous namespace)::ExecFuncUnique20>()::{lambda(bool)#1}&&, geode::Mod*)::{lambda(std::__ndk1::shared_ptr<geode::SettingV3>)#1}, std::__ndk1::allocator<geode::listenForSettingChangesV3<bool, geodeExecFunction20<(anonymous namespace)::ExecFuncUnique20>()::{lambda(bool)#1}>(std::__ndk1::basic_string_view<char, std::__ndk1::char_traits<char> >, geodeExecFunction20<(anonymous namespace)::ExecFuncUnique20>()::{lambda(bool)#1}&&, geode::Mod*)::{lambda(std::__ndk1::shared_ptr<geode::SettingV3>)#1}>, void (std::__ndk1::shared_ptr<geode::SettingV3>)>::target_type() const
e6d4 c 322 20
FUNC e6e0 34 0 std::__throw_bad_array_new_length([abi:ne180000], void)
e6e0 c 172 7
e6ec 28 174 7
PUBLIC e714 0 __clang_call_terminate
FUNC e724 e4 0 geode::cast::traverseTypeinfoFor(void*, geode::cast::ClassTypeinfoType const*, char const*)
e724 14 57 1
e738 c 59 1
e744 1c 60 1
e760 4 64 1
e764 4 65 1
e768 8 64 1
e770 c 65 1
e77c 4 67 1
e780 4 60 1
e784 4 59 1
e788 c 60 1
e794 18 69 1
e7ac 18 80 1
e7c4 10 71 1
e7d4 4 73 1
e7d8 4 74 1
e7dc 4 73 1
e7e0 8 74 1
e7e8 20 71 1
FUNC e808 14 0 std::__ndk1::basic_string<char, std::__ndk1::char_traits<char>, std::__ndk1::allocator<char> >::__throw_length_error[abi:ne180000]() const
e808 8 2118 15
e810 c 2119 15
FUNC e81c 50 0 std::__ndk1::__throw_length_error[abi:ne180000](char const*)
e81c 10 239 4
e82c 40 241 4
FUNC e86c 30 0 std::length_error::length_error[abi:ne180000](char const*)
e86c 30 152 4
FUNC e89c 4 0 geode::EventListener<geode::SettingChangedFilterV3>::getPool() const
e89c 4 148 18
FUNC e8a0 174 0 geode::EventListener<geode::SettingChangedFilterV3>::handle(geode::Event*)
e8a0 28 138 18
e8c8 c 139 18
e8d4 2c 140 18
e900 a0 141 18
e9a0 24 145 18
e9c4 50 141 18
FUNC ea14 8c 0 geode::EventListener<geode::SettingChangedFilterV3>::~EventListener()
ea14 8c 131 18
FUNC eaa0 94 0 geode::EventListener<geode::SettingChangedFilterV3>::~EventListener()
eaa0 94 131 18
FUNC eb34 4 0 std::__ndk1::__function::__base<void (std::__ndk1::shared_ptr<geode::SettingV3>)>::~__base()
eb34 4 235 20
FUNC eb38 4 0 std::__ndk1::__function::__func<geode::listenForSettingChangesV3<bool, geodeExecFunction20<(anonymous namespace)::ExecFuncUnique20>()::{lambda(bool)#2}>(std::__ndk1::basic_string_view<char, std::__ndk1::char_traits<char> >, geodeExecFunction20<(anonymous namespace)::ExecFuncUnique20>()::{lambda(bool)#2}&&, geode::Mod*)::{lambda(std::__ndk1::shared_ptr<geode::SettingV3>)#1}, std::__ndk1::allocator<geode::listenForSettingChangesV3<bool, geodeExecFunction20<(anonymous namespace)::ExecFuncUnique20>()::{lambda(bool)#2}>(std::__ndk1::basic_string_view<char, std::__ndk1::char_traits<char> >, geodeExecFunction20<(anonymous namespace)::ExecFuncUnique20>()::{lambda(bool)#2}&&, geode::Mod*)::{lambda(std::__ndk1::shared_ptr<geode::SettingV3>)#1}>, void (std::__ndk1::shared_ptr<geode::SettingV3>)>::~__func()
eb38 4 250 20
FUNC eb3c 38 0 std::__ndk1::__function::__func<geode::listenForSettingChangesV3<bool, geodeExecFunction20<(anonymous namespace)::ExecFuncUnique20>()::{lambda(bool)#2}>(std::__ndk1::basic_string_view<char, std::__ndk1::char_traits<char> >, geodeExecFunction20<(anonymous namespace)::ExecFuncUnique20>()::{lambda(bool)#2}&&, geode::Mod*)::{lambda(std::__ndk1::shared_ptr<geode::SettingV3>)#1}, std::__ndk1::allocator<geode::listenForSettingChangesV3<bool, geodeExecFunction20<(anonymous namespace)::ExecFuncUnique20>()::{lambda(bool)#2}>(std::__ndk1::basic_string_view<char, std::__ndk1::char_traits<char> >, geodeExecFunction20<(anonymous namespace)::ExecFuncUnique20>()::{lambda(bool)#2}&&, geode::Mod*)::{lambda(std::__ndk1::shared_ptr<geode::SettingV3>)#1}>, void (std::__ndk1::shared_ptr<geode::SettingV3>)>::__clone() const
eb3c 10 277 20
eb4c 8 282 20
eb54 14 283 20
eb68 c 285 20
FUNC eb74 18 0 std::__ndk1::__function::__func<geode::listenForSettingChangesV3<bool, geodeExecFunction20<(anonymous namespace)::ExecFuncUnique20>()::{lambda(bool)#2}>(std::__ndk1::basic_string_view<char, std::__ndk1::char_traits<char> >, geodeExecFunction20<(anonymous namespace)::ExecFuncUnique20>()::{lambda(bool)#2}&&, geode::Mod*)::{lambda(std::__ndk1::shared_ptr<geode::SettingV3>)#1}, std::__ndk1::allocator<geode::listenForSettingChangesV3<bool, geodeExecFunction20<(anonymous namespace)::ExecFuncUnique20>()::{lambda(bool)#2}>(std::__ndk1::basic_string_view<char, std::__ndk1::char_traits<char> >, geodeExecFunction20<(anonymous namespace)::ExecFuncUnique20>()::{lambda(bool)#2}&&, geode::Mod*)::{lambda(std::__ndk1::shared_ptr<geode::SettingV3>)#1}>, void (std::__ndk1::shared_ptr<geode::SettingV3>)>::__clone(std::__ndk1::__function::__base<void (std::__ndk1::shared_ptr<geode::SettingV3>)>*) const
eb74 14 289 20
eb88 4 290 20
FUNC eb8c 4 0 std::__ndk1::__function::__func<geode::listenForSettingChangesV3<bool, geodeExecFunction20<(anonymous namespace)::ExecFuncUnique20>()::{lambda(bool)#2}>(std::__ndk1::basic_string_view<char, std::__ndk1::char_traits<char> >, geodeExecFunction20<(anonymous namespace)::ExecFuncUnique20>()::{lambda(bool)#2}&&, geode::Mod*)::{lambda(std::__ndk1::shared_ptr<geode::SettingV3>)#1}, std::__ndk1::allocator<geode::listenForSettingChangesV3<bool, geodeExecFunction20<(anonymous namespace)::ExecFuncUnique20>()::{lambda(bool)#2}>(std::__ndk1::basic_string_view<char, std::__ndk1::char_traits<char> >, geodeExecFunction20<(anonymous namespace)::ExecFuncUnique20>()::{lambda(bool)#2}&&, geode::Mod*)::{lambda(std::__ndk1::shared_ptr<geode::SettingV3>)#1}>, void (std::__ndk1::shared_ptr<geode::SettingV3>)>::destroy()
eb8c 4 295 20
FUNC eb90 4 0 std::__ndk1::__function::__func<geode::listenForSettingChangesV3<bool, geodeExecFunction20<(anonymous namespace)::ExecFuncUnique20>()::{lambda(bool)#2}>(std::__ndk1::basic_string_view<char, std::__ndk1::char_traits<char> >, geodeExecFunction20<(anonymous namespace)::ExecFuncUnique20>()::{lambda(bool)#2}&&, geode::Mod*)::{lambda(std::__ndk1::shared_ptr<geode::SettingV3>)#1}, std::__ndk1::allocator<geode::listenForSettingChangesV3<bool, geodeExecFunction20<(anonymous namespace)::ExecFuncUnique20>()::{lambda(bool)#2}>(std::__ndk1::basic_string_view<char, std::__ndk1::char_traits<char> >, geodeExecFunction20<(anonymous namespace)::ExecFuncUnique20>()::{lambda(bool)#2}&&, geode::Mod*)::{lambda(std::__ndk1::shared_ptr<geode::SettingV3>)#1}>, void (std::__ndk1::shared_ptr<geode::SettingV3>)>::destroy_deallocate()
eb90 4 303 20
FUNC eb94 e4 0 std::__ndk1::__function::__func<geode::listenForSettingChangesV3<bool, geodeExecFunction20<(anonymous namespace)::ExecFuncUnique20>()::{lambda(bool)#2}>(std::__ndk1::basic_string_view<char, std::__ndk1::char_traits<char> >, geodeExecFunction20<(anonymous namespace)::ExecFuncUnique20>()::{lambda(bool)#2}&&, geode::Mod*)::{lambda(std::__ndk1::shared_ptr<geode::SettingV3>)#1}, std::__ndk1::allocator<geode::listenForSettingChangesV3<bool, geodeExecFunction20<(anonymous namespace)::ExecFuncUnique20>()::{lambda(bool)#2}>(std::__ndk1::basic_string_view<char, std::__ndk1::char_traits<char> >, geodeExecFunction20<(anonymous namespace)::ExecFuncUnique20>()::{lambda(bool)#2}&&, geode::Mod*)::{lambda(std::__ndk1::shared_ptr<geode::SettingV3>)#1}>, void (std::__ndk1::shared_ptr<geode::SettingV3>)>::operator()(std::__ndk1::shared_ptr<geode::SettingV3>&&)
eb94 c 307 20
eba0 d8 308 20
FUNC ec78 1c 0 std::__ndk1::__function::__func<geode::listenForSettingChangesV3<bool, geodeExecFunction20<(anonymous namespace)::ExecFuncUnique20>()::{lambda(bool)#2}>(std::__ndk1::basic_string_view<char, std::__ndk1::char_traits<char> >, geodeExecFunction20<(anonymous namespace)::ExecFuncUnique20>()::{lambda(bool)#2}&&, geode::Mod*)::{lambda(std::__ndk1::shared_ptr<geode::SettingV3>)#1}, std::__ndk1::allocator<geode::listenForSettingChangesV3<bool, geodeExecFunction20<(anonymous namespace)::ExecFuncUnique20>()::{lambda(bool)#2}>(std::__ndk1::basic_string_view<char, std::__ndk1::char_traits<char> >, geodeExecFunction20<(anonymous namespace)::ExecFuncUnique20>()::{lambda(bool)#2}&&, geode::Mod*)::{lambda(std::__ndk1::shared_ptr<geode::SettingV3>)#1}>, void (std::__ndk1::shared_ptr<geode::SettingV3>)>::target(std::type_info const&) const
ec78 18 315 20
ec90 4 318 20
FUNC ec94 c 0 std::__ndk1::__function::__func<geode::listenForSettingChangesV3<bool, geodeExecFunction20<(anonymous namespace)::ExecFuncUnique20>()::{lambda(bool)#2}>(std::__ndk1::basic_string_view<char, std::__ndk1::char_traits<char> >, geodeExecFunction20<(anonymous namespace)::ExecFuncUnique20>()::{lambda(bool)#2}&&, geode::Mod*)::{lambda(std::__ndk1::shared_ptr<geode::SettingV3>)#1}, std::__ndk1::allocator<geode::listenForSettingChangesV3<bool, geodeExecFunction20<(anonymous namespace)::ExecFuncUnique20>()::{lambda(bool)#2}>(std::__ndk1::basic_string_view<char, std::__ndk1::char_traits<char> >, geodeExecFunction20<(anonymous namespace)::ExecFuncUnique20>()::{lambda(bool)#2}&&, geode::Mod*)::{lambda(std::__ndk1::shared_ptr<geode::SettingV3>)#1}>, void (std::__ndk1::shared_ptr<geode::SettingV3>)>::target_type() const
ec94 c 322 20
FUNC eca0 6ac 0 geode::modifier::ModifyDerive<MyPlayLayer, PlayLayer>::apply()
eca0 34 1276 8
ecd4 290 1341 8
ef64 21c 1350 8
f180 30 1408 8
f1b0 48 1341 8
f1f8 48 1350 8
f240 30 1341 8
f270 48 1350 8
f2b8 94 1341 8
FUNC f34c 50 0 std::__ndk1::shared_ptr<geode::Hook>::~shared_ptr[abi:ne180000]()
f34c c 643 17
f358 8 644 17
f360 10 645 17
f370 c 646 17
f37c 20 645 17
FUNC f39c 74 0 geode::impl::ResultData<geode::Hook*, std::__ndk1::basic_string<char, std::__ndk1::char_traits<char>, std::__ndk1::allocator<char> > >::~ResultData()
f39c 74 422 16
FUNC f410 7c 0 std::__ndk1::vector<std::__ndk1::basic_string<char, std::__ndk1::char_traits<char>, std::__ndk1::allocator<char> >, std::__ndk1::allocator<std::__ndk1::basic_string<char, std::__ndk1::char_traits<char>, std::__ndk1::allocator<char> > > >::~vector[abi:ne180000]()
f410 7c 501 14
FUNC f48c 4 0 geode::modifier::ModifyBase<geode::modifier::ModifyDerive<MyPlayLayer, PlayLayer> >::apply()
f48c 4 416 13
FUNC f490 154 0 _ZN5geode15UnwrapExceptionC2IRPNS_4HookEQsr4implE18IsStringStreamableIT_EEENS_4impl5OkTagEOS5_
f490 20 404 16
f4b0 48 403 16
f4f8 5c 402 16
f554 4 403 16
f558 18 402 16
f570 34 404 16
f5a4 40 402 16
FUNC f5e4 34 0 std::__ndk1::__throw_bad_variant_access[abi:ne180000]()
f5e4 8 285 3
f5ec 2c 287 3
FUNC f618 124 0 std::__ndk1::basic_stringstream<char, std::__ndk1::char_traits<char>, std::__ndk1::allocator<char> >::basic_stringstream[abi:ne180000]()
f618 124 1010 22
FUNC f73c 80 0 std::__ndk1::basic_stringstream<char, std::__ndk1::char_traits<char>, std::__ndk1::allocator<char> >::~basic_stringstream()
f73c 80 1102 22
FUNC f7bc 24 0 geode::UnwrapException::~UnwrapException()
f7bc 24 413 16
FUNC f7e0 198 0 std::__ndk1::__put_character_sequence[abi:ne180000]<char, std::__ndk1::char_traits<char> >(std::__ndk1::basic_ostream<char, std::__ndk1::char_traits<char> >, std::__ndk1::basic_ostream const*, unsigned long)
f7e0 34 665 2
f814 c 669 2
f820 8 670 2
f828 c 673 2
f834 4 678 2
f838 4 673 2
f83c 4 675 2
f840 54 678 2
f894 10 675 2
f8a4 10 672 2
f8b4 1c 680 2
f8d0 8 683 2
f8d8 38 687 2
f910 10 678 2
f920 18 683 2
f938 10 684 2
f948 30 685 2
FUNC f978 1b4 0 std::__ndk1::__pad_and_output[abi:ne180000]<char, std::__ndk1::char_traits<char> >(std::__ndk1::char_traits<char>, std::__ndk1::ostreambuf_iterator const*, std::__ndk1::ostreambuf_iterator const, std::__ndk1::ostreambuf_iterator const, std::__ndk1::ios_base&, std::__ndk1::ostreambuf_iterator)
f978 30 1246 6
f9a8 4 1247 6
f9ac 4 1250 6
f9b0 4 1249 6
f9b4 10 1255 6
f9c4 c 1251 6
f9d0 8 1256 6
f9d8 1c 1257 6
f9f4 8 1262 6
f9fc 4c 1263 6
fa48 2c 1264 6
fa74 1c 1268 6
fa90 4 1269 6
fa94 8 1270 6
fa9c 20 1271 6
fabc c 1276 6
fac8 34 1278 6
fafc 30 1268 6
FUNC fb2c 15c 0 std::__ndk1::basic_stringbuf<char, std::__ndk1::char_traits<char>, std::__ndk1::allocator<char> >::str[abi:ne180000]() &&
fb2c 18 396 22
fb44 40 397 22
fb84 8 398 22
fb8c 8 402 22
fb94 4 398 22
fb98 4 402 22
fb9c 4 398 22
fba0 c 402 22
fbac 4 398 22
fbb0 8 402 22
fbb8 4 398 22
fbbc 4 402 22
fbc0 4 398 22
fbc4 3c 402 22
fc00 4 401 22
fc04 30 402 22
fc34 1c 403 22
fc50 4 404 22
fc54 34 406 22
FUNC fc88 148 0 std::__ndk1::basic_stringbuf<char, std::__ndk1::char_traits<char>, std::__ndk1::allocator<char> >::__init_buf_ptrs[abi:ne180000]()
fc88 10 626 22
fc98 8 628 22
fca0 4 630 22
fca4 4 628 22
fca8 4 627 22
fcac 8 629 22
fcb4 4 628 22
fcb8 4 629 22
fcbc 4 630 22
fcc0 4 631 22
fcc4 4 632 22
fcc8 4 631 22
fccc 4 632 22
fcd0 4 634 22
fcd4 20 636 22
fcf4 4 635 22
fcf8 4 636 22
fcfc 4 635 22
fd00 3c 636 22
fd3c 14 637 22
fd50 4 638 22
fd54 4 637 22
fd58 4 638 22
fd5c 8 637 22
fd64 4 638 22
fd68 48 639 22
fdb0 4 640 22
fdb4 4 643 22
fdb8 8 644 22
fdc0 10 647 22
FUNC fdd0 218 0 std::__ndk1::vector<std::__ndk1::basic_string<char, std::__ndk1::char_traits<char>, std::__ndk1::allocator<char> >, std::__ndk1::allocator<std::__ndk1::basic_string<char, std::__ndk1::char_traits<char>, std::__ndk1::allocator<char> > > >::__push_back_slow_path<std::__ndk1::basic_string<char, std::__ndk1::char_traits<char>, std::__ndk1::allocator<char> > const&>(std::__ndk1::basic_string<char, std::__ndk1::char_traits<char>, std::__ndk1::allocator<char> > const&)
fdd0 30 1449 14
fe00 94 1451 14
fe94 4 1453 14
fe98 4 1451 14
fe9c 24 1453 14
fec0 4 1455 14
fec4 4 1454 14
fec8 4 1455 14
fecc 4 1454 14
fed0 44 1455 14
ff14 4 1457 14
ff18 10 1455 14
ff28 70 1457 14
ff98 2c 1451 14
ffc4 24 1457 14
FUNC ffe8 70 0 std::__ndk1::basic_string<char, std::__ndk1::char_traits<char>, std::__ndk1::allocator<char> >::__init_copy_ctor_external(char const*, unsigned long)
ffe8 14 2232 15
fffc 8 2237 15
10004 10 2239 15
10014 8 2241 15
1001c 10 2243 15
1002c 8 2247 15
10034 4 2246 15
10038 4 2247 15
1003c 14 2250 15
10050 8 2242 15
FUNC 10058 68 0 std::__ndk1::__split_buffer<std::__ndk1::basic_string<char, std::__ndk1::char_traits<char>, std::__ndk1::allocator<char> >, std::__ndk1::allocator<std::__ndk1::basic_string<char, std::__ndk1::char_traits<char>, std::__ndk1::allocator<char> > >&>::~__split_buffer()
10058 c 352 23
10064 10 353 23
10074 8 354 23
1007c c 355 23
10088 2c 353 23
100b4 c 356 23
FUNC 100c0 14 0 std::__ndk1::vector<std::__ndk1::basic_string<char, std::__ndk1::char_traits<char>, std::__ndk1::allocator<char> >, std::__ndk1::allocator<std::__ndk1::basic_string<char, std::__ndk1::char_traits<char>, std::__ndk1::allocator<char> > > >::__throw_length_error[abi:ne180000]() const
100c0 14 940 14
FUNC 100d4 4 0 std::__ndk1::__variant_detail::__visitation::__base::__dispatcher<(unsigned long)0>::__dispatch[abi:ne180000]<std::__ndk1::__variant_detail::__dtor<std::__ndk1::__variant_detail::__traits<geode::Hook*, std::__ndk1::basic_string<char, std::__ndk1::char_traits<char>, std::__ndk1::allocator<char> > >, (std::__ndk1::__variant_detail::_Trait)1>::__destroy[abi:ne180000]()::{lambda(auto:1&)#1}, std::__ndk1::__variant_detail::__base<(std::__ndk1::__variant_detail::__traits<geode::Hook*, std::__ndk1::basic_string<char, std::__ndk1::char_traits<char>, std::__ndk1::allocator<char> > >)1, geode::Hook, std::__ndk1::allocator<char> >&>(std::__ndk1::__variant_detail::__dtor<std::__ndk1::__variant_detail::__traits<geode::Hook*, std::__ndk1::basic_string<char, std::__ndk1::char_traits<char>, std::__ndk1::allocator<char> > >, (std::__ndk1::__variant_detail::_Trait)1>, std::__ndk1::__variant_detail::__base<(std::__ndk1::__variant_detail::__traits<geode::Hook*, std::__ndk1::basic_string<char, std::__ndk1::char_traits<char>, std::__ndk1::allocator<char> > >)1, geode::Hook, std::__ndk1::allocator<char> >&)
100d4 4 526 3
FUNC 100d8 14 0 std::__ndk1::__variant_detail::__visitation::__base::__dispatcher<(unsigned long)1>::__dispatch[abi:ne180000]<std::__ndk1::__variant_detail::__dtor<std::__ndk1::__variant_detail::__traits<geode::Hook*, std::__ndk1::basic_string<char, std::__ndk1::char_traits<char>, std::__ndk1::allocator<char> > >, (std::__ndk1::__variant_detail::_Trait)1>::__destroy[abi:ne180000]()::{lambda(auto:1&)#1}, std::__ndk1::__variant_detail::__base<(std::__ndk1::__variant_detail::__traits<geode::Hook*, std::__ndk1::basic_string<char, std::__ndk1::char_traits<char>, std::__ndk1::allocator<char> > >)1, geode::Hook, std::__ndk1::allocator<char> >&>(std::__ndk1::__variant_detail::__dtor<std::__ndk1::__variant_detail::__traits<geode::Hook*, std::__ndk1::basic_string<char, std::__ndk1::char_traits<char>, std::__ndk1::allocator<char> > >, (std::__ndk1::__variant_detail::_Trait)1>, std::__ndk1::__variant_detail::__base<(std::__ndk1::__variant_detail::__traits<geode::Hook*, std::__ndk1::basic_string<char, std::__ndk1::char_traits<char>, std::__ndk1::allocator<char> > >)1, geode::Hook, std::__ndk1::allocator<char> >&)
100d8 14 526 3
FUNC 100ec fc 0 std::__ndk1::__tree<std::__ndk1::__value_type<std::__ndk1::basic_string<char, std::__ndk1::char_traits<char>, std::__ndk1::allocator<char> >, std::__ndk1::shared_ptr<geode::Hook> >, std::__ndk1::__map_value_compare<std::__ndk1::basic_string<char, std::__ndk1::char_traits<char>, std::__ndk1::allocator<char> >, std::__ndk1::__value_type<std::__ndk1::basic_string<char, std::__ndk1::char_traits<char>, std::__ndk1::allocator<char> >, std::__ndk1::shared_ptr<geode::Hook> >, std::__ndk1::less<std::__ndk1::basic_string<char, std::__ndk1::char_traits<char>, std::__ndk1::allocator<char> > >, true>, std::__ndk1::allocator<std::__ndk1::__value_type<std::__ndk1::basic_string<char, std::__ndk1::char_traits<char>, std::__ndk1::allocator<char> >, std::__ndk1::shared_ptr<geode::Hook> > > >::find<std::__ndk1::basic_string<char, std::__ndk1::char_traits<char>, std::__ndk1::allocator<char> > >(std::__ndk1::basic_string<char, std::__ndk1::char_traits<char>, std::__ndk1::allocator<char> > const&)
100ec 18 2087 5
10104 7c 2088 5
10180 50 2089 5
101d0 18 2092 5
FUNC 101e8 454 0 std::__ndk1::__tree<std::__ndk1::__value_type<std::__ndk1::basic_string<char, std::__ndk1::char_traits<char>, std::__ndk1::allocator<char> >, std::__ndk1::shared_ptr<geode::Hook> >, std::__ndk1::__map_value_compare<std::__ndk1::basic_string<char, std::__ndk1::char_traits<char>, std::__ndk1::allocator<char> >, std::__ndk1::__value_type<std::__ndk1::basic_string<char, std::__ndk1::char_traits<char>, std::__ndk1::allocator<char> >, std::__ndk1::shared_ptr<geode::Hook> >, std::__ndk1::less<std::__ndk1::basic_string<char, std::__ndk1::char_traits<char>, std::__ndk1::allocator<char> > >, true>, std::__ndk1::allocator<std::__ndk1::__value_type<std::__ndk1::basic_string<char, std::__ndk1::char_traits<char>, std::__ndk1::allocator<char> >, std::__ndk1::shared_ptr<geode::Hook> > > >::erase(std::__ndk1::__tree_const_iterator<std::__ndk1::__value_type<std::__ndk1::basic_string<char, std::__ndk1::char_traits<char>, std::__ndk1::allocator<char> >, std::__ndk1::shared_ptr<geode::Hook> >, std::__ndk1::__tree_node<std::__ndk1::__value_type<std::__ndk1::basic_string<char, std::__ndk1::char_traits<char>, std::__ndk1::allocator<char> >, std::__ndk1::shared_ptr<geode::Hook> >, void*>*, long>)
101e8 c 2046 5
101f4 284 2048 5
10478 14 2050 5
1048c 4 2048 5
10490 c 2050 5
1049c a4 2048 5
10540 40 2050 5
10580 10 2051 5
10590 a0 2048 5
10630 c 2050 5
FUNC 1063c 84 0 std::__ndk1::__tree<std::__ndk1::__value_type<std::__ndk1::basic_string<char, std::__ndk1::char_traits<char>, std::__ndk1::allocator<char> >, std::__ndk1::shared_ptr<geode::Hook> >, std::__ndk1::__map_value_compare<std::__ndk1::basic_string<char, std::__ndk1::char_traits<char>, std::__ndk1::allocator<char> >, std::__ndk1::__value_type<std::__ndk1::basic_string<char, std::__ndk1::char_traits<char>, std::__ndk1::allocator<char> >, std::__ndk1::shared_ptr<geode::Hook> >, std::__ndk1::less<std::__ndk1::basic_string<char, std::__ndk1::char_traits<char>, std::__ndk1::allocator<char> > >, true>, std::__ndk1::allocator<std::__ndk1::__value_type<std::__ndk1::basic_string<char, std::__ndk1::char_traits<char>, std::__ndk1::allocator<char> >, std::__ndk1::shared_ptr<geode::Hook> > > >::destroy(std::__ndk1::__tree_node<std::__ndk1::__value_type<std::__ndk1::basic_string<char, std::__ndk1::char_traits<char>, std::__ndk1::allocator<char> >, std::__ndk1::shared_ptr<geode::Hook> >, void*>*)
1063c 14 1544 5
10650 8 1545 5
10658 8 1546 5
10660 28 1548 5
10688 10 1549 5
10698 4 1551 5
1069c 24 1548 5
FUNC 106c0 7c 0 geode::modifier::AsStaticFunction_init<MyPlayLayer, bool (MyPlayLayer::*)(GJGameLevel*, bool, bool)>::Impl<bool (MyPlayLayer::*)(GJGameLevel*, bool, bool)>::function(MyPlayLayer*, GJGameLevel*, bool, bool)
106c0 7c 305 8
FUNC 1073c fc 0 geode::modifier::AsStaticFunction_onQuit<MyPlayLayer, void (MyPlayLayer::*)()>::Impl<void (MyPlayLayer::*)()>::function(MyPlayLayer*)
1073c fc 350 8
FUNC 10838 50 0 std::__ndk1::shared_ptr<tulip::hook::CallingConvention>::~shared_ptr[abi:ne180000]()
10838 c 643 17
10844 8 644 17
1084c 10 645 17
1085c c 646 17
10868 20 645 17
FUNC 10888 64 0 tulip::hook::HandlerMetadata::~HandlerMetadata()
10888 64 12 21
FUNC 108ec 104 0 std::__ndk1::__tree<std::__ndk1::__value_type<std::__ndk1::basic_string<char, std::__ndk1::char_traits<char>, std::__ndk1::allocator<char> >, std::__ndk1::shared_ptr<geode::Hook> >, std::__ndk1::__map_value_compare<std::__ndk1::basic_string<char, std::__ndk1::char_traits<char>, std::__ndk1::allocator<char> >, std::__ndk1::__value_type<std::__ndk1::basic_string<char, std::__ndk1::char_traits<char>, std::__ndk1::allocator<char> >, std::__ndk1::shared_ptr<geode::Hook> >, std::__ndk1::less<std::__ndk1::basic_string<char, std::__ndk1::char_traits<char>, std::__ndk1::allocator<char> > >, true>, std::__ndk1::allocator<std::__ndk1::__value_type<std::__ndk1::basic_string<char, std::__ndk1::char_traits<char>, std::__ndk1::allocator<char> >, std::__ndk1::shared_ptr<geode::Hook> > > >::__find_equal<std::__ndk1::basic_string<char, std::__ndk1::char_traits<char>, std::__ndk1::allocator<char> > >(std::__ndk1::__tree_end_node<std::__ndk1::__tree_node_base<void*>*>*&, std::__ndk1::basic_string<char, std::__ndk1::char_traits<char>, std::__ndk1::allocator<char> > const&)
108ec 20 1682 5
1090c 4 1683 5
10910 20 1685 5
10930 10 1688 5
10940 50 1687 5
10990 2c 1695 5
109bc 14 1696 5
109d0 20 1711 5
FUNC 109f0 19c 0 std::__ndk1::__tree_balance_after_insert[abi:ne180000]<std::__ndk1::__tree_node_base<void*>*>(std::__ndk1::__tree_node_base<void*>*, std::__ndk1::__tree_node_base<void*>*)
109f0 c 285 5
109fc 34 286 5
10a30 10 288 5
10a40 10 310 5
10a50 4 289 5
10a54 c 290 5
10a60 c 297 5
10a6c 38 299 5
10aa4 4 303 5
10aa8 4 299 5
10aac 8 305 5
10ab4 4 330 5
10ab8 14 317 5
10acc 30 319 5
10afc 4 323 5
10b00 4 319 5
10b04 8 325 5
10b0c 4 322 5
10b10 4 325 5
10b14 4 324 5
10b18 2c 325 5
10b44 8 330 5
10b4c 8 305 5
10b54 4 302 5
10b58 4 304 5
10b5c 2c 305 5
10b88 4 330 5
FUNC 10b8c 1348 0 geode::modifier::ModifyDerive<MyPlayerObject, PlayerObject>::apply()
10b8c 30 2176 9
10bbc 1dc 2339 9
10d98 1dc 2340 9
10f74 1e8 2341 9
1115c 1e0 2344 9
1133c 1e8 2345 9
11524 1e4 2346 9
11708 1e0 2347 9
118e8 1dc 2348 9
11ac4 2c 2401 9
11af0 24 2339 9
11b14 24 2340 9
11b38 24 2341 9
11b5c 24 2344 9
11b80 24 2345 9
11ba4 24 2346 9
11bc8 24 2347 9
11bec 24 2348 9
11c10 30 2339 9
11c40 30 2340 9
11c70 30 2341 9
11ca0 30 2344 9
11cd0 30 2345 9
11d00 30 2346 9
11d30 30 2347 9
11d60 48 2348 9
11da8 14 2347 9
11dbc 14 2346 9
11dd0 14 2345 9
11de4 14 2344 9
11df8 14 2341 9
11e0c 14 2340 9
11e20 b4 2339 9
FUNC 11ed4 4 0 geode::modifier::ModifyBase<geode::modifier::ModifyDerive<MyPlayerObject, PlayerObject> >::apply()
11ed4 4 416 13
FUNC 11ed8 1c4 0 geode::Hook::create<void (*)(MyPlayerObject*, bool, bool)>(void*, void (*)(MyPlayerObject*, bool, bool), std::__ndk1::basic_string<char, std::__ndk1::char_traits<char>, std::__ndk1::allocator<char> > const&, tulip::hook::TulipConvention, tulip::hook::HookMetadata const&)
11ed8 2c 58 24
11f04 20 60 24
11f24 98 61 24
11fbc 1c 63 24
11fd8 8c 70 24
12064 14 61 24
12078 24 59 24
FUNC 1209c 58 0 geode::modifier::AsStaticFunction_toggleBirdMode<MyPlayerObject, void (MyPlayerObject::*)(bool, bool)>::Impl<void (MyPlayerObject::*)(bool, bool)>::function(MyPlayerObject*, bool, bool)
1209c 58 770 9
FUNC 120f4 58 0 geode::modifier::AsStaticFunction_toggleDartMode<MyPlayerObject, void (MyPlayerObject::*)(bool, bool)>::Impl<void (MyPlayerObject::*)(bool, bool)>::function(MyPlayerObject*, bool, bool)
120f4 58 775 9
FUNC 1214c 58 0 geode::modifier::AsStaticFunction_toggleFlyMode<MyPlayerObject, void (MyPlayerObject::*)(bool, bool)>::Impl<void (MyPlayerObject::*)(bool, bool)>::function(MyPlayerObject*, bool, bool)
1214c 58 780 9
FUNC 121a4 50 0 geode::modifier::AsStaticFunction_togglePlayerScale<MyPlayerObject, void (MyPlayerObject::*)(bool, bool)>::Impl<void (MyPlayerObject::*)(bool, bool)>::function(MyPlayerObject*, bool, bool)
121a4 50 790 9
FUNC 121f4 58 0 geode::modifier::AsStaticFunction_toggleRobotMode<MyPlayerObject, void (MyPlayerObject::*)(bool, bool)>::Impl<void (MyPlayerObject::*)(bool, bool)>::function(MyPlayerObject*, bool, bool)
121f4 58 795 9
FUNC 1224c 58 0 geode::modifier::AsStaticFunction_toggleRollMode<MyPlayerObject, void (MyPlayerObject::*)(bool, bool)>::Impl<void (MyPlayerObject::*)(bool, bool)>::function(MyPlayerObject*, bool, bool)
1224c 58 800 9
FUNC 122a4 58 0 geode::modifier::AsStaticFunction_toggleSpiderMode<MyPlayerObject, void (MyPlayerObject::*)(bool, bool)>::Impl<void (MyPlayerObject::*)(bool, bool)>::function(MyPlayerObject*, bool, bool)
122a4 58 805 9
FUNC 122fc 58 0 geode::modifier::AsStaticFunction_toggleSwingMode<MyPlayerObject, void (MyPlayerObject::*)(bool, bool)>::Impl<void (MyPlayerObject::*)(bool, bool)>::function(MyPlayerObject*, bool, bool)
122fc 58 810 9
FUNC 12354 380 0 geode::modifier::ModifyDerive<MyPauseLayer, PauseLayer>::apply()
12354 2c 281 10
12380 240 287 10
125c0 28 311 10
125e8 ec 287 10
FUNC 126d4 4 0 geode::modifier::ModifyBase<geode::modifier::ModifyDerive<MyPauseLayer, PauseLayer> >::apply()
126d4 4 416 13
FUNC 126d8 a8 0 geode::addresser::getVirtual<void (PauseLayer::*)()>(void (PauseLayer::*)())
126d8 c 169 0
126e4 9c 170 0
FUNC 12780 118 0 geode::modifier::AsStaticFunction_customSetup<MyPauseLayer, void (MyPauseLayer::*)()>::Impl<void (MyPauseLayer::*)()>::function(MyPauseLayer*)
12780 118 25 10
FUNC 12898 8c 0 PauseLayer::PauseLayer(geode::ZeroConstructorType)
12898 8c 17 25
FUNC 12924 8 0 MyPauseLayer::onFlippedToggler(cocos2d::CCObject*)
12924 4 126 26
12928 4 127 26
FUNC 1292c 3e8 0 geode::modifier::ModifyDerive<MyLevelEditorLayer, LevelEditorLayer>::apply()
1292c 2c 1626 11
12958 290 1716 11
12be8 28 1791 11
12c10 104 1716 11
FUNC 12d14 4 0 geode::modifier::ModifyBase<geode::modifier::ModifyDerive<MyLevelEditorLayer, LevelEditorLayer> >::apply()
12d14 4 416 13
FUNC 12d18 118 0 geode::modifier::AsStaticFunction_init<MyLevelEditorLayer, bool (MyLevelEditorLayer::*)(GJGameLevel*, bool)>::Impl<bool (MyLevelEditorLayer::*)(GJGameLevel*, bool)>::function(MyLevelEditorLayer*, GJGameLevel*, bool)
12d18 118 305 8
FUNC 12e30 3c8 0 geode::modifier::ModifyDerive<MyAppDelegate, AppDelegate>::apply()
12e30 2c 216 12
12e5c 274 224 12
130d0 28 238 12
130f8 100 224 12
FUNC 131f8 4 0 geode::modifier::ModifyBase<geode::modifier::ModifyDerive<MyAppDelegate, AppDelegate> >::apply()
131f8 4 416 13
FUNC 131fc 44 0 geode::modifier::AsStaticFunction_trySaveGame<MyAppDelegate, void (MyAppDelegate::*)(bool)>::Impl<void (MyAppDelegate::*)(bool)>::function(MyAppDelegate*, bool)
131fc 44 40 12
FUNC 13240 bc 0 geode::addresser::Addresser::addressOfVirtual<void, AppDelegate, bool>(void (AppDelegate::*)(bool))
13240 c 94 0
1324c 18 97 0
13264 4 100 0
13268 10 103 0
13278 4 108 0
1327c 4 107 0
13280 c 119 0
1328c 10 122 0
1329c 60 97 0
FUNC 132fc 31c 0 _GLOBAL__sub_I_main.cpp
FUNC 13618 204 0 IconManager::setIcon(PlayerObject*, int, int, bool)
13618 30 3 27
13648 c 6 27
13654 4 4 27
13658 4 6 27
1365c 1c 11 27
13678 14 13 27
1368c 18 11 27
136a4 14 17 27
136b8 14 7 27
136cc 20 8 27
136ec 10 11 27
136fc 14 15 27
13710 10 11 27
13720 14 19 27
13734 14 12 27
13748 14 16 27
1375c 14 14 27
13770 1c 18 27
1378c 10 23 27
1379c 4 25 27
137a0 4 23 27
137a4 4 25 27
137a8 4 23 27
137ac 40 25 27
137ec 30 26 27
FUNC 1381c 1c0 0 IconManager::updateIcon(PlayerObject*, int, int, bool)
1381c 2c 28 27
13848 10 29 27
13858 18 30 27
13870 8 31 27
13878 18 32 27
13890 1c 36 27
138ac 10 38 27
138bc 18 36 27
138d4 18 42 27
138ec 10 36 27
138fc 10 40 27
1390c 10 36 27
1391c 10 44 27
1392c 10 37 27
1393c 10 41 27
1394c 10 39 27
1395c c 43 27
13968 48 48 27
139b0 2c 49 27
FUNC 139dc 118 0 IconManager::saveIconKit()
139dc 44 56 27
13a20 24 60 27
13a44 8 62 27
13a4c 8 57 27
13a54 8 62 27
13a5c 8 63 27
13a64 4 57 27
13a68 30 58 27
13a98 10 59 27
13aa8 20 60 27
13ac8 2c 65 27
FUNC 13af4 100 0 IconManager::loadIconKit()
13af4 1c 67 27
13b10 54 68 27
13b64 24 71 27
13b88 c 69 27
13b94 18 70 27
13bac 1c 71 27
13bc8 2c 73 27
FUNC 13bf4 3f0 0 IconManager::loadAndUpdateIconKit(PlayerObject*, int)
13bf4 34 75 27
13c28 4 76 27
13c2c 2a8 79 27
13ed4 8 81 27
13edc 28 84 27
13f04 c 85 27
13f10 18 86 27
13f28 74 88 27
13f9c 18 91 27
13fb4 30 92 27
FUNC 13fe4 1fc 0 IconManager::getUnlockIcons(int)
13fe4 20 94 27
14004 18 95 27
1401c 4 98 27
14020 8 95 27
14028 1c 98 27
14044 10 99 27
14054 10 98 27
14064 150 99 27
141b4 20 101 27
141d4 c 99 27
FUNC 141e0 14 0 std::__ndk1::vector<int, std::__ndk1::allocator<int> >::__throw_length_error[abi:ne180000]() const
141e0 14 940 14
FUNC 141f4 d8 0 SettingsManager::getIconLimits()
141f4 14 3 28
14208 40 4 28
14248 c 14 28
14254 c 6 28
14260 1c 13 28
1427c 4 14 28
14280 c 13 28
1428c 14 14 28
142a0 1c 17 28
142bc 10 4 28
FUNC 142cc 118 0 geode::Mod::getSettingValue<long>(std::__ndk1::basic_string_view<char, std::__ndk1::char_traits<char> >) const
142cc 20 238 29
142ec 94 240 29
14380 8 241 29
14388 2c 240 29
143b4 2c 244 29
143e0 4 240 29
FUNC 143e4 300 0 GUIManager::onFlippedToggler(cocos2d::CCObject*)
143e4 2c 36 28
14410 14 38 28
14424 c 40 28
14430 4 42 28
14434 4 43 28
14438 4 42 28
1443c 1c 43 28
14458 4 45 28
1445c 4 44 28
14460 40 45 28
144a0 8 47 28
144a8 8 54 28
144b0 10 57 28
144c0 2c 48 28
144ec 10 50 28
144fc 10 52 28
1450c 10 58 28
1451c 10 59 28
1452c 10 60 28
1453c 10 61 28
1454c 10 62 28
1455c 10 63 28
1456c f4 65 28
14660 30 67 28
14690 2c 69 28
146bc 28 43 28
FUNC 146e4 ec 0 DynamicIconChange::initMod()
146e4 24 98 28
14708 28 99 28
14730 8 101 28
14738 c 103 28
14744 c 108 28
14750 8 110 28
14758 c 111 28
14764 44 116 28
147a8 28 117 28
FUNC 147d0 160 0 DynamicIconChange::enableMod(PlayLayer*)
147d0 20 119 28
147f0 8 120 28
147f8 8 122 28
14800 38 123 28
14838 4 125 28
1483c 90 126 28
148cc 4 133 28
148d0 4 131 28
148d4 34 133 28
14908 28 134 28
FUNC 14930 140 0 DynamicIconChange::DynamicIconChange()
14930 140 75 30
FUNC 14a70 d8 0 DynamicIconChange::initInstance(DynamicIconChange*)
14a70 10 82 28
14a80 c 83 28
14a8c c 87 28
14a98 4 85 28
14a9c 4 86 28
14aa0 28 87 28
14ac8 4 88 28
14acc 8 87 28
14ad4 24 88 28
14af8 4 90 28
14afc 4 89 28
14b00 4 88 28
14b04 10 90 28
14b14 4 93 28
14b18 4 92 28
14b1c 4 90 28
14b20 4 95 28
14b24 14 96 28
14b38 10 90 28
FUNC 14b48 84 0 IconManager::IconManager()
14b48 84 38 31
FUNC 14bcc 130 0 DynamicIconChange::validateLimits()
14bcc 24 156 28
14bf0 80 158 28
14c70 3c 159 28
14cac 20 166 28
14ccc 30 164 28
FUNC 14cfc 2a4 0 DynamicIconChange::generateIconList()
14cfc 20 218 28
14d1c c 219 28
14d28 c 220 28
14d34 1c 219 28
14d50 8 237 28
14d58 4 222 28
14d5c 4 237 28
14d60 8 222 28
14d68 c 223 28
14d74 4 227 28
14d78 4 223 28
14d7c 9c 226 28
14e18 24 225 28
14e3c 4 235 28
14e40 8 225 28
14e48 8 235 28
14e50 120 237 28
14f70 8 235 28
14f78 20 241 28
14f98 8 237 28
FUNC 14fa0 1c4 0 DynamicIconChange::generateRandIcon(int)
14fa0 18 169 28
14fb8 cc 170 28
15084 8 173 28
1508c d4 172 28
15160 4 173 28
FUNC 15164 13c 0 DynamicIconChange::changeMode(PlayerObject*, int, bool, bool)
15164 10 177 28
15174 8 178 28
1517c 10 180 28
1518c 8 182 28
15194 1c 180 28
151b0 8 182 28
151b8 1c 183 28
151d4 14 184 28
151e8 4 183 28
151ec 10 196 28
151fc 18 189 28
15214 2c 190 28
15240 10 192 28
15250 4 195 28
15254 4 192 28
15258 48 195 28
FUNC 152a0 1f8 0 DynamicIconChange::setMiniMode(PlayerObject*, bool)
152a0 3c 198 28
152dc 2c 199 28
15308 4 205 28
1530c c 202 28
15318 c 205 28
15324 8 202 28
1532c 4 203 28
15330 18 205 28
15348 4 201 28
1534c c 205 28
15358 4 201 28
1535c 1c 205 28
15378 c 207 28
15384 8 210 28
1538c 8c 211 28
15418 18 213 28
15430 14 214 28
15444 4 213 28
15448 1c 215 28
15464 34 216 28
FUNC 15498 1c8 0 geode::Mod::setSettingValue<bool>(std::__ndk1::basic_string_view<char, std::__ndk1::char_traits<char> >, bool const&)
15498 24 247 29
154bc 78 249 29
15534 4 250 29
15538 8 251 29
15540 4 250 29
15544 4 251 29
15548 8 250 29
15550 54 251 29
155a4 5c 249 29
15600 8 255 29
15608 8 249 29
15610 20 255 29
15630 4 251 29
15634 2c 249 29
FUNC 15660 50 0 std::__ndk1::shared_ptr<geode::BoolSettingV3>::~shared_ptr[abi:ne180000]()
15660 c 643 17
1566c 8 644 17
15674 10 645 17
15684 c 646 17
15690 20 645 17
FUNC 156b0 4 0 std::__ndk1::__variant_detail::__visitation::__base::__dispatcher<(unsigned long)0>::__dispatch[abi:ne180000]<std::__ndk1::__variant_detail::__dtor<std::__ndk1::__variant_detail::__traits<std::__ndk1::monostate, std::__ndk1::basic_string<char, std::__ndk1::char_traits<char>, std::__ndk1::allocator<char> > >, (std::__ndk1::__variant_detail::_Trait)1>::__destroy[abi:ne180000]()::{lambda(auto:1&)#1}, std::__ndk1::__variant_detail::__base<(std::__ndk1::__variant_detail::__traits<std::__ndk1::monostate, std::__ndk1::basic_string<char, std::__ndk1::char_traits<char>, std::__ndk1::allocator<char> > >)1, std::__ndk1::__variant_detail::__traits, std::__ndk1::allocator<char> >&>(std::__ndk1::__variant_detail::__dtor<std::__ndk1::__variant_detail::__traits<std::__ndk1::monostate, std::__ndk1::basic_string<char, std::__ndk1::char_traits<char>, std::__ndk1::allocator<char> > >, (std::__ndk1::__variant_detail::_Trait)1>, std::__ndk1::__variant_detail::__base<(std::__ndk1::__variant_detail::__traits<std::__ndk1::monostate, std::__ndk1::basic_string<char, std::__ndk1::char_traits<char>, std::__ndk1::allocator<char> > >)1, std::__ndk1::__variant_detail::__traits, std::__ndk1::allocator<char> >&)
156b0 4 526 3
FUNC 156b4 14 0 std::__ndk1::__variant_detail::__visitation::__base::__dispatcher<(unsigned long)1>::__dispatch[abi:ne180000]<std::__ndk1::__variant_detail::__dtor<std::__ndk1::__variant_detail::__traits<std::__ndk1::monostate, std::__ndk1::basic_string<char, std::__ndk1::char_traits<char>, std::__ndk1::allocator<char> > >, (std::__ndk1::__variant_detail::_Trait)1>::__destroy[abi:ne180000]()::{lambda(auto:1&)#1}, std::__ndk1::__variant_detail::__base<(std::__ndk1::__variant_detail::__traits<std::__ndk1::monostate, std::__ndk1::basic_string<char, std::__ndk1::char_traits<char>, std::__ndk1::allocator<char> > >)1, std::__ndk1::__variant_detail::__traits, std::__ndk1::allocator<char> >&>(std::__ndk1::__variant_detail::__dtor<std::__ndk1::__variant_detail::__traits<std::__ndk1::monostate, std::__ndk1::basic_string<char, std::__ndk1::char_traits<char>, std::__ndk1::allocator<char> > >, (std::__ndk1::__variant_detail::_Trait)1>, std::__ndk1::__variant_detail::__base<(std::__ndk1::__variant_detail::__traits<std::__ndk1::monostate, std::__ndk1::basic_string<char, std::__ndk1::char_traits<char>, std::__ndk1::allocator<char> > >)1, std::__ndk1::__variant_detail::__traits, std::__ndk1::allocator<char> >&)
156b4 14 526 3
FUNC 156c8 134 0 geode::Mod::getSettingValue<bool>(std::__ndk1::basic_string_view<char, std::__ndk1::char_traits<char> >) const
156c8 20 238 29
156e8 7c 240 29
15764 10 241 29
15774 50 240 29
157c4 8 244 29
157cc 8 240 29
157d4 24 244 29
157f8 4 240 29
FUNC 157fc 14 0 std::__ndk1::vector<std::__ndk1::vector<int, std::__ndk1::allocator<int> >*, std::__ndk1::allocator<std::__ndk1::vector<int, std::__ndk1::allocator<int> >*> >::__throw_length_error[abi:ne180000]() const
157fc 14 940 14
FUNC 15810 30 0 geode::getMod()
15810 c 11 32
1581c 24 12 32
FUNC 15840 30 0 geodeImplicitEntry
15840 c 16 32
1584c 18 18 32
15864 c 19 32
FUNC 15870 1f8 0 CCMenuItemToggler::createWithStandardSprites(cocos2d::CCObject*, void (cocos2d::CCObject::*)(cocos2d::CCObject*), float)
15870 2c 2317 33
1589c 24 2318 33
158c0 c 2319 33
158cc 4 2321 33
158d0 4 2319 33
158d4 28 2321 33
158fc 8 2322 33
15904 4 2321 33
15908 4 2322 33
1590c 4 2321 33
15910 20 2322 33
15930 8 2324 33
15938 4 2322 33
1593c 4 2324 33
15940 4 2322 33
15944 8 2324 33
1594c 14 2325 33
15960 18 2327 33
15978 8 2329 33
15980 4 2327 33
15984 c 2329 33
15990 18 2331 33
159a8 1c 2332 33
159c4 20 2334 33
159e4 18 2335 33
159fc 18 2337 33
15a14 18 2338 33
15a2c 3c 2340 33
PUBLIC 15a70 0 <.plt ELF section in trealdry.dynamic-icon-change.android64.so>
STACK CFI INIT 88f0 10 .cfa: sp 0 +
STACK CFI INIT 8900 8 .cfa: sp 0 +
STACK CFI INIT 8908 8 .cfa: sp 0 +
STACK CFI INIT 8910 14 .cfa: sp 0 +
STACK CFI INIT 8924 1c .cfa: sp 0 +
STACK CFI INIT 8940 10 .cfa: sp 0 +
STACK CFI INIT 8950 134 .cfa: sp 0 +
STACK CFI INIT 8a84 84 .cfa: sp 0 +
STACK CFI INIT 8b08 f4 .cfa: sp 0 +
STACK CFI INIT 8bfc a8 .cfa: sp 0 +
STACK CFI INIT 8ca4 7c .cfa: sp 0 +
STACK CFI INIT 8d20 14 .cfa: sp 0 +
STACK CFI INIT 8d34 40 .cfa: sp 0 +
STACK CFI INIT 8d74 28 .cfa: sp 0 +
STACK CFI INIT 8d9c 190 .cfa: sp 0 +
STACK CFI INIT 8f2c 2c8 .cfa: sp 0 +
STACK CFI INIT 91f4 8 .cfa: sp 0 +
STACK CFI INIT 91fc 8 .cfa: sp 0 +
STACK CFI INIT 9204 44 .cfa: sp 0 +
STACK CFI INIT 9248 e8 .cfa: sp 0 +
STACK CFI INIT 9330 e8 .cfa: sp 0 +
STACK CFI INIT 9418 14 .cfa: sp 0 +
STACK CFI INIT 942c 10 .cfa: sp 0 +
STACK CFI INIT 943c 10 .cfa: sp 0 +
STACK CFI INIT 944c f0 .cfa: sp 0 +
STACK CFI INIT 953c 44 .cfa: sp 0 +
STACK CFI INIT 9580 c .cfa: sp 0 +
STACK CFI INIT 958c c .cfa: sp 0 +
STACK CFI INIT 9598 2c .cfa: sp 0 +
STACK CFI INIT 95c4 280 .cfa: sp 0 +
STACK CFI INIT 9844 c .cfa: sp 0 +
STACK CFI INIT 9850 120 .cfa: sp 0 +
STACK CFI INIT 9970 488 .cfa: sp 0 +
STACK CFI INIT 9df8 c48 .cfa: sp 0 +
STACK CFI INIT aa40 134 .cfa: sp 0 +
STACK CFI INIT ab74 210 .cfa: sp 0 +
STACK CFI INIT ad84 38c .cfa: sp 0 +
STACK CFI INIT b110 1c8 .cfa: sp 0 +
STACK CFI INIT b2d8 9bc .cfa: sp 0 +
STACK CFI INIT bc94 2d4 .cfa: sp 0 +
STACK CFI INIT bf68 134 .cfa: sp 0 +
STACK CFI INIT c09c 120 .cfa: sp 0 +
STACK CFI INIT c1bc 1c8 .cfa: sp 0 +
STACK CFI INIT c384 168 .cfa: sp 0 +
STACK CFI INIT c4ec fc .cfa: sp 0 +
STACK CFI INIT c5e8 30 .cfa: sp 0 +
STACK CFI INIT c750 30 .cfa: sp 0 +
STACK CFI INIT c780 98 .cfa: sp 0 +
STACK CFI INIT c818 59c .cfa: sp 0 +
STACK CFI INIT cdb4 8c .cfa: sp 0 +
STACK CFI INIT ce40 30 .cfa: sp 0 +
STACK CFI INIT d2b4 18 .cfa: sp 0 +
STACK CFI INIT d710 18 .cfa: sp 0 +
STACK CFI INIT db6c 18 .cfa: sp 0 +
STACK CFI INIT dfc8 18 .cfa: sp 0 +
STACK CFI INIT e424 18 .cfa: sp 0 +
STACK CFI INIT e524 50 .cfa: sp 0 +
STACK CFI e528 .cfa: sp 32 +
STACK CFI e530 .cfa: x29 32 + x19: .cfa -16 + ^ .ra: .cfa -24 + ^ x29: .cfa -32 + ^
STACK CFI e548 .cfa: sp 32 +
STACK CFI e550 .cfa: sp 0 +
STACK CFI e554 .cfa: x29 32 +
STACK CFI e568 .cfa: sp 32 +
STACK CFI e570 .cfa: sp 0 +
STACK CFI INIT e574 4 .cfa: sp 0 +
STACK CFI INIT e578 38 .cfa: sp 0 +
STACK CFI e57c .cfa: sp 32 +
STACK CFI e584 .cfa: x29 32 + x19: .cfa -16 + ^ .ra: .cfa -24 + ^ x29: .cfa -32 + ^
STACK CFI e5a4 .cfa: sp 32 +
STACK CFI e5ac .cfa: sp 0 +
STACK CFI INIT e5b0 18 .cfa: sp 0 +
STACK CFI INIT e5c8 4 .cfa: sp 0 +
STACK CFI INIT e5cc 4 .cfa: sp 0 +
STACK CFI INIT e6b8 1c .cfa: sp 0 +
STACK CFI INIT e6d4 c .cfa: sp 0 +
STACK CFI INIT e6e0 34 .cfa: sp 0 +
STACK CFI e6e4 .cfa: sp 32 +
STACK CFI e6ec .cfa: x29 32 + x19: .cfa -16 + ^ .ra: .cfa -24 + ^ x29: .cfa -32 + ^
STACK CFI INIT e714 10 .cfa: sp 0 +
STACK CFI e718 .cfa: sp 16 +
STACK CFI e71c .cfa: x29 16 + .ra: .cfa -8 + ^ x29: .cfa -16 + ^
STACK CFI INIT e724 e4 .cfa: sp 0 +
STACK CFI e728 .cfa: sp 64 +
STACK CFI e738 .cfa: x29 64 + x19: .cfa -8 + ^ x20: .cfa -16 + ^ x21: .cfa -24 + ^ x22: .cfa -32 + ^ x23: .cfa -48 + ^ .ra: .cfa -56 + ^ x29: .cfa -64 + ^
STACK CFI e7b0 .cfa: sp 64 +
STACK CFI e7c0 .cfa: sp 0 +
STACK CFI e7c4 .cfa: x29 64 +
STACK CFI INIT e808 14 .cfa: sp 0 +
STACK CFI e80c .cfa: sp 16 +
STACK CFI e810 .cfa: x29 16 + .ra: .cfa -8 + ^ x29: .cfa -16 + ^
STACK CFI INIT e86c 30 .cfa: sp 0 +
STACK CFI e870 .cfa: sp 32 +
STACK CFI e878 .cfa: x29 32 + x19: .cfa -16 + ^ .ra: .cfa -24 + ^ x29: .cfa -32 + ^
STACK CFI e890 .cfa: sp 32 +
STACK CFI e898 .cfa: sp 0 +
STACK CFI INIT e89c 4 .cfa: sp 0 +
STACK CFI INIT ea14 8c .cfa: sp 0 +
STACK CFI ea18 .cfa: sp 32 +
STACK CFI ea20 .cfa: x29 32 + x19: .cfa -8 + ^ x20: .cfa -16 + ^ .ra: .cfa -24 + ^ x29: .cfa -32 + ^
STACK CFI ea94 .cfa: sp 32 +
STACK CFI ea9c .cfa: sp 0 +
STACK CFI INIT eaa0 94 .cfa: sp 0 +
STACK CFI eaa4 .cfa: sp 32 +
STACK CFI eaac .cfa: x29 32 + x19: .cfa -8 + ^ x20: .cfa -16 + ^ .ra: .cfa -24 + ^ x29: .cfa -32 + ^
STACK CFI eb28 .cfa: sp 32 +
STACK CFI eb30 .cfa: sp 0 +
STACK CFI INIT eb34 4 .cfa: sp 0 +
STACK CFI INIT eb38 4 .cfa: sp 0 +
STACK CFI INIT eb3c 38 .cfa: sp 0 +
STACK CFI eb40 .cfa: sp 32 +
STACK CFI eb48 .cfa: x29 32 + x19: .cfa -16 + ^ .ra: .cfa -24 + ^ x29: .cfa -32 + ^
STACK CFI eb68 .cfa: sp 32 +
STACK CFI eb70 .cfa: sp 0 +
STACK CFI INIT eb74 18 .cfa: sp 0 +
STACK CFI INIT eb8c 4 .cfa: sp 0 +
STACK CFI INIT eb90 4 .cfa: sp 0 +
STACK CFI INIT ec78 1c .cfa: sp 0 +
STACK CFI INIT ec94 c .cfa: sp 0 +
STACK CFI INIT f34c 50 .cfa: sp 0 +
STACK CFI f350 .cfa: sp 32 +
STACK CFI f358 .cfa: x29 32 + x19: .cfa -16 + ^ .ra: .cfa -24 + ^ x29: .cfa -32 + ^
STACK CFI f370 .cfa: sp 32 +
STACK CFI f378 .cfa: sp 0 +
STACK CFI f37c .cfa: x29 32 +
STACK CFI f390 .cfa: sp 32 +
STACK CFI f398 .cfa: sp 0 +
STACK CFI INIT f410 7c .cfa: sp 0 +
STACK CFI f414 .cfa: sp 48 +
STACK CFI f420 .cfa: x29 48 + x19: .cfa -8 + ^ x20: .cfa -16 + ^ x21: .cfa -32 + ^ .ra: .cfa -40 + ^ x29: .cfa -48 + ^
STACK CFI f46c .cfa: sp 48 +
STACK CFI f478 .cfa: sp 0 +
STACK CFI f47c .cfa: sp 48 +
STACK CFI f488 .cfa: sp 0 +
STACK CFI INIT f48c 4 .cfa: sp 0 +
STACK CFI INIT f5e4 34 .cfa: sp 0 +
STACK CFI f5e8 .cfa: sp 16 +
STACK CFI f5ec .cfa: x29 16 + .ra: .cfa -8 + ^ x29: .cfa -16 + ^
STACK CFI INIT f73c 80 .cfa: sp 0 +
STACK CFI f740 .cfa: sp 48 +
STACK CFI f74c .cfa: x29 48 + x19: .cfa -8 + ^ x20: .cfa -16 + ^ x21: .cfa -32 + ^ .ra: .cfa -40 + ^ x29: .cfa -48 + ^
STACK CFI f7ac .cfa: sp 48 +
STACK CFI f7b8 .cfa: sp 0 +
STACK CFI INIT f7bc 24 .cfa: sp 0 +
STACK CFI f7c0 .cfa: sp 32 +
STACK CFI f7c8 .cfa: x29 32 + x19: .cfa -16 + ^ .ra: .cfa -24 + ^ x29: .cfa -32 + ^
STACK CFI f7d4 .cfa: sp 32 +
STACK CFI f7dc .cfa: sp 0 +
STACK CFI INIT fc88 148 .cfa: sp 0 +
STACK CFI fc8c .cfa: sp 48 +
STACK CFI fc98 .cfa: x29 48 + x19: .cfa -8 + ^ x20: .cfa -16 + ^ x21: .cfa -32 + ^ .ra: .cfa -40 + ^ x29: .cfa -48 + ^
STACK CFI fdc0 .cfa: sp 48 +
STACK CFI fdcc .cfa: sp 0 +
STACK CFI INIT ffe8 70 .cfa: sp 0 +
STACK CFI ffec .cfa: sp 48 +
STACK CFI fff8 .cfa: x29 48 + x19: .cfa -8 + ^ x20: .cfa -16 + ^ x21: .cfa -24 + ^ x22: .cfa -32 + ^ .ra: .cfa -40 + ^ x29: .cfa -48 + ^
STACK CFI 10040 .cfa: sp 48 +
STACK CFI 1004c .cfa: sp 0 +
STACK CFI 10050 .cfa: x29 48 +
STACK CFI INIT 10058 68 .cfa: sp 0 +
STACK CFI 1005c .cfa: sp 32 +
STACK CFI 10064 .cfa: x29 32 + x19: .cfa -8 + ^ x20: .cfa -16 + ^ .ra: .cfa -24 + ^ x29: .cfa -32 + ^
STACK CFI 1007c .cfa: sp 32 +
STACK CFI 10084 .cfa: sp 0 +
STACK CFI 10088 .cfa: x29 32 +
STACK CFI 100b4 .cfa: sp 32 +
STACK CFI 100bc .cfa: sp 0 +
STACK CFI INIT 100c0 14 .cfa: sp 0 +
STACK CFI 100c4 .cfa: sp 16 +
STACK CFI 100c8 .cfa: x29 16 + .ra: .cfa -8 + ^ x29: .cfa -16 + ^
STACK CFI INIT 100d4 4 .cfa: sp 0 +
STACK CFI INIT 100d8 14 .cfa: sp 0 +
STACK CFI INIT 100ec fc .cfa: sp 0 +
STACK CFI 100f0 .cfa: sp 64 +
STACK CFI 10100 .cfa: x29 64 + x19: .cfa -8 + ^ x20: .cfa -16 + ^ x21: .cfa -24 + ^ x22: .cfa -32 + ^ x23: .cfa -40 + ^ x24: .cfa -48 + ^ .ra: .cfa -56 + ^ x29: .cfa -64 + ^
STACK CFI 101d4 .cfa: sp 64 +
STACK CFI 101e4 .cfa: sp 0 +
STACK CFI INIT 101e8 454 .cfa: sp 0 +
STACK CFI 101ec .cfa: sp 32 +
STACK CFI 101f4 .cfa: x29 32 + x19: .cfa -8 + ^ x20: .cfa -16 + ^ .ra: .cfa -24 + ^ x29: .cfa -32 + ^
STACK CFI 10584 .cfa: sp 32 +
STACK CFI 1058c .cfa: sp 0 +
STACK CFI 10590 .cfa: x29 32 +
STACK CFI INIT 1063c 84 .cfa: sp 0 +
STACK CFI 10644 .cfa: sp 32 +
STACK CFI 1064c .cfa: x29 32 + x19: .cfa -8 + ^ x20: .cfa -16 + ^ .ra: .cfa -24 + ^ x29: .cfa -32 + ^
STACK CFI 1068c .cfa: sp 32 +
STACK CFI 10694 .cfa: sp 0 +
STACK CFI 1069c .cfa: x29 32 +
STACK CFI INIT 106c0 7c .cfa: sp 0 +
STACK CFI 106c4 .cfa: sp 64 +
STACK CFI 106d4 .cfa: x29 64 + x19: .cfa -8 + ^ x20: .cfa -16 + ^ x21: .cfa -24 + ^ x22: .cfa -32 + ^ x23: .cfa -48 + ^ .ra: .cfa -56 + ^ x29: .cfa -64 + ^
STACK CFI 10728 .cfa: sp 64 +
STACK CFI 10738 .cfa: sp 0 +
STACK CFI INIT 1073c fc .cfa: sp 0 +
STACK CFI 10740 .cfa: sp 80 +
STACK CFI 10750 .cfa: x29 48 + x19: .cfa -8 + ^ x20: .cfa -16 + ^ x21: .cfa -24 + ^ x22: .cfa -32 + ^ .ra: .cfa -40 + ^ x29: .cfa -48 + ^
STACK CFI 10820 .cfa: sp 80 +
STACK CFI 10830 .cfa: sp 0 +
STACK CFI 10834 .cfa: x29 48 +
STACK CFI INIT 10838 50 .cfa: sp 0 +
STACK CFI 1083c .cfa: sp 32 +
STACK CFI 10844 .cfa: x29 32 + x19: .cfa -16 + ^ .ra: .cfa -24 + ^ x29: .cfa -32 + ^
STACK CFI 1085c .cfa: sp 32 +
STACK CFI 10864 .cfa: sp 0 +
STACK CFI 10868 .cfa: x29 32 +
STACK CFI 1087c .cfa: sp 32 +
STACK CFI 10884 .cfa: sp 0 +
STACK CFI INIT 10888 64 .cfa: sp 0 +
STACK CFI 1088c .cfa: sp 32 +
STACK CFI 10894 .cfa: x29 32 + x19: .cfa -16 + ^ .ra: .cfa -24 + ^ x29: .cfa -32 + ^
STACK CFI 108c0 .cfa: sp 32 +
STACK CFI 108c8 .cfa: sp 0 +
STACK CFI 108cc .cfa: x29 32 +
STACK CFI 108e0 .cfa: sp 32 +
STACK CFI 108e8 .cfa: sp 0 +
STACK CFI INIT 108ec 104 .cfa: sp 0 +
STACK CFI 108f0 .cfa: sp 80 +
STACK CFI 10904 .cfa: x29 80 + x19: .cfa -8 + ^ x20: .cfa -16 + ^ x21: .cfa -24 + ^ x22: .cfa -32 + ^ x23: .cfa -40 + ^ x24: .cfa -48 + ^ x25: .cfa -56 + ^ x26: .cfa -64 + ^ .ra: .cfa -72 + ^ x29: .cfa -80 + ^
STACK CFI 109d8 .cfa: sp 80 +
STACK CFI 109ec .cfa: sp 0 +
STACK CFI INIT 109f0 19c .cfa: sp 0 +
STACK CFI INIT 11ed4 4 .cfa: sp 0 +
STACK CFI INIT 1209c 58 .cfa: sp 0 +
STACK CFI 120a0 .cfa: sp 48 +
STACK CFI 120ac .cfa: x29 48 + x19: .cfa -8 + ^ x20: .cfa -16 + ^ x21: .cfa -32 + ^ .ra: .cfa -40 + ^ x29: .cfa -48 + ^
STACK CFI 120e4 .cfa: sp 48 +
STACK CFI 120f0 .cfa: sp 0 +
STACK CFI INIT 120f4 58 .cfa: sp 0 +
STACK CFI 120f8 .cfa: sp 48 +
STACK CFI 12104 .cfa: x29 48 + x19: .cfa -8 + ^ x20: .cfa -16 + ^ x21: .cfa -32 + ^ .ra: .cfa -40 + ^ x29: .cfa -48 + ^
STACK CFI 1213c .cfa: sp 48 +
STACK CFI 12148 .cfa: sp 0 +
STACK CFI INIT 1214c 58 .cfa: sp 0 +
STACK CFI 12150 .cfa: sp 48 +
STACK CFI 1215c .cfa: x29 48 + x19: .cfa -8 + ^ x20: .cfa -16 + ^ x21: .cfa -32 + ^ .ra: .cfa -40 + ^ x29: .cfa -48 + ^
STACK CFI 12194 .cfa: sp 48 +
STACK CFI 121a0 .cfa: sp 0 +
STACK CFI INIT 121a4 50 .cfa: sp 0 +
STACK CFI 121a8 .cfa: sp 48 +
STACK CFI 121b4 .cfa: x29 48 + x19: .cfa -8 + ^ x20: .cfa -16 + ^ x21: .cfa -32 + ^ .ra: .cfa -40 + ^ x29: .cfa -48 + ^
STACK CFI 121e4 .cfa: sp 48 +
STACK CFI 121f0 .cfa: sp 0 +
STACK CFI INIT 121f4 58 .cfa: sp 0 +
STACK CFI 121f8 .cfa: sp 48 +
STACK CFI 12204 .cfa: x29 48 + x19: .cfa -8 + ^ x20: .cfa -16 + ^ x21: .cfa -32 + ^ .ra: .cfa -40 + ^ x29: .cfa -48 + ^
STACK CFI 1223c .cfa: sp 48 +
STACK CFI 12248 .cfa: sp 0 +
STACK CFI INIT 1224c 58 .cfa: sp 0 +
STACK CFI 12250 .cfa: sp 48 +
STACK CFI 1225c .cfa: x29 48 + x19: .cfa -8 + ^ x20: .cfa -16 + ^ x21: .cfa -32 + ^ .ra: .cfa -40 + ^ x29: .cfa -48 + ^
STACK CFI 12294 .cfa: sp 48 +
STACK CFI 122a0 .cfa: sp 0 +
STACK CFI INIT 122a4 58 .cfa: sp 0 +
STACK CFI 122a8 .cfa: sp 48 +
STACK CFI 122b4 .cfa: x29 48 + x19: .cfa -8 + ^ x20: .cfa -16 + ^ x21: .cfa -32 + ^ .ra: .cfa -40 + ^ x29: .cfa -48 + ^
STACK CFI 122ec .cfa: sp 48 +
STACK CFI 122f8 .cfa: sp 0 +
STACK CFI INIT 122fc 58 .cfa: sp 0 +
STACK CFI 12300 .cfa: sp 48 +
STACK CFI 1230c .cfa: x29 48 + x19: .cfa -8 + ^ x20: .cfa -16 + ^ x21: .cfa -32 + ^ .ra: .cfa -40 + ^ x29: .cfa -48 + ^
STACK CFI 12344 .cfa: sp 48 +
STACK CFI 12350 .cfa: sp 0 +
STACK CFI INIT 126d4 4 .cfa: sp 0 +
STACK CFI INIT 12780 118 .cfa: sp 0 +
STACK CFI 12784 .cfa: sp 48 +
STACK CFI 12790 .cfa: x29 48 + x19: .cfa -8 + ^ x20: .cfa -16 + ^ x21: .cfa -32 + ^ .ra: .cfa -40 + ^ x29: .cfa -48 + ^
STACK CFI 12888 .cfa: sp 48 +
STACK CFI 12894 .cfa: sp 0 +
STACK CFI INIT 12898 8c .cfa: sp 0 +
STACK CFI 1289c .cfa: sp 32 +
STACK CFI 128a4 .cfa: x29 32 + x19: .cfa -16 + ^ .ra: .cfa -24 + ^ x29: .cfa -32 + ^
STACK CFI 12918 .cfa: sp 32 +
STACK CFI 12920 .cfa: sp 0 +
STACK CFI INIT 12924 8 .cfa: sp 0 +
STACK CFI INIT 12d14 4 .cfa: sp 0 +
STACK CFI INIT 12d18 118 .cfa: sp 0 +
STACK CFI 12d1c .cfa: sp 96 +
STACK CFI 12d30 .cfa: x29 64 + x19: .cfa -8 + ^ x20: .cfa -16 + ^ x21: .cfa -24 + ^ x22: .cfa -32 + ^ x23: .cfa -40 + ^ x24: .cfa -48 + ^ .ra: .cfa -56 + ^ x29: .cfa -64 + ^
STACK CFI 12e14 .cfa: sp 96 +
STACK CFI 12e28 .cfa: sp 0 +
STACK CFI 12e2c .cfa: x29 64 +
STACK CFI INIT 131f8 4 .cfa: sp 0 +
STACK CFI INIT 131fc 44 .cfa: sp 0 +
STACK CFI 13200 .cfa: sp 32 +
STACK CFI 13208 .cfa: x29 32 + x19: .cfa -8 + ^ x20: .cfa -16 + ^ .ra: .cfa -24 + ^ x29: .cfa -32 + ^
STACK CFI 13234 .cfa: sp 32 +
STACK CFI 1323c .cfa: sp 0 +
STACK CFI INIT 13618 204 .cfa: sp 0 +
STACK CFI 1361c .cfa: sp 128 +
STACK CFI 13634 .cfa: x29 80 + x19: .cfa -8 + ^ x20: .cfa -16 + ^ x21: .cfa -24 + ^ x22: .cfa -32 + ^ x23: .cfa -40 + ^ x24: .cfa -48 + ^ x25: .cfa -64 + ^ .ra: .cfa -72 + ^ x29: .cfa -80 + ^
STACK CFI 137fc .cfa: sp 128 +
STACK CFI 13814 .cfa: sp 0 +
STACK CFI 13818 .cfa: x29 80 +
STACK CFI INIT 1381c 1c0 .cfa: sp 0 +
STACK CFI 13820 .cfa: sp 112 +
STACK CFI 13834 .cfa: x29 64 + x19: .cfa -8 + ^ x20: .cfa -16 + ^ x21: .cfa -24 + ^ x22: .cfa -32 + ^ x23: .cfa -40 + ^ x24: .cfa -48 + ^ .ra: .cfa -56 + ^ x29: .cfa -64 + ^
STACK CFI 139c0 .cfa: sp 112 +
STACK CFI 139d4 .cfa: sp 0 +
STACK CFI 139d8 .cfa: x29 64 +
STACK CFI INIT 139dc 118 .cfa: sp 0 +
STACK CFI 139e0 .cfa: sp 112 +
STACK CFI 139f4 .cfa: x29 64 + x19: .cfa -8 + ^ x20: .cfa -16 + ^ x21: .cfa -24 + ^ x22: .cfa -32 + ^ x23: .cfa -40 + ^ x24: .cfa -48 + ^ .ra: .cfa -56 + ^ x29: .cfa -64 + ^
STACK CFI 13ad8 .cfa: sp 112 +
STACK CFI 13aec .cfa: sp 0 +
STACK CFI 13af0 .cfa: x29 64 +
STACK CFI INIT 13af4 100 .cfa: sp 0 +
STACK CFI 13af8 .cfa: sp 112 +
STACK CFI 13b0c .cfa: x29 64 + x19: .cfa -8 + ^ x20: .cfa -16 + ^ x21: .cfa -24 + ^ x22: .cfa -32 + ^ x23: .cfa -48 + ^ .ra: .cfa -56 + ^ x29: .cfa -64 + ^
STACK CFI 13bd8 .cfa: sp 112 +
STACK CFI 13bec .cfa: sp 0 +
STACK CFI 13bf0 .cfa: x29 64 +
STACK CFI INIT 13bf4 3f0 .cfa: sp 0 +
STACK CFI 13bf8 .cfa: sp 128 +
STACK CFI 13c10 .cfa: x29 80 + x19: .cfa -8 + ^ x20: .cfa -16 + ^ x21: .cfa -24 + ^ x22: .cfa -32 + ^ x23: .cfa -40 + ^ x24: .cfa -48 + ^ x25: .cfa -56 + ^ x26: .cfa -64 + ^ .ra: .cfa -72 + ^ x29: .cfa -80 + ^
STACK CFI 13fc4 .cfa: sp 128 +
STACK CFI 13fdc .cfa: sp 0 +
STACK CFI 13fe0 .cfa: x29 80 +
STACK CFI INIT 13fe4 1fc .cfa: sp 0 +
STACK CFI 13fe8 .cfa: sp 96 +
STACK CFI 14000 .cfa: x29 96 + x19: .cfa -8 + ^ x20: .cfa -16 + ^ x21: .cfa -24 + ^ x22: .cfa -32 + ^ x23: .cfa -40 + ^ x24: .cfa -48 + ^ x25: .cfa -56 + ^ x26: .cfa -64 + ^ x27: .cfa -72 + ^ x28: .cfa -80 + ^ .ra: .cfa -88 + ^ x29: .cfa -96 + ^
STACK CFI 141b8 .cfa: sp 96 +
STACK CFI 141d0 .cfa: sp 0 +
STACK CFI 141d4 .cfa: x29 96 +
STACK CFI INIT 141e0 14 .cfa: sp 0 +
STACK CFI 141e4 .cfa: sp 16 +
STACK CFI 141e8 .cfa: x29 16 + .ra: .cfa -8 + ^ x29: .cfa -16 + ^
STACK CFI INIT 146e4 ec .cfa: sp 0 +
STACK CFI 146e8 .cfa: sp 80 +
STACK CFI 146f8 .cfa: x29 48 + x19: .cfa -8 + ^ x20: .cfa -16 + ^ x21: .cfa -32 + ^ .ra: .cfa -40 + ^ x29: .cfa -48 + ^
STACK CFI 147b8 .cfa: sp 80 +
STACK CFI 147c8 .cfa: sp 0 +
STACK CFI 147cc .cfa: x29 48 +
STACK CFI INIT 147d0 160 .cfa: sp 0 +
STACK CFI 147d4 .cfa: sp 80 +
STACK CFI 147e4 .cfa: x29 48 + x19: .cfa -8 + ^ x20: .cfa -16 + ^ x21: .cfa -32 + ^ .ra: .cfa -40 + ^ x29: .cfa -48 + ^
STACK CFI 14918 .cfa: sp 80 +
STACK CFI 14928 .cfa: sp 0 +
STACK CFI 1492c .cfa: x29 48 +
STACK CFI INIT 14bcc 130 .cfa: sp 0 +
STACK CFI 14bd0 .cfa: sp 64 +
STACK CFI 14bdc .cfa: x29 32 + x19: .cfa -8 + ^ x20: .cfa -16 + ^ .ra: .cfa -24 + ^ x29: .cfa -32 + ^
STACK CFI 14cbc .cfa: sp 64 +
STACK CFI 14cc8 .cfa: sp 0 +
STACK CFI 14ccc .cfa: x29 32 +
STACK CFI INIT 14cfc 2a4 .cfa: sp 0 +
STACK CFI 14d00 .cfa: sp 112 +
STACK CFI 14d1c .cfa: x29 96 + x19: .cfa -8 + ^ x20: .cfa -16 + ^ x21: .cfa -24 + ^ x22: .cfa -32 + ^ x23: .cfa -40 + ^ x24: .cfa -48 + ^ x25: .cfa -56 + ^ x26: .cfa -64 + ^ x27: .cfa -72 + ^ x28: .cfa -80 + ^ .ra: .cfa -88 + ^ x29: .cfa -96 + ^
STACK CFI 14f78 .cfa: sp 112 +
STACK CFI 14f94 .cfa: sp 0 +
STACK CFI 14f98 .cfa: x29 96 +
STACK CFI INIT 14fa0 1c4 .cfa: sp 0 +
STACK CFI INIT 15164 13c .cfa: sp 0 +
STACK CFI 15168 .cfa: sp 48 +
STACK CFI 15174 .cfa: x29 48 + x19: .cfa -8 + ^ x20: .cfa -16 + ^ x21: .cfa -24 + ^ x22: .cfa -32 + ^ .ra: .cfa -40 + ^ x29: .cfa -48 + ^
STACK CFI 151ec .cfa: sp 48 +
STACK CFI 151f8 .cfa: sp 0 +
STACK CFI 151fc .cfa: x29 48 +
STACK CFI 15284 .cfa: sp 48 +
STACK CFI 15290 .cfa: sp 0 +
STACK CFI 15294 .cfa: x29 48 +
STACK CFI INIT 152a0 1f8 .cfa: sp 0 +
STACK CFI 152a4 .cfa: sp 144 +
STACK CFI 152c0 .cfa: x29 96 + x19: .cfa -8 + ^ x20: .cfa -16 + ^ x21: .cfa -24 + ^ x22: .cfa -32 + ^ x23: .cfa -40 + ^ x24: .cfa -48 + ^ x25: .cfa -56 + ^ x26: .cfa -64 + ^ x27: .cfa -80 + ^ .ra: .cfa -88 + ^ x29: .cfa -96 + ^
STACK CFI 15474 .cfa: sp 144 +
STACK CFI 15490 .cfa: sp 0 +
STACK CFI 15494 .cfa: x29 96 +
STACK CFI INIT 15660 50 .cfa: sp 0 +
STACK CFI 15664 .cfa: sp 32 +
STACK CFI 1566c .cfa: x29 32 + x19: .cfa -16 + ^ .ra: .cfa -24 + ^ x29: .cfa -32 + ^
STACK CFI 15684 .cfa: sp 32 +
STACK CFI 1568c .cfa: sp 0 +
STACK CFI 15690 .cfa: x29 32 +
STACK CFI 156a4 .cfa: sp 32 +
STACK CFI 156ac .cfa: sp 0 +
STACK CFI INIT 156b0 4 .cfa: sp 0 +
STACK CFI INIT 156b4 14 .cfa: sp 0 +
STACK CFI INIT 157fc 14 .cfa: sp 0 +
STACK CFI 15800 .cfa: sp 16 +
STACK CFI 15804 .cfa: x29 16 + .ra: .cfa -8 + ^ x29: .cfa -16 + ^
STACK CFI INIT 15810 30 .cfa: sp 0 +
STACK CFI 15814 .cfa: sp 32 +
STACK CFI 1581c .cfa: x29 32 + x19: .cfa -16 + ^ .ra: .cfa -24 + ^ x29: .cfa -32 + ^
STACK CFI 15834 .cfa: sp 32 +
STACK CFI 1583c .cfa: sp 0 +
STACK CFI INIT 15840 30 .cfa: sp 0 +
STACK CFI 15844 .cfa: sp 32 +
STACK CFI 1584c .cfa: x29 32 + x19: .cfa -16 + ^ .ra: .cfa -24 + ^ x29: .cfa -32 + ^
STACK CFI 15864 .cfa: sp 32 +
STACK CFI 1586c .cfa: sp 0 +
STACK CFI INIT 15870 1f8 .cfa: sp 0 +
STACK CFI 15874 .cfa: sp 112 +
STACK CFI 15894 .cfa: x29 72 + x19: .cfa -8 + ^ x20: .cfa -16 + ^ x21: .cfa -24 + ^ x22: .cfa -32 + ^ x23: .cfa -40 + ^ x24: .cfa -48 + ^ x25: .cfa -56 + ^ .ra: .cfa -64 + ^ x29: .cfa -72 + ^ v8: .cfa -80 + ^ v9: .cfa -88 + ^ v10: .cfa -96 + ^
STACK CFI 15a40 .cfa: sp 112 +
STACK CFI 15a60 .cfa: sp 0 +
STACK CFI 15a64 .cfa: x29 72 +
STACK CFI INIT ce70 444 .cfa: sp 0 +
STACK CFI ce74 .cfa: sp 224 +
STACK CFI ce90 .cfa: x29 96 + x19: .cfa -8 + ^ x20: .cfa -16 + ^ x21: .cfa -24 + ^ x22: .cfa -32 + ^ x23: .cfa -40 + ^ x24: .cfa -48 + ^ x25: .cfa -56 + ^ x26: .cfa -64 + ^ x27: .cfa -72 + ^ x28: .cfa -80 + ^ .ra: .cfa -88 + ^ x29: .cfa -96 + ^
STACK CFI d0c4 .cfa: sp 224 +
STACK CFI d0e0 .cfa: sp 0 +
STACK CFI d0e4 .cfa: x29 96 +
STACK CFI d1b0 .cfa: sp 224 +
STACK CFI d1cc .cfa: sp 0 +
STACK CFI d1d0 .cfa: x29 96 +
STACK CFI INIT d2cc 444 .cfa: sp 0 +
STACK CFI d2d0 .cfa: sp 224 +
STACK CFI d2ec .cfa: x29 96 + x19: .cfa -8 + ^ x20: .cfa -16 + ^ x21: .cfa -24 + ^ x22: .cfa -32 + ^ x23: .cfa -40 + ^ x24: .cfa -48 + ^ x25: .cfa -56 + ^ x26: .cfa -64 + ^ x27: .cfa -72 + ^ x28: .cfa -80 + ^ .ra: .cfa -88 + ^ x29: .cfa -96 + ^
STACK CFI d520 .cfa: sp 224 +
STACK CFI d53c .cfa: sp 0 +
STACK CFI d540 .cfa: x29 96 +
STACK CFI d60c .cfa: sp 224 +
STACK CFI d628 .cfa: sp 0 +
STACK CFI d62c .cfa: x29 96 +
STACK CFI INIT d728 444 .cfa: sp 0 +
STACK CFI d72c .cfa: sp 224 +
STACK CFI d748 .cfa: x29 96 + x19: .cfa -8 + ^ x20: .cfa -16 + ^ x21: .cfa -24 + ^ x22: .cfa -32 + ^ x23: .cfa -40 + ^ x24: .cfa -48 + ^ x25: .cfa -56 + ^ x26: .cfa -64 + ^ x27: .cfa -72 + ^ x28: .cfa -80 + ^ .ra: .cfa -88 + ^ x29: .cfa -96 + ^
STACK CFI d97c .cfa: sp 224 +
STACK CFI d998 .cfa: sp 0 +
STACK CFI d99c .cfa: x29 96 +
STACK CFI da68 .cfa: sp 224 +
STACK CFI da84 .cfa: sp 0 +
STACK CFI da88 .cfa: x29 96 +
STACK CFI INIT db84 444 .cfa: sp 0 +
STACK CFI db88 .cfa: sp 224 +
STACK CFI dba4 .cfa: x29 96 + x19: .cfa -8 + ^ x20: .cfa -16 + ^ x21: .cfa -24 + ^ x22: .cfa -32 + ^ x23: .cfa -40 + ^ x24: .cfa -48 + ^ x25: .cfa -56 + ^ x26: .cfa -64 + ^ x27: .cfa -72 + ^ x28: .cfa -80 + ^ .ra: .cfa -88 + ^ x29: .cfa -96 + ^
STACK CFI ddd8 .cfa: sp 224 +
STACK CFI ddf4 .cfa: sp 0 +
STACK CFI ddf8 .cfa: x29 96 +
STACK CFI dec4 .cfa: sp 224 +
STACK CFI dee0 .cfa: sp 0 +
STACK CFI dee4 .cfa: x29 96 +
STACK CFI INIT dfe0 444 .cfa: sp 0 +
STACK CFI dfe4 .cfa: sp 224 +
STACK CFI e000 .cfa: x29 96 + x19: .cfa -8 + ^ x20: .cfa -16 + ^ x21: .cfa -24 + ^ x22: .cfa -32 + ^ x23: .cfa -40 + ^ x24: .cfa -48 + ^ x25: .cfa -56 + ^ x26: .cfa -64 + ^ x27: .cfa -72 + ^ x28: .cfa -80 + ^ .ra: .cfa -88 + ^ x29: .cfa -96 + ^
STACK CFI e234 .cfa: sp 224 +
STACK CFI e250 .cfa: sp 0 +
STACK CFI e254 .cfa: x29 96 +
STACK CFI e320 .cfa: sp 224 +
STACK CFI e33c .cfa: sp 0 +
STACK CFI e340 .cfa: x29 96 +
STACK CFI INIT e43c e8 .cfa: sp 0 +
STACK CFI e440 .cfa: sp 48 +
STACK CFI e44c .cfa: x29 48 + x19: .cfa -8 + ^ x20: .cfa -16 + ^ x21: .cfa -32 + ^ .ra: .cfa -40 + ^ x29: .cfa -48 + ^
STACK CFI e4b8 .cfa: sp 48 +
STACK CFI e4c4 .cfa: sp 0 +
STACK CFI e4c8 .cfa: x29 48 +
STACK CFI INIT e5d0 e8 .cfa: sp 0 +
STACK CFI e5d4 .cfa: sp 32 +
STACK CFI e5dc .cfa: x29 32 + x19: .cfa -8 + ^ x20: .cfa -16 + ^ .ra: .cfa -24 + ^ x29: .cfa -32 + ^
STACK CFI e67c .cfa: sp 32 +
STACK CFI e684 .cfa: sp 0 +
STACK CFI e688 .cfa: x29 32 +
STACK CFI e6a8 .cfa: sp 32 +
STACK CFI e6b0 .cfa: sp 0 +
STACK CFI e6b4 .cfa: x29 32 +
STACK CFI INIT e81c 50 .cfa: sp 0 +
STACK CFI e820 .cfa: sp 32 +
STACK CFI e828 .cfa: x29 32 + x19: .cfa -8 + ^ x20: .cfa -16 + ^ .ra: .cfa -24 + ^ x29: .cfa -32 + ^
STACK CFI INIT e8a0 174 .cfa: sp 0 +
STACK CFI e8a4 .cfa: sp 112 +
STACK CFI e8b4 .cfa: x29 48 + x19: .cfa -8 + ^ x20: .cfa -16 + ^ x21: .cfa -32 + ^ .ra: .cfa -40 + ^ x29: .cfa -48 + ^
STACK CFI e9b0 .cfa: sp 112 +
STACK CFI e9c0 .cfa: sp 0 +
STACK CFI e9c4 .cfa: x29 48 +
STACK CFI INIT eb94 e4 .cfa: sp 0 +
STACK CFI eb98 .cfa: sp 32 +
STACK CFI eba0 .cfa: x29 32 + x19: .cfa -8 + ^ x20: .cfa -16 + ^ .ra: .cfa -24 + ^ x29: .cfa -32 + ^
STACK CFI ec3c .cfa: sp 32 +
STACK CFI ec44 .cfa: sp 0 +
STACK CFI ec48 .cfa: x29 32 +
STACK CFI ec68 .cfa: sp 32 +
STACK CFI ec70 .cfa: sp 0 +
STACK CFI ec74 .cfa: x29 32 +
STACK CFI INIT eca0 6ac .cfa: sp 0 +
STACK CFI eca4 .cfa: sp 240 +
STACK CFI ecc0 .cfa: x29 96 + x19: .cfa -8 + ^ x20: .cfa -16 + ^ x21: .cfa -24 + ^ x22: .cfa -32 + ^ x23: .cfa -40 + ^ x24: .cfa -48 + ^ x25: .cfa -56 + ^ x26: .cfa -64 + ^ x27: .cfa -72 + ^ x28: .cfa -80 + ^ .ra: .cfa -88 + ^ x29: .cfa -96 + ^
STACK CFI f190 .cfa: sp 240 +
STACK CFI f1ac .cfa: sp 0 +
STACK CFI f1b0 .cfa: x29 96 +
STACK CFI INIT f39c 74 .cfa: sp 0 +
STACK CFI f3a0 .cfa: sp 48 +
STACK CFI f3ac .cfa: x29 32 + x19: .cfa -8 + ^ x20: .cfa -16 + ^ .ra: .cfa -24 + ^ x29: .cfa -32 + ^
STACK CFI f3f8 .cfa: sp 48 +
STACK CFI f404 .cfa: sp 0 +
STACK CFI f408 .cfa: x29 32 +
STACK CFI INIT f490 154 .cfa: sp 0 +
STACK CFI f494 .cfa: sp 384 +
STACK CFI f4a8 .cfa: x29 64 + x19: .cfa -8 + ^ x20: .cfa -16 + ^ x21: .cfa -24 + ^ x22: .cfa -32 + ^ x23: .cfa -40 + ^ x28: .cfa -48 + ^ .ra: .cfa -56 + ^ x29: .cfa -64 + ^
STACK CFI f58c .cfa: sp 384 +
STACK CFI f5a0 .cfa: sp 0 +
STACK CFI f5a4 .cfa: x29 64 +
STACK CFI INIT f618 124 .cfa: sp 0 +
STACK CFI f61c .cfa: sp 80 +
STACK CFI f630 .cfa: x29 80 + x19: .cfa -8 + ^ x20: .cfa -16 + ^ x21: .cfa -24 + ^ x22: .cfa -32 + ^ x23: .cfa -40 + ^ x24: .cfa -48 + ^ x25: .cfa -56 + ^ x26: .cfa -64 + ^ .ra: .cfa -72 + ^ x29: .cfa -80 + ^
STACK CFI f6fc .cfa: sp 80 +
STACK CFI f710 .cfa: sp 0 +
STACK CFI f714 .cfa: x29 80 +
STACK CFI INIT f7e0 198 .cfa: sp 0 +
STACK CFI f7e4 .cfa: sp 112 +
STACK CFI f7fc .cfa: x29 80 + x19: .cfa -8 + ^ x20: .cfa -16 + ^ x21: .cfa -24 + ^ x22: .cfa -32 + ^ x23: .cfa -40 + ^ x24: .cfa -48 + ^ x25: .cfa -56 + ^ x26: .cfa -64 + ^ .ra: .cfa -72 + ^ x29: .cfa -80 + ^
STACK CFI f8ec .cfa: sp 112 +
STACK CFI f904 .cfa: sp 0 +
STACK CFI f908 .cfa: x29 80 +
STACK CFI INIT f978 1b4 .cfa: sp 0 +
STACK CFI f97c .cfa: sp 128 +
STACK CFI f998 .cfa: x29 96 + x19: .cfa -8 + ^ x20: .cfa -16 + ^ x21: .cfa -24 + ^ x22: .cfa -32 + ^ x23: .cfa -40 + ^ x24: .cfa -48 + ^ x25: .cfa -56 + ^ x26: .cfa -64 + ^ x27: .cfa -80 + ^ .ra: .cfa -88 + ^ x29: .cfa -96 + ^
STACK CFI fadc .cfa: sp 128 +
STACK CFI faf8 .cfa: sp 0 +
STACK CFI fafc .cfa: x29 96 +
STACK CFI INIT fb2c 15c .cfa: sp 0 +
STACK CFI fb30 .cfa: sp 80 +
STACK CFI fb44 .cfa: x29 80 + x19: .cfa -8 + ^ x20: .cfa -16 + ^ x21: .cfa -24 + ^ x22: .cfa -32 + ^ x23: .cfa -40 + ^ x24: .cfa -48 + ^ x25: .cfa -64 + ^ .ra: .cfa -72 + ^ x29: .cfa -80 + ^
STACK CFI fc54 .cfa: sp 80 +
STACK CFI fc68 .cfa: sp 0 +
STACK CFI fc6c .cfa: x29 80 +
STACK CFI INIT fdd0 218 .cfa: sp 0 +
STACK CFI fdd4 .cfa: sp 128 +
STACK CFI fdec .cfa: x29 80 + x19: .cfa -8 + ^ x20: .cfa -16 + ^ x21: .cfa -24 + ^ x22: .cfa -32 + ^ x23: .cfa -40 + ^ x24: .cfa -48 + ^ x25: .cfa -64 + ^ .ra: .cfa -72 + ^ x29: .cfa -80 + ^
STACK CFI ff7c .cfa: sp 128 +
STACK CFI ff94 .cfa: sp 0 +
STACK CFI ff98 .cfa: x29 80 +
STACK CFI INIT 10b8c 1348 .cfa: sp 0 +
STACK CFI 10b90 .cfa: sp 192 +
STACK CFI 10ba8 .cfa: x29 80 + x19: .cfa -8 + ^ x20: .cfa -16 + ^ x21: .cfa -24 + ^ x22: .cfa -32 + ^ x23: .cfa -40 + ^ x24: .cfa -48 + ^ x25: .cfa -56 + ^ x26: .cfa -64 + ^ .ra: .cfa -72 + ^ x29: .cfa -80 + ^
STACK CFI 11ad4 .cfa: sp 192 +
STACK CFI 11aec .cfa: sp 0 +
STACK CFI 11af0 .cfa: x29 80 +
STACK CFI INIT 11ed8 1c4 .cfa: sp 0 +
STACK CFI 11edc .cfa: sp 160 +
STACK CFI 11ef4 .cfa: x29 80 + x19: .cfa -8 + ^ x20: .cfa -16 + ^ x21: .cfa -24 + ^ x22: .cfa -32 + ^ x23: .cfa -40 + ^ x24: .cfa -48 + ^ x25: .cfa -56 + ^ x26: .cfa -64 + ^ .ra: .cfa -72 + ^ x29: .cfa -80 + ^
STACK CFI 12028 .cfa: sp 160 +
STACK CFI 12040 .cfa: sp 0 +
STACK CFI 12044 .cfa: x29 80 +
STACK CFI INIT 12354 380 .cfa: sp 0 +
STACK CFI 12358 .cfa: sp 224 +
STACK CFI 1236c .cfa: x29 64 + x19: .cfa -8 + ^ x20: .cfa -16 + ^ x21: .cfa -24 + ^ x22: .cfa -32 + ^ x23: .cfa -48 + ^ .ra: .cfa -56 + ^ x29: .cfa -64 + ^
STACK CFI 125d0 .cfa: sp 224 +
STACK CFI 125e4 .cfa: sp 0 +
STACK CFI 125e8 .cfa: x29 64 +
STACK CFI INIT 126d8 a8 .cfa: sp 0 +
STACK CFI 126dc .cfa: sp 32 +
STACK CFI 126e4 .cfa: x29 32 + x19: .cfa -8 + ^ x20: .cfa -16 + ^ .ra: .cfa -24 + ^ x29: .cfa -32 + ^
STACK CFI 12718 .cfa: sp 32 +
STACK CFI 12720 .cfa: sp 0 +
STACK CFI 12724 .cfa: x29 32 +
STACK CFI 12728 .cfa: sp 32 +
STACK CFI 12730 .cfa: sp 0 +
STACK CFI 12734 .cfa: x29 32 +
STACK CFI INIT 1292c 3e8 .cfa: sp 0 +
STACK CFI 12930 .cfa: sp 224 +
STACK CFI 12944 .cfa: x29 64 + x19: .cfa -8 + ^ x20: .cfa -16 + ^ x21: .cfa -24 + ^ x22: .cfa -32 + ^ x23: .cfa -40 + ^ x24: .cfa -48 + ^ .ra: .cfa -56 + ^ x29: .cfa -64 + ^
STACK CFI 12bf8 .cfa: sp 224 +
STACK CFI 12c0c .cfa: sp 0 +
STACK CFI 12c10 .cfa: x29 64 +
STACK CFI INIT 12e30 3c8 .cfa: sp 0 +
STACK CFI 12e34 .cfa: sp 240 +
STACK CFI 12e48 .cfa: x29 64 + x19: .cfa -8 + ^ x20: .cfa -16 + ^ x21: .cfa -24 + ^ x22: .cfa -32 + ^ x23: .cfa -40 + ^ x24: .cfa -48 + ^ .ra: .cfa -56 + ^ x29: .cfa -64 + ^
STACK CFI 130e0 .cfa: sp 240 +
STACK CFI 130f4 .cfa: sp 0 +
STACK CFI 130f8 .cfa: x29 64 +
STACK CFI INIT 13240 bc .cfa: sp 0 +
STACK CFI 13244 .cfa: sp 32 +
STACK CFI 1324c .cfa: x29 32 + x19: .cfa -16 + ^ .ra: .cfa -24 + ^ x29: .cfa -32 + ^
STACK CFI 13280 .cfa: sp 32 +
STACK CFI 13288 .cfa: sp 0 +
STACK CFI 1328c .cfa: x29 32 +
STACK CFI 13290 .cfa: sp 32 +
STACK CFI 13298 .cfa: sp 0 +
STACK CFI 1329c .cfa: x29 32 +
STACK CFI INIT 132fc 31c .cfa: sp 0 +
STACK CFI 13300 .cfa: sp 176 +
STACK CFI 13310 .cfa: x29 48 + x19: .cfa -8 + ^ x20: .cfa -16 + ^ x21: .cfa -24 + ^ x22: .cfa -32 + ^ .ra: .cfa -40 + ^ x29: .cfa -48 + ^
STACK CFI 13574 .cfa: sp 176 +
STACK CFI 13584 .cfa: sp 0 +
STACK CFI 13588 .cfa: x29 48 +
STACK CFI INIT 141f4 d8 .cfa: sp 0 +
STACK CFI 141f8 .cfa: sp 64 +
STACK CFI 14208 .cfa: x29 64 + x19: .cfa -8 + ^ x20: .cfa -16 + ^ x21: .cfa -24 + ^ x22: .cfa -32 + ^ x23: .cfa -40 + ^ x24: .cfa -48 + ^ .ra: .cfa -56 + ^ x29: .cfa -64 + ^
STACK CFI 142a4 .cfa: sp 64 +
STACK CFI 142b4 .cfa: sp 0 +
STACK CFI 142b8 .cfa: x29 64 +
STACK CFI INIT 142cc 118 .cfa: sp 0 +
STACK CFI 142d0 .cfa: sp 80 +
STACK CFI 142e0 .cfa: x29 48 + x19: .cfa -8 + ^ x20: .cfa -16 + ^ x21: .cfa -24 + ^ x22: .cfa -32 + ^ .ra: .cfa -40 + ^ x29: .cfa -48 + ^
STACK CFI 143c8 .cfa: sp 80 +
STACK CFI 143d8 .cfa: sp 0 +
STACK CFI 143dc .cfa: x29 48 +
STACK CFI INIT 143e4 300 .cfa: sp 0 +
STACK CFI 143e8 .cfa: sp 128 +
STACK CFI 14400 .cfa: x29 80 + x19: .cfa -8 + ^ x20: .cfa -16 + ^ x21: .cfa -24 + ^ x22: .cfa -32 + ^ x23: .cfa -40 + ^ x24: .cfa -48 + ^ x25: .cfa -64 + ^ .ra: .cfa -72 + ^ x29: .cfa -80 + ^
STACK CFI 146a0 .cfa: sp 128 +
STACK CFI 146b8 .cfa: sp 0 +
STACK CFI 146bc .cfa: x29 80 +
STACK CFI INIT 14930 140 .cfa: sp 0 +
STACK CFI 14934 .cfa: sp 80 +
STACK CFI 14944 .cfa: x29 48 + x19: .cfa -8 + ^ x20: .cfa -16 + ^ x21: .cfa -24 + ^ x22: .cfa -32 + ^ .ra: .cfa -40 + ^ x29: .cfa -48 + ^
STACK CFI 14a1c .cfa: sp 80 +
STACK CFI 14a2c .cfa: sp 0 +
STACK CFI 14a30 .cfa: x29 48 +
STACK CFI INIT 14a70 d8 .cfa: sp 0 +
STACK CFI 14a74 .cfa: sp 48 +
STACK CFI 14a80 .cfa: x29 48 + x19: .cfa -8 + ^ x20: .cfa -16 + ^ x21: .cfa -32 + ^ .ra: .cfa -40 + ^ x29: .cfa -48 + ^
STACK CFI 14b24 .cfa: sp 48 +
STACK CFI 14b30 .cfa: sp 0 +
STACK CFI 14b34 .cfa: x29 48 +
STACK CFI INIT 14b48 84 .cfa: sp 0 +
STACK CFI 14b4c .cfa: sp 32 +
STACK CFI 14b54 .cfa: x29 32 + x19: .cfa -8 + ^ x20: .cfa -16 + ^ .ra: .cfa -24 + ^ x29: .cfa -32 + ^
STACK CFI 14bac .cfa: sp 32 +
STACK CFI 14bb4 .cfa: sp 0 +
STACK CFI 14bb8 .cfa: x29 32 +
STACK CFI INIT 15498 1c8 .cfa: sp 0 +
STACK CFI 1549c .cfa: sp 112 +
STACK CFI 154ac .cfa: x29 48 + x19: .cfa -8 + ^ x20: .cfa -16 + ^ x21: .cfa -24 + ^ x22: .cfa -32 + ^ .ra: .cfa -40 + ^ x29: .cfa -48 + ^
STACK CFI 1561c .cfa: sp 112 +
STACK CFI 1562c .cfa: sp 0 +
STACK CFI 15630 .cfa: x29 48 +
STACK CFI INIT 156c8 134 .cfa: sp 0 +
STACK CFI 156cc .cfa: sp 80 +
STACK CFI 156dc .cfa: x29 48 + x19: .cfa -8 + ^ x20: .cfa -16 + ^ x21: .cfa -24 + ^ x22: .cfa -32 + ^ .ra: .cfa -40 + ^ x29: .cfa -48 + ^
STACK CFI 157e0 .cfa: sp 80 +
STACK CFI 157f0 .cfa: sp 0 +
STACK CFI 157f4 .cfa: x29 48 +
