MODULE Linux arm64 BB20346E4C34FD391869C8852260DD8D0 geode.texture-loader.android64.so
INFO CODE_ID 6E3420BB344C39FD1869C8852260DD8D0A9394ED
INFO GENERATOR mozilla/dump_syms 2.3.4
PUBLIC 321b0 0 __on_dlclose
PUBLIC 321c0 0 __emutls_unregister_key
PUBLIC 321c8 0 __on_dlclose_late
PUBLIC 321d0 0 __atexit_handler_wrapper
PUBLIC 321e4 0 atexit
PUBLIC 32200 0 pthread_atfork
PUBLIC 32210 0 __aarch64_ldadd8_relax
PUBLIC 32240 0 init_have_lse_atomics
PUBLIC 322d8 0 __init_cpu_features_constructor
PUBLIC 32874 0 __init_cpu_features
PUBLIC 32900 0 __aarch64_ldadd8_acq_rel
PUBLIC m 32930 0 convertPack(std::__ndk1::shared_ptr<Pack> const&)
PUBLIC 32d68 0 PackInfo::~PackInfo()
PUBLIC 32e04 0 std::__ndk1::__optional_destruct_base<PackInfo, false>::~__optional_destruct_base[abi:ne180000]()
PUBLIC 32ea8 0 geode::texture_loader::Pack::~Pack()
PUBLIC 32f80 0 __clang_call_terminate
PUBLIC m 32f90 0 std::__ndk1::basic_string<char, std::__ndk1::char_traits<char>, std::__ndk1::allocator<char> >::__init_copy_ctor_external(char const*, unsigned long)
PUBLIC 33010 0 std::__ndk1::basic_string<char, std::__ndk1::char_traits<char>, std::__ndk1::allocator<char> >::__throw_length_error[abi:ne180000]() const
PUBLIC 33024 0 std::__ndk1::__throw_length_error[abi:ne180000](char const*)
PUBLIC 33074 0 std::length_error::length_error[abi:ne180000](char const*)
PUBLIC 330a4 0 std::__throw_bad_array_new_length([abi:ne180000], void)
PUBLIC m 330d8 0 std::__ndk1::vector<std::__ndk1::basic_string<char, std::__ndk1::char_traits<char>, std::__ndk1::allocator<char> >, std::__ndk1::allocator<std::__ndk1::basic_string<char, std::__ndk1::char_traits<char>, std::__ndk1::allocator<char> > > >::__init_with_size[abi:ne180000]<std::__ndk1::basic_string<char, std::__ndk1::char_traits<char>, std::__ndk1::allocator<char> >*, std::__ndk1::vector<std::__ndk1::basic_string<char, std::__ndk1::char_traits<char>, std::__ndk1::allocator<char> >, std::__ndk1::allocator<std::__ndk1::basic_string<char, std::__ndk1::char_traits<char>, std::__ndk1::allocator<char> > > >::__init_with_size[abi:ne180000]>(std::__ndk1::basic_string<char, std::__ndk1::char_traits<char>, std::__ndk1::allocator<char> >*, std::__ndk1::vector<std::__ndk1::basic_string<char, std::__ndk1::char_traits<char>, std::__ndk1::allocator<char> >, std::__ndk1::allocator<std::__ndk1::basic_string<char, std::__ndk1::char_traits<char>, std::__ndk1::allocator<char> > > >::__init_with_size[abi:ne180000], unsigned long)
PUBLIC 33244 0 std::__ndk1::__exception_guard_exceptions<std::__ndk1::vector<std::__ndk1::basic_string<char, std::__ndk1::char_traits<char>, std::__ndk1::allocator<char> >, std::__ndk1::allocator<std::__ndk1::basic_string<char, std::__ndk1::char_traits<char>, std::__ndk1::allocator<char> > > >::__destroy_vector>::~__exception_guard_exceptions[abi:ne180000]()
PUBLIC 332d0 0 std::__ndk1::vector<std::__ndk1::basic_string<char, std::__ndk1::char_traits<char>, std::__ndk1::allocator<char> >, std::__ndk1::allocator<std::__ndk1::basic_string<char, std::__ndk1::char_traits<char>, std::__ndk1::allocator<char> > > >::__throw_length_error[abi:ne180000]() const
PUBLIC 332e4 0 std::__ndk1::__exception_guard_exceptions<std::__ndk1::_AllocatorDestroyRangeReverse<std::__ndk1::allocator<std::__ndk1::basic_string<char, std::__ndk1::char_traits<char>, std::__ndk1::allocator<char> > >, std::__ndk1::basic_string<char, std::__ndk1::char_traits<char>, std::__ndk1::allocator<char> >*> >::~__exception_guard_exceptions[abi:ne180000]()
PUBLIC m 33344 0 std::__ndk1::vector<std::__ndk1::basic_string<char, std::__ndk1::char_traits<char>, std::__ndk1::allocator<char> >, std::__ndk1::allocator<std::__ndk1::basic_string<char, std::__ndk1::char_traits<char>, std::__ndk1::allocator<char> > > >::__assign_with_size[abi:ne180000]<std::__ndk1::basic_string<char, std::__ndk1::char_traits<char>, std::__ndk1::allocator<char> >*, std::__ndk1::vector<std::__ndk1::basic_string<char, std::__ndk1::char_traits<char>, std::__ndk1::allocator<char> >, std::__ndk1::allocator<std::__ndk1::basic_string<char, std::__ndk1::char_traits<char>, std::__ndk1::allocator<char> > > >::__assign_with_size[abi:ne180000]>(std::__ndk1::basic_string<char, std::__ndk1::char_traits<char>, std::__ndk1::allocator<char> >*, std::__ndk1::vector<std::__ndk1::basic_string<char, std::__ndk1::char_traits<char>, std::__ndk1::allocator<char> >, std::__ndk1::allocator<std::__ndk1::basic_string<char, std::__ndk1::char_traits<char>, std::__ndk1::allocator<char> > > >::__assign_with_size[abi:ne180000], long)
PUBLIC m 33730 0 std::__ndk1::basic_string<char, std::__ndk1::char_traits<char>, std::__ndk1::allocator<char> >::__assign_no_alias<true>(char const*, unsigned long)
PUBLIC m 337dc 0 std::__ndk1::basic_string<char, std::__ndk1::char_traits<char>, std::__ndk1::allocator<char> >::__assign_no_alias<false>(char const*, unsigned long)
PUBLIC 338ec 0 geode::EventListener<geode::DispatchFilter<std::__ndk1::vector<geode::texture_loader::Pack, std::__ndk1::allocator<geode::texture_loader::Pack> >*> >::EventListener(geode::ListenerResult (*)(std::__ndk1::vector<geode::texture_loader::Pack, std::__ndk1::allocator<geode::texture_loader::Pack> >*), geode::DispatchFilter<std::__ndk1::vector<geode::texture_loader::Pack, std::__ndk1::allocator<geode::texture_loader::Pack> >*>)
PUBLIC 339d4 0 geodeExecFunction35<(anonymous namespace)::ExecFuncUnique35>()::{lambda(std::__ndk1::vector<geode::texture_loader::Pack, std::__ndk1::allocator<geode::texture_loader::Pack> >*)#1}::__invoke(std::__ndk1::vector<geode::texture_loader::Pack, std::__ndk1::allocator<geode::texture_loader::Pack> >*)
PUBLIC 33c48 0 std::__ndk1::vector<geode::texture_loader::Pack, std::__ndk1::allocator<geode::texture_loader::Pack> >::~vector[abi:ne180000]()
PUBLIC 33cb0 0 std::__ndk1::vector<std::__ndk1::shared_ptr<Pack>, std::__ndk1::allocator<std::__ndk1::shared_ptr<Pack> > >::~vector[abi:ne180000]()
PUBLIC 33d58 0 std::__ndk1::transform[abi:ne180000]<std::__ndk1::__wrap_iter<std::__ndk1::shared_ptr<Pack> const*>, std::__ndk1::back_insert_iterator<std::__ndk1::vector<geode::texture_loader::Pack, std::__ndk1::allocator<geode::texture_loader> > >, geode::texture_loader (*)(std::__ndk1::shared_ptr<Pack>&)>(std::__ndk1::__wrap_iter<std::__ndk1::shared_ptr<Pack> const*>, std::__ndk1::back_insert_iterator<std::__ndk1::vector<geode::texture_loader::Pack, std::__ndk1::allocator<geode::texture_loader> > >, geode::texture_loader (*)(std::__ndk1::shared_ptr<Pack>&), geode::texture_loader (*)(std::__ndk1::shared_ptr<Pack>&))
PUBLIC 3428c 0 std::__ndk1::vector<geode::texture_loader::Pack, std::__ndk1::allocator<geode::texture_loader::Pack> >::__throw_length_error[abi:ne180000]() const
PUBLIC 342a0 0 geode::EventListener<geode::DispatchFilter<std::__ndk1::vector<geode::texture_loader::Pack, std::__ndk1::allocator<geode::texture_loader::Pack> >*> >::getPool() const
PUBLIC 34524 0 geode::EventListener<geode::DispatchFilter<std::__ndk1::vector<geode::texture_loader::Pack, std::__ndk1::allocator<geode::texture_loader::Pack> >*> >::handle(geode::Event*)
PUBLIC 347d4 0 geode::EventListener<geode::DispatchFilter<std::__ndk1::vector<geode::texture_loader::Pack, std::__ndk1::allocator<geode::texture_loader::Pack> >*> >::~EventListener()
PUBLIC 34840 0 geode::EventListener<geode::DispatchFilter<std::__ndk1::vector<geode::texture_loader::Pack, std::__ndk1::allocator<geode::texture_loader::Pack> >*> >::~EventListener()
PUBLIC 348b4 0 std::__ndk1::__function::__base<geode::ListenerResult(std::__ndk1::vector<geode::texture_loader::Pack, std::__ndk1::allocator<geode::texture_loader::Pack> >*)>::~__base()
PUBLIC 348b8 0 std::__ndk1::__function::__func<geode::ListenerResult (*)(std::__ndk1::vector<geode::texture_loader::Pack, std::__ndk1::allocator<geode::texture_loader::Pack> >*), std::__ndk1::allocator<geode::ListenerResult (*)(std::__ndk1::vector<geode::texture_loader::Pack, std::__ndk1::allocator<geode::texture_loader::Pack> >*)>, geode::ListenerResult(std::__ndk1::vector<geode::texture_loader::Pack, std::__ndk1::allocator<geode::texture_loader::Pack> >*)>::~__func()
PUBLIC 348bc 0 std::__ndk1::__function::__func<geode::ListenerResult (*)(std::__ndk1::vector<geode::texture_loader::Pack, std::__ndk1::allocator<geode::texture_loader::Pack> >*), std::__ndk1::allocator<geode::ListenerResult (*)(std::__ndk1::vector<geode::texture_loader::Pack, std::__ndk1::allocator<geode::texture_loader::Pack> >*)>, geode::ListenerResult(std::__ndk1::vector<geode::texture_loader::Pack, std::__ndk1::allocator<geode::texture_loader::Pack> >*)>::__clone() const
PUBLIC 348f0 0 std::__ndk1::__function::__func<geode::ListenerResult (*)(std::__ndk1::vector<geode::texture_loader::Pack, std::__ndk1::allocator<geode::texture_loader::Pack> >*), std::__ndk1::allocator<geode::ListenerResult (*)(std::__ndk1::vector<geode::texture_loader::Pack, std::__ndk1::allocator<geode::texture_loader::Pack> >*)>, geode::ListenerResult(std::__ndk1::vector<geode::texture_loader::Pack, std::__ndk1::allocator<geode::texture_loader::Pack> >*)>::__clone(std::__ndk1::__function::__base<geode::ListenerResult(std::__ndk1::vector<geode::texture_loader::Pack, std::__ndk1::allocator<geode::texture_loader::Pack> >*)>*) const
PUBLIC 34904 0 std::__ndk1::__function::__func<geode::ListenerResult (*)(std::__ndk1::vector<geode::texture_loader::Pack, std::__ndk1::allocator<geode::texture_loader::Pack> >*), std::__ndk1::allocator<geode::ListenerResult (*)(std::__ndk1::vector<geode::texture_loader::Pack, std::__ndk1::allocator<geode::texture_loader::Pack> >*)>, geode::ListenerResult(std::__ndk1::vector<geode::texture_loader::Pack, std::__ndk1::allocator<geode::texture_loader::Pack> >*)>::destroy()
PUBLIC 34908 0 std::__ndk1::__function::__func<geode::ListenerResult (*)(std::__ndk1::vector<geode::texture_loader::Pack, std::__ndk1::allocator<geode::texture_loader::Pack> >*), std::__ndk1::allocator<geode::ListenerResult (*)(std::__ndk1::vector<geode::texture_loader::Pack, std::__ndk1::allocator<geode::texture_loader::Pack> >*)>, geode::ListenerResult(std::__ndk1::vector<geode::texture_loader::Pack, std::__ndk1::allocator<geode::texture_loader::Pack> >*)>::destroy_deallocate()
PUBLIC 3490c 0 std::__ndk1::__function::__func<geode::ListenerResult (*)(std::__ndk1::vector<geode::texture_loader::Pack, std::__ndk1::allocator<geode::texture_loader::Pack> >*), std::__ndk1::allocator<geode::ListenerResult (*)(std::__ndk1::vector<geode::texture_loader::Pack, std::__ndk1::allocator<geode::texture_loader::Pack> >*)>, geode::ListenerResult(std::__ndk1::vector<geode::texture_loader::Pack, std::__ndk1::allocator<geode::texture_loader::Pack> >*)>::operator()(std::__ndk1::vector<geode::texture_loader::Pack, std::__ndk1::allocator<geode::texture_loader::Pack> >*&&)
PUBLIC 3491c 0 std::__ndk1::__function::__func<geode::ListenerResult (*)(std::__ndk1::vector<geode::texture_loader::Pack, std::__ndk1::allocator<geode::texture_loader::Pack> >*), std::__ndk1::allocator<geode::ListenerResult (*)(std::__ndk1::vector<geode::texture_loader::Pack, std::__ndk1::allocator<geode::texture_loader::Pack> >*)>, geode::ListenerResult(std::__ndk1::vector<geode::texture_loader::Pack, std::__ndk1::allocator<geode::texture_loader::Pack> >*)>::target(std::type_info const&) const
PUBLIC 34938 0 std::__ndk1::__function::__func<geode::ListenerResult (*)(std::__ndk1::vector<geode::texture_loader::Pack, std::__ndk1::allocator<geode::texture_loader::Pack> >*), std::__ndk1::allocator<geode::ListenerResult (*)(std::__ndk1::vector<geode::texture_loader::Pack, std::__ndk1::allocator<geode::texture_loader::Pack> >*)>, geode::ListenerResult(std::__ndk1::vector<geode::texture_loader::Pack, std::__ndk1::allocator<geode::texture_loader::Pack> >*)>::target_type() const
PUBLIC 34944 0 std::__ndk1::__murmur2_or_cityhash<unsigned long, (unsigned long)64>::operator()[abi:ne180000](void const*, unsigned long) const
PUBLIC 34d90 0 std::__ndk1::__hash_table<std::__ndk1::__hash_value_type<std::__ndk1::basic_string<char, std::__ndk1::char_traits<char>, std::__ndk1::allocator<char> >, geode::EventListenerPool*>, std::__ndk1::__unordered_map_hasher<std::__ndk1::basic_string<char, std::__ndk1::char_traits<char>, std::__ndk1::allocator<char> >, std::__ndk1::__hash_value_type<std::__ndk1::basic_string<char, std::__ndk1::char_traits<char>, std::__ndk1::allocator<char> >, geode::EventListenerPool*>, std::__ndk1::hash<std::__ndk1::basic_string<char, std::__ndk1::char_traits<char>, std::__ndk1::allocator<char> > >, std::__ndk1::equal_to<std::__ndk1::basic_string<char, std::__ndk1::char_traits<char>, std::__ndk1::allocator<char> > >, true>, std::__ndk1::__unordered_map_equal<std::__ndk1::basic_string<char, std::__ndk1::char_traits<char>, std::__ndk1::allocator<char> >, std::__ndk1::__hash_value_type<std::__ndk1::basic_string<char, std::__ndk1::char_traits<char>, std::__ndk1::allocator<char> >, geode::EventListenerPool*>, std::__ndk1::equal_to<std::__ndk1::basic_string<char, std::__ndk1::char_traits<char>, std::__ndk1::allocator<char> > >, std::__ndk1::hash<std::__ndk1::basic_string<char, std::__ndk1::char_traits<char>, std::__ndk1::allocator<char> > >, true>, std::__ndk1::allocator<std::__ndk1::__hash_value_type<std::__ndk1::basic_string<char, std::__ndk1::char_traits<char>, std::__ndk1::allocator<char> >, geode::EventListenerPool*> > >::__emplace_unique_key_args<std::__ndk1::basic_string<char, std::__ndk1::char_traits<char>, std::__ndk1::allocator<char> >, std::__ndk1::piecewise_construct_t const&, std::__ndk1::tuple<std::__ndk1::basic_string<char, std::__ndk1::char_traits<char>, std::__ndk1::allocator<char> > const&>, std::__ndk1::tuple<> >(std::__ndk1::basic_string<char, std::__ndk1::char_traits<char>, std::__ndk1::allocator<char> > const&, std::__ndk1::piecewise_construct_t const&, std::__ndk1::tuple<std::__ndk1::basic_string<char, std::__ndk1::char_traits<char>, std::__ndk1::allocator<char> > const&>, std::__ndk1::tuple<>)
PUBLIC 353e8 0 std::__ndk1::unique_ptr<std::__ndk1::__hash_node<std::__ndk1::__hash_value_type<std::__ndk1::basic_string<char, std::__ndk1::char_traits<char>, std::__ndk1::allocator<char> >, geode::EventListenerPool*>, void*>, std::__ndk1::__hash_node_destructor<std::__ndk1::allocator<std::__ndk1::__hash_node<std::__ndk1::__hash_value_type<std::__ndk1::basic_string<char, std::__ndk1::char_traits<char>, std::__ndk1::allocator<char> >, geode::EventListenerPool*>, void*> > > >::~unique_ptr[abi:ne180000]()
PUBLIC m 35438 0 geode::cast::traverseTypeinfoFor(void*, geode::cast::ClassTypeinfoType const*, char const*)
PUBLIC 3553c 0 std::__ndk1::__throw_bad_function_call[abi:ne180000]()
PUBLIC 35570 0 std::__ndk1::bad_function_call::~bad_function_call()
PUBLIC 35594 0 geodeExecFunction35<(anonymous namespace)::ExecFuncUnique35>()::{lambda(std::__ndk1::vector<geode::texture_loader::Pack, std::__ndk1::allocator<geode::texture_loader::Pack> >*)#2}::__invoke(std::__ndk1::vector<geode::texture_loader::Pack, std::__ndk1::allocator<geode::texture_loader::Pack> >*)
PUBLIC 35808 0 _GLOBAL__sub_I_API.cpp
PUBLIC m 359a8 0 DragThingy::init(std::__ndk1::function<void ()>, std::__ndk1::function<void (cocos2d::CCPoint)>, std::__ndk1::function<void ()>)
PUBLIC m 35ba0 0 DragThingy::ccTouchBegan(cocos2d::CCTouch*, cocos2d::CCEvent*)
PUBLIC m 35c94 0 {virtual override thunk({offset(-320)}, DragThingy::ccTouchBegan(cocos2d::CCTouch*, cocos2d::CCEvent*))}
PUBLIC m 35d98 0 DragThingy::ccTouchMoved(cocos2d::CCTouch*, cocos2d::CCEvent*)
PUBLIC m 35e1c 0 {virtual override thunk({offset(-320)}, DragThingy::ccTouchMoved(cocos2d::CCTouch*, cocos2d::CCEvent*))}
PUBLIC m 35ea0 0 DragThingy::ccTouchEnded(cocos2d::CCTouch*, cocos2d::CCEvent*)
PUBLIC m 35eb8 0 {virtual override thunk({offset(-320)}, DragThingy::ccTouchEnded(cocos2d::CCTouch*, cocos2d::CCEvent*))}
PUBLIC m 35ed0 0 DragThingy::create(std::__ndk1::function<void ()>, std::__ndk1::function<void (cocos2d::CCPoint)>, std::__ndk1::function<void ()>)
PUBLIC 361e8 0 cocos2d::CCCopying::copyWithZone(cocos2d::CCZone*)
PUBLIC 361f0 0 DragThingy::~DragThingy()
PUBLIC 362d0 0 DragThingy::~DragThingy()
PUBLIC 363b8 0 {virtual override thunk({offset(-320)}, DragThingy::~DragThingy())}
PUBLIC 3649c 0 {virtual override thunk({offset(-320)}, DragThingy::~DragThingy())}
PUBLIC 36588 0 cocos2d::CCKeyboardDelegate::keyUp(cocos2d::enumKeyCodes)
PUBLIC 3658c 0 cocos2d::CCMouseDelegate::rightKeyDown()
PUBLIC 36590 0 cocos2d::CCMouseDelegate::rightKeyUp()
PUBLIC 36594 0 cocos2d::CCMouseDelegate::scrollWheel(float, float)
PUBLIC 36598 0 __cxx_global_var_init
PUBLIC 369d4 0 __cxx_global_var_init.1
PUBLIC 36e10 0 geode::modifier::ModifyBase<geode::modifier::ModifyDerive<hook13<(anonymous namespace)::hook13Parent>, cocos2d::CCSprite> >::~ModifyBase()
PUBLIC 36e2c 0 geode::modifier::ModifyBase<geode::modifier::ModifyDerive<hook58<(anonymous namespace)::hook58Parent>, cocos2d::CCSpriteFrameCache> >::~ModifyBase()
PUBLIC 36e48 0 geode::modifier::ModifyDerive<hook13<(anonymous namespace)::hook13Parent>, cocos2d::CCSprite>::apply()
PUBLIC 375fc 0 std::__ndk1::shared_ptr<geode::Hook>::~shared_ptr[abi:ne180000]()
PUBLIC m 3764c 0 geode::impl::ResultData<geode::Hook*, std::__ndk1::basic_string<char, std::__ndk1::char_traits<char>, std::__ndk1::allocator<char> > >::~ResultData()
PUBLIC 376c0 0 std::__ndk1::vector<std::__ndk1::basic_string<char, std::__ndk1::char_traits<char>, std::__ndk1::allocator<char> >, std::__ndk1::allocator<std::__ndk1::basic_string<char, std::__ndk1::char_traits<char>, std::__ndk1::allocator<char> > > >::~vector[abi:ne180000]()
PUBLIC 3773c 0 geode::modifier::ModifyBase<geode::modifier::ModifyDerive<hook13<(anonymous namespace)::hook13Parent>, cocos2d::CCSprite> >::apply()
PUBLIC m 37740 0 _ZN5geode15UnwrapExceptionC2IRPNS_4HookEQsr4implE18IsStringStreamableIT_EEENS_4impl5OkTagEOS5_
PUBLIC 37894 0 std::__ndk1::__throw_bad_variant_access[abi:ne180000]()
PUBLIC 378c8 0 std::__ndk1::basic_stringstream<char, std::__ndk1::char_traits<char>, std::__ndk1::allocator<char> >::basic_stringstream[abi:ne180000]()
PUBLIC m 379f4 0 std::__ndk1::basic_stringstream<char, std::__ndk1::char_traits<char>, std::__ndk1::allocator<char> >::~basic_stringstream()
PUBLIC 37a74 0 geode::UnwrapException::~UnwrapException()
PUBLIC 37a98 0 std::__ndk1::__put_character_sequence[abi:ne180000]<char, std::__ndk1::char_traits<char> >(std::__ndk1::basic_ostream<char, std::__ndk1::char_traits<char> >, std::__ndk1::basic_ostream const*, unsigned long)
PUBLIC 37c3c 0 std::__ndk1::__pad_and_output[abi:ne180000]<char, std::__ndk1::char_traits<char> >(std::__ndk1::char_traits<char>, std::__ndk1::ostreambuf_iterator const*, std::__ndk1::ostreambuf_iterator const, std::__ndk1::ostreambuf_iterator const, std::__ndk1::ios_base&, std::__ndk1::ostreambuf_iterator)
PUBLIC 37e18 0 std::__ndk1::basic_stringbuf<char, std::__ndk1::char_traits<char>, std::__ndk1::allocator<char> >::str[abi:ne180000]() &&
PUBLIC 37f90 0 std::__ndk1::basic_stringbuf<char, std::__ndk1::char_traits<char>, std::__ndk1::allocator<char> >::__init_buf_ptrs[abi:ne180000]()
PUBLIC m 380d8 0 std::__ndk1::vector<std::__ndk1::basic_string<char, std::__ndk1::char_traits<char>, std::__ndk1::allocator<char> >, std::__ndk1::allocator<std::__ndk1::basic_string<char, std::__ndk1::char_traits<char>, std::__ndk1::allocator<char> > > >::__push_back_slow_path<std::__ndk1::basic_string<char, std::__ndk1::char_traits<char>, std::__ndk1::allocator<char> > const&>(std::__ndk1::basic_string<char, std::__ndk1::char_traits<char>, std::__ndk1::allocator<char> > const&)
PUBLIC 38300 0 std::__ndk1::__split_buffer<std::__ndk1::basic_string<char, std::__ndk1::char_traits<char>, std::__ndk1::allocator<char> >, std::__ndk1::allocator<std::__ndk1::basic_string<char, std::__ndk1::char_traits<char>, std::__ndk1::allocator<char> > >&>::~__split_buffer()
PUBLIC 38368 0 std::__ndk1::__variant_detail::__visitation::__base::__dispatcher<(unsigned long)0>::__dispatch[abi:ne180000]<std::__ndk1::__variant_detail::__dtor<std::__ndk1::__variant_detail::__traits<geode::Hook*, std::__ndk1::basic_string<char, std::__ndk1::char_traits<char>, std::__ndk1::allocator<char> > >, (std::__ndk1::__variant_detail::_Trait)1>::__destroy[abi:ne180000]()::{lambda(auto:1&)#1}, std::__ndk1::__variant_detail::__base<(std::__ndk1::__variant_detail::__traits<geode::Hook*, std::__ndk1::basic_string<char, std::__ndk1::char_traits<char>, std::__ndk1::allocator<char> > >)1, geode::Hook, std::__ndk1::allocator<char> >&>(std::__ndk1::__variant_detail::__dtor<std::__ndk1::__variant_detail::__traits<geode::Hook*, std::__ndk1::basic_string<char, std::__ndk1::char_traits<char>, std::__ndk1::allocator<char> > >, (std::__ndk1::__variant_detail::_Trait)1>, std::__ndk1::__variant_detail::__base<(std::__ndk1::__variant_detail::__traits<geode::Hook*, std::__ndk1::basic_string<char, std::__ndk1::char_traits<char>, std::__ndk1::allocator<char> > >)1, geode::Hook, std::__ndk1::allocator<char> >&)
PUBLIC 3836c 0 std::__ndk1::__variant_detail::__visitation::__base::__dispatcher<(unsigned long)1>::__dispatch[abi:ne180000]<std::__ndk1::__variant_detail::__dtor<std::__ndk1::__variant_detail::__traits<geode::Hook*, std::__ndk1::basic_string<char, std::__ndk1::char_traits<char>, std::__ndk1::allocator<char> > >, (std::__ndk1::__variant_detail::_Trait)1>::__destroy[abi:ne180000]()::{lambda(auto:1&)#1}, std::__ndk1::__variant_detail::__base<(std::__ndk1::__variant_detail::__traits<geode::Hook*, std::__ndk1::basic_string<char, std::__ndk1::char_traits<char>, std::__ndk1::allocator<char> > >)1, geode::Hook, std::__ndk1::allocator<char> >&>(std::__ndk1::__variant_detail::__dtor<std::__ndk1::__variant_detail::__traits<geode::Hook*, std::__ndk1::basic_string<char, std::__ndk1::char_traits<char>, std::__ndk1::allocator<char> > >, (std::__ndk1::__variant_detail::_Trait)1>, std::__ndk1::__variant_detail::__base<(std::__ndk1::__variant_detail::__traits<geode::Hook*, std::__ndk1::basic_string<char, std::__ndk1::char_traits<char>, std::__ndk1::allocator<char> > >)1, geode::Hook, std::__ndk1::allocator<char> >&)
PUBLIC m 38380 0 std::__ndk1::__tree<std::__ndk1::__value_type<std::__ndk1::basic_string<char, std::__ndk1::char_traits<char>, std::__ndk1::allocator<char> >, std::__ndk1::shared_ptr<geode::Hook> >, std::__ndk1::__map_value_compare<std::__ndk1::basic_string<char, std::__ndk1::char_traits<char>, std::__ndk1::allocator<char> >, std::__ndk1::__value_type<std::__ndk1::basic_string<char, std::__ndk1::char_traits<char>, std::__ndk1::allocator<char> >, std::__ndk1::shared_ptr<geode::Hook> >, std::__ndk1::less<std::__ndk1::basic_string<char, std::__ndk1::char_traits<char>, std::__ndk1::allocator<char> > >, true>, std::__ndk1::allocator<std::__ndk1::__value_type<std::__ndk1::basic_string<char, std::__ndk1::char_traits<char>, std::__ndk1::allocator<char> >, std::__ndk1::shared_ptr<geode::Hook> > > >::find<std::__ndk1::basic_string<char, std::__ndk1::char_traits<char>, std::__ndk1::allocator<char> > >(std::__ndk1::basic_string<char, std::__ndk1::char_traits<char>, std::__ndk1::allocator<char> > const&)
PUBLIC 384a0 0 std::__ndk1::__tree<std::__ndk1::__value_type<std::__ndk1::basic_string<char, std::__ndk1::char_traits<char>, std::__ndk1::allocator<char> >, std::__ndk1::shared_ptr<geode::Hook> >, std::__ndk1::__map_value_compare<std::__ndk1::basic_string<char, std::__ndk1::char_traits<char>, std::__ndk1::allocator<char> >, std::__ndk1::__value_type<std::__ndk1::basic_string<char, std::__ndk1::char_traits<char>, std::__ndk1::allocator<char> >, std::__ndk1::shared_ptr<geode::Hook> >, std::__ndk1::less<std::__ndk1::basic_string<char, std::__ndk1::char_traits<char>, std::__ndk1::allocator<char> > >, true>, std::__ndk1::allocator<std::__ndk1::__value_type<std::__ndk1::basic_string<char, std::__ndk1::char_traits<char>, std::__ndk1::allocator<char> >, std::__ndk1::shared_ptr<geode::Hook> > > >::erase(std::__ndk1::__tree_const_iterator<std::__ndk1::__value_type<std::__ndk1::basic_string<char, std::__ndk1::char_traits<char>, std::__ndk1::allocator<char> >, std::__ndk1::shared_ptr<geode::Hook> >, std::__ndk1::__tree_node<std::__ndk1::__value_type<std::__ndk1::basic_string<char, std::__ndk1::char_traits<char>, std::__ndk1::allocator<char> >, std::__ndk1::shared_ptr<geode::Hook> >, void*>*, long>)
PUBLIC 38574 0 std::__ndk1::__tree_remove[abi:ne180000]<std::__ndk1::__tree_node_base<void*>*>(std::__ndk1::__tree_node_base<void*>*, std::__ndk1::__tree_node_base<void*>*)
PUBLIC 3893c 0 std::__ndk1::__tree<std::__ndk1::__value_type<std::__ndk1::basic_string<char, std::__ndk1::char_traits<char>, std::__ndk1::allocator<char> >, std::__ndk1::shared_ptr<geode::Hook> >, std::__ndk1::__map_value_compare<std::__ndk1::basic_string<char, std::__ndk1::char_traits<char>, std::__ndk1::allocator<char> >, std::__ndk1::__value_type<std::__ndk1::basic_string<char, std::__ndk1::char_traits<char>, std::__ndk1::allocator<char> >, std::__ndk1::shared_ptr<geode::Hook> >, std::__ndk1::less<std::__ndk1::basic_string<char, std::__ndk1::char_traits<char>, std::__ndk1::allocator<char> > >, true>, std::__ndk1::allocator<std::__ndk1::__value_type<std::__ndk1::basic_string<char, std::__ndk1::char_traits<char>, std::__ndk1::allocator<char> >, std::__ndk1::shared_ptr<geode::Hook> > > >::destroy(std::__ndk1::__tree_node<std::__ndk1::__value_type<std::__ndk1::basic_string<char, std::__ndk1::char_traits<char>, std::__ndk1::allocator<char> >, std::__ndk1::shared_ptr<geode::Hook> >, void*>*)
PUBLIC 389c8 0 geode::Hook::create<cocos2d::CCSprite* (*)(char const*)>(void*, cocos2d::CCSprite* (*)(char const*), std::__ndk1::basic_string<char, std::__ndk1::char_traits<char>, std::__ndk1::allocator<char> > const&, tulip::hook::TulipConvention, tulip::hook::HookMetadata const&)
PUBLIC 38afc 0 geode::modifier::AsStaticFunction_create<hook13<(anonymous namespace)::hook13Parent>, cocos2d::CCSprite* (*)(char const*)>::Impl<cocos2d::CCSprite* (*)(char const*)>::function(char const*)
PUBLIC 38b68 0 geode::modifier::AsStaticFunction_createWithSpriteFrameName<hook13<(anonymous namespace)::hook13Parent>, cocos2d::CCSprite* (*)(char const*)>::Impl<cocos2d::CCSprite* (*)(char const*)>::function(char const*)
PUBLIC 38c04 0 geode::modifier::AsStaticFunction_initWithSpriteFrame<hook13<(anonymous namespace)::hook13Parent>, bool (hook13<(anonymous namespace)::hook13Parent>::*)(cocos2d::CCSpriteFrame*)>::Impl<bool (hook13<(anonymous namespace)::hook13Parent>::*)(cocos2d::CCSpriteFrame*)>::function(hook13<(anonymous namespace)::hook13Parent>*, cocos2d::CCSpriteFrame*)
PUBLIC 38c54 0 std::__ndk1::shared_ptr<tulip::hook::CallingConvention>::~shared_ptr[abi:ne180000]()
PUBLIC m 38ca4 0 tulip::hook::HandlerMetadata::~HandlerMetadata()
PUBLIC 38d08 0 assignFallbackObj(cocos2d::CCNode*)
PUBLIC m 38e20 0 cocos2d::CCBool::~CCBool()
PUBLIC m 38e44 0 cocos2d::CCBool::acceptVisitor(cocos2d::CCDataVisitor&)
PUBLIC 38e5c 0 cocos2d::CCObject::update(float)
PUBLIC 38e60 0 std::__ndk1::__tree<std::__ndk1::__value_type<std::__ndk1::basic_string<char, std::__ndk1::char_traits<char>, std::__ndk1::allocator<char> >, std::__ndk1::shared_ptr<geode::Hook> >, std::__ndk1::__map_value_compare<std::__ndk1::basic_string<char, std::__ndk1::char_traits<char>, std::__ndk1::allocator<char> >, std::__ndk1::__value_type<std::__ndk1::basic_string<char, std::__ndk1::char_traits<char>, std::__ndk1::allocator<char> >, std::__ndk1::shared_ptr<geode::Hook> >, std::__ndk1::less<std::__ndk1::basic_string<char, std::__ndk1::char_traits<char>, std::__ndk1::allocator<char> > >, true>, std::__ndk1::allocator<std::__ndk1::__value_type<std::__ndk1::basic_string<char, std::__ndk1::char_traits<char>, std::__ndk1::allocator<char> >, std::__ndk1::shared_ptr<geode::Hook> > > >::__emplace_unique_key_args<std::__ndk1::basic_string<char, std::__ndk1::char_traits<char>, std::__ndk1::allocator<char> >, std::__ndk1::piecewise_construct_t const&, std::__ndk1::tuple<std::__ndk1::basic_string<char, std::__ndk1::char_traits<char>, std::__ndk1::allocator<char> >&&>, std::__ndk1::tuple<> >(std::__ndk1::basic_string<char, std::__ndk1::char_traits<char>, std::__ndk1::allocator<char> > const&, std::__ndk1::piecewise_construct_t const&, std::__ndk1::tuple<std::__ndk1::basic_string<char, std::__ndk1::char_traits<char>, std::__ndk1::allocator<char> >&&>, std::__ndk1::tuple<>)
PUBLIC 38fd8 0 std::__ndk1::__tree_balance_after_insert[abi:ne180000]<std::__ndk1::__tree_node_base<void*>*>(std::__ndk1::__tree_node_base<void*>*, std::__ndk1::__tree_node_base<void*>*)
PUBLIC 39188 0 geode::addresser::Addresser::addressOfVirtual<bool, cocos2d::CCSprite, cocos2d::CCSpriteFrame*>(bool (cocos2d::CCSprite::*)(cocos2d::CCSpriteFrame*))
PUBLIC 39234 0 cocos2d::CCSprite::CCSprite(geode::ZeroConstructorType)
PUBLIC 392b0 0 geode::modifier::ModifyDerive<hook58<(anonymous namespace)::hook58Parent>, cocos2d::CCSpriteFrameCache>::apply()
PUBLIC 39638 0 geode::modifier::ModifyBase<geode::modifier::ModifyDerive<hook58<(anonymous namespace)::hook58Parent>, cocos2d::CCSpriteFrameCache> >::apply()
PUBLIC 3963c 0 geode::modifier::AsStaticFunction_spriteFrameByName<hook58<(anonymous namespace)::hook58Parent>, cocos2d::CCSpriteFrame* (hook58<(anonymous namespace)::hook58Parent>::*)(char const*)>::Impl<cocos2d::CCSpriteFrame* (hook58<(anonymous namespace)::hook58Parent>::*)(char const*)>::function(hook58<(anonymous namespace)::hook58Parent>*, char const*)
PUBLIC 39a4c 0 __divti3
PUBLIC 39aa4 0 __udivmodti4
PUBLIC m 39cf0 0 PackInfo::from(matjson::Value const&)
PUBLIC m 3a510 0 geode::impl::ResultData<void, std::__ndk1::basic_string<char, std::__ndk1::char_traits<char>, std::__ndk1::allocator<char> > >::unwrapErr() &&
PUBLIC m 3a588 0 geode::impl::ResultData<void, std::__ndk1::basic_string<char, std::__ndk1::char_traits<char>, std::__ndk1::allocator<char> > >::unwrap()
PUBLIC m 3a604 0 geode::impl::ResultData<void, std::__ndk1::basic_string<char, std::__ndk1::char_traits<char>, std::__ndk1::allocator<char> > >::~ResultData()
PUBLIC m 3a678 0 Pack::getOriginPath() const
PUBLIC m 3a6a0 0 Pack::getResourcesPath() const
PUBLIC m 3a6cc 0 Pack::getID() const
PUBLIC m 3a8a8 0 Pack::getDisplayName() const
PUBLIC m 3aa84 0 Pack::getInfo() const
PUBLIC m 3aad8 0 Pack::apply()
PUBLIC 3ad78 0 cocos2d::CCTexturePack::~CCTexturePack()
PUBLIC m 3ae04 0 Pack::unapply() const
PUBLIC m 3aeb4 0 Pack::parsePackJson()
PUBLIC 3b464 0 geode::impl::ResultData<PackInfo, std::__ndk1::basic_string<char, std::__ndk1::char_traits<char>, std::__ndk1::allocator<char> > >::~ResultData()
PUBLIC m 3b4d8 0 geode::impl::ResultData<matjson::Value, std::__ndk1::basic_string<char, std::__ndk1::char_traits<char>, std::__ndk1::allocator<char> > >::~ResultData()
PUBLIC m 3b54c 0 Pack::setup()
PUBLIC 3b9a8 0 std::__ndk1::__fs::filesystem::path::operator=[abi:ne180000](std::__ndk1::__fs::filesystem::path const&)
PUBLIC m 3ba34 0 Pack::extract()
PUBLIC m 3c814 0 Pack::findResourcesPath(std::__ndk1::__fs::filesystem::path)
PUBLIC m 3d7e0 0 geode::impl::ResultData<std::__ndk1::basic_string<char, std::__ndk1::char_traits<char>, std::__ndk1::allocator<char> >, std::__ndk1::basic_string<char, std::__ndk1::char_traits<char>, std::__ndk1::allocator<char> > >::~ResultData()
PUBLIC m 3d854 0 geode::impl::ResultData<geode::utils::file::Unzip, std::__ndk1::basic_string<char, std::__ndk1::char_traits<char>, std::__ndk1::allocator<char> > >::~ResultData()
PUBLIC 3d8c8 0 std::__ndk1::__fs::filesystem::directory_iterator::~directory_iterator[abi:ne180000]()
PUBLIC m 3d918 0 Pack::~Pack()
PUBLIC m 3da80 0 Pack::from(std::__ndk1::__fs::filesystem::path const&)
PUBLIC 3dce0 0 std::__ndk1::shared_ptr<Pack>::~shared_ptr[abi:ne180000]()
PUBLIC m 3dd30 0 matjson::Serialize<std::__ndk1::shared_ptr<Pack> >::toJson(std::__ndk1::shared_ptr<Pack> const&)
PUBLIC m 3de48 0 matjson::makeObject(std::initializer_list<std::__ndk1::pair<std::__ndk1::basic_string<char, std::__ndk1::char_traits<char>, std::__ndk1::allocator<char> >, matjson::Value> >)
PUBLIC 3dffc 0 _ZNSt6__ndk14pairINS_12basic_stringIcNS_11char_traitsIcEENS_9allocatorIcEEEEN7matjson5ValueEEC2B8ne180000IRA5_KcNS_4__fs10filesystem4pathETnNS_9enable_ifIXclsr10_CheckArgsE17__enable_implicitIT_T0_EEEiE4typeELi0EEEOSI_OSJ_
PUBLIC m 3e0c0 0 std::__ndk1::pair<std::__ndk1::basic_string<char, std::__ndk1::char_traits<char>, std::__ndk1::allocator<char> >, matjson::Value>::~pair()
PUBLIC m 3e0fc 0 matjson::Serialize<std::__ndk1::shared_ptr<Pack> >::fromJson(matjson::Value const&)
PUBLIC 3e400 0 geode::impl::ResultData<std::__ndk1::shared_ptr<Pack>, std::__ndk1::basic_string<char, std::__ndk1::char_traits<char>, std::__ndk1::allocator<char> > >::~ResultData()
PUBLIC m 3e474 0 geode::impl::ResultData<std::__ndk1::__fs::filesystem::path, std::__ndk1::basic_string<char, std::__ndk1::char_traits<char>, std::__ndk1::allocator<char> > >::~ResultData()
PUBLIC m 3e4e8 0 _ZN5geode15UnwrapExceptionC2IRNSt6__ndk19monostateEQntsr4implE18IsStringStreamableIT_EEENS_4impl5OkTagEOS5_
PUBLIC 3e51c 0 _ZN5geode15UnwrapExceptionC2IRNSt6__ndk112basic_stringIcNS2_11char_traitsIcEENS2_9allocatorIcEEEEQsr4implE18IsStringStreamableIT_EEENS_4impl6ErrTagEOSA_
PUBLIC 3e684 0 std::__ndk1::__variant_detail::__visitation::__base::__dispatcher<(unsigned long)0>::__dispatch[abi:ne180000]<std::__ndk1::__variant_detail::__dtor<std::__ndk1::__variant_detail::__traits<std::__ndk1::monostate, std::__ndk1::basic_string<char, std::__ndk1::char_traits<char>, std::__ndk1::allocator<char> > >, (std::__ndk1::__variant_detail::_Trait)1>::__destroy[abi:ne180000]()::{lambda(auto:1&)#1}, std::__ndk1::__variant_detail::__base<(std::__ndk1::__variant_detail::__traits<std::__ndk1::monostate, std::__ndk1::basic_string<char, std::__ndk1::char_traits<char>, std::__ndk1::allocator<char> > >)1, std::__ndk1::__variant_detail::__traits, std::__ndk1::allocator<char> >&>(std::__ndk1::__variant_detail::__dtor<std::__ndk1::__variant_detail::__traits<std::__ndk1::monostate, std::__ndk1::basic_string<char, std::__ndk1::char_traits<char>, std::__ndk1::allocator<char> > >, (std::__ndk1::__variant_detail::_Trait)1>, std::__ndk1::__variant_detail::__base<(std::__ndk1::__variant_detail::__traits<std::__ndk1::monostate, std::__ndk1::basic_string<char, std::__ndk1::char_traits<char>, std::__ndk1::allocator<char> > >)1, std::__ndk1::__variant_detail::__traits, std::__ndk1::allocator<char> >&)
PUBLIC 3e688 0 std::__ndk1::__variant_detail::__visitation::__base::__dispatcher<(unsigned long)1>::__dispatch[abi:ne180000]<std::__ndk1::__variant_detail::__dtor<std::__ndk1::__variant_detail::__traits<std::__ndk1::monostate, std::__ndk1::basic_string<char, std::__ndk1::char_traits<char>, std::__ndk1::allocator<char> > >, (std::__ndk1::__variant_detail::_Trait)1>::__destroy[abi:ne180000]()::{lambda(auto:1&)#1}, std::__ndk1::__variant_detail::__base<(std::__ndk1::__variant_detail::__traits<std::__ndk1::monostate, std::__ndk1::basic_string<char, std::__ndk1::char_traits<char>, std::__ndk1::allocator<char> > >)1, std::__ndk1::__variant_detail::__traits, std::__ndk1::allocator<char> >&>(std::__ndk1::__variant_detail::__dtor<std::__ndk1::__variant_detail::__traits<std::__ndk1::monostate, std::__ndk1::basic_string<char, std::__ndk1::char_traits<char>, std::__ndk1::allocator<char> > >, (std::__ndk1::__variant_detail::_Trait)1>, std::__ndk1::__variant_detail::__base<(std::__ndk1::__variant_detail::__traits<std::__ndk1::monostate, std::__ndk1::basic_string<char, std::__ndk1::char_traits<char>, std::__ndk1::allocator<char> > >)1, std::__ndk1::__variant_detail::__traits, std::__ndk1::allocator<char> >&)
PUBLIC m 3e69c 0 std::__ndk1::vector<std::__ndk1::basic_string<char, std::__ndk1::char_traits<char>, std::__ndk1::allocator<char> >, std::__ndk1::allocator<std::__ndk1::basic_string<char, std::__ndk1::char_traits<char>, std::__ndk1::allocator<char> > > >::__assign_with_size[abi:ne180000]<std::__ndk1::basic_string<char, std::__ndk1::char_traits<char>, std::__ndk1::allocator<char> > const*, std::__ndk1::basic_string<char, std::__ndk1::char_traits<char>, std::__ndk1::allocator<char> > const>(std::__ndk1::basic_string<char, std::__ndk1::char_traits<char>, std::__ndk1::allocator<char> > const*, std::__ndk1::basic_string<char, std::__ndk1::char_traits<char>, std::__ndk1::allocator<char> > const, long)
PUBLIC 3ea88 0 PackInfo::PackInfo(PackInfo const&)
PUBLIC 3ebb4 0 std::__ndk1::__fs::filesystem::path::operator/=[abi:ne180000](std::__ndk1::__fs::filesystem::path const&)
PUBLIC 3ec9c 0 std::__ndk1::__variant_detail::__visitation::__base::__dispatcher<(unsigned long)0>::__dispatch[abi:ne180000]<std::__ndk1::__variant_detail::__dtor<std::__ndk1::__variant_detail::__traits<PackInfo, std::__ndk1::basic_string<char, std::__ndk1::char_traits<char>, std::__ndk1::allocator<char> > >, (std::__ndk1::__variant_detail::_Trait)1>::__destroy[abi:ne180000]()::{lambda(auto:1&)#1}, std::__ndk1::__variant_detail::__base<(std::__ndk1::__variant_detail::__traits<PackInfo, std::__ndk1::basic_string<char, std::__ndk1::char_traits<char>, std::__ndk1::allocator<char> > >)1, std::__ndk1::__variant_detail::__traits, std::__ndk1::allocator<char> >&>(std::__ndk1::__variant_detail::__dtor<std::__ndk1::__variant_detail::__traits<PackInfo, std::__ndk1::basic_string<char, std::__ndk1::char_traits<char>, std::__ndk1::allocator<char> > >, (std::__ndk1::__variant_detail::_Trait)1>, std::__ndk1::__variant_detail::__base<(std::__ndk1::__variant_detail::__traits<PackInfo, std::__ndk1::basic_string<char, std::__ndk1::char_traits<char>, std::__ndk1::allocator<char> > >)1, std::__ndk1::__variant_detail::__traits, std::__ndk1::allocator<char> >&)
PUBLIC 3ed38 0 std::__ndk1::__variant_detail::__visitation::__base::__dispatcher<(unsigned long)1>::__dispatch[abi:ne180000]<std::__ndk1::__variant_detail::__dtor<std::__ndk1::__variant_detail::__traits<PackInfo, std::__ndk1::basic_string<char, std::__ndk1::char_traits<char>, std::__ndk1::allocator<char> > >, (std::__ndk1::__variant_detail::_Trait)1>::__destroy[abi:ne180000]()::{lambda(auto:1&)#1}, std::__ndk1::__variant_detail::__base<(std::__ndk1::__variant_detail::__traits<PackInfo, std::__ndk1::basic_string<char, std::__ndk1::char_traits<char>, std::__ndk1::allocator<char> > >)1, std::__ndk1::__variant_detail::__traits, std::__ndk1::allocator<char> >&>(std::__ndk1::__variant_detail::__dtor<std::__ndk1::__variant_detail::__traits<PackInfo, std::__ndk1::basic_string<char, std::__ndk1::char_traits<char>, std::__ndk1::allocator<char> > >, (std::__ndk1::__variant_detail::_Trait)1>, std::__ndk1::__variant_detail::__base<(std::__ndk1::__variant_detail::__traits<PackInfo, std::__ndk1::basic_string<char, std::__ndk1::char_traits<char>, std::__ndk1::allocator<char> > >)1, std::__ndk1::__variant_detail::__traits, std::__ndk1::allocator<char> >&)
PUBLIC 3ed4c 0 std::__ndk1::__variant_detail::__visitation::__base::__dispatcher<(unsigned long)0>::__dispatch[abi:ne180000]<std::__ndk1::__variant_detail::__dtor<std::__ndk1::__variant_detail::__traits<matjson::Value, std::__ndk1::basic_string<char, std::__ndk1::char_traits<char>, std::__ndk1::allocator<char> > >, (std::__ndk1::__variant_detail::_Trait)1>::__destroy[abi:ne180000]()::{lambda(auto:1&)#1}, std::__ndk1::__variant_detail::__base<(std::__ndk1::__variant_detail::__traits<matjson::Value, std::__ndk1::basic_string<char, std::__ndk1::char_traits<char>, std::__ndk1::allocator<char> > >)1, matjson, std::__ndk1::allocator<char> >&>(std::__ndk1::__variant_detail::__dtor<std::__ndk1::__variant_detail::__traits<matjson::Value, std::__ndk1::basic_string<char, std::__ndk1::char_traits<char>, std::__ndk1::allocator<char> > >, (std::__ndk1::__variant_detail::_Trait)1>, std::__ndk1::__variant_detail::__base<(std::__ndk1::__variant_detail::__traits<matjson::Value, std::__ndk1::basic_string<char, std::__ndk1::char_traits<char>, std::__ndk1::allocator<char> > >)1, matjson, std::__ndk1::allocator<char> >&)
PUBLIC 3ed54 0 std::__ndk1::__variant_detail::__visitation::__base::__dispatcher<(unsigned long)1>::__dispatch[abi:ne180000]<std::__ndk1::__variant_detail::__dtor<std::__ndk1::__variant_detail::__traits<matjson::Value, std::__ndk1::basic_string<char, std::__ndk1::char_traits<char>, std::__ndk1::allocator<char> > >, (std::__ndk1::__variant_detail::_Trait)1>::__destroy[abi:ne180000]()::{lambda(auto:1&)#1}, std::__ndk1::__variant_detail::__base<(std::__ndk1::__variant_detail::__traits<matjson::Value, std::__ndk1::basic_string<char, std::__ndk1::char_traits<char>, std::__ndk1::allocator<char> > >)1, matjson, std::__ndk1::allocator<char> >&>(std::__ndk1::__variant_detail::__dtor<std::__ndk1::__variant_detail::__traits<matjson::Value, std::__ndk1::basic_string<char, std::__ndk1::char_traits<char>, std::__ndk1::allocator<char> > >, (std::__ndk1::__variant_detail::_Trait)1>, std::__ndk1::__variant_detail::__base<(std::__ndk1::__variant_detail::__traits<matjson::Value, std::__ndk1::basic_string<char, std::__ndk1::char_traits<char>, std::__ndk1::allocator<char> > >)1, matjson, std::__ndk1::allocator<char> >&)
PUBLIC 3ed68 0 std::__ndk1::__variant_detail::__visitation::__base::__dispatcher<(unsigned long)0>::__dispatch[abi:ne180000]<std::__ndk1::__variant_detail::__dtor<std::__ndk1::__variant_detail::__traits<std::__ndk1::basic_string<char, std::__ndk1::char_traits<char>, std::__ndk1::allocator<char> >, std::__ndk1::allocator<char> >, (std::__ndk1::__variant_detail::_Trait)1>::__destroy[abi:ne180000]()::{lambda(auto:1&)#1}, std::__ndk1::__variant_detail::__base<(std::__ndk1::__variant_detail::__traits<std::__ndk1::basic_string<char, std::__ndk1::char_traits<char>, std::__ndk1::allocator<char> >, std::__ndk1::allocator<char> >)1, std::__ndk1::allocator<char>, std::__ndk1::allocator<char> >&>(std::__ndk1::__variant_detail::__dtor<std::__ndk1::__variant_detail::__traits<std::__ndk1::basic_string<char, std::__ndk1::char_traits<char>, std::__ndk1::allocator<char> >, std::__ndk1::allocator<char> >, (std::__ndk1::__variant_detail::_Trait)1>, std::__ndk1::__variant_detail::__base<(std::__ndk1::__variant_detail::__traits<std::__ndk1::basic_string<char, std::__ndk1::char_traits<char>, std::__ndk1::allocator<char> >, std::__ndk1::allocator<char> >)1, std::__ndk1::allocator<char>, std::__ndk1::allocator<char> >&)
PUBLIC 3ed7c 0 std::__ndk1::__variant_detail::__visitation::__base::__dispatcher<(unsigned long)1>::__dispatch[abi:ne180000]<std::__ndk1::__variant_detail::__dtor<std::__ndk1::__variant_detail::__traits<std::__ndk1::basic_string<char, std::__ndk1::char_traits<char>, std::__ndk1::allocator<char> >, std::__ndk1::allocator<char> >, (std::__ndk1::__variant_detail::_Trait)1>::__destroy[abi:ne180000]()::{lambda(auto:1&)#1}, std::__ndk1::__variant_detail::__base<(std::__ndk1::__variant_detail::__traits<std::__ndk1::basic_string<char, std::__ndk1::char_traits<char>, std::__ndk1::allocator<char> >, std::__ndk1::allocator<char> >)1, std::__ndk1::allocator<char>, std::__ndk1::allocator<char> >&>(std::__ndk1::__variant_detail::__dtor<std::__ndk1::__variant_detail::__traits<std::__ndk1::basic_string<char, std::__ndk1::char_traits<char>, std::__ndk1::allocator<char> >, std::__ndk1::allocator<char> >, (std::__ndk1::__variant_detail::_Trait)1>, std::__ndk1::__variant_detail::__base<(std::__ndk1::__variant_detail::__traits<std::__ndk1::basic_string<char, std::__ndk1::char_traits<char>, std::__ndk1::allocator<char> >, std::__ndk1::allocator<char> >)1, std::__ndk1::allocator<char>, std::__ndk1::allocator<char> >&)
PUBLIC 3ed90 0 std::__ndk1::__variant_detail::__visitation::__base::__dispatcher<(unsigned long)0>::__dispatch[abi:ne180000]<std::__ndk1::__variant_detail::__dtor<std::__ndk1::__variant_detail::__traits<geode::utils::file::Unzip, std::__ndk1::basic_string<char, std::__ndk1::char_traits<char>, std::__ndk1::allocator<char> > >, (std::__ndk1::__variant_detail::_Trait)1>::__destroy[abi:ne180000]()::{lambda(auto:1&)#1}, std::__ndk1::__variant_detail::__base<(std::__ndk1::__variant_detail::__traits<geode::utils::file::Unzip, std::__ndk1::basic_string<char, std::__ndk1::char_traits<char>, std::__ndk1::allocator<char> > >)1, geode::utils::file, std::__ndk1::allocator<char> >&>(std::__ndk1::__variant_detail::__dtor<std::__ndk1::__variant_detail::__traits<geode::utils::file::Unzip, std::__ndk1::basic_string<char, std::__ndk1::char_traits<char>, std::__ndk1::allocator<char> > >, (std::__ndk1::__variant_detail::_Trait)1>, std::__ndk1::__variant_detail::__base<(std::__ndk1::__variant_detail::__traits<geode::utils::file::Unzip, std::__ndk1::basic_string<char, std::__ndk1::char_traits<char>, std::__ndk1::allocator<char> > >)1, geode::utils::file, std::__ndk1::allocator<char> >&)
PUBLIC 3ed98 0 std::__ndk1::__variant_detail::__visitation::__base::__dispatcher<(unsigned long)1>::__dispatch[abi:ne180000]<std::__ndk1::__variant_detail::__dtor<std::__ndk1::__variant_detail::__traits<geode::utils::file::Unzip, std::__ndk1::basic_string<char, std::__ndk1::char_traits<char>, std::__ndk1::allocator<char> > >, (std::__ndk1::__variant_detail::_Trait)1>::__destroy[abi:ne180000]()::{lambda(auto:1&)#1}, std::__ndk1::__variant_detail::__base<(std::__ndk1::__variant_detail::__traits<geode::utils::file::Unzip, std::__ndk1::basic_string<char, std::__ndk1::char_traits<char>, std::__ndk1::allocator<char> > >)1, geode::utils::file, std::__ndk1::allocator<char> >&>(std::__ndk1::__variant_detail::__dtor<std::__ndk1::__variant_detail::__traits<geode::utils::file::Unzip, std::__ndk1::basic_string<char, std::__ndk1::char_traits<char>, std::__ndk1::allocator<char> > >, (std::__ndk1::__variant_detail::_Trait)1>, std::__ndk1::__variant_detail::__base<(std::__ndk1::__variant_detail::__traits<geode::utils::file::Unzip, std::__ndk1::basic_string<char, std::__ndk1::char_traits<char>, std::__ndk1::allocator<char> > >)1, geode::utils::file, std::__ndk1::allocator<char> >&)
PUBLIC 3edac 0 std::__ndk1::vector<matjson::Value, std::__ndk1::allocator<matjson::Value> >::~vector[abi:ne180000]()
PUBLIC m 3ee14 0 std::__ndk1::vector<matjson::Value, std::__ndk1::allocator<matjson::Value> >::__emplace_back_slow_path<matjson::Value const&>(matjson::Value const&)
PUBLIC 3efb8 0 std::__ndk1::__split_buffer<matjson::Value, std::__ndk1::allocator<matjson::Value>&>::~__split_buffer()
PUBLIC 3f00c 0 std::__ndk1::vector<matjson::Value, std::__ndk1::allocator<matjson::Value> >::__throw_length_error[abi:ne180000]() const
PUBLIC m 3f020 0 _ZN7matjson5ValueC2ITkNS_12CanSerializeENSt6__ndk14__fs10filesystem4pathEEEOT_
PUBLIC m 3f0ec 0 matjson::Serialize<std::__ndk1::__fs::filesystem::path>::fromJson(matjson::Value const&)
PUBLIC m 3f37c 0 _ZNSt6__ndk112basic_stringIcNS_11char_traitsIcEENS_9allocatorIcEEE6appendB8ne180000IPKcTnNS_9enable_ifIXsr31__has_forward_iterator_categoryIT_EE5valueEiE4typeELi0EEERS5_SA_SA_
PUBLIC 3f680 0 std::__ndk1::__variant_detail::__visitation::__base::__dispatcher<(unsigned long)0>::__dispatch[abi:ne180000]<std::__ndk1::__variant_detail::__dtor<std::__ndk1::__variant_detail::__traits<std::__ndk1::shared_ptr<Pack>, std::__ndk1::basic_string<char, std::__ndk1::char_traits<char>, std::__ndk1::allocator<char> > >, (std::__ndk1::__variant_detail::_Trait)1>::__destroy[abi:ne180000]()::{lambda(auto:1&)#1}, std::__ndk1::__variant_detail::__base<(std::__ndk1::__variant_detail::__traits<std::__ndk1::shared_ptr<Pack>, std::__ndk1::basic_string<char, std::__ndk1::char_traits<char>, std::__ndk1::allocator<char> > >)1, Pack, std::__ndk1::allocator<char> >&>(std::__ndk1::__variant_detail::__dtor<std::__ndk1::__variant_detail::__traits<std::__ndk1::shared_ptr<Pack>, std::__ndk1::basic_string<char, std::__ndk1::char_traits<char>, std::__ndk1::allocator<char> > >, (std::__ndk1::__variant_detail::_Trait)1>, std::__ndk1::__variant_detail::__base<(std::__ndk1::__variant_detail::__traits<std::__ndk1::shared_ptr<Pack>, std::__ndk1::basic_string<char, std::__ndk1::char_traits<char>, std::__ndk1::allocator<char> > >)1, Pack, std::__ndk1::allocator<char> >&)
PUBLIC 3f6d0 0 std::__ndk1::__variant_detail::__visitation::__base::__dispatcher<(unsigned long)1>::__dispatch[abi:ne180000]<std::__ndk1::__variant_detail::__dtor<std::__ndk1::__variant_detail::__traits<std::__ndk1::shared_ptr<Pack>, std::__ndk1::basic_string<char, std::__ndk1::char_traits<char>, std::__ndk1::allocator<char> > >, (std::__ndk1::__variant_detail::_Trait)1>::__destroy[abi:ne180000]()::{lambda(auto:1&)#1}, std::__ndk1::__variant_detail::__base<(std::__ndk1::__variant_detail::__traits<std::__ndk1::shared_ptr<Pack>, std::__ndk1::basic_string<char, std::__ndk1::char_traits<char>, std::__ndk1::allocator<char> > >)1, Pack, std::__ndk1::allocator<char> >&>(std::__ndk1::__variant_detail::__dtor<std::__ndk1::__variant_detail::__traits<std::__ndk1::shared_ptr<Pack>, std::__ndk1::basic_string<char, std::__ndk1::char_traits<char>, std::__ndk1::allocator<char> > >, (std::__ndk1::__variant_detail::_Trait)1>, std::__ndk1::__variant_detail::__base<(std::__ndk1::__variant_detail::__traits<std::__ndk1::shared_ptr<Pack>, std::__ndk1::basic_string<char, std::__ndk1::char_traits<char>, std::__ndk1::allocator<char> > >)1, Pack, std::__ndk1::allocator<char> >&)
PUBLIC 3f6e4 0 std::__ndk1::__variant_detail::__visitation::__base::__dispatcher<(unsigned long)0>::__dispatch[abi:ne180000]<std::__ndk1::__variant_detail::__dtor<std::__ndk1::__variant_detail::__traits<std::__ndk1::__fs::filesystem::path, std::__ndk1::basic_string<char, std::__ndk1::char_traits<char>, std::__ndk1::allocator<char> > >, (std::__ndk1::__variant_detail::_Trait)1>::__destroy[abi:ne180000]()::{lambda(auto:1&)#1}, std::__ndk1::__variant_detail::__base<(std::__ndk1::__variant_detail::__traits<std::__ndk1::__fs::filesystem::path, std::__ndk1::basic_string<char, std::__ndk1::char_traits<char>, std::__ndk1::allocator<char> > >)1, std::__ndk1::__fs::filesystem, std::__ndk1::allocator<char> >&>(std::__ndk1::__variant_detail::__dtor<std::__ndk1::__variant_detail::__traits<std::__ndk1::__fs::filesystem::path, std::__ndk1::basic_string<char, std::__ndk1::char_traits<char>, std::__ndk1::allocator<char> > >, (std::__ndk1::__variant_detail::_Trait)1>, std::__ndk1::__variant_detail::__base<(std::__ndk1::__variant_detail::__traits<std::__ndk1::__fs::filesystem::path, std::__ndk1::basic_string<char, std::__ndk1::char_traits<char>, std::__ndk1::allocator<char> > >)1, std::__ndk1::__fs::filesystem, std::__ndk1::allocator<char> >&)
PUBLIC 3f6f8 0 std::__ndk1::__variant_detail::__visitation::__base::__dispatcher<(unsigned long)1>::__dispatch[abi:ne180000]<std::__ndk1::__variant_detail::__dtor<std::__ndk1::__variant_detail::__traits<std::__ndk1::__fs::filesystem::path, std::__ndk1::basic_string<char, std::__ndk1::char_traits<char>, std::__ndk1::allocator<char> > >, (std::__ndk1::__variant_detail::_Trait)1>::__destroy[abi:ne180000]()::{lambda(auto:1&)#1}, std::__ndk1::__variant_detail::__base<(std::__ndk1::__variant_detail::__traits<std::__ndk1::__fs::filesystem::path, std::__ndk1::basic_string<char, std::__ndk1::char_traits<char>, std::__ndk1::allocator<char> > >)1, std::__ndk1::__fs::filesystem, std::__ndk1::allocator<char> >&>(std::__ndk1::__variant_detail::__dtor<std::__ndk1::__variant_detail::__traits<std::__ndk1::__fs::filesystem::path, std::__ndk1::basic_string<char, std::__ndk1::char_traits<char>, std::__ndk1::allocator<char> > >, (std::__ndk1::__variant_detail::_Trait)1>, std::__ndk1::__variant_detail::__base<(std::__ndk1::__variant_detail::__traits<std::__ndk1::__fs::filesystem::path, std::__ndk1::basic_string<char, std::__ndk1::char_traits<char>, std::__ndk1::allocator<char> > >)1, std::__ndk1::__fs::filesystem, std::__ndk1::allocator<char> >&)
PUBLIC m 3f70c 0 geode::JsonExpectedValue::tryGet<geode::VersionInfo>()
PUBLIC m 3f950 0 geode::impl::ResultData<geode::VersionInfo, std::__ndk1::basic_string<char, std::__ndk1::char_traits<char>, std::__ndk1::allocator<char> > >::~ResultData()
PUBLIC m 3f9c4 0 matjson::Serialize<geode::VersionInfo>::fromJson(matjson::Value const&)
PUBLIC m 3fcb4 0 _ZNO5geode6ResultINS_11VersionInfoENSt6__ndk112basic_stringIcNS2_11char_traitsIcEENS2_9allocatorIcEEEEE6mapErrIZN7matjson9SerializeIS1_E8fromJsonERKNSB_5ValueEEUlOT_E_Qsr3stdE9invocableITL0__T0_EEENS0_IS1_NS2_13invoke_resultISH_JS8_EE4typeEEESI_
PUBLIC m 3fee8 0 _ZN5geode15UnwrapExceptionC2IRNS_11VersionInfoEQntsr4implE18IsStringStreamableIT_EEENS_4impl5OkTagEOS4_
PUBLIC 3ff1c 0 std::__ndk1::__variant_detail::__visitation::__base::__dispatcher<(unsigned long)0>::__dispatch[abi:ne180000]<std::__ndk1::__variant_detail::__dtor<std::__ndk1::__variant_detail::__traits<geode::VersionInfo, std::__ndk1::basic_string<char, std::__ndk1::char_traits<char>, std::__ndk1::allocator<char> > >, (std::__ndk1::__variant_detail::_Trait)1>::__destroy[abi:ne180000]()::{lambda(auto:1&)#1}, std::__ndk1::__variant_detail::__base<(std::__ndk1::__variant_detail::__traits<geode::VersionInfo, std::__ndk1::basic_string<char, std::__ndk1::char_traits<char>, std::__ndk1::allocator<char> > >)1, geode, std::__ndk1::allocator<char> >&>(std::__ndk1::__variant_detail::__dtor<std::__ndk1::__variant_detail::__traits<geode::VersionInfo, std::__ndk1::basic_string<char, std::__ndk1::char_traits<char>, std::__ndk1::allocator<char> > >, (std::__ndk1::__variant_detail::_Trait)1>, std::__ndk1::__variant_detail::__base<(std::__ndk1::__variant_detail::__traits<geode::VersionInfo, std::__ndk1::basic_string<char, std::__ndk1::char_traits<char>, std::__ndk1::allocator<char> > >)1, geode, std::__ndk1::allocator<char> >&)
PUBLIC 3ff20 0 std::__ndk1::__variant_detail::__visitation::__base::__dispatcher<(unsigned long)1>::__dispatch[abi:ne180000]<std::__ndk1::__variant_detail::__dtor<std::__ndk1::__variant_detail::__traits<geode::VersionInfo, std::__ndk1::basic_string<char, std::__ndk1::char_traits<char>, std::__ndk1::allocator<char> > >, (std::__ndk1::__variant_detail::_Trait)1>::__destroy[abi:ne180000]()::{lambda(auto:1&)#1}, std::__ndk1::__variant_detail::__base<(std::__ndk1::__variant_detail::__traits<geode::VersionInfo, std::__ndk1::basic_string<char, std::__ndk1::char_traits<char>, std::__ndk1::allocator<char> > >)1, geode, std::__ndk1::allocator<char> >&>(std::__ndk1::__variant_detail::__dtor<std::__ndk1::__variant_detail::__traits<geode::VersionInfo, std::__ndk1::basic_string<char, std::__ndk1::char_traits<char>, std::__ndk1::allocator<char> > >, (std::__ndk1::__variant_detail::_Trait)1>, std::__ndk1::__variant_detail::__base<(std::__ndk1::__variant_detail::__traits<geode::VersionInfo, std::__ndk1::basic_string<char, std::__ndk1::char_traits<char>, std::__ndk1::allocator<char> > >)1, geode, std::__ndk1::allocator<char> >&)
PUBLIC m 3ff34 0 geode::JsonExpectedValue::tryGet<std::__ndk1::basic_string<char, std::__ndk1::char_traits<char>, std::__ndk1::allocator<char> > >()
PUBLIC m 40194 0 geode::JsonExpectedValue::tryGet<std::__ndk1::vector<std::__ndk1::basic_string<char, std::__ndk1::char_traits<char>, std::__ndk1::allocator<char> >, std::__ndk1::allocator<std::__ndk1::basic_string<char, std::__ndk1::char_traits<char>, std::__ndk1::allocator<char> > > > >()
PUBLIC m 403f4 0 geode::impl::ResultData<std::__ndk1::vector<std::__ndk1::basic_string<char, std::__ndk1::char_traits<char>, std::__ndk1::allocator<char> >, std::__ndk1::allocator<std::__ndk1::basic_string<char, std::__ndk1::char_traits<char>, std::__ndk1::allocator<char> > > >, std::__ndk1::basic_string<char, std::__ndk1::char_traits<char>, std::__ndk1::allocator<char> > >::~ResultData()
PUBLIC m 40468 0 _ZN7matjson9SerializeINSt6__ndk16vectorINS1_12basic_stringIcNS1_11char_traitsIcEENS1_9allocatorIcEEEENS6_IS8_EEEEE8fromJsonERKNS_5ValueEQrQSE__Xcldtfp_2asIT_EEE
PUBLIC m 40880 0 std::__ndk1::vector<std::__ndk1::basic_string<char, std::__ndk1::char_traits<char>, std::__ndk1::allocator<char> >, std::__ndk1::allocator<std::__ndk1::basic_string<char, std::__ndk1::char_traits<char>, std::__ndk1::allocator<char> > > >::__emplace_back_slow_path<std::__ndk1::basic_string<char, std::__ndk1::char_traits<char>, std::__ndk1::allocator<char> > >(std::__ndk1::basic_string<char, std::__ndk1::char_traits<char>, std::__ndk1::allocator<char> >&&)
PUBLIC 409e8 0 std::__ndk1::__variant_detail::__visitation::__base::__dispatcher<(unsigned long)0>::__dispatch[abi:ne180000]<std::__ndk1::__variant_detail::__dtor<std::__ndk1::__variant_detail::__traits<std::__ndk1::vector<std::__ndk1::basic_string<char, std::__ndk1::char_traits<char>, std::__ndk1::allocator<char> >, std::__ndk1::char_traits<char><std::__ndk1::allocator<char> > >, std::__ndk1::allocator<char> >, (std::__ndk1::__variant_detail::_Trait)1>::__destroy[abi:ne180000]()::{lambda(auto:1&)#1}, std::__ndk1::__variant_detail::__base<(std::__ndk1::__variant_detail::__traits<std::__ndk1::vector<std::__ndk1::basic_string<char, std::__ndk1::char_traits<char>, std::__ndk1::allocator<char> >, std::__ndk1::char_traits<char><std::__ndk1::allocator<char> > >, std::__ndk1::allocator<char> >)1, std::__ndk1::char_traits<char><std::__ndk1::allocator<char> >, std::__ndk1::allocator<char> >&>(std::__ndk1::__variant_detail::__dtor<std::__ndk1::__variant_detail::__traits<std::__ndk1::vector<std::__ndk1::basic_string<char, std::__ndk1::char_traits<char>, std::__ndk1::allocator<char> >, std::__ndk1::char_traits<char><std::__ndk1::allocator<char> > >, std::__ndk1::allocator<char> >, (std::__ndk1::__variant_detail::_Trait)1>, std::__ndk1::__variant_detail::__base<(std::__ndk1::__variant_detail::__traits<std::__ndk1::vector<std::__ndk1::basic_string<char, std::__ndk1::char_traits<char>, std::__ndk1::allocator<char> >, std::__ndk1::char_traits<char><std::__ndk1::allocator<char> > >, std::__ndk1::allocator<char> >)1, std::__ndk1::char_traits<char><std::__ndk1::allocator<char> >, std::__ndk1::allocator<char> >&)
PUBLIC 40a64 0 std::__ndk1::__variant_detail::__visitation::__base::__dispatcher<(unsigned long)1>::__dispatch[abi:ne180000]<std::__ndk1::__variant_detail::__dtor<std::__ndk1::__variant_detail::__traits<std::__ndk1::vector<std::__ndk1::basic_string<char, std::__ndk1::char_traits<char>, std::__ndk1::allocator<char> >, std::__ndk1::char_traits<char><std::__ndk1::allocator<char> > >, std::__ndk1::allocator<char> >, (std::__ndk1::__variant_detail::_Trait)1>::__destroy[abi:ne180000]()::{lambda(auto:1&)#1}, std::__ndk1::__variant_detail::__base<(std::__ndk1::__variant_detail::__traits<std::__ndk1::vector<std::__ndk1::basic_string<char, std::__ndk1::char_traits<char>, std::__ndk1::allocator<char> >, std::__ndk1::char_traits<char><std::__ndk1::allocator<char> > >, std::__ndk1::allocator<char> >)1, std::__ndk1::char_traits<char><std::__ndk1::allocator<char> >, std::__ndk1::allocator<char> >&>(std::__ndk1::__variant_detail::__dtor<std::__ndk1::__variant_detail::__traits<std::__ndk1::vector<std::__ndk1::basic_string<char, std::__ndk1::char_traits<char>, std::__ndk1::allocator<char> >, std::__ndk1::char_traits<char><std::__ndk1::allocator<char> > >, std::__ndk1::allocator<char> >, (std::__ndk1::__variant_detail::_Trait)1>, std::__ndk1::__variant_detail::__base<(std::__ndk1::__variant_detail::__traits<std::__ndk1::vector<std::__ndk1::basic_string<char, std::__ndk1::char_traits<char>, std::__ndk1::allocator<char> >, std::__ndk1::char_traits<char><std::__ndk1::allocator<char> > >, std::__ndk1::allocator<char> >)1, std::__ndk1::char_traits<char><std::__ndk1::allocator<char> >, std::__ndk1::allocator<char> >&)
PUBLIC 40a78 0 std::__ndk1::__shared_ptr_emplace<Pack, std::__ndk1::allocator<Pack> >::~__shared_ptr_emplace()
PUBLIC 40a88 0 std::__ndk1::__shared_ptr_emplace<Pack, std::__ndk1::allocator<Pack> >::~__shared_ptr_emplace()
PUBLIC 40ab8 0 std::__ndk1::__shared_ptr_emplace<Pack, std::__ndk1::allocator<Pack> >::__on_zero_shared()
PUBLIC 40ac0 0 std::__ndk1::__shared_ptr_emplace<Pack, std::__ndk1::allocator<Pack> >::__on_zero_shared_weak()
PUBLIC m 40ac4 0 PackInfoPopup::getPathInPack(char const*) const
PUBLIC m 41318 0 PackInfoPopup::setup(std::__ndk1::shared_ptr<Pack>)
PUBLIC 41924 0 WackyBypassFont::create(char const*, std::__ndk1::__fs::filesystem::path const&)
PUBLIC m 41c0c 0 PackInfoPopup::create(std::__ndk1::shared_ptr<Pack> const&)
PUBLIC 42190 0 PackInfoPopup::~PackInfoPopup()
PUBLIC 4226c 0 PackInfoPopup::~PackInfoPopup()
PUBLIC 42350 0 geode::Popup<std::__ndk1::shared_ptr<Pack> >::registerWithTouchDispatcher()
PUBLIC 4237c 0 geode::Popup<std::__ndk1::shared_ptr<Pack> >::keyDown(cocos2d::enumKeyCodes)
PUBLIC 423a4 0 cocos2d::CCLayerRGBA::setOpacityModifyRGB(bool)
PUBLIC 423a8 0 cocos2d::CCLayerRGBA::isOpacityModifyRGB()
PUBLIC 423b0 0 geode::Popup<std::__ndk1::shared_ptr<Pack> >::onClose(cocos2d::CCObject*)
PUBLIC 424f8 0 {virtual override thunk({offset(-320)}, PackInfoPopup::~PackInfoPopup())}
PUBLIC 425e0 0 {virtual override thunk({offset(-320)}, PackInfoPopup::~PackInfoPopup())}
PUBLIC 426d0 0 {virtual override thunk({offset(-344)}, geode::Popup<std::__ndk1::shared_ptr<Pack> >::keyDown(cocos2d::enumKeyCodes))}
PUBLIC 426fc 0 {virtual override thunk({offset(-408)}, cocos2d::CCLayerRGBA::setOpacityModifyRGB(bool))}
PUBLIC 42700 0 {virtual override thunk({offset(-408)}, cocos2d::CCLayerRGBA::isOpacityModifyRGB())}
PUBLIC 42708 0 std::__ndk1::basic_string<char, std::__ndk1::char_traits<char>, std::__ndk1::allocator<char> >::__throw_out_of_range[abi:ne180000]() const
PUBLIC 4271c 0 std::__ndk1::__throw_out_of_range[abi:ne180000](char const*)
PUBLIC 4276c 0 std::out_of_range::out_of_range[abi:ne180000](char const*)
PUBLIC 4279c 0 geode::Popup<std::__ndk1::shared_ptr<Pack> >::~Popup()
PUBLIC 42808 0 geode::Popup<std::__ndk1::shared_ptr<Pack> >::~Popup()
PUBLIC 4280c 0 {virtual override thunk({offset(-320)}, geode::Popup<std::__ndk1::shared_ptr<Pack> >::~Popup())}
PUBLIC 42878 0 {virtual override thunk({offset(-320)}, geode::Popup<std::__ndk1::shared_ptr<Pack> >::~Popup())}
PUBLIC 4287c 0 geode::Popup<std::__ndk1::shared_ptr<Pack> >::CloseEvent::~CloseEvent()
PUBLIC 428dc 0 geode::Popup<std::__ndk1::shared_ptr<Pack> >::CloseEvent::~CloseEvent()
PUBLIC 4294c 0 std::__ndk1::__shared_ptr_emplace<geode::Popup<std::__ndk1::shared_ptr<Pack> >::CloseEvent::Impl, std::__ndk1::allocator<geode::Popup<std::__ndk1::shared_ptr<Pack> >::CloseEvent::Impl> >::~__shared_ptr_emplace()
PUBLIC 4295c 0 std::__ndk1::__shared_ptr_emplace<geode::Popup<std::__ndk1::shared_ptr<Pack> >::CloseEvent::Impl, std::__ndk1::allocator<geode::Popup<std::__ndk1::shared_ptr<Pack> >::CloseEvent::Impl> >::~__shared_ptr_emplace()
PUBLIC 4298c 0 std::__ndk1::__shared_ptr_emplace<geode::Popup<std::__ndk1::shared_ptr<Pack> >::CloseEvent::Impl, std::__ndk1::allocator<geode::Popup<std::__ndk1::shared_ptr<Pack> >::CloseEvent::Impl> >::__on_zero_shared()
PUBLIC 42990 0 std::__ndk1::__shared_ptr_emplace<geode::Popup<std::__ndk1::shared_ptr<Pack> >::CloseEvent::Impl, std::__ndk1::allocator<geode::Popup<std::__ndk1::shared_ptr<Pack> >::CloseEvent::Impl> >::__on_zero_shared_weak()
PUBLIC m 42994 0 PackManager::get()
PUBLIC m 42a20 0 PackManager::getAvailablePacks() const
PUBLIC m 42b1c 0 PackManager::getAppliedPacks() const
PUBLIC m 42c18 0 PackManager::movePackToIdx(std::__ndk1::shared_ptr<Pack> const&, PackListType, unsigned long)
PUBLIC 42d4c 0 _ZN5geode5utils6ranges4moveITkNS1_17ValidMutContainerENSt6__ndk16vectorINS3_10shared_ptrI4PackEENS3_9allocatorIS7_EEEEEEbRT_RKNSB_10value_typeEm
PUBLIC 43008 0 _ZN5geode5utils6ranges6removeITkNS1_17ValidMutContainerENSt6__ndk16vectorINS3_10shared_ptrI4PackEENS3_9allocatorIS7_EEEEEERT_SC_RKNSB_10value_typeE
PUBLIC 431dc 0 std::__ndk1::vector<std::__ndk1::shared_ptr<Pack>, std::__ndk1::allocator<std::__ndk1::shared_ptr<Pack> > >::insert(std::__ndk1::__wrap_iter<std::__ndk1::shared_ptr<Pack> const*>, std::__ndk1::shared_ptr<Pack> const&)
PUBLIC m 435c4 0 PackManager::savePacks()
PUBLIC m 4401c 0 PackManager::getPackDir()
PUBLIC m 4417c 0 PackManager::loadPacks()
PUBLIC m 45384 0 PackManager::updateAppliedPacks()
PUBLIC m 454a8 0 PackManager::applyPacks(std::__ndk1::function<cocos2d::CCLayer* ()>)
PUBLIC 455cc 0 geodeExecFunction127<(anonymous namespace)::ExecFuncUnique127>(geode::ModStateEvent*)
PUBLIC 456c0 0 geodeExecFunction132<(anonymous namespace)::ExecFuncUnique132>(geode::ModStateEvent*)
PUBLIC 457b4 0 std::__ndk1::__exception_guard_exceptions<std::__ndk1::vector<std::__ndk1::shared_ptr<Pack>, std::__ndk1::allocator<std::__ndk1::shared_ptr<Pack> > >::__destroy_vector>::~__exception_guard_exceptions[abi:ne180000]()
PUBLIC 4587c 0 std::__ndk1::vector<std::__ndk1::shared_ptr<Pack>, std::__ndk1::allocator<std::__ndk1::shared_ptr<Pack> > >::__throw_length_error[abi:ne180000]() const
PUBLIC 45890 0 std::__ndk1::__split_buffer<std::__ndk1::shared_ptr<Pack>, std::__ndk1::allocator<std::__ndk1::shared_ptr<Pack> >&>::~__split_buffer()
PUBLIC 4591c 0 std::__ndk1::vector<std::__ndk1::shared_ptr<Pack>, std::__ndk1::allocator<std::__ndk1::shared_ptr<Pack> > >::__push_back_slow_path<std::__ndk1::shared_ptr<Pack> const&>(std::__ndk1::shared_ptr<Pack> const&)
PUBLIC 45a70 0 _ZN5geode15UnwrapExceptionC2IRNSt6__ndk110shared_ptrI4PackEEQsr4implE18IsStringStreamableIT_EEENS_4impl5OkTagEOS7_
PUBLIC 45bc4 0 std::__ndk1::vector<std::__ndk1::shared_ptr<Pack>, std::__ndk1::allocator<std::__ndk1::shared_ptr<Pack> > >::__assign_with_size[abi:ne180000]<std::__ndk1::shared_ptr<Pack>*, std::__ndk1::vector<std::__ndk1::shared_ptr<Pack>, std::__ndk1::allocator<std::__ndk1::shared_ptr<Pack> > >::__assign_with_size[abi:ne180000]>(std::__ndk1::shared_ptr<Pack>*, std::__ndk1::vector<std::__ndk1::shared_ptr<Pack>, std::__ndk1::allocator<std::__ndk1::shared_ptr<Pack> > >::__assign_with_size[abi:ne180000], long)
PUBLIC m 45ee8 0 geode::impl::ResultData<matjson::Value&, std::__ndk1::basic_string<char, std::__ndk1::char_traits<char>, std::__ndk1::allocator<char> > >::~ResultData()
PUBLIC 45f5c 0 geode::impl::ResultData<std::__ndk1::vector<std::__ndk1::shared_ptr<Pack>, std::__ndk1::allocator<std::__ndk1::shared_ptr<Pack> > >, std::__ndk1::basic_string<char, std::__ndk1::char_traits<char>, std::__ndk1::allocator<char> > >::~ResultData()
PUBLIC 45fd0 0 std::__ndk1::__variant_detail::__visitation::__base::__dispatcher<(unsigned long)0>::__dispatch[abi:ne180000]<std::__ndk1::__variant_detail::__dtor<std::__ndk1::__variant_detail::__traits<std::__ndk1::reference_wrapper<matjson::Value>, std::__ndk1::basic_string<char, std::__ndk1::char_traits<char>, std::__ndk1::allocator<char> > >, (std::__ndk1::__variant_detail::_Trait)1>::__destroy[abi:ne180000]()::{lambda(auto:1&)#1}, std::__ndk1::__variant_detail::__base<(std::__ndk1::__variant_detail::__traits<std::__ndk1::reference_wrapper<matjson::Value>, std::__ndk1::basic_string<char, std::__ndk1::char_traits<char>, std::__ndk1::allocator<char> > >)1, matjson::Value, std::__ndk1::allocator<char> >&>(std::__ndk1::__variant_detail::__dtor<std::__ndk1::__variant_detail::__traits<std::__ndk1::reference_wrapper<matjson::Value>, std::__ndk1::basic_string<char, std::__ndk1::char_traits<char>, std::__ndk1::allocator<char> > >, (std::__ndk1::__variant_detail::_Trait)1>, std::__ndk1::__variant_detail::__base<(std::__ndk1::__variant_detail::__traits<std::__ndk1::reference_wrapper<matjson::Value>, std::__ndk1::basic_string<char, std::__ndk1::char_traits<char>, std::__ndk1::allocator<char> > >)1, matjson::Value, std::__ndk1::allocator<char> >&)
PUBLIC 45fd4 0 std::__ndk1::__variant_detail::__visitation::__base::__dispatcher<(unsigned long)1>::__dispatch[abi:ne180000]<std::__ndk1::__variant_detail::__dtor<std::__ndk1::__variant_detail::__traits<std::__ndk1::reference_wrapper<matjson::Value>, std::__ndk1::basic_string<char, std::__ndk1::char_traits<char>, std::__ndk1::allocator<char> > >, (std::__ndk1::__variant_detail::_Trait)1>::__destroy[abi:ne180000]()::{lambda(auto:1&)#1}, std::__ndk1::__variant_detail::__base<(std::__ndk1::__variant_detail::__traits<std::__ndk1::reference_wrapper<matjson::Value>, std::__ndk1::basic_string<char, std::__ndk1::char_traits<char>, std::__ndk1::allocator<char> > >)1, matjson::Value, std::__ndk1::allocator<char> >&>(std::__ndk1::__variant_detail::__dtor<std::__ndk1::__variant_detail::__traits<std::__ndk1::reference_wrapper<matjson::Value>, std::__ndk1::basic_string<char, std::__ndk1::char_traits<char>, std::__ndk1::allocator<char> > >, (std::__ndk1::__variant_detail::_Trait)1>, std::__ndk1::__variant_detail::__base<(std::__ndk1::__variant_detail::__traits<std::__ndk1::reference_wrapper<matjson::Value>, std::__ndk1::basic_string<char, std::__ndk1::char_traits<char>, std::__ndk1::allocator<char> > >)1, matjson::Value, std::__ndk1::allocator<char> >&)
PUBLIC 45fe8 0 std::__ndk1::__variant_detail::__visitation::__base::__dispatcher<(unsigned long)0>::__dispatch[abi:ne180000]<std::__ndk1::__variant_detail::__dtor<std::__ndk1::__variant_detail::__traits<std::__ndk1::vector<std::__ndk1::shared_ptr<Pack>, std::__ndk1::allocator<Pack> >, std::__ndk1::basic_string<char, std::__ndk1::char_traits<char>, std::__ndk1::shared_ptr<Pack><char> > >, (std::__ndk1::__variant_detail::_Trait)1>::__destroy[abi:ne180000]()::{lambda(auto:1&)#1}, std::__ndk1::__variant_detail::__base<(std::__ndk1::__variant_detail::__traits<std::__ndk1::vector<std::__ndk1::shared_ptr<Pack>, std::__ndk1::allocator<Pack> >, std::__ndk1::basic_string<char, std::__ndk1::char_traits<char>, std::__ndk1::shared_ptr<Pack><char> > >)1, std::__ndk1::allocator<Pack>, std::__ndk1::shared_ptr<Pack><char> >&>(std::__ndk1::__variant_detail::__dtor<std::__ndk1::__variant_detail::__traits<std::__ndk1::vector<std::__ndk1::shared_ptr<Pack>, std::__ndk1::allocator<Pack> >, std::__ndk1::basic_string<char, std::__ndk1::char_traits<char>, std::__ndk1::shared_ptr<Pack><char> > >, (std::__ndk1::__variant_detail::_Trait)1>, std::__ndk1::__variant_detail::__base<(std::__ndk1::__variant_detail::__traits<std::__ndk1::vector<std::__ndk1::shared_ptr<Pack>, std::__ndk1::allocator<Pack> >, std::__ndk1::basic_string<char, std::__ndk1::char_traits<char>, std::__ndk1::shared_ptr<Pack><char> > >)1, std::__ndk1::allocator<Pack>, std::__ndk1::shared_ptr<Pack><char> >&)
PUBLIC 46090 0 std::__ndk1::__variant_detail::__visitation::__base::__dispatcher<(unsigned long)1>::__dispatch[abi:ne180000]<std::__ndk1::__variant_detail::__dtor<std::__ndk1::__variant_detail::__traits<std::__ndk1::vector<std::__ndk1::shared_ptr<Pack>, std::__ndk1::allocator<Pack> >, std::__ndk1::basic_string<char, std::__ndk1::char_traits<char>, std::__ndk1::shared_ptr<Pack><char> > >, (std::__ndk1::__variant_detail::_Trait)1>::__destroy[abi:ne180000]()::{lambda(auto:1&)#1}, std::__ndk1::__variant_detail::__base<(std::__ndk1::__variant_detail::__traits<std::__ndk1::vector<std::__ndk1::shared_ptr<Pack>, std::__ndk1::allocator<Pack> >, std::__ndk1::basic_string<char, std::__ndk1::char_traits<char>, std::__ndk1::shared_ptr<Pack><char> > >)1, std::__ndk1::allocator<Pack>, std::__ndk1::shared_ptr<Pack><char> >&>(std::__ndk1::__variant_detail::__dtor<std::__ndk1::__variant_detail::__traits<std::__ndk1::vector<std::__ndk1::shared_ptr<Pack>, std::__ndk1::allocator<Pack> >, std::__ndk1::basic_string<char, std::__ndk1::char_traits<char>, std::__ndk1::shared_ptr<Pack><char> > >, (std::__ndk1::__variant_detail::_Trait)1>, std::__ndk1::__variant_detail::__base<(std::__ndk1::__variant_detail::__traits<std::__ndk1::vector<std::__ndk1::shared_ptr<Pack>, std::__ndk1::allocator<Pack> >, std::__ndk1::basic_string<char, std::__ndk1::char_traits<char>, std::__ndk1::shared_ptr<Pack><char> > >)1, std::__ndk1::allocator<Pack>, std::__ndk1::shared_ptr<Pack><char> >&)
PUBLIC 460a4 0 std::__ndk1::vector<matjson::Value, std::__ndk1::allocator<matjson::Value> >::reserve(unsigned long)
PUBLIC m 46184 0 std::__ndk1::vector<matjson::Value, std::__ndk1::allocator<matjson::Value> >::__push_back_slow_path<matjson::Value>(matjson::Value&&)
PUBLIC m 462a0 0 fmt::v11::detail::value<fmt::v11::context>::format_custom_arg<std::__ndk1::__fs::filesystem::directory_entry, fmt::v11::formatter<std::__ndk1::__fs::filesystem::directory_entry, char, void> >(void*, fmt::v11::basic_format_parse_context<char>&, fmt::v11::context&)
PUBLIC m 46490 0 fmt::v11::detail::parse_format_specs<char>(char const*, char const*, fmt::v11::detail::dynamic_format_specs<char>&, fmt::v11::basic_format_parse_context<char>&, fmt::v11::detail::type)
PUBLIC m 46944 0 fmt::v11::detail::parse_dynamic_spec<char>(char const*, char const*, int&, fmt::v11::detail::arg_ref<char>&, fmt::v11::basic_format_parse_context<char>&)
PUBLIC m 46ae8 0 fmt::v11::detail::do_parse_arg_id<char, fmt::v11::detail::dynamic_spec_id_handler<char>&>(char const*, char const*, fmt::v11::detail::dynamic_spec_id_handler<char>&)
PUBLIC m 46c7c 0 fmt::v11::detail::handle_dynamic_spec<fmt::v11::detail::width_checker, fmt::v11::context>(int&, fmt::v11::detail::arg_ref<fmt::v11::context::char_type>, fmt::v11::context&)
PUBLIC m 46d90 0 fmt::v11::detail::handle_dynamic_spec<fmt::v11::detail::precision_checker, fmt::v11::context>(int&, fmt::v11::detail::arg_ref<fmt::v11::context::char_type>, fmt::v11::context&)
PUBLIC m 46ea4 0 fmt::v11::detail::write<char, fmt::v11::basic_appender<char> >(fmt::v11::basic_appender<char>, fmt::v11::basic_string_view<char>, fmt::v11::format_specs const&)
PUBLIC m 47120 0 fmt::v11::detail::write_escaped_string<char, fmt::v11::detail::counting_iterator>(fmt::v11::detail::counting_iterator, fmt::v11::basic_string_view<char>)
PUBLIC m 47640 0 fmt::v11::detail::write_padded<char, (fmt::v11::align::type)1, fmt::v11::basic_appender<char>, fmt::v11::detail::write<char, fmt::v11::basic_appender<char> >(fmt::v11::basic_appender<char>, fmt::v11::basic_string_view<char>, fmt::v11::format_specs const&)::{lambda(fmt::v11::basic_appender<char>)#1}>(fmt::v11::basic_appender<char>, fmt::v11::format_specs const&, unsigned long, unsigned long, fmt::v11::detail::write<char, fmt::v11::basic_appender<char> >(fmt::v11::basic_appender<char>, fmt::v11::basic_string_view<char>, fmt::v11::format_specs const&)::{lambda(fmt::v11::basic_appender<char>&&)#1})
PUBLIC m 4784c 0 fmt::v11::detail::for_each_codepoint<fmt::v11::detail::code_point_index(fmt::v11::basic_string_view<char>, unsigned long)::{lambda(unsigned int, fmt::v11::basic_string_view<char>)#1}>(fmt::v11::basic_string_view<char>, fmt::v11::detail::code_point_index(fmt::v11::basic_string_view<char>, unsigned long)::{lambda(unsigned int, fmt::v11::basic_string_view<char>)#1})
PUBLIC m 47c74 0 fmt::v11::detail::write_escaped_cp<fmt::v11::detail::counting_iterator, char>(fmt::v11::detail::counting_iterator, fmt::v11::detail::find_escape_result<char> const&)
PUBLIC m 47e08 0 fmt::v11::detail::for_each_codepoint<fmt::v11::detail::compute_width(fmt::v11::basic_string_view<char>)::count_code_points>(fmt::v11::basic_string_view<char>, fmt::v11::detail::compute_width(fmt::v11::basic_string_view<char>)::count_code_points)::{lambda(char const*, char const*)#1}::operator()(char const*, char const*) const
PUBLIC m 47fc0 0 fmt::v11::detail::fill<char, fmt::v11::basic_appender<char> >(fmt::v11::basic_appender<char>, unsigned long, fmt::v11::detail::fill_t const&)
PUBLIC m 48190 0 fmt::v11::detail::write_escaped_string<char, fmt::v11::basic_appender<char> >(fmt::v11::basic_appender<char>, fmt::v11::basic_string_view<char>)
PUBLIC m 4880c 0 fmt::v11::detail::write_escaped_cp<fmt::v11::basic_appender<char>, char>(fmt::v11::basic_appender<char>, fmt::v11::detail::find_escape_result<char> const&)
PUBLIC m 489f0 0 fmt::v11::detail::write_codepoint<(unsigned long)2, char, fmt::v11::basic_appender<char> >(fmt::v11::basic_appender<char>, char, unsigned int)
PUBLIC m 48b68 0 fmt::v11::detail::write_codepoint<(unsigned long)4, char, fmt::v11::basic_appender<char> >(fmt::v11::basic_appender<char>, char, unsigned int)
PUBLIC m 48ce0 0 fmt::v11::detail::write_codepoint<(unsigned long)8, char, fmt::v11::basic_appender<char> >(fmt::v11::basic_appender<char>, char, unsigned int)
PUBLIC m 48e58 0 fmt::v11::detail::get_dynamic_spec<fmt::v11::detail::width_checker, fmt::v11::basic_format_arg<fmt::v11::context> >(fmt::v11::basic_format_arg<fmt::v11::context>)
PUBLIC m 48eec 0 fmt::v11::basic_format_args<fmt::v11::context>::get<char>(fmt::v11::basic_string_view<char>) const
PUBLIC m 49044 0 fmt::v11::detail::get_dynamic_spec<fmt::v11::detail::precision_checker, fmt::v11::basic_format_arg<fmt::v11::context> >(fmt::v11::basic_format_arg<fmt::v11::context>)
PUBLIC 490d8 0 geode::impl::ResultData<std::__ndk1::vector<matjson::Value, std::__ndk1::allocator<matjson::Value> >, std::__ndk1::basic_string<char, std::__ndk1::char_traits<char>, std::__ndk1::allocator<char> > >::~ResultData()
PUBLIC m 4914c 0 std::__ndk1::vector<matjson::Value, std::__ndk1::allocator<matjson::Value> >::__emplace_back_slow_path<matjson::Value>(matjson::Value&&)
PUBLIC m 49268 0 std::__ndk1::vector<matjson::Value, std::__ndk1::allocator<matjson::Value> >::__init_with_size[abi:ne180000]<matjson::Value*, std::__ndk1::vector<matjson::Value, std::__ndk1::allocator<matjson::Value> >::__init_with_size[abi:ne180000]>(matjson::Value*, std::__ndk1::vector<matjson::Value, std::__ndk1::allocator<matjson::Value> >::__init_with_size[abi:ne180000], unsigned long)
PUBLIC 49384 0 std::__ndk1::__exception_guard_exceptions<std::__ndk1::vector<matjson::Value, std::__ndk1::allocator<matjson::Value> >::__destroy_vector>::~__exception_guard_exceptions[abi:ne180000]()
PUBLIC 49400 0 std::__ndk1::__variant_detail::__visitation::__base::__dispatcher<(unsigned long)0>::__dispatch[abi:ne180000]<std::__ndk1::__variant_detail::__dtor<std::__ndk1::__variant_detail::__traits<std::__ndk1::vector<matjson::Value, std::__ndk1::allocator<matjson> >, std::__ndk1::basic_string<char, std::__ndk1::char_traits<char>, matjson::Value<char> > >, (std::__ndk1::__variant_detail::_Trait)1>::__destroy[abi:ne180000]()::{lambda(auto:1&)#1}, std::__ndk1::__variant_detail::__base<(std::__ndk1::__variant_detail::__traits<std::__ndk1::vector<matjson::Value, std::__ndk1::allocator<matjson> >, std::__ndk1::basic_string<char, std::__ndk1::char_traits<char>, matjson::Value<char> > >)1, std::__ndk1::allocator<matjson>, matjson::Value<char> >&>(std::__ndk1::__variant_detail::__dtor<std::__ndk1::__variant_detail::__traits<std::__ndk1::vector<matjson::Value, std::__ndk1::allocator<matjson> >, std::__ndk1::basic_string<char, std::__ndk1::char_traits<char>, matjson::Value<char> > >, (std::__ndk1::__variant_detail::_Trait)1>, std::__ndk1::__variant_detail::__base<(std::__ndk1::__variant_detail::__traits<std::__ndk1::vector<matjson::Value, std::__ndk1::allocator<matjson> >, std::__ndk1::basic_string<char, std::__ndk1::char_traits<char>, matjson::Value<char> > >)1, std::__ndk1::allocator<matjson>, matjson::Value<char> >&)
PUBLIC 49468 0 std::__ndk1::__variant_detail::__visitation::__base::__dispatcher<(unsigned long)1>::__dispatch[abi:ne180000]<std::__ndk1::__variant_detail::__dtor<std::__ndk1::__variant_detail::__traits<std::__ndk1::vector<matjson::Value, std::__ndk1::allocator<matjson> >, std::__ndk1::basic_string<char, std::__ndk1::char_traits<char>, matjson::Value<char> > >, (std::__ndk1::__variant_detail::_Trait)1>::__destroy[abi:ne180000]()::{lambda(auto:1&)#1}, std::__ndk1::__variant_detail::__base<(std::__ndk1::__variant_detail::__traits<std::__ndk1::vector<matjson::Value, std::__ndk1::allocator<matjson> >, std::__ndk1::basic_string<char, std::__ndk1::char_traits<char>, matjson::Value<char> > >)1, std::__ndk1::allocator<matjson>, matjson::Value<char> >&>(std::__ndk1::__variant_detail::__dtor<std::__ndk1::__variant_detail::__traits<std::__ndk1::vector<matjson::Value, std::__ndk1::allocator<matjson> >, std::__ndk1::basic_string<char, std::__ndk1::char_traits<char>, matjson::Value<char> > >, (std::__ndk1::__variant_detail::_Trait)1>, std::__ndk1::__variant_detail::__base<(std::__ndk1::__variant_detail::__traits<std::__ndk1::vector<matjson::Value, std::__ndk1::allocator<matjson> >, std::__ndk1::basic_string<char, std::__ndk1::char_traits<char>, matjson::Value<char> > >)1, std::__ndk1::allocator<matjson>, matjson::Value<char> >&)
PUBLIC m 4947c 0 geode::EventListener<geode::ModStateFilter>::getPool() const
PUBLIC m 49480 0 geode::EventListener<geode::ModStateFilter>::handle(geode::Event*)
PUBLIC m 495f4 0 geode::EventListener<geode::ModStateFilter>::~EventListener()
PUBLIC m 49654 0 geode::EventListener<geode::ModStateFilter>::~EventListener()
PUBLIC 496bc 0 std::__ndk1::__function::__base<void (geode::ModStateEvent*)>::~__base()
PUBLIC m 496c0 0 std::__ndk1::__function::__func<void (*)(geode::ModStateEvent*), std::__ndk1::allocator<void (*)(geode::ModStateEvent*)>, void (geode::ModStateEvent*)>::~__func()
PUBLIC 496c4 0 std::__ndk1::__function::__func<void (*)(geode::ModStateEvent*), std::__ndk1::allocator<void (*)(geode::ModStateEvent*)>, void (geode::ModStateEvent*)>::__clone() const
PUBLIC 496fc 0 std::__ndk1::__function::__func<void (*)(geode::ModStateEvent*), std::__ndk1::allocator<void (*)(geode::ModStateEvent*)>, void (geode::ModStateEvent*)>::__clone(std::__ndk1::__function::__base<void (geode::ModStateEvent*)>*) const
PUBLIC 49714 0 std::__ndk1::__function::__func<void (*)(geode::ModStateEvent*), std::__ndk1::allocator<void (*)(geode::ModStateEvent*)>, void (geode::ModStateEvent*)>::destroy()
PUBLIC 49718 0 std::__ndk1::__function::__func<void (*)(geode::ModStateEvent*), std::__ndk1::allocator<void (*)(geode::ModStateEvent*)>, void (geode::ModStateEvent*)>::destroy_deallocate()
PUBLIC 4971c 0 std::__ndk1::__function::__func<void (*)(geode::ModStateEvent*), std::__ndk1::allocator<void (*)(geode::ModStateEvent*)>, void (geode::ModStateEvent*)>::operator()(geode::ModStateEvent*&&)
PUBLIC 4972c 0 std::__ndk1::__function::__func<void (*)(geode::ModStateEvent*), std::__ndk1::allocator<void (*)(geode::ModStateEvent*)>, void (geode::ModStateEvent*)>::target(std::type_info const&) const
PUBLIC 49748 0 std::__ndk1::__function::__func<void (*)(geode::ModStateEvent*), std::__ndk1::allocator<void (*)(geode::ModStateEvent*)>, void (geode::ModStateEvent*)>::target_type() const
PUBLIC 49754 0 _GLOBAL__sub_I_PackManager.cpp
PUBLIC m 49918 0 PackNode::init(PackSelectLayer*, std::__ndk1::shared_ptr<Pack> const&, float)
PUBLIC m 4a210 0 PackNode::onView(cocos2d::CCObject*)
PUBLIC m 4a230 0 PackNode::create(PackSelectLayer*, std::__ndk1::shared_ptr<Pack> const&, float)
PUBLIC 4a2e8 0 PackNode::~PackNode()
PUBLIC 4a354 0 PackNode::~PackNode()
PUBLIC 4a3d0 0 std::__ndk1::__function::__func<PackNode::init(PackSelectLayer*, std::__ndk1::shared_ptr<Pack> const&, float)::$_0, std::__ndk1::allocator<PackNode::init(PackSelectLayer*, std::__ndk1::shared_ptr<Pack> const&, float)::$_0>, void ()>::~__func()
PUBLIC 4a3d4 0 std::__ndk1::__function::__func<PackNode::init(PackSelectLayer*, std::__ndk1::shared_ptr<Pack> const&, float)::$_0, std::__ndk1::allocator<PackNode::init(PackSelectLayer*, std::__ndk1::shared_ptr<Pack> const&, float)::$_0>, void ()>::__clone() const
PUBLIC 4a408 0 std::__ndk1::__function::__func<PackNode::init(PackSelectLayer*, std::__ndk1::shared_ptr<Pack> const&, float)::$_0, std::__ndk1::allocator<PackNode::init(PackSelectLayer*, std::__ndk1::shared_ptr<Pack> const&, float)::$_0>, void ()>::__clone(std::__ndk1::__function::__base<void ()>*) const
PUBLIC 4a41c 0 std::__ndk1::__function::__func<PackNode::init(PackSelectLayer*, std::__ndk1::shared_ptr<Pack> const&, float)::$_0, std::__ndk1::allocator<PackNode::init(PackSelectLayer*, std::__ndk1::shared_ptr<Pack> const&, float)::$_0>, void ()>::destroy()
PUBLIC 4a420 0 std::__ndk1::__function::__func<PackNode::init(PackSelectLayer*, std::__ndk1::shared_ptr<Pack> const&, float)::$_0, std::__ndk1::allocator<PackNode::init(PackSelectLayer*, std::__ndk1::shared_ptr<Pack> const&, float)::$_0>, void ()>::destroy_deallocate()
PUBLIC 4a424 0 std::__ndk1::__function::__func<PackNode::init(PackSelectLayer*, std::__ndk1::shared_ptr<Pack> const&, float)::$_0, std::__ndk1::allocator<PackNode::init(PackSelectLayer*, std::__ndk1::shared_ptr<Pack> const&, float)::$_0>, void ()>::operator()()
PUBLIC 4a45c 0 std::__ndk1::__function::__func<PackNode::init(PackSelectLayer*, std::__ndk1::shared_ptr<Pack> const&, float)::$_0, std::__ndk1::allocator<PackNode::init(PackSelectLayer*, std::__ndk1::shared_ptr<Pack> const&, float)::$_0>, void ()>::target(std::type_info const&) const
PUBLIC 4a478 0 std::__ndk1::__function::__func<PackNode::init(PackSelectLayer*, std::__ndk1::shared_ptr<Pack> const&, float)::$_0, std::__ndk1::allocator<PackNode::init(PackSelectLayer*, std::__ndk1::shared_ptr<Pack> const&, float)::$_0>, void ()>::target_type() const
PUBLIC 4a484 0 std::__ndk1::__function::__base<void (cocos2d::CCPoint)>::~__base()
PUBLIC 4a488 0 std::__ndk1::__function::__func<PackNode::init(PackSelectLayer*, std::__ndk1::shared_ptr<Pack> const&, float)::$_1, std::__ndk1::allocator<PackNode::init(PackSelectLayer*, std::__ndk1::shared_ptr<Pack> const&, float)::$_1>, void (cocos2d::CCPoint)>::~__func()
PUBLIC 4a48c 0 std::__ndk1::__function::__func<PackNode::init(PackSelectLayer*, std::__ndk1::shared_ptr<Pack> const&, float)::$_1, std::__ndk1::allocator<PackNode::init(PackSelectLayer*, std::__ndk1::shared_ptr<Pack> const&, float)::$_1>, void (cocos2d::CCPoint)>::__clone() const
PUBLIC 4a4c0 0 std::__ndk1::__function::__func<PackNode::init(PackSelectLayer*, std::__ndk1::shared_ptr<Pack> const&, float)::$_1, std::__ndk1::allocator<PackNode::init(PackSelectLayer*, std::__ndk1::shared_ptr<Pack> const&, float)::$_1>, void (cocos2d::CCPoint)>::__clone(std::__ndk1::__function::__base<void (cocos2d::CCPoint)>*) const
PUBLIC 4a4d4 0 std::__ndk1::__function::__func<PackNode::init(PackSelectLayer*, std::__ndk1::shared_ptr<Pack> const&, float)::$_1, std::__ndk1::allocator<PackNode::init(PackSelectLayer*, std::__ndk1::shared_ptr<Pack> const&, float)::$_1>, void (cocos2d::CCPoint)>::destroy()
PUBLIC 4a4d8 0 std::__ndk1::__function::__func<PackNode::init(PackSelectLayer*, std::__ndk1::shared_ptr<Pack> const&, float)::$_1, std::__ndk1::allocator<PackNode::init(PackSelectLayer*, std::__ndk1::shared_ptr<Pack> const&, float)::$_1>, void (cocos2d::CCPoint)>::destroy_deallocate()
PUBLIC 4a4dc 0 std::__ndk1::__function::__func<PackNode::init(PackSelectLayer*, std::__ndk1::shared_ptr<Pack> const&, float)::$_1, std::__ndk1::allocator<PackNode::init(PackSelectLayer*, std::__ndk1::shared_ptr<Pack> const&, float)::$_1>, void (cocos2d::CCPoint)>::operator()(cocos2d::CCPoint&&)
PUBLIC 4a570 0 std::__ndk1::__function::__func<PackNode::init(PackSelectLayer*, std::__ndk1::shared_ptr<Pack> const&, float)::$_1, std::__ndk1::allocator<PackNode::init(PackSelectLayer*, std::__ndk1::shared_ptr<Pack> const&, float)::$_1>, void (cocos2d::CCPoint)>::target(std::type_info const&) const
PUBLIC 4a58c 0 std::__ndk1::__function::__func<PackNode::init(PackSelectLayer*, std::__ndk1::shared_ptr<Pack> const&, float)::$_1, std::__ndk1::allocator<PackNode::init(PackSelectLayer*, std::__ndk1::shared_ptr<Pack> const&, float)::$_1>, void (cocos2d::CCPoint)>::target_type() const
PUBLIC 4a598 0 std::__ndk1::__function::__base<void ()>::~__base()
PUBLIC 4a59c 0 std::__ndk1::__function::__func<PackNode::init(PackSelectLayer*, std::__ndk1::shared_ptr<Pack> const&, float)::$_2, std::__ndk1::allocator<PackNode::init(PackSelectLayer*, std::__ndk1::shared_ptr<Pack> const&, float)::$_2>, void ()>::~__func()
PUBLIC 4a5a0 0 std::__ndk1::__function::__func<PackNode::init(PackSelectLayer*, std::__ndk1::shared_ptr<Pack> const&, float)::$_2, std::__ndk1::allocator<PackNode::init(PackSelectLayer*, std::__ndk1::shared_ptr<Pack> const&, float)::$_2>, void ()>::__clone() const
PUBLIC 4a5d4 0 std::__ndk1::__function::__func<PackNode::init(PackSelectLayer*, std::__ndk1::shared_ptr<Pack> const&, float)::$_2, std::__ndk1::allocator<PackNode::init(PackSelectLayer*, std::__ndk1::shared_ptr<Pack> const&, float)::$_2>, void ()>::__clone(std::__ndk1::__function::__base<void ()>*) const
PUBLIC 4a5e8 0 std::__ndk1::__function::__func<PackNode::init(PackSelectLayer*, std::__ndk1::shared_ptr<Pack> const&, float)::$_2, std::__ndk1::allocator<PackNode::init(PackSelectLayer*, std::__ndk1::shared_ptr<Pack> const&, float)::$_2>, void ()>::destroy()
PUBLIC 4a5ec 0 std::__ndk1::__function::__func<PackNode::init(PackSelectLayer*, std::__ndk1::shared_ptr<Pack> const&, float)::$_2, std::__ndk1::allocator<PackNode::init(PackSelectLayer*, std::__ndk1::shared_ptr<Pack> const&, float)::$_2>, void ()>::destroy_deallocate()
PUBLIC 4a5f0 0 std::__ndk1::__function::__func<PackNode::init(PackSelectLayer*, std::__ndk1::shared_ptr<Pack> const&, float)::$_2, std::__ndk1::allocator<PackNode::init(PackSelectLayer*, std::__ndk1::shared_ptr<Pack> const&, float)::$_2>, void ()>::operator()()
PUBLIC 4a624 0 std::__ndk1::__function::__func<PackNode::init(PackSelectLayer*, std::__ndk1::shared_ptr<Pack> const&, float)::$_2, std::__ndk1::allocator<PackNode::init(PackSelectLayer*, std::__ndk1::shared_ptr<Pack> const&, float)::$_2>, void ()>::target(std::type_info const&) const
PUBLIC 4a640 0 std::__ndk1::__function::__func<PackNode::init(PackSelectLayer*, std::__ndk1::shared_ptr<Pack> const&, float)::$_2, std::__ndk1::allocator<PackNode::init(PackSelectLayer*, std::__ndk1::shared_ptr<Pack> const&, float)::$_2>, void ()>::target_type() const
PUBLIC m 4a64c 0 PackSelectLayer::init()
PUBLIC m 4b084 0 PackSelectLayer::onGoBack(cocos2d::CCObject*)
PUBLIC m 4b0bc 0 PackSelectLayer::onApply(cocos2d::CCObject*)
PUBLIC m 4b1fc 0 PackSelectLayer::onOpenFolder(cocos2d::CCObject*)
PUBLIC m 4b2e8 0 PackSelectLayer::onReloadPacks(cocos2d::CCObject*)
PUBLIC m 4b4e4 0 PackSelectLayer::updateLists(bool)
PUBLIC m 4b854 0 PackSelectLayer::updateList(geode::ScrollLayer*, std::__ndk1::vector<std::__ndk1::shared_ptr<Pack>, std::__ndk1::allocator<std::__ndk1::shared_ptr<Pack> > > const&, bool)
PUBLIC m 4bc58 0 PackSelectLayer::keyBackClicked()
PUBLIC m 4bc90 0 {virtual override thunk({offset(-336)}, PackSelectLayer::keyBackClicked())}
PUBLIC m 4bcc8 0 PackSelectLayer::startDragging(PackNode*)
PUBLIC m 4be2c 0 PackSelectLayer::whereDragList()
PUBLIC m 4bed0 0 PackSelectLayer::moveDrag(cocos2d::CCPoint const&)
PUBLIC m 4bf60 0 PackSelectLayer::reorderDragging()
PUBLIC m 4c4dc 0 PackSelectLayer::reorderList(geode::ScrollLayer*, std::__ndk1::vector<std::__ndk1::shared_ptr<Pack>, std::__ndk1::allocator<std::__ndk1::shared_ptr<Pack> > > const&, unsigned long)
PUBLIC 4c6dc 0 std::__ndk1::pair<geode::ScrollLayer*, std::__ndk1::vector<std::__ndk1::shared_ptr<Pack>, std::__ndk1::allocator<std::__ndk1::shared_ptr<Pack> > > >::~pair()
PUBLIC m 4c784 0 PackSelectLayer::stopDrag()
PUBLIC m 4c9cc 0 PackSelectLayer::create()
PUBLIC m 4ca80 0 PackSelectLayer::scene()
PUBLIC 4cb44 0 PackSelectLayer::~PackSelectLayer()
PUBLIC 4cb68 0 {virtual override thunk({offset(-320)}, PackSelectLayer::~PackSelectLayer())}
PUBLIC 4cb70 0 {virtual override thunk({offset(-320)}, PackSelectLayer::~PackSelectLayer())}
PUBLIC 4cb98 0 std::__ndk1::vector<PackNode*, std::__ndk1::allocator<PackNode*> >::__throw_length_error[abi:ne180000]() const
PUBLIC 4cbac 0 PackSelectLayer::onApply(cocos2d::CCObject*)::$_0::__invoke()
PUBLIC 4cc60 0 geode::cocos::CCArrayExt<PackNode*, PackNode>::~CCArrayExt()
PUBLIC 4cc7c 0 std::__ndk1::__function::__base<cocos2d::CCLayer* ()>::~__base()
PUBLIC 4cc80 0 std::__ndk1::__function::__func<cocos2d::CCLayer* (*)(), std::__ndk1::allocator<cocos2d::CCLayer* (*)()>, cocos2d::CCLayer* ()>::~__func()
PUBLIC 4cc84 0 std::__ndk1::__function::__func<cocos2d::CCLayer* (*)(), std::__ndk1::allocator<cocos2d::CCLayer* (*)()>, cocos2d::CCLayer* ()>::__clone() const
PUBLIC 4ccb8 0 std::__ndk1::__function::__func<cocos2d::CCLayer* (*)(), std::__ndk1::allocator<cocos2d::CCLayer* (*)()>, cocos2d::CCLayer* ()>::__clone(std::__ndk1::__function::__base<cocos2d::CCLayer* ()>*) const
PUBLIC 4cccc 0 std::__ndk1::__function::__func<cocos2d::CCLayer* (*)(), std::__ndk1::allocator<cocos2d::CCLayer* (*)()>, cocos2d::CCLayer* ()>::destroy()
PUBLIC 4ccd0 0 std::__ndk1::__function::__func<cocos2d::CCLayer* (*)(), std::__ndk1::allocator<cocos2d::CCLayer* (*)()>, cocos2d::CCLayer* ()>::destroy_deallocate()
PUBLIC 4ccd4 0 std::__ndk1::__function::__func<cocos2d::CCLayer* (*)(), std::__ndk1::allocator<cocos2d::CCLayer* (*)()>, cocos2d::CCLayer* ()>::operator()()
PUBLIC 4ccdc 0 std::__ndk1::__function::__func<cocos2d::CCLayer* (*)(), std::__ndk1::allocator<cocos2d::CCLayer* (*)()>, cocos2d::CCLayer* ()>::target(std::type_info const&) const
PUBLIC 4ccf8 0 std::__ndk1::__function::__func<cocos2d::CCLayer* (*)(), std::__ndk1::allocator<cocos2d::CCLayer* (*)()>, cocos2d::CCLayer* ()>::target_type() const
PUBLIC 4cd04 0 __cxx_global_var_init
PUBLIC 4d184 0 geode::modifier::ModifyBase<geode::modifier::ModifyDerive<MyMenuLayer, MenuLayer> >::~ModifyBase()
PUBLIC 4d1a0 0 geode::modifier::ModifyDerive<MyMenuLayer, MenuLayer>::apply()
PUBLIC 4d4a8 0 geode::modifier::ModifyBase<geode::modifier::ModifyDerive<MyMenuLayer, MenuLayer> >::apply()
PUBLIC 4d4ac 0 geode::modifier::AsStaticFunction_init<MyMenuLayer, bool (MyMenuLayer::*)()>::Impl<bool (MyMenuLayer::*)()>::function(MyMenuLayer*)
PUBLIC 4d698 0 geode::addresser::Addresser::addressOfVirtual<bool, MenuLayer, >(bool (MenuLayer::*)())
PUBLIC m 4d764 0 MenuLayer::MenuLayer(geode::ZeroConstructorType)
PUBLIC 4d800 0 MyMenuLayer::onTextureLdr(cocos2d::CCObject*)
PUBLIC m 4d804 0 std::__ndk1::__hash_table<std::__ndk1::__hash_value_type<std::__ndk1::basic_string<char, std::__ndk1::char_traits<char>, std::__ndk1::allocator<char> >, void (*)(cocos2d::CCNode*)>, std::__ndk1::__unordered_map_hasher<std::__ndk1::basic_string<char, std::__ndk1::char_traits<char>, std::__ndk1::allocator<char> >, std::__ndk1::__hash_value_type<std::__ndk1::basic_string<char, std::__ndk1::char_traits<char>, std::__ndk1::allocator<char> >, void (*)(cocos2d::CCNode*)>, std::__ndk1::hash<std::__ndk1::basic_string<char, std::__ndk1::char_traits<char>, std::__ndk1::allocator<char> > >, std::__ndk1::equal_to<std::__ndk1::basic_string<char, std::__ndk1::char_traits<char>, std::__ndk1::allocator<char> > >, true>, std::__ndk1::__unordered_map_equal<std::__ndk1::basic_string<char, std::__ndk1::char_traits<char>, std::__ndk1::allocator<char> >, std::__ndk1::__hash_value_type<std::__ndk1::basic_string<char, std::__ndk1::char_traits<char>, std::__ndk1::allocator<char> >, void (*)(cocos2d::CCNode*)>, std::__ndk1::equal_to<std::__ndk1::basic_string<char, std::__ndk1::char_traits<char>, std::__ndk1::allocator<char> > >, std::__ndk1::hash<std::__ndk1::basic_string<char, std::__ndk1::char_traits<char>, std::__ndk1::allocator<char> > >, true>, std::__ndk1::allocator<std::__ndk1::__hash_value_type<std::__ndk1::basic_string<char, std::__ndk1::char_traits<char>, std::__ndk1::allocator<char> >, void (*)(cocos2d::CCNode*)> > >::find<std::__ndk1::basic_string<char, std::__ndk1::char_traits<char>, std::__ndk1::allocator<char> > >(std::__ndk1::basic_string<char, std::__ndk1::char_traits<char>, std::__ndk1::allocator<char> > const&) const
PUBLIC m 4da58 0 geode::getMod()
PUBLIC m 4da94 0 geodeImplicitEntry
PUBLIC 4dad0 0 std::__ndk1::unordered_map<void*, bool, std::__ndk1::hash<void*>, std::__ndk1::equal_to<void*>, std::__ndk1::allocator<std::__ndk1::pair<void* const, bool> > >::~unordered_map[abi:ne180000]()
PUBLIC 4db1c 0 wrapFunction(unsigned long, tulip::hook::WrapperMetadata const&)
PUBLIC 4dc50 0 geode::impl::ResultData<void*, std::__ndk1::basic_string<char, std::__ndk1::char_traits<char>, std::__ndk1::allocator<char> > >::unwrapErr() &
PUBLIC 4dcc8 0 geode::impl::ResultData<void*, std::__ndk1::basic_string<char, std::__ndk1::char_traits<char>, std::__ndk1::allocator<char> > >::~ResultData()
PUBLIC 4dd3c 0 tulip::hook::WrapperMetadata::~WrapperMetadata()
PUBLIC 4dda0 0 cocos2d::CCObject::CCObject()
PUBLIC 4dfc4 0 cocos2d::CCObject::~CCObject()
PUBLIC 4dfe8 0 cocos2d::CCNode::CCNode()
PUBLIC 4e244 0 cocos2d::CCNode::~CCNode()
PUBLIC 4e268 0 cocos2d::CCNodeRGBA::~CCNodeRGBA()
PUBLIC 4e28c 0 cocos2d::CCLayer::CCLayer()
PUBLIC 4e510 0 {virtual override thunk({offset(-320)}, cocos2d::CCLayer::~CCLayer())}
PUBLIC 4e518 0 cocos2d::CCLayer::~CCLayer()
PUBLIC 4e53c 0 {virtual override thunk({offset(-320)}, cocos2d::CCLayer::~CCLayer())}
PUBLIC 4e564 0 cocos2d::CCLayerRGBA::~CCLayerRGBA()
PUBLIC 4e864 0 {virtual override thunk({offset(-320)}, cocos2d::CCLayerRGBA::~CCLayerRGBA())}
PUBLIC 4e86c 0 cocos2d::CCLayerRGBA::~CCLayerRGBA()
PUBLIC 4e890 0 {virtual override thunk({offset(-320)}, cocos2d::CCLayerRGBA::~CCLayerRGBA())}
PUBLIC 4e8b8 0 cocos2d::CCLayerColor::CCLayerColor()
PUBLIC 4eb1c 0 {virtual override thunk({offset(-320)}, cocos2d::CCLayerColor::~CCLayerColor())}
PUBLIC 4eb24 0 cocos2d::CCLayerColor::~CCLayerColor()
PUBLIC 4eb48 0 {virtual override thunk({offset(-320)}, cocos2d::CCLayerColor::~CCLayerColor())}
PUBLIC 4eb70 0 cocos2d::CCSprite::~CCSprite()
PUBLIC 4eb94 0 {virtual override thunk({offset(-320)}, FLAlertLayer::~FLAlertLayer())}
PUBLIC 4eb9c 0 FLAlertLayer::~FLAlertLayer()
PUBLIC 4ebc0 0 {virtual override thunk({offset(-320)}, FLAlertLayer::~FLAlertLayer())}
PUBLIC 4ebe8 0 cocos2d::CCNodeRGBA::~CCNodeRGBA()
PUBLIC 4eea0 0 cocos2d::CCSprite::~CCSprite()
PUBLIC 4f160 0 cocos2d::CCNodeRGBA::setOpacityModifyRGB(bool)
PUBLIC 4f164 0 cocos2d::CCNodeRGBA::isOpacityModifyRGB()
PUBLIC 4f16c 0 {virtual override thunk({offset(-320)}, cocos2d::CCNodeRGBA::setOpacityModifyRGB(bool))}
PUBLIC 4f170 0 {virtual override thunk({offset(-320)}, cocos2d::CCNodeRGBA::isOpacityModifyRGB())}
PUBLIC 4f178 0 cocos2d::CCSprite::setBlendFunc(cocos2d::_ccBlendFunc)
PUBLIC 4f184 0 cocos2d::CCSprite::getBlendFunc()
PUBLIC 4f190 0 cocos2d::CCSprite::isDirty()
PUBLIC 4f198 0 cocos2d::CCSprite::setDirty(bool)
PUBLIC 4f1a0 0 {virtual override thunk({offset(-344)}, cocos2d::CCSprite::setBlendFunc(cocos2d::_ccBlendFunc))}
PUBLIC 4f1a8 0 {virtual override thunk({offset(-344)}, cocos2d::CCSprite::getBlendFunc())}
PUBLIC 4f1b0 0 cocos2d::CCLayerColor::~CCLayerColor()
PUBLIC 4f494 0 FLAlertLayer::~FLAlertLayer()
PUBLIC 4f778 0 cocos2d::CCNode::~CCNode()
PUBLIC 4fa18 0 cocos2d::CCLayer::~CCLayer()
PUBLIC 4fd08 0 cocos2d::CCObject::~CCObject()
PUBLIC 501fc 0 _ZN5geode15UnwrapExceptionC2IRPvQsr4implE18IsStringStreamableIT_EEENS_4impl5OkTagEOS4_
PUBLIC 50350 0 std::__ndk1::__variant_detail::__visitation::__base::__dispatcher<(unsigned long)0>::__dispatch[abi:ne180000]<std::__ndk1::__variant_detail::__dtor<std::__ndk1::__variant_detail::__traits<void*, std::__ndk1::basic_string<char, std::__ndk1::char_traits<char>, std::__ndk1::allocator<char> > >, (std::__ndk1::__variant_detail::_Trait)1>::__destroy[abi:ne180000]()::{lambda(auto:1&)#1}, std::__ndk1::__variant_detail::__base<(std::__ndk1::__variant_detail::__traits<void*, std::__ndk1::basic_string<char, std::__ndk1::char_traits<char>, std::__ndk1::allocator<char> > >)1, std::__ndk1::__variant_detail::__traits, std::__ndk1::allocator<char> >&>(std::__ndk1::__variant_detail::__dtor<std::__ndk1::__variant_detail::__traits<void*, std::__ndk1::basic_string<char, std::__ndk1::char_traits<char>, std::__ndk1::allocator<char> > >, (std::__ndk1::__variant_detail::_Trait)1>, std::__ndk1::__variant_detail::__base<(std::__ndk1::__variant_detail::__traits<void*, std::__ndk1::basic_string<char, std::__ndk1::char_traits<char>, std::__ndk1::allocator<char> > >)1, std::__ndk1::__variant_detail::__traits, std::__ndk1::allocator<char> >&)
PUBLIC 50354 0 std::__ndk1::__variant_detail::__visitation::__base::__dispatcher<(unsigned long)1>::__dispatch[abi:ne180000]<std::__ndk1::__variant_detail::__dtor<std::__ndk1::__variant_detail::__traits<void*, std::__ndk1::basic_string<char, std::__ndk1::char_traits<char>, std::__ndk1::allocator<char> > >, (std::__ndk1::__variant_detail::_Trait)1>::__destroy[abi:ne180000]()::{lambda(auto:1&)#1}, std::__ndk1::__variant_detail::__base<(std::__ndk1::__variant_detail::__traits<void*, std::__ndk1::basic_string<char, std::__ndk1::char_traits<char>, std::__ndk1::allocator<char> > >)1, std::__ndk1::__variant_detail::__traits, std::__ndk1::allocator<char> >&>(std::__ndk1::__variant_detail::__dtor<std::__ndk1::__variant_detail::__traits<void*, std::__ndk1::basic_string<char, std::__ndk1::char_traits<char>, std::__ndk1::allocator<char> > >, (std::__ndk1::__variant_detail::_Trait)1>, std::__ndk1::__variant_detail::__base<(std::__ndk1::__variant_detail::__traits<void*, std::__ndk1::basic_string<char, std::__ndk1::char_traits<char>, std::__ndk1::allocator<char> > >)1, std::__ndk1::__variant_detail::__traits, std::__ndk1::allocator<char> >&)
PUBLIC 50368 0 std::__ndk1::__hash_table<std::__ndk1::__hash_value_type<void*, bool>, std::__ndk1::__unordered_map_hasher<void*, std::__ndk1::__hash_value_type<void*, bool>, std::__ndk1::hash<void*>, std::__ndk1::equal_to<void*>, true>, std::__ndk1::__unordered_map_equal<void*, std::__ndk1::__hash_value_type<void*, bool>, std::__ndk1::equal_to<void*>, std::__ndk1::hash<void*>, true>, std::__ndk1::allocator<std::__ndk1::__hash_value_type<void*, bool> > >::__emplace_unique_key_args<void*, std::__ndk1::piecewise_construct_t const&, std::__ndk1::tuple<void* const&>, std::__ndk1::tuple<> >(void* const&, std::__ndk1::piecewise_construct_t const&, std::__ndk1::tuple<void* const&>, std::__ndk1::tuple<>)
PUBLIC 50874 0 __udivti3
PUBLIC m 50880 0 __eqtf2
PUBLIC 50920 0 __unordtf2
PUBLIC m 50958 0 fmt::v11::detail::assert_fail(char const*, int, char const*)
PUBLIC m 5098c 0 fmt::v11::detail::format_error_code(fmt::v11::detail::buffer<char>&, int, fmt::v11::basic_string_view<char>)
PUBLIC m 50aa0 0 fmt::v11::detail::report_error(void (*)(fmt::v11::detail::buffer<char>&, int, char const*), int, char const*)
PUBLIC m 50b54 0 fmt::v11::detail::write_loc(fmt::v11::basic_appender<char>, fmt::v11::loc_value, fmt::v11::format_specs const&, fmt::v11::detail::locale_ref)
PUBLIC m 50ce4 0 fmt::v11::detail::locale_ref::get<std::__ndk1::locale>() const
PUBLIC m 50cf8 0 fmt::v11::format_facet<std::__ndk1::locale>::format_facet(std::__ndk1::locale&)
PUBLIC m 50e88 0 fmt::v11::format_facet<std::__ndk1::locale>::~format_facet()
PUBLIC m 50f08 0 fmt::v11::report_error(char const*)
PUBLIC m 50f58 0 fmt::v11::format_error::runtime_error(char const*)
PUBLIC m 50f88 0 fmt::v11::format_facet<std::__ndk1::locale>::do_put(fmt::v11::basic_appender<char>, fmt::v11::loc_value, fmt::v11::format_specs const&) const
PUBLIC m 51170 0 fmt::v11::loc_value::visit<fmt::v11::detail::loc_writer<char> >(fmt::v11::detail::loc_writer<char>&&)
PUBLIC m 5120c 0 fmt::v11::detail::loc_writer<char>::~loc_writer()
PUBLIC m 51270 0 fmt::v11::vsystem_error(int, fmt::v11::basic_string_view<char>, fmt::v11::basic_format_args<fmt::v11::context>)
PUBLIC m 51418 0 fmt::v11::vformat(fmt::v11::basic_string_view<char>, fmt::v11::basic_format_args<fmt::v11::context>)
PUBLIC m 51554 0 fmt::v11::detail::dragonbox::get_cached_power(int)
PUBLIC m 51604 0 fmt::v11::detail::utf8_to_utf16::utf8_to_utf16(fmt::v11::basic_string_view<char>)
PUBLIC m 51814 0 fmt::v11::format_system_error(fmt::v11::detail::buffer<char>&, int, char const*)
PUBLIC m 51928 0 fmt::v11::report_system_error(int, char const*)
PUBLIC m 519dc 0 fmt::v11::detail::vformat_to<char>(fmt::v11::detail::buffer<char>&, fmt::v11::basic_string_view<char>, fmt::v11::detail::vformat_args<char>::type, fmt::v11::detail::locale_ref)
PUBLIC m 51bd4 0 fmt::v11::detail::write_console(int, fmt::v11::basic_string_view<char>)
PUBLIC m 51bdc 0 fmt::v11::detail::print(__sFILE*, fmt::v11::basic_string_view<char>)
PUBLIC m 51c64 0 fmt::v11::vprint_buffered(__sFILE*, fmt::v11::basic_string_view<char>, fmt::v11::basic_format_args<fmt::v11::context>)
PUBLIC m 51da8 0 fmt::v11::vprint(__sFILE*, fmt::v11::basic_string_view<char>, fmt::v11::basic_format_args<fmt::v11::context>)
PUBLIC m 51dac 0 fmt::v11::vprintln(__sFILE*, fmt::v11::basic_string_view<char>, fmt::v11::basic_format_args<fmt::v11::context>)
PUBLIC m 51f28 0 fmt::v11::vprint(fmt::v11::basic_string_view<char>, fmt::v11::basic_format_args<fmt::v11::context>)
PUBLIC m 51f4c 0 fmt::v11::detail::is_printable(unsigned int)
PUBLIC m 52174 0 fmt::v11::detail::dragonbox::to_decimal<float>(float)
PUBLIC m 52450 0 fmt::v11::detail::dragonbox::to_decimal<double>(double)
PUBLIC m 5298c 0 fmt::v11::detail::locale_ref::locale_ref<std::__ndk1::locale>()
PUBLIC m 52994 0 fmt::v11::detail::thousands_sep_impl<char>(fmt::v11::detail::locale_ref)
PUBLIC m 52aac 0 fmt::v11::detail::decimal_point_impl<char>(fmt::v11::detail::locale_ref)
PUBLIC m 52b58 0 fmt::v11::detail::buffer<char>::append<char>(char const*, char const*)
PUBLIC m 52ca4 0 fmt::v11::detail::parse_format_string<false, char, fmt::v11::detail::vformat_to<char>(fmt::v11::detail::buffer<char>&, fmt::v11::basic_string_view<char>, fmt::v11::detail::vformat_args<char>::type, fmt::v11::detail::locale_ref)::format_handler>(fmt::v11::basic_string_view<char>, fmt::v11::detail::vformat_to<char>(fmt::v11::detail::buffer<char>&, fmt::v11::basic_string_view<char>, fmt::v11::detail::vformat_args<char>::type, fmt::v11::detail::locale_ref)::format_handler&&)
PUBLIC m 52eb4 0 fmt::v11::detail::thousands_sep_impl<wchar_t>(fmt::v11::detail::locale_ref)
PUBLIC m 52fcc 0 fmt::v11::detail::decimal_point_impl<wchar_t>(fmt::v11::detail::locale_ref)
PUBLIC m 53078 0 fmt::v11::detail::buffer<wchar_t>::append<wchar_t>(wchar_t const*, wchar_t const*)
PUBLIC m 53180 0 fmt::v11::basic_memory_buffer<char, (unsigned long)500, std::__ndk1::allocator<char> >::grow(fmt::v11::detail::buffer<char>&, unsigned long)
PUBLIC m 531f8 0 fmt::v11::format_facet<std::__ndk1::locale>::~format_facet()
PUBLIC m 53288 0 fmt::v11::format_error::~format_error()
PUBLIC m 532ac 0 fmt::v11::basic_memory_buffer<wchar_t, (unsigned long)500, std::__ndk1::allocator<wchar_t> >::grow(fmt::v11::detail::buffer<wchar_t>&, unsigned long)
PUBLIC 5334c 0 fmt::v11::detail::for_each_codepoint<fmt::v11::detail::utf8_to_utf16::utf8_to_utf16(fmt::v11::basic_string_view<char>)::$_0>(fmt::v11::basic_string_view<char>, fmt::v11::detail::utf8_to_utf16::utf8_to_utf16(fmt::v11::basic_string_view<char>)::$_0)::{lambda(char const*, char const*)#1}::operator()(char const*, char const*) const
PUBLIC m 53548 0 fmt::v11::detail::copy_noinline<char, char const*, fmt::v11::basic_appender<char> >(char const*, char const*, fmt::v11::basic_appender<char>)
PUBLIC m 53698 0 fmt::v11::system_error<>(int, fmt::v11::basic_format_string<char, fmt::v11::type_identity<>::type>, &&)
PUBLIC m 536e4 0 fmt::v11::detail::default_arg_formatter<char>::operator()<bool>(bool)
PUBLIC m 53754 0 fmt::v11::detail::default_arg_formatter<char>::operator()<char>(char)
PUBLIC m 537cc 0 fmt::v11::detail::default_arg_formatter<char>::operator()<float>(float)
PUBLIC m 538c0 0 fmt::v11::detail::default_arg_formatter<char>::operator()<double>(double)
PUBLIC m 539b4 0 fmt::v11::detail::default_arg_formatter<char>::operator()<char const*>(char const*)
PUBLIC m 539fc 0 fmt::v11::detail::default_arg_formatter<char>::operator()<void const*>(void const*)
PUBLIC m 53a98 0 _ZN3fmt3v116detail5writeIcNS0_14basic_appenderIcEEiTnNSt6__ndk19enable_ifIXaaaasr11is_integralIT1_EE5valuentsr3std7is_sameIS7_bEE5valuentsr3std7is_sameIS7_T_EE5valueEiE4typeELi0EEET0_SB_S7_
PUBLIC m 53cfc 0 fmt::v11::detail::copy_noinline<char, char*, fmt::v11::basic_appender<char> >(char*, char*, fmt::v11::basic_appender<char>)
PUBLIC m 53e4c 0 _ZN3fmt3v116detail5writeIcNS0_14basic_appenderIcEEjTnNSt6__ndk19enable_ifIXaaaasr11is_integralIT1_EE5valuentsr3std7is_sameIS7_bEE5valuentsr3std7is_sameIS7_T_EE5valueEiE4typeELi0EEET0_SB_S7_
PUBLIC m 54030 0 _ZN3fmt3v116detail5writeIcNS0_14basic_appenderIcEExTnNSt6__ndk19enable_ifIXaaaasr11is_integralIT1_EE5valuentsr3std7is_sameIS7_bEE5valuentsr3std7is_sameIS7_T_EE5valueEiE4typeELi0EEET0_SB_S7_
PUBLIC m 542b8 0 _ZN3fmt3v116detail5writeIcNS0_14basic_appenderIcEEyTnNSt6__ndk19enable_ifIXaaaasr11is_integralIT1_EE5valuentsr3std7is_sameIS7_bEE5valuentsr3std7is_sameIS7_T_EE5valueEiE4typeELi0EEET0_SB_S7_
PUBLIC m 544c4 0 _ZN3fmt3v116detail5writeIcNS0_14basic_appenderIcEEnTnNSt6__ndk19enable_ifIXaaaasr11is_integralIT1_EE5valuentsr3std7is_sameIS7_bEE5valuentsr3std7is_sameIS7_T_EE5valueEiE4typeELi0EEET0_SB_S7_
PUBLIC m 54828 0 _ZN3fmt3v116detail5writeIcNS0_14basic_appenderIcEEoTnNSt6__ndk19enable_ifIXaaaasr11is_integralIT1_EE5valuentsr3std7is_sameIS7_bEE5valuentsr3std7is_sameIS7_T_EE5valueEiE4typeELi0EEET0_SB_S7_
PUBLIC m 54b40 0 _ZN3fmt3v116detail5writeIcNS0_14basic_appenderIcEEbTnNSt6__ndk19enable_ifIXsr3std7is_sameIT1_bEE5valueEiE4typeELi0EEET0_SA_S7_RKNS0_12format_specsENS1_10locale_refE
PUBLIC m 54c4c 0 fmt::v11::detail::write_int_noinline<char, fmt::v11::basic_appender<char>, unsigned int>(fmt::v11::basic_appender<char>, fmt::v11::detail::write_int_arg<unsigned int>, fmt::v11::format_specs const&, fmt::v11::detail::locale_ref)
PUBLIC m 555f0 0 fmt::v11::detail::write_int<char, fmt::v11::basic_appender<char>, fmt::v11::detail::write_int<char, fmt::v11::basic_appender<char>, unsigned int>(fmt::v11::basic_appender<char>, fmt::v11::detail::write_int_arg<unsigned int>, fmt::v11::format_specs const&, fmt::v11::detail::locale_ref)::{lambda(fmt::v11::basic_appender<char>)#1}>(fmt::v11::basic_appender<char>, int, unsigned int, fmt::v11::format_specs const&, fmt::v11::detail::write_int<char, fmt::v11::basic_appender<char>, unsigned int>(fmt::v11::basic_appender<char>, fmt::v11::detail::write_int_arg<unsigned int>, fmt::v11::format_specs const&, fmt::v11::detail::locale_ref)::{lambda(fmt::v11::basic_appender<char>)#1})::{lambda(fmt::v11::basic_appender<char>(fmt::v11::basic_appender<char>))#1}::operator() const
PUBLIC m 55780 0 fmt::v11::detail::write_int<char, fmt::v11::basic_appender<char>, fmt::v11::detail::write_int<char, fmt::v11::basic_appender<char>, unsigned int>(fmt::v11::basic_appender<char>, fmt::v11::detail::write_int_arg<unsigned int>, fmt::v11::format_specs const&, fmt::v11::detail::locale_ref)::{lambda(fmt::v11::basic_appender<char>)#2}>(fmt::v11::basic_appender<char>, int, unsigned int, fmt::v11::format_specs const&, fmt::v11::detail::write_int<char, fmt::v11::basic_appender<char>, unsigned int>(fmt::v11::basic_appender<char>, fmt::v11::detail::write_int_arg<unsigned int>, fmt::v11::format_specs const&, fmt::v11::detail::locale_ref)::{lambda(fmt::v11::basic_appender<char>)#2})::{lambda(fmt::v11::basic_appender<char>(fmt::v11::basic_appender<char>))#1}::operator() const
PUBLIC m 55964 0 fmt::v11::detail::write_int<char, fmt::v11::basic_appender<char>, fmt::v11::detail::write_int<char, fmt::v11::basic_appender<char>, unsigned int>(fmt::v11::basic_appender<char>, fmt::v11::detail::write_int_arg<unsigned int>, fmt::v11::format_specs const&, fmt::v11::detail::locale_ref)::{lambda(fmt::v11::basic_appender<char>)#3}>(fmt::v11::basic_appender<char>, int, unsigned int, fmt::v11::format_specs const&, fmt::v11::detail::write_int<char, fmt::v11::basic_appender<char>, unsigned int>(fmt::v11::basic_appender<char>, fmt::v11::detail::write_int_arg<unsigned int>, fmt::v11::format_specs const&, fmt::v11::detail::locale_ref)::{lambda(fmt::v11::basic_appender<char>)#3})::{lambda(fmt::v11::basic_appender<char>(fmt::v11::basic_appender<char>))#1}::operator() const
PUBLIC m 55b0c 0 fmt::v11::detail::write_int<char, fmt::v11::basic_appender<char>, fmt::v11::detail::write_int<char, fmt::v11::basic_appender<char>, unsigned int>(fmt::v11::basic_appender<char>, fmt::v11::detail::write_int_arg<unsigned int>, fmt::v11::format_specs const&, fmt::v11::detail::locale_ref)::{lambda(fmt::v11::basic_appender<char>)#4}>(fmt::v11::basic_appender<char>, int, unsigned int, fmt::v11::format_specs const&, fmt::v11::detail::write_int<char, fmt::v11::basic_appender<char>, unsigned int>(fmt::v11::basic_appender<char>, fmt::v11::detail::write_int_arg<unsigned int>, fmt::v11::format_specs const&, fmt::v11::detail::locale_ref)::{lambda(fmt::v11::basic_appender<char>)#4})::{lambda(fmt::v11::basic_appender<char>(fmt::v11::basic_appender<char>))#1}::operator() const
PUBLIC m 55cb8 0 fmt::v11::detail::write_padded<char, (fmt::v11::align::type)1, fmt::v11::basic_appender<char>, fmt::v11::detail::write_char<char, fmt::v11::basic_appender<char> >(fmt::v11::basic_appender<char>, char, fmt::v11::format_specs const&)::{lambda(fmt::v11::basic_appender<char>&)#1}>(fmt::v11::basic_appender<char>, fmt::v11::format_specs const&, unsigned long, unsigned long, fmt::v11::detail::write_char<char, fmt::v11::basic_appender<char> >(fmt::v11::basic_appender<char>, char, fmt::v11::format_specs const&)::{lambda(fmt::v11::basic_appender<char>&)#1})
PUBLIC m 55dc0 0 fmt::v11::detail::write_escaped_char<char, fmt::v11::basic_appender<char> >(fmt::v11::basic_appender<char>, char)
PUBLIC m 55f38 0 fmt::v11::detail::write_padded<char, (fmt::v11::align::type)1, fmt::v11::basic_appender<char>, fmt::v11::detail::write_bytes<char, (fmt::v11::align::type)1, fmt::v11::basic_appender<char> >(fmt::v11::basic_appender<char>, fmt::v11::basic_string_view<char>, fmt::v11::format_specs const&)::{lambda(fmt::v11::basic_appender<char>&)#1}>(fmt::v11::basic_appender<char>, fmt::v11::format_specs const&, unsigned long, unsigned long, fmt::v11::detail::write_bytes<char, (fmt::v11::align::type)1, fmt::v11::basic_appender<char> >(fmt::v11::basic_appender<char>, fmt::v11::basic_string_view<char>, fmt::v11::format_specs const&)::{lambda(fmt::v11::basic_appender<char>&)#1})
PUBLIC m 5612c 0 fmt::v11::detail::write_padded<char, (fmt::v11::align::type)1, fmt::v11::basic_appender<char>, fmt::v11::detail::write_nonfinite<char, fmt::v11::basic_appender<char> >(fmt::v11::basic_appender<char>, bool, fmt::v11::format_specs, fmt::v11::sign::type)::{lambda(fmt::v11::basic_appender<char>&)#1}>(fmt::v11::basic_appender<char>, fmt::v11::format_specs const&, unsigned long, unsigned long, fmt::v11::detail::write_nonfinite<char, fmt::v11::basic_appender<char> >(fmt::v11::basic_appender<char>, bool, fmt::v11::format_specs, fmt::v11::sign::type)::{lambda(fmt::v11::basic_appender<char>&)#1})
PUBLIC m 56384 0 fmt::v11::detail::do_write_float<char, fmt::v11::basic_appender<char>, fmt::v11::detail::dragonbox::decimal_fp<float>, fmt::v11::detail::digit_grouping<char> >(fmt::v11::basic_appender<char>, fmt::v11::detail::dragonbox::decimal_fp<float> const&, fmt::v11::format_specs const&, fmt::v11::detail::float_specs, fmt::v11::detail::locale_ref)
PUBLIC m 56a58 0 fmt::v11::detail::do_write_float<char, fmt::v11::basic_appender<char>, fmt::v11::detail::dragonbox::decimal_fp<float>, fmt::v11::detail::digit_grouping<char> >(fmt::v11::basic_appender<char>, fmt::v11::detail::dragonbox::decimal_fp<float> const&, fmt::v11::format_specs const&, fmt::v11::detail::float_specs, fmt::v11::detail::locale_ref)::{lambda(fmt::v11::basic_appender<char>(fmt::v11::basic_appender<char>))#1}::operator() const
PUBLIC m 56bac 0 fmt::v11::detail::digit_grouping<char>::digit_grouping(fmt::v11::detail::locale_ref, bool)
PUBLIC m 56d64 0 fmt::v11::detail::digit_grouping<char>::~digit_grouping()
PUBLIC m 56da8 0 fmt::v11::detail::write_exponent<char, fmt::v11::basic_appender<char> >(int, fmt::v11::basic_appender<char>)
PUBLIC m 56f78 0 _ZN3fmt3v116detail17write_significandIcjTnNSt6__ndk19enable_ifIXsr3std11is_integralIT0_EE5valueEiE4typeELi0EEEPT_S9_S5_iiS8_
PUBLIC m 570f4 0 fmt::v11::detail::do_write_float<char, fmt::v11::basic_appender<char>, fmt::v11::detail::dragonbox::decimal_fp<float>, fmt::v11::detail::digit_grouping<char> >(fmt::v11::basic_appender<char>, fmt::v11::detail::dragonbox::decimal_fp<float> const&, fmt::v11::format_specs const&, fmt::v11::detail::float_specs, fmt::v11::detail::locale_ref)::{lambda(fmt::v11::basic_appender<char>(fmt::v11::basic_appender<char>))#2}::operator() const
PUBLIC m 57228 0 fmt::v11::detail::write_significand<char, fmt::v11::basic_appender<char>, unsigned int, fmt::v11::detail::digit_grouping<char> >(fmt::v11::basic_appender<char>, unsigned int, int, int, fmt::v11::detail::digit_grouping<char> const&)
PUBLIC m 574e8 0 fmt::v11::detail::digit_grouping<char>::apply<fmt::v11::basic_appender<char>, char>(fmt::v11::basic_appender<char>, fmt::v11::basic_string_view<char>) const
PUBLIC m 578a0 0 fmt::v11::basic_memory_buffer<int, (unsigned long)500, std::__ndk1::allocator<int> >::grow(fmt::v11::detail::buffer<int>&, unsigned long)
PUBLIC m 57940 0 fmt::v11::detail::write_padded<char, (fmt::v11::align::type)2, fmt::v11::basic_appender<char>, fmt::v11::detail::do_write_float<char, fmt::v11::basic_appender<char>, fmt::v11::detail::dragonbox::decimal_fp<float>, fmt::v11::detail::digit_grouping<char> >(fmt::v11::basic_appender<char>, fmt::v11::detail::dragonbox::decimal_fp<float> const&, fmt::v11::format_specs const&, fmt::v11::detail::float_specs, fmt::v11::detail::locale_ref)::{lambda(fmt::v11::basic_appender<char>&)#3}>(fmt::v11::basic_appender<char>, fmt::v11::format_specs const&, unsigned long, unsigned long, fmt::v11::detail::do_write_float<char, fmt::v11::basic_appender<char>, fmt::v11::detail::dragonbox::decimal_fp<float>, fmt::v11::detail::digit_grouping<char> >(fmt::v11::basic_appender<char>, fmt::v11::detail::dragonbox::decimal_fp<float> const&, fmt::v11::format_specs const&, fmt::v11::detail::float_specs, fmt::v11::detail::locale_ref)::{lambda(fmt::v11::basic_appender<char>&)#3})
PUBLIC m 57ad0 0 fmt::v11::detail::write_significand<fmt::v11::basic_appender<char>, char, unsigned int, fmt::v11::detail::digit_grouping<char> >(fmt::v11::basic_appender<char>, unsigned int, int, int, char, fmt::v11::detail::digit_grouping<char> const&)
PUBLIC m 57c18 0 fmt::v11::detail::do_write_float<char, fmt::v11::basic_appender<char>, fmt::v11::detail::dragonbox::decimal_fp<float>, fmt::v11::detail::digit_grouping<char> >(fmt::v11::basic_appender<char>, fmt::v11::detail::dragonbox::decimal_fp<float> const&, fmt::v11::format_specs const&, fmt::v11::detail::float_specs, fmt::v11::detail::locale_ref)::{lambda(fmt::v11::basic_appender<char>(fmt::v11::basic_appender<char>))#4}::operator() const
PUBLIC m 57e34 0 fmt::v11::detail::do_write_float<char, fmt::v11::basic_appender<char>, fmt::v11::detail::dragonbox::decimal_fp<double>, fmt::v11::detail::digit_grouping<char> >(fmt::v11::basic_appender<char>, fmt::v11::detail::dragonbox::decimal_fp<double> const&, fmt::v11::format_specs const&, fmt::v11::detail::float_specs, fmt::v11::detail::locale_ref)
PUBLIC m 58518 0 fmt::v11::detail::do_write_float<char, fmt::v11::basic_appender<char>, fmt::v11::detail::dragonbox::decimal_fp<double>, fmt::v11::detail::digit_grouping<char> >(fmt::v11::basic_appender<char>, fmt::v11::detail::dragonbox::decimal_fp<double> const&, fmt::v11::format_specs const&, fmt::v11::detail::float_specs, fmt::v11::detail::locale_ref)::{lambda(fmt::v11::basic_appender<char>(fmt::v11::basic_appender<char>))#1}::operator() const
PUBLIC m 58670 0 _ZN3fmt3v116detail17write_significandIcmTnNSt6__ndk19enable_ifIXsr3std11is_integralIT0_EE5valueEiE4typeELi0EEEPT_S9_S5_iiS8_
PUBLIC m 58800 0 fmt::v11::detail::do_write_float<char, fmt::v11::basic_appender<char>, fmt::v11::detail::dragonbox::decimal_fp<double>, fmt::v11::detail::digit_grouping<char> >(fmt::v11::basic_appender<char>, fmt::v11::detail::dragonbox::decimal_fp<double> const&, fmt::v11::format_specs const&, fmt::v11::detail::float_specs, fmt::v11::detail::locale_ref)::{lambda(fmt::v11::basic_appender<char>(fmt::v11::basic_appender<char>))#2}::operator() const
PUBLIC m 58934 0 fmt::v11::detail::write_significand<char, fmt::v11::basic_appender<char>, unsigned long, fmt::v11::detail::digit_grouping<char> >(fmt::v11::basic_appender<char>, unsigned long, int, int, fmt::v11::detail::digit_grouping<char> const&)
PUBLIC m 58c0c 0 fmt::v11::detail::write_padded<char, (fmt::v11::align::type)2, fmt::v11::basic_appender<char>, fmt::v11::detail::do_write_float<char, fmt::v11::basic_appender<char>, fmt::v11::detail::dragonbox::decimal_fp<double>, fmt::v11::detail::digit_grouping<char> >(fmt::v11::basic_appender<char>, fmt::v11::detail::dragonbox::decimal_fp<double> const&, fmt::v11::format_specs const&, fmt::v11::detail::float_specs, fmt::v11::detail::locale_ref)::{lambda(fmt::v11::basic_appender<char>&)#3}>(fmt::v11::basic_appender<char>, fmt::v11::format_specs const&, unsigned long, unsigned long, fmt::v11::detail::do_write_float<char, fmt::v11::basic_appender<char>, fmt::v11::detail::dragonbox::decimal_fp<double>, fmt::v11::detail::digit_grouping<char> >(fmt::v11::basic_appender<char>, fmt::v11::detail::dragonbox::decimal_fp<double> const&, fmt::v11::format_specs const&, fmt::v11::detail::float_specs, fmt::v11::detail::locale_ref)::{lambda(fmt::v11::basic_appender<char>&)#3})
PUBLIC m 58d9c 0 fmt::v11::detail::write_significand<fmt::v11::basic_appender<char>, char, unsigned long, fmt::v11::detail::digit_grouping<char> >(fmt::v11::basic_appender<char>, unsigned long, int, int, char, fmt::v11::detail::digit_grouping<char> const&)
PUBLIC m 58ee4 0 fmt::v11::detail::do_write_float<char, fmt::v11::basic_appender<char>, fmt::v11::detail::dragonbox::decimal_fp<double>, fmt::v11::detail::digit_grouping<char> >(fmt::v11::basic_appender<char>, fmt::v11::detail::dragonbox::decimal_fp<double> const&, fmt::v11::format_specs const&, fmt::v11::detail::float_specs, fmt::v11::detail::locale_ref)::{lambda(fmt::v11::basic_appender<char>(fmt::v11::basic_appender<char>))#4}::operator() const
PUBLIC m 5910c 0 fmt::v11::detail::write_float<char, fmt::v11::basic_appender<char>, long double>(fmt::v11::basic_appender<char>, long double, fmt::v11::format_specs, fmt::v11::detail::locale_ref)
PUBLIC m 594f4 0 _ZN3fmt3v116detail15format_hexfloatIeTnNSt6__ndk19enable_ifIXntsr16is_double_doubleIT_EE5valueEiE4typeELi0EEEvS5_NS0_12format_specsERNS1_6bufferIcEE
PUBLIC m 59a5c 0 fmt::v11::detail::format_float<long double>(long double, int, fmt::v11::detail::float_specs, fmt::v11::detail::buffer<char>&)
PUBLIC m 59d20 0 fmt::v11::detail::write_padded<char, (fmt::v11::align::type)2, fmt::v11::basic_appender<char>, fmt::v11::detail::write_bytes<char, (fmt::v11::align::type)2, fmt::v11::basic_appender<char> >(fmt::v11::basic_appender<char>, fmt::v11::basic_string_view<char>, fmt::v11::format_specs const&)::{lambda(fmt::v11::basic_appender<char>&)#1}>(fmt::v11::basic_appender<char>, fmt::v11::format_specs const&, unsigned long, unsigned long, fmt::v11::detail::write_bytes<char, (fmt::v11::align::type)2, fmt::v11::basic_appender<char> >(fmt::v11::basic_appender<char>, fmt::v11::basic_string_view<char>, fmt::v11::format_specs const&)::{lambda(fmt::v11::basic_appender<char>&)#1})
PUBLIC m 59f14 0 fmt::v11::detail::format_dragon(fmt::v11::detail::basic_fp<unsigned __int128>, unsigned int, int, fmt::v11::detail::buffer<char>&, int&)
PUBLIC m 5b348 0 fmt::v11::detail::bigint::operator<<=(int)
PUBLIC m 5b46c 0 fmt::v11::detail::bigint::assign_pow10(int)
PUBLIC m 5b600 0 fmt::v11::detail::bigint::divmod_assign(fmt::v11::detail::bigint const&)
PUBLIC m 5b920 0 fmt::v11::basic_memory_buffer<unsigned int, (unsigned long)32, std::__ndk1::allocator<unsigned int> >::grow(fmt::v11::detail::buffer<unsigned int>&, unsigned long)
PUBLIC m 5b9c0 0 fmt::v11::detail::bigint::square()
PUBLIC m 5bf8c 0 fmt::v11::detail::do_write_float<char, fmt::v11::basic_appender<char>, fmt::v11::detail::big_decimal_fp, fmt::v11::detail::digit_grouping<char> >(fmt::v11::basic_appender<char>, fmt::v11::detail::big_decimal_fp const&, fmt::v11::format_specs const&, fmt::v11::detail::float_specs, fmt::v11::detail::locale_ref)
PUBLIC m 5c644 0 fmt::v11::detail::do_write_float<char, fmt::v11::basic_appender<char>, fmt::v11::detail::big_decimal_fp, fmt::v11::detail::digit_grouping<char> >(fmt::v11::basic_appender<char>, fmt::v11::detail::big_decimal_fp const&, fmt::v11::format_specs const&, fmt::v11::detail::float_specs, fmt::v11::detail::locale_ref)::{lambda(fmt::v11::basic_appender<char>(fmt::v11::basic_appender<char>))#1}::operator() const
PUBLIC m 5c7ac 0 fmt::v11::detail::do_write_float<char, fmt::v11::basic_appender<char>, fmt::v11::detail::big_decimal_fp, fmt::v11::detail::digit_grouping<char> >(fmt::v11::basic_appender<char>, fmt::v11::detail::big_decimal_fp const&, fmt::v11::format_specs const&, fmt::v11::detail::float_specs, fmt::v11::detail::locale_ref)::{lambda(fmt::v11::basic_appender<char>(fmt::v11::basic_appender<char>))#2}::operator() const
PUBLIC m 5c8e0 0 fmt::v11::detail::write_significand<char, fmt::v11::basic_appender<char>, char const*, fmt::v11::detail::digit_grouping<char> >(fmt::v11::basic_appender<char>, char const*, int, int, fmt::v11::detail::digit_grouping<char> const&)
PUBLIC m 5ccc8 0 fmt::v11::detail::write_padded<char, (fmt::v11::align::type)2, fmt::v11::basic_appender<char>, fmt::v11::detail::do_write_float<char, fmt::v11::basic_appender<char>, fmt::v11::detail::big_decimal_fp, fmt::v11::detail::digit_grouping<char> >(fmt::v11::basic_appender<char>, fmt::v11::detail::big_decimal_fp const&, fmt::v11::format_specs const&, fmt::v11::detail::float_specs, fmt::v11::detail::locale_ref)::{lambda(fmt::v11::basic_appender<char>&)#3}>(fmt::v11::basic_appender<char>, fmt::v11::format_specs const&, unsigned long, unsigned long, fmt::v11::detail::do_write_float<char, fmt::v11::basic_appender<char>, fmt::v11::detail::big_decimal_fp, fmt::v11::detail::digit_grouping<char> >(fmt::v11::basic_appender<char>, fmt::v11::detail::big_decimal_fp const&, fmt::v11::format_specs const&, fmt::v11::detail::float_specs, fmt::v11::detail::locale_ref)::{lambda(fmt::v11::basic_appender<char>&)#3})
PUBLIC m 5ce58 0 fmt::v11::detail::write_significand<fmt::v11::basic_appender<char>, char, char const*, fmt::v11::detail::digit_grouping<char> >(fmt::v11::basic_appender<char>, char const*, int, int, char, fmt::v11::detail::digit_grouping<char> const&)
PUBLIC m 5d06c 0 fmt::v11::detail::do_write_float<char, fmt::v11::basic_appender<char>, fmt::v11::detail::big_decimal_fp, fmt::v11::detail::digit_grouping<char> >(fmt::v11::basic_appender<char>, fmt::v11::detail::big_decimal_fp const&, fmt::v11::format_specs const&, fmt::v11::detail::float_specs, fmt::v11::detail::locale_ref)::{lambda(fmt::v11::basic_appender<char>(fmt::v11::basic_appender<char>))#4}::operator() const
PUBLIC m 5d2ec 0 fmt::v11::detail::write_padded<char, (fmt::v11::align::type)2, fmt::v11::basic_appender<char>, fmt::v11::detail::write_ptr<char, fmt::v11::basic_appender<char>, unsigned long>(fmt::v11::basic_appender<char>, unsigned long, fmt::v11::format_specs const*)::{lambda(fmt::v11::basic_appender<char>&)#1}>(fmt::v11::basic_appender<char>, fmt::v11::format_specs const&, unsigned long, unsigned long, fmt::v11::detail::write_ptr<char, fmt::v11::basic_appender<char>, unsigned long>(fmt::v11::basic_appender<char>, unsigned long, fmt::v11::format_specs const*)::{lambda(fmt::v11::basic_appender<char>&)#1})
PUBLIC m 5d50c 0 fmt::v11::detail::parse_replacement_field<char, fmt::v11::detail::vformat_to<char>(fmt::v11::detail::buffer<char>&, fmt::v11::basic_string_view<char>, fmt::v11::detail::vformat_args<char>::type, fmt::v11::detail::locale_ref)::format_handler&>(char const*, char const*, fmt::v11::detail::vformat_to<char>(fmt::v11::detail::buffer<char>&, fmt::v11::basic_string_view<char>, fmt::v11::detail::vformat_args<char>::type, fmt::v11::detail::locale_ref)::format_handler&)
PUBLIC m 5dbd0 0 fmt::v11::detail::vformat_to<char>(fmt::v11::detail::buffer<char>&, fmt::v11::basic_string_view<char>, fmt::v11::detail::vformat_args<char>::type, fmt::v11::detail::locale_ref)::format_handler::on_format_specs(int, char const*, char const*)
PUBLIC m 5e1f4 0 fmt::v11::detail::do_parse_arg_id<char, fmt::v11::detail::parse_replacement_field<char, fmt::v11::detail::vformat_to<char>(fmt::v11::detail::buffer<char>&, fmt::v11::basic_string_view<char>, fmt::v11::detail::vformat_args<char>::type, fmt::v11::detail::locale_ref)::format_handler&>(char const*, char const*, fmt::v11::detail::vformat_to<char>(fmt::v11::detail::buffer<char>&, fmt::v11::basic_string_view<char>, fmt::v11::detail::vformat_args<char>::type, fmt::v11::detail::locale_ref)::format_handler&)::id_adapter&>(char const*, char const*, fmt::v11::detail::parse_replacement_field<char, fmt::v11::detail::vformat_to<char>(fmt::v11::detail::buffer<char>&, fmt::v11::basic_string_view<char>, fmt::v11::detail::vformat_args<char>::type, fmt::v11::detail::locale_ref)::format_handler&>(char const*, char const*, fmt::v11::detail::vformat_to<char>(fmt::v11::detail::buffer<char>&, fmt::v11::basic_string_view<char>, fmt::v11::detail::vformat_args<char>::type, fmt::v11::detail::locale_ref)::format_handler&)::id_adapter&)
PUBLIC m 5e44c 0 fmt::v11::detail::write_int_noinline<char, fmt::v11::basic_appender<char>, unsigned long>(fmt::v11::basic_appender<char>, fmt::v11::detail::write_int_arg<unsigned long>, fmt::v11::format_specs const&, fmt::v11::detail::locale_ref)
PUBLIC m 5ee34 0 fmt::v11::detail::write_int<char, fmt::v11::basic_appender<char>, fmt::v11::detail::write_int<char, fmt::v11::basic_appender<char>, unsigned long>(fmt::v11::basic_appender<char>, fmt::v11::detail::write_int_arg<unsigned long>, fmt::v11::format_specs const&, fmt::v11::detail::locale_ref)::{lambda(fmt::v11::basic_appender<char>)#1}>(fmt::v11::basic_appender<char>, int, unsigned int, fmt::v11::format_specs const&, fmt::v11::detail::write_int<char, fmt::v11::basic_appender<char>, unsigned long>(fmt::v11::basic_appender<char>, fmt::v11::detail::write_int_arg<unsigned long>, fmt::v11::format_specs const&, fmt::v11::detail::locale_ref)::{lambda(fmt::v11::basic_appender<char>)#1})::{lambda(fmt::v11::basic_appender<char>(fmt::v11::basic_appender<char>))#1}::operator() const
PUBLIC m 5efd0 0 fmt::v11::detail::write_int<char, fmt::v11::basic_appender<char>, fmt::v11::detail::write_int<char, fmt::v11::basic_appender<char>, unsigned long>(fmt::v11::basic_appender<char>, fmt::v11::detail::write_int_arg<unsigned long>, fmt::v11::format_specs const&, fmt::v11::detail::locale_ref)::{lambda(fmt::v11::basic_appender<char>)#2}>(fmt::v11::basic_appender<char>, int, unsigned int, fmt::v11::format_specs const&, fmt::v11::detail::write_int<char, fmt::v11::basic_appender<char>, unsigned long>(fmt::v11::basic_appender<char>, fmt::v11::detail::write_int_arg<unsigned long>, fmt::v11::format_specs const&, fmt::v11::detail::locale_ref)::{lambda(fmt::v11::basic_appender<char>)#2})::{lambda(fmt::v11::basic_appender<char>(fmt::v11::basic_appender<char>))#1}::operator() const
PUBLIC m 5f1b8 0 fmt::v11::detail::write_int<char, fmt::v11::basic_appender<char>, fmt::v11::detail::write_int<char, fmt::v11::basic_appender<char>, unsigned long>(fmt::v11::basic_appender<char>, fmt::v11::detail::write_int_arg<unsigned long>, fmt::v11::format_specs const&, fmt::v11::detail::locale_ref)::{lambda(fmt::v11::basic_appender<char>)#3}>(fmt::v11::basic_appender<char>, int, unsigned int, fmt::v11::format_specs const&, fmt::v11::detail::write_int<char, fmt::v11::basic_appender<char>, unsigned long>(fmt::v11::basic_appender<char>, fmt::v11::detail::write_int_arg<unsigned long>, fmt::v11::format_specs const&, fmt::v11::detail::locale_ref)::{lambda(fmt::v11::basic_appender<char>)#3})::{lambda(fmt::v11::basic_appender<char>(fmt::v11::basic_appender<char>))#1}::operator() const
PUBLIC m 5f364 0 fmt::v11::detail::write_int<char, fmt::v11::basic_appender<char>, fmt::v11::detail::write_int<char, fmt::v11::basic_appender<char>, unsigned long>(fmt::v11::basic_appender<char>, fmt::v11::detail::write_int_arg<unsigned long>, fmt::v11::format_specs const&, fmt::v11::detail::locale_ref)::{lambda(fmt::v11::basic_appender<char>)#4}>(fmt::v11::basic_appender<char>, int, unsigned int, fmt::v11::format_specs const&, fmt::v11::detail::write_int<char, fmt::v11::basic_appender<char>, unsigned long>(fmt::v11::basic_appender<char>, fmt::v11::detail::write_int_arg<unsigned long>, fmt::v11::format_specs const&, fmt::v11::detail::locale_ref)::{lambda(fmt::v11::basic_appender<char>)#4})::{lambda(fmt::v11::basic_appender<char>(fmt::v11::basic_appender<char>))#1}::operator() const
PUBLIC m 5f518 0 fmt::v11::detail::write_int_noinline<char, fmt::v11::basic_appender<char>, unsigned __int128>(fmt::v11::basic_appender<char>, fmt::v11::detail::write_int_arg<unsigned __int128>, fmt::v11::format_specs const&, fmt::v11::detail::locale_ref)
PUBLIC m 60018 0 fmt::v11::detail::write_int<char, fmt::v11::basic_appender<char>, fmt::v11::detail::write_int<char, fmt::v11::basic_appender<char>, unsigned __int128>(fmt::v11::basic_appender<char>, fmt::v11::detail::write_int_arg<unsigned __int128>, fmt::v11::format_specs const&, fmt::v11::detail::locale_ref)::{lambda(fmt::v11::basic_appender<char>)#1}>(fmt::v11::basic_appender<char>, int, unsigned int, fmt::v11::format_specs const&, fmt::v11::detail::write_int<char, fmt::v11::basic_appender<char>, unsigned __int128>(fmt::v11::basic_appender<char>, fmt::v11::detail::write_int_arg<unsigned __int128>, fmt::v11::format_specs const&, fmt::v11::detail::locale_ref)::{lambda(fmt::v11::basic_appender<char>)#1})::{lambda(fmt::v11::basic_appender<char>(fmt::v11::basic_appender<char>))#1}::operator() const
PUBLIC m 601ec 0 fmt::v11::detail::write_int<char, fmt::v11::basic_appender<char>, fmt::v11::detail::write_int<char, fmt::v11::basic_appender<char>, unsigned __int128>(fmt::v11::basic_appender<char>, fmt::v11::detail::write_int_arg<unsigned __int128>, fmt::v11::format_specs const&, fmt::v11::detail::locale_ref)::{lambda(fmt::v11::basic_appender<char>)#2}>(fmt::v11::basic_appender<char>, int, unsigned int, fmt::v11::format_specs const&, fmt::v11::detail::write_int<char, fmt::v11::basic_appender<char>, unsigned __int128>(fmt::v11::basic_appender<char>, fmt::v11::detail::write_int_arg<unsigned __int128>, fmt::v11::format_specs const&, fmt::v11::detail::locale_ref)::{lambda(fmt::v11::basic_appender<char>)#2})::{lambda(fmt::v11::basic_appender<char>(fmt::v11::basic_appender<char>))#1}::operator() const
PUBLIC m 603ec 0 fmt::v11::detail::write_int<char, fmt::v11::basic_appender<char>, fmt::v11::detail::write_int<char, fmt::v11::basic_appender<char>, unsigned __int128>(fmt::v11::basic_appender<char>, fmt::v11::detail::write_int_arg<unsigned __int128>, fmt::v11::format_specs const&, fmt::v11::detail::locale_ref)::{lambda(fmt::v11::basic_appender<char>)#3}>(fmt::v11::basic_appender<char>, int, unsigned int, fmt::v11::format_specs const&, fmt::v11::detail::write_int<char, fmt::v11::basic_appender<char>, unsigned __int128>(fmt::v11::basic_appender<char>, fmt::v11::detail::write_int_arg<unsigned __int128>, fmt::v11::format_specs const&, fmt::v11::detail::locale_ref)::{lambda(fmt::v11::basic_appender<char>)#3})::{lambda(fmt::v11::basic_appender<char>(fmt::v11::basic_appender<char>))#1}::operator() const
PUBLIC m 605b8 0 fmt::v11::detail::write_int<char, fmt::v11::basic_appender<char>, fmt::v11::detail::write_int<char, fmt::v11::basic_appender<char>, unsigned __int128>(fmt::v11::basic_appender<char>, fmt::v11::detail::write_int_arg<unsigned __int128>, fmt::v11::format_specs const&, fmt::v11::detail::locale_ref)::{lambda(fmt::v11::basic_appender<char>)#4}>(fmt::v11::basic_appender<char>, int, unsigned int, fmt::v11::format_specs const&, fmt::v11::detail::write_int<char, fmt::v11::basic_appender<char>, unsigned __int128>(fmt::v11::basic_appender<char>, fmt::v11::detail::write_int_arg<unsigned __int128>, fmt::v11::format_specs const&, fmt::v11::detail::locale_ref)::{lambda(fmt::v11::basic_appender<char>)#4})::{lambda(fmt::v11::basic_appender<char>(fmt::v11::basic_appender<char>))#1}::operator() const
PUBLIC m 60790 0 fmt::v11::detail::write<char, fmt::v11::basic_appender<char> >(fmt::v11::basic_appender<char>, char, fmt::v11::format_specs const&, fmt::v11::detail::locale_ref)
PUBLIC m 608c8 0 fmt::v11::detail::write_float<char, fmt::v11::basic_appender<char>, float>(fmt::v11::basic_appender<char>, float, fmt::v11::format_specs, fmt::v11::detail::locale_ref)
PUBLIC m 60c60 0 _ZN3fmt3v116detail15format_hexfloatIdTnNSt6__ndk19enable_ifIXntsr16is_double_doubleIT_EE5valueEiE4typeELi0EEEvS5_NS0_12format_specsERNS1_6bufferIcEE
PUBLIC m 61180 0 fmt::v11::detail::format_float<double>(double, int, fmt::v11::detail::float_specs, fmt::v11::detail::buffer<char>&)
PUBLIC m 61978 0 _ZN3fmt3v116detail5writeIcNS0_14basic_appenderIcEEmTnNSt6__ndk19enable_ifIXaaaasr11is_integralIT1_EE5valuentsr3std7is_sameIS7_bEE5valuentsr3std7is_sameIS7_T_EE5valueEiE4typeELi0EEET0_SB_S7_
PUBLIC m 61b84 0 fmt::v11::detail::write_float<char, fmt::v11::basic_appender<char>, double>(fmt::v11::basic_appender<char>, double, fmt::v11::format_specs, fmt::v11::detail::locale_ref)
PUBLIC m 61f10 0 _ZN3fmt3v116detail10loc_writerIcEclIiTnNSt6__ndk19enable_ifIXsr10is_integerIT_EE5valueEiE4typeELi0EEEbS7_
PUBLIC m 62128 0 _ZN3fmt3v116detail10loc_writerIcEclIjTnNSt6__ndk19enable_ifIXsr10is_integerIT_EE5valueEiE4typeELi0EEEbS7_
PUBLIC m 6231c 0 _ZN3fmt3v116detail10loc_writerIcEclIxTnNSt6__ndk19enable_ifIXsr10is_integerIT_EE5valueEiE4typeELi0EEEbS7_
PUBLIC m 62534 0 _ZN3fmt3v116detail10loc_writerIcEclIyTnNSt6__ndk19enable_ifIXsr10is_integerIT_EE5valueEiE4typeELi0EEEbS7_
PUBLIC m 62728 0 _ZN3fmt3v116detail10loc_writerIcEclInTnNSt6__ndk19enable_ifIXsr10is_integerIT_EE5valueEiE4typeELi0EEEbS7_
PUBLIC m 62954 0 _ZN3fmt3v116detail10loc_writerIcEclIoTnNSt6__ndk19enable_ifIXsr10is_integerIT_EE5valueEiE4typeELi0EEEbS7_
PUBLIC m 62b58 0 fmt::v11::detail::write_int<fmt::v11::basic_appender<char>, unsigned long, char>(fmt::v11::basic_appender<char>, unsigned long, unsigned int, fmt::v11::format_specs const&, fmt::v11::detail::digit_grouping<char> const&)
PUBLIC m 63054 0 fmt::v11::detail::write_padded<char, (fmt::v11::align::type)2, fmt::v11::basic_appender<char>, fmt::v11::detail::write_int<fmt::v11::basic_appender<char>, unsigned long, char>(fmt::v11::basic_appender<char>, unsigned long, unsigned int, fmt::v11::format_specs const&, fmt::v11::detail::digit_grouping<char> const&)::{lambda(fmt::v11::basic_appender<char>)#1}>(fmt::v11::basic_appender<char>, fmt::v11::format_specs const&, unsigned long, unsigned long, fmt::v11::detail::write_int<fmt::v11::basic_appender<char>, unsigned long, char>(fmt::v11::basic_appender<char>, unsigned long, unsigned int, fmt::v11::format_specs const&, fmt::v11::detail::digit_grouping<char> const&)::{lambda(fmt::v11::basic_appender<char>&&)#1})
PUBLIC m 63170 0 fmt::v11::detail::write_int<fmt::v11::basic_appender<char>, unsigned __int128, char>(fmt::v11::basic_appender<char>, unsigned __int128, unsigned int, fmt::v11::format_specs const&, fmt::v11::detail::digit_grouping<char> const&)
PUBLIC m 6379c 0 fmt::v11::detail::write_padded<char, (fmt::v11::align::type)2, fmt::v11::basic_appender<char>, fmt::v11::detail::write_int<fmt::v11::basic_appender<char>, unsigned __int128, char>(fmt::v11::basic_appender<char>, unsigned __int128, unsigned int, fmt::v11::format_specs const&, fmt::v11::detail::digit_grouping<char> const&)::{lambda(fmt::v11::basic_appender<char>)#1}>(fmt::v11::basic_appender<char>, fmt::v11::format_specs const&, unsigned long, unsigned long, fmt::v11::detail::write_int<fmt::v11::basic_appender<char>, unsigned __int128, char>(fmt::v11::basic_appender<char>, unsigned __int128, unsigned int, fmt::v11::format_specs const&, fmt::v11::detail::digit_grouping<char> const&)::{lambda(fmt::v11::basic_appender<char>&&)#1})
PUBLIC 638c0 0 <.plt ELF section in geode.texture-loader.android64.so>
STACK CFI INIT 321b0 10 .cfa: sp 0 +
STACK CFI INIT 321c0 8 .cfa: sp 0 +
STACK CFI INIT 321c8 8 .cfa: sp 0 +
STACK CFI INIT 321d0 14 .cfa: sp 0 +
STACK CFI INIT 321e4 1c .cfa: sp 0 +
STACK CFI INIT 32200 10 .cfa: sp 0 +
STACK CFI INIT 32210 30 .cfa: sp 0 +
STACK CFI INIT 32240 98 .cfa: sp 0 +
STACK CFI INIT 322d8 59c .cfa: sp 0 +
STACK CFI INIT 32874 8c .cfa: sp 0 +
STACK CFI INIT 32900 30 .cfa: sp 0 +
STACK CFI INIT 32d68 9c .cfa: sp 0 +
STACK CFI 32d6c .cfa: sp 48 +
STACK CFI 32d78 .cfa: x29 48 + x19: .cfa -8 + ^ x20: .cfa -16 + ^ x21: .cfa -32 + ^ .ra: .cfa -40 + ^ x29: .cfa -48 + ^
STACK CFI 32de0 .cfa: sp 48 +
STACK CFI 32dec .cfa: sp 0 +
STACK CFI 32df0 .cfa: x29 48 +
STACK CFI 32df4 .cfa: sp 48 +
STACK CFI 32e00 .cfa: sp 0 +
STACK CFI INIT 32e04 a4 .cfa: sp 0 +
STACK CFI 32e08 .cfa: sp 48 +
STACK CFI 32e14 .cfa: x29 48 + x19: .cfa -8 + ^ x20: .cfa -16 + ^ x21: .cfa -32 + ^ .ra: .cfa -40 + ^ x29: .cfa -48 + ^
STACK CFI 32e84 .cfa: sp 48 +
STACK CFI 32e90 .cfa: sp 0 +
STACK CFI 32e94 .cfa: x29 48 +
STACK CFI 32e98 .cfa: sp 48 +
STACK CFI 32ea4 .cfa: sp 0 +
STACK CFI INIT 32ea8 d8 .cfa: sp 0 +
STACK CFI 32eac .cfa: sp 48 +
STACK CFI 32eb8 .cfa: x29 48 + x19: .cfa -8 + ^ x20: .cfa -16 + ^ x21: .cfa -32 + ^ .ra: .cfa -40 + ^ x29: .cfa -48 + ^
STACK CFI 32eec .cfa: sp 48 +
STACK CFI 32ef8 .cfa: sp 0 +
STACK CFI 32efc .cfa: x29 48 +
STACK CFI 32f58 .cfa: sp 48 +
STACK CFI 32f64 .cfa: sp 0 +
STACK CFI 32f68 .cfa: x29 48 +
STACK CFI INIT 32f80 10 .cfa: sp 0 +
STACK CFI 32f84 .cfa: sp 16 +
STACK CFI 32f88 .cfa: x29 16 + .ra: .cfa -8 + ^ x29: .cfa -16 + ^
STACK CFI INIT 32f90 80 .cfa: sp 0 +
STACK CFI 32f94 .cfa: sp 48 +
STACK CFI 32fa0 .cfa: x29 48 + x19: .cfa -8 + ^ x20: .cfa -16 + ^ x21: .cfa -24 + ^ x22: .cfa -32 + ^ .ra: .cfa -40 + ^ x29: .cfa -48 + ^
STACK CFI 32fb8 .cfa: sp 48 +
STACK CFI 32fc4 .cfa: sp 0 +
STACK CFI 32fc8 .cfa: x29 48 +
STACK CFI 32ff8 .cfa: sp 48 +
STACK CFI 33004 .cfa: sp 0 +
STACK CFI 33008 .cfa: x29 48 +
STACK CFI INIT 33010 14 .cfa: sp 0 +
STACK CFI 33014 .cfa: sp 16 +
STACK CFI 33018 .cfa: x29 16 + .ra: .cfa -8 + ^ x29: .cfa -16 + ^
STACK CFI INIT 33074 30 .cfa: sp 0 +
STACK CFI 33078 .cfa: sp 32 +
STACK CFI 33080 .cfa: x29 32 + x19: .cfa -16 + ^ .ra: .cfa -24 + ^ x29: .cfa -32 + ^
STACK CFI 33098 .cfa: sp 32 +
STACK CFI 330a0 .cfa: sp 0 +
STACK CFI INIT 330a4 34 .cfa: sp 0 +
STACK CFI 330a8 .cfa: sp 32 +
STACK CFI 330b0 .cfa: x29 32 + x19: .cfa -16 + ^ .ra: .cfa -24 + ^ x29: .cfa -32 + ^
STACK CFI INIT 33244 8c .cfa: sp 0 +
STACK CFI 33248 .cfa: sp 48 +
STACK CFI 33254 .cfa: x29 48 + x19: .cfa -8 + ^ x20: .cfa -16 + ^ x21: .cfa -24 + ^ x22: .cfa -32 + ^ .ra: .cfa -40 + ^ x29: .cfa -48 + ^
STACK CFI 3325c .cfa: sp 48 +
STACK CFI 33268 .cfa: sp 0 +
STACK CFI 3326c .cfa: x29 48 +
STACK CFI 332c0 .cfa: sp 48 +
STACK CFI 332cc .cfa: sp 0 +
STACK CFI INIT 332d0 14 .cfa: sp 0 +
STACK CFI 332d4 .cfa: sp 16 +
STACK CFI 332d8 .cfa: x29 16 + .ra: .cfa -8 + ^ x29: .cfa -16 + ^
STACK CFI INIT 332e4 60 .cfa: sp 0 +
STACK CFI 332f4 .cfa: sp 32 +
STACK CFI 332fc .cfa: x29 32 + x19: .cfa -8 + ^ x20: .cfa -16 + ^ .ra: .cfa -24 + ^ x29: .cfa -32 + ^
STACK CFI 33338 .cfa: sp 32 +
STACK CFI 33340 .cfa: sp 0 +
STACK CFI INIT 33730 ac .cfa: sp 0 +
STACK CFI 33734 .cfa: sp 64 +
STACK CFI 33744 .cfa: x29 64 + x19: .cfa -8 + ^ x20: .cfa -16 + ^ x21: .cfa -24 + ^ x22: .cfa -32 + ^ x23: .cfa -48 + ^ .ra: .cfa -56 + ^ x29: .cfa -64 + ^
STACK CFI 337c0 .cfa: sp 64 +
STACK CFI 337d0 .cfa: sp 0 +
STACK CFI 337d4 .cfa: x29 64 +
STACK CFI INIT 337dc 110 .cfa: sp 0 +
STACK CFI 337e0 .cfa: sp 64 +
STACK CFI 337f0 .cfa: x29 64 + x19: .cfa -8 + ^ x20: .cfa -16 + ^ x21: .cfa -24 + ^ x22: .cfa -32 + ^ x23: .cfa -40 + ^ x24: .cfa -48 + ^ .ra: .cfa -56 + ^ x29: .cfa -64 + ^
STACK CFI 338d0 .cfa: sp 64 +
STACK CFI 338e0 .cfa: sp 0 +
STACK CFI 338e4 .cfa: x29 64 +
STACK CFI INIT 33c48 68 .cfa: sp 0 +
STACK CFI 33c4c .cfa: sp 48 +
STACK CFI 33c58 .cfa: x29 48 + x19: .cfa -8 + ^ x20: .cfa -16 + ^ x21: .cfa -32 + ^ .ra: .cfa -40 + ^ x29: .cfa -48 + ^
STACK CFI 33c90 .cfa: sp 48 +
STACK CFI 33c9c .cfa: sp 0 +
STACK CFI 33ca0 .cfa: sp 48 +
STACK CFI 33cac .cfa: sp 0 +
STACK CFI INIT 33cb0 a8 .cfa: sp 0 +
STACK CFI 33cb4 .cfa: sp 48 +
STACK CFI 33cc0 .cfa: x29 48 + x19: .cfa -8 + ^ x20: .cfa -16 + ^ x21: .cfa -24 + ^ x22: .cfa -32 + ^ .ra: .cfa -40 + ^ x29: .cfa -48 + ^
STACK CFI 33ce0 .cfa: sp 48 +
STACK CFI 33cec .cfa: sp 0 +
STACK CFI 33cf0 .cfa: x29 48 +
STACK CFI 33d38 .cfa: sp 48 +
STACK CFI 33d44 .cfa: sp 0 +
STACK CFI 33d48 .cfa: sp 48 +
STACK CFI 33d54 .cfa: sp 0 +
STACK CFI INIT 3428c 14 .cfa: sp 0 +
STACK CFI 34290 .cfa: sp 16 +
STACK CFI 34294 .cfa: x29 16 + .ra: .cfa -8 + ^ x29: .cfa -16 + ^
STACK CFI INIT 347d4 6c .cfa: sp 0 +
STACK CFI 347d8 .cfa: sp 32 +
STACK CFI 347e0 .cfa: x29 32 + x19: .cfa -16 + ^ .ra: .cfa -24 + ^ x29: .cfa -32 + ^
STACK CFI 34834 .cfa: sp 32 +
STACK CFI 3483c .cfa: sp 0 +
STACK CFI INIT 34840 74 .cfa: sp 0 +
STACK CFI 34844 .cfa: sp 32 +
STACK CFI 3484c .cfa: x29 32 + x19: .cfa -16 + ^ .ra: .cfa -24 + ^ x29: .cfa -32 + ^
STACK CFI 348a8 .cfa: sp 32 +
STACK CFI 348b0 .cfa: sp 0 +
STACK CFI INIT 348b4 4 .cfa: sp 0 +
STACK CFI INIT 348b8 4 .cfa: sp 0 +
STACK CFI INIT 348bc 34 .cfa: sp 0 +
STACK CFI 348c0 .cfa: sp 32 +
STACK CFI 348c8 .cfa: x29 32 + x19: .cfa -16 + ^ .ra: .cfa -24 + ^ x29: .cfa -32 + ^
STACK CFI 348e4 .cfa: sp 32 +
STACK CFI 348ec .cfa: sp 0 +
STACK CFI INIT 348f0 14 .cfa: sp 0 +
STACK CFI INIT 34904 4 .cfa: sp 0 +
STACK CFI INIT 34908 4 .cfa: sp 0 +
STACK CFI INIT 3490c 10 .cfa: sp 0 +
STACK CFI INIT 3491c 1c .cfa: sp 0 +
STACK CFI INIT 34938 c .cfa: sp 0 +
STACK CFI INIT 34944 44c .cfa: sp 0 +
STACK CFI INIT 353e8 50 .cfa: sp 0 +
STACK CFI 3540c .cfa: sp 32 +
STACK CFI 35414 .cfa: x29 32 + x19: .cfa -16 + ^ .ra: .cfa -24 + ^ x29: .cfa -32 + ^
STACK CFI 35428 .cfa: sp 32 +
STACK CFI 35430 .cfa: sp 0 +
STACK CFI INIT 35438 104 .cfa: sp 0 +
STACK CFI 3543c .cfa: sp 64 +
STACK CFI 3544c .cfa: x29 64 + x19: .cfa -8 + ^ x20: .cfa -16 + ^ x21: .cfa -24 + ^ x22: .cfa -32 + ^ x23: .cfa -48 + ^ .ra: .cfa -56 + ^ x29: .cfa -64 + ^
STACK CFI 354a8 .cfa: sp 64 +
STACK CFI 354b8 .cfa: sp 0 +
STACK CFI 354bc .cfa: x29 64 +
STACK CFI 354d8 .cfa: sp 64 +
STACK CFI 354e8 .cfa: sp 0 +
STACK CFI 354ec .cfa: x29 64 +
STACK CFI 35528 .cfa: sp 64 +
STACK CFI 35538 .cfa: sp 0 +
STACK CFI INIT 3553c 34 .cfa: sp 0 +
STACK CFI 35540 .cfa: sp 16 +
STACK CFI 35544 .cfa: x29 16 + .ra: .cfa -8 + ^ x29: .cfa -16 + ^
STACK CFI INIT 35570 24 .cfa: sp 0 +
STACK CFI 35574 .cfa: sp 32 +
STACK CFI 3557c .cfa: x29 32 + x19: .cfa -16 + ^ .ra: .cfa -24 + ^ x29: .cfa -32 + ^
STACK CFI 35588 .cfa: sp 32 +
STACK CFI 35590 .cfa: sp 0 +
STACK CFI INIT 35ba0 f4 .cfa: sp 0 +
STACK CFI 35ba4 .cfa: sp 80 +
STACK CFI 35bb4 .cfa: x29 48 + x19: .cfa -8 + ^ x20: .cfa -16 + ^ x21: .cfa -24 + ^ x22: .cfa -32 + ^ .ra: .cfa -40 + ^ x29: .cfa -48 + ^
STACK CFI 35c54 .cfa: sp 80 +
STACK CFI 35c64 .cfa: sp 0 +
STACK CFI 35c68 .cfa: x29 48 +
STACK CFI INIT 35c94 104 .cfa: sp 0 +
STACK CFI 35c98 .cfa: sp 96 +
STACK CFI 35cac .cfa: x29 64 + x19: .cfa -8 + ^ x20: .cfa -16 + ^ x21: .cfa -24 + ^ x22: .cfa -32 + ^ x23: .cfa -48 + ^ .ra: .cfa -56 + ^ x29: .cfa -64 + ^
STACK CFI 35d54 .cfa: sp 96 +
STACK CFI 35d68 .cfa: sp 0 +
STACK CFI 35d6c .cfa: x29 64 +
STACK CFI INIT 35d98 84 .cfa: sp 0 +
STACK CFI 35d9c .cfa: sp 48 +
STACK CFI 35da8 .cfa: x29 32 + x19: .cfa -8 + ^ x20: .cfa -16 + ^ .ra: .cfa -24 + ^ x29: .cfa -32 + ^
STACK CFI 35df4 .cfa: sp 48 +
STACK CFI 35e00 .cfa: sp 0 +
STACK CFI 35e04 .cfa: x29 32 +
STACK CFI INIT 35e1c 84 .cfa: sp 0 +
STACK CFI 35e20 .cfa: sp 48 +
STACK CFI 35e2c .cfa: x29 32 + x19: .cfa -8 + ^ x20: .cfa -16 + ^ .ra: .cfa -24 + ^ x29: .cfa -32 + ^
STACK CFI 35e78 .cfa: sp 48 +
STACK CFI 35e84 .cfa: sp 0 +
STACK CFI 35e88 .cfa: x29 32 +
STACK CFI INIT 35ea0 18 .cfa: sp 0 +
STACK CFI INIT 35eb8 18 .cfa: sp 0 +
STACK CFI INIT 361e8 8 .cfa: sp 0 +
STACK CFI INIT 361f0 e0 .cfa: sp 0 +
STACK CFI 361f4 .cfa: sp 32 +
STACK CFI 361fc .cfa: x29 32 + x19: .cfa -16 + ^ .ra: .cfa -24 + ^ x29: .cfa -32 + ^
STACK CFI 362c4 .cfa: sp 32 +
STACK CFI 362cc .cfa: sp 0 +
STACK CFI INIT 362d0 e8 .cfa: sp 0 +
STACK CFI 362d4 .cfa: sp 32 +
STACK CFI 362dc .cfa: x29 32 + x19: .cfa -16 + ^ .ra: .cfa -24 + ^ x29: .cfa -32 + ^
STACK CFI 363ac .cfa: sp 32 +
STACK CFI 363b4 .cfa: sp 0 +
STACK CFI INIT 363b8 e4 .cfa: sp 0 +
STACK CFI 363bc .cfa: sp 32 +
STACK CFI 363c4 .cfa: x29 32 + x19: .cfa -8 + ^ x20: .cfa -16 + ^ .ra: .cfa -24 + ^ x29: .cfa -32 + ^
STACK CFI 36490 .cfa: sp 32 +
STACK CFI 36498 .cfa: sp 0 +
STACK CFI INIT 3649c ec .cfa: sp 0 +
STACK CFI 364a0 .cfa: sp 32 +
STACK CFI 364a8 .cfa: x29 32 + x19: .cfa -8 + ^ x20: .cfa -16 + ^ .ra: .cfa -24 + ^ x29: .cfa -32 + ^
STACK CFI 3657c .cfa: sp 32 +
STACK CFI 36584 .cfa: sp 0 +
STACK CFI INIT 36588 4 .cfa: sp 0 +
STACK CFI INIT 3658c 4 .cfa: sp 0 +
STACK CFI INIT 36590 4 .cfa: sp 0 +
STACK CFI INIT 36594 4 .cfa: sp 0 +
STACK CFI INIT 36e10 1c .cfa: sp 0 +
STACK CFI INIT 36e2c 1c .cfa: sp 0 +
STACK CFI INIT 375fc 50 .cfa: sp 0 +
STACK CFI 37600 .cfa: sp 32 +
STACK CFI 37608 .cfa: x29 32 + x19: .cfa -16 + ^ .ra: .cfa -24 + ^ x29: .cfa -32 + ^
STACK CFI 37620 .cfa: sp 32 +
STACK CFI 37628 .cfa: sp 0 +
STACK CFI 3762c .cfa: x29 32 +
STACK CFI 37640 .cfa: sp 32 +
STACK CFI 37648 .cfa: sp 0 +
STACK CFI INIT 376c0 7c .cfa: sp 0 +
STACK CFI 376c4 .cfa: sp 48 +
STACK CFI 376d0 .cfa: x29 48 + x19: .cfa -8 + ^ x20: .cfa -16 + ^ x21: .cfa -32 + ^ .ra: .cfa -40 + ^ x29: .cfa -48 + ^
STACK CFI 3771c .cfa: sp 48 +
STACK CFI 37728 .cfa: sp 0 +
STACK CFI 3772c .cfa: sp 48 +
STACK CFI 37738 .cfa: sp 0 +
STACK CFI INIT 3773c 4 .cfa: sp 0 +
STACK CFI INIT 37894 34 .cfa: sp 0 +
STACK CFI 37898 .cfa: sp 16 +
STACK CFI 3789c .cfa: x29 16 + .ra: .cfa -8 + ^ x29: .cfa -16 + ^
STACK CFI INIT 379f4 80 .cfa: sp 0 +
STACK CFI 379f8 .cfa: sp 48 +
STACK CFI 37a04 .cfa: x29 48 + x19: .cfa -8 + ^ x20: .cfa -16 + ^ x21: .cfa -32 + ^ .ra: .cfa -40 + ^ x29: .cfa -48 + ^
STACK CFI 37a64 .cfa: sp 48 +
STACK CFI 37a70 .cfa: sp 0 +
STACK CFI INIT 37a74 24 .cfa: sp 0 +
STACK CFI 37a78 .cfa: sp 32 +
STACK CFI 37a80 .cfa: x29 32 + x19: .cfa -16 + ^ .ra: .cfa -24 + ^ x29: .cfa -32 + ^
STACK CFI 37a8c .cfa: sp 32 +
STACK CFI 37a94 .cfa: sp 0 +
STACK CFI INIT 37f90 148 .cfa: sp 0 +
STACK CFI 37f94 .cfa: sp 48 +
STACK CFI 37fa0 .cfa: x29 48 + x19: .cfa -8 + ^ x20: .cfa -16 + ^ x21: .cfa -32 + ^ .ra: .cfa -40 + ^ x29: .cfa -48 + ^
STACK CFI 380c8 .cfa: sp 48 +
STACK CFI 380d4 .cfa: sp 0 +
STACK CFI INIT 38300 68 .cfa: sp 0 +
STACK CFI 38304 .cfa: sp 32 +
STACK CFI 3830c .cfa: x29 32 + x19: .cfa -8 + ^ x20: .cfa -16 + ^ .ra: .cfa -24 + ^ x29: .cfa -32 + ^
STACK CFI 38324 .cfa: sp 32 +
STACK CFI 3832c .cfa: sp 0 +
STACK CFI 38330 .cfa: x29 32 +
STACK CFI 3835c .cfa: sp 32 +
STACK CFI 38364 .cfa: sp 0 +
STACK CFI INIT 38368 4 .cfa: sp 0 +
STACK CFI INIT 3836c 14 .cfa: sp 0 +
STACK CFI INIT 38380 120 .cfa: sp 0 +
STACK CFI 38384 .cfa: sp 64 +
STACK CFI 38394 .cfa: x29 64 + x19: .cfa -8 + ^ x20: .cfa -16 + ^ x21: .cfa -24 + ^ x22: .cfa -32 + ^ x23: .cfa -40 + ^ x24: .cfa -48 + ^ .ra: .cfa -56 + ^ x29: .cfa -64 + ^
STACK CFI 3848c .cfa: sp 64 +
STACK CFI 3849c .cfa: sp 0 +
STACK CFI INIT 384a0 d4 .cfa: sp 0 +
STACK CFI 384a4 .cfa: sp 48 +
STACK CFI 384b0 .cfa: x29 48 + x19: .cfa -8 + ^ x20: .cfa -16 + ^ x21: .cfa -32 + ^ .ra: .cfa -40 + ^ x29: .cfa -48 + ^
STACK CFI 38540 .cfa: sp 48 +
STACK CFI 3854c .cfa: sp 0 +
STACK CFI 38550 .cfa: x29 48 +
STACK CFI INIT 38574 3c8 .cfa: sp 0 +
STACK CFI INIT 3893c 8c .cfa: sp 0 +
STACK CFI 38944 .cfa: sp 32 +
STACK CFI 3894c .cfa: x29 32 + x19: .cfa -8 + ^ x20: .cfa -16 + ^ .ra: .cfa -24 + ^ x29: .cfa -32 + ^
STACK CFI 38994 .cfa: sp 32 +
STACK CFI 3899c .cfa: sp 0 +
STACK CFI 389a4 .cfa: x29 32 +
STACK CFI INIT 38afc 6c .cfa: sp 0 +
STACK CFI 38b00 .cfa: sp 32 +
STACK CFI 38b08 .cfa: x29 32 + x19: .cfa -16 + ^ .ra: .cfa -24 + ^ x29: .cfa -32 + ^
STACK CFI 38b10 .cfa: sp 32 +
STACK CFI 38b18 .cfa: sp 0 +
STACK CFI 38b1c .cfa: x29 32 +
STACK CFI 38b38 .cfa: sp 32 +
STACK CFI 38b40 .cfa: sp 0 +
STACK CFI 38b44 .cfa: x29 32 +
STACK CFI 38b5c .cfa: sp 32 +
STACK CFI 38b64 .cfa: sp 0 +
STACK CFI INIT 38b68 9c .cfa: sp 0 +
STACK CFI 38b6c .cfa: sp 32 +
STACK CFI 38b74 .cfa: x29 32 + x19: .cfa -16 + ^ .ra: .cfa -24 + ^ x29: .cfa -32 + ^
STACK CFI 38bc4 .cfa: sp 32 +
STACK CFI 38bcc .cfa: sp 0 +
STACK CFI 38bd0 .cfa: x29 32 +
STACK CFI 38bd4 .cfa: sp 32 +
STACK CFI 38bdc .cfa: sp 0 +
STACK CFI 38be0 .cfa: x29 32 +
STACK CFI 38bf8 .cfa: sp 32 +
STACK CFI 38c00 .cfa: sp 0 +
STACK CFI INIT 38c04 50 .cfa: sp 0 +
STACK CFI 38c10 .cfa: sp 32 +
STACK CFI 38c18 .cfa: x29 32 + x19: .cfa -16 + ^ .ra: .cfa -24 + ^ x29: .cfa -32 + ^
STACK CFI 38c38 .cfa: sp 32 +
STACK CFI 38c40 .cfa: sp 0 +
STACK CFI 38c44 .cfa: x29 32 +
STACK CFI 38c48 .cfa: sp 32 +
STACK CFI 38c50 .cfa: sp 0 +
STACK CFI INIT 38c54 50 .cfa: sp 0 +
STACK CFI 38c58 .cfa: sp 32 +
STACK CFI 38c60 .cfa: x29 32 + x19: .cfa -16 + ^ .ra: .cfa -24 + ^ x29: .cfa -32 + ^
STACK CFI 38c78 .cfa: sp 32 +
STACK CFI 38c80 .cfa: sp 0 +
STACK CFI 38c84 .cfa: x29 32 +
STACK CFI 38c98 .cfa: sp 32 +
STACK CFI 38ca0 .cfa: sp 0 +
STACK CFI INIT 38ca4 64 .cfa: sp 0 +
STACK CFI 38ca8 .cfa: sp 32 +
STACK CFI 38cb0 .cfa: x29 32 + x19: .cfa -16 + ^ .ra: .cfa -24 + ^ x29: .cfa -32 + ^
STACK CFI 38cdc .cfa: sp 32 +
STACK CFI 38ce4 .cfa: sp 0 +
STACK CFI 38ce8 .cfa: x29 32 +
STACK CFI 38cfc .cfa: sp 32 +
STACK CFI 38d04 .cfa: sp 0 +
STACK CFI INIT 38e20 24 .cfa: sp 0 +
STACK CFI 38e24 .cfa: sp 32 +
STACK CFI 38e2c .cfa: x29 32 + x19: .cfa -16 + ^ .ra: .cfa -24 + ^ x29: .cfa -32 + ^
STACK CFI 38e38 .cfa: sp 32 +
STACK CFI 38e40 .cfa: sp 0 +
STACK CFI INIT 38e44 18 .cfa: sp 0 +
STACK CFI INIT 38e5c 4 .cfa: sp 0 +
STACK CFI INIT 38e60 178 .cfa: sp 0 +
STACK CFI 38e64 .cfa: sp 80 +
STACK CFI 38e78 .cfa: x29 80 + x19: .cfa -8 + ^ x20: .cfa -16 + ^ x21: .cfa -24 + ^ x22: .cfa -32 + ^ x23: .cfa -40 + ^ x24: .cfa -48 + ^ x25: .cfa -56 + ^ x26: .cfa -64 + ^ .ra: .cfa -72 + ^ x29: .cfa -80 + ^
STACK CFI 38fc0 .cfa: sp 80 +
STACK CFI 38fd4 .cfa: sp 0 +
STACK CFI INIT 38fd8 1b0 .cfa: sp 0 +
STACK CFI INIT 39234 7c .cfa: sp 0 +
STACK CFI 39238 .cfa: sp 32 +
STACK CFI 39240 .cfa: x29 32 + x19: .cfa -16 + ^ .ra: .cfa -24 + ^ x29: .cfa -32 + ^
STACK CFI 392a4 .cfa: sp 32 +
STACK CFI 392ac .cfa: sp 0 +
STACK CFI INIT 39638 4 .cfa: sp 0 +
STACK CFI INIT 3963c 410 .cfa: sp 0 +
STACK CFI 39640 .cfa: sp 112 +
STACK CFI 39658 .cfa: x29 80 + x19: .cfa -8 + ^ x20: .cfa -16 + ^ x21: .cfa -24 + ^ x22: .cfa -32 + ^ x23: .cfa -40 + ^ x24: .cfa -48 + ^ x25: .cfa -64 + ^ .ra: .cfa -72 + ^ x29: .cfa -80 + ^
STACK CFI 39a2c .cfa: sp 112 +
STACK CFI 39a44 .cfa: sp 0 +
STACK CFI 39a48 .cfa: x29 80 +
STACK CFI INIT 39a4c 58 .cfa: sp 0 +
STACK CFI INIT 39aa4 24c .cfa: sp 0 +
STACK CFI INIT 3a678 28 .cfa: sp 0 +
STACK CFI INIT 3a6a0 2c .cfa: sp 0 +
STACK CFI INIT 3ad78 8c .cfa: sp 0 +
STACK CFI 3ad7c .cfa: sp 48 +
STACK CFI 3ad88 .cfa: x29 48 + x19: .cfa -8 + ^ x20: .cfa -16 + ^ x21: .cfa -32 + ^ .ra: .cfa -40 + ^ x29: .cfa -48 + ^
STACK CFI 3ade0 .cfa: sp 48 +
STACK CFI 3adec .cfa: sp 0 +
STACK CFI 3adf0 .cfa: x29 48 +
STACK CFI 3adf4 .cfa: sp 48 +
STACK CFI 3ae00 .cfa: sp 0 +
STACK CFI INIT 3b9a8 8c .cfa: sp 0 +
STACK CFI 3b9ac .cfa: sp 32 +
STACK CFI 3b9b4 .cfa: x29 32 + x19: .cfa -16 + ^ .ra: .cfa -24 + ^ x29: .cfa -32 + ^
STACK CFI 3b9dc .cfa: sp 32 +
STACK CFI 3b9e4 .cfa: sp 0 +
STACK CFI 3b9e8 .cfa: x29 32 +
STACK CFI 3ba08 .cfa: sp 32 +
STACK CFI 3ba10 .cfa: sp 0 +
STACK CFI 3ba14 .cfa: x29 32 +
STACK CFI 3ba28 .cfa: sp 32 +
STACK CFI 3ba30 .cfa: sp 0 +
STACK CFI INIT 3d8c8 50 .cfa: sp 0 +
STACK CFI 3d8cc .cfa: sp 32 +
STACK CFI 3d8d4 .cfa: x29 32 + x19: .cfa -16 + ^ .ra: .cfa -24 + ^ x29: .cfa -32 + ^
STACK CFI 3d8ec .cfa: sp 32 +
STACK CFI 3d8f4 .cfa: sp 0 +
STACK CFI 3d8f8 .cfa: x29 32 +
STACK CFI 3d90c .cfa: sp 32 +
STACK CFI 3d914 .cfa: sp 0 +
STACK CFI INIT 3dce0 50 .cfa: sp 0 +
STACK CFI 3dce4 .cfa: sp 32 +
STACK CFI 3dcec .cfa: x29 32 + x19: .cfa -16 + ^ .ra: .cfa -24 + ^ x29: .cfa -32 + ^
STACK CFI 3dd04 .cfa: sp 32 +
STACK CFI 3dd0c .cfa: sp 0 +
STACK CFI 3dd10 .cfa: x29 32 +
STACK CFI 3dd24 .cfa: sp 32 +
STACK CFI 3dd2c .cfa: sp 0 +
STACK CFI INIT 3e0c0 3c .cfa: sp 0 +
STACK CFI 3e0c4 .cfa: sp 32 +
STACK CFI 3e0cc .cfa: x29 32 + x19: .cfa -16 + ^ .ra: .cfa -24 + ^ x29: .cfa -32 + ^
STACK CFI 3e0e0 .cfa: sp 32 +
STACK CFI 3e0e8 .cfa: sp 0 +
STACK CFI 3e0ec .cfa: x29 32 +
STACK CFI 3e0f0 .cfa: sp 32 +
STACK CFI 3e0f8 .cfa: sp 0 +
STACK CFI INIT 3e4e8 34 .cfa: sp 0 +
STACK CFI 3e4ec .cfa: sp 32 +
STACK CFI 3e4f4 .cfa: x29 32 + x19: .cfa -16 + ^ .ra: .cfa -24 + ^ x29: .cfa -32 + ^
STACK CFI 3e510 .cfa: sp 32 +
STACK CFI 3e518 .cfa: sp 0 +
STACK CFI INIT 3e684 4 .cfa: sp 0 +
STACK CFI INIT 3e688 14 .cfa: sp 0 +
STACK CFI INIT 3ebb4 e8 .cfa: sp 0 +
STACK CFI 3ebb8 .cfa: sp 32 +
STACK CFI 3ebc0 .cfa: x29 32 + x19: .cfa -8 + ^ x20: .cfa -16 + ^ .ra: .cfa -24 + ^ x29: .cfa -32 + ^
STACK CFI 3ec00 .cfa: sp 32 +
STACK CFI 3ec08 .cfa: sp 0 +
STACK CFI 3ec0c .cfa: x29 32 +
STACK CFI 3ec48 .cfa: sp 32 +
STACK CFI 3ec50 .cfa: sp 0 +
STACK CFI 3ec54 .cfa: x29 32 +
STACK CFI 3ec74 .cfa: sp 32 +
STACK CFI 3ec7c .cfa: sp 0 +
STACK CFI 3ec80 .cfa: x29 32 +
STACK CFI 3ec90 .cfa: sp 32 +
STACK CFI 3ec98 .cfa: sp 0 +
STACK CFI INIT 3ec9c 9c .cfa: sp 0 +
STACK CFI 3eca0 .cfa: sp 48 +
STACK CFI 3ecac .cfa: x29 48 + x19: .cfa -8 + ^ x20: .cfa -16 + ^ x21: .cfa -32 + ^ .ra: .cfa -40 + ^ x29: .cfa -48 + ^
STACK CFI 3ed14 .cfa: sp 48 +
STACK CFI 3ed20 .cfa: sp 0 +
STACK CFI 3ed24 .cfa: x29 48 +
STACK CFI 3ed28 .cfa: sp 48 +
STACK CFI 3ed34 .cfa: sp 0 +
STACK CFI INIT 3ed38 14 .cfa: sp 0 +
STACK CFI INIT 3ed4c 8 .cfa: sp 0 +
STACK CFI INIT 3ed54 14 .cfa: sp 0 +
STACK CFI INIT 3ed68 14 .cfa: sp 0 +
STACK CFI INIT 3ed7c 14 .cfa: sp 0 +
STACK CFI INIT 3ed90 8 .cfa: sp 0 +
STACK CFI INIT 3ed98 14 .cfa: sp 0 +
STACK CFI INIT 3edac 68 .cfa: sp 0 +
STACK CFI 3edb0 .cfa: sp 48 +
STACK CFI 3edbc .cfa: x29 48 + x19: .cfa -8 + ^ x20: .cfa -16 + ^ x21: .cfa -32 + ^ .ra: .cfa -40 + ^ x29: .cfa -48 + ^
STACK CFI 3edf4 .cfa: sp 48 +
STACK CFI 3ee00 .cfa: sp 0 +
STACK CFI 3ee04 .cfa: sp 48 +
STACK CFI 3ee10 .cfa: sp 0 +
STACK CFI INIT 3efb8 54 .cfa: sp 0 +
STACK CFI 3efbc .cfa: sp 32 +
STACK CFI 3efc4 .cfa: x29 32 + x19: .cfa -8 + ^ x20: .cfa -16 + ^ .ra: .cfa -24 + ^ x29: .cfa -32 + ^
STACK CFI 3eff4 .cfa: sp 32 +
STACK CFI 3effc .cfa: sp 0 +
STACK CFI 3f000 .cfa: sp 32 +
STACK CFI 3f008 .cfa: sp 0 +
STACK CFI INIT 3f00c 14 .cfa: sp 0 +
STACK CFI 3f010 .cfa: sp 16 +
STACK CFI 3f014 .cfa: x29 16 + .ra: .cfa -8 + ^ x29: .cfa -16 + ^
STACK CFI INIT 3f680 50 .cfa: sp 0 +
STACK CFI 3f684 .cfa: sp 32 +
STACK CFI 3f68c .cfa: x29 32 + x19: .cfa -16 + ^ .ra: .cfa -24 + ^ x29: .cfa -32 + ^
STACK CFI 3f6a4 .cfa: sp 32 +
STACK CFI 3f6ac .cfa: sp 0 +
STACK CFI 3f6b0 .cfa: x29 32 +
STACK CFI 3f6c4 .cfa: sp 32 +
STACK CFI 3f6cc .cfa: sp 0 +
STACK CFI INIT 3f6d0 14 .cfa: sp 0 +
STACK CFI INIT 3f6e4 14 .cfa: sp 0 +
STACK CFI INIT 3f6f8 14 .cfa: sp 0 +
STACK CFI INIT 3fee8 34 .cfa: sp 0 +
STACK CFI 3feec .cfa: sp 32 +
STACK CFI 3fef4 .cfa: x29 32 + x19: .cfa -16 + ^ .ra: .cfa -24 + ^ x29: .cfa -32 + ^
STACK CFI 3ff10 .cfa: sp 32 +
STACK CFI 3ff18 .cfa: sp 0 +
STACK CFI INIT 3ff1c 4 .cfa: sp 0 +
STACK CFI INIT 3ff20 14 .cfa: sp 0 +
STACK CFI INIT 40880 168 .cfa: sp 0 +
STACK CFI 40884 .cfa: sp 48 +
STACK CFI 40890 .cfa: x29 48 + x19: .cfa -8 + ^ x20: .cfa -16 + ^ x21: .cfa -24 + ^ x22: .cfa -32 + ^ .ra: .cfa -40 + ^ x29: .cfa -48 + ^
STACK CFI 409cc .cfa: sp 48 +
STACK CFI 409d8 .cfa: sp 0 +
STACK CFI 409dc .cfa: x29 48 +
STACK CFI INIT 409e8 7c .cfa: sp 0 +
STACK CFI 409ec .cfa: sp 48 +
STACK CFI 409f8 .cfa: x29 48 + x19: .cfa -8 + ^ x20: .cfa -16 + ^ x21: .cfa -32 + ^ .ra: .cfa -40 + ^ x29: .cfa -48 + ^
STACK CFI 40a44 .cfa: sp 48 +
STACK CFI 40a50 .cfa: sp 0 +
STACK CFI 40a54 .cfa: sp 48 +
STACK CFI 40a60 .cfa: sp 0 +
STACK CFI INIT 40a64 14 .cfa: sp 0 +
STACK CFI INIT 40a78 10 .cfa: sp 0 +
STACK CFI INIT 40a88 30 .cfa: sp 0 +
STACK CFI 40a8c .cfa: sp 32 +
STACK CFI 40a94 .cfa: x29 32 + x19: .cfa -16 + ^ .ra: .cfa -24 + ^ x29: .cfa -32 + ^
STACK CFI 40aac .cfa: sp 32 +
STACK CFI 40ab4 .cfa: sp 0 +
STACK CFI INIT 40ab8 8 .cfa: sp 0 +
STACK CFI INIT 40ac0 4 .cfa: sp 0 +
STACK CFI INIT 42350 2c .cfa: sp 0 +
STACK CFI 42354 .cfa: sp 32 +
STACK CFI 4235c .cfa: x29 32 + x19: .cfa -16 + ^ .ra: .cfa -24 + ^ x29: .cfa -32 + ^
STACK CFI 42370 .cfa: sp 32 +
STACK CFI 42378 .cfa: sp 0 +
STACK CFI INIT 4237c 28 .cfa: sp 0 +
STACK CFI INIT 423a4 4 .cfa: sp 0 +
STACK CFI INIT 423a8 8 .cfa: sp 0 +
STACK CFI INIT 426d0 2c .cfa: sp 0 +
STACK CFI INIT 426fc 4 .cfa: sp 0 +
STACK CFI INIT 42700 8 .cfa: sp 0 +
STACK CFI INIT 42708 14 .cfa: sp 0 +
STACK CFI 4270c .cfa: sp 16 +
STACK CFI 42710 .cfa: x29 16 + .ra: .cfa -8 + ^ x29: .cfa -16 + ^
STACK CFI INIT 4276c 30 .cfa: sp 0 +
STACK CFI 42770 .cfa: sp 32 +
STACK CFI 42778 .cfa: x29 32 + x19: .cfa -16 + ^ .ra: .cfa -24 + ^ x29: .cfa -32 + ^
STACK CFI 42790 .cfa: sp 32 +
STACK CFI 42798 .cfa: sp 0 +
STACK CFI INIT 42808 4 .cfa: sp 0 +
STACK CFI INIT 42878 4 .cfa: sp 0 +
STACK CFI INIT 4287c 60 .cfa: sp 0 +
STACK CFI 42880 .cfa: sp 32 +
STACK CFI 42888 .cfa: x29 32 + x19: .cfa -8 + ^ x20: .cfa -16 + ^ .ra: .cfa -24 + ^ x29: .cfa -32 + ^
STACK CFI 428a8 .cfa: sp 32 +
STACK CFI 428b0 .cfa: sp 0 +
STACK CFI 428b4 .cfa: x29 32 +
STACK CFI 428d0 .cfa: sp 32 +
STACK CFI 428d8 .cfa: sp 0 +
STACK CFI INIT 428dc 70 .cfa: sp 0 +
STACK CFI 428e0 .cfa: sp 32 +
STACK CFI 428e8 .cfa: x29 32 + x19: .cfa -8 + ^ x20: .cfa -16 + ^ .ra: .cfa -24 + ^ x29: .cfa -32 + ^
STACK CFI 42910 .cfa: sp 32 +
STACK CFI 42918 .cfa: sp 0 +
STACK CFI 4291c .cfa: x29 32 +
STACK CFI 42940 .cfa: sp 32 +
STACK CFI 42948 .cfa: sp 0 +
STACK CFI INIT 4294c 10 .cfa: sp 0 +
STACK CFI INIT 4295c 30 .cfa: sp 0 +
STACK CFI 42960 .cfa: sp 32 +
STACK CFI 42968 .cfa: x29 32 + x19: .cfa -16 + ^ .ra: .cfa -24 + ^ x29: .cfa -32 + ^
STACK CFI 42980 .cfa: sp 32 +
STACK CFI 42988 .cfa: sp 0 +
STACK CFI INIT 4298c 4 .cfa: sp 0 +
STACK CFI INIT 42990 4 .cfa: sp 0 +
STACK CFI INIT 42c18 134 .cfa: sp 0 +
STACK CFI 42c1c .cfa: sp 64 +
STACK CFI 42c2c .cfa: x29 64 + x19: .cfa -8 + ^ x20: .cfa -16 + ^ x21: .cfa -24 + ^ x22: .cfa -32 + ^ x23: .cfa -48 + ^ .ra: .cfa -56 + ^ x29: .cfa -64 + ^
STACK CFI 42c80 .cfa: sp 64 +
STACK CFI 42c90 .cfa: sp 0 +
STACK CFI 42c94 .cfa: x29 64 +
STACK CFI 42cd4 .cfa: sp 64 +
STACK CFI 42ce4 .cfa: sp 0 +
STACK CFI 42ce8 .cfa: x29 64 +
STACK CFI 42d14 .cfa: sp 64 +
STACK CFI 42d24 .cfa: sp 0 +
STACK CFI 42d28 .cfa: x29 64 +
STACK CFI 42d38 .cfa: sp 64 +
STACK CFI 42d48 .cfa: sp 0 +
STACK CFI INIT 42d4c 2bc .cfa: sp 0 +
STACK CFI INIT 43008 1d4 .cfa: sp 0 +
STACK CFI 4300c .cfa: sp 80 +
STACK CFI 43020 .cfa: x29 80 + x19: .cfa -8 + ^ x20: .cfa -16 + ^ x21: .cfa -24 + ^ x22: .cfa -32 + ^ x23: .cfa -40 + ^ x24: .cfa -48 + ^ x25: .cfa -64 + ^ .ra: .cfa -72 + ^ x29: .cfa -80 + ^
STACK CFI 431c4 .cfa: sp 80 +
STACK CFI 431d8 .cfa: sp 0 +
STACK CFI INIT 457b4 c8 .cfa: sp 0 +
STACK CFI 457b8 .cfa: sp 64 +
STACK CFI 457c8 .cfa: x29 64 + x19: .cfa -8 + ^ x20: .cfa -16 + ^ x21: .cfa -24 + ^ x22: .cfa -32 + ^ x23: .cfa -48 + ^ .ra: .cfa -56 + ^ x29: .cfa -64 + ^
STACK CFI 457d0 .cfa: sp 64 +
STACK CFI 457e0 .cfa: sp 0 +
STACK CFI 457e4 .cfa: x29 64 +
STACK CFI 45808 .cfa: sp 64 +
STACK CFI 45818 .cfa: sp 0 +
STACK CFI 4581c .cfa: x29 64 +
STACK CFI 45868 .cfa: sp 64 +
STACK CFI 45878 .cfa: sp 0 +
STACK CFI INIT 4587c 14 .cfa: sp 0 +
STACK CFI 45880 .cfa: sp 16 +
STACK CFI 45884 .cfa: x29 16 + .ra: .cfa -8 + ^ x29: .cfa -16 + ^
STACK CFI INIT 45890 8c .cfa: sp 0 +
STACK CFI 45894 .cfa: sp 48 +
STACK CFI 458a0 .cfa: x29 48 + x19: .cfa -8 + ^ x20: .cfa -16 + ^ x21: .cfa -32 + ^ .ra: .cfa -40 + ^ x29: .cfa -48 + ^
STACK CFI 458fc .cfa: sp 48 +
STACK CFI 45908 .cfa: sp 0 +
STACK CFI 4590c .cfa: sp 48 +
STACK CFI 45918 .cfa: sp 0 +
STACK CFI INIT 4591c 154 .cfa: sp 0 +
STACK CFI 45920 .cfa: sp 80 +
STACK CFI 45934 .cfa: x29 80 + x19: .cfa -8 + ^ x20: .cfa -16 + ^ x21: .cfa -24 + ^ x22: .cfa -32 + ^ x23: .cfa -40 + ^ x24: .cfa -48 + ^ x25: .cfa -56 + ^ x26: .cfa -64 + ^ .ra: .cfa -72 + ^ x29: .cfa -80 + ^
STACK CFI 45a4c .cfa: sp 80 +
STACK CFI 45a60 .cfa: sp 0 +
STACK CFI 45a64 .cfa: x29 80 +
STACK CFI INIT 45bc4 324 .cfa: sp 0 +
STACK CFI 45bc8 .cfa: sp 80 +
STACK CFI 45bdc .cfa: x29 80 + x19: .cfa -8 + ^ x20: .cfa -16 + ^ x21: .cfa -24 + ^ x22: .cfa -32 + ^ x23: .cfa -40 + ^ x24: .cfa -48 + ^ x25: .cfa -56 + ^ x26: .cfa -64 + ^ .ra: .cfa -72 + ^ x29: .cfa -80 + ^
STACK CFI 45dc0 .cfa: sp 80 +
STACK CFI 45dd4 .cfa: sp 0 +
STACK CFI 45dd8 .cfa: x29 80 +
STACK CFI 45e5c .cfa: sp 80 +
STACK CFI 45e70 .cfa: sp 0 +
STACK CFI 45e74 .cfa: x29 80 +
STACK CFI 45ec8 .cfa: sp 80 +
STACK CFI 45edc .cfa: sp 0 +
STACK CFI 45ee0 .cfa: x29 80 +
STACK CFI INIT 45fd0 4 .cfa: sp 0 +
STACK CFI INIT 45fd4 14 .cfa: sp 0 +
STACK CFI INIT 45fe8 a8 .cfa: sp 0 +
STACK CFI 45fec .cfa: sp 48 +
STACK CFI 45ff8 .cfa: x29 48 + x19: .cfa -8 + ^ x20: .cfa -16 + ^ x21: .cfa -24 + ^ x22: .cfa -32 + ^ .ra: .cfa -40 + ^ x29: .cfa -48 + ^
STACK CFI 46018 .cfa: sp 48 +
STACK CFI 46024 .cfa: sp 0 +
STACK CFI 46028 .cfa: x29 48 +
STACK CFI 46070 .cfa: sp 48 +
STACK CFI 4607c .cfa: sp 0 +
STACK CFI 46080 .cfa: sp 48 +
STACK CFI 4608c .cfa: sp 0 +
STACK CFI INIT 46090 14 .cfa: sp 0 +
STACK CFI INIT 460a4 e0 .cfa: sp 0 +
STACK CFI 460a8 .cfa: sp 64 +
STACK CFI 460b8 .cfa: x29 64 + x19: .cfa -8 + ^ x20: .cfa -16 + ^ x21: .cfa -24 + ^ x22: .cfa -32 + ^ x23: .cfa -40 + ^ x24: .cfa -48 + ^ .ra: .cfa -56 + ^ x29: .cfa -64 + ^
STACK CFI 46148 .cfa: sp 64 +
STACK CFI 46158 .cfa: sp 0 +
STACK CFI 4615c .cfa: x29 64 +
STACK CFI 46168 .cfa: sp 64 +
STACK CFI 46178 .cfa: sp 0 +
STACK CFI 4617c .cfa: x29 64 +
STACK CFI INIT 46184 11c .cfa: sp 0 +
STACK CFI 46188 .cfa: sp 64 +
STACK CFI 46198 .cfa: x29 64 + x19: .cfa -8 + ^ x20: .cfa -16 + ^ x21: .cfa -24 + ^ x22: .cfa -32 + ^ x23: .cfa -40 + ^ x24: .cfa -48 + ^ .ra: .cfa -56 + ^ x29: .cfa -64 + ^
STACK CFI 46270 .cfa: sp 64 +
STACK CFI 46280 .cfa: sp 0 +
STACK CFI 46284 .cfa: x29 64 +
STACK CFI INIT 46490 4b4 .cfa: sp 0 +
STACK CFI 46494 .cfa: sp 96 +
STACK CFI 464ac .cfa: x29 96 + x19: .cfa -8 + ^ x20: .cfa -16 + ^ x21: .cfa -24 + ^ x22: .cfa -32 + ^ x23: .cfa -40 + ^ x24: .cfa -48 + ^ x25: .cfa -56 + ^ x26: .cfa -64 + ^ x27: .cfa -72 + ^ x28: .cfa -80 + ^ .ra: .cfa -88 + ^ x29: .cfa -96 + ^
STACK CFI 468f4 .cfa: sp 96 +
STACK CFI 4690c .cfa: sp 0 +
STACK CFI 46910 .cfa: x29 96 +
STACK CFI INIT 46944 1a4 .cfa: sp 0 +
STACK CFI 46948 .cfa: sp 64 +
STACK CFI 46954 .cfa: x29 32 + x19: .cfa -8 + ^ x20: .cfa -16 + ^ .ra: .cfa -24 + ^ x29: .cfa -32 + ^
STACK CFI 46a80 .cfa: sp 64 +
STACK CFI 46a8c .cfa: sp 0 +
STACK CFI 46a90 .cfa: x29 32 +
STACK CFI INIT 46ae8 194 .cfa: sp 0 +
STACK CFI 46aec .cfa: sp 16 +
STACK CFI 46af0 .cfa: x29 16 + .ra: .cfa -8 + ^ x29: .cfa -16 + ^
STACK CFI 46b88 .cfa: sp 16 +
STACK CFI 46b8c .cfa: sp 0 +
STACK CFI 46b90 .cfa: x29 16 +
STACK CFI 46c5c .cfa: sp 16 +
STACK CFI 46c60 .cfa: sp 0 +
STACK CFI 46c64 .cfa: x29 16 +
STACK CFI INIT 46c7c 114 .cfa: sp 0 +
STACK CFI 46c80 .cfa: sp 128 +
STACK CFI 46c90 .cfa: x29 48 + x19: .cfa -8 + ^ x20: .cfa -16 + ^ x21: .cfa -32 + ^ .ra: .cfa -40 + ^ x29: .cfa -48 + ^
STACK CFI 46d5c .cfa: sp 128 +
STACK CFI 46d6c .cfa: sp 0 +
STACK CFI 46d70 .cfa: x29 48 +
STACK CFI INIT 46d90 114 .cfa: sp 0 +
STACK CFI 46d94 .cfa: sp 128 +
STACK CFI 46da4 .cfa: x29 48 + x19: .cfa -8 + ^ x20: .cfa -16 + ^ x21: .cfa -32 + ^ .ra: .cfa -40 + ^ x29: .cfa -48 + ^
STACK CFI 46e70 .cfa: sp 128 +
STACK CFI 46e80 .cfa: sp 0 +
STACK CFI 46e84 .cfa: x29 48 +
STACK CFI INIT 46ea4 27c .cfa: sp 0 +
STACK CFI 46ea8 .cfa: sp 176 +
STACK CFI 46ec4 .cfa: x29 96 + x19: .cfa -8 + ^ x20: .cfa -16 + ^ x21: .cfa -24 + ^ x22: .cfa -32 + ^ x23: .cfa -40 + ^ x24: .cfa -48 + ^ x25: .cfa -56 + ^ x26: .cfa -64 + ^ x27: .cfa -72 + ^ x28: .cfa -80 + ^ .ra: .cfa -88 + ^ x29: .cfa -96 + ^
STACK CFI 470fc .cfa: sp 176 +
STACK CFI 47118 .cfa: sp 0 +
STACK CFI 4711c .cfa: x29 96 +
STACK CFI INIT 47120 520 .cfa: sp 0 +
STACK CFI 47124 .cfa: sp 176 +
STACK CFI 47140 .cfa: x29 96 + x19: .cfa -8 + ^ x20: .cfa -16 + ^ x21: .cfa -24 + ^ x22: .cfa -32 + ^ x23: .cfa -40 + ^ x24: .cfa -48 + ^ x25: .cfa -56 + ^ x26: .cfa -64 + ^ x27: .cfa -72 + ^ x28: .cfa -80 + ^ .ra: .cfa -88 + ^ x29: .cfa -96 + ^
STACK CFI 4761c .cfa: sp 176 +
STACK CFI 47638 .cfa: sp 0 +
STACK CFI 4763c .cfa: x29 96 +
STACK CFI INIT 47640 20c .cfa: sp 0 +
STACK CFI 47644 .cfa: sp 80 +
STACK CFI 47658 .cfa: x29 80 + x19: .cfa -8 + ^ x20: .cfa -16 + ^ x21: .cfa -24 + ^ x22: .cfa -32 + ^ x23: .cfa -40 + ^ x24: .cfa -48 + ^ x25: .cfa -64 + ^ .ra: .cfa -72 + ^ x29: .cfa -80 + ^
STACK CFI 476e8 .cfa: sp 80 +
STACK CFI 476fc .cfa: sp 0 +
STACK CFI 47700 .cfa: x29 80 +
STACK CFI 4770c .cfa: sp 80 +
STACK CFI 47720 .cfa: sp 0 +
STACK CFI 47724 .cfa: x29 80 +
STACK CFI INIT 4784c 428 .cfa: sp 0 +
STACK CFI 47850 .cfa: sp 128 +
STACK CFI 4786c .cfa: x29 96 + x19: .cfa -8 + ^ x20: .cfa -16 + ^ x21: .cfa -24 + ^ x22: .cfa -32 + ^ x23: .cfa -40 + ^ x24: .cfa -48 + ^ x25: .cfa -56 + ^ x26: .cfa -64 + ^ x27: .cfa -72 + ^ x28: .cfa -80 + ^ .ra: .cfa -88 + ^ x29: .cfa -96 + ^
STACK CFI 47c50 .cfa: sp 128 +
STACK CFI 47c6c .cfa: sp 0 +
STACK CFI 47c70 .cfa: x29 96 +
STACK CFI INIT 47c74 194 .cfa: sp 0 +
STACK CFI 47c78 .cfa: sp 32 +
STACK CFI 47c80 .cfa: x29 16 + .ra: .cfa -8 + ^ x29: .cfa -16 + ^
STACK CFI 47cc4 .cfa: sp 32 +
STACK CFI 47ccc .cfa: sp 0 +
STACK CFI 47cd0 .cfa: x29 16 +
STACK CFI INIT 47e08 1b8 .cfa: sp 0 +
STACK CFI INIT 47fc0 1d0 .cfa: sp 0 +
STACK CFI 47fc4 .cfa: sp 80 +
STACK CFI 47fd8 .cfa: x29 80 + x19: .cfa -8 + ^ x20: .cfa -16 + ^ x21: .cfa -24 + ^ x22: .cfa -32 + ^ x23: .cfa -40 + ^ x24: .cfa -48 + ^ x25: .cfa -64 + ^ .ra: .cfa -72 + ^ x29: .cfa -80 + ^
STACK CFI 48178 .cfa: sp 80 +
STACK CFI 4818c .cfa: sp 0 +
STACK CFI INIT 48190 67c .cfa: sp 0 +
STACK CFI 48194 .cfa: sp 176 +
STACK CFI 481b0 .cfa: x29 96 + x19: .cfa -8 + ^ x20: .cfa -16 + ^ x21: .cfa -24 + ^ x22: .cfa -32 + ^ x23: .cfa -40 + ^ x24: .cfa -48 + ^ x25: .cfa -56 + ^ x26: .cfa -64 + ^ x27: .cfa -72 + ^ x28: .cfa -80 + ^ .ra: .cfa -88 + ^ x29: .cfa -96 + ^
STACK CFI 487e8 .cfa: sp 176 +
STACK CFI 48804 .cfa: sp 0 +
STACK CFI 48808 .cfa: x29 96 +
STACK CFI INIT 4880c 1e4 .cfa: sp 0 +
STACK CFI 48810 .cfa: sp 32 +
STACK CFI 48818 .cfa: x29 32 + x19: .cfa -8 + ^ x20: .cfa -16 + ^ .ra: .cfa -24 + ^ x29: .cfa -32 + ^
STACK CFI 48908 .cfa: sp 32 +
STACK CFI 48910 .cfa: sp 0 +
STACK CFI 48914 .cfa: x29 32 +
STACK CFI 48988 .cfa: sp 32 +
STACK CFI 48990 .cfa: sp 0 +
STACK CFI 48994 .cfa: x29 32 +
STACK CFI 489a4 .cfa: sp 32 +
STACK CFI 489ac .cfa: sp 0 +
STACK CFI 489b0 .cfa: x29 32 +
STACK CFI 489c0 .cfa: sp 32 +
STACK CFI 489c8 .cfa: sp 0 +
STACK CFI 489cc .cfa: x29 32 +
STACK CFI INIT 489f0 178 .cfa: sp 0 +
STACK CFI 489f4 .cfa: sp 80 +
STACK CFI 48a08 .cfa: x29 64 + x19: .cfa -8 + ^ x20: .cfa -16 + ^ x21: .cfa -24 + ^ x22: .cfa -32 + ^ x23: .cfa -40 + ^ x24: .cfa -48 + ^ .ra: .cfa -56 + ^ x29: .cfa -64 + ^
STACK CFI 48b4c .cfa: sp 80 +
STACK CFI 48b60 .cfa: sp 0 +
STACK CFI 48b64 .cfa: x29 64 +
STACK CFI INIT 48b68 178 .cfa: sp 0 +
STACK CFI 48b6c .cfa: sp 80 +
STACK CFI 48b80 .cfa: x29 64 + x19: .cfa -8 + ^ x20: .cfa -16 + ^ x21: .cfa -24 + ^ x22: .cfa -32 + ^ x23: .cfa -40 + ^ x24: .cfa -48 + ^ .ra: .cfa -56 + ^ x29: .cfa -64 + ^
STACK CFI 48cc4 .cfa: sp 80 +
STACK CFI 48cd8 .cfa: sp 0 +
STACK CFI 48cdc .cfa: x29 64 +
STACK CFI INIT 48ce0 178 .cfa: sp 0 +
STACK CFI 48ce4 .cfa: sp 80 +
STACK CFI 48cf8 .cfa: x29 64 + x19: .cfa -8 + ^ x20: .cfa -16 + ^ x21: .cfa -24 + ^ x22: .cfa -32 + ^ x23: .cfa -40 + ^ x24: .cfa -48 + ^ .ra: .cfa -56 + ^ x29: .cfa -64 + ^
STACK CFI 48e3c .cfa: sp 80 +
STACK CFI 48e50 .cfa: sp 0 +
STACK CFI 48e54 .cfa: x29 64 +
STACK CFI INIT 48e58 94 .cfa: sp 0 +
STACK CFI 48e5c .cfa: sp 16 +
STACK CFI 48e60 .cfa: x29 16 + .ra: .cfa -8 + ^ x29: .cfa -16 + ^
STACK CFI 48eb4 .cfa: sp 16 +
STACK CFI 48eb8 .cfa: sp 0 +
STACK CFI 48ebc .cfa: x29 16 +
STACK CFI INIT 48eec 158 .cfa: sp 0 +
STACK CFI 48ef0 .cfa: sp 112 +
STACK CFI 48f0c .cfa: x29 96 + x19: .cfa -8 + ^ x20: .cfa -16 + ^ x21: .cfa -24 + ^ x22: .cfa -32 + ^ x23: .cfa -40 + ^ x24: .cfa -48 + ^ x25: .cfa -56 + ^ x26: .cfa -64 + ^ x27: .cfa -72 + ^ x28: .cfa -80 + ^ .ra: .cfa -88 + ^ x29: .cfa -96 + ^
STACK CFI 48ff4 .cfa: sp 112 +
STACK CFI 48ff8 .cfa: x29 96 +
STACK CFI 49000 .cfa: sp 112 +
STACK CFI 4901c .cfa: sp 0 +
STACK CFI 49020 .cfa: x29 96 +
STACK CFI 49040 .cfa: sp 112 +
STACK CFI INIT 49044 94 .cfa: sp 0 +
STACK CFI 49048 .cfa: sp 16 +
STACK CFI 4904c .cfa: x29 16 + .ra: .cfa -8 + ^ x29: .cfa -16 + ^
STACK CFI 490a0 .cfa: sp 16 +
STACK CFI 490a4 .cfa: sp 0 +
STACK CFI 490a8 .cfa: x29 16 +
STACK CFI INIT 4914c 11c .cfa: sp 0 +
STACK CFI 49150 .cfa: sp 64 +
STACK CFI 49160 .cfa: x29 64 + x19: .cfa -8 + ^ x20: .cfa -16 + ^ x21: .cfa -24 + ^ x22: .cfa -32 + ^ x23: .cfa -40 + ^ x24: .cfa -48 + ^ .ra: .cfa -56 + ^ x29: .cfa -64 + ^
STACK CFI 49238 .cfa: sp 64 +
STACK CFI 49248 .cfa: sp 0 +
STACK CFI 4924c .cfa: x29 64 +
STACK CFI INIT 49384 7c .cfa: sp 0 +
STACK CFI 49388 .cfa: sp 48 +
STACK CFI 49394 .cfa: x29 48 + x19: .cfa -8 + ^ x20: .cfa -16 + ^ x21: .cfa -24 + ^ x22: .cfa -32 + ^ .ra: .cfa -40 + ^ x29: .cfa -48 + ^
STACK CFI 4939c .cfa: sp 48 +
STACK CFI 493a8 .cfa: sp 0 +
STACK CFI 493ac .cfa: x29 48 +
STACK CFI 493f0 .cfa: sp 48 +
STACK CFI 493fc .cfa: sp 0 +
STACK CFI INIT 49400 68 .cfa: sp 0 +
STACK CFI 49404 .cfa: sp 48 +
STACK CFI 49410 .cfa: x29 48 + x19: .cfa -8 + ^ x20: .cfa -16 + ^ x21: .cfa -32 + ^ .ra: .cfa -40 + ^ x29: .cfa -48 + ^
STACK CFI 49448 .cfa: sp 48 +
STACK CFI 49454 .cfa: sp 0 +
STACK CFI 49458 .cfa: sp 48 +
STACK CFI 49464 .cfa: sp 0 +
STACK CFI INIT 49468 14 .cfa: sp 0 +
STACK CFI INIT 4947c 4 .cfa: sp 0 +
STACK CFI INIT 495f4 60 .cfa: sp 0 +
STACK CFI 495f8 .cfa: sp 32 +
STACK CFI 49600 .cfa: x29 32 + x19: .cfa -16 + ^ .ra: .cfa -24 + ^ x29: .cfa -32 + ^
STACK CFI 49648 .cfa: sp 32 +
STACK CFI 49650 .cfa: sp 0 +
STACK CFI INIT 49654 68 .cfa: sp 0 +
STACK CFI 49658 .cfa: sp 32 +
STACK CFI 49660 .cfa: x29 32 + x19: .cfa -16 + ^ .ra: .cfa -24 + ^ x29: .cfa -32 + ^
STACK CFI 496b0 .cfa: sp 32 +
STACK CFI 496b8 .cfa: sp 0 +
STACK CFI INIT 496bc 4 .cfa: sp 0 +
STACK CFI INIT 496c0 4 .cfa: sp 0 +
STACK CFI INIT 496c4 38 .cfa: sp 0 +
STACK CFI 496c8 .cfa: sp 32 +
STACK CFI 496d0 .cfa: x29 32 + x19: .cfa -16 + ^ .ra: .cfa -24 + ^ x29: .cfa -32 + ^
STACK CFI 496f0 .cfa: sp 32 +
STACK CFI 496f8 .cfa: sp 0 +
STACK CFI INIT 496fc 18 .cfa: sp 0 +
STACK CFI INIT 49714 4 .cfa: sp 0 +
STACK CFI INIT 49718 4 .cfa: sp 0 +
STACK CFI INIT 4971c 10 .cfa: sp 0 +
STACK CFI INIT 4972c 1c .cfa: sp 0 +
STACK CFI INIT 49748 c .cfa: sp 0 +
STACK CFI INIT 4a210 20 .cfa: sp 0 +
STACK CFI 4a214 .cfa: sp 16 +
STACK CFI 4a218 .cfa: x29 16 + .ra: .cfa -8 + ^ x29: .cfa -16 + ^
STACK CFI 4a228 .cfa: sp 16 +
STACK CFI 4a22c .cfa: sp 0 +
STACK CFI INIT 4a2e8 6c .cfa: sp 0 +
STACK CFI 4a2ec .cfa: sp 32 +
STACK CFI 4a2f4 .cfa: x29 32 + x19: .cfa -8 + ^ x20: .cfa -16 + ^ .ra: .cfa -24 + ^ x29: .cfa -32 + ^
STACK CFI 4a320 .cfa: sp 32 +
STACK CFI 4a328 .cfa: sp 0 +
STACK CFI 4a32c .cfa: x29 32 +
STACK CFI 4a348 .cfa: sp 32 +
STACK CFI 4a350 .cfa: sp 0 +
STACK CFI INIT 4a354 7c .cfa: sp 0 +
STACK CFI 4a358 .cfa: sp 32 +
STACK CFI 4a360 .cfa: x29 32 + x19: .cfa -8 + ^ x20: .cfa -16 + ^ .ra: .cfa -24 + ^ x29: .cfa -32 + ^
STACK CFI 4a394 .cfa: sp 32 +
STACK CFI 4a39c .cfa: sp 0 +
STACK CFI 4a3a0 .cfa: x29 32 +
STACK CFI 4a3c4 .cfa: sp 32 +
STACK CFI 4a3cc .cfa: sp 0 +
STACK CFI INIT 4a3d0 4 .cfa: sp 0 +
STACK CFI INIT 4a3d4 34 .cfa: sp 0 +
STACK CFI 4a3d8 .cfa: sp 32 +
STACK CFI 4a3e0 .cfa: x29 32 + x19: .cfa -16 + ^ .ra: .cfa -24 + ^ x29: .cfa -32 + ^
STACK CFI 4a3fc .cfa: sp 32 +
STACK CFI 4a404 .cfa: sp 0 +
STACK CFI INIT 4a408 14 .cfa: sp 0 +
STACK CFI INIT 4a41c 4 .cfa: sp 0 +
STACK CFI INIT 4a420 4 .cfa: sp 0 +
STACK CFI INIT 4a424 38 .cfa: sp 0 +
STACK CFI 4a428 .cfa: sp 32 +
STACK CFI 4a430 .cfa: x29 32 + x19: .cfa -16 + ^ .ra: .cfa -24 + ^ x29: .cfa -32 + ^
STACK CFI 4a450 .cfa: sp 32 +
STACK CFI 4a458 .cfa: sp 0 +
STACK CFI INIT 4a45c 1c .cfa: sp 0 +
STACK CFI INIT 4a478 c .cfa: sp 0 +
STACK CFI INIT 4a484 4 .cfa: sp 0 +
STACK CFI INIT 4a488 4 .cfa: sp 0 +
STACK CFI INIT 4a48c 34 .cfa: sp 0 +
STACK CFI 4a490 .cfa: sp 32 +
STACK CFI 4a498 .cfa: x29 32 + x19: .cfa -16 + ^ .ra: .cfa -24 + ^ x29: .cfa -32 + ^
STACK CFI 4a4b4 .cfa: sp 32 +
STACK CFI 4a4bc .cfa: sp 0 +
STACK CFI INIT 4a4c0 14 .cfa: sp 0 +
STACK CFI INIT 4a4d4 4 .cfa: sp 0 +
STACK CFI INIT 4a4d8 4 .cfa: sp 0 +
STACK CFI INIT 4a4dc 94 .cfa: sp 0 +
STACK CFI 4a4e0 .cfa: sp 64 +
STACK CFI 4a4f0 .cfa: x29 48 + x19: .cfa -8 + ^ x20: .cfa -16 + ^ x21: .cfa -24 + ^ x22: .cfa -32 + ^ .ra: .cfa -40 + ^ x29: .cfa -48 + ^
STACK CFI 4a558 .cfa: sp 64 +
STACK CFI 4a568 .cfa: sp 0 +
STACK CFI 4a56c .cfa: x29 48 +
STACK CFI INIT 4a570 1c .cfa: sp 0 +
STACK CFI INIT 4a58c c .cfa: sp 0 +
STACK CFI INIT 4a598 4 .cfa: sp 0 +
STACK CFI INIT 4a59c 4 .cfa: sp 0 +
STACK CFI INIT 4a5a0 34 .cfa: sp 0 +
STACK CFI 4a5a4 .cfa: sp 32 +
STACK CFI 4a5ac .cfa: x29 32 + x19: .cfa -16 + ^ .ra: .cfa -24 + ^ x29: .cfa -32 + ^
STACK CFI 4a5c8 .cfa: sp 32 +
STACK CFI 4a5d0 .cfa: sp 0 +
STACK CFI INIT 4a5d4 14 .cfa: sp 0 +
STACK CFI INIT 4a5e8 4 .cfa: sp 0 +
STACK CFI INIT 4a5ec 4 .cfa: sp 0 +
STACK CFI INIT 4a5f0 34 .cfa: sp 0 +
STACK CFI 4a5f4 .cfa: sp 32 +
STACK CFI 4a5fc .cfa: x29 32 + x19: .cfa -16 + ^ .ra: .cfa -24 + ^ x29: .cfa -32 + ^
STACK CFI 4a618 .cfa: sp 32 +
STACK CFI 4a620 .cfa: sp 0 +
STACK CFI INIT 4a624 1c .cfa: sp 0 +
STACK CFI INIT 4a640 c .cfa: sp 0 +
STACK CFI INIT 4b084 38 .cfa: sp 0 +
STACK CFI 4b088 .cfa: sp 32 +
STACK CFI 4b090 .cfa: x29 32 + x19: .cfa -16 + ^ .ra: .cfa -24 + ^ x29: .cfa -32 + ^
STACK CFI 4b0b0 .cfa: sp 32 +
STACK CFI 4b0b8 .cfa: sp 0 +
STACK CFI INIT 4bc58 38 .cfa: sp 0 +
STACK CFI 4bc5c .cfa: sp 32 +
STACK CFI 4bc64 .cfa: x29 32 + x19: .cfa -16 + ^ .ra: .cfa -24 + ^ x29: .cfa -32 + ^
STACK CFI 4bc84 .cfa: sp 32 +
STACK CFI 4bc8c .cfa: sp 0 +
STACK CFI INIT 4bc90 38 .cfa: sp 0 +
STACK CFI 4bc94 .cfa: sp 32 +
STACK CFI 4bc9c .cfa: x29 32 + x19: .cfa -16 + ^ .ra: .cfa -24 + ^ x29: .cfa -32 + ^
STACK CFI 4bcbc .cfa: sp 32 +
STACK CFI 4bcc4 .cfa: sp 0 +
STACK CFI INIT 4bcc8 164 .cfa: sp 0 +
STACK CFI 4bccc .cfa: sp 96 +
STACK CFI 4bce0 .cfa: x29 48 + x19: .cfa -8 + ^ x20: .cfa -16 + ^ x21: .cfa -24 + ^ x22: .cfa -32 + ^ .ra: .cfa -40 + ^ x29: .cfa -48 + ^ v8: .cfa -56 + ^ v9: .cfa -64 + ^
STACK CFI 4bdf8 .cfa: sp 96 +
STACK CFI 4be0c .cfa: sp 0 +
STACK CFI 4be10 .cfa: x29 48 +
STACK CFI INIT 4be2c a4 .cfa: sp 0 +
STACK CFI 4be30 .cfa: sp 64 +
STACK CFI 4be40 .cfa: x29 32 + x19: .cfa -8 + ^ x20: .cfa -16 + ^ .ra: .cfa -24 + ^ x29: .cfa -32 + ^ v8: .cfa -40 + ^ v9: .cfa -48 + ^
STACK CFI 4beb8 .cfa: sp 64 +
STACK CFI 4bec8 .cfa: sp 0 +
STACK CFI 4becc .cfa: x29 32 +
STACK CFI INIT 4bed0 90 .cfa: sp 0 +
STACK CFI 4bed4 .cfa: sp 64 +
STACK CFI 4bee4 .cfa: x29 48 + x19: .cfa -8 + ^ x20: .cfa -16 + ^ x21: .cfa -24 + ^ x22: .cfa -32 + ^ .ra: .cfa -40 + ^ x29: .cfa -48 + ^
STACK CFI 4bf48 .cfa: sp 64 +
STACK CFI 4bf58 .cfa: sp 0 +
STACK CFI 4bf5c .cfa: x29 48 +
STACK CFI INIT 4c6dc a8 .cfa: sp 0 +
STACK CFI 4c6e0 .cfa: sp 48 +
STACK CFI 4c6ec .cfa: x29 48 + x19: .cfa -8 + ^ x20: .cfa -16 + ^ x21: .cfa -24 + ^ x22: .cfa -32 + ^ .ra: .cfa -40 + ^ x29: .cfa -48 + ^
STACK CFI 4c70c .cfa: sp 48 +
STACK CFI 4c718 .cfa: sp 0 +
STACK CFI 4c71c .cfa: x29 48 +
STACK CFI 4c764 .cfa: sp 48 +
STACK CFI 4c770 .cfa: sp 0 +
STACK CFI 4c774 .cfa: sp 48 +
STACK CFI 4c780 .cfa: sp 0 +
STACK CFI INIT 4cb44 24 .cfa: sp 0 +
STACK CFI 4cb48 .cfa: sp 32 +
STACK CFI 4cb50 .cfa: x29 32 + x19: .cfa -16 + ^ .ra: .cfa -24 + ^ x29: .cfa -32 + ^
STACK CFI 4cb5c .cfa: sp 32 +
STACK CFI 4cb64 .cfa: sp 0 +
STACK CFI INIT 4cb68 8 .cfa: sp 0 +
STACK CFI INIT 4cb70 28 .cfa: sp 0 +
STACK CFI 4cb74 .cfa: sp 32 +
STACK CFI 4cb7c .cfa: x29 32 + x19: .cfa -16 + ^ .ra: .cfa -24 + ^ x29: .cfa -32 + ^
STACK CFI 4cb8c .cfa: sp 32 +
STACK CFI 4cb94 .cfa: sp 0 +
STACK CFI INIT 4cb98 14 .cfa: sp 0 +
STACK CFI 4cb9c .cfa: sp 16 +
STACK CFI 4cba0 .cfa: x29 16 + .ra: .cfa -8 + ^ x29: .cfa -16 + ^
STACK CFI INIT 4cc7c 4 .cfa: sp 0 +
STACK CFI INIT 4cc80 4 .cfa: sp 0 +
STACK CFI INIT 4cc84 34 .cfa: sp 0 +
STACK CFI 4cc88 .cfa: sp 32 +
STACK CFI 4cc90 .cfa: x29 32 + x19: .cfa -16 + ^ .ra: .cfa -24 + ^ x29: .cfa -32 + ^
STACK CFI 4ccac .cfa: sp 32 +
STACK CFI 4ccb4 .cfa: sp 0 +
STACK CFI INIT 4ccb8 14 .cfa: sp 0 +
STACK CFI INIT 4cccc 4 .cfa: sp 0 +
STACK CFI INIT 4ccd0 4 .cfa: sp 0 +
STACK CFI INIT 4ccd4 8 .cfa: sp 0 +
STACK CFI INIT 4ccdc 1c .cfa: sp 0 +
STACK CFI INIT 4ccf8 c .cfa: sp 0 +
STACK CFI INIT 4d184 1c .cfa: sp 0 +
STACK CFI INIT 4d4a8 4 .cfa: sp 0 +
STACK CFI INIT 4d764 9c .cfa: sp 0 +
STACK CFI INIT 4d800 4 .cfa: sp 0 +
STACK CFI INIT 4da58 3c .cfa: sp 0 +
STACK CFI 4da5c .cfa: sp 32 +
STACK CFI 4da64 .cfa: x29 32 + x19: .cfa -16 + ^ .ra: .cfa -24 + ^ x29: .cfa -32 + ^
STACK CFI 4da70 .cfa: sp 32 +
STACK CFI 4da78 .cfa: sp 0 +
STACK CFI 4da7c .cfa: x29 32 +
STACK CFI 4da88 .cfa: sp 32 +
STACK CFI 4da90 .cfa: sp 0 +
STACK CFI INIT 4da94 3c .cfa: sp 0 +
STACK CFI 4da98 .cfa: sp 32 +
STACK CFI 4daa0 .cfa: x29 32 + x19: .cfa -16 + ^ .ra: .cfa -24 + ^ x29: .cfa -32 + ^
STACK CFI 4daac .cfa: sp 32 +
STACK CFI 4dab4 .cfa: sp 0 +
STACK CFI 4dab8 .cfa: x29 32 +
STACK CFI 4dac4 .cfa: sp 32 +
STACK CFI 4dacc .cfa: sp 0 +
STACK CFI INIT 4dad0 4c .cfa: sp 0 +
STACK CFI 4dad4 .cfa: sp 32 +
STACK CFI 4dadc .cfa: x29 32 + x19: .cfa -8 + ^ x20: .cfa -16 + ^ .ra: .cfa -24 + ^ x29: .cfa -32 + ^
STACK CFI 4db04 .cfa: sp 32 +
STACK CFI 4db0c .cfa: sp 0 +
STACK CFI 4db10 .cfa: sp 32 +
STACK CFI 4db18 .cfa: sp 0 +
STACK CFI INIT 4dd3c 64 .cfa: sp 0 +
STACK CFI 4dd40 .cfa: sp 32 +
STACK CFI 4dd48 .cfa: x29 32 + x19: .cfa -16 + ^ .ra: .cfa -24 + ^ x29: .cfa -32 + ^
STACK CFI 4dd74 .cfa: sp 32 +
STACK CFI 4dd7c .cfa: sp 0 +
STACK CFI 4dd80 .cfa: x29 32 +
STACK CFI 4dd94 .cfa: sp 32 +
STACK CFI 4dd9c .cfa: sp 0 +
STACK CFI INIT 4dfc4 24 .cfa: sp 0 +
STACK CFI 4dfc8 .cfa: sp 32 +
STACK CFI 4dfd0 .cfa: x29 32 + x19: .cfa -16 + ^ .ra: .cfa -24 + ^ x29: .cfa -32 + ^
STACK CFI 4dfdc .cfa: sp 32 +
STACK CFI 4dfe4 .cfa: sp 0 +
STACK CFI INIT 4e244 24 .cfa: sp 0 +
STACK CFI 4e248 .cfa: sp 32 +
STACK CFI 4e250 .cfa: x29 32 + x19: .cfa -16 + ^ .ra: .cfa -24 + ^ x29: .cfa -32 + ^
STACK CFI 4e25c .cfa: sp 32 +
STACK CFI 4e264 .cfa: sp 0 +
STACK CFI INIT 4e268 24 .cfa: sp 0 +
STACK CFI 4e26c .cfa: sp 32 +
STACK CFI 4e274 .cfa: x29 32 + x19: .cfa -16 + ^ .ra: .cfa -24 + ^ x29: .cfa -32 + ^
STACK CFI 4e280 .cfa: sp 32 +
STACK CFI 4e288 .cfa: sp 0 +
STACK CFI INIT 4e510 8 .cfa: sp 0 +
STACK CFI INIT 4e518 24 .cfa: sp 0 +
STACK CFI 4e51c .cfa: sp 32 +
STACK CFI 4e524 .cfa: x29 32 + x19: .cfa -16 + ^ .ra: .cfa -24 + ^ x29: .cfa -32 + ^
STACK CFI 4e530 .cfa: sp 32 +
STACK CFI 4e538 .cfa: sp 0 +
STACK CFI INIT 4e53c 28 .cfa: sp 0 +
STACK CFI 4e540 .cfa: sp 32 +
STACK CFI 4e548 .cfa: x29 32 + x19: .cfa -16 + ^ .ra: .cfa -24 + ^ x29: .cfa -32 + ^
STACK CFI 4e558 .cfa: sp 32 +
STACK CFI 4e560 .cfa: sp 0 +
STACK CFI INIT 4e864 8 .cfa: sp 0 +
STACK CFI INIT 4e86c 24 .cfa: sp 0 +
STACK CFI 4e870 .cfa: sp 32 +
STACK CFI 4e878 .cfa: x29 32 + x19: .cfa -16 + ^ .ra: .cfa -24 + ^ x29: .cfa -32 + ^
STACK CFI 4e884 .cfa: sp 32 +
STACK CFI 4e88c .cfa: sp 0 +
STACK CFI INIT 4e890 28 .cfa: sp 0 +
STACK CFI 4e894 .cfa: sp 32 +
STACK CFI 4e89c .cfa: x29 32 + x19: .cfa -16 + ^ .ra: .cfa -24 + ^ x29: .cfa -32 + ^
STACK CFI 4e8ac .cfa: sp 32 +
STACK CFI 4e8b4 .cfa: sp 0 +
STACK CFI INIT 4eb1c 8 .cfa: sp 0 +
STACK CFI INIT 4eb24 24 .cfa: sp 0 +
STACK CFI 4eb28 .cfa: sp 32 +
STACK CFI 4eb30 .cfa: x29 32 + x19: .cfa -16 + ^ .ra: .cfa -24 + ^ x29: .cfa -32 + ^
STACK CFI 4eb3c .cfa: sp 32 +
STACK CFI 4eb44 .cfa: sp 0 +
STACK CFI INIT 4eb48 28 .cfa: sp 0 +
STACK CFI 4eb4c .cfa: sp 32 +
STACK CFI 4eb54 .cfa: x29 32 + x19: .cfa -16 + ^ .ra: .cfa -24 + ^ x29: .cfa -32 + ^
STACK CFI 4eb64 .cfa: sp 32 +
STACK CFI 4eb6c .cfa: sp 0 +
STACK CFI INIT 4eb70 24 .cfa: sp 0 +
STACK CFI 4eb74 .cfa: sp 32 +
STACK CFI 4eb7c .cfa: x29 32 + x19: .cfa -16 + ^ .ra: .cfa -24 + ^ x29: .cfa -32 + ^
STACK CFI 4eb88 .cfa: sp 32 +
STACK CFI 4eb90 .cfa: sp 0 +
STACK CFI INIT 4eb94 8 .cfa: sp 0 +
STACK CFI INIT 4eb9c 24 .cfa: sp 0 +
STACK CFI 4eba0 .cfa: sp 32 +
STACK CFI 4eba8 .cfa: x29 32 + x19: .cfa -16 + ^ .ra: .cfa -24 + ^ x29: .cfa -32 + ^
STACK CFI 4ebb4 .cfa: sp 32 +
STACK CFI 4ebbc .cfa: sp 0 +
STACK CFI INIT 4ebc0 28 .cfa: sp 0 +
STACK CFI 4ebc4 .cfa: sp 32 +
STACK CFI 4ebcc .cfa: x29 32 + x19: .cfa -16 + ^ .ra: .cfa -24 + ^ x29: .cfa -32 + ^
STACK CFI 4ebdc .cfa: sp 32 +
STACK CFI 4ebe4 .cfa: sp 0 +
STACK CFI INIT 4f160 4 .cfa: sp 0 +
STACK CFI INIT 4f164 8 .cfa: sp 0 +
STACK CFI INIT 4f16c 4 .cfa: sp 0 +
STACK CFI INIT 4f170 8 .cfa: sp 0 +
STACK CFI INIT 4f178 c .cfa: sp 0 +
STACK CFI INIT 4f184 c .cfa: sp 0 +
STACK CFI INIT 4f190 8 .cfa: sp 0 +
STACK CFI INIT 4f198 8 .cfa: sp 0 +
STACK CFI INIT 4f1a0 8 .cfa: sp 0 +
STACK CFI INIT 4f1a8 8 .cfa: sp 0 +
STACK CFI INIT 50350 4 .cfa: sp 0 +
STACK CFI INIT 50354 14 .cfa: sp 0 +
STACK CFI INIT 50874 c .cfa: sp 0 +
STACK CFI INIT 50880 a0 .cfa: sp 0 +
STACK CFI 5088c .cfa: sp 32 +
STACK CFI 508e4 .cfa: sp 0 +
STACK CFI 508e8 .cfa: sp 32 +
STACK CFI 508f0 .cfa: sp 0 +
STACK CFI 508f4 .cfa: sp 32 +
STACK CFI 50908 .cfa: sp 0 +
STACK CFI 5090c .cfa: sp 32 +
STACK CFI 5091c .cfa: sp 0 +
STACK CFI INIT 50920 38 .cfa: sp 0 +
STACK CFI 5092c .cfa: sp 32 +
STACK CFI 50954 .cfa: sp 0 +
STACK CFI INIT 50958 34 .cfa: sp 0 +
STACK CFI 5095c .cfa: sp 16 +
STACK CFI 50960 .cfa: x29 16 + .ra: .cfa -8 + ^ x29: .cfa -16 + ^
STACK CFI INIT 50ce4 14 .cfa: sp 0 +
STACK CFI INIT 50e88 80 .cfa: sp 0 +
STACK CFI 50e8c .cfa: sp 32 +
STACK CFI 50e94 .cfa: x29 32 + x19: .cfa -16 + ^ .ra: .cfa -24 + ^ x29: .cfa -32 + ^
STACK CFI 50ec4 .cfa: sp 32 +
STACK CFI 50ecc .cfa: sp 0 +
STACK CFI 50ed0 .cfa: x29 32 +
STACK CFI 50efc .cfa: sp 32 +
STACK CFI 50f04 .cfa: sp 0 +
STACK CFI INIT 50f58 30 .cfa: sp 0 +
STACK CFI 50f5c .cfa: sp 32 +
STACK CFI 50f64 .cfa: x29 32 + x19: .cfa -16 + ^ .ra: .cfa -24 + ^ x29: .cfa -32 + ^
STACK CFI 50f7c .cfa: sp 32 +
STACK CFI 50f84 .cfa: sp 0 +
STACK CFI INIT 51170 9c .cfa: sp 0 +
STACK CFI INIT 5120c 64 .cfa: sp 0 +
STACK CFI 51210 .cfa: sp 32 +
STACK CFI 51218 .cfa: x29 32 + x19: .cfa -16 + ^ .ra: .cfa -24 + ^ x29: .cfa -32 + ^
STACK CFI 51234 .cfa: sp 32 +
STACK CFI 5123c .cfa: sp 0 +
STACK CFI 51240 .cfa: x29 32 +
STACK CFI 51264 .cfa: sp 32 +
STACK CFI 5126c .cfa: sp 0 +
STACK CFI INIT 51554 b0 .cfa: sp 0 +
STACK CFI INIT 51928 b4 .cfa: sp 0 +
STACK CFI 5192c .cfa: sp 48 +
STACK CFI 51938 .cfa: x29 48 + x19: .cfa -8 + ^ x20: .cfa -16 + ^ x21: .cfa -24 + ^ x28: .cfa -32 + ^ .ra: .cfa -40 + ^ x29: .cfa -48 + ^
STACK CFI 519c8 .cfa: sp 48 +
STACK CFI 519d4 .cfa: sp 0 +
STACK CFI 519d8 .cfa: x29 48 +
STACK CFI INIT 519dc 1f8 .cfa: sp 0 +
STACK CFI 519e0 .cfa: sp 176 +
STACK CFI 519ec .cfa: x29 32 + x19: .cfa -16 + ^ .ra: .cfa -24 + ^ x29: .cfa -32 + ^
STACK CFI 51a44 .cfa: sp 176 +
STACK CFI 51a50 .cfa: sp 0 +
STACK CFI 51a54 .cfa: x29 32 +
STACK CFI INIT 51bd4 8 .cfa: sp 0 +
STACK CFI INIT 51da8 4 .cfa: sp 0 +
STACK CFI INIT 51f28 24 .cfa: sp 0 +
STACK CFI INIT 51f4c 228 .cfa: sp 0 +
STACK CFI INIT 52174 2dc .cfa: sp 0 +
STACK CFI INIT 52450 53c .cfa: sp 0 +
STACK CFI INIT 5298c 8 .cfa: sp 0 +
STACK CFI INIT 52b58 14c .cfa: sp 0 +
STACK CFI 52b64 .cfa: sp 48 +
STACK CFI 52b70 .cfa: x29 48 + x19: .cfa -8 + ^ x20: .cfa -16 + ^ x21: .cfa -24 + ^ x22: .cfa -32 + ^ .ra: .cfa -40 + ^ x29: .cfa -48 + ^
STACK CFI 52c94 .cfa: sp 48 +
STACK CFI 52ca0 .cfa: sp 0 +
STACK CFI INIT 52ca4 210 .cfa: sp 0 +
STACK CFI 52ca8 .cfa: sp 64 +
STACK CFI 52cb8 .cfa: x29 64 + x19: .cfa -8 + ^ x20: .cfa -16 + ^ x21: .cfa -24 + ^ x22: .cfa -32 + ^ x23: .cfa -40 + ^ x24: .cfa -48 + ^ .ra: .cfa -56 + ^ x29: .cfa -64 + ^
STACK CFI 52e6c .cfa: sp 64 +
STACK CFI 52e7c .cfa: sp 0 +
STACK CFI 52e80 .cfa: sp 64 +
STACK CFI 52e90 .cfa: sp 0 +
STACK CFI 52e94 .cfa: x29 64 +
STACK CFI 52ea0 .cfa: sp 64 +
STACK CFI 52eb0 .cfa: sp 0 +
STACK CFI INIT 53078 108 .cfa: sp 0 +
STACK CFI 53084 .cfa: sp 48 +
STACK CFI 53090 .cfa: x29 48 + x19: .cfa -8 + ^ x20: .cfa -16 + ^ x21: .cfa -24 + ^ x22: .cfa -32 + ^ .ra: .cfa -40 + ^ x29: .cfa -48 + ^
STACK CFI 53170 .cfa: sp 48 +
STACK CFI 5317c .cfa: sp 0 +
STACK CFI INIT 53180 78 .cfa: sp 0 +
STACK CFI 53184 .cfa: sp 48 +
STACK CFI 53190 .cfa: x29 48 + x19: .cfa -8 + ^ x20: .cfa -16 + ^ x21: .cfa -24 + ^ x22: .cfa -32 + ^ .ra: .cfa -40 + ^ x29: .cfa -48 + ^
STACK CFI 531d8 .cfa: sp 48 +
STACK CFI 531e4 .cfa: sp 0 +
STACK CFI 531e8 .cfa: sp 48 +
STACK CFI 531f4 .cfa: sp 0 +
STACK CFI INIT 531f8 90 .cfa: sp 0 +
STACK CFI 531fc .cfa: sp 32 +
STACK CFI 53204 .cfa: x29 32 + x19: .cfa -16 + ^ .ra: .cfa -24 + ^ x29: .cfa -32 + ^
STACK CFI 5323c .cfa: sp 32 +
STACK CFI 53244 .cfa: sp 0 +
STACK CFI 53248 .cfa: x29 32 +
STACK CFI 5327c .cfa: sp 32 +
STACK CFI 53284 .cfa: sp 0 +
STACK CFI INIT 53288 24 .cfa: sp 0 +
STACK CFI 5328c .cfa: sp 32 +
STACK CFI 53294 .cfa: x29 32 + x19: .cfa -16 + ^ .ra: .cfa -24 + ^ x29: .cfa -32 + ^
STACK CFI 532a0 .cfa: sp 32 +
STACK CFI 532a8 .cfa: sp 0 +
STACK CFI INIT 532ac a0 .cfa: sp 0 +
STACK CFI 532b0 .cfa: sp 48 +
STACK CFI 532bc .cfa: x29 48 + x19: .cfa -8 + ^ x20: .cfa -16 + ^ x21: .cfa -24 + ^ x22: .cfa -32 + ^ .ra: .cfa -40 + ^ x29: .cfa -48 + ^
STACK CFI 53328 .cfa: sp 48 +
STACK CFI 53334 .cfa: sp 0 +
STACK CFI 53338 .cfa: sp 48 +
STACK CFI 53344 .cfa: sp 0 +
STACK CFI 53348 .cfa: x29 48 +
STACK CFI INIT 53548 150 .cfa: sp 0 +
STACK CFI 5354c .cfa: sp 48 +
STACK CFI 53558 .cfa: x29 48 + x19: .cfa -8 + ^ x20: .cfa -16 + ^ x21: .cfa -24 + ^ x22: .cfa -32 + ^ .ra: .cfa -40 + ^ x29: .cfa -48 + ^
STACK CFI 53688 .cfa: sp 48 +
STACK CFI 53694 .cfa: sp 0 +
STACK CFI INIT 53698 4c .cfa: sp 0 +
STACK CFI 5369c .cfa: sp 64 +
STACK CFI 536a8 .cfa: x29 32 + x19: .cfa -16 + ^ .ra: .cfa -24 + ^ x29: .cfa -32 + ^
STACK CFI 536d0 .cfa: sp 64 +
STACK CFI 536dc .cfa: sp 0 +
STACK CFI 536e0 .cfa: x29 32 +
STACK CFI INIT 536e4 70 .cfa: sp 0 +
STACK CFI 536e8 .cfa: sp 64 +
STACK CFI 536f4 .cfa: x29 32 + x19: .cfa -16 + ^ .ra: .cfa -24 + ^ x29: .cfa -32 + ^
STACK CFI 53740 .cfa: sp 64 +
STACK CFI 5374c .cfa: sp 0 +
STACK CFI 53750 .cfa: x29 32 +
STACK CFI INIT 53754 78 .cfa: sp 0 +
STACK CFI 53758 .cfa: sp 32 +
STACK CFI 53760 .cfa: x29 32 + x19: .cfa -8 + ^ x20: .cfa -16 + ^ .ra: .cfa -24 + ^ x29: .cfa -32 + ^
STACK CFI 537c0 .cfa: sp 32 +
STACK CFI 537c8 .cfa: sp 0 +
STACK CFI INIT 537cc f4 .cfa: sp 0 +
STACK CFI 537d0 .cfa: sp 112 +
STACK CFI 537e0 .cfa: x29 48 + x19: .cfa -8 + ^ x20: .cfa -16 + ^ x21: .cfa -32 + ^ .ra: .cfa -40 + ^ x29: .cfa -48 + ^
STACK CFI 538a8 .cfa: sp 112 +
STACK CFI 538b8 .cfa: sp 0 +
STACK CFI 538bc .cfa: x29 48 +
STACK CFI INIT 538c0 f4 .cfa: sp 0 +
STACK CFI 538c4 .cfa: sp 112 +
STACK CFI 538d4 .cfa: x29 48 + x19: .cfa -8 + ^ x20: .cfa -16 + ^ x21: .cfa -32 + ^ .ra: .cfa -40 + ^ x29: .cfa -48 + ^
STACK CFI 5399c .cfa: sp 112 +
STACK CFI 539ac .cfa: sp 0 +
STACK CFI 539b0 .cfa: x29 48 +
STACK CFI INIT 539b4 48 .cfa: sp 0 +
STACK CFI 539b8 .cfa: sp 32 +
STACK CFI 539c0 .cfa: x29 32 + x19: .cfa -8 + ^ x20: .cfa -16 + ^ .ra: .cfa -24 + ^ x29: .cfa -32 + ^
STACK CFI 539e4 .cfa: sp 32 +
STACK CFI 539ec .cfa: sp 0 +
STACK CFI 539f0 .cfa: x29 32 +
STACK CFI INIT 539fc 9c .cfa: sp 0 +
STACK CFI 53a00 .cfa: sp 80 +
STACK CFI 53a0c .cfa: x29 32 + x19: .cfa -16 + ^ .ra: .cfa -24 + ^ x29: .cfa -32 + ^
STACK CFI 53a84 .cfa: sp 80 +
STACK CFI 53a90 .cfa: sp 0 +
STACK CFI 53a94 .cfa: x29 32 +
STACK CFI INIT 53a98 264 .cfa: sp 0 +
STACK CFI 53a9c .cfa: sp 112 +
STACK CFI 53ab4 .cfa: x29 80 + x19: .cfa -8 + ^ x20: .cfa -16 + ^ x21: .cfa -24 + ^ x22: .cfa -32 + ^ x23: .cfa -40 + ^ x24: .cfa -48 + ^ x25: .cfa -64 + ^ .ra: .cfa -72 + ^ x29: .cfa -80 + ^
STACK CFI 53c9c .cfa: sp 112 +
STACK CFI 53cb4 .cfa: sp 0 +
STACK CFI 53cb8 .cfa: x29 80 +
STACK CFI INIT 53cfc 150 .cfa: sp 0 +
STACK CFI 53d00 .cfa: sp 48 +
STACK CFI 53d0c .cfa: x29 48 + x19: .cfa -8 + ^ x20: .cfa -16 + ^ x21: .cfa -24 + ^ x22: .cfa -32 + ^ .ra: .cfa -40 + ^ x29: .cfa -48 + ^
STACK CFI 53e3c .cfa: sp 48 +
STACK CFI 53e48 .cfa: sp 0 +
STACK CFI INIT 53e4c 1e4 .cfa: sp 0 +
STACK CFI 53e50 .cfa: sp 96 +
STACK CFI 53e64 .cfa: x29 64 + x19: .cfa -8 + ^ x20: .cfa -16 + ^ x21: .cfa -24 + ^ x22: .cfa -32 + ^ x23: .cfa -40 + ^ x24: .cfa -48 + ^ .ra: .cfa -56 + ^ x29: .cfa -64 + ^
STACK CFI 53fe8 .cfa: sp 96 +
STACK CFI 53ffc .cfa: sp 0 +
STACK CFI 54000 .cfa: x29 64 +
STACK CFI INIT 54030 288 .cfa: sp 0 +
STACK CFI 54034 .cfa: sp 112 +
STACK CFI 5404c .cfa: x29 80 + x19: .cfa -8 + ^ x20: .cfa -16 + ^ x21: .cfa -24 + ^ x22: .cfa -32 + ^ x23: .cfa -40 + ^ x24: .cfa -48 + ^ x25: .cfa -64 + ^ .ra: .cfa -72 + ^ x29: .cfa -80 + ^
STACK CFI 54258 .cfa: sp 112 +
STACK CFI 54270 .cfa: sp 0 +
STACK CFI 54274 .cfa: x29 80 +
STACK CFI INIT 542b8 20c .cfa: sp 0 +
STACK CFI 542bc .cfa: sp 96 +
STACK CFI 542d0 .cfa: x29 64 + x19: .cfa -8 + ^ x20: .cfa -16 + ^ x21: .cfa -24 + ^ x22: .cfa -32 + ^ x23: .cfa -40 + ^ x24: .cfa -48 + ^ .ra: .cfa -56 + ^ x29: .cfa -64 + ^
STACK CFI 5447c .cfa: sp 96 +
STACK CFI 54490 .cfa: sp 0 +
STACK CFI 54494 .cfa: x29 64 +
STACK CFI INIT 544c4 364 .cfa: sp 0 +
STACK CFI 544c8 .cfa: sp 160 +
STACK CFI 544e4 .cfa: x29 96 + x19: .cfa -8 + ^ x20: .cfa -16 + ^ x21: .cfa -24 + ^ x22: .cfa -32 + ^ x23: .cfa -40 + ^ x24: .cfa -48 + ^ x25: .cfa -56 + ^ x26: .cfa -64 + ^ x27: .cfa -72 + ^ x28: .cfa -80 + ^ .ra: .cfa -88 + ^ x29: .cfa -96 + ^
STACK CFI 547b4 .cfa: sp 160 +
STACK CFI 547d0 .cfa: sp 0 +
STACK CFI 547d4 .cfa: x29 96 +
STACK CFI INIT 54828 318 .cfa: sp 0 +
STACK CFI 5482c .cfa: sp 144 +
STACK CFI 54848 .cfa: x29 96 + x19: .cfa -8 + ^ x20: .cfa -16 + ^ x21: .cfa -24 + ^ x22: .cfa -32 + ^ x23: .cfa -40 + ^ x24: .cfa -48 + ^ x25: .cfa -56 + ^ x26: .cfa -64 + ^ x27: .cfa -72 + ^ x28: .cfa -80 + ^ .ra: .cfa -88 + ^ x29: .cfa -96 + ^
STACK CFI 54ac8 .cfa: sp 144 +
STACK CFI 54ae4 .cfa: sp 0 +
STACK CFI 54ae8 .cfa: x29 96 +
STACK CFI INIT 54b40 10c .cfa: sp 0 +
STACK CFI 54b44 .cfa: sp 96 +
STACK CFI 54b54 .cfa: x29 48 + x19: .cfa -8 + ^ x20: .cfa -16 + ^ x21: .cfa -24 + ^ x22: .cfa -32 + ^ .ra: .cfa -40 + ^ x29: .cfa -48 + ^
STACK CFI 54c34 .cfa: sp 96 +
STACK CFI 54c44 .cfa: sp 0 +
STACK CFI 54c48 .cfa: x29 48 +
STACK CFI INIT 54c4c 9a4 .cfa: sp 0 +
STACK CFI 54c50 .cfa: sp 144 +
STACK CFI 54c68 .cfa: x29 80 + x19: .cfa -8 + ^ x20: .cfa -16 + ^ x21: .cfa -24 + ^ x22: .cfa -32 + ^ x23: .cfa -40 + ^ x24: .cfa -48 + ^ x25: .cfa -64 + ^ .ra: .cfa -72 + ^ x29: .cfa -80 + ^
STACK CFI 555d0 .cfa: sp 144 +
STACK CFI 555e8 .cfa: sp 0 +
STACK CFI 555ec .cfa: x29 80 +
STACK CFI INIT 555f0 190 .cfa: sp 0 +
STACK CFI 555f4 .cfa: sp 96 +
STACK CFI 55608 .cfa: x29 64 + x19: .cfa -8 + ^ x20: .cfa -16 + ^ x21: .cfa -24 + ^ x22: .cfa -32 + ^ x23: .cfa -48 + ^ .ra: .cfa -56 + ^ x29: .cfa -64 + ^
STACK CFI 55764 .cfa: sp 96 +
STACK CFI 55778 .cfa: sp 0 +
STACK CFI 5577c .cfa: x29 64 +
STACK CFI INIT 55780 1e4 .cfa: sp 0 +
STACK CFI 55784 .cfa: sp 112 +
STACK CFI 5579c .cfa: x29 80 + x19: .cfa -8 + ^ x20: .cfa -16 + ^ x21: .cfa -24 + ^ x22: .cfa -32 + ^ x23: .cfa -40 + ^ x24: .cfa -48 + ^ x25: .cfa -64 + ^ .ra: .cfa -72 + ^ x29: .cfa -80 + ^
STACK CFI 55944 .cfa: sp 112 +
STACK CFI 5595c .cfa: sp 0 +
STACK CFI 55960 .cfa: x29 80 +
STACK CFI INIT 55964 1a8 .cfa: sp 0 +
STACK CFI 55968 .cfa: sp 96 +
STACK CFI 5597c .cfa: x29 64 + x19: .cfa -8 + ^ x20: .cfa -16 + ^ x21: .cfa -24 + ^ x22: .cfa -32 + ^ x23: .cfa -40 + ^ x24: .cfa -48 + ^ .ra: .cfa -56 + ^ x29: .cfa -64 + ^
STACK CFI 55af0 .cfa: sp 96 +
STACK CFI 55b04 .cfa: sp 0 +
STACK CFI 55b08 .cfa: x29 64 +
STACK CFI INIT 55b0c 1ac .cfa: sp 0 +
STACK CFI 55b10 .cfa: sp 112 +
STACK CFI 55b24 .cfa: x29 64 + x19: .cfa -8 + ^ x20: .cfa -16 + ^ x21: .cfa -24 + ^ x22: .cfa -32 + ^ x23: .cfa -40 + ^ x24: .cfa -48 + ^ .ra: .cfa -56 + ^ x29: .cfa -64 + ^
STACK CFI 55c9c .cfa: sp 112 +
STACK CFI 55cb0 .cfa: sp 0 +
STACK CFI 55cb4 .cfa: x29 64 +
STACK CFI INIT 55cb8 108 .cfa: sp 0 +
STACK CFI 55cbc .cfa: sp 64 +
STACK CFI 55ccc .cfa: x29 64 + x19: .cfa -8 + ^ x20: .cfa -16 + ^ x21: .cfa -24 + ^ x22: .cfa -32 + ^ x23: .cfa -48 + ^ .ra: .cfa -56 + ^ x29: .cfa -64 + ^
STACK CFI 55d48 .cfa: sp 64 +
STACK CFI 55d58 .cfa: sp 0 +
STACK CFI 55d5c .cfa: x29 64 +
STACK CFI 55dac .cfa: sp 64 +
STACK CFI 55dbc .cfa: sp 0 +
STACK CFI INIT 55dc0 178 .cfa: sp 0 +
STACK CFI 55dc4 .cfa: sp 96 +
STACK CFI 55dd4 .cfa: x29 48 + x19: .cfa -8 + ^ x20: .cfa -16 + ^ x21: .cfa -24 + ^ x22: .cfa -32 + ^ .ra: .cfa -40 + ^ x29: .cfa -48 + ^
STACK CFI 55ef4 .cfa: sp 96 +
STACK CFI 55f04 .cfa: sp 0 +
STACK CFI 55f08 .cfa: x29 48 +
STACK CFI INIT 55f38 1f4 .cfa: sp 0 +
STACK CFI 55f3c .cfa: sp 80 +
STACK CFI 55f50 .cfa: x29 80 + x19: .cfa -8 + ^ x20: .cfa -16 + ^ x21: .cfa -24 + ^ x22: .cfa -32 + ^ x23: .cfa -40 + ^ x24: .cfa -48 + ^ x25: .cfa -64 + ^ .ra: .cfa -72 + ^ x29: .cfa -80 + ^
STACK CFI 560f0 .cfa: sp 80 +
STACK CFI 56104 .cfa: sp 0 +
STACK CFI 56108 .cfa: x29 80 +
STACK CFI 56114 .cfa: sp 80 +
STACK CFI 56128 .cfa: sp 0 +
STACK CFI INIT 5612c 258 .cfa: sp 0 +
STACK CFI 56130 .cfa: sp 96 +
STACK CFI 56148 .cfa: x29 96 + x19: .cfa -8 + ^ x20: .cfa -16 + ^ x21: .cfa -24 + ^ x22: .cfa -32 + ^ x23: .cfa -40 + ^ x24: .cfa -48 + ^ x25: .cfa -56 + ^ x26: .cfa -64 + ^ x27: .cfa -72 + ^ x28: .cfa -80 + ^ .ra: .cfa -88 + ^ x29: .cfa -96 + ^
STACK CFI 56340 .cfa: sp 96 +
STACK CFI 56358 .cfa: sp 0 +
STACK CFI 5635c .cfa: x29 96 +
STACK CFI 56368 .cfa: sp 96 +
STACK CFI 56380 .cfa: sp 0 +
STACK CFI INIT 56a58 154 .cfa: sp 0 +
STACK CFI 56a5c .cfa: sp 96 +
STACK CFI 56a70 .cfa: x29 64 + x19: .cfa -8 + ^ x20: .cfa -16 + ^ x21: .cfa -24 + ^ x22: .cfa -32 + ^ x23: .cfa -48 + ^ .ra: .cfa -56 + ^ x29: .cfa -64 + ^
STACK CFI 56b50 .cfa: sp 96 +
STACK CFI 56b64 .cfa: sp 0 +
STACK CFI 56b68 .cfa: x29 64 +
STACK CFI INIT 56d64 44 .cfa: sp 0 +
STACK CFI 56d68 .cfa: sp 32 +
STACK CFI 56d70 .cfa: x29 32 + x19: .cfa -16 + ^ .ra: .cfa -24 + ^ x29: .cfa -32 + ^
STACK CFI 56d8c .cfa: sp 32 +
STACK CFI 56d94 .cfa: sp 0 +
STACK CFI 56d98 .cfa: x29 32 +
STACK CFI 56d9c .cfa: sp 32 +
STACK CFI 56da4 .cfa: sp 0 +
STACK CFI INIT 56da8 1d0 .cfa: sp 0 +
STACK CFI 56dac .cfa: sp 64 +
STACK CFI 56dbc .cfa: x29 64 + x19: .cfa -8 + ^ x20: .cfa -16 + ^ x21: .cfa -24 + ^ x22: .cfa -32 + ^ x23: .cfa -40 + ^ x24: .cfa -48 + ^ .ra: .cfa -56 + ^ x29: .cfa -64 + ^
STACK CFI 56e7c .cfa: sp 64 +
STACK CFI 56e8c .cfa: sp 0 +
STACK CFI 56e90 .cfa: x29 64 +
STACK CFI INIT 56f78 17c .cfa: sp 0 +
STACK CFI INIT 570f4 134 .cfa: sp 0 +
STACK CFI 570f8 .cfa: sp 48 +
STACK CFI 57104 .cfa: x29 48 + x19: .cfa -8 + ^ x20: .cfa -16 + ^ x21: .cfa -24 + ^ x22: .cfa -32 + ^ .ra: .cfa -40 + ^ x29: .cfa -48 + ^
STACK CFI 57218 .cfa: sp 48 +
STACK CFI 57224 .cfa: sp 0 +
STACK CFI INIT 578a0 a0 .cfa: sp 0 +
STACK CFI 578a4 .cfa: sp 48 +
STACK CFI 578b0 .cfa: x29 48 + x19: .cfa -8 + ^ x20: .cfa -16 + ^ x21: .cfa -24 + ^ x22: .cfa -32 + ^ .ra: .cfa -40 + ^ x29: .cfa -48 + ^
STACK CFI 5791c .cfa: sp 48 +
STACK CFI 57928 .cfa: sp 0 +
STACK CFI 5792c .cfa: sp 48 +
STACK CFI 57938 .cfa: sp 0 +
STACK CFI 5793c .cfa: x29 48 +
STACK CFI INIT 57940 190 .cfa: sp 0 +
STACK CFI 57944 .cfa: sp 80 +
STACK CFI 57958 .cfa: x29 80 + x19: .cfa -8 + ^ x20: .cfa -16 + ^ x21: .cfa -24 + ^ x22: .cfa -32 + ^ x23: .cfa -40 + ^ x24: .cfa -48 + ^ x25: .cfa -64 + ^ .ra: .cfa -72 + ^ x29: .cfa -80 + ^
STACK CFI 57a94 .cfa: sp 80 +
STACK CFI 57aa8 .cfa: sp 0 +
STACK CFI 57aac .cfa: x29 80 +
STACK CFI 57ab8 .cfa: sp 80 +
STACK CFI 57acc .cfa: sp 0 +
STACK CFI INIT 57c18 21c .cfa: sp 0 +
STACK CFI 57c1c .cfa: sp 96 +
STACK CFI 57c30 .cfa: x29 64 + x19: .cfa -8 + ^ x20: .cfa -16 + ^ x21: .cfa -24 + ^ x22: .cfa -32 + ^ x23: .cfa -40 + ^ x24: .cfa -48 + ^ .ra: .cfa -56 + ^ x29: .cfa -64 + ^
STACK CFI 57e18 .cfa: sp 96 +
STACK CFI 57e2c .cfa: sp 0 +
STACK CFI 57e30 .cfa: x29 64 +
STACK CFI INIT 58518 158 .cfa: sp 0 +
STACK CFI 5851c .cfa: sp 96 +
STACK CFI 58530 .cfa: x29 64 + x19: .cfa -8 + ^ x20: .cfa -16 + ^ x21: .cfa -24 + ^ x22: .cfa -32 + ^ x23: .cfa -48 + ^ .ra: .cfa -56 + ^ x29: .cfa -64 + ^
STACK CFI 58614 .cfa: sp 96 +
STACK CFI 58628 .cfa: sp 0 +
STACK CFI 5862c .cfa: x29 64 +
STACK CFI INIT 58670 190 .cfa: sp 0 +
STACK CFI INIT 58800 134 .cfa: sp 0 +
STACK CFI 58804 .cfa: sp 48 +
STACK CFI 58810 .cfa: x29 48 + x19: .cfa -8 + ^ x20: .cfa -16 + ^ x21: .cfa -24 + ^ x22: .cfa -32 + ^ .ra: .cfa -40 + ^ x29: .cfa -48 + ^
STACK CFI 58924 .cfa: sp 48 +
STACK CFI 58930 .cfa: sp 0 +
STACK CFI INIT 58c0c 190 .cfa: sp 0 +
STACK CFI 58c10 .cfa: sp 80 +
STACK CFI 58c24 .cfa: x29 80 + x19: .cfa -8 + ^ x20: .cfa -16 + ^ x21: .cfa -24 + ^ x22: .cfa -32 + ^ x23: .cfa -40 + ^ x24: .cfa -48 + ^ x25: .cfa -64 + ^ .ra: .cfa -72 + ^ x29: .cfa -80 + ^
STACK CFI 58d60 .cfa: sp 80 +
STACK CFI 58d74 .cfa: sp 0 +
STACK CFI 58d78 .cfa: x29 80 +
STACK CFI 58d84 .cfa: sp 80 +
STACK CFI 58d98 .cfa: sp 0 +
STACK CFI INIT 58ee4 228 .cfa: sp 0 +
STACK CFI 58ee8 .cfa: sp 96 +
STACK CFI 58efc .cfa: x29 64 + x19: .cfa -8 + ^ x20: .cfa -16 + ^ x21: .cfa -24 + ^ x22: .cfa -32 + ^ x23: .cfa -40 + ^ x24: .cfa -48 + ^ .ra: .cfa -56 + ^ x29: .cfa -64 + ^
STACK CFI 590f0 .cfa: sp 96 +
STACK CFI 59104 .cfa: sp 0 +
STACK CFI 59108 .cfa: x29 64 +
STACK CFI INIT 594f4 568 .cfa: sp 0 +
STACK CFI 594f8 .cfa: sp 176 +
STACK CFI 59514 .cfa: x29 96 + x19: .cfa -8 + ^ x20: .cfa -16 + ^ x21: .cfa -24 + ^ x22: .cfa -32 + ^ x23: .cfa -40 + ^ x24: .cfa -48 + ^ x25: .cfa -56 + ^ x26: .cfa -64 + ^ x27: .cfa -72 + ^ x28: .cfa -80 + ^ .ra: .cfa -88 + ^ x29: .cfa -96 + ^
STACK CFI 59a38 .cfa: sp 176 +
STACK CFI 59a54 .cfa: sp 0 +
STACK CFI 59a58 .cfa: x29 96 +
STACK CFI INIT 59a5c 2c4 .cfa: sp 0 +
STACK CFI 59a60 .cfa: sp 160 +
STACK CFI 59a74 .cfa: x29 64 + x19: .cfa -8 + ^ x20: .cfa -16 + ^ x21: .cfa -24 + ^ x22: .cfa -32 + ^ x23: .cfa -40 + ^ x24: .cfa -48 + ^ .ra: .cfa -56 + ^ x29: .cfa -64 + ^
STACK CFI 59ce0 .cfa: sp 160 +
STACK CFI 59cf4 .cfa: sp 0 +
STACK CFI 59cf8 .cfa: x29 64 +
STACK CFI INIT 59d20 1f4 .cfa: sp 0 +
STACK CFI 59d24 .cfa: sp 80 +
STACK CFI 59d38 .cfa: x29 80 + x19: .cfa -8 + ^ x20: .cfa -16 + ^ x21: .cfa -24 + ^ x22: .cfa -32 + ^ x23: .cfa -40 + ^ x24: .cfa -48 + ^ x25: .cfa -64 + ^ .ra: .cfa -72 + ^ x29: .cfa -80 + ^
STACK CFI 59ed8 .cfa: sp 80 +
STACK CFI 59eec .cfa: sp 0 +
STACK CFI 59ef0 .cfa: x29 80 +
STACK CFI 59efc .cfa: sp 80 +
STACK CFI 59f10 .cfa: sp 0 +
STACK CFI INIT 5b348 124 .cfa: sp 0 +
STACK CFI 5b378 .cfa: sp 32 +
STACK CFI 5b380 .cfa: x29 32 + x19: .cfa -8 + ^ x20: .cfa -16 + ^ .ra: .cfa -24 + ^ x29: .cfa -32 + ^
STACK CFI 5b460 .cfa: sp 32 +
STACK CFI 5b468 .cfa: sp 0 +
STACK CFI INIT 5b46c 194 .cfa: sp 0 +
STACK CFI 5b470 .cfa: sp 48 +
STACK CFI 5b47c .cfa: x29 48 + x19: .cfa -8 + ^ x20: .cfa -16 + ^ x21: .cfa -24 + ^ x22: .cfa -32 + ^ .ra: .cfa -40 + ^ x29: .cfa -48 + ^
STACK CFI 5b4e4 .cfa: sp 48 +
STACK CFI 5b4f0 .cfa: sp 0 +
STACK CFI 5b4f4 .cfa: x29 48 +
STACK CFI 5b528 .cfa: sp 48 +
STACK CFI 5b534 .cfa: sp 0 +
STACK CFI 5b538 .cfa: x29 48 +
STACK CFI 5b5f0 .cfa: sp 48 +
STACK CFI 5b5fc .cfa: sp 0 +
STACK CFI INIT 5b600 320 .cfa: sp 0 +
STACK CFI 5b604 .cfa: sp 64 +
STACK CFI 5b614 .cfa: x29 64 + x19: .cfa -8 + ^ x20: .cfa -16 + ^ x21: .cfa -24 + ^ x22: .cfa -32 + ^ x23: .cfa -40 + ^ x24: .cfa -48 + ^ .ra: .cfa -56 + ^ x29: .cfa -64 + ^
STACK CFI 5b690 .cfa: sp 64 +
STACK CFI 5b6a0 .cfa: sp 0 +
STACK CFI 5b6a4 .cfa: x29 64 +
STACK CFI 5b878 .cfa: sp 64 +
STACK CFI 5b888 .cfa: sp 0 +
STACK CFI 5b88c .cfa: x29 64 +
STACK CFI 5b89c .cfa: sp 64 +
STACK CFI 5b8ac .cfa: sp 0 +
STACK CFI 5b8b0 .cfa: x29 64 +
STACK CFI INIT 5b920 a0 .cfa: sp 0 +
STACK CFI 5b924 .cfa: sp 48 +
STACK CFI 5b930 .cfa: x29 48 + x19: .cfa -8 + ^ x20: .cfa -16 + ^ x21: .cfa -24 + ^ x22: .cfa -32 + ^ .ra: .cfa -40 + ^ x29: .cfa -48 + ^
STACK CFI 5b99c .cfa: sp 48 +
STACK CFI 5b9a8 .cfa: sp 0 +
STACK CFI 5b9ac .cfa: sp 48 +
STACK CFI 5b9b8 .cfa: sp 0 +
STACK CFI 5b9bc .cfa: x29 48 +
STACK CFI INIT 5c644 168 .cfa: sp 0 +
STACK CFI 5c648 .cfa: sp 64 +
STACK CFI 5c658 .cfa: x29 64 + x19: .cfa -8 + ^ x20: .cfa -16 + ^ x21: .cfa -24 + ^ x22: .cfa -32 + ^ x23: .cfa -48 + ^ .ra: .cfa -56 + ^ x29: .cfa -64 + ^
STACK CFI 5c758 .cfa: sp 64 +
STACK CFI 5c768 .cfa: sp 0 +
STACK CFI 5c76c .cfa: x29 64 +
STACK CFI INIT 5c7ac 134 .cfa: sp 0 +
STACK CFI 5c7b0 .cfa: sp 48 +
STACK CFI 5c7bc .cfa: x29 48 + x19: .cfa -8 + ^ x20: .cfa -16 + ^ x21: .cfa -24 + ^ x22: .cfa -32 + ^ .ra: .cfa -40 + ^ x29: .cfa -48 + ^
STACK CFI 5c8d0 .cfa: sp 48 +
STACK CFI 5c8dc .cfa: sp 0 +
STACK CFI INIT 5ccc8 190 .cfa: sp 0 +
STACK CFI 5cccc .cfa: sp 80 +
STACK CFI 5cce0 .cfa: x29 80 + x19: .cfa -8 + ^ x20: .cfa -16 + ^ x21: .cfa -24 + ^ x22: .cfa -32 + ^ x23: .cfa -40 + ^ x24: .cfa -48 + ^ x25: .cfa -64 + ^ .ra: .cfa -72 + ^ x29: .cfa -80 + ^
STACK CFI 5ce1c .cfa: sp 80 +
STACK CFI 5ce30 .cfa: sp 0 +
STACK CFI 5ce34 .cfa: x29 80 +
STACK CFI 5ce40 .cfa: sp 80 +
STACK CFI 5ce54 .cfa: sp 0 +
STACK CFI INIT 5d06c 280 .cfa: sp 0 +
STACK CFI 5d070 .cfa: sp 64 +
STACK CFI 5d080 .cfa: x29 64 + x19: .cfa -8 + ^ x20: .cfa -16 + ^ x21: .cfa -24 + ^ x22: .cfa -32 + ^ x23: .cfa -48 + ^ .ra: .cfa -56 + ^ x29: .cfa -64 + ^
STACK CFI 5d2d8 .cfa: sp 64 +
STACK CFI 5d2e8 .cfa: sp 0 +
STACK CFI INIT 5d2ec 220 .cfa: sp 0 +
STACK CFI 5d2f0 .cfa: sp 128 +
STACK CFI 5d30c .cfa: x29 96 + x19: .cfa -8 + ^ x20: .cfa -16 + ^ x21: .cfa -24 + ^ x22: .cfa -32 + ^ x23: .cfa -40 + ^ x24: .cfa -48 + ^ x25: .cfa -56 + ^ x26: .cfa -64 + ^ x27: .cfa -80 + ^ .ra: .cfa -88 + ^ x29: .cfa -96 + ^
STACK CFI 5d490 .cfa: sp 128 +
STACK CFI 5d4ac .cfa: sp 0 +
STACK CFI 5d4b0 .cfa: x29 96 +
STACK CFI INIT 5d50c 6c4 .cfa: sp 0 +
STACK CFI 5d510 .cfa: sp 192 +
STACK CFI 5d520 .cfa: x29 48 + x19: .cfa -8 + ^ x20: .cfa -16 + ^ x21: .cfa -24 + ^ x22: .cfa -32 + ^ .ra: .cfa -40 + ^ x29: .cfa -48 + ^
STACK CFI 5d680 .cfa: sp 192 +
STACK CFI 5d690 .cfa: sp 0 +
STACK CFI 5d694 .cfa: x29 48 +
STACK CFI INIT 5dbd0 624 .cfa: sp 0 +
STACK CFI 5dbd4 .cfa: sp 336 +
STACK CFI 5dbf0 .cfa: x29 96 + x19: .cfa -8 + ^ x20: .cfa -16 + ^ x21: .cfa -24 + ^ x22: .cfa -32 + ^ x23: .cfa -40 + ^ x24: .cfa -48 + ^ x25: .cfa -56 + ^ x26: .cfa -64 + ^ x27: .cfa -72 + ^ x28: .cfa -80 + ^ .ra: .cfa -88 + ^ x29: .cfa -96 + ^
STACK CFI 5dc94 .cfa: sp 336 +
STACK CFI 5dcb0 .cfa: sp 0 +
STACK CFI 5dcb4 .cfa: x29 96 +
STACK CFI INIT 5e1f4 258 .cfa: sp 0 +
STACK CFI 5e1f8 .cfa: sp 112 +
STACK CFI 5e214 .cfa: x29 96 + x19: .cfa -8 + ^ x20: .cfa -16 + ^ x21: .cfa -24 + ^ x22: .cfa -32 + ^ x23: .cfa -40 + ^ x24: .cfa -48 + ^ x25: .cfa -56 + ^ x26: .cfa -64 + ^ x27: .cfa -72 + ^ x28: .cfa -80 + ^ .ra: .cfa -88 + ^ x29: .cfa -96 + ^
STACK CFI 5e414 .cfa: sp 112 +
STACK CFI 5e430 .cfa: sp 0 +
STACK CFI 5e434 .cfa: x29 96 +
STACK CFI INIT 5e44c 9e8 .cfa: sp 0 +
STACK CFI 5e450 .cfa: sp 160 +
STACK CFI 5e468 .cfa: x29 80 + x19: .cfa -8 + ^ x20: .cfa -16 + ^ x21: .cfa -24 + ^ x22: .cfa -32 + ^ x23: .cfa -40 + ^ x24: .cfa -48 + ^ x25: .cfa -64 + ^ .ra: .cfa -72 + ^ x29: .cfa -80 + ^
STACK CFI 5ee14 .cfa: sp 160 +
STACK CFI 5ee2c .cfa: sp 0 +
STACK CFI 5ee30 .cfa: x29 80 +
STACK CFI INIT 5ee34 19c .cfa: sp 0 +
STACK CFI 5ee38 .cfa: sp 96 +
STACK CFI 5ee4c .cfa: x29 64 + x19: .cfa -8 + ^ x20: .cfa -16 + ^ x21: .cfa -24 + ^ x22: .cfa -32 + ^ x23: .cfa -48 + ^ .ra: .cfa -56 + ^ x29: .cfa -64 + ^
STACK CFI 5efb4 .cfa: sp 96 +
STACK CFI 5efc8 .cfa: sp 0 +
STACK CFI 5efcc .cfa: x29 64 +
STACK CFI INIT 5efd0 1e8 .cfa: sp 0 +
STACK CFI 5efd4 .cfa: sp 112 +
STACK CFI 5efec .cfa: x29 80 + x19: .cfa -8 + ^ x20: .cfa -16 + ^ x21: .cfa -24 + ^ x22: .cfa -32 + ^ x23: .cfa -40 + ^ x24: .cfa -48 + ^ x25: .cfa -64 + ^ .ra: .cfa -72 + ^ x29: .cfa -80 + ^
STACK CFI 5f198 .cfa: sp 112 +
STACK CFI 5f1b0 .cfa: sp 0 +
STACK CFI 5f1b4 .cfa: x29 80 +
STACK CFI INIT 5f1b8 1ac .cfa: sp 0 +
STACK CFI 5f1bc .cfa: sp 96 +
STACK CFI 5f1d0 .cfa: x29 64 + x19: .cfa -8 + ^ x20: .cfa -16 + ^ x21: .cfa -24 + ^ x22: .cfa -32 + ^ x23: .cfa -40 + ^ x24: .cfa -48 + ^ .ra: .cfa -56 + ^ x29: .cfa -64 + ^
STACK CFI 5f348 .cfa: sp 96 +
STACK CFI 5f35c .cfa: sp 0 +
STACK CFI 5f360 .cfa: x29 64 +
STACK CFI INIT 5f364 1b4 .cfa: sp 0 +
STACK CFI 5f368 .cfa: sp 144 +
STACK CFI 5f37c .cfa: x29 64 + x19: .cfa -8 + ^ x20: .cfa -16 + ^ x21: .cfa -24 + ^ x22: .cfa -32 + ^ x23: .cfa -40 + ^ x24: .cfa -48 + ^ .ra: .cfa -56 + ^ x29: .cfa -64 + ^
STACK CFI 5f4fc .cfa: sp 144 +
STACK CFI 5f510 .cfa: sp 0 +
STACK CFI 5f514 .cfa: x29 64 +
STACK CFI INIT 5f518 b00 .cfa: sp 0 +
STACK CFI 5f51c .cfa: sp 256 +
STACK CFI 5f538 .cfa: x29 96 + x19: .cfa -8 + ^ x20: .cfa -16 + ^ x21: .cfa -24 + ^ x22: .cfa -32 + ^ x23: .cfa -40 + ^ x24: .cfa -48 + ^ x25: .cfa -56 + ^ x26: .cfa -64 + ^ x27: .cfa -72 + ^ x28: .cfa -80 + ^ .ra: .cfa -88 + ^ x29: .cfa -96 + ^
STACK CFI 5fff4 .cfa: sp 256 +
STACK CFI 60010 .cfa: sp 0 +
STACK CFI 60014 .cfa: x29 96 +
STACK CFI INIT 60018 1d4 .cfa: sp 0 +
STACK CFI 6001c .cfa: sp 144 +
STACK CFI 60038 .cfa: x29 96 + x19: .cfa -8 + ^ x20: .cfa -16 + ^ x21: .cfa -24 + ^ x22: .cfa -32 + ^ x23: .cfa -40 + ^ x24: .cfa -48 + ^ x25: .cfa -56 + ^ x26: .cfa -64 + ^ x27: .cfa -80 + ^ .ra: .cfa -88 + ^ x29: .cfa -96 + ^
STACK CFI 601c8 .cfa: sp 144 +
STACK CFI 601e4 .cfa: sp 0 +
STACK CFI 601e8 .cfa: x29 96 +
STACK CFI INIT 601ec 200 .cfa: sp 0 +
STACK CFI 601f0 .cfa: sp 128 +
STACK CFI 60208 .cfa: x29 80 + x19: .cfa -8 + ^ x20: .cfa -16 + ^ x21: .cfa -24 + ^ x22: .cfa -32 + ^ x23: .cfa -40 + ^ x24: .cfa -48 + ^ x25: .cfa -56 + ^ x26: .cfa -64 + ^ .ra: .cfa -72 + ^ x29: .cfa -80 + ^
STACK CFI 603cc .cfa: sp 128 +
STACK CFI 603e4 .cfa: sp 0 +
STACK CFI 603e8 .cfa: x29 80 +
STACK CFI INIT 603ec 1cc .cfa: sp 0 +
STACK CFI 603f0 .cfa: sp 144 +
STACK CFI 60408 .cfa: x29 80 + x19: .cfa -8 + ^ x20: .cfa -16 + ^ x21: .cfa -24 + ^ x22: .cfa -32 + ^ x23: .cfa -40 + ^ x24: .cfa -48 + ^ x25: .cfa -64 + ^ .ra: .cfa -72 + ^ x29: .cfa -80 + ^
STACK CFI 60598 .cfa: sp 144 +
STACK CFI 605b0 .cfa: sp 0 +
STACK CFI 605b4 .cfa: x29 80 +
STACK CFI INIT 605b8 1d8 .cfa: sp 0 +
STACK CFI 605bc .cfa: sp 224 +
STACK CFI 605d4 .cfa: x29 80 + x19: .cfa -8 + ^ x20: .cfa -16 + ^ x21: .cfa -24 + ^ x22: .cfa -32 + ^ x23: .cfa -40 + ^ x24: .cfa -48 + ^ x25: .cfa -64 + ^ .ra: .cfa -72 + ^ x29: .cfa -80 + ^
STACK CFI 60770 .cfa: sp 224 +
STACK CFI 60788 .cfa: sp 0 +
STACK CFI 6078c .cfa: x29 80 +
STACK CFI INIT 60790 138 .cfa: sp 0 +
STACK CFI 60794 .cfa: sp 112 +
STACK CFI 607a8 .cfa: x29 64 + x19: .cfa -8 + ^ x20: .cfa -16 + ^ x21: .cfa -24 + ^ x22: .cfa -32 + ^ x23: .cfa -48 + ^ .ra: .cfa -56 + ^ x29: .cfa -64 + ^
STACK CFI 60890 .cfa: sp 112 +
STACK CFI 608a4 .cfa: sp 0 +
STACK CFI 608a8 .cfa: x29 64 +
STACK CFI INIT 60c60 520 .cfa: sp 0 +
STACK CFI 60c64 .cfa: sp 144 +
STACK CFI 60c80 .cfa: x29 96 + x19: .cfa -8 + ^ x20: .cfa -16 + ^ x21: .cfa -24 + ^ x22: .cfa -32 + ^ x23: .cfa -40 + ^ x24: .cfa -48 + ^ x25: .cfa -56 + ^ x26: .cfa -64 + ^ x27: .cfa -72 + ^ x28: .cfa -80 + ^ .ra: .cfa -88 + ^ x29: .cfa -96 + ^
STACK CFI 6115c .cfa: sp 144 +
STACK CFI 61178 .cfa: sp 0 +
STACK CFI 6117c .cfa: x29 96 +
STACK CFI INIT 61978 20c .cfa: sp 0 +
STACK CFI 6197c .cfa: sp 96 +
STACK CFI 61990 .cfa: x29 64 + x19: .cfa -8 + ^ x20: .cfa -16 + ^ x21: .cfa -24 + ^ x22: .cfa -32 + ^ x23: .cfa -40 + ^ x24: .cfa -48 + ^ .ra: .cfa -56 + ^ x29: .cfa -64 + ^
STACK CFI 61b3c .cfa: sp 96 +
STACK CFI 61b50 .cfa: sp 0 +
STACK CFI 61b54 .cfa: x29 64 +
STACK CFI INIT 63054 11c .cfa: sp 0 +
STACK CFI 63058 .cfa: sp 64 +
STACK CFI 63068 .cfa: x29 64 + x19: .cfa -8 + ^ x20: .cfa -16 + ^ x21: .cfa -24 + ^ x22: .cfa -32 + ^ x23: .cfa -40 + ^ x24: .cfa -48 + ^ .ra: .cfa -56 + ^ x29: .cfa -64 + ^
STACK CFI 630fc .cfa: sp 64 +
STACK CFI 6310c .cfa: sp 0 +
STACK CFI 63110 .cfa: x29 64 +
STACK CFI 6315c .cfa: sp 64 +
STACK CFI 6316c .cfa: sp 0 +
STACK CFI INIT 6379c 11c .cfa: sp 0 +
STACK CFI 637a0 .cfa: sp 64 +
STACK CFI 637b0 .cfa: x29 64 + x19: .cfa -8 + ^ x20: .cfa -16 + ^ x21: .cfa -24 + ^ x22: .cfa -32 + ^ x23: .cfa -40 + ^ x24: .cfa -48 + ^ .ra: .cfa -56 + ^ x29: .cfa -64 + ^
STACK CFI 63844 .cfa: sp 64 +
STACK CFI 63854 .cfa: sp 0 +
STACK CFI 63858 .cfa: x29 64 +
STACK CFI 638a4 .cfa: sp 64 +
STACK CFI 638b4 .cfa: sp 0 +
STACK CFI INIT 32930 438 .cfa: sp 0 +
STACK CFI 32934 .cfa: sp 480 +
STACK CFI 3294c .cfa: x29 80 + x19: .cfa -8 + ^ x20: .cfa -16 + ^ x21: .cfa -24 + ^ x22: .cfa -32 + ^ x23: .cfa -40 + ^ x24: .cfa -48 + ^ x28: .cfa -64 + ^ .ra: .cfa -72 + ^ x29: .cfa -80 + ^
STACK CFI 32cc4 .cfa: sp 480 +
STACK CFI 32cdc .cfa: sp 0 +
STACK CFI 32ce0 .cfa: x29 80 +
STACK CFI INIT 33024 50 .cfa: sp 0 +
STACK CFI 33028 .cfa: sp 32 +
STACK CFI 33030 .cfa: x29 32 + x19: .cfa -8 + ^ x20: .cfa -16 + ^ .ra: .cfa -24 + ^ x29: .cfa -32 + ^
STACK CFI INIT 330d8 16c .cfa: sp 0 +
STACK CFI 330dc .cfa: sp 144 +
STACK CFI 330f0 .cfa: x29 64 + x19: .cfa -8 + ^ x20: .cfa -16 + ^ x21: .cfa -24 + ^ x22: .cfa -32 + ^ x23: .cfa -40 + ^ x24: .cfa -48 + ^ .ra: .cfa -56 + ^ x29: .cfa -64 + ^
STACK CFI 331d8 .cfa: sp 144 +
STACK CFI 331ec .cfa: sp 0 +
STACK CFI 331f0 .cfa: x29 64 +
STACK CFI INIT 33344 3ec .cfa: sp 0 +
STACK CFI 33348 .cfa: sp 160 +
STACK CFI 33364 .cfa: x29 96 + x19: .cfa -8 + ^ x20: .cfa -16 + ^ x21: .cfa -24 + ^ x22: .cfa -32 + ^ x23: .cfa -40 + ^ x24: .cfa -48 + ^ x25: .cfa -56 + ^ x26: .cfa -64 + ^ x27: .cfa -80 + ^ .ra: .cfa -88 + ^ x29: .cfa -96 + ^
STACK CFI 336c8 .cfa: sp 160 +
STACK CFI 336e4 .cfa: sp 0 +
STACK CFI 336e8 .cfa: x29 96 +
STACK CFI INIT 338ec e8 .cfa: sp 0 +
STACK CFI 338f0 .cfa: sp 48 +
STACK CFI 338fc .cfa: x29 48 + x19: .cfa -8 + ^ x20: .cfa -16 + ^ x21: .cfa -32 + ^ .ra: .cfa -40 + ^ x29: .cfa -48 + ^
STACK CFI 33968 .cfa: sp 48 +
STACK CFI 33974 .cfa: sp 0 +
STACK CFI 33978 .cfa: x29 48 +
STACK CFI INIT 339d4 274 .cfa: sp 0 +
STACK CFI 339d8 .cfa: sp 160 +
STACK CFI 339f0 .cfa: x29 80 + x19: .cfa -8 + ^ x20: .cfa -16 + ^ x21: .cfa -24 + ^ x22: .cfa -32 + ^ x23: .cfa -40 + ^ x24: .cfa -48 + ^ x25: .cfa -64 + ^ .ra: .cfa -72 + ^ x29: .cfa -80 + ^
STACK CFI 33b88 .cfa: sp 160 +
STACK CFI 33ba0 .cfa: sp 0 +
STACK CFI 33ba4 .cfa: x29 80 +
STACK CFI INIT 33d58 534 .cfa: sp 0 +
STACK CFI 33d5c .cfa: sp 304 +
STACK CFI 33d78 .cfa: x29 96 + x19: .cfa -8 + ^ x20: .cfa -16 + ^ x21: .cfa -24 + ^ x22: .cfa -32 + ^ x23: .cfa -40 + ^ x24: .cfa -48 + ^ x25: .cfa -56 + ^ x26: .cfa -64 + ^ x27: .cfa -72 + ^ x28: .cfa -80 + ^ .ra: .cfa -88 + ^ x29: .cfa -96 + ^
STACK CFI 3420c .cfa: sp 304 +
STACK CFI 34228 .cfa: sp 0 +
STACK CFI 3422c .cfa: x29 96 +
STACK CFI INIT 342a0 284 .cfa: sp 0 +
STACK CFI 342a4 .cfa: sp 96 +
STACK CFI 342bc .cfa: x29 80 + x19: .cfa -8 + ^ x20: .cfa -16 + ^ x21: .cfa -24 + ^ x22: .cfa -32 + ^ x23: .cfa -40 + ^ x24: .cfa -48 + ^ x25: .cfa -56 + ^ x26: .cfa -64 + ^ .ra: .cfa -72 + ^ x29: .cfa -80 + ^
STACK CFI 34500 .cfa: sp 96 +
STACK CFI 34518 .cfa: sp 0 +
STACK CFI 3451c .cfa: x29 80 +
STACK CFI INIT 34524 2b0 .cfa: sp 0 +
STACK CFI 34528 .cfa: sp 144 +
STACK CFI 34538 .cfa: x29 48 + x19: .cfa -8 + ^ x20: .cfa -16 + ^ x21: .cfa -24 + ^ x22: .cfa -32 + ^ .ra: .cfa -40 + ^ x29: .cfa -48 + ^
STACK CFI 34730 .cfa: sp 144 +
STACK CFI 34740 .cfa: sp 0 +
STACK CFI 34744 .cfa: x29 48 +
STACK CFI INIT 34d90 658 .cfa: sp 0 +
STACK CFI 34d94 .cfa: sp 128 +
STACK CFI 34db0 .cfa: x29 96 + x19: .cfa -8 + ^ x20: .cfa -16 + ^ x21: .cfa -24 + ^ x22: .cfa -32 + ^ x23: .cfa -40 + ^ x24: .cfa -48 + ^ x25: .cfa -56 + ^ x26: .cfa -64 + ^ x27: .cfa -72 + ^ x28: .cfa -80 + ^ .ra: .cfa -88 + ^ x29: .cfa -96 + ^
STACK CFI 35384 .cfa: sp 128 +
STACK CFI 353a0 .cfa: sp 0 +
STACK CFI 353a4 .cfa: x29 96 +
STACK CFI INIT 35594 274 .cfa: sp 0 +
STACK CFI 35598 .cfa: sp 160 +
STACK CFI 355b0 .cfa: x29 80 + x19: .cfa -8 + ^ x20: .cfa -16 + ^ x21: .cfa -24 + ^ x22: .cfa -32 + ^ x23: .cfa -40 + ^ x24: .cfa -48 + ^ x25: .cfa -64 + ^ .ra: .cfa -72 + ^ x29: .cfa -80 + ^
STACK CFI 35748 .cfa: sp 160 +
STACK CFI 35760 .cfa: sp 0 +
STACK CFI 35764 .cfa: x29 80 +
STACK CFI INIT 35808 1a0 .cfa: sp 0 +
STACK CFI 3580c .cfa: sp 128 +
STACK CFI 3581c .cfa: x29 48 + x19: .cfa -8 + ^ x20: .cfa -16 + ^ x21: .cfa -24 + ^ x22: .cfa -32 + ^ .ra: .cfa -40 + ^ x29: .cfa -48 + ^
STACK CFI 35928 .cfa: sp 128 +
STACK CFI 35938 .cfa: sp 0 +
STACK CFI 3593c .cfa: x29 48 +
STACK CFI INIT 359a8 1f8 .cfa: sp 0 +
STACK CFI 359ac .cfa: sp 64 +
STACK CFI 359bc .cfa: x29 64 + x19: .cfa -8 + ^ x20: .cfa -16 + ^ x21: .cfa -24 + ^ x22: .cfa -32 + ^ x23: .cfa -40 + ^ x24: .cfa -48 + ^ .ra: .cfa -56 + ^ x29: .cfa -64 + ^
STACK CFI 35b80 .cfa: sp 64 +
STACK CFI 35b90 .cfa: sp 0 +
STACK CFI 35b94 .cfa: x29 64 +
STACK CFI INIT 35ed0 318 .cfa: sp 0 +
STACK CFI 35ed4 .cfa: sp 224 +
STACK CFI 35ee8 .cfa: x29 64 + x19: .cfa -8 + ^ x20: .cfa -16 + ^ x21: .cfa -24 + ^ x22: .cfa -32 + ^ x23: .cfa -48 + ^ .ra: .cfa -56 + ^ x29: .cfa -64 + ^
STACK CFI 36104 .cfa: sp 224 +
STACK CFI 36118 .cfa: sp 0 +
STACK CFI 3611c .cfa: x29 64 +
STACK CFI INIT 36598 43c .cfa: sp 0 +
STACK CFI 3659c .cfa: sp 224 +
STACK CFI 365b8 .cfa: x29 96 + x19: .cfa -8 + ^ x20: .cfa -16 + ^ x21: .cfa -24 + ^ x22: .cfa -32 + ^ x23: .cfa -40 + ^ x24: .cfa -48 + ^ x25: .cfa -56 + ^ x26: .cfa -64 + ^ x27: .cfa -72 + ^ x28: .cfa -80 + ^ .ra: .cfa -88 + ^ x29: .cfa -96 + ^
STACK CFI 368cc .cfa: sp 224 +
STACK CFI 368e8 .cfa: sp 0 +
STACK CFI 368ec .cfa: x29 96 +
STACK CFI INIT 369d4 43c .cfa: sp 0 +
STACK CFI 369d8 .cfa: sp 224 +
STACK CFI 369f4 .cfa: x29 96 + x19: .cfa -8 + ^ x20: .cfa -16 + ^ x21: .cfa -24 + ^ x22: .cfa -32 + ^ x23: .cfa -40 + ^ x24: .cfa -48 + ^ x25: .cfa -56 + ^ x26: .cfa -64 + ^ x27: .cfa -72 + ^ x28: .cfa -80 + ^ .ra: .cfa -88 + ^ x29: .cfa -96 + ^
STACK CFI 36d08 .cfa: sp 224 +
STACK CFI 36d24 .cfa: sp 0 +
STACK CFI 36d28 .cfa: x29 96 +
STACK CFI INIT 36e48 7b4 .cfa: sp 0 +
STACK CFI 36e4c .cfa: sp 256 +
STACK CFI 36e60 .cfa: x29 64 + x19: .cfa -8 + ^ x20: .cfa -16 + ^ x21: .cfa -24 + ^ x22: .cfa -32 + ^ x23: .cfa -40 + ^ x24: .cfa -48 + ^ .ra: .cfa -56 + ^ x29: .cfa -64 + ^
STACK CFI 373b8 .cfa: sp 256 +
STACK CFI 373cc .cfa: sp 0 +
STACK CFI 373d0 .cfa: x29 64 +
STACK CFI INIT 3764c 74 .cfa: sp 0 +
STACK CFI 37650 .cfa: sp 48 +
STACK CFI 3765c .cfa: x29 32 + x19: .cfa -8 + ^ x20: .cfa -16 + ^ .ra: .cfa -24 + ^ x29: .cfa -32 + ^
STACK CFI 376a8 .cfa: sp 48 +
STACK CFI 376b4 .cfa: sp 0 +
STACK CFI 376b8 .cfa: x29 32 +
STACK CFI INIT 37740 154 .cfa: sp 0 +
STACK CFI 37744 .cfa: sp 384 +
STACK CFI 37758 .cfa: x29 64 + x19: .cfa -8 + ^ x20: .cfa -16 + ^ x21: .cfa -24 + ^ x22: .cfa -32 + ^ x23: .cfa -40 + ^ x28: .cfa -48 + ^ .ra: .cfa -56 + ^ x29: .cfa -64 + ^
STACK CFI 3783c .cfa: sp 384 +
STACK CFI 37850 .cfa: sp 0 +
STACK CFI 37854 .cfa: x29 64 +
STACK CFI INIT 378c8 12c .cfa: sp 0 +
STACK CFI 378cc .cfa: sp 80 +
STACK CFI 378e0 .cfa: x29 80 + x19: .cfa -8 + ^ x20: .cfa -16 + ^ x21: .cfa -24 + ^ x22: .cfa -32 + ^ x23: .cfa -40 + ^ x24: .cfa -48 + ^ x25: .cfa -56 + ^ x26: .cfa -64 + ^ .ra: .cfa -72 + ^ x29: .cfa -80 + ^
STACK CFI 379a8 .cfa: sp 80 +
STACK CFI 379bc .cfa: sp 0 +
STACK CFI 379c0 .cfa: x29 80 +
STACK CFI INIT 37a98 1a4 .cfa: sp 0 +
STACK CFI 37a9c .cfa: sp 112 +
STACK CFI 37ab4 .cfa: x29 80 + x19: .cfa -8 + ^ x20: .cfa -16 + ^ x21: .cfa -24 + ^ x22: .cfa -32 + ^ x23: .cfa -40 + ^ x24: .cfa -48 + ^ x25: .cfa -56 + ^ x26: .cfa -64 + ^ .ra: .cfa -72 + ^ x29: .cfa -80 + ^
STACK CFI 37ba4 .cfa: sp 112 +
STACK CFI 37bbc .cfa: sp 0 +
STACK CFI 37bc0 .cfa: x29 80 +
STACK CFI INIT 37c3c 1dc .cfa: sp 0 +
STACK CFI 37c40 .cfa: sp 128 +
STACK CFI 37c5c .cfa: x29 96 + x19: .cfa -8 + ^ x20: .cfa -16 + ^ x21: .cfa -24 + ^ x22: .cfa -32 + ^ x23: .cfa -40 + ^ x24: .cfa -48 + ^ x25: .cfa -56 + ^ x26: .cfa -64 + ^ x27: .cfa -80 + ^ .ra: .cfa -88 + ^ x29: .cfa -96 + ^
STACK CFI 37dc8 .cfa: sp 128 +
STACK CFI 37de4 .cfa: sp 0 +
STACK CFI 37de8 .cfa: x29 96 +
STACK CFI INIT 37e18 178 .cfa: sp 0 +
STACK CFI 37e1c .cfa: sp 80 +
STACK CFI 37e30 .cfa: x29 80 + x19: .cfa -8 + ^ x20: .cfa -16 + ^ x21: .cfa -24 + ^ x22: .cfa -32 + ^ x23: .cfa -40 + ^ x24: .cfa -48 + ^ x25: .cfa -64 + ^ .ra: .cfa -72 + ^ x29: .cfa -80 + ^
STACK CFI 37f5c .cfa: sp 80 +
STACK CFI 37f70 .cfa: sp 0 +
STACK CFI 37f74 .cfa: x29 80 +
STACK CFI INIT 380d8 228 .cfa: sp 0 +
STACK CFI 380dc .cfa: sp 128 +
STACK CFI 380f4 .cfa: x29 80 + x19: .cfa -8 + ^ x20: .cfa -16 + ^ x21: .cfa -24 + ^ x22: .cfa -32 + ^ x23: .cfa -40 + ^ x24: .cfa -48 + ^ x25: .cfa -64 + ^ .ra: .cfa -72 + ^ x29: .cfa -80 + ^
STACK CFI 38290 .cfa: sp 128 +
STACK CFI 382a8 .cfa: sp 0 +
STACK CFI 382ac .cfa: x29 80 +
STACK CFI INIT 389c8 134 .cfa: sp 0 +
STACK CFI 389cc .cfa: sp 144 +
STACK CFI 389e0 .cfa: x29 64 + x19: .cfa -8 + ^ x20: .cfa -16 + ^ x21: .cfa -24 + ^ x22: .cfa -32 + ^ x23: .cfa -40 + ^ x24: .cfa -48 + ^ .ra: .cfa -56 + ^ x29: .cfa -64 + ^
STACK CFI 38aac .cfa: sp 144 +
STACK CFI 38ac0 .cfa: sp 0 +
STACK CFI 38ac4 .cfa: x29 64 +
STACK CFI INIT 38d08 118 .cfa: sp 0 +
STACK CFI 38d0c .cfa: sp 80 +
STACK CFI 38d1c .cfa: x29 48 + x19: .cfa -8 + ^ x20: .cfa -16 + ^ x21: .cfa -24 + ^ x22: .cfa -32 + ^ .ra: .cfa -40 + ^ x29: .cfa -48 + ^
STACK CFI 38dc8 .cfa: sp 80 +
STACK CFI 38dd8 .cfa: sp 0 +
STACK CFI 38ddc .cfa: x29 48 +
STACK CFI INIT 39188 ac .cfa: sp 0 +
STACK CFI 3918c .cfa: sp 32 +
STACK CFI 39194 .cfa: x29 32 + x19: .cfa -8 + ^ x20: .cfa -16 + ^ .ra: .cfa -24 + ^ x29: .cfa -32 + ^
STACK CFI 391cc .cfa: sp 32 +
STACK CFI 391d4 .cfa: sp 0 +
STACK CFI 391d8 .cfa: x29 32 +
STACK CFI 391dc .cfa: sp 32 +
STACK CFI 391e4 .cfa: sp 0 +
STACK CFI 391e8 .cfa: x29 32 +
STACK CFI INIT 392b0 388 .cfa: sp 0 +
STACK CFI 392b4 .cfa: sp 272 +
STACK CFI 392c8 .cfa: x29 64 + x19: .cfa -8 + ^ x20: .cfa -16 + ^ x21: .cfa -24 + ^ x22: .cfa -32 + ^ x23: .cfa -40 + ^ x28: .cfa -48 + ^ .ra: .cfa -56 + ^ x29: .cfa -64 + ^
STACK CFI 3950c .cfa: sp 272 +
STACK CFI 39520 .cfa: sp 0 +
STACK CFI 39524 .cfa: x29 64 +
STACK CFI INIT 39cf0 820 .cfa: sp 0 +
STACK CFI 39cf4 .cfa: sp 96 +
STACK CFI 39d0c .cfa: x29 96 + x19: .cfa -8 + ^ x20: .cfa -16 + ^ x21: .cfa -24 + ^ x22: .cfa -32 + ^ x23: .cfa -40 + ^ x24: .cfa -48 + ^ x25: .cfa -56 + ^ x26: .cfa -64 + ^ x27: .cfa -72 + ^ x28: .cfa -80 + ^ .ra: .cfa -88 + ^ x29: .cfa -96 + ^
STACK CFI 3a3dc .cfa: sp 96 +
STACK CFI 3a3f4 .cfa: sp 0 +
STACK CFI 3a3f8 .cfa: x29 96 +
STACK CFI INIT 3a510 78 .cfa: sp 0 +
STACK CFI 3a514 .cfa: sp 32 +
STACK CFI 3a51c .cfa: x29 32 + x19: .cfa -8 + ^ x20: .cfa -16 + ^ .ra: .cfa -24 + ^ x29: .cfa -32 + ^
STACK CFI 3a528 .cfa: sp 32 +
STACK CFI 3a530 .cfa: sp 0 +
STACK CFI 3a534 .cfa: x29 32 +
STACK CFI INIT 3a588 7c .cfa: sp 0 +
STACK CFI 3a58c .cfa: sp 32 +
STACK CFI 3a594 .cfa: x29 32 + x19: .cfa -8 + ^ x20: .cfa -16 + ^ .ra: .cfa -24 + ^ x29: .cfa -32 + ^
STACK CFI 3a5a0 .cfa: sp 32 +
STACK CFI 3a5a8 .cfa: sp 0 +
STACK CFI 3a5ac .cfa: x29 32 +
STACK CFI INIT 3a604 74 .cfa: sp 0 +
STACK CFI 3a608 .cfa: sp 48 +
STACK CFI 3a614 .cfa: x29 32 + x19: .cfa -8 + ^ x20: .cfa -16 + ^ .ra: .cfa -24 + ^ x29: .cfa -32 + ^
STACK CFI 3a660 .cfa: sp 48 +
STACK CFI 3a66c .cfa: sp 0 +
STACK CFI 3a670 .cfa: x29 32 +
STACK CFI INIT 3a6cc 1dc .cfa: sp 0 +
STACK CFI 3a6d0 .cfa: sp 112 +
STACK CFI 3a6e4 .cfa: x29 64 + x19: .cfa -8 + ^ x20: .cfa -16 + ^ x21: .cfa -24 + ^ x22: .cfa -32 + ^ x23: .cfa -40 + ^ x24: .cfa -48 + ^ .ra: .cfa -56 + ^ x29: .cfa -64 + ^
STACK CFI 3a724 .cfa: sp 112 +
STACK CFI 3a738 .cfa: sp 0 +
STACK CFI 3a73c .cfa: x29 64 +
STACK CFI 3a78c .cfa: sp 112 +
STACK CFI 3a7a0 .cfa: sp 0 +
STACK CFI 3a7a4 .cfa: x29 64 +
STACK CFI 3a818 .cfa: sp 112 +
STACK CFI 3a82c .cfa: sp 0 +
STACK CFI 3a830 .cfa: x29 64 +
STACK CFI 3a850 .cfa: sp 112 +
STACK CFI 3a864 .cfa: sp 0 +
STACK CFI 3a868 .cfa: x29 64 +
STACK CFI INIT 3a8a8 1dc .cfa: sp 0 +
STACK CFI 3a8ac .cfa: sp 112 +
STACK CFI 3a8c0 .cfa: x29 64 + x19: .cfa -8 + ^ x20: .cfa -16 + ^ x21: .cfa -24 + ^ x22: .cfa -32 + ^ x23: .cfa -40 + ^ x24: .cfa -48 + ^ .ra: .cfa -56 + ^ x29: .cfa -64 + ^
STACK CFI 3a900 .cfa: sp 112 +
STACK CFI 3a914 .cfa: sp 0 +
STACK CFI 3a918 .cfa: x29 64 +
STACK CFI 3a968 .cfa: sp 112 +
STACK CFI 3a97c .cfa: sp 0 +
STACK CFI 3a980 .cfa: x29 64 +
STACK CFI 3a9f4 .cfa: sp 112 +
STACK CFI 3aa08 .cfa: sp 0 +
STACK CFI 3aa0c .cfa: x29 64 +
STACK CFI 3aa2c .cfa: sp 112 +
STACK CFI 3aa40 .cfa: sp 0 +
STACK CFI 3aa44 .cfa: x29 64 +
STACK CFI INIT 3aa84 54 .cfa: sp 0 +
STACK CFI 3aa88 .cfa: sp 32 +
STACK CFI 3aa90 .cfa: x29 32 + x19: .cfa -8 + ^ x20: .cfa -16 + ^ .ra: .cfa -24 + ^ x29: .cfa -32 + ^
STACK CFI 3aab8 .cfa: sp 32 +
STACK CFI 3aac0 .cfa: sp 0 +
STACK CFI 3aac4 .cfa: x29 32 +
STACK CFI INIT 3aad8 2a0 .cfa: sp 0 +
STACK CFI 3aadc .cfa: sp 240 +
STACK CFI 3aaf0 .cfa: x29 64 + x19: .cfa -8 + ^ x20: .cfa -16 + ^ x21: .cfa -24 + ^ x22: .cfa -32 + ^ x23: .cfa -48 + ^ .ra: .cfa -56 + ^ x29: .cfa -64 + ^
STACK CFI 3acb0 .cfa: sp 240 +
STACK CFI 3acc4 .cfa: sp 0 +
STACK CFI 3acc8 .cfa: x29 64 +
STACK CFI INIT 3ae04 b0 .cfa: sp 0 +
STACK CFI 3ae08 .cfa: sp 80 +
STACK CFI 3ae18 .cfa: x29 48 + x19: .cfa -8 + ^ x20: .cfa -16 + ^ x21: .cfa -24 + ^ x22: .cfa -32 + ^ .ra: .cfa -40 + ^ x29: .cfa -48 + ^
STACK CFI 3ae70 .cfa: sp 80 +
STACK CFI 3ae80 .cfa: sp 0 +
STACK CFI 3ae84 .cfa: x29 48 +
STACK CFI INIT 3aeb4 5b0 .cfa: sp 0 +
STACK CFI 3aeb8 .cfa: sp 368 +
STACK CFI 3aed0 .cfa: x29 80 + x19: .cfa -8 + ^ x20: .cfa -16 + ^ x21: .cfa -24 + ^ x22: .cfa -32 + ^ x23: .cfa -40 + ^ x24: .cfa -48 + ^ x25: .cfa -56 + ^ x28: .cfa -64 + ^ .ra: .cfa -72 + ^ x29: .cfa -80 + ^
STACK CFI 3b20c .cfa: sp 368 +
STACK CFI 3b224 .cfa: sp 0 +
STACK CFI 3b228 .cfa: x29 80 +
STACK CFI INIT 3b464 74 .cfa: sp 0 +
STACK CFI 3b468 .cfa: sp 48 +
STACK CFI 3b474 .cfa: x29 32 + x19: .cfa -8 + ^ x20: .cfa -16 + ^ .ra: .cfa -24 + ^ x29: .cfa -32 + ^
STACK CFI 3b4c0 .cfa: sp 48 +
STACK CFI 3b4cc .cfa: sp 0 +
STACK CFI 3b4d0 .cfa: x29 32 +
STACK CFI INIT 3b4d8 74 .cfa: sp 0 +
STACK CFI 3b4dc .cfa: sp 48 +
STACK CFI 3b4e8 .cfa: x29 32 + x19: .cfa -8 + ^ x20: .cfa -16 + ^ .ra: .cfa -24 + ^ x29: .cfa -32 + ^
STACK CFI 3b534 .cfa: sp 48 +
STACK CFI 3b540 .cfa: sp 0 +
STACK CFI 3b544 .cfa: x29 32 +
STACK CFI INIT 3b54c 45c .cfa: sp 0 +
STACK CFI 3b550 .cfa: sp 192 +
STACK CFI 3b564 .cfa: x29 64 + x19: .cfa -8 + ^ x20: .cfa -16 + ^ x21: .cfa -24 + ^ x22: .cfa -32 + ^ x23: .cfa -40 + ^ x24: .cfa -48 + ^ .ra: .cfa -56 + ^ x29: .cfa -64 + ^
STACK CFI 3b8f0 .cfa: sp 192 +
STACK CFI 3b904 .cfa: sp 0 +
STACK CFI 3b908 .cfa: x29 64 +
STACK CFI INIT 3ba34 de0 .cfa: sp 0 +
STACK CFI 3ba38 .cfa: sp 96 +
STACK CFI 3ba50 .cfa: x29 96 + x19: .cfa -8 + ^ x20: .cfa -16 + ^ x21: .cfa -24 + ^ x22: .cfa -32 + ^ x23: .cfa -40 + ^ x24: .cfa -48 + ^ x25: .cfa -56 + ^ x26: .cfa -64 + ^ x27: .cfa -72 + ^ x28: .cfa -80 + ^ .ra: .cfa -88 + ^ x29: .cfa -96 + ^
STACK CFI 3bc04 .cfa: sp 96 +
STACK CFI 3bc1c .cfa: sp 0 +
STACK CFI 3bc20 .cfa: x29 96 +
STACK CFI INIT 3c814 fcc .cfa: sp 0 +
STACK CFI 3c818 .cfa: sp 432 +
STACK CFI 3c834 .cfa: x29 96 + x19: .cfa -8 + ^ x20: .cfa -16 + ^ x21: .cfa -24 + ^ x22: .cfa -32 + ^ x23: .cfa -40 + ^ x24: .cfa -48 + ^ x25: .cfa -56 + ^ x26: .cfa -64 + ^ x27: .cfa -72 + ^ x28: .cfa -80 + ^ .ra: .cfa -88 + ^ x29: .cfa -96 + ^
STACK CFI 3cd40 .cfa: sp 432 +
STACK CFI 3cd5c .cfa: sp 0 +
STACK CFI 3cd60 .cfa: x29 96 +
STACK CFI INIT 3d7e0 74 .cfa: sp 0 +
STACK CFI 3d7e4 .cfa: sp 48 +
STACK CFI 3d7f0 .cfa: x29 32 + x19: .cfa -8 + ^ x20: .cfa -16 + ^ .ra: .cfa -24 + ^ x29: .cfa -32 + ^
STACK CFI 3d83c .cfa: sp 48 +
STACK CFI 3d848 .cfa: sp 0 +
STACK CFI 3d84c .cfa: x29 32 +
STACK CFI INIT 3d854 74 .cfa: sp 0 +
STACK CFI 3d858 .cfa: sp 48 +
STACK CFI 3d864 .cfa: x29 32 + x19: .cfa -8 + ^ x20: .cfa -16 + ^ .ra: .cfa -24 + ^ x29: .cfa -32 + ^
STACK CFI 3d8b0 .cfa: sp 48 +
STACK CFI 3d8bc .cfa: sp 0 +
STACK CFI 3d8c0 .cfa: x29 32 +
STACK CFI INIT 3d918 168 .cfa: sp 0 +
STACK CFI 3d91c .cfa: sp 80 +
STACK CFI 3d92c .cfa: x29 48 + x19: .cfa -8 + ^ x20: .cfa -16 + ^ x21: .cfa -24 + ^ x22: .cfa -32 + ^ .ra: .cfa -40 + ^ x29: .cfa -48 + ^
STACK CFI 3da08 .cfa: sp 80 +
STACK CFI 3da18 .cfa: sp 0 +
STACK CFI 3da1c .cfa: x29 48 +
STACK CFI INIT 3da80 260 .cfa: sp 0 +
STACK CFI 3da84 .cfa: sp 144 +
STACK CFI 3da98 .cfa: x29 64 + x19: .cfa -8 + ^ x20: .cfa -16 + ^ x21: .cfa -24 + ^ x22: .cfa -32 + ^ x23: .cfa -40 + ^ x24: .cfa -48 + ^ .ra: .cfa -56 + ^ x29: .cfa -64 + ^
STACK CFI 3dc4c .cfa: sp 144 +
STACK CFI 3dc60 .cfa: sp 0 +
STACK CFI 3dc64 .cfa: x29 64 +
STACK CFI INIT 3dd30 118 .cfa: sp 0 +
STACK CFI 3dd34 .cfa: sp 96 +
STACK CFI 3dd40 .cfa: x29 32 + x19: .cfa -8 + ^ x20: .cfa -16 + ^ .ra: .cfa -24 + ^ x29: .cfa -32 + ^
STACK CFI 3ddf8 .cfa: sp 96 +
STACK CFI 3de04 .cfa: sp 0 +
STACK CFI 3de08 .cfa: x29 32 +
STACK CFI INIT 3de48 1b4 .cfa: sp 0 +
STACK CFI 3de4c .cfa: sp 128 +
STACK CFI 3de60 .cfa: x29 64 + x19: .cfa -8 + ^ x20: .cfa -16 + ^ x21: .cfa -24 + ^ x22: .cfa -32 + ^ x23: .cfa -48 + ^ .ra: .cfa -56 + ^ x29: .cfa -64 + ^
STACK CFI 3dfa0 .cfa: sp 128 +
STACK CFI 3dfb4 .cfa: sp 0 +
STACK CFI 3dfb8 .cfa: x29 64 +
STACK CFI INIT 3dffc c4 .cfa: sp 0 +
STACK CFI 3e000 .cfa: sp 64 +
STACK CFI 3e010 .cfa: x29 64 + x19: .cfa -8 + ^ x20: .cfa -16 + ^ x21: .cfa -24 + ^ x22: .cfa -32 + ^ x23: .cfa -40 + ^ x24: .cfa -48 + ^ .ra: .cfa -56 + ^ x29: .cfa -64 + ^
STACK CFI 3e088 .cfa: sp 64 +
STACK CFI 3e098 .cfa: sp 0 +
STACK CFI 3e09c .cfa: x29 64 +
STACK CFI INIT 3e0fc 304 .cfa: sp 0 +
STACK CFI 3e100 .cfa: sp 160 +
STACK CFI 3e110 .cfa: x29 48 + x19: .cfa -8 + ^ x20: .cfa -16 + ^ x21: .cfa -32 + ^ .ra: .cfa -40 + ^ x29: .cfa -48 + ^
STACK CFI 3e2b4 .cfa: sp 160 +
STACK CFI 3e2c4 .cfa: sp 0 +
STACK CFI 3e2c8 .cfa: x29 48 +
STACK CFI INIT 3e400 74 .cfa: sp 0 +
STACK CFI 3e404 .cfa: sp 48 +
STACK CFI 3e410 .cfa: x29 32 + x19: .cfa -8 + ^ x20: .cfa -16 + ^ .ra: .cfa -24 + ^ x29: .cfa -32 + ^
STACK CFI 3e45c .cfa: sp 48 +
STACK CFI 3e468 .cfa: sp 0 +
STACK CFI 3e46c .cfa: x29 32 +
STACK CFI INIT 3e474 74 .cfa: sp 0 +
STACK CFI 3e478 .cfa: sp 48 +
STACK CFI 3e484 .cfa: x29 32 + x19: .cfa -8 + ^ x20: .cfa -16 + ^ .ra: .cfa -24 + ^ x29: .cfa -32 + ^
STACK CFI 3e4d0 .cfa: sp 48 +
STACK CFI 3e4dc .cfa: sp 0 +
STACK CFI 3e4e0 .cfa: x29 32 +
STACK CFI INIT 3e51c 168 .cfa: sp 0 +
STACK CFI 3e520 .cfa: sp 384 +
STACK CFI 3e534 .cfa: x29 64 + x19: .cfa -8 + ^ x20: .cfa -16 + ^ x21: .cfa -24 + ^ x22: .cfa -32 + ^ x23: .cfa -40 + ^ x28: .cfa -48 + ^ .ra: .cfa -56 + ^ x29: .cfa -64 + ^
STACK CFI 3e62c .cfa: sp 384 +
STACK CFI 3e640 .cfa: sp 0 +
STACK CFI 3e644 .cfa: x29 64 +
STACK CFI INIT 3e69c 3ec .cfa: sp 0 +
STACK CFI 3e6a0 .cfa: sp 160 +
STACK CFI 3e6bc .cfa: x29 96 + x19: .cfa -8 + ^ x20: .cfa -16 + ^ x21: .cfa -24 + ^ x22: .cfa -32 + ^ x23: .cfa -40 + ^ x24: .cfa -48 + ^ x25: .cfa -56 + ^ x26: .cfa -64 + ^ x27: .cfa -80 + ^ .ra: .cfa -88 + ^ x29: .cfa -96 + ^
STACK CFI 3ea20 .cfa: sp 160 +
STACK CFI 3ea3c .cfa: sp 0 +
STACK CFI 3ea40 .cfa: x29 96 +
STACK CFI INIT 3ea88 12c .cfa: sp 0 +
STACK CFI 3ea8c .cfa: sp 32 +
STACK CFI 3ea94 .cfa: x29 32 + x19: .cfa -8 + ^ x20: .cfa -16 + ^ .ra: .cfa -24 + ^ x29: .cfa -32 + ^
STACK CFI 3eb5c .cfa: sp 32 +
STACK CFI 3eb64 .cfa: sp 0 +
STACK CFI 3eb68 .cfa: x29 32 +
STACK CFI INIT 3ee14 1a4 .cfa: sp 0 +
STACK CFI 3ee18 .cfa: sp 112 +
STACK CFI 3ee2c .cfa: x29 64 + x19: .cfa -8 + ^ x20: .cfa -16 + ^ x21: .cfa -24 + ^ x22: .cfa -32 + ^ x23: .cfa -40 + ^ x24: .cfa -48 + ^ .ra: .cfa -56 + ^ x29: .cfa -64 + ^
STACK CFI 3ef38 .cfa: sp 112 +
STACK CFI 3ef4c .cfa: sp 0 +
STACK CFI 3ef50 .cfa: x29 64 +
STACK CFI INIT 3f020 cc .cfa: sp 0 +
STACK CFI 3f024 .cfa: sp 80 +
STACK CFI 3f030 .cfa: x29 32 + x19: .cfa -8 + ^ x20: .cfa -16 + ^ .ra: .cfa -24 + ^ x29: .cfa -32 + ^
STACK CFI 3f0ac .cfa: sp 80 +
STACK CFI 3f0b8 .cfa: sp 0 +
STACK CFI 3f0bc .cfa: x29 32 +
STACK CFI INIT 3f0ec 290 .cfa: sp 0 +
STACK CFI 3f0f0 .cfa: sp 144 +
STACK CFI 3f100 .cfa: x29 48 + x19: .cfa -8 + ^ x20: .cfa -16 + ^ x21: .cfa -32 + ^ .ra: .cfa -40 + ^ x29: .cfa -48 + ^
STACK CFI 3f250 .cfa: sp 144 +
STACK CFI 3f260 .cfa: sp 0 +
STACK CFI 3f264 .cfa: x29 48 +
STACK CFI INIT 3f37c 304 .cfa: sp 0 +
STACK CFI 3f380 .cfa: sp 128 +
STACK CFI 3f39c .cfa: x29 96 + x19: .cfa -8 + ^ x20: .cfa -16 + ^ x21: .cfa -24 + ^ x22: .cfa -32 + ^ x23: .cfa -40 + ^ x24: .cfa -48 + ^ x25: .cfa -56 + ^ x26: .cfa -64 + ^ x27: .cfa -72 + ^ x28: .cfa -80 + ^ .ra: .cfa -88 + ^ x29: .cfa -96 + ^
STACK CFI 3f600 .cfa: sp 128 +
STACK CFI 3f61c .cfa: sp 0 +
STACK CFI 3f620 .cfa: x29 96 +
STACK CFI INIT 3f70c 244 .cfa: sp 0 +
STACK CFI 3f710 .cfa: sp 96 +
STACK CFI 3f728 .cfa: x29 96 + x19: .cfa -8 + ^ x20: .cfa -16 + ^ x21: .cfa -24 + ^ x22: .cfa -32 + ^ x23: .cfa -40 + ^ x24: .cfa -48 + ^ x25: .cfa -56 + ^ x26: .cfa -64 + ^ x27: .cfa -72 + ^ x28: .cfa -80 + ^ .ra: .cfa -88 + ^ x29: .cfa -96 + ^
STACK CFI 3f890 .cfa: sp 96 +
STACK CFI 3f8a8 .cfa: sp 0 +
STACK CFI 3f8ac .cfa: x29 96 +
STACK CFI INIT 3f950 74 .cfa: sp 0 +
STACK CFI 3f954 .cfa: sp 48 +
STACK CFI 3f960 .cfa: x29 32 + x19: .cfa -8 + ^ x20: .cfa -16 + ^ .ra: .cfa -24 + ^ x29: .cfa -32 + ^
STACK CFI 3f9ac .cfa: sp 48 +
STACK CFI 3f9b8 .cfa: sp 0 +
STACK CFI 3f9bc .cfa: x29 32 +
STACK CFI INIT 3f9c4 2f0 .cfa: sp 0 +
STACK CFI 3f9c8 .cfa: sp 256 +
STACK CFI 3f9d8 .cfa: x29 48 + x19: .cfa -8 + ^ x20: .cfa -16 + ^ x21: .cfa -24 + ^ x22: .cfa -32 + ^ .ra: .cfa -40 + ^ x29: .cfa -48 + ^
STACK CFI 3fb54 .cfa: sp 256 +
STACK CFI 3fb64 .cfa: sp 0 +
STACK CFI 3fb68 .cfa: x29 48 +
STACK CFI INIT 3fcb4 234 .cfa: sp 0 +
STACK CFI 3fcb8 .cfa: sp 80 +
STACK CFI 3fccc .cfa: x29 80 + x19: .cfa -8 + ^ x20: .cfa -16 + ^ x21: .cfa -24 + ^ x22: .cfa -32 + ^ x23: .cfa -40 + ^ x24: .cfa -48 + ^ x25: .cfa -56 + ^ x28: .cfa -64 + ^ .ra: .cfa -72 + ^ x29: .cfa -80 + ^
STACK CFI 3fde8 .cfa: sp 80 +
STACK CFI 3fdfc .cfa: sp 0 +
STACK CFI 3fe00 .cfa: x29 80 +
STACK CFI INIT 3ff34 260 .cfa: sp 0 +
STACK CFI 3ff38 .cfa: sp 96 +
STACK CFI 3ff50 .cfa: x29 96 + x19: .cfa -8 + ^ x20: .cfa -16 + ^ x21: .cfa -24 + ^ x22: .cfa -32 + ^ x23: .cfa -40 + ^ x24: .cfa -48 + ^ x25: .cfa -56 + ^ x26: .cfa -64 + ^ x27: .cfa -72 + ^ x28: .cfa -80 + ^ .ra: .cfa -88 + ^ x29: .cfa -96 + ^
STACK CFI 40114 .cfa: sp 96 +
STACK CFI 4012c .cfa: sp 0 +
STACK CFI 40130 .cfa: x29 96 +
STACK CFI INIT 40194 260 .cfa: sp 0 +
STACK CFI 40198 .cfa: sp 96 +
STACK CFI 401b0 .cfa: x29 96 + x19: .cfa -8 + ^ x20: .cfa -16 + ^ x21: .cfa -24 + ^ x22: .cfa -32 + ^ x23: .cfa -40 + ^ x24: .cfa -48 + ^ x25: .cfa -56 + ^ x26: .cfa -64 + ^ x27: .cfa -72 + ^ x28: .cfa -80 + ^ .ra: .cfa -88 + ^ x29: .cfa -96 + ^
STACK CFI 40330 .cfa: sp 96 +
STACK CFI 40348 .cfa: sp 0 +
STACK CFI 4034c .cfa: x29 96 +
STACK CFI INIT 403f4 74 .cfa: sp 0 +
STACK CFI 403f8 .cfa: sp 48 +
STACK CFI 40404 .cfa: x29 32 + x19: .cfa -8 + ^ x20: .cfa -16 + ^ .ra: .cfa -24 + ^ x29: .cfa -32 + ^
STACK CFI 40450 .cfa: sp 48 +
STACK CFI 4045c .cfa: sp 0 +
STACK CFI 40460 .cfa: x29 32 +
STACK CFI INIT 40468 418 .cfa: sp 0 +
STACK CFI 4046c .cfa: sp 176 +
STACK CFI 40484 .cfa: x29 80 + x19: .cfa -8 + ^ x20: .cfa -16 + ^ x21: .cfa -24 + ^ x22: .cfa -32 + ^ x23: .cfa -40 + ^ x24: .cfa -48 + ^ x25: .cfa -56 + ^ x26: .cfa -64 + ^ .ra: .cfa -72 + ^ x29: .cfa -80 + ^
STACK CFI 40778 .cfa: sp 176 +
STACK CFI 40790 .cfa: sp 0 +
STACK CFI 40794 .cfa: x29 80 +
STACK CFI INIT 40ac4 854 .cfa: sp 0 +
STACK CFI 40ac8 .cfa: sp 336 +
STACK CFI 40ae4 .cfa: x29 96 + x19: .cfa -8 + ^ x20: .cfa -16 + ^ x21: .cfa -24 + ^ x22: .cfa -32 + ^ x23: .cfa -40 + ^ x24: .cfa -48 + ^ x25: .cfa -56 + ^ x26: .cfa -64 + ^ x27: .cfa -72 + ^ x28: .cfa -80 + ^ .ra: .cfa -88 + ^ x29: .cfa -96 + ^
STACK CFI 410c8 .cfa: sp 336 +
STACK CFI 410e4 .cfa: sp 0 +
STACK CFI 410e8 .cfa: x29 96 +
STACK CFI INIT 41318 60c .cfa: sp 0 +
STACK CFI 4131c .cfa: sp 208 +
STACK CFI 41334 .cfa: x29 64 + x19: .cfa -8 + ^ x20: .cfa -16 + ^ x21: .cfa -24 + ^ x22: .cfa -32 + ^ x23: .cfa -40 + ^ x24: .cfa -48 + ^ .ra: .cfa -56 + ^ x29: .cfa -64 + ^ v8: .cfa -72 + ^ v9: .cfa -80 + ^
STACK CFI 41870 .cfa: sp 208 +
STACK CFI 41888 .cfa: sp 0 +
STACK CFI 4188c .cfa: x29 64 +
STACK CFI INIT 41924 2e8 .cfa: sp 0 +
STACK CFI 41928 .cfa: sp 144 +
STACK CFI 4193c .cfa: x29 64 + x19: .cfa -8 + ^ x20: .cfa -16 + ^ x21: .cfa -24 + ^ x22: .cfa -32 + ^ x23: .cfa -48 + ^ .ra: .cfa -56 + ^ x29: .cfa -64 + ^
STACK CFI 41b68 .cfa: sp 144 +
STACK CFI 41b7c .cfa: sp 0 +
STACK CFI 41b80 .cfa: x29 64 +
STACK CFI INIT 41c0c 584 .cfa: sp 0 +
STACK CFI 41c10 .cfa: sp 208 +
STACK CFI 41c24 .cfa: x29 64 + x19: .cfa -8 + ^ x20: .cfa -16 + ^ x21: .cfa -24 + ^ x22: .cfa -32 + ^ x23: .cfa -40 + ^ x24: .cfa -48 + ^ .ra: .cfa -56 + ^ x29: .cfa -64 + ^
STACK CFI 420f8 .cfa: sp 208 +
STACK CFI 4210c .cfa: sp 0 +
STACK CFI 42110 .cfa: x29 64 +
STACK CFI INIT 42190 dc .cfa: sp 0 +
STACK CFI 42194 .cfa: sp 32 +
STACK CFI 4219c .cfa: x29 32 + x19: .cfa -8 + ^ x20: .cfa -16 + ^ .ra: .cfa -24 + ^ x29: .cfa -32 + ^
STACK CFI 4225c .cfa: sp 32 +
STACK CFI 42264 .cfa: sp 0 +
STACK CFI 42268 .cfa: x29 32 +
STACK CFI INIT 4226c e4 .cfa: sp 0 +
STACK CFI 42270 .cfa: sp 32 +
STACK CFI 42278 .cfa: x29 32 + x19: .cfa -8 + ^ x20: .cfa -16 + ^ .ra: .cfa -24 + ^ x29: .cfa -32 + ^
STACK CFI 42340 .cfa: sp 32 +
STACK CFI 42348 .cfa: sp 0 +
STACK CFI 4234c .cfa: x29 32 +
STACK CFI INIT 423b0 148 .cfa: sp 0 +
STACK CFI 423b4 .cfa: sp 96 +
STACK CFI 423c4 .cfa: x29 48 + x19: .cfa -8 + ^ x20: .cfa -16 + ^ x21: .cfa -32 + ^ .ra: .cfa -40 + ^ x29: .cfa -48 + ^
STACK CFI 424ac .cfa: sp 96 +
STACK CFI 424bc .cfa: sp 0 +
STACK CFI 424c0 .cfa: x29 48 +
STACK CFI INIT 424f8 e8 .cfa: sp 0 +
STACK CFI 424fc .cfa: sp 48 +
STACK CFI 42508 .cfa: x29 48 + x19: .cfa -8 + ^ x20: .cfa -16 + ^ x21: .cfa -32 + ^ .ra: .cfa -40 + ^ x29: .cfa -48 + ^
STACK CFI 425cc .cfa: sp 48 +
STACK CFI 425d8 .cfa: sp 0 +
STACK CFI 425dc .cfa: x29 48 +
STACK CFI INIT 425e0 f0 .cfa: sp 0 +
STACK CFI 425e4 .cfa: sp 48 +
STACK CFI 425f0 .cfa: x29 48 + x19: .cfa -8 + ^ x20: .cfa -16 + ^ x21: .cfa -32 + ^ .ra: .cfa -40 + ^ x29: .cfa -48 + ^
STACK CFI 426bc .cfa: sp 48 +
STACK CFI 426c8 .cfa: sp 0 +
STACK CFI 426cc .cfa: x29 48 +
STACK CFI INIT 4271c 50 .cfa: sp 0 +
STACK CFI 42720 .cfa: sp 32 +
STACK CFI 42728 .cfa: x29 32 + x19: .cfa -8 + ^ x20: .cfa -16 + ^ .ra: .cfa -24 + ^ x29: .cfa -32 + ^
STACK CFI INIT 4279c 6c .cfa: sp 0 +
STACK CFI 427a0 .cfa: sp 32 +
STACK CFI 427a8 .cfa: x29 32 + x19: .cfa -16 + ^ .ra: .cfa -24 + ^ x29: .cfa -32 + ^
STACK CFI 427f8 .cfa: sp 32 +
STACK CFI 42800 .cfa: sp 0 +
STACK CFI 42804 .cfa: x29 32 +
STACK CFI INIT 4280c 6c .cfa: sp 0 +
STACK CFI 42810 .cfa: sp 32 +
STACK CFI 42818 .cfa: x29 32 + x19: .cfa -16 + ^ .ra: .cfa -24 + ^ x29: .cfa -32 + ^
STACK CFI 42868 .cfa: sp 32 +
STACK CFI 42870 .cfa: sp 0 +
STACK CFI 42874 .cfa: x29 32 +
STACK CFI INIT 42994 8c .cfa: sp 0 +
STACK CFI 42998 .cfa: sp 32 +
STACK CFI 429a0 .cfa: x29 32 + x19: .cfa -16 + ^ .ra: .cfa -24 + ^ x29: .cfa -32 + ^
STACK CFI 429b8 .cfa: sp 32 +
STACK CFI 429c0 .cfa: sp 0 +
STACK CFI 429c4 .cfa: x29 32 +
STACK CFI 429fc .cfa: sp 32 +
STACK CFI 42a04 .cfa: sp 0 +
STACK CFI 42a08 .cfa: x29 32 +
STACK CFI INIT 42a20 fc .cfa: sp 0 +
STACK CFI 42a24 .cfa: sp 96 +
STACK CFI 42a38 .cfa: x29 64 + x19: .cfa -8 + ^ x20: .cfa -16 + ^ x21: .cfa -24 + ^ x22: .cfa -32 + ^ x23: .cfa -40 + ^ x24: .cfa -48 + ^ .ra: .cfa -56 + ^ x29: .cfa -64 + ^
STACK CFI 42ac4 .cfa: sp 96 +
STACK CFI 42ad8 .cfa: sp 0 +
STACK CFI 42adc .cfa: x29 64 +
STACK CFI INIT 42b1c fc .cfa: sp 0 +
STACK CFI 42b20 .cfa: sp 96 +
STACK CFI 42b34 .cfa: x29 64 + x19: .cfa -8 + ^ x20: .cfa -16 + ^ x21: .cfa -24 + ^ x22: .cfa -32 + ^ x23: .cfa -40 + ^ x24: .cfa -48 + ^ .ra: .cfa -56 + ^ x29: .cfa -64 + ^
STACK CFI 42bc0 .cfa: sp 96 +
STACK CFI 42bd4 .cfa: sp 0 +
STACK CFI 42bd8 .cfa: x29 64 +
STACK CFI INIT 431dc 3e8 .cfa: sp 0 +
STACK CFI 431e0 .cfa: sp 144 +
STACK CFI 431f8 .cfa: x29 80 + x19: .cfa -8 + ^ x20: .cfa -16 + ^ x21: .cfa -24 + ^ x22: .cfa -32 + ^ x23: .cfa -40 + ^ x24: .cfa -48 + ^ x25: .cfa -56 + ^ x26: .cfa -64 + ^ .ra: .cfa -72 + ^ x29: .cfa -80 + ^
STACK CFI 434ec .cfa: sp 144 +
STACK CFI 43504 .cfa: sp 0 +
STACK CFI 43508 .cfa: x29 80 +
STACK CFI INIT 435c4 a58 .cfa: sp 0 +
STACK CFI 435c8 .cfa: sp 320 +
STACK CFI 435e4 .cfa: x29 96 + x19: .cfa -8 + ^ x20: .cfa -16 + ^ x21: .cfa -24 + ^ x22: .cfa -32 + ^ x23: .cfa -40 + ^ x24: .cfa -48 + ^ x25: .cfa -56 + ^ x26: .cfa -64 + ^ x27: .cfa -72 + ^ x28: .cfa -80 + ^ .ra: .cfa -88 + ^ x29: .cfa -96 + ^
STACK CFI 43a60 .cfa: sp 320 +
STACK CFI 43a7c .cfa: sp 0 +
STACK CFI 43a80 .cfa: x29 96 +
STACK CFI INIT 4401c 160 .cfa: sp 0 +
STACK CFI 44020 .cfa: sp 112 +
STACK CFI 44030 .cfa: x29 48 + x19: .cfa -8 + ^ x20: .cfa -16 + ^ x21: .cfa -32 + ^ .ra: .cfa -40 + ^ x29: .cfa -48 + ^
STACK CFI 44100 .cfa: sp 112 +
STACK CFI 44110 .cfa: sp 0 +
STACK CFI 44114 .cfa: x29 48 +
STACK CFI INIT 4417c 1208 .cfa: sp 0 +
STACK CFI 44180 .cfa: sp 432 +
STACK CFI 4419c .cfa: x29 96 + x19: .cfa -8 + ^ x20: .cfa -16 + ^ x21: .cfa -24 + ^ x22: .cfa -32 + ^ x23: .cfa -40 + ^ x24: .cfa -48 + ^ x25: .cfa -56 + ^ x26: .cfa -64 + ^ x27: .cfa -72 + ^ x28: .cfa -80 + ^ .ra: .cfa -88 + ^ x29: .cfa -96 + ^
STACK CFI 450dc .cfa: sp 432 +
STACK CFI 450f8 .cfa: sp 0 +
STACK CFI 450fc .cfa: x29 96 +
STACK CFI INIT 45384 124 .cfa: sp 0 +
STACK CFI 45388 .cfa: sp 128 +
STACK CFI 4539c .cfa: x29 64 + x19: .cfa -8 + ^ x20: .cfa -16 + ^ x21: .cfa -24 + ^ x22: .cfa -32 + ^ x23: .cfa -40 + ^ x24: .cfa -48 + ^ .ra: .cfa -56 + ^ x29: .cfa -64 + ^
STACK CFI 4545c .cfa: sp 128 +
STACK CFI 45470 .cfa: sp 0 +
STACK CFI 45474 .cfa: x29 64 +
STACK CFI INIT 454a8 124 .cfa: sp 0 +
STACK CFI 454ac .cfa: sp 96 +
STACK CFI 454b8 .cfa: x29 32 + x19: .cfa -8 + ^ x20: .cfa -16 + ^ .ra: .cfa -24 + ^ x29: .cfa -32 + ^
STACK CFI 45568 .cfa: sp 96 +
STACK CFI 45574 .cfa: sp 0 +
STACK CFI 45578 .cfa: x29 32 +
STACK CFI INIT 455cc f4 .cfa: sp 0 +
STACK CFI 455d0 .cfa: sp 64 +
STACK CFI 455dc .cfa: x29 32 + x19: .cfa -8 + ^ x20: .cfa -16 + ^ .ra: .cfa -24 + ^ x29: .cfa -32 + ^
STACK CFI 4564c .cfa: sp 64 +
STACK CFI 45658 .cfa: sp 0 +
STACK CFI 4565c .cfa: x29 32 +
STACK CFI INIT 456c0 f4 .cfa: sp 0 +
STACK CFI 456c4 .cfa: sp 64 +
STACK CFI 456d0 .cfa: x29 32 + x19: .cfa -8 + ^ x20: .cfa -16 + ^ .ra: .cfa -24 + ^ x29: .cfa -32 + ^
STACK CFI 45740 .cfa: sp 64 +
STACK CFI 4574c .cfa: sp 0 +
STACK CFI 45750 .cfa: x29 32 +
STACK CFI INIT 45a70 154 .cfa: sp 0 +
STACK CFI 45a74 .cfa: sp 384 +
STACK CFI 45a88 .cfa: x29 64 + x19: .cfa -8 + ^ x20: .cfa -16 + ^ x21: .cfa -24 + ^ x22: .cfa -32 + ^ x23: .cfa -40 + ^ x28: .cfa -48 + ^ .ra: .cfa -56 + ^ x29: .cfa -64 + ^
STACK CFI 45b6c .cfa: sp 384 +
STACK CFI 45b80 .cfa: sp 0 +
STACK CFI 45b84 .cfa: x29 64 +
STACK CFI INIT 45ee8 74 .cfa: sp 0 +
STACK CFI 45eec .cfa: sp 48 +
STACK CFI 45ef8 .cfa: x29 32 + x19: .cfa -8 + ^ x20: .cfa -16 + ^ .ra: .cfa -24 + ^ x29: .cfa -32 + ^
STACK CFI 45f44 .cfa: sp 48 +
STACK CFI 45f50 .cfa: sp 0 +
STACK CFI 45f54 .cfa: x29 32 +
STACK CFI INIT 45f5c 74 .cfa: sp 0 +
STACK CFI 45f60 .cfa: sp 48 +
STACK CFI 45f6c .cfa: x29 32 + x19: .cfa -8 + ^ x20: .cfa -16 + ^ .ra: .cfa -24 + ^ x29: .cfa -32 + ^
STACK CFI 45fb8 .cfa: sp 48 +
STACK CFI 45fc4 .cfa: sp 0 +
STACK CFI 45fc8 .cfa: x29 32 +
STACK CFI INIT 462a0 1f0 .cfa: sp 0 +
STACK CFI 462a4 .cfa: sp 304 +
STACK CFI 462b8 .cfa: x29 64 + x19: .cfa -8 + ^ x20: .cfa -16 + ^ x21: .cfa -24 + ^ x22: .cfa -32 + ^ x23: .cfa -40 + ^ x28: .cfa -48 + ^ .ra: .cfa -56 + ^ x29: .cfa -64 + ^
STACK CFI 46448 .cfa: sp 304 +
STACK CFI 4645c .cfa: sp 0 +
STACK CFI 46460 .cfa: x29 64 +
STACK CFI INIT 490d8 74 .cfa: sp 0 +
STACK CFI 490dc .cfa: sp 48 +
STACK CFI 490e8 .cfa: x29 32 + x19: .cfa -8 + ^ x20: .cfa -16 + ^ .ra: .cfa -24 + ^ x29: .cfa -32 + ^
STACK CFI 49134 .cfa: sp 48 +
STACK CFI 49140 .cfa: sp 0 +
STACK CFI 49144 .cfa: x29 32 +
STACK CFI INIT 49268 11c .cfa: sp 0 +
STACK CFI 4926c .cfa: sp 96 +
STACK CFI 49280 .cfa: x29 64 + x19: .cfa -8 + ^ x20: .cfa -16 + ^ x21: .cfa -24 + ^ x22: .cfa -32 + ^ x23: .cfa -40 + ^ x24: .cfa -48 + ^ .ra: .cfa -56 + ^ x29: .cfa -64 + ^
STACK CFI 49308 .cfa: sp 96 +
STACK CFI 4931c .cfa: sp 0 +
STACK CFI 49320 .cfa: x29 64 +
STACK CFI INIT 49480 174 .cfa: sp 0 +
STACK CFI 49484 .cfa: sp 112 +
STACK CFI 49494 .cfa: x29 48 + x19: .cfa -8 + ^ x20: .cfa -16 + ^ x21: .cfa -32 + ^ .ra: .cfa -40 + ^ x29: .cfa -48 + ^
STACK CFI 49590 .cfa: sp 112 +
STACK CFI 495a0 .cfa: sp 0 +
STACK CFI 495a4 .cfa: x29 48 +
STACK CFI INIT 49754 1c4 .cfa: sp 0 +
STACK CFI 49758 .cfa: sp 96 +
STACK CFI 4976c .cfa: x29 64 + x19: .cfa -8 + ^ x20: .cfa -16 + ^ x21: .cfa -24 + ^ x22: .cfa -32 + ^ x23: .cfa -40 + ^ x24: .cfa -48 + ^ .ra: .cfa -56 + ^ x29: .cfa -64 + ^
STACK CFI 4987c .cfa: sp 96 +
STACK CFI 49890 .cfa: sp 0 +
STACK CFI 49894 .cfa: x29 64 +
STACK CFI INIT 49918 8f8 .cfa: sp 0 +
STACK CFI 4991c .cfa: sp 416 +
STACK CFI 49940 .cfa: x29 88 + x19: .cfa -8 + ^ x20: .cfa -16 + ^ x21: .cfa -24 + ^ x22: .cfa -32 + ^ x23: .cfa -40 + ^ x24: .cfa -48 + ^ x25: .cfa -56 + ^ x26: .cfa -64 + ^ x28: .cfa -72 + ^ .ra: .cfa -80 + ^ x29: .cfa -88 + ^ v8: .cfa -96 + ^ v9: .cfa -104 + ^ v10: .cfa -112 + ^
STACK CFI 4a098 .cfa: sp 416 +
STACK CFI 4a0bc .cfa: sp 0 +
STACK CFI 4a0c0 .cfa: x29 88 +
STACK CFI INIT 4a230 b8 .cfa: sp 0 +
STACK CFI 4a234 .cfa: sp 48 +
STACK CFI 4a244 .cfa: x29 40 + x19: .cfa -8 + ^ x20: .cfa -16 + ^ x21: .cfa -24 + ^ .ra: .cfa -32 + ^ x29: .cfa -40 + ^ v8: .cfa -48 + ^
STACK CFI 4a294 .cfa: sp 48 +
STACK CFI 4a2a4 .cfa: sp 0 +
STACK CFI 4a2a8 .cfa: x29 40 +
STACK CFI 4a2c0 .cfa: sp 48 +
STACK CFI 4a2d0 .cfa: sp 0 +
STACK CFI 4a2d4 .cfa: x29 40 +
STACK CFI INIT 4a64c a38 .cfa: sp 0 +
STACK CFI 4a650 .cfa: sp 176 +
STACK CFI 4a668 .cfa: x29 64 + x19: .cfa -8 + ^ x20: .cfa -16 + ^ x21: .cfa -24 + ^ x22: .cfa -32 + ^ x23: .cfa -40 + ^ x24: .cfa -48 + ^ .ra: .cfa -56 + ^ x29: .cfa -64 + ^ v8: .cfa -80 + ^
STACK CFI 4b004 .cfa: sp 176 +
STACK CFI 4b01c .cfa: sp 0 +
STACK CFI 4b020 .cfa: x29 64 +
STACK CFI INIT 4b0bc 140 .cfa: sp 0 +
STACK CFI 4b0c0 .cfa: sp 96 +
STACK CFI 4b0cc .cfa: x29 32 + x19: .cfa -8 + ^ x20: .cfa -16 + ^ .ra: .cfa -24 + ^ x29: .cfa -32 + ^
STACK CFI 4b150 .cfa: sp 96 +
STACK CFI 4b15c .cfa: sp 0 +
STACK CFI 4b160 .cfa: x29 32 +
STACK CFI INIT 4b1fc ec .cfa: sp 0 +
STACK CFI 4b200 .cfa: sp 64 +
STACK CFI 4b20c .cfa: x29 32 + x19: .cfa -8 + ^ x20: .cfa -16 + ^ .ra: .cfa -24 + ^ x29: .cfa -32 + ^
STACK CFI 4b258 .cfa: sp 64 +
STACK CFI 4b264 .cfa: sp 0 +
STACK CFI 4b268 .cfa: x29 32 +
STACK CFI INIT 4b2e8 1fc .cfa: sp 0 +
STACK CFI 4b2ec .cfa: sp 80 +
STACK CFI 4b300 .cfa: x29 80 + x19: .cfa -8 + ^ x20: .cfa -16 + ^ x21: .cfa -24 + ^ x22: .cfa -32 + ^ x23: .cfa -40 + ^ x24: .cfa -48 + ^ x28: .cfa -64 + ^ .ra: .cfa -72 + ^ x29: .cfa -80 + ^
STACK CFI 4b3f4 .cfa: sp 80 +
STACK CFI 4b408 .cfa: sp 0 +
STACK CFI 4b40c .cfa: x29 80 +
STACK CFI INIT 4b4e4 370 .cfa: sp 0 +
STACK CFI 4b4e8 .cfa: sp 144 +
STACK CFI 4b504 .cfa: x29 96 + x19: .cfa -8 + ^ x20: .cfa -16 + ^ x21: .cfa -24 + ^ x22: .cfa -32 + ^ x23: .cfa -40 + ^ x24: .cfa -48 + ^ x25: .cfa -56 + ^ x26: .cfa -64 + ^ x27: .cfa -72 + ^ x28: .cfa -80 + ^ .ra: .cfa -88 + ^ x29: .cfa -96 + ^
STACK CFI 4b73c .cfa: sp 144 +
STACK CFI 4b758 .cfa: sp 0 +
STACK CFI 4b75c .cfa: x29 96 +
STACK CFI INIT 4b854 404 .cfa: sp 0 +
STACK CFI 4b858 .cfa: sp 160 +
STACK CFI 4b878 .cfa: x29 96 + x19: .cfa -8 + ^ x20: .cfa -16 + ^ x21: .cfa -24 + ^ x22: .cfa -32 + ^ x23: .cfa -40 + ^ x24: .cfa -48 + ^ x25: .cfa -56 + ^ x26: .cfa -64 + ^ x27: .cfa -72 + ^ x28: .cfa -80 + ^ .ra: .cfa -88 + ^ x29: .cfa -96 + ^ v8: .cfa -104 + ^ v9: .cfa -112 + ^
STACK CFI 4bb9c .cfa: sp 160 +
STACK CFI 4bbbc .cfa: sp 0 +
STACK CFI 4bbc0 .cfa: x29 96 +
STACK CFI INIT 4bf60 57c .cfa: sp 0 +
STACK CFI 4bf64 .cfa: sp 240 +
STACK CFI 4bf84 .cfa: x29 96 + x19: .cfa -8 + ^ x20: .cfa -16 + ^ x21: .cfa -24 + ^ x22: .cfa -32 + ^ x23: .cfa -40 + ^ x24: .cfa -48 + ^ x25: .cfa -56 + ^ x26: .cfa -64 + ^ x27: .cfa -72 + ^ x28: .cfa -80 + ^ .ra: .cfa -88 + ^ x29: .cfa -96 + ^ v8: .cfa -104 + ^ v9: .cfa -112 + ^
STACK CFI 4c384 .cfa: sp 240 +
STACK CFI 4c3a4 .cfa: sp 0 +
STACK CFI 4c3a8 .cfa: x29 96 +
STACK CFI INIT 4c4dc 200 .cfa: sp 0 +
STACK CFI 4c4e0 .cfa: sp 144 +
STACK CFI 4c500 .cfa: x29 96 + x19: .cfa -8 + ^ x20: .cfa -16 + ^ x21: .cfa -24 + ^ x22: .cfa -32 + ^ x23: .cfa -40 + ^ x24: .cfa -48 + ^ x25: .cfa -56 + ^ x26: .cfa -64 + ^ x27: .cfa -72 + ^ x28: .cfa -80 + ^ .ra: .cfa -88 + ^ x29: .cfa -96 + ^ v8: .cfa -104 + ^ v9: .cfa -112 + ^
STACK CFI 4c6a0 .cfa: sp 144 +
STACK CFI 4c6c0 .cfa: sp 0 +
STACK CFI 4c6c4 .cfa: x29 96 +
STACK CFI INIT 4c784 248 .cfa: sp 0 +
STACK CFI 4c788 .cfa: sp 80 +
STACK CFI 4c79c .cfa: x29 40 + x19: .cfa -8 + ^ x20: .cfa -16 + ^ x21: .cfa -24 + ^ .ra: .cfa -32 + ^ x29: .cfa -40 + ^ v8: .cfa -48 + ^
STACK CFI 4c940 .cfa: sp 80 +
STACK CFI 4c954 .cfa: sp 0 +
STACK CFI 4c958 .cfa: x29 40 +
STACK CFI INIT 4c9cc b4 .cfa: sp 0 +
STACK CFI 4c9d0 .cfa: sp 32 +
STACK CFI 4c9d8 .cfa: x29 32 + x19: .cfa -8 + ^ x20: .cfa -16 + ^ .ra: .cfa -24 + ^ x29: .cfa -32 + ^
STACK CFI 4ca3c .cfa: sp 32 +
STACK CFI 4ca44 .cfa: sp 0 +
STACK CFI 4ca48 .cfa: x29 32 +
STACK CFI 4ca60 .cfa: sp 32 +
STACK CFI 4ca68 .cfa: sp 0 +
STACK CFI 4ca6c .cfa: x29 32 +
STACK CFI INIT 4ca80 c4 .cfa: sp 0 +
STACK CFI 4ca84 .cfa: sp 32 +
STACK CFI 4ca8c .cfa: x29 32 + x19: .cfa -8 + ^ x20: .cfa -16 + ^ .ra: .cfa -24 + ^ x29: .cfa -32 + ^
STACK CFI 4caf8 .cfa: sp 32 +
STACK CFI 4cb00 .cfa: sp 0 +
STACK CFI 4cb04 .cfa: x29 32 +
STACK CFI 4cb24 .cfa: sp 32 +
STACK CFI 4cb2c .cfa: sp 0 +
STACK CFI 4cb30 .cfa: x29 32 +
STACK CFI INIT 4cbac b4 .cfa: sp 0 +
STACK CFI 4cbb0 .cfa: sp 32 +
STACK CFI 4cbb8 .cfa: x29 32 + x19: .cfa -8 + ^ x20: .cfa -16 + ^ .ra: .cfa -24 + ^ x29: .cfa -32 + ^
STACK CFI 4cc1c .cfa: sp 32 +
STACK CFI 4cc24 .cfa: sp 0 +
STACK CFI 4cc28 .cfa: x29 32 +
STACK CFI 4cc40 .cfa: sp 32 +
STACK CFI 4cc48 .cfa: sp 0 +
STACK CFI 4cc4c .cfa: x29 32 +
STACK CFI INIT 4cc60 1c .cfa: sp 0 +
STACK CFI 4cc64 .cfa: sp 16 +
STACK CFI 4cc68 .cfa: x29 16 + .ra: .cfa -8 + ^ x29: .cfa -16 + ^
STACK CFI 4cc70 .cfa: sp 16 +
STACK CFI 4cc74 .cfa: sp 0 +
STACK CFI 4cc78 .cfa: x29 16 +
STACK CFI INIT 4cd04 480 .cfa: sp 0 +
STACK CFI 4cd08 .cfa: sp 224 +
STACK CFI 4cd24 .cfa: x29 96 + x19: .cfa -8 + ^ x20: .cfa -16 + ^ x21: .cfa -24 + ^ x22: .cfa -32 + ^ x23: .cfa -40 + ^ x24: .cfa -48 + ^ x25: .cfa -56 + ^ x26: .cfa -64 + ^ x27: .cfa -80 + ^ .ra: .cfa -88 + ^ x29: .cfa -96 + ^
STACK CFI 4cf90 .cfa: sp 224 +
STACK CFI 4cfac .cfa: sp 0 +
STACK CFI 4cfb0 .cfa: x29 96 +
STACK CFI 4d07c .cfa: sp 224 +
STACK CFI 4d098 .cfa: sp 0 +
STACK CFI 4d09c .cfa: x29 96 +
STACK CFI INIT 4d1a0 308 .cfa: sp 0 +
STACK CFI 4d1a4 .cfa: sp 176 +
STACK CFI 4d1b8 .cfa: x29 64 + x19: .cfa -8 + ^ x20: .cfa -16 + ^ x21: .cfa -24 + ^ x22: .cfa -32 + ^ x23: .cfa -48 + ^ .ra: .cfa -56 + ^ x29: .cfa -64 + ^
STACK CFI 4d3a0 .cfa: sp 176 +
STACK CFI 4d3b4 .cfa: sp 0 +
STACK CFI 4d3b8 .cfa: x29 64 +
STACK CFI INIT 4d4ac 1ec .cfa: sp 0 +
STACK CFI 4d4b0 .cfa: sp 96 +
STACK CFI 4d4c4 .cfa: x29 64 + x19: .cfa -8 + ^ x20: .cfa -16 + ^ x21: .cfa -24 + ^ x22: .cfa -32 + ^ x23: .cfa -40 + ^ x24: .cfa -48 + ^ .ra: .cfa -56 + ^ x29: .cfa -64 + ^
STACK CFI 4d62c .cfa: sp 96 +
STACK CFI 4d640 .cfa: sp 0 +
STACK CFI 4d644 .cfa: x29 64 +
STACK CFI INIT 4d698 cc .cfa: sp 0 +
STACK CFI 4d69c .cfa: sp 32 +
STACK CFI 4d6a4 .cfa: x29 32 + x19: .cfa -8 + ^ x20: .cfa -16 + ^ .ra: .cfa -24 + ^ x29: .cfa -32 + ^
STACK CFI 4d6dc .cfa: sp 32 +
STACK CFI 4d6e4 .cfa: sp 0 +
STACK CFI 4d6e8 .cfa: x29 32 +
STACK CFI 4d6ec .cfa: sp 32 +
STACK CFI 4d6f4 .cfa: sp 0 +
STACK CFI 4d6f8 .cfa: x29 32 +
STACK CFI INIT 4d804 254 .cfa: sp 0 +
STACK CFI 4d808 .cfa: sp 96 +
STACK CFI 4d820 .cfa: x29 80 + x19: .cfa -8 + ^ x20: .cfa -16 + ^ x21: .cfa -24 + ^ x22: .cfa -32 + ^ x23: .cfa -40 + ^ x24: .cfa -48 + ^ x25: .cfa -64 + ^ .ra: .cfa -72 + ^ x29: .cfa -80 + ^
STACK CFI 4da34 .cfa: sp 96 +
STACK CFI 4da4c .cfa: sp 0 +
STACK CFI 4da50 .cfa: x29 80 +
STACK CFI INIT 4db1c 134 .cfa: sp 0 +
STACK CFI 4db20 .cfa: sp 80 +
STACK CFI 4db2c .cfa: x29 32 + x19: .cfa -8 + ^ x20: .cfa -16 + ^ .ra: .cfa -24 + ^ x29: .cfa -32 + ^
STACK CFI 4db5c .cfa: sp 80 +
STACK CFI 4db68 .cfa: sp 0 +
STACK CFI 4db6c .cfa: x29 32 +
STACK CFI INIT 4dc50 78 .cfa: sp 0 +
STACK CFI 4dc54 .cfa: sp 32 +
STACK CFI 4dc5c .cfa: x29 32 + x19: .cfa -8 + ^ x20: .cfa -16 + ^ .ra: .cfa -24 + ^ x29: .cfa -32 + ^
STACK CFI 4dc68 .cfa: sp 32 +
STACK CFI 4dc70 .cfa: sp 0 +
STACK CFI 4dc74 .cfa: x29 32 +
STACK CFI INIT 4dcc8 74 .cfa: sp 0 +
STACK CFI 4dccc .cfa: sp 48 +
STACK CFI 4dcd8 .cfa: x29 32 + x19: .cfa -8 + ^ x20: .cfa -16 + ^ .ra: .cfa -24 + ^ x29: .cfa -32 + ^
STACK CFI 4dd24 .cfa: sp 48 +
STACK CFI 4dd30 .cfa: sp 0 +
STACK CFI 4dd34 .cfa: x29 32 +
STACK CFI INIT 4dda0 224 .cfa: sp 0 +
STACK CFI 4dda4 .cfa: sp 128 +
STACK CFI 4ddb4 .cfa: x29 48 + x19: .cfa -8 + ^ x20: .cfa -16 + ^ x21: .cfa -32 + ^ .ra: .cfa -40 + ^ x29: .cfa -48 + ^
STACK CFI 4de64 .cfa: sp 128 +
STACK CFI 4de74 .cfa: sp 0 +
STACK CFI 4de78 .cfa: x29 48 +
STACK CFI INIT 4dfe8 25c .cfa: sp 0 +
STACK CFI 4dfec .cfa: sp 128 +
STACK CFI 4dffc .cfa: x29 48 + x19: .cfa -8 + ^ x20: .cfa -16 + ^ x21: .cfa -32 + ^ .ra: .cfa -40 + ^ x29: .cfa -48 + ^
STACK CFI 4e0e4 .cfa: sp 128 +
STACK CFI 4e0f4 .cfa: sp 0 +
STACK CFI 4e0f8 .cfa: x29 48 +
STACK CFI INIT 4e28c 284 .cfa: sp 0 +
STACK CFI 4e290 .cfa: sp 128 +
STACK CFI 4e2a0 .cfa: x29 48 + x19: .cfa -8 + ^ x20: .cfa -16 + ^ x21: .cfa -32 + ^ .ra: .cfa -40 + ^ x29: .cfa -48 + ^
STACK CFI 4e3b8 .cfa: sp 128 +
STACK CFI 4e3c8 .cfa: sp 0 +
STACK CFI 4e3cc .cfa: x29 48 +
STACK CFI INIT 4e564 300 .cfa: sp 0 +
STACK CFI 4e568 .cfa: sp 144 +
STACK CFI 4e57c .cfa: x29 64 + x19: .cfa -8 + ^ x20: .cfa -16 + ^ x21: .cfa -24 + ^ x22: .cfa -32 + ^ x23: .cfa -48 + ^ .ra: .cfa -56 + ^ x29: .cfa -64 + ^
STACK CFI 4e710 .cfa: sp 144 +
STACK CFI 4e724 .cfa: sp 0 +
STACK CFI 4e728 .cfa: x29 64 +
STACK CFI INIT 4e8b8 264 .cfa: sp 0 +
STACK CFI 4e8bc .cfa: sp 128 +
STACK CFI 4e8cc .cfa: x29 48 + x19: .cfa -8 + ^ x20: .cfa -16 + ^ x21: .cfa -32 + ^ .ra: .cfa -40 + ^ x29: .cfa -48 + ^
STACK CFI 4e9c4 .cfa: sp 128 +
STACK CFI 4e9d4 .cfa: sp 0 +
STACK CFI 4e9d8 .cfa: x29 48 +
STACK CFI INIT 4ebe8 2b8 .cfa: sp 0 +
STACK CFI 4ebec .cfa: sp 144 +
STACK CFI 4ec00 .cfa: x29 64 + x19: .cfa -8 + ^ x20: .cfa -16 + ^ x21: .cfa -24 + ^ x22: .cfa -32 + ^ x23: .cfa -48 + ^ .ra: .cfa -56 + ^ x29: .cfa -64 + ^
STACK CFI 4ed4c .cfa: sp 144 +
STACK CFI 4ed60 .cfa: sp 0 +
STACK CFI 4ed64 .cfa: x29 64 +
STACK CFI INIT 4eea0 2c0 .cfa: sp 0 +
STACK CFI 4eea4 .cfa: sp 144 +
STACK CFI 4eeb8 .cfa: x29 64 + x19: .cfa -8 + ^ x20: .cfa -16 + ^ x21: .cfa -24 + ^ x22: .cfa -32 + ^ x23: .cfa -48 + ^ .ra: .cfa -56 + ^ x29: .cfa -64 + ^
STACK CFI 4f00c .cfa: sp 144 +
STACK CFI 4f020 .cfa: sp 0 +
STACK CFI 4f024 .cfa: x29 64 +
STACK CFI INIT 4f1b0 2e4 .cfa: sp 0 +
STACK CFI 4f1b4 .cfa: sp 144 +
STACK CFI 4f1c8 .cfa: x29 64 + x19: .cfa -8 + ^ x20: .cfa -16 + ^ x21: .cfa -24 + ^ x22: .cfa -32 + ^ x23: .cfa -48 + ^ .ra: .cfa -56 + ^ x29: .cfa -64 + ^
STACK CFI 4f340 .cfa: sp 144 +
STACK CFI 4f354 .cfa: sp 0 +
STACK CFI 4f358 .cfa: x29 64 +
STACK CFI INIT 4f494 2e4 .cfa: sp 0 +
STACK CFI 4f498 .cfa: sp 144 +
STACK CFI 4f4ac .cfa: x29 64 + x19: .cfa -8 + ^ x20: .cfa -16 + ^ x21: .cfa -24 + ^ x22: .cfa -32 + ^ x23: .cfa -48 + ^ .ra: .cfa -56 + ^ x29: .cfa -64 + ^
STACK CFI 4f624 .cfa: sp 144 +
STACK CFI 4f638 .cfa: sp 0 +
STACK CFI 4f63c .cfa: x29 64 +
STACK CFI INIT 4f778 2a0 .cfa: sp 0 +
STACK CFI 4f77c .cfa: sp 144 +
STACK CFI 4f790 .cfa: x29 64 + x19: .cfa -8 + ^ x20: .cfa -16 + ^ x21: .cfa -24 + ^ x22: .cfa -32 + ^ x23: .cfa -48 + ^ .ra: .cfa -56 + ^ x29: .cfa -64 + ^
STACK CFI 4f8c4 .cfa: sp 144 +
STACK CFI 4f8d8 .cfa: sp 0 +
STACK CFI 4f8dc .cfa: x29 64 +
STACK CFI INIT 4fa18 2f0 .cfa: sp 0 +
STACK CFI 4fa1c .cfa: sp 144 +
STACK CFI 4fa30 .cfa: x29 64 + x19: .cfa -8 + ^ x20: .cfa -16 + ^ x21: .cfa -24 + ^ x22: .cfa -32 + ^ x23: .cfa -48 + ^ .ra: .cfa -56 + ^ x29: .cfa -64 + ^
STACK CFI 4fbb4 .cfa: sp 144 +
STACK CFI 4fbc8 .cfa: sp 0 +
STACK CFI 4fbcc .cfa: x29 64 +
STACK CFI INIT 4fd08 4f4 .cfa: sp 0 +
STACK CFI 4fd0c .cfa: sp 144 +
STACK CFI 4fd20 .cfa: x29 64 + x19: .cfa -8 + ^ x20: .cfa -16 + ^ x21: .cfa -24 + ^ x22: .cfa -32 + ^ x23: .cfa -48 + ^ .ra: .cfa -56 + ^ x29: .cfa -64 + ^
STACK CFI 50054 .cfa: sp 144 +
STACK CFI 50068 .cfa: sp 0 +
STACK CFI 5006c .cfa: x29 64 +
STACK CFI INIT 501fc 154 .cfa: sp 0 +
STACK CFI 50200 .cfa: sp 384 +
STACK CFI 50214 .cfa: x29 64 + x19: .cfa -8 + ^ x20: .cfa -16 + ^ x21: .cfa -24 + ^ x22: .cfa -32 + ^ x23: .cfa -40 + ^ x28: .cfa -48 + ^ .ra: .cfa -56 + ^ x29: .cfa -64 + ^
STACK CFI 502f8 .cfa: sp 384 +
STACK CFI 5030c .cfa: sp 0 +
STACK CFI 50310 .cfa: x29 64 +
STACK CFI INIT 50368 50c .cfa: sp 0 +
STACK CFI 5036c .cfa: sp 64 +
STACK CFI 5037c .cfa: x29 64 + x19: .cfa -8 + ^ x20: .cfa -16 + ^ x21: .cfa -24 + ^ x22: .cfa -32 + ^ x23: .cfa -40 + ^ x24: .cfa -48 + ^ .ra: .cfa -56 + ^ x29: .cfa -64 + ^
STACK CFI 5049c .cfa: sp 64 +
STACK CFI 504ac .cfa: sp 0 +
STACK CFI 504b0 .cfa: x29 64 +
STACK CFI 50848 .cfa: sp 64 +
STACK CFI 50858 .cfa: sp 0 +
STACK CFI 5085c .cfa: x29 64 +
STACK CFI INIT 5098c 114 .cfa: sp 0 +
STACK CFI 50990 .cfa: sp 160 +
STACK CFI 509a0 .cfa: x29 48 + x19: .cfa -8 + ^ x20: .cfa -16 + ^ x21: .cfa -24 + ^ x22: .cfa -32 + ^ .ra: .cfa -40 + ^ x29: .cfa -48 + ^
STACK CFI 50a84 .cfa: sp 160 +
STACK CFI 50a94 .cfa: sp 0 +
STACK CFI 50a98 .cfa: x29 48 +
STACK CFI INIT 50aa0 b4 .cfa: sp 0 +
STACK CFI 50aa4 .cfa: sp 48 +
STACK CFI 50ab0 .cfa: x29 48 + x19: .cfa -8 + ^ x20: .cfa -16 + ^ x21: .cfa -24 + ^ x28: .cfa -32 + ^ .ra: .cfa -40 + ^ x29: .cfa -48 + ^
STACK CFI 50b3c .cfa: sp 48 +
STACK CFI 50b48 .cfa: sp 0 +
STACK CFI 50b4c .cfa: x29 48 +
STACK CFI INIT 50b54 190 .cfa: sp 0 +
STACK CFI 50b58 .cfa: sp 208 +
STACK CFI 50b68 .cfa: x29 48 + x19: .cfa -8 + ^ x20: .cfa -16 + ^ x21: .cfa -24 + ^ x22: .cfa -32 + ^ .ra: .cfa -40 + ^ x29: .cfa -48 + ^
STACK CFI 50c6c .cfa: sp 208 +
STACK CFI 50c7c .cfa: sp 0 +
STACK CFI 50c80 .cfa: x29 48 +
STACK CFI INIT 50cf8 190 .cfa: sp 0 +
STACK CFI 50cfc .cfa: sp 80 +
STACK CFI 50d0c .cfa: x29 48 + x19: .cfa -8 + ^ x20: .cfa -16 + ^ x21: .cfa -24 + ^ x22: .cfa -32 + ^ .ra: .cfa -40 + ^ x29: .cfa -48 + ^
STACK CFI 50dec .cfa: sp 80 +
STACK CFI 50dfc .cfa: sp 0 +
STACK CFI 50e00 .cfa: x29 48 +
STACK CFI INIT 50f08 50 .cfa: sp 0 +
STACK CFI 50f0c .cfa: sp 32 +
STACK CFI 50f14 .cfa: x29 32 + x19: .cfa -8 + ^ x20: .cfa -16 + ^ .ra: .cfa -24 + ^ x29: .cfa -32 + ^
STACK CFI INIT 50f88 1e8 .cfa: sp 0 +
STACK CFI 50f8c .cfa: sp 144 +
STACK CFI 50f9c .cfa: x29 48 + x19: .cfa -8 + ^ x20: .cfa -16 + ^ x21: .cfa -32 + ^ .ra: .cfa -40 + ^ x29: .cfa -48 + ^
STACK CFI 510d4 .cfa: sp 144 +
STACK CFI 510e4 .cfa: sp 0 +
STACK CFI 510e8 .cfa: x29 48 +
STACK CFI INIT 51270 1a8 .cfa: sp 0 +
STACK CFI 51274 .cfa: sp 96 +
STACK CFI 5128c .cfa: x29 96 + x19: .cfa -8 + ^ x20: .cfa -16 + ^ x21: .cfa -24 + ^ x22: .cfa -32 + ^ x23: .cfa -40 + ^ x24: .cfa -48 + ^ x25: .cfa -56 + ^ x26: .cfa -64 + ^ x27: .cfa -72 + ^ x28: .cfa -80 + ^ .ra: .cfa -88 + ^ x29: .cfa -96 + ^
STACK CFI 5136c .cfa: sp 96 +
STACK CFI 51384 .cfa: sp 0 +
STACK CFI 51388 .cfa: x29 96 +
STACK CFI INIT 51418 13c .cfa: sp 0 +
STACK CFI 5141c .cfa: sp 80 +
STACK CFI 51430 .cfa: x29 80 + x19: .cfa -8 + ^ x20: .cfa -16 + ^ x21: .cfa -24 + ^ x22: .cfa -32 + ^ x23: .cfa -40 + ^ x24: .cfa -48 + ^ x28: .cfa -64 + ^ .ra: .cfa -72 + ^ x29: .cfa -80 + ^
STACK CFI 514c4 .cfa: sp 80 +
STACK CFI 514d8 .cfa: sp 0 +
STACK CFI 514dc .cfa: x29 80 +
STACK CFI INIT 51604 210 .cfa: sp 0 +
STACK CFI 51608 .cfa: sp 80 +
STACK CFI 5161c .cfa: x29 64 + x19: .cfa -8 + ^ x20: .cfa -16 + ^ x21: .cfa -24 + ^ x22: .cfa -32 + ^ x23: .cfa -40 + ^ x24: .cfa -48 + ^ .ra: .cfa -56 + ^ x29: .cfa -64 + ^
STACK CFI 517c4 .cfa: sp 80 +
STACK CFI 517d8 .cfa: sp 0 +
STACK CFI 517dc .cfa: x29 64 +
STACK CFI INIT 51814 114 .cfa: sp 0 +
STACK CFI 51818 .cfa: sp 112 +
STACK CFI 5182c .cfa: x29 64 + x19: .cfa -8 + ^ x20: .cfa -16 + ^ x21: .cfa -24 + ^ x22: .cfa -32 + ^ x23: .cfa -48 + ^ .ra: .cfa -56 + ^ x29: .cfa -64 + ^
STACK CFI 5189c .cfa: sp 112 +
STACK CFI 518b0 .cfa: sp 0 +
STACK CFI 518b4 .cfa: x29 64 +
STACK CFI INIT 51bdc 88 .cfa: sp 0 +
STACK CFI 51be0 .cfa: sp 32 +
STACK CFI 51be8 .cfa: x29 32 + x19: .cfa -8 + ^ x20: .cfa -16 + ^ .ra: .cfa -24 + ^ x29: .cfa -32 + ^
STACK CFI 51c04 .cfa: sp 32 +
STACK CFI 51c0c .cfa: sp 0 +
STACK CFI 51c10 .cfa: x29 32 +
STACK CFI INIT 51c64 144 .cfa: sp 0 +
STACK CFI 51c68 .cfa: sp 64 +
STACK CFI 51c78 .cfa: x29 64 + x19: .cfa -8 + ^ x20: .cfa -16 + ^ x21: .cfa -24 + ^ x22: .cfa -32 + ^ x28: .cfa -48 + ^ .ra: .cfa -56 + ^ x29: .cfa -64 + ^
STACK CFI 51cfc .cfa: sp 64 +
STACK CFI 51d0c .cfa: sp 0 +
STACK CFI 51d10 .cfa: x29 64 +
STACK CFI INIT 51dac 17c .cfa: sp 0 +
STACK CFI 51db0 .cfa: sp 64 +
STACK CFI 51dc0 .cfa: x29 64 + x19: .cfa -8 + ^ x20: .cfa -16 + ^ x21: .cfa -24 + ^ x22: .cfa -32 + ^ x28: .cfa -48 + ^ .ra: .cfa -56 + ^ x29: .cfa -64 + ^
STACK CFI 51e78 .cfa: sp 64 +
STACK CFI 51e88 .cfa: sp 0 +
STACK CFI 51e8c .cfa: x29 64 +
STACK CFI INIT 52994 118 .cfa: sp 0 +
STACK CFI 52998 .cfa: sp 80 +
STACK CFI 529a8 .cfa: x29 48 + x19: .cfa -8 + ^ x20: .cfa -16 + ^ x21: .cfa -32 + ^ .ra: .cfa -40 + ^ x29: .cfa -48 + ^
STACK CFI 52a58 .cfa: sp 80 +
STACK CFI 52a68 .cfa: sp 0 +
STACK CFI 52a6c .cfa: x29 48 +
STACK CFI INIT 52aac ac .cfa: sp 0 +
STACK CFI 52ab0 .cfa: sp 48 +
STACK CFI 52abc .cfa: x29 32 + x19: .cfa -8 + ^ x20: .cfa -16 + ^ .ra: .cfa -24 + ^ x29: .cfa -32 + ^
STACK CFI 52b20 .cfa: sp 48 +
STACK CFI 52b2c .cfa: sp 0 +
STACK CFI 52b30 .cfa: x29 32 +
STACK CFI INIT 52eb4 118 .cfa: sp 0 +
STACK CFI 52eb8 .cfa: sp 80 +
STACK CFI 52ec8 .cfa: x29 48 + x19: .cfa -8 + ^ x20: .cfa -16 + ^ x21: .cfa -32 + ^ .ra: .cfa -40 + ^ x29: .cfa -48 + ^
STACK CFI 52f78 .cfa: sp 80 +
STACK CFI 52f88 .cfa: sp 0 +
STACK CFI 52f8c .cfa: x29 48 +
STACK CFI INIT 52fcc ac .cfa: sp 0 +
STACK CFI 52fd0 .cfa: sp 48 +
STACK CFI 52fdc .cfa: x29 32 + x19: .cfa -8 + ^ x20: .cfa -16 + ^ .ra: .cfa -24 + ^ x29: .cfa -32 + ^
STACK CFI 53040 .cfa: sp 48 +
STACK CFI 5304c .cfa: sp 0 +
STACK CFI 53050 .cfa: x29 32 +
STACK CFI INIT 5334c 1fc .cfa: sp 0 +
STACK CFI 53350 .cfa: sp 80 +
STACK CFI 53364 .cfa: x29 80 + x19: .cfa -8 + ^ x20: .cfa -16 + ^ x21: .cfa -24 + ^ x22: .cfa -32 + ^ x23: .cfa -40 + ^ x24: .cfa -48 + ^ x25: .cfa -64 + ^ .ra: .cfa -72 + ^ x29: .cfa -80 + ^
STACK CFI 534ec .cfa: sp 80 +
STACK CFI 53500 .cfa: sp 0 +
STACK CFI 53504 .cfa: x29 80 +
STACK CFI INIT 56384 6d4 .cfa: sp 0 +
STACK CFI 56388 .cfa: sp 272 +
STACK CFI 563a4 .cfa: x29 96 + x19: .cfa -8 + ^ x20: .cfa -16 + ^ x21: .cfa -24 + ^ x22: .cfa -32 + ^ x23: .cfa -40 + ^ x24: .cfa -48 + ^ x25: .cfa -56 + ^ x26: .cfa -64 + ^ x27: .cfa -72 + ^ x28: .cfa -80 + ^ .ra: .cfa -88 + ^ x29: .cfa -96 + ^
STACK CFI 56904 .cfa: sp 272 +
STACK CFI 56920 .cfa: sp 0 +
STACK CFI 56924 .cfa: x29 96 +
STACK CFI INIT 56bac 1b8 .cfa: sp 0 +
STACK CFI 56bb0 .cfa: sp 128 +
STACK CFI 56bc0 .cfa: x29 48 + x19: .cfa -8 + ^ x20: .cfa -16 + ^ x21: .cfa -32 + ^ .ra: .cfa -40 + ^ x29: .cfa -48 + ^
STACK CFI 56ccc .cfa: sp 128 +
STACK CFI 56cdc .cfa: sp 0 +
STACK CFI 56ce0 .cfa: x29 48 +
STACK CFI INIT 57228 2c0 .cfa: sp 0 +
STACK CFI 5722c .cfa: sp 80 +
STACK CFI 57240 .cfa: x29 80 + x19: .cfa -8 + ^ x20: .cfa -16 + ^ x21: .cfa -24 + ^ x22: .cfa -32 + ^ x23: .cfa -40 + ^ x24: .cfa -48 + ^ x28: .cfa -64 + ^ .ra: .cfa -72 + ^ x29: .cfa -80 + ^
STACK CFI 5749c .cfa: sp 80 +
STACK CFI 574b0 .cfa: sp 0 +
STACK CFI 574b4 .cfa: x29 80 +
STACK CFI INIT 574e8 3b8 .cfa: sp 0 +
STACK CFI 574ec .cfa: sp 96 +
STACK CFI 57504 .cfa: x29 96 + x19: .cfa -8 + ^ x20: .cfa -16 + ^ x21: .cfa -24 + ^ x22: .cfa -32 + ^ x23: .cfa -40 + ^ x24: .cfa -48 + ^ x25: .cfa -56 + ^ x26: .cfa -64 + ^ x27: .cfa -72 + ^ x28: .cfa -80 + ^ .ra: .cfa -88 + ^ x29: .cfa -96 + ^
STACK CFI 57840 .cfa: sp 96 +
STACK CFI 57858 .cfa: sp 0 +
STACK CFI 5785c .cfa: x29 96 +
STACK CFI INIT 57ad0 148 .cfa: sp 0 +
STACK CFI 57ad4 .cfa: sp 64 +
STACK CFI 57ae4 .cfa: x29 64 + x19: .cfa -8 + ^ x20: .cfa -16 + ^ x21: .cfa -24 + ^ x22: .cfa -32 + ^ x23: .cfa -40 + ^ x28: .cfa -48 + ^ .ra: .cfa -56 + ^ x29: .cfa -64 + ^
STACK CFI 57bd0 .cfa: sp 64 +
STACK CFI 57be0 .cfa: sp 0 +
STACK CFI 57be4 .cfa: x29 64 +
STACK CFI INIT 57e34 6e4 .cfa: sp 0 +
STACK CFI 57e38 .cfa: sp 272 +
STACK CFI 57e54 .cfa: x29 96 + x19: .cfa -8 + ^ x20: .cfa -16 + ^ x21: .cfa -24 + ^ x22: .cfa -32 + ^ x23: .cfa -40 + ^ x24: .cfa -48 + ^ x25: .cfa -56 + ^ x26: .cfa -64 + ^ x27: .cfa -72 + ^ x28: .cfa -80 + ^ .ra: .cfa -88 + ^ x29: .cfa -96 + ^
STACK CFI 583c4 .cfa: sp 272 +
STACK CFI 583e0 .cfa: sp 0 +
STACK CFI 583e4 .cfa: x29 96 +
STACK CFI INIT 58934 2d8 .cfa: sp 0 +
STACK CFI 58938 .cfa: sp 80 +
STACK CFI 5894c .cfa: x29 80 + x19: .cfa -8 + ^ x20: .cfa -16 + ^ x21: .cfa -24 + ^ x22: .cfa -32 + ^ x23: .cfa -40 + ^ x24: .cfa -48 + ^ x28: .cfa -64 + ^ .ra: .cfa -72 + ^ x29: .cfa -80 + ^
STACK CFI 58bc0 .cfa: sp 80 +
STACK CFI 58bd4 .cfa: sp 0 +
STACK CFI 58bd8 .cfa: x29 80 +
STACK CFI INIT 58d9c 148 .cfa: sp 0 +
STACK CFI 58da0 .cfa: sp 64 +
STACK CFI 58db0 .cfa: x29 64 + x19: .cfa -8 + ^ x20: .cfa -16 + ^ x21: .cfa -24 + ^ x22: .cfa -32 + ^ x23: .cfa -40 + ^ x28: .cfa -48 + ^ .ra: .cfa -56 + ^ x29: .cfa -64 + ^
STACK CFI 58e9c .cfa: sp 64 +
STACK CFI 58eac .cfa: sp 0 +
STACK CFI 58eb0 .cfa: x29 64 +
STACK CFI INIT 5910c 3e8 .cfa: sp 0 +
STACK CFI 59110 .cfa: sp 96 +
STACK CFI 59128 .cfa: x29 96 + x19: .cfa -8 + ^ x20: .cfa -16 + ^ x21: .cfa -24 + ^ x22: .cfa -32 + ^ x23: .cfa -40 + ^ x24: .cfa -48 + ^ x25: .cfa -56 + ^ x26: .cfa -64 + ^ x28: .cfa -80 + ^ .ra: .cfa -88 + ^ x29: .cfa -96 + ^
STACK CFI 59480 .cfa: sp 96 +
STACK CFI 59498 .cfa: sp 0 +
STACK CFI 5949c .cfa: x29 96 +
STACK CFI INIT 59f14 1434 .cfa: sp 0 +
STACK CFI 59f18 .cfa: sp 96 +
STACK CFI 59f30 .cfa: x29 96 + x19: .cfa -8 + ^ x20: .cfa -16 + ^ x21: .cfa -24 + ^ x22: .cfa -32 + ^ x23: .cfa -40 + ^ x24: .cfa -48 + ^ x25: .cfa -56 + ^ x26: .cfa -64 + ^ x27: .cfa -72 + ^ x28: .cfa -80 + ^ .ra: .cfa -88 + ^ x29: .cfa -96 + ^
STACK CFI 5b1cc .cfa: sp 96 +
STACK CFI 5b1e4 .cfa: sp 0 +
STACK CFI 5b1e8 .cfa: x29 96 +
STACK CFI INIT 5b9c0 5cc .cfa: sp 0 +
STACK CFI 5b9c4 .cfa: sp 304 +
STACK CFI 5b9e0 .cfa: x29 96 + x19: .cfa -8 + ^ x20: .cfa -16 + ^ x21: .cfa -24 + ^ x22: .cfa -32 + ^ x23: .cfa -40 + ^ x24: .cfa -48 + ^ x25: .cfa -56 + ^ x26: .cfa -64 + ^ x27: .cfa -72 + ^ x28: .cfa -80 + ^ .ra: .cfa -88 + ^ x29: .cfa -96 + ^
STACK CFI 5bf10 .cfa: sp 304 +
STACK CFI 5bf2c .cfa: sp 0 +
STACK CFI 5bf30 .cfa: x29 96 +
STACK CFI INIT 5bf8c 6b8 .cfa: sp 0 +
STACK CFI 5bf90 .cfa: sp 272 +
STACK CFI 5bfac .cfa: x29 96 + x19: .cfa -8 + ^ x20: .cfa -16 + ^ x21: .cfa -24 + ^ x22: .cfa -32 + ^ x23: .cfa -40 + ^ x24: .cfa -48 + ^ x25: .cfa -56 + ^ x26: .cfa -64 + ^ x27: .cfa -72 + ^ x28: .cfa -80 + ^ .ra: .cfa -88 + ^ x29: .cfa -96 + ^
STACK CFI 5c4f0 .cfa: sp 272 +
STACK CFI 5c50c .cfa: sp 0 +
STACK CFI 5c510 .cfa: x29 96 +
STACK CFI INIT 5c8e0 3e8 .cfa: sp 0 +
STACK CFI 5c8e4 .cfa: sp 96 +
STACK CFI 5c8fc .cfa: x29 96 + x19: .cfa -8 + ^ x20: .cfa -16 + ^ x21: .cfa -24 + ^ x22: .cfa -32 + ^ x23: .cfa -40 + ^ x24: .cfa -48 + ^ x25: .cfa -56 + ^ x26: .cfa -64 + ^ x28: .cfa -80 + ^ .ra: .cfa -88 + ^ x29: .cfa -96 + ^
STACK CFI 5cc74 .cfa: sp 96 +
STACK CFI 5cc8c .cfa: sp 0 +
STACK CFI 5cc90 .cfa: x29 96 +
STACK CFI INIT 5ce58 214 .cfa: sp 0 +
STACK CFI 5ce5c .cfa: sp 96 +
STACK CFI 5ce74 .cfa: x29 96 + x19: .cfa -8 + ^ x20: .cfa -16 + ^ x21: .cfa -24 + ^ x22: .cfa -32 + ^ x23: .cfa -40 + ^ x24: .cfa -48 + ^ x25: .cfa -56 + ^ x26: .cfa -64 + ^ x27: .cfa -72 + ^ x28: .cfa -80 + ^ .ra: .cfa -88 + ^ x29: .cfa -96 + ^
STACK CFI 5cfe8 .cfa: sp 96 +
STACK CFI 5d000 .cfa: sp 0 +
STACK CFI 5d004 .cfa: x29 96 +
STACK CFI 5d01c .cfa: sp 96 +
STACK CFI 5d034 .cfa: sp 0 +
STACK CFI 5d038 .cfa: x29 96 +
STACK CFI INIT 608c8 398 .cfa: sp 0 +
STACK CFI 608cc .cfa: sp 96 +
STACK CFI 608e8 .cfa: x29 88 + x19: .cfa -8 + ^ x20: .cfa -16 + ^ x21: .cfa -24 + ^ x22: .cfa -32 + ^ x23: .cfa -40 + ^ x24: .cfa -48 + ^ x25: .cfa -56 + ^ x26: .cfa -64 + ^ x28: .cfa -72 + ^ .ra: .cfa -80 + ^ x29: .cfa -88 + ^ v8: .cfa -96 + ^
STACK CFI 60be8 .cfa: sp 96 +
STACK CFI 60c04 .cfa: sp 0 +
STACK CFI 60c08 .cfa: x29 88 +
STACK CFI INIT 61180 7f8 .cfa: sp 0 +
STACK CFI 61184 .cfa: sp 128 +
STACK CFI 61198 .cfa: x29 64 + x19: .cfa -8 + ^ x20: .cfa -16 + ^ x21: .cfa -24 + ^ x22: .cfa -32 + ^ x23: .cfa -40 + ^ x24: .cfa -48 + ^ .ra: .cfa -56 + ^ x29: .cfa -64 + ^
STACK CFI 618d4 .cfa: sp 128 +
STACK CFI 618e8 .cfa: sp 0 +
STACK CFI 618ec .cfa: x29 64 +
STACK CFI INIT 61b84 38c .cfa: sp 0 +
STACK CFI 61b88 .cfa: sp 96 +
STACK CFI 61ba4 .cfa: x29 88 + x19: .cfa -8 + ^ x20: .cfa -16 + ^ x21: .cfa -24 + ^ x22: .cfa -32 + ^ x23: .cfa -40 + ^ x24: .cfa -48 + ^ x25: .cfa -56 + ^ x26: .cfa -64 + ^ x28: .cfa -72 + ^ .ra: .cfa -80 + ^ x29: .cfa -88 + ^ v8: .cfa -96 + ^
STACK CFI 61e98 .cfa: sp 96 +
STACK CFI 61eb4 .cfa: sp 0 +
STACK CFI 61eb8 .cfa: x29 88 +
STACK CFI INIT 61f10 218 .cfa: sp 0 +
STACK CFI 61f14 .cfa: sp 192 +
STACK CFI 61f28 .cfa: x29 64 + x19: .cfa -8 + ^ x20: .cfa -16 + ^ x21: .cfa -24 + ^ x22: .cfa -32 + ^ x23: .cfa -40 + ^ x24: .cfa -48 + ^ .ra: .cfa -56 + ^ x29: .cfa -64 + ^
STACK CFI 620a0 .cfa: sp 192 +
STACK CFI 620b4 .cfa: sp 0 +
STACK CFI 620b8 .cfa: x29 64 +
STACK CFI INIT 62128 1f4 .cfa: sp 0 +
STACK CFI 6212c .cfa: sp 192 +
STACK CFI 62140 .cfa: x29 64 + x19: .cfa -8 + ^ x20: .cfa -16 + ^ x21: .cfa -24 + ^ x22: .cfa -32 + ^ x23: .cfa -40 + ^ x24: .cfa -48 + ^ .ra: .cfa -56 + ^ x29: .cfa -64 + ^
STACK CFI 62294 .cfa: sp 192 +
STACK CFI 622a8 .cfa: sp 0 +
STACK CFI 622ac .cfa: x29 64 +
STACK CFI INIT 6231c 218 .cfa: sp 0 +
STACK CFI 62320 .cfa: sp 192 +
STACK CFI 62334 .cfa: x29 64 + x19: .cfa -8 + ^ x20: .cfa -16 + ^ x21: .cfa -24 + ^ x22: .cfa -32 + ^ x23: .cfa -40 + ^ x24: .cfa -48 + ^ .ra: .cfa -56 + ^ x29: .cfa -64 + ^
STACK CFI 624ac .cfa: sp 192 +
STACK CFI 624c0 .cfa: sp 0 +
STACK CFI 624c4 .cfa: x29 64 +
STACK CFI INIT 62534 1f4 .cfa: sp 0 +
STACK CFI 62538 .cfa: sp 192 +
STACK CFI 6254c .cfa: x29 64 + x19: .cfa -8 + ^ x20: .cfa -16 + ^ x21: .cfa -24 + ^ x22: .cfa -32 + ^ x23: .cfa -40 + ^ x24: .cfa -48 + ^ .ra: .cfa -56 + ^ x29: .cfa -64 + ^
STACK CFI 626a0 .cfa: sp 192 +
STACK CFI 626b4 .cfa: sp 0 +
STACK CFI 626b8 .cfa: x29 64 +
STACK CFI INIT 62728 22c .cfa: sp 0 +
STACK CFI 6272c .cfa: sp 208 +
STACK CFI 62744 .cfa: x29 80 + x19: .cfa -8 + ^ x20: .cfa -16 + ^ x21: .cfa -24 + ^ x22: .cfa -32 + ^ x23: .cfa -40 + ^ x24: .cfa -48 + ^ x25: .cfa -64 + ^ .ra: .cfa -72 + ^ x29: .cfa -80 + ^
STACK CFI 628c8 .cfa: sp 208 +
STACK CFI 628e0 .cfa: sp 0 +
STACK CFI 628e4 .cfa: x29 80 +
STACK CFI INIT 62954 204 .cfa: sp 0 +
STACK CFI 62958 .cfa: sp 208 +
STACK CFI 62970 .cfa: x29 80 + x19: .cfa -8 + ^ x20: .cfa -16 + ^ x21: .cfa -24 + ^ x22: .cfa -32 + ^ x23: .cfa -40 + ^ x24: .cfa -48 + ^ x25: .cfa -64 + ^ .ra: .cfa -72 + ^ x29: .cfa -80 + ^
STACK CFI 62acc .cfa: sp 208 +
STACK CFI 62ae4 .cfa: sp 0 +
STACK CFI 62ae8 .cfa: x29 80 +
STACK CFI INIT 62b58 4fc .cfa: sp 0 +
STACK CFI 62b5c .cfa: sp 96 +
STACK CFI 62b74 .cfa: x29 96 + x19: .cfa -8 + ^ x20: .cfa -16 + ^ x21: .cfa -24 + ^ x22: .cfa -32 + ^ x23: .cfa -40 + ^ x24: .cfa -48 + ^ x25: .cfa -56 + ^ x26: .cfa -64 + ^ x27: .cfa -72 + ^ x28: .cfa -80 + ^ .ra: .cfa -88 + ^ x29: .cfa -96 + ^
STACK CFI 63000 .cfa: sp 96 +
STACK CFI 63018 .cfa: sp 0 +
STACK CFI 6301c .cfa: x29 96 +
STACK CFI INIT 63170 62c .cfa: sp 0 +
STACK CFI 63174 .cfa: sp 96 +
STACK CFI 6318c .cfa: x29 96 + x19: .cfa -8 + ^ x20: .cfa -16 + ^ x21: .cfa -24 + ^ x22: .cfa -32 + ^ x23: .cfa -40 + ^ x24: .cfa -48 + ^ x25: .cfa -56 + ^ x26: .cfa -64 + ^ x27: .cfa -72 + ^ x28: .cfa -80 + ^ .ra: .cfa -88 + ^ x29: .cfa -96 + ^
STACK CFI 6374c .cfa: sp 96 +
STACK CFI 63764 .cfa: sp 0 +
STACK CFI 63768 .cfa: x29 96 +
