MODULE Linux arm64 692E36D9711AA52556B0FED10F02CFC60 colon.lite_ad_chests.android64.so
INFO CODE_ID D9362E691A7125A556B0FED10F02CFC68F003B56
INFO GENERATOR mozilla/dump_syms 2.3.4
PUBLIC 57e0 0 __on_dlclose
PUBLIC 57f0 0 __emutls_unregister_key
PUBLIC 57f8 0 __on_dlclose_late
PUBLIC 5800 0 __atexit_handler_wrapper
PUBLIC 5814 0 atexit
PUBLIC 5830 0 pthread_atfork
PUBLIC 5840 0 __aarch64_ldadd8_relax
PUBLIC 5870 0 init_have_lse_atomics
PUBLIC 5908 0 __init_cpu_features_constructor
PUBLIC 5ea4 0 __init_cpu_features
PUBLIC 5f30 0 __aarch64_ldadd8_acq_rel
PUBLIC 5f60 0 getNextAdChest()
PUBLIC 60b0 0 __cxx_global_var_init
PUBLIC 6534 0 geode::modifier::ModifyBase<geode::modifier::ModifyDerive<RewardsPageButAds, RewardsPage> >::~ModifyBase()
PUBLIC 654c 0 __cxx_global_var_init.2
PUBLIC 69d0 0 geode::modifier::ModifyBase<geode::modifier::ModifyDerive<GarageButSupporter, GJGarageLayer> >::~ModifyBase()
PUBLIC 69e8 0 std::__ndk1::__throw_out_of_range[abi:ne180000](char const*)
PUBLIC 6a38 0 std::out_of_range::out_of_range[abi:ne180000](char const*)
PUBLIC 6a68 0 __clang_call_terminate
PUBLIC 6a78 0 std::__ndk1::basic_string<char, std::__ndk1::char_traits<char>, std::__ndk1::allocator<char> >::__throw_length_error[abi:ne180000]() const
PUBLIC 6a8c 0 std::__ndk1::__throw_length_error[abi:ne180000](char const*)
PUBLIC 6adc 0 std::length_error::length_error[abi:ne180000](char const*)
PUBLIC 6b0c 0 std::__throw_bad_array_new_length([abi:ne180000], void)
PUBLIC 6b40 0 geode::modifier::ModifyDerive<RewardsPageButAds, RewardsPage>::apply()
PUBLIC 6e38 0 std::__ndk1::shared_ptr<geode::Hook>::~shared_ptr[abi:ne180000]()
PUBLIC 6e88 0 geode::impl::ResultData<geode::Hook*, std::__ndk1::basic_string<char, std::__ndk1::char_traits<char>, std::__ndk1::allocator<char> > >::~ResultData()
PUBLIC 6efc 0 std::__ndk1::vector<std::__ndk1::basic_string<char, std::__ndk1::char_traits<char>, std::__ndk1::allocator<char> >, std::__ndk1::allocator<std::__ndk1::basic_string<char, std::__ndk1::char_traits<char>, std::__ndk1::allocator<char> > > >::~vector[abi:ne180000]()
PUBLIC 6f78 0 geode::modifier::ModifyBase<geode::modifier::ModifyDerive<RewardsPageButAds, RewardsPage> >::apply()
PUBLIC 6f7c 0 _ZN5geode15UnwrapExceptionC2IRPNS_4HookEQsr4implE18IsStringStreamableIT_EEENS_4impl5OkTagEOS5_
PUBLIC 70d0 0 std::__ndk1::__throw_bad_variant_access[abi:ne180000]()
PUBLIC 7104 0 std::__ndk1::basic_stringstream<char, std::__ndk1::char_traits<char>, std::__ndk1::allocator<char> >::basic_stringstream[abi:ne180000]()
PUBLIC m 7230 0 std::__ndk1::basic_stringstream<char, std::__ndk1::char_traits<char>, std::__ndk1::allocator<char> >::~basic_stringstream()
PUBLIC 72b0 0 geode::UnwrapException::~UnwrapException()
PUBLIC 72d4 0 std::__ndk1::__put_character_sequence[abi:ne180000]<char, std::__ndk1::char_traits<char> >(std::__ndk1::basic_ostream<char, std::__ndk1::char_traits<char> >, std::__ndk1::basic_ostream const*, unsigned long)
PUBLIC 7478 0 std::__ndk1::__pad_and_output[abi:ne180000]<char, std::__ndk1::char_traits<char> >(std::__ndk1::char_traits<char>, std::__ndk1::ostreambuf_iterator const*, std::__ndk1::ostreambuf_iterator const, std::__ndk1::ostreambuf_iterator const, std::__ndk1::ios_base&, std::__ndk1::ostreambuf_iterator)
PUBLIC 7654 0 std::__ndk1::basic_stringbuf<char, std::__ndk1::char_traits<char>, std::__ndk1::allocator<char> >::str[abi:ne180000]() &&
PUBLIC 77cc 0 std::__ndk1::basic_stringbuf<char, std::__ndk1::char_traits<char>, std::__ndk1::allocator<char> >::__init_buf_ptrs[abi:ne180000]()
PUBLIC 7914 0 std::__ndk1::vector<std::__ndk1::basic_string<char, std::__ndk1::char_traits<char>, std::__ndk1::allocator<char> >, std::__ndk1::allocator<std::__ndk1::basic_string<char, std::__ndk1::char_traits<char>, std::__ndk1::allocator<char> > > >::__push_back_slow_path<std::__ndk1::basic_string<char, std::__ndk1::char_traits<char>, std::__ndk1::allocator<char> > const&>(std::__ndk1::basic_string<char, std::__ndk1::char_traits<char>, std::__ndk1::allocator<char> > const&)
PUBLIC 7b38 0 std::__ndk1::basic_string<char, std::__ndk1::char_traits<char>, std::__ndk1::allocator<char> >::__init_copy_ctor_external(char const*, unsigned long)
PUBLIC 7bb8 0 std::__ndk1::__split_buffer<std::__ndk1::basic_string<char, std::__ndk1::char_traits<char>, std::__ndk1::allocator<char> >, std::__ndk1::allocator<std::__ndk1::basic_string<char, std::__ndk1::char_traits<char>, std::__ndk1::allocator<char> > >&>::~__split_buffer()
PUBLIC 7c20 0 std::__ndk1::vector<std::__ndk1::basic_string<char, std::__ndk1::char_traits<char>, std::__ndk1::allocator<char> >, std::__ndk1::allocator<std::__ndk1::basic_string<char, std::__ndk1::char_traits<char>, std::__ndk1::allocator<char> > > >::__throw_length_error[abi:ne180000]() const
PUBLIC 7c34 0 std::__ndk1::__variant_detail::__visitation::__base::__dispatcher<(unsigned long)0>::__dispatch[abi:ne180000]<std::__ndk1::__variant_detail::__dtor<std::__ndk1::__variant_detail::__traits<geode::Hook*, std::__ndk1::basic_string<char, std::__ndk1::char_traits<char>, std::__ndk1::allocator<char> > >, (std::__ndk1::__variant_detail::_Trait)1>::__destroy[abi:ne180000]()::{lambda(auto:1&)#1}, std::__ndk1::__variant_detail::__base<(std::__ndk1::__variant_detail::__traits<geode::Hook*, std::__ndk1::basic_string<char, std::__ndk1::char_traits<char>, std::__ndk1::allocator<char> > >)1, geode::Hook, std::__ndk1::allocator<char> >&>(std::__ndk1::__variant_detail::__dtor<std::__ndk1::__variant_detail::__traits<geode::Hook*, std::__ndk1::basic_string<char, std::__ndk1::char_traits<char>, std::__ndk1::allocator<char> > >, (std::__ndk1::__variant_detail::_Trait)1>, std::__ndk1::__variant_detail::__base<(std::__ndk1::__variant_detail::__traits<geode::Hook*, std::__ndk1::basic_string<char, std::__ndk1::char_traits<char>, std::__ndk1::allocator<char> > >)1, geode::Hook, std::__ndk1::allocator<char> >&)
PUBLIC 7c38 0 std::__ndk1::__variant_detail::__visitation::__base::__dispatcher<(unsigned long)1>::__dispatch[abi:ne180000]<std::__ndk1::__variant_detail::__dtor<std::__ndk1::__variant_detail::__traits<geode::Hook*, std::__ndk1::basic_string<char, std::__ndk1::char_traits<char>, std::__ndk1::allocator<char> > >, (std::__ndk1::__variant_detail::_Trait)1>::__destroy[abi:ne180000]()::{lambda(auto:1&)#1}, std::__ndk1::__variant_detail::__base<(std::__ndk1::__variant_detail::__traits<geode::Hook*, std::__ndk1::basic_string<char, std::__ndk1::char_traits<char>, std::__ndk1::allocator<char> > >)1, geode::Hook, std::__ndk1::allocator<char> >&>(std::__ndk1::__variant_detail::__dtor<std::__ndk1::__variant_detail::__traits<geode::Hook*, std::__ndk1::basic_string<char, std::__ndk1::char_traits<char>, std::__ndk1::allocator<char> > >, (std::__ndk1::__variant_detail::_Trait)1>, std::__ndk1::__variant_detail::__base<(std::__ndk1::__variant_detail::__traits<geode::Hook*, std::__ndk1::basic_string<char, std::__ndk1::char_traits<char>, std::__ndk1::allocator<char> > >)1, geode::Hook, std::__ndk1::allocator<char> >&)
PUBLIC 7c4c 0 std::__ndk1::__tree<std::__ndk1::__value_type<std::__ndk1::basic_string<char, std::__ndk1::char_traits<char>, std::__ndk1::allocator<char> >, std::__ndk1::shared_ptr<geode::Hook> >, std::__ndk1::__map_value_compare<std::__ndk1::basic_string<char, std::__ndk1::char_traits<char>, std::__ndk1::allocator<char> >, std::__ndk1::__value_type<std::__ndk1::basic_string<char, std::__ndk1::char_traits<char>, std::__ndk1::allocator<char> >, std::__ndk1::shared_ptr<geode::Hook> >, std::__ndk1::less<std::__ndk1::basic_string<char, std::__ndk1::char_traits<char>, std::__ndk1::allocator<char> > >, true>, std::__ndk1::allocator<std::__ndk1::__value_type<std::__ndk1::basic_string<char, std::__ndk1::char_traits<char>, std::__ndk1::allocator<char> >, std::__ndk1::shared_ptr<geode::Hook> > > >::find<std::__ndk1::basic_string<char, std::__ndk1::char_traits<char>, std::__ndk1::allocator<char> > >(std::__ndk1::basic_string<char, std::__ndk1::char_traits<char>, std::__ndk1::allocator<char> > const&)
PUBLIC 7d6c 0 std::__ndk1::__tree<std::__ndk1::__value_type<std::__ndk1::basic_string<char, std::__ndk1::char_traits<char>, std::__ndk1::allocator<char> >, std::__ndk1::shared_ptr<geode::Hook> >, std::__ndk1::__map_value_compare<std::__ndk1::basic_string<char, std::__ndk1::char_traits<char>, std::__ndk1::allocator<char> >, std::__ndk1::__value_type<std::__ndk1::basic_string<char, std::__ndk1::char_traits<char>, std::__ndk1::allocator<char> >, std::__ndk1::shared_ptr<geode::Hook> >, std::__ndk1::less<std::__ndk1::basic_string<char, std::__ndk1::char_traits<char>, std::__ndk1::allocator<char> > >, true>, std::__ndk1::allocator<std::__ndk1::__value_type<std::__ndk1::basic_string<char, std::__ndk1::char_traits<char>, std::__ndk1::allocator<char> >, std::__ndk1::shared_ptr<geode::Hook> > > >::erase(std::__ndk1::__tree_const_iterator<std::__ndk1::__value_type<std::__ndk1::basic_string<char, std::__ndk1::char_traits<char>, std::__ndk1::allocator<char> >, std::__ndk1::shared_ptr<geode::Hook> >, std::__ndk1::__tree_node<std::__ndk1::__value_type<std::__ndk1::basic_string<char, std::__ndk1::char_traits<char>, std::__ndk1::allocator<char> >, std::__ndk1::shared_ptr<geode::Hook> >, void*>*, long>)
PUBLIC 8210 0 std::__ndk1::__tree<std::__ndk1::__value_type<std::__ndk1::basic_string<char, std::__ndk1::char_traits<char>, std::__ndk1::allocator<char> >, std::__ndk1::shared_ptr<geode::Hook> >, std::__ndk1::__map_value_compare<std::__ndk1::basic_string<char, std::__ndk1::char_traits<char>, std::__ndk1::allocator<char> >, std::__ndk1::__value_type<std::__ndk1::basic_string<char, std::__ndk1::char_traits<char>, std::__ndk1::allocator<char> >, std::__ndk1::shared_ptr<geode::Hook> >, std::__ndk1::less<std::__ndk1::basic_string<char, std::__ndk1::char_traits<char>, std::__ndk1::allocator<char> > >, true>, std::__ndk1::allocator<std::__ndk1::__value_type<std::__ndk1::basic_string<char, std::__ndk1::char_traits<char>, std::__ndk1::allocator<char> >, std::__ndk1::shared_ptr<geode::Hook> > > >::destroy(std::__ndk1::__tree_node<std::__ndk1::__value_type<std::__ndk1::basic_string<char, std::__ndk1::char_traits<char>, std::__ndk1::allocator<char> >, std::__ndk1::shared_ptr<geode::Hook> >, void*>*)
PUBLIC 8294 0 geode::modifier::AsStaticFunction_init<RewardsPageButAds, bool (RewardsPageButAds::*)()>::Impl<bool (RewardsPageButAds::*)()>::function(RewardsPageButAds*)
PUBLIC 8618 0 geode::addresser::Addresser::addressOfVirtual<bool, RewardsPage, >(bool (RewardsPage::*)())
PUBLIC 86c0 0 RewardsPage::RewardsPage(geode::ZeroConstructorType)
PUBLIC 8754 0 std::__ndk1::shared_ptr<tulip::hook::CallingConvention>::~shared_ptr[abi:ne180000]()
PUBLIC 87a4 0 tulip::hook::HandlerMetadata::~HandlerMetadata()
PUBLIC 8808 0 std::__ndk1::vector<tulip::hook::AbstractType, std::__ndk1::allocator<tulip::hook::AbstractType> >::__throw_length_error[abi:ne180000]() const
PUBLIC 881c 0 RewardsPageButAds::onAdChest(cocos2d::CCObject*)
PUBLIC 8b14 0 cocos2d::CCSequence::create(cocos2d::CCFiniteTimeAction*, ...)
PUBLIC 8bac 0 geode::cast::traverseTypeinfoFor(void*, geode::cast::ClassTypeinfoType const*, char const*)
PUBLIC 8ca4 0 std::__ndk1::__tree<std::__ndk1::__value_type<std::__ndk1::basic_string<char, std::__ndk1::char_traits<char>, std::__ndk1::allocator<char> >, std::__ndk1::shared_ptr<geode::Hook> >, std::__ndk1::__map_value_compare<std::__ndk1::basic_string<char, std::__ndk1::char_traits<char>, std::__ndk1::allocator<char> >, std::__ndk1::__value_type<std::__ndk1::basic_string<char, std::__ndk1::char_traits<char>, std::__ndk1::allocator<char> >, std::__ndk1::shared_ptr<geode::Hook> >, std::__ndk1::less<std::__ndk1::basic_string<char, std::__ndk1::char_traits<char>, std::__ndk1::allocator<char> > >, true>, std::__ndk1::allocator<std::__ndk1::__value_type<std::__ndk1::basic_string<char, std::__ndk1::char_traits<char>, std::__ndk1::allocator<char> >, std::__ndk1::shared_ptr<geode::Hook> > > >::__emplace_unique_key_args<std::__ndk1::basic_string<char, std::__ndk1::char_traits<char>, std::__ndk1::allocator<char> >, std::__ndk1::piecewise_construct_t const&, std::__ndk1::tuple<std::__ndk1::basic_string<char, std::__ndk1::char_traits<char>, std::__ndk1::allocator<char> >&&>, std::__ndk1::tuple<> >(std::__ndk1::basic_string<char, std::__ndk1::char_traits<char>, std::__ndk1::allocator<char> > const&, std::__ndk1::piecewise_construct_t const&, std::__ndk1::tuple<std::__ndk1::basic_string<char, std::__ndk1::char_traits<char>, std::__ndk1::allocator<char> >&&>, std::__ndk1::tuple<>)
PUBLIC 8e0c 0 std::__ndk1::__tree_balance_after_insert[abi:ne180000]<std::__ndk1::__tree_node_base<void*>*>(std::__ndk1::__tree_node_base<void*>*, std::__ndk1::__tree_node_base<void*>*)
PUBLIC 8fbc 0 geode::modifier::ModifyDerive<GarageButSupporter, GJGarageLayer>::apply()
PUBLIC 936c 0 geode::modifier::ModifyBase<geode::modifier::ModifyDerive<GarageButSupporter, GJGarageLayer> >::apply()
PUBLIC 9370 0 geode::modifier::AsStaticFunction_showUnlockPopup<GarageButSupporter, void (GarageButSupporter::*)(int, UnlockType)>::Impl<void (GarageButSupporter::*)(int, UnlockType)>::function(GarageButSupporter*, int, UnlockType)
PUBLIC 9630 0 geode::addresser::Addresser::addressOfVirtual<void, GJGarageLayer, int, UnlockType>(void (GJGarageLayer::*)(int, UnlockType))
PUBLIC 96d8 0 GJGarageLayer::GJGarageLayer(geode::ZeroConstructorType)
PUBLIC 978c 0 geode::modifier::FieldIntermediate<GarageButSupporter, GJGarageLayer>::self()
PUBLIC 9dd4 0 geode::modifier::FieldIntermediate<GarageButSupporter, GJGarageLayer>::fieldDestructor(void*)
PUBLIC 9dd8 0 std::__ndk1::vector<void*, std::__ndk1::allocator<void*> >::__throw_length_error[abi:ne180000]() const
PUBLIC 9dec 0 std::__ndk1::vector<std::__ndk1::function<void (void*)>, std::__ndk1::allocator<std::__ndk1::function<void (void*)> > >::__throw_length_error[abi:ne180000]() const
PUBLIC 9e00 0 std::__ndk1::vector<void*, std::__ndk1::allocator<void*> >::__throw_out_of_range[abi:ne180000]() const
PUBLIC 9e14 0 std::__ndk1::vector<std::__ndk1::function<void (void*)>, std::__ndk1::allocator<std::__ndk1::function<void (void*)> > >::__throw_out_of_range[abi:ne180000]() const
PUBLIC 9e28 0 std::__ndk1::__function::__base<void (void*)>::~__base()
PUBLIC 9e2c 0 std::__ndk1::__function::__func<void (*)(void*), std::__ndk1::allocator<void (*)(void*)>, void (void*)>::~__func()
PUBLIC 9e30 0 std::__ndk1::__function::__func<void (*)(void*), std::__ndk1::allocator<void (*)(void*)>, void (void*)>::__clone() const
PUBLIC 9e68 0 std::__ndk1::__function::__func<void (*)(void*), std::__ndk1::allocator<void (*)(void*)>, void (void*)>::__clone(std::__ndk1::__function::__base<void (void*)>*) const
PUBLIC 9e80 0 std::__ndk1::__function::__func<void (*)(void*), std::__ndk1::allocator<void (*)(void*)>, void (void*)>::destroy()
PUBLIC 9e84 0 std::__ndk1::__function::__func<void (*)(void*), std::__ndk1::allocator<void (*)(void*)>, void (void*)>::destroy_deallocate()
PUBLIC 9e88 0 std::__ndk1::__function::__func<void (*)(void*), std::__ndk1::allocator<void (*)(void*)>, void (void*)>::operator()(void*&&)
PUBLIC 9e98 0 std::__ndk1::__function::__func<void (*)(void*), std::__ndk1::allocator<void (*)(void*)>, void (void*)>::target(std::type_info const&) const
PUBLIC 9eb4 0 std::__ndk1::__function::__func<void (*)(void*), std::__ndk1::allocator<void (*)(void*)>, void (void*)>::target_type() const
PUBLIC 9ec0 0 GarageButSupporter::Fields::dialogClosed(DialogLayer*)
PUBLIC m 9fdc 0 geodeImplicitEntry
PUBLIC a018 0 wrapFunction(unsigned long, tulip::hook::WrapperMetadata const&)
PUBLIC a14c 0 geode::impl::ResultData<void*, std::__ndk1::basic_string<char, std::__ndk1::char_traits<char>, std::__ndk1::allocator<char> > >::unwrapErr() &
PUBLIC a1c4 0 geode::impl::ResultData<void*, std::__ndk1::basic_string<char, std::__ndk1::char_traits<char>, std::__ndk1::allocator<char> > >::~ResultData()
PUBLIC a238 0 tulip::hook::WrapperMetadata::~WrapperMetadata()
PUBLIC a29c 0 CCSpriteGrayscale::createWithSpriteFrameName(gd::string const&)
PUBLIC a400 0 DialogObject::create(gd::string, gd::string, int, float, bool, cocos2d::_ccColor3B)
PUBLIC a5d4 0 tulip::hook::AbstractFunction::from<DialogObject*, gd::string, gd::string, int, float, bool, cocos2d::_ccColor3B>(DialogObject* (*)(gd::string, gd::string, int, float, bool, cocos2d::_ccColor3B))
PUBLIC aa94 0 FMODAudioEngine::playEffect(gd::string)
PUBLIC ac0c 0 tulip::hook::AbstractFunction::from<void, FMODAudioEngine*, gd::string>(void (*)(FMODAudioEngine*, gd::string))
PUBLIC acb0 0 tulip::hook::AbstractFunction::from<bool, GameStatsManager*, gd::string>(bool (*)(GameStatsManager*, gd::string))
PUBLIC ad54 0 GameStatsManager::isSpecialChestUnlocked(gd::string)
PUBLIC aed4 0 GameStatsManager::unlockSpecialChest(gd::string)
PUBLIC b054 0 tulip::hook::AbstractFunction::from<GJRewardItem*, GameStatsManager*, gd::string>(GJRewardItem* (*)(GameStatsManager*, gd::string))
PUBLIC b100 0 _ZN5geode15UnwrapExceptionC2IRPvQsr4implE18IsStringStreamableIT_EEENS_4impl5OkTagEOS4_
PUBLIC b254 0 _ZN5geode15UnwrapExceptionC2IRNSt6__ndk112basic_stringIcNS2_11char_traitsIcEENS2_9allocatorIcEEEEQsr4implE18IsStringStreamableIT_EEENS_4impl6ErrTagEOSA_
PUBLIC b3bc 0 std::__ndk1::__variant_detail::__visitation::__base::__dispatcher<(unsigned long)0>::__dispatch[abi:ne180000]<std::__ndk1::__variant_detail::__dtor<std::__ndk1::__variant_detail::__traits<void*, std::__ndk1::basic_string<char, std::__ndk1::char_traits<char>, std::__ndk1::allocator<char> > >, (std::__ndk1::__variant_detail::_Trait)1>::__destroy[abi:ne180000]()::{lambda(auto:1&)#1}, std::__ndk1::__variant_detail::__base<(std::__ndk1::__variant_detail::__traits<void*, std::__ndk1::basic_string<char, std::__ndk1::char_traits<char>, std::__ndk1::allocator<char> > >)1, std::__ndk1::__variant_detail::__traits, std::__ndk1::allocator<char> >&>(std::__ndk1::__variant_detail::__dtor<std::__ndk1::__variant_detail::__traits<void*, std::__ndk1::basic_string<char, std::__ndk1::char_traits<char>, std::__ndk1::allocator<char> > >, (std::__ndk1::__variant_detail::_Trait)1>, std::__ndk1::__variant_detail::__base<(std::__ndk1::__variant_detail::__traits<void*, std::__ndk1::basic_string<char, std::__ndk1::char_traits<char>, std::__ndk1::allocator<char> > >)1, std::__ndk1::__variant_detail::__traits, std::__ndk1::allocator<char> >&)
PUBLIC b3c0 0 std::__ndk1::__variant_detail::__visitation::__base::__dispatcher<(unsigned long)1>::__dispatch[abi:ne180000]<std::__ndk1::__variant_detail::__dtor<std::__ndk1::__variant_detail::__traits<void*, std::__ndk1::basic_string<char, std::__ndk1::char_traits<char>, std::__ndk1::allocator<char> > >, (std::__ndk1::__variant_detail::_Trait)1>::__destroy[abi:ne180000]()::{lambda(auto:1&)#1}, std::__ndk1::__variant_detail::__base<(std::__ndk1::__variant_detail::__traits<void*, std::__ndk1::basic_string<char, std::__ndk1::char_traits<char>, std::__ndk1::allocator<char> > >)1, std::__ndk1::__variant_detail::__traits, std::__ndk1::allocator<char> >&>(std::__ndk1::__variant_detail::__dtor<std::__ndk1::__variant_detail::__traits<void*, std::__ndk1::basic_string<char, std::__ndk1::char_traits<char>, std::__ndk1::allocator<char> > >, (std::__ndk1::__variant_detail::_Trait)1>, std::__ndk1::__variant_detail::__base<(std::__ndk1::__variant_detail::__traits<void*, std::__ndk1::basic_string<char, std::__ndk1::char_traits<char>, std::__ndk1::allocator<char> > >)1, std::__ndk1::__variant_detail::__traits, std::__ndk1::allocator<char> >&)
PUBLIC b3e0 0 <.plt ELF section in colon.lite_ad_chests.android64.so>
STACK CFI INIT 57e0 10 .cfa: sp 0 +
STACK CFI INIT 57f0 8 .cfa: sp 0 +
STACK CFI INIT 57f8 8 .cfa: sp 0 +
STACK CFI INIT 5800 14 .cfa: sp 0 +
STACK CFI INIT 5814 1c .cfa: sp 0 +
STACK CFI INIT 5830 10 .cfa: sp 0 +
STACK CFI INIT 5840 30 .cfa: sp 0 +
STACK CFI INIT 5870 98 .cfa: sp 0 +
STACK CFI INIT 5908 59c .cfa: sp 0 +
STACK CFI INIT 5ea4 8c .cfa: sp 0 +
STACK CFI INIT 5f30 30 .cfa: sp 0 +
STACK CFI INIT 6534 18 .cfa: sp 0 +
STACK CFI INIT 69d0 18 .cfa: sp 0 +
STACK CFI INIT 6a38 30 .cfa: sp 0 +
STACK CFI 6a3c .cfa: sp 32 +
STACK CFI 6a44 .cfa: x29 32 + x19: .cfa -16 + ^ .ra: .cfa -24 + ^ x29: .cfa -32 + ^
STACK CFI 6a5c .cfa: sp 32 +
STACK CFI 6a64 .cfa: sp 0 +
STACK CFI INIT 6a68 10 .cfa: sp 0 +
STACK CFI 6a6c .cfa: sp 16 +
STACK CFI 6a70 .cfa: x29 16 + .ra: .cfa -8 + ^ x29: .cfa -16 + ^
STACK CFI INIT 6a78 14 .cfa: sp 0 +
STACK CFI 6a7c .cfa: sp 16 +
STACK CFI 6a80 .cfa: x29 16 + .ra: .cfa -8 + ^ x29: .cfa -16 + ^
STACK CFI INIT 6adc 30 .cfa: sp 0 +
STACK CFI 6ae0 .cfa: sp 32 +
STACK CFI 6ae8 .cfa: x29 32 + x19: .cfa -16 + ^ .ra: .cfa -24 + ^ x29: .cfa -32 + ^
STACK CFI 6b00 .cfa: sp 32 +
STACK CFI 6b08 .cfa: sp 0 +
STACK CFI INIT 6b0c 34 .cfa: sp 0 +
STACK CFI 6b10 .cfa: sp 32 +
STACK CFI 6b18 .cfa: x29 32 + x19: .cfa -16 + ^ .ra: .cfa -24 + ^ x29: .cfa -32 + ^
STACK CFI INIT 6e38 50 .cfa: sp 0 +
STACK CFI 6e3c .cfa: sp 32 +
STACK CFI 6e44 .cfa: x29 32 + x19: .cfa -16 + ^ .ra: .cfa -24 + ^ x29: .cfa -32 + ^
STACK CFI 6e5c .cfa: sp 32 +
STACK CFI 6e64 .cfa: sp 0 +
STACK CFI 6e68 .cfa: x29 32 +
STACK CFI 6e7c .cfa: sp 32 +
STACK CFI 6e84 .cfa: sp 0 +
STACK CFI INIT 6efc 7c .cfa: sp 0 +
STACK CFI 6f00 .cfa: sp 48 +
STACK CFI 6f0c .cfa: x29 48 + x19: .cfa -8 + ^ x20: .cfa -16 + ^ x21: .cfa -32 + ^ .ra: .cfa -40 + ^ x29: .cfa -48 + ^
STACK CFI 6f58 .cfa: sp 48 +
STACK CFI 6f64 .cfa: sp 0 +
STACK CFI 6f68 .cfa: sp 48 +
STACK CFI 6f74 .cfa: sp 0 +
STACK CFI INIT 6f78 4 .cfa: sp 0 +
STACK CFI INIT 70d0 34 .cfa: sp 0 +
STACK CFI 70d4 .cfa: sp 16 +
STACK CFI 70d8 .cfa: x29 16 + .ra: .cfa -8 + ^ x29: .cfa -16 + ^
STACK CFI INIT 7230 80 .cfa: sp 0 +
STACK CFI 7234 .cfa: sp 48 +
STACK CFI 7240 .cfa: x29 48 + x19: .cfa -8 + ^ x20: .cfa -16 + ^ x21: .cfa -32 + ^ .ra: .cfa -40 + ^ x29: .cfa -48 + ^
STACK CFI 72a0 .cfa: sp 48 +
STACK CFI 72ac .cfa: sp 0 +
STACK CFI INIT 72b0 24 .cfa: sp 0 +
STACK CFI 72b4 .cfa: sp 32 +
STACK CFI 72bc .cfa: x29 32 + x19: .cfa -16 + ^ .ra: .cfa -24 + ^ x29: .cfa -32 + ^
STACK CFI 72c8 .cfa: sp 32 +
STACK CFI 72d0 .cfa: sp 0 +
STACK CFI INIT 77cc 148 .cfa: sp 0 +
STACK CFI 77d0 .cfa: sp 48 +
STACK CFI 77dc .cfa: x29 48 + x19: .cfa -8 + ^ x20: .cfa -16 + ^ x21: .cfa -32 + ^ .ra: .cfa -40 + ^ x29: .cfa -48 + ^
STACK CFI 7904 .cfa: sp 48 +
STACK CFI 7910 .cfa: sp 0 +
STACK CFI INIT 7b38 80 .cfa: sp 0 +
STACK CFI 7b3c .cfa: sp 48 +
STACK CFI 7b48 .cfa: x29 48 + x19: .cfa -8 + ^ x20: .cfa -16 + ^ x21: .cfa -24 + ^ x22: .cfa -32 + ^ .ra: .cfa -40 + ^ x29: .cfa -48 + ^
STACK CFI 7b60 .cfa: sp 48 +
STACK CFI 7b6c .cfa: sp 0 +
STACK CFI 7b70 .cfa: x29 48 +
STACK CFI 7ba0 .cfa: sp 48 +
STACK CFI 7bac .cfa: sp 0 +
STACK CFI 7bb0 .cfa: x29 48 +
STACK CFI INIT 7bb8 68 .cfa: sp 0 +
STACK CFI 7bbc .cfa: sp 32 +
STACK CFI 7bc4 .cfa: x29 32 + x19: .cfa -8 + ^ x20: .cfa -16 + ^ .ra: .cfa -24 + ^ x29: .cfa -32 + ^
STACK CFI 7bdc .cfa: sp 32 +
STACK CFI 7be4 .cfa: sp 0 +
STACK CFI 7be8 .cfa: x29 32 +
STACK CFI 7c14 .cfa: sp 32 +
STACK CFI 7c1c .cfa: sp 0 +
STACK CFI INIT 7c20 14 .cfa: sp 0 +
STACK CFI 7c24 .cfa: sp 16 +
STACK CFI 7c28 .cfa: x29 16 + .ra: .cfa -8 + ^ x29: .cfa -16 + ^
STACK CFI INIT 7c34 4 .cfa: sp 0 +
STACK CFI INIT 7c38 14 .cfa: sp 0 +
STACK CFI INIT 7c4c 120 .cfa: sp 0 +
STACK CFI 7c50 .cfa: sp 64 +
STACK CFI 7c60 .cfa: x29 64 + x19: .cfa -8 + ^ x20: .cfa -16 + ^ x21: .cfa -24 + ^ x22: .cfa -32 + ^ x23: .cfa -40 + ^ x24: .cfa -48 + ^ .ra: .cfa -56 + ^ x29: .cfa -64 + ^
STACK CFI 7d58 .cfa: sp 64 +
STACK CFI 7d68 .cfa: sp 0 +
STACK CFI INIT 7d6c 4a4 .cfa: sp 0 +
STACK CFI 7d70 .cfa: sp 32 +
STACK CFI 7d78 .cfa: x29 32 + x19: .cfa -8 + ^ x20: .cfa -16 + ^ .ra: .cfa -24 + ^ x29: .cfa -32 + ^
STACK CFI 8158 .cfa: sp 32 +
STACK CFI 8160 .cfa: sp 0 +
STACK CFI 8164 .cfa: x29 32 +
STACK CFI INIT 8210 84 .cfa: sp 0 +
STACK CFI 8218 .cfa: sp 32 +
STACK CFI 8220 .cfa: x29 32 + x19: .cfa -8 + ^ x20: .cfa -16 + ^ .ra: .cfa -24 + ^ x29: .cfa -32 + ^
STACK CFI 8260 .cfa: sp 32 +
STACK CFI 8268 .cfa: sp 0 +
STACK CFI 8270 .cfa: x29 32 +
STACK CFI INIT 86c0 94 .cfa: sp 0 +
STACK CFI 86c4 .cfa: sp 32 +
STACK CFI 86cc .cfa: x29 32 + x19: .cfa -16 + ^ .ra: .cfa -24 + ^ x29: .cfa -32 + ^
STACK CFI 8748 .cfa: sp 32 +
STACK CFI 8750 .cfa: sp 0 +
STACK CFI INIT 8754 50 .cfa: sp 0 +
STACK CFI 8758 .cfa: sp 32 +
STACK CFI 8760 .cfa: x29 32 + x19: .cfa -16 + ^ .ra: .cfa -24 + ^ x29: .cfa -32 + ^
STACK CFI 8778 .cfa: sp 32 +
STACK CFI 8780 .cfa: sp 0 +
STACK CFI 8784 .cfa: x29 32 +
STACK CFI 8798 .cfa: sp 32 +
STACK CFI 87a0 .cfa: sp 0 +
STACK CFI INIT 87a4 64 .cfa: sp 0 +
STACK CFI 87a8 .cfa: sp 32 +
STACK CFI 87b0 .cfa: x29 32 + x19: .cfa -16 + ^ .ra: .cfa -24 + ^ x29: .cfa -32 + ^
STACK CFI 87dc .cfa: sp 32 +
STACK CFI 87e4 .cfa: sp 0 +
STACK CFI 87e8 .cfa: x29 32 +
STACK CFI 87fc .cfa: sp 32 +
STACK CFI 8804 .cfa: sp 0 +
STACK CFI INIT 8808 14 .cfa: sp 0 +
STACK CFI 880c .cfa: sp 16 +
STACK CFI 8810 .cfa: x29 16 + .ra: .cfa -8 + ^ x29: .cfa -16 + ^
STACK CFI INIT 8b14 98 .cfa: sp 0 +
STACK CFI 8b18 .cfa: sp 304 +
STACK CFI 8b24 .cfa: x29 32 + x19: .cfa -8 + ^ x28: .cfa -16 + ^ .ra: .cfa -24 + ^ x29: .cfa -32 + ^
STACK CFI 8b98 .cfa: sp 304 +
STACK CFI 8ba4 .cfa: sp 0 +
STACK CFI 8ba8 .cfa: x29 32 +
STACK CFI INIT 8bac f8 .cfa: sp 0 +
STACK CFI 8bb0 .cfa: sp 64 +
STACK CFI 8bc0 .cfa: x29 64 + x19: .cfa -8 + ^ x20: .cfa -16 + ^ x21: .cfa -24 + ^ x22: .cfa -32 + ^ x23: .cfa -48 + ^ .ra: .cfa -56 + ^ x29: .cfa -64 + ^
STACK CFI 8c1c .cfa: sp 64 +
STACK CFI 8c2c .cfa: sp 0 +
STACK CFI 8c30 .cfa: x29 64 +
STACK CFI 8c4c .cfa: sp 64 +
STACK CFI 8c5c .cfa: sp 0 +
STACK CFI 8c60 .cfa: x29 64 +
STACK CFI 8c90 .cfa: sp 64 +
STACK CFI 8ca0 .cfa: sp 0 +
STACK CFI INIT 8ca4 168 .cfa: sp 0 +
STACK CFI 8ca8 .cfa: sp 80 +
STACK CFI 8cbc .cfa: x29 80 + x19: .cfa -8 + ^ x20: .cfa -16 + ^ x21: .cfa -24 + ^ x22: .cfa -32 + ^ x23: .cfa -40 + ^ x24: .cfa -48 + ^ x25: .cfa -56 + ^ x26: .cfa -64 + ^ .ra: .cfa -72 + ^ x29: .cfa -80 + ^
STACK CFI 8df4 .cfa: sp 80 +
STACK CFI 8e08 .cfa: sp 0 +
STACK CFI INIT 8e0c 1b0 .cfa: sp 0 +
STACK CFI INIT 936c 4 .cfa: sp 0 +
STACK CFI INIT 96d8 b4 .cfa: sp 0 +
STACK CFI 96dc .cfa: sp 32 +
STACK CFI 96e4 .cfa: x29 32 + x19: .cfa -16 + ^ .ra: .cfa -24 + ^ x29: .cfa -32 + ^
STACK CFI 9780 .cfa: sp 32 +
STACK CFI 9788 .cfa: sp 0 +
STACK CFI INIT 9dd4 4 .cfa: sp 0 +
STACK CFI INIT 9dd8 14 .cfa: sp 0 +
STACK CFI 9ddc .cfa: sp 16 +
STACK CFI 9de0 .cfa: x29 16 + .ra: .cfa -8 + ^ x29: .cfa -16 + ^
STACK CFI INIT 9dec 14 .cfa: sp 0 +
STACK CFI 9df0 .cfa: sp 16 +
STACK CFI 9df4 .cfa: x29 16 + .ra: .cfa -8 + ^ x29: .cfa -16 + ^
STACK CFI INIT 9e00 14 .cfa: sp 0 +
STACK CFI 9e04 .cfa: sp 16 +
STACK CFI 9e08 .cfa: x29 16 + .ra: .cfa -8 + ^ x29: .cfa -16 + ^
STACK CFI INIT 9e14 14 .cfa: sp 0 +
STACK CFI 9e18 .cfa: sp 16 +
STACK CFI 9e1c .cfa: x29 16 + .ra: .cfa -8 + ^ x29: .cfa -16 + ^
STACK CFI INIT 9e28 4 .cfa: sp 0 +
STACK CFI INIT 9e2c 4 .cfa: sp 0 +
STACK CFI INIT 9e30 38 .cfa: sp 0 +
STACK CFI 9e34 .cfa: sp 32 +
STACK CFI 9e3c .cfa: x29 32 + x19: .cfa -16 + ^ .ra: .cfa -24 + ^ x29: .cfa -32 + ^
STACK CFI 9e5c .cfa: sp 32 +
STACK CFI 9e64 .cfa: sp 0 +
STACK CFI INIT 9e68 18 .cfa: sp 0 +
STACK CFI INIT 9e80 4 .cfa: sp 0 +
STACK CFI INIT 9e84 4 .cfa: sp 0 +
STACK CFI INIT 9e88 10 .cfa: sp 0 +
STACK CFI INIT 9e98 1c .cfa: sp 0 +
STACK CFI INIT 9eb4 c .cfa: sp 0 +
STACK CFI INIT 9ec0 11c .cfa: sp 0 +
STACK CFI 9ec4 .cfa: sp 96 +
STACK CFI 9ed8 .cfa: x29 40 + x19: .cfa -8 + ^ x20: .cfa -16 + ^ x21: .cfa -24 + ^ .ra: .cfa -32 + ^ x29: .cfa -40 + ^ v8: .cfa -48 + ^
STACK CFI 9fc0 .cfa: sp 96 +
STACK CFI 9fd4 .cfa: sp 0 +
STACK CFI 9fd8 .cfa: x29 40 +
STACK CFI INIT 9fdc 3c .cfa: sp 0 +
STACK CFI 9fe0 .cfa: sp 32 +
STACK CFI 9fe8 .cfa: x29 32 + x19: .cfa -16 + ^ .ra: .cfa -24 + ^ x29: .cfa -32 + ^
STACK CFI 9ff4 .cfa: sp 32 +
STACK CFI 9ffc .cfa: sp 0 +
STACK CFI a000 .cfa: x29 32 +
STACK CFI a00c .cfa: sp 32 +
STACK CFI a014 .cfa: sp 0 +
STACK CFI INIT a238 64 .cfa: sp 0 +
STACK CFI a23c .cfa: sp 32 +
STACK CFI a244 .cfa: x29 32 + x19: .cfa -16 + ^ .ra: .cfa -24 + ^ x29: .cfa -32 + ^
STACK CFI a270 .cfa: sp 32 +
STACK CFI a278 .cfa: sp 0 +
STACK CFI a27c .cfa: x29 32 +
STACK CFI a290 .cfa: sp 32 +
STACK CFI a298 .cfa: sp 0 +
STACK CFI INIT b3bc 4 .cfa: sp 0 +
STACK CFI INIT b3c0 14 .cfa: sp 0 +
STACK CFI INIT 5f60 150 .cfa: sp 0 +
STACK CFI 5f64 .cfa: sp 112 +
STACK CFI 5f78 .cfa: x29 64 + x19: .cfa -8 + ^ x20: .cfa -16 + ^ x21: .cfa -24 + ^ x22: .cfa -32 + ^ x23: .cfa -48 + ^ .ra: .cfa -56 + ^ x29: .cfa -64 + ^
STACK CFI 6044 .cfa: sp 112 +
STACK CFI 6058 .cfa: sp 0 +
STACK CFI 605c .cfa: x29 64 +
STACK CFI INIT 60b0 484 .cfa: sp 0 +
STACK CFI 60b4 .cfa: sp 224 +
STACK CFI 60d0 .cfa: x29 96 + x19: .cfa -8 + ^ x20: .cfa -16 + ^ x21: .cfa -24 + ^ x22: .cfa -32 + ^ x23: .cfa -40 + ^ x24: .cfa -48 + ^ x25: .cfa -56 + ^ x26: .cfa -64 + ^ x27: .cfa -72 + ^ x28: .cfa -80 + ^ .ra: .cfa -88 + ^ x29: .cfa -96 + ^
STACK CFI 6340 .cfa: sp 224 +
STACK CFI 635c .cfa: sp 0 +
STACK CFI 6360 .cfa: x29 96 +
STACK CFI 642c .cfa: sp 224 +
STACK CFI 6448 .cfa: sp 0 +
STACK CFI 644c .cfa: x29 96 +
STACK CFI INIT 654c 484 .cfa: sp 0 +
STACK CFI 6550 .cfa: sp 224 +
STACK CFI 656c .cfa: x29 96 + x19: .cfa -8 + ^ x20: .cfa -16 + ^ x21: .cfa -24 + ^ x22: .cfa -32 + ^ x23: .cfa -40 + ^ x24: .cfa -48 + ^ x25: .cfa -56 + ^ x26: .cfa -64 + ^ x27: .cfa -72 + ^ x28: .cfa -80 + ^ .ra: .cfa -88 + ^ x29: .cfa -96 + ^
STACK CFI 67dc .cfa: sp 224 +
STACK CFI 67f8 .cfa: sp 0 +
STACK CFI 67fc .cfa: x29 96 +
STACK CFI 68c8 .cfa: sp 224 +
STACK CFI 68e4 .cfa: sp 0 +
STACK CFI 68e8 .cfa: x29 96 +
STACK CFI INIT 69e8 50 .cfa: sp 0 +
STACK CFI 69ec .cfa: sp 32 +
STACK CFI 69f4 .cfa: x29 32 + x19: .cfa -8 + ^ x20: .cfa -16 + ^ .ra: .cfa -24 + ^ x29: .cfa -32 + ^
STACK CFI INIT 6a8c 50 .cfa: sp 0 +
STACK CFI 6a90 .cfa: sp 32 +
STACK CFI 6a98 .cfa: x29 32 + x19: .cfa -8 + ^ x20: .cfa -16 + ^ .ra: .cfa -24 + ^ x29: .cfa -32 + ^
STACK CFI INIT 6b40 2f8 .cfa: sp 0 +
STACK CFI 6b44 .cfa: sp 192 +
STACK CFI 6b58 .cfa: x29 64 + x19: .cfa -8 + ^ x20: .cfa -16 + ^ x21: .cfa -24 + ^ x22: .cfa -32 + ^ x23: .cfa -48 + ^ .ra: .cfa -56 + ^ x29: .cfa -64 + ^
STACK CFI 6d30 .cfa: sp 192 +
STACK CFI 6d44 .cfa: sp 0 +
STACK CFI 6d48 .cfa: x29 64 +
STACK CFI INIT 6e88 74 .cfa: sp 0 +
STACK CFI 6e8c .cfa: sp 48 +
STACK CFI 6e98 .cfa: x29 32 + x19: .cfa -8 + ^ x20: .cfa -16 + ^ .ra: .cfa -24 + ^ x29: .cfa -32 + ^
STACK CFI 6ee4 .cfa: sp 48 +
STACK CFI 6ef0 .cfa: sp 0 +
STACK CFI 6ef4 .cfa: x29 32 +
STACK CFI INIT 6f7c 154 .cfa: sp 0 +
STACK CFI 6f80 .cfa: sp 384 +
STACK CFI 6f94 .cfa: x29 64 + x19: .cfa -8 + ^ x20: .cfa -16 + ^ x21: .cfa -24 + ^ x22: .cfa -32 + ^ x23: .cfa -40 + ^ x28: .cfa -48 + ^ .ra: .cfa -56 + ^ x29: .cfa -64 + ^
STACK CFI 7078 .cfa: sp 384 +
STACK CFI 708c .cfa: sp 0 +
STACK CFI 7090 .cfa: x29 64 +
STACK CFI INIT 7104 12c .cfa: sp 0 +
STACK CFI 7108 .cfa: sp 80 +
STACK CFI 711c .cfa: x29 80 + x19: .cfa -8 + ^ x20: .cfa -16 + ^ x21: .cfa -24 + ^ x22: .cfa -32 + ^ x23: .cfa -40 + ^ x24: .cfa -48 + ^ x25: .cfa -56 + ^ x26: .cfa -64 + ^ .ra: .cfa -72 + ^ x29: .cfa -80 + ^
STACK CFI 71e4 .cfa: sp 80 +
STACK CFI 71f8 .cfa: sp 0 +
STACK CFI 71fc .cfa: x29 80 +
STACK CFI INIT 72d4 1a4 .cfa: sp 0 +
STACK CFI 72d8 .cfa: sp 112 +
STACK CFI 72f0 .cfa: x29 80 + x19: .cfa -8 + ^ x20: .cfa -16 + ^ x21: .cfa -24 + ^ x22: .cfa -32 + ^ x23: .cfa -40 + ^ x24: .cfa -48 + ^ x25: .cfa -56 + ^ x26: .cfa -64 + ^ .ra: .cfa -72 + ^ x29: .cfa -80 + ^
STACK CFI 73e0 .cfa: sp 112 +
STACK CFI 73f8 .cfa: sp 0 +
STACK CFI 73fc .cfa: x29 80 +
STACK CFI INIT 7478 1dc .cfa: sp 0 +
STACK CFI 747c .cfa: sp 128 +
STACK CFI 7498 .cfa: x29 96 + x19: .cfa -8 + ^ x20: .cfa -16 + ^ x21: .cfa -24 + ^ x22: .cfa -32 + ^ x23: .cfa -40 + ^ x24: .cfa -48 + ^ x25: .cfa -56 + ^ x26: .cfa -64 + ^ x27: .cfa -80 + ^ .ra: .cfa -88 + ^ x29: .cfa -96 + ^
STACK CFI 7604 .cfa: sp 128 +
STACK CFI 7620 .cfa: sp 0 +
STACK CFI 7624 .cfa: x29 96 +
STACK CFI INIT 7654 178 .cfa: sp 0 +
STACK CFI 7658 .cfa: sp 80 +
STACK CFI 766c .cfa: x29 80 + x19: .cfa -8 + ^ x20: .cfa -16 + ^ x21: .cfa -24 + ^ x22: .cfa -32 + ^ x23: .cfa -40 + ^ x24: .cfa -48 + ^ x25: .cfa -64 + ^ .ra: .cfa -72 + ^ x29: .cfa -80 + ^
STACK CFI 7798 .cfa: sp 80 +
STACK CFI 77ac .cfa: sp 0 +
STACK CFI 77b0 .cfa: x29 80 +
STACK CFI INIT 7914 224 .cfa: sp 0 +
STACK CFI 7918 .cfa: sp 128 +
STACK CFI 7930 .cfa: x29 80 + x19: .cfa -8 + ^ x20: .cfa -16 + ^ x21: .cfa -24 + ^ x22: .cfa -32 + ^ x23: .cfa -40 + ^ x24: .cfa -48 + ^ x25: .cfa -64 + ^ .ra: .cfa -72 + ^ x29: .cfa -80 + ^
STACK CFI 7acc .cfa: sp 128 +
STACK CFI 7ae4 .cfa: sp 0 +
STACK CFI 7ae8 .cfa: x29 80 +
STACK CFI INIT 8294 384 .cfa: sp 0 +
STACK CFI 8298 .cfa: sp 128 +
STACK CFI 82b0 .cfa: x29 80 + x19: .cfa -8 + ^ x20: .cfa -16 + ^ x21: .cfa -24 + ^ x22: .cfa -32 + ^ x23: .cfa -40 + ^ x24: .cfa -48 + ^ x25: .cfa -64 + ^ .ra: .cfa -72 + ^ x29: .cfa -80 + ^
STACK CFI 8590 .cfa: sp 128 +
STACK CFI 85a8 .cfa: sp 0 +
STACK CFI 85ac .cfa: x29 80 +
STACK CFI INIT 8618 a8 .cfa: sp 0 +
STACK CFI 861c .cfa: sp 32 +
STACK CFI 8624 .cfa: x29 32 + x19: .cfa -16 + ^ .ra: .cfa -24 + ^ x29: .cfa -32 + ^
STACK CFI 8658 .cfa: sp 32 +
STACK CFI 8660 .cfa: sp 0 +
STACK CFI 8664 .cfa: x29 32 +
STACK CFI 8668 .cfa: sp 32 +
STACK CFI 8670 .cfa: sp 0 +
STACK CFI 8674 .cfa: x29 32 +
STACK CFI INIT 881c 2f8 .cfa: sp 0 +
STACK CFI 8820 .cfa: sp 144 +
STACK CFI 8830 .cfa: x29 48 + x19: .cfa -8 + ^ x20: .cfa -16 + ^ x21: .cfa -32 + ^ .ra: .cfa -40 + ^ x29: .cfa -48 + ^
STACK CFI 8a38 .cfa: sp 144 +
STACK CFI 8a48 .cfa: sp 0 +
STACK CFI 8a4c .cfa: x29 48 +
STACK CFI INIT 8fbc 3b0 .cfa: sp 0 +
STACK CFI 8fc0 .cfa: sp 256 +
STACK CFI 8fd4 .cfa: x29 64 + x19: .cfa -8 + ^ x20: .cfa -16 + ^ x21: .cfa -24 + ^ x22: .cfa -32 + ^ x23: .cfa -48 + ^ .ra: .cfa -56 + ^ x29: .cfa -64 + ^
STACK CFI 923c .cfa: sp 256 +
STACK CFI 9250 .cfa: sp 0 +
STACK CFI 9254 .cfa: x29 64 +
STACK CFI INIT 9370 2c0 .cfa: sp 0 +
STACK CFI 9374 .cfa: sp 128 +
STACK CFI 9384 .cfa: x29 48 + x19: .cfa -8 + ^ x20: .cfa -16 + ^ x21: .cfa -32 + ^ .ra: .cfa -40 + ^ x29: .cfa -48 + ^
STACK CFI 955c .cfa: sp 128 +
STACK CFI 956c .cfa: sp 0 +
STACK CFI 9570 .cfa: x29 48 +
STACK CFI 9588 .cfa: sp 128 +
STACK CFI 9598 .cfa: sp 0 +
STACK CFI 959c .cfa: x29 48 +
STACK CFI INIT 9630 a8 .cfa: sp 0 +
STACK CFI 9634 .cfa: sp 32 +
STACK CFI 963c .cfa: x29 32 + x19: .cfa -16 + ^ .ra: .cfa -24 + ^ x29: .cfa -32 + ^
STACK CFI 9670 .cfa: sp 32 +
STACK CFI 9678 .cfa: sp 0 +
STACK CFI 967c .cfa: x29 32 +
STACK CFI 9680 .cfa: sp 32 +
STACK CFI 9688 .cfa: sp 0 +
STACK CFI 968c .cfa: x29 32 +
STACK CFI INIT 978c 648 .cfa: sp 0 +
STACK CFI 9790 .cfa: sp 224 +
STACK CFI 97ac .cfa: x29 96 + x19: .cfa -8 + ^ x20: .cfa -16 + ^ x21: .cfa -24 + ^ x22: .cfa -32 + ^ x23: .cfa -40 + ^ x24: .cfa -48 + ^ x25: .cfa -56 + ^ x26: .cfa -64 + ^ x27: .cfa -72 + ^ x28: .cfa -80 + ^ .ra: .cfa -88 + ^ x29: .cfa -96 + ^
STACK CFI 9c64 .cfa: sp 224 +
STACK CFI 9c80 .cfa: sp 0 +
STACK CFI 9c84 .cfa: x29 96 +
STACK CFI INIT a018 134 .cfa: sp 0 +
STACK CFI a01c .cfa: sp 80 +
STACK CFI a028 .cfa: x29 32 + x19: .cfa -8 + ^ x20: .cfa -16 + ^ .ra: .cfa -24 + ^ x29: .cfa -32 + ^
STACK CFI a058 .cfa: sp 80 +
STACK CFI a064 .cfa: sp 0 +
STACK CFI a068 .cfa: x29 32 +
STACK CFI INIT a14c 78 .cfa: sp 0 +
STACK CFI a150 .cfa: sp 32 +
STACK CFI a158 .cfa: x29 32 + x19: .cfa -8 + ^ x20: .cfa -16 + ^ .ra: .cfa -24 + ^ x29: .cfa -32 + ^
STACK CFI a164 .cfa: sp 32 +
STACK CFI a16c .cfa: sp 0 +
STACK CFI a170 .cfa: x29 32 +
STACK CFI INIT a1c4 74 .cfa: sp 0 +
STACK CFI a1c8 .cfa: sp 48 +
STACK CFI a1d4 .cfa: x29 32 + x19: .cfa -8 + ^ x20: .cfa -16 + ^ .ra: .cfa -24 + ^ x29: .cfa -32 + ^
STACK CFI a220 .cfa: sp 48 +
STACK CFI a22c .cfa: sp 0 +
STACK CFI a230 .cfa: x29 32 +
STACK CFI INIT a29c 164 .cfa: sp 0 +
STACK CFI a2a0 .cfa: sp 128 +
STACK CFI a2ac .cfa: x29 32 + x19: .cfa -8 + ^ x20: .cfa -16 + ^ .ra: .cfa -24 + ^ x29: .cfa -32 + ^
STACK CFI a2ec .cfa: sp 128 +
STACK CFI a2f8 .cfa: sp 0 +
STACK CFI a2fc .cfa: x29 32 +
STACK CFI INIT a400 1d4 .cfa: sp 0 +
STACK CFI a404 .cfa: sp 176 +
STACK CFI a420 .cfa: x29 72 + x19: .cfa -8 + ^ x20: .cfa -16 + ^ x21: .cfa -24 + ^ x22: .cfa -32 + ^ x23: .cfa -40 + ^ x24: .cfa -48 + ^ x25: .cfa -56 + ^ .ra: .cfa -64 + ^ x29: .cfa -72 + ^ v8: .cfa -80 + ^
STACK CFI a4b8 .cfa: sp 176 +
STACK CFI a4d4 .cfa: sp 0 +
STACK CFI a4d8 .cfa: x29 72 +
STACK CFI INIT a5d4 4c0 .cfa: sp 0 +
STACK CFI a5d8 .cfa: sp 96 +
STACK CFI a5f0 .cfa: x29 80 + x19: .cfa -8 + ^ x20: .cfa -16 + ^ x21: .cfa -24 + ^ x22: .cfa -32 + ^ x23: .cfa -40 + ^ x24: .cfa -48 + ^ x25: .cfa -64 + ^ .ra: .cfa -72 + ^ x29: .cfa -80 + ^
STACK CFI aa10 .cfa: sp 96 +
STACK CFI aa28 .cfa: sp 0 +
STACK CFI aa2c .cfa: x29 80 +
STACK CFI INIT aa94 178 .cfa: sp 0 +
STACK CFI aa98 .cfa: sp 128 +
STACK CFI aaa8 .cfa: x29 48 + x19: .cfa -8 + ^ x20: .cfa -16 + ^ x21: .cfa -24 + ^ x22: .cfa -32 + ^ .ra: .cfa -40 + ^ x29: .cfa -48 + ^
STACK CFI ab04 .cfa: sp 128 +
STACK CFI ab14 .cfa: sp 0 +
STACK CFI ab18 .cfa: x29 48 +
STACK CFI INIT ac0c a4 .cfa: sp 0 +
STACK CFI ac10 .cfa: sp 48 +
STACK CFI ac1c .cfa: x29 48 + x19: .cfa -8 + ^ x20: .cfa -16 + ^ x21: .cfa -32 + ^ .ra: .cfa -40 + ^ x29: .cfa -48 + ^
STACK CFI ac88 .cfa: sp 48 +
STACK CFI ac94 .cfa: sp 0 +
STACK CFI ac98 .cfa: x29 48 +
STACK CFI INIT acb0 a4 .cfa: sp 0 +
STACK CFI acb4 .cfa: sp 48 +
STACK CFI acc0 .cfa: x29 48 + x19: .cfa -8 + ^ x20: .cfa -16 + ^ x21: .cfa -32 + ^ .ra: .cfa -40 + ^ x29: .cfa -48 + ^
STACK CFI ad2c .cfa: sp 48 +
STACK CFI ad38 .cfa: sp 0 +
STACK CFI ad3c .cfa: x29 48 +
STACK CFI INIT ad54 180 .cfa: sp 0 +
STACK CFI ad58 .cfa: sp 128 +
STACK CFI ad68 .cfa: x29 48 + x19: .cfa -8 + ^ x20: .cfa -16 + ^ x21: .cfa -24 + ^ x22: .cfa -32 + ^ .ra: .cfa -40 + ^ x29: .cfa -48 + ^
STACK CFI adcc .cfa: sp 128 +
STACK CFI addc .cfa: sp 0 +
STACK CFI ade0 .cfa: x29 48 +
STACK CFI INIT aed4 180 .cfa: sp 0 +
STACK CFI aed8 .cfa: sp 128 +
STACK CFI aee8 .cfa: x29 48 + x19: .cfa -8 + ^ x20: .cfa -16 + ^ x21: .cfa -24 + ^ x22: .cfa -32 + ^ .ra: .cfa -40 + ^ x29: .cfa -48 + ^
STACK CFI af4c .cfa: sp 128 +
STACK CFI af5c .cfa: sp 0 +
STACK CFI af60 .cfa: x29 48 +
STACK CFI INIT b054 ac .cfa: sp 0 +
STACK CFI b058 .cfa: sp 64 +
STACK CFI b068 .cfa: x29 48 + x19: .cfa -8 + ^ x20: .cfa -16 + ^ x21: .cfa -32 + ^ .ra: .cfa -40 + ^ x29: .cfa -48 + ^
STACK CFI b0d4 .cfa: sp 64 +
STACK CFI b0e4 .cfa: sp 0 +
STACK CFI b0e8 .cfa: x29 48 +
STACK CFI INIT b100 154 .cfa: sp 0 +
STACK CFI b104 .cfa: sp 384 +
STACK CFI b118 .cfa: x29 64 + x19: .cfa -8 + ^ x20: .cfa -16 + ^ x21: .cfa -24 + ^ x22: .cfa -32 + ^ x23: .cfa -40 + ^ x28: .cfa -48 + ^ .ra: .cfa -56 + ^ x29: .cfa -64 + ^
STACK CFI b1fc .cfa: sp 384 +
STACK CFI b210 .cfa: sp 0 +
STACK CFI b214 .cfa: x29 64 +
STACK CFI INIT b254 168 .cfa: sp 0 +
STACK CFI b258 .cfa: sp 384 +
STACK CFI b26c .cfa: x29 64 + x19: .cfa -8 + ^ x20: .cfa -16 + ^ x21: .cfa -24 + ^ x22: .cfa -32 + ^ x23: .cfa -40 + ^ x28: .cfa -48 + ^ .ra: .cfa -56 + ^ x29: .cfa -64 + ^
STACK CFI b364 .cfa: sp 384 +
STACK CFI b378 .cfa: sp 0 +
STACK CFI b37c .cfa: x29 64 +
