MODULE Linux arm64 38D0BCD644AD70D9088FC86A26CFC4310 nwo5.ruler.android64.so
INFO CODE_ID D6BCD038AD44D970088FC86A26CFC431D98F7F67
INFO GENERATOR mozilla/dump_syms 2.3.4
PUBLIC 4d90 0 __on_dlclose
PUBLIC 4da0 0 __emutls_unregister_key
PUBLIC 4da8 0 __on_dlclose_late
PUBLIC 4db0 0 __atexit_handler_wrapper
PUBLIC 4dc4 0 atexit
PUBLIC 4de0 0 pthread_atfork
PUBLIC 4df0 0 __aarch64_ldadd8_relax
PUBLIC 4e20 0 init_have_lse_atomics
PUBLIC 4eb8 0 __init_cpu_features_constructor
PUBLIC 5164 0 __init_cpu_features
PUBLIC 51f0 0 __aarch64_ldadd8_acq_rel
PUBLIC 5220 0 floatToFormatedNumber(float, int)
PUBLIC 557c 0 std::__ndk1::basic_stringstream<char, std::__ndk1::char_traits<char>, std::__ndk1::allocator<char> >::basic_stringstream[abi:ne190000]()
PUBLIC m 56b0 0 std::__ndk1::basic_stringstream<char, std::__ndk1::char_traits<char>, std::__ndk1::allocator<char> >::~basic_stringstream()
PUBLIC 5730 0 __cxx_global_var_init.2
PUBLIC 5ba4 0 geode::modifier::ModifyBase<geode::modifier::ModifyDerive<Editor, LevelEditorLayer> >::~ModifyBase()
PUBLIC 5bbc 0 __cxx_global_var_init.3
PUBLIC 6030 0 geode::modifier::ModifyBase<geode::modifier::ModifyDerive<EditUI, EditorUI> >::~ModifyBase()
PUBLIC 6048 0 __clang_call_terminate
PUBLIC 6058 0 std::__ndk1::basic_string<char, std::__ndk1::char_traits<char>, std::__ndk1::allocator<char> >::__throw_out_of_range[abi:ne190000]() const
PUBLIC 606c 0 std::__ndk1::basic_string<char, std::__ndk1::char_traits<char>, std::__ndk1::allocator<char> >::__erase_external_with_move(unsigned long, unsigned long)
PUBLIC 60f4 0 std::__ndk1::__throw_out_of_range[abi:ne190000](char const*)
PUBLIC 6144 0 std::out_of_range::out_of_range[abi:ne190000](char const*)
PUBLIC 6174 0 std::__ndk1::basic_string<char, std::__ndk1::char_traits<char>, std::__ndk1::allocator<char> >::__throw_length_error[abi:ne190000]() const
PUBLIC 6188 0 std::__ndk1::__throw_length_error[abi:ne190000](char const*)
PUBLIC 61d8 0 std::length_error::length_error[abi:ne190000](char const*)
PUBLIC 6208 0 std::__throw_bad_array_new_length([abi:ne190000], void)
PUBLIC 623c 0 geode::modifier::ModifyDerive<Editor, LevelEditorLayer>::apply()
PUBLIC 65bc 0 std::__ndk1::shared_ptr<geode::Hook>::~shared_ptr[abi:ne190000]()
PUBLIC 660c 0 geode::impl::ResultData<geode::Hook*, std::__ndk1::basic_string<char, std::__ndk1::char_traits<char>, std::__ndk1::allocator<char> > >::~ResultData()
PUBLIC 6680 0 std::__ndk1::vector<std::__ndk1::basic_string<char, std::__ndk1::char_traits<char>, std::__ndk1::allocator<char> >, std::__ndk1::allocator<std::__ndk1::basic_string<char, std::__ndk1::char_traits<char>, std::__ndk1::allocator<char> > > >::~vector[abi:ne190000]()
PUBLIC 66fc 0 geode::modifier::ModifyBase<geode::modifier::ModifyDerive<Editor, LevelEditorLayer> >::apply()
PUBLIC 6700 0 _ZN5geode15UnwrapExceptionC2IRPNS_4HookEQsr4implE18IsStringStreamableIT_EEENS_4impl5OkTagEOS5_
PUBLIC 6854 0 std::__ndk1::__throw_bad_variant_access[abi:ne190000]()
PUBLIC 6888 0 geode::UnwrapException::~UnwrapException()
PUBLIC 68ac 0 std::__ndk1::__put_character_sequence[abi:ne190000]<char, std::__ndk1::char_traits<char> >(std::__ndk1::basic_ostream<char, std::__ndk1::char_traits<char> >, std::__ndk1::basic_ostream const*, unsigned long)
PUBLIC 6a50 0 std::__ndk1::__pad_and_output[abi:ne190000]<char, std::__ndk1::char_traits<char> >(std::__ndk1::char_traits<char>, std::__ndk1::ostreambuf_iterator const*, std::__ndk1::ostreambuf_iterator const, std::__ndk1::ostreambuf_iterator const, std::__ndk1::ios_base&, std::__ndk1::ostreambuf_iterator)
PUBLIC 6c3c 0 std::__ndk1::basic_stringbuf<char, std::__ndk1::char_traits<char>, std::__ndk1::allocator<char> >::str[abi:ne190000]() &&
PUBLIC 6dac 0 std::__ndk1::basic_stringbuf<char, std::__ndk1::char_traits<char>, std::__ndk1::allocator<char> >::__init_buf_ptrs[abi:ne190000]()
PUBLIC 6ef4 0 std::__ndk1::vector<std::__ndk1::basic_string<char, std::__ndk1::char_traits<char>, std::__ndk1::allocator<char> >, std::__ndk1::allocator<std::__ndk1::basic_string<char, std::__ndk1::char_traits<char>, std::__ndk1::allocator<char> > > >::__push_back_slow_path<std::__ndk1::basic_string<char, std::__ndk1::char_traits<char>, std::__ndk1::allocator<char> > const&>(std::__ndk1::basic_string<char, std::__ndk1::char_traits<char>, std::__ndk1::allocator<char> > const&)
PUBLIC 70a0 0 std::__ndk1::basic_string<char, std::__ndk1::char_traits<char>, std::__ndk1::allocator<char> >::__init_copy_ctor_external(char const*, unsigned long)
PUBLIC 7134 0 std::__ndk1::__split_buffer<std::__ndk1::basic_string<char, std::__ndk1::char_traits<char>, std::__ndk1::allocator<char> >, std::__ndk1::allocator<std::__ndk1::basic_string<char, std::__ndk1::char_traits<char>, std::__ndk1::allocator<char> > >&>::~__split_buffer()
PUBLIC 719c 0 std::__ndk1::vector<std::__ndk1::basic_string<char, std::__ndk1::char_traits<char>, std::__ndk1::allocator<char> >, std::__ndk1::allocator<std::__ndk1::basic_string<char, std::__ndk1::char_traits<char>, std::__ndk1::allocator<char> > > >::__throw_length_error[abi:ne190000]() const
PUBLIC 71b0 0 std::__ndk1::__variant_detail::__visitation::__base::__dispatcher<(unsigned long)0>::__dispatch[abi:ne190000]<std::__ndk1::__variant_detail::__dtor<std::__ndk1::__variant_detail::__traits<geode::Hook*, std::__ndk1::basic_string<char, std::__ndk1::char_traits<char>, std::__ndk1::allocator<char> > >, (std::__ndk1::__variant_detail::_Trait)1>::__destroy[abi:ne190000]()::{lambda(auto:1&)#1}, std::__ndk1::__variant_detail::__base<(std::__ndk1::__variant_detail::__traits<geode::Hook*, std::__ndk1::basic_string<char, std::__ndk1::char_traits<char>, std::__ndk1::allocator<char> > >)1, geode::Hook, std::__ndk1::allocator<char> >&>(std::__ndk1::__variant_detail::__dtor<std::__ndk1::__variant_detail::__traits<geode::Hook*, std::__ndk1::basic_string<char, std::__ndk1::char_traits<char>, std::__ndk1::allocator<char> > >, (std::__ndk1::__variant_detail::_Trait)1>, std::__ndk1::__variant_detail::__base<(std::__ndk1::__variant_detail::__traits<geode::Hook*, std::__ndk1::basic_string<char, std::__ndk1::char_traits<char>, std::__ndk1::allocator<char> > >)1, geode::Hook, std::__ndk1::allocator<char> >&)
PUBLIC 71b4 0 std::__ndk1::__variant_detail::__visitation::__base::__dispatcher<(unsigned long)1>::__dispatch[abi:ne190000]<std::__ndk1::__variant_detail::__dtor<std::__ndk1::__variant_detail::__traits<geode::Hook*, std::__ndk1::basic_string<char, std::__ndk1::char_traits<char>, std::__ndk1::allocator<char> > >, (std::__ndk1::__variant_detail::_Trait)1>::__destroy[abi:ne190000]()::{lambda(auto:1&)#1}, std::__ndk1::__variant_detail::__base<(std::__ndk1::__variant_detail::__traits<geode::Hook*, std::__ndk1::basic_string<char, std::__ndk1::char_traits<char>, std::__ndk1::allocator<char> > >)1, geode::Hook, std::__ndk1::allocator<char> >&>(std::__ndk1::__variant_detail::__dtor<std::__ndk1::__variant_detail::__traits<geode::Hook*, std::__ndk1::basic_string<char, std::__ndk1::char_traits<char>, std::__ndk1::allocator<char> > >, (std::__ndk1::__variant_detail::_Trait)1>, std::__ndk1::__variant_detail::__base<(std::__ndk1::__variant_detail::__traits<geode::Hook*, std::__ndk1::basic_string<char, std::__ndk1::char_traits<char>, std::__ndk1::allocator<char> > >)1, geode::Hook, std::__ndk1::allocator<char> >&)
PUBLIC 71c8 0 std::__ndk1::__tree<std::__ndk1::__value_type<std::__ndk1::basic_string<char, std::__ndk1::char_traits<char>, std::__ndk1::allocator<char> >, std::__ndk1::shared_ptr<geode::Hook> >, std::__ndk1::__map_value_compare<std::__ndk1::basic_string<char, std::__ndk1::char_traits<char>, std::__ndk1::allocator<char> >, std::__ndk1::__value_type<std::__ndk1::basic_string<char, std::__ndk1::char_traits<char>, std::__ndk1::allocator<char> >, std::__ndk1::shared_ptr<geode::Hook> >, std::__ndk1::less<std::__ndk1::basic_string<char, std::__ndk1::char_traits<char>, std::__ndk1::allocator<char> > >, true>, std::__ndk1::allocator<std::__ndk1::__value_type<std::__ndk1::basic_string<char, std::__ndk1::char_traits<char>, std::__ndk1::allocator<char> >, std::__ndk1::shared_ptr<geode::Hook> > > >::find<std::__ndk1::basic_string<char, std::__ndk1::char_traits<char>, std::__ndk1::allocator<char> > >(std::__ndk1::basic_string<char, std::__ndk1::char_traits<char>, std::__ndk1::allocator<char> > const&)
PUBLIC 72f0 0 std::__ndk1::__tree<std::__ndk1::__value_type<std::__ndk1::basic_string<char, std::__ndk1::char_traits<char>, std::__ndk1::allocator<char> >, std::__ndk1::shared_ptr<geode::Hook> >, std::__ndk1::__map_value_compare<std::__ndk1::basic_string<char, std::__ndk1::char_traits<char>, std::__ndk1::allocator<char> >, std::__ndk1::__value_type<std::__ndk1::basic_string<char, std::__ndk1::char_traits<char>, std::__ndk1::allocator<char> >, std::__ndk1::shared_ptr<geode::Hook> >, std::__ndk1::less<std::__ndk1::basic_string<char, std::__ndk1::char_traits<char>, std::__ndk1::allocator<char> > >, true>, std::__ndk1::allocator<std::__ndk1::__value_type<std::__ndk1::basic_string<char, std::__ndk1::char_traits<char>, std::__ndk1::allocator<char> >, std::__ndk1::shared_ptr<geode::Hook> > > >::erase(std::__ndk1::__tree_const_iterator<std::__ndk1::__value_type<std::__ndk1::basic_string<char, std::__ndk1::char_traits<char>, std::__ndk1::allocator<char> >, std::__ndk1::shared_ptr<geode::Hook> >, std::__ndk1::__tree_node<std::__ndk1::__value_type<std::__ndk1::basic_string<char, std::__ndk1::char_traits<char>, std::__ndk1::allocator<char> >, std::__ndk1::shared_ptr<geode::Hook> >, void*>*, long>)
PUBLIC 7794 0 std::__ndk1::__tree<std::__ndk1::__value_type<std::__ndk1::basic_string<char, std::__ndk1::char_traits<char>, std::__ndk1::allocator<char> >, std::__ndk1::shared_ptr<geode::Hook> >, std::__ndk1::__map_value_compare<std::__ndk1::basic_string<char, std::__ndk1::char_traits<char>, std::__ndk1::allocator<char> >, std::__ndk1::__value_type<std::__ndk1::basic_string<char, std::__ndk1::char_traits<char>, std::__ndk1::allocator<char> >, std::__ndk1::shared_ptr<geode::Hook> >, std::__ndk1::less<std::__ndk1::basic_string<char, std::__ndk1::char_traits<char>, std::__ndk1::allocator<char> > >, true>, std::__ndk1::allocator<std::__ndk1::__value_type<std::__ndk1::basic_string<char, std::__ndk1::char_traits<char>, std::__ndk1::allocator<char> >, std::__ndk1::shared_ptr<geode::Hook> > > >::destroy(std::__ndk1::__tree_node<std::__ndk1::__value_type<std::__ndk1::basic_string<char, std::__ndk1::char_traits<char>, std::__ndk1::allocator<char> >, std::__ndk1::shared_ptr<geode::Hook> >, void*>*)
PUBLIC 7818 0 geode::modifier::AsStaticFunction_init<Editor, bool (Editor::*)(GJGameLevel*, bool)>::Impl<bool (Editor::*)(GJGameLevel*, bool)>::function(Editor*, GJGameLevel*, bool)
PUBLIC 7c98 0 std::__ndk1::shared_ptr<tulip::hook::CallingConvention>::~shared_ptr[abi:ne190000]()
PUBLIC 7ce8 0 tulip::hook::HandlerMetadata::~HandlerMetadata()
PUBLIC 7d4c 0 geode::cast::traverseTypeinfoFor(void*, geode::cast::ClassTypeinfoType const*, char const*)
PUBLIC 7e44 0 geode::modifier::FieldIntermediate<Editor, LevelEditorLayer>::self()
PUBLIC 850c 0 geode::modifier::FieldIntermediate<Editor, LevelEditorLayer>::fieldDestructor(void*)
PUBLIC 8524 0 std::__ndk1::vector<void*, std::__ndk1::allocator<void*> >::__throw_length_error[abi:ne190000]() const
PUBLIC 8538 0 std::__ndk1::vector<std::__ndk1::function<void (void*)>, std::__ndk1::allocator<std::__ndk1::function<void (void*)> > >::__throw_length_error[abi:ne190000]() const
PUBLIC 854c 0 std::__ndk1::vector<void*, std::__ndk1::allocator<void*> >::__throw_out_of_range[abi:ne190000]() const
PUBLIC 8560 0 std::__ndk1::vector<std::__ndk1::function<void (void*)>, std::__ndk1::allocator<std::__ndk1::function<void (void*)> > >::__throw_out_of_range[abi:ne190000]() const
PUBLIC 8574 0 std::__ndk1::__function::__base<void (void*)>::~__base()
PUBLIC 8578 0 std::__ndk1::__function::__func<void (*)(void*), std::__ndk1::allocator<void (*)(void*)>, void (void*)>::~__func()
PUBLIC 857c 0 std::__ndk1::__function::__func<void (*)(void*), std::__ndk1::allocator<void (*)(void*)>, void (void*)>::__clone() const
PUBLIC 85b4 0 std::__ndk1::__function::__func<void (*)(void*), std::__ndk1::allocator<void (*)(void*)>, void (void*)>::__clone(std::__ndk1::__function::__base<void (void*)>*) const
PUBLIC 85cc 0 std::__ndk1::__function::__func<void (*)(void*), std::__ndk1::allocator<void (*)(void*)>, void (void*)>::destroy()
PUBLIC 85d0 0 std::__ndk1::__function::__func<void (*)(void*), std::__ndk1::allocator<void (*)(void*)>, void (void*)>::destroy_deallocate()
PUBLIC 85d4 0 std::__ndk1::__function::__func<void (*)(void*), std::__ndk1::allocator<void (*)(void*)>, void (void*)>::operator()(void*&&)
PUBLIC 85e4 0 std::__ndk1::__function::__func<void (*)(void*), std::__ndk1::allocator<void (*)(void*)>, void (void*)>::target(std::type_info const&) const
PUBLIC 8600 0 std::__ndk1::__function::__func<void (*)(void*), std::__ndk1::allocator<void (*)(void*)>, void (void*)>::target_type() const
PUBLIC 860c 0 std::__ndk1::__tree<std::__ndk1::__value_type<std::__ndk1::basic_string<char, std::__ndk1::char_traits<char>, std::__ndk1::allocator<char> >, std::__ndk1::shared_ptr<geode::Hook> >, std::__ndk1::__map_value_compare<std::__ndk1::basic_string<char, std::__ndk1::char_traits<char>, std::__ndk1::allocator<char> >, std::__ndk1::__value_type<std::__ndk1::basic_string<char, std::__ndk1::char_traits<char>, std::__ndk1::allocator<char> >, std::__ndk1::shared_ptr<geode::Hook> >, std::__ndk1::less<std::__ndk1::basic_string<char, std::__ndk1::char_traits<char>, std::__ndk1::allocator<char> > >, true>, std::__ndk1::allocator<std::__ndk1::__value_type<std::__ndk1::basic_string<char, std::__ndk1::char_traits<char>, std::__ndk1::allocator<char> >, std::__ndk1::shared_ptr<geode::Hook> > > >::__emplace_unique_key_args<std::__ndk1::basic_string<char, std::__ndk1::char_traits<char>, std::__ndk1::allocator<char> >, std::__ndk1::piecewise_construct_t const&, std::__ndk1::tuple<std::__ndk1::basic_string<char, std::__ndk1::char_traits<char>, std::__ndk1::allocator<char> >&&>, std::__ndk1::tuple<> >(std::__ndk1::basic_string<char, std::__ndk1::char_traits<char>, std::__ndk1::allocator<char> > const&, std::__ndk1::piecewise_construct_t const&, std::__ndk1::tuple<std::__ndk1::basic_string<char, std::__ndk1::char_traits<char>, std::__ndk1::allocator<char> >&&>, std::__ndk1::tuple<>)
PUBLIC 8774 0 std::__ndk1::__tree_balance_after_insert[abi:ne190000]<std::__ndk1::__tree_node_base<void*>*>(std::__ndk1::__tree_node_base<void*>*, std::__ndk1::__tree_node_base<void*>*)
PUBLIC 891c 0 geode::modifier::ModifyDerive<EditUI, EditorUI>::apply()
PUBLIC 8c2c 0 geode::modifier::ModifyBase<geode::modifier::ModifyDerive<EditUI, EditorUI> >::apply()
PUBLIC 8c30 0 geode::modifier::AsStaticFunction_createMoveMenu<EditUI, void (EditUI::*)()>::Impl<void (EditUI::*)()>::function(EditUI*)
PUBLIC 8cbc 0 EditUI::onCreateMeasurement(cocos2d::CCObject*)
PUBLIC a00c 0 geode::Mod::getSettingValue<bool>(std::__ndk1::basic_string_view<char, std::__ndk1::char_traits<char> >) const
PUBLIC a134 0 geode::Mod::getSettingValue<long>(std::__ndk1::basic_string_view<char, std::__ndk1::char_traits<char> >) const
PUBLIC a248 0 geode::Mod::getSettingValue<cocos2d::_ccColor3B>(std::__ndk1::basic_string_view<char, std::__ndk1::char_traits<char> >) const
PUBLIC a364 0 Editor::createEdges(cocos2d::CCPoint, cocos2d::CCPoint, float, cocos2d::CCNode*, cocos2d::_ccColor3B)::{lambda(bool)#1}::operator()(bool) const::{lambda(cocos2d::CCPoint(cocos2d::CCPoint, int, bool), int, bool)#1}::operator() const
PUBLIC a6a8 0 geode::Mod::getSettingValue<std::__ndk1::basic_string<char, std::__ndk1::char_traits<char>, std::__ndk1::allocator<char> > >(std::__ndk1::basic_string_view<char, std::__ndk1::char_traits<char> >) const
PUBLIC a838 0 geode::Mod::getSettingValue<double>(std::__ndk1::basic_string_view<char, std::__ndk1::char_traits<char> >) const
PUBLIC a964 0 std::__ndk1::shared_ptr<geode::StringSettingV3>::~shared_ptr[abi:ne190000]()
PUBLIC a9b4 0 _GLOBAL__sub_I_main.cpp
PUBLIC aa00 0 geode::getMod()
PUBLIC m aa3c 0 geodeImplicitEntry
PUBLIC aa78 0 LevelEditorLayer::get()
PUBLIC aa90 0 <.plt ELF section in nwo5.ruler.android64.so>
STACK CFI INIT 4d90 10 .cfa: sp 0 +
STACK CFI INIT 4da0 8 .cfa: sp 0 +
STACK CFI INIT 4da8 8 .cfa: sp 0 +
STACK CFI INIT 4db0 14 .cfa: sp 0 +
STACK CFI INIT 4dc4 1c .cfa: sp 0 +
STACK CFI INIT 4de0 10 .cfa: sp 0 +
STACK CFI INIT 4df0 30 .cfa: sp 0 +
STACK CFI INIT 4e20 98 .cfa: sp 0 +
STACK CFI INIT 4eb8 2ac .cfa: sp 0 +
STACK CFI INIT 5164 8c .cfa: sp 0 +
STACK CFI INIT 51f0 30 .cfa: sp 0 +
STACK CFI INIT 56b0 80 .cfa: sp 0 +
STACK CFI 56b4 .cfa: sp 48 +
STACK CFI 56c0 .cfa: x29 48 + x19: .cfa -8 + ^ x20: .cfa -16 + ^ x21: .cfa -32 + ^ .ra: .cfa -40 + ^ x29: .cfa -48 + ^
STACK CFI 5720 .cfa: sp 48 +
STACK CFI 572c .cfa: sp 0 +
STACK CFI INIT 5ba4 18 .cfa: sp 0 +
STACK CFI INIT 6030 18 .cfa: sp 0 +
STACK CFI INIT 6048 10 .cfa: sp 0 +
STACK CFI 604c .cfa: sp 16 +
STACK CFI 6050 .cfa: x29 16 + .ra: .cfa -8 + ^ x29: .cfa -16 + ^
STACK CFI INIT 6058 14 .cfa: sp 0 +
STACK CFI 605c .cfa: sp 16 +
STACK CFI 6060 .cfa: x29 16 + .ra: .cfa -8 + ^ x29: .cfa -16 + ^
STACK CFI INIT 606c 88 .cfa: sp 0 +
STACK CFI 6074 .cfa: sp 48 +
STACK CFI 6080 .cfa: x29 48 + x19: .cfa -8 + ^ x20: .cfa -16 + ^ x21: .cfa -24 + ^ x22: .cfa -32 + ^ .ra: .cfa -40 + ^ x29: .cfa -48 + ^
STACK CFI 60e4 .cfa: sp 48 +
STACK CFI 60f0 .cfa: sp 0 +
STACK CFI INIT 6144 30 .cfa: sp 0 +
STACK CFI 6148 .cfa: sp 32 +
STACK CFI 6150 .cfa: x29 32 + x19: .cfa -16 + ^ .ra: .cfa -24 + ^ x29: .cfa -32 + ^
STACK CFI 6168 .cfa: sp 32 +
STACK CFI 6170 .cfa: sp 0 +
STACK CFI INIT 6174 14 .cfa: sp 0 +
STACK CFI 6178 .cfa: sp 16 +
STACK CFI 617c .cfa: x29 16 + .ra: .cfa -8 + ^ x29: .cfa -16 + ^
STACK CFI INIT 61d8 30 .cfa: sp 0 +
STACK CFI 61dc .cfa: sp 32 +
STACK CFI 61e4 .cfa: x29 32 + x19: .cfa -16 + ^ .ra: .cfa -24 + ^ x29: .cfa -32 + ^
STACK CFI 61fc .cfa: sp 32 +
STACK CFI 6204 .cfa: sp 0 +
STACK CFI INIT 6208 34 .cfa: sp 0 +
STACK CFI 620c .cfa: sp 32 +
STACK CFI 6214 .cfa: x29 32 + x19: .cfa -16 + ^ .ra: .cfa -24 + ^ x29: .cfa -32 + ^
STACK CFI INIT 65bc 50 .cfa: sp 0 +
STACK CFI 65c0 .cfa: sp 32 +
STACK CFI 65c8 .cfa: x29 32 + x19: .cfa -16 + ^ .ra: .cfa -24 + ^ x29: .cfa -32 + ^
STACK CFI 65e0 .cfa: sp 32 +
STACK CFI 65e8 .cfa: sp 0 +
STACK CFI 65ec .cfa: x29 32 +
STACK CFI 6600 .cfa: sp 32 +
STACK CFI 6608 .cfa: sp 0 +
STACK CFI INIT 6680 7c .cfa: sp 0 +
STACK CFI 6684 .cfa: sp 48 +
STACK CFI 6690 .cfa: x29 48 + x19: .cfa -8 + ^ x20: .cfa -16 + ^ x21: .cfa -32 + ^ .ra: .cfa -40 + ^ x29: .cfa -48 + ^
STACK CFI 66dc .cfa: sp 48 +
STACK CFI 66e8 .cfa: sp 0 +
STACK CFI 66ec .cfa: sp 48 +
STACK CFI 66f8 .cfa: sp 0 +
STACK CFI INIT 66fc 4 .cfa: sp 0 +
STACK CFI INIT 6854 34 .cfa: sp 0 +
STACK CFI 6858 .cfa: sp 16 +
STACK CFI 685c .cfa: x29 16 + .ra: .cfa -8 + ^ x29: .cfa -16 + ^
STACK CFI INIT 6888 24 .cfa: sp 0 +
STACK CFI 688c .cfa: sp 32 +
STACK CFI 6894 .cfa: x29 32 + x19: .cfa -16 + ^ .ra: .cfa -24 + ^ x29: .cfa -32 + ^
STACK CFI 68a0 .cfa: sp 32 +
STACK CFI 68a8 .cfa: sp 0 +
STACK CFI INIT 6dac 148 .cfa: sp 0 +
STACK CFI 6db0 .cfa: sp 48 +
STACK CFI 6dbc .cfa: x29 48 + x19: .cfa -8 + ^ x20: .cfa -16 + ^ x21: .cfa -32 + ^ .ra: .cfa -40 + ^ x29: .cfa -48 + ^
STACK CFI 6ee4 .cfa: sp 48 +
STACK CFI 6ef0 .cfa: sp 0 +
STACK CFI INIT 70a0 94 .cfa: sp 0 +
STACK CFI 70a4 .cfa: sp 48 +
STACK CFI 70b0 .cfa: x29 48 + x19: .cfa -8 + ^ x20: .cfa -16 + ^ x21: .cfa -24 + ^ x22: .cfa -32 + ^ .ra: .cfa -40 + ^ x29: .cfa -48 + ^
STACK CFI 70c8 .cfa: sp 48 +
STACK CFI 70d4 .cfa: sp 0 +
STACK CFI 70d8 .cfa: x29 48 +
STACK CFI 711c .cfa: sp 48 +
STACK CFI 7128 .cfa: sp 0 +
STACK CFI 712c .cfa: x29 48 +
STACK CFI INIT 7134 68 .cfa: sp 0 +
STACK CFI 7138 .cfa: sp 32 +
STACK CFI 7140 .cfa: x29 32 + x19: .cfa -8 + ^ x20: .cfa -16 + ^ .ra: .cfa -24 + ^ x29: .cfa -32 + ^
STACK CFI 7158 .cfa: sp 32 +
STACK CFI 7160 .cfa: sp 0 +
STACK CFI 7164 .cfa: x29 32 +
STACK CFI 7190 .cfa: sp 32 +
STACK CFI 7198 .cfa: sp 0 +
STACK CFI INIT 719c 14 .cfa: sp 0 +
STACK CFI 71a0 .cfa: sp 16 +
STACK CFI 71a4 .cfa: x29 16 + .ra: .cfa -8 + ^ x29: .cfa -16 + ^
STACK CFI INIT 71b0 4 .cfa: sp 0 +
STACK CFI INIT 71b4 14 .cfa: sp 0 +
STACK CFI INIT 71c8 128 .cfa: sp 0 +
STACK CFI 71cc .cfa: sp 64 +
STACK CFI 71dc .cfa: x29 64 + x19: .cfa -8 + ^ x20: .cfa -16 + ^ x21: .cfa -24 + ^ x22: .cfa -32 + ^ x23: .cfa -40 + ^ x24: .cfa -48 + ^ .ra: .cfa -56 + ^ x29: .cfa -64 + ^
STACK CFI 72dc .cfa: sp 64 +
STACK CFI 72ec .cfa: sp 0 +
STACK CFI INIT 72f0 4a4 .cfa: sp 0 +
STACK CFI 72f4 .cfa: sp 32 +
STACK CFI 72fc .cfa: x29 32 + x19: .cfa -8 + ^ x20: .cfa -16 + ^ .ra: .cfa -24 + ^ x29: .cfa -32 + ^
STACK CFI 76dc .cfa: sp 32 +
STACK CFI 76e4 .cfa: sp 0 +
STACK CFI 76e8 .cfa: x29 32 +
STACK CFI INIT 7794 84 .cfa: sp 0 +
STACK CFI 779c .cfa: sp 32 +
STACK CFI 77a4 .cfa: x29 32 + x19: .cfa -8 + ^ x20: .cfa -16 + ^ .ra: .cfa -24 + ^ x29: .cfa -32 + ^
STACK CFI 77e4 .cfa: sp 32 +
STACK CFI 77ec .cfa: sp 0 +
STACK CFI 77f4 .cfa: x29 32 +
STACK CFI INIT 7c98 50 .cfa: sp 0 +
STACK CFI 7c9c .cfa: sp 32 +
STACK CFI 7ca4 .cfa: x29 32 + x19: .cfa -16 + ^ .ra: .cfa -24 + ^ x29: .cfa -32 + ^
STACK CFI 7cbc .cfa: sp 32 +
STACK CFI 7cc4 .cfa: sp 0 +
STACK CFI 7cc8 .cfa: x29 32 +
STACK CFI 7cdc .cfa: sp 32 +
STACK CFI 7ce4 .cfa: sp 0 +
STACK CFI INIT 7ce8 64 .cfa: sp 0 +
STACK CFI 7cec .cfa: sp 32 +
STACK CFI 7cf4 .cfa: x29 32 + x19: .cfa -16 + ^ .ra: .cfa -24 + ^ x29: .cfa -32 + ^
STACK CFI 7d20 .cfa: sp 32 +
STACK CFI 7d28 .cfa: sp 0 +
STACK CFI 7d2c .cfa: x29 32 +
STACK CFI 7d40 .cfa: sp 32 +
STACK CFI 7d48 .cfa: sp 0 +
STACK CFI INIT 7d4c f8 .cfa: sp 0 +
STACK CFI 7d50 .cfa: sp 64 +
STACK CFI 7d60 .cfa: x29 64 + x19: .cfa -8 + ^ x20: .cfa -16 + ^ x21: .cfa -24 + ^ x22: .cfa -32 + ^ x23: .cfa -48 + ^ .ra: .cfa -56 + ^ x29: .cfa -64 + ^
STACK CFI 7dbc .cfa: sp 64 +
STACK CFI 7dcc .cfa: sp 0 +
STACK CFI 7dd0 .cfa: x29 64 +
STACK CFI 7dec .cfa: sp 64 +
STACK CFI 7dfc .cfa: sp 0 +
STACK CFI 7e00 .cfa: x29 64 +
STACK CFI 7e30 .cfa: sp 64 +
STACK CFI 7e40 .cfa: sp 0 +
STACK CFI INIT 850c 18 .cfa: sp 0 +
STACK CFI INIT 8524 14 .cfa: sp 0 +
STACK CFI 8528 .cfa: sp 16 +
STACK CFI 852c .cfa: x29 16 + .ra: .cfa -8 + ^ x29: .cfa -16 + ^
STACK CFI INIT 8538 14 .cfa: sp 0 +
STACK CFI 853c .cfa: sp 16 +
STACK CFI 8540 .cfa: x29 16 + .ra: .cfa -8 + ^ x29: .cfa -16 + ^
STACK CFI INIT 854c 14 .cfa: sp 0 +
STACK CFI 8550 .cfa: sp 16 +
STACK CFI 8554 .cfa: x29 16 + .ra: .cfa -8 + ^ x29: .cfa -16 + ^
STACK CFI INIT 8560 14 .cfa: sp 0 +
STACK CFI 8564 .cfa: sp 16 +
STACK CFI 8568 .cfa: x29 16 + .ra: .cfa -8 + ^ x29: .cfa -16 + ^
STACK CFI INIT 8574 4 .cfa: sp 0 +
STACK CFI INIT 8578 4 .cfa: sp 0 +
STACK CFI INIT 857c 38 .cfa: sp 0 +
STACK CFI 8580 .cfa: sp 32 +
STACK CFI 8588 .cfa: x29 32 + x19: .cfa -16 + ^ .ra: .cfa -24 + ^ x29: .cfa -32 + ^
STACK CFI 85a8 .cfa: sp 32 +
STACK CFI 85b0 .cfa: sp 0 +
STACK CFI INIT 85b4 18 .cfa: sp 0 +
STACK CFI INIT 85cc 4 .cfa: sp 0 +
STACK CFI INIT 85d0 4 .cfa: sp 0 +
STACK CFI INIT 85d4 10 .cfa: sp 0 +
STACK CFI INIT 85e4 1c .cfa: sp 0 +
STACK CFI INIT 8600 c .cfa: sp 0 +
STACK CFI INIT 860c 168 .cfa: sp 0 +
STACK CFI 8610 .cfa: sp 80 +
STACK CFI 8624 .cfa: x29 80 + x19: .cfa -8 + ^ x20: .cfa -16 + ^ x21: .cfa -24 + ^ x22: .cfa -32 + ^ x23: .cfa -40 + ^ x24: .cfa -48 + ^ x25: .cfa -56 + ^ x26: .cfa -64 + ^ .ra: .cfa -72 + ^ x29: .cfa -80 + ^
STACK CFI 875c .cfa: sp 80 +
STACK CFI 8770 .cfa: sp 0 +
STACK CFI INIT 8774 1a8 .cfa: sp 0 +
STACK CFI INIT 8c2c 4 .cfa: sp 0 +
STACK CFI INIT 8c30 8c .cfa: sp 0 +
STACK CFI 8c34 .cfa: sp 32 +
STACK CFI 8c3c .cfa: x29 32 + x19: .cfa -8 + ^ x20: .cfa -16 + ^ .ra: .cfa -24 + ^ x29: .cfa -32 + ^
STACK CFI 8cb0 .cfa: sp 32 +
STACK CFI 8cb8 .cfa: sp 0 +
STACK CFI INIT a00c 128 .cfa: sp 0 +
STACK CFI a010 .cfa: sp 80 +
STACK CFI a020 .cfa: x29 48 + x19: .cfa -8 + ^ x20: .cfa -16 + ^ x21: .cfa -24 + ^ x22: .cfa -32 + ^ .ra: .cfa -40 + ^ x29: .cfa -48 + ^
STACK CFI a11c .cfa: sp 80 +
STACK CFI a12c .cfa: sp 0 +
STACK CFI a130 .cfa: x29 48 +
STACK CFI INIT a134 114 .cfa: sp 0 +
STACK CFI a138 .cfa: sp 80 +
STACK CFI a148 .cfa: x29 48 + x19: .cfa -8 + ^ x20: .cfa -16 + ^ x21: .cfa -24 + ^ x22: .cfa -32 + ^ .ra: .cfa -40 + ^ x29: .cfa -48 + ^
STACK CFI a230 .cfa: sp 80 +
STACK CFI a240 .cfa: sp 0 +
STACK CFI a244 .cfa: x29 48 +
STACK CFI INIT a248 11c .cfa: sp 0 +
STACK CFI a24c .cfa: sp 80 +
STACK CFI a25c .cfa: x29 48 + x19: .cfa -8 + ^ x20: .cfa -16 + ^ x21: .cfa -24 + ^ x22: .cfa -32 + ^ .ra: .cfa -40 + ^ x29: .cfa -48 + ^
STACK CFI a34c .cfa: sp 80 +
STACK CFI a35c .cfa: sp 0 +
STACK CFI a360 .cfa: x29 48 +
STACK CFI INIT a364 344 .cfa: sp 0 +
STACK CFI a368 .cfa: sp 96 +
STACK CFI a384 .cfa: x29 88 + x19: .cfa -8 + ^ x20: .cfa -16 + ^ x21: .cfa -24 + ^ x22: .cfa -32 + ^ x23: .cfa -40 + ^ x24: .cfa -48 + ^ x25: .cfa -56 + ^ x26: .cfa -64 + ^ x27: .cfa -72 + ^ .ra: .cfa -80 + ^ x29: .cfa -88 + ^ v8: .cfa -96 + ^
STACK CFI a5a4 .cfa: sp 96 +
STACK CFI a5c0 .cfa: sp 0 +
STACK CFI a5c4 .cfa: x29 88 +
STACK CFI a688 .cfa: sp 96 +
STACK CFI a6a4 .cfa: sp 0 +
STACK CFI INIT a838 12c .cfa: sp 0 +
STACK CFI a83c .cfa: sp 96 +
STACK CFI a850 .cfa: x29 48 + x19: .cfa -8 + ^ x20: .cfa -16 + ^ x21: .cfa -24 + ^ x22: .cfa -32 + ^ .ra: .cfa -40 + ^ x29: .cfa -48 + ^ v8: .cfa -64 + ^
STACK CFI a948 .cfa: sp 96 +
STACK CFI a95c .cfa: sp 0 +
STACK CFI a960 .cfa: x29 48 +
STACK CFI INIT a964 50 .cfa: sp 0 +
STACK CFI a968 .cfa: sp 32 +
STACK CFI a970 .cfa: x29 32 + x19: .cfa -16 + ^ .ra: .cfa -24 + ^ x29: .cfa -32 + ^
STACK CFI a988 .cfa: sp 32 +
STACK CFI a990 .cfa: sp 0 +
STACK CFI a994 .cfa: x29 32 +
STACK CFI a9a8 .cfa: sp 32 +
STACK CFI a9b0 .cfa: sp 0 +
STACK CFI INIT a9b4 4c .cfa: sp 0 +
STACK CFI a9b8 .cfa: sp 32 +
STACK CFI a9c0 .cfa: x29 32 + x19: .cfa -16 + ^ .ra: .cfa -24 + ^ x29: .cfa -32 + ^
STACK CFI a9d4 .cfa: sp 32 +
STACK CFI a9dc .cfa: sp 0 +
STACK CFI a9e0 .cfa: x29 32 +
STACK CFI a9f4 .cfa: sp 32 +
STACK CFI a9fc .cfa: sp 0 +
STACK CFI INIT aa00 3c .cfa: sp 0 +
STACK CFI aa04 .cfa: sp 32 +
STACK CFI aa0c .cfa: x29 32 + x19: .cfa -16 + ^ .ra: .cfa -24 + ^ x29: .cfa -32 + ^
STACK CFI aa18 .cfa: sp 32 +
STACK CFI aa20 .cfa: sp 0 +
STACK CFI aa24 .cfa: x29 32 +
STACK CFI aa30 .cfa: sp 32 +
STACK CFI aa38 .cfa: sp 0 +
STACK CFI INIT aa3c 3c .cfa: sp 0 +
STACK CFI aa40 .cfa: sp 32 +
STACK CFI aa48 .cfa: x29 32 + x19: .cfa -16 + ^ .ra: .cfa -24 + ^ x29: .cfa -32 + ^
STACK CFI aa54 .cfa: sp 32 +
STACK CFI aa5c .cfa: sp 0 +
STACK CFI aa60 .cfa: x29 32 +
STACK CFI aa6c .cfa: sp 32 +
STACK CFI aa74 .cfa: sp 0 +
STACK CFI INIT aa78 18 .cfa: sp 0 +
STACK CFI aa7c .cfa: sp 16 +
STACK CFI aa80 .cfa: x29 16 + .ra: .cfa -8 + ^ x29: .cfa -16 + ^
STACK CFI aa88 .cfa: sp 16 +
STACK CFI aa8c .cfa: sp 0 +
STACK CFI INIT 5220 35c .cfa: sp 0 +
STACK CFI 5224 .cfa: sp 368 +
STACK CFI 5240 .cfa: x29 72 + x19: .cfa -8 + ^ x20: .cfa -16 + ^ x21: .cfa -24 + ^ x22: .cfa -32 + ^ x23: .cfa -40 + ^ x24: .cfa -48 + ^ x28: .cfa -56 + ^ .ra: .cfa -64 + ^ x29: .cfa -72 + ^ v8: .cfa -80 + ^
STACK CFI 5504 .cfa: sp 368 +
STACK CFI 5520 .cfa: sp 0 +
STACK CFI 5524 .cfa: x29 72 +
STACK CFI INIT 557c 134 .cfa: sp 0 +
STACK CFI 5580 .cfa: sp 80 +
STACK CFI 5594 .cfa: x29 80 + x19: .cfa -8 + ^ x20: .cfa -16 + ^ x21: .cfa -24 + ^ x22: .cfa -32 + ^ x23: .cfa -40 + ^ x24: .cfa -48 + ^ x25: .cfa -56 + ^ x26: .cfa -64 + ^ .ra: .cfa -72 + ^ x29: .cfa -80 + ^
STACK CFI 5664 .cfa: sp 80 +
STACK CFI 5678 .cfa: sp 0 +
STACK CFI 567c .cfa: x29 80 +
STACK CFI INIT 5730 474 .cfa: sp 0 +
STACK CFI 5734 .cfa: sp 224 +
STACK CFI 5750 .cfa: x29 96 + x19: .cfa -8 + ^ x20: .cfa -16 + ^ x21: .cfa -24 + ^ x22: .cfa -32 + ^ x23: .cfa -40 + ^ x24: .cfa -48 + ^ x25: .cfa -56 + ^ x26: .cfa -64 + ^ x27: .cfa -72 + ^ x28: .cfa -80 + ^ .ra: .cfa -88 + ^ x29: .cfa -96 + ^
STACK CFI 59b0 .cfa: sp 224 +
STACK CFI 59cc .cfa: sp 0 +
STACK CFI 59d0 .cfa: x29 96 +
STACK CFI 5a9c .cfa: sp 224 +
STACK CFI 5ab8 .cfa: sp 0 +
STACK CFI 5abc .cfa: x29 96 +
STACK CFI INIT 5bbc 474 .cfa: sp 0 +
STACK CFI 5bc0 .cfa: sp 224 +
STACK CFI 5bdc .cfa: x29 96 + x19: .cfa -8 + ^ x20: .cfa -16 + ^ x21: .cfa -24 + ^ x22: .cfa -32 + ^ x23: .cfa -40 + ^ x24: .cfa -48 + ^ x25: .cfa -56 + ^ x26: .cfa -64 + ^ x27: .cfa -72 + ^ x28: .cfa -80 + ^ .ra: .cfa -88 + ^ x29: .cfa -96 + ^
STACK CFI 5e3c .cfa: sp 224 +
STACK CFI 5e58 .cfa: sp 0 +
STACK CFI 5e5c .cfa: x29 96 +
STACK CFI 5f28 .cfa: sp 224 +
STACK CFI 5f44 .cfa: sp 0 +
STACK CFI 5f48 .cfa: x29 96 +
STACK CFI INIT 60f4 50 .cfa: sp 0 +
STACK CFI 60f8 .cfa: sp 32 +
STACK CFI 6100 .cfa: x29 32 + x19: .cfa -8 + ^ x20: .cfa -16 + ^ .ra: .cfa -24 + ^ x29: .cfa -32 + ^
STACK CFI INIT 6188 50 .cfa: sp 0 +
STACK CFI 618c .cfa: sp 32 +
STACK CFI 6194 .cfa: x29 32 + x19: .cfa -8 + ^ x20: .cfa -16 + ^ .ra: .cfa -24 + ^ x29: .cfa -32 + ^
STACK CFI INIT 623c 380 .cfa: sp 0 +
STACK CFI 6240 .cfa: sp 224 +
STACK CFI 6254 .cfa: x29 64 + x19: .cfa -8 + ^ x20: .cfa -16 + ^ x21: .cfa -24 + ^ x22: .cfa -32 + ^ x23: .cfa -40 + ^ x24: .cfa -48 + ^ .ra: .cfa -56 + ^ x29: .cfa -64 + ^
STACK CFI 648c .cfa: sp 224 +
STACK CFI 64a0 .cfa: sp 0 +
STACK CFI 64a4 .cfa: x29 64 +
STACK CFI INIT 660c 74 .cfa: sp 0 +
STACK CFI 6610 .cfa: sp 48 +
STACK CFI 661c .cfa: x29 32 + x19: .cfa -8 + ^ x20: .cfa -16 + ^ .ra: .cfa -24 + ^ x29: .cfa -32 + ^
STACK CFI 6668 .cfa: sp 48 +
STACK CFI 6674 .cfa: sp 0 +
STACK CFI 6678 .cfa: x29 32 +
STACK CFI INIT 6700 154 .cfa: sp 0 +
STACK CFI 6704 .cfa: sp 384 +
STACK CFI 6718 .cfa: x29 64 + x19: .cfa -8 + ^ x20: .cfa -16 + ^ x21: .cfa -24 + ^ x22: .cfa -32 + ^ x23: .cfa -40 + ^ x28: .cfa -48 + ^ .ra: .cfa -56 + ^ x29: .cfa -64 + ^
STACK CFI 67fc .cfa: sp 384 +
STACK CFI 6810 .cfa: sp 0 +
STACK CFI 6814 .cfa: x29 64 +
STACK CFI INIT 68ac 1a4 .cfa: sp 0 +
STACK CFI 68b0 .cfa: sp 112 +
STACK CFI 68c8 .cfa: x29 80 + x19: .cfa -8 + ^ x20: .cfa -16 + ^ x21: .cfa -24 + ^ x22: .cfa -32 + ^ x23: .cfa -40 + ^ x24: .cfa -48 + ^ x25: .cfa -56 + ^ x26: .cfa -64 + ^ .ra: .cfa -72 + ^ x29: .cfa -80 + ^
STACK CFI 69b8 .cfa: sp 112 +
STACK CFI 69d0 .cfa: sp 0 +
STACK CFI 69d4 .cfa: x29 80 +
STACK CFI INIT 6a50 1ec .cfa: sp 0 +
STACK CFI 6a54 .cfa: sp 128 +
STACK CFI 6a70 .cfa: x29 96 + x19: .cfa -8 + ^ x20: .cfa -16 + ^ x21: .cfa -24 + ^ x22: .cfa -32 + ^ x23: .cfa -40 + ^ x24: .cfa -48 + ^ x25: .cfa -56 + ^ x26: .cfa -64 + ^ x27: .cfa -80 + ^ .ra: .cfa -88 + ^ x29: .cfa -96 + ^
STACK CFI 6bec .cfa: sp 128 +
STACK CFI 6c08 .cfa: sp 0 +
STACK CFI 6c0c .cfa: x29 96 +
STACK CFI INIT 6c3c 170 .cfa: sp 0 +
STACK CFI 6c40 .cfa: sp 48 +
STACK CFI 6c4c .cfa: x29 48 + x19: .cfa -8 + ^ x20: .cfa -16 + ^ x21: .cfa -32 + ^ .ra: .cfa -40 + ^ x29: .cfa -48 + ^
STACK CFI 6d80 .cfa: sp 48 +
STACK CFI 6d8c .cfa: sp 0 +
STACK CFI 6d90 .cfa: x29 48 +
STACK CFI INIT 6ef4 1ac .cfa: sp 0 +
STACK CFI 6ef8 .cfa: sp 128 +
STACK CFI 6f10 .cfa: x29 80 + x19: .cfa -8 + ^ x20: .cfa -16 + ^ x21: .cfa -24 + ^ x22: .cfa -32 + ^ x23: .cfa -40 + ^ x24: .cfa -48 + ^ x25: .cfa -64 + ^ .ra: .cfa -72 + ^ x29: .cfa -80 + ^
STACK CFI 7034 .cfa: sp 128 +
STACK CFI 704c .cfa: sp 0 +
STACK CFI 7050 .cfa: x29 80 +
STACK CFI INIT 7818 480 .cfa: sp 0 +
STACK CFI 781c .cfa: sp 112 +
STACK CFI 7834 .cfa: x29 80 + x19: .cfa -8 + ^ x20: .cfa -16 + ^ x21: .cfa -24 + ^ x22: .cfa -32 + ^ x23: .cfa -40 + ^ x24: .cfa -48 + ^ x25: .cfa -56 + ^ x26: .cfa -64 + ^ .ra: .cfa -72 + ^ x29: .cfa -80 + ^
STACK CFI 7c4c .cfa: sp 112 +
STACK CFI 7c64 .cfa: sp 0 +
STACK CFI 7c68 .cfa: x29 80 +
STACK CFI INIT 7e44 6c8 .cfa: sp 0 +
STACK CFI 7e48 .cfa: sp 224 +
STACK CFI 7e64 .cfa: x29 96 + x19: .cfa -8 + ^ x20: .cfa -16 + ^ x21: .cfa -24 + ^ x22: .cfa -32 + ^ x23: .cfa -40 + ^ x24: .cfa -48 + ^ x25: .cfa -56 + ^ x26: .cfa -64 + ^ x27: .cfa -72 + ^ x28: .cfa -80 + ^ .ra: .cfa -88 + ^ x29: .cfa -96 + ^
STACK CFI 839c .cfa: sp 224 +
STACK CFI 83b8 .cfa: sp 0 +
STACK CFI 83bc .cfa: x29 96 +
STACK CFI INIT 891c 310 .cfa: sp 0 +
STACK CFI 8920 .cfa: sp 224 +
STACK CFI 8934 .cfa: x29 64 + x19: .cfa -8 + ^ x20: .cfa -16 + ^ x21: .cfa -24 + ^ x22: .cfa -32 + ^ x23: .cfa -48 + ^ .ra: .cfa -56 + ^ x29: .cfa -64 + ^
STACK CFI 8b14 .cfa: sp 224 +
STACK CFI 8b28 .cfa: sp 0 +
STACK CFI 8b2c .cfa: x29 64 +
STACK CFI INIT 8cbc 1350 .cfa: sp 0 +
STACK CFI 8cc0 .cfa: sp 144 +
STACK CFI 8ce4 .cfa: x29 96 + x19: .cfa -8 + ^ x20: .cfa -16 + ^ x21: .cfa -24 + ^ x22: .cfa -32 + ^ x23: .cfa -40 + ^ x24: .cfa -48 + ^ x25: .cfa -56 + ^ x26: .cfa -64 + ^ x27: .cfa -72 + ^ x28: .cfa -80 + ^ .ra: .cfa -88 + ^ x29: .cfa -96 + ^ v8: .cfa -104 + ^ v9: .cfa -112 + ^ v10: .cfa -120 + ^ v11: .cfa -128 + ^ v12: .cfa -144 + ^
STACK CFI 8dd0 .cfa: sp 144 +
STACK CFI 8df4 .cfa: sp 0 +
STACK CFI 8df8 .cfa: x29 96 +
STACK CFI 9d58 .cfa: sp 144 +
STACK CFI 9d7c .cfa: sp 0 +
STACK CFI 9d80 .cfa: x29 96 +
STACK CFI INIT a6a8 190 .cfa: sp 0 +
STACK CFI a6ac .cfa: sp 96 +
STACK CFI a6c0 .cfa: x29 64 + x19: .cfa -8 + ^ x20: .cfa -16 + ^ x21: .cfa -24 + ^ x22: .cfa -32 + ^ x23: .cfa -48 + ^ .ra: .cfa -56 + ^ x29: .cfa -64 + ^
STACK CFI a7b8 .cfa: sp 96 +
STACK CFI a7cc .cfa: sp 0 +
STACK CFI a7d0 .cfa: x29 64 +
