MODULE Linux arm64 6F82711F43A954A039DA49A64CA10A1E0 timestepyt.nostupidbuttons.android64.so
INFO CODE_ID 1F71826FA943A05439DA49A64CA10A1E5B0CE196
INFO GENERATOR mozilla/dump_syms 2.3.4
PUBLIC 2e50 0 __on_dlclose
PUBLIC 2e60 0 __emutls_unregister_key
PUBLIC 2e68 0 __on_dlclose_late
PUBLIC 2e70 0 __atexit_handler_wrapper
PUBLIC 2e84 0 atexit
PUBLIC 2ea0 0 pthread_atfork
PUBLIC 2eb0 0 __aarch64_ldadd8_relax
PUBLIC 2ee0 0 init_have_lse_atomics
PUBLIC 2f78 0 __init_cpu_features_constructor
PUBLIC 3514 0 __init_cpu_features
PUBLIC 35a0 0 __aarch64_ldadd8_acq_rel
PUBLIC 35d0 0 geode::Mod::getSettingValue<bool>(std::__ndk1::basic_string_view<char, std::__ndk1::char_traits<char> >) const
PUBLIC 3700 0 __cxx_global_var_init
PUBLIC 42d4 0 geode::modifier::ModifyBase<geode::modifier::ModifyDerive<MyMenuLayer, MenuLayer> >::~ModifyBase()
PUBLIC 42ec 0 __clang_call_terminate
PUBLIC 42fc 0 geode::cast::traverseTypeinfoFor(void*, geode::cast::ClassTypeinfoType const*, char const*)
PUBLIC 43f4 0 geode::modifier::ModifyDerive<MyMenuLayer, MenuLayer>::apply()
PUBLIC 49a4 0 std::__ndk1::shared_ptr<geode::Hook>::~shared_ptr[abi:ne180000]()
PUBLIC 49f4 0 geode::impl::ResultData<geode::Hook*, std::__ndk1::basic_string<char, std::__ndk1::char_traits<char>, std::__ndk1::allocator<char> > >::~ResultData()
PUBLIC 4a68 0 std::__ndk1::vector<std::__ndk1::basic_string<char, std::__ndk1::char_traits<char>, std::__ndk1::allocator<char> >, std::__ndk1::allocator<std::__ndk1::basic_string<char, std::__ndk1::char_traits<char>, std::__ndk1::allocator<char> > > >::~vector[abi:ne180000]()
PUBLIC 4ae4 0 geode::modifier::ModifyBase<geode::modifier::ModifyDerive<MyMenuLayer, MenuLayer> >::apply()
PUBLIC 4ae8 0 _ZN5geode15UnwrapExceptionC2IRPNS_4HookEQsr4implE18IsStringStreamableIT_EEENS_4impl5OkTagEOS5_
PUBLIC 51e4 0 std::__ndk1::__throw_bad_variant_access[abi:ne180000]()
PUBLIC m 5218 0 std::__ndk1::basic_stringstream<char, std::__ndk1::char_traits<char>, std::__ndk1::allocator<char> >::~basic_stringstream()
PUBLIC 5298 0 geode::UnwrapException::~UnwrapException()
PUBLIC 52bc 0 std::__ndk1::basic_string<char, std::__ndk1::char_traits<char>, std::__ndk1::allocator<char> >::__throw_length_error[abi:ne180000]() const
PUBLIC 52d0 0 std::__ndk1::__throw_length_error[abi:ne180000](char const*)
PUBLIC 5320 0 std::length_error::length_error[abi:ne180000](char const*)
PUBLIC 5350 0 std::__throw_bad_array_new_length([abi:ne180000], void)
PUBLIC 5384 0 std::__ndk1::basic_string<char, std::__ndk1::char_traits<char>, std::__ndk1::allocator<char> >::__init_copy_ctor_external(char const*, unsigned long)
PUBLIC 5400 0 std::__ndk1::__split_buffer<std::__ndk1::basic_string<char, std::__ndk1::char_traits<char>, std::__ndk1::allocator<char> >, std::__ndk1::allocator<std::__ndk1::basic_string<char, std::__ndk1::char_traits<char>, std::__ndk1::allocator<char> > >&>::~__split_buffer()
PUBLIC 5468 0 std::__ndk1::vector<std::__ndk1::basic_string<char, std::__ndk1::char_traits<char>, std::__ndk1::allocator<char> >, std::__ndk1::allocator<std::__ndk1::basic_string<char, std::__ndk1::char_traits<char>, std::__ndk1::allocator<char> > > >::__throw_length_error[abi:ne180000]() const
PUBLIC 547c 0 std::__ndk1::__variant_detail::__visitation::__base::__dispatcher<(unsigned long)0>::__dispatch[abi:ne180000]<std::__ndk1::__variant_detail::__dtor<std::__ndk1::__variant_detail::__traits<geode::Hook*, std::__ndk1::basic_string<char, std::__ndk1::char_traits<char>, std::__ndk1::allocator<char> > >, (std::__ndk1::__variant_detail::_Trait)1>::__destroy[abi:ne180000]()::{lambda(auto:1&)#1}, std::__ndk1::__variant_detail::__base<(std::__ndk1::__variant_detail::__traits<geode::Hook*, std::__ndk1::basic_string<char, std::__ndk1::char_traits<char>, std::__ndk1::allocator<char> > >)1, geode::Hook, std::__ndk1::allocator<char> >&>(std::__ndk1::__variant_detail::__dtor<std::__ndk1::__variant_detail::__traits<geode::Hook*, std::__ndk1::basic_string<char, std::__ndk1::char_traits<char>, std::__ndk1::allocator<char> > >, (std::__ndk1::__variant_detail::_Trait)1>, std::__ndk1::__variant_detail::__base<(std::__ndk1::__variant_detail::__traits<geode::Hook*, std::__ndk1::basic_string<char, std::__ndk1::char_traits<char>, std::__ndk1::allocator<char> > >)1, geode::Hook, std::__ndk1::allocator<char> >&)
PUBLIC 5480 0 std::__ndk1::__variant_detail::__visitation::__base::__dispatcher<(unsigned long)1>::__dispatch[abi:ne180000]<std::__ndk1::__variant_detail::__dtor<std::__ndk1::__variant_detail::__traits<geode::Hook*, std::__ndk1::basic_string<char, std::__ndk1::char_traits<char>, std::__ndk1::allocator<char> > >, (std::__ndk1::__variant_detail::_Trait)1>::__destroy[abi:ne180000]()::{lambda(auto:1&)#1}, std::__ndk1::__variant_detail::__base<(std::__ndk1::__variant_detail::__traits<geode::Hook*, std::__ndk1::basic_string<char, std::__ndk1::char_traits<char>, std::__ndk1::allocator<char> > >)1, geode::Hook, std::__ndk1::allocator<char> >&>(std::__ndk1::__variant_detail::__dtor<std::__ndk1::__variant_detail::__traits<geode::Hook*, std::__ndk1::basic_string<char, std::__ndk1::char_traits<char>, std::__ndk1::allocator<char> > >, (std::__ndk1::__variant_detail::_Trait)1>, std::__ndk1::__variant_detail::__base<(std::__ndk1::__variant_detail::__traits<geode::Hook*, std::__ndk1::basic_string<char, std::__ndk1::char_traits<char>, std::__ndk1::allocator<char> > >)1, geode::Hook, std::__ndk1::allocator<char> >&)
PUBLIC 5494 0 std::__ndk1::__tree<std::__ndk1::__value_type<std::__ndk1::basic_string<char, std::__ndk1::char_traits<char>, std::__ndk1::allocator<char> >, std::__ndk1::shared_ptr<geode::Hook> >, std::__ndk1::__map_value_compare<std::__ndk1::basic_string<char, std::__ndk1::char_traits<char>, std::__ndk1::allocator<char> >, std::__ndk1::__value_type<std::__ndk1::basic_string<char, std::__ndk1::char_traits<char>, std::__ndk1::allocator<char> >, std::__ndk1::shared_ptr<geode::Hook> >, std::__ndk1::less<std::__ndk1::basic_string<char, std::__ndk1::char_traits<char>, std::__ndk1::allocator<char> > >, true>, std::__ndk1::allocator<std::__ndk1::__value_type<std::__ndk1::basic_string<char, std::__ndk1::char_traits<char>, std::__ndk1::allocator<char> >, std::__ndk1::shared_ptr<geode::Hook> > > >::destroy(std::__ndk1::__tree_node<std::__ndk1::__value_type<std::__ndk1::basic_string<char, std::__ndk1::char_traits<char>, std::__ndk1::allocator<char> >, std::__ndk1::shared_ptr<geode::Hook> >, void*>*)
PUBLIC 5518 0 geode::modifier::AsStaticFunction_init<MyMenuLayer, bool (MyMenuLayer::*)()>::Impl<bool (MyMenuLayer::*)()>::function(MyMenuLayer*)
PUBLIC 5a04 0 geode::addresser::Addresser::addressOfVirtual<bool, MenuLayer, >(bool (MenuLayer::*)())
PUBLIC 5aac 0 MenuLayer::MenuLayer(geode::ZeroConstructorType)
PUBLIC 5b48 0 std::__ndk1::shared_ptr<tulip::hook::CallingConvention>::~shared_ptr[abi:ne180000]()
PUBLIC 5b98 0 tulip::hook::HandlerMetadata::~HandlerMetadata()
PUBLIC m 5bfc 0 geodeImplicitEntry
PUBLIC 5c40 0 <.plt ELF section in timestepyt.nostupidbuttons.android64.so>
STACK CFI INIT 2e50 10 .cfa: sp 0 +
STACK CFI INIT 2e60 8 .cfa: sp 0 +
STACK CFI INIT 2e68 8 .cfa: sp 0 +
STACK CFI INIT 2e70 14 .cfa: sp 0 +
STACK CFI INIT 2e84 1c .cfa: sp 0 +
STACK CFI INIT 2ea0 10 .cfa: sp 0 +
STACK CFI INIT 2eb0 30 .cfa: sp 0 +
STACK CFI INIT 2ee0 98 .cfa: sp 0 +
STACK CFI INIT 2f78 59c .cfa: sp 0 +
STACK CFI INIT 3514 8c .cfa: sp 0 +
STACK CFI INIT 35a0 30 .cfa: sp 0 +
STACK CFI INIT 35d0 130 .cfa: sp 0 +
STACK CFI 35d4 .cfa: sp 80 +
STACK CFI 35e4 .cfa: x29 48 + x19: .cfa -8 + ^ x20: .cfa -16 + ^ x21: .cfa -24 + ^ x22: .cfa -32 + ^ .ra: .cfa -40 + ^ x29: .cfa -48 + ^
STACK CFI 36e8 .cfa: sp 80 +
STACK CFI 36f8 .cfa: sp 0 +
STACK CFI 36fc .cfa: x29 48 +
STACK CFI INIT 42d4 18 .cfa: sp 0 +
STACK CFI INIT 42ec 10 .cfa: sp 0 +
STACK CFI 42f0 .cfa: sp 16 +
STACK CFI 42f4 .cfa: x29 16 + .ra: .cfa -8 + ^ x29: .cfa -16 + ^
STACK CFI INIT 42fc f8 .cfa: sp 0 +
STACK CFI 4300 .cfa: sp 64 +
STACK CFI 4310 .cfa: x29 64 + x19: .cfa -8 + ^ x20: .cfa -16 + ^ x21: .cfa -24 + ^ x22: .cfa -32 + ^ x23: .cfa -48 + ^ .ra: .cfa -56 + ^ x29: .cfa -64 + ^
STACK CFI 436c .cfa: sp 64 +
STACK CFI 437c .cfa: sp 0 +
STACK CFI 4380 .cfa: x29 64 +
STACK CFI 439c .cfa: sp 64 +
STACK CFI 43ac .cfa: sp 0 +
STACK CFI 43b0 .cfa: x29 64 +
STACK CFI 43e0 .cfa: sp 64 +
STACK CFI 43f0 .cfa: sp 0 +
STACK CFI INIT 49a4 50 .cfa: sp 0 +
STACK CFI 49a8 .cfa: sp 32 +
STACK CFI 49b0 .cfa: x29 32 + x19: .cfa -16 + ^ .ra: .cfa -24 + ^ x29: .cfa -32 + ^
STACK CFI 49c8 .cfa: sp 32 +
STACK CFI 49d0 .cfa: sp 0 +
STACK CFI 49d4 .cfa: x29 32 +
STACK CFI 49e8 .cfa: sp 32 +
STACK CFI 49f0 .cfa: sp 0 +
STACK CFI INIT 4a68 7c .cfa: sp 0 +
STACK CFI 4a6c .cfa: sp 48 +
STACK CFI 4a78 .cfa: x29 48 + x19: .cfa -8 + ^ x20: .cfa -16 + ^ x21: .cfa -32 + ^ .ra: .cfa -40 + ^ x29: .cfa -48 + ^
STACK CFI 4ac4 .cfa: sp 48 +
STACK CFI 4ad0 .cfa: sp 0 +
STACK CFI 4ad4 .cfa: sp 48 +
STACK CFI 4ae0 .cfa: sp 0 +
STACK CFI INIT 4ae4 4 .cfa: sp 0 +
STACK CFI INIT 51e4 34 .cfa: sp 0 +
STACK CFI 51e8 .cfa: sp 16 +
STACK CFI 51ec .cfa: x29 16 + .ra: .cfa -8 + ^ x29: .cfa -16 + ^
STACK CFI INIT 5218 80 .cfa: sp 0 +
STACK CFI 521c .cfa: sp 48 +
STACK CFI 5228 .cfa: x29 48 + x19: .cfa -8 + ^ x20: .cfa -16 + ^ x21: .cfa -32 + ^ .ra: .cfa -40 + ^ x29: .cfa -48 + ^
STACK CFI 5288 .cfa: sp 48 +
STACK CFI 5294 .cfa: sp 0 +
STACK CFI INIT 5298 24 .cfa: sp 0 +
STACK CFI 529c .cfa: sp 32 +
STACK CFI 52a4 .cfa: x29 32 + x19: .cfa -16 + ^ .ra: .cfa -24 + ^ x29: .cfa -32 + ^
STACK CFI 52b0 .cfa: sp 32 +
STACK CFI 52b8 .cfa: sp 0 +
STACK CFI INIT 52bc 14 .cfa: sp 0 +
STACK CFI 52c0 .cfa: sp 16 +
STACK CFI 52c4 .cfa: x29 16 + .ra: .cfa -8 + ^ x29: .cfa -16 + ^
STACK CFI INIT 5320 30 .cfa: sp 0 +
STACK CFI 5324 .cfa: sp 32 +
STACK CFI 532c .cfa: x29 32 + x19: .cfa -16 + ^ .ra: .cfa -24 + ^ x29: .cfa -32 + ^
STACK CFI 5344 .cfa: sp 32 +
STACK CFI 534c .cfa: sp 0 +
STACK CFI INIT 5350 34 .cfa: sp 0 +
STACK CFI 5354 .cfa: sp 32 +
STACK CFI 535c .cfa: x29 32 + x19: .cfa -16 + ^ .ra: .cfa -24 + ^ x29: .cfa -32 + ^
STACK CFI INIT 5384 7c .cfa: sp 0 +
STACK CFI 5388 .cfa: sp 48 +
STACK CFI 5394 .cfa: x29 48 + x19: .cfa -8 + ^ x20: .cfa -16 + ^ x21: .cfa -24 + ^ x22: .cfa -32 + ^ .ra: .cfa -40 + ^ x29: .cfa -48 + ^
STACK CFI 53ac .cfa: sp 48 +
STACK CFI 53b8 .cfa: sp 0 +
STACK CFI 53bc .cfa: x29 48 +
STACK CFI 53ec .cfa: sp 48 +
STACK CFI 53f8 .cfa: sp 0 +
STACK CFI 53fc .cfa: x29 48 +
STACK CFI INIT 5400 68 .cfa: sp 0 +
STACK CFI 5404 .cfa: sp 32 +
STACK CFI 540c .cfa: x29 32 + x19: .cfa -8 + ^ x20: .cfa -16 + ^ .ra: .cfa -24 + ^ x29: .cfa -32 + ^
STACK CFI 5424 .cfa: sp 32 +
STACK CFI 542c .cfa: sp 0 +
STACK CFI 5430 .cfa: x29 32 +
STACK CFI 545c .cfa: sp 32 +
STACK CFI 5464 .cfa: sp 0 +
STACK CFI INIT 5468 14 .cfa: sp 0 +
STACK CFI 546c .cfa: sp 16 +
STACK CFI 5470 .cfa: x29 16 + .ra: .cfa -8 + ^ x29: .cfa -16 + ^
STACK CFI INIT 547c 4 .cfa: sp 0 +
STACK CFI INIT 5480 14 .cfa: sp 0 +
STACK CFI INIT 5494 84 .cfa: sp 0 +
STACK CFI 549c .cfa: sp 32 +
STACK CFI 54a4 .cfa: x29 32 + x19: .cfa -8 + ^ x20: .cfa -16 + ^ .ra: .cfa -24 + ^ x29: .cfa -32 + ^
STACK CFI 54e4 .cfa: sp 32 +
STACK CFI 54ec .cfa: sp 0 +
STACK CFI 54f4 .cfa: x29 32 +
STACK CFI INIT 5aac 9c .cfa: sp 0 +
STACK CFI INIT 5b48 50 .cfa: sp 0 +
STACK CFI 5b4c .cfa: sp 32 +
STACK CFI 5b54 .cfa: x29 32 + x19: .cfa -16 + ^ .ra: .cfa -24 + ^ x29: .cfa -32 + ^
STACK CFI 5b6c .cfa: sp 32 +
STACK CFI 5b74 .cfa: sp 0 +
STACK CFI 5b78 .cfa: x29 32 +
STACK CFI 5b8c .cfa: sp 32 +
STACK CFI 5b94 .cfa: sp 0 +
STACK CFI INIT 5b98 64 .cfa: sp 0 +
STACK CFI 5b9c .cfa: sp 32 +
STACK CFI 5ba4 .cfa: x29 32 + x19: .cfa -16 + ^ .ra: .cfa -24 + ^ x29: .cfa -32 + ^
STACK CFI 5bd0 .cfa: sp 32 +
STACK CFI 5bd8 .cfa: sp 0 +
STACK CFI 5bdc .cfa: x29 32 +
STACK CFI 5bf0 .cfa: sp 32 +
STACK CFI 5bf8 .cfa: sp 0 +
STACK CFI INIT 5bfc 3c .cfa: sp 0 +
STACK CFI 5c00 .cfa: sp 32 +
STACK CFI 5c08 .cfa: x29 32 + x19: .cfa -16 + ^ .ra: .cfa -24 + ^ x29: .cfa -32 + ^
STACK CFI 5c14 .cfa: sp 32 +
STACK CFI 5c1c .cfa: sp 0 +
STACK CFI 5c20 .cfa: x29 32 +
STACK CFI 5c2c .cfa: sp 32 +
STACK CFI 5c34 .cfa: sp 0 +
STACK CFI INIT 3700 bd4 .cfa: sp 0 +
STACK CFI 3704 .cfa: sp 240 +
STACK CFI 3720 .cfa: x29 96 + x19: .cfa -8 + ^ x20: .cfa -16 + ^ x21: .cfa -24 + ^ x22: .cfa -32 + ^ x23: .cfa -40 + ^ x24: .cfa -48 + ^ x25: .cfa -56 + ^ x26: .cfa -64 + ^ x27: .cfa -72 + ^ x28: .cfa -80 + ^ .ra: .cfa -88 + ^ x29: .cfa -96 + ^
STACK CFI 3afc .cfa: sp 240 +
STACK CFI 3b18 .cfa: sp 0 +
STACK CFI 3b1c .cfa: x29 96 +
STACK CFI 417c .cfa: sp 240 +
STACK CFI 4198 .cfa: sp 0 +
STACK CFI 419c .cfa: x29 96 +
STACK CFI INIT 43f4 5b0 .cfa: sp 0 +
STACK CFI 43f8 .cfa: sp 208 +
STACK CFI 4414 .cfa: x29 96 + x19: .cfa -8 + ^ x20: .cfa -16 + ^ x21: .cfa -24 + ^ x22: .cfa -32 + ^ x23: .cfa -40 + ^ x24: .cfa -48 + ^ x25: .cfa -56 + ^ x26: .cfa -64 + ^ x27: .cfa -72 + ^ x28: .cfa -80 + ^ .ra: .cfa -88 + ^ x29: .cfa -96 + ^
STACK CFI 48a0 .cfa: sp 208 +
STACK CFI 48bc .cfa: sp 0 +
STACK CFI 48c0 .cfa: x29 96 +
STACK CFI INIT 49f4 74 .cfa: sp 0 +
STACK CFI 49f8 .cfa: sp 48 +
STACK CFI 4a04 .cfa: x29 32 + x19: .cfa -8 + ^ x20: .cfa -16 + ^ .ra: .cfa -24 + ^ x29: .cfa -32 + ^
STACK CFI 4a50 .cfa: sp 48 +
STACK CFI 4a5c .cfa: sp 0 +
STACK CFI 4a60 .cfa: x29 32 +
STACK CFI INIT 4ae8 6fc .cfa: sp 0 +
STACK CFI 4aec .cfa: sp 496 +
STACK CFI 4b08 .cfa: x29 96 + x19: .cfa -8 + ^ x20: .cfa -16 + ^ x21: .cfa -24 + ^ x22: .cfa -32 + ^ x23: .cfa -40 + ^ x24: .cfa -48 + ^ x25: .cfa -56 + ^ x26: .cfa -64 + ^ x27: .cfa -72 + ^ x28: .cfa -80 + ^ .ra: .cfa -88 + ^ x29: .cfa -96 + ^
STACK CFI 50b8 .cfa: sp 496 +
STACK CFI 50d4 .cfa: sp 0 +
STACK CFI 50d8 .cfa: x29 96 +
STACK CFI INIT 52d0 50 .cfa: sp 0 +
STACK CFI 52d4 .cfa: sp 32 +
STACK CFI 52dc .cfa: x29 32 + x19: .cfa -8 + ^ x20: .cfa -16 + ^ .ra: .cfa -24 + ^ x29: .cfa -32 + ^
STACK CFI INIT 5518 4ec .cfa: sp 0 +
STACK CFI 551c .cfa: sp 224 +
STACK CFI 5534 .cfa: x29 80 + x19: .cfa -8 + ^ x20: .cfa -16 + ^ x21: .cfa -24 + ^ x22: .cfa -32 + ^ x23: .cfa -40 + ^ x24: .cfa -48 + ^ x25: .cfa -56 + ^ x26: .cfa -64 + ^ .ra: .cfa -72 + ^ x29: .cfa -80 + ^
STACK CFI 596c .cfa: sp 224 +
STACK CFI 5984 .cfa: sp 0 +
STACK CFI 5988 .cfa: x29 80 +
STACK CFI INIT 5a04 a8 .cfa: sp 0 +
STACK CFI 5a08 .cfa: sp 32 +
STACK CFI 5a10 .cfa: x29 32 + x19: .cfa -16 + ^ .ra: .cfa -24 + ^ x29: .cfa -32 + ^
STACK CFI 5a44 .cfa: sp 32 +
STACK CFI 5a4c .cfa: sp 0 +
STACK CFI 5a50 .cfa: x29 32 +
STACK CFI 5a54 .cfa: sp 32 +
STACK CFI 5a5c .cfa: sp 0 +
STACK CFI 5a60 .cfa: x29 32 +
