MODULE Linux arm64 47EC7BB5B4933057B6A6F66E90B2EC130 user95401.scrollbar_everywhere.android64.so
INFO CODE_ID B57BEC4793B45730B6A6F66E90B2EC13E9FFA90A
INFO GENERATOR mozilla/dump_syms 2.3.4
PUBLIC 5778 0 __on_dlclose
PUBLIC 5788 0 __emutls_unregister_key
PUBLIC 5790 0 __on_dlclose_late
PUBLIC 5798 0 __atexit_handler_wrapper
PUBLIC 57ac 0 atexit
PUBLIC 57c8 0 pthread_atfork
PUBLIC 57d8 0 unwind_phase2
PUBLIC 590c 0 _Unwind_Resume
PUBLIC 5990 0 unwind_phase2_forced
PUBLIC m 5a84 0 __unw_init_local
PUBLIC m 5b2c 0 __unw_get_reg
PUBLIC 5ba8 0 __unw_step_stage2
PUBLIC m 5bbc 0 __unw_get_proc_info
PUBLIC m 5bfc 0 __unw_resume
PUBLIC 5c24 0 libunwind::CFI_Parser<libunwind::LocalAddressSpace>::decodeFDE(libunwind::LocalAddressSpace&, unsigned long, libunwind::CFI_Parser<libunwind::LocalAddressSpace>::FDE_Info*, libunwind::CFI_Parser<libunwind::LocalAddressSpace>::CIE_Info*, bool)
PUBLIC 5db4 0 libunwind::CFI_Parser<libunwind::LocalAddressSpace>::parseCIE(libunwind::LocalAddressSpace&, unsigned long, libunwind::CFI_Parser<libunwind::LocalAddressSpace>::CIE_Info*)
PUBLIC 607c 0 libunwind::AbstractUnwindCursor::~AbstractUnwindCursor()
PUBLIC 6084 0 libunwind::UnwindCursor<libunwind::LocalAddressSpace, libunwind::Registers_arm64>::~UnwindCursor()
PUBLIC 608c 0 libunwind::UnwindCursor<libunwind::LocalAddressSpace, libunwind::Registers_arm64>::validReg(int)
PUBLIC 60d0 0 libunwind::UnwindCursor<libunwind::LocalAddressSpace, libunwind::Registers_arm64>::getReg(int)
PUBLIC 61b8 0 libunwind::UnwindCursor<libunwind::LocalAddressSpace, libunwind::Registers_arm64>::setReg(int, unsigned long)
PUBLIC 62a0 0 libunwind::UnwindCursor<libunwind::LocalAddressSpace, libunwind::Registers_arm64>::validFloatReg(int)
PUBLIC 62b4 0 libunwind::UnwindCursor<libunwind::LocalAddressSpace, libunwind::Registers_arm64>::getFloatReg(int)
PUBLIC 62c4 0 libunwind::UnwindCursor<libunwind::LocalAddressSpace, libunwind::Registers_arm64>::setFloatReg(int, double)
PUBLIC 62d4 0 libunwind::UnwindCursor<libunwind::LocalAddressSpace, libunwind::Registers_arm64>::step(bool)
PUBLIC 63c4 0 libunwind::UnwindCursor<libunwind::LocalAddressSpace, libunwind::Registers_arm64>::getInfo(unw_proc_info_t*)
PUBLIC 6408 0 libunwind::UnwindCursor<libunwind::LocalAddressSpace, libunwind::Registers_arm64>::jumpto()
PUBLIC 6414 0 libunwind::UnwindCursor<libunwind::LocalAddressSpace, libunwind::Registers_arm64>::isSignalFrame()
PUBLIC 6420 0 libunwind::UnwindCursor<libunwind::LocalAddressSpace, libunwind::Registers_arm64>::getFunctionName(char*, unsigned long, unsigned long*)
PUBLIC 644c 0 libunwind::UnwindCursor<libunwind::LocalAddressSpace, libunwind::Registers_arm64>::setInfoBasedOnIPRegister(bool)
PUBLIC 6688 0 libunwind::UnwindCursor<libunwind::LocalAddressSpace, libunwind::Registers_arm64>::getRegisterName(int)
PUBLIC 6694 0 libunwind::UnwindCursor<libunwind::LocalAddressSpace, libunwind::Registers_arm64>::stepThroughSigReturn(libunwind::Registers_arm64&)
PUBLIC 67b4 0 libunwind::DwarfInstructions<libunwind::LocalAddressSpace, libunwind::Registers_arm64>::stepWithDwarf(libunwind::LocalAddressSpace&, unsigned long, unsigned long, libunwind::Registers_arm64&, bool&, bool)
PUBLIC 6c48 0 libunwind::CFI_Parser<libunwind::LocalAddressSpace>::parseFDEInstructions(libunwind::LocalAddressSpace&, libunwind::CFI_Parser<libunwind::LocalAddressSpace>::FDE_Info const&, libunwind::CFI_Parser<libunwind::LocalAddressSpace>::CIE_Info const&, unsigned long, int, libunwind::CFI_Parser<libunwind::LocalAddressSpace>::PrologInfo*)
PUBLIC 77c0 0 libunwind::DwarfInstructions<libunwind::LocalAddressSpace, libunwind::Registers_arm64>::getCFA(libunwind::LocalAddressSpace&, libunwind::CFI_Parser<libunwind::LocalAddressSpace>::PrologInfo const&, libunwind::Registers_arm64 const&)
PUBLIC 78f4 0 libunwind::DwarfInstructions<libunwind::LocalAddressSpace, libunwind::Registers_arm64>::getSavedRegister(libunwind::LocalAddressSpace&, libunwind::Registers_arm64 const&, unsigned long, libunwind::CFI_Parser<libunwind::LocalAddressSpace>::RegisterLocation const&)
PUBLIC 7b04 0 libunwind::LocalAddressSpace::getEncodedP(unsigned long&, unsigned long, unsigned char, unsigned long)
PUBLIC 7e90 0 libunwind::LocalAddressSpace::getULEB128(unsigned long&, unsigned long)
PUBLIC 8058 0 libunwind::DwarfInstructions<libunwind::LocalAddressSpace, libunwind::Registers_arm64>::evaluateExpression(unsigned long, libunwind::LocalAddressSpace&, libunwind::Registers_arm64 const&, unsigned long)
PUBLIC 8a1c 0 libunwind::UnwindCursor<libunwind::LocalAddressSpace, libunwind::Registers_arm64>::getInfoFromDwarfSection(unsigned long, libunwind::UnwindInfoSections const&, unsigned int)
PUBLIC 8cf0 0 libunwind::findUnwindSectionsByPhdr(dl_phdr_info*, unsigned long, void*)
PUBLIC 8e20 0 libunwind::EHHeaderParser<libunwind::LocalAddressSpace>::decodeEHHdr(libunwind::LocalAddressSpace&, unsigned long, unsigned long, libunwind::EHHeaderParser<libunwind::LocalAddressSpace>::EHHeaderInfo&)
PUBLIC 8f40 0 libunwind::CFI_Parser<libunwind::LocalAddressSpace>::findFDE(libunwind::LocalAddressSpace&, unsigned long, unsigned long, unsigned long, unsigned long, libunwind::CFI_Parser<libunwind::LocalAddressSpace>::FDE_Info*, libunwind::CFI_Parser<libunwind::LocalAddressSpace>::CIE_Info*)
PUBLIC 9108 0 libunwind::EHHeaderParser<libunwind::LocalAddressSpace>::findFDE(libunwind::LocalAddressSpace&, unsigned long, unsigned long, unsigned int, libunwind::CFI_Parser<libunwind::LocalAddressSpace>::FDE_Info*, libunwind::CFI_Parser<libunwind::LocalAddressSpace>::CIE_Info*)
PUBLIC 9270 0 libunwind::EHHeaderParser<libunwind::LocalAddressSpace>::getTableEntrySize(unsigned char)
PUBLIC 936c 0 libunwind::Registers_arm64::getRegisterName(int)
PUBLIC 939c 0 __libunwind_Registers_arm64_jumpto
PUBLIC m 942c 0 __unw_getcontext
PUBLIC 94c8 0 addScrollBarToNode(cocos2d::CCNode*, float, cocos2d::CCNode*)
PUBLIC 9874 0 geode::Ref<cocos2d::CCNode>::~Ref()
PUBLIC 9890 0 addScrollbar(cocos2d::CCNode*, float, cocos2d::CCNode*)::$_0::~$_0()
PUBLIC 98cc 0 __cxx_global_var_init
PUBLIC 9a48 0 __cxx_global_var_init.1
PUBLIC 9bb0 0 __cxx_global_var_init.3
PUBLIC 9d28 0 std::__ndk1::__throw_length_error[abi:ne190000](char const*)
PUBLIC 9d78 0 std::length_error::length_error[abi:ne190000](char const*)
PUBLIC 9da8 0 std::__throw_bad_array_new_length([abi:ne190000], void)
PUBLIC 9ddc 0 __clang_call_terminate
PUBLIC 9dec 0 geode::cast::traverseTypeinfoFor(void*, geode::cast::ClassTypeinfoType const*, char const*)
PUBLIC 9ee4 0 std::__ndk1::__function::__func<addScrollbar(cocos2d::CCNode*, float, cocos2d::CCNode*)::$_0, std::__ndk1::allocator<addScrollbar(cocos2d::CCNode*, float, cocos2d::CCNode*)::$_0>, void ()>::~__func()
PUBLIC 9f2c 0 std::__ndk1::__function::__func<addScrollbar(cocos2d::CCNode*, float, cocos2d::CCNode*)::$_0, std::__ndk1::allocator<addScrollbar(cocos2d::CCNode*, float, cocos2d::CCNode*)::$_0>, void ()>::~__func()
PUBLIC 9f78 0 std::__ndk1::__function::__func<addScrollbar(cocos2d::CCNode*, float, cocos2d::CCNode*)::$_0, std::__ndk1::allocator<addScrollbar(cocos2d::CCNode*, float, cocos2d::CCNode*)::$_0>, void ()>::__clone() const
PUBLIC a010 0 std::__ndk1::__function::__func<addScrollbar(cocos2d::CCNode*, float, cocos2d::CCNode*)::$_0, std::__ndk1::allocator<addScrollbar(cocos2d::CCNode*, float, cocos2d::CCNode*)::$_0>, void ()>::__clone(std::__ndk1::__function::__base<void ()>*) const
PUBLIC a078 0 std::__ndk1::__function::__func<addScrollbar(cocos2d::CCNode*, float, cocos2d::CCNode*)::$_0, std::__ndk1::allocator<addScrollbar(cocos2d::CCNode*, float, cocos2d::CCNode*)::$_0>, void ()>::destroy()
PUBLIC a0b4 0 std::__ndk1::__function::__func<addScrollbar(cocos2d::CCNode*, float, cocos2d::CCNode*)::$_0, std::__ndk1::allocator<addScrollbar(cocos2d::CCNode*, float, cocos2d::CCNode*)::$_0>, void ()>::destroy_deallocate()
PUBLIC a0f4 0 std::__ndk1::__function::__func<addScrollbar(cocos2d::CCNode*, float, cocos2d::CCNode*)::$_0, std::__ndk1::allocator<addScrollbar(cocos2d::CCNode*, float, cocos2d::CCNode*)::$_0>, void ()>::operator()()
PUBLIC a108 0 std::__ndk1::__function::__func<addScrollbar(cocos2d::CCNode*, float, cocos2d::CCNode*)::$_0, std::__ndk1::allocator<addScrollbar(cocos2d::CCNode*, float, cocos2d::CCNode*)::$_0>, void ()>::target(std::type_info const&) const
PUBLIC a124 0 std::__ndk1::__function::__func<addScrollbar(cocos2d::CCNode*, float, cocos2d::CCNode*)::$_0, std::__ndk1::allocator<addScrollbar(cocos2d::CCNode*, float, cocos2d::CCNode*)::$_0>, void ()>::target_type() const
PUBLIC a130 0 std::__ndk1::__function::__func<AlphaUtils::ModifyLoad<MyScrollLayer>::ModifyLoad(std::__ndk1::basic_string<char, std::__ndk1::char_traits<char>, std::__ndk1::allocator<char> >)::{lambda(cocos2d::CCNode*)#1}, std::__ndk1::allocator<AlphaUtils::ModifyLoad<MyScrollLayer>::ModifyLoad(std::__ndk1::basic_string<char, std::__ndk1::char_traits<char>, std::__ndk1::allocator<char> >)::{lambda(cocos2d::CCNode*)#1}>, void (cocos2d::CCNode*)>::~__func()
PUBLIC a134 0 std::__ndk1::__function::__func<AlphaUtils::ModifyLoad<MyScrollLayer>::ModifyLoad(std::__ndk1::basic_string<char, std::__ndk1::char_traits<char>, std::__ndk1::allocator<char> >)::{lambda(cocos2d::CCNode*)#1}, std::__ndk1::allocator<AlphaUtils::ModifyLoad<MyScrollLayer>::ModifyLoad(std::__ndk1::basic_string<char, std::__ndk1::char_traits<char>, std::__ndk1::allocator<char> >)::{lambda(cocos2d::CCNode*)#1}>, void (cocos2d::CCNode*)>::__clone() const
PUBLIC a158 0 std::__ndk1::__function::__func<AlphaUtils::ModifyLoad<MyScrollLayer>::ModifyLoad(std::__ndk1::basic_string<char, std::__ndk1::char_traits<char>, std::__ndk1::allocator<char> >)::{lambda(cocos2d::CCNode*)#1}, std::__ndk1::allocator<AlphaUtils::ModifyLoad<MyScrollLayer>::ModifyLoad(std::__ndk1::basic_string<char, std::__ndk1::char_traits<char>, std::__ndk1::allocator<char> >)::{lambda(cocos2d::CCNode*)#1}>, void (cocos2d::CCNode*)>::__clone(std::__ndk1::__function::__base<void (cocos2d::CCNode*)>*) const
PUBLIC a168 0 std::__ndk1::__function::__func<AlphaUtils::ModifyLoad<MyScrollLayer>::ModifyLoad(std::__ndk1::basic_string<char, std::__ndk1::char_traits<char>, std::__ndk1::allocator<char> >)::{lambda(cocos2d::CCNode*)#1}, std::__ndk1::allocator<AlphaUtils::ModifyLoad<MyScrollLayer>::ModifyLoad(std::__ndk1::basic_string<char, std::__ndk1::char_traits<char>, std::__ndk1::allocator<char> >)::{lambda(cocos2d::CCNode*)#1}>, void (cocos2d::CCNode*)>::destroy()
PUBLIC a16c 0 std::__ndk1::__function::__func<AlphaUtils::ModifyLoad<MyScrollLayer>::ModifyLoad(std::__ndk1::basic_string<char, std::__ndk1::char_traits<char>, std::__ndk1::allocator<char> >)::{lambda(cocos2d::CCNode*)#1}, std::__ndk1::allocator<AlphaUtils::ModifyLoad<MyScrollLayer>::ModifyLoad(std::__ndk1::basic_string<char, std::__ndk1::char_traits<char>, std::__ndk1::allocator<char> >)::{lambda(cocos2d::CCNode*)#1}>, void (cocos2d::CCNode*)>::destroy_deallocate()
PUBLIC a170 0 std::__ndk1::__function::__func<AlphaUtils::ModifyLoad<MyScrollLayer>::ModifyLoad(std::__ndk1::basic_string<char, std::__ndk1::char_traits<char>, std::__ndk1::allocator<char> >)::{lambda(cocos2d::CCNode*)#1}, std::__ndk1::allocator<AlphaUtils::ModifyLoad<MyScrollLayer>::ModifyLoad(std::__ndk1::basic_string<char, std::__ndk1::char_traits<char>, std::__ndk1::allocator<char> >)::{lambda(cocos2d::CCNode*)#1}>, void (cocos2d::CCNode*)>::operator()(cocos2d::CCNode*&&)
PUBLIC a2a0 0 std::__ndk1::__function::__func<AlphaUtils::ModifyLoad<MyScrollLayer>::ModifyLoad(std::__ndk1::basic_string<char, std::__ndk1::char_traits<char>, std::__ndk1::allocator<char> >)::{lambda(cocos2d::CCNode*)#1}, std::__ndk1::allocator<AlphaUtils::ModifyLoad<MyScrollLayer>::ModifyLoad(std::__ndk1::basic_string<char, std::__ndk1::char_traits<char>, std::__ndk1::allocator<char> >)::{lambda(cocos2d::CCNode*)#1}>, void (cocos2d::CCNode*)>::target(std::type_info const&) const
PUBLIC a2bc 0 std::__ndk1::__function::__func<AlphaUtils::ModifyLoad<MyScrollLayer>::ModifyLoad(std::__ndk1::basic_string<char, std::__ndk1::char_traits<char>, std::__ndk1::allocator<char> >)::{lambda(cocos2d::CCNode*)#1}, std::__ndk1::allocator<AlphaUtils::ModifyLoad<MyScrollLayer>::ModifyLoad(std::__ndk1::basic_string<char, std::__ndk1::char_traits<char>, std::__ndk1::allocator<char> >)::{lambda(cocos2d::CCNode*)#1}>, void (cocos2d::CCNode*)>::target_type() const
PUBLIC a2c8 0 std::__ndk1::__function::__func<AlphaUtils::ModifyLoad<MyTableView>::ModifyLoad(std::__ndk1::basic_string<char, std::__ndk1::char_traits<char>, std::__ndk1::allocator<char> >)::{lambda(cocos2d::CCNode*)#1}, std::__ndk1::allocator<AlphaUtils::ModifyLoad<MyTableView>::ModifyLoad(std::__ndk1::basic_string<char, std::__ndk1::char_traits<char>, std::__ndk1::allocator<char> >)::{lambda(cocos2d::CCNode*)#1}>, void (cocos2d::CCNode*)>::~__func()
PUBLIC a2cc 0 std::__ndk1::__function::__func<AlphaUtils::ModifyLoad<MyTableView>::ModifyLoad(std::__ndk1::basic_string<char, std::__ndk1::char_traits<char>, std::__ndk1::allocator<char> >)::{lambda(cocos2d::CCNode*)#1}, std::__ndk1::allocator<AlphaUtils::ModifyLoad<MyTableView>::ModifyLoad(std::__ndk1::basic_string<char, std::__ndk1::char_traits<char>, std::__ndk1::allocator<char> >)::{lambda(cocos2d::CCNode*)#1}>, void (cocos2d::CCNode*)>::__clone() const
PUBLIC a2f0 0 std::__ndk1::__function::__func<AlphaUtils::ModifyLoad<MyTableView>::ModifyLoad(std::__ndk1::basic_string<char, std::__ndk1::char_traits<char>, std::__ndk1::allocator<char> >)::{lambda(cocos2d::CCNode*)#1}, std::__ndk1::allocator<AlphaUtils::ModifyLoad<MyTableView>::ModifyLoad(std::__ndk1::basic_string<char, std::__ndk1::char_traits<char>, std::__ndk1::allocator<char> >)::{lambda(cocos2d::CCNode*)#1}>, void (cocos2d::CCNode*)>::__clone(std::__ndk1::__function::__base<void (cocos2d::CCNode*)>*) const
PUBLIC a300 0 std::__ndk1::__function::__func<AlphaUtils::ModifyLoad<MyTableView>::ModifyLoad(std::__ndk1::basic_string<char, std::__ndk1::char_traits<char>, std::__ndk1::allocator<char> >)::{lambda(cocos2d::CCNode*)#1}, std::__ndk1::allocator<AlphaUtils::ModifyLoad<MyTableView>::ModifyLoad(std::__ndk1::basic_string<char, std::__ndk1::char_traits<char>, std::__ndk1::allocator<char> >)::{lambda(cocos2d::CCNode*)#1}>, void (cocos2d::CCNode*)>::destroy()
PUBLIC a304 0 std::__ndk1::__function::__func<AlphaUtils::ModifyLoad<MyTableView>::ModifyLoad(std::__ndk1::basic_string<char, std::__ndk1::char_traits<char>, std::__ndk1::allocator<char> >)::{lambda(cocos2d::CCNode*)#1}, std::__ndk1::allocator<AlphaUtils::ModifyLoad<MyTableView>::ModifyLoad(std::__ndk1::basic_string<char, std::__ndk1::char_traits<char>, std::__ndk1::allocator<char> >)::{lambda(cocos2d::CCNode*)#1}>, void (cocos2d::CCNode*)>::destroy_deallocate()
PUBLIC a308 0 std::__ndk1::__function::__func<AlphaUtils::ModifyLoad<MyTableView>::ModifyLoad(std::__ndk1::basic_string<char, std::__ndk1::char_traits<char>, std::__ndk1::allocator<char> >)::{lambda(cocos2d::CCNode*)#1}, std::__ndk1::allocator<AlphaUtils::ModifyLoad<MyTableView>::ModifyLoad(std::__ndk1::basic_string<char, std::__ndk1::char_traits<char>, std::__ndk1::allocator<char> >)::{lambda(cocos2d::CCNode*)#1}>, void (cocos2d::CCNode*)>::operator()(cocos2d::CCNode*&&)
PUBLIC a418 0 std::__ndk1::__function::__func<AlphaUtils::ModifyLoad<MyTableView>::ModifyLoad(std::__ndk1::basic_string<char, std::__ndk1::char_traits<char>, std::__ndk1::allocator<char> >)::{lambda(cocos2d::CCNode*)#1}, std::__ndk1::allocator<AlphaUtils::ModifyLoad<MyTableView>::ModifyLoad(std::__ndk1::basic_string<char, std::__ndk1::char_traits<char>, std::__ndk1::allocator<char> >)::{lambda(cocos2d::CCNode*)#1}>, void (cocos2d::CCNode*)>::target(std::type_info const&) const
PUBLIC a434 0 std::__ndk1::__function::__func<AlphaUtils::ModifyLoad<MyTableView>::ModifyLoad(std::__ndk1::basic_string<char, std::__ndk1::char_traits<char>, std::__ndk1::allocator<char> >)::{lambda(cocos2d::CCNode*)#1}, std::__ndk1::allocator<AlphaUtils::ModifyLoad<MyTableView>::ModifyLoad(std::__ndk1::basic_string<char, std::__ndk1::char_traits<char>, std::__ndk1::allocator<char> >)::{lambda(cocos2d::CCNode*)#1}>, void (cocos2d::CCNode*)>::target_type() const
PUBLIC a440 0 MyTableView::modify()::{lambda()#1}::~{lambda()#1}()
PUBLIC a45c 0 std::__ndk1::__function::__func<MyTableView::modify()::{lambda()#1}, std::__ndk1::allocator<MyTableView::modify()::{lambda()#1}>, void ()>::~__func()
PUBLIC a48c 0 std::__ndk1::__function::__func<MyTableView::modify()::{lambda()#1}, std::__ndk1::allocator<MyTableView::modify()::{lambda()#1}>, void ()>::~__func()
PUBLIC a4c8 0 std::__ndk1::__function::__func<MyTableView::modify()::{lambda()#1}, std::__ndk1::allocator<MyTableView::modify()::{lambda()#1}>, void ()>::__clone() const
PUBLIC a520 0 std::__ndk1::__function::__func<MyTableView::modify()::{lambda()#1}, std::__ndk1::allocator<MyTableView::modify()::{lambda()#1}>, void ()>::__clone(std::__ndk1::__function::__base<void ()>*) const
PUBLIC a53c 0 std::__ndk1::__function::__func<MyTableView::modify()::{lambda()#1}, std::__ndk1::allocator<MyTableView::modify()::{lambda()#1}>, void ()>::destroy()
PUBLIC a55c 0 std::__ndk1::__function::__func<MyTableView::modify()::{lambda()#1}, std::__ndk1::allocator<MyTableView::modify()::{lambda()#1}>, void ()>::destroy_deallocate()
PUBLIC a58c 0 std::__ndk1::__function::__func<MyTableView::modify()::{lambda()#1}, std::__ndk1::allocator<MyTableView::modify()::{lambda()#1}>, void ()>::operator()()
PUBLIC a5e4 0 std::__ndk1::__function::__func<MyTableView::modify()::{lambda()#1}, std::__ndk1::allocator<MyTableView::modify()::{lambda()#1}>, void ()>::target(std::type_info const&) const
PUBLIC a600 0 std::__ndk1::__function::__func<MyTableView::modify()::{lambda()#1}, std::__ndk1::allocator<MyTableView::modify()::{lambda()#1}>, void ()>::target_type() const
PUBLIC a60c 0 std::__ndk1::__function::__base<void (cocos2d::CCNode*)>::~__base()
PUBLIC a610 0 std::__ndk1::__function::__func<AlphaUtils::ModifyLoad<MyScrollBar>::ModifyLoad(std::__ndk1::basic_string<char, std::__ndk1::char_traits<char>, std::__ndk1::allocator<char> >)::{lambda(cocos2d::CCNode*)#1}, std::__ndk1::allocator<AlphaUtils::ModifyLoad<MyScrollBar>::ModifyLoad(std::__ndk1::basic_string<char, std::__ndk1::char_traits<char>, std::__ndk1::allocator<char> >)::{lambda(cocos2d::CCNode*)#1}>, void (cocos2d::CCNode*)>::~__func()
PUBLIC a614 0 std::__ndk1::__function::__func<AlphaUtils::ModifyLoad<MyScrollBar>::ModifyLoad(std::__ndk1::basic_string<char, std::__ndk1::char_traits<char>, std::__ndk1::allocator<char> >)::{lambda(cocos2d::CCNode*)#1}, std::__ndk1::allocator<AlphaUtils::ModifyLoad<MyScrollBar>::ModifyLoad(std::__ndk1::basic_string<char, std::__ndk1::char_traits<char>, std::__ndk1::allocator<char> >)::{lambda(cocos2d::CCNode*)#1}>, void (cocos2d::CCNode*)>::__clone() const
PUBLIC a638 0 std::__ndk1::__function::__func<AlphaUtils::ModifyLoad<MyScrollBar>::ModifyLoad(std::__ndk1::basic_string<char, std::__ndk1::char_traits<char>, std::__ndk1::allocator<char> >)::{lambda(cocos2d::CCNode*)#1}, std::__ndk1::allocator<AlphaUtils::ModifyLoad<MyScrollBar>::ModifyLoad(std::__ndk1::basic_string<char, std::__ndk1::char_traits<char>, std::__ndk1::allocator<char> >)::{lambda(cocos2d::CCNode*)#1}>, void (cocos2d::CCNode*)>::__clone(std::__ndk1::__function::__base<void (cocos2d::CCNode*)>*) const
PUBLIC a648 0 std::__ndk1::__function::__func<AlphaUtils::ModifyLoad<MyScrollBar>::ModifyLoad(std::__ndk1::basic_string<char, std::__ndk1::char_traits<char>, std::__ndk1::allocator<char> >)::{lambda(cocos2d::CCNode*)#1}, std::__ndk1::allocator<AlphaUtils::ModifyLoad<MyScrollBar>::ModifyLoad(std::__ndk1::basic_string<char, std::__ndk1::char_traits<char>, std::__ndk1::allocator<char> >)::{lambda(cocos2d::CCNode*)#1}>, void (cocos2d::CCNode*)>::destroy()
PUBLIC a64c 0 std::__ndk1::__function::__func<AlphaUtils::ModifyLoad<MyScrollBar>::ModifyLoad(std::__ndk1::basic_string<char, std::__ndk1::char_traits<char>, std::__ndk1::allocator<char> >)::{lambda(cocos2d::CCNode*)#1}, std::__ndk1::allocator<AlphaUtils::ModifyLoad<MyScrollBar>::ModifyLoad(std::__ndk1::basic_string<char, std::__ndk1::char_traits<char>, std::__ndk1::allocator<char> >)::{lambda(cocos2d::CCNode*)#1}>, void (cocos2d::CCNode*)>::destroy_deallocate()
PUBLIC a650 0 std::__ndk1::__function::__func<AlphaUtils::ModifyLoad<MyScrollBar>::ModifyLoad(std::__ndk1::basic_string<char, std::__ndk1::char_traits<char>, std::__ndk1::allocator<char> >)::{lambda(cocos2d::CCNode*)#1}, std::__ndk1::allocator<AlphaUtils::ModifyLoad<MyScrollBar>::ModifyLoad(std::__ndk1::basic_string<char, std::__ndk1::char_traits<char>, std::__ndk1::allocator<char> >)::{lambda(cocos2d::CCNode*)#1}>, void (cocos2d::CCNode*)>::operator()(cocos2d::CCNode*&&)
PUBLIC a9c8 0 std::__ndk1::__function::__func<AlphaUtils::ModifyLoad<MyScrollBar>::ModifyLoad(std::__ndk1::basic_string<char, std::__ndk1::char_traits<char>, std::__ndk1::allocator<char> >)::{lambda(cocos2d::CCNode*)#1}, std::__ndk1::allocator<AlphaUtils::ModifyLoad<MyScrollBar>::ModifyLoad(std::__ndk1::basic_string<char, std::__ndk1::char_traits<char>, std::__ndk1::allocator<char> >)::{lambda(cocos2d::CCNode*)#1}>, void (cocos2d::CCNode*)>::target(std::type_info const&) const
PUBLIC a9e4 0 std::__ndk1::__function::__func<AlphaUtils::ModifyLoad<MyScrollBar>::ModifyLoad(std::__ndk1::basic_string<char, std::__ndk1::char_traits<char>, std::__ndk1::allocator<char> >)::{lambda(cocos2d::CCNode*)#1}, std::__ndk1::allocator<AlphaUtils::ModifyLoad<MyScrollBar>::ModifyLoad(std::__ndk1::basic_string<char, std::__ndk1::char_traits<char>, std::__ndk1::allocator<char> >)::{lambda(cocos2d::CCNode*)#1}>, void (cocos2d::CCNode*)>::target_type() const
PUBLIC a9f0 0 geode::modifier::FieldContainer::getField(unsigned long)
PUBLIC adc0 0 geode::modifier::FieldContainer::setField(unsigned long, unsigned long, std::__ndk1::function<void (void*)>)
PUBLIC aecc 0 geode::modifier::FieldIntermediate<MyTableView, cocos2d::CCNode>::fieldDestructor(void*)
PUBLIC af0c 0 std::__ndk1::vector<void*, std::__ndk1::allocator<void*> >::__throw_length_error[abi:ne190000]() const
PUBLIC af20 0 std::__ndk1::vector<std::__ndk1::function<void (void*)>, std::__ndk1::allocator<std::__ndk1::function<void (void*)> > >::__throw_length_error[abi:ne190000]() const
PUBLIC af34 0 std::__ndk1::vector<void*, std::__ndk1::allocator<void*> >::__throw_out_of_range[abi:ne190000]() const
PUBLIC af40 0 std::__ndk1::__throw_out_of_range[abi:ne190000](char const*)
PUBLIC af88 0 std::out_of_range::out_of_range[abi:ne190000](char const*)
PUBLIC afc0 0 std::__ndk1::vector<std::__ndk1::function<void (void*)>, std::__ndk1::allocator<std::__ndk1::function<void (void*)> > >::__throw_out_of_range[abi:ne190000]() const
PUBLIC afcc 0 std::__ndk1::__function::__base<void (void*)>::~__base()
PUBLIC afd0 0 std::__ndk1::__function::__func<void (*)(void*), std::__ndk1::allocator<void (*)(void*)>, void (void*)>::~__func()
PUBLIC afd4 0 std::__ndk1::__function::__func<void (*)(void*), std::__ndk1::allocator<void (*)(void*)>, void (void*)>::__clone() const
PUBLIC b00c 0 std::__ndk1::__function::__func<void (*)(void*), std::__ndk1::allocator<void (*)(void*)>, void (void*)>::__clone(std::__ndk1::__function::__base<void (void*)>*) const
PUBLIC b024 0 std::__ndk1::__function::__func<void (*)(void*), std::__ndk1::allocator<void (*)(void*)>, void (void*)>::destroy()
PUBLIC b028 0 std::__ndk1::__function::__func<void (*)(void*), std::__ndk1::allocator<void (*)(void*)>, void (void*)>::destroy_deallocate()
PUBLIC b02c 0 std::__ndk1::__function::__func<void (*)(void*), std::__ndk1::allocator<void (*)(void*)>, void (void*)>::operator()(void*&&)
PUBLIC b03c 0 std::__ndk1::__function::__func<void (*)(void*), std::__ndk1::allocator<void (*)(void*)>, void (void*)>::target(std::type_info const&) const
PUBLIC b058 0 std::__ndk1::__function::__func<void (*)(void*), std::__ndk1::allocator<void (*)(void*)>, void (void*)>::target_type() const
PUBLIC b064 0 geode::modifier::FieldIntermediate<MyScrollLayer, cocos2d::CCNode>::fieldDestructor(void*)
PUBLIC m b0a4 0 geodeImplicitEntry
PUBLIC b0e0 0 <.plt ELF section in user95401.scrollbar_everywhere.android64.so>
STACK CFI INIT 5778 10 .cfa: sp 0 +
STACK CFI INIT 5788 8 .cfa: sp 0 +
STACK CFI INIT 5790 8 .cfa: sp 0 +
STACK CFI INIT 5798 14 .cfa: sp 0 +
STACK CFI INIT 57ac 1c .cfa: sp 0 +
STACK CFI INIT 57c8 10 .cfa: sp 0 +
STACK CFI INIT 57d8 134 .cfa: sp 0 +
STACK CFI INIT 590c 84 .cfa: sp 0 +
STACK CFI INIT 5990 f4 .cfa: sp 0 +
STACK CFI INIT 5a84 a8 .cfa: sp 0 +
STACK CFI INIT 5b2c 7c .cfa: sp 0 +
STACK CFI INIT 5ba8 14 .cfa: sp 0 +
STACK CFI INIT 5bbc 40 .cfa: sp 0 +
STACK CFI INIT 5bfc 28 .cfa: sp 0 +
STACK CFI INIT 5c24 190 .cfa: sp 0 +
STACK CFI INIT 5db4 2c8 .cfa: sp 0 +
STACK CFI INIT 607c 8 .cfa: sp 0 +
STACK CFI INIT 6084 8 .cfa: sp 0 +
STACK CFI INIT 608c 44 .cfa: sp 0 +
STACK CFI INIT 60d0 e8 .cfa: sp 0 +
STACK CFI INIT 61b8 e8 .cfa: sp 0 +
STACK CFI INIT 62a0 14 .cfa: sp 0 +
STACK CFI INIT 62b4 10 .cfa: sp 0 +
STACK CFI INIT 62c4 10 .cfa: sp 0 +
STACK CFI INIT 62d4 f0 .cfa: sp 0 +
STACK CFI INIT 63c4 44 .cfa: sp 0 +
STACK CFI INIT 6408 c .cfa: sp 0 +
STACK CFI INIT 6414 c .cfa: sp 0 +
STACK CFI INIT 6420 2c .cfa: sp 0 +
STACK CFI INIT 644c 23c .cfa: sp 0 +
STACK CFI INIT 6688 c .cfa: sp 0 +
STACK CFI INIT 6694 120 .cfa: sp 0 +
STACK CFI INIT 67b4 494 .cfa: sp 0 +
STACK CFI INIT 6c48 b78 .cfa: sp 0 +
STACK CFI INIT 77c0 134 .cfa: sp 0 +
STACK CFI INIT 78f4 210 .cfa: sp 0 +
STACK CFI INIT 7b04 38c .cfa: sp 0 +
STACK CFI INIT 7e90 1c8 .cfa: sp 0 +
STACK CFI INIT 8058 9c4 .cfa: sp 0 +
STACK CFI INIT 8a1c 2d4 .cfa: sp 0 +
STACK CFI INIT 8cf0 130 .cfa: sp 0 +
STACK CFI INIT 8e20 120 .cfa: sp 0 +
STACK CFI INIT 8f40 1c8 .cfa: sp 0 +
STACK CFI INIT 9108 168 .cfa: sp 0 +
STACK CFI INIT 9270 fc .cfa: sp 0 +
STACK CFI INIT 936c 30 .cfa: sp 0 +
STACK CFI INIT 9d78 30 .cfa: sp 0 +
STACK CFI 9d7c .cfa: sp 32 +
STACK CFI 9d84 .cfa: x29 32 + x19: .cfa -16 + ^ .ra: .cfa -24 + ^ x29: .cfa -32 + ^
STACK CFI 9d9c .cfa: sp 32 +
STACK CFI 9da4 .cfa: sp 0 +
STACK CFI INIT 9da8 34 .cfa: sp 0 +
STACK CFI 9dac .cfa: sp 32 +
STACK CFI 9db4 .cfa: x29 32 + x19: .cfa -16 + ^ .ra: .cfa -24 + ^ x29: .cfa -32 + ^
STACK CFI INIT 9ddc 10 .cfa: sp 0 +
STACK CFI 9de0 .cfa: sp 16 +
STACK CFI 9de4 .cfa: x29 16 + .ra: .cfa -8 + ^ x29: .cfa -16 + ^
STACK CFI INIT 9dec f8 .cfa: sp 0 +
STACK CFI 9df0 .cfa: sp 64 +
STACK CFI 9e00 .cfa: x29 64 + x19: .cfa -8 + ^ x20: .cfa -16 + ^ x21: .cfa -24 + ^ x22: .cfa -32 + ^ x23: .cfa -48 + ^ .ra: .cfa -56 + ^ x29: .cfa -64 + ^
STACK CFI 9e5c .cfa: sp 64 +
STACK CFI 9e6c .cfa: sp 0 +
STACK CFI 9e70 .cfa: x29 64 +
STACK CFI 9e8c .cfa: sp 64 +
STACK CFI 9e9c .cfa: sp 0 +
STACK CFI 9ea0 .cfa: x29 64 +
STACK CFI 9ed0 .cfa: sp 64 +
STACK CFI 9ee0 .cfa: sp 0 +
STACK CFI INIT a0f4 14 .cfa: sp 0 +
STACK CFI INIT a108 1c .cfa: sp 0 +
STACK CFI INIT a124 c .cfa: sp 0 +
STACK CFI INIT a130 4 .cfa: sp 0 +
STACK CFI INIT a134 24 .cfa: sp 0 +
STACK CFI a138 .cfa: sp 16 +
STACK CFI a13c .cfa: x29 16 + .ra: .cfa -8 + ^ x29: .cfa -16 + ^
STACK CFI a150 .cfa: sp 16 +
STACK CFI a154 .cfa: sp 0 +
STACK CFI INIT a158 10 .cfa: sp 0 +
STACK CFI INIT a168 4 .cfa: sp 0 +
STACK CFI INIT a16c 4 .cfa: sp 0 +
STACK CFI INIT a2a0 1c .cfa: sp 0 +
STACK CFI INIT a2bc c .cfa: sp 0 +
STACK CFI INIT a2c8 4 .cfa: sp 0 +
STACK CFI INIT a2cc 24 .cfa: sp 0 +
STACK CFI a2d0 .cfa: sp 16 +
STACK CFI a2d4 .cfa: x29 16 + .ra: .cfa -8 + ^ x29: .cfa -16 + ^
STACK CFI a2e8 .cfa: sp 16 +
STACK CFI a2ec .cfa: sp 0 +
STACK CFI INIT a2f0 10 .cfa: sp 0 +
STACK CFI INIT a300 4 .cfa: sp 0 +
STACK CFI INIT a304 4 .cfa: sp 0 +
STACK CFI INIT a418 1c .cfa: sp 0 +
STACK CFI INIT a434 c .cfa: sp 0 +
STACK CFI INIT a520 1c .cfa: sp 0 +
STACK CFI INIT a58c 58 .cfa: sp 0 +
STACK CFI a590 .cfa: sp 32 +
STACK CFI a598 .cfa: x29 32 + x19: .cfa -16 + ^ .ra: .cfa -24 + ^ x29: .cfa -32 + ^
STACK CFI a5cc .cfa: sp 32 +
STACK CFI a5d4 .cfa: sp 0 +
STACK CFI a5d8 .cfa: sp 32 +
STACK CFI a5e0 .cfa: sp 0 +
STACK CFI INIT a5e4 1c .cfa: sp 0 +
STACK CFI INIT a600 c .cfa: sp 0 +
STACK CFI INIT a60c 4 .cfa: sp 0 +
STACK CFI INIT a610 4 .cfa: sp 0 +
STACK CFI INIT a614 24 .cfa: sp 0 +
STACK CFI a618 .cfa: sp 16 +
STACK CFI a61c .cfa: x29 16 + .ra: .cfa -8 + ^ x29: .cfa -16 + ^
STACK CFI a630 .cfa: sp 16 +
STACK CFI a634 .cfa: sp 0 +
STACK CFI INIT a638 10 .cfa: sp 0 +
STACK CFI INIT a648 4 .cfa: sp 0 +
STACK CFI INIT a64c 4 .cfa: sp 0 +
STACK CFI INIT a9c8 1c .cfa: sp 0 +
STACK CFI INIT a9e4 c .cfa: sp 0 +
STACK CFI INIT af0c 14 .cfa: sp 0 +
STACK CFI af10 .cfa: sp 16 +
STACK CFI af14 .cfa: x29 16 + .ra: .cfa -8 + ^ x29: .cfa -16 + ^
STACK CFI INIT af20 14 .cfa: sp 0 +
STACK CFI af24 .cfa: sp 16 +
STACK CFI af28 .cfa: x29 16 + .ra: .cfa -8 + ^ x29: .cfa -16 + ^
STACK CFI INIT af34 c .cfa: sp 0 +
STACK CFI af38 .cfa: sp 16 +
STACK CFI af3c .cfa: x29 16 + .ra: .cfa -8 + ^ x29: .cfa -16 + ^
STACK CFI INIT af88 38 .cfa: sp 0 +
STACK CFI af8c .cfa: sp 32 +
STACK CFI af94 .cfa: x29 32 + x19: .cfa -16 + ^ .ra: .cfa -24 + ^ x29: .cfa -32 + ^
STACK CFI afb4 .cfa: sp 32 +
STACK CFI afbc .cfa: sp 0 +
STACK CFI INIT afc0 c .cfa: sp 0 +
STACK CFI afc4 .cfa: sp 16 +
STACK CFI afc8 .cfa: x29 16 + .ra: .cfa -8 + ^ x29: .cfa -16 + ^
STACK CFI INIT afcc 4 .cfa: sp 0 +
STACK CFI INIT afd0 4 .cfa: sp 0 +
STACK CFI INIT afd4 38 .cfa: sp 0 +
STACK CFI afd8 .cfa: sp 32 +
STACK CFI afe0 .cfa: x29 32 + x19: .cfa -16 + ^ .ra: .cfa -24 + ^ x29: .cfa -32 + ^
STACK CFI b000 .cfa: sp 32 +
STACK CFI b008 .cfa: sp 0 +
STACK CFI INIT b00c 18 .cfa: sp 0 +
STACK CFI INIT b024 4 .cfa: sp 0 +
STACK CFI INIT b028 4 .cfa: sp 0 +
STACK CFI INIT b02c 10 .cfa: sp 0 +
STACK CFI INIT b03c 1c .cfa: sp 0 +
STACK CFI INIT b058 c .cfa: sp 0 +
STACK CFI INIT b0a4 3c .cfa: sp 0 +
STACK CFI b0a8 .cfa: sp 32 +
STACK CFI b0b0 .cfa: x29 32 + x19: .cfa -16 + ^ .ra: .cfa -24 + ^ x29: .cfa -32 + ^
STACK CFI b0bc .cfa: sp 32 +
STACK CFI b0c4 .cfa: sp 0 +
STACK CFI b0c8 .cfa: x29 32 +
STACK CFI b0d4 .cfa: sp 32 +
STACK CFI b0dc .cfa: sp 0 +
STACK CFI INIT 94c8 3ac .cfa: sp 0 +
STACK CFI 94cc .cfa: sp 192 +
STACK CFI 94e8 .cfa: x29 64 + x19: .cfa -8 + ^ x20: .cfa -16 + ^ x21: .cfa -24 + ^ x22: .cfa -32 + ^ x23: .cfa -40 + ^ x24: .cfa -48 + ^ .ra: .cfa -56 + ^ x29: .cfa -64 + ^ v8: .cfa -72 + ^ v9: .cfa -80 + ^ v10: .cfa -96 + ^
STACK CFI 9820 .cfa: sp 192 +
STACK CFI 983c .cfa: sp 0 +
STACK CFI 9840 .cfa: x29 64 +
STACK CFI INIT 9874 1c .cfa: sp 0 +
STACK CFI 9878 .cfa: sp 16 +
STACK CFI 987c .cfa: x29 16 + .ra: .cfa -8 + ^ x29: .cfa -16 + ^
STACK CFI 9884 .cfa: sp 16 +
STACK CFI 9888 .cfa: sp 0 +
STACK CFI 988c .cfa: x29 16 +
STACK CFI INIT 9890 3c .cfa: sp 0 +
STACK CFI 9894 .cfa: sp 32 +
STACK CFI 989c .cfa: x29 32 + x19: .cfa -16 + ^ .ra: .cfa -24 + ^ x29: .cfa -32 + ^
STACK CFI 98b8 .cfa: sp 32 +
STACK CFI 98c0 .cfa: sp 0 +
STACK CFI 98c4 .cfa: x29 32 +
STACK CFI INIT 98cc 17c .cfa: sp 0 +
STACK CFI 98d0 .cfa: sp 128 +
STACK CFI 98dc .cfa: x29 32 + x19: .cfa -8 + ^ x20: .cfa -16 + ^ .ra: .cfa -24 + ^ x29: .cfa -32 + ^
STACK CFI 99c4 .cfa: sp 128 +
STACK CFI 99d0 .cfa: sp 0 +
STACK CFI 99d4 .cfa: x29 32 +
STACK CFI INIT 9a48 168 .cfa: sp 0 +
STACK CFI 9a4c .cfa: sp 128 +
STACK CFI 9a58 .cfa: x29 32 + x19: .cfa -8 + ^ x20: .cfa -16 + ^ .ra: .cfa -24 + ^ x29: .cfa -32 + ^
STACK CFI 9b2c .cfa: sp 128 +
STACK CFI 9b38 .cfa: sp 0 +
STACK CFI 9b3c .cfa: x29 32 +
STACK CFI INIT 9bb0 178 .cfa: sp 0 +
STACK CFI 9bb4 .cfa: sp 128 +
STACK CFI 9bc0 .cfa: x29 32 + x19: .cfa -8 + ^ x20: .cfa -16 + ^ .ra: .cfa -24 + ^ x29: .cfa -32 + ^
STACK CFI 9ca4 .cfa: sp 128 +
STACK CFI 9cb0 .cfa: sp 0 +
STACK CFI 9cb4 .cfa: x29 32 +
STACK CFI INIT 9d28 50 .cfa: sp 0 +
STACK CFI 9d2c .cfa: sp 32 +
STACK CFI 9d34 .cfa: x29 32 + x19: .cfa -8 + ^ x20: .cfa -16 + ^ .ra: .cfa -24 + ^ x29: .cfa -32 + ^
STACK CFI INIT 9ee4 48 .cfa: sp 0 +
STACK CFI 9ee8 .cfa: sp 32 +
STACK CFI 9ef0 .cfa: x29 32 + x19: .cfa -16 + ^ .ra: .cfa -24 + ^ x29: .cfa -32 + ^
STACK CFI 9f18 .cfa: sp 32 +
STACK CFI 9f20 .cfa: sp 0 +
STACK CFI 9f24 .cfa: x29 32 +
STACK CFI INIT 9f2c 4c .cfa: sp 0 +
STACK CFI 9f30 .cfa: sp 32 +
STACK CFI 9f38 .cfa: x29 32 + x19: .cfa -16 + ^ .ra: .cfa -24 + ^ x29: .cfa -32 + ^
STACK CFI 9f64 .cfa: sp 32 +
STACK CFI 9f6c .cfa: sp 0 +
STACK CFI 9f70 .cfa: x29 32 +
STACK CFI INIT 9f78 98 .cfa: sp 0 +
STACK CFI 9f7c .cfa: sp 48 +
STACK CFI 9f88 .cfa: x29 48 + x19: .cfa -8 + ^ x20: .cfa -16 + ^ x21: .cfa -32 + ^ .ra: .cfa -40 + ^ x29: .cfa -48 + ^
STACK CFI 9fd0 .cfa: sp 48 +
STACK CFI 9fdc .cfa: sp 0 +
STACK CFI 9fe0 .cfa: x29 48 +
STACK CFI INIT a010 68 .cfa: sp 0 +
STACK CFI a014 .cfa: sp 32 +
STACK CFI a01c .cfa: x29 32 + x19: .cfa -8 + ^ x20: .cfa -16 + ^ .ra: .cfa -24 + ^ x29: .cfa -32 + ^
STACK CFI a054 .cfa: sp 32 +
STACK CFI a05c .cfa: sp 0 +
STACK CFI a060 .cfa: x29 32 +
STACK CFI INIT a078 3c .cfa: sp 0 +
STACK CFI a07c .cfa: sp 32 +
STACK CFI a084 .cfa: x29 32 + x19: .cfa -16 + ^ .ra: .cfa -24 + ^ x29: .cfa -32 + ^
STACK CFI a0a0 .cfa: sp 32 +
STACK CFI a0a8 .cfa: sp 0 +
STACK CFI a0ac .cfa: x29 32 +
STACK CFI INIT a0b4 40 .cfa: sp 0 +
STACK CFI a0b8 .cfa: sp 32 +
STACK CFI a0c0 .cfa: x29 32 + x19: .cfa -16 + ^ .ra: .cfa -24 + ^ x29: .cfa -32 + ^
STACK CFI a0e0 .cfa: sp 32 +
STACK CFI a0e8 .cfa: sp 0 +
STACK CFI a0ec .cfa: x29 32 +
STACK CFI INIT a170 130 .cfa: sp 0 +
STACK CFI a174 .cfa: sp 144 +
STACK CFI a184 .cfa: x29 48 + x19: .cfa -8 + ^ x20: .cfa -16 + ^ x21: .cfa -32 + ^ .ra: .cfa -40 + ^ x29: .cfa -48 + ^
STACK CFI a228 .cfa: sp 144 +
STACK CFI a238 .cfa: sp 0 +
STACK CFI a23c .cfa: x29 48 +
STACK CFI INIT a308 110 .cfa: sp 0 +
STACK CFI a30c .cfa: sp 112 +
STACK CFI a31c .cfa: x29 48 + x19: .cfa -8 + ^ x20: .cfa -16 + ^ x21: .cfa -32 + ^ .ra: .cfa -40 + ^ x29: .cfa -48 + ^
STACK CFI a39c .cfa: sp 112 +
STACK CFI a3ac .cfa: sp 0 +
STACK CFI a3b0 .cfa: x29 48 +
STACK CFI INIT a440 1c .cfa: sp 0 +
STACK CFI a444 .cfa: sp 16 +
STACK CFI a448 .cfa: x29 16 + .ra: .cfa -8 + ^ x29: .cfa -16 + ^
STACK CFI a450 .cfa: sp 16 +
STACK CFI a454 .cfa: sp 0 +
STACK CFI a458 .cfa: x29 16 +
STACK CFI INIT a45c 30 .cfa: sp 0 +
STACK CFI a460 .cfa: sp 16 +
STACK CFI a464 .cfa: x29 16 + .ra: .cfa -8 + ^ x29: .cfa -16 + ^
STACK CFI a480 .cfa: sp 16 +
STACK CFI a484 .cfa: sp 0 +
STACK CFI a488 .cfa: x29 16 +
STACK CFI INIT a48c 3c .cfa: sp 0 +
STACK CFI a490 .cfa: sp 32 +
STACK CFI a498 .cfa: x29 32 + x19: .cfa -16 + ^ .ra: .cfa -24 + ^ x29: .cfa -32 + ^
STACK CFI a4b8 .cfa: sp 32 +
STACK CFI a4c0 .cfa: sp 0 +
STACK CFI a4c4 .cfa: x29 32 +
STACK CFI INIT a4c8 58 .cfa: sp 0 +
STACK CFI a4cc .cfa: sp 32 +
STACK CFI a4d4 .cfa: x29 32 + x19: .cfa -8 + ^ x20: .cfa -16 + ^ .ra: .cfa -24 + ^ x29: .cfa -32 + ^
STACK CFI a500 .cfa: sp 32 +
STACK CFI a508 .cfa: sp 0 +
STACK CFI a50c .cfa: x29 32 +
STACK CFI INIT a53c 20 .cfa: sp 0 +
STACK CFI a540 .cfa: sp 16 +
STACK CFI a544 .cfa: x29 16 + .ra: .cfa -8 + ^ x29: .cfa -16 + ^
STACK CFI a550 .cfa: sp 16 +
STACK CFI a554 .cfa: sp 0 +
STACK CFI a558 .cfa: x29 16 +
STACK CFI INIT a55c 30 .cfa: sp 0 +
STACK CFI a560 .cfa: sp 32 +
STACK CFI a568 .cfa: x29 32 + x19: .cfa -16 + ^ .ra: .cfa -24 + ^ x29: .cfa -32 + ^
STACK CFI a57c .cfa: sp 32 +
STACK CFI a584 .cfa: sp 0 +
STACK CFI a588 .cfa: x29 32 +
STACK CFI INIT a650 378 .cfa: sp 0 +
STACK CFI a654 .cfa: sp 128 +
STACK CFI a668 .cfa: x29 64 + x19: .cfa -8 + ^ x20: .cfa -16 + ^ x21: .cfa -24 + ^ x22: .cfa -32 + ^ x23: .cfa -48 + ^ .ra: .cfa -56 + ^ x29: .cfa -64 + ^
STACK CFI a8b0 .cfa: sp 128 +
STACK CFI a8c4 .cfa: sp 0 +
STACK CFI a8c8 .cfa: x29 64 +
STACK CFI INIT a9f0 3d0 .cfa: sp 0 +
STACK CFI a9f4 .cfa: sp 176 +
STACK CFI aa10 .cfa: x29 96 + x19: .cfa -8 + ^ x20: .cfa -16 + ^ x21: .cfa -24 + ^ x22: .cfa -32 + ^ x23: .cfa -40 + ^ x24: .cfa -48 + ^ x25: .cfa -56 + ^ x26: .cfa -64 + ^ x27: .cfa -72 + ^ x28: .cfa -80 + ^ .ra: .cfa -88 + ^ x29: .cfa -96 + ^
STACK CFI aa50 .cfa: sp 176 +
STACK CFI aa6c .cfa: sp 0 +
STACK CFI aa70 .cfa: x29 96 +
STACK CFI INIT adc0 10c .cfa: sp 0 +
STACK CFI adc4 .cfa: sp 64 +
STACK CFI add4 .cfa: x29 64 + x19: .cfa -8 + ^ x20: .cfa -16 + ^ x21: .cfa -24 + ^ x22: .cfa -32 + ^ x23: .cfa -48 + ^ .ra: .cfa -56 + ^ x29: .cfa -64 + ^
STACK CFI aeac .cfa: sp 64 +
STACK CFI aebc .cfa: sp 0 +
STACK CFI aec0 .cfa: x29 64 +
STACK CFI INIT aecc 40 .cfa: sp 0 +
STACK CFI aed0 .cfa: sp 32 +
STACK CFI aed8 .cfa: x29 32 + x19: .cfa -16 + ^ .ra: .cfa -24 + ^ x29: .cfa -32 + ^
STACK CFI aefc .cfa: sp 32 +
STACK CFI af04 .cfa: sp 0 +
STACK CFI af08 .cfa: x29 32 +
STACK CFI INIT af40 48 .cfa: sp 0 +
STACK CFI af44 .cfa: sp 32 +
STACK CFI af4c .cfa: x29 32 + x19: .cfa -8 + ^ x20: .cfa -16 + ^ .ra: .cfa -24 + ^ x29: .cfa -32 + ^
STACK CFI INIT b064 40 .cfa: sp 0 +
STACK CFI b068 .cfa: sp 32 +
STACK CFI b070 .cfa: x29 32 + x19: .cfa -16 + ^ .ra: .cfa -24 + ^ x29: .cfa -32 + ^
STACK CFI b094 .cfa: sp 32 +
STACK CFI b09c .cfa: sp 0 +
STACK CFI b0a0 .cfa: x29 32 +
