MODULE Linux arm64 4BA346029FD906EED5D15B0AE25DF8E20 relative.mininextfree.android64.so
INFO CODE_ID 0246A34BD99FEE06D5D15B0AE25DF8E2388A2081
INFO GENERATOR mozilla/dump_syms 2.3.4
PUBLIC 67f10 0 __on_dlclose
PUBLIC 67f28 0 __on_dlclose_late
PUBLIC 67f30 0 __atexit_handler_wrapper
PUBLIC 67f44 0 atexit
PUBLIC 67f60 0 pthread_atfork
PUBLIC m 67f70 0 std::__ndk1::__sort<std::__ndk1::__less<char, char>&, char*>(char*, char*, std::__ndk1::__less<char, char>&)
PUBLIC 67f94 0 std::__ndk1::__introsort<std::__ndk1::_ClassicAlgPolicy, std::__ndk1::__less<char, char>&, char*, true>(char*, char*, std::__ndk1::__less<char, char>&, std::__ndk1::iterator_traits<char*>::difference_type, bool)
PUBLIC m 686ac 0 std::__ndk1::__sort<std::__ndk1::__less<wchar_t, wchar_t>&, wchar_t*>(wchar_t*, wchar_t*, std::__ndk1::__less<wchar_t, wchar_t>&)
PUBLIC 686d4 0 std::__ndk1::__introsort<std::__ndk1::_ClassicAlgPolicy, std::__ndk1::__less<wchar_t, wchar_t>&, wchar_t*, true>(wchar_t*, wchar_t*, std::__ndk1::__less<wchar_t, wchar_t>&, std::__ndk1::iterator_traits<wchar_t*>::difference_type, bool)
PUBLIC m 68dbc 0 std::__ndk1::__sort<std::__ndk1::__less<signed char, signed char>&, signed char*>(signed char*, signed char*, std::__ndk1::__less<signed char, signed char>&)
PUBLIC 68de0 0 std::__ndk1::__introsort<std::__ndk1::_ClassicAlgPolicy, std::__ndk1::__less<signed char, signed char>&, signed char*, true>(signed char*, signed char*, std::__ndk1::__less<signed char, signed char>&, std::__ndk1::iterator_traits<signed char*>::difference_type, bool)
PUBLIC m 694f8 0 std::__ndk1::__sort<std::__ndk1::__less<unsigned char, unsigned char>&, unsigned char*>(unsigned char*, unsigned char*, std::__ndk1::__less<unsigned char, unsigned char>&)
PUBLIC 6951c 0 std::__ndk1::__introsort<std::__ndk1::_ClassicAlgPolicy, std::__ndk1::__less<unsigned char, unsigned char>&, unsigned char*, true>(unsigned char*, unsigned char*, std::__ndk1::__less<unsigned char, unsigned char>&, std::__ndk1::iterator_traits<unsigned char*>::difference_type, bool)
PUBLIC m 69c34 0 std::__ndk1::__sort<std::__ndk1::__less<short, short>&, short*>(short*, short*, std::__ndk1::__less<short, short>&)
PUBLIC 69c5c 0 std::__ndk1::__introsort<std::__ndk1::_ClassicAlgPolicy, std::__ndk1::__less<short, short>&, short*, true>(short*, short*, std::__ndk1::__less<short, short>&, std::__ndk1::iterator_traits<short*>::difference_type, bool)
PUBLIC m 6a378 0 std::__ndk1::__sort<std::__ndk1::__less<unsigned short, unsigned short>&, unsigned short*>(unsigned short*, unsigned short*, std::__ndk1::__less<unsigned short, unsigned short>&)
PUBLIC 6a3a0 0 std::__ndk1::__introsort<std::__ndk1::_ClassicAlgPolicy, std::__ndk1::__less<unsigned short, unsigned short>&, unsigned short*, true>(unsigned short*, unsigned short*, std::__ndk1::__less<unsigned short, unsigned short>&, std::__ndk1::iterator_traits<unsigned short*>::difference_type, bool)
PUBLIC m 6aabc 0 std::__ndk1::__sort<std::__ndk1::__less<int, int>&, int*>(int*, int*, std::__ndk1::__less<int, int>&)
PUBLIC 6aae4 0 std::__ndk1::__introsort<std::__ndk1::_ClassicAlgPolicy, std::__ndk1::__less<int, int>&, int*, true>(int*, int*, std::__ndk1::__less<int, int>&, std::__ndk1::iterator_traits<int*>::difference_type, bool)
PUBLIC m 6b1cc 0 std::__ndk1::__sort<std::__ndk1::__less<unsigned int, unsigned int>&, unsigned int*>(unsigned int*, unsigned int*, std::__ndk1::__less<unsigned int, unsigned int>&)
PUBLIC 6b1f4 0 std::__ndk1::__introsort<std::__ndk1::_ClassicAlgPolicy, std::__ndk1::__less<unsigned int, unsigned int>&, unsigned int*, true>(unsigned int*, unsigned int*, std::__ndk1::__less<unsigned int, unsigned int>&, std::__ndk1::iterator_traits<unsigned int*>::difference_type, bool)
PUBLIC m 6b8dc 0 std::__ndk1::__sort<std::__ndk1::__less<long, long>&, long*>(long*, long*, std::__ndk1::__less<long, long>&)
PUBLIC 6b904 0 std::__ndk1::__introsort<std::__ndk1::_ClassicAlgPolicy, std::__ndk1::__less<long, long>&, long*, true>(long*, long*, std::__ndk1::__less<long, long>&, std::__ndk1::iterator_traits<long*>::difference_type, bool)
PUBLIC m 6bfec 0 std::__ndk1::__sort<std::__ndk1::__less<unsigned long, unsigned long>&, unsigned long*>(unsigned long*, unsigned long*, std::__ndk1::__less<unsigned long, unsigned long>&)
PUBLIC 6c014 0 std::__ndk1::__introsort<std::__ndk1::_ClassicAlgPolicy, std::__ndk1::__less<unsigned long, unsigned long>&, unsigned long*, true>(unsigned long*, unsigned long*, std::__ndk1::__less<unsigned long, unsigned long>&, std::__ndk1::iterator_traits<unsigned long*>::difference_type, bool)
PUBLIC m 6c6fc 0 std::__ndk1::__sort<std::__ndk1::__less<long long, long long>&, long long*>(long long*, long long*, std::__ndk1::__less<long long, long long>&)
PUBLIC 6c724 0 std::__ndk1::__introsort<std::__ndk1::_ClassicAlgPolicy, std::__ndk1::__less<long long, long long>&, long long*, true>(long long*, long long*, std::__ndk1::__less<long long, long long>&, std::__ndk1::iterator_traits<long long*>::difference_type, bool)
PUBLIC m 6ce0c 0 std::__ndk1::__sort<std::__ndk1::__less<unsigned long long, unsigned long long>&, unsigned long long*>(unsigned long long*, unsigned long long*, std::__ndk1::__less<unsigned long long, unsigned long long>&)
PUBLIC 6ce34 0 std::__ndk1::__introsort<std::__ndk1::_ClassicAlgPolicy, std::__ndk1::__less<unsigned long long, unsigned long long>&, unsigned long long*, true>(unsigned long long*, unsigned long long*, std::__ndk1::__less<unsigned long long, unsigned long long>&, std::__ndk1::iterator_traits<unsigned long long*>::difference_type, bool)
PUBLIC m 6d51c 0 std::__ndk1::__sort<std::__ndk1::__less<float, float>&, float*>(float*, float*, std::__ndk1::__less<float, float>&)
PUBLIC 6d544 0 std::__ndk1::__introsort<std::__ndk1::_ClassicAlgPolicy, std::__ndk1::__less<float, float>&, float*, true>(float*, float*, std::__ndk1::__less<float, float>&, std::__ndk1::iterator_traits<float*>::difference_type, bool)
PUBLIC m 6dc3c 0 std::__ndk1::__sort<std::__ndk1::__less<double, double>&, double*>(double*, double*, std::__ndk1::__less<double, double>&)
PUBLIC 6dc64 0 std::__ndk1::__introsort<std::__ndk1::_ClassicAlgPolicy, std::__ndk1::__less<double, double>&, double*, true>(double*, double*, std::__ndk1::__less<double, double>&, std::__ndk1::iterator_traits<double*>::difference_type, bool)
PUBLIC m 6e35c 0 std::__ndk1::__sort<std::__ndk1::__less<long double, long double>&, long double*>(long double*, long double*, std::__ndk1::__less<long double, long double>&)
PUBLIC 6e384 0 std::__ndk1::__introsort<std::__ndk1::_ClassicAlgPolicy, std::__ndk1::__less<long double, long double>&, long double*, false>(long double*, long double*, std::__ndk1::__less<long double, long double>&, std::__ndk1::iterator_traits<long double*>::difference_type, bool)
PUBLIC m 6eec0 0 std::__ndk1::__insertion_sort_incomplete<std::__ndk1::__less<char, char>&, char*>(char*, char*, std::__ndk1::__less<char, char>&)
PUBLIC m 6f1d4 0 std::__ndk1::__insertion_sort_incomplete<std::__ndk1::__less<wchar_t, wchar_t>&, wchar_t*>(wchar_t*, wchar_t*, std::__ndk1::__less<wchar_t, wchar_t>&)
PUBLIC m 6f4b4 0 std::__ndk1::__insertion_sort_incomplete<std::__ndk1::__less<signed char, signed char>&, signed char*>(signed char*, signed char*, std::__ndk1::__less<signed char, signed char>&)
PUBLIC m 6f7c8 0 std::__ndk1::__insertion_sort_incomplete<std::__ndk1::__less<unsigned char, unsigned char>&, unsigned char*>(unsigned char*, unsigned char*, std::__ndk1::__less<unsigned char, unsigned char>&)
PUBLIC m 6fadc 0 std::__ndk1::__insertion_sort_incomplete<std::__ndk1::__less<short, short>&, short*>(short*, short*, std::__ndk1::__less<short, short>&)
PUBLIC m 6fdf4 0 std::__ndk1::__insertion_sort_incomplete<std::__ndk1::__less<unsigned short, unsigned short>&, unsigned short*>(unsigned short*, unsigned short*, std::__ndk1::__less<unsigned short, unsigned short>&)
PUBLIC m 7010c 0 std::__ndk1::__insertion_sort_incomplete<std::__ndk1::__less<int, int>&, int*>(int*, int*, std::__ndk1::__less<int, int>&)
PUBLIC m 703ec 0 std::__ndk1::__insertion_sort_incomplete<std::__ndk1::__less<unsigned int, unsigned int>&, unsigned int*>(unsigned int*, unsigned int*, std::__ndk1::__less<unsigned int, unsigned int>&)
PUBLIC m 706cc 0 std::__ndk1::__insertion_sort_incomplete<std::__ndk1::__less<long, long>&, long*>(long*, long*, std::__ndk1::__less<long, long>&)
PUBLIC m 709ac 0 std::__ndk1::__insertion_sort_incomplete<std::__ndk1::__less<unsigned long, unsigned long>&, unsigned long*>(unsigned long*, unsigned long*, std::__ndk1::__less<unsigned long, unsigned long>&)
PUBLIC m 70c8c 0 std::__ndk1::__insertion_sort_incomplete<std::__ndk1::__less<long long, long long>&, long long*>(long long*, long long*, std::__ndk1::__less<long long, long long>&)
PUBLIC m 70f6c 0 std::__ndk1::__insertion_sort_incomplete<std::__ndk1::__less<unsigned long long, unsigned long long>&, unsigned long long*>(unsigned long long*, unsigned long long*, std::__ndk1::__less<unsigned long long, unsigned long long>&)
PUBLIC m 7124c 0 std::__ndk1::__insertion_sort_incomplete<std::__ndk1::__less<float, float>&, float*>(float*, float*, std::__ndk1::__less<float, float>&)
PUBLIC m 71534 0 std::__ndk1::__insertion_sort_incomplete<std::__ndk1::__less<double, double>&, double*>(double*, double*, std::__ndk1::__less<double, double>&)
PUBLIC m 7181c 0 std::__ndk1::__insertion_sort_incomplete<std::__ndk1::__less<long double, long double>&, long double*>(long double*, long double*, std::__ndk1::__less<long double, long double>&)
PUBLIC m 71c7c 0 std::__ndk1::__sort5<std::__ndk1::__less<long double, long double>&, long double*>(long double*, long double*, long double*, long double*, long double*, std::__ndk1::__less<long double, long double>&)
PUBLIC 71f6c 0 std::__ndk1::__bitset_partition[abi:v170000]<std::__ndk1::_ClassicAlgPolicy, char*, std::__ndk1::__less<char, char>&>(std::__ndk1::pair, std::__ndk1::pair, std::__ndk1::__less<char, char>&)
PUBLIC 72db8 0 std::__ndk1::__partial_sort_impl[abi:v170000]<std::__ndk1::_ClassicAlgPolicy, std::__ndk1::__less<char, char>&, char*, std::__ndk1::__less<char, char>&>(char*, char*, std::__ndk1::__less<char, char>&, std::__ndk1::__less<char, char>&)
PUBLIC 73100 0 std::__ndk1::__bitset_partition[abi:v170000]<std::__ndk1::_ClassicAlgPolicy, wchar_t*, std::__ndk1::__less<wchar_t, wchar_t>&>(std::__ndk1::pair, std::__ndk1::pair, std::__ndk1::__less<wchar_t, wchar_t>&)
PUBLIC 73bb8 0 std::__ndk1::__partial_sort_impl[abi:v170000]<std::__ndk1::_ClassicAlgPolicy, std::__ndk1::__less<wchar_t, wchar_t>&, wchar_t*, std::__ndk1::__less<wchar_t, wchar_t>&>(wchar_t*, wchar_t*, std::__ndk1::__less<wchar_t, wchar_t>&, std::__ndk1::__less<wchar_t, wchar_t>&)
PUBLIC 73f24 0 std::__ndk1::__bitset_partition[abi:v170000]<std::__ndk1::_ClassicAlgPolicy, signed char*, std::__ndk1::__less<signed char, signed char>&>(std::__ndk1::pair, std::__ndk1::pair, std::__ndk1::__less<signed char, signed char>&)
PUBLIC 74d70 0 std::__ndk1::__partial_sort_impl[abi:v170000]<std::__ndk1::_ClassicAlgPolicy, std::__ndk1::__less<signed char, signed char>&, signed char*, std::__ndk1::__less<signed char, signed char>&>(signed char*, signed char*, std::__ndk1::__less<signed char, signed char>&, std::__ndk1::__less<signed char, signed char>&)
PUBLIC 750b8 0 std::__ndk1::__bitset_partition[abi:v170000]<std::__ndk1::_ClassicAlgPolicy, unsigned char*, std::__ndk1::__less<unsigned char, unsigned char>&>(std::__ndk1::pair, std::__ndk1::pair, std::__ndk1::__less<unsigned char, unsigned char>&)
PUBLIC 75f04 0 std::__ndk1::__partial_sort_impl[abi:v170000]<std::__ndk1::_ClassicAlgPolicy, std::__ndk1::__less<unsigned char, unsigned char>&, unsigned char*, std::__ndk1::__less<unsigned char, unsigned char>&>(unsigned char*, unsigned char*, std::__ndk1::__less<unsigned char, unsigned char>&, std::__ndk1::__less<unsigned char, unsigned char>&)
PUBLIC 7624c 0 std::__ndk1::__bitset_partition[abi:v170000]<std::__ndk1::_ClassicAlgPolicy, short*, std::__ndk1::__less<short, short>&>(std::__ndk1::pair, std::__ndk1::pair, std::__ndk1::__less<short, short>&)
PUBLIC 76e24 0 std::__ndk1::__partial_sort_impl[abi:v170000]<std::__ndk1::_ClassicAlgPolicy, std::__ndk1::__less<short, short>&, short*, std::__ndk1::__less<short, short>&>(short*, short*, std::__ndk1::__less<short, short>&, std::__ndk1::__less<short, short>&)
PUBLIC 771a0 0 std::__ndk1::__bitset_partition[abi:v170000]<std::__ndk1::_ClassicAlgPolicy, unsigned short*, std::__ndk1::__less<unsigned short, unsigned short>&>(std::__ndk1::pair, std::__ndk1::pair, std::__ndk1::__less<unsigned short, unsigned short>&)
PUBLIC 77d78 0 std::__ndk1::__partial_sort_impl[abi:v170000]<std::__ndk1::_ClassicAlgPolicy, std::__ndk1::__less<unsigned short, unsigned short>&, unsigned short*, std::__ndk1::__less<unsigned short, unsigned short>&>(unsigned short*, unsigned short*, std::__ndk1::__less<unsigned short, unsigned short>&, std::__ndk1::__less<unsigned short, unsigned short>&)
PUBLIC 780f4 0 std::__ndk1::__bitset_partition[abi:v170000]<std::__ndk1::_ClassicAlgPolicy, int*, std::__ndk1::__less<int, int>&>(std::__ndk1::pair, std::__ndk1::pair, std::__ndk1::__less<int, int>&)
PUBLIC 78bac 0 std::__ndk1::__partial_sort_impl[abi:v170000]<std::__ndk1::_ClassicAlgPolicy, std::__ndk1::__less<int, int>&, int*, std::__ndk1::__less<int, int>&>(int*, int*, std::__ndk1::__less<int, int>&, std::__ndk1::__less<int, int>&)
PUBLIC 78f18 0 std::__ndk1::__bitset_partition[abi:v170000]<std::__ndk1::_ClassicAlgPolicy, unsigned int*, std::__ndk1::__less<unsigned int, unsigned int>&>(std::__ndk1::pair, std::__ndk1::pair, std::__ndk1::__less<unsigned int, unsigned int>&)
PUBLIC 799d0 0 std::__ndk1::__partial_sort_impl[abi:v170000]<std::__ndk1::_ClassicAlgPolicy, std::__ndk1::__less<unsigned int, unsigned int>&, unsigned int*, std::__ndk1::__less<unsigned int, unsigned int>&>(unsigned int*, unsigned int*, std::__ndk1::__less<unsigned int, unsigned int>&, std::__ndk1::__less<unsigned int, unsigned int>&)
PUBLIC 79d3c 0 std::__ndk1::__bitset_partition[abi:v170000]<std::__ndk1::_ClassicAlgPolicy, long*, std::__ndk1::__less<long, long>&>(std::__ndk1::pair, std::__ndk1::pair, std::__ndk1::__less<long, long>&)
PUBLIC 7a754 0 std::__ndk1::__partial_sort_impl[abi:v170000]<std::__ndk1::_ClassicAlgPolicy, std::__ndk1::__less<long, long>&, long*, std::__ndk1::__less<long, long>&>(long*, long*, std::__ndk1::__less<long, long>&, std::__ndk1::__less<long, long>&)
PUBLIC 7aac0 0 std::__ndk1::__bitset_partition[abi:v170000]<std::__ndk1::_ClassicAlgPolicy, unsigned long*, std::__ndk1::__less<unsigned long, unsigned long>&>(std::__ndk1::pair, std::__ndk1::pair, std::__ndk1::__less<unsigned long, unsigned long>&)
PUBLIC 7b4d8 0 std::__ndk1::__partial_sort_impl[abi:v170000]<std::__ndk1::_ClassicAlgPolicy, std::__ndk1::__less<unsigned long, unsigned long>&, unsigned long*, std::__ndk1::__less<unsigned long, unsigned long>&>(unsigned long*, unsigned long*, std::__ndk1::__less<unsigned long, unsigned long>&, std::__ndk1::__less<unsigned long, unsigned long>&)
PUBLIC 7b844 0 std::__ndk1::__bitset_partition[abi:v170000]<std::__ndk1::_ClassicAlgPolicy, long long*, std::__ndk1::__less<long long, long long>&>(std::__ndk1::pair, std::__ndk1::pair, std::__ndk1::__less<long long, long long>&)
PUBLIC 7c270 0 std::__ndk1::__partial_sort_impl[abi:v170000]<std::__ndk1::_ClassicAlgPolicy, std::__ndk1::__less<long long, long long>&, long long*, std::__ndk1::__less<long long, long long>&>(long long*, long long*, std::__ndk1::__less<long long, long long>&, std::__ndk1::__less<long long, long long>&)
PUBLIC 7c5dc 0 std::__ndk1::__bitset_partition[abi:v170000]<std::__ndk1::_ClassicAlgPolicy, unsigned long long*, std::__ndk1::__less<unsigned long long, unsigned long long>&>(std::__ndk1::pair, std::__ndk1::pair, std::__ndk1::__less<unsigned long long, unsigned long long>&)
PUBLIC 7d008 0 std::__ndk1::__partial_sort_impl[abi:v170000]<std::__ndk1::_ClassicAlgPolicy, std::__ndk1::__less<unsigned long long, unsigned long long>&, unsigned long long*, std::__ndk1::__less<unsigned long long, unsigned long long>&>(unsigned long long*, unsigned long long*, std::__ndk1::__less<unsigned long long, unsigned long long>&, std::__ndk1::__less<unsigned long long, unsigned long long>&)
PUBLIC 7d374 0 std::__ndk1::__bitset_partition[abi:v170000]<std::__ndk1::_ClassicAlgPolicy, float*, std::__ndk1::__less<float, float>&>(std::__ndk1::pair, std::__ndk1::pair, std::__ndk1::__less<float, float>&)
PUBLIC 7de84 0 std::__ndk1::__partial_sort_impl[abi:v170000]<std::__ndk1::_ClassicAlgPolicy, std::__ndk1::__less<float, float>&, float*, std::__ndk1::__less<float, float>&>(float*, float*, std::__ndk1::__less<float, float>&, std::__ndk1::__less<float, float>&)
PUBLIC 7e1d0 0 std::__ndk1::__bitset_partition[abi:v170000]<std::__ndk1::_ClassicAlgPolicy, double*, std::__ndk1::__less<double, double>&>(std::__ndk1::pair, std::__ndk1::pair, std::__ndk1::__less<double, double>&)
PUBLIC 7eccc 0 std::__ndk1::__partial_sort_impl[abi:v170000]<std::__ndk1::_ClassicAlgPolicy, std::__ndk1::__less<double, double>&, double*, std::__ndk1::__less<double, double>&>(double*, double*, std::__ndk1::__less<double, double>&, std::__ndk1::__less<double, double>&)
PUBLIC 7f018 0 std::__ndk1::__partial_sort_impl[abi:v170000]<std::__ndk1::_ClassicAlgPolicy, std::__ndk1::__less<long double, long double>&, long double*, std::__ndk1::__less<long double, long double>&>(long double*, long double*, std::__ndk1::__less<long double, long double>&, std::__ndk1::__less<long double, long double>&)
PUBLIC m 7f488 0 std::__ndk1::chrono::system_clock::now()
PUBLIC m 7f500 0 std::__ndk1::chrono::system_clock::to_time_t(std::__ndk1::chrono::time_point<std::__ndk1::chrono::system_clock, std::__ndk1::chrono::duration<long long, std::__ndk1::ratio<(long)1, (long)1000000> > > const&)
PUBLIC m 7f528 0 std::__ndk1::chrono::system_clock::from_time_t(long)
PUBLIC m 7f53c 0 std::__ndk1::chrono::steady_clock::now()
PUBLIC m 7f594 0 std::__ndk1::condition_variable::~condition_variable()
PUBLIC m 7f5b4 0 std::__ndk1::__next_prime(unsigned long)
PUBLIC 7fcec 0 std::__ndk1::__throw_overflow_error[abi:v170000](char const*)
PUBLIC 7fd40 0 std::overflow_error::overflow_error[abi:v170000](char const*)
PUBLIC m 7fd78 0 std::__ndk1::bad_weak_ptr::~bad_weak_ptr()
PUBLIC m 7fd80 0 std::__ndk1::bad_weak_ptr::~bad_weak_ptr()
PUBLIC m 7fdac 0 std::__ndk1::bad_weak_ptr::what() const
PUBLIC m 7fdbc 0 std::__ndk1::__shared_weak_count::~__shared_weak_count()
PUBLIC m 7fdc4 0 std::__ndk1::__shared_count::~__shared_count()
PUBLIC m 7fdcc 0 std::__ndk1::__shared_weak_count::~__shared_weak_count()
PUBLIC m 7fdd4 0 std::__ndk1::__shared_count::__add_shared()
PUBLIC m 7fdf8 0 std::__ndk1::__shared_count::__release_shared()
PUBLIC m 7fe60 0 std::__ndk1::__shared_weak_count::__add_shared()
PUBLIC m 7fe84 0 std::__ndk1::__shared_weak_count::__add_weak()
PUBLIC m 7fea8 0 std::__ndk1::__shared_weak_count::__release_shared()
PUBLIC m 7ff24 0 std::__ndk1::__shared_weak_count::__release_weak()
PUBLIC m 7ff7c 0 std::__ndk1::__shared_weak_count::lock()
PUBLIC m 7ffdc 0 std::__ndk1::__shared_weak_count::__get_deleter(std::type_info const&) const
PUBLIC m 7ffe8 0 std::__ndk1::__sp_mut::lock()
PUBLIC m 8000c 0 std::__ndk1::__sp_mut::unlock()
PUBLIC m 80030 0 std::__ndk1::__get_sp_mut(void const*)
PUBLIC m 80084 0 std::__ndk1::align(unsigned long, unsigned long, void*&, unsigned long&)
PUBLIC m 800d8 0 std::__ndk1::mutex::lock()
PUBLIC m 80104 0 std::__ndk1::mutex::try_lock()
PUBLIC m 8012c 0 std::__ndk1::mutex::unlock()
PUBLIC m 8014c 0 std::__ndk1::recursive_mutex::recursive_mutex()
PUBLIC m 801f0 0 std::__ndk1::recursive_mutex::~recursive_mutex()
PUBLIC m 80210 0 std::__ndk1::recursive_mutex::lock()
PUBLIC m 8023c 0 std::__ndk1::recursive_mutex::unlock()
PUBLIC m 8025c 0 std::__ndk1::recursive_mutex::try_lock()
PUBLIC m 80284 0 std::__ndk1::timed_mutex::timed_mutex()
PUBLIC m 802a0 0 std::__ndk1::timed_mutex::~timed_mutex()
PUBLIC m 802f4 0 std::__ndk1::timed_mutex::lock()
PUBLIC 80388 0 std::__ndk1::unique_lock<std::__ndk1::mutex>::~unique_lock[abi:v170000]()
PUBLIC m 803b4 0 std::__ndk1::timed_mutex::try_lock()
PUBLIC m 80414 0 std::__ndk1::timed_mutex::unlock()
PUBLIC m 80468 0 std::__ndk1::recursive_timed_mutex::recursive_timed_mutex()
PUBLIC m 80484 0 std::__ndk1::recursive_timed_mutex::~recursive_timed_mutex()
PUBLIC m 804d8 0 std::__ndk1::recursive_timed_mutex::lock()
PUBLIC m 805d4 0 std::__ndk1::recursive_timed_mutex::try_lock()
PUBLIC m 8066c 0 std::__ndk1::recursive_timed_mutex::unlock()
PUBLIC m 806e8 0 std::__ndk1::__call_once(unsigned long volatile&, void*, void (*)(void*))
PUBLIC m 80800 0 std::__ndk1::condition_variable::notify_one()
PUBLIC m 80820 0 std::__ndk1::condition_variable::notify_all()
PUBLIC m 80840 0 std::__ndk1::condition_variable::wait(std::__ndk1::unique_lock<std::__ndk1::mutex>&)
PUBLIC m 8088c 0 std::__ndk1::condition_variable::__do_timed_wait(std::__ndk1::unique_lock<std::__ndk1::mutex>&, std::__ndk1::chrono::time_point<std::__ndk1::chrono::system_clock, std::__ndk1::chrono::duration<long long, std::__ndk1::ratio<(long)1, (long)1000000000> > >)
PUBLIC m 8092c 0 std::__ndk1::notify_all_at_thread_exit(std::__ndk1::condition_variable&, std::__ndk1::unique_lock<std::__ndk1::mutex>)
PUBLIC m 809bc 0 std::__ndk1::mutex::~mutex()
PUBLIC m 809dc 0 std::bad_optional_access::~bad_optional_access()
PUBLIC m 809e4 0 std::bad_optional_access::~bad_optional_access()
PUBLIC m 80a10 0 std::bad_optional_access::what() const
PUBLIC m 80a20 0 std::experimental::bad_optional_access::~bad_optional_access()
PUBLIC m 80a28 0 std::experimental::bad_optional_access::~bad_optional_access()
PUBLIC m 80a54 0 std::logic_error::logic_error(std::__ndk1::basic_string<char, std::__ndk1::char_traits<char>, std::__ndk1::allocator<char> > const&)
PUBLIC m 80ae8 0 std::logic_error::logic_error(char const*)
PUBLIC m 80b70 0 std::logic_error::logic_error(std::logic_error const&)
PUBLIC m 80ba8 0 std::logic_error::operator=(std::logic_error const&)
PUBLIC m 80c18 0 std::runtime_error::runtime_error(std::__ndk1::basic_string<char, std::__ndk1::char_traits<char>, std::__ndk1::allocator<char> > const&)
PUBLIC m 80cac 0 std::runtime_error::runtime_error(char const*)
PUBLIC m 80d34 0 std::runtime_error::runtime_error(std::runtime_error const&)
PUBLIC m 80d6c 0 std::runtime_error::operator=(std::runtime_error const&)
PUBLIC m 80ddc 0 std::__ndk1::basic_string<char, std::__ndk1::char_traits<char>, std::__ndk1::allocator<char> >::replace(unsigned long, unsigned long, char const*, unsigned long)
PUBLIC 81088 0 std::__ndk1::basic_string<char, std::__ndk1::char_traits<char>, std::__ndk1::allocator<char> >::__throw_out_of_range[abi:v170000]() const
PUBLIC m 810a0 0 std::__ndk1::basic_string<char, std::__ndk1::char_traits<char>, std::__ndk1::allocator<char> >::__grow_by_and_replace(unsigned long, unsigned long, unsigned long, unsigned long, unsigned long, unsigned long, char const*)
PUBLIC m 811ec 0 std::__ndk1::basic_string<char, std::__ndk1::char_traits<char>, std::__ndk1::allocator<char> >::rfind(char const*, unsigned long, unsigned long) const
PUBLIC m 812b8 0 std::__ndk1::basic_string<char, std::__ndk1::char_traits<char>, std::__ndk1::allocator<char> >::__init(char const*, unsigned long, unsigned long)
PUBLIC m 81340 0 std::__ndk1::basic_string<char, std::__ndk1::char_traits<char>, std::__ndk1::allocator<char> >::basic_string(std::__ndk1::basic_string<char, std::__ndk1::char_traits<char>, std::__ndk1::allocator<char> > const&)
PUBLIC m 813e8 0 std::__ndk1::basic_string<char, std::__ndk1::char_traits<char>, std::__ndk1::allocator<char> >::replace(unsigned long, unsigned long, char const*)
PUBLIC m 8143c 0 std::__ndk1::basic_string<char, std::__ndk1::char_traits<char>, std::__ndk1::allocator<char> >::basic_string(std::__ndk1::basic_string<char, std::__ndk1::char_traits<char>, std::__ndk1::allocator<char> > const&, std::__ndk1::allocator<char> const&)
PUBLIC m 814e4 0 std::__ndk1::basic_string<char, std::__ndk1::char_traits<char>, std::__ndk1::allocator<char> >::find_last_not_of(char const*, unsigned long, unsigned long) const
PUBLIC m 8159c 0 std::__ndk1::basic_string<char, std::__ndk1::char_traits<char>, std::__ndk1::allocator<char> >::~basic_string()
PUBLIC m 815b4 0 std::__ndk1::basic_string<char, std::__ndk1::char_traits<char>, std::__ndk1::allocator<char> >::find_first_not_of(char const*, unsigned long, unsigned long) const
PUBLIC m 81654 0 std::__ndk1::basic_string<char, std::__ndk1::char_traits<char>, std::__ndk1::allocator<char> >::insert(unsigned long, unsigned long, char)
PUBLIC m 8180c 0 std::__ndk1::basic_string<char, std::__ndk1::char_traits<char>, std::__ndk1::allocator<char> >::__grow_by(unsigned long, unsigned long, unsigned long, unsigned long, unsigned long, unsigned long)
PUBLIC m 81934 0 std::__ndk1::basic_string<char, std::__ndk1::char_traits<char>, std::__ndk1::allocator<char> >::operator=(char)
PUBLIC m 81970 0 std::__ndk1::basic_string<char, std::__ndk1::char_traits<char>, std::__ndk1::allocator<char> >::__init(char const*, unsigned long)
PUBLIC m 819f8 0 std::__ndk1::basic_string<char, std::__ndk1::char_traits<char>, std::__ndk1::allocator<char> >::at(unsigned long) const
PUBLIC m 81a40 0 std::__ndk1::basic_string<char, std::__ndk1::char_traits<char>, std::__ndk1::allocator<char> >::insert(unsigned long, char const*, unsigned long)
PUBLIC m 81c38 0 std::__ndk1::basic_string<char, std::__ndk1::char_traits<char>, std::__ndk1::allocator<char> >::find_first_of(char const*, unsigned long, unsigned long) const
PUBLIC m 81cb4 0 std::__ndk1::basic_string<char, std::__ndk1::char_traits<char>, std::__ndk1::allocator<char> >::replace(unsigned long, unsigned long, unsigned long, char)
PUBLIC m 81ea8 0 std::__ndk1::basic_string<char, std::__ndk1::char_traits<char>, std::__ndk1::allocator<char> >::assign(char const*, unsigned long)
PUBLIC 81eb0 0 std::__ndk1::basic_string<char, std::__ndk1::char_traits<char>, std::__ndk1::allocator<char> >::__assign_external(char const*, unsigned long)
PUBLIC m 81ff4 0 std::__ndk1::basic_string<char, std::__ndk1::char_traits<char>, std::__ndk1::allocator<char> >::reserve(unsigned long)
PUBLIC 8207c 0 std::__ndk1::basic_string<char, std::__ndk1::char_traits<char>, std::__ndk1::allocator<char> >::__shrink_or_extend[abi:v170000](unsigned long)
PUBLIC m 82190 0 std::__ndk1::basic_string<char, std::__ndk1::char_traits<char>, std::__ndk1::allocator<char> >::append(char const*, unsigned long)
PUBLIC m 8231c 0 std::__ndk1::basic_string<char, std::__ndk1::char_traits<char>, std::__ndk1::allocator<char> >::assign(std::__ndk1::basic_string<char, std::__ndk1::char_traits<char>, std::__ndk1::allocator<char> > const&, unsigned long, unsigned long)
PUBLIC m 82370 0 std::__ndk1::basic_string<char, std::__ndk1::char_traits<char>, std::__ndk1::allocator<char> >::copy(char*, unsigned long, unsigned long) const
PUBLIC m 823dc 0 std::__ndk1::basic_string<char, std::__ndk1::char_traits<char>, std::__ndk1::allocator<char> >::basic_string(std::__ndk1::basic_string<char, std::__ndk1::char_traits<char>, std::__ndk1::allocator<char> > const&, unsigned long, unsigned long, std::__ndk1::allocator<char> const&)
PUBLIC m 824ac 0 std::__ndk1::basic_string<char, std::__ndk1::char_traits<char>, std::__ndk1::allocator<char> >::find(char, unsigned long) const
PUBLIC m 82524 0 std::__ndk1::basic_string<char, std::__ndk1::char_traits<char>, std::__ndk1::allocator<char> >::__init(unsigned long, char)
PUBLIC m 825c4 0 std::__ndk1::basic_string<char, std::__ndk1::char_traits<char>, std::__ndk1::allocator<char> >::insert(unsigned long, char const*)
PUBLIC m 82610 0 std::__ndk1::basic_string<char, std::__ndk1::char_traits<char>, std::__ndk1::allocator<char> >::find_last_of(char const*, unsigned long, unsigned long) const
PUBLIC m 826ac 0 std::__ndk1::basic_string<char, std::__ndk1::char_traits<char>, std::__ndk1::allocator<char> >::push_back(char)
PUBLIC m 827c4 0 std::__ndk1::basic_string<char, std::__ndk1::char_traits<char>, std::__ndk1::allocator<char> >::append(unsigned long, char)
PUBLIC m 8294c 0 std::__ndk1::basic_string<char, std::__ndk1::char_traits<char>, std::__ndk1::allocator<char> >::rfind(char, unsigned long) const
PUBLIC m 8299c 0 std::__ndk1::basic_string<char, std::__ndk1::char_traits<char>, std::__ndk1::allocator<char> >::assign(unsigned long, char)
PUBLIC m 82adc 0 std::__ndk1::basic_string<char, std::__ndk1::char_traits<char>, std::__ndk1::allocator<char> >::erase(unsigned long, unsigned long)
PUBLIC m 82bb0 0 std::__ndk1::basic_string<char, std::__ndk1::char_traits<char>, std::__ndk1::allocator<char> >::append(std::__ndk1::basic_string<char, std::__ndk1::char_traits<char>, std::__ndk1::allocator<char> > const&, unsigned long, unsigned long)
PUBLIC m 82c00 0 std::__ndk1::basic_string<char, std::__ndk1::char_traits<char>, std::__ndk1::allocator<char> >::compare(char const*) const
PUBLIC m 82ca8 0 std::__ndk1::basic_string<char, std::__ndk1::char_traits<char>, std::__ndk1::allocator<char> >::compare(unsigned long, unsigned long, char const*, unsigned long) const
PUBLIC m 82d40 0 std::__ndk1::basic_string<char, std::__ndk1::char_traits<char>, std::__ndk1::allocator<char> >::compare(unsigned long, unsigned long, char const*) const
PUBLIC m 82e0c 0 std::__ndk1::basic_string<char, std::__ndk1::char_traits<char>, std::__ndk1::allocator<char> >::at(unsigned long)
PUBLIC m 82e54 0 std::__ndk1::basic_string<char, std::__ndk1::char_traits<char>, std::__ndk1::allocator<char> >::assign(char const*)
PUBLIC m 82e90 0 std::__ndk1::basic_string<char, std::__ndk1::char_traits<char>, std::__ndk1::allocator<char> >::find(char const*, unsigned long, unsigned long) const
PUBLIC m 82f58 0 std::__ndk1::basic_string<char, std::__ndk1::char_traits<char>, std::__ndk1::allocator<char> >::compare(unsigned long, unsigned long, std::__ndk1::basic_string<char, std::__ndk1::char_traits<char>, std::__ndk1::allocator<char> > const&, unsigned long, unsigned long) const
PUBLIC m 83010 0 std::__ndk1::basic_string<char, std::__ndk1::char_traits<char>, std::__ndk1::allocator<char> >::operator=(std::__ndk1::basic_string<char, std::__ndk1::char_traits<char>, std::__ndk1::allocator<char> > const&)
PUBLIC m 831e0 0 std::__ndk1::basic_string<char, std::__ndk1::char_traits<char>, std::__ndk1::allocator<char> >::append(char const*)
PUBLIC m 8321c 0 std::__ndk1::basic_string<char, std::__ndk1::char_traits<char>, std::__ndk1::allocator<char> >::replace(unsigned long, unsigned long, std::__ndk1::basic_string<char, std::__ndk1::char_traits<char>, std::__ndk1::allocator<char> > const&, unsigned long, unsigned long)
PUBLIC m 8326c 0 std::__ndk1::basic_string<char, std::__ndk1::char_traits<char>, std::__ndk1::allocator<char> >::insert(std::__ndk1::__wrap_iter<char const*>, char)
PUBLIC m 8342c 0 std::__ndk1::basic_string<char, std::__ndk1::char_traits<char>, std::__ndk1::allocator<char> >::resize(unsigned long, char)
PUBLIC m 83478 0 std::__ndk1::basic_string<char, std::__ndk1::char_traits<char>, std::__ndk1::allocator<char> >::insert(unsigned long, std::__ndk1::basic_string<char, std::__ndk1::char_traits<char>, std::__ndk1::allocator<char> > const&, unsigned long, unsigned long)
PUBLIC m 834c8 0 std::__ndk1::basic_string<wchar_t, std::__ndk1::char_traits<wchar_t>, std::__ndk1::allocator<wchar_t> >::replace(unsigned long, unsigned long, wchar_t const*, unsigned long)
PUBLIC 8369c 0 std::__ndk1::basic_string<wchar_t, std::__ndk1::char_traits<wchar_t>, std::__ndk1::allocator<wchar_t> >::__throw_out_of_range[abi:v170000]() const
PUBLIC m 836b4 0 std::__ndk1::basic_string<wchar_t, std::__ndk1::char_traits<wchar_t>, std::__ndk1::allocator<wchar_t> >::__grow_by_and_replace(unsigned long, unsigned long, unsigned long, unsigned long, unsigned long, unsigned long, wchar_t const*)
PUBLIC m 83824 0 std::__ndk1::basic_string<wchar_t, std::__ndk1::char_traits<wchar_t>, std::__ndk1::allocator<wchar_t> >::rfind(wchar_t const*, unsigned long, unsigned long) const
PUBLIC m 83900 0 std::__ndk1::basic_string<wchar_t, std::__ndk1::char_traits<wchar_t>, std::__ndk1::allocator<wchar_t> >::__init(wchar_t const*, unsigned long, unsigned long)
PUBLIC 839a4 0 std::__ndk1::basic_string<wchar_t, std::__ndk1::char_traits<wchar_t>, std::__ndk1::allocator<wchar_t> >::__throw_length_error[abi:v170000]() const
PUBLIC m 839bc 0 std::__ndk1::basic_string<wchar_t, std::__ndk1::char_traits<wchar_t>, std::__ndk1::allocator<wchar_t> >::basic_string(std::__ndk1::basic_string<wchar_t, std::__ndk1::char_traits<wchar_t>, std::__ndk1::allocator<wchar_t> > const&)
PUBLIC m 83a80 0 std::__ndk1::basic_string<wchar_t, std::__ndk1::char_traits<wchar_t>, std::__ndk1::allocator<wchar_t> >::replace(unsigned long, unsigned long, wchar_t const*)
PUBLIC m 83ad4 0 std::__ndk1::basic_string<wchar_t, std::__ndk1::char_traits<wchar_t>, std::__ndk1::allocator<wchar_t> >::basic_string(std::__ndk1::basic_string<wchar_t, std::__ndk1::char_traits<wchar_t>, std::__ndk1::allocator<wchar_t> > const&, std::__ndk1::allocator<wchar_t> const&)
PUBLIC m 83b98 0 std::__ndk1::basic_string<wchar_t, std::__ndk1::char_traits<wchar_t>, std::__ndk1::allocator<wchar_t> >::find_last_not_of(wchar_t const*, unsigned long, unsigned long) const
PUBLIC m 83c48 0 std::__ndk1::basic_string<wchar_t, std::__ndk1::char_traits<wchar_t>, std::__ndk1::allocator<wchar_t> >::~basic_string()
PUBLIC m 83c60 0 std::__ndk1::basic_string<wchar_t, std::__ndk1::char_traits<wchar_t>, std::__ndk1::allocator<wchar_t> >::find_first_not_of(wchar_t const*, unsigned long, unsigned long) const
PUBLIC m 83d10 0 std::__ndk1::basic_string<wchar_t, std::__ndk1::char_traits<wchar_t>, std::__ndk1::allocator<wchar_t> >::insert(unsigned long, unsigned long, wchar_t)
PUBLIC m 83f14 0 std::__ndk1::basic_string<wchar_t, std::__ndk1::char_traits<wchar_t>, std::__ndk1::allocator<wchar_t> >::__grow_by(unsigned long, unsigned long, unsigned long, unsigned long, unsigned long, unsigned long)
PUBLIC m 84040 0 std::__ndk1::basic_string<wchar_t, std::__ndk1::char_traits<wchar_t>, std::__ndk1::allocator<wchar_t> >::operator=(wchar_t)
PUBLIC m 84074 0 std::__ndk1::basic_string<wchar_t, std::__ndk1::char_traits<wchar_t>, std::__ndk1::allocator<wchar_t> >::__init(wchar_t const*, unsigned long)
PUBLIC m 84118 0 std::__ndk1::basic_string<wchar_t, std::__ndk1::char_traits<wchar_t>, std::__ndk1::allocator<wchar_t> >::at(unsigned long) const
PUBLIC m 84164 0 std::__ndk1::basic_string<wchar_t, std::__ndk1::char_traits<wchar_t>, std::__ndk1::allocator<wchar_t> >::insert(unsigned long, wchar_t const*, unsigned long)
PUBLIC m 84288 0 std::__ndk1::basic_string<wchar_t, std::__ndk1::char_traits<wchar_t>, std::__ndk1::allocator<wchar_t> >::find_first_of(wchar_t const*, unsigned long, unsigned long) const
PUBLIC m 8430c 0 std::__ndk1::basic_string<wchar_t, std::__ndk1::char_traits<wchar_t>, std::__ndk1::allocator<wchar_t> >::replace(unsigned long, unsigned long, unsigned long, wchar_t)
PUBLIC m 84550 0 std::__ndk1::basic_string<wchar_t, std::__ndk1::char_traits<wchar_t>, std::__ndk1::allocator<wchar_t> >::assign(wchar_t const*, unsigned long)
PUBLIC m 84628 0 std::__ndk1::basic_string<wchar_t, std::__ndk1::char_traits<wchar_t>, std::__ndk1::allocator<wchar_t> >::reserve(unsigned long)
PUBLIC 846b4 0 std::__ndk1::basic_string<wchar_t, std::__ndk1::char_traits<wchar_t>, std::__ndk1::allocator<wchar_t> >::__shrink_or_extend[abi:v170000](unsigned long)
PUBLIC m 847fc 0 std::__ndk1::basic_string<wchar_t, std::__ndk1::char_traits<wchar_t>, std::__ndk1::allocator<wchar_t> >::append(wchar_t const*, unsigned long)
PUBLIC m 848e8 0 std::__ndk1::basic_string<wchar_t, std::__ndk1::char_traits<wchar_t>, std::__ndk1::allocator<wchar_t> >::assign(std::__ndk1::basic_string<wchar_t, std::__ndk1::char_traits<wchar_t>, std::__ndk1::allocator<wchar_t> > const&, unsigned long, unsigned long)
PUBLIC m 849f4 0 std::__ndk1::basic_string<wchar_t, std::__ndk1::char_traits<wchar_t>, std::__ndk1::allocator<wchar_t> >::copy(wchar_t*, unsigned long, unsigned long) const
PUBLIC m 84a64 0 std::__ndk1::basic_string<wchar_t, std::__ndk1::char_traits<wchar_t>, std::__ndk1::allocator<wchar_t> >::basic_string(std::__ndk1::basic_string<wchar_t, std::__ndk1::char_traits<wchar_t>, std::__ndk1::allocator<wchar_t> > const&, unsigned long, unsigned long, std::__ndk1::allocator<wchar_t> const&)
PUBLIC m 84b54 0 std::__ndk1::basic_string<wchar_t, std::__ndk1::char_traits<wchar_t>, std::__ndk1::allocator<wchar_t> >::find(wchar_t, unsigned long) const
PUBLIC m 84bd0 0 std::__ndk1::basic_string<wchar_t, std::__ndk1::char_traits<wchar_t>, std::__ndk1::allocator<wchar_t> >::__init(unsigned long, wchar_t)
PUBLIC m 84cc0 0 std::__ndk1::basic_string<wchar_t, std::__ndk1::char_traits<wchar_t>, std::__ndk1::allocator<wchar_t> >::insert(unsigned long, wchar_t const*)
PUBLIC m 84d0c 0 std::__ndk1::basic_string<wchar_t, std::__ndk1::char_traits<wchar_t>, std::__ndk1::allocator<wchar_t> >::find_last_of(wchar_t const*, unsigned long, unsigned long) const
PUBLIC m 84dac 0 std::__ndk1::basic_string<wchar_t, std::__ndk1::char_traits<wchar_t>, std::__ndk1::allocator<wchar_t> >::push_back(wchar_t)
PUBLIC m 84ed4 0 std::__ndk1::basic_string<wchar_t, std::__ndk1::char_traits<wchar_t>, std::__ndk1::allocator<wchar_t> >::append(unsigned long, wchar_t)
PUBLIC m 85094 0 std::__ndk1::basic_string<wchar_t, std::__ndk1::char_traits<wchar_t>, std::__ndk1::allocator<wchar_t> >::rfind(wchar_t, unsigned long) const
PUBLIC m 850ec 0 std::__ndk1::basic_string<wchar_t, std::__ndk1::char_traits<wchar_t>, std::__ndk1::allocator<wchar_t> >::assign(unsigned long, wchar_t)
PUBLIC m 85268 0 std::__ndk1::basic_string<wchar_t, std::__ndk1::char_traits<wchar_t>, std::__ndk1::allocator<wchar_t> >::erase(unsigned long, unsigned long)
PUBLIC m 85344 0 std::__ndk1::basic_string<wchar_t, std::__ndk1::char_traits<wchar_t>, std::__ndk1::allocator<wchar_t> >::append(std::__ndk1::basic_string<wchar_t, std::__ndk1::char_traits<wchar_t>, std::__ndk1::allocator<wchar_t> > const&, unsigned long, unsigned long)
PUBLIC m 85468 0 std::__ndk1::basic_string<wchar_t, std::__ndk1::char_traits<wchar_t>, std::__ndk1::allocator<wchar_t> >::compare(wchar_t const*) const
PUBLIC m 85514 0 std::__ndk1::basic_string<wchar_t, std::__ndk1::char_traits<wchar_t>, std::__ndk1::allocator<wchar_t> >::compare(unsigned long, unsigned long, wchar_t const*, unsigned long) const
PUBLIC m 855b0 0 std::__ndk1::basic_string<wchar_t, std::__ndk1::char_traits<wchar_t>, std::__ndk1::allocator<wchar_t> >::compare(unsigned long, unsigned long, wchar_t const*) const
PUBLIC m 85680 0 std::__ndk1::basic_string<wchar_t, std::__ndk1::char_traits<wchar_t>, std::__ndk1::allocator<wchar_t> >::at(unsigned long)
PUBLIC m 856cc 0 std::__ndk1::basic_string<wchar_t, std::__ndk1::char_traits<wchar_t>, std::__ndk1::allocator<wchar_t> >::assign(wchar_t const*)
PUBLIC m 857ac 0 std::__ndk1::basic_string<wchar_t, std::__ndk1::char_traits<wchar_t>, std::__ndk1::allocator<wchar_t> >::find(wchar_t const*, unsigned long, unsigned long) const
PUBLIC m 85884 0 std::__ndk1::basic_string<wchar_t, std::__ndk1::char_traits<wchar_t>, std::__ndk1::allocator<wchar_t> >::compare(unsigned long, unsigned long, std::__ndk1::basic_string<wchar_t, std::__ndk1::char_traits<wchar_t>, std::__ndk1::allocator<wchar_t> > const&, unsigned long, unsigned long) const
PUBLIC m 85958 0 std::__ndk1::basic_string<wchar_t, std::__ndk1::char_traits<wchar_t>, std::__ndk1::allocator<wchar_t> >::operator=(std::__ndk1::basic_string<wchar_t, std::__ndk1::char_traits<wchar_t>, std::__ndk1::allocator<wchar_t> > const&)
PUBLIC m 85ac8 0 std::__ndk1::basic_string<wchar_t, std::__ndk1::char_traits<wchar_t>, std::__ndk1::allocator<wchar_t> >::append(wchar_t const*)
PUBLIC m 85bb0 0 std::__ndk1::basic_string<wchar_t, std::__ndk1::char_traits<wchar_t>, std::__ndk1::allocator<wchar_t> >::replace(unsigned long, unsigned long, std::__ndk1::basic_string<wchar_t, std::__ndk1::char_traits<wchar_t>, std::__ndk1::allocator<wchar_t> > const&, unsigned long, unsigned long)
PUBLIC m 85c04 0 std::__ndk1::basic_string<wchar_t, std::__ndk1::char_traits<wchar_t>, std::__ndk1::allocator<wchar_t> >::insert(std::__ndk1::__wrap_iter<wchar_t const*>, wchar_t)
PUBLIC m 85dcc 0 std::__ndk1::basic_string<wchar_t, std::__ndk1::char_traits<wchar_t>, std::__ndk1::allocator<wchar_t> >::resize(unsigned long, wchar_t)
PUBLIC m 85e18 0 std::__ndk1::basic_string<wchar_t, std::__ndk1::char_traits<wchar_t>, std::__ndk1::allocator<wchar_t> >::insert(unsigned long, std::__ndk1::basic_string<wchar_t, std::__ndk1::char_traits<wchar_t>, std::__ndk1::allocator<wchar_t> > const&, unsigned long, unsigned long)
PUBLIC m 85e6c 0 std::__ndk1::operator+<char, std::__ndk1::char_traits<char>, std::__ndk1::allocator<char> >(char const*, std::__ndk1::basic_string<char, std::__ndk1::char_traits<char>, std::__ndk1::allocator<char> > const&)
PUBLIC m 85f54 0 std::__ndk1::__basic_string_common<true>::__throw_length_error() const
PUBLIC m 85f6c 0 std::__ndk1::__basic_string_common<true>::__throw_out_of_range() const
PUBLIC m 85f84 0 std::__ndk1::stoi(std::__ndk1::basic_string<char, std::__ndk1::char_traits<char>, std::__ndk1::allocator<char> > const&, unsigned long*, int)
PUBLIC m 86070 0 std::__ndk1::stol(std::__ndk1::basic_string<char, std::__ndk1::char_traits<char>, std::__ndk1::allocator<char> > const&, unsigned long*, int)
PUBLIC m 86154 0 std::__ndk1::stoul(std::__ndk1::basic_string<char, std::__ndk1::char_traits<char>, std::__ndk1::allocator<char> > const&, unsigned long*, int)
PUBLIC m 8623c 0 std::__ndk1::stoll(std::__ndk1::basic_string<char, std::__ndk1::char_traits<char>, std::__ndk1::allocator<char> > const&, unsigned long*, int)
PUBLIC m 86324 0 std::__ndk1::stoull(std::__ndk1::basic_string<char, std::__ndk1::char_traits<char>, std::__ndk1::allocator<char> > const&, unsigned long*, int)
PUBLIC m 86410 0 std::__ndk1::stof(std::__ndk1::basic_string<char, std::__ndk1::char_traits<char>, std::__ndk1::allocator<char> > const&, unsigned long*)
PUBLIC m 864ec 0 std::__ndk1::stod(std::__ndk1::basic_string<char, std::__ndk1::char_traits<char>, std::__ndk1::allocator<char> > const&, unsigned long*)
PUBLIC m 865c8 0 std::__ndk1::stold(std::__ndk1::basic_string<char, std::__ndk1::char_traits<char>, std::__ndk1::allocator<char> > const&, unsigned long*)
PUBLIC m 866a0 0 std::__ndk1::stoi(std::__ndk1::basic_string<wchar_t, std::__ndk1::char_traits<wchar_t>, std::__ndk1::allocator<wchar_t> > const&, unsigned long*, int)
PUBLIC m 86794 0 std::__ndk1::stol(std::__ndk1::basic_string<wchar_t, std::__ndk1::char_traits<wchar_t>, std::__ndk1::allocator<wchar_t> > const&, unsigned long*, int)
PUBLIC m 86880 0 std::__ndk1::stoul(std::__ndk1::basic_string<wchar_t, std::__ndk1::char_traits<wchar_t>, std::__ndk1::allocator<wchar_t> > const&, unsigned long*, int)
PUBLIC m 86970 0 std::__ndk1::stoll(std::__ndk1::basic_string<wchar_t, std::__ndk1::char_traits<wchar_t>, std::__ndk1::allocator<wchar_t> > const&, unsigned long*, int)
PUBLIC m 86a60 0 std::__ndk1::stoull(std::__ndk1::basic_string<wchar_t, std::__ndk1::char_traits<wchar_t>, std::__ndk1::allocator<wchar_t> > const&, unsigned long*, int)
PUBLIC m 86b54 0 std::__ndk1::stof(std::__ndk1::basic_string<wchar_t, std::__ndk1::char_traits<wchar_t>, std::__ndk1::allocator<wchar_t> > const&, unsigned long*)
PUBLIC m 86c38 0 std::__ndk1::stod(std::__ndk1::basic_string<wchar_t, std::__ndk1::char_traits<wchar_t>, std::__ndk1::allocator<wchar_t> > const&, unsigned long*)
PUBLIC m 86d1c 0 std::__ndk1::stold(std::__ndk1::basic_string<wchar_t, std::__ndk1::char_traits<wchar_t>, std::__ndk1::allocator<wchar_t> > const&, unsigned long*)
PUBLIC m 86dfc 0 std::__ndk1::to_string(int)
PUBLIC m 86f2c 0 std::__ndk1::to_string(long)
PUBLIC m 8713c 0 std::__ndk1::to_string(long long)
PUBLIC m 8734c 0 std::__ndk1::to_string(unsigned int)
PUBLIC m 87408 0 std::__ndk1::to_string(unsigned long)
PUBLIC m 875b4 0 std::__ndk1::to_string(unsigned long long)
PUBLIC m 87760 0 std::__ndk1::to_wstring(int)
PUBLIC m 87940 0 std::__ndk1::to_wstring(long)
PUBLIC m 87c00 0 std::__ndk1::to_wstring(long long)
PUBLIC m 87ec0 0 std::__ndk1::to_wstring(unsigned int)
PUBLIC m 8802c 0 std::__ndk1::to_wstring(unsigned long)
PUBLIC m 88288 0 std::__ndk1::to_wstring(unsigned long long)
PUBLIC m 884e4 0 std::__ndk1::to_string(float)
PUBLIC m 88684 0 std::__ndk1::to_string(double)
PUBLIC m 88820 0 std::__ndk1::to_string(long double)
PUBLIC m 889b4 0 std::__ndk1::to_wstring(float)
PUBLIC m 88b78 0 std::__ndk1::to_wstring(double)
PUBLIC m 88d38 0 std::__ndk1::to_wstring(long double)
PUBLIC 88ef0 0 std::__ndk1::(anonymous namespace)::throw_from_string_out_of_range(std::__ndk1::basic_string<char, std::__ndk1::char_traits<char>, std::__ndk1::allocator<char> > const&)
PUBLIC 89028 0 std::__ndk1::(anonymous namespace)::throw_from_string_invalid_arg(std::__ndk1::basic_string<char, std::__ndk1::char_traits<char>, std::__ndk1::allocator<char> > const&)
PUBLIC 89160 0 std::__ndk1::__itoa::__base_10_u32[abi:v170000](char*, unsigned int)
PUBLIC m 894ec 0 std::__ndk1::error_category::error_category()
PUBLIC m 89504 0 std::__ndk1::error_category::~error_category()
PUBLIC m 8950c 0 std::__ndk1::error_category::default_error_condition(int) const
PUBLIC m 89520 0 std::__ndk1::error_category::equivalent(int, std::__ndk1::error_condition const&) const
PUBLIC m 89564 0 std::__ndk1::error_category::equivalent(std::__ndk1::error_code const&, int) const
PUBLIC 89580 0 std::__ndk1::__do_message::message(int) const
PUBLIC 8968c 0 std::__ndk1::__generic_error_category::name() const
PUBLIC 8969c 0 std::__ndk1::__generic_error_category::message(int) const
PUBLIC m 89710 0 std::__ndk1::generic_category()
PUBLIC 8977c 0 std::__ndk1::__system_error_category::name() const
PUBLIC 8978c 0 std::__ndk1::__system_error_category::message(int) const
PUBLIC 897fc 0 std::__ndk1::__system_error_category::default_error_condition(int) const
PUBLIC m 89908 0 std::__ndk1::system_category()
PUBLIC m 89974 0 std::__ndk1::error_condition::message() const
PUBLIC m 89990 0 std::__ndk1::error_code::message() const
PUBLIC m 899ac 0 std::__ndk1::system_error::__init(std::__ndk1::error_code const&, std::__ndk1::basic_string<char, std::__ndk1::char_traits<char>, std::__ndk1::allocator<char> >)
PUBLIC m 89aa0 0 std::__ndk1::system_error::system_error(std::__ndk1::error_code, std::__ndk1::basic_string<char, std::__ndk1::char_traits<char>, std::__ndk1::allocator<char> > const&)
PUBLIC m 89be8 0 std::__ndk1::system_error::system_error(std::__ndk1::error_code, char const*)
PUBLIC m 89d34 0 std::__ndk1::system_error::system_error(std::__ndk1::error_code)
PUBLIC m 89e08 0 std::__ndk1::system_error::system_error(int, std::__ndk1::error_category const&, std::__ndk1::basic_string<char, std::__ndk1::char_traits<char>, std::__ndk1::allocator<char> > const&)
PUBLIC m 89f64 0 std::__ndk1::system_error::system_error(int, std::__ndk1::error_category const&, char const*)
PUBLIC m 8a0c4 0 std::__ndk1::system_error::system_error(int, std::__ndk1::error_category const&)
PUBLIC m 8a1ac 0 std::__ndk1::system_error::~system_error()
PUBLIC m 8a1b4 0 std::__ndk1::system_error::~system_error()
PUBLIC m 8a1e0 0 std::__ndk1::__throw_system_error(int, char const*)
PUBLIC m 8a288 0 std::__ndk1::error_category::~error_category()
PUBLIC 8a290 0 std::__ndk1::__generic_error_category::~__generic_error_category()
PUBLIC 8a298 0 std::__ndk1::__system_error_category::~__system_error_category()
PUBLIC m 8a2a0 0 std::__ndk1::thread::~thread()
PUBLIC m 8a2c4 0 std::__ndk1::thread::join()
PUBLIC m 8a310 0 std::__ndk1::thread::detach()
PUBLIC m 8a358 0 std::__ndk1::thread::hardware_concurrency()
PUBLIC m 8a384 0 std::__ndk1::this_thread::sleep_for(std::__ndk1::chrono::duration<long long, std::__ndk1::ratio<(long)1, (long)1000000000> > const&)
PUBLIC m 8a400 0 std::__ndk1::__thread_local_data()
PUBLIC 8a494 0 std::__ndk1::__thread_specific_ptr<std::__ndk1::__thread_struct>::__thread_specific_ptr()
PUBLIC m 8a4c8 0 std::__ndk1::__thread_struct_imp::~__thread_struct_imp()
PUBLIC m 8a594 0 std::__ndk1::__thread_struct::__thread_struct()
PUBLIC m 8a5d0 0 std::__ndk1::__thread_struct::~__thread_struct()
PUBLIC m 8a614 0 std::__ndk1::__thread_struct::notify_all_at_thread_exit(std::__ndk1::condition_variable*, std::__ndk1::mutex*)
PUBLIC m 8a74c 0 std::__ndk1::__thread_struct::__make_ready_at_thread_exit(std::__ndk1::__assoc_sub_state*)
PUBLIC 8a8c8 0 std::__ndk1::vector<std::__ndk1::pair<std::__ndk1::condition_variable*, std::__ndk1::mutex*>, std::__ndk1::__hidden_allocator<std::__ndk1::pair<std::__ndk1::condition_variable*, std::__ndk1::mutex*> > >::__throw_length_error[abi:v170000]() const
PUBLIC 8a8e0 0 std::__ndk1::vector<std::__ndk1::__assoc_sub_state*, std::__ndk1::__hidden_allocator<std::__ndk1::__assoc_sub_state*> >::__throw_length_error[abi:v170000]() const
PUBLIC 8a8f8 0 std::__ndk1::__thread_specific_ptr<std::__ndk1::__thread_struct>::__at_thread_exit(void*)
PUBLIC 8a930 0 std::__ndk1::__future_error_category::name() const
PUBLIC 8a940 0 std::__ndk1::__future_error_category::message(int) const
PUBLIC m 8ab10 0 std::__ndk1::future_category()
PUBLIC m 8ab8c 0 std::__ndk1::future_error::future_error(std::__ndk1::error_code)
PUBLIC m 8ac18 0 std::__ndk1::future_error::~future_error()
PUBLIC m 8ac20 0 std::__ndk1::future_error::~future_error()
PUBLIC m 8ac4c 0 std::__ndk1::__assoc_sub_state::__on_zero_shared()
PUBLIC m 8ac5c 0 std::__ndk1::__assoc_sub_state::set_value()
PUBLIC 8acec 0 std::__ndk1::__throw_future_error[abi:v170000](std::__ndk1::future_errc)
PUBLIC m 8ad98 0 std::__ndk1::__assoc_sub_state::set_value_at_thread_exit()
PUBLIC m 8ae30 0 std::__ndk1::__assoc_sub_state::set_exception(std::exception_ptr)
PUBLIC m 8aed8 0 std::__ndk1::__assoc_sub_state::set_exception_at_thread_exit(std::exception_ptr)
PUBLIC m 8af80 0 std::__ndk1::__assoc_sub_state::__make_ready()
PUBLIC m 8afc8 0 std::__ndk1::__assoc_sub_state::copy()
PUBLIC m 8b0b4 0 std::__ndk1::__assoc_sub_state::__sub_wait(std::__ndk1::unique_lock<std::__ndk1::mutex>&)
PUBLIC m 8b154 0 std::__ndk1::__assoc_sub_state::wait()
PUBLIC m 8b1fc 0 std::__ndk1::__assoc_sub_state::__execute()
PUBLIC m 8b210 0 std::__ndk1::future<void>::future(std::__ndk1::__assoc_sub_state*)
PUBLIC m 8b288 0 std::__ndk1::future<void>::~future()
PUBLIC m 8b2dc 0 std::__ndk1::future<void>::get()
PUBLIC m 8b368 0 std::__ndk1::promise<void>::promise()
PUBLIC m 8b3bc 0 std::__ndk1::promise<void>::~promise()
PUBLIC m 8b544 0 std::__ndk1::promise<void>::get_future()
PUBLIC m 8b570 0 std::__ndk1::promise<void>::set_value()
PUBLIC m 8b60c 0 std::__ndk1::promise<void>::set_exception(std::exception_ptr)
PUBLIC m 8b66c 0 std::__ndk1::promise<void>::set_value_at_thread_exit()
PUBLIC m 8b694 0 std::__ndk1::promise<void>::set_exception_at_thread_exit(std::exception_ptr)
PUBLIC m 8b6f4 0 std::__ndk1::shared_future<void>::~shared_future()
PUBLIC m 8b748 0 std::__ndk1::shared_future<void>::operator=(std::__ndk1::shared_future<void> const&)
PUBLIC 8b7c0 0 std::__ndk1::__assoc_sub_state::~__assoc_sub_state()
PUBLIC 8b814 0 std::__ndk1::__assoc_sub_state::~__assoc_sub_state()
PUBLIC 8b870 0 std::__ndk1::__future_error_category::~__future_error_category()
PUBLIC m 8b89c 0 std::uncaught_exception()
PUBLIC m 8b8c0 0 std::uncaught_exceptions()
PUBLIC m 8b8c8 0 std::exception_ptr::~exception_ptr()
PUBLIC m 8b8d4 0 std::exception_ptr::exception_ptr(std::exception_ptr const&)
PUBLIC m 8b8ec 0 std::exception_ptr::operator=(std::exception_ptr const&)
PUBLIC m 8b93c 0 std::nested_exception::nested_exception()
PUBLIC m 8b978 0 std::current_exception()
PUBLIC m 8b9a4 0 std::nested_exception::~nested_exception()
PUBLIC m 8b9bc 0 std::nested_exception::~nested_exception()
PUBLIC m 8b9e8 0 std::nested_exception::rethrow_nested() const
PUBLIC m 8ba40 0 std::rethrow_exception(std::exception_ptr)
PUBLIC m 8ba58 0 std::bad_variant_access::what() const
PUBLIC 8ba68 0 std::bad_variant_access::~bad_variant_access()
PUBLIC m 8ba94 0 std::__ndk1::random_device::random_device(std::__ndk1::basic_string<char, std::__ndk1::char_traits<char>, std::__ndk1::allocator<char> > const&)
PUBLIC m 8bb3c 0 std::__ndk1::random_device::~random_device()
PUBLIC m 8bb60 0 std::__ndk1::random_device::operator()()
PUBLIC m 8bbf4 0 std::__ndk1::random_device::entropy() const
PUBLIC 8bc4c 0 std::__ndk1::__iostream_category::name() const
PUBLIC 8bc5c 0 std::__ndk1::__iostream_category::message(int) const
PUBLIC m 8bcdc 0 std::__ndk1::iostream_category()
PUBLIC m 8bd58 0 std::__ndk1::ios_base::failure::failure(std::__ndk1::basic_string<char, std::__ndk1::char_traits<char>, std::__ndk1::allocator<char> > const&, std::__ndk1::error_code const&)
PUBLIC m 8bd98 0 std::__ndk1::ios_base::failure::failure(char const*, std::__ndk1::error_code const&)
PUBLIC m 8bdd8 0 std::__ndk1::ios_base::failure::~failure()
PUBLIC m 8bde0 0 std::__ndk1::ios_base::failure::~failure()
PUBLIC m 8be0c 0 std::__ndk1::ios_base::__call_callbacks(std::__ndk1::ios_base::event)
PUBLIC m 8be6c 0 std::__ndk1::ios_base::imbue(std::__ndk1::locale const&)
PUBLIC m 8bf00 0 std::__ndk1::ios_base::getloc() const
PUBLIC m 8bf10 0 std::__ndk1::ios_base::xalloc()
PUBLIC m 8bf38 0 std::__ndk1::ios_base::iword(int)
PUBLIC m 8c04c 0 std::__ndk1::ios_base::pword(int)
PUBLIC m 8c160 0 std::__ndk1::ios_base::register_callback(void (*)(std::__ndk1::ios_base::event, std::__ndk1::ios_base&, int), int)
PUBLIC m 8c240 0 std::__ndk1::ios_base::~ios_base()
PUBLIC m 8c2cc 0 std::__ndk1::ios_base::~ios_base()
PUBLIC m 8c2f8 0 std::__ndk1::ios_base::clear(unsigned int)
PUBLIC 8c33c 0 std::__ndk1::__throw_failure[abi:v170000](char const*)
PUBLIC m 8c3f8 0 std::__ndk1::ios_base::init(void*)
PUBLIC m 8c444 0 std::__ndk1::ios_base::copyfmt(std::__ndk1::ios_base const&)
PUBLIC m 8c714 0 std::__ndk1::ios_base::move(std::__ndk1::ios_base&)
PUBLIC m 8c7b0 0 std::__ndk1::ios_base::swap(std::__ndk1::ios_base&)
PUBLIC m 8c8e0 0 std::__ndk1::ios_base::__set_badbit_and_consider_rethrow()
PUBLIC m 8c910 0 std::__ndk1::ios_base::__set_failbit_and_consider_rethrow()
PUBLIC m 8c940 0 std::__ndk1::ios_base::sync_with_stdio(bool)
PUBLIC 8c958 0 std::__ndk1::__iostream_category::~__iostream_category()
PUBLIC m 8c984 0 std::__throw_bad_alloc()
PUBLIC m 8c9bc 0 std::__ndk1::basic_ios<char, std::__ndk1::char_traits<char> >::~basic_ios()
PUBLIC m 8c9c4 0 std::__ndk1::basic_ios<char, std::__ndk1::char_traits<char> >::~basic_ios()
PUBLIC m 8c9f0 0 std::__ndk1::basic_ios<char, std::__ndk1::char_traits<char> >::copyfmt(std::__ndk1::basic_ios<char, std::__ndk1::char_traits<char> > const&)
PUBLIC m 8ca6c 0 std::__ndk1::basic_streambuf<char, std::__ndk1::char_traits<char> >::~basic_streambuf()
PUBLIC m 8ca84 0 std::__ndk1::basic_streambuf<char, std::__ndk1::char_traits<char> >::~basic_streambuf()
PUBLIC m 8cab0 0 std::__ndk1::basic_streambuf<char, std::__ndk1::char_traits<char> >::pubimbue(std::__ndk1::locale const&)
PUBLIC m 8cb04 0 std::__ndk1::basic_streambuf<char, std::__ndk1::char_traits<char> >::getloc() const
PUBLIC m 8cb14 0 std::__ndk1::basic_streambuf<char, std::__ndk1::char_traits<char> >::pubsetbuf(char*, long)
PUBLIC m 8cb24 0 std::__ndk1::basic_streambuf<char, std::__ndk1::char_traits<char> >::pubseekoff(long long, std::__ndk1::ios_base::seekdir, unsigned int)
PUBLIC m 8cb34 0 std::__ndk1::basic_streambuf<char, std::__ndk1::char_traits<char> >::pubseekpos(std::__ndk1::fpos<mbstate_t>, unsigned int)
PUBLIC m 8cb44 0 std::__ndk1::basic_streambuf<char, std::__ndk1::char_traits<char> >::pubsync()
PUBLIC m 8cb54 0 std::__ndk1::basic_streambuf<char, std::__ndk1::char_traits<char> >::in_avail()
PUBLIC m 8cb78 0 std::__ndk1::basic_streambuf<char, std::__ndk1::char_traits<char> >::snextc()
PUBLIC m 8cc00 0 std::__ndk1::basic_streambuf<char, std::__ndk1::char_traits<char> >::sbumpc()
PUBLIC m 8cc2c 0 std::__ndk1::basic_streambuf<char, std::__ndk1::char_traits<char> >::sgetc()
PUBLIC m 8cc50 0 std::__ndk1::basic_streambuf<char, std::__ndk1::char_traits<char> >::sgetn(char*, long)
PUBLIC m 8cc60 0 std::__ndk1::basic_streambuf<char, std::__ndk1::char_traits<char> >::sputbackc(char)
PUBLIC m 8cc98 0 std::__ndk1::basic_streambuf<char, std::__ndk1::char_traits<char> >::sungetc()
PUBLIC m 8ccc8 0 std::__ndk1::basic_streambuf<char, std::__ndk1::char_traits<char> >::sputc(char)
PUBLIC m 8cd04 0 std::__ndk1::basic_streambuf<char, std::__ndk1::char_traits<char> >::sputn(char const*, long)
PUBLIC m 8cd14 0 std::__ndk1::basic_streambuf<char, std::__ndk1::char_traits<char> >::basic_streambuf()
PUBLIC m 8cd5c 0 std::__ndk1::basic_streambuf<char, std::__ndk1::char_traits<char> >::basic_streambuf(std::__ndk1::basic_streambuf<char, std::__ndk1::char_traits<char> > const&)
PUBLIC m 8cdb8 0 std::__ndk1::basic_streambuf<char, std::__ndk1::char_traits<char> >::operator=(std::__ndk1::basic_streambuf<char, std::__ndk1::char_traits<char> > const&)
PUBLIC m 8ce08 0 std::__ndk1::basic_streambuf<char, std::__ndk1::char_traits<char> >::swap(std::__ndk1::basic_streambuf<char, std::__ndk1::char_traits<char> >&)
PUBLIC m 8ced4 0 std::__ndk1::basic_streambuf<char, std::__ndk1::char_traits<char> >::gbump(int)
PUBLIC m 8cee8 0 std::__ndk1::basic_streambuf<char, std::__ndk1::char_traits<char> >::setg(char*, char*, char*)
PUBLIC m 8cef8 0 std::__ndk1::basic_streambuf<char, std::__ndk1::char_traits<char> >::pbump(int)
PUBLIC m 8cf0c 0 std::__ndk1::basic_streambuf<char, std::__ndk1::char_traits<char> >::setp(char*, char*)
PUBLIC m 8cf1c 0 std::__ndk1::basic_streambuf<char, std::__ndk1::char_traits<char> >::imbue(std::__ndk1::locale const&)
PUBLIC m 8cf24 0 std::__ndk1::basic_streambuf<char, std::__ndk1::char_traits<char> >::setbuf(char*, long)
PUBLIC m 8cf2c 0 std::__ndk1::basic_streambuf<char, std::__ndk1::char_traits<char> >::seekoff(long long, std::__ndk1::ios_base::seekdir, unsigned int)
PUBLIC m 8cf3c 0 std::__ndk1::basic_streambuf<char, std::__ndk1::char_traits<char> >::seekpos(std::__ndk1::fpos<mbstate_t>, unsigned int)
PUBLIC m 8cf4c 0 std::__ndk1::basic_streambuf<char, std::__ndk1::char_traits<char> >::sync()
PUBLIC m 8cf58 0 std::__ndk1::basic_streambuf<char, std::__ndk1::char_traits<char> >::showmanyc()
PUBLIC m 8cf64 0 std::__ndk1::basic_streambuf<char, std::__ndk1::char_traits<char> >::xsgetn(char*, long)
PUBLIC m 8d044 0 std::__ndk1::basic_streambuf<char, std::__ndk1::char_traits<char> >::underflow()
PUBLIC m 8d050 0 std::__ndk1::basic_streambuf<char, std::__ndk1::char_traits<char> >::uflow()
PUBLIC m 8d098 0 std::__ndk1::basic_streambuf<char, std::__ndk1::char_traits<char> >::pbackfail(int)
PUBLIC m 8d0a4 0 std::__ndk1::basic_streambuf<char, std::__ndk1::char_traits<char> >::xsputn(char const*, long)
PUBLIC m 8d16c 0 std::__ndk1::basic_streambuf<char, std::__ndk1::char_traits<char> >::overflow(int)
PUBLIC m 8d178 0 std::__ndk1::basic_istream<char, std::__ndk1::char_traits<char> >::basic_istream(std::__ndk1::basic_streambuf<char, std::__ndk1::char_traits<char> >*)
PUBLIC m 8d1d4 0 std::__ndk1::basic_istream<char, std::__ndk1::char_traits<char> >::basic_istream(std::__ndk1::basic_streambuf<char, std::__ndk1::char_traits<char> >*)
PUBLIC m 8d23c 0 std::__ndk1::basic_istream<char, std::__ndk1::char_traits<char> >::~basic_istream()
PUBLIC m 8d244 0 std::__ndk1::basic_istream<char, std::__ndk1::char_traits<char> >::~basic_istream()
PUBLIC m 8d250 0 {virtual override thunk({virtual offset(0, -24)}, std::__ndk1::basic_istream<char, std::__ndk1::char_traits<char> >::~basic_istream())}
PUBLIC m 8d268 0 std::__ndk1::basic_istream<char, std::__ndk1::char_traits<char> >::~basic_istream()
PUBLIC m 8d298 0 {virtual override thunk({virtual offset(0, -24)}, std::__ndk1::basic_istream<char, std::__ndk1::char_traits<char> >::~basic_istream())}
PUBLIC m 8d2d0 0 std::__ndk1::basic_istream<char, std::__ndk1::char_traits<char> >::swap(std::__ndk1::basic_istream<char, std::__ndk1::char_traits<char> >&)
PUBLIC m 8d33c 0 std::__ndk1::basic_istream<char, std::__ndk1::char_traits<char> >::sentry::sentry(std::__ndk1::basic_istream<char, std::__ndk1::char_traits<char> >&, bool)
PUBLIC m 8d508 0 std::__ndk1::basic_ostream<char, std::__ndk1::char_traits<char> >::flush()
PUBLIC m 8d600 0 std::__ndk1::basic_istream<char, std::__ndk1::char_traits<char> >::operator>>(std::__ndk1::basic_istream<char, std::__ndk1::char_traits<char> >& (*)(std::__ndk1::basic_istream<char, std::__ndk1::char_traits<char> >&))
PUBLIC m 8d60c 0 std::__ndk1::basic_istream<char, std::__ndk1::char_traits<char> >::operator>>(std::__ndk1::basic_ios<char, std::__ndk1::char_traits<char> >& (*)(std::__ndk1::basic_ios<char, std::__ndk1::char_traits<char> >&))
PUBLIC m 8d644 0 std::__ndk1::basic_istream<char, std::__ndk1::char_traits<char> >::operator>>(std::__ndk1::ios_base& (*)(std::__ndk1::ios_base&))
PUBLIC m 8d67c 0 std::__ndk1::basic_istream<char, std::__ndk1::char_traits<char> >::operator>>(std::__ndk1::basic_streambuf<char, std::__ndk1::char_traits<char> >*)
PUBLIC m 8d814 0 std::__ndk1::basic_istream<char, std::__ndk1::char_traits<char> >::operator>>(bool&)
PUBLIC 8d81c 0 std::__ndk1::__input_arithmetic[abi:v170000]<bool, char, std::__ndk1::char_traits<char> >(std::__ndk1::basic_istream<char, std::__ndk1::char_traits<char> >, bool&)
PUBLIC m 8d94c 0 std::__ndk1::basic_istream<char, std::__ndk1::char_traits<char> >::operator>>(short&)
PUBLIC 8d954 0 std::__ndk1::__input_arithmetic_with_numeric_limits[abi:v170000]<short, char, std::__ndk1::char_traits<char> >(std::__ndk1::basic_istream<char, std::__ndk1::char_traits<char> >, short&)
PUBLIC m 8dac4 0 std::__ndk1::basic_istream<char, std::__ndk1::char_traits<char> >::operator>>(unsigned short&)
PUBLIC 8dacc 0 std::__ndk1::__input_arithmetic[abi:v170000]<unsigned short, char, std::__ndk1::char_traits<char> >(std::__ndk1::basic_istream<char, std::__ndk1::char_traits<char> >, unsigned short&)
PUBLIC m 8dbfc 0 std::__ndk1::basic_istream<char, std::__ndk1::char_traits<char> >::operator>>(int&)
PUBLIC 8dc04 0 std::__ndk1::__input_arithmetic_with_numeric_limits[abi:v170000]<int, char, std::__ndk1::char_traits<char> >(std::__ndk1::basic_istream<char, std::__ndk1::char_traits<char> >, int&)
PUBLIC m 8dd78 0 std::__ndk1::basic_istream<char, std::__ndk1::char_traits<char> >::operator>>(unsigned int&)
PUBLIC 8dd80 0 std::__ndk1::__input_arithmetic[abi:v170000]<unsigned int, char, std::__ndk1::char_traits<char> >(std::__ndk1::basic_istream<char, std::__ndk1::char_traits<char> >, unsigned int&)
PUBLIC m 8deb0 0 std::__ndk1::basic_istream<char, std::__ndk1::char_traits<char> >::operator>>(long&)
PUBLIC 8deb8 0 std::__ndk1::__input_arithmetic[abi:v170000]<long, char, std::__ndk1::char_traits<char> >(std::__ndk1::basic_istream<char, std::__ndk1::char_traits<char> >, long&)
PUBLIC m 8dfe8 0 std::__ndk1::basic_istream<char, std::__ndk1::char_traits<char> >::operator>>(unsigned long&)
PUBLIC 8dff0 0 std::__ndk1::__input_arithmetic[abi:v170000]<unsigned long, char, std::__ndk1::char_traits<char> >(std::__ndk1::basic_istream<char, std::__ndk1::char_traits<char> >, unsigned long&)
PUBLIC m 8e120 0 std::__ndk1::basic_istream<char, std::__ndk1::char_traits<char> >::operator>>(long long&)
PUBLIC 8e128 0 std::__ndk1::__input_arithmetic[abi:v170000]<long long, char, std::__ndk1::char_traits<char> >(std::__ndk1::basic_istream<char, std::__ndk1::char_traits<char> >, long long&)
PUBLIC m 8e258 0 std::__ndk1::basic_istream<char, std::__ndk1::char_traits<char> >::operator>>(unsigned long long&)
PUBLIC 8e260 0 std::__ndk1::__input_arithmetic[abi:v170000]<unsigned long long, char, std::__ndk1::char_traits<char> >(std::__ndk1::basic_istream<char, std::__ndk1::char_traits<char> >, unsigned long long&)
PUBLIC m 8e390 0 std::__ndk1::basic_istream<char, std::__ndk1::char_traits<char> >::operator>>(float&)
PUBLIC 8e398 0 std::__ndk1::__input_arithmetic[abi:v170000]<float, char, std::__ndk1::char_traits<char> >(std::__ndk1::basic_istream<char, std::__ndk1::char_traits<char> >, float&)
PUBLIC m 8e4c8 0 std::__ndk1::basic_istream<char, std::__ndk1::char_traits<char> >::operator>>(double&)
PUBLIC 8e4d0 0 std::__ndk1::__input_arithmetic[abi:v170000]<double, char, std::__ndk1::char_traits<char> >(std::__ndk1::basic_istream<char, std::__ndk1::char_traits<char> >, double&)
PUBLIC m 8e600 0 std::__ndk1::basic_istream<char, std::__ndk1::char_traits<char> >::operator>>(long double&)
PUBLIC 8e608 0 std::__ndk1::__input_arithmetic[abi:v170000]<long double, char, std::__ndk1::char_traits<char> >(std::__ndk1::basic_istream<char, std::__ndk1::char_traits<char> >, long double&)
PUBLIC m 8e738 0 std::__ndk1::basic_istream<char, std::__ndk1::char_traits<char> >::operator>>(void*&)
PUBLIC 8e740 0 std::__ndk1::__input_arithmetic[abi:v170000]<void*, char, std::__ndk1::char_traits<char> >(std::__ndk1::basic_istream<char, std::__ndk1::char_traits<char> >, void*&)
PUBLIC m 8e870 0 std::__ndk1::basic_istream<char, std::__ndk1::char_traits<char> >::get()
PUBLIC m 8e99c 0 std::__ndk1::basic_istream<char, std::__ndk1::char_traits<char> >::get(char&)
PUBLIC m 8e9d8 0 std::__ndk1::basic_istream<char, std::__ndk1::char_traits<char> >::get(char*, long)
PUBLIC m 8ea7c 0 std::__ndk1::basic_istream<char, std::__ndk1::char_traits<char> >::get(char*, long, char)
PUBLIC m 8ec5c 0 std::__ndk1::basic_istream<char, std::__ndk1::char_traits<char> >::get(std::__ndk1::basic_streambuf<char, std::__ndk1::char_traits<char> >&)
PUBLIC m 8ecf0 0 std::__ndk1::basic_istream<char, std::__ndk1::char_traits<char> >::get(std::__ndk1::basic_streambuf<char, std::__ndk1::char_traits<char> >&, char)
PUBLIC m 8ee4c 0 std::__ndk1::basic_istream<char, std::__ndk1::char_traits<char> >::getline(char*, long)
PUBLIC m 8eef0 0 std::__ndk1::basic_istream<char, std::__ndk1::char_traits<char> >::getline(char*, long, char)
PUBLIC m 8f108 0 std::__ndk1::basic_istream<char, std::__ndk1::char_traits<char> >::ignore(long, int)
PUBLIC m 8f2ac 0 std::__ndk1::basic_istream<char, std::__ndk1::char_traits<char> >::peek()
PUBLIC m 8f3c0 0 std::__ndk1::basic_istream<char, std::__ndk1::char_traits<char> >::read(char*, long)
PUBLIC m 8f4b8 0 std::__ndk1::basic_istream<char, std::__ndk1::char_traits<char> >::readsome(char*, long)
PUBLIC m 8f608 0 std::__ndk1::basic_istream<char, std::__ndk1::char_traits<char> >::putback(char)
PUBLIC m 8f73c 0 std::__ndk1::basic_istream<char, std::__ndk1::char_traits<char> >::unget()
PUBLIC m 8f864 0 std::__ndk1::basic_istream<char, std::__ndk1::char_traits<char> >::sync()
PUBLIC m 8f954 0 std::__ndk1::basic_istream<char, std::__ndk1::char_traits<char> >::tellg()
PUBLIC m 8fa50 0 std::__ndk1::basic_istream<char, std::__ndk1::char_traits<char> >::seekg(std::__ndk1::fpos<mbstate_t>)
PUBLIC m 8fb60 0 std::__ndk1::basic_istream<char, std::__ndk1::char_traits<char> >::seekg(long long, std::__ndk1::ios_base::seekdir)
PUBLIC m 8fc70 0 std::__ndk1::basic_ostream<char, std::__ndk1::char_traits<char> >::basic_ostream(std::__ndk1::basic_streambuf<char, std::__ndk1::char_traits<char> >*)
PUBLIC m 8fcc8 0 std::__ndk1::basic_ostream<char, std::__ndk1::char_traits<char> >::basic_ostream(std::__ndk1::basic_streambuf<char, std::__ndk1::char_traits<char> >*)
PUBLIC m 8fd30 0 std::__ndk1::basic_ostream<char, std::__ndk1::char_traits<char> >::~basic_ostream()
PUBLIC m 8fd38 0 std::__ndk1::basic_ostream<char, std::__ndk1::char_traits<char> >::~basic_ostream()
PUBLIC m 8fd44 0 {virtual override thunk({virtual offset(0, -24)}, std::__ndk1::basic_ostream<char, std::__ndk1::char_traits<char> >::~basic_ostream())}
PUBLIC m 8fd5c 0 std::__ndk1::basic_ostream<char, std::__ndk1::char_traits<char> >::~basic_ostream()
PUBLIC m 8fd8c 0 {virtual override thunk({virtual offset(0, -24)}, std::__ndk1::basic_ostream<char, std::__ndk1::char_traits<char> >::~basic_ostream())}
PUBLIC m 8fdc4 0 std::__ndk1::basic_ostream<char, std::__ndk1::char_traits<char> >::swap(std::__ndk1::basic_ostream<char, std::__ndk1::char_traits<char> >&)
PUBLIC m 8fe28 0 std::__ndk1::basic_ostream<char, std::__ndk1::char_traits<char> >::sentry::sentry(std::__ndk1::basic_ostream<char, std::__ndk1::char_traits<char> >&)
PUBLIC m 8fe8c 0 std::__ndk1::basic_ostream<char, std::__ndk1::char_traits<char> >::sentry::~sentry()
PUBLIC m 8ff34 0 std::__ndk1::basic_ostream<char, std::__ndk1::char_traits<char> >::operator<<(std::__ndk1::basic_ostream<char, std::__ndk1::char_traits<char> >& (*)(std::__ndk1::basic_ostream<char, std::__ndk1::char_traits<char> >&))
PUBLIC m 8ff40 0 std::__ndk1::basic_ostream<char, std::__ndk1::char_traits<char> >::operator<<(std::__ndk1::basic_ios<char, std::__ndk1::char_traits<char> >& (*)(std::__ndk1::basic_ios<char, std::__ndk1::char_traits<char> >&))
PUBLIC m 8ff78 0 std::__ndk1::basic_ostream<char, std::__ndk1::char_traits<char> >::operator<<(std::__ndk1::ios_base& (*)(std::__ndk1::ios_base&))
PUBLIC m 8ffb0 0 std::__ndk1::basic_ostream<char, std::__ndk1::char_traits<char> >::operator<<(bool)
PUBLIC m 9013c 0 std::__ndk1::basic_ostream<char, std::__ndk1::char_traits<char> >::operator<<(short)
PUBLIC m 902f0 0 std::__ndk1::basic_ostream<char, std::__ndk1::char_traits<char> >::operator<<(unsigned short)
PUBLIC m 9047c 0 std::__ndk1::basic_ostream<char, std::__ndk1::char_traits<char> >::operator<<(int)
PUBLIC m 90630 0 std::__ndk1::basic_ostream<char, std::__ndk1::char_traits<char> >::operator<<(unsigned int)
PUBLIC m 907bc 0 std::__ndk1::basic_ostream<char, std::__ndk1::char_traits<char> >::operator<<(long)
PUBLIC m 90948 0 std::__ndk1::basic_ostream<char, std::__ndk1::char_traits<char> >::operator<<(unsigned long)
PUBLIC m 90ad4 0 std::__ndk1::basic_ostream<char, std::__ndk1::char_traits<char> >::operator<<(long long)
PUBLIC m 90c60 0 std::__ndk1::basic_ostream<char, std::__ndk1::char_traits<char> >::operator<<(unsigned long long)
PUBLIC m 90dec 0 std::__ndk1::basic_ostream<char, std::__ndk1::char_traits<char> >::operator<<(float)
PUBLIC m 90f80 0 std::__ndk1::basic_ostream<char, std::__ndk1::char_traits<char> >::operator<<(double)
PUBLIC m 91114 0 std::__ndk1::basic_ostream<char, std::__ndk1::char_traits<char> >::operator<<(long double)
PUBLIC m 912a0 0 std::__ndk1::basic_ostream<char, std::__ndk1::char_traits<char> >::operator<<(void const*)
PUBLIC m 9142c 0 std::__ndk1::basic_ostream<char, std::__ndk1::char_traits<char> >::operator<<(std::__ndk1::basic_streambuf<char, std::__ndk1::char_traits<char> >*)
PUBLIC m 91640 0 std::__ndk1::basic_ostream<char, std::__ndk1::char_traits<char> >::put(char)
PUBLIC m 9174c 0 std::__ndk1::basic_ostream<char, std::__ndk1::char_traits<char> >::write(char const*, long)
PUBLIC m 91838 0 std::__ndk1::basic_ostream<char, std::__ndk1::char_traits<char> >::tellp()
PUBLIC m 9189c 0 std::__ndk1::basic_ostream<char, std::__ndk1::char_traits<char> >::seekp(std::__ndk1::fpos<mbstate_t>)
PUBLIC m 91960 0 std::__ndk1::basic_ostream<char, std::__ndk1::char_traits<char> >::seekp(long long, std::__ndk1::ios_base::seekdir)
PUBLIC m 91a24 0 std::__ndk1::basic_iostream<char, std::__ndk1::char_traits<char> >::basic_iostream(std::__ndk1::basic_streambuf<char, std::__ndk1::char_traits<char> >*)
PUBLIC m 91ac4 0 std::__ndk1::basic_iostream<char, std::__ndk1::char_traits<char> >::basic_iostream(std::__ndk1::basic_streambuf<char, std::__ndk1::char_traits<char> >*)
PUBLIC m 91b48 0 std::__ndk1::basic_iostream<char, std::__ndk1::char_traits<char> >::~basic_iostream()
PUBLIC m 91b50 0 std::__ndk1::basic_iostream<char, std::__ndk1::char_traits<char> >::~basic_iostream()
PUBLIC m 91b5c 0 {virtual override thunk({offset(-16)}, std::__ndk1::basic_iostream<char, std::__ndk1::char_traits<char> >::~basic_iostream())}
PUBLIC m 91b68 0 {virtual override thunk({virtual offset(0, -24)}, std::__ndk1::basic_iostream<char, std::__ndk1::char_traits<char> >::~basic_iostream())}
PUBLIC m 91b80 0 std::__ndk1::basic_iostream<char, std::__ndk1::char_traits<char> >::~basic_iostream()
PUBLIC m 91bb0 0 {virtual override thunk({offset(-16)}, std::__ndk1::basic_iostream<char, std::__ndk1::char_traits<char> >::~basic_iostream())}
PUBLIC m 91be0 0 {virtual override thunk({virtual offset(0, -24)}, std::__ndk1::basic_iostream<char, std::__ndk1::char_traits<char> >::~basic_iostream())}
PUBLIC m 91c18 0 std::__ndk1::basic_iostream<char, std::__ndk1::char_traits<char> >::swap(std::__ndk1::basic_iostream<char, std::__ndk1::char_traits<char> >&)
PUBLIC m 91c84 0 std::__ndk1::basic_ios<wchar_t, std::__ndk1::char_traits<wchar_t> >::~basic_ios()
PUBLIC m 91c8c 0 std::__ndk1::basic_ios<wchar_t, std::__ndk1::char_traits<wchar_t> >::~basic_ios()
PUBLIC m 91cb8 0 std::__ndk1::basic_ios<wchar_t, std::__ndk1::char_traits<wchar_t> >::copyfmt(std::__ndk1::basic_ios<wchar_t, std::__ndk1::char_traits<wchar_t> > const&)
PUBLIC m 91d34 0 std::__ndk1::basic_streambuf<wchar_t, std::__ndk1::char_traits<wchar_t> >::~basic_streambuf()
PUBLIC m 91d4c 0 std::__ndk1::basic_streambuf<wchar_t, std::__ndk1::char_traits<wchar_t> >::~basic_streambuf()
PUBLIC m 91d78 0 std::__ndk1::basic_streambuf<wchar_t, std::__ndk1::char_traits<wchar_t> >::pubimbue(std::__ndk1::locale const&)
PUBLIC m 91dcc 0 std::__ndk1::basic_streambuf<wchar_t, std::__ndk1::char_traits<wchar_t> >::getloc() const
PUBLIC m 91ddc 0 std::__ndk1::basic_streambuf<wchar_t, std::__ndk1::char_traits<wchar_t> >::pubsetbuf(wchar_t*, long)
PUBLIC m 91dec 0 std::__ndk1::basic_streambuf<wchar_t, std::__ndk1::char_traits<wchar_t> >::pubseekoff(long long, std::__ndk1::ios_base::seekdir, unsigned int)
PUBLIC m 91dfc 0 std::__ndk1::basic_streambuf<wchar_t, std::__ndk1::char_traits<wchar_t> >::pubseekpos(std::__ndk1::fpos<mbstate_t>, unsigned int)
PUBLIC m 91e0c 0 std::__ndk1::basic_streambuf<wchar_t, std::__ndk1::char_traits<wchar_t> >::pubsync()
PUBLIC m 91e1c 0 std::__ndk1::basic_streambuf<wchar_t, std::__ndk1::char_traits<wchar_t> >::in_avail()
PUBLIC m 91e44 0 std::__ndk1::basic_streambuf<wchar_t, std::__ndk1::char_traits<wchar_t> >::snextc()
PUBLIC m 91ed8 0 std::__ndk1::basic_streambuf<wchar_t, std::__ndk1::char_traits<wchar_t> >::sbumpc()
PUBLIC m 91f08 0 std::__ndk1::basic_streambuf<wchar_t, std::__ndk1::char_traits<wchar_t> >::sgetc()
PUBLIC m 91f2c 0 std::__ndk1::basic_streambuf<wchar_t, std::__ndk1::char_traits<wchar_t> >::sgetn(wchar_t*, long)
PUBLIC m 91f3c 0 std::__ndk1::basic_streambuf<wchar_t, std::__ndk1::char_traits<wchar_t> >::sputbackc(wchar_t)
PUBLIC m 91f78 0 std::__ndk1::basic_streambuf<wchar_t, std::__ndk1::char_traits<wchar_t> >::sungetc()
PUBLIC m 91fac 0 std::__ndk1::basic_streambuf<wchar_t, std::__ndk1::char_traits<wchar_t> >::sputc(wchar_t)
PUBLIC m 91fe0 0 std::__ndk1::basic_streambuf<wchar_t, std::__ndk1::char_traits<wchar_t> >::sputn(wchar_t const*, long)
PUBLIC m 91ff0 0 std::__ndk1::basic_streambuf<wchar_t, std::__ndk1::char_traits<wchar_t> >::basic_streambuf()
PUBLIC m 92038 0 std::__ndk1::basic_streambuf<wchar_t, std::__ndk1::char_traits<wchar_t> >::basic_streambuf(std::__ndk1::basic_streambuf<wchar_t, std::__ndk1::char_traits<wchar_t> > const&)
PUBLIC m 92094 0 std::__ndk1::basic_streambuf<wchar_t, std::__ndk1::char_traits<wchar_t> >::operator=(std::__ndk1::basic_streambuf<wchar_t, std::__ndk1::char_traits<wchar_t> > const&)
PUBLIC m 920e4 0 std::__ndk1::basic_streambuf<wchar_t, std::__ndk1::char_traits<wchar_t> >::swap(std::__ndk1::basic_streambuf<wchar_t, std::__ndk1::char_traits<wchar_t> >&)
PUBLIC m 921b0 0 std::__ndk1::basic_streambuf<wchar_t, std::__ndk1::char_traits<wchar_t> >::gbump(int)
PUBLIC m 921c4 0 std::__ndk1::basic_streambuf<wchar_t, std::__ndk1::char_traits<wchar_t> >::setg(wchar_t*, wchar_t*, wchar_t*)
PUBLIC m 921d4 0 std::__ndk1::basic_streambuf<wchar_t, std::__ndk1::char_traits<wchar_t> >::pbump(int)
PUBLIC m 921e8 0 std::__ndk1::basic_streambuf<wchar_t, std::__ndk1::char_traits<wchar_t> >::setp(wchar_t*, wchar_t*)
PUBLIC m 921f8 0 std::__ndk1::basic_streambuf<wchar_t, std::__ndk1::char_traits<wchar_t> >::imbue(std::__ndk1::locale const&)
PUBLIC m 92200 0 std::__ndk1::basic_streambuf<wchar_t, std::__ndk1::char_traits<wchar_t> >::setbuf(wchar_t*, long)
PUBLIC m 92208 0 std::__ndk1::basic_streambuf<wchar_t, std::__ndk1::char_traits<wchar_t> >::seekoff(long long, std::__ndk1::ios_base::seekdir, unsigned int)
PUBLIC m 92218 0 std::__ndk1::basic_streambuf<wchar_t, std::__ndk1::char_traits<wchar_t> >::seekpos(std::__ndk1::fpos<mbstate_t>, unsigned int)
PUBLIC m 92228 0 std::__ndk1::basic_streambuf<wchar_t, std::__ndk1::char_traits<wchar_t> >::sync()
PUBLIC m 92234 0 std::__ndk1::basic_streambuf<wchar_t, std::__ndk1::char_traits<wchar_t> >::showmanyc()
PUBLIC m 92240 0 std::__ndk1::basic_streambuf<wchar_t, std::__ndk1::char_traits<wchar_t> >::xsgetn(wchar_t*, long)
PUBLIC m 92328 0 std::__ndk1::basic_streambuf<wchar_t, std::__ndk1::char_traits<wchar_t> >::underflow()
PUBLIC m 92334 0 std::__ndk1::basic_streambuf<wchar_t, std::__ndk1::char_traits<wchar_t> >::uflow()
PUBLIC m 92378 0 std::__ndk1::basic_streambuf<wchar_t, std::__ndk1::char_traits<wchar_t> >::pbackfail(unsigned int)
PUBLIC m 92384 0 std::__ndk1::basic_streambuf<wchar_t, std::__ndk1::char_traits<wchar_t> >::xsputn(wchar_t const*, long)
PUBLIC m 92454 0 std::__ndk1::basic_streambuf<wchar_t, std::__ndk1::char_traits<wchar_t> >::overflow(unsigned int)
PUBLIC m 92460 0 std::__ndk1::basic_istream<wchar_t, std::__ndk1::char_traits<wchar_t> >::basic_istream(std::__ndk1::basic_streambuf<wchar_t, std::__ndk1::char_traits<wchar_t> >*)
PUBLIC m 924bc 0 std::__ndk1::basic_istream<wchar_t, std::__ndk1::char_traits<wchar_t> >::basic_istream(std::__ndk1::basic_streambuf<wchar_t, std::__ndk1::char_traits<wchar_t> >*)
PUBLIC m 92524 0 std::__ndk1::basic_istream<wchar_t, std::__ndk1::char_traits<wchar_t> >::~basic_istream()
PUBLIC m 9252c 0 std::__ndk1::basic_istream<wchar_t, std::__ndk1::char_traits<wchar_t> >::~basic_istream()
PUBLIC m 92538 0 {virtual override thunk({virtual offset(0, -24)}, std::__ndk1::basic_istream<wchar_t, std::__ndk1::char_traits<wchar_t> >::~basic_istream())}
PUBLIC m 92550 0 std::__ndk1::basic_istream<wchar_t, std::__ndk1::char_traits<wchar_t> >::~basic_istream()
PUBLIC m 92580 0 {virtual override thunk({virtual offset(0, -24)}, std::__ndk1::basic_istream<wchar_t, std::__ndk1::char_traits<wchar_t> >::~basic_istream())}
PUBLIC m 925b8 0 std::__ndk1::basic_istream<wchar_t, std::__ndk1::char_traits<wchar_t> >::swap(std::__ndk1::basic_istream<wchar_t, std::__ndk1::char_traits<wchar_t> >&)
PUBLIC m 92624 0 std::__ndk1::basic_istream<wchar_t, std::__ndk1::char_traits<wchar_t> >::sentry::sentry(std::__ndk1::basic_istream<wchar_t, std::__ndk1::char_traits<wchar_t> >&, bool)
PUBLIC m 9283c 0 std::__ndk1::basic_ostream<wchar_t, std::__ndk1::char_traits<wchar_t> >::flush()
PUBLIC m 92934 0 std::__ndk1::basic_istream<wchar_t, std::__ndk1::char_traits<wchar_t> >::operator>>(std::__ndk1::basic_istream<wchar_t, std::__ndk1::char_traits<wchar_t> >& (*)(std::__ndk1::basic_istream<wchar_t, std::__ndk1::char_traits<wchar_t> >&))
PUBLIC m 92940 0 std::__ndk1::basic_istream<wchar_t, std::__ndk1::char_traits<wchar_t> >::operator>>(std::__ndk1::basic_ios<wchar_t, std::__ndk1::char_traits<wchar_t> >& (*)(std::__ndk1::basic_ios<wchar_t, std::__ndk1::char_traits<wchar_t> >&))
PUBLIC m 92978 0 std::__ndk1::basic_istream<wchar_t, std::__ndk1::char_traits<wchar_t> >::operator>>(std::__ndk1::ios_base& (*)(std::__ndk1::ios_base&))
PUBLIC m 929b0 0 std::__ndk1::basic_istream<wchar_t, std::__ndk1::char_traits<wchar_t> >::operator>>(std::__ndk1::basic_streambuf<wchar_t, std::__ndk1::char_traits<wchar_t> >*)
PUBLIC m 92b44 0 std::__ndk1::basic_istream<wchar_t, std::__ndk1::char_traits<wchar_t> >::operator>>(bool&)
PUBLIC 92b4c 0 std::__ndk1::__input_arithmetic[abi:v170000]<bool, wchar_t, std::__ndk1::char_traits<wchar_t> >(std::__ndk1::basic_istream<wchar_t, std::__ndk1::char_traits<wchar_t> >, bool&)
PUBLIC m 92c7c 0 std::__ndk1::basic_istream<wchar_t, std::__ndk1::char_traits<wchar_t> >::operator>>(short&)
PUBLIC 92c84 0 std::__ndk1::__input_arithmetic_with_numeric_limits[abi:v170000]<short, wchar_t, std::__ndk1::char_traits<wchar_t> >(std::__ndk1::basic_istream<wchar_t, std::__ndk1::char_traits<wchar_t> >, short&)
PUBLIC m 92df4 0 std::__ndk1::basic_istream<wchar_t, std::__ndk1::char_traits<wchar_t> >::operator>>(unsigned short&)
PUBLIC 92dfc 0 std::__ndk1::__input_arithmetic[abi:v170000]<unsigned short, wchar_t, std::__ndk1::char_traits<wchar_t> >(std::__ndk1::basic_istream<wchar_t, std::__ndk1::char_traits<wchar_t> >, unsigned short&)
PUBLIC m 92f2c 0 std::__ndk1::basic_istream<wchar_t, std::__ndk1::char_traits<wchar_t> >::operator>>(int&)
PUBLIC 92f34 0 std::__ndk1::__input_arithmetic_with_numeric_limits[abi:v170000]<int, wchar_t, std::__ndk1::char_traits<wchar_t> >(std::__ndk1::basic_istream<wchar_t, std::__ndk1::char_traits<wchar_t> >, int&)
PUBLIC m 930a8 0 std::__ndk1::basic_istream<wchar_t, std::__ndk1::char_traits<wchar_t> >::operator>>(unsigned int&)
PUBLIC 930b0 0 std::__ndk1::__input_arithmetic[abi:v170000]<unsigned int, wchar_t, std::__ndk1::char_traits<wchar_t> >(std::__ndk1::basic_istream<wchar_t, std::__ndk1::char_traits<wchar_t> >, unsigned int&)
PUBLIC m 931e0 0 std::__ndk1::basic_istream<wchar_t, std::__ndk1::char_traits<wchar_t> >::operator>>(long&)
PUBLIC 931e8 0 std::__ndk1::__input_arithmetic[abi:v170000]<long, wchar_t, std::__ndk1::char_traits<wchar_t> >(std::__ndk1::basic_istream<wchar_t, std::__ndk1::char_traits<wchar_t> >, long&)
PUBLIC m 93318 0 std::__ndk1::basic_istream<wchar_t, std::__ndk1::char_traits<wchar_t> >::operator>>(unsigned long&)
PUBLIC 93320 0 std::__ndk1::__input_arithmetic[abi:v170000]<unsigned long, wchar_t, std::__ndk1::char_traits<wchar_t> >(std::__ndk1::basic_istream<wchar_t, std::__ndk1::char_traits<wchar_t> >, unsigned long&)
PUBLIC m 93450 0 std::__ndk1::basic_istream<wchar_t, std::__ndk1::char_traits<wchar_t> >::operator>>(long long&)
PUBLIC 93458 0 std::__ndk1::__input_arithmetic[abi:v170000]<long long, wchar_t, std::__ndk1::char_traits<wchar_t> >(std::__ndk1::basic_istream<wchar_t, std::__ndk1::char_traits<wchar_t> >, long long&)
PUBLIC m 93588 0 std::__ndk1::basic_istream<wchar_t, std::__ndk1::char_traits<wchar_t> >::operator>>(unsigned long long&)
PUBLIC 93590 0 std::__ndk1::__input_arithmetic[abi:v170000]<unsigned long long, wchar_t, std::__ndk1::char_traits<wchar_t> >(std::__ndk1::basic_istream<wchar_t, std::__ndk1::char_traits<wchar_t> >, unsigned long long&)
PUBLIC m 936c0 0 std::__ndk1::basic_istream<wchar_t, std::__ndk1::char_traits<wchar_t> >::operator>>(float&)
PUBLIC 936c8 0 std::__ndk1::__input_arithmetic[abi:v170000]<float, wchar_t, std::__ndk1::char_traits<wchar_t> >(std::__ndk1::basic_istream<wchar_t, std::__ndk1::char_traits<wchar_t> >, float&)
PUBLIC m 937f8 0 std::__ndk1::basic_istream<wchar_t, std::__ndk1::char_traits<wchar_t> >::operator>>(double&)
PUBLIC 93800 0 std::__ndk1::__input_arithmetic[abi:v170000]<double, wchar_t, std::__ndk1::char_traits<wchar_t> >(std::__ndk1::basic_istream<wchar_t, std::__ndk1::char_traits<wchar_t> >, double&)
PUBLIC m 93930 0 std::__ndk1::basic_istream<wchar_t, std::__ndk1::char_traits<wchar_t> >::operator>>(long double&)
PUBLIC 93938 0 std::__ndk1::__input_arithmetic[abi:v170000]<long double, wchar_t, std::__ndk1::char_traits<wchar_t> >(std::__ndk1::basic_istream<wchar_t, std::__ndk1::char_traits<wchar_t> >, long double&)
PUBLIC m 93a68 0 std::__ndk1::basic_istream<wchar_t, std::__ndk1::char_traits<wchar_t> >::operator>>(void*&)
PUBLIC 93a70 0 std::__ndk1::__input_arithmetic[abi:v170000]<void*, wchar_t, std::__ndk1::char_traits<wchar_t> >(std::__ndk1::basic_istream<wchar_t, std::__ndk1::char_traits<wchar_t> >, void*&)
PUBLIC m 93ba0 0 std::__ndk1::basic_istream<wchar_t, std::__ndk1::char_traits<wchar_t> >::get()
PUBLIC m 93ccc 0 std::__ndk1::basic_istream<wchar_t, std::__ndk1::char_traits<wchar_t> >::get(wchar_t&)
PUBLIC m 93d08 0 std::__ndk1::basic_istream<wchar_t, std::__ndk1::char_traits<wchar_t> >::get(wchar_t*, long)
PUBLIC m 93dac 0 std::__ndk1::basic_istream<wchar_t, std::__ndk1::char_traits<wchar_t> >::get(wchar_t*, long, wchar_t)
PUBLIC m 93f80 0 std::__ndk1::basic_istream<wchar_t, std::__ndk1::char_traits<wchar_t> >::get(std::__ndk1::basic_streambuf<wchar_t, std::__ndk1::char_traits<wchar_t> >&)
PUBLIC m 94014 0 std::__ndk1::basic_istream<wchar_t, std::__ndk1::char_traits<wchar_t> >::get(std::__ndk1::basic_streambuf<wchar_t, std::__ndk1::char_traits<wchar_t> >&, wchar_t)
PUBLIC m 94178 0 std::__ndk1::basic_istream<wchar_t, std::__ndk1::char_traits<wchar_t> >::getline(wchar_t*, long)
PUBLIC m 9421c 0 std::__ndk1::basic_istream<wchar_t, std::__ndk1::char_traits<wchar_t> >::getline(wchar_t*, long, wchar_t)
PUBLIC m 9442c 0 std::__ndk1::basic_istream<wchar_t, std::__ndk1::char_traits<wchar_t> >::ignore(long, unsigned int)
PUBLIC m 945c0 0 std::__ndk1::basic_istream<wchar_t, std::__ndk1::char_traits<wchar_t> >::peek()
PUBLIC m 946d4 0 std::__ndk1::basic_istream<wchar_t, std::__ndk1::char_traits<wchar_t> >::read(wchar_t*, long)
PUBLIC m 947cc 0 std::__ndk1::basic_istream<wchar_t, std::__ndk1::char_traits<wchar_t> >::readsome(wchar_t*, long)
PUBLIC m 94920 0 std::__ndk1::basic_istream<wchar_t, std::__ndk1::char_traits<wchar_t> >::putback(wchar_t)
PUBLIC m 94a60 0 std::__ndk1::basic_istream<wchar_t, std::__ndk1::char_traits<wchar_t> >::unget()
PUBLIC m 94b94 0 std::__ndk1::basic_istream<wchar_t, std::__ndk1::char_traits<wchar_t> >::sync()
PUBLIC m 94c84 0 std::__ndk1::basic_istream<wchar_t, std::__ndk1::char_traits<wchar_t> >::tellg()
PUBLIC m 94d80 0 std::__ndk1::basic_istream<wchar_t, std::__ndk1::char_traits<wchar_t> >::seekg(std::__ndk1::fpos<mbstate_t>)
PUBLIC m 94e90 0 std::__ndk1::basic_istream<wchar_t, std::__ndk1::char_traits<wchar_t> >::seekg(long long, std::__ndk1::ios_base::seekdir)
PUBLIC m 94fa0 0 std::__ndk1::basic_ostream<wchar_t, std::__ndk1::char_traits<wchar_t> >::basic_ostream(std::__ndk1::basic_streambuf<wchar_t, std::__ndk1::char_traits<wchar_t> >*)
PUBLIC m 94ff8 0 std::__ndk1::basic_ostream<wchar_t, std::__ndk1::char_traits<wchar_t> >::basic_ostream(std::__ndk1::basic_streambuf<wchar_t, std::__ndk1::char_traits<wchar_t> >*)
PUBLIC m 95060 0 std::__ndk1::basic_ostream<wchar_t, std::__ndk1::char_traits<wchar_t> >::~basic_ostream()
PUBLIC m 95068 0 std::__ndk1::basic_ostream<wchar_t, std::__ndk1::char_traits<wchar_t> >::~basic_ostream()
PUBLIC m 95074 0 {virtual override thunk({virtual offset(0, -24)}, std::__ndk1::basic_ostream<wchar_t, std::__ndk1::char_traits<wchar_t> >::~basic_ostream())}
PUBLIC m 9508c 0 std::__ndk1::basic_ostream<wchar_t, std::__ndk1::char_traits<wchar_t> >::~basic_ostream()
PUBLIC m 950bc 0 {virtual override thunk({virtual offset(0, -24)}, std::__ndk1::basic_ostream<wchar_t, std::__ndk1::char_traits<wchar_t> >::~basic_ostream())}
PUBLIC m 950f4 0 std::__ndk1::basic_ostream<wchar_t, std::__ndk1::char_traits<wchar_t> >::swap(std::__ndk1::basic_ostream<wchar_t, std::__ndk1::char_traits<wchar_t> >&)
PUBLIC m 95158 0 std::__ndk1::basic_ostream<wchar_t, std::__ndk1::char_traits<wchar_t> >::sentry::sentry(std::__ndk1::basic_ostream<wchar_t, std::__ndk1::char_traits<wchar_t> >&)
PUBLIC m 951bc 0 std::__ndk1::basic_ostream<wchar_t, std::__ndk1::char_traits<wchar_t> >::sentry::~sentry()
PUBLIC m 95264 0 std::__ndk1::basic_ostream<wchar_t, std::__ndk1::char_traits<wchar_t> >::operator<<(std::__ndk1::basic_ostream<wchar_t, std::__ndk1::char_traits<wchar_t> >& (*)(std::__ndk1::basic_ostream<wchar_t, std::__ndk1::char_traits<wchar_t> >&))
PUBLIC m 95270 0 std::__ndk1::basic_ostream<wchar_t, std::__ndk1::char_traits<wchar_t> >::operator<<(std::__ndk1::basic_ios<wchar_t, std::__ndk1::char_traits<wchar_t> >& (*)(std::__ndk1::basic_ios<wchar_t, std::__ndk1::char_traits<wchar_t> >&))
PUBLIC m 952a8 0 std::__ndk1::basic_ostream<wchar_t, std::__ndk1::char_traits<wchar_t> >::operator<<(std::__ndk1::ios_base& (*)(std::__ndk1::ios_base&))
PUBLIC m 952e0 0 std::__ndk1::basic_ostream<wchar_t, std::__ndk1::char_traits<wchar_t> >::operator<<(bool)
PUBLIC m 9546c 0 std::__ndk1::basic_ostream<wchar_t, std::__ndk1::char_traits<wchar_t> >::operator<<(short)
PUBLIC m 95620 0 std::__ndk1::basic_ostream<wchar_t, std::__ndk1::char_traits<wchar_t> >::operator<<(unsigned short)
PUBLIC m 957ac 0 std::__ndk1::basic_ostream<wchar_t, std::__ndk1::char_traits<wchar_t> >::operator<<(int)
PUBLIC m 95960 0 std::__ndk1::basic_ostream<wchar_t, std::__ndk1::char_traits<wchar_t> >::operator<<(unsigned int)
PUBLIC m 95aec 0 std::__ndk1::basic_ostream<wchar_t, std::__ndk1::char_traits<wchar_t> >::operator<<(long)
PUBLIC m 95c78 0 std::__ndk1::basic_ostream<wchar_t, std::__ndk1::char_traits<wchar_t> >::operator<<(unsigned long)
PUBLIC m 95e04 0 std::__ndk1::basic_ostream<wchar_t, std::__ndk1::char_traits<wchar_t> >::operator<<(long long)
PUBLIC m 95f90 0 std::__ndk1::basic_ostream<wchar_t, std::__ndk1::char_traits<wchar_t> >::operator<<(unsigned long long)
PUBLIC m 9611c 0 std::__ndk1::basic_ostream<wchar_t, std::__ndk1::char_traits<wchar_t> >::operator<<(float)
PUBLIC m 962b0 0 std::__ndk1::basic_ostream<wchar_t, std::__ndk1::char_traits<wchar_t> >::operator<<(double)
PUBLIC m 96444 0 std::__ndk1::basic_ostream<wchar_t, std::__ndk1::char_traits<wchar_t> >::operator<<(long double)
PUBLIC m 965d0 0 std::__ndk1::basic_ostream<wchar_t, std::__ndk1::char_traits<wchar_t> >::operator<<(void const*)
PUBLIC m 9675c 0 std::__ndk1::basic_ostream<wchar_t, std::__ndk1::char_traits<wchar_t> >::operator<<(std::__ndk1::basic_streambuf<wchar_t, std::__ndk1::char_traits<wchar_t> >*)
PUBLIC m 9699c 0 std::__ndk1::basic_ostream<wchar_t, std::__ndk1::char_traits<wchar_t> >::put(wchar_t)
PUBLIC m 96ab0 0 std::__ndk1::basic_ostream<wchar_t, std::__ndk1::char_traits<wchar_t> >::write(wchar_t const*, long)
PUBLIC m 96b9c 0 std::__ndk1::basic_ostream<wchar_t, std::__ndk1::char_traits<wchar_t> >::tellp()
PUBLIC m 96c00 0 std::__ndk1::basic_ostream<wchar_t, std::__ndk1::char_traits<wchar_t> >::seekp(std::__ndk1::fpos<mbstate_t>)
PUBLIC m 96cc4 0 std::__ndk1::basic_ostream<wchar_t, std::__ndk1::char_traits<wchar_t> >::seekp(long long, std::__ndk1::ios_base::seekdir)
PUBLIC m 96d88 0 std::__ndk1::basic_stringbuf<char, std::__ndk1::char_traits<char>, std::__ndk1::allocator<char> >::basic_stringbuf(std::__ndk1::basic_stringbuf<char, std::__ndk1::char_traits<char>, std::__ndk1::allocator<char> >&&)
PUBLIC m 96f9c 0 std::__ndk1::basic_stringbuf<char, std::__ndk1::char_traits<char>, std::__ndk1::allocator<char> >::operator=(std::__ndk1::basic_stringbuf<char, std::__ndk1::char_traits<char>, std::__ndk1::allocator<char> >&&)
PUBLIC m 971a4 0 std::__ndk1::basic_stringbuf<char, std::__ndk1::char_traits<char>, std::__ndk1::allocator<char> >::swap(std::__ndk1::basic_stringbuf<char, std::__ndk1::char_traits<char>, std::__ndk1::allocator<char> >&)
PUBLIC m 974ac 0 std::__ndk1::basic_stringbuf<char, std::__ndk1::char_traits<char>, std::__ndk1::allocator<char> >::str(std::__ndk1::basic_string<char, std::__ndk1::char_traits<char>, std::__ndk1::allocator<char> > const&)
PUBLIC m 97620 0 std::__ndk1::basic_stringstream<char, std::__ndk1::char_traits<char>, std::__ndk1::allocator<char> >::operator=(std::__ndk1::basic_stringstream<char, std::__ndk1::char_traits<char>, std::__ndk1::allocator<char> >&&)
PUBLIC m 976ac 0 std::__ndk1::basic_ostringstream<char, std::__ndk1::char_traits<char>, std::__ndk1::allocator<char> >::operator=(std::__ndk1::basic_ostringstream<char, std::__ndk1::char_traits<char>, std::__ndk1::allocator<char> >&&)
PUBLIC m 9773c 0 std::__ndk1::basic_istringstream<char, std::__ndk1::char_traits<char>, std::__ndk1::allocator<char> >::operator=(std::__ndk1::basic_istringstream<char, std::__ndk1::char_traits<char>, std::__ndk1::allocator<char> >&&)
PUBLIC m 977c8 0 std::__ndk1::basic_ifstream<char, std::__ndk1::char_traits<char> >::open(char const*, unsigned int)
PUBLIC m 97828 0 std::__ndk1::basic_filebuf<char, std::__ndk1::char_traits<char> >::open(char const*, unsigned int)
PUBLIC m 979a4 0 std::__ndk1::basic_ifstream<char, std::__ndk1::char_traits<char> >::open(std::__ndk1::basic_string<char, std::__ndk1::char_traits<char>, std::__ndk1::allocator<char> > const&, unsigned int)
PUBLIC m 97a14 0 std::__ndk1::basic_ofstream<char, std::__ndk1::char_traits<char> >::open(char const*, unsigned int)
PUBLIC m 97a74 0 std::__ndk1::basic_ofstream<char, std::__ndk1::char_traits<char> >::open(std::__ndk1::basic_string<char, std::__ndk1::char_traits<char>, std::__ndk1::allocator<char> > const&, unsigned int)
PUBLIC m 97ae4 0 std::__ndk1::basic_filebuf<char, std::__ndk1::char_traits<char> >::basic_filebuf()
PUBLIC m 97c18 0 std::__ndk1::basic_filebuf<char, std::__ndk1::char_traits<char> >::basic_filebuf(std::__ndk1::basic_filebuf<char, std::__ndk1::char_traits<char> >&&)
PUBLIC m 97dac 0 std::__ndk1::basic_filebuf<char, std::__ndk1::char_traits<char> >::~basic_filebuf()
PUBLIC m 97e80 0 std::__ndk1::basic_filebuf<char, std::__ndk1::char_traits<char> >::close()
PUBLIC m 97f0c 0 std::__ndk1::basic_filebuf<char, std::__ndk1::char_traits<char> >::~basic_filebuf()
PUBLIC m 97f38 0 std::__ndk1::basic_filebuf<char, std::__ndk1::char_traits<char> >::swap(std::__ndk1::basic_filebuf<char, std::__ndk1::char_traits<char> >&)
PUBLIC m 98278 0 std::__ndk1::basic_filebuf<char, std::__ndk1::char_traits<char> >::underflow()
PUBLIC m 98510 0 std::__ndk1::basic_filebuf<char, std::__ndk1::char_traits<char> >::__read_mode()
PUBLIC 9856c 0 std::__ndk1::__throw_bad_cast[abi:v170000]()
PUBLIC m 985a4 0 std::__ndk1::basic_filebuf<char, std::__ndk1::char_traits<char> >::pbackfail(int)
PUBLIC m 98608 0 std::__ndk1::basic_filebuf<char, std::__ndk1::char_traits<char> >::overflow(int)
PUBLIC m 98824 0 std::__ndk1::basic_filebuf<char, std::__ndk1::char_traits<char> >::__write_mode()
PUBLIC m 98890 0 std::__ndk1::basic_filebuf<char, std::__ndk1::char_traits<char> >::setbuf(char*, long)
PUBLIC m 989b8 0 std::__ndk1::basic_filebuf<char, std::__ndk1::char_traits<char> >::seekoff(long long, std::__ndk1::ios_base::seekdir, unsigned int)
PUBLIC m 98a90 0 std::__ndk1::basic_filebuf<char, std::__ndk1::char_traits<char> >::seekpos(std::__ndk1::fpos<mbstate_t>, unsigned int)
PUBLIC m 98b08 0 std::__ndk1::basic_filebuf<char, std::__ndk1::char_traits<char> >::sync()
PUBLIC m 98ce0 0 std::__ndk1::basic_filebuf<char, std::__ndk1::char_traits<char> >::imbue(std::__ndk1::locale const&)
PUBLIC 98df0 0 std::__ndk1::basic_ostringstream<char, std::__ndk1::char_traits<char>, std::__ndk1::allocator<char> >::~basic_ostringstream()
PUBLIC 98e68 0 std::__ndk1::basic_ostringstream<char, std::__ndk1::char_traits<char>, std::__ndk1::allocator<char> >::~basic_ostringstream()
PUBLIC 98ee8 0 {virtual override thunk({virtual offset(0, -24)}, std::__ndk1::basic_ostringstream<char, std::__ndk1::char_traits<char>, std::__ndk1::allocator<char> >::~basic_ostringstream())}
PUBLIC 98f68 0 {virtual override thunk({virtual offset(0, -24)}, std::__ndk1::basic_ostringstream<char, std::__ndk1::char_traits<char>, std::__ndk1::allocator<char> >::~basic_ostringstream())}
PUBLIC 98ff0 0 std::__ndk1::basic_istringstream<char, std::__ndk1::char_traits<char>, std::__ndk1::allocator<char> >::~basic_istringstream()
PUBLIC 9906c 0 std::__ndk1::basic_istringstream<char, std::__ndk1::char_traits<char>, std::__ndk1::allocator<char> >::~basic_istringstream()
PUBLIC 990f0 0 {virtual override thunk({virtual offset(0, -24)}, std::__ndk1::basic_istringstream<char, std::__ndk1::char_traits<char>, std::__ndk1::allocator<char> >::~basic_istringstream())}
PUBLIC 99174 0 {virtual override thunk({virtual offset(0, -24)}, std::__ndk1::basic_istringstream<char, std::__ndk1::char_traits<char>, std::__ndk1::allocator<char> >::~basic_istringstream())}
PUBLIC 99200 0 std::__ndk1::basic_ifstream<char, std::__ndk1::char_traits<char> >::~basic_ifstream()
PUBLIC 99244 0 std::__ndk1::basic_ifstream<char, std::__ndk1::char_traits<char> >::~basic_ifstream()
PUBLIC 99294 0 {virtual override thunk({virtual offset(0, -24)}, std::__ndk1::basic_ifstream<char, std::__ndk1::char_traits<char> >::~basic_ifstream())}
PUBLIC 992e4 0 {virtual override thunk({virtual offset(0, -24)}, std::__ndk1::basic_ifstream<char, std::__ndk1::char_traits<char> >::~basic_ifstream())}
PUBLIC 99340 0 std::__ndk1::basic_ofstream<char, std::__ndk1::char_traits<char> >::~basic_ofstream()
PUBLIC 99384 0 std::__ndk1::basic_ofstream<char, std::__ndk1::char_traits<char> >::~basic_ofstream()
PUBLIC 993d4 0 {virtual override thunk({virtual offset(0, -24)}, std::__ndk1::basic_ofstream<char, std::__ndk1::char_traits<char> >::~basic_ofstream())}
PUBLIC 99424 0 {virtual override thunk({virtual offset(0, -24)}, std::__ndk1::basic_ofstream<char, std::__ndk1::char_traits<char> >::~basic_ofstream())}
PUBLIC m 99480 0 std::__ndk1::collate<char>::~collate()
PUBLIC m 99488 0 std::__ndk1::collate<char>::~collate()
PUBLIC m 994b4 0 std::__ndk1::collate<char>::do_compare(char const*, char const*, char const*, char const*) const
PUBLIC m 99518 0 std::__ndk1::collate<char>::do_transform(char const*, char const*) const
PUBLIC m 995c0 0 std::__ndk1::collate<char>::do_hash(char const*, char const*) const
PUBLIC m 995f8 0 std::__ndk1::collate<wchar_t>::~collate()
PUBLIC m 99600 0 std::__ndk1::collate<wchar_t>::~collate()
PUBLIC m 9962c 0 std::__ndk1::collate<wchar_t>::do_compare(wchar_t const*, wchar_t const*, wchar_t const*, wchar_t const*) const
PUBLIC m 99684 0 std::__ndk1::collate<wchar_t>::do_transform(wchar_t const*, wchar_t const*) const
PUBLIC m 99740 0 std::__ndk1::collate<wchar_t>::do_hash(wchar_t const*, wchar_t const*) const
PUBLIC m 99778 0 std::__ndk1::num_get<char, std::__ndk1::istreambuf_iterator<char, std::__ndk1::char_traits<char> > >::do_get(std::__ndk1::istreambuf_iterator<char, std::__ndk1::char_traits<char> >, std::__ndk1::istreambuf_iterator<char, std::__ndk1::char_traits<char> >, std::__ndk1::ios_base&, unsigned int&, bool&) const
PUBLIC 99a14 0 std::__ndk1::__scan_keyword[abi:v170000]<std::__ndk1::istreambuf_iterator<char, std::__ndk1::char_traits<char> >, std::__ndk1::basic_string<char, std::__ndk1::char_traits, std::__ndk1::allocator<char> > const*, std::__ndk1::ctype<char> >(std::__ndk1::istreambuf_iterator<char, std::__ndk1::char_traits<char> >&, std::__ndk1::basic_string<char, std::__ndk1::char_traits, std::__ndk1::allocator<char> > const*, std::__ndk1::ctype<char>, std::__ndk1::ctype<char>, std::__ndk1::ctype<char> const&, unsigned int&, bool)
PUBLIC m 99ec8 0 std::__ndk1::num_get<char, std::__ndk1::istreambuf_iterator<char, std::__ndk1::char_traits<char> > >::do_get(std::__ndk1::istreambuf_iterator<char, std::__ndk1::char_traits<char> >, std::__ndk1::istreambuf_iterator<char, std::__ndk1::char_traits<char> >, std::__ndk1::ios_base&, unsigned int&, long&) const
PUBLIC 99ed0 0 std::__ndk1::num_get<char, std::__ndk1::istreambuf_iterator<char, std::__ndk1::char_traits<char> > >::__do_get_signed<long>(std::__ndk1::istreambuf_iterator<char, std::__ndk1::char_traits<char> >, std::__ndk1::istreambuf_iterator<char, std::__ndk1::char_traits<char> >, std::__ndk1::ios_base&, unsigned int&, long&) const
PUBLIC m 9a46c 0 std::__ndk1::num_get<char, std::__ndk1::istreambuf_iterator<char, std::__ndk1::char_traits<char> > >::do_get(std::__ndk1::istreambuf_iterator<char, std::__ndk1::char_traits<char> >, std::__ndk1::istreambuf_iterator<char, std::__ndk1::char_traits<char> >, std::__ndk1::ios_base&, unsigned int&, long long&) const
PUBLIC 9a474 0 std::__ndk1::num_get<char, std::__ndk1::istreambuf_iterator<char, std::__ndk1::char_traits<char> > >::__do_get_signed<long long>(std::__ndk1::istreambuf_iterator<char, std::__ndk1::char_traits<char> >, std::__ndk1::istreambuf_iterator<char, std::__ndk1::char_traits<char> >, std::__ndk1::ios_base&, unsigned int&, long long&) const
PUBLIC m 9aa10 0 std::__ndk1::num_get<char, std::__ndk1::istreambuf_iterator<char, std::__ndk1::char_traits<char> > >::do_get(std::__ndk1::istreambuf_iterator<char, std::__ndk1::char_traits<char> >, std::__ndk1::istreambuf_iterator<char, std::__ndk1::char_traits<char> >, std::__ndk1::ios_base&, unsigned int&, unsigned short&) const
PUBLIC 9aa18 0 std::__ndk1::num_get<char, std::__ndk1::istreambuf_iterator<char, std::__ndk1::char_traits<char> > >::__do_get_unsigned<unsigned short>(std::__ndk1::istreambuf_iterator<char, std::__ndk1::char_traits<char> >, std::__ndk1::istreambuf_iterator<char, std::__ndk1::char_traits<char> >, std::__ndk1::ios_base&, unsigned int&, unsigned short&) const
PUBLIC m 9afb4 0 std::__ndk1::num_get<char, std::__ndk1::istreambuf_iterator<char, std::__ndk1::char_traits<char> > >::do_get(std::__ndk1::istreambuf_iterator<char, std::__ndk1::char_traits<char> >, std::__ndk1::istreambuf_iterator<char, std::__ndk1::char_traits<char> >, std::__ndk1::ios_base&, unsigned int&, unsigned int&) const
PUBLIC 9afbc 0 std::__ndk1::num_get<char, std::__ndk1::istreambuf_iterator<char, std::__ndk1::char_traits<char> > >::__do_get_unsigned<unsigned int>(std::__ndk1::istreambuf_iterator<char, std::__ndk1::char_traits<char> >, std::__ndk1::istreambuf_iterator<char, std::__ndk1::char_traits<char> >, std::__ndk1::ios_base&, unsigned int&, unsigned int&) const
PUBLIC m 9b558 0 std::__ndk1::num_get<char, std::__ndk1::istreambuf_iterator<char, std::__ndk1::char_traits<char> > >::do_get(std::__ndk1::istreambuf_iterator<char, std::__ndk1::char_traits<char> >, std::__ndk1::istreambuf_iterator<char, std::__ndk1::char_traits<char> >, std::__ndk1::ios_base&, unsigned int&, unsigned long&) const
PUBLIC 9b560 0 std::__ndk1::num_get<char, std::__ndk1::istreambuf_iterator<char, std::__ndk1::char_traits<char> > >::__do_get_unsigned<unsigned long>(std::__ndk1::istreambuf_iterator<char, std::__ndk1::char_traits<char> >, std::__ndk1::istreambuf_iterator<char, std::__ndk1::char_traits<char> >, std::__ndk1::ios_base&, unsigned int&, unsigned long&) const
PUBLIC m 9bafc 0 std::__ndk1::num_get<char, std::__ndk1::istreambuf_iterator<char, std::__ndk1::char_traits<char> > >::do_get(std::__ndk1::istreambuf_iterator<char, std::__ndk1::char_traits<char> >, std::__ndk1::istreambuf_iterator<char, std::__ndk1::char_traits<char> >, std::__ndk1::ios_base&, unsigned int&, unsigned long long&) const
PUBLIC 9bb04 0 std::__ndk1::num_get<char, std::__ndk1::istreambuf_iterator<char, std::__ndk1::char_traits<char> > >::__do_get_unsigned<unsigned long long>(std::__ndk1::istreambuf_iterator<char, std::__ndk1::char_traits<char> >, std::__ndk1::istreambuf_iterator<char, std::__ndk1::char_traits<char> >, std::__ndk1::ios_base&, unsigned int&, unsigned long long&) const
PUBLIC m 9c0a0 0 std::__ndk1::num_get<char, std::__ndk1::istreambuf_iterator<char, std::__ndk1::char_traits<char> > >::do_get(std::__ndk1::istreambuf_iterator<char, std::__ndk1::char_traits<char> >, std::__ndk1::istreambuf_iterator<char, std::__ndk1::char_traits<char> >, std::__ndk1::ios_base&, unsigned int&, float&) const
PUBLIC 9c0a8 0 std::__ndk1::num_get<char, std::__ndk1::istreambuf_iterator<char, std::__ndk1::char_traits<char> > >::__do_get_floating_point<float>(std::__ndk1::istreambuf_iterator<char, std::__ndk1::char_traits<char> >, std::__ndk1::istreambuf_iterator<char, std::__ndk1::char_traits<char> >, std::__ndk1::ios_base&, unsigned int&, float&) const
PUBLIC m 9c62c 0 std::__ndk1::num_get<char, std::__ndk1::istreambuf_iterator<char, std::__ndk1::char_traits<char> > >::do_get(std::__ndk1::istreambuf_iterator<char, std::__ndk1::char_traits<char> >, std::__ndk1::istreambuf_iterator<char, std::__ndk1::char_traits<char> >, std::__ndk1::ios_base&, unsigned int&, double&) const
PUBLIC 9c634 0 std::__ndk1::num_get<char, std::__ndk1::istreambuf_iterator<char, std::__ndk1::char_traits<char> > >::__do_get_floating_point<double>(std::__ndk1::istreambuf_iterator<char, std::__ndk1::char_traits<char> >, std::__ndk1::istreambuf_iterator<char, std::__ndk1::char_traits<char> >, std::__ndk1::ios_base&, unsigned int&, double&) const
PUBLIC m 9cbb8 0 std::__ndk1::num_get<char, std::__ndk1::istreambuf_iterator<char, std::__ndk1::char_traits<char> > >::do_get(std::__ndk1::istreambuf_iterator<char, std::__ndk1::char_traits<char> >, std::__ndk1::istreambuf_iterator<char, std::__ndk1::char_traits<char> >, std::__ndk1::ios_base&, unsigned int&, long double&) const
PUBLIC 9cbc0 0 std::__ndk1::num_get<char, std::__ndk1::istreambuf_iterator<char, std::__ndk1::char_traits<char> > >::__do_get_floating_point<long double>(std::__ndk1::istreambuf_iterator<char, std::__ndk1::char_traits<char> >, std::__ndk1::istreambuf_iterator<char, std::__ndk1::char_traits<char> >, std::__ndk1::ios_base&, unsigned int&, long double&) const
PUBLIC m 9d144 0 std::__ndk1::num_get<char, std::__ndk1::istreambuf_iterator<char, std::__ndk1::char_traits<char> > >::do_get(std::__ndk1::istreambuf_iterator<char, std::__ndk1::char_traits<char> >, std::__ndk1::istreambuf_iterator<char, std::__ndk1::char_traits<char> >, std::__ndk1::ios_base&, unsigned int&, void*&) const
PUBLIC m 9d6e8 0 std::__ndk1::__num_get<char>::__stage2_int_loop(char, int, char*, char*&, unsigned int&, char, std::__ndk1::basic_string<char, std::__ndk1::char_traits<char>, std::__ndk1::allocator<char> > const&, unsigned int*, unsigned int*&, char*)
PUBLIC 9da04 0 std::__ndk1::__libcpp_sscanf_l(char const*, __locale_t*, char const*, ...)
PUBLIC m 9dab8 0 std::__ndk1::__cloc()
PUBLIC m 9db58 0 std::__ndk1::num_get<wchar_t, std::__ndk1::istreambuf_iterator<wchar_t, std::__ndk1::char_traits<wchar_t> > >::do_get(std::__ndk1::istreambuf_iterator<wchar_t, std::__ndk1::char_traits<wchar_t> >, std::__ndk1::istreambuf_iterator<wchar_t, std::__ndk1::char_traits<wchar_t> >, std::__ndk1::ios_base&, unsigned int&, bool&) const
PUBLIC 9ddf4 0 std::__ndk1::__scan_keyword[abi:v170000]<std::__ndk1::istreambuf_iterator<wchar_t, std::__ndk1::char_traits<wchar_t> >, std::__ndk1::basic_string<wchar_t, std::__ndk1::char_traits, std::__ndk1::allocator<wchar_t> > const*, std::__ndk1::ctype<wchar_t> >(std::__ndk1::istreambuf_iterator<wchar_t, std::__ndk1::char_traits<wchar_t> >&, std::__ndk1::basic_string<wchar_t, std::__ndk1::char_traits, std::__ndk1::allocator<wchar_t> > const*, std::__ndk1::ctype<wchar_t>, std::__ndk1::ctype<wchar_t>, std::__ndk1::ctype<wchar_t> const&, unsigned int&, bool)
PUBLIC m 9e2b0 0 std::__ndk1::num_get<wchar_t, std::__ndk1::istreambuf_iterator<wchar_t, std::__ndk1::char_traits<wchar_t> > >::do_get(std::__ndk1::istreambuf_iterator<wchar_t, std::__ndk1::char_traits<wchar_t> >, std::__ndk1::istreambuf_iterator<wchar_t, std::__ndk1::char_traits<wchar_t> >, std::__ndk1::ios_base&, unsigned int&, long&) const
PUBLIC 9e2b8 0 std::__ndk1::num_get<wchar_t, std::__ndk1::istreambuf_iterator<wchar_t, std::__ndk1::char_traits<wchar_t> > >::__do_get_signed<long>(std::__ndk1::istreambuf_iterator<wchar_t, std::__ndk1::char_traits<wchar_t> >, std::__ndk1::istreambuf_iterator<wchar_t, std::__ndk1::char_traits<wchar_t> >, std::__ndk1::ios_base&, unsigned int&, long&) const
PUBLIC m 9e850 0 std::__ndk1::num_get<wchar_t, std::__ndk1::istreambuf_iterator<wchar_t, std::__ndk1::char_traits<wchar_t> > >::do_get(std::__ndk1::istreambuf_iterator<wchar_t, std::__ndk1::char_traits<wchar_t> >, std::__ndk1::istreambuf_iterator<wchar_t, std::__ndk1::char_traits<wchar_t> >, std::__ndk1::ios_base&, unsigned int&, long long&) const
PUBLIC 9e858 0 std::__ndk1::num_get<wchar_t, std::__ndk1::istreambuf_iterator<wchar_t, std::__ndk1::char_traits<wchar_t> > >::__do_get_signed<long long>(std::__ndk1::istreambuf_iterator<wchar_t, std::__ndk1::char_traits<wchar_t> >, std::__ndk1::istreambuf_iterator<wchar_t, std::__ndk1::char_traits<wchar_t> >, std::__ndk1::ios_base&, unsigned int&, long long&) const
PUBLIC m 9edf0 0 std::__ndk1::num_get<wchar_t, std::__ndk1::istreambuf_iterator<wchar_t, std::__ndk1::char_traits<wchar_t> > >::do_get(std::__ndk1::istreambuf_iterator<wchar_t, std::__ndk1::char_traits<wchar_t> >, std::__ndk1::istreambuf_iterator<wchar_t, std::__ndk1::char_traits<wchar_t> >, std::__ndk1::ios_base&, unsigned int&, unsigned short&) const
PUBLIC 9edf8 0 std::__ndk1::num_get<wchar_t, std::__ndk1::istreambuf_iterator<wchar_t, std::__ndk1::char_traits<wchar_t> > >::__do_get_unsigned<unsigned short>(std::__ndk1::istreambuf_iterator<wchar_t, std::__ndk1::char_traits<wchar_t> >, std::__ndk1::istreambuf_iterator<wchar_t, std::__ndk1::char_traits<wchar_t> >, std::__ndk1::ios_base&, unsigned int&, unsigned short&) const
PUBLIC m 9f390 0 std::__ndk1::num_get<wchar_t, std::__ndk1::istreambuf_iterator<wchar_t, std::__ndk1::char_traits<wchar_t> > >::do_get(std::__ndk1::istreambuf_iterator<wchar_t, std::__ndk1::char_traits<wchar_t> >, std::__ndk1::istreambuf_iterator<wchar_t, std::__ndk1::char_traits<wchar_t> >, std::__ndk1::ios_base&, unsigned int&, unsigned int&) const
PUBLIC 9f398 0 std::__ndk1::num_get<wchar_t, std::__ndk1::istreambuf_iterator<wchar_t, std::__ndk1::char_traits<wchar_t> > >::__do_get_unsigned<unsigned int>(std::__ndk1::istreambuf_iterator<wchar_t, std::__ndk1::char_traits<wchar_t> >, std::__ndk1::istreambuf_iterator<wchar_t, std::__ndk1::char_traits<wchar_t> >, std::__ndk1::ios_base&, unsigned int&, unsigned int&) const
PUBLIC m 9f930 0 std::__ndk1::num_get<wchar_t, std::__ndk1::istreambuf_iterator<wchar_t, std::__ndk1::char_traits<wchar_t> > >::do_get(std::__ndk1::istreambuf_iterator<wchar_t, std::__ndk1::char_traits<wchar_t> >, std::__ndk1::istreambuf_iterator<wchar_t, std::__ndk1::char_traits<wchar_t> >, std::__ndk1::ios_base&, unsigned int&, unsigned long&) const
PUBLIC 9f938 0 std::__ndk1::num_get<wchar_t, std::__ndk1::istreambuf_iterator<wchar_t, std::__ndk1::char_traits<wchar_t> > >::__do_get_unsigned<unsigned long>(std::__ndk1::istreambuf_iterator<wchar_t, std::__ndk1::char_traits<wchar_t> >, std::__ndk1::istreambuf_iterator<wchar_t, std::__ndk1::char_traits<wchar_t> >, std::__ndk1::ios_base&, unsigned int&, unsigned long&) const
PUBLIC m 9fed0 0 std::__ndk1::num_get<wchar_t, std::__ndk1::istreambuf_iterator<wchar_t, std::__ndk1::char_traits<wchar_t> > >::do_get(std::__ndk1::istreambuf_iterator<wchar_t, std::__ndk1::char_traits<wchar_t> >, std::__ndk1::istreambuf_iterator<wchar_t, std::__ndk1::char_traits<wchar_t> >, std::__ndk1::ios_base&, unsigned int&, unsigned long long&) const
PUBLIC 9fed8 0 std::__ndk1::num_get<wchar_t, std::__ndk1::istreambuf_iterator<wchar_t, std::__ndk1::char_traits<wchar_t> > >::__do_get_unsigned<unsigned long long>(std::__ndk1::istreambuf_iterator<wchar_t, std::__ndk1::char_traits<wchar_t> >, std::__ndk1::istreambuf_iterator<wchar_t, std::__ndk1::char_traits<wchar_t> >, std::__ndk1::ios_base&, unsigned int&, unsigned long long&) const
PUBLIC m a0470 0 std::__ndk1::num_get<wchar_t, std::__ndk1::istreambuf_iterator<wchar_t, std::__ndk1::char_traits<wchar_t> > >::do_get(std::__ndk1::istreambuf_iterator<wchar_t, std::__ndk1::char_traits<wchar_t> >, std::__ndk1::istreambuf_iterator<wchar_t, std::__ndk1::char_traits<wchar_t> >, std::__ndk1::ios_base&, unsigned int&, float&) const
PUBLIC a0478 0 std::__ndk1::num_get<wchar_t, std::__ndk1::istreambuf_iterator<wchar_t, std::__ndk1::char_traits<wchar_t> > >::__do_get_floating_point<float>(std::__ndk1::istreambuf_iterator<wchar_t, std::__ndk1::char_traits<wchar_t> >, std::__ndk1::istreambuf_iterator<wchar_t, std::__ndk1::char_traits<wchar_t> >, std::__ndk1::ios_base&, unsigned int&, float&) const
PUBLIC m a09f4 0 std::__ndk1::num_get<wchar_t, std::__ndk1::istreambuf_iterator<wchar_t, std::__ndk1::char_traits<wchar_t> > >::do_get(std::__ndk1::istreambuf_iterator<wchar_t, std::__ndk1::char_traits<wchar_t> >, std::__ndk1::istreambuf_iterator<wchar_t, std::__ndk1::char_traits<wchar_t> >, std::__ndk1::ios_base&, unsigned int&, double&) const
PUBLIC a09fc 0 std::__ndk1::num_get<wchar_t, std::__ndk1::istreambuf_iterator<wchar_t, std::__ndk1::char_traits<wchar_t> > >::__do_get_floating_point<double>(std::__ndk1::istreambuf_iterator<wchar_t, std::__ndk1::char_traits<wchar_t> >, std::__ndk1::istreambuf_iterator<wchar_t, std::__ndk1::char_traits<wchar_t> >, std::__ndk1::ios_base&, unsigned int&, double&) const
PUBLIC m a0f78 0 std::__ndk1::num_get<wchar_t, std::__ndk1::istreambuf_iterator<wchar_t, std::__ndk1::char_traits<wchar_t> > >::do_get(std::__ndk1::istreambuf_iterator<wchar_t, std::__ndk1::char_traits<wchar_t> >, std::__ndk1::istreambuf_iterator<wchar_t, std::__ndk1::char_traits<wchar_t> >, std::__ndk1::ios_base&, unsigned int&, long double&) const
PUBLIC a0f80 0 std::__ndk1::num_get<wchar_t, std::__ndk1::istreambuf_iterator<wchar_t, std::__ndk1::char_traits<wchar_t> > >::__do_get_floating_point<long double>(std::__ndk1::istreambuf_iterator<wchar_t, std::__ndk1::char_traits<wchar_t> >, std::__ndk1::istreambuf_iterator<wchar_t, std::__ndk1::char_traits<wchar_t> >, std::__ndk1::ios_base&, unsigned int&, long double&) const
PUBLIC m a14fc 0 std::__ndk1::num_get<wchar_t, std::__ndk1::istreambuf_iterator<wchar_t, std::__ndk1::char_traits<wchar_t> > >::do_get(std::__ndk1::istreambuf_iterator<wchar_t, std::__ndk1::char_traits<wchar_t> >, std::__ndk1::istreambuf_iterator<wchar_t, std::__ndk1::char_traits<wchar_t> >, std::__ndk1::ios_base&, unsigned int&, void*&) const
PUBLIC m a1a9c 0 std::__ndk1::__num_get<wchar_t>::__stage2_int_loop(wchar_t, int, char*, char*&, unsigned int&, wchar_t, std::__ndk1::basic_string<char, std::__ndk1::char_traits<char>, std::__ndk1::allocator<char> > const&, unsigned int*, unsigned int*&, wchar_t*)
PUBLIC m a1e18 0 std::__ndk1::__num_get<char>::__stage2_float_prep(std::__ndk1::ios_base&, char*, char&, char&)
PUBLIC m a1fc8 0 std::__ndk1::__num_get<char>::__stage2_float_loop(char, bool&, char&, char*, char*&, char, char, std::__ndk1::basic_string<char, std::__ndk1::char_traits<char>, std::__ndk1::allocator<char> > const&, unsigned int*, unsigned int*&, unsigned int&, char*)
PUBLIC m a23d4 0 std::__ndk1::__num_get<char>::__stage2_int_prep(std::__ndk1::ios_base&, char*, char&)
PUBLIC m a255c 0 std::__ndk1::__num_get<wchar_t>::__stage2_float_prep(std::__ndk1::ios_base&, wchar_t*, wchar_t&, wchar_t&)
PUBLIC m a270c 0 std::__ndk1::__num_get<wchar_t>::__stage2_float_loop(wchar_t, bool&, char&, char*, char*&, wchar_t, wchar_t, std::__ndk1::basic_string<char, std::__ndk1::char_traits<char>, std::__ndk1::allocator<char> > const&, unsigned int*, unsigned int*&, unsigned int&, wchar_t*)
PUBLIC m a2b90 0 std::__ndk1::__num_get<wchar_t>::__stage2_int_prep(std::__ndk1::ios_base&, wchar_t*, wchar_t&)
PUBLIC m a2d18 0 std::__ndk1::num_put<char, std::__ndk1::ostreambuf_iterator<char, std::__ndk1::char_traits<char> > >::do_put(std::__ndk1::ostreambuf_iterator<char, std::__ndk1::char_traits<char> >, std::__ndk1::ios_base&, char, bool) const
PUBLIC m a2f18 0 std::__ndk1::num_put<char, std::__ndk1::ostreambuf_iterator<char, std::__ndk1::char_traits<char> > >::do_put(std::__ndk1::ostreambuf_iterator<char, std::__ndk1::char_traits<char> >, std::__ndk1::ios_base&, char, long) const
PUBLIC a2f28 0 std::__ndk1::num_put<char, std::__ndk1::ostreambuf_iterator<char, std::__ndk1::char_traits<char> > >::__do_put_integral[abi:v170000]<long>(std::__ndk1::ostreambuf_iterator<char, std::__ndk1::char_traits<char> >, std::__ndk1::ios_base&, char, long, char const*) const
PUBLIC m a3168 0 std::__ndk1::num_put<char, std::__ndk1::ostreambuf_iterator<char, std::__ndk1::char_traits<char> > >::do_put(std::__ndk1::ostreambuf_iterator<char, std::__ndk1::char_traits<char> >, std::__ndk1::ios_base&, char, long long) const
PUBLIC a3178 0 std::__ndk1::num_put<char, std::__ndk1::ostreambuf_iterator<char, std::__ndk1::char_traits<char> > >::__do_put_integral[abi:v170000]<long long>(std::__ndk1::ostreambuf_iterator<char, std::__ndk1::char_traits<char> >, std::__ndk1::ios_base&, char, long long, char const*) const
PUBLIC m a33b8 0 std::__ndk1::num_put<char, std::__ndk1::ostreambuf_iterator<char, std::__ndk1::char_traits<char> > >::do_put(std::__ndk1::ostreambuf_iterator<char, std::__ndk1::char_traits<char> >, std::__ndk1::ios_base&, char, unsigned long) const
PUBLIC a33c8 0 std::__ndk1::num_put<char, std::__ndk1::ostreambuf_iterator<char, std::__ndk1::char_traits<char> > >::__do_put_integral[abi:v170000]<unsigned long>(std::__ndk1::ostreambuf_iterator<char, std::__ndk1::char_traits<char> >, std::__ndk1::ios_base&, char, unsigned long, char const*) const
PUBLIC m a35ec 0 std::__ndk1::num_put<char, std::__ndk1::ostreambuf_iterator<char, std::__ndk1::char_traits<char> > >::do_put(std::__ndk1::ostreambuf_iterator<char, std::__ndk1::char_traits<char> >, std::__ndk1::ios_base&, char, unsigned long long) const
PUBLIC a35fc 0 std::__ndk1::num_put<char, std::__ndk1::ostreambuf_iterator<char, std::__ndk1::char_traits<char> > >::__do_put_integral[abi:v170000]<unsigned long long>(std::__ndk1::ostreambuf_iterator<char, std::__ndk1::char_traits<char> >, std::__ndk1::ios_base&, char, unsigned long long, char const*) const
PUBLIC m a3820 0 std::__ndk1::num_put<char, std::__ndk1::ostreambuf_iterator<char, std::__ndk1::char_traits<char> > >::do_put(std::__ndk1::ostreambuf_iterator<char, std::__ndk1::char_traits<char> >, std::__ndk1::ios_base&, char, double) const
PUBLIC a3830 0 std::__ndk1::num_put<char, std::__ndk1::ostreambuf_iterator<char, std::__ndk1::char_traits<char> > >::__do_put_floating_point[abi:v170000]<double>(std::__ndk1::ostreambuf_iterator<char, std::__ndk1::char_traits<char> >, std::__ndk1::ios_base&, char, double, char const*) const
PUBLIC m a3ce4 0 std::__ndk1::num_put<char, std::__ndk1::ostreambuf_iterator<char, std::__ndk1::char_traits<char> > >::do_put(std::__ndk1::ostreambuf_iterator<char, std::__ndk1::char_traits<char> >, std::__ndk1::ios_base&, char, long double) const
PUBLIC a3cf4 0 std::__ndk1::num_put<char, std::__ndk1::ostreambuf_iterator<char, std::__ndk1::char_traits<char> > >::__do_put_floating_point[abi:v170000]<long double>(std::__ndk1::ostreambuf_iterator<char, std::__ndk1::char_traits<char> >, std::__ndk1::ios_base&, char, long double, char const*) const
PUBLIC m a41a0 0 std::__ndk1::num_put<char, std::__ndk1::ostreambuf_iterator<char, std::__ndk1::char_traits<char> > >::do_put(std::__ndk1::ostreambuf_iterator<char, std::__ndk1::char_traits<char> >, std::__ndk1::ios_base&, char, void const*) const
PUBLIC a43d4 0 std::__ndk1::__libcpp_snprintf_l(char*, unsigned long, __locale_t*, char const*, ...)
PUBLIC m a4494 0 std::__ndk1::__num_put_base::__identify_padding(char*, char*, std::__ndk1::ios_base const&)
PUBLIC a4504 0 std::__ndk1::__pad_and_output[abi:v170000]<char, std::__ndk1::char_traits<char> >(std::__ndk1::char_traits<char>, std::__ndk1::ostreambuf_iterator const*, std::__ndk1::ostreambuf_iterator const, std::__ndk1::ostreambuf_iterator const, std::__ndk1::ios_base&, std::__ndk1::ostreambuf_iterator)
PUBLIC m a4688 0 std::__ndk1::num_put<wchar_t, std::__ndk1::ostreambuf_iterator<wchar_t, std::__ndk1::char_traits<wchar_t> > >::do_put(std::__ndk1::ostreambuf_iterator<wchar_t, std::__ndk1::char_traits<wchar_t> >, std::__ndk1::ios_base&, wchar_t, bool) const
PUBLIC m a4888 0 std::__ndk1::num_put<wchar_t, std::__ndk1::ostreambuf_iterator<wchar_t, std::__ndk1::char_traits<wchar_t> > >::do_put(std::__ndk1::ostreambuf_iterator<wchar_t, std::__ndk1::char_traits<wchar_t> >, std::__ndk1::ios_base&, wchar_t, long) const
PUBLIC a4898 0 std::__ndk1::num_put<wchar_t, std::__ndk1::ostreambuf_iterator<wchar_t, std::__ndk1::char_traits<wchar_t> > >::__do_put_integral[abi:v170000]<long>(std::__ndk1::ostreambuf_iterator<wchar_t, std::__ndk1::char_traits<wchar_t> >, std::__ndk1::ios_base&, wchar_t, long, char const*) const
PUBLIC m a4ad8 0 std::__ndk1::num_put<wchar_t, std::__ndk1::ostreambuf_iterator<wchar_t, std::__ndk1::char_traits<wchar_t> > >::do_put(std::__ndk1::ostreambuf_iterator<wchar_t, std::__ndk1::char_traits<wchar_t> >, std::__ndk1::ios_base&, wchar_t, long long) const
PUBLIC a4ae8 0 std::__ndk1::num_put<wchar_t, std::__ndk1::ostreambuf_iterator<wchar_t, std::__ndk1::char_traits<wchar_t> > >::__do_put_integral[abi:v170000]<long long>(std::__ndk1::ostreambuf_iterator<wchar_t, std::__ndk1::char_traits<wchar_t> >, std::__ndk1::ios_base&, wchar_t, long long, char const*) const
PUBLIC m a4d28 0 std::__ndk1::num_put<wchar_t, std::__ndk1::ostreambuf_iterator<wchar_t, std::__ndk1::char_traits<wchar_t> > >::do_put(std::__ndk1::ostreambuf_iterator<wchar_t, std::__ndk1::char_traits<wchar_t> >, std::__ndk1::ios_base&, wchar_t, unsigned long) const
PUBLIC a4d38 0 std::__ndk1::num_put<wchar_t, std::__ndk1::ostreambuf_iterator<wchar_t, std::__ndk1::char_traits<wchar_t> > >::__do_put_integral[abi:v170000]<unsigned long>(std::__ndk1::ostreambuf_iterator<wchar_t, std::__ndk1::char_traits<wchar_t> >, std::__ndk1::ios_base&, wchar_t, unsigned long, char const*) const
PUBLIC m a4f5c 0 std::__ndk1::num_put<wchar_t, std::__ndk1::ostreambuf_iterator<wchar_t, std::__ndk1::char_traits<wchar_t> > >::do_put(std::__ndk1::ostreambuf_iterator<wchar_t, std::__ndk1::char_traits<wchar_t> >, std::__ndk1::ios_base&, wchar_t, unsigned long long) const
PUBLIC a4f6c 0 std::__ndk1::num_put<wchar_t, std::__ndk1::ostreambuf_iterator<wchar_t, std::__ndk1::char_traits<wchar_t> > >::__do_put_integral[abi:v170000]<unsigned long long>(std::__ndk1::ostreambuf_iterator<wchar_t, std::__ndk1::char_traits<wchar_t> >, std::__ndk1::ios_base&, wchar_t, unsigned long long, char const*) const
PUBLIC m a5190 0 std::__ndk1::num_put<wchar_t, std::__ndk1::ostreambuf_iterator<wchar_t, std::__ndk1::char_traits<wchar_t> > >::do_put(std::__ndk1::ostreambuf_iterator<wchar_t, std::__ndk1::char_traits<wchar_t> >, std::__ndk1::ios_base&, wchar_t, double) const
PUBLIC a51a0 0 std::__ndk1::num_put<wchar_t, std::__ndk1::ostreambuf_iterator<wchar_t, std::__ndk1::char_traits<wchar_t> > >::__do_put_floating_point[abi:v170000]<double>(std::__ndk1::ostreambuf_iterator<wchar_t, std::__ndk1::char_traits<wchar_t> >, std::__ndk1::ios_base&, wchar_t, double, char const*) const
PUBLIC m a5654 0 std::__ndk1::num_put<wchar_t, std::__ndk1::ostreambuf_iterator<wchar_t, std::__ndk1::char_traits<wchar_t> > >::do_put(std::__ndk1::ostreambuf_iterator<wchar_t, std::__ndk1::char_traits<wchar_t> >, std::__ndk1::ios_base&, wchar_t, long double) const
PUBLIC a5664 0 std::__ndk1::num_put<wchar_t, std::__ndk1::ostreambuf_iterator<wchar_t, std::__ndk1::char_traits<wchar_t> > >::__do_put_floating_point[abi:v170000]<long double>(std::__ndk1::ostreambuf_iterator<wchar_t, std::__ndk1::char_traits<wchar_t> >, std::__ndk1::ios_base&, wchar_t, long double, char const*) const
PUBLIC m a5b10 0 std::__ndk1::num_put<wchar_t, std::__ndk1::ostreambuf_iterator<wchar_t, std::__ndk1::char_traits<wchar_t> > >::do_put(std::__ndk1::ostreambuf_iterator<wchar_t, std::__ndk1::char_traits<wchar_t> >, std::__ndk1::ios_base&, wchar_t, void const*) const
PUBLIC a5d50 0 std::__ndk1::__pad_and_output[abi:v170000]<wchar_t, std::__ndk1::char_traits<wchar_t> >(std::__ndk1::char_traits<wchar_t>, std::__ndk1::ostreambuf_iterator const*, std::__ndk1::ostreambuf_iterator const, std::__ndk1::ostreambuf_iterator const, std::__ndk1::ios_base&, std::__ndk1::ostreambuf_iterator)
PUBLIC m a5f50 0 std::__ndk1::__num_put<char>::__widen_and_group_int(char*, char*, char*, char*, char*&, char*&, std::__ndk1::locale const&)
PUBLIC m a6360 0 std::__ndk1::__num_put<char>::__widen_and_group_float(char*, char*, char*, char*, char*&, char*&, std::__ndk1::locale const&)
PUBLIC m a6994 0 std::__ndk1::__num_put<wchar_t>::__widen_and_group_int(char*, char*, char*, wchar_t*, wchar_t*&, wchar_t*&, std::__ndk1::locale const&)
PUBLIC m a6da0 0 std::__ndk1::__num_put<wchar_t>::__widen_and_group_float(char*, char*, char*, wchar_t*, wchar_t*&, wchar_t*&, std::__ndk1::locale const&)
PUBLIC m a73d4 0 std::__ndk1::time_get<char, std::__ndk1::istreambuf_iterator<char, std::__ndk1::char_traits<char> > >::get(std::__ndk1::istreambuf_iterator<char, std::__ndk1::char_traits<char> >, std::__ndk1::istreambuf_iterator<char, std::__ndk1::char_traits<char> >, std::__ndk1::ios_base&, unsigned int&, tm*, char const*, char const*) const
PUBLIC m a78c4 0 std::__ndk1::time_get<char, std::__ndk1::istreambuf_iterator<char, std::__ndk1::char_traits<char> > >::do_date_order() const
PUBLIC m a78d0 0 std::__ndk1::time_get<char, std::__ndk1::istreambuf_iterator<char, std::__ndk1::char_traits<char> > >::do_get_time(std::__ndk1::istreambuf_iterator<char, std::__ndk1::char_traits<char> >, std::__ndk1::istreambuf_iterator<char, std::__ndk1::char_traits<char> >, std::__ndk1::ios_base&, unsigned int&, tm*) const
PUBLIC m a7914 0 std::__ndk1::time_get<char, std::__ndk1::istreambuf_iterator<char, std::__ndk1::char_traits<char> > >::do_get_date(std::__ndk1::istreambuf_iterator<char, std::__ndk1::char_traits<char> >, std::__ndk1::istreambuf_iterator<char, std::__ndk1::char_traits<char> >, std::__ndk1::ios_base&, unsigned int&, tm*) const
PUBLIC m a79a0 0 std::__ndk1::time_get<char, std::__ndk1::istreambuf_iterator<char, std::__ndk1::char_traits<char> > >::do_get_weekday(std::__ndk1::istreambuf_iterator<char, std::__ndk1::char_traits<char> >, std::__ndk1::istreambuf_iterator<char, std::__ndk1::char_traits<char> >, std::__ndk1::ios_base&, unsigned int&, tm*) const
PUBLIC m a7b04 0 std::__ndk1::time_get<char, std::__ndk1::istreambuf_iterator<char, std::__ndk1::char_traits<char> > >::__get_weekdayname(int&, std::__ndk1::istreambuf_iterator<char, std::__ndk1::char_traits<char> >&, std::__ndk1::istreambuf_iterator<char, std::__ndk1::char_traits<char> >, unsigned int&, std::__ndk1::ctype<char> const&) const
PUBLIC m a7bc0 0 std::__ndk1::time_get<char, std::__ndk1::istreambuf_iterator<char, std::__ndk1::char_traits<char> > >::do_get_monthname(std::__ndk1::istreambuf_iterator<char, std::__ndk1::char_traits<char> >, std::__ndk1::istreambuf_iterator<char, std::__ndk1::char_traits<char> >, std::__ndk1::ios_base&, unsigned int&, tm*) const
PUBLIC m a7d20 0 std::__ndk1::time_get<char, std::__ndk1::istreambuf_iterator<char, std::__ndk1::char_traits<char> > >::__get_monthname(int&, std::__ndk1::istreambuf_iterator<char, std::__ndk1::char_traits<char> >&, std::__ndk1::istreambuf_iterator<char, std::__ndk1::char_traits<char> >, unsigned int&, std::__ndk1::ctype<char> const&) const
PUBLIC m a7dd8 0 std::__ndk1::time_get<char, std::__ndk1::istreambuf_iterator<char, std::__ndk1::char_traits<char> > >::do_get_year(std::__ndk1::istreambuf_iterator<char, std::__ndk1::char_traits<char> >, std::__ndk1::istreambuf_iterator<char, std::__ndk1::char_traits<char> >, std::__ndk1::ios_base&, unsigned int&, tm*) const
PUBLIC m a7f00 0 std::__ndk1::time_get<char, std::__ndk1::istreambuf_iterator<char, std::__ndk1::char_traits<char> > >::__get_year(int&, std::__ndk1::istreambuf_iterator<char, std::__ndk1::char_traits<char> >&, std::__ndk1::istreambuf_iterator<char, std::__ndk1::char_traits<char> >, unsigned int&, std::__ndk1::ctype<char> const&) const
PUBLIC m a7f68 0 std::__ndk1::time_get<char, std::__ndk1::istreambuf_iterator<char, std::__ndk1::char_traits<char> > >::do_get(std::__ndk1::istreambuf_iterator<char, std::__ndk1::char_traits<char> >, std::__ndk1::istreambuf_iterator<char, std::__ndk1::char_traits<char> >, std::__ndk1::ios_base&, unsigned int&, tm*, char, char) const
PUBLIC m a85ec 0 std::__ndk1::time_get<char, std::__ndk1::istreambuf_iterator<char, std::__ndk1::char_traits<char> > >::__get_day(int&, std::__ndk1::istreambuf_iterator<char, std::__ndk1::char_traits<char> >&, std::__ndk1::istreambuf_iterator<char, std::__ndk1::char_traits<char> >, unsigned int&, std::__ndk1::ctype<char> const&) const
PUBLIC m a8660 0 std::__ndk1::time_get<char, std::__ndk1::istreambuf_iterator<char, std::__ndk1::char_traits<char> > >::__get_hour(int&, std::__ndk1::istreambuf_iterator<char, std::__ndk1::char_traits<char> >&, std::__ndk1::istreambuf_iterator<char, std::__ndk1::char_traits<char> >, unsigned int&, std::__ndk1::ctype<char> const&) const
PUBLIC m a86d0 0 std::__ndk1::time_get<char, std::__ndk1::istreambuf_iterator<char, std::__ndk1::char_traits<char> > >::__get_12_hour(int&, std::__ndk1::istreambuf_iterator<char, std::__ndk1::char_traits<char> >&, std::__ndk1::istreambuf_iterator<char, std::__ndk1::char_traits<char> >, unsigned int&, std::__ndk1::ctype<char> const&) const
PUBLIC m a8744 0 std::__ndk1::time_get<char, std::__ndk1::istreambuf_iterator<char, std::__ndk1::char_traits<char> > >::__get_day_year_num(int&, std::__ndk1::istreambuf_iterator<char, std::__ndk1::char_traits<char> >&, std::__ndk1::istreambuf_iterator<char, std::__ndk1::char_traits<char> >, unsigned int&, std::__ndk1::ctype<char> const&) const
PUBLIC m a87b4 0 std::__ndk1::time_get<char, std::__ndk1::istreambuf_iterator<char, std::__ndk1::char_traits<char> > >::__get_month(int&, std::__ndk1::istreambuf_iterator<char, std::__ndk1::char_traits<char> >&, std::__ndk1::istreambuf_iterator<char, std::__ndk1::char_traits<char> >, unsigned int&, std::__ndk1::ctype<char> const&) const
PUBLIC m a8828 0 std::__ndk1::time_get<char, std::__ndk1::istreambuf_iterator<char, std::__ndk1::char_traits<char> > >::__get_minute(int&, std::__ndk1::istreambuf_iterator<char, std::__ndk1::char_traits<char> >&, std::__ndk1::istreambuf_iterator<char, std::__ndk1::char_traits<char> >, unsigned int&, std::__ndk1::ctype<char> const&) const
PUBLIC m a8898 0 std::__ndk1::time_get<char, std::__ndk1::istreambuf_iterator<char, std::__ndk1::char_traits<char> > >::__get_white_space(std::__ndk1::istreambuf_iterator<char, std::__ndk1::char_traits<char> >&, std::__ndk1::istreambuf_iterator<char, std::__ndk1::char_traits<char> >, unsigned int&, std::__ndk1::ctype<char> const&) const
PUBLIC m a8a90 0 std::__ndk1::time_get<char, std::__ndk1::istreambuf_iterator<char, std::__ndk1::char_traits<char> > >::__get_am_pm(int&, std::__ndk1::istreambuf_iterator<char, std::__ndk1::char_traits<char> >&, std::__ndk1::istreambuf_iterator<char, std::__ndk1::char_traits<char> >, unsigned int&, std::__ndk1::ctype<char> const&) const
PUBLIC m a8ba0 0 std::__ndk1::time_get<char, std::__ndk1::istreambuf_iterator<char, std::__ndk1::char_traits<char> > >::__get_second(int&, std::__ndk1::istreambuf_iterator<char, std::__ndk1::char_traits<char> >&, std::__ndk1::istreambuf_iterator<char, std::__ndk1::char_traits<char> >, unsigned int&, std::__ndk1::ctype<char> const&) const
PUBLIC m a8c10 0 std::__ndk1::time_get<char, std::__ndk1::istreambuf_iterator<char, std::__ndk1::char_traits<char> > >::__get_weekday(int&, std::__ndk1::istreambuf_iterator<char, std::__ndk1::char_traits<char> >&, std::__ndk1::istreambuf_iterator<char, std::__ndk1::char_traits<char> >, unsigned int&, std::__ndk1::ctype<char> const&) const
PUBLIC m a8c80 0 std::__ndk1::time_get<char, std::__ndk1::istreambuf_iterator<char, std::__ndk1::char_traits<char> > >::__get_year4(int&, std::__ndk1::istreambuf_iterator<char, std::__ndk1::char_traits<char> >&, std::__ndk1::istreambuf_iterator<char, std::__ndk1::char_traits<char> >, unsigned int&, std::__ndk1::ctype<char> const&) const
PUBLIC m a8cd0 0 std::__ndk1::time_get<char, std::__ndk1::istreambuf_iterator<char, std::__ndk1::char_traits<char> > >::__get_percent(std::__ndk1::istreambuf_iterator<char, std::__ndk1::char_traits<char> >&, std::__ndk1::istreambuf_iterator<char, std::__ndk1::char_traits<char> >, unsigned int&, std::__ndk1::ctype<char> const&) const
PUBLIC a8ef4 0 std::__ndk1::__get_up_to_n_digits[abi:v170000]<char, std::__ndk1::istreambuf_iterator<char, std::__ndk1::char_traits<char> > >(std::__ndk1::istreambuf_iterator<char, std::__ndk1::char_traits<char> >&, std::__ndk1::istreambuf_iterator<char, std::__ndk1::char_traits<char> >, unsigned int&, std::__ndk1::ctype<char> const&, int)
PUBLIC m a9274 0 std::__ndk1::time_get<wchar_t, std::__ndk1::istreambuf_iterator<wchar_t, std::__ndk1::char_traits<wchar_t> > >::get(std::__ndk1::istreambuf_iterator<wchar_t, std::__ndk1::char_traits<wchar_t> >, std::__ndk1::istreambuf_iterator<wchar_t, std::__ndk1::char_traits<wchar_t> >, std::__ndk1::ios_base&, unsigned int&, tm*, wchar_t const*, wchar_t const*) const
PUBLIC m a97cc 0 std::__ndk1::time_get<wchar_t, std::__ndk1::istreambuf_iterator<wchar_t, std::__ndk1::char_traits<wchar_t> > >::do_date_order() const
PUBLIC m a97d8 0 std::__ndk1::time_get<wchar_t, std::__ndk1::istreambuf_iterator<wchar_t, std::__ndk1::char_traits<wchar_t> > >::do_get_time(std::__ndk1::istreambuf_iterator<wchar_t, std::__ndk1::char_traits<wchar_t> >, std::__ndk1::istreambuf_iterator<wchar_t, std::__ndk1::char_traits<wchar_t> >, std::__ndk1::ios_base&, unsigned int&, tm*) const
PUBLIC m a9818 0 std::__ndk1::time_get<wchar_t, std::__ndk1::istreambuf_iterator<wchar_t, std::__ndk1::char_traits<wchar_t> > >::do_get_date(std::__ndk1::istreambuf_iterator<wchar_t, std::__ndk1::char_traits<wchar_t> >, std::__ndk1::istreambuf_iterator<wchar_t, std::__ndk1::char_traits<wchar_t> >, std::__ndk1::ios_base&, unsigned int&, tm*) const
PUBLIC m a98a8 0 std::__ndk1::time_get<wchar_t, std::__ndk1::istreambuf_iterator<wchar_t, std::__ndk1::char_traits<wchar_t> > >::do_get_weekday(std::__ndk1::istreambuf_iterator<wchar_t, std::__ndk1::char_traits<wchar_t> >, std::__ndk1::istreambuf_iterator<wchar_t, std::__ndk1::char_traits<wchar_t> >, std::__ndk1::ios_base&, unsigned int&, tm*) const
PUBLIC m a9a0c 0 std::__ndk1::time_get<wchar_t, std::__ndk1::istreambuf_iterator<wchar_t, std::__ndk1::char_traits<wchar_t> > >::__get_weekdayname(int&, std::__ndk1::istreambuf_iterator<wchar_t, std::__ndk1::char_traits<wchar_t> >&, std::__ndk1::istreambuf_iterator<wchar_t, std::__ndk1::char_traits<wchar_t> >, unsigned int&, std::__ndk1::ctype<wchar_t> const&) const
PUBLIC m a9ac8 0 std::__ndk1::time_get<wchar_t, std::__ndk1::istreambuf_iterator<wchar_t, std::__ndk1::char_traits<wchar_t> > >::do_get_monthname(std::__ndk1::istreambuf_iterator<wchar_t, std::__ndk1::char_traits<wchar_t> >, std::__ndk1::istreambuf_iterator<wchar_t, std::__ndk1::char_traits<wchar_t> >, std::__ndk1::ios_base&, unsigned int&, tm*) const
PUBLIC m a9c28 0 std::__ndk1::time_get<wchar_t, std::__ndk1::istreambuf_iterator<wchar_t, std::__ndk1::char_traits<wchar_t> > >::__get_monthname(int&, std::__ndk1::istreambuf_iterator<wchar_t, std::__ndk1::char_traits<wchar_t> >&, std::__ndk1::istreambuf_iterator<wchar_t, std::__ndk1::char_traits<wchar_t> >, unsigned int&, std::__ndk1::ctype<wchar_t> const&) const
PUBLIC m a9ce0 0 std::__ndk1::time_get<wchar_t, std::__ndk1::istreambuf_iterator<wchar_t, std::__ndk1::char_traits<wchar_t> > >::do_get_year(std::__ndk1::istreambuf_iterator<wchar_t, std::__ndk1::char_traits<wchar_t> >, std::__ndk1::istreambuf_iterator<wchar_t, std::__ndk1::char_traits<wchar_t> >, std::__ndk1::ios_base&, unsigned int&, tm*) const
PUBLIC m a9e08 0 std::__ndk1::time_get<wchar_t, std::__ndk1::istreambuf_iterator<wchar_t, std::__ndk1::char_traits<wchar_t> > >::__get_year(int&, std::__ndk1::istreambuf_iterator<wchar_t, std::__ndk1::char_traits<wchar_t> >&, std::__ndk1::istreambuf_iterator<wchar_t, std::__ndk1::char_traits<wchar_t> >, unsigned int&, std::__ndk1::ctype<wchar_t> const&) const
PUBLIC m a9e70 0 std::__ndk1::time_get<wchar_t, std::__ndk1::istreambuf_iterator<wchar_t, std::__ndk1::char_traits<wchar_t> > >::do_get(std::__ndk1::istreambuf_iterator<wchar_t, std::__ndk1::char_traits<wchar_t> >, std::__ndk1::istreambuf_iterator<wchar_t, std::__ndk1::char_traits<wchar_t> >, std::__ndk1::ios_base&, unsigned int&, tm*, char, char) const
PUBLIC m aa4e4 0 std::__ndk1::time_get<wchar_t, std::__ndk1::istreambuf_iterator<wchar_t, std::__ndk1::char_traits<wchar_t> > >::__get_day(int&, std::__ndk1::istreambuf_iterator<wchar_t, std::__ndk1::char_traits<wchar_t> >&, std::__ndk1::istreambuf_iterator<wchar_t, std::__ndk1::char_traits<wchar_t> >, unsigned int&, std::__ndk1::ctype<wchar_t> const&) const
PUBLIC m aa558 0 std::__ndk1::time_get<wchar_t, std::__ndk1::istreambuf_iterator<wchar_t, std::__ndk1::char_traits<wchar_t> > >::__get_hour(int&, std::__ndk1::istreambuf_iterator<wchar_t, std::__ndk1::char_traits<wchar_t> >&, std::__ndk1::istreambuf_iterator<wchar_t, std::__ndk1::char_traits<wchar_t> >, unsigned int&, std::__ndk1::ctype<wchar_t> const&) const
PUBLIC m aa5c8 0 std::__ndk1::time_get<wchar_t, std::__ndk1::istreambuf_iterator<wchar_t, std::__ndk1::char_traits<wchar_t> > >::__get_12_hour(int&, std::__ndk1::istreambuf_iterator<wchar_t, std::__ndk1::char_traits<wchar_t> >&, std::__ndk1::istreambuf_iterator<wchar_t, std::__ndk1::char_traits<wchar_t> >, unsigned int&, std::__ndk1::ctype<wchar_t> const&) const
PUBLIC m aa63c 0 std::__ndk1::time_get<wchar_t, std::__ndk1::istreambuf_iterator<wchar_t, std::__ndk1::char_traits<wchar_t> > >::__get_day_year_num(int&, std::__ndk1::istreambuf_iterator<wchar_t, std::__ndk1::char_traits<wchar_t> >&, std::__ndk1::istreambuf_iterator<wchar_t, std::__ndk1::char_traits<wchar_t> >, unsigned int&, std::__ndk1::ctype<wchar_t> const&) const
PUBLIC m aa6ac 0 std::__ndk1::time_get<wchar_t, std::__ndk1::istreambuf_iterator<wchar_t, std::__ndk1::char_traits<wchar_t> > >::__get_month(int&, std::__ndk1::istreambuf_iterator<wchar_t, std::__ndk1::char_traits<wchar_t> >&, std::__ndk1::istreambuf_iterator<wchar_t, std::__ndk1::char_traits<wchar_t> >, unsigned int&, std::__ndk1::ctype<wchar_t> const&) const
PUBLIC m aa720 0 std::__ndk1::time_get<wchar_t, std::__ndk1::istreambuf_iterator<wchar_t, std::__ndk1::char_traits<wchar_t> > >::__get_minute(int&, std::__ndk1::istreambuf_iterator<wchar_t, std::__ndk1::char_traits<wchar_t> >&, std::__ndk1::istreambuf_iterator<wchar_t, std::__ndk1::char_traits<wchar_t> >, unsigned int&, std::__ndk1::ctype<wchar_t> const&) const
PUBLIC m aa790 0 std::__ndk1::time_get<wchar_t, std::__ndk1::istreambuf_iterator<wchar_t, std::__ndk1::char_traits<wchar_t> > >::__get_white_space(std::__ndk1::istreambuf_iterator<wchar_t, std::__ndk1::char_traits<wchar_t> >&, std::__ndk1::istreambuf_iterator<wchar_t, std::__ndk1::char_traits<wchar_t> >, unsigned int&, std::__ndk1::ctype<wchar_t> const&) const
PUBLIC m aa9c4 0 std::__ndk1::time_get<wchar_t, std::__ndk1::istreambuf_iterator<wchar_t, std::__ndk1::char_traits<wchar_t> > >::__get_am_pm(int&, std::__ndk1::istreambuf_iterator<wchar_t, std::__ndk1::char_traits<wchar_t> >&, std::__ndk1::istreambuf_iterator<wchar_t, std::__ndk1::char_traits<wchar_t> >, unsigned int&, std::__ndk1::ctype<wchar_t> const&) const
PUBLIC m aaad4 0 std::__ndk1::time_get<wchar_t, std::__ndk1::istreambuf_iterator<wchar_t, std::__ndk1::char_traits<wchar_t> > >::__get_second(int&, std::__ndk1::istreambuf_iterator<wchar_t, std::__ndk1::char_traits<wchar_t> >&, std::__ndk1::istreambuf_iterator<wchar_t, std::__ndk1::char_traits<wchar_t> >, unsigned int&, std::__ndk1::ctype<wchar_t> const&) const
PUBLIC m aab44 0 std::__ndk1::time_get<wchar_t, std::__ndk1::istreambuf_iterator<wchar_t, std::__ndk1::char_traits<wchar_t> > >::__get_weekday(int&, std::__ndk1::istreambuf_iterator<wchar_t, std::__ndk1::char_traits<wchar_t> >&, std::__ndk1::istreambuf_iterator<wchar_t, std::__ndk1::char_traits<wchar_t> >, unsigned int&, std::__ndk1::ctype<wchar_t> const&) const
PUBLIC m aabb4 0 std::__ndk1::time_get<wchar_t, std::__ndk1::istreambuf_iterator<wchar_t, std::__ndk1::char_traits<wchar_t> > >::__get_year4(int&, std::__ndk1::istreambuf_iterator<wchar_t, std::__ndk1::char_traits<wchar_t> >&, std::__ndk1::istreambuf_iterator<wchar_t, std::__ndk1::char_traits<wchar_t> >, unsigned int&, std::__ndk1::ctype<wchar_t> const&) const
PUBLIC m aac04 0 std::__ndk1::time_get<wchar_t, std::__ndk1::istreambuf_iterator<wchar_t, std::__ndk1::char_traits<wchar_t> > >::__get_percent(std::__ndk1::istreambuf_iterator<wchar_t, std::__ndk1::char_traits<wchar_t> >&, std::__ndk1::istreambuf_iterator<wchar_t, std::__ndk1::char_traits<wchar_t> >, unsigned int&, std::__ndk1::ctype<wchar_t> const&) const
PUBLIC aae4c 0 std::__ndk1::__get_up_to_n_digits[abi:v170000]<wchar_t, std::__ndk1::istreambuf_iterator<wchar_t, std::__ndk1::char_traits<wchar_t> > >(std::__ndk1::istreambuf_iterator<wchar_t, std::__ndk1::char_traits<wchar_t> >&, std::__ndk1::istreambuf_iterator<wchar_t, std::__ndk1::char_traits<wchar_t> >, unsigned int&, std::__ndk1::ctype<wchar_t> const&, int)
PUBLIC m ab20c 0 std::__ndk1::time_put<char, std::__ndk1::ostreambuf_iterator<char, std::__ndk1::char_traits<char> > >::put(std::__ndk1::ostreambuf_iterator<char, std::__ndk1::char_traits<char> >, std::__ndk1::ios_base&, char, tm const*, char const*, char const*) const
PUBLIC m ab4b8 0 std::__ndk1::time_put<char, std::__ndk1::ostreambuf_iterator<char, std::__ndk1::char_traits<char> > >::do_put(std::__ndk1::ostreambuf_iterator<char, std::__ndk1::char_traits<char> >, std::__ndk1::ios_base&, char, tm const*, char, char) const
PUBLIC m ab588 0 std::__ndk1::__time_put::__do_put(char*, char*&, tm const*, char, char) const
PUBLIC m ab5fc 0 std::__ndk1::time_put<wchar_t, std::__ndk1::ostreambuf_iterator<wchar_t, std::__ndk1::char_traits<wchar_t> > >::put(std::__ndk1::ostreambuf_iterator<wchar_t, std::__ndk1::char_traits<wchar_t> >, std::__ndk1::ios_base&, wchar_t, tm const*, wchar_t const*, wchar_t const*) const
PUBLIC m ab8b8 0 std::__ndk1::time_put<wchar_t, std::__ndk1::ostreambuf_iterator<wchar_t, std::__ndk1::char_traits<wchar_t> > >::do_put(std::__ndk1::ostreambuf_iterator<wchar_t, std::__ndk1::char_traits<wchar_t> >, std::__ndk1::ios_base&, wchar_t, tm const*, char, char) const
PUBLIC m ab984 0 std::__ndk1::__time_put::__do_put(wchar_t*, wchar_t*&, tm const*, char, char) const
PUBLIC m aba7c 0 std::__ndk1::moneypunct<char, false>::do_decimal_point() const
PUBLIC m aba88 0 std::__ndk1::moneypunct<char, false>::do_thousands_sep() const
PUBLIC m aba94 0 std::__ndk1::moneypunct<char, false>::do_grouping() const
PUBLIC m abaa4 0 std::__ndk1::moneypunct<char, false>::do_curr_symbol() const
PUBLIC m abab4 0 std::__ndk1::moneypunct<char, false>::do_positive_sign() const
PUBLIC m abac4 0 std::__ndk1::moneypunct<char, false>::do_negative_sign() const
PUBLIC m abad8 0 std::__ndk1::moneypunct<char, false>::do_frac_digits() const
PUBLIC m abae4 0 std::__ndk1::moneypunct<char, false>::do_pos_format() const
PUBLIC m abaf4 0 std::__ndk1::moneypunct<char, false>::do_neg_format() const
PUBLIC m abb04 0 std::__ndk1::moneypunct<char, true>::do_decimal_point() const
PUBLIC m abb10 0 std::__ndk1::moneypunct<char, true>::do_thousands_sep() const
PUBLIC m abb1c 0 std::__ndk1::moneypunct<char, true>::do_grouping() const
PUBLIC m abb2c 0 std::__ndk1::moneypunct<char, true>::do_curr_symbol() const
PUBLIC m abb3c 0 std::__ndk1::moneypunct<char, true>::do_positive_sign() const
PUBLIC m abb4c 0 std::__ndk1::moneypunct<char, true>::do_negative_sign() const
PUBLIC m abb60 0 std::__ndk1::moneypunct<char, true>::do_frac_digits() const
PUBLIC m abb6c 0 std::__ndk1::moneypunct<char, true>::do_pos_format() const
PUBLIC m abb7c 0 std::__ndk1::moneypunct<char, true>::do_neg_format() const
PUBLIC m abb8c 0 std::__ndk1::moneypunct<wchar_t, false>::do_decimal_point() const
PUBLIC m abb98 0 std::__ndk1::moneypunct<wchar_t, false>::do_thousands_sep() const
PUBLIC m abba4 0 std::__ndk1::moneypunct<wchar_t, false>::do_grouping() const
PUBLIC m abbb4 0 std::__ndk1::moneypunct<wchar_t, false>::do_curr_symbol() const
PUBLIC m abbc4 0 std::__ndk1::moneypunct<wchar_t, false>::do_positive_sign() const
PUBLIC m abbd4 0 std::__ndk1::moneypunct<wchar_t, false>::do_negative_sign() const
PUBLIC m abbf0 0 std::__ndk1::moneypunct<wchar_t, false>::do_frac_digits() const
PUBLIC m abbfc 0 std::__ndk1::moneypunct<wchar_t, false>::do_pos_format() const
PUBLIC m abc0c 0 std::__ndk1::moneypunct<wchar_t, false>::do_neg_format() const
PUBLIC m abc1c 0 std::__ndk1::moneypunct<wchar_t, true>::do_decimal_point() const
PUBLIC m abc28 0 std::__ndk1::moneypunct<wchar_t, true>::do_thousands_sep() const
PUBLIC m abc34 0 std::__ndk1::moneypunct<wchar_t, true>::do_grouping() const
PUBLIC m abc44 0 std::__ndk1::moneypunct<wchar_t, true>::do_curr_symbol() const
PUBLIC m abc54 0 std::__ndk1::moneypunct<wchar_t, true>::do_positive_sign() const
PUBLIC m abc64 0 std::__ndk1::moneypunct<wchar_t, true>::do_negative_sign() const
PUBLIC m abc80 0 std::__ndk1::moneypunct<wchar_t, true>::do_frac_digits() const
PUBLIC m abc8c 0 std::__ndk1::moneypunct<wchar_t, true>::do_pos_format() const
PUBLIC m abc9c 0 std::__ndk1::moneypunct<wchar_t, true>::do_neg_format() const
PUBLIC m abcac 0 std::__ndk1::moneypunct_byname<char, false>::do_decimal_point() const
PUBLIC m abcb8 0 std::__ndk1::moneypunct_byname<char, false>::do_thousands_sep() const
PUBLIC m abcc4 0 std::__ndk1::moneypunct_byname<char, false>::do_grouping() const
PUBLIC m abd70 0 std::__ndk1::moneypunct_byname<char, false>::do_curr_symbol() const
PUBLIC m abe1c 0 std::__ndk1::moneypunct_byname<char, false>::do_positive_sign() const
PUBLIC m abec8 0 std::__ndk1::moneypunct_byname<char, false>::do_negative_sign() const
PUBLIC m abf74 0 std::__ndk1::moneypunct_byname<char, false>::do_frac_digits() const
PUBLIC m abf80 0 std::__ndk1::moneypunct_byname<char, false>::do_pos_format() const
PUBLIC m abf8c 0 std::__ndk1::moneypunct_byname<char, false>::do_neg_format() const
PUBLIC m abf98 0 std::__ndk1::moneypunct_byname<char, true>::do_decimal_point() const
PUBLIC m abfa4 0 std::__ndk1::moneypunct_byname<char, true>::do_thousands_sep() const
PUBLIC m abfb0 0 std::__ndk1::moneypunct_byname<char, true>::do_grouping() const
PUBLIC m ac05c 0 std::__ndk1::moneypunct_byname<char, true>::do_curr_symbol() const
PUBLIC m ac108 0 std::__ndk1::moneypunct_byname<char, true>::do_positive_sign() const
PUBLIC m ac1b4 0 std::__ndk1::moneypunct_byname<char, true>::do_negative_sign() const
PUBLIC m ac260 0 std::__ndk1::moneypunct_byname<char, true>::do_frac_digits() const
PUBLIC m ac26c 0 std::__ndk1::moneypunct_byname<char, true>::do_pos_format() const
PUBLIC m ac278 0 std::__ndk1::moneypunct_byname<char, true>::do_neg_format() const
PUBLIC m ac284 0 std::__ndk1::moneypunct_byname<wchar_t, false>::do_decimal_point() const
PUBLIC m ac290 0 std::__ndk1::moneypunct_byname<wchar_t, false>::do_thousands_sep() const
PUBLIC m ac29c 0 std::__ndk1::moneypunct_byname<wchar_t, false>::do_grouping() const
PUBLIC m ac348 0 std::__ndk1::moneypunct_byname<wchar_t, false>::do_curr_symbol() const
PUBLIC m ac410 0 std::__ndk1::moneypunct_byname<wchar_t, false>::do_positive_sign() const
PUBLIC m ac4d8 0 std::__ndk1::moneypunct_byname<wchar_t, false>::do_negative_sign() const
PUBLIC m ac5a0 0 std::__ndk1::moneypunct_byname<wchar_t, false>::do_frac_digits() const
PUBLIC m ac5ac 0 std::__ndk1::moneypunct_byname<wchar_t, false>::do_pos_format() const
PUBLIC m ac5b8 0 std::__ndk1::moneypunct_byname<wchar_t, false>::do_neg_format() const
PUBLIC m ac5c4 0 std::__ndk1::moneypunct_byname<wchar_t, true>::do_decimal_point() const
PUBLIC m ac5d0 0 std::__ndk1::moneypunct_byname<wchar_t, true>::do_thousands_sep() const
PUBLIC m ac5dc 0 std::__ndk1::moneypunct_byname<wchar_t, true>::do_grouping() const
PUBLIC m ac688 0 std::__ndk1::moneypunct_byname<wchar_t, true>::do_curr_symbol() const
PUBLIC m ac750 0 std::__ndk1::moneypunct_byname<wchar_t, true>::do_positive_sign() const
PUBLIC m ac818 0 std::__ndk1::moneypunct_byname<wchar_t, true>::do_negative_sign() const
PUBLIC m ac8e0 0 std::__ndk1::moneypunct_byname<wchar_t, true>::do_frac_digits() const
PUBLIC m ac8ec 0 std::__ndk1::moneypunct_byname<wchar_t, true>::do_pos_format() const
PUBLIC m ac8f8 0 std::__ndk1::moneypunct_byname<wchar_t, true>::do_neg_format() const
PUBLIC m ac904 0 std::__ndk1::money_get<char, std::__ndk1::istreambuf_iterator<char, std::__ndk1::char_traits<char> > >::do_get(std::__ndk1::istreambuf_iterator<char, std::__ndk1::char_traits<char> >, std::__ndk1::istreambuf_iterator<char, std::__ndk1::char_traits<char> >, bool, std::__ndk1::ios_base&, unsigned int&, long double&) const
PUBLIC m acd1c 0 std::__ndk1::__do_nothing(void*)
PUBLIC m acd24 0 std::__ndk1::money_get<char, std::__ndk1::istreambuf_iterator<char, std::__ndk1::char_traits<char> > >::__do_get(std::__ndk1::istreambuf_iterator<char, std::__ndk1::char_traits<char> >&, std::__ndk1::istreambuf_iterator<char, std::__ndk1::char_traits<char> >, bool, std::__ndk1::locale const&, unsigned int, unsigned int&, bool&, std::__ndk1::ctype<char> const&, std::__ndk1::unique_ptr<char, void (*)(void*)>&, char*&, char*)
PUBLIC m ae16c 0 std::__ndk1::__throw_runtime_error(char const*)
PUBLIC m ae1c0 0 std::__ndk1::money_get<char, std::__ndk1::istreambuf_iterator<char, std::__ndk1::char_traits<char> > >::do_get(std::__ndk1::istreambuf_iterator<char, std::__ndk1::char_traits<char> >, std::__ndk1::istreambuf_iterator<char, std::__ndk1::char_traits<char> >, bool, std::__ndk1::ios_base&, unsigned int&, std::__ndk1::basic_string<char, std::__ndk1::char_traits<char>, std::__ndk1::allocator<char> >&) const
PUBLIC ae4a8 0 std::__ndk1::basic_string<char, std::__ndk1::char_traits<char>, std::__ndk1::allocator<char> >::append[abi:v170000]<char*>(std::__ndk1::enable_if, std::__ndk1::enable_if)
PUBLIC m ae760 0 std::__ndk1::__money_get<char>::__gather_info(bool, std::__ndk1::locale const&, std::__ndk1::money_base::pattern&, char&, char&, std::__ndk1::basic_string<char, std::__ndk1::char_traits<char>, std::__ndk1::allocator<char> >&, std::__ndk1::basic_string<char, std::__ndk1::char_traits<char>, std::__ndk1::allocator<char> >&, std::__ndk1::basic_string<char, std::__ndk1::char_traits<char>, std::__ndk1::allocator<char> >&, std::__ndk1::basic_string<char, std::__ndk1::char_traits<char>, std::__ndk1::allocator<char> >&, int&)
PUBLIC m ae9a0 0 std::__ndk1::__check_grouping(std::__ndk1::basic_string<char, std::__ndk1::char_traits<char>, std::__ndk1::allocator<char> > const&, unsigned int*, unsigned int*, unsigned int&)
PUBLIC m aea9c 0 std::__ndk1::money_get<wchar_t, std::__ndk1::istreambuf_iterator<wchar_t, std::__ndk1::char_traits<wchar_t> > >::do_get(std::__ndk1::istreambuf_iterator<wchar_t, std::__ndk1::char_traits<wchar_t> >, std::__ndk1::istreambuf_iterator<wchar_t, std::__ndk1::char_traits<wchar_t> >, bool, std::__ndk1::ios_base&, unsigned int&, long double&) const
PUBLIC m aeeb8 0 std::__ndk1::money_get<wchar_t, std::__ndk1::istreambuf_iterator<wchar_t, std::__ndk1::char_traits<wchar_t> > >::__do_get(std::__ndk1::istreambuf_iterator<wchar_t, std::__ndk1::char_traits<wchar_t> >&, std::__ndk1::istreambuf_iterator<wchar_t, std::__ndk1::char_traits<wchar_t> >, bool, std::__ndk1::locale const&, unsigned int, unsigned int&, bool&, std::__ndk1::ctype<wchar_t> const&, std::__ndk1::unique_ptr<wchar_t, void (*)(void*)>&, wchar_t*&, wchar_t*)
PUBLIC m b0328 0 std::__ndk1::money_get<wchar_t, std::__ndk1::istreambuf_iterator<wchar_t, std::__ndk1::char_traits<wchar_t> > >::do_get(std::__ndk1::istreambuf_iterator<wchar_t, std::__ndk1::char_traits<wchar_t> >, std::__ndk1::istreambuf_iterator<wchar_t, std::__ndk1::char_traits<wchar_t> >, bool, std::__ndk1::ios_base&, unsigned int&, std::__ndk1::basic_string<wchar_t, std::__ndk1::char_traits<wchar_t>, std::__ndk1::allocator<wchar_t> >&) const
PUBLIC b0600 0 std::__ndk1::basic_string<wchar_t, std::__ndk1::char_traits<wchar_t>, std::__ndk1::allocator<wchar_t> >::append[abi:v170000]<wchar_t*>(std::__ndk1::enable_if, std::__ndk1::enable_if)
PUBLIC m b098c 0 std::__ndk1::__money_get<wchar_t>::__gather_info(bool, std::__ndk1::locale const&, std::__ndk1::money_base::pattern&, wchar_t&, wchar_t&, std::__ndk1::basic_string<char, std::__ndk1::char_traits<char>, std::__ndk1::allocator<char> >&, std::__ndk1::basic_string<wchar_t, std::__ndk1::char_traits<wchar_t>, std::__ndk1::allocator<wchar_t> >&, std::__ndk1::basic_string<wchar_t, std::__ndk1::char_traits<wchar_t>, std::__ndk1::allocator<wchar_t> >&, std::__ndk1::basic_string<wchar_t, std::__ndk1::char_traits<wchar_t>, std::__ndk1::allocator<wchar_t> >&, int&)
PUBLIC m b0bcc 0 std::__ndk1::money_put<char, std::__ndk1::ostreambuf_iterator<char, std::__ndk1::char_traits<char> > >::do_put(std::__ndk1::ostreambuf_iterator<char, std::__ndk1::char_traits<char> >, bool, std::__ndk1::ios_base&, char, long double) const
PUBLIC b109c 0 std::__ndk1::__libcpp_asprintf_l(char**, __locale_t*, char const*, ...)
PUBLIC m b1168 0 std::__ndk1::__money_put<char>::__gather_info(bool, bool, std::__ndk1::locale const&, std::__ndk1::money_base::pattern&, char&, char&, std::__ndk1::basic_string<char, std::__ndk1::char_traits<char>, std::__ndk1::allocator<char> >&, std::__ndk1::basic_string<char, std::__ndk1::char_traits<char>, std::__ndk1::allocator<char> >&, std::__ndk1::basic_string<char, std::__ndk1::char_traits<char>, std::__ndk1::allocator<char> >&, int&)
PUBLIC m b13a8 0 std::__ndk1::__money_put<char>::__format(char*, char*&, char*&, unsigned int, char const*, char const*, std::__ndk1::ctype<char> const&, bool, std::__ndk1::money_base::pattern const&, char, char, std::__ndk1::basic_string<char, std::__ndk1::char_traits<char>, std::__ndk1::allocator<char> > const&, std::__ndk1::basic_string<char, std::__ndk1::char_traits<char>, std::__ndk1::allocator<char> > const&, std::__ndk1::basic_string<char, std::__ndk1::char_traits<char>, std::__ndk1::allocator<char> > const&, int)
PUBLIC m b1844 0 std::__ndk1::money_put<char, std::__ndk1::ostreambuf_iterator<char, std::__ndk1::char_traits<char> > >::do_put(std::__ndk1::ostreambuf_iterator<char, std::__ndk1::char_traits<char> >, bool, std::__ndk1::ios_base&, char, std::__ndk1::basic_string<char, std::__ndk1::char_traits<char>, std::__ndk1::allocator<char> > const&) const
PUBLIC m b1c14 0 std::__ndk1::money_put<wchar_t, std::__ndk1::ostreambuf_iterator<wchar_t, std::__ndk1::char_traits<wchar_t> > >::do_put(std::__ndk1::ostreambuf_iterator<wchar_t, std::__ndk1::char_traits<wchar_t> >, bool, std::__ndk1::ios_base&, wchar_t, long double) const
PUBLIC m b20f0 0 std::__ndk1::__money_put<wchar_t>::__gather_info(bool, bool, std::__ndk1::locale const&, std::__ndk1::money_base::pattern&, wchar_t&, wchar_t&, std::__ndk1::basic_string<char, std::__ndk1::char_traits<char>, std::__ndk1::allocator<char> >&, std::__ndk1::basic_string<wchar_t, std::__ndk1::char_traits<wchar_t>, std::__ndk1::allocator<wchar_t> >&, std::__ndk1::basic_string<wchar_t, std::__ndk1::char_traits<wchar_t>, std::__ndk1::allocator<wchar_t> >&, int&)
PUBLIC m b2330 0 std::__ndk1::__money_put<wchar_t>::__format(wchar_t*, wchar_t*&, wchar_t*&, unsigned int, wchar_t const*, wchar_t const*, std::__ndk1::ctype<wchar_t> const&, bool, std::__ndk1::money_base::pattern const&, wchar_t, wchar_t, std::__ndk1::basic_string<char, std::__ndk1::char_traits<char>, std::__ndk1::allocator<char> > const&, std::__ndk1::basic_string<wchar_t, std::__ndk1::char_traits<wchar_t>, std::__ndk1::allocator<wchar_t> > const&, std::__ndk1::basic_string<wchar_t, std::__ndk1::char_traits<wchar_t>, std::__ndk1::allocator<wchar_t> > const&, int)
PUBLIC m b2824 0 std::__ndk1::money_put<wchar_t, std::__ndk1::ostreambuf_iterator<wchar_t, std::__ndk1::char_traits<wchar_t> > >::do_put(std::__ndk1::ostreambuf_iterator<wchar_t, std::__ndk1::char_traits<wchar_t> >, bool, std::__ndk1::ios_base&, wchar_t, std::__ndk1::basic_string<wchar_t, std::__ndk1::char_traits<wchar_t>, std::__ndk1::allocator<wchar_t> > const&) const
PUBLIC m b2bfc 0 std::__ndk1::messages<char>::do_open(std::__ndk1::basic_string<char, std::__ndk1::char_traits<char>, std::__ndk1::allocator<char> > const&, std::__ndk1::locale const&) const
PUBLIC m b2c08 0 std::__ndk1::messages<char>::do_get(long, int, int, std::__ndk1::basic_string<char, std::__ndk1::char_traits<char>, std::__ndk1::allocator<char> > const&) const
PUBLIC m b2cb0 0 std::__ndk1::messages<char>::do_close(long) const
PUBLIC m b2cb8 0 std::__ndk1::messages<wchar_t>::do_open(std::__ndk1::basic_string<char, std::__ndk1::char_traits<char>, std::__ndk1::allocator<char> > const&, std::__ndk1::locale const&) const
PUBLIC m b2cc4 0 std::__ndk1::messages<wchar_t>::do_get(long, int, int, std::__ndk1::basic_string<wchar_t, std::__ndk1::char_traits<wchar_t>, std::__ndk1::allocator<wchar_t> > const&) const
PUBLIC m b2d88 0 std::__ndk1::messages<wchar_t>::do_close(long) const
PUBLIC m b2d90 0 std::__ndk1::codecvt_byname<char, char, mbstate_t>::~codecvt_byname()
PUBLIC m b2d98 0 std::__ndk1::codecvt_byname<char, char, mbstate_t>::~codecvt_byname()
PUBLIC m b2dc4 0 std::__ndk1::codecvt_byname<wchar_t, char, mbstate_t>::~codecvt_byname()
PUBLIC m b2dcc 0 std::__ndk1::codecvt_byname<wchar_t, char, mbstate_t>::~codecvt_byname()
PUBLIC m b2df8 0 std::__ndk1::codecvt_byname<char16_t, char, mbstate_t>::~codecvt_byname()
PUBLIC m b2e00 0 std::__ndk1::codecvt_byname<char16_t, char, mbstate_t>::~codecvt_byname()
PUBLIC m b2e2c 0 std::__ndk1::codecvt_byname<char32_t, char, mbstate_t>::~codecvt_byname()
PUBLIC m b2e34 0 std::__ndk1::codecvt_byname<char32_t, char, mbstate_t>::~codecvt_byname()
PUBLIC m b2e60 0 std::__ndk1::codecvt_byname<char16_t, char8_t, mbstate_t>::~codecvt_byname()
PUBLIC m b2e68 0 std::__ndk1::codecvt_byname<char16_t, char8_t, mbstate_t>::~codecvt_byname()
PUBLIC m b2e94 0 std::__ndk1::codecvt_byname<char32_t, char8_t, mbstate_t>::~codecvt_byname()
PUBLIC m b2e9c 0 std::__ndk1::codecvt_byname<char32_t, char8_t, mbstate_t>::~codecvt_byname()
PUBLIC m b2ec8 0 std::__ndk1::locale::__imp::__imp(unsigned long)
PUBLIC b3480 0 std::__ndk1::basic_string<char, std::__ndk1::char_traits<char>, std::__ndk1::allocator<char> >::basic_string[abi:v170000]<std::nullptr_t>()
PUBLIC b3510 0 std::__ndk1::locale::__imp::install<std::__ndk1::collate<char> >(std::__ndk1::collate<char>*)
PUBLIC b3644 0 std::__ndk1::locale::__imp::install<std::__ndk1::collate<wchar_t> >(std::__ndk1::collate<wchar_t>*)
PUBLIC b3778 0 std::__ndk1::locale::__imp::install<std::__ndk1::ctype<char> >(std::__ndk1::ctype<char>*)
PUBLIC b38ac 0 std::__ndk1::locale::__imp::install<std::__ndk1::ctype<wchar_t> >(std::__ndk1::ctype<wchar_t>*)
PUBLIC b39e0 0 std::__ndk1::locale::__imp::install<std::__ndk1::codecvt<char, char, mbstate_t> >(std::__ndk1::codecvt<char, char, mbstate_t>*)
PUBLIC b3b14 0 std::__ndk1::locale::__imp::install<std::__ndk1::codecvt<wchar_t, char, mbstate_t> >(std::__ndk1::codecvt<wchar_t, char, mbstate_t>*)
PUBLIC b3c48 0 std::__ndk1::locale::__imp::install<std::__ndk1::codecvt<char16_t, char, mbstate_t> >(std::__ndk1::codecvt<char16_t, char, mbstate_t>*)
PUBLIC b3d7c 0 std::__ndk1::locale::__imp::install<std::__ndk1::codecvt<char32_t, char, mbstate_t> >(std::__ndk1::codecvt<char32_t, char, mbstate_t>*)
PUBLIC b3eb0 0 std::__ndk1::locale::__imp::install<std::__ndk1::codecvt<char16_t, char8_t, mbstate_t> >(std::__ndk1::codecvt<char16_t, char8_t, mbstate_t>*)
PUBLIC b3fe4 0 std::__ndk1::locale::__imp::install<std::__ndk1::codecvt<char32_t, char8_t, mbstate_t> >(std::__ndk1::codecvt<char32_t, char8_t, mbstate_t>*)
PUBLIC b4118 0 std::__ndk1::locale::__imp::install<std::__ndk1::numpunct<char> >(std::__ndk1::numpunct<char>*)
PUBLIC b424c 0 std::__ndk1::locale::__imp::install<std::__ndk1::numpunct<wchar_t> >(std::__ndk1::numpunct<wchar_t>*)
PUBLIC b4380 0 std::__ndk1::locale::__imp::install<std::__ndk1::num_get<char, std::__ndk1::istreambuf_iterator<char, std::__ndk1::char_traits<char> > > >(std::__ndk1::num_get<char, std::__ndk1::istreambuf_iterator<char, std::__ndk1::char_traits<char> > >*)
PUBLIC b44b4 0 std::__ndk1::locale::__imp::install<std::__ndk1::num_get<wchar_t, std::__ndk1::istreambuf_iterator<wchar_t, std::__ndk1::char_traits<wchar_t> > > >(std::__ndk1::num_get<wchar_t, std::__ndk1::istreambuf_iterator<wchar_t, std::__ndk1::char_traits<wchar_t> > >*)
PUBLIC b45e8 0 std::__ndk1::locale::__imp::install<std::__ndk1::num_put<char, std::__ndk1::ostreambuf_iterator<char, std::__ndk1::char_traits<char> > > >(std::__ndk1::num_put<char, std::__ndk1::ostreambuf_iterator<char, std::__ndk1::char_traits<char> > >*)
PUBLIC b471c 0 std::__ndk1::locale::__imp::install<std::__ndk1::num_put<wchar_t, std::__ndk1::ostreambuf_iterator<wchar_t, std::__ndk1::char_traits<wchar_t> > > >(std::__ndk1::num_put<wchar_t, std::__ndk1::ostreambuf_iterator<wchar_t, std::__ndk1::char_traits<wchar_t> > >*)
PUBLIC b4850 0 std::__ndk1::locale::__imp::install<std::__ndk1::moneypunct<char, false> >(std::__ndk1::moneypunct<char, false>*)
PUBLIC b4984 0 std::__ndk1::locale::__imp::install<std::__ndk1::moneypunct<char, true> >(std::__ndk1::moneypunct<char, true>*)
PUBLIC b4ab8 0 std::__ndk1::locale::__imp::install<std::__ndk1::moneypunct<wchar_t, false> >(std::__ndk1::moneypunct<wchar_t, false>*)
PUBLIC b4bec 0 std::__ndk1::locale::__imp::install<std::__ndk1::moneypunct<wchar_t, true> >(std::__ndk1::moneypunct<wchar_t, true>*)
PUBLIC b4d20 0 std::__ndk1::locale::__imp::install<std::__ndk1::money_get<char, std::__ndk1::istreambuf_iterator<char, std::__ndk1::char_traits<char> > > >(std::__ndk1::money_get<char, std::__ndk1::istreambuf_iterator<char, std::__ndk1::char_traits<char> > >*)
PUBLIC b4e54 0 std::__ndk1::locale::__imp::install<std::__ndk1::money_get<wchar_t, std::__ndk1::istreambuf_iterator<wchar_t, std::__ndk1::char_traits<wchar_t> > > >(std::__ndk1::money_get<wchar_t, std::__ndk1::istreambuf_iterator<wchar_t, std::__ndk1::char_traits<wchar_t> > >*)
PUBLIC b4f88 0 std::__ndk1::locale::__imp::install<std::__ndk1::money_put<char, std::__ndk1::ostreambuf_iterator<char, std::__ndk1::char_traits<char> > > >(std::__ndk1::money_put<char, std::__ndk1::ostreambuf_iterator<char, std::__ndk1::char_traits<char> > >*)
PUBLIC b50bc 0 std::__ndk1::locale::__imp::install<std::__ndk1::money_put<wchar_t, std::__ndk1::ostreambuf_iterator<wchar_t, std::__ndk1::char_traits<wchar_t> > > >(std::__ndk1::money_put<wchar_t, std::__ndk1::ostreambuf_iterator<wchar_t, std::__ndk1::char_traits<wchar_t> > >*)
PUBLIC b51f0 0 std::__ndk1::locale::__imp::install<std::__ndk1::time_get<char, std::__ndk1::istreambuf_iterator<char, std::__ndk1::char_traits<char> > > >(std::__ndk1::time_get<char, std::__ndk1::istreambuf_iterator<char, std::__ndk1::char_traits<char> > >*)
PUBLIC b5324 0 std::__ndk1::locale::__imp::install<std::__ndk1::time_get<wchar_t, std::__ndk1::istreambuf_iterator<wchar_t, std::__ndk1::char_traits<wchar_t> > > >(std::__ndk1::time_get<wchar_t, std::__ndk1::istreambuf_iterator<wchar_t, std::__ndk1::char_traits<wchar_t> > >*)
PUBLIC b5458 0 std::__ndk1::locale::__imp::install<std::__ndk1::time_put<char, std::__ndk1::ostreambuf_iterator<char, std::__ndk1::char_traits<char> > > >(std::__ndk1::time_put<char, std::__ndk1::ostreambuf_iterator<char, std::__ndk1::char_traits<char> > >*)
PUBLIC b558c 0 std::__ndk1::locale::__imp::install<std::__ndk1::time_put<wchar_t, std::__ndk1::ostreambuf_iterator<wchar_t, std::__ndk1::char_traits<wchar_t> > > >(std::__ndk1::time_put<wchar_t, std::__ndk1::ostreambuf_iterator<wchar_t, std::__ndk1::char_traits<wchar_t> > >*)
PUBLIC b56c0 0 std::__ndk1::locale::__imp::install<std::__ndk1::messages<char> >(std::__ndk1::messages<char>*)
PUBLIC b57f4 0 std::__ndk1::locale::__imp::install<std::__ndk1::messages<wchar_t> >(std::__ndk1::messages<wchar_t>*)
PUBLIC m b5928 0 std::__ndk1::locale::__imp::__imp(std::__ndk1::basic_string<char, std::__ndk1::char_traits<char>, std::__ndk1::allocator<char> > const&, unsigned long)
PUBLIC m b600c 0 std::__ndk1::locale::classic()
PUBLIC b60ac 0 std::__ndk1::locale::__imp::install<std::__ndk1::collate_byname<char> >(std::__ndk1::collate_byname<char>*)
PUBLIC b61e0 0 std::__ndk1::locale::__imp::install<std::__ndk1::collate_byname<wchar_t> >(std::__ndk1::collate_byname<wchar_t>*)
PUBLIC b6314 0 std::__ndk1::locale::__imp::install<std::__ndk1::ctype_byname<char> >(std::__ndk1::ctype_byname<char>*)
PUBLIC b6448 0 std::__ndk1::locale::__imp::install<std::__ndk1::ctype_byname<wchar_t> >(std::__ndk1::ctype_byname<wchar_t>*)
PUBLIC b657c 0 std::__ndk1::locale::__imp::install<std::__ndk1::codecvt_byname<char, char, mbstate_t> >(std::__ndk1::codecvt_byname<char, char, mbstate_t>*)
PUBLIC b66b0 0 std::__ndk1::locale::__imp::install<std::__ndk1::codecvt_byname<wchar_t, char, mbstate_t> >(std::__ndk1::codecvt_byname<wchar_t, char, mbstate_t>*)
PUBLIC b67e4 0 std::__ndk1::locale::__imp::install<std::__ndk1::codecvt_byname<char16_t, char, mbstate_t> >(std::__ndk1::codecvt_byname<char16_t, char, mbstate_t>*)
PUBLIC b6918 0 std::__ndk1::locale::__imp::install<std::__ndk1::codecvt_byname<char32_t, char, mbstate_t> >(std::__ndk1::codecvt_byname<char32_t, char, mbstate_t>*)
PUBLIC b6a4c 0 std::__ndk1::locale::__imp::install<std::__ndk1::codecvt_byname<char16_t, char8_t, mbstate_t> >(std::__ndk1::codecvt_byname<char16_t, char8_t, mbstate_t>*)
PUBLIC b6b80 0 std::__ndk1::locale::__imp::install<std::__ndk1::codecvt_byname<char32_t, char8_t, mbstate_t> >(std::__ndk1::codecvt_byname<char32_t, char8_t, mbstate_t>*)
PUBLIC b6cb4 0 std::__ndk1::locale::__imp::install<std::__ndk1::numpunct_byname<char> >(std::__ndk1::numpunct_byname<char>*)
PUBLIC b6de8 0 std::__ndk1::locale::__imp::install<std::__ndk1::numpunct_byname<wchar_t> >(std::__ndk1::numpunct_byname<wchar_t>*)
PUBLIC b6f1c 0 std::__ndk1::locale::__imp::install<std::__ndk1::moneypunct_byname<char, false> >(std::__ndk1::moneypunct_byname<char, false>*)
PUBLIC b7050 0 std::__ndk1::moneypunct_byname<char, false>::moneypunct_byname[abi:v170000](std::__ndk1::basic_string<char, std::__ndk1::char_traits<char>, std::__ndk1::allocator<char> > const&, unsigned long)
PUBLIC b7140 0 std::__ndk1::locale::__imp::install<std::__ndk1::moneypunct_byname<char, true> >(std::__ndk1::moneypunct_byname<char, true>*)
PUBLIC b7274 0 std::__ndk1::moneypunct_byname<char, true>::moneypunct_byname[abi:v170000](std::__ndk1::basic_string<char, std::__ndk1::char_traits<char>, std::__ndk1::allocator<char> > const&, unsigned long)
PUBLIC b7364 0 std::__ndk1::locale::__imp::install<std::__ndk1::moneypunct_byname<wchar_t, false> >(std::__ndk1::moneypunct_byname<wchar_t, false>*)
PUBLIC b7498 0 std::__ndk1::moneypunct_byname<wchar_t, false>::moneypunct_byname[abi:v170000](std::__ndk1::basic_string<char, std::__ndk1::char_traits<char>, std::__ndk1::allocator<char> > const&, unsigned long)
PUBLIC b7588 0 std::__ndk1::locale::__imp::install<std::__ndk1::moneypunct_byname<wchar_t, true> >(std::__ndk1::moneypunct_byname<wchar_t, true>*)
PUBLIC b76bc 0 std::__ndk1::moneypunct_byname<wchar_t, true>::moneypunct_byname[abi:v170000](std::__ndk1::basic_string<char, std::__ndk1::char_traits<char>, std::__ndk1::allocator<char> > const&, unsigned long)
PUBLIC b77ac 0 std::__ndk1::locale::__imp::install<std::__ndk1::time_get_byname<char, std::__ndk1::istreambuf_iterator<char, std::__ndk1::char_traits<char> > > >(std::__ndk1::time_get_byname<char, std::__ndk1::istreambuf_iterator<char, std::__ndk1::char_traits<char> > >*)
PUBLIC b78e0 0 std::__ndk1::locale::__imp::install<std::__ndk1::time_get_byname<wchar_t, std::__ndk1::istreambuf_iterator<wchar_t, std::__ndk1::char_traits<wchar_t> > > >(std::__ndk1::time_get_byname<wchar_t, std::__ndk1::istreambuf_iterator<wchar_t, std::__ndk1::char_traits<wchar_t> > >*)
PUBLIC b7a14 0 std::__ndk1::locale::__imp::install<std::__ndk1::time_put_byname<char, std::__ndk1::ostreambuf_iterator<char, std::__ndk1::char_traits<char> > > >(std::__ndk1::time_put_byname<char, std::__ndk1::ostreambuf_iterator<char, std::__ndk1::char_traits<char> > >*)
PUBLIC b7b48 0 std::__ndk1::locale::__imp::install<std::__ndk1::time_put_byname<wchar_t, std::__ndk1::ostreambuf_iterator<wchar_t, std::__ndk1::char_traits<wchar_t> > > >(std::__ndk1::time_put_byname<wchar_t, std::__ndk1::ostreambuf_iterator<wchar_t, std::__ndk1::char_traits<wchar_t> > >*)
PUBLIC b7c7c 0 std::__ndk1::locale::__imp::install<std::__ndk1::messages_byname<char> >(std::__ndk1::messages_byname<char>*)
PUBLIC b7db0 0 std::__ndk1::locale::__imp::install<std::__ndk1::messages_byname<wchar_t> >(std::__ndk1::messages_byname<wchar_t>*)
PUBLIC m b7ee4 0 std::__ndk1::locale::__imp::__imp(std::__ndk1::locale::__imp const&, std::__ndk1::basic_string<char, std::__ndk1::char_traits<char>, std::__ndk1::allocator<char> > const&, int)
PUBLIC m b84f8 0 std::__ndk1::locale::__imp::__imp(std::__ndk1::locale::__imp const&, std::__ndk1::locale::__imp const&, int)
PUBLIC b8840 0 std::__ndk1::locale::__imp::install_from<std::__ndk1::collate<char> >(std::__ndk1::locale::__imp const&)
PUBLIC b898c 0 std::__ndk1::locale::__imp::install_from<std::__ndk1::collate<wchar_t> >(std::__ndk1::locale::__imp const&)
PUBLIC b8ad8 0 std::__ndk1::locale::__imp::install_from<std::__ndk1::ctype<char> >(std::__ndk1::locale::__imp const&)
PUBLIC b8c24 0 std::__ndk1::locale::__imp::install_from<std::__ndk1::ctype<wchar_t> >(std::__ndk1::locale::__imp const&)
PUBLIC b8d70 0 std::__ndk1::locale::__imp::install_from<std::__ndk1::codecvt<char, char, mbstate_t> >(std::__ndk1::locale::__imp const&)
PUBLIC b8ebc 0 std::__ndk1::locale::__imp::install_from<std::__ndk1::codecvt<char16_t, char, mbstate_t> >(std::__ndk1::locale::__imp const&)
PUBLIC b9008 0 std::__ndk1::locale::__imp::install_from<std::__ndk1::codecvt<char32_t, char, mbstate_t> >(std::__ndk1::locale::__imp const&)
PUBLIC b9154 0 std::__ndk1::locale::__imp::install_from<std::__ndk1::codecvt<char16_t, char8_t, mbstate_t> >(std::__ndk1::locale::__imp const&)
PUBLIC b92a0 0 std::__ndk1::locale::__imp::install_from<std::__ndk1::codecvt<char32_t, char8_t, mbstate_t> >(std::__ndk1::locale::__imp const&)
PUBLIC b93ec 0 std::__ndk1::locale::__imp::install_from<std::__ndk1::codecvt<wchar_t, char, mbstate_t> >(std::__ndk1::locale::__imp const&)
PUBLIC b9538 0 std::__ndk1::locale::__imp::install_from<std::__ndk1::moneypunct<char, false> >(std::__ndk1::locale::__imp const&)
PUBLIC b9684 0 std::__ndk1::locale::__imp::install_from<std::__ndk1::moneypunct<char, true> >(std::__ndk1::locale::__imp const&)
PUBLIC b97d0 0 std::__ndk1::locale::__imp::install_from<std::__ndk1::moneypunct<wchar_t, false> >(std::__ndk1::locale::__imp const&)
PUBLIC b991c 0 std::__ndk1::locale::__imp::install_from<std::__ndk1::moneypunct<wchar_t, true> >(std::__ndk1::locale::__imp const&)
PUBLIC b9a68 0 std::__ndk1::locale::__imp::install_from<std::__ndk1::money_get<char, std::__ndk1::istreambuf_iterator<char, std::__ndk1::char_traits<char> > > >(std::__ndk1::locale::__imp const&)
PUBLIC b9bb4 0 std::__ndk1::locale::__imp::install_from<std::__ndk1::money_get<wchar_t, std::__ndk1::istreambuf_iterator<wchar_t, std::__ndk1::char_traits<wchar_t> > > >(std::__ndk1::locale::__imp const&)
PUBLIC b9d00 0 std::__ndk1::locale::__imp::install_from<std::__ndk1::money_put<char, std::__ndk1::ostreambuf_iterator<char, std::__ndk1::char_traits<char> > > >(std::__ndk1::locale::__imp const&)
PUBLIC b9e4c 0 std::__ndk1::locale::__imp::install_from<std::__ndk1::money_put<wchar_t, std::__ndk1::ostreambuf_iterator<wchar_t, std::__ndk1::char_traits<wchar_t> > > >(std::__ndk1::locale::__imp const&)
PUBLIC b9f98 0 std::__ndk1::locale::__imp::install_from<std::__ndk1::numpunct<char> >(std::__ndk1::locale::__imp const&)
PUBLIC ba0e4 0 std::__ndk1::locale::__imp::install_from<std::__ndk1::numpunct<wchar_t> >(std::__ndk1::locale::__imp const&)
PUBLIC ba230 0 std::__ndk1::locale::__imp::install_from<std::__ndk1::num_get<char, std::__ndk1::istreambuf_iterator<char, std::__ndk1::char_traits<char> > > >(std::__ndk1::locale::__imp const&)
PUBLIC ba37c 0 std::__ndk1::locale::__imp::install_from<std::__ndk1::num_get<wchar_t, std::__ndk1::istreambuf_iterator<wchar_t, std::__ndk1::char_traits<wchar_t> > > >(std::__ndk1::locale::__imp const&)
PUBLIC ba4c8 0 std::__ndk1::locale::__imp::install_from<std::__ndk1::num_put<char, std::__ndk1::ostreambuf_iterator<char, std::__ndk1::char_traits<char> > > >(std::__ndk1::locale::__imp const&)
PUBLIC ba614 0 std::__ndk1::locale::__imp::install_from<std::__ndk1::num_put<wchar_t, std::__ndk1::ostreambuf_iterator<wchar_t, std::__ndk1::char_traits<wchar_t> > > >(std::__ndk1::locale::__imp const&)
PUBLIC ba760 0 std::__ndk1::locale::__imp::install_from<std::__ndk1::time_get<char, std::__ndk1::istreambuf_iterator<char, std::__ndk1::char_traits<char> > > >(std::__ndk1::locale::__imp const&)
PUBLIC ba8ac 0 std::__ndk1::locale::__imp::install_from<std::__ndk1::time_get<wchar_t, std::__ndk1::istreambuf_iterator<wchar_t, std::__ndk1::char_traits<wchar_t> > > >(std::__ndk1::locale::__imp const&)
PUBLIC ba9f8 0 std::__ndk1::locale::__imp::install_from<std::__ndk1::time_put<char, std::__ndk1::ostreambuf_iterator<char, std::__ndk1::char_traits<char> > > >(std::__ndk1::locale::__imp const&)
PUBLIC bab44 0 std::__ndk1::locale::__imp::install_from<std::__ndk1::time_put<wchar_t, std::__ndk1::ostreambuf_iterator<wchar_t, std::__ndk1::char_traits<wchar_t> > > >(std::__ndk1::locale::__imp const&)
PUBLIC bac90 0 std::__ndk1::locale::__imp::install_from<std::__ndk1::messages<char> >(std::__ndk1::locale::__imp const&)
PUBLIC baddc 0 std::__ndk1::locale::__imp::install_from<std::__ndk1::messages<wchar_t> >(std::__ndk1::locale::__imp const&)
PUBLIC m baf28 0 std::__ndk1::locale::__imp::__imp(std::__ndk1::locale::__imp const&, std::__ndk1::locale::facet*, long)
PUBLIC m bb220 0 std::__ndk1::locale::__imp::~__imp()
PUBLIC bb300 0 std::__ndk1::locale::__imp::~__imp()
PUBLIC bb3d4 0 std::__ndk1::locale::__imp::make_global()
PUBLIC m bb470 0 std::__ndk1::locale::__global()
PUBLIC m bb500 0 std::__ndk1::locale::locale()
PUBLIC m bb590 0 std::__ndk1::locale::locale(std::__ndk1::locale const&)
PUBLIC m bb5bc 0 std::__ndk1::locale::~locale()
PUBLIC m bb60c 0 std::__ndk1::locale::operator=(std::__ndk1::locale const&)
PUBLIC m bb67c 0 std::__ndk1::locale::locale(char const*)
PUBLIC m bb7a0 0 std::__ndk1::locale::locale(std::__ndk1::basic_string<char, std::__ndk1::char_traits<char>, std::__ndk1::allocator<char> > const&)
PUBLIC m bb80c 0 std::__ndk1::locale::locale(std::__ndk1::locale const&, char const*, int)
PUBLIC m bb948 0 std::__ndk1::locale::locale(std::__ndk1::locale const&, std::__ndk1::basic_string<char, std::__ndk1::char_traits<char>, std::__ndk1::allocator<char> > const&, int)
PUBLIC m bb9c8 0 std::__ndk1::locale::locale(std::__ndk1::locale const&, std::__ndk1::locale const&, int)
PUBLIC m bba48 0 std::__ndk1::locale::name() const
PUBLIC m bbaf8 0 std::__ndk1::locale::__install_ctor(std::__ndk1::locale const&, std::__ndk1::locale::facet*, long)
PUBLIC m bbb84 0 std::__ndk1::locale::global(std::__ndk1::locale const&)
PUBLIC m bbe24 0 std::__ndk1::locale::has_facet(std::__ndk1::locale::id&) const
PUBLIC m bbecc 0 std::__ndk1::locale::id::__get()
PUBLIC m bbf40 0 std::__ndk1::locale::use_facet(std::__ndk1::locale::id&) const
PUBLIC m bbfd0 0 std::__ndk1::locale::operator==(std::__ndk1::locale const&) const
PUBLIC m bc0c4 0 std::__ndk1::locale::facet::~facet()
PUBLIC m bc0f0 0 std::__ndk1::locale::facet::__on_zero_shared()
PUBLIC m bc100 0 std::__ndk1::locale::id::__init()
PUBLIC m bc13c 0 std::__ndk1::collate_byname<char>::collate_byname(char const*, unsigned long)
PUBLIC bc230 0 std::__ndk1::(anonymous namespace)::__throw_runtime_error(std::__ndk1::basic_string<char, std::__ndk1::char_traits<char>, std::__ndk1::allocator<char> > const&)
PUBLIC bc284 0 std::__ndk1::operator+[abi:v170000]<char, std::__ndk1::char_traits<char>, std::__ndk1::allocator<char> >(std::__ndk1::basic_string const*, std::__ndk1::allocator<char>&&)
PUBLIC m bc2e8 0 std::__ndk1::collate_byname<char>::collate_byname(std::__ndk1::basic_string<char, std::__ndk1::char_traits<char>, std::__ndk1::allocator<char> > const&, unsigned long)
PUBLIC m bc39c 0 std::__ndk1::collate_byname<char>::~collate_byname()
PUBLIC m bc3e0 0 std::__ndk1::collate_byname<char>::~collate_byname()
PUBLIC m bc40c 0 std::__ndk1::collate_byname<char>::do_compare(char const*, char const*, char const*, char const*) const
PUBLIC m bc5c8 0 std::__ndk1::collate_byname<char>::do_transform(char const*, char const*) const
PUBLIC m bc7a8 0 std::__ndk1::collate_byname<wchar_t>::collate_byname(char const*, unsigned long)
PUBLIC m bc89c 0 std::__ndk1::collate_byname<wchar_t>::collate_byname(std::__ndk1::basic_string<char, std::__ndk1::char_traits<char>, std::__ndk1::allocator<char> > const&, unsigned long)
PUBLIC m bc950 0 std::__ndk1::collate_byname<wchar_t>::~collate_byname()
PUBLIC m bc994 0 std::__ndk1::collate_byname<wchar_t>::~collate_byname()
PUBLIC m bc9c0 0 std::__ndk1::collate_byname<wchar_t>::do_compare(wchar_t const*, wchar_t const*, wchar_t const*, wchar_t const*) const
PUBLIC m bcba8 0 std::__ndk1::collate_byname<wchar_t>::do_transform(wchar_t const*, wchar_t const*) const
PUBLIC m bcdb4 0 std::__ndk1::ctype<wchar_t>::~ctype()
PUBLIC m bcde0 0 std::__ndk1::ctype<wchar_t>::do_is(unsigned long, wchar_t) const
PUBLIC m bce0c 0 std::__ndk1::ctype<char>::classic_table()
PUBLIC m bce1c 0 std::__ndk1::ctype<wchar_t>::do_is(wchar_t const*, wchar_t const*, unsigned long*) const
PUBLIC m bce74 0 std::__ndk1::ctype<wchar_t>::do_scan_is(unsigned long, wchar_t const*, wchar_t const*) const
PUBLIC m bcec0 0 std::__ndk1::ctype<wchar_t>::do_scan_not(unsigned long, wchar_t const*, wchar_t const*) const
PUBLIC m bcf04 0 std::__ndk1::ctype<wchar_t>::do_toupper(wchar_t) const
PUBLIC m bcfb4 0 std::__ndk1::ctype<wchar_t>::do_toupper(wchar_t*, wchar_t const*) const
PUBLIC m bd0a8 0 std::__ndk1::ctype<wchar_t>::do_tolower(wchar_t) const
PUBLIC m bd158 0 std::__ndk1::ctype<wchar_t>::do_tolower(wchar_t*, wchar_t const*) const
PUBLIC m bd24c 0 std::__ndk1::ctype<wchar_t>::do_widen(char) const
PUBLIC m bd258 0 std::__ndk1::ctype<wchar_t>::do_widen(char const*, char const*, wchar_t*) const
PUBLIC m bd37c 0 std::__ndk1::ctype<wchar_t>::do_narrow(wchar_t, char) const
PUBLIC m bd38c 0 std::__ndk1::ctype<wchar_t>::do_narrow(wchar_t const*, wchar_t const*, char, char*) const
PUBLIC m bd518 0 std::__ndk1::ctype<char>::ctype(unsigned long const*, bool, unsigned long)
PUBLIC m bd550 0 std::__ndk1::ctype<char>::~ctype()
PUBLIC m bd59c 0 std::__ndk1::ctype<char>::~ctype()
PUBLIC m bd5c8 0 std::__ndk1::ctype<char>::do_toupper(char) const
PUBLIC m bd674 0 std::__ndk1::ctype<char>::do_toupper(char*, char const*) const
PUBLIC m bd764 0 std::__ndk1::ctype<char>::do_tolower(char) const
PUBLIC m bd810 0 std::__ndk1::ctype<char>::do_tolower(char*, char const*) const
PUBLIC m bd900 0 std::__ndk1::ctype<char>::do_widen(char) const
PUBLIC m bd90c 0 std::__ndk1::ctype<char>::do_widen(char const*, char const*, char*) const
PUBLIC m bd9e0 0 std::__ndk1::ctype<char>::do_narrow(char, char) const
PUBLIC m bd9f4 0 std::__ndk1::ctype<char>::do_narrow(char const*, char const*, char, char*) const
PUBLIC m bdaec 0 std::__ndk1::ctype_byname<char>::ctype_byname(char const*, unsigned long)
PUBLIC m bdbf0 0 std::__ndk1::ctype_byname<char>::ctype_byname(std::__ndk1::basic_string<char, std::__ndk1::char_traits<char>, std::__ndk1::allocator<char> > const&, unsigned long)
PUBLIC m bdcb4 0 std::__ndk1::ctype_byname<char>::~ctype_byname()
PUBLIC m bdce0 0 std::__ndk1::ctype_byname<char>::do_toupper(char) const
PUBLIC m bdd08 0 std::__ndk1::ctype_byname<char>::do_toupper(char*, char const*) const
PUBLIC m bdd64 0 std::__ndk1::ctype_byname<char>::do_tolower(char) const
PUBLIC m bdd8c 0 std::__ndk1::ctype_byname<char>::do_tolower(char*, char const*) const
PUBLIC m bdde8 0 std::__ndk1::ctype_byname<wchar_t>::ctype_byname(char const*, unsigned long)
PUBLIC m bdedc 0 std::__ndk1::ctype_byname<wchar_t>::ctype_byname(std::__ndk1::basic_string<char, std::__ndk1::char_traits<char>, std::__ndk1::allocator<char> > const&, unsigned long)
PUBLIC m bdf90 0 std::__ndk1::ctype_byname<wchar_t>::~ctype_byname()
PUBLIC m bdfbc 0 std::__ndk1::ctype_byname<wchar_t>::do_is(unsigned long, wchar_t) const
PUBLIC m be124 0 std::__ndk1::ctype_byname<wchar_t>::do_is(wchar_t const*, wchar_t const*, unsigned long*) const
PUBLIC m be2c0 0 std::__ndk1::ctype_byname<wchar_t>::do_scan_is(unsigned long, wchar_t const*, wchar_t const*) const
PUBLIC m be3f0 0 std::__ndk1::ctype_byname<wchar_t>::do_scan_not(unsigned long, wchar_t const*, wchar_t const*) const
PUBLIC m be520 0 std::__ndk1::ctype_byname<wchar_t>::do_toupper(wchar_t) const
PUBLIC m be534 0 std::__ndk1::ctype_byname<wchar_t>::do_toupper(wchar_t*, wchar_t const*) const
PUBLIC m be590 0 std::__ndk1::ctype_byname<wchar_t>::do_tolower(wchar_t) const
PUBLIC m be5a4 0 std::__ndk1::ctype_byname<wchar_t>::do_tolower(wchar_t*, wchar_t const*) const
PUBLIC m be600 0 std::__ndk1::ctype_byname<wchar_t>::do_widen(char) const
PUBLIC m be66c 0 std::__ndk1::ctype_byname<wchar_t>::do_widen(char const*, char const*, wchar_t*) const
PUBLIC m be71c 0 std::__ndk1::ctype_byname<wchar_t>::do_narrow(wchar_t, char) const
PUBLIC m be798 0 std::__ndk1::ctype_byname<wchar_t>::do_narrow(wchar_t const*, wchar_t const*, char, char*) const
PUBLIC m be85c 0 std::__ndk1::codecvt<char, char, mbstate_t>::~codecvt()
PUBLIC m be888 0 std::__ndk1::codecvt<char, char, mbstate_t>::do_out(mbstate_t&, char const*, char const*, char const*&, char*, char*, char*&) const
PUBLIC m be89c 0 std::__ndk1::codecvt<char, char, mbstate_t>::do_in(mbstate_t&, char const*, char const*, char const*&, char*, char*, char*&) const
PUBLIC m be8b0 0 std::__ndk1::codecvt<char, char, mbstate_t>::do_unshift(mbstate_t&, char*, char*, char*&) const
PUBLIC m be8c0 0 std::__ndk1::codecvt<char, char, mbstate_t>::do_encoding() const
PUBLIC m be8cc 0 std::__ndk1::codecvt<char, char, mbstate_t>::do_always_noconv() const
PUBLIC m be8d8 0 std::__ndk1::codecvt<char, char, mbstate_t>::do_length(mbstate_t&, char const*, char const*, unsigned long) const
PUBLIC m be8ec 0 std::__ndk1::codecvt<char, char, mbstate_t>::do_max_length() const
PUBLIC m be8f8 0 std::__ndk1::codecvt<wchar_t, char, mbstate_t>::codecvt(unsigned long)
PUBLIC m be9a8 0 std::__ndk1::codecvt<wchar_t, char, mbstate_t>::codecvt(char const*, unsigned long)
PUBLIC m bea9c 0 std::__ndk1::codecvt<wchar_t, char, mbstate_t>::~codecvt()
PUBLIC m beac8 0 std::__ndk1::codecvt<wchar_t, char, mbstate_t>::do_out(mbstate_t&, wchar_t const*, wchar_t const*, wchar_t const*&, char*, char*, char*&) const
PUBLIC m bedbc 0 std::__ndk1::codecvt<wchar_t, char, mbstate_t>::do_in(mbstate_t&, char const*, char const*, char const*&, wchar_t*, wchar_t*, wchar_t*&) const
PUBLIC m bf088 0 std::__ndk1::codecvt<wchar_t, char, mbstate_t>::do_unshift(mbstate_t&, char*, char*, char*&) const
PUBLIC m bf194 0 std::__ndk1::codecvt<wchar_t, char, mbstate_t>::do_encoding() const
PUBLIC m bf278 0 std::__ndk1::codecvt<wchar_t, char, mbstate_t>::do_always_noconv() const
PUBLIC m bf284 0 std::__ndk1::codecvt<wchar_t, char, mbstate_t>::do_length(mbstate_t&, char const*, char const*, unsigned long) const
PUBLIC m bf38c 0 std::__ndk1::codecvt<wchar_t, char, mbstate_t>::do_max_length() const
PUBLIC m bf418 0 std::__ndk1::codecvt<char16_t, char, mbstate_t>::~codecvt()
PUBLIC m bf444 0 std::__ndk1::codecvt<char16_t, char, mbstate_t>::do_out(mbstate_t&, char16_t const*, char16_t const*, char16_t const*&, char*, char*, char*&) const
PUBLIC bf4ac 0 std::__ndk1::utf16_to_utf8(unsigned short const*, unsigned short const*, unsigned short const*&, unsigned char*, unsigned char*, unsigned char*&, unsigned long, std::__ndk1::codecvt_mode)
PUBLIC m bf6cc 0 std::__ndk1::codecvt<char16_t, char, mbstate_t>::do_in(mbstate_t&, char const*, char const*, char const*&, char16_t*, char16_t*, char16_t*&) const
PUBLIC bf734 0 std::__ndk1::utf8_to_utf16(unsigned char const*, unsigned char const*, unsigned char const*&, unsigned short*, unsigned short*, unsigned short*&, unsigned long, std::__ndk1::codecvt_mode)
PUBLIC m bf998 0 std::__ndk1::codecvt<char16_t, char, mbstate_t>::do_unshift(mbstate_t&, char*, char*, char*&) const
PUBLIC m bf9a8 0 std::__ndk1::codecvt<char16_t, char, mbstate_t>::do_encoding() const
PUBLIC m bf9b4 0 std::__ndk1::codecvt<char16_t, char, mbstate_t>::do_always_noconv() const
PUBLIC m bf9c0 0 std::__ndk1::codecvt<char16_t, char, mbstate_t>::do_length(mbstate_t&, char const*, char const*, unsigned long) const
PUBLIC bf9dc 0 std::__ndk1::utf8_to_utf16_length(unsigned char const*, unsigned char const*, unsigned long, unsigned long, std::__ndk1::codecvt_mode)
PUBLIC m bfbe8 0 std::__ndk1::codecvt<char16_t, char, mbstate_t>::do_max_length() const
PUBLIC m bfbf4 0 std::__ndk1::codecvt<char16_t, char8_t, mbstate_t>::~codecvt()
PUBLIC m bfc20 0 std::__ndk1::codecvt<char16_t, char8_t, mbstate_t>::do_out(mbstate_t&, char16_t const*, char16_t const*, char16_t const*&, char8_t*, char8_t*, char8_t*&) const
PUBLIC m bfc88 0 std::__ndk1::codecvt<char16_t, char8_t, mbstate_t>::do_in(mbstate_t&, char8_t const*, char8_t const*, char8_t const*&, char16_t*, char16_t*, char16_t*&) const
PUBLIC m bfcf0 0 std::__ndk1::codecvt<char16_t, char8_t, mbstate_t>::do_unshift(mbstate_t&, char8_t*, char8_t*, char8_t*&) const
PUBLIC m bfd00 0 std::__ndk1::codecvt<char16_t, char8_t, mbstate_t>::do_encoding() const
PUBLIC m bfd0c 0 std::__ndk1::codecvt<char16_t, char8_t, mbstate_t>::do_always_noconv() const
PUBLIC m bfd18 0 std::__ndk1::codecvt<char16_t, char8_t, mbstate_t>::do_length(mbstate_t&, char8_t const*, char8_t const*, unsigned long) const
PUBLIC m bfd34 0 std::__ndk1::codecvt<char16_t, char8_t, mbstate_t>::do_max_length() const
PUBLIC m bfd40 0 std::__ndk1::codecvt<char32_t, char, mbstate_t>::~codecvt()
PUBLIC m bfd6c 0 std::__ndk1::codecvt<char32_t, char, mbstate_t>::do_out(mbstate_t&, char32_t const*, char32_t const*, char32_t const*&, char*, char*, char*&) const
PUBLIC bfeb0 0 std::__ndk1::ucs4_to_utf8(unsigned int const*, unsigned int const*, unsigned int const*&, unsigned char*, unsigned char*, unsigned char*&, unsigned long, std::__ndk1::codecvt_mode)
PUBLIC m c0044 0 std::__ndk1::codecvt<char32_t, char, mbstate_t>::do_in(mbstate_t&, char const*, char const*, char const*&, char32_t*, char32_t*, char32_t*&) const
PUBLIC c00ac 0 std::__ndk1::utf8_to_ucs4(unsigned char const*, unsigned char const*, unsigned char const*&, unsigned int*, unsigned int*, unsigned int*&, unsigned long, std::__ndk1::codecvt_mode)
PUBLIC m c02c8 0 std::__ndk1::codecvt<char32_t, char, mbstate_t>::do_unshift(mbstate_t&, char*, char*, char*&) const
PUBLIC m c02d8 0 std::__ndk1::codecvt<char32_t, char, mbstate_t>::do_encoding() const
PUBLIC m c02e4 0 std::__ndk1::codecvt<char32_t, char, mbstate_t>::do_always_noconv() const
PUBLIC m c02f0 0 std::__ndk1::codecvt<char32_t, char, mbstate_t>::do_length(mbstate_t&, char const*, char const*, unsigned long) const
PUBLIC c030c 0 std::__ndk1::utf8_to_ucs4_length(unsigned char const*, unsigned char const*, unsigned long, unsigned long, std::__ndk1::codecvt_mode)
PUBLIC m c051c 0 std::__ndk1::codecvt<char32_t, char, mbstate_t>::do_max_length() const
PUBLIC m c0528 0 std::__ndk1::codecvt<char32_t, char8_t, mbstate_t>::~codecvt()
PUBLIC m c0554 0 std::__ndk1::codecvt<char32_t, char8_t, mbstate_t>::do_out(mbstate_t&, char32_t const*, char32_t const*, char32_t const*&, char8_t*, char8_t*, char8_t*&) const
PUBLIC m c0698 0 std::__ndk1::codecvt<char32_t, char8_t, mbstate_t>::do_in(mbstate_t&, char8_t const*, char8_t const*, char8_t const*&, char32_t*, char32_t*, char32_t*&) const
PUBLIC m c0700 0 std::__ndk1::codecvt<char32_t, char8_t, mbstate_t>::do_unshift(mbstate_t&, char8_t*, char8_t*, char8_t*&) const
PUBLIC m c0710 0 std::__ndk1::codecvt<char32_t, char8_t, mbstate_t>::do_encoding() const
PUBLIC m c071c 0 std::__ndk1::codecvt<char32_t, char8_t, mbstate_t>::do_always_noconv() const
PUBLIC m c0728 0 std::__ndk1::codecvt<char32_t, char8_t, mbstate_t>::do_length(mbstate_t&, char8_t const*, char8_t const*, unsigned long) const
PUBLIC m c0744 0 std::__ndk1::codecvt<char32_t, char8_t, mbstate_t>::do_max_length() const
PUBLIC m c0750 0 std::__ndk1::__codecvt_utf8<wchar_t>::do_out(mbstate_t&, wchar_t const*, wchar_t const*, wchar_t const*&, char*, char*, char*&) const
PUBLIC m c07c0 0 std::__ndk1::__codecvt_utf8<wchar_t>::do_in(mbstate_t&, char const*, char const*, char const*&, wchar_t*, wchar_t*, wchar_t*&) const
PUBLIC m c0830 0 std::__ndk1::__codecvt_utf8<wchar_t>::do_unshift(mbstate_t&, char*, char*, char*&) const
PUBLIC m c0840 0 std::__ndk1::__codecvt_utf8<wchar_t>::do_encoding() const
PUBLIC m c084c 0 std::__ndk1::__codecvt_utf8<wchar_t>::do_always_noconv() const
PUBLIC m c0858 0 std::__ndk1::__codecvt_utf8<wchar_t>::do_length(mbstate_t&, char const*, char const*, unsigned long) const
PUBLIC m c0878 0 std::__ndk1::__codecvt_utf8<wchar_t>::do_max_length() const
PUBLIC m c0894 0 std::__ndk1::__codecvt_utf8<char16_t>::do_out(mbstate_t&, char16_t const*, char16_t const*, char16_t const*&, char*, char*, char*&) const
PUBLIC m c09b8 0 std::__ndk1::__codecvt_utf8<char16_t>::do_in(mbstate_t&, char const*, char const*, char const*&, char16_t*, char16_t*, char16_t*&) const
PUBLIC m c0b94 0 std::__ndk1::__codecvt_utf8<char16_t>::do_unshift(mbstate_t&, char*, char*, char*&) const
PUBLIC m c0ba4 0 std::__ndk1::__codecvt_utf8<char16_t>::do_encoding() const
PUBLIC m c0bb0 0 std::__ndk1::__codecvt_utf8<char16_t>::do_always_noconv() const
PUBLIC m c0bbc 0 std::__ndk1::__codecvt_utf8<char16_t>::do_length(mbstate_t&, char const*, char const*, unsigned long) const
PUBLIC m c0d38 0 std::__ndk1::__codecvt_utf8<char16_t>::do_max_length() const
PUBLIC m c0d54 0 std::__ndk1::__codecvt_utf8<char32_t>::do_out(mbstate_t&, char32_t const*, char32_t const*, char32_t const*&, char*, char*, char*&) const
PUBLIC m c0dc4 0 std::__ndk1::__codecvt_utf8<char32_t>::do_in(mbstate_t&, char const*, char const*, char const*&, char32_t*, char32_t*, char32_t*&) const
PUBLIC m c0e34 0 std::__ndk1::__codecvt_utf8<char32_t>::do_unshift(mbstate_t&, char*, char*, char*&) const
PUBLIC m c0e44 0 std::__ndk1::__codecvt_utf8<char32_t>::do_encoding() const
PUBLIC m c0e50 0 std::__ndk1::__codecvt_utf8<char32_t>::do_always_noconv() const
PUBLIC m c0e5c 0 std::__ndk1::__codecvt_utf8<char32_t>::do_length(mbstate_t&, char const*, char const*, unsigned long) const
PUBLIC m c0e7c 0 std::__ndk1::__codecvt_utf8<char32_t>::do_max_length() const
PUBLIC m c0e98 0 std::__ndk1::__codecvt_utf16<wchar_t, false>::do_out(mbstate_t&, wchar_t const*, wchar_t const*, wchar_t const*&, char*, char*, char*&) const
PUBLIC m c0f8c 0 std::__ndk1::__codecvt_utf16<wchar_t, false>::do_in(mbstate_t&, char const*, char const*, char const*&, wchar_t*, wchar_t*, wchar_t*&) const
PUBLIC m c1098 0 std::__ndk1::__codecvt_utf16<wchar_t, false>::do_unshift(mbstate_t&, char*, char*, char*&) const
PUBLIC m c10a8 0 std::__ndk1::__codecvt_utf16<wchar_t, false>::do_encoding() const
PUBLIC m c10b4 0 std::__ndk1::__codecvt_utf16<wchar_t, false>::do_always_noconv() const
PUBLIC m c10c0 0 std::__ndk1::__codecvt_utf16<wchar_t, false>::do_length(mbstate_t&, char const*, char const*, unsigned long) const
PUBLIC m c11b4 0 std::__ndk1::__codecvt_utf16<wchar_t, false>::do_max_length() const
PUBLIC m c11d0 0 std::__ndk1::__codecvt_utf16<wchar_t, true>::do_out(mbstate_t&, wchar_t const*, wchar_t const*, wchar_t const*&, char*, char*, char*&) const
PUBLIC m c12b4 0 std::__ndk1::__codecvt_utf16<wchar_t, true>::do_in(mbstate_t&, char const*, char const*, char const*&, wchar_t*, wchar_t*, wchar_t*&) const
PUBLIC m c13cc 0 std::__ndk1::__codecvt_utf16<wchar_t, true>::do_unshift(mbstate_t&, char*, char*, char*&) const
PUBLIC m c13dc 0 std::__ndk1::__codecvt_utf16<wchar_t, true>::do_encoding() const
PUBLIC m c13e8 0 std::__ndk1::__codecvt_utf16<wchar_t, true>::do_always_noconv() const
PUBLIC m c13f4 0 std::__ndk1::__codecvt_utf16<wchar_t, true>::do_length(mbstate_t&, char const*, char const*, unsigned long) const
PUBLIC m c14e8 0 std::__ndk1::__codecvt_utf16<wchar_t, true>::do_max_length() const
PUBLIC m c1504 0 std::__ndk1::__codecvt_utf16<char16_t, false>::do_out(mbstate_t&, char16_t const*, char16_t const*, char16_t const*&, char*, char*, char*&) const
PUBLIC m c15b4 0 std::__ndk1::__codecvt_utf16<char16_t, false>::do_in(mbstate_t&, char const*, char const*, char const*&, char16_t*, char16_t*, char16_t*&) const
PUBLIC m c1648 0 std::__ndk1::__codecvt_utf16<char16_t, false>::do_unshift(mbstate_t&, char*, char*, char*&) const
PUBLIC m c1658 0 std::__ndk1::__codecvt_utf16<char16_t, false>::do_encoding() const
PUBLIC m c1664 0 std::__ndk1::__codecvt_utf16<char16_t, false>::do_always_noconv() const
PUBLIC m c1670 0 std::__ndk1::__codecvt_utf16<char16_t, false>::do_length(mbstate_t&, char const*, char const*, unsigned long) const
PUBLIC m c170c 0 std::__ndk1::__codecvt_utf16<char16_t, false>::do_max_length() const
PUBLIC m c1728 0 std::__ndk1::__codecvt_utf16<char16_t, true>::do_out(mbstate_t&, char16_t const*, char16_t const*, char16_t const*&, char*, char*, char*&) const
PUBLIC m c17d8 0 std::__ndk1::__codecvt_utf16<char16_t, true>::do_in(mbstate_t&, char const*, char const*, char const*&, char16_t*, char16_t*, char16_t*&) const
PUBLIC m c187c 0 std::__ndk1::__codecvt_utf16<char16_t, true>::do_unshift(mbstate_t&, char*, char*, char*&) const
PUBLIC m c188c 0 std::__ndk1::__codecvt_utf16<char16_t, true>::do_encoding() const
PUBLIC m c1898 0 std::__ndk1::__codecvt_utf16<char16_t, true>::do_always_noconv() const
PUBLIC m c18a4 0 std::__ndk1::__codecvt_utf16<char16_t, true>::do_length(mbstate_t&, char const*, char const*, unsigned long) const
PUBLIC m c1940 0 std::__ndk1::__codecvt_utf16<char16_t, true>::do_max_length() const
PUBLIC m c195c 0 std::__ndk1::__codecvt_utf16<char32_t, false>::do_out(mbstate_t&, char32_t const*, char32_t const*, char32_t const*&, char*, char*, char*&) const
PUBLIC m c1a50 0 std::__ndk1::__codecvt_utf16<char32_t, false>::do_in(mbstate_t&, char const*, char const*, char const*&, char32_t*, char32_t*, char32_t*&) const
PUBLIC m c1b5c 0 std::__ndk1::__codecvt_utf16<char32_t, false>::do_unshift(mbstate_t&, char*, char*, char*&) const
PUBLIC m c1b6c 0 std::__ndk1::__codecvt_utf16<char32_t, false>::do_encoding() const
PUBLIC m c1b78 0 std::__ndk1::__codecvt_utf16<char32_t, false>::do_always_noconv() const
PUBLIC m c1b84 0 std::__ndk1::__codecvt_utf16<char32_t, false>::do_length(mbstate_t&, char const*, char const*, unsigned long) const
PUBLIC m c1c78 0 std::__ndk1::__codecvt_utf16<char32_t, false>::do_max_length() const
PUBLIC m c1c94 0 std::__ndk1::__codecvt_utf16<char32_t, true>::do_out(mbstate_t&, char32_t const*, char32_t const*, char32_t const*&, char*, char*, char*&) const
PUBLIC m c1d78 0 std::__ndk1::__codecvt_utf16<char32_t, true>::do_in(mbstate_t&, char const*, char const*, char const*&, char32_t*, char32_t*, char32_t*&) const
PUBLIC m c1e90 0 std::__ndk1::__codecvt_utf16<char32_t, true>::do_unshift(mbstate_t&, char*, char*, char*&) const
PUBLIC m c1ea0 0 std::__ndk1::__codecvt_utf16<char32_t, true>::do_encoding() const
PUBLIC m c1eac 0 std::__ndk1::__codecvt_utf16<char32_t, true>::do_always_noconv() const
PUBLIC m c1eb8 0 std::__ndk1::__codecvt_utf16<char32_t, true>::do_length(mbstate_t&, char const*, char const*, unsigned long) const
PUBLIC m c1fac 0 std::__ndk1::__codecvt_utf16<char32_t, true>::do_max_length() const
PUBLIC m c1fc8 0 std::__ndk1::__codecvt_utf8_utf16<wchar_t>::do_out(mbstate_t&, wchar_t const*, wchar_t const*, wchar_t const*&, char*, char*, char*&) const
PUBLIC c2038 0 std::__ndk1::utf16_to_utf8(unsigned int const*, unsigned int const*, unsigned int const*&, unsigned char*, unsigned char*, unsigned char*&, unsigned long, std::__ndk1::codecvt_mode)
PUBLIC m c2258 0 std::__ndk1::__codecvt_utf8_utf16<wchar_t>::do_in(mbstate_t&, char const*, char const*, char const*&, wchar_t*, wchar_t*, wchar_t*&) const
PUBLIC c22c8 0 std::__ndk1::utf8_to_utf16(unsigned char const*, unsigned char const*, unsigned char const*&, unsigned int*, unsigned int*, unsigned int*&, unsigned long, std::__ndk1::codecvt_mode)
PUBLIC m c2528 0 std::__ndk1::__codecvt_utf8_utf16<wchar_t>::do_unshift(mbstate_t&, char*, char*, char*&) const
PUBLIC m c2538 0 std::__ndk1::__codecvt_utf8_utf16<wchar_t>::do_encoding() const
PUBLIC m c2544 0 std::__ndk1::__codecvt_utf8_utf16<wchar_t>::do_always_noconv() const
PUBLIC m c2550 0 std::__ndk1::__codecvt_utf8_utf16<wchar_t>::do_length(mbstate_t&, char const*, char const*, unsigned long) const
PUBLIC m c2570 0 std::__ndk1::__codecvt_utf8_utf16<wchar_t>::do_max_length() const
PUBLIC m c258c 0 std::__ndk1::__codecvt_utf8_utf16<char16_t>::do_out(mbstate_t&, char16_t const*, char16_t const*, char16_t const*&, char*, char*, char*&) const
PUBLIC m c25fc 0 std::__ndk1::__codecvt_utf8_utf16<char16_t>::do_in(mbstate_t&, char const*, char const*, char const*&, char16_t*, char16_t*, char16_t*&) const
PUBLIC m c266c 0 std::__ndk1::__codecvt_utf8_utf16<char16_t>::do_unshift(mbstate_t&, char*, char*, char*&) const
PUBLIC m c267c 0 std::__ndk1::__codecvt_utf8_utf16<char16_t>::do_encoding() const
PUBLIC m c2688 0 std::__ndk1::__codecvt_utf8_utf16<char16_t>::do_always_noconv() const
PUBLIC m c2694 0 std::__ndk1::__codecvt_utf8_utf16<char16_t>::do_length(mbstate_t&, char const*, char const*, unsigned long) const
PUBLIC m c26b4 0 std::__ndk1::__codecvt_utf8_utf16<char16_t>::do_max_length() const
PUBLIC m c26d0 0 std::__ndk1::__codecvt_utf8_utf16<char32_t>::do_out(mbstate_t&, char32_t const*, char32_t const*, char32_t const*&, char*, char*, char*&) const
PUBLIC m c2740 0 std::__ndk1::__codecvt_utf8_utf16<char32_t>::do_in(mbstate_t&, char const*, char const*, char const*&, char32_t*, char32_t*, char32_t*&) const
PUBLIC m c27b0 0 std::__ndk1::__codecvt_utf8_utf16<char32_t>::do_unshift(mbstate_t&, char*, char*, char*&) const
PUBLIC m c27c0 0 std::__ndk1::__codecvt_utf8_utf16<char32_t>::do_encoding() const
PUBLIC m c27cc 0 std::__ndk1::__codecvt_utf8_utf16<char32_t>::do_always_noconv() const
PUBLIC m c27d8 0 std::__ndk1::__codecvt_utf8_utf16<char32_t>::do_length(mbstate_t&, char const*, char const*, unsigned long) const
PUBLIC m c27f8 0 std::__ndk1::__codecvt_utf8_utf16<char32_t>::do_max_length() const
PUBLIC m c2814 0 std::__ndk1::__narrow_to_utf8<(unsigned long)16>::~__narrow_to_utf8()
PUBLIC m c2840 0 std::__ndk1::__narrow_to_utf8<(unsigned long)32>::~__narrow_to_utf8()
PUBLIC m c286c 0 std::__ndk1::__widen_from_utf8<(unsigned long)16>::~__widen_from_utf8()
PUBLIC m c2898 0 std::__ndk1::__widen_from_utf8<(unsigned long)32>::~__widen_from_utf8()
PUBLIC m c28c4 0 std::__ndk1::numpunct<char>::numpunct(unsigned long)
PUBLIC m c28f0 0 std::__ndk1::numpunct<wchar_t>::numpunct(unsigned long)
PUBLIC m c2920 0 std::__ndk1::numpunct<char>::~numpunct()
PUBLIC m c2968 0 std::__ndk1::numpunct<char>::~numpunct()
PUBLIC m c2994 0 std::__ndk1::numpunct<wchar_t>::~numpunct()
PUBLIC m c29dc 0 std::__ndk1::numpunct<wchar_t>::~numpunct()
PUBLIC m c2a08 0 std::__ndk1::numpunct<char>::do_decimal_point() const
PUBLIC m c2a14 0 std::__ndk1::numpunct<wchar_t>::do_decimal_point() const
PUBLIC m c2a20 0 std::__ndk1::numpunct<char>::do_thousands_sep() const
PUBLIC m c2a2c 0 std::__ndk1::numpunct<wchar_t>::do_thousands_sep() const
PUBLIC m c2a38 0 std::__ndk1::numpunct<char>::do_grouping() const
PUBLIC m c2ae4 0 std::__ndk1::numpunct<wchar_t>::do_grouping() const
PUBLIC m c2b90 0 std::__ndk1::numpunct<char>::do_truename() const
PUBLIC m c2bb0 0 std::__ndk1::numpunct<wchar_t>::do_truename() const
PUBLIC c2bd4 0 std::__ndk1::basic_string<wchar_t, std::__ndk1::char_traits<wchar_t>, std::__ndk1::allocator<wchar_t> >::basic_string[abi:v170000]<std::nullptr_t>()
PUBLIC m c2c80 0 std::__ndk1::numpunct<char>::do_falsename() const
PUBLIC m c2ca4 0 std::__ndk1::numpunct<wchar_t>::do_falsename() const
PUBLIC m c2cf8 0 std::__ndk1::numpunct_byname<char>::numpunct_byname(char const*, unsigned long)
PUBLIC m c2d58 0 std::__ndk1::numpunct_byname<char>::__init(char const*)
PUBLIC m c2ef4 0 std::__ndk1::numpunct_byname<char>::numpunct_byname(std::__ndk1::basic_string<char, std::__ndk1::char_traits<char>, std::__ndk1::allocator<char> > const&, unsigned long)
PUBLIC m c2f64 0 std::__ndk1::numpunct_byname<char>::~numpunct_byname()
PUBLIC c2f90 0 std::__ndk1::checked_string_to_char_convert(char&, char const*, __locale_t*)
PUBLIC c308c 0 std::__ndk1::__libcpp_unique_locale::~__libcpp_unique_locale()
PUBLIC m c30b4 0 std::__ndk1::numpunct_byname<wchar_t>::numpunct_byname(char const*, unsigned long)
PUBLIC m c3118 0 std::__ndk1::numpunct_byname<wchar_t>::__init(char const*)
PUBLIC m c32a4 0 std::__ndk1::numpunct_byname<wchar_t>::numpunct_byname(std::__ndk1::basic_string<char, std::__ndk1::char_traits<char>, std::__ndk1::allocator<char> > const&, unsigned long)
PUBLIC m c3318 0 std::__ndk1::numpunct_byname<wchar_t>::~numpunct_byname()
PUBLIC c3344 0 std::__ndk1::checked_string_to_wchar_convert(wchar_t&, char const*, __locale_t*)
PUBLIC m c341c 0 std::__ndk1::__num_get_base::__get_base(std::__ndk1::ios_base&)
PUBLIC m c3460 0 std::__ndk1::__num_put_base::__format_int(char*, char const*, bool, unsigned int)
PUBLIC m c3504 0 std::__ndk1::__num_put_base::__format_float(char*, char const*, unsigned int)
PUBLIC m c360c 0 std::__ndk1::__time_get_c_storage<char>::__weeks() const
PUBLIC c369c 0 std::__ndk1::init_weeks()
PUBLIC m c3b60 0 std::__ndk1::__time_get_c_storage<wchar_t>::__weeks() const
PUBLIC c3bf0 0 std::__ndk1::init_wweeks()
PUBLIC m c4274 0 std::__ndk1::__time_get_c_storage<char>::__months() const
PUBLIC c4304 0 std::__ndk1::init_months()
PUBLIC m c4adc 0 std::__ndk1::__time_get_c_storage<wchar_t>::__months() const
PUBLIC c4b6c 0 std::__ndk1::init_wmonths()
PUBLIC m c5548 0 std::__ndk1::__time_get_c_storage<char>::__am_pm() const
PUBLIC c55d8 0 std::__ndk1::init_am_pm()
PUBLIC m c56e0 0 std::__ndk1::__time_get_c_storage<wchar_t>::__am_pm() const
PUBLIC c5770 0 std::__ndk1::init_wam_pm()
PUBLIC m c5868 0 std::__ndk1::__time_get_c_storage<char>::__x() const
PUBLIC m c5918 0 std::__ndk1::__time_get_c_storage<wchar_t>::__x() const
PUBLIC m c59c8 0 std::__ndk1::__time_get_c_storage<char>::__X() const
PUBLIC m c5a78 0 std::__ndk1::__time_get_c_storage<wchar_t>::__X() const
PUBLIC m c5b28 0 std::__ndk1::__time_get_c_storage<char>::__c() const
PUBLIC m c5bd8 0 std::__ndk1::__time_get_c_storage<wchar_t>::__c() const
PUBLIC m c5c88 0 std::__ndk1::__time_get_c_storage<char>::__r() const
PUBLIC m c5d38 0 std::__ndk1::__time_get_c_storage<wchar_t>::__r() const
PUBLIC m c5de8 0 std::__ndk1::__time_get::__time_get(char const*)
PUBLIC m c5ea0 0 std::__ndk1::__time_get::__time_get(std::__ndk1::basic_string<char, std::__ndk1::char_traits<char>, std::__ndk1::allocator<char> > const&)
PUBLIC m c5f2c 0 std::__ndk1::__time_get::~__time_get()
PUBLIC m c5f50 0 std::__ndk1::__time_get_storage<char>::__analyze(char, std::__ndk1::ctype<char> const&)
PUBLIC c6550 0 std::__ndk1::__scan_keyword[abi:v170000]<char*, std::__ndk1::basic_string<char, std::__ndk1::char_traits<char>, std::__ndk1::allocator<char> >*, std::__ndk1::ctype<char> >(char*&, std::__ndk1::basic_string<char, std::__ndk1::char_traits<char>, std::__ndk1::allocator<char> >*, std::__ndk1::ctype<char>, std::__ndk1::ctype<char>, std::__ndk1::ctype<char> const&, unsigned int&, bool)
PUBLIC m c68a0 0 std::__ndk1::__time_get_storage<wchar_t>::__analyze(char, std::__ndk1::ctype<wchar_t> const&)
PUBLIC c6fb0 0 std::__ndk1::__scan_keyword[abi:v170000]<wchar_t*, std::__ndk1::basic_string<wchar_t, std::__ndk1::char_traits<wchar_t>, std::__ndk1::allocator<wchar_t> >*, std::__ndk1::ctype<wchar_t> >(wchar_t*&, std::__ndk1::basic_string<wchar_t, std::__ndk1::char_traits<wchar_t>, std::__ndk1::allocator<wchar_t> >*, std::__ndk1::ctype<wchar_t>, std::__ndk1::ctype<wchar_t>, std::__ndk1::ctype<wchar_t> const&, unsigned int&, bool)
PUBLIC m c7300 0 std::__ndk1::__time_get_storage<char>::init(std::__ndk1::ctype<char> const&)
PUBLIC m c7818 0 std::__ndk1::__time_get_storage<wchar_t>::init(std::__ndk1::ctype<wchar_t> const&)
PUBLIC c7cb8 0 std::__ndk1::basic_string<wchar_t, std::__ndk1::char_traits<wchar_t>, std::__ndk1::allocator<wchar_t> >::assign<wchar_t*>(wchar_t*, wchar_t*)
PUBLIC m c801c 0 std::__ndk1::__time_get_storage<char>::__time_get_storage(char const*)
PUBLIC m c851c 0 std::__ndk1::ctype_byname<char>::~ctype_byname()
PUBLIC m c8584 0 std::__ndk1::__time_get_storage<char>::__time_get_storage(std::__ndk1::basic_string<char, std::__ndk1::char_traits<char>, std::__ndk1::allocator<char> > const&)
PUBLIC m c8ad4 0 std::__ndk1::__time_get_storage<wchar_t>::__time_get_storage(char const*)
PUBLIC m c8fb0 0 std::__ndk1::ctype_byname<wchar_t>::~ctype_byname()
PUBLIC m c8ff4 0 std::__ndk1::__time_get_storage<wchar_t>::__time_get_storage(std::__ndk1::basic_string<char, std::__ndk1::char_traits<char>, std::__ndk1::allocator<char> > const&)
PUBLIC c9510 0 std::__ndk1::__time_get_temp<wchar_t>::__time_get_temp(std::__ndk1::basic_string<char, std::__ndk1::char_traits<char>, std::__ndk1::allocator<char> > const&)
PUBLIC m c9690 0 std::__ndk1::__time_get_storage<char>::__do_date_order() const
PUBLIC m c9908 0 std::__ndk1::__time_get_storage<wchar_t>::__do_date_order() const
PUBLIC m c9b78 0 std::__ndk1::__time_put::__time_put(char const*)
PUBLIC m c9c30 0 std::__ndk1::__time_put::__time_put(std::__ndk1::basic_string<char, std::__ndk1::char_traits<char>, std::__ndk1::allocator<char> > const&)
PUBLIC m c9cbc 0 std::__ndk1::__time_put::~__time_put()
PUBLIC m c9d64 0 std::__ndk1::moneypunct_byname<char, false>::init(char const*)
PUBLIC ca0b0 0 std::__ndk1::__init_pat<char>(std::__ndk1::money_base::pattern&, std::__ndk1::basic_string<char, std::__ndk1::char_traits<char>, std::__ndk1::allocator<char> >&, bool, char, char, char, char)
PUBLIC m ca5c8 0 std::__ndk1::moneypunct_byname<char, true>::init(char const*)
PUBLIC m ca914 0 std::__ndk1::moneypunct_byname<wchar_t, false>::init(char const*)
PUBLIC cad84 0 std::__ndk1::__init_pat<wchar_t>(std::__ndk1::money_base::pattern&, std::__ndk1::basic_string<wchar_t, std::__ndk1::char_traits<wchar_t>, std::__ndk1::allocator<wchar_t> >&, bool, char, char, char, wchar_t)
PUBLIC m cb29c 0 std::__ndk1::moneypunct_byname<wchar_t, true>::init(char const*)
PUBLIC cb70c 0 std::__ndk1::__codecvt_utf8<wchar_t>::~__codecvt_utf8()
PUBLIC cb738 0 std::__ndk1::__codecvt_utf8<char16_t>::~__codecvt_utf8()
PUBLIC cb764 0 std::__ndk1::__codecvt_utf8<char32_t>::~__codecvt_utf8()
PUBLIC cb790 0 std::__ndk1::__codecvt_utf16<wchar_t, false>::~__codecvt_utf16()
PUBLIC m cb7bc 0 std::__ndk1::codecvt<wchar_t, char, mbstate_t>::~codecvt()
PUBLIC cb878 0 std::__ndk1::__codecvt_utf16<wchar_t, true>::~__codecvt_utf16()
PUBLIC cb8a4 0 std::__ndk1::__codecvt_utf16<char16_t, false>::~__codecvt_utf16()
PUBLIC cb8d0 0 std::__ndk1::__codecvt_utf16<char16_t, true>::~__codecvt_utf16()
PUBLIC cb8fc 0 std::__ndk1::__codecvt_utf16<char32_t, false>::~__codecvt_utf16()
PUBLIC cb928 0 std::__ndk1::__codecvt_utf16<char32_t, true>::~__codecvt_utf16()
PUBLIC cb954 0 std::__ndk1::__codecvt_utf8_utf16<wchar_t>::~__codecvt_utf8_utf16()
PUBLIC cb980 0 std::__ndk1::__codecvt_utf8_utf16<char32_t>::~__codecvt_utf8_utf16()
PUBLIC cb9ac 0 std::__ndk1::__codecvt_utf8_utf16<char16_t>::~__codecvt_utf8_utf16()
PUBLIC cb9d8 0 std::__ndk1::num_get<char, std::__ndk1::istreambuf_iterator<char, std::__ndk1::char_traits<char> > >::~num_get()
PUBLIC cba04 0 std::__ndk1::num_get<wchar_t, std::__ndk1::istreambuf_iterator<wchar_t, std::__ndk1::char_traits<wchar_t> > >::~num_get()
PUBLIC cba30 0 std::__ndk1::num_put<char, std::__ndk1::ostreambuf_iterator<char, std::__ndk1::char_traits<char> > >::~num_put()
PUBLIC cba5c 0 std::__ndk1::num_put<wchar_t, std::__ndk1::ostreambuf_iterator<wchar_t, std::__ndk1::char_traits<wchar_t> > >::~num_put()
PUBLIC cba88 0 std::__ndk1::time_get<char, std::__ndk1::istreambuf_iterator<char, std::__ndk1::char_traits<char> > >::~time_get()
PUBLIC cba90 0 std::__ndk1::time_get<char, std::__ndk1::istreambuf_iterator<char, std::__ndk1::char_traits<char> > >::~time_get()
PUBLIC cbabc 0 std::__ndk1::time_get<wchar_t, std::__ndk1::istreambuf_iterator<wchar_t, std::__ndk1::char_traits<wchar_t> > >::~time_get()
PUBLIC cbac4 0 std::__ndk1::time_get<wchar_t, std::__ndk1::istreambuf_iterator<wchar_t, std::__ndk1::char_traits<wchar_t> > >::~time_get()
PUBLIC cbaf0 0 std::__ndk1::time_get_byname<char, std::__ndk1::istreambuf_iterator<char, std::__ndk1::char_traits<char> > >::~time_get_byname()
PUBLIC cbb20 0 std::__ndk1::time_get_byname<char, std::__ndk1::istreambuf_iterator<char, std::__ndk1::char_traits<char> > >::~time_get_byname()
PUBLIC cbb58 0 std::__ndk1::time_get_byname<char, std::__ndk1::istreambuf_iterator<char, std::__ndk1::char_traits<char> > >::do_date_order() const
PUBLIC cbb64 0 std::__ndk1::time_get_byname<char, std::__ndk1::istreambuf_iterator<char, std::__ndk1::char_traits<char> > >::__weeks() const
PUBLIC cbb70 0 std::__ndk1::time_get_byname<char, std::__ndk1::istreambuf_iterator<char, std::__ndk1::char_traits<char> > >::__months() const
PUBLIC cbb7c 0 std::__ndk1::time_get_byname<char, std::__ndk1::istreambuf_iterator<char, std::__ndk1::char_traits<char> > >::__am_pm() const
PUBLIC cbb88 0 std::__ndk1::time_get_byname<char, std::__ndk1::istreambuf_iterator<char, std::__ndk1::char_traits<char> > >::__c() const
PUBLIC cbb94 0 std::__ndk1::time_get_byname<char, std::__ndk1::istreambuf_iterator<char, std::__ndk1::char_traits<char> > >::__r() const
PUBLIC cbba0 0 std::__ndk1::time_get_byname<char, std::__ndk1::istreambuf_iterator<char, std::__ndk1::char_traits<char> > >::__x() const
PUBLIC cbbac 0 std::__ndk1::time_get_byname<char, std::__ndk1::istreambuf_iterator<char, std::__ndk1::char_traits<char> > >::__X() const
PUBLIC cbbb8 0 {virtual override thunk({offset(-16)}, std::__ndk1::time_get_byname<char, std::__ndk1::istreambuf_iterator<char, std::__ndk1::char_traits<char> > >::__weeks() const)}
PUBLIC cbbc4 0 {virtual override thunk({offset(-16)}, std::__ndk1::time_get_byname<char, std::__ndk1::istreambuf_iterator<char, std::__ndk1::char_traits<char> > >::__months() const)}
PUBLIC cbbd0 0 {virtual override thunk({offset(-16)}, std::__ndk1::time_get_byname<char, std::__ndk1::istreambuf_iterator<char, std::__ndk1::char_traits<char> > >::__am_pm() const)}
PUBLIC cbbdc 0 {virtual override thunk({offset(-16)}, std::__ndk1::time_get_byname<char, std::__ndk1::istreambuf_iterator<char, std::__ndk1::char_traits<char> > >::__c() const)}
PUBLIC cbbe8 0 {virtual override thunk({offset(-16)}, std::__ndk1::time_get_byname<char, std::__ndk1::istreambuf_iterator<char, std::__ndk1::char_traits<char> > >::__r() const)}
PUBLIC cbbf4 0 {virtual override thunk({offset(-16)}, std::__ndk1::time_get_byname<char, std::__ndk1::istreambuf_iterator<char, std::__ndk1::char_traits<char> > >::__x() const)}
PUBLIC cbc00 0 {virtual override thunk({offset(-16)}, std::__ndk1::time_get_byname<char, std::__ndk1::istreambuf_iterator<char, std::__ndk1::char_traits<char> > >::__X() const)}
PUBLIC cbc0c 0 std::__ndk1::time_get_byname<wchar_t, std::__ndk1::istreambuf_iterator<wchar_t, std::__ndk1::char_traits<wchar_t> > >::~time_get_byname()
PUBLIC cbc3c 0 std::__ndk1::time_get_byname<wchar_t, std::__ndk1::istreambuf_iterator<wchar_t, std::__ndk1::char_traits<wchar_t> > >::~time_get_byname()
PUBLIC cbc74 0 std::__ndk1::time_get_byname<wchar_t, std::__ndk1::istreambuf_iterator<wchar_t, std::__ndk1::char_traits<wchar_t> > >::do_date_order() const
PUBLIC cbc80 0 std::__ndk1::time_get_byname<wchar_t, std::__ndk1::istreambuf_iterator<wchar_t, std::__ndk1::char_traits<wchar_t> > >::__weeks() const
PUBLIC cbc8c 0 std::__ndk1::time_get_byname<wchar_t, std::__ndk1::istreambuf_iterator<wchar_t, std::__ndk1::char_traits<wchar_t> > >::__months() const
PUBLIC cbc98 0 std::__ndk1::time_get_byname<wchar_t, std::__ndk1::istreambuf_iterator<wchar_t, std::__ndk1::char_traits<wchar_t> > >::__am_pm() const
PUBLIC cbca4 0 std::__ndk1::time_get_byname<wchar_t, std::__ndk1::istreambuf_iterator<wchar_t, std::__ndk1::char_traits<wchar_t> > >::__c() const
PUBLIC cbcb0 0 std::__ndk1::time_get_byname<wchar_t, std::__ndk1::istreambuf_iterator<wchar_t, std::__ndk1::char_traits<wchar_t> > >::__r() const
PUBLIC cbcbc 0 std::__ndk1::time_get_byname<wchar_t, std::__ndk1::istreambuf_iterator<wchar_t, std::__ndk1::char_traits<wchar_t> > >::__x() const
PUBLIC cbcc8 0 std::__ndk1::time_get_byname<wchar_t, std::__ndk1::istreambuf_iterator<wchar_t, std::__ndk1::char_traits<wchar_t> > >::__X() const
PUBLIC cbcd4 0 {virtual override thunk({offset(-16)}, std::__ndk1::time_get_byname<wchar_t, std::__ndk1::istreambuf_iterator<wchar_t, std::__ndk1::char_traits<wchar_t> > >::__weeks() const)}
PUBLIC cbce0 0 {virtual override thunk({offset(-16)}, std::__ndk1::time_get_byname<wchar_t, std::__ndk1::istreambuf_iterator<wchar_t, std::__ndk1::char_traits<wchar_t> > >::__months() const)}
PUBLIC cbcec 0 {virtual override thunk({offset(-16)}, std::__ndk1::time_get_byname<wchar_t, std::__ndk1::istreambuf_iterator<wchar_t, std::__ndk1::char_traits<wchar_t> > >::__am_pm() const)}
PUBLIC cbcf8 0 {virtual override thunk({offset(-16)}, std::__ndk1::time_get_byname<wchar_t, std::__ndk1::istreambuf_iterator<wchar_t, std::__ndk1::char_traits<wchar_t> > >::__c() const)}
PUBLIC cbd04 0 {virtual override thunk({offset(-16)}, std::__ndk1::time_get_byname<wchar_t, std::__ndk1::istreambuf_iterator<wchar_t, std::__ndk1::char_traits<wchar_t> > >::__r() const)}
PUBLIC cbd10 0 {virtual override thunk({offset(-16)}, std::__ndk1::time_get_byname<wchar_t, std::__ndk1::istreambuf_iterator<wchar_t, std::__ndk1::char_traits<wchar_t> > >::__x() const)}
PUBLIC cbd1c 0 {virtual override thunk({offset(-16)}, std::__ndk1::time_get_byname<wchar_t, std::__ndk1::istreambuf_iterator<wchar_t, std::__ndk1::char_traits<wchar_t> > >::__X() const)}
PUBLIC cbd28 0 std::__ndk1::time_put<char, std::__ndk1::ostreambuf_iterator<char, std::__ndk1::char_traits<char> > >::~time_put()
PUBLIC cbd60 0 std::__ndk1::time_put<wchar_t, std::__ndk1::ostreambuf_iterator<wchar_t, std::__ndk1::char_traits<wchar_t> > >::~time_put()
PUBLIC cbd90 0 std::__ndk1::time_put<wchar_t, std::__ndk1::ostreambuf_iterator<wchar_t, std::__ndk1::char_traits<wchar_t> > >::~time_put()
PUBLIC cbdc8 0 std::__ndk1::time_put<char, std::__ndk1::ostreambuf_iterator<char, std::__ndk1::char_traits<char> > >::~time_put()
PUBLIC cbdf8 0 std::__ndk1::time_put_byname<char, std::__ndk1::ostreambuf_iterator<char, std::__ndk1::char_traits<char> > >::~time_put_byname()
PUBLIC cbe30 0 std::__ndk1::time_put_byname<wchar_t, std::__ndk1::ostreambuf_iterator<wchar_t, std::__ndk1::char_traits<wchar_t> > >::~time_put_byname()
PUBLIC cbe68 0 std::__ndk1::moneypunct<char, false>::~moneypunct()
PUBLIC cbe94 0 std::__ndk1::moneypunct<char, true>::~moneypunct()
PUBLIC m cbec0 0 std::__ndk1::locale::facet::~facet()
PUBLIC cbec8 0 std::__ndk1::moneypunct<wchar_t, false>::~moneypunct()
PUBLIC cbef4 0 std::__ndk1::moneypunct<wchar_t, true>::~moneypunct()
PUBLIC cbf20 0 std::__ndk1::moneypunct_byname<char, false>::~moneypunct_byname()
PUBLIC cbfc4 0 std::__ndk1::moneypunct_byname<char, false>::~moneypunct_byname()
PUBLIC cc060 0 std::__ndk1::moneypunct_byname<char, true>::~moneypunct_byname()
PUBLIC cc104 0 std::__ndk1::moneypunct_byname<char, true>::~moneypunct_byname()
PUBLIC cc1a0 0 std::__ndk1::moneypunct_byname<wchar_t, false>::~moneypunct_byname()
PUBLIC cc244 0 std::__ndk1::moneypunct_byname<wchar_t, false>::~moneypunct_byname()
PUBLIC cc2e0 0 std::__ndk1::moneypunct_byname<wchar_t, true>::~moneypunct_byname()
PUBLIC cc384 0 std::__ndk1::moneypunct_byname<wchar_t, true>::~moneypunct_byname()
PUBLIC cc420 0 std::__ndk1::money_get<char, std::__ndk1::istreambuf_iterator<char, std::__ndk1::char_traits<char> > >::~money_get()
PUBLIC cc44c 0 std::__ndk1::money_get<wchar_t, std::__ndk1::istreambuf_iterator<wchar_t, std::__ndk1::char_traits<wchar_t> > >::~money_get()
PUBLIC cc478 0 std::__ndk1::money_put<char, std::__ndk1::ostreambuf_iterator<char, std::__ndk1::char_traits<char> > >::~money_put()
PUBLIC cc4a4 0 std::__ndk1::money_put<wchar_t, std::__ndk1::ostreambuf_iterator<wchar_t, std::__ndk1::char_traits<wchar_t> > >::~money_put()
PUBLIC cc4d0 0 std::__ndk1::messages<char>::~messages()
PUBLIC cc4fc 0 std::__ndk1::messages<wchar_t>::~messages()
PUBLIC cc528 0 std::__ndk1::messages_byname<char>::~messages_byname()
PUBLIC cc554 0 std::__ndk1::messages_byname<wchar_t>::~messages_byname()
PUBLIC cc580 0 std::__ndk1::__libcpp_locale_guard::~__libcpp_locale_guard[abi:v170000]()
PUBLIC cc5a8 0 std::__ndk1::__exception_guard<std::__ndk1::vector<std::__ndk1::locale::facet*, std::__ndk1::__sso_allocator<std::__ndk1::locale::facet*, (unsigned long)30> >::__destroy_vector>::~__exception_guard[abi:v170000]()
PUBLIC cc5e0 0 std::__ndk1::vector<std::__ndk1::locale::facet*, std::__ndk1::__sso_allocator<std::__ndk1::locale::facet*, (unsigned long)30> >::__throw_length_error[abi:v170000]() const
PUBLIC cc5f8 0 std::__ndk1::vector<std::__ndk1::locale::facet*, std::__ndk1::__sso_allocator<std::__ndk1::locale::facet*, (unsigned long)30> >::assign<std::__ndk1::locale::facet**, 0>(std::__ndk1::locale::facet**, std::__ndk1::locale::facet**)
PUBLIC cc870 0 std::__ndk1::vector<std::__ndk1::locale::facet*, std::__ndk1::__sso_allocator<std::__ndk1::locale::facet*, (unsigned long)30> >::__append(unsigned long)
PUBLIC cca40 0 __cxx_global_array_dtor
PUBLIC ccc4c 0 __cxx_global_array_dtor.84
PUBLIC cce58 0 __cxx_global_array_dtor.99
PUBLIC cd1cc 0 __cxx_global_array_dtor.123
PUBLIC cd540 0 __cxx_global_array_dtor.147
PUBLIC cd590 0 __cxx_global_array_dtor.150
PUBLIC cd5e0 0 std::__ndk1::time_put<char, std::__ndk1::ostreambuf_iterator<char, std::__ndk1::char_traits<char> > >::time_put[abi:v170000](std::__ndk1::basic_string<char, std::__ndk1::char_traits<char>, std::__ndk1::allocator<char> > const&, unsigned long)
PUBLIC cd6a0 0 std::__ndk1::time_put<wchar_t, std::__ndk1::ostreambuf_iterator<wchar_t, std::__ndk1::char_traits<wchar_t> > >::time_put[abi:v170000](std::__ndk1::basic_string<char, std::__ndk1::char_traits<char>, std::__ndk1::allocator<char> > const&, unsigned long)
PUBLIC cd760 0 std::__ndk1::__call_once_proxy[abi:v170000]<std::__ndk1::tuple<std::__ndk1::(anonymous namespace)::__fake_bind&&> >(void*)
PUBLIC cd788 0 std::__ndk1::__time_get_temp<char>::~__time_get_temp()
PUBLIC cd7f8 0 std::__ndk1::__time_get_temp<wchar_t>::~__time_get_temp()
PUBLIC cd844 0 std::__ndk1::basic_string<char, std::__ndk1::char_traits<char>, std::__ndk1::allocator<char> >::erase[abi:v170000](std::__ndk1::__wrap_iter<char const*>)
PUBLIC cd8e4 0 std::__ndk1::basic_string<wchar_t, std::__ndk1::char_traits<wchar_t>, std::__ndk1::allocator<wchar_t> >::erase[abi:v170000](std::__ndk1::__wrap_iter<wchar_t const*>)
PUBLIC cd990 0 std::__ndk1::__num_get_signed_integral[abi:v170000]<long>(char const*, char const, unsigned int&, int)
PUBLIC cdab8 0 std::__ndk1::__num_get_signed_integral[abi:v170000]<long long>(char const*, char const, unsigned int&, int)
PUBLIC cdbe0 0 std::__ndk1::__num_get_unsigned_integral[abi:v170000]<unsigned short>(char const*, char const, unsigned int&, int)
PUBLIC cdd34 0 std::__ndk1::__num_get_unsigned_integral[abi:v170000]<unsigned int>(char const*, char const, unsigned int&, int)
PUBLIC cde84 0 std::__ndk1::__num_get_unsigned_integral[abi:v170000]<unsigned long>(char const*, char const, unsigned int&, int)
PUBLIC cdfc8 0 std::__ndk1::__num_get_unsigned_integral[abi:v170000]<unsigned long long>(char const*, char const, unsigned int&, int)
PUBLIC ce10c 0 std::__ndk1::__num_get_float[abi:v170000]<float>(char const*, char const, unsigned int&)
PUBLIC ce238 0 std::__ndk1::__num_get_float[abi:v170000]<double>(char const*, char const, unsigned int&)
PUBLIC ce364 0 std::__ndk1::__num_get_float[abi:v170000]<long double>(char const*, char const, unsigned int&)
PUBLIC ce4ac 0 std::__ndk1::__time_get_storage<char>::~__time_get_storage[abi:v170000]()
PUBLIC ce8f8 0 std::__ndk1::__time_get_storage<wchar_t>::~__time_get_storage[abi:v170000]()
PUBLIC m ced44 0 std::__ndk1::__fs::filesystem::_FilesystemClock::now()
PUBLIC m cedac 0 std::__ndk1::__fs::filesystem::filesystem_error::~filesystem_error()
PUBLIC cee28 0 std::__ndk1::shared_ptr<std::__ndk1::__fs::filesystem::filesystem_error::_Storage>::~shared_ptr[abi:v170000]()
PUBLIC m cee84 0 std::__ndk1::__fs::filesystem::filesystem_error::~filesystem_error()
PUBLIC m ceeb0 0 std::__ndk1::__fs::filesystem::filesystem_error::__create_what(int)
PUBLIC m cefb4 0 std::__ndk1::__fs::filesystem::__absolute(std::__ndk1::__fs::filesystem::path const&, std::__ndk1::error_code*)
PUBLIC cf034 0 std::__ndk1::__fs::filesystem::__do_absolute(std::__ndk1::__fs::filesystem::path const&, std::__ndk1::__fs::filesystem::path*, std::__ndk1::error_code*)
PUBLIC m cf238 0 std::__ndk1::__fs::filesystem::__canonical(std::__ndk1::__fs::filesystem::path const&, std::__ndk1::error_code*)
PUBLIC cf3d4 0 std::__ndk1::__fs::filesystem::detail::(anonymous namespace)::ErrorHandler<std::__ndk1::__fs::filesystem::path>::report(std::__ndk1::error_code const&) const
PUBLIC m cf4c8 0 std::__ndk1::__fs::filesystem::__copy(std::__ndk1::__fs::filesystem::path const&, std::__ndk1::__fs::filesystem::path const&, std::__ndk1::__fs::filesystem::copy_options, std::__ndk1::error_code*)
PUBLIC cfce0 0 std::__ndk1::__fs::filesystem::detail::(anonymous namespace)::ErrorHandler<void>::report(std::__ndk1::error_code const&) const
PUBLIC cfdc8 0 std::__ndk1::__fs::filesystem::detail::(anonymous namespace)::ErrorHandler<void>::report(std::__ndk1::errc const&) const
PUBLIC m cfe10 0 std::__ndk1::__fs::filesystem::__copy_symlink(std::__ndk1::__fs::filesystem::path const&, std::__ndk1::__fs::filesystem::path const&, std::__ndk1::error_code*)
PUBLIC m cfe94 0 std::__ndk1::__fs::filesystem::__create_symlink(std::__ndk1::__fs::filesystem::path const&, std::__ndk1::__fs::filesystem::path const&, std::__ndk1::error_code*)
PUBLIC m cff50 0 std::__ndk1::__fs::filesystem::__create_hard_link(std::__ndk1::__fs::filesystem::path const&, std::__ndk1::__fs::filesystem::path const&, std::__ndk1::error_code*)
PUBLIC m d000c 0 std::__ndk1::__fs::filesystem::__copy_file(std::__ndk1::__fs::filesystem::path const&, std::__ndk1::__fs::filesystem::path const&, std::__ndk1::__fs::filesystem::copy_options, std::__ndk1::error_code*)
PUBLIC d03c4 0 std::__ndk1::__fs::filesystem::operator/[abi:v170000](std::__ndk1::__fs::filesystem::path const&, std::__ndk1::__fs::filesystem::path const)
PUBLIC d0490 0 std::__ndk1::__fs::filesystem::path::filename[abi:v170000]() const
PUBLIC m d0544 0 std::__ndk1::__fs::filesystem::__create_directory(std::__ndk1::__fs::filesystem::path const&, std::__ndk1::__fs::filesystem::path const&, std::__ndk1::error_code*)
PUBLIC d0784 0 std::__ndk1::__fs::filesystem::directory_iterator::~directory_iterator[abi:v170000]()
PUBLIC d07e0 0 std::__ndk1::__fs::filesystem::detail::(anonymous namespace)::ErrorHandler<bool>::report(std::__ndk1::error_code const&) const
PUBLIC d08c8 0 std::__ndk1::__fs::filesystem::detail::(anonymous namespace)::ErrorHandler<bool>::report(std::__ndk1::errc const&) const
PUBLIC d0910 0 std::__ndk1::__fs::filesystem::detail::(anonymous namespace)::FileDescriptor::create_with_status<int, unsigned int>(std::__ndk1::__fs::filesystem::path const*, std::__ndk1::error_code&, int, unsigned int)
PUBLIC d0a08 0 std::__ndk1::__fs::filesystem::detail::(anonymous namespace)::posix_fchmod(std::__ndk1::__fs::filesystem::detail::(anonymous namespace)::FileDescriptor const&, stat const&, std::__ndk1::error_code&)
PUBLIC d0a6c 0 std::__ndk1::__fs::filesystem::detail::(anonymous namespace)::posix_ftruncate(std::__ndk1::__fs::filesystem::detail::(anonymous namespace)::FileDescriptor const&, long, std::__ndk1::error_code&)
PUBLIC d0ad4 0 std::__ndk1::__fs::filesystem::detail::(anonymous namespace)::copy_file_impl(std::__ndk1::__fs::filesystem::detail::(anonymous namespace)::FileDescriptor&, std::__ndk1::__fs::filesystem::detail::(anonymous namespace)::FileDescriptor&, std::__ndk1::error_code&)
PUBLIC d0b64 0 std::__ndk1::__fs::filesystem::detail::(anonymous namespace)::FileDescriptor::~FileDescriptor()
PUBLIC m d0ba4 0 std::__ndk1::__fs::filesystem::__read_symlink(std::__ndk1::__fs::filesystem::path const&, std::__ndk1::error_code*)
PUBLIC m d0cbc 0 std::__ndk1::__fs::filesystem::__create_directories(std::__ndk1::__fs::filesystem::path const&, std::__ndk1::error_code*)
PUBLIC d1014 0 std::__ndk1::__fs::filesystem::operator==[abi:v170000](std::__ndk1::__fs::filesystem::path const&, std::__ndk1::__fs::filesystem::path const)
PUBLIC m d1050 0 std::__ndk1::__fs::filesystem::__create_directory(std::__ndk1::__fs::filesystem::path const&, std::__ndk1::error_code*)
PUBLIC d11c0 0 std::__ndk1::__fs::filesystem::detail::(anonymous namespace)::ErrorHandler<bool>::report(std::__ndk1::errc const&, char const*, ...) const
PUBLIC m d143c 0 std::__ndk1::__fs::filesystem::__create_directory_symlink(std::__ndk1::__fs::filesystem::path const&, std::__ndk1::__fs::filesystem::path const&, std::__ndk1::error_code*)
PUBLIC m d14f8 0 std::__ndk1::__fs::filesystem::__current_path(std::__ndk1::error_code*)
PUBLIC d1600 0 std::__ndk1::__fs::filesystem::detail::(anonymous namespace)::ErrorHandler<std::__ndk1::__fs::filesystem::path>::report(std::__ndk1::error_code const&, char const*, ...) const
PUBLIC m d16a0 0 std::__ndk1::__fs::filesystem::__current_path(std::__ndk1::__fs::filesystem::path const&, std::__ndk1::error_code*)
PUBLIC m d173c 0 std::__ndk1::__fs::filesystem::__equivalent(std::__ndk1::__fs::filesystem::path const&, std::__ndk1::__fs::filesystem::path const&, std::__ndk1::error_code*)
PUBLIC m d1ab4 0 std::__ndk1::__fs::filesystem::__file_size(std::__ndk1::__fs::filesystem::path const&, std::__ndk1::error_code*)
PUBLIC d1c04 0 std::__ndk1::__fs::filesystem::detail::(anonymous namespace)::ErrorHandler<unsigned long>::report(std::__ndk1::error_code const&) const
PUBLIC m d1cec 0 std::__ndk1::__fs::filesystem::__hard_link_count(std::__ndk1::__fs::filesystem::path const&, std::__ndk1::error_code*)
PUBLIC m d1e04 0 std::__ndk1::__fs::filesystem::__fs_is_empty(std::__ndk1::__fs::filesystem::path const&, std::__ndk1::error_code*)
PUBLIC m d1ffc 0 std::__ndk1::__fs::filesystem::__last_write_time(std::__ndk1::__fs::filesystem::path const&, std::__ndk1::error_code*)
PUBLIC m d220c 0 std::__ndk1::__fs::filesystem::__last_write_time(std::__ndk1::__fs::filesystem::path const&, std::__ndk1::chrono::time_point<std::__ndk1::__fs::filesystem::_FilesystemClock, std::__ndk1::chrono::duration<__int128, std::__ndk1::ratio<(long)1, (long)1000000000> > >, std::__ndk1::error_code*)
PUBLIC m d23cc 0 std::__ndk1::__fs::filesystem::__permissions(std::__ndk1::__fs::filesystem::path const&, std::__ndk1::__fs::filesystem::perms, std::__ndk1::__fs::filesystem::perm_options, std::__ndk1::error_code*)
PUBLIC m d25d0 0 std::__ndk1::__fs::filesystem::__remove(std::__ndk1::__fs::filesystem::path const&, std::__ndk1::error_code*)
PUBLIC m d266c 0 std::__ndk1::__fs::filesystem::__remove_all(std::__ndk1::__fs::filesystem::path const&, std::__ndk1::error_code*)
PUBLIC d26f0 0 std::__ndk1::__fs::filesystem::(anonymous namespace)::remove_all_impl(int, std::__ndk1::__fs::filesystem::path const&, std::__ndk1::error_code&)
PUBLIC m d2a38 0 std::__ndk1::__fs::filesystem::__rename(std::__ndk1::__fs::filesystem::path const&, std::__ndk1::__fs::filesystem::path const&, std::__ndk1::error_code*)
PUBLIC m d2af4 0 std::__ndk1::__fs::filesystem::__resize_file(std::__ndk1::__fs::filesystem::path const&, unsigned long, std::__ndk1::error_code*)
PUBLIC m d2ba4 0 std::__ndk1::__fs::filesystem::__space(std::__ndk1::__fs::filesystem::path const&, std::__ndk1::error_code*)
PUBLIC m d2cec 0 std::__ndk1::__fs::filesystem::__status(std::__ndk1::__fs::filesystem::path const&, std::__ndk1::error_code*)
PUBLIC m d2d80 0 std::__ndk1::__fs::filesystem::__symlink_status(std::__ndk1::__fs::filesystem::path const&, std::__ndk1::error_code*)
PUBLIC m d2e14 0 std::__ndk1::__fs::filesystem::__temp_directory_path(std::__ndk1::error_code*)
PUBLIC d302c 0 std::__ndk1::__fs::filesystem::detail::(anonymous namespace)::ErrorHandler<std::__ndk1::__fs::filesystem::path>::report(std::__ndk1::errc const&, char const*, ...) const
PUBLIC m d30f4 0 std::__ndk1::__fs::filesystem::__weakly_canonical(std::__ndk1::__fs::filesystem::path const&, std::__ndk1::error_code*)
PUBLIC d3718 0 std::__ndk1::__fs::filesystem::(anonymous namespace)::parser::PathParser::operator--()
PUBLIC m d392c 0 std::__ndk1::__fs::filesystem::path::lexically_normal() const
PUBLIC m d3fb4 0 std::__ndk1::__fs::filesystem::path::replace_extension(std::__ndk1::__fs::filesystem::path const&)
PUBLIC d40e4 0 std::__ndk1::__fs::filesystem::path::extension[abi:v170000]() const
PUBLIC m d4240 0 std::__ndk1::__fs::filesystem::path::__root_name() const
PUBLIC m d42a4 0 std::__ndk1::__fs::filesystem::path::__root_directory() const
PUBLIC m d4350 0 std::__ndk1::__fs::filesystem::path::__root_path_raw() const
PUBLIC m d4438 0 std::__ndk1::__fs::filesystem::path::__relative_path() const
PUBLIC m d44e0 0 std::__ndk1::__fs::filesystem::path::__parent_path() const
PUBLIC m d45c0 0 std::__ndk1::__fs::filesystem::path::__filename() const
PUBLIC m d46ec 0 std::__ndk1::__fs::filesystem::path::__stem() const
PUBLIC m d47ac 0 std::__ndk1::__fs::filesystem::path::__extension() const
PUBLIC m d487c 0 std::__ndk1::__fs::filesystem::path::lexically_relative(std::__ndk1::__fs::filesystem::path const&) const
PUBLIC m d4df4 0 std::__ndk1::__fs::filesystem::path::__compare(std::__ndk1::basic_string_view<char, std::__ndk1::char_traits<char> >) const
PUBLIC m d5110 0 std::__ndk1::__fs::filesystem::hash_value(std::__ndk1::__fs::filesystem::path const&)
PUBLIC m d5248 0 std::__ndk1::__fs::filesystem::path::begin() const
PUBLIC m d53a0 0 std::__ndk1::__fs::filesystem::path::end() const
PUBLIC m d53c0 0 std::__ndk1::__fs::filesystem::path::iterator::__increment()
PUBLIC m d5524 0 std::__ndk1::__fs::filesystem::path::iterator::__decrement()
PUBLIC m d5688 0 std::__ndk1::__fs::filesystem::directory_entry::__do_refresh()
PUBLIC d5a60 0 std::__ndk1::__fs::filesystem::filesystem_error::what() const
PUBLIC d5a80 0 std::__ndk1::__fs::filesystem::detail::(anonymous namespace)::format_string(char const*, ...)
PUBLIC d5b40 0 std::__ndk1::__fs::filesystem::detail::(anonymous namespace)::format_string_impl(char const*, std::__va_list)
PUBLIC d5c20 0 std::__ndk1::basic_string<char, std::__ndk1::char_traits<char>, std::__ndk1::allocator<char> >::__resize_default_init[abi:v170000](unsigned long)
PUBLIC d5db8 0 std::__ndk1::__fs::filesystem::detail::(anonymous namespace)::create_file_status(std::__ndk1::error_code&, std::__ndk1::__fs::filesystem::path const&, stat const&, std::__ndk1::error_code*)
PUBLIC d5eb4 0 std::__ndk1::__fs::filesystem::detail::(anonymous namespace)::ErrorHandler<void>::report(std::__ndk1::error_code const&, char const*, ...) const
PUBLIC d612c 0 std::__ndk1::operator+[abi:v170000]<char, std::__ndk1::char_traits<char>, std::__ndk1::allocator<char> >(std::__ndk1::allocator<char>&&, std::__ndk1::basic_string<char, std::__ndk1::char_traits<char>, std::__ndk1::allocator<char> >)
PUBLIC d6184 0 std::__ndk1::operator+[abi:v170000]<char, std::__ndk1::char_traits<char>, std::__ndk1::allocator<char> >(std::__ndk1::allocator<char>&&, std::__ndk1::basic_string const*)
PUBLIC d61e8 0 std::__ndk1::__fs::filesystem::__throw_filesystem_error[abi:v170000]<std::__ndk1::basic_string<char, std::__ndk1::char_traits<char>, std::__ndk1::allocator<char> >&, std::__ndk1::error_code const&>(std::__ndk1::basic_string<char, std::__ndk1::char_traits<char>, std::__ndk1::allocator<char> >&, std::__ndk1::error_code const&)
PUBLIC d6248 0 std::__ndk1::__fs::filesystem::__throw_filesystem_error[abi:v170000]<std::__ndk1::basic_string<char, std::__ndk1::char_traits<char>, std::__ndk1::allocator<char> >&, std::__ndk1::__fs::filesystem::path const&, std::__ndk1::error_code const&>(std::__ndk1::basic_string<char, std::__ndk1::char_traits<char>, std::__ndk1::allocator<char> >&, std::__ndk1::__fs::filesystem::path const&, std::__ndk1::error_code const&)
PUBLIC d62b0 0 std::__ndk1::__fs::filesystem::__throw_filesystem_error[abi:v170000]<std::__ndk1::basic_string<char, std::__ndk1::char_traits<char>, std::__ndk1::allocator<char> >&, std::__ndk1::__fs::filesystem::path const&, std::__ndk1::__fs::filesystem::path const, std::__ndk1::error_code const&>(std::__ndk1::basic_string<char, std::__ndk1::char_traits<char>, std::__ndk1::allocator<char> >&, std::__ndk1::__fs::filesystem::path const&, std::__ndk1::__fs::filesystem::path const, std::__ndk1::error_code const&)
PUBLIC d6324 0 std::__ndk1::__fs::filesystem::filesystem_error::filesystem_error[abi:v170000](std::__ndk1::basic_string<char, std::__ndk1::char_traits<char>, std::__ndk1::allocator<char> > const&, std::__ndk1::error_code)
PUBLIC d64b4 0 std::__ndk1::__shared_ptr_emplace<std::__ndk1::__fs::filesystem::filesystem_error::_Storage, std::__ndk1::allocator<std::__ndk1::__fs::filesystem::filesystem_error::_Storage> >::~__shared_ptr_emplace()
PUBLIC d64c8 0 std::__ndk1::__shared_ptr_emplace<std::__ndk1::__fs::filesystem::filesystem_error::_Storage, std::__ndk1::allocator<std::__ndk1::__fs::filesystem::filesystem_error::_Storage> >::~__shared_ptr_emplace()
PUBLIC d6500 0 std::__ndk1::__shared_ptr_emplace<std::__ndk1::__fs::filesystem::filesystem_error::_Storage, std::__ndk1::allocator<std::__ndk1::__fs::filesystem::filesystem_error::_Storage> >::__on_zero_shared()
PUBLIC d6570 0 std::__ndk1::__shared_ptr_emplace<std::__ndk1::__fs::filesystem::filesystem_error::_Storage, std::__ndk1::allocator<std::__ndk1::__fs::filesystem::filesystem_error::_Storage> >::__on_zero_shared_weak()
PUBLIC d6578 0 std::__ndk1::__fs::filesystem::filesystem_error::_Storage::_Storage[abi:v170000](std::__ndk1::__fs::filesystem::path const&, std::__ndk1::__fs::filesystem::path const)
PUBLIC d66b8 0 std::__ndk1::__fs::filesystem::filesystem_error::filesystem_error[abi:v170000](std::__ndk1::basic_string<char, std::__ndk1::char_traits<char>, std::__ndk1::allocator<char> > const&, std::__ndk1::__fs::filesystem::path const&, std::__ndk1::error_code)
PUBLIC d6810 0 std::__ndk1::__fs::filesystem::filesystem_error::filesystem_error[abi:v170000](std::__ndk1::basic_string<char, std::__ndk1::char_traits<char>, std::__ndk1::allocator<char> > const&, std::__ndk1::__fs::filesystem::path const&, std::__ndk1::__fs::filesystem::path const, std::__ndk1::error_code)
PUBLIC d6954 0 std::__ndk1::__fs::filesystem::path::operator/=[abi:v170000](std::__ndk1::__fs::filesystem::path const&)
PUBLIC d6a40 0 std::__ndk1::basic_string<char, std::__ndk1::char_traits<char>, std::__ndk1::allocator<char> >::append[abi:v170000]<char const*>(std::__ndk1::enable_if, std::__ndk1::enable_if)
PUBLIC d6cf8 0 std::__ndk1::vector<std::__ndk1::basic_string_view<char, std::__ndk1::char_traits<char> >, std::__ndk1::allocator<std::__ndk1::basic_string_view<char, std::__ndk1::char_traits<char> > > >::__throw_length_error[abi:v170000]() const
PUBLIC d6d10 0 std::__ndk1::__fs::filesystem::(anonymous namespace)::parser::PathParser::increment()
PUBLIC d6f58 0 std::__ndk1::vector<std::__ndk1::pair<std::__ndk1::basic_string_view<char, std::__ndk1::char_traits<char> >, std::__ndk1::__fs::filesystem::PathPartKind>, std::__ndk1::allocator<std::__ndk1::pair<std::__ndk1::basic_string_view<char, std::__ndk1::char_traits<char> >, std::__ndk1::__fs::filesystem::PathPartKind> > >::__throw_length_error[abi:v170000]() const
PUBLIC d6f70 0 std::__ndk1::__murmur2_or_cityhash<unsigned long, (unsigned long)64>::operator()(void const*, unsigned long)
PUBLIC d742c 0 std::__ndk1::__fs::filesystem::detail::(anonymous namespace)::FileDescriptor::refresh_status(std::__ndk1::error_code&)
PUBLIC d7560 0 std::__ndk1::__fs::filesystem::detail::(anonymous namespace)::ErrorHandler<std::__ndk1::__fs::filesystem::path>::report_impl(std::__ndk1::error_code const&, char const*, std::__va_list) const
PUBLIC m d7758 0 std::__ndk1::__fs::filesystem::directory_iterator::directory_iterator(std::__ndk1::__fs::filesystem::path const&, std::__ndk1::error_code*, std::__ndk1::__fs::filesystem::directory_options)
PUBLIC d78d4 0 std::__ndk1::shared_ptr<std::__ndk1::__fs::filesystem::__dir_stream>::~shared_ptr[abi:v170000]()
PUBLIC d7930 0 std::__ndk1::__fs::filesystem::detail::(anonymous namespace)::ErrorHandler<void>::report(std::__ndk1::error_code const&) const
PUBLIC m d7a18 0 std::__ndk1::__fs::filesystem::directory_iterator::__increment(std::__ndk1::error_code*)
PUBLIC d7b48 0 std::__ndk1::__fs::filesystem::__dir_stream::advance(std::__ndk1::error_code&)
PUBLIC d7d70 0 std::__ndk1::__fs::filesystem::detail::(anonymous namespace)::ErrorHandler<void>::report(std::__ndk1::error_code const&, char const*, ...) const
PUBLIC m d7fe8 0 std::__ndk1::__fs::filesystem::directory_iterator::__dereference() const
PUBLIC m d7ff8 0 std::__ndk1::__fs::filesystem::recursive_directory_iterator::recursive_directory_iterator(std::__ndk1::__fs::filesystem::path const&, std::__ndk1::__fs::filesystem::directory_options, std::__ndk1::error_code*)
PUBLIC d8278 0 std::__ndk1::__fs::filesystem::__dir_stream::__dir_stream(std::__ndk1::__fs::filesystem::path const&, std::__ndk1::__fs::filesystem::directory_options, std::__ndk1::error_code&)
PUBLIC d83ec 0 std::__ndk1::shared_ptr<std::__ndk1::__fs::filesystem::recursive_directory_iterator::__shared_imp>::~shared_ptr[abi:v170000]()
PUBLIC d8448 0 std::__ndk1::__fs::filesystem::__dir_stream::~__dir_stream()
PUBLIC m d84c4 0 std::__ndk1::__fs::filesystem::recursive_directory_iterator::__pop(std::__ndk1::error_code*)
PUBLIC m d8568 0 std::__ndk1::__fs::filesystem::recursive_directory_iterator::__advance(std::__ndk1::error_code*)
PUBLIC m d87b0 0 std::__ndk1::__fs::filesystem::recursive_directory_iterator::options() const
PUBLIC m d87c0 0 std::__ndk1::__fs::filesystem::recursive_directory_iterator::depth() const
PUBLIC m d87d4 0 std::__ndk1::__fs::filesystem::recursive_directory_iterator::__dereference() const
PUBLIC m d8824 0 std::__ndk1::__fs::filesystem::recursive_directory_iterator::__increment(std::__ndk1::error_code*)
PUBLIC m d88ac 0 std::__ndk1::__fs::filesystem::recursive_directory_iterator::__try_recursion(std::__ndk1::error_code*)
PUBLIC d8cd8 0 std::__ndk1::__shared_ptr_emplace<std::__ndk1::__fs::filesystem::__dir_stream, std::__ndk1::allocator<std::__ndk1::__fs::filesystem::__dir_stream> >::~__shared_ptr_emplace()
PUBLIC d8cec 0 std::__ndk1::__shared_ptr_emplace<std::__ndk1::__fs::filesystem::__dir_stream, std::__ndk1::allocator<std::__ndk1::__fs::filesystem::__dir_stream> >::~__shared_ptr_emplace()
PUBLIC d8d24 0 std::__ndk1::__shared_ptr_emplace<std::__ndk1::__fs::filesystem::__dir_stream, std::__ndk1::allocator<std::__ndk1::__fs::filesystem::__dir_stream> >::__on_zero_shared()
PUBLIC d8da0 0 std::__ndk1::__shared_ptr_emplace<std::__ndk1::__fs::filesystem::__dir_stream, std::__ndk1::allocator<std::__ndk1::__fs::filesystem::__dir_stream> >::__on_zero_shared_weak()
PUBLIC d8da8 0 std::__ndk1::__fs::filesystem::detail::(anonymous namespace)::format_string_impl(char const*, std::__va_list)
PUBLIC d8e88 0 std::__ndk1::__shared_ptr_emplace<std::__ndk1::__fs::filesystem::recursive_directory_iterator::__shared_imp, std::__ndk1::allocator<std::__ndk1::__fs::filesystem::recursive_directory_iterator::__shared_imp> >::~__shared_ptr_emplace()
PUBLIC d8e9c 0 std::__ndk1::__shared_ptr_emplace<std::__ndk1::__fs::filesystem::recursive_directory_iterator::__shared_imp, std::__ndk1::allocator<std::__ndk1::__fs::filesystem::recursive_directory_iterator::__shared_imp> >::~__shared_ptr_emplace()
PUBLIC d8ed4 0 std::__ndk1::__shared_ptr_emplace<std::__ndk1::__fs::filesystem::recursive_directory_iterator::__shared_imp, std::__ndk1::allocator<std::__ndk1::__fs::filesystem::recursive_directory_iterator::__shared_imp> >::__on_zero_shared()
PUBLIC d8f64 0 std::__ndk1::__shared_ptr_emplace<std::__ndk1::__fs::filesystem::recursive_directory_iterator::__shared_imp, std::__ndk1::allocator<std::__ndk1::__fs::filesystem::recursive_directory_iterator::__shared_imp> >::__on_zero_shared_weak()
PUBLIC d8f6c 0 std::__ndk1::deque<std::__ndk1::__fs::filesystem::__dir_stream, std::__ndk1::allocator<std::__ndk1::__fs::filesystem::__dir_stream> >::clear()
PUBLIC d9108 0 std::__ndk1::deque<std::__ndk1::__fs::filesystem::__dir_stream, std::__ndk1::allocator<std::__ndk1::__fs::filesystem::__dir_stream> >::__add_back_capacity()
PUBLIC d968c 0 std::__ndk1::__split_buffer<std::__ndk1::__fs::filesystem::__dir_stream*, std::__ndk1::allocator<std::__ndk1::__fs::filesystem::__dir_stream*> >::push_back(std::__ndk1::__fs::filesystem::__dir_stream*&&)
PUBLIC d9818 0 std::__ndk1::__split_buffer<std::__ndk1::__fs::filesystem::__dir_stream*, std::__ndk1::allocator<std::__ndk1::__fs::filesystem::__dir_stream*> >::push_front(std::__ndk1::__fs::filesystem::__dir_stream*&&)
PUBLIC d99b0 0 std::__ndk1::deque<std::__ndk1::__fs::filesystem::__dir_stream, std::__ndk1::allocator<std::__ndk1::__fs::filesystem::__dir_stream> >::pop_back()
PUBLIC m d9ad0 0 std::bad_array_new_length::~bad_array_new_length()
PUBLIC m d9ad8 0 std::exception::~exception()
PUBLIC m d9b04 0 std::exception::what() const
PUBLIC m d9b14 0 std::bad_exception::~bad_exception()
PUBLIC m d9b40 0 std::bad_exception::what() const
PUBLIC m d9b50 0 std::bad_alloc::bad_alloc()
PUBLIC m d9b68 0 std::bad_alloc::~bad_alloc()
PUBLIC m d9b94 0 std::bad_alloc::what() const
PUBLIC m d9ba4 0 std::bad_array_new_length::bad_array_new_length()
PUBLIC m d9bbc 0 std::bad_array_new_length::~bad_array_new_length()
PUBLIC m d9be8 0 std::bad_array_new_length::what() const
PUBLIC m d9bf8 0 std::length_error::~length_error()
PUBLIC m d9c64 0 std::logic_error::~logic_error()
PUBLIC m d9c90 0 std::logic_error::what() const
PUBLIC m d9c9c 0 std::runtime_error::~runtime_error()
PUBLIC m d9d08 0 std::runtime_error::~runtime_error()
PUBLIC m d9d34 0 std::runtime_error::what() const
PUBLIC m d9d40 0 std::domain_error::~domain_error()
PUBLIC m d9d6c 0 std::invalid_argument::~invalid_argument()
PUBLIC m d9d98 0 std::length_error::~length_error()
PUBLIC m d9dc4 0 std::out_of_range::~out_of_range()
PUBLIC m d9df0 0 std::range_error::~range_error()
PUBLIC m d9e1c 0 std::overflow_error::~overflow_error()
PUBLIC m d9e48 0 std::underflow_error::~underflow_error()
PUBLIC m d9e74 0 std::type_info::~type_info()
PUBLIC m d9e7c 0 std::type_info::~type_info()
PUBLIC m d9ea8 0 std::bad_cast::bad_cast()
PUBLIC m d9ec0 0 std::bad_cast::~bad_cast()
PUBLIC m d9ec8 0 std::bad_cast::~bad_cast()
PUBLIC m d9ef4 0 std::bad_cast::what() const
PUBLIC m d9f04 0 std::bad_typeid::bad_typeid()
PUBLIC m d9f1c 0 std::bad_typeid::~bad_typeid()
PUBLIC m d9f24 0 std::bad_typeid::~bad_typeid()
PUBLIC m d9f50 0 std::bad_typeid::what() const
PUBLIC d9f60 0 __cxxabiv1::__getExceptionClass(_Unwind_Exception const*)
PUBLIC d9f6c 0 __cxxabiv1::__isOurExceptionClass(_Unwind_Exception const*)
PUBLIC m d9f90 0 __cxa_allocate_exception
PUBLIC m d9fe4 0 __cxa_begin_catch
PUBLIC m da090 0 __cxa_free_exception
PUBLIC m da0b4 0 __cxa_allocate_dependent_exception
PUBLIC m da0f0 0 __cxa_free_dependent_exception
PUBLIC m da0f8 0 __cxa_throw
PUBLIC da17c 0 __cxxabiv1::exception_cleanup_func(_Unwind_Reason_Code, _Unwind_Exception*)
PUBLIC da1e4 0 __cxxabiv1::failed_throw(__cxxabiv1::__cxa_exception*)
PUBLIC m da208 0 __cxa_get_exception_ptr
PUBLIC m da214 0 __cxa_end_catch
PUBLIC m da314 0 __cxa_decrement_exception_refcount
PUBLIC m da370 0 __cxa_current_exception_type
PUBLIC m da3c8 0 __cxa_rethrow
PUBLIC m da4ac 0 __cxa_increment_exception_refcount
PUBLIC m da4d8 0 __cxa_current_primary_exception
PUBLIC m da568 0 __cxa_rethrow_primary_exception
PUBLIC da698 0 __cxxabiv1::dependent_exception_cleanup(_Unwind_Reason_Code, _Unwind_Exception*)
PUBLIC m da70c 0 __cxa_uncaught_exception
PUBLIC m da754 0 __cxa_uncaught_exceptions
PUBLIC da77c 0 __cxxabiv1::__aligned_malloc_with_fallback(unsigned long)
PUBLIC da7d8 0 (anonymous namespace)::fallback_malloc(unsigned long)
PUBLIC da974 0 __cxxabiv1::__aligned_free_with_fallback(void*)
PUBLIC m daab4 0 std::get_unexpected()
PUBLIC m daac8 0 std::terminate()
PUBLIC dab08 0 std::__unexpected(void (*)())
PUBLIC m dab24 0 std::unexpected()
PUBLIC m dab40 0 std::get_terminate()
PUBLIC dab54 0 std::__terminate(void (*)())
PUBLIC m dab84 0 std::get_new_handler()
PUBLIC dab98 0 demangling_terminate_handler()
PUBLIC dace8 0 demangling_unexpected_handler()
PUBLIC m dad08 0 std::set_unexpected(void (*)())
PUBLIC m dad3c 0 std::set_terminate(void (*)())
PUBLIC m dad70 0 std::set_new_handler(void (*)())
PUBLIC dad94 0 demangle(char const*)::$_0::__invoke(char const*)
PUBLIC dad9c 0 demangle(char const*)::$_1::__invoke(char const*)
PUBLIC dada4 0 abort_message
PUBLIC m daeac 0 __cxa_thread_atexit
PUBLIC db000 0 __cxxabiv1::(anonymous namespace)::DtorsManager::DtorsManager()
PUBLIC db03c 0 __cxxabiv1::(anonymous namespace)::DtorsManager::~DtorsManager()
PUBLIC db0a8 0 __cxxabiv1::(anonymous namespace)::run_dtors(void*)
PUBLIC db110 0 __divti3
PUBLIC db168 0 __udivmodti4
PUBLIC m db39c 0 __emutls_get_address
PUBLIC db568 0 __emutls_unregister_key
PUBLIC db5a0 0 emutls_init
PUBLIC db5dc 0 emutls_key_destructor
PUBLIC db670 0 __aarch64_cas8_acq_rel
PUBLIC db6a4 0 init_have_lse_atomics
PUBLIC db73c 0 init_cpu_features_resolver
PUBLIC dbb74 0 init_cpu_features
PUBLIC dbc10 0 __aarch64_swp8_acq_rel
PUBLIC dbc40 0 __aarch64_ldadd4_acq_rel
PUBLIC dbc70 0 __aarch64_ldadd8_relax
PUBLIC dbca0 0 __aarch64_ldadd8_acq_rel
PUBLIC dbcd0 0 __cxx_global_var_init
PUBLIC dc244 0 geode::modifier::ModifyBase<geode::modifier::ModifyDerive<hook13<(anonymous namespace)::hook13Parent>, SetGroupIDLayer> >::~ModifyBase()
PUBLIC dc260 0 geode::modifier::ModifyDerive<hook13<(anonymous namespace)::hook13Parent>, SetGroupIDLayer>::apply()
PUBLIC dc66c 0 std::__ndk1::shared_ptr<geode::Hook>::~shared_ptr[abi:v170000]()
PUBLIC dc6bc 0 geode::modifier::ModifyBase<geode::modifier::ModifyDerive<hook13<(anonymous namespace)::hook13Parent>, SetGroupIDLayer> >::apply()
PUBLIC dc6c0 0 std::__ndk1::basic_string<char, std::__ndk1::char_traits<char>, std::__ndk1::allocator<char> >::__throw_length_error[abi:v170000]() const
PUBLIC dc6d4 0 std::__ndk1::__throw_length_error[abi:v170000](char const*)
PUBLIC dc724 0 std::length_error::length_error[abi:v170000](char const*)
PUBLIC dc754 0 std::__throw_bad_array_new_length([abi:v170000], void)
PUBLIC dc788 0 std::__ndk1::vector<std::__ndk1::basic_string<char, std::__ndk1::char_traits<char>, std::__ndk1::allocator<char> >, std::__ndk1::allocator<std::__ndk1::basic_string<char, std::__ndk1::char_traits<char>, std::__ndk1::allocator<char> > > >::__push_back_slow_path<std::__ndk1::basic_string<char, std::__ndk1::char_traits<char>, std::__ndk1::allocator<char> > const&>(std::__ndk1::basic_string<char, std::__ndk1::char_traits<char>, std::__ndk1::allocator<char> > const&)
PUBLIC dca14 0 std::__ndk1::__split_buffer<std::__ndk1::basic_string<char, std::__ndk1::char_traits<char>, std::__ndk1::allocator<char> >, std::__ndk1::allocator<std::__ndk1::basic_string<char, std::__ndk1::char_traits<char>, std::__ndk1::allocator<char> > >&>::~__split_buffer()
PUBLIC dca7c 0 std::__ndk1::vector<std::__ndk1::basic_string<char, std::__ndk1::char_traits<char>, std::__ndk1::allocator<char> >, std::__ndk1::allocator<std::__ndk1::basic_string<char, std::__ndk1::char_traits<char>, std::__ndk1::allocator<char> > > >::__throw_length_error[abi:v170000]() const
PUBLIC dca90 0 std::__ndk1::__tree<std::__ndk1::__value_type<std::__ndk1::basic_string<char, std::__ndk1::char_traits<char>, std::__ndk1::allocator<char> >, std::__ndk1::shared_ptr<geode::Hook> >, std::__ndk1::__map_value_compare<std::__ndk1::basic_string<char, std::__ndk1::char_traits<char>, std::__ndk1::allocator<char> >, std::__ndk1::__value_type<std::__ndk1::basic_string<char, std::__ndk1::char_traits<char>, std::__ndk1::allocator<char> >, std::__ndk1::shared_ptr<geode::Hook> >, std::__ndk1::less<std::__ndk1::basic_string<char, std::__ndk1::char_traits<char>, std::__ndk1::allocator<char> > >, true>, std::__ndk1::allocator<std::__ndk1::__value_type<std::__ndk1::basic_string<char, std::__ndk1::char_traits<char>, std::__ndk1::allocator<char> >, std::__ndk1::shared_ptr<geode::Hook> > > >::find<std::__ndk1::basic_string<char, std::__ndk1::char_traits<char>, std::__ndk1::allocator<char> > >(std::__ndk1::basic_string<char, std::__ndk1::char_traits<char>, std::__ndk1::allocator<char> > const&)
PUBLIC dcb9c 0 std::__ndk1::__tree<std::__ndk1::__value_type<std::__ndk1::basic_string<char, std::__ndk1::char_traits<char>, std::__ndk1::allocator<char> >, std::__ndk1::shared_ptr<geode::Hook> >, std::__ndk1::__map_value_compare<std::__ndk1::basic_string<char, std::__ndk1::char_traits<char>, std::__ndk1::allocator<char> >, std::__ndk1::__value_type<std::__ndk1::basic_string<char, std::__ndk1::char_traits<char>, std::__ndk1::allocator<char> >, std::__ndk1::shared_ptr<geode::Hook> >, std::__ndk1::less<std::__ndk1::basic_string<char, std::__ndk1::char_traits<char>, std::__ndk1::allocator<char> > >, true>, std::__ndk1::allocator<std::__ndk1::__value_type<std::__ndk1::basic_string<char, std::__ndk1::char_traits<char>, std::__ndk1::allocator<char> >, std::__ndk1::shared_ptr<geode::Hook> > > >::erase(std::__ndk1::__tree_const_iterator<std::__ndk1::__value_type<std::__ndk1::basic_string<char, std::__ndk1::char_traits<char>, std::__ndk1::allocator<char> >, std::__ndk1::shared_ptr<geode::Hook> >, std::__ndk1::__tree_node<std::__ndk1::__value_type<std::__ndk1::basic_string<char, std::__ndk1::char_traits<char>, std::__ndk1::allocator<char> >, std::__ndk1::shared_ptr<geode::Hook> >, void*>*, long>)
PUBLIC dcc70 0 std::__ndk1::__tree_remove[abi:v170000]<std::__ndk1::__tree_node_base<void*>*>(std::__ndk1::__tree_node_base<void*>*, std::__ndk1::__tree_node_base<void*>*)
PUBLIC dd038 0 std::__ndk1::__tree<std::__ndk1::__value_type<std::__ndk1::basic_string<char, std::__ndk1::char_traits<char>, std::__ndk1::allocator<char> >, std::__ndk1::shared_ptr<geode::Hook> >, std::__ndk1::__map_value_compare<std::__ndk1::basic_string<char, std::__ndk1::char_traits<char>, std::__ndk1::allocator<char> >, std::__ndk1::__value_type<std::__ndk1::basic_string<char, std::__ndk1::char_traits<char>, std::__ndk1::allocator<char> >, std::__ndk1::shared_ptr<geode::Hook> >, std::__ndk1::less<std::__ndk1::basic_string<char, std::__ndk1::char_traits<char>, std::__ndk1::allocator<char> > >, true>, std::__ndk1::allocator<std::__ndk1::__value_type<std::__ndk1::basic_string<char, std::__ndk1::char_traits<char>, std::__ndk1::allocator<char> >, std::__ndk1::shared_ptr<geode::Hook> > > >::destroy(std::__ndk1::__tree_node<std::__ndk1::__value_type<std::__ndk1::basic_string<char, std::__ndk1::char_traits<char>, std::__ndk1::allocator<char> >, std::__ndk1::shared_ptr<geode::Hook> >, void*>*)
PUBLIC dd0c4 0 geode::modifier::AsStaticFunction_init<hook13<(anonymous namespace)::hook13Parent>, bool (hook13<(anonymous namespace)::hook13Parent>::*)(GameObject*, cocos2d::CCArray*)>::Impl<bool (hook13<(anonymous namespace)::hook13Parent>::*)(GameObject*, cocos2d::CCArray*)>::function(hook13<(anonymous namespace)::hook13Parent>*, GameObject*, cocos2d::CCArray*)
PUBLIC dd2d8 0 std::__ndk1::shared_ptr<tulip::hook::CallingConvention>::~shared_ptr[abi:v170000]()
PUBLIC dd328 0 tulip::hook::HandlerMetadata::~HandlerMetadata()
PUBLIC dd38c 0 CustomNextFreeLayer::onNextFreePlus(cocos2d::CCObject*)
PUBLIC dd494 0 cocos2d::CCCopying::copyWithZone(cocos2d::CCZone*)
PUBLIC dd49c 0 CustomNextFreeLayer::~CustomNextFreeLayer()
PUBLIC dd518 0 CustomNextFreeLayer::init()
PUBLIC ddab4 0 cocos2d::CCLayerRGBA::setOpacityModifyRGB(bool)
PUBLIC ddab8 0 cocos2d::CCLayerRGBA::isOpacityModifyRGB()
PUBLIC ddac0 0 {virtual override thunk({offset(-320)}, CustomNextFreeLayer::~CustomNextFreeLayer())}
PUBLIC ddb34 0 {virtual override thunk({offset(-320)}, CustomNextFreeLayer::~CustomNextFreeLayer())}
PUBLIC ddbb0 0 cocos2d::CCKeyboardDelegate::keyUp(cocos2d::enumKeyCodes)
PUBLIC ddbb4 0 cocos2d::CCMouseDelegate::rightKeyDown()
PUBLIC ddbb8 0 cocos2d::CCMouseDelegate::rightKeyUp()
PUBLIC ddbbc 0 cocos2d::CCMouseDelegate::scrollWheel(float, float)
PUBLIC ddbc0 0 {virtual override thunk({offset(-408)}, cocos2d::CCLayerRGBA::setOpacityModifyRGB(bool))}
PUBLIC ddbc4 0 {virtual override thunk({offset(-408)}, cocos2d::CCLayerRGBA::isOpacityModifyRGB())}
PUBLIC ddbcc 0 CustomNextFreeLayer::createWindow()
PUBLIC ddcf4 0 CustomNextFreeLayer::onClose(cocos2d::CCObject*)
PUBLIC ddf38 0 geode::Mod::getSavedValue<int>(std::__ndk1::basic_string_view<char, std::__ndk1::char_traits<char> >, int const&)
PUBLIC de058 0 std::__ndk1::basic_stringstream<char, std::__ndk1::char_traits<char>, std::__ndk1::allocator<char> >::~basic_stringstream()
PUBLIC de0e4 0 geode::Mod::setSavedValue<int>(std::__ndk1::basic_string_view<char, std::__ndk1::char_traits<char> >, int const&)
PUBLIC de1fc 0 std::__ndk1::basic_stringstream<char, std::__ndk1::char_traits<char>, std::__ndk1::allocator<char> >::~basic_stringstream()
PUBLIC de290 0 {virtual override thunk({offset(-16)}, std::__ndk1::basic_stringstream<char, std::__ndk1::char_traits<char>, std::__ndk1::allocator<char> >::~basic_stringstream())}
PUBLIC de31c 0 {virtual override thunk({offset(-16)}, std::__ndk1::basic_stringstream<char, std::__ndk1::char_traits<char>, std::__ndk1::allocator<char> >::~basic_stringstream())}
PUBLIC de3b0 0 {virtual override thunk({virtual offset(0, -24)}, std::__ndk1::basic_stringstream<char, std::__ndk1::char_traits<char>, std::__ndk1::allocator<char> >::~basic_stringstream())}
PUBLIC de444 0 {virtual override thunk({virtual offset(0, -24)}, std::__ndk1::basic_stringstream<char, std::__ndk1::char_traits<char>, std::__ndk1::allocator<char> >::~basic_stringstream())}
PUBLIC de4e0 0 std::__ndk1::basic_stringbuf<char, std::__ndk1::char_traits<char>, std::__ndk1::allocator<char> >::~basic_stringbuf()
PUBLIC de520 0 std::__ndk1::basic_stringbuf<char, std::__ndk1::char_traits<char>, std::__ndk1::allocator<char> >::~basic_stringbuf()
PUBLIC de568 0 std::__ndk1::basic_stringbuf<char, std::__ndk1::char_traits<char>, std::__ndk1::allocator<char> >::seekoff(long long, std::__ndk1::ios_base::seekdir, unsigned int)
PUBLIC de68c 0 std::__ndk1::basic_stringbuf<char, std::__ndk1::char_traits<char>, std::__ndk1::allocator<char> >::seekpos(std::__ndk1::fpos<mbstate_t>, unsigned int)
PUBLIC de6a0 0 std::__ndk1::basic_stringbuf<char, std::__ndk1::char_traits<char>, std::__ndk1::allocator<char> >::underflow()
PUBLIC de6f0 0 std::__ndk1::basic_stringbuf<char, std::__ndk1::char_traits<char>, std::__ndk1::allocator<char> >::pbackfail(int)
PUBLIC de760 0 std::__ndk1::basic_stringbuf<char, std::__ndk1::char_traits<char>, std::__ndk1::allocator<char> >::overflow(int)
PUBLIC de944 0 std::__ndk1::basic_stringbuf<char, std::__ndk1::char_traits<char>, std::__ndk1::allocator<char> >::str() const
PUBLIC deb58 0 std::__ndk1::__tree<std::__ndk1::__value_type<std::__ndk1::basic_string<char, std::__ndk1::char_traits<char>, std::__ndk1::allocator<char> >, std::__ndk1::shared_ptr<geode::Hook> >, std::__ndk1::__map_value_compare<std::__ndk1::basic_string<char, std::__ndk1::char_traits<char>, std::__ndk1::allocator<char> >, std::__ndk1::__value_type<std::__ndk1::basic_string<char, std::__ndk1::char_traits<char>, std::__ndk1::allocator<char> >, std::__ndk1::shared_ptr<geode::Hook> >, std::__ndk1::less<std::__ndk1::basic_string<char, std::__ndk1::char_traits<char>, std::__ndk1::allocator<char> > >, true>, std::__ndk1::allocator<std::__ndk1::__value_type<std::__ndk1::basic_string<char, std::__ndk1::char_traits<char>, std::__ndk1::allocator<char> >, std::__ndk1::shared_ptr<geode::Hook> > > >::__find_equal<std::__ndk1::basic_string<char, std::__ndk1::char_traits<char>, std::__ndk1::allocator<char> > >(std::__ndk1::__tree_end_node<std::__ndk1::__tree_node_base<void*>*>*&, std::__ndk1::basic_string<char, std::__ndk1::char_traits<char>, std::__ndk1::allocator<char> > const&)
PUBLIC dec5c 0 std::__ndk1::__tree_balance_after_insert[abi:v170000]<std::__ndk1::__tree_node_base<void*>*>(std::__ndk1::__tree_node_base<void*>*, std::__ndk1::__tree_node_base<void*>*)
PUBLIC dee10 0 __cxx_global_var_init
PUBLIC df384 0 geode::modifier::ModifyBase<geode::modifier::ModifyDerive<hook13<(anonymous namespace)::hook13Parent>, SetGroupIDLayer> >::~ModifyBase()
PUBLIC df3a0 0 __cxx_global_var_init.1
PUBLIC df948 0 geode::modifier::ModifyBase<geode::modifier::ModifyDerive<CustomLevelEditorLayer, LevelEditorLayer> >::~ModifyBase()
PUBLIC df964 0 geode::modifier::ModifyDerive<hook13<(anonymous namespace)::hook13Parent>, SetGroupIDLayer>::apply()
PUBLIC dfd70 0 geode::modifier::ModifyBase<geode::modifier::ModifyDerive<hook13<(anonymous namespace)::hook13Parent>, SetGroupIDLayer> >::apply()
PUBLIC dfd74 0 geode::modifier::AsStaticFunction_init<hook13<(anonymous namespace)::hook13Parent>, bool (hook13<(anonymous namespace)::hook13Parent>::*)(GameObject*, cocos2d::CCArray*)>::Impl<bool (hook13<(anonymous namespace)::hook13Parent>::*)(GameObject*, cocos2d::CCArray*)>::function(hook13<(anonymous namespace)::hook13Parent>*, GameObject*, cocos2d::CCArray*)
PUBLIC dff88 0 geode::modifier::ModifyDerive<CustomLevelEditorLayer, LevelEditorLayer>::apply()
PUBLIC e0370 0 geode::modifier::ModifyBase<geode::modifier::ModifyDerive<CustomLevelEditorLayer, LevelEditorLayer> >::apply()
PUBLIC e0374 0 geode::modifier::AsStaticFunction_getNextFreeGroupID<CustomLevelEditorLayer, int (CustomLevelEditorLayer::*)(cocos2d::CCArray*)>::Impl<int (CustomLevelEditorLayer::*)(cocos2d::CCArray*)>::function(CustomLevelEditorLayer*, cocos2d::CCArray*)
PUBLIC e07fc 0 std::__ndk1::__throw_out_of_range[abi:v170000](char const*)
PUBLIC e084c 0 std::out_of_range::out_of_range[abi:v170000](char const*)
PUBLIC e087c 0 std::__ndk1::__tree<short, std::__ndk1::less<short>, std::__ndk1::allocator<short> >::destroy(std::__ndk1::__tree_node<short, void*>*)
PUBLIC m e08b4 0 geodeImplicitEntry
PUBLIC e08f0 0 cocos2d::CCDestructor::~CCDestructor()
PUBLIC e0ba4 0 __clang_call_terminate
PUBLIC e0bb4 0 wrapFunction(unsigned long, tulip::hook::WrapperMetadata const&)
PUBLIC e0cf0 0 tulip::hook::Result<void*, std::__ndk1::basic_string<char, std::__ndk1::char_traits<char>, std::__ndk1::allocator<char> > >::unwrapErr() &
PUBLIC e0dac 0 tulip::hook::Result<void*, std::__ndk1::basic_string<char, std::__ndk1::char_traits<char>, std::__ndk1::allocator<char> > >::unwrap() &
PUBLIC e0eac 0 tulip::hook::WrapperMetadata::~WrapperMetadata()
PUBLIC e0f10 0 cocos2d::CCNode::~CCNode()
PUBLIC e0f34 0 {virtual override thunk({offset(-320)}, cocos2d::CCLayer::~CCLayer())}
PUBLIC e0f3c 0 cocos2d::CCLayer::~CCLayer()
PUBLIC e0f60 0 {virtual override thunk({offset(-320)}, cocos2d::CCLayer::~CCLayer())}
PUBLIC e0f88 0 cocos2d::CCObject::~CCObject()
PUBLIC e0fac 0 cocos2d::CCLayerColor::CCLayerColor()
PUBLIC e15dc 0 cocos2d::CCLayerRGBA::~CCLayerRGBA()
PUBLIC e18a0 0 {virtual override thunk({offset(-320)}, cocos2d::CCLayerColor::~CCLayerColor())}
PUBLIC e18a8 0 cocos2d::CCLayerColor::~CCLayerColor()
PUBLIC e18cc 0 {virtual override thunk({offset(-320)}, cocos2d::CCLayerColor::~CCLayerColor())}
PUBLIC e18f4 0 {virtual override thunk({offset(-320)}, cocos2d::CCLayerRGBA::~CCLayerRGBA())}
PUBLIC e18fc 0 cocos2d::CCLayerRGBA::~CCLayerRGBA()
PUBLIC e1920 0 {virtual override thunk({offset(-320)}, cocos2d::CCLayerRGBA::~CCLayerRGBA())}
PUBLIC e1948 0 {virtual override thunk({offset(-320)}, FLAlertLayer::~FLAlertLayer())}
PUBLIC e19bc 0 FLAlertLayer::~FLAlertLayer()
PUBLIC e1a38 0 {virtual override thunk({offset(-320)}, FLAlertLayer::~FLAlertLayer())}
PUBLIC e1ab4 0 CCTextInputNode::setString(gd::string)
PUBLIC e1c2c 0 tulip::hook::AbstractFunction::from<void, CCTextInputNode*, gd::string>(void (*)(CCTextInputNode*, gd::string))
PUBLIC e1ccc 0 cocos2d::CCNode::~CCNode()
PUBLIC e1f30 0 cocos2d::CCObject::update(float)
PUBLIC e1f34 0 cocos2d::CCLayerColor::~CCLayerColor()
PUBLIC e21dc 0 FLAlertLayer::~FLAlertLayer()
PUBLIC e2250 0 cocos2d::CCLayer::~CCLayer()
PUBLIC e2504 0 cocos2d::CCObject::~CCObject()
PUBLIC e2730 0 tulip::hook::lib::bitwizeshift::bad_result_access<std::__ndk1::basic_string<char, std::__ndk1::char_traits<char>, std::__ndk1::allocator<char> > >::~bad_result_access()
PUBLIC e276c 0 tulip::hook::lib::bitwizeshift::bad_result_access<std::__ndk1::basic_string<char, std::__ndk1::char_traits<char>, std::__ndk1::allocator<char> > >::~bad_result_access()
PUBLIC e27b0 0 std::__ndk1::__hash_table<std::__ndk1::__hash_value_type<void*, bool>, std::__ndk1::__unordered_map_hasher<void*, std::__ndk1::__hash_value_type<void*, bool>, std::__ndk1::hash<void*>, std::__ndk1::equal_to<void*>, true>, std::__ndk1::__unordered_map_equal<void*, std::__ndk1::__hash_value_type<void*, bool>, std::__ndk1::equal_to<void*>, std::__ndk1::hash<void*>, true>, std::__ndk1::allocator<std::__ndk1::__hash_value_type<void*, bool> > >::__emplace_unique_key_args<void*, std::__ndk1::piecewise_construct_t const&, std::__ndk1::tuple<void* const&>, std::__ndk1::tuple<> >(void* const&, std::__ndk1::piecewise_construct_t const&, std::__ndk1::tuple<void* const&>, std::__ndk1::tuple<>)
PUBLIC e2ca0 0 <.plt ELF section in relative.mininextfree.android64.so>
STACK CFI INIT 67f10 10 .cfa: sp 0 +
STACK CFI INIT 67f20 8 .cfa: sp 0 +
STACK CFI INIT 67f28 8 .cfa: sp 0 +
STACK CFI INIT 67f30 14 .cfa: sp 0 +
STACK CFI INIT 67f44 1c .cfa: sp 0 +
STACK CFI INIT 67f60 10 .cfa: sp 0 +
STACK CFI INIT 67f70 24 .cfa: sp 0 +
STACK CFI INIT 67f94 718 .cfa: sp 0 +
STACK CFI INIT 686ac 28 .cfa: sp 0 +
STACK CFI INIT 686d4 6e8 .cfa: sp 0 +
STACK CFI INIT 68dbc 24 .cfa: sp 0 +
STACK CFI INIT 68de0 718 .cfa: sp 0 +
STACK CFI INIT 694f8 24 .cfa: sp 0 +
STACK CFI INIT 6951c 718 .cfa: sp 0 +
STACK CFI INIT 69c34 28 .cfa: sp 0 +
STACK CFI INIT 69c5c 71c .cfa: sp 0 +
STACK CFI INIT 6a378 28 .cfa: sp 0 +
STACK CFI INIT 6a3a0 71c .cfa: sp 0 +
STACK CFI INIT 6aabc 28 .cfa: sp 0 +
STACK CFI INIT 6aae4 6e8 .cfa: sp 0 +
STACK CFI INIT 6b1cc 28 .cfa: sp 0 +
STACK CFI INIT 6b1f4 6e8 .cfa: sp 0 +
STACK CFI INIT 6b8dc 28 .cfa: sp 0 +
STACK CFI INIT 6b904 6e8 .cfa: sp 0 +
STACK CFI INIT 6bfec 28 .cfa: sp 0 +
STACK CFI INIT 6c014 6e8 .cfa: sp 0 +
STACK CFI INIT 6c6fc 28 .cfa: sp 0 +
STACK CFI INIT 6c724 6e8 .cfa: sp 0 +
STACK CFI INIT 6ce0c 28 .cfa: sp 0 +
STACK CFI INIT 6ce34 6e8 .cfa: sp 0 +
STACK CFI INIT 6d51c 28 .cfa: sp 0 +
STACK CFI INIT 6d544 6f8 .cfa: sp 0 +
STACK CFI INIT 6dc3c 28 .cfa: sp 0 +
STACK CFI INIT 6dc64 6f8 .cfa: sp 0 +
STACK CFI INIT 6e35c 28 .cfa: sp 0 +
STACK CFI INIT 6e384 b3c .cfa: sp 0 +
STACK CFI INIT 6eec0 314 .cfa: sp 0 +
STACK CFI INIT 6f1d4 2e0 .cfa: sp 0 +
STACK CFI INIT 6f4b4 314 .cfa: sp 0 +
STACK CFI INIT 6f7c8 314 .cfa: sp 0 +
STACK CFI INIT 6fadc 318 .cfa: sp 0 +
STACK CFI INIT 6fdf4 318 .cfa: sp 0 +
STACK CFI INIT 7010c 2e0 .cfa: sp 0 +
STACK CFI INIT 703ec 2e0 .cfa: sp 0 +
STACK CFI INIT 706cc 2e0 .cfa: sp 0 +
STACK CFI INIT 709ac 2e0 .cfa: sp 0 +
STACK CFI INIT 70c8c 2e0 .cfa: sp 0 +
STACK CFI INIT 70f6c 2e0 .cfa: sp 0 +
STACK CFI INIT 7124c 2e8 .cfa: sp 0 +
STACK CFI INIT 71534 2e8 .cfa: sp 0 +
STACK CFI INIT 7181c 460 .cfa: sp 0 +
STACK CFI INIT 71c7c 2f0 .cfa: sp 0 +
STACK CFI INIT 71f6c e4c .cfa: sp 0 +
STACK CFI 71f74 .cfa: sp 384 +
STACK CFI 71f88 x29: .cfa -16 + ^ v8: .cfa -24 + ^ v9: .cfa -32 + ^ v10: .cfa -40 + ^ v11: .cfa -48 + ^ v12: .cfa -56 + ^ v13: .cfa -64 + ^ v14: .cfa -72 + ^ v15: .cfa -80 + ^
STACK CFI 72d70 .cfa: sp 0 +
STACK CFI 72d74 .cfa: sp 384 +
STACK CFI INIT 72db8 348 .cfa: sp 0 +
STACK CFI INIT 73100 ab8 .cfa: sp 0 +
STACK CFI 73108 .cfa: sp 160 +
STACK CFI 73118 v8: .cfa -8 + ^ v9: .cfa -16 + ^ v10: .cfa -24 + ^ v11: .cfa -32 + ^ v12: .cfa -40 + ^ v13: .cfa -48 + ^ v14: .cfa -56 + ^ v15: .cfa -64 + ^
STACK CFI 73bb4 .cfa: sp 0 +
STACK CFI INIT 73bb8 36c .cfa: sp 0 +
STACK CFI INIT 73f24 e4c .cfa: sp 0 +
STACK CFI 73f2c .cfa: sp 384 +
STACK CFI 73f40 x29: .cfa -16 + ^ v8: .cfa -24 + ^ v9: .cfa -32 + ^ v10: .cfa -40 + ^ v11: .cfa -48 + ^ v12: .cfa -56 + ^ v13: .cfa -64 + ^ v14: .cfa -72 + ^ v15: .cfa -80 + ^
STACK CFI 74d28 .cfa: sp 0 +
STACK CFI 74d2c .cfa: sp 384 +
STACK CFI INIT 74d70 348 .cfa: sp 0 +
STACK CFI INIT 750b8 e4c .cfa: sp 0 +
STACK CFI 750c0 .cfa: sp 384 +
STACK CFI 750d4 x29: .cfa -16 + ^ v8: .cfa -24 + ^ v9: .cfa -32 + ^ v10: .cfa -40 + ^ v11: .cfa -48 + ^ v12: .cfa -56 + ^ v13: .cfa -64 + ^ v14: .cfa -72 + ^ v15: .cfa -80 + ^
STACK CFI 75ebc .cfa: sp 0 +
STACK CFI 75ec0 .cfa: sp 384 +
STACK CFI INIT 75f04 348 .cfa: sp 0 +
STACK CFI INIT 7624c bd8 .cfa: sp 0 +
STACK CFI 76254 .cfa: sp 240 +
STACK CFI 76264 v8: .cfa -8 + ^ v9: .cfa -16 + ^ v10: .cfa -24 + ^ v11: .cfa -32 + ^ v12: .cfa -40 + ^ v13: .cfa -48 + ^ v14: .cfa -56 + ^ v15: .cfa -64 + ^
STACK CFI 76e20 .cfa: sp 0 +
STACK CFI INIT 76e24 37c .cfa: sp 0 +
STACK CFI INIT 771a0 bd8 .cfa: sp 0 +
STACK CFI 771a8 .cfa: sp 240 +
STACK CFI 771b8 v8: .cfa -8 + ^ v9: .cfa -16 + ^ v10: .cfa -24 + ^ v11: .cfa -32 + ^ v12: .cfa -40 + ^ v13: .cfa -48 + ^ v14: .cfa -56 + ^ v15: .cfa -64 + ^
STACK CFI 77d74 .cfa: sp 0 +
STACK CFI INIT 77d78 37c .cfa: sp 0 +
STACK CFI INIT 780f4 ab8 .cfa: sp 0 +
STACK CFI 780fc .cfa: sp 160 +
STACK CFI 7810c v8: .cfa -8 + ^ v9: .cfa -16 + ^ v10: .cfa -24 + ^ v11: .cfa -32 + ^ v12: .cfa -40 + ^ v13: .cfa -48 + ^ v14: .cfa -56 + ^ v15: .cfa -64 + ^
STACK CFI 78ba8 .cfa: sp 0 +
STACK CFI INIT 78bac 36c .cfa: sp 0 +
STACK CFI INIT 78f18 ab8 .cfa: sp 0 +
STACK CFI 78f20 .cfa: sp 160 +
STACK CFI 78f30 v8: .cfa -8 + ^ v9: .cfa -16 + ^ v10: .cfa -24 + ^ v11: .cfa -32 + ^ v12: .cfa -40 + ^ v13: .cfa -48 + ^ v14: .cfa -56 + ^ v15: .cfa -64 + ^
STACK CFI 799cc .cfa: sp 0 +
STACK CFI INIT 799d0 36c .cfa: sp 0 +
STACK CFI INIT 79d3c a18 .cfa: sp 0 +
STACK CFI 79d44 .cfa: sp 128 +
STACK CFI 79d54 v8: .cfa -8 + ^ v9: .cfa -16 + ^ v10: .cfa -24 + ^ v11: .cfa -32 + ^ v12: .cfa -40 + ^ v13: .cfa -48 + ^ v14: .cfa -56 + ^ v15: .cfa -64 + ^
STACK CFI 7a70c .cfa: sp 0 +
STACK CFI 7a710 .cfa: sp 128 +
STACK CFI INIT 7a754 36c .cfa: sp 0 +
STACK CFI INIT 7aac0 a18 .cfa: sp 0 +
STACK CFI 7aac8 .cfa: sp 128 +
STACK CFI 7aad8 v8: .cfa -8 + ^ v9: .cfa -16 + ^ v10: .cfa -24 + ^ v11: .cfa -32 + ^ v12: .cfa -40 + ^ v13: .cfa -48 + ^ v14: .cfa -56 + ^ v15: .cfa -64 + ^
STACK CFI 7b490 .cfa: sp 0 +
STACK CFI 7b494 .cfa: sp 128 +
STACK CFI INIT 7b4d8 36c .cfa: sp 0 +
STACK CFI INIT 7b844 a2c .cfa: sp 0 +
STACK CFI 7b84c .cfa: sp 128 +
STACK CFI 7b85c v8: .cfa -8 + ^ v9: .cfa -16 + ^ v10: .cfa -24 + ^ v11: .cfa -32 + ^ v12: .cfa -40 + ^ v13: .cfa -48 + ^ v14: .cfa -56 + ^ v15: .cfa -64 + ^
STACK CFI 7c26c .cfa: sp 0 +
STACK CFI INIT 7c270 36c .cfa: sp 0 +
STACK CFI INIT 7c5dc a2c .cfa: sp 0 +
STACK CFI 7c5e4 .cfa: sp 128 +
STACK CFI 7c5f4 v8: .cfa -8 + ^ v9: .cfa -16 + ^ v10: .cfa -24 + ^ v11: .cfa -32 + ^ v12: .cfa -40 + ^ v13: .cfa -48 + ^ v14: .cfa -56 + ^ v15: .cfa -64 + ^
STACK CFI 7d004 .cfa: sp 0 +
STACK CFI INIT 7d008 36c .cfa: sp 0 +
STACK CFI INIT 7d374 b10 .cfa: sp 0 +
STACK CFI 7d37c .cfa: sp 176 +
STACK CFI 7d38c v8: .cfa -8 + ^ v9: .cfa -16 + ^ v10: .cfa -24 + ^ v11: .cfa -32 + ^ v12: .cfa -40 + ^ v13: .cfa -48 + ^ v14: .cfa -56 + ^ v15: .cfa -64 + ^
STACK CFI 7de80 .cfa: sp 0 +
STACK CFI INIT 7de84 34c .cfa: sp 0 +
STACK CFI INIT 7e1d0 afc .cfa: sp 0 +
STACK CFI 7e1d8 .cfa: sp 144 +
STACK CFI 7e1e8 v8: .cfa -8 + ^ v9: .cfa -16 + ^ v10: .cfa -24 + ^ v11: .cfa -32 + ^ v12: .cfa -40 + ^ v13: .cfa -48 + ^ v14: .cfa -56 + ^ v15: .cfa -64 + ^
STACK CFI 7ecc8 .cfa: sp 0 +
STACK CFI INIT 7eccc 34c .cfa: sp 0 +
STACK CFI INIT 7f018 470 .cfa: sp 0 +
STACK CFI INIT 7f500 28 .cfa: sp 0 +
STACK CFI INIT 7f528 14 .cfa: sp 0 +
STACK CFI INIT 7f5b4 738 .cfa: sp 0 +
STACK CFI INIT 7fd40 38 .cfa: sp 0 +
STACK CFI INIT 7fd78 8 .cfa: sp 0 +
STACK CFI INIT 7fd80 2c .cfa: sp 0 +
STACK CFI INIT 7fdac 10 .cfa: sp 0 +
STACK CFI INIT 7fdbc 8 .cfa: sp 0 +
STACK CFI INIT 7fdc4 8 .cfa: sp 0 +
STACK CFI INIT 7fdcc 8 .cfa: sp 0 +
STACK CFI INIT 7fdd4 24 .cfa: sp 0 +
STACK CFI INIT 7fdf8 68 .cfa: sp 0 +
STACK CFI INIT 7fe60 24 .cfa: sp 0 +
STACK CFI INIT 7fe84 24 .cfa: sp 0 +
STACK CFI INIT 7fea8 7c .cfa: sp 0 +
STACK CFI INIT 7ff24 58 .cfa: sp 0 +
STACK CFI INIT 7ff7c 60 .cfa: sp 0 +
STACK CFI INIT 7ffdc c .cfa: sp 0 +
STACK CFI INIT 80030 54 .cfa: sp 0 +
STACK CFI INIT 80084 54 .cfa: sp 0 +
STACK CFI INIT 800d8 2c .cfa: sp 0 +
STACK CFI INIT 8014c a4 .cfa: sp 0 +
STACK CFI INIT 80210 2c .cfa: sp 0 +
STACK CFI INIT 80284 1c .cfa: sp 0 +
STACK CFI INIT 80468 1c .cfa: sp 0 +
STACK CFI INIT 809dc 8 .cfa: sp 0 +
STACK CFI INIT 809e4 2c .cfa: sp 0 +
STACK CFI INIT 80a10 10 .cfa: sp 0 +
STACK CFI INIT 80a20 8 .cfa: sp 0 +
STACK CFI INIT 80a28 2c .cfa: sp 0 +
STACK CFI INIT 80b70 38 .cfa: sp 0 +
STACK CFI INIT 80ba8 70 .cfa: sp 0 +
STACK CFI INIT 80d34 38 .cfa: sp 0 +
STACK CFI INIT 80d6c 70 .cfa: sp 0 +
STACK CFI INIT 80ddc 2ac .cfa: sp 0 +
STACK CFI INIT 81088 18 .cfa: sp 0 +
STACK CFI INIT 810a0 14c .cfa: sp 0 +
STACK CFI INIT 811ec cc .cfa: sp 0 +
STACK CFI INIT 812b8 88 .cfa: sp 0 +
STACK CFI INIT 81340 a8 .cfa: sp 0 +
STACK CFI INIT 813e8 54 .cfa: sp 0 +
STACK CFI INIT 8143c a8 .cfa: sp 0 +
STACK CFI INIT 814e4 b8 .cfa: sp 0 +
STACK CFI INIT 8159c 18 .cfa: sp 0 +
STACK CFI INIT 815b4 a0 .cfa: sp 0 +
STACK CFI INIT 81654 1b8 .cfa: sp 0 +
STACK CFI INIT 8180c 128 .cfa: sp 0 +
STACK CFI INIT 81934 3c .cfa: sp 0 +
STACK CFI INIT 81970 88 .cfa: sp 0 +
STACK CFI INIT 819f8 48 .cfa: sp 0 +
STACK CFI INIT 81a40 1f8 .cfa: sp 0 +
STACK CFI INIT 81c38 7c .cfa: sp 0 +
STACK CFI INIT 81cb4 1f4 .cfa: sp 0 +
STACK CFI INIT 81ea8 8 .cfa: sp 0 +
STACK CFI INIT 81eb0 144 .cfa: sp 0 +
STACK CFI INIT 81ff4 88 .cfa: sp 0 +
STACK CFI INIT 82190 18c .cfa: sp 0 +
STACK CFI INIT 8231c 54 .cfa: sp 0 +
STACK CFI INIT 82370 6c .cfa: sp 0 +
STACK CFI INIT 823dc d0 .cfa: sp 0 +
STACK CFI INIT 824ac 78 .cfa: sp 0 +
STACK CFI INIT 82524 a0 .cfa: sp 0 +
STACK CFI INIT 825c4 4c .cfa: sp 0 +
STACK CFI INIT 82610 9c .cfa: sp 0 +
STACK CFI INIT 826ac 118 .cfa: sp 0 +
STACK CFI INIT 827c4 188 .cfa: sp 0 +
STACK CFI INIT 8294c 50 .cfa: sp 0 +
STACK CFI INIT 8299c 140 .cfa: sp 0 +
STACK CFI INIT 82adc d4 .cfa: sp 0 +
STACK CFI INIT 82bb0 50 .cfa: sp 0 +
STACK CFI INIT 82ca8 98 .cfa: sp 0 +
STACK CFI INIT 82d40 cc .cfa: sp 0 +
STACK CFI INIT 82e0c 48 .cfa: sp 0 +
STACK CFI INIT 82e54 3c .cfa: sp 0 +
STACK CFI INIT 82e90 c8 .cfa: sp 0 +
STACK CFI INIT 82f58 b8 .cfa: sp 0 +
STACK CFI INIT 83010 1d0 .cfa: sp 0 +
STACK CFI INIT 831e0 3c .cfa: sp 0 +
STACK CFI INIT 8321c 50 .cfa: sp 0 +
STACK CFI INIT 8326c 1c0 .cfa: sp 0 +
STACK CFI INIT 8342c 4c .cfa: sp 0 +
STACK CFI INIT 83478 50 .cfa: sp 0 +
STACK CFI INIT 834c8 1d4 .cfa: sp 0 +
STACK CFI INIT 8369c 18 .cfa: sp 0 +
STACK CFI INIT 836b4 170 .cfa: sp 0 +
STACK CFI INIT 83824 dc .cfa: sp 0 +
STACK CFI INIT 83900 a4 .cfa: sp 0 +
STACK CFI INIT 839a4 18 .cfa: sp 0 +
STACK CFI INIT 839bc c4 .cfa: sp 0 +
STACK CFI INIT 83a80 54 .cfa: sp 0 +
STACK CFI INIT 83ad4 c4 .cfa: sp 0 +
STACK CFI INIT 83b98 b0 .cfa: sp 0 +
STACK CFI INIT 83c48 18 .cfa: sp 0 +
STACK CFI INIT 83c60 b0 .cfa: sp 0 +
STACK CFI INIT 83d10 204 .cfa: sp 0 +
STACK CFI INIT 83f14 12c .cfa: sp 0 +
STACK CFI INIT 84040 34 .cfa: sp 0 +
STACK CFI INIT 84074 a4 .cfa: sp 0 +
STACK CFI INIT 84118 4c .cfa: sp 0 +
STACK CFI INIT 84164 124 .cfa: sp 0 +
STACK CFI INIT 84288 84 .cfa: sp 0 +
STACK CFI INIT 8430c 244 .cfa: sp 0 +
STACK CFI INIT 84550 d8 .cfa: sp 0 +
STACK CFI INIT 84628 8c .cfa: sp 0 +
STACK CFI INIT 847fc ec .cfa: sp 0 +
STACK CFI INIT 848e8 10c .cfa: sp 0 +
STACK CFI INIT 849f4 70 .cfa: sp 0 +
STACK CFI INIT 84a64 f0 .cfa: sp 0 +
STACK CFI INIT 84b54 7c .cfa: sp 0 +
STACK CFI INIT 84bd0 f0 .cfa: sp 0 +
STACK CFI INIT 84cc0 4c .cfa: sp 0 +
STACK CFI INIT 84d0c a0 .cfa: sp 0 +
STACK CFI INIT 84dac 128 .cfa: sp 0 +
STACK CFI INIT 84ed4 1c0 .cfa: sp 0 +
STACK CFI INIT 85094 58 .cfa: sp 0 +
STACK CFI INIT 850ec 17c .cfa: sp 0 +
STACK CFI INIT 85268 dc .cfa: sp 0 +
STACK CFI INIT 85344 124 .cfa: sp 0 +
STACK CFI INIT 85514 9c .cfa: sp 0 +
STACK CFI INIT 855b0 d0 .cfa: sp 0 +
STACK CFI INIT 85680 4c .cfa: sp 0 +
STACK CFI INIT 856cc e0 .cfa: sp 0 +
STACK CFI INIT 857ac d8 .cfa: sp 0 +
STACK CFI INIT 85884 d4 .cfa: sp 0 +
STACK CFI INIT 85958 170 .cfa: sp 0 +
STACK CFI INIT 85ac8 e8 .cfa: sp 0 +
STACK CFI INIT 85bb0 54 .cfa: sp 0 +
STACK CFI INIT 85c04 1c8 .cfa: sp 0 +
STACK CFI INIT 85dcc 4c .cfa: sp 0 +
STACK CFI INIT 85e18 54 .cfa: sp 0 +
STACK CFI INIT 85e6c e8 .cfa: sp 0 +
STACK CFI INIT 85f54 18 .cfa: sp 0 +
STACK CFI INIT 85f6c 18 .cfa: sp 0 +
STACK CFI INIT 86dfc 130 .cfa: sp 0 +
STACK CFI INIT 86f2c 210 .cfa: sp 0 +
STACK CFI INIT 8713c 210 .cfa: sp 0 +
STACK CFI INIT 8734c bc .cfa: sp 0 +
STACK CFI INIT 87408 1ac .cfa: sp 0 +
STACK CFI INIT 875b4 1ac .cfa: sp 0 +
STACK CFI INIT 87760 1e0 .cfa: sp 0 +
STACK CFI INIT 87940 2c0 .cfa: sp 0 +
STACK CFI INIT 87c00 2c0 .cfa: sp 0 +
STACK CFI INIT 87ec0 16c .cfa: sp 0 +
STACK CFI INIT 8802c 25c .cfa: sp 0 +
STACK CFI INIT 88288 25c .cfa: sp 0 +
STACK CFI INIT 89160 38c .cfa: sp 0 +
STACK CFI INIT 894ec 18 .cfa: sp 0 +
STACK CFI INIT 89504 8 .cfa: sp 0 +
STACK CFI INIT 8950c 14 .cfa: sp 0 +
STACK CFI INIT 89520 44 .cfa: sp 0 +
STACK CFI INIT 89564 1c .cfa: sp 0 +
STACK CFI INIT 89580 10c .cfa: sp 0 +
STACK CFI INIT 8968c 10 .cfa: sp 0 +
STACK CFI INIT 8969c 74 .cfa: sp 0 +
STACK CFI INIT 89710 6c .cfa: sp 0 +
STACK CFI INIT 8977c 10 .cfa: sp 0 +
STACK CFI INIT 8978c 70 .cfa: sp 0 +
STACK CFI INIT 897fc 10c .cfa: sp 0 +
STACK CFI INIT 89908 6c .cfa: sp 0 +
STACK CFI INIT 89974 1c .cfa: sp 0 +
STACK CFI INIT 89990 1c .cfa: sp 0 +
STACK CFI INIT 8a1ac 8 .cfa: sp 0 +
STACK CFI INIT 8a1b4 2c .cfa: sp 0 +
STACK CFI INIT 8a288 8 .cfa: sp 0 +
STACK CFI INIT 8a290 8 .cfa: sp 0 +
STACK CFI INIT 8a298 8 .cfa: sp 0 +
STACK CFI INIT 8a2a0 24 .cfa: sp 0 +
STACK CFI INIT 8a2c4 4c .cfa: sp 0 +
STACK CFI INIT 8a310 48 .cfa: sp 0 +
STACK CFI INIT 8a384 7c .cfa: sp 0 +
STACK CFI INIT 8a494 34 .cfa: sp 0 +
STACK CFI INIT 8a594 3c .cfa: sp 0 +
STACK CFI INIT 8a5d0 44 .cfa: sp 0 +
STACK CFI INIT 8a614 138 .cfa: sp 0 +
STACK CFI INIT 8a74c 17c .cfa: sp 0 +
STACK CFI INIT 8a8c8 18 .cfa: sp 0 +
STACK CFI INIT 8a8e0 18 .cfa: sp 0 +
STACK CFI INIT 8a8f8 38 .cfa: sp 0 +
STACK CFI INIT 8a930 10 .cfa: sp 0 +
STACK CFI INIT 8a940 1d0 .cfa: sp 0 +
STACK CFI INIT 8ab10 7c .cfa: sp 0 +
STACK CFI INIT 8ac18 8 .cfa: sp 0 +
STACK CFI INIT 8ac20 2c .cfa: sp 0 +
STACK CFI INIT 8ac4c 10 .cfa: sp 0 +
STACK CFI INIT 8af80 48 .cfa: sp 0 +
STACK CFI INIT 8b0b4 a0 .cfa: sp 0 +
STACK CFI INIT 8b154 a8 .cfa: sp 0 +
STACK CFI INIT 8b1fc 14 .cfa: sp 0 +
STACK CFI INIT 8b288 54 .cfa: sp 0 +
STACK CFI INIT 8b368 54 .cfa: sp 0 +
STACK CFI INIT 8b544 2c .cfa: sp 0 +
STACK CFI INIT 8b66c 28 .cfa: sp 0 +
STACK CFI INIT 8b6f4 54 .cfa: sp 0 +
STACK CFI INIT 8b748 78 .cfa: sp 0 +
STACK CFI INIT 8b7c0 54 .cfa: sp 0 +
STACK CFI INIT 8b814 5c .cfa: sp 0 +
STACK CFI INIT 8b870 2c .cfa: sp 0 +
STACK CFI INIT 8b89c 24 .cfa: sp 0 +
STACK CFI INIT 8b8c0 8 .cfa: sp 0 +
STACK CFI INIT 8b8c8 c .cfa: sp 0 +
STACK CFI INIT 8b8d4 18 .cfa: sp 0 +
STACK CFI INIT 8b8ec 50 .cfa: sp 0 +
STACK CFI INIT 8b93c 3c .cfa: sp 0 +
STACK CFI INIT 8b978 2c .cfa: sp 0 +
STACK CFI INIT 8b9a4 18 .cfa: sp 0 +
STACK CFI INIT 8b9bc 2c .cfa: sp 0 +
STACK CFI INIT 8ba40 18 .cfa: sp 0 +
STACK CFI INIT 8ba58 10 .cfa: sp 0 +
STACK CFI INIT 8ba68 2c .cfa: sp 0 +
STACK CFI INIT 8bb60 94 .cfa: sp 0 +
STACK CFI INIT 8bc4c 10 .cfa: sp 0 +
STACK CFI INIT 8bc5c 80 .cfa: sp 0 +
STACK CFI INIT 8bcdc 7c .cfa: sp 0 +
STACK CFI INIT 8bd58 40 .cfa: sp 0 +
STACK CFI INIT 8bd98 40 .cfa: sp 0 +
STACK CFI INIT 8bdd8 8 .cfa: sp 0 +
STACK CFI INIT 8bde0 2c .cfa: sp 0 +
STACK CFI INIT 8be0c 60 .cfa: sp 0 +
STACK CFI INIT 8bf00 10 .cfa: sp 0 +
STACK CFI INIT 8bf10 28 .cfa: sp 0 +
STACK CFI INIT 8bf38 114 .cfa: sp 0 +
STACK CFI INIT 8c04c 114 .cfa: sp 0 +
STACK CFI INIT 8c160 e0 .cfa: sp 0 +
STACK CFI INIT 8c2cc 2c .cfa: sp 0 +
STACK CFI INIT 8c2f8 44 .cfa: sp 0 +
STACK CFI INIT 8c3f8 4c .cfa: sp 0 +
STACK CFI INIT 8c714 9c .cfa: sp 0 +
STACK CFI INIT 8c7b0 130 .cfa: sp 0 +
STACK CFI INIT 8c8e0 30 .cfa: sp 0 +
STACK CFI INIT 8c910 30 .cfa: sp 0 +
STACK CFI INIT 8c940 18 .cfa: sp 0 +
STACK CFI INIT 8c958 2c .cfa: sp 0 +
STACK CFI INIT 8c984 38 .cfa: sp 0 +
STACK CFI INIT 8c9bc 8 .cfa: sp 0 +
STACK CFI INIT 8c9c4 2c .cfa: sp 0 +
STACK CFI INIT 8c9f0 7c .cfa: sp 0 +
STACK CFI INIT 8ca6c 18 .cfa: sp 0 +
STACK CFI INIT 8ca84 2c .cfa: sp 0 +
STACK CFI INIT 8cab0 54 .cfa: sp 0 +
STACK CFI INIT 8cb04 10 .cfa: sp 0 +
STACK CFI INIT 8cb14 10 .cfa: sp 0 +
STACK CFI INIT 8cb24 10 .cfa: sp 0 +
STACK CFI INIT 8cb34 10 .cfa: sp 0 +
STACK CFI INIT 8cb44 10 .cfa: sp 0 +
STACK CFI INIT 8cb54 24 .cfa: sp 0 +
STACK CFI INIT 8cb78 88 .cfa: sp 0 +
STACK CFI INIT 8cc00 2c .cfa: sp 0 +
STACK CFI INIT 8cc2c 24 .cfa: sp 0 +
STACK CFI INIT 8cc50 10 .cfa: sp 0 +
STACK CFI INIT 8cc60 38 .cfa: sp 0 +
STACK CFI INIT 8cc98 30 .cfa: sp 0 +
STACK CFI INIT 8ccc8 3c .cfa: sp 0 +
STACK CFI INIT 8cd04 10 .cfa: sp 0 +
STACK CFI INIT 8cd14 48 .cfa: sp 0 +
STACK CFI INIT 8cd5c 5c .cfa: sp 0 +
STACK CFI INIT 8cdb8 50 .cfa: sp 0 +
STACK CFI INIT 8ce08 cc .cfa: sp 0 +
STACK CFI INIT 8ced4 14 .cfa: sp 0 +
STACK CFI INIT 8cee8 10 .cfa: sp 0 +
STACK CFI INIT 8cef8 14 .cfa: sp 0 +
STACK CFI INIT 8cf0c 10 .cfa: sp 0 +
STACK CFI INIT 8cf1c 8 .cfa: sp 0 +
STACK CFI INIT 8cf24 8 .cfa: sp 0 +
STACK CFI INIT 8cf2c 10 .cfa: sp 0 +
STACK CFI INIT 8cf3c 10 .cfa: sp 0 +
STACK CFI INIT 8cf4c c .cfa: sp 0 +
STACK CFI INIT 8cf58 c .cfa: sp 0 +
STACK CFI INIT 8cf64 e0 .cfa: sp 0 +
STACK CFI INIT 8d044 c .cfa: sp 0 +
STACK CFI INIT 8d050 48 .cfa: sp 0 +
STACK CFI INIT 8d098 c .cfa: sp 0 +
STACK CFI INIT 8d0a4 c8 .cfa: sp 0 +
STACK CFI INIT 8d16c c .cfa: sp 0 +
STACK CFI INIT 8d178 5c .cfa: sp 0 +
STACK CFI INIT 8d23c 8 .cfa: sp 0 +
STACK CFI INIT 8d244 c .cfa: sp 0 +
STACK CFI INIT 8d250 18 .cfa: sp 0 +
STACK CFI INIT 8d268 30 .cfa: sp 0 +
STACK CFI INIT 8d298 38 .cfa: sp 0 +
STACK CFI INIT 8d2d0 6c .cfa: sp 0 +
STACK CFI INIT 8d600 c .cfa: sp 0 +
STACK CFI INIT 8d60c 38 .cfa: sp 0 +
STACK CFI INIT 8d644 38 .cfa: sp 0 +
STACK CFI INIT 8d814 8 .cfa: sp 0 +
STACK CFI INIT 8d94c 8 .cfa: sp 0 +
STACK CFI INIT 8dac4 8 .cfa: sp 0 +
STACK CFI INIT 8dbfc 8 .cfa: sp 0 +
STACK CFI INIT 8dd78 8 .cfa: sp 0 +
STACK CFI INIT 8deb0 8 .cfa: sp 0 +
STACK CFI INIT 8dfe8 8 .cfa: sp 0 +
STACK CFI INIT 8e120 8 .cfa: sp 0 +
STACK CFI INIT 8e258 8 .cfa: sp 0 +
STACK CFI INIT 8e390 8 .cfa: sp 0 +
STACK CFI INIT 8e4c8 8 .cfa: sp 0 +
STACK CFI INIT 8e600 8 .cfa: sp 0 +
STACK CFI INIT 8e738 8 .cfa: sp 0 +
STACK CFI INIT 8e99c 3c .cfa: sp 0 +
STACK CFI INIT 8fc70 58 .cfa: sp 0 +
STACK CFI INIT 8fd30 8 .cfa: sp 0 +
STACK CFI INIT 8fd38 c .cfa: sp 0 +
STACK CFI INIT 8fd44 18 .cfa: sp 0 +
STACK CFI INIT 8fd5c 30 .cfa: sp 0 +
STACK CFI INIT 8fd8c 38 .cfa: sp 0 +
STACK CFI INIT 8fdc4 64 .cfa: sp 0 +
STACK CFI INIT 8fe28 64 .cfa: sp 0 +
STACK CFI INIT 8ff34 c .cfa: sp 0 +
STACK CFI INIT 8ff40 38 .cfa: sp 0 +
STACK CFI INIT 8ff78 38 .cfa: sp 0 +
STACK CFI INIT 91838 64 .cfa: sp 0 +
STACK CFI INIT 91a24 a0 .cfa: sp 0 +
STACK CFI INIT 91b48 8 .cfa: sp 0 +
STACK CFI INIT 91b50 c .cfa: sp 0 +
STACK CFI INIT 91b5c c .cfa: sp 0 +
STACK CFI INIT 91b68 18 .cfa: sp 0 +
STACK CFI INIT 91b80 30 .cfa: sp 0 +
STACK CFI INIT 91bb0 30 .cfa: sp 0 +
STACK CFI INIT 91be0 38 .cfa: sp 0 +
STACK CFI INIT 91c18 6c .cfa: sp 0 +
STACK CFI INIT 91c84 8 .cfa: sp 0 +
STACK CFI INIT 91c8c 2c .cfa: sp 0 +
STACK CFI INIT 91cb8 7c .cfa: sp 0 +
STACK CFI INIT 91d34 18 .cfa: sp 0 +
STACK CFI INIT 91d4c 2c .cfa: sp 0 +
STACK CFI INIT 91d78 54 .cfa: sp 0 +
STACK CFI INIT 91dcc 10 .cfa: sp 0 +
STACK CFI INIT 91ddc 10 .cfa: sp 0 +
STACK CFI INIT 91dec 10 .cfa: sp 0 +
STACK CFI INIT 91dfc 10 .cfa: sp 0 +
STACK CFI INIT 91e0c 10 .cfa: sp 0 +
STACK CFI INIT 91e1c 28 .cfa: sp 0 +
STACK CFI INIT 91e44 94 .cfa: sp 0 +
STACK CFI INIT 91ed8 30 .cfa: sp 0 +
STACK CFI INIT 91f08 24 .cfa: sp 0 +
STACK CFI INIT 91f2c 10 .cfa: sp 0 +
STACK CFI INIT 91f3c 3c .cfa: sp 0 +
STACK CFI INIT 91f78 34 .cfa: sp 0 +
STACK CFI INIT 91fac 34 .cfa: sp 0 +
STACK CFI INIT 91fe0 10 .cfa: sp 0 +
STACK CFI INIT 91ff0 48 .cfa: sp 0 +
STACK CFI INIT 92038 5c .cfa: sp 0 +
STACK CFI INIT 92094 50 .cfa: sp 0 +
STACK CFI INIT 920e4 cc .cfa: sp 0 +
STACK CFI INIT 921b0 14 .cfa: sp 0 +
STACK CFI INIT 921c4 10 .cfa: sp 0 +
STACK CFI INIT 921d4 14 .cfa: sp 0 +
STACK CFI INIT 921e8 10 .cfa: sp 0 +
STACK CFI INIT 921f8 8 .cfa: sp 0 +
STACK CFI INIT 92200 8 .cfa: sp 0 +
STACK CFI INIT 92208 10 .cfa: sp 0 +
STACK CFI INIT 92218 10 .cfa: sp 0 +
STACK CFI INIT 92228 c .cfa: sp 0 +
STACK CFI INIT 92234 c .cfa: sp 0 +
STACK CFI INIT 92240 e8 .cfa: sp 0 +
STACK CFI INIT 92328 c .cfa: sp 0 +
STACK CFI INIT 92334 44 .cfa: sp 0 +
STACK CFI INIT 92378 c .cfa: sp 0 +
STACK CFI INIT 92384 d0 .cfa: sp 0 +
STACK CFI INIT 92454 c .cfa: sp 0 +
STACK CFI INIT 92460 5c .cfa: sp 0 +
STACK CFI INIT 92524 8 .cfa: sp 0 +
STACK CFI INIT 9252c c .cfa: sp 0 +
STACK CFI INIT 92538 18 .cfa: sp 0 +
STACK CFI INIT 92550 30 .cfa: sp 0 +
STACK CFI INIT 92580 38 .cfa: sp 0 +
STACK CFI INIT 925b8 6c .cfa: sp 0 +
STACK CFI INIT 92934 c .cfa: sp 0 +
STACK CFI INIT 92940 38 .cfa: sp 0 +
STACK CFI INIT 92978 38 .cfa: sp 0 +
STACK CFI INIT 92b44 8 .cfa: sp 0 +
STACK CFI INIT 92c7c 8 .cfa: sp 0 +
STACK CFI INIT 92df4 8 .cfa: sp 0 +
STACK CFI INIT 92f2c 8 .cfa: sp 0 +
STACK CFI INIT 930a8 8 .cfa: sp 0 +
STACK CFI INIT 931e0 8 .cfa: sp 0 +
STACK CFI INIT 93318 8 .cfa: sp 0 +
STACK CFI INIT 93450 8 .cfa: sp 0 +
STACK CFI INIT 93588 8 .cfa: sp 0 +
STACK CFI INIT 936c0 8 .cfa: sp 0 +
STACK CFI INIT 937f8 8 .cfa: sp 0 +
STACK CFI INIT 93930 8 .cfa: sp 0 +
STACK CFI INIT 93a68 8 .cfa: sp 0 +
STACK CFI INIT 93ccc 3c .cfa: sp 0 +
STACK CFI INIT 94fa0 58 .cfa: sp 0 +
STACK CFI INIT 95060 8 .cfa: sp 0 +
STACK CFI INIT 95068 c .cfa: sp 0 +
STACK CFI INIT 95074 18 .cfa: sp 0 +
STACK CFI INIT 9508c 30 .cfa: sp 0 +
STACK CFI INIT 950bc 38 .cfa: sp 0 +
STACK CFI INIT 950f4 64 .cfa: sp 0 +
STACK CFI INIT 95158 64 .cfa: sp 0 +
STACK CFI INIT 95264 c .cfa: sp 0 +
STACK CFI INIT 95270 38 .cfa: sp 0 +
STACK CFI INIT 952a8 38 .cfa: sp 0 +
STACK CFI INIT 96b9c 64 .cfa: sp 0 +
STACK CFI INIT 974ac 174 .cfa: sp 0 +
STACK CFI INIT 97620 8c .cfa: sp 0 +
STACK CFI INIT 976ac 90 .cfa: sp 0 +
STACK CFI INIT 9773c 8c .cfa: sp 0 +
STACK CFI INIT 977c8 60 .cfa: sp 0 +
STACK CFI INIT 97828 17c .cfa: sp 0 +
STACK CFI INIT 979a4 70 .cfa: sp 0 +
STACK CFI INIT 97a14 60 .cfa: sp 0 +
STACK CFI INIT 97a74 70 .cfa: sp 0 +
STACK CFI INIT 97c18 194 .cfa: sp 0 +
STACK CFI INIT 97f0c 2c .cfa: sp 0 +
STACK CFI INIT 97f38 340 .cfa: sp 0 +
STACK CFI INIT 98278 298 .cfa: sp 0 +
STACK CFI INIT 98510 5c .cfa: sp 0 +
STACK CFI INIT 9856c 38 .cfa: sp 0 +
STACK CFI INIT 985a4 64 .cfa: sp 0 +
STACK CFI INIT 98608 21c .cfa: sp 0 +
STACK CFI INIT 98824 6c .cfa: sp 0 +
STACK CFI INIT 98890 128 .cfa: sp 0 +
STACK CFI INIT 989b8 d8 .cfa: sp 0 +
STACK CFI INIT 98a90 78 .cfa: sp 0 +
STACK CFI INIT 98b08 1d8 .cfa: sp 0 +
STACK CFI INIT 98ce0 110 .cfa: sp 0 +
STACK CFI INIT 98df0 78 .cfa: sp 0 +
STACK CFI INIT 98e68 80 .cfa: sp 0 +
STACK CFI INIT 98ee8 80 .cfa: sp 0 +
STACK CFI INIT 98f68 88 .cfa: sp 0 +
STACK CFI INIT 98ff0 7c .cfa: sp 0 +
STACK CFI INIT 9906c 84 .cfa: sp 0 +
STACK CFI INIT 990f0 84 .cfa: sp 0 +
STACK CFI INIT 99174 8c .cfa: sp 0 +
STACK CFI INIT 99200 44 .cfa: sp 0 +
STACK CFI INIT 99244 50 .cfa: sp 0 +
STACK CFI INIT 99294 50 .cfa: sp 0 +
STACK CFI INIT 992e4 5c .cfa: sp 0 +
STACK CFI INIT 99340 44 .cfa: sp 0 +
STACK CFI INIT 99384 50 .cfa: sp 0 +
STACK CFI INIT 993d4 50 .cfa: sp 0 +
STACK CFI INIT 99424 5c .cfa: sp 0 +
STACK CFI INIT 99480 8 .cfa: sp 0 +
STACK CFI INIT 99488 2c .cfa: sp 0 +
STACK CFI INIT 994b4 64 .cfa: sp 0 +
STACK CFI INIT 99518 a8 .cfa: sp 0 +
STACK CFI INIT 995c0 38 .cfa: sp 0 +
STACK CFI INIT 995f8 8 .cfa: sp 0 +
STACK CFI INIT 99600 2c .cfa: sp 0 +
STACK CFI INIT 9962c 58 .cfa: sp 0 +
STACK CFI INIT 99684 bc .cfa: sp 0 +
STACK CFI INIT 99740 38 .cfa: sp 0 +
STACK CFI INIT 99ec8 8 .cfa: sp 0 +
STACK CFI INIT 9a46c 8 .cfa: sp 0 +
STACK CFI INIT 9aa10 8 .cfa: sp 0 +
STACK CFI INIT 9afb4 8 .cfa: sp 0 +
STACK CFI INIT 9b558 8 .cfa: sp 0 +
STACK CFI INIT 9bafc 8 .cfa: sp 0 +
STACK CFI INIT 9c0a0 8 .cfa: sp 0 +
STACK CFI INIT 9c62c 8 .cfa: sp 0 +
STACK CFI INIT 9cbb8 8 .cfa: sp 0 +
STACK CFI INIT 9d6e8 31c .cfa: sp 0 +
STACK CFI INIT 9e2b0 8 .cfa: sp 0 +
STACK CFI INIT 9e850 8 .cfa: sp 0 +
STACK CFI INIT 9edf0 8 .cfa: sp 0 +
STACK CFI INIT 9f390 8 .cfa: sp 0 +
STACK CFI INIT 9f930 8 .cfa: sp 0 +
STACK CFI INIT 9fed0 8 .cfa: sp 0 +
STACK CFI INIT a0470 8 .cfa: sp 0 +
STACK CFI INIT a09f4 8 .cfa: sp 0 +
STACK CFI INIT a0f78 8 .cfa: sp 0 +
STACK CFI INIT a1a9c 37c .cfa: sp 0 +
STACK CFI INIT a1fc8 40c .cfa: sp 0 +
STACK CFI INIT a270c 484 .cfa: sp 0 +
STACK CFI INIT a2f18 10 .cfa: sp 0 +
STACK CFI INIT a3168 10 .cfa: sp 0 +
STACK CFI INIT a33b8 10 .cfa: sp 0 +
STACK CFI INIT a35ec 10 .cfa: sp 0 +
STACK CFI INIT a3820 10 .cfa: sp 0 +
STACK CFI INIT a3ce4 10 .cfa: sp 0 +
STACK CFI INIT a4494 70 .cfa: sp 0 +
STACK CFI INIT a4888 10 .cfa: sp 0 +
STACK CFI INIT a4ad8 10 .cfa: sp 0 +
STACK CFI INIT a4d28 10 .cfa: sp 0 +
STACK CFI INIT a4f5c 10 .cfa: sp 0 +
STACK CFI INIT a5190 10 .cfa: sp 0 +
STACK CFI INIT a5654 10 .cfa: sp 0 +
STACK CFI INIT a78c4 c .cfa: sp 0 +
STACK CFI INIT a78d0 44 .cfa: sp 0 +
STACK CFI INIT a7914 8c .cfa: sp 0 +
STACK CFI INIT a7b04 bc .cfa: sp 0 +
STACK CFI INIT a7d20 b8 .cfa: sp 0 +
STACK CFI INIT a7f00 68 .cfa: sp 0 +
STACK CFI INIT a85ec 74 .cfa: sp 0 +
STACK CFI INIT a8660 70 .cfa: sp 0 +
STACK CFI INIT a86d0 74 .cfa: sp 0 +
STACK CFI INIT a8744 70 .cfa: sp 0 +
STACK CFI INIT a87b4 74 .cfa: sp 0 +
STACK CFI INIT a8828 70 .cfa: sp 0 +
STACK CFI INIT a8898 1f8 .cfa: sp 0 +
STACK CFI INIT a8a90 110 .cfa: sp 0 +
STACK CFI INIT a8ba0 70 .cfa: sp 0 +
STACK CFI INIT a8c10 70 .cfa: sp 0 +
STACK CFI INIT a8c80 50 .cfa: sp 0 +
STACK CFI INIT a8cd0 224 .cfa: sp 0 +
STACK CFI INIT a8ef4 380 .cfa: sp 0 +
STACK CFI INIT a97cc c .cfa: sp 0 +
STACK CFI INIT a97d8 40 .cfa: sp 0 +
STACK CFI INIT a9818 90 .cfa: sp 0 +
STACK CFI INIT a9a0c bc .cfa: sp 0 +
STACK CFI INIT a9c28 b8 .cfa: sp 0 +
STACK CFI INIT a9e08 68 .cfa: sp 0 +
STACK CFI INIT aa4e4 74 .cfa: sp 0 +
STACK CFI INIT aa558 70 .cfa: sp 0 +
STACK CFI INIT aa5c8 74 .cfa: sp 0 +
STACK CFI INIT aa63c 70 .cfa: sp 0 +
STACK CFI INIT aa6ac 74 .cfa: sp 0 +
STACK CFI INIT aa720 70 .cfa: sp 0 +
STACK CFI INIT aa790 234 .cfa: sp 0 +
STACK CFI INIT aa9c4 110 .cfa: sp 0 +
STACK CFI INIT aaad4 70 .cfa: sp 0 +
STACK CFI INIT aab44 70 .cfa: sp 0 +
STACK CFI INIT aabb4 50 .cfa: sp 0 +
STACK CFI INIT aac04 248 .cfa: sp 0 +
STACK CFI INIT aae4c 3c0 .cfa: sp 0 +
STACK CFI INIT ab4b8 d0 .cfa: sp 0 +
STACK CFI INIT ab588 74 .cfa: sp 0 +
STACK CFI INIT ab8b8 cc .cfa: sp 0 +
STACK CFI INIT aba7c c .cfa: sp 0 +
STACK CFI INIT aba88 c .cfa: sp 0 +
STACK CFI INIT aba94 10 .cfa: sp 0 +
STACK CFI INIT abaa4 10 .cfa: sp 0 +
STACK CFI INIT abab4 10 .cfa: sp 0 +
STACK CFI INIT abac4 14 .cfa: sp 0 +
STACK CFI INIT abad8 c .cfa: sp 0 +
STACK CFI INIT abae4 10 .cfa: sp 0 +
STACK CFI INIT abaf4 10 .cfa: sp 0 +
STACK CFI INIT abb04 c .cfa: sp 0 +
STACK CFI INIT abb10 c .cfa: sp 0 +
STACK CFI INIT abb1c 10 .cfa: sp 0 +
STACK CFI INIT abb2c 10 .cfa: sp 0 +
STACK CFI INIT abb3c 10 .cfa: sp 0 +
STACK CFI INIT abb4c 14 .cfa: sp 0 +
STACK CFI INIT abb60 c .cfa: sp 0 +
STACK CFI INIT abb6c 10 .cfa: sp 0 +
STACK CFI INIT abb7c 10 .cfa: sp 0 +
STACK CFI INIT abb8c c .cfa: sp 0 +
STACK CFI INIT abb98 c .cfa: sp 0 +
STACK CFI INIT abba4 10 .cfa: sp 0 +
STACK CFI INIT abbb4 10 .cfa: sp 0 +
STACK CFI INIT abbc4 10 .cfa: sp 0 +
STACK CFI INIT abbd4 1c .cfa: sp 0 +
STACK CFI INIT abbf0 c .cfa: sp 0 +
STACK CFI INIT abbfc 10 .cfa: sp 0 +
STACK CFI INIT abc0c 10 .cfa: sp 0 +
STACK CFI INIT abc1c c .cfa: sp 0 +
STACK CFI INIT abc28 c .cfa: sp 0 +
STACK CFI INIT abc34 10 .cfa: sp 0 +
STACK CFI INIT abc44 10 .cfa: sp 0 +
STACK CFI INIT abc54 10 .cfa: sp 0 +
STACK CFI INIT abc64 1c .cfa: sp 0 +
STACK CFI INIT abc80 c .cfa: sp 0 +
STACK CFI INIT abc8c 10 .cfa: sp 0 +
STACK CFI INIT abc9c 10 .cfa: sp 0 +
STACK CFI INIT abcac c .cfa: sp 0 +
STACK CFI INIT abcb8 c .cfa: sp 0 +
STACK CFI INIT abcc4 ac .cfa: sp 0 +
STACK CFI INIT abd70 ac .cfa: sp 0 +
STACK CFI INIT abe1c ac .cfa: sp 0 +
STACK CFI INIT abec8 ac .cfa: sp 0 +
STACK CFI INIT abf74 c .cfa: sp 0 +
STACK CFI INIT abf80 c .cfa: sp 0 +
STACK CFI INIT abf8c c .cfa: sp 0 +
STACK CFI INIT abf98 c .cfa: sp 0 +
STACK CFI INIT abfa4 c .cfa: sp 0 +
STACK CFI INIT abfb0 ac .cfa: sp 0 +
STACK CFI INIT ac05c ac .cfa: sp 0 +
STACK CFI INIT ac108 ac .cfa: sp 0 +
STACK CFI INIT ac1b4 ac .cfa: sp 0 +
STACK CFI INIT ac260 c .cfa: sp 0 +
STACK CFI INIT ac26c c .cfa: sp 0 +
STACK CFI INIT ac278 c .cfa: sp 0 +
STACK CFI INIT ac284 c .cfa: sp 0 +
STACK CFI INIT ac290 c .cfa: sp 0 +
STACK CFI INIT ac29c ac .cfa: sp 0 +
STACK CFI INIT ac348 c8 .cfa: sp 0 +
STACK CFI INIT ac410 c8 .cfa: sp 0 +
STACK CFI INIT ac4d8 c8 .cfa: sp 0 +
STACK CFI INIT ac5a0 c .cfa: sp 0 +
STACK CFI INIT ac5ac c .cfa: sp 0 +
STACK CFI INIT ac5b8 c .cfa: sp 0 +
STACK CFI INIT ac5c4 c .cfa: sp 0 +
STACK CFI INIT ac5d0 c .cfa: sp 0 +
STACK CFI INIT ac5dc ac .cfa: sp 0 +
STACK CFI INIT ac688 c8 .cfa: sp 0 +
STACK CFI INIT ac750 c8 .cfa: sp 0 +
STACK CFI INIT ac818 c8 .cfa: sp 0 +
STACK CFI INIT ac8e0 c .cfa: sp 0 +
STACK CFI INIT ac8ec c .cfa: sp 0 +
STACK CFI INIT ac8f8 c .cfa: sp 0 +
STACK CFI INIT acd1c 8 .cfa: sp 0 +
STACK CFI INIT ae760 240 .cfa: sp 0 +
STACK CFI INIT ae9a0 fc .cfa: sp 0 +
STACK CFI INIT b098c 240 .cfa: sp 0 +
STACK CFI INIT b1168 240 .cfa: sp 0 +
STACK CFI INIT b13a8 49c .cfa: sp 0 +
STACK CFI INIT b20f0 240 .cfa: sp 0 +
STACK CFI INIT b2330 4f4 .cfa: sp 0 +
STACK CFI INIT b2bfc c .cfa: sp 0 +
STACK CFI INIT b2c08 a8 .cfa: sp 0 +
STACK CFI INIT b2cb0 8 .cfa: sp 0 +
STACK CFI INIT b2cb8 c .cfa: sp 0 +
STACK CFI INIT b2cc4 c4 .cfa: sp 0 +
STACK CFI INIT b2d88 8 .cfa: sp 0 +
STACK CFI INIT b2d90 8 .cfa: sp 0 +
STACK CFI INIT b2d98 2c .cfa: sp 0 +
STACK CFI INIT b2dc4 8 .cfa: sp 0 +
STACK CFI INIT b2dcc 2c .cfa: sp 0 +
STACK CFI INIT b2df8 8 .cfa: sp 0 +
STACK CFI INIT b2e00 2c .cfa: sp 0 +
STACK CFI INIT b2e2c 8 .cfa: sp 0 +
STACK CFI INIT b2e34 2c .cfa: sp 0 +
STACK CFI INIT b2e60 8 .cfa: sp 0 +
STACK CFI INIT b2e68 2c .cfa: sp 0 +
STACK CFI INIT b2e94 8 .cfa: sp 0 +
STACK CFI INIT b2e9c 2c .cfa: sp 0 +
STACK CFI INIT b3480 90 .cfa: sp 0 +
STACK CFI INIT bb220 e0 .cfa: sp 0 +
STACK CFI INIT bb300 d4 .cfa: sp 0 +
STACK CFI INIT bb590 2c .cfa: sp 0 +
STACK CFI INIT bb5bc 50 .cfa: sp 0 +
STACK CFI INIT bb60c 70 .cfa: sp 0 +
STACK CFI INIT bba48 b0 .cfa: sp 0 +
STACK CFI INIT bbe24 a8 .cfa: sp 0 +
STACK CFI INIT bbecc 74 .cfa: sp 0 +
STACK CFI INIT bbf40 90 .cfa: sp 0 +
STACK CFI INIT bbfd0 f4 .cfa: sp 0 +
STACK CFI INIT bc0c4 2c .cfa: sp 0 +
STACK CFI INIT bc0f0 10 .cfa: sp 0 +
STACK CFI INIT bc100 3c .cfa: sp 0 +
STACK CFI INIT bc284 64 .cfa: sp 0 +
STACK CFI INIT bc3e0 2c .cfa: sp 0 +
STACK CFI INIT bc994 2c .cfa: sp 0 +
STACK CFI INIT bcdb4 2c .cfa: sp 0 +
STACK CFI INIT bcde0 2c .cfa: sp 0 +
STACK CFI INIT bce0c 10 .cfa: sp 0 +
STACK CFI INIT bce1c 58 .cfa: sp 0 +
STACK CFI INIT bce74 4c .cfa: sp 0 +
STACK CFI INIT bcec0 44 .cfa: sp 0 +
STACK CFI INIT bd24c c .cfa: sp 0 +
STACK CFI INIT bd258 124 .cfa: sp 0 +
STACK CFI INIT bd37c 10 .cfa: sp 0 +
STACK CFI INIT bd38c 18c .cfa: sp 0 +
STACK CFI INIT bd518 38 .cfa: sp 0 +
STACK CFI INIT bd550 4c .cfa: sp 0 +
STACK CFI INIT bd59c 2c .cfa: sp 0 +
STACK CFI INIT bd900 c .cfa: sp 0 +
STACK CFI INIT bd90c d4 .cfa: sp 0 +
STACK CFI INIT bd9e0 14 .cfa: sp 0 +
STACK CFI INIT bd9f4 f8 .cfa: sp 0 +
STACK CFI INIT bdcb4 2c .cfa: sp 0 +
STACK CFI INIT bdce0 28 .cfa: sp 0 +
STACK CFI INIT bdd08 5c .cfa: sp 0 +
STACK CFI INIT bdd64 28 .cfa: sp 0 +
STACK CFI INIT bdd8c 5c .cfa: sp 0 +
STACK CFI INIT bdf90 2c .cfa: sp 0 +
STACK CFI INIT bdfbc 168 .cfa: sp 0 +
STACK CFI INIT be124 19c .cfa: sp 0 +
STACK CFI INIT be2c0 130 .cfa: sp 0 +
STACK CFI INIT be3f0 130 .cfa: sp 0 +
STACK CFI INIT be520 14 .cfa: sp 0 +
STACK CFI INIT be534 5c .cfa: sp 0 +
STACK CFI INIT be590 14 .cfa: sp 0 +
STACK CFI INIT be5a4 5c .cfa: sp 0 +
STACK CFI INIT be85c 2c .cfa: sp 0 +
STACK CFI INIT be888 14 .cfa: sp 0 +
STACK CFI INIT be89c 14 .cfa: sp 0 +
STACK CFI INIT be8b0 10 .cfa: sp 0 +
STACK CFI INIT be8c0 c .cfa: sp 0 +
STACK CFI INIT be8cc c .cfa: sp 0 +
STACK CFI INIT be8d8 14 .cfa: sp 0 +
STACK CFI INIT be8ec c .cfa: sp 0 +
STACK CFI INIT bea9c 2c .cfa: sp 0 +
STACK CFI INIT bf278 c .cfa: sp 0 +
STACK CFI INIT bf418 2c .cfa: sp 0 +
STACK CFI INIT bf444 68 .cfa: sp 0 +
STACK CFI INIT bf4ac 220 .cfa: sp 0 +
STACK CFI INIT bf6cc 68 .cfa: sp 0 +
STACK CFI INIT bf734 264 .cfa: sp 0 +
STACK CFI INIT bf998 10 .cfa: sp 0 +
STACK CFI INIT bf9a8 c .cfa: sp 0 +
STACK CFI INIT bf9b4 c .cfa: sp 0 +
STACK CFI INIT bf9c0 1c .cfa: sp 0 +
STACK CFI INIT bf9dc 20c .cfa: sp 0 +
STACK CFI INIT bfbe8 c .cfa: sp 0 +
STACK CFI INIT bfbf4 2c .cfa: sp 0 +
STACK CFI INIT bfc20 68 .cfa: sp 0 +
STACK CFI INIT bfc88 68 .cfa: sp 0 +
STACK CFI INIT bfcf0 10 .cfa: sp 0 +
STACK CFI INIT bfd00 c .cfa: sp 0 +
STACK CFI INIT bfd0c c .cfa: sp 0 +
STACK CFI INIT bfd18 1c .cfa: sp 0 +
STACK CFI INIT bfd34 c .cfa: sp 0 +
STACK CFI INIT bfd40 2c .cfa: sp 0 +
STACK CFI INIT bfd6c 144 .cfa: sp 0 +
STACK CFI INIT bfeb0 194 .cfa: sp 0 +
STACK CFI INIT c0044 68 .cfa: sp 0 +
STACK CFI INIT c00ac 21c .cfa: sp 0 +
STACK CFI INIT c02c8 10 .cfa: sp 0 +
STACK CFI INIT c02d8 c .cfa: sp 0 +
STACK CFI INIT c02e4 c .cfa: sp 0 +
STACK CFI INIT c02f0 1c .cfa: sp 0 +
STACK CFI INIT c030c 210 .cfa: sp 0 +
STACK CFI INIT c051c c .cfa: sp 0 +
STACK CFI INIT c0528 2c .cfa: sp 0 +
STACK CFI INIT c0554 144 .cfa: sp 0 +
STACK CFI INIT c0698 68 .cfa: sp 0 +
STACK CFI INIT c0700 10 .cfa: sp 0 +
STACK CFI INIT c0710 c .cfa: sp 0 +
STACK CFI INIT c071c c .cfa: sp 0 +
STACK CFI INIT c0728 1c .cfa: sp 0 +
STACK CFI INIT c0744 c .cfa: sp 0 +
STACK CFI INIT c0750 70 .cfa: sp 0 +
STACK CFI INIT c07c0 70 .cfa: sp 0 +
STACK CFI INIT c0830 10 .cfa: sp 0 +
STACK CFI INIT c0840 c .cfa: sp 0 +
STACK CFI INIT c084c c .cfa: sp 0 +
STACK CFI INIT c0858 20 .cfa: sp 0 +
STACK CFI INIT c0878 1c .cfa: sp 0 +
STACK CFI INIT c0894 124 .cfa: sp 0 +
STACK CFI INIT c09b8 1dc .cfa: sp 0 +
STACK CFI INIT c0b94 10 .cfa: sp 0 +
STACK CFI INIT c0ba4 c .cfa: sp 0 +
STACK CFI INIT c0bb0 c .cfa: sp 0 +
STACK CFI INIT c0bbc 17c .cfa: sp 0 +
STACK CFI INIT c0d38 1c .cfa: sp 0 +
STACK CFI INIT c0d54 70 .cfa: sp 0 +
STACK CFI INIT c0dc4 70 .cfa: sp 0 +
STACK CFI INIT c0e34 10 .cfa: sp 0 +
STACK CFI INIT c0e44 c .cfa: sp 0 +
STACK CFI INIT c0e50 c .cfa: sp 0 +
STACK CFI INIT c0e5c 20 .cfa: sp 0 +
STACK CFI INIT c0e7c 1c .cfa: sp 0 +
STACK CFI INIT c0e98 f4 .cfa: sp 0 +
STACK CFI INIT c0f8c 10c .cfa: sp 0 +
STACK CFI INIT c1098 10 .cfa: sp 0 +
STACK CFI INIT c10a8 c .cfa: sp 0 +
STACK CFI INIT c10b4 c .cfa: sp 0 +
STACK CFI INIT c10c0 f4 .cfa: sp 0 +
STACK CFI INIT c11b4 1c .cfa: sp 0 +
STACK CFI INIT c11d0 e4 .cfa: sp 0 +
STACK CFI INIT c12b4 118 .cfa: sp 0 +
STACK CFI INIT c13cc 10 .cfa: sp 0 +
STACK CFI INIT c13dc c .cfa: sp 0 +
STACK CFI INIT c13e8 c .cfa: sp 0 +
STACK CFI INIT c13f4 f4 .cfa: sp 0 +
STACK CFI INIT c14e8 1c .cfa: sp 0 +
STACK CFI INIT c1504 b0 .cfa: sp 0 +
STACK CFI INIT c15b4 94 .cfa: sp 0 +
STACK CFI INIT c1648 10 .cfa: sp 0 +
STACK CFI INIT c1658 c .cfa: sp 0 +
STACK CFI INIT c1664 c .cfa: sp 0 +
STACK CFI INIT c1670 9c .cfa: sp 0 +
STACK CFI INIT c170c 1c .cfa: sp 0 +
STACK CFI INIT c1728 b0 .cfa: sp 0 +
STACK CFI INIT c17d8 a4 .cfa: sp 0 +
STACK CFI INIT c187c 10 .cfa: sp 0 +
STACK CFI INIT c188c c .cfa: sp 0 +
STACK CFI INIT c1898 c .cfa: sp 0 +
STACK CFI INIT c18a4 9c .cfa: sp 0 +
STACK CFI INIT c1940 1c .cfa: sp 0 +
STACK CFI INIT c195c f4 .cfa: sp 0 +
STACK CFI INIT c1a50 10c .cfa: sp 0 +
STACK CFI INIT c1b5c 10 .cfa: sp 0 +
STACK CFI INIT c1b6c c .cfa: sp 0 +
STACK CFI INIT c1b78 c .cfa: sp 0 +
STACK CFI INIT c1b84 f4 .cfa: sp 0 +
STACK CFI INIT c1c78 1c .cfa: sp 0 +
STACK CFI INIT c1c94 e4 .cfa: sp 0 +
STACK CFI INIT c1d78 118 .cfa: sp 0 +
STACK CFI INIT c1e90 10 .cfa: sp 0 +
STACK CFI INIT c1ea0 c .cfa: sp 0 +
STACK CFI INIT c1eac c .cfa: sp 0 +
STACK CFI INIT c1eb8 f4 .cfa: sp 0 +
STACK CFI INIT c1fac 1c .cfa: sp 0 +
STACK CFI INIT c1fc8 70 .cfa: sp 0 +
STACK CFI INIT c2038 220 .cfa: sp 0 +
STACK CFI INIT c2258 70 .cfa: sp 0 +
STACK CFI INIT c22c8 260 .cfa: sp 0 +
STACK CFI INIT c2528 10 .cfa: sp 0 +
STACK CFI INIT c2538 c .cfa: sp 0 +
STACK CFI INIT c2544 c .cfa: sp 0 +
STACK CFI INIT c2550 20 .cfa: sp 0 +
STACK CFI INIT c2570 1c .cfa: sp 0 +
STACK CFI INIT c258c 70 .cfa: sp 0 +
STACK CFI INIT c25fc 70 .cfa: sp 0 +
STACK CFI INIT c266c 10 .cfa: sp 0 +
STACK CFI INIT c267c c .cfa: sp 0 +
STACK CFI INIT c2688 c .cfa: sp 0 +
STACK CFI INIT c2694 20 .cfa: sp 0 +
STACK CFI INIT c26b4 1c .cfa: sp 0 +
STACK CFI INIT c26d0 70 .cfa: sp 0 +
STACK CFI INIT c2740 70 .cfa: sp 0 +
STACK CFI INIT c27b0 10 .cfa: sp 0 +
STACK CFI INIT c27c0 c .cfa: sp 0 +
STACK CFI INIT c27cc c .cfa: sp 0 +
STACK CFI INIT c27d8 20 .cfa: sp 0 +
STACK CFI INIT c27f8 1c .cfa: sp 0 +
STACK CFI INIT c2814 2c .cfa: sp 0 +
STACK CFI INIT c2840 2c .cfa: sp 0 +
STACK CFI INIT c286c 2c .cfa: sp 0 +
STACK CFI INIT c2898 2c .cfa: sp 0 +
STACK CFI INIT c28c4 2c .cfa: sp 0 +
STACK CFI INIT c28f0 30 .cfa: sp 0 +
STACK CFI INIT c2920 48 .cfa: sp 0 +
STACK CFI INIT c2968 2c .cfa: sp 0 +
STACK CFI INIT c2994 48 .cfa: sp 0 +
STACK CFI INIT c29dc 2c .cfa: sp 0 +
STACK CFI INIT c2a08 c .cfa: sp 0 +
STACK CFI INIT c2a14 c .cfa: sp 0 +
STACK CFI INIT c2a20 c .cfa: sp 0 +
STACK CFI INIT c2a2c c .cfa: sp 0 +
STACK CFI INIT c2a38 ac .cfa: sp 0 +
STACK CFI INIT c2ae4 ac .cfa: sp 0 +
STACK CFI INIT c2b90 20 .cfa: sp 0 +
STACK CFI INIT c2bb0 24 .cfa: sp 0 +
STACK CFI INIT c2bd4 ac .cfa: sp 0 +
STACK CFI INIT c2c80 24 .cfa: sp 0 +
STACK CFI INIT c2ca4 54 .cfa: sp 0 +
STACK CFI INIT c2f64 2c .cfa: sp 0 +
STACK CFI INIT c3318 2c .cfa: sp 0 +
STACK CFI INIT c341c 44 .cfa: sp 0 +
STACK CFI INIT c3460 a4 .cfa: sp 0 +
STACK CFI INIT c3504 108 .cfa: sp 0 +
STACK CFI INIT c369c 4c4 .cfa: sp 0 +
STACK CFI INIT c3bf0 684 .cfa: sp 0 +
STACK CFI INIT c4304 7d8 .cfa: sp 0 +
STACK CFI INIT c4b6c 9dc .cfa: sp 0 +
STACK CFI INIT c55d8 108 .cfa: sp 0 +
STACK CFI INIT c5770 f8 .cfa: sp 0 +
STACK CFI INIT c7300 518 .cfa: sp 0 +
STACK CFI INIT c9690 278 .cfa: sp 0 +
STACK CFI INIT c9908 270 .cfa: sp 0 +
STACK CFI INIT ca0b0 518 .cfa: sp 0 +
STACK CFI INIT cad84 518 .cfa: sp 0 +
STACK CFI INIT cb70c 2c .cfa: sp 0 +
STACK CFI INIT cb738 2c .cfa: sp 0 +
STACK CFI INIT cb764 2c .cfa: sp 0 +
STACK CFI INIT cb790 2c .cfa: sp 0 +
STACK CFI INIT cb878 2c .cfa: sp 0 +
STACK CFI INIT cb8a4 2c .cfa: sp 0 +
STACK CFI INIT cb8d0 2c .cfa: sp 0 +
STACK CFI INIT cb8fc 2c .cfa: sp 0 +
STACK CFI INIT cb928 2c .cfa: sp 0 +
STACK CFI INIT cb954 2c .cfa: sp 0 +
STACK CFI INIT cb980 2c .cfa: sp 0 +
STACK CFI INIT cb9ac 2c .cfa: sp 0 +
STACK CFI INIT cb9d8 2c .cfa: sp 0 +
STACK CFI INIT cba04 2c .cfa: sp 0 +
STACK CFI INIT cba30 2c .cfa: sp 0 +
STACK CFI INIT cba5c 2c .cfa: sp 0 +
STACK CFI INIT cba88 8 .cfa: sp 0 +
STACK CFI INIT cba90 2c .cfa: sp 0 +
STACK CFI INIT cbabc 8 .cfa: sp 0 +
STACK CFI INIT cbac4 2c .cfa: sp 0 +
STACK CFI INIT cbaf0 30 .cfa: sp 0 +
STACK CFI INIT cbb20 38 .cfa: sp 0 +
STACK CFI INIT cbb58 c .cfa: sp 0 +
STACK CFI INIT cbb64 c .cfa: sp 0 +
STACK CFI INIT cbb70 c .cfa: sp 0 +
STACK CFI INIT cbb7c c .cfa: sp 0 +
STACK CFI INIT cbb88 c .cfa: sp 0 +
STACK CFI INIT cbb94 c .cfa: sp 0 +
STACK CFI INIT cbba0 c .cfa: sp 0 +
STACK CFI INIT cbbac c .cfa: sp 0 +
STACK CFI INIT cbbb8 c .cfa: sp 0 +
STACK CFI INIT cbbc4 c .cfa: sp 0 +
STACK CFI INIT cbbd0 c .cfa: sp 0 +
STACK CFI INIT cbbdc c .cfa: sp 0 +
STACK CFI INIT cbbe8 c .cfa: sp 0 +
STACK CFI INIT cbbf4 c .cfa: sp 0 +
STACK CFI INIT cbc00 c .cfa: sp 0 +
STACK CFI INIT cbc0c 30 .cfa: sp 0 +
STACK CFI INIT cbc3c 38 .cfa: sp 0 +
STACK CFI INIT cbc74 c .cfa: sp 0 +
STACK CFI INIT cbc80 c .cfa: sp 0 +
STACK CFI INIT cbc8c c .cfa: sp 0 +
STACK CFI INIT cbc98 c .cfa: sp 0 +
STACK CFI INIT cbca4 c .cfa: sp 0 +
STACK CFI INIT cbcb0 c .cfa: sp 0 +
STACK CFI INIT cbcbc c .cfa: sp 0 +
STACK CFI INIT cbcc8 c .cfa: sp 0 +
STACK CFI INIT cbcd4 c .cfa: sp 0 +
STACK CFI INIT cbce0 c .cfa: sp 0 +
STACK CFI INIT cbcec c .cfa: sp 0 +
STACK CFI INIT cbcf8 c .cfa: sp 0 +
STACK CFI INIT cbd04 c .cfa: sp 0 +
STACK CFI INIT cbd10 c .cfa: sp 0 +
STACK CFI INIT cbd1c c .cfa: sp 0 +
STACK CFI INIT cbd28 38 .cfa: sp 0 +
STACK CFI INIT cbd60 30 .cfa: sp 0 +
STACK CFI INIT cbd90 38 .cfa: sp 0 +
STACK CFI INIT cbdc8 30 .cfa: sp 0 +
STACK CFI INIT cbdf8 38 .cfa: sp 0 +
STACK CFI INIT cbe30 38 .cfa: sp 0 +
STACK CFI INIT cbe68 2c .cfa: sp 0 +
STACK CFI INIT cbe94 2c .cfa: sp 0 +
STACK CFI INIT cbec0 8 .cfa: sp 0 +
STACK CFI INIT cbec8 2c .cfa: sp 0 +
STACK CFI INIT cbef4 2c .cfa: sp 0 +
STACK CFI INIT cbf20 a4 .cfa: sp 0 +
STACK CFI INIT cbfc4 9c .cfa: sp 0 +
STACK CFI INIT cc060 a4 .cfa: sp 0 +
STACK CFI INIT cc104 9c .cfa: sp 0 +
STACK CFI INIT cc1a0 a4 .cfa: sp 0 +
STACK CFI INIT cc244 9c .cfa: sp 0 +
STACK CFI INIT cc2e0 a4 .cfa: sp 0 +
STACK CFI INIT cc384 9c .cfa: sp 0 +
STACK CFI INIT cc420 2c .cfa: sp 0 +
STACK CFI INIT cc44c 2c .cfa: sp 0 +
STACK CFI INIT cc478 2c .cfa: sp 0 +
STACK CFI INIT cc4a4 2c .cfa: sp 0 +
STACK CFI INIT cc4d0 2c .cfa: sp 0 +
STACK CFI INIT cc4fc 2c .cfa: sp 0 +
STACK CFI INIT cc528 2c .cfa: sp 0 +
STACK CFI INIT cc554 2c .cfa: sp 0 +
STACK CFI INIT cc5a8 38 .cfa: sp 0 +
STACK CFI INIT cc5e0 18 .cfa: sp 0 +
STACK CFI INIT cc5f8 278 .cfa: sp 0 +
STACK CFI INIT cc870 1d0 .cfa: sp 0 +
STACK CFI INIT cca40 20c .cfa: sp 0 +
STACK CFI INIT ccc4c 20c .cfa: sp 0 +
STACK CFI INIT cce58 374 .cfa: sp 0 +
STACK CFI INIT cd1cc 374 .cfa: sp 0 +
STACK CFI INIT cd540 50 .cfa: sp 0 +
STACK CFI INIT cd590 50 .cfa: sp 0 +
STACK CFI INIT cd760 28 .cfa: sp 0 +
STACK CFI INIT cd844 a0 .cfa: sp 0 +
STACK CFI INIT cd8e4 ac .cfa: sp 0 +
STACK CFI INIT cedac 7c .cfa: sp 0 +
STACK CFI INIT cee28 5c .cfa: sp 0 +
STACK CFI INIT cee84 2c .cfa: sp 0 +
STACK CFI INIT ceeb0 104 .cfa: sp 0 +
STACK CFI INIT cfdc8 48 .cfa: sp 0 +
STACK CFI INIT cfe94 bc .cfa: sp 0 +
STACK CFI INIT cff50 bc .cfa: sp 0 +
STACK CFI INIT d0490 b4 .cfa: sp 0 +
STACK CFI INIT d0784 5c .cfa: sp 0 +
STACK CFI INIT d08c8 48 .cfa: sp 0 +
STACK CFI INIT d0a08 64 .cfa: sp 0 +
STACK CFI INIT d0a6c 68 .cfa: sp 0 +
STACK CFI INIT d0ad4 90 .cfa: sp 0 +
STACK CFI INIT d1014 3c .cfa: sp 0 +
STACK CFI INIT d143c bc .cfa: sp 0 +
STACK CFI INIT d16a0 9c .cfa: sp 0 +
STACK CFI INIT d1ab4 150 .cfa: sp 0 +
STACK CFI INIT d1cec 118 .cfa: sp 0 +
STACK CFI INIT d1e04 1f8 .cfa: sp 0 +
STACK CFI INIT d220c 1c0 .cfa: sp 0 +
STACK CFI INIT d23cc 204 .cfa: sp 0 +
STACK CFI INIT d25d0 9c .cfa: sp 0 +
STACK CFI INIT d266c 84 .cfa: sp 0 +
STACK CFI INIT d2a38 bc .cfa: sp 0 +
STACK CFI INIT d2af4 b0 .cfa: sp 0 +
STACK CFI INIT d2ba4 148 .cfa: sp 0 +
STACK CFI INIT d2cec 94 .cfa: sp 0 +
STACK CFI INIT d2d80 94 .cfa: sp 0 +
STACK CFI INIT d3718 214 .cfa: sp 0 +
STACK CFI INIT d40e4 15c .cfa: sp 0 +
STACK CFI INIT d4240 64 .cfa: sp 0 +
STACK CFI INIT d42a4 ac .cfa: sp 0 +
STACK CFI INIT d4350 e8 .cfa: sp 0 +
STACK CFI INIT d4438 a8 .cfa: sp 0 +
STACK CFI INIT d44e0 e0 .cfa: sp 0 +
STACK CFI INIT d45c0 12c .cfa: sp 0 +
STACK CFI INIT d46ec c0 .cfa: sp 0 +
STACK CFI INIT d47ac d0 .cfa: sp 0 +
STACK CFI INIT d4df4 31c .cfa: sp 0 +
STACK CFI INIT d53a0 20 .cfa: sp 0 +
STACK CFI INIT d5a60 20 .cfa: sp 0 +
STACK CFI INIT d5c20 198 .cfa: sp 0 +
STACK CFI INIT d5db8 fc .cfa: sp 0 +
STACK CFI INIT d612c 58 .cfa: sp 0 +
STACK CFI INIT d6184 64 .cfa: sp 0 +
STACK CFI INIT d64b4 14 .cfa: sp 0 +
STACK CFI INIT d64c8 38 .cfa: sp 0 +
STACK CFI INIT d6500 70 .cfa: sp 0 +
STACK CFI INIT d6570 8 .cfa: sp 0 +
STACK CFI INIT d6954 ec .cfa: sp 0 +
STACK CFI INIT d6cf8 18 .cfa: sp 0 +
STACK CFI INIT d6d10 248 .cfa: sp 0 +
STACK CFI INIT d6f58 18 .cfa: sp 0 +
STACK CFI INIT d6f70 4bc .cfa: sp 0 +
STACK CFI d6f78 .cfa: sp 16 + x19: .cfa -16 + ^
STACK CFI d6fd8 .cfa: sp 0 +
STACK CFI d6fdc .cfa: sp 16 +
STACK CFI d70f8 .cfa: sp 0 +
STACK CFI d70fc .cfa: sp 16 +
STACK CFI d71a8 .cfa: sp 0 +
STACK CFI d71ac .cfa: sp 16 +
STACK CFI d7380 .cfa: sp 0 +
STACK CFI d7384 .cfa: sp 16 +
STACK CFI d73cc .cfa: sp 0 +
STACK CFI d73d0 .cfa: sp 16 +
STACK CFI d7428 .cfa: sp 0 +
STACK CFI INIT d742c 134 .cfa: sp 0 +
STACK CFI INIT d78d4 5c .cfa: sp 0 +
STACK CFI INIT d7fe8 10 .cfa: sp 0 +
STACK CFI INIT d83ec 5c .cfa: sp 0 +
STACK CFI INIT d8448 7c .cfa: sp 0 +
STACK CFI INIT d84c4 a4 .cfa: sp 0 +
STACK CFI INIT d87b0 10 .cfa: sp 0 +
STACK CFI INIT d87c0 14 .cfa: sp 0 +
STACK CFI INIT d87d4 50 .cfa: sp 0 +
STACK CFI INIT d8824 88 .cfa: sp 0 +
STACK CFI INIT d8cd8 14 .cfa: sp 0 +
STACK CFI INIT d8cec 38 .cfa: sp 0 +
STACK CFI INIT d8d24 7c .cfa: sp 0 +
STACK CFI INIT d8da0 8 .cfa: sp 0 +
STACK CFI INIT d8e88 14 .cfa: sp 0 +
STACK CFI INIT d8e9c 38 .cfa: sp 0 +
STACK CFI INIT d8ed4 90 .cfa: sp 0 +
STACK CFI INIT d8f64 8 .cfa: sp 0 +
STACK CFI INIT d8f6c 19c .cfa: sp 0 +
STACK CFI INIT d968c 18c .cfa: sp 0 +
STACK CFI INIT d9818 198 .cfa: sp 0 +
STACK CFI INIT d99b0 120 .cfa: sp 0 +
STACK CFI INIT d9ad0 8 .cfa: sp 0 +
STACK CFI INIT d9ad8 2c .cfa: sp 0 +
STACK CFI INIT d9b04 10 .cfa: sp 0 +
STACK CFI INIT d9b14 2c .cfa: sp 0 +
STACK CFI INIT d9b40 10 .cfa: sp 0 +
STACK CFI INIT d9b50 18 .cfa: sp 0 +
STACK CFI INIT d9b68 2c .cfa: sp 0 +
STACK CFI INIT d9b94 10 .cfa: sp 0 +
STACK CFI INIT d9ba4 18 .cfa: sp 0 +
STACK CFI INIT d9bbc 2c .cfa: sp 0 +
STACK CFI INIT d9be8 10 .cfa: sp 0 +
STACK CFI INIT d9bf8 6c .cfa: sp 0 +
STACK CFI INIT d9c64 2c .cfa: sp 0 +
STACK CFI INIT d9c90 c .cfa: sp 0 +
STACK CFI INIT d9c9c 6c .cfa: sp 0 +
STACK CFI INIT d9d08 2c .cfa: sp 0 +
STACK CFI INIT d9d34 c .cfa: sp 0 +
STACK CFI INIT d9d40 2c .cfa: sp 0 +
STACK CFI INIT d9d6c 2c .cfa: sp 0 +
STACK CFI INIT d9d98 2c .cfa: sp 0 +
STACK CFI INIT d9dc4 2c .cfa: sp 0 +
STACK CFI INIT d9df0 2c .cfa: sp 0 +
STACK CFI INIT d9e1c 2c .cfa: sp 0 +
STACK CFI INIT d9e48 2c .cfa: sp 0 +
STACK CFI INIT d9e74 8 .cfa: sp 0 +
STACK CFI INIT d9e7c 2c .cfa: sp 0 +
STACK CFI INIT d9ea8 18 .cfa: sp 0 +
STACK CFI INIT d9ec0 8 .cfa: sp 0 +
STACK CFI INIT d9ec8 2c .cfa: sp 0 +
STACK CFI INIT d9ef4 10 .cfa: sp 0 +
STACK CFI INIT d9f04 18 .cfa: sp 0 +
STACK CFI INIT d9f1c 8 .cfa: sp 0 +
STACK CFI INIT d9f24 2c .cfa: sp 0 +
STACK CFI INIT d9f50 10 .cfa: sp 0 +
STACK CFI INIT d9f60 c .cfa: sp 0 +
STACK CFI INIT d9f6c 24 .cfa: sp 0 +
STACK CFI INIT da0b4 3c .cfa: sp 0 +
STACK CFI INIT da0f0 8 .cfa: sp 0 +
STACK CFI INIT da0f8 84 .cfa: sp 0 +
STACK CFI INIT da1e4 24 .cfa: sp 0 +
STACK CFI INIT da208 c .cfa: sp 0 +
STACK CFI INIT da370 58 .cfa: sp 0 +
STACK CFI INIT da4ac 2c .cfa: sp 0 +
STACK CFI INIT da77c 5c .cfa: sp 0 +
STACK CFI INIT daab4 14 .cfa: sp 0 +
STACK CFI INIT dab08 1c .cfa: sp 0 +
STACK CFI INIT dab24 1c .cfa: sp 0 +
STACK CFI INIT dab40 14 .cfa: sp 0 +
STACK CFI INIT dab84 14 .cfa: sp 0 +
STACK CFI INIT dace8 20 .cfa: sp 0 +
STACK CFI INIT dad08 34 .cfa: sp 0 +
STACK CFI INIT dad3c 34 .cfa: sp 0 +
STACK CFI INIT dad70 24 .cfa: sp 0 +
STACK CFI INIT dad94 8 .cfa: sp 0 +
STACK CFI INIT dad9c 8 .cfa: sp 0 +
STACK CFI INIT dada4 108 .cfa: sp 0 +
STACK CFI INIT db000 3c .cfa: sp 0 +
STACK CFI INIT db0a8 68 .cfa: sp 0 +
STACK CFI INIT db110 58 .cfa: sp 0 +
STACK CFI INIT db168 234 .cfa: sp 0 +
STACK CFI INIT db39c 1cc .cfa: sp 0 +
STACK CFI INIT db568 38 .cfa: sp 0 +
STACK CFI INIT db5a0 3c .cfa: sp 0 +
STACK CFI INIT db5dc 88 .cfa: sp 0 +
STACK CFI INIT db670 34 .cfa: sp 0 +
STACK CFI INIT db6a4 98 .cfa: sp 0 +
STACK CFI INIT db73c 438 .cfa: sp 0 +
STACK CFI db744 .cfa: sp 48 +
STACK CFI db74c x19: .cfa -8 + ^ x20: .cfa -16 + ^ x21: .cfa -24 + ^ x22: .cfa -32 + ^ x23: .cfa -40 + ^ x24: .cfa -48 + ^
STACK CFI db764 .cfa: sp 0 +
STACK CFI db768 .cfa: sp 48 +
STACK CFI dbb54 .cfa: sp 0 +
STACK CFI dbb58 .cfa: sp 48 +
STACK CFI dbb70 .cfa: sp 0 +
STACK CFI INIT dbb74 98 .cfa: sp 0 +
STACK CFI INIT dbc10 2c .cfa: sp 0 +
STACK CFI INIT dbc40 30 .cfa: sp 0 +
STACK CFI INIT dbc70 30 .cfa: sp 0 +
STACK CFI INIT dbca0 30 .cfa: sp 0 +
STACK CFI INIT dc244 1c .cfa: sp 0 +
STACK CFI INIT dc66c 50 .cfa: sp 0 +
STACK CFI dc670 .cfa: sp 32 +
STACK CFI dc678 .cfa: x29 32 + x19: .cfa -16 + ^ .ra: .cfa -24 + ^ x29: .cfa -32 + ^
STACK CFI dc690 .cfa: sp 32 +
STACK CFI dc698 .cfa: sp 0 +
STACK CFI dc69c .cfa: x29 32 +
STACK CFI dc6b0 .cfa: sp 32 +
STACK CFI dc6b8 .cfa: sp 0 +
STACK CFI INIT dc6bc 4 .cfa: sp 0 +
STACK CFI INIT dc6c0 14 .cfa: sp 0 +
STACK CFI dc6c4 .cfa: sp 16 +
STACK CFI dc6c8 .cfa: x29 16 + .ra: .cfa -8 + ^ x29: .cfa -16 + ^
STACK CFI INIT dc724 30 .cfa: sp 0 +
STACK CFI dc728 .cfa: sp 32 +
STACK CFI dc730 .cfa: x29 32 + x19: .cfa -16 + ^ .ra: .cfa -24 + ^ x29: .cfa -32 + ^
STACK CFI dc748 .cfa: sp 32 +
STACK CFI dc750 .cfa: sp 0 +
STACK CFI INIT dc754 34 .cfa: sp 0 +
STACK CFI dc758 .cfa: sp 32 +
STACK CFI dc760 .cfa: x29 32 + x19: .cfa -16 + ^ .ra: .cfa -24 + ^ x29: .cfa -32 + ^
STACK CFI INIT dca14 68 .cfa: sp 0 +
STACK CFI dca18 .cfa: sp 32 +
STACK CFI dca20 .cfa: x29 32 + x19: .cfa -8 + ^ x20: .cfa -16 + ^ .ra: .cfa -24 + ^ x29: .cfa -32 + ^
STACK CFI dca38 .cfa: sp 32 +
STACK CFI dca40 .cfa: sp 0 +
STACK CFI dca44 .cfa: x29 32 +
STACK CFI dca70 .cfa: sp 32 +
STACK CFI dca78 .cfa: sp 0 +
STACK CFI INIT dca7c 14 .cfa: sp 0 +
STACK CFI dca80 .cfa: sp 16 +
STACK CFI dca84 .cfa: x29 16 + .ra: .cfa -8 + ^ x29: .cfa -16 + ^
STACK CFI INIT dca90 10c .cfa: sp 0 +
STACK CFI dca94 .cfa: sp 64 +
STACK CFI dcaa4 .cfa: x29 64 + x19: .cfa -8 + ^ x20: .cfa -16 + ^ x21: .cfa -24 + ^ x22: .cfa -32 + ^ x23: .cfa -40 + ^ x24: .cfa -48 + ^ .ra: .cfa -56 + ^ x29: .cfa -64 + ^
STACK CFI dcb88 .cfa: sp 64 +
STACK CFI dcb98 .cfa: sp 0 +
STACK CFI INIT dcb9c d4 .cfa: sp 0 +
STACK CFI dcba0 .cfa: sp 48 +
STACK CFI dcbac .cfa: x29 48 + x19: .cfa -8 + ^ x20: .cfa -16 + ^ x21: .cfa -32 + ^ .ra: .cfa -40 + ^ x29: .cfa -48 + ^
STACK CFI dcc3c .cfa: sp 48 +
STACK CFI dcc48 .cfa: sp 0 +
STACK CFI dcc4c .cfa: x29 48 +
STACK CFI INIT dcc70 3c8 .cfa: sp 0 +
STACK CFI INIT dd038 8c .cfa: sp 0 +
STACK CFI dd040 .cfa: sp 32 +
STACK CFI dd048 .cfa: x29 32 + x19: .cfa -8 + ^ x20: .cfa -16 + ^ .ra: .cfa -24 + ^ x29: .cfa -32 + ^
STACK CFI dd090 .cfa: sp 32 +
STACK CFI dd098 .cfa: sp 0 +
STACK CFI dd0a0 .cfa: x29 32 +
STACK CFI INIT dd2d8 50 .cfa: sp 0 +
STACK CFI dd2dc .cfa: sp 32 +
STACK CFI dd2e4 .cfa: x29 32 + x19: .cfa -16 + ^ .ra: .cfa -24 + ^ x29: .cfa -32 + ^
STACK CFI dd2fc .cfa: sp 32 +
STACK CFI dd304 .cfa: sp 0 +
STACK CFI dd308 .cfa: x29 32 +
STACK CFI dd31c .cfa: sp 32 +
STACK CFI dd324 .cfa: sp 0 +
STACK CFI INIT dd328 64 .cfa: sp 0 +
STACK CFI dd32c .cfa: sp 32 +
STACK CFI dd334 .cfa: x29 32 + x19: .cfa -16 + ^ .ra: .cfa -24 + ^ x29: .cfa -32 + ^
STACK CFI dd360 .cfa: sp 32 +
STACK CFI dd368 .cfa: sp 0 +
STACK CFI dd36c .cfa: x29 32 +
STACK CFI dd380 .cfa: sp 32 +
STACK CFI dd388 .cfa: sp 0 +
STACK CFI INIT dd494 8 .cfa: sp 0 +
STACK CFI INIT ddab4 4 .cfa: sp 0 +
STACK CFI INIT ddab8 8 .cfa: sp 0 +
STACK CFI INIT ddbb0 4 .cfa: sp 0 +
STACK CFI INIT ddbb4 4 .cfa: sp 0 +
STACK CFI INIT ddbb8 4 .cfa: sp 0 +
STACK CFI INIT ddbbc 4 .cfa: sp 0 +
STACK CFI INIT ddbc0 4 .cfa: sp 0 +
STACK CFI INIT ddbc4 8 .cfa: sp 0 +
STACK CFI INIT ddbcc 128 .cfa: sp 0 +
STACK CFI ddbd0 .cfa: sp 80 +
STACK CFI ddbe0 .cfa: x29 48 + x19: .cfa -8 + ^ x20: .cfa -16 + ^ x21: .cfa -32 + ^ .ra: .cfa -40 + ^ x29: .cfa -48 + ^
STACK CFI ddcdc .cfa: sp 80 +
STACK CFI ddcec .cfa: sp 0 +
STACK CFI ddcf0 .cfa: x29 48 +
STACK CFI INIT de058 8c .cfa: sp 0 +
STACK CFI de05c .cfa: sp 48 +
STACK CFI de068 .cfa: x29 48 + x19: .cfa -8 + ^ x20: .cfa -16 + ^ x21: .cfa -32 + ^ .ra: .cfa -40 + ^ x29: .cfa -48 + ^
STACK CFI de0d4 .cfa: sp 48 +
STACK CFI de0e0 .cfa: sp 0 +
STACK CFI INIT de1fc 94 .cfa: sp 0 +
STACK CFI de200 .cfa: sp 48 +
STACK CFI de20c .cfa: x29 48 + x19: .cfa -8 + ^ x20: .cfa -16 + ^ x21: .cfa -32 + ^ .ra: .cfa -40 + ^ x29: .cfa -48 + ^
STACK CFI de280 .cfa: sp 48 +
STACK CFI de28c .cfa: sp 0 +
STACK CFI INIT de290 8c .cfa: sp 0 +
STACK CFI de294 .cfa: sp 48 +
STACK CFI de2a0 .cfa: x29 48 + x19: .cfa -8 + ^ x20: .cfa -16 + ^ x21: .cfa -32 + ^ .ra: .cfa -40 + ^ x29: .cfa -48 + ^
STACK CFI de30c .cfa: sp 48 +
STACK CFI de318 .cfa: sp 0 +
STACK CFI INIT de31c 94 .cfa: sp 0 +
STACK CFI de320 .cfa: sp 48 +
STACK CFI de32c .cfa: x29 48 + x19: .cfa -8 + ^ x20: .cfa -16 + ^ x21: .cfa -32 + ^ .ra: .cfa -40 + ^ x29: .cfa -48 + ^
STACK CFI de3a0 .cfa: sp 48 +
STACK CFI de3ac .cfa: sp 0 +
STACK CFI INIT de3b0 94 .cfa: sp 0 +
STACK CFI de3b4 .cfa: sp 48 +
STACK CFI de3c0 .cfa: x29 48 + x19: .cfa -8 + ^ x20: .cfa -16 + ^ x21: .cfa -32 + ^ .ra: .cfa -40 + ^ x29: .cfa -48 + ^
STACK CFI de434 .cfa: sp 48 +
STACK CFI de440 .cfa: sp 0 +
STACK CFI INIT de444 9c .cfa: sp 0 +
STACK CFI de448 .cfa: sp 48 +
STACK CFI de454 .cfa: x29 48 + x19: .cfa -8 + ^ x20: .cfa -16 + ^ x21: .cfa -32 + ^ .ra: .cfa -40 + ^ x29: .cfa -48 + ^
STACK CFI de4d0 .cfa: sp 48 +
STACK CFI de4dc .cfa: sp 0 +
STACK CFI INIT de4e0 40 .cfa: sp 0 +
STACK CFI de4e4 .cfa: sp 32 +
STACK CFI de4ec .cfa: x29 32 + x19: .cfa -16 + ^ .ra: .cfa -24 + ^ x29: .cfa -32 + ^
STACK CFI de514 .cfa: sp 32 +
STACK CFI de51c .cfa: sp 0 +
STACK CFI INIT de520 48 .cfa: sp 0 +
STACK CFI de524 .cfa: sp 32 +
STACK CFI de52c .cfa: x29 32 + x19: .cfa -16 + ^ .ra: .cfa -24 + ^ x29: .cfa -32 + ^
STACK CFI de55c .cfa: sp 32 +
STACK CFI de564 .cfa: sp 0 +
STACK CFI INIT de568 124 .cfa: sp 0 +
STACK CFI INIT de68c 14 .cfa: sp 0 +
STACK CFI INIT de6a0 50 .cfa: sp 0 +
STACK CFI INIT de6f0 70 .cfa: sp 0 +
STACK CFI INIT de944 214 .cfa: sp 0 +
STACK CFI de948 .cfa: sp 80 +
STACK CFI de95c .cfa: x29 80 + x19: .cfa -8 + ^ x20: .cfa -16 + ^ x21: .cfa -24 + ^ x22: .cfa -32 + ^ x23: .cfa -40 + ^ x24: .cfa -48 + ^ x25: .cfa -64 + ^ .ra: .cfa -72 + ^ x29: .cfa -80 + ^
STACK CFI de974 .cfa: sp 80 +
STACK CFI de988 .cfa: sp 0 +
STACK CFI de98c .cfa: x29 80 +
STACK CFI deb38 .cfa: sp 80 +
STACK CFI deb4c .cfa: sp 0 +
STACK CFI deb50 .cfa: x29 80 +
STACK CFI INIT deb58 104 .cfa: sp 0 +
STACK CFI deb5c .cfa: sp 80 +
STACK CFI deb70 .cfa: x29 80 + x19: .cfa -8 + ^ x20: .cfa -16 + ^ x21: .cfa -24 + ^ x22: .cfa -32 + ^ x23: .cfa -40 + ^ x24: .cfa -48 + ^ x25: .cfa -56 + ^ x26: .cfa -64 + ^ .ra: .cfa -72 + ^ x29: .cfa -80 + ^
STACK CFI dec44 .cfa: sp 80 +
STACK CFI dec58 .cfa: sp 0 +
STACK CFI INIT dec5c 1b4 .cfa: sp 0 +
STACK CFI INIT df384 1c .cfa: sp 0 +
STACK CFI INIT df948 1c .cfa: sp 0 +
STACK CFI INIT dfd70 4 .cfa: sp 0 +
STACK CFI INIT e0370 4 .cfa: sp 0 +
STACK CFI INIT e084c 30 .cfa: sp 0 +
STACK CFI e0850 .cfa: sp 32 +
STACK CFI e0858 .cfa: x29 32 + x19: .cfa -16 + ^ .ra: .cfa -24 + ^ x29: .cfa -32 + ^
STACK CFI e0870 .cfa: sp 32 +
STACK CFI e0878 .cfa: sp 0 +
STACK CFI INIT e087c 38 .cfa: sp 0 +
STACK CFI e0884 .cfa: sp 32 +
STACK CFI e088c .cfa: x29 32 + x19: .cfa -16 + ^ .ra: .cfa -24 + ^ x29: .cfa -32 + ^
STACK CFI e08a4 .cfa: sp 32 +
STACK CFI e08ac .cfa: sp 0 +
STACK CFI INIT e08b4 3c .cfa: sp 0 +
STACK CFI e08b8 .cfa: sp 32 +
STACK CFI e08c0 .cfa: x29 32 + x19: .cfa -16 + ^ .ra: .cfa -24 + ^ x29: .cfa -32 + ^
STACK CFI e08cc .cfa: sp 32 +
STACK CFI e08d4 .cfa: sp 0 +
STACK CFI e08d8 .cfa: x29 32 +
STACK CFI e08e4 .cfa: sp 32 +
STACK CFI e08ec .cfa: sp 0 +
STACK CFI INIT e0ba4 10 .cfa: sp 0 +
STACK CFI e0ba8 .cfa: sp 16 +
STACK CFI e0bac .cfa: x29 16 + .ra: .cfa -8 + ^ x29: .cfa -16 + ^
STACK CFI INIT e0cf0 bc .cfa: sp 0 +
STACK CFI e0cf4 .cfa: sp 48 +
STACK CFI e0d00 .cfa: x29 48 + x19: .cfa -8 + ^ x20: .cfa -16 + ^ x21: .cfa -24 + ^ x22: .cfa -32 + ^ .ra: .cfa -40 + ^ x29: .cfa -48 + ^
STACK CFI e0d14 .cfa: sp 48 +
STACK CFI e0d20 .cfa: sp 0 +
STACK CFI e0d24 .cfa: x29 48 +
STACK CFI e0d3c .cfa: sp 48 +
STACK CFI e0d48 .cfa: sp 0 +
STACK CFI e0d4c .cfa: x29 48 +
STACK CFI e0d94 .cfa: sp 48 +
STACK CFI e0da0 .cfa: sp 0 +
STACK CFI e0da4 .cfa: x29 48 +
STACK CFI INIT e0eac 64 .cfa: sp 0 +
STACK CFI e0eb0 .cfa: sp 32 +
STACK CFI e0eb8 .cfa: x29 32 + x19: .cfa -16 + ^ .ra: .cfa -24 + ^ x29: .cfa -32 + ^
STACK CFI e0ee4 .cfa: sp 32 +
STACK CFI e0eec .cfa: sp 0 +
STACK CFI e0ef0 .cfa: x29 32 +
STACK CFI e0f04 .cfa: sp 32 +
STACK CFI e0f0c .cfa: sp 0 +
STACK CFI INIT e0f10 24 .cfa: sp 0 +
STACK CFI e0f14 .cfa: sp 32 +
STACK CFI e0f1c .cfa: x29 32 + x19: .cfa -16 + ^ .ra: .cfa -24 + ^ x29: .cfa -32 + ^
STACK CFI e0f28 .cfa: sp 32 +
STACK CFI e0f30 .cfa: sp 0 +
STACK CFI INIT e0f34 8 .cfa: sp 0 +
STACK CFI INIT e0f3c 24 .cfa: sp 0 +
STACK CFI e0f40 .cfa: sp 32 +
STACK CFI e0f48 .cfa: x29 32 + x19: .cfa -16 + ^ .ra: .cfa -24 + ^ x29: .cfa -32 + ^
STACK CFI e0f54 .cfa: sp 32 +
STACK CFI e0f5c .cfa: sp 0 +
STACK CFI INIT e0f60 28 .cfa: sp 0 +
STACK CFI e0f64 .cfa: sp 32 +
STACK CFI e0f6c .cfa: x29 32 + x19: .cfa -16 + ^ .ra: .cfa -24 + ^ x29: .cfa -32 + ^
STACK CFI e0f7c .cfa: sp 32 +
STACK CFI e0f84 .cfa: sp 0 +
STACK CFI INIT e0f88 24 .cfa: sp 0 +
STACK CFI e0f8c .cfa: sp 32 +
STACK CFI e0f94 .cfa: x29 32 + x19: .cfa -16 + ^ .ra: .cfa -24 + ^ x29: .cfa -32 + ^
STACK CFI e0fa0 .cfa: sp 32 +
STACK CFI e0fa8 .cfa: sp 0 +
STACK CFI INIT e18a0 8 .cfa: sp 0 +
STACK CFI INIT e18a8 24 .cfa: sp 0 +
STACK CFI e18ac .cfa: sp 32 +
STACK CFI e18b4 .cfa: x29 32 + x19: .cfa -16 + ^ .ra: .cfa -24 + ^ x29: .cfa -32 + ^
STACK CFI e18c0 .cfa: sp 32 +
STACK CFI e18c8 .cfa: sp 0 +
STACK CFI INIT e18cc 28 .cfa: sp 0 +
STACK CFI e18d0 .cfa: sp 32 +
STACK CFI e18d8 .cfa: x29 32 + x19: .cfa -16 + ^ .ra: .cfa -24 + ^ x29: .cfa -32 + ^
STACK CFI e18e8 .cfa: sp 32 +
STACK CFI e18f0 .cfa: sp 0 +
STACK CFI INIT e18f4 8 .cfa: sp 0 +
STACK CFI INIT e18fc 24 .cfa: sp 0 +
STACK CFI e1900 .cfa: sp 32 +
STACK CFI e1908 .cfa: x29 32 + x19: .cfa -16 + ^ .ra: .cfa -24 + ^ x29: .cfa -32 + ^
STACK CFI e1914 .cfa: sp 32 +
STACK CFI e191c .cfa: sp 0 +
STACK CFI INIT e1920 28 .cfa: sp 0 +
STACK CFI e1924 .cfa: sp 32 +
STACK CFI e192c .cfa: x29 32 + x19: .cfa -16 + ^ .ra: .cfa -24 + ^ x29: .cfa -32 + ^
STACK CFI e193c .cfa: sp 32 +
STACK CFI e1944 .cfa: sp 0 +
STACK CFI INIT e1f30 4 .cfa: sp 0 +
STACK CFI INIT e2730 3c .cfa: sp 0 +
STACK CFI e2734 .cfa: sp 32 +
STACK CFI e273c .cfa: x29 32 + x19: .cfa -16 + ^ .ra: .cfa -24 + ^ x29: .cfa -32 + ^
STACK CFI e2760 .cfa: sp 32 +
STACK CFI e2768 .cfa: sp 0 +
STACK CFI INIT e276c 44 .cfa: sp 0 +
STACK CFI e2770 .cfa: sp 32 +
STACK CFI e2778 .cfa: x29 32 + x19: .cfa -16 + ^ .ra: .cfa -24 + ^ x29: .cfa -32 + ^
STACK CFI e27a4 .cfa: sp 32 +
STACK CFI e27ac .cfa: sp 0 +
STACK CFI INIT 7f488 78 .cfa: sp 0 +
STACK CFI INIT 7f53c 58 .cfa: sp 0 +
STACK CFI INIT 7f594 20 .cfa: sp 0 +
STACK CFI INIT 7fcec 54 .cfa: sp 0 +
STACK CFI INIT 7ffe8 24 .cfa: sp 0 +
STACK CFI INIT 8000c 24 .cfa: sp 0 +
STACK CFI INIT 80104 28 .cfa: sp 0 +
STACK CFI INIT 8012c 20 .cfa: sp 0 +
STACK CFI INIT 801f0 20 .cfa: sp 0 +
STACK CFI INIT 8023c 20 .cfa: sp 0 +
STACK CFI INIT 8025c 28 .cfa: sp 0 +
STACK CFI INIT 802a0 54 .cfa: sp 0 +
STACK CFI INIT 802f4 94 .cfa: sp 0 +
STACK CFI INIT 80388 2c .cfa: sp 0 +
STACK CFI INIT 803b4 60 .cfa: sp 0 +
STACK CFI INIT 80414 54 .cfa: sp 0 +
STACK CFI INIT 80484 54 .cfa: sp 0 +
STACK CFI INIT 804d8 fc .cfa: sp 0 +
STACK CFI INIT 805d4 98 .cfa: sp 0 +
STACK CFI INIT 8066c 7c .cfa: sp 0 +
STACK CFI INIT 806e8 118 .cfa: sp 0 +
STACK CFI INIT 80800 20 .cfa: sp 0 +
STACK CFI INIT 80820 20 .cfa: sp 0 +
STACK CFI INIT 80840 4c .cfa: sp 0 +
STACK CFI INIT 8088c a0 .cfa: sp 0 +
STACK CFI INIT 8092c 90 .cfa: sp 0 +
STACK CFI INIT 809bc 20 .cfa: sp 0 +
STACK CFI INIT 80a54 94 .cfa: sp 0 +
STACK CFI INIT 80ae8 88 .cfa: sp 0 +
STACK CFI INIT 80c18 94 .cfa: sp 0 +
STACK CFI INIT 80cac 88 .cfa: sp 0 +
STACK CFI INIT 8207c 114 .cfa: sp 0 +
STACK CFI INIT 82c00 a8 .cfa: sp 0 +
STACK CFI INIT 846b4 148 .cfa: sp 0 +
STACK CFI INIT 85468 ac .cfa: sp 0 +
STACK CFI INIT 85f84 ec .cfa: sp 0 +
STACK CFI INIT 86070 e4 .cfa: sp 0 +
STACK CFI INIT 86154 e8 .cfa: sp 0 +
STACK CFI INIT 8623c e8 .cfa: sp 0 +
STACK CFI INIT 86324 ec .cfa: sp 0 +
STACK CFI INIT 86410 dc .cfa: sp 0 +
STACK CFI INIT 864ec dc .cfa: sp 0 +
STACK CFI INIT 865c8 d8 .cfa: sp 0 +
STACK CFI INIT 866a0 f4 .cfa: sp 0 +
STACK CFI INIT 86794 ec .cfa: sp 0 +
STACK CFI INIT 86880 f0 .cfa: sp 0 +
STACK CFI INIT 86970 f0 .cfa: sp 0 +
STACK CFI INIT 86a60 f4 .cfa: sp 0 +
STACK CFI INIT 86b54 e4 .cfa: sp 0 +
STACK CFI INIT 86c38 e4 .cfa: sp 0 +
STACK CFI INIT 86d1c e0 .cfa: sp 0 +
STACK CFI INIT 884e4 1a0 .cfa: sp 0 +
STACK CFI INIT 88684 19c .cfa: sp 0 +
STACK CFI INIT 88820 194 .cfa: sp 0 +
STACK CFI INIT 889b4 1c4 .cfa: sp 0 +
STACK CFI INIT 88b78 1c0 .cfa: sp 0 +
STACK CFI INIT 88d38 1b8 .cfa: sp 0 +
STACK CFI INIT 88ef0 138 .cfa: sp 0 +
STACK CFI INIT 89028 138 .cfa: sp 0 +
STACK CFI INIT 899ac f4 .cfa: sp 0 +
STACK CFI INIT 89aa0 148 .cfa: sp 0 +
STACK CFI INIT 89be8 14c .cfa: sp 0 +
STACK CFI INIT 89d34 d4 .cfa: sp 0 +
STACK CFI INIT 89e08 15c .cfa: sp 0 +
STACK CFI INIT 89f64 160 .cfa: sp 0 +
STACK CFI INIT 8a0c4 e8 .cfa: sp 0 +
STACK CFI INIT 8a1e0 a8 .cfa: sp 0 +
STACK CFI INIT 8a358 2c .cfa: sp 0 +
STACK CFI INIT 8a400 94 .cfa: sp 0 +
STACK CFI INIT 8a4c8 cc .cfa: sp 0 +
STACK CFI INIT 8ab8c 8c .cfa: sp 0 +
STACK CFI INIT 8ac5c 90 .cfa: sp 0 +
STACK CFI INIT 8acec ac .cfa: sp 0 +
STACK CFI INIT 8ad98 98 .cfa: sp 0 +
STACK CFI INIT 8ae30 a8 .cfa: sp 0 +
STACK CFI INIT 8aed8 a8 .cfa: sp 0 +
STACK CFI INIT 8afc8 ec .cfa: sp 0 +
STACK CFI INIT 8b210 78 .cfa: sp 0 +
STACK CFI INIT 8b2dc 8c .cfa: sp 0 +
STACK CFI INIT 8b3bc 188 .cfa: sp 0 +
STACK CFI INIT 8b570 9c .cfa: sp 0 +
STACK CFI INIT 8b60c 60 .cfa: sp 0 +
STACK CFI INIT 8b694 60 .cfa: sp 0 +
STACK CFI INIT 8b9e8 58 .cfa: sp 0 +
STACK CFI INIT 8ba94 a8 .cfa: sp 0 +
STACK CFI INIT 8bb3c 24 .cfa: sp 0 +
STACK CFI INIT 8bbf4 58 .cfa: sp 0 +
STACK CFI INIT 8be6c 94 .cfa: sp 0 +
STACK CFI INIT 8c240 8c .cfa: sp 0 +
STACK CFI INIT 8c33c bc .cfa: sp 0 +
STACK CFI INIT 8c444 2d0 .cfa: sp 0 +
STACK CFI INIT 8d1d4 68 .cfa: sp 0 +
STACK CFI INIT 8d33c 1cc .cfa: sp 0 +
STACK CFI INIT 8d508 f8 .cfa: sp 0 +
STACK CFI INIT 8d67c 198 .cfa: sp 0 +
STACK CFI INIT 8d81c 130 .cfa: sp 0 +
STACK CFI INIT 8d954 170 .cfa: sp 0 +
STACK CFI INIT 8dacc 130 .cfa: sp 0 +
STACK CFI INIT 8dc04 174 .cfa: sp 0 +
STACK CFI INIT 8dd80 130 .cfa: sp 0 +
STACK CFI INIT 8deb8 130 .cfa: sp 0 +
STACK CFI INIT 8dff0 130 .cfa: sp 0 +
STACK CFI INIT 8e128 130 .cfa: sp 0 +
STACK CFI INIT 8e260 130 .cfa: sp 0 +
STACK CFI INIT 8e398 130 .cfa: sp 0 +
STACK CFI INIT 8e4d0 130 .cfa: sp 0 +
STACK CFI INIT 8e608 130 .cfa: sp 0 +
STACK CFI INIT 8e740 130 .cfa: sp 0 +
STACK CFI INIT 8e870 12c .cfa: sp 0 +
STACK CFI INIT 8e9d8 a4 .cfa: sp 0 +
STACK CFI INIT 8ea7c 1e0 .cfa: sp 0 +
STACK CFI INIT 8ec5c 94 .cfa: sp 0 +
STACK CFI INIT 8ecf0 15c .cfa: sp 0 +
STACK CFI INIT 8ee4c a4 .cfa: sp 0 +
STACK CFI INIT 8eef0 218 .cfa: sp 0 +
STACK CFI INIT 8f108 1a4 .cfa: sp 0 +
STACK CFI INIT 8f2ac 114 .cfa: sp 0 +
STACK CFI INIT 8f3c0 f8 .cfa: sp 0 +
STACK CFI INIT 8f4b8 150 .cfa: sp 0 +
STACK CFI INIT 8f608 134 .cfa: sp 0 +
STACK CFI INIT 8f73c 128 .cfa: sp 0 +
STACK CFI INIT 8f864 f0 .cfa: sp 0 +
STACK CFI INIT 8f954 fc .cfa: sp 0 +
STACK CFI INIT 8fa50 110 .cfa: sp 0 +
STACK CFI INIT 8fb60 110 .cfa: sp 0 +
STACK CFI INIT 8fcc8 68 .cfa: sp 0 +
STACK CFI INIT 8fe8c a8 .cfa: sp 0 +
STACK CFI INIT 8ffb0 18c .cfa: sp 0 +
STACK CFI INIT 9013c 1b4 .cfa: sp 0 +
STACK CFI INIT 902f0 18c .cfa: sp 0 +
STACK CFI INIT 9047c 1b4 .cfa: sp 0 +
STACK CFI INIT 90630 18c .cfa: sp 0 +
STACK CFI INIT 907bc 18c .cfa: sp 0 +
STACK CFI INIT 90948 18c .cfa: sp 0 +
STACK CFI INIT 90ad4 18c .cfa: sp 0 +
STACK CFI INIT 90c60 18c .cfa: sp 0 +
STACK CFI INIT 90dec 194 .cfa: sp 0 +
STACK CFI INIT 90f80 194 .cfa: sp 0 +
STACK CFI INIT 91114 18c .cfa: sp 0 +
STACK CFI INIT 912a0 18c .cfa: sp 0 +
STACK CFI INIT 9142c 214 .cfa: sp 0 +
STACK CFI INIT 91640 10c .cfa: sp 0 +
STACK CFI INIT 9174c ec .cfa: sp 0 +
STACK CFI INIT 9189c c4 .cfa: sp 0 +
STACK CFI INIT 91960 c4 .cfa: sp 0 +
STACK CFI INIT 91ac4 84 .cfa: sp 0 +
STACK CFI INIT 924bc 68 .cfa: sp 0 +
STACK CFI INIT 92624 218 .cfa: sp 0 +
STACK CFI INIT 9283c f8 .cfa: sp 0 +
STACK CFI INIT 929b0 194 .cfa: sp 0 +
STACK CFI INIT 92b4c 130 .cfa: sp 0 +
STACK CFI INIT 92c84 170 .cfa: sp 0 +
STACK CFI INIT 92dfc 130 .cfa: sp 0 +
STACK CFI INIT 92f34 174 .cfa: sp 0 +
STACK CFI INIT 930b0 130 .cfa: sp 0 +
STACK CFI INIT 931e8 130 .cfa: sp 0 +
STACK CFI INIT 93320 130 .cfa: sp 0 +
STACK CFI INIT 93458 130 .cfa: sp 0 +
STACK CFI INIT 93590 130 .cfa: sp 0 +
STACK CFI INIT 936c8 130 .cfa: sp 0 +
STACK CFI INIT 93800 130 .cfa: sp 0 +
STACK CFI INIT 93938 130 .cfa: sp 0 +
STACK CFI INIT 93a70 130 .cfa: sp 0 +
STACK CFI INIT 93ba0 12c .cfa: sp 0 +
STACK CFI INIT 93d08 a4 .cfa: sp 0 +
STACK CFI INIT 93dac 1d4 .cfa: sp 0 +
STACK CFI INIT 93f80 94 .cfa: sp 0 +
STACK CFI INIT 94014 164 .cfa: sp 0 +
STACK CFI INIT 94178 a4 .cfa: sp 0 +
STACK CFI INIT 9421c 210 .cfa: sp 0 +
STACK CFI INIT 9442c 194 .cfa: sp 0 +
STACK CFI INIT 945c0 114 .cfa: sp 0 +
STACK CFI INIT 946d4 f8 .cfa: sp 0 +
STACK CFI INIT 947cc 154 .cfa: sp 0 +
STACK CFI INIT 94920 140 .cfa: sp 0 +
STACK CFI INIT 94a60 134 .cfa: sp 0 +
STACK CFI INIT 94b94 f0 .cfa: sp 0 +
STACK CFI INIT 94c84 fc .cfa: sp 0 +
STACK CFI INIT 94d80 110 .cfa: sp 0 +
STACK CFI INIT 94e90 110 .cfa: sp 0 +
STACK CFI INIT 94ff8 68 .cfa: sp 0 +
STACK CFI INIT 951bc a8 .cfa: sp 0 +
STACK CFI INIT 952e0 18c .cfa: sp 0 +
STACK CFI INIT 9546c 1b4 .cfa: sp 0 +
STACK CFI INIT 95620 18c .cfa: sp 0 +
STACK CFI INIT 957ac 1b4 .cfa: sp 0 +
STACK CFI INIT 95960 18c .cfa: sp 0 +
STACK CFI INIT 95aec 18c .cfa: sp 0 +
STACK CFI INIT 95c78 18c .cfa: sp 0 +
STACK CFI INIT 95e04 18c .cfa: sp 0 +
STACK CFI INIT 95f90 18c .cfa: sp 0 +
STACK CFI INIT 9611c 194 .cfa: sp 0 +
STACK CFI INIT 962b0 194 .cfa: sp 0 +
STACK CFI INIT 96444 18c .cfa: sp 0 +
STACK CFI INIT 965d0 18c .cfa: sp 0 +
STACK CFI INIT 9675c 240 .cfa: sp 0 +
STACK CFI INIT 9699c 114 .cfa: sp 0 +
STACK CFI INIT 96ab0 ec .cfa: sp 0 +
STACK CFI INIT 96c00 c4 .cfa: sp 0 +
STACK CFI INIT 96cc4 c4 .cfa: sp 0 +
STACK CFI INIT 96d88 214 .cfa: sp 0 +
STACK CFI INIT 96f9c 208 .cfa: sp 0 +
STACK CFI INIT 971a4 308 .cfa: sp 0 +
STACK CFI INIT 97ae4 134 .cfa: sp 0 +
STACK CFI INIT 97dac d4 .cfa: sp 0 +
STACK CFI INIT 97e80 8c .cfa: sp 0 +
STACK CFI INIT 99778 29c .cfa: sp 0 +
STACK CFI INIT 99a14 4b4 .cfa: sp 0 +
STACK CFI INIT 99ed0 59c .cfa: sp 0 +
STACK CFI INIT 9a474 59c .cfa: sp 0 +
STACK CFI INIT 9aa18 59c .cfa: sp 0 +
STACK CFI INIT 9afbc 59c .cfa: sp 0 +
STACK CFI INIT 9b560 59c .cfa: sp 0 +
STACK CFI INIT 9bb04 59c .cfa: sp 0 +
STACK CFI INIT 9c0a8 584 .cfa: sp 0 +
STACK CFI INIT 9c634 584 .cfa: sp 0 +
STACK CFI INIT 9cbc0 584 .cfa: sp 0 +
STACK CFI INIT 9d144 5a4 .cfa: sp 0 +
STACK CFI INIT 9da04 b4 .cfa: sp 0 +
STACK CFI INIT 9dab8 a0 .cfa: sp 0 +
STACK CFI INIT 9db58 29c .cfa: sp 0 +
STACK CFI INIT 9ddf4 4bc .cfa: sp 0 +
STACK CFI INIT 9e2b8 598 .cfa: sp 0 +
STACK CFI INIT 9e858 598 .cfa: sp 0 +
STACK CFI INIT 9edf8 598 .cfa: sp 0 +
STACK CFI INIT 9f398 598 .cfa: sp 0 +
STACK CFI INIT 9f938 598 .cfa: sp 0 +
STACK CFI INIT 9fed8 598 .cfa: sp 0 +
STACK CFI INIT a0478 57c .cfa: sp 0 +
STACK CFI INIT a09fc 57c .cfa: sp 0 +
STACK CFI INIT a0f80 57c .cfa: sp 0 +
STACK CFI INIT a14fc 5a0 .cfa: sp 0 +
STACK CFI INIT a1e18 1b0 .cfa: sp 0 +
STACK CFI INIT a23d4 188 .cfa: sp 0 +
STACK CFI INIT a255c 1b0 .cfa: sp 0 +
STACK CFI INIT a2b90 188 .cfa: sp 0 +
STACK CFI INIT a2d18 200 .cfa: sp 0 +
STACK CFI INIT a2f28 240 .cfa: sp 0 +
STACK CFI INIT a3178 240 .cfa: sp 0 +
STACK CFI INIT a33c8 224 .cfa: sp 0 +
STACK CFI INIT a35fc 224 .cfa: sp 0 +
STACK CFI INIT a3830 4b4 .cfa: sp 0 +
STACK CFI INIT a3cf4 4ac .cfa: sp 0 +
STACK CFI INIT a41a0 234 .cfa: sp 0 +
STACK CFI INIT a43d4 c0 .cfa: sp 0 +
STACK CFI INIT a4504 184 .cfa: sp 0 +
STACK CFI INIT a4688 200 .cfa: sp 0 +
STACK CFI INIT a4898 240 .cfa: sp 0 +
STACK CFI INIT a4ae8 240 .cfa: sp 0 +
STACK CFI INIT a4d38 224 .cfa: sp 0 +
STACK CFI INIT a4f6c 224 .cfa: sp 0 +
STACK CFI INIT a51a0 4b4 .cfa: sp 0 +
STACK CFI INIT a5664 4ac .cfa: sp 0 +
STACK CFI INIT a5b10 240 .cfa: sp 0 +
STACK CFI INIT a5d50 200 .cfa: sp 0 +
STACK CFI INIT a5f50 410 .cfa: sp 0 +
STACK CFI INIT a6360 634 .cfa: sp 0 +
STACK CFI INIT a6994 40c .cfa: sp 0 +
STACK CFI INIT a6da0 634 .cfa: sp 0 +
STACK CFI INIT a73d4 4f0 .cfa: sp 0 +
STACK CFI INIT a79a0 164 .cfa: sp 0 +
STACK CFI INIT a7bc0 160 .cfa: sp 0 +
STACK CFI INIT a7dd8 128 .cfa: sp 0 +
STACK CFI INIT a7f68 684 .cfa: sp 0 +
STACK CFI INIT a9274 558 .cfa: sp 0 +
STACK CFI INIT a98a8 164 .cfa: sp 0 +
STACK CFI INIT a9ac8 160 .cfa: sp 0 +
STACK CFI INIT a9ce0 128 .cfa: sp 0 +
STACK CFI INIT a9e70 674 .cfa: sp 0 +
STACK CFI INIT ab20c 2ac .cfa: sp 0 +
STACK CFI INIT ab5fc 2bc .cfa: sp 0 +
STACK CFI INIT ab984 f8 .cfa: sp 0 +
STACK CFI INIT ac904 418 .cfa: sp 0 +
STACK CFI INIT acd24 1448 .cfa: sp 0 +
STACK CFI INIT ae16c 54 .cfa: sp 0 +
STACK CFI INIT ae1c0 2e8 .cfa: sp 0 +
STACK CFI INIT ae4a8 2b8 .cfa: sp 0 +
STACK CFI INIT aea9c 41c .cfa: sp 0 +
STACK CFI INIT aeeb8 1470 .cfa: sp 0 +
STACK CFI INIT b0328 2d8 .cfa: sp 0 +
STACK CFI INIT b0600 38c .cfa: sp 0 +
STACK CFI INIT b0bcc 4d0 .cfa: sp 0 +
STACK CFI INIT b109c cc .cfa: sp 0 +
STACK CFI INIT b1844 3d0 .cfa: sp 0 +
STACK CFI INIT b1c14 4dc .cfa: sp 0 +
STACK CFI INIT b2824 3d8 .cfa: sp 0 +
STACK CFI INIT b2ec8 5b8 .cfa: sp 0 +
STACK CFI INIT b3510 134 .cfa: sp 0 +
STACK CFI INIT b3644 134 .cfa: sp 0 +
STACK CFI INIT b3778 134 .cfa: sp 0 +
STACK CFI INIT b38ac 134 .cfa: sp 0 +
STACK CFI INIT b39e0 134 .cfa: sp 0 +
STACK CFI INIT b3b14 134 .cfa: sp 0 +
STACK CFI INIT b3c48 134 .cfa: sp 0 +
STACK CFI INIT b3d7c 134 .cfa: sp 0 +
STACK CFI INIT b3eb0 134 .cfa: sp 0 +
STACK CFI INIT b3fe4 134 .cfa: sp 0 +
STACK CFI INIT b4118 134 .cfa: sp 0 +
STACK CFI INIT b424c 134 .cfa: sp 0 +
STACK CFI INIT b4380 134 .cfa: sp 0 +
STACK CFI INIT b44b4 134 .cfa: sp 0 +
STACK CFI INIT b45e8 134 .cfa: sp 0 +
STACK CFI INIT b471c 134 .cfa: sp 0 +
STACK CFI INIT b4850 134 .cfa: sp 0 +
STACK CFI INIT b4984 134 .cfa: sp 0 +
STACK CFI INIT b4ab8 134 .cfa: sp 0 +
STACK CFI INIT b4bec 134 .cfa: sp 0 +
STACK CFI INIT b4d20 134 .cfa: sp 0 +
STACK CFI INIT b4e54 134 .cfa: sp 0 +
STACK CFI INIT b4f88 134 .cfa: sp 0 +
STACK CFI INIT b50bc 134 .cfa: sp 0 +
STACK CFI INIT b51f0 134 .cfa: sp 0 +
STACK CFI INIT b5324 134 .cfa: sp 0 +
STACK CFI INIT b5458 134 .cfa: sp 0 +
STACK CFI INIT b558c 134 .cfa: sp 0 +
STACK CFI INIT b56c0 134 .cfa: sp 0 +
STACK CFI INIT b57f4 134 .cfa: sp 0 +
STACK CFI INIT b5928 6e4 .cfa: sp 0 +
STACK CFI INIT b600c a0 .cfa: sp 0 +
STACK CFI INIT b60ac 134 .cfa: sp 0 +
STACK CFI INIT b61e0 134 .cfa: sp 0 +
STACK CFI INIT b6314 134 .cfa: sp 0 +
STACK CFI INIT b6448 134 .cfa: sp 0 +
STACK CFI INIT b657c 134 .cfa: sp 0 +
STACK CFI INIT b66b0 134 .cfa: sp 0 +
STACK CFI INIT b67e4 134 .cfa: sp 0 +
STACK CFI INIT b6918 134 .cfa: sp 0 +
STACK CFI INIT b6a4c 134 .cfa: sp 0 +
STACK CFI INIT b6b80 134 .cfa: sp 0 +
STACK CFI INIT b6cb4 134 .cfa: sp 0 +
STACK CFI INIT b6de8 134 .cfa: sp 0 +
STACK CFI INIT b6f1c 134 .cfa: sp 0 +
STACK CFI INIT b7050 f0 .cfa: sp 0 +
STACK CFI INIT b7140 134 .cfa: sp 0 +
STACK CFI INIT b7274 f0 .cfa: sp 0 +
STACK CFI INIT b7364 134 .cfa: sp 0 +
STACK CFI INIT b7498 f0 .cfa: sp 0 +
STACK CFI INIT b7588 134 .cfa: sp 0 +
STACK CFI INIT b76bc f0 .cfa: sp 0 +
STACK CFI INIT b77ac 134 .cfa: sp 0 +
STACK CFI INIT b78e0 134 .cfa: sp 0 +
STACK CFI INIT b7a14 134 .cfa: sp 0 +
STACK CFI INIT b7b48 134 .cfa: sp 0 +
STACK CFI INIT b7c7c 134 .cfa: sp 0 +
STACK CFI INIT b7db0 134 .cfa: sp 0 +
STACK CFI INIT b7ee4 614 .cfa: sp 0 +
STACK CFI INIT b84f8 348 .cfa: sp 0 +
STACK CFI INIT b8840 14c .cfa: sp 0 +
STACK CFI INIT b898c 14c .cfa: sp 0 +
STACK CFI INIT b8ad8 14c .cfa: sp 0 +
STACK CFI INIT b8c24 14c .cfa: sp 0 +
STACK CFI INIT b8d70 14c .cfa: sp 0 +
STACK CFI INIT b8ebc 14c .cfa: sp 0 +
STACK CFI INIT b9008 14c .cfa: sp 0 +
STACK CFI INIT b9154 14c .cfa: sp 0 +
STACK CFI INIT b92a0 14c .cfa: sp 0 +
STACK CFI INIT b93ec 14c .cfa: sp 0 +
STACK CFI INIT b9538 14c .cfa: sp 0 +
STACK CFI INIT b9684 14c .cfa: sp 0 +
STACK CFI INIT b97d0 14c .cfa: sp 0 +
STACK CFI INIT b991c 14c .cfa: sp 0 +
STACK CFI INIT b9a68 14c .cfa: sp 0 +
STACK CFI INIT b9bb4 14c .cfa: sp 0 +
STACK CFI INIT b9d00 14c .cfa: sp 0 +
STACK CFI INIT b9e4c 14c .cfa: sp 0 +
STACK CFI INIT b9f98 14c .cfa: sp 0 +
STACK CFI INIT ba0e4 14c .cfa: sp 0 +
STACK CFI INIT ba230 14c .cfa: sp 0 +
STACK CFI INIT ba37c 14c .cfa: sp 0 +
STACK CFI INIT ba4c8 14c .cfa: sp 0 +
STACK CFI INIT ba614 14c .cfa: sp 0 +
STACK CFI INIT ba760 14c .cfa: sp 0 +
STACK CFI INIT ba8ac 14c .cfa: sp 0 +
STACK CFI INIT ba9f8 14c .cfa: sp 0 +
STACK CFI INIT bab44 14c .cfa: sp 0 +
STACK CFI INIT bac90 14c .cfa: sp 0 +
STACK CFI INIT baddc 14c .cfa: sp 0 +
STACK CFI INIT baf28 2f8 .cfa: sp 0 +
STACK CFI INIT bb3d4 9c .cfa: sp 0 +
STACK CFI INIT bb470 90 .cfa: sp 0 +
STACK CFI INIT bb500 90 .cfa: sp 0 +
STACK CFI INIT bb67c 124 .cfa: sp 0 +
STACK CFI INIT bb7a0 6c .cfa: sp 0 +
STACK CFI INIT bb80c 13c .cfa: sp 0 +
STACK CFI INIT bb948 80 .cfa: sp 0 +
STACK CFI INIT bb9c8 80 .cfa: sp 0 +
STACK CFI INIT bbaf8 8c .cfa: sp 0 +
STACK CFI INIT bbb84 2a0 .cfa: sp 0 +
STACK CFI INIT bc13c f4 .cfa: sp 0 +
STACK CFI INIT bc230 54 .cfa: sp 0 +
STACK CFI INIT bc2e8 b4 .cfa: sp 0 +
STACK CFI INIT bc39c 44 .cfa: sp 0 +
STACK CFI INIT bc40c 1bc .cfa: sp 0 +
STACK CFI INIT bc5c8 1e0 .cfa: sp 0 +
STACK CFI INIT bc7a8 f4 .cfa: sp 0 +
STACK CFI INIT bc89c b4 .cfa: sp 0 +
STACK CFI INIT bc950 44 .cfa: sp 0 +
STACK CFI INIT bc9c0 1e8 .cfa: sp 0 +
STACK CFI INIT bcba8 20c .cfa: sp 0 +
STACK CFI INIT bcf04 b0 .cfa: sp 0 +
STACK CFI INIT bcfb4 f4 .cfa: sp 0 +
STACK CFI INIT bd0a8 b0 .cfa: sp 0 +
STACK CFI INIT bd158 f4 .cfa: sp 0 +
STACK CFI INIT bd5c8 ac .cfa: sp 0 +
STACK CFI INIT bd674 f0 .cfa: sp 0 +
STACK CFI INIT bd764 ac .cfa: sp 0 +
STACK CFI INIT bd810 f0 .cfa: sp 0 +
STACK CFI INIT bdaec 104 .cfa: sp 0 +
STACK CFI INIT bdbf0 c4 .cfa: sp 0 +
STACK CFI INIT bdde8 f4 .cfa: sp 0 +
STACK CFI INIT bdedc b4 .cfa: sp 0 +
STACK CFI INIT be600 6c .cfa: sp 0 +
STACK CFI INIT be66c b0 .cfa: sp 0 +
STACK CFI INIT be71c 7c .cfa: sp 0 +
STACK CFI INIT be798 c4 .cfa: sp 0 +
STACK CFI INIT be8f8 b0 .cfa: sp 0 +
STACK CFI INIT be9a8 f4 .cfa: sp 0 +
STACK CFI INIT beac8 2f4 .cfa: sp 0 +
STACK CFI INIT bedbc 2cc .cfa: sp 0 +
STACK CFI INIT bf088 10c .cfa: sp 0 +
STACK CFI INIT bf194 e4 .cfa: sp 0 +
STACK CFI INIT bf284 108 .cfa: sp 0 +
STACK CFI INIT bf38c 8c .cfa: sp 0 +
STACK CFI INIT c2cf8 60 .cfa: sp 0 +
STACK CFI INIT c2d58 19c .cfa: sp 0 +
STACK CFI INIT c2ef4 70 .cfa: sp 0 +
STACK CFI INIT c2f90 fc .cfa: sp 0 +
STACK CFI INIT c308c 28 .cfa: sp 0 +
STACK CFI INIT c30b4 64 .cfa: sp 0 +
STACK CFI INIT c3118 18c .cfa: sp 0 +
STACK CFI INIT c32a4 74 .cfa: sp 0 +
STACK CFI INIT c3344 d8 .cfa: sp 0 +
STACK CFI INIT c360c 90 .cfa: sp 0 +
STACK CFI INIT c3b60 90 .cfa: sp 0 +
STACK CFI INIT c4274 90 .cfa: sp 0 +
STACK CFI INIT c4adc 90 .cfa: sp 0 +
STACK CFI INIT c5548 90 .cfa: sp 0 +
STACK CFI INIT c56e0 90 .cfa: sp 0 +
STACK CFI INIT c5868 b0 .cfa: sp 0 +
STACK CFI INIT c5918 b0 .cfa: sp 0 +
STACK CFI INIT c59c8 b0 .cfa: sp 0 +
STACK CFI INIT c5a78 b0 .cfa: sp 0 +
STACK CFI INIT c5b28 b0 .cfa: sp 0 +
STACK CFI INIT c5bd8 b0 .cfa: sp 0 +
STACK CFI INIT c5c88 b0 .cfa: sp 0 +
STACK CFI INIT c5d38 b0 .cfa: sp 0 +
STACK CFI INIT c5de8 b8 .cfa: sp 0 +
STACK CFI INIT c5ea0 8c .cfa: sp 0 +
STACK CFI INIT c5f2c 24 .cfa: sp 0 +
STACK CFI INIT c5f50 600 .cfa: sp 0 +
STACK CFI INIT c6550 350 .cfa: sp 0 +
STACK CFI INIT c68a0 710 .cfa: sp 0 +
STACK CFI INIT c6fb0 350 .cfa: sp 0 +
STACK CFI INIT c7818 4a0 .cfa: sp 0 +
STACK CFI INIT c7cb8 364 .cfa: sp 0 +
STACK CFI INIT c801c 500 .cfa: sp 0 +
STACK CFI INIT c851c 68 .cfa: sp 0 +
STACK CFI INIT c8584 550 .cfa: sp 0 +
STACK CFI INIT c8ad4 4dc .cfa: sp 0 +
STACK CFI INIT c8fb0 44 .cfa: sp 0 +
STACK CFI INIT c8ff4 51c .cfa: sp 0 +
STACK CFI INIT c9510 180 .cfa: sp 0 +
STACK CFI INIT c9b78 b8 .cfa: sp 0 +
STACK CFI INIT c9c30 8c .cfa: sp 0 +
STACK CFI INIT c9cbc a8 .cfa: sp 0 +
STACK CFI INIT c9d64 34c .cfa: sp 0 +
STACK CFI INIT ca5c8 34c .cfa: sp 0 +
STACK CFI INIT ca914 470 .cfa: sp 0 +
STACK CFI INIT cb29c 470 .cfa: sp 0 +
STACK CFI INIT cb7bc bc .cfa: sp 0 +
STACK CFI INIT cc580 28 .cfa: sp 0 +
STACK CFI INIT cd5e0 c0 .cfa: sp 0 +
STACK CFI INIT cd6a0 c0 .cfa: sp 0 +
STACK CFI INIT cd788 70 .cfa: sp 0 +
STACK CFI INIT cd7f8 4c .cfa: sp 0 +
STACK CFI INIT cd990 128 .cfa: sp 0 +
STACK CFI INIT cdab8 128 .cfa: sp 0 +
STACK CFI INIT cdbe0 154 .cfa: sp 0 +
STACK CFI INIT cdd34 150 .cfa: sp 0 +
STACK CFI INIT cde84 144 .cfa: sp 0 +
STACK CFI INIT cdfc8 144 .cfa: sp 0 +
STACK CFI INIT ce10c 12c .cfa: sp 0 +
STACK CFI INIT ce238 12c .cfa: sp 0 +
STACK CFI INIT ce364 148 .cfa: sp 0 +
STACK CFI INIT ce4ac 44c .cfa: sp 0 +
STACK CFI INIT ce8f8 44c .cfa: sp 0 +
STACK CFI INIT ced44 68 .cfa: sp 0 +
STACK CFI INIT cefb4 80 .cfa: sp 0 +
STACK CFI INIT cf034 204 .cfa: sp 0 +
STACK CFI INIT cf238 19c .cfa: sp 0 +
STACK CFI INIT cf3d4 f4 .cfa: sp 0 +
STACK CFI INIT cf4c8 818 .cfa: sp 0 +
STACK CFI INIT cfce0 e8 .cfa: sp 0 +
STACK CFI INIT cfe10 84 .cfa: sp 0 +
STACK CFI INIT d000c 3b8 .cfa: sp 0 +
STACK CFI INIT d03c4 cc .cfa: sp 0 +
STACK CFI INIT d0544 240 .cfa: sp 0 +
STACK CFI INIT d07e0 e8 .cfa: sp 0 +
STACK CFI INIT d0910 f8 .cfa: sp 0 +
STACK CFI INIT d0b64 40 .cfa: sp 0 +
STACK CFI INIT d0ba4 118 .cfa: sp 0 +
STACK CFI INIT d0cbc 358 .cfa: sp 0 +
STACK CFI INIT d1050 170 .cfa: sp 0 +
STACK CFI INIT d11c0 27c .cfa: sp 0 +
STACK CFI INIT d14f8 108 .cfa: sp 0 +
STACK CFI INIT d1600 a0 .cfa: sp 0 +
STACK CFI INIT d173c 378 .cfa: sp 0 +
STACK CFI INIT d1c04 e8 .cfa: sp 0 +
STACK CFI INIT d1ffc 210 .cfa: sp 0 +
STACK CFI INIT d26f0 348 .cfa: sp 0 +
STACK CFI INIT d2e14 218 .cfa: sp 0 +
STACK CFI INIT d302c c8 .cfa: sp 0 +
STACK CFI INIT d30f4 624 .cfa: sp 0 +
STACK CFI INIT d392c 688 .cfa: sp 0 +
STACK CFI INIT d3fb4 130 .cfa: sp 0 +
STACK CFI INIT d487c 578 .cfa: sp 0 +
STACK CFI INIT d5110 138 .cfa: sp 0 +
STACK CFI INIT d5248 158 .cfa: sp 0 +
STACK CFI INIT d53c0 164 .cfa: sp 0 +
STACK CFI INIT d5524 164 .cfa: sp 0 +
STACK CFI INIT d5688 3d8 .cfa: sp 0 +
STACK CFI INIT d5a80 c0 .cfa: sp 0 +
STACK CFI INIT d5b40 e0 .cfa: sp 0 +
STACK CFI INIT d5eb4 278 .cfa: sp 0 +
STACK CFI INIT d61e8 60 .cfa: sp 0 +
STACK CFI INIT d6248 68 .cfa: sp 0 +
STACK CFI INIT d62b0 74 .cfa: sp 0 +
STACK CFI INIT d6324 190 .cfa: sp 0 +
STACK CFI INIT d6578 140 .cfa: sp 0 +
STACK CFI INIT d66b8 158 .cfa: sp 0 +
STACK CFI INIT d6810 144 .cfa: sp 0 +
STACK CFI INIT d6a40 2b8 .cfa: sp 0 +
STACK CFI INIT d7560 1f8 .cfa: sp 0 +
STACK CFI INIT d7758 17c .cfa: sp 0 +
STACK CFI INIT d7930 e8 .cfa: sp 0 +
STACK CFI INIT d7a18 130 .cfa: sp 0 +
STACK CFI INIT d7b48 228 .cfa: sp 0 +
STACK CFI INIT d7d70 278 .cfa: sp 0 +
STACK CFI INIT d7ff8 280 .cfa: sp 0 +
STACK CFI INIT d8278 174 .cfa: sp 0 +
STACK CFI INIT d8568 248 .cfa: sp 0 +
STACK CFI INIT d88ac 42c .cfa: sp 0 +
STACK CFI INIT d8da8 e0 .cfa: sp 0 +
STACK CFI INIT d9108 584 .cfa: sp 0 +
STACK CFI INIT d9f90 54 .cfa: sp 0 +
STACK CFI INIT d9fe4 ac .cfa: sp 0 +
STACK CFI INIT da090 24 .cfa: sp 0 +
STACK CFI INIT da17c 68 .cfa: sp 0 +
STACK CFI INIT da214 100 .cfa: sp 0 +
STACK CFI INIT da314 5c .cfa: sp 0 +
STACK CFI INIT da3c8 e4 .cfa: sp 0 +
STACK CFI INIT da4d8 90 .cfa: sp 0 +
STACK CFI INIT da568 130 .cfa: sp 0 +
STACK CFI INIT da698 74 .cfa: sp 0 +
STACK CFI INIT da70c 48 .cfa: sp 0 +
STACK CFI INIT da754 28 .cfa: sp 0 +
STACK CFI INIT da7d8 19c .cfa: sp 0 +
STACK CFI INIT da974 140 .cfa: sp 0 +
STACK CFI INIT daac8 40 .cfa: sp 0 +
STACK CFI INIT dab54 30 .cfa: sp 0 +
STACK CFI INIT dab98 150 .cfa: sp 0 +
STACK CFI INIT daeac 154 .cfa: sp 0 +
STACK CFI INIT db03c 6c .cfa: sp 0 +
STACK CFI INIT dbcd0 574 .cfa: sp 0 +
STACK CFI dbcd4 .cfa: sp 256 +
STACK CFI dbcf0 .cfa: x29 96 + x19: .cfa -8 + ^ x20: .cfa -16 + ^ x21: .cfa -24 + ^ x22: .cfa -32 + ^ x23: .cfa -40 + ^ x24: .cfa -48 + ^ x25: .cfa -56 + ^ x26: .cfa -64 + ^ x27: .cfa -72 + ^ x28: .cfa -80 + ^ .ra: .cfa -88 + ^ x29: .cfa -96 + ^
STACK CFI dc0d0 .cfa: sp 256 +
STACK CFI dc0ec .cfa: sp 0 +
STACK CFI dc0f0 .cfa: x29 96 +
STACK CFI INIT dc260 40c .cfa: sp 0 +
STACK CFI dc264 .cfa: sp 224 +
STACK CFI dc27c .cfa: x29 80 + x19: .cfa -8 + ^ x20: .cfa -16 + ^ x21: .cfa -24 + ^ x22: .cfa -32 + ^ x23: .cfa -40 + ^ x24: .cfa -48 + ^ x25: .cfa -64 + ^ .ra: .cfa -72 + ^ x29: .cfa -80 + ^
STACK CFI dc538 .cfa: sp 224 +
STACK CFI dc550 .cfa: sp 0 +
STACK CFI dc554 .cfa: x29 80 +
STACK CFI INIT dc6d4 50 .cfa: sp 0 +
STACK CFI dc6d8 .cfa: sp 32 +
STACK CFI dc6e0 .cfa: x29 32 + x19: .cfa -8 + ^ x20: .cfa -16 + ^ .ra: .cfa -24 + ^ x29: .cfa -32 + ^
STACK CFI INIT dc788 28c .cfa: sp 0 +
STACK CFI dc78c .cfa: sp 144 +
STACK CFI dc7a8 .cfa: x29 96 + x19: .cfa -8 + ^ x20: .cfa -16 + ^ x21: .cfa -24 + ^ x22: .cfa -32 + ^ x23: .cfa -40 + ^ x24: .cfa -48 + ^ x25: .cfa -56 + ^ x26: .cfa -64 + ^ x27: .cfa -80 + ^ .ra: .cfa -88 + ^ x29: .cfa -96 + ^
STACK CFI dc958 .cfa: sp 144 +
STACK CFI dc974 .cfa: sp 0 +
STACK CFI dc978 .cfa: x29 96 +
STACK CFI dc988 .cfa: sp 144 +
STACK CFI dc9a4 .cfa: sp 0 +
STACK CFI dc9a8 .cfa: x29 96 +
STACK CFI INIT dd0c4 214 .cfa: sp 0 +
STACK CFI dd0c8 .cfa: sp 128 +
STACK CFI dd0dc .cfa: x29 64 + x19: .cfa -8 + ^ x20: .cfa -16 + ^ x21: .cfa -24 + ^ x22: .cfa -32 + ^ x23: .cfa -40 + ^ x24: .cfa -48 + ^ .ra: .cfa -56 + ^ x29: .cfa -64 + ^
STACK CFI dd280 .cfa: sp 128 +
STACK CFI dd294 .cfa: sp 0 +
STACK CFI dd298 .cfa: x29 64 +
STACK CFI INIT dd38c 108 .cfa: sp 0 +
STACK CFI dd390 .cfa: sp 32 +
STACK CFI dd398 .cfa: x29 32 + x19: .cfa -8 + ^ x20: .cfa -16 + ^ .ra: .cfa -24 + ^ x29: .cfa -32 + ^
STACK CFI dd474 .cfa: sp 32 +
STACK CFI dd47c .cfa: sp 0 +
STACK CFI dd480 .cfa: x29 32 +
STACK CFI INIT dd49c 7c .cfa: sp 0 +
STACK CFI dd4a0 .cfa: sp 32 +
STACK CFI dd4a8 .cfa: x29 32 + x19: .cfa -16 + ^ .ra: .cfa -24 + ^ x29: .cfa -32 + ^
STACK CFI dd508 .cfa: sp 32 +
STACK CFI dd510 .cfa: sp 0 +
STACK CFI dd514 .cfa: x29 32 +
STACK CFI INIT dd518 59c .cfa: sp 0 +
STACK CFI dd51c .cfa: sp 480 +
STACK CFI dd53c .cfa: x29 96 + x19: .cfa -8 + ^ x20: .cfa -16 + ^ x21: .cfa -24 + ^ x22: .cfa -32 + ^ x23: .cfa -40 + ^ x24: .cfa -48 + ^ x25: .cfa -56 + ^ x26: .cfa -64 + ^ x27: .cfa -72 + ^ x28: .cfa -80 + ^ .ra: .cfa -88 + ^ x29: .cfa -96 + ^ v8: .cfa -112 + ^
STACK CFI dd9d4 .cfa: sp 480 +
STACK CFI dd9f4 .cfa: sp 0 +
STACK CFI dd9f8 .cfa: x29 96 +
STACK CFI INIT ddac0 74 .cfa: sp 0 +
STACK CFI ddac4 .cfa: sp 32 +
STACK CFI ddacc .cfa: x29 32 + x19: .cfa -16 + ^ .ra: .cfa -24 + ^ x29: .cfa -32 + ^
STACK CFI ddb24 .cfa: sp 32 +
STACK CFI ddb2c .cfa: sp 0 +
STACK CFI ddb30 .cfa: x29 32 +
STACK CFI INIT ddb34 7c .cfa: sp 0 +
STACK CFI ddb38 .cfa: sp 32 +
STACK CFI ddb40 .cfa: x29 32 + x19: .cfa -16 + ^ .ra: .cfa -24 + ^ x29: .cfa -32 + ^
STACK CFI ddba0 .cfa: sp 32 +
STACK CFI ddba8 .cfa: sp 0 +
STACK CFI ddbac .cfa: x29 32 +
STACK CFI INIT ddcf4 244 .cfa: sp 0 +
STACK CFI ddcf8 .cfa: sp 112 +
STACK CFI ddd0c .cfa: x29 64 + x19: .cfa -8 + ^ x20: .cfa -16 + ^ x21: .cfa -24 + ^ x22: .cfa -32 + ^ x23: .cfa -40 + ^ x24: .cfa -48 + ^ .ra: .cfa -56 + ^ x29: .cfa -64 + ^
STACK CFI dde9c .cfa: sp 112 +
STACK CFI ddeb0 .cfa: sp 0 +
STACK CFI ddeb4 .cfa: x29 64 +
STACK CFI INIT ddf38 120 .cfa: sp 0 +
STACK CFI ddf3c .cfa: sp 80 +
STACK CFI ddf50 .cfa: x29 64 + x19: .cfa -8 + ^ x20: .cfa -16 + ^ x21: .cfa -24 + ^ x22: .cfa -32 + ^ x23: .cfa -40 + ^ x24: .cfa -48 + ^ .ra: .cfa -56 + ^ x29: .cfa -64 + ^
STACK CFI ddfbc .cfa: sp 80 +
STACK CFI ddfd0 .cfa: sp 0 +
STACK CFI ddfd4 .cfa: x29 64 +
STACK CFI de018 .cfa: sp 80 +
STACK CFI de02c .cfa: sp 0 +
STACK CFI de030 .cfa: x29 64 +
STACK CFI INIT de0e4 118 .cfa: sp 0 +
STACK CFI de0e8 .cfa: sp 80 +
STACK CFI de0fc .cfa: x29 64 + x19: .cfa -8 + ^ x20: .cfa -16 + ^ x21: .cfa -24 + ^ x22: .cfa -32 + ^ x23: .cfa -40 + ^ x24: .cfa -48 + ^ .ra: .cfa -56 + ^ x29: .cfa -64 + ^
STACK CFI de1bc .cfa: sp 80 +
STACK CFI de1d0 .cfa: sp 0 +
STACK CFI de1d4 .cfa: x29 64 +
STACK CFI INIT de760 1e4 .cfa: sp 0 +
STACK CFI de764 .cfa: sp 80 +
STACK CFI de778 .cfa: x29 80 + x19: .cfa -8 + ^ x20: .cfa -16 + ^ x21: .cfa -24 + ^ x22: .cfa -32 + ^ x23: .cfa -40 + ^ x24: .cfa -48 + ^ x25: .cfa -56 + ^ x26: .cfa -64 + ^ .ra: .cfa -72 + ^ x29: .cfa -80 + ^
STACK CFI de7ec .cfa: sp 80 +
STACK CFI de800 .cfa: sp 0 +
STACK CFI de804 .cfa: x29 80 +
STACK CFI de808 .cfa: sp 80 +
STACK CFI de81c .cfa: sp 0 +
STACK CFI de820 .cfa: x29 80 +
STACK CFI de82c .cfa: sp 80 +
STACK CFI de840 .cfa: sp 0 +
STACK CFI de844 .cfa: x29 80 +
STACK CFI de854 .cfa: sp 80 +
STACK CFI de868 .cfa: sp 0 +
STACK CFI de86c .cfa: x29 80 +
STACK CFI INIT dee10 574 .cfa: sp 0 +
STACK CFI dee14 .cfa: sp 256 +
STACK CFI dee30 .cfa: x29 96 + x19: .cfa -8 + ^ x20: .cfa -16 + ^ x21: .cfa -24 + ^ x22: .cfa -32 + ^ x23: .cfa -40 + ^ x24: .cfa -48 + ^ x25: .cfa -56 + ^ x26: .cfa -64 + ^ x27: .cfa -72 + ^ x28: .cfa -80 + ^ .ra: .cfa -88 + ^ x29: .cfa -96 + ^
STACK CFI df210 .cfa: sp 256 +
STACK CFI df22c .cfa: sp 0 +
STACK CFI df230 .cfa: x29 96 +
STACK CFI INIT df3a0 5a8 .cfa: sp 0 +
STACK CFI df3a4 .cfa: sp 256 +
STACK CFI df3c0 .cfa: x29 96 + x19: .cfa -8 + ^ x20: .cfa -16 + ^ x21: .cfa -24 + ^ x22: .cfa -32 + ^ x23: .cfa -40 + ^ x24: .cfa -48 + ^ x25: .cfa -56 + ^ x26: .cfa -64 + ^ x27: .cfa -72 + ^ x28: .cfa -80 + ^ .ra: .cfa -88 + ^ x29: .cfa -96 + ^
STACK CFI df6d8 .cfa: sp 256 +
STACK CFI df6f4 .cfa: sp 0 +
STACK CFI df6f8 .cfa: x29 96 +
STACK CFI df7d4 .cfa: sp 256 +
STACK CFI df7f0 .cfa: sp 0 +
STACK CFI df7f4 .cfa: x29 96 +
STACK CFI INIT df964 40c .cfa: sp 0 +
STACK CFI df968 .cfa: sp 224 +
STACK CFI df980 .cfa: x29 80 + x19: .cfa -8 + ^ x20: .cfa -16 + ^ x21: .cfa -24 + ^ x22: .cfa -32 + ^ x23: .cfa -40 + ^ x24: .cfa -48 + ^ x25: .cfa -64 + ^ .ra: .cfa -72 + ^ x29: .cfa -80 + ^
STACK CFI dfc3c .cfa: sp 224 +
STACK CFI dfc54 .cfa: sp 0 +
STACK CFI dfc58 .cfa: x29 80 +
STACK CFI INIT dfd74 214 .cfa: sp 0 +
STACK CFI dfd78 .cfa: sp 128 +
STACK CFI dfd8c .cfa: x29 64 + x19: .cfa -8 + ^ x20: .cfa -16 + ^ x21: .cfa -24 + ^ x22: .cfa -32 + ^ x23: .cfa -40 + ^ x24: .cfa -48 + ^ .ra: .cfa -56 + ^ x29: .cfa -64 + ^
STACK CFI dff30 .cfa: sp 128 +
STACK CFI dff44 .cfa: sp 0 +
STACK CFI dff48 .cfa: x29 64 +
STACK CFI INIT dff88 3e8 .cfa: sp 0 +
STACK CFI dff8c .cfa: sp 256 +
STACK CFI dffa0 .cfa: x29 64 + x19: .cfa -8 + ^ x20: .cfa -16 + ^ x21: .cfa -24 + ^ x22: .cfa -32 + ^ x23: .cfa -48 + ^ .ra: .cfa -56 + ^ x29: .cfa -64 + ^
STACK CFI e0248 .cfa: sp 256 +
STACK CFI e025c .cfa: sp 0 +
STACK CFI e0260 .cfa: x29 64 +
STACK CFI INIT e0374 488 .cfa: sp 0 +
STACK CFI e0378 .cfa: sp 160 +
STACK CFI e0394 .cfa: x29 96 + x19: .cfa -8 + ^ x20: .cfa -16 + ^ x21: .cfa -24 + ^ x22: .cfa -32 + ^ x23: .cfa -40 + ^ x24: .cfa -48 + ^ x25: .cfa -56 + ^ x26: .cfa -64 + ^ x27: .cfa -72 + ^ x28: .cfa -80 + ^ .ra: .cfa -88 + ^ x29: .cfa -96 + ^
STACK CFI e0784 .cfa: sp 160 +
STACK CFI e07a0 .cfa: sp 0 +
STACK CFI e07a4 .cfa: x29 96 +
STACK CFI INIT e07fc 50 .cfa: sp 0 +
STACK CFI e0800 .cfa: sp 32 +
STACK CFI e0808 .cfa: x29 32 + x19: .cfa -8 + ^ x20: .cfa -16 + ^ .ra: .cfa -24 + ^ x29: .cfa -32 + ^
STACK CFI INIT e08f0 2b4 .cfa: sp 0 +
STACK CFI e08f4 .cfa: sp 32 +
STACK CFI e08fc .cfa: x29 32 + x19: .cfa -16 + ^ .ra: .cfa -24 + ^ x29: .cfa -32 + ^
STACK CFI e0a2c .cfa: sp 32 +
STACK CFI e0a34 .cfa: sp 0 +
STACK CFI e0a38 .cfa: x29 32 +
STACK CFI e0b40 .cfa: sp 32 +
STACK CFI e0b48 .cfa: sp 0 +
STACK CFI e0b4c .cfa: x29 32 +
STACK CFI INIT e0bb4 13c .cfa: sp 0 +
STACK CFI e0bb8 .cfa: sp 112 +
STACK CFI e0bc8 .cfa: x29 48 + x19: .cfa -8 + ^ x20: .cfa -16 + ^ x21: .cfa -24 + ^ x22: .cfa -32 + ^ .ra: .cfa -40 + ^ x29: .cfa -48 + ^
STACK CFI e0c1c .cfa: sp 112 +
STACK CFI e0c2c .cfa: sp 0 +
STACK CFI e0c30 .cfa: x29 48 +
STACK CFI INIT e0dac 100 .cfa: sp 0 +
STACK CFI e0db0 .cfa: sp 48 +
STACK CFI e0dbc .cfa: x29 48 + x19: .cfa -8 + ^ x20: .cfa -16 + ^ x21: .cfa -24 + ^ x22: .cfa -32 + ^ .ra: .cfa -40 + ^ x29: .cfa -48 + ^
STACK CFI e0dcc .cfa: sp 48 +
STACK CFI e0dd8 .cfa: sp 0 +
STACK CFI e0ddc .cfa: x29 48 +
STACK CFI INIT e0fac 630 .cfa: sp 0 +
STACK CFI e0fb0 .cfa: sp 112 +
STACK CFI e0fc0 .cfa: x29 48 + x19: .cfa -8 + ^ x20: .cfa -16 + ^ x21: .cfa -32 + ^ .ra: .cfa -40 + ^ x29: .cfa -48 + ^
STACK CFI e1150 .cfa: sp 112 +
STACK CFI e1160 .cfa: sp 0 +
STACK CFI e1164 .cfa: x29 48 +
STACK CFI INIT e15dc 2c4 .cfa: sp 0 +
STACK CFI e15e0 .cfa: sp 128 +
STACK CFI e15f4 .cfa: x29 64 + x19: .cfa -8 + ^ x20: .cfa -16 + ^ x21: .cfa -24 + ^ x22: .cfa -32 + ^ x23: .cfa -40 + ^ x24: .cfa -48 + ^ .ra: .cfa -56 + ^ x29: .cfa -64 + ^
STACK CFI e1748 .cfa: sp 128 +
STACK CFI e175c .cfa: sp 0 +
STACK CFI e1760 .cfa: x29 64 +
STACK CFI INIT e1948 74 .cfa: sp 0 +
STACK CFI e194c .cfa: sp 32 +
STACK CFI e1954 .cfa: x29 32 + x19: .cfa -16 + ^ .ra: .cfa -24 + ^ x29: .cfa -32 + ^
STACK CFI e19ac .cfa: sp 32 +
STACK CFI e19b4 .cfa: sp 0 +
STACK CFI e19b8 .cfa: x29 32 +
STACK CFI INIT e19bc 7c .cfa: sp 0 +
STACK CFI e19c0 .cfa: sp 32 +
STACK CFI e19c8 .cfa: x29 32 + x19: .cfa -16 + ^ .ra: .cfa -24 + ^ x29: .cfa -32 + ^
STACK CFI e1a28 .cfa: sp 32 +
STACK CFI e1a30 .cfa: sp 0 +
STACK CFI e1a34 .cfa: x29 32 +
STACK CFI INIT e1a38 7c .cfa: sp 0 +
STACK CFI e1a3c .cfa: sp 32 +
STACK CFI e1a44 .cfa: x29 32 + x19: .cfa -16 + ^ .ra: .cfa -24 + ^ x29: .cfa -32 + ^
STACK CFI e1aa4 .cfa: sp 32 +
STACK CFI e1aac .cfa: sp 0 +
STACK CFI e1ab0 .cfa: x29 32 +
STACK CFI INIT e1ab4 178 .cfa: sp 0 +
STACK CFI e1ab8 .cfa: sp 128 +
STACK CFI e1ac8 .cfa: x29 48 + x19: .cfa -8 + ^ x20: .cfa -16 + ^ x21: .cfa -24 + ^ x22: .cfa -32 + ^ .ra: .cfa -40 + ^ x29: .cfa -48 + ^
STACK CFI e1b24 .cfa: sp 128 +
STACK CFI e1b34 .cfa: sp 0 +
STACK CFI e1b38 .cfa: x29 48 +
STACK CFI INIT e1c2c a0 .cfa: sp 0 +
STACK CFI e1c30 .cfa: sp 48 +
STACK CFI e1c3c .cfa: x29 48 + x19: .cfa -8 + ^ x20: .cfa -16 + ^ x21: .cfa -32 + ^ .ra: .cfa -40 + ^ x29: .cfa -48 + ^
STACK CFI e1ca4 .cfa: sp 48 +
STACK CFI e1cb0 .cfa: sp 0 +
STACK CFI e1cb4 .cfa: x29 48 +
STACK CFI INIT e1ccc 264 .cfa: sp 0 +
STACK CFI e1cd0 .cfa: sp 128 +
STACK CFI e1ce4 .cfa: x29 64 + x19: .cfa -8 + ^ x20: .cfa -16 + ^ x21: .cfa -24 + ^ x22: .cfa -32 + ^ x23: .cfa -40 + ^ x24: .cfa -48 + ^ .ra: .cfa -56 + ^ x29: .cfa -64 + ^
STACK CFI e1dd8 .cfa: sp 128 +
STACK CFI e1dec .cfa: sp 0 +
STACK CFI e1df0 .cfa: x29 64 +
STACK CFI INIT e1f34 2a8 .cfa: sp 0 +
STACK CFI e1f38 .cfa: sp 128 +
STACK CFI e1f4c .cfa: x29 64 + x19: .cfa -8 + ^ x20: .cfa -16 + ^ x21: .cfa -24 + ^ x22: .cfa -32 + ^ x23: .cfa -40 + ^ x24: .cfa -48 + ^ .ra: .cfa -56 + ^ x29: .cfa -64 + ^
STACK CFI e2084 .cfa: sp 128 +
STACK CFI e2098 .cfa: sp 0 +
STACK CFI e209c .cfa: x29 64 +
STACK CFI INIT e21dc 74 .cfa: sp 0 +
STACK CFI e21e0 .cfa: sp 32 +
STACK CFI e21e8 .cfa: x29 32 + x19: .cfa -16 + ^ .ra: .cfa -24 + ^ x29: .cfa -32 + ^
STACK CFI e2240 .cfa: sp 32 +
STACK CFI e2248 .cfa: sp 0 +
STACK CFI e224c .cfa: x29 32 +
STACK CFI INIT e2250 2b4 .cfa: sp 0 +
STACK CFI e2254 .cfa: sp 128 +
STACK CFI e2268 .cfa: x29 64 + x19: .cfa -8 + ^ x20: .cfa -16 + ^ x21: .cfa -24 + ^ x22: .cfa -32 + ^ x23: .cfa -40 + ^ x24: .cfa -48 + ^ .ra: .cfa -56 + ^ x29: .cfa -64 + ^
STACK CFI e23ac .cfa: sp 128 +
STACK CFI e23c0 .cfa: sp 0 +
STACK CFI e23c4 .cfa: x29 64 +
STACK CFI INIT e2504 22c .cfa: sp 0 +
STACK CFI e2508 .cfa: sp 128 +
STACK CFI e251c .cfa: x29 64 + x19: .cfa -8 + ^ x20: .cfa -16 + ^ x21: .cfa -24 + ^ x22: .cfa -32 + ^ x23: .cfa -40 + ^ x24: .cfa -48 + ^ .ra: .cfa -56 + ^ x29: .cfa -64 + ^
STACK CFI e25d8 .cfa: sp 128 +
STACK CFI e25ec .cfa: sp 0 +
STACK CFI e25f0 .cfa: x29 64 +
STACK CFI INIT e27b0 4e4 .cfa: sp 0 +
STACK CFI e27b4 .cfa: sp 64 +
STACK CFI e27c4 .cfa: x29 64 + x19: .cfa -8 + ^ x20: .cfa -16 + ^ x21: .cfa -24 + ^ x22: .cfa -32 + ^ x23: .cfa -40 + ^ x24: .cfa -48 + ^ .ra: .cfa -56 + ^ x29: .cfa -64 + ^
STACK CFI e2854 .cfa: sp 64 +
STACK CFI e2864 .cfa: sp 0 +
STACK CFI e2868 .cfa: x29 64 +
STACK CFI e2c68 .cfa: sp 64 +
STACK CFI e2c78 .cfa: sp 0 +
STACK CFI e2c7c .cfa: x29 64 +
