MODULE Linux arm64 F4171F0FF4265D86761391FEE264E3050 firee.overchargedlevels.android64.so
INFO CODE_ID 0F1F17F426F4865D761391FEE264E3052C547036
INFO GENERATOR mozilla/dump_syms 2.3.4
PUBLIC 10850 0 __on_dlclose
PUBLIC 10860 0 __emutls_unregister_key
PUBLIC 10868 0 __on_dlclose_late
PUBLIC 10870 0 __atexit_handler_wrapper
PUBLIC 10884 0 atexit
PUBLIC 108a0 0 pthread_atfork
PUBLIC 108b0 0 __aarch64_ldadd8_relax
PUBLIC 108e0 0 init_have_lse_atomics
PUBLIC 10978 0 __init_cpu_features_constructor
PUBLIC 10f14 0 __init_cpu_features
PUBLIC 10fa0 0 __aarch64_ldadd8_acq_rel
FUNC 10fd0 444 0 __cxx_global_var_init
FUNC 11414 1c 0 geode::modifier::ModifyBase<geode::modifier::ModifyDerive<OLBoomScrollLayer, BoomScrollLayer> >::~ModifyBase()
FUNC 11430 44c 0 geode::modifier::ModifyDerive<OLBoomScrollLayer, BoomScrollLayer>::apply()
FUNC 1187c 50 0 std::__ndk1::shared_ptr<geode::Hook>::~shared_ptr[abi:ne180000]()
FUNC 118cc 74 0 geode::impl::ResultData<geode::Hook*, std::__ndk1::basic_string<char, std::__ndk1::char_traits<char>, std::__ndk1::allocator<char> > >::~ResultData()
FUNC 11940 7c 0 std::__ndk1::vector<std::__ndk1::basic_string<char, std::__ndk1::char_traits<char>, std::__ndk1::allocator<char> >, std::__ndk1::allocator<std::__ndk1::basic_string<char, std::__ndk1::char_traits<char>, std::__ndk1::allocator<char> > > >::~vector[abi:ne180000]()
FUNC 119bc 4 0 geode::modifier::ModifyBase<geode::modifier::ModifyDerive<OLBoomScrollLayer, BoomScrollLayer> >::apply()
PUBLIC 119c0 0 __clang_call_terminate
FUNC 119d0 154 0 _ZN5geode15UnwrapExceptionC2IRPNS_4HookEQsr4implE18IsStringStreamableIT_EEENS_4impl5OkTagEOS5_
FUNC 11b24 34 0 std::__ndk1::__throw_bad_variant_access[abi:ne180000]()
FUNC 11b58 124 0 std::__ndk1::basic_stringstream<char, std::__ndk1::char_traits<char>, std::__ndk1::allocator<char> >::basic_stringstream[abi:ne180000]()
FUNC 11c7c 80 0 std::__ndk1::basic_stringstream<char, std::__ndk1::char_traits<char>, std::__ndk1::allocator<char> >::~basic_stringstream()
FUNC 11cfc 24 0 geode::UnwrapException::~UnwrapException()
FUNC 11d20 198 0 std::__ndk1::__put_character_sequence[abi:ne180000]<char, std::__ndk1::char_traits<char> >(std::__ndk1::basic_ostream<char, std::__ndk1::char_traits<char> >, std::__ndk1::basic_ostream const*, unsigned long)
FUNC 11eb8 1b4 0 std::__ndk1::__pad_and_output[abi:ne180000]<char, std::__ndk1::char_traits<char> >(std::__ndk1::char_traits<char>, std::__ndk1::ostreambuf_iterator const*, std::__ndk1::ostreambuf_iterator const, std::__ndk1::ostreambuf_iterator const, std::__ndk1::ios_base&, std::__ndk1::ostreambuf_iterator)
FUNC 1206c 14 0 std::__ndk1::basic_string<char, std::__ndk1::char_traits<char>, std::__ndk1::allocator<char> >::__throw_length_error[abi:ne180000]() const
FUNC 12080 50 0 std::__ndk1::__throw_length_error[abi:ne180000](char const*)
FUNC 120d0 30 0 std::length_error::length_error[abi:ne180000](char const*)
FUNC 12100 34 0 std::__throw_bad_array_new_length([abi:ne180000], void)
FUNC 12134 15c 0 std::__ndk1::basic_stringbuf<char, std::__ndk1::char_traits<char>, std::__ndk1::allocator<char> >::str[abi:ne180000]() &&
FUNC 12290 148 0 std::__ndk1::basic_stringbuf<char, std::__ndk1::char_traits<char>, std::__ndk1::allocator<char> >::__init_buf_ptrs[abi:ne180000]()
FUNC 123d8 21c 0 std::__ndk1::vector<std::__ndk1::basic_string<char, std::__ndk1::char_traits<char>, std::__ndk1::allocator<char> >, std::__ndk1::allocator<std::__ndk1::basic_string<char, std::__ndk1::char_traits<char>, std::__ndk1::allocator<char> > > >::__push_back_slow_path<std::__ndk1::basic_string<char, std::__ndk1::char_traits<char>, std::__ndk1::allocator<char> > const&>(std::__ndk1::basic_string<char, std::__ndk1::char_traits<char>, std::__ndk1::allocator<char> > const&)
FUNC 125f4 70 0 std::__ndk1::basic_string<char, std::__ndk1::char_traits<char>, std::__ndk1::allocator<char> >::__init_copy_ctor_external(char const*, unsigned long)
FUNC 12664 68 0 std::__ndk1::__split_buffer<std::__ndk1::basic_string<char, std::__ndk1::char_traits<char>, std::__ndk1::allocator<char> >, std::__ndk1::allocator<std::__ndk1::basic_string<char, std::__ndk1::char_traits<char>, std::__ndk1::allocator<char> > >&>::~__split_buffer()
FUNC 126cc 14 0 std::__ndk1::vector<std::__ndk1::basic_string<char, std::__ndk1::char_traits<char>, std::__ndk1::allocator<char> >, std::__ndk1::allocator<std::__ndk1::basic_string<char, std::__ndk1::char_traits<char>, std::__ndk1::allocator<char> > > >::__throw_length_error[abi:ne180000]() const
FUNC 126e0 4 0 std::__ndk1::__variant_detail::__visitation::__base::__dispatcher<(unsigned long)0>::__dispatch[abi:ne180000]<std::__ndk1::__variant_detail::__dtor<std::__ndk1::__variant_detail::__traits<geode::Hook*, std::__ndk1::basic_string<char, std::__ndk1::char_traits<char>, std::__ndk1::allocator<char> > >, (std::__ndk1::__variant_detail::_Trait)1>::__destroy[abi:ne180000]()::{lambda(auto:1&)#1}, std::__ndk1::__variant_detail::__base<(std::__ndk1::__variant_detail::__traits<geode::Hook*, std::__ndk1::basic_string<char, std::__ndk1::char_traits<char>, std::__ndk1::allocator<char> > >)1, geode::Hook, std::__ndk1::allocator<char> >&>(std::__ndk1::__variant_detail::__dtor<std::__ndk1::__variant_detail::__traits<geode::Hook*, std::__ndk1::basic_string<char, std::__ndk1::char_traits<char>, std::__ndk1::allocator<char> > >, (std::__ndk1::__variant_detail::_Trait)1>, std::__ndk1::__variant_detail::__base<(std::__ndk1::__variant_detail::__traits<geode::Hook*, std::__ndk1::basic_string<char, std::__ndk1::char_traits<char>, std::__ndk1::allocator<char> > >)1, geode::Hook, std::__ndk1::allocator<char> >&)
FUNC 126e4 14 0 std::__ndk1::__variant_detail::__visitation::__base::__dispatcher<(unsigned long)1>::__dispatch[abi:ne180000]<std::__ndk1::__variant_detail::__dtor<std::__ndk1::__variant_detail::__traits<geode::Hook*, std::__ndk1::basic_string<char, std::__ndk1::char_traits<char>, std::__ndk1::allocator<char> > >, (std::__ndk1::__variant_detail::_Trait)1>::__destroy[abi:ne180000]()::{lambda(auto:1&)#1}, std::__ndk1::__variant_detail::__base<(std::__ndk1::__variant_detail::__traits<geode::Hook*, std::__ndk1::basic_string<char, std::__ndk1::char_traits<char>, std::__ndk1::allocator<char> > >)1, geode::Hook, std::__ndk1::allocator<char> >&>(std::__ndk1::__variant_detail::__dtor<std::__ndk1::__variant_detail::__traits<geode::Hook*, std::__ndk1::basic_string<char, std::__ndk1::char_traits<char>, std::__ndk1::allocator<char> > >, (std::__ndk1::__variant_detail::_Trait)1>, std::__ndk1::__variant_detail::__base<(std::__ndk1::__variant_detail::__traits<geode::Hook*, std::__ndk1::basic_string<char, std::__ndk1::char_traits<char>, std::__ndk1::allocator<char> > >)1, geode::Hook, std::__ndk1::allocator<char> >&)
FUNC 126f8 fc 0 std::__ndk1::__tree<std::__ndk1::__value_type<std::__ndk1::basic_string<char, std::__ndk1::char_traits<char>, std::__ndk1::allocator<char> >, std::__ndk1::shared_ptr<geode::Hook> >, std::__ndk1::__map_value_compare<std::__ndk1::basic_string<char, std::__ndk1::char_traits<char>, std::__ndk1::allocator<char> >, std::__ndk1::__value_type<std::__ndk1::basic_string<char, std::__ndk1::char_traits<char>, std::__ndk1::allocator<char> >, std::__ndk1::shared_ptr<geode::Hook> >, std::__ndk1::less<std::__ndk1::basic_string<char, std::__ndk1::char_traits<char>, std::__ndk1::allocator<char> > >, true>, std::__ndk1::allocator<std::__ndk1::__value_type<std::__ndk1::basic_string<char, std::__ndk1::char_traits<char>, std::__ndk1::allocator<char> >, std::__ndk1::shared_ptr<geode::Hook> > > >::find<std::__ndk1::basic_string<char, std::__ndk1::char_traits<char>, std::__ndk1::allocator<char> > >(std::__ndk1::basic_string<char, std::__ndk1::char_traits<char>, std::__ndk1::allocator<char> > const&)
FUNC 127f4 d4 0 std::__ndk1::__tree<std::__ndk1::__value_type<std::__ndk1::basic_string<char, std::__ndk1::char_traits<char>, std::__ndk1::allocator<char> >, std::__ndk1::shared_ptr<geode::Hook> >, std::__ndk1::__map_value_compare<std::__ndk1::basic_string<char, std::__ndk1::char_traits<char>, std::__ndk1::allocator<char> >, std::__ndk1::__value_type<std::__ndk1::basic_string<char, std::__ndk1::char_traits<char>, std::__ndk1::allocator<char> >, std::__ndk1::shared_ptr<geode::Hook> >, std::__ndk1::less<std::__ndk1::basic_string<char, std::__ndk1::char_traits<char>, std::__ndk1::allocator<char> > >, true>, std::__ndk1::allocator<std::__ndk1::__value_type<std::__ndk1::basic_string<char, std::__ndk1::char_traits<char>, std::__ndk1::allocator<char> >, std::__ndk1::shared_ptr<geode::Hook> > > >::erase(std::__ndk1::__tree_const_iterator<std::__ndk1::__value_type<std::__ndk1::basic_string<char, std::__ndk1::char_traits<char>, std::__ndk1::allocator<char> >, std::__ndk1::shared_ptr<geode::Hook> >, std::__ndk1::__tree_node<std::__ndk1::__value_type<std::__ndk1::basic_string<char, std::__ndk1::char_traits<char>, std::__ndk1::allocator<char> >, std::__ndk1::shared_ptr<geode::Hook> >, void*>*, long>)
FUNC 128c8 388 0 std::__ndk1::__tree_remove[abi:ne180000]<std::__ndk1::__tree_node_base<void*>*>(std::__ndk1::__tree_node_base<void*>*, std::__ndk1::__tree_node_base<void*>*)
FUNC 12c50 8c 0 std::__ndk1::__tree<std::__ndk1::__value_type<std::__ndk1::basic_string<char, std::__ndk1::char_traits<char>, std::__ndk1::allocator<char> >, std::__ndk1::shared_ptr<geode::Hook> >, std::__ndk1::__map_value_compare<std::__ndk1::basic_string<char, std::__ndk1::char_traits<char>, std::__ndk1::allocator<char> >, std::__ndk1::__value_type<std::__ndk1::basic_string<char, std::__ndk1::char_traits<char>, std::__ndk1::allocator<char> >, std::__ndk1::shared_ptr<geode::Hook> >, std::__ndk1::less<std::__ndk1::basic_string<char, std::__ndk1::char_traits<char>, std::__ndk1::allocator<char> > >, true>, std::__ndk1::allocator<std::__ndk1::__value_type<std::__ndk1::basic_string<char, std::__ndk1::char_traits<char>, std::__ndk1::allocator<char> >, std::__ndk1::shared_ptr<geode::Hook> > > >::destroy(std::__ndk1::__tree_node<std::__ndk1::__value_type<std::__ndk1::basic_string<char, std::__ndk1::char_traits<char>, std::__ndk1::allocator<char> >, std::__ndk1::shared_ptr<geode::Hook> >, void*>*)
FUNC 12cdc 1a4 0 geode::modifier::AsStaticFunction_init<OLBoomScrollLayer, bool (OLBoomScrollLayer::*)(cocos2d::CCArray*, int, bool, cocos2d::CCArray*, DynamicScrollDelegate*)>::Impl<bool (OLBoomScrollLayer::*)(cocos2d::CCArray*, int, bool, cocos2d::CCArray*, DynamicScrollDelegate*)>::function(OLBoomScrollLayer*, cocos2d::CCArray*, int, bool, cocos2d::CCArray*, DynamicScrollDelegate*)
FUNC 12e80 50 0 std::__ndk1::shared_ptr<tulip::hook::CallingConvention>::~shared_ptr[abi:ne180000]()
FUNC 12ed0 64 0 tulip::hook::HandlerMetadata::~HandlerMetadata()
FUNC 12f34 14 0 std::__ndk1::vector<tulip::hook::AbstractType, std::__ndk1::allocator<tulip::hook::AbstractType> >::__throw_length_error[abi:ne180000]() const
FUNC 12f48 134 0 geode::Mod::getSettingValue<bool>(std::__ndk1::basic_string_view<char, std::__ndk1::char_traits<char> >) const
FUNC 1307c e4 0 geode::cast::traverseTypeinfoFor(void*, geode::cast::ClassTypeinfoType const*, char const*)
FUNC 13160 4 0 std::__ndk1::__function::__base<void ()>::~__base()
FUNC 13164 4 0 std::__ndk1::__function::__func<OLBoomScrollLayer::init(cocos2d::CCArray*, int, bool, cocos2d::CCArray*, DynamicScrollDelegate*)::{lambda()#1}, std::__ndk1::allocator<OLBoomScrollLayer::init(cocos2d::CCArray*, int, bool, cocos2d::CCArray*, DynamicScrollDelegate*)::{lambda()#1}>, void ()>::~__func()
FUNC 13168 40 0 std::__ndk1::__function::__func<OLBoomScrollLayer::init(cocos2d::CCArray*, int, bool, cocos2d::CCArray*, DynamicScrollDelegate*)::{lambda()#1}, std::__ndk1::allocator<OLBoomScrollLayer::init(cocos2d::CCArray*, int, bool, cocos2d::CCArray*, DynamicScrollDelegate*)::{lambda()#1}>, void ()>::__clone() const
FUNC 131a8 20 0 std::__ndk1::__function::__func<OLBoomScrollLayer::init(cocos2d::CCArray*, int, bool, cocos2d::CCArray*, DynamicScrollDelegate*)::{lambda()#1}, std::__ndk1::allocator<OLBoomScrollLayer::init(cocos2d::CCArray*, int, bool, cocos2d::CCArray*, DynamicScrollDelegate*)::{lambda()#1}>, void ()>::__clone(std::__ndk1::__function::__base<void ()>*) const
FUNC 131c8 4 0 std::__ndk1::__function::__func<OLBoomScrollLayer::init(cocos2d::CCArray*, int, bool, cocos2d::CCArray*, DynamicScrollDelegate*)::{lambda()#1}, std::__ndk1::allocator<OLBoomScrollLayer::init(cocos2d::CCArray*, int, bool, cocos2d::CCArray*, DynamicScrollDelegate*)::{lambda()#1}>, void ()>::destroy()
FUNC 131cc 4 0 std::__ndk1::__function::__func<OLBoomScrollLayer::init(cocos2d::CCArray*, int, bool, cocos2d::CCArray*, DynamicScrollDelegate*)::{lambda()#1}, std::__ndk1::allocator<OLBoomScrollLayer::init(cocos2d::CCArray*, int, bool, cocos2d::CCArray*, DynamicScrollDelegate*)::{lambda()#1}>, void ()>::destroy_deallocate()
FUNC 131d0 394 0 std::__ndk1::__function::__func<OLBoomScrollLayer::init(cocos2d::CCArray*, int, bool, cocos2d::CCArray*, DynamicScrollDelegate*)::{lambda()#1}, std::__ndk1::allocator<OLBoomScrollLayer::init(cocos2d::CCArray*, int, bool, cocos2d::CCArray*, DynamicScrollDelegate*)::{lambda()#1}>, void ()>::operator()()
FUNC 13564 1c 0 std::__ndk1::__function::__func<OLBoomScrollLayer::init(cocos2d::CCArray*, int, bool, cocos2d::CCArray*, DynamicScrollDelegate*)::{lambda()#1}, std::__ndk1::allocator<OLBoomScrollLayer::init(cocos2d::CCArray*, int, bool, cocos2d::CCArray*, DynamicScrollDelegate*)::{lambda()#1}>, void ()>::target(std::type_info const&) const
FUNC 13580 c 0 std::__ndk1::__function::__func<OLBoomScrollLayer::init(cocos2d::CCArray*, int, bool, cocos2d::CCArray*, DynamicScrollDelegate*)::{lambda()#1}, std::__ndk1::allocator<OLBoomScrollLayer::init(cocos2d::CCArray*, int, bool, cocos2d::CCArray*, DynamicScrollDelegate*)::{lambda()#1}>, void ()>::target_type() const
FUNC 1358c 4c 0 OLBoomScrollLayer::goToPage(cocos2d::CCObject*)
FUNC 135d8 104 0 std::__ndk1::__tree<std::__ndk1::__value_type<std::__ndk1::basic_string<char, std::__ndk1::char_traits<char>, std::__ndk1::allocator<char> >, std::__ndk1::shared_ptr<geode::Hook> >, std::__ndk1::__map_value_compare<std::__ndk1::basic_string<char, std::__ndk1::char_traits<char>, std::__ndk1::allocator<char> >, std::__ndk1::__value_type<std::__ndk1::basic_string<char, std::__ndk1::char_traits<char>, std::__ndk1::allocator<char> >, std::__ndk1::shared_ptr<geode::Hook> >, std::__ndk1::less<std::__ndk1::basic_string<char, std::__ndk1::char_traits<char>, std::__ndk1::allocator<char> > >, true>, std::__ndk1::allocator<std::__ndk1::__value_type<std::__ndk1::basic_string<char, std::__ndk1::char_traits<char>, std::__ndk1::allocator<char> >, std::__ndk1::shared_ptr<geode::Hook> > > >::__find_equal<std::__ndk1::basic_string<char, std::__ndk1::char_traits<char>, std::__ndk1::allocator<char> > >(std::__ndk1::__tree_end_node<std::__ndk1::__tree_node_base<void*>*>*&, std::__ndk1::basic_string<char, std::__ndk1::char_traits<char>, std::__ndk1::allocator<char> > const&)
FUNC 136dc 19c 0 std::__ndk1::__tree_balance_after_insert[abi:ne180000]<std::__ndk1::__tree_node_base<void*>*>(std::__ndk1::__tree_node_base<void*>*, std::__ndk1::__tree_node_base<void*>*)
FUNC 13878 570 0 __cxx_global_var_init
FUNC 13de8 1c 0 geode::modifier::ModifyBase<geode::modifier::ModifyDerive<hook22<(anonymous namespace)::hook22Parent>, LevelPage> >::~ModifyBase()
FUNC 13e04 6d4 0 geode::modifier::ModifyDerive<hook22<(anonymous namespace)::hook22Parent>, LevelPage>::apply()
FUNC 144d8 4 0 geode::modifier::ModifyBase<geode::modifier::ModifyDerive<hook22<(anonymous namespace)::hook22Parent>, LevelPage> >::apply()
FUNC 144dc 2c8 0 geode::modifier::ModifyBase<geode::modifier::ModifyDerive<hook22<(anonymous namespace)::hook22Parent>, LevelPage> >::setHookPriority(std::__ndk1::basic_string_view<char, std::__ndk1::char_traits<char> >, int)
FUNC 147a4 8c 0 std::__ndk1::basic_string<char, std::__ndk1::char_traits<char>, std::__ndk1::allocator<char> >::basic_string[abi:ne180000]<0>()
FUNC 14830 7c 0 std::__ndk1::unique_ptr<std::__ndk1::__tree_node<std::__ndk1::__value_type<std::__ndk1::basic_string<char, std::__ndk1::char_traits<char>, std::__ndk1::allocator<char> >, std::__ndk1::shared_ptr<geode::Hook> >, void*>, std::__ndk1::__tree_node_destructor<std::__ndk1::allocator<std::__ndk1::__tree_node<std::__ndk1::__value_type<std::__ndk1::basic_string<char, std::__ndk1::char_traits<char>, std::__ndk1::allocator<char> >, std::__ndk1::shared_ptr<geode::Hook> >, void*> > > >::~unique_ptr[abi:ne180000]()
FUNC 148ac 4 0 std::__ndk1::__variant_detail::__visitation::__base::__dispatcher<(unsigned long)0>::__dispatch[abi:ne180000]<std::__ndk1::__variant_detail::__dtor<std::__ndk1::__variant_detail::__traits<std::__ndk1::monostate, std::__ndk1::basic_string<char, std::__ndk1::char_traits<char>, std::__ndk1::allocator<char> > >, (std::__ndk1::__variant_detail::_Trait)1>::__destroy[abi:ne180000]()::{lambda(auto:1&)#1}, std::__ndk1::__variant_detail::__base<(std::__ndk1::__variant_detail::__traits<std::__ndk1::monostate, std::__ndk1::basic_string<char, std::__ndk1::char_traits<char>, std::__ndk1::allocator<char> > >)1, std::__ndk1::__variant_detail::__traits, std::__ndk1::allocator<char> >&>(std::__ndk1::__variant_detail::__dtor<std::__ndk1::__variant_detail::__traits<std::__ndk1::monostate, std::__ndk1::basic_string<char, std::__ndk1::char_traits<char>, std::__ndk1::allocator<char> > >, (std::__ndk1::__variant_detail::_Trait)1>, std::__ndk1::__variant_detail::__base<(std::__ndk1::__variant_detail::__traits<std::__ndk1::monostate, std::__ndk1::basic_string<char, std::__ndk1::char_traits<char>, std::__ndk1::allocator<char> > >)1, std::__ndk1::__variant_detail::__traits, std::__ndk1::allocator<char> >&)
FUNC 148b0 14 0 std::__ndk1::__variant_detail::__visitation::__base::__dispatcher<(unsigned long)1>::__dispatch[abi:ne180000]<std::__ndk1::__variant_detail::__dtor<std::__ndk1::__variant_detail::__traits<std::__ndk1::monostate, std::__ndk1::basic_string<char, std::__ndk1::char_traits<char>, std::__ndk1::allocator<char> > >, (std::__ndk1::__variant_detail::_Trait)1>::__destroy[abi:ne180000]()::{lambda(auto:1&)#1}, std::__ndk1::__variant_detail::__base<(std::__ndk1::__variant_detail::__traits<std::__ndk1::monostate, std::__ndk1::basic_string<char, std::__ndk1::char_traits<char>, std::__ndk1::allocator<char> > >)1, std::__ndk1::__variant_detail::__traits, std::__ndk1::allocator<char> >&>(std::__ndk1::__variant_detail::__dtor<std::__ndk1::__variant_detail::__traits<std::__ndk1::monostate, std::__ndk1::basic_string<char, std::__ndk1::char_traits<char>, std::__ndk1::allocator<char> > >, (std::__ndk1::__variant_detail::_Trait)1>, std::__ndk1::__variant_detail::__base<(std::__ndk1::__variant_detail::__traits<std::__ndk1::monostate, std::__ndk1::basic_string<char, std::__ndk1::char_traits<char>, std::__ndk1::allocator<char> > >)1, std::__ndk1::__variant_detail::__traits, std::__ndk1::allocator<char> >&)
FUNC 148c4 1b88 0 geode::modifier::AsStaticFunction_init<hook22<(anonymous namespace)::hook22Parent>, bool (hook22<(anonymous namespace)::hook22Parent>::*)(GJGameLevel*)>::Impl<bool (hook22<(anonymous namespace)::hook22Parent>::*)(GJGameLevel*)>::function(hook22<(anonymous namespace)::hook22Parent>*, GJGameLevel*)
FUNC 1644c 19e8 0 geode::modifier::AsStaticFunction_updateDynamicPage<hook22<(anonymous namespace)::hook22Parent>, void (hook22<(anonymous namespace)::hook22Parent>::*)(GJGameLevel*)>::Impl<void (hook22<(anonymous namespace)::hook22Parent>::*)(GJGameLevel*)>::function(hook22<(anonymous namespace)::hook22Parent>*, GJGameLevel*)
FUNC 17e34 240 0 hook22<(anonymous namespace)::hook22Parent>::createClippingNode()
FUNC 18074 628 0 geode::modifier::FieldIntermediate<hook22<(anonymous namespace)::hook22Parent>, LevelPage>::operator->()
FUNC 1869c 98 0 cocos2d::CCSequence::create(cocos2d::CCFiniteTimeAction*, ...)
FUNC 18734 70 0 geode::cocos::CCMenuItemExt::LambdaCallback<CCMenuItemSpriteExtra>::execute(cocos2d::CCNode*)
FUNC 187a4 8 0 cocos2d::CCCopying::copyWithZone(cocos2d::CCZone*)
FUNC 187ac 5c 0 geode::cocos::CCMenuItemExt::LambdaCallback<CCMenuItemSpriteExtra>::~LambdaCallback()
FUNC 18808 64 0 geode::cocos::CCMenuItemExt::LambdaCallback<CCMenuItemSpriteExtra>::~LambdaCallback()
FUNC 1886c 4 0 cocos2d::CCObject::update(float)
FUNC 18870 34 0 std::__ndk1::__throw_bad_function_call[abi:ne180000]()
FUNC 188a4 24 0 std::__ndk1::bad_function_call::~bad_function_call()
FUNC 188c8 4 0 std::__ndk1::__function::__base<void (CCMenuItemSpriteExtra*)>::~__base()
FUNC 188cc 4 0 std::__ndk1::__function::__func<hook22<(anonymous namespace)::hook22Parent>::init(GJGameLevel*)::{lambda(cocos2d::CCObject*)#1}, std::__ndk1::allocator<hook22<(anonymous namespace)::hook22Parent>::init(GJGameLevel*)::{lambda(cocos2d::CCObject*)#1}>, void (CCMenuItemSpriteExtra*)>::~__func()
FUNC 188d0 34 0 std::__ndk1::__function::__func<hook22<(anonymous namespace)::hook22Parent>::init(GJGameLevel*)::{lambda(cocos2d::CCObject*)#1}, std::__ndk1::allocator<hook22<(anonymous namespace)::hook22Parent>::init(GJGameLevel*)::{lambda(cocos2d::CCObject*)#1}>, void (CCMenuItemSpriteExtra*)>::__clone() const
FUNC 18904 14 0 std::__ndk1::__function::__func<hook22<(anonymous namespace)::hook22Parent>::init(GJGameLevel*)::{lambda(cocos2d::CCObject*)#1}, std::__ndk1::allocator<hook22<(anonymous namespace)::hook22Parent>::init(GJGameLevel*)::{lambda(cocos2d::CCObject*)#1}>, void (CCMenuItemSpriteExtra*)>::__clone(std::__ndk1::__function::__base<void (CCMenuItemSpriteExtra*)>*) const
FUNC 18918 4 0 std::__ndk1::__function::__func<hook22<(anonymous namespace)::hook22Parent>::init(GJGameLevel*)::{lambda(cocos2d::CCObject*)#1}, std::__ndk1::allocator<hook22<(anonymous namespace)::hook22Parent>::init(GJGameLevel*)::{lambda(cocos2d::CCObject*)#1}>, void (CCMenuItemSpriteExtra*)>::destroy()
FUNC 1891c 4 0 std::__ndk1::__function::__func<hook22<(anonymous namespace)::hook22Parent>::init(GJGameLevel*)::{lambda(cocos2d::CCObject*)#1}, std::__ndk1::allocator<hook22<(anonymous namespace)::hook22Parent>::init(GJGameLevel*)::{lambda(cocos2d::CCObject*)#1}>, void (CCMenuItemSpriteExtra*)>::destroy_deallocate()
FUNC 18920 18 0 std::__ndk1::__function::__func<hook22<(anonymous namespace)::hook22Parent>::init(GJGameLevel*)::{lambda(cocos2d::CCObject*)#1}, std::__ndk1::allocator<hook22<(anonymous namespace)::hook22Parent>::init(GJGameLevel*)::{lambda(cocos2d::CCObject*)#1}>, void (CCMenuItemSpriteExtra*)>::operator()(CCMenuItemSpriteExtra*&&)
FUNC 18938 1c 0 std::__ndk1::__function::__func<hook22<(anonymous namespace)::hook22Parent>::init(GJGameLevel*)::{lambda(cocos2d::CCObject*)#1}, std::__ndk1::allocator<hook22<(anonymous namespace)::hook22Parent>::init(GJGameLevel*)::{lambda(cocos2d::CCObject*)#1}>, void (CCMenuItemSpriteExtra*)>::target(std::type_info const&) const
FUNC 18954 c 0 std::__ndk1::__function::__func<hook22<(anonymous namespace)::hook22Parent>::init(GJGameLevel*)::{lambda(cocos2d::CCObject*)#1}, std::__ndk1::allocator<hook22<(anonymous namespace)::hook22Parent>::init(GJGameLevel*)::{lambda(cocos2d::CCObject*)#1}>, void (CCMenuItemSpriteExtra*)>::target_type() const
FUNC 18960 4 0 geode::modifier::FieldIntermediate<hook22<(anonymous namespace)::hook22Parent>, LevelPage>::fieldDestructor(void*)
FUNC 18964 14 0 std::__ndk1::vector<void*, std::__ndk1::allocator<void*> >::__throw_length_error[abi:ne180000]() const
FUNC 18978 14 0 std::__ndk1::vector<std::__ndk1::function<void (void*)>, std::__ndk1::allocator<std::__ndk1::function<void (void*)> > >::__throw_length_error[abi:ne180000]() const
FUNC 1898c 14 0 std::__ndk1::vector<void*, std::__ndk1::allocator<void*> >::__throw_out_of_range[abi:ne180000]() const
FUNC 189a0 50 0 std::__ndk1::__throw_out_of_range[abi:ne180000](char const*)
FUNC 189f0 30 0 std::out_of_range::out_of_range[abi:ne180000](char const*)
FUNC 18a20 14 0 std::__ndk1::vector<std::__ndk1::function<void (void*)>, std::__ndk1::allocator<std::__ndk1::function<void (void*)> > >::__throw_out_of_range[abi:ne180000]() const
FUNC 18a34 4 0 std::__ndk1::__function::__base<void (void*)>::~__base()
FUNC 18a38 4 0 std::__ndk1::__function::__func<void (*)(void*), std::__ndk1::allocator<void (*)(void*)>, void (void*)>::~__func()
FUNC 18a3c 38 0 std::__ndk1::__function::__func<void (*)(void*), std::__ndk1::allocator<void (*)(void*)>, void (void*)>::__clone() const
FUNC 18a74 18 0 std::__ndk1::__function::__func<void (*)(void*), std::__ndk1::allocator<void (*)(void*)>, void (void*)>::__clone(std::__ndk1::__function::__base<void (void*)>*) const
FUNC 18a8c 4 0 std::__ndk1::__function::__func<void (*)(void*), std::__ndk1::allocator<void (*)(void*)>, void (void*)>::destroy()
FUNC 18a90 4 0 std::__ndk1::__function::__func<void (*)(void*), std::__ndk1::allocator<void (*)(void*)>, void (void*)>::destroy_deallocate()
FUNC 18a94 10 0 std::__ndk1::__function::__func<void (*)(void*), std::__ndk1::allocator<void (*)(void*)>, void (void*)>::operator()(void*&&)
FUNC 18aa4 1c 0 std::__ndk1::__function::__func<void (*)(void*), std::__ndk1::allocator<void (*)(void*)>, void (void*)>::target(std::type_info const&) const
FUNC 18ac0 c 0 std::__ndk1::__function::__func<void (*)(void*), std::__ndk1::allocator<void (*)(void*)>, void (void*)>::target_type() const
FUNC 18acc bc 0 std::__ndk1::basic_string<char, std::__ndk1::char_traits<char>, std::__ndk1::allocator<char> >::substr[abi:ne180000](unsigned long, unsigned long) const
FUNC 18b88 74 0 std::__ndk1::operator==[abi:ne180000]<char, std::__ndk1::char_traits<char>, std::__ndk1::allocator<char> >(std::__ndk1::basic_string<char, std::__ndk1::char_traits<char>, std::__ndk1::allocator<char> > const&, std::__ndk1::basic_string const*)
FUNC 18bfc 104 0 std::__ndk1::basic_string<char, std::__ndk1::char_traits<char>, std::__ndk1::allocator<char> >::__assign_external(char const*, unsigned long)
FUNC 18d00 14 0 std::__ndk1::basic_string<char, std::__ndk1::char_traits<char>, std::__ndk1::allocator<char> >::__throw_out_of_range[abi:ne180000]() const
FUNC 18d14 400 0 __cxx_global_var_init
FUNC 19114 1c 0 geode::modifier::ModifyBase<geode::modifier::ModifyDerive<hook6<(anonymous namespace)::hook6Parent>, LevelSelectLayer> >::~ModifyBase()
FUNC 19130 3b4 0 geode::modifier::ModifyDerive<hook6<(anonymous namespace)::hook6Parent>, LevelSelectLayer>::apply()
FUNC 194e4 4 0 geode::modifier::ModifyBase<geode::modifier::ModifyDerive<hook6<(anonymous namespace)::hook6Parent>, LevelSelectLayer> >::apply()
FUNC 194e8 78 0 geode::modifier::AsStaticFunction_init<hook6<(anonymous namespace)::hook6Parent>, bool (hook6<(anonymous namespace)::hook6Parent>::*)(int)>::Impl<bool (hook6<(anonymous namespace)::hook6Parent>::*)(int)>::function(hook6<(anonymous namespace)::hook6Parent>*, int)
FUNC 19560 400 0 __cxx_global_var_init
FUNC 19960 1c 0 geode::modifier::ModifyBase<geode::modifier::ModifyDerive<hook7<(anonymous namespace)::hook7Parent>, PlayLayer> >::~ModifyBase()
FUNC 1997c 400 0 geode::modifier::ModifyDerive<hook7<(anonymous namespace)::hook7Parent>, PlayLayer>::apply()
FUNC 19d7c 4 0 geode::modifier::ModifyBase<geode::modifier::ModifyDerive<hook7<(anonymous namespace)::hook7Parent>, PlayLayer> >::apply()
FUNC 19d80 48 0 geode::modifier::AsStaticFunction_init<hook7<(anonymous namespace)::hook7Parent>, bool (hook7<(anonymous namespace)::hook7Parent>::*)(GJGameLevel*, bool, bool)>::Impl<bool (hook7<(anonymous namespace)::hook7Parent>::*)(GJGameLevel*, bool, bool)>::function(hook7<(anonymous namespace)::hook7Parent>*, GJGameLevel*, bool, bool)
FUNC 19dc8 400 0 __cxx_global_var_init
FUNC 1a1c8 1c 0 geode::modifier::ModifyBase<geode::modifier::ModifyDerive<hook12<(anonymous namespace)::hook12Parent>, cocos2d::CCLayer> >::~ModifyBase()
FUNC 1a1e4 364 0 geode::modifier::ModifyDerive<hook12<(anonymous namespace)::hook12Parent>, cocos2d::CCLayer>::apply()
FUNC 1a548 4 0 geode::modifier::ModifyBase<geode::modifier::ModifyDerive<hook12<(anonymous namespace)::hook12Parent>, cocos2d::CCLayer> >::apply()
FUNC 1a54c a8 0 geode::addresser::getVirtual<bool (cocos2d::CCLayer::*)()>(bool (cocos2d::CCLayer::*)())
FUNC 1a5f4 148 0 geode::modifier::AsStaticFunction_init<hook12<(anonymous namespace)::hook12Parent>, bool (hook12<(anonymous namespace)::hook12Parent>::*)()>::Impl<bool (hook12<(anonymous namespace)::hook12Parent>::*)()>::function(hook12<(anonymous namespace)::hook12Parent>*)
FUNC 1a73c 88 0 cocos2d::CCLayer::CCLayer(geode::ZeroConstructorType)
FUNC 1a7c4 4 0 std::__ndk1::__function::__func<hook12<(anonymous namespace)::hook12Parent>::init()::{lambda()#1}, std::__ndk1::allocator<hook12<(anonymous namespace)::hook12Parent>::init()::{lambda()#1}>, void ()>::~__func()
FUNC 1a7c8 34 0 std::__ndk1::__function::__func<hook12<(anonymous namespace)::hook12Parent>::init()::{lambda()#1}, std::__ndk1::allocator<hook12<(anonymous namespace)::hook12Parent>::init()::{lambda()#1}>, void ()>::__clone() const
FUNC 1a7fc 14 0 std::__ndk1::__function::__func<hook12<(anonymous namespace)::hook12Parent>::init()::{lambda()#1}, std::__ndk1::allocator<hook12<(anonymous namespace)::hook12Parent>::init()::{lambda()#1}>, void ()>::__clone(std::__ndk1::__function::__base<void ()>*) const
FUNC 1a810 4 0 std::__ndk1::__function::__func<hook12<(anonymous namespace)::hook12Parent>::init()::{lambda()#1}, std::__ndk1::allocator<hook12<(anonymous namespace)::hook12Parent>::init()::{lambda()#1}>, void ()>::destroy()
FUNC 1a814 4 0 std::__ndk1::__function::__func<hook12<(anonymous namespace)::hook12Parent>::init()::{lambda()#1}, std::__ndk1::allocator<hook12<(anonymous namespace)::hook12Parent>::init()::{lambda()#1}>, void ()>::destroy_deallocate()
FUNC 1a818 68 0 std::__ndk1::__function::__func<hook12<(anonymous namespace)::hook12Parent>::init()::{lambda()#1}, std::__ndk1::allocator<hook12<(anonymous namespace)::hook12Parent>::init()::{lambda()#1}>, void ()>::operator()()
FUNC 1a880 1c 0 std::__ndk1::__function::__func<hook12<(anonymous namespace)::hook12Parent>::init()::{lambda()#1}, std::__ndk1::allocator<hook12<(anonymous namespace)::hook12Parent>::init()::{lambda()#1}>, void ()>::target(std::type_info const&) const
FUNC 1a89c c 0 std::__ndk1::__function::__func<hook12<(anonymous namespace)::hook12Parent>::init()::{lambda()#1}, std::__ndk1::allocator<hook12<(anonymous namespace)::hook12Parent>::init()::{lambda()#1}>, void ()>::target_type() const
FUNC 1a8a8 30 0 geodeImplicitEntry
FUNC 1a8d8 4c 0 std::__ndk1::unordered_map<void*, bool, std::__ndk1::hash<void*>, std::__ndk1::equal_to<void*>, std::__ndk1::allocator<std::__ndk1::pair<void* const, bool> > >::~unordered_map[abi:ne180000]()
FUNC 1a924 134 0 wrapFunction(unsigned long, tulip::hook::WrapperMetadata const&)
FUNC 1aa58 78 0 geode::impl::ResultData<void*, std::__ndk1::basic_string<char, std::__ndk1::char_traits<char>, std::__ndk1::allocator<char> > >::unwrapErr() &
FUNC 1aad0 74 0 geode::impl::ResultData<void*, std::__ndk1::basic_string<char, std::__ndk1::char_traits<char>, std::__ndk1::allocator<char> > >::~ResultData()
FUNC 1ab44 64 0 tulip::hook::WrapperMetadata::~WrapperMetadata()
FUNC 1aba8 224 0 cocos2d::CCObject::CCObject()
FUNC 1adcc 24 0 cocos2d::CCObject::~CCObject()
FUNC 1adf0 24 0 cocos2d::CCNode::~CCNode()
FUNC 1ae14 8 0 {virtual override thunk({offset(-320)}, cocos2d::CCLayer::~CCLayer())}
FUNC 1ae1c 24 0 cocos2d::CCLayer::~CCLayer()
FUNC 1ae40 28 0 {virtual override thunk({offset(-320)}, cocos2d::CCLayer::~CCLayer())}
FUNC 1ae68 150 0 cocos2d::CCDictionary::objectForKey(gd::string const&)
FUNC 1afb8 a8 0 tulip::hook::AbstractFunction::from<cocos2d::CCObject*, cocos2d::CCDictionary*, gd::string const&>(cocos2d::CCObject* (*)(cocos2d::CCDictionary*, gd::string const&))
FUNC 1b060 150 0 cocos2d::CCDictionary::valueForKey(gd::string const&)
FUNC 1b1b0 a8 0 tulip::hook::AbstractFunction::from<cocos2d::CCString const*, cocos2d::CCDictionary*, gd::string const&>(cocos2d::CCString const* (*)(cocos2d::CCDictionary*, gd::string const&))
FUNC 1b258 1c8 0 TextArea::create(gd::string, char const*, float, float, cocos2d::CCPoint, float, bool)
FUNC 1b420 554 0 tulip::hook::AbstractFunction::from<TextArea*, gd::string, char const*, float, float, cocos2d::CCPoint, float, bool>(TextArea* (*)(gd::string, char const*, float, float, cocos2d::CCPoint, float, bool))
FUNC 1b974 178 0 TextArea::setString(gd::string)
FUNC 1baec a4 0 tulip::hook::AbstractFunction::from<void, TextArea*, gd::string>(void (*)(TextArea*, gd::string))
FUNC 1bb90 4 0 cocos2d::CCKeyboardDelegate::keyUp(cocos2d::enumKeyCodes)
FUNC 1bb94 4 0 cocos2d::CCMouseDelegate::rightKeyDown()
FUNC 1bb98 4 0 cocos2d::CCMouseDelegate::rightKeyUp()
FUNC 1bb9c 4 0 cocos2d::CCMouseDelegate::scrollWheel(float, float)
FUNC 1bba0 2a8 0 cocos2d::CCNode::~CCNode()
FUNC 1be48 2f8 0 cocos2d::CCLayer::~CCLayer()
FUNC 1c140 4c4 0 cocos2d::CCObject::~CCObject()
FUNC 1c604 154 0 _ZN5geode15UnwrapExceptionC2IRPvQsr4implE18IsStringStreamableIT_EEENS_4impl5OkTagEOS4_
FUNC 1c758 168 0 _ZN5geode15UnwrapExceptionC2IRNSt6__ndk112basic_stringIcNS2_11char_traitsIcEENS2_9allocatorIcEEEEQsr4implE18IsStringStreamableIT_EEENS_4impl6ErrTagEOSA_
FUNC 1c8c0 4 0 std::__ndk1::__variant_detail::__visitation::__base::__dispatcher<(unsigned long)0>::__dispatch[abi:ne180000]<std::__ndk1::__variant_detail::__dtor<std::__ndk1::__variant_detail::__traits<void*, std::__ndk1::basic_string<char, std::__ndk1::char_traits<char>, std::__ndk1::allocator<char> > >, (std::__ndk1::__variant_detail::_Trait)1>::__destroy[abi:ne180000]()::{lambda(auto:1&)#1}, std::__ndk1::__variant_detail::__base<(std::__ndk1::__variant_detail::__traits<void*, std::__ndk1::basic_string<char, std::__ndk1::char_traits<char>, std::__ndk1::allocator<char> > >)1, std::__ndk1::__variant_detail::__traits, std::__ndk1::allocator<char> >&>(std::__ndk1::__variant_detail::__dtor<std::__ndk1::__variant_detail::__traits<void*, std::__ndk1::basic_string<char, std::__ndk1::char_traits<char>, std::__ndk1::allocator<char> > >, (std::__ndk1::__variant_detail::_Trait)1>, std::__ndk1::__variant_detail::__base<(std::__ndk1::__variant_detail::__traits<void*, std::__ndk1::basic_string<char, std::__ndk1::char_traits<char>, std::__ndk1::allocator<char> > >)1, std::__ndk1::__variant_detail::__traits, std::__ndk1::allocator<char> >&)
FUNC 1c8c4 14 0 std::__ndk1::__variant_detail::__visitation::__base::__dispatcher<(unsigned long)1>::__dispatch[abi:ne180000]<std::__ndk1::__variant_detail::__dtor<std::__ndk1::__variant_detail::__traits<void*, std::__ndk1::basic_string<char, std::__ndk1::char_traits<char>, std::__ndk1::allocator<char> > >, (std::__ndk1::__variant_detail::_Trait)1>::__destroy[abi:ne180000]()::{lambda(auto:1&)#1}, std::__ndk1::__variant_detail::__base<(std::__ndk1::__variant_detail::__traits<void*, std::__ndk1::basic_string<char, std::__ndk1::char_traits<char>, std::__ndk1::allocator<char> > >)1, std::__ndk1::__variant_detail::__traits, std::__ndk1::allocator<char> >&>(std::__ndk1::__variant_detail::__dtor<std::__ndk1::__variant_detail::__traits<void*, std::__ndk1::basic_string<char, std::__ndk1::char_traits<char>, std::__ndk1::allocator<char> > >, (std::__ndk1::__variant_detail::_Trait)1>, std::__ndk1::__variant_detail::__base<(std::__ndk1::__variant_detail::__traits<void*, std::__ndk1::basic_string<char, std::__ndk1::char_traits<char>, std::__ndk1::allocator<char> > >)1, std::__ndk1::__variant_detail::__traits, std::__ndk1::allocator<char> >&)
FUNC 1c8d8 43c 0 std::__ndk1::__hash_table<std::__ndk1::__hash_value_type<void*, bool>, std::__ndk1::__unordered_map_hasher<void*, std::__ndk1::__hash_value_type<void*, bool>, std::__ndk1::hash<void*>, std::__ndk1::equal_to<void*>, true>, std::__ndk1::__unordered_map_equal<void*, std::__ndk1::__hash_value_type<void*, bool>, std::__ndk1::equal_to<void*>, std::__ndk1::hash<void*>, true>, std::__ndk1::allocator<std::__ndk1::__hash_value_type<void*, bool> > >::__emplace_unique_key_args<void*, std::__ndk1::piecewise_construct_t const&, std::__ndk1::tuple<void* const&>, std::__ndk1::tuple<> >(void* const&, std::__ndk1::piecewise_construct_t const&, std::__ndk1::tuple<void* const&>, std::__ndk1::tuple<>)
PUBLIC 1cd14 0 __udivti3
PUBLIC 1cd20 0 __udivmodti4
PUBLIC m 1cf6c 0 __eqtf2
PUBLIC 1d00c 0 __unordtf2
FUNC 1d044 294 0 fmt::v11::detail::write_loc(fmt::v11::basic_appender<char>, fmt::v11::loc_value, fmt::v11::format_specs const&, fmt::v11::detail::locale_ref)
FUNC 1d2d8 70 0 fmt::v11::format_facet<std::__ndk1::locale>::~format_facet()
FUNC 1d348 50 0 fmt::v11::report_error(char const*)
FUNC 1d398 2c 0 fmt::v11::format_error::runtime_error(char const*)
FUNC 1d3c4 750 0 fmt::v11::format_facet<std::__ndk1::locale>::do_put(fmt::v11::basic_appender<char>, fmt::v11::loc_value, fmt::v11::format_specs const&) const
FUNC 1db14 64 0 fmt::v11::detail::loc_writer<char>::~loc_writer()
FUNC 1db78 12c 0 fmt::v11::vformat(fmt::v11::basic_string_view<char>, fmt::v11::basic_format_args<fmt::v11::context>)
FUNC 1dca4 3c8 0 fmt::v11::detail::vformat_to<char>(fmt::v11::detail::buffer<char>&, fmt::v11::basic_string_view<char>, fmt::v11::detail::vformat_args<char>::type, fmt::v11::detail::locale_ref)
FUNC 1e06c 228 0 fmt::v11::detail::is_printable(unsigned int)
FUNC 1e294 2b4 0 fmt::v11::detail::dragonbox::to_decimal<float>(float)
FUNC 1e548 530 0 fmt::v11::detail::dragonbox::to_decimal<double>(double)
FUNC 1ea78 78 0 fmt::v11::basic_memory_buffer<char, (unsigned long)500, std::__ndk1::allocator<char> >::grow(fmt::v11::detail::buffer<char>&, unsigned long)
FUNC 1eaf0 78 0 fmt::v11::format_facet<std::__ndk1::locale>::~format_facet()
FUNC 1eb68 24 0 fmt::v11::format_error::~format_error()
FUNC 1eb8c 150 0 fmt::v11::detail::copy_noinline<char, char const*, fmt::v11::basic_appender<char> >(char const*, char const*, fmt::v11::basic_appender<char>)
FUNC 1ecdc 6c 0 fmt::v11::detail::default_arg_formatter<char>::operator()<bool>(bool)
FUNC 1ed48 74 0 fmt::v11::detail::default_arg_formatter<char>::operator()<char>(char)
FUNC 1edbc f0 0 fmt::v11::detail::default_arg_formatter<char>::operator()<float>(float)
FUNC 1eeac f0 0 fmt::v11::detail::default_arg_formatter<char>::operator()<double>(double)
FUNC 1ef9c 48 0 fmt::v11::detail::default_arg_formatter<char>::operator()<char const*>(char const*)
FUNC 1efe4 9c 0 fmt::v11::detail::default_arg_formatter<char>::operator()<void const*>(void const*)
FUNC 1f080 220 0 _ZN3fmt3v116detail5writeIcNS0_14basic_appenderIcEEiTnNSt6__ndk19enable_ifIXaaaasr11is_integralIT1_EE5valuentsr3std7is_sameIS7_bEE5valuentsr3std7is_sameIS7_T_EE5valueEiE4typeELi0EEET0_SB_S7_
FUNC 1f2a0 150 0 fmt::v11::detail::copy_noinline<char, char*, fmt::v11::basic_appender<char> >(char*, char*, fmt::v11::basic_appender<char>)
FUNC 1f3f0 1c4 0 _ZN3fmt3v116detail5writeIcNS0_14basic_appenderIcEEjTnNSt6__ndk19enable_ifIXaaaasr11is_integralIT1_EE5valuentsr3std7is_sameIS7_bEE5valuentsr3std7is_sameIS7_T_EE5valueEiE4typeELi0EEET0_SB_S7_
FUNC 1f5b4 244 0 _ZN3fmt3v116detail5writeIcNS0_14basic_appenderIcEExTnNSt6__ndk19enable_ifIXaaaasr11is_integralIT1_EE5valuentsr3std7is_sameIS7_bEE5valuentsr3std7is_sameIS7_T_EE5valueEiE4typeELi0EEET0_SB_S7_
FUNC 1f7f8 1ec 0 _ZN3fmt3v116detail5writeIcNS0_14basic_appenderIcEEyTnNSt6__ndk19enable_ifIXaaaasr11is_integralIT1_EE5valuentsr3std7is_sameIS7_bEE5valuentsr3std7is_sameIS7_T_EE5valueEiE4typeELi0EEET0_SB_S7_
FUNC 1f9e4 304 0 _ZN3fmt3v116detail5writeIcNS0_14basic_appenderIcEEnTnNSt6__ndk19enable_ifIXaaaasr11is_integralIT1_EE5valuentsr3std7is_sameIS7_bEE5valuentsr3std7is_sameIS7_T_EE5valueEiE4typeELi0EEET0_SB_S7_
FUNC 1fce8 2a4 0 _ZN3fmt3v116detail5writeIcNS0_14basic_appenderIcEEoTnNSt6__ndk19enable_ifIXaaaasr11is_integralIT1_EE5valuentsr3std7is_sameIS7_bEE5valuentsr3std7is_sameIS7_T_EE5valueEiE4typeELi0EEET0_SB_S7_
FUNC 1ff8c 290 0 _ZN3fmt3v116detail5writeIcNS0_14basic_appenderIcEEbTnNSt6__ndk19enable_ifIXsr3std7is_sameIT1_bEE5valueEiE4typeELi0EEET0_SA_S7_RKNS0_12format_specsENS1_10locale_refE
FUNC 2021c dc0 0 fmt::v11::detail::write_int_noinline<char, fmt::v11::basic_appender<char>, unsigned int>(fmt::v11::basic_appender<char>, fmt::v11::detail::write_int_arg<unsigned int>, fmt::v11::format_specs const&, fmt::v11::detail::locale_ref)
FUNC 20fdc 1d0 0 fmt::v11::detail::fill<char, fmt::v11::basic_appender<char> >(fmt::v11::basic_appender<char>, unsigned long, fmt::v11::detail::fill_t const&)
FUNC 211ac 22c 0 fmt::v11::detail::write_padded<char, (fmt::v11::align::type)1, fmt::v11::basic_appender<char>, fmt::v11::detail::write_char<char, fmt::v11::basic_appender<char> >(fmt::v11::basic_appender<char>, char, fmt::v11::format_specs const&)::{lambda(fmt::v11::basic_appender<char>&)#1}>(fmt::v11::basic_appender<char>, fmt::v11::format_specs const&, unsigned long, unsigned long, fmt::v11::detail::write_char<char, fmt::v11::basic_appender<char> >(fmt::v11::basic_appender<char>, char, fmt::v11::format_specs const&)::{lambda(fmt::v11::basic_appender<char>&)#1})
FUNC 213d8 30c 0 fmt::v11::detail::write_escaped_cp<fmt::v11::basic_appender<char>, char>(fmt::v11::basic_appender<char>, fmt::v11::detail::find_escape_result<char> const&)
FUNC 216e4 178 0 fmt::v11::detail::write_codepoint<(unsigned long)2, char, fmt::v11::basic_appender<char> >(fmt::v11::basic_appender<char>, char, unsigned int)
FUNC 2185c 178 0 fmt::v11::detail::write_codepoint<(unsigned long)8, char, fmt::v11::basic_appender<char> >(fmt::v11::basic_appender<char>, char, unsigned int)
FUNC 219d4 240 0 fmt::v11::detail::write_padded<char, (fmt::v11::align::type)1, fmt::v11::basic_appender<char>, fmt::v11::detail::write_nonfinite<char, fmt::v11::basic_appender<char> >(fmt::v11::basic_appender<char>, bool, fmt::v11::format_specs, fmt::v11::sign::type)::{lambda(fmt::v11::basic_appender<char>&)#1}>(fmt::v11::basic_appender<char>, fmt::v11::format_specs const&, unsigned long, unsigned long, fmt::v11::detail::write_nonfinite<char, fmt::v11::basic_appender<char> >(fmt::v11::basic_appender<char>, bool, fmt::v11::format_specs, fmt::v11::sign::type)::{lambda(fmt::v11::basic_appender<char>&)#1})
FUNC 21c14 c2c 0 fmt::v11::detail::do_write_float<char, fmt::v11::basic_appender<char>, fmt::v11::detail::dragonbox::decimal_fp<float>, fmt::v11::detail::digit_grouping<char> >(fmt::v11::basic_appender<char>, fmt::v11::detail::dragonbox::decimal_fp<float> const&, fmt::v11::format_specs const&, fmt::v11::detail::float_specs, fmt::v11::detail::locale_ref)
FUNC 22840 154 0 fmt::v11::detail::do_write_float<char, fmt::v11::basic_appender<char>, fmt::v11::detail::dragonbox::decimal_fp<float>, fmt::v11::detail::digit_grouping<char> >(fmt::v11::basic_appender<char>, fmt::v11::detail::dragonbox::decimal_fp<float> const&, fmt::v11::format_specs const&, fmt::v11::detail::float_specs, fmt::v11::detail::locale_ref)::{lambda(fmt::v11::basic_appender<char>(fmt::v11::basic_appender<char>))#1}::operator() const
FUNC 22994 238 0 fmt::v11::detail::digit_grouping<char>::digit_grouping(fmt::v11::detail::locale_ref, bool)
FUNC 22bcc 44 0 fmt::v11::detail::digit_grouping<char>::~digit_grouping()
FUNC 22c10 1a4 0 fmt::v11::detail::write_exponent<char, fmt::v11::basic_appender<char> >(int, fmt::v11::basic_appender<char>)
FUNC 22db4 17c 0 _ZN3fmt3v116detail17write_significandIcjTnNSt6__ndk19enable_ifIXsr3std11is_integralIT0_EE5valueEiE4typeELi0EEEPT_S9_S5_iiS8_
FUNC 22f30 ac 0 std::__ndk1::basic_string<char, std::__ndk1::char_traits<char>, std::__ndk1::allocator<char> >::__assign_no_alias<true>(char const*, unsigned long)
FUNC 22fdc 100 0 std::__ndk1::basic_string<char, std::__ndk1::char_traits<char>, std::__ndk1::allocator<char> >::__assign_no_alias<false>(char const*, unsigned long)
FUNC 230dc 3a4 0 fmt::v11::detail::digit_grouping<char>::apply<fmt::v11::basic_appender<char>, char>(fmt::v11::basic_appender<char>, fmt::v11::basic_string_view<char>) const
FUNC 23480 a0 0 fmt::v11::basic_memory_buffer<int, (unsigned long)500, std::__ndk1::allocator<int> >::grow(fmt::v11::detail::buffer<int>&, unsigned long)
FUNC 23520 c6c 0 fmt::v11::detail::do_write_float<char, fmt::v11::basic_appender<char>, fmt::v11::detail::dragonbox::decimal_fp<double>, fmt::v11::detail::digit_grouping<char> >(fmt::v11::basic_appender<char>, fmt::v11::detail::dragonbox::decimal_fp<double> const&, fmt::v11::format_specs const&, fmt::v11::detail::float_specs, fmt::v11::detail::locale_ref)
FUNC 2418c 158 0 fmt::v11::detail::do_write_float<char, fmt::v11::basic_appender<char>, fmt::v11::detail::dragonbox::decimal_fp<double>, fmt::v11::detail::digit_grouping<char> >(fmt::v11::basic_appender<char>, fmt::v11::detail::dragonbox::decimal_fp<double> const&, fmt::v11::format_specs const&, fmt::v11::detail::float_specs, fmt::v11::detail::locale_ref)::{lambda(fmt::v11::basic_appender<char>(fmt::v11::basic_appender<char>))#1}::operator() const
FUNC 242e4 190 0 _ZN3fmt3v116detail17write_significandIcmTnNSt6__ndk19enable_ifIXsr3std11is_integralIT0_EE5valueEiE4typeELi0EEEPT_S9_S5_iiS8_
FUNC 24474 ad4 0 fmt::v11::detail::write_float<char, fmt::v11::basic_appender<char>, long double>(fmt::v11::basic_appender<char>, long double, fmt::v11::format_specs, fmt::v11::detail::locale_ref)
FUNC 24f48 1dc 0 fmt::v11::detail::write_padded<char, (fmt::v11::align::type)2, fmt::v11::basic_appender<char>, fmt::v11::detail::write_bytes<char, (fmt::v11::align::type)2, fmt::v11::basic_appender<char> >(fmt::v11::basic_appender<char>, fmt::v11::basic_string_view<char>, fmt::v11::format_specs const&)::{lambda(fmt::v11::basic_appender<char>&)#1}>(fmt::v11::basic_appender<char>, fmt::v11::format_specs const&, unsigned long, unsigned long, fmt::v11::detail::write_bytes<char, (fmt::v11::align::type)2, fmt::v11::basic_appender<char> >(fmt::v11::basic_appender<char>, fmt::v11::basic_string_view<char>, fmt::v11::format_specs const&)::{lambda(fmt::v11::basic_appender<char>&)#1})
FUNC 25124 1350 0 fmt::v11::detail::format_dragon(fmt::v11::detail::basic_fp<unsigned __int128>, unsigned int, int, fmt::v11::detail::buffer<char>&, int&)
FUNC 26474 124 0 fmt::v11::detail::bigint::operator<<=(int)
FUNC 26598 744 0 fmt::v11::detail::bigint::assign_pow10(int)
FUNC 26cdc 2f4 0 fmt::v11::detail::bigint::divmod_assign(fmt::v11::detail::bigint const&)
FUNC 26fd0 a0 0 fmt::v11::basic_memory_buffer<unsigned int, (unsigned long)32, std::__ndk1::allocator<unsigned int> >::grow(fmt::v11::detail::buffer<unsigned int>&, unsigned long)
FUNC 27070 e84 0 fmt::v11::detail::do_write_float<char, fmt::v11::basic_appender<char>, fmt::v11::detail::big_decimal_fp, fmt::v11::detail::digit_grouping<char> >(fmt::v11::basic_appender<char>, fmt::v11::detail::big_decimal_fp const&, fmt::v11::format_specs const&, fmt::v11::detail::float_specs, fmt::v11::detail::locale_ref)
FUNC 27ef4 160 0 fmt::v11::detail::do_write_float<char, fmt::v11::basic_appender<char>, fmt::v11::detail::big_decimal_fp, fmt::v11::detail::digit_grouping<char> >(fmt::v11::basic_appender<char>, fmt::v11::detail::big_decimal_fp const&, fmt::v11::format_specs const&, fmt::v11::detail::float_specs, fmt::v11::detail::locale_ref)::{lambda(fmt::v11::basic_appender<char>(fmt::v11::basic_appender<char>))#1}::operator() const
FUNC 28054 214 0 fmt::v11::detail::write_padded<char, (fmt::v11::align::type)2, fmt::v11::basic_appender<char>, fmt::v11::detail::write_ptr<char, fmt::v11::basic_appender<char>, unsigned long>(fmt::v11::basic_appender<char>, unsigned long, fmt::v11::format_specs const*)::{lambda(fmt::v11::basic_appender<char>&)#1}>(fmt::v11::basic_appender<char>, fmt::v11::format_specs const&, unsigned long, unsigned long, fmt::v11::detail::write_ptr<char, fmt::v11::basic_appender<char>, unsigned long>(fmt::v11::basic_appender<char>, unsigned long, fmt::v11::format_specs const*)::{lambda(fmt::v11::basic_appender<char>&)#1})
FUNC 28268 1c3c 0 fmt::v11::detail::parse_replacement_field<char, fmt::v11::detail::vformat_to<char>(fmt::v11::detail::buffer<char>&, fmt::v11::basic_string_view<char>, fmt::v11::detail::vformat_args<char>::type, fmt::v11::detail::locale_ref)::format_handler&>(char const*, char const*, fmt::v11::detail::vformat_to<char>(fmt::v11::detail::buffer<char>&, fmt::v11::basic_string_view<char>, fmt::v11::detail::vformat_args<char>::type, fmt::v11::detail::locale_ref)::format_handler&)
FUNC 29ea4 288 0 fmt::v11::detail::parse_dynamic_spec<char>(char const*, char const*, int&, fmt::v11::detail::arg_ref<char>&, fmt::v11::basic_format_parse_context<char>&)
FUNC 2a12c 158 0 fmt::v11::basic_format_args<fmt::v11::context>::get<char>(fmt::v11::basic_string_view<char>) const
FUNC 2a284 e24 0 fmt::v11::detail::write_int_noinline<char, fmt::v11::basic_appender<char>, unsigned long>(fmt::v11::basic_appender<char>, fmt::v11::detail::write_int_arg<unsigned long>, fmt::v11::format_specs const&, fmt::v11::detail::locale_ref)
FUNC 2b0a8 fc8 0 fmt::v11::detail::write_int_noinline<char, fmt::v11::basic_appender<char>, unsigned __int128>(fmt::v11::basic_appender<char>, fmt::v11::detail::write_int_arg<unsigned __int128>, fmt::v11::format_specs const&, fmt::v11::detail::locale_ref)
FUNC 2c070 510 0 _ZN3fmt3v116detail15format_hexfloatIdTnNSt6__ndk19enable_ifIXntsr16is_double_doubleIT_EE5valueEiE4typeELi0EEEvS5_NS0_12format_specsERNS1_6bufferIcEE
FUNC 2c580 98c 0 fmt::v11::detail::format_float<double>(double, int, fmt::v11::detail::float_specs, fmt::v11::detail::buffer<char>&)
FUNC 2cf0c cb8 0 fmt::v11::detail::write<char, fmt::v11::basic_appender<char> >(fmt::v11::basic_appender<char>, fmt::v11::basic_string_view<char>, fmt::v11::format_specs const&)
FUNC 2dbc4 17c 0 fmt::v11::detail::for_each_codepoint<fmt::v11::detail::find_escape(char const*, char const*)::{lambda(unsigned int, fmt::v11::basic_string_view<char>)#1}>(fmt::v11::basic_string_view<char>, fmt::v11::detail::find_escape(char const*, char const*)::{lambda(unsigned int, fmt::v11::basic_string_view<char>)#1})::{lambda(char const*, char const*)#1}::operator()(char const*, char const*) const
FUNC 2dd40 1b8 0 fmt::v11::detail::for_each_codepoint<fmt::v11::detail::compute_width(fmt::v11::basic_string_view<char>)::count_code_points>(fmt::v11::basic_string_view<char>, fmt::v11::detail::compute_width(fmt::v11::basic_string_view<char>)::count_code_points)::{lambda(char const*, char const*)#1}::operator()(char const*, char const*) const
FUNC 2def8 570 0 fmt::v11::detail::write_int<fmt::v11::basic_appender<char>, unsigned long, char>(fmt::v11::basic_appender<char>, unsigned long, unsigned int, fmt::v11::format_specs const&, fmt::v11::detail::digit_grouping<char> const&)
FUNC 2e468 664 0 fmt::v11::detail::write_int<fmt::v11::basic_appender<char>, unsigned __int128, char>(fmt::v11::basic_appender<char>, unsigned __int128, unsigned int, fmt::v11::format_specs const&, fmt::v11::detail::digit_grouping<char> const&)
PUBLIC 2ead0 0 <.plt ELF section in firee.overchargedlevels.android64.so>
STACK CFI INIT 10850 10 .cfa: sp 0 +
STACK CFI INIT 10860 8 .cfa: sp 0 +
STACK CFI INIT 10868 8 .cfa: sp 0 +
STACK CFI INIT 10870 14 .cfa: sp 0 +
STACK CFI INIT 10884 1c .cfa: sp 0 +
STACK CFI INIT 108a0 10 .cfa: sp 0 +
STACK CFI INIT 108b0 30 .cfa: sp 0 +
STACK CFI INIT 108e0 98 .cfa: sp 0 +
STACK CFI INIT 10978 59c .cfa: sp 0 +
STACK CFI INIT 10f14 8c .cfa: sp 0 +
STACK CFI INIT 10fa0 30 .cfa: sp 0 +
STACK CFI INIT 11414 1c .cfa: sp 0 +
STACK CFI INIT 1187c 50 .cfa: sp 0 +
STACK CFI 11880 .cfa: sp 32 +
STACK CFI 11888 .cfa: x29 32 + x19: .cfa -16 + ^ .ra: .cfa -24 + ^ x29: .cfa -32 + ^
STACK CFI 118a0 .cfa: sp 32 +
STACK CFI 118a8 .cfa: sp 0 +
STACK CFI 118ac .cfa: x29 32 +
STACK CFI 118c0 .cfa: sp 32 +
STACK CFI 118c8 .cfa: sp 0 +
STACK CFI INIT 11940 7c .cfa: sp 0 +
STACK CFI 11944 .cfa: sp 48 +
STACK CFI 11950 .cfa: x29 48 + x19: .cfa -8 + ^ x20: .cfa -16 + ^ x21: .cfa -32 + ^ .ra: .cfa -40 + ^ x29: .cfa -48 + ^
STACK CFI 1199c .cfa: sp 48 +
STACK CFI 119a8 .cfa: sp 0 +
STACK CFI 119ac .cfa: sp 48 +
STACK CFI 119b8 .cfa: sp 0 +
STACK CFI INIT 119bc 4 .cfa: sp 0 +
STACK CFI INIT 119c0 10 .cfa: sp 0 +
STACK CFI 119c4 .cfa: sp 16 +
STACK CFI 119c8 .cfa: x29 16 + .ra: .cfa -8 + ^ x29: .cfa -16 + ^
STACK CFI INIT 11b24 34 .cfa: sp 0 +
STACK CFI 11b28 .cfa: sp 16 +
STACK CFI 11b2c .cfa: x29 16 + .ra: .cfa -8 + ^ x29: .cfa -16 + ^
STACK CFI INIT 11c7c 80 .cfa: sp 0 +
STACK CFI 11c80 .cfa: sp 48 +
STACK CFI 11c8c .cfa: x29 48 + x19: .cfa -8 + ^ x20: .cfa -16 + ^ x21: .cfa -32 + ^ .ra: .cfa -40 + ^ x29: .cfa -48 + ^
STACK CFI 11cec .cfa: sp 48 +
STACK CFI 11cf8 .cfa: sp 0 +
STACK CFI INIT 11cfc 24 .cfa: sp 0 +
STACK CFI 11d00 .cfa: sp 32 +
STACK CFI 11d08 .cfa: x29 32 + x19: .cfa -16 + ^ .ra: .cfa -24 + ^ x29: .cfa -32 + ^
STACK CFI 11d14 .cfa: sp 32 +
STACK CFI 11d1c .cfa: sp 0 +
STACK CFI INIT 1206c 14 .cfa: sp 0 +
STACK CFI 12070 .cfa: sp 16 +
STACK CFI 12074 .cfa: x29 16 + .ra: .cfa -8 + ^ x29: .cfa -16 + ^
STACK CFI INIT 120d0 30 .cfa: sp 0 +
STACK CFI 120d4 .cfa: sp 32 +
STACK CFI 120dc .cfa: x29 32 + x19: .cfa -16 + ^ .ra: .cfa -24 + ^ x29: .cfa -32 + ^
STACK CFI 120f4 .cfa: sp 32 +
STACK CFI 120fc .cfa: sp 0 +
STACK CFI INIT 12100 34 .cfa: sp 0 +
STACK CFI 12104 .cfa: sp 32 +
STACK CFI 1210c .cfa: x29 32 + x19: .cfa -16 + ^ .ra: .cfa -24 + ^ x29: .cfa -32 + ^
STACK CFI INIT 12290 148 .cfa: sp 0 +
STACK CFI 12294 .cfa: sp 48 +
STACK CFI 122a0 .cfa: x29 48 + x19: .cfa -8 + ^ x20: .cfa -16 + ^ x21: .cfa -32 + ^ .ra: .cfa -40 + ^ x29: .cfa -48 + ^
STACK CFI 123c8 .cfa: sp 48 +
STACK CFI 123d4 .cfa: sp 0 +
STACK CFI INIT 125f4 70 .cfa: sp 0 +
STACK CFI 125f8 .cfa: sp 48 +
STACK CFI 12604 .cfa: x29 48 + x19: .cfa -8 + ^ x20: .cfa -16 + ^ x21: .cfa -24 + ^ x22: .cfa -32 + ^ .ra: .cfa -40 + ^ x29: .cfa -48 + ^
STACK CFI 1264c .cfa: sp 48 +
STACK CFI 12658 .cfa: sp 0 +
STACK CFI 1265c .cfa: x29 48 +
STACK CFI INIT 12664 68 .cfa: sp 0 +
STACK CFI 12668 .cfa: sp 32 +
STACK CFI 12670 .cfa: x29 32 + x19: .cfa -8 + ^ x20: .cfa -16 + ^ .ra: .cfa -24 + ^ x29: .cfa -32 + ^
STACK CFI 12688 .cfa: sp 32 +
STACK CFI 12690 .cfa: sp 0 +
STACK CFI 12694 .cfa: x29 32 +
STACK CFI 126c0 .cfa: sp 32 +
STACK CFI 126c8 .cfa: sp 0 +
STACK CFI INIT 126cc 14 .cfa: sp 0 +
STACK CFI 126d0 .cfa: sp 16 +
STACK CFI 126d4 .cfa: x29 16 + .ra: .cfa -8 + ^ x29: .cfa -16 + ^
STACK CFI INIT 126e0 4 .cfa: sp 0 +
STACK CFI INIT 126e4 14 .cfa: sp 0 +
STACK CFI INIT 126f8 fc .cfa: sp 0 +
STACK CFI 126fc .cfa: sp 64 +
STACK CFI 1270c .cfa: x29 64 + x19: .cfa -8 + ^ x20: .cfa -16 + ^ x21: .cfa -24 + ^ x22: .cfa -32 + ^ x23: .cfa -40 + ^ x24: .cfa -48 + ^ .ra: .cfa -56 + ^ x29: .cfa -64 + ^
STACK CFI 127e0 .cfa: sp 64 +
STACK CFI 127f0 .cfa: sp 0 +
STACK CFI INIT 127f4 d4 .cfa: sp 0 +
STACK CFI 127f8 .cfa: sp 48 +
STACK CFI 12804 .cfa: x29 48 + x19: .cfa -8 + ^ x20: .cfa -16 + ^ x21: .cfa -32 + ^ .ra: .cfa -40 + ^ x29: .cfa -48 + ^
STACK CFI 12894 .cfa: sp 48 +
STACK CFI 128a0 .cfa: sp 0 +
STACK CFI 128a4 .cfa: x29 48 +
STACK CFI INIT 128c8 388 .cfa: sp 0 +
STACK CFI INIT 12c50 8c .cfa: sp 0 +
STACK CFI 12c58 .cfa: sp 32 +
STACK CFI 12c60 .cfa: x29 32 + x19: .cfa -8 + ^ x20: .cfa -16 + ^ .ra: .cfa -24 + ^ x29: .cfa -32 + ^
STACK CFI 12ca8 .cfa: sp 32 +
STACK CFI 12cb0 .cfa: sp 0 +
STACK CFI 12cb8 .cfa: x29 32 +
STACK CFI INIT 12e80 50 .cfa: sp 0 +
STACK CFI 12e84 .cfa: sp 32 +
STACK CFI 12e8c .cfa: x29 32 + x19: .cfa -16 + ^ .ra: .cfa -24 + ^ x29: .cfa -32 + ^
STACK CFI 12ea4 .cfa: sp 32 +
STACK CFI 12eac .cfa: sp 0 +
STACK CFI 12eb0 .cfa: x29 32 +
STACK CFI 12ec4 .cfa: sp 32 +
STACK CFI 12ecc .cfa: sp 0 +
STACK CFI INIT 12ed0 64 .cfa: sp 0 +
STACK CFI 12ed4 .cfa: sp 32 +
STACK CFI 12edc .cfa: x29 32 + x19: .cfa -16 + ^ .ra: .cfa -24 + ^ x29: .cfa -32 + ^
STACK CFI 12f08 .cfa: sp 32 +
STACK CFI 12f10 .cfa: sp 0 +
STACK CFI 12f14 .cfa: x29 32 +
STACK CFI 12f28 .cfa: sp 32 +
STACK CFI 12f30 .cfa: sp 0 +
STACK CFI INIT 12f34 14 .cfa: sp 0 +
STACK CFI 12f38 .cfa: sp 16 +
STACK CFI 12f3c .cfa: x29 16 + .ra: .cfa -8 + ^ x29: .cfa -16 + ^
STACK CFI INIT 1307c e4 .cfa: sp 0 +
STACK CFI 13080 .cfa: sp 64 +
STACK CFI 13090 .cfa: x29 64 + x19: .cfa -8 + ^ x20: .cfa -16 + ^ x21: .cfa -24 + ^ x22: .cfa -32 + ^ x23: .cfa -48 + ^ .ra: .cfa -56 + ^ x29: .cfa -64 + ^
STACK CFI 13108 .cfa: sp 64 +
STACK CFI 13118 .cfa: sp 0 +
STACK CFI 1311c .cfa: x29 64 +
STACK CFI INIT 13160 4 .cfa: sp 0 +
STACK CFI INIT 13164 4 .cfa: sp 0 +
STACK CFI INIT 13168 40 .cfa: sp 0 +
STACK CFI 1316c .cfa: sp 32 +
STACK CFI 13174 .cfa: x29 32 + x19: .cfa -16 + ^ .ra: .cfa -24 + ^ x29: .cfa -32 + ^
STACK CFI 1319c .cfa: sp 32 +
STACK CFI 131a4 .cfa: sp 0 +
STACK CFI INIT 131a8 20 .cfa: sp 0 +
STACK CFI INIT 131c8 4 .cfa: sp 0 +
STACK CFI INIT 131cc 4 .cfa: sp 0 +
STACK CFI INIT 13564 1c .cfa: sp 0 +
STACK CFI INIT 13580 c .cfa: sp 0 +
STACK CFI INIT 1358c 4c .cfa: sp 0 +
STACK CFI 13594 .cfa: sp 32 +
STACK CFI 1359c .cfa: x29 32 + x19: .cfa -8 + ^ x20: .cfa -16 + ^ .ra: .cfa -24 + ^ x29: .cfa -32 + ^
STACK CFI 135c8 .cfa: sp 32 +
STACK CFI 135d0 .cfa: sp 0 +
STACK CFI INIT 135d8 104 .cfa: sp 0 +
STACK CFI 135dc .cfa: sp 80 +
STACK CFI 135f0 .cfa: x29 80 + x19: .cfa -8 + ^ x20: .cfa -16 + ^ x21: .cfa -24 + ^ x22: .cfa -32 + ^ x23: .cfa -40 + ^ x24: .cfa -48 + ^ x25: .cfa -56 + ^ x26: .cfa -64 + ^ .ra: .cfa -72 + ^ x29: .cfa -80 + ^
STACK CFI 136c4 .cfa: sp 80 +
STACK CFI 136d8 .cfa: sp 0 +
STACK CFI INIT 136dc 19c .cfa: sp 0 +
STACK CFI INIT 13de8 1c .cfa: sp 0 +
STACK CFI INIT 144d8 4 .cfa: sp 0 +
STACK CFI INIT 147a4 8c .cfa: sp 0 +
STACK CFI 147a8 .cfa: sp 48 +
STACK CFI 147b4 .cfa: x29 48 + x19: .cfa -8 + ^ x20: .cfa -16 + ^ x21: .cfa -24 + ^ x22: .cfa -32 + ^ .ra: .cfa -40 + ^ x29: .cfa -48 + ^
STACK CFI 14818 .cfa: sp 48 +
STACK CFI 14824 .cfa: sp 0 +
STACK CFI 14828 .cfa: x29 48 +
STACK CFI INIT 14830 7c .cfa: sp 0 +
STACK CFI 14834 .cfa: sp 32 +
STACK CFI 1483c .cfa: x29 32 + x19: .cfa -8 + ^ x20: .cfa -16 + ^ .ra: .cfa -24 + ^ x29: .cfa -32 + ^
STACK CFI 14894 .cfa: sp 32 +
STACK CFI 1489c .cfa: sp 0 +
STACK CFI 148a0 .cfa: sp 32 +
STACK CFI 148a8 .cfa: sp 0 +
STACK CFI INIT 148ac 4 .cfa: sp 0 +
STACK CFI INIT 148b0 14 .cfa: sp 0 +
STACK CFI INIT 17e34 240 .cfa: sp 0 +
STACK CFI 17e38 .cfa: sp 112 +
STACK CFI 17e4c .cfa: x29 48 + x19: .cfa -8 + ^ x20: .cfa -16 + ^ x21: .cfa -24 + ^ x22: .cfa -32 + ^ .ra: .cfa -40 + ^ x29: .cfa -48 + ^ v8: .cfa -64 + ^
STACK CFI 18058 .cfa: sp 112 +
STACK CFI 1806c .cfa: sp 0 +
STACK CFI 18070 .cfa: x29 48 +
STACK CFI INIT 1869c 98 .cfa: sp 0 +
STACK CFI 186a0 .cfa: sp 304 +
STACK CFI 186ac .cfa: x29 32 + x19: .cfa -8 + ^ x28: .cfa -16 + ^ .ra: .cfa -24 + ^ x29: .cfa -32 + ^
STACK CFI 18720 .cfa: sp 304 +
STACK CFI 1872c .cfa: sp 0 +
STACK CFI 18730 .cfa: x29 32 +
STACK CFI INIT 18734 70 .cfa: sp 0 +
STACK CFI 18738 .cfa: sp 48 +
STACK CFI 18744 .cfa: x29 32 + x19: .cfa -16 + ^ .ra: .cfa -24 + ^ x29: .cfa -32 + ^
STACK CFI 1877c .cfa: sp 48 +
STACK CFI 18788 .cfa: sp 0 +
STACK CFI 1878c .cfa: x29 32 +
STACK CFI INIT 187a4 8 .cfa: sp 0 +
STACK CFI INIT 187ac 5c .cfa: sp 0 +
STACK CFI 187b0 .cfa: sp 32 +
STACK CFI 187b8 .cfa: x29 32 + x19: .cfa -16 + ^ .ra: .cfa -24 + ^ x29: .cfa -32 + ^
STACK CFI 187fc .cfa: sp 32 +
STACK CFI 18804 .cfa: sp 0 +
STACK CFI INIT 18808 64 .cfa: sp 0 +
STACK CFI 1880c .cfa: sp 32 +
STACK CFI 18814 .cfa: x29 32 + x19: .cfa -16 + ^ .ra: .cfa -24 + ^ x29: .cfa -32 + ^
STACK CFI 18860 .cfa: sp 32 +
STACK CFI 18868 .cfa: sp 0 +
STACK CFI INIT 1886c 4 .cfa: sp 0 +
STACK CFI INIT 18870 34 .cfa: sp 0 +
STACK CFI 18874 .cfa: sp 16 +
STACK CFI 18878 .cfa: x29 16 + .ra: .cfa -8 + ^ x29: .cfa -16 + ^
STACK CFI INIT 188a4 24 .cfa: sp 0 +
STACK CFI 188a8 .cfa: sp 32 +
STACK CFI 188b0 .cfa: x29 32 + x19: .cfa -16 + ^ .ra: .cfa -24 + ^ x29: .cfa -32 + ^
STACK CFI 188bc .cfa: sp 32 +
STACK CFI 188c4 .cfa: sp 0 +
STACK CFI INIT 188c8 4 .cfa: sp 0 +
STACK CFI INIT 188cc 4 .cfa: sp 0 +
STACK CFI INIT 188d0 34 .cfa: sp 0 +
STACK CFI 188d4 .cfa: sp 32 +
STACK CFI 188dc .cfa: x29 32 + x19: .cfa -16 + ^ .ra: .cfa -24 + ^ x29: .cfa -32 + ^
STACK CFI 188f8 .cfa: sp 32 +
STACK CFI 18900 .cfa: sp 0 +
STACK CFI INIT 18904 14 .cfa: sp 0 +
STACK CFI INIT 18918 4 .cfa: sp 0 +
STACK CFI INIT 1891c 4 .cfa: sp 0 +
STACK CFI INIT 18920 18 .cfa: sp 0 +
STACK CFI INIT 18938 1c .cfa: sp 0 +
STACK CFI INIT 18954 c .cfa: sp 0 +
STACK CFI INIT 18960 4 .cfa: sp 0 +
STACK CFI INIT 18964 14 .cfa: sp 0 +
STACK CFI 18968 .cfa: sp 16 +
STACK CFI 1896c .cfa: x29 16 + .ra: .cfa -8 + ^ x29: .cfa -16 + ^
STACK CFI INIT 18978 14 .cfa: sp 0 +
STACK CFI 1897c .cfa: sp 16 +
STACK CFI 18980 .cfa: x29 16 + .ra: .cfa -8 + ^ x29: .cfa -16 + ^
STACK CFI INIT 1898c 14 .cfa: sp 0 +
STACK CFI 18990 .cfa: sp 16 +
STACK CFI 18994 .cfa: x29 16 + .ra: .cfa -8 + ^ x29: .cfa -16 + ^
STACK CFI INIT 189f0 30 .cfa: sp 0 +
STACK CFI 189f4 .cfa: sp 32 +
STACK CFI 189fc .cfa: x29 32 + x19: .cfa -16 + ^ .ra: .cfa -24 + ^ x29: .cfa -32 + ^
STACK CFI 18a14 .cfa: sp 32 +
STACK CFI 18a1c .cfa: sp 0 +
STACK CFI INIT 18a20 14 .cfa: sp 0 +
STACK CFI 18a24 .cfa: sp 16 +
STACK CFI 18a28 .cfa: x29 16 + .ra: .cfa -8 + ^ x29: .cfa -16 + ^
STACK CFI INIT 18a34 4 .cfa: sp 0 +
STACK CFI INIT 18a38 4 .cfa: sp 0 +
STACK CFI INIT 18a3c 38 .cfa: sp 0 +
STACK CFI 18a40 .cfa: sp 32 +
STACK CFI 18a48 .cfa: x29 32 + x19: .cfa -16 + ^ .ra: .cfa -24 + ^ x29: .cfa -32 + ^
STACK CFI 18a68 .cfa: sp 32 +
STACK CFI 18a70 .cfa: sp 0 +
STACK CFI INIT 18a74 18 .cfa: sp 0 +
STACK CFI INIT 18a8c 4 .cfa: sp 0 +
STACK CFI INIT 18a90 4 .cfa: sp 0 +
STACK CFI INIT 18a94 10 .cfa: sp 0 +
STACK CFI INIT 18aa4 1c .cfa: sp 0 +
STACK CFI INIT 18ac0 c .cfa: sp 0 +
STACK CFI INIT 18acc bc .cfa: sp 0 +
STACK CFI 18ad0 .cfa: sp 64 +
STACK CFI 18ae0 .cfa: x29 64 + x19: .cfa -8 + ^ x20: .cfa -16 + ^ x21: .cfa -24 + ^ x22: .cfa -32 + ^ x23: .cfa -48 + ^ .ra: .cfa -56 + ^ x29: .cfa -64 + ^
STACK CFI 18b68 .cfa: sp 64 +
STACK CFI 18b78 .cfa: sp 0 +
STACK CFI 18b7c .cfa: x29 64 +
STACK CFI INIT 18b88 74 .cfa: sp 0 +
STACK CFI 18b8c .cfa: sp 48 +
STACK CFI 18b98 .cfa: x29 48 + x19: .cfa -8 + ^ x20: .cfa -16 + ^ x21: .cfa -24 + ^ x22: .cfa -32 + ^ .ra: .cfa -40 + ^ x29: .cfa -48 + ^
STACK CFI 18bec .cfa: sp 48 +
STACK CFI 18bf8 .cfa: sp 0 +
STACK CFI INIT 18bfc 104 .cfa: sp 0 +
STACK CFI 18c00 .cfa: sp 80 +
STACK CFI 18c14 .cfa: x29 80 + x19: .cfa -8 + ^ x20: .cfa -16 + ^ x21: .cfa -24 + ^ x22: .cfa -32 + ^ x23: .cfa -40 + ^ x24: .cfa -48 + ^ x25: .cfa -56 + ^ x26: .cfa -64 + ^ .ra: .cfa -72 + ^ x29: .cfa -80 + ^
STACK CFI 18ce0 .cfa: sp 80 +
STACK CFI 18cf4 .cfa: sp 0 +
STACK CFI 18cf8 .cfa: x29 80 +
STACK CFI INIT 18d00 14 .cfa: sp 0 +
STACK CFI 18d04 .cfa: sp 16 +
STACK CFI 18d08 .cfa: x29 16 + .ra: .cfa -8 + ^ x29: .cfa -16 + ^
STACK CFI INIT 19114 1c .cfa: sp 0 +
STACK CFI INIT 194e4 4 .cfa: sp 0 +
STACK CFI INIT 194e8 78 .cfa: sp 0 +
STACK CFI 194ec .cfa: sp 48 +
STACK CFI 194f8 .cfa: x29 48 + x19: .cfa -8 + ^ x20: .cfa -16 + ^ x21: .cfa -32 + ^ .ra: .cfa -40 + ^ x29: .cfa -48 + ^
STACK CFI 19550 .cfa: sp 48 +
STACK CFI 1955c .cfa: sp 0 +
STACK CFI INIT 19960 1c .cfa: sp 0 +
STACK CFI INIT 19d7c 4 .cfa: sp 0 +
STACK CFI INIT 19d80 48 .cfa: sp 0 +
STACK CFI 19d84 .cfa: sp 32 +
STACK CFI 19d8c .cfa: x29 32 + x19: .cfa -8 + ^ x20: .cfa -16 + ^ .ra: .cfa -24 + ^ x29: .cfa -32 + ^
STACK CFI 19dbc .cfa: sp 32 +
STACK CFI 19dc4 .cfa: sp 0 +
STACK CFI INIT 1a1c8 1c .cfa: sp 0 +
STACK CFI INIT 1a548 4 .cfa: sp 0 +
STACK CFI INIT 1a73c 88 .cfa: sp 0 +
STACK CFI INIT 1a7c4 4 .cfa: sp 0 +
STACK CFI INIT 1a7c8 34 .cfa: sp 0 +
STACK CFI 1a7cc .cfa: sp 32 +
STACK CFI 1a7d4 .cfa: x29 32 + x19: .cfa -16 + ^ .ra: .cfa -24 + ^ x29: .cfa -32 + ^
STACK CFI 1a7f0 .cfa: sp 32 +
STACK CFI 1a7f8 .cfa: sp 0 +
STACK CFI INIT 1a7fc 14 .cfa: sp 0 +
STACK CFI INIT 1a810 4 .cfa: sp 0 +
STACK CFI INIT 1a814 4 .cfa: sp 0 +
STACK CFI INIT 1a818 68 .cfa: sp 0 +
STACK CFI 1a81c .cfa: sp 16 +
STACK CFI 1a820 .cfa: x29 16 + .ra: .cfa -8 + ^ x29: .cfa -16 + ^
STACK CFI 1a870 .cfa: sp 16 +
STACK CFI 1a874 .cfa: sp 0 +
STACK CFI 1a878 .cfa: sp 16 +
STACK CFI 1a87c .cfa: sp 0 +
STACK CFI INIT 1a880 1c .cfa: sp 0 +
STACK CFI INIT 1a89c c .cfa: sp 0 +
STACK CFI INIT 1a8a8 30 .cfa: sp 0 +
STACK CFI 1a8ac .cfa: sp 32 +
STACK CFI 1a8b4 .cfa: x29 32 + x19: .cfa -16 + ^ .ra: .cfa -24 + ^ x29: .cfa -32 + ^
STACK CFI 1a8cc .cfa: sp 32 +
STACK CFI 1a8d4 .cfa: sp 0 +
STACK CFI INIT 1a8d8 4c .cfa: sp 0 +
STACK CFI 1a8dc .cfa: sp 32 +
STACK CFI 1a8e4 .cfa: x29 32 + x19: .cfa -8 + ^ x20: .cfa -16 + ^ .ra: .cfa -24 + ^ x29: .cfa -32 + ^
STACK CFI 1a90c .cfa: sp 32 +
STACK CFI 1a914 .cfa: sp 0 +
STACK CFI 1a918 .cfa: sp 32 +
STACK CFI 1a920 .cfa: sp 0 +
STACK CFI INIT 1ab44 64 .cfa: sp 0 +
STACK CFI 1ab48 .cfa: sp 32 +
STACK CFI 1ab50 .cfa: x29 32 + x19: .cfa -16 + ^ .ra: .cfa -24 + ^ x29: .cfa -32 + ^
STACK CFI 1ab7c .cfa: sp 32 +
STACK CFI 1ab84 .cfa: sp 0 +
STACK CFI 1ab88 .cfa: x29 32 +
STACK CFI 1ab9c .cfa: sp 32 +
STACK CFI 1aba4 .cfa: sp 0 +
STACK CFI INIT 1adcc 24 .cfa: sp 0 +
STACK CFI 1add0 .cfa: sp 32 +
STACK CFI 1add8 .cfa: x29 32 + x19: .cfa -16 + ^ .ra: .cfa -24 + ^ x29: .cfa -32 + ^
STACK CFI 1ade4 .cfa: sp 32 +
STACK CFI 1adec .cfa: sp 0 +
STACK CFI INIT 1adf0 24 .cfa: sp 0 +
STACK CFI 1adf4 .cfa: sp 32 +
STACK CFI 1adfc .cfa: x29 32 + x19: .cfa -16 + ^ .ra: .cfa -24 + ^ x29: .cfa -32 + ^
STACK CFI 1ae08 .cfa: sp 32 +
STACK CFI 1ae10 .cfa: sp 0 +
STACK CFI INIT 1ae14 8 .cfa: sp 0 +
STACK CFI INIT 1ae1c 24 .cfa: sp 0 +
STACK CFI 1ae20 .cfa: sp 32 +
STACK CFI 1ae28 .cfa: x29 32 + x19: .cfa -16 + ^ .ra: .cfa -24 + ^ x29: .cfa -32 + ^
STACK CFI 1ae34 .cfa: sp 32 +
STACK CFI 1ae3c .cfa: sp 0 +
STACK CFI INIT 1ae40 28 .cfa: sp 0 +
STACK CFI 1ae44 .cfa: sp 32 +
STACK CFI 1ae4c .cfa: x29 32 + x19: .cfa -16 + ^ .ra: .cfa -24 + ^ x29: .cfa -32 + ^
STACK CFI 1ae5c .cfa: sp 32 +
STACK CFI 1ae64 .cfa: sp 0 +
STACK CFI INIT 1bb90 4 .cfa: sp 0 +
STACK CFI INIT 1bb94 4 .cfa: sp 0 +
STACK CFI INIT 1bb98 4 .cfa: sp 0 +
STACK CFI INIT 1bb9c 4 .cfa: sp 0 +
STACK CFI INIT 1c8c0 4 .cfa: sp 0 +
STACK CFI INIT 1c8c4 14 .cfa: sp 0 +
STACK CFI INIT 1cd14 c .cfa: sp 0 +
STACK CFI INIT 1cd20 24c .cfa: sp 0 +
STACK CFI INIT 1cf6c a0 .cfa: sp 0 +
STACK CFI 1cf78 .cfa: sp 32 +
STACK CFI 1cfd0 .cfa: sp 0 +
STACK CFI 1cfd4 .cfa: sp 32 +
STACK CFI 1cfdc .cfa: sp 0 +
STACK CFI 1cfe0 .cfa: sp 32 +
STACK CFI 1cff4 .cfa: sp 0 +
STACK CFI 1cff8 .cfa: sp 32 +
STACK CFI 1d008 .cfa: sp 0 +
STACK CFI INIT 1d00c 38 .cfa: sp 0 +
STACK CFI 1d018 .cfa: sp 32 +
STACK CFI 1d040 .cfa: sp 0 +
STACK CFI INIT 1d2d8 70 .cfa: sp 0 +
STACK CFI 1d2dc .cfa: sp 32 +
STACK CFI 1d2e4 .cfa: x29 32 + x19: .cfa -16 + ^ .ra: .cfa -24 + ^ x29: .cfa -32 + ^
STACK CFI 1d318 .cfa: sp 32 +
STACK CFI 1d320 .cfa: sp 0 +
STACK CFI 1d324 .cfa: x29 32 +
STACK CFI INIT 1d398 2c .cfa: sp 0 +
STACK CFI 1d39c .cfa: sp 32 +
STACK CFI 1d3a4 .cfa: x29 32 + x19: .cfa -16 + ^ .ra: .cfa -24 + ^ x29: .cfa -32 + ^
STACK CFI 1d3b8 .cfa: sp 32 +
STACK CFI 1d3c0 .cfa: sp 0 +
STACK CFI INIT 1db14 64 .cfa: sp 0 +
STACK CFI 1db18 .cfa: sp 32 +
STACK CFI 1db20 .cfa: x29 32 + x19: .cfa -16 + ^ .ra: .cfa -24 + ^ x29: .cfa -32 + ^
STACK CFI 1db3c .cfa: sp 32 +
STACK CFI 1db44 .cfa: sp 0 +
STACK CFI 1db48 .cfa: x29 32 +
STACK CFI 1db6c .cfa: sp 32 +
STACK CFI 1db74 .cfa: sp 0 +
STACK CFI INIT 1dca4 3c8 .cfa: sp 0 +
STACK CFI 1dca8 .cfa: sp 208 +
STACK CFI 1dcbc .cfa: x29 64 + x19: .cfa -8 + ^ x20: .cfa -16 + ^ x21: .cfa -24 + ^ x22: .cfa -32 + ^ x23: .cfa -40 + ^ x24: .cfa -48 + ^ .ra: .cfa -56 + ^ x29: .cfa -64 + ^
STACK CFI 1ded4 .cfa: sp 208 +
STACK CFI 1dee8 .cfa: sp 0 +
STACK CFI 1deec .cfa: x29 64 +
STACK CFI INIT 1e06c 228 .cfa: sp 0 +
STACK CFI INIT 1e294 2b4 .cfa: sp 0 +
STACK CFI INIT 1e548 530 .cfa: sp 0 +
STACK CFI INIT 1ea78 78 .cfa: sp 0 +
STACK CFI 1ea7c .cfa: sp 48 +
STACK CFI 1ea88 .cfa: x29 48 + x19: .cfa -8 + ^ x20: .cfa -16 + ^ x21: .cfa -24 + ^ x22: .cfa -32 + ^ .ra: .cfa -40 + ^ x29: .cfa -48 + ^
STACK CFI 1ead0 .cfa: sp 48 +
STACK CFI 1eadc .cfa: sp 0 +
STACK CFI 1eae0 .cfa: sp 48 +
STACK CFI 1eaec .cfa: sp 0 +
STACK CFI INIT 1eaf0 78 .cfa: sp 0 +
STACK CFI 1eaf4 .cfa: sp 32 +
STACK CFI 1eafc .cfa: x29 32 + x19: .cfa -16 + ^ .ra: .cfa -24 + ^ x29: .cfa -32 + ^
STACK CFI 1eb38 .cfa: sp 32 +
STACK CFI 1eb40 .cfa: sp 0 +
STACK CFI 1eb44 .cfa: x29 32 +
STACK CFI INIT 1eb68 24 .cfa: sp 0 +
STACK CFI 1eb6c .cfa: sp 32 +
STACK CFI 1eb74 .cfa: x29 32 + x19: .cfa -16 + ^ .ra: .cfa -24 + ^ x29: .cfa -32 + ^
STACK CFI 1eb80 .cfa: sp 32 +
STACK CFI 1eb88 .cfa: sp 0 +
STACK CFI INIT 1eb8c 150 .cfa: sp 0 +
STACK CFI 1eb90 .cfa: sp 48 +
STACK CFI 1eb9c .cfa: x29 48 + x19: .cfa -8 + ^ x20: .cfa -16 + ^ x21: .cfa -24 + ^ x22: .cfa -32 + ^ .ra: .cfa -40 + ^ x29: .cfa -48 + ^
STACK CFI 1eccc .cfa: sp 48 +
STACK CFI 1ecd8 .cfa: sp 0 +
STACK CFI INIT 1ecdc 6c .cfa: sp 0 +
STACK CFI 1ece0 .cfa: sp 64 +
STACK CFI 1ecec .cfa: x29 32 + x19: .cfa -16 + ^ .ra: .cfa -24 + ^ x29: .cfa -32 + ^
STACK CFI 1ed34 .cfa: sp 64 +
STACK CFI 1ed40 .cfa: sp 0 +
STACK CFI 1ed44 .cfa: x29 32 +
STACK CFI INIT 1ed48 74 .cfa: sp 0 +
STACK CFI 1ed4c .cfa: sp 32 +
STACK CFI 1ed54 .cfa: x29 32 + x19: .cfa -8 + ^ x20: .cfa -16 + ^ .ra: .cfa -24 + ^ x29: .cfa -32 + ^
STACK CFI 1edb0 .cfa: sp 32 +
STACK CFI 1edb8 .cfa: sp 0 +
STACK CFI INIT 1edbc f0 .cfa: sp 0 +
STACK CFI 1edc0 .cfa: sp 112 +
STACK CFI 1edd0 .cfa: x29 48 + x19: .cfa -8 + ^ x20: .cfa -16 + ^ x21: .cfa -32 + ^ .ra: .cfa -40 + ^ x29: .cfa -48 + ^
STACK CFI 1ee94 .cfa: sp 112 +
STACK CFI 1eea4 .cfa: sp 0 +
STACK CFI 1eea8 .cfa: x29 48 +
STACK CFI INIT 1eeac f0 .cfa: sp 0 +
STACK CFI 1eeb0 .cfa: sp 112 +
STACK CFI 1eec0 .cfa: x29 48 + x19: .cfa -8 + ^ x20: .cfa -16 + ^ x21: .cfa -32 + ^ .ra: .cfa -40 + ^ x29: .cfa -48 + ^
STACK CFI 1ef84 .cfa: sp 112 +
STACK CFI 1ef94 .cfa: sp 0 +
STACK CFI 1ef98 .cfa: x29 48 +
STACK CFI INIT 1ef9c 48 .cfa: sp 0 +
STACK CFI 1efa0 .cfa: sp 32 +
STACK CFI 1efa8 .cfa: x29 32 + x19: .cfa -8 + ^ x20: .cfa -16 + ^ .ra: .cfa -24 + ^ x29: .cfa -32 + ^
STACK CFI 1efcc .cfa: sp 32 +
STACK CFI 1efd4 .cfa: sp 0 +
STACK CFI 1efd8 .cfa: x29 32 +
STACK CFI INIT 1efe4 9c .cfa: sp 0 +
STACK CFI 1efe8 .cfa: sp 80 +
STACK CFI 1eff4 .cfa: x29 32 + x19: .cfa -16 + ^ .ra: .cfa -24 + ^ x29: .cfa -32 + ^
STACK CFI 1f06c .cfa: sp 80 +
STACK CFI 1f078 .cfa: sp 0 +
STACK CFI 1f07c .cfa: x29 32 +
STACK CFI INIT 1f080 220 .cfa: sp 0 +
STACK CFI 1f084 .cfa: sp 112 +
STACK CFI 1f09c .cfa: x29 80 + x19: .cfa -8 + ^ x20: .cfa -16 + ^ x21: .cfa -24 + ^ x22: .cfa -32 + ^ x23: .cfa -40 + ^ x24: .cfa -48 + ^ x25: .cfa -64 + ^ .ra: .cfa -72 + ^ x29: .cfa -80 + ^
STACK CFI 1f260 .cfa: sp 112 +
STACK CFI 1f278 .cfa: sp 0 +
STACK CFI 1f27c .cfa: x29 80 +
STACK CFI INIT 1f2a0 150 .cfa: sp 0 +
STACK CFI 1f2a4 .cfa: sp 48 +
STACK CFI 1f2b0 .cfa: x29 48 + x19: .cfa -8 + ^ x20: .cfa -16 + ^ x21: .cfa -24 + ^ x22: .cfa -32 + ^ .ra: .cfa -40 + ^ x29: .cfa -48 + ^
STACK CFI 1f3e0 .cfa: sp 48 +
STACK CFI 1f3ec .cfa: sp 0 +
STACK CFI INIT 1f3f0 1c4 .cfa: sp 0 +
STACK CFI 1f3f4 .cfa: sp 96 +
STACK CFI 1f408 .cfa: x29 64 + x19: .cfa -8 + ^ x20: .cfa -16 + ^ x21: .cfa -24 + ^ x22: .cfa -32 + ^ x23: .cfa -40 + ^ x24: .cfa -48 + ^ .ra: .cfa -56 + ^ x29: .cfa -64 + ^
STACK CFI 1f578 .cfa: sp 96 +
STACK CFI 1f58c .cfa: sp 0 +
STACK CFI 1f590 .cfa: x29 64 +
STACK CFI INIT 1f5b4 244 .cfa: sp 0 +
STACK CFI 1f5b8 .cfa: sp 112 +
STACK CFI 1f5d0 .cfa: x29 80 + x19: .cfa -8 + ^ x20: .cfa -16 + ^ x21: .cfa -24 + ^ x22: .cfa -32 + ^ x23: .cfa -40 + ^ x24: .cfa -48 + ^ x25: .cfa -64 + ^ .ra: .cfa -72 + ^ x29: .cfa -80 + ^
STACK CFI 1f7b8 .cfa: sp 112 +
STACK CFI 1f7d0 .cfa: sp 0 +
STACK CFI 1f7d4 .cfa: x29 80 +
STACK CFI INIT 1f7f8 1ec .cfa: sp 0 +
STACK CFI 1f7fc .cfa: sp 96 +
STACK CFI 1f810 .cfa: x29 64 + x19: .cfa -8 + ^ x20: .cfa -16 + ^ x21: .cfa -24 + ^ x22: .cfa -32 + ^ x23: .cfa -40 + ^ x24: .cfa -48 + ^ .ra: .cfa -56 + ^ x29: .cfa -64 + ^
STACK CFI 1f9a8 .cfa: sp 96 +
STACK CFI 1f9bc .cfa: sp 0 +
STACK CFI 1f9c0 .cfa: x29 64 +
STACK CFI INIT 1f9e4 304 .cfa: sp 0 +
STACK CFI 1f9e8 .cfa: sp 160 +
STACK CFI 1fa04 .cfa: x29 96 + x19: .cfa -8 + ^ x20: .cfa -16 + ^ x21: .cfa -24 + ^ x22: .cfa -32 + ^ x23: .cfa -40 + ^ x24: .cfa -48 + ^ x25: .cfa -56 + ^ x26: .cfa -64 + ^ x27: .cfa -72 + ^ x28: .cfa -80 + ^ .ra: .cfa -88 + ^ x29: .cfa -96 + ^
STACK CFI 1fc8c .cfa: sp 160 +
STACK CFI 1fca8 .cfa: sp 0 +
STACK CFI 1fcac .cfa: x29 96 +
STACK CFI INIT 1fce8 2a4 .cfa: sp 0 +
STACK CFI 1fcec .cfa: sp 144 +
STACK CFI 1fd08 .cfa: x29 96 + x19: .cfa -8 + ^ x20: .cfa -16 + ^ x21: .cfa -24 + ^ x22: .cfa -32 + ^ x23: .cfa -40 + ^ x24: .cfa -48 + ^ x25: .cfa -56 + ^ x26: .cfa -64 + ^ x27: .cfa -72 + ^ x28: .cfa -80 + ^ .ra: .cfa -88 + ^ x29: .cfa -96 + ^
STACK CFI 1ff30 .cfa: sp 144 +
STACK CFI 1ff4c .cfa: sp 0 +
STACK CFI 1ff50 .cfa: x29 96 +
STACK CFI INIT 1ff8c 290 .cfa: sp 0 +
STACK CFI 1ff90 .cfa: sp 128 +
STACK CFI 1ffa8 .cfa: x29 80 + x19: .cfa -8 + ^ x20: .cfa -16 + ^ x21: .cfa -24 + ^ x22: .cfa -32 + ^ x23: .cfa -40 + ^ x24: .cfa -48 + ^ x25: .cfa -56 + ^ x26: .cfa -64 + ^ .ra: .cfa -72 + ^ x29: .cfa -80 + ^
STACK CFI 201fc .cfa: sp 128 +
STACK CFI 20214 .cfa: sp 0 +
STACK CFI 20218 .cfa: x29 80 +
STACK CFI INIT 2021c dc0 .cfa: sp 0 +
STACK CFI 20220 .cfa: sp 144 +
STACK CFI 2023c .cfa: x29 96 + x19: .cfa -8 + ^ x20: .cfa -16 + ^ x21: .cfa -24 + ^ x22: .cfa -32 + ^ x23: .cfa -40 + ^ x24: .cfa -48 + ^ x25: .cfa -56 + ^ x26: .cfa -64 + ^ x27: .cfa -72 + ^ x28: .cfa -80 + ^ .ra: .cfa -88 + ^ x29: .cfa -96 + ^
STACK CFI 20fb8 .cfa: sp 144 +
STACK CFI 20fd4 .cfa: sp 0 +
STACK CFI 20fd8 .cfa: x29 96 +
STACK CFI INIT 20fdc 1d0 .cfa: sp 0 +
STACK CFI 20fe0 .cfa: sp 80 +
STACK CFI 20ff4 .cfa: x29 80 + x19: .cfa -8 + ^ x20: .cfa -16 + ^ x21: .cfa -24 + ^ x22: .cfa -32 + ^ x23: .cfa -40 + ^ x24: .cfa -48 + ^ x25: .cfa -56 + ^ x26: .cfa -64 + ^ .ra: .cfa -72 + ^ x29: .cfa -80 + ^
STACK CFI 21194 .cfa: sp 80 +
STACK CFI 211a8 .cfa: sp 0 +
STACK CFI INIT 211ac 22c .cfa: sp 0 +
STACK CFI 211b0 .cfa: sp 112 +
STACK CFI 211c4 .cfa: x29 64 + x19: .cfa -8 + ^ x20: .cfa -16 + ^ x21: .cfa -24 + ^ x22: .cfa -32 + ^ x23: .cfa -40 + ^ x24: .cfa -48 + ^ .ra: .cfa -56 + ^ x29: .cfa -64 + ^
STACK CFI 21390 .cfa: sp 112 +
STACK CFI 213a4 .cfa: sp 0 +
STACK CFI 213a8 .cfa: x29 64 +
STACK CFI INIT 213d8 30c .cfa: sp 0 +
STACK CFI 213dc .cfa: sp 80 +
STACK CFI 213f0 .cfa: x29 64 + x19: .cfa -8 + ^ x20: .cfa -16 + ^ x21: .cfa -24 + ^ x22: .cfa -32 + ^ x23: .cfa -40 + ^ x24: .cfa -48 + ^ .ra: .cfa -56 + ^ x29: .cfa -64 + ^
STACK CFI 2156c .cfa: sp 80 +
STACK CFI 21580 .cfa: sp 0 +
STACK CFI 21584 .cfa: x29 64 +
STACK CFI INIT 216e4 178 .cfa: sp 0 +
STACK CFI 216e8 .cfa: sp 80 +
STACK CFI 216fc .cfa: x29 64 + x19: .cfa -8 + ^ x20: .cfa -16 + ^ x21: .cfa -24 + ^ x22: .cfa -32 + ^ x23: .cfa -40 + ^ x24: .cfa -48 + ^ .ra: .cfa -56 + ^ x29: .cfa -64 + ^
STACK CFI 21840 .cfa: sp 80 +
STACK CFI 21854 .cfa: sp 0 +
STACK CFI 21858 .cfa: x29 64 +
STACK CFI INIT 2185c 178 .cfa: sp 0 +
STACK CFI 21860 .cfa: sp 80 +
STACK CFI 21874 .cfa: x29 64 + x19: .cfa -8 + ^ x20: .cfa -16 + ^ x21: .cfa -24 + ^ x22: .cfa -32 + ^ x23: .cfa -40 + ^ x24: .cfa -48 + ^ .ra: .cfa -56 + ^ x29: .cfa -64 + ^
STACK CFI 219b8 .cfa: sp 80 +
STACK CFI 219cc .cfa: sp 0 +
STACK CFI 219d0 .cfa: x29 64 +
STACK CFI INIT 219d4 240 .cfa: sp 0 +
STACK CFI 219d8 .cfa: sp 96 +
STACK CFI 219f0 .cfa: x29 96 + x19: .cfa -8 + ^ x20: .cfa -16 + ^ x21: .cfa -24 + ^ x22: .cfa -32 + ^ x23: .cfa -40 + ^ x24: .cfa -48 + ^ x25: .cfa -56 + ^ x26: .cfa -64 + ^ x27: .cfa -72 + ^ x28: .cfa -80 + ^ .ra: .cfa -88 + ^ x29: .cfa -96 + ^
STACK CFI 21bf8 .cfa: sp 96 +
STACK CFI 21c10 .cfa: sp 0 +
STACK CFI INIT 22840 154 .cfa: sp 0 +
STACK CFI 22844 .cfa: sp 96 +
STACK CFI 22858 .cfa: x29 64 + x19: .cfa -8 + ^ x20: .cfa -16 + ^ x21: .cfa -24 + ^ x22: .cfa -32 + ^ x23: .cfa -48 + ^ .ra: .cfa -56 + ^ x29: .cfa -64 + ^
STACK CFI 22938 .cfa: sp 96 +
STACK CFI 2294c .cfa: sp 0 +
STACK CFI 22950 .cfa: x29 64 +
STACK CFI INIT 22bcc 44 .cfa: sp 0 +
STACK CFI 22bd0 .cfa: sp 32 +
STACK CFI 22bd8 .cfa: x29 32 + x19: .cfa -16 + ^ .ra: .cfa -24 + ^ x29: .cfa -32 + ^
STACK CFI 22bf4 .cfa: sp 32 +
STACK CFI 22bfc .cfa: sp 0 +
STACK CFI 22c00 .cfa: x29 32 +
STACK CFI 22c04 .cfa: sp 32 +
STACK CFI 22c0c .cfa: sp 0 +
STACK CFI INIT 22c10 1a4 .cfa: sp 0 +
STACK CFI 22c14 .cfa: sp 64 +
STACK CFI 22c24 .cfa: x29 64 + x19: .cfa -8 + ^ x20: .cfa -16 + ^ x21: .cfa -24 + ^ x22: .cfa -32 + ^ x23: .cfa -40 + ^ x24: .cfa -48 + ^ .ra: .cfa -56 + ^ x29: .cfa -64 + ^
STACK CFI 22da0 .cfa: sp 64 +
STACK CFI 22db0 .cfa: sp 0 +
STACK CFI INIT 22db4 17c .cfa: sp 0 +
STACK CFI INIT 22f30 ac .cfa: sp 0 +
STACK CFI 22f34 .cfa: sp 64 +
STACK CFI 22f44 .cfa: x29 64 + x19: .cfa -8 + ^ x20: .cfa -16 + ^ x21: .cfa -24 + ^ x22: .cfa -32 + ^ x23: .cfa -48 + ^ .ra: .cfa -56 + ^ x29: .cfa -64 + ^
STACK CFI 22fc0 .cfa: sp 64 +
STACK CFI 22fd0 .cfa: sp 0 +
STACK CFI 22fd4 .cfa: x29 64 +
STACK CFI INIT 22fdc 100 .cfa: sp 0 +
STACK CFI 22fe0 .cfa: sp 64 +
STACK CFI 22ff0 .cfa: x29 64 + x19: .cfa -8 + ^ x20: .cfa -16 + ^ x21: .cfa -24 + ^ x22: .cfa -32 + ^ x23: .cfa -40 + ^ x24: .cfa -48 + ^ .ra: .cfa -56 + ^ x29: .cfa -64 + ^
STACK CFI 230c0 .cfa: sp 64 +
STACK CFI 230d0 .cfa: sp 0 +
STACK CFI 230d4 .cfa: x29 64 +
STACK CFI INIT 23480 a0 .cfa: sp 0 +
STACK CFI 23484 .cfa: sp 48 +
STACK CFI 23490 .cfa: x29 48 + x19: .cfa -8 + ^ x20: .cfa -16 + ^ x21: .cfa -24 + ^ x22: .cfa -32 + ^ .ra: .cfa -40 + ^ x29: .cfa -48 + ^
STACK CFI 234fc .cfa: sp 48 +
STACK CFI 23508 .cfa: sp 0 +
STACK CFI 2350c .cfa: sp 48 +
STACK CFI 23518 .cfa: sp 0 +
STACK CFI 2351c .cfa: x29 48 +
STACK CFI INIT 2418c 158 .cfa: sp 0 +
STACK CFI 24190 .cfa: sp 96 +
STACK CFI 241a4 .cfa: x29 64 + x19: .cfa -8 + ^ x20: .cfa -16 + ^ x21: .cfa -24 + ^ x22: .cfa -32 + ^ x23: .cfa -48 + ^ .ra: .cfa -56 + ^ x29: .cfa -64 + ^
STACK CFI 24288 .cfa: sp 96 +
STACK CFI 2429c .cfa: sp 0 +
STACK CFI 242a0 .cfa: x29 64 +
STACK CFI INIT 242e4 190 .cfa: sp 0 +
STACK CFI INIT 24f48 1dc .cfa: sp 0 +
STACK CFI 24f4c .cfa: sp 80 +
STACK CFI 24f60 .cfa: x29 80 + x19: .cfa -8 + ^ x20: .cfa -16 + ^ x21: .cfa -24 + ^ x22: .cfa -32 + ^ x23: .cfa -40 + ^ x24: .cfa -48 + ^ x25: .cfa -64 + ^ .ra: .cfa -72 + ^ x29: .cfa -80 + ^
STACK CFI 2510c .cfa: sp 80 +
STACK CFI 25120 .cfa: sp 0 +
STACK CFI INIT 26474 124 .cfa: sp 0 +
STACK CFI 264a4 .cfa: sp 32 +
STACK CFI 264ac .cfa: x29 32 + x19: .cfa -8 + ^ x20: .cfa -16 + ^ .ra: .cfa -24 + ^ x29: .cfa -32 + ^
STACK CFI 2658c .cfa: sp 32 +
STACK CFI 26594 .cfa: sp 0 +
STACK CFI INIT 26cdc 2f4 .cfa: sp 0 +
STACK CFI 26ce0 .cfa: sp 64 +
STACK CFI 26cf0 .cfa: x29 64 + x19: .cfa -8 + ^ x20: .cfa -16 + ^ x21: .cfa -24 + ^ x22: .cfa -32 + ^ x23: .cfa -40 + ^ x24: .cfa -48 + ^ .ra: .cfa -56 + ^ x29: .cfa -64 + ^
STACK CFI 26f4c .cfa: sp 64 +
STACK CFI 26f5c .cfa: sp 0 +
STACK CFI 26f60 .cfa: x29 64 +
STACK CFI INIT 26fd0 a0 .cfa: sp 0 +
STACK CFI 26fd4 .cfa: sp 48 +
STACK CFI 26fe0 .cfa: x29 48 + x19: .cfa -8 + ^ x20: .cfa -16 + ^ x21: .cfa -24 + ^ x22: .cfa -32 + ^ .ra: .cfa -40 + ^ x29: .cfa -48 + ^
STACK CFI 2704c .cfa: sp 48 +
STACK CFI 27058 .cfa: sp 0 +
STACK CFI 2705c .cfa: sp 48 +
STACK CFI 27068 .cfa: sp 0 +
STACK CFI 2706c .cfa: x29 48 +
STACK CFI INIT 27ef4 160 .cfa: sp 0 +
STACK CFI 27ef8 .cfa: sp 64 +
STACK CFI 27f08 .cfa: x29 64 + x19: .cfa -8 + ^ x20: .cfa -16 + ^ x21: .cfa -24 + ^ x22: .cfa -32 + ^ x23: .cfa -48 + ^ .ra: .cfa -56 + ^ x29: .cfa -64 + ^
STACK CFI 28000 .cfa: sp 64 +
STACK CFI 28010 .cfa: sp 0 +
STACK CFI 28014 .cfa: x29 64 +
STACK CFI INIT 28054 214 .cfa: sp 0 +
STACK CFI 28058 .cfa: sp 128 +
STACK CFI 28074 .cfa: x29 96 + x19: .cfa -8 + ^ x20: .cfa -16 + ^ x21: .cfa -24 + ^ x22: .cfa -32 + ^ x23: .cfa -40 + ^ x24: .cfa -48 + ^ x25: .cfa -56 + ^ x26: .cfa -64 + ^ x27: .cfa -80 + ^ .ra: .cfa -88 + ^ x29: .cfa -96 + ^
STACK CFI 281f0 .cfa: sp 128 +
STACK CFI 2820c .cfa: sp 0 +
STACK CFI 28210 .cfa: x29 96 +
STACK CFI INIT 29ea4 288 .cfa: sp 0 +
STACK CFI 29ea8 .cfa: sp 16 +
STACK CFI 29eac .cfa: x29 16 + .ra: .cfa -8 + ^ x29: .cfa -16 + ^
STACK CFI 2a0f4 .cfa: sp 16 +
STACK CFI 2a0f8 .cfa: sp 0 +
STACK CFI 2a0fc .cfa: x29 16 +
STACK CFI INIT 2a12c 158 .cfa: sp 0 +
STACK CFI 2a130 .cfa: sp 112 +
STACK CFI 2a14c .cfa: x29 96 + x19: .cfa -8 + ^ x20: .cfa -16 + ^ x21: .cfa -24 + ^ x22: .cfa -32 + ^ x23: .cfa -40 + ^ x24: .cfa -48 + ^ x25: .cfa -56 + ^ x26: .cfa -64 + ^ x27: .cfa -72 + ^ x28: .cfa -80 + ^ .ra: .cfa -88 + ^ x29: .cfa -96 + ^
STACK CFI 2a234 .cfa: sp 112 +
STACK CFI 2a238 .cfa: x29 96 +
STACK CFI 2a240 .cfa: sp 112 +
STACK CFI 2a25c .cfa: sp 0 +
STACK CFI 2a260 .cfa: x29 96 +
STACK CFI 2a280 .cfa: sp 112 +
STACK CFI INIT 2a284 e24 .cfa: sp 0 +
STACK CFI 2a288 .cfa: sp 192 +
STACK CFI 2a2a4 .cfa: x29 96 + x19: .cfa -8 + ^ x20: .cfa -16 + ^ x21: .cfa -24 + ^ x22: .cfa -32 + ^ x23: .cfa -40 + ^ x24: .cfa -48 + ^ x25: .cfa -56 + ^ x26: .cfa -64 + ^ x27: .cfa -72 + ^ x28: .cfa -80 + ^ .ra: .cfa -88 + ^ x29: .cfa -96 + ^
STACK CFI 2b084 .cfa: sp 192 +
STACK CFI 2b0a0 .cfa: sp 0 +
STACK CFI 2b0a4 .cfa: x29 96 +
STACK CFI INIT 2b0a8 fc8 .cfa: sp 0 +
STACK CFI 2b0ac .cfa: sp 288 +
STACK CFI 2b0c8 .cfa: x29 96 + x19: .cfa -8 + ^ x20: .cfa -16 + ^ x21: .cfa -24 + ^ x22: .cfa -32 + ^ x23: .cfa -40 + ^ x24: .cfa -48 + ^ x25: .cfa -56 + ^ x26: .cfa -64 + ^ x27: .cfa -72 + ^ x28: .cfa -80 + ^ .ra: .cfa -88 + ^ x29: .cfa -96 + ^
STACK CFI 2c04c .cfa: sp 288 +
STACK CFI 2c068 .cfa: sp 0 +
STACK CFI 2c06c .cfa: x29 96 +
STACK CFI INIT 2c070 510 .cfa: sp 0 +
STACK CFI 2c074 .cfa: sp 144 +
STACK CFI 2c090 .cfa: x29 96 + x19: .cfa -8 + ^ x20: .cfa -16 + ^ x21: .cfa -24 + ^ x22: .cfa -32 + ^ x23: .cfa -40 + ^ x24: .cfa -48 + ^ x25: .cfa -56 + ^ x26: .cfa -64 + ^ x27: .cfa -72 + ^ x28: .cfa -80 + ^ .ra: .cfa -88 + ^ x29: .cfa -96 + ^
STACK CFI 2c55c .cfa: sp 144 +
STACK CFI 2c578 .cfa: sp 0 +
STACK CFI 2c57c .cfa: x29 96 +
STACK CFI INIT 2cf0c cb8 .cfa: sp 0 +
STACK CFI 2cf10 .cfa: sp 192 +
STACK CFI 2cf2c .cfa: x29 96 + x19: .cfa -8 + ^ x20: .cfa -16 + ^ x21: .cfa -24 + ^ x22: .cfa -32 + ^ x23: .cfa -40 + ^ x24: .cfa -48 + ^ x25: .cfa -56 + ^ x26: .cfa -64 + ^ x27: .cfa -72 + ^ x28: .cfa -80 + ^ .ra: .cfa -88 + ^ x29: .cfa -96 + ^
STACK CFI 2dba0 .cfa: sp 192 +
STACK CFI 2dbbc .cfa: sp 0 +
STACK CFI 2dbc0 .cfa: x29 96 +
STACK CFI INIT 2dbc4 17c .cfa: sp 0 +
STACK CFI 2dbc8 .cfa: sp 80 +
STACK CFI 2dbdc .cfa: x29 80 + x19: .cfa -8 + ^ x20: .cfa -16 + ^ x21: .cfa -24 + ^ x22: .cfa -32 + ^ x23: .cfa -40 + ^ x24: .cfa -48 + ^ x25: .cfa -64 + ^ .ra: .cfa -72 + ^ x29: .cfa -80 + ^
STACK CFI 2dce4 .cfa: sp 80 +
STACK CFI 2dcf8 .cfa: sp 0 +
STACK CFI 2dcfc .cfa: x29 80 +
STACK CFI INIT 2dd40 1b8 .cfa: sp 0 +
STACK CFI INIT 10fd0 444 .cfa: sp 0 +
STACK CFI 10fd4 .cfa: sp 224 +
STACK CFI 10ff0 .cfa: x29 96 + x19: .cfa -8 + ^ x20: .cfa -16 + ^ x21: .cfa -24 + ^ x22: .cfa -32 + ^ x23: .cfa -40 + ^ x24: .cfa -48 + ^ x25: .cfa -56 + ^ x26: .cfa -64 + ^ x27: .cfa -80 + ^ .ra: .cfa -88 + ^ x29: .cfa -96 + ^
STACK CFI 11220 .cfa: sp 224 +
STACK CFI 1123c .cfa: sp 0 +
STACK CFI 11240 .cfa: x29 96 +
STACK CFI 1130c .cfa: sp 224 +
STACK CFI 11328 .cfa: sp 0 +
STACK CFI 1132c .cfa: x29 96 +
STACK CFI INIT 11430 44c .cfa: sp 0 +
STACK CFI 11434 .cfa: sp 224 +
STACK CFI 11448 .cfa: x29 64 + x19: .cfa -8 + ^ x20: .cfa -16 + ^ x21: .cfa -24 + ^ x22: .cfa -32 + ^ x23: .cfa -40 + ^ x24: .cfa -48 + ^ .ra: .cfa -56 + ^ x29: .cfa -64 + ^
STACK CFI 1174c .cfa: sp 224 +
STACK CFI 11760 .cfa: sp 0 +
STACK CFI 11764 .cfa: x29 64 +
STACK CFI INIT 118cc 74 .cfa: sp 0 +
STACK CFI 118d0 .cfa: sp 48 +
STACK CFI 118dc .cfa: x29 32 + x19: .cfa -8 + ^ x20: .cfa -16 + ^ .ra: .cfa -24 + ^ x29: .cfa -32 + ^
STACK CFI 11928 .cfa: sp 48 +
STACK CFI 11934 .cfa: sp 0 +
STACK CFI 11938 .cfa: x29 32 +
STACK CFI INIT 119d0 154 .cfa: sp 0 +
STACK CFI 119d4 .cfa: sp 384 +
STACK CFI 119e8 .cfa: x29 64 + x19: .cfa -8 + ^ x20: .cfa -16 + ^ x21: .cfa -24 + ^ x22: .cfa -32 + ^ x23: .cfa -40 + ^ x28: .cfa -48 + ^ .ra: .cfa -56 + ^ x29: .cfa -64 + ^
STACK CFI 11acc .cfa: sp 384 +
STACK CFI 11ae0 .cfa: sp 0 +
STACK CFI 11ae4 .cfa: x29 64 +
STACK CFI INIT 11b58 124 .cfa: sp 0 +
STACK CFI 11b5c .cfa: sp 80 +
STACK CFI 11b70 .cfa: x29 80 + x19: .cfa -8 + ^ x20: .cfa -16 + ^ x21: .cfa -24 + ^ x22: .cfa -32 + ^ x23: .cfa -40 + ^ x24: .cfa -48 + ^ x25: .cfa -56 + ^ x26: .cfa -64 + ^ .ra: .cfa -72 + ^ x29: .cfa -80 + ^
STACK CFI 11c3c .cfa: sp 80 +
STACK CFI 11c50 .cfa: sp 0 +
STACK CFI 11c54 .cfa: x29 80 +
STACK CFI INIT 11d20 198 .cfa: sp 0 +
STACK CFI 11d24 .cfa: sp 112 +
STACK CFI 11d3c .cfa: x29 80 + x19: .cfa -8 + ^ x20: .cfa -16 + ^ x21: .cfa -24 + ^ x22: .cfa -32 + ^ x23: .cfa -40 + ^ x24: .cfa -48 + ^ x25: .cfa -56 + ^ x26: .cfa -64 + ^ .ra: .cfa -72 + ^ x29: .cfa -80 + ^
STACK CFI 11e2c .cfa: sp 112 +
STACK CFI 11e44 .cfa: sp 0 +
STACK CFI 11e48 .cfa: x29 80 +
STACK CFI INIT 11eb8 1b4 .cfa: sp 0 +
STACK CFI 11ebc .cfa: sp 128 +
STACK CFI 11ed8 .cfa: x29 96 + x19: .cfa -8 + ^ x20: .cfa -16 + ^ x21: .cfa -24 + ^ x22: .cfa -32 + ^ x23: .cfa -40 + ^ x24: .cfa -48 + ^ x25: .cfa -56 + ^ x26: .cfa -64 + ^ x27: .cfa -80 + ^ .ra: .cfa -88 + ^ x29: .cfa -96 + ^
STACK CFI 1201c .cfa: sp 128 +
STACK CFI 12038 .cfa: sp 0 +
STACK CFI 1203c .cfa: x29 96 +
STACK CFI INIT 12080 50 .cfa: sp 0 +
STACK CFI 12084 .cfa: sp 32 +
STACK CFI 1208c .cfa: x29 32 + x19: .cfa -8 + ^ x20: .cfa -16 + ^ .ra: .cfa -24 + ^ x29: .cfa -32 + ^
STACK CFI INIT 12134 15c .cfa: sp 0 +
STACK CFI 12138 .cfa: sp 80 +
STACK CFI 1214c .cfa: x29 80 + x19: .cfa -8 + ^ x20: .cfa -16 + ^ x21: .cfa -24 + ^ x22: .cfa -32 + ^ x23: .cfa -40 + ^ x24: .cfa -48 + ^ x25: .cfa -64 + ^ .ra: .cfa -72 + ^ x29: .cfa -80 + ^
STACK CFI 1225c .cfa: sp 80 +
STACK CFI 12270 .cfa: sp 0 +
STACK CFI 12274 .cfa: x29 80 +
STACK CFI INIT 123d8 21c .cfa: sp 0 +
STACK CFI 123dc .cfa: sp 128 +
STACK CFI 123f4 .cfa: x29 80 + x19: .cfa -8 + ^ x20: .cfa -16 + ^ x21: .cfa -24 + ^ x22: .cfa -32 + ^ x23: .cfa -40 + ^ x24: .cfa -48 + ^ x25: .cfa -64 + ^ .ra: .cfa -72 + ^ x29: .cfa -80 + ^
STACK CFI 12584 .cfa: sp 128 +
STACK CFI 1259c .cfa: sp 0 +
STACK CFI 125a0 .cfa: x29 80 +
STACK CFI INIT 12cdc 1a4 .cfa: sp 0 +
STACK CFI 12ce0 .cfa: sp 144 +
STACK CFI 12cf8 .cfa: x29 80 + x19: .cfa -8 + ^ x20: .cfa -16 + ^ x21: .cfa -24 + ^ x22: .cfa -32 + ^ x23: .cfa -40 + ^ x24: .cfa -48 + ^ x25: .cfa -56 + ^ x26: .cfa -64 + ^ .ra: .cfa -72 + ^ x29: .cfa -80 + ^
STACK CFI 12e14 .cfa: sp 144 +
STACK CFI 12e2c .cfa: sp 0 +
STACK CFI 12e30 .cfa: x29 80 +
STACK CFI INIT 12f48 134 .cfa: sp 0 +
STACK CFI 12f4c .cfa: sp 80 +
STACK CFI 12f5c .cfa: x29 48 + x19: .cfa -8 + ^ x20: .cfa -16 + ^ x21: .cfa -24 + ^ x22: .cfa -32 + ^ .ra: .cfa -40 + ^ x29: .cfa -48 + ^
STACK CFI 13060 .cfa: sp 80 +
STACK CFI 13070 .cfa: sp 0 +
STACK CFI 13074 .cfa: x29 48 +
STACK CFI INIT 131d0 394 .cfa: sp 0 +
STACK CFI 131d4 .cfa: sp 160 +
STACK CFI 131f0 .cfa: x29 96 + x19: .cfa -8 + ^ x20: .cfa -16 + ^ x21: .cfa -24 + ^ x22: .cfa -32 + ^ x23: .cfa -40 + ^ x24: .cfa -48 + ^ x25: .cfa -56 + ^ x26: .cfa -64 + ^ x27: .cfa -72 + ^ x28: .cfa -80 + ^ .ra: .cfa -88 + ^ x29: .cfa -96 + ^
STACK CFI 13510 .cfa: sp 160 +
STACK CFI 1352c .cfa: sp 0 +
STACK CFI 13530 .cfa: x29 96 +
STACK CFI INIT 13878 570 .cfa: sp 0 +
STACK CFI 1387c .cfa: sp 224 +
STACK CFI 13898 .cfa: x29 96 + x19: .cfa -8 + ^ x20: .cfa -16 + ^ x21: .cfa -24 + ^ x22: .cfa -32 + ^ x23: .cfa -40 + ^ x24: .cfa -48 + ^ x25: .cfa -56 + ^ x26: .cfa -64 + ^ x27: .cfa -72 + ^ x28: .cfa -80 + ^ .ra: .cfa -88 + ^ x29: .cfa -96 + ^
STACK CFI 13cc0 .cfa: sp 224 +
STACK CFI 13cdc .cfa: sp 0 +
STACK CFI 13ce0 .cfa: x29 96 +
STACK CFI INIT 13e04 6d4 .cfa: sp 0 +
STACK CFI 13e08 .cfa: sp 288 +
STACK CFI 13e24 .cfa: x29 96 + x19: .cfa -8 + ^ x20: .cfa -16 + ^ x21: .cfa -24 + ^ x22: .cfa -32 + ^ x23: .cfa -40 + ^ x24: .cfa -48 + ^ x25: .cfa -56 + ^ x26: .cfa -64 + ^ x27: .cfa -72 + ^ x28: .cfa -80 + ^ .ra: .cfa -88 + ^ x29: .cfa -96 + ^
STACK CFI 1430c .cfa: sp 288 +
STACK CFI 14328 .cfa: sp 0 +
STACK CFI 1432c .cfa: x29 96 +
STACK CFI INIT 144dc 2c8 .cfa: sp 0 +
STACK CFI 144e0 .cfa: sp 176 +
STACK CFI 144f8 .cfa: x29 80 + x19: .cfa -8 + ^ x20: .cfa -16 + ^ x21: .cfa -24 + ^ x22: .cfa -32 + ^ x23: .cfa -40 + ^ x24: .cfa -48 + ^ x25: .cfa -64 + ^ .ra: .cfa -72 + ^ x29: .cfa -80 + ^
STACK CFI 14714 .cfa: sp 176 +
STACK CFI 1472c .cfa: sp 0 +
STACK CFI 14730 .cfa: x29 80 +
STACK CFI INIT 148c4 1b88 .cfa: sp 0 +
STACK CFI 148c8 .cfa: sp 480 +
STACK CFI 148f0 .cfa: x29 88 + x19: .cfa -8 + ^ x20: .cfa -16 + ^ x21: .cfa -24 + ^ x22: .cfa -32 + ^ x23: .cfa -40 + ^ x24: .cfa -48 + ^ x25: .cfa -56 + ^ x26: .cfa -64 + ^ x28: .cfa -72 + ^ .ra: .cfa -80 + ^ x29: .cfa -88 + ^ v8: .cfa -96 + ^ v9: .cfa -104 + ^ v10: .cfa -112 + ^ v11: .cfa -120 + ^ v12: .cfa -128 + ^
STACK CFI 14c4c .cfa: sp 480 +
STACK CFI 14c74 .cfa: sp 0 +
STACK CFI 14c78 .cfa: x29 88 +
STACK CFI 162b0 .cfa: sp 480 +
STACK CFI 162d8 .cfa: sp 0 +
STACK CFI 162dc .cfa: x29 88 +
STACK CFI INIT 1644c 19e8 .cfa: sp 0 +
STACK CFI 16450 .cfa: sp 352 +
STACK CFI 16474 .cfa: x29 96 + x19: .cfa -8 + ^ x20: .cfa -16 + ^ x21: .cfa -24 + ^ x22: .cfa -32 + ^ x23: .cfa -40 + ^ x24: .cfa -48 + ^ x25: .cfa -56 + ^ x26: .cfa -64 + ^ x27: .cfa -72 + ^ x28: .cfa -80 + ^ .ra: .cfa -88 + ^ x29: .cfa -96 + ^ v8: .cfa -104 + ^ v9: .cfa -112 + ^ v10: .cfa -120 + ^ v11: .cfa -128 + ^
STACK CFI 17ba0 .cfa: sp 352 +
STACK CFI 17bc4 .cfa: sp 0 +
STACK CFI 17bc8 .cfa: x29 96 +
STACK CFI INIT 18074 628 .cfa: sp 0 +
STACK CFI 18078 .cfa: sp 176 +
STACK CFI 18094 .cfa: x29 96 + x19: .cfa -8 + ^ x20: .cfa -16 + ^ x21: .cfa -24 + ^ x22: .cfa -32 + ^ x23: .cfa -40 + ^ x24: .cfa -48 + ^ x25: .cfa -56 + ^ x26: .cfa -64 + ^ x27: .cfa -72 + ^ x28: .cfa -80 + ^ .ra: .cfa -88 + ^ x29: .cfa -96 + ^
STACK CFI 1853c .cfa: sp 176 +
STACK CFI 18558 .cfa: sp 0 +
STACK CFI 1855c .cfa: x29 96 +
STACK CFI INIT 189a0 50 .cfa: sp 0 +
STACK CFI 189a4 .cfa: sp 32 +
STACK CFI 189ac .cfa: x29 32 + x19: .cfa -8 + ^ x20: .cfa -16 + ^ .ra: .cfa -24 + ^ x29: .cfa -32 + ^
STACK CFI INIT 18d14 400 .cfa: sp 0 +
STACK CFI 18d18 .cfa: sp 224 +
STACK CFI 18d34 .cfa: x29 96 + x19: .cfa -8 + ^ x20: .cfa -16 + ^ x21: .cfa -24 + ^ x22: .cfa -32 + ^ x23: .cfa -40 + ^ x24: .cfa -48 + ^ x25: .cfa -56 + ^ x26: .cfa -64 + ^ x27: .cfa -72 + ^ x28: .cfa -80 + ^ .ra: .cfa -88 + ^ x29: .cfa -96 + ^
STACK CFI 1900c .cfa: sp 224 +
STACK CFI 19028 .cfa: sp 0 +
STACK CFI 1902c .cfa: x29 96 +
STACK CFI INIT 19130 3b4 .cfa: sp 0 +
STACK CFI 19134 .cfa: sp 192 +
STACK CFI 19148 .cfa: x29 64 + x19: .cfa -8 + ^ x20: .cfa -16 + ^ x21: .cfa -24 + ^ x22: .cfa -32 + ^ x23: .cfa -40 + ^ x24: .cfa -48 + ^ .ra: .cfa -56 + ^ x29: .cfa -64 + ^
STACK CFI 193c4 .cfa: sp 192 +
STACK CFI 193d8 .cfa: sp 0 +
STACK CFI 193dc .cfa: x29 64 +
STACK CFI INIT 19560 400 .cfa: sp 0 +
STACK CFI 19564 .cfa: sp 224 +
STACK CFI 19580 .cfa: x29 96 + x19: .cfa -8 + ^ x20: .cfa -16 + ^ x21: .cfa -24 + ^ x22: .cfa -32 + ^ x23: .cfa -40 + ^ x24: .cfa -48 + ^ x25: .cfa -56 + ^ x26: .cfa -64 + ^ x27: .cfa -72 + ^ x28: .cfa -80 + ^ .ra: .cfa -88 + ^ x29: .cfa -96 + ^
STACK CFI 19858 .cfa: sp 224 +
STACK CFI 19874 .cfa: sp 0 +
STACK CFI 19878 .cfa: x29 96 +
STACK CFI INIT 1997c 400 .cfa: sp 0 +
STACK CFI 19980 .cfa: sp 224 +
STACK CFI 19998 .cfa: x29 80 + x19: .cfa -8 + ^ x20: .cfa -16 + ^ x21: .cfa -24 + ^ x22: .cfa -32 + ^ x23: .cfa -40 + ^ x24: .cfa -48 + ^ x25: .cfa -56 + ^ x26: .cfa -64 + ^ .ra: .cfa -72 + ^ x29: .cfa -80 + ^
STACK CFI 19c4c .cfa: sp 224 +
STACK CFI 19c64 .cfa: sp 0 +
STACK CFI 19c68 .cfa: x29 80 +
STACK CFI INIT 19dc8 400 .cfa: sp 0 +
STACK CFI 19dcc .cfa: sp 224 +
STACK CFI 19de8 .cfa: x29 96 + x19: .cfa -8 + ^ x20: .cfa -16 + ^ x21: .cfa -24 + ^ x22: .cfa -32 + ^ x23: .cfa -40 + ^ x24: .cfa -48 + ^ x25: .cfa -56 + ^ x26: .cfa -64 + ^ x27: .cfa -72 + ^ x28: .cfa -80 + ^ .ra: .cfa -88 + ^ x29: .cfa -96 + ^
STACK CFI 1a0c0 .cfa: sp 224 +
STACK CFI 1a0dc .cfa: sp 0 +
STACK CFI 1a0e0 .cfa: x29 96 +
STACK CFI INIT 1a1e4 364 .cfa: sp 0 +
STACK CFI 1a1e8 .cfa: sp 192 +
STACK CFI 1a1fc .cfa: x29 64 + x19: .cfa -8 + ^ x20: .cfa -16 + ^ x21: .cfa -24 + ^ x22: .cfa -32 + ^ x23: .cfa -48 + ^ .ra: .cfa -56 + ^ x29: .cfa -64 + ^
STACK CFI 1a444 .cfa: sp 192 +
STACK CFI 1a458 .cfa: sp 0 +
STACK CFI 1a45c .cfa: x29 64 +
STACK CFI INIT 1a54c a8 .cfa: sp 0 +
STACK CFI 1a550 .cfa: sp 32 +
STACK CFI 1a558 .cfa: x29 32 + x19: .cfa -8 + ^ x20: .cfa -16 + ^ .ra: .cfa -24 + ^ x29: .cfa -32 + ^
STACK CFI 1a58c .cfa: sp 32 +
STACK CFI 1a594 .cfa: sp 0 +
STACK CFI 1a598 .cfa: x29 32 +
STACK CFI 1a59c .cfa: sp 32 +
STACK CFI 1a5a4 .cfa: sp 0 +
STACK CFI 1a5a8 .cfa: x29 32 +
STACK CFI INIT 1a5f4 148 .cfa: sp 0 +
STACK CFI 1a5f8 .cfa: sp 112 +
STACK CFI 1a608 .cfa: x29 48 + x19: .cfa -8 + ^ x20: .cfa -16 + ^ x21: .cfa -24 + ^ x22: .cfa -32 + ^ .ra: .cfa -40 + ^ x29: .cfa -48 + ^
STACK CFI 1a6d8 .cfa: sp 112 +
STACK CFI 1a6e8 .cfa: sp 0 +
STACK CFI 1a6ec .cfa: x29 48 +
STACK CFI INIT 1a924 134 .cfa: sp 0 +
STACK CFI 1a928 .cfa: sp 80 +
STACK CFI 1a934 .cfa: x29 32 + x19: .cfa -8 + ^ x20: .cfa -16 + ^ .ra: .cfa -24 + ^ x29: .cfa -32 + ^
STACK CFI 1a964 .cfa: sp 80 +
STACK CFI 1a970 .cfa: sp 0 +
STACK CFI 1a974 .cfa: x29 32 +
STACK CFI INIT 1aa58 78 .cfa: sp 0 +
STACK CFI 1aa5c .cfa: sp 32 +
STACK CFI 1aa64 .cfa: x29 32 + x19: .cfa -8 + ^ x20: .cfa -16 + ^ .ra: .cfa -24 + ^ x29: .cfa -32 + ^
STACK CFI 1aa70 .cfa: sp 32 +
STACK CFI 1aa78 .cfa: sp 0 +
STACK CFI 1aa7c .cfa: x29 32 +
STACK CFI INIT 1aad0 74 .cfa: sp 0 +
STACK CFI 1aad4 .cfa: sp 48 +
STACK CFI 1aae0 .cfa: x29 32 + x19: .cfa -8 + ^ x20: .cfa -16 + ^ .ra: .cfa -24 + ^ x29: .cfa -32 + ^
STACK CFI 1ab2c .cfa: sp 48 +
STACK CFI 1ab38 .cfa: sp 0 +
STACK CFI 1ab3c .cfa: x29 32 +
STACK CFI INIT 1aba8 224 .cfa: sp 0 +
STACK CFI 1abac .cfa: sp 128 +
STACK CFI 1abbc .cfa: x29 48 + x19: .cfa -8 + ^ x20: .cfa -16 + ^ x21: .cfa -32 + ^ .ra: .cfa -40 + ^ x29: .cfa -48 + ^
STACK CFI 1ac6c .cfa: sp 128 +
STACK CFI 1ac7c .cfa: sp 0 +
STACK CFI 1ac80 .cfa: x29 48 +
STACK CFI INIT 1ae68 150 .cfa: sp 0 +
STACK CFI 1ae6c .cfa: sp 128 +
STACK CFI 1ae7c .cfa: x29 48 + x19: .cfa -8 + ^ x20: .cfa -16 + ^ x21: .cfa -24 + ^ x22: .cfa -32 + ^ .ra: .cfa -40 + ^ x29: .cfa -48 + ^
STACK CFI 1aec4 .cfa: sp 128 +
STACK CFI 1aed4 .cfa: sp 0 +
STACK CFI 1aed8 .cfa: x29 48 +
STACK CFI INIT 1afb8 a8 .cfa: sp 0 +
STACK CFI 1afbc .cfa: sp 64 +
STACK CFI 1afcc .cfa: x29 48 + x19: .cfa -8 + ^ x20: .cfa -16 + ^ x21: .cfa -32 + ^ .ra: .cfa -40 + ^ x29: .cfa -48 + ^
STACK CFI 1b034 .cfa: sp 64 +
STACK CFI 1b044 .cfa: sp 0 +
STACK CFI 1b048 .cfa: x29 48 +
STACK CFI INIT 1b060 150 .cfa: sp 0 +
STACK CFI 1b064 .cfa: sp 128 +
STACK CFI 1b074 .cfa: x29 48 + x19: .cfa -8 + ^ x20: .cfa -16 + ^ x21: .cfa -24 + ^ x22: .cfa -32 + ^ .ra: .cfa -40 + ^ x29: .cfa -48 + ^
STACK CFI 1b0bc .cfa: sp 128 +
STACK CFI 1b0cc .cfa: sp 0 +
STACK CFI 1b0d0 .cfa: x29 48 +
STACK CFI INIT 1b1b0 a8 .cfa: sp 0 +
STACK CFI 1b1b4 .cfa: sp 64 +
STACK CFI 1b1c4 .cfa: x29 48 + x19: .cfa -8 + ^ x20: .cfa -16 + ^ x21: .cfa -32 + ^ .ra: .cfa -40 + ^ x29: .cfa -48 + ^
STACK CFI 1b22c .cfa: sp 64 +
STACK CFI 1b23c .cfa: sp 0 +
STACK CFI 1b240 .cfa: x29 48 +
STACK CFI INIT 1b258 1c8 .cfa: sp 0 +
STACK CFI 1b25c .cfa: sp 192 +
STACK CFI 1b278 .cfa: x29 64 + x19: .cfa -8 + ^ x20: .cfa -16 + ^ x21: .cfa -24 + ^ x22: .cfa -32 + ^ x23: .cfa -40 + ^ x24: .cfa -48 + ^ .ra: .cfa -56 + ^ x29: .cfa -64 + ^ v8: .cfa -72 + ^ v9: .cfa -80 + ^ v10: .cfa -96 + ^
STACK CFI 1b30c .cfa: sp 192 +
STACK CFI 1b328 .cfa: sp 0 +
STACK CFI 1b32c .cfa: x29 64 +
STACK CFI INIT 1b420 554 .cfa: sp 0 +
STACK CFI 1b424 .cfa: sp 112 +
STACK CFI 1b43c .cfa: x29 80 + x19: .cfa -8 + ^ x20: .cfa -16 + ^ x21: .cfa -24 + ^ x22: .cfa -32 + ^ x23: .cfa -40 + ^ x24: .cfa -48 + ^ x25: .cfa -64 + ^ .ra: .cfa -72 + ^ x29: .cfa -80 + ^
STACK CFI 1b8e0 .cfa: sp 112 +
STACK CFI 1b8f8 .cfa: sp 0 +
STACK CFI 1b8fc .cfa: x29 80 +
STACK CFI INIT 1b974 178 .cfa: sp 0 +
STACK CFI 1b978 .cfa: sp 128 +
STACK CFI 1b988 .cfa: x29 48 + x19: .cfa -8 + ^ x20: .cfa -16 + ^ x21: .cfa -24 + ^ x22: .cfa -32 + ^ .ra: .cfa -40 + ^ x29: .cfa -48 + ^
STACK CFI 1b9e4 .cfa: sp 128 +
STACK CFI 1b9f4 .cfa: sp 0 +
STACK CFI 1b9f8 .cfa: x29 48 +
STACK CFI INIT 1baec a4 .cfa: sp 0 +
STACK CFI 1baf0 .cfa: sp 48 +
STACK CFI 1bafc .cfa: x29 48 + x19: .cfa -8 + ^ x20: .cfa -16 + ^ x21: .cfa -32 + ^ .ra: .cfa -40 + ^ x29: .cfa -48 + ^
STACK CFI 1bb68 .cfa: sp 48 +
STACK CFI 1bb74 .cfa: sp 0 +
STACK CFI 1bb78 .cfa: x29 48 +
STACK CFI INIT 1bba0 2a8 .cfa: sp 0 +
STACK CFI 1bba4 .cfa: sp 144 +
STACK CFI 1bbb8 .cfa: x29 64 + x19: .cfa -8 + ^ x20: .cfa -16 + ^ x21: .cfa -24 + ^ x22: .cfa -32 + ^ x23: .cfa -48 + ^ .ra: .cfa -56 + ^ x29: .cfa -64 + ^
STACK CFI 1bcec .cfa: sp 144 +
STACK CFI 1bd00 .cfa: sp 0 +
STACK CFI 1bd04 .cfa: x29 64 +
STACK CFI INIT 1be48 2f8 .cfa: sp 0 +
STACK CFI 1be4c .cfa: sp 144 +
STACK CFI 1be60 .cfa: x29 64 + x19: .cfa -8 + ^ x20: .cfa -16 + ^ x21: .cfa -24 + ^ x22: .cfa -32 + ^ x23: .cfa -48 + ^ .ra: .cfa -56 + ^ x29: .cfa -64 + ^
STACK CFI 1bfe4 .cfa: sp 144 +
STACK CFI 1bff8 .cfa: sp 0 +
STACK CFI 1bffc .cfa: x29 64 +
STACK CFI INIT 1c140 4c4 .cfa: sp 0 +
STACK CFI 1c144 .cfa: sp 144 +
STACK CFI 1c158 .cfa: x29 64 + x19: .cfa -8 + ^ x20: .cfa -16 + ^ x21: .cfa -24 + ^ x22: .cfa -32 + ^ x23: .cfa -48 + ^ .ra: .cfa -56 + ^ x29: .cfa -64 + ^
STACK CFI 1c454 .cfa: sp 144 +
STACK CFI 1c468 .cfa: sp 0 +
STACK CFI 1c46c .cfa: x29 64 +
STACK CFI INIT 1c604 154 .cfa: sp 0 +
STACK CFI 1c608 .cfa: sp 384 +
STACK CFI 1c61c .cfa: x29 64 + x19: .cfa -8 + ^ x20: .cfa -16 + ^ x21: .cfa -24 + ^ x22: .cfa -32 + ^ x23: .cfa -40 + ^ x28: .cfa -48 + ^ .ra: .cfa -56 + ^ x29: .cfa -64 + ^
STACK CFI 1c700 .cfa: sp 384 +
STACK CFI 1c714 .cfa: sp 0 +
STACK CFI 1c718 .cfa: x29 64 +
STACK CFI INIT 1c758 168 .cfa: sp 0 +
STACK CFI 1c75c .cfa: sp 384 +
STACK CFI 1c770 .cfa: x29 64 + x19: .cfa -8 + ^ x20: .cfa -16 + ^ x21: .cfa -24 + ^ x22: .cfa -32 + ^ x23: .cfa -40 + ^ x28: .cfa -48 + ^ .ra: .cfa -56 + ^ x29: .cfa -64 + ^
STACK CFI 1c868 .cfa: sp 384 +
STACK CFI 1c87c .cfa: sp 0 +
STACK CFI 1c880 .cfa: x29 64 +
STACK CFI INIT 1c8d8 43c .cfa: sp 0 +
STACK CFI 1c8dc .cfa: sp 64 +
STACK CFI 1c8ec .cfa: x29 64 + x19: .cfa -8 + ^ x20: .cfa -16 + ^ x21: .cfa -24 + ^ x22: .cfa -32 + ^ x23: .cfa -40 + ^ x24: .cfa -48 + ^ .ra: .cfa -56 + ^ x29: .cfa -64 + ^
STACK CFI 1cca4 .cfa: sp 64 +
STACK CFI 1ccb4 .cfa: sp 0 +
STACK CFI 1ccb8 .cfa: x29 64 +
STACK CFI INIT 1d044 294 .cfa: sp 0 +
STACK CFI 1d048 .cfa: sp 240 +
STACK CFI 1d060 .cfa: x29 80 + x19: .cfa -8 + ^ x20: .cfa -16 + ^ x21: .cfa -24 + ^ x22: .cfa -32 + ^ x23: .cfa -40 + ^ x24: .cfa -48 + ^ x25: .cfa -64 + ^ .ra: .cfa -72 + ^ x29: .cfa -80 + ^
STACK CFI 1d200 .cfa: sp 240 +
STACK CFI 1d218 .cfa: sp 0 +
STACK CFI 1d21c .cfa: x29 80 +
STACK CFI INIT 1d348 50 .cfa: sp 0 +
STACK CFI 1d34c .cfa: sp 32 +
STACK CFI 1d354 .cfa: x29 32 + x19: .cfa -8 + ^ x20: .cfa -16 + ^ .ra: .cfa -24 + ^ x29: .cfa -32 + ^
STACK CFI INIT 1d3c4 750 .cfa: sp 0 +
STACK CFI 1d3c8 .cfa: sp 320 +
STACK CFI 1d3e4 .cfa: x29 96 + x19: .cfa -8 + ^ x20: .cfa -16 + ^ x21: .cfa -24 + ^ x22: .cfa -32 + ^ x23: .cfa -40 + ^ x24: .cfa -48 + ^ x25: .cfa -56 + ^ x26: .cfa -64 + ^ x27: .cfa -72 + ^ x28: .cfa -80 + ^ .ra: .cfa -88 + ^ x29: .cfa -96 + ^
STACK CFI 1d9d0 .cfa: sp 320 +
STACK CFI 1d9ec .cfa: sp 0 +
STACK CFI 1d9f0 .cfa: x29 96 +
STACK CFI INIT 1db78 12c .cfa: sp 0 +
STACK CFI 1db7c .cfa: sp 80 +
STACK CFI 1db90 .cfa: x29 80 + x19: .cfa -8 + ^ x20: .cfa -16 + ^ x21: .cfa -24 + ^ x22: .cfa -32 + ^ x23: .cfa -40 + ^ x24: .cfa -48 + ^ x28: .cfa -64 + ^ .ra: .cfa -72 + ^ x29: .cfa -80 + ^
STACK CFI 1dc58 .cfa: sp 80 +
STACK CFI 1dc6c .cfa: sp 0 +
STACK CFI 1dc70 .cfa: x29 80 +
STACK CFI INIT 21c14 c2c .cfa: sp 0 +
STACK CFI 21c18 .cfa: sp 96 +
STACK CFI 21c30 .cfa: x29 96 + x19: .cfa -8 + ^ x20: .cfa -16 + ^ x21: .cfa -24 + ^ x22: .cfa -32 + ^ x23: .cfa -40 + ^ x24: .cfa -48 + ^ x25: .cfa -56 + ^ x26: .cfa -64 + ^ x27: .cfa -72 + ^ x28: .cfa -80 + ^ .ra: .cfa -88 + ^ x29: .cfa -96 + ^
STACK CFI 22704 .cfa: sp 96 +
STACK CFI 2271c .cfa: sp 0 +
STACK CFI 22720 .cfa: x29 96 +
STACK CFI INIT 22994 238 .cfa: sp 0 +
STACK CFI 22998 .cfa: sp 128 +
STACK CFI 229a8 .cfa: x29 48 + x19: .cfa -8 + ^ x20: .cfa -16 + ^ x21: .cfa -24 + ^ x22: .cfa -32 + ^ .ra: .cfa -40 + ^ x29: .cfa -48 + ^
STACK CFI 22b30 .cfa: sp 128 +
STACK CFI 22b40 .cfa: sp 0 +
STACK CFI 22b44 .cfa: x29 48 +
STACK CFI INIT 230dc 3a4 .cfa: sp 0 +
STACK CFI 230e0 .cfa: sp 96 +
STACK CFI 230f8 .cfa: x29 96 + x19: .cfa -8 + ^ x20: .cfa -16 + ^ x21: .cfa -24 + ^ x22: .cfa -32 + ^ x23: .cfa -40 + ^ x24: .cfa -48 + ^ x25: .cfa -56 + ^ x26: .cfa -64 + ^ x27: .cfa -72 + ^ x28: .cfa -80 + ^ .ra: .cfa -88 + ^ x29: .cfa -96 + ^
STACK CFI 23420 .cfa: sp 96 +
STACK CFI 23438 .cfa: sp 0 +
STACK CFI 2343c .cfa: x29 96 +
STACK CFI INIT 23520 c6c .cfa: sp 0 +
STACK CFI 23524 .cfa: sp 96 +
STACK CFI 2353c .cfa: x29 96 + x19: .cfa -8 + ^ x20: .cfa -16 + ^ x21: .cfa -24 + ^ x22: .cfa -32 + ^ x23: .cfa -40 + ^ x24: .cfa -48 + ^ x25: .cfa -56 + ^ x26: .cfa -64 + ^ x27: .cfa -72 + ^ x28: .cfa -80 + ^ .ra: .cfa -88 + ^ x29: .cfa -96 + ^
STACK CFI 24040 .cfa: sp 96 +
STACK CFI 24058 .cfa: sp 0 +
STACK CFI 2405c .cfa: x29 96 +
STACK CFI INIT 24474 ad4 .cfa: sp 0 +
STACK CFI 24478 .cfa: sp 96 +
STACK CFI 24490 .cfa: x29 96 + x19: .cfa -8 + ^ x20: .cfa -16 + ^ x21: .cfa -24 + ^ x22: .cfa -32 + ^ x23: .cfa -40 + ^ x24: .cfa -48 + ^ x25: .cfa -56 + ^ x26: .cfa -64 + ^ x27: .cfa -72 + ^ x28: .cfa -80 + ^ .ra: .cfa -88 + ^ x29: .cfa -96 + ^
STACK CFI 24ebc .cfa: sp 96 +
STACK CFI 24ed4 .cfa: sp 0 +
STACK CFI 24ed8 .cfa: x29 96 +
STACK CFI INIT 25124 1350 .cfa: sp 0 +
STACK CFI 25128 .cfa: sp 96 +
STACK CFI 25140 .cfa: x29 96 + x19: .cfa -8 + ^ x20: .cfa -16 + ^ x21: .cfa -24 + ^ x22: .cfa -32 + ^ x23: .cfa -40 + ^ x24: .cfa -48 + ^ x25: .cfa -56 + ^ x26: .cfa -64 + ^ x27: .cfa -72 + ^ x28: .cfa -80 + ^ .ra: .cfa -88 + ^ x29: .cfa -96 + ^
STACK CFI 26340 .cfa: sp 96 +
STACK CFI 26358 .cfa: sp 0 +
STACK CFI 2635c .cfa: x29 96 +
STACK CFI INIT 26598 744 .cfa: sp 0 +
STACK CFI 2659c .cfa: sp 368 +
STACK CFI 265b8 .cfa: x29 96 + x19: .cfa -8 + ^ x20: .cfa -16 + ^ x21: .cfa -24 + ^ x22: .cfa -32 + ^ x23: .cfa -40 + ^ x24: .cfa -48 + ^ x25: .cfa -56 + ^ x26: .cfa -64 + ^ x27: .cfa -72 + ^ x28: .cfa -80 + ^ .ra: .cfa -88 + ^ x29: .cfa -96 + ^
STACK CFI 26654 .cfa: sp 368 +
STACK CFI 26670 .cfa: sp 0 +
STACK CFI 26674 .cfa: x29 96 +
STACK CFI 266c8 .cfa: sp 368 +
STACK CFI 266e4 .cfa: sp 0 +
STACK CFI 266e8 .cfa: x29 96 +
STACK CFI INIT 27070 e84 .cfa: sp 0 +
STACK CFI 27074 .cfa: sp 96 +
STACK CFI 2708c .cfa: x29 96 + x19: .cfa -8 + ^ x20: .cfa -16 + ^ x21: .cfa -24 + ^ x22: .cfa -32 + ^ x23: .cfa -40 + ^ x24: .cfa -48 + ^ x25: .cfa -56 + ^ x26: .cfa -64 + ^ x27: .cfa -72 + ^ x28: .cfa -80 + ^ .ra: .cfa -88 + ^ x29: .cfa -96 + ^
STACK CFI 27d08 .cfa: sp 96 +
STACK CFI 27d20 .cfa: sp 0 +
STACK CFI 27d24 .cfa: x29 96 +
STACK CFI INIT 28268 1c3c .cfa: sp 0 +
STACK CFI 2826c .cfa: sp 112 +
STACK CFI 28288 .cfa: x29 96 + x19: .cfa -8 + ^ x20: .cfa -16 + ^ x21: .cfa -24 + ^ x22: .cfa -32 + ^ x23: .cfa -40 + ^ x24: .cfa -48 + ^ x25: .cfa -56 + ^ x26: .cfa -64 + ^ x27: .cfa -72 + ^ x28: .cfa -80 + ^ .ra: .cfa -88 + ^ x29: .cfa -96 + ^ v8: .cfa -112 + ^
STACK CFI 29bc4 .cfa: sp 112 +
STACK CFI 29be0 .cfa: sp 0 +
STACK CFI 29be4 .cfa: x29 96 +
STACK CFI INIT 2c580 98c .cfa: sp 0 +
STACK CFI 2c584 .cfa: sp 144 +
STACK CFI 2c59c .cfa: x29 80 + x19: .cfa -8 + ^ x20: .cfa -16 + ^ x21: .cfa -24 + ^ x22: .cfa -32 + ^ x23: .cfa -40 + ^ x24: .cfa -48 + ^ x25: .cfa -64 + ^ .ra: .cfa -72 + ^ x29: .cfa -80 + ^
STACK CFI 2ce88 .cfa: sp 144 +
STACK CFI 2cea0 .cfa: sp 0 +
STACK CFI 2cea4 .cfa: x29 80 +
STACK CFI INIT 2def8 570 .cfa: sp 0 +
STACK CFI 2defc .cfa: sp 96 +
STACK CFI 2df14 .cfa: x29 96 + x19: .cfa -8 + ^ x20: .cfa -16 + ^ x21: .cfa -24 + ^ x22: .cfa -32 + ^ x23: .cfa -40 + ^ x24: .cfa -48 + ^ x25: .cfa -56 + ^ x26: .cfa -64 + ^ x27: .cfa -72 + ^ x28: .cfa -80 + ^ .ra: .cfa -88 + ^ x29: .cfa -96 + ^
STACK CFI 2e3cc .cfa: sp 96 +
STACK CFI 2e3e4 .cfa: sp 0 +
STACK CFI 2e3e8 .cfa: x29 96 +
STACK CFI INIT 2e468 664 .cfa: sp 0 +
STACK CFI 2e46c .cfa: sp 96 +
STACK CFI 2e484 .cfa: x29 96 + x19: .cfa -8 + ^ x20: .cfa -16 + ^ x21: .cfa -24 + ^ x22: .cfa -32 + ^ x23: .cfa -40 + ^ x24: .cfa -48 + ^ x25: .cfa -56 + ^ x26: .cfa -64 + ^ x27: .cfa -72 + ^ x28: .cfa -80 + ^ .ra: .cfa -88 + ^ x29: .cfa -96 + ^
STACK CFI 2ea30 .cfa: sp 96 +
STACK CFI 2ea48 .cfa: sp 0 +
STACK CFI 2ea4c .cfa: x29 96 +
