MODULE Linux arm64 098CDD337A2FB1114E735632771F90210 iandyhd3.snow_particles.android64.so
INFO CODE_ID 33DD8C092F7A11B14E735632771F90211662E14D
INFO GENERATOR mozilla/dump_syms 2.3.4
PUBLIC 35a0 0 __on_dlclose
PUBLIC 35b0 0 __emutls_unregister_key
PUBLIC 35b8 0 __on_dlclose_late
PUBLIC 35c0 0 __atexit_handler_wrapper
PUBLIC 35d4 0 atexit
PUBLIC 35f0 0 pthread_atfork
PUBLIC 3600 0 __aarch64_ldadd8_relax
PUBLIC 3630 0 init_have_lse_atomics
PUBLIC 36c8 0 __init_cpu_features_constructor
PUBLIC 3c64 0 __init_cpu_features
PUBLIC 3cf0 0 __aarch64_ldadd8_acq_rel
PUBLIC 3d20 0 geode::Mod::getSettingValue<long>(std::__ndk1::basic_string_view<char, std::__ndk1::char_traits<char> >) const
PUBLIC 3e40 0 __cxx_global_var_init
PUBLIC 42c4 0 geode::modifier::ModifyBase<geode::modifier::ModifyDerive<MyMenuLayer, MenuLayer> >::~ModifyBase()
PUBLIC 42dc 0 __cxx_global_var_init.1
PUBLIC 4760 0 geode::modifier::ModifyBase<geode::modifier::ModifyDerive<PL, PlayLayer> >::~ModifyBase()
PUBLIC 4778 0 __clang_call_terminate
PUBLIC 4788 0 geode::cast::traverseTypeinfoFor(void*, geode::cast::ClassTypeinfoType const*, char const*)
PUBLIC 4880 0 geode::modifier::ModifyDerive<MyMenuLayer, MenuLayer>::apply()
PUBLIC 4b74 0 std::__ndk1::shared_ptr<geode::Hook>::~shared_ptr[abi:ne180000]()
PUBLIC 4bc4 0 geode::impl::ResultData<geode::Hook*, std::__ndk1::basic_string<char, std::__ndk1::char_traits<char>, std::__ndk1::allocator<char> > >::~ResultData()
PUBLIC 4c38 0 std::__ndk1::vector<std::__ndk1::basic_string<char, std::__ndk1::char_traits<char>, std::__ndk1::allocator<char> >, std::__ndk1::allocator<std::__ndk1::basic_string<char, std::__ndk1::char_traits<char>, std::__ndk1::allocator<char> > > >::~vector[abi:ne180000]()
PUBLIC 4cb4 0 geode::modifier::ModifyBase<geode::modifier::ModifyDerive<MyMenuLayer, MenuLayer> >::apply()
PUBLIC 4cb8 0 _ZN5geode15UnwrapExceptionC2IRPNS_4HookEQsr4implE18IsStringStreamableIT_EEENS_4impl5OkTagEOS5_
PUBLIC 4e0c 0 std::__ndk1::__throw_bad_variant_access[abi:ne180000]()
PUBLIC 4e40 0 std::__ndk1::basic_stringstream<char, std::__ndk1::char_traits<char>, std::__ndk1::allocator<char> >::basic_stringstream[abi:ne180000]()
PUBLIC m 4f6c 0 std::__ndk1::basic_stringstream<char, std::__ndk1::char_traits<char>, std::__ndk1::allocator<char> >::~basic_stringstream()
PUBLIC 4fec 0 geode::UnwrapException::~UnwrapException()
PUBLIC 5010 0 std::__ndk1::__put_character_sequence[abi:ne180000]<char, std::__ndk1::char_traits<char> >(std::__ndk1::basic_ostream<char, std::__ndk1::char_traits<char> >, std::__ndk1::basic_ostream const*, unsigned long)
PUBLIC 51b4 0 std::__ndk1::__pad_and_output[abi:ne180000]<char, std::__ndk1::char_traits<char> >(std::__ndk1::char_traits<char>, std::__ndk1::ostreambuf_iterator const*, std::__ndk1::ostreambuf_iterator const, std::__ndk1::ostreambuf_iterator const, std::__ndk1::ios_base&, std::__ndk1::ostreambuf_iterator)
PUBLIC 5390 0 std::__ndk1::basic_string<char, std::__ndk1::char_traits<char>, std::__ndk1::allocator<char> >::__throw_length_error[abi:ne180000]() const
PUBLIC 53a4 0 std::__ndk1::__throw_length_error[abi:ne180000](char const*)
PUBLIC 53f4 0 std::length_error::length_error[abi:ne180000](char const*)
PUBLIC 5424 0 std::__throw_bad_array_new_length([abi:ne180000], void)
PUBLIC 5458 0 std::__ndk1::basic_stringbuf<char, std::__ndk1::char_traits<char>, std::__ndk1::allocator<char> >::str[abi:ne180000]() &&
PUBLIC 55d0 0 std::__ndk1::basic_stringbuf<char, std::__ndk1::char_traits<char>, std::__ndk1::allocator<char> >::__init_buf_ptrs[abi:ne180000]()
PUBLIC 5718 0 std::__ndk1::vector<std::__ndk1::basic_string<char, std::__ndk1::char_traits<char>, std::__ndk1::allocator<char> >, std::__ndk1::allocator<std::__ndk1::basic_string<char, std::__ndk1::char_traits<char>, std::__ndk1::allocator<char> > > >::__push_back_slow_path<std::__ndk1::basic_string<char, std::__ndk1::char_traits<char>, std::__ndk1::allocator<char> > const&>(std::__ndk1::basic_string<char, std::__ndk1::char_traits<char>, std::__ndk1::allocator<char> > const&)
PUBLIC 593c 0 std::__ndk1::basic_string<char, std::__ndk1::char_traits<char>, std::__ndk1::allocator<char> >::__init_copy_ctor_external(char const*, unsigned long)
PUBLIC 59bc 0 std::__ndk1::__split_buffer<std::__ndk1::basic_string<char, std::__ndk1::char_traits<char>, std::__ndk1::allocator<char> >, std::__ndk1::allocator<std::__ndk1::basic_string<char, std::__ndk1::char_traits<char>, std::__ndk1::allocator<char> > >&>::~__split_buffer()
PUBLIC 5a24 0 std::__ndk1::vector<std::__ndk1::basic_string<char, std::__ndk1::char_traits<char>, std::__ndk1::allocator<char> >, std::__ndk1::allocator<std::__ndk1::basic_string<char, std::__ndk1::char_traits<char>, std::__ndk1::allocator<char> > > >::__throw_length_error[abi:ne180000]() const
PUBLIC 5a38 0 std::__ndk1::__variant_detail::__visitation::__base::__dispatcher<(unsigned long)0>::__dispatch[abi:ne180000]<std::__ndk1::__variant_detail::__dtor<std::__ndk1::__variant_detail::__traits<geode::Hook*, std::__ndk1::basic_string<char, std::__ndk1::char_traits<char>, std::__ndk1::allocator<char> > >, (std::__ndk1::__variant_detail::_Trait)1>::__destroy[abi:ne180000]()::{lambda(auto:1&)#1}, std::__ndk1::__variant_detail::__base<(std::__ndk1::__variant_detail::__traits<geode::Hook*, std::__ndk1::basic_string<char, std::__ndk1::char_traits<char>, std::__ndk1::allocator<char> > >)1, geode::Hook, std::__ndk1::allocator<char> >&>(std::__ndk1::__variant_detail::__dtor<std::__ndk1::__variant_detail::__traits<geode::Hook*, std::__ndk1::basic_string<char, std::__ndk1::char_traits<char>, std::__ndk1::allocator<char> > >, (std::__ndk1::__variant_detail::_Trait)1>, std::__ndk1::__variant_detail::__base<(std::__ndk1::__variant_detail::__traits<geode::Hook*, std::__ndk1::basic_string<char, std::__ndk1::char_traits<char>, std::__ndk1::allocator<char> > >)1, geode::Hook, std::__ndk1::allocator<char> >&)
PUBLIC 5a3c 0 std::__ndk1::__variant_detail::__visitation::__base::__dispatcher<(unsigned long)1>::__dispatch[abi:ne180000]<std::__ndk1::__variant_detail::__dtor<std::__ndk1::__variant_detail::__traits<geode::Hook*, std::__ndk1::basic_string<char, std::__ndk1::char_traits<char>, std::__ndk1::allocator<char> > >, (std::__ndk1::__variant_detail::_Trait)1>::__destroy[abi:ne180000]()::{lambda(auto:1&)#1}, std::__ndk1::__variant_detail::__base<(std::__ndk1::__variant_detail::__traits<geode::Hook*, std::__ndk1::basic_string<char, std::__ndk1::char_traits<char>, std::__ndk1::allocator<char> > >)1, geode::Hook, std::__ndk1::allocator<char> >&>(std::__ndk1::__variant_detail::__dtor<std::__ndk1::__variant_detail::__traits<geode::Hook*, std::__ndk1::basic_string<char, std::__ndk1::char_traits<char>, std::__ndk1::allocator<char> > >, (std::__ndk1::__variant_detail::_Trait)1>, std::__ndk1::__variant_detail::__base<(std::__ndk1::__variant_detail::__traits<geode::Hook*, std::__ndk1::basic_string<char, std::__ndk1::char_traits<char>, std::__ndk1::allocator<char> > >)1, geode::Hook, std::__ndk1::allocator<char> >&)
PUBLIC 5a50 0 std::__ndk1::__tree<std::__ndk1::__value_type<std::__ndk1::basic_string<char, std::__ndk1::char_traits<char>, std::__ndk1::allocator<char> >, std::__ndk1::shared_ptr<geode::Hook> >, std::__ndk1::__map_value_compare<std::__ndk1::basic_string<char, std::__ndk1::char_traits<char>, std::__ndk1::allocator<char> >, std::__ndk1::__value_type<std::__ndk1::basic_string<char, std::__ndk1::char_traits<char>, std::__ndk1::allocator<char> >, std::__ndk1::shared_ptr<geode::Hook> >, std::__ndk1::less<std::__ndk1::basic_string<char, std::__ndk1::char_traits<char>, std::__ndk1::allocator<char> > >, true>, std::__ndk1::allocator<std::__ndk1::__value_type<std::__ndk1::basic_string<char, std::__ndk1::char_traits<char>, std::__ndk1::allocator<char> >, std::__ndk1::shared_ptr<geode::Hook> > > >::find<std::__ndk1::basic_string<char, std::__ndk1::char_traits<char>, std::__ndk1::allocator<char> > >(std::__ndk1::basic_string<char, std::__ndk1::char_traits<char>, std::__ndk1::allocator<char> > const&)
PUBLIC 5b70 0 std::__ndk1::__tree<std::__ndk1::__value_type<std::__ndk1::basic_string<char, std::__ndk1::char_traits<char>, std::__ndk1::allocator<char> >, std::__ndk1::shared_ptr<geode::Hook> >, std::__ndk1::__map_value_compare<std::__ndk1::basic_string<char, std::__ndk1::char_traits<char>, std::__ndk1::allocator<char> >, std::__ndk1::__value_type<std::__ndk1::basic_string<char, std::__ndk1::char_traits<char>, std::__ndk1::allocator<char> >, std::__ndk1::shared_ptr<geode::Hook> >, std::__ndk1::less<std::__ndk1::basic_string<char, std::__ndk1::char_traits<char>, std::__ndk1::allocator<char> > >, true>, std::__ndk1::allocator<std::__ndk1::__value_type<std::__ndk1::basic_string<char, std::__ndk1::char_traits<char>, std::__ndk1::allocator<char> >, std::__ndk1::shared_ptr<geode::Hook> > > >::erase(std::__ndk1::__tree_const_iterator<std::__ndk1::__value_type<std::__ndk1::basic_string<char, std::__ndk1::char_traits<char>, std::__ndk1::allocator<char> >, std::__ndk1::shared_ptr<geode::Hook> >, std::__ndk1::__tree_node<std::__ndk1::__value_type<std::__ndk1::basic_string<char, std::__ndk1::char_traits<char>, std::__ndk1::allocator<char> >, std::__ndk1::shared_ptr<geode::Hook> >, void*>*, long>)
PUBLIC 6014 0 std::__ndk1::__tree<std::__ndk1::__value_type<std::__ndk1::basic_string<char, std::__ndk1::char_traits<char>, std::__ndk1::allocator<char> >, std::__ndk1::shared_ptr<geode::Hook> >, std::__ndk1::__map_value_compare<std::__ndk1::basic_string<char, std::__ndk1::char_traits<char>, std::__ndk1::allocator<char> >, std::__ndk1::__value_type<std::__ndk1::basic_string<char, std::__ndk1::char_traits<char>, std::__ndk1::allocator<char> >, std::__ndk1::shared_ptr<geode::Hook> >, std::__ndk1::less<std::__ndk1::basic_string<char, std::__ndk1::char_traits<char>, std::__ndk1::allocator<char> > >, true>, std::__ndk1::allocator<std::__ndk1::__value_type<std::__ndk1::basic_string<char, std::__ndk1::char_traits<char>, std::__ndk1::allocator<char> >, std::__ndk1::shared_ptr<geode::Hook> > > >::destroy(std::__ndk1::__tree_node<std::__ndk1::__value_type<std::__ndk1::basic_string<char, std::__ndk1::char_traits<char>, std::__ndk1::allocator<char> >, std::__ndk1::shared_ptr<geode::Hook> >, void*>*)
PUBLIC 6098 0 geode::modifier::AsStaticFunction_init<MyMenuLayer, bool (MyMenuLayer::*)()>::Impl<bool (MyMenuLayer::*)()>::function(MyMenuLayer*)
PUBLIC 6190 0 geode::addresser::Addresser::addressOfVirtual<bool, MenuLayer, >(bool (MenuLayer::*)())
PUBLIC 6238 0 MenuLayer::MenuLayer(geode::ZeroConstructorType)
PUBLIC 62d4 0 std::__ndk1::shared_ptr<tulip::hook::CallingConvention>::~shared_ptr[abi:ne180000]()
PUBLIC 6324 0 tulip::hook::HandlerMetadata::~HandlerMetadata()
PUBLIC 6388 0 geode::Mod::getSettingValue<bool>(std::__ndk1::basic_string_view<char, std::__ndk1::char_traits<char> >) const
PUBLIC 64b8 0 std::__ndk1::__tree<std::__ndk1::__value_type<std::__ndk1::basic_string<char, std::__ndk1::char_traits<char>, std::__ndk1::allocator<char> >, std::__ndk1::shared_ptr<geode::Hook> >, std::__ndk1::__map_value_compare<std::__ndk1::basic_string<char, std::__ndk1::char_traits<char>, std::__ndk1::allocator<char> >, std::__ndk1::__value_type<std::__ndk1::basic_string<char, std::__ndk1::char_traits<char>, std::__ndk1::allocator<char> >, std::__ndk1::shared_ptr<geode::Hook> >, std::__ndk1::less<std::__ndk1::basic_string<char, std::__ndk1::char_traits<char>, std::__ndk1::allocator<char> > >, true>, std::__ndk1::allocator<std::__ndk1::__value_type<std::__ndk1::basic_string<char, std::__ndk1::char_traits<char>, std::__ndk1::allocator<char> >, std::__ndk1::shared_ptr<geode::Hook> > > >::__emplace_unique_key_args<std::__ndk1::basic_string<char, std::__ndk1::char_traits<char>, std::__ndk1::allocator<char> >, std::__ndk1::piecewise_construct_t const&, std::__ndk1::tuple<std::__ndk1::basic_string<char, std::__ndk1::char_traits<char>, std::__ndk1::allocator<char> >&&>, std::__ndk1::tuple<> >(std::__ndk1::basic_string<char, std::__ndk1::char_traits<char>, std::__ndk1::allocator<char> > const&, std::__ndk1::piecewise_construct_t const&, std::__ndk1::tuple<std::__ndk1::basic_string<char, std::__ndk1::char_traits<char>, std::__ndk1::allocator<char> >&&>, std::__ndk1::tuple<>)
PUBLIC 6620 0 std::__ndk1::__tree_balance_after_insert[abi:ne180000]<std::__ndk1::__tree_node_base<void*>*>(std::__ndk1::__tree_node_base<void*>*, std::__ndk1::__tree_node_base<void*>*)
PUBLIC 67d0 0 geode::modifier::ModifyDerive<PL, PlayLayer>::apply()
PUBLIC 6dd0 0 geode::modifier::ModifyBase<geode::modifier::ModifyDerive<PL, PlayLayer> >::apply()
PUBLIC 6dd4 0 geode::modifier::AsStaticFunction_init<PL, bool (PL::*)(GJGameLevel*, bool, bool)>::Impl<bool (PL::*)(GJGameLevel*, bool, bool)>::function(PL*, GJGameLevel*, bool, bool)
PUBLIC 6eb0 0 geode::modifier::AsStaticFunction_onQuit<PL, void (PL::*)()>::Impl<void (PL::*)()>::function(PL*)
PUBLIC 6ef0 0 PL::hideParticle(float)
PUBLIC 6f74 0 PL::showParticle(float)
PUBLIC m 7058 0 geodeImplicitEntry
PUBLIC 70a0 0 <.plt ELF section in iandyhd3.snow_particles.android64.so>
STACK CFI INIT 35a0 10 .cfa: sp 0 +
STACK CFI INIT 35b0 8 .cfa: sp 0 +
STACK CFI INIT 35b8 8 .cfa: sp 0 +
STACK CFI INIT 35c0 14 .cfa: sp 0 +
STACK CFI INIT 35d4 1c .cfa: sp 0 +
STACK CFI INIT 35f0 10 .cfa: sp 0 +
STACK CFI INIT 3600 30 .cfa: sp 0 +
STACK CFI INIT 3630 98 .cfa: sp 0 +
STACK CFI INIT 36c8 59c .cfa: sp 0 +
STACK CFI INIT 3c64 8c .cfa: sp 0 +
STACK CFI INIT 3cf0 30 .cfa: sp 0 +
STACK CFI INIT 3d20 120 .cfa: sp 0 +
STACK CFI 3d24 .cfa: sp 80 +
STACK CFI 3d34 .cfa: x29 48 + x19: .cfa -8 + ^ x20: .cfa -16 + ^ x21: .cfa -24 + ^ x22: .cfa -32 + ^ .ra: .cfa -40 + ^ x29: .cfa -48 + ^
STACK CFI 3e28 .cfa: sp 80 +
STACK CFI 3e38 .cfa: sp 0 +
STACK CFI 3e3c .cfa: x29 48 +
STACK CFI INIT 42c4 18 .cfa: sp 0 +
STACK CFI INIT 4760 18 .cfa: sp 0 +
STACK CFI INIT 4778 10 .cfa: sp 0 +
STACK CFI 477c .cfa: sp 16 +
STACK CFI 4780 .cfa: x29 16 + .ra: .cfa -8 + ^ x29: .cfa -16 + ^
STACK CFI INIT 4788 f8 .cfa: sp 0 +
STACK CFI 478c .cfa: sp 64 +
STACK CFI 479c .cfa: x29 64 + x19: .cfa -8 + ^ x20: .cfa -16 + ^ x21: .cfa -24 + ^ x22: .cfa -32 + ^ x23: .cfa -48 + ^ .ra: .cfa -56 + ^ x29: .cfa -64 + ^
STACK CFI 47f8 .cfa: sp 64 +
STACK CFI 4808 .cfa: sp 0 +
STACK CFI 480c .cfa: x29 64 +
STACK CFI 4828 .cfa: sp 64 +
STACK CFI 4838 .cfa: sp 0 +
STACK CFI 483c .cfa: x29 64 +
STACK CFI 486c .cfa: sp 64 +
STACK CFI 487c .cfa: sp 0 +
STACK CFI INIT 4b74 50 .cfa: sp 0 +
STACK CFI 4b78 .cfa: sp 32 +
STACK CFI 4b80 .cfa: x29 32 + x19: .cfa -16 + ^ .ra: .cfa -24 + ^ x29: .cfa -32 + ^
STACK CFI 4b98 .cfa: sp 32 +
STACK CFI 4ba0 .cfa: sp 0 +
STACK CFI 4ba4 .cfa: x29 32 +
STACK CFI 4bb8 .cfa: sp 32 +
STACK CFI 4bc0 .cfa: sp 0 +
STACK CFI INIT 4c38 7c .cfa: sp 0 +
STACK CFI 4c3c .cfa: sp 48 +
STACK CFI 4c48 .cfa: x29 48 + x19: .cfa -8 + ^ x20: .cfa -16 + ^ x21: .cfa -32 + ^ .ra: .cfa -40 + ^ x29: .cfa -48 + ^
STACK CFI 4c94 .cfa: sp 48 +
STACK CFI 4ca0 .cfa: sp 0 +
STACK CFI 4ca4 .cfa: sp 48 +
STACK CFI 4cb0 .cfa: sp 0 +
STACK CFI INIT 4cb4 4 .cfa: sp 0 +
STACK CFI INIT 4e0c 34 .cfa: sp 0 +
STACK CFI 4e10 .cfa: sp 16 +
STACK CFI 4e14 .cfa: x29 16 + .ra: .cfa -8 + ^ x29: .cfa -16 + ^
STACK CFI INIT 4f6c 80 .cfa: sp 0 +
STACK CFI 4f70 .cfa: sp 48 +
STACK CFI 4f7c .cfa: x29 48 + x19: .cfa -8 + ^ x20: .cfa -16 + ^ x21: .cfa -32 + ^ .ra: .cfa -40 + ^ x29: .cfa -48 + ^
STACK CFI 4fdc .cfa: sp 48 +
STACK CFI 4fe8 .cfa: sp 0 +
STACK CFI INIT 4fec 24 .cfa: sp 0 +
STACK CFI 4ff0 .cfa: sp 32 +
STACK CFI 4ff8 .cfa: x29 32 + x19: .cfa -16 + ^ .ra: .cfa -24 + ^ x29: .cfa -32 + ^
STACK CFI 5004 .cfa: sp 32 +
STACK CFI 500c .cfa: sp 0 +
STACK CFI INIT 5390 14 .cfa: sp 0 +
STACK CFI 5394 .cfa: sp 16 +
STACK CFI 5398 .cfa: x29 16 + .ra: .cfa -8 + ^ x29: .cfa -16 + ^
STACK CFI INIT 53f4 30 .cfa: sp 0 +
STACK CFI 53f8 .cfa: sp 32 +
STACK CFI 5400 .cfa: x29 32 + x19: .cfa -16 + ^ .ra: .cfa -24 + ^ x29: .cfa -32 + ^
STACK CFI 5418 .cfa: sp 32 +
STACK CFI 5420 .cfa: sp 0 +
STACK CFI INIT 5424 34 .cfa: sp 0 +
STACK CFI 5428 .cfa: sp 32 +
STACK CFI 5430 .cfa: x29 32 + x19: .cfa -16 + ^ .ra: .cfa -24 + ^ x29: .cfa -32 + ^
STACK CFI INIT 55d0 148 .cfa: sp 0 +
STACK CFI 55d4 .cfa: sp 48 +
STACK CFI 55e0 .cfa: x29 48 + x19: .cfa -8 + ^ x20: .cfa -16 + ^ x21: .cfa -32 + ^ .ra: .cfa -40 + ^ x29: .cfa -48 + ^
STACK CFI 5708 .cfa: sp 48 +
STACK CFI 5714 .cfa: sp 0 +
STACK CFI INIT 593c 80 .cfa: sp 0 +
STACK CFI 5940 .cfa: sp 48 +
STACK CFI 594c .cfa: x29 48 + x19: .cfa -8 + ^ x20: .cfa -16 + ^ x21: .cfa -24 + ^ x22: .cfa -32 + ^ .ra: .cfa -40 + ^ x29: .cfa -48 + ^
STACK CFI 5964 .cfa: sp 48 +
STACK CFI 5970 .cfa: sp 0 +
STACK CFI 5974 .cfa: x29 48 +
STACK CFI 59a4 .cfa: sp 48 +
STACK CFI 59b0 .cfa: sp 0 +
STACK CFI 59b4 .cfa: x29 48 +
STACK CFI INIT 59bc 68 .cfa: sp 0 +
STACK CFI 59c0 .cfa: sp 32 +
STACK CFI 59c8 .cfa: x29 32 + x19: .cfa -8 + ^ x20: .cfa -16 + ^ .ra: .cfa -24 + ^ x29: .cfa -32 + ^
STACK CFI 59e0 .cfa: sp 32 +
STACK CFI 59e8 .cfa: sp 0 +
STACK CFI 59ec .cfa: x29 32 +
STACK CFI 5a18 .cfa: sp 32 +
STACK CFI 5a20 .cfa: sp 0 +
STACK CFI INIT 5a24 14 .cfa: sp 0 +
STACK CFI 5a28 .cfa: sp 16 +
STACK CFI 5a2c .cfa: x29 16 + .ra: .cfa -8 + ^ x29: .cfa -16 + ^
STACK CFI INIT 5a38 4 .cfa: sp 0 +
STACK CFI INIT 5a3c 14 .cfa: sp 0 +
STACK CFI INIT 5a50 120 .cfa: sp 0 +
STACK CFI 5a54 .cfa: sp 64 +
STACK CFI 5a64 .cfa: x29 64 + x19: .cfa -8 + ^ x20: .cfa -16 + ^ x21: .cfa -24 + ^ x22: .cfa -32 + ^ x23: .cfa -40 + ^ x24: .cfa -48 + ^ .ra: .cfa -56 + ^ x29: .cfa -64 + ^
STACK CFI 5b5c .cfa: sp 64 +
STACK CFI 5b6c .cfa: sp 0 +
STACK CFI INIT 5b70 4a4 .cfa: sp 0 +
STACK CFI 5b74 .cfa: sp 32 +
STACK CFI 5b7c .cfa: x29 32 + x19: .cfa -8 + ^ x20: .cfa -16 + ^ .ra: .cfa -24 + ^ x29: .cfa -32 + ^
STACK CFI 5f5c .cfa: sp 32 +
STACK CFI 5f64 .cfa: sp 0 +
STACK CFI 5f68 .cfa: x29 32 +
STACK CFI INIT 6014 84 .cfa: sp 0 +
STACK CFI 601c .cfa: sp 32 +
STACK CFI 6024 .cfa: x29 32 + x19: .cfa -8 + ^ x20: .cfa -16 + ^ .ra: .cfa -24 + ^ x29: .cfa -32 + ^
STACK CFI 6064 .cfa: sp 32 +
STACK CFI 606c .cfa: sp 0 +
STACK CFI 6074 .cfa: x29 32 +
STACK CFI INIT 6098 f8 .cfa: sp 0 +
STACK CFI 609c .cfa: sp 64 +
STACK CFI 60ac .cfa: x29 64 + x19: .cfa -8 + ^ x20: .cfa -16 + ^ x21: .cfa -24 + ^ x22: .cfa -32 + ^ x23: .cfa -48 + ^ .ra: .cfa -56 + ^ x29: .cfa -64 + ^
STACK CFI 6130 .cfa: sp 64 +
STACK CFI 6140 .cfa: sp 0 +
STACK CFI 6144 .cfa: x29 64 +
STACK CFI 617c .cfa: sp 64 +
STACK CFI 618c .cfa: sp 0 +
STACK CFI INIT 6238 9c .cfa: sp 0 +
STACK CFI INIT 62d4 50 .cfa: sp 0 +
STACK CFI 62d8 .cfa: sp 32 +
STACK CFI 62e0 .cfa: x29 32 + x19: .cfa -16 + ^ .ra: .cfa -24 + ^ x29: .cfa -32 + ^
STACK CFI 62f8 .cfa: sp 32 +
STACK CFI 6300 .cfa: sp 0 +
STACK CFI 6304 .cfa: x29 32 +
STACK CFI 6318 .cfa: sp 32 +
STACK CFI 6320 .cfa: sp 0 +
STACK CFI INIT 6324 64 .cfa: sp 0 +
STACK CFI 6328 .cfa: sp 32 +
STACK CFI 6330 .cfa: x29 32 + x19: .cfa -16 + ^ .ra: .cfa -24 + ^ x29: .cfa -32 + ^
STACK CFI 635c .cfa: sp 32 +
STACK CFI 6364 .cfa: sp 0 +
STACK CFI 6368 .cfa: x29 32 +
STACK CFI 637c .cfa: sp 32 +
STACK CFI 6384 .cfa: sp 0 +
STACK CFI INIT 6388 130 .cfa: sp 0 +
STACK CFI 638c .cfa: sp 80 +
STACK CFI 639c .cfa: x29 48 + x19: .cfa -8 + ^ x20: .cfa -16 + ^ x21: .cfa -24 + ^ x22: .cfa -32 + ^ .ra: .cfa -40 + ^ x29: .cfa -48 + ^
STACK CFI 64a0 .cfa: sp 80 +
STACK CFI 64b0 .cfa: sp 0 +
STACK CFI 64b4 .cfa: x29 48 +
STACK CFI INIT 64b8 168 .cfa: sp 0 +
STACK CFI 64bc .cfa: sp 80 +
STACK CFI 64d0 .cfa: x29 80 + x19: .cfa -8 + ^ x20: .cfa -16 + ^ x21: .cfa -24 + ^ x22: .cfa -32 + ^ x23: .cfa -40 + ^ x24: .cfa -48 + ^ x25: .cfa -56 + ^ x26: .cfa -64 + ^ .ra: .cfa -72 + ^ x29: .cfa -80 + ^
STACK CFI 6608 .cfa: sp 80 +
STACK CFI 661c .cfa: sp 0 +
STACK CFI INIT 6620 1b0 .cfa: sp 0 +
STACK CFI INIT 6dd0 4 .cfa: sp 0 +
STACK CFI INIT 6dd4 dc .cfa: sp 0 +
STACK CFI 6dd8 .cfa: sp 48 +
STACK CFI 6de4 .cfa: x29 48 + x19: .cfa -8 + ^ x20: .cfa -16 + ^ x21: .cfa -32 + ^ .ra: .cfa -40 + ^ x29: .cfa -48 + ^
STACK CFI 6e54 .cfa: sp 48 +
STACK CFI 6e60 .cfa: sp 0 +
STACK CFI 6e64 .cfa: x29 48 +
STACK CFI 6ea0 .cfa: sp 48 +
STACK CFI 6eac .cfa: sp 0 +
STACK CFI INIT 6eb0 40 .cfa: sp 0 +
STACK CFI 6eb4 .cfa: sp 32 +
STACK CFI 6ebc .cfa: x29 32 + x19: .cfa -16 + ^ .ra: .cfa -24 + ^ x29: .cfa -32 + ^
STACK CFI 6ee4 .cfa: sp 32 +
STACK CFI 6eec .cfa: sp 0 +
STACK CFI INIT 6ef0 84 .cfa: sp 0 +
STACK CFI 6ef4 .cfa: sp 32 +
STACK CFI 6efc .cfa: x29 32 + x19: .cfa -8 + ^ x20: .cfa -16 + ^ .ra: .cfa -24 + ^ x29: .cfa -32 + ^
STACK CFI 6f5c .cfa: sp 32 +
STACK CFI 6f64 .cfa: sp 0 +
STACK CFI 6f68 .cfa: sp 32 +
STACK CFI 6f70 .cfa: sp 0 +
STACK CFI INIT 6f74 e4 .cfa: sp 0 +
STACK CFI 6f78 .cfa: sp 80 +
STACK CFI 6f88 .cfa: x29 48 + x19: .cfa -8 + ^ x20: .cfa -16 + ^ x21: .cfa -32 + ^ .ra: .cfa -40 + ^ x29: .cfa -48 + ^
STACK CFI 7040 .cfa: sp 80 +
STACK CFI 7050 .cfa: sp 0 +
STACK CFI 7054 .cfa: x29 48 +
STACK CFI INIT 7058 3c .cfa: sp 0 +
STACK CFI 705c .cfa: sp 32 +
STACK CFI 7064 .cfa: x29 32 + x19: .cfa -16 + ^ .ra: .cfa -24 + ^ x29: .cfa -32 + ^
STACK CFI 7070 .cfa: sp 32 +
STACK CFI 7078 .cfa: sp 0 +
STACK CFI 707c .cfa: x29 32 +
STACK CFI 7088 .cfa: sp 32 +
STACK CFI 7090 .cfa: sp 0 +
STACK CFI INIT 3e40 484 .cfa: sp 0 +
STACK CFI 3e44 .cfa: sp 224 +
STACK CFI 3e60 .cfa: x29 96 + x19: .cfa -8 + ^ x20: .cfa -16 + ^ x21: .cfa -24 + ^ x22: .cfa -32 + ^ x23: .cfa -40 + ^ x24: .cfa -48 + ^ x25: .cfa -56 + ^ x26: .cfa -64 + ^ x27: .cfa -72 + ^ x28: .cfa -80 + ^ .ra: .cfa -88 + ^ x29: .cfa -96 + ^
STACK CFI 40d0 .cfa: sp 224 +
STACK CFI 40ec .cfa: sp 0 +
STACK CFI 40f0 .cfa: x29 96 +
STACK CFI 41bc .cfa: sp 224 +
STACK CFI 41d8 .cfa: sp 0 +
STACK CFI 41dc .cfa: x29 96 +
STACK CFI INIT 42dc 484 .cfa: sp 0 +
STACK CFI 42e0 .cfa: sp 224 +
STACK CFI 42fc .cfa: x29 96 + x19: .cfa -8 + ^ x20: .cfa -16 + ^ x21: .cfa -24 + ^ x22: .cfa -32 + ^ x23: .cfa -40 + ^ x24: .cfa -48 + ^ x25: .cfa -56 + ^ x26: .cfa -64 + ^ x27: .cfa -72 + ^ x28: .cfa -80 + ^ .ra: .cfa -88 + ^ x29: .cfa -96 + ^
STACK CFI 456c .cfa: sp 224 +
STACK CFI 4588 .cfa: sp 0 +
STACK CFI 458c .cfa: x29 96 +
STACK CFI 4658 .cfa: sp 224 +
STACK CFI 4674 .cfa: sp 0 +
STACK CFI 4678 .cfa: x29 96 +
STACK CFI INIT 4880 2f4 .cfa: sp 0 +
STACK CFI 4884 .cfa: sp 176 +
STACK CFI 4898 .cfa: x29 64 + x19: .cfa -8 + ^ x20: .cfa -16 + ^ x21: .cfa -24 + ^ x22: .cfa -32 + ^ x23: .cfa -48 + ^ .ra: .cfa -56 + ^ x29: .cfa -64 + ^
STACK CFI 4a6c .cfa: sp 176 +
STACK CFI 4a80 .cfa: sp 0 +
STACK CFI 4a84 .cfa: x29 64 +
STACK CFI INIT 4bc4 74 .cfa: sp 0 +
STACK CFI 4bc8 .cfa: sp 48 +
STACK CFI 4bd4 .cfa: x29 32 + x19: .cfa -8 + ^ x20: .cfa -16 + ^ .ra: .cfa -24 + ^ x29: .cfa -32 + ^
STACK CFI 4c20 .cfa: sp 48 +
STACK CFI 4c2c .cfa: sp 0 +
STACK CFI 4c30 .cfa: x29 32 +
STACK CFI INIT 4cb8 154 .cfa: sp 0 +
STACK CFI 4cbc .cfa: sp 384 +
STACK CFI 4cd0 .cfa: x29 64 + x19: .cfa -8 + ^ x20: .cfa -16 + ^ x21: .cfa -24 + ^ x22: .cfa -32 + ^ x23: .cfa -40 + ^ x28: .cfa -48 + ^ .ra: .cfa -56 + ^ x29: .cfa -64 + ^
STACK CFI 4db4 .cfa: sp 384 +
STACK CFI 4dc8 .cfa: sp 0 +
STACK CFI 4dcc .cfa: x29 64 +
STACK CFI INIT 4e40 12c .cfa: sp 0 +
STACK CFI 4e44 .cfa: sp 80 +
STACK CFI 4e58 .cfa: x29 80 + x19: .cfa -8 + ^ x20: .cfa -16 + ^ x21: .cfa -24 + ^ x22: .cfa -32 + ^ x23: .cfa -40 + ^ x24: .cfa -48 + ^ x25: .cfa -56 + ^ x26: .cfa -64 + ^ .ra: .cfa -72 + ^ x29: .cfa -80 + ^
STACK CFI 4f20 .cfa: sp 80 +
STACK CFI 4f34 .cfa: sp 0 +
STACK CFI 4f38 .cfa: x29 80 +
STACK CFI INIT 5010 1a4 .cfa: sp 0 +
STACK CFI 5014 .cfa: sp 112 +
STACK CFI 502c .cfa: x29 80 + x19: .cfa -8 + ^ x20: .cfa -16 + ^ x21: .cfa -24 + ^ x22: .cfa -32 + ^ x23: .cfa -40 + ^ x24: .cfa -48 + ^ x25: .cfa -56 + ^ x26: .cfa -64 + ^ .ra: .cfa -72 + ^ x29: .cfa -80 + ^
STACK CFI 511c .cfa: sp 112 +
STACK CFI 5134 .cfa: sp 0 +
STACK CFI 5138 .cfa: x29 80 +
STACK CFI INIT 51b4 1dc .cfa: sp 0 +
STACK CFI 51b8 .cfa: sp 128 +
STACK CFI 51d4 .cfa: x29 96 + x19: .cfa -8 + ^ x20: .cfa -16 + ^ x21: .cfa -24 + ^ x22: .cfa -32 + ^ x23: .cfa -40 + ^ x24: .cfa -48 + ^ x25: .cfa -56 + ^ x26: .cfa -64 + ^ x27: .cfa -80 + ^ .ra: .cfa -88 + ^ x29: .cfa -96 + ^
STACK CFI 5340 .cfa: sp 128 +
STACK CFI 535c .cfa: sp 0 +
STACK CFI 5360 .cfa: x29 96 +
STACK CFI INIT 53a4 50 .cfa: sp 0 +
STACK CFI 53a8 .cfa: sp 32 +
STACK CFI 53b0 .cfa: x29 32 + x19: .cfa -8 + ^ x20: .cfa -16 + ^ .ra: .cfa -24 + ^ x29: .cfa -32 + ^
STACK CFI INIT 5458 178 .cfa: sp 0 +
STACK CFI 545c .cfa: sp 80 +
STACK CFI 5470 .cfa: x29 80 + x19: .cfa -8 + ^ x20: .cfa -16 + ^ x21: .cfa -24 + ^ x22: .cfa -32 + ^ x23: .cfa -40 + ^ x24: .cfa -48 + ^ x25: .cfa -64 + ^ .ra: .cfa -72 + ^ x29: .cfa -80 + ^
STACK CFI 559c .cfa: sp 80 +
STACK CFI 55b0 .cfa: sp 0 +
STACK CFI 55b4 .cfa: x29 80 +
STACK CFI INIT 5718 224 .cfa: sp 0 +
STACK CFI 571c .cfa: sp 128 +
STACK CFI 5734 .cfa: x29 80 + x19: .cfa -8 + ^ x20: .cfa -16 + ^ x21: .cfa -24 + ^ x22: .cfa -32 + ^ x23: .cfa -40 + ^ x24: .cfa -48 + ^ x25: .cfa -64 + ^ .ra: .cfa -72 + ^ x29: .cfa -80 + ^
STACK CFI 58d0 .cfa: sp 128 +
STACK CFI 58e8 .cfa: sp 0 +
STACK CFI 58ec .cfa: x29 80 +
STACK CFI INIT 6190 a8 .cfa: sp 0 +
STACK CFI 6194 .cfa: sp 32 +
STACK CFI 619c .cfa: x29 32 + x19: .cfa -16 + ^ .ra: .cfa -24 + ^ x29: .cfa -32 + ^
STACK CFI 61d0 .cfa: sp 32 +
STACK CFI 61d8 .cfa: sp 0 +
STACK CFI 61dc .cfa: x29 32 +
STACK CFI 61e0 .cfa: sp 32 +
STACK CFI 61e8 .cfa: sp 0 +
STACK CFI 61ec .cfa: x29 32 +
STACK CFI INIT 67d0 600 .cfa: sp 0 +
STACK CFI 67d4 .cfa: sp 240 +
STACK CFI 67f0 .cfa: x29 96 + x19: .cfa -8 + ^ x20: .cfa -16 + ^ x21: .cfa -24 + ^ x22: .cfa -32 + ^ x23: .cfa -40 + ^ x24: .cfa -48 + ^ x25: .cfa -56 + ^ x26: .cfa -64 + ^ x27: .cfa -72 + ^ x28: .cfa -80 + ^ .ra: .cfa -88 + ^ x29: .cfa -96 + ^
STACK CFI 6bf0 .cfa: sp 240 +
STACK CFI 6c0c .cfa: sp 0 +
STACK CFI 6c10 .cfa: x29 96 +
