MODULE Linux arm64 D83DFA3AA19CFCD929D6247D8EA6F60A0 sabe.trailfix.android64.so
INFO CODE_ID 3AFA3DD89CA1D9FC29D6247D8EA6F60A170638BF
INFO GENERATOR mozilla/dump_syms 2.3.4
PUBLIC 2dc0 0 __on_dlclose
PUBLIC 2dd0 0 __emutls_unregister_key
PUBLIC 2dd8 0 __on_dlclose_late
PUBLIC 2de0 0 __atexit_handler_wrapper
PUBLIC 2df4 0 atexit
PUBLIC 2e10 0 pthread_atfork
PUBLIC 2e20 0 __aarch64_ldadd8_relax
PUBLIC 2e50 0 init_have_lse_atomics
PUBLIC 2ee8 0 __init_cpu_features_constructor
PUBLIC 3484 0 __init_cpu_features
PUBLIC 3510 0 __aarch64_ldadd8_acq_rel
PUBLIC 3540 0 __cxx_global_var_init
PUBLIC 42bc 0 geode::modifier::ModifyBase<geode::modifier::ModifyDerive<TFHardStreak, HardStreak> >::~ModifyBase()
PUBLIC 42d4 0 geode::modifier::ModifyDerive<TFHardStreak, HardStreak>::apply()
PUBLIC 4758 0 std::__ndk1::shared_ptr<geode::Hook>::~shared_ptr[abi:ne180000]()
PUBLIC 47a8 0 geode::impl::ResultData<geode::Hook*, std::__ndk1::basic_string<char, std::__ndk1::char_traits<char>, std::__ndk1::allocator<char> > >::~ResultData()
PUBLIC 481c 0 std::__ndk1::vector<std::__ndk1::basic_string<char, std::__ndk1::char_traits<char>, std::__ndk1::allocator<char> >, std::__ndk1::allocator<std::__ndk1::basic_string<char, std::__ndk1::char_traits<char>, std::__ndk1::allocator<char> > > >::~vector[abi:ne180000]()
PUBLIC 4898 0 geode::modifier::ModifyBase<geode::modifier::ModifyDerive<TFHardStreak, HardStreak> >::apply()
PUBLIC 489c 0 __clang_call_terminate
PUBLIC 48ac 0 std::__ndk1::basic_string<char, std::__ndk1::char_traits<char>, std::__ndk1::allocator<char> >::__throw_length_error[abi:ne180000]() const
PUBLIC 48c0 0 std::__ndk1::__throw_length_error[abi:ne180000](char const*)
PUBLIC 4910 0 std::length_error::length_error[abi:ne180000](char const*)
PUBLIC 4940 0 std::__throw_bad_array_new_length([abi:ne180000], void)
PUBLIC 4974 0 std::__ndk1::__tree<std::__ndk1::__value_type<std::__ndk1::basic_string<char, std::__ndk1::char_traits<char>, std::__ndk1::allocator<char> >, std::__ndk1::shared_ptr<geode::Hook> >, std::__ndk1::__map_value_compare<std::__ndk1::basic_string<char, std::__ndk1::char_traits<char>, std::__ndk1::allocator<char> >, std::__ndk1::__value_type<std::__ndk1::basic_string<char, std::__ndk1::char_traits<char>, std::__ndk1::allocator<char> >, std::__ndk1::shared_ptr<geode::Hook> >, std::__ndk1::less<std::__ndk1::basic_string<char, std::__ndk1::char_traits<char>, std::__ndk1::allocator<char> > >, true>, std::__ndk1::allocator<std::__ndk1::__value_type<std::__ndk1::basic_string<char, std::__ndk1::char_traits<char>, std::__ndk1::allocator<char> >, std::__ndk1::shared_ptr<geode::Hook> > > >::find<std::__ndk1::basic_string<char, std::__ndk1::char_traits<char>, std::__ndk1::allocator<char> > >(std::__ndk1::basic_string<char, std::__ndk1::char_traits<char>, std::__ndk1::allocator<char> > const&)
PUBLIC 4a98 0 std::__ndk1::unique_ptr<std::__ndk1::__tree_node<std::__ndk1::__value_type<std::__ndk1::basic_string<char, std::__ndk1::char_traits<char>, std::__ndk1::allocator<char> >, std::__ndk1::shared_ptr<geode::Hook> >, void*>, std::__ndk1::__tree_node_destructor<std::__ndk1::allocator<std::__ndk1::__tree_node<std::__ndk1::__value_type<std::__ndk1::basic_string<char, std::__ndk1::char_traits<char>, std::__ndk1::allocator<char> >, std::__ndk1::shared_ptr<geode::Hook> >, void*> > > >::~unique_ptr[abi:ne180000]()
PUBLIC 4b14 0 std::__ndk1::basic_string<char, std::__ndk1::char_traits<char>, std::__ndk1::allocator<char> >::__init_copy_ctor_external(char const*, unsigned long)
PUBLIC 4b90 0 std::__ndk1::__tree_balance_after_insert[abi:ne180000]<std::__ndk1::__tree_node_base<void*>*>(std::__ndk1::__tree_node_base<void*>*, std::__ndk1::__tree_node_base<void*>*)
PUBLIC 4d40 0 _ZN5geode15UnwrapExceptionC2IRPNS_4HookEQsr4implE18IsStringStreamableIT_EEENS_4impl5OkTagEOS5_
PUBLIC 4e94 0 std::__ndk1::__throw_bad_variant_access[abi:ne180000]()
PUBLIC 4ec8 0 std::__ndk1::basic_stringstream<char, std::__ndk1::char_traits<char>, std::__ndk1::allocator<char> >::basic_stringstream[abi:ne180000]()
PUBLIC m 4ff4 0 std::__ndk1::basic_stringstream<char, std::__ndk1::char_traits<char>, std::__ndk1::allocator<char> >::~basic_stringstream()
PUBLIC 5074 0 geode::UnwrapException::~UnwrapException()
PUBLIC 5098 0 std::__ndk1::__put_character_sequence[abi:ne180000]<char, std::__ndk1::char_traits<char> >(std::__ndk1::basic_ostream<char, std::__ndk1::char_traits<char> >, std::__ndk1::basic_ostream const*, unsigned long)
PUBLIC 5370 0 std::__ndk1::basic_stringbuf<char, std::__ndk1::char_traits<char>, std::__ndk1::allocator<char> >::str[abi:ne180000]() &&
PUBLIC 5608 0 std::__ndk1::__variant_detail::__visitation::__base::__dispatcher<(unsigned long)0>::__dispatch[abi:ne180000]<std::__ndk1::__variant_detail::__dtor<std::__ndk1::__variant_detail::__traits<std::__ndk1::monostate, std::__ndk1::basic_string<char, std::__ndk1::char_traits<char>, std::__ndk1::allocator<char> > >, (std::__ndk1::__variant_detail::_Trait)1>::__destroy[abi:ne180000]()::{lambda(auto:1&)#1}, std::__ndk1::__variant_detail::__base<(std::__ndk1::__variant_detail::__traits<std::__ndk1::monostate, std::__ndk1::basic_string<char, std::__ndk1::char_traits<char>, std::__ndk1::allocator<char> > >)1, std::__ndk1::__variant_detail::__traits, std::__ndk1::allocator<char> >&>(std::__ndk1::__variant_detail::__dtor<std::__ndk1::__variant_detail::__traits<std::__ndk1::monostate, std::__ndk1::basic_string<char, std::__ndk1::char_traits<char>, std::__ndk1::allocator<char> > >, (std::__ndk1::__variant_detail::_Trait)1>, std::__ndk1::__variant_detail::__base<(std::__ndk1::__variant_detail::__traits<std::__ndk1::monostate, std::__ndk1::basic_string<char, std::__ndk1::char_traits<char>, std::__ndk1::allocator<char> > >)1, std::__ndk1::__variant_detail::__traits, std::__ndk1::allocator<char> >&)
PUBLIC 560c 0 std::__ndk1::__variant_detail::__visitation::__base::__dispatcher<(unsigned long)1>::__dispatch[abi:ne180000]<std::__ndk1::__variant_detail::__dtor<std::__ndk1::__variant_detail::__traits<std::__ndk1::monostate, std::__ndk1::basic_string<char, std::__ndk1::char_traits<char>, std::__ndk1::allocator<char> > >, (std::__ndk1::__variant_detail::_Trait)1>::__destroy[abi:ne180000]()::{lambda(auto:1&)#1}, std::__ndk1::__variant_detail::__base<(std::__ndk1::__variant_detail::__traits<std::__ndk1::monostate, std::__ndk1::basic_string<char, std::__ndk1::char_traits<char>, std::__ndk1::allocator<char> > >)1, std::__ndk1::__variant_detail::__traits, std::__ndk1::allocator<char> >&>(std::__ndk1::__variant_detail::__dtor<std::__ndk1::__variant_detail::__traits<std::__ndk1::monostate, std::__ndk1::basic_string<char, std::__ndk1::char_traits<char>, std::__ndk1::allocator<char> > >, (std::__ndk1::__variant_detail::_Trait)1>, std::__ndk1::__variant_detail::__base<(std::__ndk1::__variant_detail::__traits<std::__ndk1::monostate, std::__ndk1::basic_string<char, std::__ndk1::char_traits<char>, std::__ndk1::allocator<char> > >)1, std::__ndk1::__variant_detail::__traits, std::__ndk1::allocator<char> >&)
PUBLIC 5620 0 std::__ndk1::__split_buffer<std::__ndk1::basic_string<char, std::__ndk1::char_traits<char>, std::__ndk1::allocator<char> >, std::__ndk1::allocator<std::__ndk1::basic_string<char, std::__ndk1::char_traits<char>, std::__ndk1::allocator<char> > >&>::~__split_buffer()
PUBLIC 5688 0 std::__ndk1::vector<std::__ndk1::basic_string<char, std::__ndk1::char_traits<char>, std::__ndk1::allocator<char> >, std::__ndk1::allocator<std::__ndk1::basic_string<char, std::__ndk1::char_traits<char>, std::__ndk1::allocator<char> > > >::__throw_length_error[abi:ne180000]() const
PUBLIC 569c 0 std::__ndk1::__variant_detail::__visitation::__base::__dispatcher<(unsigned long)0>::__dispatch[abi:ne180000]<std::__ndk1::__variant_detail::__dtor<std::__ndk1::__variant_detail::__traits<geode::Hook*, std::__ndk1::basic_string<char, std::__ndk1::char_traits<char>, std::__ndk1::allocator<char> > >, (std::__ndk1::__variant_detail::_Trait)1>::__destroy[abi:ne180000]()::{lambda(auto:1&)#1}, std::__ndk1::__variant_detail::__base<(std::__ndk1::__variant_detail::__traits<geode::Hook*, std::__ndk1::basic_string<char, std::__ndk1::char_traits<char>, std::__ndk1::allocator<char> > >)1, geode::Hook, std::__ndk1::allocator<char> >&>(std::__ndk1::__variant_detail::__dtor<std::__ndk1::__variant_detail::__traits<geode::Hook*, std::__ndk1::basic_string<char, std::__ndk1::char_traits<char>, std::__ndk1::allocator<char> > >, (std::__ndk1::__variant_detail::_Trait)1>, std::__ndk1::__variant_detail::__base<(std::__ndk1::__variant_detail::__traits<geode::Hook*, std::__ndk1::basic_string<char, std::__ndk1::char_traits<char>, std::__ndk1::allocator<char> > >)1, geode::Hook, std::__ndk1::allocator<char> >&)
PUBLIC 56a0 0 std::__ndk1::__variant_detail::__visitation::__base::__dispatcher<(unsigned long)1>::__dispatch[abi:ne180000]<std::__ndk1::__variant_detail::__dtor<std::__ndk1::__variant_detail::__traits<geode::Hook*, std::__ndk1::basic_string<char, std::__ndk1::char_traits<char>, std::__ndk1::allocator<char> > >, (std::__ndk1::__variant_detail::_Trait)1>::__destroy[abi:ne180000]()::{lambda(auto:1&)#1}, std::__ndk1::__variant_detail::__base<(std::__ndk1::__variant_detail::__traits<geode::Hook*, std::__ndk1::basic_string<char, std::__ndk1::char_traits<char>, std::__ndk1::allocator<char> > >)1, geode::Hook, std::__ndk1::allocator<char> >&>(std::__ndk1::__variant_detail::__dtor<std::__ndk1::__variant_detail::__traits<geode::Hook*, std::__ndk1::basic_string<char, std::__ndk1::char_traits<char>, std::__ndk1::allocator<char> > >, (std::__ndk1::__variant_detail::_Trait)1>, std::__ndk1::__variant_detail::__base<(std::__ndk1::__variant_detail::__traits<geode::Hook*, std::__ndk1::basic_string<char, std::__ndk1::char_traits<char>, std::__ndk1::allocator<char> > >)1, geode::Hook, std::__ndk1::allocator<char> >&)
PUBLIC 56b4 0 std::__ndk1::__tree<std::__ndk1::__value_type<std::__ndk1::basic_string<char, std::__ndk1::char_traits<char>, std::__ndk1::allocator<char> >, std::__ndk1::shared_ptr<geode::Hook> >, std::__ndk1::__map_value_compare<std::__ndk1::basic_string<char, std::__ndk1::char_traits<char>, std::__ndk1::allocator<char> >, std::__ndk1::__value_type<std::__ndk1::basic_string<char, std::__ndk1::char_traits<char>, std::__ndk1::allocator<char> >, std::__ndk1::shared_ptr<geode::Hook> >, std::__ndk1::less<std::__ndk1::basic_string<char, std::__ndk1::char_traits<char>, std::__ndk1::allocator<char> > >, true>, std::__ndk1::allocator<std::__ndk1::__value_type<std::__ndk1::basic_string<char, std::__ndk1::char_traits<char>, std::__ndk1::allocator<char> >, std::__ndk1::shared_ptr<geode::Hook> > > >::destroy(std::__ndk1::__tree_node<std::__ndk1::__value_type<std::__ndk1::basic_string<char, std::__ndk1::char_traits<char>, std::__ndk1::allocator<char> >, std::__ndk1::shared_ptr<geode::Hook> >, void*>*)
PUBLIC 5738 0 geode::modifier::AsStaticFunction_updateStroke<TFHardStreak, void (TFHardStreak::*)(float)>::Impl<void (TFHardStreak::*)(float)>::function(TFHardStreak*, float)
PUBLIC 5c84 0 std::__ndk1::shared_ptr<tulip::hook::CallingConvention>::~shared_ptr[abi:ne180000]()
PUBLIC 5cd4 0 tulip::hook::HandlerMetadata::~HandlerMetadata()
PUBLIC m 5d38 0 geodeImplicitEntry
PUBLIC 5d80 0 <.plt ELF section in sabe.trailfix.android64.so>
STACK CFI INIT 2dc0 10 .cfa: sp 0 +
STACK CFI INIT 2dd0 8 .cfa: sp 0 +
STACK CFI INIT 2dd8 8 .cfa: sp 0 +
STACK CFI INIT 2de0 14 .cfa: sp 0 +
STACK CFI INIT 2df4 1c .cfa: sp 0 +
STACK CFI INIT 2e10 10 .cfa: sp 0 +
STACK CFI INIT 2e20 30 .cfa: sp 0 +
STACK CFI INIT 2e50 98 .cfa: sp 0 +
STACK CFI INIT 2ee8 59c .cfa: sp 0 +
STACK CFI INIT 3484 8c .cfa: sp 0 +
STACK CFI INIT 3510 30 .cfa: sp 0 +
STACK CFI INIT 42bc 18 .cfa: sp 0 +
STACK CFI INIT 4758 50 .cfa: sp 0 +
STACK CFI 475c .cfa: sp 32 +
STACK CFI 4764 .cfa: x29 32 + x19: .cfa -16 + ^ .ra: .cfa -24 + ^ x29: .cfa -32 + ^
STACK CFI 477c .cfa: sp 32 +
STACK CFI 4784 .cfa: sp 0 +
STACK CFI 4788 .cfa: x29 32 +
STACK CFI 479c .cfa: sp 32 +
STACK CFI 47a4 .cfa: sp 0 +
STACK CFI INIT 481c 7c .cfa: sp 0 +
STACK CFI 4820 .cfa: sp 48 +
STACK CFI 482c .cfa: x29 48 + x19: .cfa -8 + ^ x20: .cfa -16 + ^ x21: .cfa -32 + ^ .ra: .cfa -40 + ^ x29: .cfa -48 + ^
STACK CFI 4878 .cfa: sp 48 +
STACK CFI 4884 .cfa: sp 0 +
STACK CFI 4888 .cfa: sp 48 +
STACK CFI 4894 .cfa: sp 0 +
STACK CFI INIT 4898 4 .cfa: sp 0 +
STACK CFI INIT 489c 10 .cfa: sp 0 +
STACK CFI 48a0 .cfa: sp 16 +
STACK CFI 48a4 .cfa: x29 16 + .ra: .cfa -8 + ^ x29: .cfa -16 + ^
STACK CFI INIT 48ac 14 .cfa: sp 0 +
STACK CFI 48b0 .cfa: sp 16 +
STACK CFI 48b4 .cfa: x29 16 + .ra: .cfa -8 + ^ x29: .cfa -16 + ^
STACK CFI INIT 4910 30 .cfa: sp 0 +
STACK CFI 4914 .cfa: sp 32 +
STACK CFI 491c .cfa: x29 32 + x19: .cfa -16 + ^ .ra: .cfa -24 + ^ x29: .cfa -32 + ^
STACK CFI 4934 .cfa: sp 32 +
STACK CFI 493c .cfa: sp 0 +
STACK CFI INIT 4940 34 .cfa: sp 0 +
STACK CFI 4944 .cfa: sp 32 +
STACK CFI 494c .cfa: x29 32 + x19: .cfa -16 + ^ .ra: .cfa -24 + ^ x29: .cfa -32 + ^
STACK CFI INIT 4974 124 .cfa: sp 0 +
STACK CFI 4978 .cfa: sp 64 +
STACK CFI 4988 .cfa: x29 64 + x19: .cfa -8 + ^ x20: .cfa -16 + ^ x21: .cfa -24 + ^ x22: .cfa -32 + ^ x23: .cfa -40 + ^ x24: .cfa -48 + ^ .ra: .cfa -56 + ^ x29: .cfa -64 + ^
STACK CFI 4a84 .cfa: sp 64 +
STACK CFI 4a94 .cfa: sp 0 +
STACK CFI INIT 4a98 7c .cfa: sp 0 +
STACK CFI 4a9c .cfa: sp 32 +
STACK CFI 4aa4 .cfa: x29 32 + x19: .cfa -8 + ^ x20: .cfa -16 + ^ .ra: .cfa -24 + ^ x29: .cfa -32 + ^
STACK CFI 4afc .cfa: sp 32 +
STACK CFI 4b04 .cfa: sp 0 +
STACK CFI 4b08 .cfa: sp 32 +
STACK CFI 4b10 .cfa: sp 0 +
STACK CFI INIT 4b14 7c .cfa: sp 0 +
STACK CFI 4b18 .cfa: sp 48 +
STACK CFI 4b24 .cfa: x29 48 + x19: .cfa -8 + ^ x20: .cfa -16 + ^ x21: .cfa -24 + ^ x22: .cfa -32 + ^ .ra: .cfa -40 + ^ x29: .cfa -48 + ^
STACK CFI 4b3c .cfa: sp 48 +
STACK CFI 4b48 .cfa: sp 0 +
STACK CFI 4b4c .cfa: x29 48 +
STACK CFI 4b7c .cfa: sp 48 +
STACK CFI 4b88 .cfa: sp 0 +
STACK CFI 4b8c .cfa: x29 48 +
STACK CFI INIT 4b90 1b0 .cfa: sp 0 +
STACK CFI INIT 4e94 34 .cfa: sp 0 +
STACK CFI 4e98 .cfa: sp 16 +
STACK CFI 4e9c .cfa: x29 16 + .ra: .cfa -8 + ^ x29: .cfa -16 + ^
STACK CFI INIT 4ff4 80 .cfa: sp 0 +
STACK CFI 4ff8 .cfa: sp 48 +
STACK CFI 5004 .cfa: x29 48 + x19: .cfa -8 + ^ x20: .cfa -16 + ^ x21: .cfa -32 + ^ .ra: .cfa -40 + ^ x29: .cfa -48 + ^
STACK CFI 5064 .cfa: sp 48 +
STACK CFI 5070 .cfa: sp 0 +
STACK CFI INIT 5074 24 .cfa: sp 0 +
STACK CFI 5078 .cfa: sp 32 +
STACK CFI 5080 .cfa: x29 32 + x19: .cfa -16 + ^ .ra: .cfa -24 + ^ x29: .cfa -32 + ^
STACK CFI 508c .cfa: sp 32 +
STACK CFI 5094 .cfa: sp 0 +
STACK CFI INIT 5608 4 .cfa: sp 0 +
STACK CFI INIT 560c 14 .cfa: sp 0 +
STACK CFI INIT 5620 68 .cfa: sp 0 +
STACK CFI 5624 .cfa: sp 32 +
STACK CFI 562c .cfa: x29 32 + x19: .cfa -8 + ^ x20: .cfa -16 + ^ .ra: .cfa -24 + ^ x29: .cfa -32 + ^
STACK CFI 5644 .cfa: sp 32 +
STACK CFI 564c .cfa: sp 0 +
STACK CFI 5650 .cfa: x29 32 +
STACK CFI 567c .cfa: sp 32 +
STACK CFI 5684 .cfa: sp 0 +
STACK CFI INIT 5688 14 .cfa: sp 0 +
STACK CFI 568c .cfa: sp 16 +
STACK CFI 5690 .cfa: x29 16 + .ra: .cfa -8 + ^ x29: .cfa -16 + ^
STACK CFI INIT 569c 4 .cfa: sp 0 +
STACK CFI INIT 56a0 14 .cfa: sp 0 +
STACK CFI INIT 56b4 84 .cfa: sp 0 +
STACK CFI 56bc .cfa: sp 32 +
STACK CFI 56c4 .cfa: x29 32 + x19: .cfa -8 + ^ x20: .cfa -16 + ^ .ra: .cfa -24 + ^ x29: .cfa -32 + ^
STACK CFI 5704 .cfa: sp 32 +
STACK CFI 570c .cfa: sp 0 +
STACK CFI 5714 .cfa: x29 32 +
STACK CFI INIT 5738 54c .cfa: sp 0 +
STACK CFI 573c .cfa: sp 288 +
STACK CFI 5768 .cfa: x29 96 + x19: .cfa -8 + ^ x20: .cfa -16 + ^ x21: .cfa -24 + ^ x22: .cfa -32 + ^ x23: .cfa -40 + ^ x24: .cfa -48 + ^ x25: .cfa -56 + ^ x26: .cfa -64 + ^ x27: .cfa -72 + ^ x28: .cfa -80 + ^ .ra: .cfa -88 + ^ x29: .cfa -96 + ^ v8: .cfa -104 + ^ v9: .cfa -112 + ^ v10: .cfa -120 + ^ v11: .cfa -128 + ^ v12: .cfa -136 + ^ v13: .cfa -144 + ^ v14: .cfa -152 + ^ v15: .cfa -160 + ^
STACK CFI 5c50 .cfa: sp 288 +
STACK CFI 5c7c .cfa: sp 0 +
STACK CFI 5c80 .cfa: x29 96 +
STACK CFI INIT 5c84 50 .cfa: sp 0 +
STACK CFI 5c88 .cfa: sp 32 +
STACK CFI 5c90 .cfa: x29 32 + x19: .cfa -16 + ^ .ra: .cfa -24 + ^ x29: .cfa -32 + ^
STACK CFI 5ca8 .cfa: sp 32 +
STACK CFI 5cb0 .cfa: sp 0 +
STACK CFI 5cb4 .cfa: x29 32 +
STACK CFI 5cc8 .cfa: sp 32 +
STACK CFI 5cd0 .cfa: sp 0 +
STACK CFI INIT 5cd4 64 .cfa: sp 0 +
STACK CFI 5cd8 .cfa: sp 32 +
STACK CFI 5ce0 .cfa: x29 32 + x19: .cfa -16 + ^ .ra: .cfa -24 + ^ x29: .cfa -32 + ^
STACK CFI 5d0c .cfa: sp 32 +
STACK CFI 5d14 .cfa: sp 0 +
STACK CFI 5d18 .cfa: x29 32 +
STACK CFI 5d2c .cfa: sp 32 +
STACK CFI 5d34 .cfa: sp 0 +
STACK CFI INIT 5d38 3c .cfa: sp 0 +
STACK CFI 5d3c .cfa: sp 32 +
STACK CFI 5d44 .cfa: x29 32 + x19: .cfa -16 + ^ .ra: .cfa -24 + ^ x29: .cfa -32 + ^
STACK CFI 5d50 .cfa: sp 32 +
STACK CFI 5d58 .cfa: sp 0 +
STACK CFI 5d5c .cfa: x29 32 +
STACK CFI 5d68 .cfa: sp 32 +
STACK CFI 5d70 .cfa: sp 0 +
STACK CFI INIT 3540 d7c .cfa: sp 0 +
STACK CFI 3544 .cfa: sp 240 +
STACK CFI 3560 .cfa: x29 96 + x19: .cfa -8 + ^ x20: .cfa -16 + ^ x21: .cfa -24 + ^ x22: .cfa -32 + ^ x23: .cfa -40 + ^ x24: .cfa -48 + ^ x25: .cfa -56 + ^ x26: .cfa -64 + ^ x27: .cfa -72 + ^ x28: .cfa -80 + ^ .ra: .cfa -88 + ^ x29: .cfa -96 + ^
STACK CFI 36b4 .cfa: sp 240 +
STACK CFI 36d0 .cfa: sp 0 +
STACK CFI 36d4 .cfa: x29 96 +
STACK CFI 411c .cfa: sp 240 +
STACK CFI 4138 .cfa: sp 0 +
STACK CFI 413c .cfa: x29 96 +
STACK CFI INIT 42d4 484 .cfa: sp 0 +
STACK CFI 42d8 .cfa: sp 256 +
STACK CFI 42f4 .cfa: x29 96 + x19: .cfa -8 + ^ x20: .cfa -16 + ^ x21: .cfa -24 + ^ x22: .cfa -32 + ^ x23: .cfa -40 + ^ x24: .cfa -48 + ^ x25: .cfa -56 + ^ x26: .cfa -64 + ^ x27: .cfa -72 + ^ x28: .cfa -80 + ^ .ra: .cfa -88 + ^ x29: .cfa -96 + ^
STACK CFI 4618 .cfa: sp 256 +
STACK CFI 4634 .cfa: sp 0 +
STACK CFI 4638 .cfa: x29 96 +
STACK CFI INIT 47a8 74 .cfa: sp 0 +
STACK CFI 47ac .cfa: sp 48 +
STACK CFI 47b8 .cfa: x29 32 + x19: .cfa -8 + ^ x20: .cfa -16 + ^ .ra: .cfa -24 + ^ x29: .cfa -32 + ^
STACK CFI 4804 .cfa: sp 48 +
STACK CFI 4810 .cfa: sp 0 +
STACK CFI 4814 .cfa: x29 32 +
STACK CFI INIT 48c0 50 .cfa: sp 0 +
STACK CFI 48c4 .cfa: sp 32 +
STACK CFI 48cc .cfa: x29 32 + x19: .cfa -8 + ^ x20: .cfa -16 + ^ .ra: .cfa -24 + ^ x29: .cfa -32 + ^
STACK CFI INIT 4d40 154 .cfa: sp 0 +
STACK CFI 4d44 .cfa: sp 384 +
STACK CFI 4d58 .cfa: x29 64 + x19: .cfa -8 + ^ x20: .cfa -16 + ^ x21: .cfa -24 + ^ x22: .cfa -32 + ^ x23: .cfa -40 + ^ x28: .cfa -48 + ^ .ra: .cfa -56 + ^ x29: .cfa -64 + ^
STACK CFI 4e3c .cfa: sp 384 +
STACK CFI 4e50 .cfa: sp 0 +
STACK CFI 4e54 .cfa: x29 64 +
STACK CFI INIT 4ec8 12c .cfa: sp 0 +
STACK CFI 4ecc .cfa: sp 80 +
STACK CFI 4ee0 .cfa: x29 80 + x19: .cfa -8 + ^ x20: .cfa -16 + ^ x21: .cfa -24 + ^ x22: .cfa -32 + ^ x23: .cfa -40 + ^ x24: .cfa -48 + ^ x25: .cfa -56 + ^ x26: .cfa -64 + ^ .ra: .cfa -72 + ^ x29: .cfa -80 + ^
STACK CFI 4fa8 .cfa: sp 80 +
STACK CFI 4fbc .cfa: sp 0 +
STACK CFI 4fc0 .cfa: x29 80 +
STACK CFI INIT 5098 2d8 .cfa: sp 0 +
STACK CFI 509c .cfa: sp 144 +
STACK CFI 50b8 .cfa: x29 96 + x19: .cfa -8 + ^ x20: .cfa -16 + ^ x21: .cfa -24 + ^ x22: .cfa -32 + ^ x23: .cfa -40 + ^ x24: .cfa -48 + ^ x25: .cfa -56 + ^ x26: .cfa -64 + ^ x27: .cfa -72 + ^ x28: .cfa -80 + ^ .ra: .cfa -88 + ^ x29: .cfa -96 + ^
STACK CFI 52bc .cfa: sp 144 +
STACK CFI 52d8 .cfa: sp 0 +
STACK CFI 52dc .cfa: x29 96 +
STACK CFI INIT 5370 298 .cfa: sp 0 +
STACK CFI 5374 .cfa: sp 80 +
STACK CFI 5388 .cfa: x29 80 + x19: .cfa -8 + ^ x20: .cfa -16 + ^ x21: .cfa -24 + ^ x22: .cfa -32 + ^ x23: .cfa -40 + ^ x24: .cfa -48 + ^ x25: .cfa -64 + ^ .ra: .cfa -72 + ^ x29: .cfa -80 + ^
STACK CFI 55d4 .cfa: sp 80 +
STACK CFI 55e8 .cfa: sp 0 +
STACK CFI 55ec .cfa: x29 80 +
