MODULE Linux arm64 094952FAD5A5C38548EB7A05818738330 mobmastermind.more_vanilla_keybinds.android64.so
INFO CODE_ID FA524909A5D585C348EB7A0581873833CC5A0FC2
INFO GENERATOR mozilla/dump_syms 2.3.4
PUBLIC 79e0 0 __on_dlclose
PUBLIC 79f0 0 __emutls_unregister_key
PUBLIC 79f8 0 __on_dlclose_late
PUBLIC 7a00 0 __atexit_handler_wrapper
PUBLIC 7a14 0 atexit
PUBLIC 7a30 0 pthread_atfork
PUBLIC 7a40 0 __aarch64_ldadd8_relax
PUBLIC 7a70 0 init_have_lse_atomics
PUBLIC 7b08 0 __init_cpu_features_constructor
PUBLIC 80a4 0 __init_cpu_features
PUBLIC 8130 0 __aarch64_ldadd8_acq_rel
PUBLIC 8160 0 __cxx_global_var_init.2
PUBLIC 8d34 0 geode::modifier::ModifyBase<geode::modifier::ModifyDerive<ModifiedMenuLayer, MenuLayer> >::~ModifyBase()
PUBLIC 8d4c 0 _ZNSt6__ndk14pairINS_12basic_stringIcNS_11char_traitsIcEENS_9allocatorIcEEEES6_EC2B8ne180000IRA5_KcRA11_S9_TnNS_9enable_ifIXclsr10_CheckArgsE17__enable_implicitIT_T0_EEEiE4typeELi0EEEOSF_OSG_
PUBLIC 8e84 0 _ZNSt6__ndk14pairINS_12basic_stringIcNS_11char_traitsIcEENS_9allocatorIcEEEES6_EC2B8ne180000IRA5_KcRA17_S9_TnNS_9enable_ifIXclsr10_CheckArgsE17__enable_implicitIT_T0_EEEiE4typeELi0EEEOSF_OSG_
PUBLIC 8fbc 0 _ZNSt6__ndk14pairINS_12basic_stringIcNS_11char_traitsIcEENS_9allocatorIcEEEES6_EC2B8ne180000IRA5_KcRA22_S9_TnNS_9enable_ifIXclsr10_CheckArgsE17__enable_implicitIT_T0_EEEiE4typeELi0EEEOSF_OSG_
PUBLIC 90f4 0 _ZNSt6__ndk14pairINS_12basic_stringIcNS_11char_traitsIcEENS_9allocatorIcEEEES6_EC2B8ne180000IRA5_KcRA20_S9_TnNS_9enable_ifIXclsr10_CheckArgsE17__enable_implicitIT_T0_EEEiE4typeELi0EEEOSF_OSG_
PUBLIC 922c 0 _ZNSt6__ndk14pairINS_12basic_stringIcNS_11char_traitsIcEENS_9allocatorIcEEEES6_EC2B8ne180000IRA5_KcRA19_S9_TnNS_9enable_ifIXclsr10_CheckArgsE17__enable_implicitIT_T0_EEEiE4typeELi0EEEOSF_OSG_
PUBLIC 9364 0 _ZNSt6__ndk14pairINS_12basic_stringIcNS_11char_traitsIcEENS_9allocatorIcEEEES6_EC2B8ne180000IRA5_KcRA13_S9_TnNS_9enable_ifIXclsr10_CheckArgsE17__enable_implicitIT_T0_EEEiE4typeELi0EEEOSF_OSG_
PUBLIC 949c 0 _ZNSt6__ndk14pairINS_12basic_stringIcNS_11char_traitsIcEENS_9allocatorIcEEEES6_EC2B8ne180000IRA5_KcRA25_S9_TnNS_9enable_ifIXclsr10_CheckArgsE17__enable_implicitIT_T0_EEEiE4typeELi0EEEOSF_OSG_
PUBLIC 95d4 0 _ZNSt6__ndk14pairINS_12basic_stringIcNS_11char_traitsIcEENS_9allocatorIcEEEES6_EC2B8ne180000IRA5_KcRA14_S9_TnNS_9enable_ifIXclsr10_CheckArgsE17__enable_implicitIT_T0_EEEiE4typeELi0EEEOSF_OSG_
PUBLIC 970c 0 _ZNSt6__ndk14pairINS_12basic_stringIcNS_11char_traitsIcEENS_9allocatorIcEEEES6_EC2B8ne180000IRA5_KcRA18_S9_TnNS_9enable_ifIXclsr10_CheckArgsE17__enable_implicitIT_T0_EEEiE4typeELi0EEEOSF_OSG_
PUBLIC 9844 0 _ZNSt6__ndk14pairINS_12basic_stringIcNS_11char_traitsIcEENS_9allocatorIcEEEES6_EC2B8ne180000IRA5_KcRA24_S9_TnNS_9enable_ifIXclsr10_CheckArgsE17__enable_implicitIT_T0_EEEiE4typeELi0EEEOSF_OSG_
PUBLIC 997c 0 _ZNSt6__ndk14pairINS_12basic_stringIcNS_11char_traitsIcEENS_9allocatorIcEEEES6_EC2B8ne180000IRA5_KcRA29_S9_TnNS_9enable_ifIXclsr10_CheckArgsE17__enable_implicitIT_T0_EEEiE4typeELi0EEEOSF_OSG_
PUBLIC 9ab4 0 _ZNSt6__ndk14pairINS_12basic_stringIcNS_11char_traitsIcEENS_9allocatorIcEEEES6_EC2B8ne180000IRA5_KcRA23_S9_TnNS_9enable_ifIXclsr10_CheckArgsE17__enable_implicitIT_T0_EEEiE4typeELi0EEEOSF_OSG_
PUBLIC 9bec 0 _ZNSt6__ndk14pairINS_12basic_stringIcNS_11char_traitsIcEENS_9allocatorIcEEEES6_EC2B8ne180000IRA5_KcRA21_S9_TnNS_9enable_ifIXclsr10_CheckArgsE17__enable_implicitIT_T0_EEEiE4typeELi0EEEOSF_OSG_
PUBLIC 9d24 0 _ZNSt6__ndk14pairINS_12basic_stringIcNS_11char_traitsIcEENS_9allocatorIcEEEES6_EC2B8ne180000IRA5_KcRA10_S9_TnNS_9enable_ifIXclsr10_CheckArgsE17__enable_implicitIT_T0_EEEiE4typeELi0EEEOSF_OSG_
PUBLIC 9e5c 0 _ZNSt6__ndk14pairINS_12basic_stringIcNS_11char_traitsIcEENS_9allocatorIcEEEES6_EC2B8ne180000IRA5_KcRA26_S9_TnNS_9enable_ifIXclsr10_CheckArgsE17__enable_implicitIT_T0_EEEiE4typeELi0EEEOSF_OSG_
PUBLIC 9f94 0 std::__ndk1::pair<std::__ndk1::basic_string<char, std::__ndk1::char_traits<char>, std::__ndk1::allocator<char> >, std::__ndk1::basic_string<char, std::__ndk1::char_traits<char>, std::__ndk1::allocator<char> > >::~pair()
PUBLIC m 9fd8 0 keybinds::BindableAction::~BindableAction()
PUBLIC a09c 0 std::__ndk1::vector<geode::Ref<keybinds::Bind>, std::__ndk1::allocator<geode::Ref<keybinds::Bind> > >::~vector[abi:ne180000]()
PUBLIC a120 0 geodeExecFunction25<(anonymous namespace)::ExecFuncUnique25>()::{lambda(keybinds::InvokeBindEvent*)#1}::~{lambda(keybinds::InvokeBindEvent*)#1}()
PUBLIC a164 0 std::__ndk1::vector<std::__ndk1::pair<std::__ndk1::basic_string<char, std::__ndk1::char_traits<char>, std::__ndk1::allocator<char> >, std::__ndk1::basic_string<char, std::__ndk1::char_traits<char>, std::__ndk1::allocator<char> > >, std::__ndk1::allocator<std::__ndk1::pair<std::__ndk1::basic_string<char, std::__ndk1::char_traits<char>, std::__ndk1::allocator<char> >, std::__ndk1::basic_string<char, std::__ndk1::char_traits<char>, std::__ndk1::allocator<char> > > > >::~vector[abi:ne180000]()
PUBLIC a208 0 std::__ndk1::__exception_guard_exceptions<std::__ndk1::vector<std::__ndk1::pair<std::__ndk1::basic_string<char, std::__ndk1::char_traits<char>, std::__ndk1::allocator<char> >, std::__ndk1::basic_string<char, std::__ndk1::char_traits<char>, std::__ndk1::allocator<char> > >, std::__ndk1::allocator<std::__ndk1::pair<std::__ndk1::basic_string<char, std::__ndk1::char_traits<char>, std::__ndk1::allocator<char> >, std::__ndk1::basic_string<char, std::__ndk1::char_traits<char>, std::__ndk1::allocator<char> > > > >::__destroy_vector>::~__exception_guard_exceptions[abi:ne180000]()
PUBLIC a2bc 0 __clang_call_terminate
PUBLIC a2cc 0 std::__ndk1::__throw_length_error[abi:ne180000](char const*)
PUBLIC a31c 0 std::length_error::length_error[abi:ne180000](char const*)
PUBLIC a34c 0 std::__throw_bad_array_new_length([abi:ne180000], void)
PUBLIC a380 0 std::__ndk1::__exception_guard_exceptions<std::__ndk1::_AllocatorDestroyRangeReverse<std::__ndk1::allocator<std::__ndk1::pair<std::__ndk1::basic_string<char, std::__ndk1::char_traits<char>, std::__ndk1::allocator<char> >, std::__ndk1::basic_string<char, std::__ndk1::char_traits<char>, std::__ndk1::allocator<char> > > >, std::__ndk1::pair<std::__ndk1::basic_string<char, std::__ndk1::char_traits<char>, std::__ndk1::allocator<char> >, std::__ndk1::basic_string<char, std::__ndk1::char_traits<char>, std::__ndk1::allocator<char> > >*> >::~__exception_guard_exceptions[abi:ne180000]()
PUBLIC a3e4 0 std::__ndk1::basic_string<char, std::__ndk1::char_traits<char>, std::__ndk1::allocator<char> >::__throw_length_error[abi:ne180000]() const
PUBLIC a3f8 0 std::__ndk1::basic_string<char, std::__ndk1::char_traits<char>, std::__ndk1::allocator<char> >::__init_copy_ctor_external(char const*, unsigned long)
PUBLIC a478 0 std::__ndk1::__function::__func<geodeExecFunction25<(anonymous namespace)::ExecFuncUnique25>()::{lambda(keybinds::InvokeBindEvent*)#1}, std::__ndk1::allocator<geodeExecFunction25<(anonymous namespace)::ExecFuncUnique25>()::{lambda(keybinds::InvokeBindEvent*)#1}>, geode::ListenerResult(keybinds::InvokeBindEvent*)>::~__func()
PUBLIC a4c8 0 std::__ndk1::__function::__func<geodeExecFunction25<(anonymous namespace)::ExecFuncUnique25>()::{lambda(keybinds::InvokeBindEvent*)#1}, std::__ndk1::allocator<geodeExecFunction25<(anonymous namespace)::ExecFuncUnique25>()::{lambda(keybinds::InvokeBindEvent*)#1}>, geode::ListenerResult(keybinds::InvokeBindEvent*)>::~__func()
PUBLIC a52c 0 std::__ndk1::__function::__func<geodeExecFunction25<(anonymous namespace)::ExecFuncUnique25>()::{lambda(keybinds::InvokeBindEvent*)#1}, std::__ndk1::allocator<geodeExecFunction25<(anonymous namespace)::ExecFuncUnique25>()::{lambda(keybinds::InvokeBindEvent*)#1}>, geode::ListenerResult(keybinds::InvokeBindEvent*)>::__clone() const
PUBLIC a608 0 std::__ndk1::__function::__func<geodeExecFunction25<(anonymous namespace)::ExecFuncUnique25>()::{lambda(keybinds::InvokeBindEvent*)#1}, std::__ndk1::allocator<geodeExecFunction25<(anonymous namespace)::ExecFuncUnique25>()::{lambda(keybinds::InvokeBindEvent*)#1}>, geode::ListenerResult(keybinds::InvokeBindEvent*)>::__clone(std::__ndk1::__function::__base<geode::ListenerResult(keybinds::InvokeBindEvent*)>*) const
PUBLIC a6d8 0 std::__ndk1::__function::__func<geodeExecFunction25<(anonymous namespace)::ExecFuncUnique25>()::{lambda(keybinds::InvokeBindEvent*)#1}, std::__ndk1::allocator<geodeExecFunction25<(anonymous namespace)::ExecFuncUnique25>()::{lambda(keybinds::InvokeBindEvent*)#1}>, geode::ListenerResult(keybinds::InvokeBindEvent*)>::destroy()
PUBLIC a71c 0 std::__ndk1::__function::__func<geodeExecFunction25<(anonymous namespace)::ExecFuncUnique25>()::{lambda(keybinds::InvokeBindEvent*)#1}, std::__ndk1::allocator<geodeExecFunction25<(anonymous namespace)::ExecFuncUnique25>()::{lambda(keybinds::InvokeBindEvent*)#1}>, geode::ListenerResult(keybinds::InvokeBindEvent*)>::destroy_deallocate()
PUBLIC a774 0 std::__ndk1::__function::__func<geodeExecFunction25<(anonymous namespace)::ExecFuncUnique25>()::{lambda(keybinds::InvokeBindEvent*)#1}, std::__ndk1::allocator<geodeExecFunction25<(anonymous namespace)::ExecFuncUnique25>()::{lambda(keybinds::InvokeBindEvent*)#1}>, geode::ListenerResult(keybinds::InvokeBindEvent*)>::operator()(keybinds::InvokeBindEvent*&&)
PUBLIC a82c 0 std::__ndk1::__function::__func<geodeExecFunction25<(anonymous namespace)::ExecFuncUnique25>()::{lambda(keybinds::InvokeBindEvent*)#1}, std::__ndk1::allocator<geodeExecFunction25<(anonymous namespace)::ExecFuncUnique25>()::{lambda(keybinds::InvokeBindEvent*)#1}>, geode::ListenerResult(keybinds::InvokeBindEvent*)>::target(std::type_info const&) const
PUBLIC a848 0 std::__ndk1::__function::__func<geodeExecFunction25<(anonymous namespace)::ExecFuncUnique25>()::{lambda(keybinds::InvokeBindEvent*)#1}, std::__ndk1::allocator<geodeExecFunction25<(anonymous namespace)::ExecFuncUnique25>()::{lambda(keybinds::InvokeBindEvent*)#1}>, geode::ListenerResult(keybinds::InvokeBindEvent*)>::target_type() const
PUBLIC a854 0 geode::EventListener<keybinds::InvokeBindFilter>::getPool() const
PUBLIC a858 0 geode::EventListener<keybinds::InvokeBindFilter>::handle(geode::Event*)
PUBLIC a9b4 0 geode::EventListener<keybinds::InvokeBindFilter>::~EventListener()
PUBLIC aa20 0 geode::EventListener<keybinds::InvokeBindFilter>::~EventListener()
PUBLIC aa94 0 geode::cast::traverseTypeinfoFor(void*, geode::cast::ClassTypeinfoType const*, char const*)
PUBLIC ab90 0 geode::modifier::ModifyDerive<ModifiedMenuLayer, MenuLayer>::apply()
PUBLIC b140 0 std::__ndk1::shared_ptr<geode::Hook>::~shared_ptr[abi:ne180000]()
PUBLIC b190 0 geode::impl::ResultData<geode::Hook*, std::__ndk1::basic_string<char, std::__ndk1::char_traits<char>, std::__ndk1::allocator<char> > >::~ResultData()
PUBLIC b204 0 std::__ndk1::vector<std::__ndk1::basic_string<char, std::__ndk1::char_traits<char>, std::__ndk1::allocator<char> >, std::__ndk1::allocator<std::__ndk1::basic_string<char, std::__ndk1::char_traits<char>, std::__ndk1::allocator<char> > > >::~vector[abi:ne180000]()
PUBLIC b280 0 geode::modifier::ModifyBase<geode::modifier::ModifyDerive<ModifiedMenuLayer, MenuLayer> >::apply()
PUBLIC b284 0 _ZN5geode15UnwrapExceptionC2IRPNS_4HookEQsr4implE18IsStringStreamableIT_EEENS_4impl5OkTagEOS5_
PUBLIC b980 0 std::__ndk1::__throw_bad_variant_access[abi:ne180000]()
PUBLIC m b9b4 0 std::__ndk1::basic_stringstream<char, std::__ndk1::char_traits<char>, std::__ndk1::allocator<char> >::~basic_stringstream()
PUBLIC ba34 0 geode::UnwrapException::~UnwrapException()
PUBLIC ba58 0 std::__ndk1::__split_buffer<std::__ndk1::basic_string<char, std::__ndk1::char_traits<char>, std::__ndk1::allocator<char> >, std::__ndk1::allocator<std::__ndk1::basic_string<char, std::__ndk1::char_traits<char>, std::__ndk1::allocator<char> > >&>::~__split_buffer()
PUBLIC bac0 0 std::__ndk1::vector<std::__ndk1::basic_string<char, std::__ndk1::char_traits<char>, std::__ndk1::allocator<char> >, std::__ndk1::allocator<std::__ndk1::basic_string<char, std::__ndk1::char_traits<char>, std::__ndk1::allocator<char> > > >::__throw_length_error[abi:ne180000]() const
PUBLIC bad4 0 std::__ndk1::__variant_detail::__visitation::__base::__dispatcher<(unsigned long)0>::__dispatch[abi:ne180000]<std::__ndk1::__variant_detail::__dtor<std::__ndk1::__variant_detail::__traits<geode::Hook*, std::__ndk1::basic_string<char, std::__ndk1::char_traits<char>, std::__ndk1::allocator<char> > >, (std::__ndk1::__variant_detail::_Trait)1>::__destroy[abi:ne180000]()::{lambda(auto:1&)#1}, std::__ndk1::__variant_detail::__base<(std::__ndk1::__variant_detail::__traits<geode::Hook*, std::__ndk1::basic_string<char, std::__ndk1::char_traits<char>, std::__ndk1::allocator<char> > >)1, geode::Hook, std::__ndk1::allocator<char> >&>(std::__ndk1::__variant_detail::__dtor<std::__ndk1::__variant_detail::__traits<geode::Hook*, std::__ndk1::basic_string<char, std::__ndk1::char_traits<char>, std::__ndk1::allocator<char> > >, (std::__ndk1::__variant_detail::_Trait)1>, std::__ndk1::__variant_detail::__base<(std::__ndk1::__variant_detail::__traits<geode::Hook*, std::__ndk1::basic_string<char, std::__ndk1::char_traits<char>, std::__ndk1::allocator<char> > >)1, geode::Hook, std::__ndk1::allocator<char> >&)
PUBLIC bad8 0 std::__ndk1::__variant_detail::__visitation::__base::__dispatcher<(unsigned long)1>::__dispatch[abi:ne180000]<std::__ndk1::__variant_detail::__dtor<std::__ndk1::__variant_detail::__traits<geode::Hook*, std::__ndk1::basic_string<char, std::__ndk1::char_traits<char>, std::__ndk1::allocator<char> > >, (std::__ndk1::__variant_detail::_Trait)1>::__destroy[abi:ne180000]()::{lambda(auto:1&)#1}, std::__ndk1::__variant_detail::__base<(std::__ndk1::__variant_detail::__traits<geode::Hook*, std::__ndk1::basic_string<char, std::__ndk1::char_traits<char>, std::__ndk1::allocator<char> > >)1, geode::Hook, std::__ndk1::allocator<char> >&>(std::__ndk1::__variant_detail::__dtor<std::__ndk1::__variant_detail::__traits<geode::Hook*, std::__ndk1::basic_string<char, std::__ndk1::char_traits<char>, std::__ndk1::allocator<char> > >, (std::__ndk1::__variant_detail::_Trait)1>, std::__ndk1::__variant_detail::__base<(std::__ndk1::__variant_detail::__traits<geode::Hook*, std::__ndk1::basic_string<char, std::__ndk1::char_traits<char>, std::__ndk1::allocator<char> > >)1, geode::Hook, std::__ndk1::allocator<char> >&)
PUBLIC baec 0 std::__ndk1::__tree<std::__ndk1::__value_type<std::__ndk1::basic_string<char, std::__ndk1::char_traits<char>, std::__ndk1::allocator<char> >, std::__ndk1::shared_ptr<geode::Hook> >, std::__ndk1::__map_value_compare<std::__ndk1::basic_string<char, std::__ndk1::char_traits<char>, std::__ndk1::allocator<char> >, std::__ndk1::__value_type<std::__ndk1::basic_string<char, std::__ndk1::char_traits<char>, std::__ndk1::allocator<char> >, std::__ndk1::shared_ptr<geode::Hook> >, std::__ndk1::less<std::__ndk1::basic_string<char, std::__ndk1::char_traits<char>, std::__ndk1::allocator<char> > >, true>, std::__ndk1::allocator<std::__ndk1::__value_type<std::__ndk1::basic_string<char, std::__ndk1::char_traits<char>, std::__ndk1::allocator<char> >, std::__ndk1::shared_ptr<geode::Hook> > > >::destroy(std::__ndk1::__tree_node<std::__ndk1::__value_type<std::__ndk1::basic_string<char, std::__ndk1::char_traits<char>, std::__ndk1::allocator<char> >, std::__ndk1::shared_ptr<geode::Hook> >, void*>*)
PUBLIC bb70 0 geode::modifier::AsStaticFunction_init<ModifiedMenuLayer, bool (ModifiedMenuLayer::*)()>::Impl<bool (ModifiedMenuLayer::*)()>::function(ModifiedMenuLayer*)
PUBLIC bb90 0 geode::addresser::Addresser::addressOfVirtual<bool, MenuLayer, >(bool (MenuLayer::*)())
PUBLIC bc38 0 MenuLayer::MenuLayer(geode::ZeroConstructorType)
PUBLIC bcd4 0 std::__ndk1::shared_ptr<tulip::hook::CallingConvention>::~shared_ptr[abi:ne180000]()
PUBLIC bd24 0 tulip::hook::HandlerMetadata::~HandlerMetadata()
PUBLIC bd88 0 _GLOBAL__sub_I_main.cpp
PUBLIC m d5ec 0 geodeImplicitEntry
PUBLIC d628 0 __udivti3
PUBLIC d634 0 __udivmodti4
PUBLIC m d880 0 __eqtf2
PUBLIC d920 0 __unordtf2
PUBLIC d958 0 fmt::v11::detail::write_loc(fmt::v11::basic_appender<char>, fmt::v11::loc_value, fmt::v11::format_specs const&, fmt::v11::detail::locale_ref)
PUBLIC dbec 0 fmt::v11::format_facet<std::__ndk1::locale>::~format_facet()
PUBLIC dc68 0 fmt::v11::report_error(char const*)
PUBLIC dcb8 0 fmt::v11::format_error::runtime_error(char const*)
PUBLIC dce4 0 fmt::v11::format_facet<std::__ndk1::locale>::do_put(fmt::v11::basic_appender<char>, fmt::v11::loc_value, fmt::v11::format_specs const&) const
PUBLIC e4a4 0 fmt::v11::detail::loc_writer<char>::~loc_writer()
PUBLIC e508 0 fmt::v11::detail::vformat_to<char>(fmt::v11::detail::buffer<char>&, fmt::v11::basic_string_view<char>, fmt::v11::detail::vformat_args<char>::type, fmt::v11::detail::locale_ref)
PUBLIC ea78 0 fmt::v11::detail::is_printable(unsigned int)
PUBLIC eca0 0 fmt::v11::detail::dragonbox::to_decimal<float>(float)
PUBLIC ef7c 0 fmt::v11::detail::dragonbox::to_decimal<double>(double)
PUBLIC f4b8 0 fmt::v11::basic_memory_buffer<char, (unsigned long)500, std::__ndk1::allocator<char> >::grow(fmt::v11::detail::buffer<char>&, unsigned long)
PUBLIC f530 0 fmt::v11::format_facet<std::__ndk1::locale>::~format_facet()
PUBLIC f5bc 0 fmt::v11::format_error::~format_error()
PUBLIC f5e0 0 fmt::v11::detail::copy_noinline<char, char const*, fmt::v11::basic_appender<char> >(char const*, char const*, fmt::v11::basic_appender<char>)
PUBLIC f730 0 fmt::v11::detail::default_arg_formatter<char>::operator()<bool>(bool)
PUBLIC f798 0 fmt::v11::detail::default_arg_formatter<char>::operator()<char>(char)
PUBLIC f828 0 fmt::v11::detail::default_arg_formatter<char>::operator()<float>(float)
PUBLIC f914 0 fmt::v11::detail::default_arg_formatter<char>::operator()<double>(double)
PUBLIC fa00 0 fmt::v11::detail::default_arg_formatter<char>::operator()<char const*>(char const*)
PUBLIC fa48 0 fmt::v11::detail::default_arg_formatter<char>::operator()<void const*>(void const*)
PUBLIC fae0 0 _ZN3fmt3v116detail5writeIcNS0_14basic_appenderIcEEiTnNSt6__ndk19enable_ifIXaaaasr11is_integralIT1_EE5valuentsr3std7is_sameIS7_bEE5valuentsr3std7is_sameIS7_T_EE5valueEiE4typeELi0EEET0_SB_S7_
PUBLIC fd40 0 fmt::v11::detail::copy_noinline<char, char*, fmt::v11::basic_appender<char> >(char*, char*, fmt::v11::basic_appender<char>)
PUBLIC fe90 0 _ZN3fmt3v116detail5writeIcNS0_14basic_appenderIcEEjTnNSt6__ndk19enable_ifIXaaaasr11is_integralIT1_EE5valuentsr3std7is_sameIS7_bEE5valuentsr3std7is_sameIS7_T_EE5valueEiE4typeELi0EEET0_SB_S7_
PUBLIC 10070 0 _ZN3fmt3v116detail5writeIcNS0_14basic_appenderIcEExTnNSt6__ndk19enable_ifIXaaaasr11is_integralIT1_EE5valuentsr3std7is_sameIS7_bEE5valuentsr3std7is_sameIS7_T_EE5valueEiE4typeELi0EEET0_SB_S7_
PUBLIC 102f4 0 _ZN3fmt3v116detail5writeIcNS0_14basic_appenderIcEEyTnNSt6__ndk19enable_ifIXaaaasr11is_integralIT1_EE5valuentsr3std7is_sameIS7_bEE5valuentsr3std7is_sameIS7_T_EE5valueEiE4typeELi0EEET0_SB_S7_
PUBLIC 104fc 0 _ZN3fmt3v116detail5writeIcNS0_14basic_appenderIcEEnTnNSt6__ndk19enable_ifIXaaaasr11is_integralIT1_EE5valuentsr3std7is_sameIS7_bEE5valuentsr3std7is_sameIS7_T_EE5valueEiE4typeELi0EEET0_SB_S7_
PUBLIC 1085c 0 _ZN3fmt3v116detail5writeIcNS0_14basic_appenderIcEEoTnNSt6__ndk19enable_ifIXaaaasr11is_integralIT1_EE5valuentsr3std7is_sameIS7_bEE5valuentsr3std7is_sameIS7_T_EE5valueEiE4typeELi0EEET0_SB_S7_
PUBLIC 10b70 0 _ZN3fmt3v116detail5writeIcNS0_14basic_appenderIcEEbTnNSt6__ndk19enable_ifIXsr3std7is_sameIT1_bEE5valueEiE4typeELi0EEET0_SA_S7_RKNS0_12format_specsENS1_10locale_refE
PUBLIC 10e00 0 fmt::v11::detail::write_int_noinline<char, fmt::v11::basic_appender<char>, unsigned int>(fmt::v11::basic_appender<char>, fmt::v11::detail::write_int_arg<unsigned int>, fmt::v11::format_specs const&, fmt::v11::detail::locale_ref)
PUBLIC 11bdc 0 fmt::v11::detail::fill<char, fmt::v11::basic_appender<char> >(fmt::v11::basic_appender<char>, unsigned long, fmt::v11::detail::fill_t const&)
PUBLIC 11dac 0 fmt::v11::detail::write_padded<char, (fmt::v11::align::type)1, fmt::v11::basic_appender<char>, fmt::v11::detail::write_char<char, fmt::v11::basic_appender<char> >(fmt::v11::basic_appender<char>, char, fmt::v11::format_specs const&)::{lambda(fmt::v11::basic_appender<char>&)#1}>(fmt::v11::basic_appender<char>, fmt::v11::format_specs const&, unsigned long, unsigned long, fmt::v11::detail::write_char<char, fmt::v11::basic_appender<char> >(fmt::v11::basic_appender<char>, char, fmt::v11::format_specs const&)::{lambda(fmt::v11::basic_appender<char>&)#1})
PUBLIC 11fe8 0 fmt::v11::detail::write_escaped_cp<fmt::v11::basic_appender<char>, char>(fmt::v11::basic_appender<char>, fmt::v11::detail::find_escape_result<char> const&)
PUBLIC 122f4 0 fmt::v11::detail::write_codepoint<(unsigned long)2, char, fmt::v11::basic_appender<char> >(fmt::v11::basic_appender<char>, char, unsigned int)
PUBLIC 1246c 0 fmt::v11::detail::write_codepoint<(unsigned long)8, char, fmt::v11::basic_appender<char> >(fmt::v11::basic_appender<char>, char, unsigned int)
PUBLIC 125e4 0 fmt::v11::detail::write_padded<char, (fmt::v11::align::type)1, fmt::v11::basic_appender<char>, fmt::v11::detail::write_nonfinite<char, fmt::v11::basic_appender<char> >(fmt::v11::basic_appender<char>, bool, fmt::v11::format_specs, fmt::v11::sign::type)::{lambda(fmt::v11::basic_appender<char>&)#1}>(fmt::v11::basic_appender<char>, fmt::v11::format_specs const&, unsigned long, unsigned long, fmt::v11::detail::write_nonfinite<char, fmt::v11::basic_appender<char> >(fmt::v11::basic_appender<char>, bool, fmt::v11::format_specs, fmt::v11::sign::type)::{lambda(fmt::v11::basic_appender<char>&)#1})
PUBLIC 12824 0 fmt::v11::detail::do_write_float<char, fmt::v11::basic_appender<char>, fmt::v11::detail::dragonbox::decimal_fp<float>, fmt::v11::detail::digit_grouping<char> >(fmt::v11::basic_appender<char>, fmt::v11::detail::dragonbox::decimal_fp<float> const&, fmt::v11::format_specs const&, fmt::v11::detail::float_specs, fmt::v11::detail::locale_ref)
PUBLIC 13498 0 fmt::v11::detail::do_write_float<char, fmt::v11::basic_appender<char>, fmt::v11::detail::dragonbox::decimal_fp<float>, fmt::v11::detail::digit_grouping<char> >(fmt::v11::basic_appender<char>, fmt::v11::detail::dragonbox::decimal_fp<float> const&, fmt::v11::format_specs const&, fmt::v11::detail::float_specs, fmt::v11::detail::locale_ref)::{lambda(fmt::v11::basic_appender<char>(fmt::v11::basic_appender<char>))#1}::operator() const
PUBLIC 135ec 0 fmt::v11::detail::digit_grouping<char>::digit_grouping(fmt::v11::detail::locale_ref, bool)
PUBLIC 13858 0 fmt::v11::detail::digit_grouping<char>::~digit_grouping()
PUBLIC 1389c 0 fmt::v11::detail::write_exponent<char, fmt::v11::basic_appender<char> >(int, fmt::v11::basic_appender<char>)
PUBLIC 13a6c 0 _ZN3fmt3v116detail17write_significandIcjTnNSt6__ndk19enable_ifIXsr3std11is_integralIT0_EE5valueEiE4typeELi0EEEPT_S9_S5_iiS8_
PUBLIC 13be8 0 std::__ndk1::basic_string<char, std::__ndk1::char_traits<char>, std::__ndk1::allocator<char> >::__assign_no_alias<true>(char const*, unsigned long)
PUBLIC 13c94 0 std::__ndk1::basic_string<char, std::__ndk1::char_traits<char>, std::__ndk1::allocator<char> >::__assign_no_alias<false>(char const*, unsigned long)
PUBLIC 13da4 0 fmt::v11::detail::digit_grouping<char>::apply<fmt::v11::basic_appender<char>, char>(fmt::v11::basic_appender<char>, fmt::v11::basic_string_view<char>) const
PUBLIC 1415c 0 fmt::v11::basic_memory_buffer<int, (unsigned long)500, std::__ndk1::allocator<int> >::grow(fmt::v11::detail::buffer<int>&, unsigned long)
PUBLIC 141fc 0 fmt::v11::detail::do_write_float<char, fmt::v11::basic_appender<char>, fmt::v11::detail::dragonbox::decimal_fp<double>, fmt::v11::detail::digit_grouping<char> >(fmt::v11::basic_appender<char>, fmt::v11::detail::dragonbox::decimal_fp<double> const&, fmt::v11::format_specs const&, fmt::v11::detail::float_specs, fmt::v11::detail::locale_ref)
PUBLIC 14eb0 0 fmt::v11::detail::do_write_float<char, fmt::v11::basic_appender<char>, fmt::v11::detail::dragonbox::decimal_fp<double>, fmt::v11::detail::digit_grouping<char> >(fmt::v11::basic_appender<char>, fmt::v11::detail::dragonbox::decimal_fp<double> const&, fmt::v11::format_specs const&, fmt::v11::detail::float_specs, fmt::v11::detail::locale_ref)::{lambda(fmt::v11::basic_appender<char>(fmt::v11::basic_appender<char>))#1}::operator() const
PUBLIC 15008 0 _ZN3fmt3v116detail17write_significandIcmTnNSt6__ndk19enable_ifIXsr3std11is_integralIT0_EE5valueEiE4typeELi0EEEPT_S9_S5_iiS8_
PUBLIC 15198 0 fmt::v11::detail::write_float<char, fmt::v11::basic_appender<char>, long double>(fmt::v11::basic_appender<char>, long double, fmt::v11::format_specs, fmt::v11::detail::locale_ref)
PUBLIC 15c94 0 fmt::v11::detail::write_padded<char, (fmt::v11::align::type)2, fmt::v11::basic_appender<char>, fmt::v11::detail::write_bytes<char, (fmt::v11::align::type)2, fmt::v11::basic_appender<char> >(fmt::v11::basic_appender<char>, fmt::v11::basic_string_view<char>, fmt::v11::format_specs const&)::{lambda(fmt::v11::basic_appender<char>&)#1}>(fmt::v11::basic_appender<char>, fmt::v11::format_specs const&, unsigned long, unsigned long, fmt::v11::detail::write_bytes<char, (fmt::v11::align::type)2, fmt::v11::basic_appender<char> >(fmt::v11::basic_appender<char>, fmt::v11::basic_string_view<char>, fmt::v11::format_specs const&)::{lambda(fmt::v11::basic_appender<char>&)#1})
PUBLIC 15e70 0 fmt::v11::detail::format_dragon(fmt::v11::detail::basic_fp<unsigned __int128>, unsigned int, int, fmt::v11::detail::buffer<char>&, int&)
PUBLIC 172a0 0 fmt::v11::detail::bigint::operator<<=(int)
PUBLIC 173c4 0 fmt::v11::detail::bigint::assign_pow10(int)
PUBLIC 17b20 0 fmt::v11::detail::bigint::divmod_assign(fmt::v11::detail::bigint const&)
PUBLIC 17e40 0 fmt::v11::basic_memory_buffer<unsigned int, (unsigned long)32, std::__ndk1::allocator<unsigned int> >::grow(fmt::v11::detail::buffer<unsigned int>&, unsigned long)
PUBLIC 17ee0 0 fmt::v11::detail::do_write_float<char, fmt::v11::basic_appender<char>, fmt::v11::detail::big_decimal_fp, fmt::v11::detail::digit_grouping<char> >(fmt::v11::basic_appender<char>, fmt::v11::detail::big_decimal_fp const&, fmt::v11::format_specs const&, fmt::v11::detail::float_specs, fmt::v11::detail::locale_ref)
PUBLIC 18d90 0 fmt::v11::detail::do_write_float<char, fmt::v11::basic_appender<char>, fmt::v11::detail::big_decimal_fp, fmt::v11::detail::digit_grouping<char> >(fmt::v11::basic_appender<char>, fmt::v11::detail::big_decimal_fp const&, fmt::v11::format_specs const&, fmt::v11::detail::float_specs, fmt::v11::detail::locale_ref)::{lambda(fmt::v11::basic_appender<char>(fmt::v11::basic_appender<char>))#1}::operator() const
PUBLIC 18ef0 0 fmt::v11::detail::write_padded<char, (fmt::v11::align::type)2, fmt::v11::basic_appender<char>, fmt::v11::detail::write_ptr<char, fmt::v11::basic_appender<char>, unsigned long>(fmt::v11::basic_appender<char>, unsigned long, fmt::v11::format_specs const*)::{lambda(fmt::v11::basic_appender<char>&)#1}>(fmt::v11::basic_appender<char>, fmt::v11::format_specs const&, unsigned long, unsigned long, fmt::v11::detail::write_ptr<char, fmt::v11::basic_appender<char>, unsigned long>(fmt::v11::basic_appender<char>, unsigned long, fmt::v11::format_specs const*)::{lambda(fmt::v11::basic_appender<char>&)#1})
PUBLIC 19104 0 fmt::v11::detail::parse_replacement_field<char, fmt::v11::detail::vformat_to<char>(fmt::v11::detail::buffer<char>&, fmt::v11::basic_string_view<char>, fmt::v11::detail::vformat_args<char>::type, fmt::v11::detail::locale_ref)::format_handler&>(char const*, char const*, fmt::v11::detail::vformat_to<char>(fmt::v11::detail::buffer<char>&, fmt::v11::basic_string_view<char>, fmt::v11::detail::vformat_args<char>::type, fmt::v11::detail::locale_ref)::format_handler&)
PUBLIC 1ada0 0 fmt::v11::detail::parse_dynamic_spec<char>(char const*, char const*, int&, fmt::v11::detail::arg_ref<char>&, fmt::v11::basic_format_parse_context<char>&)
PUBLIC 1b030 0 fmt::v11::basic_format_args<fmt::v11::context>::get<char>(fmt::v11::basic_string_view<char>) const
PUBLIC 1b188 0 fmt::v11::detail::write_int_noinline<char, fmt::v11::basic_appender<char>, unsigned long>(fmt::v11::basic_appender<char>, fmt::v11::detail::write_int_arg<unsigned long>, fmt::v11::format_specs const&, fmt::v11::detail::locale_ref)
PUBLIC 1bfdc 0 fmt::v11::detail::write_int_noinline<char, fmt::v11::basic_appender<char>, unsigned __int128>(fmt::v11::basic_appender<char>, fmt::v11::detail::write_int_arg<unsigned __int128>, fmt::v11::format_specs const&, fmt::v11::detail::locale_ref)
PUBLIC 1d044 0 _ZN3fmt3v116detail15format_hexfloatIdTnNSt6__ndk19enable_ifIXntsr16is_double_doubleIT_EE5valueEiE4typeELi0EEEvS5_NS0_12format_specsERNS1_6bufferIcEE
PUBLIC 1d564 0 fmt::v11::detail::format_float<double>(double, int, fmt::v11::detail::float_specs, fmt::v11::detail::buffer<char>&)
PUBLIC 1df04 0 fmt::v11::detail::write<char, fmt::v11::basic_appender<char> >(fmt::v11::basic_appender<char>, fmt::v11::basic_string_view<char>, fmt::v11::format_specs const&)
PUBLIC 1f270 0 fmt::v11::detail::for_each_codepoint<fmt::v11::detail::compute_width(fmt::v11::basic_string_view<char>)::count_code_points>(fmt::v11::basic_string_view<char>, fmt::v11::detail::compute_width(fmt::v11::basic_string_view<char>)::count_code_points)::{lambda(char const*, char const*)#1}::operator()(char const*, char const*) const
PUBLIC 1f428 0 fmt::v11::detail::write_int<fmt::v11::basic_appender<char>, unsigned long, char>(fmt::v11::basic_appender<char>, unsigned long, unsigned int, fmt::v11::format_specs const&, fmt::v11::detail::digit_grouping<char> const&)
PUBLIC 1f9a4 0 fmt::v11::detail::write_int<fmt::v11::basic_appender<char>, unsigned __int128, char>(fmt::v11::basic_appender<char>, unsigned __int128, unsigned int, fmt::v11::format_specs const&, fmt::v11::detail::digit_grouping<char> const&)
PUBLIC 20020 0 <.plt ELF section in mobmastermind.more_vanilla_keybinds.android64.so>
STACK CFI INIT 79e0 10 .cfa: sp 0 +
STACK CFI INIT 79f0 8 .cfa: sp 0 +
STACK CFI INIT 79f8 8 .cfa: sp 0 +
STACK CFI INIT 7a00 14 .cfa: sp 0 +
STACK CFI INIT 7a14 1c .cfa: sp 0 +
STACK CFI INIT 7a30 10 .cfa: sp 0 +
STACK CFI INIT 7a40 30 .cfa: sp 0 +
STACK CFI INIT 7a70 98 .cfa: sp 0 +
STACK CFI INIT 7b08 59c .cfa: sp 0 +
STACK CFI INIT 80a4 8c .cfa: sp 0 +
STACK CFI INIT 8130 30 .cfa: sp 0 +
STACK CFI INIT 8d34 18 .cfa: sp 0 +
STACK CFI INIT 9f94 44 .cfa: sp 0 +
STACK CFI 9f98 .cfa: sp 32 +
STACK CFI 9fa0 .cfa: x29 32 + x19: .cfa -16 + ^ .ra: .cfa -24 + ^ x29: .cfa -32 + ^
STACK CFI 9fbc .cfa: sp 32 +
STACK CFI 9fc4 .cfa: sp 0 +
STACK CFI 9fc8 .cfa: x29 32 +
STACK CFI 9fcc .cfa: sp 32 +
STACK CFI 9fd4 .cfa: sp 0 +
STACK CFI INIT a120 44 .cfa: sp 0 +
STACK CFI a124 .cfa: sp 32 +
STACK CFI a12c .cfa: x29 32 + x19: .cfa -16 + ^ .ra: .cfa -24 + ^ x29: .cfa -32 + ^
STACK CFI a148 .cfa: sp 32 +
STACK CFI a150 .cfa: sp 0 +
STACK CFI a154 .cfa: x29 32 +
STACK CFI a158 .cfa: sp 32 +
STACK CFI a160 .cfa: sp 0 +
STACK CFI INIT a164 a4 .cfa: sp 0 +
STACK CFI a168 .cfa: sp 48 +
STACK CFI a174 .cfa: x29 48 + x19: .cfa -8 + ^ x20: .cfa -16 + ^ x21: .cfa -32 + ^ .ra: .cfa -40 + ^ x29: .cfa -48 + ^
STACK CFI a194 .cfa: sp 48 +
STACK CFI a1a0 .cfa: sp 0 +
STACK CFI a1a4 .cfa: x29 48 +
STACK CFI a1e8 .cfa: sp 48 +
STACK CFI a1f4 .cfa: sp 0 +
STACK CFI a1f8 .cfa: sp 48 +
STACK CFI a204 .cfa: sp 0 +
STACK CFI INIT a208 b4 .cfa: sp 0 +
STACK CFI a20c .cfa: sp 48 +
STACK CFI a218 .cfa: x29 48 + x19: .cfa -8 + ^ x20: .cfa -16 + ^ x21: .cfa -24 + ^ x22: .cfa -32 + ^ .ra: .cfa -40 + ^ x29: .cfa -48 + ^
STACK CFI a220 .cfa: sp 48 +
STACK CFI a22c .cfa: sp 0 +
STACK CFI a230 .cfa: x29 48 +
STACK CFI a254 .cfa: sp 48 +
STACK CFI a260 .cfa: sp 0 +
STACK CFI a264 .cfa: x29 48 +
STACK CFI a2ac .cfa: sp 48 +
STACK CFI a2b8 .cfa: sp 0 +
STACK CFI INIT a2bc 10 .cfa: sp 0 +
STACK CFI a2c0 .cfa: sp 16 +
STACK CFI a2c4 .cfa: x29 16 + .ra: .cfa -8 + ^ x29: .cfa -16 + ^
STACK CFI INIT a31c 30 .cfa: sp 0 +
STACK CFI a320 .cfa: sp 32 +
STACK CFI a328 .cfa: x29 32 + x19: .cfa -16 + ^ .ra: .cfa -24 + ^ x29: .cfa -32 + ^
STACK CFI a340 .cfa: sp 32 +
STACK CFI a348 .cfa: sp 0 +
STACK CFI INIT a34c 34 .cfa: sp 0 +
STACK CFI a350 .cfa: sp 32 +
STACK CFI a358 .cfa: x29 32 + x19: .cfa -16 + ^ .ra: .cfa -24 + ^ x29: .cfa -32 + ^
STACK CFI INIT a380 64 .cfa: sp 0 +
STACK CFI a390 .cfa: sp 32 +
STACK CFI a398 .cfa: x29 32 + x19: .cfa -8 + ^ x20: .cfa -16 + ^ .ra: .cfa -24 + ^ x29: .cfa -32 + ^
STACK CFI a3d8 .cfa: sp 32 +
STACK CFI a3e0 .cfa: sp 0 +
STACK CFI INIT a3e4 14 .cfa: sp 0 +
STACK CFI a3e8 .cfa: sp 16 +
STACK CFI a3ec .cfa: x29 16 + .ra: .cfa -8 + ^ x29: .cfa -16 + ^
STACK CFI INIT a3f8 80 .cfa: sp 0 +
STACK CFI a3fc .cfa: sp 48 +
STACK CFI a408 .cfa: x29 48 + x19: .cfa -8 + ^ x20: .cfa -16 + ^ x21: .cfa -24 + ^ x22: .cfa -32 + ^ .ra: .cfa -40 + ^ x29: .cfa -48 + ^
STACK CFI a420 .cfa: sp 48 +
STACK CFI a42c .cfa: sp 0 +
STACK CFI a430 .cfa: x29 48 +
STACK CFI a460 .cfa: sp 48 +
STACK CFI a46c .cfa: sp 0 +
STACK CFI a470 .cfa: x29 48 +
STACK CFI INIT a478 50 .cfa: sp 0 +
STACK CFI a47c .cfa: sp 32 +
STACK CFI a484 .cfa: x29 32 + x19: .cfa -16 + ^ .ra: .cfa -24 + ^ x29: .cfa -32 + ^
STACK CFI a4ac .cfa: sp 32 +
STACK CFI a4b4 .cfa: sp 0 +
STACK CFI a4b8 .cfa: x29 32 +
STACK CFI a4bc .cfa: sp 32 +
STACK CFI a4c4 .cfa: sp 0 +
STACK CFI INIT a4c8 64 .cfa: sp 0 +
STACK CFI a4cc .cfa: sp 32 +
STACK CFI a4d4 .cfa: x29 32 + x19: .cfa -16 + ^ .ra: .cfa -24 + ^ x29: .cfa -32 + ^
STACK CFI a4f8 .cfa: sp 32 +
STACK CFI a500 .cfa: sp 0 +
STACK CFI a504 .cfa: x29 32 +
STACK CFI a520 .cfa: sp 32 +
STACK CFI a528 .cfa: sp 0 +
STACK CFI INIT a6d8 44 .cfa: sp 0 +
STACK CFI a6dc .cfa: sp 32 +
STACK CFI a6e4 .cfa: x29 32 + x19: .cfa -16 + ^ .ra: .cfa -24 + ^ x29: .cfa -32 + ^
STACK CFI a700 .cfa: sp 32 +
STACK CFI a708 .cfa: sp 0 +
STACK CFI a70c .cfa: x29 32 +
STACK CFI a710 .cfa: sp 32 +
STACK CFI a718 .cfa: sp 0 +
STACK CFI INIT a71c 58 .cfa: sp 0 +
STACK CFI a720 .cfa: sp 32 +
STACK CFI a728 .cfa: x29 32 + x19: .cfa -16 + ^ .ra: .cfa -24 + ^ x29: .cfa -32 + ^
STACK CFI a740 .cfa: sp 32 +
STACK CFI a748 .cfa: sp 0 +
STACK CFI a74c .cfa: x29 32 +
STACK CFI a768 .cfa: sp 32 +
STACK CFI a770 .cfa: sp 0 +
STACK CFI INIT a774 b8 .cfa: sp 0 +
STACK CFI a778 .cfa: sp 64 +
STACK CFI a788 .cfa: x29 64 + x19: .cfa -8 + ^ x20: .cfa -16 + ^ x21: .cfa -24 + ^ x22: .cfa -32 + ^ x23: .cfa -48 + ^ .ra: .cfa -56 + ^ x29: .cfa -64 + ^
STACK CFI a7b8 .cfa: sp 64 +
STACK CFI a7c8 .cfa: sp 0 +
STACK CFI a7cc .cfa: x29 64 +
STACK CFI a818 .cfa: sp 64 +
STACK CFI a828 .cfa: sp 0 +
STACK CFI INIT a82c 1c .cfa: sp 0 +
STACK CFI INIT a848 c .cfa: sp 0 +
STACK CFI INIT a854 4 .cfa: sp 0 +
STACK CFI INIT a9b4 6c .cfa: sp 0 +
STACK CFI a9b8 .cfa: sp 32 +
STACK CFI a9c0 .cfa: x29 32 + x19: .cfa -16 + ^ .ra: .cfa -24 + ^ x29: .cfa -32 + ^
STACK CFI aa14 .cfa: sp 32 +
STACK CFI aa1c .cfa: sp 0 +
STACK CFI INIT aa20 74 .cfa: sp 0 +
STACK CFI aa24 .cfa: sp 32 +
STACK CFI aa2c .cfa: x29 32 + x19: .cfa -16 + ^ .ra: .cfa -24 + ^ x29: .cfa -32 + ^
STACK CFI aa88 .cfa: sp 32 +
STACK CFI aa90 .cfa: sp 0 +
STACK CFI INIT aa94 fc .cfa: sp 0 +
STACK CFI aa98 .cfa: sp 64 +
STACK CFI aaa8 .cfa: x29 64 + x19: .cfa -8 + ^ x20: .cfa -16 + ^ x21: .cfa -24 + ^ x22: .cfa -32 + ^ x23: .cfa -48 + ^ .ra: .cfa -56 + ^ x29: .cfa -64 + ^
STACK CFI ab0c .cfa: sp 64 +
STACK CFI ab1c .cfa: sp 0 +
STACK CFI ab20 .cfa: x29 64 +
STACK CFI ab3c .cfa: sp 64 +
STACK CFI ab4c .cfa: sp 0 +
STACK CFI ab50 .cfa: x29 64 +
STACK CFI ab7c .cfa: sp 64 +
STACK CFI ab8c .cfa: sp 0 +
STACK CFI INIT b140 50 .cfa: sp 0 +
STACK CFI b144 .cfa: sp 32 +
STACK CFI b14c .cfa: x29 32 + x19: .cfa -16 + ^ .ra: .cfa -24 + ^ x29: .cfa -32 + ^
STACK CFI b164 .cfa: sp 32 +
STACK CFI b16c .cfa: sp 0 +
STACK CFI b170 .cfa: x29 32 +
STACK CFI b184 .cfa: sp 32 +
STACK CFI b18c .cfa: sp 0 +
STACK CFI INIT b204 7c .cfa: sp 0 +
STACK CFI b208 .cfa: sp 48 +
STACK CFI b214 .cfa: x29 48 + x19: .cfa -8 + ^ x20: .cfa -16 + ^ x21: .cfa -32 + ^ .ra: .cfa -40 + ^ x29: .cfa -48 + ^
STACK CFI b260 .cfa: sp 48 +
STACK CFI b26c .cfa: sp 0 +
STACK CFI b270 .cfa: sp 48 +
STACK CFI b27c .cfa: sp 0 +
STACK CFI INIT b280 4 .cfa: sp 0 +
STACK CFI INIT b980 34 .cfa: sp 0 +
STACK CFI b984 .cfa: sp 16 +
STACK CFI b988 .cfa: x29 16 + .ra: .cfa -8 + ^ x29: .cfa -16 + ^
STACK CFI INIT b9b4 80 .cfa: sp 0 +
STACK CFI b9b8 .cfa: sp 48 +
STACK CFI b9c4 .cfa: x29 48 + x19: .cfa -8 + ^ x20: .cfa -16 + ^ x21: .cfa -32 + ^ .ra: .cfa -40 + ^ x29: .cfa -48 + ^
STACK CFI ba24 .cfa: sp 48 +
STACK CFI ba30 .cfa: sp 0 +
STACK CFI INIT ba34 24 .cfa: sp 0 +
STACK CFI ba38 .cfa: sp 32 +
STACK CFI ba40 .cfa: x29 32 + x19: .cfa -16 + ^ .ra: .cfa -24 + ^ x29: .cfa -32 + ^
STACK CFI ba4c .cfa: sp 32 +
STACK CFI ba54 .cfa: sp 0 +
STACK CFI INIT ba58 68 .cfa: sp 0 +
STACK CFI ba5c .cfa: sp 32 +
STACK CFI ba64 .cfa: x29 32 + x19: .cfa -8 + ^ x20: .cfa -16 + ^ .ra: .cfa -24 + ^ x29: .cfa -32 + ^
STACK CFI ba7c .cfa: sp 32 +
STACK CFI ba84 .cfa: sp 0 +
STACK CFI ba88 .cfa: x29 32 +
STACK CFI bab4 .cfa: sp 32 +
STACK CFI babc .cfa: sp 0 +
STACK CFI INIT bac0 14 .cfa: sp 0 +
STACK CFI bac4 .cfa: sp 16 +
STACK CFI bac8 .cfa: x29 16 + .ra: .cfa -8 + ^ x29: .cfa -16 + ^
STACK CFI INIT bad4 4 .cfa: sp 0 +
STACK CFI INIT bad8 14 .cfa: sp 0 +
STACK CFI INIT baec 84 .cfa: sp 0 +
STACK CFI baf4 .cfa: sp 32 +
STACK CFI bafc .cfa: x29 32 + x19: .cfa -8 + ^ x20: .cfa -16 + ^ .ra: .cfa -24 + ^ x29: .cfa -32 + ^
STACK CFI bb3c .cfa: sp 32 +
STACK CFI bb44 .cfa: sp 0 +
STACK CFI bb4c .cfa: x29 32 +
STACK CFI INIT bb70 20 .cfa: sp 0 +
STACK CFI INIT bc38 9c .cfa: sp 0 +
STACK CFI INIT bcd4 50 .cfa: sp 0 +
STACK CFI bcd8 .cfa: sp 32 +
STACK CFI bce0 .cfa: x29 32 + x19: .cfa -16 + ^ .ra: .cfa -24 + ^ x29: .cfa -32 + ^
STACK CFI bcf8 .cfa: sp 32 +
STACK CFI bd00 .cfa: sp 0 +
STACK CFI bd04 .cfa: x29 32 +
STACK CFI bd18 .cfa: sp 32 +
STACK CFI bd20 .cfa: sp 0 +
STACK CFI INIT bd24 64 .cfa: sp 0 +
STACK CFI bd28 .cfa: sp 32 +
STACK CFI bd30 .cfa: x29 32 + x19: .cfa -16 + ^ .ra: .cfa -24 + ^ x29: .cfa -32 + ^
STACK CFI bd5c .cfa: sp 32 +
STACK CFI bd64 .cfa: sp 0 +
STACK CFI bd68 .cfa: x29 32 +
STACK CFI bd7c .cfa: sp 32 +
STACK CFI bd84 .cfa: sp 0 +
STACK CFI INIT d5ec 3c .cfa: sp 0 +
STACK CFI d5f0 .cfa: sp 32 +
STACK CFI d5f8 .cfa: x29 32 + x19: .cfa -16 + ^ .ra: .cfa -24 + ^ x29: .cfa -32 + ^
STACK CFI d604 .cfa: sp 32 +
STACK CFI d60c .cfa: sp 0 +
STACK CFI d610 .cfa: x29 32 +
STACK CFI d61c .cfa: sp 32 +
STACK CFI d624 .cfa: sp 0 +
STACK CFI INIT d628 c .cfa: sp 0 +
STACK CFI INIT d634 24c .cfa: sp 0 +
STACK CFI INIT d880 a0 .cfa: sp 0 +
STACK CFI d88c .cfa: sp 32 +
STACK CFI d8e4 .cfa: sp 0 +
STACK CFI d8e8 .cfa: sp 32 +
STACK CFI d8f0 .cfa: sp 0 +
STACK CFI d8f4 .cfa: sp 32 +
STACK CFI d908 .cfa: sp 0 +
STACK CFI d90c .cfa: sp 32 +
STACK CFI d91c .cfa: sp 0 +
STACK CFI INIT d920 38 .cfa: sp 0 +
STACK CFI d92c .cfa: sp 32 +
STACK CFI d954 .cfa: sp 0 +
STACK CFI INIT dbec 7c .cfa: sp 0 +
STACK CFI dbf0 .cfa: sp 32 +
STACK CFI dbf8 .cfa: x29 32 + x19: .cfa -16 + ^ .ra: .cfa -24 + ^ x29: .cfa -32 + ^
STACK CFI dc24 .cfa: sp 32 +
STACK CFI dc2c .cfa: sp 0 +
STACK CFI dc30 .cfa: x29 32 +
STACK CFI dc5c .cfa: sp 32 +
STACK CFI dc64 .cfa: sp 0 +
STACK CFI INIT dcb8 2c .cfa: sp 0 +
STACK CFI dcbc .cfa: sp 32 +
STACK CFI dcc4 .cfa: x29 32 + x19: .cfa -16 + ^ .ra: .cfa -24 + ^ x29: .cfa -32 + ^
STACK CFI dcd8 .cfa: sp 32 +
STACK CFI dce0 .cfa: sp 0 +
STACK CFI INIT e4a4 64 .cfa: sp 0 +
STACK CFI e4a8 .cfa: sp 32 +
STACK CFI e4b0 .cfa: x29 32 + x19: .cfa -16 + ^ .ra: .cfa -24 + ^ x29: .cfa -32 + ^
STACK CFI e4cc .cfa: sp 32 +
STACK CFI e4d4 .cfa: sp 0 +
STACK CFI e4d8 .cfa: x29 32 +
STACK CFI e4fc .cfa: sp 32 +
STACK CFI e504 .cfa: sp 0 +
STACK CFI INIT e508 570 .cfa: sp 0 +
STACK CFI e50c .cfa: sp 176 +
STACK CFI e520 .cfa: x29 64 + x19: .cfa -8 + ^ x20: .cfa -16 + ^ x21: .cfa -24 + ^ x22: .cfa -32 + ^ x23: .cfa -40 + ^ x24: .cfa -48 + ^ .ra: .cfa -56 + ^ x29: .cfa -64 + ^
STACK CFI e750 .cfa: sp 176 +
STACK CFI e764 .cfa: sp 0 +
STACK CFI e768 .cfa: x29 64 +
STACK CFI e7b4 .cfa: sp 176 +
STACK CFI e7c8 .cfa: sp 0 +
STACK CFI e7cc .cfa: x29 64 +
STACK CFI e804 .cfa: sp 176 +
STACK CFI e818 .cfa: sp 0 +
STACK CFI e81c .cfa: x29 64 +
STACK CFI e834 .cfa: sp 176 +
STACK CFI e848 .cfa: sp 0 +
STACK CFI e84c .cfa: x29 64 +
STACK CFI e86c .cfa: sp 176 +
STACK CFI e880 .cfa: sp 0 +
STACK CFI e884 .cfa: x29 64 +
STACK CFI e89c .cfa: sp 176 +
STACK CFI e8b0 .cfa: sp 0 +
STACK CFI e8b4 .cfa: x29 64 +
STACK CFI e8c8 .cfa: sp 176 +
STACK CFI e8dc .cfa: sp 0 +
STACK CFI e8e0 .cfa: x29 64 +
STACK CFI e8f4 .cfa: sp 176 +
STACK CFI e908 .cfa: sp 0 +
STACK CFI e90c .cfa: x29 64 +
STACK CFI e91c .cfa: sp 176 +
STACK CFI e930 .cfa: sp 0 +
STACK CFI e934 .cfa: x29 64 +
STACK CFI e944 .cfa: sp 176 +
STACK CFI e958 .cfa: sp 0 +
STACK CFI e95c .cfa: x29 64 +
STACK CFI e974 .cfa: sp 176 +
STACK CFI e988 .cfa: sp 0 +
STACK CFI e98c .cfa: x29 64 +
STACK CFI e9a0 .cfa: sp 176 +
STACK CFI e9b4 .cfa: sp 0 +
STACK CFI e9b8 .cfa: x29 64 +
STACK CFI e9d0 .cfa: sp 176 +
STACK CFI e9e4 .cfa: sp 0 +
STACK CFI e9e8 .cfa: x29 64 +
STACK CFI ea14 .cfa: sp 176 +
STACK CFI ea28 .cfa: sp 0 +
STACK CFI ea2c .cfa: x29 64 +
STACK CFI ea40 .cfa: sp 176 +
STACK CFI ea54 .cfa: sp 0 +
STACK CFI ea58 .cfa: x29 64 +
STACK CFI INIT ea78 228 .cfa: sp 0 +
STACK CFI INIT eca0 2dc .cfa: sp 0 +
STACK CFI INIT ef7c 53c .cfa: sp 0 +
STACK CFI INIT f4b8 78 .cfa: sp 0 +
STACK CFI f4bc .cfa: sp 48 +
STACK CFI f4c8 .cfa: x29 48 + x19: .cfa -8 + ^ x20: .cfa -16 + ^ x21: .cfa -24 + ^ x22: .cfa -32 + ^ .ra: .cfa -40 + ^ x29: .cfa -48 + ^
STACK CFI f510 .cfa: sp 48 +
STACK CFI f51c .cfa: sp 0 +
STACK CFI f520 .cfa: sp 48 +
STACK CFI f52c .cfa: sp 0 +
STACK CFI INIT f530 8c .cfa: sp 0 +
STACK CFI f534 .cfa: sp 32 +
STACK CFI f53c .cfa: x29 32 + x19: .cfa -16 + ^ .ra: .cfa -24 + ^ x29: .cfa -32 + ^
STACK CFI f570 .cfa: sp 32 +
STACK CFI f578 .cfa: sp 0 +
STACK CFI f57c .cfa: x29 32 +
STACK CFI f5b0 .cfa: sp 32 +
STACK CFI f5b8 .cfa: sp 0 +
STACK CFI INIT f5bc 24 .cfa: sp 0 +
STACK CFI f5c0 .cfa: sp 32 +
STACK CFI f5c8 .cfa: x29 32 + x19: .cfa -16 + ^ .ra: .cfa -24 + ^ x29: .cfa -32 + ^
STACK CFI f5d4 .cfa: sp 32 +
STACK CFI f5dc .cfa: sp 0 +
STACK CFI INIT f5e0 150 .cfa: sp 0 +
STACK CFI f5e4 .cfa: sp 48 +
STACK CFI f5f0 .cfa: x29 48 + x19: .cfa -8 + ^ x20: .cfa -16 + ^ x21: .cfa -24 + ^ x22: .cfa -32 + ^ .ra: .cfa -40 + ^ x29: .cfa -48 + ^
STACK CFI f720 .cfa: sp 48 +
STACK CFI f72c .cfa: sp 0 +
STACK CFI INIT f730 68 .cfa: sp 0 +
STACK CFI f734 .cfa: sp 64 +
STACK CFI f740 .cfa: x29 32 + x19: .cfa -16 + ^ .ra: .cfa -24 + ^ x29: .cfa -32 + ^
STACK CFI f784 .cfa: sp 64 +
STACK CFI f790 .cfa: sp 0 +
STACK CFI f794 .cfa: x29 32 +
STACK CFI INIT f798 90 .cfa: sp 0 +
STACK CFI f79c .cfa: sp 32 +
STACK CFI f7a4 .cfa: x29 32 + x19: .cfa -8 + ^ x20: .cfa -16 + ^ .ra: .cfa -24 + ^ x29: .cfa -32 + ^
STACK CFI f7d0 .cfa: sp 32 +
STACK CFI f7d8 .cfa: sp 0 +
STACK CFI f7dc .cfa: x29 32 +
STACK CFI f81c .cfa: sp 32 +
STACK CFI f824 .cfa: sp 0 +
STACK CFI INIT f828 ec .cfa: sp 0 +
STACK CFI f82c .cfa: sp 112 +
STACK CFI f83c .cfa: x29 48 + x19: .cfa -8 + ^ x20: .cfa -16 + ^ x21: .cfa -32 + ^ .ra: .cfa -40 + ^ x29: .cfa -48 + ^
STACK CFI f8fc .cfa: sp 112 +
STACK CFI f90c .cfa: sp 0 +
STACK CFI f910 .cfa: x29 48 +
STACK CFI INIT f914 ec .cfa: sp 0 +
STACK CFI f918 .cfa: sp 112 +
STACK CFI f928 .cfa: x29 48 + x19: .cfa -8 + ^ x20: .cfa -16 + ^ x21: .cfa -32 + ^ .ra: .cfa -40 + ^ x29: .cfa -48 + ^
STACK CFI f9e8 .cfa: sp 112 +
STACK CFI f9f8 .cfa: sp 0 +
STACK CFI f9fc .cfa: x29 48 +
STACK CFI INIT fa00 48 .cfa: sp 0 +
STACK CFI fa04 .cfa: sp 32 +
STACK CFI fa0c .cfa: x29 32 + x19: .cfa -8 + ^ x20: .cfa -16 + ^ .ra: .cfa -24 + ^ x29: .cfa -32 + ^
STACK CFI fa30 .cfa: sp 32 +
STACK CFI fa38 .cfa: sp 0 +
STACK CFI fa3c .cfa: x29 32 +
STACK CFI INIT fa48 98 .cfa: sp 0 +
STACK CFI fa4c .cfa: sp 80 +
STACK CFI fa58 .cfa: x29 32 + x19: .cfa -16 + ^ .ra: .cfa -24 + ^ x29: .cfa -32 + ^
STACK CFI facc .cfa: sp 80 +
STACK CFI fad8 .cfa: sp 0 +
STACK CFI fadc .cfa: x29 32 +
STACK CFI INIT fae0 260 .cfa: sp 0 +
STACK CFI fae4 .cfa: sp 112 +
STACK CFI fafc .cfa: x29 80 + x19: .cfa -8 + ^ x20: .cfa -16 + ^ x21: .cfa -24 + ^ x22: .cfa -32 + ^ x23: .cfa -40 + ^ x24: .cfa -48 + ^ x25: .cfa -64 + ^ .ra: .cfa -72 + ^ x29: .cfa -80 + ^
STACK CFI fce0 .cfa: sp 112 +
STACK CFI fcf8 .cfa: sp 0 +
STACK CFI fcfc .cfa: x29 80 +
STACK CFI INIT fd40 150 .cfa: sp 0 +
STACK CFI fd44 .cfa: sp 48 +
STACK CFI fd50 .cfa: x29 48 + x19: .cfa -8 + ^ x20: .cfa -16 + ^ x21: .cfa -24 + ^ x22: .cfa -32 + ^ .ra: .cfa -40 + ^ x29: .cfa -48 + ^
STACK CFI fe80 .cfa: sp 48 +
STACK CFI fe8c .cfa: sp 0 +
STACK CFI INIT fe90 1e0 .cfa: sp 0 +
STACK CFI fe94 .cfa: sp 96 +
STACK CFI fea8 .cfa: x29 64 + x19: .cfa -8 + ^ x20: .cfa -16 + ^ x21: .cfa -24 + ^ x22: .cfa -32 + ^ x23: .cfa -40 + ^ x24: .cfa -48 + ^ .ra: .cfa -56 + ^ x29: .cfa -64 + ^
STACK CFI 10028 .cfa: sp 96 +
STACK CFI 1003c .cfa: sp 0 +
STACK CFI 10040 .cfa: x29 64 +
STACK CFI INIT 10070 284 .cfa: sp 0 +
STACK CFI 10074 .cfa: sp 112 +
STACK CFI 1008c .cfa: x29 80 + x19: .cfa -8 + ^ x20: .cfa -16 + ^ x21: .cfa -24 + ^ x22: .cfa -32 + ^ x23: .cfa -40 + ^ x24: .cfa -48 + ^ x25: .cfa -64 + ^ .ra: .cfa -72 + ^ x29: .cfa -80 + ^
STACK CFI 10294 .cfa: sp 112 +
STACK CFI 102ac .cfa: sp 0 +
STACK CFI 102b0 .cfa: x29 80 +
STACK CFI INIT 102f4 208 .cfa: sp 0 +
STACK CFI 102f8 .cfa: sp 96 +
STACK CFI 1030c .cfa: x29 64 + x19: .cfa -8 + ^ x20: .cfa -16 + ^ x21: .cfa -24 + ^ x22: .cfa -32 + ^ x23: .cfa -40 + ^ x24: .cfa -48 + ^ .ra: .cfa -56 + ^ x29: .cfa -64 + ^
STACK CFI 104b4 .cfa: sp 96 +
STACK CFI 104c8 .cfa: sp 0 +
STACK CFI 104cc .cfa: x29 64 +
STACK CFI INIT 104fc 360 .cfa: sp 0 +
STACK CFI 10500 .cfa: sp 160 +
STACK CFI 1051c .cfa: x29 96 + x19: .cfa -8 + ^ x20: .cfa -16 + ^ x21: .cfa -24 + ^ x22: .cfa -32 + ^ x23: .cfa -40 + ^ x24: .cfa -48 + ^ x25: .cfa -56 + ^ x26: .cfa -64 + ^ x27: .cfa -72 + ^ x28: .cfa -80 + ^ .ra: .cfa -88 + ^ x29: .cfa -96 + ^
STACK CFI 107e8 .cfa: sp 160 +
STACK CFI 10804 .cfa: sp 0 +
STACK CFI 10808 .cfa: x29 96 +
STACK CFI INIT 1085c 314 .cfa: sp 0 +
STACK CFI 10860 .cfa: sp 144 +
STACK CFI 1087c .cfa: x29 96 + x19: .cfa -8 + ^ x20: .cfa -16 + ^ x21: .cfa -24 + ^ x22: .cfa -32 + ^ x23: .cfa -40 + ^ x24: .cfa -48 + ^ x25: .cfa -56 + ^ x26: .cfa -64 + ^ x27: .cfa -72 + ^ x28: .cfa -80 + ^ .ra: .cfa -88 + ^ x29: .cfa -96 + ^
STACK CFI 10af8 .cfa: sp 144 +
STACK CFI 10b14 .cfa: sp 0 +
STACK CFI 10b18 .cfa: x29 96 +
STACK CFI INIT 10b70 290 .cfa: sp 0 +
STACK CFI 10b74 .cfa: sp 128 +
STACK CFI 10b8c .cfa: x29 80 + x19: .cfa -8 + ^ x20: .cfa -16 + ^ x21: .cfa -24 + ^ x22: .cfa -32 + ^ x23: .cfa -40 + ^ x24: .cfa -48 + ^ x25: .cfa -56 + ^ x26: .cfa -64 + ^ .ra: .cfa -72 + ^ x29: .cfa -80 + ^
STACK CFI 10de0 .cfa: sp 128 +
STACK CFI 10df8 .cfa: sp 0 +
STACK CFI 10dfc .cfa: x29 80 +
STACK CFI INIT 10e00 ddc .cfa: sp 0 +
STACK CFI 10e04 .cfa: sp 144 +
STACK CFI 10e20 .cfa: x29 96 + x19: .cfa -8 + ^ x20: .cfa -16 + ^ x21: .cfa -24 + ^ x22: .cfa -32 + ^ x23: .cfa -40 + ^ x24: .cfa -48 + ^ x25: .cfa -56 + ^ x26: .cfa -64 + ^ x27: .cfa -72 + ^ x28: .cfa -80 + ^ .ra: .cfa -88 + ^ x29: .cfa -96 + ^
STACK CFI 11ab4 .cfa: sp 144 +
STACK CFI 11ad0 .cfa: sp 0 +
STACK CFI 11ad4 .cfa: x29 96 +
STACK CFI INIT 11bdc 1d0 .cfa: sp 0 +
STACK CFI 11be0 .cfa: sp 80 +
STACK CFI 11bf4 .cfa: x29 80 + x19: .cfa -8 + ^ x20: .cfa -16 + ^ x21: .cfa -24 + ^ x22: .cfa -32 + ^ x23: .cfa -40 + ^ x24: .cfa -48 + ^ x25: .cfa -64 + ^ .ra: .cfa -72 + ^ x29: .cfa -80 + ^
STACK CFI 11d94 .cfa: sp 80 +
STACK CFI 11da8 .cfa: sp 0 +
STACK CFI INIT 11dac 23c .cfa: sp 0 +
STACK CFI 11db0 .cfa: sp 112 +
STACK CFI 11dc4 .cfa: x29 64 + x19: .cfa -8 + ^ x20: .cfa -16 + ^ x21: .cfa -24 + ^ x22: .cfa -32 + ^ x23: .cfa -40 + ^ x24: .cfa -48 + ^ .ra: .cfa -56 + ^ x29: .cfa -64 + ^
STACK CFI 11fa0 .cfa: sp 112 +
STACK CFI 11fb4 .cfa: sp 0 +
STACK CFI 11fb8 .cfa: x29 64 +
STACK CFI INIT 11fe8 30c .cfa: sp 0 +
STACK CFI 11fec .cfa: sp 80 +
STACK CFI 12000 .cfa: x29 64 + x19: .cfa -8 + ^ x20: .cfa -16 + ^ x21: .cfa -24 + ^ x22: .cfa -32 + ^ x23: .cfa -40 + ^ x24: .cfa -48 + ^ .ra: .cfa -56 + ^ x29: .cfa -64 + ^
STACK CFI 1217c .cfa: sp 80 +
STACK CFI 12190 .cfa: sp 0 +
STACK CFI 12194 .cfa: x29 64 +
STACK CFI INIT 122f4 178 .cfa: sp 0 +
STACK CFI 122f8 .cfa: sp 80 +
STACK CFI 1230c .cfa: x29 64 + x19: .cfa -8 + ^ x20: .cfa -16 + ^ x21: .cfa -24 + ^ x22: .cfa -32 + ^ x23: .cfa -40 + ^ x24: .cfa -48 + ^ .ra: .cfa -56 + ^ x29: .cfa -64 + ^
STACK CFI 12450 .cfa: sp 80 +
STACK CFI 12464 .cfa: sp 0 +
STACK CFI 12468 .cfa: x29 64 +
STACK CFI INIT 1246c 178 .cfa: sp 0 +
STACK CFI 12470 .cfa: sp 80 +
STACK CFI 12484 .cfa: x29 64 + x19: .cfa -8 + ^ x20: .cfa -16 + ^ x21: .cfa -24 + ^ x22: .cfa -32 + ^ x23: .cfa -40 + ^ x24: .cfa -48 + ^ .ra: .cfa -56 + ^ x29: .cfa -64 + ^
STACK CFI 125c8 .cfa: sp 80 +
STACK CFI 125dc .cfa: sp 0 +
STACK CFI 125e0 .cfa: x29 64 +
STACK CFI INIT 125e4 240 .cfa: sp 0 +
STACK CFI 125e8 .cfa: sp 96 +
STACK CFI 12600 .cfa: x29 96 + x19: .cfa -8 + ^ x20: .cfa -16 + ^ x21: .cfa -24 + ^ x22: .cfa -32 + ^ x23: .cfa -40 + ^ x24: .cfa -48 + ^ x25: .cfa -56 + ^ x26: .cfa -64 + ^ x27: .cfa -72 + ^ x28: .cfa -80 + ^ .ra: .cfa -88 + ^ x29: .cfa -96 + ^
STACK CFI 12808 .cfa: sp 96 +
STACK CFI 12820 .cfa: sp 0 +
STACK CFI INIT 13498 154 .cfa: sp 0 +
STACK CFI 1349c .cfa: sp 96 +
STACK CFI 134b0 .cfa: x29 64 + x19: .cfa -8 + ^ x20: .cfa -16 + ^ x21: .cfa -24 + ^ x22: .cfa -32 + ^ x23: .cfa -48 + ^ .ra: .cfa -56 + ^ x29: .cfa -64 + ^
STACK CFI 13590 .cfa: sp 96 +
STACK CFI 135a4 .cfa: sp 0 +
STACK CFI 135a8 .cfa: x29 64 +
STACK CFI INIT 13858 44 .cfa: sp 0 +
STACK CFI 1385c .cfa: sp 32 +
STACK CFI 13864 .cfa: x29 32 + x19: .cfa -16 + ^ .ra: .cfa -24 + ^ x29: .cfa -32 + ^
STACK CFI 13880 .cfa: sp 32 +
STACK CFI 13888 .cfa: sp 0 +
STACK CFI 1388c .cfa: x29 32 +
STACK CFI 13890 .cfa: sp 32 +
STACK CFI 13898 .cfa: sp 0 +
STACK CFI INIT 1389c 1d0 .cfa: sp 0 +
STACK CFI 138a0 .cfa: sp 64 +
STACK CFI 138b0 .cfa: x29 64 + x19: .cfa -8 + ^ x20: .cfa -16 + ^ x21: .cfa -24 + ^ x22: .cfa -32 + ^ x23: .cfa -40 + ^ x24: .cfa -48 + ^ .ra: .cfa -56 + ^ x29: .cfa -64 + ^
STACK CFI 13970 .cfa: sp 64 +
STACK CFI 13980 .cfa: sp 0 +
STACK CFI 13984 .cfa: x29 64 +
STACK CFI INIT 13a6c 17c .cfa: sp 0 +
STACK CFI INIT 13be8 ac .cfa: sp 0 +
STACK CFI 13bec .cfa: sp 64 +
STACK CFI 13bfc .cfa: x29 64 + x19: .cfa -8 + ^ x20: .cfa -16 + ^ x21: .cfa -24 + ^ x22: .cfa -32 + ^ x23: .cfa -48 + ^ .ra: .cfa -56 + ^ x29: .cfa -64 + ^
STACK CFI 13c78 .cfa: sp 64 +
STACK CFI 13c88 .cfa: sp 0 +
STACK CFI 13c8c .cfa: x29 64 +
STACK CFI INIT 13c94 110 .cfa: sp 0 +
STACK CFI 13c98 .cfa: sp 64 +
STACK CFI 13ca8 .cfa: x29 64 + x19: .cfa -8 + ^ x20: .cfa -16 + ^ x21: .cfa -24 + ^ x22: .cfa -32 + ^ x23: .cfa -40 + ^ x24: .cfa -48 + ^ .ra: .cfa -56 + ^ x29: .cfa -64 + ^
STACK CFI 13d88 .cfa: sp 64 +
STACK CFI 13d98 .cfa: sp 0 +
STACK CFI 13d9c .cfa: x29 64 +
STACK CFI INIT 1415c a0 .cfa: sp 0 +
STACK CFI 14160 .cfa: sp 48 +
STACK CFI 1416c .cfa: x29 48 + x19: .cfa -8 + ^ x20: .cfa -16 + ^ x21: .cfa -24 + ^ x22: .cfa -32 + ^ .ra: .cfa -40 + ^ x29: .cfa -48 + ^
STACK CFI 141d8 .cfa: sp 48 +
STACK CFI 141e4 .cfa: sp 0 +
STACK CFI 141e8 .cfa: sp 48 +
STACK CFI 141f4 .cfa: sp 0 +
STACK CFI 141f8 .cfa: x29 48 +
STACK CFI INIT 14eb0 158 .cfa: sp 0 +
STACK CFI 14eb4 .cfa: sp 96 +
STACK CFI 14ec8 .cfa: x29 64 + x19: .cfa -8 + ^ x20: .cfa -16 + ^ x21: .cfa -24 + ^ x22: .cfa -32 + ^ x23: .cfa -48 + ^ .ra: .cfa -56 + ^ x29: .cfa -64 + ^
STACK CFI 14fac .cfa: sp 96 +
STACK CFI 14fc0 .cfa: sp 0 +
STACK CFI 14fc4 .cfa: x29 64 +
STACK CFI INIT 15008 190 .cfa: sp 0 +
STACK CFI INIT 15c94 1dc .cfa: sp 0 +
STACK CFI 15c98 .cfa: sp 80 +
STACK CFI 15cac .cfa: x29 80 + x19: .cfa -8 + ^ x20: .cfa -16 + ^ x21: .cfa -24 + ^ x22: .cfa -32 + ^ x23: .cfa -40 + ^ x24: .cfa -48 + ^ x25: .cfa -64 + ^ .ra: .cfa -72 + ^ x29: .cfa -80 + ^
STACK CFI 15e58 .cfa: sp 80 +
STACK CFI 15e6c .cfa: sp 0 +
STACK CFI INIT 172a0 124 .cfa: sp 0 +
STACK CFI 172d0 .cfa: sp 32 +
STACK CFI 172d8 .cfa: x29 32 + x19: .cfa -8 + ^ x20: .cfa -16 + ^ .ra: .cfa -24 + ^ x29: .cfa -32 + ^
STACK CFI 173b8 .cfa: sp 32 +
STACK CFI 173c0 .cfa: sp 0 +
STACK CFI INIT 17b20 320 .cfa: sp 0 +
STACK CFI 17b24 .cfa: sp 64 +
STACK CFI 17b34 .cfa: x29 64 + x19: .cfa -8 + ^ x20: .cfa -16 + ^ x21: .cfa -24 + ^ x22: .cfa -32 + ^ x23: .cfa -40 + ^ x24: .cfa -48 + ^ .ra: .cfa -56 + ^ x29: .cfa -64 + ^
STACK CFI 17bb0 .cfa: sp 64 +
STACK CFI 17bc0 .cfa: sp 0 +
STACK CFI 17bc4 .cfa: x29 64 +
STACK CFI 17d98 .cfa: sp 64 +
STACK CFI 17da8 .cfa: sp 0 +
STACK CFI 17dac .cfa: x29 64 +
STACK CFI 17dbc .cfa: sp 64 +
STACK CFI 17dcc .cfa: sp 0 +
STACK CFI 17dd0 .cfa: x29 64 +
STACK CFI INIT 17e40 a0 .cfa: sp 0 +
STACK CFI 17e44 .cfa: sp 48 +
STACK CFI 17e50 .cfa: x29 48 + x19: .cfa -8 + ^ x20: .cfa -16 + ^ x21: .cfa -24 + ^ x22: .cfa -32 + ^ .ra: .cfa -40 + ^ x29: .cfa -48 + ^
STACK CFI 17ebc .cfa: sp 48 +
STACK CFI 17ec8 .cfa: sp 0 +
STACK CFI 17ecc .cfa: sp 48 +
STACK CFI 17ed8 .cfa: sp 0 +
STACK CFI 17edc .cfa: x29 48 +
STACK CFI INIT 18d90 160 .cfa: sp 0 +
STACK CFI 18d94 .cfa: sp 64 +
STACK CFI 18da4 .cfa: x29 64 + x19: .cfa -8 + ^ x20: .cfa -16 + ^ x21: .cfa -24 + ^ x22: .cfa -32 + ^ x23: .cfa -48 + ^ .ra: .cfa -56 + ^ x29: .cfa -64 + ^
STACK CFI 18e9c .cfa: sp 64 +
STACK CFI 18eac .cfa: sp 0 +
STACK CFI 18eb0 .cfa: x29 64 +
STACK CFI INIT 18ef0 214 .cfa: sp 0 +
STACK CFI 18ef4 .cfa: sp 128 +
STACK CFI 18f10 .cfa: x29 96 + x19: .cfa -8 + ^ x20: .cfa -16 + ^ x21: .cfa -24 + ^ x22: .cfa -32 + ^ x23: .cfa -40 + ^ x24: .cfa -48 + ^ x25: .cfa -56 + ^ x26: .cfa -64 + ^ x27: .cfa -80 + ^ .ra: .cfa -88 + ^ x29: .cfa -96 + ^
STACK CFI 1908c .cfa: sp 128 +
STACK CFI 190a8 .cfa: sp 0 +
STACK CFI 190ac .cfa: x29 96 +
STACK CFI INIT 1ada0 290 .cfa: sp 0 +
STACK CFI 1ada4 .cfa: sp 16 +
STACK CFI 1ada8 .cfa: x29 16 + .ra: .cfa -8 + ^ x29: .cfa -16 + ^
STACK CFI 1ae34 .cfa: sp 16 +
STACK CFI 1ae38 .cfa: sp 0 +
STACK CFI 1ae3c .cfa: x29 16 +
STACK CFI 1ae8c .cfa: sp 16 +
STACK CFI 1ae90 .cfa: sp 0 +
STACK CFI 1ae94 .cfa: x29 16 +
STACK CFI 1aff8 .cfa: sp 16 +
STACK CFI 1affc .cfa: sp 0 +
STACK CFI 1b000 .cfa: x29 16 +
STACK CFI INIT 1b030 158 .cfa: sp 0 +
STACK CFI 1b034 .cfa: sp 112 +
STACK CFI 1b050 .cfa: x29 96 + x19: .cfa -8 + ^ x20: .cfa -16 + ^ x21: .cfa -24 + ^ x22: .cfa -32 + ^ x23: .cfa -40 + ^ x24: .cfa -48 + ^ x25: .cfa -56 + ^ x26: .cfa -64 + ^ x27: .cfa -72 + ^ x28: .cfa -80 + ^ .ra: .cfa -88 + ^ x29: .cfa -96 + ^
STACK CFI 1b138 .cfa: sp 112 +
STACK CFI 1b13c .cfa: x29 96 +
STACK CFI 1b144 .cfa: sp 112 +
STACK CFI 1b160 .cfa: sp 0 +
STACK CFI 1b164 .cfa: x29 96 +
STACK CFI 1b184 .cfa: sp 112 +
STACK CFI INIT 1b188 e54 .cfa: sp 0 +
STACK CFI 1b18c .cfa: sp 192 +
STACK CFI 1b1a8 .cfa: x29 96 + x19: .cfa -8 + ^ x20: .cfa -16 + ^ x21: .cfa -24 + ^ x22: .cfa -32 + ^ x23: .cfa -40 + ^ x24: .cfa -48 + ^ x25: .cfa -56 + ^ x26: .cfa -64 + ^ x27: .cfa -72 + ^ x28: .cfa -80 + ^ .ra: .cfa -88 + ^ x29: .cfa -96 + ^
STACK CFI 1bec4 .cfa: sp 192 +
STACK CFI 1bee0 .cfa: sp 0 +
STACK CFI 1bee4 .cfa: x29 96 +
STACK CFI INIT 1bfdc 1068 .cfa: sp 0 +
STACK CFI 1bfe0 .cfa: sp 288 +
STACK CFI 1bffc .cfa: x29 96 + x19: .cfa -8 + ^ x20: .cfa -16 + ^ x21: .cfa -24 + ^ x22: .cfa -32 + ^ x23: .cfa -40 + ^ x24: .cfa -48 + ^ x25: .cfa -56 + ^ x26: .cfa -64 + ^ x27: .cfa -72 + ^ x28: .cfa -80 + ^ .ra: .cfa -88 + ^ x29: .cfa -96 + ^
STACK CFI 1cd8c .cfa: sp 288 +
STACK CFI 1cda8 .cfa: sp 0 +
STACK CFI 1cdac .cfa: x29 96 +
STACK CFI INIT 1d044 520 .cfa: sp 0 +
STACK CFI 1d048 .cfa: sp 144 +
STACK CFI 1d064 .cfa: x29 96 + x19: .cfa -8 + ^ x20: .cfa -16 + ^ x21: .cfa -24 + ^ x22: .cfa -32 + ^ x23: .cfa -40 + ^ x24: .cfa -48 + ^ x25: .cfa -56 + ^ x26: .cfa -64 + ^ x27: .cfa -72 + ^ x28: .cfa -80 + ^ .ra: .cfa -88 + ^ x29: .cfa -96 + ^
STACK CFI 1d540 .cfa: sp 144 +
STACK CFI 1d55c .cfa: sp 0 +
STACK CFI 1d560 .cfa: x29 96 +
STACK CFI INIT 1df04 136c .cfa: sp 0 +
STACK CFI 1df08 .cfa: sp 224 +
STACK CFI 1df24 .cfa: x29 96 + x19: .cfa -8 + ^ x20: .cfa -16 + ^ x21: .cfa -24 + ^ x22: .cfa -32 + ^ x23: .cfa -40 + ^ x24: .cfa -48 + ^ x25: .cfa -56 + ^ x26: .cfa -64 + ^ x27: .cfa -72 + ^ x28: .cfa -80 + ^ .ra: .cfa -88 + ^ x29: .cfa -96 + ^
STACK CFI 1f24c .cfa: sp 224 +
STACK CFI 1f268 .cfa: sp 0 +
STACK CFI 1f26c .cfa: x29 96 +
STACK CFI INIT 1f270 1b8 .cfa: sp 0 +
STACK CFI INIT 8160 bd4 .cfa: sp 0 +
STACK CFI 8164 .cfa: sp 240 +
STACK CFI 8180 .cfa: x29 96 + x19: .cfa -8 + ^ x20: .cfa -16 + ^ x21: .cfa -24 + ^ x22: .cfa -32 + ^ x23: .cfa -40 + ^ x24: .cfa -48 + ^ x25: .cfa -56 + ^ x26: .cfa -64 + ^ x27: .cfa -72 + ^ x28: .cfa -80 + ^ .ra: .cfa -88 + ^ x29: .cfa -96 + ^
STACK CFI 855c .cfa: sp 240 +
STACK CFI 8578 .cfa: sp 0 +
STACK CFI 857c .cfa: x29 96 +
STACK CFI 8bdc .cfa: sp 240 +
STACK CFI 8bf8 .cfa: sp 0 +
STACK CFI 8bfc .cfa: x29 96 +
STACK CFI INIT 8d4c 138 .cfa: sp 0 +
STACK CFI 8d50 .cfa: sp 64 +
STACK CFI 8d60 .cfa: x29 64 + x19: .cfa -8 + ^ x20: .cfa -16 + ^ x21: .cfa -24 + ^ x22: .cfa -32 + ^ x23: .cfa -40 + ^ x24: .cfa -48 + ^ .ra: .cfa -56 + ^ x29: .cfa -64 + ^
STACK CFI 8dfc .cfa: sp 64 +
STACK CFI 8e0c .cfa: sp 0 +
STACK CFI 8e10 .cfa: x29 64 +
STACK CFI 8e44 .cfa: sp 64 +
STACK CFI 8e54 .cfa: sp 0 +
STACK CFI 8e58 .cfa: x29 64 +
STACK CFI INIT 8e84 138 .cfa: sp 0 +
STACK CFI 8e88 .cfa: sp 64 +
STACK CFI 8e98 .cfa: x29 64 + x19: .cfa -8 + ^ x20: .cfa -16 + ^ x21: .cfa -24 + ^ x22: .cfa -32 + ^ x23: .cfa -40 + ^ x24: .cfa -48 + ^ .ra: .cfa -56 + ^ x29: .cfa -64 + ^
STACK CFI 8f34 .cfa: sp 64 +
STACK CFI 8f44 .cfa: sp 0 +
STACK CFI 8f48 .cfa: x29 64 +
STACK CFI 8f7c .cfa: sp 64 +
STACK CFI 8f8c .cfa: sp 0 +
STACK CFI 8f90 .cfa: x29 64 +
STACK CFI INIT 8fbc 138 .cfa: sp 0 +
STACK CFI 8fc0 .cfa: sp 64 +
STACK CFI 8fd0 .cfa: x29 64 + x19: .cfa -8 + ^ x20: .cfa -16 + ^ x21: .cfa -24 + ^ x22: .cfa -32 + ^ x23: .cfa -40 + ^ x24: .cfa -48 + ^ .ra: .cfa -56 + ^ x29: .cfa -64 + ^
STACK CFI 906c .cfa: sp 64 +
STACK CFI 907c .cfa: sp 0 +
STACK CFI 9080 .cfa: x29 64 +
STACK CFI 90b4 .cfa: sp 64 +
STACK CFI 90c4 .cfa: sp 0 +
STACK CFI 90c8 .cfa: x29 64 +
STACK CFI INIT 90f4 138 .cfa: sp 0 +
STACK CFI 90f8 .cfa: sp 64 +
STACK CFI 9108 .cfa: x29 64 + x19: .cfa -8 + ^ x20: .cfa -16 + ^ x21: .cfa -24 + ^ x22: .cfa -32 + ^ x23: .cfa -40 + ^ x24: .cfa -48 + ^ .ra: .cfa -56 + ^ x29: .cfa -64 + ^
STACK CFI 91a4 .cfa: sp 64 +
STACK CFI 91b4 .cfa: sp 0 +
STACK CFI 91b8 .cfa: x29 64 +
STACK CFI 91ec .cfa: sp 64 +
STACK CFI 91fc .cfa: sp 0 +
STACK CFI 9200 .cfa: x29 64 +
STACK CFI INIT 922c 138 .cfa: sp 0 +
STACK CFI 9230 .cfa: sp 64 +
STACK CFI 9240 .cfa: x29 64 + x19: .cfa -8 + ^ x20: .cfa -16 + ^ x21: .cfa -24 + ^ x22: .cfa -32 + ^ x23: .cfa -40 + ^ x24: .cfa -48 + ^ .ra: .cfa -56 + ^ x29: .cfa -64 + ^
STACK CFI 92dc .cfa: sp 64 +
STACK CFI 92ec .cfa: sp 0 +
STACK CFI 92f0 .cfa: x29 64 +
STACK CFI 9324 .cfa: sp 64 +
STACK CFI 9334 .cfa: sp 0 +
STACK CFI 9338 .cfa: x29 64 +
STACK CFI INIT 9364 138 .cfa: sp 0 +
STACK CFI 9368 .cfa: sp 64 +
STACK CFI 9378 .cfa: x29 64 + x19: .cfa -8 + ^ x20: .cfa -16 + ^ x21: .cfa -24 + ^ x22: .cfa -32 + ^ x23: .cfa -40 + ^ x24: .cfa -48 + ^ .ra: .cfa -56 + ^ x29: .cfa -64 + ^
STACK CFI 9414 .cfa: sp 64 +
STACK CFI 9424 .cfa: sp 0 +
STACK CFI 9428 .cfa: x29 64 +
STACK CFI 945c .cfa: sp 64 +
STACK CFI 946c .cfa: sp 0 +
STACK CFI 9470 .cfa: x29 64 +
STACK CFI INIT 949c 138 .cfa: sp 0 +
STACK CFI 94a0 .cfa: sp 64 +
STACK CFI 94b0 .cfa: x29 64 + x19: .cfa -8 + ^ x20: .cfa -16 + ^ x21: .cfa -24 + ^ x22: .cfa -32 + ^ x23: .cfa -40 + ^ x24: .cfa -48 + ^ .ra: .cfa -56 + ^ x29: .cfa -64 + ^
STACK CFI 954c .cfa: sp 64 +
STACK CFI 955c .cfa: sp 0 +
STACK CFI 9560 .cfa: x29 64 +
STACK CFI 9594 .cfa: sp 64 +
STACK CFI 95a4 .cfa: sp 0 +
STACK CFI 95a8 .cfa: x29 64 +
STACK CFI INIT 95d4 138 .cfa: sp 0 +
STACK CFI 95d8 .cfa: sp 64 +
STACK CFI 95e8 .cfa: x29 64 + x19: .cfa -8 + ^ x20: .cfa -16 + ^ x21: .cfa -24 + ^ x22: .cfa -32 + ^ x23: .cfa -40 + ^ x24: .cfa -48 + ^ .ra: .cfa -56 + ^ x29: .cfa -64 + ^
STACK CFI 9684 .cfa: sp 64 +
STACK CFI 9694 .cfa: sp 0 +
STACK CFI 9698 .cfa: x29 64 +
STACK CFI 96cc .cfa: sp 64 +
STACK CFI 96dc .cfa: sp 0 +
STACK CFI 96e0 .cfa: x29 64 +
STACK CFI INIT 970c 138 .cfa: sp 0 +
STACK CFI 9710 .cfa: sp 64 +
STACK CFI 9720 .cfa: x29 64 + x19: .cfa -8 + ^ x20: .cfa -16 + ^ x21: .cfa -24 + ^ x22: .cfa -32 + ^ x23: .cfa -40 + ^ x24: .cfa -48 + ^ .ra: .cfa -56 + ^ x29: .cfa -64 + ^
STACK CFI 97bc .cfa: sp 64 +
STACK CFI 97cc .cfa: sp 0 +
STACK CFI 97d0 .cfa: x29 64 +
STACK CFI 9804 .cfa: sp 64 +
STACK CFI 9814 .cfa: sp 0 +
STACK CFI 9818 .cfa: x29 64 +
STACK CFI INIT 9844 138 .cfa: sp 0 +
STACK CFI 9848 .cfa: sp 64 +
STACK CFI 9858 .cfa: x29 64 + x19: .cfa -8 + ^ x20: .cfa -16 + ^ x21: .cfa -24 + ^ x22: .cfa -32 + ^ x23: .cfa -40 + ^ x24: .cfa -48 + ^ .ra: .cfa -56 + ^ x29: .cfa -64 + ^
STACK CFI 98f4 .cfa: sp 64 +
STACK CFI 9904 .cfa: sp 0 +
STACK CFI 9908 .cfa: x29 64 +
STACK CFI 993c .cfa: sp 64 +
STACK CFI 994c .cfa: sp 0 +
STACK CFI 9950 .cfa: x29 64 +
STACK CFI INIT 997c 138 .cfa: sp 0 +
STACK CFI 9980 .cfa: sp 64 +
STACK CFI 9990 .cfa: x29 64 + x19: .cfa -8 + ^ x20: .cfa -16 + ^ x21: .cfa -24 + ^ x22: .cfa -32 + ^ x23: .cfa -40 + ^ x24: .cfa -48 + ^ .ra: .cfa -56 + ^ x29: .cfa -64 + ^
STACK CFI 9a2c .cfa: sp 64 +
STACK CFI 9a3c .cfa: sp 0 +
STACK CFI 9a40 .cfa: x29 64 +
STACK CFI 9a74 .cfa: sp 64 +
STACK CFI 9a84 .cfa: sp 0 +
STACK CFI 9a88 .cfa: x29 64 +
STACK CFI INIT 9ab4 138 .cfa: sp 0 +
STACK CFI 9ab8 .cfa: sp 64 +
STACK CFI 9ac8 .cfa: x29 64 + x19: .cfa -8 + ^ x20: .cfa -16 + ^ x21: .cfa -24 + ^ x22: .cfa -32 + ^ x23: .cfa -40 + ^ x24: .cfa -48 + ^ .ra: .cfa -56 + ^ x29: .cfa -64 + ^
STACK CFI 9b64 .cfa: sp 64 +
STACK CFI 9b74 .cfa: sp 0 +
STACK CFI 9b78 .cfa: x29 64 +
STACK CFI 9bac .cfa: sp 64 +
STACK CFI 9bbc .cfa: sp 0 +
STACK CFI 9bc0 .cfa: x29 64 +
STACK CFI INIT 9bec 138 .cfa: sp 0 +
STACK CFI 9bf0 .cfa: sp 64 +
STACK CFI 9c00 .cfa: x29 64 + x19: .cfa -8 + ^ x20: .cfa -16 + ^ x21: .cfa -24 + ^ x22: .cfa -32 + ^ x23: .cfa -40 + ^ x24: .cfa -48 + ^ .ra: .cfa -56 + ^ x29: .cfa -64 + ^
STACK CFI 9c9c .cfa: sp 64 +
STACK CFI 9cac .cfa: sp 0 +
STACK CFI 9cb0 .cfa: x29 64 +
STACK CFI 9ce4 .cfa: sp 64 +
STACK CFI 9cf4 .cfa: sp 0 +
STACK CFI 9cf8 .cfa: x29 64 +
STACK CFI INIT 9d24 138 .cfa: sp 0 +
STACK CFI 9d28 .cfa: sp 64 +
STACK CFI 9d38 .cfa: x29 64 + x19: .cfa -8 + ^ x20: .cfa -16 + ^ x21: .cfa -24 + ^ x22: .cfa -32 + ^ x23: .cfa -40 + ^ x24: .cfa -48 + ^ .ra: .cfa -56 + ^ x29: .cfa -64 + ^
STACK CFI 9dd4 .cfa: sp 64 +
STACK CFI 9de4 .cfa: sp 0 +
STACK CFI 9de8 .cfa: x29 64 +
STACK CFI 9e1c .cfa: sp 64 +
STACK CFI 9e2c .cfa: sp 0 +
STACK CFI 9e30 .cfa: x29 64 +
STACK CFI INIT 9e5c 138 .cfa: sp 0 +
STACK CFI 9e60 .cfa: sp 64 +
STACK CFI 9e70 .cfa: x29 64 + x19: .cfa -8 + ^ x20: .cfa -16 + ^ x21: .cfa -24 + ^ x22: .cfa -32 + ^ x23: .cfa -40 + ^ x24: .cfa -48 + ^ .ra: .cfa -56 + ^ x29: .cfa -64 + ^
STACK CFI 9f0c .cfa: sp 64 +
STACK CFI 9f1c .cfa: sp 0 +
STACK CFI 9f20 .cfa: x29 64 +
STACK CFI 9f54 .cfa: sp 64 +
STACK CFI 9f64 .cfa: sp 0 +
STACK CFI 9f68 .cfa: x29 64 +
STACK CFI INIT 9fd8 c4 .cfa: sp 0 +
STACK CFI 9fdc .cfa: sp 48 +
STACK CFI 9fe8 .cfa: x29 48 + x19: .cfa -8 + ^ x20: .cfa -16 + ^ x21: .cfa -32 + ^ .ra: .cfa -40 + ^ x29: .cfa -48 + ^
STACK CFI a054 .cfa: sp 48 +
STACK CFI a060 .cfa: sp 0 +
STACK CFI a064 .cfa: x29 48 +
STACK CFI a088 .cfa: sp 48 +
STACK CFI a094 .cfa: sp 0 +
STACK CFI a098 .cfa: x29 48 +
STACK CFI INIT a09c 84 .cfa: sp 0 +
STACK CFI a0a0 .cfa: sp 48 +
STACK CFI a0ac .cfa: x29 48 + x19: .cfa -8 + ^ x20: .cfa -16 + ^ x21: .cfa -32 + ^ .ra: .cfa -40 + ^ x29: .cfa -48 + ^
STACK CFI a0cc .cfa: sp 48 +
STACK CFI a0d8 .cfa: sp 0 +
STACK CFI a0dc .cfa: x29 48 +
STACK CFI a0fc .cfa: sp 48 +
STACK CFI a108 .cfa: sp 0 +
STACK CFI a10c .cfa: sp 48 +
STACK CFI a118 .cfa: sp 0 +
STACK CFI a11c .cfa: x29 48 +
STACK CFI INIT a2cc 50 .cfa: sp 0 +
STACK CFI a2d0 .cfa: sp 32 +
STACK CFI a2d8 .cfa: x29 32 + x19: .cfa -8 + ^ x20: .cfa -16 + ^ .ra: .cfa -24 + ^ x29: .cfa -32 + ^
STACK CFI INIT a52c dc .cfa: sp 0 +
STACK CFI a530 .cfa: sp 48 +
STACK CFI a53c .cfa: x29 48 + x19: .cfa -8 + ^ x20: .cfa -16 + ^ x21: .cfa -32 + ^ .ra: .cfa -40 + ^ x29: .cfa -48 + ^
STACK CFI a5c0 .cfa: sp 48 +
STACK CFI a5cc .cfa: sp 0 +
STACK CFI a5d0 .cfa: x29 48 +
STACK CFI INIT a608 d0 .cfa: sp 0 +
STACK CFI a60c .cfa: sp 48 +
STACK CFI a618 .cfa: x29 48 + x19: .cfa -8 + ^ x20: .cfa -16 + ^ x21: .cfa -32 + ^ .ra: .cfa -40 + ^ x29: .cfa -48 + ^
STACK CFI a66c .cfa: sp 48 +
STACK CFI a678 .cfa: sp 0 +
STACK CFI a67c .cfa: x29 48 +
STACK CFI a6ac .cfa: sp 48 +
STACK CFI a6b8 .cfa: sp 0 +
STACK CFI a6bc .cfa: x29 48 +
STACK CFI INIT a858 15c .cfa: sp 0 +
STACK CFI a85c .cfa: sp 112 +
STACK CFI a86c .cfa: x29 48 + x19: .cfa -8 + ^ x20: .cfa -16 + ^ x21: .cfa -24 + ^ x22: .cfa -32 + ^ .ra: .cfa -40 + ^ x29: .cfa -48 + ^
STACK CFI a950 .cfa: sp 112 +
STACK CFI a960 .cfa: sp 0 +
STACK CFI a964 .cfa: x29 48 +
STACK CFI INIT ab90 5b0 .cfa: sp 0 +
STACK CFI ab94 .cfa: sp 208 +
STACK CFI abb0 .cfa: x29 96 + x19: .cfa -8 + ^ x20: .cfa -16 + ^ x21: .cfa -24 + ^ x22: .cfa -32 + ^ x23: .cfa -40 + ^ x24: .cfa -48 + ^ x25: .cfa -56 + ^ x26: .cfa -64 + ^ x27: .cfa -72 + ^ x28: .cfa -80 + ^ .ra: .cfa -88 + ^ x29: .cfa -96 + ^
STACK CFI b03c .cfa: sp 208 +
STACK CFI b058 .cfa: sp 0 +
STACK CFI b05c .cfa: x29 96 +
STACK CFI INIT b190 74 .cfa: sp 0 +
STACK CFI b194 .cfa: sp 48 +
STACK CFI b1a0 .cfa: x29 32 + x19: .cfa -8 + ^ x20: .cfa -16 + ^ .ra: .cfa -24 + ^ x29: .cfa -32 + ^
STACK CFI b1ec .cfa: sp 48 +
STACK CFI b1f8 .cfa: sp 0 +
STACK CFI b1fc .cfa: x29 32 +
STACK CFI INIT b284 6fc .cfa: sp 0 +
STACK CFI b288 .cfa: sp 496 +
STACK CFI b2a4 .cfa: x29 96 + x19: .cfa -8 + ^ x20: .cfa -16 + ^ x21: .cfa -24 + ^ x22: .cfa -32 + ^ x23: .cfa -40 + ^ x24: .cfa -48 + ^ x25: .cfa -56 + ^ x26: .cfa -64 + ^ x27: .cfa -72 + ^ x28: .cfa -80 + ^ .ra: .cfa -88 + ^ x29: .cfa -96 + ^
STACK CFI b854 .cfa: sp 496 +
STACK CFI b870 .cfa: sp 0 +
STACK CFI b874 .cfa: x29 96 +
STACK CFI INIT bb90 a8 .cfa: sp 0 +
STACK CFI bb94 .cfa: sp 32 +
STACK CFI bb9c .cfa: x29 32 + x19: .cfa -16 + ^ .ra: .cfa -24 + ^ x29: .cfa -32 + ^
STACK CFI bbd0 .cfa: sp 32 +
STACK CFI bbd8 .cfa: sp 0 +
STACK CFI bbdc .cfa: x29 32 +
STACK CFI bbe0 .cfa: sp 32 +
STACK CFI bbe8 .cfa: sp 0 +
STACK CFI bbec .cfa: x29 32 +
STACK CFI INIT bd88 1864 .cfa: sp 0 +
STACK CFI bd8c .cfa: sp 96 +
STACK CFI bda4 .cfa: x29 96 + x19: .cfa -8 + ^ x20: .cfa -16 + ^ x21: .cfa -24 + ^ x22: .cfa -32 + ^ x23: .cfa -40 + ^ x24: .cfa -48 + ^ x25: .cfa -56 + ^ x26: .cfa -64 + ^ x27: .cfa -72 + ^ x28: .cfa -80 + ^ .ra: .cfa -88 + ^ x29: .cfa -96 + ^
STACK CFI d0ac .cfa: sp 96 +
STACK CFI d0c4 .cfa: sp 0 +
STACK CFI d0c8 .cfa: x29 96 +
STACK CFI INIT d958 294 .cfa: sp 0 +
STACK CFI d95c .cfa: sp 240 +
STACK CFI d974 .cfa: x29 80 + x19: .cfa -8 + ^ x20: .cfa -16 + ^ x21: .cfa -24 + ^ x22: .cfa -32 + ^ x23: .cfa -40 + ^ x24: .cfa -48 + ^ x25: .cfa -64 + ^ .ra: .cfa -72 + ^ x29: .cfa -80 + ^
STACK CFI db14 .cfa: sp 240 +
STACK CFI db2c .cfa: sp 0 +
STACK CFI db30 .cfa: x29 80 +
STACK CFI INIT dc68 50 .cfa: sp 0 +
STACK CFI dc6c .cfa: sp 32 +
STACK CFI dc74 .cfa: x29 32 + x19: .cfa -8 + ^ x20: .cfa -16 + ^ .ra: .cfa -24 + ^ x29: .cfa -32 + ^
STACK CFI INIT dce4 7c0 .cfa: sp 0 +
STACK CFI dce8 .cfa: sp 320 +
STACK CFI dd04 .cfa: x29 96 + x19: .cfa -8 + ^ x20: .cfa -16 + ^ x21: .cfa -24 + ^ x22: .cfa -32 + ^ x23: .cfa -40 + ^ x24: .cfa -48 + ^ x25: .cfa -56 + ^ x26: .cfa -64 + ^ x27: .cfa -72 + ^ x28: .cfa -80 + ^ .ra: .cfa -88 + ^ x29: .cfa -96 + ^
STACK CFI e354 .cfa: sp 320 +
STACK CFI e370 .cfa: sp 0 +
STACK CFI e374 .cfa: x29 96 +
STACK CFI INIT 12824 c74 .cfa: sp 0 +
STACK CFI 12828 .cfa: sp 96 +
STACK CFI 12840 .cfa: x29 96 + x19: .cfa -8 + ^ x20: .cfa -16 + ^ x21: .cfa -24 + ^ x22: .cfa -32 + ^ x23: .cfa -40 + ^ x24: .cfa -48 + ^ x25: .cfa -56 + ^ x26: .cfa -64 + ^ x27: .cfa -72 + ^ x28: .cfa -80 + ^ .ra: .cfa -88 + ^ x29: .cfa -96 + ^
STACK CFI 132b8 .cfa: sp 96 +
STACK CFI 132d0 .cfa: sp 0 +
STACK CFI 132d4 .cfa: x29 96 +
STACK CFI INIT 135ec 26c .cfa: sp 0 +
STACK CFI 135f0 .cfa: sp 128 +
STACK CFI 13600 .cfa: x29 48 + x19: .cfa -8 + ^ x20: .cfa -16 + ^ x21: .cfa -24 + ^ x22: .cfa -32 + ^ .ra: .cfa -40 + ^ x29: .cfa -48 + ^
STACK CFI 137a4 .cfa: sp 128 +
STACK CFI 137b4 .cfa: sp 0 +
STACK CFI 137b8 .cfa: x29 48 +
STACK CFI INIT 13da4 3b8 .cfa: sp 0 +
STACK CFI 13da8 .cfa: sp 96 +
STACK CFI 13dc0 .cfa: x29 96 + x19: .cfa -8 + ^ x20: .cfa -16 + ^ x21: .cfa -24 + ^ x22: .cfa -32 + ^ x23: .cfa -40 + ^ x24: .cfa -48 + ^ x25: .cfa -56 + ^ x26: .cfa -64 + ^ x27: .cfa -72 + ^ x28: .cfa -80 + ^ .ra: .cfa -88 + ^ x29: .cfa -96 + ^
STACK CFI 140fc .cfa: sp 96 +
STACK CFI 14114 .cfa: sp 0 +
STACK CFI 14118 .cfa: x29 96 +
STACK CFI INIT 141fc cb4 .cfa: sp 0 +
STACK CFI 14200 .cfa: sp 96 +
STACK CFI 14218 .cfa: x29 96 + x19: .cfa -8 + ^ x20: .cfa -16 + ^ x21: .cfa -24 + ^ x22: .cfa -32 + ^ x23: .cfa -40 + ^ x24: .cfa -48 + ^ x25: .cfa -56 + ^ x26: .cfa -64 + ^ x27: .cfa -72 + ^ x28: .cfa -80 + ^ .ra: .cfa -88 + ^ x29: .cfa -96 + ^
STACK CFI 14cc0 .cfa: sp 96 +
STACK CFI 14cd8 .cfa: sp 0 +
STACK CFI 14cdc .cfa: x29 96 +
STACK CFI INIT 15198 afc .cfa: sp 0 +
STACK CFI 1519c .cfa: sp 96 +
STACK CFI 151b4 .cfa: x29 96 + x19: .cfa -8 + ^ x20: .cfa -16 + ^ x21: .cfa -24 + ^ x22: .cfa -32 + ^ x23: .cfa -40 + ^ x24: .cfa -48 + ^ x25: .cfa -56 + ^ x26: .cfa -64 + ^ x27: .cfa -72 + ^ x28: .cfa -80 + ^ .ra: .cfa -88 + ^ x29: .cfa -96 + ^
STACK CFI 15c08 .cfa: sp 96 +
STACK CFI 15c20 .cfa: sp 0 +
STACK CFI 15c24 .cfa: x29 96 +
STACK CFI INIT 15e70 1430 .cfa: sp 0 +
STACK CFI 15e74 .cfa: sp 96 +
STACK CFI 15e8c .cfa: x29 96 + x19: .cfa -8 + ^ x20: .cfa -16 + ^ x21: .cfa -24 + ^ x22: .cfa -32 + ^ x23: .cfa -40 + ^ x24: .cfa -48 + ^ x25: .cfa -56 + ^ x26: .cfa -64 + ^ x27: .cfa -72 + ^ x28: .cfa -80 + ^ .ra: .cfa -88 + ^ x29: .cfa -96 + ^
STACK CFI 17128 .cfa: sp 96 +
STACK CFI 17140 .cfa: sp 0 +
STACK CFI 17144 .cfa: x29 96 +
STACK CFI INIT 173c4 75c .cfa: sp 0 +
STACK CFI 173c8 .cfa: sp 368 +
STACK CFI 173e4 .cfa: x29 96 + x19: .cfa -8 + ^ x20: .cfa -16 + ^ x21: .cfa -24 + ^ x22: .cfa -32 + ^ x23: .cfa -40 + ^ x24: .cfa -48 + ^ x25: .cfa -56 + ^ x26: .cfa -64 + ^ x27: .cfa -72 + ^ x28: .cfa -80 + ^ .ra: .cfa -88 + ^ x29: .cfa -96 + ^
STACK CFI 17498 .cfa: sp 368 +
STACK CFI 174b4 .cfa: sp 0 +
STACK CFI 174b8 .cfa: x29 96 +
STACK CFI 1750c .cfa: sp 368 +
STACK CFI 17528 .cfa: sp 0 +
STACK CFI 1752c .cfa: x29 96 +
STACK CFI INIT 17ee0 eb0 .cfa: sp 0 +
STACK CFI 17ee4 .cfa: sp 96 +
STACK CFI 17efc .cfa: x29 96 + x19: .cfa -8 + ^ x20: .cfa -16 + ^ x21: .cfa -24 + ^ x22: .cfa -32 + ^ x23: .cfa -40 + ^ x24: .cfa -48 + ^ x25: .cfa -56 + ^ x26: .cfa -64 + ^ x27: .cfa -72 + ^ x28: .cfa -80 + ^ .ra: .cfa -88 + ^ x29: .cfa -96 + ^
STACK CFI 18ba4 .cfa: sp 96 +
STACK CFI 18bbc .cfa: sp 0 +
STACK CFI 18bc0 .cfa: x29 96 +
STACK CFI INIT 19104 1c9c .cfa: sp 0 +
STACK CFI 19108 .cfa: sp 112 +
STACK CFI 19124 .cfa: x29 96 + x19: .cfa -8 + ^ x20: .cfa -16 + ^ x21: .cfa -24 + ^ x22: .cfa -32 + ^ x23: .cfa -40 + ^ x24: .cfa -48 + ^ x25: .cfa -56 + ^ x26: .cfa -64 + ^ x27: .cfa -72 + ^ x28: .cfa -80 + ^ .ra: .cfa -88 + ^ x29: .cfa -96 + ^ v8: .cfa -112 + ^
STACK CFI 1950c .cfa: sp 112 +
STACK CFI 19528 .cfa: sp 0 +
STACK CFI 1952c .cfa: x29 96 +
STACK CFI INIT 1d564 9a0 .cfa: sp 0 +
STACK CFI 1d568 .cfa: sp 144 +
STACK CFI 1d580 .cfa: x29 80 + x19: .cfa -8 + ^ x20: .cfa -16 + ^ x21: .cfa -24 + ^ x22: .cfa -32 + ^ x23: .cfa -40 + ^ x24: .cfa -48 + ^ x25: .cfa -64 + ^ .ra: .cfa -72 + ^ x29: .cfa -80 + ^
STACK CFI 1de80 .cfa: sp 144 +
STACK CFI 1de98 .cfa: sp 0 +
STACK CFI 1de9c .cfa: x29 80 +
STACK CFI INIT 1f428 57c .cfa: sp 0 +
STACK CFI 1f42c .cfa: sp 96 +
STACK CFI 1f444 .cfa: x29 96 + x19: .cfa -8 + ^ x20: .cfa -16 + ^ x21: .cfa -24 + ^ x22: .cfa -32 + ^ x23: .cfa -40 + ^ x24: .cfa -48 + ^ x25: .cfa -56 + ^ x26: .cfa -64 + ^ x27: .cfa -72 + ^ x28: .cfa -80 + ^ .ra: .cfa -88 + ^ x29: .cfa -96 + ^
STACK CFI 1f908 .cfa: sp 96 +
STACK CFI 1f920 .cfa: sp 0 +
STACK CFI 1f924 .cfa: x29 96 +
STACK CFI INIT 1f9a4 67c .cfa: sp 0 +
STACK CFI 1f9a8 .cfa: sp 96 +
STACK CFI 1f9c0 .cfa: x29 96 + x19: .cfa -8 + ^ x20: .cfa -16 + ^ x21: .cfa -24 + ^ x22: .cfa -32 + ^ x23: .cfa -40 + ^ x24: .cfa -48 + ^ x25: .cfa -56 + ^ x26: .cfa -64 + ^ x27: .cfa -72 + ^ x28: .cfa -80 + ^ .ra: .cfa -88 + ^ x29: .cfa -96 + ^
STACK CFI 1ff84 .cfa: sp 96 +
STACK CFI 1ff9c .cfa: sp 0 +
STACK CFI 1ffa0 .cfa: x29 96 +
