MODULE Linux arm 3C0F6781A79051056433EA59F6FB38830 techstudent10.creation_rotation.android32.so
INFO CODE_ID 81670F3C90A705516433EA59F6FB3883475B4113
INFO GENERATOR mozilla/dump_syms 2.3.4
PUBLIC 641f0 0 __on_dlclose
PUBLIC 64200 0 __emutls_unregister_key
PUBLIC 64204 0 __on_dlclose_late
PUBLIC 64208 0 __atexit_handler_wrapper
PUBLIC 64214 0 atexit
PUBLIC 64234 0 pthread_atfork
FUNC 64244 8 0 mbedtls_net_init
FUNC 6424c c0 0 mbedtls_net_connect
FUNC 6430c 110 0 mbedtls_net_bind
FUNC 6441c 17c 0 mbedtls_net_accept
FUNC 64598 1e 0 mbedtls_net_set_block
FUNC 645b6 1e 0 mbedtls_net_set_nonblock
FUNC 645d4 158 0 mbedtls_net_poll
FUNC 6472c 64 0 mbedtls_net_usleep
FUNC 64790 74 0 mbedtls_net_recv
FUNC 64804 150 0 mbedtls_net_recv_timeout
FUNC 64954 70 0 mbedtls_net_send
FUNC 649c4 18 0 mbedtls_net_close
FUNC 649dc 20 0 mbedtls_net_free
FUNC 649fc 40 0 mbedtls_ssl_set_timer
FUNC 64a3c 44 0 mbedtls_ssl_check_timer
FUNC 64a80 11c 0 mbedtls_ssl_check_record
FUNC 64b9c 234 0 ssl_parse_record_header
FUNC 64dd0 748 0 mbedtls_ssl_decrypt_buf
FUNC 65518 7a8 0 mbedtls_ssl_encrypt_buf
FUNC 65cc0 28 0 ssl_extract_add_data_from_record
FUNC 65ce8 5c 0 ssl_build_record_nonce
FUNC 65d44 470 0 mbedtls_ssl_fetch_input
FUNC 661b4 90 0 ssl_double_retransmit_timeout
FUNC 66244 58 0 mbedtls_ssl_resend
FUNC 6629c 198 0 mbedtls_ssl_flush_output
FUNC 66434 58 0 mbedtls_ssl_update_out_pointers
FUNC 6648c 26 0 mbedtls_ssl_flight_free
FUNC 664b4 2d8 0 mbedtls_ssl_flight_transmit
FUNC 6678c cc 0 ssl_swap_epochs
FUNC 66858 d8 0 ssl_get_remaining_payload_in_datagram
FUNC 66930 368 0 mbedtls_ssl_write_record
FUNC 66c98 90 0 mbedtls_ssl_recv_flight_completed
FUNC 66d28 f8 0 mbedtls_ssl_buffering_free
FUNC 66e20 84 0 mbedtls_ssl_send_flight_completed
FUNC 66ea4 35c 0 mbedtls_ssl_write_handshake_msg
FUNC 67200 1c 0 mbedtls_ssl_write_version
FUNC 6721c 27c 0 mbedtls_ssl_prepare_handshake_record
FUNC 67498 94 0 mbedtls_ssl_update_handshake_status
FUNC 6752c c 0 mbedtls_ssl_dtls_replay_reset
FUNC 67538 6c 0 mbedtls_ssl_dtls_replay_check
FUNC 675a4 b4 0 mbedtls_ssl_dtls_replay_update
FUNC 67658 f24 0 mbedtls_ssl_read_record
FUNC 6857c 230 0 mbedtls_ssl_handle_message_type
FUNC 687ac 8 0 mbedtls_ssl_send_fatal_handshake_failure
FUNC 687b4 dc 0 mbedtls_ssl_send_alert_message
FUNC 68890 84 0 mbedtls_ssl_write_change_cipher_spec
FUNC 68914 168 0 mbedtls_ssl_parse_change_cipher_spec
FUNC 68a7c 34 0 mbedtls_ssl_update_in_pointers
FUNC 68ab0 78 0 mbedtls_ssl_reset_in_out_pointers
FUNC 68b28 e 0 mbedtls_ssl_get_bytes_avail
FUNC 68b38 b4 0 mbedtls_ssl_check_pending
FUNC 68bec 8c 0 mbedtls_ssl_get_record_expansion
FUNC 68c78 42c 0 mbedtls_ssl_read
FUNC 690a4 98 0 ssl_check_ctr_renegotiate
FUNC 6913c 118 0 mbedtls_ssl_write
FUNC 69254 9c 0 mbedtls_ssl_close_notify
FUNC 692f0 3c 0 mbedtls_ssl_transform_free
FUNC 6932c 2e 0 mbedtls_ssl_read_version
FUNC 6935a 74 0 mbedtls_ssl_dtls_record_replay_check
FUNC 693d0 21c 0 ssl_buffer_make_space
FUNC 695f0 2c0 0 ssl_bitmask_set
FUNC 698b0 a4 0 ssl_bitmask_check
FUNC 69954 3e0 0 ssl_handle_possible_reconnect
FUNC 69d34 e4 0 ssl_write_real
FUNC 69e18 c 0 mbedtls_debug_set_threshold
FUNC 69e24 a8 0 mbedtls_debug_print_msg
FUNC 69ecc a4 0 mbedtls_debug_print_ret
FUNC 69f70 44 0 _ZL8snprintfPcU17pass_object_size1jPKcz
FUNC 69fb4 258 0 mbedtls_debug_print_buf
FUNC 6a20c c0 0 mbedtls_debug_print_ecp
FUNC 6a2cc 178 0 mbedtls_debug_print_mpi
FUNC 6a444 31c 0 mbedtls_debug_print_crt
FUNC 6a760 60 0 mbedtls_debug_printf_ecdh
FUNC 6a7c0 a6 0 mbedtls_ssl_session_copy
FUNC 6a866 30 0 mbedtls_ssl_session_free
FUNC 6a898 48 0 mbedtls_ssl_tls_prf
FUNC 6a8e0 348 0 tls1_prf
FUNC 6ac28 26 0 tls_prf_sha384
FUNC 6ac4e 26 0 tls_prf_sha256
FUNC 6ac74 2e4 0 mbedtls_ssl_derive_keys
FUNC 6af58 5b8 0 ssl_populate_transform
FUNC 6b510 21c 0 mbedtls_ssl_psk_derive_premaster
FUNC 6b72c cc 0 mbedtls_ssl_resend_hello_request
FUNC 6b7f8 240 0 mbedtls_ssl_write_certificate
FUNC 6ba38 778 0 mbedtls_ssl_parse_certificate
FUNC 6c1b0 1a 0 ssl_clear_peer_cert
FUNC 6c1cc 34 0 mbedtls_ssl_optimize_checksum
FUNC 6c200 2e 0 ssl_update_checksum_md5sha1
FUNC 6c22e a 0 ssl_update_checksum_sha384
FUNC 6c238 a 0 ssl_update_checksum_sha256
FUNC 6c242 36 0 mbedtls_ssl_reset_checksum
FUNC 6c278 6c 0 mbedtls_ssl_handshake_wrapup_free_hs_transform
FUNC 6c2e4 9e 0 mbedtls_ssl_handshake_free
FUNC 6c384 118 0 mbedtls_ssl_handshake_wrapup
FUNC 6c49c 1c0 0 mbedtls_ssl_write_finished
FUNC 6c65c 1c0 0 mbedtls_ssl_parse_finished
FUNC 6c81c 32 0 mbedtls_ssl_transform_init
FUNC 6c84e 26 0 mbedtls_ssl_session_init
FUNC 6c874 e 0 mbedtls_ssl_init
FUNC 6c884 b0 0 mbedtls_ssl_setup
FUNC 6c934 1d8 0 ssl_handshake_init
FUNC 6cb0c fc 0 mbedtls_ssl_session_reset_int
FUNC 6cc08 6 0 mbedtls_ssl_session_reset
FUNC 6cc0e 4 0 mbedtls_ssl_conf_endpoint
FUNC 6cc12 4 0 mbedtls_ssl_conf_transport
FUNC 6cc16 4 0 mbedtls_ssl_conf_dtls_anti_replay
FUNC 6cc1a 4 0 mbedtls_ssl_conf_dtls_badmac_limit
FUNC 6cc1e c 0 mbedtls_ssl_set_datagram_packing
FUNC 6cc2a 6 0 mbedtls_ssl_conf_handshake_timeout
FUNC 6cc30 4 0 mbedtls_ssl_conf_authmode
FUNC 6cc34 6 0 mbedtls_ssl_conf_verify
FUNC 6cc3a 6 0 mbedtls_ssl_conf_rng
FUNC 6cc40 6 0 mbedtls_ssl_conf_dbg
FUNC 6cc46 10 0 mbedtls_ssl_set_bio
FUNC 6cc56 6 0 mbedtls_ssl_set_mtu
FUNC 6cc5c 4 0 mbedtls_ssl_conf_read_timeout
FUNC 6cc60 e 0 mbedtls_ssl_set_timer_cb
FUNC 6cc6e 8 0 mbedtls_ssl_conf_session_cache
FUNC 6cc76 3a 0 mbedtls_ssl_set_session
FUNC 6ccb0 a 0 mbedtls_ssl_conf_ciphersuites
FUNC 6ccba 12 0 mbedtls_ssl_conf_ciphersuites_for_version
FUNC 6cccc 6 0 mbedtls_ssl_conf_cert_profile
FUNC 6ccd2 46 0 mbedtls_ssl_conf_own_cert
FUNC 6cd18 6 0 mbedtls_ssl_conf_ca_chain
FUNC 6cd1e 4c 0 mbedtls_ssl_set_hs_own_cert
FUNC 6cd6a 8 0 mbedtls_ssl_set_hs_ca_chain
FUNC 6cd72 6 0 mbedtls_ssl_set_hs_authmode
FUNC 6cd78 6 0 mbedtls_ssl_set_verify
FUNC 6cd7e d6 0 mbedtls_ssl_conf_psk
FUNC 6ce54 70 0 mbedtls_ssl_set_hs_psk
FUNC 6cec4 6 0 mbedtls_ssl_conf_psk_cb
FUNC 6ceca 48 0 mbedtls_ssl_conf_dh_param
FUNC 6cf12 58 0 mbedtls_ssl_conf_dh_param_bin
FUNC 6cf6a 52 0 mbedtls_ssl_conf_dh_param_ctx
FUNC 6cfbc 4 0 mbedtls_ssl_conf_dhm_min_bitlen
FUNC 6cfc0 6 0 mbedtls_ssl_conf_sig_hashes
FUNC 6cfc6 6 0 mbedtls_ssl_conf_curves
FUNC 6cfcc 7a 0 mbedtls_ssl_set_hostname
FUNC 6d046 6 0 mbedtls_ssl_conf_sni
FUNC 6d04c 4c 0 mbedtls_ssl_conf_alpn_protocols
FUNC 6d098 6 0 mbedtls_ssl_get_alpn_protocol
FUNC 6d09e 6 0 mbedtls_ssl_conf_max_version
FUNC 6d0a4 6 0 mbedtls_ssl_conf_min_version
FUNC 6d0aa 4 0 mbedtls_ssl_conf_fallback
FUNC 6d0ae 4 0 mbedtls_ssl_conf_cert_req_ca_list
FUNC 6d0b2 4 0 mbedtls_ssl_conf_encrypt_then_mac
FUNC 6d0b6 4 0 mbedtls_ssl_conf_extended_master_secret
FUNC 6d0ba 4 0 mbedtls_ssl_conf_arc4_support
FUNC 6d0be 12 0 mbedtls_ssl_conf_max_frag_len
FUNC 6d0d0 4 0 mbedtls_ssl_conf_truncated_hmac
FUNC 6d0d4 4 0 mbedtls_ssl_conf_cbc_record_splitting
FUNC 6d0d8 4 0 mbedtls_ssl_conf_legacy_renegotiation
FUNC 6d0dc 4 0 mbedtls_ssl_conf_renegotiation
FUNC 6d0e0 4 0 mbedtls_ssl_conf_renegotiation_enforced
FUNC 6d0e4 a 0 mbedtls_ssl_conf_renegotiation_period
FUNC 6d0ee 4 0 mbedtls_ssl_conf_session_tickets
FUNC 6d0f2 6 0 mbedtls_ssl_conf_session_tickets_cb
FUNC 6d0f8 a 0 mbedtls_ssl_conf_export_keys_cb
FUNC 6d102 6 0 mbedtls_ssl_conf_export_keys_ext_cb
FUNC 6d108 16 0 mbedtls_ssl_get_verify_result
FUNC 6d11e 12 0 mbedtls_ssl_get_ciphersuite
FUNC 6d130 4c 0 mbedtls_ssl_get_version
FUNC 6d17c 78 0 mbedtls_ssl_get_input_max_frag_len
FUNC 6d1f4 7c 0 mbedtls_ssl_get_output_max_frag_len
FUNC 6d270 4 0 mbedtls_ssl_get_max_frag_len
FUNC 6d274 3a 0 mbedtls_ssl_get_current_mtu
FUNC 6d2b0 c0 0 mbedtls_ssl_get_max_out_record_payload
FUNC 6d370 e 0 mbedtls_ssl_get_peer_cert
FUNC 6d37e 26 0 mbedtls_ssl_get_session
FUNC 6d3a4 a 0 mbedtls_ssl_get_session_pointer
FUNC 6d3ae 18 0 mbedtls_ssl_session_save
FUNC 6d3c6 198 0 ssl_session_save
FUNC 6d55e 40 0 mbedtls_ssl_session_load
FUNC 6d5a0 1a8 0 ssl_session_load
FUNC 6d748 3e 0 mbedtls_ssl_handshake_step
FUNC 6d788 c0 0 mbedtls_ssl_handshake
FUNC 6d848 ac 0 mbedtls_ssl_start_renegotiation
FUNC 6d8f4 110 0 mbedtls_ssl_renegotiate
FUNC 6da04 39c 0 mbedtls_ssl_context_save
FUNC 6dda0 2b4 0 mbedtls_ssl_context_load
FUNC 6e054 130 0 mbedtls_ssl_free
FUNC 6e184 c 0 mbedtls_ssl_config_init
FUNC 6e190 184 0 mbedtls_ssl_config_defaults
FUNC 6e314 a 0 ssl_cookie_write_dummy
FUNC 6e31e a 0 ssl_cookie_check_dummy
FUNC 6e328 6a 0 mbedtls_ssl_config_free
FUNC 6e392 28 0 mbedtls_ssl_sig_from_pk
FUNC 6e3ba 1a 0 mbedtls_ssl_sig_from_pk_alg
FUNC 6e3d4 12 0 mbedtls_ssl_pk_alg_from_sig
FUNC 6e3e6 12 0 mbedtls_ssl_sig_hash_set_find
FUNC 6e3f8 1a 0 mbedtls_ssl_sig_hash_set_add
FUNC 6e412 6 0 mbedtls_ssl_sig_hash_set_const_hash
FUNC 6e418 12 0 mbedtls_ssl_md_alg_from_hash
FUNC 6e42a e 0 mbedtls_ssl_hash_from_md_alg
FUNC 6e438 36 0 mbedtls_ssl_check_curve
FUNC 6e46e 3c 0 mbedtls_ssl_check_curve_tls_id
FUNC 6e4aa 36 0 mbedtls_ssl_check_sig_hash
FUNC 6e4e0 88 0 mbedtls_ssl_check_cert_usage
FUNC 6e568 40 0 mbedtls_ssl_set_calc_verify_md
FUNC 6e5a8 e0 0 ssl_calc_verify_tls
FUNC 6e688 bc 0 ssl_calc_verify_tls_sha384
FUNC 6e744 bc 0 ssl_calc_verify_tls_sha256
FUNC 6e800 1a0 0 mbedtls_ssl_get_key_exchange_md_ssl_tls
FUNC 6e9a0 154 0 mbedtls_ssl_get_key_exchange_md_tls1_2
FUNC 6eaf4 1a4 0 tls_prf_generic
FUNC 6ec98 168 0 ssl_calc_finished_tls
FUNC 6ee00 124 0 ssl_calc_finished_tls_sha384
FUNC 6ef24 11c 0 ssl_calc_finished_tls_sha256
FUNC 6f040 4a 0 ssl_update_checksum_start
FUNC 6f08c 98 0 mbedtls_ssl_list_ciphersuites
FUNC 6f124 20 0 mbedtls_ssl_ciphersuite_from_id
FUNC 6f144 28 0 mbedtls_ssl_ciphersuite_from_string
FUNC 6f16c 30 0 mbedtls_ssl_get_ciphersuite_name
FUNC 6f19c 38 0 mbedtls_ssl_get_ciphersuite_id
FUNC 6f1d4 1c 0 mbedtls_ssl_get_ciphersuite_sig_pk_alg
FUNC 6f1f0 1c 0 mbedtls_ssl_get_ciphersuite_sig_alg
FUNC 6f20c 1c 0 mbedtls_ssl_ciphersuite_uses_ec
FUNC 6f228 e 0 mbedtls_ssl_ciphersuite_uses_psk
FUNC 6f238 18c 0 mbedtls_ssl_handshake_client_step
FUNC 6f3c4 850 0 ssl_write_client_hello
FUNC 6fc14 af4 0 ssl_parse_server_hello
FUNC 70708 5e8 0 ssl_parse_server_key_exchange
FUNC 70cf0 2a0 0 ssl_parse_certificate_request
FUNC 70f90 114 0 ssl_parse_server_hello_done
FUNC 710a4 4d0 0 ssl_write_client_key_exchange
FUNC 71574 2c4 0 ssl_write_certificate_verify
FUNC 71838 224 0 ssl_parse_new_session_ticket
FUNC 71a5c 66 0 ssl_validate_ciphersuite
FUNC 71ac4 90 0 ssl_write_hostname_ext
FUNC 71b54 8c 0 ssl_write_renegotiation_ext
FUNC 71be0 108 0 ssl_write_signature_algorithms_ext
FUNC 71ce8 118 0 ssl_write_supported_elliptic_curves_ext
FUNC 71e00 60 0 ssl_write_supported_point_formats_ext
FUNC 71e60 68 0 ssl_write_max_fragment_length_ext
FUNC 71ec8 60 0 ssl_write_truncated_hmac_ext
FUNC 71f28 64 0 ssl_write_encrypt_then_mac_ext
FUNC 71f8c 64 0 ssl_write_extended_ms_ext
FUNC 71ff0 f0 0 ssl_write_alpn_ext
FUNC 720e0 c0 0 ssl_write_session_ticket_ext
FUNC 721a0 b0 0 ssl_parse_renegotiation_info
FUNC 72250 50 0 ssl_parse_max_fragment_length_ext
FUNC 722a0 50 0 ssl_parse_truncated_hmac_ext
FUNC 722f0 54 0 ssl_parse_encrypt_then_mac_ext
FUNC 72344 54 0 ssl_parse_extended_ms_ext
FUNC 72398 50 0 ssl_parse_session_ticket_ext
FUNC 723e8 a8 0 ssl_parse_supported_point_formats_ext
FUNC 72490 c4 0 ssl_parse_alpn_ext
FUNC 72554 74 0 ssl_parse_server_psk_hint
FUNC 725c8 e0 0 ssl_parse_server_dh_params
FUNC 726a8 74 0 ssl_parse_server_ecdh_params
FUNC 7271c 104 0 ssl_parse_signature_algorithm
FUNC 72820 90 0 ssl_check_server_ecdh_params
FUNC 728b0 188 0 ssl_write_encrypted_pms
FUNC 72a38 5c 0 mbedtls_ssl_set_client_transport_id
FUNC 72a94 6 0 mbedtls_ssl_conf_dtls_cookies
FUNC 72a9c 190 0 mbedtls_ssl_handshake_server_step
FUNC 72c2c ee4 0 ssl_parse_client_hello
FUNC 73b10 82c 0 ssl_write_server_hello
FUNC 7433c 710 0 ssl_write_server_key_exchange
FUNC 74a4c 220 0 ssl_write_certificate_request
FUNC 74c6c c8 0 ssl_write_server_hello_done
FUNC 74d34 528 0 ssl_parse_client_key_exchange
FUNC 7525c 2d4 0 ssl_parse_certificate_verify
FUNC 75530 128 0 ssl_write_new_session_ticket
FUNC 75658 128 0 ssl_parse_servername_ext
FUNC 75780 94 0 ssl_parse_renegotiation_info
FUNC 75814 120 0 ssl_parse_signature_algorithms_ext
FUNC 75934 104 0 ssl_parse_supported_elliptic_curves
FUNC 75a38 84 0 ssl_parse_supported_point_formats
FUNC 75abc 4c 0 ssl_parse_max_fragment_length_ext
FUNC 75b08 50 0 ssl_parse_truncated_hmac_ext
FUNC 75b58 54 0 ssl_parse_encrypt_then_mac_ext
FUNC 75bac 54 0 ssl_parse_extended_ms_ext
FUNC 75c00 164 0 ssl_parse_session_ticket_ext
FUNC 75d64 b0 0 ssl_parse_alpn_ext
FUNC 75e14 3a8 0 ssl_ciphersuite_match
FUNC 761bc d0 0 ssl_parse_client_dh_public
FUNC 7628c 13c 0 ssl_parse_client_psk_identity
FUNC 763c8 224 0 ssl_parse_encrypted_pms
FUNC 765ec 14 0 mbedtls_x509_crt_parse_der_nocopy
FUNC 76600 3f8 0 mbedtls_x509_crt_parse_der_internal
FUNC 769f8 14 0 mbedtls_x509_crt_parse_der_with_ext_cb
FUNC 76a0c 16 0 mbedtls_x509_crt_parse_der
FUNC 76a24 170 0 mbedtls_x509_crt_parse
FUNC 76b94 5c 0 mbedtls_x509_crt_parse_file
FUNC 76bf0 13c 0 mbedtls_x509_crt_parse_path
FUNC 76d2c 44 0 _ZL8snprintfPcU17pass_object_size1jPKcz
FUNC 76d70 180 0 mbedtls_x509_parse_subject_alt_name
FUNC 76ef0 504 0 mbedtls_x509_crt_info
FUNC 773f4 268 0 x509_info_subject_alt_name
FUNC 7765c 1b4 0 x509_info_cert_type
FUNC 77810 1dc 0 x509_info_key_usage
FUNC 779ec 10c 0 x509_info_ext_key_usage
FUNC 77af8 10c 0 x509_info_cert_policies
FUNC 77c04 a4 0 mbedtls_x509_crt_verify_info
FUNC 77ca8 3c 0 mbedtls_x509_crt_check_key_usage
FUNC 77ce4 5a 0 mbedtls_x509_crt_check_extended_key_usage
FUNC 77d3e 2e 0 mbedtls_x509_crt_is_revoked
FUNC 77d6c 24 0 mbedtls_x509_crt_verify
FUNC 77d90 684 0 x509_crt_verify_restartable_ca_cb
FUNC 78414 1c 0 mbedtls_x509_crt_verify_with_profile
FUNC 78430 1c 0 mbedtls_x509_crt_verify_restartable
FUNC 7844c e 0 mbedtls_x509_crt_init
FUNC 7845a fa 0 mbedtls_x509_crt_free
FUNC 78554 80 0 x509_get_dates
FUNC 785d4 3a 0 x509_get_uid
FUNC 78610 2b4 0 x509_get_crt_ext
FUNC 788c4 c0 0 x509_get_basic_constraints
FUNC 78984 84 0 x509_get_key_usage
FUNC 78a08 150 0 x509_get_subject_alt_name
FUNC 78b58 60 0 x509_get_ns_cert_type
FUNC 78bb8 158 0 x509_get_certificate_policies
FUNC 78d10 b8 0 x509_crt_check_cn
FUNC 78dc8 bc 0 x509_name_cmp
FUNC 78e84 50 0 mbedtls_x509_get_serial
FUNC 78ed4 12 0 mbedtls_x509_get_alg_null
FUNC 78ee6 12 0 mbedtls_x509_get_alg
FUNC 78ef8 1b4 0 mbedtls_x509_get_rsassa_pss_params
FUNC 790ac ac 0 x509_get_hash_alg
FUNC 79158 17c 0 mbedtls_x509_get_name
FUNC 792d4 2fc 0 mbedtls_x509_get_time
FUNC 795d0 70 0 mbedtls_x509_get_sig
FUNC 79640 a8 0 mbedtls_x509_get_sig_alg
FUNC 796e8 7c 0 mbedtls_x509_get_ext
FUNC 79764 1a0 0 mbedtls_x509_dn_gets
FUNC 79904 44 0 _ZL8snprintfPcU17pass_object_size1jPKcz
FUNC 79948 120 0 mbedtls_x509_serial_gets
FUNC 79a68 100 0 mbedtls_x509_sig_alg_gets
FUNC 79b68 3c 0 mbedtls_x509_key_size_helper
FUNC 79ba4 90 0 mbedtls_x509_time_is_past
FUNC 79c34 8c 0 mbedtls_x509_time_is_future
FUNC 79cc0 104 0 mbedtls_x509_self_test
FUNC 79dc4 ac 0 x509_date_is_valid
FUNC 79e70 c2 0 mbedtls_asn1_get_len
FUNC 79f32 34 0 mbedtls_asn1_get_tag
FUNC 79f68 78 0 mbedtls_asn1_get_bool
FUNC 79fe0 d8 0 mbedtls_asn1_get_int
FUNC 7a0b8 d8 0 mbedtls_asn1_get_enum
FUNC 7a190 74 0 mbedtls_asn1_get_mpi
FUNC 7a204 78 0 mbedtls_asn1_get_bitstring
FUNC 7a27c d4 0 mbedtls_asn1_traverse_sequence_of
FUNC 7a350 4c 0 mbedtls_asn1_get_bitstring_null
FUNC 7a39c 28 0 mbedtls_asn1_sequence_free
FUNC 7a3c4 e0 0 mbedtls_asn1_get_sequence_of
FUNC 7a4a4 dc 0 mbedtls_asn1_get_alg
FUNC 7a580 5c 0 mbedtls_asn1_get_alg_null
FUNC 7a5dc 26 0 mbedtls_asn1_free_named_data
FUNC 7a602 30 0 mbedtls_asn1_free_named_data_list
FUNC 7a632 36 0 mbedtls_asn1_find_named_data
FUNC 7a668 c 0 mbedtls_mpi_init
FUNC 7a674 2e 0 mbedtls_mpi_free
FUNC 7a6a2 64 0 mbedtls_mpi_grow
FUNC 7a706 b6 0 mbedtls_mpi_shrink
FUNC 7a7bc d2 0 mbedtls_mpi_copy
FUNC 7a890 48 0 mbedtls_mpi_swap
FUNC 7a8d8 6e 0 mbedtls_mpi_lset
FUNC 7a946 20 0 mbedtls_mpi_get_bit
FUNC 7a966 aa 0 mbedtls_mpi_set_bit
FUNC 7aa10 3e 0 mbedtls_mpi_lsb
FUNC 7aa4e 54 0 mbedtls_mpi_bitlen
FUNC 7aaa2 56 0 mbedtls_mpi_size
FUNC 7aaf8 2cc 0 mbedtls_mpi_read_string
FUNC 7adc4 282 0 mbedtls_mpi_mul_int
FUNC 7b048 58 0 mbedtls_mpi_add_int
FUNC 7b0a0 32c 0 mbedtls_mpi_write_string
FUNC 7b3cc 104 0 mbedtls_mpi_read_file
FUNC 7b4d0 f0 0 mbedtls_mpi_write_file
FUNC 7b5c0 5e 0 mbedtls_mpi_read_binary_le
FUNC 7b61e 7e 0 mbedtls_mpi_resize_clear
FUNC 7b69c 6e 0 mbedtls_mpi_read_binary
FUNC 7b70a 84 0 mbedtls_mpi_write_binary_le
FUNC 7b78e 88 0 mbedtls_mpi_write_binary
FUNC 7b816 1ae 0 mbedtls_mpi_shift_l
FUNC 7b9c4 d2 0 mbedtls_mpi_shift_r
FUNC 7ba96 7a 0 mbedtls_mpi_cmp_abs
FUNC 7bb10 a2 0 mbedtls_mpi_cmp_mpi
FUNC 7bbb2 8e 0 mbedtls_mpi_cmp_int
FUNC 7bc40 1d2 0 mbedtls_mpi_add_abs
FUNC 7be12 17a 0 mbedtls_mpi_sub_abs
FUNC 7bf8c 6 0 mbedtls_mpi_add_mpi
FUNC 7bf92 ba 0 add_sub_mpi
FUNC 7c04c 8 0 mbedtls_mpi_sub_mpi
FUNC 7c054 58 0 mbedtls_mpi_sub_int
FUNC 7c0ac 39c 0 mbedtls_mpi_mul_mpi
FUNC 7c448 48c 0 mbedtls_mpi_div_mpi
FUNC 7c8d4 68 0 mbedtls_mpi_div_int
FUNC 7c93c ee 0 mbedtls_mpi_mod_mpi
FUNC 7ca2a 7c 0 mbedtls_mpi_mod_int
FUNC 7caa6 2a 0 mbedtls_mpi_montmul_init
FUNC 7cad0 43e 0 mbedtls_mpi_montmul
FUNC 7cf0e 84 0 mbedtls_mpi_get_mont_r2_unsafe
FUNC 7cf94 6b4 0 mbedtls_mpi_exp_mod
FUNC 7d648 40 0 mpi_select
FUNC 7d688 290 0 mbedtls_mpi_gcd
FUNC 7d918 4c 0 mbedtls_mpi_fill_random
FUNC 7d964 94 0 mpi_fill_random_internal
FUNC 7d9f8 204 0 mbedtls_mpi_random
FUNC 7dbfc 3fc 0 mbedtls_mpi_inv_mod
FUNC 7dff8 b4 0 mbedtls_mpi_is_prime_ext
FUNC 7e0ac c8 0 mpi_check_small_factors
FUNC 7e174 48c 0 mpi_miller_rabin
FUNC 7e600 a 0 mbedtls_mpi_is_prime
FUNC 7e60c 2e4 0 mbedtls_mpi_gen_prime
FUNC 7e8f0 45c 0 mbedtls_mpi_self_test
FUNC 7ed4c 44 0 mbedtls_cipher_list
FUNC 7ed90 2c 0 mbedtls_cipher_info_from_type
FUNC 7edbc 3c 0 mbedtls_cipher_info_from_string
FUNC 7edf8 3c 0 mbedtls_cipher_info_from_values
FUNC 7ee34 16 0 mbedtls_cipher_init
FUNC 7ee4a 26 0 mbedtls_cipher_free
FUNC 7ee70 64 0 mbedtls_cipher_setup
FUNC 7eed4 40 0 mbedtls_cipher_set_padding_mode
FUNC 7ef14 5a 0 mbedtls_cipher_setkey
FUNC 7ef6e 76 0 mbedtls_cipher_set_iv
FUNC 7efe4 16 0 mbedtls_cipher_reset
FUNC 7effa 76 0 mbedtls_cipher_update_ad
FUNC 7f070 28e 0 mbedtls_cipher_update
FUNC 7f2fe f8 0 mbedtls_cipher_finish
FUNC 7f3f6 56 0 add_pkcs_padding
FUNC 7f44c 86 0 get_pkcs_padding
FUNC 7f4d2 62 0 add_one_and_zeros_padding
FUNC 7f534 94 0 get_one_and_zeros_padding
FUNC 7f5c8 6a 0 add_zeros_and_len_padding
FUNC 7f632 7a 0 get_zeros_and_len_padding
FUNC 7f6ac 14 0 add_zeros_padding
FUNC 7f6c0 68 0 get_zeros_padding
FUNC 7f728 16 0 get_no_padding
FUNC 7f73e 54 0 mbedtls_cipher_write_tag
FUNC 7f794 cc 0 mbedtls_cipher_check_tag
FUNC 7f860 e0 0 mbedtls_cipher_crypt
FUNC 7f940 2c 0 mbedtls_cipher_auth_encrypt
FUNC 7f96c ac 0 mbedtls_cipher_aead_encrypt
FUNC 7fa18 2c 0 mbedtls_cipher_auth_decrypt
FUNC 7fa44 c2 0 mbedtls_cipher_aead_decrypt
FUNC 7fb06 56 0 mbedtls_cipher_auth_encrypt_ext
FUNC 7fb5c 5a 0 mbedtls_cipher_auth_decrypt_ext
FUNC 7fbb6 1e 0 mbedtls_chacha20_init
FUNC 7fbd4 c 0 mbedtls_chacha20_free
FUNC 7fbe0 40 0 mbedtls_chacha20_setkey
FUNC 7fc20 28 0 mbedtls_chacha20_starts
FUNC 7fc48 19e 0 mbedtls_chacha20_update
FUNC 7fde8 2a4 0 chacha20_block
FUNC 80090 c8 0 mbedtls_chacha20_crypt
FUNC 80160 1d4 0 mbedtls_chacha20_self_test
FUNC 80334 28 0 mbedtls_chachapoly_init
FUNC 8035c 2e 0 mbedtls_chachapoly_free
FUNC 8038a 4 0 mbedtls_chachapoly_setkey
FUNC 80390 9c 0 mbedtls_chachapoly_starts
FUNC 8042c 2c 0 mbedtls_chachapoly_update_aad
FUNC 80458 d4 0 mbedtls_chachapoly_update
FUNC 8052c 110 0 mbedtls_chachapoly_finish
FUNC 8063c 28 0 mbedtls_chachapoly_encrypt_and_tag
FUNC 80664 e8 0 chachapoly_crypt_and_tag
FUNC 8074c 78 0 mbedtls_chachapoly_auth_decrypt
FUNC 807c4 150 0 mbedtls_chachapoly_self_test
FUNC 80914 16 0 mbedtls_ccm_init
FUNC 8092a 56 0 mbedtls_ccm_setkey
FUNC 80980 1c 0 mbedtls_ccm_free
FUNC 8099c 38 0 mbedtls_ccm_star_encrypt_and_tag
FUNC 809d4 488 0 ccm_auth_crypt
FUNC 80e5c 40 0 mbedtls_ccm_encrypt_and_tag
FUNC 80e9c 80 0 mbedtls_ccm_star_auth_decrypt
FUNC 80f1c 84 0 mbedtls_ccm_auth_decrypt
FUNC 80fa0 230 0 mbedtls_ccm_self_test
FUNC 811d0 4 0 aes_crypt_ecb_wrap
FUNC 811d4 14 0 aes_crypt_cbc_wrap
FUNC 811e8 18 0 aes_crypt_cfb128_wrap
FUNC 81200 14 0 aes_crypt_ofb_wrap
FUNC 81214 18 0 aes_crypt_ctr_wrap
FUNC 8122c 4 0 aes_setkey_enc_wrap
FUNC 81230 4 0 aes_setkey_dec_wrap
FUNC 81234 1a 0 aes_ctx_alloc
FUNC 8124e 14 0 aes_ctx_free
FUNC 81262 22 0 aes_crypt_xts_wrap
FUNC 81284 4 0 xts_aes_setkey_enc_wrap
FUNC 81288 4 0 xts_aes_setkey_dec_wrap
FUNC 8128c 1a 0 xts_aes_ctx_alloc
FUNC 812a6 1a 0 xts_aes_ctx_free
FUNC 812c0 a 0 gcm_aes_setkey_wrap
FUNC 812ca 1a 0 gcm_ctx_alloc
FUNC 812e4 14 0 gcm_ctx_free
FUNC 812f8 a 0 ccm_aes_setkey_wrap
FUNC 81302 18 0 ccm_ctx_alloc
FUNC 8131a 14 0 ccm_ctx_free
FUNC 8132e 4 0 arc4_crypt_stream_wrap
FUNC 81332 1c 0 arc4_setkey_wrap
FUNC 8134e 1a 0 arc4_ctx_alloc
FUNC 81368 14 0 arc4_ctx_free
FUNC 8137c 4 0 blowfish_crypt_ecb_wrap
FUNC 81380 14 0 blowfish_crypt_cbc_wrap
FUNC 81394 18 0 blowfish_crypt_cfb64_wrap
FUNC 813ac 18 0 blowfish_crypt_ctr_wrap
FUNC 813c4 4 0 blowfish_setkey_wrap
FUNC 813c8 1a 0 blowfish_ctx_alloc
FUNC 813e2 14 0 blowfish_ctx_free
FUNC 813f6 4 0 camellia_crypt_ecb_wrap
FUNC 813fa 14 0 camellia_crypt_cbc_wrap
FUNC 8140e 18 0 camellia_crypt_cfb128_wrap
FUNC 81426 18 0 camellia_crypt_ctr_wrap
FUNC 8143e 4 0 camellia_setkey_enc_wrap
FUNC 81442 4 0 camellia_setkey_dec_wrap
FUNC 81446 1a 0 camellia_ctx_alloc
FUNC 81460 14 0 camellia_ctx_free
FUNC 81474 a 0 gcm_camellia_setkey_wrap
FUNC 8147e a 0 ccm_camellia_setkey_wrap
FUNC 81488 8 0 des_crypt_ecb_wrap
FUNC 81490 14 0 des_crypt_cbc_wrap
FUNC 814a4 4 0 des_setkey_enc_wrap
FUNC 814a8 4 0 des_setkey_dec_wrap
FUNC 814ac 18 0 des_ctx_alloc
FUNC 814c4 14 0 des_ctx_free
FUNC 814d8 8 0 des3_crypt_ecb_wrap
FUNC 814e0 14 0 des3_crypt_cbc_wrap
FUNC 814f4 4 0 des3_set2key_enc_wrap
FUNC 814f8 4 0 des3_set2key_dec_wrap
FUNC 814fc 1a 0 des3_ctx_alloc
FUNC 81516 14 0 des3_ctx_free
FUNC 8152a 4 0 des3_set3key_enc_wrap
FUNC 8152e 4 0 des3_set3key_dec_wrap
FUNC 81532 18 0 chacha20_stream_wrap
FUNC 8154a 20 0 chacha20_setkey_wrap
FUNC 8156a 18 0 chacha20_ctx_alloc
FUNC 81582 14 0 chacha20_ctx_free
FUNC 81596 20 0 chachapoly_setkey_wrap
FUNC 815b6 18 0 chachapoly_ctx_alloc
FUNC 815ce 14 0 chachapoly_ctx_free
FUNC 815e2 e 0 mbedtls_aes_init
FUNC 815f0 e 0 mbedtls_aes_free
FUNC 815fe 1c 0 mbedtls_aes_xts_init
FUNC 8161a 24 0 mbedtls_aes_xts_free
FUNC 81640 4b0 0 mbedtls_aes_setkey_enc
FUNC 81af0 1f0 0 mbedtls_aes_setkey_dec
FUNC 81ce0 4c 0 mbedtls_aes_xts_setkey_enc
FUNC 81d2c 4c 0 mbedtls_aes_xts_setkey_dec
FUNC 81d78 424 0 mbedtls_internal_aes_encrypt
FUNC 8219c 4 0 mbedtls_aes_encrypt
FUNC 821a0 424 0 mbedtls_internal_aes_decrypt
FUNC 825c4 4 0 mbedtls_aes_decrypt
FUNC 825c8 20 0 mbedtls_aes_crypt_ecb
FUNC 825e8 214 0 mbedtls_aes_crypt_cbc
FUNC 827fc 5d8 0 mbedtls_aes_crypt_xts
FUNC 82dd4 a4 0 mbedtls_aes_crypt_cfb128
FUNC 82e78 b4 0 mbedtls_aes_crypt_cfb8
FUNC 82f2c 66 0 mbedtls_aes_crypt_ofb
FUNC 82f92 80 0 mbedtls_aes_crypt_ctr
FUNC 83014 774 0 mbedtls_aes_self_test
FUNC 83788 e 0 mbedtls_arc4_init
FUNC 83796 e 0 mbedtls_arc4_free
FUNC 837b0 1f0 0 mbedtls_arc4_setup
FUNC 839a0 58 0 mbedtls_arc4_crypt
FUNC 83a00 59c 0 mbedtls_arc4_self_test
FUNC 83f9c e 0 mbedtls_blowfish_init
FUNC 83faa e 0 mbedtls_blowfish_free
FUNC 83fb8 1ac 0 mbedtls_blowfish_setkey
FUNC 84164 de 0 mbedtls_blowfish_crypt_ecb
FUNC 84242 132 0 mbedtls_blowfish_crypt_cbc
FUNC 84374 a8 0 mbedtls_blowfish_crypt_cfb64
FUNC 8441c e0 0 mbedtls_blowfish_crypt_ctr
FUNC 844fc e 0 mbedtls_camellia_init
FUNC 8450a e 0 mbedtls_camellia_free
FUNC 84518 a6c 0 mbedtls_camellia_setkey_enc
FUNC 84f84 1a8 0 mbedtls_camellia_setkey_dec
FUNC 8512c 400 0 mbedtls_camellia_crypt_ecb
FUNC 8552c 1e4 0 mbedtls_camellia_crypt_cbc
FUNC 85710 a4 0 mbedtls_camellia_crypt_cfb128
FUNC 857b4 80 0 mbedtls_camellia_crypt_ctr
FUNC 85834 928 0 mbedtls_camellia_self_test
FUNC 8615c 32 0 mbedtls_ct_memcmp
FUNC 8618e a 0 mbedtls_ct_uint_mask
FUNC 86198 a 0 mbedtls_ct_size_mask
FUNC 861a2 a 0 mbedtls_ct_mpi_uint_mask
FUNC 861ac 8 0 mbedtls_ct_size_mask_ge
FUNC 861b4 a 0 mbedtls_ct_size_bool_eq
FUNC 861be 10 0 mbedtls_ct_mpi_uint_lt
FUNC 861ce a 0 mbedtls_ct_uint_if
FUNC 861d8 90 0 mbedtls_ct_mpi_uint_cond_assign
FUNC 86268 62 0 mbedtls_ct_base64_enc_char
FUNC 862d0 98 0 mbedtls_ct_base64_dec_value
FUNC 86368 7a 0 mbedtls_ct_memcpy_if_eq
FUNC 863e2 b0 0 mbedtls_ct_memcpy_offset
FUNC 86494 194 0 mbedtls_ct_hmac
FUNC 86628 e6 0 mbedtls_mpi_safe_cond_assign
FUNC 8670e 9e 0 mbedtls_mpi_safe_cond_swap
FUNC 867ac a6 0 mbedtls_mpi_lt_mpi_ct
FUNC 86852 1aa 0 mbedtls_ct_rsaes_pkcs1_v15_unpadding
FUNC 869fc 1c 0 mbedtls_ctr_drbg_init
FUNC 86a18 32 0 mbedtls_ctr_drbg_free
FUNC 86a4a 4 0 mbedtls_ctr_drbg_set_prediction_resistance
FUNC 86a4e 4 0 mbedtls_ctr_drbg_set_entropy_len
FUNC 86a52 1e 0 mbedtls_ctr_drbg_set_nonce_len
FUNC 86a70 4 0 mbedtls_ctr_drbg_set_reseed_interval
FUNC 86a74 54 0 mbedtls_ctr_drbg_update_ret
FUNC 86ad0 268 0 block_cipher_df
FUNC 86d38 188 0 ctr_drbg_update_internal
FUNC 86ec0 54 0 mbedtls_ctr_drbg_update
FUNC 86f14 6 0 mbedtls_ctr_drbg_reseed
FUNC 86f1c dc 0 mbedtls_ctr_drbg_reseed_internal
FUNC 86ff8 94 0 mbedtls_ctr_drbg_seed
FUNC 8708c 208 0 mbedtls_ctr_drbg_random_with_add
FUNC 87294 12 0 mbedtls_ctr_drbg_random
FUNC 872a8 8c 0 mbedtls_ctr_drbg_write_seed_file
FUNC 87334 114 0 mbedtls_ctr_drbg_update_seed_file
FUNC 87448 1fc 0 mbedtls_ctr_drbg_self_test
FUNC 87644 2c 0 ctr_drbg_self_test_entropy
FUNC 87670 26 0 mbedtls_des_init
FUNC 87696 c 0 mbedtls_des_free
FUNC 876a2 e 0 mbedtls_des3_init
FUNC 876b0 e 0 mbedtls_des3_free
FUNC 876c0 60 0 mbedtls_des_key_set_parity
FUNC 87720 60 0 mbedtls_des_key_check_key_parity
FUNC 87780 104 0 mbedtls_des_key_check_weak
FUNC 87884 334 0 mbedtls_des_setkey
FUNC 87bb8 c 0 mbedtls_des_setkey_enc
FUNC 87bc4 8e 0 mbedtls_des_setkey_dec
FUNC 87c54 bc 0 mbedtls_des3_set2key_enc
FUNC 87d10 bc 0 mbedtls_des3_set2key_dec
FUNC 87dcc b0 0 mbedtls_des3_set3key_enc
FUNC 87e7c b0 0 mbedtls_des3_set3key_dec
FUNC 87f2c 208 0 mbedtls_des_crypt_ecb
FUNC 88134 120 0 mbedtls_des_crypt_cbc
FUNC 88254 424 0 mbedtls_des3_crypt_ecb
FUNC 88678 120 0 mbedtls_des3_crypt_cbc
FUNC 88798 834 0 mbedtls_des_self_test
FUNC 88fcc 28 0 mbedtls_dhm_init
FUNC 88ff4 160 0 mbedtls_dhm_read_params
FUNC 89154 b2 0 mbedtls_dhm_make_params
FUNC 89208 100 0 dhm_make_common
FUNC 89308 3c 0 mbedtls_dhm_set_group
FUNC 89344 30 0 mbedtls_dhm_read_public
FUNC 89374 62 0 mbedtls_dhm_make_public
FUNC 893d8 2a0 0 mbedtls_dhm_calc_secret
FUNC 89678 68 0 mbedtls_dhm_free
FUNC 896e0 128 0 mbedtls_dhm_parse_dhm
FUNC 89808 d0 0 mbedtls_dhm_parse_dhmfile
FUNC 898d8 b8 0 mbedtls_dhm_self_test
FUNC 89990 4 0 mbedtls_ecdh_can_do
FUNC 89994 3e 0 mbedtls_ecdh_gen_public
FUNC 899d4 88 0 mbedtls_ecdh_compute_shared
FUNC 89a5c 4a 0 mbedtls_ecdh_init
FUNC 89aa6 16 0 mbedtls_ecdh_setup
FUNC 89abc 50 0 mbedtls_ecdh_free
FUNC 89b0c b8 0 mbedtls_ecdh_make_params
FUNC 89bc4 6c 0 mbedtls_ecdh_read_params
FUNC 89c30 76 0 mbedtls_ecdh_get_params
FUNC 89ca6 70 0 mbedtls_ecdh_make_public
FUNC 89d18 58 0 mbedtls_ecdh_read_public
FUNC 89d70 e8 0 mbedtls_ecdh_calc_secret
FUNC 89e58 c 0 mbedtls_ecp_curve_list
FUNC 89e70 7c 0 mbedtls_ecp_grp_id_list
FUNC 89eec 18 0 mbedtls_ecp_curve_info_from_grp_id
FUNC 89f04 1c 0 mbedtls_ecp_curve_info_from_tls_id
FUNC 89f20 144 0 mbedtls_ecp_curve_info_from_name
FUNC 8a064 16 0 mbedtls_ecp_get_type
FUNC 8a07a 1e 0 mbedtls_ecp_point_init
FUNC 8a098 5e 0 mbedtls_ecp_group_init
FUNC 8a0f6 80 0 mbedtls_ecp_keypair_init
FUNC 8a176 24 0 mbedtls_ecp_point_free
FUNC 8a19a a6 0 mbedtls_ecp_group_free
FUNC 8a240 34 0 mbedtls_ecp_keypair_free
FUNC 8a274 32 0 mbedtls_ecp_copy
FUNC 8a2a6 6 0 mbedtls_ecp_group_copy
FUNC 8a2ac 2e 0 mbedtls_ecp_set_zero
FUNC 8a2da 14 0 mbedtls_ecp_is_zero
FUNC 8a2ee 38 0 mbedtls_ecp_point_cmp
FUNC 8a326 3a 0 mbedtls_ecp_point_read_string
FUNC 8a360 f0 0 mbedtls_ecp_point_write_binary
FUNC 8a450 f6 0 mbedtls_ecp_point_read_binary
FUNC 8a546 3e 0 mbedtls_ecp_tls_read_point
FUNC 8a584 40 0 mbedtls_ecp_tls_write_point
FUNC 8a5c4 58 0 mbedtls_ecp_tls_read_group
FUNC 8a61c 60 0 mbedtls_ecp_tls_read_group_id
FUNC 8a67c 50 0 mbedtls_ecp_tls_write_group
FUNC 8a6d0 8c0 0 mbedtls_ecp_mul_restartable
FUNC 8af90 80 0 mbedtls_ecp_check_privkey
FUNC 8b010 214 0 mbedtls_ecp_check_pubkey
FUNC 8b224 16 0 mbedtls_ecp_mul
FUNC 8b23c c4 0 mbedtls_ecp_muladd_restartable
FUNC 8b300 116 0 mbedtls_ecp_mul_shortcuts
FUNC 8b418 2ec 0 ecp_add_mixed
FUNC 8b704 c4 0 ecp_normalize_jac
FUNC 8b7c8 1a 0 mbedtls_ecp_muladd
FUNC 8b7e2 a2 0 mbedtls_ecp_gen_privkey
FUNC 8b884 3a 0 mbedtls_ecp_gen_keypair_base
FUNC 8b8be 3a 0 mbedtls_ecp_gen_keypair
FUNC 8b8f8 48 0 mbedtls_ecp_gen_key
FUNC 8b940 da 0 mbedtls_ecp_read_key
FUNC 8ba1a 68 0 mbedtls_ecp_write_key
FUNC 8ba84 ec 0 mbedtls_ecp_check_pub_priv
FUNC 8bb70 1ec 0 mbedtls_ecp_self_test
FUNC 8bd5c 110 0 self_test_point
FUNC 8be6c 4 0 ecp_drbg_random
FUNC 8be70 90 0 ecp_randomize_mxz
FUNC 8bf00 218 0 ecp_double_add_mxz
FUNC 8c118 40 0 ecp_normalize_mxz
FUNC 8c158 c4 0 mbedtls_mpi_mul_mod
FUNC 8c21c 3a 0 mbedtls_mpi_add_mod
FUNC 8c256 40 0 mbedtls_mpi_sub_mod
FUNC 8c298 2d4 0 ecp_double_jac
FUNC 8c56c 21c 0 ecp_normalize_jac_many
FUNC 8c788 38 0 mbedtls_mpi_shift_l_mod
FUNC 8c7c0 d0 0 ecp_randomize_jac
FUNC 8c890 b8 0 ecp_select_comb
FUNC 8c948 630 0 mbedtls_ecp_group_load
FUNC 8cf78 108 0 ecp_mod_p192
FUNC 8d080 26a 0 ecp_mod_p224
FUNC 8d2ea 3e2 0 ecp_mod_p256
FUNC 8d6cc 4ce 0 ecp_mod_p384
FUNC 8db9c 90 0 ecp_mod_p521
FUNC 8dc2c 10 0 ecp_mod_p192k1
FUNC 8dc3c 10 0 ecp_mod_p224k1
FUNC 8dc4c 10 0 ecp_mod_p256k1
FUNC 8dc5c c4 0 ecp_mod_p255
FUNC 8dd20 124 0 ecp_mod_p448
FUNC 8de44 128 0 ecp_mod_koblitz
FUNC 8df6c 80 0 mbedtls_entropy_init
FUNC 8dfec 34 0 mbedtls_entropy_add_source
FUNC 8e020 36 0 mbedtls_entropy_free
FUNC 8e056 a 0 mbedtls_entropy_update_manual
FUNC 8e060 a8 0 entropy_update
FUNC 8e108 4 0 mbedtls_entropy_gather
FUNC 8e10c c0 0 entropy_gather_internal
FUNC 8e1cc 120 0 mbedtls_entropy_func
FUNC 8e2ec 94 0 mbedtls_entropy_write_seed_file
FUNC 8e380 c0 0 mbedtls_entropy_update_seed_file
FUNC 8e440 484 0 mbedtls_entropy_self_test
FUNC 8e8c4 18 0 entropy_dummy_source
FUNC 8e8dc 58 0 mbedtls_platform_entropy_poll
FUNC 8e934 2c 0 mbedtls_hardclock_poll
FUNC 8e960 28 0 mbedtls_high_level_strerr
FUNC 8e988 28 0 mbedtls_low_level_strerr
FUNC 8e9b0 c8 0 mbedtls_strerror
FUNC 8ea78 44 0 _ZL8snprintfPcU17pass_object_size1jPKcz
FUNC 8eabc e 0 mbedtls_gcm_init
FUNC 8eacc 330 0 mbedtls_gcm_setkey
FUNC 8edfc 1e8 0 mbedtls_gcm_starts
FUNC 8efe4 174 0 gcm_mult
FUNC 8f158 144 0 mbedtls_gcm_update
FUNC 8f29c 17a 0 mbedtls_gcm_finish
FUNC 8f416 52 0 mbedtls_gcm_crypt_and_tag
FUNC 8f468 88 0 mbedtls_gcm_auth_decrypt
FUNC 8f4f0 1e 0 mbedtls_gcm_free
FUNC 8f510 4e0 0 mbedtls_gcm_self_test
FUNC 8f9f0 2a 0 mbedtls_hmac_drbg_init
FUNC 8fa1c f8 0 mbedtls_hmac_drbg_update_ret
FUNC 8fb14 4 0 mbedtls_hmac_drbg_update
FUNC 8fb18 56 0 mbedtls_hmac_drbg_seed_buf
FUNC 8fb70 ac 0 mbedtls_hmac_drbg_reseed
FUNC 8fc1c 108 0 mbedtls_hmac_drbg_seed
FUNC 8fd24 4 0 mbedtls_hmac_drbg_set_prediction_resistance
FUNC 8fd28 4 0 mbedtls_hmac_drbg_set_entropy_len
FUNC 8fd2c 4 0 mbedtls_hmac_drbg_set_reseed_interval
FUNC 8fd30 17c 0 mbedtls_hmac_drbg_random_with_add
FUNC 8feac 12 0 mbedtls_hmac_drbg_random
FUNC 8febe 24 0 mbedtls_hmac_drbg_free
FUNC 8fee4 8c 0 mbedtls_hmac_drbg_write_seed_file
FUNC 8ff70 110 0 mbedtls_hmac_drbg_update_seed_file
FUNC 90080 244 0 mbedtls_hmac_drbg_self_test
FUNC 902c4 2c 0 hmac_drbg_self_test_entropy
FUNC 902f0 c 0 mbedtls_md_list
FUNC 902fc f0 0 mbedtls_md_info_from_string
FUNC 903ec 18 0 mbedtls_md_info_from_type
FUNC 90404 a 0 mbedtls_md_init
FUNC 90410 6c 0 mbedtls_md_free
FUNC 9047c 76 0 mbedtls_md_clone
FUNC 904f2 6 0 mbedtls_md_init_ctx
FUNC 904f8 c2 0 mbedtls_md_setup
FUNC 905bc 5a 0 mbedtls_md_starts
FUNC 90618 4a 0 mbedtls_md_update
FUNC 90664 46 0 mbedtls_md_finish
FUNC 906ac 72 0 mbedtls_md
FUNC 90720 dc 0 mbedtls_md_file
FUNC 907fc 1a0 0 mbedtls_md_hmac_starts
FUNC 9099c 1e 0 mbedtls_md_hmac_update
FUNC 909bc 94 0 mbedtls_md_hmac_finish
FUNC 90a50 3a 0 mbedtls_md_hmac_reset
FUNC 90a8c 9c 0 mbedtls_md_hmac
FUNC 90b28 46 0 mbedtls_md_process
FUNC 90b6e a 0 mbedtls_md_get_size
FUNC 90b78 a 0 mbedtls_md_get_type
FUNC 90b82 a 0 mbedtls_md_get_name
FUNC 90b8c 20 0 mbedtls_md5_init
FUNC 90bac c 0 mbedtls_md5_free
FUNC 90bb8 c 0 mbedtls_md5_clone
FUNC 90bd0 40 0 mbedtls_md5_starts_ret
FUNC 90c10 30 0 mbedtls_md5_starts
FUNC 90c40 7b8 0 mbedtls_internal_md5_process
FUNC 913f8 4 0 mbedtls_md5_process
FUNC 913fc 82 0 mbedtls_md5_update_ret
FUNC 9147e 4 0 mbedtls_md5_update
FUNC 91482 e4 0 mbedtls_md5_finish_ret
FUNC 91566 4 0 mbedtls_md5_finish
FUNC 91570 98 0 mbedtls_md5_ret
FUNC 91610 98 0 mbedtls_md5
FUNC 916b0 140 0 mbedtls_md5_self_test
FUNC 917f0 64 0 mbedtls_oid_get_attr_short_name
FUNC 91854 c4 0 mbedtls_oid_get_x509_ext_type
FUNC 91918 e0 0 mbedtls_oid_get_extended_key_usage
FUNC 919f8 2c 0 mbedtls_oid_get_certificate_policies
FUNC 91a24 64 0 mbedtls_oid_get_sig_alg_desc
FUNC 91a88 6c 0 mbedtls_oid_get_sig_alg
FUNC 91af4 74 0 mbedtls_oid_get_oid_by_sig_alg
FUNC 91b68 84 0 mbedtls_oid_get_pk_alg
FUNC 91bec 34 0 mbedtls_oid_get_oid_by_pk_alg
FUNC 91c20 150 0 mbedtls_oid_get_ec_grp
FUNC 91d70 44 0 mbedtls_oid_get_oid_by_ec_grp
FUNC 91db4 60 0 mbedtls_oid_get_cipher_alg
FUNC 91e14 fc 0 mbedtls_oid_get_md_alg
FUNC 91f10 34 0 mbedtls_oid_get_oid_by_md
FUNC 91f44 a4 0 mbedtls_oid_get_md_hmac
FUNC 91fe8 68 0 mbedtls_oid_get_pkcs12_pbe_alg
FUNC 92050 d8 0 mbedtls_oid_get_numeric_string
FUNC 92128 44 0 _ZL8snprintfPcU17pass_object_size1jPKcz
FUNC 9216c a 0 mbedtls_pem_init
FUNC 92178 3ac 0 mbedtls_pem_read_buffer
FUNC 92524 94 0 pem_get_iv
FUNC 925b8 88 0 pem_des3_decrypt
FUNC 92640 88 0 pem_des_decrypt
FUNC 926c8 88 0 pem_aes_decrypt
FUNC 92750 28 0 mbedtls_pem_free
FUNC 92778 12c 0 mbedtls_pem_write_buffer
FUNC 928a4 100 0 pem_pbkdf1
FUNC 929a4 130 0 mbedtls_base64_encode
FUNC 92ad4 1a8 0 mbedtls_base64_decode
FUNC 92c7c d4 0 mbedtls_base64_self_test
FUNC 92d50 8 0 mbedtls_pk_init
FUNC 92d58 24 0 mbedtls_pk_free
FUNC 92d7c 18 0 mbedtls_pk_info_from_type
FUNC 92d94 3e 0 mbedtls_pk_setup
FUNC 92dd4 58 0 mbedtls_pk_setup_rsa_alt
FUNC 92e2c 12 0 mbedtls_pk_can_do
FUNC 92e3e 7a 0 mbedtls_pk_verify_restartable
FUNC 92eb8 7a 0 mbedtls_pk_verify
FUNC 92f32 124 0 mbedtls_pk_verify_ext
FUNC 93056 80 0 mbedtls_pk_sign_restartable
FUNC 930d6 80 0 mbedtls_pk_sign
FUNC 93156 4c 0 mbedtls_pk_decrypt
FUNC 931a2 4c 0 mbedtls_pk_encrypt
FUNC 931ee 54 0 mbedtls_pk_check_pair
FUNC 93242 12 0 mbedtls_pk_get_bitlen
FUNC 93254 2c 0 mbedtls_pk_debug
FUNC 93280 18 0 mbedtls_pk_get_name
FUNC 93298 e 0 mbedtls_pk_get_type
FUNC 932a8 68 0 rsa_get_bitlen
FUNC 93310 14 0 rsa_can_do
FUNC 93324 54 0 rsa_verify_wrap
FUNC 93378 38 0 rsa_sign_wrap
FUNC 933b0 42 0 rsa_decrypt_wrap
FUNC 933f2 42 0 rsa_encrypt_wrap
FUNC 93434 4 0 rsa_check_pair_wrap
FUNC 93438 1c 0 rsa_alloc_wrap
FUNC 93454 14 0 rsa_free_wrap
FUNC 93468 2c 0 rsa_debug
FUNC 93494 4 0 eckey_get_bitlen
FUNC 93498 18 0 eckey_can_do
FUNC 934b0 7c 0 eckey_verify_wrap
FUNC 9352c 78 0 eckey_sign_wrap
FUNC 935a4 4 0 eckey_check_pair
FUNC 935a8 18 0 eckey_alloc_wrap
FUNC 935c0 14 0 eckey_free_wrap
FUNC 935d4 14 0 eckey_debug
FUNC 935e8 e 0 eckeydh_can_do
FUNC 935f6 a 0 ecdsa_can_do
FUNC 93600 2c 0 ecdsa_verify_wrap
FUNC 9362c 1c 0 ecdsa_sign_wrap
FUNC 93648 18 0 ecdsa_alloc_wrap
FUNC 93660 14 0 ecdsa_free_wrap
FUNC 93674 10 0 rsa_alt_get_bitlen
FUNC 93684 a 0 rsa_alt_can_do
FUNC 9368e 4a 0 rsa_alt_sign_wrap
FUNC 936d8 40 0 rsa_alt_decrypt_wrap
FUNC 93718 108 0 rsa_alt_check_pair
FUNC 93820 8 0 rsa_alt_alloc_wrap
FUNC 93828 16 0 rsa_alt_free_wrap
FUNC 9383e c 0 mbedtls_ecdsa_can_do
FUNC 9384a 22 0 mbedtls_ecdsa_sign
FUNC 9386c 1e8 0 ecdsa_sign_restartable
FUNC 93a54 20 0 mbedtls_ecdsa_sign_det
FUNC 93a74 194 0 ecdsa_sign_det_restartable
FUNC 93c08 2a 0 mbedtls_ecdsa_sign_det_ext
FUNC 93c32 14 0 mbedtls_ecdsa_verify
FUNC 93c48 1d0 0 ecdsa_verify_restartable
FUNC 93e18 ec 0 mbedtls_ecdsa_write_signature_restartable
FUNC 93f04 1e 0 mbedtls_ecdsa_write_signature
FUNC 93f22 22 0 mbedtls_ecdsa_write_signature_det
FUNC 93f44 16 0 mbedtls_ecdsa_read_signature
FUNC 93f5c d0 0 mbedtls_ecdsa_read_signature_restartable
FUNC 9402c 30 0 mbedtls_ecdsa_genkey
FUNC 9405c 3c 0 mbedtls_ecdsa_from_keypair
FUNC 94098 a 0 mbedtls_ecdsa_free
FUNC 940a2 4 0 mbedtls_ecdsa_init
FUNC 940a6 6a 0 derive_mpi
FUNC 94110 100 0 mbedtls_asn1_write_len
FUNC 94210 1a 0 mbedtls_asn1_write_tag
FUNC 9422a 32 0 mbedtls_asn1_write_raw_buffer
FUNC 9425c 96 0 mbedtls_asn1_write_mpi
FUNC 942f2 30 0 mbedtls_asn1_write_null
FUNC 94322 70 0 mbedtls_asn1_write_oid
FUNC 94392 1a 0 mbedtls_asn1_write_algorithm_identifier
FUNC 943ac d8 0 mbedtls_asn1_write_algorithm_identifier_ext
FUNC 94484 4c 0 mbedtls_asn1_write_bool
FUNC 944d0 76 0 mbedtls_asn1_write_int
FUNC 94546 76 0 mbedtls_asn1_write_enum
FUNC 945bc 76 0 mbedtls_asn1_write_tagged_string
FUNC 94632 70 0 mbedtls_asn1_write_utf8_string
FUNC 946a2 70 0 mbedtls_asn1_write_printable_string
FUNC 94712 70 0 mbedtls_asn1_write_ia5_string
FUNC 94782 d6 0 mbedtls_asn1_write_named_bitstring
FUNC 94858 a0 0 mbedtls_asn1_write_bitstring
FUNC 948f8 70 0 mbedtls_asn1_write_octet_string
FUNC 94968 e0 0 mbedtls_asn1_store_named_data
FUNC 94a48 cc 0 mbedtls_pk_load_file
FUNC 94b14 84 0 mbedtls_pk_parse_keyfile
FUNC 94b98 2e8 0 mbedtls_pk_parse_key
FUNC 94e80 7c 0 mbedtls_pk_parse_public_keyfile
FUNC 94efc 198 0 mbedtls_pk_parse_public_key
FUNC 95094 174 0 mbedtls_pk_parse_subpubkey
FUNC 95208 fc 0 pk_get_rsapubkey
FUNC 95304 390 0 pk_use_ecparams
FUNC 95694 32 0 pk_get_ecpubkey
FUNC 956c8 214 0 pk_parse_key_pkcs1_der
FUNC 958dc 178 0 pk_parse_key_sec1_der
FUNC 95a54 184 0 pk_parse_key_pkcs8_unencrypted_der
FUNC 95bd8 154 0 pk_parse_key_pkcs8_encrypted_der
FUNC 95d2c 2a 0 asn1_get_nonzero_mpi
FUNC 95d56 66 0 pk_get_ecparams
FUNC 95dbc 94 0 mbedtls_pkcs12_pbe_sha1_rc4_128
FUNC 95e50 118 0 pkcs12_pbe_derive_key_iv
FUNC 95f68 60 0 mbedtls_pkcs12_pbe
FUNC 95fc8 154 0 mbedtls_pkcs12_pbe_ext
FUNC 9611c 2c4 0 mbedtls_pkcs12_derivation
FUNC 963e0 60 0 mbedtls_pkcs5_pbes2
FUNC 96440 23c 0 mbedtls_pkcs5_pbes2_ext
FUNC 9667c 1c4 0 mbedtls_pkcs5_pbkdf2_hmac
FUNC 96840 144 0 mbedtls_pkcs5_self_test
FUNC 96984 18 0 mbedtls_platform_zeroize
FUNC 9699c 4 0 mbedtls_platform_gmtime_r
FUNC 969a0 6 0 mbedtls_poly1305_init
FUNC 969a6 c 0 mbedtls_poly1305_free
FUNC 969b2 64 0 mbedtls_poly1305_starts
FUNC 96a16 92 0 mbedtls_poly1305_update
FUNC 96aa8 182 0 poly1305_process
FUNC 96c2a e8 0 mbedtls_poly1305_finish
FUNC 96d14 bc 0 mbedtls_poly1305_mac
FUNC 96dd0 1d4 0 mbedtls_poly1305_self_test
FUNC 96fa4 20 0 mbedtls_ripemd160_init
FUNC 96fc4 c 0 mbedtls_ripemd160_free
FUNC 96fd0 c 0 mbedtls_ripemd160_clone
FUNC 96fe0 40 0 mbedtls_ripemd160_starts_ret
FUNC 97020 40 0 mbedtls_ripemd160_starts
FUNC 97060 1244 0 mbedtls_internal_ripemd160_process
FUNC 982a4 4 0 mbedtls_ripemd160_process
FUNC 982a8 82 0 mbedtls_ripemd160_update_ret
FUNC 9832a 4 0 mbedtls_ripemd160_update
FUNC 98330 ec 0 mbedtls_ripemd160_finish_ret
FUNC 9841c 4 0 mbedtls_ripemd160_finish
FUNC 98420 a8 0 mbedtls_ripemd160_ret
FUNC 984d0 a8 0 mbedtls_ripemd160
FUNC 98580 150 0 mbedtls_ripemd160_self_test
FUNC 986d0 76 0 mbedtls_rsa_import
FUNC 98746 7a 0 mbedtls_rsa_import_raw
FUNC 987c0 1ba 0 mbedtls_rsa_complete
FUNC 9897a d6 0 rsa_check_context
FUNC 98a50 f8 0 mbedtls_rsa_export_raw
FUNC 98b48 d8 0 mbedtls_rsa_export
FUNC 98c20 94 0 mbedtls_rsa_export_crt
FUNC 98cb4 1e 0 mbedtls_rsa_init
FUNC 98cd2 6 0 mbedtls_rsa_set_padding
FUNC 98cd8 4 0 mbedtls_rsa_get_len
FUNC 98cdc 250 0 mbedtls_rsa_gen_key
FUNC 98f2c 76 0 mbedtls_rsa_check_privkey
FUNC 98fa2 7a 0 mbedtls_rsa_free
FUNC 9901c 98 0 mbedtls_rsa_check_pubkey
FUNC 990b4 9e 0 mbedtls_rsa_check_pub_priv
FUNC 99154 f8 0 mbedtls_rsa_public
FUNC 9924c 430 0 mbedtls_rsa_private
FUNC 9967c bc 0 rsa_unblind
FUNC 99738 168 0 mbedtls_rsa_rsaes_oaep_encrypt
FUNC 998a0 13c 0 mgf_mask
FUNC 999dc 10a 0 mbedtls_rsa_rsaes_pkcs1_v15_encrypt
FUNC 99ae6 4c 0 mbedtls_rsa_pkcs1_encrypt
FUNC 99b34 1d4 0 mbedtls_rsa_rsaes_oaep_decrypt
FUNC 99d08 b8 0 mbedtls_rsa_rsaes_pkcs1_v15_decrypt
FUNC 99dc0 e4 0 mbedtls_rsa_pkcs1_decrypt
FUNC 99ea4 22 0 mbedtls_rsa_rsassa_pss_sign_ext
FUNC 99ec8 1e4 0 rsa_rsassa_pss_sign
FUNC 9a0ac 2c 0 mbedtls_rsa_rsassa_pss_sign
FUNC 9a0d8 f8 0 mbedtls_rsa_rsassa_pkcs1_v15_sign
FUNC 9a1d0 140 0 rsa_rsassa_pkcs1_v15_encode
FUNC 9a310 58 0 mbedtls_rsa_pkcs1_sign
FUNC 9a368 1f4 0 mbedtls_rsa_rsassa_pss_verify_ext
FUNC 9a55c 3c 0 mbedtls_rsa_rsassa_pss_verify
FUNC 9a598 c8 0 mbedtls_rsa_rsassa_pkcs1_v15_verify
FUNC 9a660 62 0 mbedtls_rsa_pkcs1_verify
FUNC 9a6c2 102 0 mbedtls_rsa_copy
FUNC 9a7c4 324 0 mbedtls_rsa_self_test
FUNC 9aae8 1e 0 myrand
FUNC 9ab08 214 0 mbedtls_rsa_deduce_primes
FUNC 9ad1c e0 0 mbedtls_rsa_deduce_private_exponent
FUNC 9adfc 14c 0 mbedtls_rsa_validate_crt
FUNC 9af48 218 0 mbedtls_rsa_validate_params
FUNC 9b160 ac 0 mbedtls_rsa_deduce_crt
FUNC 9b20c 20 0 mbedtls_sha1_init
FUNC 9b22c c 0 mbedtls_sha1_free
FUNC 9b238 c 0 mbedtls_sha1_clone
FUNC 9b250 40 0 mbedtls_sha1_starts_ret
FUNC 9b290 40 0 mbedtls_sha1_starts
FUNC 9b2d0 f4c 0 mbedtls_internal_sha1_process
FUNC 9c21c 4 0 mbedtls_sha1_process
FUNC 9c220 82 0 mbedtls_sha1_update_ret
FUNC 9c2a2 4 0 mbedtls_sha1_update
FUNC 9c2a6 f6 0 mbedtls_sha1_finish_ret
FUNC 9c39c 4 0 mbedtls_sha1_finish
FUNC 9c3a0 a8 0 mbedtls_sha1_ret
FUNC 9c450 a8 0 mbedtls_sha1
FUNC 9c500 1ec 0 mbedtls_sha1_self_test
FUNC 9c6ec 24 0 mbedtls_sha256_init
FUNC 9c710 c 0 mbedtls_sha256_free
FUNC 9c71c c 0 mbedtls_sha256_clone
FUNC 9c730 70 0 mbedtls_sha256_starts_ret
FUNC 9c7a0 70 0 mbedtls_sha256_starts
FUNC 9c810 7e8 0 mbedtls_internal_sha256_process
FUNC 9cff8 4 0 mbedtls_sha256_process
FUNC 9cffc 82 0 mbedtls_sha256_update_ret
FUNC 9d07e 4 0 mbedtls_sha256_update
FUNC 9d082 134 0 mbedtls_sha256_finish_ret
FUNC 9d1b6 4 0 mbedtls_sha256_finish
FUNC 9d1c0 e8 0 mbedtls_sha256_ret
FUNC 9d2b0 e8 0 mbedtls_sha256
FUNC 9d3a0 234 0 mbedtls_sha256_self_test
FUNC 9d5d4 c 0 mbedtls_sha512_init
FUNC 9d5e0 c 0 mbedtls_sha512_free
FUNC 9d5ec c 0 mbedtls_sha512_clone
FUNC 9d600 e0 0 mbedtls_sha512_starts_ret
FUNC 9d6e0 d0 0 mbedtls_sha512_starts
FUNC 9d7b0 a14 0 mbedtls_internal_sha512_process
FUNC 9e1c4 4 0 mbedtls_sha512_process
FUNC 9e1c8 9e 0 mbedtls_sha512_update_ret
FUNC 9e266 4 0 mbedtls_sha512_update
FUNC 9e26a 28c 0 mbedtls_sha512_finish_ret
FUNC 9e4f6 4 0 mbedtls_sha512_finish
FUNC 9e500 138 0 mbedtls_sha512_ret
FUNC 9e640 138 0 mbedtls_sha512
FUNC 9e780 2d4 0 mbedtls_sha512_self_test
FUNC 9ea54 74 0 mbedtls_timing_hardclock
FUNC 9eac8 78 0 mbedtls_timing_get_timer
FUNC 9eb40 34 0 mbedtls_set_alarm
FUNC 9eb74 1c 0 sighandler
FUNC 9eb90 48 0 mbedtls_timing_set_delay
FUNC 9ebd8 8c 0 mbedtls_timing_get_delay
FUNC 9ec64 648 0 mbedtls_timing_self_test
FUNC 9f2ac 258 0 AdminButtonSetting::createNode(float)
FUNC 9f504 3a 0 std::__ndk1::shared_ptr<AdminButtonSetting>::~shared_ptr[abi:ne180000]()
FUNC 9f53e 3a 0 std::__ndk1::shared_ptr<geode::SettingV3>::~shared_ptr[abi:ne180000]()
FUNC 9f578 d8 0 geodeExecFunction117<(anonymous namespace)::ExecFuncUnique117>(geode::ModStateEvent*)
FUNC 9f650 10 0 AdminButtonSetting::~AdminButtonSetting()
FUNC 9f660 4 0 AdminButtonSetting::load(matjson::Value const&)
FUNC 9f664 4 0 AdminButtonSetting::save(matjson::Value&) const
FUNC 9f668 4 0 AdminButtonSetting::isDefaultValue() const
FUNC 9f66c 2 0 AdminButtonSetting::reset()
FUNC 9f670 10 0 std::__ndk1::basic_string<char, std::__ndk1::char_traits<char>, std::__ndk1::allocator<char> >::__throw_length_error[abi:ne180000]() const
FUNC 9f680 38 0 std::__ndk1::__throw_length_error[abi:ne180000](char const*)
FUNC 9f6b8 18 0 std::length_error::length_error[abi:ne180000](char const*)
PUBLIC 9f6d1 0 __clang_call_terminate
FUNC 9f6dc 4 0 cocos2d::CCCopying::copyWithZone(cocos2d::CCZone*)
FUNC 9f6e0 58 0 geode::SettingNodeV3::~SettingNodeV3()
FUNC 9f738 54 0 AdminButtonSettingNode::~AdminButtonSettingNode()
FUNC 9f78c 124 0 AdminButtonSettingNode::updateState(cocos2d::CCNode*)
FUNC 9f8b0 2 0 AdminButtonSettingNode::onCommit()
FUNC 9f8b2 2 0 AdminButtonSettingNode::onResetToDefault()
FUNC 9f8b4 4 0 AdminButtonSettingNode::hasUncommittedChanges() const
FUNC 9f8b8 4 0 AdminButtonSettingNode::hasNonDefaultValue() const
FUNC 9f8bc f4 0 AdminButtonSettingNode::onButton(cocos2d::CCObject*)
FUNC 9f9b0 10c 0 NetworkManager::~NetworkManager()
FUNC 9fabc 2 0 std::__ndk1::__function::__base<void ()>::~__base()
FUNC 9fabe 4 0 std::__ndk1::__function::__func<AdminButtonSettingNode::onButton(cocos2d::CCObject*)::{lambda()#1}, std::__ndk1::allocator<AdminButtonSettingNode::onButton(cocos2d::CCObject*)::{lambda()#1}>, void ()>::~__func()
FUNC 9fac4 18 0 std::__ndk1::__function::__func<AdminButtonSettingNode::onButton(cocos2d::CCObject*)::{lambda()#1}, std::__ndk1::allocator<AdminButtonSettingNode::onButton(cocos2d::CCObject*)::{lambda()#1}>, void ()>::__clone() const
FUNC 9fadc 10 0 std::__ndk1::__function::__func<AdminButtonSettingNode::onButton(cocos2d::CCObject*)::{lambda()#1}, std::__ndk1::allocator<AdminButtonSettingNode::onButton(cocos2d::CCObject*)::{lambda()#1}>, void ()>::__clone(std::__ndk1::__function::__base<void ()>*) const
FUNC 9faec 2 0 std::__ndk1::__function::__func<AdminButtonSettingNode::onButton(cocos2d::CCObject*)::{lambda()#1}, std::__ndk1::allocator<AdminButtonSettingNode::onButton(cocos2d::CCObject*)::{lambda()#1}>, void ()>::destroy()
FUNC 9faee 4 0 std::__ndk1::__function::__func<AdminButtonSettingNode::onButton(cocos2d::CCObject*)::{lambda()#1}, std::__ndk1::allocator<AdminButtonSettingNode::onButton(cocos2d::CCObject*)::{lambda()#1}>, void ()>::destroy_deallocate()
FUNC 9faf2 14 0 std::__ndk1::__function::__func<AdminButtonSettingNode::onButton(cocos2d::CCObject*)::{lambda()#1}, std::__ndk1::allocator<AdminButtonSettingNode::onButton(cocos2d::CCObject*)::{lambda()#1}>, void ()>::operator()()
FUNC 9fb08 18 0 std::__ndk1::__function::__func<AdminButtonSettingNode::onButton(cocos2d::CCObject*)::{lambda()#1}, std::__ndk1::allocator<AdminButtonSettingNode::onButton(cocos2d::CCObject*)::{lambda()#1}>, void ()>::target(std::type_info const&) const
FUNC 9fb20 c 0 std::__ndk1::__function::__func<AdminButtonSettingNode::onButton(cocos2d::CCObject*)::{lambda()#1}, std::__ndk1::allocator<AdminButtonSettingNode::onButton(cocos2d::CCObject*)::{lambda()#1}>, void ()>::target_type() const
FUNC 9fb2c 34 0 std::__ndk1::__throw_bad_weak_ptr[abi:ne180000]()
FUNC 9fb60 294 0 AdminButtonSetting::parse(std::__ndk1::basic_string<char, std::__ndk1::char_traits<char>, std::__ndk1::allocator<char> > const&, std::__ndk1::basic_string<char, std::__ndk1::char_traits<char>, std::__ndk1::allocator<char> > const&, matjson::Value const&)
FUNC 9fdf4 60 0 geode::impl::ResultData<void, std::__ndk1::basic_string<char, std::__ndk1::char_traits<char>, std::__ndk1::allocator<char> > >::~ResultData()
FUNC 9fe54 10 0 std::__ndk1::__shared_ptr_emplace<AdminButtonSetting, std::__ndk1::allocator<AdminButtonSetting> >::~__shared_ptr_emplace()
FUNC 9fe64 1c 0 std::__ndk1::__shared_ptr_emplace<AdminButtonSetting, std::__ndk1::allocator<AdminButtonSetting> >::~__shared_ptr_emplace()
FUNC 9fe80 8 0 std::__ndk1::__shared_ptr_emplace<AdminButtonSetting, std::__ndk1::allocator<AdminButtonSetting> >::__on_zero_shared()
FUNC 9fe88 4 0 std::__ndk1::__shared_ptr_emplace<AdminButtonSetting, std::__ndk1::allocator<AdminButtonSetting> >::__on_zero_shared_weak()
FUNC 9fe8c 34 0 std::__ndk1::__throw_bad_variant_access[abi:ne180000]()
FUNC 9fec0 10 0 geode::UnwrapException::~UnwrapException()
FUNC 9fed0 46 0 std::__ndk1::basic_string<char, std::__ndk1::char_traits<char>, std::__ndk1::allocator<char> >::__init_copy_ctor_external(char const*, unsigned int)
FUNC 9ff16 2 0 std::__ndk1::__function::__base<geode::Result<std::__ndk1::shared_ptr<geode::SettingV3>, std::__ndk1::basic_string<char, std::__ndk1::char_traits<char>, std::__ndk1::allocator<char> > >(std::__ndk1::basic_string<char, std::__ndk1::char_traits<char>, std::__ndk1::allocator<char> > const&, std::__ndk1::basic_string<char, std::__ndk1::char_traits<char>, std::__ndk1::allocator<char> > const&, matjson::Value const&)>::~__base()
FUNC 9ff18 4 0 std::__ndk1::__function::__func<geode::Result<std::__ndk1::shared_ptr<geode::SettingV3>, std::__ndk1::basic_string<char, std::__ndk1::char_traits<char>, std::__ndk1::allocator<char> > > (*)(std::__ndk1::basic_string<char, std::__ndk1::char_traits<char>, std::__ndk1::allocator<char> > const&, std::__ndk1::basic_string<char, std::__ndk1::char_traits<char>, std::__ndk1::allocator<char> > const&, matjson::Value const&), std::__ndk1::allocator<geode::Result<std::__ndk1::shared_ptr<geode::SettingV3>, std::__ndk1::basic_string<char, std::__ndk1::char_traits<char>, std::__ndk1::allocator<char> > > (*)(std::__ndk1::basic_string<char, std::__ndk1::char_traits<char>, std::__ndk1::allocator<char> > const&, std::__ndk1::basic_string<char, std::__ndk1::char_traits<char>, std::__ndk1::allocator<char> > const&, matjson::Value const&)>, geode::Result<std::__ndk1::shared_ptr<geode::SettingV3>, std::__ndk1::basic_string<char, std::__ndk1::char_traits<char>, std::__ndk1::allocator<char> > >(std::__ndk1::basic_string<char, std::__ndk1::char_traits<char>, std::__ndk1::allocator<char> > const&, std::__ndk1::basic_string<char, std::__ndk1::char_traits<char>, std::__ndk1::allocator<char> > const&, matjson::Value const&)>::~__func()
FUNC 9ff1c 20 0 std::__ndk1::__function::__func<geode::Result<std::__ndk1::shared_ptr<geode::SettingV3>, std::__ndk1::basic_string<char, std::__ndk1::char_traits<char>, std::__ndk1::allocator<char> > > (*)(std::__ndk1::basic_string<char, std::__ndk1::char_traits<char>, std::__ndk1::allocator<char> > const&, std::__ndk1::basic_string<char, std::__ndk1::char_traits<char>, std::__ndk1::allocator<char> > const&, matjson::Value const&), std::__ndk1::allocator<geode::Result<std::__ndk1::shared_ptr<geode::SettingV3>, std::__ndk1::basic_string<char, std::__ndk1::char_traits<char>, std::__ndk1::allocator<char> > > (*)(std::__ndk1::basic_string<char, std::__ndk1::char_traits<char>, std::__ndk1::allocator<char> > const&, std::__ndk1::basic_string<char, std::__ndk1::char_traits<char>, std::__ndk1::allocator<char> > const&, matjson::Value const&)>, geode::Result<std::__ndk1::shared_ptr<geode::SettingV3>, std::__ndk1::basic_string<char, std::__ndk1::char_traits<char>, std::__ndk1::allocator<char> > >(std::__ndk1::basic_string<char, std::__ndk1::char_traits<char>, std::__ndk1::allocator<char> > const&, std::__ndk1::basic_string<char, std::__ndk1::char_traits<char>, std::__ndk1::allocator<char> > const&, matjson::Value const&)>::__clone() const
FUNC 9ff3c 14 0 std::__ndk1::__function::__func<geode::Result<std::__ndk1::shared_ptr<geode::SettingV3>, std::__ndk1::basic_string<char, std::__ndk1::char_traits<char>, std::__ndk1::allocator<char> > > (*)(std::__ndk1::basic_string<char, std::__ndk1::char_traits<char>, std::__ndk1::allocator<char> > const&, std::__ndk1::basic_string<char, std::__ndk1::char_traits<char>, std::__ndk1::allocator<char> > const&, matjson::Value const&), std::__ndk1::allocator<geode::Result<std::__ndk1::shared_ptr<geode::SettingV3>, std::__ndk1::basic_string<char, std::__ndk1::char_traits<char>, std::__ndk1::allocator<char> > > (*)(std::__ndk1::basic_string<char, std::__ndk1::char_traits<char>, std::__ndk1::allocator<char> > const&, std::__ndk1::basic_string<char, std::__ndk1::char_traits<char>, std::__ndk1::allocator<char> > const&, matjson::Value const&)>, geode::Result<std::__ndk1::shared_ptr<geode::SettingV3>, std::__ndk1::basic_string<char, std::__ndk1::char_traits<char>, std::__ndk1::allocator<char> > >(std::__ndk1::basic_string<char, std::__ndk1::char_traits<char>, std::__ndk1::allocator<char> > const&, std::__ndk1::basic_string<char, std::__ndk1::char_traits<char>, std::__ndk1::allocator<char> > const&, matjson::Value const&)>::__clone(std::__ndk1::__function::__base<geode::Result<std::__ndk1::shared_ptr<geode::SettingV3>, std::__ndk1::basic_string<char, std::__ndk1::char_traits<char>, std::__ndk1::allocator<char> > >(std::__ndk1::basic_string<char, std::__ndk1::char_traits<char>, std::__ndk1::allocator<char> > const&, std::__ndk1::basic_string<char, std::__ndk1::char_traits<char>, std::__ndk1::allocator<char> > const&, matjson::Value const&)>*) const
FUNC 9ff50 2 0 std::__ndk1::__function::__func<geode::Result<std::__ndk1::shared_ptr<geode::SettingV3>, std::__ndk1::basic_string<char, std::__ndk1::char_traits<char>, std::__ndk1::allocator<char> > > (*)(std::__ndk1::basic_string<char, std::__ndk1::char_traits<char>, std::__ndk1::allocator<char> > const&, std::__ndk1::basic_string<char, std::__ndk1::char_traits<char>, std::__ndk1::allocator<char> > const&, matjson::Value const&), std::__ndk1::allocator<geode::Result<std::__ndk1::shared_ptr<geode::SettingV3>, std::__ndk1::basic_string<char, std::__ndk1::char_traits<char>, std::__ndk1::allocator<char> > > (*)(std::__ndk1::basic_string<char, std::__ndk1::char_traits<char>, std::__ndk1::allocator<char> > const&, std::__ndk1::basic_string<char, std::__ndk1::char_traits<char>, std::__ndk1::allocator<char> > const&, matjson::Value const&)>, geode::Result<std::__ndk1::shared_ptr<geode::SettingV3>, std::__ndk1::basic_string<char, std::__ndk1::char_traits<char>, std::__ndk1::allocator<char> > >(std::__ndk1::basic_string<char, std::__ndk1::char_traits<char>, std::__ndk1::allocator<char> > const&, std::__ndk1::basic_string<char, std::__ndk1::char_traits<char>, std::__ndk1::allocator<char> > const&, matjson::Value const&)>::destroy()
FUNC 9ff52 4 0 std::__ndk1::__function::__func<geode::Result<std::__ndk1::shared_ptr<geode::SettingV3>, std::__ndk1::basic_string<char, std::__ndk1::char_traits<char>, std::__ndk1::allocator<char> > > (*)(std::__ndk1::basic_string<char, std::__ndk1::char_traits<char>, std::__ndk1::allocator<char> > const&, std::__ndk1::basic_string<char, std::__ndk1::char_traits<char>, std::__ndk1::allocator<char> > const&, matjson::Value const&), std::__ndk1::allocator<geode::Result<std::__ndk1::shared_ptr<geode::SettingV3>, std::__ndk1::basic_string<char, std::__ndk1::char_traits<char>, std::__ndk1::allocator<char> > > (*)(std::__ndk1::basic_string<char, std::__ndk1::char_traits<char>, std::__ndk1::allocator<char> > const&, std::__ndk1::basic_string<char, std::__ndk1::char_traits<char>, std::__ndk1::allocator<char> > const&, matjson::Value const&)>, geode::Result<std::__ndk1::shared_ptr<geode::SettingV3>, std::__ndk1::basic_string<char, std::__ndk1::char_traits<char>, std::__ndk1::allocator<char> > >(std::__ndk1::basic_string<char, std::__ndk1::char_traits<char>, std::__ndk1::allocator<char> > const&, std::__ndk1::basic_string<char, std::__ndk1::char_traits<char>, std::__ndk1::allocator<char> > const&, matjson::Value const&)>::destroy_deallocate()
FUNC 9ff56 14 0 std::__ndk1::__function::__func<geode::Result<std::__ndk1::shared_ptr<geode::SettingV3>, std::__ndk1::basic_string<char, std::__ndk1::char_traits<char>, std::__ndk1::allocator<char> > > (*)(std::__ndk1::basic_string<char, std::__ndk1::char_traits<char>, std::__ndk1::allocator<char> > const&, std::__ndk1::basic_string<char, std::__ndk1::char_traits<char>, std::__ndk1::allocator<char> > const&, matjson::Value const&), std::__ndk1::allocator<geode::Result<std::__ndk1::shared_ptr<geode::SettingV3>, std::__ndk1::basic_string<char, std::__ndk1::char_traits<char>, std::__ndk1::allocator<char> > > (*)(std::__ndk1::basic_string<char, std::__ndk1::char_traits<char>, std::__ndk1::allocator<char> > const&, std::__ndk1::basic_string<char, std::__ndk1::char_traits<char>, std::__ndk1::allocator<char> > const&, matjson::Value const&)>, geode::Result<std::__ndk1::shared_ptr<geode::SettingV3>, std::__ndk1::basic_string<char, std::__ndk1::char_traits<char>, std::__ndk1::allocator<char> > >(std::__ndk1::basic_string<char, std::__ndk1::char_traits<char>, std::__ndk1::allocator<char> > const&, std::__ndk1::basic_string<char, std::__ndk1::char_traits<char>, std::__ndk1::allocator<char> > const&, matjson::Value const&)>::operator()(std::__ndk1::basic_string<char, std::__ndk1::char_traits<char>, std::__ndk1::allocator<char> > const&, std::__ndk1::basic_string<char, std::__ndk1::char_traits<char>, std::__ndk1::allocator<char> > const&, matjson::Value const&)
FUNC 9ff6c 18 0 std::__ndk1::__function::__func<geode::Result<std::__ndk1::shared_ptr<geode::SettingV3>, std::__ndk1::basic_string<char, std::__ndk1::char_traits<char>, std::__ndk1::allocator<char> > > (*)(std::__ndk1::basic_string<char, std::__ndk1::char_traits<char>, std::__ndk1::allocator<char> > const&, std::__ndk1::basic_string<char, std::__ndk1::char_traits<char>, std::__ndk1::allocator<char> > const&, matjson::Value const&), std::__ndk1::allocator<geode::Result<std::__ndk1::shared_ptr<geode::SettingV3>, std::__ndk1::basic_string<char, std::__ndk1::char_traits<char>, std::__ndk1::allocator<char> > > (*)(std::__ndk1::basic_string<char, std::__ndk1::char_traits<char>, std::__ndk1::allocator<char> > const&, std::__ndk1::basic_string<char, std::__ndk1::char_traits<char>, std::__ndk1::allocator<char> > const&, matjson::Value const&)>, geode::Result<std::__ndk1::shared_ptr<geode::SettingV3>, std::__ndk1::basic_string<char, std::__ndk1::char_traits<char>, std::__ndk1::allocator<char> > >(std::__ndk1::basic_string<char, std::__ndk1::char_traits<char>, std::__ndk1::allocator<char> > const&, std::__ndk1::basic_string<char, std::__ndk1::char_traits<char>, std::__ndk1::allocator<char> > const&, matjson::Value const&)>::target(std::type_info const&) const
FUNC 9ff84 c 0 std::__ndk1::__function::__func<geode::Result<std::__ndk1::shared_ptr<geode::SettingV3>, std::__ndk1::basic_string<char, std::__ndk1::char_traits<char>, std::__ndk1::allocator<char> > > (*)(std::__ndk1::basic_string<char, std::__ndk1::char_traits<char>, std::__ndk1::allocator<char> > const&, std::__ndk1::basic_string<char, std::__ndk1::char_traits<char>, std::__ndk1::allocator<char> > const&, matjson::Value const&), std::__ndk1::allocator<geode::Result<std::__ndk1::shared_ptr<geode::SettingV3>, std::__ndk1::basic_string<char, std::__ndk1::char_traits<char>, std::__ndk1::allocator<char> > > (*)(std::__ndk1::basic_string<char, std::__ndk1::char_traits<char>, std::__ndk1::allocator<char> > const&, std::__ndk1::basic_string<char, std::__ndk1::char_traits<char>, std::__ndk1::allocator<char> > const&, matjson::Value const&)>, geode::Result<std::__ndk1::shared_ptr<geode::SettingV3>, std::__ndk1::basic_string<char, std::__ndk1::char_traits<char>, std::__ndk1::allocator<char> > >(std::__ndk1::basic_string<char, std::__ndk1::char_traits<char>, std::__ndk1::allocator<char> > const&, std::__ndk1::basic_string<char, std::__ndk1::char_traits<char>, std::__ndk1::allocator<char> > const&, matjson::Value const&)>::target_type() const
FUNC 9ff90 2 0 std::__ndk1::__variant_detail::__visitation::__base::__dispatcher<(unsigned int)0>::__dispatch[abi:ne180000]<std::__ndk1::__variant_detail::__dtor<std::__ndk1::__variant_detail::__traits<std::__ndk1::monostate, std::__ndk1::basic_string<char, std::__ndk1::char_traits<char>, std::__ndk1::allocator<char> > >, (std::__ndk1::__variant_detail::_Trait)1>::__destroy[abi:ne180000]()::{lambda(auto:1&)#1}, std::__ndk1::__variant_detail::__base<(std::__ndk1::__variant_detail::__traits<std::__ndk1::monostate, std::__ndk1::basic_string<char, std::__ndk1::char_traits<char>, std::__ndk1::allocator<char> > >)1, std::__ndk1::__variant_detail::__traits, std::__ndk1::allocator<char> >&>(std::__ndk1::__variant_detail::__dtor<std::__ndk1::__variant_detail::__traits<std::__ndk1::monostate, std::__ndk1::basic_string<char, std::__ndk1::char_traits<char>, std::__ndk1::allocator<char> > >, (std::__ndk1::__variant_detail::_Trait)1>, std::__ndk1::__variant_detail::__base<(std::__ndk1::__variant_detail::__traits<std::__ndk1::monostate, std::__ndk1::basic_string<char, std::__ndk1::char_traits<char>, std::__ndk1::allocator<char> > >)1, std::__ndk1::__variant_detail::__traits, std::__ndk1::allocator<char> >&)
FUNC 9ff92 e 0 std::__ndk1::__variant_detail::__visitation::__base::__dispatcher<(unsigned int)1>::__dispatch[abi:ne180000]<std::__ndk1::__variant_detail::__dtor<std::__ndk1::__variant_detail::__traits<std::__ndk1::monostate, std::__ndk1::basic_string<char, std::__ndk1::char_traits<char>, std::__ndk1::allocator<char> > >, (std::__ndk1::__variant_detail::_Trait)1>::__destroy[abi:ne180000]()::{lambda(auto:1&)#1}, std::__ndk1::__variant_detail::__base<(std::__ndk1::__variant_detail::__traits<std::__ndk1::monostate, std::__ndk1::basic_string<char, std::__ndk1::char_traits<char>, std::__ndk1::allocator<char> > >)1, std::__ndk1::__variant_detail::__traits, std::__ndk1::allocator<char> >&>(std::__ndk1::__variant_detail::__dtor<std::__ndk1::__variant_detail::__traits<std::__ndk1::monostate, std::__ndk1::basic_string<char, std::__ndk1::char_traits<char>, std::__ndk1::allocator<char> > >, (std::__ndk1::__variant_detail::_Trait)1>, std::__ndk1::__variant_detail::__base<(std::__ndk1::__variant_detail::__traits<std::__ndk1::monostate, std::__ndk1::basic_string<char, std::__ndk1::char_traits<char>, std::__ndk1::allocator<char> > >)1, std::__ndk1::__variant_detail::__traits, std::__ndk1::allocator<char> >&)
FUNC 9ffa0 4 0 geode::EventListener<geode::ModStateFilter>::getPool() const
FUNC 9ffa4 e4 0 geode::EventListener<geode::ModStateFilter>::handle(geode::Event*)
FUNC a0088 38 0 geode::EventListener<geode::ModStateFilter>::~EventListener()
FUNC a00c0 3c 0 geode::EventListener<geode::ModStateFilter>::~EventListener()
FUNC a00fc 2 0 std::__ndk1::__function::__base<void (geode::ModStateEvent*)>::~__base()
FUNC a00fe 4 0 std::__ndk1::__function::__func<void (*)(geode::ModStateEvent*), std::__ndk1::allocator<void (*)(geode::ModStateEvent*)>, void (geode::ModStateEvent*)>::~__func()
FUNC a0104 20 0 std::__ndk1::__function::__func<void (*)(geode::ModStateEvent*), std::__ndk1::allocator<void (*)(geode::ModStateEvent*)>, void (geode::ModStateEvent*)>::__clone() const
FUNC a0124 14 0 std::__ndk1::__function::__func<void (*)(geode::ModStateEvent*), std::__ndk1::allocator<void (*)(geode::ModStateEvent*)>, void (geode::ModStateEvent*)>::__clone(std::__ndk1::__function::__base<void (geode::ModStateEvent*)>*) const
FUNC a0138 2 0 std::__ndk1::__function::__func<void (*)(geode::ModStateEvent*), std::__ndk1::allocator<void (*)(geode::ModStateEvent*)>, void (geode::ModStateEvent*)>::destroy()
FUNC a013a 4 0 std::__ndk1::__function::__func<void (*)(geode::ModStateEvent*), std::__ndk1::allocator<void (*)(geode::ModStateEvent*)>, void (geode::ModStateEvent*)>::destroy_deallocate()
FUNC a013e 8 0 std::__ndk1::__function::__func<void (*)(geode::ModStateEvent*), std::__ndk1::allocator<void (*)(geode::ModStateEvent*)>, void (geode::ModStateEvent*)>::operator()(geode::ModStateEvent*&&)
FUNC a0148 18 0 std::__ndk1::__function::__func<void (*)(geode::ModStateEvent*), std::__ndk1::allocator<void (*)(geode::ModStateEvent*)>, void (geode::ModStateEvent*)>::target(std::type_info const&) const
FUNC a0160 c 0 std::__ndk1::__function::__func<void (*)(geode::ModStateEvent*), std::__ndk1::allocator<void (*)(geode::ModStateEvent*)>, void (geode::ModStateEvent*)>::target_type() const
FUNC a016c 8c 0 geode::cast::traverseTypeinfoFor(void*, geode::cast::ClassTypeinfoType const*, char const*)
FUNC a01f8 128 0 _GLOBAL__sub_I_AdminSetting.cpp
FUNC a0320 110 0 AdminPanel::create()
FUNC a0430 384 0 AdminPanel::setup()
FUNC a07b4 114 0 geode::Popup<>::setTitle(std::__ndk1::basic_string<char, std::__ndk1::char_traits<char>, std::__ndk1::allocator<char> > const&, char const*, float, float)
FUNC a08c8 ac 0 geode::cocos::CCMenuItemExt::createSpriteExtra(cocos2d::CCNode*, std::__ndk1::function<void (CCMenuItemSpriteExtra*)>)
FUNC a0974 5c 0 geode::Popup<>::~Popup()
FUNC a09d0 60 0 AdminPanel::~AdminPanel()
FUNC a0a30 20 0 geode::Popup<>::registerWithTouchDispatcher()
FUNC a0a50 18 0 geode::Popup<>::keyDown(cocos2d::enumKeyCodes)
FUNC a0a68 2 0 cocos2d::CCLayerRGBA::setOpacityModifyRGB(bool)
FUNC a0a6a 4 0 cocos2d::CCLayerRGBA::isOpacityModifyRGB()
FUNC a0a70 e4 0 geode::Popup<>::onClose(cocos2d::CCObject*)
FUNC a0b54 60 0 {virtual override thunk({offset(-264)}, AdminPanel::~AdminPanel())}
FUNC a0bb4 64 0 {virtual override thunk({offset(-264)}, AdminPanel::~AdminPanel())}
FUNC a0c18 1c 0 {virtual override thunk({offset(-276)}, geode::Popup<>::keyDown(cocos2d::enumKeyCodes))}
FUNC a0c34 2 0 cocos2d::CCKeyboardDelegate::keyUp(cocos2d::enumKeyCodes)
FUNC a0c36 2 0 cocos2d::CCMouseDelegate::rightKeyDown()
FUNC a0c38 2 0 cocos2d::CCMouseDelegate::rightKeyUp()
FUNC a0c3a 2 0 cocos2d::CCMouseDelegate::scrollWheel(float, float)
FUNC a0c3c 2 0 {virtual override thunk({offset(-316)}, cocos2d::CCLayerRGBA::setOpacityModifyRGB(bool))}
FUNC a0c3e 4 0 {virtual override thunk({offset(-316)}, cocos2d::CCLayerRGBA::isOpacityModifyRGB())}
FUNC a0c44 28 0 std::__throw_bad_array_new_length([abi:ne180000], void)
FUNC a0c6c 2 0 geode::Popup<>::~Popup()
FUNC a0c70 60 0 {virtual override thunk({offset(-264)}, geode::Popup<>::~Popup())}
FUNC a0cd0 2 0 {virtual override thunk({offset(-264)}, geode::Popup<>::~Popup())}
FUNC a0cd4 118 0 geode::cocos::CCMenuItemExt::assignCallback<CCMenuItemSpriteExtra>(cocos2d::CCMenuItem*, std::__ndk1::function<void (CCMenuItemSpriteExtra*)>)
FUNC a0dec 134 0 geode::cocos::CCMenuItemExt::LambdaCallback<CCMenuItemSpriteExtra>::create(std::__ndk1::function<void (CCMenuItemSpriteExtra*)>)
FUNC a0f20 40 0 geode::cocos::CCMenuItemExt::LambdaCallback<CCMenuItemSpriteExtra>::execute(cocos2d::CCNode*)
FUNC a0f60 38 0 geode::cocos::CCMenuItemExt::LambdaCallback<CCMenuItemSpriteExtra>::~LambdaCallback()
FUNC a0f98 3c 0 geode::cocos::CCMenuItemExt::LambdaCallback<CCMenuItemSpriteExtra>::~LambdaCallback()
FUNC a0fd4 2 0 cocos2d::CCObject::update(float)
FUNC a0fd8 34 0 std::__ndk1::__throw_bad_function_call[abi:ne180000]()
FUNC a100c 10 0 std::__ndk1::bad_function_call::~bad_function_call()
FUNC a101c 244 0 geode::Popup<>::initBase(float, float, char const*, cocos2d::CCRect, bool)
FUNC a1260 4 0 std::__ndk1::__function::__func<AdminPanel::setup()::$_0, std::__ndk1::allocator<AdminPanel::setup()::$_0>, void (CCMenuItemSpriteExtra*)>::~__func()
FUNC a1264 20 0 std::__ndk1::__function::__func<AdminPanel::setup()::$_0, std::__ndk1::allocator<AdminPanel::setup()::$_0>, void (CCMenuItemSpriteExtra*)>::__clone() const
FUNC a1284 18 0 std::__ndk1::__function::__func<AdminPanel::setup()::$_0, std::__ndk1::allocator<AdminPanel::setup()::$_0>, void (CCMenuItemSpriteExtra*)>::__clone(std::__ndk1::__function::__base<void (CCMenuItemSpriteExtra*)>*) const
FUNC a129c 2 0 std::__ndk1::__function::__func<AdminPanel::setup()::$_0, std::__ndk1::allocator<AdminPanel::setup()::$_0>, void (CCMenuItemSpriteExtra*)>::destroy()
FUNC a129e 4 0 std::__ndk1::__function::__func<AdminPanel::setup()::$_0, std::__ndk1::allocator<AdminPanel::setup()::$_0>, void (CCMenuItemSpriteExtra*)>::destroy_deallocate()
FUNC a12a4 764 0 std::__ndk1::__function::__func<AdminPanel::setup()::$_0, std::__ndk1::allocator<AdminPanel::setup()::$_0>, void (CCMenuItemSpriteExtra*)>::operator()(CCMenuItemSpriteExtra*&&)
FUNC a1a08 18 0 std::__ndk1::__function::__func<AdminPanel::setup()::$_0, std::__ndk1::allocator<AdminPanel::setup()::$_0>, void (CCMenuItemSpriteExtra*)>::target(std::type_info const&) const
FUNC a1a20 c 0 std::__ndk1::__function::__func<AdminPanel::setup()::$_0, std::__ndk1::allocator<AdminPanel::setup()::$_0>, void (CCMenuItemSpriteExtra*)>::target_type() const
FUNC a1a2c d8 0 std::__ndk1::basic_stringstream<char, std::__ndk1::char_traits<char>, std::__ndk1::allocator<char> >::basic_stringstream[abi:ne180000]()
FUNC a1b04 1b0 0 cereal::JSONOutputArchive::JSONOutputArchive(std::__ndk1::basic_ostream<char, std::__ndk1::char_traits<char> >&, cereal::JSONOutputArchive::Options const&)
FUNC a1cb4 80 0 cereal::JSONOutputArchive::~JSONOutputArchive()
FUNC a1d34 60 0 geode::impl::ResultData<matjson::Value, std::__ndk1::basic_string<char, std::__ndk1::char_traits<char>, std::__ndk1::allocator<char> > >::~ResultData()
FUNC a1d94 60 0 geode::impl::ResultData<matjson::Value, matjson::ParseError>::~ResultData()
FUNC a1df4 68 0 std::__ndk1::basic_stringstream<char, std::__ndk1::char_traits<char>, std::__ndk1::allocator<char> >::~basic_stringstream()
FUNC a1e5c 1a 0 rapidjson::Writer<rapidjson::BasicOStreamWrapper<std::__ndk1::basic_ostream<char, std::__ndk1::char_traits<char> > >, rapidjson::UTF8<char>, rapidjson::UTF8<char>, rapidjson::CrtAllocator, (unsigned int)2>::~Writer()
FUNC a1e76 10 0 cereal::JSONOutputArchive::~JSONOutputArchive()
FUNC a1e86 2 0 cereal::detail::OutputArchiveBase::rtti()
FUNC a1e88 148 0 cereal::OutputArchive<cereal::JSONOutputArchive, (unsigned int)0>::~OutputArchive()
FUNC a1fd0 10 0 cereal::OutputArchive<cereal::JSONOutputArchive, (unsigned int)0>::~OutputArchive()
FUNC a1fe0 18 0 cereal::RapidJSONException::RapidJSONException(char const*)
FUNC a1ff8 10 0 cereal::RapidJSONException::~RapidJSONException()
FUNC a2008 370 0 std::__ndk1::deque<unsigned int, std::__ndk1::allocator<unsigned int> >::__add_back_capacity()
FUNC a2378 120 0 std::__ndk1::__split_buffer<unsigned int*, std::__ndk1::allocator<unsigned int*> >::push_back(unsigned int*&&)
FUNC a2498 11e 0 std::__ndk1::__split_buffer<unsigned int*, std::__ndk1::allocator<unsigned int*> >::push_front(unsigned int*&&)
FUNC a25b6 11e 0 std::__ndk1::__split_buffer<unsigned int*, std::__ndk1::allocator<unsigned int*>&>::push_front(unsigned int* const&)
FUNC a26d4 370 0 std::__ndk1::deque<cereal::JSONOutputArchive::NodeType, std::__ndk1::allocator<cereal::JSONOutputArchive::NodeType> >::__add_back_capacity()
FUNC a2a44 120 0 std::__ndk1::__split_buffer<cereal::JSONOutputArchive::NodeType*, std::__ndk1::allocator<cereal::JSONOutputArchive::NodeType*> >::push_back(cereal::JSONOutputArchive::NodeType*&&)
FUNC a2b64 11e 0 std::__ndk1::__split_buffer<cereal::JSONOutputArchive::NodeType*, std::__ndk1::allocator<cereal::JSONOutputArchive::NodeType*> >::push_front(cereal::JSONOutputArchive::NodeType*&&)
FUNC a2c82 11e 0 std::__ndk1::__split_buffer<cereal::JSONOutputArchive::NodeType*, std::__ndk1::allocator<cereal::JSONOutputArchive::NodeType*>&>::push_front(cereal::JSONOutputArchive::NodeType* const&)
FUNC a2da0 7c 0 std::__ndk1::deque<cereal::JSONOutputArchive::NodeType, std::__ndk1::allocator<cereal::JSONOutputArchive::NodeType> >::~deque[abi:ne180000]()
FUNC a2e1c 7c 0 std::__ndk1::deque<unsigned int, std::__ndk1::allocator<unsigned int> >::~deque[abi:ne180000]()
FUNC a2e98 a0 0 cereal::JSONOutputArchive::startNode()
FUNC a2f38 1bc 0 cereal::JSONOutputArchive::writeName()
FUNC a30f4 98 0 rapidjson::PrettyWriter<rapidjson::BasicOStreamWrapper<std::__ndk1::basic_ostream<char, std::__ndk1::char_traits<char> > >, rapidjson::UTF8<char>, rapidjson::UTF8<char>, rapidjson::CrtAllocator, (unsigned int)2>::StartArray()
FUNC a318c 94 0 rapidjson::PrettyWriter<rapidjson::BasicOStreamWrapper<std::__ndk1::basic_ostream<char, std::__ndk1::char_traits<char> > >, rapidjson::UTF8<char>, rapidjson::UTF8<char>, rapidjson::CrtAllocator, (unsigned int)2>::StartObject()
FUNC a3220 170 0 rapidjson::PrettyWriter<rapidjson::BasicOStreamWrapper<std::__ndk1::basic_ostream<char, std::__ndk1::char_traits<char> > >, rapidjson::UTF8<char>, rapidjson::UTF8<char>, rapidjson::CrtAllocator, (unsigned int)2>::PrettyPrefix(rapidjson::Type)
FUNC a3390 66 0 rapidjson::internal::Stack<rapidjson::CrtAllocator>::Expand<rapidjson::Writer<rapidjson::BasicOStreamWrapper<std::__ndk1::basic_ostream<char, std::__ndk1::char_traits<char> > >, rapidjson::UTF8<char>, rapidjson::UTF8<char>, rapidjson::CrtAllocator, (unsigned int)2>::Level>(unsigned int)
FUNC a33f8 10 0 std::__ndk1::basic_string<char, std::__ndk1::char_traits<char>, std::__ndk1::allocator<char> >::__throw_out_of_range[abi:ne180000]() const
FUNC a3408 38 0 std::__ndk1::__throw_out_of_range[abi:ne180000](char const*)
FUNC a3440 18 0 std::out_of_range::out_of_range[abi:ne180000](char const*)
FUNC a3458 78 0 rapidjson::PrettyWriter<rapidjson::BasicOStreamWrapper<std::__ndk1::basic_ostream<char, std::__ndk1::char_traits<char> > >, rapidjson::UTF8<char>, rapidjson::UTF8<char>, rapidjson::CrtAllocator, (unsigned int)2>::String(char const*, unsigned int, bool)
FUNC a34d0 bc 0 rapidjson::Writer<rapidjson::BasicOStreamWrapper<std::__ndk1::basic_ostream<char, std::__ndk1::char_traits<char> > >, rapidjson::UTF8<char>, rapidjson::UTF8<char>, rapidjson::CrtAllocator, (unsigned int)2>::WriteString(char const*, unsigned int)
FUNC a358c cc 0 cereal::JSONOutputArchive::finishNode()
FUNC a3658 ec 0 rapidjson::PrettyWriter<rapidjson::BasicOStreamWrapper<std::__ndk1::basic_ostream<char, std::__ndk1::char_traits<char> > >, rapidjson::UTF8<char>, rapidjson::UTF8<char>, rapidjson::CrtAllocator, (unsigned int)2>::EndArray(unsigned int)
FUNC a3744 100 0 rapidjson::PrettyWriter<rapidjson::BasicOStreamWrapper<std::__ndk1::basic_ostream<char, std::__ndk1::char_traits<char> > >, rapidjson::UTF8<char>, rapidjson::UTF8<char>, rapidjson::CrtAllocator, (unsigned int)2>::EndObject(unsigned int)
FUNC a3844 220 0 matjson::ParseError::operator std::__ndk1::basic_string<char, std::__ndk1::char_traits<char>, std::__ndk1::allocator<char> >() const
FUNC a3a64 104 0 _ZN5geode15UnwrapExceptionC2IRNSt6__ndk112basic_stringIcNS2_11char_traitsIcEENS2_9allocatorIcEEEEQsr4implE18IsStringStreamableIT_EEENS_4impl6ErrTagEOSA_
FUNC a3b68 108 0 std::__ndk1::__put_character_sequence[abi:ne180000]<char, std::__ndk1::char_traits<char> >(std::__ndk1::basic_ostream<char, std::__ndk1::char_traits<char> >, std::__ndk1::basic_ostream const*, unsigned int)
FUNC a3c70 110 0 std::__ndk1::__pad_and_output[abi:ne180000]<char, std::__ndk1::char_traits<char> >(std::__ndk1::char_traits<char>, std::__ndk1::ostreambuf_iterator const*, std::__ndk1::ostreambuf_iterator const, std::__ndk1::ostreambuf_iterator const, std::__ndk1::ios_base&, std::__ndk1::ostreambuf_iterator)
FUNC a3d80 ce 0 std::__ndk1::basic_stringbuf<char, std::__ndk1::char_traits<char>, std::__ndk1::allocator<char> >::str[abi:ne180000]() &&
FUNC a3e4e e0 0 std::__ndk1::basic_stringbuf<char, std::__ndk1::char_traits<char>, std::__ndk1::allocator<char> >::__init_buf_ptrs[abi:ne180000]()
FUNC a3f2e 6 0 std::__ndk1::__variant_detail::__visitation::__base::__dispatcher<(unsigned int)0>::__dispatch[abi:ne180000]<std::__ndk1::__variant_detail::__dtor<std::__ndk1::__variant_detail::__traits<matjson::Value, std::__ndk1::basic_string<char, std::__ndk1::char_traits<char>, std::__ndk1::allocator<char> > >, (std::__ndk1::__variant_detail::_Trait)1>::__destroy[abi:ne180000]()::{lambda(auto:1&)#1}, std::__ndk1::__variant_detail::__base<(std::__ndk1::__variant_detail::__traits<matjson::Value, std::__ndk1::basic_string<char, std::__ndk1::char_traits<char>, std::__ndk1::allocator<char> > >)1, matjson, std::__ndk1::allocator<char> >&>(std::__ndk1::__variant_detail::__dtor<std::__ndk1::__variant_detail::__traits<matjson::Value, std::__ndk1::basic_string<char, std::__ndk1::char_traits<char>, std::__ndk1::allocator<char> > >, (std::__ndk1::__variant_detail::_Trait)1>, std::__ndk1::__variant_detail::__base<(std::__ndk1::__variant_detail::__traits<matjson::Value, std::__ndk1::basic_string<char, std::__ndk1::char_traits<char>, std::__ndk1::allocator<char> > >)1, matjson, std::__ndk1::allocator<char> >&)
FUNC a3f34 e 0 std::__ndk1::__variant_detail::__visitation::__base::__dispatcher<(unsigned int)1>::__dispatch[abi:ne180000]<std::__ndk1::__variant_detail::__dtor<std::__ndk1::__variant_detail::__traits<matjson::Value, std::__ndk1::basic_string<char, std::__ndk1::char_traits<char>, std::__ndk1::allocator<char> > >, (std::__ndk1::__variant_detail::_Trait)1>::__destroy[abi:ne180000]()::{lambda(auto:1&)#1}, std::__ndk1::__variant_detail::__base<(std::__ndk1::__variant_detail::__traits<matjson::Value, std::__ndk1::basic_string<char, std::__ndk1::char_traits<char>, std::__ndk1::allocator<char> > >)1, matjson, std::__ndk1::allocator<char> >&>(std::__ndk1::__variant_detail::__dtor<std::__ndk1::__variant_detail::__traits<matjson::Value, std::__ndk1::basic_string<char, std::__ndk1::char_traits<char>, std::__ndk1::allocator<char> > >, (std::__ndk1::__variant_detail::_Trait)1>, std::__ndk1::__variant_detail::__base<(std::__ndk1::__variant_detail::__traits<matjson::Value, std::__ndk1::basic_string<char, std::__ndk1::char_traits<char>, std::__ndk1::allocator<char> > >)1, matjson, std::__ndk1::allocator<char> >&)
FUNC a3f42 6 0 std::__ndk1::__variant_detail::__visitation::__base::__dispatcher<(unsigned int)0>::__dispatch[abi:ne180000]<std::__ndk1::__variant_detail::__dtor<std::__ndk1::__variant_detail::__traits<matjson::Value, std::__ndk1::__variant_detail::__traits::ParseError>, (std::__ndk1::__variant_detail::_Trait)1>::__destroy[abi:ne180000]()::{lambda(auto:1&)#1}, std::__ndk1::__variant_detail::__base<(std::__ndk1::__variant_detail::__traits<matjson::Value, std::__ndk1::__variant_detail::__traits::ParseError>)1, matjson, matjson::Value>&>(std::__ndk1::__variant_detail::__dtor<std::__ndk1::__variant_detail::__traits<matjson::Value, std::__ndk1::__variant_detail::__traits::ParseError>, (std::__ndk1::__variant_detail::_Trait)1>, std::__ndk1::__variant_detail::__base<(std::__ndk1::__variant_detail::__traits<matjson::Value, std::__ndk1::__variant_detail::__traits::ParseError>)1, matjson, matjson::Value>&)
FUNC a3f48 e 0 std::__ndk1::__variant_detail::__visitation::__base::__dispatcher<(unsigned int)1>::__dispatch[abi:ne180000]<std::__ndk1::__variant_detail::__dtor<std::__ndk1::__variant_detail::__traits<matjson::Value, std::__ndk1::__variant_detail::__traits::ParseError>, (std::__ndk1::__variant_detail::_Trait)1>::__destroy[abi:ne180000]()::{lambda(auto:1&)#1}, std::__ndk1::__variant_detail::__base<(std::__ndk1::__variant_detail::__traits<matjson::Value, std::__ndk1::__variant_detail::__traits::ParseError>)1, matjson, matjson::Value>&>(std::__ndk1::__variant_detail::__dtor<std::__ndk1::__variant_detail::__traits<matjson::Value, std::__ndk1::__variant_detail::__traits::ParseError>, (std::__ndk1::__variant_detail::_Trait)1>, std::__ndk1::__variant_detail::__base<(std::__ndk1::__variant_detail::__traits<matjson::Value, std::__ndk1::__variant_detail::__traits::ParseError>)1, matjson, matjson::Value>&)
FUNC a3f58 34 0 std::__ndk1::__function::__func<NetworkManager::send<BanUserPacket>(BanUserPacket*, std::__ndk1::function<void ()>)::{lambda(int, int)#1}, std::__ndk1::allocator<NetworkManager::send<BanUserPacket>(BanUserPacket*, std::__ndk1::function<void ()>)::{lambda(int, int)#1}>, bool (int, int)>::~__func()
FUNC a3f8c 38 0 std::__ndk1::__function::__func<NetworkManager::send<BanUserPacket>(BanUserPacket*, std::__ndk1::function<void ()>)::{lambda(int, int)#1}, std::__ndk1::allocator<NetworkManager::send<BanUserPacket>(BanUserPacket*, std::__ndk1::function<void ()>)::{lambda(int, int)#1}>, bool (int, int)>::~__func()
FUNC a3fc4 54 0 std::__ndk1::__function::__func<NetworkManager::send<BanUserPacket>(BanUserPacket*, std::__ndk1::function<void ()>)::{lambda(int, int)#1}, std::__ndk1::allocator<NetworkManager::send<BanUserPacket>(BanUserPacket*, std::__ndk1::function<void ()>)::{lambda(int, int)#1}>, bool (int, int)>::__clone() const
FUNC a4018 44 0 std::__ndk1::__function::__func<NetworkManager::send<BanUserPacket>(BanUserPacket*, std::__ndk1::function<void ()>)::{lambda(int, int)#1}, std::__ndk1::allocator<NetworkManager::send<BanUserPacket>(BanUserPacket*, std::__ndk1::function<void ()>)::{lambda(int, int)#1}>, bool (int, int)>::__clone(std::__ndk1::__function::__base<bool (int, int)>*) const
FUNC a405c 1e 0 std::__ndk1::__function::__func<NetworkManager::send<BanUserPacket>(BanUserPacket*, std::__ndk1::function<void ()>)::{lambda(int, int)#1}, std::__ndk1::allocator<NetworkManager::send<BanUserPacket>(BanUserPacket*, std::__ndk1::function<void ()>)::{lambda(int, int)#1}>, bool (int, int)>::destroy()
FUNC a407a 2a 0 std::__ndk1::__function::__func<NetworkManager::send<BanUserPacket>(BanUserPacket*, std::__ndk1::function<void ()>)::{lambda(int, int)#1}, std::__ndk1::allocator<NetworkManager::send<BanUserPacket>(BanUserPacket*, std::__ndk1::function<void ()>)::{lambda(int, int)#1}>, bool (int, int)>::destroy_deallocate()
FUNC a40a4 140 0 std::__ndk1::__function::__func<NetworkManager::send<BanUserPacket>(BanUserPacket*, std::__ndk1::function<void ()>)::{lambda(int, int)#1}, std::__ndk1::allocator<NetworkManager::send<BanUserPacket>(BanUserPacket*, std::__ndk1::function<void ()>)::{lambda(int, int)#1}>, bool (int, int)>::operator()(int&&, int&&)
FUNC a41e4 18 0 std::__ndk1::__function::__func<NetworkManager::send<BanUserPacket>(BanUserPacket*, std::__ndk1::function<void ()>)::{lambda(int, int)#1}, std::__ndk1::allocator<NetworkManager::send<BanUserPacket>(BanUserPacket*, std::__ndk1::function<void ()>)::{lambda(int, int)#1}>, bool (int, int)>::target(std::type_info const&) const
FUNC a41fc c 0 std::__ndk1::__function::__func<NetworkManager::send<BanUserPacket>(BanUserPacket*, std::__ndk1::function<void ()>)::{lambda(int, int)#1}, std::__ndk1::allocator<NetworkManager::send<BanUserPacket>(BanUserPacket*, std::__ndk1::function<void ()>)::{lambda(int, int)#1}>, bool (int, int)>::target_type() const
FUNC a4208 34 0 std::__ndk1::__function::__func<NetworkManager::send<BanUserPacket>(BanUserPacket*, std::__ndk1::function<void ()>)::{lambda(int, int)#1}::operator()(int, int) const::{lambda()#1}, std::__ndk1::allocator<NetworkManager::send<BanUserPacket>(BanUserPacket*, std::__ndk1::function<void ()>)::{lambda(int, int)#1}::operator()(int, int) const::{lambda()#1}>, void ()>::~__func()
FUNC a423c 38 0 std::__ndk1::__function::__func<NetworkManager::send<BanUserPacket>(BanUserPacket*, std::__ndk1::function<void ()>)::{lambda(int, int)#1}::operator()(int, int) const::{lambda()#1}, std::__ndk1::allocator<NetworkManager::send<BanUserPacket>(BanUserPacket*, std::__ndk1::function<void ()>)::{lambda(int, int)#1}::operator()(int, int) const::{lambda()#1}>, void ()>::~__func()
FUNC a4274 54 0 std::__ndk1::__function::__func<NetworkManager::send<BanUserPacket>(BanUserPacket*, std::__ndk1::function<void ()>)::{lambda(int, int)#1}::operator()(int, int) const::{lambda()#1}, std::__ndk1::allocator<NetworkManager::send<BanUserPacket>(BanUserPacket*, std::__ndk1::function<void ()>)::{lambda(int, int)#1}::operator()(int, int) const::{lambda()#1}>, void ()>::__clone() const
FUNC a42c8 44 0 std::__ndk1::__function::__func<NetworkManager::send<BanUserPacket>(BanUserPacket*, std::__ndk1::function<void ()>)::{lambda(int, int)#1}::operator()(int, int) const::{lambda()#1}, std::__ndk1::allocator<NetworkManager::send<BanUserPacket>(BanUserPacket*, std::__ndk1::function<void ()>)::{lambda(int, int)#1}::operator()(int, int) const::{lambda()#1}>, void ()>::__clone(std::__ndk1::__function::__base<void ()>*) const
FUNC a430c 1e 0 std::__ndk1::__function::__func<NetworkManager::send<BanUserPacket>(BanUserPacket*, std::__ndk1::function<void ()>)::{lambda(int, int)#1}::operator()(int, int) const::{lambda()#1}, std::__ndk1::allocator<NetworkManager::send<BanUserPacket>(BanUserPacket*, std::__ndk1::function<void ()>)::{lambda(int, int)#1}::operator()(int, int) const::{lambda()#1}>, void ()>::destroy()
FUNC a432a 2a 0 std::__ndk1::__function::__func<NetworkManager::send<BanUserPacket>(BanUserPacket*, std::__ndk1::function<void ()>)::{lambda(int, int)#1}::operator()(int, int) const::{lambda()#1}, std::__ndk1::allocator<NetworkManager::send<BanUserPacket>(BanUserPacket*, std::__ndk1::function<void ()>)::{lambda(int, int)#1}::operator()(int, int) const::{lambda()#1}>, void ()>::destroy_deallocate()
FUNC a4354 12 0 std::__ndk1::__function::__func<NetworkManager::send<BanUserPacket>(BanUserPacket*, std::__ndk1::function<void ()>)::{lambda(int, int)#1}::operator()(int, int) const::{lambda()#1}, std::__ndk1::allocator<NetworkManager::send<BanUserPacket>(BanUserPacket*, std::__ndk1::function<void ()>)::{lambda(int, int)#1}::operator()(int, int) const::{lambda()#1}>, void ()>::operator()()
FUNC a4368 18 0 std::__ndk1::__function::__func<NetworkManager::send<BanUserPacket>(BanUserPacket*, std::__ndk1::function<void ()>)::{lambda(int, int)#1}::operator()(int, int) const::{lambda()#1}, std::__ndk1::allocator<NetworkManager::send<BanUserPacket>(BanUserPacket*, std::__ndk1::function<void ()>)::{lambda(int, int)#1}::operator()(int, int) const::{lambda()#1}>, void ()>::target(std::type_info const&) const
FUNC a4380 c 0 std::__ndk1::__function::__func<NetworkManager::send<BanUserPacket>(BanUserPacket*, std::__ndk1::function<void ()>)::{lambda(int, int)#1}::operator()(int, int) const::{lambda()#1}, std::__ndk1::allocator<NetworkManager::send<BanUserPacket>(BanUserPacket*, std::__ndk1::function<void ()>)::{lambda(int, int)#1}::operator()(int, int) const::{lambda()#1}>, void ()>::target_type() const
FUNC a438c 2 0 BanUserPacket::decode(std::__ndk1::basic_string<char, std::__ndk1::char_traits<char>, std::__ndk1::allocator<char> >)
FUNC a438e 6 0 BanUserPacket::getPacketID() const
FUNC a4394 c 0 BanUserPacket::getPacketName() const
FUNC a43a0 2 0 std::__ndk1::__function::__base<void (CCMenuItemSpriteExtra*)>::~__base()
FUNC a43a2 4 0 std::__ndk1::__function::__func<AdminPanel::setup()::$_1, std::__ndk1::allocator<AdminPanel::setup()::$_1>, void (CCMenuItemSpriteExtra*)>::~__func()
FUNC a43a8 20 0 std::__ndk1::__function::__func<AdminPanel::setup()::$_1, std::__ndk1::allocator<AdminPanel::setup()::$_1>, void (CCMenuItemSpriteExtra*)>::__clone() const
FUNC a43c8 14 0 std::__ndk1::__function::__func<AdminPanel::setup()::$_1, std::__ndk1::allocator<AdminPanel::setup()::$_1>, void (CCMenuItemSpriteExtra*)>::__clone(std::__ndk1::__function::__base<void (CCMenuItemSpriteExtra*)>*) const
FUNC a43dc 2 0 std::__ndk1::__function::__func<AdminPanel::setup()::$_1, std::__ndk1::allocator<AdminPanel::setup()::$_1>, void (CCMenuItemSpriteExtra*)>::destroy()
FUNC a43de 4 0 std::__ndk1::__function::__func<AdminPanel::setup()::$_1, std::__ndk1::allocator<AdminPanel::setup()::$_1>, void (CCMenuItemSpriteExtra*)>::destroy_deallocate()
FUNC a43e4 6dc 0 std::__ndk1::__function::__func<AdminPanel::setup()::$_1, std::__ndk1::allocator<AdminPanel::setup()::$_1>, void (CCMenuItemSpriteExtra*)>::operator()(CCMenuItemSpriteExtra*&&)
FUNC a4ac0 18 0 std::__ndk1::__function::__func<AdminPanel::setup()::$_1, std::__ndk1::allocator<AdminPanel::setup()::$_1>, void (CCMenuItemSpriteExtra*)>::target(std::type_info const&) const
FUNC a4ad8 c 0 std::__ndk1::__function::__func<AdminPanel::setup()::$_1, std::__ndk1::allocator<AdminPanel::setup()::$_1>, void (CCMenuItemSpriteExtra*)>::target_type() const
FUNC a4ae4 17c 0 geode::utils::numFromString<int>(std::__ndk1::basic_string_view<char, std::__ndk1::char_traits<char> >, int)
FUNC a4c60 60 0 geode::impl::ResultData<int, std::__ndk1::basic_string<char, std::__ndk1::char_traits<char>, std::__ndk1::allocator<char> > >::~ResultData()
FUNC a4cc0 268 0 rapidjson::internal::u32toa(unsigned int, char*)
FUNC a4f28 34 0 std::__ndk1::__function::__func<NetworkManager::send<UnbanUserPacket>(UnbanUserPacket*, std::__ndk1::function<void ()>)::{lambda(int, int)#1}, std::__ndk1::allocator<NetworkManager::send<UnbanUserPacket>(UnbanUserPacket*, std::__ndk1::function<void ()>)::{lambda(int, int)#1}>, bool (int, int)>::~__func()
FUNC a4f5c 38 0 std::__ndk1::__function::__func<NetworkManager::send<UnbanUserPacket>(UnbanUserPacket*, std::__ndk1::function<void ()>)::{lambda(int, int)#1}, std::__ndk1::allocator<NetworkManager::send<UnbanUserPacket>(UnbanUserPacket*, std::__ndk1::function<void ()>)::{lambda(int, int)#1}>, bool (int, int)>::~__func()
FUNC a4f94 54 0 std::__ndk1::__function::__func<NetworkManager::send<UnbanUserPacket>(UnbanUserPacket*, std::__ndk1::function<void ()>)::{lambda(int, int)#1}, std::__ndk1::allocator<NetworkManager::send<UnbanUserPacket>(UnbanUserPacket*, std::__ndk1::function<void ()>)::{lambda(int, int)#1}>, bool (int, int)>::__clone() const
FUNC a4fe8 44 0 std::__ndk1::__function::__func<NetworkManager::send<UnbanUserPacket>(UnbanUserPacket*, std::__ndk1::function<void ()>)::{lambda(int, int)#1}, std::__ndk1::allocator<NetworkManager::send<UnbanUserPacket>(UnbanUserPacket*, std::__ndk1::function<void ()>)::{lambda(int, int)#1}>, bool (int, int)>::__clone(std::__ndk1::__function::__base<bool (int, int)>*) const
FUNC a502c 1e 0 std::__ndk1::__function::__func<NetworkManager::send<UnbanUserPacket>(UnbanUserPacket*, std::__ndk1::function<void ()>)::{lambda(int, int)#1}, std::__ndk1::allocator<NetworkManager::send<UnbanUserPacket>(UnbanUserPacket*, std::__ndk1::function<void ()>)::{lambda(int, int)#1}>, bool (int, int)>::destroy()
FUNC a504a 2a 0 std::__ndk1::__function::__func<NetworkManager::send<UnbanUserPacket>(UnbanUserPacket*, std::__ndk1::function<void ()>)::{lambda(int, int)#1}, std::__ndk1::allocator<NetworkManager::send<UnbanUserPacket>(UnbanUserPacket*, std::__ndk1::function<void ()>)::{lambda(int, int)#1}>, bool (int, int)>::destroy_deallocate()
FUNC a5074 140 0 std::__ndk1::__function::__func<NetworkManager::send<UnbanUserPacket>(UnbanUserPacket*, std::__ndk1::function<void ()>)::{lambda(int, int)#1}, std::__ndk1::allocator<NetworkManager::send<UnbanUserPacket>(UnbanUserPacket*, std::__ndk1::function<void ()>)::{lambda(int, int)#1}>, bool (int, int)>::operator()(int&&, int&&)
FUNC a51b4 18 0 std::__ndk1::__function::__func<NetworkManager::send<UnbanUserPacket>(UnbanUserPacket*, std::__ndk1::function<void ()>)::{lambda(int, int)#1}, std::__ndk1::allocator<NetworkManager::send<UnbanUserPacket>(UnbanUserPacket*, std::__ndk1::function<void ()>)::{lambda(int, int)#1}>, bool (int, int)>::target(std::type_info const&) const
FUNC a51cc c 0 std::__ndk1::__function::__func<NetworkManager::send<UnbanUserPacket>(UnbanUserPacket*, std::__ndk1::function<void ()>)::{lambda(int, int)#1}, std::__ndk1::allocator<NetworkManager::send<UnbanUserPacket>(UnbanUserPacket*, std::__ndk1::function<void ()>)::{lambda(int, int)#1}>, bool (int, int)>::target_type() const
FUNC a51d8 34 0 std::__ndk1::__function::__func<NetworkManager::send<UnbanUserPacket>(UnbanUserPacket*, std::__ndk1::function<void ()>)::{lambda(int, int)#1}::operator()(int, int) const::{lambda()#1}, std::__ndk1::allocator<NetworkManager::send<UnbanUserPacket>(UnbanUserPacket*, std::__ndk1::function<void ()>)::{lambda(int, int)#1}::operator()(int, int) const::{lambda()#1}>, void ()>::~__func()
FUNC a520c 38 0 std::__ndk1::__function::__func<NetworkManager::send<UnbanUserPacket>(UnbanUserPacket*, std::__ndk1::function<void ()>)::{lambda(int, int)#1}::operator()(int, int) const::{lambda()#1}, std::__ndk1::allocator<NetworkManager::send<UnbanUserPacket>(UnbanUserPacket*, std::__ndk1::function<void ()>)::{lambda(int, int)#1}::operator()(int, int) const::{lambda()#1}>, void ()>::~__func()
FUNC a5244 54 0 std::__ndk1::__function::__func<NetworkManager::send<UnbanUserPacket>(UnbanUserPacket*, std::__ndk1::function<void ()>)::{lambda(int, int)#1}::operator()(int, int) const::{lambda()#1}, std::__ndk1::allocator<NetworkManager::send<UnbanUserPacket>(UnbanUserPacket*, std::__ndk1::function<void ()>)::{lambda(int, int)#1}::operator()(int, int) const::{lambda()#1}>, void ()>::__clone() const
FUNC a5298 44 0 std::__ndk1::__function::__func<NetworkManager::send<UnbanUserPacket>(UnbanUserPacket*, std::__ndk1::function<void ()>)::{lambda(int, int)#1}::operator()(int, int) const::{lambda()#1}, std::__ndk1::allocator<NetworkManager::send<UnbanUserPacket>(UnbanUserPacket*, std::__ndk1::function<void ()>)::{lambda(int, int)#1}::operator()(int, int) const::{lambda()#1}>, void ()>::__clone(std::__ndk1::__function::__base<void ()>*) const
FUNC a52dc 1e 0 std::__ndk1::__function::__func<NetworkManager::send<UnbanUserPacket>(UnbanUserPacket*, std::__ndk1::function<void ()>)::{lambda(int, int)#1}::operator()(int, int) const::{lambda()#1}, std::__ndk1::allocator<NetworkManager::send<UnbanUserPacket>(UnbanUserPacket*, std::__ndk1::function<void ()>)::{lambda(int, int)#1}::operator()(int, int) const::{lambda()#1}>, void ()>::destroy()
FUNC a52fa 2a 0 std::__ndk1::__function::__func<NetworkManager::send<UnbanUserPacket>(UnbanUserPacket*, std::__ndk1::function<void ()>)::{lambda(int, int)#1}::operator()(int, int) const::{lambda()#1}, std::__ndk1::allocator<NetworkManager::send<UnbanUserPacket>(UnbanUserPacket*, std::__ndk1::function<void ()>)::{lambda(int, int)#1}::operator()(int, int) const::{lambda()#1}>, void ()>::destroy_deallocate()
FUNC a5324 12 0 std::__ndk1::__function::__func<NetworkManager::send<UnbanUserPacket>(UnbanUserPacket*, std::__ndk1::function<void ()>)::{lambda(int, int)#1}::operator()(int, int) const::{lambda()#1}, std::__ndk1::allocator<NetworkManager::send<UnbanUserPacket>(UnbanUserPacket*, std::__ndk1::function<void ()>)::{lambda(int, int)#1}::operator()(int, int) const::{lambda()#1}>, void ()>::operator()()
FUNC a5338 18 0 std::__ndk1::__function::__func<NetworkManager::send<UnbanUserPacket>(UnbanUserPacket*, std::__ndk1::function<void ()>)::{lambda(int, int)#1}::operator()(int, int) const::{lambda()#1}, std::__ndk1::allocator<NetworkManager::send<UnbanUserPacket>(UnbanUserPacket*, std::__ndk1::function<void ()>)::{lambda(int, int)#1}::operator()(int, int) const::{lambda()#1}>, void ()>::target(std::type_info const&) const
FUNC a5350 c 0 std::__ndk1::__function::__func<NetworkManager::send<UnbanUserPacket>(UnbanUserPacket*, std::__ndk1::function<void ()>)::{lambda(int, int)#1}::operator()(int, int) const::{lambda()#1}, std::__ndk1::allocator<NetworkManager::send<UnbanUserPacket>(UnbanUserPacket*, std::__ndk1::function<void ()>)::{lambda(int, int)#1}::operator()(int, int) const::{lambda()#1}>, void ()>::target_type() const
FUNC a535c 2 0 UnbanUserPacket::decode(std::__ndk1::basic_string<char, std::__ndk1::char_traits<char>, std::__ndk1::allocator<char> >)
FUNC a535e 6 0 UnbanUserPacket::getPacketID() const
FUNC a5364 c 0 UnbanUserPacket::getPacketName() const
FUNC a5370 1a4 0 _ZNSt6__ndk121__from_chars_integralB8ne180000IjTnNS_9enable_ifIXsr11is_unsignedIT_EE5valueEiE4typeELi0EEENS_17from_chars_resultEPKcS7_RS2_i
FUNC a5514 100 0 _ZNSt6__ndk124__subject_seq_combinatorB8ne180000IPKcjZNS_21__from_chars_integralB8ne180000IjTnNS_9enable_ifIXsr11is_unsignedIT_EE5valueEiE4typeELi0EEENS_17from_chars_resultES2_S2_RS5_iEUlS2_S2_RjiE_JiEEES8_S5_S5_RT0_T1_DpT2_
FUNC a5614 17c 0 _ZZNSt6__ndk121__from_chars_integralB8ne180000IjTnNS_9enable_ifIXsr11is_unsignedIT_EE5valueEiE4typeELi0EEENS_17from_chars_resultEPKcS7_RS2_iENKUlS7_S7_RjiE_clES7_S7_S9_i
FUNC a5790 2 0 std::__ndk1::__variant_detail::__visitation::__base::__dispatcher<(unsigned int)0>::__dispatch[abi:ne180000]<std::__ndk1::__variant_detail::__dtor<std::__ndk1::__variant_detail::__traits<int, std::__ndk1::basic_string<char, std::__ndk1::char_traits<char>, std::__ndk1::allocator<char> > >, (std::__ndk1::__variant_detail::_Trait)1>::__destroy[abi:ne180000]()::{lambda(auto:1&)#1}, std::__ndk1::__variant_detail::__base<(std::__ndk1::__variant_detail::__traits<int, std::__ndk1::basic_string<char, std::__ndk1::char_traits<char>, std::__ndk1::allocator<char> > >)1, int, std::__ndk1::allocator<char> >&>(std::__ndk1::__variant_detail::__dtor<std::__ndk1::__variant_detail::__traits<int, std::__ndk1::basic_string<char, std::__ndk1::char_traits<char>, std::__ndk1::allocator<char> > >, (std::__ndk1::__variant_detail::_Trait)1>, std::__ndk1::__variant_detail::__base<(std::__ndk1::__variant_detail::__traits<int, std::__ndk1::basic_string<char, std::__ndk1::char_traits<char>, std::__ndk1::allocator<char> > >)1, int, std::__ndk1::allocator<char> >&)
FUNC a5792 e 0 std::__ndk1::__variant_detail::__visitation::__base::__dispatcher<(unsigned int)1>::__dispatch[abi:ne180000]<std::__ndk1::__variant_detail::__dtor<std::__ndk1::__variant_detail::__traits<int, std::__ndk1::basic_string<char, std::__ndk1::char_traits<char>, std::__ndk1::allocator<char> > >, (std::__ndk1::__variant_detail::_Trait)1>::__destroy[abi:ne180000]()::{lambda(auto:1&)#1}, std::__ndk1::__variant_detail::__base<(std::__ndk1::__variant_detail::__traits<int, std::__ndk1::basic_string<char, std::__ndk1::char_traits<char>, std::__ndk1::allocator<char> > >)1, int, std::__ndk1::allocator<char> >&>(std::__ndk1::__variant_detail::__dtor<std::__ndk1::__variant_detail::__traits<int, std::__ndk1::basic_string<char, std::__ndk1::char_traits<char>, std::__ndk1::allocator<char> > >, (std::__ndk1::__variant_detail::_Trait)1>, std::__ndk1::__variant_detail::__base<(std::__ndk1::__variant_detail::__traits<int, std::__ndk1::basic_string<char, std::__ndk1::char_traits<char>, std::__ndk1::allocator<char> > >)1, int, std::__ndk1::allocator<char> >&)
FUNC a57a0 44 0 geode::Popup<>::CloseEvent::~CloseEvent()
FUNC a57e4 40 0 geode::Popup<>::CloseEvent::~CloseEvent()
FUNC a5824 10 0 std::__ndk1::__shared_ptr_emplace<geode::Popup<>::CloseEvent::Impl, std::__ndk1::allocator<geode::Popup<>::CloseEvent::Impl> >::~__shared_ptr_emplace()
FUNC a5834 1c 0 std::__ndk1::__shared_ptr_emplace<geode::Popup<>::CloseEvent::Impl, std::__ndk1::allocator<geode::Popup<>::CloseEvent::Impl> >::~__shared_ptr_emplace()
FUNC a5850 2 0 std::__ndk1::__shared_ptr_emplace<geode::Popup<>::CloseEvent::Impl, std::__ndk1::allocator<geode::Popup<>::CloseEvent::Impl> >::__on_zero_shared()
FUNC a5852 4 0 std::__ndk1::__shared_ptr_emplace<geode::Popup<>::CloseEvent::Impl, std::__ndk1::allocator<geode::Popup<>::CloseEvent::Impl> >::__on_zero_shared_weak()
FUNC a5858 68 0 _GLOBAL__sub_I_AdminPanel.cpp
FUNC a58c0 5e 0 std::__ndk1::basic_string<char, std::__ndk1::char_traits<char>, std::__ndk1::allocator<char> >::basic_string[abi:ne180000]<0>()
FUNC a5920 110 0 AuthPopup::create()
FUNC a5a30 450 0 AuthPopup::setup()
FUNC a5e80 60 0 AuthPopup::~AuthPopup()
FUNC a5ee0 60 0 {virtual override thunk({offset(-264)}, AuthPopup::~AuthPopup())}
FUNC a5f40 64 0 {virtual override thunk({offset(-264)}, AuthPopup::~AuthPopup())}
FUNC a5fa4 4 0 std::__ndk1::__function::__func<AuthPopup::setup()::$_0, std::__ndk1::allocator<AuthPopup::setup()::$_0>, void (CCMenuItemSpriteExtra*)>::~__func()
FUNC a5fa8 20 0 std::__ndk1::__function::__func<AuthPopup::setup()::$_0, std::__ndk1::allocator<AuthPopup::setup()::$_0>, void (CCMenuItemSpriteExtra*)>::__clone() const
FUNC a5fc8 18 0 std::__ndk1::__function::__func<AuthPopup::setup()::$_0, std::__ndk1::allocator<AuthPopup::setup()::$_0>, void (CCMenuItemSpriteExtra*)>::__clone(std::__ndk1::__function::__base<void (CCMenuItemSpriteExtra*)>*) const
FUNC a5fe0 2 0 std::__ndk1::__function::__func<AuthPopup::setup()::$_0, std::__ndk1::allocator<AuthPopup::setup()::$_0>, void (CCMenuItemSpriteExtra*)>::destroy()
FUNC a5fe2 4 0 std::__ndk1::__function::__func<AuthPopup::setup()::$_0, std::__ndk1::allocator<AuthPopup::setup()::$_0>, void (CCMenuItemSpriteExtra*)>::destroy_deallocate()
FUNC a5fe8 6a0 0 std::__ndk1::__function::__func<AuthPopup::setup()::$_0, std::__ndk1::allocator<AuthPopup::setup()::$_0>, void (CCMenuItemSpriteExtra*)>::operator()(CCMenuItemSpriteExtra*&&)
FUNC a6688 18 0 std::__ndk1::__function::__func<AuthPopup::setup()::$_0, std::__ndk1::allocator<AuthPopup::setup()::$_0>, void (CCMenuItemSpriteExtra*)>::target(std::type_info const&) const
FUNC a66a0 c 0 std::__ndk1::__function::__func<AuthPopup::setup()::$_0, std::__ndk1::allocator<AuthPopup::setup()::$_0>, void (CCMenuItemSpriteExtra*)>::target_type() const
FUNC a66ac 10 0 cereal::Exception::~Exception()
FUNC a66bc 1a 0 rapidjson::internal::Stack<rapidjson::CrtAllocator>::~Stack()
FUNC a66d6 38 0 std::__ndk1::operator+[abi:ne180000]<char, std::__ndk1::char_traits<char>, std::__ndk1::allocator<char> >(std::__ndk1::allocator<char>&&, std::__ndk1::basic_string const*)
FUNC a670e 3e 0 std::__ndk1::operator+[abi:ne180000]<char, std::__ndk1::char_traits<char>, std::__ndk1::allocator<char> >(std::__ndk1::basic_string const*, std::__ndk1::allocator<char>&&)
FUNC a674c 34 0 std::__ndk1::__function::__func<NetworkManager::send<AuthorizeUserPacket>(AuthorizeUserPacket*, std::__ndk1::function<void ()>)::{lambda(int, int)#1}, std::__ndk1::allocator<NetworkManager::send<AuthorizeUserPacket>(AuthorizeUserPacket*, std::__ndk1::function<void ()>)::{lambda(int, int)#1}>, bool (int, int)>::~__func()
FUNC a6780 38 0 std::__ndk1::__function::__func<NetworkManager::send<AuthorizeUserPacket>(AuthorizeUserPacket*, std::__ndk1::function<void ()>)::{lambda(int, int)#1}, std::__ndk1::allocator<NetworkManager::send<AuthorizeUserPacket>(AuthorizeUserPacket*, std::__ndk1::function<void ()>)::{lambda(int, int)#1}>, bool (int, int)>::~__func()
FUNC a67b8 54 0 std::__ndk1::__function::__func<NetworkManager::send<AuthorizeUserPacket>(AuthorizeUserPacket*, std::__ndk1::function<void ()>)::{lambda(int, int)#1}, std::__ndk1::allocator<NetworkManager::send<AuthorizeUserPacket>(AuthorizeUserPacket*, std::__ndk1::function<void ()>)::{lambda(int, int)#1}>, bool (int, int)>::__clone() const
FUNC a680c 44 0 std::__ndk1::__function::__func<NetworkManager::send<AuthorizeUserPacket>(AuthorizeUserPacket*, std::__ndk1::function<void ()>)::{lambda(int, int)#1}, std::__ndk1::allocator<NetworkManager::send<AuthorizeUserPacket>(AuthorizeUserPacket*, std::__ndk1::function<void ()>)::{lambda(int, int)#1}>, bool (int, int)>::__clone(std::__ndk1::__function::__base<bool (int, int)>*) const
FUNC a6850 1e 0 std::__ndk1::__function::__func<NetworkManager::send<AuthorizeUserPacket>(AuthorizeUserPacket*, std::__ndk1::function<void ()>)::{lambda(int, int)#1}, std::__ndk1::allocator<NetworkManager::send<AuthorizeUserPacket>(AuthorizeUserPacket*, std::__ndk1::function<void ()>)::{lambda(int, int)#1}>, bool (int, int)>::destroy()
FUNC a686e 2a 0 std::__ndk1::__function::__func<NetworkManager::send<AuthorizeUserPacket>(AuthorizeUserPacket*, std::__ndk1::function<void ()>)::{lambda(int, int)#1}, std::__ndk1::allocator<NetworkManager::send<AuthorizeUserPacket>(AuthorizeUserPacket*, std::__ndk1::function<void ()>)::{lambda(int, int)#1}>, bool (int, int)>::destroy_deallocate()
FUNC a6898 140 0 std::__ndk1::__function::__func<NetworkManager::send<AuthorizeUserPacket>(AuthorizeUserPacket*, std::__ndk1::function<void ()>)::{lambda(int, int)#1}, std::__ndk1::allocator<NetworkManager::send<AuthorizeUserPacket>(AuthorizeUserPacket*, std::__ndk1::function<void ()>)::{lambda(int, int)#1}>, bool (int, int)>::operator()(int&&, int&&)
FUNC a69d8 18 0 std::__ndk1::__function::__func<NetworkManager::send<AuthorizeUserPacket>(AuthorizeUserPacket*, std::__ndk1::function<void ()>)::{lambda(int, int)#1}, std::__ndk1::allocator<NetworkManager::send<AuthorizeUserPacket>(AuthorizeUserPacket*, std::__ndk1::function<void ()>)::{lambda(int, int)#1}>, bool (int, int)>::target(std::type_info const&) const
FUNC a69f0 c 0 std::__ndk1::__function::__func<NetworkManager::send<AuthorizeUserPacket>(AuthorizeUserPacket*, std::__ndk1::function<void ()>)::{lambda(int, int)#1}, std::__ndk1::allocator<NetworkManager::send<AuthorizeUserPacket>(AuthorizeUserPacket*, std::__ndk1::function<void ()>)::{lambda(int, int)#1}>, bool (int, int)>::target_type() const
FUNC a69fc 34 0 std::__ndk1::__function::__func<NetworkManager::send<AuthorizeUserPacket>(AuthorizeUserPacket*, std::__ndk1::function<void ()>)::{lambda(int, int)#1}::operator()(int, int) const::{lambda()#1}, std::__ndk1::allocator<NetworkManager::send<AuthorizeUserPacket>(AuthorizeUserPacket*, std::__ndk1::function<void ()>)::{lambda(int, int)#1}::operator()(int, int) const::{lambda()#1}>, void ()>::~__func()
FUNC a6a30 38 0 std::__ndk1::__function::__func<NetworkManager::send<AuthorizeUserPacket>(AuthorizeUserPacket*, std::__ndk1::function<void ()>)::{lambda(int, int)#1}::operator()(int, int) const::{lambda()#1}, std::__ndk1::allocator<NetworkManager::send<AuthorizeUserPacket>(AuthorizeUserPacket*, std::__ndk1::function<void ()>)::{lambda(int, int)#1}::operator()(int, int) const::{lambda()#1}>, void ()>::~__func()
FUNC a6a68 54 0 std::__ndk1::__function::__func<NetworkManager::send<AuthorizeUserPacket>(AuthorizeUserPacket*, std::__ndk1::function<void ()>)::{lambda(int, int)#1}::operator()(int, int) const::{lambda()#1}, std::__ndk1::allocator<NetworkManager::send<AuthorizeUserPacket>(AuthorizeUserPacket*, std::__ndk1::function<void ()>)::{lambda(int, int)#1}::operator()(int, int) const::{lambda()#1}>, void ()>::__clone() const
FUNC a6abc 44 0 std::__ndk1::__function::__func<NetworkManager::send<AuthorizeUserPacket>(AuthorizeUserPacket*, std::__ndk1::function<void ()>)::{lambda(int, int)#1}::operator()(int, int) const::{lambda()#1}, std::__ndk1::allocator<NetworkManager::send<AuthorizeUserPacket>(AuthorizeUserPacket*, std::__ndk1::function<void ()>)::{lambda(int, int)#1}::operator()(int, int) const::{lambda()#1}>, void ()>::__clone(std::__ndk1::__function::__base<void ()>*) const
FUNC a6b00 1e 0 std::__ndk1::__function::__func<NetworkManager::send<AuthorizeUserPacket>(AuthorizeUserPacket*, std::__ndk1::function<void ()>)::{lambda(int, int)#1}::operator()(int, int) const::{lambda()#1}, std::__ndk1::allocator<NetworkManager::send<AuthorizeUserPacket>(AuthorizeUserPacket*, std::__ndk1::function<void ()>)::{lambda(int, int)#1}::operator()(int, int) const::{lambda()#1}>, void ()>::destroy()
FUNC a6b1e 2a 0 std::__ndk1::__function::__func<NetworkManager::send<AuthorizeUserPacket>(AuthorizeUserPacket*, std::__ndk1::function<void ()>)::{lambda(int, int)#1}::operator()(int, int) const::{lambda()#1}, std::__ndk1::allocator<NetworkManager::send<AuthorizeUserPacket>(AuthorizeUserPacket*, std::__ndk1::function<void ()>)::{lambda(int, int)#1}::operator()(int, int) const::{lambda()#1}>, void ()>::destroy_deallocate()
FUNC a6b48 12 0 std::__ndk1::__function::__func<NetworkManager::send<AuthorizeUserPacket>(AuthorizeUserPacket*, std::__ndk1::function<void ()>)::{lambda(int, int)#1}::operator()(int, int) const::{lambda()#1}, std::__ndk1::allocator<NetworkManager::send<AuthorizeUserPacket>(AuthorizeUserPacket*, std::__ndk1::function<void ()>)::{lambda(int, int)#1}::operator()(int, int) const::{lambda()#1}>, void ()>::operator()()
FUNC a6b5c 18 0 std::__ndk1::__function::__func<NetworkManager::send<AuthorizeUserPacket>(AuthorizeUserPacket*, std::__ndk1::function<void ()>)::{lambda(int, int)#1}::operator()(int, int) const::{lambda()#1}, std::__ndk1::allocator<NetworkManager::send<AuthorizeUserPacket>(AuthorizeUserPacket*, std::__ndk1::function<void ()>)::{lambda(int, int)#1}::operator()(int, int) const::{lambda()#1}>, void ()>::target(std::type_info const&) const
FUNC a6b74 c 0 std::__ndk1::__function::__func<NetworkManager::send<AuthorizeUserPacket>(AuthorizeUserPacket*, std::__ndk1::function<void ()>)::{lambda(int, int)#1}::operator()(int, int) const::{lambda()#1}, std::__ndk1::allocator<NetworkManager::send<AuthorizeUserPacket>(AuthorizeUserPacket*, std::__ndk1::function<void ()>)::{lambda(int, int)#1}::operator()(int, int) const::{lambda()#1}>, void ()>::target_type() const
FUNC a6b80 2 0 AuthorizeUserPacket::decode(std::__ndk1::basic_string<char, std::__ndk1::char_traits<char>, std::__ndk1::allocator<char> >)
FUNC a6b82 6 0 AuthorizeUserPacket::getPacketID() const
FUNC a6b88 c 0 AuthorizeUserPacket::getPacketName() const
FUNC a6b94 28c 0 std::__ndk1::__hash_table<std::__ndk1::__hash_value_type<int, std::__ndk1::function<void (std::__ndk1::basic_string<char, std::__ndk1::char_traits<char>, std::__ndk1::allocator<char> >)> >, std::__ndk1::__unordered_map_hasher<int, std::__ndk1::__hash_value_type<int, std::__ndk1::function<void (std::__ndk1::basic_string<char, std::__ndk1::char_traits<char>, std::__ndk1::allocator<char> >)> >, std::__ndk1::hash<int>, std::__ndk1::equal_to<int>, true>, std::__ndk1::__unordered_map_equal<int, std::__ndk1::__hash_value_type<int, std::__ndk1::function<void (std::__ndk1::basic_string<char, std::__ndk1::char_traits<char>, std::__ndk1::allocator<char> >)> >, std::__ndk1::equal_to<int>, std::__ndk1::hash<int>, true>, std::__ndk1::allocator<std::__ndk1::__hash_value_type<int, std::__ndk1::function<void (std::__ndk1::basic_string<char, std::__ndk1::char_traits<char>, std::__ndk1::allocator<char> >)> > > >::__emplace_unique_key_args<int, std::__ndk1::piecewise_construct_t const&, std::__ndk1::tuple<int const&>, std::__ndk1::tuple<> >(int const&, std::__ndk1::piecewise_construct_t const&, std::__ndk1::tuple<int const&>, std::__ndk1::tuple<>)
FUNC a6e20 38 0 std::__ndk1::unique_ptr<std::__ndk1::__hash_node<std::__ndk1::__hash_value_type<int, std::__ndk1::function<void (std::__ndk1::basic_string<char, std::__ndk1::char_traits<char>, std::__ndk1::allocator<char> >)> >, void*>, std::__ndk1::__hash_node_destructor<std::__ndk1::allocator<std::__ndk1::__hash_node<std::__ndk1::__hash_value_type<int, std::__ndk1::function<void (std::__ndk1::basic_string<char, std::__ndk1::char_traits<char>, std::__ndk1::allocator<char> >)> >, void*> > > >::~unique_ptr[abi:ne180000]()
FUNC a6e58 10c 0 std::__ndk1::__hash_table<std::__ndk1::__hash_value_type<int, std::__ndk1::function<void (std::__ndk1::basic_string<char, std::__ndk1::char_traits<char>, std::__ndk1::allocator<char> >)> >, std::__ndk1::__unordered_map_hasher<int, std::__ndk1::__hash_value_type<int, std::__ndk1::function<void (std::__ndk1::basic_string<char, std::__ndk1::char_traits<char>, std::__ndk1::allocator<char> >)> >, std::__ndk1::hash<int>, std::__ndk1::equal_to<int>, true>, std::__ndk1::__unordered_map_equal<int, std::__ndk1::__hash_value_type<int, std::__ndk1::function<void (std::__ndk1::basic_string<char, std::__ndk1::char_traits<char>, std::__ndk1::allocator<char> >)> >, std::__ndk1::equal_to<int>, std::__ndk1::hash<int>, true>, std::__ndk1::allocator<std::__ndk1::__hash_value_type<int, std::__ndk1::function<void (std::__ndk1::basic_string<char, std::__ndk1::char_traits<char>, std::__ndk1::allocator<char> >)> > > >::__do_rehash<true>(unsigned int)
FUNC a6f64 34 0 _ZNSt6__ndk110__function6__funcIZN14NetworkManager2onI20AuthorizedUserPacketQsr3stdE12is_base_of_vI6PacketT_EEEvNS_8functionIFvPS6_EEEbEUlNS_12basic_stringIcNS_11char_traitsIcEENS_9allocatorIcEEEEE_NSE_ISH_EEFvSG_EED2Ev
FUNC a6f98 38 0 _ZNSt6__ndk110__function6__funcIZN14NetworkManager2onI20AuthorizedUserPacketQsr3stdE12is_base_of_vI6PacketT_EEEvNS_8functionIFvPS6_EEEbEUlNS_12basic_stringIcNS_11char_traitsIcEENS_9allocatorIcEEEEE_NSE_ISH_EEFvSG_EED0Ev
FUNC a6fd0 54 0 _ZNKSt6__ndk110__function6__funcIZN14NetworkManager2onI20AuthorizedUserPacketQsr3stdE12is_base_of_vI6PacketT_EEEvNS_8functionIFvPS6_EEEbEUlNS_12basic_stringIcNS_11char_traitsIcEENS_9allocatorIcEEEEE_NSE_ISH_EEFvSG_EE7__cloneEv
FUNC a7024 44 0 _ZNKSt6__ndk110__function6__funcIZN14NetworkManager2onI20AuthorizedUserPacketQsr3stdE12is_base_of_vI6PacketT_EEEvNS_8functionIFvPS6_EEEbEUlNS_12basic_stringIcNS_11char_traitsIcEENS_9allocatorIcEEEEE_NSE_ISH_EEFvSG_EE7__cloneEPNS0_6__baseISJ_EE
FUNC a7068 1e 0 _ZNSt6__ndk110__function6__funcIZN14NetworkManager2onI20AuthorizedUserPacketQsr3stdE12is_base_of_vI6PacketT_EEEvNS_8functionIFvPS6_EEEbEUlNS_12basic_stringIcNS_11char_traitsIcEENS_9allocatorIcEEEEE_NSE_ISH_EEFvSG_EE7destroyEv
FUNC a7086 2a 0 _ZNSt6__ndk110__function6__funcIZN14NetworkManager2onI20AuthorizedUserPacketQsr3stdE12is_base_of_vI6PacketT_EEEvNS_8functionIFvPS6_EEEbEUlNS_12basic_stringIcNS_11char_traitsIcEENS_9allocatorIcEEEEE_NSE_ISH_EEFvSG_EE18destroy_deallocateEv
FUNC a70b0 27c 0 _ZNSt6__ndk110__function6__funcIZN14NetworkManager2onI20AuthorizedUserPacketQsr3stdE12is_base_of_vI6PacketT_EEEvNS_8functionIFvPS6_EEEbEUlNS_12basic_stringIcNS_11char_traitsIcEENS_9allocatorIcEEEEE_NSE_ISH_EEFvSG_EEclEOSG_
FUNC a732c 18 0 _ZNKSt6__ndk110__function6__funcIZN14NetworkManager2onI20AuthorizedUserPacketQsr3stdE12is_base_of_vI6PacketT_EEEvNS_8functionIFvPS6_EEEbEUlNS_12basic_stringIcNS_11char_traitsIcEENS_9allocatorIcEEEEE_NSE_ISH_EEFvSG_EE6targetERKSt9type_info
FUNC a7344 c 0 _ZNKSt6__ndk110__function6__funcIZN14NetworkManager2onI20AuthorizedUserPacketQsr3stdE12is_base_of_vI6PacketT_EEEvNS_8functionIFvPS6_EEEbEUlNS_12basic_stringIcNS_11char_traitsIcEENS_9allocatorIcEEEEE_NSE_ISH_EEFvSG_EE11target_typeEv
FUNC a7350 1d8 0 cereal::JSONInputArchive::JSONInputArchive(std::__ndk1::basic_istream<char, std::__ndk1::char_traits<char> >&)
FUNC a7528 34 0 cereal::JSONInputArchive::~JSONInputArchive()
FUNC a755c 2 0 AuthorizedUserPacket::decode(std::__ndk1::basic_string<char, std::__ndk1::char_traits<char>, std::__ndk1::allocator<char> >)
FUNC a755e 6 0 AuthorizedUserPacket::getPacketID() const
FUNC a7564 c 0 AuthorizedUserPacket::getPacketName() const
FUNC a7570 11a 0 std::__ndk1::vector<cereal::JSONInputArchive::Iterator, std::__ndk1::allocator<cereal::JSONInputArchive::Iterator> >::emplace_back<rapidjson::GenericValue<rapidjson::UTF8<char>, rapidjson::MemoryPoolAllocator<rapidjson::CrtAllocator> >*, rapidjson::GenericValue<rapidjson::UTF8<char>, rapidjson::MemoryPoolAllocator<rapidjson::CrtAllocator> >*>(rapidjson::GenericValue<rapidjson::UTF8<char>, rapidjson::MemoryPoolAllocator<rapidjson::CrtAllocator> >*, rapidjson::GenericValue<rapidjson::UTF8<char>, rapidjson::MemoryPoolAllocator<rapidjson::CrtAllocator> >*&&)
FUNC a768a 11a 0 std::__ndk1::vector<cereal::JSONInputArchive::Iterator, std::__ndk1::allocator<cereal::JSONInputArchive::Iterator> >::emplace_back<rapidjson::GenericMemberIterator<false, rapidjson::UTF8<char>, rapidjson::MemoryPoolAllocator<rapidjson::CrtAllocator> >, rapidjson::GenericMemberIterator<false, rapidjson::UTF8<char>, rapidjson::MemoryPoolAllocator<rapidjson::CrtAllocator> > >(rapidjson::GenericMemberIterator<false, rapidjson::UTF8<char>, rapidjson::MemoryPoolAllocator<rapidjson::CrtAllocator> >&&, rapidjson::GenericMemberIterator<false, rapidjson::UTF8<char>, rapidjson::MemoryPoolAllocator<rapidjson::CrtAllocator> >)
FUNC a77a4 78 0 rapidjson::GenericDocument<rapidjson::UTF8<char>, rapidjson::MemoryPoolAllocator<rapidjson::CrtAllocator>, rapidjson::CrtAllocator>::~GenericDocument()
FUNC a781c 38 0 cereal::JSONInputArchive::~JSONInputArchive()
FUNC a7854 2 0 cereal::detail::InputArchiveBase::rtti()
FUNC a7858 134 0 cereal::InputArchive<cereal::JSONInputArchive, (unsigned int)0>::~InputArchive()
FUNC a798c 10 0 cereal::InputArchive<cereal::JSONInputArchive, (unsigned int)0>::~InputArchive()
FUNC a79a0 11c 0 rapidjson::GenericDocument<rapidjson::UTF8<char>, rapidjson::MemoryPoolAllocator<rapidjson::CrtAllocator>, rapidjson::CrtAllocator>::ParseStream<(unsigned int)272, rapidjson::UTF8<char>, rapidjson::BasicIStreamWrapper<std::__ndk1::basic_istream<char, std::__ndk1::char_traits<char> > > >(rapidjson::BasicIStreamWrapper<std::__ndk1::basic_istream<char, std::__ndk1::char_traits<char> > >&)
FUNC a7abc 164 0 rapidjson::GenericReader<rapidjson::UTF8<char>, rapidjson::UTF8<char>, rapidjson::CrtAllocator>::Parse<(unsigned int)272, rapidjson::BasicIStreamWrapper<std::__ndk1::basic_istream<char, std::__ndk1::char_traits<char> > >, rapidjson::GenericDocument<rapidjson::UTF8<char>, rapidjson::MemoryPoolAllocator<rapidjson::CrtAllocator>, rapidjson::CrtAllocator> >(rapidjson::BasicIStreamWrapper<std::__ndk1::basic_istream<char, std::__ndk1::char_traits<char> > >&, rapidjson::GenericDocument<rapidjson::UTF8<char>, rapidjson::MemoryPoolAllocator<rapidjson::CrtAllocator>, rapidjson::CrtAllocator>&)
FUNC a7c20 1a 0 rapidjson::GenericReader<rapidjson::UTF8<char>, rapidjson::UTF8<char>, rapidjson::CrtAllocator>::~GenericReader()
FUNC a7c3c 7a 0 rapidjson::GenericReader<rapidjson::UTF8<char>, rapidjson::UTF8<char>, rapidjson::CrtAllocator>::ParseValue<(unsigned int)272, rapidjson::BasicIStreamWrapper<std::__ndk1::basic_istream<char, std::__ndk1::char_traits<char> > >, rapidjson::GenericDocument<rapidjson::UTF8<char>, rapidjson::MemoryPoolAllocator<rapidjson::CrtAllocator>, rapidjson::CrtAllocator> >(rapidjson::BasicIStreamWrapper<std::__ndk1::basic_istream<char, std::__ndk1::char_traits<char> > >&, rapidjson::GenericDocument<rapidjson::UTF8<char>, rapidjson::MemoryPoolAllocator<rapidjson::CrtAllocator>, rapidjson::CrtAllocator>&)
FUNC a7cb6 72 0 rapidjson::BasicIStreamWrapper<std::__ndk1::basic_istream<char, std::__ndk1::char_traits<char> > >::Take()
FUNC a7d28 a 0 rapidjson::ParseResult::IsError() const
FUNC a7d34 22c 0 rapidjson::GenericReader<rapidjson::UTF8<char>, rapidjson::UTF8<char>, rapidjson::CrtAllocator>::ParseNull<(unsigned int)272, rapidjson::BasicIStreamWrapper<std::__ndk1::basic_istream<char, std::__ndk1::char_traits<char> > >, rapidjson::GenericDocument<rapidjson::UTF8<char>, rapidjson::MemoryPoolAllocator<rapidjson::CrtAllocator>, rapidjson::CrtAllocator> >(rapidjson::BasicIStreamWrapper<std::__ndk1::basic_istream<char, std::__ndk1::char_traits<char> > >&, rapidjson::GenericDocument<rapidjson::UTF8<char>, rapidjson::MemoryPoolAllocator<rapidjson::CrtAllocator>, rapidjson::CrtAllocator>&)
FUNC a7f60 230 0 rapidjson::GenericReader<rapidjson::UTF8<char>, rapidjson::UTF8<char>, rapidjson::CrtAllocator>::ParseTrue<(unsigned int)272, rapidjson::BasicIStreamWrapper<std::__ndk1::basic_istream<char, std::__ndk1::char_traits<char> > >, rapidjson::GenericDocument<rapidjson::UTF8<char>, rapidjson::MemoryPoolAllocator<rapidjson::CrtAllocator>, rapidjson::CrtAllocator> >(rapidjson::BasicIStreamWrapper<std::__ndk1::basic_istream<char, std::__ndk1::char_traits<char> > >&, rapidjson::GenericDocument<rapidjson::UTF8<char>, rapidjson::MemoryPoolAllocator<rapidjson::CrtAllocator>, rapidjson::CrtAllocator>&)
FUNC a8190 28c 0 rapidjson::GenericReader<rapidjson::UTF8<char>, rapidjson::UTF8<char>, rapidjson::CrtAllocator>::ParseFalse<(unsigned int)272, rapidjson::BasicIStreamWrapper<std::__ndk1::basic_istream<char, std::__ndk1::char_traits<char> > >, rapidjson::GenericDocument<rapidjson::UTF8<char>, rapidjson::MemoryPoolAllocator<rapidjson::CrtAllocator>, rapidjson::CrtAllocator> >(rapidjson::BasicIStreamWrapper<std::__ndk1::basic_istream<char, std::__ndk1::char_traits<char> > >&, rapidjson::GenericDocument<rapidjson::UTF8<char>, rapidjson::MemoryPoolAllocator<rapidjson::CrtAllocator>, rapidjson::CrtAllocator>&)
FUNC a841c 598 0 rapidjson::GenericReader<rapidjson::UTF8<char>, rapidjson::UTF8<char>, rapidjson::CrtAllocator>::ParseString<(unsigned int)272, rapidjson::BasicIStreamWrapper<std::__ndk1::basic_istream<char, std::__ndk1::char_traits<char> > >, rapidjson::GenericDocument<rapidjson::UTF8<char>, rapidjson::MemoryPoolAllocator<rapidjson::CrtAllocator>, rapidjson::CrtAllocator> >(rapidjson::BasicIStreamWrapper<std::__ndk1::basic_istream<char, std::__ndk1::char_traits<char> > >&, rapidjson::GenericDocument<rapidjson::UTF8<char>, rapidjson::MemoryPoolAllocator<rapidjson::CrtAllocator>, rapidjson::CrtAllocator>&, bool)
FUNC a89b4 4ac 0 rapidjson::GenericReader<rapidjson::UTF8<char>, rapidjson::UTF8<char>, rapidjson::CrtAllocator>::ParseObject<(unsigned int)272, rapidjson::BasicIStreamWrapper<std::__ndk1::basic_istream<char, std::__ndk1::char_traits<char> > >, rapidjson::GenericDocument<rapidjson::UTF8<char>, rapidjson::MemoryPoolAllocator<rapidjson::CrtAllocator>, rapidjson::CrtAllocator> >(rapidjson::BasicIStreamWrapper<std::__ndk1::basic_istream<char, std::__ndk1::char_traits<char> > >&, rapidjson::GenericDocument<rapidjson::UTF8<char>, rapidjson::MemoryPoolAllocator<rapidjson::CrtAllocator>, rapidjson::CrtAllocator>&)
FUNC a8e60 3b0 0 rapidjson::GenericReader<rapidjson::UTF8<char>, rapidjson::UTF8<char>, rapidjson::CrtAllocator>::ParseArray<(unsigned int)272, rapidjson::BasicIStreamWrapper<std::__ndk1::basic_istream<char, std::__ndk1::char_traits<char> > >, rapidjson::GenericDocument<rapidjson::UTF8<char>, rapidjson::MemoryPoolAllocator<rapidjson::CrtAllocator>, rapidjson::CrtAllocator> >(rapidjson::BasicIStreamWrapper<std::__ndk1::basic_istream<char, std::__ndk1::char_traits<char> > >&, rapidjson::GenericDocument<rapidjson::UTF8<char>, rapidjson::MemoryPoolAllocator<rapidjson::CrtAllocator>, rapidjson::CrtAllocator>&)
FUNC a9210 13e4 0 rapidjson::GenericReader<rapidjson::UTF8<char>, rapidjson::UTF8<char>, rapidjson::CrtAllocator>::ParseNumber<(unsigned int)272, rapidjson::BasicIStreamWrapper<std::__ndk1::basic_istream<char, std::__ndk1::char_traits<char> > >, rapidjson::GenericDocument<rapidjson::UTF8<char>, rapidjson::MemoryPoolAllocator<rapidjson::CrtAllocator>, rapidjson::CrtAllocator> >(rapidjson::BasicIStreamWrapper<std::__ndk1::basic_istream<char, std::__ndk1::char_traits<char> > >&, rapidjson::GenericDocument<rapidjson::UTF8<char>, rapidjson::MemoryPoolAllocator<rapidjson::CrtAllocator>, rapidjson::CrtAllocator>&)
FUNC aa5f4 90 0 rapidjson::GenericDocument<rapidjson::UTF8<char>, rapidjson::MemoryPoolAllocator<rapidjson::CrtAllocator>, rapidjson::CrtAllocator>::Null()
FUNC aa684 66 0 rapidjson::internal::Stack<rapidjson::CrtAllocator>::Expand<rapidjson::GenericValue<rapidjson::UTF8<char>, rapidjson::MemoryPoolAllocator<rapidjson::CrtAllocator> > >(unsigned int)
FUNC aa6ec a0 0 rapidjson::GenericDocument<rapidjson::UTF8<char>, rapidjson::MemoryPoolAllocator<rapidjson::CrtAllocator>, rapidjson::CrtAllocator>::Bool(bool)
FUNC aa78c 1f4 0 rapidjson::GenericDocument<rapidjson::UTF8<char>, rapidjson::MemoryPoolAllocator<rapidjson::CrtAllocator>, rapidjson::CrtAllocator>::String(char const*, unsigned int, bool)
FUNC aa980 fc 0 rapidjson::GenericReader<rapidjson::UTF8<char>, rapidjson::UTF8<char>, rapidjson::CrtAllocator>::ParseHex4<rapidjson::BasicIStreamWrapper<std::__ndk1::basic_istream<char, std::__ndk1::char_traits<char> > > >(rapidjson::BasicIStreamWrapper<std::__ndk1::basic_istream<char, std::__ndk1::char_traits<char> > >&, unsigned int)
FUNC aaa7c 50c 0 rapidjson::UTF8<char>::Encode<rapidjson::GenericReader<rapidjson::UTF8<char>, rapidjson::UTF8<char>, rapidjson::CrtAllocator>::StackStream<char> >(rapidjson::GenericReader<rapidjson::UTF8<char>, rapidjson::UTF8<char>, rapidjson::CrtAllocator>::StackStream<char>&, unsigned int)
FUNC aaf88 64 0 rapidjson::internal::Stack<rapidjson::CrtAllocator>::Expand<char>(unsigned int)
FUNC aafec cc 0 rapidjson::GenericValue<rapidjson::UTF8<char>, rapidjson::MemoryPoolAllocator<rapidjson::CrtAllocator> >::SetStringRaw(rapidjson::GenericStringRef<char>, rapidjson::MemoryPoolAllocator<rapidjson::CrtAllocator>&)
FUNC ab0b8 94 0 rapidjson::GenericDocument<rapidjson::UTF8<char>, rapidjson::MemoryPoolAllocator<rapidjson::CrtAllocator>, rapidjson::CrtAllocator>::StartObject()
FUNC ab14c 94 0 rapidjson::GenericDocument<rapidjson::UTF8<char>, rapidjson::MemoryPoolAllocator<rapidjson::CrtAllocator>, rapidjson::CrtAllocator>::EndObject(unsigned int)
FUNC ab1e0 a6 0 rapidjson::GenericValue<rapidjson::UTF8<char>, rapidjson::MemoryPoolAllocator<rapidjson::CrtAllocator> >::SetObjectRaw(rapidjson::GenericMember<rapidjson::UTF8<char>, rapidjson::MemoryPoolAllocator<rapidjson::CrtAllocator> >*, unsigned int, rapidjson::MemoryPoolAllocator<rapidjson::CrtAllocator>&)
FUNC ab288 94 0 rapidjson::GenericDocument<rapidjson::UTF8<char>, rapidjson::MemoryPoolAllocator<rapidjson::CrtAllocator>, rapidjson::CrtAllocator>::StartArray()
FUNC ab31c 94 0 rapidjson::GenericDocument<rapidjson::UTF8<char>, rapidjson::MemoryPoolAllocator<rapidjson::CrtAllocator>, rapidjson::CrtAllocator>::EndArray(unsigned int)
FUNC ab3b0 a6 0 rapidjson::GenericValue<rapidjson::UTF8<char>, rapidjson::MemoryPoolAllocator<rapidjson::CrtAllocator> >::SetArrayRaw(rapidjson::GenericValue<rapidjson::UTF8<char>, rapidjson::MemoryPoolAllocator<rapidjson::CrtAllocator> >*, unsigned int, rapidjson::MemoryPoolAllocator<rapidjson::CrtAllocator>&)
FUNC ab458 b4 0 rapidjson::GenericReader<rapidjson::UTF8<char>, rapidjson::UTF8<char>, rapidjson::CrtAllocator>::NumberStream<rapidjson::BasicIStreamWrapper<std::__ndk1::basic_istream<char, std::__ndk1::char_traits<char> > >, true, false>::Pop()
FUNC ab510 280 0 rapidjson::internal::StrtodFullPrecision(double, int, char const*, unsigned int, unsigned int, int)
FUNC ab790 b0 0 rapidjson::GenericDocument<rapidjson::UTF8<char>, rapidjson::MemoryPoolAllocator<rapidjson::CrtAllocator>, rapidjson::CrtAllocator>::Double(double)
FUNC ab840 d0 0 rapidjson::GenericDocument<rapidjson::UTF8<char>, rapidjson::MemoryPoolAllocator<rapidjson::CrtAllocator>, rapidjson::CrtAllocator>::Int64(long long)
FUNC ab910 c8 0 rapidjson::GenericDocument<rapidjson::UTF8<char>, rapidjson::MemoryPoolAllocator<rapidjson::CrtAllocator>, rapidjson::CrtAllocator>::Uint64(unsigned long long)
FUNC ab9d8 a4 0 rapidjson::GenericDocument<rapidjson::UTF8<char>, rapidjson::MemoryPoolAllocator<rapidjson::CrtAllocator>, rapidjson::CrtAllocator>::Int(int)
FUNC aba7c a4 0 rapidjson::GenericDocument<rapidjson::UTF8<char>, rapidjson::MemoryPoolAllocator<rapidjson::CrtAllocator>, rapidjson::CrtAllocator>::Uint(unsigned int)
FUNC abb20 588 0 rapidjson::internal::StrtodDiyFp(char const*, int, int, double*)
FUNC ac0a8 fc 0 rapidjson::internal::StrtodBigInteger(double, char const*, int, int)
FUNC ac1a4 84 0 rapidjson::internal::BigInteger::BigInteger(char const*, unsigned int)
FUNC ac228 33c 0 rapidjson::internal::CheckWithinHalfULP(double, rapidjson::internal::BigInteger const&, int)
FUNC ac564 114 0 rapidjson::internal::BigInteger::AppendDecimal64(char const*, char const*)
FUNC ac678 23c 0 rapidjson::internal::BigInteger::operator<<=(unsigned int)
FUNC ac8b4 b4 0 rapidjson::internal::BigInteger::operator+=(unsigned long long)
FUNC ac968 128 0 rapidjson::internal::BigInteger::operator*=(unsigned long long)
FUNC aca90 c4 0 rapidjson::internal::BigInteger::operator*=(unsigned int)
FUNC acb54 130 0 rapidjson::internal::BigInteger::Difference(rapidjson::internal::BigInteger const&, rapidjson::internal::BigInteger*) const
FUNC acc84 10 0 std::__ndk1::vector<cereal::JSONInputArchive::Iterator, std::__ndk1::allocator<cereal::JSONInputArchive::Iterator> >::__throw_length_error[abi:ne180000]() const
FUNC acc94 13c 0 cereal::JSONInputArchive::startNode()
FUNC acdd0 88 0 cereal::JSONInputArchive::search()
FUNC ace58 78 0 cereal::JSONInputArchive::Iterator::value()
FUNC aced0 11a 0 std::__ndk1::vector<cereal::JSONInputArchive::Iterator, std::__ndk1::allocator<cereal::JSONInputArchive::Iterator> >::emplace_back<rapidjson::GenericValue<rapidjson::UTF8<char>, rapidjson::MemoryPoolAllocator<rapidjson::CrtAllocator> > const*, rapidjson::GenericValue<rapidjson::UTF8<char>, rapidjson::MemoryPoolAllocator<rapidjson::CrtAllocator> > const*>(rapidjson::GenericValue<rapidjson::UTF8<char>, rapidjson::MemoryPoolAllocator<rapidjson::CrtAllocator> > const*, rapidjson::GenericValue<rapidjson::UTF8<char>, rapidjson::MemoryPoolAllocator<rapidjson::CrtAllocator> > const*&&)
FUNC acfea 11a 0 std::__ndk1::vector<cereal::JSONInputArchive::Iterator, std::__ndk1::allocator<cereal::JSONInputArchive::Iterator> >::emplace_back<rapidjson::GenericMemberIterator<true, rapidjson::UTF8<char>, rapidjson::MemoryPoolAllocator<rapidjson::CrtAllocator> >, rapidjson::GenericMemberIterator<true, rapidjson::UTF8<char>, rapidjson::MemoryPoolAllocator<rapidjson::CrtAllocator> > >(rapidjson::GenericMemberIterator<true, rapidjson::UTF8<char>, rapidjson::MemoryPoolAllocator<rapidjson::CrtAllocator> >&&, rapidjson::GenericMemberIterator<true, rapidjson::UTF8<char>, rapidjson::MemoryPoolAllocator<rapidjson::CrtAllocator> >)
FUNC ad104 164 0 cereal::JSONInputArchive::Iterator::search(char const*)
FUNC ad268 18 0 cereal::Exception::Exception(char const*)
FUNC ad280 70 0 cereal::JSONInputArchive::loadValue(std::__ndk1::basic_string<char, std::__ndk1::char_traits<char>, std::__ndk1::allocator<char> >&)
FUNC ad2f0 c8 0 std::__ndk1::basic_string<char, std::__ndk1::char_traits<char>, std::__ndk1::allocator<char> >::__assign_external(char const*, unsigned int)
FUNC ad3b8 1c 0 std::__ndk1::basic_string<char, std::__ndk1::char_traits<char>, std::__ndk1::allocator<char> >::__assign_external(char const*)
FUNC ad3d4 34 0 _ZNSt6__ndk110__function6__funcIZZN14NetworkManager2onI20AuthorizedUserPacketQsr3stdE12is_base_of_vI6PacketT_EEEvNS_8functionIFvPS6_EEEbENKUlNS_12basic_stringIcNS_11char_traitsIcEENS_9allocatorIcEEEEE_clESG_EUlvE_NSE_ISI_EEFvvEED2Ev
FUNC ad408 38 0 _ZNSt6__ndk110__function6__funcIZZN14NetworkManager2onI20AuthorizedUserPacketQsr3stdE12is_base_of_vI6PacketT_EEEvNS_8functionIFvPS6_EEEbENKUlNS_12basic_stringIcNS_11char_traitsIcEENS_9allocatorIcEEEEE_clESG_EUlvE_NSE_ISI_EEFvvEED0Ev
FUNC ad440 54 0 _ZNKSt6__ndk110__function6__funcIZZN14NetworkManager2onI20AuthorizedUserPacketQsr3stdE12is_base_of_vI6PacketT_EEEvNS_8functionIFvPS6_EEEbENKUlNS_12basic_stringIcNS_11char_traitsIcEENS_9allocatorIcEEEEE_clESG_EUlvE_NSE_ISI_EEFvvEE7__cloneEv
FUNC ad494 44 0 _ZNKSt6__ndk110__function6__funcIZZN14NetworkManager2onI20AuthorizedUserPacketQsr3stdE12is_base_of_vI6PacketT_EEEvNS_8functionIFvPS6_EEEbENKUlNS_12basic_stringIcNS_11char_traitsIcEENS_9allocatorIcEEEEE_clESG_EUlvE_NSE_ISI_EEFvvEE7__cloneEPNS0_6__baseISK_EE
FUNC ad4d8 1e 0 _ZNSt6__ndk110__function6__funcIZZN14NetworkManager2onI20AuthorizedUserPacketQsr3stdE12is_base_of_vI6PacketT_EEEvNS_8functionIFvPS6_EEEbENKUlNS_12basic_stringIcNS_11char_traitsIcEENS_9allocatorIcEEEEE_clESG_EUlvE_NSE_ISI_EEFvvEE7destroyEv
FUNC ad4f6 2a 0 _ZNSt6__ndk110__function6__funcIZZN14NetworkManager2onI20AuthorizedUserPacketQsr3stdE12is_base_of_vI6PacketT_EEEvNS_8functionIFvPS6_EEEbENKUlNS_12basic_stringIcNS_11char_traitsIcEENS_9allocatorIcEEEEE_clESG_EUlvE_NSE_ISI_EEFvvEE18destroy_deallocateEv
FUNC ad520 44 0 _ZNSt6__ndk110__function6__funcIZZN14NetworkManager2onI20AuthorizedUserPacketQsr3stdE12is_base_of_vI6PacketT_EEEvNS_8functionIFvPS6_EEEbENKUlNS_12basic_stringIcNS_11char_traitsIcEENS_9allocatorIcEEEEE_clESG_EUlvE_NSE_ISI_EEFvvEEclEv
FUNC ad564 18 0 _ZNKSt6__ndk110__function6__funcIZZN14NetworkManager2onI20AuthorizedUserPacketQsr3stdE12is_base_of_vI6PacketT_EEEvNS_8functionIFvPS6_EEEbENKUlNS_12basic_stringIcNS_11char_traitsIcEENS_9allocatorIcEEEEE_clESG_EUlvE_NSE_ISI_EEFvvEE6targetERKSt9type_info
FUNC ad57c c 0 _ZNKSt6__ndk110__function6__funcIZZN14NetworkManager2onI20AuthorizedUserPacketQsr3stdE12is_base_of_vI6PacketT_EEEvNS_8functionIFvPS6_EEEbENKUlNS_12basic_stringIcNS_11char_traitsIcEENS_9allocatorIcEEEEE_clESG_EUlvE_NSE_ISI_EEFvvEE11target_typeEv
FUNC ad588 cc 0 std::__ndk1::__function::__value_func<void (std::__ndk1::basic_string<char, std::__ndk1::char_traits<char>, std::__ndk1::allocator<char> >)>::swap[abi:ne180000](std::__ndk1::__function::__value_func<void (std::__ndk1::basic_string<char, std::__ndk1::char_traits<char>, std::__ndk1::allocator<char> >)>&)
FUNC ad654 2 0 std::__ndk1::__function::__base<void (AuthorizedUserPacket*)>::~__base()
FUNC ad656 4 0 std::__ndk1::__function::__func<AuthPopup::setup()::$_1, std::__ndk1::allocator<AuthPopup::setup()::$_1>, void (AuthorizedUserPacket*)>::~__func()
FUNC ad65c 20 0 std::__ndk1::__function::__func<AuthPopup::setup()::$_1, std::__ndk1::allocator<AuthPopup::setup()::$_1>, void (AuthorizedUserPacket*)>::__clone() const
FUNC ad67c 14 0 std::__ndk1::__function::__func<AuthPopup::setup()::$_1, std::__ndk1::allocator<AuthPopup::setup()::$_1>, void (AuthorizedUserPacket*)>::__clone(std::__ndk1::__function::__base<void (AuthorizedUserPacket*)>*) const
FUNC ad690 2 0 std::__ndk1::__function::__func<AuthPopup::setup()::$_1, std::__ndk1::allocator<AuthPopup::setup()::$_1>, void (AuthorizedUserPacket*)>::destroy()
FUNC ad692 4 0 std::__ndk1::__function::__func<AuthPopup::setup()::$_1, std::__ndk1::allocator<AuthPopup::setup()::$_1>, void (AuthorizedUserPacket*)>::destroy_deallocate()
FUNC ad696 14 0 std::__ndk1::__function::__func<AuthPopup::setup()::$_1, std::__ndk1::allocator<AuthPopup::setup()::$_1>, void (AuthorizedUserPacket*)>::operator()(AuthorizedUserPacket*&&)
FUNC ad6ac 18 0 std::__ndk1::__function::__func<AuthPopup::setup()::$_1, std::__ndk1::allocator<AuthPopup::setup()::$_1>, void (AuthorizedUserPacket*)>::target(std::type_info const&) const
FUNC ad6c4 c 0 std::__ndk1::__function::__func<AuthPopup::setup()::$_1, std::__ndk1::allocator<AuthPopup::setup()::$_1>, void (AuthorizedUserPacket*)>::target_type() const
FUNC ad6d0 68 0 _GLOBAL__sub_I_AuthPopup.cpp
FUNC ad738 54 0 __cxx_global_var_init.1
FUNC ad78c 4c 0 std::__ndk1::vector<Message, std::__ndk1::allocator<Message> >::~vector[abi:ne180000]()
FUNC ad7d8 54 0 __cxx_global_var_init.2
FUNC ad830 110 0 ChatPanel::create()
FUNC ad940 178 0 ChatPanel::initialize()
FUNC adab8 4d8 0 ChatPanel::setup()
FUNC adf90 bc 0 geode::cocos::CCMenuItemExt::createSpriteExtraWithFrameName(std::__ndk1::basic_string_view<char, std::__ndk1::char_traits<char> >, float, std::__ndk1::function<void (CCMenuItemSpriteExtra*)>)
FUNC ae04c 180 0 ChatPanel::renderMessage(Message)
FUNC ae1cc 22 0 Message::~Message()
FUNC ae1f0 1c4 0 ChatPanel::updateMessages(float)
FUNC ae3b4 c8 0 ChatPanel::clearMessages()
FUNC ae47c 17c 0 _ZN14NetworkManager6unbindI17MessageSentPacketQsr3stdE12is_base_of_vI6PacketT_EEEvv
FUNC ae5f8 784 0 ChatPanel::sendMessage()
FUNC aed7c c8 0 ChatPanel::keyDown(cocos2d::enumKeyCodes)
FUNC aee44 8 0 {virtual override thunk({offset(-276)}, ChatPanel::keyDown(cocos2d::enumKeyCodes))}
FUNC aee4c 60 0 ChatPanel::~ChatPanel()
FUNC aeeac 60 0 {virtual override thunk({offset(-264)}, ChatPanel::~ChatPanel())}
FUNC aef0c 64 0 {virtual override thunk({offset(-264)}, ChatPanel::~ChatPanel())}
FUNC aef70 110 0 _ZNSt6__ndk18functionIFvNS_12basic_stringIcNS_11char_traitsIcEENS_9allocatorIcEEEEEEaSIZN14NetworkManager2onI17MessageSentPacketQsr3stdE12is_base_of_vI6PacketT_EEEvNS0_IFvPSE_EEEbEUlS6_E_vEERS8_OSE_
FUNC af080 34 0 _ZNSt6__ndk110__function6__funcIZN14NetworkManager2onI17MessageSentPacketQsr3stdE12is_base_of_vI6PacketT_EEEvNS_8functionIFvPS6_EEEbEUlNS_12basic_stringIcNS_11char_traitsIcEENS_9allocatorIcEEEEE_NSE_ISH_EEFvSG_EED2Ev
FUNC af0b4 38 0 _ZNSt6__ndk110__function6__funcIZN14NetworkManager2onI17MessageSentPacketQsr3stdE12is_base_of_vI6PacketT_EEEvNS_8functionIFvPS6_EEEbEUlNS_12basic_stringIcNS_11char_traitsIcEENS_9allocatorIcEEEEE_NSE_ISH_EEFvSG_EED0Ev
FUNC af0ec 54 0 _ZNKSt6__ndk110__function6__funcIZN14NetworkManager2onI17MessageSentPacketQsr3stdE12is_base_of_vI6PacketT_EEEvNS_8functionIFvPS6_EEEbEUlNS_12basic_stringIcNS_11char_traitsIcEENS_9allocatorIcEEEEE_NSE_ISH_EEFvSG_EE7__cloneEv
FUNC af140 44 0 _ZNKSt6__ndk110__function6__funcIZN14NetworkManager2onI17MessageSentPacketQsr3stdE12is_base_of_vI6PacketT_EEEvNS_8functionIFvPS6_EEEbEUlNS_12basic_stringIcNS_11char_traitsIcEENS_9allocatorIcEEEEE_NSE_ISH_EEFvSG_EE7__cloneEPNS0_6__baseISJ_EE
FUNC af184 1e 0 _ZNSt6__ndk110__function6__funcIZN14NetworkManager2onI17MessageSentPacketQsr3stdE12is_base_of_vI6PacketT_EEEvNS_8functionIFvPS6_EEEbEUlNS_12basic_stringIcNS_11char_traitsIcEENS_9allocatorIcEEEEE_NSE_ISH_EEFvSG_EE7destroyEv
FUNC af1a2 2a 0 _ZNSt6__ndk110__function6__funcIZN14NetworkManager2onI17MessageSentPacketQsr3stdE12is_base_of_vI6PacketT_EEEvNS_8functionIFvPS6_EEEbEUlNS_12basic_stringIcNS_11char_traitsIcEENS_9allocatorIcEEEEE_NSE_ISH_EEFvSG_EE18destroy_deallocateEv
FUNC af1cc 41c 0 _ZNSt6__ndk110__function6__funcIZN14NetworkManager2onI17MessageSentPacketQsr3stdE12is_base_of_vI6PacketT_EEEvNS_8functionIFvPS6_EEEbEUlNS_12basic_stringIcNS_11char_traitsIcEENS_9allocatorIcEEEEE_NSE_ISH_EEFvSG_EEclEOSG_
FUNC af5e8 18 0 _ZNKSt6__ndk110__function6__funcIZN14NetworkManager2onI17MessageSentPacketQsr3stdE12is_base_of_vI6PacketT_EEEvNS_8functionIFvPS6_EEEbEUlNS_12basic_stringIcNS_11char_traitsIcEENS_9allocatorIcEEEEE_NSE_ISH_EEFvSG_EE6targetERKSt9type_info
FUNC af600 c 0 _ZNKSt6__ndk110__function6__funcIZN14NetworkManager2onI17MessageSentPacketQsr3stdE12is_base_of_vI6PacketT_EEEvNS_8functionIFvPS6_EEEbEUlNS_12basic_stringIcNS_11char_traitsIcEENS_9allocatorIcEEEEE_NSE_ISH_EEFvSG_EE11target_typeEv
FUNC af60c 2 0 MessageSentPacket::decode(std::__ndk1::basic_string<char, std::__ndk1::char_traits<char>, std::__ndk1::allocator<char> >)
FUNC af60e 6 0 MessageSentPacket::getPacketID() const
FUNC af614 c 0 MessageSentPacket::getPacketName() const
FUNC af620 e4 0 cereal::InputArchive<cereal::JSONInputArchive, (unsigned int)0>::process<cereal::NameValuePair<int&>, cereal::NameValuePair<int&>, cereal::NameValuePair<int&>, cereal::NameValuePair<int&>, cereal::NameValuePair<int&>, cereal::NameValuePair<int&> >(cereal::NameValuePair<int&>&&, cereal::NameValuePair<int&>&&, cereal::NameValuePair<int&>, cereal::NameValuePair<int&>, cereal::NameValuePair<int&>, cereal::NameValuePair<int&>)
FUNC af704 e4 0 cereal::InputArchive<cereal::JSONInputArchive, (unsigned int)0>::process<cereal::NameValuePair<int&>, cereal::NameValuePair<int&>, cereal::NameValuePair<int&>, cereal::NameValuePair<int&> >(cereal::NameValuePair<int&>&&, cereal::NameValuePair<int&>&&, cereal::NameValuePair<int&>, cereal::NameValuePair<int&>)
FUNC af7e8 d0 0 cereal::InputArchive<cereal::JSONInputArchive, (unsigned int)0>::process<cereal::NameValuePair<int&>, cereal::NameValuePair<int&> >(cereal::NameValuePair<int&>&&, cereal::NameValuePair<int&>&&)
FUNC af8b8 34 0 _ZNSt6__ndk110__function6__funcIZZN14NetworkManager2onI17MessageSentPacketQsr3stdE12is_base_of_vI6PacketT_EEEvNS_8functionIFvPS6_EEEbENKUlNS_12basic_stringIcNS_11char_traitsIcEENS_9allocatorIcEEEEE_clESG_EUlvE_NSE_ISI_EEFvvEED2Ev
FUNC af8ec 38 0 _ZNSt6__ndk110__function6__funcIZZN14NetworkManager2onI17MessageSentPacketQsr3stdE12is_base_of_vI6PacketT_EEEvNS_8functionIFvPS6_EEEbENKUlNS_12basic_stringIcNS_11char_traitsIcEENS_9allocatorIcEEEEE_clESG_EUlvE_NSE_ISI_EEFvvEED0Ev
FUNC af924 54 0 _ZNKSt6__ndk110__function6__funcIZZN14NetworkManager2onI17MessageSentPacketQsr3stdE12is_base_of_vI6PacketT_EEEvNS_8functionIFvPS6_EEEbENKUlNS_12basic_stringIcNS_11char_traitsIcEENS_9allocatorIcEEEEE_clESG_EUlvE_NSE_ISI_EEFvvEE7__cloneEv
FUNC af978 44 0 _ZNKSt6__ndk110__function6__funcIZZN14NetworkManager2onI17MessageSentPacketQsr3stdE12is_base_of_vI6PacketT_EEEvNS_8functionIFvPS6_EEEbENKUlNS_12basic_stringIcNS_11char_traitsIcEENS_9allocatorIcEEEEE_clESG_EUlvE_NSE_ISI_EEFvvEE7__cloneEPNS0_6__baseISK_EE
FUNC af9bc 1e 0 _ZNSt6__ndk110__function6__funcIZZN14NetworkManager2onI17MessageSentPacketQsr3stdE12is_base_of_vI6PacketT_EEEvNS_8functionIFvPS6_EEEbENKUlNS_12basic_stringIcNS_11char_traitsIcEENS_9allocatorIcEEEEE_clESG_EUlvE_NSE_ISI_EEFvvEE7destroyEv
FUNC af9da 2a 0 _ZNSt6__ndk110__function6__funcIZZN14NetworkManager2onI17MessageSentPacketQsr3stdE12is_base_of_vI6PacketT_EEEvNS_8functionIFvPS6_EEEbENKUlNS_12basic_stringIcNS_11char_traitsIcEENS_9allocatorIcEEEEE_clESG_EUlvE_NSE_ISI_EEFvvEE18destroy_deallocateEv
FUNC afa04 44 0 _ZNSt6__ndk110__function6__funcIZZN14NetworkManager2onI17MessageSentPacketQsr3stdE12is_base_of_vI6PacketT_EEEvNS_8functionIFvPS6_EEEbENKUlNS_12basic_stringIcNS_11char_traitsIcEENS_9allocatorIcEEEEE_clESG_EUlvE_NSE_ISI_EEFvvEEclEv
FUNC afa48 18 0 _ZNKSt6__ndk110__function6__funcIZZN14NetworkManager2onI17MessageSentPacketQsr3stdE12is_base_of_vI6PacketT_EEEvNS_8functionIFvPS6_EEEbENKUlNS_12basic_stringIcNS_11char_traitsIcEENS_9allocatorIcEEEEE_clESG_EUlvE_NSE_ISI_EEFvvEE6targetERKSt9type_info
FUNC afa60 c 0 _ZNKSt6__ndk110__function6__funcIZZN14NetworkManager2onI17MessageSentPacketQsr3stdE12is_base_of_vI6PacketT_EEEvNS_8functionIFvPS6_EEEbENKUlNS_12basic_stringIcNS_11char_traitsIcEENS_9allocatorIcEEEEE_clESG_EUlvE_NSE_ISI_EEFvvEE11target_typeEv
FUNC afa6c 2 0 std::__ndk1::__function::__base<void (MessageSentPacket*)>::~__base()
FUNC afa6e 4 0 std::__ndk1::__function::__func<ChatPanel::initialize()::$_0, std::__ndk1::allocator<ChatPanel::initialize()::$_0>, void (MessageSentPacket*)>::~__func()
FUNC afa74 18 0 std::__ndk1::__function::__func<ChatPanel::initialize()::$_0, std::__ndk1::allocator<ChatPanel::initialize()::$_0>, void (MessageSentPacket*)>::__clone() const
FUNC afa8c 10 0 std::__ndk1::__function::__func<ChatPanel::initialize()::$_0, std::__ndk1::allocator<ChatPanel::initialize()::$_0>, void (MessageSentPacket*)>::__clone(std::__ndk1::__function::__base<void (MessageSentPacket*)>*) const
FUNC afa9c 2 0 std::__ndk1::__function::__func<ChatPanel::initialize()::$_0, std::__ndk1::allocator<ChatPanel::initialize()::$_0>, void (MessageSentPacket*)>::destroy()
FUNC afa9e 4 0 std::__ndk1::__function::__func<ChatPanel::initialize()::$_0, std::__ndk1::allocator<ChatPanel::initialize()::$_0>, void (MessageSentPacket*)>::destroy_deallocate()
FUNC afaa4 6c 0 std::__ndk1::__function::__func<ChatPanel::initialize()::$_0, std::__ndk1::allocator<ChatPanel::initialize()::$_0>, void (MessageSentPacket*)>::operator()(MessageSentPacket*&&)
FUNC afb10 18 0 std::__ndk1::__function::__func<ChatPanel::initialize()::$_0, std::__ndk1::allocator<ChatPanel::initialize()::$_0>, void (MessageSentPacket*)>::target(std::type_info const&) const
FUNC afb28 c 0 std::__ndk1::__function::__func<ChatPanel::initialize()::$_0, std::__ndk1::allocator<ChatPanel::initialize()::$_0>, void (MessageSentPacket*)>::target_type() const
FUNC afb34 90 0 std::__ndk1::vector<Message, std::__ndk1::allocator<Message> >::__construct_one_at_end[abi:ne180000]<Message const&>(Message const&)
FUNC afbc4 1f4 0 std::__ndk1::vector<Message, std::__ndk1::allocator<Message> >::__push_back_slow_path<Message const&>(Message const&)
FUNC afdb8 4e 0 std::__ndk1::__split_buffer<Message, std::__ndk1::allocator<Message>&>::~__split_buffer()
FUNC afe08 10 0 std::__ndk1::vector<Message, std::__ndk1::allocator<Message> >::__throw_length_error[abi:ne180000]() const
FUNC afe18 4 0 std::__ndk1::__function::__func<ChatPanel::setup()::$_0, std::__ndk1::allocator<ChatPanel::setup()::$_0>, void (CCMenuItemSpriteExtra*)>::~__func()
FUNC afe1c 20 0 std::__ndk1::__function::__func<ChatPanel::setup()::$_0, std::__ndk1::allocator<ChatPanel::setup()::$_0>, void (CCMenuItemSpriteExtra*)>::__clone() const
FUNC afe3c 14 0 std::__ndk1::__function::__func<ChatPanel::setup()::$_0, std::__ndk1::allocator<ChatPanel::setup()::$_0>, void (CCMenuItemSpriteExtra*)>::__clone(std::__ndk1::__function::__base<void (CCMenuItemSpriteExtra*)>*) const
FUNC afe50 2 0 std::__ndk1::__function::__func<ChatPanel::setup()::$_0, std::__ndk1::allocator<ChatPanel::setup()::$_0>, void (CCMenuItemSpriteExtra*)>::destroy()
FUNC afe52 4 0 std::__ndk1::__function::__func<ChatPanel::setup()::$_0, std::__ndk1::allocator<ChatPanel::setup()::$_0>, void (CCMenuItemSpriteExtra*)>::destroy_deallocate()
FUNC afe56 6 0 std::__ndk1::__function::__func<ChatPanel::setup()::$_0, std::__ndk1::allocator<ChatPanel::setup()::$_0>, void (CCMenuItemSpriteExtra*)>::operator()(CCMenuItemSpriteExtra*&&)
FUNC afe5c 18 0 std::__ndk1::__function::__func<ChatPanel::setup()::$_0, std::__ndk1::allocator<ChatPanel::setup()::$_0>, void (CCMenuItemSpriteExtra*)>::target(std::type_info const&) const
FUNC afe74 c 0 std::__ndk1::__function::__func<ChatPanel::setup()::$_0, std::__ndk1::allocator<ChatPanel::setup()::$_0>, void (CCMenuItemSpriteExtra*)>::target_type() const
FUNC afe80 10c 0 std::__ndk1::__hash_table<std::__ndk1::__hash_value_type<int, std::__ndk1::function<void (std::__ndk1::basic_string<char, std::__ndk1::char_traits<char>, std::__ndk1::allocator<char> >)> >, std::__ndk1::__unordered_map_hasher<int, std::__ndk1::__hash_value_type<int, std::__ndk1::function<void (std::__ndk1::basic_string<char, std::__ndk1::char_traits<char>, std::__ndk1::allocator<char> >)> >, std::__ndk1::hash<int>, std::__ndk1::equal_to<int>, true>, std::__ndk1::__unordered_map_equal<int, std::__ndk1::__hash_value_type<int, std::__ndk1::function<void (std::__ndk1::basic_string<char, std::__ndk1::char_traits<char>, std::__ndk1::allocator<char> >)> >, std::__ndk1::equal_to<int>, std::__ndk1::hash<int>, true>, std::__ndk1::allocator<std::__ndk1::__hash_value_type<int, std::__ndk1::function<void (std::__ndk1::basic_string<char, std::__ndk1::char_traits<char>, std::__ndk1::allocator<char> >)> > > >::__erase_unique<int>(int const&)
FUNC aff8c 138 0 std::__ndk1::__hash_table<std::__ndk1::__hash_value_type<int, std::__ndk1::function<void (std::__ndk1::basic_string<char, std::__ndk1::char_traits<char>, std::__ndk1::allocator<char> >)> >, std::__ndk1::__unordered_map_hasher<int, std::__ndk1::__hash_value_type<int, std::__ndk1::function<void (std::__ndk1::basic_string<char, std::__ndk1::char_traits<char>, std::__ndk1::allocator<char> >)> >, std::__ndk1::hash<int>, std::__ndk1::equal_to<int>, true>, std::__ndk1::__unordered_map_equal<int, std::__ndk1::__hash_value_type<int, std::__ndk1::function<void (std::__ndk1::basic_string<char, std::__ndk1::char_traits<char>, std::__ndk1::allocator<char> >)> >, std::__ndk1::equal_to<int>, std::__ndk1::hash<int>, true>, std::__ndk1::allocator<std::__ndk1::__hash_value_type<int, std::__ndk1::function<void (std::__ndk1::basic_string<char, std::__ndk1::char_traits<char>, std::__ndk1::allocator<char> >)> > > >::remove(std::__ndk1::__hash_const_iterator<std::__ndk1::__hash_node<std::__ndk1::__hash_value_type<int, std::__ndk1::function<void (std::__ndk1::basic_string<char, std::__ndk1::char_traits<char>, std::__ndk1::allocator<char> >)> >, void*>*>)
FUNC b00c4 2 0 SendMessagePacket::decode(std::__ndk1::basic_string<char, std::__ndk1::char_traits<char>, std::__ndk1::allocator<char> >)
FUNC b00c6 6 0 SendMessagePacket::getPacketID() const
FUNC b00cc c 0 SendMessagePacket::getPacketName() const
FUNC b00d8 34 0 std::__ndk1::__function::__func<NetworkManager::send<SendMessagePacket>(SendMessagePacket*, std::__ndk1::function<void ()>)::{lambda(int, int)#1}, std::__ndk1::allocator<NetworkManager::send<SendMessagePacket>(SendMessagePacket*, std::__ndk1::function<void ()>)::{lambda(int, int)#1}>, bool (int, int)>::~__func()
FUNC b010c 38 0 std::__ndk1::__function::__func<NetworkManager::send<SendMessagePacket>(SendMessagePacket*, std::__ndk1::function<void ()>)::{lambda(int, int)#1}, std::__ndk1::allocator<NetworkManager::send<SendMessagePacket>(SendMessagePacket*, std::__ndk1::function<void ()>)::{lambda(int, int)#1}>, bool (int, int)>::~__func()
FUNC b0144 54 0 std::__ndk1::__function::__func<NetworkManager::send<SendMessagePacket>(SendMessagePacket*, std::__ndk1::function<void ()>)::{lambda(int, int)#1}, std::__ndk1::allocator<NetworkManager::send<SendMessagePacket>(SendMessagePacket*, std::__ndk1::function<void ()>)::{lambda(int, int)#1}>, bool (int, int)>::__clone() const
FUNC b0198 44 0 std::__ndk1::__function::__func<NetworkManager::send<SendMessagePacket>(SendMessagePacket*, std::__ndk1::function<void ()>)::{lambda(int, int)#1}, std::__ndk1::allocator<NetworkManager::send<SendMessagePacket>(SendMessagePacket*, std::__ndk1::function<void ()>)::{lambda(int, int)#1}>, bool (int, int)>::__clone(std::__ndk1::__function::__base<bool (int, int)>*) const
FUNC b01dc 1e 0 std::__ndk1::__function::__func<NetworkManager::send<SendMessagePacket>(SendMessagePacket*, std::__ndk1::function<void ()>)::{lambda(int, int)#1}, std::__ndk1::allocator<NetworkManager::send<SendMessagePacket>(SendMessagePacket*, std::__ndk1::function<void ()>)::{lambda(int, int)#1}>, bool (int, int)>::destroy()
FUNC b01fa 2a 0 std::__ndk1::__function::__func<NetworkManager::send<SendMessagePacket>(SendMessagePacket*, std::__ndk1::function<void ()>)::{lambda(int, int)#1}, std::__ndk1::allocator<NetworkManager::send<SendMessagePacket>(SendMessagePacket*, std::__ndk1::function<void ()>)::{lambda(int, int)#1}>, bool (int, int)>::destroy_deallocate()
FUNC b0224 140 0 std::__ndk1::__function::__func<NetworkManager::send<SendMessagePacket>(SendMessagePacket*, std::__ndk1::function<void ()>)::{lambda(int, int)#1}, std::__ndk1::allocator<NetworkManager::send<SendMessagePacket>(SendMessagePacket*, std::__ndk1::function<void ()>)::{lambda(int, int)#1}>, bool (int, int)>::operator()(int&&, int&&)
FUNC b0364 18 0 std::__ndk1::__function::__func<NetworkManager::send<SendMessagePacket>(SendMessagePacket*, std::__ndk1::function<void ()>)::{lambda(int, int)#1}, std::__ndk1::allocator<NetworkManager::send<SendMessagePacket>(SendMessagePacket*, std::__ndk1::function<void ()>)::{lambda(int, int)#1}>, bool (int, int)>::target(std::type_info const&) const
FUNC b037c c 0 std::__ndk1::__function::__func<NetworkManager::send<SendMessagePacket>(SendMessagePacket*, std::__ndk1::function<void ()>)::{lambda(int, int)#1}, std::__ndk1::allocator<NetworkManager::send<SendMessagePacket>(SendMessagePacket*, std::__ndk1::function<void ()>)::{lambda(int, int)#1}>, bool (int, int)>::target_type() const
FUNC b0388 34 0 std::__ndk1::__function::__func<NetworkManager::send<SendMessagePacket>(SendMessagePacket*, std::__ndk1::function<void ()>)::{lambda(int, int)#1}::operator()(int, int) const::{lambda()#1}, std::__ndk1::allocator<NetworkManager::send<SendMessagePacket>(SendMessagePacket*, std::__ndk1::function<void ()>)::{lambda(int, int)#1}::operator()(int, int) const::{lambda()#1}>, void ()>::~__func()
FUNC b03bc 38 0 std::__ndk1::__function::__func<NetworkManager::send<SendMessagePacket>(SendMessagePacket*, std::__ndk1::function<void ()>)::{lambda(int, int)#1}::operator()(int, int) const::{lambda()#1}, std::__ndk1::allocator<NetworkManager::send<SendMessagePacket>(SendMessagePacket*, std::__ndk1::function<void ()>)::{lambda(int, int)#1}::operator()(int, int) const::{lambda()#1}>, void ()>::~__func()
FUNC b03f4 54 0 std::__ndk1::__function::__func<NetworkManager::send<SendMessagePacket>(SendMessagePacket*, std::__ndk1::function<void ()>)::{lambda(int, int)#1}::operator()(int, int) const::{lambda()#1}, std::__ndk1::allocator<NetworkManager::send<SendMessagePacket>(SendMessagePacket*, std::__ndk1::function<void ()>)::{lambda(int, int)#1}::operator()(int, int) const::{lambda()#1}>, void ()>::__clone() const
FUNC b0448 44 0 std::__ndk1::__function::__func<NetworkManager::send<SendMessagePacket>(SendMessagePacket*, std::__ndk1::function<void ()>)::{lambda(int, int)#1}::operator()(int, int) const::{lambda()#1}, std::__ndk1::allocator<NetworkManager::send<SendMessagePacket>(SendMessagePacket*, std::__ndk1::function<void ()>)::{lambda(int, int)#1}::operator()(int, int) const::{lambda()#1}>, void ()>::__clone(std::__ndk1::__function::__base<void ()>*) const
FUNC b048c 1e 0 std::__ndk1::__function::__func<NetworkManager::send<SendMessagePacket>(SendMessagePacket*, std::__ndk1::function<void ()>)::{lambda(int, int)#1}::operator()(int, int) const::{lambda()#1}, std::__ndk1::allocator<NetworkManager::send<SendMessagePacket>(SendMessagePacket*, std::__ndk1::function<void ()>)::{lambda(int, int)#1}::operator()(int, int) const::{lambda()#1}>, void ()>::destroy()
FUNC b04aa 2a 0 std::__ndk1::__function::__func<NetworkManager::send<SendMessagePacket>(SendMessagePacket*, std::__ndk1::function<void ()>)::{lambda(int, int)#1}::operator()(int, int) const::{lambda()#1}, std::__ndk1::allocator<NetworkManager::send<SendMessagePacket>(SendMessagePacket*, std::__ndk1::function<void ()>)::{lambda(int, int)#1}::operator()(int, int) const::{lambda()#1}>, void ()>::destroy_deallocate()
FUNC b04d4 12 0 std::__ndk1::__function::__func<NetworkManager::send<SendMessagePacket>(SendMessagePacket*, std::__ndk1::function<void ()>)::{lambda(int, int)#1}::operator()(int, int) const::{lambda()#1}, std::__ndk1::allocator<NetworkManager::send<SendMessagePacket>(SendMessagePacket*, std::__ndk1::function<void ()>)::{lambda(int, int)#1}::operator()(int, int) const::{lambda()#1}>, void ()>::operator()()
FUNC b04e8 18 0 std::__ndk1::__function::__func<NetworkManager::send<SendMessagePacket>(SendMessagePacket*, std::__ndk1::function<void ()>)::{lambda(int, int)#1}::operator()(int, int) const::{lambda()#1}, std::__ndk1::allocator<NetworkManager::send<SendMessagePacket>(SendMessagePacket*, std::__ndk1::function<void ()>)::{lambda(int, int)#1}::operator()(int, int) const::{lambda()#1}>, void ()>::target(std::type_info const&) const
FUNC b0500 c 0 std::__ndk1::__function::__func<NetworkManager::send<SendMessagePacket>(SendMessagePacket*, std::__ndk1::function<void ()>)::{lambda(int, int)#1}::operator()(int, int) const::{lambda()#1}, std::__ndk1::allocator<NetworkManager::send<SendMessagePacket>(SendMessagePacket*, std::__ndk1::function<void ()>)::{lambda(int, int)#1}::operator()(int, int) const::{lambda()#1}>, void ()>::target_type() const
FUNC b050c 68 0 _GLOBAL__sub_I_ChatPanel.cpp
FUNC b0574 fc 0 PlayerCell::onKickUser(cocos2d::CCObject*)
FUNC b0670 ec 0 LobbyLayer::create(std::__ndk1::basic_string<char, std::__ndk1::char_traits<char>, std::__ndk1::allocator<char> >)
FUNC b075c a08 0 LobbyLayer::init(std::__ndk1::basic_string<char, std::__ndk1::char_traits<char>, std::__ndk1::allocator<char> >)
FUNC b1164 f4 0 LobbyLayer::onStart(cocos2d::CCObject*)
FUNC b1258 100 0 LobbyLayer::onSettings(cocos2d::CCObject*)
FUNC b1358 1ec 0 LobbyLayer::unregisterListeners()
FUNC b1544 64 0 LobbyLayer::~LobbyLayer()
FUNC b15a8 8 0 {virtual override thunk({offset(-264)}, LobbyLayer::~LobbyLayer())}
FUNC b15b0 10 0 LobbyLayer::~LobbyLayer()
FUNC b15c0 14 0 {virtual override thunk({offset(-264)}, LobbyLayer::~LobbyLayer())}
FUNC b15d4 ea4 0 LobbyLayer::refresh(LobbyInfo, bool)
FUNC b2478 f8 0 LobbyInfo::LobbyInfo(LobbyInfo const&)
FUNC b2570 64 0 LobbyLayer::refresh(LobbyInfo, bool)::$_0::~$_0()
FUNC b25d4 f8 0 geode::Mod::getSettingValue<bool>(std::__ndk1::basic_string_view<char, std::__ndk1::char_traits<char> >) const
FUNC b26cc ec 0 LobbyLayer::keyBackClicked()
FUNC b27b8 8 0 {virtual override thunk({offset(-272)}, LobbyLayer::keyBackClicked())}
FUNC b27c0 50 0 PlayerCell::~PlayerCell()
FUNC b2810 54 0 PlayerCell::~PlayerCell()
FUNC b2864 58 0 {virtual override thunk({offset(-264)}, PlayerCell::~PlayerCell())}
FUNC b28bc 5c 0 {virtual override thunk({offset(-264)}, PlayerCell::~PlayerCell())}
FUNC b2918 66 0 std::__ndk1::basic_string<char, std::__ndk1::char_traits<char>, std::__ndk1::allocator<char> >::__assign_no_alias<true>(char const*, unsigned int)
FUNC b297e a6 0 std::__ndk1::basic_string<char, std::__ndk1::char_traits<char>, std::__ndk1::allocator<char> >::__assign_no_alias<false>(char const*, unsigned int)
FUNC b2a24 1e 0 SwapManager::~SwapManager()
FUNC b2a42 22 0 LobbySettings::~LobbySettings()
FUNC b2a64 f8 0 std::__ndk1::vector<Account, std::__ndk1::allocator<Account> >::__init_with_size[abi:ne180000]<Account*, std::__ndk1::vector<Account, std::__ndk1::allocator<Account> >::__init_with_size[abi:ne180000]>(Account*, std::__ndk1::vector<Account, std::__ndk1::allocator<Account> >::__init_with_size[abi:ne180000], unsigned int)
FUNC b2b5c 4e 0 std::__ndk1::__exception_guard_exceptions<std::__ndk1::vector<Account, std::__ndk1::allocator<Account> >::__destroy_vector>::~__exception_guard_exceptions[abi:ne180000]()
FUNC b2bac 10 0 std::__ndk1::vector<Account, std::__ndk1::allocator<Account> >::__throw_length_error[abi:ne180000]() const
FUNC b2bbc 3a 0 std::__ndk1::__exception_guard_exceptions<std::__ndk1::_AllocatorDestroyRangeReverse<std::__ndk1::allocator<Account>, Account*> >::~__exception_guard_exceptions[abi:ne180000]()
FUNC b2bf6 64 0 LobbyInfo::~LobbyInfo()
FUNC b2c5a 4 0 std::__ndk1::__function::__func<PlayerCell::onKickUser(cocos2d::CCObject*)::$_0, std::__ndk1::allocator<PlayerCell::onKickUser(cocos2d::CCObject*)::$_0>, void (FLAlertLayer*, bool)>::~__func()
FUNC b2c60 20 0 std::__ndk1::__function::__func<PlayerCell::onKickUser(cocos2d::CCObject*)::$_0, std::__ndk1::allocator<PlayerCell::onKickUser(cocos2d::CCObject*)::$_0>, void (FLAlertLayer*, bool)>::__clone() const
FUNC b2c80 14 0 std::__ndk1::__function::__func<PlayerCell::onKickUser(cocos2d::CCObject*)::$_0, std::__ndk1::allocator<PlayerCell::onKickUser(cocos2d::CCObject*)::$_0>, void (FLAlertLayer*, bool)>::__clone(std::__ndk1::__function::__base<void (FLAlertLayer*, bool)>*) const
FUNC b2c94 2 0 std::__ndk1::__function::__func<PlayerCell::onKickUser(cocos2d::CCObject*)::$_0, std::__ndk1::allocator<PlayerCell::onKickUser(cocos2d::CCObject*)::$_0>, void (FLAlertLayer*, bool)>::destroy()
FUNC b2c96 4 0 std::__ndk1::__function::__func<PlayerCell::onKickUser(cocos2d::CCObject*)::$_0, std::__ndk1::allocator<PlayerCell::onKickUser(cocos2d::CCObject*)::$_0>, void (FLAlertLayer*, bool)>::destroy_deallocate()
FUNC b2c9c 65c 0 std::__ndk1::__function::__func<PlayerCell::onKickUser(cocos2d::CCObject*)::$_0, std::__ndk1::allocator<PlayerCell::onKickUser(cocos2d::CCObject*)::$_0>, void (FLAlertLayer*, bool)>::operator()(FLAlertLayer*&&, bool&&)
FUNC b32f8 18 0 std::__ndk1::__function::__func<PlayerCell::onKickUser(cocos2d::CCObject*)::$_0, std::__ndk1::allocator<PlayerCell::onKickUser(cocos2d::CCObject*)::$_0>, void (FLAlertLayer*, bool)>::target(std::type_info const&) const
FUNC b3310 c 0 std::__ndk1::__function::__func<PlayerCell::onKickUser(cocos2d::CCObject*)::$_0, std::__ndk1::allocator<PlayerCell::onKickUser(cocos2d::CCObject*)::$_0>, void (FLAlertLayer*, bool)>::target_type() const
FUNC b331c 34 0 std::__ndk1::__function::__func<NetworkManager::send<KickUserPacket>(KickUserPacket*, std::__ndk1::function<void ()>)::{lambda(int, int)#1}, std::__ndk1::allocator<NetworkManager::send<KickUserPacket>(KickUserPacket*, std::__ndk1::function<void ()>)::{lambda(int, int)#1}>, bool (int, int)>::~__func()
FUNC b3350 38 0 std::__ndk1::__function::__func<NetworkManager::send<KickUserPacket>(KickUserPacket*, std::__ndk1::function<void ()>)::{lambda(int, int)#1}, std::__ndk1::allocator<NetworkManager::send<KickUserPacket>(KickUserPacket*, std::__ndk1::function<void ()>)::{lambda(int, int)#1}>, bool (int, int)>::~__func()
FUNC b3388 54 0 std::__ndk1::__function::__func<NetworkManager::send<KickUserPacket>(KickUserPacket*, std::__ndk1::function<void ()>)::{lambda(int, int)#1}, std::__ndk1::allocator<NetworkManager::send<KickUserPacket>(KickUserPacket*, std::__ndk1::function<void ()>)::{lambda(int, int)#1}>, bool (int, int)>::__clone() const
FUNC b33dc 44 0 std::__ndk1::__function::__func<NetworkManager::send<KickUserPacket>(KickUserPacket*, std::__ndk1::function<void ()>)::{lambda(int, int)#1}, std::__ndk1::allocator<NetworkManager::send<KickUserPacket>(KickUserPacket*, std::__ndk1::function<void ()>)::{lambda(int, int)#1}>, bool (int, int)>::__clone(std::__ndk1::__function::__base<bool (int, int)>*) const
FUNC b3420 1e 0 std::__ndk1::__function::__func<NetworkManager::send<KickUserPacket>(KickUserPacket*, std::__ndk1::function<void ()>)::{lambda(int, int)#1}, std::__ndk1::allocator<NetworkManager::send<KickUserPacket>(KickUserPacket*, std::__ndk1::function<void ()>)::{lambda(int, int)#1}>, bool (int, int)>::destroy()
FUNC b343e 2a 0 std::__ndk1::__function::__func<NetworkManager::send<KickUserPacket>(KickUserPacket*, std::__ndk1::function<void ()>)::{lambda(int, int)#1}, std::__ndk1::allocator<NetworkManager::send<KickUserPacket>(KickUserPacket*, std::__ndk1::function<void ()>)::{lambda(int, int)#1}>, bool (int, int)>::destroy_deallocate()
FUNC b3468 140 0 std::__ndk1::__function::__func<NetworkManager::send<KickUserPacket>(KickUserPacket*, std::__ndk1::function<void ()>)::{lambda(int, int)#1}, std::__ndk1::allocator<NetworkManager::send<KickUserPacket>(KickUserPacket*, std::__ndk1::function<void ()>)::{lambda(int, int)#1}>, bool (int, int)>::operator()(int&&, int&&)
FUNC b35a8 18 0 std::__ndk1::__function::__func<NetworkManager::send<KickUserPacket>(KickUserPacket*, std::__ndk1::function<void ()>)::{lambda(int, int)#1}, std::__ndk1::allocator<NetworkManager::send<KickUserPacket>(KickUserPacket*, std::__ndk1::function<void ()>)::{lambda(int, int)#1}>, bool (int, int)>::target(std::type_info const&) const
FUNC b35c0 c 0 std::__ndk1::__function::__func<NetworkManager::send<KickUserPacket>(KickUserPacket*, std::__ndk1::function<void ()>)::{lambda(int, int)#1}, std::__ndk1::allocator<NetworkManager::send<KickUserPacket>(KickUserPacket*, std::__ndk1::function<void ()>)::{lambda(int, int)#1}>, bool (int, int)>::target_type() const
FUNC b35cc 34 0 std::__ndk1::__function::__func<NetworkManager::send<KickUserPacket>(KickUserPacket*, std::__ndk1::function<void ()>)::{lambda(int, int)#1}::operator()(int, int) const::{lambda()#1}, std::__ndk1::allocator<NetworkManager::send<KickUserPacket>(KickUserPacket*, std::__ndk1::function<void ()>)::{lambda(int, int)#1}::operator()(int, int) const::{lambda()#1}>, void ()>::~__func()
FUNC b3600 38 0 std::__ndk1::__function::__func<NetworkManager::send<KickUserPacket>(KickUserPacket*, std::__ndk1::function<void ()>)::{lambda(int, int)#1}::operator()(int, int) const::{lambda()#1}, std::__ndk1::allocator<NetworkManager::send<KickUserPacket>(KickUserPacket*, std::__ndk1::function<void ()>)::{lambda(int, int)#1}::operator()(int, int) const::{lambda()#1}>, void ()>::~__func()
FUNC b3638 54 0 std::__ndk1::__function::__func<NetworkManager::send<KickUserPacket>(KickUserPacket*, std::__ndk1::function<void ()>)::{lambda(int, int)#1}::operator()(int, int) const::{lambda()#1}, std::__ndk1::allocator<NetworkManager::send<KickUserPacket>(KickUserPacket*, std::__ndk1::function<void ()>)::{lambda(int, int)#1}::operator()(int, int) const::{lambda()#1}>, void ()>::__clone() const
FUNC b368c 44 0 std::__ndk1::__function::__func<NetworkManager::send<KickUserPacket>(KickUserPacket*, std::__ndk1::function<void ()>)::{lambda(int, int)#1}::operator()(int, int) const::{lambda()#1}, std::__ndk1::allocator<NetworkManager::send<KickUserPacket>(KickUserPacket*, std::__ndk1::function<void ()>)::{lambda(int, int)#1}::operator()(int, int) const::{lambda()#1}>, void ()>::__clone(std::__ndk1::__function::__base<void ()>*) const
FUNC b36d0 1e 0 std::__ndk1::__function::__func<NetworkManager::send<KickUserPacket>(KickUserPacket*, std::__ndk1::function<void ()>)::{lambda(int, int)#1}::operator()(int, int) const::{lambda()#1}, std::__ndk1::allocator<NetworkManager::send<KickUserPacket>(KickUserPacket*, std::__ndk1::function<void ()>)::{lambda(int, int)#1}::operator()(int, int) const::{lambda()#1}>, void ()>::destroy()
FUNC b36ee 2a 0 std::__ndk1::__function::__func<NetworkManager::send<KickUserPacket>(KickUserPacket*, std::__ndk1::function<void ()>)::{lambda(int, int)#1}::operator()(int, int) const::{lambda()#1}, std::__ndk1::allocator<NetworkManager::send<KickUserPacket>(KickUserPacket*, std::__ndk1::function<void ()>)::{lambda(int, int)#1}::operator()(int, int) const::{lambda()#1}>, void ()>::destroy_deallocate()
FUNC b3718 12 0 std::__ndk1::__function::__func<NetworkManager::send<KickUserPacket>(KickUserPacket*, std::__ndk1::function<void ()>)::{lambda(int, int)#1}::operator()(int, int) const::{lambda()#1}, std::__ndk1::allocator<NetworkManager::send<KickUserPacket>(KickUserPacket*, std::__ndk1::function<void ()>)::{lambda(int, int)#1}::operator()(int, int) const::{lambda()#1}>, void ()>::operator()()
FUNC b372c 18 0 std::__ndk1::__function::__func<NetworkManager::send<KickUserPacket>(KickUserPacket*, std::__ndk1::function<void ()>)::{lambda(int, int)#1}::operator()(int, int) const::{lambda()#1}, std::__ndk1::allocator<NetworkManager::send<KickUserPacket>(KickUserPacket*, std::__ndk1::function<void ()>)::{lambda(int, int)#1}::operator()(int, int) const::{lambda()#1}>, void ()>::target(std::type_info const&) const
FUNC b3744 c 0 std::__ndk1::__function::__func<NetworkManager::send<KickUserPacket>(KickUserPacket*, std::__ndk1::function<void ()>)::{lambda(int, int)#1}::operator()(int, int) const::{lambda()#1}, std::__ndk1::allocator<NetworkManager::send<KickUserPacket>(KickUserPacket*, std::__ndk1::function<void ()>)::{lambda(int, int)#1}::operator()(int, int) const::{lambda()#1}>, void ()>::target_type() const
FUNC b3750 2 0 KickUserPacket::decode(std::__ndk1::basic_string<char, std::__ndk1::char_traits<char>, std::__ndk1::allocator<char> >)
FUNC b3752 6 0 KickUserPacket::getPacketID() const
FUNC b3758 c 0 KickUserPacket::getPacketName() const
FUNC b3764 4 0 std::__ndk1::__function::__func<LobbyLayer::init(std::__ndk1::basic_string<char, std::__ndk1::char_traits<char>, std::__ndk1::allocator<char> >)::$_1, std::__ndk1::allocator<LobbyLayer::init(std::__ndk1::basic_string<char, std::__ndk1::char_traits<char>, std::__ndk1::allocator<char> >)::$_1>, void (CCMenuItemSpriteExtra*)>::~__func()
FUNC b3768 20 0 std::__ndk1::__function::__func<LobbyLayer::init(std::__ndk1::basic_string<char, std::__ndk1::char_traits<char>, std::__ndk1::allocator<char> >)::$_1, std::__ndk1::allocator<LobbyLayer::init(std::__ndk1::basic_string<char, std::__ndk1::char_traits<char>, std::__ndk1::allocator<char> >)::$_1>, void (CCMenuItemSpriteExtra*)>::__clone() const
FUNC b3788 14 0 std::__ndk1::__function::__func<LobbyLayer::init(std::__ndk1::basic_string<char, std::__ndk1::char_traits<char>, std::__ndk1::allocator<char> >)::$_1, std::__ndk1::allocator<LobbyLayer::init(std::__ndk1::basic_string<char, std::__ndk1::char_traits<char>, std::__ndk1::allocator<char> >)::$_1>, void (CCMenuItemSpriteExtra*)>::__clone(std::__ndk1::__function::__base<void (CCMenuItemSpriteExtra*)>*) const
FUNC b379c 2 0 std::__ndk1::__function::__func<LobbyLayer::init(std::__ndk1::basic_string<char, std::__ndk1::char_traits<char>, std::__ndk1::allocator<char> >)::$_1, std::__ndk1::allocator<LobbyLayer::init(std::__ndk1::basic_string<char, std::__ndk1::char_traits<char>, std::__ndk1::allocator<char> >)::$_1>, void (CCMenuItemSpriteExtra*)>::destroy()
FUNC b379e 4 0 std::__ndk1::__function::__func<LobbyLayer::init(std::__ndk1::basic_string<char, std::__ndk1::char_traits<char>, std::__ndk1::allocator<char> >)::$_1, std::__ndk1::allocator<LobbyLayer::init(std::__ndk1::basic_string<char, std::__ndk1::char_traits<char>, std::__ndk1::allocator<char> >)::$_1>, void (CCMenuItemSpriteExtra*)>::destroy_deallocate()
FUNC b37a2 a 0 std::__ndk1::__function::__func<LobbyLayer::init(std::__ndk1::basic_string<char, std::__ndk1::char_traits<char>, std::__ndk1::allocator<char> >)::$_1, std::__ndk1::allocator<LobbyLayer::init(std::__ndk1::basic_string<char, std::__ndk1::char_traits<char>, std::__ndk1::allocator<char> >)::$_1>, void (CCMenuItemSpriteExtra*)>::operator()(CCMenuItemSpriteExtra*&&)
FUNC b37ac 18 0 std::__ndk1::__function::__func<LobbyLayer::init(std::__ndk1::basic_string<char, std::__ndk1::char_traits<char>, std::__ndk1::allocator<char> >)::$_1, std::__ndk1::allocator<LobbyLayer::init(std::__ndk1::basic_string<char, std::__ndk1::char_traits<char>, std::__ndk1::allocator<char> >)::$_1>, void (CCMenuItemSpriteExtra*)>::target(std::type_info const&) const
FUNC b37c4 c 0 std::__ndk1::__function::__func<LobbyLayer::init(std::__ndk1::basic_string<char, std::__ndk1::char_traits<char>, std::__ndk1::allocator<char> >)::$_1, std::__ndk1::allocator<LobbyLayer::init(std::__ndk1::basic_string<char, std::__ndk1::char_traits<char>, std::__ndk1::allocator<char> >)::$_1>, void (CCMenuItemSpriteExtra*)>::target_type() const
FUNC b37d0 4 0 std::__ndk1::__function::__func<LobbyLayer::init(std::__ndk1::basic_string<char, std::__ndk1::char_traits<char>, std::__ndk1::allocator<char> >)::$_2, std::__ndk1::allocator<LobbyLayer::init(std::__ndk1::basic_string<char, std::__ndk1::char_traits<char>, std::__ndk1::allocator<char> >)::$_2>, void (CCMenuItemSpriteExtra*)>::~__func()
FUNC b37d4 20 0 std::__ndk1::__function::__func<LobbyLayer::init(std::__ndk1::basic_string<char, std::__ndk1::char_traits<char>, std::__ndk1::allocator<char> >)::$_2, std::__ndk1::allocator<LobbyLayer::init(std::__ndk1::basic_string<char, std::__ndk1::char_traits<char>, std::__ndk1::allocator<char> >)::$_2>, void (CCMenuItemSpriteExtra*)>::__clone() const
FUNC b37f4 14 0 std::__ndk1::__function::__func<LobbyLayer::init(std::__ndk1::basic_string<char, std::__ndk1::char_traits<char>, std::__ndk1::allocator<char> >)::$_2, std::__ndk1::allocator<LobbyLayer::init(std::__ndk1::basic_string<char, std::__ndk1::char_traits<char>, std::__ndk1::allocator<char> >)::$_2>, void (CCMenuItemSpriteExtra*)>::__clone(std::__ndk1::__function::__base<void (CCMenuItemSpriteExtra*)>*) const
FUNC b3808 2 0 std::__ndk1::__function::__func<LobbyLayer::init(std::__ndk1::basic_string<char, std::__ndk1::char_traits<char>, std::__ndk1::allocator<char> >)::$_2, std::__ndk1::allocator<LobbyLayer::init(std::__ndk1::basic_string<char, std::__ndk1::char_traits<char>, std::__ndk1::allocator<char> >)::$_2>, void (CCMenuItemSpriteExtra*)>::destroy()
FUNC b380a 4 0 std::__ndk1::__function::__func<LobbyLayer::init(std::__ndk1::basic_string<char, std::__ndk1::char_traits<char>, std::__ndk1::allocator<char> >)::$_2, std::__ndk1::allocator<LobbyLayer::init(std::__ndk1::basic_string<char, std::__ndk1::char_traits<char>, std::__ndk1::allocator<char> >)::$_2>, void (CCMenuItemSpriteExtra*)>::destroy_deallocate()
FUNC b3810 ec 0 std::__ndk1::__function::__func<LobbyLayer::init(std::__ndk1::basic_string<char, std::__ndk1::char_traits<char>, std::__ndk1::allocator<char> >)::$_2, std::__ndk1::allocator<LobbyLayer::init(std::__ndk1::basic_string<char, std::__ndk1::char_traits<char>, std::__ndk1::allocator<char> >)::$_2>, void (CCMenuItemSpriteExtra*)>::operator()(CCMenuItemSpriteExtra*&&)
FUNC b38fc 18 0 std::__ndk1::__function::__func<LobbyLayer::init(std::__ndk1::basic_string<char, std::__ndk1::char_traits<char>, std::__ndk1::allocator<char> >)::$_2, std::__ndk1::allocator<LobbyLayer::init(std::__ndk1::basic_string<char, std::__ndk1::char_traits<char>, std::__ndk1::allocator<char> >)::$_2>, void (CCMenuItemSpriteExtra*)>::target(std::type_info const&) const
FUNC b3914 c 0 std::__ndk1::__function::__func<LobbyLayer::init(std::__ndk1::basic_string<char, std::__ndk1::char_traits<char>, std::__ndk1::allocator<char> >)::$_2, std::__ndk1::allocator<LobbyLayer::init(std::__ndk1::basic_string<char, std::__ndk1::char_traits<char>, std::__ndk1::allocator<char> >)::$_2>, void (CCMenuItemSpriteExtra*)>::target_type() const
FUNC b3920 4 0 std::__ndk1::__function::__func<LobbyLayer::init(std::__ndk1::basic_string<char, std::__ndk1::char_traits<char>, std::__ndk1::allocator<char> >)::$_3, std::__ndk1::allocator<LobbyLayer::init(std::__ndk1::basic_string<char, std::__ndk1::char_traits<char>, std::__ndk1::allocator<char> >)::$_3>, void (CCMenuItemSpriteExtra*)>::~__func()
FUNC b3924 18 0 std::__ndk1::__function::__func<LobbyLayer::init(std::__ndk1::basic_string<char, std::__ndk1::char_traits<char>, std::__ndk1::allocator<char> >)::$_3, std::__ndk1::allocator<LobbyLayer::init(std::__ndk1::basic_string<char, std::__ndk1::char_traits<char>, std::__ndk1::allocator<char> >)::$_3>, void (CCMenuItemSpriteExtra*)>::__clone() const
FUNC b393c 10 0 std::__ndk1::__function::__func<LobbyLayer::init(std::__ndk1::basic_string<char, std::__ndk1::char_traits<char>, std::__ndk1::allocator<char> >)::$_3, std::__ndk1::allocator<LobbyLayer::init(std::__ndk1::basic_string<char, std::__ndk1::char_traits<char>, std::__ndk1::allocator<char> >)::$_3>, void (CCMenuItemSpriteExtra*)>::__clone(std::__ndk1::__function::__base<void (CCMenuItemSpriteExtra*)>*) const
FUNC b394c 2 0 std::__ndk1::__function::__func<LobbyLayer::init(std::__ndk1::basic_string<char, std::__ndk1::char_traits<char>, std::__ndk1::allocator<char> >)::$_3, std::__ndk1::allocator<LobbyLayer::init(std::__ndk1::basic_string<char, std::__ndk1::char_traits<char>, std::__ndk1::allocator<char> >)::$_3>, void (CCMenuItemSpriteExtra*)>::destroy()
FUNC b394e 4 0 std::__ndk1::__function::__func<LobbyLayer::init(std::__ndk1::basic_string<char, std::__ndk1::char_traits<char>, std::__ndk1::allocator<char> >)::$_3, std::__ndk1::allocator<LobbyLayer::init(std::__ndk1::basic_string<char, std::__ndk1::char_traits<char>, std::__ndk1::allocator<char> >)::$_3>, void (CCMenuItemSpriteExtra*)>::destroy_deallocate()
FUNC b3952 14 0 std::__ndk1::__function::__func<LobbyLayer::init(std::__ndk1::basic_string<char, std::__ndk1::char_traits<char>, std::__ndk1::allocator<char> >)::$_3, std::__ndk1::allocator<LobbyLayer::init(std::__ndk1::basic_string<char, std::__ndk1::char_traits<char>, std::__ndk1::allocator<char> >)::$_3>, void (CCMenuItemSpriteExtra*)>::operator()(CCMenuItemSpriteExtra*&&)
FUNC b3968 18 0 std::__ndk1::__function::__func<LobbyLayer::init(std::__ndk1::basic_string<char, std::__ndk1::char_traits<char>, std::__ndk1::allocator<char> >)::$_3, std::__ndk1::allocator<LobbyLayer::init(std::__ndk1::basic_string<char, std::__ndk1::char_traits<char>, std::__ndk1::allocator<char> >)::$_3>, void (CCMenuItemSpriteExtra*)>::target(std::type_info const&) const
FUNC b3980 c 0 std::__ndk1::__function::__func<LobbyLayer::init(std::__ndk1::basic_string<char, std::__ndk1::char_traits<char>, std::__ndk1::allocator<char> >)::$_3, std::__ndk1::allocator<LobbyLayer::init(std::__ndk1::basic_string<char, std::__ndk1::char_traits<char>, std::__ndk1::allocator<char> >)::$_3>, void (CCMenuItemSpriteExtra*)>::target_type() const
FUNC b398c 4 0 std::__ndk1::__function::__func<LobbyLayer::init(std::__ndk1::basic_string<char, std::__ndk1::char_traits<char>, std::__ndk1::allocator<char> >)::$_4, std::__ndk1::allocator<LobbyLayer::init(std::__ndk1::basic_string<char, std::__ndk1::char_traits<char>, std::__ndk1::allocator<char> >)::$_4>, void (CCMenuItemSpriteExtra*)>::~__func()
FUNC b3990 20 0 std::__ndk1::__function::__func<LobbyLayer::init(std::__ndk1::basic_string<char, std::__ndk1::char_traits<char>, std::__ndk1::allocator<char> >)::$_4, std::__ndk1::allocator<LobbyLayer::init(std::__ndk1::basic_string<char, std::__ndk1::char_traits<char>, std::__ndk1::allocator<char> >)::$_4>, void (CCMenuItemSpriteExtra*)>::__clone() const
FUNC b39b0 14 0 std::__ndk1::__function::__func<LobbyLayer::init(std::__ndk1::basic_string<char, std::__ndk1::char_traits<char>, std::__ndk1::allocator<char> >)::$_4, std::__ndk1::allocator<LobbyLayer::init(std::__ndk1::basic_string<char, std::__ndk1::char_traits<char>, std::__ndk1::allocator<char> >)::$_4>, void (CCMenuItemSpriteExtra*)>::__clone(std::__ndk1::__function::__base<void (CCMenuItemSpriteExtra*)>*) const
FUNC b39c4 2 0 std::__ndk1::__function::__func<LobbyLayer::init(std::__ndk1::basic_string<char, std::__ndk1::char_traits<char>, std::__ndk1::allocator<char> >)::$_4, std::__ndk1::allocator<LobbyLayer::init(std::__ndk1::basic_string<char, std::__ndk1::char_traits<char>, std::__ndk1::allocator<char> >)::$_4>, void (CCMenuItemSpriteExtra*)>::destroy()
FUNC b39c6 4 0 std::__ndk1::__function::__func<LobbyLayer::init(std::__ndk1::basic_string<char, std::__ndk1::char_traits<char>, std::__ndk1::allocator<char> >)::$_4, std::__ndk1::allocator<LobbyLayer::init(std::__ndk1::basic_string<char, std::__ndk1::char_traits<char>, std::__ndk1::allocator<char> >)::$_4>, void (CCMenuItemSpriteExtra*)>::destroy_deallocate()
FUNC b39cc f4 0 std::__ndk1::__function::__func<LobbyLayer::init(std::__ndk1::basic_string<char, std::__ndk1::char_traits<char>, std::__ndk1::allocator<char> >)::$_4, std::__ndk1::allocator<LobbyLayer::init(std::__ndk1::basic_string<char, std::__ndk1::char_traits<char>, std::__ndk1::allocator<char> >)::$_4>, void (CCMenuItemSpriteExtra*)>::operator()(CCMenuItemSpriteExtra*&&)
FUNC b3ac0 18 0 std::__ndk1::__function::__func<LobbyLayer::init(std::__ndk1::basic_string<char, std::__ndk1::char_traits<char>, std::__ndk1::allocator<char> >)::$_4, std::__ndk1::allocator<LobbyLayer::init(std::__ndk1::basic_string<char, std::__ndk1::char_traits<char>, std::__ndk1::allocator<char> >)::$_4>, void (CCMenuItemSpriteExtra*)>::target(std::type_info const&) const
FUNC b3ad8 c 0 std::__ndk1::__function::__func<LobbyLayer::init(std::__ndk1::basic_string<char, std::__ndk1::char_traits<char>, std::__ndk1::allocator<char> >)::$_4, std::__ndk1::allocator<LobbyLayer::init(std::__ndk1::basic_string<char, std::__ndk1::char_traits<char>, std::__ndk1::allocator<char> >)::$_4>, void (CCMenuItemSpriteExtra*)>::target_type() const
FUNC b3ae4 4 0 std::__ndk1::__function::__func<LobbyLayer::init(std::__ndk1::basic_string<char, std::__ndk1::char_traits<char>, std::__ndk1::allocator<char> >)::$_4::operator()(cocos2d::CCObject*) const::{lambda(LobbyInfo)#1}, std::__ndk1::allocator<LobbyLayer::init(std::__ndk1::basic_string<char, std::__ndk1::char_traits<char>, std::__ndk1::allocator<char> >)::$_4::operator()(cocos2d::CCObject*) const::{lambda(LobbyInfo)#1}>, void (LobbyInfo)>::~__func()
FUNC b3ae8 20 0 std::__ndk1::__function::__func<LobbyLayer::init(std::__ndk1::basic_string<char, std::__ndk1::char_traits<char>, std::__ndk1::allocator<char> >)::$_4::operator()(cocos2d::CCObject*) const::{lambda(LobbyInfo)#1}, std::__ndk1::allocator<LobbyLayer::init(std::__ndk1::basic_string<char, std::__ndk1::char_traits<char>, std::__ndk1::allocator<char> >)::$_4::operator()(cocos2d::CCObject*) const::{lambda(LobbyInfo)#1}>, void (LobbyInfo)>::__clone() const
FUNC b3b08 14 0 std::__ndk1::__function::__func<LobbyLayer::init(std::__ndk1::basic_string<char, std::__ndk1::char_traits<char>, std::__ndk1::allocator<char> >)::$_4::operator()(cocos2d::CCObject*) const::{lambda(LobbyInfo)#1}, std::__ndk1::allocator<LobbyLayer::init(std::__ndk1::basic_string<char, std::__ndk1::char_traits<char>, std::__ndk1::allocator<char> >)::$_4::operator()(cocos2d::CCObject*) const::{lambda(LobbyInfo)#1}>, void (LobbyInfo)>::__clone(std::__ndk1::__function::__base<void (LobbyInfo)>*) const
FUNC b3b1c 2 0 std::__ndk1::__function::__func<LobbyLayer::init(std::__ndk1::basic_string<char, std::__ndk1::char_traits<char>, std::__ndk1::allocator<char> >)::$_4::operator()(cocos2d::CCObject*) const::{lambda(LobbyInfo)#1}, std::__ndk1::allocator<LobbyLayer::init(std::__ndk1::basic_string<char, std::__ndk1::char_traits<char>, std::__ndk1::allocator<char> >)::$_4::operator()(cocos2d::CCObject*) const::{lambda(LobbyInfo)#1}>, void (LobbyInfo)>::destroy()
FUNC b3b1e 4 0 std::__ndk1::__function::__func<LobbyLayer::init(std::__ndk1::basic_string<char, std::__ndk1::char_traits<char>, std::__ndk1::allocator<char> >)::$_4::operator()(cocos2d::CCObject*) const::{lambda(LobbyInfo)#1}, std::__ndk1::allocator<LobbyLayer::init(std::__ndk1::basic_string<char, std::__ndk1::char_traits<char>, std::__ndk1::allocator<char> >)::$_4::operator()(cocos2d::CCObject*) const::{lambda(LobbyInfo)#1}>, void (LobbyInfo)>::destroy_deallocate()
FUNC b3b24 184 0 std::__ndk1::__function::__func<LobbyLayer::init(std::__ndk1::basic_string<char, std::__ndk1::char_traits<char>, std::__ndk1::allocator<char> >)::$_4::operator()(cocos2d::CCObject*) const::{lambda(LobbyInfo)#1}, std::__ndk1::allocator<LobbyLayer::init(std::__ndk1::basic_string<char, std::__ndk1::char_traits<char>, std::__ndk1::allocator<char> >)::$_4::operator()(cocos2d::CCObject*) const::{lambda(LobbyInfo)#1}>, void (LobbyInfo)>::operator()(LobbyInfo&&)
FUNC b3ca8 18 0 std::__ndk1::__function::__func<LobbyLayer::init(std::__ndk1::basic_string<char, std::__ndk1::char_traits<char>, std::__ndk1::allocator<char> >)::$_4::operator()(cocos2d::CCObject*) const::{lambda(LobbyInfo)#1}, std::__ndk1::allocator<LobbyLayer::init(std::__ndk1::basic_string<char, std::__ndk1::char_traits<char>, std::__ndk1::allocator<char> >)::$_4::operator()(cocos2d::CCObject*) const::{lambda(LobbyInfo)#1}>, void (LobbyInfo)>::target(std::type_info const&) const
FUNC b3cc0 c 0 std::__ndk1::__function::__func<LobbyLayer::init(std::__ndk1::basic_string<char, std::__ndk1::char_traits<char>, std::__ndk1::allocator<char> >)::$_4::operator()(cocos2d::CCObject*) const::{lambda(LobbyInfo)#1}, std::__ndk1::allocator<LobbyLayer::init(std::__ndk1::basic_string<char, std::__ndk1::char_traits<char>, std::__ndk1::allocator<char> >)::$_4::operator()(cocos2d::CCObject*) const::{lambda(LobbyInfo)#1}>, void (LobbyInfo)>::target_type() const
FUNC b3ccc 4 0 std::__ndk1::__function::__func<LobbyLayer::init(std::__ndk1::basic_string<char, std::__ndk1::char_traits<char>, std::__ndk1::allocator<char> >)::$_0, std::__ndk1::allocator<LobbyLayer::init(std::__ndk1::basic_string<char, std::__ndk1::char_traits<char>, std::__ndk1::allocator<char> >)::$_0>, void (CCMenuItemSpriteExtra*)>::~__func()
FUNC b3cd0 20 0 std::__ndk1::__function::__func<LobbyLayer::init(std::__ndk1::basic_string<char, std::__ndk1::char_traits<char>, std::__ndk1::allocator<char> >)::$_0, std::__ndk1::allocator<LobbyLayer::init(std::__ndk1::basic_string<char, std::__ndk1::char_traits<char>, std::__ndk1::allocator<char> >)::$_0>, void (CCMenuItemSpriteExtra*)>::__clone() const
FUNC b3cf0 14 0 std::__ndk1::__function::__func<LobbyLayer::init(std::__ndk1::basic_string<char, std::__ndk1::char_traits<char>, std::__ndk1::allocator<char> >)::$_0, std::__ndk1::allocator<LobbyLayer::init(std::__ndk1::basic_string<char, std::__ndk1::char_traits<char>, std::__ndk1::allocator<char> >)::$_0>, void (CCMenuItemSpriteExtra*)>::__clone(std::__ndk1::__function::__base<void (CCMenuItemSpriteExtra*)>*) const
FUNC b3d04 2 0 std::__ndk1::__function::__func<LobbyLayer::init(std::__ndk1::basic_string<char, std::__ndk1::char_traits<char>, std::__ndk1::allocator<char> >)::$_0, std::__ndk1::allocator<LobbyLayer::init(std::__ndk1::basic_string<char, std::__ndk1::char_traits<char>, std::__ndk1::allocator<char> >)::$_0>, void (CCMenuItemSpriteExtra*)>::destroy()
FUNC b3d06 4 0 std::__ndk1::__function::__func<LobbyLayer::init(std::__ndk1::basic_string<char, std::__ndk1::char_traits<char>, std::__ndk1::allocator<char> >)::$_0, std::__ndk1::allocator<LobbyLayer::init(std::__ndk1::basic_string<char, std::__ndk1::char_traits<char>, std::__ndk1::allocator<char> >)::$_0>, void (CCMenuItemSpriteExtra*)>::destroy_deallocate()
FUNC b3d0c ec 0 std::__ndk1::__function::__func<LobbyLayer::init(std::__ndk1::basic_string<char, std::__ndk1::char_traits<char>, std::__ndk1::allocator<char> >)::$_0, std::__ndk1::allocator<LobbyLayer::init(std::__ndk1::basic_string<char, std::__ndk1::char_traits<char>, std::__ndk1::allocator<char> >)::$_0>, void (CCMenuItemSpriteExtra*)>::operator()(CCMenuItemSpriteExtra*&&)
FUNC b3df8 18 0 std::__ndk1::__function::__func<LobbyLayer::init(std::__ndk1::basic_string<char, std::__ndk1::char_traits<char>, std::__ndk1::allocator<char> >)::$_0, std::__ndk1::allocator<LobbyLayer::init(std::__ndk1::basic_string<char, std::__ndk1::char_traits<char>, std::__ndk1::allocator<char> >)::$_0>, void (CCMenuItemSpriteExtra*)>::target(std::type_info const&) const
FUNC b3e10 c 0 std::__ndk1::__function::__func<LobbyLayer::init(std::__ndk1::basic_string<char, std::__ndk1::char_traits<char>, std::__ndk1::allocator<char> >)::$_0, std::__ndk1::allocator<LobbyLayer::init(std::__ndk1::basic_string<char, std::__ndk1::char_traits<char>, std::__ndk1::allocator<char> >)::$_0>, void (CCMenuItemSpriteExtra*)>::target_type() const
FUNC b3e1c 4 0 std::__ndk1::__function::__func<LobbyLayer::init(std::__ndk1::basic_string<char, std::__ndk1::char_traits<char>, std::__ndk1::allocator<char> >)::$_0::operator()(cocos2d::CCObject*) const::{lambda(auto:1, bool)#1}, std::__ndk1::allocator<LobbyLayer::init(std::__ndk1::basic_string<char, std::__ndk1::char_traits<char>, std::__ndk1::allocator<char> >)::$_0::operator()(cocos2d::CCObject*) const::{lambda(auto:1, bool)#1}>, void (FLAlertLayer*, bool)>::~__func()
FUNC b3e20 20 0 std::__ndk1::__function::__func<LobbyLayer::init(std::__ndk1::basic_string<char, std::__ndk1::char_traits<char>, std::__ndk1::allocator<char> >)::$_0::operator()(cocos2d::CCObject*) const::{lambda(auto:1, bool)#1}, std::__ndk1::allocator<LobbyLayer::init(std::__ndk1::basic_string<char, std::__ndk1::char_traits<char>, std::__ndk1::allocator<char> >)::$_0::operator()(cocos2d::CCObject*) const::{lambda(auto:1, bool)#1}>, void (FLAlertLayer*, bool)>::__clone() const
FUNC b3e40 14 0 std::__ndk1::__function::__func<LobbyLayer::init(std::__ndk1::basic_string<char, std::__ndk1::char_traits<char>, std::__ndk1::allocator<char> >)::$_0::operator()(cocos2d::CCObject*) const::{lambda(auto:1, bool)#1}, std::__ndk1::allocator<LobbyLayer::init(std::__ndk1::basic_string<char, std::__ndk1::char_traits<char>, std::__ndk1::allocator<char> >)::$_0::operator()(cocos2d::CCObject*) const::{lambda(auto:1, bool)#1}>, void (FLAlertLayer*, bool)>::__clone(std::__ndk1::__function::__base<void (FLAlertLayer*, bool)>*) const
FUNC b3e54 2 0 std::__ndk1::__function::__func<LobbyLayer::init(std::__ndk1::basic_string<char, std::__ndk1::char_traits<char>, std::__ndk1::allocator<char> >)::$_0::operator()(cocos2d::CCObject*) const::{lambda(auto:1, bool)#1}, std::__ndk1::allocator<LobbyLayer::init(std::__ndk1::basic_string<char, std::__ndk1::char_traits<char>, std::__ndk1::allocator<char> >)::$_0::operator()(cocos2d::CCObject*) const::{lambda(auto:1, bool)#1}>, void (FLAlertLayer*, bool)>::destroy()
FUNC b3e56 4 0 std::__ndk1::__function::__func<LobbyLayer::init(std::__ndk1::basic_string<char, std::__ndk1::char_traits<char>, std::__ndk1::allocator<char> >)::$_0::operator()(cocos2d::CCObject*) const::{lambda(auto:1, bool)#1}, std::__ndk1::allocator<LobbyLayer::init(std::__ndk1::basic_string<char, std::__ndk1::char_traits<char>, std::__ndk1::allocator<char> >)::$_0::operator()(cocos2d::CCObject*) const::{lambda(auto:1, bool)#1}>, void (FLAlertLayer*, bool)>::destroy_deallocate()
FUNC b3e5c cc 0 std::__ndk1::__function::__func<LobbyLayer::init(std::__ndk1::basic_string<char, std::__ndk1::char_traits<char>, std::__ndk1::allocator<char> >)::$_0::operator()(cocos2d::CCObject*) const::{lambda(auto:1, bool)#1}, std::__ndk1::allocator<LobbyLayer::init(std::__ndk1::basic_string<char, std::__ndk1::char_traits<char>, std::__ndk1::allocator<char> >)::$_0::operator()(cocos2d::CCObject*) const::{lambda(auto:1, bool)#1}>, void (FLAlertLayer*, bool)>::operator()(FLAlertLayer*&&, bool&&)
FUNC b3f28 18 0 std::__ndk1::__function::__func<LobbyLayer::init(std::__ndk1::basic_string<char, std::__ndk1::char_traits<char>, std::__ndk1::allocator<char> >)::$_0::operator()(cocos2d::CCObject*) const::{lambda(auto:1, bool)#1}, std::__ndk1::allocator<LobbyLayer::init(std::__ndk1::basic_string<char, std::__ndk1::char_traits<char>, std::__ndk1::allocator<char> >)::$_0::operator()(cocos2d::CCObject*) const::{lambda(auto:1, bool)#1}>, void (FLAlertLayer*, bool)>::target(std::type_info const&) const
FUNC b3f40 c 0 std::__ndk1::__function::__func<LobbyLayer::init(std::__ndk1::basic_string<char, std::__ndk1::char_traits<char>, std::__ndk1::allocator<char> >)::$_0::operator()(cocos2d::CCObject*) const::{lambda(auto:1, bool)#1}, std::__ndk1::allocator<LobbyLayer::init(std::__ndk1::basic_string<char, std::__ndk1::char_traits<char>, std::__ndk1::allocator<char> >)::$_0::operator()(cocos2d::CCObject*) const::{lambda(auto:1, bool)#1}>, void (FLAlertLayer*, bool)>::target_type() const
FUNC b3f4c 4 0 std::__ndk1::__function::__func<LobbyLayer::init(std::__ndk1::basic_string<char, std::__ndk1::char_traits<char>, std::__ndk1::allocator<char> >)::$_5, std::__ndk1::allocator<LobbyLayer::init(std::__ndk1::basic_string<char, std::__ndk1::char_traits<char>, std::__ndk1::allocator<char> >)::$_5>, void (LobbyInfo)>::~__func()
FUNC b3f50 20 0 std::__ndk1::__function::__func<LobbyLayer::init(std::__ndk1::basic_string<char, std::__ndk1::char_traits<char>, std::__ndk1::allocator<char> >)::$_5, std::__ndk1::allocator<LobbyLayer::init(std::__ndk1::basic_string<char, std::__ndk1::char_traits<char>, std::__ndk1::allocator<char> >)::$_5>, void (LobbyInfo)>::__clone() const
FUNC b3f70 14 0 std::__ndk1::__function::__func<LobbyLayer::init(std::__ndk1::basic_string<char, std::__ndk1::char_traits<char>, std::__ndk1::allocator<char> >)::$_5, std::__ndk1::allocator<LobbyLayer::init(std::__ndk1::basic_string<char, std::__ndk1::char_traits<char>, std::__ndk1::allocator<char> >)::$_5>, void (LobbyInfo)>::__clone(std::__ndk1::__function::__base<void (LobbyInfo)>*) const
FUNC b3f84 2 0 std::__ndk1::__function::__func<LobbyLayer::init(std::__ndk1::basic_string<char, std::__ndk1::char_traits<char>, std::__ndk1::allocator<char> >)::$_5, std::__ndk1::allocator<LobbyLayer::init(std::__ndk1::basic_string<char, std::__ndk1::char_traits<char>, std::__ndk1::allocator<char> >)::$_5>, void (LobbyInfo)>::destroy()
FUNC b3f86 4 0 std::__ndk1::__function::__func<LobbyLayer::init(std::__ndk1::basic_string<char, std::__ndk1::char_traits<char>, std::__ndk1::allocator<char> >)::$_5, std::__ndk1::allocator<LobbyLayer::init(std::__ndk1::basic_string<char, std::__ndk1::char_traits<char>, std::__ndk1::allocator<char> >)::$_5>, void (LobbyInfo)>::destroy_deallocate()
FUNC b3f8c 184 0 std::__ndk1::__function::__func<LobbyLayer::init(std::__ndk1::basic_string<char, std::__ndk1::char_traits<char>, std::__ndk1::allocator<char> >)::$_5, std::__ndk1::allocator<LobbyLayer::init(std::__ndk1::basic_string<char, std::__ndk1::char_traits<char>, std::__ndk1::allocator<char> >)::$_5>, void (LobbyInfo)>::operator()(LobbyInfo&&)
FUNC b4110 18 0 std::__ndk1::__function::__func<LobbyLayer::init(std::__ndk1::basic_string<char, std::__ndk1::char_traits<char>, std::__ndk1::allocator<char> >)::$_5, std::__ndk1::allocator<LobbyLayer::init(std::__ndk1::basic_string<char, std::__ndk1::char_traits<char>, std::__ndk1::allocator<char> >)::$_5>, void (LobbyInfo)>::target(std::type_info const&) const
FUNC b4128 c 0 std::__ndk1::__function::__func<LobbyLayer::init(std::__ndk1::basic_string<char, std::__ndk1::char_traits<char>, std::__ndk1::allocator<char> >)::$_5, std::__ndk1::allocator<LobbyLayer::init(std::__ndk1::basic_string<char, std::__ndk1::char_traits<char>, std::__ndk1::allocator<char> >)::$_5>, void (LobbyInfo)>::target_type() const
FUNC b4134 34 0 _ZNSt6__ndk110__function6__funcIZN14NetworkManager2onI18LobbyUpdatedPacketQsr3stdE12is_base_of_vI6PacketT_EEEvNS_8functionIFvPS6_EEEbEUlNS_12basic_stringIcNS_11char_traitsIcEENS_9allocatorIcEEEEE_NSE_ISH_EEFvSG_EED2Ev
FUNC b4168 38 0 _ZNSt6__ndk110__function6__funcIZN14NetworkManager2onI18LobbyUpdatedPacketQsr3stdE12is_base_of_vI6PacketT_EEEvNS_8functionIFvPS6_EEEbEUlNS_12basic_stringIcNS_11char_traitsIcEENS_9allocatorIcEEEEE_NSE_ISH_EEFvSG_EED0Ev
FUNC b41a0 54 0 _ZNKSt6__ndk110__function6__funcIZN14NetworkManager2onI18LobbyUpdatedPacketQsr3stdE12is_base_of_vI6PacketT_EEEvNS_8functionIFvPS6_EEEbEUlNS_12basic_stringIcNS_11char_traitsIcEENS_9allocatorIcEEEEE_NSE_ISH_EEFvSG_EE7__cloneEv
FUNC b41f4 44 0 _ZNKSt6__ndk110__function6__funcIZN14NetworkManager2onI18LobbyUpdatedPacketQsr3stdE12is_base_of_vI6PacketT_EEEvNS_8functionIFvPS6_EEEbEUlNS_12basic_stringIcNS_11char_traitsIcEENS_9allocatorIcEEEEE_NSE_ISH_EEFvSG_EE7__cloneEPNS0_6__baseISJ_EE
FUNC b4238 1e 0 _ZNSt6__ndk110__function6__funcIZN14NetworkManager2onI18LobbyUpdatedPacketQsr3stdE12is_base_of_vI6PacketT_EEEvNS_8functionIFvPS6_EEEbEUlNS_12basic_stringIcNS_11char_traitsIcEENS_9allocatorIcEEEEE_NSE_ISH_EEFvSG_EE7destroyEv
FUNC b4256 2a 0 _ZNSt6__ndk110__function6__funcIZN14NetworkManager2onI18LobbyUpdatedPacketQsr3stdE12is_base_of_vI6PacketT_EEEvNS_8functionIFvPS6_EEEbEUlNS_12basic_stringIcNS_11char_traitsIcEENS_9allocatorIcEEEEE_NSE_ISH_EEFvSG_EE18destroy_deallocateEv
FUNC b4280 2bc 0 _ZNSt6__ndk110__function6__funcIZN14NetworkManager2onI18LobbyUpdatedPacketQsr3stdE12is_base_of_vI6PacketT_EEEvNS_8functionIFvPS6_EEEbEUlNS_12basic_stringIcNS_11char_traitsIcEENS_9allocatorIcEEEEE_NSE_ISH_EEFvSG_EEclEOSG_
FUNC b453c 18 0 _ZNKSt6__ndk110__function6__funcIZN14NetworkManager2onI18LobbyUpdatedPacketQsr3stdE12is_base_of_vI6PacketT_EEEvNS_8functionIFvPS6_EEEbEUlNS_12basic_stringIcNS_11char_traitsIcEENS_9allocatorIcEEEEE_NSE_ISH_EEFvSG_EE6targetERKSt9type_info
FUNC b4554 c 0 _ZNKSt6__ndk110__function6__funcIZN14NetworkManager2onI18LobbyUpdatedPacketQsr3stdE12is_base_of_vI6PacketT_EEEvNS_8functionIFvPS6_EEEbEUlNS_12basic_stringIcNS_11char_traitsIcEENS_9allocatorIcEEEEE_NSE_ISH_EEFvSG_EE11target_typeEv
FUNC b4560 2 0 LobbyUpdatedPacket::decode(std::__ndk1::basic_string<char, std::__ndk1::char_traits<char>, std::__ndk1::allocator<char> >)
FUNC b4562 6 0 LobbyUpdatedPacket::getPacketID() const
FUNC b4568 c 0 LobbyUpdatedPacket::getPacketName() const
FUNC b4574 128 0 LobbyInfo::serialize<cereal::JSONInputArchive>(cereal::JSONInputArchive&)
FUNC b469c 178 0 cereal::InputArchive<cereal::JSONInputArchive, (unsigned int)0>::process<cereal::NameValuePair<int&>, cereal::NameValuePair<Account&>, cereal::NameValuePair<int&>, cereal::NameValuePair<bool&> >(cereal::NameValuePair<int&>&&, cereal::NameValuePair<Account&>&&, cereal::NameValuePair<int&>, cereal::NameValuePair<bool&>)
FUNC b4814 98 0 cereal::InputArchive<cereal::JSONInputArchive, (unsigned int)0>::process<cereal::NameValuePair<int&>, cereal::NameValuePair<bool&> >(cereal::NameValuePair<int&>&&, cereal::NameValuePair<bool&>&&)
FUNC b48ac 70 0 cereal::JSONInputArchive::loadValue(bool&)
FUNC b491c 170 0 cereal::load<cereal::JSONInputArchive, Account, std::__ndk1::allocator<Account> >(cereal::JSONInputArchive&, std::__ndk1::vector<Account, std::__ndk1::allocator<Account> >&)
FUNC b4a8c 84 0 cereal::JSONInputArchive::loadSize(unsigned long long&)
FUNC b4b10 17e 0 std::__ndk1::vector<Account, std::__ndk1::allocator<Account> >::__append(unsigned int)
FUNC b4c90 34 0 _ZNSt6__ndk110__function6__funcIZZN14NetworkManager2onI18LobbyUpdatedPacketQsr3stdE12is_base_of_vI6PacketT_EEEvNS_8functionIFvPS6_EEEbENKUlNS_12basic_stringIcNS_11char_traitsIcEENS_9allocatorIcEEEEE_clESG_EUlvE_NSE_ISI_EEFvvEED2Ev
FUNC b4cc4 38 0 _ZNSt6__ndk110__function6__funcIZZN14NetworkManager2onI18LobbyUpdatedPacketQsr3stdE12is_base_of_vI6PacketT_EEEvNS_8functionIFvPS6_EEEbENKUlNS_12basic_stringIcNS_11char_traitsIcEENS_9allocatorIcEEEEE_clESG_EUlvE_NSE_ISI_EEFvvEED0Ev
FUNC b4cfc 54 0 _ZNKSt6__ndk110__function6__funcIZZN14NetworkManager2onI18LobbyUpdatedPacketQsr3stdE12is_base_of_vI6PacketT_EEEvNS_8functionIFvPS6_EEEbENKUlNS_12basic_stringIcNS_11char_traitsIcEENS_9allocatorIcEEEEE_clESG_EUlvE_NSE_ISI_EEFvvEE7__cloneEv
FUNC b4d50 44 0 _ZNKSt6__ndk110__function6__funcIZZN14NetworkManager2onI18LobbyUpdatedPacketQsr3stdE12is_base_of_vI6PacketT_EEEvNS_8functionIFvPS6_EEEbENKUlNS_12basic_stringIcNS_11char_traitsIcEENS_9allocatorIcEEEEE_clESG_EUlvE_NSE_ISI_EEFvvEE7__cloneEPNS0_6__baseISK_EE
FUNC b4d94 1e 0 _ZNSt6__ndk110__function6__funcIZZN14NetworkManager2onI18LobbyUpdatedPacketQsr3stdE12is_base_of_vI6PacketT_EEEvNS_8functionIFvPS6_EEEbENKUlNS_12basic_stringIcNS_11char_traitsIcEENS_9allocatorIcEEEEE_clESG_EUlvE_NSE_ISI_EEFvvEE7destroyEv
FUNC b4db2 2a 0 _ZNSt6__ndk110__function6__funcIZZN14NetworkManager2onI18LobbyUpdatedPacketQsr3stdE12is_base_of_vI6PacketT_EEEvNS_8functionIFvPS6_EEEbENKUlNS_12basic_stringIcNS_11char_traitsIcEENS_9allocatorIcEEEEE_clESG_EUlvE_NSE_ISI_EEFvvEE18destroy_deallocateEv
FUNC b4ddc 44 0 _ZNSt6__ndk110__function6__funcIZZN14NetworkManager2onI18LobbyUpdatedPacketQsr3stdE12is_base_of_vI6PacketT_EEEvNS_8functionIFvPS6_EEEbENKUlNS_12basic_stringIcNS_11char_traitsIcEENS_9allocatorIcEEEEE_clESG_EUlvE_NSE_ISI_EEFvvEEclEv
FUNC b4e20 18 0 _ZNKSt6__ndk110__function6__funcIZZN14NetworkManager2onI18LobbyUpdatedPacketQsr3stdE12is_base_of_vI6PacketT_EEEvNS_8functionIFvPS6_EEEbENKUlNS_12basic_stringIcNS_11char_traitsIcEENS_9allocatorIcEEEEE_clESG_EUlvE_NSE_ISI_EEFvvEE6targetERKSt9type_info
FUNC b4e38 c 0 _ZNKSt6__ndk110__function6__funcIZZN14NetworkManager2onI18LobbyUpdatedPacketQsr3stdE12is_base_of_vI6PacketT_EEEvNS_8functionIFvPS6_EEEbENKUlNS_12basic_stringIcNS_11char_traitsIcEENS_9allocatorIcEEEEE_clESG_EUlvE_NSE_ISI_EEFvvEE11target_typeEv
FUNC b4e44 2 0 std::__ndk1::__function::__base<void (LobbyUpdatedPacket*)>::~__base()
FUNC b4e46 4 0 std::__ndk1::__function::__func<LobbyLayer::registerListeners()::$_0, std::__ndk1::allocator<LobbyLayer::registerListeners()::$_0>, void (LobbyUpdatedPacket*)>::~__func()
FUNC b4e4c 20 0 std::__ndk1::__function::__func<LobbyLayer::registerListeners()::$_0, std::__ndk1::allocator<LobbyLayer::registerListeners()::$_0>, void (LobbyUpdatedPacket*)>::__clone() const
FUNC b4e6c 14 0 std::__ndk1::__function::__func<LobbyLayer::registerListeners()::$_0, std::__ndk1::allocator<LobbyLayer::registerListeners()::$_0>, void (LobbyUpdatedPacket*)>::__clone(std::__ndk1::__function::__base<void (LobbyUpdatedPacket*)>*) const
FUNC b4e80 2 0 std::__ndk1::__function::__func<LobbyLayer::registerListeners()::$_0, std::__ndk1::allocator<LobbyLayer::registerListeners()::$_0>, void (LobbyUpdatedPacket*)>::destroy()
FUNC b4e82 4 0 std::__ndk1::__function::__func<LobbyLayer::registerListeners()::$_0, std::__ndk1::allocator<LobbyLayer::registerListeners()::$_0>, void (LobbyUpdatedPacket*)>::destroy_deallocate()
FUNC b4e88 a8 0 std::__ndk1::__function::__func<LobbyLayer::registerListeners()::$_0, std::__ndk1::allocator<LobbyLayer::registerListeners()::$_0>, void (LobbyUpdatedPacket*)>::operator()(LobbyUpdatedPacket*&&)
FUNC b4f30 18 0 std::__ndk1::__function::__func<LobbyLayer::registerListeners()::$_0, std::__ndk1::allocator<LobbyLayer::registerListeners()::$_0>, void (LobbyUpdatedPacket*)>::target(std::type_info const&) const
FUNC b4f48 c 0 std::__ndk1::__function::__func<LobbyLayer::registerListeners()::$_0, std::__ndk1::allocator<LobbyLayer::registerListeners()::$_0>, void (LobbyUpdatedPacket*)>::target_type() const
FUNC b4f54 34 0 _ZNSt6__ndk110__function6__funcIZN14NetworkManager2onI17SwapStartedPacketQsr3stdE12is_base_of_vI6PacketT_EEEvNS_8functionIFvPS6_EEEbEUlNS_12basic_stringIcNS_11char_traitsIcEENS_9allocatorIcEEEEE_NSE_ISH_EEFvSG_EED2Ev
FUNC b4f88 38 0 _ZNSt6__ndk110__function6__funcIZN14NetworkManager2onI17SwapStartedPacketQsr3stdE12is_base_of_vI6PacketT_EEEvNS_8functionIFvPS6_EEEbEUlNS_12basic_stringIcNS_11char_traitsIcEENS_9allocatorIcEEEEE_NSE_ISH_EEFvSG_EED0Ev
FUNC b4fc0 54 0 _ZNKSt6__ndk110__function6__funcIZN14NetworkManager2onI17SwapStartedPacketQsr3stdE12is_base_of_vI6PacketT_EEEvNS_8functionIFvPS6_EEEbEUlNS_12basic_stringIcNS_11char_traitsIcEENS_9allocatorIcEEEEE_NSE_ISH_EEFvSG_EE7__cloneEv
FUNC b5014 44 0 _ZNKSt6__ndk110__function6__funcIZN14NetworkManager2onI17SwapStartedPacketQsr3stdE12is_base_of_vI6PacketT_EEEvNS_8functionIFvPS6_EEEbEUlNS_12basic_stringIcNS_11char_traitsIcEENS_9allocatorIcEEEEE_NSE_ISH_EEFvSG_EE7__cloneEPNS0_6__baseISJ_EE
FUNC b5058 1e 0 _ZNSt6__ndk110__function6__funcIZN14NetworkManager2onI17SwapStartedPacketQsr3stdE12is_base_of_vI6PacketT_EEEvNS_8functionIFvPS6_EEEbEUlNS_12basic_stringIcNS_11char_traitsIcEENS_9allocatorIcEEEEE_NSE_ISH_EEFvSG_EE7destroyEv
FUNC b5076 2a 0 _ZNSt6__ndk110__function6__funcIZN14NetworkManager2onI17SwapStartedPacketQsr3stdE12is_base_of_vI6PacketT_EEEvNS_8functionIFvPS6_EEEbEUlNS_12basic_stringIcNS_11char_traitsIcEENS_9allocatorIcEEEEE_NSE_ISH_EEFvSG_EE18destroy_deallocateEv
FUNC b50a0 27c 0 _ZNSt6__ndk110__function6__funcIZN14NetworkManager2onI17SwapStartedPacketQsr3stdE12is_base_of_vI6PacketT_EEEvNS_8functionIFvPS6_EEEbEUlNS_12basic_stringIcNS_11char_traitsIcEENS_9allocatorIcEEEEE_NSE_ISH_EEFvSG_EEclEOSG_
FUNC b531c 18 0 _ZNKSt6__ndk110__function6__funcIZN14NetworkManager2onI17SwapStartedPacketQsr3stdE12is_base_of_vI6PacketT_EEEvNS_8functionIFvPS6_EEEbEUlNS_12basic_stringIcNS_11char_traitsIcEENS_9allocatorIcEEEEE_NSE_ISH_EEFvSG_EE6targetERKSt9type_info
FUNC b5334 c 0 _ZNKSt6__ndk110__function6__funcIZN14NetworkManager2onI17SwapStartedPacketQsr3stdE12is_base_of_vI6PacketT_EEEvNS_8functionIFvPS6_EEEbEUlNS_12basic_stringIcNS_11char_traitsIcEENS_9allocatorIcEEEEE_NSE_ISH_EEFvSG_EE11target_typeEv
FUNC b5340 2 0 SwapStartedPacket::decode(std::__ndk1::basic_string<char, std::__ndk1::char_traits<char>, std::__ndk1::allocator<char> >)
FUNC b5342 6 0 SwapStartedPacket::getPacketID() const
FUNC b5348 c 0 SwapStartedPacket::getPacketName() const
FUNC b5354 34 0 _ZNSt6__ndk110__function6__funcIZZN14NetworkManager2onI17SwapStartedPacketQsr3stdE12is_base_of_vI6PacketT_EEEvNS_8functionIFvPS6_EEEbENKUlNS_12basic_stringIcNS_11char_traitsIcEENS_9allocatorIcEEEEE_clESG_EUlvE_NSE_ISI_EEFvvEED2Ev
FUNC b5388 38 0 _ZNSt6__ndk110__function6__funcIZZN14NetworkManager2onI17SwapStartedPacketQsr3stdE12is_base_of_vI6PacketT_EEEvNS_8functionIFvPS6_EEEbENKUlNS_12basic_stringIcNS_11char_traitsIcEENS_9allocatorIcEEEEE_clESG_EUlvE_NSE_ISI_EEFvvEED0Ev
FUNC b53c0 54 0 _ZNKSt6__ndk110__function6__funcIZZN14NetworkManager2onI17SwapStartedPacketQsr3stdE12is_base_of_vI6PacketT_EEEvNS_8functionIFvPS6_EEEbENKUlNS_12basic_stringIcNS_11char_traitsIcEENS_9allocatorIcEEEEE_clESG_EUlvE_NSE_ISI_EEFvvEE7__cloneEv
FUNC b5414 44 0 _ZNKSt6__ndk110__function6__funcIZZN14NetworkManager2onI17SwapStartedPacketQsr3stdE12is_base_of_vI6PacketT_EEEvNS_8functionIFvPS6_EEEbENKUlNS_12basic_stringIcNS_11char_traitsIcEENS_9allocatorIcEEEEE_clESG_EUlvE_NSE_ISI_EEFvvEE7__cloneEPNS0_6__baseISK_EE
FUNC b5458 1e 0 _ZNSt6__ndk110__function6__funcIZZN14NetworkManager2onI17SwapStartedPacketQsr3stdE12is_base_of_vI6PacketT_EEEvNS_8functionIFvPS6_EEEbENKUlNS_12basic_stringIcNS_11char_traitsIcEENS_9allocatorIcEEEEE_clESG_EUlvE_NSE_ISI_EEFvvEE7destroyEv
FUNC b5476 2a 0 _ZNSt6__ndk110__function6__funcIZZN14NetworkManager2onI17SwapStartedPacketQsr3stdE12is_base_of_vI6PacketT_EEEvNS_8functionIFvPS6_EEEbENKUlNS_12basic_stringIcNS_11char_traitsIcEENS_9allocatorIcEEEEE_clESG_EUlvE_NSE_ISI_EEFvvEE18destroy_deallocateEv
FUNC b54a0 44 0 _ZNSt6__ndk110__function6__funcIZZN14NetworkManager2onI17SwapStartedPacketQsr3stdE12is_base_of_vI6PacketT_EEEvNS_8functionIFvPS6_EEEbENKUlNS_12basic_stringIcNS_11char_traitsIcEENS_9allocatorIcEEEEE_clESG_EUlvE_NSE_ISI_EEFvvEEclEv
FUNC b54e4 18 0 _ZNKSt6__ndk110__function6__funcIZZN14NetworkManager2onI17SwapStartedPacketQsr3stdE12is_base_of_vI6PacketT_EEEvNS_8functionIFvPS6_EEEbENKUlNS_12basic_stringIcNS_11char_traitsIcEENS_9allocatorIcEEEEE_clESG_EUlvE_NSE_ISI_EEFvvEE6targetERKSt9type_info
FUNC b54fc c 0 _ZNKSt6__ndk110__function6__funcIZZN14NetworkManager2onI17SwapStartedPacketQsr3stdE12is_base_of_vI6PacketT_EEEvNS_8functionIFvPS6_EEEbENKUlNS_12basic_stringIcNS_11char_traitsIcEENS_9allocatorIcEEEEE_clESG_EUlvE_NSE_ISI_EEFvvEE11target_typeEv
FUNC b5508 2 0 std::__ndk1::__function::__base<void (SwapStartedPacket*)>::~__base()
FUNC b550a 4 0 std::__ndk1::__function::__func<LobbyLayer::registerListeners()::$_1, std::__ndk1::allocator<LobbyLayer::registerListeners()::$_1>, void (SwapStartedPacket*)>::~__func()
FUNC b5510 20 0 std::__ndk1::__function::__func<LobbyLayer::registerListeners()::$_1, std::__ndk1::allocator<LobbyLayer::registerListeners()::$_1>, void (SwapStartedPacket*)>::__clone() const
FUNC b5530 14 0 std::__ndk1::__function::__func<LobbyLayer::registerListeners()::$_1, std::__ndk1::allocator<LobbyLayer::registerListeners()::$_1>, void (SwapStartedPacket*)>::__clone(std::__ndk1::__function::__base<void (SwapStartedPacket*)>*) const
FUNC b5544 2 0 std::__ndk1::__function::__func<LobbyLayer::registerListeners()::$_1, std::__ndk1::allocator<LobbyLayer::registerListeners()::$_1>, void (SwapStartedPacket*)>::destroy()
FUNC b5546 4 0 std::__ndk1::__function::__func<LobbyLayer::registerListeners()::$_1, std::__ndk1::allocator<LobbyLayer::registerListeners()::$_1>, void (SwapStartedPacket*)>::destroy_deallocate()
FUNC b554c 274 0 std::__ndk1::__function::__func<LobbyLayer::registerListeners()::$_1, std::__ndk1::allocator<LobbyLayer::registerListeners()::$_1>, void (SwapStartedPacket*)>::operator()(SwapStartedPacket*&&)
FUNC b57c0 18 0 std::__ndk1::__function::__func<LobbyLayer::registerListeners()::$_1, std::__ndk1::allocator<LobbyLayer::registerListeners()::$_1>, void (SwapStartedPacket*)>::target(std::type_info const&) const
FUNC b57d8 c 0 std::__ndk1::__function::__func<LobbyLayer::registerListeners()::$_1, std::__ndk1::allocator<LobbyLayer::registerListeners()::$_1>, void (SwapStartedPacket*)>::target_type() const
FUNC b57e4 2 0 std::__ndk1::__function::__base<void (std::__ndk1::basic_string<char, std::__ndk1::char_traits<char>, std::__ndk1::allocator<char> >)>::~__base()
FUNC b57e6 4 0 std::__ndk1::__function::__func<LobbyLayer::registerListeners()::$_2, std::__ndk1::allocator<LobbyLayer::registerListeners()::$_2>, void (std::__ndk1::basic_string<char, std::__ndk1::char_traits<char>, std::__ndk1::allocator<char> >)>::~__func()
FUNC b57ec 20 0 std::__ndk1::__function::__func<LobbyLayer::registerListeners()::$_2, std::__ndk1::allocator<LobbyLayer::registerListeners()::$_2>, void (std::__ndk1::basic_string<char, std::__ndk1::char_traits<char>, std::__ndk1::allocator<char> >)>::__clone() const
FUNC b580c 14 0 std::__ndk1::__function::__func<LobbyLayer::registerListeners()::$_2, std::__ndk1::allocator<LobbyLayer::registerListeners()::$_2>, void (std::__ndk1::basic_string<char, std::__ndk1::char_traits<char>, std::__ndk1::allocator<char> >)>::__clone(std::__ndk1::__function::__base<void (std::__ndk1::basic_string<char, std::__ndk1::char_traits<char>, std::__ndk1::allocator<char> >)>*) const
FUNC b5820 2 0 std::__ndk1::__function::__func<LobbyLayer::registerListeners()::$_2, std::__ndk1::allocator<LobbyLayer::registerListeners()::$_2>, void (std::__ndk1::basic_string<char, std::__ndk1::char_traits<char>, std::__ndk1::allocator<char> >)>::destroy()
FUNC b5822 4 0 std::__ndk1::__function::__func<LobbyLayer::registerListeners()::$_2, std::__ndk1::allocator<LobbyLayer::registerListeners()::$_2>, void (std::__ndk1::basic_string<char, std::__ndk1::char_traits<char>, std::__ndk1::allocator<char> >)>::destroy_deallocate()
FUNC b5828 b4 0 std::__ndk1::__function::__func<LobbyLayer::registerListeners()::$_2, std::__ndk1::allocator<LobbyLayer::registerListeners()::$_2>, void (std::__ndk1::basic_string<char, std::__ndk1::char_traits<char>, std::__ndk1::allocator<char> >)>::operator()(std::__ndk1::basic_string<char, std::__ndk1::char_traits<char>, std::__ndk1::allocator<char> >&&)
FUNC b58dc 18 0 std::__ndk1::__function::__func<LobbyLayer::registerListeners()::$_2, std::__ndk1::allocator<LobbyLayer::registerListeners()::$_2>, void (std::__ndk1::basic_string<char, std::__ndk1::char_traits<char>, std::__ndk1::allocator<char> >)>::target(std::type_info const&) const
FUNC b58f4 c 0 std::__ndk1::__function::__func<LobbyLayer::registerListeners()::$_2, std::__ndk1::allocator<LobbyLayer::registerListeners()::$_2>, void (std::__ndk1::basic_string<char, std::__ndk1::char_traits<char>, std::__ndk1::allocator<char> >)>::target_type() const
FUNC b5900 74 0 std::__ndk1::__function::__func<LobbyLayer::refresh(LobbyInfo, bool)::$_0, std::__ndk1::allocator<LobbyLayer::refresh(LobbyInfo, bool)::$_0>, void (CCMenuItemSpriteExtra*)>::~__func()
FUNC b5974 78 0 std::__ndk1::__function::__func<LobbyLayer::refresh(LobbyInfo, bool)::$_0, std::__ndk1::allocator<LobbyLayer::refresh(LobbyInfo, bool)::$_0>, void (CCMenuItemSpriteExtra*)>::~__func()
FUNC b59ec 34 0 std::__ndk1::__function::__func<LobbyLayer::refresh(LobbyInfo, bool)::$_0, std::__ndk1::allocator<LobbyLayer::refresh(LobbyInfo, bool)::$_0>, void (CCMenuItemSpriteExtra*)>::__clone() const
FUNC b5a20 18 0 std::__ndk1::__function::__func<LobbyLayer::refresh(LobbyInfo, bool)::$_0, std::__ndk1::allocator<LobbyLayer::refresh(LobbyInfo, bool)::$_0>, void (CCMenuItemSpriteExtra*)>::__clone(std::__ndk1::__function::__base<void (CCMenuItemSpriteExtra*)>*) const
FUNC b5a38 6 0 std::__ndk1::__function::__func<LobbyLayer::refresh(LobbyInfo, bool)::$_0, std::__ndk1::allocator<LobbyLayer::refresh(LobbyInfo, bool)::$_0>, void (CCMenuItemSpriteExtra*)>::destroy()
FUNC b5a3e 16 0 std::__ndk1::__function::__func<LobbyLayer::refresh(LobbyInfo, bool)::$_0, std::__ndk1::allocator<LobbyLayer::refresh(LobbyInfo, bool)::$_0>, void (CCMenuItemSpriteExtra*)>::destroy_deallocate()
FUNC b5a54 90 0 std::__ndk1::__function::__func<LobbyLayer::refresh(LobbyInfo, bool)::$_0, std::__ndk1::allocator<LobbyLayer::refresh(LobbyInfo, bool)::$_0>, void (CCMenuItemSpriteExtra*)>::operator()(CCMenuItemSpriteExtra*&&)
FUNC b5ae4 18 0 std::__ndk1::__function::__func<LobbyLayer::refresh(LobbyInfo, bool)::$_0, std::__ndk1::allocator<LobbyLayer::refresh(LobbyInfo, bool)::$_0>, void (CCMenuItemSpriteExtra*)>::target(std::type_info const&) const
FUNC b5afc c 0 std::__ndk1::__function::__func<LobbyLayer::refresh(LobbyInfo, bool)::$_0, std::__ndk1::allocator<LobbyLayer::refresh(LobbyInfo, bool)::$_0>, void (CCMenuItemSpriteExtra*)>::target_type() const
FUNC b5b08 6a 0 std::__ndk1::__function::__alloc_func<LobbyLayer::refresh(LobbyInfo, bool)::$_0, std::__ndk1::allocator<LobbyLayer::refresh(LobbyInfo, bool)::$_0>, void (CCMenuItemSpriteExtra*)>::destroy[abi:ne180000]()
FUNC b5b72 4 0 std::__ndk1::__function::__func<LobbyLayer::onStart(cocos2d::CCObject*)::$_0, std::__ndk1::allocator<LobbyLayer::onStart(cocos2d::CCObject*)::$_0>, void (FLAlertLayer*, bool)>::~__func()
FUNC b5b78 20 0 std::__ndk1::__function::__func<LobbyLayer::onStart(cocos2d::CCObject*)::$_0, std::__ndk1::allocator<LobbyLayer::onStart(cocos2d::CCObject*)::$_0>, void (FLAlertLayer*, bool)>::__clone() const
FUNC b5b98 14 0 std::__ndk1::__function::__func<LobbyLayer::onStart(cocos2d::CCObject*)::$_0, std::__ndk1::allocator<LobbyLayer::onStart(cocos2d::CCObject*)::$_0>, void (FLAlertLayer*, bool)>::__clone(std::__ndk1::__function::__base<void (FLAlertLayer*, bool)>*) const
FUNC b5bac 2 0 std::__ndk1::__function::__func<LobbyLayer::onStart(cocos2d::CCObject*)::$_0, std::__ndk1::allocator<LobbyLayer::onStart(cocos2d::CCObject*)::$_0>, void (FLAlertLayer*, bool)>::destroy()
FUNC b5bae 4 0 std::__ndk1::__function::__func<LobbyLayer::onStart(cocos2d::CCObject*)::$_0, std::__ndk1::allocator<LobbyLayer::onStart(cocos2d::CCObject*)::$_0>, void (FLAlertLayer*, bool)>::destroy_deallocate()
FUNC b5bb4 6b8 0 std::__ndk1::__function::__func<LobbyLayer::onStart(cocos2d::CCObject*)::$_0, std::__ndk1::allocator<LobbyLayer::onStart(cocos2d::CCObject*)::$_0>, void (FLAlertLayer*, bool)>::operator()(FLAlertLayer*&&, bool&&)
FUNC b626c 18 0 std::__ndk1::__function::__func<LobbyLayer::onStart(cocos2d::CCObject*)::$_0, std::__ndk1::allocator<LobbyLayer::onStart(cocos2d::CCObject*)::$_0>, void (FLAlertLayer*, bool)>::target(std::type_info const&) const
FUNC b6284 c 0 std::__ndk1::__function::__func<LobbyLayer::onStart(cocos2d::CCObject*)::$_0, std::__ndk1::allocator<LobbyLayer::onStart(cocos2d::CCObject*)::$_0>, void (FLAlertLayer*, bool)>::target_type() const
FUNC b6290 34 0 std::__ndk1::__function::__func<NetworkManager::send<StartSwapPacket>(StartSwapPacket*, std::__ndk1::function<void ()>)::{lambda(int, int)#1}, std::__ndk1::allocator<NetworkManager::send<StartSwapPacket>(StartSwapPacket*, std::__ndk1::function<void ()>)::{lambda(int, int)#1}>, bool (int, int)>::~__func()
FUNC b62c4 38 0 std::__ndk1::__function::__func<NetworkManager::send<StartSwapPacket>(StartSwapPacket*, std::__ndk1::function<void ()>)::{lambda(int, int)#1}, std::__ndk1::allocator<NetworkManager::send<StartSwapPacket>(StartSwapPacket*, std::__ndk1::function<void ()>)::{lambda(int, int)#1}>, bool (int, int)>::~__func()
FUNC b62fc 54 0 std::__ndk1::__function::__func<NetworkManager::send<StartSwapPacket>(StartSwapPacket*, std::__ndk1::function<void ()>)::{lambda(int, int)#1}, std::__ndk1::allocator<NetworkManager::send<StartSwapPacket>(StartSwapPacket*, std::__ndk1::function<void ()>)::{lambda(int, int)#1}>, bool (int, int)>::__clone() const
FUNC b6350 44 0 std::__ndk1::__function::__func<NetworkManager::send<StartSwapPacket>(StartSwapPacket*, std::__ndk1::function<void ()>)::{lambda(int, int)#1}, std::__ndk1::allocator<NetworkManager::send<StartSwapPacket>(StartSwapPacket*, std::__ndk1::function<void ()>)::{lambda(int, int)#1}>, bool (int, int)>::__clone(std::__ndk1::__function::__base<bool (int, int)>*) const
FUNC b6394 1e 0 std::__ndk1::__function::__func<NetworkManager::send<StartSwapPacket>(StartSwapPacket*, std::__ndk1::function<void ()>)::{lambda(int, int)#1}, std::__ndk1::allocator<NetworkManager::send<StartSwapPacket>(StartSwapPacket*, std::__ndk1::function<void ()>)::{lambda(int, int)#1}>, bool (int, int)>::destroy()
FUNC b63b2 2a 0 std::__ndk1::__function::__func<NetworkManager::send<StartSwapPacket>(StartSwapPacket*, std::__ndk1::function<void ()>)::{lambda(int, int)#1}, std::__ndk1::allocator<NetworkManager::send<StartSwapPacket>(StartSwapPacket*, std::__ndk1::function<void ()>)::{lambda(int, int)#1}>, bool (int, int)>::destroy_deallocate()
FUNC b63dc 140 0 std::__ndk1::__function::__func<NetworkManager::send<StartSwapPacket>(StartSwapPacket*, std::__ndk1::function<void ()>)::{lambda(int, int)#1}, std::__ndk1::allocator<NetworkManager::send<StartSwapPacket>(StartSwapPacket*, std::__ndk1::function<void ()>)::{lambda(int, int)#1}>, bool (int, int)>::operator()(int&&, int&&)
FUNC b651c 18 0 std::__ndk1::__function::__func<NetworkManager::send<StartSwapPacket>(StartSwapPacket*, std::__ndk1::function<void ()>)::{lambda(int, int)#1}, std::__ndk1::allocator<NetworkManager::send<StartSwapPacket>(StartSwapPacket*, std::__ndk1::function<void ()>)::{lambda(int, int)#1}>, bool (int, int)>::target(std::type_info const&) const
FUNC b6534 c 0 std::__ndk1::__function::__func<NetworkManager::send<StartSwapPacket>(StartSwapPacket*, std::__ndk1::function<void ()>)::{lambda(int, int)#1}, std::__ndk1::allocator<NetworkManager::send<StartSwapPacket>(StartSwapPacket*, std::__ndk1::function<void ()>)::{lambda(int, int)#1}>, bool (int, int)>::target_type() const
FUNC b6540 34 0 std::__ndk1::__function::__func<NetworkManager::send<StartSwapPacket>(StartSwapPacket*, std::__ndk1::function<void ()>)::{lambda(int, int)#1}::operator()(int, int) const::{lambda()#1}, std::__ndk1::allocator<NetworkManager::send<StartSwapPacket>(StartSwapPacket*, std::__ndk1::function<void ()>)::{lambda(int, int)#1}::operator()(int, int) const::{lambda()#1}>, void ()>::~__func()
FUNC b6574 38 0 std::__ndk1::__function::__func<NetworkManager::send<StartSwapPacket>(StartSwapPacket*, std::__ndk1::function<void ()>)::{lambda(int, int)#1}::operator()(int, int) const::{lambda()#1}, std::__ndk1::allocator<NetworkManager::send<StartSwapPacket>(StartSwapPacket*, std::__ndk1::function<void ()>)::{lambda(int, int)#1}::operator()(int, int) const::{lambda()#1}>, void ()>::~__func()
FUNC b65ac 54 0 std::__ndk1::__function::__func<NetworkManager::send<StartSwapPacket>(StartSwapPacket*, std::__ndk1::function<void ()>)::{lambda(int, int)#1}::operator()(int, int) const::{lambda()#1}, std::__ndk1::allocator<NetworkManager::send<StartSwapPacket>(StartSwapPacket*, std::__ndk1::function<void ()>)::{lambda(int, int)#1}::operator()(int, int) const::{lambda()#1}>, void ()>::__clone() const
FUNC b6600 44 0 std::__ndk1::__function::__func<NetworkManager::send<StartSwapPacket>(StartSwapPacket*, std::__ndk1::function<void ()>)::{lambda(int, int)#1}::operator()(int, int) const::{lambda()#1}, std::__ndk1::allocator<NetworkManager::send<StartSwapPacket>(StartSwapPacket*, std::__ndk1::function<void ()>)::{lambda(int, int)#1}::operator()(int, int) const::{lambda()#1}>, void ()>::__clone(std::__ndk1::__function::__base<void ()>*) const
FUNC b6644 1e 0 std::__ndk1::__function::__func<NetworkManager::send<StartSwapPacket>(StartSwapPacket*, std::__ndk1::function<void ()>)::{lambda(int, int)#1}::operator()(int, int) const::{lambda()#1}, std::__ndk1::allocator<NetworkManager::send<StartSwapPacket>(StartSwapPacket*, std::__ndk1::function<void ()>)::{lambda(int, int)#1}::operator()(int, int) const::{lambda()#1}>, void ()>::destroy()
FUNC b6662 2a 0 std::__ndk1::__function::__func<NetworkManager::send<StartSwapPacket>(StartSwapPacket*, std::__ndk1::function<void ()>)::{lambda(int, int)#1}::operator()(int, int) const::{lambda()#1}, std::__ndk1::allocator<NetworkManager::send<StartSwapPacket>(StartSwapPacket*, std::__ndk1::function<void ()>)::{lambda(int, int)#1}::operator()(int, int) const::{lambda()#1}>, void ()>::destroy_deallocate()
FUNC b668c 12 0 std::__ndk1::__function::__func<NetworkManager::send<StartSwapPacket>(StartSwapPacket*, std::__ndk1::function<void ()>)::{lambda(int, int)#1}::operator()(int, int) const::{lambda()#1}, std::__ndk1::allocator<NetworkManager::send<StartSwapPacket>(StartSwapPacket*, std::__ndk1::function<void ()>)::{lambda(int, int)#1}::operator()(int, int) const::{lambda()#1}>, void ()>::operator()()
FUNC b66a0 18 0 std::__ndk1::__function::__func<NetworkManager::send<StartSwapPacket>(StartSwapPacket*, std::__ndk1::function<void ()>)::{lambda(int, int)#1}::operator()(int, int) const::{lambda()#1}, std::__ndk1::allocator<NetworkManager::send<StartSwapPacket>(StartSwapPacket*, std::__ndk1::function<void ()>)::{lambda(int, int)#1}::operator()(int, int) const::{lambda()#1}>, void ()>::target(std::type_info const&) const
FUNC b66b8 c 0 std::__ndk1::__function::__func<NetworkManager::send<StartSwapPacket>(StartSwapPacket*, std::__ndk1::function<void ()>)::{lambda(int, int)#1}::operator()(int, int) const::{lambda()#1}, std::__ndk1::allocator<NetworkManager::send<StartSwapPacket>(StartSwapPacket*, std::__ndk1::function<void ()>)::{lambda(int, int)#1}::operator()(int, int) const::{lambda()#1}>, void ()>::target_type() const
FUNC b66c4 2 0 StartSwapPacket::decode(std::__ndk1::basic_string<char, std::__ndk1::char_traits<char>, std::__ndk1::allocator<char> >)
FUNC b66c6 6 0 StartSwapPacket::getPacketID() const
FUNC b66cc c 0 StartSwapPacket::getPacketName() const
FUNC b66d8 2 0 std::__ndk1::__function::__base<void (LobbyInfo)>::~__base()
FUNC b66da 4 0 std::__ndk1::__function::__func<LobbyLayer::onSettings(cocos2d::CCObject*)::$_0, std::__ndk1::allocator<LobbyLayer::onSettings(cocos2d::CCObject*)::$_0>, void (LobbyInfo)>::~__func()
FUNC b66e0 20 0 std::__ndk1::__function::__func<LobbyLayer::onSettings(cocos2d::CCObject*)::$_0, std::__ndk1::allocator<LobbyLayer::onSettings(cocos2d::CCObject*)::$_0>, void (LobbyInfo)>::__clone() const
FUNC b6700 14 0 std::__ndk1::__function::__func<LobbyLayer::onSettings(cocos2d::CCObject*)::$_0, std::__ndk1::allocator<LobbyLayer::onSettings(cocos2d::CCObject*)::$_0>, void (LobbyInfo)>::__clone(std::__ndk1::__function::__base<void (LobbyInfo)>*) const
FUNC b6714 2 0 std::__ndk1::__function::__func<LobbyLayer::onSettings(cocos2d::CCObject*)::$_0, std::__ndk1::allocator<LobbyLayer::onSettings(cocos2d::CCObject*)::$_0>, void (LobbyInfo)>::destroy()
FUNC b6716 4 0 std::__ndk1::__function::__func<LobbyLayer::onSettings(cocos2d::CCObject*)::$_0, std::__ndk1::allocator<LobbyLayer::onSettings(cocos2d::CCObject*)::$_0>, void (LobbyInfo)>::destroy_deallocate()
FUNC b671c 20c 0 std::__ndk1::__function::__func<LobbyLayer::onSettings(cocos2d::CCObject*)::$_0, std::__ndk1::allocator<LobbyLayer::onSettings(cocos2d::CCObject*)::$_0>, void (LobbyInfo)>::operator()(LobbyInfo&&)
FUNC b6928 18 0 std::__ndk1::__function::__func<LobbyLayer::onSettings(cocos2d::CCObject*)::$_0, std::__ndk1::allocator<LobbyLayer::onSettings(cocos2d::CCObject*)::$_0>, void (LobbyInfo)>::target(std::type_info const&) const
FUNC b6940 c 0 std::__ndk1::__function::__func<LobbyLayer::onSettings(cocos2d::CCObject*)::$_0, std::__ndk1::allocator<LobbyLayer::onSettings(cocos2d::CCObject*)::$_0>, void (LobbyInfo)>::target_type() const
FUNC b694c 2 0 std::__ndk1::__function::__base<void (LobbySettings)>::~__base()
FUNC b694e 4 0 std::__ndk1::__function::__func<LobbyLayer::onSettings(cocos2d::CCObject*)::$_0::operator()(LobbyInfo) const::{lambda(LobbySettings)#1}, std::__ndk1::allocator<LobbyLayer::onSettings(cocos2d::CCObject*)::$_0::operator()(LobbyInfo) const::{lambda(LobbySettings)#1}>, void (LobbySettings)>::~__func()
FUNC b6954 20 0 std::__ndk1::__function::__func<LobbyLayer::onSettings(cocos2d::CCObject*)::$_0::operator()(LobbyInfo) const::{lambda(LobbySettings)#1}, std::__ndk1::allocator<LobbyLayer::onSettings(cocos2d::CCObject*)::$_0::operator()(LobbyInfo) const::{lambda(LobbySettings)#1}>, void (LobbySettings)>::__clone() const
FUNC b6974 14 0 std::__ndk1::__function::__func<LobbyLayer::onSettings(cocos2d::CCObject*)::$_0::operator()(LobbyInfo) const::{lambda(LobbySettings)#1}, std::__ndk1::allocator<LobbyLayer::onSettings(cocos2d::CCObject*)::$_0::operator()(LobbyInfo) const::{lambda(LobbySettings)#1}>, void (LobbySettings)>::__clone(std::__ndk1::__function::__base<void (LobbySettings)>*) const
FUNC b6988 2 0 std::__ndk1::__function::__func<LobbyLayer::onSettings(cocos2d::CCObject*)::$_0::operator()(LobbyInfo) const::{lambda(LobbySettings)#1}, std::__ndk1::allocator<LobbyLayer::onSettings(cocos2d::CCObject*)::$_0::operator()(LobbyInfo) const::{lambda(LobbySettings)#1}>, void (LobbySettings)>::destroy()
FUNC b698a 4 0 std::__ndk1::__function::__func<LobbyLayer::onSettings(cocos2d::CCObject*)::$_0::operator()(LobbyInfo) const::{lambda(LobbySettings)#1}, std::__ndk1::allocator<LobbyLayer::onSettings(cocos2d::CCObject*)::$_0::operator()(LobbyInfo) const::{lambda(LobbySettings)#1}>, void (LobbySettings)>::destroy_deallocate()
FUNC b6990 1c0 0 std::__ndk1::__function::__func<LobbyLayer::onSettings(cocos2d::CCObject*)::$_0::operator()(LobbyInfo) const::{lambda(LobbySettings)#1}, std::__ndk1::allocator<LobbyLayer::onSettings(cocos2d::CCObject*)::$_0::operator()(LobbyInfo) const::{lambda(LobbySettings)#1}>, void (LobbySettings)>::operator()(LobbySettings&&)
FUNC b6b50 18 0 std::__ndk1::__function::__func<LobbyLayer::onSettings(cocos2d::CCObject*)::$_0::operator()(LobbyInfo) const::{lambda(LobbySettings)#1}, std::__ndk1::allocator<LobbyLayer::onSettings(cocos2d::CCObject*)::$_0::operator()(LobbyInfo) const::{lambda(LobbySettings)#1}>, void (LobbySettings)>::target(std::type_info const&) const
FUNC b6b68 c 0 std::__ndk1::__function::__func<LobbyLayer::onSettings(cocos2d::CCObject*)::$_0::operator()(LobbyInfo) const::{lambda(LobbySettings)#1}, std::__ndk1::allocator<LobbyLayer::onSettings(cocos2d::CCObject*)::$_0::operator()(LobbyInfo) const::{lambda(LobbySettings)#1}>, void (LobbySettings)>::target_type() const
FUNC b6b74 4 0 std::__ndk1::__function::__func<LobbyLayer::onDisconnect(cocos2d::CCObject*)::$_0, std::__ndk1::allocator<LobbyLayer::onDisconnect(cocos2d::CCObject*)::$_0>, void (FLAlertLayer*, bool)>::~__func()
FUNC b6b78 20 0 std::__ndk1::__function::__func<LobbyLayer::onDisconnect(cocos2d::CCObject*)::$_0, std::__ndk1::allocator<LobbyLayer::onDisconnect(cocos2d::CCObject*)::$_0>, void (FLAlertLayer*, bool)>::__clone() const
FUNC b6b98 14 0 std::__ndk1::__function::__func<LobbyLayer::onDisconnect(cocos2d::CCObject*)::$_0, std::__ndk1::allocator<LobbyLayer::onDisconnect(cocos2d::CCObject*)::$_0>, void (FLAlertLayer*, bool)>::__clone(std::__ndk1::__function::__base<void (FLAlertLayer*, bool)>*) const
FUNC b6bac 2 0 std::__ndk1::__function::__func<LobbyLayer::onDisconnect(cocos2d::CCObject*)::$_0, std::__ndk1::allocator<LobbyLayer::onDisconnect(cocos2d::CCObject*)::$_0>, void (FLAlertLayer*, bool)>::destroy()
FUNC b6bae 4 0 std::__ndk1::__function::__func<LobbyLayer::onDisconnect(cocos2d::CCObject*)::$_0, std::__ndk1::allocator<LobbyLayer::onDisconnect(cocos2d::CCObject*)::$_0>, void (FLAlertLayer*, bool)>::destroy_deallocate()
FUNC b6bb4 108 0 std::__ndk1::__function::__func<LobbyLayer::onDisconnect(cocos2d::CCObject*)::$_0, std::__ndk1::allocator<LobbyLayer::onDisconnect(cocos2d::CCObject*)::$_0>, void (FLAlertLayer*, bool)>::operator()(FLAlertLayer*&&, bool&&)
FUNC b6cbc 18 0 std::__ndk1::__function::__func<LobbyLayer::onDisconnect(cocos2d::CCObject*)::$_0, std::__ndk1::allocator<LobbyLayer::onDisconnect(cocos2d::CCObject*)::$_0>, void (FLAlertLayer*, bool)>::target(std::type_info const&) const
FUNC b6cd4 c 0 std::__ndk1::__function::__func<LobbyLayer::onDisconnect(cocos2d::CCObject*)::$_0, std::__ndk1::allocator<LobbyLayer::onDisconnect(cocos2d::CCObject*)::$_0>, void (FLAlertLayer*, bool)>::target_type() const
FUNC b6ce0 2 0 std::__ndk1::__function::__base<void (FLAlertLayer*, bool)>::~__base()
FUNC b6ce2 4 0 std::__ndk1::__function::__func<LobbyLayer::keyBackClicked()::$_0, std::__ndk1::allocator<LobbyLayer::keyBackClicked()::$_0>, void (FLAlertLayer*, bool)>::~__func()
FUNC b6ce8 20 0 std::__ndk1::__function::__func<LobbyLayer::keyBackClicked()::$_0, std::__ndk1::allocator<LobbyLayer::keyBackClicked()::$_0>, void (FLAlertLayer*, bool)>::__clone() const
FUNC b6d08 14 0 std::__ndk1::__function::__func<LobbyLayer::keyBackClicked()::$_0, std::__ndk1::allocator<LobbyLayer::keyBackClicked()::$_0>, void (FLAlertLayer*, bool)>::__clone(std::__ndk1::__function::__base<void (FLAlertLayer*, bool)>*) const
FUNC b6d1c 2 0 std::__ndk1::__function::__func<LobbyLayer::keyBackClicked()::$_0, std::__ndk1::allocator<LobbyLayer::keyBackClicked()::$_0>, void (FLAlertLayer*, bool)>::destroy()
FUNC b6d1e 4 0 std::__ndk1::__function::__func<LobbyLayer::keyBackClicked()::$_0, std::__ndk1::allocator<LobbyLayer::keyBackClicked()::$_0>, void (FLAlertLayer*, bool)>::destroy_deallocate()
FUNC b6d22 1e 0 std::__ndk1::__function::__func<LobbyLayer::keyBackClicked()::$_0, std::__ndk1::allocator<LobbyLayer::keyBackClicked()::$_0>, void (FLAlertLayer*, bool)>::operator()(FLAlertLayer*&&, bool&&)
FUNC b6d40 18 0 std::__ndk1::__function::__func<LobbyLayer::keyBackClicked()::$_0, std::__ndk1::allocator<LobbyLayer::keyBackClicked()::$_0>, void (FLAlertLayer*, bool)>::target(std::type_info const&) const
FUNC b6d58 c 0 std::__ndk1::__function::__func<LobbyLayer::keyBackClicked()::$_0, std::__ndk1::allocator<LobbyLayer::keyBackClicked()::$_0>, void (FLAlertLayer*, bool)>::target_type() const
FUNC b6d64 68 0 _GLOBAL__sub_I_Lobby.cpp
FUNC b6dd0 110 0 LobbyJoinPopup::create()
FUNC b6ee0 25c 0 LobbyJoinPopup::setup()
FUNC b713c 60 0 LobbyJoinPopup::~LobbyJoinPopup()
FUNC b719c 60 0 {virtual override thunk({offset(-264)}, LobbyJoinPopup::~LobbyJoinPopup())}
FUNC b71fc 64 0 {virtual override thunk({offset(-264)}, LobbyJoinPopup::~LobbyJoinPopup())}
FUNC b7260 4 0 std::__ndk1::__function::__func<LobbyJoinPopup::setup()::$_0, std::__ndk1::allocator<LobbyJoinPopup::setup()::$_0>, void (CCMenuItemSpriteExtra*)>::~__func()
FUNC b7264 20 0 std::__ndk1::__function::__func<LobbyJoinPopup::setup()::$_0, std::__ndk1::allocator<LobbyJoinPopup::setup()::$_0>, void (CCMenuItemSpriteExtra*)>::__clone() const
FUNC b7284 18 0 std::__ndk1::__function::__func<LobbyJoinPopup::setup()::$_0, std::__ndk1::allocator<LobbyJoinPopup::setup()::$_0>, void (CCMenuItemSpriteExtra*)>::__clone(std::__ndk1::__function::__base<void (CCMenuItemSpriteExtra*)>*) const
FUNC b729c 2 0 std::__ndk1::__function::__func<LobbyJoinPopup::setup()::$_0, std::__ndk1::allocator<LobbyJoinPopup::setup()::$_0>, void (CCMenuItemSpriteExtra*)>::destroy()
FUNC b729e 4 0 std::__ndk1::__function::__func<LobbyJoinPopup::setup()::$_0, std::__ndk1::allocator<LobbyJoinPopup::setup()::$_0>, void (CCMenuItemSpriteExtra*)>::destroy_deallocate()
FUNC b72a4 1c4 0 std::__ndk1::__function::__func<LobbyJoinPopup::setup()::$_0, std::__ndk1::allocator<LobbyJoinPopup::setup()::$_0>, void (CCMenuItemSpriteExtra*)>::operator()(CCMenuItemSpriteExtra*&&)
FUNC b7468 18 0 std::__ndk1::__function::__func<LobbyJoinPopup::setup()::$_0, std::__ndk1::allocator<LobbyJoinPopup::setup()::$_0>, void (CCMenuItemSpriteExtra*)>::target(std::type_info const&) const
FUNC b7480 c 0 std::__ndk1::__function::__func<LobbyJoinPopup::setup()::$_0, std::__ndk1::allocator<LobbyJoinPopup::setup()::$_0>, void (CCMenuItemSpriteExtra*)>::target_type() const
FUNC b748c 2c 0 std::__ndk1::__function::__func<LobbyJoinPopup::setup()::$_0::operator()(cocos2d::CCObject*) const::{lambda()#1}, std::__ndk1::allocator<LobbyJoinPopup::setup()::$_0::operator()(cocos2d::CCObject*) const::{lambda()#1}>, void ()>::~__func()
FUNC b74b8 30 0 std::__ndk1::__function::__func<LobbyJoinPopup::setup()::$_0::operator()(cocos2d::CCObject*) const::{lambda()#1}, std::__ndk1::allocator<LobbyJoinPopup::setup()::$_0::operator()(cocos2d::CCObject*) const::{lambda()#1}>, void ()>::~__func()
FUNC b74e8 50 0 std::__ndk1::__function::__func<LobbyJoinPopup::setup()::$_0::operator()(cocos2d::CCObject*) const::{lambda()#1}, std::__ndk1::allocator<LobbyJoinPopup::setup()::$_0::operator()(cocos2d::CCObject*) const::{lambda()#1}>, void ()>::__clone() const
FUNC b7538 34 0 std::__ndk1::__function::__func<LobbyJoinPopup::setup()::$_0::operator()(cocos2d::CCObject*) const::{lambda()#1}, std::__ndk1::allocator<LobbyJoinPopup::setup()::$_0::operator()(cocos2d::CCObject*) const::{lambda()#1}>, void ()>::__clone(std::__ndk1::__function::__base<void ()>*) const
FUNC b756c e 0 std::__ndk1::__function::__func<LobbyJoinPopup::setup()::$_0::operator()(cocos2d::CCObject*) const::{lambda()#1}, std::__ndk1::allocator<LobbyJoinPopup::setup()::$_0::operator()(cocos2d::CCObject*) const::{lambda()#1}>, void ()>::destroy()
FUNC b757a 22 0 std::__ndk1::__function::__func<LobbyJoinPopup::setup()::$_0::operator()(cocos2d::CCObject*) const::{lambda()#1}, std::__ndk1::allocator<LobbyJoinPopup::setup()::$_0::operator()(cocos2d::CCObject*) const::{lambda()#1}>, void ()>::destroy_deallocate()
FUNC b759c a4 0 std::__ndk1::__function::__func<LobbyJoinPopup::setup()::$_0::operator()(cocos2d::CCObject*) const::{lambda()#1}, std::__ndk1::allocator<LobbyJoinPopup::setup()::$_0::operator()(cocos2d::CCObject*) const::{lambda()#1}>, void ()>::operator()()
FUNC b7640 18 0 std::__ndk1::__function::__func<LobbyJoinPopup::setup()::$_0::operator()(cocos2d::CCObject*) const::{lambda()#1}, std::__ndk1::allocator<LobbyJoinPopup::setup()::$_0::operator()(cocos2d::CCObject*) const::{lambda()#1}>, void ()>::target(std::type_info const&) const
FUNC b7658 c 0 std::__ndk1::__function::__func<LobbyJoinPopup::setup()::$_0::operator()(cocos2d::CCObject*) const::{lambda()#1}, std::__ndk1::allocator<LobbyJoinPopup::setup()::$_0::operator()(cocos2d::CCObject*) const::{lambda()#1}>, void ()>::target_type() const
FUNC b7664 68 0 _GLOBAL__sub_I_LobbyJoinPopup.cpp
FUNC b76d0 110 0 LobbySelectPopup::create()
FUNC b77e0 a3c 0 LobbySelectPopup::setup()
FUNC b821c 60 0 LobbySelectPopup::~LobbySelectPopup()
FUNC b827c 60 0 {virtual override thunk({offset(-264)}, LobbySelectPopup::~LobbySelectPopup())}
FUNC b82dc 64 0 {virtual override thunk({offset(-264)}, LobbySelectPopup::~LobbySelectPopup())}
FUNC b8340 4 0 std::__ndk1::__function::__func<LobbySelectPopup::setup()::$_0, std::__ndk1::allocator<LobbySelectPopup::setup()::$_0>, void (CCMenuItemSpriteExtra*)>::~__func()
FUNC b8344 20 0 std::__ndk1::__function::__func<LobbySelectPopup::setup()::$_0, std::__ndk1::allocator<LobbySelectPopup::setup()::$_0>, void (CCMenuItemSpriteExtra*)>::__clone() const
FUNC b8364 14 0 std::__ndk1::__function::__func<LobbySelectPopup::setup()::$_0, std::__ndk1::allocator<LobbySelectPopup::setup()::$_0>, void (CCMenuItemSpriteExtra*)>::__clone(std::__ndk1::__function::__base<void (CCMenuItemSpriteExtra*)>*) const
FUNC b8378 2 0 std::__ndk1::__function::__func<LobbySelectPopup::setup()::$_0, std::__ndk1::allocator<LobbySelectPopup::setup()::$_0>, void (CCMenuItemSpriteExtra*)>::destroy()
FUNC b837a 4 0 std::__ndk1::__function::__func<LobbySelectPopup::setup()::$_0, std::__ndk1::allocator<LobbySelectPopup::setup()::$_0>, void (CCMenuItemSpriteExtra*)>::destroy_deallocate()
FUNC b837e 20 0 std::__ndk1::__function::__func<LobbySelectPopup::setup()::$_0, std::__ndk1::allocator<LobbySelectPopup::setup()::$_0>, void (CCMenuItemSpriteExtra*)>::operator()(CCMenuItemSpriteExtra*&&)
FUNC b83a0 18 0 std::__ndk1::__function::__func<LobbySelectPopup::setup()::$_0, std::__ndk1::allocator<LobbySelectPopup::setup()::$_0>, void (CCMenuItemSpriteExtra*)>::target(std::type_info const&) const
FUNC b83b8 c 0 std::__ndk1::__function::__func<LobbySelectPopup::setup()::$_0, std::__ndk1::allocator<LobbySelectPopup::setup()::$_0>, void (CCMenuItemSpriteExtra*)>::target_type() const
FUNC b83c4 4 0 std::__ndk1::__function::__func<LobbySelectPopup::setup()::$_1, std::__ndk1::allocator<LobbySelectPopup::setup()::$_1>, void (CCMenuItemSpriteExtra*)>::~__func()
FUNC b83c8 20 0 std::__ndk1::__function::__func<LobbySelectPopup::setup()::$_1, std::__ndk1::allocator<LobbySelectPopup::setup()::$_1>, void (CCMenuItemSpriteExtra*)>::__clone() const
FUNC b83e8 14 0 std::__ndk1::__function::__func<LobbySelectPopup::setup()::$_1, std::__ndk1::allocator<LobbySelectPopup::setup()::$_1>, void (CCMenuItemSpriteExtra*)>::__clone(std::__ndk1::__function::__base<void (CCMenuItemSpriteExtra*)>*) const
FUNC b83fc 2 0 std::__ndk1::__function::__func<LobbySelectPopup::setup()::$_1, std::__ndk1::allocator<LobbySelectPopup::setup()::$_1>, void (CCMenuItemSpriteExtra*)>::destroy()
FUNC b83fe 4 0 std::__ndk1::__function::__func<LobbySelectPopup::setup()::$_1, std::__ndk1::allocator<LobbySelectPopup::setup()::$_1>, void (CCMenuItemSpriteExtra*)>::destroy_deallocate()
FUNC b8404 170 0 std::__ndk1::__function::__func<LobbySelectPopup::setup()::$_1, std::__ndk1::allocator<LobbySelectPopup::setup()::$_1>, void (CCMenuItemSpriteExtra*)>::operator()(CCMenuItemSpriteExtra*&&)
FUNC b8574 18 0 std::__ndk1::__function::__func<LobbySelectPopup::setup()::$_1, std::__ndk1::allocator<LobbySelectPopup::setup()::$_1>, void (CCMenuItemSpriteExtra*)>::target(std::type_info const&) const
FUNC b858c c 0 std::__ndk1::__function::__func<LobbySelectPopup::setup()::$_1, std::__ndk1::allocator<LobbySelectPopup::setup()::$_1>, void (CCMenuItemSpriteExtra*)>::target_type() const
FUNC b8598 4 0 std::__ndk1::__function::__func<LobbySelectPopup::setup()::$_1::operator()(cocos2d::CCObject*) const::{lambda(LobbySettings)#1}, std::__ndk1::allocator<LobbySelectPopup::setup()::$_1::operator()(cocos2d::CCObject*) const::{lambda(LobbySettings)#1}>, void (LobbySettings)>::~__func()
FUNC b859c 20 0 std::__ndk1::__function::__func<LobbySelectPopup::setup()::$_1::operator()(cocos2d::CCObject*) const::{lambda(LobbySettings)#1}, std::__ndk1::allocator<LobbySelectPopup::setup()::$_1::operator()(cocos2d::CCObject*) const::{lambda(LobbySettings)#1}>, void (LobbySettings)>::__clone() const
FUNC b85bc 14 0 std::__ndk1::__function::__func<LobbySelectPopup::setup()::$_1::operator()(cocos2d::CCObject*) const::{lambda(LobbySettings)#1}, std::__ndk1::allocator<LobbySelectPopup::setup()::$_1::operator()(cocos2d::CCObject*) const::{lambda(LobbySettings)#1}>, void (LobbySettings)>::__clone(std::__ndk1::__function::__base<void (LobbySettings)>*) const
FUNC b85d0 2 0 std::__ndk1::__function::__func<LobbySelectPopup::setup()::$_1::operator()(cocos2d::CCObject*) const::{lambda(LobbySettings)#1}, std::__ndk1::allocator<LobbySelectPopup::setup()::$_1::operator()(cocos2d::CCObject*) const::{lambda(LobbySettings)#1}>, void (LobbySettings)>::destroy()
FUNC b85d2 4 0 std::__ndk1::__function::__func<LobbySelectPopup::setup()::$_1::operator()(cocos2d::CCObject*) const::{lambda(LobbySettings)#1}, std::__ndk1::allocator<LobbySelectPopup::setup()::$_1::operator()(cocos2d::CCObject*) const::{lambda(LobbySettings)#1}>, void (LobbySettings)>::destroy_deallocate()
FUNC b85d8 20c 0 std::__ndk1::__function::__func<LobbySelectPopup::setup()::$_1::operator()(cocos2d::CCObject*) const::{lambda(LobbySettings)#1}, std::__ndk1::allocator<LobbySelectPopup::setup()::$_1::operator()(cocos2d::CCObject*) const::{lambda(LobbySettings)#1}>, void (LobbySettings)>::operator()(LobbySettings&&)
FUNC b87e4 18 0 std::__ndk1::__function::__func<LobbySelectPopup::setup()::$_1::operator()(cocos2d::CCObject*) const::{lambda(LobbySettings)#1}, std::__ndk1::allocator<LobbySelectPopup::setup()::$_1::operator()(cocos2d::CCObject*) const::{lambda(LobbySettings)#1}>, void (LobbySettings)>::target(std::type_info const&) const
FUNC b87fc c 0 std::__ndk1::__function::__func<LobbySelectPopup::setup()::$_1::operator()(cocos2d::CCObject*) const::{lambda(LobbySettings)#1}, std::__ndk1::allocator<LobbySelectPopup::setup()::$_1::operator()(cocos2d::CCObject*) const::{lambda(LobbySettings)#1}>, void (LobbySettings)>::target_type() const
FUNC b8808 4 0 std::__ndk1::__function::__func<LobbySelectPopup::setup()::$_1::operator()(cocos2d::CCObject*) const::{lambda(LobbySettings)#1}::operator()(LobbySettings) const::{lambda(std::__ndk1::basic_string<char, std::__ndk1::char_traits<char>, std::__ndk1::allocator<char> >)#1}, std::__ndk1::allocator<LobbySelectPopup::setup()::$_1::operator()(cocos2d::CCObject*) const::{lambda(LobbySettings)#1}::operator()(LobbySettings) const::{lambda(std::__ndk1::basic_string<char, std::__ndk1::char_traits<char>, std::__ndk1::allocator<char> >)#1}>, void (std::__ndk1::basic_string<char, std::__ndk1::char_traits<char>, std::__ndk1::allocator<char> >)>::~__func()
FUNC b880c 18 0 std::__ndk1::__function::__func<LobbySelectPopup::setup()::$_1::operator()(cocos2d::CCObject*) const::{lambda(LobbySettings)#1}::operator()(LobbySettings) const::{lambda(std::__ndk1::basic_string<char, std::__ndk1::char_traits<char>, std::__ndk1::allocator<char> >)#1}, std::__ndk1::allocator<LobbySelectPopup::setup()::$_1::operator()(cocos2d::CCObject*) const::{lambda(LobbySettings)#1}::operator()(LobbySettings) const::{lambda(std::__ndk1::basic_string<char, std::__ndk1::char_traits<char>, std::__ndk1::allocator<char> >)#1}>, void (std::__ndk1::basic_string<char, std::__ndk1::char_traits<char>, std::__ndk1::allocator<char> >)>::__clone() const
FUNC b8824 10 0 std::__ndk1::__function::__func<LobbySelectPopup::setup()::$_1::operator()(cocos2d::CCObject*) const::{lambda(LobbySettings)#1}::operator()(LobbySettings) const::{lambda(std::__ndk1::basic_string<char, std::__ndk1::char_traits<char>, std::__ndk1::allocator<char> >)#1}, std::__ndk1::allocator<LobbySelectPopup::setup()::$_1::operator()(cocos2d::CCObject*) const::{lambda(LobbySettings)#1}::operator()(LobbySettings) const::{lambda(std::__ndk1::basic_string<char, std::__ndk1::char_traits<char>, std::__ndk1::allocator<char> >)#1}>, void (std::__ndk1::basic_string<char, std::__ndk1::char_traits<char>, std::__ndk1::allocator<char> >)>::__clone(std::__ndk1::__function::__base<void (std::__ndk1::basic_string<char, std::__ndk1::char_traits<char>, std::__ndk1::allocator<char> >)>*) const
FUNC b8834 2 0 std::__ndk1::__function::__func<LobbySelectPopup::setup()::$_1::operator()(cocos2d::CCObject*) const::{lambda(LobbySettings)#1}::operator()(LobbySettings) const::{lambda(std::__ndk1::basic_string<char, std::__ndk1::char_traits<char>, std::__ndk1::allocator<char> >)#1}, std::__ndk1::allocator<LobbySelectPopup::setup()::$_1::operator()(cocos2d::CCObject*) const::{lambda(LobbySettings)#1}::operator()(LobbySettings) const::{lambda(std::__ndk1::basic_string<char, std::__ndk1::char_traits<char>, std::__ndk1::allocator<char> >)#1}>, void (std::__ndk1::basic_string<char, std::__ndk1::char_traits<char>, std::__ndk1::allocator<char> >)>::destroy()
FUNC b8836 4 0 std::__ndk1::__function::__func<LobbySelectPopup::setup()::$_1::operator()(cocos2d::CCObject*) const::{lambda(LobbySettings)#1}::operator()(LobbySettings) const::{lambda(std::__ndk1::basic_string<char, std::__ndk1::char_traits<char>, std::__ndk1::allocator<char> >)#1}, std::__ndk1::allocator<LobbySelectPopup::setup()::$_1::operator()(cocos2d::CCObject*) const::{lambda(LobbySettings)#1}::operator()(LobbySettings) const::{lambda(std::__ndk1::basic_string<char, std::__ndk1::char_traits<char>, std::__ndk1::allocator<char> >)#1}>, void (std::__ndk1::basic_string<char, std::__ndk1::char_traits<char>, std::__ndk1::allocator<char> >)>::destroy_deallocate()
FUNC b883c ec 0 std::__ndk1::__function::__func<LobbySelectPopup::setup()::$_1::operator()(cocos2d::CCObject*) const::{lambda(LobbySettings)#1}::operator()(LobbySettings) const::{lambda(std::__ndk1::basic_string<char, std::__ndk1::char_traits<char>, std::__ndk1::allocator<char> >)#1}, std::__ndk1::allocator<LobbySelectPopup::setup()::$_1::operator()(cocos2d::CCObject*) const::{lambda(LobbySettings)#1}::operator()(LobbySettings) const::{lambda(std::__ndk1::basic_string<char, std::__ndk1::char_traits<char>, std::__ndk1::allocator<char> >)#1}>, void (std::__ndk1::basic_string<char, std::__ndk1::char_traits<char>, std::__ndk1::allocator<char> >)>::operator()(std::__ndk1::basic_string<char, std::__ndk1::char_traits<char>, std::__ndk1::allocator<char> >&&)
FUNC b8928 18 0 std::__ndk1::__function::__func<LobbySelectPopup::setup()::$_1::operator()(cocos2d::CCObject*) const::{lambda(LobbySettings)#1}::operator()(LobbySettings) const::{lambda(std::__ndk1::basic_string<char, std::__ndk1::char_traits<char>, std::__ndk1::allocator<char> >)#1}, std::__ndk1::allocator<LobbySelectPopup::setup()::$_1::operator()(cocos2d::CCObject*) const::{lambda(LobbySettings)#1}::operator()(LobbySettings) const::{lambda(std::__ndk1::basic_string<char, std::__ndk1::char_traits<char>, std::__ndk1::allocator<char> >)#1}>, void (std::__ndk1::basic_string<char, std::__ndk1::char_traits<char>, std::__ndk1::allocator<char> >)>::target(std::type_info const&) const
FUNC b8940 c 0 std::__ndk1::__function::__func<LobbySelectPopup::setup()::$_1::operator()(cocos2d::CCObject*) const::{lambda(LobbySettings)#1}::operator()(LobbySettings) const::{lambda(std::__ndk1::basic_string<char, std::__ndk1::char_traits<char>, std::__ndk1::allocator<char> >)#1}, std::__ndk1::allocator<LobbySelectPopup::setup()::$_1::operator()(cocos2d::CCObject*) const::{lambda(LobbySettings)#1}::operator()(LobbySettings) const::{lambda(std::__ndk1::basic_string<char, std::__ndk1::char_traits<char>, std::__ndk1::allocator<char> >)#1}>, void (std::__ndk1::basic_string<char, std::__ndk1::char_traits<char>, std::__ndk1::allocator<char> >)>::target_type() const
FUNC b894c 4 0 std::__ndk1::__function::__func<LobbySelectPopup::setup()::$_2, std::__ndk1::allocator<LobbySelectPopup::setup()::$_2>, void (std::__ndk1::basic_string<char, std::__ndk1::char_traits<char>, std::__ndk1::allocator<char> >)>::~__func()
FUNC b8950 20 0 std::__ndk1::__function::__func<LobbySelectPopup::setup()::$_2, std::__ndk1::allocator<LobbySelectPopup::setup()::$_2>, void (std::__ndk1::basic_string<char, std::__ndk1::char_traits<char>, std::__ndk1::allocator<char> >)>::__clone() const
FUNC b8970 14 0 std::__ndk1::__function::__func<LobbySelectPopup::setup()::$_2, std::__ndk1::allocator<LobbySelectPopup::setup()::$_2>, void (std::__ndk1::basic_string<char, std::__ndk1::char_traits<char>, std::__ndk1::allocator<char> >)>::__clone(std::__ndk1::__function::__base<void (std::__ndk1::basic_string<char, std::__ndk1::char_traits<char>, std::__ndk1::allocator<char> >)>*) const
FUNC b8984 2 0 std::__ndk1::__function::__func<LobbySelectPopup::setup()::$_2, std::__ndk1::allocator<LobbySelectPopup::setup()::$_2>, void (std::__ndk1::basic_string<char, std::__ndk1::char_traits<char>, std::__ndk1::allocator<char> >)>::destroy()
FUNC b8986 4 0 std::__ndk1::__function::__func<LobbySelectPopup::setup()::$_2, std::__ndk1::allocator<LobbySelectPopup::setup()::$_2>, void (std::__ndk1::basic_string<char, std::__ndk1::char_traits<char>, std::__ndk1::allocator<char> >)>::destroy_deallocate()
FUNC b898a 16 0 std::__ndk1::__function::__func<LobbySelectPopup::setup()::$_2, std::__ndk1::allocator<LobbySelectPopup::setup()::$_2>, void (std::__ndk1::basic_string<char, std::__ndk1::char_traits<char>, std::__ndk1::allocator<char> >)>::operator()(std::__ndk1::basic_string<char, std::__ndk1::char_traits<char>, std::__ndk1::allocator<char> >&&)
FUNC b89a0 18 0 std::__ndk1::__function::__func<LobbySelectPopup::setup()::$_2, std::__ndk1::allocator<LobbySelectPopup::setup()::$_2>, void (std::__ndk1::basic_string<char, std::__ndk1::char_traits<char>, std::__ndk1::allocator<char> >)>::target(std::type_info const&) const
FUNC b89b8 c 0 std::__ndk1::__function::__func<LobbySelectPopup::setup()::$_2, std::__ndk1::allocator<LobbySelectPopup::setup()::$_2>, void (std::__ndk1::basic_string<char, std::__ndk1::char_traits<char>, std::__ndk1::allocator<char> >)>::target_type() const
FUNC b89c4 2 0 GetPublicLobbiesPacket::decode(std::__ndk1::basic_string<char, std::__ndk1::char_traits<char>, std::__ndk1::allocator<char> >)
FUNC b89c6 6 0 GetPublicLobbiesPacket::getPacketID() const
FUNC b89cc c 0 GetPublicLobbiesPacket::getPacketName() const
FUNC b89d8 34 0 std::__ndk1::__function::__func<NetworkManager::send<GetPublicLobbiesPacket>(GetPublicLobbiesPacket*, std::__ndk1::function<void ()>)::{lambda(int, int)#1}, std::__ndk1::allocator<NetworkManager::send<GetPublicLobbiesPacket>(GetPublicLobbiesPacket*, std::__ndk1::function<void ()>)::{lambda(int, int)#1}>, bool (int, int)>::~__func()
FUNC b8a0c 38 0 std::__ndk1::__function::__func<NetworkManager::send<GetPublicLobbiesPacket>(GetPublicLobbiesPacket*, std::__ndk1::function<void ()>)::{lambda(int, int)#1}, std::__ndk1::allocator<NetworkManager::send<GetPublicLobbiesPacket>(GetPublicLobbiesPacket*, std::__ndk1::function<void ()>)::{lambda(int, int)#1}>, bool (int, int)>::~__func()
FUNC b8a44 54 0 std::__ndk1::__function::__func<NetworkManager::send<GetPublicLobbiesPacket>(GetPublicLobbiesPacket*, std::__ndk1::function<void ()>)::{lambda(int, int)#1}, std::__ndk1::allocator<NetworkManager::send<GetPublicLobbiesPacket>(GetPublicLobbiesPacket*, std::__ndk1::function<void ()>)::{lambda(int, int)#1}>, bool (int, int)>::__clone() const
FUNC b8a98 44 0 std::__ndk1::__function::__func<NetworkManager::send<GetPublicLobbiesPacket>(GetPublicLobbiesPacket*, std::__ndk1::function<void ()>)::{lambda(int, int)#1}, std::__ndk1::allocator<NetworkManager::send<GetPublicLobbiesPacket>(GetPublicLobbiesPacket*, std::__ndk1::function<void ()>)::{lambda(int, int)#1}>, bool (int, int)>::__clone(std::__ndk1::__function::__base<bool (int, int)>*) const
FUNC b8adc 1e 0 std::__ndk1::__function::__func<NetworkManager::send<GetPublicLobbiesPacket>(GetPublicLobbiesPacket*, std::__ndk1::function<void ()>)::{lambda(int, int)#1}, std::__ndk1::allocator<NetworkManager::send<GetPublicLobbiesPacket>(GetPublicLobbiesPacket*, std::__ndk1::function<void ()>)::{lambda(int, int)#1}>, bool (int, int)>::destroy()
FUNC b8afa 2a 0 std::__ndk1::__function::__func<NetworkManager::send<GetPublicLobbiesPacket>(GetPublicLobbiesPacket*, std::__ndk1::function<void ()>)::{lambda(int, int)#1}, std::__ndk1::allocator<NetworkManager::send<GetPublicLobbiesPacket>(GetPublicLobbiesPacket*, std::__ndk1::function<void ()>)::{lambda(int, int)#1}>, bool (int, int)>::destroy_deallocate()
FUNC b8b24 140 0 std::__ndk1::__function::__func<NetworkManager::send<GetPublicLobbiesPacket>(GetPublicLobbiesPacket*, std::__ndk1::function<void ()>)::{lambda(int, int)#1}, std::__ndk1::allocator<NetworkManager::send<GetPublicLobbiesPacket>(GetPublicLobbiesPacket*, std::__ndk1::function<void ()>)::{lambda(int, int)#1}>, bool (int, int)>::operator()(int&&, int&&)
FUNC b8c64 18 0 std::__ndk1::__function::__func<NetworkManager::send<GetPublicLobbiesPacket>(GetPublicLobbiesPacket*, std::__ndk1::function<void ()>)::{lambda(int, int)#1}, std::__ndk1::allocator<NetworkManager::send<GetPublicLobbiesPacket>(GetPublicLobbiesPacket*, std::__ndk1::function<void ()>)::{lambda(int, int)#1}>, bool (int, int)>::target(std::type_info const&) const
FUNC b8c7c c 0 std::__ndk1::__function::__func<NetworkManager::send<GetPublicLobbiesPacket>(GetPublicLobbiesPacket*, std::__ndk1::function<void ()>)::{lambda(int, int)#1}, std::__ndk1::allocator<NetworkManager::send<GetPublicLobbiesPacket>(GetPublicLobbiesPacket*, std::__ndk1::function<void ()>)::{lambda(int, int)#1}>, bool (int, int)>::target_type() const
FUNC b8c88 34 0 std::__ndk1::__function::__func<NetworkManager::send<GetPublicLobbiesPacket>(GetPublicLobbiesPacket*, std::__ndk1::function<void ()>)::{lambda(int, int)#1}::operator()(int, int) const::{lambda()#1}, std::__ndk1::allocator<NetworkManager::send<GetPublicLobbiesPacket>(GetPublicLobbiesPacket*, std::__ndk1::function<void ()>)::{lambda(int, int)#1}::operator()(int, int) const::{lambda()#1}>, void ()>::~__func()
FUNC b8cbc 38 0 std::__ndk1::__function::__func<NetworkManager::send<GetPublicLobbiesPacket>(GetPublicLobbiesPacket*, std::__ndk1::function<void ()>)::{lambda(int, int)#1}::operator()(int, int) const::{lambda()#1}, std::__ndk1::allocator<NetworkManager::send<GetPublicLobbiesPacket>(GetPublicLobbiesPacket*, std::__ndk1::function<void ()>)::{lambda(int, int)#1}::operator()(int, int) const::{lambda()#1}>, void ()>::~__func()
FUNC b8cf4 54 0 std::__ndk1::__function::__func<NetworkManager::send<GetPublicLobbiesPacket>(GetPublicLobbiesPacket*, std::__ndk1::function<void ()>)::{lambda(int, int)#1}::operator()(int, int) const::{lambda()#1}, std::__ndk1::allocator<NetworkManager::send<GetPublicLobbiesPacket>(GetPublicLobbiesPacket*, std::__ndk1::function<void ()>)::{lambda(int, int)#1}::operator()(int, int) const::{lambda()#1}>, void ()>::__clone() const
FUNC b8d48 44 0 std::__ndk1::__function::__func<NetworkManager::send<GetPublicLobbiesPacket>(GetPublicLobbiesPacket*, std::__ndk1::function<void ()>)::{lambda(int, int)#1}::operator()(int, int) const::{lambda()#1}, std::__ndk1::allocator<NetworkManager::send<GetPublicLobbiesPacket>(GetPublicLobbiesPacket*, std::__ndk1::function<void ()>)::{lambda(int, int)#1}::operator()(int, int) const::{lambda()#1}>, void ()>::__clone(std::__ndk1::__function::__base<void ()>*) const
FUNC b8d8c 1e 0 std::__ndk1::__function::__func<NetworkManager::send<GetPublicLobbiesPacket>(GetPublicLobbiesPacket*, std::__ndk1::function<void ()>)::{lambda(int, int)#1}::operator()(int, int) const::{lambda()#1}, std::__ndk1::allocator<NetworkManager::send<GetPublicLobbiesPacket>(GetPublicLobbiesPacket*, std::__ndk1::function<void ()>)::{lambda(int, int)#1}::operator()(int, int) const::{lambda()#1}>, void ()>::destroy()
FUNC b8daa 2a 0 std::__ndk1::__function::__func<NetworkManager::send<GetPublicLobbiesPacket>(GetPublicLobbiesPacket*, std::__ndk1::function<void ()>)::{lambda(int, int)#1}::operator()(int, int) const::{lambda()#1}, std::__ndk1::allocator<NetworkManager::send<GetPublicLobbiesPacket>(GetPublicLobbiesPacket*, std::__ndk1::function<void ()>)::{lambda(int, int)#1}::operator()(int, int) const::{lambda()#1}>, void ()>::destroy_deallocate()
FUNC b8dd4 12 0 std::__ndk1::__function::__func<NetworkManager::send<GetPublicLobbiesPacket>(GetPublicLobbiesPacket*, std::__ndk1::function<void ()>)::{lambda(int, int)#1}::operator()(int, int) const::{lambda()#1}, std::__ndk1::allocator<NetworkManager::send<GetPublicLobbiesPacket>(GetPublicLobbiesPacket*, std::__ndk1::function<void ()>)::{lambda(int, int)#1}::operator()(int, int) const::{lambda()#1}>, void ()>::operator()()
FUNC b8de8 18 0 std::__ndk1::__function::__func<NetworkManager::send<GetPublicLobbiesPacket>(GetPublicLobbiesPacket*, std::__ndk1::function<void ()>)::{lambda(int, int)#1}::operator()(int, int) const::{lambda()#1}, std::__ndk1::allocator<NetworkManager::send<GetPublicLobbiesPacket>(GetPublicLobbiesPacket*, std::__ndk1::function<void ()>)::{lambda(int, int)#1}::operator()(int, int) const::{lambda()#1}>, void ()>::target(std::type_info const&) const
FUNC b8e00 c 0 std::__ndk1::__function::__func<NetworkManager::send<GetPublicLobbiesPacket>(GetPublicLobbiesPacket*, std::__ndk1::function<void ()>)::{lambda(int, int)#1}::operator()(int, int) const::{lambda()#1}, std::__ndk1::allocator<NetworkManager::send<GetPublicLobbiesPacket>(GetPublicLobbiesPacket*, std::__ndk1::function<void ()>)::{lambda(int, int)#1}::operator()(int, int) const::{lambda()#1}>, void ()>::target_type() const
FUNC b8e0c 34 0 _ZNSt6__ndk110__function6__funcIZN14NetworkManager2onI26ReceivePublicLobbiesPacketQsr3stdE12is_base_of_vI6PacketT_EEEvNS_8functionIFvPS6_EEEbEUlNS_12basic_stringIcNS_11char_traitsIcEENS_9allocatorIcEEEEE_NSE_ISH_EEFvSG_EED2Ev
FUNC b8e40 38 0 _ZNSt6__ndk110__function6__funcIZN14NetworkManager2onI26ReceivePublicLobbiesPacketQsr3stdE12is_base_of_vI6PacketT_EEEvNS_8functionIFvPS6_EEEbEUlNS_12basic_stringIcNS_11char_traitsIcEENS_9allocatorIcEEEEE_NSE_ISH_EEFvSG_EED0Ev
FUNC b8e78 54 0 _ZNKSt6__ndk110__function6__funcIZN14NetworkManager2onI26ReceivePublicLobbiesPacketQsr3stdE12is_base_of_vI6PacketT_EEEvNS_8functionIFvPS6_EEEbEUlNS_12basic_stringIcNS_11char_traitsIcEENS_9allocatorIcEEEEE_NSE_ISH_EEFvSG_EE7__cloneEv
FUNC b8ecc 44 0 _ZNKSt6__ndk110__function6__funcIZN14NetworkManager2onI26ReceivePublicLobbiesPacketQsr3stdE12is_base_of_vI6PacketT_EEEvNS_8functionIFvPS6_EEEbEUlNS_12basic_stringIcNS_11char_traitsIcEENS_9allocatorIcEEEEE_NSE_ISH_EEFvSG_EE7__cloneEPNS0_6__baseISJ_EE
FUNC b8f10 1e 0 _ZNSt6__ndk110__function6__funcIZN14NetworkManager2onI26ReceivePublicLobbiesPacketQsr3stdE12is_base_of_vI6PacketT_EEEvNS_8functionIFvPS6_EEEbEUlNS_12basic_stringIcNS_11char_traitsIcEENS_9allocatorIcEEEEE_NSE_ISH_EEFvSG_EE7destroyEv
FUNC b8f2e 2a 0 _ZNSt6__ndk110__function6__funcIZN14NetworkManager2onI26ReceivePublicLobbiesPacketQsr3stdE12is_base_of_vI6PacketT_EEEvNS_8functionIFvPS6_EEEbEUlNS_12basic_stringIcNS_11char_traitsIcEENS_9allocatorIcEEEEE_NSE_ISH_EEFvSG_EE18destroy_deallocateEv
FUNC b8f58 34c 0 _ZNSt6__ndk110__function6__funcIZN14NetworkManager2onI26ReceivePublicLobbiesPacketQsr3stdE12is_base_of_vI6PacketT_EEEvNS_8functionIFvPS6_EEEbEUlNS_12basic_stringIcNS_11char_traitsIcEENS_9allocatorIcEEEEE_NSE_ISH_EEFvSG_EEclEOSG_
FUNC b92a4 18 0 _ZNKSt6__ndk110__function6__funcIZN14NetworkManager2onI26ReceivePublicLobbiesPacketQsr3stdE12is_base_of_vI6PacketT_EEEvNS_8functionIFvPS6_EEEbEUlNS_12basic_stringIcNS_11char_traitsIcEENS_9allocatorIcEEEEE_NSE_ISH_EEFvSG_EE6targetERKSt9type_info
FUNC b92bc c 0 _ZNKSt6__ndk110__function6__funcIZN14NetworkManager2onI26ReceivePublicLobbiesPacketQsr3stdE12is_base_of_vI6PacketT_EEEvNS_8functionIFvPS6_EEEbEUlNS_12basic_stringIcNS_11char_traitsIcEENS_9allocatorIcEEEEE_NSE_ISH_EEFvSG_EE11target_typeEv
FUNC b92c8 2 0 ReceivePublicLobbiesPacket::decode(std::__ndk1::basic_string<char, std::__ndk1::char_traits<char>, std::__ndk1::allocator<char> >)
FUNC b92ca 6 0 ReceivePublicLobbiesPacket::getPacketID() const
FUNC b92d0 c 0 ReceivePublicLobbiesPacket::getPacketName() const
FUNC b92dc 10 0 std::__ndk1::vector<LobbyInfo, std::__ndk1::allocator<LobbyInfo> >::__throw_length_error[abi:ne180000]() const
FUNC b92ec 34 0 _ZNSt6__ndk110__function6__funcIZZN14NetworkManager2onI26ReceivePublicLobbiesPacketQsr3stdE12is_base_of_vI6PacketT_EEEvNS_8functionIFvPS6_EEEbENKUlNS_12basic_stringIcNS_11char_traitsIcEENS_9allocatorIcEEEEE_clESG_EUlvE_NSE_ISI_EEFvvEED2Ev
FUNC b9320 38 0 _ZNSt6__ndk110__function6__funcIZZN14NetworkManager2onI26ReceivePublicLobbiesPacketQsr3stdE12is_base_of_vI6PacketT_EEEvNS_8functionIFvPS6_EEEbENKUlNS_12basic_stringIcNS_11char_traitsIcEENS_9allocatorIcEEEEE_clESG_EUlvE_NSE_ISI_EEFvvEED0Ev
FUNC b9358 54 0 _ZNKSt6__ndk110__function6__funcIZZN14NetworkManager2onI26ReceivePublicLobbiesPacketQsr3stdE12is_base_of_vI6PacketT_EEEvNS_8functionIFvPS6_EEEbENKUlNS_12basic_stringIcNS_11char_traitsIcEENS_9allocatorIcEEEEE_clESG_EUlvE_NSE_ISI_EEFvvEE7__cloneEv
FUNC b93ac 44 0 _ZNKSt6__ndk110__function6__funcIZZN14NetworkManager2onI26ReceivePublicLobbiesPacketQsr3stdE12is_base_of_vI6PacketT_EEEvNS_8functionIFvPS6_EEEbENKUlNS_12basic_stringIcNS_11char_traitsIcEENS_9allocatorIcEEEEE_clESG_EUlvE_NSE_ISI_EEFvvEE7__cloneEPNS0_6__baseISK_EE
FUNC b93f0 1e 0 _ZNSt6__ndk110__function6__funcIZZN14NetworkManager2onI26ReceivePublicLobbiesPacketQsr3stdE12is_base_of_vI6PacketT_EEEvNS_8functionIFvPS6_EEEbENKUlNS_12basic_stringIcNS_11char_traitsIcEENS_9allocatorIcEEEEE_clESG_EUlvE_NSE_ISI_EEFvvEE7destroyEv
FUNC b940e 2a 0 _ZNSt6__ndk110__function6__funcIZZN14NetworkManager2onI26ReceivePublicLobbiesPacketQsr3stdE12is_base_of_vI6PacketT_EEEvNS_8functionIFvPS6_EEEbENKUlNS_12basic_stringIcNS_11char_traitsIcEENS_9allocatorIcEEEEE_clESG_EUlvE_NSE_ISI_EEFvvEE18destroy_deallocateEv
FUNC b9438 44 0 _ZNSt6__ndk110__function6__funcIZZN14NetworkManager2onI26ReceivePublicLobbiesPacketQsr3stdE12is_base_of_vI6PacketT_EEEvNS_8functionIFvPS6_EEEbENKUlNS_12basic_stringIcNS_11char_traitsIcEENS_9allocatorIcEEEEE_clESG_EUlvE_NSE_ISI_EEFvvEEclEv
FUNC b947c 18 0 _ZNKSt6__ndk110__function6__funcIZZN14NetworkManager2onI26ReceivePublicLobbiesPacketQsr3stdE12is_base_of_vI6PacketT_EEEvNS_8functionIFvPS6_EEEbENKUlNS_12basic_stringIcNS_11char_traitsIcEENS_9allocatorIcEEEEE_clESG_EUlvE_NSE_ISI_EEFvvEE6targetERKSt9type_info
FUNC b9494 c 0 _ZNKSt6__ndk110__function6__funcIZZN14NetworkManager2onI26ReceivePublicLobbiesPacketQsr3stdE12is_base_of_vI6PacketT_EEEvNS_8functionIFvPS6_EEEbENKUlNS_12basic_stringIcNS_11char_traitsIcEENS_9allocatorIcEEEEE_clESG_EUlvE_NSE_ISI_EEFvvEE11target_typeEv
FUNC b94a0 2 0 std::__ndk1::__function::__base<void (ReceivePublicLobbiesPacket*)>::~__base()
FUNC b94a2 4 0 std::__ndk1::__function::__func<LobbySelectPopup::refresh(bool)::$_0, std::__ndk1::allocator<LobbySelectPopup::refresh(bool)::$_0>, void (ReceivePublicLobbiesPacket*)>::~__func()
FUNC b94a8 20 0 std::__ndk1::__function::__func<LobbySelectPopup::refresh(bool)::$_0, std::__ndk1::allocator<LobbySelectPopup::refresh(bool)::$_0>, void (ReceivePublicLobbiesPacket*)>::__clone() const
FUNC b94c8 18 0 std::__ndk1::__function::__func<LobbySelectPopup::refresh(bool)::$_0, std::__ndk1::allocator<LobbySelectPopup::refresh(bool)::$_0>, void (ReceivePublicLobbiesPacket*)>::__clone(std::__ndk1::__function::__base<void (ReceivePublicLobbiesPacket*)>*) const
FUNC b94e0 2 0 std::__ndk1::__function::__func<LobbySelectPopup::refresh(bool)::$_0, std::__ndk1::allocator<LobbySelectPopup::refresh(bool)::$_0>, void (ReceivePublicLobbiesPacket*)>::destroy()
FUNC b94e2 4 0 std::__ndk1::__function::__func<LobbySelectPopup::refresh(bool)::$_0, std::__ndk1::allocator<LobbySelectPopup::refresh(bool)::$_0>, void (ReceivePublicLobbiesPacket*)>::destroy_deallocate()
FUNC b94e8 7e4 0 std::__ndk1::__function::__func<LobbySelectPopup::refresh(bool)::$_0, std::__ndk1::allocator<LobbySelectPopup::refresh(bool)::$_0>, void (ReceivePublicLobbiesPacket*)>::operator()(ReceivePublicLobbiesPacket*&&)
FUNC b9ccc 18 0 std::__ndk1::__function::__func<LobbySelectPopup::refresh(bool)::$_0, std::__ndk1::allocator<LobbySelectPopup::refresh(bool)::$_0>, void (ReceivePublicLobbiesPacket*)>::target(std::type_info const&) const
FUNC b9ce4 c 0 std::__ndk1::__function::__func<LobbySelectPopup::refresh(bool)::$_0, std::__ndk1::allocator<LobbySelectPopup::refresh(bool)::$_0>, void (ReceivePublicLobbiesPacket*)>::target_type() const
FUNC b9cf0 10 0 LobbyItem::~LobbyItem()
FUNC b9d00 8 0 {virtual override thunk({offset(-264)}, LobbyItem::~LobbyItem())}
FUNC b9d08 14 0 {virtual override thunk({offset(-264)}, LobbyItem::~LobbyItem())}
FUNC b9d1c 7e 0 LobbyItem::init(float, LobbyInfo, std::__ndk1::function<void ()>)::{lambda(cocos2d::CCObject*)#1}::~{lambda(cocos2d::CCObject*)#1}()
FUNC b9d9c 20 0 std::__ndk1::__function::__func<LobbyItem::init(float, LobbyInfo, std::__ndk1::function<void ()>)::{lambda(cocos2d::CCObject*)#1}, std::__ndk1::allocator<LobbyItem::init(float, LobbyInfo, std::__ndk1::function<void ()>)::{lambda(cocos2d::CCObject*)#1}>, void (CCMenuItemSpriteExtra*)>::~__func()
FUNC b9dbc 28 0 std::__ndk1::__function::__func<LobbyItem::init(float, LobbyInfo, std::__ndk1::function<void ()>)::{lambda(cocos2d::CCObject*)#1}, std::__ndk1::allocator<LobbyItem::init(float, LobbyInfo, std::__ndk1::function<void ()>)::{lambda(cocos2d::CCObject*)#1}>, void (CCMenuItemSpriteExtra*)>::~__func()
FUNC b9de4 6c 0 std::__ndk1::__function::__func<LobbyItem::init(float, LobbyInfo, std::__ndk1::function<void ()>)::{lambda(cocos2d::CCObject*)#1}, std::__ndk1::allocator<LobbyItem::init(float, LobbyInfo, std::__ndk1::function<void ()>)::{lambda(cocos2d::CCObject*)#1}>, void (CCMenuItemSpriteExtra*)>::__clone() const
FUNC b9e50 64 0 std::__ndk1::__function::__func<LobbyItem::init(float, LobbyInfo, std::__ndk1::function<void ()>)::{lambda(cocos2d::CCObject*)#1}, std::__ndk1::allocator<LobbyItem::init(float, LobbyInfo, std::__ndk1::function<void ()>)::{lambda(cocos2d::CCObject*)#1}>, void (CCMenuItemSpriteExtra*)>::__clone(std::__ndk1::__function::__base<void (CCMenuItemSpriteExtra*)>*) const
FUNC b9eb4 6 0 std::__ndk1::__function::__func<LobbyItem::init(float, LobbyInfo, std::__ndk1::function<void ()>)::{lambda(cocos2d::CCObject*)#1}, std::__ndk1::allocator<LobbyItem::init(float, LobbyInfo, std::__ndk1::function<void ()>)::{lambda(cocos2d::CCObject*)#1}>, void (CCMenuItemSpriteExtra*)>::destroy()
FUNC b9eba 16 0 std::__ndk1::__function::__func<LobbyItem::init(float, LobbyInfo, std::__ndk1::function<void ()>)::{lambda(cocos2d::CCObject*)#1}, std::__ndk1::allocator<LobbyItem::init(float, LobbyInfo, std::__ndk1::function<void ()>)::{lambda(cocos2d::CCObject*)#1}>, void (CCMenuItemSpriteExtra*)>::destroy_deallocate()
FUNC b9ed0 2a8 0 std::__ndk1::__function::__func<LobbyItem::init(float, LobbyInfo, std::__ndk1::function<void ()>)::{lambda(cocos2d::CCObject*)#1}, std::__ndk1::allocator<LobbyItem::init(float, LobbyInfo, std::__ndk1::function<void ()>)::{lambda(cocos2d::CCObject*)#1}>, void (CCMenuItemSpriteExtra*)>::operator()(CCMenuItemSpriteExtra*&&)
FUNC ba178 18 0 std::__ndk1::__function::__func<LobbyItem::init(float, LobbyInfo, std::__ndk1::function<void ()>)::{lambda(cocos2d::CCObject*)#1}, std::__ndk1::allocator<LobbyItem::init(float, LobbyInfo, std::__ndk1::function<void ()>)::{lambda(cocos2d::CCObject*)#1}>, void (CCMenuItemSpriteExtra*)>::target(std::type_info const&) const
FUNC ba190 c 0 std::__ndk1::__function::__func<LobbyItem::init(float, LobbyInfo, std::__ndk1::function<void ()>)::{lambda(cocos2d::CCObject*)#1}, std::__ndk1::allocator<LobbyItem::init(float, LobbyInfo, std::__ndk1::function<void ()>)::{lambda(cocos2d::CCObject*)#1}>, void (CCMenuItemSpriteExtra*)>::target_type() const
FUNC ba19c 7e 0 LobbyItem::init(float, LobbyInfo, std::__ndk1::function<void ()>)::{lambda(cocos2d::CCObject*)#1}::operator()(cocos2d::CCObject*) const::{lambda()#1}::~{lambda()#1}()
FUNC ba21c 20 0 std::__ndk1::__function::__func<LobbyItem::init(float, LobbyInfo, std::__ndk1::function<void ()>)::{lambda(cocos2d::CCObject*)#1}::operator()(cocos2d::CCObject*) const::{lambda()#1}, std::__ndk1::allocator<LobbyItem::init(float, LobbyInfo, std::__ndk1::function<void ()>)::{lambda(cocos2d::CCObject*)#1}::operator()(cocos2d::CCObject*) const::{lambda()#1}>, void ()>::~__func()
FUNC ba23c 28 0 std::__ndk1::__function::__func<LobbyItem::init(float, LobbyInfo, std::__ndk1::function<void ()>)::{lambda(cocos2d::CCObject*)#1}::operator()(cocos2d::CCObject*) const::{lambda()#1}, std::__ndk1::allocator<LobbyItem::init(float, LobbyInfo, std::__ndk1::function<void ()>)::{lambda(cocos2d::CCObject*)#1}::operator()(cocos2d::CCObject*) const::{lambda()#1}>, void ()>::~__func()
FUNC ba264 6c 0 std::__ndk1::__function::__func<LobbyItem::init(float, LobbyInfo, std::__ndk1::function<void ()>)::{lambda(cocos2d::CCObject*)#1}::operator()(cocos2d::CCObject*) const::{lambda()#1}, std::__ndk1::allocator<LobbyItem::init(float, LobbyInfo, std::__ndk1::function<void ()>)::{lambda(cocos2d::CCObject*)#1}::operator()(cocos2d::CCObject*) const::{lambda()#1}>, void ()>::__clone() const
FUNC ba2d0 64 0 std::__ndk1::__function::__func<LobbyItem::init(float, LobbyInfo, std::__ndk1::function<void ()>)::{lambda(cocos2d::CCObject*)#1}::operator()(cocos2d::CCObject*) const::{lambda()#1}, std::__ndk1::allocator<LobbyItem::init(float, LobbyInfo, std::__ndk1::function<void ()>)::{lambda(cocos2d::CCObject*)#1}::operator()(cocos2d::CCObject*) const::{lambda()#1}>, void ()>::__clone(std::__ndk1::__function::__base<void ()>*) const
FUNC ba334 6 0 std::__ndk1::__function::__func<LobbyItem::init(float, LobbyInfo, std::__ndk1::function<void ()>)::{lambda(cocos2d::CCObject*)#1}::operator()(cocos2d::CCObject*) const::{lambda()#1}, std::__ndk1::allocator<LobbyItem::init(float, LobbyInfo, std::__ndk1::function<void ()>)::{lambda(cocos2d::CCObject*)#1}::operator()(cocos2d::CCObject*) const::{lambda()#1}>, void ()>::destroy()
FUNC ba33a 16 0 std::__ndk1::__function::__func<LobbyItem::init(float, LobbyInfo, std::__ndk1::function<void ()>)::{lambda(cocos2d::CCObject*)#1}::operator()(cocos2d::CCObject*) const::{lambda()#1}, std::__ndk1::allocator<LobbyItem::init(float, LobbyInfo, std::__ndk1::function<void ()>)::{lambda(cocos2d::CCObject*)#1}::operator()(cocos2d::CCObject*) const::{lambda()#1}>, void ()>::destroy_deallocate()
FUNC ba350 bc 0 std::__ndk1::__function::__func<LobbyItem::init(float, LobbyInfo, std::__ndk1::function<void ()>)::{lambda(cocos2d::CCObject*)#1}::operator()(cocos2d::CCObject*) const::{lambda()#1}, std::__ndk1::allocator<LobbyItem::init(float, LobbyInfo, std::__ndk1::function<void ()>)::{lambda(cocos2d::CCObject*)#1}::operator()(cocos2d::CCObject*) const::{lambda()#1}>, void ()>::operator()()
FUNC ba40c 18 0 std::__ndk1::__function::__func<LobbyItem::init(float, LobbyInfo, std::__ndk1::function<void ()>)::{lambda(cocos2d::CCObject*)#1}::operator()(cocos2d::CCObject*) const::{lambda()#1}, std::__ndk1::allocator<LobbyItem::init(float, LobbyInfo, std::__ndk1::function<void ()>)::{lambda(cocos2d::CCObject*)#1}::operator()(cocos2d::CCObject*) const::{lambda()#1}>, void ()>::target(std::type_info const&) const
FUNC ba424 c 0 std::__ndk1::__function::__func<LobbyItem::init(float, LobbyInfo, std::__ndk1::function<void ()>)::{lambda(cocos2d::CCObject*)#1}::operator()(cocos2d::CCObject*) const::{lambda()#1}, std::__ndk1::allocator<LobbyItem::init(float, LobbyInfo, std::__ndk1::function<void ()>)::{lambda(cocos2d::CCObject*)#1}::operator()(cocos2d::CCObject*) const::{lambda()#1}>, void ()>::target_type() const
FUNC ba430 4 0 std::__ndk1::__function::__func<LobbySelectPopup::refresh(bool)::$_0::operator()(ReceivePublicLobbiesPacket*) const::{lambda()#1}, std::__ndk1::allocator<LobbySelectPopup::refresh(bool)::$_0::operator()(ReceivePublicLobbiesPacket*) const::{lambda()#1}>, void ()>::~__func()
FUNC ba434 20 0 std::__ndk1::__function::__func<LobbySelectPopup::refresh(bool)::$_0::operator()(ReceivePublicLobbiesPacket*) const::{lambda()#1}, std::__ndk1::allocator<LobbySelectPopup::refresh(bool)::$_0::operator()(ReceivePublicLobbiesPacket*) const::{lambda()#1}>, void ()>::__clone() const
FUNC ba454 14 0 std::__ndk1::__function::__func<LobbySelectPopup::refresh(bool)::$_0::operator()(ReceivePublicLobbiesPacket*) const::{lambda()#1}, std::__ndk1::allocator<LobbySelectPopup::refresh(bool)::$_0::operator()(ReceivePublicLobbiesPacket*) const::{lambda()#1}>, void ()>::__clone(std::__ndk1::__function::__base<void ()>*) const
FUNC ba468 2 0 std::__ndk1::__function::__func<LobbySelectPopup::refresh(bool)::$_0::operator()(ReceivePublicLobbiesPacket*) const::{lambda()#1}, std::__ndk1::allocator<LobbySelectPopup::refresh(bool)::$_0::operator()(ReceivePublicLobbiesPacket*) const::{lambda()#1}>, void ()>::destroy()
FUNC ba46a 4 0 std::__ndk1::__function::__func<LobbySelectPopup::refresh(bool)::$_0::operator()(ReceivePublicLobbiesPacket*) const::{lambda()#1}, std::__ndk1::allocator<LobbySelectPopup::refresh(bool)::$_0::operator()(ReceivePublicLobbiesPacket*) const::{lambda()#1}>, void ()>::destroy_deallocate()
FUNC ba46e e 0 std::__ndk1::__function::__func<LobbySelectPopup::refresh(bool)::$_0::operator()(ReceivePublicLobbiesPacket*) const::{lambda()#1}, std::__ndk1::allocator<LobbySelectPopup::refresh(bool)::$_0::operator()(ReceivePublicLobbiesPacket*) const::{lambda()#1}>, void ()>::operator()()
FUNC ba47c 18 0 std::__ndk1::__function::__func<LobbySelectPopup::refresh(bool)::$_0::operator()(ReceivePublicLobbiesPacket*) const::{lambda()#1}, std::__ndk1::allocator<LobbySelectPopup::refresh(bool)::$_0::operator()(ReceivePublicLobbiesPacket*) const::{lambda()#1}>, void ()>::target(std::type_info const&) const
FUNC ba494 c 0 std::__ndk1::__function::__func<LobbySelectPopup::refresh(bool)::$_0::operator()(ReceivePublicLobbiesPacket*) const::{lambda()#1}, std::__ndk1::allocator<LobbySelectPopup::refresh(bool)::$_0::operator()(ReceivePublicLobbiesPacket*) const::{lambda()#1}>, void ()>::target_type() const
FUNC ba4a0 68 0 _GLOBAL__sub_I_LobbySelectPopup.cpp
FUNC ba510 580 0 LobbySettingsPopup::create(LobbySettings, std::__ndk1::function<void (LobbySettings)>)
FUNC baa90 698 0 LobbySettingsPopup::setup(LobbySettings, std::__ndk1::function<void (LobbySettings)>)
FUNC bb128 7b0 0 LobbySettingsCell::create(float, std::__ndk1::basic_string<char, std::__ndk1::char_traits<char>, std::__ndk1::allocator<char> >, LobbySettingType, std::__ndk1::basic_string<char, std::__ndk1::char_traits<char>, std::__ndk1::allocator<char> >, std::__ndk1::basic_string<char, std::__ndk1::char_traits<char>, std::__ndk1::allocator<char> >, std::__ndk1::basic_string<char, std::__ndk1::char_traits<char>, std::__ndk1::allocator<char> >)
FUNC bb8d8 5c 0 geode::Popup<LobbySettings, std::__ndk1::function<void (LobbySettings)> >::~Popup()
FUNC bb934 60 0 LobbySettingsPopup::~LobbySettingsPopup()
FUNC bb994 20 0 geode::Popup<LobbySettings, std::__ndk1::function<void (LobbySettings)> >::registerWithTouchDispatcher()
FUNC bb9b4 18 0 geode::Popup<LobbySettings, std::__ndk1::function<void (LobbySettings)> >::keyDown(cocos2d::enumKeyCodes)
FUNC bb9cc e4 0 geode::Popup<LobbySettings, std::__ndk1::function<void (LobbySettings)> >::onClose(cocos2d::CCObject*)
FUNC bbab0 60 0 {virtual override thunk({offset(-264)}, LobbySettingsPopup::~LobbySettingsPopup())}
FUNC bbb10 64 0 {virtual override thunk({offset(-264)}, LobbySettingsPopup::~LobbySettingsPopup())}
FUNC bbb74 1c 0 {virtual override thunk({offset(-276)}, geode::Popup<LobbySettings, std::__ndk1::function<void (LobbySettings)> >::keyDown(cocos2d::enumKeyCodes))}
FUNC bbb90 2 0 geode::Popup<LobbySettings, std::__ndk1::function<void (LobbySettings)> >::~Popup()
FUNC bbb94 60 0 {virtual override thunk({offset(-264)}, geode::Popup<LobbySettings, std::__ndk1::function<void (LobbySettings)> >::~Popup())}
FUNC bbbf4 2 0 {virtual override thunk({offset(-264)}, geode::Popup<LobbySettings, std::__ndk1::function<void (LobbySettings)> >::~Popup())}
FUNC bbbf6 10 0 LobbySettingsCell::~LobbySettingsCell()
FUNC bbc08 40 0 geode::cocos::CCMenuItemExt::LambdaCallback<CCMenuItemToggler>::execute(cocos2d::CCNode*)
FUNC bbc48 38 0 geode::cocos::CCMenuItemExt::LambdaCallback<CCMenuItemToggler>::~LambdaCallback()
FUNC bbc80 3c 0 geode::cocos::CCMenuItemExt::LambdaCallback<CCMenuItemToggler>::~LambdaCallback()
FUNC bbcbc 2 0 std::__ndk1::__function::__base<void (CCMenuItemToggler*)>::~__base()
FUNC bbcbe 4 0 std::__ndk1::__function::__func<LobbySettingsCell::init(float, std::__ndk1::basic_string<char, std::__ndk1::char_traits<char>, std::__ndk1::allocator<char> >, LobbySettingType, std::__ndk1::basic_string<char, std::__ndk1::char_traits<char>, std::__ndk1::allocator<char> >, std::__ndk1::basic_string<char, std::__ndk1::char_traits<char>, std::__ndk1::allocator<char> >, std::__ndk1::basic_string<char, std::__ndk1::char_traits<char>, std::__ndk1::allocator<char> >)::{lambda(cocos2d::CCObject*)#1}, std::__ndk1::allocator<LobbySettingsCell::init(float, std::__ndk1::basic_string<char, std::__ndk1::char_traits<char>, std::__ndk1::allocator<char> >, LobbySettingType, std::__ndk1::basic_string<char, std::__ndk1::char_traits<char>, std::__ndk1::allocator<char> >, std::__ndk1::basic_string<char, std::__ndk1::char_traits<char>, std::__ndk1::allocator<char> >, std::__ndk1::basic_string<char, std::__ndk1::char_traits<char>, std::__ndk1::allocator<char> >)::{lambda(cocos2d::CCObject*)#1}>, void (CCMenuItemToggler*)>::~__func()
FUNC bbcc4 20 0 std::__ndk1::__function::__func<LobbySettingsCell::init(float, std::__ndk1::basic_string<char, std::__ndk1::char_traits<char>, std::__ndk1::allocator<char> >, LobbySettingType, std::__ndk1::basic_string<char, std::__ndk1::char_traits<char>, std::__ndk1::allocator<char> >, std::__ndk1::basic_string<char, std::__ndk1::char_traits<char>, std::__ndk1::allocator<char> >, std::__ndk1::basic_string<char, std::__ndk1::char_traits<char>, std::__ndk1::allocator<char> >)::{lambda(cocos2d::CCObject*)#1}, std::__ndk1::allocator<LobbySettingsCell::init(float, std::__ndk1::basic_string<char, std::__ndk1::char_traits<char>, std::__ndk1::allocator<char> >, LobbySettingType, std::__ndk1::basic_string<char, std::__ndk1::char_traits<char>, std::__ndk1::allocator<char> >, std::__ndk1::basic_string<char, std::__ndk1::char_traits<char>, std::__ndk1::allocator<char> >, std::__ndk1::basic_string<char, std::__ndk1::char_traits<char>, std::__ndk1::allocator<char> >)::{lambda(cocos2d::CCObject*)#1}>, void (CCMenuItemToggler*)>::__clone() const
FUNC bbce4 14 0 std::__ndk1::__function::__func<LobbySettingsCell::init(float, std::__ndk1::basic_string<char, std::__ndk1::char_traits<char>, std::__ndk1::allocator<char> >, LobbySettingType, std::__ndk1::basic_string<char, std::__ndk1::char_traits<char>, std::__ndk1::allocator<char> >, std::__ndk1::basic_string<char, std::__ndk1::char_traits<char>, std::__ndk1::allocator<char> >, std::__ndk1::basic_string<char, std::__ndk1::char_traits<char>, std::__ndk1::allocator<char> >)::{lambda(cocos2d::CCObject*)#1}, std::__ndk1::allocator<LobbySettingsCell::init(float, std::__ndk1::basic_string<char, std::__ndk1::char_traits<char>, std::__ndk1::allocator<char> >, LobbySettingType, std::__ndk1::basic_string<char, std::__ndk1::char_traits<char>, std::__ndk1::allocator<char> >, std::__ndk1::basic_string<char, std::__ndk1::char_traits<char>, std::__ndk1::allocator<char> >, std::__ndk1::basic_string<char, std::__ndk1::char_traits<char>, std::__ndk1::allocator<char> >)::{lambda(cocos2d::CCObject*)#1}>, void (CCMenuItemToggler*)>::__clone(std::__ndk1::__function::__base<void (CCMenuItemToggler*)>*) const
FUNC bbcf8 2 0 std::__ndk1::__function::__func<LobbySettingsCell::init(float, std::__ndk1::basic_string<char, std::__ndk1::char_traits<char>, std::__ndk1::allocator<char> >, LobbySettingType, std::__ndk1::basic_string<char, std::__ndk1::char_traits<char>, std::__ndk1::allocator<char> >, std::__ndk1::basic_string<char, std::__ndk1::char_traits<char>, std::__ndk1::allocator<char> >, std::__ndk1::basic_string<char, std::__ndk1::char_traits<char>, std::__ndk1::allocator<char> >)::{lambda(cocos2d::CCObject*)#1}, std::__ndk1::allocator<LobbySettingsCell::init(float, std::__ndk1::basic_string<char, std::__ndk1::char_traits<char>, std::__ndk1::allocator<char> >, LobbySettingType, std::__ndk1::basic_string<char, std::__ndk1::char_traits<char>, std::__ndk1::allocator<char> >, std::__ndk1::basic_string<char, std::__ndk1::char_traits<char>, std::__ndk1::allocator<char> >, std::__ndk1::basic_string<char, std::__ndk1::char_traits<char>, std::__ndk1::allocator<char> >)::{lambda(cocos2d::CCObject*)#1}>, void (CCMenuItemToggler*)>::destroy()
FUNC bbcfa 4 0 std::__ndk1::__function::__func<LobbySettingsCell::init(float, std::__ndk1::basic_string<char, std::__ndk1::char_traits<char>, std::__ndk1::allocator<char> >, LobbySettingType, std::__ndk1::basic_string<char, std::__ndk1::char_traits<char>, std::__ndk1::allocator<char> >, std::__ndk1::basic_string<char, std::__ndk1::char_traits<char>, std::__ndk1::allocator<char> >, std::__ndk1::basic_string<char, std::__ndk1::char_traits<char>, std::__ndk1::allocator<char> >)::{lambda(cocos2d::CCObject*)#1}, std::__ndk1::allocator<LobbySettingsCell::init(float, std::__ndk1::basic_string<char, std::__ndk1::char_traits<char>, std::__ndk1::allocator<char> >, LobbySettingType, std::__ndk1::basic_string<char, std::__ndk1::char_traits<char>, std::__ndk1::allocator<char> >, std::__ndk1::basic_string<char, std::__ndk1::char_traits<char>, std::__ndk1::allocator<char> >, std::__ndk1::basic_string<char, std::__ndk1::char_traits<char>, std::__ndk1::allocator<char> >)::{lambda(cocos2d::CCObject*)#1}>, void (CCMenuItemToggler*)>::destroy_deallocate()
FUNC bbcfe 14 0 std::__ndk1::__function::__func<LobbySettingsCell::init(float, std::__ndk1::basic_string<char, std::__ndk1::char_traits<char>, std::__ndk1::allocator<char> >, LobbySettingType, std::__ndk1::basic_string<char, std::__ndk1::char_traits<char>, std::__ndk1::allocator<char> >, std::__ndk1::basic_string<char, std::__ndk1::char_traits<char>, std::__ndk1::allocator<char> >, std::__ndk1::basic_string<char, std::__ndk1::char_traits<char>, std::__ndk1::allocator<char> >)::{lambda(cocos2d::CCObject*)#1}, std::__ndk1::allocator<LobbySettingsCell::init(float, std::__ndk1::basic_string<char, std::__ndk1::char_traits<char>, std::__ndk1::allocator<char> >, LobbySettingType, std::__ndk1::basic_string<char, std::__ndk1::char_traits<char>, std::__ndk1::allocator<char> >, std::__ndk1::basic_string<char, std::__ndk1::char_traits<char>, std::__ndk1::allocator<char> >, std::__ndk1::basic_string<char, std::__ndk1::char_traits<char>, std::__ndk1::allocator<char> >)::{lambda(cocos2d::CCObject*)#1}>, void (CCMenuItemToggler*)>::operator()(CCMenuItemToggler*&&)
FUNC bbd14 18 0 std::__ndk1::__function::__func<LobbySettingsCell::init(float, std::__ndk1::basic_string<char, std::__ndk1::char_traits<char>, std::__ndk1::allocator<char> >, LobbySettingType, std::__ndk1::basic_string<char, std::__ndk1::char_traits<char>, std::__ndk1::allocator<char> >, std::__ndk1::basic_string<char, std::__ndk1::char_traits<char>, std::__ndk1::allocator<char> >, std::__ndk1::basic_string<char, std::__ndk1::char_traits<char>, std::__ndk1::allocator<char> >)::{lambda(cocos2d::CCObject*)#1}, std::__ndk1::allocator<LobbySettingsCell::init(float, std::__ndk1::basic_string<char, std::__ndk1::char_traits<char>, std::__ndk1::allocator<char> >, LobbySettingType, std::__ndk1::basic_string<char, std::__ndk1::char_traits<char>, std::__ndk1::allocator<char> >, std::__ndk1::basic_string<char, std::__ndk1::char_traits<char>, std::__ndk1::allocator<char> >, std::__ndk1::basic_string<char, std::__ndk1::char_traits<char>, std::__ndk1::allocator<char> >)::{lambda(cocos2d::CCObject*)#1}>, void (CCMenuItemToggler*)>::target(std::type_info const&) const
FUNC bbd2c c 0 std::__ndk1::__function::__func<LobbySettingsCell::init(float, std::__ndk1::basic_string<char, std::__ndk1::char_traits<char>, std::__ndk1::allocator<char> >, LobbySettingType, std::__ndk1::basic_string<char, std::__ndk1::char_traits<char>, std::__ndk1::allocator<char> >, std::__ndk1::basic_string<char, std::__ndk1::char_traits<char>, std::__ndk1::allocator<char> >, std::__ndk1::basic_string<char, std::__ndk1::char_traits<char>, std::__ndk1::allocator<char> >)::{lambda(cocos2d::CCObject*)#1}, std::__ndk1::allocator<LobbySettingsCell::init(float, std::__ndk1::basic_string<char, std::__ndk1::char_traits<char>, std::__ndk1::allocator<char> >, LobbySettingType, std::__ndk1::basic_string<char, std::__ndk1::char_traits<char>, std::__ndk1::allocator<char> >, std::__ndk1::basic_string<char, std::__ndk1::char_traits<char>, std::__ndk1::allocator<char> >, std::__ndk1::basic_string<char, std::__ndk1::char_traits<char>, std::__ndk1::allocator<char> >)::{lambda(cocos2d::CCObject*)#1}>, void (CCMenuItemToggler*)>::target_type() const
FUNC bbd38 44 0 geode::Popup<LobbySettings, std::__ndk1::function<void (LobbySettings)> >::CloseEvent::~CloseEvent()
FUNC bbd7c 40 0 geode::Popup<LobbySettings, std::__ndk1::function<void (LobbySettings)> >::CloseEvent::~CloseEvent()
FUNC bbdbc 10 0 std::__ndk1::__shared_ptr_emplace<geode::Popup<LobbySettings, std::__ndk1::function<void (LobbySettings)> >::CloseEvent::Impl, std::__ndk1::allocator<geode::Popup<LobbySettings, std::__ndk1::function<void (LobbySettings)> >::CloseEvent::Impl> >::~__shared_ptr_emplace()
FUNC bbdcc 1c 0 std::__ndk1::__shared_ptr_emplace<geode::Popup<LobbySettings, std::__ndk1::function<void (LobbySettings)> >::CloseEvent::Impl, std::__ndk1::allocator<geode::Popup<LobbySettings, std::__ndk1::function<void (LobbySettings)> >::CloseEvent::Impl> >::~__shared_ptr_emplace()
FUNC bbde8 2 0 std::__ndk1::__shared_ptr_emplace<geode::Popup<LobbySettings, std::__ndk1::function<void (LobbySettings)> >::CloseEvent::Impl, std::__ndk1::allocator<geode::Popup<LobbySettings, std::__ndk1::function<void (LobbySettings)> >::CloseEvent::Impl> >::__on_zero_shared()
FUNC bbdea 4 0 std::__ndk1::__shared_ptr_emplace<geode::Popup<LobbySettings, std::__ndk1::function<void (LobbySettings)> >::CloseEvent::Impl, std::__ndk1::allocator<geode::Popup<LobbySettings, std::__ndk1::function<void (LobbySettings)> >::CloseEvent::Impl> >::__on_zero_shared_weak()
FUNC bbdf0 34 0 std::__ndk1::__function::__func<LobbySettingsPopup::setup(LobbySettings, std::__ndk1::function<void (LobbySettings)>)::$_0, std::__ndk1::allocator<LobbySettingsPopup::setup(LobbySettings, std::__ndk1::function<void (LobbySettings)>)::$_0>, void (CCMenuItemSpriteExtra*)>::~__func()
FUNC bbe24 38 0 std::__ndk1::__function::__func<LobbySettingsPopup::setup(LobbySettings, std::__ndk1::function<void (LobbySettings)>)::$_0, std::__ndk1::allocator<LobbySettingsPopup::setup(LobbySettings, std::__ndk1::function<void (LobbySettings)>)::$_0>, void (CCMenuItemSpriteExtra*)>::~__func()
FUNC bbe5c 5c 0 std::__ndk1::__function::__func<LobbySettingsPopup::setup(LobbySettings, std::__ndk1::function<void (LobbySettings)>)::$_0, std::__ndk1::allocator<LobbySettingsPopup::setup(LobbySettings, std::__ndk1::function<void (LobbySettings)>)::$_0>, void (CCMenuItemSpriteExtra*)>::__clone() const
FUNC bbeb8 4c 0 std::__ndk1::__function::__func<LobbySettingsPopup::setup(LobbySettings, std::__ndk1::function<void (LobbySettings)>)::$_0, std::__ndk1::allocator<LobbySettingsPopup::setup(LobbySettings, std::__ndk1::function<void (LobbySettings)>)::$_0>, void (CCMenuItemSpriteExtra*)>::__clone(std::__ndk1::__function::__base<void (CCMenuItemSpriteExtra*)>*) const
FUNC bbf04 1e 0 std::__ndk1::__function::__func<LobbySettingsPopup::setup(LobbySettings, std::__ndk1::function<void (LobbySettings)>)::$_0, std::__ndk1::allocator<LobbySettingsPopup::setup(LobbySettings, std::__ndk1::function<void (LobbySettings)>)::$_0>, void (CCMenuItemSpriteExtra*)>::destroy()
FUNC bbf22 2a 0 std::__ndk1::__function::__func<LobbySettingsPopup::setup(LobbySettings, std::__ndk1::function<void (LobbySettings)>)::$_0, std::__ndk1::allocator<LobbySettingsPopup::setup(LobbySettings, std::__ndk1::function<void (LobbySettings)>)::$_0>, void (CCMenuItemSpriteExtra*)>::destroy_deallocate()
FUNC bbf4c 298 0 std::__ndk1::__function::__func<LobbySettingsPopup::setup(LobbySettings, std::__ndk1::function<void (LobbySettings)>)::$_0, std::__ndk1::allocator<LobbySettingsPopup::setup(LobbySettings, std::__ndk1::function<void (LobbySettings)>)::$_0>, void (CCMenuItemSpriteExtra*)>::operator()(CCMenuItemSpriteExtra*&&)
FUNC bc1e4 18 0 std::__ndk1::__function::__func<LobbySettingsPopup::setup(LobbySettings, std::__ndk1::function<void (LobbySettings)>)::$_0, std::__ndk1::allocator<LobbySettingsPopup::setup(LobbySettings, std::__ndk1::function<void (LobbySettings)>)::$_0>, void (CCMenuItemSpriteExtra*)>::target(std::type_info const&) const
FUNC bc1fc c 0 std::__ndk1::__function::__func<LobbySettingsPopup::setup(LobbySettings, std::__ndk1::function<void (LobbySettings)>)::$_0, std::__ndk1::allocator<LobbySettingsPopup::setup(LobbySettings, std::__ndk1::function<void (LobbySettings)>)::$_0>, void (CCMenuItemSpriteExtra*)>::target_type() const
FUNC bc208 16 0 geode::cocos::CCArrayExt<LobbySettingsCell*, LobbySettingsCell>::~CCArrayExt()
FUNC bc220 68 0 _GLOBAL__sub_I_LobbySettings.cpp
FUNC bc288 10c 0 geodeExecFunction39<(anonymous namespace)::ExecFuncUnique39>(geode::ModStateEvent*)
FUNC bc394 2f4 0 __cxx_global_var_init.4
FUNC bc688 1c 0 geode::modifier::ModifyBase<geode::modifier::ModifyDerive<CRBrowserLayer, LevelBrowserLayer> >::~ModifyBase()
FUNC bc6a4 2f4 0 __cxx_global_var_init.5
FUNC bc998 1c 0 geode::modifier::ModifyBase<geode::modifier::ModifyDerive<CREditorUI, EditorUI> >::~ModifyBase()
FUNC bc9b4 2f4 0 __cxx_global_var_init.6
FUNC bcca8 1c 0 geode::modifier::ModifyBase<geode::modifier::ModifyDerive<CRLvlInfoLayer, LevelInfoLayer> >::~ModifyBase()
FUNC bccc4 2c4 0 __cxx_global_var_init.7
FUNC bcf88 128 0 _GLOBAL__sub_I_main.cpp
FUNC bd0b0 1c 0 geode::modifier::ModifyBase<geode::modifier::ModifyDerive<hook216<(anonymous namespace)::hook216Parent>, EditorPauseLayer> >::~ModifyBase()
FUNC bd0cc 2 0 std::__ndk1::__function::__base<void (std::__ndk1::function<void ()>)>::~__base()
FUNC bd0ce 4 0 std::__ndk1::__function::__func<geodeExecFunction39<(anonymous namespace)::ExecFuncUnique39>(geode::ModStateEvent*)::{lambda(std::__ndk1::function<void ()>)#1}, std::__ndk1::allocator<geodeExecFunction39<(anonymous namespace)::ExecFuncUnique39>(geode::ModStateEvent*)::{lambda(std::__ndk1::function<void ()>)#1}>, void (std::__ndk1::function<void ()>)>::~__func()
FUNC bd0d4 18 0 std::__ndk1::__function::__func<geodeExecFunction39<(anonymous namespace)::ExecFuncUnique39>(geode::ModStateEvent*)::{lambda(std::__ndk1::function<void ()>)#1}, std::__ndk1::allocator<geodeExecFunction39<(anonymous namespace)::ExecFuncUnique39>(geode::ModStateEvent*)::{lambda(std::__ndk1::function<void ()>)#1}>, void (std::__ndk1::function<void ()>)>::__clone() const
FUNC bd0ec 10 0 std::__ndk1::__function::__func<geodeExecFunction39<(anonymous namespace)::ExecFuncUnique39>(geode::ModStateEvent*)::{lambda(std::__ndk1::function<void ()>)#1}, std::__ndk1::allocator<geodeExecFunction39<(anonymous namespace)::ExecFuncUnique39>(geode::ModStateEvent*)::{lambda(std::__ndk1::function<void ()>)#1}>, void (std::__ndk1::function<void ()>)>::__clone(std::__ndk1::__function::__base<void (std::__ndk1::function<void ()>)>*) const
FUNC bd0fc 2 0 std::__ndk1::__function::__func<geodeExecFunction39<(anonymous namespace)::ExecFuncUnique39>(geode::ModStateEvent*)::{lambda(std::__ndk1::function<void ()>)#1}, std::__ndk1::allocator<geodeExecFunction39<(anonymous namespace)::ExecFuncUnique39>(geode::ModStateEvent*)::{lambda(std::__ndk1::function<void ()>)#1}>, void (std::__ndk1::function<void ()>)>::destroy()
FUNC bd0fe 4 0 std::__ndk1::__function::__func<geodeExecFunction39<(anonymous namespace)::ExecFuncUnique39>(geode::ModStateEvent*)::{lambda(std::__ndk1::function<void ()>)#1}, std::__ndk1::allocator<geodeExecFunction39<(anonymous namespace)::ExecFuncUnique39>(geode::ModStateEvent*)::{lambda(std::__ndk1::function<void ()>)#1}>, void (std::__ndk1::function<void ()>)>::destroy_deallocate()
FUNC bd104 1d0 0 std::__ndk1::__function::__func<geodeExecFunction39<(anonymous namespace)::ExecFuncUnique39>(geode::ModStateEvent*)::{lambda(std::__ndk1::function<void ()>)#1}, std::__ndk1::allocator<geodeExecFunction39<(anonymous namespace)::ExecFuncUnique39>(geode::ModStateEvent*)::{lambda(std::__ndk1::function<void ()>)#1}>, void (std::__ndk1::function<void ()>)>::operator()(std::__ndk1::function<void ()>&&)
FUNC bd2d4 18 0 std::__ndk1::__function::__func<geodeExecFunction39<(anonymous namespace)::ExecFuncUnique39>(geode::ModStateEvent*)::{lambda(std::__ndk1::function<void ()>)#1}, std::__ndk1::allocator<geodeExecFunction39<(anonymous namespace)::ExecFuncUnique39>(geode::ModStateEvent*)::{lambda(std::__ndk1::function<void ()>)#1}>, void (std::__ndk1::function<void ()>)>::target(std::type_info const&) const
FUNC bd2ec c 0 std::__ndk1::__function::__func<geodeExecFunction39<(anonymous namespace)::ExecFuncUnique39>(geode::ModStateEvent*)::{lambda(std::__ndk1::function<void ()>)#1}, std::__ndk1::allocator<geodeExecFunction39<(anonymous namespace)::ExecFuncUnique39>(geode::ModStateEvent*)::{lambda(std::__ndk1::function<void ()>)#1}>, void (std::__ndk1::function<void ()>)>::target_type() const
FUNC bd2f8 34 0 std::__ndk1::__function::__func<geodeExecFunction39<(anonymous namespace)::ExecFuncUnique39>(geode::ModStateEvent*)::{lambda(std::__ndk1::function<void ()>(std::__ndk1::function<void ()>))#1}::operator() const::{lambda()#1}, std::__ndk1::allocator<geodeExecFunction39<(anonymous namespace)::ExecFuncUnique39>(geode::ModStateEvent*)::{lambda(std::__ndk1::function<void ()>(std::__ndk1::function<void ()>))#1}::operator() const::{lambda()#1}>, void ()>::~__func()
FUNC bd32c 38 0 std::__ndk1::__function::__func<geodeExecFunction39<(anonymous namespace)::ExecFuncUnique39>(geode::ModStateEvent*)::{lambda(std::__ndk1::function<void ()>(std::__ndk1::function<void ()>))#1}::operator() const::{lambda()#1}, std::__ndk1::allocator<geodeExecFunction39<(anonymous namespace)::ExecFuncUnique39>(geode::ModStateEvent*)::{lambda(std::__ndk1::function<void ()>(std::__ndk1::function<void ()>))#1}::operator() const::{lambda()#1}>, void ()>::~__func()
FUNC bd364 54 0 std::__ndk1::__function::__func<geodeExecFunction39<(anonymous namespace)::ExecFuncUnique39>(geode::ModStateEvent*)::{lambda(std::__ndk1::function<void ()>(std::__ndk1::function<void ()>))#1}::operator() const::{lambda()#1}, std::__ndk1::allocator<geodeExecFunction39<(anonymous namespace)::ExecFuncUnique39>(geode::ModStateEvent*)::{lambda(std::__ndk1::function<void ()>(std::__ndk1::function<void ()>))#1}::operator() const::{lambda()#1}>, void ()>::__clone() const
FUNC bd3b8 44 0 std::__ndk1::__function::__func<geodeExecFunction39<(anonymous namespace)::ExecFuncUnique39>(geode::ModStateEvent*)::{lambda(std::__ndk1::function<void ()>(std::__ndk1::function<void ()>))#1}::operator() const::{lambda()#1}, std::__ndk1::allocator<geodeExecFunction39<(anonymous namespace)::ExecFuncUnique39>(geode::ModStateEvent*)::{lambda(std::__ndk1::function<void ()>(std::__ndk1::function<void ()>))#1}::operator() const::{lambda()#1}>, void ()>::__clone(std::__ndk1::__function::__base<void ()>*) const
FUNC bd3fc 1e 0 std::__ndk1::__function::__func<geodeExecFunction39<(anonymous namespace)::ExecFuncUnique39>(geode::ModStateEvent*)::{lambda(std::__ndk1::function<void ()>(std::__ndk1::function<void ()>))#1}::operator() const::{lambda()#1}, std::__ndk1::allocator<geodeExecFunction39<(anonymous namespace)::ExecFuncUnique39>(geode::ModStateEvent*)::{lambda(std::__ndk1::function<void ()>(std::__ndk1::function<void ()>))#1}::operator() const::{lambda()#1}>, void ()>::destroy()
FUNC bd41a 2a 0 std::__ndk1::__function::__func<geodeExecFunction39<(anonymous namespace)::ExecFuncUnique39>(geode::ModStateEvent*)::{lambda(std::__ndk1::function<void ()>(std::__ndk1::function<void ()>))#1}::operator() const::{lambda()#1}, std::__ndk1::allocator<geodeExecFunction39<(anonymous namespace)::ExecFuncUnique39>(geode::ModStateEvent*)::{lambda(std::__ndk1::function<void ()>(std::__ndk1::function<void ()>))#1}::operator() const::{lambda()#1}>, void ()>::destroy_deallocate()
FUNC bd444 12 0 std::__ndk1::__function::__func<geodeExecFunction39<(anonymous namespace)::ExecFuncUnique39>(geode::ModStateEvent*)::{lambda(std::__ndk1::function<void ()>(std::__ndk1::function<void ()>))#1}::operator() const::{lambda()#1}, std::__ndk1::allocator<geodeExecFunction39<(anonymous namespace)::ExecFuncUnique39>(geode::ModStateEvent*)::{lambda(std::__ndk1::function<void ()>(std::__ndk1::function<void ()>))#1}::operator() const::{lambda()#1}>, void ()>::operator()()
FUNC bd458 18 0 std::__ndk1::__function::__func<geodeExecFunction39<(anonymous namespace)::ExecFuncUnique39>(geode::ModStateEvent*)::{lambda(std::__ndk1::function<void ()>(std::__ndk1::function<void ()>))#1}::operator() const::{lambda()#1}, std::__ndk1::allocator<geodeExecFunction39<(anonymous namespace)::ExecFuncUnique39>(geode::ModStateEvent*)::{lambda(std::__ndk1::function<void ()>(std::__ndk1::function<void ()>))#1}::operator() const::{lambda()#1}>, void ()>::target(std::type_info const&) const
FUNC bd470 c 0 std::__ndk1::__function::__func<geodeExecFunction39<(anonymous namespace)::ExecFuncUnique39>(geode::ModStateEvent*)::{lambda(std::__ndk1::function<void ()>(std::__ndk1::function<void ()>))#1}::operator() const::{lambda()#1}, std::__ndk1::allocator<geodeExecFunction39<(anonymous namespace)::ExecFuncUnique39>(geode::ModStateEvent*)::{lambda(std::__ndk1::function<void ()>(std::__ndk1::function<void ()>))#1}::operator() const::{lambda()#1}>, void ()>::target_type() const
FUNC bd480 320 0 geode::modifier::ModifyDerive<CRBrowserLayer, LevelBrowserLayer>::apply()
FUNC bd7a0 3a 0 std::__ndk1::shared_ptr<geode::Hook>::~shared_ptr[abi:ne180000]()
FUNC bd7dc 60 0 geode::impl::ResultData<geode::Hook*, std::__ndk1::basic_string<char, std::__ndk1::char_traits<char>, std::__ndk1::allocator<char> > >::~ResultData()
FUNC bd83c 3e 0 std::__ndk1::vector<std::__ndk1::basic_string<char, std::__ndk1::char_traits<char>, std::__ndk1::allocator<char> >, std::__ndk1::allocator<std::__ndk1::basic_string<char, std::__ndk1::char_traits<char>, std::__ndk1::allocator<char> > > >::~vector[abi:ne180000]()
FUNC bd87a 2 0 geode::modifier::ModifyBase<geode::modifier::ModifyDerive<CRBrowserLayer, LevelBrowserLayer> >::apply()
FUNC bd87c f8 0 _ZN5geode15UnwrapExceptionC2IRPNS_4HookEQsr4implE18IsStringStreamableIT_EEENS_4impl5OkTagEOS5_
FUNC bd974 164 0 std::__ndk1::vector<std::__ndk1::basic_string<char, std::__ndk1::char_traits<char>, std::__ndk1::allocator<char> >, std::__ndk1::allocator<std::__ndk1::basic_string<char, std::__ndk1::char_traits<char>, std::__ndk1::allocator<char> > > >::__push_back_slow_path<std::__ndk1::basic_string<char, std::__ndk1::char_traits<char>, std::__ndk1::allocator<char> > const&>(std::__ndk1::basic_string<char, std::__ndk1::char_traits<char>, std::__ndk1::allocator<char> > const&)
FUNC bdad8 3c 0 std::__ndk1::__split_buffer<std::__ndk1::basic_string<char, std::__ndk1::char_traits<char>, std::__ndk1::allocator<char> >, std::__ndk1::allocator<std::__ndk1::basic_string<char, std::__ndk1::char_traits<char>, std::__ndk1::allocator<char> > >&>::~__split_buffer()
FUNC bdb14 10 0 std::__ndk1::vector<std::__ndk1::basic_string<char, std::__ndk1::char_traits<char>, std::__ndk1::allocator<char> >, std::__ndk1::allocator<std::__ndk1::basic_string<char, std::__ndk1::char_traits<char>, std::__ndk1::allocator<char> > > >::__throw_length_error[abi:ne180000]() const
FUNC bdb24 2 0 std::__ndk1::__variant_detail::__visitation::__base::__dispatcher<(unsigned int)0>::__dispatch[abi:ne180000]<std::__ndk1::__variant_detail::__dtor<std::__ndk1::__variant_detail::__traits<geode::Hook*, std::__ndk1::basic_string<char, std::__ndk1::char_traits<char>, std::__ndk1::allocator<char> > >, (std::__ndk1::__variant_detail::_Trait)1>::__destroy[abi:ne180000]()::{lambda(auto:1&)#1}, std::__ndk1::__variant_detail::__base<(std::__ndk1::__variant_detail::__traits<geode::Hook*, std::__ndk1::basic_string<char, std::__ndk1::char_traits<char>, std::__ndk1::allocator<char> > >)1, geode::Hook, std::__ndk1::allocator<char> >&>(std::__ndk1::__variant_detail::__dtor<std::__ndk1::__variant_detail::__traits<geode::Hook*, std::__ndk1::basic_string<char, std::__ndk1::char_traits<char>, std::__ndk1::allocator<char> > >, (std::__ndk1::__variant_detail::_Trait)1>, std::__ndk1::__variant_detail::__base<(std::__ndk1::__variant_detail::__traits<geode::Hook*, std::__ndk1::basic_string<char, std::__ndk1::char_traits<char>, std::__ndk1::allocator<char> > >)1, geode::Hook, std::__ndk1::allocator<char> >&)
FUNC bdb26 e 0 std::__ndk1::__variant_detail::__visitation::__base::__dispatcher<(unsigned int)1>::__dispatch[abi:ne180000]<std::__ndk1::__variant_detail::__dtor<std::__ndk1::__variant_detail::__traits<geode::Hook*, std::__ndk1::basic_string<char, std::__ndk1::char_traits<char>, std::__ndk1::allocator<char> > >, (std::__ndk1::__variant_detail::_Trait)1>::__destroy[abi:ne180000]()::{lambda(auto:1&)#1}, std::__ndk1::__variant_detail::__base<(std::__ndk1::__variant_detail::__traits<geode::Hook*, std::__ndk1::basic_string<char, std::__ndk1::char_traits<char>, std::__ndk1::allocator<char> > >)1, geode::Hook, std::__ndk1::allocator<char> >&>(std::__ndk1::__variant_detail::__dtor<std::__ndk1::__variant_detail::__traits<geode::Hook*, std::__ndk1::basic_string<char, std::__ndk1::char_traits<char>, std::__ndk1::allocator<char> > >, (std::__ndk1::__variant_detail::_Trait)1>, std::__ndk1::__variant_detail::__base<(std::__ndk1::__variant_detail::__traits<geode::Hook*, std::__ndk1::basic_string<char, std::__ndk1::char_traits<char>, std::__ndk1::allocator<char> > >)1, geode::Hook, std::__ndk1::allocator<char> >&)
FUNC bdb34 c0 0 std::__ndk1::__tree<std::__ndk1::__value_type<std::__ndk1::basic_string<char, std::__ndk1::char_traits<char>, std::__ndk1::allocator<char> >, std::__ndk1::shared_ptr<geode::Hook> >, std::__ndk1::__map_value_compare<std::__ndk1::basic_string<char, std::__ndk1::char_traits<char>, std::__ndk1::allocator<char> >, std::__ndk1::__value_type<std::__ndk1::basic_string<char, std::__ndk1::char_traits<char>, std::__ndk1::allocator<char> >, std::__ndk1::shared_ptr<geode::Hook> >, std::__ndk1::less<std::__ndk1::basic_string<char, std::__ndk1::char_traits<char>, std::__ndk1::allocator<char> > >, true>, std::__ndk1::allocator<std::__ndk1::__value_type<std::__ndk1::basic_string<char, std::__ndk1::char_traits<char>, std::__ndk1::allocator<char> >, std::__ndk1::shared_ptr<geode::Hook> > > >::find<std::__ndk1::basic_string<char, std::__ndk1::char_traits<char>, std::__ndk1::allocator<char> > >(std::__ndk1::basic_string<char, std::__ndk1::char_traits<char>, std::__ndk1::allocator<char> > const&)
FUNC bdbf4 2ba 0 std::__ndk1::__tree<std::__ndk1::__value_type<std::__ndk1::basic_string<char, std::__ndk1::char_traits<char>, std::__ndk1::allocator<char> >, std::__ndk1::shared_ptr<geode::Hook> >, std::__ndk1::__map_value_compare<std::__ndk1::basic_string<char, std::__ndk1::char_traits<char>, std::__ndk1::allocator<char> >, std::__ndk1::__value_type<std::__ndk1::basic_string<char, std::__ndk1::char_traits<char>, std::__ndk1::allocator<char> >, std::__ndk1::shared_ptr<geode::Hook> >, std::__ndk1::less<std::__ndk1::basic_string<char, std::__ndk1::char_traits<char>, std::__ndk1::allocator<char> > >, true>, std::__ndk1::allocator<std::__ndk1::__value_type<std::__ndk1::basic_string<char, std::__ndk1::char_traits<char>, std::__ndk1::allocator<char> >, std::__ndk1::shared_ptr<geode::Hook> > > >::erase(std::__ndk1::__tree_const_iterator<std::__ndk1::__value_type<std::__ndk1::basic_string<char, std::__ndk1::char_traits<char>, std::__ndk1::allocator<char> >, std::__ndk1::shared_ptr<geode::Hook> >, std::__ndk1::__tree_node<std::__ndk1::__value_type<std::__ndk1::basic_string<char, std::__ndk1::char_traits<char>, std::__ndk1::allocator<char> >, std::__ndk1::shared_ptr<geode::Hook> >, void*>*, int>)
FUNC bdeae 5a 0 std::__ndk1::__tree<std::__ndk1::__value_type<std::__ndk1::basic_string<char, std::__ndk1::char_traits<char>, std::__ndk1::allocator<char> >, std::__ndk1::shared_ptr<geode::Hook> >, std::__ndk1::__map_value_compare<std::__ndk1::basic_string<char, std::__ndk1::char_traits<char>, std::__ndk1::allocator<char> >, std::__ndk1::__value_type<std::__ndk1::basic_string<char, std::__ndk1::char_traits<char>, std::__ndk1::allocator<char> >, std::__ndk1::shared_ptr<geode::Hook> >, std::__ndk1::less<std::__ndk1::basic_string<char, std::__ndk1::char_traits<char>, std::__ndk1::allocator<char> > >, true>, std::__ndk1::allocator<std::__ndk1::__value_type<std::__ndk1::basic_string<char, std::__ndk1::char_traits<char>, std::__ndk1::allocator<char> >, std::__ndk1::shared_ptr<geode::Hook> > > >::destroy(std::__ndk1::__tree_node<std::__ndk1::__value_type<std::__ndk1::basic_string<char, std::__ndk1::char_traits<char>, std::__ndk1::allocator<char> >, std::__ndk1::shared_ptr<geode::Hook> >, void*>*)
FUNC bdf08 27c 0 geode::modifier::AsStaticFunction_init<CRBrowserLayer, bool (CRBrowserLayer::*)(GJSearchObject*)>::Impl<bool (CRBrowserLayer::*)(GJSearchObject*)>::function(CRBrowserLayer*, GJSearchObject*)
FUNC be184 3a 0 std::__ndk1::shared_ptr<tulip::hook::CallingConvention>::~shared_ptr[abi:ne180000]()
FUNC be1be 46 0 tulip::hook::HandlerMetadata::~HandlerMetadata()
FUNC be204 718 0 CRBrowserLayer::onMyButton(cocos2d::CCObject*)
FUNC be91c 118 0 geode::Mod::getSettingValue<std::__ndk1::basic_string<char, std::__ndk1::char_traits<char>, std::__ndk1::allocator<char> > >(std::__ndk1::basic_string_view<char, std::__ndk1::char_traits<char> >) const
FUNC bea34 3a 0 std::__ndk1::shared_ptr<geode::StringSettingV3>::~shared_ptr[abi:ne180000]()
FUNC bea70 60 0 geode::impl::ResultData<matjson::Value&, std::__ndk1::basic_string<char, std::__ndk1::char_traits<char>, std::__ndk1::allocator<char> > >::~ResultData()
FUNC bead0 2 0 std::__ndk1::__variant_detail::__visitation::__base::__dispatcher<(unsigned int)0>::__dispatch[abi:ne180000]<std::__ndk1::__variant_detail::__dtor<std::__ndk1::__variant_detail::__traits<std::__ndk1::reference_wrapper<matjson::Value>, std::__ndk1::basic_string<char, std::__ndk1::char_traits<char>, std::__ndk1::allocator<char> > >, (std::__ndk1::__variant_detail::_Trait)1>::__destroy[abi:ne180000]()::{lambda(auto:1&)#1}, std::__ndk1::__variant_detail::__base<(std::__ndk1::__variant_detail::__traits<std::__ndk1::reference_wrapper<matjson::Value>, std::__ndk1::basic_string<char, std::__ndk1::char_traits<char>, std::__ndk1::allocator<char> > >)1, matjson::Value, std::__ndk1::allocator<char> >&>(std::__ndk1::__variant_detail::__dtor<std::__ndk1::__variant_detail::__traits<std::__ndk1::reference_wrapper<matjson::Value>, std::__ndk1::basic_string<char, std::__ndk1::char_traits<char>, std::__ndk1::allocator<char> > >, (std::__ndk1::__variant_detail::_Trait)1>, std::__ndk1::__variant_detail::__base<(std::__ndk1::__variant_detail::__traits<std::__ndk1::reference_wrapper<matjson::Value>, std::__ndk1::basic_string<char, std::__ndk1::char_traits<char>, std::__ndk1::allocator<char> > >)1, matjson::Value, std::__ndk1::allocator<char> >&)
FUNC bead2 e 0 std::__ndk1::__variant_detail::__visitation::__base::__dispatcher<(unsigned int)1>::__dispatch[abi:ne180000]<std::__ndk1::__variant_detail::__dtor<std::__ndk1::__variant_detail::__traits<std::__ndk1::reference_wrapper<matjson::Value>, std::__ndk1::basic_string<char, std::__ndk1::char_traits<char>, std::__ndk1::allocator<char> > >, (std::__ndk1::__variant_detail::_Trait)1>::__destroy[abi:ne180000]()::{lambda(auto:1&)#1}, std::__ndk1::__variant_detail::__base<(std::__ndk1::__variant_detail::__traits<std::__ndk1::reference_wrapper<matjson::Value>, std::__ndk1::basic_string<char, std::__ndk1::char_traits<char>, std::__ndk1::allocator<char> > >)1, matjson::Value, std::__ndk1::allocator<char> >&>(std::__ndk1::__variant_detail::__dtor<std::__ndk1::__variant_detail::__traits<std::__ndk1::reference_wrapper<matjson::Value>, std::__ndk1::basic_string<char, std::__ndk1::char_traits<char>, std::__ndk1::allocator<char> > >, (std::__ndk1::__variant_detail::_Trait)1>, std::__ndk1::__variant_detail::__base<(std::__ndk1::__variant_detail::__traits<std::__ndk1::reference_wrapper<matjson::Value>, std::__ndk1::basic_string<char, std::__ndk1::char_traits<char>, std::__ndk1::allocator<char> > >)1, matjson::Value, std::__ndk1::allocator<char> >&)
FUNC beae0 2 0 std::__ndk1::__variant_detail::__visitation::__base::__dispatcher<(unsigned int)0>::__dispatch[abi:ne180000]<std::__ndk1::__variant_detail::__dtor<std::__ndk1::__variant_detail::__traits<bool, std::__ndk1::basic_string<char, std::__ndk1::char_traits<char>, std::__ndk1::allocator<char> > >, (std::__ndk1::__variant_detail::_Trait)1>::__destroy[abi:ne180000]()::{lambda(auto:1&)#1}, std::__ndk1::__variant_detail::__base<(std::__ndk1::__variant_detail::__traits<bool, std::__ndk1::basic_string<char, std::__ndk1::char_traits<char>, std::__ndk1::allocator<char> > >)1, bool, std::__ndk1::allocator<char> >&>(std::__ndk1::__variant_detail::__dtor<std::__ndk1::__variant_detail::__traits<bool, std::__ndk1::basic_string<char, std::__ndk1::char_traits<char>, std::__ndk1::allocator<char> > >, (std::__ndk1::__variant_detail::_Trait)1>, std::__ndk1::__variant_detail::__base<(std::__ndk1::__variant_detail::__traits<bool, std::__ndk1::basic_string<char, std::__ndk1::char_traits<char>, std::__ndk1::allocator<char> > >)1, bool, std::__ndk1::allocator<char> >&)
FUNC beae2 e 0 std::__ndk1::__variant_detail::__visitation::__base::__dispatcher<(unsigned int)1>::__dispatch[abi:ne180000]<std::__ndk1::__variant_detail::__dtor<std::__ndk1::__variant_detail::__traits<bool, std::__ndk1::basic_string<char, std::__ndk1::char_traits<char>, std::__ndk1::allocator<char> > >, (std::__ndk1::__variant_detail::_Trait)1>::__destroy[abi:ne180000]()::{lambda(auto:1&)#1}, std::__ndk1::__variant_detail::__base<(std::__ndk1::__variant_detail::__traits<bool, std::__ndk1::basic_string<char, std::__ndk1::char_traits<char>, std::__ndk1::allocator<char> > >)1, bool, std::__ndk1::allocator<char> >&>(std::__ndk1::__variant_detail::__dtor<std::__ndk1::__variant_detail::__traits<bool, std::__ndk1::basic_string<char, std::__ndk1::char_traits<char>, std::__ndk1::allocator<char> > >, (std::__ndk1::__variant_detail::_Trait)1>, std::__ndk1::__variant_detail::__base<(std::__ndk1::__variant_detail::__traits<bool, std::__ndk1::basic_string<char, std::__ndk1::char_traits<char>, std::__ndk1::allocator<char> > >)1, bool, std::__ndk1::allocator<char> >&)
FUNC beaf0 4 0 std::__ndk1::__function::__func<CRBrowserLayer::onMyButton(cocos2d::CCObject*)::{lambda()#1}, std::__ndk1::allocator<CRBrowserLayer::onMyButton(cocos2d::CCObject*)::{lambda()#1}>, void ()>::~__func()
FUNC beaf4 18 0 std::__ndk1::__function::__func<CRBrowserLayer::onMyButton(cocos2d::CCObject*)::{lambda()#1}, std::__ndk1::allocator<CRBrowserLayer::onMyButton(cocos2d::CCObject*)::{lambda()#1}>, void ()>::__clone() const
FUNC beb0c 10 0 std::__ndk1::__function::__func<CRBrowserLayer::onMyButton(cocos2d::CCObject*)::{lambda()#1}, std::__ndk1::allocator<CRBrowserLayer::onMyButton(cocos2d::CCObject*)::{lambda()#1}>, void ()>::__clone(std::__ndk1::__function::__base<void ()>*) const
FUNC beb1c 2 0 std::__ndk1::__function::__func<CRBrowserLayer::onMyButton(cocos2d::CCObject*)::{lambda()#1}, std::__ndk1::allocator<CRBrowserLayer::onMyButton(cocos2d::CCObject*)::{lambda()#1}>, void ()>::destroy()
FUNC beb1e 4 0 std::__ndk1::__function::__func<CRBrowserLayer::onMyButton(cocos2d::CCObject*)::{lambda()#1}, std::__ndk1::allocator<CRBrowserLayer::onMyButton(cocos2d::CCObject*)::{lambda()#1}>, void ()>::destroy_deallocate()
FUNC beb22 14 0 std::__ndk1::__function::__func<CRBrowserLayer::onMyButton(cocos2d::CCObject*)::{lambda()#1}, std::__ndk1::allocator<CRBrowserLayer::onMyButton(cocos2d::CCObject*)::{lambda()#1}>, void ()>::operator()()
FUNC beb38 18 0 std::__ndk1::__function::__func<CRBrowserLayer::onMyButton(cocos2d::CCObject*)::{lambda()#1}, std::__ndk1::allocator<CRBrowserLayer::onMyButton(cocos2d::CCObject*)::{lambda()#1}>, void ()>::target(std::type_info const&) const
FUNC beb50 c 0 std::__ndk1::__function::__func<CRBrowserLayer::onMyButton(cocos2d::CCObject*)::{lambda()#1}, std::__ndk1::allocator<CRBrowserLayer::onMyButton(cocos2d::CCObject*)::{lambda()#1}>, void ()>::target_type() const
FUNC beb5c ba 0 std::__ndk1::__tree<std::__ndk1::__value_type<std::__ndk1::basic_string<char, std::__ndk1::char_traits<char>, std::__ndk1::allocator<char> >, std::__ndk1::shared_ptr<geode::Hook> >, std::__ndk1::__map_value_compare<std::__ndk1::basic_string<char, std::__ndk1::char_traits<char>, std::__ndk1::allocator<char> >, std::__ndk1::__value_type<std::__ndk1::basic_string<char, std::__ndk1::char_traits<char>, std::__ndk1::allocator<char> >, std::__ndk1::shared_ptr<geode::Hook> >, std::__ndk1::less<std::__ndk1::basic_string<char, std::__ndk1::char_traits<char>, std::__ndk1::allocator<char> > >, true>, std::__ndk1::allocator<std::__ndk1::__value_type<std::__ndk1::basic_string<char, std::__ndk1::char_traits<char>, std::__ndk1::allocator<char> >, std::__ndk1::shared_ptr<geode::Hook> > > >::__find_equal<std::__ndk1::basic_string<char, std::__ndk1::char_traits<char>, std::__ndk1::allocator<char> > >(std::__ndk1::__tree_end_node<std::__ndk1::__tree_node_base<void*>*>*&, std::__ndk1::basic_string<char, std::__ndk1::char_traits<char>, std::__ndk1::allocator<char> > const&)
FUNC bec16 14a 0 std::__ndk1::__tree_balance_after_insert[abi:ne180000]<std::__ndk1::__tree_node_base<void*>*>(std::__ndk1::__tree_node_base<void*>*, std::__ndk1::__tree_node_base<void*>*)
FUNC bed60 5a8 0 geode::modifier::ModifyDerive<CREditorUI, EditorUI>::apply()
FUNC bf308 2 0 geode::modifier::ModifyBase<geode::modifier::ModifyDerive<CREditorUI, EditorUI> >::apply()
FUNC bf30c 1b4 0 geode::modifier::AsStaticFunction_init<CREditorUI, bool (CREditorUI::*)(LevelEditorLayer*)>::Impl<bool (CREditorUI::*)(LevelEditorLayer*)>::function(CREditorUI*, LevelEditorLayer*)
FUNC bf4c0 32 0 geode::modifier::AsStaticFunction_showUI<CREditorUI, void (CREditorUI::*)(bool)>::Impl<void (CREditorUI::*)(bool)>::function(CREditorUI*, bool)
FUNC bf4f4 154 0 CREditorUI::updateTimer(float)
FUNC bf648 118 0 geode::modifier::FieldIntermediate<CREditorUI, EditorUI>::self()
FUNC bf760 33c 0 geode::modifier::FieldContainer::getField(unsigned int)
FUNC bfa9c a8 0 geode::modifier::FieldContainer::setField(unsigned int, unsigned int, std::__ndk1::function<void (void*)>)
FUNC bfb44 2 0 geode::modifier::FieldIntermediate<CREditorUI, EditorUI>::fieldDestructor(void*)
FUNC bfb48 10 0 std::__ndk1::vector<void*, std::__ndk1::allocator<void*> >::__throw_length_error[abi:ne180000]() const
FUNC bfb58 10 0 std::__ndk1::vector<std::__ndk1::function<void (void*)>, std::__ndk1::allocator<std::__ndk1::function<void (void*)> > >::__throw_length_error[abi:ne180000]() const
FUNC bfb68 10 0 std::__ndk1::vector<void*, std::__ndk1::allocator<void*> >::__throw_out_of_range[abi:ne180000]() const
FUNC bfb78 10 0 std::__ndk1::vector<std::__ndk1::function<void (void*)>, std::__ndk1::allocator<std::__ndk1::function<void (void*)> > >::__throw_out_of_range[abi:ne180000]() const
FUNC bfb88 2 0 std::__ndk1::__function::__base<void (void*)>::~__base()
FUNC bfb8a 4 0 std::__ndk1::__function::__func<void (*)(void*), std::__ndk1::allocator<void (*)(void*)>, void (void*)>::~__func()
FUNC bfb90 20 0 std::__ndk1::__function::__func<void (*)(void*), std::__ndk1::allocator<void (*)(void*)>, void (void*)>::__clone() const
FUNC bfbb0 14 0 std::__ndk1::__function::__func<void (*)(void*), std::__ndk1::allocator<void (*)(void*)>, void (void*)>::__clone(std::__ndk1::__function::__base<void (void*)>*) const
FUNC bfbc4 2 0 std::__ndk1::__function::__func<void (*)(void*), std::__ndk1::allocator<void (*)(void*)>, void (void*)>::destroy()
FUNC bfbc6 4 0 std::__ndk1::__function::__func<void (*)(void*), std::__ndk1::allocator<void (*)(void*)>, void (void*)>::destroy_deallocate()
FUNC bfbca 8 0 std::__ndk1::__function::__func<void (*)(void*), std::__ndk1::allocator<void (*)(void*)>, void (void*)>::operator()(void*&&)
FUNC bfbd4 18 0 std::__ndk1::__function::__func<void (*)(void*), std::__ndk1::allocator<void (*)(void*)>, void (void*)>::target(std::type_info const&) const
FUNC bfbec c 0 std::__ndk1::__function::__func<void (*)(void*), std::__ndk1::allocator<void (*)(void*)>, void (void*)>::target_type() const
FUNC bfbf8 1044 0 fmt::v11::detail::value<fmt::v11::context>::format_custom_arg<std::__ndk1::chrono::duration<int, std::__ndk1::ratio<(long long)1, (long long)1> >, fmt::v11::formatter<std::__ndk1::chrono::duration<int, std::__ndk1::ratio<(long long)1, (long long)1> >, char, void> >(void*, fmt::v11::basic_format_parse_context<char>&, fmt::v11::context&)
FUNC c0c3c 10c 0 fmt::v11::detail::parse_dynamic_spec<char>(char const*, char const*, int&, fmt::v11::detail::arg_ref<char>&, fmt::v11::basic_format_parse_context<char>&)
FUNC c0d48 114 0 fmt::v11::detail::do_parse_arg_id<char, fmt::v11::detail::dynamic_spec_id_handler<char>&>(char const*, char const*, fmt::v11::detail::dynamic_spec_id_handler<char>&)
FUNC c0e5c 18 0 fmt::v11::format_error::runtime_error(char const*)
FUNC c0e74 10 0 fmt::v11::format_error::~format_error()
FUNC c0e84 3c 0 fmt::v11::detail::chrono_format_checker::unsupported()
FUNC c0ec0 bc 0 fmt::v11::detail::handle_dynamic_spec<fmt::v11::detail::width_checker, fmt::v11::context>(int&, fmt::v11::detail::arg_ref<fmt::v11::context::char_type>, fmt::v11::context&)
FUNC c0f7c bc 0 fmt::v11::detail::handle_dynamic_spec<fmt::v11::detail::precision_checker, fmt::v11::context>(int&, fmt::v11::detail::arg_ref<fmt::v11::context::char_type>, fmt::v11::context&)
FUNC c1038 16c 0 fmt::v11::detail::write<char, fmt::v11::basic_appender<char> >(fmt::v11::basic_appender<char>, fmt::v11::basic_string_view<char>, fmt::v11::format_specs const&)
FUNC c11a4 4c 0 fmt::v11::basic_memory_buffer<char, (unsigned int)500, std::__ndk1::allocator<char> >::grow(fmt::v11::detail::buffer<char>&, unsigned int)
FUNC c11f0 60 0 fmt::v11::detail::get_dynamic_spec<fmt::v11::detail::width_checker, fmt::v11::basic_format_arg<fmt::v11::context> >(fmt::v11::basic_format_arg<fmt::v11::context>)
FUNC c1250 106 0 fmt::v11::basic_format_args<fmt::v11::context>::get<char>(fmt::v11::basic_string_view<char>) const
FUNC c1358 60 0 fmt::v11::detail::get_dynamic_spec<fmt::v11::detail::precision_checker, fmt::v11::basic_format_arg<fmt::v11::context> >(fmt::v11::basic_format_arg<fmt::v11::context>)
FUNC c13b8 9a 0 fmt::v11::detail::copy_noinline<char, char*, std::__ndk1::back_insert_iterator<fmt::v11::basic_memory_buffer<char, (unsigned int)500, std::__ndk1::allocator<char> > > >(char*, char*, std::__ndk1::back_insert_iterator<fmt::v11::basic_memory_buffer<char, (unsigned int)500, std::__ndk1::allocator<char> > >)
FUNC c1454 84 0 fmt::v11::detail::chrono_formatter<fmt::v11::context, std::__ndk1::back_insert_iterator<fmt::v11::basic_memory_buffer<char, (unsigned int)500, std::__ndk1::allocator<char> > >, int, std::__ndk1::ratio<(long long)1, (long long)1> >::on_12_hour(fmt::v11::detail::numeric_system, fmt::v11::detail::pad_type)
FUNC c14d8 154 0 fmt::v11::detail::chrono_formatter<fmt::v11::context, std::__ndk1::back_insert_iterator<fmt::v11::basic_memory_buffer<char, (unsigned int)500, std::__ndk1::allocator<char> > >, int, std::__ndk1::ratio<(long long)1, (long long)1> >::write(int, int, fmt::v11::detail::pad_type)
FUNC c162c 148 0 fmt::v11::detail::chrono_formatter<fmt::v11::context, std::__ndk1::back_insert_iterator<fmt::v11::basic_memory_buffer<char, (unsigned int)500, std::__ndk1::allocator<char> > >, int, std::__ndk1::ratio<(long long)1, (long long)1> >::format_tm<void (fmt::v11::detail::tm_writer<std::__ndk1::back_insert_iterator<fmt::v11::basic_memory_buffer<char, (unsigned int)500, std::__ndk1::allocator<char> > >, char, std::__ndk1::chrono::duration<long long, std::__ndk1::ratio<(long long)1, (long long)1> > >::*)(fmt::v11::detail::numeric_system, fmt::v11::detail::pad_type), fmt::v11::detail::numeric_system, fmt::v11::detail::pad_type>(tm const&, void (fmt::v11::detail::tm_writer<std::__ndk1::back_insert_iterator<fmt::v11::basic_memory_buffer<char, (unsigned int)500, std::__ndk1::allocator<char> > >, char, std::__ndk1::chrono::duration<long long, std::__ndk1::ratio<(long long)1, (long long)1> > >::*)(fmt::v11::detail::numeric_system, fmt::v11::detail::pad_type), fmt::v11::detail::numeric_system, fmt::v11::detail::pad_type)
FUNC c1774 18 0 fmt::v11::detail::tm_writer<std::__ndk1::back_insert_iterator<fmt::v11::basic_memory_buffer<char, (unsigned int)500, std::__ndk1::allocator<char> > >, char, std::__ndk1::chrono::duration<long long, std::__ndk1::ratio<(long long)1, (long long)1> > >::on_24_hour(fmt::v11::detail::numeric_system, fmt::v11::detail::pad_type)
FUNC c178c c4 0 fmt::v11::detail::tm_writer<std::__ndk1::back_insert_iterator<fmt::v11::basic_memory_buffer<char, (unsigned int)500, std::__ndk1::allocator<char> > >, char, std::__ndk1::chrono::duration<long long, std::__ndk1::ratio<(long long)1, (long long)1> > >::write2(int, fmt::v11::detail::pad_type)
FUNC c1850 5ec 0 fmt::v11::detail::tm_writer<std::__ndk1::back_insert_iterator<fmt::v11::basic_memory_buffer<char, (unsigned int)500, std::__ndk1::allocator<char> > >, char, std::__ndk1::chrono::duration<long long, std::__ndk1::ratio<(long long)1, (long long)1> > >::format_localized(char, char)
FUNC c1e3c 10 0 fmt::v11::detail::formatbuf<std::__ndk1::basic_streambuf<char, std::__ndk1::char_traits<char> > >::~formatbuf()
FUNC c1e4c a0 0 fmt::v11::detail::formatbuf<std::__ndk1::basic_streambuf<char, std::__ndk1::char_traits<char> > >::xsputn(char const*, int)
FUNC c1eec 2a 0 fmt::v11::detail::formatbuf<std::__ndk1::basic_streambuf<char, std::__ndk1::char_traits<char> > >::overflow(int)
FUNC c1f16 4c 0 fmt::v11::basic_memory_buffer<char, (unsigned int)128, std::__ndk1::allocator<char> >::grow(fmt::v11::detail::buffer<char>&, unsigned int)
FUNC c1f62 26 0 fmt::v11::detail::tm_writer<std::__ndk1::back_insert_iterator<fmt::v11::basic_memory_buffer<char, (unsigned int)500, std::__ndk1::allocator<char> > >, char, std::__ndk1::chrono::duration<long long, std::__ndk1::ratio<(long long)1, (long long)1> > >::on_12_hour(fmt::v11::detail::numeric_system, fmt::v11::detail::pad_type)
FUNC c1f88 18 0 fmt::v11::detail::tm_writer<std::__ndk1::back_insert_iterator<fmt::v11::basic_memory_buffer<char, (unsigned int)500, std::__ndk1::allocator<char> > >, char, std::__ndk1::chrono::duration<long long, std::__ndk1::ratio<(long long)1, (long long)1> > >::on_minute(fmt::v11::detail::numeric_system, fmt::v11::detail::pad_type)
FUNC c1fa0 18 0 fmt::v11::detail::tm_writer<std::__ndk1::back_insert_iterator<fmt::v11::basic_memory_buffer<char, (unsigned int)500, std::__ndk1::allocator<char> > >, char, std::__ndk1::chrono::duration<long long, std::__ndk1::ratio<(long long)1, (long long)1> > >::on_second(fmt::v11::detail::numeric_system, fmt::v11::detail::pad_type)
FUNC c1fb8 144 0 fmt::v11::detail::chrono_formatter<fmt::v11::context, std::__ndk1::back_insert_iterator<fmt::v11::basic_memory_buffer<char, (unsigned int)500, std::__ndk1::allocator<char> > >, int, std::__ndk1::ratio<(long long)1, (long long)1> >::format_tm<void (fmt::v11::detail::tm_writer<std::__ndk1::back_insert_iterator<fmt::v11::basic_memory_buffer<char, (unsigned int)500, std::__ndk1::allocator<char> > >, char, std::__ndk1::chrono::duration<long long, std::__ndk1::ratio<(long long)1, (long long)1> > >::*)(), >(tm const&, void (fmt::v11::detail::tm_writer<std::__ndk1::back_insert_iterator<fmt::v11::basic_memory_buffer<char, (unsigned int)500, std::__ndk1::allocator<char> > >, char, std::__ndk1::chrono::duration<long long, std::__ndk1::ratio<(long long)1, (long long)1> > >::*)(), )
FUNC c20fc 1c8 0 fmt::v11::detail::tm_writer<std::__ndk1::back_insert_iterator<fmt::v11::basic_memory_buffer<char, (unsigned int)500, std::__ndk1::allocator<char> > >, char, std::__ndk1::chrono::duration<long long, std::__ndk1::ratio<(long long)1, (long long)1> > >::on_12_hour_time()
FUNC c22c4 64 0 fmt::v11::detail::tm_writer<std::__ndk1::back_insert_iterator<fmt::v11::basic_memory_buffer<char, (unsigned int)500, std::__ndk1::allocator<char> > >, char, std::__ndk1::chrono::duration<long long, std::__ndk1::ratio<(long long)1, (long long)1> > >::on_am_pm()
FUNC c2328 118 0 fmt::v11::detail::write_escaped_string<char, fmt::v11::detail::counting_iterator>(fmt::v11::detail::counting_iterator, fmt::v11::basic_string_view<char>)
FUNC c2440 120 0 fmt::v11::detail::write_padded<char, (fmt::v11::align::type)1, fmt::v11::basic_appender<char>, fmt::v11::detail::write<char, fmt::v11::basic_appender<char> >(fmt::v11::basic_appender<char>, fmt::v11::basic_string_view<char>, fmt::v11::format_specs const&)::{lambda(fmt::v11::basic_appender<char>)#1}>(fmt::v11::basic_appender<char>, fmt::v11::format_specs const&, unsigned int, unsigned int, fmt::v11::detail::write<char, fmt::v11::basic_appender<char> >(fmt::v11::basic_appender<char>, fmt::v11::basic_string_view<char>, fmt::v11::format_specs const&)::{lambda(fmt::v11::basic_appender<char>&&)#1})
FUNC c2560 2c4 0 fmt::v11::detail::for_each_codepoint<fmt::v11::detail::code_point_index(fmt::v11::basic_string_view<char>, unsigned int)::{lambda(unsigned int, fmt::v11::basic_string_view<char>)#1}>(fmt::v11::basic_string_view<char>, fmt::v11::detail::code_point_index(fmt::v11::basic_string_view<char>, unsigned int)::{lambda(unsigned int, fmt::v11::basic_string_view<char>)#1})
FUNC c2824 10c 0 fmt::v11::detail::write_escaped_cp<fmt::v11::detail::counting_iterator, char>(fmt::v11::detail::counting_iterator, fmt::v11::detail::find_escape_result<char> const&)
FUNC c2930 124 0 fmt::v11::detail::for_each_codepoint<fmt::v11::detail::find_escape(char const*, char const*)::{lambda(unsigned int, fmt::v11::basic_string_view<char>)#1}>(fmt::v11::basic_string_view<char>, fmt::v11::detail::find_escape(char const*, char const*)::{lambda(unsigned int, fmt::v11::basic_string_view<char>)#1})::{lambda(char const*, char const*)#1}::operator()(char const*, char const*) const
FUNC c2a60 1e4 0 fmt::v11::detail::for_each_codepoint<fmt::v11::detail::compute_width(fmt::v11::basic_string_view<char>)::count_code_points>(fmt::v11::basic_string_view<char>, fmt::v11::detail::compute_width(fmt::v11::basic_string_view<char>)::count_code_points)::{lambda(char const*, char const*)#1}::operator()(char const*, char const*) const
FUNC c2c44 fa 0 fmt::v11::detail::fill<char, fmt::v11::basic_appender<char> >(fmt::v11::basic_appender<char>, unsigned int, fmt::v11::detail::fill_t const&)
FUNC c2d40 1e4 0 fmt::v11::detail::write_escaped_string<char, fmt::v11::basic_appender<char> >(fmt::v11::basic_appender<char>, fmt::v11::basic_string_view<char>)
FUNC c2f24 118 0 fmt::v11::detail::write_escaped_cp<fmt::v11::basic_appender<char>, char>(fmt::v11::basic_appender<char>, fmt::v11::detail::find_escape_result<char> const&)
FUNC c303c e0 0 fmt::v11::detail::write_codepoint<(unsigned int)2, char, fmt::v11::basic_appender<char> >(fmt::v11::basic_appender<char>, char, unsigned int)
FUNC c311c dc 0 fmt::v11::detail::write_codepoint<(unsigned int)4, char, fmt::v11::basic_appender<char> >(fmt::v11::basic_appender<char>, char, unsigned int)
FUNC c31f8 e0 0 fmt::v11::detail::write_codepoint<(unsigned int)8, char, fmt::v11::basic_appender<char> >(fmt::v11::basic_appender<char>, char, unsigned int)
FUNC c32e0 320 0 geode::modifier::ModifyDerive<CRLvlInfoLayer, LevelInfoLayer>::apply()
FUNC c3600 2 0 geode::modifier::ModifyBase<geode::modifier::ModifyDerive<CRLvlInfoLayer, LevelInfoLayer> >::apply()
FUNC c3602 4 0 geode::modifier::AsStaticFunction_onPlay<CRLvlInfoLayer, void (CRLvlInfoLayer::*)(cocos2d::CCObject*)>::Impl<void (CRLvlInfoLayer::*)(cocos2d::CCObject*)>::function(CRLvlInfoLayer*, cocos2d::CCObject*)
FUNC c3608 1a8 0 CRLvlInfoLayer::onPlay(cocos2d::CCObject*)
FUNC c37b0 118 0 geode::modifier::FieldIntermediate<CRLvlInfoLayer, LevelInfoLayer>::self()
FUNC c38c8 2 0 geode::modifier::FieldIntermediate<CRLvlInfoLayer, LevelInfoLayer>::fieldDestructor(void*)
FUNC c38ca 4 0 std::__ndk1::__function::__func<CRLvlInfoLayer::onPlay(cocos2d::CCObject*)::{lambda(auto:1, bool)#1}, std::__ndk1::allocator<CRLvlInfoLayer::onPlay(cocos2d::CCObject*)::{lambda(auto:1, bool)#1}>, void (FLAlertLayer*, bool)>::~__func()
FUNC c38d0 20 0 std::__ndk1::__function::__func<CRLvlInfoLayer::onPlay(cocos2d::CCObject*)::{lambda(auto:1, bool)#1}, std::__ndk1::allocator<CRLvlInfoLayer::onPlay(cocos2d::CCObject*)::{lambda(auto:1, bool)#1}>, void (FLAlertLayer*, bool)>::__clone() const
FUNC c38f0 18 0 std::__ndk1::__function::__func<CRLvlInfoLayer::onPlay(cocos2d::CCObject*)::{lambda(auto:1, bool)#1}, std::__ndk1::allocator<CRLvlInfoLayer::onPlay(cocos2d::CCObject*)::{lambda(auto:1, bool)#1}>, void (FLAlertLayer*, bool)>::__clone(std::__ndk1::__function::__base<void (FLAlertLayer*, bool)>*) const
FUNC c3908 2 0 std::__ndk1::__function::__func<CRLvlInfoLayer::onPlay(cocos2d::CCObject*)::{lambda(auto:1, bool)#1}, std::__ndk1::allocator<CRLvlInfoLayer::onPlay(cocos2d::CCObject*)::{lambda(auto:1, bool)#1}>, void (FLAlertLayer*, bool)>::destroy()
FUNC c390a 4 0 std::__ndk1::__function::__func<CRLvlInfoLayer::onPlay(cocos2d::CCObject*)::{lambda(auto:1, bool)#1}, std::__ndk1::allocator<CRLvlInfoLayer::onPlay(cocos2d::CCObject*)::{lambda(auto:1, bool)#1}>, void (FLAlertLayer*, bool)>::destroy_deallocate()
FUNC c390e 2a 0 std::__ndk1::__function::__func<CRLvlInfoLayer::onPlay(cocos2d::CCObject*)::{lambda(auto:1, bool)#1}, std::__ndk1::allocator<CRLvlInfoLayer::onPlay(cocos2d::CCObject*)::{lambda(auto:1, bool)#1}>, void (FLAlertLayer*, bool)>::operator()(FLAlertLayer*&&, bool&&)
FUNC c3938 18 0 std::__ndk1::__function::__func<CRLvlInfoLayer::onPlay(cocos2d::CCObject*)::{lambda(auto:1, bool)#1}, std::__ndk1::allocator<CRLvlInfoLayer::onPlay(cocos2d::CCObject*)::{lambda(auto:1, bool)#1}>, void (FLAlertLayer*, bool)>::target(std::type_info const&) const
FUNC c3950 c 0 std::__ndk1::__function::__func<CRLvlInfoLayer::onPlay(cocos2d::CCObject*)::{lambda(auto:1, bool)#1}, std::__ndk1::allocator<CRLvlInfoLayer::onPlay(cocos2d::CCObject*)::{lambda(auto:1, bool)#1}>, void (FLAlertLayer*, bool)>::target_type() const
FUNC c3960 320 0 geode::modifier::ModifyDerive<hook216<(anonymous namespace)::hook216Parent>, EditorPauseLayer>::apply()
FUNC c3c80 2 0 geode::modifier::ModifyBase<geode::modifier::ModifyDerive<hook216<(anonymous namespace)::hook216Parent>, EditorPauseLayer> >::apply()
FUNC c3c84 238 0 geode::modifier::AsStaticFunction_init<hook216<(anonymous namespace)::hook216Parent>, bool (hook216<(anonymous namespace)::hook216Parent>::*)(LevelEditorLayer*)>::Impl<bool (hook216<(anonymous namespace)::hook216Parent>::*)(LevelEditorLayer*)>::function(hook216<(anonymous namespace)::hook216Parent>*, LevelEditorLayer*)
FUNC c3ebc 4 0 std::__ndk1::__function::__func<hook216<(anonymous namespace)::hook216Parent>::init(LevelEditorLayer*)::{lambda(cocos2d::CCObject*)#1}, std::__ndk1::allocator<hook216<(anonymous namespace)::hook216Parent>::init(LevelEditorLayer*)::{lambda(cocos2d::CCObject*)#1}>, void (CCMenuItemSpriteExtra*)>::~__func()
FUNC c3ec0 18 0 std::__ndk1::__function::__func<hook216<(anonymous namespace)::hook216Parent>::init(LevelEditorLayer*)::{lambda(cocos2d::CCObject*)#1}, std::__ndk1::allocator<hook216<(anonymous namespace)::hook216Parent>::init(LevelEditorLayer*)::{lambda(cocos2d::CCObject*)#1}>, void (CCMenuItemSpriteExtra*)>::__clone() const
FUNC c3ed8 10 0 std::__ndk1::__function::__func<hook216<(anonymous namespace)::hook216Parent>::init(LevelEditorLayer*)::{lambda(cocos2d::CCObject*)#1}, std::__ndk1::allocator<hook216<(anonymous namespace)::hook216Parent>::init(LevelEditorLayer*)::{lambda(cocos2d::CCObject*)#1}>, void (CCMenuItemSpriteExtra*)>::__clone(std::__ndk1::__function::__base<void (CCMenuItemSpriteExtra*)>*) const
FUNC c3ee8 2 0 std::__ndk1::__function::__func<hook216<(anonymous namespace)::hook216Parent>::init(LevelEditorLayer*)::{lambda(cocos2d::CCObject*)#1}, std::__ndk1::allocator<hook216<(anonymous namespace)::hook216Parent>::init(LevelEditorLayer*)::{lambda(cocos2d::CCObject*)#1}>, void (CCMenuItemSpriteExtra*)>::destroy()
FUNC c3eea 4 0 std::__ndk1::__function::__func<hook216<(anonymous namespace)::hook216Parent>::init(LevelEditorLayer*)::{lambda(cocos2d::CCObject*)#1}, std::__ndk1::allocator<hook216<(anonymous namespace)::hook216Parent>::init(LevelEditorLayer*)::{lambda(cocos2d::CCObject*)#1}>, void (CCMenuItemSpriteExtra*)>::destroy_deallocate()
FUNC c3eee 14 0 std::__ndk1::__function::__func<hook216<(anonymous namespace)::hook216Parent>::init(LevelEditorLayer*)::{lambda(cocos2d::CCObject*)#1}, std::__ndk1::allocator<hook216<(anonymous namespace)::hook216Parent>::init(LevelEditorLayer*)::{lambda(cocos2d::CCObject*)#1}>, void (CCMenuItemSpriteExtra*)>::operator()(CCMenuItemSpriteExtra*&&)
FUNC c3f04 18 0 std::__ndk1::__function::__func<hook216<(anonymous namespace)::hook216Parent>::init(LevelEditorLayer*)::{lambda(cocos2d::CCObject*)#1}, std::__ndk1::allocator<hook216<(anonymous namespace)::hook216Parent>::init(LevelEditorLayer*)::{lambda(cocos2d::CCObject*)#1}>, void (CCMenuItemSpriteExtra*)>::target(std::type_info const&) const
FUNC c3f1c c 0 std::__ndk1::__function::__func<hook216<(anonymous namespace)::hook216Parent>::init(LevelEditorLayer*)::{lambda(cocos2d::CCObject*)#1}, std::__ndk1::allocator<hook216<(anonymous namespace)::hook216Parent>::init(LevelEditorLayer*)::{lambda(cocos2d::CCObject*)#1}>, void (CCMenuItemSpriteExtra*)>::target_type() const
FUNC c3f28 3cc 0 AuthManager::AuthManager()
FUNC c42f4 a40 0 AuthManager::beginAuthorization(std::__ndk1::function<void ()>)
FUNC c4d34 7e 0 cr::utils::createAccountType()
FUNC c4db4 ac4 0 AuthManager::login(std::__ndk1::function<void ()>)
FUNC c5878 1c4 0 AuthManager::getToken()
FUNC c5a3c 7bc 0 AuthManager::uploadMessageFinished(int)
FUNC c61f8 64 0 AuthManager::uploadMessageFailed(int)
FUNC c625c 60 0 geode::impl::ResultData<std::__ndk1::basic_string<char, std::__ndk1::char_traits<char>, std::__ndk1::allocator<char> >, std::__ndk1::basic_string<char, std::__ndk1::char_traits<char>, std::__ndk1::allocator<char> > >::~ResultData()
FUNC c62bc e 0 std::__ndk1::__variant_detail::__visitation::__base::__dispatcher<(unsigned int)0>::__dispatch[abi:ne180000]<std::__ndk1::__variant_detail::__dtor<std::__ndk1::__variant_detail::__traits<std::__ndk1::basic_string<char, std::__ndk1::char_traits<char>, std::__ndk1::allocator<char> >, std::__ndk1::allocator<char> >, (std::__ndk1::__variant_detail::_Trait)1>::__destroy[abi:ne180000]()::{lambda(auto:1&)#1}, std::__ndk1::__variant_detail::__base<(std::__ndk1::__variant_detail::__traits<std::__ndk1::basic_string<char, std::__ndk1::char_traits<char>, std::__ndk1::allocator<char> >, std::__ndk1::allocator<char> >)1, std::__ndk1::allocator<char>, std::__ndk1::allocator<char> >&>(std::__ndk1::__variant_detail::__dtor<std::__ndk1::__variant_detail::__traits<std::__ndk1::basic_string<char, std::__ndk1::char_traits<char>, std::__ndk1::allocator<char> >, std::__ndk1::allocator<char> >, (std::__ndk1::__variant_detail::_Trait)1>, std::__ndk1::__variant_detail::__base<(std::__ndk1::__variant_detail::__traits<std::__ndk1::basic_string<char, std::__ndk1::char_traits<char>, std::__ndk1::allocator<char> >, std::__ndk1::allocator<char> >)1, std::__ndk1::allocator<char>, std::__ndk1::allocator<char> >&)
FUNC c62ca e 0 std::__ndk1::__variant_detail::__visitation::__base::__dispatcher<(unsigned int)1>::__dispatch[abi:ne180000]<std::__ndk1::__variant_detail::__dtor<std::__ndk1::__variant_detail::__traits<std::__ndk1::basic_string<char, std::__ndk1::char_traits<char>, std::__ndk1::allocator<char> >, std::__ndk1::allocator<char> >, (std::__ndk1::__variant_detail::_Trait)1>::__destroy[abi:ne180000]()::{lambda(auto:1&)#1}, std::__ndk1::__variant_detail::__base<(std::__ndk1::__variant_detail::__traits<std::__ndk1::basic_string<char, std::__ndk1::char_traits<char>, std::__ndk1::allocator<char> >, std::__ndk1::allocator<char> >)1, std::__ndk1::allocator<char>, std::__ndk1::allocator<char> >&>(std::__ndk1::__variant_detail::__dtor<std::__ndk1::__variant_detail::__traits<std::__ndk1::basic_string<char, std::__ndk1::char_traits<char>, std::__ndk1::allocator<char> >, std::__ndk1::allocator<char> >, (std::__ndk1::__variant_detail::_Trait)1>, std::__ndk1::__variant_detail::__base<(std::__ndk1::__variant_detail::__traits<std::__ndk1::basic_string<char, std::__ndk1::char_traits<char>, std::__ndk1::allocator<char> >, std::__ndk1::allocator<char> >)1, std::__ndk1::allocator<char>, std::__ndk1::allocator<char> >&)
FUNC c62d8 34 0 _ZNSt6__ndk110__function6__funcIZN14NetworkManager2onI18InvalidTokenPacketQsr3stdE12is_base_of_vI6PacketT_EEEvNS_8functionIFvPS6_EEEbEUlNS_12basic_stringIcNS_11char_traitsIcEENS_9allocatorIcEEEEE_NSE_ISH_EEFvSG_EED2Ev
FUNC c630c 38 0 _ZNSt6__ndk110__function6__funcIZN14NetworkManager2onI18InvalidTokenPacketQsr3stdE12is_base_of_vI6PacketT_EEEvNS_8functionIFvPS6_EEEbEUlNS_12basic_stringIcNS_11char_traitsIcEENS_9allocatorIcEEEEE_NSE_ISH_EEFvSG_EED0Ev
FUNC c6344 54 0 _ZNKSt6__ndk110__function6__funcIZN14NetworkManager2onI18InvalidTokenPacketQsr3stdE12is_base_of_vI6PacketT_EEEvNS_8functionIFvPS6_EEEbEUlNS_12basic_stringIcNS_11char_traitsIcEENS_9allocatorIcEEEEE_NSE_ISH_EEFvSG_EE7__cloneEv
FUNC c6398 44 0 _ZNKSt6__ndk110__function6__funcIZN14NetworkManager2onI18InvalidTokenPacketQsr3stdE12is_base_of_vI6PacketT_EEEvNS_8functionIFvPS6_EEEbEUlNS_12basic_stringIcNS_11char_traitsIcEENS_9allocatorIcEEEEE_NSE_ISH_EEFvSG_EE7__cloneEPNS0_6__baseISJ_EE
FUNC c63dc 1e 0 _ZNSt6__ndk110__function6__funcIZN14NetworkManager2onI18InvalidTokenPacketQsr3stdE12is_base_of_vI6PacketT_EEEvNS_8functionIFvPS6_EEEbEUlNS_12basic_stringIcNS_11char_traitsIcEENS_9allocatorIcEEEEE_NSE_ISH_EEFvSG_EE7destroyEv
FUNC c63fa 2a 0 _ZNSt6__ndk110__function6__funcIZN14NetworkManager2onI18InvalidTokenPacketQsr3stdE12is_base_of_vI6PacketT_EEEvNS_8functionIFvPS6_EEEbEUlNS_12basic_stringIcNS_11char_traitsIcEENS_9allocatorIcEEEEE_NSE_ISH_EEFvSG_EE18destroy_deallocateEv
FUNC c6424 27c 0 _ZNSt6__ndk110__function6__funcIZN14NetworkManager2onI18InvalidTokenPacketQsr3stdE12is_base_of_vI6PacketT_EEEvNS_8functionIFvPS6_EEEbEUlNS_12basic_stringIcNS_11char_traitsIcEENS_9allocatorIcEEEEE_NSE_ISH_EEFvSG_EEclEOSG_
FUNC c66a0 18 0 _ZNKSt6__ndk110__function6__funcIZN14NetworkManager2onI18InvalidTokenPacketQsr3stdE12is_base_of_vI6PacketT_EEEvNS_8functionIFvPS6_EEEbEUlNS_12basic_stringIcNS_11char_traitsIcEENS_9allocatorIcEEEEE_NSE_ISH_EEFvSG_EE6targetERKSt9type_info
FUNC c66b8 c 0 _ZNKSt6__ndk110__function6__funcIZN14NetworkManager2onI18InvalidTokenPacketQsr3stdE12is_base_of_vI6PacketT_EEEvNS_8functionIFvPS6_EEEbEUlNS_12basic_stringIcNS_11char_traitsIcEENS_9allocatorIcEEEEE_NSE_ISH_EEFvSG_EE11target_typeEv
FUNC c66c4 2 0 InvalidTokenPacket::decode(std::__ndk1::basic_string<char, std::__ndk1::char_traits<char>, std::__ndk1::allocator<char> >)
FUNC c66c6 6 0 InvalidTokenPacket::getPacketID() const
FUNC c66cc c 0 InvalidTokenPacket::getPacketName() const
FUNC c66d8 34 0 _ZNSt6__ndk110__function6__funcIZZN14NetworkManager2onI18InvalidTokenPacketQsr3stdE12is_base_of_vI6PacketT_EEEvNS_8functionIFvPS6_EEEbENKUlNS_12basic_stringIcNS_11char_traitsIcEENS_9allocatorIcEEEEE_clESG_EUlvE_NSE_ISI_EEFvvEED2Ev
FUNC c670c 38 0 _ZNSt6__ndk110__function6__funcIZZN14NetworkManager2onI18InvalidTokenPacketQsr3stdE12is_base_of_vI6PacketT_EEEvNS_8functionIFvPS6_EEEbENKUlNS_12basic_stringIcNS_11char_traitsIcEENS_9allocatorIcEEEEE_clESG_EUlvE_NSE_ISI_EEFvvEED0Ev
FUNC c6744 54 0 _ZNKSt6__ndk110__function6__funcIZZN14NetworkManager2onI18InvalidTokenPacketQsr3stdE12is_base_of_vI6PacketT_EEEvNS_8functionIFvPS6_EEEbENKUlNS_12basic_stringIcNS_11char_traitsIcEENS_9allocatorIcEEEEE_clESG_EUlvE_NSE_ISI_EEFvvEE7__cloneEv
FUNC c6798 44 0 _ZNKSt6__ndk110__function6__funcIZZN14NetworkManager2onI18InvalidTokenPacketQsr3stdE12is_base_of_vI6PacketT_EEEvNS_8functionIFvPS6_EEEbENKUlNS_12basic_stringIcNS_11char_traitsIcEENS_9allocatorIcEEEEE_clESG_EUlvE_NSE_ISI_EEFvvEE7__cloneEPNS0_6__baseISK_EE
FUNC c67dc 1e 0 _ZNSt6__ndk110__function6__funcIZZN14NetworkManager2onI18InvalidTokenPacketQsr3stdE12is_base_of_vI6PacketT_EEEvNS_8functionIFvPS6_EEEbENKUlNS_12basic_stringIcNS_11char_traitsIcEENS_9allocatorIcEEEEE_clESG_EUlvE_NSE_ISI_EEFvvEE7destroyEv
FUNC c67fa 2a 0 _ZNSt6__ndk110__function6__funcIZZN14NetworkManager2onI18InvalidTokenPacketQsr3stdE12is_base_of_vI6PacketT_EEEvNS_8functionIFvPS6_EEEbENKUlNS_12basic_stringIcNS_11char_traitsIcEENS_9allocatorIcEEEEE_clESG_EUlvE_NSE_ISI_EEFvvEE18destroy_deallocateEv
FUNC c6824 44 0 _ZNSt6__ndk110__function6__funcIZZN14NetworkManager2onI18InvalidTokenPacketQsr3stdE12is_base_of_vI6PacketT_EEEvNS_8functionIFvPS6_EEEbENKUlNS_12basic_stringIcNS_11char_traitsIcEENS_9allocatorIcEEEEE_clESG_EUlvE_NSE_ISI_EEFvvEEclEv
FUNC c6868 18 0 _ZNKSt6__ndk110__function6__funcIZZN14NetworkManager2onI18InvalidTokenPacketQsr3stdE12is_base_of_vI6PacketT_EEEvNS_8functionIFvPS6_EEEbENKUlNS_12basic_stringIcNS_11char_traitsIcEENS_9allocatorIcEEEEE_clESG_EUlvE_NSE_ISI_EEFvvEE6targetERKSt9type_info
FUNC c6880 c 0 _ZNKSt6__ndk110__function6__funcIZZN14NetworkManager2onI18InvalidTokenPacketQsr3stdE12is_base_of_vI6PacketT_EEEvNS_8functionIFvPS6_EEEbENKUlNS_12basic_stringIcNS_11char_traitsIcEENS_9allocatorIcEEEEE_clESG_EUlvE_NSE_ISI_EEFvvEE11target_typeEv
FUNC c688c 2 0 std::__ndk1::__function::__base<void (InvalidTokenPacket*)>::~__base()
FUNC c688e 4 0 std::__ndk1::__function::__func<AuthManager::AuthManager()::$_0, std::__ndk1::allocator<AuthManager::AuthManager()::$_0>, void (InvalidTokenPacket*)>::~__func()
FUNC c6894 20 0 std::__ndk1::__function::__func<AuthManager::AuthManager()::$_0, std::__ndk1::allocator<AuthManager::AuthManager()::$_0>, void (InvalidTokenPacket*)>::__clone() const
FUNC c68b4 14 0 std::__ndk1::__function::__func<AuthManager::AuthManager()::$_0, std::__ndk1::allocator<AuthManager::AuthManager()::$_0>, void (InvalidTokenPacket*)>::__clone(std::__ndk1::__function::__base<void (InvalidTokenPacket*)>*) const
FUNC c68c8 2 0 std::__ndk1::__function::__func<AuthManager::AuthManager()::$_0, std::__ndk1::allocator<AuthManager::AuthManager()::$_0>, void (InvalidTokenPacket*)>::destroy()
FUNC c68ca 4 0 std::__ndk1::__function::__func<AuthManager::AuthManager()::$_0, std::__ndk1::allocator<AuthManager::AuthManager()::$_0>, void (InvalidTokenPacket*)>::destroy_deallocate()
FUNC c68d0 ec 0 std::__ndk1::__function::__func<AuthManager::AuthManager()::$_0, std::__ndk1::allocator<AuthManager::AuthManager()::$_0>, void (InvalidTokenPacket*)>::operator()(InvalidTokenPacket*&&)
FUNC c69bc 18 0 std::__ndk1::__function::__func<AuthManager::AuthManager()::$_0, std::__ndk1::allocator<AuthManager::AuthManager()::$_0>, void (InvalidTokenPacket*)>::target(std::type_info const&) const
FUNC c69d4 c 0 std::__ndk1::__function::__func<AuthManager::AuthManager()::$_0, std::__ndk1::allocator<AuthManager::AuthManager()::$_0>, void (InvalidTokenPacket*)>::target_type() const
FUNC c69e0 4 0 std::__ndk1::__function::__func<AuthManager::AuthManager()::$_0::operator()(InvalidTokenPacket*) const::{lambda(auto:1, bool)#1}, std::__ndk1::allocator<AuthManager::AuthManager()::$_0::operator()(InvalidTokenPacket*) const::{lambda(auto:1, bool)#1}>, void (FLAlertLayer*, bool)>::~__func()
FUNC c69e4 20 0 std::__ndk1::__function::__func<AuthManager::AuthManager()::$_0::operator()(InvalidTokenPacket*) const::{lambda(auto:1, bool)#1}, std::__ndk1::allocator<AuthManager::AuthManager()::$_0::operator()(InvalidTokenPacket*) const::{lambda(auto:1, bool)#1}>, void (FLAlertLayer*, bool)>::__clone() const
FUNC c6a04 14 0 std::__ndk1::__function::__func<AuthManager::AuthManager()::$_0::operator()(InvalidTokenPacket*) const::{lambda(auto:1, bool)#1}, std::__ndk1::allocator<AuthManager::AuthManager()::$_0::operator()(InvalidTokenPacket*) const::{lambda(auto:1, bool)#1}>, void (FLAlertLayer*, bool)>::__clone(std::__ndk1::__function::__base<void (FLAlertLayer*, bool)>*) const
FUNC c6a18 2 0 std::__ndk1::__function::__func<AuthManager::AuthManager()::$_0::operator()(InvalidTokenPacket*) const::{lambda(auto:1, bool)#1}, std::__ndk1::allocator<AuthManager::AuthManager()::$_0::operator()(InvalidTokenPacket*) const::{lambda(auto:1, bool)#1}>, void (FLAlertLayer*, bool)>::destroy()
FUNC c6a1a 4 0 std::__ndk1::__function::__func<AuthManager::AuthManager()::$_0::operator()(InvalidTokenPacket*) const::{lambda(auto:1, bool)#1}, std::__ndk1::allocator<AuthManager::AuthManager()::$_0::operator()(InvalidTokenPacket*) const::{lambda(auto:1, bool)#1}>, void (FLAlertLayer*, bool)>::destroy_deallocate()
FUNC c6a20 84 0 std::__ndk1::__function::__func<AuthManager::AuthManager()::$_0::operator()(InvalidTokenPacket*) const::{lambda(auto:1, bool)#1}, std::__ndk1::allocator<AuthManager::AuthManager()::$_0::operator()(InvalidTokenPacket*) const::{lambda(auto:1, bool)#1}>, void (FLAlertLayer*, bool)>::operator()(FLAlertLayer*&&, bool&&)
FUNC c6aa4 18 0 std::__ndk1::__function::__func<AuthManager::AuthManager()::$_0::operator()(InvalidTokenPacket*) const::{lambda(auto:1, bool)#1}, std::__ndk1::allocator<AuthManager::AuthManager()::$_0::operator()(InvalidTokenPacket*) const::{lambda(auto:1, bool)#1}>, void (FLAlertLayer*, bool)>::target(std::type_info const&) const
FUNC c6abc c 0 std::__ndk1::__function::__func<AuthManager::AuthManager()::$_0::operator()(InvalidTokenPacket*) const::{lambda(auto:1, bool)#1}, std::__ndk1::allocator<AuthManager::AuthManager()::$_0::operator()(InvalidTokenPacket*) const::{lambda(auto:1, bool)#1}>, void (FLAlertLayer*, bool)>::target_type() const
FUNC c6ac8 4 0 std::__ndk1::__function::__func<AuthManager::AuthManager()::$_0::operator()(InvalidTokenPacket*) const::{lambda(auto:1, bool)#1}::operator()<FLAlertLayer*>(FLAlertLayer*, bool) const::{lambda()#1}, std::__ndk1::allocator<AuthManager::AuthManager()::$_0::operator()(InvalidTokenPacket*) const::{lambda(auto:1, bool)#1}::operator()<FLAlertLayer*>(FLAlertLayer*, bool) const::{lambda()#1}>, void ()>::~__func()
FUNC c6acc 18 0 std::__ndk1::__function::__func<AuthManager::AuthManager()::$_0::operator()(InvalidTokenPacket*) const::{lambda(auto:1, bool)#1}::operator()<FLAlertLayer*>(FLAlertLayer*, bool) const::{lambda()#1}, std::__ndk1::allocator<AuthManager::AuthManager()::$_0::operator()(InvalidTokenPacket*) const::{lambda(auto:1, bool)#1}::operator()<FLAlertLayer*>(FLAlertLayer*, bool) const::{lambda()#1}>, void ()>::__clone() const
FUNC c6ae4 10 0 std::__ndk1::__function::__func<AuthManager::AuthManager()::$_0::operator()(InvalidTokenPacket*) const::{lambda(auto:1, bool)#1}::operator()<FLAlertLayer*>(FLAlertLayer*, bool) const::{lambda()#1}, std::__ndk1::allocator<AuthManager::AuthManager()::$_0::operator()(InvalidTokenPacket*) const::{lambda(auto:1, bool)#1}::operator()<FLAlertLayer*>(FLAlertLayer*, bool) const::{lambda()#1}>, void ()>::__clone(std::__ndk1::__function::__base<void ()>*) const
FUNC c6af4 2 0 std::__ndk1::__function::__func<AuthManager::AuthManager()::$_0::operator()(InvalidTokenPacket*) const::{lambda(auto:1, bool)#1}::operator()<FLAlertLayer*>(FLAlertLayer*, bool) const::{lambda()#1}, std::__ndk1::allocator<AuthManager::AuthManager()::$_0::operator()(InvalidTokenPacket*) const::{lambda(auto:1, bool)#1}::operator()<FLAlertLayer*>(FLAlertLayer*, bool) const::{lambda()#1}>, void ()>::destroy()
FUNC c6af6 4 0 std::__ndk1::__function::__func<AuthManager::AuthManager()::$_0::operator()(InvalidTokenPacket*) const::{lambda(auto:1, bool)#1}::operator()<FLAlertLayer*>(FLAlertLayer*, bool) const::{lambda()#1}, std::__ndk1::allocator<AuthManager::AuthManager()::$_0::operator()(InvalidTokenPacket*) const::{lambda(auto:1, bool)#1}::operator()<FLAlertLayer*>(FLAlertLayer*, bool) const::{lambda()#1}>, void ()>::destroy_deallocate()
FUNC c6afa 2 0 std::__ndk1::__function::__func<AuthManager::AuthManager()::$_0::operator()(InvalidTokenPacket*) const::{lambda(auto:1, bool)#1}::operator()<FLAlertLayer*>(FLAlertLayer*, bool) const::{lambda()#1}, std::__ndk1::allocator<AuthManager::AuthManager()::$_0::operator()(InvalidTokenPacket*) const::{lambda(auto:1, bool)#1}::operator()<FLAlertLayer*>(FLAlertLayer*, bool) const::{lambda()#1}>, void ()>::operator()()
FUNC c6afc 18 0 std::__ndk1::__function::__func<AuthManager::AuthManager()::$_0::operator()(InvalidTokenPacket*) const::{lambda(auto:1, bool)#1}::operator()<FLAlertLayer*>(FLAlertLayer*, bool) const::{lambda()#1}, std::__ndk1::allocator<AuthManager::AuthManager()::$_0::operator()(InvalidTokenPacket*) const::{lambda(auto:1, bool)#1}::operator()<FLAlertLayer*>(FLAlertLayer*, bool) const::{lambda()#1}>, void ()>::target(std::type_info const&) const
FUNC c6b14 c 0 std::__ndk1::__function::__func<AuthManager::AuthManager()::$_0::operator()(InvalidTokenPacket*) const::{lambda(auto:1, bool)#1}::operator()<FLAlertLayer*>(FLAlertLayer*, bool) const::{lambda()#1}, std::__ndk1::allocator<AuthManager::AuthManager()::$_0::operator()(InvalidTokenPacket*) const::{lambda(auto:1, bool)#1}::operator()<FLAlertLayer*>(FLAlertLayer*, bool) const::{lambda()#1}>, void ()>::target_type() const
FUNC c6b20 34 0 _ZNSt6__ndk110__function6__funcIZN14NetworkManager2onI22LoginNotReceivedPacketQsr3stdE12is_base_of_vI6PacketT_EEEvNS_8functionIFvPS6_EEEbEUlNS_12basic_stringIcNS_11char_traitsIcEENS_9allocatorIcEEEEE_NSE_ISH_EEFvSG_EED2Ev
FUNC c6b54 38 0 _ZNSt6__ndk110__function6__funcIZN14NetworkManager2onI22LoginNotReceivedPacketQsr3stdE12is_base_of_vI6PacketT_EEEvNS_8functionIFvPS6_EEEbEUlNS_12basic_stringIcNS_11char_traitsIcEENS_9allocatorIcEEEEE_NSE_ISH_EEFvSG_EED0Ev
FUNC c6b8c 54 0 _ZNKSt6__ndk110__function6__funcIZN14NetworkManager2onI22LoginNotReceivedPacketQsr3stdE12is_base_of_vI6PacketT_EEEvNS_8functionIFvPS6_EEEbEUlNS_12basic_stringIcNS_11char_traitsIcEENS_9allocatorIcEEEEE_NSE_ISH_EEFvSG_EE7__cloneEv
FUNC c6be0 44 0 _ZNKSt6__ndk110__function6__funcIZN14NetworkManager2onI22LoginNotReceivedPacketQsr3stdE12is_base_of_vI6PacketT_EEEvNS_8functionIFvPS6_EEEbEUlNS_12basic_stringIcNS_11char_traitsIcEENS_9allocatorIcEEEEE_NSE_ISH_EEFvSG_EE7__cloneEPNS0_6__baseISJ_EE
FUNC c6c24 1e 0 _ZNSt6__ndk110__function6__funcIZN14NetworkManager2onI22LoginNotReceivedPacketQsr3stdE12is_base_of_vI6PacketT_EEEvNS_8functionIFvPS6_EEEbEUlNS_12basic_stringIcNS_11char_traitsIcEENS_9allocatorIcEEEEE_NSE_ISH_EEFvSG_EE7destroyEv
FUNC c6c42 2a 0 _ZNSt6__ndk110__function6__funcIZN14NetworkManager2onI22LoginNotReceivedPacketQsr3stdE12is_base_of_vI6PacketT_EEEvNS_8functionIFvPS6_EEEbEUlNS_12basic_stringIcNS_11char_traitsIcEENS_9allocatorIcEEEEE_NSE_ISH_EEFvSG_EE18destroy_deallocateEv
FUNC c6c6c 27c 0 _ZNSt6__ndk110__function6__funcIZN14NetworkManager2onI22LoginNotReceivedPacketQsr3stdE12is_base_of_vI6PacketT_EEEvNS_8functionIFvPS6_EEEbEUlNS_12basic_stringIcNS_11char_traitsIcEENS_9allocatorIcEEEEE_NSE_ISH_EEFvSG_EEclEOSG_
FUNC c6ee8 18 0 _ZNKSt6__ndk110__function6__funcIZN14NetworkManager2onI22LoginNotReceivedPacketQsr3stdE12is_base_of_vI6PacketT_EEEvNS_8functionIFvPS6_EEEbEUlNS_12basic_stringIcNS_11char_traitsIcEENS_9allocatorIcEEEEE_NSE_ISH_EEFvSG_EE6targetERKSt9type_info
FUNC c6f00 c 0 _ZNKSt6__ndk110__function6__funcIZN14NetworkManager2onI22LoginNotReceivedPacketQsr3stdE12is_base_of_vI6PacketT_EEEvNS_8functionIFvPS6_EEEbEUlNS_12basic_stringIcNS_11char_traitsIcEENS_9allocatorIcEEEEE_NSE_ISH_EEFvSG_EE11target_typeEv
FUNC c6f0c 2 0 LoginNotReceivedPacket::decode(std::__ndk1::basic_string<char, std::__ndk1::char_traits<char>, std::__ndk1::allocator<char> >)
FUNC c6f0e 6 0 LoginNotReceivedPacket::getPacketID() const
FUNC c6f14 c 0 LoginNotReceivedPacket::getPacketName() const
FUNC c6f20 34 0 _ZNSt6__ndk110__function6__funcIZZN14NetworkManager2onI22LoginNotReceivedPacketQsr3stdE12is_base_of_vI6PacketT_EEEvNS_8functionIFvPS6_EEEbENKUlNS_12basic_stringIcNS_11char_traitsIcEENS_9allocatorIcEEEEE_clESG_EUlvE_NSE_ISI_EEFvvEED2Ev
FUNC c6f54 38 0 _ZNSt6__ndk110__function6__funcIZZN14NetworkManager2onI22LoginNotReceivedPacketQsr3stdE12is_base_of_vI6PacketT_EEEvNS_8functionIFvPS6_EEEbENKUlNS_12basic_stringIcNS_11char_traitsIcEENS_9allocatorIcEEEEE_clESG_EUlvE_NSE_ISI_EEFvvEED0Ev
FUNC c6f8c 54 0 _ZNKSt6__ndk110__function6__funcIZZN14NetworkManager2onI22LoginNotReceivedPacketQsr3stdE12is_base_of_vI6PacketT_EEEvNS_8functionIFvPS6_EEEbENKUlNS_12basic_stringIcNS_11char_traitsIcEENS_9allocatorIcEEEEE_clESG_EUlvE_NSE_ISI_EEFvvEE7__cloneEv
FUNC c6fe0 44 0 _ZNKSt6__ndk110__function6__funcIZZN14NetworkManager2onI22LoginNotReceivedPacketQsr3stdE12is_base_of_vI6PacketT_EEEvNS_8functionIFvPS6_EEEbENKUlNS_12basic_stringIcNS_11char_traitsIcEENS_9allocatorIcEEEEE_clESG_EUlvE_NSE_ISI_EEFvvEE7__cloneEPNS0_6__baseISK_EE
FUNC c7024 1e 0 _ZNSt6__ndk110__function6__funcIZZN14NetworkManager2onI22LoginNotReceivedPacketQsr3stdE12is_base_of_vI6PacketT_EEEvNS_8functionIFvPS6_EEEbENKUlNS_12basic_stringIcNS_11char_traitsIcEENS_9allocatorIcEEEEE_clESG_EUlvE_NSE_ISI_EEFvvEE7destroyEv
FUNC c7042 2a 0 _ZNSt6__ndk110__function6__funcIZZN14NetworkManager2onI22LoginNotReceivedPacketQsr3stdE12is_base_of_vI6PacketT_EEEvNS_8functionIFvPS6_EEEbENKUlNS_12basic_stringIcNS_11char_traitsIcEENS_9allocatorIcEEEEE_clESG_EUlvE_NSE_ISI_EEFvvEE18destroy_deallocateEv
FUNC c706c 44 0 _ZNSt6__ndk110__function6__funcIZZN14NetworkManager2onI22LoginNotReceivedPacketQsr3stdE12is_base_of_vI6PacketT_EEEvNS_8functionIFvPS6_EEEbENKUlNS_12basic_stringIcNS_11char_traitsIcEENS_9allocatorIcEEEEE_clESG_EUlvE_NSE_ISI_EEFvvEEclEv
FUNC c70b0 18 0 _ZNKSt6__ndk110__function6__funcIZZN14NetworkManager2onI22LoginNotReceivedPacketQsr3stdE12is_base_of_vI6PacketT_EEEvNS_8functionIFvPS6_EEEbENKUlNS_12basic_stringIcNS_11char_traitsIcEENS_9allocatorIcEEEEE_clESG_EUlvE_NSE_ISI_EEFvvEE6targetERKSt9type_info
FUNC c70c8 c 0 _ZNKSt6__ndk110__function6__funcIZZN14NetworkManager2onI22LoginNotReceivedPacketQsr3stdE12is_base_of_vI6PacketT_EEEvNS_8functionIFvPS6_EEEbENKUlNS_12basic_stringIcNS_11char_traitsIcEENS_9allocatorIcEEEEE_clESG_EUlvE_NSE_ISI_EEFvvEE11target_typeEv
FUNC c70d4 2 0 std::__ndk1::__function::__base<void (LoginNotReceivedPacket*)>::~__base()
FUNC c70d6 4 0 std::__ndk1::__function::__func<AuthManager::AuthManager()::$_1, std::__ndk1::allocator<AuthManager::AuthManager()::$_1>, void (LoginNotReceivedPacket*)>::~__func()
FUNC c70dc 20 0 std::__ndk1::__function::__func<AuthManager::AuthManager()::$_1, std::__ndk1::allocator<AuthManager::AuthManager()::$_1>, void (LoginNotReceivedPacket*)>::__clone() const
FUNC c70fc 14 0 std::__ndk1::__function::__func<AuthManager::AuthManager()::$_1, std::__ndk1::allocator<AuthManager::AuthManager()::$_1>, void (LoginNotReceivedPacket*)>::__clone(std::__ndk1::__function::__base<void (LoginNotReceivedPacket*)>*) const
FUNC c7110 2 0 std::__ndk1::__function::__func<AuthManager::AuthManager()::$_1, std::__ndk1::allocator<AuthManager::AuthManager()::$_1>, void (LoginNotReceivedPacket*)>::destroy()
FUNC c7112 4 0 std::__ndk1::__function::__func<AuthManager::AuthManager()::$_1, std::__ndk1::allocator<AuthManager::AuthManager()::$_1>, void (LoginNotReceivedPacket*)>::destroy_deallocate()
FUNC c7118 ec 0 std::__ndk1::__function::__func<AuthManager::AuthManager()::$_1, std::__ndk1::allocator<AuthManager::AuthManager()::$_1>, void (LoginNotReceivedPacket*)>::operator()(LoginNotReceivedPacket*&&)
FUNC c7204 18 0 std::__ndk1::__function::__func<AuthManager::AuthManager()::$_1, std::__ndk1::allocator<AuthManager::AuthManager()::$_1>, void (LoginNotReceivedPacket*)>::target(std::type_info const&) const
FUNC c721c c 0 std::__ndk1::__function::__func<AuthManager::AuthManager()::$_1, std::__ndk1::allocator<AuthManager::AuthManager()::$_1>, void (LoginNotReceivedPacket*)>::target_type() const
FUNC c7228 4 0 std::__ndk1::__function::__func<AuthManager::AuthManager()::$_1::operator()(LoginNotReceivedPacket*) const::{lambda(auto:1, bool)#1}, std::__ndk1::allocator<AuthManager::AuthManager()::$_1::operator()(LoginNotReceivedPacket*) const::{lambda(auto:1, bool)#1}>, void (FLAlertLayer*, bool)>::~__func()
FUNC c722c 20 0 std::__ndk1::__function::__func<AuthManager::AuthManager()::$_1::operator()(LoginNotReceivedPacket*) const::{lambda(auto:1, bool)#1}, std::__ndk1::allocator<AuthManager::AuthManager()::$_1::operator()(LoginNotReceivedPacket*) const::{lambda(auto:1, bool)#1}>, void (FLAlertLayer*, bool)>::__clone() const
FUNC c724c 14 0 std::__ndk1::__function::__func<AuthManager::AuthManager()::$_1::operator()(LoginNotReceivedPacket*) const::{lambda(auto:1, bool)#1}, std::__ndk1::allocator<AuthManager::AuthManager()::$_1::operator()(LoginNotReceivedPacket*) const::{lambda(auto:1, bool)#1}>, void (FLAlertLayer*, bool)>::__clone(std::__ndk1::__function::__base<void (FLAlertLayer*, bool)>*) const
FUNC c7260 2 0 std::__ndk1::__function::__func<AuthManager::AuthManager()::$_1::operator()(LoginNotReceivedPacket*) const::{lambda(auto:1, bool)#1}, std::__ndk1::allocator<AuthManager::AuthManager()::$_1::operator()(LoginNotReceivedPacket*) const::{lambda(auto:1, bool)#1}>, void (FLAlertLayer*, bool)>::destroy()
FUNC c7262 4 0 std::__ndk1::__function::__func<AuthManager::AuthManager()::$_1::operator()(LoginNotReceivedPacket*) const::{lambda(auto:1, bool)#1}, std::__ndk1::allocator<AuthManager::AuthManager()::$_1::operator()(LoginNotReceivedPacket*) const::{lambda(auto:1, bool)#1}>, void (FLAlertLayer*, bool)>::destroy_deallocate()
FUNC c7268 84 0 std::__ndk1::__function::__func<AuthManager::AuthManager()::$_1::operator()(LoginNotReceivedPacket*) const::{lambda(auto:1, bool)#1}, std::__ndk1::allocator<AuthManager::AuthManager()::$_1::operator()(LoginNotReceivedPacket*) const::{lambda(auto:1, bool)#1}>, void (FLAlertLayer*, bool)>::operator()(FLAlertLayer*&&, bool&&)
FUNC c72ec 18 0 std::__ndk1::__function::__func<AuthManager::AuthManager()::$_1::operator()(LoginNotReceivedPacket*) const::{lambda(auto:1, bool)#1}, std::__ndk1::allocator<AuthManager::AuthManager()::$_1::operator()(LoginNotReceivedPacket*) const::{lambda(auto:1, bool)#1}>, void (FLAlertLayer*, bool)>::target(std::type_info const&) const
FUNC c7304 c 0 std::__ndk1::__function::__func<AuthManager::AuthManager()::$_1::operator()(LoginNotReceivedPacket*) const::{lambda(auto:1, bool)#1}, std::__ndk1::allocator<AuthManager::AuthManager()::$_1::operator()(LoginNotReceivedPacket*) const::{lambda(auto:1, bool)#1}>, void (FLAlertLayer*, bool)>::target_type() const
FUNC c7310 4 0 std::__ndk1::__function::__func<AuthManager::login(std::__ndk1::function<void ()>), std::__ndk1::allocator<AuthManager::login(std::__ndk1::function<void ()>)>, void ()>::~__func()
FUNC c7314 18 0 std::__ndk1::__function::__func<AuthManager::login(std::__ndk1::function<void ()>), std::__ndk1::allocator<AuthManager::login(std::__ndk1::function<void ()>)>, void ()>::__clone() const
FUNC c732c 10 0 std::__ndk1::__function::__func<AuthManager::login(std::__ndk1::function<void ()>), std::__ndk1::allocator<AuthManager::login(std::__ndk1::function<void ()>)>, void ()>::__clone(std::__ndk1::__function::__base<void ()>*) const
FUNC c733c 2 0 std::__ndk1::__function::__func<AuthManager::login(std::__ndk1::function<void ()>), std::__ndk1::allocator<AuthManager::login(std::__ndk1::function<void ()>)>, void ()>::destroy()
FUNC c733e 4 0 std::__ndk1::__function::__func<AuthManager::login(std::__ndk1::function<void ()>), std::__ndk1::allocator<AuthManager::login(std::__ndk1::function<void ()>)>, void ()>::destroy_deallocate()
FUNC c7342 2 0 std::__ndk1::__function::__func<AuthManager::login(std::__ndk1::function<void ()>), std::__ndk1::allocator<AuthManager::login(std::__ndk1::function<void ()>)>, void ()>::operator()()
FUNC c7344 18 0 std::__ndk1::__function::__func<AuthManager::login(std::__ndk1::function<void ()>), std::__ndk1::allocator<AuthManager::login(std::__ndk1::function<void ()>)>, void ()>::target(std::type_info const&) const
FUNC c735c c 0 std::__ndk1::__function::__func<AuthManager::login(std::__ndk1::function<void ()>), std::__ndk1::allocator<AuthManager::login(std::__ndk1::function<void ()>)>, void ()>::target_type() const
FUNC c7368 2 0 RequestAuthorizationPacket::decode(std::__ndk1::basic_string<char, std::__ndk1::char_traits<char>, std::__ndk1::allocator<char> >)
FUNC c736a 6 0 RequestAuthorizationPacket::getPacketID() const
FUNC c7370 c 0 RequestAuthorizationPacket::getPacketName() const
FUNC c737c 34 0 std::__ndk1::__function::__func<NetworkManager::send<RequestAuthorizationPacket>(RequestAuthorizationPacket*, std::__ndk1::function<void ()>)::{lambda(int, int)#1}, std::__ndk1::allocator<NetworkManager::send<RequestAuthorizationPacket>(RequestAuthorizationPacket*, std::__ndk1::function<void ()>)::{lambda(int, int)#1}>, bool (int, int)>::~__func()
FUNC c73b0 38 0 std::__ndk1::__function::__func<NetworkManager::send<RequestAuthorizationPacket>(RequestAuthorizationPacket*, std::__ndk1::function<void ()>)::{lambda(int, int)#1}, std::__ndk1::allocator<NetworkManager::send<RequestAuthorizationPacket>(RequestAuthorizationPacket*, std::__ndk1::function<void ()>)::{lambda(int, int)#1}>, bool (int, int)>::~__func()
FUNC c73e8 54 0 std::__ndk1::__function::__func<NetworkManager::send<RequestAuthorizationPacket>(RequestAuthorizationPacket*, std::__ndk1::function<void ()>)::{lambda(int, int)#1}, std::__ndk1::allocator<NetworkManager::send<RequestAuthorizationPacket>(RequestAuthorizationPacket*, std::__ndk1::function<void ()>)::{lambda(int, int)#1}>, bool (int, int)>::__clone() const
FUNC c743c 44 0 std::__ndk1::__function::__func<NetworkManager::send<RequestAuthorizationPacket>(RequestAuthorizationPacket*, std::__ndk1::function<void ()>)::{lambda(int, int)#1}, std::__ndk1::allocator<NetworkManager::send<RequestAuthorizationPacket>(RequestAuthorizationPacket*, std::__ndk1::function<void ()>)::{lambda(int, int)#1}>, bool (int, int)>::__clone(std::__ndk1::__function::__base<bool (int, int)>*) const
FUNC c7480 1e 0 std::__ndk1::__function::__func<NetworkManager::send<RequestAuthorizationPacket>(RequestAuthorizationPacket*, std::__ndk1::function<void ()>)::{lambda(int, int)#1}, std::__ndk1::allocator<NetworkManager::send<RequestAuthorizationPacket>(RequestAuthorizationPacket*, std::__ndk1::function<void ()>)::{lambda(int, int)#1}>, bool (int, int)>::destroy()
FUNC c749e 2a 0 std::__ndk1::__function::__func<NetworkManager::send<RequestAuthorizationPacket>(RequestAuthorizationPacket*, std::__ndk1::function<void ()>)::{lambda(int, int)#1}, std::__ndk1::allocator<NetworkManager::send<RequestAuthorizationPacket>(RequestAuthorizationPacket*, std::__ndk1::function<void ()>)::{lambda(int, int)#1}>, bool (int, int)>::destroy_deallocate()
FUNC c74c8 140 0 std::__ndk1::__function::__func<NetworkManager::send<RequestAuthorizationPacket>(RequestAuthorizationPacket*, std::__ndk1::function<void ()>)::{lambda(int, int)#1}, std::__ndk1::allocator<NetworkManager::send<RequestAuthorizationPacket>(RequestAuthorizationPacket*, std::__ndk1::function<void ()>)::{lambda(int, int)#1}>, bool (int, int)>::operator()(int&&, int&&)
FUNC c7608 18 0 std::__ndk1::__function::__func<NetworkManager::send<RequestAuthorizationPacket>(RequestAuthorizationPacket*, std::__ndk1::function<void ()>)::{lambda(int, int)#1}, std::__ndk1::allocator<NetworkManager::send<RequestAuthorizationPacket>(RequestAuthorizationPacket*, std::__ndk1::function<void ()>)::{lambda(int, int)#1}>, bool (int, int)>::target(std::type_info const&) const
FUNC c7620 c 0 std::__ndk1::__function::__func<NetworkManager::send<RequestAuthorizationPacket>(RequestAuthorizationPacket*, std::__ndk1::function<void ()>)::{lambda(int, int)#1}, std::__ndk1::allocator<NetworkManager::send<RequestAuthorizationPacket>(RequestAuthorizationPacket*, std::__ndk1::function<void ()>)::{lambda(int, int)#1}>, bool (int, int)>::target_type() const
FUNC c762c 34 0 std::__ndk1::__function::__func<NetworkManager::send<RequestAuthorizationPacket>(RequestAuthorizationPacket*, std::__ndk1::function<void ()>)::{lambda(int, int)#1}::operator()(int, int) const::{lambda()#1}, std::__ndk1::allocator<NetworkManager::send<RequestAuthorizationPacket>(RequestAuthorizationPacket*, std::__ndk1::function<void ()>)::{lambda(int, int)#1}::operator()(int, int) const::{lambda()#1}>, void ()>::~__func()
FUNC c7660 38 0 std::__ndk1::__function::__func<NetworkManager::send<RequestAuthorizationPacket>(RequestAuthorizationPacket*, std::__ndk1::function<void ()>)::{lambda(int, int)#1}::operator()(int, int) const::{lambda()#1}, std::__ndk1::allocator<NetworkManager::send<RequestAuthorizationPacket>(RequestAuthorizationPacket*, std::__ndk1::function<void ()>)::{lambda(int, int)#1}::operator()(int, int) const::{lambda()#1}>, void ()>::~__func()
FUNC c7698 54 0 std::__ndk1::__function::__func<NetworkManager::send<RequestAuthorizationPacket>(RequestAuthorizationPacket*, std::__ndk1::function<void ()>)::{lambda(int, int)#1}::operator()(int, int) const::{lambda()#1}, std::__ndk1::allocator<NetworkManager::send<RequestAuthorizationPacket>(RequestAuthorizationPacket*, std::__ndk1::function<void ()>)::{lambda(int, int)#1}::operator()(int, int) const::{lambda()#1}>, void ()>::__clone() const
FUNC c76ec 44 0 std::__ndk1::__function::__func<NetworkManager::send<RequestAuthorizationPacket>(RequestAuthorizationPacket*, std::__ndk1::function<void ()>)::{lambda(int, int)#1}::operator()(int, int) const::{lambda()#1}, std::__ndk1::allocator<NetworkManager::send<RequestAuthorizationPacket>(RequestAuthorizationPacket*, std::__ndk1::function<void ()>)::{lambda(int, int)#1}::operator()(int, int) const::{lambda()#1}>, void ()>::__clone(std::__ndk1::__function::__base<void ()>*) const
FUNC c7730 1e 0 std::__ndk1::__function::__func<NetworkManager::send<RequestAuthorizationPacket>(RequestAuthorizationPacket*, std::__ndk1::function<void ()>)::{lambda(int, int)#1}::operator()(int, int) const::{lambda()#1}, std::__ndk1::allocator<NetworkManager::send<RequestAuthorizationPacket>(RequestAuthorizationPacket*, std::__ndk1::function<void ()>)::{lambda(int, int)#1}::operator()(int, int) const::{lambda()#1}>, void ()>::destroy()
FUNC c774e 2a 0 std::__ndk1::__function::__func<NetworkManager::send<RequestAuthorizationPacket>(RequestAuthorizationPacket*, std::__ndk1::function<void ()>)::{lambda(int, int)#1}::operator()(int, int) const::{lambda()#1}, std::__ndk1::allocator<NetworkManager::send<RequestAuthorizationPacket>(RequestAuthorizationPacket*, std::__ndk1::function<void ()>)::{lambda(int, int)#1}::operator()(int, int) const::{lambda()#1}>, void ()>::destroy_deallocate()
FUNC c7778 12 0 std::__ndk1::__function::__func<NetworkManager::send<RequestAuthorizationPacket>(RequestAuthorizationPacket*, std::__ndk1::function<void ()>)::{lambda(int, int)#1}::operator()(int, int) const::{lambda()#1}, std::__ndk1::allocator<NetworkManager::send<RequestAuthorizationPacket>(RequestAuthorizationPacket*, std::__ndk1::function<void ()>)::{lambda(int, int)#1}::operator()(int, int) const::{lambda()#1}>, void ()>::operator()()
FUNC c778c 18 0 std::__ndk1::__function::__func<NetworkManager::send<RequestAuthorizationPacket>(RequestAuthorizationPacket*, std::__ndk1::function<void ()>)::{lambda(int, int)#1}::operator()(int, int) const::{lambda()#1}, std::__ndk1::allocator<NetworkManager::send<RequestAuthorizationPacket>(RequestAuthorizationPacket*, std::__ndk1::function<void ()>)::{lambda(int, int)#1}::operator()(int, int) const::{lambda()#1}>, void ()>::target(std::type_info const&) const
FUNC c77a4 c 0 std::__ndk1::__function::__func<NetworkManager::send<RequestAuthorizationPacket>(RequestAuthorizationPacket*, std::__ndk1::function<void ()>)::{lambda(int, int)#1}::operator()(int, int) const::{lambda()#1}, std::__ndk1::allocator<NetworkManager::send<RequestAuthorizationPacket>(RequestAuthorizationPacket*, std::__ndk1::function<void ()>)::{lambda(int, int)#1}::operator()(int, int) const::{lambda()#1}>, void ()>::target_type() const
FUNC c77b0 34 0 _ZNSt6__ndk110__function6__funcIZN14NetworkManager2onI21ReceiveAuthCodePacketQsr3stdE12is_base_of_vI6PacketT_EEEvNS_8functionIFvPS6_EEEbEUlNS_12basic_stringIcNS_11char_traitsIcEENS_9allocatorIcEEEEE_NSE_ISH_EEFvSG_EED2Ev
FUNC c77e4 38 0 _ZNSt6__ndk110__function6__funcIZN14NetworkManager2onI21ReceiveAuthCodePacketQsr3stdE12is_base_of_vI6PacketT_EEEvNS_8functionIFvPS6_EEEbEUlNS_12basic_stringIcNS_11char_traitsIcEENS_9allocatorIcEEEEE_NSE_ISH_EEFvSG_EED0Ev
FUNC c781c 54 0 _ZNKSt6__ndk110__function6__funcIZN14NetworkManager2onI21ReceiveAuthCodePacketQsr3stdE12is_base_of_vI6PacketT_EEEvNS_8functionIFvPS6_EEEbEUlNS_12basic_stringIcNS_11char_traitsIcEENS_9allocatorIcEEEEE_NSE_ISH_EEFvSG_EE7__cloneEv
FUNC c7870 44 0 _ZNKSt6__ndk110__function6__funcIZN14NetworkManager2onI21ReceiveAuthCodePacketQsr3stdE12is_base_of_vI6PacketT_EEEvNS_8functionIFvPS6_EEEbEUlNS_12basic_stringIcNS_11char_traitsIcEENS_9allocatorIcEEEEE_NSE_ISH_EEFvSG_EE7__cloneEPNS0_6__baseISJ_EE
FUNC c78b4 1e 0 _ZNSt6__ndk110__function6__funcIZN14NetworkManager2onI21ReceiveAuthCodePacketQsr3stdE12is_base_of_vI6PacketT_EEEvNS_8functionIFvPS6_EEEbEUlNS_12basic_stringIcNS_11char_traitsIcEENS_9allocatorIcEEEEE_NSE_ISH_EEFvSG_EE7destroyEv
FUNC c78d2 2a 0 _ZNSt6__ndk110__function6__funcIZN14NetworkManager2onI21ReceiveAuthCodePacketQsr3stdE12is_base_of_vI6PacketT_EEEvNS_8functionIFvPS6_EEEbEUlNS_12basic_stringIcNS_11char_traitsIcEENS_9allocatorIcEEEEE_NSE_ISH_EEFvSG_EE18destroy_deallocateEv
FUNC c78fc 310 0 _ZNSt6__ndk110__function6__funcIZN14NetworkManager2onI21ReceiveAuthCodePacketQsr3stdE12is_base_of_vI6PacketT_EEEvNS_8functionIFvPS6_EEEbEUlNS_12basic_stringIcNS_11char_traitsIcEENS_9allocatorIcEEEEE_NSE_ISH_EEFvSG_EEclEOSG_
FUNC c7c0c 18 0 _ZNKSt6__ndk110__function6__funcIZN14NetworkManager2onI21ReceiveAuthCodePacketQsr3stdE12is_base_of_vI6PacketT_EEEvNS_8functionIFvPS6_EEEbEUlNS_12basic_stringIcNS_11char_traitsIcEENS_9allocatorIcEEEEE_NSE_ISH_EEFvSG_EE6targetERKSt9type_info
FUNC c7c24 c 0 _ZNKSt6__ndk110__function6__funcIZN14NetworkManager2onI21ReceiveAuthCodePacketQsr3stdE12is_base_of_vI6PacketT_EEEvNS_8functionIFvPS6_EEEbEUlNS_12basic_stringIcNS_11char_traitsIcEENS_9allocatorIcEEEEE_NSE_ISH_EEFvSG_EE11target_typeEv
FUNC c7c30 2 0 ReceiveAuthCodePacket::decode(std::__ndk1::basic_string<char, std::__ndk1::char_traits<char>, std::__ndk1::allocator<char> >)
FUNC c7c32 6 0 ReceiveAuthCodePacket::getPacketID() const
FUNC c7c38 c 0 ReceiveAuthCodePacket::getPacketName() const
FUNC c7c44 34 0 _ZNSt6__ndk110__function6__funcIZZN14NetworkManager2onI21ReceiveAuthCodePacketQsr3stdE12is_base_of_vI6PacketT_EEEvNS_8functionIFvPS6_EEEbENKUlNS_12basic_stringIcNS_11char_traitsIcEENS_9allocatorIcEEEEE_clESG_EUlvE_NSE_ISI_EEFvvEED2Ev
FUNC c7c78 38 0 _ZNSt6__ndk110__function6__funcIZZN14NetworkManager2onI21ReceiveAuthCodePacketQsr3stdE12is_base_of_vI6PacketT_EEEvNS_8functionIFvPS6_EEEbENKUlNS_12basic_stringIcNS_11char_traitsIcEENS_9allocatorIcEEEEE_clESG_EUlvE_NSE_ISI_EEFvvEED0Ev
FUNC c7cb0 54 0 _ZNKSt6__ndk110__function6__funcIZZN14NetworkManager2onI21ReceiveAuthCodePacketQsr3stdE12is_base_of_vI6PacketT_EEEvNS_8functionIFvPS6_EEEbENKUlNS_12basic_stringIcNS_11char_traitsIcEENS_9allocatorIcEEEEE_clESG_EUlvE_NSE_ISI_EEFvvEE7__cloneEv
FUNC c7d04 44 0 _ZNKSt6__ndk110__function6__funcIZZN14NetworkManager2onI21ReceiveAuthCodePacketQsr3stdE12is_base_of_vI6PacketT_EEEvNS_8functionIFvPS6_EEEbENKUlNS_12basic_stringIcNS_11char_traitsIcEENS_9allocatorIcEEEEE_clESG_EUlvE_NSE_ISI_EEFvvEE7__cloneEPNS0_6__baseISK_EE
FUNC c7d48 1e 0 _ZNSt6__ndk110__function6__funcIZZN14NetworkManager2onI21ReceiveAuthCodePacketQsr3stdE12is_base_of_vI6PacketT_EEEvNS_8functionIFvPS6_EEEbENKUlNS_12basic_stringIcNS_11char_traitsIcEENS_9allocatorIcEEEEE_clESG_EUlvE_NSE_ISI_EEFvvEE7destroyEv
FUNC c7d66 2a 0 _ZNSt6__ndk110__function6__funcIZZN14NetworkManager2onI21ReceiveAuthCodePacketQsr3stdE12is_base_of_vI6PacketT_EEEvNS_8functionIFvPS6_EEEbENKUlNS_12basic_stringIcNS_11char_traitsIcEENS_9allocatorIcEEEEE_clESG_EUlvE_NSE_ISI_EEFvvEE18destroy_deallocateEv
FUNC c7d90 44 0 _ZNSt6__ndk110__function6__funcIZZN14NetworkManager2onI21ReceiveAuthCodePacketQsr3stdE12is_base_of_vI6PacketT_EEEvNS_8functionIFvPS6_EEEbENKUlNS_12basic_stringIcNS_11char_traitsIcEENS_9allocatorIcEEEEE_clESG_EUlvE_NSE_ISI_EEFvvEEclEv
FUNC c7dd4 18 0 _ZNKSt6__ndk110__function6__funcIZZN14NetworkManager2onI21ReceiveAuthCodePacketQsr3stdE12is_base_of_vI6PacketT_EEEvNS_8functionIFvPS6_EEEbENKUlNS_12basic_stringIcNS_11char_traitsIcEENS_9allocatorIcEEEEE_clESG_EUlvE_NSE_ISI_EEFvvEE6targetERKSt9type_info
FUNC c7dec c 0 _ZNKSt6__ndk110__function6__funcIZZN14NetworkManager2onI21ReceiveAuthCodePacketQsr3stdE12is_base_of_vI6PacketT_EEEvNS_8functionIFvPS6_EEEbENKUlNS_12basic_stringIcNS_11char_traitsIcEENS_9allocatorIcEEEEE_clESG_EUlvE_NSE_ISI_EEFvvEE11target_typeEv
FUNC c7df8 2 0 std::__ndk1::__function::__base<void (ReceiveAuthCodePacket*)>::~__base()
FUNC c7dfa 4 0 std::__ndk1::__function::__func<AuthManager::beginAuthorization(std::__ndk1::function<void ()>)::$_0, std::__ndk1::allocator<AuthManager::beginAuthorization(std::__ndk1::function<void ()>)::$_0>, void (ReceiveAuthCodePacket*)>::~__func()
FUNC c7e00 20 0 std::__ndk1::__function::__func<AuthManager::beginAuthorization(std::__ndk1::function<void ()>)::$_0, std::__ndk1::allocator<AuthManager::beginAuthorization(std::__ndk1::function<void ()>)::$_0>, void (ReceiveAuthCodePacket*)>::__clone() const
FUNC c7e20 14 0 std::__ndk1::__function::__func<AuthManager::beginAuthorization(std::__ndk1::function<void ()>)::$_0, std::__ndk1::allocator<AuthManager::beginAuthorization(std::__ndk1::function<void ()>)::$_0>, void (ReceiveAuthCodePacket*)>::__clone(std::__ndk1::__function::__base<void (ReceiveAuthCodePacket*)>*) const
FUNC c7e34 2 0 std::__ndk1::__function::__func<AuthManager::beginAuthorization(std::__ndk1::function<void ()>)::$_0, std::__ndk1::allocator<AuthManager::beginAuthorization(std::__ndk1::function<void ()>)::$_0>, void (ReceiveAuthCodePacket*)>::destroy()
FUNC c7e36 4 0 std::__ndk1::__function::__func<AuthManager::beginAuthorization(std::__ndk1::function<void ()>)::$_0, std::__ndk1::allocator<AuthManager::beginAuthorization(std::__ndk1::function<void ()>)::$_0>, void (ReceiveAuthCodePacket*)>::destroy_deallocate()
FUNC c7e3c 88 0 std::__ndk1::__function::__func<AuthManager::beginAuthorization(std::__ndk1::function<void ()>)::$_0, std::__ndk1::allocator<AuthManager::beginAuthorization(std::__ndk1::function<void ()>)::$_0>, void (ReceiveAuthCodePacket*)>::operator()(ReceiveAuthCodePacket*&&)
FUNC c7ec4 18 0 std::__ndk1::__function::__func<AuthManager::beginAuthorization(std::__ndk1::function<void ()>)::$_0, std::__ndk1::allocator<AuthManager::beginAuthorization(std::__ndk1::function<void ()>)::$_0>, void (ReceiveAuthCodePacket*)>::target(std::type_info const&) const
FUNC c7edc c 0 std::__ndk1::__function::__func<AuthManager::beginAuthorization(std::__ndk1::function<void ()>)::$_0, std::__ndk1::allocator<AuthManager::beginAuthorization(std::__ndk1::function<void ()>)::$_0>, void (ReceiveAuthCodePacket*)>::target_type() const
FUNC c7ee8 34 0 _ZNSt6__ndk110__function6__funcIZN14NetworkManager2onI18ReceiveTokenPacketQsr3stdE12is_base_of_vI6PacketT_EEEvNS_8functionIFvPS6_EEEbEUlNS_12basic_stringIcNS_11char_traitsIcEENS_9allocatorIcEEEEE_NSE_ISH_EEFvSG_EED2Ev
FUNC c7f1c 38 0 _ZNSt6__ndk110__function6__funcIZN14NetworkManager2onI18ReceiveTokenPacketQsr3stdE12is_base_of_vI6PacketT_EEEvNS_8functionIFvPS6_EEEbEUlNS_12basic_stringIcNS_11char_traitsIcEENS_9allocatorIcEEEEE_NSE_ISH_EEFvSG_EED0Ev
FUNC c7f54 54 0 _ZNKSt6__ndk110__function6__funcIZN14NetworkManager2onI18ReceiveTokenPacketQsr3stdE12is_base_of_vI6PacketT_EEEvNS_8functionIFvPS6_EEEbEUlNS_12basic_stringIcNS_11char_traitsIcEENS_9allocatorIcEEEEE_NSE_ISH_EEFvSG_EE7__cloneEv
FUNC c7fa8 44 0 _ZNKSt6__ndk110__function6__funcIZN14NetworkManager2onI18ReceiveTokenPacketQsr3stdE12is_base_of_vI6PacketT_EEEvNS_8functionIFvPS6_EEEbEUlNS_12basic_stringIcNS_11char_traitsIcEENS_9allocatorIcEEEEE_NSE_ISH_EEFvSG_EE7__cloneEPNS0_6__baseISJ_EE
FUNC c7fec 1e 0 _ZNSt6__ndk110__function6__funcIZN14NetworkManager2onI18ReceiveTokenPacketQsr3stdE12is_base_of_vI6PacketT_EEEvNS_8functionIFvPS6_EEEbEUlNS_12basic_stringIcNS_11char_traitsIcEENS_9allocatorIcEEEEE_NSE_ISH_EEFvSG_EE7destroyEv
FUNC c800a 2a 0 _ZNSt6__ndk110__function6__funcIZN14NetworkManager2onI18ReceiveTokenPacketQsr3stdE12is_base_of_vI6PacketT_EEEvNS_8functionIFvPS6_EEEbEUlNS_12basic_stringIcNS_11char_traitsIcEENS_9allocatorIcEEEEE_NSE_ISH_EEFvSG_EE18destroy_deallocateEv
FUNC c8034 28c 0 _ZNSt6__ndk110__function6__funcIZN14NetworkManager2onI18ReceiveTokenPacketQsr3stdE12is_base_of_vI6PacketT_EEEvNS_8functionIFvPS6_EEEbEUlNS_12basic_stringIcNS_11char_traitsIcEENS_9allocatorIcEEEEE_NSE_ISH_EEFvSG_EEclEOSG_
FUNC c82c0 18 0 _ZNKSt6__ndk110__function6__funcIZN14NetworkManager2onI18ReceiveTokenPacketQsr3stdE12is_base_of_vI6PacketT_EEEvNS_8functionIFvPS6_EEEbEUlNS_12basic_stringIcNS_11char_traitsIcEENS_9allocatorIcEEEEE_NSE_ISH_EEFvSG_EE6targetERKSt9type_info
FUNC c82d8 c 0 _ZNKSt6__ndk110__function6__funcIZN14NetworkManager2onI18ReceiveTokenPacketQsr3stdE12is_base_of_vI6PacketT_EEEvNS_8functionIFvPS6_EEEbEUlNS_12basic_stringIcNS_11char_traitsIcEENS_9allocatorIcEEEEE_NSE_ISH_EEFvSG_EE11target_typeEv
FUNC c82e4 2 0 ReceiveTokenPacket::decode(std::__ndk1::basic_string<char, std::__ndk1::char_traits<char>, std::__ndk1::allocator<char> >)
FUNC c82e6 6 0 ReceiveTokenPacket::getPacketID() const
FUNC c82ec c 0 ReceiveTokenPacket::getPacketName() const
FUNC c82f8 34 0 _ZNSt6__ndk110__function6__funcIZZN14NetworkManager2onI18ReceiveTokenPacketQsr3stdE12is_base_of_vI6PacketT_EEEvNS_8functionIFvPS6_EEEbENKUlNS_12basic_stringIcNS_11char_traitsIcEENS_9allocatorIcEEEEE_clESG_EUlvE_NSE_ISI_EEFvvEED2Ev
FUNC c832c 38 0 _ZNSt6__ndk110__function6__funcIZZN14NetworkManager2onI18ReceiveTokenPacketQsr3stdE12is_base_of_vI6PacketT_EEEvNS_8functionIFvPS6_EEEbENKUlNS_12basic_stringIcNS_11char_traitsIcEENS_9allocatorIcEEEEE_clESG_EUlvE_NSE_ISI_EEFvvEED0Ev
FUNC c8364 54 0 _ZNKSt6__ndk110__function6__funcIZZN14NetworkManager2onI18ReceiveTokenPacketQsr3stdE12is_base_of_vI6PacketT_EEEvNS_8functionIFvPS6_EEEbENKUlNS_12basic_stringIcNS_11char_traitsIcEENS_9allocatorIcEEEEE_clESG_EUlvE_NSE_ISI_EEFvvEE7__cloneEv
FUNC c83b8 44 0 _ZNKSt6__ndk110__function6__funcIZZN14NetworkManager2onI18ReceiveTokenPacketQsr3stdE12is_base_of_vI6PacketT_EEEvNS_8functionIFvPS6_EEEbENKUlNS_12basic_stringIcNS_11char_traitsIcEENS_9allocatorIcEEEEE_clESG_EUlvE_NSE_ISI_EEFvvEE7__cloneEPNS0_6__baseISK_EE
FUNC c83fc 1e 0 _ZNSt6__ndk110__function6__funcIZZN14NetworkManager2onI18ReceiveTokenPacketQsr3stdE12is_base_of_vI6PacketT_EEEvNS_8functionIFvPS6_EEEbENKUlNS_12basic_stringIcNS_11char_traitsIcEENS_9allocatorIcEEEEE_clESG_EUlvE_NSE_ISI_EEFvvEE7destroyEv
FUNC c841a 2a 0 _ZNSt6__ndk110__function6__funcIZZN14NetworkManager2onI18ReceiveTokenPacketQsr3stdE12is_base_of_vI6PacketT_EEEvNS_8functionIFvPS6_EEEbENKUlNS_12basic_stringIcNS_11char_traitsIcEENS_9allocatorIcEEEEE_clESG_EUlvE_NSE_ISI_EEFvvEE18destroy_deallocateEv
FUNC c8444 44 0 _ZNSt6__ndk110__function6__funcIZZN14NetworkManager2onI18ReceiveTokenPacketQsr3stdE12is_base_of_vI6PacketT_EEEvNS_8functionIFvPS6_EEEbENKUlNS_12basic_stringIcNS_11char_traitsIcEENS_9allocatorIcEEEEE_clESG_EUlvE_NSE_ISI_EEFvvEEclEv
FUNC c8488 18 0 _ZNKSt6__ndk110__function6__funcIZZN14NetworkManager2onI18ReceiveTokenPacketQsr3stdE12is_base_of_vI6PacketT_EEEvNS_8functionIFvPS6_EEEbENKUlNS_12basic_stringIcNS_11char_traitsIcEENS_9allocatorIcEEEEE_clESG_EUlvE_NSE_ISI_EEFvvEE6targetERKSt9type_info
FUNC c84a0 c 0 _ZNKSt6__ndk110__function6__funcIZZN14NetworkManager2onI18ReceiveTokenPacketQsr3stdE12is_base_of_vI6PacketT_EEEvNS_8functionIFvPS6_EEEbENKUlNS_12basic_stringIcNS_11char_traitsIcEENS_9allocatorIcEEEEE_clESG_EUlvE_NSE_ISI_EEFvvEE11target_typeEv
FUNC c84ac 34 0 std::__ndk1::__function::__func<AuthManager::beginAuthorization(std::__ndk1::function<void ()>)::$_1, std::__ndk1::allocator<AuthManager::beginAuthorization(std::__ndk1::function<void ()>)::$_1>, void (ReceiveTokenPacket*)>::~__func()
FUNC c84e0 38 0 std::__ndk1::__function::__func<AuthManager::beginAuthorization(std::__ndk1::function<void ()>)::$_1, std::__ndk1::allocator<AuthManager::beginAuthorization(std::__ndk1::function<void ()>)::$_1>, void (ReceiveTokenPacket*)>::~__func()
FUNC c8518 58 0 std::__ndk1::__function::__func<AuthManager::beginAuthorization(std::__ndk1::function<void ()>)::$_1, std::__ndk1::allocator<AuthManager::beginAuthorization(std::__ndk1::function<void ()>)::$_1>, void (ReceiveTokenPacket*)>::__clone() const
FUNC c8570 48 0 std::__ndk1::__function::__func<AuthManager::beginAuthorization(std::__ndk1::function<void ()>)::$_1, std::__ndk1::allocator<AuthManager::beginAuthorization(std::__ndk1::function<void ()>)::$_1>, void (ReceiveTokenPacket*)>::__clone(std::__ndk1::__function::__base<void (ReceiveTokenPacket*)>*) const
FUNC c85b8 1e 0 std::__ndk1::__function::__func<AuthManager::beginAuthorization(std::__ndk1::function<void ()>)::$_1, std::__ndk1::allocator<AuthManager::beginAuthorization(std::__ndk1::function<void ()>)::$_1>, void (ReceiveTokenPacket*)>::destroy()
FUNC c85d6 2a 0 std::__ndk1::__function::__func<AuthManager::beginAuthorization(std::__ndk1::function<void ()>)::$_1, std::__ndk1::allocator<AuthManager::beginAuthorization(std::__ndk1::function<void ()>)::$_1>, void (ReceiveTokenPacket*)>::destroy_deallocate()
FUNC c8600 2b8 0 std::__ndk1::__function::__func<AuthManager::beginAuthorization(std::__ndk1::function<void ()>)::$_1, std::__ndk1::allocator<AuthManager::beginAuthorization(std::__ndk1::function<void ()>)::$_1>, void (ReceiveTokenPacket*)>::operator()(ReceiveTokenPacket*&&)
FUNC c88b8 18 0 std::__ndk1::__function::__func<AuthManager::beginAuthorization(std::__ndk1::function<void ()>)::$_1, std::__ndk1::allocator<AuthManager::beginAuthorization(std::__ndk1::function<void ()>)::$_1>, void (ReceiveTokenPacket*)>::target(std::type_info const&) const
FUNC c88d0 c 0 std::__ndk1::__function::__func<AuthManager::beginAuthorization(std::__ndk1::function<void ()>)::$_1, std::__ndk1::allocator<AuthManager::beginAuthorization(std::__ndk1::function<void ()>)::$_1>, void (ReceiveTokenPacket*)>::target_type() const
FUNC c88dc 2 0 LoginPacket::decode(std::__ndk1::basic_string<char, std::__ndk1::char_traits<char>, std::__ndk1::allocator<char> >)
FUNC c88de 6 0 LoginPacket::getPacketID() const
FUNC c88e4 c 0 LoginPacket::getPacketName() const
FUNC c88f0 d0 0 cereal::OutputArchive<cereal::JSONOutputArchive, (unsigned int)0>::process<cereal::NameValuePair<int&>, cereal::NameValuePair<int&>, cereal::NameValuePair<int&>, cereal::NameValuePair<int&>, cereal::NameValuePair<int&>, cereal::NameValuePair<int&> >(cereal::NameValuePair<int&>&&, cereal::NameValuePair<int&>&&, cereal::NameValuePair<int&>, cereal::NameValuePair<int&>, cereal::NameValuePair<int&>, cereal::NameValuePair<int&>)
FUNC c89c0 cc 0 cereal::OutputArchive<cereal::JSONOutputArchive, (unsigned int)0>::process<cereal::NameValuePair<int&>, cereal::NameValuePair<int&>, cereal::NameValuePair<int&>, cereal::NameValuePair<int&>, cereal::NameValuePair<int&> >(cereal::NameValuePair<int&>&&, cereal::NameValuePair<int&>&&, cereal::NameValuePair<int&>, cereal::NameValuePair<int&>, cereal::NameValuePair<int&>)
FUNC c8a8c c8 0 cereal::OutputArchive<cereal::JSONOutputArchive, (unsigned int)0>::process<cereal::NameValuePair<int&>, cereal::NameValuePair<int&>, cereal::NameValuePair<int&>, cereal::NameValuePair<int&> >(cereal::NameValuePair<int&>&&, cereal::NameValuePair<int&>&&, cereal::NameValuePair<int&>, cereal::NameValuePair<int&>)
FUNC c8b54 c0 0 cereal::OutputArchive<cereal::JSONOutputArchive, (unsigned int)0>::process<cereal::NameValuePair<int&>, cereal::NameValuePair<int&>, cereal::NameValuePair<int&> >(cereal::NameValuePair<int&>&&, cereal::NameValuePair<int&>&&, cereal::NameValuePair<int&>)
FUNC c8c14 12c 0 cereal::OutputArchive<cereal::JSONOutputArchive, (unsigned int)0>::process<cereal::NameValuePair<int&>, cereal::NameValuePair<int&> >(cereal::NameValuePair<int&>&&, cereal::NameValuePair<int&>&&)
FUNC c8d40 34 0 std::__ndk1::__function::__func<NetworkManager::send<LoginPacket>(LoginPacket*, std::__ndk1::function<void ()>)::{lambda(int, int)#1}, std::__ndk1::allocator<NetworkManager::send<LoginPacket>(LoginPacket*, std::__ndk1::function<void ()>)::{lambda(int, int)#1}>, bool (int, int)>::~__func()
FUNC c8d74 38 0 std::__ndk1::__function::__func<NetworkManager::send<LoginPacket>(LoginPacket*, std::__ndk1::function<void ()>)::{lambda(int, int)#1}, std::__ndk1::allocator<NetworkManager::send<LoginPacket>(LoginPacket*, std::__ndk1::function<void ()>)::{lambda(int, int)#1}>, bool (int, int)>::~__func()
FUNC c8dac 54 0 std::__ndk1::__function::__func<NetworkManager::send<LoginPacket>(LoginPacket*, std::__ndk1::function<void ()>)::{lambda(int, int)#1}, std::__ndk1::allocator<NetworkManager::send<LoginPacket>(LoginPacket*, std::__ndk1::function<void ()>)::{lambda(int, int)#1}>, bool (int, int)>::__clone() const
FUNC c8e00 44 0 std::__ndk1::__function::__func<NetworkManager::send<LoginPacket>(LoginPacket*, std::__ndk1::function<void ()>)::{lambda(int, int)#1}, std::__ndk1::allocator<NetworkManager::send<LoginPacket>(LoginPacket*, std::__ndk1::function<void ()>)::{lambda(int, int)#1}>, bool (int, int)>::__clone(std::__ndk1::__function::__base<bool (int, int)>*) const
FUNC c8e44 1e 0 std::__ndk1::__function::__func<NetworkManager::send<LoginPacket>(LoginPacket*, std::__ndk1::function<void ()>)::{lambda(int, int)#1}, std::__ndk1::allocator<NetworkManager::send<LoginPacket>(LoginPacket*, std::__ndk1::function<void ()>)::{lambda(int, int)#1}>, bool (int, int)>::destroy()
FUNC c8e62 2a 0 std::__ndk1::__function::__func<NetworkManager::send<LoginPacket>(LoginPacket*, std::__ndk1::function<void ()>)::{lambda(int, int)#1}, std::__ndk1::allocator<NetworkManager::send<LoginPacket>(LoginPacket*, std::__ndk1::function<void ()>)::{lambda(int, int)#1}>, bool (int, int)>::destroy_deallocate()
FUNC c8e8c 140 0 std::__ndk1::__function::__func<NetworkManager::send<LoginPacket>(LoginPacket*, std::__ndk1::function<void ()>)::{lambda(int, int)#1}, std::__ndk1::allocator<NetworkManager::send<LoginPacket>(LoginPacket*, std::__ndk1::function<void ()>)::{lambda(int, int)#1}>, bool (int, int)>::operator()(int&&, int&&)
FUNC c8fcc 18 0 std::__ndk1::__function::__func<NetworkManager::send<LoginPacket>(LoginPacket*, std::__ndk1::function<void ()>)::{lambda(int, int)#1}, std::__ndk1::allocator<NetworkManager::send<LoginPacket>(LoginPacket*, std::__ndk1::function<void ()>)::{lambda(int, int)#1}>, bool (int, int)>::target(std::type_info const&) const
FUNC c8fe4 c 0 std::__ndk1::__function::__func<NetworkManager::send<LoginPacket>(LoginPacket*, std::__ndk1::function<void ()>)::{lambda(int, int)#1}, std::__ndk1::allocator<NetworkManager::send<LoginPacket>(LoginPacket*, std::__ndk1::function<void ()>)::{lambda(int, int)#1}>, bool (int, int)>::target_type() const
FUNC c8ff0 34 0 std::__ndk1::__function::__func<NetworkManager::send<LoginPacket>(LoginPacket*, std::__ndk1::function<void ()>)::{lambda(int, int)#1}::operator()(int, int) const::{lambda()#1}, std::__ndk1::allocator<NetworkManager::send<LoginPacket>(LoginPacket*, std::__ndk1::function<void ()>)::{lambda(int, int)#1}::operator()(int, int) const::{lambda()#1}>, void ()>::~__func()
FUNC c9024 38 0 std::__ndk1::__function::__func<NetworkManager::send<LoginPacket>(LoginPacket*, std::__ndk1::function<void ()>)::{lambda(int, int)#1}::operator()(int, int) const::{lambda()#1}, std::__ndk1::allocator<NetworkManager::send<LoginPacket>(LoginPacket*, std::__ndk1::function<void ()>)::{lambda(int, int)#1}::operator()(int, int) const::{lambda()#1}>, void ()>::~__func()
FUNC c905c 54 0 std::__ndk1::__function::__func<NetworkManager::send<LoginPacket>(LoginPacket*, std::__ndk1::function<void ()>)::{lambda(int, int)#1}::operator()(int, int) const::{lambda()#1}, std::__ndk1::allocator<NetworkManager::send<LoginPacket>(LoginPacket*, std::__ndk1::function<void ()>)::{lambda(int, int)#1}::operator()(int, int) const::{lambda()#1}>, void ()>::__clone() const
FUNC c90b0 44 0 std::__ndk1::__function::__func<NetworkManager::send<LoginPacket>(LoginPacket*, std::__ndk1::function<void ()>)::{lambda(int, int)#1}::operator()(int, int) const::{lambda()#1}, std::__ndk1::allocator<NetworkManager::send<LoginPacket>(LoginPacket*, std::__ndk1::function<void ()>)::{lambda(int, int)#1}::operator()(int, int) const::{lambda()#1}>, void ()>::__clone(std::__ndk1::__function::__base<void ()>*) const
FUNC c90f4 1e 0 std::__ndk1::__function::__func<NetworkManager::send<LoginPacket>(LoginPacket*, std::__ndk1::function<void ()>)::{lambda(int, int)#1}::operator()(int, int) const::{lambda()#1}, std::__ndk1::allocator<NetworkManager::send<LoginPacket>(LoginPacket*, std::__ndk1::function<void ()>)::{lambda(int, int)#1}::operator()(int, int) const::{lambda()#1}>, void ()>::destroy()
FUNC c9112 2a 0 std::__ndk1::__function::__func<NetworkManager::send<LoginPacket>(LoginPacket*, std::__ndk1::function<void ()>)::{lambda(int, int)#1}::operator()(int, int) const::{lambda()#1}, std::__ndk1::allocator<NetworkManager::send<LoginPacket>(LoginPacket*, std::__ndk1::function<void ()>)::{lambda(int, int)#1}::operator()(int, int) const::{lambda()#1}>, void ()>::destroy_deallocate()
FUNC c913c 12 0 std::__ndk1::__function::__func<NetworkManager::send<LoginPacket>(LoginPacket*, std::__ndk1::function<void ()>)::{lambda(int, int)#1}::operator()(int, int) const::{lambda()#1}, std::__ndk1::allocator<NetworkManager::send<LoginPacket>(LoginPacket*, std::__ndk1::function<void ()>)::{lambda(int, int)#1}::operator()(int, int) const::{lambda()#1}>, void ()>::operator()()
FUNC c9150 18 0 std::__ndk1::__function::__func<NetworkManager::send<LoginPacket>(LoginPacket*, std::__ndk1::function<void ()>)::{lambda(int, int)#1}::operator()(int, int) const::{lambda()#1}, std::__ndk1::allocator<NetworkManager::send<LoginPacket>(LoginPacket*, std::__ndk1::function<void ()>)::{lambda(int, int)#1}::operator()(int, int) const::{lambda()#1}>, void ()>::target(std::type_info const&) const
FUNC c9168 c 0 std::__ndk1::__function::__func<NetworkManager::send<LoginPacket>(LoginPacket*, std::__ndk1::function<void ()>)::{lambda(int, int)#1}::operator()(int, int) const::{lambda()#1}, std::__ndk1::allocator<NetworkManager::send<LoginPacket>(LoginPacket*, std::__ndk1::function<void ()>)::{lambda(int, int)#1}::operator()(int, int) const::{lambda()#1}>, void ()>::target_type() const
FUNC c9174 34 0 _ZNSt6__ndk110__function6__funcIZN14NetworkManager2onI14LoggedInPacketQsr3stdE12is_base_of_vI6PacketT_EEEvNS_8functionIFvPS6_EEEbEUlNS_12basic_stringIcNS_11char_traitsIcEENS_9allocatorIcEEEEE_NSE_ISH_EEFvSG_EED2Ev
FUNC c91a8 38 0 _ZNSt6__ndk110__function6__funcIZN14NetworkManager2onI14LoggedInPacketQsr3stdE12is_base_of_vI6PacketT_EEEvNS_8functionIFvPS6_EEEbEUlNS_12basic_stringIcNS_11char_traitsIcEENS_9allocatorIcEEEEE_NSE_ISH_EEFvSG_EED0Ev
FUNC c91e0 54 0 _ZNKSt6__ndk110__function6__funcIZN14NetworkManager2onI14LoggedInPacketQsr3stdE12is_base_of_vI6PacketT_EEEvNS_8functionIFvPS6_EEEbEUlNS_12basic_stringIcNS_11char_traitsIcEENS_9allocatorIcEEEEE_NSE_ISH_EEFvSG_EE7__cloneEv
FUNC c9234 44 0 _ZNKSt6__ndk110__function6__funcIZN14NetworkManager2onI14LoggedInPacketQsr3stdE12is_base_of_vI6PacketT_EEEvNS_8functionIFvPS6_EEEbEUlNS_12basic_stringIcNS_11char_traitsIcEENS_9allocatorIcEEEEE_NSE_ISH_EEFvSG_EE7__cloneEPNS0_6__baseISJ_EE
FUNC c9278 1e 0 _ZNSt6__ndk110__function6__funcIZN14NetworkManager2onI14LoggedInPacketQsr3stdE12is_base_of_vI6PacketT_EEEvNS_8functionIFvPS6_EEEbEUlNS_12basic_stringIcNS_11char_traitsIcEENS_9allocatorIcEEEEE_NSE_ISH_EEFvSG_EE7destroyEv
FUNC c9296 2a 0 _ZNSt6__ndk110__function6__funcIZN14NetworkManager2onI14LoggedInPacketQsr3stdE12is_base_of_vI6PacketT_EEEvNS_8functionIFvPS6_EEEbEUlNS_12basic_stringIcNS_11char_traitsIcEENS_9allocatorIcEEEEE_NSE_ISH_EEFvSG_EE18destroy_deallocateEv
FUNC c92c0 27c 0 _ZNSt6__ndk110__function6__funcIZN14NetworkManager2onI14LoggedInPacketQsr3stdE12is_base_of_vI6PacketT_EEEvNS_8functionIFvPS6_EEEbEUlNS_12basic_stringIcNS_11char_traitsIcEENS_9allocatorIcEEEEE_NSE_ISH_EEFvSG_EEclEOSG_
FUNC c953c 18 0 _ZNKSt6__ndk110__function6__funcIZN14NetworkManager2onI14LoggedInPacketQsr3stdE12is_base_of_vI6PacketT_EEEvNS_8functionIFvPS6_EEEbEUlNS_12basic_stringIcNS_11char_traitsIcEENS_9allocatorIcEEEEE_NSE_ISH_EEFvSG_EE6targetERKSt9type_info
FUNC c9554 c 0 _ZNKSt6__ndk110__function6__funcIZN14NetworkManager2onI14LoggedInPacketQsr3stdE12is_base_of_vI6PacketT_EEEvNS_8functionIFvPS6_EEEbEUlNS_12basic_stringIcNS_11char_traitsIcEENS_9allocatorIcEEEEE_NSE_ISH_EEFvSG_EE11target_typeEv
FUNC c9560 2 0 LoggedInPacket::decode(std::__ndk1::basic_string<char, std::__ndk1::char_traits<char>, std::__ndk1::allocator<char> >)
FUNC c9562 6 0 LoggedInPacket::getPacketID() const
FUNC c9568 c 0 LoggedInPacket::getPacketName() const
FUNC c9574 34 0 _ZNSt6__ndk110__function6__funcIZZN14NetworkManager2onI14LoggedInPacketQsr3stdE12is_base_of_vI6PacketT_EEEvNS_8functionIFvPS6_EEEbENKUlNS_12basic_stringIcNS_11char_traitsIcEENS_9allocatorIcEEEEE_clESG_EUlvE_NSE_ISI_EEFvvEED2Ev
FUNC c95a8 38 0 _ZNSt6__ndk110__function6__funcIZZN14NetworkManager2onI14LoggedInPacketQsr3stdE12is_base_of_vI6PacketT_EEEvNS_8functionIFvPS6_EEEbENKUlNS_12basic_stringIcNS_11char_traitsIcEENS_9allocatorIcEEEEE_clESG_EUlvE_NSE_ISI_EEFvvEED0Ev
FUNC c95e0 54 0 _ZNKSt6__ndk110__function6__funcIZZN14NetworkManager2onI14LoggedInPacketQsr3stdE12is_base_of_vI6PacketT_EEEvNS_8functionIFvPS6_EEEbENKUlNS_12basic_stringIcNS_11char_traitsIcEENS_9allocatorIcEEEEE_clESG_EUlvE_NSE_ISI_EEFvvEE7__cloneEv
FUNC c9634 44 0 _ZNKSt6__ndk110__function6__funcIZZN14NetworkManager2onI14LoggedInPacketQsr3stdE12is_base_of_vI6PacketT_EEEvNS_8functionIFvPS6_EEEbENKUlNS_12basic_stringIcNS_11char_traitsIcEENS_9allocatorIcEEEEE_clESG_EUlvE_NSE_ISI_EEFvvEE7__cloneEPNS0_6__baseISK_EE
FUNC c9678 1e 0 _ZNSt6__ndk110__function6__funcIZZN14NetworkManager2onI14LoggedInPacketQsr3stdE12is_base_of_vI6PacketT_EEEvNS_8functionIFvPS6_EEEbENKUlNS_12basic_stringIcNS_11char_traitsIcEENS_9allocatorIcEEEEE_clESG_EUlvE_NSE_ISI_EEFvvEE7destroyEv
FUNC c9696 2a 0 _ZNSt6__ndk110__function6__funcIZZN14NetworkManager2onI14LoggedInPacketQsr3stdE12is_base_of_vI6PacketT_EEEvNS_8functionIFvPS6_EEEbENKUlNS_12basic_stringIcNS_11char_traitsIcEENS_9allocatorIcEEEEE_clESG_EUlvE_NSE_ISI_EEFvvEE18destroy_deallocateEv
FUNC c96c0 44 0 _ZNSt6__ndk110__function6__funcIZZN14NetworkManager2onI14LoggedInPacketQsr3stdE12is_base_of_vI6PacketT_EEEvNS_8functionIFvPS6_EEEbENKUlNS_12basic_stringIcNS_11char_traitsIcEENS_9allocatorIcEEEEE_clESG_EUlvE_NSE_ISI_EEFvvEEclEv
FUNC c9704 18 0 _ZNKSt6__ndk110__function6__funcIZZN14NetworkManager2onI14LoggedInPacketQsr3stdE12is_base_of_vI6PacketT_EEEvNS_8functionIFvPS6_EEEbENKUlNS_12basic_stringIcNS_11char_traitsIcEENS_9allocatorIcEEEEE_clESG_EUlvE_NSE_ISI_EEFvvEE6targetERKSt9type_info
FUNC c971c c 0 _ZNKSt6__ndk110__function6__funcIZZN14NetworkManager2onI14LoggedInPacketQsr3stdE12is_base_of_vI6PacketT_EEEvNS_8functionIFvPS6_EEEbENKUlNS_12basic_stringIcNS_11char_traitsIcEENS_9allocatorIcEEEEE_clESG_EUlvE_NSE_ISI_EEFvvEE11target_typeEv
FUNC c9728 34 0 std::__ndk1::__function::__func<AuthManager::login(std::__ndk1::function<void ()>)::$_0, std::__ndk1::allocator<AuthManager::login(std::__ndk1::function<void ()>)::$_0>, void (LoggedInPacket*)>::~__func()
FUNC c975c 38 0 std::__ndk1::__function::__func<AuthManager::login(std::__ndk1::function<void ()>)::$_0, std::__ndk1::allocator<AuthManager::login(std::__ndk1::function<void ()>)::$_0>, void (LoggedInPacket*)>::~__func()
FUNC c9794 54 0 std::__ndk1::__function::__func<AuthManager::login(std::__ndk1::function<void ()>)::$_0, std::__ndk1::allocator<AuthManager::login(std::__ndk1::function<void ()>)::$_0>, void (LoggedInPacket*)>::__clone() const
FUNC c97e8 44 0 std::__ndk1::__function::__func<AuthManager::login(std::__ndk1::function<void ()>)::$_0, std::__ndk1::allocator<AuthManager::login(std::__ndk1::function<void ()>)::$_0>, void (LoggedInPacket*)>::__clone(std::__ndk1::__function::__base<void (LoggedInPacket*)>*) const
FUNC c982c 1e 0 std::__ndk1::__function::__func<AuthManager::login(std::__ndk1::function<void ()>)::$_0, std::__ndk1::allocator<AuthManager::login(std::__ndk1::function<void ()>)::$_0>, void (LoggedInPacket*)>::destroy()
FUNC c984a 2a 0 std::__ndk1::__function::__func<AuthManager::login(std::__ndk1::function<void ()>)::$_0, std::__ndk1::allocator<AuthManager::login(std::__ndk1::function<void ()>)::$_0>, void (LoggedInPacket*)>::destroy_deallocate()
FUNC c9874 12 0 std::__ndk1::__function::__func<AuthManager::login(std::__ndk1::function<void ()>)::$_0, std::__ndk1::allocator<AuthManager::login(std::__ndk1::function<void ()>)::$_0>, void (LoggedInPacket*)>::operator()(LoggedInPacket*&&)
FUNC c9888 18 0 std::__ndk1::__function::__func<AuthManager::login(std::__ndk1::function<void ()>)::$_0, std::__ndk1::allocator<AuthManager::login(std::__ndk1::function<void ()>)::$_0>, void (LoggedInPacket*)>::target(std::type_info const&) const
FUNC c98a0 c 0 std::__ndk1::__function::__func<AuthManager::login(std::__ndk1::function<void ()>)::$_0, std::__ndk1::allocator<AuthManager::login(std::__ndk1::function<void ()>)::$_0>, void (LoggedInPacket*)>::target_type() const
FUNC c98ac 2 0 VerifyAuthPacket::decode(std::__ndk1::basic_string<char, std::__ndk1::char_traits<char>, std::__ndk1::allocator<char> >)
FUNC c98ae 6 0 VerifyAuthPacket::getPacketID() const
FUNC c98b4 c 0 VerifyAuthPacket::getPacketName() const
FUNC c98c0 34 0 std::__ndk1::__function::__func<NetworkManager::send<VerifyAuthPacket>(VerifyAuthPacket*, std::__ndk1::function<void ()>)::{lambda(int, int)#1}, std::__ndk1::allocator<NetworkManager::send<VerifyAuthPacket>(VerifyAuthPacket*, std::__ndk1::function<void ()>)::{lambda(int, int)#1}>, bool (int, int)>::~__func()
FUNC c98f4 38 0 std::__ndk1::__function::__func<NetworkManager::send<VerifyAuthPacket>(VerifyAuthPacket*, std::__ndk1::function<void ()>)::{lambda(int, int)#1}, std::__ndk1::allocator<NetworkManager::send<VerifyAuthPacket>(VerifyAuthPacket*, std::__ndk1::function<void ()>)::{lambda(int, int)#1}>, bool (int, int)>::~__func()
FUNC c992c 54 0 std::__ndk1::__function::__func<NetworkManager::send<VerifyAuthPacket>(VerifyAuthPacket*, std::__ndk1::function<void ()>)::{lambda(int, int)#1}, std::__ndk1::allocator<NetworkManager::send<VerifyAuthPacket>(VerifyAuthPacket*, std::__ndk1::function<void ()>)::{lambda(int, int)#1}>, bool (int, int)>::__clone() const
FUNC c9980 44 0 std::__ndk1::__function::__func<NetworkManager::send<VerifyAuthPacket>(VerifyAuthPacket*, std::__ndk1::function<void ()>)::{lambda(int, int)#1}, std::__ndk1::allocator<NetworkManager::send<VerifyAuthPacket>(VerifyAuthPacket*, std::__ndk1::function<void ()>)::{lambda(int, int)#1}>, bool (int, int)>::__clone(std::__ndk1::__function::__base<bool (int, int)>*) const
FUNC c99c4 1e 0 std::__ndk1::__function::__func<NetworkManager::send<VerifyAuthPacket>(VerifyAuthPacket*, std::__ndk1::function<void ()>)::{lambda(int, int)#1}, std::__ndk1::allocator<NetworkManager::send<VerifyAuthPacket>(VerifyAuthPacket*, std::__ndk1::function<void ()>)::{lambda(int, int)#1}>, bool (int, int)>::destroy()
FUNC c99e2 2a 0 std::__ndk1::__function::__func<NetworkManager::send<VerifyAuthPacket>(VerifyAuthPacket*, std::__ndk1::function<void ()>)::{lambda(int, int)#1}, std::__ndk1::allocator<NetworkManager::send<VerifyAuthPacket>(VerifyAuthPacket*, std::__ndk1::function<void ()>)::{lambda(int, int)#1}>, bool (int, int)>::destroy_deallocate()
FUNC c9a0c 140 0 std::__ndk1::__function::__func<NetworkManager::send<VerifyAuthPacket>(VerifyAuthPacket*, std::__ndk1::function<void ()>)::{lambda(int, int)#1}, std::__ndk1::allocator<NetworkManager::send<VerifyAuthPacket>(VerifyAuthPacket*, std::__ndk1::function<void ()>)::{lambda(int, int)#1}>, bool (int, int)>::operator()(int&&, int&&)
FUNC c9b4c 18 0 std::__ndk1::__function::__func<NetworkManager::send<VerifyAuthPacket>(VerifyAuthPacket*, std::__ndk1::function<void ()>)::{lambda(int, int)#1}, std::__ndk1::allocator<NetworkManager::send<VerifyAuthPacket>(VerifyAuthPacket*, std::__ndk1::function<void ()>)::{lambda(int, int)#1}>, bool (int, int)>::target(std::type_info const&) const
FUNC c9b64 c 0 std::__ndk1::__function::__func<NetworkManager::send<VerifyAuthPacket>(VerifyAuthPacket*, std::__ndk1::function<void ()>)::{lambda(int, int)#1}, std::__ndk1::allocator<NetworkManager::send<VerifyAuthPacket>(VerifyAuthPacket*, std::__ndk1::function<void ()>)::{lambda(int, int)#1}>, bool (int, int)>::target_type() const
FUNC c9b70 34 0 std::__ndk1::__function::__func<NetworkManager::send<VerifyAuthPacket>(VerifyAuthPacket*, std::__ndk1::function<void ()>)::{lambda(int, int)#1}::operator()(int, int) const::{lambda()#1}, std::__ndk1::allocator<NetworkManager::send<VerifyAuthPacket>(VerifyAuthPacket*, std::__ndk1::function<void ()>)::{lambda(int, int)#1}::operator()(int, int) const::{lambda()#1}>, void ()>::~__func()
FUNC c9ba4 38 0 std::__ndk1::__function::__func<NetworkManager::send<VerifyAuthPacket>(VerifyAuthPacket*, std::__ndk1::function<void ()>)::{lambda(int, int)#1}::operator()(int, int) const::{lambda()#1}, std::__ndk1::allocator<NetworkManager::send<VerifyAuthPacket>(VerifyAuthPacket*, std::__ndk1::function<void ()>)::{lambda(int, int)#1}::operator()(int, int) const::{lambda()#1}>, void ()>::~__func()
FUNC c9bdc 54 0 std::__ndk1::__function::__func<NetworkManager::send<VerifyAuthPacket>(VerifyAuthPacket*, std::__ndk1::function<void ()>)::{lambda(int, int)#1}::operator()(int, int) const::{lambda()#1}, std::__ndk1::allocator<NetworkManager::send<VerifyAuthPacket>(VerifyAuthPacket*, std::__ndk1::function<void ()>)::{lambda(int, int)#1}::operator()(int, int) const::{lambda()#1}>, void ()>::__clone() const
FUNC c9c30 44 0 std::__ndk1::__function::__func<NetworkManager::send<VerifyAuthPacket>(VerifyAuthPacket*, std::__ndk1::function<void ()>)::{lambda(int, int)#1}::operator()(int, int) const::{lambda()#1}, std::__ndk1::allocator<NetworkManager::send<VerifyAuthPacket>(VerifyAuthPacket*, std::__ndk1::function<void ()>)::{lambda(int, int)#1}::operator()(int, int) const::{lambda()#1}>, void ()>::__clone(std::__ndk1::__function::__base<void ()>*) const
FUNC c9c74 1e 0 std::__ndk1::__function::__func<NetworkManager::send<VerifyAuthPacket>(VerifyAuthPacket*, std::__ndk1::function<void ()>)::{lambda(int, int)#1}::operator()(int, int) const::{lambda()#1}, std::__ndk1::allocator<NetworkManager::send<VerifyAuthPacket>(VerifyAuthPacket*, std::__ndk1::function<void ()>)::{lambda(int, int)#1}::operator()(int, int) const::{lambda()#1}>, void ()>::destroy()
FUNC c9c92 2a 0 std::__ndk1::__function::__func<NetworkManager::send<VerifyAuthPacket>(VerifyAuthPacket*, std::__ndk1::function<void ()>)::{lambda(int, int)#1}::operator()(int, int) const::{lambda()#1}, std::__ndk1::allocator<NetworkManager::send<VerifyAuthPacket>(VerifyAuthPacket*, std::__ndk1::function<void ()>)::{lambda(int, int)#1}::operator()(int, int) const::{lambda()#1}>, void ()>::destroy_deallocate()
FUNC c9cbc 12 0 std::__ndk1::__function::__func<NetworkManager::send<VerifyAuthPacket>(VerifyAuthPacket*, std::__ndk1::function<void ()>)::{lambda(int, int)#1}::operator()(int, int) const::{lambda()#1}, std::__ndk1::allocator<NetworkManager::send<VerifyAuthPacket>(VerifyAuthPacket*, std::__ndk1::function<void ()>)::{lambda(int, int)#1}::operator()(int, int) const::{lambda()#1}>, void ()>::operator()()
FUNC c9cd0 18 0 std::__ndk1::__function::__func<NetworkManager::send<VerifyAuthPacket>(VerifyAuthPacket*, std::__ndk1::function<void ()>)::{lambda(int, int)#1}::operator()(int, int) const::{lambda()#1}, std::__ndk1::allocator<NetworkManager::send<VerifyAuthPacket>(VerifyAuthPacket*, std::__ndk1::function<void ()>)::{lambda(int, int)#1}::operator()(int, int) const::{lambda()#1}>, void ()>::target(std::type_info const&) const
FUNC c9ce8 c 0 std::__ndk1::__function::__func<NetworkManager::send<VerifyAuthPacket>(VerifyAuthPacket*, std::__ndk1::function<void ()>)::{lambda(int, int)#1}::operator()(int, int) const::{lambda()#1}, std::__ndk1::allocator<NetworkManager::send<VerifyAuthPacket>(VerifyAuthPacket*, std::__ndk1::function<void ()>)::{lambda(int, int)#1}::operator()(int, int) const::{lambda()#1}>, void ()>::target_type() const
FUNC c9cf4 68 0 _GLOBAL__sub_I_AuthManager.cpp
FUNC c9d5c 118 0 SwapManager::SwapManager()
FUNC c9e74 10c 0 SwapManager::createDefaultSettings()
FUNC c9f80 7e 0 cr::utils::createAccountType()
FUNC ca000 b0c 0 SwapManager::createLobby(LobbySettings, std::__ndk1::function<void (std::__ndk1::basic_string<char, std::__ndk1::char_traits<char>, std::__ndk1::allocator<char> >)>)
FUNC cab0c b8c 0 SwapManager::joinLobby(std::__ndk1::basic_string<char, std::__ndk1::char_traits<char>, std::__ndk1::allocator<char> >, std::__ndk1::function<void ()>)
FUNC cb698 34 0 SwapManager::joinLobby(std::__ndk1::basic_string<char, std::__ndk1::char_traits<char>, std::__ndk1::allocator<char> >, std::__ndk1::function<void ()>)::$_0::~$_0()
FUNC cb6cc 950 0 SwapManager::getLobbyInfo(std::__ndk1::function<void (LobbyInfo)>)
FUNC cc01c 9cc 0 SwapManager::updateLobby(LobbySettings)
FUNC cc9e8 150 0 SwapManager::disconnectLobby()
FUNC ccb38 c0 0 SwapManager::startSwap(SwapStartedPacket*)
FUNC ccbf8 5f0 0 SwapManager::registerListeners()
FUNC cd1e8 4 0 std::__ndk1::__function::__func<SwapManager::SwapManager()::$_0, std::__ndk1::allocator<SwapManager::SwapManager()::$_0>, void (std::__ndk1::basic_string<char, std::__ndk1::char_traits<char>, std::__ndk1::allocator<char> >)>::~__func()
FUNC cd1ec 20 0 std::__ndk1::__function::__func<SwapManager::SwapManager()::$_0, std::__ndk1::allocator<SwapManager::SwapManager()::$_0>, void (std::__ndk1::basic_string<char, std::__ndk1::char_traits<char>, std::__ndk1::allocator<char> >)>::__clone() const
FUNC cd20c 14 0 std::__ndk1::__function::__func<SwapManager::SwapManager()::$_0, std::__ndk1::allocator<SwapManager::SwapManager()::$_0>, void (std::__ndk1::basic_string<char, std::__ndk1::char_traits<char>, std::__ndk1::allocator<char> >)>::__clone(std::__ndk1::__function::__base<void (std::__ndk1::basic_string<char, std::__ndk1::char_traits<char>, std::__ndk1::allocator<char> >)>*) const
FUNC cd220 2 0 std::__ndk1::__function::__func<SwapManager::SwapManager()::$_0, std::__ndk1::allocator<SwapManager::SwapManager()::$_0>, void (std::__ndk1::basic_string<char, std::__ndk1::char_traits<char>, std::__ndk1::allocator<char> >)>::destroy()
FUNC cd222 4 0 std::__ndk1::__function::__func<SwapManager::SwapManager()::$_0, std::__ndk1::allocator<SwapManager::SwapManager()::$_0>, void (std::__ndk1::basic_string<char, std::__ndk1::char_traits<char>, std::__ndk1::allocator<char> >)>::destroy_deallocate()
FUNC cd226 34 0 std::__ndk1::__function::__func<SwapManager::SwapManager()::$_0, std::__ndk1::allocator<SwapManager::SwapManager()::$_0>, void (std::__ndk1::basic_string<char, std::__ndk1::char_traits<char>, std::__ndk1::allocator<char> >)>::operator()(std::__ndk1::basic_string<char, std::__ndk1::char_traits<char>, std::__ndk1::allocator<char> >&&)
FUNC cd25c 18 0 std::__ndk1::__function::__func<SwapManager::SwapManager()::$_0, std::__ndk1::allocator<SwapManager::SwapManager()::$_0>, void (std::__ndk1::basic_string<char, std::__ndk1::char_traits<char>, std::__ndk1::allocator<char> >)>::target(std::type_info const&) const
FUNC cd274 c 0 std::__ndk1::__function::__func<SwapManager::SwapManager()::$_0, std::__ndk1::allocator<SwapManager::SwapManager()::$_0>, void (std::__ndk1::basic_string<char, std::__ndk1::char_traits<char>, std::__ndk1::allocator<char> >)>::target_type() const
FUNC cd280 2 0 CreateLobbyPacket::decode(std::__ndk1::basic_string<char, std::__ndk1::char_traits<char>, std::__ndk1::allocator<char> >)
FUNC cd282 6 0 CreateLobbyPacket::getPacketID() const
FUNC cd288 c 0 CreateLobbyPacket::getPacketName() const
FUNC cd294 298 0 cereal::OutputArchive<cereal::JSONOutputArchive, (unsigned int)0>::process<cereal::NameValuePair<int&>, cereal::NameValuePair<Account&>, cereal::NameValuePair<int&>, cereal::NameValuePair<bool&> >(cereal::NameValuePair<int&>&&, cereal::NameValuePair<Account&>&&, cereal::NameValuePair<int&>, cereal::NameValuePair<bool&>)
FUNC cd52c 34 0 std::__ndk1::__function::__func<NetworkManager::send<CreateLobbyPacket>(CreateLobbyPacket*, std::__ndk1::function<void ()>)::{lambda(int, int)#1}, std::__ndk1::allocator<NetworkManager::send<CreateLobbyPacket>(CreateLobbyPacket*, std::__ndk1::function<void ()>)::{lambda(int, int)#1}>, bool (int, int)>::~__func()
FUNC cd560 38 0 std::__ndk1::__function::__func<NetworkManager::send<CreateLobbyPacket>(CreateLobbyPacket*, std::__ndk1::function<void ()>)::{lambda(int, int)#1}, std::__ndk1::allocator<NetworkManager::send<CreateLobbyPacket>(CreateLobbyPacket*, std::__ndk1::function<void ()>)::{lambda(int, int)#1}>, bool (int, int)>::~__func()
FUNC cd598 54 0 std::__ndk1::__function::__func<NetworkManager::send<CreateLobbyPacket>(CreateLobbyPacket*, std::__ndk1::function<void ()>)::{lambda(int, int)#1}, std::__ndk1::allocator<NetworkManager::send<CreateLobbyPacket>(CreateLobbyPacket*, std::__ndk1::function<void ()>)::{lambda(int, int)#1}>, bool (int, int)>::__clone() const
FUNC cd5ec 44 0 std::__ndk1::__function::__func<NetworkManager::send<CreateLobbyPacket>(CreateLobbyPacket*, std::__ndk1::function<void ()>)::{lambda(int, int)#1}, std::__ndk1::allocator<NetworkManager::send<CreateLobbyPacket>(CreateLobbyPacket*, std::__ndk1::function<void ()>)::{lambda(int, int)#1}>, bool (int, int)>::__clone(std::__ndk1::__function::__base<bool (int, int)>*) const
FUNC cd630 1e 0 std::__ndk1::__function::__func<NetworkManager::send<CreateLobbyPacket>(CreateLobbyPacket*, std::__ndk1::function<void ()>)::{lambda(int, int)#1}, std::__ndk1::allocator<NetworkManager::send<CreateLobbyPacket>(CreateLobbyPacket*, std::__ndk1::function<void ()>)::{lambda(int, int)#1}>, bool (int, int)>::destroy()
FUNC cd64e 2a 0 std::__ndk1::__function::__func<NetworkManager::send<CreateLobbyPacket>(CreateLobbyPacket*, std::__ndk1::function<void ()>)::{lambda(int, int)#1}, std::__ndk1::allocator<NetworkManager::send<CreateLobbyPacket>(CreateLobbyPacket*, std::__ndk1::function<void ()>)::{lambda(int, int)#1}>, bool (int, int)>::destroy_deallocate()
FUNC cd678 140 0 std::__ndk1::__function::__func<NetworkManager::send<CreateLobbyPacket>(CreateLobbyPacket*, std::__ndk1::function<void ()>)::{lambda(int, int)#1}, std::__ndk1::allocator<NetworkManager::send<CreateLobbyPacket>(CreateLobbyPacket*, std::__ndk1::function<void ()>)::{lambda(int, int)#1}>, bool (int, int)>::operator()(int&&, int&&)
FUNC cd7b8 18 0 std::__ndk1::__function::__func<NetworkManager::send<CreateLobbyPacket>(CreateLobbyPacket*, std::__ndk1::function<void ()>)::{lambda(int, int)#1}, std::__ndk1::allocator<NetworkManager::send<CreateLobbyPacket>(CreateLobbyPacket*, std::__ndk1::function<void ()>)::{lambda(int, int)#1}>, bool (int, int)>::target(std::type_info const&) const
FUNC cd7d0 c 0 std::__ndk1::__function::__func<NetworkManager::send<CreateLobbyPacket>(CreateLobbyPacket*, std::__ndk1::function<void ()>)::{lambda(int, int)#1}, std::__ndk1::allocator<NetworkManager::send<CreateLobbyPacket>(CreateLobbyPacket*, std::__ndk1::function<void ()>)::{lambda(int, int)#1}>, bool (int, int)>::target_type() const
FUNC cd7dc 34 0 std::__ndk1::__function::__func<NetworkManager::send<CreateLobbyPacket>(CreateLobbyPacket*, std::__ndk1::function<void ()>)::{lambda(int, int)#1}::operator()(int, int) const::{lambda()#1}, std::__ndk1::allocator<NetworkManager::send<CreateLobbyPacket>(CreateLobbyPacket*, std::__ndk1::function<void ()>)::{lambda(int, int)#1}::operator()(int, int) const::{lambda()#1}>, void ()>::~__func()
FUNC cd810 38 0 std::__ndk1::__function::__func<NetworkManager::send<CreateLobbyPacket>(CreateLobbyPacket*, std::__ndk1::function<void ()>)::{lambda(int, int)#1}::operator()(int, int) const::{lambda()#1}, std::__ndk1::allocator<NetworkManager::send<CreateLobbyPacket>(CreateLobbyPacket*, std::__ndk1::function<void ()>)::{lambda(int, int)#1}::operator()(int, int) const::{lambda()#1}>, void ()>::~__func()
FUNC cd848 54 0 std::__ndk1::__function::__func<NetworkManager::send<CreateLobbyPacket>(CreateLobbyPacket*, std::__ndk1::function<void ()>)::{lambda(int, int)#1}::operator()(int, int) const::{lambda()#1}, std::__ndk1::allocator<NetworkManager::send<CreateLobbyPacket>(CreateLobbyPacket*, std::__ndk1::function<void ()>)::{lambda(int, int)#1}::operator()(int, int) const::{lambda()#1}>, void ()>::__clone() const
FUNC cd89c 44 0 std::__ndk1::__function::__func<NetworkManager::send<CreateLobbyPacket>(CreateLobbyPacket*, std::__ndk1::function<void ()>)::{lambda(int, int)#1}::operator()(int, int) const::{lambda()#1}, std::__ndk1::allocator<NetworkManager::send<CreateLobbyPacket>(CreateLobbyPacket*, std::__ndk1::function<void ()>)::{lambda(int, int)#1}::operator()(int, int) const::{lambda()#1}>, void ()>::__clone(std::__ndk1::__function::__base<void ()>*) const
FUNC cd8e0 1e 0 std::__ndk1::__function::__func<NetworkManager::send<CreateLobbyPacket>(CreateLobbyPacket*, std::__ndk1::function<void ()>)::{lambda(int, int)#1}::operator()(int, int) const::{lambda()#1}, std::__ndk1::allocator<NetworkManager::send<CreateLobbyPacket>(CreateLobbyPacket*, std::__ndk1::function<void ()>)::{lambda(int, int)#1}::operator()(int, int) const::{lambda()#1}>, void ()>::destroy()
FUNC cd8fe 2a 0 std::__ndk1::__function::__func<NetworkManager::send<CreateLobbyPacket>(CreateLobbyPacket*, std::__ndk1::function<void ()>)::{lambda(int, int)#1}::operator()(int, int) const::{lambda()#1}, std::__ndk1::allocator<NetworkManager::send<CreateLobbyPacket>(CreateLobbyPacket*, std::__ndk1::function<void ()>)::{lambda(int, int)#1}::operator()(int, int) const::{lambda()#1}>, void ()>::destroy_deallocate()
FUNC cd928 12 0 std::__ndk1::__function::__func<NetworkManager::send<CreateLobbyPacket>(CreateLobbyPacket*, std::__ndk1::function<void ()>)::{lambda(int, int)#1}::operator()(int, int) const::{lambda()#1}, std::__ndk1::allocator<NetworkManager::send<CreateLobbyPacket>(CreateLobbyPacket*, std::__ndk1::function<void ()>)::{lambda(int, int)#1}::operator()(int, int) const::{lambda()#1}>, void ()>::operator()()
FUNC cd93c 18 0 std::__ndk1::__function::__func<NetworkManager::send<CreateLobbyPacket>(CreateLobbyPacket*, std::__ndk1::function<void ()>)::{lambda(int, int)#1}::operator()(int, int) const::{lambda()#1}, std::__ndk1::allocator<NetworkManager::send<CreateLobbyPacket>(CreateLobbyPacket*, std::__ndk1::function<void ()>)::{lambda(int, int)#1}::operator()(int, int) const::{lambda()#1}>, void ()>::target(std::type_info const&) const
FUNC cd954 c 0 std::__ndk1::__function::__func<NetworkManager::send<CreateLobbyPacket>(CreateLobbyPacket*, std::__ndk1::function<void ()>)::{lambda(int, int)#1}::operator()(int, int) const::{lambda()#1}, std::__ndk1::allocator<NetworkManager::send<CreateLobbyPacket>(CreateLobbyPacket*, std::__ndk1::function<void ()>)::{lambda(int, int)#1}::operator()(int, int) const::{lambda()#1}>, void ()>::target_type() const
FUNC cd960 34 0 _ZNSt6__ndk110__function6__funcIZN14NetworkManager2onI18LobbyCreatedPacketQsr3stdE12is_base_of_vI6PacketT_EEEvNS_8functionIFvPS6_EEEbEUlNS_12basic_stringIcNS_11char_traitsIcEENS_9allocatorIcEEEEE_NSE_ISH_EEFvSG_EED2Ev
FUNC cd994 38 0 _ZNSt6__ndk110__function6__funcIZN14NetworkManager2onI18LobbyCreatedPacketQsr3stdE12is_base_of_vI6PacketT_EEEvNS_8functionIFvPS6_EEEbEUlNS_12basic_stringIcNS_11char_traitsIcEENS_9allocatorIcEEEEE_NSE_ISH_EEFvSG_EED0Ev
FUNC cd9cc 54 0 _ZNKSt6__ndk110__function6__funcIZN14NetworkManager2onI18LobbyCreatedPacketQsr3stdE12is_base_of_vI6PacketT_EEEvNS_8functionIFvPS6_EEEbEUlNS_12basic_stringIcNS_11char_traitsIcEENS_9allocatorIcEEEEE_NSE_ISH_EEFvSG_EE7__cloneEv
FUNC cda20 44 0 _ZNKSt6__ndk110__function6__funcIZN14NetworkManager2onI18LobbyCreatedPacketQsr3stdE12is_base_of_vI6PacketT_EEEvNS_8functionIFvPS6_EEEbEUlNS_12basic_stringIcNS_11char_traitsIcEENS_9allocatorIcEEEEE_NSE_ISH_EEFvSG_EE7__cloneEPNS0_6__baseISJ_EE
FUNC cda64 1e 0 _ZNSt6__ndk110__function6__funcIZN14NetworkManager2onI18LobbyCreatedPacketQsr3stdE12is_base_of_vI6PacketT_EEEvNS_8functionIFvPS6_EEEbEUlNS_12basic_stringIcNS_11char_traitsIcEENS_9allocatorIcEEEEE_NSE_ISH_EEFvSG_EE7destroyEv
FUNC cda82 2a 0 _ZNSt6__ndk110__function6__funcIZN14NetworkManager2onI18LobbyCreatedPacketQsr3stdE12is_base_of_vI6PacketT_EEEvNS_8functionIFvPS6_EEEbEUlNS_12basic_stringIcNS_11char_traitsIcEENS_9allocatorIcEEEEE_NSE_ISH_EEFvSG_EE18destroy_deallocateEv
FUNC cdaac 2bc 0 _ZNSt6__ndk110__function6__funcIZN14NetworkManager2onI18LobbyCreatedPacketQsr3stdE12is_base_of_vI6PacketT_EEEvNS_8functionIFvPS6_EEEbEUlNS_12basic_stringIcNS_11char_traitsIcEENS_9allocatorIcEEEEE_NSE_ISH_EEFvSG_EEclEOSG_
FUNC cdd68 18 0 _ZNKSt6__ndk110__function6__funcIZN14NetworkManager2onI18LobbyCreatedPacketQsr3stdE12is_base_of_vI6PacketT_EEEvNS_8functionIFvPS6_EEEbEUlNS_12basic_stringIcNS_11char_traitsIcEENS_9allocatorIcEEEEE_NSE_ISH_EEFvSG_EE6targetERKSt9type_info
FUNC cdd80 c 0 _ZNKSt6__ndk110__function6__funcIZN14NetworkManager2onI18LobbyCreatedPacketQsr3stdE12is_base_of_vI6PacketT_EEEvNS_8functionIFvPS6_EEEbEUlNS_12basic_stringIcNS_11char_traitsIcEENS_9allocatorIcEEEEE_NSE_ISH_EEFvSG_EE11target_typeEv
FUNC cdd8c 2 0 LobbyCreatedPacket::decode(std::__ndk1::basic_string<char, std::__ndk1::char_traits<char>, std::__ndk1::allocator<char> >)
FUNC cdd8e 6 0 LobbyCreatedPacket::getPacketID() const
FUNC cdd94 c 0 LobbyCreatedPacket::getPacketName() const
FUNC cdda0 34 0 _ZNSt6__ndk110__function6__funcIZZN14NetworkManager2onI18LobbyCreatedPacketQsr3stdE12is_base_of_vI6PacketT_EEEvNS_8functionIFvPS6_EEEbENKUlNS_12basic_stringIcNS_11char_traitsIcEENS_9allocatorIcEEEEE_clESG_EUlvE_NSE_ISI_EEFvvEED2Ev
FUNC cddd4 38 0 _ZNSt6__ndk110__function6__funcIZZN14NetworkManager2onI18LobbyCreatedPacketQsr3stdE12is_base_of_vI6PacketT_EEEvNS_8functionIFvPS6_EEEbENKUlNS_12basic_stringIcNS_11char_traitsIcEENS_9allocatorIcEEEEE_clESG_EUlvE_NSE_ISI_EEFvvEED0Ev
FUNC cde0c 54 0 _ZNKSt6__ndk110__function6__funcIZZN14NetworkManager2onI18LobbyCreatedPacketQsr3stdE12is_base_of_vI6PacketT_EEEvNS_8functionIFvPS6_EEEbENKUlNS_12basic_stringIcNS_11char_traitsIcEENS_9allocatorIcEEEEE_clESG_EUlvE_NSE_ISI_EEFvvEE7__cloneEv
FUNC cde60 44 0 _ZNKSt6__ndk110__function6__funcIZZN14NetworkManager2onI18LobbyCreatedPacketQsr3stdE12is_base_of_vI6PacketT_EEEvNS_8functionIFvPS6_EEEbENKUlNS_12basic_stringIcNS_11char_traitsIcEENS_9allocatorIcEEEEE_clESG_EUlvE_NSE_ISI_EEFvvEE7__cloneEPNS0_6__baseISK_EE
FUNC cdea4 1e 0 _ZNSt6__ndk110__function6__funcIZZN14NetworkManager2onI18LobbyCreatedPacketQsr3stdE12is_base_of_vI6PacketT_EEEvNS_8functionIFvPS6_EEEbENKUlNS_12basic_stringIcNS_11char_traitsIcEENS_9allocatorIcEEEEE_clESG_EUlvE_NSE_ISI_EEFvvEE7destroyEv
FUNC cdec2 2a 0 _ZNSt6__ndk110__function6__funcIZZN14NetworkManager2onI18LobbyCreatedPacketQsr3stdE12is_base_of_vI6PacketT_EEEvNS_8functionIFvPS6_EEEbENKUlNS_12basic_stringIcNS_11char_traitsIcEENS_9allocatorIcEEEEE_clESG_EUlvE_NSE_ISI_EEFvvEE18destroy_deallocateEv
FUNC cdeec 44 0 _ZNSt6__ndk110__function6__funcIZZN14NetworkManager2onI18LobbyCreatedPacketQsr3stdE12is_base_of_vI6PacketT_EEEvNS_8functionIFvPS6_EEEbENKUlNS_12basic_stringIcNS_11char_traitsIcEENS_9allocatorIcEEEEE_clESG_EUlvE_NSE_ISI_EEFvvEEclEv
FUNC cdf30 18 0 _ZNKSt6__ndk110__function6__funcIZZN14NetworkManager2onI18LobbyCreatedPacketQsr3stdE12is_base_of_vI6PacketT_EEEvNS_8functionIFvPS6_EEEbENKUlNS_12basic_stringIcNS_11char_traitsIcEENS_9allocatorIcEEEEE_clESG_EUlvE_NSE_ISI_EEFvvEE6targetERKSt9type_info
FUNC cdf48 c 0 _ZNKSt6__ndk110__function6__funcIZZN14NetworkManager2onI18LobbyCreatedPacketQsr3stdE12is_base_of_vI6PacketT_EEEvNS_8functionIFvPS6_EEEbENKUlNS_12basic_stringIcNS_11char_traitsIcEENS_9allocatorIcEEEEE_clESG_EUlvE_NSE_ISI_EEFvvEE11target_typeEv
FUNC cdf54 34 0 std::__ndk1::__function::__func<SwapManager::createLobby(LobbySettings, std::__ndk1::function<void (std::__ndk1::basic_string<char, std::__ndk1::char_traits<char>, std::__ndk1::allocator<char> >)>)::$_0, std::__ndk1::allocator<SwapManager::createLobby(LobbySettings, std::__ndk1::function<void (std::__ndk1::basic_string<char, std::__ndk1::char_traits<char>, std::__ndk1::allocator<char> >)>)::$_0>, void (LobbyCreatedPacket*)>::~__func()
FUNC cdf88 38 0 std::__ndk1::__function::__func<SwapManager::createLobby(LobbySettings, std::__ndk1::function<void (std::__ndk1::basic_string<char, std::__ndk1::char_traits<char>, std::__ndk1::allocator<char> >)>)::$_0, std::__ndk1::allocator<SwapManager::createLobby(LobbySettings, std::__ndk1::function<void (std::__ndk1::basic_string<char, std::__ndk1::char_traits<char>, std::__ndk1::allocator<char> >)>)::$_0>, void (LobbyCreatedPacket*)>::~__func()
FUNC cdfc0 58 0 std::__ndk1::__function::__func<SwapManager::createLobby(LobbySettings, std::__ndk1::function<void (std::__ndk1::basic_string<char, std::__ndk1::char_traits<char>, std::__ndk1::allocator<char> >)>)::$_0, std::__ndk1::allocator<SwapManager::createLobby(LobbySettings, std::__ndk1::function<void (std::__ndk1::basic_string<char, std::__ndk1::char_traits<char>, std::__ndk1::allocator<char> >)>)::$_0>, void (LobbyCreatedPacket*)>::__clone() const
FUNC ce018 48 0 std::__ndk1::__function::__func<SwapManager::createLobby(LobbySettings, std::__ndk1::function<void (std::__ndk1::basic_string<char, std::__ndk1::char_traits<char>, std::__ndk1::allocator<char> >)>)::$_0, std::__ndk1::allocator<SwapManager::createLobby(LobbySettings, std::__ndk1::function<void (std::__ndk1::basic_string<char, std::__ndk1::char_traits<char>, std::__ndk1::allocator<char> >)>)::$_0>, void (LobbyCreatedPacket*)>::__clone(std::__ndk1::__function::__base<void (LobbyCreatedPacket*)>*) const
FUNC ce060 1e 0 std::__ndk1::__function::__func<SwapManager::createLobby(LobbySettings, std::__ndk1::function<void (std::__ndk1::basic_string<char, std::__ndk1::char_traits<char>, std::__ndk1::allocator<char> >)>)::$_0, std::__ndk1::allocator<SwapManager::createLobby(LobbySettings, std::__ndk1::function<void (std::__ndk1::basic_string<char, std::__ndk1::char_traits<char>, std::__ndk1::allocator<char> >)>)::$_0>, void (LobbyCreatedPacket*)>::destroy()
FUNC ce07e 2a 0 std::__ndk1::__function::__func<SwapManager::createLobby(LobbySettings, std::__ndk1::function<void (std::__ndk1::basic_string<char, std::__ndk1::char_traits<char>, std::__ndk1::allocator<char> >)>)::$_0, std::__ndk1::allocator<SwapManager::createLobby(LobbySettings, std::__ndk1::function<void (std::__ndk1::basic_string<char, std::__ndk1::char_traits<char>, std::__ndk1::allocator<char> >)>)::$_0>, void (LobbyCreatedPacket*)>::destroy_deallocate()
FUNC ce0a8 14c 0 std::__ndk1::__function::__func<SwapManager::createLobby(LobbySettings, std::__ndk1::function<void (std::__ndk1::basic_string<char, std::__ndk1::char_traits<char>, std::__ndk1::allocator<char> >)>)::$_0, std::__ndk1::allocator<SwapManager::createLobby(LobbySettings, std::__ndk1::function<void (std::__ndk1::basic_string<char, std::__ndk1::char_traits<char>, std::__ndk1::allocator<char> >)>)::$_0>, void (LobbyCreatedPacket*)>::operator()(LobbyCreatedPacket*&&)
FUNC ce1f4 18 0 std::__ndk1::__function::__func<SwapManager::createLobby(LobbySettings, std::__ndk1::function<void (std::__ndk1::basic_string<char, std::__ndk1::char_traits<char>, std::__ndk1::allocator<char> >)>)::$_0, std::__ndk1::allocator<SwapManager::createLobby(LobbySettings, std::__ndk1::function<void (std::__ndk1::basic_string<char, std::__ndk1::char_traits<char>, std::__ndk1::allocator<char> >)>)::$_0>, void (LobbyCreatedPacket*)>::target(std::type_info const&) const
FUNC ce20c c 0 std::__ndk1::__function::__func<SwapManager::createLobby(LobbySettings, std::__ndk1::function<void (std::__ndk1::basic_string<char, std::__ndk1::char_traits<char>, std::__ndk1::allocator<char> >)>)::$_0, std::__ndk1::allocator<SwapManager::createLobby(LobbySettings, std::__ndk1::function<void (std::__ndk1::basic_string<char, std::__ndk1::char_traits<char>, std::__ndk1::allocator<char> >)>)::$_0>, void (LobbyCreatedPacket*)>::target_type() const
FUNC ce218 34 0 std::__ndk1::__function::__func<SwapManager::createLobby(LobbySettings, std::__ndk1::function<void (std::__ndk1::basic_string<char, std::__ndk1::char_traits<char>, std::__ndk1::allocator<char> >)>)::$_0::operator()(LobbyCreatedPacket*) const::{lambda()#1}, std::__ndk1::allocator<SwapManager::createLobby(LobbySettings, std::__ndk1::function<void (std::__ndk1::basic_string<char, std::__ndk1::char_traits<char>, std::__ndk1::allocator<char> >)>)::$_0::operator()(LobbyCreatedPacket*) const::{lambda()#1}>, void ()>::~__func()
FUNC ce24c 38 0 std::__ndk1::__function::__func<SwapManager::createLobby(LobbySettings, std::__ndk1::function<void (std::__ndk1::basic_string<char, std::__ndk1::char_traits<char>, std::__ndk1::allocator<char> >)>)::$_0::operator()(LobbyCreatedPacket*) const::{lambda()#1}, std::__ndk1::allocator<SwapManager::createLobby(LobbySettings, std::__ndk1::function<void (std::__ndk1::basic_string<char, std::__ndk1::char_traits<char>, std::__ndk1::allocator<char> >)>)::$_0::operator()(LobbyCreatedPacket*) const::{lambda()#1}>, void ()>::~__func()
FUNC ce284 58 0 std::__ndk1::__function::__func<SwapManager::createLobby(LobbySettings, std::__ndk1::function<void (std::__ndk1::basic_string<char, std::__ndk1::char_traits<char>, std::__ndk1::allocator<char> >)>)::$_0::operator()(LobbyCreatedPacket*) const::{lambda()#1}, std::__ndk1::allocator<SwapManager::createLobby(LobbySettings, std::__ndk1::function<void (std::__ndk1::basic_string<char, std::__ndk1::char_traits<char>, std::__ndk1::allocator<char> >)>)::$_0::operator()(LobbyCreatedPacket*) const::{lambda()#1}>, void ()>::__clone() const
FUNC ce2dc 48 0 std::__ndk1::__function::__func<SwapManager::createLobby(LobbySettings, std::__ndk1::function<void (std::__ndk1::basic_string<char, std::__ndk1::char_traits<char>, std::__ndk1::allocator<char> >)>)::$_0::operator()(LobbyCreatedPacket*) const::{lambda()#1}, std::__ndk1::allocator<SwapManager::createLobby(LobbySettings, std::__ndk1::function<void (std::__ndk1::basic_string<char, std::__ndk1::char_traits<char>, std::__ndk1::allocator<char> >)>)::$_0::operator()(LobbyCreatedPacket*) const::{lambda()#1}>, void ()>::__clone(std::__ndk1::__function::__base<void ()>*) const
FUNC ce324 1e 0 std::__ndk1::__function::__func<SwapManager::createLobby(LobbySettings, std::__ndk1::function<void (std::__ndk1::basic_string<char, std::__ndk1::char_traits<char>, std::__ndk1::allocator<char> >)>)::$_0::operator()(LobbyCreatedPacket*) const::{lambda()#1}, std::__ndk1::allocator<SwapManager::createLobby(LobbySettings, std::__ndk1::function<void (std::__ndk1::basic_string<char, std::__ndk1::char_traits<char>, std::__ndk1::allocator<char> >)>)::$_0::operator()(LobbyCreatedPacket*) const::{lambda()#1}>, void ()>::destroy()
FUNC ce342 2a 0 std::__ndk1::__function::__func<SwapManager::createLobby(LobbySettings, std::__ndk1::function<void (std::__ndk1::basic_string<char, std::__ndk1::char_traits<char>, std::__ndk1::allocator<char> >)>)::$_0::operator()(LobbyCreatedPacket*) const::{lambda()#1}, std::__ndk1::allocator<SwapManager::createLobby(LobbySettings, std::__ndk1::function<void (std::__ndk1::basic_string<char, std::__ndk1::char_traits<char>, std::__ndk1::allocator<char> >)>)::$_0::operator()(LobbyCreatedPacket*) const::{lambda()#1}>, void ()>::destroy_deallocate()
FUNC ce36c 84 0 std::__ndk1::__function::__func<SwapManager::createLobby(LobbySettings, std::__ndk1::function<void (std::__ndk1::basic_string<char, std::__ndk1::char_traits<char>, std::__ndk1::allocator<char> >)>)::$_0::operator()(LobbyCreatedPacket*) const::{lambda()#1}, std::__ndk1::allocator<SwapManager::createLobby(LobbySettings, std::__ndk1::function<void (std::__ndk1::basic_string<char, std::__ndk1::char_traits<char>, std::__ndk1::allocator<char> >)>)::$_0::operator()(LobbyCreatedPacket*) const::{lambda()#1}>, void ()>::operator()()
FUNC ce3f0 18 0 std::__ndk1::__function::__func<SwapManager::createLobby(LobbySettings, std::__ndk1::function<void (std::__ndk1::basic_string<char, std::__ndk1::char_traits<char>, std::__ndk1::allocator<char> >)>)::$_0::operator()(LobbyCreatedPacket*) const::{lambda()#1}, std::__ndk1::allocator<SwapManager::createLobby(LobbySettings, std::__ndk1::function<void (std::__ndk1::basic_string<char, std::__ndk1::char_traits<char>, std::__ndk1::allocator<char> >)>)::$_0::operator()(LobbyCreatedPacket*) const::{lambda()#1}>, void ()>::target(std::type_info const&) const
FUNC ce408 c 0 std::__ndk1::__function::__func<SwapManager::createLobby(LobbySettings, std::__ndk1::function<void (std::__ndk1::basic_string<char, std::__ndk1::char_traits<char>, std::__ndk1::allocator<char> >)>)::$_0::operator()(LobbyCreatedPacket*) const::{lambda()#1}, std::__ndk1::allocator<SwapManager::createLobby(LobbySettings, std::__ndk1::function<void (std::__ndk1::basic_string<char, std::__ndk1::char_traits<char>, std::__ndk1::allocator<char> >)>)::$_0::operator()(LobbyCreatedPacket*) const::{lambda()#1}>, void ()>::target_type() const
FUNC ce414 2 0 JoinLobbyPacket::decode(std::__ndk1::basic_string<char, std::__ndk1::char_traits<char>, std::__ndk1::allocator<char> >)
FUNC ce416 6 0 JoinLobbyPacket::getPacketID() const
FUNC ce41c c 0 JoinLobbyPacket::getPacketName() const
FUNC ce428 34 0 std::__ndk1::__function::__func<NetworkManager::send<JoinLobbyPacket>(JoinLobbyPacket*, std::__ndk1::function<void ()>)::{lambda(int, int)#1}, std::__ndk1::allocator<NetworkManager::send<JoinLobbyPacket>(JoinLobbyPacket*, std::__ndk1::function<void ()>)::{lambda(int, int)#1}>, bool (int, int)>::~__func()
FUNC ce45c 38 0 std::__ndk1::__function::__func<NetworkManager::send<JoinLobbyPacket>(JoinLobbyPacket*, std::__ndk1::function<void ()>)::{lambda(int, int)#1}, std::__ndk1::allocator<NetworkManager::send<JoinLobbyPacket>(JoinLobbyPacket*, std::__ndk1::function<void ()>)::{lambda(int, int)#1}>, bool (int, int)>::~__func()
FUNC ce494 54 0 std::__ndk1::__function::__func<NetworkManager::send<JoinLobbyPacket>(JoinLobbyPacket*, std::__ndk1::function<void ()>)::{lambda(int, int)#1}, std::__ndk1::allocator<NetworkManager::send<JoinLobbyPacket>(JoinLobbyPacket*, std::__ndk1::function<void ()>)::{lambda(int, int)#1}>, bool (int, int)>::__clone() const
FUNC ce4e8 44 0 std::__ndk1::__function::__func<NetworkManager::send<JoinLobbyPacket>(JoinLobbyPacket*, std::__ndk1::function<void ()>)::{lambda(int, int)#1}, std::__ndk1::allocator<NetworkManager::send<JoinLobbyPacket>(JoinLobbyPacket*, std::__ndk1::function<void ()>)::{lambda(int, int)#1}>, bool (int, int)>::__clone(std::__ndk1::__function::__base<bool (int, int)>*) const
FUNC ce52c 1e 0 std::__ndk1::__function::__func<NetworkManager::send<JoinLobbyPacket>(JoinLobbyPacket*, std::__ndk1::function<void ()>)::{lambda(int, int)#1}, std::__ndk1::allocator<NetworkManager::send<JoinLobbyPacket>(JoinLobbyPacket*, std::__ndk1::function<void ()>)::{lambda(int, int)#1}>, bool (int, int)>::destroy()
FUNC ce54a 2a 0 std::__ndk1::__function::__func<NetworkManager::send<JoinLobbyPacket>(JoinLobbyPacket*, std::__ndk1::function<void ()>)::{lambda(int, int)#1}, std::__ndk1::allocator<NetworkManager::send<JoinLobbyPacket>(JoinLobbyPacket*, std::__ndk1::function<void ()>)::{lambda(int, int)#1}>, bool (int, int)>::destroy_deallocate()
FUNC ce574 140 0 std::__ndk1::__function::__func<NetworkManager::send<JoinLobbyPacket>(JoinLobbyPacket*, std::__ndk1::function<void ()>)::{lambda(int, int)#1}, std::__ndk1::allocator<NetworkManager::send<JoinLobbyPacket>(JoinLobbyPacket*, std::__ndk1::function<void ()>)::{lambda(int, int)#1}>, bool (int, int)>::operator()(int&&, int&&)
FUNC ce6b4 18 0 std::__ndk1::__function::__func<NetworkManager::send<JoinLobbyPacket>(JoinLobbyPacket*, std::__ndk1::function<void ()>)::{lambda(int, int)#1}, std::__ndk1::allocator<NetworkManager::send<JoinLobbyPacket>(JoinLobbyPacket*, std::__ndk1::function<void ()>)::{lambda(int, int)#1}>, bool (int, int)>::target(std::type_info const&) const
FUNC ce6cc c 0 std::__ndk1::__function::__func<NetworkManager::send<JoinLobbyPacket>(JoinLobbyPacket*, std::__ndk1::function<void ()>)::{lambda(int, int)#1}, std::__ndk1::allocator<NetworkManager::send<JoinLobbyPacket>(JoinLobbyPacket*, std::__ndk1::function<void ()>)::{lambda(int, int)#1}>, bool (int, int)>::target_type() const
FUNC ce6d8 34 0 std::__ndk1::__function::__func<NetworkManager::send<JoinLobbyPacket>(JoinLobbyPacket*, std::__ndk1::function<void ()>)::{lambda(int, int)#1}::operator()(int, int) const::{lambda()#1}, std::__ndk1::allocator<NetworkManager::send<JoinLobbyPacket>(JoinLobbyPacket*, std::__ndk1::function<void ()>)::{lambda(int, int)#1}::operator()(int, int) const::{lambda()#1}>, void ()>::~__func()
FUNC ce70c 38 0 std::__ndk1::__function::__func<NetworkManager::send<JoinLobbyPacket>(JoinLobbyPacket*, std::__ndk1::function<void ()>)::{lambda(int, int)#1}::operator()(int, int) const::{lambda()#1}, std::__ndk1::allocator<NetworkManager::send<JoinLobbyPacket>(JoinLobbyPacket*, std::__ndk1::function<void ()>)::{lambda(int, int)#1}::operator()(int, int) const::{lambda()#1}>, void ()>::~__func()
FUNC ce744 54 0 std::__ndk1::__function::__func<NetworkManager::send<JoinLobbyPacket>(JoinLobbyPacket*, std::__ndk1::function<void ()>)::{lambda(int, int)#1}::operator()(int, int) const::{lambda()#1}, std::__ndk1::allocator<NetworkManager::send<JoinLobbyPacket>(JoinLobbyPacket*, std::__ndk1::function<void ()>)::{lambda(int, int)#1}::operator()(int, int) const::{lambda()#1}>, void ()>::__clone() const
FUNC ce798 44 0 std::__ndk1::__function::__func<NetworkManager::send<JoinLobbyPacket>(JoinLobbyPacket*, std::__ndk1::function<void ()>)::{lambda(int, int)#1}::operator()(int, int) const::{lambda()#1}, std::__ndk1::allocator<NetworkManager::send<JoinLobbyPacket>(JoinLobbyPacket*, std::__ndk1::function<void ()>)::{lambda(int, int)#1}::operator()(int, int) const::{lambda()#1}>, void ()>::__clone(std::__ndk1::__function::__base<void ()>*) const
FUNC ce7dc 1e 0 std::__ndk1::__function::__func<NetworkManager::send<JoinLobbyPacket>(JoinLobbyPacket*, std::__ndk1::function<void ()>)::{lambda(int, int)#1}::operator()(int, int) const::{lambda()#1}, std::__ndk1::allocator<NetworkManager::send<JoinLobbyPacket>(JoinLobbyPacket*, std::__ndk1::function<void ()>)::{lambda(int, int)#1}::operator()(int, int) const::{lambda()#1}>, void ()>::destroy()
FUNC ce7fa 2a 0 std::__ndk1::__function::__func<NetworkManager::send<JoinLobbyPacket>(JoinLobbyPacket*, std::__ndk1::function<void ()>)::{lambda(int, int)#1}::operator()(int, int) const::{lambda()#1}, std::__ndk1::allocator<NetworkManager::send<JoinLobbyPacket>(JoinLobbyPacket*, std::__ndk1::function<void ()>)::{lambda(int, int)#1}::operator()(int, int) const::{lambda()#1}>, void ()>::destroy_deallocate()
FUNC ce824 12 0 std::__ndk1::__function::__func<NetworkManager::send<JoinLobbyPacket>(JoinLobbyPacket*, std::__ndk1::function<void ()>)::{lambda(int, int)#1}::operator()(int, int) const::{lambda()#1}, std::__ndk1::allocator<NetworkManager::send<JoinLobbyPacket>(JoinLobbyPacket*, std::__ndk1::function<void ()>)::{lambda(int, int)#1}::operator()(int, int) const::{lambda()#1}>, void ()>::operator()()
FUNC ce838 18 0 std::__ndk1::__function::__func<NetworkManager::send<JoinLobbyPacket>(JoinLobbyPacket*, std::__ndk1::function<void ()>)::{lambda(int, int)#1}::operator()(int, int) const::{lambda()#1}, std::__ndk1::allocator<NetworkManager::send<JoinLobbyPacket>(JoinLobbyPacket*, std::__ndk1::function<void ()>)::{lambda(int, int)#1}::operator()(int, int) const::{lambda()#1}>, void ()>::target(std::type_info const&) const
FUNC ce850 c 0 std::__ndk1::__function::__func<NetworkManager::send<JoinLobbyPacket>(JoinLobbyPacket*, std::__ndk1::function<void ()>)::{lambda(int, int)#1}::operator()(int, int) const::{lambda()#1}, std::__ndk1::allocator<NetworkManager::send<JoinLobbyPacket>(JoinLobbyPacket*, std::__ndk1::function<void ()>)::{lambda(int, int)#1}::operator()(int, int) const::{lambda()#1}>, void ()>::target_type() const
FUNC ce85c 34 0 _ZNSt6__ndk110__function6__funcIZN14NetworkManager2onI17JoinedLobbyPacketQsr3stdE12is_base_of_vI6PacketT_EEEvNS_8functionIFvPS6_EEEbEUlNS_12basic_stringIcNS_11char_traitsIcEENS_9allocatorIcEEEEE_NSE_ISH_EEFvSG_EED2Ev
FUNC ce890 38 0 _ZNSt6__ndk110__function6__funcIZN14NetworkManager2onI17JoinedLobbyPacketQsr3stdE12is_base_of_vI6PacketT_EEEvNS_8functionIFvPS6_EEEbEUlNS_12basic_stringIcNS_11char_traitsIcEENS_9allocatorIcEEEEE_NSE_ISH_EEFvSG_EED0Ev
FUNC ce8c8 54 0 _ZNKSt6__ndk110__function6__funcIZN14NetworkManager2onI17JoinedLobbyPacketQsr3stdE12is_base_of_vI6PacketT_EEEvNS_8functionIFvPS6_EEEbEUlNS_12basic_stringIcNS_11char_traitsIcEENS_9allocatorIcEEEEE_NSE_ISH_EEFvSG_EE7__cloneEv
FUNC ce91c 44 0 _ZNKSt6__ndk110__function6__funcIZN14NetworkManager2onI17JoinedLobbyPacketQsr3stdE12is_base_of_vI6PacketT_EEEvNS_8functionIFvPS6_EEEbEUlNS_12basic_stringIcNS_11char_traitsIcEENS_9allocatorIcEEEEE_NSE_ISH_EEFvSG_EE7__cloneEPNS0_6__baseISJ_EE
FUNC ce960 1e 0 _ZNSt6__ndk110__function6__funcIZN14NetworkManager2onI17JoinedLobbyPacketQsr3stdE12is_base_of_vI6PacketT_EEEvNS_8functionIFvPS6_EEEbEUlNS_12basic_stringIcNS_11char_traitsIcEENS_9allocatorIcEEEEE_NSE_ISH_EEFvSG_EE7destroyEv
FUNC ce97e 2a 0 _ZNSt6__ndk110__function6__funcIZN14NetworkManager2onI17JoinedLobbyPacketQsr3stdE12is_base_of_vI6PacketT_EEEvNS_8functionIFvPS6_EEEbEUlNS_12basic_stringIcNS_11char_traitsIcEENS_9allocatorIcEEEEE_NSE_ISH_EEFvSG_EE18destroy_deallocateEv
FUNC ce9a8 27c 0 _ZNSt6__ndk110__function6__funcIZN14NetworkManager2onI17JoinedLobbyPacketQsr3stdE12is_base_of_vI6PacketT_EEEvNS_8functionIFvPS6_EEEbEUlNS_12basic_stringIcNS_11char_traitsIcEENS_9allocatorIcEEEEE_NSE_ISH_EEFvSG_EEclEOSG_
FUNC cec24 18 0 _ZNKSt6__ndk110__function6__funcIZN14NetworkManager2onI17JoinedLobbyPacketQsr3stdE12is_base_of_vI6PacketT_EEEvNS_8functionIFvPS6_EEEbEUlNS_12basic_stringIcNS_11char_traitsIcEENS_9allocatorIcEEEEE_NSE_ISH_EEFvSG_EE6targetERKSt9type_info
FUNC cec3c c 0 _ZNKSt6__ndk110__function6__funcIZN14NetworkManager2onI17JoinedLobbyPacketQsr3stdE12is_base_of_vI6PacketT_EEEvNS_8functionIFvPS6_EEEbEUlNS_12basic_stringIcNS_11char_traitsIcEENS_9allocatorIcEEEEE_NSE_ISH_EEFvSG_EE11target_typeEv
FUNC cec48 2 0 JoinedLobbyPacket::decode(std::__ndk1::basic_string<char, std::__ndk1::char_traits<char>, std::__ndk1::allocator<char> >)
FUNC cec4a 6 0 JoinedLobbyPacket::getPacketID() const
FUNC cec50 c 0 JoinedLobbyPacket::getPacketName() const
FUNC cec5c 34 0 _ZNSt6__ndk110__function6__funcIZZN14NetworkManager2onI17JoinedLobbyPacketQsr3stdE12is_base_of_vI6PacketT_EEEvNS_8functionIFvPS6_EEEbENKUlNS_12basic_stringIcNS_11char_traitsIcEENS_9allocatorIcEEEEE_clESG_EUlvE_NSE_ISI_EEFvvEED2Ev
FUNC cec90 38 0 _ZNSt6__ndk110__function6__funcIZZN14NetworkManager2onI17JoinedLobbyPacketQsr3stdE12is_base_of_vI6PacketT_EEEvNS_8functionIFvPS6_EEEbENKUlNS_12basic_stringIcNS_11char_traitsIcEENS_9allocatorIcEEEEE_clESG_EUlvE_NSE_ISI_EEFvvEED0Ev
FUNC cecc8 54 0 _ZNKSt6__ndk110__function6__funcIZZN14NetworkManager2onI17JoinedLobbyPacketQsr3stdE12is_base_of_vI6PacketT_EEEvNS_8functionIFvPS6_EEEbENKUlNS_12basic_stringIcNS_11char_traitsIcEENS_9allocatorIcEEEEE_clESG_EUlvE_NSE_ISI_EEFvvEE7__cloneEv
FUNC ced1c 44 0 _ZNKSt6__ndk110__function6__funcIZZN14NetworkManager2onI17JoinedLobbyPacketQsr3stdE12is_base_of_vI6PacketT_EEEvNS_8functionIFvPS6_EEEbENKUlNS_12basic_stringIcNS_11char_traitsIcEENS_9allocatorIcEEEEE_clESG_EUlvE_NSE_ISI_EEFvvEE7__cloneEPNS0_6__baseISK_EE
FUNC ced60 1e 0 _ZNSt6__ndk110__function6__funcIZZN14NetworkManager2onI17JoinedLobbyPacketQsr3stdE12is_base_of_vI6PacketT_EEEvNS_8functionIFvPS6_EEEbENKUlNS_12basic_stringIcNS_11char_traitsIcEENS_9allocatorIcEEEEE_clESG_EUlvE_NSE_ISI_EEFvvEE7destroyEv
FUNC ced7e 2a 0 _ZNSt6__ndk110__function6__funcIZZN14NetworkManager2onI17JoinedLobbyPacketQsr3stdE12is_base_of_vI6PacketT_EEEvNS_8functionIFvPS6_EEEbENKUlNS_12basic_stringIcNS_11char_traitsIcEENS_9allocatorIcEEEEE_clESG_EUlvE_NSE_ISI_EEFvvEE18destroy_deallocateEv
FUNC ceda8 44 0 _ZNSt6__ndk110__function6__funcIZZN14NetworkManager2onI17JoinedLobbyPacketQsr3stdE12is_base_of_vI6PacketT_EEEvNS_8functionIFvPS6_EEEbENKUlNS_12basic_stringIcNS_11char_traitsIcEENS_9allocatorIcEEEEE_clESG_EUlvE_NSE_ISI_EEFvvEEclEv
FUNC cedec 18 0 _ZNKSt6__ndk110__function6__funcIZZN14NetworkManager2onI17JoinedLobbyPacketQsr3stdE12is_base_of_vI6PacketT_EEEvNS_8functionIFvPS6_EEEbENKUlNS_12basic_stringIcNS_11char_traitsIcEENS_9allocatorIcEEEEE_clESG_EUlvE_NSE_ISI_EEFvvEE6targetERKSt9type_info
FUNC cee04 c 0 _ZNKSt6__ndk110__function6__funcIZZN14NetworkManager2onI17JoinedLobbyPacketQsr3stdE12is_base_of_vI6PacketT_EEEvNS_8functionIFvPS6_EEEbENKUlNS_12basic_stringIcNS_11char_traitsIcEENS_9allocatorIcEEEEE_clESG_EUlvE_NSE_ISI_EEFvvEE11target_typeEv
FUNC cee10 40 0 std::__ndk1::__function::__func<SwapManager::joinLobby(std::__ndk1::basic_string<char, std::__ndk1::char_traits<char>, std::__ndk1::allocator<char> >, std::__ndk1::function<void ()>)::$_0, std::__ndk1::allocator<SwapManager::joinLobby(std::__ndk1::basic_string<char, std::__ndk1::char_traits<char>, std::__ndk1::allocator<char> >, std::__ndk1::function<void ()>)::$_0>, void (JoinedLobbyPacket*)>::~__func()
FUNC cee50 48 0 std::__ndk1::__function::__func<SwapManager::joinLobby(std::__ndk1::basic_string<char, std::__ndk1::char_traits<char>, std::__ndk1::allocator<char> >, std::__ndk1::function<void ()>)::$_0, std::__ndk1::allocator<SwapManager::joinLobby(std::__ndk1::basic_string<char, std::__ndk1::char_traits<char>, std::__ndk1::allocator<char> >, std::__ndk1::function<void ()>)::$_0>, void (JoinedLobbyPacket*)>::~__func()
FUNC cee98 a0 0 std::__ndk1::__function::__func<SwapManager::joinLobby(std::__ndk1::basic_string<char, std::__ndk1::char_traits<char>, std::__ndk1::allocator<char> >, std::__ndk1::function<void ()>)::$_0, std::__ndk1::allocator<SwapManager::joinLobby(std::__ndk1::basic_string<char, std::__ndk1::char_traits<char>, std::__ndk1::allocator<char> >, std::__ndk1::function<void ()>)::$_0>, void (JoinedLobbyPacket*)>::__clone() const
FUNC cef38 94 0 std::__ndk1::__function::__func<SwapManager::joinLobby(std::__ndk1::basic_string<char, std::__ndk1::char_traits<char>, std::__ndk1::allocator<char> >, std::__ndk1::function<void ()>)::$_0, std::__ndk1::allocator<SwapManager::joinLobby(std::__ndk1::basic_string<char, std::__ndk1::char_traits<char>, std::__ndk1::allocator<char> >, std::__ndk1::function<void ()>)::$_0>, void (JoinedLobbyPacket*)>::__clone(std::__ndk1::__function::__base<void (JoinedLobbyPacket*)>*) const
FUNC cefcc 36 0 std::__ndk1::__function::__func<SwapManager::joinLobby(std::__ndk1::basic_string<char, std::__ndk1::char_traits<char>, std::__ndk1::allocator<char> >, std::__ndk1::function<void ()>)::$_0, std::__ndk1::allocator<SwapManager::joinLobby(std::__ndk1::basic_string<char, std::__ndk1::char_traits<char>, std::__ndk1::allocator<char> >, std::__ndk1::function<void ()>)::$_0>, void (JoinedLobbyPacket*)>::destroy()
FUNC cf002 3a 0 std::__ndk1::__function::__func<SwapManager::joinLobby(std::__ndk1::basic_string<char, std::__ndk1::char_traits<char>, std::__ndk1::allocator<char> >, std::__ndk1::function<void ()>)::$_0, std::__ndk1::allocator<SwapManager::joinLobby(std::__ndk1::basic_string<char, std::__ndk1::char_traits<char>, std::__ndk1::allocator<char> >, std::__ndk1::function<void ()>)::$_0>, void (JoinedLobbyPacket*)>::destroy_deallocate()
FUNC cf03c 62 0 std::__ndk1::__function::__func<SwapManager::joinLobby(std::__ndk1::basic_string<char, std::__ndk1::char_traits<char>, std::__ndk1::allocator<char> >, std::__ndk1::function<void ()>)::$_0, std::__ndk1::allocator<SwapManager::joinLobby(std::__ndk1::basic_string<char, std::__ndk1::char_traits<char>, std::__ndk1::allocator<char> >, std::__ndk1::function<void ()>)::$_0>, void (JoinedLobbyPacket*)>::operator()(JoinedLobbyPacket*&&)
FUNC cf0a0 18 0 std::__ndk1::__function::__func<SwapManager::joinLobby(std::__ndk1::basic_string<char, std::__ndk1::char_traits<char>, std::__ndk1::allocator<char> >, std::__ndk1::function<void ()>)::$_0, std::__ndk1::allocator<SwapManager::joinLobby(std::__ndk1::basic_string<char, std::__ndk1::char_traits<char>, std::__ndk1::allocator<char> >, std::__ndk1::function<void ()>)::$_0>, void (JoinedLobbyPacket*)>::target(std::type_info const&) const
FUNC cf0b8 c 0 std::__ndk1::__function::__func<SwapManager::joinLobby(std::__ndk1::basic_string<char, std::__ndk1::char_traits<char>, std::__ndk1::allocator<char> >, std::__ndk1::function<void ()>)::$_0, std::__ndk1::allocator<SwapManager::joinLobby(std::__ndk1::basic_string<char, std::__ndk1::char_traits<char>, std::__ndk1::allocator<char> >, std::__ndk1::function<void ()>)::$_0>, void (JoinedLobbyPacket*)>::target_type() const
FUNC cf0c4 2 0 GetLobbyInfoPacket::decode(std::__ndk1::basic_string<char, std::__ndk1::char_traits<char>, std::__ndk1::allocator<char> >)
FUNC cf0c6 6 0 GetLobbyInfoPacket::getPacketID() const
FUNC cf0cc c 0 GetLobbyInfoPacket::getPacketName() const
FUNC cf0d8 34 0 std::__ndk1::__function::__func<NetworkManager::send<GetLobbyInfoPacket>(GetLobbyInfoPacket*, std::__ndk1::function<void ()>)::{lambda(int, int)#1}, std::__ndk1::allocator<NetworkManager::send<GetLobbyInfoPacket>(GetLobbyInfoPacket*, std::__ndk1::function<void ()>)::{lambda(int, int)#1}>, bool (int, int)>::~__func()
FUNC cf10c 38 0 std::__ndk1::__function::__func<NetworkManager::send<GetLobbyInfoPacket>(GetLobbyInfoPacket*, std::__ndk1::function<void ()>)::{lambda(int, int)#1}, std::__ndk1::allocator<NetworkManager::send<GetLobbyInfoPacket>(GetLobbyInfoPacket*, std::__ndk1::function<void ()>)::{lambda(int, int)#1}>, bool (int, int)>::~__func()
FUNC cf144 54 0 std::__ndk1::__function::__func<NetworkManager::send<GetLobbyInfoPacket>(GetLobbyInfoPacket*, std::__ndk1::function<void ()>)::{lambda(int, int)#1}, std::__ndk1::allocator<NetworkManager::send<GetLobbyInfoPacket>(GetLobbyInfoPacket*, std::__ndk1::function<void ()>)::{lambda(int, int)#1}>, bool (int, int)>::__clone() const
FUNC cf198 44 0 std::__ndk1::__function::__func<NetworkManager::send<GetLobbyInfoPacket>(GetLobbyInfoPacket*, std::__ndk1::function<void ()>)::{lambda(int, int)#1}, std::__ndk1::allocator<NetworkManager::send<GetLobbyInfoPacket>(GetLobbyInfoPacket*, std::__ndk1::function<void ()>)::{lambda(int, int)#1}>, bool (int, int)>::__clone(std::__ndk1::__function::__base<bool (int, int)>*) const
FUNC cf1dc 1e 0 std::__ndk1::__function::__func<NetworkManager::send<GetLobbyInfoPacket>(GetLobbyInfoPacket*, std::__ndk1::function<void ()>)::{lambda(int, int)#1}, std::__ndk1::allocator<NetworkManager::send<GetLobbyInfoPacket>(GetLobbyInfoPacket*, std::__ndk1::function<void ()>)::{lambda(int, int)#1}>, bool (int, int)>::destroy()
FUNC cf1fa 2a 0 std::__ndk1::__function::__func<NetworkManager::send<GetLobbyInfoPacket>(GetLobbyInfoPacket*, std::__ndk1::function<void ()>)::{lambda(int, int)#1}, std::__ndk1::allocator<NetworkManager::send<GetLobbyInfoPacket>(GetLobbyInfoPacket*, std::__ndk1::function<void ()>)::{lambda(int, int)#1}>, bool (int, int)>::destroy_deallocate()
FUNC cf224 140 0 std::__ndk1::__function::__func<NetworkManager::send<GetLobbyInfoPacket>(GetLobbyInfoPacket*, std::__ndk1::function<void ()>)::{lambda(int, int)#1}, std::__ndk1::allocator<NetworkManager::send<GetLobbyInfoPacket>(GetLobbyInfoPacket*, std::__ndk1::function<void ()>)::{lambda(int, int)#1}>, bool (int, int)>::operator()(int&&, int&&)
FUNC cf364 18 0 std::__ndk1::__function::__func<NetworkManager::send<GetLobbyInfoPacket>(GetLobbyInfoPacket*, std::__ndk1::function<void ()>)::{lambda(int, int)#1}, std::__ndk1::allocator<NetworkManager::send<GetLobbyInfoPacket>(GetLobbyInfoPacket*, std::__ndk1::function<void ()>)::{lambda(int, int)#1}>, bool (int, int)>::target(std::type_info const&) const
FUNC cf37c c 0 std::__ndk1::__function::__func<NetworkManager::send<GetLobbyInfoPacket>(GetLobbyInfoPacket*, std::__ndk1::function<void ()>)::{lambda(int, int)#1}, std::__ndk1::allocator<NetworkManager::send<GetLobbyInfoPacket>(GetLobbyInfoPacket*, std::__ndk1::function<void ()>)::{lambda(int, int)#1}>, bool (int, int)>::target_type() const
FUNC cf388 34 0 std::__ndk1::__function::__func<NetworkManager::send<GetLobbyInfoPacket>(GetLobbyInfoPacket*, std::__ndk1::function<void ()>)::{lambda(int, int)#1}::operator()(int, int) const::{lambda()#1}, std::__ndk1::allocator<NetworkManager::send<GetLobbyInfoPacket>(GetLobbyInfoPacket*, std::__ndk1::function<void ()>)::{lambda(int, int)#1}::operator()(int, int) const::{lambda()#1}>, void ()>::~__func()
FUNC cf3bc 38 0 std::__ndk1::__function::__func<NetworkManager::send<GetLobbyInfoPacket>(GetLobbyInfoPacket*, std::__ndk1::function<void ()>)::{lambda(int, int)#1}::operator()(int, int) const::{lambda()#1}, std::__ndk1::allocator<NetworkManager::send<GetLobbyInfoPacket>(GetLobbyInfoPacket*, std::__ndk1::function<void ()>)::{lambda(int, int)#1}::operator()(int, int) const::{lambda()#1}>, void ()>::~__func()
FUNC cf3f4 54 0 std::__ndk1::__function::__func<NetworkManager::send<GetLobbyInfoPacket>(GetLobbyInfoPacket*, std::__ndk1::function<void ()>)::{lambda(int, int)#1}::operator()(int, int) const::{lambda()#1}, std::__ndk1::allocator<NetworkManager::send<GetLobbyInfoPacket>(GetLobbyInfoPacket*, std::__ndk1::function<void ()>)::{lambda(int, int)#1}::operator()(int, int) const::{lambda()#1}>, void ()>::__clone() const
FUNC cf448 44 0 std::__ndk1::__function::__func<NetworkManager::send<GetLobbyInfoPacket>(GetLobbyInfoPacket*, std::__ndk1::function<void ()>)::{lambda(int, int)#1}::operator()(int, int) const::{lambda()#1}, std::__ndk1::allocator<NetworkManager::send<GetLobbyInfoPacket>(GetLobbyInfoPacket*, std::__ndk1::function<void ()>)::{lambda(int, int)#1}::operator()(int, int) const::{lambda()#1}>, void ()>::__clone(std::__ndk1::__function::__base<void ()>*) const
FUNC cf48c 1e 0 std::__ndk1::__function::__func<NetworkManager::send<GetLobbyInfoPacket>(GetLobbyInfoPacket*, std::__ndk1::function<void ()>)::{lambda(int, int)#1}::operator()(int, int) const::{lambda()#1}, std::__ndk1::allocator<NetworkManager::send<GetLobbyInfoPacket>(GetLobbyInfoPacket*, std::__ndk1::function<void ()>)::{lambda(int, int)#1}::operator()(int, int) const::{lambda()#1}>, void ()>::destroy()
FUNC cf4aa 2a 0 std::__ndk1::__function::__func<NetworkManager::send<GetLobbyInfoPacket>(GetLobbyInfoPacket*, std::__ndk1::function<void ()>)::{lambda(int, int)#1}::operator()(int, int) const::{lambda()#1}, std::__ndk1::allocator<NetworkManager::send<GetLobbyInfoPacket>(GetLobbyInfoPacket*, std::__ndk1::function<void ()>)::{lambda(int, int)#1}::operator()(int, int) const::{lambda()#1}>, void ()>::destroy_deallocate()
FUNC cf4d4 12 0 std::__ndk1::__function::__func<NetworkManager::send<GetLobbyInfoPacket>(GetLobbyInfoPacket*, std::__ndk1::function<void ()>)::{lambda(int, int)#1}::operator()(int, int) const::{lambda()#1}, std::__ndk1::allocator<NetworkManager::send<GetLobbyInfoPacket>(GetLobbyInfoPacket*, std::__ndk1::function<void ()>)::{lambda(int, int)#1}::operator()(int, int) const::{lambda()#1}>, void ()>::operator()()
FUNC cf4e8 18 0 std::__ndk1::__function::__func<NetworkManager::send<GetLobbyInfoPacket>(GetLobbyInfoPacket*, std::__ndk1::function<void ()>)::{lambda(int, int)#1}::operator()(int, int) const::{lambda()#1}, std::__ndk1::allocator<NetworkManager::send<GetLobbyInfoPacket>(GetLobbyInfoPacket*, std::__ndk1::function<void ()>)::{lambda(int, int)#1}::operator()(int, int) const::{lambda()#1}>, void ()>::target(std::type_info const&) const
FUNC cf500 c 0 std::__ndk1::__function::__func<NetworkManager::send<GetLobbyInfoPacket>(GetLobbyInfoPacket*, std::__ndk1::function<void ()>)::{lambda(int, int)#1}::operator()(int, int) const::{lambda()#1}, std::__ndk1::allocator<NetworkManager::send<GetLobbyInfoPacket>(GetLobbyInfoPacket*, std::__ndk1::function<void ()>)::{lambda(int, int)#1}::operator()(int, int) const::{lambda()#1}>, void ()>::target_type() const
FUNC cf50c 34 0 _ZNSt6__ndk110__function6__funcIZN14NetworkManager2onI22ReceiveLobbyInfoPacketQsr3stdE12is_base_of_vI6PacketT_EEEvNS_8functionIFvPS6_EEEbEUlNS_12basic_stringIcNS_11char_traitsIcEENS_9allocatorIcEEEEE_NSE_ISH_EEFvSG_EED2Ev
FUNC cf540 38 0 _ZNSt6__ndk110__function6__funcIZN14NetworkManager2onI22ReceiveLobbyInfoPacketQsr3stdE12is_base_of_vI6PacketT_EEEvNS_8functionIFvPS6_EEEbEUlNS_12basic_stringIcNS_11char_traitsIcEENS_9allocatorIcEEEEE_NSE_ISH_EEFvSG_EED0Ev
FUNC cf578 54 0 _ZNKSt6__ndk110__function6__funcIZN14NetworkManager2onI22ReceiveLobbyInfoPacketQsr3stdE12is_base_of_vI6PacketT_EEEvNS_8functionIFvPS6_EEEbEUlNS_12basic_stringIcNS_11char_traitsIcEENS_9allocatorIcEEEEE_NSE_ISH_EEFvSG_EE7__cloneEv
FUNC cf5cc 44 0 _ZNKSt6__ndk110__function6__funcIZN14NetworkManager2onI22ReceiveLobbyInfoPacketQsr3stdE12is_base_of_vI6PacketT_EEEvNS_8functionIFvPS6_EEEbEUlNS_12basic_stringIcNS_11char_traitsIcEENS_9allocatorIcEEEEE_NSE_ISH_EEFvSG_EE7__cloneEPNS0_6__baseISJ_EE
FUNC cf610 1e 0 _ZNSt6__ndk110__function6__funcIZN14NetworkManager2onI22ReceiveLobbyInfoPacketQsr3stdE12is_base_of_vI6PacketT_EEEvNS_8functionIFvPS6_EEEbEUlNS_12basic_stringIcNS_11char_traitsIcEENS_9allocatorIcEEEEE_NSE_ISH_EEFvSG_EE7destroyEv
FUNC cf62e 2a 0 _ZNSt6__ndk110__function6__funcIZN14NetworkManager2onI22ReceiveLobbyInfoPacketQsr3stdE12is_base_of_vI6PacketT_EEEvNS_8functionIFvPS6_EEEbEUlNS_12basic_stringIcNS_11char_traitsIcEENS_9allocatorIcEEEEE_NSE_ISH_EEFvSG_EE18destroy_deallocateEv
FUNC cf658 2bc 0 _ZNSt6__ndk110__function6__funcIZN14NetworkManager2onI22ReceiveLobbyInfoPacketQsr3stdE12is_base_of_vI6PacketT_EEEvNS_8functionIFvPS6_EEEbEUlNS_12basic_stringIcNS_11char_traitsIcEENS_9allocatorIcEEEEE_NSE_ISH_EEFvSG_EEclEOSG_
FUNC cf914 18 0 _ZNKSt6__ndk110__function6__funcIZN14NetworkManager2onI22ReceiveLobbyInfoPacketQsr3stdE12is_base_of_vI6PacketT_EEEvNS_8functionIFvPS6_EEEbEUlNS_12basic_stringIcNS_11char_traitsIcEENS_9allocatorIcEEEEE_NSE_ISH_EEFvSG_EE6targetERKSt9type_info
FUNC cf92c c 0 _ZNKSt6__ndk110__function6__funcIZN14NetworkManager2onI22ReceiveLobbyInfoPacketQsr3stdE12is_base_of_vI6PacketT_EEEvNS_8functionIFvPS6_EEEbEUlNS_12basic_stringIcNS_11char_traitsIcEENS_9allocatorIcEEEEE_NSE_ISH_EEFvSG_EE11target_typeEv
FUNC cf938 2 0 ReceiveLobbyInfoPacket::decode(std::__ndk1::basic_string<char, std::__ndk1::char_traits<char>, std::__ndk1::allocator<char> >)
FUNC cf93a 6 0 ReceiveLobbyInfoPacket::getPacketID() const
FUNC cf940 c 0 ReceiveLobbyInfoPacket::getPacketName() const
FUNC cf94c 34 0 _ZNSt6__ndk110__function6__funcIZZN14NetworkManager2onI22ReceiveLobbyInfoPacketQsr3stdE12is_base_of_vI6PacketT_EEEvNS_8functionIFvPS6_EEEbENKUlNS_12basic_stringIcNS_11char_traitsIcEENS_9allocatorIcEEEEE_clESG_EUlvE_NSE_ISI_EEFvvEED2Ev
FUNC cf980 38 0 _ZNSt6__ndk110__function6__funcIZZN14NetworkManager2onI22ReceiveLobbyInfoPacketQsr3stdE12is_base_of_vI6PacketT_EEEvNS_8functionIFvPS6_EEEbENKUlNS_12basic_stringIcNS_11char_traitsIcEENS_9allocatorIcEEEEE_clESG_EUlvE_NSE_ISI_EEFvvEED0Ev
FUNC cf9b8 54 0 _ZNKSt6__ndk110__function6__funcIZZN14NetworkManager2onI22ReceiveLobbyInfoPacketQsr3stdE12is_base_of_vI6PacketT_EEEvNS_8functionIFvPS6_EEEbENKUlNS_12basic_stringIcNS_11char_traitsIcEENS_9allocatorIcEEEEE_clESG_EUlvE_NSE_ISI_EEFvvEE7__cloneEv
FUNC cfa0c 44 0 _ZNKSt6__ndk110__function6__funcIZZN14NetworkManager2onI22ReceiveLobbyInfoPacketQsr3stdE12is_base_of_vI6PacketT_EEEvNS_8functionIFvPS6_EEEbENKUlNS_12basic_stringIcNS_11char_traitsIcEENS_9allocatorIcEEEEE_clESG_EUlvE_NSE_ISI_EEFvvEE7__cloneEPNS0_6__baseISK_EE
FUNC cfa50 1e 0 _ZNSt6__ndk110__function6__funcIZZN14NetworkManager2onI22ReceiveLobbyInfoPacketQsr3stdE12is_base_of_vI6PacketT_EEEvNS_8functionIFvPS6_EEEbENKUlNS_12basic_stringIcNS_11char_traitsIcEENS_9allocatorIcEEEEE_clESG_EUlvE_NSE_ISI_EEFvvEE7destroyEv
FUNC cfa6e 2a 0 _ZNSt6__ndk110__function6__funcIZZN14NetworkManager2onI22ReceiveLobbyInfoPacketQsr3stdE12is_base_of_vI6PacketT_EEEvNS_8functionIFvPS6_EEEbENKUlNS_12basic_stringIcNS_11char_traitsIcEENS_9allocatorIcEEEEE_clESG_EUlvE_NSE_ISI_EEFvvEE18destroy_deallocateEv
FUNC cfa98 44 0 _ZNSt6__ndk110__function6__funcIZZN14NetworkManager2onI22ReceiveLobbyInfoPacketQsr3stdE12is_base_of_vI6PacketT_EEEvNS_8functionIFvPS6_EEEbENKUlNS_12basic_stringIcNS_11char_traitsIcEENS_9allocatorIcEEEEE_clESG_EUlvE_NSE_ISI_EEFvvEEclEv
FUNC cfadc 18 0 _ZNKSt6__ndk110__function6__funcIZZN14NetworkManager2onI22ReceiveLobbyInfoPacketQsr3stdE12is_base_of_vI6PacketT_EEEvNS_8functionIFvPS6_EEEbENKUlNS_12basic_stringIcNS_11char_traitsIcEENS_9allocatorIcEEEEE_clESG_EUlvE_NSE_ISI_EEFvvEE6targetERKSt9type_info
FUNC cfaf4 c 0 _ZNKSt6__ndk110__function6__funcIZZN14NetworkManager2onI22ReceiveLobbyInfoPacketQsr3stdE12is_base_of_vI6PacketT_EEEvNS_8functionIFvPS6_EEEbENKUlNS_12basic_stringIcNS_11char_traitsIcEENS_9allocatorIcEEEEE_clESG_EUlvE_NSE_ISI_EEFvvEE11target_typeEv
FUNC cfb00 34 0 std::__ndk1::__function::__func<SwapManager::getLobbyInfo(std::__ndk1::function<void (LobbyInfo)>)::$_0, std::__ndk1::allocator<SwapManager::getLobbyInfo(std::__ndk1::function<void (LobbyInfo)>)::$_0>, void (ReceiveLobbyInfoPacket*)>::~__func()
FUNC cfb34 38 0 std::__ndk1::__function::__func<SwapManager::getLobbyInfo(std::__ndk1::function<void (LobbyInfo)>)::$_0, std::__ndk1::allocator<SwapManager::getLobbyInfo(std::__ndk1::function<void (LobbyInfo)>)::$_0>, void (ReceiveLobbyInfoPacket*)>::~__func()
FUNC cfb6c 58 0 std::__ndk1::__function::__func<SwapManager::getLobbyInfo(std::__ndk1::function<void (LobbyInfo)>)::$_0, std::__ndk1::allocator<SwapManager::getLobbyInfo(std::__ndk1::function<void (LobbyInfo)>)::$_0>, void (ReceiveLobbyInfoPacket*)>::__clone() const
FUNC cfbc4 48 0 std::__ndk1::__function::__func<SwapManager::getLobbyInfo(std::__ndk1::function<void (LobbyInfo)>)::$_0, std::__ndk1::allocator<SwapManager::getLobbyInfo(std::__ndk1::function<void (LobbyInfo)>)::$_0>, void (ReceiveLobbyInfoPacket*)>::__clone(std::__ndk1::__function::__base<void (ReceiveLobbyInfoPacket*)>*) const
FUNC cfc0c 1e 0 std::__ndk1::__function::__func<SwapManager::getLobbyInfo(std::__ndk1::function<void (LobbyInfo)>)::$_0, std::__ndk1::allocator<SwapManager::getLobbyInfo(std::__ndk1::function<void (LobbyInfo)>)::$_0>, void (ReceiveLobbyInfoPacket*)>::destroy()
FUNC cfc2a 2a 0 std::__ndk1::__function::__func<SwapManager::getLobbyInfo(std::__ndk1::function<void (LobbyInfo)>)::$_0, std::__ndk1::allocator<SwapManager::getLobbyInfo(std::__ndk1::function<void (LobbyInfo)>)::$_0>, void (ReceiveLobbyInfoPacket*)>::destroy_deallocate()
FUNC cfc54 ac 0 std::__ndk1::__function::__func<SwapManager::getLobbyInfo(std::__ndk1::function<void (LobbyInfo)>)::$_0, std::__ndk1::allocator<SwapManager::getLobbyInfo(std::__ndk1::function<void (LobbyInfo)>)::$_0>, void (ReceiveLobbyInfoPacket*)>::operator()(ReceiveLobbyInfoPacket*&&)
FUNC cfd00 18 0 std::__ndk1::__function::__func<SwapManager::getLobbyInfo(std::__ndk1::function<void (LobbyInfo)>)::$_0, std::__ndk1::allocator<SwapManager::getLobbyInfo(std::__ndk1::function<void (LobbyInfo)>)::$_0>, void (ReceiveLobbyInfoPacket*)>::target(std::type_info const&) const
FUNC cfd18 c 0 std::__ndk1::__function::__func<SwapManager::getLobbyInfo(std::__ndk1::function<void (LobbyInfo)>)::$_0, std::__ndk1::allocator<SwapManager::getLobbyInfo(std::__ndk1::function<void (LobbyInfo)>)::$_0>, void (ReceiveLobbyInfoPacket*)>::target_type() const
FUNC cfd24 2 0 UpdateLobbyPacket::decode(std::__ndk1::basic_string<char, std::__ndk1::char_traits<char>, std::__ndk1::allocator<char> >)
FUNC cfd26 6 0 UpdateLobbyPacket::getPacketID() const
FUNC cfd2c c 0 UpdateLobbyPacket::getPacketName() const
FUNC cfd38 34 0 std::__ndk1::__function::__func<NetworkManager::send<UpdateLobbyPacket>(UpdateLobbyPacket*, std::__ndk1::function<void ()>)::{lambda(int, int)#1}, std::__ndk1::allocator<NetworkManager::send<UpdateLobbyPacket>(UpdateLobbyPacket*, std::__ndk1::function<void ()>)::{lambda(int, int)#1}>, bool (int, int)>::~__func()
FUNC cfd6c 38 0 std::__ndk1::__function::__func<NetworkManager::send<UpdateLobbyPacket>(UpdateLobbyPacket*, std::__ndk1::function<void ()>)::{lambda(int, int)#1}, std::__ndk1::allocator<NetworkManager::send<UpdateLobbyPacket>(UpdateLobbyPacket*, std::__ndk1::function<void ()>)::{lambda(int, int)#1}>, bool (int, int)>::~__func()
FUNC cfda4 54 0 std::__ndk1::__function::__func<NetworkManager::send<UpdateLobbyPacket>(UpdateLobbyPacket*, std::__ndk1::function<void ()>)::{lambda(int, int)#1}, std::__ndk1::allocator<NetworkManager::send<UpdateLobbyPacket>(UpdateLobbyPacket*, std::__ndk1::function<void ()>)::{lambda(int, int)#1}>, bool (int, int)>::__clone() const
FUNC cfdf8 44 0 std::__ndk1::__function::__func<NetworkManager::send<UpdateLobbyPacket>(UpdateLobbyPacket*, std::__ndk1::function<void ()>)::{lambda(int, int)#1}, std::__ndk1::allocator<NetworkManager::send<UpdateLobbyPacket>(UpdateLobbyPacket*, std::__ndk1::function<void ()>)::{lambda(int, int)#1}>, bool (int, int)>::__clone(std::__ndk1::__function::__base<bool (int, int)>*) const
FUNC cfe3c 1e 0 std::__ndk1::__function::__func<NetworkManager::send<UpdateLobbyPacket>(UpdateLobbyPacket*, std::__ndk1::function<void ()>)::{lambda(int, int)#1}, std::__ndk1::allocator<NetworkManager::send<UpdateLobbyPacket>(UpdateLobbyPacket*, std::__ndk1::function<void ()>)::{lambda(int, int)#1}>, bool (int, int)>::destroy()
FUNC cfe5a 2a 0 std::__ndk1::__function::__func<NetworkManager::send<UpdateLobbyPacket>(UpdateLobbyPacket*, std::__ndk1::function<void ()>)::{lambda(int, int)#1}, std::__ndk1::allocator<NetworkManager::send<UpdateLobbyPacket>(UpdateLobbyPacket*, std::__ndk1::function<void ()>)::{lambda(int, int)#1}>, bool (int, int)>::destroy_deallocate()
FUNC cfe84 140 0 std::__ndk1::__function::__func<NetworkManager::send<UpdateLobbyPacket>(UpdateLobbyPacket*, std::__ndk1::function<void ()>)::{lambda(int, int)#1}, std::__ndk1::allocator<NetworkManager::send<UpdateLobbyPacket>(UpdateLobbyPacket*, std::__ndk1::function<void ()>)::{lambda(int, int)#1}>, bool (int, int)>::operator()(int&&, int&&)
FUNC cffc4 18 0 std::__ndk1::__function::__func<NetworkManager::send<UpdateLobbyPacket>(UpdateLobbyPacket*, std::__ndk1::function<void ()>)::{lambda(int, int)#1}, std::__ndk1::allocator<NetworkManager::send<UpdateLobbyPacket>(UpdateLobbyPacket*, std::__ndk1::function<void ()>)::{lambda(int, int)#1}>, bool (int, int)>::target(std::type_info const&) const
FUNC cffdc c 0 std::__ndk1::__function::__func<NetworkManager::send<UpdateLobbyPacket>(UpdateLobbyPacket*, std::__ndk1::function<void ()>)::{lambda(int, int)#1}, std::__ndk1::allocator<NetworkManager::send<UpdateLobbyPacket>(UpdateLobbyPacket*, std::__ndk1::function<void ()>)::{lambda(int, int)#1}>, bool (int, int)>::target_type() const
FUNC cffe8 34 0 std::__ndk1::__function::__func<NetworkManager::send<UpdateLobbyPacket>(UpdateLobbyPacket*, std::__ndk1::function<void ()>)::{lambda(int, int)#1}::operator()(int, int) const::{lambda()#1}, std::__ndk1::allocator<NetworkManager::send<UpdateLobbyPacket>(UpdateLobbyPacket*, std::__ndk1::function<void ()>)::{lambda(int, int)#1}::operator()(int, int) const::{lambda()#1}>, void ()>::~__func()
FUNC d001c 38 0 std::__ndk1::__function::__func<NetworkManager::send<UpdateLobbyPacket>(UpdateLobbyPacket*, std::__ndk1::function<void ()>)::{lambda(int, int)#1}::operator()(int, int) const::{lambda()#1}, std::__ndk1::allocator<NetworkManager::send<UpdateLobbyPacket>(UpdateLobbyPacket*, std::__ndk1::function<void ()>)::{lambda(int, int)#1}::operator()(int, int) const::{lambda()#1}>, void ()>::~__func()
FUNC d0054 54 0 std::__ndk1::__function::__func<NetworkManager::send<UpdateLobbyPacket>(UpdateLobbyPacket*, std::__ndk1::function<void ()>)::{lambda(int, int)#1}::operator()(int, int) const::{lambda()#1}, std::__ndk1::allocator<NetworkManager::send<UpdateLobbyPacket>(UpdateLobbyPacket*, std::__ndk1::function<void ()>)::{lambda(int, int)#1}::operator()(int, int) const::{lambda()#1}>, void ()>::__clone() const
FUNC d00a8 44 0 std::__ndk1::__function::__func<NetworkManager::send<UpdateLobbyPacket>(UpdateLobbyPacket*, std::__ndk1::function<void ()>)::{lambda(int, int)#1}::operator()(int, int) const::{lambda()#1}, std::__ndk1::allocator<NetworkManager::send<UpdateLobbyPacket>(UpdateLobbyPacket*, std::__ndk1::function<void ()>)::{lambda(int, int)#1}::operator()(int, int) const::{lambda()#1}>, void ()>::__clone(std::__ndk1::__function::__base<void ()>*) const
FUNC d00ec 1e 0 std::__ndk1::__function::__func<NetworkManager::send<UpdateLobbyPacket>(UpdateLobbyPacket*, std::__ndk1::function<void ()>)::{lambda(int, int)#1}::operator()(int, int) const::{lambda()#1}, std::__ndk1::allocator<NetworkManager::send<UpdateLobbyPacket>(UpdateLobbyPacket*, std::__ndk1::function<void ()>)::{lambda(int, int)#1}::operator()(int, int) const::{lambda()#1}>, void ()>::destroy()
FUNC d010a 2a 0 std::__ndk1::__function::__func<NetworkManager::send<UpdateLobbyPacket>(UpdateLobbyPacket*, std::__ndk1::function<void ()>)::{lambda(int, int)#1}::operator()(int, int) const::{lambda()#1}, std::__ndk1::allocator<NetworkManager::send<UpdateLobbyPacket>(UpdateLobbyPacket*, std::__ndk1::function<void ()>)::{lambda(int, int)#1}::operator()(int, int) const::{lambda()#1}>, void ()>::destroy_deallocate()
FUNC d0134 12 0 std::__ndk1::__function::__func<NetworkManager::send<UpdateLobbyPacket>(UpdateLobbyPacket*, std::__ndk1::function<void ()>)::{lambda(int, int)#1}::operator()(int, int) const::{lambda()#1}, std::__ndk1::allocator<NetworkManager::send<UpdateLobbyPacket>(UpdateLobbyPacket*, std::__ndk1::function<void ()>)::{lambda(int, int)#1}::operator()(int, int) const::{lambda()#1}>, void ()>::operator()()
FUNC d0148 18 0 std::__ndk1::__function::__func<NetworkManager::send<UpdateLobbyPacket>(UpdateLobbyPacket*, std::__ndk1::function<void ()>)::{lambda(int, int)#1}::operator()(int, int) const::{lambda()#1}, std::__ndk1::allocator<NetworkManager::send<UpdateLobbyPacket>(UpdateLobbyPacket*, std::__ndk1::function<void ()>)::{lambda(int, int)#1}::operator()(int, int) const::{lambda()#1}>, void ()>::target(std::type_info const&) const
FUNC d0160 c 0 std::__ndk1::__function::__func<NetworkManager::send<UpdateLobbyPacket>(UpdateLobbyPacket*, std::__ndk1::function<void ()>)::{lambda(int, int)#1}::operator()(int, int) const::{lambda()#1}, std::__ndk1::allocator<NetworkManager::send<UpdateLobbyPacket>(UpdateLobbyPacket*, std::__ndk1::function<void ()>)::{lambda(int, int)#1}::operator()(int, int) const::{lambda()#1}>, void ()>::target_type() const
FUNC d016c 4 0 std::__ndk1::__function::__func<SwapManager::startSwap(SwapStartedPacket*)::$_0, std::__ndk1::allocator<SwapManager::startSwap(SwapStartedPacket*)::$_0>, void (LobbyInfo)>::~__func()
FUNC d0170 20 0 std::__ndk1::__function::__func<SwapManager::startSwap(SwapStartedPacket*)::$_0, std::__ndk1::allocator<SwapManager::startSwap(SwapStartedPacket*)::$_0>, void (LobbyInfo)>::__clone() const
FUNC d0190 14 0 std::__ndk1::__function::__func<SwapManager::startSwap(SwapStartedPacket*)::$_0, std::__ndk1::allocator<SwapManager::startSwap(SwapStartedPacket*)::$_0>, void (LobbyInfo)>::__clone(std::__ndk1::__function::__base<void (LobbyInfo)>*) const
FUNC d01a4 2 0 std::__ndk1::__function::__func<SwapManager::startSwap(SwapStartedPacket*)::$_0, std::__ndk1::allocator<SwapManager::startSwap(SwapStartedPacket*)::$_0>, void (LobbyInfo)>::destroy()
FUNC d01a6 4 0 std::__ndk1::__function::__func<SwapManager::startSwap(SwapStartedPacket*)::$_0, std::__ndk1::allocator<SwapManager::startSwap(SwapStartedPacket*)::$_0>, void (LobbyInfo)>::destroy_deallocate()
FUNC d01aa b6 0 std::__ndk1::__function::__func<SwapManager::startSwap(SwapStartedPacket*)::$_0, std::__ndk1::allocator<SwapManager::startSwap(SwapStartedPacket*)::$_0>, void (LobbyInfo)>::operator()(LobbyInfo&&)
FUNC d0260 18 0 std::__ndk1::__function::__func<SwapManager::startSwap(SwapStartedPacket*)::$_0, std::__ndk1::allocator<SwapManager::startSwap(SwapStartedPacket*)::$_0>, void (LobbyInfo)>::target(std::type_info const&) const
FUNC d0278 c 0 std::__ndk1::__function::__func<SwapManager::startSwap(SwapStartedPacket*)::$_0, std::__ndk1::allocator<SwapManager::startSwap(SwapStartedPacket*)::$_0>, void (LobbyInfo)>::target_type() const
FUNC d0284 4 0 std::__ndk1::__function::__func<SwapManager::registerListeners()::$_0, std::__ndk1::allocator<SwapManager::registerListeners()::$_0>, void (std::__ndk1::basic_string<char, std::__ndk1::char_traits<char>, std::__ndk1::allocator<char> >)>::~__func()
FUNC d0288 18 0 std::__ndk1::__function::__func<SwapManager::registerListeners()::$_0, std::__ndk1::allocator<SwapManager::registerListeners()::$_0>, void (std::__ndk1::basic_string<char, std::__ndk1::char_traits<char>, std::__ndk1::allocator<char> >)>::__clone() const
FUNC d02a0 10 0 std::__ndk1::__function::__func<SwapManager::registerListeners()::$_0, std::__ndk1::allocator<SwapManager::registerListeners()::$_0>, void (std::__ndk1::basic_string<char, std::__ndk1::char_traits<char>, std::__ndk1::allocator<char> >)>::__clone(std::__ndk1::__function::__base<void (std::__ndk1::basic_string<char, std::__ndk1::char_traits<char>, std::__ndk1::allocator<char> >)>*) const
FUNC d02b0 2 0 std::__ndk1::__function::__func<SwapManager::registerListeners()::$_0, std::__ndk1::allocator<SwapManager::registerListeners()::$_0>, void (std::__ndk1::basic_string<char, std::__ndk1::char_traits<char>, std::__ndk1::allocator<char> >)>::destroy()
FUNC d02b2 4 0 std::__ndk1::__function::__func<SwapManager::registerListeners()::$_0, std::__ndk1::allocator<SwapManager::registerListeners()::$_0>, void (std::__ndk1::basic_string<char, std::__ndk1::char_traits<char>, std::__ndk1::allocator<char> >)>::destroy_deallocate()
FUNC d02b6 16 0 std::__ndk1::__function::__func<SwapManager::registerListeners()::$_0, std::__ndk1::allocator<SwapManager::registerListeners()::$_0>, void (std::__ndk1::basic_string<char, std::__ndk1::char_traits<char>, std::__ndk1::allocator<char> >)>::operator()(std::__ndk1::basic_string<char, std::__ndk1::char_traits<char>, std::__ndk1::allocator<char> >&&)
FUNC d02cc 18 0 std::__ndk1::__function::__func<SwapManager::registerListeners()::$_0, std::__ndk1::allocator<SwapManager::registerListeners()::$_0>, void (std::__ndk1::basic_string<char, std::__ndk1::char_traits<char>, std::__ndk1::allocator<char> >)>::target(std::type_info const&) const
FUNC d02e4 c 0 std::__ndk1::__function::__func<SwapManager::registerListeners()::$_0, std::__ndk1::allocator<SwapManager::registerListeners()::$_0>, void (std::__ndk1::basic_string<char, std::__ndk1::char_traits<char>, std::__ndk1::allocator<char> >)>::target_type() const
FUNC d02f0 34 0 _ZNSt6__ndk110__function6__funcIZN14NetworkManager2onI16TimeToSwapPacketQsr3stdE12is_base_of_vI6PacketT_EEEvNS_8functionIFvPS6_EEEbEUlNS_12basic_stringIcNS_11char_traitsIcEENS_9allocatorIcEEEEE_NSE_ISH_EEFvSG_EED2Ev
FUNC d0324 38 0 _ZNSt6__ndk110__function6__funcIZN14NetworkManager2onI16TimeToSwapPacketQsr3stdE12is_base_of_vI6PacketT_EEEvNS_8functionIFvPS6_EEEbEUlNS_12basic_stringIcNS_11char_traitsIcEENS_9allocatorIcEEEEE_NSE_ISH_EEFvSG_EED0Ev
FUNC d035c 54 0 _ZNKSt6__ndk110__function6__funcIZN14NetworkManager2onI16TimeToSwapPacketQsr3stdE12is_base_of_vI6PacketT_EEEvNS_8functionIFvPS6_EEEbEUlNS_12basic_stringIcNS_11char_traitsIcEENS_9allocatorIcEEEEE_NSE_ISH_EEFvSG_EE7__cloneEv
FUNC d03b0 44 0 _ZNKSt6__ndk110__function6__funcIZN14NetworkManager2onI16TimeToSwapPacketQsr3stdE12is_base_of_vI6PacketT_EEEvNS_8functionIFvPS6_EEEbEUlNS_12basic_stringIcNS_11char_traitsIcEENS_9allocatorIcEEEEE_NSE_ISH_EEFvSG_EE7__cloneEPNS0_6__baseISJ_EE
FUNC d03f4 1e 0 _ZNSt6__ndk110__function6__funcIZN14NetworkManager2onI16TimeToSwapPacketQsr3stdE12is_base_of_vI6PacketT_EEEvNS_8functionIFvPS6_EEEbEUlNS_12basic_stringIcNS_11char_traitsIcEENS_9allocatorIcEEEEE_NSE_ISH_EEFvSG_EE7destroyEv
FUNC d0412 2a 0 _ZNSt6__ndk110__function6__funcIZN14NetworkManager2onI16TimeToSwapPacketQsr3stdE12is_base_of_vI6PacketT_EEEvNS_8functionIFvPS6_EEEbEUlNS_12basic_stringIcNS_11char_traitsIcEENS_9allocatorIcEEEEE_NSE_ISH_EEFvSG_EE18destroy_deallocateEv
FUNC d043c 27c 0 _ZNSt6__ndk110__function6__funcIZN14NetworkManager2onI16TimeToSwapPacketQsr3stdE12is_base_of_vI6PacketT_EEEvNS_8functionIFvPS6_EEEbEUlNS_12basic_stringIcNS_11char_traitsIcEENS_9allocatorIcEEEEE_NSE_ISH_EEFvSG_EEclEOSG_
FUNC d06b8 18 0 _ZNKSt6__ndk110__function6__funcIZN14NetworkManager2onI16TimeToSwapPacketQsr3stdE12is_base_of_vI6PacketT_EEEvNS_8functionIFvPS6_EEEbEUlNS_12basic_stringIcNS_11char_traitsIcEENS_9allocatorIcEEEEE_NSE_ISH_EEFvSG_EE6targetERKSt9type_info
FUNC d06d0 c 0 _ZNKSt6__ndk110__function6__funcIZN14NetworkManager2onI16TimeToSwapPacketQsr3stdE12is_base_of_vI6PacketT_EEEvNS_8functionIFvPS6_EEEbEUlNS_12basic_stringIcNS_11char_traitsIcEENS_9allocatorIcEEEEE_NSE_ISH_EEFvSG_EE11target_typeEv
FUNC d06dc 2 0 TimeToSwapPacket::decode(std::__ndk1::basic_string<char, std::__ndk1::char_traits<char>, std::__ndk1::allocator<char> >)
FUNC d06de 6 0 TimeToSwapPacket::getPacketID() const
FUNC d06e4 c 0 TimeToSwapPacket::getPacketName() const
FUNC d06f0 34 0 _ZNSt6__ndk110__function6__funcIZZN14NetworkManager2onI16TimeToSwapPacketQsr3stdE12is_base_of_vI6PacketT_EEEvNS_8functionIFvPS6_EEEbENKUlNS_12basic_stringIcNS_11char_traitsIcEENS_9allocatorIcEEEEE_clESG_EUlvE_NSE_ISI_EEFvvEED2Ev
FUNC d0724 38 0 _ZNSt6__ndk110__function6__funcIZZN14NetworkManager2onI16TimeToSwapPacketQsr3stdE12is_base_of_vI6PacketT_EEEvNS_8functionIFvPS6_EEEbENKUlNS_12basic_stringIcNS_11char_traitsIcEENS_9allocatorIcEEEEE_clESG_EUlvE_NSE_ISI_EEFvvEED0Ev
FUNC d075c 54 0 _ZNKSt6__ndk110__function6__funcIZZN14NetworkManager2onI16TimeToSwapPacketQsr3stdE12is_base_of_vI6PacketT_EEEvNS_8functionIFvPS6_EEEbENKUlNS_12basic_stringIcNS_11char_traitsIcEENS_9allocatorIcEEEEE_clESG_EUlvE_NSE_ISI_EEFvvEE7__cloneEv
FUNC d07b0 44 0 _ZNKSt6__ndk110__function6__funcIZZN14NetworkManager2onI16TimeToSwapPacketQsr3stdE12is_base_of_vI6PacketT_EEEvNS_8functionIFvPS6_EEEbENKUlNS_12basic_stringIcNS_11char_traitsIcEENS_9allocatorIcEEEEE_clESG_EUlvE_NSE_ISI_EEFvvEE7__cloneEPNS0_6__baseISK_EE
FUNC d07f4 1e 0 _ZNSt6__ndk110__function6__funcIZZN14NetworkManager2onI16TimeToSwapPacketQsr3stdE12is_base_of_vI6PacketT_EEEvNS_8functionIFvPS6_EEEbENKUlNS_12basic_stringIcNS_11char_traitsIcEENS_9allocatorIcEEEEE_clESG_EUlvE_NSE_ISI_EEFvvEE7destroyEv
FUNC d0812 2a 0 _ZNSt6__ndk110__function6__funcIZZN14NetworkManager2onI16TimeToSwapPacketQsr3stdE12is_base_of_vI6PacketT_EEEvNS_8functionIFvPS6_EEEbENKUlNS_12basic_stringIcNS_11char_traitsIcEENS_9allocatorIcEEEEE_clESG_EUlvE_NSE_ISI_EEFvvEE18destroy_deallocateEv
FUNC d083c 44 0 _ZNSt6__ndk110__function6__funcIZZN14NetworkManager2onI16TimeToSwapPacketQsr3stdE12is_base_of_vI6PacketT_EEEvNS_8functionIFvPS6_EEEbENKUlNS_12basic_stringIcNS_11char_traitsIcEENS_9allocatorIcEEEEE_clESG_EUlvE_NSE_ISI_EEFvvEEclEv
FUNC d0880 18 0 _ZNKSt6__ndk110__function6__funcIZZN14NetworkManager2onI16TimeToSwapPacketQsr3stdE12is_base_of_vI6PacketT_EEEvNS_8functionIFvPS6_EEEbENKUlNS_12basic_stringIcNS_11char_traitsIcEENS_9allocatorIcEEEEE_clESG_EUlvE_NSE_ISI_EEFvvEE6targetERKSt9type_info
FUNC d0898 c 0 _ZNKSt6__ndk110__function6__funcIZZN14NetworkManager2onI16TimeToSwapPacketQsr3stdE12is_base_of_vI6PacketT_EEEvNS_8functionIFvPS6_EEEbENKUlNS_12basic_stringIcNS_11char_traitsIcEENS_9allocatorIcEEEEE_clESG_EUlvE_NSE_ISI_EEFvvEE11target_typeEv
FUNC d08a4 2 0 std::__ndk1::__function::__base<void (TimeToSwapPacket*)>::~__base()
FUNC d08a6 4 0 std::__ndk1::__function::__func<SwapManager::registerListeners()::$_1, std::__ndk1::allocator<SwapManager::registerListeners()::$_1>, void (TimeToSwapPacket*)>::~__func()
FUNC d08ac 20 0 std::__ndk1::__function::__func<SwapManager::registerListeners()::$_1, std::__ndk1::allocator<SwapManager::registerListeners()::$_1>, void (TimeToSwapPacket*)>::__clone() const
FUNC d08cc 14 0 std::__ndk1::__function::__func<SwapManager::registerListeners()::$_1, std::__ndk1::allocator<SwapManager::registerListeners()::$_1>, void (TimeToSwapPacket*)>::__clone(std::__ndk1::__function::__base<void (TimeToSwapPacket*)>*) const
FUNC d08e0 2 0 std::__ndk1::__function::__func<SwapManager::registerListeners()::$_1, std::__ndk1::allocator<SwapManager::registerListeners()::$_1>, void (TimeToSwapPacket*)>::destroy()
FUNC d08e2 4 0 std::__ndk1::__function::__func<SwapManager::registerListeners()::$_1, std::__ndk1::allocator<SwapManager::registerListeners()::$_1>, void (TimeToSwapPacket*)>::destroy_deallocate()
FUNC d08e8 af8 0 std::__ndk1::__function::__func<SwapManager::registerListeners()::$_1, std::__ndk1::allocator<SwapManager::registerListeners()::$_1>, void (TimeToSwapPacket*)>::operator()(TimeToSwapPacket*&&)
FUNC d13e0 18 0 std::__ndk1::__function::__func<SwapManager::registerListeners()::$_1, std::__ndk1::allocator<SwapManager::registerListeners()::$_1>, void (TimeToSwapPacket*)>::target(std::type_info const&) const
FUNC d13f8 c 0 std::__ndk1::__function::__func<SwapManager::registerListeners()::$_1, std::__ndk1::allocator<SwapManager::registerListeners()::$_1>, void (TimeToSwapPacket*)>::target_type() const
FUNC d1404 9e 0 LevelData::LevelData(LevelData const&)
FUNC d14a2 2e 0 LevelData::~LevelData()
FUNC d14d0 ac 0 std::__ndk1::__fs::filesystem::path::operator/=[abi:ne180000](std::__ndk1::__fs::filesystem::path const&)
FUNC d157c 34 0 std::__ndk1::__function::__func<NetworkManager::send<SendLevelPacket>(SendLevelPacket*, std::__ndk1::function<void ()>)::{lambda(int, int)#1}, std::__ndk1::allocator<NetworkManager::send<SendLevelPacket>(SendLevelPacket*, std::__ndk1::function<void ()>)::{lambda(int, int)#1}>, bool (int, int)>::~__func()
FUNC d15b0 38 0 std::__ndk1::__function::__func<NetworkManager::send<SendLevelPacket>(SendLevelPacket*, std::__ndk1::function<void ()>)::{lambda(int, int)#1}, std::__ndk1::allocator<NetworkManager::send<SendLevelPacket>(SendLevelPacket*, std::__ndk1::function<void ()>)::{lambda(int, int)#1}>, bool (int, int)>::~__func()
FUNC d15e8 54 0 std::__ndk1::__function::__func<NetworkManager::send<SendLevelPacket>(SendLevelPacket*, std::__ndk1::function<void ()>)::{lambda(int, int)#1}, std::__ndk1::allocator<NetworkManager::send<SendLevelPacket>(SendLevelPacket*, std::__ndk1::function<void ()>)::{lambda(int, int)#1}>, bool (int, int)>::__clone() const
FUNC d163c 44 0 std::__ndk1::__function::__func<NetworkManager::send<SendLevelPacket>(SendLevelPacket*, std::__ndk1::function<void ()>)::{lambda(int, int)#1}, std::__ndk1::allocator<NetworkManager::send<SendLevelPacket>(SendLevelPacket*, std::__ndk1::function<void ()>)::{lambda(int, int)#1}>, bool (int, int)>::__clone(std::__ndk1::__function::__base<bool (int, int)>*) const
FUNC d1680 1e 0 std::__ndk1::__function::__func<NetworkManager::send<SendLevelPacket>(SendLevelPacket*, std::__ndk1::function<void ()>)::{lambda(int, int)#1}, std::__ndk1::allocator<NetworkManager::send<SendLevelPacket>(SendLevelPacket*, std::__ndk1::function<void ()>)::{lambda(int, int)#1}>, bool (int, int)>::destroy()
FUNC d169e 2a 0 std::__ndk1::__function::__func<NetworkManager::send<SendLevelPacket>(SendLevelPacket*, std::__ndk1::function<void ()>)::{lambda(int, int)#1}, std::__ndk1::allocator<NetworkManager::send<SendLevelPacket>(SendLevelPacket*, std::__ndk1::function<void ()>)::{lambda(int, int)#1}>, bool (int, int)>::destroy_deallocate()
FUNC d16c8 140 0 std::__ndk1::__function::__func<NetworkManager::send<SendLevelPacket>(SendLevelPacket*, std::__ndk1::function<void ()>)::{lambda(int, int)#1}, std::__ndk1::allocator<NetworkManager::send<SendLevelPacket>(SendLevelPacket*, std::__ndk1::function<void ()>)::{lambda(int, int)#1}>, bool (int, int)>::operator()(int&&, int&&)
FUNC d1808 18 0 std::__ndk1::__function::__func<NetworkManager::send<SendLevelPacket>(SendLevelPacket*, std::__ndk1::function<void ()>)::{lambda(int, int)#1}, std::__ndk1::allocator<NetworkManager::send<SendLevelPacket>(SendLevelPacket*, std::__ndk1::function<void ()>)::{lambda(int, int)#1}>, bool (int, int)>::target(std::type_info const&) const
FUNC d1820 c 0 std::__ndk1::__function::__func<NetworkManager::send<SendLevelPacket>(SendLevelPacket*, std::__ndk1::function<void ()>)::{lambda(int, int)#1}, std::__ndk1::allocator<NetworkManager::send<SendLevelPacket>(SendLevelPacket*, std::__ndk1::function<void ()>)::{lambda(int, int)#1}>, bool (int, int)>::target_type() const
FUNC d182c 34 0 std::__ndk1::__function::__func<NetworkManager::send<SendLevelPacket>(SendLevelPacket*, std::__ndk1::function<void ()>)::{lambda(int, int)#1}::operator()(int, int) const::{lambda()#1}, std::__ndk1::allocator<NetworkManager::send<SendLevelPacket>(SendLevelPacket*, std::__ndk1::function<void ()>)::{lambda(int, int)#1}::operator()(int, int) const::{lambda()#1}>, void ()>::~__func()
FUNC d1860 38 0 std::__ndk1::__function::__func<NetworkManager::send<SendLevelPacket>(SendLevelPacket*, std::__ndk1::function<void ()>)::{lambda(int, int)#1}::operator()(int, int) const::{lambda()#1}, std::__ndk1::allocator<NetworkManager::send<SendLevelPacket>(SendLevelPacket*, std::__ndk1::function<void ()>)::{lambda(int, int)#1}::operator()(int, int) const::{lambda()#1}>, void ()>::~__func()
FUNC d1898 54 0 std::__ndk1::__function::__func<NetworkManager::send<SendLevelPacket>(SendLevelPacket*, std::__ndk1::function<void ()>)::{lambda(int, int)#1}::operator()(int, int) const::{lambda()#1}, std::__ndk1::allocator<NetworkManager::send<SendLevelPacket>(SendLevelPacket*, std::__ndk1::function<void ()>)::{lambda(int, int)#1}::operator()(int, int) const::{lambda()#1}>, void ()>::__clone() const
FUNC d18ec 44 0 std::__ndk1::__function::__func<NetworkManager::send<SendLevelPacket>(SendLevelPacket*, std::__ndk1::function<void ()>)::{lambda(int, int)#1}::operator()(int, int) const::{lambda()#1}, std::__ndk1::allocator<NetworkManager::send<SendLevelPacket>(SendLevelPacket*, std::__ndk1::function<void ()>)::{lambda(int, int)#1}::operator()(int, int) const::{lambda()#1}>, void ()>::__clone(std::__ndk1::__function::__base<void ()>*) const
FUNC d1930 1e 0 std::__ndk1::__function::__func<NetworkManager::send<SendLevelPacket>(SendLevelPacket*, std::__ndk1::function<void ()>)::{lambda(int, int)#1}::operator()(int, int) const::{lambda()#1}, std::__ndk1::allocator<NetworkManager::send<SendLevelPacket>(SendLevelPacket*, std::__ndk1::function<void ()>)::{lambda(int, int)#1}::operator()(int, int) const::{lambda()#1}>, void ()>::destroy()
FUNC d194e 2a 0 std::__ndk1::__function::__func<NetworkManager::send<SendLevelPacket>(SendLevelPacket*, std::__ndk1::function<void ()>)::{lambda(int, int)#1}::operator()(int, int) const::{lambda()#1}, std::__ndk1::allocator<NetworkManager::send<SendLevelPacket>(SendLevelPacket*, std::__ndk1::function<void ()>)::{lambda(int, int)#1}::operator()(int, int) const::{lambda()#1}>, void ()>::destroy_deallocate()
FUNC d1978 12 0 std::__ndk1::__function::__func<NetworkManager::send<SendLevelPacket>(SendLevelPacket*, std::__ndk1::function<void ()>)::{lambda(int, int)#1}::operator()(int, int) const::{lambda()#1}, std::__ndk1::allocator<NetworkManager::send<SendLevelPacket>(SendLevelPacket*, std::__ndk1::function<void ()>)::{lambda(int, int)#1}::operator()(int, int) const::{lambda()#1}>, void ()>::operator()()
FUNC d198c 18 0 std::__ndk1::__function::__func<NetworkManager::send<SendLevelPacket>(SendLevelPacket*, std::__ndk1::function<void ()>)::{lambda(int, int)#1}::operator()(int, int) const::{lambda()#1}, std::__ndk1::allocator<NetworkManager::send<SendLevelPacket>(SendLevelPacket*, std::__ndk1::function<void ()>)::{lambda(int, int)#1}::operator()(int, int) const::{lambda()#1}>, void ()>::target(std::type_info const&) const
FUNC d19a4 c 0 std::__ndk1::__function::__func<NetworkManager::send<SendLevelPacket>(SendLevelPacket*, std::__ndk1::function<void ()>)::{lambda(int, int)#1}::operator()(int, int) const::{lambda()#1}, std::__ndk1::allocator<NetworkManager::send<SendLevelPacket>(SendLevelPacket*, std::__ndk1::function<void ()>)::{lambda(int, int)#1}::operator()(int, int) const::{lambda()#1}>, void ()>::target_type() const
FUNC d19b0 2 0 SendLevelPacket::decode(std::__ndk1::basic_string<char, std::__ndk1::char_traits<char>, std::__ndk1::allocator<char> >)
FUNC d19b2 6 0 SendLevelPacket::getPacketID() const
FUNC d19b8 c 0 SendLevelPacket::getPacketName() const
FUNC d19c4 34 0 _ZNSt6__ndk110__function6__funcIZN14NetworkManager2onI25ReceiveSwappedLevelPacketQsr3stdE12is_base_of_vI6PacketT_EEEvNS_8functionIFvPS6_EEEbEUlNS_12basic_stringIcNS_11char_traitsIcEENS_9allocatorIcEEEEE_NSE_ISH_EEFvSG_EED2Ev
FUNC d19f8 38 0 _ZNSt6__ndk110__function6__funcIZN14NetworkManager2onI25ReceiveSwappedLevelPacketQsr3stdE12is_base_of_vI6PacketT_EEEvNS_8functionIFvPS6_EEEbEUlNS_12basic_stringIcNS_11char_traitsIcEENS_9allocatorIcEEEEE_NSE_ISH_EEFvSG_EED0Ev
FUNC d1a30 54 0 _ZNKSt6__ndk110__function6__funcIZN14NetworkManager2onI25ReceiveSwappedLevelPacketQsr3stdE12is_base_of_vI6PacketT_EEEvNS_8functionIFvPS6_EEEbEUlNS_12basic_stringIcNS_11char_traitsIcEENS_9allocatorIcEEEEE_NSE_ISH_EEFvSG_EE7__cloneEv
FUNC d1a84 44 0 _ZNKSt6__ndk110__function6__funcIZN14NetworkManager2onI25ReceiveSwappedLevelPacketQsr3stdE12is_base_of_vI6PacketT_EEEvNS_8functionIFvPS6_EEEbEUlNS_12basic_stringIcNS_11char_traitsIcEENS_9allocatorIcEEEEE_NSE_ISH_EEFvSG_EE7__cloneEPNS0_6__baseISJ_EE
FUNC d1ac8 1e 0 _ZNSt6__ndk110__function6__funcIZN14NetworkManager2onI25ReceiveSwappedLevelPacketQsr3stdE12is_base_of_vI6PacketT_EEEvNS_8functionIFvPS6_EEEbEUlNS_12basic_stringIcNS_11char_traitsIcEENS_9allocatorIcEEEEE_NSE_ISH_EEFvSG_EE7destroyEv
FUNC d1ae6 2a 0 _ZNSt6__ndk110__function6__funcIZN14NetworkManager2onI25ReceiveSwappedLevelPacketQsr3stdE12is_base_of_vI6PacketT_EEEvNS_8functionIFvPS6_EEEbEUlNS_12basic_stringIcNS_11char_traitsIcEENS_9allocatorIcEEEEE_NSE_ISH_EEFvSG_EE18destroy_deallocateEv
FUNC d1b10 4c0 0 _ZNSt6__ndk110__function6__funcIZN14NetworkManager2onI25ReceiveSwappedLevelPacketQsr3stdE12is_base_of_vI6PacketT_EEEvNS_8functionIFvPS6_EEEbEUlNS_12basic_stringIcNS_11char_traitsIcEENS_9allocatorIcEEEEE_NSE_ISH_EEFvSG_EEclEOSG_
FUNC d1fd0 18 0 _ZNKSt6__ndk110__function6__funcIZN14NetworkManager2onI25ReceiveSwappedLevelPacketQsr3stdE12is_base_of_vI6PacketT_EEEvNS_8functionIFvPS6_EEEbEUlNS_12basic_stringIcNS_11char_traitsIcEENS_9allocatorIcEEEEE_NSE_ISH_EEFvSG_EE6targetERKSt9type_info
FUNC d1fe8 c 0 _ZNKSt6__ndk110__function6__funcIZN14NetworkManager2onI25ReceiveSwappedLevelPacketQsr3stdE12is_base_of_vI6PacketT_EEEvNS_8functionIFvPS6_EEEbEUlNS_12basic_stringIcNS_11char_traitsIcEENS_9allocatorIcEEEEE_NSE_ISH_EEFvSG_EE11target_typeEv
FUNC d1ff4 2 0 ReceiveSwappedLevelPacket::decode(std::__ndk1::basic_string<char, std::__ndk1::char_traits<char>, std::__ndk1::allocator<char> >)
FUNC d1ff6 6 0 ReceiveSwappedLevelPacket::getPacketID() const
FUNC d1ffc c 0 ReceiveSwappedLevelPacket::getPacketName() const
FUNC d2008 10 0 std::__ndk1::vector<SwappedLevel, std::__ndk1::allocator<SwappedLevel> >::__throw_length_error[abi:ne180000]() const
FUNC d2018 2e 0 SwappedLevel::~SwappedLevel()
FUNC d2048 34 0 _ZNSt6__ndk110__function6__funcIZZN14NetworkManager2onI25ReceiveSwappedLevelPacketQsr3stdE12is_base_of_vI6PacketT_EEEvNS_8functionIFvPS6_EEEbENKUlNS_12basic_stringIcNS_11char_traitsIcEENS_9allocatorIcEEEEE_clESG_EUlvE_NSE_ISI_EEFvvEED2Ev
FUNC d207c 38 0 _ZNSt6__ndk110__function6__funcIZZN14NetworkManager2onI25ReceiveSwappedLevelPacketQsr3stdE12is_base_of_vI6PacketT_EEEvNS_8functionIFvPS6_EEEbENKUlNS_12basic_stringIcNS_11char_traitsIcEENS_9allocatorIcEEEEE_clESG_EUlvE_NSE_ISI_EEFvvEED0Ev
FUNC d20b4 54 0 _ZNKSt6__ndk110__function6__funcIZZN14NetworkManager2onI25ReceiveSwappedLevelPacketQsr3stdE12is_base_of_vI6PacketT_EEEvNS_8functionIFvPS6_EEEbENKUlNS_12basic_stringIcNS_11char_traitsIcEENS_9allocatorIcEEEEE_clESG_EUlvE_NSE_ISI_EEFvvEE7__cloneEv
FUNC d2108 44 0 _ZNKSt6__ndk110__function6__funcIZZN14NetworkManager2onI25ReceiveSwappedLevelPacketQsr3stdE12is_base_of_vI6PacketT_EEEvNS_8functionIFvPS6_EEEbENKUlNS_12basic_stringIcNS_11char_traitsIcEENS_9allocatorIcEEEEE_clESG_EUlvE_NSE_ISI_EEFvvEE7__cloneEPNS0_6__baseISK_EE
FUNC d214c 1e 0 _ZNSt6__ndk110__function6__funcIZZN14NetworkManager2onI25ReceiveSwappedLevelPacketQsr3stdE12is_base_of_vI6PacketT_EEEvNS_8functionIFvPS6_EEEbENKUlNS_12basic_stringIcNS_11char_traitsIcEENS_9allocatorIcEEEEE_clESG_EUlvE_NSE_ISI_EEFvvEE7destroyEv
FUNC d216a 2a 0 _ZNSt6__ndk110__function6__funcIZZN14NetworkManager2onI25ReceiveSwappedLevelPacketQsr3stdE12is_base_of_vI6PacketT_EEEvNS_8functionIFvPS6_EEEbENKUlNS_12basic_stringIcNS_11char_traitsIcEENS_9allocatorIcEEEEE_clESG_EUlvE_NSE_ISI_EEFvvEE18destroy_deallocateEv
FUNC d2194 44 0 _ZNSt6__ndk110__function6__funcIZZN14NetworkManager2onI25ReceiveSwappedLevelPacketQsr3stdE12is_base_of_vI6PacketT_EEEvNS_8functionIFvPS6_EEEbENKUlNS_12basic_stringIcNS_11char_traitsIcEENS_9allocatorIcEEEEE_clESG_EUlvE_NSE_ISI_EEFvvEEclEv
FUNC d21d8 18 0 _ZNKSt6__ndk110__function6__funcIZZN14NetworkManager2onI25ReceiveSwappedLevelPacketQsr3stdE12is_base_of_vI6PacketT_EEEvNS_8functionIFvPS6_EEEbENKUlNS_12basic_stringIcNS_11char_traitsIcEENS_9allocatorIcEEEEE_clESG_EUlvE_NSE_ISI_EEFvvEE6targetERKSt9type_info
FUNC d21f0 c 0 _ZNKSt6__ndk110__function6__funcIZZN14NetworkManager2onI25ReceiveSwappedLevelPacketQsr3stdE12is_base_of_vI6PacketT_EEEvNS_8functionIFvPS6_EEEbENKUlNS_12basic_stringIcNS_11char_traitsIcEENS_9allocatorIcEEEEE_clESG_EUlvE_NSE_ISI_EEFvvEE11target_typeEv
FUNC d21fc 2 0 std::__ndk1::__function::__base<void (ReceiveSwappedLevelPacket*)>::~__base()
FUNC d21fe 4 0 std::__ndk1::__function::__func<SwapManager::registerListeners()::$_2, std::__ndk1::allocator<SwapManager::registerListeners()::$_2>, void (ReceiveSwappedLevelPacket*)>::~__func()
FUNC d2204 20 0 std::__ndk1::__function::__func<SwapManager::registerListeners()::$_2, std::__ndk1::allocator<SwapManager::registerListeners()::$_2>, void (ReceiveSwappedLevelPacket*)>::__clone() const
FUNC d2224 14 0 std::__ndk1::__function::__func<SwapManager::registerListeners()::$_2, std::__ndk1::allocator<SwapManager::registerListeners()::$_2>, void (ReceiveSwappedLevelPacket*)>::__clone(std::__ndk1::__function::__base<void (ReceiveSwappedLevelPacket*)>*) const
FUNC d2238 2 0 std::__ndk1::__function::__func<SwapManager::registerListeners()::$_2, std::__ndk1::allocator<SwapManager::registerListeners()::$_2>, void (ReceiveSwappedLevelPacket*)>::destroy()
FUNC d223a 4 0 std::__ndk1::__function::__func<SwapManager::registerListeners()::$_2, std::__ndk1::allocator<SwapManager::registerListeners()::$_2>, void (ReceiveSwappedLevelPacket*)>::destroy_deallocate()
FUNC d2240 298 0 std::__ndk1::__function::__func<SwapManager::registerListeners()::$_2, std::__ndk1::allocator<SwapManager::registerListeners()::$_2>, void (ReceiveSwappedLevelPacket*)>::operator()(ReceiveSwappedLevelPacket*&&)
FUNC d24d8 18 0 std::__ndk1::__function::__func<SwapManager::registerListeners()::$_2, std::__ndk1::allocator<SwapManager::registerListeners()::$_2>, void (ReceiveSwappedLevelPacket*)>::target(std::type_info const&) const
FUNC d24f0 c 0 std::__ndk1::__function::__func<SwapManager::registerListeners()::$_2, std::__ndk1::allocator<SwapManager::registerListeners()::$_2>, void (ReceiveSwappedLevelPacket*)>::target_type() const
FUNC d24fc 34 0 _ZNSt6__ndk110__function6__funcIZN14NetworkManager2onI15SwapEndedPacketQsr3stdE12is_base_of_vI6PacketT_EEEvNS_8functionIFvPS6_EEEbEUlNS_12basic_stringIcNS_11char_traitsIcEENS_9allocatorIcEEEEE_NSE_ISH_EEFvSG_EED2Ev
FUNC d2530 38 0 _ZNSt6__ndk110__function6__funcIZN14NetworkManager2onI15SwapEndedPacketQsr3stdE12is_base_of_vI6PacketT_EEEvNS_8functionIFvPS6_EEEbEUlNS_12basic_stringIcNS_11char_traitsIcEENS_9allocatorIcEEEEE_NSE_ISH_EEFvSG_EED0Ev
FUNC d2568 54 0 _ZNKSt6__ndk110__function6__funcIZN14NetworkManager2onI15SwapEndedPacketQsr3stdE12is_base_of_vI6PacketT_EEEvNS_8functionIFvPS6_EEEbEUlNS_12basic_stringIcNS_11char_traitsIcEENS_9allocatorIcEEEEE_NSE_ISH_EEFvSG_EE7__cloneEv
FUNC d25bc 44 0 _ZNKSt6__ndk110__function6__funcIZN14NetworkManager2onI15SwapEndedPacketQsr3stdE12is_base_of_vI6PacketT_EEEvNS_8functionIFvPS6_EEEbEUlNS_12basic_stringIcNS_11char_traitsIcEENS_9allocatorIcEEEEE_NSE_ISH_EEFvSG_EE7__cloneEPNS0_6__baseISJ_EE
FUNC d2600 1e 0 _ZNSt6__ndk110__function6__funcIZN14NetworkManager2onI15SwapEndedPacketQsr3stdE12is_base_of_vI6PacketT_EEEvNS_8functionIFvPS6_EEEbEUlNS_12basic_stringIcNS_11char_traitsIcEENS_9allocatorIcEEEEE_NSE_ISH_EEFvSG_EE7destroyEv
FUNC d261e 2a 0 _ZNSt6__ndk110__function6__funcIZN14NetworkManager2onI15SwapEndedPacketQsr3stdE12is_base_of_vI6PacketT_EEEvNS_8functionIFvPS6_EEEbEUlNS_12basic_stringIcNS_11char_traitsIcEENS_9allocatorIcEEEEE_NSE_ISH_EEFvSG_EE18destroy_deallocateEv
FUNC d2648 27c 0 _ZNSt6__ndk110__function6__funcIZN14NetworkManager2onI15SwapEndedPacketQsr3stdE12is_base_of_vI6PacketT_EEEvNS_8functionIFvPS6_EEEbEUlNS_12basic_stringIcNS_11char_traitsIcEENS_9allocatorIcEEEEE_NSE_ISH_EEFvSG_EEclEOSG_
FUNC d28c4 18 0 _ZNKSt6__ndk110__function6__funcIZN14NetworkManager2onI15SwapEndedPacketQsr3stdE12is_base_of_vI6PacketT_EEEvNS_8functionIFvPS6_EEEbEUlNS_12basic_stringIcNS_11char_traitsIcEENS_9allocatorIcEEEEE_NSE_ISH_EEFvSG_EE6targetERKSt9type_info
FUNC d28dc c 0 _ZNKSt6__ndk110__function6__funcIZN14NetworkManager2onI15SwapEndedPacketQsr3stdE12is_base_of_vI6PacketT_EEEvNS_8functionIFvPS6_EEEbEUlNS_12basic_stringIcNS_11char_traitsIcEENS_9allocatorIcEEEEE_NSE_ISH_EEFvSG_EE11target_typeEv
FUNC d28e8 2 0 SwapEndedPacket::decode(std::__ndk1::basic_string<char, std::__ndk1::char_traits<char>, std::__ndk1::allocator<char> >)
FUNC d28ea 6 0 SwapEndedPacket::getPacketID() const
FUNC d28f0 c 0 SwapEndedPacket::getPacketName() const
FUNC d28fc 34 0 _ZNSt6__ndk110__function6__funcIZZN14NetworkManager2onI15SwapEndedPacketQsr3stdE12is_base_of_vI6PacketT_EEEvNS_8functionIFvPS6_EEEbENKUlNS_12basic_stringIcNS_11char_traitsIcEENS_9allocatorIcEEEEE_clESG_EUlvE_NSE_ISI_EEFvvEED2Ev
FUNC d2930 38 0 _ZNSt6__ndk110__function6__funcIZZN14NetworkManager2onI15SwapEndedPacketQsr3stdE12is_base_of_vI6PacketT_EEEvNS_8functionIFvPS6_EEEbENKUlNS_12basic_stringIcNS_11char_traitsIcEENS_9allocatorIcEEEEE_clESG_EUlvE_NSE_ISI_EEFvvEED0Ev
FUNC d2968 54 0 _ZNKSt6__ndk110__function6__funcIZZN14NetworkManager2onI15SwapEndedPacketQsr3stdE12is_base_of_vI6PacketT_EEEvNS_8functionIFvPS6_EEEbENKUlNS_12basic_stringIcNS_11char_traitsIcEENS_9allocatorIcEEEEE_clESG_EUlvE_NSE_ISI_EEFvvEE7__cloneEv
FUNC d29bc 44 0 _ZNKSt6__ndk110__function6__funcIZZN14NetworkManager2onI15SwapEndedPacketQsr3stdE12is_base_of_vI6PacketT_EEEvNS_8functionIFvPS6_EEEbENKUlNS_12basic_stringIcNS_11char_traitsIcEENS_9allocatorIcEEEEE_clESG_EUlvE_NSE_ISI_EEFvvEE7__cloneEPNS0_6__baseISK_EE
FUNC d2a00 1e 0 _ZNSt6__ndk110__function6__funcIZZN14NetworkManager2onI15SwapEndedPacketQsr3stdE12is_base_of_vI6PacketT_EEEvNS_8functionIFvPS6_EEEbENKUlNS_12basic_stringIcNS_11char_traitsIcEENS_9allocatorIcEEEEE_clESG_EUlvE_NSE_ISI_EEFvvEE7destroyEv
FUNC d2a1e 2a 0 _ZNSt6__ndk110__function6__funcIZZN14NetworkManager2onI15SwapEndedPacketQsr3stdE12is_base_of_vI6PacketT_EEEvNS_8functionIFvPS6_EEEbENKUlNS_12basic_stringIcNS_11char_traitsIcEENS_9allocatorIcEEEEE_clESG_EUlvE_NSE_ISI_EEFvvEE18destroy_deallocateEv
FUNC d2a48 44 0 _ZNSt6__ndk110__function6__funcIZZN14NetworkManager2onI15SwapEndedPacketQsr3stdE12is_base_of_vI6PacketT_EEEvNS_8functionIFvPS6_EEEbENKUlNS_12basic_stringIcNS_11char_traitsIcEENS_9allocatorIcEEEEE_clESG_EUlvE_NSE_ISI_EEFvvEEclEv
FUNC d2a8c 18 0 _ZNKSt6__ndk110__function6__funcIZZN14NetworkManager2onI15SwapEndedPacketQsr3stdE12is_base_of_vI6PacketT_EEEvNS_8functionIFvPS6_EEEbENKUlNS_12basic_stringIcNS_11char_traitsIcEENS_9allocatorIcEEEEE_clESG_EUlvE_NSE_ISI_EEFvvEE6targetERKSt9type_info
FUNC d2aa4 c 0 _ZNKSt6__ndk110__function6__funcIZZN14NetworkManager2onI15SwapEndedPacketQsr3stdE12is_base_of_vI6PacketT_EEEvNS_8functionIFvPS6_EEEbENKUlNS_12basic_stringIcNS_11char_traitsIcEENS_9allocatorIcEEEEE_clESG_EUlvE_NSE_ISI_EEFvvEE11target_typeEv
FUNC d2ab0 2 0 std::__ndk1::__function::__base<void (SwapEndedPacket*)>::~__base()
FUNC d2ab2 4 0 std::__ndk1::__function::__func<SwapManager::registerListeners()::$_3, std::__ndk1::allocator<SwapManager::registerListeners()::$_3>, void (SwapEndedPacket*)>::~__func()
FUNC d2ab8 20 0 std::__ndk1::__function::__func<SwapManager::registerListeners()::$_3, std::__ndk1::allocator<SwapManager::registerListeners()::$_3>, void (SwapEndedPacket*)>::__clone() const
FUNC d2ad8 14 0 std::__ndk1::__function::__func<SwapManager::registerListeners()::$_3, std::__ndk1::allocator<SwapManager::registerListeners()::$_3>, void (SwapEndedPacket*)>::__clone(std::__ndk1::__function::__base<void (SwapEndedPacket*)>*) const
FUNC d2aec 2 0 std::__ndk1::__function::__func<SwapManager::registerListeners()::$_3, std::__ndk1::allocator<SwapManager::registerListeners()::$_3>, void (SwapEndedPacket*)>::destroy()
FUNC d2aee 4 0 std::__ndk1::__function::__func<SwapManager::registerListeners()::$_3, std::__ndk1::allocator<SwapManager::registerListeners()::$_3>, void (SwapEndedPacket*)>::destroy_deallocate()
FUNC d2af4 144 0 std::__ndk1::__function::__func<SwapManager::registerListeners()::$_3, std::__ndk1::allocator<SwapManager::registerListeners()::$_3>, void (SwapEndedPacket*)>::operator()(SwapEndedPacket*&&)
FUNC d2c38 18 0 std::__ndk1::__function::__func<SwapManager::registerListeners()::$_3, std::__ndk1::allocator<SwapManager::registerListeners()::$_3>, void (SwapEndedPacket*)>::target(std::type_info const&) const
FUNC d2c50 c 0 std::__ndk1::__function::__func<SwapManager::registerListeners()::$_3, std::__ndk1::allocator<SwapManager::registerListeners()::$_3>, void (SwapEndedPacket*)>::target_type() const
FUNC d2c5c 68 0 _GLOBAL__sub_I_SwapManager.cpp
FUNC d2cc4 2ac 0 NetworkManager::NetworkManager()
FUNC d2f70 4a 0 std::__ndk1::vector<std::__ndk1::function<void ()>, std::__ndk1::allocator<std::__ndk1::function<void ()> > >::~vector[abi:ne180000]()
FUNC d2fba 50 0 std::__ndk1::unordered_map<int, std::__ndk1::function<void (std::__ndk1::basic_string<char, std::__ndk1::char_traits<char>, std::__ndk1::allocator<char> >)>, std::__ndk1::hash<int>, std::__ndk1::equal_to<int>, std::__ndk1::allocator<std::__ndk1::pair<int const, std::__ndk1::function<void (std::__ndk1::basic_string<char, std::__ndk1::char_traits<char>, std::__ndk1::allocator<char> >)> > > >::~unordered_map[abi:ne180000]()
FUNC d300c 5a4 0 NetworkManager::update(float)
FUNC d35b0 504 0 NetworkManager::connect(bool, std::__ndk1::function<void ()>)
FUNC d3ab4 4a 0 ix::SocketTLSOptions::~SocketTLSOptions()
FUNC d3afe 10 0 NetworkManager::~NetworkManager()
FUNC d3b10 34 0 _ZNSt6__ndk110__function6__funcIZN14NetworkManager2onI10PongPacketQsr3stdE12is_base_of_vI6PacketT_EEEvNS_8functionIFvPS6_EEEbEUlNS_12basic_stringIcNS_11char_traitsIcEENS_9allocatorIcEEEEE_NSE_ISH_EEFvSG_EED2Ev
FUNC d3b44 38 0 _ZNSt6__ndk110__function6__funcIZN14NetworkManager2onI10PongPacketQsr3stdE12is_base_of_vI6PacketT_EEEvNS_8functionIFvPS6_EEEbEUlNS_12basic_stringIcNS_11char_traitsIcEENS_9allocatorIcEEEEE_NSE_ISH_EEFvSG_EED0Ev
FUNC d3b7c 54 0 _ZNKSt6__ndk110__function6__funcIZN14NetworkManager2onI10PongPacketQsr3stdE12is_base_of_vI6PacketT_EEEvNS_8functionIFvPS6_EEEbEUlNS_12basic_stringIcNS_11char_traitsIcEENS_9allocatorIcEEEEE_NSE_ISH_EEFvSG_EE7__cloneEv
FUNC d3bd0 44 0 _ZNKSt6__ndk110__function6__funcIZN14NetworkManager2onI10PongPacketQsr3stdE12is_base_of_vI6PacketT_EEEvNS_8functionIFvPS6_EEEbEUlNS_12basic_stringIcNS_11char_traitsIcEENS_9allocatorIcEEEEE_NSE_ISH_EEFvSG_EE7__cloneEPNS0_6__baseISJ_EE
FUNC d3c14 1e 0 _ZNSt6__ndk110__function6__funcIZN14NetworkManager2onI10PongPacketQsr3stdE12is_base_of_vI6PacketT_EEEvNS_8functionIFvPS6_EEEbEUlNS_12basic_stringIcNS_11char_traitsIcEENS_9allocatorIcEEEEE_NSE_ISH_EEFvSG_EE7destroyEv
FUNC d3c32 2a 0 _ZNSt6__ndk110__function6__funcIZN14NetworkManager2onI10PongPacketQsr3stdE12is_base_of_vI6PacketT_EEEvNS_8functionIFvPS6_EEEbEUlNS_12basic_stringIcNS_11char_traitsIcEENS_9allocatorIcEEEEE_NSE_ISH_EEFvSG_EE18destroy_deallocateEv
FUNC d3c5c 27c 0 _ZNSt6__ndk110__function6__funcIZN14NetworkManager2onI10PongPacketQsr3stdE12is_base_of_vI6PacketT_EEEvNS_8functionIFvPS6_EEEbEUlNS_12basic_stringIcNS_11char_traitsIcEENS_9allocatorIcEEEEE_NSE_ISH_EEFvSG_EEclEOSG_
FUNC d3ed8 18 0 _ZNKSt6__ndk110__function6__funcIZN14NetworkManager2onI10PongPacketQsr3stdE12is_base_of_vI6PacketT_EEEvNS_8functionIFvPS6_EEEbEUlNS_12basic_stringIcNS_11char_traitsIcEENS_9allocatorIcEEEEE_NSE_ISH_EEFvSG_EE6targetERKSt9type_info
FUNC d3ef0 c 0 _ZNKSt6__ndk110__function6__funcIZN14NetworkManager2onI10PongPacketQsr3stdE12is_base_of_vI6PacketT_EEEvNS_8functionIFvPS6_EEEbEUlNS_12basic_stringIcNS_11char_traitsIcEENS_9allocatorIcEEEEE_NSE_ISH_EEFvSG_EE11target_typeEv
FUNC d3efc 2 0 PongPacket::decode(std::__ndk1::basic_string<char, std::__ndk1::char_traits<char>, std::__ndk1::allocator<char> >)
FUNC d3efe 6 0 PongPacket::getPacketID() const
FUNC d3f04 c 0 PongPacket::getPacketName() const
FUNC d3f10 34 0 _ZNSt6__ndk110__function6__funcIZZN14NetworkManager2onI10PongPacketQsr3stdE12is_base_of_vI6PacketT_EEEvNS_8functionIFvPS6_EEEbENKUlNS_12basic_stringIcNS_11char_traitsIcEENS_9allocatorIcEEEEE_clESG_EUlvE_NSE_ISI_EEFvvEED2Ev
FUNC d3f44 38 0 _ZNSt6__ndk110__function6__funcIZZN14NetworkManager2onI10PongPacketQsr3stdE12is_base_of_vI6PacketT_EEEvNS_8functionIFvPS6_EEEbENKUlNS_12basic_stringIcNS_11char_traitsIcEENS_9allocatorIcEEEEE_clESG_EUlvE_NSE_ISI_EEFvvEED0Ev
FUNC d3f7c 54 0 _ZNKSt6__ndk110__function6__funcIZZN14NetworkManager2onI10PongPacketQsr3stdE12is_base_of_vI6PacketT_EEEvNS_8functionIFvPS6_EEEbENKUlNS_12basic_stringIcNS_11char_traitsIcEENS_9allocatorIcEEEEE_clESG_EUlvE_NSE_ISI_EEFvvEE7__cloneEv
FUNC d3fd0 44 0 _ZNKSt6__ndk110__function6__funcIZZN14NetworkManager2onI10PongPacketQsr3stdE12is_base_of_vI6PacketT_EEEvNS_8functionIFvPS6_EEEbENKUlNS_12basic_stringIcNS_11char_traitsIcEENS_9allocatorIcEEEEE_clESG_EUlvE_NSE_ISI_EEFvvEE7__cloneEPNS0_6__baseISK_EE
FUNC d4014 1e 0 _ZNSt6__ndk110__function6__funcIZZN14NetworkManager2onI10PongPacketQsr3stdE12is_base_of_vI6PacketT_EEEvNS_8functionIFvPS6_EEEbENKUlNS_12basic_stringIcNS_11char_traitsIcEENS_9allocatorIcEEEEE_clESG_EUlvE_NSE_ISI_EEFvvEE7destroyEv
FUNC d4032 2a 0 _ZNSt6__ndk110__function6__funcIZZN14NetworkManager2onI10PongPacketQsr3stdE12is_base_of_vI6PacketT_EEEvNS_8functionIFvPS6_EEEbENKUlNS_12basic_stringIcNS_11char_traitsIcEENS_9allocatorIcEEEEE_clESG_EUlvE_NSE_ISI_EEFvvEE18destroy_deallocateEv
FUNC d405c 44 0 _ZNSt6__ndk110__function6__funcIZZN14NetworkManager2onI10PongPacketQsr3stdE12is_base_of_vI6PacketT_EEEvNS_8functionIFvPS6_EEEbENKUlNS_12basic_stringIcNS_11char_traitsIcEENS_9allocatorIcEEEEE_clESG_EUlvE_NSE_ISI_EEFvvEEclEv
FUNC d40a0 18 0 _ZNKSt6__ndk110__function6__funcIZZN14NetworkManager2onI10PongPacketQsr3stdE12is_base_of_vI6PacketT_EEEvNS_8functionIFvPS6_EEEbENKUlNS_12basic_stringIcNS_11char_traitsIcEENS_9allocatorIcEEEEE_clESG_EUlvE_NSE_ISI_EEFvvEE6targetERKSt9type_info
FUNC d40b8 c 0 _ZNKSt6__ndk110__function6__funcIZZN14NetworkManager2onI10PongPacketQsr3stdE12is_base_of_vI6PacketT_EEEvNS_8functionIFvPS6_EEEbENKUlNS_12basic_stringIcNS_11char_traitsIcEENS_9allocatorIcEEEEE_clESG_EUlvE_NSE_ISI_EEFvvEE11target_typeEv
FUNC d40c4 2 0 std::__ndk1::__function::__base<void (PongPacket*)>::~__base()
FUNC d40c6 4 0 std::__ndk1::__function::__func<NetworkManager::NetworkManager()::$_0, std::__ndk1::allocator<NetworkManager::NetworkManager()::$_0>, void (PongPacket*)>::~__func()
FUNC d40cc 20 0 std::__ndk1::__function::__func<NetworkManager::NetworkManager()::$_0, std::__ndk1::allocator<NetworkManager::NetworkManager()::$_0>, void (PongPacket*)>::__clone() const
FUNC d40ec 14 0 std::__ndk1::__function::__func<NetworkManager::NetworkManager()::$_0, std::__ndk1::allocator<NetworkManager::NetworkManager()::$_0>, void (PongPacket*)>::__clone(std::__ndk1::__function::__base<void (PongPacket*)>*) const
FUNC d4100 2 0 std::__ndk1::__function::__func<NetworkManager::NetworkManager()::$_0, std::__ndk1::allocator<NetworkManager::NetworkManager()::$_0>, void (PongPacket*)>::destroy()
FUNC d4102 4 0 std::__ndk1::__function::__func<NetworkManager::NetworkManager()::$_0, std::__ndk1::allocator<NetworkManager::NetworkManager()::$_0>, void (PongPacket*)>::destroy_deallocate()
FUNC d4108 28 0 std::__ndk1::__function::__func<NetworkManager::NetworkManager()::$_0, std::__ndk1::allocator<NetworkManager::NetworkManager()::$_0>, void (PongPacket*)>::operator()(PongPacket*&&)
FUNC d4130 18 0 std::__ndk1::__function::__func<NetworkManager::NetworkManager()::$_0, std::__ndk1::allocator<NetworkManager::NetworkManager()::$_0>, void (PongPacket*)>::target(std::type_info const&) const
FUNC d4148 c 0 std::__ndk1::__function::__func<NetworkManager::NetworkManager()::$_0, std::__ndk1::allocator<NetworkManager::NetworkManager()::$_0>, void (PongPacket*)>::target_type() const
FUNC d4154 2 0 PingPacket::decode(std::__ndk1::basic_string<char, std::__ndk1::char_traits<char>, std::__ndk1::allocator<char> >)
FUNC d4156 6 0 PingPacket::getPacketID() const
FUNC d415c c 0 PingPacket::getPacketName() const
FUNC d4168 34 0 std::__ndk1::__function::__func<NetworkManager::send<PingPacket>(PingPacket*, std::__ndk1::function<void ()>)::{lambda(int, int)#1}, std::__ndk1::allocator<NetworkManager::send<PingPacket>(PingPacket*, std::__ndk1::function<void ()>)::{lambda(int, int)#1}>, bool (int, int)>::~__func()
FUNC d419c 38 0 std::__ndk1::__function::__func<NetworkManager::send<PingPacket>(PingPacket*, std::__ndk1::function<void ()>)::{lambda(int, int)#1}, std::__ndk1::allocator<NetworkManager::send<PingPacket>(PingPacket*, std::__ndk1::function<void ()>)::{lambda(int, int)#1}>, bool (int, int)>::~__func()
FUNC d41d4 54 0 std::__ndk1::__function::__func<NetworkManager::send<PingPacket>(PingPacket*, std::__ndk1::function<void ()>)::{lambda(int, int)#1}, std::__ndk1::allocator<NetworkManager::send<PingPacket>(PingPacket*, std::__ndk1::function<void ()>)::{lambda(int, int)#1}>, bool (int, int)>::__clone() const
FUNC d4228 44 0 std::__ndk1::__function::__func<NetworkManager::send<PingPacket>(PingPacket*, std::__ndk1::function<void ()>)::{lambda(int, int)#1}, std::__ndk1::allocator<NetworkManager::send<PingPacket>(PingPacket*, std::__ndk1::function<void ()>)::{lambda(int, int)#1}>, bool (int, int)>::__clone(std::__ndk1::__function::__base<bool (int, int)>*) const
FUNC d426c 1e 0 std::__ndk1::__function::__func<NetworkManager::send<PingPacket>(PingPacket*, std::__ndk1::function<void ()>)::{lambda(int, int)#1}, std::__ndk1::allocator<NetworkManager::send<PingPacket>(PingPacket*, std::__ndk1::function<void ()>)::{lambda(int, int)#1}>, bool (int, int)>::destroy()
FUNC d428a 2a 0 std::__ndk1::__function::__func<NetworkManager::send<PingPacket>(PingPacket*, std::__ndk1::function<void ()>)::{lambda(int, int)#1}, std::__ndk1::allocator<NetworkManager::send<PingPacket>(PingPacket*, std::__ndk1::function<void ()>)::{lambda(int, int)#1}>, bool (int, int)>::destroy_deallocate()
FUNC d42b4 140 0 std::__ndk1::__function::__func<NetworkManager::send<PingPacket>(PingPacket*, std::__ndk1::function<void ()>)::{lambda(int, int)#1}, std::__ndk1::allocator<NetworkManager::send<PingPacket>(PingPacket*, std::__ndk1::function<void ()>)::{lambda(int, int)#1}>, bool (int, int)>::operator()(int&&, int&&)
FUNC d43f4 18 0 std::__ndk1::__function::__func<NetworkManager::send<PingPacket>(PingPacket*, std::__ndk1::function<void ()>)::{lambda(int, int)#1}, std::__ndk1::allocator<NetworkManager::send<PingPacket>(PingPacket*, std::__ndk1::function<void ()>)::{lambda(int, int)#1}>, bool (int, int)>::target(std::type_info const&) const
FUNC d440c c 0 std::__ndk1::__function::__func<NetworkManager::send<PingPacket>(PingPacket*, std::__ndk1::function<void ()>)::{lambda(int, int)#1}, std::__ndk1::allocator<NetworkManager::send<PingPacket>(PingPacket*, std::__ndk1::function<void ()>)::{lambda(int, int)#1}>, bool (int, int)>::target_type() const
FUNC d4418 34 0 std::__ndk1::__function::__func<NetworkManager::send<PingPacket>(PingPacket*, std::__ndk1::function<void ()>)::{lambda(int, int)#1}::operator()(int, int) const::{lambda()#1}, std::__ndk1::allocator<NetworkManager::send<PingPacket>(PingPacket*, std::__ndk1::function<void ()>)::{lambda(int, int)#1}::operator()(int, int) const::{lambda()#1}>, void ()>::~__func()
