MODULE Linux arm A0D6A1D18A164B42D28BE4432BED48830 ninxout.redash.android32.so
INFO CODE_ID D1A1D6A0168A424BD28BE4432BED4883D6A0EE64
INFO GENERATOR mozilla/dump_syms 2.3.4
PUBLIC 17ba0 0 __on_dlclose
PUBLIC 17bb0 0 __emutls_unregister_key
PUBLIC 17bb4 0 __on_dlclose_late
PUBLIC 17bb8 0 __atexit_handler_wrapper
PUBLIC 17bc4 0 atexit
PUBLIC 17be4 0 pthread_atfork
FUNC 17bf4 16 0 geode::Ref<cocos2d::CCDictionary>::~Ref()
FUNC 17c0a 1e 0 std::__ndk1::vector<ChallengesPage*, std::__ndk1::allocator<ChallengesPage*> >::~vector[abi:ne180000]()
PUBLIC 17c29 0 __clang_call_terminate
FUNC 17c34 54 0 _GLOBAL__sub_I_Variables.cpp
FUNC 17c88 2d0 0 __cxx_global_var_init
FUNC 17f58 20 0 geode::modifier::ModifyBase<geode::modifier::ModifyDerive<hook6<(anonymous namespace)::hook6Parent>, CreatorLayer> >::~ModifyBase()
FUNC 17f80 320 0 geode::modifier::ModifyDerive<hook6<(anonymous namespace)::hook6Parent>, CreatorLayer>::apply()
FUNC 182a0 3a 0 std::__ndk1::shared_ptr<geode::Hook>::~shared_ptr[abi:ne180000]()
FUNC 182dc 60 0 geode::impl::ResultData<geode::Hook*, std::__ndk1::basic_string<char, std::__ndk1::char_traits<char>, std::__ndk1::allocator<char> > >::~ResultData()
FUNC 1833c 3e 0 std::__ndk1::vector<std::__ndk1::basic_string<char, std::__ndk1::char_traits<char>, std::__ndk1::allocator<char> >, std::__ndk1::allocator<std::__ndk1::basic_string<char, std::__ndk1::char_traits<char>, std::__ndk1::allocator<char> > > >::~vector[abi:ne180000]()
FUNC 1837a 2 0 geode::modifier::ModifyBase<geode::modifier::ModifyDerive<hook6<(anonymous namespace)::hook6Parent>, CreatorLayer> >::apply()
FUNC 1837c f8 0 _ZN5geode15UnwrapExceptionC2IRPNS_4HookEQsr4implE18IsStringStreamableIT_EEENS_4impl5OkTagEOS5_
FUNC 18474 34 0 std::__ndk1::__throw_bad_variant_access[abi:ne180000]()
FUNC 184a8 d8 0 std::__ndk1::basic_stringstream<char, std::__ndk1::char_traits<char>, std::__ndk1::allocator<char> >::basic_stringstream[abi:ne180000]()
FUNC 18580 68 0 std::__ndk1::basic_stringstream<char, std::__ndk1::char_traits<char>, std::__ndk1::allocator<char> >::~basic_stringstream()
FUNC 185e8 10 0 geode::UnwrapException::~UnwrapException()
FUNC 185f8 108 0 std::__ndk1::__put_character_sequence[abi:ne180000]<char, std::__ndk1::char_traits<char> >(std::__ndk1::basic_ostream<char, std::__ndk1::char_traits<char> >, std::__ndk1::basic_ostream const*, unsigned int)
FUNC 18700 110 0 std::__ndk1::__pad_and_output[abi:ne180000]<char, std::__ndk1::char_traits<char> >(std::__ndk1::char_traits<char>, std::__ndk1::ostreambuf_iterator const*, std::__ndk1::ostreambuf_iterator const, std::__ndk1::ostreambuf_iterator const, std::__ndk1::ios_base&, std::__ndk1::ostreambuf_iterator)
FUNC 18810 10 0 std::__ndk1::basic_string<char, std::__ndk1::char_traits<char>, std::__ndk1::allocator<char> >::__throw_length_error[abi:ne180000]() const
FUNC 18820 38 0 std::__ndk1::__throw_length_error[abi:ne180000](char const*)
FUNC 18858 18 0 std::length_error::length_error[abi:ne180000](char const*)
FUNC 18870 28 0 std::__throw_bad_array_new_length([abi:ne180000], void)
FUNC 18898 ce 0 std::__ndk1::basic_stringbuf<char, std::__ndk1::char_traits<char>, std::__ndk1::allocator<char> >::str[abi:ne180000]() &&
FUNC 18966 e0 0 std::__ndk1::basic_stringbuf<char, std::__ndk1::char_traits<char>, std::__ndk1::allocator<char> >::__init_buf_ptrs[abi:ne180000]()
FUNC 18a48 164 0 std::__ndk1::vector<std::__ndk1::basic_string<char, std::__ndk1::char_traits<char>, std::__ndk1::allocator<char> >, std::__ndk1::allocator<std::__ndk1::basic_string<char, std::__ndk1::char_traits<char>, std::__ndk1::allocator<char> > > >::__push_back_slow_path<std::__ndk1::basic_string<char, std::__ndk1::char_traits<char>, std::__ndk1::allocator<char> > const&>(std::__ndk1::basic_string<char, std::__ndk1::char_traits<char>, std::__ndk1::allocator<char> > const&)
FUNC 18bac 46 0 std::__ndk1::basic_string<char, std::__ndk1::char_traits<char>, std::__ndk1::allocator<char> >::__init_copy_ctor_external(char const*, unsigned int)
FUNC 18bf2 3c 0 std::__ndk1::__split_buffer<std::__ndk1::basic_string<char, std::__ndk1::char_traits<char>, std::__ndk1::allocator<char> >, std::__ndk1::allocator<std::__ndk1::basic_string<char, std::__ndk1::char_traits<char>, std::__ndk1::allocator<char> > >&>::~__split_buffer()
FUNC 18c30 10 0 std::__ndk1::vector<std::__ndk1::basic_string<char, std::__ndk1::char_traits<char>, std::__ndk1::allocator<char> >, std::__ndk1::allocator<std::__ndk1::basic_string<char, std::__ndk1::char_traits<char>, std::__ndk1::allocator<char> > > >::__throw_length_error[abi:ne180000]() const
FUNC 18c40 2 0 std::__ndk1::__variant_detail::__visitation::__base::__dispatcher<(unsigned int)0>::__dispatch[abi:ne180000]<std::__ndk1::__variant_detail::__dtor<std::__ndk1::__variant_detail::__traits<geode::Hook*, std::__ndk1::basic_string<char, std::__ndk1::char_traits<char>, std::__ndk1::allocator<char> > >, (std::__ndk1::__variant_detail::_Trait)1>::__destroy[abi:ne180000]()::{lambda(auto:1&)#1}, std::__ndk1::__variant_detail::__base<(std::__ndk1::__variant_detail::__traits<geode::Hook*, std::__ndk1::basic_string<char, std::__ndk1::char_traits<char>, std::__ndk1::allocator<char> > >)1, geode::Hook, std::__ndk1::allocator<char> >&>(std::__ndk1::__variant_detail::__dtor<std::__ndk1::__variant_detail::__traits<geode::Hook*, std::__ndk1::basic_string<char, std::__ndk1::char_traits<char>, std::__ndk1::allocator<char> > >, (std::__ndk1::__variant_detail::_Trait)1>, std::__ndk1::__variant_detail::__base<(std::__ndk1::__variant_detail::__traits<geode::Hook*, std::__ndk1::basic_string<char, std::__ndk1::char_traits<char>, std::__ndk1::allocator<char> > >)1, geode::Hook, std::__ndk1::allocator<char> >&)
FUNC 18c42 e 0 std::__ndk1::__variant_detail::__visitation::__base::__dispatcher<(unsigned int)1>::__dispatch[abi:ne180000]<std::__ndk1::__variant_detail::__dtor<std::__ndk1::__variant_detail::__traits<geode::Hook*, std::__ndk1::basic_string<char, std::__ndk1::char_traits<char>, std::__ndk1::allocator<char> > >, (std::__ndk1::__variant_detail::_Trait)1>::__destroy[abi:ne180000]()::{lambda(auto:1&)#1}, std::__ndk1::__variant_detail::__base<(std::__ndk1::__variant_detail::__traits<geode::Hook*, std::__ndk1::basic_string<char, std::__ndk1::char_traits<char>, std::__ndk1::allocator<char> > >)1, geode::Hook, std::__ndk1::allocator<char> >&>(std::__ndk1::__variant_detail::__dtor<std::__ndk1::__variant_detail::__traits<geode::Hook*, std::__ndk1::basic_string<char, std::__ndk1::char_traits<char>, std::__ndk1::allocator<char> > >, (std::__ndk1::__variant_detail::_Trait)1>, std::__ndk1::__variant_detail::__base<(std::__ndk1::__variant_detail::__traits<geode::Hook*, std::__ndk1::basic_string<char, std::__ndk1::char_traits<char>, std::__ndk1::allocator<char> > >)1, geode::Hook, std::__ndk1::allocator<char> >&)
FUNC 18c50 c0 0 std::__ndk1::__tree<std::__ndk1::__value_type<std::__ndk1::basic_string<char, std::__ndk1::char_traits<char>, std::__ndk1::allocator<char> >, std::__ndk1::shared_ptr<geode::Hook> >, std::__ndk1::__map_value_compare<std::__ndk1::basic_string<char, std::__ndk1::char_traits<char>, std::__ndk1::allocator<char> >, std::__ndk1::__value_type<std::__ndk1::basic_string<char, std::__ndk1::char_traits<char>, std::__ndk1::allocator<char> >, std::__ndk1::shared_ptr<geode::Hook> >, std::__ndk1::less<std::__ndk1::basic_string<char, std::__ndk1::char_traits<char>, std::__ndk1::allocator<char> > >, true>, std::__ndk1::allocator<std::__ndk1::__value_type<std::__ndk1::basic_string<char, std::__ndk1::char_traits<char>, std::__ndk1::allocator<char> >, std::__ndk1::shared_ptr<geode::Hook> > > >::find<std::__ndk1::basic_string<char, std::__ndk1::char_traits<char>, std::__ndk1::allocator<char> > >(std::__ndk1::basic_string<char, std::__ndk1::char_traits<char>, std::__ndk1::allocator<char> > const&)
FUNC 18d10 82 0 std::__ndk1::__tree<std::__ndk1::__value_type<std::__ndk1::basic_string<char, std::__ndk1::char_traits<char>, std::__ndk1::allocator<char> >, std::__ndk1::shared_ptr<geode::Hook> >, std::__ndk1::__map_value_compare<std::__ndk1::basic_string<char, std::__ndk1::char_traits<char>, std::__ndk1::allocator<char> >, std::__ndk1::__value_type<std::__ndk1::basic_string<char, std::__ndk1::char_traits<char>, std::__ndk1::allocator<char> >, std::__ndk1::shared_ptr<geode::Hook> >, std::__ndk1::less<std::__ndk1::basic_string<char, std::__ndk1::char_traits<char>, std::__ndk1::allocator<char> > >, true>, std::__ndk1::allocator<std::__ndk1::__value_type<std::__ndk1::basic_string<char, std::__ndk1::char_traits<char>, std::__ndk1::allocator<char> >, std::__ndk1::shared_ptr<geode::Hook> > > >::erase(std::__ndk1::__tree_const_iterator<std::__ndk1::__value_type<std::__ndk1::basic_string<char, std::__ndk1::char_traits<char>, std::__ndk1::allocator<char> >, std::__ndk1::shared_ptr<geode::Hook> >, std::__ndk1::__tree_node<std::__ndk1::__value_type<std::__ndk1::basic_string<char, std::__ndk1::char_traits<char>, std::__ndk1::allocator<char> >, std::__ndk1::shared_ptr<geode::Hook> >, void*>*, int>)
FUNC 18d92 274 0 std::__ndk1::__tree_remove[abi:ne180000]<std::__ndk1::__tree_node_base<void*>*>(std::__ndk1::__tree_node_base<void*>*, std::__ndk1::__tree_node_base<void*>*)
FUNC 19006 5e 0 std::__ndk1::__tree<std::__ndk1::__value_type<std::__ndk1::basic_string<char, std::__ndk1::char_traits<char>, std::__ndk1::allocator<char> >, std::__ndk1::shared_ptr<geode::Hook> >, std::__ndk1::__map_value_compare<std::__ndk1::basic_string<char, std::__ndk1::char_traits<char>, std::__ndk1::allocator<char> >, std::__ndk1::__value_type<std::__ndk1::basic_string<char, std::__ndk1::char_traits<char>, std::__ndk1::allocator<char> >, std::__ndk1::shared_ptr<geode::Hook> >, std::__ndk1::less<std::__ndk1::basic_string<char, std::__ndk1::char_traits<char>, std::__ndk1::allocator<char> > >, true>, std::__ndk1::allocator<std::__ndk1::__value_type<std::__ndk1::basic_string<char, std::__ndk1::char_traits<char>, std::__ndk1::allocator<char> >, std::__ndk1::shared_ptr<geode::Hook> > > >::destroy(std::__ndk1::__tree_node<std::__ndk1::__value_type<std::__ndk1::basic_string<char, std::__ndk1::char_traits<char>, std::__ndk1::allocator<char> >, std::__ndk1::shared_ptr<geode::Hook> >, void*>*)
FUNC 19064 144 0 geode::modifier::AsStaticFunction_onChallenge<hook6<(anonymous namespace)::hook6Parent>, void (hook6<(anonymous namespace)::hook6Parent>::*)(cocos2d::CCObject*)>::Impl<void (hook6<(anonymous namespace)::hook6Parent>::*)(cocos2d::CCObject*)>::function(hook6<(anonymous namespace)::hook6Parent>*, cocos2d::CCObject*)
FUNC 191a8 3a 0 std::__ndk1::shared_ptr<tulip::hook::CallingConvention>::~shared_ptr[abi:ne180000]()
FUNC 191e2 46 0 tulip::hook::HandlerMetadata::~HandlerMetadata()
FUNC 19228 e0 0 cocos2d::CCNode::getChildByType<MenuLayer>(int)
FUNC 19308 8c 0 geode::cast::traverseTypeinfoFor(void*, geode::cast::ClassTypeinfoType const*, char const*)
FUNC 19394 10 0 std::__ndk1::vector<ChallengesPage*, std::__ndk1::allocator<ChallengesPage*> >::__throw_length_error[abi:ne180000]() const
FUNC 193a4 ba 0 std::__ndk1::__tree<std::__ndk1::__value_type<std::__ndk1::basic_string<char, std::__ndk1::char_traits<char>, std::__ndk1::allocator<char> >, std::__ndk1::shared_ptr<geode::Hook> >, std::__ndk1::__map_value_compare<std::__ndk1::basic_string<char, std::__ndk1::char_traits<char>, std::__ndk1::allocator<char> >, std::__ndk1::__value_type<std::__ndk1::basic_string<char, std::__ndk1::char_traits<char>, std::__ndk1::allocator<char> >, std::__ndk1::shared_ptr<geode::Hook> >, std::__ndk1::less<std::__ndk1::basic_string<char, std::__ndk1::char_traits<char>, std::__ndk1::allocator<char> > >, true>, std::__ndk1::allocator<std::__ndk1::__value_type<std::__ndk1::basic_string<char, std::__ndk1::char_traits<char>, std::__ndk1::allocator<char> >, std::__ndk1::shared_ptr<geode::Hook> > > >::__find_equal<std::__ndk1::basic_string<char, std::__ndk1::char_traits<char>, std::__ndk1::allocator<char> > >(std::__ndk1::__tree_end_node<std::__ndk1::__tree_node_base<void*>*>*&, std::__ndk1::basic_string<char, std::__ndk1::char_traits<char>, std::__ndk1::allocator<char> > const&)
FUNC 1945e 14a 0 std::__ndk1::__tree_balance_after_insert[abi:ne180000]<std::__ndk1::__tree_node_base<void*>*>(std::__ndk1::__tree_node_base<void*>*, std::__ndk1::__tree_node_base<void*>*)
FUNC 195a8 2f4 0 __cxx_global_var_init
FUNC 1989c 20 0 geode::modifier::ModifyBase<geode::modifier::ModifyDerive<MyGLM, GameLevelManager> >::~ModifyBase()
FUNC 198c0 c44 0 geode::modifier::ModifyDerive<MyGLM, GameLevelManager>::apply()
FUNC 1a504 2 0 geode::modifier::ModifyBase<geode::modifier::ModifyDerive<MyGLM, GameLevelManager> >::apply()
FUNC 1a508 18 0 geode::modifier::AsStaticFunction_getGJChallenges<MyGLM, void (MyGLM::*)()>::Impl<void (MyGLM::*)()>::function(MyGLM*)
FUNC 1a520 138 0 geode::Hook::create<void (*)(MyGLM*, gd::string, gd::string)>(void*, void (*)(MyGLM*, gd::string, gd::string), std::__ndk1::basic_string<char, std::__ndk1::char_traits<char>, std::__ndk1::allocator<char> > const&, tulip::hook::TulipConvention, tulip::hook::HookMetadata const&)
FUNC 1a658 d8 0 geode::modifier::AsStaticFunction_onGetGJChallengesCompleted<MyGLM, void (MyGLM::*)(gd::string, gd::string)>::Impl<void (MyGLM::*)(gd::string, gd::string)>::function(MyGLM*, gd::string, gd::string)
FUNC 1a730 50c 0 geode::modifier::AsStaticFunction_onGetGJDailyLevelStateCompleted<MyGLM, void (MyGLM::*)(gd::string, gd::string)>::Impl<void (MyGLM::*)(gd::string, gd::string)>::function(MyGLM*, gd::string, gd::string)
FUNC 1ac3c 694 0 geode::modifier::AsStaticFunction_onGetLeaderboardScoresCompleted<MyGLM, void (MyGLM::*)(gd::string, gd::string)>::Impl<void (MyGLM::*)(gd::string, gd::string)>::function(MyGLM*, gd::string, gd::string)
FUNC 1b2d0 2ec 0 geode::modifier::AsStaticFunction_processOnDownloadLevelCompleted<MyGLM, void (MyGLM::*)(gd::string, gd::string, bool)>::Impl<void (MyGLM::*)(gd::string, gd::string, bool)>::function(MyGLM*, gd::string, gd::string, bool)
FUNC 1b5bc 10 0 std::__ndk1::vector<tulip::hook::AbstractType, std::__ndk1::allocator<tulip::hook::AbstractType> >::__throw_length_error[abi:ne180000]() const
FUNC 1b5cc 3c 0 MyGLM::updateDailyTimer()
FUNC 1b608 38 0 MyGLM::updateWeeklyTimer()
FUNC 1b640 78 0 MyGLM::updateEventTimer()
FUNC 1b6b8 24 0 geode::cast::typeinfo_cast<RDEventNode*, cocos2d::CCNode*>(cocos2d::CCNode*)
FUNC 1b6dc f8 0 geode::Mod::getSettingValue<bool>(std::__ndk1::basic_string_view<char, std::__ndk1::char_traits<char> >) const
FUNC 1b7d4 70 0 geode::log::error<char const (&) [11]>(fmt::v11::basic_format_string<char, fmt::v11::type_identity<decltype ((wrapCocosObj<char const (&) [11]>)((std::declval<char const (&) [11]>)()))>::type>, char const (&) [11])
FUNC 1b844 70 0 geode::log::error<char const (&) [12]>(fmt::v11::basic_format_string<char, fmt::v11::type_identity<decltype ((wrapCocosObj<char const (&) [12]>)((std::declval<char const (&) [12]>)()))>::type>, char const (&) [12])
FUNC 1b8b4 2d0 0 __cxx_global_var_init
FUNC 1bb84 20 0 geode::modifier::ModifyBase<geode::modifier::ModifyDerive<hook10<(anonymous namespace)::hook10Parent>, LoadingLayer> >::~ModifyBase()
FUNC 1bba4 2d0 0 geode::modifier::ModifyDerive<hook10<(anonymous namespace)::hook10Parent>, LoadingLayer>::apply()
FUNC 1be74 2 0 geode::modifier::ModifyBase<geode::modifier::ModifyDerive<hook10<(anonymous namespace)::hook10Parent>, LoadingLayer> >::apply()
FUNC 1be78 1b0 0 geode::modifier::AsStaticFunction_loadAssets<hook10<(anonymous namespace)::hook10Parent>, void (hook10<(anonymous namespace)::hook10Parent>::*)()>::Impl<void (hook10<(anonymous namespace)::hook10Parent>::*)()>::function(hook10<(anonymous namespace)::hook10Parent>*)
FUNC 1c028 1e 0 std::__ndk1::vector<int, std::__ndk1::allocator<int> >::~vector[abi:ne180000]()
FUNC 1c048 2d0 0 __cxx_global_var_init.1
FUNC 1c318 4c 0 _GLOBAL__sub_I_PlayLayer.cpp
FUNC 1c364 20 0 geode::modifier::ModifyBase<geode::modifier::ModifyDerive<hook7<(anonymous namespace)::hook7Parent>, PlayLayer> >::~ModifyBase()
FUNC 1c390 350 0 geode::modifier::ModifyDerive<hook7<(anonymous namespace)::hook7Parent>, PlayLayer>::apply()
FUNC 1c6e0 2 0 geode::modifier::ModifyBase<geode::modifier::ModifyDerive<hook7<(anonymous namespace)::hook7Parent>, PlayLayer> >::apply()
FUNC 1c6e4 190 0 geode::modifier::AsStaticFunction_init<hook7<(anonymous namespace)::hook7Parent>, bool (hook7<(anonymous namespace)::hook7Parent>::*)(GJGameLevel*, bool, bool)>::Impl<bool (hook7<(anonymous namespace)::hook7Parent>::*)(GJGameLevel*, bool, bool)>::function(hook7<(anonymous namespace)::hook7Parent>*, GJGameLevel*, bool, bool)
FUNC 1c874 60 0 geode::impl::ResultData<matjson::Value&, std::__ndk1::basic_string<char, std::__ndk1::char_traits<char>, std::__ndk1::allocator<char> > >::~ResultData()
FUNC 1c8d4 c8 0 matjson::Value::as<long long>() const
FUNC 1c99c 2 0 std::__ndk1::__variant_detail::__visitation::__base::__dispatcher<(unsigned int)0>::__dispatch[abi:ne180000]<std::__ndk1::__variant_detail::__dtor<std::__ndk1::__variant_detail::__traits<std::__ndk1::reference_wrapper<matjson::Value>, std::__ndk1::basic_string<char, std::__ndk1::char_traits<char>, std::__ndk1::allocator<char> > >, (std::__ndk1::__variant_detail::_Trait)1>::__destroy[abi:ne180000]()::{lambda(auto:1&)#1}, std::__ndk1::__variant_detail::__base<(std::__ndk1::__variant_detail::__traits<std::__ndk1::reference_wrapper<matjson::Value>, std::__ndk1::basic_string<char, std::__ndk1::char_traits<char>, std::__ndk1::allocator<char> > >)1, matjson::Value, std::__ndk1::allocator<char> >&>(std::__ndk1::__variant_detail::__dtor<std::__ndk1::__variant_detail::__traits<std::__ndk1::reference_wrapper<matjson::Value>, std::__ndk1::basic_string<char, std::__ndk1::char_traits<char>, std::__ndk1::allocator<char> > >, (std::__ndk1::__variant_detail::_Trait)1>, std::__ndk1::__variant_detail::__base<(std::__ndk1::__variant_detail::__traits<std::__ndk1::reference_wrapper<matjson::Value>, std::__ndk1::basic_string<char, std::__ndk1::char_traits<char>, std::__ndk1::allocator<char> > >)1, matjson::Value, std::__ndk1::allocator<char> >&)
FUNC 1c99e e 0 std::__ndk1::__variant_detail::__visitation::__base::__dispatcher<(unsigned int)1>::__dispatch[abi:ne180000]<std::__ndk1::__variant_detail::__dtor<std::__ndk1::__variant_detail::__traits<std::__ndk1::reference_wrapper<matjson::Value>, std::__ndk1::basic_string<char, std::__ndk1::char_traits<char>, std::__ndk1::allocator<char> > >, (std::__ndk1::__variant_detail::_Trait)1>::__destroy[abi:ne180000]()::{lambda(auto:1&)#1}, std::__ndk1::__variant_detail::__base<(std::__ndk1::__variant_detail::__traits<std::__ndk1::reference_wrapper<matjson::Value>, std::__ndk1::basic_string<char, std::__ndk1::char_traits<char>, std::__ndk1::allocator<char> > >)1, matjson::Value, std::__ndk1::allocator<char> >&>(std::__ndk1::__variant_detail::__dtor<std::__ndk1::__variant_detail::__traits<std::__ndk1::reference_wrapper<matjson::Value>, std::__ndk1::basic_string<char, std::__ndk1::char_traits<char>, std::__ndk1::allocator<char> > >, (std::__ndk1::__variant_detail::_Trait)1>, std::__ndk1::__variant_detail::__base<(std::__ndk1::__variant_detail::__traits<std::__ndk1::reference_wrapper<matjson::Value>, std::__ndk1::basic_string<char, std::__ndk1::char_traits<char>, std::__ndk1::allocator<char> > >)1, matjson::Value, std::__ndk1::allocator<char> >&)
FUNC 1c9ac 2 0 std::__ndk1::__variant_detail::__visitation::__base::__dispatcher<(unsigned int)0>::__dispatch[abi:ne180000]<std::__ndk1::__variant_detail::__dtor<std::__ndk1::__variant_detail::__traits<long long, std::__ndk1::basic_string<char, std::__ndk1::char_traits<char>, std::__ndk1::allocator<char> > >, (std::__ndk1::__variant_detail::_Trait)1>::__destroy[abi:ne180000]()::{lambda(auto:1&)#1}, std::__ndk1::__variant_detail::__base<(std::__ndk1::__variant_detail::__traits<long long, std::__ndk1::basic_string<char, std::__ndk1::char_traits<char>, std::__ndk1::allocator<char> > >)1, long long, std::__ndk1::allocator<char> >&>(std::__ndk1::__variant_detail::__dtor<std::__ndk1::__variant_detail::__traits<long long, std::__ndk1::basic_string<char, std::__ndk1::char_traits<char>, std::__ndk1::allocator<char> > >, (std::__ndk1::__variant_detail::_Trait)1>, std::__ndk1::__variant_detail::__base<(std::__ndk1::__variant_detail::__traits<long long, std::__ndk1::basic_string<char, std::__ndk1::char_traits<char>, std::__ndk1::allocator<char> > >)1, long long, std::__ndk1::allocator<char> >&)
FUNC 1c9ae e 0 std::__ndk1::__variant_detail::__visitation::__base::__dispatcher<(unsigned int)1>::__dispatch[abi:ne180000]<std::__ndk1::__variant_detail::__dtor<std::__ndk1::__variant_detail::__traits<long long, std::__ndk1::basic_string<char, std::__ndk1::char_traits<char>, std::__ndk1::allocator<char> > >, (std::__ndk1::__variant_detail::_Trait)1>::__destroy[abi:ne180000]()::{lambda(auto:1&)#1}, std::__ndk1::__variant_detail::__base<(std::__ndk1::__variant_detail::__traits<long long, std::__ndk1::basic_string<char, std::__ndk1::char_traits<char>, std::__ndk1::allocator<char> > >)1, long long, std::__ndk1::allocator<char> >&>(std::__ndk1::__variant_detail::__dtor<std::__ndk1::__variant_detail::__traits<long long, std::__ndk1::basic_string<char, std::__ndk1::char_traits<char>, std::__ndk1::allocator<char> > >, (std::__ndk1::__variant_detail::_Trait)1>, std::__ndk1::__variant_detail::__base<(std::__ndk1::__variant_detail::__traits<long long, std::__ndk1::basic_string<char, std::__ndk1::char_traits<char>, std::__ndk1::allocator<char> > >)1, long long, std::__ndk1::allocator<char> >&)
FUNC 1c9bc 2d0 0 __cxx_global_var_init
FUNC 1cc8c 2d0 0 __cxx_global_var_init.1
FUNC 1cf5c 2d0 0 __cxx_global_var_init.2
FUNC 1d22c 20 0 geode::modifier::ModifyBase<geode::modifier::ModifyDerive<hook5<(anonymous namespace)::hook5Parent>, GauntletSelectLayer> >::~ModifyBase()
FUNC 1d24c 20 0 geode::modifier::ModifyBase<geode::modifier::ModifyDerive<hook13<(anonymous namespace)::hook13Parent>, SecretRewardsLayer> >::~ModifyBase()
FUNC 1d26c 20 0 geode::modifier::ModifyBase<geode::modifier::ModifyDerive<hook29<(anonymous namespace)::hook29Parent>, SecretLayer2> >::~ModifyBase()
FUNC 1d290 320 0 geode::modifier::ModifyDerive<hook5<(anonymous namespace)::hook5Parent>, GauntletSelectLayer>::apply()
FUNC 1d5b0 2 0 geode::modifier::ModifyBase<geode::modifier::ModifyDerive<hook5<(anonymous namespace)::hook5Parent>, GauntletSelectLayer> >::apply()
FUNC 1d5b2 28 0 geode::modifier::AsStaticFunction_onBack<hook5<(anonymous namespace)::hook5Parent>, void (hook5<(anonymous namespace)::hook5Parent>::*)(cocos2d::CCObject*)>::Impl<void (hook5<(anonymous namespace)::hook5Parent>::*)(cocos2d::CCObject*)>::function(hook5<(anonymous namespace)::hook5Parent>*, cocos2d::CCObject*)
FUNC 1d5e0 320 0 geode::modifier::ModifyDerive<hook13<(anonymous namespace)::hook13Parent>, SecretRewardsLayer>::apply()
FUNC 1d900 2 0 geode::modifier::ModifyBase<geode::modifier::ModifyDerive<hook13<(anonymous namespace)::hook13Parent>, SecretRewardsLayer> >::apply()
FUNC 1d902 28 0 geode::modifier::AsStaticFunction_onBack<hook13<(anonymous namespace)::hook13Parent>, void (hook13<(anonymous namespace)::hook13Parent>::*)(cocos2d::CCObject*)>::Impl<void (hook13<(anonymous namespace)::hook13Parent>::*)(cocos2d::CCObject*)>::function(hook13<(anonymous namespace)::hook13Parent>*, cocos2d::CCObject*)
FUNC 1d930 310 0 geode::modifier::ModifyDerive<hook29<(anonymous namespace)::hook29Parent>, SecretLayer2>::apply()
FUNC 1dc40 2 0 geode::modifier::ModifyBase<geode::modifier::ModifyDerive<hook29<(anonymous namespace)::hook29Parent>, SecretLayer2> >::apply()
FUNC 1dc42 28 0 geode::modifier::AsStaticFunction_onBack<hook29<(anonymous namespace)::hook29Parent>, void (hook29<(anonymous namespace)::hook29Parent>::*)(cocos2d::CCObject*)>::Impl<void (hook29<(anonymous namespace)::hook29Parent>::*)(cocos2d::CCObject*)>::function(hook29<(anonymous namespace)::hook29Parent>*, cocos2d::CCObject*)
FUNC 1dc6c d4 0 abbreviateNumber(int)
FUNC 1dd40 714 0 __cxx_global_var_init
FUNC 1e454 20 0 geode::modifier::ModifyBase<geode::modifier::ModifyDerive<CrazyLayer, MenuLayer> >::~ModifyBase()
FUNC 1e474 2f4 0 __cxx_global_var_init.15
FUNC 1e768 20 0 geode::modifier::ModifyBase<geode::modifier::ModifyDerive<test, ChallengesPage> >::~ModifyBase()
FUNC 1e788 2c8 0 geode::modifier::ModifyDerive<CrazyLayer, MenuLayer>::apply()
FUNC 1ea50 2 0 geode::modifier::ModifyBase<geode::modifier::ModifyDerive<CrazyLayer, MenuLayer> >::apply()
FUNC 1ea54 164 0 geode::modifier::ModifyBase<geode::modifier::ModifyDerive<CrazyLayer, MenuLayer> >::getHook(std::__ndk1::basic_string_view<char, std::__ndk1::char_traits<char> >)
FUNC 1ebb8 a8 0 geode::modifier::ModifyBase<geode::modifier::ModifyDerive<CrazyLayer, MenuLayer> >::setHookPriorityAfter(std::__ndk1::basic_string_view<char, std::__ndk1::char_traits<char> >, geode::Mod*)::{lambda(geode::ModStateEvent*)#1}::operator()(geode::ModStateEvent*) const
FUNC 1ec60 5c 0 std::__ndk1::unique_ptr<std::__ndk1::__tree_node<std::__ndk1::__value_type<std::__ndk1::basic_string<char, std::__ndk1::char_traits<char>, std::__ndk1::allocator<char> >, std::__ndk1::shared_ptr<geode::Hook> >, void*>, std::__ndk1::__tree_node_destructor<std::__ndk1::allocator<std::__ndk1::__tree_node<std::__ndk1::__value_type<std::__ndk1::basic_string<char, std::__ndk1::char_traits<char>, std::__ndk1::allocator<char> >, std::__ndk1::shared_ptr<geode::Hook> >, void*> > > >::~unique_ptr[abi:ne180000]()
FUNC 1ecbc 104 0 _ZN5geode15UnwrapExceptionC2IRNSt6__ndk112basic_stringIcNS2_11char_traitsIcEENS2_9allocatorIcEEEEQsr4implE18IsStringStreamableIT_EEENS_4impl6ErrTagEOSA_
FUNC 1edc0 4 0 std::__ndk1::__function::__func<geode::modifier::ModifyBase<geode::modifier::ModifyDerive<CrazyLayer, MenuLayer> >::setHookPriorityAfter(std::__ndk1::basic_string_view<char, std::__ndk1::char_traits<char> >, geode::Mod*)::{lambda(geode::ModStateEvent*)#1}, std::__ndk1::allocator<geode::modifier::ModifyBase<geode::modifier::ModifyDerive<CrazyLayer, MenuLayer> >::setHookPriorityAfter(std::__ndk1::basic_string_view<char, std::__ndk1::char_traits<char> >, geode::Mod*)::{lambda(geode::ModStateEvent*)#1}>, void (geode::ModStateEvent*)>::~__func()
FUNC 1edc4 20 0 std::__ndk1::__function::__func<geode::modifier::ModifyBase<geode::modifier::ModifyDerive<CrazyLayer, MenuLayer> >::setHookPriorityAfter(std::__ndk1::basic_string_view<char, std::__ndk1::char_traits<char> >, geode::Mod*)::{lambda(geode::ModStateEvent*)#1}, std::__ndk1::allocator<geode::modifier::ModifyBase<geode::modifier::ModifyDerive<CrazyLayer, MenuLayer> >::setHookPriorityAfter(std::__ndk1::basic_string_view<char, std::__ndk1::char_traits<char> >, geode::Mod*)::{lambda(geode::ModStateEvent*)#1}>, void (geode::ModStateEvent*)>::__clone() const
FUNC 1ede4 18 0 std::__ndk1::__function::__func<geode::modifier::ModifyBase<geode::modifier::ModifyDerive<CrazyLayer, MenuLayer> >::setHookPriorityAfter(std::__ndk1::basic_string_view<char, std::__ndk1::char_traits<char> >, geode::Mod*)::{lambda(geode::ModStateEvent*)#1}, std::__ndk1::allocator<geode::modifier::ModifyBase<geode::modifier::ModifyDerive<CrazyLayer, MenuLayer> >::setHookPriorityAfter(std::__ndk1::basic_string_view<char, std::__ndk1::char_traits<char> >, geode::Mod*)::{lambda(geode::ModStateEvent*)#1}>, void (geode::ModStateEvent*)>::__clone(std::__ndk1::__function::__base<void (geode::ModStateEvent*)>*) const
FUNC 1edfc 2 0 std::__ndk1::__function::__func<geode::modifier::ModifyBase<geode::modifier::ModifyDerive<CrazyLayer, MenuLayer> >::setHookPriorityAfter(std::__ndk1::basic_string_view<char, std::__ndk1::char_traits<char> >, geode::Mod*)::{lambda(geode::ModStateEvent*)#1}, std::__ndk1::allocator<geode::modifier::ModifyBase<geode::modifier::ModifyDerive<CrazyLayer, MenuLayer> >::setHookPriorityAfter(std::__ndk1::basic_string_view<char, std::__ndk1::char_traits<char> >, geode::Mod*)::{lambda(geode::ModStateEvent*)#1}>, void (geode::ModStateEvent*)>::destroy()
FUNC 1edfe 4 0 std::__ndk1::__function::__func<geode::modifier::ModifyBase<geode::modifier::ModifyDerive<CrazyLayer, MenuLayer> >::setHookPriorityAfter(std::__ndk1::basic_string_view<char, std::__ndk1::char_traits<char> >, geode::Mod*)::{lambda(geode::ModStateEvent*)#1}, std::__ndk1::allocator<geode::modifier::ModifyBase<geode::modifier::ModifyDerive<CrazyLayer, MenuLayer> >::setHookPriorityAfter(std::__ndk1::basic_string_view<char, std::__ndk1::char_traits<char> >, geode::Mod*)::{lambda(geode::ModStateEvent*)#1}>, void (geode::ModStateEvent*)>::destroy_deallocate()
FUNC 1ee02 6 0 std::__ndk1::__function::__func<geode::modifier::ModifyBase<geode::modifier::ModifyDerive<CrazyLayer, MenuLayer> >::setHookPriorityAfter(std::__ndk1::basic_string_view<char, std::__ndk1::char_traits<char> >, geode::Mod*)::{lambda(geode::ModStateEvent*)#1}, std::__ndk1::allocator<geode::modifier::ModifyBase<geode::modifier::ModifyDerive<CrazyLayer, MenuLayer> >::setHookPriorityAfter(std::__ndk1::basic_string_view<char, std::__ndk1::char_traits<char> >, geode::Mod*)::{lambda(geode::ModStateEvent*)#1}>, void (geode::ModStateEvent*)>::operator()(geode::ModStateEvent*&&)
FUNC 1ee08 18 0 std::__ndk1::__function::__func<geode::modifier::ModifyBase<geode::modifier::ModifyDerive<CrazyLayer, MenuLayer> >::setHookPriorityAfter(std::__ndk1::basic_string_view<char, std::__ndk1::char_traits<char> >, geode::Mod*)::{lambda(geode::ModStateEvent*)#1}, std::__ndk1::allocator<geode::modifier::ModifyBase<geode::modifier::ModifyDerive<CrazyLayer, MenuLayer> >::setHookPriorityAfter(std::__ndk1::basic_string_view<char, std::__ndk1::char_traits<char> >, geode::Mod*)::{lambda(geode::ModStateEvent*)#1}>, void (geode::ModStateEvent*)>::target(std::type_info const&) const
FUNC 1ee20 c 0 std::__ndk1::__function::__func<geode::modifier::ModifyBase<geode::modifier::ModifyDerive<CrazyLayer, MenuLayer> >::setHookPriorityAfter(std::__ndk1::basic_string_view<char, std::__ndk1::char_traits<char> >, geode::Mod*)::{lambda(geode::ModStateEvent*)#1}, std::__ndk1::allocator<geode::modifier::ModifyBase<geode::modifier::ModifyDerive<CrazyLayer, MenuLayer> >::setHookPriorityAfter(std::__ndk1::basic_string_view<char, std::__ndk1::char_traits<char> >, geode::Mod*)::{lambda(geode::ModStateEvent*)#1}>, void (geode::ModStateEvent*)>::target_type() const
FUNC 1ee2c 4 0 geode::EventListener<geode::ModStateFilter>::getPool() const
FUNC 1ee30 e4 0 geode::EventListener<geode::ModStateFilter>::handle(geode::Event*)
FUNC 1ef14 38 0 geode::EventListener<geode::ModStateFilter>::~EventListener()
FUNC 1ef4c 3c 0 geode::EventListener<geode::ModStateFilter>::~EventListener()
FUNC 1ef88 2 0 std::__ndk1::__variant_detail::__visitation::__base::__dispatcher<(unsigned int)0>::__dispatch[abi:ne180000]<std::__ndk1::__variant_detail::__dtor<std::__ndk1::__variant_detail::__traits<std::__ndk1::monostate, std::__ndk1::basic_string<char, std::__ndk1::char_traits<char>, std::__ndk1::allocator<char> > >, (std::__ndk1::__variant_detail::_Trait)1>::__destroy[abi:ne180000]()::{lambda(auto:1&)#1}, std::__ndk1::__variant_detail::__base<(std::__ndk1::__variant_detail::__traits<std::__ndk1::monostate, std::__ndk1::basic_string<char, std::__ndk1::char_traits<char>, std::__ndk1::allocator<char> > >)1, std::__ndk1::__variant_detail::__traits, std::__ndk1::allocator<char> >&>(std::__ndk1::__variant_detail::__dtor<std::__ndk1::__variant_detail::__traits<std::__ndk1::monostate, std::__ndk1::basic_string<char, std::__ndk1::char_traits<char>, std::__ndk1::allocator<char> > >, (std::__ndk1::__variant_detail::_Trait)1>, std::__ndk1::__variant_detail::__base<(std::__ndk1::__variant_detail::__traits<std::__ndk1::monostate, std::__ndk1::basic_string<char, std::__ndk1::char_traits<char>, std::__ndk1::allocator<char> > >)1, std::__ndk1::__variant_detail::__traits, std::__ndk1::allocator<char> >&)
FUNC 1ef8a e 0 std::__ndk1::__variant_detail::__visitation::__base::__dispatcher<(unsigned int)1>::__dispatch[abi:ne180000]<std::__ndk1::__variant_detail::__dtor<std::__ndk1::__variant_detail::__traits<std::__ndk1::monostate, std::__ndk1::basic_string<char, std::__ndk1::char_traits<char>, std::__ndk1::allocator<char> > >, (std::__ndk1::__variant_detail::_Trait)1>::__destroy[abi:ne180000]()::{lambda(auto:1&)#1}, std::__ndk1::__variant_detail::__base<(std::__ndk1::__variant_detail::__traits<std::__ndk1::monostate, std::__ndk1::basic_string<char, std::__ndk1::char_traits<char>, std::__ndk1::allocator<char> > >)1, std::__ndk1::__variant_detail::__traits, std::__ndk1::allocator<char> >&>(std::__ndk1::__variant_detail::__dtor<std::__ndk1::__variant_detail::__traits<std::__ndk1::monostate, std::__ndk1::basic_string<char, std::__ndk1::char_traits<char>, std::__ndk1::allocator<char> > >, (std::__ndk1::__variant_detail::_Trait)1>, std::__ndk1::__variant_detail::__base<(std::__ndk1::__variant_detail::__traits<std::__ndk1::monostate, std::__ndk1::basic_string<char, std::__ndk1::char_traits<char>, std::__ndk1::allocator<char> > >)1, std::__ndk1::__variant_detail::__traits, std::__ndk1::allocator<char> >&)
FUNC 1ef98 a8 0 geode::modifier::ModifyBase<geode::modifier::ModifyDerive<CrazyLayer, MenuLayer> >::setHookPriorityBefore(std::__ndk1::basic_string_view<char, std::__ndk1::char_traits<char> >, geode::Mod*)::{lambda(geode::ModStateEvent*)#1}::operator()(geode::ModStateEvent*) const
FUNC 1f040 2 0 std::__ndk1::__function::__base<void (geode::ModStateEvent*)>::~__base()
FUNC 1f042 4 0 std::__ndk1::__function::__func<geode::modifier::ModifyBase<geode::modifier::ModifyDerive<CrazyLayer, MenuLayer> >::setHookPriorityBefore(std::__ndk1::basic_string_view<char, std::__ndk1::char_traits<char> >, geode::Mod*)::{lambda(geode::ModStateEvent*)#1}, std::__ndk1::allocator<geode::modifier::ModifyBase<geode::modifier::ModifyDerive<CrazyLayer, MenuLayer> >::setHookPriorityBefore(std::__ndk1::basic_string_view<char, std::__ndk1::char_traits<char> >, geode::Mod*)::{lambda(geode::ModStateEvent*)#1}>, void (geode::ModStateEvent*)>::~__func()
FUNC 1f048 20 0 std::__ndk1::__function::__func<geode::modifier::ModifyBase<geode::modifier::ModifyDerive<CrazyLayer, MenuLayer> >::setHookPriorityBefore(std::__ndk1::basic_string_view<char, std::__ndk1::char_traits<char> >, geode::Mod*)::{lambda(geode::ModStateEvent*)#1}, std::__ndk1::allocator<geode::modifier::ModifyBase<geode::modifier::ModifyDerive<CrazyLayer, MenuLayer> >::setHookPriorityBefore(std::__ndk1::basic_string_view<char, std::__ndk1::char_traits<char> >, geode::Mod*)::{lambda(geode::ModStateEvent*)#1}>, void (geode::ModStateEvent*)>::__clone() const
FUNC 1f068 18 0 std::__ndk1::__function::__func<geode::modifier::ModifyBase<geode::modifier::ModifyDerive<CrazyLayer, MenuLayer> >::setHookPriorityBefore(std::__ndk1::basic_string_view<char, std::__ndk1::char_traits<char> >, geode::Mod*)::{lambda(geode::ModStateEvent*)#1}, std::__ndk1::allocator<geode::modifier::ModifyBase<geode::modifier::ModifyDerive<CrazyLayer, MenuLayer> >::setHookPriorityBefore(std::__ndk1::basic_string_view<char, std::__ndk1::char_traits<char> >, geode::Mod*)::{lambda(geode::ModStateEvent*)#1}>, void (geode::ModStateEvent*)>::__clone(std::__ndk1::__function::__base<void (geode::ModStateEvent*)>*) const
FUNC 1f080 2 0 std::__ndk1::__function::__func<geode::modifier::ModifyBase<geode::modifier::ModifyDerive<CrazyLayer, MenuLayer> >::setHookPriorityBefore(std::__ndk1::basic_string_view<char, std::__ndk1::char_traits<char> >, geode::Mod*)::{lambda(geode::ModStateEvent*)#1}, std::__ndk1::allocator<geode::modifier::ModifyBase<geode::modifier::ModifyDerive<CrazyLayer, MenuLayer> >::setHookPriorityBefore(std::__ndk1::basic_string_view<char, std::__ndk1::char_traits<char> >, geode::Mod*)::{lambda(geode::ModStateEvent*)#1}>, void (geode::ModStateEvent*)>::destroy()
FUNC 1f082 4 0 std::__ndk1::__function::__func<geode::modifier::ModifyBase<geode::modifier::ModifyDerive<CrazyLayer, MenuLayer> >::setHookPriorityBefore(std::__ndk1::basic_string_view<char, std::__ndk1::char_traits<char> >, geode::Mod*)::{lambda(geode::ModStateEvent*)#1}, std::__ndk1::allocator<geode::modifier::ModifyBase<geode::modifier::ModifyDerive<CrazyLayer, MenuLayer> >::setHookPriorityBefore(std::__ndk1::basic_string_view<char, std::__ndk1::char_traits<char> >, geode::Mod*)::{lambda(geode::ModStateEvent*)#1}>, void (geode::ModStateEvent*)>::destroy_deallocate()
FUNC 1f086 6 0 std::__ndk1::__function::__func<geode::modifier::ModifyBase<geode::modifier::ModifyDerive<CrazyLayer, MenuLayer> >::setHookPriorityBefore(std::__ndk1::basic_string_view<char, std::__ndk1::char_traits<char> >, geode::Mod*)::{lambda(geode::ModStateEvent*)#1}, std::__ndk1::allocator<geode::modifier::ModifyBase<geode::modifier::ModifyDerive<CrazyLayer, MenuLayer> >::setHookPriorityBefore(std::__ndk1::basic_string_view<char, std::__ndk1::char_traits<char> >, geode::Mod*)::{lambda(geode::ModStateEvent*)#1}>, void (geode::ModStateEvent*)>::operator()(geode::ModStateEvent*&&)
FUNC 1f08c 18 0 std::__ndk1::__function::__func<geode::modifier::ModifyBase<geode::modifier::ModifyDerive<CrazyLayer, MenuLayer> >::setHookPriorityBefore(std::__ndk1::basic_string_view<char, std::__ndk1::char_traits<char> >, geode::Mod*)::{lambda(geode::ModStateEvent*)#1}, std::__ndk1::allocator<geode::modifier::ModifyBase<geode::modifier::ModifyDerive<CrazyLayer, MenuLayer> >::setHookPriorityBefore(std::__ndk1::basic_string_view<char, std::__ndk1::char_traits<char> >, geode::Mod*)::{lambda(geode::ModStateEvent*)#1}>, void (geode::ModStateEvent*)>::target(std::type_info const&) const
FUNC 1f0a4 c 0 std::__ndk1::__function::__func<geode::modifier::ModifyBase<geode::modifier::ModifyDerive<CrazyLayer, MenuLayer> >::setHookPriorityBefore(std::__ndk1::basic_string_view<char, std::__ndk1::char_traits<char> >, geode::Mod*)::{lambda(geode::ModStateEvent*)#1}, std::__ndk1::allocator<geode::modifier::ModifyBase<geode::modifier::ModifyDerive<CrazyLayer, MenuLayer> >::setHookPriorityBefore(std::__ndk1::basic_string_view<char, std::__ndk1::char_traits<char> >, geode::Mod*)::{lambda(geode::ModStateEvent*)#1}>, void (geode::ModStateEvent*)>::target_type() const
FUNC 1f0b0 7c 0 geode::addresser::getVirtual<bool (MenuLayer::*)()>(bool (MenuLayer::*)())
FUNC 1f12c 4 0 geode::modifier::AsStaticFunction_init<CrazyLayer, bool (CrazyLayer::*)()>::Impl<bool (CrazyLayer::*)()>::function(CrazyLayer*)
FUNC 1f130 6c 0 MenuLayer::MenuLayer(geode::ZeroConstructorType)
FUNC 1f19c 4 0 cocos2d::CCCopying::copyWithZone(cocos2d::CCZone*)
FUNC 1f1a0 6750 0 CrazyLayer::init()
FUNC 258f0 3d4 0 RDButtonData::RDButtonData(std::__ndk1::basic_string<char, std::__ndk1::char_traits<char>, std::__ndk1::allocator<char> >, std::initializer_list<std::__ndk1::basic_string<char, std::__ndk1::char_traits<char>, std::__ndk1::allocator<char> > >, std::__ndk1::basic_string<char, std::__ndk1::char_traits<char>, std::__ndk1::allocator<char> >, float, void (cocos2d::CCObject::*)(cocos2d::CCObject*))
FUNC 25cc4 64 0 std::__ndk1::pair<std::__ndk1::basic_string<char, std::__ndk1::char_traits<char>, std::__ndk1::allocator<char> > const, RDButtonData>::~pair()
FUNC 25d28 56 0 RDButtonData::~RDButtonData()
FUNC 25d80 60 0 geode::impl::ResultData<std::__ndk1::basic_string<char, std::__ndk1::char_traits<char>, std::__ndk1::allocator<char> >, std::__ndk1::basic_string<char, std::__ndk1::char_traits<char>, std::__ndk1::allocator<char> > >::~ResultData()
FUNC 25de0 22c 0 MainButtonsSettingV3::getNonButtons() const
FUNC 2600c 16 0 geode::cocos::CCArrayExt<RDButton*>::~CCArrayExt()
FUNC 26022 96 0 _ZNSt6__ndk14pairIKNS_12basic_stringIcNS_11char_traitsIcEENS_9allocatorIcEEEENS0_IS6_S6_EEEC2B8ne180000ILb1ETnNS_9enable_ifIXclsr13_CheckArgsDepIXT_EEE17__enable_implicitIRS7_RKS8_EEEiE4typeELi0EEESC_SE_
FUNC 260b8 2e 0 std::__ndk1::pair<std::__ndk1::basic_string<char, std::__ndk1::char_traits<char>, std::__ndk1::allocator<char> > const, std::__ndk1::pair<std::__ndk1::basic_string<char, std::__ndk1::char_traits<char>, std::__ndk1::allocator<char> >, std::__ndk1::basic_string<char, std::__ndk1::char_traits<char>, std::__ndk1::allocator<char> > > >::~pair()
FUNC 260e6 22 0 std::__ndk1::pair<std::__ndk1::basic_string<char, std::__ndk1::char_traits<char>, std::__ndk1::allocator<char> >, std::__ndk1::basic_string<char, std::__ndk1::char_traits<char>, std::__ndk1::allocator<char> > >::~pair()
FUNC 26108 16 0 geode::cocos::CCArrayExt<RDStatsNode*>::~CCArrayExt()
FUNC 2611e 34 0 CrazyLayer::onHideMenu(cocos2d::CCObject*)
FUNC 26152 3a 0 std::__ndk1::shared_ptr<StatsSettingV3>::~shared_ptr[abi:ne180000]()
FUNC 2618c 3a 0 std::__ndk1::shared_ptr<MainButtonsSettingV3>::~shared_ptr[abi:ne180000]()
FUNC 261c6 2 0 std::__ndk1::__variant_detail::__visitation::__base::__dispatcher<(unsigned int)0>::__dispatch[abi:ne180000]<std::__ndk1::__variant_detail::__dtor<std::__ndk1::__variant_detail::__traits<geode::VersionInfo, std::__ndk1::basic_string<char, std::__ndk1::char_traits<char>, std::__ndk1::allocator<char> > >, (std::__ndk1::__variant_detail::_Trait)1>::__destroy[abi:ne180000]()::{lambda(auto:1&)#1}, std::__ndk1::__variant_detail::__base<(std::__ndk1::__variant_detail::__traits<geode::VersionInfo, std::__ndk1::basic_string<char, std::__ndk1::char_traits<char>, std::__ndk1::allocator<char> > >)1, geode, std::__ndk1::allocator<char> >&>(std::__ndk1::__variant_detail::__dtor<std::__ndk1::__variant_detail::__traits<geode::VersionInfo, std::__ndk1::basic_string<char, std::__ndk1::char_traits<char>, std::__ndk1::allocator<char> > >, (std::__ndk1::__variant_detail::_Trait)1>, std::__ndk1::__variant_detail::__base<(std::__ndk1::__variant_detail::__traits<geode::VersionInfo, std::__ndk1::basic_string<char, std::__ndk1::char_traits<char>, std::__ndk1::allocator<char> > >)1, geode, std::__ndk1::allocator<char> >&)
FUNC 261c8 e 0 std::__ndk1::__variant_detail::__visitation::__base::__dispatcher<(unsigned int)1>::__dispatch[abi:ne180000]<std::__ndk1::__variant_detail::__dtor<std::__ndk1::__variant_detail::__traits<geode::VersionInfo, std::__ndk1::basic_string<char, std::__ndk1::char_traits<char>, std::__ndk1::allocator<char> > >, (std::__ndk1::__variant_detail::_Trait)1>::__destroy[abi:ne180000]()::{lambda(auto:1&)#1}, std::__ndk1::__variant_detail::__base<(std::__ndk1::__variant_detail::__traits<geode::VersionInfo, std::__ndk1::basic_string<char, std::__ndk1::char_traits<char>, std::__ndk1::allocator<char> > >)1, geode, std::__ndk1::allocator<char> >&>(std::__ndk1::__variant_detail::__dtor<std::__ndk1::__variant_detail::__traits<geode::VersionInfo, std::__ndk1::basic_string<char, std::__ndk1::char_traits<char>, std::__ndk1::allocator<char> > >, (std::__ndk1::__variant_detail::_Trait)1>, std::__ndk1::__variant_detail::__base<(std::__ndk1::__variant_detail::__traits<geode::VersionInfo, std::__ndk1::basic_string<char, std::__ndk1::char_traits<char>, std::__ndk1::allocator<char> > >)1, geode, std::__ndk1::allocator<char> >&)
FUNC 261d6 2 0 std::__ndk1::__function::__base<void (FLAlertLayer*, bool)>::~__base()
FUNC 261d8 4 0 std::__ndk1::__function::__func<CrazyLayer::setupButtons()::{lambda(auto:1, bool)#1}, std::__ndk1::allocator<CrazyLayer::setupButtons()::{lambda(auto:1, bool)#1}>, void (FLAlertLayer*, bool)>::~__func()
FUNC 261dc 20 0 std::__ndk1::__function::__func<CrazyLayer::setupButtons()::{lambda(auto:1, bool)#1}, std::__ndk1::allocator<CrazyLayer::setupButtons()::{lambda(auto:1, bool)#1}>, void (FLAlertLayer*, bool)>::__clone() const
FUNC 261fc 14 0 std::__ndk1::__function::__func<CrazyLayer::setupButtons()::{lambda(auto:1, bool)#1}, std::__ndk1::allocator<CrazyLayer::setupButtons()::{lambda(auto:1, bool)#1}>, void (FLAlertLayer*, bool)>::__clone(std::__ndk1::__function::__base<void (FLAlertLayer*, bool)>*) const
FUNC 26210 2 0 std::__ndk1::__function::__func<CrazyLayer::setupButtons()::{lambda(auto:1, bool)#1}, std::__ndk1::allocator<CrazyLayer::setupButtons()::{lambda(auto:1, bool)#1}>, void (FLAlertLayer*, bool)>::destroy()
FUNC 26212 4 0 std::__ndk1::__function::__func<CrazyLayer::setupButtons()::{lambda(auto:1, bool)#1}, std::__ndk1::allocator<CrazyLayer::setupButtons()::{lambda(auto:1, bool)#1}>, void (FLAlertLayer*, bool)>::destroy_deallocate()
FUNC 26218 88 0 std::__ndk1::__function::__func<CrazyLayer::setupButtons()::{lambda(auto:1, bool)#1}, std::__ndk1::allocator<CrazyLayer::setupButtons()::{lambda(auto:1, bool)#1}>, void (FLAlertLayer*, bool)>::operator()(FLAlertLayer*&&, bool&&)
FUNC 262a0 18 0 std::__ndk1::__function::__func<CrazyLayer::setupButtons()::{lambda(auto:1, bool)#1}, std::__ndk1::allocator<CrazyLayer::setupButtons()::{lambda(auto:1, bool)#1}>, void (FLAlertLayer*, bool)>::target(std::type_info const&) const
FUNC 262b8 c 0 std::__ndk1::__function::__func<CrazyLayer::setupButtons()::{lambda(auto:1, bool)#1}, std::__ndk1::allocator<CrazyLayer::setupButtons()::{lambda(auto:1, bool)#1}>, void (FLAlertLayer*, bool)>::target_type() const
FUNC 262c4 4e4 0 geode::modifier::FieldIntermediate<CrazyLayer, MenuLayer>::self()
FUNC 267a8 2 0 geode::modifier::FieldIntermediate<CrazyLayer, MenuLayer>::fieldDestructor(void*)
FUNC 267ac 10 0 std::__ndk1::vector<void*, std::__ndk1::allocator<void*> >::__throw_length_error[abi:ne180000]() const
FUNC 267bc 10 0 std::__ndk1::vector<std::__ndk1::function<void (void*)>, std::__ndk1::allocator<std::__ndk1::function<void (void*)> > >::__throw_length_error[abi:ne180000]() const
FUNC 267cc 8 0 std::__ndk1::vector<void*, std::__ndk1::allocator<void*> >::__throw_out_of_range[abi:ne180000]() const
FUNC 267d4 3c 0 std::__ndk1::__throw_out_of_range[abi:ne180000](char const*)
FUNC 26810 18 0 std::out_of_range::out_of_range[abi:ne180000](char const*)
FUNC 26828 8 0 std::__ndk1::vector<std::__ndk1::function<void (void*)>, std::__ndk1::allocator<std::__ndk1::function<void (void*)> > >::__throw_out_of_range[abi:ne180000]() const
FUNC 26830 2 0 std::__ndk1::__function::__base<void (void*)>::~__base()
FUNC 26832 4 0 std::__ndk1::__function::__func<void (*)(void*), std::__ndk1::allocator<void (*)(void*)>, void (void*)>::~__func()
FUNC 26838 20 0 std::__ndk1::__function::__func<void (*)(void*), std::__ndk1::allocator<void (*)(void*)>, void (void*)>::__clone() const
FUNC 26858 14 0 std::__ndk1::__function::__func<void (*)(void*), std::__ndk1::allocator<void (*)(void*)>, void (void*)>::__clone(std::__ndk1::__function::__base<void (void*)>*) const
FUNC 2686c 2 0 std::__ndk1::__function::__func<void (*)(void*), std::__ndk1::allocator<void (*)(void*)>, void (void*)>::destroy()
FUNC 2686e 4 0 std::__ndk1::__function::__func<void (*)(void*), std::__ndk1::allocator<void (*)(void*)>, void (void*)>::destroy_deallocate()
FUNC 26872 8 0 std::__ndk1::__function::__func<void (*)(void*), std::__ndk1::allocator<void (*)(void*)>, void (void*)>::operator()(void*&&)
FUNC 2687c 18 0 std::__ndk1::__function::__func<void (*)(void*), std::__ndk1::allocator<void (*)(void*)>, void (void*)>::target(std::type_info const&) const
FUNC 26894 c 0 std::__ndk1::__function::__func<void (*)(void*), std::__ndk1::allocator<void (*)(void*)>, void (void*)>::target_type() const
FUNC 268a0 66 0 std::__ndk1::basic_string<char, std::__ndk1::char_traits<char>, std::__ndk1::allocator<char> >::__assign_no_alias<true>(char const*, unsigned int)
FUNC 26906 a6 0 std::__ndk1::basic_string<char, std::__ndk1::char_traits<char>, std::__ndk1::allocator<char> >::__assign_no_alias<false>(char const*, unsigned int)
FUNC 269ac 3a 0 std::__ndk1::__exception_guard_exceptions<std::__ndk1::_AllocatorDestroyRangeReverse<std::__ndk1::allocator<std::__ndk1::basic_string<char, std::__ndk1::char_traits<char>, std::__ndk1::allocator<char> > >, std::__ndk1::basic_string<char, std::__ndk1::char_traits<char>, std::__ndk1::allocator<char> >*> >::~__exception_guard_exceptions[abi:ne180000]()
FUNC 269e8 334 0 std::__ndk1::__tree<std::__ndk1::__value_type<std::__ndk1::basic_string<char, std::__ndk1::char_traits<char>, std::__ndk1::allocator<char> >, RDButtonData>, std::__ndk1::__map_value_compare<std::__ndk1::basic_string<char, std::__ndk1::char_traits<char>, std::__ndk1::allocator<char> >, std::__ndk1::__value_type<std::__ndk1::basic_string<char, std::__ndk1::char_traits<char>, std::__ndk1::allocator<char> >, RDButtonData>, std::__ndk1::less<std::__ndk1::basic_string<char, std::__ndk1::char_traits<char>, std::__ndk1::allocator<char> > >, true>, std::__ndk1::allocator<std::__ndk1::__value_type<std::__ndk1::basic_string<char, std::__ndk1::char_traits<char>, std::__ndk1::allocator<char> >, RDButtonData> > >::__emplace_hint_unique_key_args<std::__ndk1::basic_string<char, std::__ndk1::char_traits<char>, std::__ndk1::allocator<char> >, std::__ndk1::pair<std::__ndk1::basic_string<char, std::__ndk1::char_traits<char>, std::__ndk1::allocator<char> > const, RDButtonData> const&>(std::__ndk1::__tree_const_iterator<std::__ndk1::__value_type<std::__ndk1::basic_string<char, std::__ndk1::char_traits<char>, std::__ndk1::allocator<char> >, RDButtonData>, std::__ndk1::__tree_node<std::__ndk1::__value_type<std::__ndk1::basic_string<char, std::__ndk1::char_traits<char>, std::__ndk1::allocator<char> >, RDButtonData>, void*>*, int>, std::__ndk1::basic_string<char, std::__ndk1::char_traits<char>, std::__ndk1::allocator<char> > const&, std::__ndk1::pair<std::__ndk1::basic_string<char, std::__ndk1::char_traits<char>, std::__ndk1::allocator<char> > const, RDButtonData> const&)
FUNC 26d1c 26 0 std::__ndk1::unique_ptr<std::__ndk1::__tree_node<std::__ndk1::__value_type<std::__ndk1::basic_string<char, std::__ndk1::char_traits<char>, std::__ndk1::allocator<char> >, RDButtonData>, void*>, std::__ndk1::__tree_node_destructor<std::__ndk1::allocator<std::__ndk1::__tree_node<std::__ndk1::__value_type<std::__ndk1::basic_string<char, std::__ndk1::char_traits<char>, std::__ndk1::allocator<char> >, RDButtonData>, void*> > > >::~unique_ptr[abi:ne180000]()
FUNC 26d42 ba 0 std::__ndk1::__tree<std::__ndk1::__value_type<std::__ndk1::basic_string<char, std::__ndk1::char_traits<char>, std::__ndk1::allocator<char> >, RDButtonData>, std::__ndk1::__map_value_compare<std::__ndk1::basic_string<char, std::__ndk1::char_traits<char>, std::__ndk1::allocator<char> >, std::__ndk1::__value_type<std::__ndk1::basic_string<char, std::__ndk1::char_traits<char>, std::__ndk1::allocator<char> >, RDButtonData>, std::__ndk1::less<std::__ndk1::basic_string<char, std::__ndk1::char_traits<char>, std::__ndk1::allocator<char> > >, true>, std::__ndk1::allocator<std::__ndk1::__value_type<std::__ndk1::basic_string<char, std::__ndk1::char_traits<char>, std::__ndk1::allocator<char> >, RDButtonData> > >::__find_equal<std::__ndk1::basic_string<char, std::__ndk1::char_traits<char>, std::__ndk1::allocator<char> > >(std::__ndk1::__tree_end_node<std::__ndk1::__tree_node_base<void*>*>*&, std::__ndk1::basic_string<char, std::__ndk1::char_traits<char>, std::__ndk1::allocator<char> > const&)
FUNC 26dfc 6a 0 _ZNSt6__ndk112__destroy_atB8ne180000INS_4pairIKNS_12basic_stringIcNS_11char_traitsIcEENS_9allocatorIcEEEE12RDButtonDataEETnNS_9enable_ifIXntsr8is_arrayIT_EE5valueEiE4typeELi0EEEvPSC_
FUNC 26e66 2c 0 std::__ndk1::__tree<std::__ndk1::__value_type<std::__ndk1::basic_string<char, std::__ndk1::char_traits<char>, std::__ndk1::allocator<char> >, RDButtonData>, std::__ndk1::__map_value_compare<std::__ndk1::basic_string<char, std::__ndk1::char_traits<char>, std::__ndk1::allocator<char> >, std::__ndk1::__value_type<std::__ndk1::basic_string<char, std::__ndk1::char_traits<char>, std::__ndk1::allocator<char> >, RDButtonData>, std::__ndk1::less<std::__ndk1::basic_string<char, std::__ndk1::char_traits<char>, std::__ndk1::allocator<char> > >, true>, std::__ndk1::allocator<std::__ndk1::__value_type<std::__ndk1::basic_string<char, std::__ndk1::char_traits<char>, std::__ndk1::allocator<char> >, RDButtonData> > >::destroy(std::__ndk1::__tree_node<std::__ndk1::__value_type<std::__ndk1::basic_string<char, std::__ndk1::char_traits<char>, std::__ndk1::allocator<char> >, RDButtonData>, void*>*)
FUNC 26e92 e 0 std::__ndk1::__variant_detail::__visitation::__base::__dispatcher<(unsigned int)0>::__dispatch[abi:ne180000]<std::__ndk1::__variant_detail::__dtor<std::__ndk1::__variant_detail::__traits<std::__ndk1::basic_string<char, std::__ndk1::char_traits<char>, std::__ndk1::allocator<char> >, std::__ndk1::allocator<char> >, (std::__ndk1::__variant_detail::_Trait)1>::__destroy[abi:ne180000]()::{lambda(auto:1&)#1}, std::__ndk1::__variant_detail::__base<(std::__ndk1::__variant_detail::__traits<std::__ndk1::basic_string<char, std::__ndk1::char_traits<char>, std::__ndk1::allocator<char> >, std::__ndk1::allocator<char> >)1, std::__ndk1::allocator<char>, std::__ndk1::allocator<char> >&>(std::__ndk1::__variant_detail::__dtor<std::__ndk1::__variant_detail::__traits<std::__ndk1::basic_string<char, std::__ndk1::char_traits<char>, std::__ndk1::allocator<char> >, std::__ndk1::allocator<char> >, (std::__ndk1::__variant_detail::_Trait)1>, std::__ndk1::__variant_detail::__base<(std::__ndk1::__variant_detail::__traits<std::__ndk1::basic_string<char, std::__ndk1::char_traits<char>, std::__ndk1::allocator<char> >, std::__ndk1::allocator<char> >)1, std::__ndk1::allocator<char>, std::__ndk1::allocator<char> >&)
FUNC 26ea0 e 0 std::__ndk1::__variant_detail::__visitation::__base::__dispatcher<(unsigned int)1>::__dispatch[abi:ne180000]<std::__ndk1::__variant_detail::__dtor<std::__ndk1::__variant_detail::__traits<std::__ndk1::basic_string<char, std::__ndk1::char_traits<char>, std::__ndk1::allocator<char> >, std::__ndk1::allocator<char> >, (std::__ndk1::__variant_detail::_Trait)1>::__destroy[abi:ne180000]()::{lambda(auto:1&)#1}, std::__ndk1::__variant_detail::__base<(std::__ndk1::__variant_detail::__traits<std::__ndk1::basic_string<char, std::__ndk1::char_traits<char>, std::__ndk1::allocator<char> >, std::__ndk1::allocator<char> >)1, std::__ndk1::allocator<char>, std::__ndk1::allocator<char> >&>(std::__ndk1::__variant_detail::__dtor<std::__ndk1::__variant_detail::__traits<std::__ndk1::basic_string<char, std::__ndk1::char_traits<char>, std::__ndk1::allocator<char> >, std::__ndk1::allocator<char> >, (std::__ndk1::__variant_detail::_Trait)1>, std::__ndk1::__variant_detail::__base<(std::__ndk1::__variant_detail::__traits<std::__ndk1::basic_string<char, std::__ndk1::char_traits<char>, std::__ndk1::allocator<char> >, std::__ndk1::allocator<char> >)1, std::__ndk1::allocator<char>, std::__ndk1::allocator<char> >&)
FUNC 26eae c0 0 std::__ndk1::__tree<std::__ndk1::__value_type<std::__ndk1::basic_string<char, std::__ndk1::char_traits<char>, std::__ndk1::allocator<char> >, RDButtonData>, std::__ndk1::__map_value_compare<std::__ndk1::basic_string<char, std::__ndk1::char_traits<char>, std::__ndk1::allocator<char> >, std::__ndk1::__value_type<std::__ndk1::basic_string<char, std::__ndk1::char_traits<char>, std::__ndk1::allocator<char> >, RDButtonData>, std::__ndk1::less<std::__ndk1::basic_string<char, std::__ndk1::char_traits<char>, std::__ndk1::allocator<char> > >, true>, std::__ndk1::allocator<std::__ndk1::__value_type<std::__ndk1::basic_string<char, std::__ndk1::char_traits<char>, std::__ndk1::allocator<char> >, RDButtonData> > >::find<std::__ndk1::basic_string<char, std::__ndk1::char_traits<char>, std::__ndk1::allocator<char> > >(std::__ndk1::basic_string<char, std::__ndk1::char_traits<char>, std::__ndk1::allocator<char> > const&)
FUNC 26f70 d4 0 std::__ndk1::__tree<std::__ndk1::__value_type<std::__ndk1::basic_string<char, std::__ndk1::char_traits<char>, std::__ndk1::allocator<char> >, RDButtonData>, std::__ndk1::__map_value_compare<std::__ndk1::basic_string<char, std::__ndk1::char_traits<char>, std::__ndk1::allocator<char> >, std::__ndk1::__value_type<std::__ndk1::basic_string<char, std::__ndk1::char_traits<char>, std::__ndk1::allocator<char> >, RDButtonData>, std::__ndk1::less<std::__ndk1::basic_string<char, std::__ndk1::char_traits<char>, std::__ndk1::allocator<char> > >, true>, std::__ndk1::allocator<std::__ndk1::__value_type<std::__ndk1::basic_string<char, std::__ndk1::char_traits<char>, std::__ndk1::allocator<char> >, RDButtonData> > >::__emplace_unique_key_args<std::__ndk1::basic_string<char, std::__ndk1::char_traits<char>, std::__ndk1::allocator<char> >, std::__ndk1::piecewise_construct_t const&, std::__ndk1::tuple<std::__ndk1::basic_string<char, std::__ndk1::char_traits<char>, std::__ndk1::allocator<char> > const&>, std::__ndk1::tuple<> >(std::__ndk1::basic_string<char, std::__ndk1::char_traits<char>, std::__ndk1::allocator<char> > const&, std::__ndk1::piecewise_construct_t const&, std::__ndk1::tuple<std::__ndk1::basic_string<char, std::__ndk1::char_traits<char>, std::__ndk1::allocator<char> > const&>, std::__ndk1::tuple<>)
FUNC 27044 d4 0 std::__ndk1::vector<std::__ndk1::basic_string<char, std::__ndk1::char_traits<char>, std::__ndk1::allocator<char> >, std::__ndk1::allocator<std::__ndk1::basic_string<char, std::__ndk1::char_traits<char>, std::__ndk1::allocator<char> > > >::__init_with_size[abi:ne180000]<std::__ndk1::basic_string<char, std::__ndk1::char_traits<char>, std::__ndk1::allocator<char> >*, std::__ndk1::vector<std::__ndk1::basic_string<char, std::__ndk1::char_traits<char>, std::__ndk1::allocator<char> >, std::__ndk1::allocator<std::__ndk1::basic_string<char, std::__ndk1::char_traits<char>, std::__ndk1::allocator<char> > > >::__init_with_size[abi:ne180000]>(std::__ndk1::basic_string<char, std::__ndk1::char_traits<char>, std::__ndk1::allocator<char> >*, std::__ndk1::vector<std::__ndk1::basic_string<char, std::__ndk1::char_traits<char>, std::__ndk1::allocator<char> >, std::__ndk1::allocator<std::__ndk1::basic_string<char, std::__ndk1::char_traits<char>, std::__ndk1::allocator<char> > > >::__init_with_size[abi:ne180000], unsigned int)
FUNC 27118 4e 0 std::__ndk1::__exception_guard_exceptions<std::__ndk1::vector<std::__ndk1::basic_string<char, std::__ndk1::char_traits<char>, std::__ndk1::allocator<char> >, std::__ndk1::allocator<std::__ndk1::basic_string<char, std::__ndk1::char_traits<char>, std::__ndk1::allocator<char> > > >::__destroy_vector>::~__exception_guard_exceptions[abi:ne180000]()
FUNC 27168 60 0 geode::impl::ResultData<std::__ndk1::vector<matjson::Value, std::__ndk1::allocator<matjson::Value> > const&, std::__ndk1::basic_string<char, std::__ndk1::char_traits<char>, std::__ndk1::allocator<char> > >::~ResultData()
FUNC 271c8 2a 0 std::__ndk1::vector<matjson::Value, std::__ndk1::allocator<matjson::Value> >::~vector[abi:ne180000]()
FUNC 271f4 a8 0 std::__ndk1::vector<matjson::Value, std::__ndk1::allocator<matjson::Value> >::__init_with_size[abi:ne180000]<matjson::Value*, std::__ndk1::vector<matjson::Value, std::__ndk1::allocator<matjson::Value> >::__init_with_size[abi:ne180000]>(matjson::Value*, std::__ndk1::vector<matjson::Value, std::__ndk1::allocator<matjson::Value> >::__init_with_size[abi:ne180000], unsigned int)
FUNC 2729c 42 0 std::__ndk1::__exception_guard_exceptions<std::__ndk1::vector<matjson::Value, std::__ndk1::allocator<matjson::Value> >::__destroy_vector>::~__exception_guard_exceptions[abi:ne180000]()
FUNC 272e0 10 0 std::__ndk1::vector<matjson::Value, std::__ndk1::allocator<matjson::Value> >::__throw_length_error[abi:ne180000]() const
FUNC 272f0 2 0 std::__ndk1::__variant_detail::__visitation::__base::__dispatcher<(unsigned int)0>::__dispatch[abi:ne180000]<std::__ndk1::__variant_detail::__dtor<std::__ndk1::__variant_detail::__traits<std::__ndk1::reference_wrapper<std::__ndk1::vector<matjson::Value, std::__ndk1::allocator<matjson> > const>, std::__ndk1::basic_string<char, std::__ndk1::char_traits<char>, matjson::Value<char> > >, (std::__ndk1::__variant_detail::_Trait)1>::__destroy[abi:ne180000]()::{lambda(auto:1&)#1}, std::__ndk1::__variant_detail::__base<(std::__ndk1::__variant_detail::__traits<std::__ndk1::reference_wrapper<std::__ndk1::vector<matjson::Value, std::__ndk1::allocator<matjson> > const>, std::__ndk1::basic_string<char, std::__ndk1::char_traits<char>, matjson::Value<char> > >)1, std::__ndk1::vector<matjson::Value, std::__ndk1::allocator<matjson> > const, matjson::Value<char> >&>(std::__ndk1::__variant_detail::__dtor<std::__ndk1::__variant_detail::__traits<std::__ndk1::reference_wrapper<std::__ndk1::vector<matjson::Value, std::__ndk1::allocator<matjson> > const>, std::__ndk1::basic_string<char, std::__ndk1::char_traits<char>, matjson::Value<char> > >, (std::__ndk1::__variant_detail::_Trait)1>, std::__ndk1::__variant_detail::__base<(std::__ndk1::__variant_detail::__traits<std::__ndk1::reference_wrapper<std::__ndk1::vector<matjson::Value, std::__ndk1::allocator<matjson> > const>, std::__ndk1::basic_string<char, std::__ndk1::char_traits<char>, matjson::Value<char> > >)1, std::__ndk1::vector<matjson::Value, std::__ndk1::allocator<matjson> > const, matjson::Value<char> >&)
FUNC 272f2 e 0 std::__ndk1::__variant_detail::__visitation::__base::__dispatcher<(unsigned int)1>::__dispatch[abi:ne180000]<std::__ndk1::__variant_detail::__dtor<std::__ndk1::__variant_detail::__traits<std::__ndk1::reference_wrapper<std::__ndk1::vector<matjson::Value, std::__ndk1::allocator<matjson> > const>, std::__ndk1::basic_string<char, std::__ndk1::char_traits<char>, matjson::Value<char> > >, (std::__ndk1::__variant_detail::_Trait)1>::__destroy[abi:ne180000]()::{lambda(auto:1&)#1}, std::__ndk1::__variant_detail::__base<(std::__ndk1::__variant_detail::__traits<std::__ndk1::reference_wrapper<std::__ndk1::vector<matjson::Value, std::__ndk1::allocator<matjson> > const>, std::__ndk1::basic_string<char, std::__ndk1::char_traits<char>, matjson::Value<char> > >)1, std::__ndk1::vector<matjson::Value, std::__ndk1::allocator<matjson> > const, matjson::Value<char> >&>(std::__ndk1::__variant_detail::__dtor<std::__ndk1::__variant_detail::__traits<std::__ndk1::reference_wrapper<std::__ndk1::vector<matjson::Value, std::__ndk1::allocator<matjson> > const>, std::__ndk1::basic_string<char, std::__ndk1::char_traits<char>, matjson::Value<char> > >, (std::__ndk1::__variant_detail::_Trait)1>, std::__ndk1::__variant_detail::__base<(std::__ndk1::__variant_detail::__traits<std::__ndk1::reference_wrapper<std::__ndk1::vector<matjson::Value, std::__ndk1::allocator<matjson> > const>, std::__ndk1::basic_string<char, std::__ndk1::char_traits<char>, matjson::Value<char> > >)1, std::__ndk1::vector<matjson::Value, std::__ndk1::allocator<matjson> > const, matjson::Value<char> >&)
FUNC 27300 b0 0 std::__ndk1::__find_impl[abi:ne180000]<matjson::Value*, matjson::Value, std::__ndk1::basic_string<char, std::__ndk1::char_traits<char>, std::__ndk1::allocator<char> >, std::__ndk1::__identity>(std::__ndk1::__identity, matjson::Value, std::__ndk1::basic_string<char, std::__ndk1::char_traits<char>, std::__ndk1::allocator<char> > const&, std::__ndk1::__identity&)
FUNC 273b0 2fc 0 std::__ndk1::__tree<std::__ndk1::__value_type<std::__ndk1::basic_string<char, std::__ndk1::char_traits<char>, std::__ndk1::allocator<char> >, std::__ndk1::pair<std::__ndk1::basic_string<char, std::__ndk1::char_traits<char>, std::__ndk1::allocator<char> >, std::__ndk1::basic_string<char, std::__ndk1::char_traits<char>, std::__ndk1::allocator<char> > > >, std::__ndk1::__map_value_compare<std::__ndk1::basic_string<char, std::__ndk1::char_traits<char>, std::__ndk1::allocator<char> >, std::__ndk1::__value_type<std::__ndk1::basic_string<char, std::__ndk1::char_traits<char>, std::__ndk1::allocator<char> >, std::__ndk1::pair<std::__ndk1::basic_string<char, std::__ndk1::char_traits<char>, std::__ndk1::allocator<char> >, std::__ndk1::basic_string<char, std::__ndk1::char_traits<char>, std::__ndk1::allocator<char> > > >, std::__ndk1::less<std::__ndk1::basic_string<char, std::__ndk1::char_traits<char>, std::__ndk1::allocator<char> > >, true>, std::__ndk1::allocator<std::__ndk1::__value_type<std::__ndk1::basic_string<char, std::__ndk1::char_traits<char>, std::__ndk1::allocator<char> >, std::__ndk1::pair<std::__ndk1::basic_string<char, std::__ndk1::char_traits<char>, std::__ndk1::allocator<char> >, std::__ndk1::basic_string<char, std::__ndk1::char_traits<char>, std::__ndk1::allocator<char> > > > > >::__emplace_hint_unique_key_args<std::__ndk1::basic_string<char, std::__ndk1::char_traits<char>, std::__ndk1::allocator<char> >, std::__ndk1::pair<std::__ndk1::basic_string<char, std::__ndk1::char_traits<char>, std::__ndk1::allocator<char> > const, std::__ndk1::pair<std::__ndk1::basic_string<char, std::__ndk1::char_traits<char>, std::__ndk1::allocator<char> >, std::__ndk1::basic_string<char, std::__ndk1::char_traits<char>, std::__ndk1::allocator<char> > > > const&>(std::__ndk1::__tree_const_iterator<std::__ndk1::__value_type<std::__ndk1::basic_string<char, std::__ndk1::char_traits<char>, std::__ndk1::allocator<char> >, std::__ndk1::pair<std::__ndk1::basic_string<char, std::__ndk1::char_traits<char>, std::__ndk1::allocator<char> >, std::__ndk1::basic_string<char, std::__ndk1::char_traits<char>, std::__ndk1::allocator<char> > > >, std::__ndk1::__tree_node<std::__ndk1::__value_type<std::__ndk1::basic_string<char, std::__ndk1::char_traits<char>, std::__ndk1::allocator<char> >, std::__ndk1::pair<std::__ndk1::basic_string<char, std::__ndk1::char_traits<char>, std::__ndk1::allocator<char> >, std::__ndk1::basic_string<char, std::__ndk1::char_traits<char>, std::__ndk1::allocator<char> > > >, void*>*, int>, std::__ndk1::basic_string<char, std::__ndk1::char_traits<char>, std::__ndk1::allocator<char> > const&, std::__ndk1::pair<std::__ndk1::basic_string<char, std::__ndk1::char_traits<char>, std::__ndk1::allocator<char> > const, std::__ndk1::pair<std::__ndk1::basic_string<char, std::__ndk1::char_traits<char>, std::__ndk1::allocator<char> >, std::__ndk1::basic_string<char, std::__ndk1::char_traits<char>, std::__ndk1::allocator<char> > > > const&)
FUNC 276ac 42 0 std::__ndk1::unique_ptr<std::__ndk1::__tree_node<std::__ndk1::__value_type<std::__ndk1::basic_string<char, std::__ndk1::char_traits<char>, std::__ndk1::allocator<char> >, std::__ndk1::pair<std::__ndk1::basic_string<char, std::__ndk1::char_traits<char>, std::__ndk1::allocator<char> >, std::__ndk1::basic_string<char, std::__ndk1::char_traits<char>, std::__ndk1::allocator<char> > > >, void*>, std::__ndk1::__tree_node_destructor<std::__ndk1::allocator<std::__ndk1::__tree_node<std::__ndk1::__value_type<std::__ndk1::basic_string<char, std::__ndk1::char_traits<char>, std::__ndk1::allocator<char> >, std::__ndk1::pair<std::__ndk1::basic_string<char, std::__ndk1::char_traits<char>, std::__ndk1::allocator<char> >, std::__ndk1::basic_string<char, std::__ndk1::char_traits<char>, std::__ndk1::allocator<char> > > >, void*> > > >::~unique_ptr[abi:ne180000]()
FUNC 276ee ba 0 std::__ndk1::__tree<std::__ndk1::__value_type<std::__ndk1::basic_string<char, std::__ndk1::char_traits<char>, std::__ndk1::allocator<char> >, std::__ndk1::pair<std::__ndk1::basic_string<char, std::__ndk1::char_traits<char>, std::__ndk1::allocator<char> >, std::__ndk1::basic_string<char, std::__ndk1::char_traits<char>, std::__ndk1::allocator<char> > > >, std::__ndk1::__map_value_compare<std::__ndk1::basic_string<char, std::__ndk1::char_traits<char>, std::__ndk1::allocator<char> >, std::__ndk1::__value_type<std::__ndk1::basic_string<char, std::__ndk1::char_traits<char>, std::__ndk1::allocator<char> >, std::__ndk1::pair<std::__ndk1::basic_string<char, std::__ndk1::char_traits<char>, std::__ndk1::allocator<char> >, std::__ndk1::basic_string<char, std::__ndk1::char_traits<char>, std::__ndk1::allocator<char> > > >, std::__ndk1::less<std::__ndk1::basic_string<char, std::__ndk1::char_traits<char>, std::__ndk1::allocator<char> > >, true>, std::__ndk1::allocator<std::__ndk1::__value_type<std::__ndk1::basic_string<char, std::__ndk1::char_traits<char>, std::__ndk1::allocator<char> >, std::__ndk1::pair<std::__ndk1::basic_string<char, std::__ndk1::char_traits<char>, std::__ndk1::allocator<char> >, std::__ndk1::basic_string<char, std::__ndk1::char_traits<char>, std::__ndk1::allocator<char> > > > > >::__find_equal<std::__ndk1::basic_string<char, std::__ndk1::char_traits<char>, std::__ndk1::allocator<char> > >(std::__ndk1::__tree_end_node<std::__ndk1::__tree_node_base<void*>*>*&, std::__ndk1::basic_string<char, std::__ndk1::char_traits<char>, std::__ndk1::allocator<char> > const&)
FUNC 277a8 48 0 std::__ndk1::__tree<std::__ndk1::__value_type<std::__ndk1::basic_string<char, std::__ndk1::char_traits<char>, std::__ndk1::allocator<char> >, std::__ndk1::pair<std::__ndk1::basic_string<char, std::__ndk1::char_traits<char>, std::__ndk1::allocator<char> >, std::__ndk1::basic_string<char, std::__ndk1::char_traits<char>, std::__ndk1::allocator<char> > > >, std::__ndk1::__map_value_compare<std::__ndk1::basic_string<char, std::__ndk1::char_traits<char>, std::__ndk1::allocator<char> >, std::__ndk1::__value_type<std::__ndk1::basic_string<char, std::__ndk1::char_traits<char>, std::__ndk1::allocator<char> >, std::__ndk1::pair<std::__ndk1::basic_string<char, std::__ndk1::char_traits<char>, std::__ndk1::allocator<char> >, std::__ndk1::basic_string<char, std::__ndk1::char_traits<char>, std::__ndk1::allocator<char> > > >, std::__ndk1::less<std::__ndk1::basic_string<char, std::__ndk1::char_traits<char>, std::__ndk1::allocator<char> > >, true>, std::__ndk1::allocator<std::__ndk1::__value_type<std::__ndk1::basic_string<char, std::__ndk1::char_traits<char>, std::__ndk1::allocator<char> >, std::__ndk1::pair<std::__ndk1::basic_string<char, std::__ndk1::char_traits<char>, std::__ndk1::allocator<char> >, std::__ndk1::basic_string<char, std::__ndk1::char_traits<char>, std::__ndk1::allocator<char> > > > > >::destroy(std::__ndk1::__tree_node<std::__ndk1::__value_type<std::__ndk1::basic_string<char, std::__ndk1::char_traits<char>, std::__ndk1::allocator<char> >, std::__ndk1::pair<std::__ndk1::basic_string<char, std::__ndk1::char_traits<char>, std::__ndk1::allocator<char> >, std::__ndk1::basic_string<char, std::__ndk1::char_traits<char>, std::__ndk1::allocator<char> > > >, void*>*)
FUNC 277f0 10 0 cocos2d::CCInteger::~CCInteger()
FUNC 27800 c 0 cocos2d::CCInteger::acceptVisitor(cocos2d::CCDataVisitor&)
FUNC 2780c 2 0 cocos2d::CCObject::update(float)
FUNC 27810 350 0 geode::modifier::ModifyDerive<test, ChallengesPage>::apply()
FUNC 27b60 2 0 geode::modifier::ModifyBase<geode::modifier::ModifyDerive<test, ChallengesPage> >::apply()
FUNC 27b64 100 0 geode::modifier::AsStaticFunction_claimItem<test, void (test::*)(ChallengeNode*, GJChallengeItem*, cocos2d::CCPoint)>::Impl<void (test::*)(ChallengeNode*, GJChallengeItem*, cocos2d::CCPoint)>::function(test*, ChallengeNode*, GJChallengeItem*, cocos2d::CCPoint)
FUNC 27c64 4a0 0 MainButtonsSettingNodeV3::init(std::__ndk1::shared_ptr<MainButtonsSettingV3>, float)
FUNC 28104 3a 0 std::__ndk1::shared_ptr<geode::SettingV3>::~shared_ptr[abi:ne180000]()
FUNC 28140 6f8 0 MainButtonsSettingNodeV3::updateState(cocos2d::CCNode*)
FUNC 28838 26c 0 MainButtonsSettingNodeV3::onRemove(cocos2d::CCObject*)
FUNC 28aa4 2a0 0 MainButtonsSettingNodeV3::onAdd(cocos2d::CCObject*)
FUNC 28d44 194 0 MainButtonsSettingNodeV3::updateIconRotation()
FUNC 28ed8 16 0 geode::cocos::CCArrayExt<CCMenuItemSpriteExtra*>::~CCArrayExt()
FUNC 28ef0 a0 0 MainButtonsSettingNodeV3::onCommit()
FUNC 28f90 238 0 MainButtonsSettingNodeV3::onResetToDefault()
FUNC 291c8 60 0 geode::impl::ResultData<std::__ndk1::vector<matjson::Value, std::__ndk1::allocator<matjson::Value> >&, std::__ndk1::basic_string<char, std::__ndk1::char_traits<char>, std::__ndk1::allocator<char> > >::~ResultData()
FUNC 29228 9c 0 MainButtonsSettingNodeV3::hasUncommittedChanges() const
FUNC 292c4 1c 0 MainButtonsSettingNodeV3::hasNonDefaultValue() const
FUNC 292e0 108 0 MainButtonsSettingNodeV3::create(std::__ndk1::shared_ptr<MainButtonsSettingV3>, float)
FUNC 293e8 78 0 MainButtonsSettingNodeV3::~MainButtonsSettingNodeV3()
FUNC 29460 70 0 MainButtonsSettingNodeV3::~MainButtonsSettingNodeV3()
FUNC 294d0 2 0 std::__ndk1::__variant_detail::__visitation::__base::__dispatcher<(unsigned int)0>::__dispatch[abi:ne180000]<std::__ndk1::__variant_detail::__dtor<std::__ndk1::__variant_detail::__traits<std::__ndk1::reference_wrapper<std::__ndk1::vector<matjson::Value, std::__ndk1::allocator<matjson> > >, std::__ndk1::basic_string<char, std::__ndk1::char_traits<char>, matjson::Value<char> > >, (std::__ndk1::__variant_detail::_Trait)1>::__destroy[abi:ne180000]()::{lambda(auto:1&)#1}, std::__ndk1::__variant_detail::__base<(std::__ndk1::__variant_detail::__traits<std::__ndk1::reference_wrapper<std::__ndk1::vector<matjson::Value, std::__ndk1::allocator<matjson> > >, std::__ndk1::basic_string<char, std::__ndk1::char_traits<char>, matjson::Value<char> > >)1, std::__ndk1::vector<matjson::Value, std::__ndk1::allocator<matjson> >, matjson::Value<char> >&>(std::__ndk1::__variant_detail::__dtor<std::__ndk1::__variant_detail::__traits<std::__ndk1::reference_wrapper<std::__ndk1::vector<matjson::Value, std::__ndk1::allocator<matjson> > >, std::__ndk1::basic_string<char, std::__ndk1::char_traits<char>, matjson::Value<char> > >, (std::__ndk1::__variant_detail::_Trait)1>, std::__ndk1::__variant_detail::__base<(std::__ndk1::__variant_detail::__traits<std::__ndk1::reference_wrapper<std::__ndk1::vector<matjson::Value, std::__ndk1::allocator<matjson> > >, std::__ndk1::basic_string<char, std::__ndk1::char_traits<char>, matjson::Value<char> > >)1, std::__ndk1::vector<matjson::Value, std::__ndk1::allocator<matjson> >, matjson::Value<char> >&)
FUNC 294d2 e 0 std::__ndk1::__variant_detail::__visitation::__base::__dispatcher<(unsigned int)1>::__dispatch[abi:ne180000]<std::__ndk1::__variant_detail::__dtor<std::__ndk1::__variant_detail::__traits<std::__ndk1::reference_wrapper<std::__ndk1::vector<matjson::Value, std::__ndk1::allocator<matjson> > >, std::__ndk1::basic_string<char, std::__ndk1::char_traits<char>, matjson::Value<char> > >, (std::__ndk1::__variant_detail::_Trait)1>::__destroy[abi:ne180000]()::{lambda(auto:1&)#1}, std::__ndk1::__variant_detail::__base<(std::__ndk1::__variant_detail::__traits<std::__ndk1::reference_wrapper<std::__ndk1::vector<matjson::Value, std::__ndk1::allocator<matjson> > >, std::__ndk1::basic_string<char, std::__ndk1::char_traits<char>, matjson::Value<char> > >)1, std::__ndk1::vector<matjson::Value, std::__ndk1::allocator<matjson> >, matjson::Value<char> >&>(std::__ndk1::__variant_detail::__dtor<std::__ndk1::__variant_detail::__traits<std::__ndk1::reference_wrapper<std::__ndk1::vector<matjson::Value, std::__ndk1::allocator<matjson> > >, std::__ndk1::basic_string<char, std::__ndk1::char_traits<char>, matjson::Value<char> > >, (std::__ndk1::__variant_detail::_Trait)1>, std::__ndk1::__variant_detail::__base<(std::__ndk1::__variant_detail::__traits<std::__ndk1::reference_wrapper<std::__ndk1::vector<matjson::Value, std::__ndk1::allocator<matjson> > >, std::__ndk1::basic_string<char, std::__ndk1::char_traits<char>, matjson::Value<char> > >)1, std::__ndk1::vector<matjson::Value, std::__ndk1::allocator<matjson> >, matjson::Value<char> >&)
FUNC 294e0 58 0 geode::SettingNodeV3::~SettingNodeV3()
FUNC 29538 d4 0 std::__ndk1::__tree<std::__ndk1::__value_type<std::__ndk1::basic_string<char, std::__ndk1::char_traits<char>, std::__ndk1::allocator<char> >, std::__ndk1::pair<std::__ndk1::basic_string<char, std::__ndk1::char_traits<char>, std::__ndk1::allocator<char> >, float> >, std::__ndk1::__map_value_compare<std::__ndk1::basic_string<char, std::__ndk1::char_traits<char>, std::__ndk1::allocator<char> >, std::__ndk1::__value_type<std::__ndk1::basic_string<char, std::__ndk1::char_traits<char>, std::__ndk1::allocator<char> >, std::__ndk1::pair<std::__ndk1::basic_string<char, std::__ndk1::char_traits<char>, std::__ndk1::allocator<char> >, float> >, std::__ndk1::less<std::__ndk1::basic_string<char, std::__ndk1::char_traits<char>, std::__ndk1::allocator<char> > >, true>, std::__ndk1::allocator<std::__ndk1::__value_type<std::__ndk1::basic_string<char, std::__ndk1::char_traits<char>, std::__ndk1::allocator<char> >, std::__ndk1::pair<std::__ndk1::basic_string<char, std::__ndk1::char_traits<char>, std::__ndk1::allocator<char> >, float> > > >::__emplace_unique_key_args<std::__ndk1::basic_string<char, std::__ndk1::char_traits<char>, std::__ndk1::allocator<char> >, std::__ndk1::piecewise_construct_t const&, std::__ndk1::tuple<std::__ndk1::basic_string<char, std::__ndk1::char_traits<char>, std::__ndk1::allocator<char> > const&>, std::__ndk1::tuple<> >(std::__ndk1::basic_string<char, std::__ndk1::char_traits<char>, std::__ndk1::allocator<char> > const&, std::__ndk1::piecewise_construct_t const&, std::__ndk1::tuple<std::__ndk1::basic_string<char, std::__ndk1::char_traits<char>, std::__ndk1::allocator<char> > const&>, std::__ndk1::tuple<>)
FUNC 2960c ba 0 std::__ndk1::__tree<std::__ndk1::__value_type<std::__ndk1::basic_string<char, std::__ndk1::char_traits<char>, std::__ndk1::allocator<char> >, std::__ndk1::pair<std::__ndk1::basic_string<char, std::__ndk1::char_traits<char>, std::__ndk1::allocator<char> >, float> >, std::__ndk1::__map_value_compare<std::__ndk1::basic_string<char, std::__ndk1::char_traits<char>, std::__ndk1::allocator<char> >, std::__ndk1::__value_type<std::__ndk1::basic_string<char, std::__ndk1::char_traits<char>, std::__ndk1::allocator<char> >, std::__ndk1::pair<std::__ndk1::basic_string<char, std::__ndk1::char_traits<char>, std::__ndk1::allocator<char> >, float> >, std::__ndk1::less<std::__ndk1::basic_string<char, std::__ndk1::char_traits<char>, std::__ndk1::allocator<char> > >, true>, std::__ndk1::allocator<std::__ndk1::__value_type<std::__ndk1::basic_string<char, std::__ndk1::char_traits<char>, std::__ndk1::allocator<char> >, std::__ndk1::pair<std::__ndk1::basic_string<char, std::__ndk1::char_traits<char>, std::__ndk1::allocator<char> >, float> > > >::__find_equal<std::__ndk1::basic_string<char, std::__ndk1::char_traits<char>, std::__ndk1::allocator<char> > >(std::__ndk1::__tree_end_node<std::__ndk1::__tree_node_base<void*>*>*&, std::__ndk1::basic_string<char, std::__ndk1::char_traits<char>, std::__ndk1::allocator<char> > const&)
FUNC 296c6 34 0 std::__ndk1::unique_ptr<std::__ndk1::__tree_node<std::__ndk1::__value_type<std::__ndk1::basic_string<char, std::__ndk1::char_traits<char>, std::__ndk1::allocator<char> >, std::__ndk1::pair<std::__ndk1::basic_string<char, std::__ndk1::char_traits<char>, std::__ndk1::allocator<char> >, float> >, void*>, std::__ndk1::__tree_node_destructor<std::__ndk1::allocator<std::__ndk1::__tree_node<std::__ndk1::__value_type<std::__ndk1::basic_string<char, std::__ndk1::char_traits<char>, std::__ndk1::allocator<char> >, std::__ndk1::pair<std::__ndk1::basic_string<char, std::__ndk1::char_traits<char>, std::__ndk1::allocator<char> >, float> >, void*> > > >::~unique_ptr[abi:ne180000]()
FUNC 296fa 22 0 std::__ndk1::pair<std::__ndk1::basic_string<char, std::__ndk1::char_traits<char>, std::__ndk1::allocator<char> > const, std::__ndk1::pair<std::__ndk1::basic_string<char, std::__ndk1::char_traits<char>, std::__ndk1::allocator<char> >, float> >::~pair()
FUNC 2971c 10 0 std::__ndk1::map<std::__ndk1::basic_string<char, std::__ndk1::char_traits<char>, std::__ndk1::allocator<char> >, std::__ndk1::pair<std::__ndk1::basic_string<char, std::__ndk1::char_traits<char>, std::__ndk1::allocator<char> >, float>, std::__ndk1::less<std::__ndk1::basic_string<char, std::__ndk1::char_traits<char>, std::__ndk1::allocator<char> > >, std::__ndk1::allocator<std::__ndk1::pair<std::__ndk1::basic_string<char, std::__ndk1::char_traits<char>, std::__ndk1::allocator<char> > const, std::__ndk1::pair<std::__ndk1::basic_string<char, std::__ndk1::char_traits<char>, std::__ndk1::allocator<char> >, float> > > >::~map[abi:ne180000]()
FUNC 2972c 60 0 geode::impl::ResultData<matjson::Value, matjson::ParseError>::~ResultData()
FUNC 2978c 1f0 0 MainButtonsSettingV3::parse(std::__ndk1::basic_string<char, std::__ndk1::char_traits<char>, std::__ndk1::allocator<char> > const&, std::__ndk1::basic_string<char, std::__ndk1::char_traits<char>, std::__ndk1::allocator<char> > const&, matjson::Value const&)
FUNC 2997c f4 0 geode::JsonExpectedValue::ok<std::__ndk1::shared_ptr<geode::SettingV3> >(std::__ndk1::shared_ptr<geode::SettingV3>)
FUNC 29a70 6c 0 MainButtonsSettingV3::load(matjson::Value const&)
FUNC 29adc 58 0 MainButtonsSettingV3::save(matjson::Value&) const
FUNC 29b34 d0 0 MainButtonsSettingV3::createNode(float)
FUNC 29c04 10 0 MainButtonsSettingV3::isDefaultValue() const
FUNC 29c14 60 0 MainButtonsSettingV3::reset()
FUNC 29c74 28 0 MainButtonsSettingV3::~MainButtonsSettingV3()
FUNC 29c9c 2c 0 MainButtonsSettingV3::~MainButtonsSettingV3()
FUNC 29cc8 6 0 std::__ndk1::__variant_detail::__visitation::__base::__dispatcher<(unsigned int)0>::__dispatch[abi:ne180000]<std::__ndk1::__variant_detail::__dtor<std::__ndk1::__variant_detail::__traits<matjson::Value, std::__ndk1::__variant_detail::__traits::ParseError>, (std::__ndk1::__variant_detail::_Trait)1>::__destroy[abi:ne180000]()::{lambda(auto:1&)#1}, std::__ndk1::__variant_detail::__base<(std::__ndk1::__variant_detail::__traits<matjson::Value, std::__ndk1::__variant_detail::__traits::ParseError>)1, matjson, matjson::Value>&>(std::__ndk1::__variant_detail::__dtor<std::__ndk1::__variant_detail::__traits<matjson::Value, std::__ndk1::__variant_detail::__traits::ParseError>, (std::__ndk1::__variant_detail::_Trait)1>, std::__ndk1::__variant_detail::__base<(std::__ndk1::__variant_detail::__traits<matjson::Value, std::__ndk1::__variant_detail::__traits::ParseError>)1, matjson, matjson::Value>&)
FUNC 29cce e 0 std::__ndk1::__variant_detail::__visitation::__base::__dispatcher<(unsigned int)1>::__dispatch[abi:ne180000]<std::__ndk1::__variant_detail::__dtor<std::__ndk1::__variant_detail::__traits<matjson::Value, std::__ndk1::__variant_detail::__traits::ParseError>, (std::__ndk1::__variant_detail::_Trait)1>::__destroy[abi:ne180000]()::{lambda(auto:1&)#1}, std::__ndk1::__variant_detail::__base<(std::__ndk1::__variant_detail::__traits<matjson::Value, std::__ndk1::__variant_detail::__traits::ParseError>)1, matjson, matjson::Value>&>(std::__ndk1::__variant_detail::__dtor<std::__ndk1::__variant_detail::__traits<matjson::Value, std::__ndk1::__variant_detail::__traits::ParseError>, (std::__ndk1::__variant_detail::_Trait)1>, std::__ndk1::__variant_detail::__base<(std::__ndk1::__variant_detail::__traits<matjson::Value, std::__ndk1::__variant_detail::__traits::ParseError>)1, matjson, matjson::Value>&)
FUNC 29cdc 3a 0 std::__ndk1::__tree<std::__ndk1::__value_type<std::__ndk1::basic_string<char, std::__ndk1::char_traits<char>, std::__ndk1::allocator<char> >, std::__ndk1::pair<std::__ndk1::basic_string<char, std::__ndk1::char_traits<char>, std::__ndk1::allocator<char> >, float> >, std::__ndk1::__map_value_compare<std::__ndk1::basic_string<char, std::__ndk1::char_traits<char>, std::__ndk1::allocator<char> >, std::__ndk1::__value_type<std::__ndk1::basic_string<char, std::__ndk1::char_traits<char>, std::__ndk1::allocator<char> >, std::__ndk1::pair<std::__ndk1::basic_string<char, std::__ndk1::char_traits<char>, std::__ndk1::allocator<char> >, float> >, std::__ndk1::less<std::__ndk1::basic_string<char, std::__ndk1::char_traits<char>, std::__ndk1::allocator<char> > >, true>, std::__ndk1::allocator<std::__ndk1::__value_type<std::__ndk1::basic_string<char, std::__ndk1::char_traits<char>, std::__ndk1::allocator<char> >, std::__ndk1::pair<std::__ndk1::basic_string<char, std::__ndk1::char_traits<char>, std::__ndk1::allocator<char> >, float> > > >::destroy(std::__ndk1::__tree_node<std::__ndk1::__value_type<std::__ndk1::basic_string<char, std::__ndk1::char_traits<char>, std::__ndk1::allocator<char> >, std::__ndk1::pair<std::__ndk1::basic_string<char, std::__ndk1::char_traits<char>, std::__ndk1::allocator<char> >, float> >, void*>*)
FUNC 29d18 10 0 std::__ndk1::__shared_ptr_emplace<MainButtonsSettingV3, std::__ndk1::allocator<MainButtonsSettingV3> >::~__shared_ptr_emplace()
FUNC 29d28 1c 0 std::__ndk1::__shared_ptr_emplace<MainButtonsSettingV3, std::__ndk1::allocator<MainButtonsSettingV3> >::~__shared_ptr_emplace()
FUNC 29d44 8 0 std::__ndk1::__shared_ptr_emplace<MainButtonsSettingV3, std::__ndk1::allocator<MainButtonsSettingV3> >::__on_zero_shared()
FUNC 29d4c 4 0 std::__ndk1::__shared_ptr_emplace<MainButtonsSettingV3, std::__ndk1::allocator<MainButtonsSettingV3> >::__on_zero_shared_weak()
FUNC 29d50 60 0 geode::impl::ResultData<void, std::__ndk1::basic_string<char, std::__ndk1::char_traits<char>, std::__ndk1::allocator<char> > >::~ResultData()
FUNC 29db0 34 0 std::__ndk1::__throw_bad_weak_ptr[abi:ne180000]()
FUNC 29de4 2 0 std::__ndk1::__function::__base<geode::Result<std::__ndk1::shared_ptr<geode::SettingV3>, std::__ndk1::basic_string<char, std::__ndk1::char_traits<char>, std::__ndk1::allocator<char> > >(std::__ndk1::basic_string<char, std::__ndk1::char_traits<char>, std::__ndk1::allocator<char> > const&, std::__ndk1::basic_string<char, std::__ndk1::char_traits<char>, std::__ndk1::allocator<char> > const&, matjson::Value const&)>::~__base()
FUNC 29de6 4 0 std::__ndk1::__function::__func<geode::Result<std::__ndk1::shared_ptr<geode::SettingV3>, std::__ndk1::basic_string<char, std::__ndk1::char_traits<char>, std::__ndk1::allocator<char> > > (*)(std::__ndk1::basic_string<char, std::__ndk1::char_traits<char>, std::__ndk1::allocator<char> > const&, std::__ndk1::basic_string<char, std::__ndk1::char_traits<char>, std::__ndk1::allocator<char> > const&, matjson::Value const&), std::__ndk1::allocator<geode::Result<std::__ndk1::shared_ptr<geode::SettingV3>, std::__ndk1::basic_string<char, std::__ndk1::char_traits<char>, std::__ndk1::allocator<char> > > (*)(std::__ndk1::basic_string<char, std::__ndk1::char_traits<char>, std::__ndk1::allocator<char> > const&, std::__ndk1::basic_string<char, std::__ndk1::char_traits<char>, std::__ndk1::allocator<char> > const&, matjson::Value const&)>, geode::Result<std::__ndk1::shared_ptr<geode::SettingV3>, std::__ndk1::basic_string<char, std::__ndk1::char_traits<char>, std::__ndk1::allocator<char> > >(std::__ndk1::basic_string<char, std::__ndk1::char_traits<char>, std::__ndk1::allocator<char> > const&, std::__ndk1::basic_string<char, std::__ndk1::char_traits<char>, std::__ndk1::allocator<char> > const&, matjson::Value const&)>::~__func()
FUNC 29dec 20 0 std::__ndk1::__function::__func<geode::Result<std::__ndk1::shared_ptr<geode::SettingV3>, std::__ndk1::basic_string<char, std::__ndk1::char_traits<char>, std::__ndk1::allocator<char> > > (*)(std::__ndk1::basic_string<char, std::__ndk1::char_traits<char>, std::__ndk1::allocator<char> > const&, std::__ndk1::basic_string<char, std::__ndk1::char_traits<char>, std::__ndk1::allocator<char> > const&, matjson::Value const&), std::__ndk1::allocator<geode::Result<std::__ndk1::shared_ptr<geode::SettingV3>, std::__ndk1::basic_string<char, std::__ndk1::char_traits<char>, std::__ndk1::allocator<char> > > (*)(std::__ndk1::basic_string<char, std::__ndk1::char_traits<char>, std::__ndk1::allocator<char> > const&, std::__ndk1::basic_string<char, std::__ndk1::char_traits<char>, std::__ndk1::allocator<char> > const&, matjson::Value const&)>, geode::Result<std::__ndk1::shared_ptr<geode::SettingV3>, std::__ndk1::basic_string<char, std::__ndk1::char_traits<char>, std::__ndk1::allocator<char> > >(std::__ndk1::basic_string<char, std::__ndk1::char_traits<char>, std::__ndk1::allocator<char> > const&, std::__ndk1::basic_string<char, std::__ndk1::char_traits<char>, std::__ndk1::allocator<char> > const&, matjson::Value const&)>::__clone() const
FUNC 29e0c 14 0 std::__ndk1::__function::__func<geode::Result<std::__ndk1::shared_ptr<geode::SettingV3>, std::__ndk1::basic_string<char, std::__ndk1::char_traits<char>, std::__ndk1::allocator<char> > > (*)(std::__ndk1::basic_string<char, std::__ndk1::char_traits<char>, std::__ndk1::allocator<char> > const&, std::__ndk1::basic_string<char, std::__ndk1::char_traits<char>, std::__ndk1::allocator<char> > const&, matjson::Value const&), std::__ndk1::allocator<geode::Result<std::__ndk1::shared_ptr<geode::SettingV3>, std::__ndk1::basic_string<char, std::__ndk1::char_traits<char>, std::__ndk1::allocator<char> > > (*)(std::__ndk1::basic_string<char, std::__ndk1::char_traits<char>, std::__ndk1::allocator<char> > const&, std::__ndk1::basic_string<char, std::__ndk1::char_traits<char>, std::__ndk1::allocator<char> > const&, matjson::Value const&)>, geode::Result<std::__ndk1::shared_ptr<geode::SettingV3>, std::__ndk1::basic_string<char, std::__ndk1::char_traits<char>, std::__ndk1::allocator<char> > >(std::__ndk1::basic_string<char, std::__ndk1::char_traits<char>, std::__ndk1::allocator<char> > const&, std::__ndk1::basic_string<char, std::__ndk1::char_traits<char>, std::__ndk1::allocator<char> > const&, matjson::Value const&)>::__clone(std::__ndk1::__function::__base<geode::Result<std::__ndk1::shared_ptr<geode::SettingV3>, std::__ndk1::basic_string<char, std::__ndk1::char_traits<char>, std::__ndk1::allocator<char> > >(std::__ndk1::basic_string<char, std::__ndk1::char_traits<char>, std::__ndk1::allocator<char> > const&, std::__ndk1::basic_string<char, std::__ndk1::char_traits<char>, std::__ndk1::allocator<char> > const&, matjson::Value const&)>*) const
FUNC 29e20 2 0 std::__ndk1::__function::__func<geode::Result<std::__ndk1::shared_ptr<geode::SettingV3>, std::__ndk1::basic_string<char, std::__ndk1::char_traits<char>, std::__ndk1::allocator<char> > > (*)(std::__ndk1::basic_string<char, std::__ndk1::char_traits<char>, std::__ndk1::allocator<char> > const&, std::__ndk1::basic_string<char, std::__ndk1::char_traits<char>, std::__ndk1::allocator<char> > const&, matjson::Value const&), std::__ndk1::allocator<geode::Result<std::__ndk1::shared_ptr<geode::SettingV3>, std::__ndk1::basic_string<char, std::__ndk1::char_traits<char>, std::__ndk1::allocator<char> > > (*)(std::__ndk1::basic_string<char, std::__ndk1::char_traits<char>, std::__ndk1::allocator<char> > const&, std::__ndk1::basic_string<char, std::__ndk1::char_traits<char>, std::__ndk1::allocator<char> > const&, matjson::Value const&)>, geode::Result<std::__ndk1::shared_ptr<geode::SettingV3>, std::__ndk1::basic_string<char, std::__ndk1::char_traits<char>, std::__ndk1::allocator<char> > >(std::__ndk1::basic_string<char, std::__ndk1::char_traits<char>, std::__ndk1::allocator<char> > const&, std::__ndk1::basic_string<char, std::__ndk1::char_traits<char>, std::__ndk1::allocator<char> > const&, matjson::Value const&)>::destroy()
FUNC 29e22 4 0 std::__ndk1::__function::__func<geode::Result<std::__ndk1::shared_ptr<geode::SettingV3>, std::__ndk1::basic_string<char, std::__ndk1::char_traits<char>, std::__ndk1::allocator<char> > > (*)(std::__ndk1::basic_string<char, std::__ndk1::char_traits<char>, std::__ndk1::allocator<char> > const&, std::__ndk1::basic_string<char, std::__ndk1::char_traits<char>, std::__ndk1::allocator<char> > const&, matjson::Value const&), std::__ndk1::allocator<geode::Result<std::__ndk1::shared_ptr<geode::SettingV3>, std::__ndk1::basic_string<char, std::__ndk1::char_traits<char>, std::__ndk1::allocator<char> > > (*)(std::__ndk1::basic_string<char, std::__ndk1::char_traits<char>, std::__ndk1::allocator<char> > const&, std::__ndk1::basic_string<char, std::__ndk1::char_traits<char>, std::__ndk1::allocator<char> > const&, matjson::Value const&)>, geode::Result<std::__ndk1::shared_ptr<geode::SettingV3>, std::__ndk1::basic_string<char, std::__ndk1::char_traits<char>, std::__ndk1::allocator<char> > >(std::__ndk1::basic_string<char, std::__ndk1::char_traits<char>, std::__ndk1::allocator<char> > const&, std::__ndk1::basic_string<char, std::__ndk1::char_traits<char>, std::__ndk1::allocator<char> > const&, matjson::Value const&)>::destroy_deallocate()
FUNC 29e26 14 0 std::__ndk1::__function::__func<geode::Result<std::__ndk1::shared_ptr<geode::SettingV3>, std::__ndk1::basic_string<char, std::__ndk1::char_traits<char>, std::__ndk1::allocator<char> > > (*)(std::__ndk1::basic_string<char, std::__ndk1::char_traits<char>, std::__ndk1::allocator<char> > const&, std::__ndk1::basic_string<char, std::__ndk1::char_traits<char>, std::__ndk1::allocator<char> > const&, matjson::Value const&), std::__ndk1::allocator<geode::Result<std::__ndk1::shared_ptr<geode::SettingV3>, std::__ndk1::basic_string<char, std::__ndk1::char_traits<char>, std::__ndk1::allocator<char> > > (*)(std::__ndk1::basic_string<char, std::__ndk1::char_traits<char>, std::__ndk1::allocator<char> > const&, std::__ndk1::basic_string<char, std::__ndk1::char_traits<char>, std::__ndk1::allocator<char> > const&, matjson::Value const&)>, geode::Result<std::__ndk1::shared_ptr<geode::SettingV3>, std::__ndk1::basic_string<char, std::__ndk1::char_traits<char>, std::__ndk1::allocator<char> > >(std::__ndk1::basic_string<char, std::__ndk1::char_traits<char>, std::__ndk1::allocator<char> > const&, std::__ndk1::basic_string<char, std::__ndk1::char_traits<char>, std::__ndk1::allocator<char> > const&, matjson::Value const&)>::operator()(std::__ndk1::basic_string<char, std::__ndk1::char_traits<char>, std::__ndk1::allocator<char> > const&, std::__ndk1::basic_string<char, std::__ndk1::char_traits<char>, std::__ndk1::allocator<char> > const&, matjson::Value const&)
FUNC 29e3c 18 0 std::__ndk1::__function::__func<geode::Result<std::__ndk1::shared_ptr<geode::SettingV3>, std::__ndk1::basic_string<char, std::__ndk1::char_traits<char>, std::__ndk1::allocator<char> > > (*)(std::__ndk1::basic_string<char, std::__ndk1::char_traits<char>, std::__ndk1::allocator<char> > const&, std::__ndk1::basic_string<char, std::__ndk1::char_traits<char>, std::__ndk1::allocator<char> > const&, matjson::Value const&), std::__ndk1::allocator<geode::Result<std::__ndk1::shared_ptr<geode::SettingV3>, std::__ndk1::basic_string<char, std::__ndk1::char_traits<char>, std::__ndk1::allocator<char> > > (*)(std::__ndk1::basic_string<char, std::__ndk1::char_traits<char>, std::__ndk1::allocator<char> > const&, std::__ndk1::basic_string<char, std::__ndk1::char_traits<char>, std::__ndk1::allocator<char> > const&, matjson::Value const&)>, geode::Result<std::__ndk1::shared_ptr<geode::SettingV3>, std::__ndk1::basic_string<char, std::__ndk1::char_traits<char>, std::__ndk1::allocator<char> > >(std::__ndk1::basic_string<char, std::__ndk1::char_traits<char>, std::__ndk1::allocator<char> > const&, std::__ndk1::basic_string<char, std::__ndk1::char_traits<char>, std::__ndk1::allocator<char> > const&, matjson::Value const&)>::target(std::type_info const&) const
FUNC 29e54 c 0 std::__ndk1::__function::__func<geode::Result<std::__ndk1::shared_ptr<geode::SettingV3>, std::__ndk1::basic_string<char, std::__ndk1::char_traits<char>, std::__ndk1::allocator<char> > > (*)(std::__ndk1::basic_string<char, std::__ndk1::char_traits<char>, std::__ndk1::allocator<char> > const&, std::__ndk1::basic_string<char, std::__ndk1::char_traits<char>, std::__ndk1::allocator<char> > const&, matjson::Value const&), std::__ndk1::allocator<geode::Result<std::__ndk1::shared_ptr<geode::SettingV3>, std::__ndk1::basic_string<char, std::__ndk1::char_traits<char>, std::__ndk1::allocator<char> > > (*)(std::__ndk1::basic_string<char, std::__ndk1::char_traits<char>, std::__ndk1::allocator<char> > const&, std::__ndk1::basic_string<char, std::__ndk1::char_traits<char>, std::__ndk1::allocator<char> > const&, matjson::Value const&)>, geode::Result<std::__ndk1::shared_ptr<geode::SettingV3>, std::__ndk1::basic_string<char, std::__ndk1::char_traits<char>, std::__ndk1::allocator<char> > >(std::__ndk1::basic_string<char, std::__ndk1::char_traits<char>, std::__ndk1::allocator<char> > const&, std::__ndk1::basic_string<char, std::__ndk1::char_traits<char>, std::__ndk1::allocator<char> > const&, matjson::Value const&)>::target_type() const
FUNC 29e60 ca0 0 _GLOBAL__sub_I_MainButtonsSettingV3.cpp
FUNC 2ab00 17c 0 MiniButton::init(std::__ndk1::basic_string<char, std::__ndk1::char_traits<char>, std::__ndk1::allocator<char> >, float, cocos2d::_ccColor3B, cocos2d::CCObject*, void (cocos2d::CCObject::*)(cocos2d::CCObject*), std::__ndk1::basic_string<char, std::__ndk1::char_traits<char>, std::__ndk1::allocator<char> >)
FUNC 2ac7c 114 0 MiniButton::create(std::__ndk1::basic_string<char, std::__ndk1::char_traits<char>, std::__ndk1::allocator<char> >, float, cocos2d::_ccColor3B, cocos2d::CCObject*, void (cocos2d::CCObject::*)(cocos2d::CCObject*), std::__ndk1::basic_string<char, std::__ndk1::char_traits<char>, std::__ndk1::allocator<char> >)
FUNC 2ad90 364 0 MiniRDButton::init(std::__ndk1::basic_string<char, std::__ndk1::char_traits<char>, std::__ndk1::allocator<char> >, float, cocos2d::_ccColor3B, cocos2d::CCObject*, void (cocos2d::CCObject::*)(cocos2d::CCObject*), std::__ndk1::basic_string<char, std::__ndk1::char_traits<char>, std::__ndk1::allocator<char> >)
FUNC 2b0f4 114 0 MiniRDButton::create(std::__ndk1::basic_string<char, std::__ndk1::char_traits<char>, std::__ndk1::allocator<char> >, float, cocos2d::_ccColor3B, cocos2d::CCObject*, void (cocos2d::CCObject::*)(cocos2d::CCObject*), std::__ndk1::basic_string<char, std::__ndk1::char_traits<char>, std::__ndk1::allocator<char> >)
FUNC 2b208 38 0 MiniButton::~MiniButton()
FUNC 2b240 2 0 cocos2d::CCNodeRGBA::setOpacityModifyRGB(bool)
FUNC 2b242 4 0 cocos2d::CCNodeRGBA::isOpacityModifyRGB()
FUNC 2b246 2 0 {virtual override thunk({offset(-264)}, cocos2d::CCNodeRGBA::setOpacityModifyRGB(bool))}
FUNC 2b248 4 0 {virtual override thunk({offset(-264)}, cocos2d::CCNodeRGBA::isOpacityModifyRGB())}
FUNC 2b24c 38 0 MiniRDButton::~MiniRDButton()
FUNC 2b284 5dc 0 StatsSettingNodeV3::init(std::__ndk1::shared_ptr<StatsSettingV3>, float)
FUNC 2b860 5bc 0 StatsSettingNodeV3::updateState(cocos2d::CCNode*)
FUNC 2be1c 268 0 StatsSettingNodeV3::onRemove(cocos2d::CCObject*)
FUNC 2c084 268 0 StatsSettingNodeV3::onAdd(cocos2d::CCObject*)
FUNC 2c2ec a0 0 StatsSettingNodeV3::onCommit()
FUNC 2c38c 238 0 StatsSettingNodeV3::onResetToDefault()
FUNC 2c5c4 9c 0 StatsSettingNodeV3::hasUncommittedChanges() const
FUNC 2c660 1c 0 StatsSettingNodeV3::hasNonDefaultValue() const
FUNC 2c67c 108 0 StatsSettingNodeV3::create(std::__ndk1::shared_ptr<StatsSettingV3>, float)
FUNC 2c784 78 0 StatsSettingNodeV3::~StatsSettingNodeV3()
FUNC 2c7fc 70 0 StatsSettingNodeV3::~StatsSettingNodeV3()
FUNC 2c86c d0 0 std::__ndk1::__tree<std::__ndk1::__value_type<std::__ndk1::basic_string<char, std::__ndk1::char_traits<char>, std::__ndk1::allocator<char> >, std::__ndk1::basic_string<char, std::__ndk1::char_traits<char>, std::__ndk1::allocator<char> > >, std::__ndk1::__map_value_compare<std::__ndk1::basic_string<char, std::__ndk1::char_traits<char>, std::__ndk1::allocator<char> >, std::__ndk1::__value_type<std::__ndk1::basic_string<char, std::__ndk1::char_traits<char>, std::__ndk1::allocator<char> >, std::__ndk1::basic_string<char, std::__ndk1::char_traits<char>, std::__ndk1::allocator<char> > >, std::__ndk1::less<std::__ndk1::basic_string<char, std::__ndk1::char_traits<char>, std::__ndk1::allocator<char> > >, true>, std::__ndk1::allocator<std::__ndk1::__value_type<std::__ndk1::basic_string<char, std::__ndk1::char_traits<char>, std::__ndk1::allocator<char> >, std::__ndk1::basic_string<char, std::__ndk1::char_traits<char>, std::__ndk1::allocator<char> > > > >::__emplace_unique_key_args<std::__ndk1::basic_string<char, std::__ndk1::char_traits<char>, std::__ndk1::allocator<char> >, std::__ndk1::piecewise_construct_t const&, std::__ndk1::tuple<std::__ndk1::basic_string<char, std::__ndk1::char_traits<char>, std::__ndk1::allocator<char> > const&>, std::__ndk1::tuple<> >(std::__ndk1::basic_string<char, std::__ndk1::char_traits<char>, std::__ndk1::allocator<char> > const&, std::__ndk1::piecewise_construct_t const&, std::__ndk1::tuple<std::__ndk1::basic_string<char, std::__ndk1::char_traits<char>, std::__ndk1::allocator<char> > const&>, std::__ndk1::tuple<>)
FUNC 2c93c ba 0 std::__ndk1::__tree<std::__ndk1::__value_type<std::__ndk1::basic_string<char, std::__ndk1::char_traits<char>, std::__ndk1::allocator<char> >, std::__ndk1::basic_string<char, std::__ndk1::char_traits<char>, std::__ndk1::allocator<char> > >, std::__ndk1::__map_value_compare<std::__ndk1::basic_string<char, std::__ndk1::char_traits<char>, std::__ndk1::allocator<char> >, std::__ndk1::__value_type<std::__ndk1::basic_string<char, std::__ndk1::char_traits<char>, std::__ndk1::allocator<char> >, std::__ndk1::basic_string<char, std::__ndk1::char_traits<char>, std::__ndk1::allocator<char> > >, std::__ndk1::less<std::__ndk1::basic_string<char, std::__ndk1::char_traits<char>, std::__ndk1::allocator<char> > >, true>, std::__ndk1::allocator<std::__ndk1::__value_type<std::__ndk1::basic_string<char, std::__ndk1::char_traits<char>, std::__ndk1::allocator<char> >, std::__ndk1::basic_string<char, std::__ndk1::char_traits<char>, std::__ndk1::allocator<char> > > > >::__find_equal<std::__ndk1::basic_string<char, std::__ndk1::char_traits<char>, std::__ndk1::allocator<char> > >(std::__ndk1::__tree_end_node<std::__ndk1::__tree_node_base<void*>*>*&, std::__ndk1::basic_string<char, std::__ndk1::char_traits<char>, std::__ndk1::allocator<char> > const&)
FUNC 2c9f6 34 0 std::__ndk1::unique_ptr<std::__ndk1::__tree_node<std::__ndk1::__value_type<std::__ndk1::basic_string<char, std::__ndk1::char_traits<char>, std::__ndk1::allocator<char> >, std::__ndk1::basic_string<char, std::__ndk1::char_traits<char>, std::__ndk1::allocator<char> > >, void*>, std::__ndk1::__tree_node_destructor<std::__ndk1::allocator<std::__ndk1::__tree_node<std::__ndk1::__value_type<std::__ndk1::basic_string<char, std::__ndk1::char_traits<char>, std::__ndk1::allocator<char> >, std::__ndk1::basic_string<char, std::__ndk1::char_traits<char>, std::__ndk1::allocator<char> > >, void*> > > >::~unique_ptr[abi:ne180000]()
FUNC 2ca2a c2 0 _ZNSt6__ndk14pairIKNS_12basic_stringIcNS_11char_traitsIcEENS_9allocatorIcEEEES6_EC2B8ne180000IRA12_KcRA21_SA_TnNS_9enable_ifIXclsr10_CheckArgsE17__enable_implicitIT_T0_EEEiE4typeELi0EEEOSG_OSH_
FUNC 2caec 22 0 std::__ndk1::pair<std::__ndk1::basic_string<char, std::__ndk1::char_traits<char>, std::__ndk1::allocator<char> > const, std::__ndk1::basic_string<char, std::__ndk1::char_traits<char>, std::__ndk1::allocator<char> > >::~pair()
FUNC 2cb0e 10 0 std::__ndk1::map<std::__ndk1::basic_string<char, std::__ndk1::char_traits<char>, std::__ndk1::allocator<char> >, std::__ndk1::basic_string<char, std::__ndk1::char_traits<char>, std::__ndk1::allocator<char> >, std::__ndk1::less<std::__ndk1::basic_string<char, std::__ndk1::char_traits<char>, std::__ndk1::allocator<char> > >, std::__ndk1::allocator<std::__ndk1::pair<std::__ndk1::basic_string<char, std::__ndk1::char_traits<char>, std::__ndk1::allocator<char> > const, std::__ndk1::basic_string<char, std::__ndk1::char_traits<char>, std::__ndk1::allocator<char> > > > >::~map[abi:ne180000]()
FUNC 2cb20 1f0 0 StatsSettingV3::parse(std::__ndk1::basic_string<char, std::__ndk1::char_traits<char>, std::__ndk1::allocator<char> > const&, std::__ndk1::basic_string<char, std::__ndk1::char_traits<char>, std::__ndk1::allocator<char> > const&, matjson::Value const&)
FUNC 2cd10 5e8 0 StatsSettingV3::load(matjson::Value const&)
FUNC 2d2f8 58 0 StatsSettingV3::save(matjson::Value&) const
FUNC 2d350 d0 0 StatsSettingV3::createNode(float)
FUNC 2d420 10 0 StatsSettingV3::isDefaultValue() const
FUNC 2d430 60 0 StatsSettingV3::reset()
FUNC 2d490 28 0 StatsSettingV3::~StatsSettingV3()
FUNC 2d4b8 2c 0 StatsSettingV3::~StatsSettingV3()
FUNC 2d4e4 3a 0 std::__ndk1::__tree<std::__ndk1::__value_type<std::__ndk1::basic_string<char, std::__ndk1::char_traits<char>, std::__ndk1::allocator<char> >, std::__ndk1::basic_string<char, std::__ndk1::char_traits<char>, std::__ndk1::allocator<char> > >, std::__ndk1::__map_value_compare<std::__ndk1::basic_string<char, std::__ndk1::char_traits<char>, std::__ndk1::allocator<char> >, std::__ndk1::__value_type<std::__ndk1::basic_string<char, std::__ndk1::char_traits<char>, std::__ndk1::allocator<char> >, std::__ndk1::basic_string<char, std::__ndk1::char_traits<char>, std::__ndk1::allocator<char> > >, std::__ndk1::less<std::__ndk1::basic_string<char, std::__ndk1::char_traits<char>, std::__ndk1::allocator<char> > >, true>, std::__ndk1::allocator<std::__ndk1::__value_type<std::__ndk1::basic_string<char, std::__ndk1::char_traits<char>, std::__ndk1::allocator<char> >, std::__ndk1::basic_string<char, std::__ndk1::char_traits<char>, std::__ndk1::allocator<char> > > > >::destroy(std::__ndk1::__tree_node<std::__ndk1::__value_type<std::__ndk1::basic_string<char, std::__ndk1::char_traits<char>, std::__ndk1::allocator<char> >, std::__ndk1::basic_string<char, std::__ndk1::char_traits<char>, std::__ndk1::allocator<char> > >, void*>*)
FUNC 2d520 10 0 std::__ndk1::__shared_ptr_emplace<StatsSettingV3, std::__ndk1::allocator<StatsSettingV3> >::~__shared_ptr_emplace()
FUNC 2d530 1c 0 std::__ndk1::__shared_ptr_emplace<StatsSettingV3, std::__ndk1::allocator<StatsSettingV3> >::~__shared_ptr_emplace()
FUNC 2d54c 8 0 std::__ndk1::__shared_ptr_emplace<StatsSettingV3, std::__ndk1::allocator<StatsSettingV3> >::__on_zero_shared()
FUNC 2d554 4 0 std::__ndk1::__shared_ptr_emplace<StatsSettingV3, std::__ndk1::allocator<StatsSettingV3> >::__on_zero_shared_weak()
FUNC 2d558 750 0 _GLOBAL__sub_I_StatsSettingV3.cpp
FUNC 2dca8 f8 0 RDButton::getLeaderboardRankFailed()
FUNC 2dda0 d8 0 RDButton::updateLeaderboardLabel()
FUNC 2de78 c0 0 RDButton::updateQuestsLabel()
FUNC 2df38 b28 0 RDButton::create(cocos2d::CCObject*, std::__ndk1::basic_string<char, std::__ndk1::char_traits<char>, std::__ndk1::allocator<char> >, std::__ndk1::vector<std::__ndk1::basic_string<char, std::__ndk1::char_traits<char>, std::__ndk1::allocator<char> >, std::__ndk1::allocator<std::__ndk1::basic_string<char, std::__ndk1::char_traits<char>, std::__ndk1::allocator<char> > > >, std::__ndk1::basic_string<char, std::__ndk1::char_traits<char>, std::__ndk1::allocator<char> >, float, void (cocos2d::CCObject::*)(cocos2d::CCObject*), std::__ndk1::basic_string<char, std::__ndk1::char_traits<char>, std::__ndk1::allocator<char> >)
FUNC 2ea60 38 0 RDButton::~RDButton()
FUNC 2ea98 a8 0 RDMainButton::onPlay(cocos2d::CCObject*)
FUNC 2eb40 144 0 geode::Mod::getSavedValue<long long>(std::__ndk1::basic_string_view<char, std::__ndk1::char_traits<char> >, long long const&)
FUNC 2ec84 16ac 0 RDMainButton::init(cocos2d::CCPoint, cocos2d::CCSize, std::__ndk1::basic_string<char, std::__ndk1::char_traits<char>, std::__ndk1::allocator<char> >, float)
FUNC 30330 f8 0 RDMainButton::create(cocos2d::CCPoint, cocos2d::CCSize, std::__ndk1::basic_string<char, std::__ndk1::char_traits<char>, std::__ndk1::allocator<char> >, float)
FUNC 30428 38 0 RDMainButton::~RDMainButton()
FUNC 30460 710 0 RDStatsNode::create(std::__ndk1::basic_string<char, std::__ndk1::char_traits<char>, std::__ndk1::allocator<char> >, std::__ndk1::basic_string<char, std::__ndk1::char_traits<char>, std::__ndk1::allocator<char> >, std::__ndk1::basic_string<char, std::__ndk1::char_traits<char>, std::__ndk1::allocator<char> >)
FUNC 30b70 10 0 RDStatsNode::~RDStatsNode()
FUNC 30b80 d4 0 RDDailyNode::create(cocos2d::CCSize, std::__ndk1::basic_string<char, std::__ndk1::char_traits<char>, std::__ndk1::allocator<char> >, float)
FUNC 30c54 1c0 0 RDDailyNode::updateTimeLabel(float)
FUNC 30e14 f0 0 RDDailyNode::createBG(cocos2d::CCSize, float)
FUNC 30f04 5e8 0 RDDailyNode::init(cocos2d::CCSize, std::__ndk1::basic_string<char, std::__ndk1::char_traits<char>, std::__ndk1::allocator<char> >, float)
FUNC 314ec 2e8 0 RDDailyNode::setupLevelMenu(GJGameLevel*)
FUNC 317d4 ec 0 RDDailyNode::onSkipLevel(cocos2d::CCObject*)
FUNC 318c0 48 0 RDDailyNode::onReload(cocos2d::CCObject*)
FUNC 31908 2c 0 RDDailyNode::onTheSafe(cocos2d::CCObject*)
FUNC 31934 320 0 RDDailyNode::onClaimReward(cocos2d::CCObject*)
FUNC 31c54 80 0 geode::Mod::setSavedValue<bool>(std::__ndk1::basic_string_view<char, std::__ndk1::char_traits<char> >, bool const&)
FUNC 31cd4 1bc 0 RDDailyNode::setupBonusMenu(GJGameLevel*)
FUNC 31e90 8c 0 RDTimelyNode::~RDTimelyNode()
FUNC 31f1c 90 0 RDDailyNode::~RDDailyNode()
FUNC 31fac c4 0 RDTimelyNode::RDTimelyNode()
FUNC 32070 3a 0 geode::Task<geode::utils::web::WebResponse, geode::utils::web::WebProgress>::~Task()
FUNC 320ac 168 0 geode::Task<geode::utils::web::WebResponse, geode::utils::web::WebProgress>::setListener(geode::EventListenerProtocol*)
FUNC 32214 4 0 geode::EventListener<geode::Task<geode::utils::web::WebResponse, geode::utils::web::WebProgress> >::getPool() const
FUNC 32218 e8 0 geode::EventListener<geode::Task<geode::utils::web::WebResponse, geode::utils::web::WebProgress> >::handle(geode::Event*)
FUNC 32300 68 0 geode::EventListener<geode::Task<geode::utils::web::WebResponse, geode::utils::web::WebProgress> >::~EventListener()
FUNC 32368 6c 0 geode::EventListener<geode::Task<geode::utils::web::WebResponse, geode::utils::web::WebProgress> >::~EventListener()
FUNC 323d4 3a 0 geode::Task<geode::utils::web::WebResponse, geode::utils::web::WebProgress>::setListener(geode::EventListenerProtocol*)::{lambda()#1}::~{lambda()#1}()
FUNC 3240e 3a 0 geode::Task<geode::utils::web::WebResponse, geode::utils::web::WebProgress>::setListener(geode::EventListenerProtocol*)::{lambda()#2}::~{lambda()#2}()
FUNC 32448 48 0 std::__ndk1::__function::__func<geode::Task<geode::utils::web::WebResponse, geode::utils::web::WebProgress>::setListener(geode::EventListenerProtocol*)::{lambda()#1}, std::__ndk1::allocator<geode::Task<geode::utils::web::WebResponse, geode::utils::web::WebProgress>::setListener(geode::EventListenerProtocol*)::{lambda()#1}>, void ()>::~__func()
FUNC 32490 54 0 std::__ndk1::__function::__func<geode::Task<geode::utils::web::WebResponse, geode::utils::web::WebProgress>::setListener(geode::EventListenerProtocol*)::{lambda()#1}, std::__ndk1::allocator<geode::Task<geode::utils::web::WebResponse, geode::utils::web::WebProgress>::setListener(geode::EventListenerProtocol*)::{lambda()#1}>, void ()>::~__func()
FUNC 324e4 40 0 std::__ndk1::__function::__func<geode::Task<geode::utils::web::WebResponse, geode::utils::web::WebProgress>::setListener(geode::EventListenerProtocol*)::{lambda()#1}, std::__ndk1::allocator<geode::Task<geode::utils::web::WebResponse, geode::utils::web::WebProgress>::setListener(geode::EventListenerProtocol*)::{lambda()#1}>, void ()>::__clone() const
FUNC 32524 34 0 std::__ndk1::__function::__func<geode::Task<geode::utils::web::WebResponse, geode::utils::web::WebProgress>::setListener(geode::EventListenerProtocol*)::{lambda()#1}, std::__ndk1::allocator<geode::Task<geode::utils::web::WebResponse, geode::utils::web::WebProgress>::setListener(geode::EventListenerProtocol*)::{lambda()#1}>, void ()>::__clone(std::__ndk1::__function::__base<void ()>*) const
FUNC 32558 3a 0 std::__ndk1::__function::__func<geode::Task<geode::utils::web::WebResponse, geode::utils::web::WebProgress>::setListener(geode::EventListenerProtocol*)::{lambda()#1}, std::__ndk1::allocator<geode::Task<geode::utils::web::WebResponse, geode::utils::web::WebProgress>::setListener(geode::EventListenerProtocol*)::{lambda()#1}>, void ()>::destroy()
FUNC 32592 44 0 std::__ndk1::__function::__func<geode::Task<geode::utils::web::WebResponse, geode::utils::web::WebProgress>::setListener(geode::EventListenerProtocol*)::{lambda()#1}, std::__ndk1::allocator<geode::Task<geode::utils::web::WebResponse, geode::utils::web::WebProgress>::setListener(geode::EventListenerProtocol*)::{lambda()#1}>, void ()>::destroy_deallocate()
FUNC 325d6 6 0 std::__ndk1::__function::__func<geode::Task<geode::utils::web::WebResponse, geode::utils::web::WebProgress>::setListener(geode::EventListenerProtocol*)::{lambda()#1}, std::__ndk1::allocator<geode::Task<geode::utils::web::WebResponse, geode::utils::web::WebProgress>::setListener(geode::EventListenerProtocol*)::{lambda()#1}>, void ()>::operator()()
FUNC 325dc 18 0 std::__ndk1::__function::__func<geode::Task<geode::utils::web::WebResponse, geode::utils::web::WebProgress>::setListener(geode::EventListenerProtocol*)::{lambda()#1}, std::__ndk1::allocator<geode::Task<geode::utils::web::WebResponse, geode::utils::web::WebProgress>::setListener(geode::EventListenerProtocol*)::{lambda()#1}>, void ()>::target(std::type_info const&) const
FUNC 325f4 c 0 std::__ndk1::__function::__func<geode::Task<geode::utils::web::WebResponse, geode::utils::web::WebProgress>::setListener(geode::EventListenerProtocol*)::{lambda()#1}, std::__ndk1::allocator<geode::Task<geode::utils::web::WebResponse, geode::utils::web::WebProgress>::setListener(geode::EventListenerProtocol*)::{lambda()#1}>, void ()>::target_type() const
FUNC 32600 150 0 geode::Task<geode::utils::web::WebResponse, geode::utils::web::WebProgress>::setListener(geode::EventListenerProtocol*)::{lambda()#1}::operator()() const
FUNC 32750 44 0 geode::Task<geode::utils::web::WebResponse, geode::utils::web::WebProgress>::Event::~Event()
FUNC 32794 40 0 geode::Task<geode::utils::web::WebResponse, geode::utils::web::WebProgress>::Event::~Event()
FUNC 327d4 48 0 std::__ndk1::__function::__func<geode::Task<geode::utils::web::WebResponse, geode::utils::web::WebProgress>::setListener(geode::EventListenerProtocol*)::{lambda()#2}, std::__ndk1::allocator<geode::Task<geode::utils::web::WebResponse, geode::utils::web::WebProgress>::setListener(geode::EventListenerProtocol*)::{lambda()#2}>, void ()>::~__func()
FUNC 3281c 54 0 std::__ndk1::__function::__func<geode::Task<geode::utils::web::WebResponse, geode::utils::web::WebProgress>::setListener(geode::EventListenerProtocol*)::{lambda()#2}, std::__ndk1::allocator<geode::Task<geode::utils::web::WebResponse, geode::utils::web::WebProgress>::setListener(geode::EventListenerProtocol*)::{lambda()#2}>, void ()>::~__func()
FUNC 32870 3c 0 std::__ndk1::__function::__func<geode::Task<geode::utils::web::WebResponse, geode::utils::web::WebProgress>::setListener(geode::EventListenerProtocol*)::{lambda()#2}, std::__ndk1::allocator<geode::Task<geode::utils::web::WebResponse, geode::utils::web::WebProgress>::setListener(geode::EventListenerProtocol*)::{lambda()#2}>, void ()>::__clone() const
FUNC 328ac 30 0 std::__ndk1::__function::__func<geode::Task<geode::utils::web::WebResponse, geode::utils::web::WebProgress>::setListener(geode::EventListenerProtocol*)::{lambda()#2}, std::__ndk1::allocator<geode::Task<geode::utils::web::WebResponse, geode::utils::web::WebProgress>::setListener(geode::EventListenerProtocol*)::{lambda()#2}>, void ()>::__clone(std::__ndk1::__function::__base<void ()>*) const
FUNC 328dc 3a 0 std::__ndk1::__function::__func<geode::Task<geode::utils::web::WebResponse, geode::utils::web::WebProgress>::setListener(geode::EventListenerProtocol*)::{lambda()#2}, std::__ndk1::allocator<geode::Task<geode::utils::web::WebResponse, geode::utils::web::WebProgress>::setListener(geode::EventListenerProtocol*)::{lambda()#2}>, void ()>::destroy()
FUNC 32916 44 0 std::__ndk1::__function::__func<geode::Task<geode::utils::web::WebResponse, geode::utils::web::WebProgress>::setListener(geode::EventListenerProtocol*)::{lambda()#2}, std::__ndk1::allocator<geode::Task<geode::utils::web::WebResponse, geode::utils::web::WebProgress>::setListener(geode::EventListenerProtocol*)::{lambda()#2}>, void ()>::destroy_deallocate()
FUNC 3295a 6 0 std::__ndk1::__function::__func<geode::Task<geode::utils::web::WebResponse, geode::utils::web::WebProgress>::setListener(geode::EventListenerProtocol*)::{lambda()#2}, std::__ndk1::allocator<geode::Task<geode::utils::web::WebResponse, geode::utils::web::WebProgress>::setListener(geode::EventListenerProtocol*)::{lambda()#2}>, void ()>::operator()()
FUNC 32960 18 0 std::__ndk1::__function::__func<geode::Task<geode::utils::web::WebResponse, geode::utils::web::WebProgress>::setListener(geode::EventListenerProtocol*)::{lambda()#2}, std::__ndk1::allocator<geode::Task<geode::utils::web::WebResponse, geode::utils::web::WebProgress>::setListener(geode::EventListenerProtocol*)::{lambda()#2}>, void ()>::target(std::type_info const&) const
FUNC 32978 c 0 std::__ndk1::__function::__func<geode::Task<geode::utils::web::WebResponse, geode::utils::web::WebProgress>::setListener(geode::EventListenerProtocol*)::{lambda()#2}, std::__ndk1::allocator<geode::Task<geode::utils::web::WebResponse, geode::utils::web::WebProgress>::setListener(geode::EventListenerProtocol*)::{lambda()#2}>, void ()>::target_type() const
FUNC 32984 150 0 geode::Task<geode::utils::web::WebResponse, geode::utils::web::WebProgress>::setListener(geode::EventListenerProtocol*)::{lambda()#2}::operator()() const
FUNC 32ad4 34 0 std::__ndk1::__throw_bad_function_call[abi:ne180000]()
FUNC 32b08 10 0 std::__ndk1::bad_function_call::~bad_function_call()
FUNC 32b18 110 0 geode::Mod::getSavedValue<bool>(std::__ndk1::basic_string_view<char, std::__ndk1::char_traits<char> >)
FUNC 32c28 2 0 std::__ndk1::__variant_detail::__visitation::__base::__dispatcher<(unsigned int)0>::__dispatch[abi:ne180000]<std::__ndk1::__variant_detail::__dtor<std::__ndk1::__variant_detail::__traits<bool, std::__ndk1::basic_string<char, std::__ndk1::char_traits<char>, std::__ndk1::allocator<char> > >, (std::__ndk1::__variant_detail::_Trait)1>::__destroy[abi:ne180000]()::{lambda(auto:1&)#1}, std::__ndk1::__variant_detail::__base<(std::__ndk1::__variant_detail::__traits<bool, std::__ndk1::basic_string<char, std::__ndk1::char_traits<char>, std::__ndk1::allocator<char> > >)1, bool, std::__ndk1::allocator<char> >&>(std::__ndk1::__variant_detail::__dtor<std::__ndk1::__variant_detail::__traits<bool, std::__ndk1::basic_string<char, std::__ndk1::char_traits<char>, std::__ndk1::allocator<char> > >, (std::__ndk1::__variant_detail::_Trait)1>, std::__ndk1::__variant_detail::__base<(std::__ndk1::__variant_detail::__traits<bool, std::__ndk1::basic_string<char, std::__ndk1::char_traits<char>, std::__ndk1::allocator<char> > >)1, bool, std::__ndk1::allocator<char> >&)
FUNC 32c2a e 0 std::__ndk1::__variant_detail::__visitation::__base::__dispatcher<(unsigned int)1>::__dispatch[abi:ne180000]<std::__ndk1::__variant_detail::__dtor<std::__ndk1::__variant_detail::__traits<bool, std::__ndk1::basic_string<char, std::__ndk1::char_traits<char>, std::__ndk1::allocator<char> > >, (std::__ndk1::__variant_detail::_Trait)1>::__destroy[abi:ne180000]()::{lambda(auto:1&)#1}, std::__ndk1::__variant_detail::__base<(std::__ndk1::__variant_detail::__traits<bool, std::__ndk1::basic_string<char, std::__ndk1::char_traits<char>, std::__ndk1::allocator<char> > >)1, bool, std::__ndk1::allocator<char> >&>(std::__ndk1::__variant_detail::__dtor<std::__ndk1::__variant_detail::__traits<bool, std::__ndk1::basic_string<char, std::__ndk1::char_traits<char>, std::__ndk1::allocator<char> > >, (std::__ndk1::__variant_detail::_Trait)1>, std::__ndk1::__variant_detail::__base<(std::__ndk1::__variant_detail::__traits<bool, std::__ndk1::basic_string<char, std::__ndk1::char_traits<char>, std::__ndk1::allocator<char> > >)1, bool, std::__ndk1::allocator<char> >&)
FUNC 32c38 4 0 std::__ndk1::__function::__func<RDDailyNode::onSkipLevel(cocos2d::CCObject*)::$_0, std::__ndk1::allocator<RDDailyNode::onSkipLevel(cocos2d::CCObject*)::$_0>, void (FLAlertLayer*, bool)>::~__func()
FUNC 32c3c 20 0 std::__ndk1::__function::__func<RDDailyNode::onSkipLevel(cocos2d::CCObject*)::$_0, std::__ndk1::allocator<RDDailyNode::onSkipLevel(cocos2d::CCObject*)::$_0>, void (FLAlertLayer*, bool)>::__clone() const
FUNC 32c5c 14 0 std::__ndk1::__function::__func<RDDailyNode::onSkipLevel(cocos2d::CCObject*)::$_0, std::__ndk1::allocator<RDDailyNode::onSkipLevel(cocos2d::CCObject*)::$_0>, void (FLAlertLayer*, bool)>::__clone(std::__ndk1::__function::__base<void (FLAlertLayer*, bool)>*) const
FUNC 32c70 2 0 std::__ndk1::__function::__func<RDDailyNode::onSkipLevel(cocos2d::CCObject*)::$_0, std::__ndk1::allocator<RDDailyNode::onSkipLevel(cocos2d::CCObject*)::$_0>, void (FLAlertLayer*, bool)>::destroy()
FUNC 32c72 4 0 std::__ndk1::__function::__func<RDDailyNode::onSkipLevel(cocos2d::CCObject*)::$_0, std::__ndk1::allocator<RDDailyNode::onSkipLevel(cocos2d::CCObject*)::$_0>, void (FLAlertLayer*, bool)>::destroy_deallocate()
FUNC 32c78 98 0 std::__ndk1::__function::__func<RDDailyNode::onSkipLevel(cocos2d::CCObject*)::$_0, std::__ndk1::allocator<RDDailyNode::onSkipLevel(cocos2d::CCObject*)::$_0>, void (FLAlertLayer*, bool)>::operator()(FLAlertLayer*&&, bool&&)
FUNC 32d10 18 0 std::__ndk1::__function::__func<RDDailyNode::onSkipLevel(cocos2d::CCObject*)::$_0, std::__ndk1::allocator<RDDailyNode::onSkipLevel(cocos2d::CCObject*)::$_0>, void (FLAlertLayer*, bool)>::target(std::type_info const&) const
FUNC 32d28 c 0 std::__ndk1::__function::__func<RDDailyNode::onSkipLevel(cocos2d::CCObject*)::$_0, std::__ndk1::allocator<RDDailyNode::onSkipLevel(cocos2d::CCObject*)::$_0>, void (FLAlertLayer*, bool)>::target_type() const
FUNC 32d34 d4 0 RDEventNode::create(cocos2d::CCSize, std::__ndk1::basic_string<char, std::__ndk1::char_traits<char>, std::__ndk1::allocator<char> >, float)
FUNC 32e08 108 0 RDEventNode::createBG(cocos2d::CCSize, float)
FUNC 32f10 470 0 RDEventNode::init(cocos2d::CCSize, std::__ndk1::basic_string<char, std::__ndk1::char_traits<char>, std::__ndk1::allocator<char> >, float)
FUNC 33380 2e8 0 RDEventNode::setupLevelMenu(GJGameLevel*)
FUNC 33668 ec 0 RDEventNode::onSkipLevel(cocos2d::CCObject*)
FUNC 33754 48 0 RDEventNode::onReload(cocos2d::CCObject*)
FUNC 3379c 2c 0 RDEventNode::onTheSafe(cocos2d::CCObject*)
FUNC 337c8 1b0 0 RDEventNode::onClaimReward(cocos2d::CCObject*)
FUNC 33978 154 0 RDEventNode::setupBonusMenu(GJGameLevel*)
FUNC 33acc 90 0 RDEventNode::~RDEventNode()
FUNC 33b5c 4 0 std::__ndk1::__function::__func<RDEventNode::onSkipLevel(cocos2d::CCObject*)::$_0, std::__ndk1::allocator<RDEventNode::onSkipLevel(cocos2d::CCObject*)::$_0>, void (FLAlertLayer*, bool)>::~__func()
FUNC 33b60 20 0 std::__ndk1::__function::__func<RDEventNode::onSkipLevel(cocos2d::CCObject*)::$_0, std::__ndk1::allocator<RDEventNode::onSkipLevel(cocos2d::CCObject*)::$_0>, void (FLAlertLayer*, bool)>::__clone() const
FUNC 33b80 14 0 std::__ndk1::__function::__func<RDEventNode::onSkipLevel(cocos2d::CCObject*)::$_0, std::__ndk1::allocator<RDEventNode::onSkipLevel(cocos2d::CCObject*)::$_0>, void (FLAlertLayer*, bool)>::__clone(std::__ndk1::__function::__base<void (FLAlertLayer*, bool)>*) const
FUNC 33b94 2 0 std::__ndk1::__function::__func<RDEventNode::onSkipLevel(cocos2d::CCObject*)::$_0, std::__ndk1::allocator<RDEventNode::onSkipLevel(cocos2d::CCObject*)::$_0>, void (FLAlertLayer*, bool)>::destroy()
FUNC 33b96 4 0 std::__ndk1::__function::__func<RDEventNode::onSkipLevel(cocos2d::CCObject*)::$_0, std::__ndk1::allocator<RDEventNode::onSkipLevel(cocos2d::CCObject*)::$_0>, void (FLAlertLayer*, bool)>::destroy_deallocate()
FUNC 33b9c 98 0 std::__ndk1::__function::__func<RDEventNode::onSkipLevel(cocos2d::CCObject*)::$_0, std::__ndk1::allocator<RDEventNode::onSkipLevel(cocos2d::CCObject*)::$_0>, void (FLAlertLayer*, bool)>::operator()(FLAlertLayer*&&, bool&&)
FUNC 33c34 18 0 std::__ndk1::__function::__func<RDEventNode::onSkipLevel(cocos2d::CCObject*)::$_0, std::__ndk1::allocator<RDEventNode::onSkipLevel(cocos2d::CCObject*)::$_0>, void (FLAlertLayer*, bool)>::target(std::type_info const&) const
FUNC 33c4c c 0 std::__ndk1::__function::__func<RDEventNode::onSkipLevel(cocos2d::CCObject*)::$_0, std::__ndk1::allocator<RDEventNode::onSkipLevel(cocos2d::CCObject*)::$_0>, void (FLAlertLayer*, bool)>::target_type() const
FUNC 33c58 660 0 RDTimelyNode::init(cocos2d::CCSize, std::__ndk1::basic_string<char, std::__ndk1::char_traits<char>, std::__ndk1::allocator<char> >, float)
FUNC 342b8 2c 0 RDTimelyNode::onView(cocos2d::CCObject*)
FUNC 342e4 24 0 RDTimelyNode::onCreatorLabel(cocos2d::CCObject*)
FUNC 34308 204 0 RDTimelyNode::downloadLevelFailed()
FUNC 3450c a28 0 RDTimelyNode::setupLevelMenu(GJGameLevel*)
FUNC 34f34 2f0 0 RDTimelyNode::downloadThumbnailFinished(cocos2d::CCImage*)
FUNC 35224 2 0 RDTimelyNode::~RDTimelyNode()
FUNC 35228 13c 0 fmt::v11::detail::value<fmt::v11::context>::format_custom_arg<gd::string, fmt::v11::formatter<gd::string, char, void> >(void*, fmt::v11::basic_format_parse_context<char>&, fmt::v11::context&)
FUNC 35364 468 0 fmt::v11::detail::parse_format_specs<char>(char const*, char const*, fmt::v11::detail::dynamic_format_specs<char>&, fmt::v11::basic_format_parse_context<char>&, fmt::v11::detail::type)
FUNC 357cc 10c 0 fmt::v11::detail::parse_dynamic_spec<char>(char const*, char const*, int&, fmt::v11::detail::arg_ref<char>&, fmt::v11::basic_format_parse_context<char>&)
FUNC 358d8 114 0 fmt::v11::detail::do_parse_arg_id<char, fmt::v11::detail::dynamic_spec_id_handler<char>&>(char const*, char const*, fmt::v11::detail::dynamic_spec_id_handler<char>&)
FUNC 359ec bc 0 fmt::v11::detail::handle_dynamic_spec<fmt::v11::detail::width_checker, fmt::v11::context>(int&, fmt::v11::detail::arg_ref<fmt::v11::context::char_type>, fmt::v11::context&)
FUNC 35aa8 bc 0 fmt::v11::detail::handle_dynamic_spec<fmt::v11::detail::precision_checker, fmt::v11::context>(int&, fmt::v11::detail::arg_ref<fmt::v11::context::char_type>, fmt::v11::context&)
FUNC 35b64 16c 0 fmt::v11::detail::write<char, fmt::v11::basic_appender<char> >(fmt::v11::basic_appender<char>, fmt::v11::basic_string_view<char>, fmt::v11::format_specs const&)
FUNC 35cd0 118 0 fmt::v11::detail::write_escaped_string<char, fmt::v11::detail::counting_iterator>(fmt::v11::detail::counting_iterator, fmt::v11::basic_string_view<char>)
FUNC 35de8 120 0 fmt::v11::detail::write_padded<char, (fmt::v11::align::type)1, fmt::v11::basic_appender<char>, fmt::v11::detail::write<char, fmt::v11::basic_appender<char> >(fmt::v11::basic_appender<char>, fmt::v11::basic_string_view<char>, fmt::v11::format_specs const&)::{lambda(fmt::v11::basic_appender<char>)#1}>(fmt::v11::basic_appender<char>, fmt::v11::format_specs const&, unsigned int, unsigned int, fmt::v11::detail::write<char, fmt::v11::basic_appender<char> >(fmt::v11::basic_appender<char>, fmt::v11::basic_string_view<char>, fmt::v11::format_specs const&)::{lambda(fmt::v11::basic_appender<char>&&)#1})
FUNC 35f08 2c4 0 fmt::v11::detail::for_each_codepoint<fmt::v11::detail::code_point_index(fmt::v11::basic_string_view<char>, unsigned int)::{lambda(unsigned int, fmt::v11::basic_string_view<char>)#1}>(fmt::v11::basic_string_view<char>, fmt::v11::detail::code_point_index(fmt::v11::basic_string_view<char>, unsigned int)::{lambda(unsigned int, fmt::v11::basic_string_view<char>)#1})
FUNC 361cc 10c 0 fmt::v11::detail::write_escaped_cp<fmt::v11::detail::counting_iterator, char>(fmt::v11::detail::counting_iterator, fmt::v11::detail::find_escape_result<char> const&)
FUNC 362d8 124 0 fmt::v11::detail::for_each_codepoint<fmt::v11::detail::find_escape(char const*, char const*)::{lambda(unsigned int, fmt::v11::basic_string_view<char>)#1}>(fmt::v11::basic_string_view<char>, fmt::v11::detail::find_escape(char const*, char const*)::{lambda(unsigned int, fmt::v11::basic_string_view<char>)#1})::{lambda(char const*, char const*)#1}::operator()(char const*, char const*) const
FUNC 36400 1e4 0 fmt::v11::detail::for_each_codepoint<fmt::v11::detail::compute_width(fmt::v11::basic_string_view<char>)::count_code_points>(fmt::v11::basic_string_view<char>, fmt::v11::detail::compute_width(fmt::v11::basic_string_view<char>)::count_code_points)::{lambda(char const*, char const*)#1}::operator()(char const*, char const*) const
FUNC 365e4 fa 0 fmt::v11::detail::fill<char, fmt::v11::basic_appender<char> >(fmt::v11::basic_appender<char>, unsigned int, fmt::v11::detail::fill_t const&)
FUNC 366e0 1e4 0 fmt::v11::detail::write_escaped_string<char, fmt::v11::basic_appender<char> >(fmt::v11::basic_appender<char>, fmt::v11::basic_string_view<char>)
FUNC 368c4 118 0 fmt::v11::detail::write_escaped_cp<fmt::v11::basic_appender<char>, char>(fmt::v11::basic_appender<char>, fmt::v11::detail::find_escape_result<char> const&)
FUNC 369dc e0 0 fmt::v11::detail::write_codepoint<(unsigned int)2, char, fmt::v11::basic_appender<char> >(fmt::v11::basic_appender<char>, char, unsigned int)
FUNC 36abc dc 0 fmt::v11::detail::write_codepoint<(unsigned int)4, char, fmt::v11::basic_appender<char> >(fmt::v11::basic_appender<char>, char, unsigned int)
FUNC 36b98 e0 0 fmt::v11::detail::write_codepoint<(unsigned int)8, char, fmt::v11::basic_appender<char> >(fmt::v11::basic_appender<char>, char, unsigned int)
FUNC 36c78 60 0 fmt::v11::detail::get_dynamic_spec<fmt::v11::detail::width_checker, fmt::v11::basic_format_arg<fmt::v11::context> >(fmt::v11::basic_format_arg<fmt::v11::context>)
FUNC 36cd8 106 0 fmt::v11::basic_format_args<fmt::v11::context>::get<char>(fmt::v11::basic_string_view<char>) const
FUNC 36de0 60 0 fmt::v11::detail::get_dynamic_spec<fmt::v11::detail::precision_checker, fmt::v11::basic_format_arg<fmt::v11::context> >(fmt::v11::basic_format_arg<fmt::v11::context>)
FUNC 36e40 2 0 std::__ndk1::__function::__base<void (geode::Task<geode::utils::web::WebResponse, geode::utils::web::WebProgress>::Event*)>::~__base()
FUNC 36e42 4 0 std::__ndk1::__function::__func<RDTimelyNode::setupLevelMenu(GJGameLevel*)::$_0, std::__ndk1::allocator<RDTimelyNode::setupLevelMenu(GJGameLevel*)::$_0>, void (geode::Task<geode::utils::web::WebResponse, geode::utils::web::WebProgress>::Event*)>::~__func()
FUNC 36e48 20 0 std::__ndk1::__function::__func<RDTimelyNode::setupLevelMenu(GJGameLevel*)::$_0, std::__ndk1::allocator<RDTimelyNode::setupLevelMenu(GJGameLevel*)::$_0>, void (geode::Task<geode::utils::web::WebResponse, geode::utils::web::WebProgress>::Event*)>::__clone() const
FUNC 36e68 14 0 std::__ndk1::__function::__func<RDTimelyNode::setupLevelMenu(GJGameLevel*)::$_0, std::__ndk1::allocator<RDTimelyNode::setupLevelMenu(GJGameLevel*)::$_0>, void (geode::Task<geode::utils::web::WebResponse, geode::utils::web::WebProgress>::Event*)>::__clone(std::__ndk1::__function::__base<void (geode::Task<geode::utils::web::WebResponse, geode::utils::web::WebProgress>::Event*)>*) const
FUNC 36e7c 2 0 std::__ndk1::__function::__func<RDTimelyNode::setupLevelMenu(GJGameLevel*)::$_0, std::__ndk1::allocator<RDTimelyNode::setupLevelMenu(GJGameLevel*)::$_0>, void (geode::Task<geode::utils::web::WebResponse, geode::utils::web::WebProgress>::Event*)>::destroy()
FUNC 36e7e 4 0 std::__ndk1::__function::__func<RDTimelyNode::setupLevelMenu(GJGameLevel*)::$_0, std::__ndk1::allocator<RDTimelyNode::setupLevelMenu(GJGameLevel*)::$_0>, void (geode::Task<geode::utils::web::WebResponse, geode::utils::web::WebProgress>::Event*)>::destroy_deallocate()
FUNC 36e84 1c8 0 std::__ndk1::__function::__func<RDTimelyNode::setupLevelMenu(GJGameLevel*)::$_0, std::__ndk1::allocator<RDTimelyNode::setupLevelMenu(GJGameLevel*)::$_0>, void (geode::Task<geode::utils::web::WebResponse, geode::utils::web::WebProgress>::Event*)>::operator()(geode::Task<geode::utils::web::WebResponse, geode::utils::web::WebProgress>::Event*&&)
FUNC 3704c 18 0 std::__ndk1::__function::__func<RDTimelyNode::setupLevelMenu(GJGameLevel*)::$_0, std::__ndk1::allocator<RDTimelyNode::setupLevelMenu(GJGameLevel*)::$_0>, void (geode::Task<geode::utils::web::WebResponse, geode::utils::web::WebProgress>::Event*)>::target(std::type_info const&) const
FUNC 37064 c 0 std::__ndk1::__function::__func<RDTimelyNode::setupLevelMenu(GJGameLevel*)::$_0, std::__ndk1::allocator<RDTimelyNode::setupLevelMenu(GJGameLevel*)::$_0>, void (geode::Task<geode::utils::web::WebResponse, geode::utils::web::WebProgress>::Event*)>::target_type() const
FUNC 37070 10 0 std::__ndk1::vector<unsigned char, std::__ndk1::allocator<unsigned char> >::__throw_length_error[abi:ne180000]() const
FUNC 37080 1b8 0 std::__ndk1::__thread_proxy[abi:ne180000]<std::__ndk1::tuple<std::__ndk1::unique_ptr<std::__ndk1::__thread_struct, std::__ndk1::default_delete<std::__ndk1::unique_ptr> >, RDTimelyNode::setupLevelMenu(GJGameLevel*)::$_0::operator()(geode::Task<$_0::utils::web::WebResponse, $_0::utils::WebProgress>::Event*) const::{lambda()#1}> >(std::__ndk1::tuple<std::__ndk1::unique_ptr<std::__ndk1::__thread_struct, std::__ndk1::default_delete<std::__ndk1::unique_ptr> >, RDTimelyNode::setupLevelMenu(GJGameLevel*)::$_0::operator()(geode::Task<$_0::utils::web::WebResponse, $_0::utils::WebProgress>::Event*) const::{lambda()#1}>)
FUNC 37238 34 0 std::__ndk1::unique_ptr<std::__ndk1::tuple<std::__ndk1::unique_ptr<std::__ndk1::__thread_struct, std::__ndk1::default_delete<std::__ndk1::__thread_struct> >, RDTimelyNode::setupLevelMenu(GJGameLevel*)::$_0::operator()(geode::Task<geode::utils::web::WebResponse, geode::utils::web::WebProgress>::Event*) const::{lambda()#1}>, std::__ndk1::default_delete<std::__ndk1::tuple<std::__ndk1::unique_ptr<std::__ndk1::__thread_struct, std::__ndk1::default_delete<std::__ndk1::__thread_struct> >, RDTimelyNode::setupLevelMenu(GJGameLevel*)::$_0::operator()(geode::Task<geode::utils::web::WebResponse, geode::utils::web::WebProgress>::Event*) const::{lambda()#1}> > >::~unique_ptr[abi:ne180000]()
FUNC 3726c 22 0 std::__ndk1::unique_ptr<std::__ndk1::__thread_struct, std::__ndk1::default_delete<std::__ndk1::__thread_struct> >::~unique_ptr[abi:ne180000]()
FUNC 3728e 16 0 RDTimelyNode::setupLevelMenu(GJGameLevel*)::$_0::operator()(geode::Task<geode::utils::web::WebResponse, geode::utils::web::WebProgress>::Event*) const::{lambda()#1}::operator()() const::{lambda()#1}::~{lambda()#1}()
FUNC 372a4 16 0 geode::Ref<cocos2d::CCImage>::~Ref()
FUNC 372bc 24 0 std::__ndk1::__function::__func<RDTimelyNode::setupLevelMenu(GJGameLevel*)::$_0::operator()(geode::Task<geode::utils::web::WebResponse, geode::utils::web::WebProgress>::Event*) const::{lambda()#1}::operator()() const::{lambda()#1}, std::__ndk1::allocator<RDTimelyNode::setupLevelMenu(GJGameLevel*)::$_0::operator()(geode::Task<geode::utils::web::WebResponse, geode::utils::web::WebProgress>::Event*) const::{lambda()#1}::operator()() const::{lambda()#1}>, void ()>::~__func()
FUNC 372e0 2c 0 std::__ndk1::__function::__func<RDTimelyNode::setupLevelMenu(GJGameLevel*)::$_0::operator()(geode::Task<geode::utils::web::WebResponse, geode::utils::web::WebProgress>::Event*) const::{lambda()#1}::operator()() const::{lambda()#1}, std::__ndk1::allocator<RDTimelyNode::setupLevelMenu(GJGameLevel*)::$_0::operator()(geode::Task<geode::utils::web::WebResponse, geode::utils::web::WebProgress>::Event*) const::{lambda()#1}::operator()() const::{lambda()#1}>, void ()>::~__func()
FUNC 3730c 38 0 std::__ndk1::__function::__func<RDTimelyNode::setupLevelMenu(GJGameLevel*)::$_0::operator()(geode::Task<geode::utils::web::WebResponse, geode::utils::web::WebProgress>::Event*) const::{lambda()#1}::operator()() const::{lambda()#1}, std::__ndk1::allocator<RDTimelyNode::setupLevelMenu(GJGameLevel*)::$_0::operator()(geode::Task<geode::utils::web::WebResponse, geode::utils::web::WebProgress>::Event*) const::{lambda()#1}::operator()() const::{lambda()#1}>, void ()>::__clone() const
FUNC 37344 20 0 std::__ndk1::__function::__func<RDTimelyNode::setupLevelMenu(GJGameLevel*)::$_0::operator()(geode::Task<geode::utils::web::WebResponse, geode::utils::web::WebProgress>::Event*) const::{lambda()#1}::operator()() const::{lambda()#1}, std::__ndk1::allocator<RDTimelyNode::setupLevelMenu(GJGameLevel*)::$_0::operator()(geode::Task<geode::utils::web::WebResponse, geode::utils::web::WebProgress>::Event*) const::{lambda()#1}::operator()() const::{lambda()#1}>, void ()>::__clone(std::__ndk1::__function::__base<void ()>*) const
FUNC 37364 16 0 std::__ndk1::__function::__func<RDTimelyNode::setupLevelMenu(GJGameLevel*)::$_0::operator()(geode::Task<geode::utils::web::WebResponse, geode::utils::web::WebProgress>::Event*) const::{lambda()#1}::operator()() const::{lambda()#1}, std::__ndk1::allocator<RDTimelyNode::setupLevelMenu(GJGameLevel*)::$_0::operator()(geode::Task<geode::utils::web::WebResponse, geode::utils::web::WebProgress>::Event*) const::{lambda()#1}::operator()() const::{lambda()#1}>, void ()>::destroy()
FUNC 3737a 1c 0 std::__ndk1::__function::__func<RDTimelyNode::setupLevelMenu(GJGameLevel*)::$_0::operator()(geode::Task<geode::utils::web::WebResponse, geode::utils::web::WebProgress>::Event*) const::{lambda()#1}::operator()() const::{lambda()#1}, std::__ndk1::allocator<RDTimelyNode::setupLevelMenu(GJGameLevel*)::$_0::operator()(geode::Task<geode::utils::web::WebResponse, geode::utils::web::WebProgress>::Event*) const::{lambda()#1}::operator()() const::{lambda()#1}>, void ()>::destroy_deallocate()
FUNC 37396 8 0 std::__ndk1::__function::__func<RDTimelyNode::setupLevelMenu(GJGameLevel*)::$_0::operator()(geode::Task<geode::utils::web::WebResponse, geode::utils::web::WebProgress>::Event*) const::{lambda()#1}::operator()() const::{lambda()#1}, std::__ndk1::allocator<RDTimelyNode::setupLevelMenu(GJGameLevel*)::$_0::operator()(geode::Task<geode::utils::web::WebResponse, geode::utils::web::WebProgress>::Event*) const::{lambda()#1}::operator()() const::{lambda()#1}>, void ()>::operator()()
FUNC 373a0 18 0 std::__ndk1::__function::__func<RDTimelyNode::setupLevelMenu(GJGameLevel*)::$_0::operator()(geode::Task<geode::utils::web::WebResponse, geode::utils::web::WebProgress>::Event*) const::{lambda()#1}::operator()() const::{lambda()#1}, std::__ndk1::allocator<RDTimelyNode::setupLevelMenu(GJGameLevel*)::$_0::operator()(geode::Task<geode::utils::web::WebResponse, geode::utils::web::WebProgress>::Event*) const::{lambda()#1}::operator()() const::{lambda()#1}>, void ()>::target(std::type_info const&) const
FUNC 373b8 c 0 std::__ndk1::__function::__func<RDTimelyNode::setupLevelMenu(GJGameLevel*)::$_0::operator()(geode::Task<geode::utils::web::WebResponse, geode::utils::web::WebProgress>::Event*) const::{lambda()#1}::operator()() const::{lambda()#1}, std::__ndk1::allocator<RDTimelyNode::setupLevelMenu(GJGameLevel*)::$_0::operator()(geode::Task<geode::utils::web::WebResponse, geode::utils::web::WebProgress>::Event*) const::{lambda()#1}::operator()() const::{lambda()#1}>, void ()>::target_type() const
FUNC 373c4 d4 0 RDWeeklyNode::create(cocos2d::CCSize, std::__ndk1::basic_string<char, std::__ndk1::char_traits<char>, std::__ndk1::allocator<char> >, float)
FUNC 37498 1c0 0 RDWeeklyNode::updateTimeLabel(float)
FUNC 37658 f0 0 RDWeeklyNode::createBG(cocos2d::CCSize, float)
FUNC 37748 5e8 0 RDWeeklyNode::init(cocos2d::CCSize, std::__ndk1::basic_string<char, std::__ndk1::char_traits<char>, std::__ndk1::allocator<char> >, float)
FUNC 37d30 2e8 0 RDWeeklyNode::setupLevelMenu(GJGameLevel*)
FUNC 38018 ec 0 RDWeeklyNode::onSkipLevel(cocos2d::CCObject*)
FUNC 38104 48 0 RDWeeklyNode::onReload(cocos2d::CCObject*)
FUNC 3814c 2c 0 RDWeeklyNode::onTheSafe(cocos2d::CCObject*)
FUNC 38178 1b0 0 RDWeeklyNode::onClaimReward(cocos2d::CCObject*)
FUNC 38328 154 0 RDWeeklyNode::setupBonusMenu(GJGameLevel*)
FUNC 3847c 90 0 RDWeeklyNode::~RDWeeklyNode()
FUNC 3850c 4 0 std::__ndk1::__function::__func<RDWeeklyNode::onSkipLevel(cocos2d::CCObject*)::$_0, std::__ndk1::allocator<RDWeeklyNode::onSkipLevel(cocos2d::CCObject*)::$_0>, void (FLAlertLayer*, bool)>::~__func()
FUNC 38510 20 0 std::__ndk1::__function::__func<RDWeeklyNode::onSkipLevel(cocos2d::CCObject*)::$_0, std::__ndk1::allocator<RDWeeklyNode::onSkipLevel(cocos2d::CCObject*)::$_0>, void (FLAlertLayer*, bool)>::__clone() const
FUNC 38530 14 0 std::__ndk1::__function::__func<RDWeeklyNode::onSkipLevel(cocos2d::CCObject*)::$_0, std::__ndk1::allocator<RDWeeklyNode::onSkipLevel(cocos2d::CCObject*)::$_0>, void (FLAlertLayer*, bool)>::__clone(std::__ndk1::__function::__base<void (FLAlertLayer*, bool)>*) const
FUNC 38544 2 0 std::__ndk1::__function::__func<RDWeeklyNode::onSkipLevel(cocos2d::CCObject*)::$_0, std::__ndk1::allocator<RDWeeklyNode::onSkipLevel(cocos2d::CCObject*)::$_0>, void (FLAlertLayer*, bool)>::destroy()
FUNC 38546 4 0 std::__ndk1::__function::__func<RDWeeklyNode::onSkipLevel(cocos2d::CCObject*)::$_0, std::__ndk1::allocator<RDWeeklyNode::onSkipLevel(cocos2d::CCObject*)::$_0>, void (FLAlertLayer*, bool)>::destroy_deallocate()
FUNC 3854c 98 0 std::__ndk1::__function::__func<RDWeeklyNode::onSkipLevel(cocos2d::CCObject*)::$_0, std::__ndk1::allocator<RDWeeklyNode::onSkipLevel(cocos2d::CCObject*)::$_0>, void (FLAlertLayer*, bool)>::operator()(FLAlertLayer*&&, bool&&)
FUNC 385e4 18 0 std::__ndk1::__function::__func<RDWeeklyNode::onSkipLevel(cocos2d::CCObject*)::$_0, std::__ndk1::allocator<RDWeeklyNode::onSkipLevel(cocos2d::CCObject*)::$_0>, void (FLAlertLayer*, bool)>::target(std::type_info const&) const
FUNC 385fc c 0 std::__ndk1::__function::__func<RDWeeklyNode::onSkipLevel(cocos2d::CCObject*)::$_0, std::__ndk1::allocator<RDWeeklyNode::onSkipLevel(cocos2d::CCObject*)::$_0>, void (FLAlertLayer*, bool)>::target_type() const
FUNC 38608 20 0 geodeImplicitEntry
FUNC 38628 28 0 std::__ndk1::unordered_map<void*, bool, std::__ndk1::hash<void*>, std::__ndk1::equal_to<void*>, std::__ndk1::allocator<std::__ndk1::pair<void* const, bool> > >::~unordered_map[abi:ne180000]()
FUNC 38650 cc 0 wrapFunction(unsigned int, tulip::hook::WrapperMetadata const&)
FUNC 3871c 48 0 geode::impl::ResultData<void*, std::__ndk1::basic_string<char, std::__ndk1::char_traits<char>, std::__ndk1::allocator<char> > >::unwrapErr() &
FUNC 38764 60 0 geode::impl::ResultData<void*, std::__ndk1::basic_string<char, std::__ndk1::char_traits<char>, std::__ndk1::allocator<char> > >::~ResultData()
FUNC 387c4 46 0 tulip::hook::WrapperMetadata::~WrapperMetadata()
FUNC 3880c 1b4 0 cocos2d::CCObject::CCObject()
FUNC 389c0 10 0 cocos2d::CCObject::~CCObject()
FUNC 389d0 1c0 0 cocos2d::CCNode::CCNode()
FUNC 38b90 10 0 cocos2d::CCNode::~CCNode()
FUNC 38ba0 1c8 0 cocos2d::CCNodeRGBA::CCNodeRGBA()
FUNC 38d68 10 0 cocos2d::CCNodeRGBA::~CCNodeRGBA()
FUNC 38d78 238 0 cocos2d::CCTexture2D::~CCTexture2D()
FUNC 38fb0 10 0 cocos2d::CCTexture2D::~CCTexture2D()
FUNC 38fc0 1c4 0 cocos2d::CCTexture2D::CCTexture2D()
FUNC 39184 1b8 0 cocos2d::CCImage::CCImage()
FUNC 3933c 228 0 cocos2d::CCImage::~CCImage()
FUNC 39564 10 0 cocos2d::CCImage::~CCImage()
FUNC 39574 ec 0 cocos2d::CCDictionary::setObject(cocos2d::CCObject*, gd::string const&)
FUNC 39660 b0 0 tulip::hook::AbstractFunction::from<void, cocos2d::CCDictionary*, cocos2d::CCObject*, gd::string const&>(void (*)(cocos2d::CCDictionary*, cocos2d::CCObject*, gd::string const&))
FUNC 39710 e4 0 cocos2d::CCDictionary::objectForKey(gd::string const&)
FUNC 39800 70 0 tulip::hook::AbstractFunction::from<cocos2d::CCObject*, cocos2d::CCDictionary*, gd::string const&>(cocos2d::CCObject* (*)(cocos2d::CCDictionary*, gd::string const&))
FUNC 39870 10 0 cocos2d::CCMenuItem::~CCMenuItem()
FUNC 39880 258 0 cocos2d::CCNodeRGBA::~CCNodeRGBA()
FUNC 39ae0 a4 0 CCMenuItemSpriteExtra::CCMenuItemSpriteExtra()
FUNC 39b84 25c 0 cocos2d::CCMenuItem::~CCMenuItem()
FUNC 39de0 34 0 CCMenuItemSpriteExtra::~CCMenuItemSpriteExtra()
FUNC 39e14 38 0 CCMenuItemSpriteExtra::~CCMenuItemSpriteExtra()
FUNC 39e4c f8 0 FMODAudioEngine::playEffect(gd::string)
FUNC 39f50 70 0 tulip::hook::AbstractFunction::from<void, FMODAudioEngine*, gd::string>(void (*)(FMODAudioEngine*, gd::string))
FUNC 39fc0 fc 0 GameLevelManager::responseToDict(gd::string, bool)
FUNC 3a0c0 70 0 tulip::hook::AbstractFunction::from<cocos2d::CCDictionary*, gd::string, bool>(cocos2d::CCDictionary* (*)(gd::string, bool))
FUNC 3a130 b0 0 tulip::hook::AbstractFunction::from<void, GameLevelManager*, gd::string, gd::string>(void (*)(GameLevelManager*, gd::string, gd::string))
FUNC 3a1e0 114 0 GameLevelManager::onGetGJChallengesCompleted(gd::string, gd::string)
FUNC 3a2f4 114 0 GameLevelManager::onGetGJDailyLevelStateCompleted(gd::string, gd::string)
FUNC 3a408 114 0 GameLevelManager::onGetLeaderboardScoresCompleted(gd::string, gd::string)
FUNC 3a51c 118 0 GameLevelManager::processOnDownloadLevelCompleted(gd::string, gd::string, bool)
FUNC 3a640 260 0 tulip::hook::AbstractFunction::from<void, GameLevelManager*, gd::string, gd::string, bool>(void (*)(GameLevelManager*, gd::string, gd::string, bool))
FUNC 3a8a0 22c 0 cocos2d::CCNode::~CCNode()
FUNC 3aacc 42c 0 cocos2d::CCObject::~CCObject()
FUNC 3aef8 f8 0 _ZN5geode15UnwrapExceptionC2IRPvQsr4implE18IsStringStreamableIT_EEENS_4impl5OkTagEOS4_
FUNC 3aff0 2 0 std::__ndk1::__variant_detail::__visitation::__base::__dispatcher<(unsigned int)0>::__dispatch[abi:ne180000]<std::__ndk1::__variant_detail::__dtor<std::__ndk1::__variant_detail::__traits<void*, std::__ndk1::basic_string<char, std::__ndk1::char_traits<char>, std::__ndk1::allocator<char> > >, (std::__ndk1::__variant_detail::_Trait)1>::__destroy[abi:ne180000]()::{lambda(auto:1&)#1}, std::__ndk1::__variant_detail::__base<(std::__ndk1::__variant_detail::__traits<void*, std::__ndk1::basic_string<char, std::__ndk1::char_traits<char>, std::__ndk1::allocator<char> > >)1, std::__ndk1::__variant_detail::__traits, std::__ndk1::allocator<char> >&>(std::__ndk1::__variant_detail::__dtor<std::__ndk1::__variant_detail::__traits<void*, std::__ndk1::basic_string<char, std::__ndk1::char_traits<char>, std::__ndk1::allocator<char> > >, (std::__ndk1::__variant_detail::_Trait)1>, std::__ndk1::__variant_detail::__base<(std::__ndk1::__variant_detail::__traits<void*, std::__ndk1::basic_string<char, std::__ndk1::char_traits<char>, std::__ndk1::allocator<char> > >)1, std::__ndk1::__variant_detail::__traits, std::__ndk1::allocator<char> >&)
FUNC 3aff2 e 0 std::__ndk1::__variant_detail::__visitation::__base::__dispatcher<(unsigned int)1>::__dispatch[abi:ne180000]<std::__ndk1::__variant_detail::__dtor<std::__ndk1::__variant_detail::__traits<void*, std::__ndk1::basic_string<char, std::__ndk1::char_traits<char>, std::__ndk1::allocator<char> > >, (std::__ndk1::__variant_detail::_Trait)1>::__destroy[abi:ne180000]()::{lambda(auto:1&)#1}, std::__ndk1::__variant_detail::__base<(std::__ndk1::__variant_detail::__traits<void*, std::__ndk1::basic_string<char, std::__ndk1::char_traits<char>, std::__ndk1::allocator<char> > >)1, std::__ndk1::__variant_detail::__traits, std::__ndk1::allocator<char> >&>(std::__ndk1::__variant_detail::__dtor<std::__ndk1::__variant_detail::__traits<void*, std::__ndk1::basic_string<char, std::__ndk1::char_traits<char>, std::__ndk1::allocator<char> > >, (std::__ndk1::__variant_detail::_Trait)1>, std::__ndk1::__variant_detail::__base<(std::__ndk1::__variant_detail::__traits<void*, std::__ndk1::basic_string<char, std::__ndk1::char_traits<char>, std::__ndk1::allocator<char> > >)1, std::__ndk1::__variant_detail::__traits, std::__ndk1::allocator<char> >&)
FUNC 3b000 3ea 0 std::__ndk1::__hash_table<std::__ndk1::__hash_value_type<void*, bool>, std::__ndk1::__unordered_map_hasher<void*, std::__ndk1::__hash_value_type<void*, bool>, std::__ndk1::hash<void*>, std::__ndk1::equal_to<void*>, true>, std::__ndk1::__unordered_map_equal<void*, std::__ndk1::__hash_value_type<void*, bool>, std::__ndk1::equal_to<void*>, std::__ndk1::hash<void*>, true>, std::__ndk1::allocator<std::__ndk1::__hash_value_type<void*, bool> > >::__emplace_unique_key_args<void*, std::__ndk1::piecewise_construct_t const&, std::__ndk1::tuple<void* const&>, std::__ndk1::tuple<> >(void* const&, std::__ndk1::piecewise_construct_t const&, std::__ndk1::tuple<void* const&>, std::__ndk1::tuple<>)
FUNC 3b3ec 1cc 0 fmt::v11::detail::write_loc(fmt::v11::basic_appender<char>, fmt::v11::loc_value, fmt::v11::format_specs const&, fmt::v11::detail::locale_ref)
FUNC 3b5b8 44 0 fmt::v11::format_facet<std::__ndk1::locale>::~format_facet()
FUNC 3b5fc 38 0 fmt::v11::report_error(char const*)
FUNC 3b634 18 0 fmt::v11::format_error::runtime_error(char const*)
FUNC 3b64c 420 0 fmt::v11::format_facet<std::__ndk1::locale>::do_put(fmt::v11::basic_appender<char>, fmt::v11::loc_value, fmt::v11::format_specs const&) const
FUNC 3ba6c 30 0 fmt::v11::detail::loc_writer<char>::~loc_writer()
FUNC 3ba9c c0 0 fmt::v11::vformat(fmt::v11::basic_string_view<char>, fmt::v11::basic_format_args<fmt::v11::context>)
FUNC 3bb5c 1ac 0 fmt::v11::detail::dragonbox::cache_accessor<double>::get_cached_power(int)
FUNC 3bd08 278 0 fmt::v11::detail::vformat_to<char>(fmt::v11::detail::buffer<char>&, fmt::v11::basic_string_view<char>, fmt::v11::detail::vformat_args<char>::type, fmt::v11::detail::locale_ref)
FUNC 3bf80 228 0 fmt::v11::detail::is_printable(unsigned int)
FUNC 3c1a8 384 0 fmt::v11::detail::dragonbox::to_decimal<float>(float)
FUNC 3c52c 880 0 fmt::v11::detail::dragonbox::to_decimal<double>(double)
FUNC 3cdac 4c 0 fmt::v11::basic_memory_buffer<char, (unsigned int)500, std::__ndk1::allocator<char> >::grow(fmt::v11::detail::buffer<char>&, unsigned int)
FUNC 3cdf8 48 0 fmt::v11::format_facet<std::__ndk1::locale>::~format_facet()
FUNC 3ce40 10 0 fmt::v11::format_error::~format_error()
FUNC 3ce50 9a 0 fmt::v11::detail::copy_noinline<char, char const*, fmt::v11::basic_appender<char> >(char const*, char const*, fmt::v11::basic_appender<char>)
FUNC 3ceec 54 0 fmt::v11::detail::default_arg_formatter<char>::operator()<bool>(bool)
FUNC 3cf40 34 0 fmt::v11::detail::default_arg_formatter<char>::operator()<char>(char)
FUNC 3cf74 2c 0 fmt::v11::detail::default_arg_formatter<char>::operator()<char const*>(char const*)
FUNC 3cfa0 74 0 fmt::v11::detail::default_arg_formatter<char>::operator()<void const*>(void const*)
FUNC 3d014 1b0 0 _ZN3fmt3v116detail5writeIcNS0_14basic_appenderIcEEiTnNSt6__ndk19enable_ifIXaaaasr11is_integralIT1_EE5valuentsr3std7is_sameIS7_bEE5valuentsr3std7is_sameIS7_T_EE5valueEiE4typeELi0EEET0_SB_S7_
FUNC 3d1c4 9a 0 fmt::v11::detail::copy_noinline<char, char*, fmt::v11::basic_appender<char> >(char*, char*, fmt::v11::basic_appender<char>)
FUNC 3d260 174 0 _ZN3fmt3v116detail5writeIcNS0_14basic_appenderIcEEjTnNSt6__ndk19enable_ifIXaaaasr11is_integralIT1_EE5valuentsr3std7is_sameIS7_bEE5valuentsr3std7is_sameIS7_T_EE5valueEiE4typeELi0EEET0_SB_S7_
FUNC 3d3d4 218 0 _ZN3fmt3v116detail5writeIcNS0_14basic_appenderIcEExTnNSt6__ndk19enable_ifIXaaaasr11is_integralIT1_EE5valuentsr3std7is_sameIS7_bEE5valuentsr3std7is_sameIS7_T_EE5valueEiE4typeELi0EEET0_SB_S7_
FUNC 3d5ec 1dc 0 _ZN3fmt3v116detail5writeIcNS0_14basic_appenderIcEEyTnNSt6__ndk19enable_ifIXaaaasr11is_integralIT1_EE5valuentsr3std7is_sameIS7_bEE5valuentsr3std7is_sameIS7_T_EE5valueEiE4typeELi0EEET0_SB_S7_
FUNC 3d7c8 188 0 _ZN3fmt3v116detail5writeIcNS0_14basic_appenderIcEEbTnNSt6__ndk19enable_ifIXsr3std7is_sameIT1_bEE5valueEiE4typeELi0EEET0_SA_S7_RKNS0_12format_specsENS1_10locale_refE
FUNC 3d950 9f8 0 fmt::v11::detail::write_int_noinline<char, fmt::v11::basic_appender<char>, unsigned int>(fmt::v11::basic_appender<char>, fmt::v11::detail::write_int_arg<unsigned int>, fmt::v11::format_specs const&, fmt::v11::detail::locale_ref)
FUNC 3e348 184 0 fmt::v11::detail::write_padded<char, (fmt::v11::align::type)1, fmt::v11::basic_appender<char>, fmt::v11::detail::write_char<char, fmt::v11::basic_appender<char> >(fmt::v11::basic_appender<char>, char, fmt::v11::format_specs const&)::{lambda(fmt::v11::basic_appender<char>&)#1}>(fmt::v11::basic_appender<char>, fmt::v11::format_specs const&, unsigned int, unsigned int, fmt::v11::detail::write_char<char, fmt::v11::basic_appender<char> >(fmt::v11::basic_appender<char>, char, fmt::v11::format_specs const&)::{lambda(fmt::v11::basic_appender<char>&)#1})
FUNC 3e4d0 73c 0 _ZN3fmt3v116detail5writeIcNS0_14basic_appenderIcEEfTnNSt6__ndk19enable_ifIXsr13is_fast_floatIT1_EE5valueEiE4typeELi0EEET0_SA_S7_
FUNC 3ec0c 140 0 fmt::v11::detail::write_padded<char, (fmt::v11::align::type)1, fmt::v11::basic_appender<char>, fmt::v11::detail::write_nonfinite<char, fmt::v11::basic_appender<char> >(fmt::v11::basic_appender<char>, bool, fmt::v11::format_specs, fmt::v11::sign::type)::{lambda(fmt::v11::basic_appender<char>&)#1}>(fmt::v11::basic_appender<char>, fmt::v11::format_specs const&, unsigned int, unsigned int, fmt::v11::detail::write_nonfinite<char, fmt::v11::basic_appender<char> >(fmt::v11::basic_appender<char>, bool, fmt::v11::format_specs, fmt::v11::sign::type)::{lambda(fmt::v11::basic_appender<char>&)#1})
FUNC 3ed4c e0 0 fmt::v11::detail::do_write_float<char, fmt::v11::basic_appender<char>, fmt::v11::detail::dragonbox::decimal_fp<float>, fmt::v11::detail::digit_grouping<char> >(fmt::v11::basic_appender<char>, fmt::v11::detail::dragonbox::decimal_fp<float> const&, fmt::v11::format_specs const&, fmt::v11::detail::float_specs, fmt::v11::detail::locale_ref)::{lambda(fmt::v11::basic_appender<char>(fmt::v11::basic_appender<char>))#1}::operator() const
FUNC 3ee2c 194 0 fmt::v11::detail::digit_grouping<char>::digit_grouping(fmt::v11::detail::locale_ref, bool)
FUNC 3efc0 22 0 fmt::v11::detail::digit_grouping<char>::~digit_grouping()
FUNC 3efe4 104 0 fmt::v11::detail::write_exponent<char, fmt::v11::basic_appender<char> >(int, fmt::v11::basic_appender<char>)
FUNC 3f0e8 144 0 _ZN3fmt3v116detail17write_significandIcjTnNSt6__ndk19enable_ifIXsr3std11is_integralIT0_EE5valueEiE4typeELi0EEEPT_S9_S5_iiS8_
FUNC 3f22c 21c 0 fmt::v11::detail::digit_grouping<char>::apply<fmt::v11::basic_appender<char>, char>(fmt::v11::basic_appender<char>, fmt::v11::basic_string_view<char>) const
FUNC 3f448 6e 0 fmt::v11::basic_memory_buffer<int, (unsigned int)500, std::__ndk1::allocator<int> >::grow(fmt::v11::detail::buffer<int>&, unsigned int)
FUNC 3f4c0 e4 0 _ZN3fmt3v116detail5writeIcNS0_14basic_appenderIcEEdTnNSt6__ndk19enable_ifIXsr13is_fast_floatIT1_EE5valueEiE4typeELi0EEET0_SA_S7_
FUNC 3f5a4 9ac 0 fmt::v11::detail::do_write_float<char, fmt::v11::basic_appender<char>, fmt::v11::detail::dragonbox::decimal_fp<double>, fmt::v11::detail::digit_grouping<char> >(fmt::v11::basic_appender<char>, fmt::v11::detail::dragonbox::decimal_fp<double> const&, fmt::v11::format_specs const&, fmt::v11::detail::float_specs, fmt::v11::detail::locale_ref)
FUNC 3ff50 e8 0 fmt::v11::detail::do_write_float<char, fmt::v11::basic_appender<char>, fmt::v11::detail::dragonbox::decimal_fp<double>, fmt::v11::detail::digit_grouping<char> >(fmt::v11::basic_appender<char>, fmt::v11::detail::dragonbox::decimal_fp<double> const&, fmt::v11::format_specs const&, fmt::v11::detail::float_specs, fmt::v11::detail::locale_ref)::{lambda(fmt::v11::basic_appender<char>(fmt::v11::basic_appender<char>))#1}::operator() const
FUNC 40038 19c 0 _ZN3fmt3v116detail17write_significandIcyTnNSt6__ndk19enable_ifIXsr3std11is_integralIT0_EE5valueEiE4typeELi0EEEPT_S9_S5_iiS8_
FUNC 401e0 e4 0 _ZN3fmt3v116detail5writeIcNS0_14basic_appenderIcEEeTnNSt6__ndk19enable_ifIXsr13is_fast_floatIT1_EE5valueEiE4typeELi0EEET0_SA_S7_
FUNC 402c4 150 0 fmt::v11::detail::write_padded<char, (fmt::v11::align::type)2, fmt::v11::basic_appender<char>, fmt::v11::detail::write_ptr<char, fmt::v11::basic_appender<char>, unsigned int>(fmt::v11::basic_appender<char>, unsigned int, fmt::v11::format_specs const*)::{lambda(fmt::v11::basic_appender<char>&)#1}>(fmt::v11::basic_appender<char>, fmt::v11::format_specs const&, unsigned int, unsigned int, fmt::v11::detail::write_ptr<char, fmt::v11::basic_appender<char>, unsigned int>(fmt::v11::basic_appender<char>, unsigned int, fmt::v11::format_specs const*)::{lambda(fmt::v11::basic_appender<char>&)#1})
FUNC 40418 1064 0 fmt::v11::detail::parse_replacement_field<char, fmt::v11::detail::vformat_to<char>(fmt::v11::detail::buffer<char>&, fmt::v11::basic_string_view<char>, fmt::v11::detail::vformat_args<char>::type, fmt::v11::detail::locale_ref)::format_handler&>(char const*, char const*, fmt::v11::detail::vformat_to<char>(fmt::v11::detail::buffer<char>&, fmt::v11::basic_string_view<char>, fmt::v11::detail::vformat_args<char>::type, fmt::v11::detail::locale_ref)::format_handler&)
FUNC 4147c b78 0 fmt::v11::detail::write_int_noinline<char, fmt::v11::basic_appender<char>, unsigned long long>(fmt::v11::basic_appender<char>, fmt::v11::detail::write_int_arg<unsigned long long>, fmt::v11::format_specs const&, fmt::v11::detail::locale_ref)
FUNC 41ff4 3a4 0 _ZN3fmt3v116detail15format_hexfloatIdTnNSt6__ndk19enable_ifIXntsr16is_double_doubleIT_EE5valueEiE4typeELi0EEEvS5_NS0_12format_specsERNS1_6bufferIcEE
FUNC 42398 ebc 0 fmt::v11::detail::format_float<double>(double, int, fmt::v11::detail::float_specs, fmt::v11::detail::buffer<char>&)
FUNC 43254 10c 0 fmt::v11::detail::write_padded<char, (fmt::v11::align::type)2, fmt::v11::basic_appender<char>, fmt::v11::detail::write_bytes<char, (fmt::v11::align::type)2, fmt::v11::basic_appender<char> >(fmt::v11::basic_appender<char>, fmt::v11::basic_string_view<char>, fmt::v11::format_specs const&)::{lambda(fmt::v11::basic_appender<char>&)#1}>(fmt::v11::basic_appender<char>, fmt::v11::format_specs const&, unsigned int, unsigned int, fmt::v11::detail::write_bytes<char, (fmt::v11::align::type)2, fmt::v11::basic_appender<char> >(fmt::v11::basic_appender<char>, fmt::v11::basic_string_view<char>, fmt::v11::format_specs const&)::{lambda(fmt::v11::basic_appender<char>&)#1})
FUNC 43360 c4 0 fmt::v11::detail::bigint::operator<<=(int)
FUNC 43424 414 0 fmt::v11::detail::bigint::assign_pow10(int)
FUNC 43838 276 0 fmt::v11::detail::bigint::divmod_assign(fmt::v11::detail::bigint const&)
FUNC 43aae 6e 0 fmt::v11::basic_memory_buffer<unsigned int, (unsigned int)32, std::__ndk1::allocator<unsigned int> >::grow(fmt::v11::detail::buffer<unsigned int>&, unsigned int)
FUNC 43b1c 994 0 fmt::v11::detail::do_write_float<char, fmt::v11::basic_appender<char>, fmt::v11::detail::big_decimal_fp, fmt::v11::detail::digit_grouping<char> >(fmt::v11::basic_appender<char>, fmt::v11::detail::big_decimal_fp const&, fmt::v11::format_specs const&, fmt::v11::detail::float_specs, fmt::v11::detail::locale_ref)
FUNC 444b0 e0 0 fmt::v11::detail::do_write_float<char, fmt::v11::basic_appender<char>, fmt::v11::detail::big_decimal_fp, fmt::v11::detail::digit_grouping<char> >(fmt::v11::basic_appender<char>, fmt::v11::detail::big_decimal_fp const&, fmt::v11::format_specs const&, fmt::v11::detail::float_specs, fmt::v11::detail::locale_ref)::{lambda(fmt::v11::basic_appender<char>(fmt::v11::basic_appender<char>))#1}::operator() const
FUNC 44590 544 0 fmt::v11::detail::write_int<fmt::v11::basic_appender<char>, unsigned long long, char>(fmt::v11::basic_appender<char>, unsigned long long, unsigned int, fmt::v11::format_specs const&, fmt::v11::detail::digit_grouping<char> const&)
PUBLIC 44ad5 0 __ThumbV7PILongThunk___cxa_atexit
PUBLIC 44ae1 0 __ThumbV7PILongThunk__ZdlPv
PUBLIC 44aed 0 __ThumbV7PILongThunk__ZN12CreatorLayer11onChallengeEPN7cocos2d8CCObjectE
PUBLIC 44af9 0 __ThumbV7PILongThunk__ZN7cocos2d8CCObject6retainEv
PUBLIC 44b05 0 __ThumbV7PILongThunk__ZN16GameLevelManager20getGJDailyLevelStateE16GJTimedLevelType
PUBLIC 44b11 0 __ThumbV7PILongThunk__ZN7cocos2d10CCDirector12replaceSceneEPNS_7CCSceneE
PUBLIC 44b1d 0 __ThumbV7PILongThunk__ZN5geode24DefaultEventListenerPool3getEv
PUBLIC 44b29 0 __ThumbV7PILongThunk__ZN5geode21EventListenerProtocolD2Ev
PUBLIC 44b35 0 __ThumbV7PILongThunk__ZN5geode9addresser9Addresser19followThunkFunctionEi
PUBLIC 44b41 0 __ThumbV7PILongThunk__ZNK7matjson5ValueeqERKS0_
PUBLIC 44b4d 0 __ThumbV7PILongThunk__ZN5geode9SettingV3D2Ev
PUBLIC 44b59 0 __ThumbV7PILongThunk__ZN7matjson5ValueD1Ev
PUBLIC 44b65 0 __ThumbV7PILongThunk__ZNSt6__ndk119__shared_weak_countD2Ev
PUBLIC 44b71 0 __ThumbV7PILongThunk__ZN7cocos2d6CCNode10unscheduleEMNS_8CCObjectEFvfE
PUBLIC 44b7d 0 __ThumbV7PILongThunk__ZN16GameLevelManager13downloadLevelEib
PUBLIC 44b89 0 __ThumbV7PILongThunk__ZNSt6__ndk119__shared_weak_count14__release_weakEv
PUBLIC 44b95 0 __ThumbV7PILongThunk__ZN5geode5EventD2Ev
PUBLIC 44ba1 0 __ThumbV7PILongThunk__ZNSt6__ndk16locale5facetD2Ev
PUBLIC 44bb0 0 <.plt ELF section in ninxout.redash.android32.so>
STACK CFI INIT 17bf4 16 .cfa: sp 0 +
STACK CFI 17bf6 .cfa: sp 16 + .ra: .cfa -4 + ^ r7: .cfa -8 + ^ r6: .cfa -12 + ^ r4: .cfa -16 + ^
STACK CFI 17bf8 .cfa: r7 8 +
STACK CFI INIT 17c0a 1e .cfa: sp 0 +
STACK CFI 17c14 .cfa: sp 16 + .ra: .cfa -4 + ^ r7: .cfa -8 + ^ r6: .cfa -12 + ^ r4: .cfa -16 + ^
STACK CFI 17c16 .cfa: r7 8 +
STACK CFI INIT 17c28 c .cfa: sp 0 +
STACK CFI 17c2a .cfa: sp 8 + .ra: .cfa -4 + ^ r7: .cfa -8 + ^
STACK CFI 17c2c .cfa: r7 8 +
STACK CFI INIT 17c34 54 .cfa: sp 0 +
STACK CFI 17c36 .cfa: sp 16 + .ra: .cfa -4 + ^ r7: .cfa -8 + ^ r6: .cfa -12 + ^ r4: .cfa -16 + ^
STACK CFI 17c38 .cfa: r7 8 +
STACK CFI INIT 17c88 2d0 .cfa: sp 0 +
STACK CFI 17c8a .cfa: sp 20 + .ra: .cfa -4 + ^ r7: .cfa -8 + ^ r6: .cfa -12 + ^ r5: .cfa -16 + ^ r4: .cfa -20 + ^
STACK CFI 17c8c .cfa: r7 8 +
STACK CFI 17c90 r11: .cfa -24 + ^ r10: .cfa -28 + ^ r9: .cfa -32 + ^ r8: .cfa -36 + ^
STACK CFI INIT 17f58 20 .cfa: sp 0 +
STACK CFI 17f5a .cfa: sp 16 + .ra: .cfa -4 + ^ r7: .cfa -8 + ^ r6: .cfa -12 + ^ r4: .cfa -16 + ^
STACK CFI 17f5c .cfa: r7 8 +
STACK CFI INIT 17f80 320 .cfa: sp 0 +
STACK CFI 17f82 .cfa: sp 20 + .ra: .cfa -4 + ^ r7: .cfa -8 + ^ r6: .cfa -12 + ^ r5: .cfa -16 + ^ r4: .cfa -20 + ^
STACK CFI 17f84 .cfa: r7 8 +
STACK CFI 17f88 r10: .cfa -24 + ^ r9: .cfa -28 + ^ r8: .cfa -32 + ^
STACK CFI INIT 182a0 3a .cfa: sp 0 +
STACK CFI 182a2 .cfa: sp 16 + .ra: .cfa -4 + ^ r7: .cfa -8 + ^ r5: .cfa -12 + ^ r4: .cfa -16 + ^
STACK CFI 182a4 .cfa: r7 8 +
STACK CFI INIT 182dc 60 .cfa: sp 0 +
STACK CFI 182de .cfa: sp 16 + .ra: .cfa -4 + ^ r7: .cfa -8 + ^ r6: .cfa -12 + ^ r4: .cfa -16 + ^
STACK CFI 182e0 .cfa: r7 8 +
STACK CFI INIT 1833c 3e .cfa: sp 0 +
STACK CFI 1833e .cfa: sp 20 + .ra: .cfa -4 + ^ r7: .cfa -8 + ^ r6: .cfa -12 + ^ r5: .cfa -16 + ^ r4: .cfa -20 + ^
STACK CFI 18340 .cfa: r7 8 +
STACK CFI 18344 r11: .cfa -24 + ^
STACK CFI INIT 1837a 2 .cfa: sp 0 +
STACK CFI INIT 1837c f8 .cfa: sp 0 +
STACK CFI 1837e .cfa: sp 20 + .ra: .cfa -4 + ^ r7: .cfa -8 + ^ r6: .cfa -12 + ^ r5: .cfa -16 + ^ r4: .cfa -20 + ^
STACK CFI 18380 .cfa: r7 8 +
STACK CFI 18384 r8: .cfa -24 + ^
STACK CFI INIT 18474 34 .cfa: sp 0 +
STACK CFI 18476 .cfa: sp 8 + .ra: .cfa -4 + ^ r7: .cfa -8 + ^
STACK CFI 18478 .cfa: r7 8 +
STACK CFI INIT 184a8 d8 .cfa: sp 0 +
STACK CFI 184aa .cfa: sp 20 + .ra: .cfa -4 + ^ r7: .cfa -8 + ^ r6: .cfa -12 + ^ r5: .cfa -16 + ^ r4: .cfa -20 + ^
STACK CFI 184ac .cfa: r7 8 +
STACK CFI 184b0 r11: .cfa -24 + ^ r10: .cfa -28 + ^ r9: .cfa -32 + ^ r8: .cfa -36 + ^
STACK CFI INIT 18580 68 .cfa: sp 0 +
STACK CFI 18582 .cfa: sp 20 + .ra: .cfa -4 + ^ r7: .cfa -8 + ^ r6: .cfa -12 + ^ r5: .cfa -16 + ^ r4: .cfa -20 + ^
STACK CFI 18584 .cfa: r7 8 +
STACK CFI 18588 r11: .cfa -24 + ^
STACK CFI INIT 185e8 10 .cfa: sp 0 +
STACK CFI 185ea .cfa: sp 8 + .ra: .cfa -4 + ^ r7: .cfa -8 + ^
STACK CFI 185ec .cfa: r7 8 +
STACK CFI INIT 185f8 108 .cfa: sp 0 +
STACK CFI 185fa .cfa: sp 20 + .ra: .cfa -4 + ^ r7: .cfa -8 + ^ r6: .cfa -12 + ^ r5: .cfa -16 + ^ r4: .cfa -20 + ^
STACK CFI 185fc .cfa: r7 8 +
STACK CFI 18600 r11: .cfa -24 + ^ r10: .cfa -28 + ^ r9: .cfa -32 + ^ r8: .cfa -36 + ^
STACK CFI INIT 18700 110 .cfa: sp 0 +
STACK CFI 18702 .cfa: sp 20 + .ra: .cfa -4 + ^ r7: .cfa -8 + ^ r6: .cfa -12 + ^ r5: .cfa -16 + ^ r4: .cfa -20 + ^
STACK CFI 18704 .cfa: r7 8 +
STACK CFI 18708 r11: .cfa -24 + ^ r10: .cfa -28 + ^ r9: .cfa -32 + ^ r8: .cfa -36 + ^
STACK CFI INIT 18810 10 .cfa: sp 0 +
STACK CFI 18812 .cfa: sp 8 + .ra: .cfa -4 + ^ r7: .cfa -8 + ^
STACK CFI 18814 .cfa: r7 8 +
STACK CFI INIT 18820 38 .cfa: sp 0 +
STACK CFI 18822 .cfa: sp 16 + .ra: .cfa -4 + ^ r7: .cfa -8 + ^ r5: .cfa -12 + ^ r4: .cfa -16 + ^
STACK CFI 18824 .cfa: r7 8 +
STACK CFI INIT 18858 18 .cfa: sp 0 +
STACK CFI 1885a .cfa: sp 8 + .ra: .cfa -4 + ^ r7: .cfa -8 + ^
STACK CFI 1885c .cfa: r7 8 +
STACK CFI INIT 18870 28 .cfa: sp 0 +
STACK CFI 18872 .cfa: sp 8 + .ra: .cfa -4 + ^ r7: .cfa -8 + ^
STACK CFI 18874 .cfa: r7 8 +
STACK CFI INIT 18898 ce .cfa: sp 0 +
STACK CFI 1889a .cfa: sp 20 + .ra: .cfa -4 + ^ r7: .cfa -8 + ^ r6: .cfa -12 + ^ r5: .cfa -16 + ^ r4: .cfa -20 + ^
STACK CFI 1889c .cfa: r7 8 +
STACK CFI 188a0 r10: .cfa -24 + ^ r9: .cfa -28 + ^ r8: .cfa -32 + ^
STACK CFI INIT 18966 e0 .cfa: sp 0 +
STACK CFI 18968 .cfa: sp 20 + .ra: .cfa -4 + ^ r7: .cfa -8 + ^ r6: .cfa -12 + ^ r5: .cfa -16 + ^ r4: .cfa -20 + ^
STACK CFI 1896a .cfa: r7 8 +
STACK CFI 1896e r11: .cfa -24 + ^ r9: .cfa -28 + ^ r8: .cfa -32 + ^
STACK CFI INIT 18a48 164 .cfa: sp 0 +
STACK CFI 18a4a .cfa: sp 20 + .ra: .cfa -4 + ^ r7: .cfa -8 + ^ r6: .cfa -12 + ^ r5: .cfa -16 + ^ r4: .cfa -20 + ^
STACK CFI 18a4c .cfa: r7 8 +
STACK CFI 18a50 r10: .cfa -24 + ^ r9: .cfa -28 + ^ r8: .cfa -32 + ^
STACK CFI INIT 18bac 46 .cfa: sp 0 +
STACK CFI 18bae .cfa: sp 20 + .ra: .cfa -4 + ^ r7: .cfa -8 + ^ r6: .cfa -12 + ^ r5: .cfa -16 + ^ r4: .cfa -20 + ^
STACK CFI 18bb0 .cfa: r7 8 +
STACK CFI 18bb4 r8: .cfa -24 + ^
STACK CFI INIT 18bf2 3c .cfa: sp 0 +
STACK CFI 18bf4 .cfa: sp 16 + .ra: .cfa -4 + ^ r7: .cfa -8 + ^ r5: .cfa -12 + ^ r4: .cfa -16 + ^
STACK CFI 18bf6 .cfa: r7 8 +
STACK CFI INIT 18c30 10 .cfa: sp 0 +
STACK CFI 18c32 .cfa: sp 8 + .ra: .cfa -4 + ^ r7: .cfa -8 + ^
STACK CFI 18c34 .cfa: r7 8 +
STACK CFI INIT 18c40 2 .cfa: sp 0 +
STACK CFI INIT 18c42 e .cfa: sp 0 +
STACK CFI INIT 18c50 c0 .cfa: sp 0 +
STACK CFI 18c52 .cfa: sp 20 + .ra: .cfa -4 + ^ r7: .cfa -8 + ^ r6: .cfa -12 + ^ r5: .cfa -16 + ^ r4: .cfa -20 + ^
STACK CFI 18c54 .cfa: r7 8 +
STACK CFI 18c58 r10: .cfa -24 + ^ r9: .cfa -28 + ^ r8: .cfa -32 + ^
STACK CFI INIT 18d10 82 .cfa: sp 0 +
STACK CFI 18d12 .cfa: sp 20 + .ra: .cfa -4 + ^ r7: .cfa -8 + ^ r6: .cfa -12 + ^ r5: .cfa -16 + ^ r4: .cfa -20 + ^
STACK CFI 18d14 .cfa: r7 8 +
STACK CFI 18d18 r11: .cfa -24 + ^
STACK CFI INIT 18d92 274 .cfa: sp 0 +
STACK CFI 18d94 .cfa: sp 20 + .ra: .cfa -4 + ^ r7: .cfa -8 + ^ r6: .cfa -12 + ^ r5: .cfa -16 + ^ r4: .cfa -20 + ^
STACK CFI 18d96 .cfa: r7 8 +
STACK CFI 18d9a r8: .cfa -24 + ^
STACK CFI INIT 19006 5e .cfa: sp 0 +
STACK CFI 1900e .cfa: sp 16 + .ra: .cfa -4 + ^ r7: .cfa -8 + ^ r5: .cfa -12 + ^ r4: .cfa -16 + ^
STACK CFI 19010 .cfa: r7 8 +
STACK CFI INIT 19064 144 .cfa: sp 0 +
STACK CFI 19066 .cfa: sp 20 + .ra: .cfa -4 + ^ r7: .cfa -8 + ^ r6: .cfa -12 + ^ r5: .cfa -16 + ^ r4: .cfa -20 + ^
STACK CFI 19068 .cfa: r7 8 +
STACK CFI 1906c r11: .cfa -24 + ^ r10: .cfa -28 + ^ r9: .cfa -32 + ^ r8: .cfa -36 + ^
STACK CFI INIT 191a8 3a .cfa: sp 0 +
STACK CFI 191aa .cfa: sp 16 + .ra: .cfa -4 + ^ r7: .cfa -8 + ^ r5: .cfa -12 + ^ r4: .cfa -16 + ^
STACK CFI 191ac .cfa: r7 8 +
STACK CFI INIT 191e2 46 .cfa: sp 0 +
STACK CFI 191e4 .cfa: sp 16 + .ra: .cfa -4 + ^ r7: .cfa -8 + ^ r5: .cfa -12 + ^ r4: .cfa -16 + ^
STACK CFI 191e6 .cfa: r7 8 +
STACK CFI INIT 19228 e0 .cfa: sp 0 +
STACK CFI 1922a .cfa: sp 20 + .ra: .cfa -4 + ^ r7: .cfa -8 + ^ r6: .cfa -12 + ^ r5: .cfa -16 + ^ r4: .cfa -20 + ^
STACK CFI 1922c .cfa: r7 8 +
STACK CFI 19230 r11: .cfa -24 + ^ r9: .cfa -28 + ^ r8: .cfa -32 + ^
STACK CFI INIT 19308 8c .cfa: sp 0 +
STACK CFI 1930a .cfa: sp 20 + .ra: .cfa -4 + ^ r7: .cfa -8 + ^ r6: .cfa -12 + ^ r5: .cfa -16 + ^ r4: .cfa -20 + ^
STACK CFI 1930c .cfa: r7 8 +
STACK CFI 19310 r11: .cfa -24 + ^ r9: .cfa -28 + ^ r8: .cfa -32 + ^
STACK CFI INIT 19394 10 .cfa: sp 0 +
STACK CFI 19396 .cfa: sp 8 + .ra: .cfa -4 + ^ r7: .cfa -8 + ^
STACK CFI 19398 .cfa: r7 8 +
STACK CFI INIT 193a4 ba .cfa: sp 0 +
STACK CFI 193a6 .cfa: sp 20 + .ra: .cfa -4 + ^ r7: .cfa -8 + ^ r6: .cfa -12 + ^ r5: .cfa -16 + ^ r4: .cfa -20 + ^
STACK CFI 193a8 .cfa: r7 8 +
STACK CFI 193ac r11: .cfa -24 + ^ r10: .cfa -28 + ^ r9: .cfa -32 + ^ r8: .cfa -36 + ^
STACK CFI INIT 1945e 14a .cfa: sp 0 +
STACK CFI 19470 .cfa: sp 16 + .ra: .cfa -4 + ^ r7: .cfa -8 + ^ r6: .cfa -12 + ^ r4: .cfa -16 + ^
STACK CFI 19472 .cfa: r7 8 +
STACK CFI INIT 195a8 2f4 .cfa: sp 0 +
STACK CFI 195aa .cfa: sp 20 + .ra: .cfa -4 + ^ r7: .cfa -8 + ^ r6: .cfa -12 + ^ r5: .cfa -16 + ^ r4: .cfa -20 + ^
STACK CFI 195ac .cfa: r7 8 +
STACK CFI 195b0 r11: .cfa -24 + ^ r10: .cfa -28 + ^ r9: .cfa -32 + ^ r8: .cfa -36 + ^
STACK CFI INIT 1989c 20 .cfa: sp 0 +
STACK CFI 1989e .cfa: sp 16 + .ra: .cfa -4 + ^ r7: .cfa -8 + ^ r6: .cfa -12 + ^ r4: .cfa -16 + ^
STACK CFI 198a0 .cfa: r7 8 +
STACK CFI INIT 198c0 c44 .cfa: sp 0 +
STACK CFI 198c2 .cfa: sp 20 + .ra: .cfa -4 + ^ r7: .cfa -8 + ^ r6: .cfa -12 + ^ r5: .cfa -16 + ^ r4: .cfa -20 + ^
STACK CFI 198c4 .cfa: r7 8 +
STACK CFI 198c8 r10: .cfa -24 + ^ r9: .cfa -28 + ^ r8: .cfa -32 + ^
STACK CFI INIT 1a504 2 .cfa: sp 0 +
STACK CFI INIT 1a508 18 .cfa: sp 0 +
STACK CFI 1a50a .cfa: sp 8 + .ra: .cfa -4 + ^ r7: .cfa -8 + ^
STACK CFI 1a50c .cfa: r7 8 +
STACK CFI INIT 1a520 138 .cfa: sp 0 +
STACK CFI 1a522 .cfa: sp 20 + .ra: .cfa -4 + ^ r7: .cfa -8 + ^ r6: .cfa -12 + ^ r5: .cfa -16 + ^ r4: .cfa -20 + ^
STACK CFI 1a524 .cfa: r7 8 +
STACK CFI 1a528 r11: .cfa -24 + ^ r10: .cfa -28 + ^ r9: .cfa -32 + ^ r8: .cfa -36 + ^
STACK CFI INIT 1a658 d8 .cfa: sp 0 +
STACK CFI 1a65a .cfa: sp 20 + .ra: .cfa -4 + ^ r7: .cfa -8 + ^ r6: .cfa -12 + ^ r5: .cfa -16 + ^ r4: .cfa -20 + ^
STACK CFI 1a65c .cfa: r7 8 +
STACK CFI 1a660 r11: .cfa -24 + ^
STACK CFI INIT 1a730 50c .cfa: sp 0 +
STACK CFI 1a732 .cfa: sp 20 + .ra: .cfa -4 + ^ r7: .cfa -8 + ^ r6: .cfa -12 + ^ r5: .cfa -16 + ^ r4: .cfa -20 + ^
STACK CFI 1a734 .cfa: r7 8 +
STACK CFI 1a738 r11: .cfa -24 + ^ r10: .cfa -28 + ^ r9: .cfa -32 + ^ r8: .cfa -36 + ^
STACK CFI INIT 1ac3c 694 .cfa: sp 0 +
STACK CFI 1ac3e .cfa: sp 20 + .ra: .cfa -4 + ^ r7: .cfa -8 + ^ r6: .cfa -12 + ^ r5: .cfa -16 + ^ r4: .cfa -20 + ^
STACK CFI 1ac40 .cfa: r7 8 +
STACK CFI 1ac44 r11: .cfa -24 + ^ r10: .cfa -28 + ^ r9: .cfa -32 + ^ r8: .cfa -36 + ^
STACK CFI INIT 1b2d0 2ec .cfa: sp 0 +
STACK CFI 1b2d2 .cfa: sp 20 + .ra: .cfa -4 + ^ r7: .cfa -8 + ^ r6: .cfa -12 + ^ r5: .cfa -16 + ^ r4: .cfa -20 + ^
STACK CFI 1b2d4 .cfa: r7 8 +
STACK CFI 1b2d8 r11: .cfa -24 + ^
STACK CFI INIT 1b5bc 10 .cfa: sp 0 +
STACK CFI 1b5be .cfa: sp 8 + .ra: .cfa -4 + ^ r7: .cfa -8 + ^
STACK CFI 1b5c0 .cfa: r7 8 +
STACK CFI INIT 1b5cc 3c .cfa: sp 0 +
STACK CFI 1b5e0 .cfa: sp 16 + .ra: .cfa -4 + ^ r7: .cfa -8 + ^ r6: .cfa -12 + ^ r4: .cfa -16 + ^
STACK CFI 1b5e2 .cfa: r7 8 +
STACK CFI INIT 1b608 38 .cfa: sp 0 +
STACK CFI 1b618 .cfa: sp 16 + .ra: .cfa -4 + ^ r7: .cfa -8 + ^ r6: .cfa -12 + ^ r4: .cfa -16 + ^
STACK CFI 1b61a .cfa: r7 8 +
STACK CFI INIT 1b640 78 .cfa: sp 0 +
STACK CFI 1b642 .cfa: sp 16 + .ra: .cfa -4 + ^ r7: .cfa -8 + ^ r5: .cfa -12 + ^ r4: .cfa -16 + ^
STACK CFI 1b644 .cfa: r7 8 +
STACK CFI INIT 1b6b8 24 .cfa: sp 0 +
STACK CFI INIT 1b6dc f8 .cfa: sp 0 +
STACK CFI 1b6de .cfa: sp 20 + .ra: .cfa -4 + ^ r7: .cfa -8 + ^ r6: .cfa -12 + ^ r5: .cfa -16 + ^ r4: .cfa -20 + ^
STACK CFI 1b6e0 .cfa: r7 8 +
STACK CFI 1b6e4 r11: .cfa -24 + ^
STACK CFI INIT 1b7d4 70 .cfa: sp 0 +
STACK CFI 1b7d6 .cfa: sp 16 + .ra: .cfa -4 + ^ r7: .cfa -8 + ^ r6: .cfa -12 + ^ r4: .cfa -16 + ^
STACK CFI 1b7d8 .cfa: r7 8 +
STACK CFI INIT 1b844 70 .cfa: sp 0 +
STACK CFI 1b846 .cfa: sp 16 + .ra: .cfa -4 + ^ r7: .cfa -8 + ^ r6: .cfa -12 + ^ r4: .cfa -16 + ^
STACK CFI 1b848 .cfa: r7 8 +
STACK CFI INIT 1b8b4 2d0 .cfa: sp 0 +
STACK CFI 1b8b6 .cfa: sp 20 + .ra: .cfa -4 + ^ r7: .cfa -8 + ^ r6: .cfa -12 + ^ r5: .cfa -16 + ^ r4: .cfa -20 + ^
STACK CFI 1b8b8 .cfa: r7 8 +
STACK CFI 1b8bc r11: .cfa -24 + ^ r10: .cfa -28 + ^ r9: .cfa -32 + ^ r8: .cfa -36 + ^
STACK CFI INIT 1bb84 20 .cfa: sp 0 +
STACK CFI 1bb86 .cfa: sp 16 + .ra: .cfa -4 + ^ r7: .cfa -8 + ^ r6: .cfa -12 + ^ r4: .cfa -16 + ^
STACK CFI 1bb88 .cfa: r7 8 +
STACK CFI INIT 1bba4 2d0 .cfa: sp 0 +
STACK CFI 1bba6 .cfa: sp 20 + .ra: .cfa -4 + ^ r7: .cfa -8 + ^ r6: .cfa -12 + ^ r5: .cfa -16 + ^ r4: .cfa -20 + ^
STACK CFI 1bba8 .cfa: r7 8 +
STACK CFI 1bbac r8: .cfa -24 + ^
STACK CFI INIT 1be74 2 .cfa: sp 0 +
STACK CFI INIT 1be78 1b0 .cfa: sp 0 +
STACK CFI 1be7a .cfa: sp 20 + .ra: .cfa -4 + ^ r7: .cfa -8 + ^ r6: .cfa -12 + ^ r5: .cfa -16 + ^ r4: .cfa -20 + ^
STACK CFI 1be7c .cfa: r7 8 +
STACK CFI 1be80 r11: .cfa -24 + ^
STACK CFI INIT 1c028 1e .cfa: sp 0 +
STACK CFI 1c032 .cfa: sp 16 + .ra: .cfa -4 + ^ r7: .cfa -8 + ^ r6: .cfa -12 + ^ r4: .cfa -16 + ^
STACK CFI 1c034 .cfa: r7 8 +
STACK CFI INIT 1c048 2d0 .cfa: sp 0 +
STACK CFI 1c04a .cfa: sp 20 + .ra: .cfa -4 + ^ r7: .cfa -8 + ^ r6: .cfa -12 + ^ r5: .cfa -16 + ^ r4: .cfa -20 + ^
STACK CFI 1c04c .cfa: r7 8 +
STACK CFI 1c050 r11: .cfa -24 + ^ r10: .cfa -28 + ^ r9: .cfa -32 + ^ r8: .cfa -36 + ^
STACK CFI INIT 1c364 20 .cfa: sp 0 +
STACK CFI 1c366 .cfa: sp 16 + .ra: .cfa -4 + ^ r7: .cfa -8 + ^ r6: .cfa -12 + ^ r4: .cfa -16 + ^
STACK CFI 1c368 .cfa: r7 8 +
STACK CFI INIT 1c390 350 .cfa: sp 0 +
STACK CFI 1c392 .cfa: sp 20 + .ra: .cfa -4 + ^ r7: .cfa -8 + ^ r6: .cfa -12 + ^ r5: .cfa -16 + ^ r4: .cfa -20 + ^
STACK CFI 1c394 .cfa: r7 8 +
STACK CFI 1c398 r11: .cfa -24 + ^ r10: .cfa -28 + ^ r9: .cfa -32 + ^ r8: .cfa -36 + ^
STACK CFI INIT 1c6e0 2 .cfa: sp 0 +
STACK CFI INIT 1c6e4 190 .cfa: sp 0 +
STACK CFI 1c6e6 .cfa: sp 20 + .ra: .cfa -4 + ^ r7: .cfa -8 + ^ r6: .cfa -12 + ^ r5: .cfa -16 + ^ r4: .cfa -20 + ^
STACK CFI 1c6e8 .cfa: r7 8 +
STACK CFI 1c6ec r11: .cfa -24 + ^ r10: .cfa -28 + ^ r9: .cfa -32 + ^ r8: .cfa -36 + ^
STACK CFI INIT 1c874 60 .cfa: sp 0 +
STACK CFI 1c876 .cfa: sp 16 + .ra: .cfa -4 + ^ r7: .cfa -8 + ^ r6: .cfa -12 + ^ r4: .cfa -16 + ^
STACK CFI 1c878 .cfa: r7 8 +
STACK CFI INIT 1c8d4 c8 .cfa: sp 0 +
STACK CFI 1c8d6 .cfa: sp 16 + .ra: .cfa -4 + ^ r7: .cfa -8 + ^ r6: .cfa -12 + ^ r4: .cfa -16 + ^
STACK CFI 1c8d8 .cfa: r7 8 +
STACK CFI INIT 1c99c 2 .cfa: sp 0 +
STACK CFI INIT 1c99e e .cfa: sp 0 +
STACK CFI INIT 1c9ac 2 .cfa: sp 0 +
STACK CFI INIT 1c9ae e .cfa: sp 0 +
STACK CFI INIT 1c318 4c .cfa: sp 0 +
STACK CFI 1c31a .cfa: sp 16 + .ra: .cfa -4 + ^ r7: .cfa -8 + ^ r5: .cfa -12 + ^ r4: .cfa -16 + ^
STACK CFI 1c31c .cfa: r7 8 +
STACK CFI INIT 1c9bc 2d0 .cfa: sp 0 +
STACK CFI 1c9be .cfa: sp 20 + .ra: .cfa -4 + ^ r7: .cfa -8 + ^ r6: .cfa -12 + ^ r5: .cfa -16 + ^ r4: .cfa -20 + ^
STACK CFI 1c9c0 .cfa: r7 8 +
STACK CFI 1c9c4 r11: .cfa -24 + ^ r10: .cfa -28 + ^ r9: .cfa -32 + ^ r8: .cfa -36 + ^
STACK CFI INIT 1d22c 20 .cfa: sp 0 +
STACK CFI 1d22e .cfa: sp 16 + .ra: .cfa -4 + ^ r7: .cfa -8 + ^ r6: .cfa -12 + ^ r4: .cfa -16 + ^
STACK CFI 1d230 .cfa: r7 8 +
STACK CFI INIT 1cc8c 2d0 .cfa: sp 0 +
STACK CFI 1cc8e .cfa: sp 20 + .ra: .cfa -4 + ^ r7: .cfa -8 + ^ r6: .cfa -12 + ^ r5: .cfa -16 + ^ r4: .cfa -20 + ^
STACK CFI 1cc90 .cfa: r7 8 +
STACK CFI 1cc94 r11: .cfa -24 + ^ r10: .cfa -28 + ^ r9: .cfa -32 + ^ r8: .cfa -36 + ^
STACK CFI INIT 1d24c 20 .cfa: sp 0 +
STACK CFI 1d24e .cfa: sp 16 + .ra: .cfa -4 + ^ r7: .cfa -8 + ^ r6: .cfa -12 + ^ r4: .cfa -16 + ^
STACK CFI 1d250 .cfa: r7 8 +
STACK CFI INIT 1cf5c 2d0 .cfa: sp 0 +
STACK CFI 1cf5e .cfa: sp 20 + .ra: .cfa -4 + ^ r7: .cfa -8 + ^ r6: .cfa -12 + ^ r5: .cfa -16 + ^ r4: .cfa -20 + ^
STACK CFI 1cf60 .cfa: r7 8 +
STACK CFI 1cf64 r11: .cfa -24 + ^ r10: .cfa -28 + ^ r9: .cfa -32 + ^ r8: .cfa -36 + ^
STACK CFI INIT 1d26c 20 .cfa: sp 0 +
STACK CFI 1d26e .cfa: sp 16 + .ra: .cfa -4 + ^ r7: .cfa -8 + ^ r6: .cfa -12 + ^ r4: .cfa -16 + ^
STACK CFI 1d270 .cfa: r7 8 +
STACK CFI INIT 1d290 320 .cfa: sp 0 +
STACK CFI 1d292 .cfa: sp 20 + .ra: .cfa -4 + ^ r7: .cfa -8 + ^ r6: .cfa -12 + ^ r5: .cfa -16 + ^ r4: .cfa -20 + ^
STACK CFI 1d294 .cfa: r7 8 +
STACK CFI 1d298 r10: .cfa -24 + ^ r9: .cfa -28 + ^ r8: .cfa -32 + ^
STACK CFI INIT 1d5b0 2 .cfa: sp 0 +
STACK CFI INIT 1d5b2 28 .cfa: sp 0 +
STACK CFI 1d5b4 .cfa: sp 16 + .ra: .cfa -4 + ^ r7: .cfa -8 + ^ r5: .cfa -12 + ^ r4: .cfa -16 + ^
STACK CFI 1d5b6 .cfa: r7 8 +
STACK CFI INIT 1d5e0 320 .cfa: sp 0 +
STACK CFI 1d5e2 .cfa: sp 20 + .ra: .cfa -4 + ^ r7: .cfa -8 + ^ r6: .cfa -12 + ^ r5: .cfa -16 + ^ r4: .cfa -20 + ^
STACK CFI 1d5e4 .cfa: r7 8 +
STACK CFI 1d5e8 r10: .cfa -24 + ^ r9: .cfa -28 + ^ r8: .cfa -32 + ^
STACK CFI INIT 1d900 2 .cfa: sp 0 +
STACK CFI INIT 1d902 28 .cfa: sp 0 +
STACK CFI 1d904 .cfa: sp 16 + .ra: .cfa -4 + ^ r7: .cfa -8 + ^ r5: .cfa -12 + ^ r4: .cfa -16 + ^
STACK CFI 1d906 .cfa: r7 8 +
STACK CFI INIT 1d930 310 .cfa: sp 0 +
STACK CFI 1d932 .cfa: sp 20 + .ra: .cfa -4 + ^ r7: .cfa -8 + ^ r6: .cfa -12 + ^ r5: .cfa -16 + ^ r4: .cfa -20 + ^
STACK CFI 1d934 .cfa: r7 8 +
STACK CFI 1d938 r10: .cfa -24 + ^ r9: .cfa -28 + ^ r8: .cfa -32 + ^
STACK CFI INIT 1dc40 2 .cfa: sp 0 +
STACK CFI INIT 1dc42 28 .cfa: sp 0 +
STACK CFI 1dc44 .cfa: sp 16 + .ra: .cfa -4 + ^ r7: .cfa -8 + ^ r5: .cfa -12 + ^ r4: .cfa -16 + ^
STACK CFI 1dc46 .cfa: r7 8 +
STACK CFI INIT 1dc6c d4 .cfa: sp 0 +
STACK CFI 1dc6e .cfa: sp 8 + .ra: .cfa -4 + ^ r7: .cfa -8 + ^
STACK CFI 1dc70 .cfa: r7 8 +
STACK CFI INIT 1dd40 714 .cfa: sp 0 +
STACK CFI 1dd42 .cfa: sp 20 + .ra: .cfa -4 + ^ r7: .cfa -8 + ^ r6: .cfa -12 + ^ r5: .cfa -16 + ^ r4: .cfa -20 + ^
STACK CFI 1dd44 .cfa: r7 8 +
STACK CFI 1dd48 r11: .cfa -24 + ^ r10: .cfa -28 + ^ r9: .cfa -32 + ^ r8: .cfa -36 + ^
STACK CFI INIT 1e454 20 .cfa: sp 0 +
STACK CFI 1e456 .cfa: sp 16 + .ra: .cfa -4 + ^ r7: .cfa -8 + ^ r6: .cfa -12 + ^ r4: .cfa -16 + ^
STACK CFI 1e458 .cfa: r7 8 +
STACK CFI INIT 1e474 2f4 .cfa: sp 0 +
STACK CFI 1e476 .cfa: sp 20 + .ra: .cfa -4 + ^ r7: .cfa -8 + ^ r6: .cfa -12 + ^ r5: .cfa -16 + ^ r4: .cfa -20 + ^
STACK CFI 1e478 .cfa: r7 8 +
STACK CFI 1e47c r11: .cfa -24 + ^ r10: .cfa -28 + ^ r9: .cfa -32 + ^ r8: .cfa -36 + ^
STACK CFI INIT 1e768 20 .cfa: sp 0 +
STACK CFI 1e76a .cfa: sp 16 + .ra: .cfa -4 + ^ r7: .cfa -8 + ^ r6: .cfa -12 + ^ r4: .cfa -16 + ^
STACK CFI 1e76c .cfa: r7 8 +
STACK CFI INIT 1e788 2c8 .cfa: sp 0 +
STACK CFI 1e78a .cfa: sp 20 + .ra: .cfa -4 + ^ r7: .cfa -8 + ^ r6: .cfa -12 + ^ r5: .cfa -16 + ^ r4: .cfa -20 + ^
STACK CFI 1e78c .cfa: r7 8 +
STACK CFI 1e790 r8: .cfa -24 + ^
STACK CFI INIT 1ea50 2 .cfa: sp 0 +
STACK CFI INIT 1ea54 164 .cfa: sp 0 +
STACK CFI 1ea56 .cfa: sp 20 + .ra: .cfa -4 + ^ r7: .cfa -8 + ^ r6: .cfa -12 + ^ r5: .cfa -16 + ^ r4: .cfa -20 + ^
STACK CFI 1ea58 .cfa: r7 8 +
STACK CFI 1ea5c r11: .cfa -24 + ^ r9: .cfa -28 + ^ r8: .cfa -32 + ^
STACK CFI INIT 1ebb8 a8 .cfa: sp 0 +
STACK CFI 1ebba .cfa: sp 20 + .ra: .cfa -4 + ^ r7: .cfa -8 + ^ r6: .cfa -12 + ^ r5: .cfa -16 + ^ r4: .cfa -20 + ^
STACK CFI 1ebbc .cfa: r7 8 +
STACK CFI 1ebc0 r11: .cfa -24 + ^ r9: .cfa -28 + ^ r8: .cfa -32 + ^
STACK CFI INIT 1ec60 5c .cfa: sp 0 +
STACK CFI 1ec62 .cfa: sp 20 + .ra: .cfa -4 + ^ r7: .cfa -8 + ^ r6: .cfa -12 + ^ r5: .cfa -16 + ^ r4: .cfa -20 + ^
STACK CFI 1ec64 .cfa: r7 8 +
STACK CFI 1ec68 r11: .cfa -24 + ^
STACK CFI INIT 1ecbc 104 .cfa: sp 0 +
STACK CFI 1ecbe .cfa: sp 20 + .ra: .cfa -4 + ^ r7: .cfa -8 + ^ r6: .cfa -12 + ^ r5: .cfa -16 + ^ r4: .cfa -20 + ^
STACK CFI 1ecc0 .cfa: r7 8 +
STACK CFI 1ecc4 r8: .cfa -24 + ^
STACK CFI INIT 1edc0 4 .cfa: sp 0 +
STACK CFI INIT 1edc4 20 .cfa: sp 0 +
STACK CFI 1edc6 .cfa: sp 16 + .ra: .cfa -4 + ^ r7: .cfa -8 + ^ r6: .cfa -12 + ^ r4: .cfa -16 + ^
STACK CFI 1edc8 .cfa: r7 8 +
STACK CFI INIT 1ede4 18 .cfa: sp 0 +
STACK CFI INIT 1edfc 2 .cfa: sp 0 +
STACK CFI INIT 1edfe 4 .cfa: sp 0 +
STACK CFI INIT 1ee02 6 .cfa: sp 0 +
STACK CFI INIT 1ee08 18 .cfa: sp 0 +
STACK CFI INIT 1ee20 c .cfa: sp 0 +
STACK CFI INIT 1ee2c 4 .cfa: sp 0 +
STACK CFI INIT 1ee30 e4 .cfa: sp 0 +
STACK CFI 1ee32 .cfa: sp 20 + .ra: .cfa -4 + ^ r7: .cfa -8 + ^ r6: .cfa -12 + ^ r5: .cfa -16 + ^ r4: .cfa -20 + ^
STACK CFI 1ee34 .cfa: r7 8 +
STACK CFI 1ee38 r11: .cfa -24 + ^
STACK CFI INIT 1ef14 38 .cfa: sp 0 +
STACK CFI 1ef16 .cfa: sp 16 + .ra: .cfa -4 + ^ r7: .cfa -8 + ^ r6: .cfa -12 + ^ r4: .cfa -16 + ^
STACK CFI 1ef18 .cfa: r7 8 +
STACK CFI INIT 1ef4c 3c .cfa: sp 0 +
STACK CFI 1ef4e .cfa: sp 16 + .ra: .cfa -4 + ^ r7: .cfa -8 + ^ r6: .cfa -12 + ^ r4: .cfa -16 + ^
STACK CFI 1ef50 .cfa: r7 8 +
STACK CFI INIT 1ef88 2 .cfa: sp 0 +
STACK CFI INIT 1ef8a e .cfa: sp 0 +
STACK CFI INIT 1ef98 a8 .cfa: sp 0 +
STACK CFI 1ef9a .cfa: sp 20 + .ra: .cfa -4 + ^ r7: .cfa -8 + ^ r6: .cfa -12 + ^ r5: .cfa -16 + ^ r4: .cfa -20 + ^
STACK CFI 1ef9c .cfa: r7 8 +
STACK CFI 1efa0 r11: .cfa -24 + ^ r9: .cfa -28 + ^ r8: .cfa -32 + ^
STACK CFI INIT 1f040 2 .cfa: sp 0 +
STACK CFI INIT 1f042 4 .cfa: sp 0 +
STACK CFI INIT 1f048 20 .cfa: sp 0 +
STACK CFI 1f04a .cfa: sp 16 + .ra: .cfa -4 + ^ r7: .cfa -8 + ^ r6: .cfa -12 + ^ r4: .cfa -16 + ^
STACK CFI 1f04c .cfa: r7 8 +
STACK CFI INIT 1f068 18 .cfa: sp 0 +
STACK CFI INIT 1f080 2 .cfa: sp 0 +
STACK CFI INIT 1f082 4 .cfa: sp 0 +
STACK CFI INIT 1f086 6 .cfa: sp 0 +
STACK CFI INIT 1f08c 18 .cfa: sp 0 +
STACK CFI INIT 1f0a4 c .cfa: sp 0 +
STACK CFI INIT 1f0b0 7c .cfa: sp 0 +
STACK CFI 1f0b2 .cfa: sp 16 + .ra: .cfa -4 + ^ r7: .cfa -8 + ^ r6: .cfa -12 + ^ r4: .cfa -16 + ^
STACK CFI 1f0b4 .cfa: r7 8 +
STACK CFI INIT 1f12c 4 .cfa: sp 0 +
STACK CFI INIT 1f130 6c .cfa: sp 0 +
STACK CFI 1f132 .cfa: sp 16 + .ra: .cfa -4 + ^ r7: .cfa -8 + ^ r6: .cfa -12 + ^ r4: .cfa -16 + ^
STACK CFI 1f134 .cfa: r7 8 +
STACK CFI INIT 1f19c 4 .cfa: sp 0 +
STACK CFI INIT 1f1a0 6750 .cfa: sp 0 +
STACK CFI 1f1a2 .cfa: sp 20 + .ra: .cfa -4 + ^ r7: .cfa -8 + ^ r6: .cfa -12 + ^ r5: .cfa -16 + ^ r4: .cfa -20 + ^
STACK CFI 1f1a4 .cfa: r7 8 +
STACK CFI 1f1a8 r11: .cfa -24 + ^ r10: .cfa -28 + ^ r9: .cfa -32 + ^ r8: .cfa -36 + ^
STACK CFI INIT 258f0 3d4 .cfa: sp 0 +
STACK CFI 258f2 .cfa: sp 20 + .ra: .cfa -4 + ^ r7: .cfa -8 + ^ r6: .cfa -12 + ^ r5: .cfa -16 + ^ r4: .cfa -20 + ^
STACK CFI 258f4 .cfa: r7 8 +
STACK CFI 258f8 r11: .cfa -24 + ^ r10: .cfa -28 + ^ r9: .cfa -32 + ^ r8: .cfa -36 + ^
STACK CFI INIT 25cc4 64 .cfa: sp 0 +
STACK CFI 25cc6 .cfa: sp 20 + .ra: .cfa -4 + ^ r7: .cfa -8 + ^ r6: .cfa -12 + ^ r5: .cfa -16 + ^ r4: .cfa -20 + ^
STACK CFI 25cc8 .cfa: r7 8 +
STACK CFI 25ccc r11: .cfa -24 + ^
STACK CFI INIT 25d28 56 .cfa: sp 0 +
STACK CFI 25d2a .cfa: sp 20 + .ra: .cfa -4 + ^ r7: .cfa -8 + ^ r6: .cfa -12 + ^ r5: .cfa -16 + ^ r4: .cfa -20 + ^
STACK CFI 25d2c .cfa: r7 8 +
STACK CFI 25d30 r11: .cfa -24 + ^
STACK CFI INIT 25d80 60 .cfa: sp 0 +
STACK CFI 25d82 .cfa: sp 16 + .ra: .cfa -4 + ^ r7: .cfa -8 + ^ r6: .cfa -12 + ^ r4: .cfa -16 + ^
STACK CFI 25d84 .cfa: r7 8 +
STACK CFI INIT 25de0 22c .cfa: sp 0 +
STACK CFI 25de2 .cfa: sp 20 + .ra: .cfa -4 + ^ r7: .cfa -8 + ^ r6: .cfa -12 + ^ r5: .cfa -16 + ^ r4: .cfa -20 + ^
STACK CFI 25de4 .cfa: r7 8 +
STACK CFI 25de8 r11: .cfa -24 + ^ r10: .cfa -28 + ^ r9: .cfa -32 + ^ r8: .cfa -36 + ^
STACK CFI INIT 2600c 16 .cfa: sp 0 +
STACK CFI 2600e .cfa: sp 16 + .ra: .cfa -4 + ^ r7: .cfa -8 + ^ r6: .cfa -12 + ^ r4: .cfa -16 + ^
STACK CFI 26010 .cfa: r7 8 +
STACK CFI INIT 26022 96 .cfa: sp 0 +
STACK CFI 26024 .cfa: sp 20 + .ra: .cfa -4 + ^ r7: .cfa -8 + ^ r6: .cfa -12 + ^ r5: .cfa -16 + ^ r4: .cfa -20 + ^
STACK CFI 26026 .cfa: r7 8 +
STACK CFI 2602a r11: .cfa -24 + ^
STACK CFI INIT 260b8 2e .cfa: sp 0 +
STACK CFI 260ba .cfa: sp 16 + .ra: .cfa -4 + ^ r7: .cfa -8 + ^ r6: .cfa -12 + ^ r4: .cfa -16 + ^
STACK CFI 260bc .cfa: r7 8 +
STACK CFI INIT 260e6 22 .cfa: sp 0 +
STACK CFI 260e8 .cfa: sp 16 + .ra: .cfa -4 + ^ r7: .cfa -8 + ^ r6: .cfa -12 + ^ r4: .cfa -16 + ^
STACK CFI 260ea .cfa: r7 8 +
STACK CFI INIT 26108 16 .cfa: sp 0 +
STACK CFI 2610a .cfa: sp 16 + .ra: .cfa -4 + ^ r7: .cfa -8 + ^ r6: .cfa -12 + ^ r4: .cfa -16 + ^
STACK CFI 2610c .cfa: r7 8 +
STACK CFI INIT 2611e 34 .cfa: sp 0 +
STACK CFI 26120 .cfa: sp 16 + .ra: .cfa -4 + ^ r7: .cfa -8 + ^ r5: .cfa -12 + ^ r4: .cfa -16 + ^
STACK CFI 26122 .cfa: r7 8 +
STACK CFI INIT 26152 3a .cfa: sp 0 +
STACK CFI 26154 .cfa: sp 16 + .ra: .cfa -4 + ^ r7: .cfa -8 + ^ r5: .cfa -12 + ^ r4: .cfa -16 + ^
STACK CFI 26156 .cfa: r7 8 +
STACK CFI INIT 2618c 3a .cfa: sp 0 +
STACK CFI 2618e .cfa: sp 16 + .ra: .cfa -4 + ^ r7: .cfa -8 + ^ r5: .cfa -12 + ^ r4: .cfa -16 + ^
STACK CFI 26190 .cfa: r7 8 +
STACK CFI INIT 261c6 2 .cfa: sp 0 +
STACK CFI INIT 261c8 e .cfa: sp 0 +
STACK CFI INIT 261d6 2 .cfa: sp 0 +
STACK CFI INIT 261d8 4 .cfa: sp 0 +
STACK CFI INIT 261dc 20 .cfa: sp 0 +
STACK CFI 261de .cfa: sp 16 + .ra: .cfa -4 + ^ r7: .cfa -8 + ^ r6: .cfa -12 + ^ r4: .cfa -16 + ^
STACK CFI 261e0 .cfa: r7 8 +
STACK CFI INIT 261fc 14 .cfa: sp 0 +
STACK CFI INIT 26210 2 .cfa: sp 0 +
STACK CFI INIT 26212 4 .cfa: sp 0 +
STACK CFI INIT 26218 88 .cfa: sp 0 +
STACK CFI 2621a .cfa: sp 16 + .ra: .cfa -4 + ^ r7: .cfa -8 + ^ r6: .cfa -12 + ^ r4: .cfa -16 + ^
STACK CFI 2621c .cfa: r7 8 +
STACK CFI INIT 262a0 18 .cfa: sp 0 +
STACK CFI INIT 262b8 c .cfa: sp 0 +
STACK CFI INIT 262c4 4e4 .cfa: sp 0 +
STACK CFI 262c6 .cfa: sp 20 + .ra: .cfa -4 + ^ r7: .cfa -8 + ^ r6: .cfa -12 + ^ r5: .cfa -16 + ^ r4: .cfa -20 + ^
STACK CFI 262c8 .cfa: r7 8 +
STACK CFI 262cc r11: .cfa -24 + ^ r10: .cfa -28 + ^ r9: .cfa -32 + ^ r8: .cfa -36 + ^
STACK CFI INIT 267a8 2 .cfa: sp 0 +
STACK CFI INIT 267ac 10 .cfa: sp 0 +
STACK CFI 267ae .cfa: sp 8 + .ra: .cfa -4 + ^ r7: .cfa -8 + ^
STACK CFI 267b0 .cfa: r7 8 +
STACK CFI INIT 267bc 10 .cfa: sp 0 +
STACK CFI 267be .cfa: sp 8 + .ra: .cfa -4 + ^ r7: .cfa -8 + ^
STACK CFI 267c0 .cfa: r7 8 +
STACK CFI INIT 267cc 8 .cfa: sp 0 +
STACK CFI 267ce .cfa: sp 8 + .ra: .cfa -4 + ^ r7: .cfa -8 + ^
STACK CFI 267d0 .cfa: r7 8 +
STACK CFI INIT 267d4 3c .cfa: sp 0 +
STACK CFI 267d6 .cfa: sp 16 + .ra: .cfa -4 + ^ r7: .cfa -8 + ^ r6: .cfa -12 + ^ r4: .cfa -16 + ^
STACK CFI 267d8 .cfa: r7 8 +
STACK CFI INIT 26810 18 .cfa: sp 0 +
STACK CFI 26812 .cfa: sp 8 + .ra: .cfa -4 + ^ r7: .cfa -8 + ^
STACK CFI 26814 .cfa: r7 8 +
STACK CFI INIT 26828 8 .cfa: sp 0 +
STACK CFI 2682a .cfa: sp 8 + .ra: .cfa -4 + ^ r7: .cfa -8 + ^
STACK CFI 2682c .cfa: r7 8 +
STACK CFI INIT 26830 2 .cfa: sp 0 +
STACK CFI INIT 26832 4 .cfa: sp 0 +
STACK CFI INIT 26838 20 .cfa: sp 0 +
STACK CFI 2683a .cfa: sp 16 + .ra: .cfa -4 + ^ r7: .cfa -8 + ^ r6: .cfa -12 + ^ r4: .cfa -16 + ^
STACK CFI 2683c .cfa: r7 8 +
STACK CFI INIT 26858 14 .cfa: sp 0 +
STACK CFI INIT 2686c 2 .cfa: sp 0 +
STACK CFI INIT 2686e 4 .cfa: sp 0 +
STACK CFI INIT 26872 8 .cfa: sp 0 +
STACK CFI INIT 2687c 18 .cfa: sp 0 +
STACK CFI INIT 26894 c .cfa: sp 0 +
STACK CFI INIT 268a0 66 .cfa: sp 0 +
STACK CFI 268a2 .cfa: sp 20 + .ra: .cfa -4 + ^ r7: .cfa -8 + ^ r6: .cfa -12 + ^ r5: .cfa -16 + ^ r4: .cfa -20 + ^
STACK CFI 268a4 .cfa: r7 8 +
STACK CFI 268a8 r11: .cfa -24 + ^ r9: .cfa -28 + ^ r8: .cfa -32 + ^
STACK CFI INIT 26906 a6 .cfa: sp 0 +
STACK CFI 26908 .cfa: sp 20 + .ra: .cfa -4 + ^ r7: .cfa -8 + ^ r6: .cfa -12 + ^ r5: .cfa -16 + ^ r4: .cfa -20 + ^
STACK CFI 2690a .cfa: r7 8 +
STACK CFI 2690e r10: .cfa -24 + ^ r9: .cfa -28 + ^ r8: .cfa -32 + ^
STACK CFI INIT 269ac 3a .cfa: sp 0 +
STACK CFI 269ae .cfa: sp 20 + .ra: .cfa -4 + ^ r7: .cfa -8 + ^ r6: .cfa -12 + ^ r5: .cfa -16 + ^ r4: .cfa -20 + ^
STACK CFI 269b0 .cfa: r7 8 +
STACK CFI 269b4 r11: .cfa -24 + ^
STACK CFI INIT 269e8 334 .cfa: sp 0 +
STACK CFI 269ea .cfa: sp 20 + .ra: .cfa -4 + ^ r7: .cfa -8 + ^ r6: .cfa -12 + ^ r5: .cfa -16 + ^ r4: .cfa -20 + ^
STACK CFI 269ec .cfa: r7 8 +
STACK CFI 269f0 r11: .cfa -24 + ^ r10: .cfa -28 + ^ r9: .cfa -32 + ^ r8: .cfa -36 + ^
STACK CFI INIT 26d1c 26 .cfa: sp 0 +
STACK CFI 26d1e .cfa: sp 16 + .ra: .cfa -4 + ^ r7: .cfa -8 + ^ r5: .cfa -12 + ^ r4: .cfa -16 + ^
STACK CFI 26d20 .cfa: r7 8 +
STACK CFI INIT 26d42 ba .cfa: sp 0 +
STACK CFI 26d44 .cfa: sp 20 + .ra: .cfa -4 + ^ r7: .cfa -8 + ^ r6: .cfa -12 + ^ r5: .cfa -16 + ^ r4: .cfa -20 + ^
STACK CFI 26d46 .cfa: r7 8 +
STACK CFI 26d4a r11: .cfa -24 + ^ r10: .cfa -28 + ^ r9: .cfa -32 + ^ r8: .cfa -36 + ^
STACK CFI INIT 26dfc 6a .cfa: sp 0 +
STACK CFI 26dfe .cfa: sp 20 + .ra: .cfa -4 + ^ r7: .cfa -8 + ^ r6: .cfa -12 + ^ r5: .cfa -16 + ^ r4: .cfa -20 + ^
STACK CFI 26e00 .cfa: r7 8 +
STACK CFI 26e04 r11: .cfa -24 + ^
STACK CFI INIT 26e66 2c .cfa: sp 0 +
STACK CFI 26e6e .cfa: sp 16 + .ra: .cfa -4 + ^ r7: .cfa -8 + ^ r6: .cfa -12 + ^ r4: .cfa -16 + ^
STACK CFI 26e70 .cfa: r7 8 +
STACK CFI INIT 26e92 e .cfa: sp 0 +
STACK CFI INIT 26ea0 e .cfa: sp 0 +
STACK CFI INIT 26eae c0 .cfa: sp 0 +
STACK CFI 26eb0 .cfa: sp 20 + .ra: .cfa -4 + ^ r7: .cfa -8 + ^ r6: .cfa -12 + ^ r5: .cfa -16 + ^ r4: .cfa -20 + ^
STACK CFI 26eb2 .cfa: r7 8 +
STACK CFI 26eb6 r10: .cfa -24 + ^ r9: .cfa -28 + ^ r8: .cfa -32 + ^
STACK CFI INIT 26f70 d4 .cfa: sp 0 +
STACK CFI 26f72 .cfa: sp 20 + .ra: .cfa -4 + ^ r7: .cfa -8 + ^ r6: .cfa -12 + ^ r5: .cfa -16 + ^ r4: .cfa -20 + ^
STACK CFI 26f74 .cfa: r7 8 +
STACK CFI 26f78 r10: .cfa -24 + ^ r9: .cfa -28 + ^ r8: .cfa -32 + ^
STACK CFI INIT 27044 d4 .cfa: sp 0 +
STACK CFI 27046 .cfa: sp 20 + .ra: .cfa -4 + ^ r7: .cfa -8 + ^ r6: .cfa -12 + ^ r5: .cfa -16 + ^ r4: .cfa -20 + ^
STACK CFI 27048 .cfa: r7 8 +
STACK CFI 2704c r8: .cfa -24 + ^
STACK CFI INIT 27118 4e .cfa: sp 0 +
STACK CFI 2711a .cfa: sp 20 + .ra: .cfa -4 + ^ r7: .cfa -8 + ^ r6: .cfa -12 + ^ r5: .cfa -16 + ^ r4: .cfa -20 + ^
STACK CFI 2711c .cfa: r7 8 +
STACK CFI 27120 r8: .cfa -24 + ^
STACK CFI INIT 27168 60 .cfa: sp 0 +
STACK CFI 2716a .cfa: sp 16 + .ra: .cfa -4 + ^ r7: .cfa -8 + ^ r6: .cfa -12 + ^ r4: .cfa -16 + ^
STACK CFI 2716c .cfa: r7 8 +
STACK CFI INIT 271c8 2a .cfa: sp 0 +
STACK CFI 271ca .cfa: sp 16 + .ra: .cfa -4 + ^ r7: .cfa -8 + ^ r5: .cfa -12 + ^ r4: .cfa -16 + ^
STACK CFI 271cc .cfa: r7 8 +
STACK CFI INIT 271f4 a8 .cfa: sp 0 +
STACK CFI 271f6 .cfa: sp 20 + .ra: .cfa -4 + ^ r7: .cfa -8 + ^ r6: .cfa -12 + ^ r5: .cfa -16 + ^ r4: .cfa -20 + ^
STACK CFI 271f8 .cfa: r7 8 +
STACK CFI 271fc r10: .cfa -24 + ^ r9: .cfa -28 + ^ r8: .cfa -32 + ^
STACK CFI INIT 2729c 42 .cfa: sp 0 +
STACK CFI 272a6 .cfa: sp 20 + .ra: .cfa -4 + ^ r7: .cfa -8 + ^ r6: .cfa -12 + ^ r5: .cfa -16 + ^ r4: .cfa -20 + ^
STACK CFI 272a8 .cfa: r7 8 +
STACK CFI 272ac r11: .cfa -24 + ^
STACK CFI INIT 272e0 10 .cfa: sp 0 +
STACK CFI 272e2 .cfa: sp 8 + .ra: .cfa -4 + ^ r7: .cfa -8 + ^
STACK CFI 272e4 .cfa: r7 8 +
STACK CFI INIT 272f0 2 .cfa: sp 0 +
STACK CFI INIT 272f2 e .cfa: sp 0 +
STACK CFI INIT 27300 b0 .cfa: sp 0 +
STACK CFI 27302 .cfa: sp 20 + .ra: .cfa -4 + ^ r7: .cfa -8 + ^ r6: .cfa -12 + ^ r5: .cfa -16 + ^ r4: .cfa -20 + ^
STACK CFI 27304 .cfa: r7 8 +
STACK CFI 27308 r10: .cfa -24 + ^ r9: .cfa -28 + ^ r8: .cfa -32 + ^
STACK CFI INIT 273b0 2fc .cfa: sp 0 +
STACK CFI 273b2 .cfa: sp 20 + .ra: .cfa -4 + ^ r7: .cfa -8 + ^ r6: .cfa -12 + ^ r5: .cfa -16 + ^ r4: .cfa -20 + ^
STACK CFI 273b4 .cfa: r7 8 +
STACK CFI 273b8 r11: .cfa -24 + ^ r10: .cfa -28 + ^ r9: .cfa -32 + ^ r8: .cfa -36 + ^
STACK CFI INIT 276ac 42 .cfa: sp 0 +
STACK CFI 276ae .cfa: sp 16 + .ra: .cfa -4 + ^ r7: .cfa -8 + ^ r5: .cfa -12 + ^ r4: .cfa -16 + ^
STACK CFI 276b0 .cfa: r7 8 +
STACK CFI INIT 276ee ba .cfa: sp 0 +
STACK CFI 276f0 .cfa: sp 20 + .ra: .cfa -4 + ^ r7: .cfa -8 + ^ r6: .cfa -12 + ^ r5: .cfa -16 + ^ r4: .cfa -20 + ^
STACK CFI 276f2 .cfa: r7 8 +
STACK CFI 276f6 r11: .cfa -24 + ^ r10: .cfa -28 + ^ r9: .cfa -32 + ^ r8: .cfa -36 + ^
STACK CFI INIT 277a8 48 .cfa: sp 0 +
STACK CFI 277b0 .cfa: sp 16 + .ra: .cfa -4 + ^ r7: .cfa -8 + ^ r6: .cfa -12 + ^ r4: .cfa -16 + ^
STACK CFI 277b2 .cfa: r7 8 +
STACK CFI INIT 277f0 10 .cfa: sp 0 +
STACK CFI 277f2 .cfa: sp 8 + .ra: .cfa -4 + ^ r7: .cfa -8 + ^
STACK CFI 277f4 .cfa: r7 8 +
STACK CFI INIT 27800 c .cfa: sp 0 +
STACK CFI INIT 2780c 2 .cfa: sp 0 +
STACK CFI INIT 27810 350 .cfa: sp 0 +
STACK CFI 27812 .cfa: sp 20 + .ra: .cfa -4 + ^ r7: .cfa -8 + ^ r6: .cfa -12 + ^ r5: .cfa -16 + ^ r4: .cfa -20 + ^
STACK CFI 27814 .cfa: r7 8 +
STACK CFI 27818 r11: .cfa -24 + ^ r10: .cfa -28 + ^ r9: .cfa -32 + ^ r8: .cfa -36 + ^
STACK CFI INIT 27b60 2 .cfa: sp 0 +
STACK CFI INIT 27b64 100 .cfa: sp 0 +
STACK CFI 27b66 .cfa: sp 16 + .ra: .cfa -4 + ^ r7: .cfa -8 + ^ r5: .cfa -12 + ^ r4: .cfa -16 + ^
STACK CFI 27b68 .cfa: r7 8 +
STACK CFI INIT 27c64 4a0 .cfa: sp 0 +
STACK CFI 27c66 .cfa: sp 20 + .ra: .cfa -4 + ^ r7: .cfa -8 + ^ r6: .cfa -12 + ^ r5: .cfa -16 + ^ r4: .cfa -20 + ^
STACK CFI 27c68 .cfa: r7 8 +
STACK CFI 27c6c r10: .cfa -24 + ^ r9: .cfa -28 + ^ r8: .cfa -32 + ^
STACK CFI INIT 28104 3a .cfa: sp 0 +
STACK CFI 28106 .cfa: sp 16 + .ra: .cfa -4 + ^ r7: .cfa -8 + ^ r5: .cfa -12 + ^ r4: .cfa -16 + ^
STACK CFI 28108 .cfa: r7 8 +
STACK CFI INIT 28140 6f8 .cfa: sp 0 +
STACK CFI 28142 .cfa: sp 20 + .ra: .cfa -4 + ^ r7: .cfa -8 + ^ r6: .cfa -12 + ^ r5: .cfa -16 + ^ r4: .cfa -20 + ^
STACK CFI 28144 .cfa: r7 8 +
STACK CFI 28148 r11: .cfa -24 + ^ r10: .cfa -28 + ^ r9: .cfa -32 + ^ r8: .cfa -36 + ^
STACK CFI INIT 28838 26c .cfa: sp 0 +
STACK CFI 2883a .cfa: sp 20 + .ra: .cfa -4 + ^ r7: .cfa -8 + ^ r6: .cfa -12 + ^ r5: .cfa -16 + ^ r4: .cfa -20 + ^
STACK CFI 2883c .cfa: r7 8 +
STACK CFI 28840 r11: .cfa -24 + ^ r10: .cfa -28 + ^ r9: .cfa -32 + ^ r8: .cfa -36 + ^
STACK CFI INIT 28aa4 2a0 .cfa: sp 0 +
STACK CFI 28aa6 .cfa: sp 20 + .ra: .cfa -4 + ^ r7: .cfa -8 + ^ r6: .cfa -12 + ^ r5: .cfa -16 + ^ r4: .cfa -20 + ^
STACK CFI 28aa8 .cfa: r7 8 +
STACK CFI 28aac r11: .cfa -24 + ^ r10: .cfa -28 + ^ r9: .cfa -32 + ^ r8: .cfa -36 + ^
STACK CFI INIT 28d44 194 .cfa: sp 0 +
STACK CFI 28d46 .cfa: sp 20 + .ra: .cfa -4 + ^ r7: .cfa -8 + ^ r6: .cfa -12 + ^ r5: .cfa -16 + ^ r4: .cfa -20 + ^
STACK CFI 28d48 .cfa: r7 8 +
STACK CFI 28d4c r11: .cfa -24 + ^ r10: .cfa -28 + ^ r9: .cfa -32 + ^ r8: .cfa -36 + ^
STACK CFI INIT 28ed8 16 .cfa: sp 0 +
STACK CFI 28eda .cfa: sp 16 + .ra: .cfa -4 + ^ r7: .cfa -8 + ^ r6: .cfa -12 + ^ r4: .cfa -16 + ^
STACK CFI 28edc .cfa: r7 8 +
STACK CFI INIT 28ef0 a0 .cfa: sp 0 +
STACK CFI 28ef2 .cfa: sp 20 + .ra: .cfa -4 + ^ r7: .cfa -8 + ^ r6: .cfa -12 + ^ r5: .cfa -16 + ^ r4: .cfa -20 + ^
STACK CFI 28ef4 .cfa: r7 8 +
STACK CFI 28ef8 r11: .cfa -24 + ^
STACK CFI INIT 28f90 238 .cfa: sp 0 +
STACK CFI 28f92 .cfa: sp 20 + .ra: .cfa -4 + ^ r7: .cfa -8 + ^ r6: .cfa -12 + ^ r5: .cfa -16 + ^ r4: .cfa -20 + ^
STACK CFI 28f94 .cfa: r7 8 +
STACK CFI 28f98 r11: .cfa -24 + ^ r10: .cfa -28 + ^ r9: .cfa -32 + ^ r8: .cfa -36 + ^
STACK CFI INIT 291c8 60 .cfa: sp 0 +
STACK CFI 291ca .cfa: sp 16 + .ra: .cfa -4 + ^ r7: .cfa -8 + ^ r6: .cfa -12 + ^ r4: .cfa -16 + ^
STACK CFI 291cc .cfa: r7 8 +
STACK CFI INIT 29228 9c .cfa: sp 0 +
STACK CFI 2922a .cfa: sp 16 + .ra: .cfa -4 + ^ r7: .cfa -8 + ^ r5: .cfa -12 + ^ r4: .cfa -16 + ^
STACK CFI 2922c .cfa: r7 8 +
STACK CFI INIT 292c4 1c .cfa: sp 0 +
STACK CFI 292c6 .cfa: sp 8 + .ra: .cfa -4 + ^ r7: .cfa -8 + ^
STACK CFI 292c8 .cfa: r7 8 +
STACK CFI INIT 292e0 108 .cfa: sp 0 +
STACK CFI 292e2 .cfa: sp 20 + .ra: .cfa -4 + ^ r7: .cfa -8 + ^ r6: .cfa -12 + ^ r5: .cfa -16 + ^ r4: .cfa -20 + ^
STACK CFI 292e4 .cfa: r7 8 +
STACK CFI 292e8 r8: .cfa -24 + ^
STACK CFI INIT 293e8 78 .cfa: sp 0 +
STACK CFI 293ea .cfa: sp 16 + .ra: .cfa -4 + ^ r7: .cfa -8 + ^ r5: .cfa -12 + ^ r4: .cfa -16 + ^
STACK CFI 293ec .cfa: r7 8 +
STACK CFI INIT 29460 70 .cfa: sp 0 +
STACK CFI 29462 .cfa: sp 16 + .ra: .cfa -4 + ^ r7: .cfa -8 + ^ r5: .cfa -12 + ^ r4: .cfa -16 + ^
STACK CFI 29464 .cfa: r7 8 +
STACK CFI INIT 294d0 2 .cfa: sp 0 +
STACK CFI INIT 294d2 e .cfa: sp 0 +
STACK CFI INIT 294e0 58 .cfa: sp 0 +
STACK CFI 294e2 .cfa: sp 16 + .ra: .cfa -4 + ^ r7: .cfa -8 + ^ r5: .cfa -12 + ^ r4: .cfa -16 + ^
STACK CFI 294e4 .cfa: r7 8 +
STACK CFI INIT 29538 d4 .cfa: sp 0 +
STACK CFI 2953a .cfa: sp 20 + .ra: .cfa -4 + ^ r7: .cfa -8 + ^ r6: .cfa -12 + ^ r5: .cfa -16 + ^ r4: .cfa -20 + ^
STACK CFI 2953c .cfa: r7 8 +
STACK CFI 29540 r10: .cfa -24 + ^ r9: .cfa -28 + ^ r8: .cfa -32 + ^
STACK CFI INIT 2960c ba .cfa: sp 0 +
STACK CFI 2960e .cfa: sp 20 + .ra: .cfa -4 + ^ r7: .cfa -8 + ^ r6: .cfa -12 + ^ r5: .cfa -16 + ^ r4: .cfa -20 + ^
STACK CFI 29610 .cfa: r7 8 +
STACK CFI 29614 r11: .cfa -24 + ^ r10: .cfa -28 + ^ r9: .cfa -32 + ^ r8: .cfa -36 + ^
STACK CFI INIT 296c6 34 .cfa: sp 0 +
STACK CFI 296c8 .cfa: sp 16 + .ra: .cfa -4 + ^ r7: .cfa -8 + ^ r5: .cfa -12 + ^ r4: .cfa -16 + ^
STACK CFI 296ca .cfa: r7 8 +
STACK CFI INIT 296fa 22 .cfa: sp 0 +
STACK CFI 296fc .cfa: sp 16 + .ra: .cfa -4 + ^ r7: .cfa -8 + ^ r6: .cfa -12 + ^ r4: .cfa -16 + ^
STACK CFI 296fe .cfa: r7 8 +
STACK CFI INIT 2971c 10 .cfa: sp 0 +
STACK CFI 2971e .cfa: sp 16 + .ra: .cfa -4 + ^ r7: .cfa -8 + ^ r6: .cfa -12 + ^ r4: .cfa -16 + ^
STACK CFI 29720 .cfa: r7 8 +
STACK CFI INIT 2972c 60 .cfa: sp 0 +
STACK CFI 2972e .cfa: sp 16 + .ra: .cfa -4 + ^ r7: .cfa -8 + ^ r6: .cfa -12 + ^ r4: .cfa -16 + ^
STACK CFI 29730 .cfa: r7 8 +
STACK CFI INIT 2978c 1f0 .cfa: sp 0 +
STACK CFI 2978e .cfa: sp 20 + .ra: .cfa -4 + ^ r7: .cfa -8 + ^ r6: .cfa -12 + ^ r5: .cfa -16 + ^ r4: .cfa -20 + ^
STACK CFI 29790 .cfa: r7 8 +
STACK CFI 29794 r11: .cfa -24 + ^ r10: .cfa -28 + ^ r9: .cfa -32 + ^ r8: .cfa -36 + ^
STACK CFI INIT 2997c f4 .cfa: sp 0 +
STACK CFI 2997e .cfa: sp 16 + .ra: .cfa -4 + ^ r7: .cfa -8 + ^ r5: .cfa -12 + ^ r4: .cfa -16 + ^
STACK CFI 29980 .cfa: r7 8 +
STACK CFI INIT 29a70 6c .cfa: sp 0 +
STACK CFI 29a72 .cfa: sp 16 + .ra: .cfa -4 + ^ r7: .cfa -8 + ^ r5: .cfa -12 + ^ r4: .cfa -16 + ^
STACK CFI 29a74 .cfa: r7 8 +
STACK CFI INIT 29adc 58 .cfa: sp 0 +
STACK CFI 29ade .cfa: sp 16 + .ra: .cfa -4 + ^ r7: .cfa -8 + ^ r5: .cfa -12 + ^ r4: .cfa -16 + ^
STACK CFI 29ae0 .cfa: r7 8 +
STACK CFI INIT 29b34 d0 .cfa: sp 0 +
STACK CFI 29b36 .cfa: sp 20 + .ra: .cfa -4 + ^ r7: .cfa -8 + ^ r6: .cfa -12 + ^ r5: .cfa -16 + ^ r4: .cfa -20 + ^
STACK CFI 29b38 .cfa: r7 8 +
STACK CFI 29b3c r11: .cfa -24 + ^
STACK CFI INIT 29c04 10 .cfa: sp 0 +
STACK CFI INIT 29c14 60 .cfa: sp 0 +
STACK CFI 29c16 .cfa: sp 16 + .ra: .cfa -4 + ^ r7: .cfa -8 + ^ r5: .cfa -12 + ^ r4: .cfa -16 + ^
STACK CFI 29c18 .cfa: r7 8 +
STACK CFI INIT 29c74 28 .cfa: sp 0 +
STACK CFI 29c76 .cfa: sp 16 + .ra: .cfa -4 + ^ r7: .cfa -8 + ^ r6: .cfa -12 + ^ r4: .cfa -16 + ^
STACK CFI 29c78 .cfa: r7 8 +
STACK CFI INIT 29c9c 2c .cfa: sp 0 +
STACK CFI 29c9e .cfa: sp 16 + .ra: .cfa -4 + ^ r7: .cfa -8 + ^ r6: .cfa -12 + ^ r4: .cfa -16 + ^
STACK CFI 29ca0 .cfa: r7 8 +
STACK CFI INIT 29cc8 6 .cfa: sp 0 +
STACK CFI INIT 29cce e .cfa: sp 0 +
STACK CFI INIT 29cdc 3a .cfa: sp 0 +
STACK CFI 29ce4 .cfa: sp 16 + .ra: .cfa -4 + ^ r7: .cfa -8 + ^ r6: .cfa -12 + ^ r4: .cfa -16 + ^
STACK CFI 29ce6 .cfa: r7 8 +
STACK CFI INIT 29d18 10 .cfa: sp 0 +
STACK CFI INIT 29d28 1c .cfa: sp 0 +
STACK CFI 29d2a .cfa: sp 8 + .ra: .cfa -4 + ^ r7: .cfa -8 + ^
STACK CFI 29d2c .cfa: r7 8 +
STACK CFI INIT 29d44 8 .cfa: sp 0 +
STACK CFI INIT 29d4c 4 .cfa: sp 0 +
STACK CFI INIT 29d50 60 .cfa: sp 0 +
STACK CFI 29d52 .cfa: sp 16 + .ra: .cfa -4 + ^ r7: .cfa -8 + ^ r6: .cfa -12 + ^ r4: .cfa -16 + ^
STACK CFI 29d54 .cfa: r7 8 +
STACK CFI INIT 29db0 34 .cfa: sp 0 +
STACK CFI 29db2 .cfa: sp 8 + .ra: .cfa -4 + ^ r7: .cfa -8 + ^
STACK CFI 29db4 .cfa: r7 8 +
STACK CFI INIT 29de4 2 .cfa: sp 0 +
STACK CFI INIT 29de6 4 .cfa: sp 0 +
STACK CFI INIT 29dec 20 .cfa: sp 0 +
STACK CFI 29dee .cfa: sp 16 + .ra: .cfa -4 + ^ r7: .cfa -8 + ^ r6: .cfa -12 + ^ r4: .cfa -16 + ^
STACK CFI 29df0 .cfa: r7 8 +
STACK CFI INIT 29e0c 14 .cfa: sp 0 +
STACK CFI INIT 29e20 2 .cfa: sp 0 +
STACK CFI INIT 29e22 4 .cfa: sp 0 +
STACK CFI INIT 29e26 14 .cfa: sp 0 +
STACK CFI 29e28 .cfa: sp 8 + .ra: .cfa -4 + ^ r7: .cfa -8 + ^
STACK CFI 29e2a .cfa: r7 8 +
STACK CFI INIT 29e3c 18 .cfa: sp 0 +
STACK CFI INIT 29e54 c .cfa: sp 0 +
STACK CFI INIT 29e60 ca0 .cfa: sp 0 +
STACK CFI 29e62 .cfa: sp 20 + .ra: .cfa -4 + ^ r7: .cfa -8 + ^ r6: .cfa -12 + ^ r5: .cfa -16 + ^ r4: .cfa -20 + ^
STACK CFI 29e64 .cfa: r7 8 +
STACK CFI 29e68 r11: .cfa -24 + ^ r10: .cfa -28 + ^ r9: .cfa -32 + ^ r8: .cfa -36 + ^
STACK CFI INIT 2ab00 17c .cfa: sp 0 +
STACK CFI 2ab02 .cfa: sp 20 + .ra: .cfa -4 + ^ r7: .cfa -8 + ^ r6: .cfa -12 + ^ r5: .cfa -16 + ^ r4: .cfa -20 + ^
STACK CFI 2ab04 .cfa: r7 8 +
STACK CFI 2ab08 r10: .cfa -24 + ^ r9: .cfa -28 + ^ r8: .cfa -32 + ^
STACK CFI INIT 2ac7c 114 .cfa: sp 0 +
STACK CFI 2ac7e .cfa: sp 20 + .ra: .cfa -4 + ^ r7: .cfa -8 + ^ r6: .cfa -12 + ^ r5: .cfa -16 + ^ r4: .cfa -20 + ^
STACK CFI 2ac80 .cfa: r7 8 +
STACK CFI 2ac84 r10: .cfa -24 + ^ r9: .cfa -28 + ^ r8: .cfa -32 + ^
STACK CFI INIT 2ad90 364 .cfa: sp 0 +
STACK CFI 2ad92 .cfa: sp 20 + .ra: .cfa -4 + ^ r7: .cfa -8 + ^ r6: .cfa -12 + ^ r5: .cfa -16 + ^ r4: .cfa -20 + ^
STACK CFI 2ad94 .cfa: r7 8 +
STACK CFI 2ad98 r11: .cfa -24 + ^ r10: .cfa -28 + ^ r9: .cfa -32 + ^ r8: .cfa -36 + ^
STACK CFI INIT 2b0f4 114 .cfa: sp 0 +
STACK CFI 2b0f6 .cfa: sp 20 + .ra: .cfa -4 + ^ r7: .cfa -8 + ^ r6: .cfa -12 + ^ r5: .cfa -16 + ^ r4: .cfa -20 + ^
STACK CFI 2b0f8 .cfa: r7 8 +
STACK CFI 2b0fc r10: .cfa -24 + ^ r9: .cfa -28 + ^ r8: .cfa -32 + ^
STACK CFI INIT 2b208 38 .cfa: sp 0 +
STACK CFI 2b20a .cfa: sp 16 + .ra: .cfa -4 + ^ r7: .cfa -8 + ^ r6: .cfa -12 + ^ r4: .cfa -16 + ^
STACK CFI 2b20c .cfa: r7 8 +
STACK CFI INIT 2b240 2 .cfa: sp 0 +
STACK CFI INIT 2b242 4 .cfa: sp 0 +
STACK CFI INIT 2b246 2 .cfa: sp 0 +
STACK CFI INIT 2b248 4 .cfa: sp 0 +
STACK CFI INIT 2b24c 38 .cfa: sp 0 +
STACK CFI 2b24e .cfa: sp 16 + .ra: .cfa -4 + ^ r7: .cfa -8 + ^ r6: .cfa -12 + ^ r4: .cfa -16 + ^
STACK CFI 2b250 .cfa: r7 8 +
STACK CFI INIT 2b284 5dc .cfa: sp 0 +
STACK CFI 2b286 .cfa: sp 20 + .ra: .cfa -4 + ^ r7: .cfa -8 + ^ r6: .cfa -12 + ^ r5: .cfa -16 + ^ r4: .cfa -20 + ^
STACK CFI 2b288 .cfa: r7 8 +
STACK CFI 2b28c r11: .cfa -24 + ^ r10: .cfa -28 + ^ r9: .cfa -32 + ^ r8: .cfa -36 + ^
STACK CFI INIT 2b860 5bc .cfa: sp 0 +
STACK CFI 2b862 .cfa: sp 20 + .ra: .cfa -4 + ^ r7: .cfa -8 + ^ r6: .cfa -12 + ^ r5: .cfa -16 + ^ r4: .cfa -20 + ^
STACK CFI 2b864 .cfa: r7 8 +
STACK CFI 2b868 r11: .cfa -24 + ^ r10: .cfa -28 + ^ r9: .cfa -32 + ^ r8: .cfa -36 + ^
STACK CFI INIT 2be1c 268 .cfa: sp 0 +
STACK CFI 2be1e .cfa: sp 20 + .ra: .cfa -4 + ^ r7: .cfa -8 + ^ r6: .cfa -12 + ^ r5: .cfa -16 + ^ r4: .cfa -20 + ^
STACK CFI 2be20 .cfa: r7 8 +
STACK CFI 2be24 r11: .cfa -24 + ^ r10: .cfa -28 + ^ r9: .cfa -32 + ^ r8: .cfa -36 + ^
STACK CFI INIT 2c084 268 .cfa: sp 0 +
STACK CFI 2c086 .cfa: sp 20 + .ra: .cfa -4 + ^ r7: .cfa -8 + ^ r6: .cfa -12 + ^ r5: .cfa -16 + ^ r4: .cfa -20 + ^
STACK CFI 2c088 .cfa: r7 8 +
STACK CFI 2c08c r11: .cfa -24 + ^ r10: .cfa -28 + ^ r9: .cfa -32 + ^ r8: .cfa -36 + ^
STACK CFI INIT 2c2ec a0 .cfa: sp 0 +
STACK CFI 2c2ee .cfa: sp 20 + .ra: .cfa -4 + ^ r7: .cfa -8 + ^ r6: .cfa -12 + ^ r5: .cfa -16 + ^ r4: .cfa -20 + ^
STACK CFI 2c2f0 .cfa: r7 8 +
STACK CFI 2c2f4 r11: .cfa -24 + ^
STACK CFI INIT 2c38c 238 .cfa: sp 0 +
STACK CFI 2c38e .cfa: sp 20 + .ra: .cfa -4 + ^ r7: .cfa -8 + ^ r6: .cfa -12 + ^ r5: .cfa -16 + ^ r4: .cfa -20 + ^
STACK CFI 2c390 .cfa: r7 8 +
STACK CFI 2c394 r11: .cfa -24 + ^ r10: .cfa -28 + ^ r9: .cfa -32 + ^ r8: .cfa -36 + ^
STACK CFI INIT 2c5c4 9c .cfa: sp 0 +
STACK CFI 2c5c6 .cfa: sp 16 + .ra: .cfa -4 + ^ r7: .cfa -8 + ^ r5: .cfa -12 + ^ r4: .cfa -16 + ^
STACK CFI 2c5c8 .cfa: r7 8 +
STACK CFI INIT 2c660 1c .cfa: sp 0 +
STACK CFI 2c662 .cfa: sp 8 + .ra: .cfa -4 + ^ r7: .cfa -8 + ^
STACK CFI 2c664 .cfa: r7 8 +
STACK CFI INIT 2c67c 108 .cfa: sp 0 +
STACK CFI 2c67e .cfa: sp 20 + .ra: .cfa -4 + ^ r7: .cfa -8 + ^ r6: .cfa -12 + ^ r5: .cfa -16 + ^ r4: .cfa -20 + ^
STACK CFI 2c680 .cfa: r7 8 +
STACK CFI 2c684 r8: .cfa -24 + ^
STACK CFI INIT 2c784 78 .cfa: sp 0 +
STACK CFI 2c786 .cfa: sp 16 + .ra: .cfa -4 + ^ r7: .cfa -8 + ^ r5: .cfa -12 + ^ r4: .cfa -16 + ^
STACK CFI 2c788 .cfa: r7 8 +
STACK CFI INIT 2c7fc 70 .cfa: sp 0 +
STACK CFI 2c7fe .cfa: sp 16 + .ra: .cfa -4 + ^ r7: .cfa -8 + ^ r5: .cfa -12 + ^ r4: .cfa -16 + ^
STACK CFI 2c800 .cfa: r7 8 +
STACK CFI INIT 2c86c d0 .cfa: sp 0 +
STACK CFI 2c86e .cfa: sp 20 + .ra: .cfa -4 + ^ r7: .cfa -8 + ^ r6: .cfa -12 + ^ r5: .cfa -16 + ^ r4: .cfa -20 + ^
STACK CFI 2c870 .cfa: r7 8 +
STACK CFI 2c874 r10: .cfa -24 + ^ r9: .cfa -28 + ^ r8: .cfa -32 + ^
STACK CFI INIT 2c93c ba .cfa: sp 0 +
STACK CFI 2c93e .cfa: sp 20 + .ra: .cfa -4 + ^ r7: .cfa -8 + ^ r6: .cfa -12 + ^ r5: .cfa -16 + ^ r4: .cfa -20 + ^
STACK CFI 2c940 .cfa: r7 8 +
STACK CFI 2c944 r11: .cfa -24 + ^ r10: .cfa -28 + ^ r9: .cfa -32 + ^ r8: .cfa -36 + ^
STACK CFI INIT 2c9f6 34 .cfa: sp 0 +
STACK CFI 2c9f8 .cfa: sp 16 + .ra: .cfa -4 + ^ r7: .cfa -8 + ^ r5: .cfa -12 + ^ r4: .cfa -16 + ^
STACK CFI 2c9fa .cfa: r7 8 +
STACK CFI INIT 2ca2a c2 .cfa: sp 0 +
STACK CFI 2ca2c .cfa: sp 20 + .ra: .cfa -4 + ^ r7: .cfa -8 + ^ r6: .cfa -12 + ^ r5: .cfa -16 + ^ r4: .cfa -20 + ^
STACK CFI 2ca2e .cfa: r7 8 +
STACK CFI 2ca32 r10: .cfa -24 + ^ r9: .cfa -28 + ^ r8: .cfa -32 + ^
STACK CFI INIT 2caec 22 .cfa: sp 0 +
STACK CFI 2caee .cfa: sp 16 + .ra: .cfa -4 + ^ r7: .cfa -8 + ^ r6: .cfa -12 + ^ r4: .cfa -16 + ^
STACK CFI 2caf0 .cfa: r7 8 +
STACK CFI INIT 2cb0e 10 .cfa: sp 0 +
STACK CFI 2cb10 .cfa: sp 16 + .ra: .cfa -4 + ^ r7: .cfa -8 + ^ r6: .cfa -12 + ^ r4: .cfa -16 + ^
STACK CFI 2cb12 .cfa: r7 8 +
STACK CFI INIT 2cb20 1f0 .cfa: sp 0 +
STACK CFI 2cb22 .cfa: sp 20 + .ra: .cfa -4 + ^ r7: .cfa -8 + ^ r6: .cfa -12 + ^ r5: .cfa -16 + ^ r4: .cfa -20 + ^
STACK CFI 2cb24 .cfa: r7 8 +
STACK CFI 2cb28 r11: .cfa -24 + ^ r10: .cfa -28 + ^ r9: .cfa -32 + ^ r8: .cfa -36 + ^
STACK CFI INIT 2cd10 5e8 .cfa: sp 0 +
STACK CFI 2cd12 .cfa: sp 20 + .ra: .cfa -4 + ^ r7: .cfa -8 + ^ r6: .cfa -12 + ^ r5: .cfa -16 + ^ r4: .cfa -20 + ^
STACK CFI 2cd14 .cfa: r7 8 +
STACK CFI 2cd18 r11: .cfa -24 + ^ r10: .cfa -28 + ^ r9: .cfa -32 + ^ r8: .cfa -36 + ^
STACK CFI INIT 2d2f8 58 .cfa: sp 0 +
STACK CFI 2d2fa .cfa: sp 16 + .ra: .cfa -4 + ^ r7: .cfa -8 + ^ r5: .cfa -12 + ^ r4: .cfa -16 + ^
STACK CFI 2d2fc .cfa: r7 8 +
STACK CFI INIT 2d350 d0 .cfa: sp 0 +
STACK CFI 2d352 .cfa: sp 20 + .ra: .cfa -4 + ^ r7: .cfa -8 + ^ r6: .cfa -12 + ^ r5: .cfa -16 + ^ r4: .cfa -20 + ^
STACK CFI 2d354 .cfa: r7 8 +
STACK CFI 2d358 r11: .cfa -24 + ^
STACK CFI INIT 2d420 10 .cfa: sp 0 +
STACK CFI INIT 2d430 60 .cfa: sp 0 +
STACK CFI 2d432 .cfa: sp 16 + .ra: .cfa -4 + ^ r7: .cfa -8 + ^ r5: .cfa -12 + ^ r4: .cfa -16 + ^
STACK CFI 2d434 .cfa: r7 8 +
STACK CFI INIT 2d490 28 .cfa: sp 0 +
STACK CFI 2d492 .cfa: sp 16 + .ra: .cfa -4 + ^ r7: .cfa -8 + ^ r6: .cfa -12 + ^ r4: .cfa -16 + ^
STACK CFI 2d494 .cfa: r7 8 +
STACK CFI INIT 2d4b8 2c .cfa: sp 0 +
STACK CFI 2d4ba .cfa: sp 16 + .ra: .cfa -4 + ^ r7: .cfa -8 + ^ r6: .cfa -12 + ^ r4: .cfa -16 + ^
STACK CFI 2d4bc .cfa: r7 8 +
STACK CFI INIT 2d4e4 3a .cfa: sp 0 +
STACK CFI 2d4ec .cfa: sp 16 + .ra: .cfa -4 + ^ r7: .cfa -8 + ^ r6: .cfa -12 + ^ r4: .cfa -16 + ^
STACK CFI 2d4ee .cfa: r7 8 +
STACK CFI INIT 2d520 10 .cfa: sp 0 +
STACK CFI INIT 2d530 1c .cfa: sp 0 +
STACK CFI 2d532 .cfa: sp 8 + .ra: .cfa -4 + ^ r7: .cfa -8 + ^
STACK CFI 2d534 .cfa: r7 8 +
STACK CFI INIT 2d54c 8 .cfa: sp 0 +
STACK CFI INIT 2d554 4 .cfa: sp 0 +
STACK CFI INIT 2d558 750 .cfa: sp 0 +
STACK CFI 2d55a .cfa: sp 20 + .ra: .cfa -4 + ^ r7: .cfa -8 + ^ r6: .cfa -12 + ^ r5: .cfa -16 + ^ r4: .cfa -20 + ^
STACK CFI 2d55c .cfa: r7 8 +
STACK CFI 2d560 r11: .cfa -24 + ^ r10: .cfa -28 + ^ r9: .cfa -32 + ^ r8: .cfa -36 + ^
STACK CFI INIT 2dca8 f8 .cfa: sp 0 +
STACK CFI 2dcaa .cfa: sp 20 + .ra: .cfa -4 + ^ r7: .cfa -8 + ^ r6: .cfa -12 + ^ r5: .cfa -16 + ^ r4: .cfa -20 + ^
STACK CFI 2dcac .cfa: r7 8 +
STACK CFI 2dcb0 r11: .cfa -24 + ^ r10: .cfa -28 + ^ r9: .cfa -32 + ^ r8: .cfa -36 + ^
STACK CFI INIT 2dda0 d8 .cfa: sp 0 +
STACK CFI 2dda2 .cfa: sp 20 + .ra: .cfa -4 + ^ r7: .cfa -8 + ^ r6: .cfa -12 + ^ r5: .cfa -16 + ^ r4: .cfa -20 + ^
STACK CFI 2dda4 .cfa: r7 8 +
STACK CFI 2dda8 r8: .cfa -24 + ^
STACK CFI INIT 0 58 .cfa: sp 0 +
STACK CFI 2 .cfa: sp 16 + .ra: .cfa -4 + ^ r7: .cfa -8 + ^ r5: .cfa -12 + ^ r4: .cfa -16 + ^
STACK CFI 4 .cfa: r7 8 +
STACK CFI INIT 2de78 c0 .cfa: sp 0 +
STACK CFI 2de7a .cfa: sp 20 + .ra: .cfa -4 + ^ r7: .cfa -8 + ^ r6: .cfa -12 + ^ r5: .cfa -16 + ^ r4: .cfa -20 + ^
STACK CFI 2de7c .cfa: r7 8 +
STACK CFI 2de80 r11: .cfa -24 + ^
STACK CFI INIT 2df38 b28 .cfa: sp 0 +
STACK CFI 2df3a .cfa: sp 20 + .ra: .cfa -4 + ^ r7: .cfa -8 + ^ r6: .cfa -12 + ^ r5: .cfa -16 + ^ r4: .cfa -20 + ^
STACK CFI 2df3c .cfa: r7 8 +
STACK CFI 2df40 r11: .cfa -24 + ^ r10: .cfa -28 + ^ r9: .cfa -32 + ^ r8: .cfa -36 + ^
STACK CFI INIT 2ea60 38 .cfa: sp 0 +
STACK CFI 2ea62 .cfa: sp 16 + .ra: .cfa -4 + ^ r7: .cfa -8 + ^ r6: .cfa -12 + ^ r4: .cfa -16 + ^
STACK CFI 2ea64 .cfa: r7 8 +
STACK CFI INIT 2ea98 a8 .cfa: sp 0 +
STACK CFI 2ea9a .cfa: sp 16 + .ra: .cfa -4 + ^ r7: .cfa -8 + ^ r5: .cfa -12 + ^ r4: .cfa -16 + ^
STACK CFI 2ea9c .cfa: r7 8 +
STACK CFI INIT 2eb40 144 .cfa: sp 0 +
STACK CFI 2eb42 .cfa: sp 20 + .ra: .cfa -4 + ^ r7: .cfa -8 + ^ r6: .cfa -12 + ^ r5: .cfa -16 + ^ r4: .cfa -20 + ^
STACK CFI 2eb44 .cfa: r7 8 +
STACK CFI 2eb48 r10: .cfa -24 + ^ r9: .cfa -28 + ^ r8: .cfa -32 + ^
STACK CFI INIT 2ec84 16ac .cfa: sp 0 +
STACK CFI 2ec86 .cfa: sp 20 + .ra: .cfa -4 + ^ r7: .cfa -8 + ^ r6: .cfa -12 + ^ r5: .cfa -16 + ^ r4: .cfa -20 + ^
STACK CFI 2ec88 .cfa: r7 8 +
STACK CFI 2ec8c r11: .cfa -24 + ^ r10: .cfa -28 + ^ r9: .cfa -32 + ^ r8: .cfa -36 + ^
STACK CFI INIT 30330 f8 .cfa: sp 0 +
STACK CFI 30332 .cfa: sp 20 + .ra: .cfa -4 + ^ r7: .cfa -8 + ^ r6: .cfa -12 + ^ r5: .cfa -16 + ^ r4: .cfa -20 + ^
STACK CFI 30334 .cfa: r7 8 +
STACK CFI 30338 r10: .cfa -24 + ^ r9: .cfa -28 + ^ r8: .cfa -32 + ^
STACK CFI INIT 30428 38 .cfa: sp 0 +
STACK CFI 3042a .cfa: sp 16 + .ra: .cfa -4 + ^ r7: .cfa -8 + ^ r6: .cfa -12 + ^ r4: .cfa -16 + ^
STACK CFI 3042c .cfa: r7 8 +
STACK CFI INIT 30460 710 .cfa: sp 0 +
STACK CFI 30462 .cfa: sp 20 + .ra: .cfa -4 + ^ r7: .cfa -8 + ^ r6: .cfa -12 + ^ r5: .cfa -16 + ^ r4: .cfa -20 + ^
STACK CFI 30464 .cfa: r7 8 +
STACK CFI 30468 r11: .cfa -24 + ^ r10: .cfa -28 + ^ r9: .cfa -32 + ^ r8: .cfa -36 + ^
STACK CFI INIT 30b70 10 .cfa: sp 0 +
STACK CFI 30b72 .cfa: sp 8 + .ra: .cfa -4 + ^ r7: .cfa -8 + ^
STACK CFI 30b74 .cfa: r7 8 +
STACK CFI INIT 30b80 d4 .cfa: sp 0 +
STACK CFI 30b82 .cfa: sp 20 + .ra: .cfa -4 + ^ r7: .cfa -8 + ^ r6: .cfa -12 + ^ r5: .cfa -16 + ^ r4: .cfa -20 + ^
STACK CFI 30b84 .cfa: r7 8 +
STACK CFI 30b88 r8: .cfa -24 + ^
STACK CFI INIT 30c54 1c0 .cfa: sp 0 +
STACK CFI 30c56 .cfa: sp 20 + .ra: .cfa -4 + ^ r7: .cfa -8 + ^ r6: .cfa -12 + ^ r5: .cfa -16 + ^ r4: .cfa -20 + ^
STACK CFI 30c58 .cfa: r7 8 +
STACK CFI 30c5c r11: .cfa -24 + ^
STACK CFI INIT 30e14 f0 .cfa: sp 0 +
STACK CFI 30e16 .cfa: sp 16 + .ra: .cfa -4 + ^ r7: .cfa -8 + ^ r5: .cfa -12 + ^ r4: .cfa -16 + ^
STACK CFI 30e18 .cfa: r7 8 +
STACK CFI INIT 30f04 5e8 .cfa: sp 0 +
STACK CFI 30f06 .cfa: sp 20 + .ra: .cfa -4 + ^ r7: .cfa -8 + ^ r6: .cfa -12 + ^ r5: .cfa -16 + ^ r4: .cfa -20 + ^
STACK CFI 30f08 .cfa: r7 8 +
STACK CFI 30f0c r11: .cfa -24 + ^ r10: .cfa -28 + ^ r9: .cfa -32 + ^ r8: .cfa -36 + ^
STACK CFI INIT 314ec 2e8 .cfa: sp 0 +
STACK CFI 314ee .cfa: sp 20 + .ra: .cfa -4 + ^ r7: .cfa -8 + ^ r6: .cfa -12 + ^ r5: .cfa -16 + ^ r4: .cfa -20 + ^
STACK CFI 314f0 .cfa: r7 8 +
STACK CFI 314f4 r11: .cfa -24 + ^ r10: .cfa -28 + ^ r9: .cfa -32 + ^ r8: .cfa -36 + ^
STACK CFI INIT 317d4 ec .cfa: sp 0 +
STACK CFI 317d6 .cfa: sp 20 + .ra: .cfa -4 + ^ r7: .cfa -8 + ^ r6: .cfa -12 + ^ r5: .cfa -16 + ^ r4: .cfa -20 + ^
STACK CFI 317d8 .cfa: r7 8 +
STACK CFI 317dc r11: .cfa -24 + ^
STACK CFI INIT 318c0 48 .cfa: sp 0 +
STACK CFI 318c2 .cfa: sp 16 + .ra: .cfa -4 + ^ r7: .cfa -8 + ^ r6: .cfa -12 + ^ r4: .cfa -16 + ^
STACK CFI 318c4 .cfa: r7 8 +
STACK CFI INIT 31908 2c .cfa: sp 0 +
STACK CFI 3190a .cfa: sp 16 + .ra: .cfa -4 + ^ r7: .cfa -8 + ^ r5: .cfa -12 + ^ r4: .cfa -16 + ^
STACK CFI 3190c .cfa: r7 8 +
STACK CFI INIT 31934 320 .cfa: sp 0 +
STACK CFI 31936 .cfa: sp 20 + .ra: .cfa -4 + ^ r7: .cfa -8 + ^ r6: .cfa -12 + ^ r5: .cfa -16 + ^ r4: .cfa -20 + ^
STACK CFI 31938 .cfa: r7 8 +
STACK CFI 3193c r11: .cfa -24 + ^ r10: .cfa -28 + ^ r9: .cfa -32 + ^ r8: .cfa -36 + ^
STACK CFI INIT 31c54 80 .cfa: sp 0 +
STACK CFI 31c56 .cfa: sp 20 + .ra: .cfa -4 + ^ r7: .cfa -8 + ^ r6: .cfa -12 + ^ r5: .cfa -16 + ^ r4: .cfa -20 + ^
STACK CFI 31c58 .cfa: r7 8 +
STACK CFI 31c5c r10: .cfa -24 + ^ r9: .cfa -28 + ^ r8: .cfa -32 + ^
STACK CFI INIT 31cd4 1bc .cfa: sp 0 +
STACK CFI 31cd6 .cfa: sp 20 + .ra: .cfa -4 + ^ r7: .cfa -8 + ^ r6: .cfa -12 + ^ r5: .cfa -16 + ^ r4: .cfa -20 + ^
STACK CFI 31cd8 .cfa: r7 8 +
STACK CFI 31cdc r11: .cfa -24 + ^
STACK CFI INIT 31e90 8c .cfa: sp 0 +
STACK CFI 31e92 .cfa: sp 20 + .ra: .cfa -4 + ^ r7: .cfa -8 + ^ r6: .cfa -12 + ^ r5: .cfa -16 + ^ r4: .cfa -20 + ^
STACK CFI 31e94 .cfa: r7 8 +
STACK CFI 31e98 r11: .cfa -24 + ^
STACK CFI INIT 31f1c 90 .cfa: sp 0 +
STACK CFI 31f1e .cfa: sp 20 + .ra: .cfa -4 + ^ r7: .cfa -8 + ^ r6: .cfa -12 + ^ r5: .cfa -16 + ^ r4: .cfa -20 + ^
STACK CFI 31f20 .cfa: r7 8 +
STACK CFI 31f24 r11: .cfa -24 + ^
STACK CFI INIT 31fac c4 .cfa: sp 0 +
STACK CFI 31fae .cfa: sp 20 + .ra: .cfa -4 + ^ r7: .cfa -8 + ^ r6: .cfa -12 + ^ r5: .cfa -16 + ^ r4: .cfa -20 + ^
STACK CFI 31fb0 .cfa: r7 8 +
STACK CFI 31fb4 r8: .cfa -24 + ^
STACK CFI INIT 32070 3a .cfa: sp 0 +
STACK CFI 32072 .cfa: sp 16 + .ra: .cfa -4 + ^ r7: .cfa -8 + ^ r5: .cfa -12 + ^ r4: .cfa -16 + ^
STACK CFI 32074 .cfa: r7 8 +
STACK CFI INIT 320ac 168 .cfa: sp 0 +
STACK CFI 320ae .cfa: sp 20 + .ra: .cfa -4 + ^ r7: .cfa -8 + ^ r6: .cfa -12 + ^ r5: .cfa -16 + ^ r4: .cfa -20 + ^
STACK CFI 320b0 .cfa: r7 8 +
STACK CFI 320b4 r11: .cfa -24 + ^ r9: .cfa -28 + ^ r8: .cfa -32 + ^
STACK CFI INIT 32214 4 .cfa: sp 0 +
STACK CFI INIT 32218 e8 .cfa: sp 0 +
STACK CFI 3221a .cfa: sp 16 + .ra: .cfa -4 + ^ r7: .cfa -8 + ^ r5: .cfa -12 + ^ r4: .cfa -16 + ^
STACK CFI 3221c .cfa: r7 8 +
STACK CFI INIT 32300 68 .cfa: sp 0 +
STACK CFI 32302 .cfa: sp 16 + .ra: .cfa -4 + ^ r7: .cfa -8 + ^ r5: .cfa -12 + ^ r4: .cfa -16 + ^
STACK CFI 32304 .cfa: r7 8 +
STACK CFI INIT 32368 6c .cfa: sp 0 +
STACK CFI 3236a .cfa: sp 16 + .ra: .cfa -4 + ^ r7: .cfa -8 + ^ r5: .cfa -12 + ^ r4: .cfa -16 + ^
STACK CFI 3236c .cfa: r7 8 +
STACK CFI INIT 323d4 3a .cfa: sp 0 +
STACK CFI 323d6 .cfa: sp 16 + .ra: .cfa -4 + ^ r7: .cfa -8 + ^ r5: .cfa -12 + ^ r4: .cfa -16 + ^
STACK CFI 323d8 .cfa: r7 8 +
STACK CFI INIT 3240e 3a .cfa: sp 0 +
STACK CFI 32410 .cfa: sp 16 + .ra: .cfa -4 + ^ r7: .cfa -8 + ^ r5: .cfa -12 + ^ r4: .cfa -16 + ^
STACK CFI 32412 .cfa: r7 8 +
STACK CFI INIT 32448 48 .cfa: sp 0 +
STACK CFI 3244a .cfa: sp 16 + .ra: .cfa -4 + ^ r7: .cfa -8 + ^ r5: .cfa -12 + ^ r4: .cfa -16 + ^
STACK CFI 3244c .cfa: r7 8 +
STACK CFI INIT 32490 54 .cfa: sp 0 +
STACK CFI 32492 .cfa: sp 16 + .ra: .cfa -4 + ^ r7: .cfa -8 + ^ r5: .cfa -12 + ^ r4: .cfa -16 + ^
STACK CFI 32494 .cfa: r7 8 +
STACK CFI INIT 324e4 40 .cfa: sp 0 +
STACK CFI 324e6 .cfa: sp 16 + .ra: .cfa -4 + ^ r7: .cfa -8 + ^ r6: .cfa -12 + ^ r4: .cfa -16 + ^
STACK CFI 324e8 .cfa: r7 8 +
STACK CFI INIT 32524 34 .cfa: sp 0 +
STACK CFI INIT 32558 3a .cfa: sp 0 +
STACK CFI 3255a .cfa: sp 16 + .ra: .cfa -4 + ^ r7: .cfa -8 + ^ r6: .cfa -12 + ^ r4: .cfa -16 + ^
STACK CFI 3255c .cfa: r7 8 +
STACK CFI INIT 32592 44 .cfa: sp 0 +
STACK CFI 32594 .cfa: sp 16 + .ra: .cfa -4 + ^ r7: .cfa -8 + ^ r5: .cfa -12 + ^ r4: .cfa -16 + ^
STACK CFI 32596 .cfa: r7 8 +
STACK CFI INIT 325d6 6 .cfa: sp 0 +
STACK CFI INIT 325dc 18 .cfa: sp 0 +
STACK CFI INIT 325f4 c .cfa: sp 0 +
STACK CFI INIT 32600 150 .cfa: sp 0 +
STACK CFI 32602 .cfa: sp 20 + .ra: .cfa -4 + ^ r7: .cfa -8 + ^ r6: .cfa -12 + ^ r5: .cfa -16 + ^ r4: .cfa -20 + ^
STACK CFI 32604 .cfa: r7 8 +
STACK CFI 32608 r11: .cfa -24 + ^
STACK CFI INIT 32750 44 .cfa: sp 0 +
STACK CFI 32752 .cfa: sp 16 + .ra: .cfa -4 + ^ r7: .cfa -8 + ^ r5: .cfa -12 + ^ r4: .cfa -16 + ^
STACK CFI 32754 .cfa: r7 8 +
STACK CFI INIT 32794 40 .cfa: sp 0 +
STACK CFI 32796 .cfa: sp 16 + .ra: .cfa -4 + ^ r7: .cfa -8 + ^ r5: .cfa -12 + ^ r4: .cfa -16 + ^
STACK CFI 32798 .cfa: r7 8 +
STACK CFI INIT 327d4 48 .cfa: sp 0 +
STACK CFI 327d6 .cfa: sp 16 + .ra: .cfa -4 + ^ r7: .cfa -8 + ^ r5: .cfa -12 + ^ r4: .cfa -16 + ^
STACK CFI 327d8 .cfa: r7 8 +
STACK CFI INIT 3281c 54 .cfa: sp 0 +
STACK CFI 3281e .cfa: sp 16 + .ra: .cfa -4 + ^ r7: .cfa -8 + ^ r5: .cfa -12 + ^ r4: .cfa -16 + ^
STACK CFI 32820 .cfa: r7 8 +
STACK CFI INIT 32870 3c .cfa: sp 0 +
STACK CFI 32872 .cfa: sp 16 + .ra: .cfa -4 + ^ r7: .cfa -8 + ^ r6: .cfa -12 + ^ r4: .cfa -16 + ^
STACK CFI 32874 .cfa: r7 8 +
STACK CFI INIT 328ac 30 .cfa: sp 0 +
STACK CFI INIT 328dc 3a .cfa: sp 0 +
STACK CFI 328de .cfa: sp 16 + .ra: .cfa -4 + ^ r7: .cfa -8 + ^ r6: .cfa -12 + ^ r4: .cfa -16 + ^
STACK CFI 328e0 .cfa: r7 8 +
STACK CFI INIT 32916 44 .cfa: sp 0 +
STACK CFI 32918 .cfa: sp 16 + .ra: .cfa -4 + ^ r7: .cfa -8 + ^ r5: .cfa -12 + ^ r4: .cfa -16 + ^
STACK CFI 3291a .cfa: r7 8 +
STACK CFI INIT 3295a 6 .cfa: sp 0 +
STACK CFI INIT 32960 18 .cfa: sp 0 +
STACK CFI INIT 32978 c .cfa: sp 0 +
STACK CFI INIT 32984 150 .cfa: sp 0 +
STACK CFI 32986 .cfa: sp 20 + .ra: .cfa -4 + ^ r7: .cfa -8 + ^ r6: .cfa -12 + ^ r5: .cfa -16 + ^ r4: .cfa -20 + ^
STACK CFI 32988 .cfa: r7 8 +
STACK CFI 3298c r11: .cfa -24 + ^
STACK CFI INIT 32ad4 34 .cfa: sp 0 +
STACK CFI 32ad6 .cfa: sp 8 + .ra: .cfa -4 + ^ r7: .cfa -8 + ^
STACK CFI 32ad8 .cfa: r7 8 +
STACK CFI INIT 32b08 10 .cfa: sp 0 +
STACK CFI 32b0a .cfa: sp 8 + .ra: .cfa -4 + ^ r7: .cfa -8 + ^
STACK CFI 32b0c .cfa: r7 8 +
STACK CFI INIT 32b18 110 .cfa: sp 0 +
STACK CFI 32b1a .cfa: sp 20 + .ra: .cfa -4 + ^ r7: .cfa -8 + ^ r6: .cfa -12 + ^ r5: .cfa -16 + ^ r4: .cfa -20 + ^
STACK CFI 32b1c .cfa: r7 8 +
STACK CFI 32b20 r11: .cfa -24 + ^
STACK CFI INIT 32c28 2 .cfa: sp 0 +
STACK CFI INIT 32c2a e .cfa: sp 0 +
STACK CFI INIT 32c38 4 .cfa: sp 0 +
STACK CFI INIT 32c3c 20 .cfa: sp 0 +
STACK CFI 32c3e .cfa: sp 16 + .ra: .cfa -4 + ^ r7: .cfa -8 + ^ r6: .cfa -12 + ^ r4: .cfa -16 + ^
STACK CFI 32c40 .cfa: r7 8 +
STACK CFI INIT 32c5c 14 .cfa: sp 0 +
STACK CFI INIT 32c70 2 .cfa: sp 0 +
STACK CFI INIT 32c72 4 .cfa: sp 0 +
STACK CFI INIT 32c78 98 .cfa: sp 0 +
STACK CFI 32c7a .cfa: sp 16 + .ra: .cfa -4 + ^ r7: .cfa -8 + ^ r5: .cfa -12 + ^ r4: .cfa -16 + ^
STACK CFI 32c7c .cfa: r7 8 +
STACK CFI INIT 32d10 18 .cfa: sp 0 +
STACK CFI INIT 32d28 c .cfa: sp 0 +
STACK CFI INIT 32d34 d4 .cfa: sp 0 +
STACK CFI 32d36 .cfa: sp 20 + .ra: .cfa -4 + ^ r7: .cfa -8 + ^ r6: .cfa -12 + ^ r5: .cfa -16 + ^ r4: .cfa -20 + ^
STACK CFI 32d38 .cfa: r7 8 +
STACK CFI 32d3c r8: .cfa -24 + ^
STACK CFI INIT 32e08 108 .cfa: sp 0 +
STACK CFI 32e0a .cfa: sp 16 + .ra: .cfa -4 + ^ r7: .cfa -8 + ^ r5: .cfa -12 + ^ r4: .cfa -16 + ^
STACK CFI 32e0c .cfa: r7 8 +
STACK CFI INIT 32f10 470 .cfa: sp 0 +
STACK CFI 32f12 .cfa: sp 20 + .ra: .cfa -4 + ^ r7: .cfa -8 + ^ r6: .cfa -12 + ^ r5: .cfa -16 + ^ r4: .cfa -20 + ^
STACK CFI 32f14 .cfa: r7 8 +
STACK CFI 32f18 r11: .cfa -24 + ^ r10: .cfa -28 + ^ r9: .cfa -32 + ^ r8: .cfa -36 + ^
STACK CFI INIT 33380 2e8 .cfa: sp 0 +
STACK CFI 33382 .cfa: sp 20 + .ra: .cfa -4 + ^ r7: .cfa -8 + ^ r6: .cfa -12 + ^ r5: .cfa -16 + ^ r4: .cfa -20 + ^
STACK CFI 33384 .cfa: r7 8 +
STACK CFI 33388 r11: .cfa -24 + ^ r10: .cfa -28 + ^ r9: .cfa -32 + ^ r8: .cfa -36 + ^
STACK CFI INIT 33668 ec .cfa: sp 0 +
STACK CFI 3366a .cfa: sp 20 + .ra: .cfa -4 + ^ r7: .cfa -8 + ^ r6: .cfa -12 + ^ r5: .cfa -16 + ^ r4: .cfa -20 + ^
STACK CFI 3366c .cfa: r7 8 +
STACK CFI 33670 r11: .cfa -24 + ^
STACK CFI INIT 33754 48 .cfa: sp 0 +
STACK CFI 33756 .cfa: sp 16 + .ra: .cfa -4 + ^ r7: .cfa -8 + ^ r6: .cfa -12 + ^ r4: .cfa -16 + ^
STACK CFI 33758 .cfa: r7 8 +
STACK CFI INIT 3379c 2c .cfa: sp 0 +
STACK CFI 3379e .cfa: sp 16 + .ra: .cfa -4 + ^ r7: .cfa -8 + ^ r5: .cfa -12 + ^ r4: .cfa -16 + ^
STACK CFI 337a0 .cfa: r7 8 +
STACK CFI INIT 337c8 1b0 .cfa: sp 0 +
STACK CFI 337ca .cfa: sp 20 + .ra: .cfa -4 + ^ r7: .cfa -8 + ^ r6: .cfa -12 + ^ r5: .cfa -16 + ^ r4: .cfa -20 + ^
STACK CFI 337cc .cfa: r7 8 +
STACK CFI 337d0 r11: .cfa -24 + ^ r10: .cfa -28 + ^ r9: .cfa -32 + ^ r8: .cfa -36 + ^
STACK CFI INIT 33978 154 .cfa: sp 0 +
STACK CFI 3397a .cfa: sp 16 + .ra: .cfa -4 + ^ r7: .cfa -8 + ^ r5: .cfa -12 + ^ r4: .cfa -16 + ^
STACK CFI 3397c .cfa: r7 8 +
STACK CFI INIT 33acc 90 .cfa: sp 0 +
STACK CFI 33ace .cfa: sp 20 + .ra: .cfa -4 + ^ r7: .cfa -8 + ^ r6: .cfa -12 + ^ r5: .cfa -16 + ^ r4: .cfa -20 + ^
STACK CFI 33ad0 .cfa: r7 8 +
STACK CFI 33ad4 r11: .cfa -24 + ^
STACK CFI INIT 33b5c 4 .cfa: sp 0 +
STACK CFI INIT 33b60 20 .cfa: sp 0 +
STACK CFI 33b62 .cfa: sp 16 + .ra: .cfa -4 + ^ r7: .cfa -8 + ^ r6: .cfa -12 + ^ r4: .cfa -16 + ^
STACK CFI 33b64 .cfa: r7 8 +
STACK CFI INIT 33b80 14 .cfa: sp 0 +
STACK CFI INIT 33b94 2 .cfa: sp 0 +
STACK CFI INIT 33b96 4 .cfa: sp 0 +
STACK CFI INIT 33b9c 98 .cfa: sp 0 +
STACK CFI 33b9e .cfa: sp 16 + .ra: .cfa -4 + ^ r7: .cfa -8 + ^ r5: .cfa -12 + ^ r4: .cfa -16 + ^
STACK CFI 33ba0 .cfa: r7 8 +
STACK CFI INIT 33c34 18 .cfa: sp 0 +
STACK CFI INIT 33c4c c .cfa: sp 0 +
STACK CFI INIT 33c58 660 .cfa: sp 0 +
STACK CFI 33c5a .cfa: sp 20 + .ra: .cfa -4 + ^ r7: .cfa -8 + ^ r6: .cfa -12 + ^ r5: .cfa -16 + ^ r4: .cfa -20 + ^
STACK CFI 33c5c .cfa: r7 8 +
STACK CFI 33c60 r11: .cfa -24 + ^ r10: .cfa -28 + ^ r9: .cfa -32 + ^ r8: .cfa -36 + ^
STACK CFI INIT 342b8 2c .cfa: sp 0 +
STACK CFI 342ba .cfa: sp 16 + .ra: .cfa -4 + ^ r7: .cfa -8 + ^ r5: .cfa -12 + ^ r4: .cfa -16 + ^
STACK CFI 342bc .cfa: r7 8 +
STACK CFI INIT 342e4 24 .cfa: sp 0 +
STACK CFI 342e6 .cfa: sp 8 + .ra: .cfa -4 + ^ r7: .cfa -8 + ^
STACK CFI 342e8 .cfa: r7 8 +
STACK CFI INIT 34308 204 .cfa: sp 0 +
STACK CFI 3430a .cfa: sp 20 + .ra: .cfa -4 + ^ r7: .cfa -8 + ^ r6: .cfa -12 + ^ r5: .cfa -16 + ^ r4: .cfa -20 + ^
STACK CFI 3430c .cfa: r7 8 +
STACK CFI 34310 r8: .cfa -24 + ^
STACK CFI INIT 3450c a28 .cfa: sp 0 +
STACK CFI 3450e .cfa: sp 20 + .ra: .cfa -4 + ^ r7: .cfa -8 + ^ r6: .cfa -12 + ^ r5: .cfa -16 + ^ r4: .cfa -20 + ^
STACK CFI 34510 .cfa: r7 8 +
STACK CFI 34514 r11: .cfa -24 + ^ r10: .cfa -28 + ^ r9: .cfa -32 + ^ r8: .cfa -36 + ^
STACK CFI INIT 34f34 2f0 .cfa: sp 0 +
STACK CFI 34f36 .cfa: sp 20 + .ra: .cfa -4 + ^ r7: .cfa -8 + ^ r6: .cfa -12 + ^ r5: .cfa -16 + ^ r4: .cfa -20 + ^
STACK CFI 34f38 .cfa: r7 8 +
STACK CFI 34f3c r10: .cfa -24 + ^ r9: .cfa -28 + ^ r8: .cfa -32 + ^
STACK CFI INIT 35224 2 .cfa: sp 0 +
STACK CFI INIT 35228 13c .cfa: sp 0 +
STACK CFI 3522a .cfa: sp 20 + .ra: .cfa -4 + ^ r7: .cfa -8 + ^ r6: .cfa -12 + ^ r5: .cfa -16 + ^ r4: .cfa -20 + ^
STACK CFI 3522c .cfa: r7 8 +
STACK CFI 35230 r11: .cfa -24 + ^ r9: .cfa -28 + ^ r8: .cfa -32 + ^
STACK CFI INIT 35364 468 .cfa: sp 0 +
STACK CFI 35366 .cfa: sp 20 + .ra: .cfa -4 + ^ r7: .cfa -8 + ^ r6: .cfa -12 + ^ r5: .cfa -16 + ^ r4: .cfa -20 + ^
STACK CFI 35368 .cfa: r7 8 +
STACK CFI 3536c r11: .cfa -24 + ^ r10: .cfa -28 + ^ r9: .cfa -32 + ^ r8: .cfa -36 + ^
STACK CFI INIT 357cc 10c .cfa: sp 0 +
STACK CFI 357ce .cfa: sp 20 + .ra: .cfa -4 + ^ r7: .cfa -8 + ^ r6: .cfa -12 + ^ r5: .cfa -16 + ^ r4: .cfa -20 + ^
STACK CFI 357d0 .cfa: r7 8 +
STACK CFI 357d4 r11: .cfa -24 + ^
STACK CFI INIT 358d8 114 .cfa: sp 0 +
STACK CFI 358da .cfa: sp 20 + .ra: .cfa -4 + ^ r7: .cfa -8 + ^ r6: .cfa -12 + ^ r5: .cfa -16 + ^ r4: .cfa -20 + ^
STACK CFI 358dc .cfa: r7 8 +
STACK CFI 358e0 r8: .cfa -24 + ^
STACK CFI INIT 359ec bc .cfa: sp 0 +
STACK CFI 359ee .cfa: sp 20 + .ra: .cfa -4 + ^ r7: .cfa -8 + ^ r6: .cfa -12 + ^ r5: .cfa -16 + ^ r4: .cfa -20 + ^
STACK CFI 359f0 .cfa: r7 8 +
STACK CFI 359f4 r11: .cfa -24 + ^
STACK CFI INIT 35aa8 bc .cfa: sp 0 +
STACK CFI 35aaa .cfa: sp 20 + .ra: .cfa -4 + ^ r7: .cfa -8 + ^ r6: .cfa -12 + ^ r5: .cfa -16 + ^ r4: .cfa -20 + ^
STACK CFI 35aac .cfa: r7 8 +
STACK CFI 35ab0 r11: .cfa -24 + ^
STACK CFI INIT 35b64 16c .cfa: sp 0 +
STACK CFI 35b66 .cfa: sp 20 + .ra: .cfa -4 + ^ r7: .cfa -8 + ^ r6: .cfa -12 + ^ r5: .cfa -16 + ^ r4: .cfa -20 + ^
STACK CFI 35b68 .cfa: r7 8 +
STACK CFI 35b6c r11: .cfa -24 + ^ r10: .cfa -28 + ^ r9: .cfa -32 + ^ r8: .cfa -36 + ^
STACK CFI INIT 35cd0 118 .cfa: sp 0 +
STACK CFI 35cd2 .cfa: sp 20 + .ra: .cfa -4 + ^ r7: .cfa -8 + ^ r6: .cfa -12 + ^ r5: .cfa -16 + ^ r4: .cfa -20 + ^
STACK CFI 35cd4 .cfa: r7 8 +
STACK CFI 35cd8 r11: .cfa -24 + ^ r10: .cfa -28 + ^ r9: .cfa -32 + ^ r8: .cfa -36 + ^
STACK CFI INIT 35de8 120 .cfa: sp 0 +
STACK CFI 35dea .cfa: sp 20 + .ra: .cfa -4 + ^ r7: .cfa -8 + ^ r6: .cfa -12 + ^ r5: .cfa -16 + ^ r4: .cfa -20 + ^
STACK CFI 35dec .cfa: r7 8 +
STACK CFI 35df0 r11: .cfa -24 + ^ r10: .cfa -28 + ^ r9: .cfa -32 + ^ r8: .cfa -36 + ^
STACK CFI INIT 35f08 2c4 .cfa: sp 0 +
STACK CFI 35f0a .cfa: sp 20 + .ra: .cfa -4 + ^ r7: .cfa -8 + ^ r6: .cfa -12 + ^ r5: .cfa -16 + ^ r4: .cfa -20 + ^
STACK CFI 35f0c .cfa: r7 8 +
STACK CFI 35f10 r11: .cfa -24 + ^ r10: .cfa -28 + ^ r9: .cfa -32 + ^ r8: .cfa -36 + ^
STACK CFI INIT 361cc 10c .cfa: sp 0 +
STACK CFI 361ce .cfa: sp 20 + .ra: .cfa -4 + ^ r7: .cfa -8 + ^ r6: .cfa -12 + ^ r5: .cfa -16 + ^ r4: .cfa -20 + ^
STACK CFI 361d0 .cfa: r7 8 +
STACK CFI 361d4 r11: .cfa -24 + ^
STACK CFI INIT 362d8 124 .cfa: sp 0 +
STACK CFI 362da .cfa: sp 20 + .ra: .cfa -4 + ^ r7: .cfa -8 + ^ r6: .cfa -12 + ^ r5: .cfa -16 + ^ r4: .cfa -20 + ^
STACK CFI 362dc .cfa: r7 8 +
STACK CFI 362e0 r11: .cfa -24 + ^ r10: .cfa -28 + ^ r9: .cfa -32 + ^ r8: .cfa -36 + ^
STACK CFI INIT 36400 1e4 .cfa: sp 0 +
STACK CFI 36402 .cfa: sp 20 + .ra: .cfa -4 + ^ r7: .cfa -8 + ^ r6: .cfa -12 + ^ r5: .cfa -16 + ^ r4: .cfa -20 + ^
STACK CFI 36404 .cfa: r7 8 +
STACK CFI 36408 r11: .cfa -24 + ^ r10: .cfa -28 + ^ r9: .cfa -32 + ^ r8: .cfa -36 + ^
STACK CFI INIT 365e4 fa .cfa: sp 0 +
STACK CFI 365e6 .cfa: sp 20 + .ra: .cfa -4 + ^ r7: .cfa -8 + ^ r6: .cfa -12 + ^ r5: .cfa -16 + ^ r4: .cfa -20 + ^
STACK CFI 365e8 .cfa: r7 8 +
STACK CFI 365ec r11: .cfa -24 + ^ r10: .cfa -28 + ^ r9: .cfa -32 + ^ r8: .cfa -36 + ^
STACK CFI INIT 366e0 1e4 .cfa: sp 0 +
STACK CFI 366e2 .cfa: sp 20 + .ra: .cfa -4 + ^ r7: .cfa -8 + ^ r6: .cfa -12 + ^ r5: .cfa -16 + ^ r4: .cfa -20 + ^
STACK CFI 366e4 .cfa: r7 8 +
STACK CFI 366e8 r11: .cfa -24 + ^ r10: .cfa -28 + ^ r9: .cfa -32 + ^ r8: .cfa -36 + ^
STACK CFI INIT 368c4 118 .cfa: sp 0 +
STACK CFI 368c6 .cfa: sp 16 + .ra: .cfa -4 + ^ r7: .cfa -8 + ^ r5: .cfa -12 + ^ r4: .cfa -16 + ^
STACK CFI 368c8 .cfa: r7 8 +
STACK CFI INIT 369dc e0 .cfa: sp 0 +
STACK CFI 369de .cfa: sp 20 + .ra: .cfa -4 + ^ r7: .cfa -8 + ^ r6: .cfa -12 + ^ r5: .cfa -16 + ^ r4: .cfa -20 + ^
STACK CFI 369e0 .cfa: r7 8 +
STACK CFI 369e4 r8: .cfa -24 + ^
STACK CFI INIT 36abc dc .cfa: sp 0 +
STACK CFI 36abe .cfa: sp 20 + .ra: .cfa -4 + ^ r7: .cfa -8 + ^ r6: .cfa -12 + ^ r5: .cfa -16 + ^ r4: .cfa -20 + ^
STACK CFI 36ac0 .cfa: r7 8 +
STACK CFI 36ac4 r8: .cfa -24 + ^
STACK CFI INIT 36b98 e0 .cfa: sp 0 +
STACK CFI 36b9a .cfa: sp 20 + .ra: .cfa -4 + ^ r7: .cfa -8 + ^ r6: .cfa -12 + ^ r5: .cfa -16 + ^ r4: .cfa -20 + ^
STACK CFI 36b9c .cfa: r7 8 +
STACK CFI 36ba0 r8: .cfa -24 + ^
STACK CFI INIT 36c78 60 .cfa: sp 0 +
STACK CFI 36c7a .cfa: sp 8 + .ra: .cfa -4 + ^ r7: .cfa -8 + ^
STACK CFI 36c7c .cfa: r7 8 +
STACK CFI INIT 36cd8 106 .cfa: sp 0 +
STACK CFI 36cda .cfa: sp 20 + .ra: .cfa -4 + ^ r7: .cfa -8 + ^ r6: .cfa -12 + ^ r5: .cfa -16 + ^ r4: .cfa -20 + ^
STACK CFI 36cdc .cfa: r7 8 +
STACK CFI 36ce0 r11: .cfa -24 + ^ r10: .cfa -28 + ^ r9: .cfa -32 + ^ r8: .cfa -36 + ^
STACK CFI INIT 36de0 60 .cfa: sp 0 +
STACK CFI 36de2 .cfa: sp 8 + .ra: .cfa -4 + ^ r7: .cfa -8 + ^
STACK CFI 36de4 .cfa: r7 8 +
STACK CFI INIT 36e40 2 .cfa: sp 0 +
STACK CFI INIT 36e42 4 .cfa: sp 0 +
STACK CFI INIT 36e48 20 .cfa: sp 0 +
STACK CFI 36e4a .cfa: sp 16 + .ra: .cfa -4 + ^ r7: .cfa -8 + ^ r6: .cfa -12 + ^ r4: .cfa -16 + ^
STACK CFI 36e4c .cfa: r7 8 +
STACK CFI INIT 36e68 14 .cfa: sp 0 +
STACK CFI INIT 36e7c 2 .cfa: sp 0 +
STACK CFI INIT 36e7e 4 .cfa: sp 0 +
STACK CFI INIT 36e84 1c8 .cfa: sp 0 +
STACK CFI 36e86 .cfa: sp 20 + .ra: .cfa -4 + ^ r7: .cfa -8 + ^ r6: .cfa -12 + ^ r5: .cfa -16 + ^ r4: .cfa -20 + ^
STACK CFI 36e88 .cfa: r7 8 +
STACK CFI 36e8c r8: .cfa -24 + ^
STACK CFI INIT 3704c 18 .cfa: sp 0 +
STACK CFI INIT 37064 c .cfa: sp 0 +
STACK CFI INIT 37070 10 .cfa: sp 0 +
STACK CFI 37072 .cfa: sp 8 + .ra: .cfa -4 + ^ r7: .cfa -8 + ^
STACK CFI 37074 .cfa: r7 8 +
STACK CFI INIT 37080 1b8 .cfa: sp 0 +
STACK CFI 37082 .cfa: sp 20 + .ra: .cfa -4 + ^ r7: .cfa -8 + ^ r6: .cfa -12 + ^ r5: .cfa -16 + ^ r4: .cfa -20 + ^
STACK CFI 37084 .cfa: r7 8 +
STACK CFI 37088 r11: .cfa -24 + ^ r9: .cfa -28 + ^ r8: .cfa -32 + ^
STACK CFI INIT 37238 34 .cfa: sp 0 +
STACK CFI 3723a .cfa: sp 16 + .ra: .cfa -4 + ^ r7: .cfa -8 + ^ r5: .cfa -12 + ^ r4: .cfa -16 + ^
STACK CFI 3723c .cfa: r7 8 +
STACK CFI INIT 3726c 22 .cfa: sp 0 +
STACK CFI 37278 .cfa: sp 16 + .ra: .cfa -4 + ^ r7: .cfa -8 + ^ r6: .cfa -12 + ^ r4: .cfa -16 + ^
STACK CFI 3727a .cfa: r7 8 +
STACK CFI INIT 3728e 16 .cfa: sp 0 +
STACK CFI 37290 .cfa: sp 16 + .ra: .cfa -4 + ^ r7: .cfa -8 + ^ r6: .cfa -12 + ^ r4: .cfa -16 + ^
STACK CFI 37292 .cfa: r7 8 +
STACK CFI INIT 372a4 16 .cfa: sp 0 +
STACK CFI 372a6 .cfa: sp 16 + .ra: .cfa -4 + ^ r7: .cfa -8 + ^ r6: .cfa -12 + ^ r4: .cfa -16 + ^
STACK CFI 372a8 .cfa: r7 8 +
STACK CFI INIT 372bc 24 .cfa: sp 0 +
STACK CFI 372be .cfa: sp 16 + .ra: .cfa -4 + ^ r7: .cfa -8 + ^ r6: .cfa -12 + ^ r4: .cfa -16 + ^
STACK CFI 372c0 .cfa: r7 8 +
STACK CFI INIT 372e0 2c .cfa: sp 0 +
STACK CFI 372e2 .cfa: sp 16 + .ra: .cfa -4 + ^ r7: .cfa -8 + ^ r6: .cfa -12 + ^ r4: .cfa -16 + ^
STACK CFI 372e4 .cfa: r7 8 +
STACK CFI INIT 3730c 38 .cfa: sp 0 +
STACK CFI 3730e .cfa: sp 16 + .ra: .cfa -4 + ^ r7: .cfa -8 + ^ r5: .cfa -12 + ^ r4: .cfa -16 + ^
STACK CFI 37310 .cfa: r7 8 +
STACK CFI INIT 37344 20 .cfa: sp 0 +
STACK CFI INIT 37364 16 .cfa: sp 0 +
STACK CFI 37366 .cfa: sp 8 + .ra: .cfa -4 + ^ r7: .cfa -8 + ^
STACK CFI 37368 .cfa: r7 8 +
STACK CFI INIT 3737a 1c .cfa: sp 0 +
STACK CFI 3737c .cfa: sp 16 + .ra: .cfa -4 + ^ r7: .cfa -8 + ^ r6: .cfa -12 + ^ r4: .cfa -16 + ^
STACK CFI 3737e .cfa: r7 8 +
STACK CFI INIT 37396 8 .cfa: sp 0 +
STACK CFI INIT 373a0 18 .cfa: sp 0 +
STACK CFI INIT 373b8 c .cfa: sp 0 +
STACK CFI INIT 373c4 d4 .cfa: sp 0 +
STACK CFI 373c6 .cfa: sp 20 + .ra: .cfa -4 + ^ r7: .cfa -8 + ^ r6: .cfa -12 + ^ r5: .cfa -16 + ^ r4: .cfa -20 + ^
STACK CFI 373c8 .cfa: r7 8 +
STACK CFI 373cc r8: .cfa -24 + ^
STACK CFI INIT 37498 1c0 .cfa: sp 0 +
STACK CFI 3749a .cfa: sp 20 + .ra: .cfa -4 + ^ r7: .cfa -8 + ^ r6: .cfa -12 + ^ r5: .cfa -16 + ^ r4: .cfa -20 + ^
STACK CFI 3749c .cfa: r7 8 +
STACK CFI 374a0 r11: .cfa -24 + ^
STACK CFI INIT 37658 f0 .cfa: sp 0 +
STACK CFI 3765a .cfa: sp 16 + .ra: .cfa -4 + ^ r7: .cfa -8 + ^ r5: .cfa -12 + ^ r4: .cfa -16 + ^
STACK CFI 3765c .cfa: r7 8 +
STACK CFI INIT 37748 5e8 .cfa: sp 0 +
STACK CFI 3774a .cfa: sp 20 + .ra: .cfa -4 + ^ r7: .cfa -8 + ^ r6: .cfa -12 + ^ r5: .cfa -16 + ^ r4: .cfa -20 + ^
STACK CFI 3774c .cfa: r7 8 +
STACK CFI 37750 r11: .cfa -24 + ^ r10: .cfa -28 + ^ r9: .cfa -32 + ^ r8: .cfa -36 + ^
STACK CFI INIT 37d30 2e8 .cfa: sp 0 +
STACK CFI 37d32 .cfa: sp 20 + .ra: .cfa -4 + ^ r7: .cfa -8 + ^ r6: .cfa -12 + ^ r5: .cfa -16 + ^ r4: .cfa -20 + ^
STACK CFI 37d34 .cfa: r7 8 +
STACK CFI 37d38 r11: .cfa -24 + ^ r10: .cfa -28 + ^ r9: .cfa -32 + ^ r8: .cfa -36 + ^
STACK CFI INIT 38018 ec .cfa: sp 0 +
STACK CFI 3801a .cfa: sp 20 + .ra: .cfa -4 + ^ r7: .cfa -8 + ^ r6: .cfa -12 + ^ r5: .cfa -16 + ^ r4: .cfa -20 + ^
STACK CFI 3801c .cfa: r7 8 +
STACK CFI 38020 r11: .cfa -24 + ^
STACK CFI INIT 38104 48 .cfa: sp 0 +
STACK CFI 38106 .cfa: sp 16 + .ra: .cfa -4 + ^ r7: .cfa -8 + ^ r6: .cfa -12 + ^ r4: .cfa -16 + ^
STACK CFI 38108 .cfa: r7 8 +
STACK CFI INIT 3814c 2c .cfa: sp 0 +
STACK CFI 3814e .cfa: sp 16 + .ra: .cfa -4 + ^ r7: .cfa -8 + ^ r5: .cfa -12 + ^ r4: .cfa -16 + ^
STACK CFI 38150 .cfa: r7 8 +
STACK CFI INIT 38178 1b0 .cfa: sp 0 +
STACK CFI 3817a .cfa: sp 20 + .ra: .cfa -4 + ^ r7: .cfa -8 + ^ r6: .cfa -12 + ^ r5: .cfa -16 + ^ r4: .cfa -20 + ^
STACK CFI 3817c .cfa: r7 8 +
STACK CFI 38180 r11: .cfa -24 + ^ r10: .cfa -28 + ^ r9: .cfa -32 + ^ r8: .cfa -36 + ^
STACK CFI INIT 38328 154 .cfa: sp 0 +
STACK CFI 3832a .cfa: sp 16 + .ra: .cfa -4 + ^ r7: .cfa -8 + ^ r5: .cfa -12 + ^ r4: .cfa -16 + ^
STACK CFI 3832c .cfa: r7 8 +
STACK CFI INIT 3847c 90 .cfa: sp 0 +
STACK CFI 3847e .cfa: sp 20 + .ra: .cfa -4 + ^ r7: .cfa -8 + ^ r6: .cfa -12 + ^ r5: .cfa -16 + ^ r4: .cfa -20 + ^
STACK CFI 38480 .cfa: r7 8 +
STACK CFI 38484 r11: .cfa -24 + ^
STACK CFI INIT 3850c 4 .cfa: sp 0 +
STACK CFI INIT 38510 20 .cfa: sp 0 +
STACK CFI 38512 .cfa: sp 16 + .ra: .cfa -4 + ^ r7: .cfa -8 + ^ r6: .cfa -12 + ^ r4: .cfa -16 + ^
STACK CFI 38514 .cfa: r7 8 +
STACK CFI INIT 38530 14 .cfa: sp 0 +
STACK CFI INIT 38544 2 .cfa: sp 0 +
STACK CFI INIT 38546 4 .cfa: sp 0 +
STACK CFI INIT 3854c 98 .cfa: sp 0 +
STACK CFI 3854e .cfa: sp 16 + .ra: .cfa -4 + ^ r7: .cfa -8 + ^ r5: .cfa -12 + ^ r4: .cfa -16 + ^
STACK CFI 38550 .cfa: r7 8 +
STACK CFI INIT 385e4 18 .cfa: sp 0 +
STACK CFI INIT 385fc c .cfa: sp 0 +
STACK CFI INIT 0 20 .cfa: sp 0 +
STACK CFI 2 .cfa: sp 16 + .ra: .cfa -4 + ^ r7: .cfa -8 + ^ r6: .cfa -12 + ^ r4: .cfa -16 + ^
STACK CFI 4 .cfa: r7 8 +
STACK CFI INIT 38608 20 .cfa: sp 0 +
STACK CFI 3860a .cfa: sp 16 + .ra: .cfa -4 + ^ r7: .cfa -8 + ^ r6: .cfa -12 + ^ r4: .cfa -16 + ^
STACK CFI 3860c .cfa: r7 8 +
STACK CFI INIT 38628 28 .cfa: sp 0 +
STACK CFI 3862a .cfa: sp 16 + .ra: .cfa -4 + ^ r7: .cfa -8 + ^ r5: .cfa -12 + ^ r4: .cfa -16 + ^
STACK CFI 3862c .cfa: r7 8 +
STACK CFI INIT 38650 cc .cfa: sp 0 +
STACK CFI 38652 .cfa: sp 16 + .ra: .cfa -4 + ^ r7: .cfa -8 + ^ r6: .cfa -12 + ^ r4: .cfa -16 + ^
STACK CFI 38654 .cfa: r7 8 +
STACK CFI INIT 3871c 48 .cfa: sp 0 +
STACK CFI 3871e .cfa: sp 16 + .ra: .cfa -4 + ^ r7: .cfa -8 + ^ r5: .cfa -12 + ^ r4: .cfa -16 + ^
STACK CFI 38720 .cfa: r7 8 +
STACK CFI INIT 38764 60 .cfa: sp 0 +
STACK CFI 38766 .cfa: sp 16 + .ra: .cfa -4 + ^ r7: .cfa -8 + ^ r6: .cfa -12 + ^ r4: .cfa -16 + ^
STACK CFI 38768 .cfa: r7 8 +
STACK CFI INIT 387c4 46 .cfa: sp 0 +
STACK CFI 387c6 .cfa: sp 16 + .ra: .cfa -4 + ^ r7: .cfa -8 + ^ r5: .cfa -12 + ^ r4: .cfa -16 + ^
STACK CFI 387c8 .cfa: r7 8 +
STACK CFI INIT 3880c 1b4 .cfa: sp 0 +
STACK CFI 3880e .cfa: sp 20 + .ra: .cfa -4 + ^ r7: .cfa -8 + ^ r6: .cfa -12 + ^ r5: .cfa -16 + ^ r4: .cfa -20 + ^
STACK CFI 38810 .cfa: r7 8 +
STACK CFI 38814 r8: .cfa -24 + ^
STACK CFI INIT 389c0 10 .cfa: sp 0 +
STACK CFI 389c2 .cfa: sp 8 + .ra: .cfa -4 + ^ r7: .cfa -8 + ^
STACK CFI 389c4 .cfa: r7 8 +
STACK CFI INIT 389d0 1c0 .cfa: sp 0 +
STACK CFI 389d2 .cfa: sp 20 + .ra: .cfa -4 + ^ r7: .cfa -8 + ^ r6: .cfa -12 + ^ r5: .cfa -16 + ^ r4: .cfa -20 + ^
STACK CFI 389d4 .cfa: r7 8 +
STACK CFI 389d8 r8: .cfa -24 + ^
STACK CFI INIT 38b90 10 .cfa: sp 0 +
STACK CFI 38b92 .cfa: sp 8 + .ra: .cfa -4 + ^ r7: .cfa -8 + ^
STACK CFI 38b94 .cfa: r7 8 +
STACK CFI INIT 38ba0 1c8 .cfa: sp 0 +
STACK CFI 38ba2 .cfa: sp 20 + .ra: .cfa -4 + ^ r7: .cfa -8 + ^ r6: .cfa -12 + ^ r5: .cfa -16 + ^ r4: .cfa -20 + ^
STACK CFI 38ba4 .cfa: r7 8 +
STACK CFI 38ba8 r8: .cfa -24 + ^
STACK CFI INIT 38d68 10 .cfa: sp 0 +
STACK CFI 38d6a .cfa: sp 8 + .ra: .cfa -4 + ^ r7: .cfa -8 + ^
STACK CFI 38d6c .cfa: r7 8 +
STACK CFI INIT 38d78 238 .cfa: sp 0 +
STACK CFI 38d7a .cfa: sp 20 + .ra: .cfa -4 + ^ r7: .cfa -8 + ^ r6: .cfa -12 + ^ r5: .cfa -16 + ^ r4: .cfa -20 + ^
STACK CFI 38d7c .cfa: r7 8 +
STACK CFI 38d80 r11: .cfa -24 + ^ r10: .cfa -28 + ^ r9: .cfa -32 + ^ r8: .cfa -36 + ^
STACK CFI INIT 38fb0 10 .cfa: sp 0 +
STACK CFI 38fb2 .cfa: sp 8 + .ra: .cfa -4 + ^ r7: .cfa -8 + ^
STACK CFI 38fb4 .cfa: r7 8 +
STACK CFI INIT 38fc0 1c4 .cfa: sp 0 +
STACK CFI 38fc2 .cfa: sp 20 + .ra: .cfa -4 + ^ r7: .cfa -8 + ^ r6: .cfa -12 + ^ r5: .cfa -16 + ^ r4: .cfa -20 + ^
STACK CFI 38fc4 .cfa: r7 8 +
STACK CFI 38fc8 r8: .cfa -24 + ^
STACK CFI INIT 39184 1b8 .cfa: sp 0 +
STACK CFI 39186 .cfa: sp 20 + .ra: .cfa -4 + ^ r7: .cfa -8 + ^ r6: .cfa -12 + ^ r5: .cfa -16 + ^ r4: .cfa -20 + ^
STACK CFI 39188 .cfa: r7 8 +
STACK CFI 3918c r8: .cfa -24 + ^
STACK CFI INIT 3933c 228 .cfa: sp 0 +
STACK CFI 3933e .cfa: sp 20 + .ra: .cfa -4 + ^ r7: .cfa -8 + ^ r6: .cfa -12 + ^ r5: .cfa -16 + ^ r4: .cfa -20 + ^
STACK CFI 39340 .cfa: r7 8 +
STACK CFI 39344 r11: .cfa -24 + ^ r10: .cfa -28 + ^ r9: .cfa -32 + ^ r8: .cfa -36 + ^
STACK CFI INIT 39564 10 .cfa: sp 0 +
STACK CFI 39566 .cfa: sp 8 + .ra: .cfa -4 + ^ r7: .cfa -8 + ^
STACK CFI 39568 .cfa: r7 8 +
STACK CFI INIT 39574 ec .cfa: sp 0 +
STACK CFI 39576 .cfa: sp 20 + .ra: .cfa -4 + ^ r7: .cfa -8 + ^ r6: .cfa -12 + ^ r5: .cfa -16 + ^ r4: .cfa -20 + ^
STACK CFI 39578 .cfa: r7 8 +
STACK CFI 3957c r10: .cfa -24 + ^ r9: .cfa -28 + ^ r8: .cfa -32 + ^
STACK CFI INIT 39660 b0 .cfa: sp 0 +
STACK CFI 39662 .cfa: sp 20 + .ra: .cfa -4 + ^ r7: .cfa -8 + ^ r6: .cfa -12 + ^ r5: .cfa -16 + ^ r4: .cfa -20 + ^
STACK CFI 39664 .cfa: r7 8 +
STACK CFI 39668 r8: .cfa -24 + ^
STACK CFI INIT 39710 e4 .cfa: sp 0 +
STACK CFI 39712 .cfa: sp 20 + .ra: .cfa -4 + ^ r7: .cfa -8 + ^ r6: .cfa -12 + ^ r5: .cfa -16 + ^ r4: .cfa -20 + ^
STACK CFI 39714 .cfa: r7 8 +
STACK CFI 39718 r11: .cfa -24 + ^ r9: .cfa -28 + ^ r8: .cfa -32 + ^
STACK CFI INIT 39800 70 .cfa: sp 0 +
STACK CFI 39802 .cfa: sp 20 + .ra: .cfa -4 + ^ r7: .cfa -8 + ^ r6: .cfa -12 + ^ r5: .cfa -16 + ^ r4: .cfa -20 + ^
STACK CFI 39804 .cfa: r7 8 +
STACK CFI 39808 r8: .cfa -24 + ^
STACK CFI INIT 39870 10 .cfa: sp 0 +
STACK CFI 39872 .cfa: sp 8 + .ra: .cfa -4 + ^ r7: .cfa -8 + ^
STACK CFI 39874 .cfa: r7 8 +
STACK CFI INIT 39880 258 .cfa: sp 0 +
STACK CFI 39882 .cfa: sp 20 + .ra: .cfa -4 + ^ r7: .cfa -8 + ^ r6: .cfa -12 + ^ r5: .cfa -16 + ^ r4: .cfa -20 + ^
STACK CFI 39884 .cfa: r7 8 +
STACK CFI 39888 r11: .cfa -24 + ^ r10: .cfa -28 + ^ r9: .cfa -32 + ^ r8: .cfa -36 + ^
STACK CFI INIT 39ae0 a4 .cfa: sp 0 +
STACK CFI 39ae2 .cfa: sp 16 + .ra: .cfa -4 + ^ r7: .cfa -8 + ^ r5: .cfa -12 + ^ r4: .cfa -16 + ^
STACK CFI 39ae4 .cfa: r7 8 +
STACK CFI INIT 39b84 25c .cfa: sp 0 +
STACK CFI 39b86 .cfa: sp 20 + .ra: .cfa -4 + ^ r7: .cfa -8 + ^ r6: .cfa -12 + ^ r5: .cfa -16 + ^ r4: .cfa -20 + ^
STACK CFI 39b88 .cfa: r7 8 +
STACK CFI 39b8c r11: .cfa -24 + ^ r10: .cfa -28 + ^ r9: .cfa -32 + ^ r8: .cfa -36 + ^
STACK CFI INIT 39de0 34 .cfa: sp 0 +
STACK CFI 39de2 .cfa: sp 16 + .ra: .cfa -4 + ^ r7: .cfa -8 + ^ r6: .cfa -12 + ^ r4: .cfa -16 + ^
STACK CFI 39de4 .cfa: r7 8 +
STACK CFI INIT 39e14 38 .cfa: sp 0 +
STACK CFI 39e16 .cfa: sp 16 + .ra: .cfa -4 + ^ r7: .cfa -8 + ^ r6: .cfa -12 + ^ r4: .cfa -16 + ^
STACK CFI 39e18 .cfa: r7 8 +
STACK CFI INIT 0 18 .cfa: sp 0 +
STACK CFI 2 .cfa: sp 8 + .ra: .cfa -4 + ^ r7: .cfa -8 + ^
STACK CFI 4 .cfa: r7 8 +
STACK CFI INIT 0 6 .cfa: sp 0 +
STACK CFI INIT 39e4c f8 .cfa: sp 0 +
STACK CFI 39e4e .cfa: sp 20 + .ra: .cfa -4 + ^ r7: .cfa -8 + ^ r6: .cfa -12 + ^ r5: .cfa -16 + ^ r4: .cfa -20 + ^
STACK CFI 39e50 .cfa: r7 8 +
STACK CFI 39e54 r11: .cfa -24 + ^ r9: .cfa -28 + ^ r8: .cfa -32 + ^
STACK CFI INIT 39f50 70 .cfa: sp 0 +
STACK CFI 39f52 .cfa: sp 20 + .ra: .cfa -4 + ^ r7: .cfa -8 + ^ r6: .cfa -12 + ^ r5: .cfa -16 + ^ r4: .cfa -20 + ^
STACK CFI 39f54 .cfa: r7 8 +
STACK CFI 39f58 r11: .cfa -24 + ^
STACK CFI INIT 0 4 .cfa: sp 0 +
STACK CFI INIT 39fc0 fc .cfa: sp 0 +
STACK CFI 39fc2 .cfa: sp 20 + .ra: .cfa -4 + ^ r7: .cfa -8 + ^ r6: .cfa -12 + ^ r5: .cfa -16 + ^ r4: .cfa -20 + ^
STACK CFI 39fc4 .cfa: r7 8 +
STACK CFI 39fc8 r11: .cfa -24 + ^ r9: .cfa -28 + ^ r8: .cfa -32 + ^
STACK CFI INIT 3a0c0 70 .cfa: sp 0 +
STACK CFI 3a0c2 .cfa: sp 20 + .ra: .cfa -4 + ^ r7: .cfa -8 + ^ r6: .cfa -12 + ^ r5: .cfa -16 + ^ r4: .cfa -20 + ^
STACK CFI 3a0c4 .cfa: r7 8 +
STACK CFI 3a0c8 r11: .cfa -24 + ^
STACK CFI INIT 3a130 b0 .cfa: sp 0 +
STACK CFI 3a132 .cfa: sp 20 + .ra: .cfa -4 + ^ r7: .cfa -8 + ^ r6: .cfa -12 + ^ r5: .cfa -16 + ^ r4: .cfa -20 + ^
STACK CFI 3a134 .cfa: r7 8 +
STACK CFI 3a138 r8: .cfa -24 + ^
STACK CFI INIT 3a1e0 114 .cfa: sp 0 +
STACK CFI 3a1e2 .cfa: sp 20 + .ra: .cfa -4 + ^ r7: .cfa -8 + ^ r6: .cfa -12 + ^ r5: .cfa -16 + ^ r4: .cfa -20 + ^
STACK CFI 3a1e4 .cfa: r7 8 +
STACK CFI 3a1e8 r10: .cfa -24 + ^ r9: .cfa -28 + ^ r8: .cfa -32 + ^
STACK CFI INIT 3a2f4 114 .cfa: sp 0 +
STACK CFI 3a2f6 .cfa: sp 20 + .ra: .cfa -4 + ^ r7: .cfa -8 + ^ r6: .cfa -12 + ^ r5: .cfa -16 + ^ r4: .cfa -20 + ^
STACK CFI 3a2f8 .cfa: r7 8 +
STACK CFI 3a2fc r10: .cfa -24 + ^ r9: .cfa -28 + ^ r8: .cfa -32 + ^
STACK CFI INIT 3a408 114 .cfa: sp 0 +
STACK CFI 3a40a .cfa: sp 20 + .ra: .cfa -4 + ^ r7: .cfa -8 + ^ r6: .cfa -12 + ^ r5: .cfa -16 + ^ r4: .cfa -20 + ^
STACK CFI 3a40c .cfa: r7 8 +
STACK CFI 3a410 r10: .cfa -24 + ^ r9: .cfa -28 + ^ r8: .cfa -32 + ^
STACK CFI INIT 3a51c 118 .cfa: sp 0 +
STACK CFI 3a51e .cfa: sp 20 + .ra: .cfa -4 + ^ r7: .cfa -8 + ^ r6: .cfa -12 + ^ r5: .cfa -16 + ^ r4: .cfa -20 + ^
STACK CFI 3a520 .cfa: r7 8 +
STACK CFI 3a524 r11: .cfa -24 + ^ r10: .cfa -28 + ^ r9: .cfa -32 + ^ r8: .cfa -36 + ^
STACK CFI INIT 3a640 260 .cfa: sp 0 +
STACK CFI 3a642 .cfa: sp 20 + .ra: .cfa -4 + ^ r7: .cfa -8 + ^ r6: .cfa -12 + ^ r5: .cfa -16 + ^ r4: .cfa -20 + ^
STACK CFI 3a644 .cfa: r7 8 +
STACK CFI 3a648 r11: .cfa -24 + ^ r10: .cfa -28 + ^ r9: .cfa -32 + ^ r8: .cfa -36 + ^
STACK CFI INIT 0 4 .cfa: sp 0 +
STACK CFI INIT 3a8a0 22c .cfa: sp 0 +
STACK CFI 3a8a2 .cfa: sp 20 + .ra: .cfa -4 + ^ r7: .cfa -8 + ^ r6: .cfa -12 + ^ r5: .cfa -16 + ^ r4: .cfa -20 + ^
STACK CFI 3a8a4 .cfa: r7 8 +
STACK CFI 3a8a8 r11: .cfa -24 + ^ r10: .cfa -28 + ^ r9: .cfa -32 + ^ r8: .cfa -36 + ^
STACK CFI INIT 3aacc 42c .cfa: sp 0 +
STACK CFI 3aace .cfa: sp 20 + .ra: .cfa -4 + ^ r7: .cfa -8 + ^ r6: .cfa -12 + ^ r5: .cfa -16 + ^ r4: .cfa -20 + ^
STACK CFI 3aad0 .cfa: r7 8 +
STACK CFI 3aad4 r11: .cfa -24 + ^ r10: .cfa -28 + ^ r9: .cfa -32 + ^ r8: .cfa -36 + ^
STACK CFI INIT 3aef8 f8 .cfa: sp 0 +
STACK CFI 3aefa .cfa: sp 20 + .ra: .cfa -4 + ^ r7: .cfa -8 + ^ r6: .cfa -12 + ^ r5: .cfa -16 + ^ r4: .cfa -20 + ^
STACK CFI 3aefc .cfa: r7 8 +
STACK CFI 3af00 r8: .cfa -24 + ^
STACK CFI INIT 3aff0 2 .cfa: sp 0 +
STACK CFI INIT 3aff2 e .cfa: sp 0 +
STACK CFI INIT 3b000 3ea .cfa: sp 0 +
STACK CFI 3b002 .cfa: sp 20 + .ra: .cfa -4 + ^ r7: .cfa -8 + ^ r6: .cfa -12 + ^ r5: .cfa -16 + ^ r4: .cfa -20 + ^
STACK CFI 3b004 .cfa: r7 8 +
STACK CFI 3b008 r11: .cfa -24 + ^ r10: .cfa -28 + ^ r9: .cfa -32 + ^ r8: .cfa -36 + ^
STACK CFI INIT 3b3ec 1cc .cfa: sp 0 +
STACK CFI 3b3ee .cfa: sp 20 + .ra: .cfa -4 + ^ r7: .cfa -8 + ^ r6: .cfa -12 + ^ r5: .cfa -16 + ^ r4: .cfa -20 + ^
STACK CFI 3b3f0 .cfa: r7 8 +
STACK CFI 3b3f4 r11: .cfa -24 + ^ r10: .cfa -28 + ^ r9: .cfa -32 + ^ r8: .cfa -36 + ^
STACK CFI INIT 3b5b8 44 .cfa: sp 0 +
STACK CFI 3b5ba .cfa: sp 16 + .ra: .cfa -4 + ^ r7: .cfa -8 + ^ r6: .cfa -12 + ^ r4: .cfa -16 + ^
STACK CFI 3b5bc .cfa: r7 8 +
STACK CFI INIT 3b5fc 38 .cfa: sp 0 +
STACK CFI 3b5fe .cfa: sp 16 + .ra: .cfa -4 + ^ r7: .cfa -8 + ^ r5: .cfa -12 + ^ r4: .cfa -16 + ^
STACK CFI 3b600 .cfa: r7 8 +
STACK CFI INIT 3b634 18 .cfa: sp 0 +
STACK CFI 3b636 .cfa: sp 8 + .ra: .cfa -4 + ^ r7: .cfa -8 + ^
STACK CFI 3b638 .cfa: r7 8 +
STACK CFI INIT 3b64c 420 .cfa: sp 0 +
STACK CFI 3b64e .cfa: sp 20 + .ra: .cfa -4 + ^ r7: .cfa -8 + ^ r6: .cfa -12 + ^ r5: .cfa -16 + ^ r4: .cfa -20 + ^
STACK CFI 3b650 .cfa: r7 8 +
STACK CFI 3b654 r11: .cfa -24 + ^ r10: .cfa -28 + ^ r9: .cfa -32 + ^ r8: .cfa -36 + ^
STACK CFI INIT 3ba6c 30 .cfa: sp 0 +
STACK CFI 3ba6e .cfa: sp 16 + .ra: .cfa -4 + ^ r7: .cfa -8 + ^ r6: .cfa -12 + ^ r4: .cfa -16 + ^
STACK CFI 3ba70 .cfa: r7 8 +
STACK CFI INIT 3ba9c c0 .cfa: sp 0 +
STACK CFI 3ba9e .cfa: sp 20 + .ra: .cfa -4 + ^ r7: .cfa -8 + ^ r6: .cfa -12 + ^ r5: .cfa -16 + ^ r4: .cfa -20 + ^
STACK CFI 3baa0 .cfa: r7 8 +
STACK CFI 3baa4 r11: .cfa -24 + ^ r9: .cfa -28 + ^ r8: .cfa -32 + ^
STACK CFI INIT 3bb5c 1ac .cfa: sp 0 +
STACK CFI 3bb5e .cfa: sp 20 + .ra: .cfa -4 + ^ r7: .cfa -8 + ^ r6: .cfa -12 + ^ r5: .cfa -16 + ^ r4: .cfa -20 + ^
STACK CFI 3bb60 .cfa: r7 8 +
STACK CFI 3bb64 r11: .cfa -24 + ^ r10: .cfa -28 + ^ r9: .cfa -32 + ^ r8: .cfa -36 + ^
STACK CFI INIT 3bd08 278 .cfa: sp 0 +
STACK CFI 3bd0a .cfa: sp 20 + .ra: .cfa -4 + ^ r7: .cfa -8 + ^ r6: .cfa -12 + ^ r5: .cfa -16 + ^ r4: .cfa -20 + ^
STACK CFI 3bd0c .cfa: r7 8 +
STACK CFI 3bd10 r10: .cfa -24 + ^ r9: .cfa -28 + ^ r8: .cfa -32 + ^
STACK CFI INIT 3bf80 228 .cfa: sp 0 +
STACK CFI 3bf82 .cfa: sp 20 + .ra: .cfa -4 + ^ r7: .cfa -8 + ^ r6: .cfa -12 + ^ r5: .cfa -16 + ^ r4: .cfa -20 + ^
STACK CFI 3bf84 .cfa: r7 8 +
STACK CFI 3bf88 r11: .cfa -24 + ^
STACK CFI INIT 3c1a8 384 .cfa: sp 0 +
STACK CFI 3c1aa .cfa: sp 20 + .ra: .cfa -4 + ^ r7: .cfa -8 + ^ r6: .cfa -12 + ^ r5: .cfa -16 + ^ r4: .cfa -20 + ^
STACK CFI 3c1ac .cfa: r7 8 +
STACK CFI 3c1b0 r11: .cfa -24 + ^ r10: .cfa -28 + ^ r9: .cfa -32 + ^ r8: .cfa -36 + ^
STACK CFI INIT 3c52c 880 .cfa: sp 0 +
STACK CFI 3c52e .cfa: sp 20 + .ra: .cfa -4 + ^ r7: .cfa -8 + ^ r6: .cfa -12 + ^ r5: .cfa -16 + ^ r4: .cfa -20 + ^
STACK CFI 3c530 .cfa: r7 8 +
STACK CFI 3c534 r11: .cfa -24 + ^ r10: .cfa -28 + ^ r9: .cfa -32 + ^ r8: .cfa -36 + ^
STACK CFI INIT 3cdac 4c .cfa: sp 0 +
STACK CFI 3cdae .cfa: sp 20 + .ra: .cfa -4 + ^ r7: .cfa -8 + ^ r6: .cfa -12 + ^ r5: .cfa -16 + ^ r4: .cfa -20 + ^
STACK CFI 3cdb0 .cfa: r7 8 +
STACK CFI 3cdb4 r8: .cfa -24 + ^
STACK CFI INIT 3cdf8 48 .cfa: sp 0 +
STACK CFI 3cdfa .cfa: sp 16 + .ra: .cfa -4 + ^ r7: .cfa -8 + ^ r6: .cfa -12 + ^ r4: .cfa -16 + ^
STACK CFI 3cdfc .cfa: r7 8 +
STACK CFI INIT 3ce40 10 .cfa: sp 0 +
STACK CFI 3ce42 .cfa: sp 8 + .ra: .cfa -4 + ^ r7: .cfa -8 + ^
STACK CFI 3ce44 .cfa: r7 8 +
STACK CFI INIT 3ce50 9a .cfa: sp 0 +
STACK CFI 3ce52 .cfa: sp 20 + .ra: .cfa -4 + ^ r7: .cfa -8 + ^ r6: .cfa -12 + ^ r5: .cfa -16 + ^ r4: .cfa -20 + ^
STACK CFI 3ce54 .cfa: r7 8 +
STACK CFI 3ce58 r11: .cfa -24 + ^ r9: .cfa -28 + ^ r8: .cfa -32 + ^
STACK CFI INIT 3ceec 54 .cfa: sp 0 +
STACK CFI 3ceee .cfa: sp 8 + .ra: .cfa -4 + ^ r7: .cfa -8 + ^
STACK CFI 3cef0 .cfa: r7 8 +
STACK CFI INIT 3cf40 34 .cfa: sp 0 +
STACK CFI 3cf42 .cfa: sp 16 + .ra: .cfa -4 + ^ r7: .cfa -8 + ^ r5: .cfa -12 + ^ r4: .cfa -16 + ^
STACK CFI 3cf44 .cfa: r7 8 +
STACK CFI INIT 3cf74 2c .cfa: sp 0 +
STACK CFI 3cf76 .cfa: sp 16 + .ra: .cfa -4 + ^ r7: .cfa -8 + ^ r5: .cfa -12 + ^ r4: .cfa -16 + ^
STACK CFI 3cf78 .cfa: r7 8 +
STACK CFI INIT 3cfa0 74 .cfa: sp 0 +
STACK CFI 3cfa2 .cfa: sp 8 + .ra: .cfa -4 + ^ r7: .cfa -8 + ^
STACK CFI 3cfa4 .cfa: r7 8 +
STACK CFI INIT 3d014 1b0 .cfa: sp 0 +
STACK CFI 3d016 .cfa: sp 20 + .ra: .cfa -4 + ^ r7: .cfa -8 + ^ r6: .cfa -12 + ^ r5: .cfa -16 + ^ r4: .cfa -20 + ^
STACK CFI 3d018 .cfa: r7 8 +
STACK CFI 3d01c r10: .cfa -24 + ^ r9: .cfa -28 + ^ r8: .cfa -32 + ^
STACK CFI INIT 3d1c4 9a .cfa: sp 0 +
STACK CFI 3d1c6 .cfa: sp 20 + .ra: .cfa -4 + ^ r7: .cfa -8 + ^ r6: .cfa -12 + ^ r5: .cfa -16 + ^ r4: .cfa -20 + ^
STACK CFI 3d1c8 .cfa: r7 8 +
STACK CFI 3d1cc r11: .cfa -24 + ^ r9: .cfa -28 + ^ r8: .cfa -32 + ^
STACK CFI INIT 3d260 174 .cfa: sp 0 +
STACK CFI 3d262 .cfa: sp 20 + .ra: .cfa -4 + ^ r7: .cfa -8 + ^ r6: .cfa -12 + ^ r5: .cfa -16 + ^ r4: .cfa -20 + ^
STACK CFI 3d264 .cfa: r7 8 +
STACK CFI 3d268 r10: .cfa -24 + ^ r9: .cfa -28 + ^ r8: .cfa -32 + ^
STACK CFI INIT 3d3d4 218 .cfa: sp 0 +
STACK CFI 3d3d6 .cfa: sp 20 + .ra: .cfa -4 + ^ r7: .cfa -8 + ^ r6: .cfa -12 + ^ r5: .cfa -16 + ^ r4: .cfa -20 + ^
STACK CFI 3d3d8 .cfa: r7 8 +
STACK CFI 3d3dc r11: .cfa -24 + ^ r10: .cfa -28 + ^ r9: .cfa -32 + ^ r8: .cfa -36 + ^
STACK CFI INIT 3d5ec 1dc .cfa: sp 0 +
STACK CFI 3d5ee .cfa: sp 20 + .ra: .cfa -4 + ^ r7: .cfa -8 + ^ r6: .cfa -12 + ^ r5: .cfa -16 + ^ r4: .cfa -20 + ^
STACK CFI 3d5f0 .cfa: r7 8 +
STACK CFI 3d5f4 r11: .cfa -24 + ^ r10: .cfa -28 + ^ r9: .cfa -32 + ^ r8: .cfa -36 + ^
STACK CFI INIT 3d7c8 188 .cfa: sp 0 +
STACK CFI 3d7ca .cfa: sp 20 + .ra: .cfa -4 + ^ r7: .cfa -8 + ^ r6: .cfa -12 + ^ r5: .cfa -16 + ^ r4: .cfa -20 + ^
STACK CFI 3d7cc .cfa: r7 8 +
STACK CFI 3d7d0 r11: .cfa -24 + ^ r10: .cfa -28 + ^ r9: .cfa -32 + ^ r8: .cfa -36 + ^
STACK CFI INIT 3d950 9f8 .cfa: sp 0 +
STACK CFI 3d952 .cfa: sp 20 + .ra: .cfa -4 + ^ r7: .cfa -8 + ^ r6: .cfa -12 + ^ r5: .cfa -16 + ^ r4: .cfa -20 + ^
STACK CFI 3d954 .cfa: r7 8 +
STACK CFI 3d958 r11: .cfa -24 + ^ r10: .cfa -28 + ^ r9: .cfa -32 + ^ r8: .cfa -36 + ^
STACK CFI INIT 3e348 184 .cfa: sp 0 +
STACK CFI 3e34a .cfa: sp 20 + .ra: .cfa -4 + ^ r7: .cfa -8 + ^ r6: .cfa -12 + ^ r5: .cfa -16 + ^ r4: .cfa -20 + ^
STACK CFI 3e34c .cfa: r7 8 +
STACK CFI 3e350 r11: .cfa -24 + ^ r10: .cfa -28 + ^ r9: .cfa -32 + ^ r8: .cfa -36 + ^
STACK CFI INIT 3e4d0 73c .cfa: sp 0 +
STACK CFI 3e4d2 .cfa: sp 20 + .ra: .cfa -4 + ^ r7: .cfa -8 + ^ r6: .cfa -12 + ^ r5: .cfa -16 + ^ r4: .cfa -20 + ^
STACK CFI 3e4d4 .cfa: r7 8 +
STACK CFI 3e4d8 r11: .cfa -24 + ^ r10: .cfa -28 + ^ r9: .cfa -32 + ^ r8: .cfa -36 + ^
STACK CFI INIT 3ec0c 140 .cfa: sp 0 +
STACK CFI 3ec0e .cfa: sp 20 + .ra: .cfa -4 + ^ r7: .cfa -8 + ^ r6: .cfa -12 + ^ r5: .cfa -16 + ^ r4: .cfa -20 + ^
STACK CFI 3ec10 .cfa: r7 8 +
STACK CFI 3ec14 r11: .cfa -24 + ^ r10: .cfa -28 + ^ r9: .cfa -32 + ^ r8: .cfa -36 + ^
STACK CFI INIT 3ed4c e0 .cfa: sp 0 +
STACK CFI 3ed4e .cfa: sp 20 + .ra: .cfa -4 + ^ r7: .cfa -8 + ^ r6: .cfa -12 + ^ r5: .cfa -16 + ^ r4: .cfa -20 + ^
STACK CFI 3ed50 .cfa: r7 8 +
STACK CFI 3ed54 r8: .cfa -24 + ^
STACK CFI INIT 3ee2c 194 .cfa: sp 0 +
STACK CFI 3ee2e .cfa: sp 20 + .ra: .cfa -4 + ^ r7: .cfa -8 + ^ r6: .cfa -12 + ^ r5: .cfa -16 + ^ r4: .cfa -20 + ^
STACK CFI 3ee30 .cfa: r7 8 +
STACK CFI 3ee34 r8: .cfa -24 + ^
STACK CFI INIT 3efc0 22 .cfa: sp 0 +
STACK CFI 3efc2 .cfa: sp 16 + .ra: .cfa -4 + ^ r7: .cfa -8 + ^ r6: .cfa -12 + ^ r4: .cfa -16 + ^
STACK CFI 3efc4 .cfa: r7 8 +
STACK CFI INIT 3efe4 104 .cfa: sp 0 +
STACK CFI 3efe6 .cfa: sp 20 + .ra: .cfa -4 + ^ r7: .cfa -8 + ^ r6: .cfa -12 + ^ r5: .cfa -16 + ^ r4: .cfa -20 + ^
STACK CFI 3efe8 .cfa: r7 8 +
STACK CFI 3efec r10: .cfa -24 + ^ r9: .cfa -28 + ^ r8: .cfa -32 + ^
STACK CFI INIT 3f0e8 144 .cfa: sp 0 +
STACK CFI 3f0ea .cfa: sp 20 + .ra: .cfa -4 + ^ r7: .cfa -8 + ^ r6: .cfa -12 + ^ r5: .cfa -16 + ^ r4: .cfa -20 + ^
STACK CFI 3f0ec .cfa: r7 8 +
STACK CFI 3f0f0 r11: .cfa -24 + ^ r9: .cfa -28 + ^ r8: .cfa -32 + ^
STACK CFI INIT 3f22c 21c .cfa: sp 0 +
STACK CFI 3f22e .cfa: sp 20 + .ra: .cfa -4 + ^ r7: .cfa -8 + ^ r6: .cfa -12 + ^ r5: .cfa -16 + ^ r4: .cfa -20 + ^
STACK CFI 3f230 .cfa: r7 8 +
STACK CFI 3f234 r11: .cfa -24 + ^ r10: .cfa -28 + ^ r9: .cfa -32 + ^ r8: .cfa -36 + ^
STACK CFI INIT 3f448 6e .cfa: sp 0 +
STACK CFI 3f44a .cfa: sp 20 + .ra: .cfa -4 + ^ r7: .cfa -8 + ^ r6: .cfa -12 + ^ r5: .cfa -16 + ^ r4: .cfa -20 + ^
STACK CFI 3f44c .cfa: r7 8 +
STACK CFI 3f450 r8: .cfa -24 + ^
STACK CFI INIT 3f4c0 e4 .cfa: sp 0 +
STACK CFI 3f4c2 .cfa: sp 20 + .ra: .cfa -4 + ^ r7: .cfa -8 + ^ r6: .cfa -12 + ^ r5: .cfa -16 + ^ r4: .cfa -20 + ^
STACK CFI 3f4c4 .cfa: r7 8 +
STACK CFI 3f4c8 r11: .cfa -24 + ^
STACK CFI INIT 3f5a4 9ac .cfa: sp 0 +
STACK CFI 3f5a6 .cfa: sp 20 + .ra: .cfa -4 + ^ r7: .cfa -8 + ^ r6: .cfa -12 + ^ r5: .cfa -16 + ^ r4: .cfa -20 + ^
STACK CFI 3f5a8 .cfa: r7 8 +
STACK CFI 3f5ac r11: .cfa -24 + ^ r10: .cfa -28 + ^ r9: .cfa -32 + ^ r8: .cfa -36 + ^
STACK CFI INIT 3ff50 e8 .cfa: sp 0 +
STACK CFI 3ff52 .cfa: sp 20 + .ra: .cfa -4 + ^ r7: .cfa -8 + ^ r6: .cfa -12 + ^ r5: .cfa -16 + ^ r4: .cfa -20 + ^
STACK CFI 3ff54 .cfa: r7 8 +
STACK CFI 3ff58 r8: .cfa -24 + ^
STACK CFI INIT 40038 19c .cfa: sp 0 +
STACK CFI 4003a .cfa: sp 20 + .ra: .cfa -4 + ^ r7: .cfa -8 + ^ r6: .cfa -12 + ^ r5: .cfa -16 + ^ r4: .cfa -20 + ^
STACK CFI 4003c .cfa: r7 8 +
STACK CFI 40040 r11: .cfa -24 + ^ r10: .cfa -28 + ^ r9: .cfa -32 + ^ r8: .cfa -36 + ^
STACK CFI INIT 401e0 e4 .cfa: sp 0 +
STACK CFI 401e2 .cfa: sp 20 + .ra: .cfa -4 + ^ r7: .cfa -8 + ^ r6: .cfa -12 + ^ r5: .cfa -16 + ^ r4: .cfa -20 + ^
STACK CFI 401e4 .cfa: r7 8 +
STACK CFI 401e8 r11: .cfa -24 + ^
STACK CFI INIT 402c4 150 .cfa: sp 0 +
STACK CFI 402c6 .cfa: sp 20 + .ra: .cfa -4 + ^ r7: .cfa -8 + ^ r6: .cfa -12 + ^ r5: .cfa -16 + ^ r4: .cfa -20 + ^
STACK CFI 402c8 .cfa: r7 8 +
STACK CFI 402cc r11: .cfa -24 + ^ r10: .cfa -28 + ^ r9: .cfa -32 + ^ r8: .cfa -36 + ^
STACK CFI INIT 40418 1064 .cfa: sp 0 +
STACK CFI 4041a .cfa: sp 20 + .ra: .cfa -4 + ^ r7: .cfa -8 + ^ r6: .cfa -12 + ^ r5: .cfa -16 + ^ r4: .cfa -20 + ^
STACK CFI 4041c .cfa: r7 8 +
STACK CFI 40420 r11: .cfa -24 + ^ r10: .cfa -28 + ^ r9: .cfa -32 + ^ r8: .cfa -36 + ^
STACK CFI INIT 4147c b78 .cfa: sp 0 +
STACK CFI 4147e .cfa: sp 20 + .ra: .cfa -4 + ^ r7: .cfa -8 + ^ r6: .cfa -12 + ^ r5: .cfa -16 + ^ r4: .cfa -20 + ^
STACK CFI 41480 .cfa: r7 8 +
STACK CFI 41484 r11: .cfa -24 + ^ r10: .cfa -28 + ^ r9: .cfa -32 + ^ r8: .cfa -36 + ^
STACK CFI INIT 41ff4 3a4 .cfa: sp 0 +
STACK CFI 41ff6 .cfa: sp 20 + .ra: .cfa -4 + ^ r7: .cfa -8 + ^ r6: .cfa -12 + ^ r5: .cfa -16 + ^ r4: .cfa -20 + ^
STACK CFI 41ff8 .cfa: r7 8 +
STACK CFI 41ffc r11: .cfa -24 + ^ r10: .cfa -28 + ^ r9: .cfa -32 + ^ r8: .cfa -36 + ^
STACK CFI INIT 42398 ebc .cfa: sp 0 +
STACK CFI 4239a .cfa: sp 20 + .ra: .cfa -4 + ^ r7: .cfa -8 + ^ r6: .cfa -12 + ^ r5: .cfa -16 + ^ r4: .cfa -20 + ^
STACK CFI 4239c .cfa: r7 8 +
STACK CFI 423a0 r11: .cfa -24 + ^ r10: .cfa -28 + ^ r9: .cfa -32 + ^ r8: .cfa -36 + ^
STACK CFI INIT 43254 10c .cfa: sp 0 +
STACK CFI 43256 .cfa: sp 20 + .ra: .cfa -4 + ^ r7: .cfa -8 + ^ r6: .cfa -12 + ^ r5: .cfa -16 + ^ r4: .cfa -20 + ^
STACK CFI 43258 .cfa: r7 8 +
STACK CFI 4325c r11: .cfa -24 + ^ r10: .cfa -28 + ^ r9: .cfa -32 + ^ r8: .cfa -36 + ^
STACK CFI INIT 43360 c4 .cfa: sp 0 +
STACK CFI 4337e .cfa: sp 20 + .ra: .cfa -4 + ^ r7: .cfa -8 + ^ r6: .cfa -12 + ^ r5: .cfa -16 + ^ r4: .cfa -20 + ^
STACK CFI 43380 .cfa: r7 8 +
STACK CFI 43384 r8: .cfa -24 + ^
STACK CFI INIT 43424 414 .cfa: sp 0 +
STACK CFI 43426 .cfa: sp 20 + .ra: .cfa -4 + ^ r7: .cfa -8 + ^ r6: .cfa -12 + ^ r5: .cfa -16 + ^ r4: .cfa -20 + ^
STACK CFI 43428 .cfa: r7 8 +
STACK CFI 4342c r11: .cfa -24 + ^ r10: .cfa -28 + ^ r9: .cfa -32 + ^ r8: .cfa -36 + ^
STACK CFI INIT 43838 276 .cfa: sp 0 +
STACK CFI 4383a .cfa: sp 20 + .ra: .cfa -4 + ^ r7: .cfa -8 + ^ r6: .cfa -12 + ^ r5: .cfa -16 + ^ r4: .cfa -20 + ^
STACK CFI 4383c .cfa: r7 8 +
STACK CFI 43840 r11: .cfa -24 + ^ r10: .cfa -28 + ^ r9: .cfa -32 + ^ r8: .cfa -36 + ^
STACK CFI INIT 43aae 6e .cfa: sp 0 +
STACK CFI 43ab0 .cfa: sp 20 + .ra: .cfa -4 + ^ r7: .cfa -8 + ^ r6: .cfa -12 + ^ r5: .cfa -16 + ^ r4: .cfa -20 + ^
STACK CFI 43ab2 .cfa: r7 8 +
STACK CFI 43ab6 r8: .cfa -24 + ^
STACK CFI INIT 43b1c 994 .cfa: sp 0 +
STACK CFI 43b1e .cfa: sp 20 + .ra: .cfa -4 + ^ r7: .cfa -8 + ^ r6: .cfa -12 + ^ r5: .cfa -16 + ^ r4: .cfa -20 + ^
STACK CFI 43b20 .cfa: r7 8 +
STACK CFI 43b24 r11: .cfa -24 + ^ r10: .cfa -28 + ^ r9: .cfa -32 + ^ r8: .cfa -36 + ^
STACK CFI INIT 444b0 e0 .cfa: sp 0 +
STACK CFI 444b2 .cfa: sp 20 + .ra: .cfa -4 + ^ r7: .cfa -8 + ^ r6: .cfa -12 + ^ r5: .cfa -16 + ^ r4: .cfa -20 + ^
STACK CFI 444b4 .cfa: r7 8 +
STACK CFI 444b8 r11: .cfa -24 + ^ r10: .cfa -28 + ^ r9: .cfa -32 + ^ r8: .cfa -36 + ^
STACK CFI INIT 44590 544 .cfa: sp 0 +
STACK CFI 44592 .cfa: sp 20 + .ra: .cfa -4 + ^ r7: .cfa -8 + ^ r6: .cfa -12 + ^ r5: .cfa -16 + ^ r4: .cfa -20 + ^
STACK CFI 44594 .cfa: r7 8 +
STACK CFI 44598 r11: .cfa -24 + ^ r10: .cfa -28 + ^ r9: .cfa -32 + ^ r8: .cfa -36 + ^
