MODULE Linux arm64 F14681AE907DA983D507A79D4A9806720 km7dev.gdps-switcher.android64.so
INFO CODE_ID AE8146F17D9083A9D507A79D4A98067285450E12
INFO GENERATOR mozilla/dump_syms 2.3.4
PUBLIC 3e580 0 __on_dlclose
PUBLIC 3e590 0 __emutls_unregister_key
PUBLIC 3e598 0 __on_dlclose_late
PUBLIC 3e5a0 0 __atexit_handler_wrapper
PUBLIC 3e5b4 0 atexit
PUBLIC 3e5d0 0 pthread_atfork
PUBLIC 3e5e0 0 unwind_phase2
PUBLIC 3e714 0 _Unwind_Resume
PUBLIC 3e798 0 unwind_phase2_forced
PUBLIC m 3e88c 0 __unw_init_local
PUBLIC m 3e934 0 __unw_get_reg
PUBLIC 3e9b0 0 __unw_step_stage2
PUBLIC m 3e9c4 0 __unw_get_proc_info
PUBLIC m 3ea04 0 __unw_resume
PUBLIC 3ea2c 0 libunwind::CFI_Parser<libunwind::LocalAddressSpace>::decodeFDE(libunwind::LocalAddressSpace&, unsigned long, libunwind::CFI_Parser<libunwind::LocalAddressSpace>::FDE_Info*, libunwind::CFI_Parser<libunwind::LocalAddressSpace>::CIE_Info*, bool)
PUBLIC 3ebbc 0 libunwind::CFI_Parser<libunwind::LocalAddressSpace>::parseCIE(libunwind::LocalAddressSpace&, unsigned long, libunwind::CFI_Parser<libunwind::LocalAddressSpace>::CIE_Info*)
PUBLIC 3ee84 0 libunwind::AbstractUnwindCursor::~AbstractUnwindCursor()
PUBLIC 3ee8c 0 libunwind::UnwindCursor<libunwind::LocalAddressSpace, libunwind::Registers_arm64>::~UnwindCursor()
PUBLIC 3ee94 0 libunwind::UnwindCursor<libunwind::LocalAddressSpace, libunwind::Registers_arm64>::validReg(int)
PUBLIC 3eed8 0 libunwind::UnwindCursor<libunwind::LocalAddressSpace, libunwind::Registers_arm64>::getReg(int)
PUBLIC 3efc0 0 libunwind::UnwindCursor<libunwind::LocalAddressSpace, libunwind::Registers_arm64>::setReg(int, unsigned long)
PUBLIC 3f0a8 0 libunwind::UnwindCursor<libunwind::LocalAddressSpace, libunwind::Registers_arm64>::validFloatReg(int)
PUBLIC 3f0bc 0 libunwind::UnwindCursor<libunwind::LocalAddressSpace, libunwind::Registers_arm64>::getFloatReg(int)
PUBLIC 3f0cc 0 libunwind::UnwindCursor<libunwind::LocalAddressSpace, libunwind::Registers_arm64>::setFloatReg(int, double)
PUBLIC 3f0dc 0 libunwind::UnwindCursor<libunwind::LocalAddressSpace, libunwind::Registers_arm64>::step(bool)
PUBLIC 3f1cc 0 libunwind::UnwindCursor<libunwind::LocalAddressSpace, libunwind::Registers_arm64>::getInfo(unw_proc_info_t*)
PUBLIC 3f210 0 libunwind::UnwindCursor<libunwind::LocalAddressSpace, libunwind::Registers_arm64>::jumpto()
PUBLIC 3f21c 0 libunwind::UnwindCursor<libunwind::LocalAddressSpace, libunwind::Registers_arm64>::isSignalFrame()
PUBLIC 3f228 0 libunwind::UnwindCursor<libunwind::LocalAddressSpace, libunwind::Registers_arm64>::getFunctionName(char*, unsigned long, unsigned long*)
PUBLIC 3f254 0 libunwind::UnwindCursor<libunwind::LocalAddressSpace, libunwind::Registers_arm64>::setInfoBasedOnIPRegister(bool)
PUBLIC 3f4d4 0 libunwind::UnwindCursor<libunwind::LocalAddressSpace, libunwind::Registers_arm64>::getRegisterName(int)
PUBLIC 3f4e0 0 libunwind::UnwindCursor<libunwind::LocalAddressSpace, libunwind::Registers_arm64>::stepThroughSigReturn(libunwind::Registers_arm64&)
PUBLIC 3f600 0 libunwind::DwarfInstructions<libunwind::LocalAddressSpace, libunwind::Registers_arm64>::stepWithDwarf(libunwind::LocalAddressSpace&, unsigned long, unsigned long, libunwind::Registers_arm64&, bool&, bool)
PUBLIC 3fa88 0 libunwind::CFI_Parser<libunwind::LocalAddressSpace>::parseFDEInstructions(libunwind::LocalAddressSpace&, libunwind::CFI_Parser<libunwind::LocalAddressSpace>::FDE_Info const&, libunwind::CFI_Parser<libunwind::LocalAddressSpace>::CIE_Info const&, unsigned long, int, libunwind::CFI_Parser<libunwind::LocalAddressSpace>::PrologInfo*)
PUBLIC 406d0 0 libunwind::DwarfInstructions<libunwind::LocalAddressSpace, libunwind::Registers_arm64>::getCFA(libunwind::LocalAddressSpace&, libunwind::CFI_Parser<libunwind::LocalAddressSpace>::PrologInfo const&, libunwind::Registers_arm64 const&)
PUBLIC 40804 0 libunwind::DwarfInstructions<libunwind::LocalAddressSpace, libunwind::Registers_arm64>::getSavedRegister(libunwind::LocalAddressSpace&, libunwind::Registers_arm64 const&, unsigned long, libunwind::CFI_Parser<libunwind::LocalAddressSpace>::RegisterLocation const&)
PUBLIC 40a14 0 libunwind::LocalAddressSpace::getEncodedP(unsigned long&, unsigned long, unsigned char, unsigned long)
PUBLIC 40da0 0 libunwind::LocalAddressSpace::getULEB128(unsigned long&, unsigned long)
PUBLIC 40f68 0 libunwind::DwarfInstructions<libunwind::LocalAddressSpace, libunwind::Registers_arm64>::evaluateExpression(unsigned long, libunwind::LocalAddressSpace&, libunwind::Registers_arm64 const&, unsigned long)
PUBLIC 41924 0 libunwind::UnwindCursor<libunwind::LocalAddressSpace, libunwind::Registers_arm64>::getInfoFromDwarfSection(unsigned long, libunwind::UnwindInfoSections const&, unsigned int)
PUBLIC 41bf8 0 libunwind::findUnwindSectionsByPhdr(dl_phdr_info*, unsigned long, void*)
PUBLIC 41d2c 0 libunwind::EHHeaderParser<libunwind::LocalAddressSpace>::decodeEHHdr(libunwind::LocalAddressSpace&, unsigned long, unsigned long, libunwind::EHHeaderParser<libunwind::LocalAddressSpace>::EHHeaderInfo&)
PUBLIC 41e4c 0 libunwind::CFI_Parser<libunwind::LocalAddressSpace>::findFDE(libunwind::LocalAddressSpace&, unsigned long, unsigned long, unsigned long, unsigned long, libunwind::CFI_Parser<libunwind::LocalAddressSpace>::FDE_Info*, libunwind::CFI_Parser<libunwind::LocalAddressSpace>::CIE_Info*)
PUBLIC 42014 0 libunwind::EHHeaderParser<libunwind::LocalAddressSpace>::findFDE(libunwind::LocalAddressSpace&, unsigned long, unsigned long, unsigned int, libunwind::CFI_Parser<libunwind::LocalAddressSpace>::FDE_Info*, libunwind::CFI_Parser<libunwind::LocalAddressSpace>::CIE_Info*)
PUBLIC 4217c 0 libunwind::EHHeaderParser<libunwind::LocalAddressSpace>::getTableEntrySize(unsigned char)
PUBLIC 42278 0 libunwind::Registers_arm64::getRegisterName(int)
PUBLIC 422a8 0 __libunwind_Registers_arm64_jumpto
PUBLIC m 42338 0 __unw_getcontext
PUBLIC 423d4 0 geodeExecFunction5<(anonymous namespace)::ExecFuncUnique5>(geode::ModStateEvent*)
PUBLIC 42df0 0 std::__ndk1::basic_string<char, std::__ndk1::char_traits<char>, std::__ndk1::allocator<char> >::__throw_length_error[abi:ne180000]() const
PUBLIC 42e04 0 std::__ndk1::__throw_length_error[abi:ne180000](char const*)
PUBLIC 42e54 0 std::length_error::length_error[abi:ne180000](char const*)
PUBLIC m 42e84 0 geode::EventListener<geode::ModStateFilter>::getPool() const
PUBLIC m 42e88 0 geode::EventListener<geode::ModStateFilter>::handle(geode::Event*)
PUBLIC m 42ffc 0 geode::EventListener<geode::ModStateFilter>::~EventListener()
PUBLIC m 4305c 0 geode::EventListener<geode::ModStateFilter>::~EventListener()
PUBLIC 430c4 0 std::__ndk1::__function::__base<void (geode::ModStateEvent*)>::~__base()
PUBLIC m 430c8 0 std::__ndk1::__function::__func<void (*)(geode::ModStateEvent*), std::__ndk1::allocator<void (*)(geode::ModStateEvent*)>, void (geode::ModStateEvent*)>::~__func()
PUBLIC 430cc 0 std::__ndk1::__function::__func<void (*)(geode::ModStateEvent*), std::__ndk1::allocator<void (*)(geode::ModStateEvent*)>, void (geode::ModStateEvent*)>::__clone() const
PUBLIC 43104 0 std::__ndk1::__function::__func<void (*)(geode::ModStateEvent*), std::__ndk1::allocator<void (*)(geode::ModStateEvent*)>, void (geode::ModStateEvent*)>::__clone(std::__ndk1::__function::__base<void (geode::ModStateEvent*)>*) const
PUBLIC 4311c 0 std::__ndk1::__function::__func<void (*)(geode::ModStateEvent*), std::__ndk1::allocator<void (*)(geode::ModStateEvent*)>, void (geode::ModStateEvent*)>::destroy()
PUBLIC 43120 0 std::__ndk1::__function::__func<void (*)(geode::ModStateEvent*), std::__ndk1::allocator<void (*)(geode::ModStateEvent*)>, void (geode::ModStateEvent*)>::destroy_deallocate()
PUBLIC 43124 0 std::__ndk1::__function::__func<void (*)(geode::ModStateEvent*), std::__ndk1::allocator<void (*)(geode::ModStateEvent*)>, void (geode::ModStateEvent*)>::operator()(geode::ModStateEvent*&&)
PUBLIC 43134 0 std::__ndk1::__function::__func<void (*)(geode::ModStateEvent*), std::__ndk1::allocator<void (*)(geode::ModStateEvent*)>, void (geode::ModStateEvent*)>::target(std::type_info const&) const
PUBLIC 43150 0 std::__ndk1::__function::__func<void (*)(geode::ModStateEvent*), std::__ndk1::allocator<void (*)(geode::ModStateEvent*)>, void (geode::ModStateEvent*)>::target_type() const
PUBLIC m 4315c 0 geode::cast::traverseTypeinfoFor(void*, geode::cast::ClassTypeinfoType const*, char const*)
PUBLIC 43260 0 _GLOBAL__sub_I_DataSave.cpp
PUBLIC 433a0 0 __aarch64_ldadd8_relax
PUBLIC 433d0 0 init_have_lse_atomics
PUBLIC 43468 0 __init_cpu_features_constructor
PUBLIC 43a04 0 __init_cpu_features
PUBLIC 43a90 0 __aarch64_ldadd8_acq_rel
PUBLIC 43ac0 0 __cxx_global_var_init
PUBLIC 43f40 0 geode::modifier::ModifyBase<geode::modifier::ModifyDerive<GDPSGManager, GManager> >::~ModifyBase()
PUBLIC 43f5c 0 geode::modifier::ModifyDerive<GDPSGManager, GManager>::apply()
PUBLIC 4438c 0 std::__ndk1::shared_ptr<geode::Hook>::~shared_ptr[abi:ne180000]()
PUBLIC m 443dc 0 geode::impl::ResultData<geode::Hook*, std::__ndk1::basic_string<char, std::__ndk1::char_traits<char>, std::__ndk1::allocator<char> > >::~ResultData()
PUBLIC 44450 0 std::__ndk1::vector<std::__ndk1::basic_string<char, std::__ndk1::char_traits<char>, std::__ndk1::allocator<char> >, std::__ndk1::allocator<std::__ndk1::basic_string<char, std::__ndk1::char_traits<char>, std::__ndk1::allocator<char> > > >::~vector[abi:ne180000]()
PUBLIC 444cc 0 geode::modifier::ModifyBase<geode::modifier::ModifyDerive<GDPSGManager, GManager> >::apply()
PUBLIC 444d0 0 __clang_call_terminate
PUBLIC m 444e0 0 _ZN5geode15UnwrapExceptionC2IRPNS_4HookEQsr4implE18IsStringStreamableIT_EEENS_4impl5OkTagEOS5_
PUBLIC 44634 0 std::__ndk1::__throw_bad_variant_access[abi:ne180000]()
PUBLIC 44668 0 std::__ndk1::basic_stringstream<char, std::__ndk1::char_traits<char>, std::__ndk1::allocator<char> >::basic_stringstream[abi:ne180000]()
PUBLIC m 44794 0 std::__ndk1::basic_stringstream<char, std::__ndk1::char_traits<char>, std::__ndk1::allocator<char> >::~basic_stringstream()
PUBLIC 44814 0 geode::UnwrapException::~UnwrapException()
PUBLIC 44838 0 std::__ndk1::__put_character_sequence[abi:ne180000]<char, std::__ndk1::char_traits<char> >(std::__ndk1::basic_ostream<char, std::__ndk1::char_traits<char> >, std::__ndk1::basic_ostream const*, unsigned long)
PUBLIC 449dc 0 std::__ndk1::__pad_and_output[abi:ne180000]<char, std::__ndk1::char_traits<char> >(std::__ndk1::char_traits<char>, std::__ndk1::ostreambuf_iterator const*, std::__ndk1::ostreambuf_iterator const, std::__ndk1::ostreambuf_iterator const, std::__ndk1::ios_base&, std::__ndk1::ostreambuf_iterator)
PUBLIC 44bb8 0 std::__throw_bad_array_new_length([abi:ne180000], void)
PUBLIC 44bec 0 std::__ndk1::basic_stringbuf<char, std::__ndk1::char_traits<char>, std::__ndk1::allocator<char> >::str[abi:ne180000]() &&
PUBLIC 44d64 0 std::__ndk1::basic_stringbuf<char, std::__ndk1::char_traits<char>, std::__ndk1::allocator<char> >::__init_buf_ptrs[abi:ne180000]()
PUBLIC m 44eac 0 std::__ndk1::vector<std::__ndk1::basic_string<char, std::__ndk1::char_traits<char>, std::__ndk1::allocator<char> >, std::__ndk1::allocator<std::__ndk1::basic_string<char, std::__ndk1::char_traits<char>, std::__ndk1::allocator<char> > > >::__push_back_slow_path<std::__ndk1::basic_string<char, std::__ndk1::char_traits<char>, std::__ndk1::allocator<char> > const&>(std::__ndk1::basic_string<char, std::__ndk1::char_traits<char>, std::__ndk1::allocator<char> > const&)
PUBLIC m 450d4 0 std::__ndk1::basic_string<char, std::__ndk1::char_traits<char>, std::__ndk1::allocator<char> >::__init_copy_ctor_external(char const*, unsigned long)
PUBLIC 45154 0 std::__ndk1::__split_buffer<std::__ndk1::basic_string<char, std::__ndk1::char_traits<char>, std::__ndk1::allocator<char> >, std::__ndk1::allocator<std::__ndk1::basic_string<char, std::__ndk1::char_traits<char>, std::__ndk1::allocator<char> > >&>::~__split_buffer()
PUBLIC 451bc 0 std::__ndk1::vector<std::__ndk1::basic_string<char, std::__ndk1::char_traits<char>, std::__ndk1::allocator<char> >, std::__ndk1::allocator<std::__ndk1::basic_string<char, std::__ndk1::char_traits<char>, std::__ndk1::allocator<char> > > >::__throw_length_error[abi:ne180000]() const
PUBLIC 451d0 0 std::__ndk1::__variant_detail::__visitation::__base::__dispatcher<(unsigned long)0>::__dispatch[abi:ne180000]<std::__ndk1::__variant_detail::__dtor<std::__ndk1::__variant_detail::__traits<geode::Hook*, std::__ndk1::basic_string<char, std::__ndk1::char_traits<char>, std::__ndk1::allocator<char> > >, (std::__ndk1::__variant_detail::_Trait)1>::__destroy[abi:ne180000]()::{lambda(auto:1&)#1}, std::__ndk1::__variant_detail::__base<(std::__ndk1::__variant_detail::__traits<geode::Hook*, std::__ndk1::basic_string<char, std::__ndk1::char_traits<char>, std::__ndk1::allocator<char> > >)1, geode::Hook, std::__ndk1::allocator<char> >&>(std::__ndk1::__variant_detail::__dtor<std::__ndk1::__variant_detail::__traits<geode::Hook*, std::__ndk1::basic_string<char, std::__ndk1::char_traits<char>, std::__ndk1::allocator<char> > >, (std::__ndk1::__variant_detail::_Trait)1>, std::__ndk1::__variant_detail::__base<(std::__ndk1::__variant_detail::__traits<geode::Hook*, std::__ndk1::basic_string<char, std::__ndk1::char_traits<char>, std::__ndk1::allocator<char> > >)1, geode::Hook, std::__ndk1::allocator<char> >&)
PUBLIC 451d4 0 std::__ndk1::__variant_detail::__visitation::__base::__dispatcher<(unsigned long)1>::__dispatch[abi:ne180000]<std::__ndk1::__variant_detail::__dtor<std::__ndk1::__variant_detail::__traits<geode::Hook*, std::__ndk1::basic_string<char, std::__ndk1::char_traits<char>, std::__ndk1::allocator<char> > >, (std::__ndk1::__variant_detail::_Trait)1>::__destroy[abi:ne180000]()::{lambda(auto:1&)#1}, std::__ndk1::__variant_detail::__base<(std::__ndk1::__variant_detail::__traits<geode::Hook*, std::__ndk1::basic_string<char, std::__ndk1::char_traits<char>, std::__ndk1::allocator<char> > >)1, geode::Hook, std::__ndk1::allocator<char> >&>(std::__ndk1::__variant_detail::__dtor<std::__ndk1::__variant_detail::__traits<geode::Hook*, std::__ndk1::basic_string<char, std::__ndk1::char_traits<char>, std::__ndk1::allocator<char> > >, (std::__ndk1::__variant_detail::_Trait)1>, std::__ndk1::__variant_detail::__base<(std::__ndk1::__variant_detail::__traits<geode::Hook*, std::__ndk1::basic_string<char, std::__ndk1::char_traits<char>, std::__ndk1::allocator<char> > >)1, geode::Hook, std::__ndk1::allocator<char> >&)
PUBLIC m 451e8 0 std::__ndk1::__tree<std::__ndk1::__value_type<std::__ndk1::basic_string<char, std::__ndk1::char_traits<char>, std::__ndk1::allocator<char> >, std::__ndk1::shared_ptr<geode::Hook> >, std::__ndk1::__map_value_compare<std::__ndk1::basic_string<char, std::__ndk1::char_traits<char>, std::__ndk1::allocator<char> >, std::__ndk1::__value_type<std::__ndk1::basic_string<char, std::__ndk1::char_traits<char>, std::__ndk1::allocator<char> >, std::__ndk1::shared_ptr<geode::Hook> >, std::__ndk1::less<std::__ndk1::basic_string<char, std::__ndk1::char_traits<char>, std::__ndk1::allocator<char> > >, true>, std::__ndk1::allocator<std::__ndk1::__value_type<std::__ndk1::basic_string<char, std::__ndk1::char_traits<char>, std::__ndk1::allocator<char> >, std::__ndk1::shared_ptr<geode::Hook> > > >::find<std::__ndk1::basic_string<char, std::__ndk1::char_traits<char>, std::__ndk1::allocator<char> > >(std::__ndk1::basic_string<char, std::__ndk1::char_traits<char>, std::__ndk1::allocator<char> > const&)
PUBLIC 45308 0 std::__ndk1::__tree<std::__ndk1::__value_type<std::__ndk1::basic_string<char, std::__ndk1::char_traits<char>, std::__ndk1::allocator<char> >, std::__ndk1::shared_ptr<geode::Hook> >, std::__ndk1::__map_value_compare<std::__ndk1::basic_string<char, std::__ndk1::char_traits<char>, std::__ndk1::allocator<char> >, std::__ndk1::__value_type<std::__ndk1::basic_string<char, std::__ndk1::char_traits<char>, std::__ndk1::allocator<char> >, std::__ndk1::shared_ptr<geode::Hook> >, std::__ndk1::less<std::__ndk1::basic_string<char, std::__ndk1::char_traits<char>, std::__ndk1::allocator<char> > >, true>, std::__ndk1::allocator<std::__ndk1::__value_type<std::__ndk1::basic_string<char, std::__ndk1::char_traits<char>, std::__ndk1::allocator<char> >, std::__ndk1::shared_ptr<geode::Hook> > > >::erase(std::__ndk1::__tree_const_iterator<std::__ndk1::__value_type<std::__ndk1::basic_string<char, std::__ndk1::char_traits<char>, std::__ndk1::allocator<char> >, std::__ndk1::shared_ptr<geode::Hook> >, std::__ndk1::__tree_node<std::__ndk1::__value_type<std::__ndk1::basic_string<char, std::__ndk1::char_traits<char>, std::__ndk1::allocator<char> >, std::__ndk1::shared_ptr<geode::Hook> >, void*>*, long>)
PUBLIC 453dc 0 std::__ndk1::__tree_remove[abi:ne180000]<std::__ndk1::__tree_node_base<void*>*>(std::__ndk1::__tree_node_base<void*>*, std::__ndk1::__tree_node_base<void*>*)
PUBLIC 457a4 0 std::__ndk1::__tree<std::__ndk1::__value_type<std::__ndk1::basic_string<char, std::__ndk1::char_traits<char>, std::__ndk1::allocator<char> >, std::__ndk1::shared_ptr<geode::Hook> >, std::__ndk1::__map_value_compare<std::__ndk1::basic_string<char, std::__ndk1::char_traits<char>, std::__ndk1::allocator<char> >, std::__ndk1::__value_type<std::__ndk1::basic_string<char, std::__ndk1::char_traits<char>, std::__ndk1::allocator<char> >, std::__ndk1::shared_ptr<geode::Hook> >, std::__ndk1::less<std::__ndk1::basic_string<char, std::__ndk1::char_traits<char>, std::__ndk1::allocator<char> > >, true>, std::__ndk1::allocator<std::__ndk1::__value_type<std::__ndk1::basic_string<char, std::__ndk1::char_traits<char>, std::__ndk1::allocator<char> >, std::__ndk1::shared_ptr<geode::Hook> > > >::destroy(std::__ndk1::__tree_node<std::__ndk1::__value_type<std::__ndk1::basic_string<char, std::__ndk1::char_traits<char>, std::__ndk1::allocator<char> >, std::__ndk1::shared_ptr<geode::Hook> >, void*>*)
PUBLIC 45830 0 geode::Hook::create<void (*)(GDPSGManager*)>(void*, void (*)(GDPSGManager*), std::__ndk1::basic_string<char, std::__ndk1::char_traits<char>, std::__ndk1::allocator<char> > const&, tulip::hook::TulipConvention, tulip::hook::HookMetadata const&)
PUBLIC 45964 0 geode::modifier::AsStaticFunction_setup<GDPSGManager, void (GDPSGManager::*)()>::Impl<void (GDPSGManager::*)()>::function(GDPSGManager*)
PUBLIC 463f8 0 geode::modifier::AsStaticFunction_save<GDPSGManager, void (GDPSGManager::*)()>::Impl<void (GDPSGManager::*)()>::function(GDPSGManager*)
PUBLIC 46a68 0 geode::addresser::Addresser::addressOfVirtual<void, GManager, >(void (GManager::*)())
PUBLIC 46b34 0 GManager::GManager(geode::ZeroConstructorType)
PUBLIC 46bc8 0 std::__ndk1::shared_ptr<tulip::hook::CallingConvention>::~shared_ptr[abi:ne180000]()
PUBLIC m 46c18 0 tulip::hook::HandlerMetadata::~HandlerMetadata()
PUBLIC m 46c7c 0 std::__ndk1::pair<std::__ndk1::basic_string<char, std::__ndk1::char_traits<char>, std::__ndk1::allocator<char> >, std::__ndk1::basic_string<char, std::__ndk1::char_traits<char>, std::__ndk1::allocator<char> > >::~pair()
PUBLIC 46cc0 0 std::__ndk1::basic_string<char, std::__ndk1::char_traits<char>, std::__ndk1::allocator<char> >::__throw_out_of_range[abi:ne180000]() const
PUBLIC 46cd4 0 std::__ndk1::__throw_out_of_range[abi:ne180000](char const*)
PUBLIC 46d24 0 std::out_of_range::out_of_range[abi:ne180000](char const*)
PUBLIC 46d54 0 std::__ndk1::__fs::filesystem::path::operator/=[abi:ne180000](std::__ndk1::__fs::filesystem::path const&)
PUBLIC m 46e3c 0 std::__ndk1::basic_string<char, std::__ndk1::char_traits<char>, std::__ndk1::allocator<char> >::__assign_no_alias<true>(char const*, unsigned long)
PUBLIC m 46ee8 0 std::__ndk1::basic_string<char, std::__ndk1::char_traits<char>, std::__ndk1::allocator<char> >::__assign_no_alias<false>(char const*, unsigned long)
PUBLIC 46ff8 0 std::__ndk1::__tree<std::__ndk1::__value_type<std::__ndk1::basic_string<char, std::__ndk1::char_traits<char>, std::__ndk1::allocator<char> >, std::__ndk1::shared_ptr<geode::Hook> >, std::__ndk1::__map_value_compare<std::__ndk1::basic_string<char, std::__ndk1::char_traits<char>, std::__ndk1::allocator<char> >, std::__ndk1::__value_type<std::__ndk1::basic_string<char, std::__ndk1::char_traits<char>, std::__ndk1::allocator<char> >, std::__ndk1::shared_ptr<geode::Hook> >, std::__ndk1::less<std::__ndk1::basic_string<char, std::__ndk1::char_traits<char>, std::__ndk1::allocator<char> > >, true>, std::__ndk1::allocator<std::__ndk1::__value_type<std::__ndk1::basic_string<char, std::__ndk1::char_traits<char>, std::__ndk1::allocator<char> >, std::__ndk1::shared_ptr<geode::Hook> > > >::__emplace_unique_key_args<std::__ndk1::basic_string<char, std::__ndk1::char_traits<char>, std::__ndk1::allocator<char> >, std::__ndk1::piecewise_construct_t const&, std::__ndk1::tuple<std::__ndk1::basic_string<char, std::__ndk1::char_traits<char>, std::__ndk1::allocator<char> >&&>, std::__ndk1::tuple<> >(std::__ndk1::basic_string<char, std::__ndk1::char_traits<char>, std::__ndk1::allocator<char> > const&, std::__ndk1::piecewise_construct_t const&, std::__ndk1::tuple<std::__ndk1::basic_string<char, std::__ndk1::char_traits<char>, std::__ndk1::allocator<char> >&&>, std::__ndk1::tuple<>)
PUBLIC 47170 0 std::__ndk1::__tree_balance_after_insert[abi:ne180000]<std::__ndk1::__tree_node_base<void*>*>(std::__ndk1::__tree_node_base<void*>*, std::__ndk1::__tree_node_base<void*>*)
PUBLIC m 47320 0 _ZNSt6__ndk112basic_stringIcNS_11char_traitsIcEENS_9allocatorIcEEE6appendB8ne180000IPKcTnNS_9enable_ifIXsr31__has_forward_iterator_categoryIT_EE5valueEiE4typeELi0EEERS5_SA_SA_
PUBLIC 47624 0 __cxx_global_var_init
PUBLIC 47aa4 0 geode::modifier::ModifyBase<geode::modifier::ModifyDerive<GDPSSwitchMenuLayer, MenuLayer> >::~ModifyBase()
PUBLIC 47ac0 0 geode::modifier::ModifyDerive<GDPSSwitchMenuLayer, MenuLayer>::apply()
PUBLIC 47dc8 0 geode::modifier::ModifyBase<geode::modifier::ModifyDerive<GDPSSwitchMenuLayer, MenuLayer> >::apply()
PUBLIC 47dcc 0 geode::modifier::AsStaticFunction_init<GDPSSwitchMenuLayer, bool (GDPSSwitchMenuLayer::*)()>::Impl<bool (GDPSSwitchMenuLayer::*)()>::function(GDPSSwitchMenuLayer*)
PUBLIC 48278 0 geode::addresser::Addresser::addressOfVirtual<bool, MenuLayer, >(bool (MenuLayer::*)())
PUBLIC m 48344 0 MenuLayer::MenuLayer(geode::ZeroConstructorType)
PUBLIC 483e0 0 cocos2d::CCCopying::copyWithZone(cocos2d::CCZone*)
PUBLIC 483e8 0 cocos2d::CCKeyboardDelegate::keyUp(cocos2d::enumKeyCodes)
PUBLIC 483ec 0 cocos2d::CCMouseDelegate::rightKeyDown()
PUBLIC 483f0 0 cocos2d::CCMouseDelegate::rightKeyUp()
PUBLIC 483f4 0 cocos2d::CCMouseDelegate::scrollWheel(float, float)
PUBLIC 483f8 0 GDPSSwitchMenuLayer::onGDPSSwitchButton(cocos2d::CCObject*)
PUBLIC 4884c 0 geode::Mod::getSavedValue<std::__ndk1::vector<std::__ndk1::basic_string<char, std::__ndk1::char_traits<char>, std::__ndk1::allocator<char> >, std::__ndk1::allocator<std::__ndk1::basic_string<char, std::__ndk1::char_traits<char>, std::__ndk1::allocator<char> > > > >(std::__ndk1::basic_string_view<char, std::__ndk1::char_traits<char> >)
PUBLIC m 48a30 0 geode::impl::ResultData<matjson::Value&, std::__ndk1::basic_string<char, std::__ndk1::char_traits<char>, std::__ndk1::allocator<char> > >::~ResultData()
PUBLIC m 48aa4 0 geode::impl::ResultData<std::__ndk1::vector<std::__ndk1::basic_string<char, std::__ndk1::char_traits<char>, std::__ndk1::allocator<char> >, std::__ndk1::allocator<std::__ndk1::basic_string<char, std::__ndk1::char_traits<char>, std::__ndk1::allocator<char> > > >, std::__ndk1::basic_string<char, std::__ndk1::char_traits<char>, std::__ndk1::allocator<char> > >::~ResultData()
PUBLIC m 48b18 0 _ZN7matjson9SerializeINSt6__ndk16vectorINS1_12basic_stringIcNS1_11char_traitsIcEENS1_9allocatorIcEEEENS6_IS8_EEEEE8fromJsonERKNS_5ValueEQrQSE__Xcldtfp_2asIT_EEE
PUBLIC 48e4c 0 std::__ndk1::vector<std::__ndk1::basic_string<char, std::__ndk1::char_traits<char>, std::__ndk1::allocator<char> >, std::__ndk1::allocator<std::__ndk1::basic_string<char, std::__ndk1::char_traits<char>, std::__ndk1::allocator<char> > > >::reserve(unsigned long)
PUBLIC m 48f60 0 geode::impl::ResultData<std::__ndk1::basic_string<char, std::__ndk1::char_traits<char>, std::__ndk1::allocator<char> >, std::__ndk1::basic_string<char, std::__ndk1::char_traits<char>, std::__ndk1::allocator<char> > >::~ResultData()
PUBLIC 48fd4 0 _ZN5geode15UnwrapExceptionC2IRNSt6__ndk112basic_stringIcNS2_11char_traitsIcEENS2_9allocatorIcEEEEQsr4implE18IsStringStreamableIT_EEENS_4impl6ErrTagEOSA_
PUBLIC m 4913c 0 std::__ndk1::vector<std::__ndk1::basic_string<char, std::__ndk1::char_traits<char>, std::__ndk1::allocator<char> >, std::__ndk1::allocator<std::__ndk1::basic_string<char, std::__ndk1::char_traits<char>, std::__ndk1::allocator<char> > > >::__emplace_back_slow_path<std::__ndk1::basic_string<char, std::__ndk1::char_traits<char>, std::__ndk1::allocator<char> > >(std::__ndk1::basic_string<char, std::__ndk1::char_traits<char>, std::__ndk1::allocator<char> >&&)
PUBLIC 492a4 0 std::__ndk1::__variant_detail::__visitation::__base::__dispatcher<(unsigned long)0>::__dispatch[abi:ne180000]<std::__ndk1::__variant_detail::__dtor<std::__ndk1::__variant_detail::__traits<std::__ndk1::basic_string<char, std::__ndk1::char_traits<char>, std::__ndk1::allocator<char> >, std::__ndk1::allocator<char> >, (std::__ndk1::__variant_detail::_Trait)1>::__destroy[abi:ne180000]()::{lambda(auto:1&)#1}, std::__ndk1::__variant_detail::__base<(std::__ndk1::__variant_detail::__traits<std::__ndk1::basic_string<char, std::__ndk1::char_traits<char>, std::__ndk1::allocator<char> >, std::__ndk1::allocator<char> >)1, std::__ndk1::allocator<char>, std::__ndk1::allocator<char> >&>(std::__ndk1::__variant_detail::__dtor<std::__ndk1::__variant_detail::__traits<std::__ndk1::basic_string<char, std::__ndk1::char_traits<char>, std::__ndk1::allocator<char> >, std::__ndk1::allocator<char> >, (std::__ndk1::__variant_detail::_Trait)1>, std::__ndk1::__variant_detail::__base<(std::__ndk1::__variant_detail::__traits<std::__ndk1::basic_string<char, std::__ndk1::char_traits<char>, std::__ndk1::allocator<char> >, std::__ndk1::allocator<char> >)1, std::__ndk1::allocator<char>, std::__ndk1::allocator<char> >&)
PUBLIC 492b8 0 std::__ndk1::__variant_detail::__visitation::__base::__dispatcher<(unsigned long)1>::__dispatch[abi:ne180000]<std::__ndk1::__variant_detail::__dtor<std::__ndk1::__variant_detail::__traits<std::__ndk1::basic_string<char, std::__ndk1::char_traits<char>, std::__ndk1::allocator<char> >, std::__ndk1::allocator<char> >, (std::__ndk1::__variant_detail::_Trait)1>::__destroy[abi:ne180000]()::{lambda(auto:1&)#1}, std::__ndk1::__variant_detail::__base<(std::__ndk1::__variant_detail::__traits<std::__ndk1::basic_string<char, std::__ndk1::char_traits<char>, std::__ndk1::allocator<char> >, std::__ndk1::allocator<char> >)1, std::__ndk1::allocator<char>, std::__ndk1::allocator<char> >&>(std::__ndk1::__variant_detail::__dtor<std::__ndk1::__variant_detail::__traits<std::__ndk1::basic_string<char, std::__ndk1::char_traits<char>, std::__ndk1::allocator<char> >, std::__ndk1::allocator<char> >, (std::__ndk1::__variant_detail::_Trait)1>, std::__ndk1::__variant_detail::__base<(std::__ndk1::__variant_detail::__traits<std::__ndk1::basic_string<char, std::__ndk1::char_traits<char>, std::__ndk1::allocator<char> >, std::__ndk1::allocator<char> >)1, std::__ndk1::allocator<char>, std::__ndk1::allocator<char> >&)
PUBLIC 492cc 0 std::__ndk1::__variant_detail::__visitation::__base::__dispatcher<(unsigned long)0>::__dispatch[abi:ne180000]<std::__ndk1::__variant_detail::__dtor<std::__ndk1::__variant_detail::__traits<std::__ndk1::reference_wrapper<matjson::Value>, std::__ndk1::basic_string<char, std::__ndk1::char_traits<char>, std::__ndk1::allocator<char> > >, (std::__ndk1::__variant_detail::_Trait)1>::__destroy[abi:ne180000]()::{lambda(auto:1&)#1}, std::__ndk1::__variant_detail::__base<(std::__ndk1::__variant_detail::__traits<std::__ndk1::reference_wrapper<matjson::Value>, std::__ndk1::basic_string<char, std::__ndk1::char_traits<char>, std::__ndk1::allocator<char> > >)1, matjson::Value, std::__ndk1::allocator<char> >&>(std::__ndk1::__variant_detail::__dtor<std::__ndk1::__variant_detail::__traits<std::__ndk1::reference_wrapper<matjson::Value>, std::__ndk1::basic_string<char, std::__ndk1::char_traits<char>, std::__ndk1::allocator<char> > >, (std::__ndk1::__variant_detail::_Trait)1>, std::__ndk1::__variant_detail::__base<(std::__ndk1::__variant_detail::__traits<std::__ndk1::reference_wrapper<matjson::Value>, std::__ndk1::basic_string<char, std::__ndk1::char_traits<char>, std::__ndk1::allocator<char> > >)1, matjson::Value, std::__ndk1::allocator<char> >&)
PUBLIC 492d0 0 std::__ndk1::__variant_detail::__visitation::__base::__dispatcher<(unsigned long)1>::__dispatch[abi:ne180000]<std::__ndk1::__variant_detail::__dtor<std::__ndk1::__variant_detail::__traits<std::__ndk1::reference_wrapper<matjson::Value>, std::__ndk1::basic_string<char, std::__ndk1::char_traits<char>, std::__ndk1::allocator<char> > >, (std::__ndk1::__variant_detail::_Trait)1>::__destroy[abi:ne180000]()::{lambda(auto:1&)#1}, std::__ndk1::__variant_detail::__base<(std::__ndk1::__variant_detail::__traits<std::__ndk1::reference_wrapper<matjson::Value>, std::__ndk1::basic_string<char, std::__ndk1::char_traits<char>, std::__ndk1::allocator<char> > >)1, matjson::Value, std::__ndk1::allocator<char> >&>(std::__ndk1::__variant_detail::__dtor<std::__ndk1::__variant_detail::__traits<std::__ndk1::reference_wrapper<matjson::Value>, std::__ndk1::basic_string<char, std::__ndk1::char_traits<char>, std::__ndk1::allocator<char> > >, (std::__ndk1::__variant_detail::_Trait)1>, std::__ndk1::__variant_detail::__base<(std::__ndk1::__variant_detail::__traits<std::__ndk1::reference_wrapper<matjson::Value>, std::__ndk1::basic_string<char, std::__ndk1::char_traits<char>, std::__ndk1::allocator<char> > >)1, matjson::Value, std::__ndk1::allocator<char> >&)
PUBLIC m 492e4 0 std::__ndk1::vector<std::__ndk1::basic_string<char, std::__ndk1::char_traits<char>, std::__ndk1::allocator<char> >, std::__ndk1::allocator<std::__ndk1::basic_string<char, std::__ndk1::char_traits<char>, std::__ndk1::allocator<char> > > >::__init_with_size[abi:ne180000]<std::__ndk1::basic_string<char, std::__ndk1::char_traits<char>, std::__ndk1::allocator<char> >*, std::__ndk1::vector<std::__ndk1::basic_string<char, std::__ndk1::char_traits<char>, std::__ndk1::allocator<char> >, std::__ndk1::allocator<std::__ndk1::basic_string<char, std::__ndk1::char_traits<char>, std::__ndk1::allocator<char> > > >::__init_with_size[abi:ne180000]>(std::__ndk1::basic_string<char, std::__ndk1::char_traits<char>, std::__ndk1::allocator<char> >*, std::__ndk1::vector<std::__ndk1::basic_string<char, std::__ndk1::char_traits<char>, std::__ndk1::allocator<char> >, std::__ndk1::allocator<std::__ndk1::basic_string<char, std::__ndk1::char_traits<char>, std::__ndk1::allocator<char> > > >::__init_with_size[abi:ne180000], unsigned long)
PUBLIC 49450 0 std::__ndk1::__exception_guard_exceptions<std::__ndk1::vector<std::__ndk1::basic_string<char, std::__ndk1::char_traits<char>, std::__ndk1::allocator<char> >, std::__ndk1::allocator<std::__ndk1::basic_string<char, std::__ndk1::char_traits<char>, std::__ndk1::allocator<char> > > >::__destroy_vector>::~__exception_guard_exceptions[abi:ne180000]()
PUBLIC 494dc 0 std::__ndk1::__exception_guard_exceptions<std::__ndk1::_AllocatorDestroyRangeReverse<std::__ndk1::allocator<std::__ndk1::basic_string<char, std::__ndk1::char_traits<char>, std::__ndk1::allocator<char> > >, std::__ndk1::basic_string<char, std::__ndk1::char_traits<char>, std::__ndk1::allocator<char> >*> >::~__exception_guard_exceptions[abi:ne180000]()
PUBLIC 4953c 0 std::__ndk1::__variant_detail::__visitation::__base::__dispatcher<(unsigned long)0>::__dispatch[abi:ne180000]<std::__ndk1::__variant_detail::__dtor<std::__ndk1::__variant_detail::__traits<std::__ndk1::vector<std::__ndk1::basic_string<char, std::__ndk1::char_traits<char>, std::__ndk1::allocator<char> >, std::__ndk1::char_traits<char><std::__ndk1::allocator<char> > >, std::__ndk1::allocator<char> >, (std::__ndk1::__variant_detail::_Trait)1>::__destroy[abi:ne180000]()::{lambda(auto:1&)#1}, std::__ndk1::__variant_detail::__base<(std::__ndk1::__variant_detail::__traits<std::__ndk1::vector<std::__ndk1::basic_string<char, std::__ndk1::char_traits<char>, std::__ndk1::allocator<char> >, std::__ndk1::char_traits<char><std::__ndk1::allocator<char> > >, std::__ndk1::allocator<char> >)1, std::__ndk1::char_traits<char><std::__ndk1::allocator<char> >, std::__ndk1::allocator<char> >&>(std::__ndk1::__variant_detail::__dtor<std::__ndk1::__variant_detail::__traits<std::__ndk1::vector<std::__ndk1::basic_string<char, std::__ndk1::char_traits<char>, std::__ndk1::allocator<char> >, std::__ndk1::char_traits<char><std::__ndk1::allocator<char> > >, std::__ndk1::allocator<char> >, (std::__ndk1::__variant_detail::_Trait)1>, std::__ndk1::__variant_detail::__base<(std::__ndk1::__variant_detail::__traits<std::__ndk1::vector<std::__ndk1::basic_string<char, std::__ndk1::char_traits<char>, std::__ndk1::allocator<char> >, std::__ndk1::char_traits<char><std::__ndk1::allocator<char> > >, std::__ndk1::allocator<char> >)1, std::__ndk1::char_traits<char><std::__ndk1::allocator<char> >, std::__ndk1::allocator<char> >&)
PUBLIC 495b8 0 std::__ndk1::__variant_detail::__visitation::__base::__dispatcher<(unsigned long)1>::__dispatch[abi:ne180000]<std::__ndk1::__variant_detail::__dtor<std::__ndk1::__variant_detail::__traits<std::__ndk1::vector<std::__ndk1::basic_string<char, std::__ndk1::char_traits<char>, std::__ndk1::allocator<char> >, std::__ndk1::char_traits<char><std::__ndk1::allocator<char> > >, std::__ndk1::allocator<char> >, (std::__ndk1::__variant_detail::_Trait)1>::__destroy[abi:ne180000]()::{lambda(auto:1&)#1}, std::__ndk1::__variant_detail::__base<(std::__ndk1::__variant_detail::__traits<std::__ndk1::vector<std::__ndk1::basic_string<char, std::__ndk1::char_traits<char>, std::__ndk1::allocator<char> >, std::__ndk1::char_traits<char><std::__ndk1::allocator<char> > >, std::__ndk1::allocator<char> >)1, std::__ndk1::char_traits<char><std::__ndk1::allocator<char> >, std::__ndk1::allocator<char> >&>(std::__ndk1::__variant_detail::__dtor<std::__ndk1::__variant_detail::__traits<std::__ndk1::vector<std::__ndk1::basic_string<char, std::__ndk1::char_traits<char>, std::__ndk1::allocator<char> >, std::__ndk1::char_traits<char><std::__ndk1::allocator<char> > >, std::__ndk1::allocator<char> >, (std::__ndk1::__variant_detail::_Trait)1>, std::__ndk1::__variant_detail::__base<(std::__ndk1::__variant_detail::__traits<std::__ndk1::vector<std::__ndk1::basic_string<char, std::__ndk1::char_traits<char>, std::__ndk1::allocator<char> >, std::__ndk1::char_traits<char><std::__ndk1::allocator<char> > >, std::__ndk1::allocator<char> >)1, std::__ndk1::char_traits<char><std::__ndk1::allocator<char> >, std::__ndk1::allocator<char> >&)
PUBLIC 495cc 0 std::__ndk1::__function::__base<void ()>::~__base()
PUBLIC 495d0 0 std::__ndk1::__function::__func<GDPSSwitchMenuLayer::init()::{lambda()#1}, std::__ndk1::allocator<GDPSSwitchMenuLayer::init()::{lambda()#1}>, void ()>::~__func()
PUBLIC 495d4 0 std::__ndk1::__function::__func<GDPSSwitchMenuLayer::init()::{lambda()#1}, std::__ndk1::allocator<GDPSSwitchMenuLayer::init()::{lambda()#1}>, void ()>::__clone() const
PUBLIC 49608 0 std::__ndk1::__function::__func<GDPSSwitchMenuLayer::init()::{lambda()#1}, std::__ndk1::allocator<GDPSSwitchMenuLayer::init()::{lambda()#1}>, void ()>::__clone(std::__ndk1::__function::__base<void ()>*) const
PUBLIC 4961c 0 std::__ndk1::__function::__func<GDPSSwitchMenuLayer::init()::{lambda()#1}, std::__ndk1::allocator<GDPSSwitchMenuLayer::init()::{lambda()#1}>, void ()>::destroy()
PUBLIC 49620 0 std::__ndk1::__function::__func<GDPSSwitchMenuLayer::init()::{lambda()#1}, std::__ndk1::allocator<GDPSSwitchMenuLayer::init()::{lambda()#1}>, void ()>::destroy_deallocate()
PUBLIC 49624 0 std::__ndk1::__function::__func<GDPSSwitchMenuLayer::init()::{lambda()#1}, std::__ndk1::allocator<GDPSSwitchMenuLayer::init()::{lambda()#1}>, void ()>::operator()()
PUBLIC 497a8 0 std::__ndk1::__function::__func<GDPSSwitchMenuLayer::init()::{lambda()#1}, std::__ndk1::allocator<GDPSSwitchMenuLayer::init()::{lambda()#1}>, void ()>::target(std::type_info const&) const
PUBLIC 497c4 0 std::__ndk1::__function::__func<GDPSSwitchMenuLayer::init()::{lambda()#1}, std::__ndk1::allocator<GDPSSwitchMenuLayer::init()::{lambda()#1}>, void ()>::target_type() const
PUBLIC 497d0 0 std::__ndk1::__function::__func<GDPSSwitchMenuLayer::init()::{lambda()#1}::operator()() const::{lambda(auto:1, bool)#1}, std::__ndk1::allocator<GDPSSwitchMenuLayer::init()::{lambda()#1}::operator()() const::{lambda(auto:1, bool)#1}>, void (FLAlertLayer*, bool)>::~__func()
PUBLIC 497d4 0 std::__ndk1::__function::__func<GDPSSwitchMenuLayer::init()::{lambda()#1}::operator()() const::{lambda(auto:1, bool)#1}, std::__ndk1::allocator<GDPSSwitchMenuLayer::init()::{lambda()#1}::operator()() const::{lambda(auto:1, bool)#1}>, void (FLAlertLayer*, bool)>::__clone() const
PUBLIC 49808 0 std::__ndk1::__function::__func<GDPSSwitchMenuLayer::init()::{lambda()#1}::operator()() const::{lambda(auto:1, bool)#1}, std::__ndk1::allocator<GDPSSwitchMenuLayer::init()::{lambda()#1}::operator()() const::{lambda(auto:1, bool)#1}>, void (FLAlertLayer*, bool)>::__clone(std::__ndk1::__function::__base<void (FLAlertLayer*, bool)>*) const
PUBLIC 4981c 0 std::__ndk1::__function::__func<GDPSSwitchMenuLayer::init()::{lambda()#1}::operator()() const::{lambda(auto:1, bool)#1}, std::__ndk1::allocator<GDPSSwitchMenuLayer::init()::{lambda()#1}::operator()() const::{lambda(auto:1, bool)#1}>, void (FLAlertLayer*, bool)>::destroy()
PUBLIC 49820 0 std::__ndk1::__function::__func<GDPSSwitchMenuLayer::init()::{lambda()#1}::operator()() const::{lambda(auto:1, bool)#1}, std::__ndk1::allocator<GDPSSwitchMenuLayer::init()::{lambda()#1}::operator()() const::{lambda(auto:1, bool)#1}>, void (FLAlertLayer*, bool)>::destroy_deallocate()
PUBLIC 49824 0 std::__ndk1::__function::__func<GDPSSwitchMenuLayer::init()::{lambda()#1}::operator()() const::{lambda(auto:1, bool)#1}, std::__ndk1::allocator<GDPSSwitchMenuLayer::init()::{lambda()#1}::operator()() const::{lambda(auto:1, bool)#1}>, void (FLAlertLayer*, bool)>::operator()(FLAlertLayer*&&, bool&&)
PUBLIC 49850 0 std::__ndk1::__function::__func<GDPSSwitchMenuLayer::init()::{lambda()#1}::operator()() const::{lambda(auto:1, bool)#1}, std::__ndk1::allocator<GDPSSwitchMenuLayer::init()::{lambda()#1}::operator()() const::{lambda(auto:1, bool)#1}>, void (FLAlertLayer*, bool)>::target(std::type_info const&) const
PUBLIC 4986c 0 std::__ndk1::__function::__func<GDPSSwitchMenuLayer::init()::{lambda()#1}::operator()() const::{lambda(auto:1, bool)#1}, std::__ndk1::allocator<GDPSSwitchMenuLayer::init()::{lambda()#1}::operator()() const::{lambda(auto:1, bool)#1}>, void (FLAlertLayer*, bool)>::target_type() const
PUBLIC 49878 0 RecoveryPopup::create(bool)
PUBLIC 499ec 0 geode::Popup<bool>::~Popup()
PUBLIC 49a58 0 RecoveryPopup::~RecoveryPopup()
PUBLIC 49acc 0 geode::Popup<bool>::registerWithTouchDispatcher()
PUBLIC 49af8 0 geode::Popup<bool>::keyDown(cocos2d::enumKeyCodes)
PUBLIC 49b20 0 cocos2d::CCLayerRGBA::setOpacityModifyRGB(bool)
PUBLIC 49b24 0 cocos2d::CCLayerRGBA::isOpacityModifyRGB()
PUBLIC 49b2c 0 RecoveryPopup::setup(bool)
PUBLIC 4a124 0 RecoveryPopup::onClose(cocos2d::CCObject*)
PUBLIC 4a2b4 0 {virtual override thunk({offset(-320)}, RecoveryPopup::~RecoveryPopup())}
PUBLIC 4a320 0 {virtual override thunk({offset(-320)}, RecoveryPopup::~RecoveryPopup())}
PUBLIC 4a394 0 {virtual override thunk({offset(-344)}, geode::Popup<bool>::keyDown(cocos2d::enumKeyCodes))}
PUBLIC 4a3c0 0 {virtual override thunk({offset(-408)}, cocos2d::CCLayerRGBA::setOpacityModifyRGB(bool))}
PUBLIC 4a3c4 0 {virtual override thunk({offset(-408)}, cocos2d::CCLayerRGBA::isOpacityModifyRGB())}
PUBLIC 4a3cc 0 geode::Popup<bool>::~Popup()
PUBLIC 4a3d0 0 geode::Popup<bool>::onClose(cocos2d::CCObject*)
PUBLIC 4a518 0 {virtual override thunk({offset(-320)}, geode::Popup<bool>::~Popup())}
PUBLIC 4a584 0 {virtual override thunk({offset(-320)}, geode::Popup<bool>::~Popup())}
PUBLIC 4a588 0 geode::Popup<bool>::CloseEvent::~CloseEvent()
PUBLIC 4a5e8 0 geode::Popup<bool>::CloseEvent::~CloseEvent()
PUBLIC 4a658 0 std::__ndk1::__shared_ptr_emplace<geode::Popup<bool>::CloseEvent::Impl, std::__ndk1::allocator<geode::Popup<bool>::CloseEvent::Impl> >::~__shared_ptr_emplace()
PUBLIC 4a668 0 std::__ndk1::__shared_ptr_emplace<geode::Popup<bool>::CloseEvent::Impl, std::__ndk1::allocator<geode::Popup<bool>::CloseEvent::Impl> >::~__shared_ptr_emplace()
PUBLIC 4a698 0 std::__ndk1::__shared_ptr_emplace<geode::Popup<bool>::CloseEvent::Impl, std::__ndk1::allocator<geode::Popup<bool>::CloseEvent::Impl> >::__on_zero_shared()
PUBLIC 4a69c 0 std::__ndk1::__shared_ptr_emplace<geode::Popup<bool>::CloseEvent::Impl, std::__ndk1::allocator<geode::Popup<bool>::CloseEvent::Impl> >::__on_zero_shared_weak()
PUBLIC 4a6a0 0 geode::Popup<bool>::setTitle(std::__ndk1::basic_string<char, std::__ndk1::char_traits<char>, std::__ndk1::allocator<char> > const&, char const*, float, float)
PUBLIC 4a7ec 0 RecoveryNode::init(std::__ndk1::basic_string<char, std::__ndk1::char_traits<char>, std::__ndk1::allocator<char> > const&, std::__ndk1::basic_string<char, std::__ndk1::char_traits<char>, std::__ndk1::allocator<char> > const&, bool)
PUBLIC 4ad64 0 RecoveryNode::~RecoveryNode()
PUBLIC 4ada4 0 RecoveryNode::~RecoveryNode()
PUBLIC 4ade8 0 RecoveryNode::formatFileSize(unsigned long)
PUBLIC m 4b148 0 RecoveryNode::recover(cocos2d::CCObject*)
PUBLIC m 4b2c4 0 RecoveryNode::del(cocos2d::CCObject*)
PUBLIC m 4b440 0 RecoveryNode::ignore(cocos2d::CCObject*)
PUBLIC 4b5cc 0 std::__ndk1::vector<std::__ndk1::basic_string<char, std::__ndk1::char_traits<char>, std::__ndk1::allocator<char> >, std::__ndk1::allocator<std::__ndk1::basic_string<char, std::__ndk1::char_traits<char>, std::__ndk1::allocator<char> > > >::vector[abi:ne180000](std::initializer_list<std::__ndk1::basic_string<char, std::__ndk1::char_traits<char>, std::__ndk1::allocator<char> > >)
PUBLIC 4b724 0 std::__ndk1::__function::__func<RecoveryNode::recover(cocos2d::CCObject*)::{lambda(auto:1, bool)#1}, std::__ndk1::allocator<RecoveryNode::recover(cocos2d::CCObject*)::{lambda(auto:1, bool)#1}>, void (FLAlertLayer*, bool)>::~__func()
PUBLIC 4b728 0 std::__ndk1::__function::__func<RecoveryNode::recover(cocos2d::CCObject*)::{lambda(auto:1, bool)#1}, std::__ndk1::allocator<RecoveryNode::recover(cocos2d::CCObject*)::{lambda(auto:1, bool)#1}>, void (FLAlertLayer*, bool)>::__clone() const
PUBLIC 4b75c 0 std::__ndk1::__function::__func<RecoveryNode::recover(cocos2d::CCObject*)::{lambda(auto:1, bool)#1}, std::__ndk1::allocator<RecoveryNode::recover(cocos2d::CCObject*)::{lambda(auto:1, bool)#1}>, void (FLAlertLayer*, bool)>::__clone(std::__ndk1::__function::__base<void (FLAlertLayer*, bool)>*) const
PUBLIC 4b770 0 std::__ndk1::__function::__func<RecoveryNode::recover(cocos2d::CCObject*)::{lambda(auto:1, bool)#1}, std::__ndk1::allocator<RecoveryNode::recover(cocos2d::CCObject*)::{lambda(auto:1, bool)#1}>, void (FLAlertLayer*, bool)>::destroy()
PUBLIC 4b774 0 std::__ndk1::__function::__func<RecoveryNode::recover(cocos2d::CCObject*)::{lambda(auto:1, bool)#1}, std::__ndk1::allocator<RecoveryNode::recover(cocos2d::CCObject*)::{lambda(auto:1, bool)#1}>, void (FLAlertLayer*, bool)>::destroy_deallocate()
PUBLIC 4b778 0 std::__ndk1::__function::__func<RecoveryNode::recover(cocos2d::CCObject*)::{lambda(auto:1, bool)#1}, std::__ndk1::allocator<RecoveryNode::recover(cocos2d::CCObject*)::{lambda(auto:1, bool)#1}>, void (FLAlertLayer*, bool)>::operator()(FLAlertLayer*&&, bool&&)
PUBLIC 4b788 0 std::__ndk1::__function::__func<RecoveryNode::recover(cocos2d::CCObject*)::{lambda(auto:1, bool)#1}, std::__ndk1::allocator<RecoveryNode::recover(cocos2d::CCObject*)::{lambda(auto:1, bool)#1}>, void (FLAlertLayer*, bool)>::target(std::type_info const&) const
PUBLIC 4b7a4 0 std::__ndk1::__function::__func<RecoveryNode::recover(cocos2d::CCObject*)::{lambda(auto:1, bool)#1}, std::__ndk1::allocator<RecoveryNode::recover(cocos2d::CCObject*)::{lambda(auto:1, bool)#1}>, void (FLAlertLayer*, bool)>::target_type() const
PUBLIC 4b7b0 0 RecoveryNode::recover(cocos2d::CCObject*)::{lambda(auto:1, bool)#1}::operator()<FLAlertLayer*>(FLAlertLayer*, bool) const
PUBLIC 4bcc0 0 std::__ndk1::pair<std::__ndk1::basic_string<char, std::__ndk1::char_traits<char>, std::__ndk1::allocator<char> >, std::__ndk1::basic_string<char, std::__ndk1::char_traits<char>, std::__ndk1::allocator<char> > >::operator=[abi:ne180000](std::__ndk1::pair<std::__ndk1::basic_string<char, std::__ndk1::char_traits<char>, std::__ndk1::allocator<char> >, std::__ndk1::basic_string<char, std::__ndk1::char_traits<char>, std::__ndk1::allocator<char> > > const&)
PUBLIC 4bdcc 0 std::__ndk1::list<std::__ndk1::pair<std::__ndk1::basic_string<char, std::__ndk1::char_traits<char>, std::__ndk1::allocator<char> >, std::__ndk1::basic_string<char, std::__ndk1::char_traits<char>, std::__ndk1::allocator<char> > >, std::__ndk1::allocator<std::__ndk1::pair<std::__ndk1::basic_string<char, std::__ndk1::char_traits<char>, std::__ndk1::allocator<char> >, std::__ndk1::basic_string<char, std::__ndk1::char_traits<char>, std::__ndk1::allocator<char> > > > >::remove(std::__ndk1::pair<std::__ndk1::basic_string<char, std::__ndk1::char_traits<char>, std::__ndk1::allocator<char> >, std::__ndk1::basic_string<char, std::__ndk1::char_traits<char>, std::__ndk1::allocator<char> > > const&)
PUBLIC 4c0ac 0 geode::Mod::setSavedValue<std::__ndk1::vector<std::__ndk1::basic_string<char, std::__ndk1::char_traits<char>, std::__ndk1::allocator<char> >, std::__ndk1::allocator<std::__ndk1::basic_string<char, std::__ndk1::char_traits<char>, std::__ndk1::allocator<char> > > > >(std::__ndk1::basic_string_view<char, std::__ndk1::char_traits<char> >, std::__ndk1::vector<std::__ndk1::basic_string<char, std::__ndk1::char_traits<char>, std::__ndk1::allocator<char> >, std::__ndk1::allocator<std::__ndk1::basic_string<char, std::__ndk1::char_traits<char>, std::__ndk1::allocator<char> > > > const&)
PUBLIC 4c1a8 0 std::__ndk1::operator==[abi:ne180000]<std::__ndk1::basic_string<char, std::__ndk1::char_traits<char>, std::__ndk1::allocator<char> >, std::__ndk1::allocator<char>, std::__ndk1::allocator<char>, std::__ndk1::allocator<char> >(std::__ndk1::pair<std::__ndk1::basic_string<char, std::__ndk1::char_traits<char>, std::__ndk1::allocator<char> >, std::__ndk1::allocator<char> > const&, std::__ndk1::basic_string<char, std::__ndk1::char_traits<char>, std::__ndk1::allocator<char> > const<std::__ndk1::allocator<char>, std::__ndk1::allocator<char> >&)
PUBLIC 4c318 0 _ZN7matjson9SerializeINSt6__ndk16vectorINS1_12basic_stringIcNS1_11char_traitsIcEENS1_9allocatorIcEEEENS6_IS8_EEEEE6toJsonERKSA_QrQRKT__XcvNS_5ValueEfp_E
PUBLIC 4c464 0 std::__ndk1::vector<matjson::Value, std::__ndk1::allocator<matjson::Value> >::reserve(unsigned long)
PUBLIC 4c544 0 _ZNSt6__ndk19transformB8ne180000INS_11__wrap_iterIPKNS_12basic_stringIcNS_11char_traitsIcEENS_9allocatorIcEEEEEENS_20back_insert_iteratorINS_6vectorIN7matjson5ValueENS5_ISE_EEEEEEZNSD_9SerializeINSC_IS7_NS5_IS7_EEEEE6toJsonERKSK_QrQRKT__XcvSE_fL0p_EEUlRS8_E_EET0_SO_SO_ST_T1_
PUBLIC 4c674 0 std::__ndk1::vector<matjson::Value, std::__ndk1::allocator<matjson::Value> >::~vector[abi:ne180000]()
PUBLIC 4c6dc 0 std::__ndk1::vector<matjson::Value, std::__ndk1::allocator<matjson::Value> >::__throw_length_error[abi:ne180000]() const
PUBLIC m 4c6f0 0 std::__ndk1::vector<matjson::Value, std::__ndk1::allocator<matjson::Value> >::__push_back_slow_path<matjson::Value>(matjson::Value&&)
PUBLIC 4c80c 0 std::__ndk1::__function::__func<RecoveryNode::del(cocos2d::CCObject*)::{lambda(auto:1, bool)#1}, std::__ndk1::allocator<RecoveryNode::del(cocos2d::CCObject*)::{lambda(auto:1, bool)#1}>, void (FLAlertLayer*, bool)>::~__func()
PUBLIC 4c810 0 std::__ndk1::__function::__func<RecoveryNode::del(cocos2d::CCObject*)::{lambda(auto:1, bool)#1}, std::__ndk1::allocator<RecoveryNode::del(cocos2d::CCObject*)::{lambda(auto:1, bool)#1}>, void (FLAlertLayer*, bool)>::__clone() const
PUBLIC 4c844 0 std::__ndk1::__function::__func<RecoveryNode::del(cocos2d::CCObject*)::{lambda(auto:1, bool)#1}, std::__ndk1::allocator<RecoveryNode::del(cocos2d::CCObject*)::{lambda(auto:1, bool)#1}>, void (FLAlertLayer*, bool)>::__clone(std::__ndk1::__function::__base<void (FLAlertLayer*, bool)>*) const
PUBLIC 4c858 0 std::__ndk1::__function::__func<RecoveryNode::del(cocos2d::CCObject*)::{lambda(auto:1, bool)#1}, std::__ndk1::allocator<RecoveryNode::del(cocos2d::CCObject*)::{lambda(auto:1, bool)#1}>, void (FLAlertLayer*, bool)>::destroy()
PUBLIC 4c85c 0 std::__ndk1::__function::__func<RecoveryNode::del(cocos2d::CCObject*)::{lambda(auto:1, bool)#1}, std::__ndk1::allocator<RecoveryNode::del(cocos2d::CCObject*)::{lambda(auto:1, bool)#1}>, void (FLAlertLayer*, bool)>::destroy_deallocate()
PUBLIC 4c860 0 std::__ndk1::__function::__func<RecoveryNode::del(cocos2d::CCObject*)::{lambda(auto:1, bool)#1}, std::__ndk1::allocator<RecoveryNode::del(cocos2d::CCObject*)::{lambda(auto:1, bool)#1}>, void (FLAlertLayer*, bool)>::operator()(FLAlertLayer*&&, bool&&)
PUBLIC 4c870 0 std::__ndk1::__function::__func<RecoveryNode::del(cocos2d::CCObject*)::{lambda(auto:1, bool)#1}, std::__ndk1::allocator<RecoveryNode::del(cocos2d::CCObject*)::{lambda(auto:1, bool)#1}>, void (FLAlertLayer*, bool)>::target(std::type_info const&) const
PUBLIC 4c88c 0 std::__ndk1::__function::__func<RecoveryNode::del(cocos2d::CCObject*)::{lambda(auto:1, bool)#1}, std::__ndk1::allocator<RecoveryNode::del(cocos2d::CCObject*)::{lambda(auto:1, bool)#1}>, void (FLAlertLayer*, bool)>::target_type() const
PUBLIC 4c898 0 RecoveryNode::del(cocos2d::CCObject*)::{lambda(auto:1, bool)#1}::operator()<FLAlertLayer*>(FLAlertLayer*, bool) const
PUBLIC 4cf24 0 std::__ndk1::__function::__func<RecoveryNode::ignore(cocos2d::CCObject*)::{lambda(auto:1, bool)#1}, std::__ndk1::allocator<RecoveryNode::ignore(cocos2d::CCObject*)::{lambda(auto:1, bool)#1}>, void (FLAlertLayer*, bool)>::~__func()
PUBLIC 4cf28 0 std::__ndk1::__function::__func<RecoveryNode::ignore(cocos2d::CCObject*)::{lambda(auto:1, bool)#1}, std::__ndk1::allocator<RecoveryNode::ignore(cocos2d::CCObject*)::{lambda(auto:1, bool)#1}>, void (FLAlertLayer*, bool)>::__clone() const
PUBLIC 4cf5c 0 std::__ndk1::__function::__func<RecoveryNode::ignore(cocos2d::CCObject*)::{lambda(auto:1, bool)#1}, std::__ndk1::allocator<RecoveryNode::ignore(cocos2d::CCObject*)::{lambda(auto:1, bool)#1}>, void (FLAlertLayer*, bool)>::__clone(std::__ndk1::__function::__base<void (FLAlertLayer*, bool)>*) const
PUBLIC 4cf70 0 std::__ndk1::__function::__func<RecoveryNode::ignore(cocos2d::CCObject*)::{lambda(auto:1, bool)#1}, std::__ndk1::allocator<RecoveryNode::ignore(cocos2d::CCObject*)::{lambda(auto:1, bool)#1}>, void (FLAlertLayer*, bool)>::destroy()
PUBLIC 4cf74 0 std::__ndk1::__function::__func<RecoveryNode::ignore(cocos2d::CCObject*)::{lambda(auto:1, bool)#1}, std::__ndk1::allocator<RecoveryNode::ignore(cocos2d::CCObject*)::{lambda(auto:1, bool)#1}>, void (FLAlertLayer*, bool)>::destroy_deallocate()
PUBLIC 4cf78 0 std::__ndk1::__function::__func<RecoveryNode::ignore(cocos2d::CCObject*)::{lambda(auto:1, bool)#1}, std::__ndk1::allocator<RecoveryNode::ignore(cocos2d::CCObject*)::{lambda(auto:1, bool)#1}>, void (FLAlertLayer*, bool)>::operator()(FLAlertLayer*&&, bool&&)
PUBLIC 4cf88 0 std::__ndk1::__function::__func<RecoveryNode::ignore(cocos2d::CCObject*)::{lambda(auto:1, bool)#1}, std::__ndk1::allocator<RecoveryNode::ignore(cocos2d::CCObject*)::{lambda(auto:1, bool)#1}>, void (FLAlertLayer*, bool)>::target(std::type_info const&) const
PUBLIC 4cfa4 0 std::__ndk1::__function::__func<RecoveryNode::ignore(cocos2d::CCObject*)::{lambda(auto:1, bool)#1}, std::__ndk1::allocator<RecoveryNode::ignore(cocos2d::CCObject*)::{lambda(auto:1, bool)#1}>, void (FLAlertLayer*, bool)>::target_type() const
PUBLIC 4cfb0 0 RecoveryNode::ignore(cocos2d::CCObject*)::{lambda(auto:1, bool)#1}::operator()<FLAlertLayer*>(FLAlertLayer*, bool) const
PUBLIC 4d1c4 0 std::__ndk1::__function::__base<void (FLAlertLayer*, bool)>::~__base()
PUBLIC 4d1c8 0 std::__ndk1::__function::__func<RecoveryPopup::onClose(cocos2d::CCObject*)::{lambda(auto:1, bool)#1}, std::__ndk1::allocator<RecoveryPopup::onClose(cocos2d::CCObject*)::{lambda(auto:1, bool)#1}>, void (FLAlertLayer*, bool)>::~__func()
PUBLIC 4d1cc 0 std::__ndk1::__function::__func<RecoveryPopup::onClose(cocos2d::CCObject*)::{lambda(auto:1, bool)#1}, std::__ndk1::allocator<RecoveryPopup::onClose(cocos2d::CCObject*)::{lambda(auto:1, bool)#1}>, void (FLAlertLayer*, bool)>::__clone() const
PUBLIC 4d1f0 0 std::__ndk1::__function::__func<RecoveryPopup::onClose(cocos2d::CCObject*)::{lambda(auto:1, bool)#1}, std::__ndk1::allocator<RecoveryPopup::onClose(cocos2d::CCObject*)::{lambda(auto:1, bool)#1}>, void (FLAlertLayer*, bool)>::__clone(std::__ndk1::__function::__base<void (FLAlertLayer*, bool)>*) const
PUBLIC 4d200 0 std::__ndk1::__function::__func<RecoveryPopup::onClose(cocos2d::CCObject*)::{lambda(auto:1, bool)#1}, std::__ndk1::allocator<RecoveryPopup::onClose(cocos2d::CCObject*)::{lambda(auto:1, bool)#1}>, void (FLAlertLayer*, bool)>::destroy()
PUBLIC 4d204 0 std::__ndk1::__function::__func<RecoveryPopup::onClose(cocos2d::CCObject*)::{lambda(auto:1, bool)#1}, std::__ndk1::allocator<RecoveryPopup::onClose(cocos2d::CCObject*)::{lambda(auto:1, bool)#1}>, void (FLAlertLayer*, bool)>::destroy_deallocate()
PUBLIC 4d208 0 std::__ndk1::__function::__func<RecoveryPopup::onClose(cocos2d::CCObject*)::{lambda(auto:1, bool)#1}, std::__ndk1::allocator<RecoveryPopup::onClose(cocos2d::CCObject*)::{lambda(auto:1, bool)#1}>, void (FLAlertLayer*, bool)>::operator()(FLAlertLayer*&&, bool&&)
PUBLIC 4d218 0 std::__ndk1::__function::__func<RecoveryPopup::onClose(cocos2d::CCObject*)::{lambda(auto:1, bool)#1}, std::__ndk1::allocator<RecoveryPopup::onClose(cocos2d::CCObject*)::{lambda(auto:1, bool)#1}>, void (FLAlertLayer*, bool)>::target(std::type_info const&) const
PUBLIC 4d234 0 std::__ndk1::__function::__func<RecoveryPopup::onClose(cocos2d::CCObject*)::{lambda(auto:1, bool)#1}, std::__ndk1::allocator<RecoveryPopup::onClose(cocos2d::CCObject*)::{lambda(auto:1, bool)#1}>, void (FLAlertLayer*, bool)>::target_type() const
PUBLIC 4d240 0 geode::Popup<bool>::initBase(float, float, bool, char const*, cocos2d::CCRect, bool)
PUBLIC m 4d554 0 ServerNode::create(ServerSwitchLayer*, ServerSwitchLayer::ServerEntry, cocos2d::CCSize, bool)
PUBLIC m 4d704 0 ServerNode::init(ServerSwitchLayer*, ServerSwitchLayer::ServerEntry, cocos2d::CCSize, bool)
PUBLIC 4dd30 0 ServerSwitchLayer::ServerEntry::~ServerEntry()
PUBLIC m 4dd74 0 ServerNode::editServer(cocos2d::CCObject*)
PUBLIC m 4dd98 0 ServerNode::deleteServer(cocos2d::CCObject*)
PUBLIC m 4df08 0 ServerNode::selectServer(cocos2d::CCObject*)
PUBLIC m 4df14 0 ServerNode::preventDelete()
PUBLIC 4df54 0 ServerPopup::create(ServerSwitchLayer*, ServerNode*)
PUBLIC m 4e0d0 0 ServerNode::getServer()
PUBLIC 4e16c 0 ServerNode::~ServerNode()
PUBLIC 4e1d0 0 ServerNode::~ServerNode()
PUBLIC 4e244 0 geode::Popup<ServerSwitchLayer*, ServerNode*>::~Popup()
PUBLIC 4e2b0 0 ServerPopup::~ServerPopup()
PUBLIC 4e324 0 geode::Popup<ServerSwitchLayer*, ServerNode*>::registerWithTouchDispatcher()
PUBLIC 4e350 0 geode::Popup<ServerSwitchLayer*, ServerNode*>::keyDown(cocos2d::enumKeyCodes)
PUBLIC 4e378 0 ServerPopup::setup(ServerSwitchLayer*, ServerNode*)
PUBLIC 4ed34 0 ServerPopup::onClose(cocos2d::CCObject*)
PUBLIC 4f308 0 {virtual override thunk({offset(-320)}, ServerPopup::~ServerPopup())}
PUBLIC 4f374 0 {virtual override thunk({offset(-320)}, ServerPopup::~ServerPopup())}
PUBLIC 4f3e8 0 {virtual override thunk({offset(-344)}, geode::Popup<ServerSwitchLayer*, ServerNode*>::keyDown(cocos2d::enumKeyCodes))}
PUBLIC 4f414 0 geode::Popup<ServerSwitchLayer*, ServerNode*>::~Popup()
PUBLIC 4f418 0 geode::Popup<ServerSwitchLayer*, ServerNode*>::onClose(cocos2d::CCObject*)
PUBLIC 4f560 0 {virtual override thunk({offset(-320)}, geode::Popup<ServerSwitchLayer*, ServerNode*>::~Popup())}
PUBLIC 4f5cc 0 {virtual override thunk({offset(-320)}, geode::Popup<ServerSwitchLayer*, ServerNode*>::~Popup())}
PUBLIC 4f5d0 0 geode::Popup<ServerSwitchLayer*, ServerNode*>::CloseEvent::~CloseEvent()
PUBLIC 4f630 0 geode::Popup<ServerSwitchLayer*, ServerNode*>::CloseEvent::~CloseEvent()
PUBLIC 4f6a0 0 std::__ndk1::__shared_ptr_emplace<geode::Popup<ServerSwitchLayer*, ServerNode*>::CloseEvent::Impl, std::__ndk1::allocator<geode::Popup<ServerSwitchLayer*, ServerNode*>::CloseEvent::Impl> >::~__shared_ptr_emplace()
PUBLIC 4f6b0 0 std::__ndk1::__shared_ptr_emplace<geode::Popup<ServerSwitchLayer*, ServerNode*>::CloseEvent::Impl, std::__ndk1::allocator<geode::Popup<ServerSwitchLayer*, ServerNode*>::CloseEvent::Impl> >::~__shared_ptr_emplace()
PUBLIC 4f6e0 0 std::__ndk1::__shared_ptr_emplace<geode::Popup<ServerSwitchLayer*, ServerNode*>::CloseEvent::Impl, std::__ndk1::allocator<geode::Popup<ServerSwitchLayer*, ServerNode*>::CloseEvent::Impl> >::__on_zero_shared()
PUBLIC 4f6e4 0 std::__ndk1::__shared_ptr_emplace<geode::Popup<ServerSwitchLayer*, ServerNode*>::CloseEvent::Impl, std::__ndk1::allocator<geode::Popup<ServerSwitchLayer*, ServerNode*>::CloseEvent::Impl> >::__on_zero_shared_weak()
PUBLIC 4f6e8 0 geode::Popup<ServerSwitchLayer*, ServerNode*>::setTitle(std::__ndk1::basic_string<char, std::__ndk1::char_traits<char>, std::__ndk1::allocator<char> > const&, char const*, float, float)
PUBLIC m 4f834 0 ServerPopup::onSave(cocos2d::CCObject*)
PUBLIC 4ff50 0 geode::Mod::getSavedValue<std::__ndk1::vector<ServerSwitchLayer::ServerEntry, std::__ndk1::allocator<ServerSwitchLayer::ServerEntry> > >(std::__ndk1::basic_string_view<char, std::__ndk1::char_traits<char> >)
PUBLIC 501c4 0 geode::Mod::setSavedValue<std::__ndk1::vector<ServerSwitchLayer::ServerEntry, std::__ndk1::allocator<ServerSwitchLayer::ServerEntry> > >(std::__ndk1::basic_string_view<char, std::__ndk1::char_traits<char> >, std::__ndk1::vector<ServerSwitchLayer::ServerEntry, std::__ndk1::allocator<ServerSwitchLayer::ServerEntry> > const&)
PUBLIC 502c0 0 std::__ndk1::vector<ServerSwitchLayer::ServerEntry, std::__ndk1::allocator<ServerSwitchLayer::ServerEntry> >::~vector[abi:ne180000]()
PUBLIC 50364 0 geode::impl::ResultData<std::__ndk1::vector<ServerSwitchLayer::ServerEntry, std::__ndk1::allocator<ServerSwitchLayer::ServerEntry> >, std::__ndk1::basic_string<char, std::__ndk1::char_traits<char>, std::__ndk1::allocator<char> > >::~ResultData()
PUBLIC 503d8 0 _ZN7matjson9SerializeINSt6__ndk16vectorIN17ServerSwitchLayer11ServerEntryENS1_9allocatorIS4_EEEEE8fromJsonERKNS_5ValueEQrQSB__Xcldtfp_2asIT_EEE
PUBLIC 5080c 0 std::__ndk1::vector<ServerSwitchLayer::ServerEntry, std::__ndk1::allocator<ServerSwitchLayer::ServerEntry> >::reserve(unsigned long)
PUBLIC 50950 0 geode::impl::ResultData<ServerSwitchLayer::ServerEntry, std::__ndk1::basic_string<char, std::__ndk1::char_traits<char>, std::__ndk1::allocator<char> > >::~ResultData()
PUBLIC 509c4 0 std::__ndk1::vector<ServerSwitchLayer::ServerEntry, std::__ndk1::allocator<ServerSwitchLayer::ServerEntry> >::__throw_length_error[abi:ne180000]() const
PUBLIC 509d8 0 matjson::Serialize<ServerSwitchLayer::ServerEntry>::fromJson(matjson::Value const&)
PUBLIC 50be0 0 std::__ndk1::vector<ServerSwitchLayer::ServerEntry, std::__ndk1::allocator<ServerSwitchLayer::ServerEntry> >::__emplace_back_slow_path<ServerSwitchLayer::ServerEntry>(ServerSwitchLayer::ServerEntry&&)
PUBLIC 50d8c 0 std::__ndk1::__variant_detail::__visitation::__base::__dispatcher<(unsigned long)0>::__dispatch[abi:ne180000]<std::__ndk1::__variant_detail::__dtor<std::__ndk1::__variant_detail::__traits<ServerSwitchLayer::ServerEntry, std::__ndk1::basic_string<char, std::__ndk1::char_traits<char>, std::__ndk1::allocator<char> > >, (std::__ndk1::__variant_detail::_Trait)1>::__destroy[abi:ne180000]()::{lambda(auto:1&)#1}, std::__ndk1::__variant_detail::__base<(std::__ndk1::__variant_detail::__traits<ServerSwitchLayer::ServerEntry, std::__ndk1::basic_string<char, std::__ndk1::char_traits<char>, std::__ndk1::allocator<char> > >)1, ServerSwitchLayer, std::__ndk1::allocator<char> >&>(std::__ndk1::__variant_detail::__dtor<std::__ndk1::__variant_detail::__traits<ServerSwitchLayer::ServerEntry, std::__ndk1::basic_string<char, std::__ndk1::char_traits<char>, std::__ndk1::allocator<char> > >, (std::__ndk1::__variant_detail::_Trait)1>, std::__ndk1::__variant_detail::__base<(std::__ndk1::__variant_detail::__traits<ServerSwitchLayer::ServerEntry, std::__ndk1::basic_string<char, std::__ndk1::char_traits<char>, std::__ndk1::allocator<char> > >)1, ServerSwitchLayer, std::__ndk1::allocator<char> >&)
PUBLIC 50dd0 0 std::__ndk1::__variant_detail::__visitation::__base::__dispatcher<(unsigned long)1>::__dispatch[abi:ne180000]<std::__ndk1::__variant_detail::__dtor<std::__ndk1::__variant_detail::__traits<ServerSwitchLayer::ServerEntry, std::__ndk1::basic_string<char, std::__ndk1::char_traits<char>, std::__ndk1::allocator<char> > >, (std::__ndk1::__variant_detail::_Trait)1>::__destroy[abi:ne180000]()::{lambda(auto:1&)#1}, std::__ndk1::__variant_detail::__base<(std::__ndk1::__variant_detail::__traits<ServerSwitchLayer::ServerEntry, std::__ndk1::basic_string<char, std::__ndk1::char_traits<char>, std::__ndk1::allocator<char> > >)1, ServerSwitchLayer, std::__ndk1::allocator<char> >&>(std::__ndk1::__variant_detail::__dtor<std::__ndk1::__variant_detail::__traits<ServerSwitchLayer::ServerEntry, std::__ndk1::basic_string<char, std::__ndk1::char_traits<char>, std::__ndk1::allocator<char> > >, (std::__ndk1::__variant_detail::_Trait)1>, std::__ndk1::__variant_detail::__base<(std::__ndk1::__variant_detail::__traits<ServerSwitchLayer::ServerEntry, std::__ndk1::basic_string<char, std::__ndk1::char_traits<char>, std::__ndk1::allocator<char> > >)1, ServerSwitchLayer, std::__ndk1::allocator<char> >&)
PUBLIC 50de4 0 std::__ndk1::__exception_guard_exceptions<std::__ndk1::vector<ServerSwitchLayer::ServerEntry, std::__ndk1::allocator<ServerSwitchLayer::ServerEntry> >::__destroy_vector>::~__exception_guard_exceptions[abi:ne180000]()
PUBLIC 50e98 0 std::__ndk1::__uninitialized_allocator_copy_impl[abi:ne180000]<std::__ndk1::allocator<ServerSwitchLayer::ServerEntry>, ServerSwitchLayer*, std::__ndk1::allocator<ServerSwitchLayer::ServerEntry>, std::__ndk1::allocator<ServerSwitchLayer::ServerEntry> >(std::__ndk1::allocator<ServerSwitchLayer::ServerEntry>&, ServerSwitchLayer*, std::__ndk1::allocator<ServerSwitchLayer::ServerEntry>, ServerSwitchLayer*)
PUBLIC 50fbc 0 std::__ndk1::__exception_guard_exceptions<std::__ndk1::_AllocatorDestroyRangeReverse<std::__ndk1::allocator<ServerSwitchLayer::ServerEntry>, ServerSwitchLayer::ServerEntry*> >::~__exception_guard_exceptions[abi:ne180000]()
PUBLIC 51020 0 std::__ndk1::__variant_detail::__visitation::__base::__dispatcher<(unsigned long)0>::__dispatch[abi:ne180000]<std::__ndk1::__variant_detail::__dtor<std::__ndk1::__variant_detail::__traits<std::__ndk1::vector<ServerSwitchLayer::ServerEntry, std::__ndk1::allocator<ServerSwitchLayer> >, std::__ndk1::basic_string<char, std::__ndk1::char_traits<char>, ServerSwitchLayer::ServerEntry<char> > >, (std::__ndk1::__variant_detail::_Trait)1>::__destroy[abi:ne180000]()::{lambda(auto:1&)#1}, std::__ndk1::__variant_detail::__base<(std::__ndk1::__variant_detail::__traits<std::__ndk1::vector<ServerSwitchLayer::ServerEntry, std::__ndk1::allocator<ServerSwitchLayer> >, std::__ndk1::basic_string<char, std::__ndk1::char_traits<char>, ServerSwitchLayer::ServerEntry<char> > >)1, std::__ndk1::allocator<ServerSwitchLayer>, ServerSwitchLayer::ServerEntry<char> >&>(std::__ndk1::__variant_detail::__dtor<std::__ndk1::__variant_detail::__traits<std::__ndk1::vector<ServerSwitchLayer::ServerEntry, std::__ndk1::allocator<ServerSwitchLayer> >, std::__ndk1::basic_string<char, std::__ndk1::char_traits<char>, ServerSwitchLayer::ServerEntry<char> > >, (std::__ndk1::__variant_detail::_Trait)1>, std::__ndk1::__variant_detail::__base<(std::__ndk1::__variant_detail::__traits<std::__ndk1::vector<ServerSwitchLayer::ServerEntry, std::__ndk1::allocator<ServerSwitchLayer> >, std::__ndk1::basic_string<char, std::__ndk1::char_traits<char>, ServerSwitchLayer::ServerEntry<char> > >)1, std::__ndk1::allocator<ServerSwitchLayer>, ServerSwitchLayer::ServerEntry<char> >&)
PUBLIC 510c4 0 std::__ndk1::__variant_detail::__visitation::__base::__dispatcher<(unsigned long)1>::__dispatch[abi:ne180000]<std::__ndk1::__variant_detail::__dtor<std::__ndk1::__variant_detail::__traits<std::__ndk1::vector<ServerSwitchLayer::ServerEntry, std::__ndk1::allocator<ServerSwitchLayer> >, std::__ndk1::basic_string<char, std::__ndk1::char_traits<char>, ServerSwitchLayer::ServerEntry<char> > >, (std::__ndk1::__variant_detail::_Trait)1>::__destroy[abi:ne180000]()::{lambda(auto:1&)#1}, std::__ndk1::__variant_detail::__base<(std::__ndk1::__variant_detail::__traits<std::__ndk1::vector<ServerSwitchLayer::ServerEntry, std::__ndk1::allocator<ServerSwitchLayer> >, std::__ndk1::basic_string<char, std::__ndk1::char_traits<char>, ServerSwitchLayer::ServerEntry<char> > >)1, std::__ndk1::allocator<ServerSwitchLayer>, ServerSwitchLayer::ServerEntry<char> >&>(std::__ndk1::__variant_detail::__dtor<std::__ndk1::__variant_detail::__traits<std::__ndk1::vector<ServerSwitchLayer::ServerEntry, std::__ndk1::allocator<ServerSwitchLayer> >, std::__ndk1::basic_string<char, std::__ndk1::char_traits<char>, ServerSwitchLayer::ServerEntry<char> > >, (std::__ndk1::__variant_detail::_Trait)1>, std::__ndk1::__variant_detail::__base<(std::__ndk1::__variant_detail::__traits<std::__ndk1::vector<ServerSwitchLayer::ServerEntry, std::__ndk1::allocator<ServerSwitchLayer> >, std::__ndk1::basic_string<char, std::__ndk1::char_traits<char>, ServerSwitchLayer::ServerEntry<char> > >)1, std::__ndk1::allocator<ServerSwitchLayer>, ServerSwitchLayer::ServerEntry<char> >&)
PUBLIC 510d8 0 std::__ndk1::vector<ServerSwitchLayer::ServerEntry, std::__ndk1::allocator<ServerSwitchLayer::ServerEntry> >::__push_back_slow_path<ServerSwitchLayer::ServerEntry>(ServerSwitchLayer::ServerEntry&&)
PUBLIC 51284 0 _ZN7matjson9SerializeINSt6__ndk16vectorIN17ServerSwitchLayer11ServerEntryENS1_9allocatorIS4_EEEEE6toJsonERKS7_QrQRKT__XcvNS_5ValueEfp_E
PUBLIC 5144c 0 std::__ndk1::__split_buffer<matjson::Value, std::__ndk1::allocator<matjson::Value>&>::~__split_buffer()
PUBLIC 514a0 0 matjson::Serialize<ServerSwitchLayer::ServerEntry>::toJson(ServerSwitchLayer::ServerEntry const&)
PUBLIC m 515c0 0 matjson::makeObject(std::initializer_list<std::__ndk1::pair<std::__ndk1::basic_string<char, std::__ndk1::char_traits<char>, std::__ndk1::allocator<char> >, matjson::Value> >)
PUBLIC 51774 0 _ZNSt6__ndk14pairINS_12basic_stringIcNS_11char_traitsIcEENS_9allocatorIcEEEEN7matjson5ValueEEC2B8ne180000IRA5_KcRKS6_TnNS_9enable_ifIXclsr10_CheckArgsE17__enable_implicitIT_T0_EEEiE4typeELi0EEEOSH_OSI_
PUBLIC 51900 0 _ZNSt6__ndk14pairINS_12basic_stringIcNS_11char_traitsIcEENS_9allocatorIcEEEEN7matjson5ValueEEC2B8ne180000IRA4_KcRKS6_TnNS_9enable_ifIXclsr10_CheckArgsE17__enable_implicitIT_T0_EEEiE4typeELi0EEEOSH_OSI_
PUBLIC m 51a8c 0 std::__ndk1::pair<std::__ndk1::basic_string<char, std::__ndk1::char_traits<char>, std::__ndk1::allocator<char> >, matjson::Value>::~pair()
PUBLIC m 51ac8 0 std::__ndk1::vector<matjson::Value, std::__ndk1::allocator<matjson::Value> >::__emplace_back_slow_path<matjson::Value const&>(matjson::Value const&)
PUBLIC 51c6c 0 std::__ndk1::__function::__func<ServerPopup::onClose(cocos2d::CCObject*)::{lambda(auto:1, bool)#1}, std::__ndk1::allocator<ServerPopup::onClose(cocos2d::CCObject*)::{lambda(auto:1, bool)#1}>, void (FLAlertLayer*, bool)>::~__func()
PUBLIC 51c70 0 std::__ndk1::__function::__func<ServerPopup::onClose(cocos2d::CCObject*)::{lambda(auto:1, bool)#1}, std::__ndk1::allocator<ServerPopup::onClose(cocos2d::CCObject*)::{lambda(auto:1, bool)#1}>, void (FLAlertLayer*, bool)>::__clone() const
PUBLIC 51ca4 0 std::__ndk1::__function::__func<ServerPopup::onClose(cocos2d::CCObject*)::{lambda(auto:1, bool)#1}, std::__ndk1::allocator<ServerPopup::onClose(cocos2d::CCObject*)::{lambda(auto:1, bool)#1}>, void (FLAlertLayer*, bool)>::__clone(std::__ndk1::__function::__base<void (FLAlertLayer*, bool)>*) const
PUBLIC 51cb8 0 std::__ndk1::__function::__func<ServerPopup::onClose(cocos2d::CCObject*)::{lambda(auto:1, bool)#1}, std::__ndk1::allocator<ServerPopup::onClose(cocos2d::CCObject*)::{lambda(auto:1, bool)#1}>, void (FLAlertLayer*, bool)>::destroy()
PUBLIC 51cbc 0 std::__ndk1::__function::__func<ServerPopup::onClose(cocos2d::CCObject*)::{lambda(auto:1, bool)#1}, std::__ndk1::allocator<ServerPopup::onClose(cocos2d::CCObject*)::{lambda(auto:1, bool)#1}>, void (FLAlertLayer*, bool)>::destroy_deallocate()
PUBLIC 51cc0 0 std::__ndk1::__function::__func<ServerPopup::onClose(cocos2d::CCObject*)::{lambda(auto:1, bool)#1}, std::__ndk1::allocator<ServerPopup::onClose(cocos2d::CCObject*)::{lambda(auto:1, bool)#1}>, void (FLAlertLayer*, bool)>::operator()(FLAlertLayer*&&, bool&&)
PUBLIC 51d20 0 std::__ndk1::__function::__func<ServerPopup::onClose(cocos2d::CCObject*)::{lambda(auto:1, bool)#1}, std::__ndk1::allocator<ServerPopup::onClose(cocos2d::CCObject*)::{lambda(auto:1, bool)#1}>, void (FLAlertLayer*, bool)>::target(std::type_info const&) const
PUBLIC 51d3c 0 std::__ndk1::__function::__func<ServerPopup::onClose(cocos2d::CCObject*)::{lambda(auto:1, bool)#1}, std::__ndk1::allocator<ServerPopup::onClose(cocos2d::CCObject*)::{lambda(auto:1, bool)#1}>, void (FLAlertLayer*, bool)>::target_type() const
PUBLIC 51d48 0 std::__ndk1::__function::__func<ServerPopup::onClose(cocos2d::CCObject*)::{lambda(auto:1, bool)#2}, std::__ndk1::allocator<ServerPopup::onClose(cocos2d::CCObject*)::{lambda(auto:1, bool)#2}>, void (FLAlertLayer*, bool)>::~__func()
PUBLIC 51d4c 0 std::__ndk1::__function::__func<ServerPopup::onClose(cocos2d::CCObject*)::{lambda(auto:1, bool)#2}, std::__ndk1::allocator<ServerPopup::onClose(cocos2d::CCObject*)::{lambda(auto:1, bool)#2}>, void (FLAlertLayer*, bool)>::__clone() const
PUBLIC 51d80 0 std::__ndk1::__function::__func<ServerPopup::onClose(cocos2d::CCObject*)::{lambda(auto:1, bool)#2}, std::__ndk1::allocator<ServerPopup::onClose(cocos2d::CCObject*)::{lambda(auto:1, bool)#2}>, void (FLAlertLayer*, bool)>::__clone(std::__ndk1::__function::__base<void (FLAlertLayer*, bool)>*) const
PUBLIC 51d94 0 std::__ndk1::__function::__func<ServerPopup::onClose(cocos2d::CCObject*)::{lambda(auto:1, bool)#2}, std::__ndk1::allocator<ServerPopup::onClose(cocos2d::CCObject*)::{lambda(auto:1, bool)#2}>, void (FLAlertLayer*, bool)>::destroy()
PUBLIC 51d98 0 std::__ndk1::__function::__func<ServerPopup::onClose(cocos2d::CCObject*)::{lambda(auto:1, bool)#2}, std::__ndk1::allocator<ServerPopup::onClose(cocos2d::CCObject*)::{lambda(auto:1, bool)#2}>, void (FLAlertLayer*, bool)>::destroy_deallocate()
PUBLIC 51d9c 0 std::__ndk1::__function::__func<ServerPopup::onClose(cocos2d::CCObject*)::{lambda(auto:1, bool)#2}, std::__ndk1::allocator<ServerPopup::onClose(cocos2d::CCObject*)::{lambda(auto:1, bool)#2}>, void (FLAlertLayer*, bool)>::operator()(FLAlertLayer*&&, bool&&)
PUBLIC 51dfc 0 std::__ndk1::__function::__func<ServerPopup::onClose(cocos2d::CCObject*)::{lambda(auto:1, bool)#2}, std::__ndk1::allocator<ServerPopup::onClose(cocos2d::CCObject*)::{lambda(auto:1, bool)#2}>, void (FLAlertLayer*, bool)>::target(std::type_info const&) const
PUBLIC 51e18 0 std::__ndk1::__function::__func<ServerPopup::onClose(cocos2d::CCObject*)::{lambda(auto:1, bool)#2}, std::__ndk1::allocator<ServerPopup::onClose(cocos2d::CCObject*)::{lambda(auto:1, bool)#2}>, void (FLAlertLayer*, bool)>::target_type() const
PUBLIC 51e24 0 geode::Popup<ServerSwitchLayer*, ServerNode*>::initBase(float, float, ServerSwitchLayer*, ServerNode*, char const*, cocos2d::CCRect, bool)
PUBLIC 52128 0 std::__ndk1::__function::__func<ServerNode::deleteServer(cocos2d::CCObject*)::$_0, std::__ndk1::allocator<ServerNode::deleteServer(cocos2d::CCObject*)::$_0>, void (FLAlertLayer*, bool)>::~__func()
PUBLIC 5212c 0 std::__ndk1::__function::__func<ServerNode::deleteServer(cocos2d::CCObject*)::$_0, std::__ndk1::allocator<ServerNode::deleteServer(cocos2d::CCObject*)::$_0>, void (FLAlertLayer*, bool)>::__clone() const
PUBLIC 52160 0 std::__ndk1::__function::__func<ServerNode::deleteServer(cocos2d::CCObject*)::$_0, std::__ndk1::allocator<ServerNode::deleteServer(cocos2d::CCObject*)::$_0>, void (FLAlertLayer*, bool)>::__clone(std::__ndk1::__function::__base<void (FLAlertLayer*, bool)>*) const
PUBLIC 52174 0 std::__ndk1::__function::__func<ServerNode::deleteServer(cocos2d::CCObject*)::$_0, std::__ndk1::allocator<ServerNode::deleteServer(cocos2d::CCObject*)::$_0>, void (FLAlertLayer*, bool)>::destroy()
PUBLIC 52178 0 std::__ndk1::__function::__func<ServerNode::deleteServer(cocos2d::CCObject*)::$_0, std::__ndk1::allocator<ServerNode::deleteServer(cocos2d::CCObject*)::$_0>, void (FLAlertLayer*, bool)>::destroy_deallocate()
PUBLIC 5217c 0 std::__ndk1::__function::__func<ServerNode::deleteServer(cocos2d::CCObject*)::$_0, std::__ndk1::allocator<ServerNode::deleteServer(cocos2d::CCObject*)::$_0>, void (FLAlertLayer*, bool)>::operator()(FLAlertLayer*&&, bool&&)
PUBLIC 524d0 0 std::__ndk1::__function::__func<ServerNode::deleteServer(cocos2d::CCObject*)::$_0, std::__ndk1::allocator<ServerNode::deleteServer(cocos2d::CCObject*)::$_0>, void (FLAlertLayer*, bool)>::target(std::type_info const&) const
PUBLIC 524ec 0 std::__ndk1::__function::__func<ServerNode::deleteServer(cocos2d::CCObject*)::$_0, std::__ndk1::allocator<ServerNode::deleteServer(cocos2d::CCObject*)::$_0>, void (FLAlertLayer*, bool)>::target_type() const
PUBLIC 524f8 0 ServerNode::deleteServer(cocos2d::CCObject*)::$_0::operator()<FLAlertLayer*>(FLAlertLayer*, bool) const::{lambda(auto:1 const&)#1}::operator()<ServerSwitchLayer::ServerEntry>(ServerSwitchLayer::ServerEntry const&) const
PUBLIC m 52670 0 ServerSwitchLayer::init()
PUBLIC m 53108 0 ServerSwitchLayer::onGoBack(cocos2d::CCObject*)
PUBLIC m 53458 0 ServerSwitchLayer::onApply(cocos2d::CCObject*)
PUBLIC m 53764 0 geode::Mod::getSavedValue<std::__ndk1::basic_string<char, std::__ndk1::char_traits<char>, std::__ndk1::allocator<char> > >(std::__ndk1::basic_string_view<char, std::__ndk1::char_traits<char> >, std::__ndk1::basic_string<char, std::__ndk1::char_traits<char>, std::__ndk1::allocator<char> > const&)
PUBLIC m 53a08 0 ServerSwitchLayer::update(std::__ndk1::vector<ServerSwitchLayer::ServerEntry, std::__ndk1::allocator<ServerSwitchLayer::ServerEntry> > const&, bool)
PUBLIC m 54208 0 ServerSwitchLayer::onNew(cocos2d::CCObject*)
PUBLIC m 54228 0 ServerSwitchLayer::importServers(cocos2d::CCObject*)
PUBLIC m 54394 0 ServerSwitchLayer::exportServers(cocos2d::CCObject*)
PUBLIC m 54730 0 ServerSwitchLayer::onFileOpen(geode::Task<geode::Result<std::__ndk1::__fs::filesystem::path, std::__ndk1::basic_string<char, std::__ndk1::char_traits<char>, std::__ndk1::allocator<char> > >, std::__ndk1::monostate>::Event*)
PUBLIC 54f04 0 _ZNKR5geode4impl10ResultDataINSt6__ndk16vectorIN17ServerSwitchLayer11ServerEntryENS2_9allocatorIS5_EEEENS2_12basic_stringIcNS2_11char_traitsIcEENS6_IcEEEEE15unwrapOrDefaultEvQsr3stdE21default_initializableIT_E
PUBLIC m 5503c 0 geode::impl::ResultData<matjson::Value, matjson::ParseError>::~ResultData()
PUBLIC m 550b0 0 std::__ndk1::basic_ifstream<char, std::__ndk1::char_traits<char> >::~basic_ifstream()
PUBLIC m 55100 0 geode::utils::file::FilePickOptions::Filter::~Filter()
PUBLIC m 55180 0 ServerSwitchLayer::onFileSave(geode::Task<geode::Result<std::__ndk1::__fs::filesystem::path, std::__ndk1::basic_string<char, std::__ndk1::char_traits<char>, std::__ndk1::allocator<char> > >, std::__ndk1::monostate>::Event*)
PUBLIC m 55a34 0 geode::Task<geode::Result<std::__ndk1::__fs::filesystem::path, std::__ndk1::basic_string<char, std::__ndk1::char_traits<char>, std::__ndk1::allocator<char> > >, std::__ndk1::monostate>::~Task()
PUBLIC m 55a84 0 geode::utils::file::FilePickOptions::~FilePickOptions()
PUBLIC m 55b0c 0 std::__ndk1::basic_ofstream<char, std::__ndk1::char_traits<char> >::~basic_ofstream()
PUBLIC m 55b5c 0 ServerSwitchLayer::keyBackClicked()
PUBLIC m 55b60 0 {virtual override thunk({offset(-336)}, ServerSwitchLayer::keyBackClicked())}
PUBLIC m 55b64 0 ServerSwitchLayer::create()
PUBLIC 55be4 0 ServerSwitchLayer::ServerSwitchLayer()
PUBLIC m 55d10 0 geode::Mod::setSavedValue<std::__ndk1::basic_string<char, std::__ndk1::char_traits<char>, std::__ndk1::allocator<char> > >(std::__ndk1::basic_string_view<char, std::__ndk1::char_traits<char> >, std::__ndk1::basic_string<char, std::__ndk1::char_traits<char>, std::__ndk1::allocator<char> > const&)
PUBLIC m 55e70 0 ServerSwitchLayer::selectServer(ServerNode*)
PUBLIC 56298 0 ServerSwitchLayer::~ServerSwitchLayer()
PUBLIC 56370 0 ServerSwitchLayer::~ServerSwitchLayer()
PUBLIC 56450 0 {virtual override thunk({offset(-320)}, ServerSwitchLayer::~ServerSwitchLayer())}
PUBLIC 56538 0 {virtual override thunk({offset(-320)}, ServerSwitchLayer::~ServerSwitchLayer())}
PUBLIC 56628 0 GetBaseUrlEvent::~GetBaseUrlEvent()
PUBLIC 56668 0 GetBaseUrlEvent::~GetBaseUrlEvent()
PUBLIC 566ac 0 std::__ndk1::__throw_bad_optional_access[abi:ne180000]()
PUBLIC 566e0 0 std::__ndk1::__variant_detail::__visitation::__base::__dispatcher<(unsigned long)0>::__dispatch[abi:ne180000]<std::__ndk1::__variant_detail::__dtor<std::__ndk1::__variant_detail::__traits<matjson::Value, std::__ndk1::__variant_detail::__traits::ParseError>, (std::__ndk1::__variant_detail::_Trait)1>::__destroy[abi:ne180000]()::{lambda(auto:1&)#1}, std::__ndk1::__variant_detail::__base<(std::__ndk1::__variant_detail::__traits<matjson::Value, std::__ndk1::__variant_detail::__traits::ParseError>)1, matjson, matjson::Value>&>(std::__ndk1::__variant_detail::__dtor<std::__ndk1::__variant_detail::__traits<matjson::Value, std::__ndk1::__variant_detail::__traits::ParseError>, (std::__ndk1::__variant_detail::_Trait)1>, std::__ndk1::__variant_detail::__base<(std::__ndk1::__variant_detail::__traits<matjson::Value, std::__ndk1::__variant_detail::__traits::ParseError>)1, matjson, matjson::Value>&)
PUBLIC 566e8 0 std::__ndk1::__variant_detail::__visitation::__base::__dispatcher<(unsigned long)1>::__dispatch[abi:ne180000]<std::__ndk1::__variant_detail::__dtor<std::__ndk1::__variant_detail::__traits<matjson::Value, std::__ndk1::__variant_detail::__traits::ParseError>, (std::__ndk1::__variant_detail::_Trait)1>::__destroy[abi:ne180000]()::{lambda(auto:1&)#1}, std::__ndk1::__variant_detail::__base<(std::__ndk1::__variant_detail::__traits<matjson::Value, std::__ndk1::__variant_detail::__traits::ParseError>)1, matjson, matjson::Value>&>(std::__ndk1::__variant_detail::__dtor<std::__ndk1::__variant_detail::__traits<matjson::Value, std::__ndk1::__variant_detail::__traits::ParseError>, (std::__ndk1::__variant_detail::_Trait)1>, std::__ndk1::__variant_detail::__base<(std::__ndk1::__variant_detail::__traits<matjson::Value, std::__ndk1::__variant_detail::__traits::ParseError>)1, matjson, matjson::Value>&)
PUBLIC 566fc 0 std::__ndk1::__exception_guard_exceptions<std::__ndk1::_AllocatorDestroyRangeReverse<std::__ndk1::allocator<geode::utils::file::FilePickOptions::Filter>, geode::utils::file::FilePickOptions::Filter*> >::~__exception_guard_exceptions[abi:ne180000]()
PUBLIC 567a0 0 std::__ndk1::unordered_set<std::__ndk1::basic_string<char, std::__ndk1::char_traits<char>, std::__ndk1::allocator<char> >, std::__ndk1::hash<std::__ndk1::basic_string<char, std::__ndk1::char_traits<char>, std::__ndk1::allocator<char> > >, std::__ndk1::equal_to<std::__ndk1::basic_string<char, std::__ndk1::char_traits<char>, std::__ndk1::allocator<char> > >, std::__ndk1::allocator<std::__ndk1::basic_string<char, std::__ndk1::char_traits<char>, std::__ndk1::allocator<char> > > >::unordered_set(std::__ndk1::unordered_set<std::__ndk1::basic_string<char, std::__ndk1::char_traits<char>, std::__ndk1::allocator<char> >, std::__ndk1::hash<std::__ndk1::basic_string<char, std::__ndk1::char_traits<char>, std::__ndk1::allocator<char> > >, std::__ndk1::equal_to<std::__ndk1::basic_string<char, std::__ndk1::char_traits<char>, std::__ndk1::allocator<char> > >, std::__ndk1::allocator<std::__ndk1::basic_string<char, std::__ndk1::char_traits<char>, std::__ndk1::allocator<char> > > > const&)
PUBLIC 568dc 0 std::__ndk1::__hash_table<std::__ndk1::basic_string<char, std::__ndk1::char_traits<char>, std::__ndk1::allocator<char> >, std::__ndk1::hash<std::__ndk1::basic_string<char, std::__ndk1::char_traits<char>, std::__ndk1::allocator<char> > >, std::__ndk1::equal_to<std::__ndk1::basic_string<char, std::__ndk1::char_traits<char>, std::__ndk1::allocator<char> > >, std::__ndk1::allocator<std::__ndk1::basic_string<char, std::__ndk1::char_traits<char>, std::__ndk1::allocator<char> > > >::~__hash_table()
PUBLIC m 5694c 0 std::__ndk1::__hash_table<std::__ndk1::basic_string<char, std::__ndk1::char_traits<char>, std::__ndk1::allocator<char> >, std::__ndk1::hash<std::__ndk1::basic_string<char, std::__ndk1::char_traits<char>, std::__ndk1::allocator<char> > >, std::__ndk1::equal_to<std::__ndk1::basic_string<char, std::__ndk1::char_traits<char>, std::__ndk1::allocator<char> > >, std::__ndk1::allocator<std::__ndk1::basic_string<char, std::__ndk1::char_traits<char>, std::__ndk1::allocator<char> > > >::__do_rehash<true>(unsigned long)
PUBLIC m 56af8 0 std::__ndk1::__hash_table<std::__ndk1::basic_string<char, std::__ndk1::char_traits<char>, std::__ndk1::allocator<char> >, std::__ndk1::hash<std::__ndk1::basic_string<char, std::__ndk1::char_traits<char>, std::__ndk1::allocator<char> > >, std::__ndk1::equal_to<std::__ndk1::basic_string<char, std::__ndk1::char_traits<char>, std::__ndk1::allocator<char> > >, std::__ndk1::allocator<std::__ndk1::basic_string<char, std::__ndk1::char_traits<char>, std::__ndk1::allocator<char> > > >::__emplace_unique_key_args<std::__ndk1::basic_string<char, std::__ndk1::char_traits<char>, std::__ndk1::allocator<char> >, std::__ndk1::basic_string<char, std::__ndk1::char_traits<char>, std::__ndk1::allocator<char> > const&>(std::__ndk1::basic_string<char, std::__ndk1::char_traits<char>, std::__ndk1::allocator<char> > const&, std::__ndk1::basic_string<char, std::__ndk1::char_traits<char>, std::__ndk1::allocator<char> > const&)
PUBLIC 57374 0 std::__ndk1::unique_ptr<std::__ndk1::__hash_node<std::__ndk1::basic_string<char, std::__ndk1::char_traits<char>, std::__ndk1::allocator<char> >, void*>, std::__ndk1::__hash_node_destructor<std::__ndk1::allocator<std::__ndk1::__hash_node<std::__ndk1::basic_string<char, std::__ndk1::char_traits<char>, std::__ndk1::allocator<char> >, void*> > > >::~unique_ptr[abi:ne180000]()
PUBLIC 573c4 0 std::__ndk1::vector<geode::utils::file::FilePickOptions::Filter, std::__ndk1::allocator<geode::utils::file::FilePickOptions::Filter> >::__destroy_vector::operator()[abi:ne180000]()
PUBLIC m 574a8 0 geode::Task<geode::Result<std::__ndk1::__fs::filesystem::path, std::__ndk1::basic_string<char, std::__ndk1::char_traits<char>, std::__ndk1::allocator<char> > >, std::__ndk1::monostate>::setListener(geode::EventListenerProtocol*)
PUBLIC m 576cc 0 geode::EventListener<geode::Task<geode::Result<std::__ndk1::__fs::filesystem::path, std::__ndk1::basic_string<char, std::__ndk1::char_traits<char>, std::__ndk1::allocator<char> > >, std::__ndk1::monostate> >::getPool() const
PUBLIC m 576d0 0 geode::EventListener<geode::Task<geode::Result<std::__ndk1::__fs::filesystem::path, std::__ndk1::basic_string<char, std::__ndk1::char_traits<char>, std::__ndk1::allocator<char> > >, std::__ndk1::monostate> >::handle(geode::Event*)
PUBLIC m 5789c 0 geode::EventListener<geode::Task<geode::Result<std::__ndk1::__fs::filesystem::path, std::__ndk1::basic_string<char, std::__ndk1::char_traits<char>, std::__ndk1::allocator<char> > >, std::__ndk1::monostate> >::~EventListener()
PUBLIC m 5793c 0 geode::EventListener<geode::Task<geode::Result<std::__ndk1::__fs::filesystem::path, std::__ndk1::basic_string<char, std::__ndk1::char_traits<char>, std::__ndk1::allocator<char> > >, std::__ndk1::monostate> >::~EventListener()
PUBLIC m 579e4 0 geode::Task<geode::Result<std::__ndk1::__fs::filesystem::path, std::__ndk1::basic_string<char, std::__ndk1::char_traits<char>, std::__ndk1::allocator<char> > >, std::__ndk1::monostate>::setListener(geode::EventListenerProtocol*)::{lambda()#1}::~{lambda()#1}()
PUBLIC m 57a34 0 geode::Task<geode::Result<std::__ndk1::__fs::filesystem::path, std::__ndk1::basic_string<char, std::__ndk1::char_traits<char>, std::__ndk1::allocator<char> > >, std::__ndk1::monostate>::setListener(geode::EventListenerProtocol*)::{lambda()#2}::~{lambda()#2}()
PUBLIC m 57a84 0 std::__ndk1::__function::__func<geode::Task<geode::Result<std::__ndk1::__fs::filesystem::path, std::__ndk1::basic_string<char, std::__ndk1::char_traits<char>, std::__ndk1::allocator<char> > >, std::__ndk1::monostate>::setListener(geode::EventListenerProtocol*)::{lambda()#1}, std::__ndk1::allocator<geode::Task<geode::Result<std::__ndk1::__fs::filesystem::path, std::__ndk1::basic_string<char, std::__ndk1::char_traits<char>, std::__ndk1::allocator<char> > >, std::__ndk1::monostate>::setListener(geode::EventListenerProtocol*)::{lambda()#1}>, void ()>::~__func()
PUBLIC m 57ae4 0 std::__ndk1::__function::__func<geode::Task<geode::Result<std::__ndk1::__fs::filesystem::path, std::__ndk1::basic_string<char, std::__ndk1::char_traits<char>, std::__ndk1::allocator<char> > >, std::__ndk1::monostate>::setListener(geode::EventListenerProtocol*)::{lambda()#1}, std::__ndk1::allocator<geode::Task<geode::Result<std::__ndk1::__fs::filesystem::path, std::__ndk1::basic_string<char, std::__ndk1::char_traits<char>, std::__ndk1::allocator<char> > >, std::__ndk1::monostate>::setListener(geode::EventListenerProtocol*)::{lambda()#1}>, void ()>::~__func()
PUBLIC 57b54 0 std::__ndk1::__function::__func<geode::Task<geode::Result<std::__ndk1::__fs::filesystem::path, std::__ndk1::basic_string<char, std::__ndk1::char_traits<char>, std::__ndk1::allocator<char> > >, std::__ndk1::monostate>::setListener(geode::EventListenerProtocol*)::{lambda()#1}, std::__ndk1::allocator<geode::Task<geode::Result<std::__ndk1::__fs::filesystem::path, std::__ndk1::basic_string<char, std::__ndk1::char_traits<char>, std::__ndk1::allocator<char> > >, std::__ndk1::monostate>::setListener(geode::EventListenerProtocol*)::{lambda()#1}>, void ()>::__clone() const
PUBLIC 57bb0 0 std::__ndk1::__function::__func<geode::Task<geode::Result<std::__ndk1::__fs::filesystem::path, std::__ndk1::basic_string<char, std::__ndk1::char_traits<char>, std::__ndk1::allocator<char> > >, std::__ndk1::monostate>::setListener(geode::EventListenerProtocol*)::{lambda()#1}, std::__ndk1::allocator<geode::Task<geode::Result<std::__ndk1::__fs::filesystem::path, std::__ndk1::basic_string<char, std::__ndk1::char_traits<char>, std::__ndk1::allocator<char> > >, std::__ndk1::monostate>::setListener(geode::EventListenerProtocol*)::{lambda()#1}>, void ()>::__clone(std::__ndk1::__function::__base<void ()>*) const
PUBLIC 57c00 0 std::__ndk1::__function::__func<geode::Task<geode::Result<std::__ndk1::__fs::filesystem::path, std::__ndk1::basic_string<char, std::__ndk1::char_traits<char>, std::__ndk1::allocator<char> > >, std::__ndk1::monostate>::setListener(geode::EventListenerProtocol*)::{lambda()#1}, std::__ndk1::allocator<geode::Task<geode::Result<std::__ndk1::__fs::filesystem::path, std::__ndk1::basic_string<char, std::__ndk1::char_traits<char>, std::__ndk1::allocator<char> > >, std::__ndk1::monostate>::setListener(geode::EventListenerProtocol*)::{lambda()#1}>, void ()>::destroy()
PUBLIC 57c50 0 std::__ndk1::__function::__func<geode::Task<geode::Result<std::__ndk1::__fs::filesystem::path, std::__ndk1::basic_string<char, std::__ndk1::char_traits<char>, std::__ndk1::allocator<char> > >, std::__ndk1::monostate>::setListener(geode::EventListenerProtocol*)::{lambda()#1}, std::__ndk1::allocator<geode::Task<geode::Result<std::__ndk1::__fs::filesystem::path, std::__ndk1::basic_string<char, std::__ndk1::char_traits<char>, std::__ndk1::allocator<char> > >, std::__ndk1::monostate>::setListener(geode::EventListenerProtocol*)::{lambda()#1}>, void ()>::destroy_deallocate()
PUBLIC 57cb0 0 std::__ndk1::__function::__func<geode::Task<geode::Result<std::__ndk1::__fs::filesystem::path, std::__ndk1::basic_string<char, std::__ndk1::char_traits<char>, std::__ndk1::allocator<char> > >, std::__ndk1::monostate>::setListener(geode::EventListenerProtocol*)::{lambda()#1}, std::__ndk1::allocator<geode::Task<geode::Result<std::__ndk1::__fs::filesystem::path, std::__ndk1::basic_string<char, std::__ndk1::char_traits<char>, std::__ndk1::allocator<char> > >, std::__ndk1::monostate>::setListener(geode::EventListenerProtocol*)::{lambda()#1}>, void ()>::operator()()
PUBLIC 57cb8 0 std::__ndk1::__function::__func<geode::Task<geode::Result<std::__ndk1::__fs::filesystem::path, std::__ndk1::basic_string<char, std::__ndk1::char_traits<char>, std::__ndk1::allocator<char> > >, std::__ndk1::monostate>::setListener(geode::EventListenerProtocol*)::{lambda()#1}, std::__ndk1::allocator<geode::Task<geode::Result<std::__ndk1::__fs::filesystem::path, std::__ndk1::basic_string<char, std::__ndk1::char_traits<char>, std::__ndk1::allocator<char> > >, std::__ndk1::monostate>::setListener(geode::EventListenerProtocol*)::{lambda()#1}>, void ()>::target(std::type_info const&) const
PUBLIC 57cd4 0 std::__ndk1::__function::__func<geode::Task<geode::Result<std::__ndk1::__fs::filesystem::path, std::__ndk1::basic_string<char, std::__ndk1::char_traits<char>, std::__ndk1::allocator<char> > >, std::__ndk1::monostate>::setListener(geode::EventListenerProtocol*)::{lambda()#1}, std::__ndk1::allocator<geode::Task<geode::Result<std::__ndk1::__fs::filesystem::path, std::__ndk1::basic_string<char, std::__ndk1::char_traits<char>, std::__ndk1::allocator<char> > >, std::__ndk1::monostate>::setListener(geode::EventListenerProtocol*)::{lambda()#1}>, void ()>::target_type() const
PUBLIC m 57ce0 0 geode::Task<geode::Result<std::__ndk1::__fs::filesystem::path, std::__ndk1::basic_string<char, std::__ndk1::char_traits<char>, std::__ndk1::allocator<char> > >, std::__ndk1::monostate>::setListener(geode::EventListenerProtocol*)::{lambda()#1}::operator()() const
PUBLIC m 57eb8 0 geode::Task<geode::Result<std::__ndk1::__fs::filesystem::path, std::__ndk1::basic_string<char, std::__ndk1::char_traits<char>, std::__ndk1::allocator<char> > >, std::__ndk1::monostate>::Event::~Event()
PUBLIC m 57f18 0 geode::Task<geode::Result<std::__ndk1::__fs::filesystem::path, std::__ndk1::basic_string<char, std::__ndk1::char_traits<char>, std::__ndk1::allocator<char> > >, std::__ndk1::monostate>::Event::~Event()
PUBLIC m 57f88 0 std::__ndk1::__function::__func<geode::Task<geode::Result<std::__ndk1::__fs::filesystem::path, std::__ndk1::basic_string<char, std::__ndk1::char_traits<char>, std::__ndk1::allocator<char> > >, std::__ndk1::monostate>::setListener(geode::EventListenerProtocol*)::{lambda()#2}, std::__ndk1::allocator<geode::Task<geode::Result<std::__ndk1::__fs::filesystem::path, std::__ndk1::basic_string<char, std::__ndk1::char_traits<char>, std::__ndk1::allocator<char> > >, std::__ndk1::monostate>::setListener(geode::EventListenerProtocol*)::{lambda()#2}>, void ()>::~__func()
PUBLIC m 57fe8 0 std::__ndk1::__function::__func<geode::Task<geode::Result<std::__ndk1::__fs::filesystem::path, std::__ndk1::basic_string<char, std::__ndk1::char_traits<char>, std::__ndk1::allocator<char> > >, std::__ndk1::monostate>::setListener(geode::EventListenerProtocol*)::{lambda()#2}, std::__ndk1::allocator<geode::Task<geode::Result<std::__ndk1::__fs::filesystem::path, std::__ndk1::basic_string<char, std::__ndk1::char_traits<char>, std::__ndk1::allocator<char> > >, std::__ndk1::monostate>::setListener(geode::EventListenerProtocol*)::{lambda()#2}>, void ()>::~__func()
PUBLIC 58058 0 std::__ndk1::__function::__func<geode::Task<geode::Result<std::__ndk1::__fs::filesystem::path, std::__ndk1::basic_string<char, std::__ndk1::char_traits<char>, std::__ndk1::allocator<char> > >, std::__ndk1::monostate>::setListener(geode::EventListenerProtocol*)::{lambda()#2}, std::__ndk1::allocator<geode::Task<geode::Result<std::__ndk1::__fs::filesystem::path, std::__ndk1::basic_string<char, std::__ndk1::char_traits<char>, std::__ndk1::allocator<char> > >, std::__ndk1::monostate>::setListener(geode::EventListenerProtocol*)::{lambda()#2}>, void ()>::__clone() const
PUBLIC 580b4 0 std::__ndk1::__function::__func<geode::Task<geode::Result<std::__ndk1::__fs::filesystem::path, std::__ndk1::basic_string<char, std::__ndk1::char_traits<char>, std::__ndk1::allocator<char> > >, std::__ndk1::monostate>::setListener(geode::EventListenerProtocol*)::{lambda()#2}, std::__ndk1::allocator<geode::Task<geode::Result<std::__ndk1::__fs::filesystem::path, std::__ndk1::basic_string<char, std::__ndk1::char_traits<char>, std::__ndk1::allocator<char> > >, std::__ndk1::monostate>::setListener(geode::EventListenerProtocol*)::{lambda()#2}>, void ()>::__clone(std::__ndk1::__function::__base<void ()>*) const
PUBLIC 58104 0 std::__ndk1::__function::__func<geode::Task<geode::Result<std::__ndk1::__fs::filesystem::path, std::__ndk1::basic_string<char, std::__ndk1::char_traits<char>, std::__ndk1::allocator<char> > >, std::__ndk1::monostate>::setListener(geode::EventListenerProtocol*)::{lambda()#2}, std::__ndk1::allocator<geode::Task<geode::Result<std::__ndk1::__fs::filesystem::path, std::__ndk1::basic_string<char, std::__ndk1::char_traits<char>, std::__ndk1::allocator<char> > >, std::__ndk1::monostate>::setListener(geode::EventListenerProtocol*)::{lambda()#2}>, void ()>::destroy()
PUBLIC 58154 0 std::__ndk1::__function::__func<geode::Task<geode::Result<std::__ndk1::__fs::filesystem::path, std::__ndk1::basic_string<char, std::__ndk1::char_traits<char>, std::__ndk1::allocator<char> > >, std::__ndk1::monostate>::setListener(geode::EventListenerProtocol*)::{lambda()#2}, std::__ndk1::allocator<geode::Task<geode::Result<std::__ndk1::__fs::filesystem::path, std::__ndk1::basic_string<char, std::__ndk1::char_traits<char>, std::__ndk1::allocator<char> > >, std::__ndk1::monostate>::setListener(geode::EventListenerProtocol*)::{lambda()#2}>, void ()>::destroy_deallocate()
PUBLIC 581b4 0 std::__ndk1::__function::__func<geode::Task<geode::Result<std::__ndk1::__fs::filesystem::path, std::__ndk1::basic_string<char, std::__ndk1::char_traits<char>, std::__ndk1::allocator<char> > >, std::__ndk1::monostate>::setListener(geode::EventListenerProtocol*)::{lambda()#2}, std::__ndk1::allocator<geode::Task<geode::Result<std::__ndk1::__fs::filesystem::path, std::__ndk1::basic_string<char, std::__ndk1::char_traits<char>, std::__ndk1::allocator<char> > >, std::__ndk1::monostate>::setListener(geode::EventListenerProtocol*)::{lambda()#2}>, void ()>::operator()()
PUBLIC 581bc 0 std::__ndk1::__function::__func<geode::Task<geode::Result<std::__ndk1::__fs::filesystem::path, std::__ndk1::basic_string<char, std::__ndk1::char_traits<char>, std::__ndk1::allocator<char> > >, std::__ndk1::monostate>::setListener(geode::EventListenerProtocol*)::{lambda()#2}, std::__ndk1::allocator<geode::Task<geode::Result<std::__ndk1::__fs::filesystem::path, std::__ndk1::basic_string<char, std::__ndk1::char_traits<char>, std::__ndk1::allocator<char> > >, std::__ndk1::monostate>::setListener(geode::EventListenerProtocol*)::{lambda()#2}>, void ()>::target(std::type_info const&) const
PUBLIC 581d8 0 std::__ndk1::__function::__func<geode::Task<geode::Result<std::__ndk1::__fs::filesystem::path, std::__ndk1::basic_string<char, std::__ndk1::char_traits<char>, std::__ndk1::allocator<char> > >, std::__ndk1::monostate>::setListener(geode::EventListenerProtocol*)::{lambda()#2}, std::__ndk1::allocator<geode::Task<geode::Result<std::__ndk1::__fs::filesystem::path, std::__ndk1::basic_string<char, std::__ndk1::char_traits<char>, std::__ndk1::allocator<char> > >, std::__ndk1::monostate>::setListener(geode::EventListenerProtocol*)::{lambda()#2}>, void ()>::target_type() const
PUBLIC m 581e4 0 geode::Task<geode::Result<std::__ndk1::__fs::filesystem::path, std::__ndk1::basic_string<char, std::__ndk1::char_traits<char>, std::__ndk1::allocator<char> > >, std::__ndk1::monostate>::setListener(geode::EventListenerProtocol*)::{lambda()#2}::operator()() const
PUBLIC 583b0 0 std::__ndk1::__throw_bad_function_call[abi:ne180000]()
PUBLIC 583e4 0 std::__ndk1::bad_function_call::~bad_function_call()
PUBLIC 58408 0 std::__ndk1::vector<ServerNode*, std::__ndk1::allocator<ServerNode*> >::__throw_length_error[abi:ne180000]() const
PUBLIC 5841c 0 std::__ndk1::__function::__base<void (geode::Task<geode::Result<std::__ndk1::__fs::filesystem::path, std::__ndk1::basic_string<char, std::__ndk1::char_traits<char>, std::__ndk1::allocator<char> > >, std::__ndk1::monostate>::Event*)>::~__base()
PUBLIC 58420 0 std::__ndk1::__function::__func<std::__ndk1::__bind<void (ServerSwitchLayer::*&)(geode::Task<geode::Result<std::__ndk1::__fs::filesystem::path, std::__ndk1::basic_string<char, std::__ndk1::char_traits<char>, std::__ndk1::allocator<char> > >, std::__ndk1::monostate>::Event*), ServerSwitchLayer*&, std::__ndk1::placeholders::__ph<1> const&>, std::__ndk1::allocator<std::__ndk1::__bind<void (ServerSwitchLayer::*&)(geode::Task<geode::Result<std::__ndk1::__fs::filesystem::path, std::__ndk1::basic_string<char, std::__ndk1::char_traits<char>, std::__ndk1::allocator<char> > >, std::__ndk1::monostate>::Event*), ServerSwitchLayer*&, std::__ndk1::placeholders::__ph<1> const&> >, void (geode::Task<geode::Result<std::__ndk1::__fs::filesystem::path, std::__ndk1::basic_string<char, std::__ndk1::char_traits<char>, std::__ndk1::allocator<char> > >, std::__ndk1::monostate>::Event*)>::~__func()
PUBLIC 58424 0 std::__ndk1::__function::__func<std::__ndk1::__bind<void (ServerSwitchLayer::*&)(geode::Task<geode::Result<std::__ndk1::__fs::filesystem::path, std::__ndk1::basic_string<char, std::__ndk1::char_traits<char>, std::__ndk1::allocator<char> > >, std::__ndk1::monostate>::Event*), ServerSwitchLayer*&, std::__ndk1::placeholders::__ph<1> const&>, std::__ndk1::allocator<std::__ndk1::__bind<void (ServerSwitchLayer::*&)(geode::Task<geode::Result<std::__ndk1::__fs::filesystem::path, std::__ndk1::basic_string<char, std::__ndk1::char_traits<char>, std::__ndk1::allocator<char> > >, std::__ndk1::monostate>::Event*), ServerSwitchLayer*&, std::__ndk1::placeholders::__ph<1> const&> >, void (geode::Task<geode::Result<std::__ndk1::__fs::filesystem::path, std::__ndk1::basic_string<char, std::__ndk1::char_traits<char>, std::__ndk1::allocator<char> > >, std::__ndk1::monostate>::Event*)>::__clone() const
PUBLIC 58464 0 std::__ndk1::__function::__func<std::__ndk1::__bind<void (ServerSwitchLayer::*&)(geode::Task<geode::Result<std::__ndk1::__fs::filesystem::path, std::__ndk1::basic_string<char, std::__ndk1::char_traits<char>, std::__ndk1::allocator<char> > >, std::__ndk1::monostate>::Event*), ServerSwitchLayer*&, std::__ndk1::placeholders::__ph<1> const&>, std::__ndk1::allocator<std::__ndk1::__bind<void (ServerSwitchLayer::*&)(geode::Task<geode::Result<std::__ndk1::__fs::filesystem::path, std::__ndk1::basic_string<char, std::__ndk1::char_traits<char>, std::__ndk1::allocator<char> > >, std::__ndk1::monostate>::Event*), ServerSwitchLayer*&, std::__ndk1::placeholders::__ph<1> const&> >, void (geode::Task<geode::Result<std::__ndk1::__fs::filesystem::path, std::__ndk1::basic_string<char, std::__ndk1::char_traits<char>, std::__ndk1::allocator<char> > >, std::__ndk1::monostate>::Event*)>::__clone(std::__ndk1::__function::__base<void (geode::Task<geode::Result<std::__ndk1::__fs::filesystem::path, std::__ndk1::basic_string<char, std::__ndk1::char_traits<char>, std::__ndk1::allocator<char> > >, std::__ndk1::monostate>::Event*)>*) const
PUBLIC 58484 0 std::__ndk1::__function::__func<std::__ndk1::__bind<void (ServerSwitchLayer::*&)(geode::Task<geode::Result<std::__ndk1::__fs::filesystem::path, std::__ndk1::basic_string<char, std::__ndk1::char_traits<char>, std::__ndk1::allocator<char> > >, std::__ndk1::monostate>::Event*), ServerSwitchLayer*&, std::__ndk1::placeholders::__ph<1> const&>, std::__ndk1::allocator<std::__ndk1::__bind<void (ServerSwitchLayer::*&)(geode::Task<geode::Result<std::__ndk1::__fs::filesystem::path, std::__ndk1::basic_string<char, std::__ndk1::char_traits<char>, std::__ndk1::allocator<char> > >, std::__ndk1::monostate>::Event*), ServerSwitchLayer*&, std::__ndk1::placeholders::__ph<1> const&> >, void (geode::Task<geode::Result<std::__ndk1::__fs::filesystem::path, std::__ndk1::basic_string<char, std::__ndk1::char_traits<char>, std::__ndk1::allocator<char> > >, std::__ndk1::monostate>::Event*)>::destroy()
PUBLIC 58488 0 std::__ndk1::__function::__func<std::__ndk1::__bind<void (ServerSwitchLayer::*&)(geode::Task<geode::Result<std::__ndk1::__fs::filesystem::path, std::__ndk1::basic_string<char, std::__ndk1::char_traits<char>, std::__ndk1::allocator<char> > >, std::__ndk1::monostate>::Event*), ServerSwitchLayer*&, std::__ndk1::placeholders::__ph<1> const&>, std::__ndk1::allocator<std::__ndk1::__bind<void (ServerSwitchLayer::*&)(geode::Task<geode::Result<std::__ndk1::__fs::filesystem::path, std::__ndk1::basic_string<char, std::__ndk1::char_traits<char>, std::__ndk1::allocator<char> > >, std::__ndk1::monostate>::Event*), ServerSwitchLayer*&, std::__ndk1::placeholders::__ph<1> const&> >, void (geode::Task<geode::Result<std::__ndk1::__fs::filesystem::path, std::__ndk1::basic_string<char, std::__ndk1::char_traits<char>, std::__ndk1::allocator<char> > >, std::__ndk1::monostate>::Event*)>::destroy_deallocate()
PUBLIC 5848c 0 std::__ndk1::__function::__func<std::__ndk1::__bind<void (ServerSwitchLayer::*&)(geode::Task<geode::Result<std::__ndk1::__fs::filesystem::path, std::__ndk1::basic_string<char, std::__ndk1::char_traits<char>, std::__ndk1::allocator<char> > >, std::__ndk1::monostate>::Event*), ServerSwitchLayer*&, std::__ndk1::placeholders::__ph<1> const&>, std::__ndk1::allocator<std::__ndk1::__bind<void (ServerSwitchLayer::*&)(geode::Task<geode::Result<std::__ndk1::__fs::filesystem::path, std::__ndk1::basic_string<char, std::__ndk1::char_traits<char>, std::__ndk1::allocator<char> > >, std::__ndk1::monostate>::Event*), ServerSwitchLayer*&, std::__ndk1::placeholders::__ph<1> const&> >, void (geode::Task<geode::Result<std::__ndk1::__fs::filesystem::path, std::__ndk1::basic_string<char, std::__ndk1::char_traits<char>, std::__ndk1::allocator<char> > >, std::__ndk1::monostate>::Event*)>::operator()(geode::Task<geode::Result<std::__ndk1::__fs::filesystem::path, std::__ndk1::basic_string<char, std::__ndk1::char_traits<char>, std::__ndk1::allocator<char> > >, std::__ndk1::monostate>::Event*&&)
PUBLIC 584ac 0 std::__ndk1::__function::__func<std::__ndk1::__bind<void (ServerSwitchLayer::*&)(geode::Task<geode::Result<std::__ndk1::__fs::filesystem::path, std::__ndk1::basic_string<char, std::__ndk1::char_traits<char>, std::__ndk1::allocator<char> > >, std::__ndk1::monostate>::Event*), ServerSwitchLayer*&, std::__ndk1::placeholders::__ph<1> const&>, std::__ndk1::allocator<std::__ndk1::__bind<void (ServerSwitchLayer::*&)(geode::Task<geode::Result<std::__ndk1::__fs::filesystem::path, std::__ndk1::basic_string<char, std::__ndk1::char_traits<char>, std::__ndk1::allocator<char> > >, std::__ndk1::monostate>::Event*), ServerSwitchLayer*&, std::__ndk1::placeholders::__ph<1> const&> >, void (geode::Task<geode::Result<std::__ndk1::__fs::filesystem::path, std::__ndk1::basic_string<char, std::__ndk1::char_traits<char>, std::__ndk1::allocator<char> > >, std::__ndk1::monostate>::Event*)>::target(std::type_info const&) const
PUBLIC 584c8 0 std::__ndk1::__function::__func<std::__ndk1::__bind<void (ServerSwitchLayer::*&)(geode::Task<geode::Result<std::__ndk1::__fs::filesystem::path, std::__ndk1::basic_string<char, std::__ndk1::char_traits<char>, std::__ndk1::allocator<char> > >, std::__ndk1::monostate>::Event*), ServerSwitchLayer*&, std::__ndk1::placeholders::__ph<1> const&>, std::__ndk1::allocator<std::__ndk1::__bind<void (ServerSwitchLayer::*&)(geode::Task<geode::Result<std::__ndk1::__fs::filesystem::path, std::__ndk1::basic_string<char, std::__ndk1::char_traits<char>, std::__ndk1::allocator<char> > >, std::__ndk1::monostate>::Event*), ServerSwitchLayer*&, std::__ndk1::placeholders::__ph<1> const&> >, void (geode::Task<geode::Result<std::__ndk1::__fs::filesystem::path, std::__ndk1::basic_string<char, std::__ndk1::char_traits<char>, std::__ndk1::allocator<char> > >, std::__ndk1::monostate>::Event*)>::target_type() const
PUBLIC 584d4 0 std::__ndk1::__function::__value_func<void (geode::Task<geode::Result<std::__ndk1::__fs::filesystem::path, std::__ndk1::basic_string<char, std::__ndk1::char_traits<char>, std::__ndk1::allocator<char> > >, std::__ndk1::monostate>::Event*)>::swap[abi:ne180000](std::__ndk1::__function::__value_func<void (geode::Task<geode::Result<std::__ndk1::__fs::filesystem::path, std::__ndk1::basic_string<char, std::__ndk1::char_traits<char>, std::__ndk1::allocator<char> > >, std::__ndk1::monostate>::Event*)>&)
PUBLIC 5866c 0 std::__ndk1::__function::__func<ServerSwitchLayer::importServers(cocos2d::CCObject*)::$_0, std::__ndk1::allocator<ServerSwitchLayer::importServers(cocos2d::CCObject*)::$_0>, void (FLAlertLayer*, bool)>::~__func()
PUBLIC 58670 0 std::__ndk1::__function::__func<ServerSwitchLayer::importServers(cocos2d::CCObject*)::$_0, std::__ndk1::allocator<ServerSwitchLayer::importServers(cocos2d::CCObject*)::$_0>, void (FLAlertLayer*, bool)>::__clone() const
PUBLIC 586a4 0 std::__ndk1::__function::__func<ServerSwitchLayer::importServers(cocos2d::CCObject*)::$_0, std::__ndk1::allocator<ServerSwitchLayer::importServers(cocos2d::CCObject*)::$_0>, void (FLAlertLayer*, bool)>::__clone(std::__ndk1::__function::__base<void (FLAlertLayer*, bool)>*) const
PUBLIC 586b8 0 std::__ndk1::__function::__func<ServerSwitchLayer::importServers(cocos2d::CCObject*)::$_0, std::__ndk1::allocator<ServerSwitchLayer::importServers(cocos2d::CCObject*)::$_0>, void (FLAlertLayer*, bool)>::destroy()
PUBLIC 586bc 0 std::__ndk1::__function::__func<ServerSwitchLayer::importServers(cocos2d::CCObject*)::$_0, std::__ndk1::allocator<ServerSwitchLayer::importServers(cocos2d::CCObject*)::$_0>, void (FLAlertLayer*, bool)>::destroy_deallocate()
PUBLIC 586c0 0 std::__ndk1::__function::__func<ServerSwitchLayer::importServers(cocos2d::CCObject*)::$_0, std::__ndk1::allocator<ServerSwitchLayer::importServers(cocos2d::CCObject*)::$_0>, void (FLAlertLayer*, bool)>::operator()(FLAlertLayer*&&, bool&&)
PUBLIC 58a6c 0 std::__ndk1::__function::__func<ServerSwitchLayer::importServers(cocos2d::CCObject*)::$_0, std::__ndk1::allocator<ServerSwitchLayer::importServers(cocos2d::CCObject*)::$_0>, void (FLAlertLayer*, bool)>::target(std::type_info const&) const
PUBLIC 58a88 0 std::__ndk1::__function::__func<ServerSwitchLayer::importServers(cocos2d::CCObject*)::$_0, std::__ndk1::allocator<ServerSwitchLayer::importServers(cocos2d::CCObject*)::$_0>, void (FLAlertLayer*, bool)>::target_type() const
PUBLIC 58a94 0 std::__ndk1::__function::__func<ServerSwitchLayer::onGoBack(cocos2d::CCObject*)::$_0, std::__ndk1::allocator<ServerSwitchLayer::onGoBack(cocos2d::CCObject*)::$_0>, void (FLAlertLayer*, bool)>::~__func()
PUBLIC 58a98 0 std::__ndk1::__function::__func<ServerSwitchLayer::onGoBack(cocos2d::CCObject*)::$_0, std::__ndk1::allocator<ServerSwitchLayer::onGoBack(cocos2d::CCObject*)::$_0>, void (FLAlertLayer*, bool)>::__clone() const
PUBLIC 58abc 0 std::__ndk1::__function::__func<ServerSwitchLayer::onGoBack(cocos2d::CCObject*)::$_0, std::__ndk1::allocator<ServerSwitchLayer::onGoBack(cocos2d::CCObject*)::$_0>, void (FLAlertLayer*, bool)>::__clone(std::__ndk1::__function::__base<void (FLAlertLayer*, bool)>*) const
PUBLIC 58acc 0 std::__ndk1::__function::__func<ServerSwitchLayer::onGoBack(cocos2d::CCObject*)::$_0, std::__ndk1::allocator<ServerSwitchLayer::onGoBack(cocos2d::CCObject*)::$_0>, void (FLAlertLayer*, bool)>::destroy()
PUBLIC 58ad0 0 std::__ndk1::__function::__func<ServerSwitchLayer::onGoBack(cocos2d::CCObject*)::$_0, std::__ndk1::allocator<ServerSwitchLayer::onGoBack(cocos2d::CCObject*)::$_0>, void (FLAlertLayer*, bool)>::destroy_deallocate()
PUBLIC 58ad4 0 std::__ndk1::__function::__func<ServerSwitchLayer::onGoBack(cocos2d::CCObject*)::$_0, std::__ndk1::allocator<ServerSwitchLayer::onGoBack(cocos2d::CCObject*)::$_0>, void (FLAlertLayer*, bool)>::operator()(FLAlertLayer*&&, bool&&)
PUBLIC 58b18 0 std::__ndk1::__function::__func<ServerSwitchLayer::onGoBack(cocos2d::CCObject*)::$_0, std::__ndk1::allocator<ServerSwitchLayer::onGoBack(cocos2d::CCObject*)::$_0>, void (FLAlertLayer*, bool)>::target(std::type_info const&) const
PUBLIC 58b34 0 std::__ndk1::__function::__func<ServerSwitchLayer::onGoBack(cocos2d::CCObject*)::$_0, std::__ndk1::allocator<ServerSwitchLayer::onGoBack(cocos2d::CCObject*)::$_0>, void (FLAlertLayer*, bool)>::target_type() const
PUBLIC m 58b40 0 geode::Mod::getSavedValue<std::__ndk1::basic_string<char, std::__ndk1::char_traits<char>, std::__ndk1::allocator<char> > >(std::__ndk1::basic_string_view<char, std::__ndk1::char_traits<char> >)
PUBLIC 58d28 0 std::__ndk1::__function::__func<ServerSwitchLayer::onApply(cocos2d::CCObject*)::$_0, std::__ndk1::allocator<ServerSwitchLayer::onApply(cocos2d::CCObject*)::$_0>, void (FLAlertLayer*, bool)>::~__func()
PUBLIC 58d2c 0 std::__ndk1::__function::__func<ServerSwitchLayer::onApply(cocos2d::CCObject*)::$_0, std::__ndk1::allocator<ServerSwitchLayer::onApply(cocos2d::CCObject*)::$_0>, void (FLAlertLayer*, bool)>::__clone() const
PUBLIC 58d50 0 std::__ndk1::__function::__func<ServerSwitchLayer::onApply(cocos2d::CCObject*)::$_0, std::__ndk1::allocator<ServerSwitchLayer::onApply(cocos2d::CCObject*)::$_0>, void (FLAlertLayer*, bool)>::__clone(std::__ndk1::__function::__base<void (FLAlertLayer*, bool)>*) const
PUBLIC 58d60 0 std::__ndk1::__function::__func<ServerSwitchLayer::onApply(cocos2d::CCObject*)::$_0, std::__ndk1::allocator<ServerSwitchLayer::onApply(cocos2d::CCObject*)::$_0>, void (FLAlertLayer*, bool)>::destroy()
PUBLIC 58d64 0 std::__ndk1::__function::__func<ServerSwitchLayer::onApply(cocos2d::CCObject*)::$_0, std::__ndk1::allocator<ServerSwitchLayer::onApply(cocos2d::CCObject*)::$_0>, void (FLAlertLayer*, bool)>::destroy_deallocate()
PUBLIC 58d68 0 std::__ndk1::__function::__func<ServerSwitchLayer::onApply(cocos2d::CCObject*)::$_0, std::__ndk1::allocator<ServerSwitchLayer::onApply(cocos2d::CCObject*)::$_0>, void (FLAlertLayer*, bool)>::operator()(FLAlertLayer*&&, bool&&)
PUBLIC 58d78 0 std::__ndk1::__function::__func<ServerSwitchLayer::onApply(cocos2d::CCObject*)::$_0, std::__ndk1::allocator<ServerSwitchLayer::onApply(cocos2d::CCObject*)::$_0>, void (FLAlertLayer*, bool)>::target(std::type_info const&) const
PUBLIC 58d94 0 std::__ndk1::__function::__func<ServerSwitchLayer::onApply(cocos2d::CCObject*)::$_0, std::__ndk1::allocator<ServerSwitchLayer::onApply(cocos2d::CCObject*)::$_0>, void (FLAlertLayer*, bool)>::target_type() const
PUBLIC 58da0 0 _GLOBAL__sub_I_ServerSwitchLayer.cpp
PUBLIC 58dbc 0 geodeExecFunction6<(anonymous namespace)::ExecFuncUnique6>(geode::ModStateEvent*)
PUBLIC 58eb8 0 geodeExecFunction6<(anonymous namespace)::ExecFuncUnique6>(geode::ModStateEvent*)::{lambda(GDPSUtils::CreateServerEvent*)#1}::__invoke(GDPSUtils::CreateServerEvent*)
PUBLIC 592b4 0 geode::EventListener<geode::EventFilter<GDPSUtils::CreateServerEvent> >::getPool() const
PUBLIC 592b8 0 geode::EventListener<geode::EventFilter<GDPSUtils::CreateServerEvent> >::handle(geode::Event*)
PUBLIC 59458 0 geode::EventListener<geode::EventFilter<GDPSUtils::CreateServerEvent> >::~EventListener()
PUBLIC 594b4 0 geode::EventListener<geode::EventFilter<GDPSUtils::CreateServerEvent> >::~EventListener()
PUBLIC 59518 0 std::__ndk1::__function::__base<geode::ListenerResult(GDPSUtils::CreateServerEvent*)>::~__base()
PUBLIC 5951c 0 std::__ndk1::__function::__func<geode::ListenerResult (*)(GDPSUtils::CreateServerEvent*), std::__ndk1::allocator<geode::ListenerResult (*)(GDPSUtils::CreateServerEvent*)>, geode::ListenerResult(GDPSUtils::CreateServerEvent*)>::~__func()
PUBLIC 59520 0 std::__ndk1::__function::__func<geode::ListenerResult (*)(GDPSUtils::CreateServerEvent*), std::__ndk1::allocator<geode::ListenerResult (*)(GDPSUtils::CreateServerEvent*)>, geode::ListenerResult(GDPSUtils::CreateServerEvent*)>::__clone() const
PUBLIC 59554 0 std::__ndk1::__function::__func<geode::ListenerResult (*)(GDPSUtils::CreateServerEvent*), std::__ndk1::allocator<geode::ListenerResult (*)(GDPSUtils::CreateServerEvent*)>, geode::ListenerResult(GDPSUtils::CreateServerEvent*)>::__clone(std::__ndk1::__function::__base<geode::ListenerResult(GDPSUtils::CreateServerEvent*)>*) const
PUBLIC 59568 0 std::__ndk1::__function::__func<geode::ListenerResult (*)(GDPSUtils::CreateServerEvent*), std::__ndk1::allocator<geode::ListenerResult (*)(GDPSUtils::CreateServerEvent*)>, geode::ListenerResult(GDPSUtils::CreateServerEvent*)>::destroy()
PUBLIC 5956c 0 std::__ndk1::__function::__func<geode::ListenerResult (*)(GDPSUtils::CreateServerEvent*), std::__ndk1::allocator<geode::ListenerResult (*)(GDPSUtils::CreateServerEvent*)>, geode::ListenerResult(GDPSUtils::CreateServerEvent*)>::destroy_deallocate()
PUBLIC 59570 0 std::__ndk1::__function::__func<geode::ListenerResult (*)(GDPSUtils::CreateServerEvent*), std::__ndk1::allocator<geode::ListenerResult (*)(GDPSUtils::CreateServerEvent*)>, geode::ListenerResult(GDPSUtils::CreateServerEvent*)>::operator()(GDPSUtils::CreateServerEvent*&&)
PUBLIC 59580 0 std::__ndk1::__function::__func<geode::ListenerResult (*)(GDPSUtils::CreateServerEvent*), std::__ndk1::allocator<geode::ListenerResult (*)(GDPSUtils::CreateServerEvent*)>, geode::ListenerResult(GDPSUtils::CreateServerEvent*)>::target(std::type_info const&) const
PUBLIC 5959c 0 std::__ndk1::__function::__func<geode::ListenerResult (*)(GDPSUtils::CreateServerEvent*), std::__ndk1::allocator<geode::ListenerResult (*)(GDPSUtils::CreateServerEvent*)>, geode::ListenerResult(GDPSUtils::CreateServerEvent*)>::target_type() const
PUBLIC 595a8 0 geodeExecFunction6<(anonymous namespace)::ExecFuncUnique6>(geode::ModStateEvent*)::{lambda(GDPSUtils::DeleteServerEvent*)#1}::__invoke(GDPSUtils::DeleteServerEvent*)
PUBLIC 599a4 0 geode::EventListener<geode::EventFilter<GDPSUtils::DeleteServerEvent> >::getPool() const
PUBLIC 599a8 0 geode::EventListener<geode::EventFilter<GDPSUtils::DeleteServerEvent> >::handle(geode::Event*)
PUBLIC 59b48 0 geode::EventListener<geode::EventFilter<GDPSUtils::DeleteServerEvent> >::~EventListener()
PUBLIC 59ba4 0 geode::EventListener<geode::EventFilter<GDPSUtils::DeleteServerEvent> >::~EventListener()
PUBLIC 59c08 0 std::__ndk1::__function::__base<geode::ListenerResult(GDPSUtils::DeleteServerEvent*)>::~__base()
PUBLIC 59c0c 0 std::__ndk1::__function::__func<geode::ListenerResult (*)(GDPSUtils::DeleteServerEvent*), std::__ndk1::allocator<geode::ListenerResult (*)(GDPSUtils::DeleteServerEvent*)>, geode::ListenerResult(GDPSUtils::DeleteServerEvent*)>::~__func()
PUBLIC 59c10 0 std::__ndk1::__function::__func<geode::ListenerResult (*)(GDPSUtils::DeleteServerEvent*), std::__ndk1::allocator<geode::ListenerResult (*)(GDPSUtils::DeleteServerEvent*)>, geode::ListenerResult(GDPSUtils::DeleteServerEvent*)>::__clone() const
PUBLIC 59c44 0 std::__ndk1::__function::__func<geode::ListenerResult (*)(GDPSUtils::DeleteServerEvent*), std::__ndk1::allocator<geode::ListenerResult (*)(GDPSUtils::DeleteServerEvent*)>, geode::ListenerResult(GDPSUtils::DeleteServerEvent*)>::__clone(std::__ndk1::__function::__base<geode::ListenerResult(GDPSUtils::DeleteServerEvent*)>*) const
PUBLIC 59c58 0 std::__ndk1::__function::__func<geode::ListenerResult (*)(GDPSUtils::DeleteServerEvent*), std::__ndk1::allocator<geode::ListenerResult (*)(GDPSUtils::DeleteServerEvent*)>, geode::ListenerResult(GDPSUtils::DeleteServerEvent*)>::destroy()
PUBLIC 59c5c 0 std::__ndk1::__function::__func<geode::ListenerResult (*)(GDPSUtils::DeleteServerEvent*), std::__ndk1::allocator<geode::ListenerResult (*)(GDPSUtils::DeleteServerEvent*)>, geode::ListenerResult(GDPSUtils::DeleteServerEvent*)>::destroy_deallocate()
PUBLIC 59c60 0 std::__ndk1::__function::__func<geode::ListenerResult (*)(GDPSUtils::DeleteServerEvent*), std::__ndk1::allocator<geode::ListenerResult (*)(GDPSUtils::DeleteServerEvent*)>, geode::ListenerResult(GDPSUtils::DeleteServerEvent*)>::operator()(GDPSUtils::DeleteServerEvent*&&)
PUBLIC 59c70 0 std::__ndk1::__function::__func<geode::ListenerResult (*)(GDPSUtils::DeleteServerEvent*), std::__ndk1::allocator<geode::ListenerResult (*)(GDPSUtils::DeleteServerEvent*)>, geode::ListenerResult(GDPSUtils::DeleteServerEvent*)>::target(std::type_info const&) const
PUBLIC 59c8c 0 std::__ndk1::__function::__func<geode::ListenerResult (*)(GDPSUtils::DeleteServerEvent*), std::__ndk1::allocator<geode::ListenerResult (*)(GDPSUtils::DeleteServerEvent*)>, geode::ListenerResult(GDPSUtils::DeleteServerEvent*)>::target_type() const
PUBLIC 59c98 0 _GLOBAL__sub_I_GDPSUtils.cpp
PUBLIC m 59dcc 0 PSUtils::get()
PUBLIC m 5a07c 0 PSUtils::initialize(std::__ndk1::basic_string<char, std::__ndk1::char_traits<char>, std::__ndk1::allocator<char> > const&)
PUBLIC m 5a65c 0 PSUtils::isBase()
PUBLIC m 5aa68 0 PSUtils::getConflicts()
PUBLIC m 5aa90 0 PSUtils::getServer()
PUBLIC m 5aafc 0 std::__ndk1::vector<std::__ndk1::basic_string<char, std::__ndk1::char_traits<char>, std::__ndk1::allocator<char> >, std::__ndk1::allocator<std::__ndk1::basic_string<char, std::__ndk1::char_traits<char>, std::__ndk1::allocator<char> > > >::__push_back_slow_path<std::__ndk1::basic_string<char, std::__ndk1::char_traits<char>, std::__ndk1::allocator<char> > >(std::__ndk1::basic_string<char, std::__ndk1::char_traits<char>, std::__ndk1::allocator<char> >&&)
PUBLIC 5ac64 0 RegisterServerEvent::~RegisterServerEvent()
PUBLIC 5aca4 0 RegisterServerEvent::~RegisterServerEvent()
PUBLIC m 5ace8 0 PopupSetting2::createNode(float)
PUBLIC 5aff4 0 std::__ndk1::shared_ptr<PopupSetting2>::~shared_ptr[abi:ne180000]()
PUBLIC 5b044 0 std::__ndk1::shared_ptr<geode::SettingV3>::~shared_ptr[abi:ne180000]()
PUBLIC m 5b094 0 PopupSetting::createNode(float)
PUBLIC 5b3a0 0 std::__ndk1::shared_ptr<PopupSetting>::~shared_ptr[abi:ne180000]()
PUBLIC 5b3f0 0 PopupSetting2::~PopupSetting2()
PUBLIC 5b414 0 PopupSetting2::load(matjson::Value const&)
PUBLIC 5b41c 0 PopupSetting2::save(matjson::Value&) const
PUBLIC 5b424 0 PopupSetting2::isDefaultValue() const
PUBLIC 5b42c 0 PopupSetting2::reset()
PUBLIC 5b430 0 PopupSetting::~PopupSetting()
PUBLIC 5b454 0 PopupSetting::load(matjson::Value const&)
PUBLIC 5b45c 0 PopupSetting::save(matjson::Value&) const
PUBLIC 5b464 0 PopupSetting::isDefaultValue() const
PUBLIC 5b46c 0 PopupSetting::reset()
PUBLIC 5b470 0 PopupSetting2Node::~PopupSetting2Node()
PUBLIC 5b4f0 0 PopupSetting2Node::updateState(cocos2d::CCNode*)
PUBLIC 5b67c 0 PopupSetting2Node::onCommit()
PUBLIC 5b680 0 PopupSetting2Node::onResetToDefault()
PUBLIC 5b684 0 PopupSetting2Node::hasUncommittedChanges() const
PUBLIC 5b68c 0 PopupSetting2Node::hasNonDefaultValue() const
PUBLIC m 5b694 0 PopupSetting2Node::onButton(cocos2d::CCObject*)
PUBLIC m 5ba70 0 geode::SettingNodeV3::~SettingNodeV3()
PUBLIC 5bae0 0 PopupSettingNode::~PopupSettingNode()
PUBLIC 5bb60 0 PopupSettingNode::updateState(cocos2d::CCNode*)
PUBLIC 5bcec 0 PopupSettingNode::onCommit()
PUBLIC 5bcf0 0 PopupSettingNode::onResetToDefault()
PUBLIC 5bcf4 0 PopupSettingNode::hasUncommittedChanges() const
PUBLIC 5bcfc 0 PopupSettingNode::hasNonDefaultValue() const
PUBLIC m 5bd04 0 PopupSettingNode::onButton(cocos2d::CCObject*)
PUBLIC 5c0e0 0 std::__ndk1::__throw_bad_weak_ptr[abi:ne180000]()
PUBLIC m 5c114 0 PopupSetting::parse(std::__ndk1::basic_string<char, std::__ndk1::char_traits<char>, std::__ndk1::allocator<char> > const&, std::__ndk1::basic_string<char, std::__ndk1::char_traits<char>, std::__ndk1::allocator<char> > const&, matjson::Value const&)
PUBLIC m 5c4b8 0 geode::impl::ResultData<void, std::__ndk1::basic_string<char, std::__ndk1::char_traits<char>, std::__ndk1::allocator<char> > >::~ResultData()
PUBLIC m 5c52c 0 PopupSetting2::parse(std::__ndk1::basic_string<char, std::__ndk1::char_traits<char>, std::__ndk1::allocator<char> > const&, std::__ndk1::basic_string<char, std::__ndk1::char_traits<char>, std::__ndk1::allocator<char> > const&, matjson::Value const&)
PUBLIC 5c8d0 0 std::__ndk1::__shared_ptr_emplace<PopupSetting, std::__ndk1::allocator<PopupSetting> >::~__shared_ptr_emplace()
PUBLIC 5c8e0 0 std::__ndk1::__shared_ptr_emplace<PopupSetting, std::__ndk1::allocator<PopupSetting> >::~__shared_ptr_emplace()
PUBLIC 5c910 0 std::__ndk1::__shared_ptr_emplace<PopupSetting, std::__ndk1::allocator<PopupSetting> >::__on_zero_shared()
PUBLIC 5c91c 0 std::__ndk1::__shared_ptr_emplace<PopupSetting, std::__ndk1::allocator<PopupSetting> >::__on_zero_shared_weak()
PUBLIC 5c920 0 std::__ndk1::__function::__func<changeToGenerator<geode::Result<std::__ndk1::shared_ptr<PopupSetting>, std::__ndk1::basic_string<char, std::__ndk1::char_traits<char>, std::__ndk1::allocator<char> > > (&)(std::__ndk1::basic_string<char, std::__ndk1::char_traits<char>, std::__ndk1::allocator<char> > const&, std::__ndk1::basic_string<char, std::__ndk1::char_traits<char>, std::__ndk1::allocator<char> > const&, matjson::Value const&)>(geode::Result<std::__ndk1::shared_ptr<PopupSetting>, std::__ndk1::basic_string<char, std::__ndk1::char_traits<char>, std::__ndk1::allocator<char> > > (&)(std::__ndk1::basic_string<char, std::__ndk1::char_traits<char>, std::__ndk1::allocator<char> > const&, std::__ndk1::basic_string<char, std::__ndk1::char_traits<char>, std::__ndk1::allocator<char> > const&, matjson::Value const&))::{lambda(std::__ndk1::basic_string<char, std::__ndk1::char_traits<char>, std::__ndk1::allocator<char> > const&, std::__ndk1::basic_string<char, std::__ndk1::char_traits<char>, std::__ndk1::allocator<char> > const&, matjson::Value const&)#1}, std::__ndk1::allocator<changeToGenerator<geode::Result<std::__ndk1::shared_ptr<PopupSetting>, std::__ndk1::basic_string<char, std::__ndk1::char_traits<char>, std::__ndk1::allocator<char> > > (&)(std::__ndk1::basic_string<char, std::__ndk1::char_traits<char>, std::__ndk1::allocator<char> > const&, std::__ndk1::basic_string<char, std::__ndk1::char_traits<char>, std::__ndk1::allocator<char> > const&, matjson::Value const&)>(geode::Result<std::__ndk1::shared_ptr<PopupSetting>, std::__ndk1::basic_string<char, std::__ndk1::char_traits<char>, std::__ndk1::allocator<char> > > (&)(std::__ndk1::basic_string<char, std::__ndk1::char_traits<char>, std::__ndk1::allocator<char> > const&, std::__ndk1::basic_string<char, std::__ndk1::char_traits<char>, std::__ndk1::allocator<char> > const&, matjson::Value const&))::{lambda(std::__ndk1::basic_string<char, std::__ndk1::char_traits<char>, std::__ndk1::allocator<char> > const&, std::__ndk1::basic_string<char, std::__ndk1::char_traits<char>, std::__ndk1::allocator<char> > const&, matjson::Value const&)#1}>, geode::Result<std::__ndk1::shared_ptr<geode::SettingV3>, std::__ndk1::basic_string<char, std::__ndk1::char_traits<char>, std::__ndk1::allocator<char> > >(std::__ndk1::basic_string<char, std::__ndk1::char_traits<char>, std::__ndk1::allocator<char> > const&, std::__ndk1::basic_string<char, std::__ndk1::char_traits<char>, std::__ndk1::allocator<char> > const&, matjson::Value const&)>::~__func()
PUBLIC 5c924 0 std::__ndk1::__function::__func<changeToGenerator<geode::Result<std::__ndk1::shared_ptr<PopupSetting>, std::__ndk1::basic_string<char, std::__ndk1::char_traits<char>, std::__ndk1::allocator<char> > > (&)(std::__ndk1::basic_string<char, std::__ndk1::char_traits<char>, std::__ndk1::allocator<char> > const&, std::__ndk1::basic_string<char, std::__ndk1::char_traits<char>, std::__ndk1::allocator<char> > const&, matjson::Value const&)>(geode::Result<std::__ndk1::shared_ptr<PopupSetting>, std::__ndk1::basic_string<char, std::__ndk1::char_traits<char>, std::__ndk1::allocator<char> > > (&)(std::__ndk1::basic_string<char, std::__ndk1::char_traits<char>, std::__ndk1::allocator<char> > const&, std::__ndk1::basic_string<char, std::__ndk1::char_traits<char>, std::__ndk1::allocator<char> > const&, matjson::Value const&))::{lambda(std::__ndk1::basic_string<char, std::__ndk1::char_traits<char>, std::__ndk1::allocator<char> > const&, std::__ndk1::basic_string<char, std::__ndk1::char_traits<char>, std::__ndk1::allocator<char> > const&, matjson::Value const&)#1}, std::__ndk1::allocator<changeToGenerator<geode::Result<std::__ndk1::shared_ptr<PopupSetting>, std::__ndk1::basic_string<char, std::__ndk1::char_traits<char>, std::__ndk1::allocator<char> > > (&)(std::__ndk1::basic_string<char, std::__ndk1::char_traits<char>, std::__ndk1::allocator<char> > const&, std::__ndk1::basic_string<char, std::__ndk1::char_traits<char>, std::__ndk1::allocator<char> > const&, matjson::Value const&)>(geode::Result<std::__ndk1::shared_ptr<PopupSetting>, std::__ndk1::basic_string<char, std::__ndk1::char_traits<char>, std::__ndk1::allocator<char> > > (&)(std::__ndk1::basic_string<char, std::__ndk1::char_traits<char>, std::__ndk1::allocator<char> > const&, std::__ndk1::basic_string<char, std::__ndk1::char_traits<char>, std::__ndk1::allocator<char> > const&, matjson::Value const&))::{lambda(std::__ndk1::basic_string<char, std::__ndk1::char_traits<char>, std::__ndk1::allocator<char> > const&, std::__ndk1::basic_string<char, std::__ndk1::char_traits<char>, std::__ndk1::allocator<char> > const&, matjson::Value const&)#1}>, geode::Result<std::__ndk1::shared_ptr<geode::SettingV3>, std::__ndk1::basic_string<char, std::__ndk1::char_traits<char>, std::__ndk1::allocator<char> > >(std::__ndk1::basic_string<char, std::__ndk1::char_traits<char>, std::__ndk1::allocator<char> > const&, std::__ndk1::basic_string<char, std::__ndk1::char_traits<char>, std::__ndk1::allocator<char> > const&, matjson::Value const&)>::__clone() const
PUBLIC 5c958 0 std::__ndk1::__function::__func<changeToGenerator<geode::Result<std::__ndk1::shared_ptr<PopupSetting>, std::__ndk1::basic_string<char, std::__ndk1::char_traits<char>, std::__ndk1::allocator<char> > > (&)(std::__ndk1::basic_string<char, std::__ndk1::char_traits<char>, std::__ndk1::allocator<char> > const&, std::__ndk1::basic_string<char, std::__ndk1::char_traits<char>, std::__ndk1::allocator<char> > const&, matjson::Value const&)>(geode::Result<std::__ndk1::shared_ptr<PopupSetting>, std::__ndk1::basic_string<char, std::__ndk1::char_traits<char>, std::__ndk1::allocator<char> > > (&)(std::__ndk1::basic_string<char, std::__ndk1::char_traits<char>, std::__ndk1::allocator<char> > const&, std::__ndk1::basic_string<char, std::__ndk1::char_traits<char>, std::__ndk1::allocator<char> > const&, matjson::Value const&))::{lambda(std::__ndk1::basic_string<char, std::__ndk1::char_traits<char>, std::__ndk1::allocator<char> > const&, std::__ndk1::basic_string<char, std::__ndk1::char_traits<char>, std::__ndk1::allocator<char> > const&, matjson::Value const&)#1}, std::__ndk1::allocator<changeToGenerator<geode::Result<std::__ndk1::shared_ptr<PopupSetting>, std::__ndk1::basic_string<char, std::__ndk1::char_traits<char>, std::__ndk1::allocator<char> > > (&)(std::__ndk1::basic_string<char, std::__ndk1::char_traits<char>, std::__ndk1::allocator<char> > const&, std::__ndk1::basic_string<char, std::__ndk1::char_traits<char>, std::__ndk1::allocator<char> > const&, matjson::Value const&)>(geode::Result<std::__ndk1::shared_ptr<PopupSetting>, std::__ndk1::basic_string<char, std::__ndk1::char_traits<char>, std::__ndk1::allocator<char> > > (&)(std::__ndk1::basic_string<char, std::__ndk1::char_traits<char>, std::__ndk1::allocator<char> > const&, std::__ndk1::basic_string<char, std::__ndk1::char_traits<char>, std::__ndk1::allocator<char> > const&, matjson::Value const&))::{lambda(std::__ndk1::basic_string<char, std::__ndk1::char_traits<char>, std::__ndk1::allocator<char> > const&, std::__ndk1::basic_string<char, std::__ndk1::char_traits<char>, std::__ndk1::allocator<char> > const&, matjson::Value const&)#1}>, geode::Result<std::__ndk1::shared_ptr<geode::SettingV3>, std::__ndk1::basic_string<char, std::__ndk1::char_traits<char>, std::__ndk1::allocator<char> > >(std::__ndk1::basic_string<char, std::__ndk1::char_traits<char>, std::__ndk1::allocator<char> > const&, std::__ndk1::basic_string<char, std::__ndk1::char_traits<char>, std::__ndk1::allocator<char> > const&, matjson::Value const&)>::__clone(std::__ndk1::__function::__base<geode::Result<std::__ndk1::shared_ptr<geode::SettingV3>, std::__ndk1::basic_string<char, std::__ndk1::char_traits<char>, std::__ndk1::allocator<char> > >(std::__ndk1::basic_string<char, std::__ndk1::char_traits<char>, std::__ndk1::allocator<char> > const&, std::__ndk1::basic_string<char, std::__ndk1::char_traits<char>, std::__ndk1::allocator<char> > const&, matjson::Value const&)>*) const
PUBLIC 5c96c 0 std::__ndk1::__function::__func<changeToGenerator<geode::Result<std::__ndk1::shared_ptr<PopupSetting>, std::__ndk1::basic_string<char, std::__ndk1::char_traits<char>, std::__ndk1::allocator<char> > > (&)(std::__ndk1::basic_string<char, std::__ndk1::char_traits<char>, std::__ndk1::allocator<char> > const&, std::__ndk1::basic_string<char, std::__ndk1::char_traits<char>, std::__ndk1::allocator<char> > const&, matjson::Value const&)>(geode::Result<std::__ndk1::shared_ptr<PopupSetting>, std::__ndk1::basic_string<char, std::__ndk1::char_traits<char>, std::__ndk1::allocator<char> > > (&)(std::__ndk1::basic_string<char, std::__ndk1::char_traits<char>, std::__ndk1::allocator<char> > const&, std::__ndk1::basic_string<char, std::__ndk1::char_traits<char>, std::__ndk1::allocator<char> > const&, matjson::Value const&))::{lambda(std::__ndk1::basic_string<char, std::__ndk1::char_traits<char>, std::__ndk1::allocator<char> > const&, std::__ndk1::basic_string<char, std::__ndk1::char_traits<char>, std::__ndk1::allocator<char> > const&, matjson::Value const&)#1}, std::__ndk1::allocator<changeToGenerator<geode::Result<std::__ndk1::shared_ptr<PopupSetting>, std::__ndk1::basic_string<char, std::__ndk1::char_traits<char>, std::__ndk1::allocator<char> > > (&)(std::__ndk1::basic_string<char, std::__ndk1::char_traits<char>, std::__ndk1::allocator<char> > const&, std::__ndk1::basic_string<char, std::__ndk1::char_traits<char>, std::__ndk1::allocator<char> > const&, matjson::Value const&)>(geode::Result<std::__ndk1::shared_ptr<PopupSetting>, std::__ndk1::basic_string<char, std::__ndk1::char_traits<char>, std::__ndk1::allocator<char> > > (&)(std::__ndk1::basic_string<char, std::__ndk1::char_traits<char>, std::__ndk1::allocator<char> > const&, std::__ndk1::basic_string<char, std::__ndk1::char_traits<char>, std::__ndk1::allocator<char> > const&, matjson::Value const&))::{lambda(std::__ndk1::basic_string<char, std::__ndk1::char_traits<char>, std::__ndk1::allocator<char> > const&, std::__ndk1::basic_string<char, std::__ndk1::char_traits<char>, std::__ndk1::allocator<char> > const&, matjson::Value const&)#1}>, geode::Result<std::__ndk1::shared_ptr<geode::SettingV3>, std::__ndk1::basic_string<char, std::__ndk1::char_traits<char>, std::__ndk1::allocator<char> > >(std::__ndk1::basic_string<char, std::__ndk1::char_traits<char>, std::__ndk1::allocator<char> > const&, std::__ndk1::basic_string<char, std::__ndk1::char_traits<char>, std::__ndk1::allocator<char> > const&, matjson::Value const&)>::destroy()
PUBLIC 5c970 0 std::__ndk1::__function::__func<changeToGenerator<geode::Result<std::__ndk1::shared_ptr<PopupSetting>, std::__ndk1::basic_string<char, std::__ndk1::char_traits<char>, std::__ndk1::allocator<char> > > (&)(std::__ndk1::basic_string<char, std::__ndk1::char_traits<char>, std::__ndk1::allocator<char> > const&, std::__ndk1::basic_string<char, std::__ndk1::char_traits<char>, std::__ndk1::allocator<char> > const&, matjson::Value const&)>(geode::Result<std::__ndk1::shared_ptr<PopupSetting>, std::__ndk1::basic_string<char, std::__ndk1::char_traits<char>, std::__ndk1::allocator<char> > > (&)(std::__ndk1::basic_string<char, std::__ndk1::char_traits<char>, std::__ndk1::allocator<char> > const&, std::__ndk1::basic_string<char, std::__ndk1::char_traits<char>, std::__ndk1::allocator<char> > const&, matjson::Value const&))::{lambda(std::__ndk1::basic_string<char, std::__ndk1::char_traits<char>, std::__ndk1::allocator<char> > const&, std::__ndk1::basic_string<char, std::__ndk1::char_traits<char>, std::__ndk1::allocator<char> > const&, matjson::Value const&)#1}, std::__ndk1::allocator<changeToGenerator<geode::Result<std::__ndk1::shared_ptr<PopupSetting>, std::__ndk1::basic_string<char, std::__ndk1::char_traits<char>, std::__ndk1::allocator<char> > > (&)(std::__ndk1::basic_string<char, std::__ndk1::char_traits<char>, std::__ndk1::allocator<char> > const&, std::__ndk1::basic_string<char, std::__ndk1::char_traits<char>, std::__ndk1::allocator<char> > const&, matjson::Value const&)>(geode::Result<std::__ndk1::shared_ptr<PopupSetting>, std::__ndk1::basic_string<char, std::__ndk1::char_traits<char>, std::__ndk1::allocator<char> > > (&)(std::__ndk1::basic_string<char, std::__ndk1::char_traits<char>, std::__ndk1::allocator<char> > const&, std::__ndk1::basic_string<char, std::__ndk1::char_traits<char>, std::__ndk1::allocator<char> > const&, matjson::Value const&))::{lambda(std::__ndk1::basic_string<char, std::__ndk1::char_traits<char>, std::__ndk1::allocator<char> > const&, std::__ndk1::basic_string<char, std::__ndk1::char_traits<char>, std::__ndk1::allocator<char> > const&, matjson::Value const&)#1}>, geode::Result<std::__ndk1::shared_ptr<geode::SettingV3>, std::__ndk1::basic_string<char, std::__ndk1::char_traits<char>, std::__ndk1::allocator<char> > >(std::__ndk1::basic_string<char, std::__ndk1::char_traits<char>, std::__ndk1::allocator<char> > const&, std::__ndk1::basic_string<char, std::__ndk1::char_traits<char>, std::__ndk1::allocator<char> > const&, matjson::Value const&)>::destroy_deallocate()
PUBLIC 5c974 0 std::__ndk1::__function::__func<changeToGenerator<geode::Result<std::__ndk1::shared_ptr<PopupSetting>, std::__ndk1::basic_string<char, std::__ndk1::char_traits<char>, std::__ndk1::allocator<char> > > (&)(std::__ndk1::basic_string<char, std::__ndk1::char_traits<char>, std::__ndk1::allocator<char> > const&, std::__ndk1::basic_string<char, std::__ndk1::char_traits<char>, std::__ndk1::allocator<char> > const&, matjson::Value const&)>(geode::Result<std::__ndk1::shared_ptr<PopupSetting>, std::__ndk1::basic_string<char, std::__ndk1::char_traits<char>, std::__ndk1::allocator<char> > > (&)(std::__ndk1::basic_string<char, std::__ndk1::char_traits<char>, std::__ndk1::allocator<char> > const&, std::__ndk1::basic_string<char, std::__ndk1::char_traits<char>, std::__ndk1::allocator<char> > const&, matjson::Value const&))::{lambda(std::__ndk1::basic_string<char, std::__ndk1::char_traits<char>, std::__ndk1::allocator<char> > const&, std::__ndk1::basic_string<char, std::__ndk1::char_traits<char>, std::__ndk1::allocator<char> > const&, matjson::Value const&)#1}, std::__ndk1::allocator<changeToGenerator<geode::Result<std::__ndk1::shared_ptr<PopupSetting>, std::__ndk1::basic_string<char, std::__ndk1::char_traits<char>, std::__ndk1::allocator<char> > > (&)(std::__ndk1::basic_string<char, std::__ndk1::char_traits<char>, std::__ndk1::allocator<char> > const&, std::__ndk1::basic_string<char, std::__ndk1::char_traits<char>, std::__ndk1::allocator<char> > const&, matjson::Value const&)>(geode::Result<std::__ndk1::shared_ptr<PopupSetting>, std::__ndk1::basic_string<char, std::__ndk1::char_traits<char>, std::__ndk1::allocator<char> > > (&)(std::__ndk1::basic_string<char, std::__ndk1::char_traits<char>, std::__ndk1::allocator<char> > const&, std::__ndk1::basic_string<char, std::__ndk1::char_traits<char>, std::__ndk1::allocator<char> > const&, matjson::Value const&))::{lambda(std::__ndk1::basic_string<char, std::__ndk1::char_traits<char>, std::__ndk1::allocator<char> > const&, std::__ndk1::basic_string<char, std::__ndk1::char_traits<char>, std::__ndk1::allocator<char> > const&, matjson::Value const&)#1}>, geode::Result<std::__ndk1::shared_ptr<geode::SettingV3>, std::__ndk1::basic_string<char, std::__ndk1::char_traits<char>, std::__ndk1::allocator<char> > >(std::__ndk1::basic_string<char, std::__ndk1::char_traits<char>, std::__ndk1::allocator<char> > const&, std::__ndk1::basic_string<char, std::__ndk1::char_traits<char>, std::__ndk1::allocator<char> > const&, matjson::Value const&)>::operator()(std::__ndk1::basic_string<char, std::__ndk1::char_traits<char>, std::__ndk1::allocator<char> > const&, std::__ndk1::basic_string<char, std::__ndk1::char_traits<char>, std::__ndk1::allocator<char> > const&, matjson::Value const&)
PUBLIC 5caa8 0 std::__ndk1::__function::__func<changeToGenerator<geode::Result<std::__ndk1::shared_ptr<PopupSetting>, std::__ndk1::basic_string<char, std::__ndk1::char_traits<char>, std::__ndk1::allocator<char> > > (&)(std::__ndk1::basic_string<char, std::__ndk1::char_traits<char>, std::__ndk1::allocator<char> > const&, std::__ndk1::basic_string<char, std::__ndk1::char_traits<char>, std::__ndk1::allocator<char> > const&, matjson::Value const&)>(geode::Result<std::__ndk1::shared_ptr<PopupSetting>, std::__ndk1::basic_string<char, std::__ndk1::char_traits<char>, std::__ndk1::allocator<char> > > (&)(std::__ndk1::basic_string<char, std::__ndk1::char_traits<char>, std::__ndk1::allocator<char> > const&, std::__ndk1::basic_string<char, std::__ndk1::char_traits<char>, std::__ndk1::allocator<char> > const&, matjson::Value const&))::{lambda(std::__ndk1::basic_string<char, std::__ndk1::char_traits<char>, std::__ndk1::allocator<char> > const&, std::__ndk1::basic_string<char, std::__ndk1::char_traits<char>, std::__ndk1::allocator<char> > const&, matjson::Value const&)#1}, std::__ndk1::allocator<changeToGenerator<geode::Result<std::__ndk1::shared_ptr<PopupSetting>, std::__ndk1::basic_string<char, std::__ndk1::char_traits<char>, std::__ndk1::allocator<char> > > (&)(std::__ndk1::basic_string<char, std::__ndk1::char_traits<char>, std::__ndk1::allocator<char> > const&, std::__ndk1::basic_string<char, std::__ndk1::char_traits<char>, std::__ndk1::allocator<char> > const&, matjson::Value const&)>(geode::Result<std::__ndk1::shared_ptr<PopupSetting>, std::__ndk1::basic_string<char, std::__ndk1::char_traits<char>, std::__ndk1::allocator<char> > > (&)(std::__ndk1::basic_string<char, std::__ndk1::char_traits<char>, std::__ndk1::allocator<char> > const&, std::__ndk1::basic_string<char, std::__ndk1::char_traits<char>, std::__ndk1::allocator<char> > const&, matjson::Value const&))::{lambda(std::__ndk1::basic_string<char, std::__ndk1::char_traits<char>, std::__ndk1::allocator<char> > const&, std::__ndk1::basic_string<char, std::__ndk1::char_traits<char>, std::__ndk1::allocator<char> > const&, matjson::Value const&)#1}>, geode::Result<std::__ndk1::shared_ptr<geode::SettingV3>, std::__ndk1::basic_string<char, std::__ndk1::char_traits<char>, std::__ndk1::allocator<char> > >(std::__ndk1::basic_string<char, std::__ndk1::char_traits<char>, std::__ndk1::allocator<char> > const&, std::__ndk1::basic_string<char, std::__ndk1::char_traits<char>, std::__ndk1::allocator<char> > const&, matjson::Value const&)>::target(std::type_info const&) const
PUBLIC 5cac4 0 std::__ndk1::__function::__func<changeToGenerator<geode::Result<std::__ndk1::shared_ptr<PopupSetting>, std::__ndk1::basic_string<char, std::__ndk1::char_traits<char>, std::__ndk1::allocator<char> > > (&)(std::__ndk1::basic_string<char, std::__ndk1::char_traits<char>, std::__ndk1::allocator<char> > const&, std::__ndk1::basic_string<char, std::__ndk1::char_traits<char>, std::__ndk1::allocator<char> > const&, matjson::Value const&)>(geode::Result<std::__ndk1::shared_ptr<PopupSetting>, std::__ndk1::basic_string<char, std::__ndk1::char_traits<char>, std::__ndk1::allocator<char> > > (&)(std::__ndk1::basic_string<char, std::__ndk1::char_traits<char>, std::__ndk1::allocator<char> > const&, std::__ndk1::basic_string<char, std::__ndk1::char_traits<char>, std::__ndk1::allocator<char> > const&, matjson::Value const&))::{lambda(std::__ndk1::basic_string<char, std::__ndk1::char_traits<char>, std::__ndk1::allocator<char> > const&, std::__ndk1::basic_string<char, std::__ndk1::char_traits<char>, std::__ndk1::allocator<char> > const&, matjson::Value const&)#1}, std::__ndk1::allocator<changeToGenerator<geode::Result<std::__ndk1::shared_ptr<PopupSetting>, std::__ndk1::basic_string<char, std::__ndk1::char_traits<char>, std::__ndk1::allocator<char> > > (&)(std::__ndk1::basic_string<char, std::__ndk1::char_traits<char>, std::__ndk1::allocator<char> > const&, std::__ndk1::basic_string<char, std::__ndk1::char_traits<char>, std::__ndk1::allocator<char> > const&, matjson::Value const&)>(geode::Result<std::__ndk1::shared_ptr<PopupSetting>, std::__ndk1::basic_string<char, std::__ndk1::char_traits<char>, std::__ndk1::allocator<char> > > (&)(std::__ndk1::basic_string<char, std::__ndk1::char_traits<char>, std::__ndk1::allocator<char> > const&, std::__ndk1::basic_string<char, std::__ndk1::char_traits<char>, std::__ndk1::allocator<char> > const&, matjson::Value const&))::{lambda(std::__ndk1::basic_string<char, std::__ndk1::char_traits<char>, std::__ndk1::allocator<char> > const&, std::__ndk1::basic_string<char, std::__ndk1::char_traits<char>, std::__ndk1::allocator<char> > const&, matjson::Value const&)#1}>, geode::Result<std::__ndk1::shared_ptr<geode::SettingV3>, std::__ndk1::basic_string<char, std::__ndk1::char_traits<char>, std::__ndk1::allocator<char> > >(std::__ndk1::basic_string<char, std::__ndk1::char_traits<char>, std::__ndk1::allocator<char> > const&, std::__ndk1::basic_string<char, std::__ndk1::char_traits<char>, std::__ndk1::allocator<char> > const&, matjson::Value const&)>::target_type() const
PUBLIC 5cad0 0 std::__ndk1::__variant_detail::__visitation::__base::__dispatcher<(unsigned long)0>::__dispatch[abi:ne180000]<std::__ndk1::__variant_detail::__dtor<std::__ndk1::__variant_detail::__traits<std::__ndk1::shared_ptr<PopupSetting>, std::__ndk1::basic_string<char, std::__ndk1::char_traits<char>, std::__ndk1::allocator<char> > >, (std::__ndk1::__variant_detail::_Trait)1>::__destroy[abi:ne180000]()::{lambda(auto:1&)#1}, std::__ndk1::__variant_detail::__base<(std::__ndk1::__variant_detail::__traits<std::__ndk1::shared_ptr<PopupSetting>, std::__ndk1::basic_string<char, std::__ndk1::char_traits<char>, std::__ndk1::allocator<char> > >)1, PopupSetting, std::__ndk1::allocator<char> >&>(std::__ndk1::__variant_detail::__dtor<std::__ndk1::__variant_detail::__traits<std::__ndk1::shared_ptr<PopupSetting>, std::__ndk1::basic_string<char, std::__ndk1::char_traits<char>, std::__ndk1::allocator<char> > >, (std::__ndk1::__variant_detail::_Trait)1>, std::__ndk1::__variant_detail::__base<(std::__ndk1::__variant_detail::__traits<std::__ndk1::shared_ptr<PopupSetting>, std::__ndk1::basic_string<char, std::__ndk1::char_traits<char>, std::__ndk1::allocator<char> > >)1, PopupSetting, std::__ndk1::allocator<char> >&)
PUBLIC 5cb20 0 std::__ndk1::__variant_detail::__visitation::__base::__dispatcher<(unsigned long)1>::__dispatch[abi:ne180000]<std::__ndk1::__variant_detail::__dtor<std::__ndk1::__variant_detail::__traits<std::__ndk1::shared_ptr<PopupSetting>, std::__ndk1::basic_string<char, std::__ndk1::char_traits<char>, std::__ndk1::allocator<char> > >, (std::__ndk1::__variant_detail::_Trait)1>::__destroy[abi:ne180000]()::{lambda(auto:1&)#1}, std::__ndk1::__variant_detail::__base<(std::__ndk1::__variant_detail::__traits<std::__ndk1::shared_ptr<PopupSetting>, std::__ndk1::basic_string<char, std::__ndk1::char_traits<char>, std::__ndk1::allocator<char> > >)1, PopupSetting, std::__ndk1::allocator<char> >&>(std::__ndk1::__variant_detail::__dtor<std::__ndk1::__variant_detail::__traits<std::__ndk1::shared_ptr<PopupSetting>, std::__ndk1::basic_string<char, std::__ndk1::char_traits<char>, std::__ndk1::allocator<char> > >, (std::__ndk1::__variant_detail::_Trait)1>, std::__ndk1::__variant_detail::__base<(std::__ndk1::__variant_detail::__traits<std::__ndk1::shared_ptr<PopupSetting>, std::__ndk1::basic_string<char, std::__ndk1::char_traits<char>, std::__ndk1::allocator<char> > >)1, PopupSetting, std::__ndk1::allocator<char> >&)
PUBLIC 5cb34 0 std::__ndk1::__variant_detail::__visitation::__base::__dispatcher<(unsigned long)0>::__dispatch[abi:ne180000]<std::__ndk1::__variant_detail::__dtor<std::__ndk1::__variant_detail::__traits<std::__ndk1::monostate, std::__ndk1::basic_string<char, std::__ndk1::char_traits<char>, std::__ndk1::allocator<char> > >, (std::__ndk1::__variant_detail::_Trait)1>::__destroy[abi:ne180000]()::{lambda(auto:1&)#1}, std::__ndk1::__variant_detail::__base<(std::__ndk1::__variant_detail::__traits<std::__ndk1::monostate, std::__ndk1::basic_string<char, std::__ndk1::char_traits<char>, std::__ndk1::allocator<char> > >)1, std::__ndk1::__variant_detail::__traits, std::__ndk1::allocator<char> >&>(std::__ndk1::__variant_detail::__dtor<std::__ndk1::__variant_detail::__traits<std::__ndk1::monostate, std::__ndk1::basic_string<char, std::__ndk1::char_traits<char>, std::__ndk1::allocator<char> > >, (std::__ndk1::__variant_detail::_Trait)1>, std::__ndk1::__variant_detail::__base<(std::__ndk1::__variant_detail::__traits<std::__ndk1::monostate, std::__ndk1::basic_string<char, std::__ndk1::char_traits<char>, std::__ndk1::allocator<char> > >)1, std::__ndk1::__variant_detail::__traits, std::__ndk1::allocator<char> >&)
PUBLIC 5cb38 0 std::__ndk1::__variant_detail::__visitation::__base::__dispatcher<(unsigned long)1>::__dispatch[abi:ne180000]<std::__ndk1::__variant_detail::__dtor<std::__ndk1::__variant_detail::__traits<std::__ndk1::monostate, std::__ndk1::basic_string<char, std::__ndk1::char_traits<char>, std::__ndk1::allocator<char> > >, (std::__ndk1::__variant_detail::_Trait)1>::__destroy[abi:ne180000]()::{lambda(auto:1&)#1}, std::__ndk1::__variant_detail::__base<(std::__ndk1::__variant_detail::__traits<std::__ndk1::monostate, std::__ndk1::basic_string<char, std::__ndk1::char_traits<char>, std::__ndk1::allocator<char> > >)1, std::__ndk1::__variant_detail::__traits, std::__ndk1::allocator<char> >&>(std::__ndk1::__variant_detail::__dtor<std::__ndk1::__variant_detail::__traits<std::__ndk1::monostate, std::__ndk1::basic_string<char, std::__ndk1::char_traits<char>, std::__ndk1::allocator<char> > >, (std::__ndk1::__variant_detail::_Trait)1>, std::__ndk1::__variant_detail::__base<(std::__ndk1::__variant_detail::__traits<std::__ndk1::monostate, std::__ndk1::basic_string<char, std::__ndk1::char_traits<char>, std::__ndk1::allocator<char> > >)1, std::__ndk1::__variant_detail::__traits, std::__ndk1::allocator<char> >&)
PUBLIC 5cb4c 0 std::__ndk1::__shared_ptr_emplace<PopupSetting2, std::__ndk1::allocator<PopupSetting2> >::~__shared_ptr_emplace()
PUBLIC 5cb5c 0 std::__ndk1::__shared_ptr_emplace<PopupSetting2, std::__ndk1::allocator<PopupSetting2> >::~__shared_ptr_emplace()
PUBLIC 5cb8c 0 std::__ndk1::__shared_ptr_emplace<PopupSetting2, std::__ndk1::allocator<PopupSetting2> >::__on_zero_shared()
PUBLIC 5cb98 0 std::__ndk1::__shared_ptr_emplace<PopupSetting2, std::__ndk1::allocator<PopupSetting2> >::__on_zero_shared_weak()
PUBLIC 5cb9c 0 std::__ndk1::__function::__base<geode::Result<std::__ndk1::shared_ptr<geode::SettingV3>, std::__ndk1::basic_string<char, std::__ndk1::char_traits<char>, std::__ndk1::allocator<char> > >(std::__ndk1::basic_string<char, std::__ndk1::char_traits<char>, std::__ndk1::allocator<char> > const&, std::__ndk1::basic_string<char, std::__ndk1::char_traits<char>, std::__ndk1::allocator<char> > const&, matjson::Value const&)>::~__base()
PUBLIC 5cba0 0 std::__ndk1::__function::__func<changeToGenerator<geode::Result<std::__ndk1::shared_ptr<PopupSetting2>, std::__ndk1::basic_string<char, std::__ndk1::char_traits<char>, std::__ndk1::allocator<char> > > (&)(std::__ndk1::basic_string<char, std::__ndk1::char_traits<char>, std::__ndk1::allocator<char> > const&, std::__ndk1::basic_string<char, std::__ndk1::char_traits<char>, std::__ndk1::allocator<char> > const&, matjson::Value const&)>(geode::Result<std::__ndk1::shared_ptr<PopupSetting2>, std::__ndk1::basic_string<char, std::__ndk1::char_traits<char>, std::__ndk1::allocator<char> > > (&)(std::__ndk1::basic_string<char, std::__ndk1::char_traits<char>, std::__ndk1::allocator<char> > const&, std::__ndk1::basic_string<char, std::__ndk1::char_traits<char>, std::__ndk1::allocator<char> > const&, matjson::Value const&))::{lambda(std::__ndk1::basic_string<char, std::__ndk1::char_traits<char>, std::__ndk1::allocator<char> > const&, std::__ndk1::basic_string<char, std::__ndk1::char_traits<char>, std::__ndk1::allocator<char> > const&, matjson::Value const&)#1}, std::__ndk1::allocator<changeToGenerator<geode::Result<std::__ndk1::shared_ptr<PopupSetting2>, std::__ndk1::basic_string<char, std::__ndk1::char_traits<char>, std::__ndk1::allocator<char> > > (&)(std::__ndk1::basic_string<char, std::__ndk1::char_traits<char>, std::__ndk1::allocator<char> > const&, std::__ndk1::basic_string<char, std::__ndk1::char_traits<char>, std::__ndk1::allocator<char> > const&, matjson::Value const&)>(geode::Result<std::__ndk1::shared_ptr<PopupSetting2>, std::__ndk1::basic_string<char, std::__ndk1::char_traits<char>, std::__ndk1::allocator<char> > > (&)(std::__ndk1::basic_string<char, std::__ndk1::char_traits<char>, std::__ndk1::allocator<char> > const&, std::__ndk1::basic_string<char, std::__ndk1::char_traits<char>, std::__ndk1::allocator<char> > const&, matjson::Value const&))::{lambda(std::__ndk1::basic_string<char, std::__ndk1::char_traits<char>, std::__ndk1::allocator<char> > const&, std::__ndk1::basic_string<char, std::__ndk1::char_traits<char>, std::__ndk1::allocator<char> > const&, matjson::Value const&)#1}>, geode::Result<std::__ndk1::shared_ptr<geode::SettingV3>, std::__ndk1::basic_string<char, std::__ndk1::char_traits<char>, std::__ndk1::allocator<char> > >(std::__ndk1::basic_string<char, std::__ndk1::char_traits<char>, std::__ndk1::allocator<char> > const&, std::__ndk1::basic_string<char, std::__ndk1::char_traits<char>, std::__ndk1::allocator<char> > const&, matjson::Value const&)>::~__func()
PUBLIC 5cba4 0 std::__ndk1::__function::__func<changeToGenerator<geode::Result<std::__ndk1::shared_ptr<PopupSetting2>, std::__ndk1::basic_string<char, std::__ndk1::char_traits<char>, std::__ndk1::allocator<char> > > (&)(std::__ndk1::basic_string<char, std::__ndk1::char_traits<char>, std::__ndk1::allocator<char> > const&, std::__ndk1::basic_string<char, std::__ndk1::char_traits<char>, std::__ndk1::allocator<char> > const&, matjson::Value const&)>(geode::Result<std::__ndk1::shared_ptr<PopupSetting2>, std::__ndk1::basic_string<char, std::__ndk1::char_traits<char>, std::__ndk1::allocator<char> > > (&)(std::__ndk1::basic_string<char, std::__ndk1::char_traits<char>, std::__ndk1::allocator<char> > const&, std::__ndk1::basic_string<char, std::__ndk1::char_traits<char>, std::__ndk1::allocator<char> > const&, matjson::Value const&))::{lambda(std::__ndk1::basic_string<char, std::__ndk1::char_traits<char>, std::__ndk1::allocator<char> > const&, std::__ndk1::basic_string<char, std::__ndk1::char_traits<char>, std::__ndk1::allocator<char> > const&, matjson::Value const&)#1}, std::__ndk1::allocator<changeToGenerator<geode::Result<std::__ndk1::shared_ptr<PopupSetting2>, std::__ndk1::basic_string<char, std::__ndk1::char_traits<char>, std::__ndk1::allocator<char> > > (&)(std::__ndk1::basic_string<char, std::__ndk1::char_traits<char>, std::__ndk1::allocator<char> > const&, std::__ndk1::basic_string<char, std::__ndk1::char_traits<char>, std::__ndk1::allocator<char> > const&, matjson::Value const&)>(geode::Result<std::__ndk1::shared_ptr<PopupSetting2>, std::__ndk1::basic_string<char, std::__ndk1::char_traits<char>, std::__ndk1::allocator<char> > > (&)(std::__ndk1::basic_string<char, std::__ndk1::char_traits<char>, std::__ndk1::allocator<char> > const&, std::__ndk1::basic_string<char, std::__ndk1::char_traits<char>, std::__ndk1::allocator<char> > const&, matjson::Value const&))::{lambda(std::__ndk1::basic_string<char, std::__ndk1::char_traits<char>, std::__ndk1::allocator<char> > const&, std::__ndk1::basic_string<char, std::__ndk1::char_traits<char>, std::__ndk1::allocator<char> > const&, matjson::Value const&)#1}>, geode::Result<std::__ndk1::shared_ptr<geode::SettingV3>, std::__ndk1::basic_string<char, std::__ndk1::char_traits<char>, std::__ndk1::allocator<char> > >(std::__ndk1::basic_string<char, std::__ndk1::char_traits<char>, std::__ndk1::allocator<char> > const&, std::__ndk1::basic_string<char, std::__ndk1::char_traits<char>, std::__ndk1::allocator<char> > const&, matjson::Value const&)>::__clone() const
PUBLIC 5cbd8 0 std::__ndk1::__function::__func<changeToGenerator<geode::Result<std::__ndk1::shared_ptr<PopupSetting2>, std::__ndk1::basic_string<char, std::__ndk1::char_traits<char>, std::__ndk1::allocator<char> > > (&)(std::__ndk1::basic_string<char, std::__ndk1::char_traits<char>, std::__ndk1::allocator<char> > const&, std::__ndk1::basic_string<char, std::__ndk1::char_traits<char>, std::__ndk1::allocator<char> > const&, matjson::Value const&)>(geode::Result<std::__ndk1::shared_ptr<PopupSetting2>, std::__ndk1::basic_string<char, std::__ndk1::char_traits<char>, std::__ndk1::allocator<char> > > (&)(std::__ndk1::basic_string<char, std::__ndk1::char_traits<char>, std::__ndk1::allocator<char> > const&, std::__ndk1::basic_string<char, std::__ndk1::char_traits<char>, std::__ndk1::allocator<char> > const&, matjson::Value const&))::{lambda(std::__ndk1::basic_string<char, std::__ndk1::char_traits<char>, std::__ndk1::allocator<char> > const&, std::__ndk1::basic_string<char, std::__ndk1::char_traits<char>, std::__ndk1::allocator<char> > const&, matjson::Value const&)#1}, std::__ndk1::allocator<changeToGenerator<geode::Result<std::__ndk1::shared_ptr<PopupSetting2>, std::__ndk1::basic_string<char, std::__ndk1::char_traits<char>, std::__ndk1::allocator<char> > > (&)(std::__ndk1::basic_string<char, std::__ndk1::char_traits<char>, std::__ndk1::allocator<char> > const&, std::__ndk1::basic_string<char, std::__ndk1::char_traits<char>, std::__ndk1::allocator<char> > const&, matjson::Value const&)>(geode::Result<std::__ndk1::shared_ptr<PopupSetting2>, std::__ndk1::basic_string<char, std::__ndk1::char_traits<char>, std::__ndk1::allocator<char> > > (&)(std::__ndk1::basic_string<char, std::__ndk1::char_traits<char>, std::__ndk1::allocator<char> > const&, std::__ndk1::basic_string<char, std::__ndk1::char_traits<char>, std::__ndk1::allocator<char> > const&, matjson::Value const&))::{lambda(std::__ndk1::basic_string<char, std::__ndk1::char_traits<char>, std::__ndk1::allocator<char> > const&, std::__ndk1::basic_string<char, std::__ndk1::char_traits<char>, std::__ndk1::allocator<char> > const&, matjson::Value const&)#1}>, geode::Result<std::__ndk1::shared_ptr<geode::SettingV3>, std::__ndk1::basic_string<char, std::__ndk1::char_traits<char>, std::__ndk1::allocator<char> > >(std::__ndk1::basic_string<char, std::__ndk1::char_traits<char>, std::__ndk1::allocator<char> > const&, std::__ndk1::basic_string<char, std::__ndk1::char_traits<char>, std::__ndk1::allocator<char> > const&, matjson::Value const&)>::__clone(std::__ndk1::__function::__base<geode::Result<std::__ndk1::shared_ptr<geode::SettingV3>, std::__ndk1::basic_string<char, std::__ndk1::char_traits<char>, std::__ndk1::allocator<char> > >(std::__ndk1::basic_string<char, std::__ndk1::char_traits<char>, std::__ndk1::allocator<char> > const&, std::__ndk1::basic_string<char, std::__ndk1::char_traits<char>, std::__ndk1::allocator<char> > const&, matjson::Value const&)>*) const
PUBLIC 5cbec 0 std::__ndk1::__function::__func<changeToGenerator<geode::Result<std::__ndk1::shared_ptr<PopupSetting2>, std::__ndk1::basic_string<char, std::__ndk1::char_traits<char>, std::__ndk1::allocator<char> > > (&)(std::__ndk1::basic_string<char, std::__ndk1::char_traits<char>, std::__ndk1::allocator<char> > const&, std::__ndk1::basic_string<char, std::__ndk1::char_traits<char>, std::__ndk1::allocator<char> > const&, matjson::Value const&)>(geode::Result<std::__ndk1::shared_ptr<PopupSetting2>, std::__ndk1::basic_string<char, std::__ndk1::char_traits<char>, std::__ndk1::allocator<char> > > (&)(std::__ndk1::basic_string<char, std::__ndk1::char_traits<char>, std::__ndk1::allocator<char> > const&, std::__ndk1::basic_string<char, std::__ndk1::char_traits<char>, std::__ndk1::allocator<char> > const&, matjson::Value const&))::{lambda(std::__ndk1::basic_string<char, std::__ndk1::char_traits<char>, std::__ndk1::allocator<char> > const&, std::__ndk1::basic_string<char, std::__ndk1::char_traits<char>, std::__ndk1::allocator<char> > const&, matjson::Value const&)#1}, std::__ndk1::allocator<changeToGenerator<geode::Result<std::__ndk1::shared_ptr<PopupSetting2>, std::__ndk1::basic_string<char, std::__ndk1::char_traits<char>, std::__ndk1::allocator<char> > > (&)(std::__ndk1::basic_string<char, std::__ndk1::char_traits<char>, std::__ndk1::allocator<char> > const&, std::__ndk1::basic_string<char, std::__ndk1::char_traits<char>, std::__ndk1::allocator<char> > const&, matjson::Value const&)>(geode::Result<std::__ndk1::shared_ptr<PopupSetting2>, std::__ndk1::basic_string<char, std::__ndk1::char_traits<char>, std::__ndk1::allocator<char> > > (&)(std::__ndk1::basic_string<char, std::__ndk1::char_traits<char>, std::__ndk1::allocator<char> > const&, std::__ndk1::basic_string<char, std::__ndk1::char_traits<char>, std::__ndk1::allocator<char> > const&, matjson::Value const&))::{lambda(std::__ndk1::basic_string<char, std::__ndk1::char_traits<char>, std::__ndk1::allocator<char> > const&, std::__ndk1::basic_string<char, std::__ndk1::char_traits<char>, std::__ndk1::allocator<char> > const&, matjson::Value const&)#1}>, geode::Result<std::__ndk1::shared_ptr<geode::SettingV3>, std::__ndk1::basic_string<char, std::__ndk1::char_traits<char>, std::__ndk1::allocator<char> > >(std::__ndk1::basic_string<char, std::__ndk1::char_traits<char>, std::__ndk1::allocator<char> > const&, std::__ndk1::basic_string<char, std::__ndk1::char_traits<char>, std::__ndk1::allocator<char> > const&, matjson::Value const&)>::destroy()
PUBLIC 5cbf0 0 std::__ndk1::__function::__func<changeToGenerator<geode::Result<std::__ndk1::shared_ptr<PopupSetting2>, std::__ndk1::basic_string<char, std::__ndk1::char_traits<char>, std::__ndk1::allocator<char> > > (&)(std::__ndk1::basic_string<char, std::__ndk1::char_traits<char>, std::__ndk1::allocator<char> > const&, std::__ndk1::basic_string<char, std::__ndk1::char_traits<char>, std::__ndk1::allocator<char> > const&, matjson::Value const&)>(geode::Result<std::__ndk1::shared_ptr<PopupSetting2>, std::__ndk1::basic_string<char, std::__ndk1::char_traits<char>, std::__ndk1::allocator<char> > > (&)(std::__ndk1::basic_string<char, std::__ndk1::char_traits<char>, std::__ndk1::allocator<char> > const&, std::__ndk1::basic_string<char, std::__ndk1::char_traits<char>, std::__ndk1::allocator<char> > const&, matjson::Value const&))::{lambda(std::__ndk1::basic_string<char, std::__ndk1::char_traits<char>, std::__ndk1::allocator<char> > const&, std::__ndk1::basic_string<char, std::__ndk1::char_traits<char>, std::__ndk1::allocator<char> > const&, matjson::Value const&)#1}, std::__ndk1::allocator<changeToGenerator<geode::Result<std::__ndk1::shared_ptr<PopupSetting2>, std::__ndk1::basic_string<char, std::__ndk1::char_traits<char>, std::__ndk1::allocator<char> > > (&)(std::__ndk1::basic_string<char, std::__ndk1::char_traits<char>, std::__ndk1::allocator<char> > const&, std::__ndk1::basic_string<char, std::__ndk1::char_traits<char>, std::__ndk1::allocator<char> > const&, matjson::Value const&)>(geode::Result<std::__ndk1::shared_ptr<PopupSetting2>, std::__ndk1::basic_string<char, std::__ndk1::char_traits<char>, std::__ndk1::allocator<char> > > (&)(std::__ndk1::basic_string<char, std::__ndk1::char_traits<char>, std::__ndk1::allocator<char> > const&, std::__ndk1::basic_string<char, std::__ndk1::char_traits<char>, std::__ndk1::allocator<char> > const&, matjson::Value const&))::{lambda(std::__ndk1::basic_string<char, std::__ndk1::char_traits<char>, std::__ndk1::allocator<char> > const&, std::__ndk1::basic_string<char, std::__ndk1::char_traits<char>, std::__ndk1::allocator<char> > const&, matjson::Value const&)#1}>, geode::Result<std::__ndk1::shared_ptr<geode::SettingV3>, std::__ndk1::basic_string<char, std::__ndk1::char_traits<char>, std::__ndk1::allocator<char> > >(std::__ndk1::basic_string<char, std::__ndk1::char_traits<char>, std::__ndk1::allocator<char> > const&, std::__ndk1::basic_string<char, std::__ndk1::char_traits<char>, std::__ndk1::allocator<char> > const&, matjson::Value const&)>::destroy_deallocate()
PUBLIC 5cbf4 0 std::__ndk1::__function::__func<changeToGenerator<geode::Result<std::__ndk1::shared_ptr<PopupSetting2>, std::__ndk1::basic_string<char, std::__ndk1::char_traits<char>, std::__ndk1::allocator<char> > > (&)(std::__ndk1::basic_string<char, std::__ndk1::char_traits<char>, std::__ndk1::allocator<char> > const&, std::__ndk1::basic_string<char, std::__ndk1::char_traits<char>, std::__ndk1::allocator<char> > const&, matjson::Value const&)>(geode::Result<std::__ndk1::shared_ptr<PopupSetting2>, std::__ndk1::basic_string<char, std::__ndk1::char_traits<char>, std::__ndk1::allocator<char> > > (&)(std::__ndk1::basic_string<char, std::__ndk1::char_traits<char>, std::__ndk1::allocator<char> > const&, std::__ndk1::basic_string<char, std::__ndk1::char_traits<char>, std::__ndk1::allocator<char> > const&, matjson::Value const&))::{lambda(std::__ndk1::basic_string<char, std::__ndk1::char_traits<char>, std::__ndk1::allocator<char> > const&, std::__ndk1::basic_string<char, std::__ndk1::char_traits<char>, std::__ndk1::allocator<char> > const&, matjson::Value const&)#1}, std::__ndk1::allocator<changeToGenerator<geode::Result<std::__ndk1::shared_ptr<PopupSetting2>, std::__ndk1::basic_string<char, std::__ndk1::char_traits<char>, std::__ndk1::allocator<char> > > (&)(std::__ndk1::basic_string<char, std::__ndk1::char_traits<char>, std::__ndk1::allocator<char> > const&, std::__ndk1::basic_string<char, std::__ndk1::char_traits<char>, std::__ndk1::allocator<char> > const&, matjson::Value const&)>(geode::Result<std::__ndk1::shared_ptr<PopupSetting2>, std::__ndk1::basic_string<char, std::__ndk1::char_traits<char>, std::__ndk1::allocator<char> > > (&)(std::__ndk1::basic_string<char, std::__ndk1::char_traits<char>, std::__ndk1::allocator<char> > const&, std::__ndk1::basic_string<char, std::__ndk1::char_traits<char>, std::__ndk1::allocator<char> > const&, matjson::Value const&))::{lambda(std::__ndk1::basic_string<char, std::__ndk1::char_traits<char>, std::__ndk1::allocator<char> > const&, std::__ndk1::basic_string<char, std::__ndk1::char_traits<char>, std::__ndk1::allocator<char> > const&, matjson::Value const&)#1}>, geode::Result<std::__ndk1::shared_ptr<geode::SettingV3>, std::__ndk1::basic_string<char, std::__ndk1::char_traits<char>, std::__ndk1::allocator<char> > >(std::__ndk1::basic_string<char, std::__ndk1::char_traits<char>, std::__ndk1::allocator<char> > const&, std::__ndk1::basic_string<char, std::__ndk1::char_traits<char>, std::__ndk1::allocator<char> > const&, matjson::Value const&)>::operator()(std::__ndk1::basic_string<char, std::__ndk1::char_traits<char>, std::__ndk1::allocator<char> > const&, std::__ndk1::basic_string<char, std::__ndk1::char_traits<char>, std::__ndk1::allocator<char> > const&, matjson::Value const&)
PUBLIC 5cd28 0 std::__ndk1::__function::__func<changeToGenerator<geode::Result<std::__ndk1::shared_ptr<PopupSetting2>, std::__ndk1::basic_string<char, std::__ndk1::char_traits<char>, std::__ndk1::allocator<char> > > (&)(std::__ndk1::basic_string<char, std::__ndk1::char_traits<char>, std::__ndk1::allocator<char> > const&, std::__ndk1::basic_string<char, std::__ndk1::char_traits<char>, std::__ndk1::allocator<char> > const&, matjson::Value const&)>(geode::Result<std::__ndk1::shared_ptr<PopupSetting2>, std::__ndk1::basic_string<char, std::__ndk1::char_traits<char>, std::__ndk1::allocator<char> > > (&)(std::__ndk1::basic_string<char, std::__ndk1::char_traits<char>, std::__ndk1::allocator<char> > const&, std::__ndk1::basic_string<char, std::__ndk1::char_traits<char>, std::__ndk1::allocator<char> > const&, matjson::Value const&))::{lambda(std::__ndk1::basic_string<char, std::__ndk1::char_traits<char>, std::__ndk1::allocator<char> > const&, std::__ndk1::basic_string<char, std::__ndk1::char_traits<char>, std::__ndk1::allocator<char> > const&, matjson::Value const&)#1}, std::__ndk1::allocator<changeToGenerator<geode::Result<std::__ndk1::shared_ptr<PopupSetting2>, std::__ndk1::basic_string<char, std::__ndk1::char_traits<char>, std::__ndk1::allocator<char> > > (&)(std::__ndk1::basic_string<char, std::__ndk1::char_traits<char>, std::__ndk1::allocator<char> > const&, std::__ndk1::basic_string<char, std::__ndk1::char_traits<char>, std::__ndk1::allocator<char> > const&, matjson::Value const&)>(geode::Result<std::__ndk1::shared_ptr<PopupSetting2>, std::__ndk1::basic_string<char, std::__ndk1::char_traits<char>, std::__ndk1::allocator<char> > > (&)(std::__ndk1::basic_string<char, std::__ndk1::char_traits<char>, std::__ndk1::allocator<char> > const&, std::__ndk1::basic_string<char, std::__ndk1::char_traits<char>, std::__ndk1::allocator<char> > const&, matjson::Value const&))::{lambda(std::__ndk1::basic_string<char, std::__ndk1::char_traits<char>, std::__ndk1::allocator<char> > const&, std::__ndk1::basic_string<char, std::__ndk1::char_traits<char>, std::__ndk1::allocator<char> > const&, matjson::Value const&)#1}>, geode::Result<std::__ndk1::shared_ptr<geode::SettingV3>, std::__ndk1::basic_string<char, std::__ndk1::char_traits<char>, std::__ndk1::allocator<char> > >(std::__ndk1::basic_string<char, std::__ndk1::char_traits<char>, std::__ndk1::allocator<char> > const&, std::__ndk1::basic_string<char, std::__ndk1::char_traits<char>, std::__ndk1::allocator<char> > const&, matjson::Value const&)>::target(std::type_info const&) const
PUBLIC 5cd44 0 std::__ndk1::__function::__func<changeToGenerator<geode::Result<std::__ndk1::shared_ptr<PopupSetting2>, std::__ndk1::basic_string<char, std::__ndk1::char_traits<char>, std::__ndk1::allocator<char> > > (&)(std::__ndk1::basic_string<char, std::__ndk1::char_traits<char>, std::__ndk1::allocator<char> > const&, std::__ndk1::basic_string<char, std::__ndk1::char_traits<char>, std::__ndk1::allocator<char> > const&, matjson::Value const&)>(geode::Result<std::__ndk1::shared_ptr<PopupSetting2>, std::__ndk1::basic_string<char, std::__ndk1::char_traits<char>, std::__ndk1::allocator<char> > > (&)(std::__ndk1::basic_string<char, std::__ndk1::char_traits<char>, std::__ndk1::allocator<char> > const&, std::__ndk1::basic_string<char, std::__ndk1::char_traits<char>, std::__ndk1::allocator<char> > const&, matjson::Value const&))::{lambda(std::__ndk1::basic_string<char, std::__ndk1::char_traits<char>, std::__ndk1::allocator<char> > const&, std::__ndk1::basic_string<char, std::__ndk1::char_traits<char>, std::__ndk1::allocator<char> > const&, matjson::Value const&)#1}, std::__ndk1::allocator<changeToGenerator<geode::Result<std::__ndk1::shared_ptr<PopupSetting2>, std::__ndk1::basic_string<char, std::__ndk1::char_traits<char>, std::__ndk1::allocator<char> > > (&)(std::__ndk1::basic_string<char, std::__ndk1::char_traits<char>, std::__ndk1::allocator<char> > const&, std::__ndk1::basic_string<char, std::__ndk1::char_traits<char>, std::__ndk1::allocator<char> > const&, matjson::Value const&)>(geode::Result<std::__ndk1::shared_ptr<PopupSetting2>, std::__ndk1::basic_string<char, std::__ndk1::char_traits<char>, std::__ndk1::allocator<char> > > (&)(std::__ndk1::basic_string<char, std::__ndk1::char_traits<char>, std::__ndk1::allocator<char> > const&, std::__ndk1::basic_string<char, std::__ndk1::char_traits<char>, std::__ndk1::allocator<char> > const&, matjson::Value const&))::{lambda(std::__ndk1::basic_string<char, std::__ndk1::char_traits<char>, std::__ndk1::allocator<char> > const&, std::__ndk1::basic_string<char, std::__ndk1::char_traits<char>, std::__ndk1::allocator<char> > const&, matjson::Value const&)#1}>, geode::Result<std::__ndk1::shared_ptr<geode::SettingV3>, std::__ndk1::basic_string<char, std::__ndk1::char_traits<char>, std::__ndk1::allocator<char> > >(std::__ndk1::basic_string<char, std::__ndk1::char_traits<char>, std::__ndk1::allocator<char> > const&, std::__ndk1::basic_string<char, std::__ndk1::char_traits<char>, std::__ndk1::allocator<char> > const&, matjson::Value const&)>::target_type() const
PUBLIC 5cd50 0 std::__ndk1::__variant_detail::__visitation::__base::__dispatcher<(unsigned long)0>::__dispatch[abi:ne180000]<std::__ndk1::__variant_detail::__dtor<std::__ndk1::__variant_detail::__traits<std::__ndk1::shared_ptr<PopupSetting2>, std::__ndk1::basic_string<char, std::__ndk1::char_traits<char>, std::__ndk1::allocator<char> > >, (std::__ndk1::__variant_detail::_Trait)1>::__destroy[abi:ne180000]()::{lambda(auto:1&)#1}, std::__ndk1::__variant_detail::__base<(std::__ndk1::__variant_detail::__traits<std::__ndk1::shared_ptr<PopupSetting2>, std::__ndk1::basic_string<char, std::__ndk1::char_traits<char>, std::__ndk1::allocator<char> > >)1, PopupSetting2, std::__ndk1::allocator<char> >&>(std::__ndk1::__variant_detail::__dtor<std::__ndk1::__variant_detail::__traits<std::__ndk1::shared_ptr<PopupSetting2>, std::__ndk1::basic_string<char, std::__ndk1::char_traits<char>, std::__ndk1::allocator<char> > >, (std::__ndk1::__variant_detail::_Trait)1>, std::__ndk1::__variant_detail::__base<(std::__ndk1::__variant_detail::__traits<std::__ndk1::shared_ptr<PopupSetting2>, std::__ndk1::basic_string<char, std::__ndk1::char_traits<char>, std::__ndk1::allocator<char> > >)1, PopupSetting2, std::__ndk1::allocator<char> >&)
PUBLIC 5cda0 0 std::__ndk1::__variant_detail::__visitation::__base::__dispatcher<(unsigned long)1>::__dispatch[abi:ne180000]<std::__ndk1::__variant_detail::__dtor<std::__ndk1::__variant_detail::__traits<std::__ndk1::shared_ptr<PopupSetting2>, std::__ndk1::basic_string<char, std::__ndk1::char_traits<char>, std::__ndk1::allocator<char> > >, (std::__ndk1::__variant_detail::_Trait)1>::__destroy[abi:ne180000]()::{lambda(auto:1&)#1}, std::__ndk1::__variant_detail::__base<(std::__ndk1::__variant_detail::__traits<std::__ndk1::shared_ptr<PopupSetting2>, std::__ndk1::basic_string<char, std::__ndk1::char_traits<char>, std::__ndk1::allocator<char> > >)1, PopupSetting2, std::__ndk1::allocator<char> >&>(std::__ndk1::__variant_detail::__dtor<std::__ndk1::__variant_detail::__traits<std::__ndk1::shared_ptr<PopupSetting2>, std::__ndk1::basic_string<char, std::__ndk1::char_traits<char>, std::__ndk1::allocator<char> > >, (std::__ndk1::__variant_detail::_Trait)1>, std::__ndk1::__variant_detail::__base<(std::__ndk1::__variant_detail::__traits<std::__ndk1::shared_ptr<PopupSetting2>, std::__ndk1::basic_string<char, std::__ndk1::char_traits<char>, std::__ndk1::allocator<char> > >)1, PopupSetting2, std::__ndk1::allocator<char> >&)
PUBLIC 5cdb4 0 _GLOBAL__sub_I_PopupSetting.cpp
PUBLIC 5cfb4 0 geodeExecFunction5<(anonymous namespace)::ExecFuncUnique5>(geode::ModStateEvent*)
PUBLIC 5d5c4 0 handleURI(std::__ndk1::basic_string<char, std::__ndk1::char_traits<char>, std::__ndk1::allocator<char> > const&, std::__ndk1::function<void (std::__ndk1::basic_string<char, std::__ndk1::char_traits<char>, std::__ndk1::allocator<char> > const&)>)::{lambda(URIEvent*)#2}::~{lambda(URIEvent*)#2}()
PUBLIC 5d63c 0 std::__ndk1::__function::__func<handleURI(std::__ndk1::basic_string<char, std::__ndk1::char_traits<char>, std::__ndk1::allocator<char> > const&, std::__ndk1::function<void (std::__ndk1::basic_string<char, std::__ndk1::char_traits<char>, std::__ndk1::allocator<char> > const&)>)::{lambda(URIEvent*)#1}, std::__ndk1::allocator<handleURI(std::__ndk1::basic_string<char, std::__ndk1::char_traits<char>, std::__ndk1::allocator<char> > const&, std::__ndk1::function<void (std::__ndk1::basic_string<char, std::__ndk1::char_traits<char>, std::__ndk1::allocator<char> > const&)>)::{lambda(URIEvent*)#1}>, bool (URIEvent*)>::~__func()
PUBLIC 5d65c 0 std::__ndk1::__function::__func<handleURI(std::__ndk1::basic_string<char, std::__ndk1::char_traits<char>, std::__ndk1::allocator<char> > const&, std::__ndk1::function<void (std::__ndk1::basic_string<char, std::__ndk1::char_traits<char>, std::__ndk1::allocator<char> > const&)>)::{lambda(URIEvent*)#1}, std::__ndk1::allocator<handleURI(std::__ndk1::basic_string<char, std::__ndk1::char_traits<char>, std::__ndk1::allocator<char> > const&, std::__ndk1::function<void (std::__ndk1::basic_string<char, std::__ndk1::char_traits<char>, std::__ndk1::allocator<char> > const&)>)::{lambda(URIEvent*)#1}>, bool (URIEvent*)>::~__func()
PUBLIC 5d69c 0 std::__ndk1::__function::__func<handleURI(std::__ndk1::basic_string<char, std::__ndk1::char_traits<char>, std::__ndk1::allocator<char> > const&, std::__ndk1::function<void (std::__ndk1::basic_string<char, std::__ndk1::char_traits<char>, std::__ndk1::allocator<char> > const&)>)::{lambda(URIEvent*)#1}, std::__ndk1::allocator<handleURI(std::__ndk1::basic_string<char, std::__ndk1::char_traits<char>, std::__ndk1::allocator<char> > const&, std::__ndk1::function<void (std::__ndk1::basic_string<char, std::__ndk1::char_traits<char>, std::__ndk1::allocator<char> > const&)>)::{lambda(URIEvent*)#1}>, bool (URIEvent*)>::__clone() const
PUBLIC 5d71c 0 std::__ndk1::__function::__func<handleURI(std::__ndk1::basic_string<char, std::__ndk1::char_traits<char>, std::__ndk1::allocator<char> > const&, std::__ndk1::function<void (std::__ndk1::basic_string<char, std::__ndk1::char_traits<char>, std::__ndk1::allocator<char> > const&)>)::{lambda(URIEvent*)#1}, std::__ndk1::allocator<handleURI(std::__ndk1::basic_string<char, std::__ndk1::char_traits<char>, std::__ndk1::allocator<char> > const&, std::__ndk1::function<void (std::__ndk1::basic_string<char, std::__ndk1::char_traits<char>, std::__ndk1::allocator<char> > const&)>)::{lambda(URIEvent*)#1}>, bool (URIEvent*)>::__clone(std::__ndk1::__function::__base<bool (URIEvent*)>*) const
PUBLIC 5d758 0 std::__ndk1::__function::__func<handleURI(std::__ndk1::basic_string<char, std::__ndk1::char_traits<char>, std::__ndk1::allocator<char> > const&, std::__ndk1::function<void (std::__ndk1::basic_string<char, std::__ndk1::char_traits<char>, std::__ndk1::allocator<char> > const&)>)::{lambda(URIEvent*)#1}, std::__ndk1::allocator<handleURI(std::__ndk1::basic_string<char, std::__ndk1::char_traits<char>, std::__ndk1::allocator<char> > const&, std::__ndk1::function<void (std::__ndk1::basic_string<char, std::__ndk1::char_traits<char>, std::__ndk1::allocator<char> > const&)>)::{lambda(URIEvent*)#1}>, bool (URIEvent*)>::destroy()
PUBLIC 5d76c 0 std::__ndk1::__function::__func<handleURI(std::__ndk1::basic_string<char, std::__ndk1::char_traits<char>, std::__ndk1::allocator<char> > const&, std::__ndk1::function<void (std::__ndk1::basic_string<char, std::__ndk1::char_traits<char>, std::__ndk1::allocator<char> > const&)>)::{lambda(URIEvent*)#1}, std::__ndk1::allocator<handleURI(std::__ndk1::basic_string<char, std::__ndk1::char_traits<char>, std::__ndk1::allocator<char> > const&, std::__ndk1::function<void (std::__ndk1::basic_string<char, std::__ndk1::char_traits<char>, std::__ndk1::allocator<char> > const&)>)::{lambda(URIEvent*)#1}>, bool (URIEvent*)>::destroy_deallocate()
PUBLIC 5d7a0 0 std::__ndk1::__function::__func<handleURI(std::__ndk1::basic_string<char, std::__ndk1::char_traits<char>, std::__ndk1::allocator<char> > const&, std::__ndk1::function<void (std::__ndk1::basic_string<char, std::__ndk1::char_traits<char>, std::__ndk1::allocator<char> > const&)>)::{lambda(URIEvent*)#1}, std::__ndk1::allocator<handleURI(std::__ndk1::basic_string<char, std::__ndk1::char_traits<char>, std::__ndk1::allocator<char> > const&, std::__ndk1::function<void (std::__ndk1::basic_string<char, std::__ndk1::char_traits<char>, std::__ndk1::allocator<char> > const&)>)::{lambda(URIEvent*)#1}>, bool (URIEvent*)>::operator()(URIEvent*&&)
PUBLIC 5d8f0 0 std::__ndk1::__function::__func<handleURI(std::__ndk1::basic_string<char, std::__ndk1::char_traits<char>, std::__ndk1::allocator<char> > const&, std::__ndk1::function<void (std::__ndk1::basic_string<char, std::__ndk1::char_traits<char>, std::__ndk1::allocator<char> > const&)>)::{lambda(URIEvent*)#1}, std::__ndk1::allocator<handleURI(std::__ndk1::basic_string<char, std::__ndk1::char_traits<char>, std::__ndk1::allocator<char> > const&, std::__ndk1::function<void (std::__ndk1::basic_string<char, std::__ndk1::char_traits<char>, std::__ndk1::allocator<char> > const&)>)::{lambda(URIEvent*)#1}>, bool (URIEvent*)>::target(std::type_info const&) const
PUBLIC 5d90c 0 std::__ndk1::__function::__func<handleURI(std::__ndk1::basic_string<char, std::__ndk1::char_traits<char>, std::__ndk1::allocator<char> > const&, std::__ndk1::function<void (std::__ndk1::basic_string<char, std::__ndk1::char_traits<char>, std::__ndk1::allocator<char> > const&)>)::{lambda(URIEvent*)#1}, std::__ndk1::allocator<handleURI(std::__ndk1::basic_string<char, std::__ndk1::char_traits<char>, std::__ndk1::allocator<char> > const&, std::__ndk1::function<void (std::__ndk1::basic_string<char, std::__ndk1::char_traits<char>, std::__ndk1::allocator<char> > const&)>)::{lambda(URIEvent*)#1}>, bool (URIEvent*)>::target_type() const
PUBLIC 5d918 0 geode::EventListener<geode::event::v2::WrapFilter<URIEvent> >::getPool() const
PUBLIC 5d91c 0 geode::EventListener<geode::event::v2::WrapFilter<URIEvent> >::handle(geode::Event*)
PUBLIC 5db00 0 geode::EventListener<geode::event::v2::WrapFilter<URIEvent> >::~EventListener()
PUBLIC 5db8c 0 geode::event::v2::EventHandler<URIEvent>::~EventHandler()
PUBLIC 5dc20 0 geode::EventListener<geode::event::v2::WrapFilter<URIEvent> >::~EventListener()
PUBLIC 5dcb4 0 std::__ndk1::__function::__func<handleURI(std::__ndk1::basic_string<char, std::__ndk1::char_traits<char>, std::__ndk1::allocator<char> > const&, std::__ndk1::function<void (std::__ndk1::basic_string<char, std::__ndk1::char_traits<char>, std::__ndk1::allocator<char> > const&)>)::{lambda(URIEvent*)#2}, std::__ndk1::allocator<handleURI(std::__ndk1::basic_string<char, std::__ndk1::char_traits<char>, std::__ndk1::allocator<char> > const&, std::__ndk1::function<void (std::__ndk1::basic_string<char, std::__ndk1::char_traits<char>, std::__ndk1::allocator<char> > const&)>)::{lambda(URIEvent*)#2}>, geode::ListenerResult(URIEvent*)>::~__func()
PUBLIC 5dd34 0 std::__ndk1::__function::__func<handleURI(std::__ndk1::basic_string<char, std::__ndk1::char_traits<char>, std::__ndk1::allocator<char> > const&, std::__ndk1::function<void (std::__ndk1::basic_string<char, std::__ndk1::char_traits<char>, std::__ndk1::allocator<char> > const&)>)::{lambda(URIEvent*)#2}, std::__ndk1::allocator<handleURI(std::__ndk1::basic_string<char, std::__ndk1::char_traits<char>, std::__ndk1::allocator<char> > const&, std::__ndk1::function<void (std::__ndk1::basic_string<char, std::__ndk1::char_traits<char>, std::__ndk1::allocator<char> > const&)>)::{lambda(URIEvent*)#2}>, geode::ListenerResult(URIEvent*)>::~__func()
PUBLIC 5dda0 0 std::__ndk1::__function::__func<handleURI(std::__ndk1::basic_string<char, std::__ndk1::char_traits<char>, std::__ndk1::allocator<char> > const&, std::__ndk1::function<void (std::__ndk1::basic_string<char, std::__ndk1::char_traits<char>, std::__ndk1::allocator<char> > const&)>)::{lambda(URIEvent*)#2}, std::__ndk1::allocator<handleURI(std::__ndk1::basic_string<char, std::__ndk1::char_traits<char>, std::__ndk1::allocator<char> > const&, std::__ndk1::function<void (std::__ndk1::basic_string<char, std::__ndk1::char_traits<char>, std::__ndk1::allocator<char> > const&)>)::{lambda(URIEvent*)#2}>, geode::ListenerResult(URIEvent*)>::__clone() const
PUBLIC 5deb4 0 std::__ndk1::__function::__func<handleURI(std::__ndk1::basic_string<char, std::__ndk1::char_traits<char>, std::__ndk1::allocator<char> > const&, std::__ndk1::function<void (std::__ndk1::basic_string<char, std::__ndk1::char_traits<char>, std::__ndk1::allocator<char> > const&)>)::{lambda(URIEvent*)#2}, std::__ndk1::allocator<handleURI(std::__ndk1::basic_string<char, std::__ndk1::char_traits<char>, std::__ndk1::allocator<char> > const&, std::__ndk1::function<void (std::__ndk1::basic_string<char, std::__ndk1::char_traits<char>, std::__ndk1::allocator<char> > const&)>)::{lambda(URIEvent*)#2}>, geode::ListenerResult(URIEvent*)>::__clone(std::__ndk1::__function::__base<geode::ListenerResult(URIEvent*)>*) const
PUBLIC 5dfbc 0 std::__ndk1::__function::__func<handleURI(std::__ndk1::basic_string<char, std::__ndk1::char_traits<char>, std::__ndk1::allocator<char> > const&, std::__ndk1::function<void (std::__ndk1::basic_string<char, std::__ndk1::char_traits<char>, std::__ndk1::allocator<char> > const&)>)::{lambda(URIEvent*)#2}, std::__ndk1::allocator<handleURI(std::__ndk1::basic_string<char, std::__ndk1::char_traits<char>, std::__ndk1::allocator<char> > const&, std::__ndk1::function<void (std::__ndk1::basic_string<char, std::__ndk1::char_traits<char>, std::__ndk1::allocator<char> > const&)>)::{lambda(URIEvent*)#2}>, geode::ListenerResult(URIEvent*)>::destroy()
PUBLIC 5e030 0 std::__ndk1::__function::__func<handleURI(std::__ndk1::basic_string<char, std::__ndk1::char_traits<char>, std::__ndk1::allocator<char> > const&, std::__ndk1::function<void (std::__ndk1::basic_string<char, std::__ndk1::char_traits<char>, std::__ndk1::allocator<char> > const&)>)::{lambda(URIEvent*)#2}, std::__ndk1::allocator<handleURI(std::__ndk1::basic_string<char, std::__ndk1::char_traits<char>, std::__ndk1::allocator<char> > const&, std::__ndk1::function<void (std::__ndk1::basic_string<char, std::__ndk1::char_traits<char>, std::__ndk1::allocator<char> > const&)>)::{lambda(URIEvent*)#2}>, geode::ListenerResult(URIEvent*)>::destroy_deallocate()
PUBLIC 5e090 0 std::__ndk1::__function::__func<handleURI(std::__ndk1::basic_string<char, std::__ndk1::char_traits<char>, std::__ndk1::allocator<char> > const&, std::__ndk1::function<void (std::__ndk1::basic_string<char, std::__ndk1::char_traits<char>, std::__ndk1::allocator<char> > const&)>)::{lambda(URIEvent*)#2}, std::__ndk1::allocator<handleURI(std::__ndk1::basic_string<char, std::__ndk1::char_traits<char>, std::__ndk1::allocator<char> > const&, std::__ndk1::function<void (std::__ndk1::basic_string<char, std::__ndk1::char_traits<char>, std::__ndk1::allocator<char> > const&)>)::{lambda(URIEvent*)#2}>, geode::ListenerResult(URIEvent*)>::operator()(URIEvent*&&)
PUBLIC 5e22c 0 std::__ndk1::__function::__func<handleURI(std::__ndk1::basic_string<char, std::__ndk1::char_traits<char>, std::__ndk1::allocator<char> > const&, std::__ndk1::function<void (std::__ndk1::basic_string<char, std::__ndk1::char_traits<char>, std::__ndk1::allocator<char> > const&)>)::{lambda(URIEvent*)#2}, std::__ndk1::allocator<handleURI(std::__ndk1::basic_string<char, std::__ndk1::char_traits<char>, std::__ndk1::allocator<char> > const&, std::__ndk1::function<void (std::__ndk1::basic_string<char, std::__ndk1::char_traits<char>, std::__ndk1::allocator<char> > const&)>)::{lambda(URIEvent*)#2}>, geode::ListenerResult(URIEvent*)>::target(std::type_info const&) const
PUBLIC 5e248 0 std::__ndk1::__function::__func<handleURI(std::__ndk1::basic_string<char, std::__ndk1::char_traits<char>, std::__ndk1::allocator<char> > const&, std::__ndk1::function<void (std::__ndk1::basic_string<char, std::__ndk1::char_traits<char>, std::__ndk1::allocator<char> > const&)>)::{lambda(URIEvent*)#2}, std::__ndk1::allocator<handleURI(std::__ndk1::basic_string<char, std::__ndk1::char_traits<char>, std::__ndk1::allocator<char> > const&, std::__ndk1::function<void (std::__ndk1::basic_string<char, std::__ndk1::char_traits<char>, std::__ndk1::allocator<char> > const&)>)::{lambda(URIEvent*)#2}>, geode::ListenerResult(URIEvent*)>::target_type() const
PUBLIC 5e254 0 std::__ndk1::__function::__base<void (std::__ndk1::basic_string<char, std::__ndk1::char_traits<char>, std::__ndk1::allocator<char> > const&)>::~__base()
PUBLIC 5e258 0 std::__ndk1::__function::__func<geodeExecFunction5<(anonymous namespace)::ExecFuncUnique5>(geode::ModStateEvent*)::{lambda(std::__ndk1::basic_string<char, std::__ndk1::char_traits<char>, std::__ndk1::allocator<char> > const&)#1}, std::__ndk1::allocator<geodeExecFunction5<(anonymous namespace)::ExecFuncUnique5>(geode::ModStateEvent*)::{lambda(std::__ndk1::basic_string<char, std::__ndk1::char_traits<char>, std::__ndk1::allocator<char> > const&)#1}>, void (std::__ndk1::basic_string<char, std::__ndk1::char_traits<char>, std::__ndk1::allocator<char> > const&)>::~__func()
PUBLIC 5e25c 0 std::__ndk1::__function::__func<geodeExecFunction5<(anonymous namespace)::ExecFuncUnique5>(geode::ModStateEvent*)::{lambda(std::__ndk1::basic_string<char, std::__ndk1::char_traits<char>, std::__ndk1::allocator<char> > const&)#1}, std::__ndk1::allocator<geodeExecFunction5<(anonymous namespace)::ExecFuncUnique5>(geode::ModStateEvent*)::{lambda(std::__ndk1::basic_string<char, std::__ndk1::char_traits<char>, std::__ndk1::allocator<char> > const&)#1}>, void (std::__ndk1::basic_string<char, std::__ndk1::char_traits<char>, std::__ndk1::allocator<char> > const&)>::__clone() const
PUBLIC 5e280 0 std::__ndk1::__function::__func<geodeExecFunction5<(anonymous namespace)::ExecFuncUnique5>(geode::ModStateEvent*)::{lambda(std::__ndk1::basic_string<char, std::__ndk1::char_traits<char>, std::__ndk1::allocator<char> > const&)#1}, std::__ndk1::allocator<geodeExecFunction5<(anonymous namespace)::ExecFuncUnique5>(geode::ModStateEvent*)::{lambda(std::__ndk1::basic_string<char, std::__ndk1::char_traits<char>, std::__ndk1::allocator<char> > const&)#1}>, void (std::__ndk1::basic_string<char, std::__ndk1::char_traits<char>, std::__ndk1::allocator<char> > const&)>::__clone(std::__ndk1::__function::__base<void (std::__ndk1::basic_string<char, std::__ndk1::char_traits<char>, std::__ndk1::allocator<char> > const&)>*) const
PUBLIC 5e290 0 std::__ndk1::__function::__func<geodeExecFunction5<(anonymous namespace)::ExecFuncUnique5>(geode::ModStateEvent*)::{lambda(std::__ndk1::basic_string<char, std::__ndk1::char_traits<char>, std::__ndk1::allocator<char> > const&)#1}, std::__ndk1::allocator<geodeExecFunction5<(anonymous namespace)::ExecFuncUnique5>(geode::ModStateEvent*)::{lambda(std::__ndk1::basic_string<char, std::__ndk1::char_traits<char>, std::__ndk1::allocator<char> > const&)#1}>, void (std::__ndk1::basic_string<char, std::__ndk1::char_traits<char>, std::__ndk1::allocator<char> > const&)>::destroy()
PUBLIC 5e294 0 std::__ndk1::__function::__func<geodeExecFunction5<(anonymous namespace)::ExecFuncUnique5>(geode::ModStateEvent*)::{lambda(std::__ndk1::basic_string<char, std::__ndk1::char_traits<char>, std::__ndk1::allocator<char> > const&)#1}, std::__ndk1::allocator<geodeExecFunction5<(anonymous namespace)::ExecFuncUnique5>(geode::ModStateEvent*)::{lambda(std::__ndk1::basic_string<char, std::__ndk1::char_traits<char>, std::__ndk1::allocator<char> > const&)#1}>, void (std::__ndk1::basic_string<char, std::__ndk1::char_traits<char>, std::__ndk1::allocator<char> > const&)>::destroy_deallocate()
PUBLIC 5e298 0 std::__ndk1::__function::__func<geodeExecFunction5<(anonymous namespace)::ExecFuncUnique5>(geode::ModStateEvent*)::{lambda(std::__ndk1::basic_string<char, std::__ndk1::char_traits<char>, std::__ndk1::allocator<char> > const&)#1}, std::__ndk1::allocator<geodeExecFunction5<(anonymous namespace)::ExecFuncUnique5>(geode::ModStateEvent*)::{lambda(std::__ndk1::basic_string<char, std::__ndk1::char_traits<char>, std::__ndk1::allocator<char> > const&)#1}>, void (std::__ndk1::basic_string<char, std::__ndk1::char_traits<char>, std::__ndk1::allocator<char> > const&)>::operator()(std::__ndk1::basic_string<char, std::__ndk1::char_traits<char>, std::__ndk1::allocator<char> > const&)
PUBLIC 5ed04 0 std::__ndk1::__function::__func<geodeExecFunction5<(anonymous namespace)::ExecFuncUnique5>(geode::ModStateEvent*)::{lambda(std::__ndk1::basic_string<char, std::__ndk1::char_traits<char>, std::__ndk1::allocator<char> > const&)#1}, std::__ndk1::allocator<geodeExecFunction5<(anonymous namespace)::ExecFuncUnique5>(geode::ModStateEvent*)::{lambda(std::__ndk1::basic_string<char, std::__ndk1::char_traits<char>, std::__ndk1::allocator<char> > const&)#1}>, void (std::__ndk1::basic_string<char, std::__ndk1::char_traits<char>, std::__ndk1::allocator<char> > const&)>::target(std::type_info const&) const
PUBLIC 5ed20 0 std::__ndk1::__function::__func<geodeExecFunction5<(anonymous namespace)::ExecFuncUnique5>(geode::ModStateEvent*)::{lambda(std::__ndk1::basic_string<char, std::__ndk1::char_traits<char>, std::__ndk1::allocator<char> > const&)#1}, std::__ndk1::allocator<geodeExecFunction5<(anonymous namespace)::ExecFuncUnique5>(geode::ModStateEvent*)::{lambda(std::__ndk1::basic_string<char, std::__ndk1::char_traits<char>, std::__ndk1::allocator<char> > const&)#1}>, void (std::__ndk1::basic_string<char, std::__ndk1::char_traits<char>, std::__ndk1::allocator<char> > const&)>::target_type() const
PUBLIC 5ed2c 0 geodeExecFunction5<(anonymous namespace)::ExecFuncUnique5>(geode::ModStateEvent*)::{lambda(std::__ndk1::basic_string<char, std::__ndk1::char_traits<char>, std::__ndk1::allocator<char> > const&)#1}::operator()(std::__ndk1::basic_string<char, std::__ndk1::char_traits<char>, std::__ndk1::allocator<char> > const&) const::{lambda(auto:1, bool)#1}::~{lambda(auto:1, bool)#1}()
PUBLIC 5ed70 0 std::__ndk1::__function::__func<geodeExecFunction5<(anonymous namespace)::ExecFuncUnique5>(geode::ModStateEvent*)::{lambda(std::__ndk1::basic_string<char, std::__ndk1::char_traits<char>, std::__ndk1::allocator<char> > const&)#1}::operator()(std::__ndk1::basic_string<char, std::__ndk1::char_traits<char>, std::__ndk1::allocator<char> > const&) const::{lambda(auto:1, bool)#1}, std::__ndk1::allocator<geodeExecFunction5<(anonymous namespace)::ExecFuncUnique5>(geode::ModStateEvent*)::{lambda(std::__ndk1::basic_string<char, std::__ndk1::char_traits<char>, std::__ndk1::allocator<char> > const&)#1}::operator()(std::__ndk1::basic_string<char, std::__ndk1::char_traits<char>, std::__ndk1::allocator<char> > const&) const::{lambda(auto:1, bool)#1}>, void (FLAlertLayer*, bool)>::~__func()
PUBLIC 5edc0 0 std::__ndk1::__function::__func<geodeExecFunction5<(anonymous namespace)::ExecFuncUnique5>(geode::ModStateEvent*)::{lambda(std::__ndk1::basic_string<char, std::__ndk1::char_traits<char>, std::__ndk1::allocator<char> > const&)#1}::operator()(std::__ndk1::basic_string<char, std::__ndk1::char_traits<char>, std::__ndk1::allocator<char> > const&) const::{lambda(auto:1, bool)#1}, std::__ndk1::allocator<geodeExecFunction5<(anonymous namespace)::ExecFuncUnique5>(geode::ModStateEvent*)::{lambda(std::__ndk1::basic_string<char, std::__ndk1::char_traits<char>, std::__ndk1::allocator<char> > const&)#1}::operator()(std::__ndk1::basic_string<char, std::__ndk1::char_traits<char>, std::__ndk1::allocator<char> > const&) const::{lambda(auto:1, bool)#1}>, void (FLAlertLayer*, bool)>::~__func()
PUBLIC 5ee24 0 std::__ndk1::__function::__func<geodeExecFunction5<(anonymous namespace)::ExecFuncUnique5>(geode::ModStateEvent*)::{lambda(std::__ndk1::basic_string<char, std::__ndk1::char_traits<char>, std::__ndk1::allocator<char> > const&)#1}::operator()(std::__ndk1::basic_string<char, std::__ndk1::char_traits<char>, std::__ndk1::allocator<char> > const&) const::{lambda(auto:1, bool)#1}, std::__ndk1::allocator<geodeExecFunction5<(anonymous namespace)::ExecFuncUnique5>(geode::ModStateEvent*)::{lambda(std::__ndk1::basic_string<char, std::__ndk1::char_traits<char>, std::__ndk1::allocator<char> > const&)#1}::operator()(std::__ndk1::basic_string<char, std::__ndk1::char_traits<char>, std::__ndk1::allocator<char> > const&) const::{lambda(auto:1, bool)#1}>, void (FLAlertLayer*, bool)>::__clone() const
PUBLIC 5ef08 0 std::__ndk1::__function::__func<geodeExecFunction5<(anonymous namespace)::ExecFuncUnique5>(geode::ModStateEvent*)::{lambda(std::__ndk1::basic_string<char, std::__ndk1::char_traits<char>, std::__ndk1::allocator<char> > const&)#1}::operator()(std::__ndk1::basic_string<char, std::__ndk1::char_traits<char>, std::__ndk1::allocator<char> > const&) const::{lambda(auto:1, bool)#1}, std::__ndk1::allocator<geodeExecFunction5<(anonymous namespace)::ExecFuncUnique5>(geode::ModStateEvent*)::{lambda(std::__ndk1::basic_string<char, std::__ndk1::char_traits<char>, std::__ndk1::allocator<char> > const&)#1}::operator()(std::__ndk1::basic_string<char, std::__ndk1::char_traits<char>, std::__ndk1::allocator<char> > const&) const::{lambda(auto:1, bool)#1}>, void (FLAlertLayer*, bool)>::__clone(std::__ndk1::__function::__base<void (FLAlertLayer*, bool)>*) const
PUBLIC 5efc8 0 std::__ndk1::__function::__func<geodeExecFunction5<(anonymous namespace)::ExecFuncUnique5>(geode::ModStateEvent*)::{lambda(std::__ndk1::basic_string<char, std::__ndk1::char_traits<char>, std::__ndk1::allocator<char> > const&)#1}::operator()(std::__ndk1::basic_string<char, std::__ndk1::char_traits<char>, std::__ndk1::allocator<char> > const&) const::{lambda(auto:1, bool)#1}, std::__ndk1::allocator<geodeExecFunction5<(anonymous namespace)::ExecFuncUnique5>(geode::ModStateEvent*)::{lambda(std::__ndk1::basic_string<char, std::__ndk1::char_traits<char>, std::__ndk1::allocator<char> > const&)#1}::operator()(std::__ndk1::basic_string<char, std::__ndk1::char_traits<char>, std::__ndk1::allocator<char> > const&) const::{lambda(auto:1, bool)#1}>, void (FLAlertLayer*, bool)>::destroy()
PUBLIC 5f00c 0 std::__ndk1::__function::__func<geodeExecFunction5<(anonymous namespace)::ExecFuncUnique5>(geode::ModStateEvent*)::{lambda(std::__ndk1::basic_string<char, std::__ndk1::char_traits<char>, std::__ndk1::allocator<char> > const&)#1}::operator()(std::__ndk1::basic_string<char, std::__ndk1::char_traits<char>, std::__ndk1::allocator<char> > const&) const::{lambda(auto:1, bool)#1}, std::__ndk1::allocator<geodeExecFunction5<(anonymous namespace)::ExecFuncUnique5>(geode::ModStateEvent*)::{lambda(std::__ndk1::basic_string<char, std::__ndk1::char_traits<char>, std::__ndk1::allocator<char> > const&)#1}::operator()(std::__ndk1::basic_string<char, std::__ndk1::char_traits<char>, std::__ndk1::allocator<char> > const&) const::{lambda(auto:1, bool)#1}>, void (FLAlertLayer*, bool)>::destroy_deallocate()
PUBLIC 5f064 0 std::__ndk1::__function::__func<geodeExecFunction5<(anonymous namespace)::ExecFuncUnique5>(geode::ModStateEvent*)::{lambda(std::__ndk1::basic_string<char, std::__ndk1::char_traits<char>, std::__ndk1::allocator<char> > const&)#1}::operator()(std::__ndk1::basic_string<char, std::__ndk1::char_traits<char>, std::__ndk1::allocator<char> > const&) const::{lambda(auto:1, bool)#1}, std::__ndk1::allocator<geodeExecFunction5<(anonymous namespace)::ExecFuncUnique5>(geode::ModStateEvent*)::{lambda(std::__ndk1::basic_string<char, std::__ndk1::char_traits<char>, std::__ndk1::allocator<char> > const&)#1}::operator()(std::__ndk1::basic_string<char, std::__ndk1::char_traits<char>, std::__ndk1::allocator<char> > const&) const::{lambda(auto:1, bool)#1}>, void (FLAlertLayer*, bool)>::operator()(FLAlertLayer*&&, bool&&)
PUBLIC 5f4c4 0 std::__ndk1::__function::__func<geodeExecFunction5<(anonymous namespace)::ExecFuncUnique5>(geode::ModStateEvent*)::{lambda(std::__ndk1::basic_string<char, std::__ndk1::char_traits<char>, std::__ndk1::allocator<char> > const&)#1}::operator()(std::__ndk1::basic_string<char, std::__ndk1::char_traits<char>, std::__ndk1::allocator<char> > const&) const::{lambda(auto:1, bool)#1}, std::__ndk1::allocator<geodeExecFunction5<(anonymous namespace)::ExecFuncUnique5>(geode::ModStateEvent*)::{lambda(std::__ndk1::basic_string<char, std::__ndk1::char_traits<char>, std::__ndk1::allocator<char> > const&)#1}::operator()(std::__ndk1::basic_string<char, std::__ndk1::char_traits<char>, std::__ndk1::allocator<char> > const&) const::{lambda(auto:1, bool)#1}>, void (FLAlertLayer*, bool)>::target(std::type_info const&) const
PUBLIC 5f4e0 0 std::__ndk1::__function::__func<geodeExecFunction5<(anonymous namespace)::ExecFuncUnique5>(geode::ModStateEvent*)::{lambda(std::__ndk1::basic_string<char, std::__ndk1::char_traits<char>, std::__ndk1::allocator<char> > const&)#1}::operator()(std::__ndk1::basic_string<char, std::__ndk1::char_traits<char>, std::__ndk1::allocator<char> > const&) const::{lambda(auto:1, bool)#1}, std::__ndk1::allocator<geodeExecFunction5<(anonymous namespace)::ExecFuncUnique5>(geode::ModStateEvent*)::{lambda(std::__ndk1::basic_string<char, std::__ndk1::char_traits<char>, std::__ndk1::allocator<char> > const&)#1}::operator()(std::__ndk1::basic_string<char, std::__ndk1::char_traits<char>, std::__ndk1::allocator<char> > const&) const::{lambda(auto:1, bool)#1}>, void (FLAlertLayer*, bool)>::target_type() const
PUBLIC 5f4ec 0 _GLOBAL__sub_I_URIManager.cpp
PUBLIC m 5f620 0 geode::getMod()
PUBLIC m 5f65c 0 geodeImplicitEntry
PUBLIC 5f698 0 std::__ndk1::unordered_map<void*, bool, std::__ndk1::hash<void*>, std::__ndk1::equal_to<void*>, std::__ndk1::allocator<std::__ndk1::pair<void* const, bool> > >::~unordered_map[abi:ne180000]()
PUBLIC 5f6e4 0 wrapFunction(unsigned long, tulip::hook::WrapperMetadata const&)
PUBLIC 5f818 0 geode::impl::ResultData<void*, std::__ndk1::basic_string<char, std::__ndk1::char_traits<char>, std::__ndk1::allocator<char> > >::unwrapErr() &
PUBLIC 5f890 0 geode::impl::ResultData<void*, std::__ndk1::basic_string<char, std::__ndk1::char_traits<char>, std::__ndk1::allocator<char> > >::~ResultData()
PUBLIC 5f904 0 tulip::hook::WrapperMetadata::~WrapperMetadata()
PUBLIC 5f968 0 cocos2d::CCObject::~CCObject()
PUBLIC 5f98c 0 cocos2d::CCNode::CCNode()
PUBLIC 5fbe8 0 cocos2d::CCNode::~CCNode()
PUBLIC 5fc0c 0 cocos2d::CCLayer::CCLayer()
PUBLIC 5fe90 0 {virtual override thunk({offset(-320)}, cocos2d::CCLayer::~CCLayer())}
PUBLIC 5fe98 0 cocos2d::CCLayer::~CCLayer()
PUBLIC 5febc 0 {virtual override thunk({offset(-320)}, cocos2d::CCLayer::~CCLayer())}
PUBLIC 5fee4 0 cocos2d::CCLayerRGBA::~CCLayerRGBA()
PUBLIC 601e4 0 {virtual override thunk({offset(-320)}, cocos2d::CCLayerRGBA::~CCLayerRGBA())}
PUBLIC 601ec 0 cocos2d::CCLayerRGBA::~CCLayerRGBA()
PUBLIC 60210 0 {virtual override thunk({offset(-320)}, cocos2d::CCLayerRGBA::~CCLayerRGBA())}
PUBLIC 60238 0 cocos2d::CCLayerColor::CCLayerColor()
PUBLIC 6049c 0 {virtual override thunk({offset(-320)}, cocos2d::CCLayerColor::~CCLayerColor())}
PUBLIC 604a4 0 cocos2d::CCLayerColor::~CCLayerColor()
PUBLIC 604c8 0 {virtual override thunk({offset(-320)}, cocos2d::CCLayerColor::~CCLayerColor())}
PUBLIC 604f0 0 {virtual override thunk({offset(-320)}, FLAlertLayer::~FLAlertLayer())}
PUBLIC 604f8 0 FLAlertLayer::~FLAlertLayer()
PUBLIC 6051c 0 {virtual override thunk({offset(-320)}, FLAlertLayer::~FLAlertLayer())}
PUBLIC 60544 0 FLAlertLayer::create(FLAlertLayerProtocol*, char const*, gd::string, char const*, char const*, float)
PUBLIC 606fc 0 tulip::hook::AbstractFunction::from<FLAlertLayer*, FLAlertLayerProtocol*, char const*, gd::string, char const*, char const*, float>(FLAlertLayer* (*)(FLAlertLayerProtocol*, char const*, gd::string, char const*, char const*, float))
PUBLIC 60868 0 FLAlertLayer::create(char const*, gd::string const&, char const*)
PUBLIC 60914 0 CCTextInputNode::setAllowedChars(gd::string)
PUBLIC 60a8c 0 tulip::hook::AbstractFunction::from<void, CCTextInputNode*, gd::string>(void (*)(CCTextInputNode*, gd::string))
PUBLIC 60b30 0 cocos2d::CCObject::update(float)
PUBLIC 60b34 0 cocos2d::CCLayerColor::~CCLayerColor()
PUBLIC 60e18 0 FLAlertLayer::~FLAlertLayer()
PUBLIC 610fc 0 cocos2d::CCNode::~CCNode()
PUBLIC 6139c 0 cocos2d::CCLayer::~CCLayer()
PUBLIC 6168c 0 cocos2d::CCObject::~CCObject()
PUBLIC 61b80 0 _ZN5geode15UnwrapExceptionC2IRPvQsr4implE18IsStringStreamableIT_EEENS_4impl5OkTagEOS4_
PUBLIC 61cd4 0 std::__ndk1::__variant_detail::__visitation::__base::__dispatcher<(unsigned long)0>::__dispatch[abi:ne180000]<std::__ndk1::__variant_detail::__dtor<std::__ndk1::__variant_detail::__traits<void*, std::__ndk1::basic_string<char, std::__ndk1::char_traits<char>, std::__ndk1::allocator<char> > >, (std::__ndk1::__variant_detail::_Trait)1>::__destroy[abi:ne180000]()::{lambda(auto:1&)#1}, std::__ndk1::__variant_detail::__base<(std::__ndk1::__variant_detail::__traits<void*, std::__ndk1::basic_string<char, std::__ndk1::char_traits<char>, std::__ndk1::allocator<char> > >)1, std::__ndk1::__variant_detail::__traits, std::__ndk1::allocator<char> >&>(std::__ndk1::__variant_detail::__dtor<std::__ndk1::__variant_detail::__traits<void*, std::__ndk1::basic_string<char, std::__ndk1::char_traits<char>, std::__ndk1::allocator<char> > >, (std::__ndk1::__variant_detail::_Trait)1>, std::__ndk1::__variant_detail::__base<(std::__ndk1::__variant_detail::__traits<void*, std::__ndk1::basic_string<char, std::__ndk1::char_traits<char>, std::__ndk1::allocator<char> > >)1, std::__ndk1::__variant_detail::__traits, std::__ndk1::allocator<char> >&)
PUBLIC 61cd8 0 std::__ndk1::__variant_detail::__visitation::__base::__dispatcher<(unsigned long)1>::__dispatch[abi:ne180000]<std::__ndk1::__variant_detail::__dtor<std::__ndk1::__variant_detail::__traits<void*, std::__ndk1::basic_string<char, std::__ndk1::char_traits<char>, std::__ndk1::allocator<char> > >, (std::__ndk1::__variant_detail::_Trait)1>::__destroy[abi:ne180000]()::{lambda(auto:1&)#1}, std::__ndk1::__variant_detail::__base<(std::__ndk1::__variant_detail::__traits<void*, std::__ndk1::basic_string<char, std::__ndk1::char_traits<char>, std::__ndk1::allocator<char> > >)1, std::__ndk1::__variant_detail::__traits, std::__ndk1::allocator<char> >&>(std::__ndk1::__variant_detail::__dtor<std::__ndk1::__variant_detail::__traits<void*, std::__ndk1::basic_string<char, std::__ndk1::char_traits<char>, std::__ndk1::allocator<char> > >, (std::__ndk1::__variant_detail::_Trait)1>, std::__ndk1::__variant_detail::__base<(std::__ndk1::__variant_detail::__traits<void*, std::__ndk1::basic_string<char, std::__ndk1::char_traits<char>, std::__ndk1::allocator<char> > >)1, std::__ndk1::__variant_detail::__traits, std::__ndk1::allocator<char> >&)
PUBLIC 61cec 0 std::__ndk1::__hash_table<std::__ndk1::__hash_value_type<void*, bool>, std::__ndk1::__unordered_map_hasher<void*, std::__ndk1::__hash_value_type<void*, bool>, std::__ndk1::hash<void*>, std::__ndk1::equal_to<void*>, true>, std::__ndk1::__unordered_map_equal<void*, std::__ndk1::__hash_value_type<void*, bool>, std::__ndk1::equal_to<void*>, std::__ndk1::hash<void*>, true>, std::__ndk1::allocator<std::__ndk1::__hash_value_type<void*, bool> > >::__emplace_unique_key_args<void*, std::__ndk1::piecewise_construct_t const&, std::__ndk1::tuple<void* const&>, std::__ndk1::tuple<> >(void* const&, std::__ndk1::piecewise_construct_t const&, std::__ndk1::tuple<void* const&>, std::__ndk1::tuple<>)
PUBLIC 621f8 0 __udivti3
PUBLIC 62204 0 __udivmodti4
PUBLIC m 62450 0 __eqtf2
PUBLIC 624f0 0 __unordtf2
PUBLIC m 62528 0 fmt::v11::detail::assert_fail(char const*, int, char const*)
PUBLIC m 6255c 0 fmt::v11::detail::format_error_code(fmt::v11::detail::buffer<char>&, int, fmt::v11::basic_string_view<char>)
PUBLIC m 62670 0 fmt::v11::detail::report_error(void (*)(fmt::v11::detail::buffer<char>&, int, char const*), int, char const*)
PUBLIC m 62724 0 fmt::v11::detail::write_loc(fmt::v11::basic_appender<char>, fmt::v11::loc_value, fmt::v11::format_specs const&, fmt::v11::detail::locale_ref)
PUBLIC m 628b4 0 fmt::v11::detail::locale_ref::get<std::__ndk1::locale>() const
PUBLIC m 628c8 0 fmt::v11::format_facet<std::__ndk1::locale>::format_facet(std::__ndk1::locale&)
PUBLIC m 62a58 0 fmt::v11::format_facet<std::__ndk1::locale>::~format_facet()
PUBLIC m 62ad8 0 fmt::v11::report_error(char const*)
PUBLIC m 62b28 0 fmt::v11::format_error::runtime_error(char const*)
PUBLIC m 62b58 0 fmt::v11::format_facet<std::__ndk1::locale>::do_put(fmt::v11::basic_appender<char>, fmt::v11::loc_value, fmt::v11::format_specs const&) const
PUBLIC m 62d40 0 fmt::v11::loc_value::visit<fmt::v11::detail::loc_writer<char> >(fmt::v11::detail::loc_writer<char>&&)
PUBLIC m 62ddc 0 fmt::v11::detail::loc_writer<char>::~loc_writer()
PUBLIC m 62e40 0 fmt::v11::vsystem_error(int, fmt::v11::basic_string_view<char>, fmt::v11::basic_format_args<fmt::v11::context>)
PUBLIC m 62fe8 0 fmt::v11::vformat(fmt::v11::basic_string_view<char>, fmt::v11::basic_format_args<fmt::v11::context>)
PUBLIC m 63124 0 fmt::v11::detail::dragonbox::get_cached_power(int)
PUBLIC m 631d4 0 fmt::v11::detail::utf8_to_utf16::utf8_to_utf16(fmt::v11::basic_string_view<char>)
PUBLIC m 633e4 0 fmt::v11::format_system_error(fmt::v11::detail::buffer<char>&, int, char const*)
PUBLIC m 634f8 0 fmt::v11::report_system_error(int, char const*)
PUBLIC m 635ac 0 fmt::v11::detail::vformat_to<char>(fmt::v11::detail::buffer<char>&, fmt::v11::basic_string_view<char>, fmt::v11::detail::vformat_args<char>::type, fmt::v11::detail::locale_ref)
PUBLIC m 637a4 0 fmt::v11::detail::write_console(int, fmt::v11::basic_string_view<char>)
PUBLIC m 637ac 0 fmt::v11::detail::print(__sFILE*, fmt::v11::basic_string_view<char>)
PUBLIC m 63834 0 fmt::v11::vprint_buffered(__sFILE*, fmt::v11::basic_string_view<char>, fmt::v11::basic_format_args<fmt::v11::context>)
PUBLIC m 63978 0 fmt::v11::vprint(__sFILE*, fmt::v11::basic_string_view<char>, fmt::v11::basic_format_args<fmt::v11::context>)
PUBLIC m 6397c 0 fmt::v11::vprintln(__sFILE*, fmt::v11::basic_string_view<char>, fmt::v11::basic_format_args<fmt::v11::context>)
PUBLIC m 63af8 0 fmt::v11::vprint(fmt::v11::basic_string_view<char>, fmt::v11::basic_format_args<fmt::v11::context>)
PUBLIC m 63b1c 0 fmt::v11::detail::is_printable(unsigned int)
PUBLIC m 63d44 0 fmt::v11::detail::dragonbox::to_decimal<float>(float)
PUBLIC m 64020 0 fmt::v11::detail::dragonbox::to_decimal<double>(double)
PUBLIC m 6455c 0 fmt::v11::detail::locale_ref::locale_ref<std::__ndk1::locale>()
PUBLIC m 64564 0 fmt::v11::detail::thousands_sep_impl<char>(fmt::v11::detail::locale_ref)
PUBLIC m 6467c 0 fmt::v11::detail::decimal_point_impl<char>(fmt::v11::detail::locale_ref)
PUBLIC m 64728 0 fmt::v11::detail::buffer<char>::append<char>(char const*, char const*)
PUBLIC m 64874 0 fmt::v11::detail::parse_format_string<false, char, fmt::v11::detail::vformat_to<char>(fmt::v11::detail::buffer<char>&, fmt::v11::basic_string_view<char>, fmt::v11::detail::vformat_args<char>::type, fmt::v11::detail::locale_ref)::format_handler>(fmt::v11::basic_string_view<char>, fmt::v11::detail::vformat_to<char>(fmt::v11::detail::buffer<char>&, fmt::v11::basic_string_view<char>, fmt::v11::detail::vformat_args<char>::type, fmt::v11::detail::locale_ref)::format_handler&&)
PUBLIC m 64a84 0 fmt::v11::detail::thousands_sep_impl<wchar_t>(fmt::v11::detail::locale_ref)
PUBLIC m 64b9c 0 fmt::v11::detail::decimal_point_impl<wchar_t>(fmt::v11::detail::locale_ref)
PUBLIC m 64c48 0 fmt::v11::detail::buffer<wchar_t>::append<wchar_t>(wchar_t const*, wchar_t const*)
PUBLIC m 64d50 0 fmt::v11::basic_memory_buffer<char, (unsigned long)500, std::__ndk1::allocator<char> >::grow(fmt::v11::detail::buffer<char>&, unsigned long)
PUBLIC m 64dc8 0 fmt::v11::format_facet<std::__ndk1::locale>::~format_facet()
PUBLIC m 64e58 0 fmt::v11::format_error::~format_error()
PUBLIC m 64e7c 0 fmt::v11::basic_memory_buffer<wchar_t, (unsigned long)500, std::__ndk1::allocator<wchar_t> >::grow(fmt::v11::detail::buffer<wchar_t>&, unsigned long)
PUBLIC 64f1c 0 fmt::v11::detail::for_each_codepoint<fmt::v11::detail::utf8_to_utf16::utf8_to_utf16(fmt::v11::basic_string_view<char>)::$_0>(fmt::v11::basic_string_view<char>, fmt::v11::detail::utf8_to_utf16::utf8_to_utf16(fmt::v11::basic_string_view<char>)::$_0)::{lambda(char const*, char const*)#1}::operator()(char const*, char const*) const
PUBLIC m 65118 0 fmt::v11::detail::copy_noinline<char, char const*, fmt::v11::basic_appender<char> >(char const*, char const*, fmt::v11::basic_appender<char>)
PUBLIC m 65268 0 fmt::v11::system_error<>(int, fmt::v11::basic_format_string<char, fmt::v11::type_identity<>::type>, &&)
PUBLIC m 652b4 0 fmt::v11::detail::default_arg_formatter<char>::operator()<bool>(bool)
PUBLIC m 65324 0 fmt::v11::detail::default_arg_formatter<char>::operator()<char>(char)
PUBLIC m 6539c 0 fmt::v11::detail::default_arg_formatter<char>::operator()<float>(float)
PUBLIC m 65490 0 fmt::v11::detail::default_arg_formatter<char>::operator()<double>(double)
PUBLIC m 65584 0 fmt::v11::detail::default_arg_formatter<char>::operator()<char const*>(char const*)
PUBLIC m 655cc 0 fmt::v11::detail::default_arg_formatter<char>::operator()<void const*>(void const*)
PUBLIC m 65668 0 _ZN3fmt3v116detail5writeIcNS0_14basic_appenderIcEEiTnNSt6__ndk19enable_ifIXaaaasr11is_integralIT1_EE5valuentsr3std7is_sameIS7_bEE5valuentsr3std7is_sameIS7_T_EE5valueEiE4typeELi0EEET0_SB_S7_
PUBLIC m 658cc 0 fmt::v11::detail::copy_noinline<char, char*, fmt::v11::basic_appender<char> >(char*, char*, fmt::v11::basic_appender<char>)
PUBLIC m 65a1c 0 _ZN3fmt3v116detail5writeIcNS0_14basic_appenderIcEEjTnNSt6__ndk19enable_ifIXaaaasr11is_integralIT1_EE5valuentsr3std7is_sameIS7_bEE5valuentsr3std7is_sameIS7_T_EE5valueEiE4typeELi0EEET0_SB_S7_
PUBLIC m 65c00 0 _ZN3fmt3v116detail5writeIcNS0_14basic_appenderIcEExTnNSt6__ndk19enable_ifIXaaaasr11is_integralIT1_EE5valuentsr3std7is_sameIS7_bEE5valuentsr3std7is_sameIS7_T_EE5valueEiE4typeELi0EEET0_SB_S7_
PUBLIC m 65e88 0 _ZN3fmt3v116detail5writeIcNS0_14basic_appenderIcEEyTnNSt6__ndk19enable_ifIXaaaasr11is_integralIT1_EE5valuentsr3std7is_sameIS7_bEE5valuentsr3std7is_sameIS7_T_EE5valueEiE4typeELi0EEET0_SB_S7_
PUBLIC m 66094 0 _ZN3fmt3v116detail5writeIcNS0_14basic_appenderIcEEnTnNSt6__ndk19enable_ifIXaaaasr11is_integralIT1_EE5valuentsr3std7is_sameIS7_bEE5valuentsr3std7is_sameIS7_T_EE5valueEiE4typeELi0EEET0_SB_S7_
PUBLIC m 663f8 0 _ZN3fmt3v116detail5writeIcNS0_14basic_appenderIcEEoTnNSt6__ndk19enable_ifIXaaaasr11is_integralIT1_EE5valuentsr3std7is_sameIS7_bEE5valuentsr3std7is_sameIS7_T_EE5valueEiE4typeELi0EEET0_SB_S7_
PUBLIC m 66710 0 _ZN3fmt3v116detail5writeIcNS0_14basic_appenderIcEEbTnNSt6__ndk19enable_ifIXsr3std7is_sameIT1_bEE5valueEiE4typeELi0EEET0_SA_S7_RKNS0_12format_specsENS1_10locale_refE
PUBLIC m 6681c 0 fmt::v11::detail::write_int_noinline<char, fmt::v11::basic_appender<char>, unsigned int>(fmt::v11::basic_appender<char>, fmt::v11::detail::write_int_arg<unsigned int>, fmt::v11::format_specs const&, fmt::v11::detail::locale_ref)
PUBLIC m 671c0 0 fmt::v11::detail::fill<char, fmt::v11::basic_appender<char> >(fmt::v11::basic_appender<char>, unsigned long, fmt::v11::detail::fill_t const&)
PUBLIC m 67390 0 fmt::v11::detail::write_int<char, fmt::v11::basic_appender<char>, fmt::v11::detail::write_int<char, fmt::v11::basic_appender<char>, unsigned int>(fmt::v11::basic_appender<char>, fmt::v11::detail::write_int_arg<unsigned int>, fmt::v11::format_specs const&, fmt::v11::detail::locale_ref)::{lambda(fmt::v11::basic_appender<char>)#1}>(fmt::v11::basic_appender<char>, int, unsigned int, fmt::v11::format_specs const&, fmt::v11::detail::write_int<char, fmt::v11::basic_appender<char>, unsigned int>(fmt::v11::basic_appender<char>, fmt::v11::detail::write_int_arg<unsigned int>, fmt::v11::format_specs const&, fmt::v11::detail::locale_ref)::{lambda(fmt::v11::basic_appender<char>)#1})::{lambda(fmt::v11::basic_appender<char>(fmt::v11::basic_appender<char>))#1}::operator() const
PUBLIC m 67520 0 fmt::v11::detail::write_int<char, fmt::v11::basic_appender<char>, fmt::v11::detail::write_int<char, fmt::v11::basic_appender<char>, unsigned int>(fmt::v11::basic_appender<char>, fmt::v11::detail::write_int_arg<unsigned int>, fmt::v11::format_specs const&, fmt::v11::detail::locale_ref)::{lambda(fmt::v11::basic_appender<char>)#2}>(fmt::v11::basic_appender<char>, int, unsigned int, fmt::v11::format_specs const&, fmt::v11::detail::write_int<char, fmt::v11::basic_appender<char>, unsigned int>(fmt::v11::basic_appender<char>, fmt::v11::detail::write_int_arg<unsigned int>, fmt::v11::format_specs const&, fmt::v11::detail::locale_ref)::{lambda(fmt::v11::basic_appender<char>)#2})::{lambda(fmt::v11::basic_appender<char>(fmt::v11::basic_appender<char>))#1}::operator() const
PUBLIC m 67704 0 fmt::v11::detail::write_int<char, fmt::v11::basic_appender<char>, fmt::v11::detail::write_int<char, fmt::v11::basic_appender<char>, unsigned int>(fmt::v11::basic_appender<char>, fmt::v11::detail::write_int_arg<unsigned int>, fmt::v11::format_specs const&, fmt::v11::detail::locale_ref)::{lambda(fmt::v11::basic_appender<char>)#3}>(fmt::v11::basic_appender<char>, int, unsigned int, fmt::v11::format_specs const&, fmt::v11::detail::write_int<char, fmt::v11::basic_appender<char>, unsigned int>(fmt::v11::basic_appender<char>, fmt::v11::detail::write_int_arg<unsigned int>, fmt::v11::format_specs const&, fmt::v11::detail::locale_ref)::{lambda(fmt::v11::basic_appender<char>)#3})::{lambda(fmt::v11::basic_appender<char>(fmt::v11::basic_appender<char>))#1}::operator() const
PUBLIC m 678ac 0 fmt::v11::detail::write_int<char, fmt::v11::basic_appender<char>, fmt::v11::detail::write_int<char, fmt::v11::basic_appender<char>, unsigned int>(fmt::v11::basic_appender<char>, fmt::v11::detail::write_int_arg<unsigned int>, fmt::v11::format_specs const&, fmt::v11::detail::locale_ref)::{lambda(fmt::v11::basic_appender<char>)#4}>(fmt::v11::basic_appender<char>, int, unsigned int, fmt::v11::format_specs const&, fmt::v11::detail::write_int<char, fmt::v11::basic_appender<char>, unsigned int>(fmt::v11::basic_appender<char>, fmt::v11::detail::write_int_arg<unsigned int>, fmt::v11::format_specs const&, fmt::v11::detail::locale_ref)::{lambda(fmt::v11::basic_appender<char>)#4})::{lambda(fmt::v11::basic_appender<char>(fmt::v11::basic_appender<char>))#1}::operator() const
PUBLIC m 67a58 0 fmt::v11::detail::write_padded<char, (fmt::v11::align::type)1, fmt::v11::basic_appender<char>, fmt::v11::detail::write_char<char, fmt::v11::basic_appender<char> >(fmt::v11::basic_appender<char>, char, fmt::v11::format_specs const&)::{lambda(fmt::v11::basic_appender<char>&)#1}>(fmt::v11::basic_appender<char>, fmt::v11::format_specs const&, unsigned long, unsigned long, fmt::v11::detail::write_char<char, fmt::v11::basic_appender<char> >(fmt::v11::basic_appender<char>, char, fmt::v11::format_specs const&)::{lambda(fmt::v11::basic_appender<char>&)#1})
PUBLIC m 67b60 0 fmt::v11::detail::write_escaped_char<char, fmt::v11::basic_appender<char> >(fmt::v11::basic_appender<char>, char)
PUBLIC m 67cd8 0 fmt::v11::detail::write_escaped_cp<fmt::v11::basic_appender<char>, char>(fmt::v11::basic_appender<char>, fmt::v11::detail::find_escape_result<char> const&)
PUBLIC m 67ebc 0 fmt::v11::detail::write_codepoint<(unsigned long)2, char, fmt::v11::basic_appender<char> >(fmt::v11::basic_appender<char>, char, unsigned int)
PUBLIC m 68034 0 fmt::v11::detail::write_codepoint<(unsigned long)4, char, fmt::v11::basic_appender<char> >(fmt::v11::basic_appender<char>, char, unsigned int)
PUBLIC m 681ac 0 fmt::v11::detail::write_codepoint<(unsigned long)8, char, fmt::v11::basic_appender<char> >(fmt::v11::basic_appender<char>, char, unsigned int)
PUBLIC m 68324 0 fmt::v11::detail::write_padded<char, (fmt::v11::align::type)1, fmt::v11::basic_appender<char>, fmt::v11::detail::write_bytes<char, (fmt::v11::align::type)1, fmt::v11::basic_appender<char> >(fmt::v11::basic_appender<char>, fmt::v11::basic_string_view<char>, fmt::v11::format_specs const&)::{lambda(fmt::v11::basic_appender<char>&)#1}>(fmt::v11::basic_appender<char>, fmt::v11::format_specs const&, unsigned long, unsigned long, fmt::v11::detail::write_bytes<char, (fmt::v11::align::type)1, fmt::v11::basic_appender<char> >(fmt::v11::basic_appender<char>, fmt::v11::basic_string_view<char>, fmt::v11::format_specs const&)::{lambda(fmt::v11::basic_appender<char>&)#1})
PUBLIC m 68518 0 fmt::v11::detail::write_padded<char, (fmt::v11::align::type)1, fmt::v11::basic_appender<char>, fmt::v11::detail::write_nonfinite<char, fmt::v11::basic_appender<char> >(fmt::v11::basic_appender<char>, bool, fmt::v11::format_specs, fmt::v11::sign::type)::{lambda(fmt::v11::basic_appender<char>&)#1}>(fmt::v11::basic_appender<char>, fmt::v11::format_specs const&, unsigned long, unsigned long, fmt::v11::detail::write_nonfinite<char, fmt::v11::basic_appender<char> >(fmt::v11::basic_appender<char>, bool, fmt::v11::format_specs, fmt::v11::sign::type)::{lambda(fmt::v11::basic_appender<char>&)#1})
PUBLIC m 68770 0 fmt::v11::detail::do_write_float<char, fmt::v11::basic_appender<char>, fmt::v11::detail::dragonbox::decimal_fp<float>, fmt::v11::detail::digit_grouping<char> >(fmt::v11::basic_appender<char>, fmt::v11::detail::dragonbox::decimal_fp<float> const&, fmt::v11::format_specs const&, fmt::v11::detail::float_specs, fmt::v11::detail::locale_ref)
PUBLIC m 68e44 0 fmt::v11::detail::do_write_float<char, fmt::v11::basic_appender<char>, fmt::v11::detail::dragonbox::decimal_fp<float>, fmt::v11::detail::digit_grouping<char> >(fmt::v11::basic_appender<char>, fmt::v11::detail::dragonbox::decimal_fp<float> const&, fmt::v11::format_specs const&, fmt::v11::detail::float_specs, fmt::v11::detail::locale_ref)::{lambda(fmt::v11::basic_appender<char>(fmt::v11::basic_appender<char>))#1}::operator() const
PUBLIC m 68f98 0 fmt::v11::detail::digit_grouping<char>::digit_grouping(fmt::v11::detail::locale_ref, bool)
PUBLIC m 69150 0 fmt::v11::detail::digit_grouping<char>::~digit_grouping()
PUBLIC m 69194 0 fmt::v11::detail::write_exponent<char, fmt::v11::basic_appender<char> >(int, fmt::v11::basic_appender<char>)
PUBLIC m 69364 0 _ZN3fmt3v116detail17write_significandIcjTnNSt6__ndk19enable_ifIXsr3std11is_integralIT0_EE5valueEiE4typeELi0EEEPT_S9_S5_iiS8_
PUBLIC m 694e0 0 fmt::v11::detail::do_write_float<char, fmt::v11::basic_appender<char>, fmt::v11::detail::dragonbox::decimal_fp<float>, fmt::v11::detail::digit_grouping<char> >(fmt::v11::basic_appender<char>, fmt::v11::detail::dragonbox::decimal_fp<float> const&, fmt::v11::format_specs const&, fmt::v11::detail::float_specs, fmt::v11::detail::locale_ref)::{lambda(fmt::v11::basic_appender<char>(fmt::v11::basic_appender<char>))#2}::operator() const
PUBLIC m 69614 0 fmt::v11::detail::write_significand<char, fmt::v11::basic_appender<char>, unsigned int, fmt::v11::detail::digit_grouping<char> >(fmt::v11::basic_appender<char>, unsigned int, int, int, fmt::v11::detail::digit_grouping<char> const&)
PUBLIC m 698d4 0 fmt::v11::detail::digit_grouping<char>::apply<fmt::v11::basic_appender<char>, char>(fmt::v11::basic_appender<char>, fmt::v11::basic_string_view<char>) const
PUBLIC m 69c8c 0 fmt::v11::basic_memory_buffer<int, (unsigned long)500, std::__ndk1::allocator<int> >::grow(fmt::v11::detail::buffer<int>&, unsigned long)
PUBLIC m 69d2c 0 fmt::v11::detail::write_padded<char, (fmt::v11::align::type)2, fmt::v11::basic_appender<char>, fmt::v11::detail::do_write_float<char, fmt::v11::basic_appender<char>, fmt::v11::detail::dragonbox::decimal_fp<float>, fmt::v11::detail::digit_grouping<char> >(fmt::v11::basic_appender<char>, fmt::v11::detail::dragonbox::decimal_fp<float> const&, fmt::v11::format_specs const&, fmt::v11::detail::float_specs, fmt::v11::detail::locale_ref)::{lambda(fmt::v11::basic_appender<char>&)#3}>(fmt::v11::basic_appender<char>, fmt::v11::format_specs const&, unsigned long, unsigned long, fmt::v11::detail::do_write_float<char, fmt::v11::basic_appender<char>, fmt::v11::detail::dragonbox::decimal_fp<float>, fmt::v11::detail::digit_grouping<char> >(fmt::v11::basic_appender<char>, fmt::v11::detail::dragonbox::decimal_fp<float> const&, fmt::v11::format_specs const&, fmt::v11::detail::float_specs, fmt::v11::detail::locale_ref)::{lambda(fmt::v11::basic_appender<char>&)#3})
PUBLIC m 69ebc 0 fmt::v11::detail::write_significand<fmt::v11::basic_appender<char>, char, unsigned int, fmt::v11::detail::digit_grouping<char> >(fmt::v11::basic_appender<char>, unsigned int, int, int, char, fmt::v11::detail::digit_grouping<char> const&)
PUBLIC m 6a004 0 fmt::v11::detail::do_write_float<char, fmt::v11::basic_appender<char>, fmt::v11::detail::dragonbox::decimal_fp<float>, fmt::v11::detail::digit_grouping<char> >(fmt::v11::basic_appender<char>, fmt::v11::detail::dragonbox::decimal_fp<float> const&, fmt::v11::format_specs const&, fmt::v11::detail::float_specs, fmt::v11::detail::locale_ref)::{lambda(fmt::v11::basic_appender<char>(fmt::v11::basic_appender<char>))#4}::operator() const
PUBLIC m 6a220 0 fmt::v11::detail::do_write_float<char, fmt::v11::basic_appender<char>, fmt::v11::detail::dragonbox::decimal_fp<double>, fmt::v11::detail::digit_grouping<char> >(fmt::v11::basic_appender<char>, fmt::v11::detail::dragonbox::decimal_fp<double> const&, fmt::v11::format_specs const&, fmt::v11::detail::float_specs, fmt::v11::detail::locale_ref)
PUBLIC m 6a904 0 fmt::v11::detail::do_write_float<char, fmt::v11::basic_appender<char>, fmt::v11::detail::dragonbox::decimal_fp<double>, fmt::v11::detail::digit_grouping<char> >(fmt::v11::basic_appender<char>, fmt::v11::detail::dragonbox::decimal_fp<double> const&, fmt::v11::format_specs const&, fmt::v11::detail::float_specs, fmt::v11::detail::locale_ref)::{lambda(fmt::v11::basic_appender<char>(fmt::v11::basic_appender<char>))#1}::operator() const
PUBLIC m 6aa5c 0 _ZN3fmt3v116detail17write_significandIcmTnNSt6__ndk19enable_ifIXsr3std11is_integralIT0_EE5valueEiE4typeELi0EEEPT_S9_S5_iiS8_
PUBLIC m 6abec 0 fmt::v11::detail::do_write_float<char, fmt::v11::basic_appender<char>, fmt::v11::detail::dragonbox::decimal_fp<double>, fmt::v11::detail::digit_grouping<char> >(fmt::v11::basic_appender<char>, fmt::v11::detail::dragonbox::decimal_fp<double> const&, fmt::v11::format_specs const&, fmt::v11::detail::float_specs, fmt::v11::detail::locale_ref)::{lambda(fmt::v11::basic_appender<char>(fmt::v11::basic_appender<char>))#2}::operator() const
PUBLIC m 6ad20 0 fmt::v11::detail::write_significand<char, fmt::v11::basic_appender<char>, unsigned long, fmt::v11::detail::digit_grouping<char> >(fmt::v11::basic_appender<char>, unsigned long, int, int, fmt::v11::detail::digit_grouping<char> const&)
PUBLIC m 6aff8 0 fmt::v11::detail::write_padded<char, (fmt::v11::align::type)2, fmt::v11::basic_appender<char>, fmt::v11::detail::do_write_float<char, fmt::v11::basic_appender<char>, fmt::v11::detail::dragonbox::decimal_fp<double>, fmt::v11::detail::digit_grouping<char> >(fmt::v11::basic_appender<char>, fmt::v11::detail::dragonbox::decimal_fp<double> const&, fmt::v11::format_specs const&, fmt::v11::detail::float_specs, fmt::v11::detail::locale_ref)::{lambda(fmt::v11::basic_appender<char>&)#3}>(fmt::v11::basic_appender<char>, fmt::v11::format_specs const&, unsigned long, unsigned long, fmt::v11::detail::do_write_float<char, fmt::v11::basic_appender<char>, fmt::v11::detail::dragonbox::decimal_fp<double>, fmt::v11::detail::digit_grouping<char> >(fmt::v11::basic_appender<char>, fmt::v11::detail::dragonbox::decimal_fp<double> const&, fmt::v11::format_specs const&, fmt::v11::detail::float_specs, fmt::v11::detail::locale_ref)::{lambda(fmt::v11::basic_appender<char>&)#3})
PUBLIC m 6b188 0 fmt::v11::detail::write_significand<fmt::v11::basic_appender<char>, char, unsigned long, fmt::v11::detail::digit_grouping<char> >(fmt::v11::basic_appender<char>, unsigned long, int, int, char, fmt::v11::detail::digit_grouping<char> const&)
PUBLIC m 6b2d0 0 fmt::v11::detail::do_write_float<char, fmt::v11::basic_appender<char>, fmt::v11::detail::dragonbox::decimal_fp<double>, fmt::v11::detail::digit_grouping<char> >(fmt::v11::basic_appender<char>, fmt::v11::detail::dragonbox::decimal_fp<double> const&, fmt::v11::format_specs const&, fmt::v11::detail::float_specs, fmt::v11::detail::locale_ref)::{lambda(fmt::v11::basic_appender<char>(fmt::v11::basic_appender<char>))#4}::operator() const
PUBLIC m 6b4f8 0 fmt::v11::detail::write_float<char, fmt::v11::basic_appender<char>, long double>(fmt::v11::basic_appender<char>, long double, fmt::v11::format_specs, fmt::v11::detail::locale_ref)
PUBLIC m 6b8e0 0 _ZN3fmt3v116detail15format_hexfloatIeTnNSt6__ndk19enable_ifIXntsr16is_double_doubleIT_EE5valueEiE4typeELi0EEEvS5_NS0_12format_specsERNS1_6bufferIcEE
PUBLIC m 6be48 0 fmt::v11::detail::format_float<long double>(long double, int, fmt::v11::detail::float_specs, fmt::v11::detail::buffer<char>&)
PUBLIC m 6c10c 0 fmt::v11::detail::write_padded<char, (fmt::v11::align::type)2, fmt::v11::basic_appender<char>, fmt::v11::detail::write_bytes<char, (fmt::v11::align::type)2, fmt::v11::basic_appender<char> >(fmt::v11::basic_appender<char>, fmt::v11::basic_string_view<char>, fmt::v11::format_specs const&)::{lambda(fmt::v11::basic_appender<char>&)#1}>(fmt::v11::basic_appender<char>, fmt::v11::format_specs const&, unsigned long, unsigned long, fmt::v11::detail::write_bytes<char, (fmt::v11::align::type)2, fmt::v11::basic_appender<char> >(fmt::v11::basic_appender<char>, fmt::v11::basic_string_view<char>, fmt::v11::format_specs const&)::{lambda(fmt::v11::basic_appender<char>&)#1})
PUBLIC m 6c300 0 fmt::v11::detail::format_dragon(fmt::v11::detail::basic_fp<unsigned __int128>, unsigned int, int, fmt::v11::detail::buffer<char>&, int&)
PUBLIC m 6d734 0 fmt::v11::detail::bigint::operator<<=(int)
PUBLIC m 6d858 0 fmt::v11::detail::bigint::assign_pow10(int)
PUBLIC m 6d9ec 0 fmt::v11::detail::bigint::divmod_assign(fmt::v11::detail::bigint const&)
PUBLIC m 6dd0c 0 fmt::v11::basic_memory_buffer<unsigned int, (unsigned long)32, std::__ndk1::allocator<unsigned int> >::grow(fmt::v11::detail::buffer<unsigned int>&, unsigned long)
PUBLIC m 6ddac 0 fmt::v11::detail::bigint::square()
PUBLIC m 6e378 0 fmt::v11::detail::do_write_float<char, fmt::v11::basic_appender<char>, fmt::v11::detail::big_decimal_fp, fmt::v11::detail::digit_grouping<char> >(fmt::v11::basic_appender<char>, fmt::v11::detail::big_decimal_fp const&, fmt::v11::format_specs const&, fmt::v11::detail::float_specs, fmt::v11::detail::locale_ref)
PUBLIC m 6ea30 0 fmt::v11::detail::do_write_float<char, fmt::v11::basic_appender<char>, fmt::v11::detail::big_decimal_fp, fmt::v11::detail::digit_grouping<char> >(fmt::v11::basic_appender<char>, fmt::v11::detail::big_decimal_fp const&, fmt::v11::format_specs const&, fmt::v11::detail::float_specs, fmt::v11::detail::locale_ref)::{lambda(fmt::v11::basic_appender<char>(fmt::v11::basic_appender<char>))#1}::operator() const
PUBLIC m 6eb98 0 fmt::v11::detail::do_write_float<char, fmt::v11::basic_appender<char>, fmt::v11::detail::big_decimal_fp, fmt::v11::detail::digit_grouping<char> >(fmt::v11::basic_appender<char>, fmt::v11::detail::big_decimal_fp const&, fmt::v11::format_specs const&, fmt::v11::detail::float_specs, fmt::v11::detail::locale_ref)::{lambda(fmt::v11::basic_appender<char>(fmt::v11::basic_appender<char>))#2}::operator() const
PUBLIC m 6eccc 0 fmt::v11::detail::write_significand<char, fmt::v11::basic_appender<char>, char const*, fmt::v11::detail::digit_grouping<char> >(fmt::v11::basic_appender<char>, char const*, int, int, fmt::v11::detail::digit_grouping<char> const&)
PUBLIC m 6f0b4 0 fmt::v11::detail::write_padded<char, (fmt::v11::align::type)2, fmt::v11::basic_appender<char>, fmt::v11::detail::do_write_float<char, fmt::v11::basic_appender<char>, fmt::v11::detail::big_decimal_fp, fmt::v11::detail::digit_grouping<char> >(fmt::v11::basic_appender<char>, fmt::v11::detail::big_decimal_fp const&, fmt::v11::format_specs const&, fmt::v11::detail::float_specs, fmt::v11::detail::locale_ref)::{lambda(fmt::v11::basic_appender<char>&)#3}>(fmt::v11::basic_appender<char>, fmt::v11::format_specs const&, unsigned long, unsigned long, fmt::v11::detail::do_write_float<char, fmt::v11::basic_appender<char>, fmt::v11::detail::big_decimal_fp, fmt::v11::detail::digit_grouping<char> >(fmt::v11::basic_appender<char>, fmt::v11::detail::big_decimal_fp const&, fmt::v11::format_specs const&, fmt::v11::detail::float_specs, fmt::v11::detail::locale_ref)::{lambda(fmt::v11::basic_appender<char>&)#3})
PUBLIC m 6f244 0 fmt::v11::detail::write_significand<fmt::v11::basic_appender<char>, char, char const*, fmt::v11::detail::digit_grouping<char> >(fmt::v11::basic_appender<char>, char const*, int, int, char, fmt::v11::detail::digit_grouping<char> const&)
PUBLIC m 6f458 0 fmt::v11::detail::do_write_float<char, fmt::v11::basic_appender<char>, fmt::v11::detail::big_decimal_fp, fmt::v11::detail::digit_grouping<char> >(fmt::v11::basic_appender<char>, fmt::v11::detail::big_decimal_fp const&, fmt::v11::format_specs const&, fmt::v11::detail::float_specs, fmt::v11::detail::locale_ref)::{lambda(fmt::v11::basic_appender<char>(fmt::v11::basic_appender<char>))#4}::operator() const
PUBLIC m 6f6d8 0 fmt::v11::detail::write_padded<char, (fmt::v11::align::type)2, fmt::v11::basic_appender<char>, fmt::v11::detail::write_ptr<char, fmt::v11::basic_appender<char>, unsigned long>(fmt::v11::basic_appender<char>, unsigned long, fmt::v11::format_specs const*)::{lambda(fmt::v11::basic_appender<char>&)#1}>(fmt::v11::basic_appender<char>, fmt::v11::format_specs const&, unsigned long, unsigned long, fmt::v11::detail::write_ptr<char, fmt::v11::basic_appender<char>, unsigned long>(fmt::v11::basic_appender<char>, unsigned long, fmt::v11::format_specs const*)::{lambda(fmt::v11::basic_appender<char>&)#1})
PUBLIC m 6f8f8 0 fmt::v11::detail::parse_replacement_field<char, fmt::v11::detail::vformat_to<char>(fmt::v11::detail::buffer<char>&, fmt::v11::basic_string_view<char>, fmt::v11::detail::vformat_args<char>::type, fmt::v11::detail::locale_ref)::format_handler&>(char const*, char const*, fmt::v11::detail::vformat_to<char>(fmt::v11::detail::buffer<char>&, fmt::v11::basic_string_view<char>, fmt::v11::detail::vformat_args<char>::type, fmt::v11::detail::locale_ref)::format_handler&)
PUBLIC m 6ffbc 0 fmt::v11::detail::vformat_to<char>(fmt::v11::detail::buffer<char>&, fmt::v11::basic_string_view<char>, fmt::v11::detail::vformat_args<char>::type, fmt::v11::detail::locale_ref)::format_handler::on_format_specs(int, char const*, char const*)
PUBLIC m 705e0 0 fmt::v11::detail::do_parse_arg_id<char, fmt::v11::detail::parse_replacement_field<char, fmt::v11::detail::vformat_to<char>(fmt::v11::detail::buffer<char>&, fmt::v11::basic_string_view<char>, fmt::v11::detail::vformat_args<char>::type, fmt::v11::detail::locale_ref)::format_handler&>(char const*, char const*, fmt::v11::detail::vformat_to<char>(fmt::v11::detail::buffer<char>&, fmt::v11::basic_string_view<char>, fmt::v11::detail::vformat_args<char>::type, fmt::v11::detail::locale_ref)::format_handler&)::id_adapter&>(char const*, char const*, fmt::v11::detail::parse_replacement_field<char, fmt::v11::detail::vformat_to<char>(fmt::v11::detail::buffer<char>&, fmt::v11::basic_string_view<char>, fmt::v11::detail::vformat_args<char>::type, fmt::v11::detail::locale_ref)::format_handler&>(char const*, char const*, fmt::v11::detail::vformat_to<char>(fmt::v11::detail::buffer<char>&, fmt::v11::basic_string_view<char>, fmt::v11::detail::vformat_args<char>::type, fmt::v11::detail::locale_ref)::format_handler&)::id_adapter&)
PUBLIC m 70838 0 fmt::v11::detail::parse_format_specs<char>(char const*, char const*, fmt::v11::detail::dynamic_format_specs<char>&, fmt::v11::basic_format_parse_context<char>&, fmt::v11::detail::type)
PUBLIC m 70cec 0 fmt::v11::detail::handle_dynamic_spec<fmt::v11::detail::width_checker, fmt::v11::context>(int&, fmt::v11::detail::arg_ref<fmt::v11::context::char_type>, fmt::v11::context&)
PUBLIC m 70e00 0 fmt::v11::detail::handle_dynamic_spec<fmt::v11::detail::precision_checker, fmt::v11::context>(int&, fmt::v11::detail::arg_ref<fmt::v11::context::char_type>, fmt::v11::context&)
PUBLIC m 70f14 0 fmt::v11::detail::parse_dynamic_spec<char>(char const*, char const*, int&, fmt::v11::detail::arg_ref<char>&, fmt::v11::basic_format_parse_context<char>&)
PUBLIC m 710b8 0 fmt::v11::detail::do_parse_arg_id<char, fmt::v11::detail::dynamic_spec_id_handler<char>&>(char const*, char const*, fmt::v11::detail::dynamic_spec_id_handler<char>&)
PUBLIC m 7124c 0 fmt::v11::detail::get_dynamic_spec<fmt::v11::detail::width_checker, fmt::v11::basic_format_arg<fmt::v11::context> >(fmt::v11::basic_format_arg<fmt::v11::context>)
PUBLIC m 712e0 0 fmt::v11::basic_format_args<fmt::v11::context>::get<char>(fmt::v11::basic_string_view<char>) const
PUBLIC m 71438 0 fmt::v11::detail::get_dynamic_spec<fmt::v11::detail::precision_checker, fmt::v11::basic_format_arg<fmt::v11::context> >(fmt::v11::basic_format_arg<fmt::v11::context>)
PUBLIC m 714cc 0 fmt::v11::detail::write_int_noinline<char, fmt::v11::basic_appender<char>, unsigned long>(fmt::v11::basic_appender<char>, fmt::v11::detail::write_int_arg<unsigned long>, fmt::v11::format_specs const&, fmt::v11::detail::locale_ref)
PUBLIC m 71eb4 0 fmt::v11::detail::write_int<char, fmt::v11::basic_appender<char>, fmt::v11::detail::write_int<char, fmt::v11::basic_appender<char>, unsigned long>(fmt::v11::basic_appender<char>, fmt::v11::detail::write_int_arg<unsigned long>, fmt::v11::format_specs const&, fmt::v11::detail::locale_ref)::{lambda(fmt::v11::basic_appender<char>)#1}>(fmt::v11::basic_appender<char>, int, unsigned int, fmt::v11::format_specs const&, fmt::v11::detail::write_int<char, fmt::v11::basic_appender<char>, unsigned long>(fmt::v11::basic_appender<char>, fmt::v11::detail::write_int_arg<unsigned long>, fmt::v11::format_specs const&, fmt::v11::detail::locale_ref)::{lambda(fmt::v11::basic_appender<char>)#1})::{lambda(fmt::v11::basic_appender<char>(fmt::v11::basic_appender<char>))#1}::operator() const
PUBLIC m 72050 0 fmt::v11::detail::write_int<char, fmt::v11::basic_appender<char>, fmt::v11::detail::write_int<char, fmt::v11::basic_appender<char>, unsigned long>(fmt::v11::basic_appender<char>, fmt::v11::detail::write_int_arg<unsigned long>, fmt::v11::format_specs const&, fmt::v11::detail::locale_ref)::{lambda(fmt::v11::basic_appender<char>)#2}>(fmt::v11::basic_appender<char>, int, unsigned int, fmt::v11::format_specs const&, fmt::v11::detail::write_int<char, fmt::v11::basic_appender<char>, unsigned long>(fmt::v11::basic_appender<char>, fmt::v11::detail::write_int_arg<unsigned long>, fmt::v11::format_specs const&, fmt::v11::detail::locale_ref)::{lambda(fmt::v11::basic_appender<char>)#2})::{lambda(fmt::v11::basic_appender<char>(fmt::v11::basic_appender<char>))#1}::operator() const
PUBLIC m 72238 0 fmt::v11::detail::write_int<char, fmt::v11::basic_appender<char>, fmt::v11::detail::write_int<char, fmt::v11::basic_appender<char>, unsigned long>(fmt::v11::basic_appender<char>, fmt::v11::detail::write_int_arg<unsigned long>, fmt::v11::format_specs const&, fmt::v11::detail::locale_ref)::{lambda(fmt::v11::basic_appender<char>)#3}>(fmt::v11::basic_appender<char>, int, unsigned int, fmt::v11::format_specs const&, fmt::v11::detail::write_int<char, fmt::v11::basic_appender<char>, unsigned long>(fmt::v11::basic_appender<char>, fmt::v11::detail::write_int_arg<unsigned long>, fmt::v11::format_specs const&, fmt::v11::detail::locale_ref)::{lambda(fmt::v11::basic_appender<char>)#3})::{lambda(fmt::v11::basic_appender<char>(fmt::v11::basic_appender<char>))#1}::operator() const
PUBLIC m 723e4 0 fmt::v11::detail::write_int<char, fmt::v11::basic_appender<char>, fmt::v11::detail::write_int<char, fmt::v11::basic_appender<char>, unsigned long>(fmt::v11::basic_appender<char>, fmt::v11::detail::write_int_arg<unsigned long>, fmt::v11::format_specs const&, fmt::v11::detail::locale_ref)::{lambda(fmt::v11::basic_appender<char>)#4}>(fmt::v11::basic_appender<char>, int, unsigned int, fmt::v11::format_specs const&, fmt::v11::detail::write_int<char, fmt::v11::basic_appender<char>, unsigned long>(fmt::v11::basic_appender<char>, fmt::v11::detail::write_int_arg<unsigned long>, fmt::v11::format_specs const&, fmt::v11::detail::locale_ref)::{lambda(fmt::v11::basic_appender<char>)#4})::{lambda(fmt::v11::basic_appender<char>(fmt::v11::basic_appender<char>))#1}::operator() const
PUBLIC m 72598 0 fmt::v11::detail::write_int_noinline<char, fmt::v11::basic_appender<char>, unsigned __int128>(fmt::v11::basic_appender<char>, fmt::v11::detail::write_int_arg<unsigned __int128>, fmt::v11::format_specs const&, fmt::v11::detail::locale_ref)
PUBLIC m 73098 0 fmt::v11::detail::write_int<char, fmt::v11::basic_appender<char>, fmt::v11::detail::write_int<char, fmt::v11::basic_appender<char>, unsigned __int128>(fmt::v11::basic_appender<char>, fmt::v11::detail::write_int_arg<unsigned __int128>, fmt::v11::format_specs const&, fmt::v11::detail::locale_ref)::{lambda(fmt::v11::basic_appender<char>)#1}>(fmt::v11::basic_appender<char>, int, unsigned int, fmt::v11::format_specs const&, fmt::v11::detail::write_int<char, fmt::v11::basic_appender<char>, unsigned __int128>(fmt::v11::basic_appender<char>, fmt::v11::detail::write_int_arg<unsigned __int128>, fmt::v11::format_specs const&, fmt::v11::detail::locale_ref)::{lambda(fmt::v11::basic_appender<char>)#1})::{lambda(fmt::v11::basic_appender<char>(fmt::v11::basic_appender<char>))#1}::operator() const
PUBLIC m 7326c 0 fmt::v11::detail::write_int<char, fmt::v11::basic_appender<char>, fmt::v11::detail::write_int<char, fmt::v11::basic_appender<char>, unsigned __int128>(fmt::v11::basic_appender<char>, fmt::v11::detail::write_int_arg<unsigned __int128>, fmt::v11::format_specs const&, fmt::v11::detail::locale_ref)::{lambda(fmt::v11::basic_appender<char>)#2}>(fmt::v11::basic_appender<char>, int, unsigned int, fmt::v11::format_specs const&, fmt::v11::detail::write_int<char, fmt::v11::basic_appender<char>, unsigned __int128>(fmt::v11::basic_appender<char>, fmt::v11::detail::write_int_arg<unsigned __int128>, fmt::v11::format_specs const&, fmt::v11::detail::locale_ref)::{lambda(fmt::v11::basic_appender<char>)#2})::{lambda(fmt::v11::basic_appender<char>(fmt::v11::basic_appender<char>))#1}::operator() const
PUBLIC m 7346c 0 fmt::v11::detail::write_int<char, fmt::v11::basic_appender<char>, fmt::v11::detail::write_int<char, fmt::v11::basic_appender<char>, unsigned __int128>(fmt::v11::basic_appender<char>, fmt::v11::detail::write_int_arg<unsigned __int128>, fmt::v11::format_specs const&, fmt::v11::detail::locale_ref)::{lambda(fmt::v11::basic_appender<char>)#3}>(fmt::v11::basic_appender<char>, int, unsigned int, fmt::v11::format_specs const&, fmt::v11::detail::write_int<char, fmt::v11::basic_appender<char>, unsigned __int128>(fmt::v11::basic_appender<char>, fmt::v11::detail::write_int_arg<unsigned __int128>, fmt::v11::format_specs const&, fmt::v11::detail::locale_ref)::{lambda(fmt::v11::basic_appender<char>)#3})::{lambda(fmt::v11::basic_appender<char>(fmt::v11::basic_appender<char>))#1}::operator() const
PUBLIC m 73638 0 fmt::v11::detail::write_int<char, fmt::v11::basic_appender<char>, fmt::v11::detail::write_int<char, fmt::v11::basic_appender<char>, unsigned __int128>(fmt::v11::basic_appender<char>, fmt::v11::detail::write_int_arg<unsigned __int128>, fmt::v11::format_specs const&, fmt::v11::detail::locale_ref)::{lambda(fmt::v11::basic_appender<char>)#4}>(fmt::v11::basic_appender<char>, int, unsigned int, fmt::v11::format_specs const&, fmt::v11::detail::write_int<char, fmt::v11::basic_appender<char>, unsigned __int128>(fmt::v11::basic_appender<char>, fmt::v11::detail::write_int_arg<unsigned __int128>, fmt::v11::format_specs const&, fmt::v11::detail::locale_ref)::{lambda(fmt::v11::basic_appender<char>)#4})::{lambda(fmt::v11::basic_appender<char>(fmt::v11::basic_appender<char>))#1}::operator() const
PUBLIC m 73810 0 fmt::v11::detail::write<char, fmt::v11::basic_appender<char> >(fmt::v11::basic_appender<char>, char, fmt::v11::format_specs const&, fmt::v11::detail::locale_ref)
PUBLIC m 73948 0 fmt::v11::detail::write_float<char, fmt::v11::basic_appender<char>, float>(fmt::v11::basic_appender<char>, float, fmt::v11::format_specs, fmt::v11::detail::locale_ref)
PUBLIC m 73ce0 0 _ZN3fmt3v116detail15format_hexfloatIdTnNSt6__ndk19enable_ifIXntsr16is_double_doubleIT_EE5valueEiE4typeELi0EEEvS5_NS0_12format_specsERNS1_6bufferIcEE
PUBLIC m 74200 0 fmt::v11::detail::format_float<double>(double, int, fmt::v11::detail::float_specs, fmt::v11::detail::buffer<char>&)
PUBLIC m 749f8 0 _ZN3fmt3v116detail5writeIcNS0_14basic_appenderIcEEmTnNSt6__ndk19enable_ifIXaaaasr11is_integralIT1_EE5valuentsr3std7is_sameIS7_bEE5valuentsr3std7is_sameIS7_T_EE5valueEiE4typeELi0EEET0_SB_S7_
PUBLIC m 74c04 0 fmt::v11::detail::write_float<char, fmt::v11::basic_appender<char>, double>(fmt::v11::basic_appender<char>, double, fmt::v11::format_specs, fmt::v11::detail::locale_ref)
PUBLIC m 74f90 0 fmt::v11::detail::write<char, fmt::v11::basic_appender<char> >(fmt::v11::basic_appender<char>, fmt::v11::basic_string_view<char>, fmt::v11::format_specs const&)
PUBLIC m 7520c 0 fmt::v11::detail::write_escaped_string<char, fmt::v11::detail::counting_iterator>(fmt::v11::detail::counting_iterator, fmt::v11::basic_string_view<char>)
PUBLIC m 75720 0 fmt::v11::detail::write_padded<char, (fmt::v11::align::type)1, fmt::v11::basic_appender<char>, fmt::v11::detail::write<char, fmt::v11::basic_appender<char> >(fmt::v11::basic_appender<char>, fmt::v11::basic_string_view<char>, fmt::v11::format_specs const&)::{lambda(fmt::v11::basic_appender<char>)#1}>(fmt::v11::basic_appender<char>, fmt::v11::format_specs const&, unsigned long, unsigned long, fmt::v11::detail::write<char, fmt::v11::basic_appender<char> >(fmt::v11::basic_appender<char>, fmt::v11::basic_string_view<char>, fmt::v11::format_specs const&)::{lambda(fmt::v11::basic_appender<char>&&)#1})
PUBLIC m 7592c 0 fmt::v11::detail::for_each_codepoint<fmt::v11::detail::code_point_index(fmt::v11::basic_string_view<char>, unsigned long)::{lambda(unsigned int, fmt::v11::basic_string_view<char>)#1}>(fmt::v11::basic_string_view<char>, fmt::v11::detail::code_point_index(fmt::v11::basic_string_view<char>, unsigned long)::{lambda(unsigned int, fmt::v11::basic_string_view<char>)#1})
PUBLIC m 75d54 0 fmt::v11::detail::write_escaped_cp<fmt::v11::detail::counting_iterator, char>(fmt::v11::detail::counting_iterator, fmt::v11::detail::find_escape_result<char> const&)
PUBLIC m 75ee8 0 fmt::v11::detail::for_each_codepoint<fmt::v11::detail::compute_width(fmt::v11::basic_string_view<char>)::count_code_points>(fmt::v11::basic_string_view<char>, fmt::v11::detail::compute_width(fmt::v11::basic_string_view<char>)::count_code_points)::{lambda(char const*, char const*)#1}::operator()(char const*, char const*) const
PUBLIC m 760a0 0 fmt::v11::detail::write_escaped_string<char, fmt::v11::basic_appender<char> >(fmt::v11::basic_appender<char>, fmt::v11::basic_string_view<char>)
PUBLIC m 76730 0 _ZN3fmt3v116detail10loc_writerIcEclIiTnNSt6__ndk19enable_ifIXsr10is_integerIT_EE5valueEiE4typeELi0EEEbS7_
PUBLIC m 76948 0 _ZN3fmt3v116detail10loc_writerIcEclIjTnNSt6__ndk19enable_ifIXsr10is_integerIT_EE5valueEiE4typeELi0EEEbS7_
PUBLIC m 76b3c 0 _ZN3fmt3v116detail10loc_writerIcEclIxTnNSt6__ndk19enable_ifIXsr10is_integerIT_EE5valueEiE4typeELi0EEEbS7_
PUBLIC m 76d54 0 _ZN3fmt3v116detail10loc_writerIcEclIyTnNSt6__ndk19enable_ifIXsr10is_integerIT_EE5valueEiE4typeELi0EEEbS7_
PUBLIC m 76f48 0 _ZN3fmt3v116detail10loc_writerIcEclInTnNSt6__ndk19enable_ifIXsr10is_integerIT_EE5valueEiE4typeELi0EEEbS7_
PUBLIC m 77174 0 _ZN3fmt3v116detail10loc_writerIcEclIoTnNSt6__ndk19enable_ifIXsr10is_integerIT_EE5valueEiE4typeELi0EEEbS7_
PUBLIC m 77378 0 fmt::v11::detail::write_int<fmt::v11::basic_appender<char>, unsigned long, char>(fmt::v11::basic_appender<char>, unsigned long, unsigned int, fmt::v11::format_specs const&, fmt::v11::detail::digit_grouping<char> const&)
PUBLIC m 77874 0 fmt::v11::detail::write_padded<char, (fmt::v11::align::type)2, fmt::v11::basic_appender<char>, fmt::v11::detail::write_int<fmt::v11::basic_appender<char>, unsigned long, char>(fmt::v11::basic_appender<char>, unsigned long, unsigned int, fmt::v11::format_specs const&, fmt::v11::detail::digit_grouping<char> const&)::{lambda(fmt::v11::basic_appender<char>)#1}>(fmt::v11::basic_appender<char>, fmt::v11::format_specs const&, unsigned long, unsigned long, fmt::v11::detail::write_int<fmt::v11::basic_appender<char>, unsigned long, char>(fmt::v11::basic_appender<char>, unsigned long, unsigned int, fmt::v11::format_specs const&, fmt::v11::detail::digit_grouping<char> const&)::{lambda(fmt::v11::basic_appender<char>&&)#1})
PUBLIC m 77990 0 fmt::v11::detail::write_int<fmt::v11::basic_appender<char>, unsigned __int128, char>(fmt::v11::basic_appender<char>, unsigned __int128, unsigned int, fmt::v11::format_specs const&, fmt::v11::detail::digit_grouping<char> const&)
PUBLIC m 77fbc 0 fmt::v11::detail::write_padded<char, (fmt::v11::align::type)2, fmt::v11::basic_appender<char>, fmt::v11::detail::write_int<fmt::v11::basic_appender<char>, unsigned __int128, char>(fmt::v11::basic_appender<char>, unsigned __int128, unsigned int, fmt::v11::format_specs const&, fmt::v11::detail::digit_grouping<char> const&)::{lambda(fmt::v11::basic_appender<char>)#1}>(fmt::v11::basic_appender<char>, fmt::v11::format_specs const&, unsigned long, unsigned long, fmt::v11::detail::write_int<fmt::v11::basic_appender<char>, unsigned __int128, char>(fmt::v11::basic_appender<char>, unsigned __int128, unsigned int, fmt::v11::format_specs const&, fmt::v11::detail::digit_grouping<char> const&)::{lambda(fmt::v11::basic_appender<char>&&)#1})
PUBLIC 780e0 0 <.plt ELF section in km7dev.gdps-switcher.android64.so>
STACK CFI INIT 3e580 10 .cfa: sp 0 +
STACK CFI INIT 3e590 8 .cfa: sp 0 +
STACK CFI INIT 3e598 8 .cfa: sp 0 +
STACK CFI INIT 3e5a0 14 .cfa: sp 0 +
STACK CFI INIT 3e5b4 1c .cfa: sp 0 +
STACK CFI INIT 3e5d0 10 .cfa: sp 0 +
STACK CFI INIT 3e5e0 134 .cfa: sp 0 +
STACK CFI INIT 3e714 84 .cfa: sp 0 +
STACK CFI INIT 3e798 f4 .cfa: sp 0 +
STACK CFI INIT 3e88c a8 .cfa: sp 0 +
STACK CFI INIT 3e934 7c .cfa: sp 0 +
STACK CFI INIT 3e9b0 14 .cfa: sp 0 +
STACK CFI INIT 3e9c4 40 .cfa: sp 0 +
STACK CFI INIT 3ea04 28 .cfa: sp 0 +
STACK CFI INIT 3ea2c 190 .cfa: sp 0 +
STACK CFI INIT 3ebbc 2c8 .cfa: sp 0 +
STACK CFI INIT 3ee84 8 .cfa: sp 0 +
STACK CFI INIT 3ee8c 8 .cfa: sp 0 +
STACK CFI INIT 3ee94 44 .cfa: sp 0 +
STACK CFI INIT 3eed8 e8 .cfa: sp 0 +
STACK CFI INIT 3efc0 e8 .cfa: sp 0 +
STACK CFI INIT 3f0a8 14 .cfa: sp 0 +
STACK CFI INIT 3f0bc 10 .cfa: sp 0 +
STACK CFI INIT 3f0cc 10 .cfa: sp 0 +
STACK CFI INIT 3f0dc f0 .cfa: sp 0 +
STACK CFI INIT 3f1cc 44 .cfa: sp 0 +
STACK CFI INIT 3f210 c .cfa: sp 0 +
STACK CFI INIT 3f21c c .cfa: sp 0 +
STACK CFI INIT 3f228 2c .cfa: sp 0 +
STACK CFI INIT 3f254 280 .cfa: sp 0 +
STACK CFI INIT 3f4d4 c .cfa: sp 0 +
STACK CFI INIT 3f4e0 120 .cfa: sp 0 +
STACK CFI INIT 3f600 488 .cfa: sp 0 +
STACK CFI INIT 3fa88 c48 .cfa: sp 0 +
STACK CFI INIT 406d0 134 .cfa: sp 0 +
STACK CFI INIT 40804 210 .cfa: sp 0 +
STACK CFI INIT 40a14 38c .cfa: sp 0 +
STACK CFI INIT 40da0 1c8 .cfa: sp 0 +
STACK CFI INIT 40f68 9bc .cfa: sp 0 +
STACK CFI INIT 41924 2d4 .cfa: sp 0 +
STACK CFI INIT 41bf8 134 .cfa: sp 0 +
STACK CFI INIT 41d2c 120 .cfa: sp 0 +
STACK CFI INIT 41e4c 1c8 .cfa: sp 0 +
STACK CFI INIT 42014 168 .cfa: sp 0 +
STACK CFI INIT 4217c fc .cfa: sp 0 +
STACK CFI INIT 42278 30 .cfa: sp 0 +
STACK CFI INIT 42df0 14 .cfa: sp 0 +
STACK CFI 42df4 .cfa: sp 16 +
STACK CFI 42df8 .cfa: x29 16 + .ra: .cfa -8 + ^ x29: .cfa -16 + ^
STACK CFI INIT 42e54 30 .cfa: sp 0 +
STACK CFI 42e58 .cfa: sp 32 +
STACK CFI 42e60 .cfa: x29 32 + x19: .cfa -16 + ^ .ra: .cfa -24 + ^ x29: .cfa -32 + ^
STACK CFI 42e78 .cfa: sp 32 +
STACK CFI 42e80 .cfa: sp 0 +
STACK CFI INIT 42e84 4 .cfa: sp 0 +
STACK CFI INIT 42ffc 60 .cfa: sp 0 +
STACK CFI 43000 .cfa: sp 32 +
STACK CFI 43008 .cfa: x29 32 + x19: .cfa -16 + ^ .ra: .cfa -24 + ^ x29: .cfa -32 + ^
STACK CFI 43050 .cfa: sp 32 +
STACK CFI 43058 .cfa: sp 0 +
STACK CFI INIT 4305c 68 .cfa: sp 0 +
STACK CFI 43060 .cfa: sp 32 +
STACK CFI 43068 .cfa: x29 32 + x19: .cfa -16 + ^ .ra: .cfa -24 + ^ x29: .cfa -32 + ^
STACK CFI 430b8 .cfa: sp 32 +
STACK CFI 430c0 .cfa: sp 0 +
STACK CFI INIT 430c4 4 .cfa: sp 0 +
STACK CFI INIT 430c8 4 .cfa: sp 0 +
STACK CFI INIT 430cc 38 .cfa: sp 0 +
STACK CFI 430d0 .cfa: sp 32 +
STACK CFI 430d8 .cfa: x29 32 + x19: .cfa -16 + ^ .ra: .cfa -24 + ^ x29: .cfa -32 + ^
STACK CFI 430f8 .cfa: sp 32 +
STACK CFI 43100 .cfa: sp 0 +
STACK CFI INIT 43104 18 .cfa: sp 0 +
STACK CFI INIT 4311c 4 .cfa: sp 0 +
STACK CFI INIT 43120 4 .cfa: sp 0 +
STACK CFI INIT 43124 10 .cfa: sp 0 +
STACK CFI INIT 43134 1c .cfa: sp 0 +
STACK CFI INIT 43150 c .cfa: sp 0 +
STACK CFI INIT 4315c 104 .cfa: sp 0 +
STACK CFI 43160 .cfa: sp 64 +
STACK CFI 43170 .cfa: x29 64 + x19: .cfa -8 + ^ x20: .cfa -16 + ^ x21: .cfa -24 + ^ x22: .cfa -32 + ^ x23: .cfa -48 + ^ .ra: .cfa -56 + ^ x29: .cfa -64 + ^
STACK CFI 431cc .cfa: sp 64 +
STACK CFI 431dc .cfa: sp 0 +
STACK CFI 431e0 .cfa: x29 64 +
STACK CFI 431fc .cfa: sp 64 +
STACK CFI 4320c .cfa: sp 0 +
STACK CFI 43210 .cfa: x29 64 +
STACK CFI 4324c .cfa: sp 64 +
STACK CFI 4325c .cfa: sp 0 +
STACK CFI INIT 433a0 30 .cfa: sp 0 +
STACK CFI INIT 433d0 98 .cfa: sp 0 +
STACK CFI INIT 43468 59c .cfa: sp 0 +
STACK CFI INIT 43a04 8c .cfa: sp 0 +
STACK CFI INIT 43a90 30 .cfa: sp 0 +
STACK CFI INIT 43f40 1c .cfa: sp 0 +
STACK CFI INIT 4438c 50 .cfa: sp 0 +
STACK CFI 44390 .cfa: sp 32 +
STACK CFI 44398 .cfa: x29 32 + x19: .cfa -16 + ^ .ra: .cfa -24 + ^ x29: .cfa -32 + ^
STACK CFI 443b0 .cfa: sp 32 +
STACK CFI 443b8 .cfa: sp 0 +
STACK CFI 443bc .cfa: x29 32 +
STACK CFI 443d0 .cfa: sp 32 +
STACK CFI 443d8 .cfa: sp 0 +
STACK CFI INIT 44450 7c .cfa: sp 0 +
STACK CFI 44454 .cfa: sp 48 +
STACK CFI 44460 .cfa: x29 48 + x19: .cfa -8 + ^ x20: .cfa -16 + ^ x21: .cfa -32 + ^ .ra: .cfa -40 + ^ x29: .cfa -48 + ^
STACK CFI 444ac .cfa: sp 48 +
STACK CFI 444b8 .cfa: sp 0 +
STACK CFI 444bc .cfa: sp 48 +
STACK CFI 444c8 .cfa: sp 0 +
STACK CFI INIT 444cc 4 .cfa: sp 0 +
STACK CFI INIT 444d0 10 .cfa: sp 0 +
STACK CFI 444d4 .cfa: sp 16 +
STACK CFI 444d8 .cfa: x29 16 + .ra: .cfa -8 + ^ x29: .cfa -16 + ^
STACK CFI INIT 44634 34 .cfa: sp 0 +
STACK CFI 44638 .cfa: sp 16 +
STACK CFI 4463c .cfa: x29 16 + .ra: .cfa -8 + ^ x29: .cfa -16 + ^
STACK CFI INIT 44794 80 .cfa: sp 0 +
STACK CFI 44798 .cfa: sp 48 +
STACK CFI 447a4 .cfa: x29 48 + x19: .cfa -8 + ^ x20: .cfa -16 + ^ x21: .cfa -32 + ^ .ra: .cfa -40 + ^ x29: .cfa -48 + ^
STACK CFI 44804 .cfa: sp 48 +
STACK CFI 44810 .cfa: sp 0 +
STACK CFI INIT 44814 24 .cfa: sp 0 +
STACK CFI 44818 .cfa: sp 32 +
STACK CFI 44820 .cfa: x29 32 + x19: .cfa -16 + ^ .ra: .cfa -24 + ^ x29: .cfa -32 + ^
STACK CFI 4482c .cfa: sp 32 +
STACK CFI 44834 .cfa: sp 0 +
STACK CFI INIT 44bb8 34 .cfa: sp 0 +
STACK CFI 44bbc .cfa: sp 32 +
STACK CFI 44bc4 .cfa: x29 32 + x19: .cfa -16 + ^ .ra: .cfa -24 + ^ x29: .cfa -32 + ^
STACK CFI INIT 44d64 148 .cfa: sp 0 +
STACK CFI 44d68 .cfa: sp 48 +
STACK CFI 44d74 .cfa: x29 48 + x19: .cfa -8 + ^ x20: .cfa -16 + ^ x21: .cfa -32 + ^ .ra: .cfa -40 + ^ x29: .cfa -48 + ^
STACK CFI 44e9c .cfa: sp 48 +
STACK CFI 44ea8 .cfa: sp 0 +
STACK CFI INIT 450d4 80 .cfa: sp 0 +
STACK CFI 450d8 .cfa: sp 48 +
STACK CFI 450e4 .cfa: x29 48 + x19: .cfa -8 + ^ x20: .cfa -16 + ^ x21: .cfa -24 + ^ x22: .cfa -32 + ^ .ra: .cfa -40 + ^ x29: .cfa -48 + ^
STACK CFI 450fc .cfa: sp 48 +
STACK CFI 45108 .cfa: sp 0 +
STACK CFI 4510c .cfa: x29 48 +
STACK CFI 4513c .cfa: sp 48 +
STACK CFI 45148 .cfa: sp 0 +
STACK CFI 4514c .cfa: x29 48 +
STACK CFI INIT 45154 68 .cfa: sp 0 +
STACK CFI 45158 .cfa: sp 32 +
STACK CFI 45160 .cfa: x29 32 + x19: .cfa -8 + ^ x20: .cfa -16 + ^ .ra: .cfa -24 + ^ x29: .cfa -32 + ^
STACK CFI 45178 .cfa: sp 32 +
STACK CFI 45180 .cfa: sp 0 +
STACK CFI 45184 .cfa: x29 32 +
STACK CFI 451b0 .cfa: sp 32 +
STACK CFI 451b8 .cfa: sp 0 +
STACK CFI INIT 451bc 14 .cfa: sp 0 +
STACK CFI 451c0 .cfa: sp 16 +
STACK CFI 451c4 .cfa: x29 16 + .ra: .cfa -8 + ^ x29: .cfa -16 + ^
STACK CFI INIT 451d0 4 .cfa: sp 0 +
STACK CFI INIT 451d4 14 .cfa: sp 0 +
STACK CFI INIT 451e8 120 .cfa: sp 0 +
STACK CFI 451ec .cfa: sp 64 +
STACK CFI 451fc .cfa: x29 64 + x19: .cfa -8 + ^ x20: .cfa -16 + ^ x21: .cfa -24 + ^ x22: .cfa -32 + ^ x23: .cfa -40 + ^ x24: .cfa -48 + ^ .ra: .cfa -56 + ^ x29: .cfa -64 + ^
STACK CFI 452f4 .cfa: sp 64 +
STACK CFI 45304 .cfa: sp 0 +
STACK CFI INIT 45308 d4 .cfa: sp 0 +
STACK CFI 4530c .cfa: sp 48 +
STACK CFI 45318 .cfa: x29 48 + x19: .cfa -8 + ^ x20: .cfa -16 + ^ x21: .cfa -32 + ^ .ra: .cfa -40 + ^ x29: .cfa -48 + ^
STACK CFI 453a8 .cfa: sp 48 +
STACK CFI 453b4 .cfa: sp 0 +
STACK CFI 453b8 .cfa: x29 48 +
STACK CFI INIT 453dc 3c8 .cfa: sp 0 +
STACK CFI INIT 457a4 8c .cfa: sp 0 +
STACK CFI 457ac .cfa: sp 32 +
STACK CFI 457b4 .cfa: x29 32 + x19: .cfa -8 + ^ x20: .cfa -16 + ^ .ra: .cfa -24 + ^ x29: .cfa -32 + ^
STACK CFI 457fc .cfa: sp 32 +
STACK CFI 45804 .cfa: sp 0 +
STACK CFI 4580c .cfa: x29 32 +
STACK CFI INIT 46bc8 50 .cfa: sp 0 +
STACK CFI 46bcc .cfa: sp 32 +
STACK CFI 46bd4 .cfa: x29 32 + x19: .cfa -16 + ^ .ra: .cfa -24 + ^ x29: .cfa -32 + ^
STACK CFI 46bec .cfa: sp 32 +
STACK CFI 46bf4 .cfa: sp 0 +
STACK CFI 46bf8 .cfa: x29 32 +
STACK CFI 46c0c .cfa: sp 32 +
STACK CFI 46c14 .cfa: sp 0 +
STACK CFI INIT 46c18 64 .cfa: sp 0 +
STACK CFI 46c1c .cfa: sp 32 +
STACK CFI 46c24 .cfa: x29 32 + x19: .cfa -16 + ^ .ra: .cfa -24 + ^ x29: .cfa -32 + ^
STACK CFI 46c50 .cfa: sp 32 +
STACK CFI 46c58 .cfa: sp 0 +
STACK CFI 46c5c .cfa: x29 32 +
STACK CFI 46c70 .cfa: sp 32 +
STACK CFI 46c78 .cfa: sp 0 +
STACK CFI INIT 46c7c 44 .cfa: sp 0 +
STACK CFI 46c80 .cfa: sp 32 +
STACK CFI 46c88 .cfa: x29 32 + x19: .cfa -16 + ^ .ra: .cfa -24 + ^ x29: .cfa -32 + ^
STACK CFI 46ca4 .cfa: sp 32 +
STACK CFI 46cac .cfa: sp 0 +
STACK CFI 46cb0 .cfa: x29 32 +
STACK CFI 46cb4 .cfa: sp 32 +
STACK CFI 46cbc .cfa: sp 0 +
STACK CFI INIT 46cc0 14 .cfa: sp 0 +
STACK CFI 46cc4 .cfa: sp 16 +
STACK CFI 46cc8 .cfa: x29 16 + .ra: .cfa -8 + ^ x29: .cfa -16 + ^
STACK CFI INIT 46d24 30 .cfa: sp 0 +
STACK CFI 46d28 .cfa: sp 32 +
STACK CFI 46d30 .cfa: x29 32 + x19: .cfa -16 + ^ .ra: .cfa -24 + ^ x29: .cfa -32 + ^
STACK CFI 46d48 .cfa: sp 32 +
STACK CFI 46d50 .cfa: sp 0 +
STACK CFI INIT 46d54 e8 .cfa: sp 0 +
STACK CFI 46d58 .cfa: sp 32 +
STACK CFI 46d60 .cfa: x29 32 + x19: .cfa -8 + ^ x20: .cfa -16 + ^ .ra: .cfa -24 + ^ x29: .cfa -32 + ^
STACK CFI 46da0 .cfa: sp 32 +
STACK CFI 46da8 .cfa: sp 0 +
STACK CFI 46dac .cfa: x29 32 +
STACK CFI 46de8 .cfa: sp 32 +
STACK CFI 46df0 .cfa: sp 0 +
STACK CFI 46df4 .cfa: x29 32 +
STACK CFI 46e14 .cfa: sp 32 +
STACK CFI 46e1c .cfa: sp 0 +
STACK CFI 46e20 .cfa: x29 32 +
STACK CFI 46e30 .cfa: sp 32 +
STACK CFI 46e38 .cfa: sp 0 +
STACK CFI INIT 46e3c ac .cfa: sp 0 +
STACK CFI 46e40 .cfa: sp 64 +
STACK CFI 46e50 .cfa: x29 64 + x19: .cfa -8 + ^ x20: .cfa -16 + ^ x21: .cfa -24 + ^ x22: .cfa -32 + ^ x23: .cfa -48 + ^ .ra: .cfa -56 + ^ x29: .cfa -64 + ^
STACK CFI 46ecc .cfa: sp 64 +
STACK CFI 46edc .cfa: sp 0 +
STACK CFI 46ee0 .cfa: x29 64 +
STACK CFI INIT 46ee8 110 .cfa: sp 0 +
STACK CFI 46eec .cfa: sp 64 +
STACK CFI 46efc .cfa: x29 64 + x19: .cfa -8 + ^ x20: .cfa -16 + ^ x21: .cfa -24 + ^ x22: .cfa -32 + ^ x23: .cfa -40 + ^ x24: .cfa -48 + ^ .ra: .cfa -56 + ^ x29: .cfa -64 + ^
STACK CFI 46fdc .cfa: sp 64 +
STACK CFI 46fec .cfa: sp 0 +
STACK CFI 46ff0 .cfa: x29 64 +
STACK CFI INIT 46ff8 178 .cfa: sp 0 +
STACK CFI 46ffc .cfa: sp 80 +
STACK CFI 47010 .cfa: x29 80 + x19: .cfa -8 + ^ x20: .cfa -16 + ^ x21: .cfa -24 + ^ x22: .cfa -32 + ^ x23: .cfa -40 + ^ x24: .cfa -48 + ^ x25: .cfa -56 + ^ x26: .cfa -64 + ^ .ra: .cfa -72 + ^ x29: .cfa -80 + ^
STACK CFI 47158 .cfa: sp 80 +
STACK CFI 4716c .cfa: sp 0 +
STACK CFI INIT 47170 1b0 .cfa: sp 0 +
STACK CFI INIT 47aa4 1c .cfa: sp 0 +
STACK CFI INIT 47dc8 4 .cfa: sp 0 +
STACK CFI INIT 48344 9c .cfa: sp 0 +
STACK CFI INIT 483e0 8 .cfa: sp 0 +
STACK CFI INIT 483e8 4 .cfa: sp 0 +
STACK CFI INIT 483ec 4 .cfa: sp 0 +
STACK CFI INIT 483f0 4 .cfa: sp 0 +
STACK CFI INIT 483f4 4 .cfa: sp 0 +
STACK CFI INIT 48e4c 114 .cfa: sp 0 +
STACK CFI 48e50 .cfa: sp 48 +
STACK CFI 48e5c .cfa: x29 48 + x19: .cfa -8 + ^ x20: .cfa -16 + ^ x21: .cfa -24 + ^ x22: .cfa -32 + ^ .ra: .cfa -40 + ^ x29: .cfa -48 + ^
STACK CFI 48f38 .cfa: sp 48 +
STACK CFI 48f44 .cfa: sp 0 +
STACK CFI 48f48 .cfa: sp 48 +
STACK CFI 48f54 .cfa: sp 0 +
STACK CFI 48f58 .cfa: x29 48 +
STACK CFI INIT 4913c 168 .cfa: sp 0 +
STACK CFI 49140 .cfa: sp 48 +
STACK CFI 4914c .cfa: x29 48 + x19: .cfa -8 + ^ x20: .cfa -16 + ^ x21: .cfa -24 + ^ x22: .cfa -32 + ^ .ra: .cfa -40 + ^ x29: .cfa -48 + ^
STACK CFI 49288 .cfa: sp 48 +
STACK CFI 49294 .cfa: sp 0 +
STACK CFI 49298 .cfa: x29 48 +
STACK CFI INIT 492a4 14 .cfa: sp 0 +
STACK CFI INIT 492b8 14 .cfa: sp 0 +
STACK CFI INIT 492cc 4 .cfa: sp 0 +
STACK CFI INIT 492d0 14 .cfa: sp 0 +
STACK CFI INIT 49450 8c .cfa: sp 0 +
STACK CFI 49454 .cfa: sp 48 +
STACK CFI 49460 .cfa: x29 48 + x19: .cfa -8 + ^ x20: .cfa -16 + ^ x21: .cfa -24 + ^ x22: .cfa -32 + ^ .ra: .cfa -40 + ^ x29: .cfa -48 + ^
STACK CFI 49468 .cfa: sp 48 +
STACK CFI 49474 .cfa: sp 0 +
STACK CFI 49478 .cfa: x29 48 +
STACK CFI 494cc .cfa: sp 48 +
STACK CFI 494d8 .cfa: sp 0 +
STACK CFI INIT 494dc 60 .cfa: sp 0 +
STACK CFI 494ec .cfa: sp 32 +
STACK CFI 494f4 .cfa: x29 32 + x19: .cfa -8 + ^ x20: .cfa -16 + ^ .ra: .cfa -24 + ^ x29: .cfa -32 + ^
STACK CFI 49530 .cfa: sp 32 +
STACK CFI 49538 .cfa: sp 0 +
STACK CFI INIT 4953c 7c .cfa: sp 0 +
STACK CFI 49540 .cfa: sp 48 +
STACK CFI 4954c .cfa: x29 48 + x19: .cfa -8 + ^ x20: .cfa -16 + ^ x21: .cfa -32 + ^ .ra: .cfa -40 + ^ x29: .cfa -48 + ^
STACK CFI 49598 .cfa: sp 48 +
STACK CFI 495a4 .cfa: sp 0 +
STACK CFI 495a8 .cfa: sp 48 +
STACK CFI 495b4 .cfa: sp 0 +
STACK CFI INIT 495b8 14 .cfa: sp 0 +
STACK CFI INIT 495cc 4 .cfa: sp 0 +
STACK CFI INIT 495d0 4 .cfa: sp 0 +
STACK CFI INIT 495d4 34 .cfa: sp 0 +
STACK CFI 495d8 .cfa: sp 32 +
STACK CFI 495e0 .cfa: x29 32 + x19: .cfa -16 + ^ .ra: .cfa -24 + ^ x29: .cfa -32 + ^
STACK CFI 495fc .cfa: sp 32 +
STACK CFI 49604 .cfa: sp 0 +
STACK CFI INIT 49608 14 .cfa: sp 0 +
STACK CFI INIT 4961c 4 .cfa: sp 0 +
STACK CFI INIT 49620 4 .cfa: sp 0 +
STACK CFI INIT 497a8 1c .cfa: sp 0 +
STACK CFI INIT 497c4 c .cfa: sp 0 +
STACK CFI INIT 497d0 4 .cfa: sp 0 +
STACK CFI INIT 497d4 34 .cfa: sp 0 +
STACK CFI 497d8 .cfa: sp 32 +
STACK CFI 497e0 .cfa: x29 32 + x19: .cfa -16 + ^ .ra: .cfa -24 + ^ x29: .cfa -32 + ^
STACK CFI 497fc .cfa: sp 32 +
STACK CFI 49804 .cfa: sp 0 +
STACK CFI INIT 49808 14 .cfa: sp 0 +
STACK CFI INIT 4981c 4 .cfa: sp 0 +
STACK CFI INIT 49820 4 .cfa: sp 0 +
STACK CFI INIT 49824 2c .cfa: sp 0 +
STACK CFI 49830 .cfa: sp 16 +
STACK CFI 49834 .cfa: x29 16 + .ra: .cfa -8 + ^ x29: .cfa -16 + ^
STACK CFI 49844 .cfa: sp 16 +
STACK CFI 49848 .cfa: sp 0 +
STACK CFI INIT 49850 1c .cfa: sp 0 +
STACK CFI INIT 4986c c .cfa: sp 0 +
STACK CFI INIT 49acc 2c .cfa: sp 0 +
STACK CFI 49ad0 .cfa: sp 32 +
STACK CFI 49ad8 .cfa: x29 32 + x19: .cfa -16 + ^ .ra: .cfa -24 + ^ x29: .cfa -32 + ^
STACK CFI 49aec .cfa: sp 32 +
STACK CFI 49af4 .cfa: sp 0 +
STACK CFI INIT 49af8 28 .cfa: sp 0 +
STACK CFI INIT 49b20 4 .cfa: sp 0 +
STACK CFI INIT 49b24 8 .cfa: sp 0 +
STACK CFI INIT 4a394 2c .cfa: sp 0 +
STACK CFI INIT 4a3c0 4 .cfa: sp 0 +
STACK CFI INIT 4a3c4 8 .cfa: sp 0 +
STACK CFI INIT 4a3cc 4 .cfa: sp 0 +
STACK CFI INIT 4a584 4 .cfa: sp 0 +
STACK CFI INIT 4a588 60 .cfa: sp 0 +
STACK CFI 4a58c .cfa: sp 32 +
STACK CFI 4a594 .cfa: x29 32 + x19: .cfa -8 + ^ x20: .cfa -16 + ^ .ra: .cfa -24 + ^ x29: .cfa -32 + ^
STACK CFI 4a5b4 .cfa: sp 32 +
STACK CFI 4a5bc .cfa: sp 0 +
STACK CFI 4a5c0 .cfa: x29 32 +
STACK CFI 4a5dc .cfa: sp 32 +
STACK CFI 4a5e4 .cfa: sp 0 +
STACK CFI INIT 4a5e8 70 .cfa: sp 0 +
STACK CFI 4a5ec .cfa: sp 32 +
STACK CFI 4a5f4 .cfa: x29 32 + x19: .cfa -8 + ^ x20: .cfa -16 + ^ .ra: .cfa -24 + ^ x29: .cfa -32 + ^
STACK CFI 4a61c .cfa: sp 32 +
STACK CFI 4a624 .cfa: sp 0 +
STACK CFI 4a628 .cfa: x29 32 +
STACK CFI 4a64c .cfa: sp 32 +
STACK CFI 4a654 .cfa: sp 0 +
STACK CFI INIT 4a658 10 .cfa: sp 0 +
STACK CFI INIT 4a668 30 .cfa: sp 0 +
STACK CFI 4a66c .cfa: sp 32 +
STACK CFI 4a674 .cfa: x29 32 + x19: .cfa -16 + ^ .ra: .cfa -24 + ^ x29: .cfa -32 + ^
STACK CFI 4a68c .cfa: sp 32 +
STACK CFI 4a694 .cfa: sp 0 +
STACK CFI INIT 4a698 4 .cfa: sp 0 +
STACK CFI INIT 4a69c 4 .cfa: sp 0 +
STACK CFI INIT 4a6a0 14c .cfa: sp 0 +
STACK CFI 4a6a4 .cfa: sp 80 +
STACK CFI 4a6b4 .cfa: x29 32 + x19: .cfa -8 + ^ x20: .cfa -16 + ^ .ra: .cfa -24 + ^ x29: .cfa -32 + ^ v8: .cfa -40 + ^ v9: .cfa -48 + ^
STACK CFI 4a774 .cfa: sp 80 +
STACK CFI 4a784 .cfa: sp 0 +
STACK CFI 4a788 .cfa: x29 32 +
STACK CFI INIT 4ad64 40 .cfa: sp 0 +
STACK CFI 4ad7c .cfa: sp 32 +
STACK CFI 4ad84 .cfa: x29 32 + x19: .cfa -16 + ^ .ra: .cfa -24 + ^ x29: .cfa -32 + ^
STACK CFI 4ad98 .cfa: sp 32 +
STACK CFI 4ada0 .cfa: sp 0 +
STACK CFI INIT 4ada4 44 .cfa: sp 0 +
STACK CFI 4ada8 .cfa: sp 32 +
STACK CFI 4adb0 .cfa: x29 32 + x19: .cfa -16 + ^ .ra: .cfa -24 + ^ x29: .cfa -32 + ^
STACK CFI 4addc .cfa: sp 32 +
STACK CFI 4ade4 .cfa: sp 0 +
STACK CFI INIT 4b724 4 .cfa: sp 0 +
STACK CFI INIT 4b728 34 .cfa: sp 0 +
STACK CFI 4b72c .cfa: sp 32 +
STACK CFI 4b734 .cfa: x29 32 + x19: .cfa -16 + ^ .ra: .cfa -24 + ^ x29: .cfa -32 + ^
STACK CFI 4b750 .cfa: sp 32 +
STACK CFI 4b758 .cfa: sp 0 +
STACK CFI INIT 4b75c 14 .cfa: sp 0 +
STACK CFI INIT 4b770 4 .cfa: sp 0 +
STACK CFI INIT 4b774 4 .cfa: sp 0 +
STACK CFI INIT 4b778 10 .cfa: sp 0 +
STACK CFI INIT 4b788 1c .cfa: sp 0 +
STACK CFI INIT 4b7a4 c .cfa: sp 0 +
STACK CFI INIT 4bcc0 10c .cfa: sp 0 +
STACK CFI 4bcc4 .cfa: sp 32 +
STACK CFI 4bccc .cfa: x29 32 + x19: .cfa -8 + ^ x20: .cfa -16 + ^ .ra: .cfa -24 + ^ x29: .cfa -32 + ^
STACK CFI 4bd5c .cfa: sp 32 +
STACK CFI 4bd64 .cfa: sp 0 +
STACK CFI 4bd68 .cfa: x29 32 +
STACK CFI 4bda8 .cfa: sp 32 +
STACK CFI 4bdb0 .cfa: sp 0 +
STACK CFI 4bdb4 .cfa: x29 32 +
STACK CFI 4bdc0 .cfa: sp 32 +
STACK CFI 4bdc8 .cfa: sp 0 +
STACK CFI INIT 4bdcc 2e0 .cfa: sp 0 +
STACK CFI 4bdd0 .cfa: sp 144 +
STACK CFI 4bdec .cfa: x29 96 + x19: .cfa -8 + ^ x20: .cfa -16 + ^ x21: .cfa -24 + ^ x22: .cfa -32 + ^ x23: .cfa -40 + ^ x24: .cfa -48 + ^ x25: .cfa -56 + ^ x26: .cfa -64 + ^ x27: .cfa -72 + ^ x28: .cfa -80 + ^ .ra: .cfa -88 + ^ x29: .cfa -96 + ^
STACK CFI 4c088 .cfa: sp 144 +
STACK CFI 4c0a4 .cfa: sp 0 +
STACK CFI 4c0a8 .cfa: x29 96 +
STACK CFI INIT 4c1a8 170 .cfa: sp 0 +
STACK CFI 4c1dc .cfa: sp 32 +
STACK CFI 4c1e4 .cfa: x29 32 + x19: .cfa -8 + ^ x20: .cfa -16 + ^ .ra: .cfa -24 + ^ x29: .cfa -32 + ^
STACK CFI 4c224 .cfa: sp 0 + x19: x19 x20: x20 .ra: x30 x29: x29
STACK CFI 4c22c .cfa: x29 32 + x19: .cfa -8 + ^ x20: .cfa -16 + ^ .ra: .cfa -24 + ^ x29: .cfa -32 + ^
STACK CFI 4c258 .cfa: sp 32 +
STACK CFI 4c260 .cfa: sp 0 +
STACK CFI 4c264 .cfa: x29 32 +
STACK CFI 4c2b4 .cfa: sp 32 +
STACK CFI 4c2bc .cfa: sp 0 +
STACK CFI 4c2c0 .cfa: x29 32 +
STACK CFI 4c2c4 .cfa: sp 32 +
STACK CFI 4c2cc .cfa: sp 0 +
STACK CFI 4c2d0 .cfa: x29 32 +
STACK CFI 4c2e0 .cfa: sp 32 +
STACK CFI 4c2e8 .cfa: sp 0 +
STACK CFI 4c2ec .cfa: x29 32 +
STACK CFI INIT 4c464 e0 .cfa: sp 0 +
STACK CFI 4c468 .cfa: sp 64 +
STACK CFI 4c478 .cfa: x29 64 + x19: .cfa -8 + ^ x20: .cfa -16 + ^ x21: .cfa -24 + ^ x22: .cfa -32 + ^ x23: .cfa -40 + ^ x24: .cfa -48 + ^ .ra: .cfa -56 + ^ x29: .cfa -64 + ^
STACK CFI 4c508 .cfa: sp 64 +
STACK CFI 4c518 .cfa: sp 0 +
STACK CFI 4c51c .cfa: x29 64 +
STACK CFI 4c528 .cfa: sp 64 +
STACK CFI 4c538 .cfa: sp 0 +
STACK CFI 4c53c .cfa: x29 64 +
STACK CFI INIT 4c674 68 .cfa: sp 0 +
STACK CFI 4c678 .cfa: sp 48 +
STACK CFI 4c684 .cfa: x29 48 + x19: .cfa -8 + ^ x20: .cfa -16 + ^ x21: .cfa -32 + ^ .ra: .cfa -40 + ^ x29: .cfa -48 + ^
STACK CFI 4c6bc .cfa: sp 48 +
STACK CFI 4c6c8 .cfa: sp 0 +
STACK CFI 4c6cc .cfa: sp 48 +
STACK CFI 4c6d8 .cfa: sp 0 +
STACK CFI INIT 4c6dc 14 .cfa: sp 0 +
STACK CFI 4c6e0 .cfa: sp 16 +
STACK CFI 4c6e4 .cfa: x29 16 + .ra: .cfa -8 + ^ x29: .cfa -16 + ^
STACK CFI INIT 4c6f0 11c .cfa: sp 0 +
STACK CFI 4c6f4 .cfa: sp 64 +
STACK CFI 4c704 .cfa: x29 64 + x19: .cfa -8 + ^ x20: .cfa -16 + ^ x21: .cfa -24 + ^ x22: .cfa -32 + ^ x23: .cfa -40 + ^ x24: .cfa -48 + ^ .ra: .cfa -56 + ^ x29: .cfa -64 + ^
STACK CFI 4c7dc .cfa: sp 64 +
STACK CFI 4c7ec .cfa: sp 0 +
STACK CFI 4c7f0 .cfa: x29 64 +
STACK CFI INIT 4c80c 4 .cfa: sp 0 +
STACK CFI INIT 4c810 34 .cfa: sp 0 +
STACK CFI 4c814 .cfa: sp 32 +
STACK CFI 4c81c .cfa: x29 32 + x19: .cfa -16 + ^ .ra: .cfa -24 + ^ x29: .cfa -32 + ^
STACK CFI 4c838 .cfa: sp 32 +
STACK CFI 4c840 .cfa: sp 0 +
STACK CFI INIT 4c844 14 .cfa: sp 0 +
STACK CFI INIT 4c858 4 .cfa: sp 0 +
STACK CFI INIT 4c85c 4 .cfa: sp 0 +
STACK CFI INIT 4c860 10 .cfa: sp 0 +
STACK CFI INIT 4c870 1c .cfa: sp 0 +
STACK CFI INIT 4c88c c .cfa: sp 0 +
STACK CFI INIT 4cf24 4 .cfa: sp 0 +
STACK CFI INIT 4cf28 34 .cfa: sp 0 +
STACK CFI 4cf2c .cfa: sp 32 +
STACK CFI 4cf34 .cfa: x29 32 + x19: .cfa -16 + ^ .ra: .cfa -24 + ^ x29: .cfa -32 + ^
STACK CFI 4cf50 .cfa: sp 32 +
STACK CFI 4cf58 .cfa: sp 0 +
STACK CFI INIT 4cf5c 14 .cfa: sp 0 +
STACK CFI INIT 4cf70 4 .cfa: sp 0 +
STACK CFI INIT 4cf74 4 .cfa: sp 0 +
STACK CFI INIT 4cf78 10 .cfa: sp 0 +
STACK CFI INIT 4cf88 1c .cfa: sp 0 +
STACK CFI INIT 4cfa4 c .cfa: sp 0 +
STACK CFI INIT 4d1c4 4 .cfa: sp 0 +
STACK CFI INIT 4d1c8 4 .cfa: sp 0 +
STACK CFI INIT 4d1cc 24 .cfa: sp 0 +
STACK CFI 4d1d0 .cfa: sp 16 +
STACK CFI 4d1d4 .cfa: x29 16 + .ra: .cfa -8 + ^ x29: .cfa -16 + ^
STACK CFI 4d1e8 .cfa: sp 16 +
STACK CFI 4d1ec .cfa: sp 0 +
STACK CFI INIT 4d1f0 10 .cfa: sp 0 +
STACK CFI INIT 4d200 4 .cfa: sp 0 +
STACK CFI INIT 4d204 4 .cfa: sp 0 +
STACK CFI INIT 4d208 10 .cfa: sp 0 +
STACK CFI INIT 4d218 1c .cfa: sp 0 +
STACK CFI INIT 4d234 c .cfa: sp 0 +
STACK CFI INIT 4d240 314 .cfa: sp 0 +
STACK CFI 4d244 .cfa: sp 128 +
STACK CFI 4d25c .cfa: x29 64 + x19: .cfa -8 + ^ x20: .cfa -16 + ^ x21: .cfa -24 + ^ x22: .cfa -32 + ^ x23: .cfa -40 + ^ x24: .cfa -48 + ^ .ra: .cfa -56 + ^ x29: .cfa -64 + ^ v8: .cfa -72 + ^ v9: .cfa -80 + ^
STACK CFI 4d498 .cfa: sp 128 +
STACK CFI 4d4b0 .cfa: sp 0 +
STACK CFI 4d4b4 .cfa: x29 64 +
STACK CFI INIT 4dd30 44 .cfa: sp 0 +
STACK CFI 4dd34 .cfa: sp 32 +
STACK CFI 4dd3c .cfa: x29 32 + x19: .cfa -16 + ^ .ra: .cfa -24 + ^ x29: .cfa -32 + ^
STACK CFI 4dd58 .cfa: sp 32 +
STACK CFI 4dd60 .cfa: sp 0 +
STACK CFI 4dd64 .cfa: x29 32 +
STACK CFI 4dd68 .cfa: sp 32 +
STACK CFI 4dd70 .cfa: sp 0 +
STACK CFI INIT 4dd74 24 .cfa: sp 0 +
STACK CFI 4dd78 .cfa: sp 16 +
STACK CFI 4dd7c .cfa: x29 16 + .ra: .cfa -8 + ^ x29: .cfa -16 + ^
STACK CFI 4dd90 .cfa: sp 16 +
STACK CFI 4dd94 .cfa: sp 0 +
STACK CFI INIT 4df08 c .cfa: sp 0 +
STACK CFI INIT 4df14 40 .cfa: sp 0 +
STACK CFI 4df18 .cfa: sp 32 +
STACK CFI 4df20 .cfa: x29 32 + x19: .cfa -16 + ^ .ra: .cfa -24 + ^ x29: .cfa -32 + ^
STACK CFI 4df48 .cfa: sp 32 +
STACK CFI 4df50 .cfa: sp 0 +
STACK CFI INIT 4e16c 64 .cfa: sp 0 +
STACK CFI 4e170 .cfa: sp 32 +
STACK CFI 4e178 .cfa: x29 32 + x19: .cfa -16 + ^ .ra: .cfa -24 + ^ x29: .cfa -32 + ^
STACK CFI 4e19c .cfa: sp 32 +
STACK CFI 4e1a4 .cfa: sp 0 +
STACK CFI 4e1a8 .cfa: x29 32 +
STACK CFI 4e1c4 .cfa: sp 32 +
STACK CFI 4e1cc .cfa: sp 0 +
STACK CFI INIT 4e1d0 74 .cfa: sp 0 +
STACK CFI 4e1d4 .cfa: sp 32 +
STACK CFI 4e1dc .cfa: x29 32 + x19: .cfa -16 + ^ .ra: .cfa -24 + ^ x29: .cfa -32 + ^
STACK CFI 4e208 .cfa: sp 32 +
STACK CFI 4e210 .cfa: sp 0 +
STACK CFI 4e214 .cfa: x29 32 +
STACK CFI 4e238 .cfa: sp 32 +
STACK CFI 4e240 .cfa: sp 0 +
STACK CFI INIT 4e324 2c .cfa: sp 0 +
STACK CFI 4e328 .cfa: sp 32 +
STACK CFI 4e330 .cfa: x29 32 + x19: .cfa -16 + ^ .ra: .cfa -24 + ^ x29: .cfa -32 + ^
STACK CFI 4e344 .cfa: sp 32 +
STACK CFI 4e34c .cfa: sp 0 +
STACK CFI INIT 4e350 28 .cfa: sp 0 +
STACK CFI INIT 4f3e8 2c .cfa: sp 0 +
STACK CFI INIT 4f414 4 .cfa: sp 0 +
STACK CFI INIT 4f5cc 4 .cfa: sp 0 +
STACK CFI INIT 4f5d0 60 .cfa: sp 0 +
STACK CFI 4f5d4 .cfa: sp 32 +
STACK CFI 4f5dc .cfa: x29 32 + x19: .cfa -8 + ^ x20: .cfa -16 + ^ .ra: .cfa -24 + ^ x29: .cfa -32 + ^
STACK CFI 4f5fc .cfa: sp 32 +
STACK CFI 4f604 .cfa: sp 0 +
STACK CFI 4f608 .cfa: x29 32 +
STACK CFI 4f624 .cfa: sp 32 +
STACK CFI 4f62c .cfa: sp 0 +
STACK CFI INIT 4f630 70 .cfa: sp 0 +
STACK CFI 4f634 .cfa: sp 32 +
STACK CFI 4f63c .cfa: x29 32 + x19: .cfa -8 + ^ x20: .cfa -16 + ^ .ra: .cfa -24 + ^ x29: .cfa -32 + ^
STACK CFI 4f664 .cfa: sp 32 +
STACK CFI 4f66c .cfa: sp 0 +
STACK CFI 4f670 .cfa: x29 32 +
STACK CFI 4f694 .cfa: sp 32 +
STACK CFI 4f69c .cfa: sp 0 +
STACK CFI INIT 4f6a0 10 .cfa: sp 0 +
STACK CFI INIT 4f6b0 30 .cfa: sp 0 +
STACK CFI 4f6b4 .cfa: sp 32 +
STACK CFI 4f6bc .cfa: x29 32 + x19: .cfa -16 + ^ .ra: .cfa -24 + ^ x29: .cfa -32 + ^
STACK CFI 4f6d4 .cfa: sp 32 +
STACK CFI 4f6dc .cfa: sp 0 +
STACK CFI INIT 4f6e0 4 .cfa: sp 0 +
STACK CFI INIT 4f6e4 4 .cfa: sp 0 +
STACK CFI INIT 4f6e8 14c .cfa: sp 0 +
STACK CFI 4f6ec .cfa: sp 80 +
STACK CFI 4f6fc .cfa: x29 32 + x19: .cfa -8 + ^ x20: .cfa -16 + ^ .ra: .cfa -24 + ^ x29: .cfa -32 + ^ v8: .cfa -40 + ^ v9: .cfa -48 + ^
STACK CFI 4f7bc .cfa: sp 80 +
STACK CFI 4f7cc .cfa: sp 0 +
STACK CFI 4f7d0 .cfa: x29 32 +
STACK CFI INIT 502c0 a4 .cfa: sp 0 +
STACK CFI 502c4 .cfa: sp 48 +
STACK CFI 502d0 .cfa: x29 48 + x19: .cfa -8 + ^ x20: .cfa -16 + ^ x21: .cfa -32 + ^ .ra: .cfa -40 + ^ x29: .cfa -48 + ^
STACK CFI 502f0 .cfa: sp 48 +
STACK CFI 502fc .cfa: sp 0 +
STACK CFI 50300 .cfa: x29 48 +
STACK CFI 50344 .cfa: sp 48 +
STACK CFI 50350 .cfa: sp 0 +
STACK CFI 50354 .cfa: sp 48 +
STACK CFI 50360 .cfa: sp 0 +
STACK CFI INIT 5080c 144 .cfa: sp 0 +
STACK CFI 50810 .cfa: sp 48 +
STACK CFI 5081c .cfa: x29 48 + x19: .cfa -8 + ^ x20: .cfa -16 + ^ x21: .cfa -24 + ^ x22: .cfa -32 + ^ .ra: .cfa -40 + ^ x29: .cfa -48 + ^
STACK CFI 508e0 .cfa: sp 48 +
STACK CFI 508ec .cfa: sp 0 +
STACK CFI 508f0 .cfa: x29 48 +
STACK CFI 50938 .cfa: sp 48 +
STACK CFI 50944 .cfa: sp 0 +
STACK CFI 50948 .cfa: x29 48 +
STACK CFI INIT 509c4 14 .cfa: sp 0 +
STACK CFI 509c8 .cfa: sp 16 +
STACK CFI 509cc .cfa: x29 16 + .ra: .cfa -8 + ^ x29: .cfa -16 + ^
STACK CFI INIT 50be0 1ac .cfa: sp 0 +
STACK CFI 50be4 .cfa: sp 48 +
STACK CFI 50bf0 .cfa: x29 48 + x19: .cfa -8 + ^ x20: .cfa -16 + ^ x21: .cfa -24 + ^ x22: .cfa -32 + ^ .ra: .cfa -40 + ^ x29: .cfa -48 + ^
STACK CFI 50d70 .cfa: sp 48 +
STACK CFI 50d7c .cfa: sp 0 +
STACK CFI 50d80 .cfa: x29 48 +
STACK CFI INIT 50d8c 44 .cfa: sp 0 +
STACK CFI 50d90 .cfa: sp 32 +
STACK CFI 50d98 .cfa: x29 32 + x19: .cfa -16 + ^ .ra: .cfa -24 + ^ x29: .cfa -32 + ^
STACK CFI 50db4 .cfa: sp 32 +
STACK CFI 50dbc .cfa: sp 0 +
STACK CFI 50dc0 .cfa: x29 32 +
STACK CFI 50dc4 .cfa: sp 32 +
STACK CFI 50dcc .cfa: sp 0 +
STACK CFI INIT 50dd0 14 .cfa: sp 0 +
STACK CFI INIT 50de4 b4 .cfa: sp 0 +
STACK CFI 50de8 .cfa: sp 48 +
STACK CFI 50df4 .cfa: x29 48 + x19: .cfa -8 + ^ x20: .cfa -16 + ^ x21: .cfa -24 + ^ x22: .cfa -32 + ^ .ra: .cfa -40 + ^ x29: .cfa -48 + ^
STACK CFI 50dfc .cfa: sp 48 +
STACK CFI 50e08 .cfa: sp 0 +
STACK CFI 50e0c .cfa: x29 48 +
STACK CFI 50e30 .cfa: sp 48 +
STACK CFI 50e3c .cfa: sp 0 +
STACK CFI 50e40 .cfa: x29 48 +
STACK CFI 50e88 .cfa: sp 48 +
STACK CFI 50e94 .cfa: sp 0 +
STACK CFI INIT 50fbc 64 .cfa: sp 0 +
STACK CFI 50fcc .cfa: sp 32 +
STACK CFI 50fd4 .cfa: x29 32 + x19: .cfa -8 + ^ x20: .cfa -16 + ^ .ra: .cfa -24 + ^ x29: .cfa -32 + ^
STACK CFI 51014 .cfa: sp 32 +
STACK CFI 5101c .cfa: sp 0 +
STACK CFI INIT 51020 a4 .cfa: sp 0 +
STACK CFI 51024 .cfa: sp 48 +
STACK CFI 51030 .cfa: x29 48 + x19: .cfa -8 + ^ x20: .cfa -16 + ^ x21: .cfa -32 + ^ .ra: .cfa -40 + ^ x29: .cfa -48 + ^
STACK CFI 51050 .cfa: sp 48 +
STACK CFI 5105c .cfa: sp 0 +
STACK CFI 51060 .cfa: x29 48 +
STACK CFI 510a4 .cfa: sp 48 +
STACK CFI 510b0 .cfa: sp 0 +
STACK CFI 510b4 .cfa: sp 48 +
STACK CFI 510c0 .cfa: sp 0 +
STACK CFI INIT 510c4 14 .cfa: sp 0 +
STACK CFI INIT 510d8 1ac .cfa: sp 0 +
STACK CFI 510dc .cfa: sp 48 +
STACK CFI 510e8 .cfa: x29 48 + x19: .cfa -8 + ^ x20: .cfa -16 + ^ x21: .cfa -24 + ^ x22: .cfa -32 + ^ .ra: .cfa -40 + ^ x29: .cfa -48 + ^
STACK CFI 51268 .cfa: sp 48 +
STACK CFI 51274 .cfa: sp 0 +
STACK CFI 51278 .cfa: x29 48 +
STACK CFI INIT 5144c 54 .cfa: sp 0 +
STACK CFI 51450 .cfa: sp 32 +
STACK CFI 51458 .cfa: x29 32 + x19: .cfa -8 + ^ x20: .cfa -16 + ^ .ra: .cfa -24 + ^ x29: .cfa -32 + ^
STACK CFI 51488 .cfa: sp 32 +
STACK CFI 51490 .cfa: sp 0 +
STACK CFI 51494 .cfa: sp 32 +
STACK CFI 5149c .cfa: sp 0 +
STACK CFI INIT 51a8c 3c .cfa: sp 0 +
STACK CFI 51a90 .cfa: sp 32 +
STACK CFI 51a98 .cfa: x29 32 + x19: .cfa -16 + ^ .ra: .cfa -24 + ^ x29: .cfa -32 + ^
STACK CFI 51aac .cfa: sp 32 +
STACK CFI 51ab4 .cfa: sp 0 +
STACK CFI 51ab8 .cfa: x29 32 +
STACK CFI 51abc .cfa: sp 32 +
STACK CFI 51ac4 .cfa: sp 0 +
STACK CFI INIT 51c6c 4 .cfa: sp 0 +
STACK CFI INIT 51c70 34 .cfa: sp 0 +
STACK CFI 51c74 .cfa: sp 32 +
STACK CFI 51c7c .cfa: x29 32 + x19: .cfa -16 + ^ .ra: .cfa -24 + ^ x29: .cfa -32 + ^
STACK CFI 51c98 .cfa: sp 32 +
STACK CFI 51ca0 .cfa: sp 0 +
STACK CFI INIT 51ca4 14 .cfa: sp 0 +
STACK CFI INIT 51cb8 4 .cfa: sp 0 +
STACK CFI INIT 51cbc 4 .cfa: sp 0 +
STACK CFI INIT 51cc0 60 .cfa: sp 0 +
STACK CFI 51ccc .cfa: sp 32 +
STACK CFI 51cd4 .cfa: x29 32 + x19: .cfa -16 + ^ .ra: .cfa -24 + ^ x29: .cfa -32 + ^
STACK CFI 51d10 .cfa: sp 32 +
STACK CFI 51d18 .cfa: sp 0 +
STACK CFI INIT 51d20 1c .cfa: sp 0 +
STACK CFI INIT 51d3c c .cfa: sp 0 +
STACK CFI INIT 51d48 4 .cfa: sp 0 +
STACK CFI INIT 51d4c 34 .cfa: sp 0 +
STACK CFI 51d50 .cfa: sp 32 +
STACK CFI 51d58 .cfa: x29 32 + x19: .cfa -16 + ^ .ra: .cfa -24 + ^ x29: .cfa -32 + ^
STACK CFI 51d74 .cfa: sp 32 +
STACK CFI 51d7c .cfa: sp 0 +
STACK CFI INIT 51d80 14 .cfa: sp 0 +
STACK CFI INIT 51d94 4 .cfa: sp 0 +
STACK CFI INIT 51d98 4 .cfa: sp 0 +
STACK CFI INIT 51d9c 60 .cfa: sp 0 +
STACK CFI 51da8 .cfa: sp 32 +
STACK CFI 51db0 .cfa: x29 32 + x19: .cfa -16 + ^ .ra: .cfa -24 + ^ x29: .cfa -32 + ^
STACK CFI 51dec .cfa: sp 32 +
STACK CFI 51df4 .cfa: sp 0 +
STACK CFI INIT 51dfc 1c .cfa: sp 0 +
STACK CFI INIT 51e18 c .cfa: sp 0 +
STACK CFI INIT 51e24 304 .cfa: sp 0 +
STACK CFI 51e28 .cfa: sp 144 +
STACK CFI 51e44 .cfa: x29 80 + x19: .cfa -8 + ^ x20: .cfa -16 + ^ x21: .cfa -24 + ^ x22: .cfa -32 + ^ x23: .cfa -40 + ^ x24: .cfa -48 + ^ x25: .cfa -64 + ^ .ra: .cfa -72 + ^ x29: .cfa -80 + ^ v8: .cfa -88 + ^ v9: .cfa -96 + ^
STACK CFI 52104 .cfa: sp 144 +
STACK CFI 52120 .cfa: sp 0 +
STACK CFI 52124 .cfa: x29 80 +
STACK CFI INIT 52128 4 .cfa: sp 0 +
STACK CFI INIT 5212c 34 .cfa: sp 0 +
STACK CFI 52130 .cfa: sp 32 +
STACK CFI 52138 .cfa: x29 32 + x19: .cfa -16 + ^ .ra: .cfa -24 + ^ x29: .cfa -32 + ^
STACK CFI 52154 .cfa: sp 32 +
STACK CFI 5215c .cfa: sp 0 +
STACK CFI INIT 52160 14 .cfa: sp 0 +
STACK CFI INIT 52174 4 .cfa: sp 0 +
STACK CFI INIT 52178 4 .cfa: sp 0 +
STACK CFI INIT 524d0 1c .cfa: sp 0 +
STACK CFI INIT 524ec c .cfa: sp 0 +
STACK CFI INIT 524f8 178 .cfa: sp 0 +
STACK CFI 5252c .cfa: sp 32 +
STACK CFI 52534 .cfa: x29 32 + x19: .cfa -8 + ^ x20: .cfa -16 + ^ .ra: .cfa -24 + ^ x29: .cfa -32 + ^
STACK CFI 52578 .cfa: sp 0 + x19: x19 x20: x20 .ra: x30 x29: x29
STACK CFI 52580 .cfa: x29 32 + x19: .cfa -8 + ^ x20: .cfa -16 + ^ .ra: .cfa -24 + ^ x29: .cfa -32 + ^
STACK CFI 525ac .cfa: sp 32 +
STACK CFI 525b4 .cfa: sp 0 +
STACK CFI 525b8 .cfa: x29 32 +
STACK CFI 52608 .cfa: sp 32 +
STACK CFI 52610 .cfa: sp 0 +
STACK CFI 52614 .cfa: x29 32 +
STACK CFI 52618 .cfa: sp 32 +
STACK CFI 52620 .cfa: sp 0 +
STACK CFI 52624 .cfa: x29 32 +
STACK CFI 52638 .cfa: sp 32 +
STACK CFI 52640 .cfa: sp 0 +
STACK CFI 52644 .cfa: x29 32 +
STACK CFI INIT 54208 20 .cfa: sp 0 +
STACK CFI 5420c .cfa: sp 16 +
STACK CFI 54210 .cfa: x29 16 + .ra: .cfa -8 + ^ x29: .cfa -16 + ^
STACK CFI 54220 .cfa: sp 16 +
STACK CFI 54224 .cfa: sp 0 +
STACK CFI INIT 550b0 50 .cfa: sp 0 +
STACK CFI 550b4 .cfa: sp 32 +
STACK CFI 550bc .cfa: x29 32 + x19: .cfa -8 + ^ x20: .cfa -16 + ^ .ra: .cfa -24 + ^ x29: .cfa -32 + ^
STACK CFI 550f4 .cfa: sp 32 +
STACK CFI 550fc .cfa: sp 0 +
STACK CFI INIT 55100 80 .cfa: sp 0 +
STACK CFI 55104 .cfa: sp 48 +
STACK CFI 55110 .cfa: x29 48 + x19: .cfa -8 + ^ x20: .cfa -16 + ^ x21: .cfa -32 + ^ .ra: .cfa -40 + ^ x29: .cfa -48 + ^
STACK CFI 55134 .cfa: sp 48 +
STACK CFI 55140 .cfa: sp 0 +
STACK CFI 55144 .cfa: x29 48 +
STACK CFI 55170 .cfa: sp 48 +
STACK CFI 5517c .cfa: sp 0 +
STACK CFI INIT 55a34 50 .cfa: sp 0 +
STACK CFI 55a38 .cfa: sp 32 +
STACK CFI 55a40 .cfa: x29 32 + x19: .cfa -16 + ^ .ra: .cfa -24 + ^ x29: .cfa -32 + ^
STACK CFI 55a58 .cfa: sp 32 +
STACK CFI 55a60 .cfa: sp 0 +
STACK CFI 55a64 .cfa: x29 32 +
STACK CFI 55a78 .cfa: sp 32 +
STACK CFI 55a80 .cfa: sp 0 +
STACK CFI INIT 55a84 88 .cfa: sp 0 +
STACK CFI 55a88 .cfa: sp 48 +
STACK CFI 55a94 .cfa: x29 32 + x19: .cfa -8 + ^ x20: .cfa -16 + ^ .ra: .cfa -24 + ^ x29: .cfa -32 + ^
STACK CFI 55ad4 .cfa: sp 48 +
STACK CFI 55ae0 .cfa: sp 0 +
STACK CFI 55ae4 .cfa: x29 32 +
STACK CFI 55af8 .cfa: sp 48 +
STACK CFI 55b04 .cfa: sp 0 +
STACK CFI 55b08 .cfa: x29 32 +
STACK CFI INIT 55b0c 50 .cfa: sp 0 +
STACK CFI 55b10 .cfa: sp 32 +
STACK CFI 55b18 .cfa: x29 32 + x19: .cfa -8 + ^ x20: .cfa -16 + ^ .ra: .cfa -24 + ^ x29: .cfa -32 + ^
STACK CFI 55b50 .cfa: sp 32 +
STACK CFI 55b58 .cfa: sp 0 +
STACK CFI INIT 55b5c 4 .cfa: sp 0 +
STACK CFI INIT 55b60 4 .cfa: sp 0 +
STACK CFI INIT 56298 d8 .cfa: sp 0 +
STACK CFI 5629c .cfa: sp 32 +
STACK CFI 562a4 .cfa: x29 32 + x19: .cfa -8 + ^ x20: .cfa -16 + ^ .ra: .cfa -24 + ^ x29: .cfa -32 + ^
STACK CFI 56364 .cfa: sp 32 +
STACK CFI 5636c .cfa: sp 0 +
STACK CFI INIT 56370 e0 .cfa: sp 0 +
STACK CFI 56374 .cfa: sp 32 +
STACK CFI 5637c .cfa: x29 32 + x19: .cfa -8 + ^ x20: .cfa -16 + ^ .ra: .cfa -24 + ^ x29: .cfa -32 + ^
STACK CFI 56444 .cfa: sp 32 +
STACK CFI 5644c .cfa: sp 0 +
STACK CFI INIT 56450 e8 .cfa: sp 0 +
STACK CFI 56454 .cfa: sp 48 +
STACK CFI 56460 .cfa: x29 48 + x19: .cfa -8 + ^ x20: .cfa -16 + ^ x21: .cfa -24 + ^ x22: .cfa -32 + ^ .ra: .cfa -40 + ^ x29: .cfa -48 + ^
STACK CFI 56528 .cfa: sp 48 +
STACK CFI 56534 .cfa: sp 0 +
STACK CFI INIT 56538 f0 .cfa: sp 0 +
STACK CFI 5653c .cfa: sp 48 +
STACK CFI 56548 .cfa: x29 48 + x19: .cfa -8 + ^ x20: .cfa -16 + ^ x21: .cfa -24 + ^ x22: .cfa -32 + ^ .ra: .cfa -40 + ^ x29: .cfa -48 + ^
STACK CFI 56618 .cfa: sp 48 +
STACK CFI 56624 .cfa: sp 0 +
STACK CFI INIT 56628 40 .cfa: sp 0 +
STACK CFI 56640 .cfa: sp 32 +
STACK CFI 56648 .cfa: x29 32 + x19: .cfa -16 + ^ .ra: .cfa -24 + ^ x29: .cfa -32 + ^
STACK CFI 5665c .cfa: sp 32 +
STACK CFI 56664 .cfa: sp 0 +
STACK CFI INIT 56668 44 .cfa: sp 0 +
STACK CFI 5666c .cfa: sp 32 +
STACK CFI 56674 .cfa: x29 32 + x19: .cfa -16 + ^ .ra: .cfa -24 + ^ x29: .cfa -32 + ^
STACK CFI 566a0 .cfa: sp 32 +
STACK CFI 566a8 .cfa: sp 0 +
STACK CFI INIT 566ac 34 .cfa: sp 0 +
STACK CFI 566b0 .cfa: sp 16 +
STACK CFI 566b4 .cfa: x29 16 + .ra: .cfa -8 + ^ x29: .cfa -16 + ^
STACK CFI INIT 566e0 8 .cfa: sp 0 +
STACK CFI INIT 566e8 14 .cfa: sp 0 +
STACK CFI INIT 566fc a4 .cfa: sp 0 +
STACK CFI 5670c .cfa: sp 48 +
STACK CFI 56718 .cfa: x29 48 + x19: .cfa -8 + ^ x20: .cfa -16 + ^ x21: .cfa -24 + ^ x22: .cfa -32 + ^ .ra: .cfa -40 + ^ x29: .cfa -48 + ^
STACK CFI 5672c .cfa: sp 48 +
STACK CFI 56738 .cfa: sp 0 +
STACK CFI 5673c .cfa: x29 48 +
STACK CFI INIT 568dc 70 .cfa: sp 0 +
STACK CFI 568e0 .cfa: sp 48 +
STACK CFI 568ec .cfa: x29 48 + x19: .cfa -8 + ^ x20: .cfa -16 + ^ x21: .cfa -32 + ^ .ra: .cfa -40 + ^ x29: .cfa -48 + ^
STACK CFI 56904 .cfa: sp 48 +
STACK CFI 56910 .cfa: sp 0 +
STACK CFI 56914 .cfa: x29 48 +
STACK CFI 5693c .cfa: sp 48 +
STACK CFI 56948 .cfa: sp 0 +
STACK CFI INIT 5694c 1ac .cfa: sp 0 +
STACK CFI 56950 .cfa: sp 32 +
STACK CFI 56958 .cfa: x29 32 + x19: .cfa -8 + ^ x20: .cfa -16 + ^ .ra: .cfa -24 + ^ x29: .cfa -32 + ^
STACK CFI 56a48 .cfa: sp 32 +
STACK CFI 56a50 .cfa: sp 0 +
STACK CFI 56a54 .cfa: x29 32 +
STACK CFI INIT 57374 50 .cfa: sp 0 +
STACK CFI 57398 .cfa: sp 32 +
STACK CFI 573a0 .cfa: x29 32 + x19: .cfa -16 + ^ .ra: .cfa -24 + ^ x29: .cfa -32 + ^
STACK CFI 573b4 .cfa: sp 32 +
STACK CFI 573bc .cfa: sp 0 +
STACK CFI INIT 573c4 e4 .cfa: sp 0 +
STACK CFI 573c8 .cfa: sp 64 +
STACK CFI 573d8 .cfa: x29 64 + x19: .cfa -8 + ^ x20: .cfa -16 + ^ x21: .cfa -24 + ^ x22: .cfa -32 + ^ x23: .cfa -40 + ^ x24: .cfa -48 + ^ .ra: .cfa -56 + ^ x29: .cfa -64 + ^
STACK CFI 573fc .cfa: sp 64 +
STACK CFI 5740c .cfa: sp 0 +
STACK CFI 57410 .cfa: x29 64 +
STACK CFI 57480 .cfa: sp 64 +
STACK CFI 57490 .cfa: sp 0 +
STACK CFI 57494 .cfa: sp 64 +
STACK CFI 574a4 .cfa: sp 0 +
STACK CFI INIT 576cc 4 .cfa: sp 0 +
STACK CFI INIT 5789c a0 .cfa: sp 0 +
STACK CFI 578a0 .cfa: sp 32 +
STACK CFI 578a8 .cfa: x29 32 + x19: .cfa -8 + ^ x20: .cfa -16 + ^ .ra: .cfa -24 + ^ x29: .cfa -32 + ^
STACK CFI 57930 .cfa: sp 32 +
STACK CFI 57938 .cfa: sp 0 +
STACK CFI INIT 5793c a8 .cfa: sp 0 +
STACK CFI 57940 .cfa: sp 32 +
STACK CFI 57948 .cfa: x29 32 + x19: .cfa -8 + ^ x20: .cfa -16 + ^ .ra: .cfa -24 + ^ x29: .cfa -32 + ^
STACK CFI 579d8 .cfa: sp 32 +
STACK CFI 579e0 .cfa: sp 0 +
STACK CFI INIT 579e4 50 .cfa: sp 0 +
STACK CFI 579e8 .cfa: sp 32 +
STACK CFI 579f0 .cfa: x29 32 + x19: .cfa -16 + ^ .ra: .cfa -24 + ^ x29: .cfa -32 + ^
STACK CFI 57a08 .cfa: sp 32 +
STACK CFI 57a10 .cfa: sp 0 +
STACK CFI 57a14 .cfa: x29 32 +
STACK CFI 57a28 .cfa: sp 32 +
STACK CFI 57a30 .cfa: sp 0 +
STACK CFI INIT 57a34 50 .cfa: sp 0 +
STACK CFI 57a38 .cfa: sp 32 +
STACK CFI 57a40 .cfa: x29 32 + x19: .cfa -16 + ^ .ra: .cfa -24 + ^ x29: .cfa -32 + ^
STACK CFI 57a58 .cfa: sp 32 +
STACK CFI 57a60 .cfa: sp 0 +
STACK CFI 57a64 .cfa: x29 32 +
STACK CFI 57a78 .cfa: sp 32 +
STACK CFI 57a80 .cfa: sp 0 +
STACK CFI INIT 57a84 60 .cfa: sp 0 +
STACK CFI 57a88 .cfa: sp 32 +
STACK CFI 57a90 .cfa: x29 32 + x19: .cfa -16 + ^ .ra: .cfa -24 + ^ x29: .cfa -32 + ^
STACK CFI 57ab8 .cfa: sp 32 +
STACK CFI 57ac0 .cfa: sp 0 +
STACK CFI 57ac4 .cfa: x29 32 +
STACK CFI 57ad8 .cfa: sp 32 +
STACK CFI 57ae0 .cfa: sp 0 +
STACK CFI INIT 57ae4 70 .cfa: sp 0 +
STACK CFI 57ae8 .cfa: sp 32 +
STACK CFI 57af0 .cfa: x29 32 + x19: .cfa -8 + ^ x20: .cfa -16 + ^ .ra: .cfa -24 + ^ x29: .cfa -32 + ^
STACK CFI 57b20 .cfa: sp 32 +
STACK CFI 57b28 .cfa: sp 0 +
STACK CFI 57b2c .cfa: x29 32 +
STACK CFI 57b48 .cfa: sp 32 +
STACK CFI 57b50 .cfa: sp 0 +
STACK CFI INIT 57b54 5c .cfa: sp 0 +
STACK CFI 57b58 .cfa: sp 32 +
STACK CFI 57b60 .cfa: x29 32 + x19: .cfa -8 + ^ x20: .cfa -16 + ^ .ra: .cfa -24 + ^ x29: .cfa -32 + ^
STACK CFI 57ba4 .cfa: sp 32 +
STACK CFI 57bac .cfa: sp 0 +
STACK CFI INIT 57bb0 50 .cfa: sp 0 +
STACK CFI 57bb4 .cfa: sp 32 +
STACK CFI 57bbc .cfa: x29 32 + x19: .cfa -8 + ^ x20: .cfa -16 + ^ .ra: .cfa -24 + ^ x29: .cfa -32 + ^
STACK CFI 57bf4 .cfa: sp 32 +
STACK CFI 57bfc .cfa: sp 0 +
STACK CFI INIT 57c00 50 .cfa: sp 0 +
STACK CFI 57c04 .cfa: sp 32 +
STACK CFI 57c0c .cfa: x29 32 + x19: .cfa -16 + ^ .ra: .cfa -24 + ^ x29: .cfa -32 + ^
STACK CFI 57c24 .cfa: sp 32 +
STACK CFI 57c2c .cfa: sp 0 +
STACK CFI 57c30 .cfa: x29 32 +
STACK CFI 57c44 .cfa: sp 32 +
STACK CFI 57c4c .cfa: sp 0 +
STACK CFI INIT 57c50 60 .cfa: sp 0 +
STACK CFI 57c54 .cfa: sp 32 +
STACK CFI 57c5c .cfa: x29 32 + x19: .cfa -8 + ^ x20: .cfa -16 + ^ .ra: .cfa -24 + ^ x29: .cfa -32 + ^
STACK CFI 57c7c .cfa: sp 32 +
STACK CFI 57c84 .cfa: sp 0 +
STACK CFI 57c88 .cfa: x29 32 +
STACK CFI 57ca4 .cfa: sp 32 +
STACK CFI 57cac .cfa: sp 0 +
STACK CFI INIT 57cb0 8 .cfa: sp 0 +
STACK CFI INIT 57cb8 1c .cfa: sp 0 +
STACK CFI INIT 57cd4 c .cfa: sp 0 +
STACK CFI INIT 57eb8 60 .cfa: sp 0 +
STACK CFI 57ebc .cfa: sp 32 +
STACK CFI 57ec4 .cfa: x29 32 + x19: .cfa -8 + ^ x20: .cfa -16 + ^ .ra: .cfa -24 + ^ x29: .cfa -32 + ^
STACK CFI 57ee4 .cfa: sp 32 +
STACK CFI 57eec .cfa: sp 0 +
STACK CFI 57ef0 .cfa: x29 32 +
STACK CFI 57f0c .cfa: sp 32 +
STACK CFI 57f14 .cfa: sp 0 +
STACK CFI INIT 57f18 70 .cfa: sp 0 +
STACK CFI 57f1c .cfa: sp 32 +
STACK CFI 57f24 .cfa: x29 32 + x19: .cfa -8 + ^ x20: .cfa -16 + ^ .ra: .cfa -24 + ^ x29: .cfa -32 + ^
STACK CFI 57f4c .cfa: sp 32 +
STACK CFI 57f54 .cfa: sp 0 +
STACK CFI 57f58 .cfa: x29 32 +
STACK CFI 57f7c .cfa: sp 32 +
STACK CFI 57f84 .cfa: sp 0 +
STACK CFI INIT 57f88 60 .cfa: sp 0 +
STACK CFI 57f8c .cfa: sp 32 +
STACK CFI 57f94 .cfa: x29 32 + x19: .cfa -16 + ^ .ra: .cfa -24 + ^ x29: .cfa -32 + ^
STACK CFI 57fbc .cfa: sp 32 +
STACK CFI 57fc4 .cfa: sp 0 +
STACK CFI 57fc8 .cfa: x29 32 +
STACK CFI 57fdc .cfa: sp 32 +
STACK CFI 57fe4 .cfa: sp 0 +
STACK CFI INIT 57fe8 70 .cfa: sp 0 +
STACK CFI 57fec .cfa: sp 32 +
STACK CFI 57ff4 .cfa: x29 32 + x19: .cfa -8 + ^ x20: .cfa -16 + ^ .ra: .cfa -24 + ^ x29: .cfa -32 + ^
STACK CFI 58024 .cfa: sp 32 +
STACK CFI 5802c .cfa: sp 0 +
STACK CFI 58030 .cfa: x29 32 +
STACK CFI 5804c .cfa: sp 32 +
STACK CFI 58054 .cfa: sp 0 +
STACK CFI INIT 58058 5c .cfa: sp 0 +
STACK CFI 5805c .cfa: sp 32 +
STACK CFI 58064 .cfa: x29 32 + x19: .cfa -8 + ^ x20: .cfa -16 + ^ .ra: .cfa -24 + ^ x29: .cfa -32 + ^
STACK CFI 580a8 .cfa: sp 32 +
STACK CFI 580b0 .cfa: sp 0 +
STACK CFI INIT 580b4 50 .cfa: sp 0 +
STACK CFI 580b8 .cfa: sp 32 +
STACK CFI 580c0 .cfa: x29 32 + x19: .cfa -8 + ^ x20: .cfa -16 + ^ .ra: .cfa -24 + ^ x29: .cfa -32 + ^
STACK CFI 580f8 .cfa: sp 32 +
STACK CFI 58100 .cfa: sp 0 +
STACK CFI INIT 58104 50 .cfa: sp 0 +
STACK CFI 58108 .cfa: sp 32 +
STACK CFI 58110 .cfa: x29 32 + x19: .cfa -16 + ^ .ra: .cfa -24 + ^ x29: .cfa -32 + ^
STACK CFI 58128 .cfa: sp 32 +
STACK CFI 58130 .cfa: sp 0 +
STACK CFI 58134 .cfa: x29 32 +
STACK CFI 58148 .cfa: sp 32 +
STACK CFI 58150 .cfa: sp 0 +
STACK CFI INIT 58154 60 .cfa: sp 0 +
STACK CFI 58158 .cfa: sp 32 +
STACK CFI 58160 .cfa: x29 32 + x19: .cfa -8 + ^ x20: .cfa -16 + ^ .ra: .cfa -24 + ^ x29: .cfa -32 + ^
STACK CFI 58180 .cfa: sp 32 +
STACK CFI 58188 .cfa: sp 0 +
STACK CFI 5818c .cfa: x29 32 +
STACK CFI 581a8 .cfa: sp 32 +
STACK CFI 581b0 .cfa: sp 0 +
STACK CFI INIT 581b4 8 .cfa: sp 0 +
STACK CFI INIT 581bc 1c .cfa: sp 0 +
STACK CFI INIT 581d8 c .cfa: sp 0 +
STACK CFI INIT 583b0 34 .cfa: sp 0 +
STACK CFI 583b4 .cfa: sp 16 +
STACK CFI 583b8 .cfa: x29 16 + .ra: .cfa -8 + ^ x29: .cfa -16 + ^
STACK CFI INIT 583e4 24 .cfa: sp 0 +
STACK CFI 583e8 .cfa: sp 32 +
STACK CFI 583f0 .cfa: x29 32 + x19: .cfa -16 + ^ .ra: .cfa -24 + ^ x29: .cfa -32 + ^
STACK CFI 583fc .cfa: sp 32 +
STACK CFI 58404 .cfa: sp 0 +
STACK CFI INIT 58408 14 .cfa: sp 0 +
STACK CFI 5840c .cfa: sp 16 +
STACK CFI 58410 .cfa: x29 16 + .ra: .cfa -8 + ^ x29: .cfa -16 + ^
STACK CFI INIT 5841c 4 .cfa: sp 0 +
STACK CFI INIT 58420 4 .cfa: sp 0 +
STACK CFI INIT 58424 40 .cfa: sp 0 +
STACK CFI 58428 .cfa: sp 32 +
STACK CFI 58430 .cfa: x29 32 + x19: .cfa -16 + ^ .ra: .cfa -24 + ^ x29: .cfa -32 + ^
STACK CFI 58458 .cfa: sp 32 +
STACK CFI 58460 .cfa: sp 0 +
STACK CFI INIT 58464 20 .cfa: sp 0 +
STACK CFI INIT 58484 4 .cfa: sp 0 +
STACK CFI INIT 58488 4 .cfa: sp 0 +
STACK CFI INIT 5848c 20 .cfa: sp 0 +
STACK CFI INIT 584ac 1c .cfa: sp 0 +
STACK CFI INIT 584c8 c .cfa: sp 0 +
STACK CFI INIT 5866c 4 .cfa: sp 0 +
STACK CFI INIT 58670 34 .cfa: sp 0 +
STACK CFI 58674 .cfa: sp 32 +
STACK CFI 5867c .cfa: x29 32 + x19: .cfa -16 + ^ .ra: .cfa -24 + ^ x29: .cfa -32 + ^
STACK CFI 58698 .cfa: sp 32 +
STACK CFI 586a0 .cfa: sp 0 +
STACK CFI INIT 586a4 14 .cfa: sp 0 +
STACK CFI INIT 586b8 4 .cfa: sp 0 +
STACK CFI INIT 586bc 4 .cfa: sp 0 +
STACK CFI INIT 58a6c 1c .cfa: sp 0 +
STACK CFI INIT 58a88 c .cfa: sp 0 +
STACK CFI INIT 58a94 4 .cfa: sp 0 +
STACK CFI INIT 58a98 24 .cfa: sp 0 +
STACK CFI 58a9c .cfa: sp 16 +
STACK CFI 58aa0 .cfa: x29 16 + .ra: .cfa -8 + ^ x29: .cfa -16 + ^
STACK CFI 58ab4 .cfa: sp 16 +
STACK CFI 58ab8 .cfa: sp 0 +
STACK CFI INIT 58abc 10 .cfa: sp 0 +
STACK CFI INIT 58acc 4 .cfa: sp 0 +
STACK CFI INIT 58ad0 4 .cfa: sp 0 +
STACK CFI INIT 58ad4 44 .cfa: sp 0 +
STACK CFI 58ae0 .cfa: sp 32 +
STACK CFI 58ae8 .cfa: x29 32 + x19: .cfa -16 + ^ .ra: .cfa -24 + ^ x29: .cfa -32 + ^
STACK CFI 58b08 .cfa: sp 32 +
STACK CFI 58b10 .cfa: sp 0 +
STACK CFI INIT 58b18 1c .cfa: sp 0 +
STACK CFI INIT 58b34 c .cfa: sp 0 +
STACK CFI INIT 58d28 4 .cfa: sp 0 +
STACK CFI INIT 58d2c 24 .cfa: sp 0 +
STACK CFI 58d30 .cfa: sp 16 +
STACK CFI 58d34 .cfa: x29 16 + .ra: .cfa -8 + ^ x29: .cfa -16 + ^
STACK CFI 58d48 .cfa: sp 16 +
STACK CFI 58d4c .cfa: sp 0 +
STACK CFI INIT 58d50 10 .cfa: sp 0 +
STACK CFI INIT 58d60 4 .cfa: sp 0 +
STACK CFI INIT 58d64 4 .cfa: sp 0 +
STACK CFI INIT 58d68 10 .cfa: sp 0 +
STACK CFI INIT 58d78 1c .cfa: sp 0 +
STACK CFI INIT 58d94 c .cfa: sp 0 +
STACK CFI INIT 58da0 1c .cfa: sp 0 +
STACK CFI INIT 592b4 4 .cfa: sp 0 +
STACK CFI INIT 59458 5c .cfa: sp 0 +
STACK CFI 5945c .cfa: sp 32 +
STACK CFI 59464 .cfa: x29 32 + x19: .cfa -16 + ^ .ra: .cfa -24 + ^ x29: .cfa -32 + ^
STACK CFI 594a8 .cfa: sp 32 +
STACK CFI 594b0 .cfa: sp 0 +
STACK CFI INIT 594b4 64 .cfa: sp 0 +
STACK CFI 594b8 .cfa: sp 32 +
STACK CFI 594c0 .cfa: x29 32 + x19: .cfa -16 + ^ .ra: .cfa -24 + ^ x29: .cfa -32 + ^
STACK CFI 5950c .cfa: sp 32 +
STACK CFI 59514 .cfa: sp 0 +
STACK CFI INIT 59518 4 .cfa: sp 0 +
STACK CFI INIT 5951c 4 .cfa: sp 0 +
STACK CFI INIT 59520 34 .cfa: sp 0 +
STACK CFI 59524 .cfa: sp 32 +
STACK CFI 5952c .cfa: x29 32 + x19: .cfa -16 + ^ .ra: .cfa -24 + ^ x29: .cfa -32 + ^
STACK CFI 59548 .cfa: sp 32 +
STACK CFI 59550 .cfa: sp 0 +
STACK CFI INIT 59554 14 .cfa: sp 0 +
STACK CFI INIT 59568 4 .cfa: sp 0 +
STACK CFI INIT 5956c 4 .cfa: sp 0 +
STACK CFI INIT 59570 10 .cfa: sp 0 +
STACK CFI INIT 59580 1c .cfa: sp 0 +
STACK CFI INIT 5959c c .cfa: sp 0 +
STACK CFI INIT 599a4 4 .cfa: sp 0 +
STACK CFI INIT 59b48 5c .cfa: sp 0 +
STACK CFI 59b4c .cfa: sp 32 +
STACK CFI 59b54 .cfa: x29 32 + x19: .cfa -16 + ^ .ra: .cfa -24 + ^ x29: .cfa -32 + ^
STACK CFI 59b98 .cfa: sp 32 +
STACK CFI 59ba0 .cfa: sp 0 +
STACK CFI INIT 59ba4 64 .cfa: sp 0 +
STACK CFI 59ba8 .cfa: sp 32 +
STACK CFI 59bb0 .cfa: x29 32 + x19: .cfa -16 + ^ .ra: .cfa -24 + ^ x29: .cfa -32 + ^
STACK CFI 59bfc .cfa: sp 32 +
STACK CFI 59c04 .cfa: sp 0 +
STACK CFI INIT 59c08 4 .cfa: sp 0 +
STACK CFI INIT 59c0c 4 .cfa: sp 0 +
STACK CFI INIT 59c10 34 .cfa: sp 0 +
STACK CFI 59c14 .cfa: sp 32 +
STACK CFI 59c1c .cfa: x29 32 + x19: .cfa -16 + ^ .ra: .cfa -24 + ^ x29: .cfa -32 + ^
STACK CFI 59c38 .cfa: sp 32 +
STACK CFI 59c40 .cfa: sp 0 +
STACK CFI INIT 59c44 14 .cfa: sp 0 +
STACK CFI INIT 59c58 4 .cfa: sp 0 +
STACK CFI INIT 59c5c 4 .cfa: sp 0 +
STACK CFI INIT 59c60 10 .cfa: sp 0 +
STACK CFI INIT 59c70 1c .cfa: sp 0 +
STACK CFI INIT 59c8c c .cfa: sp 0 +
STACK CFI INIT 5aa68 28 .cfa: sp 0 +
STACK CFI INIT 5aa90 6c .cfa: sp 0 +
STACK CFI 5aa94 .cfa: sp 32 +
STACK CFI 5aa9c .cfa: x29 32 + x19: .cfa -8 + ^ x20: .cfa -16 + ^ .ra: .cfa -24 + ^ x29: .cfa -32 + ^
STACK CFI 5aad4 .cfa: sp 32 +
STACK CFI 5aadc .cfa: sp 0 +
STACK CFI 5aae0 .cfa: x29 32 +
STACK CFI 5aaf0 .cfa: sp 32 +
STACK CFI 5aaf8 .cfa: sp 0 +
STACK CFI INIT 5aafc 168 .cfa: sp 0 +
STACK CFI 5ab00 .cfa: sp 48 +
STACK CFI 5ab0c .cfa: x29 48 + x19: .cfa -8 + ^ x20: .cfa -16 + ^ x21: .cfa -24 + ^ x22: .cfa -32 + ^ .ra: .cfa -40 + ^ x29: .cfa -48 + ^
STACK CFI 5ac48 .cfa: sp 48 +
STACK CFI 5ac54 .cfa: sp 0 +
STACK CFI 5ac58 .cfa: x29 48 +
STACK CFI INIT 5ac64 40 .cfa: sp 0 +
STACK CFI 5ac7c .cfa: sp 32 +
STACK CFI 5ac84 .cfa: x29 32 + x19: .cfa -16 + ^ .ra: .cfa -24 + ^ x29: .cfa -32 + ^
STACK CFI 5ac98 .cfa: sp 32 +
STACK CFI 5aca0 .cfa: sp 0 +
STACK CFI INIT 5aca4 44 .cfa: sp 0 +
STACK CFI 5aca8 .cfa: sp 32 +
STACK CFI 5acb0 .cfa: x29 32 + x19: .cfa -16 + ^ .ra: .cfa -24 + ^ x29: .cfa -32 + ^
STACK CFI 5acdc .cfa: sp 32 +
STACK CFI 5ace4 .cfa: sp 0 +
STACK CFI INIT 5aff4 50 .cfa: sp 0 +
STACK CFI 5aff8 .cfa: sp 32 +
STACK CFI 5b000 .cfa: x29 32 + x19: .cfa -16 + ^ .ra: .cfa -24 + ^ x29: .cfa -32 + ^
STACK CFI 5b018 .cfa: sp 32 +
STACK CFI 5b020 .cfa: sp 0 +
STACK CFI 5b024 .cfa: x29 32 +
STACK CFI 5b038 .cfa: sp 32 +
STACK CFI 5b040 .cfa: sp 0 +
STACK CFI INIT 5b044 50 .cfa: sp 0 +
STACK CFI 5b048 .cfa: sp 32 +
STACK CFI 5b050 .cfa: x29 32 + x19: .cfa -16 + ^ .ra: .cfa -24 + ^ x29: .cfa -32 + ^
STACK CFI 5b068 .cfa: sp 32 +
STACK CFI 5b070 .cfa: sp 0 +
STACK CFI 5b074 .cfa: x29 32 +
STACK CFI 5b088 .cfa: sp 32 +
STACK CFI 5b090 .cfa: sp 0 +
STACK CFI INIT 5b3a0 50 .cfa: sp 0 +
STACK CFI 5b3a4 .cfa: sp 32 +
STACK CFI 5b3ac .cfa: x29 32 + x19: .cfa -16 + ^ .ra: .cfa -24 + ^ x29: .cfa -32 + ^
STACK CFI 5b3c4 .cfa: sp 32 +
STACK CFI 5b3cc .cfa: sp 0 +
STACK CFI 5b3d0 .cfa: x29 32 +
STACK CFI 5b3e4 .cfa: sp 32 +
STACK CFI 5b3ec .cfa: sp 0 +
STACK CFI INIT 5b3f0 24 .cfa: sp 0 +
STACK CFI 5b3f4 .cfa: sp 32 +
STACK CFI 5b3fc .cfa: x29 32 + x19: .cfa -16 + ^ .ra: .cfa -24 + ^ x29: .cfa -32 + ^
STACK CFI 5b408 .cfa: sp 32 +
STACK CFI 5b410 .cfa: sp 0 +
STACK CFI INIT 5b414 8 .cfa: sp 0 +
STACK CFI INIT 5b41c 8 .cfa: sp 0 +
STACK CFI INIT 5b424 8 .cfa: sp 0 +
STACK CFI INIT 5b42c 4 .cfa: sp 0 +
STACK CFI INIT 5b430 24 .cfa: sp 0 +
STACK CFI 5b434 .cfa: sp 32 +
STACK CFI 5b43c .cfa: x29 32 + x19: .cfa -16 + ^ .ra: .cfa -24 + ^ x29: .cfa -32 + ^
STACK CFI 5b448 .cfa: sp 32 +
STACK CFI 5b450 .cfa: sp 0 +
STACK CFI INIT 5b454 8 .cfa: sp 0 +
STACK CFI INIT 5b45c 8 .cfa: sp 0 +
STACK CFI INIT 5b464 8 .cfa: sp 0 +
STACK CFI INIT 5b46c 4 .cfa: sp 0 +
STACK CFI INIT 5b470 80 .cfa: sp 0 +
STACK CFI 5b474 .cfa: sp 32 +
STACK CFI 5b47c .cfa: x29 32 + x19: .cfa -8 + ^ x20: .cfa -16 + ^ .ra: .cfa -24 + ^ x29: .cfa -32 + ^
STACK CFI 5b4b4 .cfa: sp 32 +
STACK CFI 5b4bc .cfa: sp 0 +
STACK CFI 5b4c0 .cfa: x29 32 +
STACK CFI 5b4e4 .cfa: sp 32 +
STACK CFI 5b4ec .cfa: sp 0 +
STACK CFI INIT 5b67c 4 .cfa: sp 0 +
STACK CFI INIT 5b680 4 .cfa: sp 0 +
STACK CFI INIT 5b684 8 .cfa: sp 0 +
STACK CFI INIT 5b68c 8 .cfa: sp 0 +
STACK CFI INIT 5ba70 70 .cfa: sp 0 +
STACK CFI 5ba74 .cfa: sp 32 +
STACK CFI 5ba7c .cfa: x29 32 + x19: .cfa -8 + ^ x20: .cfa -16 + ^ .ra: .cfa -24 + ^ x29: .cfa -32 + ^
STACK CFI 5baac .cfa: sp 32 +
STACK CFI 5bab4 .cfa: sp 0 +
STACK CFI 5bab8 .cfa: x29 32 +
STACK CFI 5bad4 .cfa: sp 32 +
STACK CFI 5badc .cfa: sp 0 +
STACK CFI INIT 5bae0 80 .cfa: sp 0 +
STACK CFI 5bae4 .cfa: sp 32 +
STACK CFI 5baec .cfa: x29 32 + x19: .cfa -8 + ^ x20: .cfa -16 + ^ .ra: .cfa -24 + ^ x29: .cfa -32 + ^
STACK CFI 5bb24 .cfa: sp 32 +
STACK CFI 5bb2c .cfa: sp 0 +
STACK CFI 5bb30 .cfa: x29 32 +
STACK CFI 5bb54 .cfa: sp 32 +
STACK CFI 5bb5c .cfa: sp 0 +
STACK CFI INIT 5bcec 4 .cfa: sp 0 +
STACK CFI INIT 5bcf0 4 .cfa: sp 0 +
STACK CFI INIT 5bcf4 8 .cfa: sp 0 +
STACK CFI INIT 5bcfc 8 .cfa: sp 0 +
STACK CFI INIT 5c0e0 34 .cfa: sp 0 +
STACK CFI 5c0e4 .cfa: sp 16 +
STACK CFI 5c0e8 .cfa: x29 16 + .ra: .cfa -8 + ^ x29: .cfa -16 + ^
STACK CFI INIT 5c8d0 10 .cfa: sp 0 +
STACK CFI INIT 5c8e0 30 .cfa: sp 0 +
STACK CFI 5c8e4 .cfa: sp 32 +
STACK CFI 5c8ec .cfa: x29 32 + x19: .cfa -16 + ^ .ra: .cfa -24 + ^ x29: .cfa -32 + ^
STACK CFI 5c904 .cfa: sp 32 +
STACK CFI 5c90c .cfa: sp 0 +
STACK CFI INIT 5c910 c .cfa: sp 0 +
STACK CFI INIT 5c91c 4 .cfa: sp 0 +
STACK CFI INIT 5c920 4 .cfa: sp 0 +
STACK CFI INIT 5c924 34 .cfa: sp 0 +
STACK CFI 5c928 .cfa: sp 32 +
STACK CFI 5c930 .cfa: x29 32 + x19: .cfa -16 + ^ .ra: .cfa -24 + ^ x29: .cfa -32 + ^
STACK CFI 5c94c .cfa: sp 32 +
STACK CFI 5c954 .cfa: sp 0 +
STACK CFI INIT 5c958 14 .cfa: sp 0 +
STACK CFI INIT 5c96c 4 .cfa: sp 0 +
STACK CFI INIT 5c970 4 .cfa: sp 0 +
STACK CFI INIT 5caa8 1c .cfa: sp 0 +
STACK CFI INIT 5cac4 c .cfa: sp 0 +
STACK CFI INIT 5cad0 50 .cfa: sp 0 +
STACK CFI 5cad4 .cfa: sp 32 +
STACK CFI 5cadc .cfa: x29 32 + x19: .cfa -16 + ^ .ra: .cfa -24 + ^ x29: .cfa -32 + ^
STACK CFI 5caf4 .cfa: sp 32 +
STACK CFI 5cafc .cfa: sp 0 +
STACK CFI 5cb00 .cfa: x29 32 +
STACK CFI 5cb14 .cfa: sp 32 +
STACK CFI 5cb1c .cfa: sp 0 +
STACK CFI INIT 5cb20 14 .cfa: sp 0 +
STACK CFI INIT 5cb34 4 .cfa: sp 0 +
STACK CFI INIT 5cb38 14 .cfa: sp 0 +
STACK CFI INIT 5cb4c 10 .cfa: sp 0 +
STACK CFI INIT 5cb5c 30 .cfa: sp 0 +
STACK CFI 5cb60 .cfa: sp 32 +
STACK CFI 5cb68 .cfa: x29 32 + x19: .cfa -16 + ^ .ra: .cfa -24 + ^ x29: .cfa -32 + ^
STACK CFI 5cb80 .cfa: sp 32 +
STACK CFI 5cb88 .cfa: sp 0 +
STACK CFI INIT 5cb8c c .cfa: sp 0 +
STACK CFI INIT 5cb98 4 .cfa: sp 0 +
STACK CFI INIT 5cb9c 4 .cfa: sp 0 +
STACK CFI INIT 5cba0 4 .cfa: sp 0 +
STACK CFI INIT 5cba4 34 .cfa: sp 0 +
STACK CFI 5cba8 .cfa: sp 32 +
STACK CFI 5cbb0 .cfa: x29 32 + x19: .cfa -16 + ^ .ra: .cfa -24 + ^ x29: .cfa -32 + ^
STACK CFI 5cbcc .cfa: sp 32 +
STACK CFI 5cbd4 .cfa: sp 0 +
STACK CFI INIT 5cbd8 14 .cfa: sp 0 +
STACK CFI INIT 5cbec 4 .cfa: sp 0 +
STACK CFI INIT 5cbf0 4 .cfa: sp 0 +
STACK CFI INIT 5cd28 1c .cfa: sp 0 +
STACK CFI INIT 5cd44 c .cfa: sp 0 +
STACK CFI INIT 5cd50 50 .cfa: sp 0 +
STACK CFI 5cd54 .cfa: sp 32 +
STACK CFI 5cd5c .cfa: x29 32 + x19: .cfa -16 + ^ .ra: .cfa -24 + ^ x29: .cfa -32 + ^
STACK CFI 5cd74 .cfa: sp 32 +
STACK CFI 5cd7c .cfa: sp 0 +
STACK CFI 5cd80 .cfa: x29 32 +
STACK CFI 5cd94 .cfa: sp 32 +
STACK CFI 5cd9c .cfa: sp 0 +
STACK CFI INIT 5cda0 14 .cfa: sp 0 +
STACK CFI INIT 5d5c4 78 .cfa: sp 0 +
STACK CFI 5d5c8 .cfa: sp 32 +
STACK CFI 5d5d0 .cfa: x29 32 + x19: .cfa -16 + ^ .ra: .cfa -24 + ^ x29: .cfa -32 + ^
STACK CFI 5d60c .cfa: sp 32 +
STACK CFI 5d614 .cfa: sp 0 +
STACK CFI 5d618 .cfa: x29 32 +
STACK CFI 5d624 .cfa: sp 32 +
STACK CFI 5d62c .cfa: sp 0 +
STACK CFI 5d630 .cfa: sp 32 +
STACK CFI 5d638 .cfa: sp 0 +
STACK CFI INIT 5d63c 20 .cfa: sp 0 +
STACK CFI INIT 5d65c 40 .cfa: sp 0 +
STACK CFI 5d674 .cfa: sp 32 +
STACK CFI 5d67c .cfa: x29 32 + x19: .cfa -16 + ^ .ra: .cfa -24 + ^ x29: .cfa -32 + ^
STACK CFI 5d690 .cfa: sp 32 +
STACK CFI 5d698 .cfa: sp 0 +
STACK CFI INIT 5d71c 3c .cfa: sp 0 +
STACK CFI INIT 5d758 14 .cfa: sp 0 +
STACK CFI INIT 5d76c 34 .cfa: sp 0 +
STACK CFI 5d778 .cfa: sp 32 +
STACK CFI 5d780 .cfa: x29 32 + x19: .cfa -16 + ^ .ra: .cfa -24 + ^ x29: .cfa -32 + ^
STACK CFI 5d794 .cfa: sp 32 +
STACK CFI 5d79c .cfa: sp 0 +
STACK CFI INIT 5d8f0 1c .cfa: sp 0 +
STACK CFI INIT 5d90c c .cfa: sp 0 +
STACK CFI INIT 5d918 4 .cfa: sp 0 +
STACK CFI INIT 5db00 8c .cfa: sp 0 +
STACK CFI 5db04 .cfa: sp 32 +
STACK CFI 5db0c .cfa: x29 32 + x19: .cfa -16 + ^ .ra: .cfa -24 + ^ x29: .cfa -32 + ^
STACK CFI 5db80 .cfa: sp 32 +
STACK CFI 5db88 .cfa: sp 0 +
STACK CFI INIT 5db8c 94 .cfa: sp 0 +
STACK CFI 5db90 .cfa: sp 32 +
STACK CFI 5db98 .cfa: x29 32 + x19: .cfa -16 + ^ .ra: .cfa -24 + ^ x29: .cfa -32 + ^
STACK CFI 5dc14 .cfa: sp 32 +
STACK CFI 5dc1c .cfa: sp 0 +
STACK CFI INIT 5dc20 94 .cfa: sp 0 +
STACK CFI 5dc24 .cfa: sp 32 +
STACK CFI 5dc2c .cfa: x29 32 + x19: .cfa -16 + ^ .ra: .cfa -24 + ^ x29: .cfa -32 + ^
STACK CFI 5dca8 .cfa: sp 32 +
STACK CFI 5dcb0 .cfa: sp 0 +
STACK CFI INIT 5dcb4 80 .cfa: sp 0 +
STACK CFI 5dcb8 .cfa: sp 32 +
STACK CFI 5dcc0 .cfa: x29 32 + x19: .cfa -8 + ^ x20: .cfa -16 + ^ .ra: .cfa -24 + ^ x29: .cfa -32 + ^
STACK CFI 5dd00 .cfa: sp 32 +
STACK CFI 5dd08 .cfa: sp 0 +
STACK CFI 5dd0c .cfa: x29 32 +
STACK CFI 5dd1c .cfa: sp 32 +
STACK CFI 5dd24 .cfa: sp 0 +
STACK CFI 5dd28 .cfa: sp 32 +
STACK CFI 5dd30 .cfa: sp 0 +
STACK CFI INIT 5dd34 6c .cfa: sp 0 +
STACK CFI 5dd38 .cfa: sp 32 +
STACK CFI 5dd40 .cfa: x29 32 + x19: .cfa -8 + ^ x20: .cfa -16 + ^ .ra: .cfa -24 + ^ x29: .cfa -32 + ^
STACK CFI 5dd94 .cfa: sp 32 +
STACK CFI 5dd9c .cfa: sp 0 +
STACK CFI INIT 5dfbc 74 .cfa: sp 0 +
STACK CFI 5dfc0 .cfa: sp 32 +
STACK CFI 5dfc8 .cfa: x29 32 + x19: .cfa -8 + ^ x20: .cfa -16 + ^ .ra: .cfa -24 + ^ x29: .cfa -32 + ^
STACK CFI 5dffc .cfa: sp 32 +
STACK CFI 5e004 .cfa: sp 0 +
STACK CFI 5e008 .cfa: x29 32 +
STACK CFI 5e018 .cfa: sp 32 +
STACK CFI 5e020 .cfa: sp 0 +
STACK CFI 5e024 .cfa: sp 32 +
STACK CFI 5e02c .cfa: sp 0 +
STACK CFI INIT 5e030 60 .cfa: sp 0 +
STACK CFI 5e034 .cfa: sp 32 +
STACK CFI 5e03c .cfa: x29 32 + x19: .cfa -8 + ^ x20: .cfa -16 + ^ .ra: .cfa -24 + ^ x29: .cfa -32 + ^
STACK CFI 5e084 .cfa: sp 32 +
STACK CFI 5e08c .cfa: sp 0 +
STACK CFI INIT 5e22c 1c .cfa: sp 0 +
STACK CFI INIT 5e248 c .cfa: sp 0 +
STACK CFI INIT 5e254 4 .cfa: sp 0 +
STACK CFI INIT 5e258 4 .cfa: sp 0 +
STACK CFI INIT 5e25c 24 .cfa: sp 0 +
STACK CFI 5e260 .cfa: sp 16 +
STACK CFI 5e264 .cfa: x29 16 + .ra: .cfa -8 + ^ x29: .cfa -16 + ^
STACK CFI 5e278 .cfa: sp 16 +
STACK CFI 5e27c .cfa: sp 0 +
STACK CFI INIT 5e280 10 .cfa: sp 0 +
STACK CFI INIT 5e290 4 .cfa: sp 0 +
STACK CFI INIT 5e294 4 .cfa: sp 0 +
STACK CFI INIT 5ed04 1c .cfa: sp 0 +
STACK CFI INIT 5ed20 c .cfa: sp 0 +
STACK CFI INIT 5ed2c 44 .cfa: sp 0 +
STACK CFI 5ed30 .cfa: sp 32 +
STACK CFI 5ed38 .cfa: x29 32 + x19: .cfa -16 + ^ .ra: .cfa -24 + ^ x29: .cfa -32 + ^
STACK CFI 5ed54 .cfa: sp 32 +
STACK CFI 5ed5c .cfa: sp 0 +
STACK CFI 5ed60 .cfa: x29 32 +
STACK CFI 5ed64 .cfa: sp 32 +
STACK CFI 5ed6c .cfa: sp 0 +
STACK CFI INIT 5ed70 50 .cfa: sp 0 +
STACK CFI 5ed74 .cfa: sp 32 +
STACK CFI 5ed7c .cfa: x29 32 + x19: .cfa -16 + ^ .ra: .cfa -24 + ^ x29: .cfa -32 + ^
STACK CFI 5eda4 .cfa: sp 32 +
STACK CFI 5edac .cfa: sp 0 +
STACK CFI 5edb0 .cfa: x29 32 +
STACK CFI 5edb4 .cfa: sp 32 +
STACK CFI 5edbc .cfa: sp 0 +
STACK CFI INIT 5edc0 64 .cfa: sp 0 +
STACK CFI 5edc4 .cfa: sp 32 +
STACK CFI 5edcc .cfa: x29 32 + x19: .cfa -16 + ^ .ra: .cfa -24 + ^ x29: .cfa -32 + ^
STACK CFI 5edf0 .cfa: sp 32 +
STACK CFI 5edf8 .cfa: sp 0 +
STACK CFI 5edfc .cfa: x29 32 +
STACK CFI 5ee18 .cfa: sp 32 +
STACK CFI 5ee20 .cfa: sp 0 +
STACK CFI INIT 5efc8 44 .cfa: sp 0 +
STACK CFI 5efcc .cfa: sp 32 +
STACK CFI 5efd4 .cfa: x29 32 + x19: .cfa -16 + ^ .ra: .cfa -24 + ^ x29: .cfa -32 + ^
STACK CFI 5eff0 .cfa: sp 32 +
STACK CFI 5eff8 .cfa: sp 0 +
STACK CFI 5effc .cfa: x29 32 +
STACK CFI 5f000 .cfa: sp 32 +
STACK CFI 5f008 .cfa: sp 0 +
STACK CFI INIT 5f00c 58 .cfa: sp 0 +
STACK CFI 5f010 .cfa: sp 32 +
STACK CFI 5f018 .cfa: x29 32 + x19: .cfa -16 + ^ .ra: .cfa -24 + ^ x29: .cfa -32 + ^
STACK CFI 5f030 .cfa: sp 32 +
STACK CFI 5f038 .cfa: sp 0 +
STACK CFI 5f03c .cfa: x29 32 +
STACK CFI 5f058 .cfa: sp 32 +
STACK CFI 5f060 .cfa: sp 0 +
STACK CFI INIT 5f4c4 1c .cfa: sp 0 +
STACK CFI INIT 5f4e0 c .cfa: sp 0 +
STACK CFI INIT 5f620 3c .cfa: sp 0 +
STACK CFI 5f624 .cfa: sp 32 +
STACK CFI 5f62c .cfa: x29 32 + x19: .cfa -16 + ^ .ra: .cfa -24 + ^ x29: .cfa -32 + ^
STACK CFI 5f638 .cfa: sp 32 +
STACK CFI 5f640 .cfa: sp 0 +
STACK CFI 5f644 .cfa: x29 32 +
STACK CFI 5f650 .cfa: sp 32 +
STACK CFI 5f658 .cfa: sp 0 +
STACK CFI INIT 5f65c 3c .cfa: sp 0 +
STACK CFI 5f660 .cfa: sp 32 +
STACK CFI 5f668 .cfa: x29 32 + x19: .cfa -16 + ^ .ra: .cfa -24 + ^ x29: .cfa -32 + ^
STACK CFI 5f674 .cfa: sp 32 +
STACK CFI 5f67c .cfa: sp 0 +
STACK CFI 5f680 .cfa: x29 32 +
STACK CFI 5f68c .cfa: sp 32 +
STACK CFI 5f694 .cfa: sp 0 +
STACK CFI INIT 5f698 4c .cfa: sp 0 +
STACK CFI 5f69c .cfa: sp 32 +
STACK CFI 5f6a4 .cfa: x29 32 + x19: .cfa -8 + ^ x20: .cfa -16 + ^ .ra: .cfa -24 + ^ x29: .cfa -32 + ^
STACK CFI 5f6cc .cfa: sp 32 +
STACK CFI 5f6d4 .cfa: sp 0 +
STACK CFI 5f6d8 .cfa: sp 32 +
STACK CFI 5f6e0 .cfa: sp 0 +
STACK CFI INIT 5f904 64 .cfa: sp 0 +
STACK CFI 5f908 .cfa: sp 32 +
STACK CFI 5f910 .cfa: x29 32 + x19: .cfa -16 + ^ .ra: .cfa -24 + ^ x29: .cfa -32 + ^
STACK CFI 5f93c .cfa: sp 32 +
STACK CFI 5f944 .cfa: sp 0 +
STACK CFI 5f948 .cfa: x29 32 +
STACK CFI 5f95c .cfa: sp 32 +
STACK CFI 5f964 .cfa: sp 0 +
STACK CFI INIT 5f968 24 .cfa: sp 0 +
STACK CFI 5f96c .cfa: sp 32 +
STACK CFI 5f974 .cfa: x29 32 + x19: .cfa -16 + ^ .ra: .cfa -24 + ^ x29: .cfa -32 + ^
STACK CFI 5f980 .cfa: sp 32 +
STACK CFI 5f988 .cfa: sp 0 +
STACK CFI INIT 5fbe8 24 .cfa: sp 0 +
STACK CFI 5fbec .cfa: sp 32 +
STACK CFI 5fbf4 .cfa: x29 32 + x19: .cfa -16 + ^ .ra: .cfa -24 + ^ x29: .cfa -32 + ^
STACK CFI 5fc00 .cfa: sp 32 +
STACK CFI 5fc08 .cfa: sp 0 +
STACK CFI INIT 5fe90 8 .cfa: sp 0 +
STACK CFI INIT 5fe98 24 .cfa: sp 0 +
STACK CFI 5fe9c .cfa: sp 32 +
STACK CFI 5fea4 .cfa: x29 32 + x19: .cfa -16 + ^ .ra: .cfa -24 + ^ x29: .cfa -32 + ^
STACK CFI 5feb0 .cfa: sp 32 +
STACK CFI 5feb8 .cfa: sp 0 +
STACK CFI INIT 5febc 28 .cfa: sp 0 +
STACK CFI 5fec0 .cfa: sp 32 +
STACK CFI 5fec8 .cfa: x29 32 + x19: .cfa -16 + ^ .ra: .cfa -24 + ^ x29: .cfa -32 + ^
STACK CFI 5fed8 .cfa: sp 32 +
STACK CFI 5fee0 .cfa: sp 0 +
STACK CFI INIT 601e4 8 .cfa: sp 0 +
STACK CFI INIT 601ec 24 .cfa: sp 0 +
STACK CFI 601f0 .cfa: sp 32 +
STACK CFI 601f8 .cfa: x29 32 + x19: .cfa -16 + ^ .ra: .cfa -24 + ^ x29: .cfa -32 + ^
STACK CFI 60204 .cfa: sp 32 +
STACK CFI 6020c .cfa: sp 0 +
STACK CFI INIT 60210 28 .cfa: sp 0 +
STACK CFI 60214 .cfa: sp 32 +
STACK CFI 6021c .cfa: x29 32 + x19: .cfa -16 + ^ .ra: .cfa -24 + ^ x29: .cfa -32 + ^
STACK CFI 6022c .cfa: sp 32 +
STACK CFI 60234 .cfa: sp 0 +
STACK CFI INIT 6049c 8 .cfa: sp 0 +
STACK CFI INIT 604a4 24 .cfa: sp 0 +
STACK CFI 604a8 .cfa: sp 32 +
STACK CFI 604b0 .cfa: x29 32 + x19: .cfa -16 + ^ .ra: .cfa -24 + ^ x29: .cfa -32 + ^
STACK CFI 604bc .cfa: sp 32 +
STACK CFI 604c4 .cfa: sp 0 +
STACK CFI INIT 604c8 28 .cfa: sp 0 +
STACK CFI 604cc .cfa: sp 32 +
STACK CFI 604d4 .cfa: x29 32 + x19: .cfa -16 + ^ .ra: .cfa -24 + ^ x29: .cfa -32 + ^
STACK CFI 604e4 .cfa: sp 32 +
STACK CFI 604ec .cfa: sp 0 +
STACK CFI INIT 604f0 8 .cfa: sp 0 +
STACK CFI INIT 604f8 24 .cfa: sp 0 +
STACK CFI 604fc .cfa: sp 32 +
STACK CFI 60504 .cfa: x29 32 + x19: .cfa -16 + ^ .ra: .cfa -24 + ^ x29: .cfa -32 + ^
STACK CFI 60510 .cfa: sp 32 +
STACK CFI 60518 .cfa: sp 0 +
STACK CFI INIT 6051c 28 .cfa: sp 0 +
STACK CFI 60520 .cfa: sp 32 +
STACK CFI 60528 .cfa: x29 32 + x19: .cfa -16 + ^ .ra: .cfa -24 + ^ x29: .cfa -32 + ^
STACK CFI 60538 .cfa: sp 32 +
STACK CFI 60540 .cfa: sp 0 +
STACK CFI INIT 60b30 4 .cfa: sp 0 +
STACK CFI INIT 61cd4 4 .cfa: sp 0 +
STACK CFI INIT 61cd8 14 .cfa: sp 0 +
STACK CFI INIT 621f8 c .cfa: sp 0 +
STACK CFI INIT 62204 24c .cfa: sp 0 +
STACK CFI INIT 62450 a0 .cfa: sp 0 +
STACK CFI 6245c .cfa: sp 32 +
STACK CFI 624b4 .cfa: sp 0 +
STACK CFI 624b8 .cfa: sp 32 +
STACK CFI 624c0 .cfa: sp 0 +
STACK CFI 624c4 .cfa: sp 32 +
STACK CFI 624d8 .cfa: sp 0 +
STACK CFI 624dc .cfa: sp 32 +
STACK CFI 624ec .cfa: sp 0 +
STACK CFI INIT 624f0 38 .cfa: sp 0 +
STACK CFI 624fc .cfa: sp 32 +
STACK CFI 62524 .cfa: sp 0 +
STACK CFI INIT 62528 34 .cfa: sp 0 +
STACK CFI 6252c .cfa: sp 16 +
STACK CFI 62530 .cfa: x29 16 + .ra: .cfa -8 + ^ x29: .cfa -16 + ^
STACK CFI INIT 628b4 14 .cfa: sp 0 +
STACK CFI INIT 62a58 80 .cfa: sp 0 +
STACK CFI 62a5c .cfa: sp 32 +
STACK CFI 62a64 .cfa: x29 32 + x19: .cfa -16 + ^ .ra: .cfa -24 + ^ x29: .cfa -32 + ^
STACK CFI 62a94 .cfa: sp 32 +
STACK CFI 62a9c .cfa: sp 0 +
STACK CFI 62aa0 .cfa: x29 32 +
STACK CFI 62acc .cfa: sp 32 +
STACK CFI 62ad4 .cfa: sp 0 +
STACK CFI INIT 62b28 30 .cfa: sp 0 +
STACK CFI 62b2c .cfa: sp 32 +
STACK CFI 62b34 .cfa: x29 32 + x19: .cfa -16 + ^ .ra: .cfa -24 + ^ x29: .cfa -32 + ^
STACK CFI 62b4c .cfa: sp 32 +
STACK CFI 62b54 .cfa: sp 0 +
STACK CFI INIT 62d40 9c .cfa: sp 0 +
STACK CFI INIT 62ddc 64 .cfa: sp 0 +
STACK CFI 62de0 .cfa: sp 32 +
STACK CFI 62de8 .cfa: x29 32 + x19: .cfa -16 + ^ .ra: .cfa -24 + ^ x29: .cfa -32 + ^
STACK CFI 62e04 .cfa: sp 32 +
STACK CFI 62e0c .cfa: sp 0 +
STACK CFI 62e10 .cfa: x29 32 +
STACK CFI 62e34 .cfa: sp 32 +
STACK CFI 62e3c .cfa: sp 0 +
STACK CFI INIT 63124 b0 .cfa: sp 0 +
STACK CFI INIT 634f8 b4 .cfa: sp 0 +
STACK CFI 634fc .cfa: sp 48 +
STACK CFI 63508 .cfa: x29 48 + x19: .cfa -8 + ^ x20: .cfa -16 + ^ x21: .cfa -24 + ^ x28: .cfa -32 + ^ .ra: .cfa -40 + ^ x29: .cfa -48 + ^
STACK CFI 63598 .cfa: sp 48 +
STACK CFI 635a4 .cfa: sp 0 +
STACK CFI 635a8 .cfa: x29 48 +
STACK CFI INIT 635ac 1f8 .cfa: sp 0 +
STACK CFI 635b0 .cfa: sp 176 +
STACK CFI 635bc .cfa: x29 32 + x19: .cfa -16 + ^ .ra: .cfa -24 + ^ x29: .cfa -32 + ^
STACK CFI 63614 .cfa: sp 176 +
STACK CFI 63620 .cfa: sp 0 +
STACK CFI 63624 .cfa: x29 32 +
STACK CFI INIT 637a4 8 .cfa: sp 0 +
STACK CFI INIT 63978 4 .cfa: sp 0 +
STACK CFI INIT 63af8 24 .cfa: sp 0 +
STACK CFI INIT 63b1c 228 .cfa: sp 0 +
STACK CFI INIT 63d44 2dc .cfa: sp 0 +
STACK CFI INIT 64020 53c .cfa: sp 0 +
STACK CFI INIT 6455c 8 .cfa: sp 0 +
STACK CFI INIT 64728 14c .cfa: sp 0 +
STACK CFI 64734 .cfa: sp 48 +
STACK CFI 64740 .cfa: x29 48 + x19: .cfa -8 + ^ x20: .cfa -16 + ^ x21: .cfa -24 + ^ x22: .cfa -32 + ^ .ra: .cfa -40 + ^ x29: .cfa -48 + ^
STACK CFI 64864 .cfa: sp 48 +
STACK CFI 64870 .cfa: sp 0 +
STACK CFI INIT 64874 210 .cfa: sp 0 +
STACK CFI 64878 .cfa: sp 64 +
STACK CFI 64888 .cfa: x29 64 + x19: .cfa -8 + ^ x20: .cfa -16 + ^ x21: .cfa -24 + ^ x22: .cfa -32 + ^ x23: .cfa -40 + ^ x24: .cfa -48 + ^ .ra: .cfa -56 + ^ x29: .cfa -64 + ^
STACK CFI 64a3c .cfa: sp 64 +
STACK CFI 64a4c .cfa: sp 0 +
STACK CFI 64a50 .cfa: sp 64 +
STACK CFI 64a60 .cfa: sp 0 +
STACK CFI 64a64 .cfa: x29 64 +
STACK CFI 64a70 .cfa: sp 64 +
STACK CFI 64a80 .cfa: sp 0 +
STACK CFI INIT 64c48 108 .cfa: sp 0 +
STACK CFI 64c54 .cfa: sp 48 +
STACK CFI 64c60 .cfa: x29 48 + x19: .cfa -8 + ^ x20: .cfa -16 + ^ x21: .cfa -24 + ^ x22: .cfa -32 + ^ .ra: .cfa -40 + ^ x29: .cfa -48 + ^
STACK CFI 64d40 .cfa: sp 48 +
STACK CFI 64d4c .cfa: sp 0 +
STACK CFI INIT 64d50 78 .cfa: sp 0 +
STACK CFI 64d54 .cfa: sp 48 +
STACK CFI 64d60 .cfa: x29 48 + x19: .cfa -8 + ^ x20: .cfa -16 + ^ x21: .cfa -24 + ^ x22: .cfa -32 + ^ .ra: .cfa -40 + ^ x29: .cfa -48 + ^
STACK CFI 64da8 .cfa: sp 48 +
STACK CFI 64db4 .cfa: sp 0 +
STACK CFI 64db8 .cfa: sp 48 +
STACK CFI 64dc4 .cfa: sp 0 +
STACK CFI INIT 64dc8 90 .cfa: sp 0 +
STACK CFI 64dcc .cfa: sp 32 +
STACK CFI 64dd4 .cfa: x29 32 + x19: .cfa -16 + ^ .ra: .cfa -24 + ^ x29: .cfa -32 + ^
STACK CFI 64e0c .cfa: sp 32 +
STACK CFI 64e14 .cfa: sp 0 +
STACK CFI 64e18 .cfa: x29 32 +
STACK CFI 64e4c .cfa: sp 32 +
STACK CFI 64e54 .cfa: sp 0 +
STACK CFI INIT 64e58 24 .cfa: sp 0 +
STACK CFI 64e5c .cfa: sp 32 +
STACK CFI 64e64 .cfa: x29 32 + x19: .cfa -16 + ^ .ra: .cfa -24 + ^ x29: .cfa -32 + ^
STACK CFI 64e70 .cfa: sp 32 +
STACK CFI 64e78 .cfa: sp 0 +
STACK CFI INIT 64e7c a0 .cfa: sp 0 +
STACK CFI 64e80 .cfa: sp 48 +
STACK CFI 64e8c .cfa: x29 48 + x19: .cfa -8 + ^ x20: .cfa -16 + ^ x21: .cfa -24 + ^ x22: .cfa -32 + ^ .ra: .cfa -40 + ^ x29: .cfa -48 + ^
STACK CFI 64ef8 .cfa: sp 48 +
STACK CFI 64f04 .cfa: sp 0 +
STACK CFI 64f08 .cfa: sp 48 +
STACK CFI 64f14 .cfa: sp 0 +
STACK CFI 64f18 .cfa: x29 48 +
STACK CFI INIT 65118 150 .cfa: sp 0 +
STACK CFI 6511c .cfa: sp 48 +
STACK CFI 65128 .cfa: x29 48 + x19: .cfa -8 + ^ x20: .cfa -16 + ^ x21: .cfa -24 + ^ x22: .cfa -32 + ^ .ra: .cfa -40 + ^ x29: .cfa -48 + ^
STACK CFI 65258 .cfa: sp 48 +
STACK CFI 65264 .cfa: sp 0 +
STACK CFI INIT 65268 4c .cfa: sp 0 +
STACK CFI 6526c .cfa: sp 64 +
STACK CFI 65278 .cfa: x29 32 + x19: .cfa -16 + ^ .ra: .cfa -24 + ^ x29: .cfa -32 + ^
STACK CFI 652a0 .cfa: sp 64 +
STACK CFI 652ac .cfa: sp 0 +
STACK CFI 652b0 .cfa: x29 32 +
STACK CFI INIT 652b4 70 .cfa: sp 0 +
STACK CFI 652b8 .cfa: sp 64 +
STACK CFI 652c4 .cfa: x29 32 + x19: .cfa -16 + ^ .ra: .cfa -24 + ^ x29: .cfa -32 + ^
STACK CFI 65310 .cfa: sp 64 +
STACK CFI 6531c .cfa: sp 0 +
STACK CFI 65320 .cfa: x29 32 +
STACK CFI INIT 65324 78 .cfa: sp 0 +
STACK CFI 65328 .cfa: sp 32 +
STACK CFI 65330 .cfa: x29 32 + x19: .cfa -8 + ^ x20: .cfa -16 + ^ .ra: .cfa -24 + ^ x29: .cfa -32 + ^
STACK CFI 65390 .cfa: sp 32 +
STACK CFI 65398 .cfa: sp 0 +
STACK CFI INIT 6539c f4 .cfa: sp 0 +
STACK CFI 653a0 .cfa: sp 112 +
STACK CFI 653b0 .cfa: x29 48 + x19: .cfa -8 + ^ x20: .cfa -16 + ^ x21: .cfa -32 + ^ .ra: .cfa -40 + ^ x29: .cfa -48 + ^
STACK CFI 65478 .cfa: sp 112 +
STACK CFI 65488 .cfa: sp 0 +
STACK CFI 6548c .cfa: x29 48 +
STACK CFI INIT 65490 f4 .cfa: sp 0 +
STACK CFI 65494 .cfa: sp 112 +
STACK CFI 654a4 .cfa: x29 48 + x19: .cfa -8 + ^ x20: .cfa -16 + ^ x21: .cfa -32 + ^ .ra: .cfa -40 + ^ x29: .cfa -48 + ^
STACK CFI 6556c .cfa: sp 112 +
STACK CFI 6557c .cfa: sp 0 +
STACK CFI 65580 .cfa: x29 48 +
STACK CFI INIT 65584 48 .cfa: sp 0 +
STACK CFI 65588 .cfa: sp 32 +
STACK CFI 65590 .cfa: x29 32 + x19: .cfa -8 + ^ x20: .cfa -16 + ^ .ra: .cfa -24 + ^ x29: .cfa -32 + ^
STACK CFI 655b4 .cfa: sp 32 +
STACK CFI 655bc .cfa: sp 0 +
STACK CFI 655c0 .cfa: x29 32 +
STACK CFI INIT 655cc 9c .cfa: sp 0 +
STACK CFI 655d0 .cfa: sp 80 +
STACK CFI 655dc .cfa: x29 32 + x19: .cfa -16 + ^ .ra: .cfa -24 + ^ x29: .cfa -32 + ^
STACK CFI 65654 .cfa: sp 80 +
STACK CFI 65660 .cfa: sp 0 +
STACK CFI 65664 .cfa: x29 32 +
STACK CFI INIT 65668 264 .cfa: sp 0 +
STACK CFI 6566c .cfa: sp 112 +
STACK CFI 65684 .cfa: x29 80 + x19: .cfa -8 + ^ x20: .cfa -16 + ^ x21: .cfa -24 + ^ x22: .cfa -32 + ^ x23: .cfa -40 + ^ x24: .cfa -48 + ^ x25: .cfa -64 + ^ .ra: .cfa -72 + ^ x29: .cfa -80 + ^
STACK CFI 6586c .cfa: sp 112 +
STACK CFI 65884 .cfa: sp 0 +
STACK CFI 65888 .cfa: x29 80 +
STACK CFI INIT 658cc 150 .cfa: sp 0 +
STACK CFI 658d0 .cfa: sp 48 +
STACK CFI 658dc .cfa: x29 48 + x19: .cfa -8 + ^ x20: .cfa -16 + ^ x21: .cfa -24 + ^ x22: .cfa -32 + ^ .ra: .cfa -40 + ^ x29: .cfa -48 + ^
STACK CFI 65a0c .cfa: sp 48 +
STACK CFI 65a18 .cfa: sp 0 +
STACK CFI INIT 65a1c 1e4 .cfa: sp 0 +
STACK CFI 65a20 .cfa: sp 96 +
STACK CFI 65a34 .cfa: x29 64 + x19: .cfa -8 + ^ x20: .cfa -16 + ^ x21: .cfa -24 + ^ x22: .cfa -32 + ^ x23: .cfa -40 + ^ x24: .cfa -48 + ^ .ra: .cfa -56 + ^ x29: .cfa -64 + ^
STACK CFI 65bb8 .cfa: sp 96 +
STACK CFI 65bcc .cfa: sp 0 +
STACK CFI 65bd0 .cfa: x29 64 +
STACK CFI INIT 65c00 288 .cfa: sp 0 +
STACK CFI 65c04 .cfa: sp 112 +
STACK CFI 65c1c .cfa: x29 80 + x19: .cfa -8 + ^ x20: .cfa -16 + ^ x21: .cfa -24 + ^ x22: .cfa -32 + ^ x23: .cfa -40 + ^ x24: .cfa -48 + ^ x25: .cfa -64 + ^ .ra: .cfa -72 + ^ x29: .cfa -80 + ^
STACK CFI 65e28 .cfa: sp 112 +
STACK CFI 65e40 .cfa: sp 0 +
STACK CFI 65e44 .cfa: x29 80 +
STACK CFI INIT 65e88 20c .cfa: sp 0 +
STACK CFI 65e8c .cfa: sp 96 +
STACK CFI 65ea0 .cfa: x29 64 + x19: .cfa -8 + ^ x20: .cfa -16 + ^ x21: .cfa -24 + ^ x22: .cfa -32 + ^ x23: .cfa -40 + ^ x24: .cfa -48 + ^ .ra: .cfa -56 + ^ x29: .cfa -64 + ^
STACK CFI 6604c .cfa: sp 96 +
STACK CFI 66060 .cfa: sp 0 +
STACK CFI 66064 .cfa: x29 64 +
STACK CFI INIT 66094 364 .cfa: sp 0 +
STACK CFI 66098 .cfa: sp 160 +
STACK CFI 660b4 .cfa: x29 96 + x19: .cfa -8 + ^ x20: .cfa -16 + ^ x21: .cfa -24 + ^ x22: .cfa -32 + ^ x23: .cfa -40 + ^ x24: .cfa -48 + ^ x25: .cfa -56 + ^ x26: .cfa -64 + ^ x27: .cfa -72 + ^ x28: .cfa -80 + ^ .ra: .cfa -88 + ^ x29: .cfa -96 + ^
STACK CFI 66384 .cfa: sp 160 +
STACK CFI 663a0 .cfa: sp 0 +
STACK CFI 663a4 .cfa: x29 96 +
STACK CFI INIT 663f8 318 .cfa: sp 0 +
STACK CFI 663fc .cfa: sp 144 +
STACK CFI 66418 .cfa: x29 96 + x19: .cfa -8 + ^ x20: .cfa -16 + ^ x21: .cfa -24 + ^ x22: .cfa -32 + ^ x23: .cfa -40 + ^ x24: .cfa -48 + ^ x25: .cfa -56 + ^ x26: .cfa -64 + ^ x27: .cfa -72 + ^ x28: .cfa -80 + ^ .ra: .cfa -88 + ^ x29: .cfa -96 + ^
STACK CFI 66698 .cfa: sp 144 +
STACK CFI 666b4 .cfa: sp 0 +
STACK CFI 666b8 .cfa: x29 96 +
STACK CFI INIT 66710 10c .cfa: sp 0 +
STACK CFI 66714 .cfa: sp 96 +
STACK CFI 66724 .cfa: x29 48 + x19: .cfa -8 + ^ x20: .cfa -16 + ^ x21: .cfa -24 + ^ x22: .cfa -32 + ^ .ra: .cfa -40 + ^ x29: .cfa -48 + ^
STACK CFI 66804 .cfa: sp 96 +
STACK CFI 66814 .cfa: sp 0 +
STACK CFI 66818 .cfa: x29 48 +
STACK CFI INIT 6681c 9a4 .cfa: sp 0 +
STACK CFI 66820 .cfa: sp 144 +
STACK CFI 66838 .cfa: x29 80 + x19: .cfa -8 + ^ x20: .cfa -16 + ^ x21: .cfa -24 + ^ x22: .cfa -32 + ^ x23: .cfa -40 + ^ x24: .cfa -48 + ^ x25: .cfa -64 + ^ .ra: .cfa -72 + ^ x29: .cfa -80 + ^
STACK CFI 671a0 .cfa: sp 144 +
STACK CFI 671b8 .cfa: sp 0 +
STACK CFI 671bc .cfa: x29 80 +
STACK CFI INIT 671c0 1d0 .cfa: sp 0 +
STACK CFI 671c4 .cfa: sp 80 +
STACK CFI 671d8 .cfa: x29 80 + x19: .cfa -8 + ^ x20: .cfa -16 + ^ x21: .cfa -24 + ^ x22: .cfa -32 + ^ x23: .cfa -40 + ^ x24: .cfa -48 + ^ x25: .cfa -64 + ^ .ra: .cfa -72 + ^ x29: .cfa -80 + ^
STACK CFI 67378 .cfa: sp 80 +
STACK CFI 6738c .cfa: sp 0 +
STACK CFI INIT 67390 190 .cfa: sp 0 +
STACK CFI 67394 .cfa: sp 96 +
STACK CFI 673a8 .cfa: x29 64 + x19: .cfa -8 + ^ x20: .cfa -16 + ^ x21: .cfa -24 + ^ x22: .cfa -32 + ^ x23: .cfa -48 + ^ .ra: .cfa -56 + ^ x29: .cfa -64 + ^
STACK CFI 67504 .cfa: sp 96 +
STACK CFI 67518 .cfa: sp 0 +
STACK CFI 6751c .cfa: x29 64 +
STACK CFI INIT 67520 1e4 .cfa: sp 0 +
STACK CFI 67524 .cfa: sp 112 +
STACK CFI 6753c .cfa: x29 80 + x19: .cfa -8 + ^ x20: .cfa -16 + ^ x21: .cfa -24 + ^ x22: .cfa -32 + ^ x23: .cfa -40 + ^ x24: .cfa -48 + ^ x25: .cfa -64 + ^ .ra: .cfa -72 + ^ x29: .cfa -80 + ^
STACK CFI 676e4 .cfa: sp 112 +
STACK CFI 676fc .cfa: sp 0 +
STACK CFI 67700 .cfa: x29 80 +
STACK CFI INIT 67704 1a8 .cfa: sp 0 +
STACK CFI 67708 .cfa: sp 96 +
STACK CFI 6771c .cfa: x29 64 + x19: .cfa -8 + ^ x20: .cfa -16 + ^ x21: .cfa -24 + ^ x22: .cfa -32 + ^ x23: .cfa -40 + ^ x24: .cfa -48 + ^ .ra: .cfa -56 + ^ x29: .cfa -64 + ^
STACK CFI 67890 .cfa: sp 96 +
STACK CFI 678a4 .cfa: sp 0 +
STACK CFI 678a8 .cfa: x29 64 +
STACK CFI INIT 678ac 1ac .cfa: sp 0 +
STACK CFI 678b0 .cfa: sp 112 +
STACK CFI 678c4 .cfa: x29 64 + x19: .cfa -8 + ^ x20: .cfa -16 + ^ x21: .cfa -24 + ^ x22: .cfa -32 + ^ x23: .cfa -40 + ^ x24: .cfa -48 + ^ .ra: .cfa -56 + ^ x29: .cfa -64 + ^
STACK CFI 67a3c .cfa: sp 112 +
STACK CFI 67a50 .cfa: sp 0 +
STACK CFI 67a54 .cfa: x29 64 +
STACK CFI INIT 67a58 108 .cfa: sp 0 +
STACK CFI 67a5c .cfa: sp 64 +
STACK CFI 67a6c .cfa: x29 64 + x19: .cfa -8 + ^ x20: .cfa -16 + ^ x21: .cfa -24 + ^ x22: .cfa -32 + ^ x23: .cfa -48 + ^ .ra: .cfa -56 + ^ x29: .cfa -64 + ^
STACK CFI 67ae8 .cfa: sp 64 +
STACK CFI 67af8 .cfa: sp 0 +
STACK CFI 67afc .cfa: x29 64 +
STACK CFI 67b4c .cfa: sp 64 +
STACK CFI 67b5c .cfa: sp 0 +
STACK CFI INIT 67b60 178 .cfa: sp 0 +
STACK CFI 67b64 .cfa: sp 96 +
STACK CFI 67b74 .cfa: x29 48 + x19: .cfa -8 + ^ x20: .cfa -16 + ^ x21: .cfa -24 + ^ x22: .cfa -32 + ^ .ra: .cfa -40 + ^ x29: .cfa -48 + ^
STACK CFI 67c94 .cfa: sp 96 +
STACK CFI 67ca4 .cfa: sp 0 +
STACK CFI 67ca8 .cfa: x29 48 +
STACK CFI INIT 67cd8 1e4 .cfa: sp 0 +
STACK CFI 67cdc .cfa: sp 32 +
STACK CFI 67ce4 .cfa: x29 32 + x19: .cfa -8 + ^ x20: .cfa -16 + ^ .ra: .cfa -24 + ^ x29: .cfa -32 + ^
STACK CFI 67dd4 .cfa: sp 32 +
STACK CFI 67ddc .cfa: sp 0 +
STACK CFI 67de0 .cfa: x29 32 +
STACK CFI 67e54 .cfa: sp 32 +
STACK CFI 67e5c .cfa: sp 0 +
STACK CFI 67e60 .cfa: x29 32 +
STACK CFI 67e70 .cfa: sp 32 +
STACK CFI 67e78 .cfa: sp 0 +
STACK CFI 67e7c .cfa: x29 32 +
STACK CFI 67e8c .cfa: sp 32 +
STACK CFI 67e94 .cfa: sp 0 +
STACK CFI 67e98 .cfa: x29 32 +
STACK CFI INIT 67ebc 178 .cfa: sp 0 +
STACK CFI 67ec0 .cfa: sp 80 +
STACK CFI 67ed4 .cfa: x29 64 + x19: .cfa -8 + ^ x20: .cfa -16 + ^ x21: .cfa -24 + ^ x22: .cfa -32 + ^ x23: .cfa -40 + ^ x24: .cfa -48 + ^ .ra: .cfa -56 + ^ x29: .cfa -64 + ^
STACK CFI 68018 .cfa: sp 80 +
STACK CFI 6802c .cfa: sp 0 +
STACK CFI 68030 .cfa: x29 64 +
STACK CFI INIT 68034 178 .cfa: sp 0 +
STACK CFI 68038 .cfa: sp 80 +
STACK CFI 6804c .cfa: x29 64 + x19: .cfa -8 + ^ x20: .cfa -16 + ^ x21: .cfa -24 + ^ x22: .cfa -32 + ^ x23: .cfa -40 + ^ x24: .cfa -48 + ^ .ra: .cfa -56 + ^ x29: .cfa -64 + ^
STACK CFI 68190 .cfa: sp 80 +
STACK CFI 681a4 .cfa: sp 0 +
STACK CFI 681a8 .cfa: x29 64 +
STACK CFI INIT 681ac 178 .cfa: sp 0 +
STACK CFI 681b0 .cfa: sp 80 +
STACK CFI 681c4 .cfa: x29 64 + x19: .cfa -8 + ^ x20: .cfa -16 + ^ x21: .cfa -24 + ^ x22: .cfa -32 + ^ x23: .cfa -40 + ^ x24: .cfa -48 + ^ .ra: .cfa -56 + ^ x29: .cfa -64 + ^
STACK CFI 68308 .cfa: sp 80 +
STACK CFI 6831c .cfa: sp 0 +
STACK CFI 68320 .cfa: x29 64 +
STACK CFI INIT 68324 1f4 .cfa: sp 0 +
STACK CFI 68328 .cfa: sp 80 +
STACK CFI 6833c .cfa: x29 80 + x19: .cfa -8 + ^ x20: .cfa -16 + ^ x21: .cfa -24 + ^ x22: .cfa -32 + ^ x23: .cfa -40 + ^ x24: .cfa -48 + ^ x25: .cfa -64 + ^ .ra: .cfa -72 + ^ x29: .cfa -80 + ^
STACK CFI 684dc .cfa: sp 80 +
STACK CFI 684f0 .cfa: sp 0 +
STACK CFI 684f4 .cfa: x29 80 +
STACK CFI 68500 .cfa: sp 80 +
STACK CFI 68514 .cfa: sp 0 +
STACK CFI INIT 68518 258 .cfa: sp 0 +
STACK CFI 6851c .cfa: sp 96 +
STACK CFI 68534 .cfa: x29 96 + x19: .cfa -8 + ^ x20: .cfa -16 + ^ x21: .cfa -24 + ^ x22: .cfa -32 + ^ x23: .cfa -40 + ^ x24: .cfa -48 + ^ x25: .cfa -56 + ^ x26: .cfa -64 + ^ x27: .cfa -72 + ^ x28: .cfa -80 + ^ .ra: .cfa -88 + ^ x29: .cfa -96 + ^
STACK CFI 6872c .cfa: sp 96 +
STACK CFI 68744 .cfa: sp 0 +
STACK CFI 68748 .cfa: x29 96 +
STACK CFI 68754 .cfa: sp 96 +
STACK CFI 6876c .cfa: sp 0 +
STACK CFI INIT 68e44 154 .cfa: sp 0 +
STACK CFI 68e48 .cfa: sp 96 +
STACK CFI 68e5c .cfa: x29 64 + x19: .cfa -8 + ^ x20: .cfa -16 + ^ x21: .cfa -24 + ^ x22: .cfa -32 + ^ x23: .cfa -48 + ^ .ra: .cfa -56 + ^ x29: .cfa -64 + ^
STACK CFI 68f3c .cfa: sp 96 +
STACK CFI 68f50 .cfa: sp 0 +
STACK CFI 68f54 .cfa: x29 64 +
STACK CFI INIT 69150 44 .cfa: sp 0 +
STACK CFI 69154 .cfa: sp 32 +
STACK CFI 6915c .cfa: x29 32 + x19: .cfa -16 + ^ .ra: .cfa -24 + ^ x29: .cfa -32 + ^
STACK CFI 69178 .cfa: sp 32 +
STACK CFI 69180 .cfa: sp 0 +
STACK CFI 69184 .cfa: x29 32 +
STACK CFI 69188 .cfa: sp 32 +
STACK CFI 69190 .cfa: sp 0 +
STACK CFI INIT 69194 1d0 .cfa: sp 0 +
STACK CFI 69198 .cfa: sp 64 +
STACK CFI 691a8 .cfa: x29 64 + x19: .cfa -8 + ^ x20: .cfa -16 + ^ x21: .cfa -24 + ^ x22: .cfa -32 + ^ x23: .cfa -40 + ^ x24: .cfa -48 + ^ .ra: .cfa -56 + ^ x29: .cfa -64 + ^
STACK CFI 69268 .cfa: sp 64 +
STACK CFI 69278 .cfa: sp 0 +
STACK CFI 6927c .cfa: x29 64 +
STACK CFI INIT 69364 17c .cfa: sp 0 +
STACK CFI INIT 694e0 134 .cfa: sp 0 +
STACK CFI 694e4 .cfa: sp 48 +
STACK CFI 694f0 .cfa: x29 48 + x19: .cfa -8 + ^ x20: .cfa -16 + ^ x21: .cfa -24 + ^ x22: .cfa -32 + ^ .ra: .cfa -40 + ^ x29: .cfa -48 + ^
STACK CFI 69604 .cfa: sp 48 +
STACK CFI 69610 .cfa: sp 0 +
STACK CFI INIT 69c8c a0 .cfa: sp 0 +
STACK CFI 69c90 .cfa: sp 48 +
STACK CFI 69c9c .cfa: x29 48 + x19: .cfa -8 + ^ x20: .cfa -16 + ^ x21: .cfa -24 + ^ x22: .cfa -32 + ^ .ra: .cfa -40 + ^ x29: .cfa -48 + ^
STACK CFI 69d08 .cfa: sp 48 +
STACK CFI 69d14 .cfa: sp 0 +
STACK CFI 69d18 .cfa: sp 48 +
STACK CFI 69d24 .cfa: sp 0 +
STACK CFI 69d28 .cfa: x29 48 +
STACK CFI INIT 69d2c 190 .cfa: sp 0 +
STACK CFI 69d30 .cfa: sp 80 +
STACK CFI 69d44 .cfa: x29 80 + x19: .cfa -8 + ^ x20: .cfa -16 + ^ x21: .cfa -24 + ^ x22: .cfa -32 + ^ x23: .cfa -40 + ^ x24: .cfa -48 + ^ x25: .cfa -64 + ^ .ra: .cfa -72 + ^ x29: .cfa -80 + ^
STACK CFI 69e80 .cfa: sp 80 +
STACK CFI 69e94 .cfa: sp 0 +
STACK CFI 69e98 .cfa: x29 80 +
STACK CFI 69ea4 .cfa: sp 80 +
STACK CFI 69eb8 .cfa: sp 0 +
STACK CFI INIT 6a004 21c .cfa: sp 0 +
STACK CFI 6a008 .cfa: sp 96 +
STACK CFI 6a01c .cfa: x29 64 + x19: .cfa -8 + ^ x20: .cfa -16 + ^ x21: .cfa -24 + ^ x22: .cfa -32 + ^ x23: .cfa -40 + ^ x24: .cfa -48 + ^ .ra: .cfa -56 + ^ x29: .cfa -64 + ^
STACK CFI 6a204 .cfa: sp 96 +
STACK CFI 6a218 .cfa: sp 0 +
STACK CFI 6a21c .cfa: x29 64 +
STACK CFI INIT 6a904 158 .cfa: sp 0 +
STACK CFI 6a908 .cfa: sp 96 +
STACK CFI 6a91c .cfa: x29 64 + x19: .cfa -8 + ^ x20: .cfa -16 + ^ x21: .cfa -24 + ^ x22: .cfa -32 + ^ x23: .cfa -48 + ^ .ra: .cfa -56 + ^ x29: .cfa -64 + ^
STACK CFI 6aa00 .cfa: sp 96 +
STACK CFI 6aa14 .cfa: sp 0 +
STACK CFI 6aa18 .cfa: x29 64 +
STACK CFI INIT 6aa5c 190 .cfa: sp 0 +
STACK CFI INIT 6abec 134 .cfa: sp 0 +
STACK CFI 6abf0 .cfa: sp 48 +
STACK CFI 6abfc .cfa: x29 48 + x19: .cfa -8 + ^ x20: .cfa -16 + ^ x21: .cfa -24 + ^ x22: .cfa -32 + ^ .ra: .cfa -40 + ^ x29: .cfa -48 + ^
STACK CFI 6ad10 .cfa: sp 48 +
STACK CFI 6ad1c .cfa: sp 0 +
STACK CFI INIT 6aff8 190 .cfa: sp 0 +
STACK CFI 6affc .cfa: sp 80 +
STACK CFI 6b010 .cfa: x29 80 + x19: .cfa -8 + ^ x20: .cfa -16 + ^ x21: .cfa -24 + ^ x22: .cfa -32 + ^ x23: .cfa -40 + ^ x24: .cfa -48 + ^ x25: .cfa -64 + ^ .ra: .cfa -72 + ^ x29: .cfa -80 + ^
STACK CFI 6b14c .cfa: sp 80 +
STACK CFI 6b160 .cfa: sp 0 +
STACK CFI 6b164 .cfa: x29 80 +
STACK CFI 6b170 .cfa: sp 80 +
STACK CFI 6b184 .cfa: sp 0 +
STACK CFI INIT 6b2d0 228 .cfa: sp 0 +
STACK CFI 6b2d4 .cfa: sp 96 +
STACK CFI 6b2e8 .cfa: x29 64 + x19: .cfa -8 + ^ x20: .cfa -16 + ^ x21: .cfa -24 + ^ x22: .cfa -32 + ^ x23: .cfa -40 + ^ x24: .cfa -48 + ^ .ra: .cfa -56 + ^ x29: .cfa -64 + ^
STACK CFI 6b4dc .cfa: sp 96 +
STACK CFI 6b4f0 .cfa: sp 0 +
STACK CFI 6b4f4 .cfa: x29 64 +
STACK CFI INIT 6b8e0 568 .cfa: sp 0 +
STACK CFI 6b8e4 .cfa: sp 176 +
STACK CFI 6b900 .cfa: x29 96 + x19: .cfa -8 + ^ x20: .cfa -16 + ^ x21: .cfa -24 + ^ x22: .cfa -32 + ^ x23: .cfa -40 + ^ x24: .cfa -48 + ^ x25: .cfa -56 + ^ x26: .cfa -64 + ^ x27: .cfa -72 + ^ x28: .cfa -80 + ^ .ra: .cfa -88 + ^ x29: .cfa -96 + ^
STACK CFI 6be24 .cfa: sp 176 +
STACK CFI 6be40 .cfa: sp 0 +
STACK CFI 6be44 .cfa: x29 96 +
STACK CFI INIT 6be48 2c4 .cfa: sp 0 +
STACK CFI 6be4c .cfa: sp 160 +
STACK CFI 6be60 .cfa: x29 64 + x19: .cfa -8 + ^ x20: .cfa -16 + ^ x21: .cfa -24 + ^ x22: .cfa -32 + ^ x23: .cfa -40 + ^ x24: .cfa -48 + ^ .ra: .cfa -56 + ^ x29: .cfa -64 + ^
STACK CFI 6c0cc .cfa: sp 160 +
STACK CFI 6c0e0 .cfa: sp 0 +
STACK CFI 6c0e4 .cfa: x29 64 +
STACK CFI INIT 6c10c 1f4 .cfa: sp 0 +
STACK CFI 6c110 .cfa: sp 80 +
STACK CFI 6c124 .cfa: x29 80 + x19: .cfa -8 + ^ x20: .cfa -16 + ^ x21: .cfa -24 + ^ x22: .cfa -32 + ^ x23: .cfa -40 + ^ x24: .cfa -48 + ^ x25: .cfa -64 + ^ .ra: .cfa -72 + ^ x29: .cfa -80 + ^
STACK CFI 6c2c4 .cfa: sp 80 +
STACK CFI 6c2d8 .cfa: sp 0 +
STACK CFI 6c2dc .cfa: x29 80 +
STACK CFI 6c2e8 .cfa: sp 80 +
STACK CFI 6c2fc .cfa: sp 0 +
STACK CFI INIT 6d734 124 .cfa: sp 0 +
STACK CFI 6d764 .cfa: sp 32 +
STACK CFI 6d76c .cfa: x29 32 + x19: .cfa -8 + ^ x20: .cfa -16 + ^ .ra: .cfa -24 + ^ x29: .cfa -32 + ^
STACK CFI 6d84c .cfa: sp 32 +
STACK CFI 6d854 .cfa: sp 0 +
STACK CFI INIT 6d858 194 .cfa: sp 0 +
STACK CFI 6d85c .cfa: sp 48 +
STACK CFI 6d868 .cfa: x29 48 + x19: .cfa -8 + ^ x20: .cfa -16 + ^ x21: .cfa -24 + ^ x22: .cfa -32 + ^ .ra: .cfa -40 + ^ x29: .cfa -48 + ^
STACK CFI 6d8d0 .cfa: sp 48 +
STACK CFI 6d8dc .cfa: sp 0 +
STACK CFI 6d8e0 .cfa: x29 48 +
STACK CFI 6d914 .cfa: sp 48 +
STACK CFI 6d920 .cfa: sp 0 +
STACK CFI 6d924 .cfa: x29 48 +
STACK CFI 6d9dc .cfa: sp 48 +
STACK CFI 6d9e8 .cfa: sp 0 +
STACK CFI INIT 6d9ec 320 .cfa: sp 0 +
STACK CFI 6d9f0 .cfa: sp 64 +
STACK CFI 6da00 .cfa: x29 64 + x19: .cfa -8 + ^ x20: .cfa -16 + ^ x21: .cfa -24 + ^ x22: .cfa -32 + ^ x23: .cfa -40 + ^ x24: .cfa -48 + ^ .ra: .cfa -56 + ^ x29: .cfa -64 + ^
STACK CFI 6da7c .cfa: sp 64 +
STACK CFI 6da8c .cfa: sp 0 +
STACK CFI 6da90 .cfa: x29 64 +
STACK CFI 6dc64 .cfa: sp 64 +
STACK CFI 6dc74 .cfa: sp 0 +
STACK CFI 6dc78 .cfa: x29 64 +
STACK CFI 6dc88 .cfa: sp 64 +
STACK CFI 6dc98 .cfa: sp 0 +
STACK CFI 6dc9c .cfa: x29 64 +
STACK CFI INIT 6dd0c a0 .cfa: sp 0 +
STACK CFI 6dd10 .cfa: sp 48 +
STACK CFI 6dd1c .cfa: x29 48 + x19: .cfa -8 + ^ x20: .cfa -16 + ^ x21: .cfa -24 + ^ x22: .cfa -32 + ^ .ra: .cfa -40 + ^ x29: .cfa -48 + ^
STACK CFI 6dd88 .cfa: sp 48 +
STACK CFI 6dd94 .cfa: sp 0 +
STACK CFI 6dd98 .cfa: sp 48 +
STACK CFI 6dda4 .cfa: sp 0 +
STACK CFI 6dda8 .cfa: x29 48 +
STACK CFI INIT 6ea30 168 .cfa: sp 0 +
STACK CFI 6ea34 .cfa: sp 64 +
STACK CFI 6ea44 .cfa: x29 64 + x19: .cfa -8 + ^ x20: .cfa -16 + ^ x21: .cfa -24 + ^ x22: .cfa -32 + ^ x23: .cfa -48 + ^ .ra: .cfa -56 + ^ x29: .cfa -64 + ^
STACK CFI 6eb44 .cfa: sp 64 +
STACK CFI 6eb54 .cfa: sp 0 +
STACK CFI 6eb58 .cfa: x29 64 +
STACK CFI INIT 6eb98 134 .cfa: sp 0 +
STACK CFI 6eb9c .cfa: sp 48 +
STACK CFI 6eba8 .cfa: x29 48 + x19: .cfa -8 + ^ x20: .cfa -16 + ^ x21: .cfa -24 + ^ x22: .cfa -32 + ^ .ra: .cfa -40 + ^ x29: .cfa -48 + ^
STACK CFI 6ecbc .cfa: sp 48 +
STACK CFI 6ecc8 .cfa: sp 0 +
STACK CFI INIT 6f0b4 190 .cfa: sp 0 +
STACK CFI 6f0b8 .cfa: sp 80 +
STACK CFI 6f0cc .cfa: x29 80 + x19: .cfa -8 + ^ x20: .cfa -16 + ^ x21: .cfa -24 + ^ x22: .cfa -32 + ^ x23: .cfa -40 + ^ x24: .cfa -48 + ^ x25: .cfa -64 + ^ .ra: .cfa -72 + ^ x29: .cfa -80 + ^
STACK CFI 6f208 .cfa: sp 80 +
STACK CFI 6f21c .cfa: sp 0 +
STACK CFI 6f220 .cfa: x29 80 +
STACK CFI 6f22c .cfa: sp 80 +
STACK CFI 6f240 .cfa: sp 0 +
STACK CFI INIT 6f458 280 .cfa: sp 0 +
STACK CFI 6f45c .cfa: sp 64 +
STACK CFI 6f46c .cfa: x29 64 + x19: .cfa -8 + ^ x20: .cfa -16 + ^ x21: .cfa -24 + ^ x22: .cfa -32 + ^ x23: .cfa -48 + ^ .ra: .cfa -56 + ^ x29: .cfa -64 + ^
STACK CFI 6f6c4 .cfa: sp 64 +
STACK CFI 6f6d4 .cfa: sp 0 +
STACK CFI INIT 6f6d8 220 .cfa: sp 0 +
STACK CFI 6f6dc .cfa: sp 128 +
STACK CFI 6f6f8 .cfa: x29 96 + x19: .cfa -8 + ^ x20: .cfa -16 + ^ x21: .cfa -24 + ^ x22: .cfa -32 + ^ x23: .cfa -40 + ^ x24: .cfa -48 + ^ x25: .cfa -56 + ^ x26: .cfa -64 + ^ x27: .cfa -80 + ^ .ra: .cfa -88 + ^ x29: .cfa -96 + ^
STACK CFI 6f87c .cfa: sp 128 +
STACK CFI 6f898 .cfa: sp 0 +
STACK CFI 6f89c .cfa: x29 96 +
STACK CFI INIT 6f8f8 6c4 .cfa: sp 0 +
STACK CFI 6f8fc .cfa: sp 192 +
STACK CFI 6f90c .cfa: x29 48 + x19: .cfa -8 + ^ x20: .cfa -16 + ^ x21: .cfa -24 + ^ x22: .cfa -32 + ^ .ra: .cfa -40 + ^ x29: .cfa -48 + ^
STACK CFI 6fa6c .cfa: sp 192 +
STACK CFI 6fa7c .cfa: sp 0 +
STACK CFI 6fa80 .cfa: x29 48 +
STACK CFI INIT 6ffbc 624 .cfa: sp 0 +
STACK CFI 6ffc0 .cfa: sp 336 +
STACK CFI 6ffdc .cfa: x29 96 + x19: .cfa -8 + ^ x20: .cfa -16 + ^ x21: .cfa -24 + ^ x22: .cfa -32 + ^ x23: .cfa -40 + ^ x24: .cfa -48 + ^ x25: .cfa -56 + ^ x26: .cfa -64 + ^ x27: .cfa -72 + ^ x28: .cfa -80 + ^ .ra: .cfa -88 + ^ x29: .cfa -96 + ^
STACK CFI 70080 .cfa: sp 336 +
STACK CFI 7009c .cfa: sp 0 +
STACK CFI 700a0 .cfa: x29 96 +
STACK CFI INIT 705e0 258 .cfa: sp 0 +
STACK CFI 705e4 .cfa: sp 112 +
STACK CFI 70600 .cfa: x29 96 + x19: .cfa -8 + ^ x20: .cfa -16 + ^ x21: .cfa -24 + ^ x22: .cfa -32 + ^ x23: .cfa -40 + ^ x24: .cfa -48 + ^ x25: .cfa -56 + ^ x26: .cfa -64 + ^ x27: .cfa -72 + ^ x28: .cfa -80 + ^ .ra: .cfa -88 + ^ x29: .cfa -96 + ^
STACK CFI 70800 .cfa: sp 112 +
STACK CFI 7081c .cfa: sp 0 +
STACK CFI 70820 .cfa: x29 96 +
STACK CFI INIT 70838 4b4 .cfa: sp 0 +
STACK CFI 7083c .cfa: sp 96 +
STACK CFI 70854 .cfa: x29 96 + x19: .cfa -8 + ^ x20: .cfa -16 + ^ x21: .cfa -24 + ^ x22: .cfa -32 + ^ x23: .cfa -40 + ^ x24: .cfa -48 + ^ x25: .cfa -56 + ^ x26: .cfa -64 + ^ x27: .cfa -72 + ^ x28: .cfa -80 + ^ .ra: .cfa -88 + ^ x29: .cfa -96 + ^
STACK CFI 70c9c .cfa: sp 96 +
STACK CFI 70cb4 .cfa: sp 0 +
STACK CFI 70cb8 .cfa: x29 96 +
STACK CFI INIT 70cec 114 .cfa: sp 0 +
STACK CFI 70cf0 .cfa: sp 128 +
STACK CFI 70d00 .cfa: x29 48 + x19: .cfa -8 + ^ x20: .cfa -16 + ^ x21: .cfa -32 + ^ .ra: .cfa -40 + ^ x29: .cfa -48 + ^
STACK CFI 70dcc .cfa: sp 128 +
STACK CFI 70ddc .cfa: sp 0 +
STACK CFI 70de0 .cfa: x29 48 +
STACK CFI INIT 70e00 114 .cfa: sp 0 +
STACK CFI 70e04 .cfa: sp 128 +
STACK CFI 70e14 .cfa: x29 48 + x19: .cfa -8 + ^ x20: .cfa -16 + ^ x21: .cfa -32 + ^ .ra: .cfa -40 + ^ x29: .cfa -48 + ^
STACK CFI 70ee0 .cfa: sp 128 +
STACK CFI 70ef0 .cfa: sp 0 +
STACK CFI 70ef4 .cfa: x29 48 +
STACK CFI INIT 70f14 1a4 .cfa: sp 0 +
STACK CFI 70f18 .cfa: sp 64 +
STACK CFI 70f24 .cfa: x29 32 + x19: .cfa -8 + ^ x20: .cfa -16 + ^ .ra: .cfa -24 + ^ x29: .cfa -32 + ^
STACK CFI 71050 .cfa: sp 64 +
STACK CFI 7105c .cfa: sp 0 +
STACK CFI 71060 .cfa: x29 32 +
STACK CFI INIT 710b8 194 .cfa: sp 0 +
STACK CFI 710bc .cfa: sp 16 +
STACK CFI 710c0 .cfa: x29 16 + .ra: .cfa -8 + ^ x29: .cfa -16 + ^
STACK CFI 71158 .cfa: sp 16 +
STACK CFI 7115c .cfa: sp 0 +
STACK CFI 71160 .cfa: x29 16 +
STACK CFI 7122c .cfa: sp 16 +
STACK CFI 71230 .cfa: sp 0 +
STACK CFI 71234 .cfa: x29 16 +
STACK CFI INIT 7124c 94 .cfa: sp 0 +
STACK CFI 71250 .cfa: sp 16 +
STACK CFI 71254 .cfa: x29 16 + .ra: .cfa -8 + ^ x29: .cfa -16 + ^
STACK CFI 712a8 .cfa: sp 16 +
STACK CFI 712ac .cfa: sp 0 +
STACK CFI 712b0 .cfa: x29 16 +
STACK CFI INIT 712e0 158 .cfa: sp 0 +
STACK CFI 712e4 .cfa: sp 112 +
STACK CFI 71300 .cfa: x29 96 + x19: .cfa -8 + ^ x20: .cfa -16 + ^ x21: .cfa -24 + ^ x22: .cfa -32 + ^ x23: .cfa -40 + ^ x24: .cfa -48 + ^ x25: .cfa -56 + ^ x26: .cfa -64 + ^ x27: .cfa -72 + ^ x28: .cfa -80 + ^ .ra: .cfa -88 + ^ x29: .cfa -96 + ^
STACK CFI 713e8 .cfa: sp 112 +
STACK CFI 713ec .cfa: x29 96 +
STACK CFI 713f4 .cfa: sp 112 +
STACK CFI 71410 .cfa: sp 0 +
STACK CFI 71414 .cfa: x29 96 +
STACK CFI 71434 .cfa: sp 112 +
STACK CFI INIT 71438 94 .cfa: sp 0 +
STACK CFI 7143c .cfa: sp 16 +
STACK CFI 71440 .cfa: x29 16 + .ra: .cfa -8 + ^ x29: .cfa -16 + ^
STACK CFI 71494 .cfa: sp 16 +
STACK CFI 71498 .cfa: sp 0 +
STACK CFI 7149c .cfa: x29 16 +
STACK CFI INIT 714cc 9e8 .cfa: sp 0 +
STACK CFI 714d0 .cfa: sp 160 +
STACK CFI 714e8 .cfa: x29 80 + x19: .cfa -8 + ^ x20: .cfa -16 + ^ x21: .cfa -24 + ^ x22: .cfa -32 + ^ x23: .cfa -40 + ^ x24: .cfa -48 + ^ x25: .cfa -64 + ^ .ra: .cfa -72 + ^ x29: .cfa -80 + ^
STACK CFI 71e94 .cfa: sp 160 +
STACK CFI 71eac .cfa: sp 0 +
STACK CFI 71eb0 .cfa: x29 80 +
STACK CFI INIT 71eb4 19c .cfa: sp 0 +
STACK CFI 71eb8 .cfa: sp 96 +
STACK CFI 71ecc .cfa: x29 64 + x19: .cfa -8 + ^ x20: .cfa -16 + ^ x21: .cfa -24 + ^ x22: .cfa -32 + ^ x23: .cfa -48 + ^ .ra: .cfa -56 + ^ x29: .cfa -64 + ^
STACK CFI 72034 .cfa: sp 96 +
STACK CFI 72048 .cfa: sp 0 +
STACK CFI 7204c .cfa: x29 64 +
STACK CFI INIT 72050 1e8 .cfa: sp 0 +
STACK CFI 72054 .cfa: sp 112 +
STACK CFI 7206c .cfa: x29 80 + x19: .cfa -8 + ^ x20: .cfa -16 + ^ x21: .cfa -24 + ^ x22: .cfa -32 + ^ x23: .cfa -40 + ^ x24: .cfa -48 + ^ x25: .cfa -64 + ^ .ra: .cfa -72 + ^ x29: .cfa -80 + ^
STACK CFI 72218 .cfa: sp 112 +
STACK CFI 72230 .cfa: sp 0 +
STACK CFI 72234 .cfa: x29 80 +
STACK CFI INIT 72238 1ac .cfa: sp 0 +
STACK CFI 7223c .cfa: sp 96 +
STACK CFI 72250 .cfa: x29 64 + x19: .cfa -8 + ^ x20: .cfa -16 + ^ x21: .cfa -24 + ^ x22: .cfa -32 + ^ x23: .cfa -40 + ^ x24: .cfa -48 + ^ .ra: .cfa -56 + ^ x29: .cfa -64 + ^
STACK CFI 723c8 .cfa: sp 96 +
STACK CFI 723dc .cfa: sp 0 +
STACK CFI 723e0 .cfa: x29 64 +
STACK CFI INIT 723e4 1b4 .cfa: sp 0 +
STACK CFI 723e8 .cfa: sp 144 +
STACK CFI 723fc .cfa: x29 64 + x19: .cfa -8 + ^ x20: .cfa -16 + ^ x21: .cfa -24 + ^ x22: .cfa -32 + ^ x23: .cfa -40 + ^ x24: .cfa -48 + ^ .ra: .cfa -56 + ^ x29: .cfa -64 + ^
STACK CFI 7257c .cfa: sp 144 +
STACK CFI 72590 .cfa: sp 0 +
STACK CFI 72594 .cfa: x29 64 +
STACK CFI INIT 72598 b00 .cfa: sp 0 +
STACK CFI 7259c .cfa: sp 256 +
STACK CFI 725b8 .cfa: x29 96 + x19: .cfa -8 + ^ x20: .cfa -16 + ^ x21: .cfa -24 + ^ x22: .cfa -32 + ^ x23: .cfa -40 + ^ x24: .cfa -48 + ^ x25: .cfa -56 + ^ x26: .cfa -64 + ^ x27: .cfa -72 + ^ x28: .cfa -80 + ^ .ra: .cfa -88 + ^ x29: .cfa -96 + ^
STACK CFI 73074 .cfa: sp 256 +
STACK CFI 73090 .cfa: sp 0 +
STACK CFI 73094 .cfa: x29 96 +
STACK CFI INIT 73098 1d4 .cfa: sp 0 +
STACK CFI 7309c .cfa: sp 144 +
STACK CFI 730b8 .cfa: x29 96 + x19: .cfa -8 + ^ x20: .cfa -16 + ^ x21: .cfa -24 + ^ x22: .cfa -32 + ^ x23: .cfa -40 + ^ x24: .cfa -48 + ^ x25: .cfa -56 + ^ x26: .cfa -64 + ^ x27: .cfa -80 + ^ .ra: .cfa -88 + ^ x29: .cfa -96 + ^
STACK CFI 73248 .cfa: sp 144 +
STACK CFI 73264 .cfa: sp 0 +
STACK CFI 73268 .cfa: x29 96 +
STACK CFI INIT 7326c 200 .cfa: sp 0 +
STACK CFI 73270 .cfa: sp 128 +
STACK CFI 73288 .cfa: x29 80 + x19: .cfa -8 + ^ x20: .cfa -16 + ^ x21: .cfa -24 + ^ x22: .cfa -32 + ^ x23: .cfa -40 + ^ x24: .cfa -48 + ^ x25: .cfa -56 + ^ x26: .cfa -64 + ^ .ra: .cfa -72 + ^ x29: .cfa -80 + ^
STACK CFI 7344c .cfa: sp 128 +
STACK CFI 73464 .cfa: sp 0 +
STACK CFI 73468 .cfa: x29 80 +
STACK CFI INIT 7346c 1cc .cfa: sp 0 +
STACK CFI 73470 .cfa: sp 144 +
STACK CFI 73488 .cfa: x29 80 + x19: .cfa -8 + ^ x20: .cfa -16 + ^ x21: .cfa -24 + ^ x22: .cfa -32 + ^ x23: .cfa -40 + ^ x24: .cfa -48 + ^ x25: .cfa -64 + ^ .ra: .cfa -72 + ^ x29: .cfa -80 + ^
STACK CFI 73618 .cfa: sp 144 +
STACK CFI 73630 .cfa: sp 0 +
STACK CFI 73634 .cfa: x29 80 +
STACK CFI INIT 73638 1d8 .cfa: sp 0 +
STACK CFI 7363c .cfa: sp 224 +
STACK CFI 73654 .cfa: x29 80 + x19: .cfa -8 + ^ x20: .cfa -16 + ^ x21: .cfa -24 + ^ x22: .cfa -32 + ^ x23: .cfa -40 + ^ x24: .cfa -48 + ^ x25: .cfa -64 + ^ .ra: .cfa -72 + ^ x29: .cfa -80 + ^
STACK CFI 737f0 .cfa: sp 224 +
STACK CFI 73808 .cfa: sp 0 +
STACK CFI 7380c .cfa: x29 80 +
STACK CFI INIT 73810 138 .cfa: sp 0 +
STACK CFI 73814 .cfa: sp 112 +
STACK CFI 73828 .cfa: x29 64 + x19: .cfa -8 + ^ x20: .cfa -16 + ^ x21: .cfa -24 + ^ x22: .cfa -32 + ^ x23: .cfa -48 + ^ .ra: .cfa -56 + ^ x29: .cfa -64 + ^
STACK CFI 73910 .cfa: sp 112 +
STACK CFI 73924 .cfa: sp 0 +
STACK CFI 73928 .cfa: x29 64 +
STACK CFI INIT 73ce0 520 .cfa: sp 0 +
STACK CFI 73ce4 .cfa: sp 144 +
STACK CFI 73d00 .cfa: x29 96 + x19: .cfa -8 + ^ x20: .cfa -16 + ^ x21: .cfa -24 + ^ x22: .cfa -32 + ^ x23: .cfa -40 + ^ x24: .cfa -48 + ^ x25: .cfa -56 + ^ x26: .cfa -64 + ^ x27: .cfa -72 + ^ x28: .cfa -80 + ^ .ra: .cfa -88 + ^ x29: .cfa -96 + ^
STACK CFI 741dc .cfa: sp 144 +
STACK CFI 741f8 .cfa: sp 0 +
STACK CFI 741fc .cfa: x29 96 +
STACK CFI INIT 749f8 20c .cfa: sp 0 +
STACK CFI 749fc .cfa: sp 96 +
STACK CFI 74a10 .cfa: x29 64 + x19: .cfa -8 + ^ x20: .cfa -16 + ^ x21: .cfa -24 + ^ x22: .cfa -32 + ^ x23: .cfa -40 + ^ x24: .cfa -48 + ^ .ra: .cfa -56 + ^ x29: .cfa -64 + ^
STACK CFI 74bbc .cfa: sp 96 +
STACK CFI 74bd0 .cfa: sp 0 +
STACK CFI 74bd4 .cfa: x29 64 +
STACK CFI INIT 74f90 27c .cfa: sp 0 +
STACK CFI 74f94 .cfa: sp 176 +
STACK CFI 74fb0 .cfa: x29 96 + x19: .cfa -8 + ^ x20: .cfa -16 + ^ x21: .cfa -24 + ^ x22: .cfa -32 + ^ x23: .cfa -40 + ^ x24: .cfa -48 + ^ x25: .cfa -56 + ^ x26: .cfa -64 + ^ x27: .cfa -72 + ^ x28: .cfa -80 + ^ .ra: .cfa -88 + ^ x29: .cfa -96 + ^
STACK CFI 751e8 .cfa: sp 176 +
STACK CFI 75204 .cfa: sp 0 +
STACK CFI 75208 .cfa: x29 96 +
STACK CFI INIT 7520c 514 .cfa: sp 0 +
STACK CFI 75210 .cfa: sp 192 +
STACK CFI 7522c .cfa: x29 96 + x19: .cfa -8 + ^ x20: .cfa -16 + ^ x21: .cfa -24 + ^ x22: .cfa -32 + ^ x23: .cfa -40 + ^ x24: .cfa -48 + ^ x25: .cfa -56 + ^ x26: .cfa -64 + ^ x27: .cfa -72 + ^ x28: .cfa -80 + ^ .ra: .cfa -88 + ^ x29: .cfa -96 + ^
STACK CFI 756fc .cfa: sp 192 +
STACK CFI 75718 .cfa: sp 0 +
STACK CFI 7571c .cfa: x29 96 +
STACK CFI INIT 75720 20c .cfa: sp 0 +
STACK CFI 75724 .cfa: sp 80 +
STACK CFI 75738 .cfa: x29 80 + x19: .cfa -8 + ^ x20: .cfa -16 + ^ x21: .cfa -24 + ^ x22: .cfa -32 + ^ x23: .cfa -40 + ^ x24: .cfa -48 + ^ x25: .cfa -64 + ^ .ra: .cfa -72 + ^ x29: .cfa -80 + ^
STACK CFI 757c8 .cfa: sp 80 +
STACK CFI 757dc .cfa: sp 0 +
STACK CFI 757e0 .cfa: x29 80 +
STACK CFI 757ec .cfa: sp 80 +
STACK CFI 75800 .cfa: sp 0 +
STACK CFI 75804 .cfa: x29 80 +
STACK CFI INIT 7592c 428 .cfa: sp 0 +
STACK CFI 75930 .cfa: sp 128 +
STACK CFI 7594c .cfa: x29 96 + x19: .cfa -8 + ^ x20: .cfa -16 + ^ x21: .cfa -24 + ^ x22: .cfa -32 + ^ x23: .cfa -40 + ^ x24: .cfa -48 + ^ x25: .cfa -56 + ^ x26: .cfa -64 + ^ x27: .cfa -72 + ^ x28: .cfa -80 + ^ .ra: .cfa -88 + ^ x29: .cfa -96 + ^
STACK CFI 75d30 .cfa: sp 128 +
STACK CFI 75d4c .cfa: sp 0 +
STACK CFI 75d50 .cfa: x29 96 +
STACK CFI INIT 75d54 194 .cfa: sp 0 +
STACK CFI 75d58 .cfa: sp 32 +
STACK CFI 75d60 .cfa: x29 16 + .ra: .cfa -8 + ^ x29: .cfa -16 + ^
STACK CFI 75da4 .cfa: sp 32 +
STACK CFI 75dac .cfa: sp 0 +
STACK CFI 75db0 .cfa: x29 16 +
STACK CFI INIT 75ee8 1b8 .cfa: sp 0 +
STACK CFI INIT 760a0 690 .cfa: sp 0 +
STACK CFI 760a4 .cfa: sp 176 +
STACK CFI 760c0 .cfa: x29 96 + x19: .cfa -8 + ^ x20: .cfa -16 + ^ x21: .cfa -24 + ^ x22: .cfa -32 + ^ x23: .cfa -40 + ^ x24: .cfa -48 + ^ x25: .cfa -56 + ^ x26: .cfa -64 + ^ x27: .cfa -72 + ^ x28: .cfa -80 + ^ .ra: .cfa -88 + ^ x29: .cfa -96 + ^
STACK CFI 7670c .cfa: sp 176 +
STACK CFI 76728 .cfa: sp 0 +
STACK CFI 7672c .cfa: x29 96 +
STACK CFI INIT 77874 11c .cfa: sp 0 +
STACK CFI 77878 .cfa: sp 64 +
STACK CFI 77888 .cfa: x29 64 + x19: .cfa -8 + ^ x20: .cfa -16 + ^ x21: .cfa -24 + ^ x22: .cfa -32 + ^ x23: .cfa -40 + ^ x24: .cfa -48 + ^ .ra: .cfa -56 + ^ x29: .cfa -64 + ^
STACK CFI 7791c .cfa: sp 64 +
STACK CFI 7792c .cfa: sp 0 +
STACK CFI 77930 .cfa: x29 64 +
STACK CFI 7797c .cfa: sp 64 +
STACK CFI 7798c .cfa: sp 0 +
STACK CFI INIT 77fbc 11c .cfa: sp 0 +
STACK CFI 77fc0 .cfa: sp 64 +
STACK CFI 77fd0 .cfa: x29 64 + x19: .cfa -8 + ^ x20: .cfa -16 + ^ x21: .cfa -24 + ^ x22: .cfa -32 + ^ x23: .cfa -40 + ^ x24: .cfa -48 + ^ .ra: .cfa -56 + ^ x29: .cfa -64 + ^
STACK CFI 78064 .cfa: sp 64 +
STACK CFI 78074 .cfa: sp 0 +
STACK CFI 78078 .cfa: x29 64 +
STACK CFI 780c4 .cfa: sp 64 +
STACK CFI 780d4 .cfa: sp 0 +
STACK CFI INIT 423d4 a1c .cfa: sp 0 +
STACK CFI 423d8 .cfa: sp 176 +
STACK CFI 423ec .cfa: x29 64 + x19: .cfa -8 + ^ x20: .cfa -16 + ^ x21: .cfa -24 + ^ x22: .cfa -32 + ^ x23: .cfa -40 + ^ x24: .cfa -48 + ^ .ra: .cfa -56 + ^ x29: .cfa -64 + ^
STACK CFI 42c30 .cfa: sp 176 +
STACK CFI 42c44 .cfa: sp 0 +
STACK CFI 42c48 .cfa: x29 64 +
STACK CFI INIT 42e04 50 .cfa: sp 0 +
STACK CFI 42e08 .cfa: sp 32 +
STACK CFI 42e10 .cfa: x29 32 + x19: .cfa -8 + ^ x20: .cfa -16 + ^ .ra: .cfa -24 + ^ x29: .cfa -32 + ^
STACK CFI INIT 42e88 174 .cfa: sp 0 +
STACK CFI 42e8c .cfa: sp 112 +
STACK CFI 42e9c .cfa: x29 48 + x19: .cfa -8 + ^ x20: .cfa -16 + ^ x21: .cfa -32 + ^ .ra: .cfa -40 + ^ x29: .cfa -48 + ^
STACK CFI 42f98 .cfa: sp 112 +
STACK CFI 42fa8 .cfa: sp 0 +
STACK CFI 42fac .cfa: x29 48 +
STACK CFI INIT 43260 134 .cfa: sp 0 +
STACK CFI 43264 .cfa: sp 80 +
STACK CFI 43274 .cfa: x29 48 + x19: .cfa -8 + ^ x20: .cfa -16 + ^ x21: .cfa -32 + ^ .ra: .cfa -40 + ^ x29: .cfa -48 + ^
STACK CFI 43314 .cfa: sp 80 +
STACK CFI 43324 .cfa: sp 0 +
STACK CFI 43328 .cfa: x29 48 +
STACK CFI INIT 43ac0 480 .cfa: sp 0 +
STACK CFI 43ac4 .cfa: sp 224 +
STACK CFI 43ae0 .cfa: x29 96 + x19: .cfa -8 + ^ x20: .cfa -16 + ^ x21: .cfa -24 + ^ x22: .cfa -32 + ^ x23: .cfa -40 + ^ x24: .cfa -48 + ^ x25: .cfa -56 + ^ x26: .cfa -64 + ^ x27: .cfa -80 + ^ .ra: .cfa -88 + ^ x29: .cfa -96 + ^
STACK CFI 43d4c .cfa: sp 224 +
STACK CFI 43d68 .cfa: sp 0 +
STACK CFI 43d6c .cfa: x29 96 +
STACK CFI 43e38 .cfa: sp 224 +
STACK CFI 43e54 .cfa: sp 0 +
STACK CFI 43e58 .cfa: x29 96 +
STACK CFI INIT 43f5c 430 .cfa: sp 0 +
STACK CFI 43f60 .cfa: sp 128 +
STACK CFI 43f74 .cfa: x29 64 + x19: .cfa -8 + ^ x20: .cfa -16 + ^ x21: .cfa -24 + ^ x22: .cfa -32 + ^ x23: .cfa -40 + ^ x24: .cfa -48 + ^ .ra: .cfa -56 + ^ x29: .cfa -64 + ^
STACK CFI 4424c .cfa: sp 128 +
STACK CFI 44260 .cfa: sp 0 +
STACK CFI 44264 .cfa: x29 64 +
STACK CFI INIT 443dc 74 .cfa: sp 0 +
STACK CFI 443e0 .cfa: sp 48 +
STACK CFI 443ec .cfa: x29 32 + x19: .cfa -8 + ^ x20: .cfa -16 + ^ .ra: .cfa -24 + ^ x29: .cfa -32 + ^
STACK CFI 44438 .cfa: sp 48 +
STACK CFI 44444 .cfa: sp 0 +
STACK CFI 44448 .cfa: x29 32 +
STACK CFI INIT 444e0 154 .cfa: sp 0 +
STACK CFI 444e4 .cfa: sp 384 +
STACK CFI 444f8 .cfa: x29 64 + x19: .cfa -8 + ^ x20: .cfa -16 + ^ x21: .cfa -24 + ^ x22: .cfa -32 + ^ x23: .cfa -40 + ^ x28: .cfa -48 + ^ .ra: .cfa -56 + ^ x29: .cfa -64 + ^
STACK CFI 445dc .cfa: sp 384 +
STACK CFI 445f0 .cfa: sp 0 +
STACK CFI 445f4 .cfa: x29 64 +
STACK CFI INIT 44668 12c .cfa: sp 0 +
STACK CFI 4466c .cfa: sp 80 +
STACK CFI 44680 .cfa: x29 80 + x19: .cfa -8 + ^ x20: .cfa -16 + ^ x21: .cfa -24 + ^ x22: .cfa -32 + ^ x23: .cfa -40 + ^ x24: .cfa -48 + ^ x25: .cfa -56 + ^ x26: .cfa -64 + ^ .ra: .cfa -72 + ^ x29: .cfa -80 + ^
STACK CFI 44748 .cfa: sp 80 +
STACK CFI 4475c .cfa: sp 0 +
STACK CFI 44760 .cfa: x29 80 +
STACK CFI INIT 44838 1a4 .cfa: sp 0 +
STACK CFI 4483c .cfa: sp 112 +
STACK CFI 44854 .cfa: x29 80 + x19: .cfa -8 + ^ x20: .cfa -16 + ^ x21: .cfa -24 + ^ x22: .cfa -32 + ^ x23: .cfa -40 + ^ x24: .cfa -48 + ^ x25: .cfa -56 + ^ x26: .cfa -64 + ^ .ra: .cfa -72 + ^ x29: .cfa -80 + ^
STACK CFI 44944 .cfa: sp 112 +
STACK CFI 4495c .cfa: sp 0 +
STACK CFI 44960 .cfa: x29 80 +
STACK CFI INIT 449dc 1dc .cfa: sp 0 +
STACK CFI 449e0 .cfa: sp 128 +
STACK CFI 449fc .cfa: x29 96 + x19: .cfa -8 + ^ x20: .cfa -16 + ^ x21: .cfa -24 + ^ x22: .cfa -32 + ^ x23: .cfa -40 + ^ x24: .cfa -48 + ^ x25: .cfa -56 + ^ x26: .cfa -64 + ^ x27: .cfa -80 + ^ .ra: .cfa -88 + ^ x29: .cfa -96 + ^
STACK CFI 44b68 .cfa: sp 128 +
STACK CFI 44b84 .cfa: sp 0 +
STACK CFI 44b88 .cfa: x29 96 +
STACK CFI INIT 44bec 178 .cfa: sp 0 +
STACK CFI 44bf0 .cfa: sp 80 +
STACK CFI 44c04 .cfa: x29 80 + x19: .cfa -8 + ^ x20: .cfa -16 + ^ x21: .cfa -24 + ^ x22: .cfa -32 + ^ x23: .cfa -40 + ^ x24: .cfa -48 + ^ x25: .cfa -64 + ^ .ra: .cfa -72 + ^ x29: .cfa -80 + ^
STACK CFI 44d30 .cfa: sp 80 +
STACK CFI 44d44 .cfa: sp 0 +
STACK CFI 44d48 .cfa: x29 80 +
STACK CFI INIT 44eac 228 .cfa: sp 0 +
STACK CFI 44eb0 .cfa: sp 128 +
STACK CFI 44ec8 .cfa: x29 80 + x19: .cfa -8 + ^ x20: .cfa -16 + ^ x21: .cfa -24 + ^ x22: .cfa -32 + ^ x23: .cfa -40 + ^ x24: .cfa -48 + ^ x25: .cfa -64 + ^ .ra: .cfa -72 + ^ x29: .cfa -80 + ^
STACK CFI 45064 .cfa: sp 128 +
STACK CFI 4507c .cfa: sp 0 +
STACK CFI 45080 .cfa: x29 80 +
STACK CFI INIT 45830 134 .cfa: sp 0 +
STACK CFI 45834 .cfa: sp 128 +
STACK CFI 45848 .cfa: x29 64 + x19: .cfa -8 + ^ x20: .cfa -16 + ^ x21: .cfa -24 + ^ x22: .cfa -32 + ^ x23: .cfa -40 + ^ x24: .cfa -48 + ^ .ra: .cfa -56 + ^ x29: .cfa -64 + ^
STACK CFI 45914 .cfa: sp 128 +
STACK CFI 45928 .cfa: sp 0 +
STACK CFI 4592c .cfa: x29 64 +
STACK CFI INIT 45964 a94 .cfa: sp 0 +
STACK CFI 45968 .cfa: sp 336 +
STACK CFI 45984 .cfa: x29 96 + x19: .cfa -8 + ^ x20: .cfa -16 + ^ x21: .cfa -24 + ^ x22: .cfa -32 + ^ x23: .cfa -40 + ^ x24: .cfa -48 + ^ x25: .cfa -56 + ^ x26: .cfa -64 + ^ x27: .cfa -72 + ^ x28: .cfa -80 + ^ .ra: .cfa -88 + ^ x29: .cfa -96 + ^
STACK CFI 46208 .cfa: sp 336 +
STACK CFI 46224 .cfa: sp 0 +
STACK CFI 46228 .cfa: x29 96 +
STACK CFI INIT 463f8 670 .cfa: sp 0 +
STACK CFI 463fc .cfa: sp 256 +
STACK CFI 46418 .cfa: x29 96 + x19: .cfa -8 + ^ x20: .cfa -16 + ^ x21: .cfa -24 + ^ x22: .cfa -32 + ^ x23: .cfa -40 + ^ x24: .cfa -48 + ^ x25: .cfa -56 + ^ x26: .cfa -64 + ^ x27: .cfa -80 + ^ .ra: .cfa -88 + ^ x29: .cfa -96 + ^
STACK CFI 466cc .cfa: sp 256 +
STACK CFI 466e8 .cfa: sp 0 +
STACK CFI 466ec .cfa: x29 96 +
STACK CFI INIT 46a68 cc .cfa: sp 0 +
STACK CFI 46a6c .cfa: sp 32 +
STACK CFI 46a74 .cfa: x29 32 + x19: .cfa -8 + ^ x20: .cfa -16 + ^ .ra: .cfa -24 + ^ x29: .cfa -32 + ^
STACK CFI 46aac .cfa: sp 32 +
STACK CFI 46ab4 .cfa: sp 0 +
STACK CFI 46ab8 .cfa: x29 32 +
STACK CFI 46abc .cfa: sp 32 +
STACK CFI 46ac4 .cfa: sp 0 +
STACK CFI 46ac8 .cfa: x29 32 +
STACK CFI INIT 46b34 94 .cfa: sp 0 +
STACK CFI 46b38 .cfa: sp 32 +
STACK CFI 46b40 .cfa: x29 32 + x19: .cfa -8 + ^ x20: .cfa -16 + ^ .ra: .cfa -24 + ^ x29: .cfa -32 + ^
STACK CFI 46ba8 .cfa: sp 32 +
STACK CFI 46bb0 .cfa: sp 0 +
STACK CFI 46bb4 .cfa: x29 32 +
STACK CFI INIT 46cd4 50 .cfa: sp 0 +
STACK CFI 46cd8 .cfa: sp 32 +
STACK CFI 46ce0 .cfa: x29 32 + x19: .cfa -8 + ^ x20: .cfa -16 + ^ .ra: .cfa -24 + ^ x29: .cfa -32 + ^
STACK CFI INIT 47320 304 .cfa: sp 0 +
STACK CFI 47324 .cfa: sp 128 +
STACK CFI 47340 .cfa: x29 96 + x19: .cfa -8 + ^ x20: .cfa -16 + ^ x21: .cfa -24 + ^ x22: .cfa -32 + ^ x23: .cfa -40 + ^ x24: .cfa -48 + ^ x25: .cfa -56 + ^ x26: .cfa -64 + ^ x27: .cfa -72 + ^ x28: .cfa -80 + ^ .ra: .cfa -88 + ^ x29: .cfa -96 + ^
STACK CFI 475a4 .cfa: sp 128 +
STACK CFI 475c0 .cfa: sp 0 +
STACK CFI 475c4 .cfa: x29 96 +
STACK CFI INIT 47624 480 .cfa: sp 0 +
STACK CFI 47628 .cfa: sp 224 +
STACK CFI 47644 .cfa: x29 96 + x19: .cfa -8 + ^ x20: .cfa -16 + ^ x21: .cfa -24 + ^ x22: .cfa -32 + ^ x23: .cfa -40 + ^ x24: .cfa -48 + ^ x25: .cfa -56 + ^ x26: .cfa -64 + ^ x27: .cfa -80 + ^ .ra: .cfa -88 + ^ x29: .cfa -96 + ^
STACK CFI 478b0 .cfa: sp 224 +
STACK CFI 478cc .cfa: sp 0 +
STACK CFI 478d0 .cfa: x29 96 +
STACK CFI 4799c .cfa: sp 224 +
STACK CFI 479b8 .cfa: sp 0 +
STACK CFI 479bc .cfa: x29 96 +
STACK CFI INIT 47ac0 308 .cfa: sp 0 +
STACK CFI 47ac4 .cfa: sp 176 +
STACK CFI 47ad8 .cfa: x29 64 + x19: .cfa -8 + ^ x20: .cfa -16 + ^ x21: .cfa -24 + ^ x22: .cfa -32 + ^ x23: .cfa -48 + ^ .ra: .cfa -56 + ^ x29: .cfa -64 + ^
STACK CFI 47cc0 .cfa: sp 176 +
STACK CFI 47cd4 .cfa: sp 0 +
STACK CFI 47cd8 .cfa: x29 64 +
STACK CFI INIT 47dcc 4ac .cfa: sp 0 +
STACK CFI 47dd0 .cfa: sp 208 +
STACK CFI 47dec .cfa: x29 96 + x19: .cfa -8 + ^ x20: .cfa -16 + ^ x21: .cfa -24 + ^ x22: .cfa -32 + ^ x23: .cfa -40 + ^ x24: .cfa -48 + ^ x25: .cfa -56 + ^ x26: .cfa -64 + ^ x27: .cfa -72 + ^ x28: .cfa -80 + ^ .ra: .cfa -88 + ^ x29: .cfa -96 + ^
STACK CFI 481b4 .cfa: sp 208 +
STACK CFI 481d0 .cfa: sp 0 +
STACK CFI 481d4 .cfa: x29 96 +
STACK CFI INIT 48278 cc .cfa: sp 0 +
STACK CFI 4827c .cfa: sp 32 +
STACK CFI 48284 .cfa: x29 32 + x19: .cfa -8 + ^ x20: .cfa -16 + ^ .ra: .cfa -24 + ^ x29: .cfa -32 + ^
STACK CFI 482bc .cfa: sp 32 +
STACK CFI 482c4 .cfa: sp 0 +
STACK CFI 482c8 .cfa: x29 32 +
STACK CFI 482cc .cfa: sp 32 +
STACK CFI 482d4 .cfa: sp 0 +
STACK CFI 482d8 .cfa: x29 32 +
STACK CFI INIT 483f8 454 .cfa: sp 0 +
STACK CFI 483fc .cfa: sp 80 +
STACK CFI 48410 .cfa: x29 80 + x19: .cfa -8 + ^ x20: .cfa -16 + ^ x21: .cfa -24 + ^ x22: .cfa -32 + ^ x23: .cfa -40 + ^ x24: .cfa -48 + ^ x28: .cfa -64 + ^ .ra: .cfa -72 + ^ x29: .cfa -80 + ^
STACK CFI 48784 .cfa: sp 80 +
STACK CFI 48798 .cfa: sp 0 +
STACK CFI 4879c .cfa: x29 80 +
STACK CFI INIT 4884c 1e4 .cfa: sp 0 +
STACK CFI 48850 .cfa: sp 160 +
STACK CFI 48860 .cfa: x29 48 + x19: .cfa -8 + ^ x20: .cfa -16 + ^ x21: .cfa -24 + ^ x22: .cfa -32 + ^ .ra: .cfa -40 + ^ x29: .cfa -48 + ^
STACK CFI 489c0 .cfa: sp 160 +
STACK CFI 489d0 .cfa: sp 0 +
STACK CFI 489d4 .cfa: x29 48 +
STACK CFI INIT 48a30 74 .cfa: sp 0 +
STACK CFI 48a34 .cfa: sp 48 +
STACK CFI 48a40 .cfa: x29 32 + x19: .cfa -8 + ^ x20: .cfa -16 + ^ .ra: .cfa -24 + ^ x29: .cfa -32 + ^
STACK CFI 48a8c .cfa: sp 48 +
STACK CFI 48a98 .cfa: sp 0 +
STACK CFI 48a9c .cfa: x29 32 +
STACK CFI INIT 48aa4 74 .cfa: sp 0 +
STACK CFI 48aa8 .cfa: sp 48 +
STACK CFI 48ab4 .cfa: x29 32 + x19: .cfa -8 + ^ x20: .cfa -16 + ^ .ra: .cfa -24 + ^ x29: .cfa -32 + ^
STACK CFI 48b00 .cfa: sp 48 +
STACK CFI 48b0c .cfa: sp 0 +
STACK CFI 48b10 .cfa: x29 32 +
STACK CFI INIT 48b18 334 .cfa: sp 0 +
STACK CFI 48b1c .cfa: sp 176 +
STACK CFI 48b34 .cfa: x29 80 + x19: .cfa -8 + ^ x20: .cfa -16 + ^ x21: .cfa -24 + ^ x22: .cfa -32 + ^ x23: .cfa -40 + ^ x24: .cfa -48 + ^ x25: .cfa -56 + ^ x26: .cfa -64 + ^ .ra: .cfa -72 + ^ x29: .cfa -80 + ^
STACK CFI 48d5c .cfa: sp 176 +
STACK CFI 48d74 .cfa: sp 0 +
STACK CFI 48d78 .cfa: x29 80 +
STACK CFI INIT 48f60 74 .cfa: sp 0 +
STACK CFI 48f64 .cfa: sp 48 +
STACK CFI 48f70 .cfa: x29 32 + x19: .cfa -8 + ^ x20: .cfa -16 + ^ .ra: .cfa -24 + ^ x29: .cfa -32 + ^
STACK CFI 48fbc .cfa: sp 48 +
STACK CFI 48fc8 .cfa: sp 0 +
STACK CFI 48fcc .cfa: x29 32 +
STACK CFI INIT 48fd4 168 .cfa: sp 0 +
STACK CFI 48fd8 .cfa: sp 384 +
STACK CFI 48fec .cfa: x29 64 + x19: .cfa -8 + ^ x20: .cfa -16 + ^ x21: .cfa -24 + ^ x22: .cfa -32 + ^ x23: .cfa -40 + ^ x28: .cfa -48 + ^ .ra: .cfa -56 + ^ x29: .cfa -64 + ^
STACK CFI 490e4 .cfa: sp 384 +
STACK CFI 490f8 .cfa: sp 0 +
STACK CFI 490fc .cfa: x29 64 +
STACK CFI INIT 492e4 16c .cfa: sp 0 +
STACK CFI 492e8 .cfa: sp 144 +
STACK CFI 492fc .cfa: x29 64 + x19: .cfa -8 + ^ x20: .cfa -16 + ^ x21: .cfa -24 + ^ x22: .cfa -32 + ^ x23: .cfa -40 + ^ x24: .cfa -48 + ^ .ra: .cfa -56 + ^ x29: .cfa -64 + ^
STACK CFI 493e4 .cfa: sp 144 +
STACK CFI 493f8 .cfa: sp 0 +
STACK CFI 493fc .cfa: x29 64 +
STACK CFI INIT 49624 184 .cfa: sp 0 +
STACK CFI 49628 .cfa: sp 128 +
STACK CFI 49634 .cfa: x29 32 + x19: .cfa -8 + ^ x20: .cfa -16 + ^ .ra: .cfa -24 + ^ x29: .cfa -32 + ^
STACK CFI 49720 .cfa: sp 128 +
STACK CFI 4972c .cfa: sp 0 +
STACK CFI 49730 .cfa: x29 32 +
STACK CFI INIT 49878 174 .cfa: sp 0 +
STACK CFI 4987c .cfa: sp 80 +
STACK CFI 4988c .cfa: x29 48 + x19: .cfa -8 + ^ x20: .cfa -16 + ^ x21: .cfa -32 + ^ .ra: .cfa -40 + ^ x29: .cfa -48 + ^
STACK CFI 499b0 .cfa: sp 80 +
STACK CFI 499c0 .cfa: sp 0 +
STACK CFI 499c4 .cfa: x29 48 +
STACK CFI INIT 499ec 6c .cfa: sp 0 +
STACK CFI 499f0 .cfa: sp 32 +
STACK CFI 499f8 .cfa: x29 32 + x19: .cfa -16 + ^ .ra: .cfa -24 + ^ x29: .cfa -32 + ^
STACK CFI 49a48 .cfa: sp 32 +
STACK CFI 49a50 .cfa: sp 0 +
STACK CFI 49a54 .cfa: x29 32 +
STACK CFI INIT 49a58 74 .cfa: sp 0 +
STACK CFI 49a5c .cfa: sp 32 +
STACK CFI 49a64 .cfa: x29 32 + x19: .cfa -16 + ^ .ra: .cfa -24 + ^ x29: .cfa -32 + ^
STACK CFI 49abc .cfa: sp 32 +
STACK CFI 49ac4 .cfa: sp 0 +
STACK CFI 49ac8 .cfa: x29 32 +
STACK CFI INIT 49b2c 5f8 .cfa: sp 0 +
STACK CFI 49b30 .cfa: sp 176 +
STACK CFI 49b50 .cfa: x29 96 + x19: .cfa -8 + ^ x20: .cfa -16 + ^ x21: .cfa -24 + ^ x22: .cfa -32 + ^ x23: .cfa -40 + ^ x24: .cfa -48 + ^ x25: .cfa -56 + ^ x26: .cfa -64 + ^ x27: .cfa -72 + ^ x28: .cfa -80 + ^ .ra: .cfa -88 + ^ x29: .cfa -96 + ^ v8: .cfa -104 + ^ v9: .cfa -112 + ^
STACK CFI 4a084 .cfa: sp 176 +
STACK CFI 4a0a4 .cfa: sp 0 +
STACK CFI 4a0a8 .cfa: x29 96 +
STACK CFI INIT 4a124 190 .cfa: sp 0 +
STACK CFI 4a128 .cfa: sp 128 +
STACK CFI 4a134 .cfa: x29 32 + x19: .cfa -8 + ^ x20: .cfa -16 + ^ .ra: .cfa -24 + ^ x29: .cfa -32 + ^
STACK CFI 4a22c .cfa: sp 128 +
STACK CFI 4a238 .cfa: sp 0 +
STACK CFI 4a23c .cfa: x29 32 +
STACK CFI INIT 4a2b4 6c .cfa: sp 0 +
STACK CFI 4a2b8 .cfa: sp 32 +
STACK CFI 4a2c0 .cfa: x29 32 + x19: .cfa -16 + ^ .ra: .cfa -24 + ^ x29: .cfa -32 + ^
STACK CFI 4a310 .cfa: sp 32 +
STACK CFI 4a318 .cfa: sp 0 +
STACK CFI 4a31c .cfa: x29 32 +
STACK CFI INIT 4a320 74 .cfa: sp 0 +
STACK CFI 4a324 .cfa: sp 32 +
STACK CFI 4a32c .cfa: x29 32 + x19: .cfa -16 + ^ .ra: .cfa -24 + ^ x29: .cfa -32 + ^
STACK CFI 4a384 .cfa: sp 32 +
STACK CFI 4a38c .cfa: sp 0 +
STACK CFI 4a390 .cfa: x29 32 +
STACK CFI INIT 4a3d0 148 .cfa: sp 0 +
STACK CFI 4a3d4 .cfa: sp 96 +
STACK CFI 4a3e4 .cfa: x29 48 + x19: .cfa -8 + ^ x20: .cfa -16 + ^ x21: .cfa -32 + ^ .ra: .cfa -40 + ^ x29: .cfa -48 + ^
STACK CFI 4a4cc .cfa: sp 96 +
STACK CFI 4a4dc .cfa: sp 0 +
STACK CFI 4a4e0 .cfa: x29 48 +
STACK CFI INIT 4a518 6c .cfa: sp 0 +
STACK CFI 4a51c .cfa: sp 32 +
STACK CFI 4a524 .cfa: x29 32 + x19: .cfa -16 + ^ .ra: .cfa -24 + ^ x29: .cfa -32 + ^
STACK CFI 4a574 .cfa: sp 32 +
STACK CFI 4a57c .cfa: sp 0 +
STACK CFI 4a580 .cfa: x29 32 +
STACK CFI INIT 4a7ec 578 .cfa: sp 0 +
STACK CFI 4a7f0 .cfa: sp 224 +
STACK CFI 4a80c .cfa: x29 80 + x19: .cfa -8 + ^ x20: .cfa -16 + ^ x21: .cfa -24 + ^ x22: .cfa -32 + ^ x23: .cfa -40 + ^ x24: .cfa -48 + ^ x25: .cfa -64 + ^ .ra: .cfa -72 + ^ x29: .cfa -80 + ^ v8: .cfa -88 + ^ v9: .cfa -96 + ^
STACK CFI 4acb4 .cfa: sp 224 +
STACK CFI 4acd0 .cfa: sp 0 +
STACK CFI 4acd4 .cfa: x29 80 +
STACK CFI INIT 4ade8 360 .cfa: sp 0 +
STACK CFI 4adec .cfa: sp 224 +
STACK CFI 4adfc .cfa: x29 48 + x19: .cfa -8 + ^ x20: .cfa -16 + ^ x21: .cfa -24 + ^ x22: .cfa -32 + ^ .ra: .cfa -40 + ^ x29: .cfa -48 + ^
STACK CFI 4b060 .cfa: sp 224 +
STACK CFI 4b070 .cfa: sp 0 +
STACK CFI 4b074 .cfa: x29 48 +
STACK CFI INIT 4b148 17c .cfa: sp 0 +
STACK CFI 4b14c .cfa: sp 128 +
STACK CFI 4b158 .cfa: x29 32 + x19: .cfa -8 + ^ x20: .cfa -16 + ^ .ra: .cfa -24 + ^ x29: .cfa -32 + ^
STACK CFI 4b23c .cfa: sp 128 +
STACK CFI 4b248 .cfa: sp 0 +
STACK CFI 4b24c .cfa: x29 32 +
STACK CFI INIT 4b2c4 17c .cfa: sp 0 +
STACK CFI 4b2c8 .cfa: sp 128 +
STACK CFI 4b2d4 .cfa: x29 32 + x19: .cfa -8 + ^ x20: .cfa -16 + ^ .ra: .cfa -24 + ^ x29: .cfa -32 + ^
STACK CFI 4b3b8 .cfa: sp 128 +
STACK CFI 4b3c4 .cfa: sp 0 +
STACK CFI 4b3c8 .cfa: x29 32 +
STACK CFI INIT 4b440 18c .cfa: sp 0 +
STACK CFI 4b444 .cfa: sp 128 +
STACK CFI 4b450 .cfa: x29 32 + x19: .cfa -8 + ^ x20: .cfa -16 + ^ .ra: .cfa -24 + ^ x29: .cfa -32 + ^
STACK CFI 4b544 .cfa: sp 128 +
STACK CFI 4b550 .cfa: sp 0 +
STACK CFI 4b554 .cfa: x29 32 +
STACK CFI INIT 4b5cc 158 .cfa: sp 0 +
STACK CFI 4b5d0 .cfa: sp 144 +
STACK CFI 4b5e4 .cfa: x29 64 + x19: .cfa -8 + ^ x20: .cfa -16 + ^ x21: .cfa -24 + ^ x22: .cfa -32 + ^ x23: .cfa -40 + ^ x24: .cfa -48 + ^ .ra: .cfa -56 + ^ x29: .cfa -64 + ^
STACK CFI 4b6b8 .cfa: sp 144 +
STACK CFI 4b6cc .cfa: sp 0 +
STACK CFI 4b6d0 .cfa: x29 64 +
STACK CFI INIT 4b7b0 510 .cfa: sp 0 +
STACK CFI 4b7b4 .cfa: sp 224 +
STACK CFI 4b7cc .cfa: x29 80 + x19: .cfa -8 + ^ x20: .cfa -16 + ^ x21: .cfa -24 + ^ x22: .cfa -32 + ^ x23: .cfa -40 + ^ x24: .cfa -48 + ^ x25: .cfa -56 + ^ x26: .cfa -64 + ^ .ra: .cfa -72 + ^ x29: .cfa -80 + ^
STACK CFI 4bc14 .cfa: sp 224 +
STACK CFI 4bc2c .cfa: sp 0 +
STACK CFI 4bc30 .cfa: x29 80 +
STACK CFI INIT 4c0ac fc .cfa: sp 0 +
STACK CFI 4c0b0 .cfa: sp 112 +
STACK CFI 4c0c8 .cfa: x29 80 + x19: .cfa -8 + ^ x20: .cfa -16 + ^ x21: .cfa -24 + ^ x22: .cfa -32 + ^ x23: .cfa -40 + ^ x24: .cfa -48 + ^ x25: .cfa -64 + ^ .ra: .cfa -72 + ^ x29: .cfa -80 + ^
STACK CFI 4c154 .cfa: sp 112 +
STACK CFI 4c16c .cfa: sp 0 +
STACK CFI 4c170 .cfa: x29 80 +
STACK CFI INIT 4c318 14c .cfa: sp 0 +
STACK CFI 4c31c .cfa: sp 112 +
STACK CFI 4c32c .cfa: x29 48 + x19: .cfa -8 + ^ x20: .cfa -16 + ^ x21: .cfa -32 + ^ .ra: .cfa -40 + ^ x29: .cfa -48 + ^
STACK CFI 4c418 .cfa: sp 112 +
STACK CFI 4c428 .cfa: sp 0 +
STACK CFI 4c42c .cfa: x29 48 +
STACK CFI INIT 4c544 130 .cfa: sp 0 +
STACK CFI 4c548 .cfa: sp 112 +
STACK CFI 4c55c .cfa: x29 64 + x19: .cfa -8 + ^ x20: .cfa -16 + ^ x21: .cfa -24 + ^ x22: .cfa -32 + ^ x23: .cfa -48 + ^ .ra: .cfa -56 + ^ x29: .cfa -64 + ^
STACK CFI 4c61c .cfa: sp 112 +
STACK CFI 4c630 .cfa: sp 0 +
STACK CFI 4c634 .cfa: x29 64 +
STACK CFI INIT 4c898 68c .cfa: sp 0 +
STACK CFI 4c89c .cfa: sp 256 +
STACK CFI 4c8b4 .cfa: x29 80 + x19: .cfa -8 + ^ x20: .cfa -16 + ^ x21: .cfa -24 + ^ x22: .cfa -32 + ^ x23: .cfa -40 + ^ x24: .cfa -48 + ^ x25: .cfa -56 + ^ x26: .cfa -64 + ^ .ra: .cfa -72 + ^ x29: .cfa -80 + ^
STACK CFI 4ce00 .cfa: sp 256 +
STACK CFI 4ce18 .cfa: sp 0 +
STACK CFI 4ce1c .cfa: x29 80 +
STACK CFI INIT 4cfb0 214 .cfa: sp 0 +
STACK CFI 4cfb4 .cfa: sp 112 +
STACK CFI 4cfc4 .cfa: x29 48 + x19: .cfa -8 + ^ x20: .cfa -16 + ^ x21: .cfa -24 + ^ x22: .cfa -32 + ^ .ra: .cfa -40 + ^ x29: .cfa -48 + ^
STACK CFI 4d178 .cfa: sp 112 +
STACK CFI 4d188 .cfa: sp 0 +
STACK CFI 4d18c .cfa: x29 48 +
STACK CFI INIT 4d554 1b0 .cfa: sp 0 +
STACK CFI 4d558 .cfa: sp 144 +
STACK CFI 4d56c .cfa: x29 64 + x19: .cfa -8 + ^ x20: .cfa -16 + ^ x21: .cfa -24 + ^ x22: .cfa -32 + ^ x23: .cfa -40 + ^ x24: .cfa -48 + ^ .ra: .cfa -56 + ^ x29: .cfa -64 + ^
STACK CFI 4d6a0 .cfa: sp 144 +
STACK CFI 4d6b4 .cfa: sp 0 +
STACK CFI 4d6b8 .cfa: x29 64 +
STACK CFI INIT 4d704 62c .cfa: sp 0 +
STACK CFI 4d708 .cfa: sp 160 +
STACK CFI 4d724 .cfa: x29 80 + x19: .cfa -8 + ^ x20: .cfa -16 + ^ x21: .cfa -24 + ^ x22: .cfa -32 + ^ x23: .cfa -40 + ^ x24: .cfa -48 + ^ x25: .cfa -64 + ^ .ra: .cfa -72 + ^ x29: .cfa -80 + ^ v8: .cfa -88 + ^ v9: .cfa -96 + ^
STACK CFI 4dcd4 .cfa: sp 160 +
STACK CFI 4dcf0 .cfa: sp 0 +
STACK CFI 4dcf4 .cfa: x29 80 +
STACK CFI INIT 4dd98 170 .cfa: sp 0 +
STACK CFI 4dd9c .cfa: sp 128 +
STACK CFI 4dda8 .cfa: x29 32 + x19: .cfa -8 + ^ x20: .cfa -16 + ^ .ra: .cfa -24 + ^ x29: .cfa -32 + ^
STACK CFI 4de80 .cfa: sp 128 +
STACK CFI 4de8c .cfa: sp 0 +
STACK CFI 4de90 .cfa: x29 32 +
STACK CFI INIT 4df54 17c .cfa: sp 0 +
STACK CFI 4df58 .cfa: sp 80 +
STACK CFI 4df68 .cfa: x29 48 + x19: .cfa -8 + ^ x20: .cfa -16 + ^ x21: .cfa -24 + ^ x22: .cfa -32 + ^ .ra: .cfa -40 + ^ x29: .cfa -48 + ^
STACK CFI 4e094 .cfa: sp 80 +
STACK CFI 4e0a4 .cfa: sp 0 +
STACK CFI 4e0a8 .cfa: x29 48 +
STACK CFI INIT 4e0d0 9c .cfa: sp 0 +
STACK CFI 4e0d4 .cfa: sp 32 +
STACK CFI 4e0dc .cfa: x29 32 + x19: .cfa -8 + ^ x20: .cfa -16 + ^ .ra: .cfa -24 + ^ x29: .cfa -32 + ^
STACK CFI 4e114 .cfa: sp 32 +
STACK CFI 4e11c .cfa: sp 0 +
STACK CFI 4e120 .cfa: x29 32 +
STACK CFI 4e144 .cfa: sp 32 +
STACK CFI 4e14c .cfa: sp 0 +
STACK CFI 4e150 .cfa: x29 32 +
STACK CFI INIT 4e244 6c .cfa: sp 0 +
STACK CFI 4e248 .cfa: sp 32 +
STACK CFI 4e250 .cfa: x29 32 + x19: .cfa -16 + ^ .ra: .cfa -24 + ^ x29: .cfa -32 + ^
STACK CFI 4e2a0 .cfa: sp 32 +
STACK CFI 4e2a8 .cfa: sp 0 +
STACK CFI 4e2ac .cfa: x29 32 +
STACK CFI INIT 4e2b0 74 .cfa: sp 0 +
STACK CFI 4e2b4 .cfa: sp 32 +
STACK CFI 4e2bc .cfa: x29 32 + x19: .cfa -16 + ^ .ra: .cfa -24 + ^ x29: .cfa -32 + ^
STACK CFI 4e314 .cfa: sp 32 +
STACK CFI 4e31c .cfa: sp 0 +
STACK CFI 4e320 .cfa: x29 32 +
STACK CFI INIT 4e378 9bc .cfa: sp 0 +
STACK CFI 4e37c .cfa: sp 224 +
STACK CFI 4e394 .cfa: x29 80 + x19: .cfa -8 + ^ x20: .cfa -16 + ^ x21: .cfa -24 + ^ x22: .cfa -32 + ^ x23: .cfa -40 + ^ x24: .cfa -48 + ^ x25: .cfa -64 + ^ .ra: .cfa -72 + ^ x29: .cfa -80 + ^
STACK CFI 4ebe0 .cfa: sp 224 +
STACK CFI 4ebf8 .cfa: sp 0 +
STACK CFI 4ebfc .cfa: x29 80 +
STACK CFI INIT 4ed34 5d4 .cfa: sp 0 +
STACK CFI 4ed38 .cfa: sp 336 +
STACK CFI 4ed4c .cfa: x29 64 + x19: .cfa -8 + ^ x20: .cfa -16 + ^ x21: .cfa -24 + ^ x22: .cfa -32 + ^ x28: .cfa -48 + ^ .ra: .cfa -56 + ^ x29: .cfa -64 + ^
STACK CFI 4f194 .cfa: sp 336 +
STACK CFI 4f1a8 .cfa: sp 0 +
STACK CFI 4f1ac .cfa: x29 64 +
STACK CFI INIT 4f308 6c .cfa: sp 0 +
STACK CFI 4f30c .cfa: sp 32 +
STACK CFI 4f314 .cfa: x29 32 + x19: .cfa -16 + ^ .ra: .cfa -24 + ^ x29: .cfa -32 + ^
STACK CFI 4f364 .cfa: sp 32 +
STACK CFI 4f36c .cfa: sp 0 +
STACK CFI 4f370 .cfa: x29 32 +
STACK CFI INIT 4f374 74 .cfa: sp 0 +
STACK CFI 4f378 .cfa: sp 32 +
STACK CFI 4f380 .cfa: x29 32 + x19: .cfa -16 + ^ .ra: .cfa -24 + ^ x29: .cfa -32 + ^
STACK CFI 4f3d8 .cfa: sp 32 +
STACK CFI 4f3e0 .cfa: sp 0 +
STACK CFI 4f3e4 .cfa: x29 32 +
STACK CFI INIT 4f418 148 .cfa: sp 0 +
STACK CFI 4f41c .cfa: sp 96 +
STACK CFI 4f42c .cfa: x29 48 + x19: .cfa -8 + ^ x20: .cfa -16 + ^ x21: .cfa -32 + ^ .ra: .cfa -40 + ^ x29: .cfa -48 + ^
STACK CFI 4f514 .cfa: sp 96 +
STACK CFI 4f524 .cfa: sp 0 +
STACK CFI 4f528 .cfa: x29 48 +
STACK CFI INIT 4f560 6c .cfa: sp 0 +
STACK CFI 4f564 .cfa: sp 32 +
STACK CFI 4f56c .cfa: x29 32 + x19: .cfa -16 + ^ .ra: .cfa -24 + ^ x29: .cfa -32 + ^
STACK CFI 4f5bc .cfa: sp 32 +
STACK CFI 4f5c4 .cfa: sp 0 +
STACK CFI 4f5c8 .cfa: x29 32 +
STACK CFI INIT 4f834 71c .cfa: sp 0 +
STACK CFI 4f838 .cfa: sp 256 +
STACK CFI 4f854 .cfa: x29 96 + x19: .cfa -8 + ^ x20: .cfa -16 + ^ x21: .cfa -24 + ^ x22: .cfa -32 + ^ x23: .cfa -40 + ^ x24: .cfa -48 + ^ x25: .cfa -56 + ^ x26: .cfa -64 + ^ x27: .cfa -72 + ^ x28: .cfa -80 + ^ .ra: .cfa -88 + ^ x29: .cfa -96 + ^
STACK CFI 4fb28 .cfa: sp 256 +
STACK CFI 4fb44 .cfa: sp 0 +
STACK CFI 4fb48 .cfa: x29 96 +
STACK CFI INIT 4ff50 274 .cfa: sp 0 +
STACK CFI 4ff54 .cfa: sp 192 +
STACK CFI 4ff6c .cfa: x29 80 + x19: .cfa -8 + ^ x20: .cfa -16 + ^ x21: .cfa -24 + ^ x22: .cfa -32 + ^ x23: .cfa -40 + ^ x24: .cfa -48 + ^ x25: .cfa -64 + ^ .ra: .cfa -72 + ^ x29: .cfa -80 + ^
STACK CFI 50120 .cfa: sp 192 +
STACK CFI 50138 .cfa: sp 0 +
STACK CFI 5013c .cfa: x29 80 +
STACK CFI INIT 501c4 fc .cfa: sp 0 +
STACK CFI 501c8 .cfa: sp 112 +
STACK CFI 501e0 .cfa: x29 80 + x19: .cfa -8 + ^ x20: .cfa -16 + ^ x21: .cfa -24 + ^ x22: .cfa -32 + ^ x23: .cfa -40 + ^ x24: .cfa -48 + ^ x25: .cfa -64 + ^ .ra: .cfa -72 + ^ x29: .cfa -80 + ^
STACK CFI 5026c .cfa: sp 112 +
STACK CFI 50284 .cfa: sp 0 +
STACK CFI 50288 .cfa: x29 80 +
STACK CFI INIT 50364 74 .cfa: sp 0 +
STACK CFI 50368 .cfa: sp 48 +
STACK CFI 50374 .cfa: x29 32 + x19: .cfa -8 + ^ x20: .cfa -16 + ^ .ra: .cfa -24 + ^ x29: .cfa -32 + ^
STACK CFI 503c0 .cfa: sp 48 +
STACK CFI 503cc .cfa: sp 0 +
STACK CFI 503d0 .cfa: x29 32 +
STACK CFI INIT 503d8 434 .cfa: sp 0 +
STACK CFI 503dc .cfa: sp 240 +
STACK CFI 503f8 .cfa: x29 96 + x19: .cfa -8 + ^ x20: .cfa -16 + ^ x21: .cfa -24 + ^ x22: .cfa -32 + ^ x23: .cfa -40 + ^ x24: .cfa -48 + ^ x25: .cfa -56 + ^ x26: .cfa -64 + ^ x27: .cfa -72 + ^ x28: .cfa -80 + ^ .ra: .cfa -88 + ^ x29: .cfa -96 + ^
STACK CFI 506f0 .cfa: sp 240 +
STACK CFI 5070c .cfa: sp 0 +
STACK CFI 50710 .cfa: x29 96 +
STACK CFI INIT 50950 74 .cfa: sp 0 +
STACK CFI 50954 .cfa: sp 48 +
STACK CFI 50960 .cfa: x29 32 + x19: .cfa -8 + ^ x20: .cfa -16 + ^ .ra: .cfa -24 + ^ x29: .cfa -32 + ^
STACK CFI 509ac .cfa: sp 48 +
STACK CFI 509b8 .cfa: sp 0 +
STACK CFI 509bc .cfa: x29 32 +
STACK CFI INIT 509d8 208 .cfa: sp 0 +
STACK CFI 509dc .cfa: sp 208 +
STACK CFI 509f0 .cfa: x29 64 + x19: .cfa -8 + ^ x20: .cfa -16 + ^ x21: .cfa -24 + ^ x22: .cfa -32 + ^ x23: .cfa -48 + ^ .ra: .cfa -56 + ^ x29: .cfa -64 + ^
STACK CFI 50b8c .cfa: sp 208 +
STACK CFI 50ba0 .cfa: sp 0 +
STACK CFI 50ba4 .cfa: x29 64 +
STACK CFI INIT 50e98 124 .cfa: sp 0 +
STACK CFI 50e9c .cfa: sp 112 +
STACK CFI 50eac .cfa: x29 48 + x19: .cfa -8 + ^ x20: .cfa -16 + ^ x21: .cfa -24 + ^ x22: .cfa -32 + ^ .ra: .cfa -40 + ^ x29: .cfa -48 + ^
STACK CFI 50f68 .cfa: sp 112 +
STACK CFI 50f78 .cfa: sp 0 +
STACK CFI 50f7c .cfa: x29 48 +
STACK CFI INIT 51284 1c8 .cfa: sp 0 +
STACK CFI 51288 .cfa: sp 144 +
STACK CFI 5129c .cfa: x29 64 + x19: .cfa -8 + ^ x20: .cfa -16 + ^ x21: .cfa -24 + ^ x22: .cfa -32 + ^ x23: .cfa -48 + ^ .ra: .cfa -56 + ^ x29: .cfa -64 + ^
STACK CFI 513e8 .cfa: sp 144 +
STACK CFI 513fc .cfa: sp 0 +
STACK CFI 51400 .cfa: x29 64 +
STACK CFI INIT 514a0 120 .cfa: sp 0 +
STACK CFI 514a4 .cfa: sp 128 +
STACK CFI 514b4 .cfa: x29 48 + x19: .cfa -8 + ^ x20: .cfa -16 + ^ x21: .cfa -24 + ^ x22: .cfa -32 + ^ .ra: .cfa -40 + ^ x29: .cfa -48 + ^
STACK CFI 51574 .cfa: sp 128 +
STACK CFI 51584 .cfa: sp 0 +
STACK CFI 51588 .cfa: x29 48 +
STACK CFI INIT 515c0 1b4 .cfa: sp 0 +
STACK CFI 515c4 .cfa: sp 128 +
STACK CFI 515d8 .cfa: x29 64 + x19: .cfa -8 + ^ x20: .cfa -16 + ^ x21: .cfa -24 + ^ x22: .cfa -32 + ^ x23: .cfa -48 + ^ .ra: .cfa -56 + ^ x29: .cfa -64 + ^
STACK CFI 51718 .cfa: sp 128 +
STACK CFI 5172c .cfa: sp 0 +
STACK CFI 51730 .cfa: x29 64 +
STACK CFI INIT 51774 18c .cfa: sp 0 +
STACK CFI 51778 .cfa: sp 112 +
STACK CFI 51790 .cfa: x29 80 + x19: .cfa -8 + ^ x20: .cfa -16 + ^ x21: .cfa -24 + ^ x22: .cfa -32 + ^ x23: .cfa -40 + ^ x24: .cfa -48 + ^ x25: .cfa -64 + ^ .ra: .cfa -72 + ^ x29: .cfa -80 + ^
STACK CFI 51864 .cfa: sp 112 +
STACK CFI 5187c .cfa: sp 0 +
STACK CFI 51880 .cfa: x29 80 +
STACK CFI INIT 51900 18c .cfa: sp 0 +
STACK CFI 51904 .cfa: sp 112 +
STACK CFI 5191c .cfa: x29 80 + x19: .cfa -8 + ^ x20: .cfa -16 + ^ x21: .cfa -24 + ^ x22: .cfa -32 + ^ x23: .cfa -40 + ^ x24: .cfa -48 + ^ x25: .cfa -64 + ^ .ra: .cfa -72 + ^ x29: .cfa -80 + ^
STACK CFI 519f0 .cfa: sp 112 +
STACK CFI 51a08 .cfa: sp 0 +
STACK CFI 51a0c .cfa: x29 80 +
STACK CFI INIT 51ac8 1a4 .cfa: sp 0 +
STACK CFI 51acc .cfa: sp 112 +
STACK CFI 51ae0 .cfa: x29 64 + x19: .cfa -8 + ^ x20: .cfa -16 + ^ x21: .cfa -24 + ^ x22: .cfa -32 + ^ x23: .cfa -40 + ^ x24: .cfa -48 + ^ .ra: .cfa -56 + ^ x29: .cfa -64 + ^
STACK CFI 51bec .cfa: sp 112 +
STACK CFI 51c00 .cfa: sp 0 +
STACK CFI 51c04 .cfa: x29 64 +
STACK CFI INIT 5217c 354 .cfa: sp 0 +
STACK CFI 52180 .cfa: sp 144 +
STACK CFI 52198 .cfa: x29 80 + x19: .cfa -8 + ^ x20: .cfa -16 + ^ x21: .cfa -24 + ^ x22: .cfa -32 + ^ x23: .cfa -40 + ^ x24: .cfa -48 + ^ x25: .cfa -64 + ^ .ra: .cfa -72 + ^ x29: .cfa -80 + ^
STACK CFI 5248c .cfa: sp 144 +
STACK CFI 524a4 .cfa: sp 0 +
STACK CFI 524a8 .cfa: x29 80 +
STACK CFI INIT 52670 a98 .cfa: sp 0 +
STACK CFI 52674 .cfa: sp 240 +
STACK CFI 52690 .cfa: x29 72 + x19: .cfa -8 + ^ x20: .cfa -16 + ^ x21: .cfa -24 + ^ x22: .cfa -32 + ^ x23: .cfa -40 + ^ x24: .cfa -48 + ^ x25: .cfa -56 + ^ .ra: .cfa -64 + ^ x29: .cfa -72 + ^ v8: .cfa -80 + ^
STACK CFI 5302c .cfa: sp 240 +
STACK CFI 53048 .cfa: sp 0 +
STACK CFI 5304c .cfa: x29 72 +
STACK CFI INIT 53108 350 .cfa: sp 0 +
STACK CFI 5310c .cfa: sp 224 +
STACK CFI 53120 .cfa: x29 64 + x19: .cfa -8 + ^ x20: .cfa -16 + ^ x21: .cfa -24 + ^ x22: .cfa -32 + ^ x23: .cfa -48 + ^ .ra: .cfa -56 + ^ x29: .cfa -64 + ^
STACK CFI 5338c .cfa: sp 224 +
STACK CFI 533a0 .cfa: sp 0 +
STACK CFI 533a4 .cfa: x29 64 +
STACK CFI INIT 53458 30c .cfa: sp 0 +
STACK CFI 5345c .cfa: sp 192 +
STACK CFI 53470 .cfa: x29 64 + x19: .cfa -8 + ^ x20: .cfa -16 + ^ x21: .cfa -24 + ^ x22: .cfa -32 + ^ x23: .cfa -48 + ^ .ra: .cfa -56 + ^ x29: .cfa -64 + ^
STACK CFI 536b4 .cfa: sp 192 +
STACK CFI 536c8 .cfa: sp 0 +
STACK CFI 536cc .cfa: x29 64 +
STACK CFI INIT 53764 2a4 .cfa: sp 0 +
STACK CFI 53768 .cfa: sp 208 +
STACK CFI 5377c .cfa: x29 64 + x19: .cfa -8 + ^ x20: .cfa -16 + ^ x21: .cfa -24 + ^ x22: .cfa -32 + ^ x23: .cfa -40 + ^ x24: .cfa -48 + ^ .ra: .cfa -56 + ^ x29: .cfa -64 + ^
STACK CFI 5396c .cfa: sp 208 +
STACK CFI 53980 .cfa: sp 0 +
STACK CFI 53984 .cfa: x29 64 +
STACK CFI INIT 53a08 800 .cfa: sp 0 +
STACK CFI 53a0c .cfa: sp 336 +
STACK CFI 53a2c .cfa: x29 96 + x19: .cfa -8 + ^ x20: .cfa -16 + ^ x21: .cfa -24 + ^ x22: .cfa -32 + ^ x23: .cfa -40 + ^ x24: .cfa -48 + ^ x25: .cfa -56 + ^ x26: .cfa -64 + ^ x27: .cfa -72 + ^ x28: .cfa -80 + ^ .ra: .cfa -88 + ^ x29: .cfa -96 + ^ v8: .cfa -104 + ^ v9: .cfa -112 + ^
STACK CFI 54090 .cfa: sp 336 +
STACK CFI 540b0 .cfa: sp 0 +
STACK CFI 540b4 .cfa: x29 96 +
STACK CFI INIT 54228 16c .cfa: sp 0 +
STACK CFI 5422c .cfa: sp 128 +
STACK CFI 54238 .cfa: x29 32 + x19: .cfa -8 + ^ x20: .cfa -16 + ^ .ra: .cfa -24 + ^ x29: .cfa -32 + ^
STACK CFI 5430c .cfa: sp 128 +
STACK CFI 54318 .cfa: sp 0 +
STACK CFI 5431c .cfa: x29 32 +
STACK CFI INIT 54394 39c .cfa: sp 0 +
STACK CFI 54398 .cfa: sp 336 +
STACK CFI 543b0 .cfa: x29 80 + x19: .cfa -8 + ^ x20: .cfa -16 + ^ x21: .cfa -24 + ^ x22: .cfa -32 + ^ x23: .cfa -40 + ^ x24: .cfa -48 + ^ x28: .cfa -64 + ^ .ra: .cfa -72 + ^ x29: .cfa -80 + ^
STACK CFI 54644 .cfa: sp 336 +
STACK CFI 5465c .cfa: sp 0 +
STACK CFI 54660 .cfa: x29 80 +
STACK CFI INIT 54730 7d4 .cfa: sp 0 +
STACK CFI 54734 .cfa: sp 96 +
STACK CFI 5474c .cfa: x29 96 + x19: .cfa -8 + ^ x20: .cfa -16 + ^ x21: .cfa -24 + ^ x22: .cfa -32 + ^ x23: .cfa -40 + ^ x24: .cfa -48 + ^ x25: .cfa -56 + ^ x26: .cfa -64 + ^ x28: .cfa -80 + ^ .ra: .cfa -88 + ^ x29: .cfa -96 + ^
STACK CFI 5477c .cfa: sp 96 +
STACK CFI 54794 .cfa: sp 0 +
STACK CFI 54798 .cfa: x29 96 +
STACK CFI INIT 54f04 138 .cfa: sp 0 +
STACK CFI 54f08 .cfa: sp 112 +
STACK CFI 54f20 .cfa: x29 80 + x19: .cfa -8 + ^ x20: .cfa -16 + ^ x21: .cfa -24 + ^ x22: .cfa -32 + ^ x23: .cfa -40 + ^ x24: .cfa -48 + ^ x25: .cfa -64 + ^ .ra: .cfa -72 + ^ x29: .cfa -80 + ^
STACK CFI 54f50 .cfa: sp 112 +
STACK CFI 54f54 .cfa: x29 80 +
STACK CFI 54fd8 .cfa: sp 112 +
STACK CFI 54ff0 .cfa: sp 0 +
STACK CFI 54ff4 .cfa: x29 80 +
STACK CFI INIT 5503c 74 .cfa: sp 0 +
STACK CFI 55040 .cfa: sp 48 +
STACK CFI 5504c .cfa: x29 32 + x19: .cfa -8 + ^ x20: .cfa -16 + ^ .ra: .cfa -24 + ^ x29: .cfa -32 + ^
STACK CFI 55098 .cfa: sp 48 +
STACK CFI 550a4 .cfa: sp 0 +
STACK CFI 550a8 .cfa: x29 32 +
STACK CFI INIT 55180 8b4 .cfa: sp 0 +
STACK CFI 55184 .cfa: sp 80 +
STACK CFI 55198 .cfa: x29 80 + x19: .cfa -8 + ^ x20: .cfa -16 + ^ x21: .cfa -24 + ^ x22: .cfa -32 + ^ x23: .cfa -40 + ^ x24: .cfa -48 + ^ x25: .cfa -56 + ^ x28: .cfa -64 + ^ .ra: .cfa -72 + ^ x29: .cfa -80 + ^
STACK CFI 551c8 .cfa: sp 80 +
STACK CFI 551dc .cfa: sp 0 +
STACK CFI 551e0 .cfa: x29 80 +
STACK CFI INIT 55b64 80 .cfa: sp 0 +
STACK CFI 55b68 .cfa: sp 32 +
STACK CFI 55b70 .cfa: x29 32 + x19: .cfa -8 + ^ x20: .cfa -16 + ^ .ra: .cfa -24 + ^ x29: .cfa -32 + ^
STACK CFI 55ba0 .cfa: sp 32 +
STACK CFI 55ba8 .cfa: sp 0 +
STACK CFI 55bac .cfa: x29 32 +
STACK CFI 55bc4 .cfa: sp 32 +
STACK CFI 55bcc .cfa: sp 0 +
STACK CFI 55bd0 .cfa: x29 32 +
STACK CFI INIT 55be4 12c .cfa: sp 0 +
STACK CFI 55be8 .cfa: sp 80 +
STACK CFI 55bf8 .cfa: x29 48 + x19: .cfa -8 + ^ x20: .cfa -16 + ^ x21: .cfa -24 + ^ x22: .cfa -32 + ^ .ra: .cfa -40 + ^ x29: .cfa -48 + ^
STACK CFI 55c88 .cfa: sp 80 +
STACK CFI 55c98 .cfa: sp 0 +
STACK CFI 55c9c .cfa: x29 48 +
STACK CFI INIT 55d10 160 .cfa: sp 0 +
STACK CFI 55d14 .cfa: sp 128 +
STACK CFI 55d2c .cfa: x29 80 + x19: .cfa -8 + ^ x20: .cfa -16 + ^ x21: .cfa -24 + ^ x22: .cfa -32 + ^ x23: .cfa -40 + ^ x24: .cfa -48 + ^ x25: .cfa -64 + ^ .ra: .cfa -72 + ^ x29: .cfa -80 + ^
STACK CFI 55ddc .cfa: sp 128 +
STACK CFI 55df4 .cfa: sp 0 +
STACK CFI 55df8 .cfa: x29 80 +
STACK CFI INIT 55e70 428 .cfa: sp 0 +
STACK CFI 55e74 .cfa: sp 192 +
STACK CFI 55e8c .cfa: x29 80 + x19: .cfa -8 + ^ x20: .cfa -16 + ^ x21: .cfa -24 + ^ x22: .cfa -32 + ^ x23: .cfa -40 + ^ x24: .cfa -48 + ^ x25: .cfa -56 + ^ x26: .cfa -64 + ^ .ra: .cfa -72 + ^ x29: .cfa -80 + ^
STACK CFI 561ec .cfa: sp 192 +
STACK CFI 56204 .cfa: sp 0 +
STACK CFI 56208 .cfa: x29 80 +
STACK CFI INIT 567a0 13c .cfa: sp 0 +
STACK CFI 567a4 .cfa: sp 48 +
STACK CFI 567b0 .cfa: x29 48 + x19: .cfa -8 + ^ x20: .cfa -16 + ^ x21: .cfa -24 + ^ x22: .cfa -32 + ^ .ra: .cfa -40 + ^ x29: .cfa -48 + ^
STACK CFI 568a4 .cfa: sp 48 +
STACK CFI 568b0 .cfa: sp 0 +
STACK CFI 568b4 .cfa: x29 48 +
STACK CFI INIT 56af8 87c .cfa: sp 0 +
STACK CFI 56afc .cfa: sp 128 +
STACK CFI 56b18 .cfa: x29 96 + x19: .cfa -8 + ^ x20: .cfa -16 + ^ x21: .cfa -24 + ^ x22: .cfa -32 + ^ x23: .cfa -40 + ^ x24: .cfa -48 + ^ x25: .cfa -56 + ^ x26: .cfa -64 + ^ x27: .cfa -72 + ^ x28: .cfa -80 + ^ .ra: .cfa -88 + ^ x29: .cfa -96 + ^
STACK CFI 57328 .cfa: sp 128 +
STACK CFI 57344 .cfa: sp 0 +
STACK CFI 57348 .cfa: x29 96 +
STACK CFI INIT 574a8 224 .cfa: sp 0 +
STACK CFI 574ac .cfa: sp 192 +
STACK CFI 574c0 .cfa: x29 64 + x19: .cfa -8 + ^ x20: .cfa -16 + ^ x21: .cfa -24 + ^ x22: .cfa -32 + ^ x23: .cfa -48 + ^ .ra: .cfa -56 + ^ x29: .cfa -64 + ^
STACK CFI 57608 .cfa: sp 192 +
STACK CFI 5761c .cfa: sp 0 +
STACK CFI 57620 .cfa: x29 64 +
STACK CFI INIT 576d0 1cc .cfa: sp 0 +
STACK CFI 576d4 .cfa: sp 128 +
STACK CFI 576e4 .cfa: x29 48 + x19: .cfa -8 + ^ x20: .cfa -16 + ^ x21: .cfa -32 + ^ .ra: .cfa -40 + ^ x29: .cfa -48 + ^
STACK CFI 57820 .cfa: sp 128 +
STACK CFI 57830 .cfa: sp 0 +
STACK CFI 57834 .cfa: x29 48 +
STACK CFI INIT 57ce0 1d8 .cfa: sp 0 +
STACK CFI 57ce4 .cfa: sp 128 +
STACK CFI 57cf8 .cfa: x29 64 + x19: .cfa -8 + ^ x20: .cfa -16 + ^ x21: .cfa -24 + ^ x22: .cfa -32 + ^ x23: .cfa -48 + ^ .ra: .cfa -56 + ^ x29: .cfa -64 + ^
STACK CFI 57e78 .cfa: sp 128 +
STACK CFI 57e8c .cfa: sp 0 +
STACK CFI 57e90 .cfa: x29 64 +
STACK CFI INIT 581e4 1cc .cfa: sp 0 +
STACK CFI 581e8 .cfa: sp 112 +
STACK CFI 581f8 .cfa: x29 48 + x19: .cfa -8 + ^ x20: .cfa -16 + ^ x21: .cfa -24 + ^ x22: .cfa -32 + ^ .ra: .cfa -40 + ^ x29: .cfa -48 + ^
STACK CFI 58374 .cfa: sp 112 +
STACK CFI 58384 .cfa: sp 0 +
STACK CFI 58388 .cfa: x29 48 +
STACK CFI INIT 584d4 198 .cfa: sp 0 +
STACK CFI 584d8 .cfa: sp 96 +
STACK CFI 584e8 .cfa: x29 48 + x19: .cfa -8 + ^ x20: .cfa -16 + ^ x21: .cfa -32 + ^ .ra: .cfa -40 + ^ x29: .cfa -48 + ^
STACK CFI 585c4 .cfa: sp 96 +
STACK CFI 585d4 .cfa: sp 0 +
STACK CFI 585d8 .cfa: x29 48 +
STACK CFI INIT 586c0 3ac .cfa: sp 0 +
STACK CFI 586c4 .cfa: sp 304 +
STACK CFI 586dc .cfa: x29 80 + x19: .cfa -8 + ^ x20: .cfa -16 + ^ x21: .cfa -24 + ^ x22: .cfa -32 + ^ x23: .cfa -40 + ^ x24: .cfa -48 + ^ x28: .cfa -64 + ^ .ra: .cfa -72 + ^ x29: .cfa -80 + ^
STACK CFI 5897c .cfa: sp 304 +
STACK CFI 58994 .cfa: sp 0 +
STACK CFI 58998 .cfa: x29 80 +
STACK CFI INIT 58b40 1e8 .cfa: sp 0 +
STACK CFI 58b44 .cfa: sp 160 +
STACK CFI 58b54 .cfa: x29 48 + x19: .cfa -8 + ^ x20: .cfa -16 + ^ x21: .cfa -24 + ^ x22: .cfa -32 + ^ .ra: .cfa -40 + ^ x29: .cfa -48 + ^
STACK CFI 58cb8 .cfa: sp 160 +
STACK CFI 58cc8 .cfa: sp 0 +
STACK CFI 58ccc .cfa: x29 48 +
STACK CFI INIT 58dbc fc .cfa: sp 0 +
STACK CFI 58dc0 .cfa: sp 48 +
STACK CFI 58dcc .cfa: x29 48 + x19: .cfa -8 + ^ x20: .cfa -16 + ^ x21: .cfa -32 + ^ .ra: .cfa -40 + ^ x29: .cfa -48 + ^
STACK CFI 58e4c .cfa: sp 48 +
STACK CFI 58e58 .cfa: sp 0 +
STACK CFI 58e5c .cfa: x29 48 +
STACK CFI INIT 58eb8 3fc .cfa: sp 0 +
STACK CFI 58ebc .cfa: sp 176 +
STACK CFI 58ed8 .cfa: x29 96 + x19: .cfa -8 + ^ x20: .cfa -16 + ^ x21: .cfa -24 + ^ x22: .cfa -32 + ^ x23: .cfa -40 + ^ x24: .cfa -48 + ^ x25: .cfa -56 + ^ x26: .cfa -64 + ^ x27: .cfa -72 + ^ x28: .cfa -80 + ^ .ra: .cfa -88 + ^ x29: .cfa -96 + ^
STACK CFI 59240 .cfa: sp 176 +
STACK CFI 5925c .cfa: sp 0 +
STACK CFI 59260 .cfa: x29 96 +
STACK CFI INIT 592b8 1a0 .cfa: sp 0 +
STACK CFI 592bc .cfa: sp 128 +
STACK CFI 592cc .cfa: x29 48 + x19: .cfa -8 + ^ x20: .cfa -16 + ^ x21: .cfa -32 + ^ .ra: .cfa -40 + ^ x29: .cfa -48 + ^
STACK CFI 593d4 .cfa: sp 128 +
STACK CFI 593e4 .cfa: sp 0 +
STACK CFI 593e8 .cfa: x29 48 +
STACK CFI INIT 595a8 3fc .cfa: sp 0 +
STACK CFI 595ac .cfa: sp 176 +
STACK CFI 595c8 .cfa: x29 96 + x19: .cfa -8 + ^ x20: .cfa -16 + ^ x21: .cfa -24 + ^ x22: .cfa -32 + ^ x23: .cfa -40 + ^ x24: .cfa -48 + ^ x25: .cfa -56 + ^ x26: .cfa -64 + ^ x27: .cfa -72 + ^ x28: .cfa -80 + ^ .ra: .cfa -88 + ^ x29: .cfa -96 + ^
STACK CFI 59930 .cfa: sp 176 +
STACK CFI 5994c .cfa: sp 0 +
STACK CFI 59950 .cfa: x29 96 +
STACK CFI INIT 599a8 1a0 .cfa: sp 0 +
STACK CFI 599ac .cfa: sp 128 +
STACK CFI 599bc .cfa: x29 48 + x19: .cfa -8 + ^ x20: .cfa -16 + ^ x21: .cfa -32 + ^ .ra: .cfa -40 + ^ x29: .cfa -48 + ^
STACK CFI 59ac4 .cfa: sp 128 +
STACK CFI 59ad4 .cfa: sp 0 +
STACK CFI 59ad8 .cfa: x29 48 +
STACK CFI INIT 59c98 134 .cfa: sp 0 +
STACK CFI 59c9c .cfa: sp 80 +
STACK CFI 59cac .cfa: x29 48 + x19: .cfa -8 + ^ x20: .cfa -16 + ^ x21: .cfa -32 + ^ .ra: .cfa -40 + ^ x29: .cfa -48 + ^
STACK CFI 59d4c .cfa: sp 80 +
STACK CFI 59d5c .cfa: sp 0 +
STACK CFI 59d60 .cfa: x29 48 +
STACK CFI INIT 59dcc 2b0 .cfa: sp 0 +
STACK CFI 59dd0 .cfa: sp 176 +
STACK CFI 59de8 .cfa: x29 80 + x19: .cfa -8 + ^ x20: .cfa -16 + ^ x21: .cfa -24 + ^ x22: .cfa -32 + ^ x23: .cfa -40 + ^ x24: .cfa -48 + ^ x25: .cfa -64 + ^ .ra: .cfa -72 + ^ x29: .cfa -80 + ^
STACK CFI 59ff0 .cfa: sp 176 +
STACK CFI 5a008 .cfa: sp 0 +
STACK CFI 5a00c .cfa: x29 80 +
STACK CFI INIT 5a07c 5e0 .cfa: sp 0 +
STACK CFI 5a080 .cfa: sp 320 +
STACK CFI 5a098 .cfa: x29 80 + x19: .cfa -8 + ^ x20: .cfa -16 + ^ x21: .cfa -24 + ^ x22: .cfa -32 + ^ x23: .cfa -40 + ^ x24: .cfa -48 + ^ x28: .cfa -64 + ^ .ra: .cfa -72 + ^ x29: .cfa -80 + ^
STACK CFI 5a5ac .cfa: sp 320 +
STACK CFI 5a5c4 .cfa: sp 0 +
STACK CFI 5a5c8 .cfa: x29 80 +
STACK CFI INIT 5a65c 40c .cfa: sp 0 +
STACK CFI 5a660 .cfa: sp 96 +
STACK CFI 5a678 .cfa: x29 96 + x19: .cfa -8 + ^ x20: .cfa -16 + ^ x21: .cfa -24 + ^ x22: .cfa -32 + ^ x23: .cfa -40 + ^ x24: .cfa -48 + ^ x25: .cfa -56 + ^ x26: .cfa -64 + ^ x28: .cfa -80 + ^ .ra: .cfa -88 + ^ x29: .cfa -96 + ^
STACK CFI 5a9ac .cfa: sp 96 +
STACK CFI 5a9c4 .cfa: sp 0 +
STACK CFI 5a9c8 .cfa: x29 96 +
STACK CFI INIT 5ace8 30c .cfa: sp 0 +
STACK CFI 5acec .cfa: sp 96 +
STACK CFI 5ad04 .cfa: x29 56 + x19: .cfa -8 + ^ x20: .cfa -16 + ^ x21: .cfa -24 + ^ x22: .cfa -32 + ^ x23: .cfa -40 + ^ .ra: .cfa -48 + ^ x29: .cfa -56 + ^ v8: .cfa -64 + ^
STACK CFI 5af40 .cfa: sp 96 +
STACK CFI 5af58 .cfa: sp 0 +
STACK CFI 5af5c .cfa: x29 56 +
STACK CFI INIT 5b094 30c .cfa: sp 0 +
STACK CFI 5b098 .cfa: sp 96 +
STACK CFI 5b0b0 .cfa: x29 56 + x19: .cfa -8 + ^ x20: .cfa -16 + ^ x21: .cfa -24 + ^ x22: .cfa -32 + ^ x23: .cfa -40 + ^ .ra: .cfa -48 + ^ x29: .cfa -56 + ^ v8: .cfa -64 + ^
STACK CFI 5b2ec .cfa: sp 96 +
STACK CFI 5b304 .cfa: sp 0 +
STACK CFI 5b308 .cfa: x29 56 +
STACK CFI INIT 5b4f0 18c .cfa: sp 0 +
STACK CFI 5b4f4 .cfa: sp 80 +
STACK CFI 5b504 .cfa: x29 48 + x19: .cfa -8 + ^ x20: .cfa -16 + ^ x21: .cfa -24 + ^ x22: .cfa -32 + ^ .ra: .cfa -40 + ^ x29: .cfa -48 + ^
STACK CFI 5b640 .cfa: sp 80 +
STACK CFI 5b650 .cfa: sp 0 +
STACK CFI 5b654 .cfa: x29 48 +
STACK CFI INIT 5b694 3dc .cfa: sp 0 +
STACK CFI 5b698 .cfa: sp 80 +
STACK CFI 5b6ac .cfa: x29 80 + x19: .cfa -8 + ^ x20: .cfa -16 + ^ x21: .cfa -24 + ^ x22: .cfa -32 + ^ x23: .cfa -40 + ^ x24: .cfa -48 + ^ x28: .cfa -64 + ^ .ra: .cfa -72 + ^ x29: .cfa -80 + ^
STACK CFI 5b970 .cfa: sp 80 +
STACK CFI 5b984 .cfa: sp 0 +
STACK CFI 5b988 .cfa: x29 80 +
STACK CFI INIT 5bb60 18c .cfa: sp 0 +
STACK CFI 5bb64 .cfa: sp 80 +
STACK CFI 5bb74 .cfa: x29 48 + x19: .cfa -8 + ^ x20: .cfa -16 + ^ x21: .cfa -24 + ^ x22: .cfa -32 + ^ .ra: .cfa -40 + ^ x29: .cfa -48 + ^
STACK CFI 5bcb0 .cfa: sp 80 +
STACK CFI 5bcc0 .cfa: sp 0 +
STACK CFI 5bcc4 .cfa: x29 48 +
STACK CFI INIT 5bd04 3dc .cfa: sp 0 +
STACK CFI 5bd08 .cfa: sp 80 +
STACK CFI 5bd1c .cfa: x29 80 + x19: .cfa -8 + ^ x20: .cfa -16 + ^ x21: .cfa -24 + ^ x22: .cfa -32 + ^ x23: .cfa -40 + ^ x24: .cfa -48 + ^ x28: .cfa -64 + ^ .ra: .cfa -72 + ^ x29: .cfa -80 + ^
STACK CFI 5bfe0 .cfa: sp 80 +
STACK CFI 5bff4 .cfa: sp 0 +
STACK CFI 5bff8 .cfa: x29 80 +
STACK CFI INIT 5c114 3a4 .cfa: sp 0 +
STACK CFI 5c118 .cfa: sp 160 +
STACK CFI 5c134 .cfa: x29 96 + x19: .cfa -8 + ^ x20: .cfa -16 + ^ x21: .cfa -24 + ^ x22: .cfa -32 + ^ x23: .cfa -40 + ^ x24: .cfa -48 + ^ x25: .cfa -56 + ^ x26: .cfa -64 + ^ x27: .cfa -80 + ^ .ra: .cfa -88 + ^ x29: .cfa -96 + ^
STACK CFI 5c33c .cfa: sp 160 +
STACK CFI 5c358 .cfa: sp 0 +
STACK CFI 5c35c .cfa: x29 96 +
STACK CFI INIT 5c4b8 74 .cfa: sp 0 +
STACK CFI 5c4bc .cfa: sp 48 +
STACK CFI 5c4c8 .cfa: x29 32 + x19: .cfa -8 + ^ x20: .cfa -16 + ^ .ra: .cfa -24 + ^ x29: .cfa -32 + ^
STACK CFI 5c514 .cfa: sp 48 +
STACK CFI 5c520 .cfa: sp 0 +
STACK CFI 5c524 .cfa: x29 32 +
STACK CFI INIT 5c52c 3a4 .cfa: sp 0 +
STACK CFI 5c530 .cfa: sp 160 +
STACK CFI 5c54c .cfa: x29 96 + x19: .cfa -8 + ^ x20: .cfa -16 + ^ x21: .cfa -24 + ^ x22: .cfa -32 + ^ x23: .cfa -40 + ^ x24: .cfa -48 + ^ x25: .cfa -56 + ^ x26: .cfa -64 + ^ x27: .cfa -80 + ^ .ra: .cfa -88 + ^ x29: .cfa -96 + ^
STACK CFI 5c754 .cfa: sp 160 +
STACK CFI 5c770 .cfa: sp 0 +
STACK CFI 5c774 .cfa: x29 96 +
STACK CFI INIT 5c974 134 .cfa: sp 0 +
STACK CFI 5c978 .cfa: sp 128 +
STACK CFI 5c988 .cfa: x29 48 + x19: .cfa -8 + ^ x20: .cfa -16 + ^ x21: .cfa -24 + ^ x22: .cfa -32 + ^ .ra: .cfa -40 + ^ x29: .cfa -48 + ^
STACK CFI 5ca74 .cfa: sp 128 +
STACK CFI 5ca84 .cfa: sp 0 +
STACK CFI 5ca88 .cfa: x29 48 +
STACK CFI INIT 5cbf4 134 .cfa: sp 0 +
STACK CFI 5cbf8 .cfa: sp 128 +
STACK CFI 5cc08 .cfa: x29 48 + x19: .cfa -8 + ^ x20: .cfa -16 + ^ x21: .cfa -24 + ^ x22: .cfa -32 + ^ .ra: .cfa -40 + ^ x29: .cfa -48 + ^
STACK CFI 5ccf4 .cfa: sp 128 +
STACK CFI 5cd04 .cfa: sp 0 +
STACK CFI 5cd08 .cfa: x29 48 +
STACK CFI INIT 5cdb4 200 .cfa: sp 0 +
STACK CFI 5cdb8 .cfa: sp 240 +
STACK CFI 5cdc8 .cfa: x29 48 + x19: .cfa -8 + ^ x20: .cfa -16 + ^ x21: .cfa -24 + ^ x22: .cfa -32 + ^ .ra: .cfa -40 + ^ x29: .cfa -48 + ^
STACK CFI 5cf28 .cfa: sp 240 +
STACK CFI 5cf38 .cfa: sp 0 +
STACK CFI 5cf3c .cfa: x29 48 +
STACK CFI INIT 5cfb4 610 .cfa: sp 0 +
STACK CFI 5cfb8 .cfa: sp 320 +
STACK CFI 5cfd0 .cfa: x29 80 + x19: .cfa -8 + ^ x20: .cfa -16 + ^ x21: .cfa -24 + ^ x22: .cfa -32 + ^ x23: .cfa -40 + ^ x24: .cfa -48 + ^ x25: .cfa -56 + ^ x28: .cfa -64 + ^ .ra: .cfa -72 + ^ x29: .cfa -80 + ^
STACK CFI 5d39c .cfa: sp 320 +
STACK CFI 5d3b4 .cfa: sp 0 +
STACK CFI 5d3b8 .cfa: x29 80 +
STACK CFI INIT 5d69c 80 .cfa: sp 0 +
STACK CFI 5d6a0 .cfa: sp 32 +
STACK CFI 5d6a8 .cfa: x29 32 + x19: .cfa -8 + ^ x20: .cfa -16 + ^ .ra: .cfa -24 + ^ x29: .cfa -32 + ^
STACK CFI 5d6e4 .cfa: sp 32 +
STACK CFI 5d6ec .cfa: sp 0 +
STACK CFI 5d6f0 .cfa: x29 32 +
STACK CFI 5d6fc .cfa: sp 32 +
STACK CFI 5d704 .cfa: sp 0 +
STACK CFI 5d708 .cfa: x29 32 +
STACK CFI INIT 5d7a0 150 .cfa: sp 0 +
STACK CFI 5d7a4 .cfa: sp 112 +
STACK CFI 5d7bc .cfa: x29 80 + x19: .cfa -8 + ^ x20: .cfa -16 + ^ x21: .cfa -24 + ^ x22: .cfa -32 + ^ x23: .cfa -40 + ^ x24: .cfa -48 + ^ x25: .cfa -56 + ^ x26: .cfa -64 + ^ .ra: .cfa -72 + ^ x29: .cfa -80 + ^
STACK CFI 5d88c .cfa: sp 112 +
STACK CFI 5d8a4 .cfa: sp 0 +
STACK CFI 5d8a8 .cfa: x29 80 +
STACK CFI INIT 5d91c 1e4 .cfa: sp 0 +
STACK CFI 5d920 .cfa: sp 128 +
STACK CFI 5d930 .cfa: x29 48 + x19: .cfa -8 + ^ x20: .cfa -16 + ^ x21: .cfa -32 + ^ .ra: .cfa -40 + ^ x29: .cfa -48 + ^
STACK CFI 5da84 .cfa: sp 128 +
STACK CFI 5da94 .cfa: sp 0 +
STACK CFI 5da98 .cfa: x29 48 +
STACK CFI INIT 5dda0 114 .cfa: sp 0 +
STACK CFI 5dda4 .cfa: sp 48 +
STACK CFI 5ddb0 .cfa: x29 48 + x19: .cfa -8 + ^ x20: .cfa -16 + ^ x21: .cfa -32 + ^ .ra: .cfa -40 + ^ x29: .cfa -48 + ^
STACK CFI 5de2c .cfa: sp 48 +
STACK CFI 5de38 .cfa: sp 0 +
STACK CFI 5de3c .cfa: x29 48 +
STACK CFI 5de4c .cfa: sp 48 +
STACK CFI 5de58 .cfa: sp 0 +
STACK CFI 5de5c .cfa: x29 48 +
STACK CFI INIT 5deb4 108 .cfa: sp 0 +
STACK CFI 5deb8 .cfa: sp 48 +
STACK CFI 5dec4 .cfa: x29 48 + x19: .cfa -8 + ^ x20: .cfa -16 + ^ x21: .cfa -32 + ^ .ra: .cfa -40 + ^ x29: .cfa -48 + ^
STACK CFI 5df30 .cfa: sp 48 +
STACK CFI 5df3c .cfa: sp 0 +
STACK CFI 5df40 .cfa: x29 48 +
STACK CFI 5df70 .cfa: sp 48 +
STACK CFI 5df7c .cfa: sp 0 +
STACK CFI 5df80 .cfa: x29 48 +
STACK CFI INIT 5e090 19c .cfa: sp 0 +
STACK CFI 5e094 .cfa: sp 112 +
STACK CFI 5e0ac .cfa: x29 80 + x19: .cfa -8 + ^ x20: .cfa -16 + ^ x21: .cfa -24 + ^ x22: .cfa -32 + ^ x23: .cfa -40 + ^ x24: .cfa -48 + ^ x25: .cfa -64 + ^ .ra: .cfa -72 + ^ x29: .cfa -80 + ^
STACK CFI 5e19c .cfa: sp 112 +
STACK CFI 5e1b4 .cfa: sp 0 +
STACK CFI 5e1b8 .cfa: x29 80 +
STACK CFI INIT 5e298 a6c .cfa: sp 0 +
STACK CFI 5e29c .cfa: sp 96 +
STACK CFI 5e2b4 .cfa: x29 96 + x19: .cfa -8 + ^ x20: .cfa -16 + ^ x21: .cfa -24 + ^ x22: .cfa -32 + ^ x23: .cfa -40 + ^ x24: .cfa -48 + ^ x25: .cfa -56 + ^ x26: .cfa -64 + ^ x27: .cfa -72 + ^ x28: .cfa -80 + ^ .ra: .cfa -88 + ^ x29: .cfa -96 + ^
STACK CFI 5e424 .cfa: sp 96 +
STACK CFI 5e43c .cfa: sp 0 +
STACK CFI 5e440 .cfa: x29 96 +
STACK CFI INIT 5ee24 e4 .cfa: sp 0 +
STACK CFI 5ee28 .cfa: sp 48 +
STACK CFI 5ee34 .cfa: x29 48 + x19: .cfa -8 + ^ x20: .cfa -16 + ^ x21: .cfa -32 + ^ .ra: .cfa -40 + ^ x29: .cfa -48 + ^
STACK CFI 5eea0 .cfa: sp 48 +
STACK CFI 5eeac .cfa: sp 0 +
STACK CFI 5eeb0 .cfa: x29 48 +
STACK CFI 5eec0 .cfa: sp 48 +
STACK CFI 5eecc .cfa: sp 0 +
STACK CFI 5eed0 .cfa: x29 48 +
STACK CFI INIT 5ef08 c0 .cfa: sp 0 +
STACK CFI 5ef0c .cfa: sp 48 +
STACK CFI 5ef18 .cfa: x29 48 + x19: .cfa -8 + ^ x20: .cfa -16 + ^ x21: .cfa -32 + ^ .ra: .cfa -40 + ^ x29: .cfa -48 + ^
STACK CFI 5ef64 .cfa: sp 48 +
STACK CFI 5ef70 .cfa: sp 0 +
STACK CFI 5ef74 .cfa: x29 48 +
STACK CFI 5ef9c .cfa: sp 48 +
STACK CFI 5efa8 .cfa: sp 0 +
STACK CFI 5efac .cfa: x29 48 +
STACK CFI INIT 5f064 460 .cfa: sp 0 +
STACK CFI 5f068 .cfa: sp 80 +
STACK CFI 5f07c .cfa: x29 80 + x19: .cfa -8 + ^ x20: .cfa -16 + ^ x21: .cfa -24 + ^ x22: .cfa -32 + ^ x23: .cfa -40 + ^ x24: .cfa -48 + ^ x28: .cfa -64 + ^ .ra: .cfa -72 + ^ x29: .cfa -80 + ^
STACK CFI 5f408 .cfa: sp 80 +
STACK CFI 5f41c .cfa: sp 0 +
STACK CFI 5f420 .cfa: x29 80 +
STACK CFI INIT 5f4ec 134 .cfa: sp 0 +
STACK CFI 5f4f0 .cfa: sp 80 +
STACK CFI 5f500 .cfa: x29 48 + x19: .cfa -8 + ^ x20: .cfa -16 + ^ x21: .cfa -32 + ^ .ra: .cfa -40 + ^ x29: .cfa -48 + ^
STACK CFI 5f5a0 .cfa: sp 80 +
STACK CFI 5f5b0 .cfa: sp 0 +
STACK CFI 5f5b4 .cfa: x29 48 +
STACK CFI INIT 5f6e4 134 .cfa: sp 0 +
STACK CFI 5f6e8 .cfa: sp 80 +
STACK CFI 5f6f4 .cfa: x29 32 + x19: .cfa -8 + ^ x20: .cfa -16 + ^ .ra: .cfa -24 + ^ x29: .cfa -32 + ^
STACK CFI 5f724 .cfa: sp 80 +
STACK CFI 5f730 .cfa: sp 0 +
STACK CFI 5f734 .cfa: x29 32 +
STACK CFI INIT 5f818 78 .cfa: sp 0 +
STACK CFI 5f81c .cfa: sp 32 +
STACK CFI 5f824 .cfa: x29 32 + x19: .cfa -8 + ^ x20: .cfa -16 + ^ .ra: .cfa -24 + ^ x29: .cfa -32 + ^
STACK CFI 5f830 .cfa: sp 32 +
STACK CFI 5f838 .cfa: sp 0 +
STACK CFI 5f83c .cfa: x29 32 +
STACK CFI INIT 5f890 74 .cfa: sp 0 +
STACK CFI 5f894 .cfa: sp 48 +
STACK CFI 5f8a0 .cfa: x29 32 + x19: .cfa -8 + ^ x20: .cfa -16 + ^ .ra: .cfa -24 + ^ x29: .cfa -32 + ^
STACK CFI 5f8ec .cfa: sp 48 +
STACK CFI 5f8f8 .cfa: sp 0 +
STACK CFI 5f8fc .cfa: x29 32 +
STACK CFI INIT 5f98c 25c .cfa: sp 0 +
STACK CFI 5f990 .cfa: sp 128 +
STACK CFI 5f9a0 .cfa: x29 48 + x19: .cfa -8 + ^ x20: .cfa -16 + ^ x21: .cfa -32 + ^ .ra: .cfa -40 + ^ x29: .cfa -48 + ^
STACK CFI 5fa88 .cfa: sp 128 +
STACK CFI 5fa98 .cfa: sp 0 +
STACK CFI 5fa9c .cfa: x29 48 +
STACK CFI INIT 5fc0c 284 .cfa: sp 0 +
STACK CFI 5fc10 .cfa: sp 128 +
STACK CFI 5fc20 .cfa: x29 48 + x19: .cfa -8 + ^ x20: .cfa -16 + ^ x21: .cfa -32 + ^ .ra: .cfa -40 + ^ x29: .cfa -48 + ^
STACK CFI 5fd38 .cfa: sp 128 +
STACK CFI 5fd48 .cfa: sp 0 +
STACK CFI 5fd4c .cfa: x29 48 +
STACK CFI INIT 5fee4 300 .cfa: sp 0 +
STACK CFI 5fee8 .cfa: sp 144 +
STACK CFI 5fefc .cfa: x29 64 + x19: .cfa -8 + ^ x20: .cfa -16 + ^ x21: .cfa -24 + ^ x22: .cfa -32 + ^ x23: .cfa -48 + ^ .ra: .cfa -56 + ^ x29: .cfa -64 + ^
STACK CFI 60090 .cfa: sp 144 +
STACK CFI 600a4 .cfa: sp 0 +
STACK CFI 600a8 .cfa: x29 64 +
STACK CFI INIT 60238 264 .cfa: sp 0 +
STACK CFI 6023c .cfa: sp 128 +
STACK CFI 6024c .cfa: x29 48 + x19: .cfa -8 + ^ x20: .cfa -16 + ^ x21: .cfa -32 + ^ .ra: .cfa -40 + ^ x29: .cfa -48 + ^
STACK CFI 60344 .cfa: sp 128 +
STACK CFI 60354 .cfa: sp 0 +
STACK CFI 60358 .cfa: x29 48 +
STACK CFI INIT 60544 1b8 .cfa: sp 0 +
STACK CFI 60548 .cfa: sp 160 +
STACK CFI 60564 .cfa: x29 72 + x19: .cfa -8 + ^ x20: .cfa -16 + ^ x21: .cfa -24 + ^ x22: .cfa -32 + ^ x23: .cfa -40 + ^ x24: .cfa -48 + ^ x25: .cfa -56 + ^ .ra: .cfa -64 + ^ x29: .cfa -72 + ^ v8: .cfa -80 + ^
STACK CFI 605e8 .cfa: sp 160 +
STACK CFI 60604 .cfa: sp 0 +
STACK CFI 60608 .cfa: x29 72 +
STACK CFI INIT 606fc 16c .cfa: sp 0 +
STACK CFI 60700 .cfa: sp 64 +
STACK CFI 60710 .cfa: x29 48 + x19: .cfa -8 + ^ x20: .cfa -16 + ^ x21: .cfa -24 + ^ x22: .cfa -32 + ^ .ra: .cfa -40 + ^ x29: .cfa -48 + ^
STACK CFI 60808 .cfa: sp 64 +
STACK CFI 60818 .cfa: sp 0 +
STACK CFI 6081c .cfa: x29 48 +
STACK CFI INIT 60868 ac .cfa: sp 0 +
STACK CFI 6086c .cfa: sp 64 +
STACK CFI 6087c .cfa: x29 48 + x19: .cfa -8 + ^ x20: .cfa -16 + ^ x21: .cfa -32 + ^ .ra: .cfa -40 + ^ x29: .cfa -48 + ^
STACK CFI 608d8 .cfa: sp 64 +
STACK CFI 608e8 .cfa: sp 0 +
STACK CFI 608ec .cfa: x29 48 +
STACK CFI INIT 60914 178 .cfa: sp 0 +
STACK CFI 60918 .cfa: sp 128 +
STACK CFI 60928 .cfa: x29 48 + x19: .cfa -8 + ^ x20: .cfa -16 + ^ x21: .cfa -24 + ^ x22: .cfa -32 + ^ .ra: .cfa -40 + ^ x29: .cfa -48 + ^
STACK CFI 60984 .cfa: sp 128 +
STACK CFI 60994 .cfa: sp 0 +
STACK CFI 60998 .cfa: x29 48 +
STACK CFI INIT 60a8c a4 .cfa: sp 0 +
STACK CFI 60a90 .cfa: sp 48 +
STACK CFI 60a9c .cfa: x29 48 + x19: .cfa -8 + ^ x20: .cfa -16 + ^ x21: .cfa -32 + ^ .ra: .cfa -40 + ^ x29: .cfa -48 + ^
STACK CFI 60b08 .cfa: sp 48 +
STACK CFI 60b14 .cfa: sp 0 +
STACK CFI 60b18 .cfa: x29 48 +
STACK CFI INIT 60b34 2e4 .cfa: sp 0 +
STACK CFI 60b38 .cfa: sp 144 +
STACK CFI 60b4c .cfa: x29 64 + x19: .cfa -8 + ^ x20: .cfa -16 + ^ x21: .cfa -24 + ^ x22: .cfa -32 + ^ x23: .cfa -48 + ^ .ra: .cfa -56 + ^ x29: .cfa -64 + ^
STACK CFI 60cc4 .cfa: sp 144 +
STACK CFI 60cd8 .cfa: sp 0 +
STACK CFI 60cdc .cfa: x29 64 +
STACK CFI INIT 60e18 2e4 .cfa: sp 0 +
STACK CFI 60e1c .cfa: sp 144 +
STACK CFI 60e30 .cfa: x29 64 + x19: .cfa -8 + ^ x20: .cfa -16 + ^ x21: .cfa -24 + ^ x22: .cfa -32 + ^ x23: .cfa -48 + ^ .ra: .cfa -56 + ^ x29: .cfa -64 + ^
STACK CFI 60fa8 .cfa: sp 144 +
STACK CFI 60fbc .cfa: sp 0 +
STACK CFI 60fc0 .cfa: x29 64 +
STACK CFI INIT 610fc 2a0 .cfa: sp 0 +
STACK CFI 61100 .cfa: sp 144 +
STACK CFI 61114 .cfa: x29 64 + x19: .cfa -8 + ^ x20: .cfa -16 + ^ x21: .cfa -24 + ^ x22: .cfa -32 + ^ x23: .cfa -48 + ^ .ra: .cfa -56 + ^ x29: .cfa -64 + ^
STACK CFI 61248 .cfa: sp 144 +
STACK CFI 6125c .cfa: sp 0 +
STACK CFI 61260 .cfa: x29 64 +
STACK CFI INIT 6139c 2f0 .cfa: sp 0 +
STACK CFI 613a0 .cfa: sp 144 +
STACK CFI 613b4 .cfa: x29 64 + x19: .cfa -8 + ^ x20: .cfa -16 + ^ x21: .cfa -24 + ^ x22: .cfa -32 + ^ x23: .cfa -48 + ^ .ra: .cfa -56 + ^ x29: .cfa -64 + ^
STACK CFI 61538 .cfa: sp 144 +
STACK CFI 6154c .cfa: sp 0 +
STACK CFI 61550 .cfa: x29 64 +
STACK CFI INIT 6168c 4f4 .cfa: sp 0 +
STACK CFI 61690 .cfa: sp 144 +
STACK CFI 616a4 .cfa: x29 64 + x19: .cfa -8 + ^ x20: .cfa -16 + ^ x21: .cfa -24 + ^ x22: .cfa -32 + ^ x23: .cfa -48 + ^ .ra: .cfa -56 + ^ x29: .cfa -64 + ^
STACK CFI 619d8 .cfa: sp 144 +
STACK CFI 619ec .cfa: sp 0 +
STACK CFI 619f0 .cfa: x29 64 +
STACK CFI INIT 61b80 154 .cfa: sp 0 +
STACK CFI 61b84 .cfa: sp 384 +
STACK CFI 61b98 .cfa: x29 64 + x19: .cfa -8 + ^ x20: .cfa -16 + ^ x21: .cfa -24 + ^ x22: .cfa -32 + ^ x23: .cfa -40 + ^ x28: .cfa -48 + ^ .ra: .cfa -56 + ^ x29: .cfa -64 + ^
STACK CFI 61c7c .cfa: sp 384 +
STACK CFI 61c90 .cfa: sp 0 +
STACK CFI 61c94 .cfa: x29 64 +
STACK CFI INIT 61cec 50c .cfa: sp 0 +
STACK CFI 61cf0 .cfa: sp 64 +
STACK CFI 61d00 .cfa: x29 64 + x19: .cfa -8 + ^ x20: .cfa -16 + ^ x21: .cfa -24 + ^ x22: .cfa -32 + ^ x23: .cfa -40 + ^ x24: .cfa -48 + ^ .ra: .cfa -56 + ^ x29: .cfa -64 + ^
STACK CFI 61e20 .cfa: sp 64 +
STACK CFI 61e30 .cfa: sp 0 +
STACK CFI 61e34 .cfa: x29 64 +
STACK CFI 621cc .cfa: sp 64 +
STACK CFI 621dc .cfa: sp 0 +
STACK CFI 621e0 .cfa: x29 64 +
STACK CFI INIT 6255c 114 .cfa: sp 0 +
STACK CFI 62560 .cfa: sp 160 +
STACK CFI 62570 .cfa: x29 48 + x19: .cfa -8 + ^ x20: .cfa -16 + ^ x21: .cfa -24 + ^ x22: .cfa -32 + ^ .ra: .cfa -40 + ^ x29: .cfa -48 + ^
STACK CFI 62654 .cfa: sp 160 +
STACK CFI 62664 .cfa: sp 0 +
STACK CFI 62668 .cfa: x29 48 +
STACK CFI INIT 62670 b4 .cfa: sp 0 +
STACK CFI 62674 .cfa: sp 48 +
STACK CFI 62680 .cfa: x29 48 + x19: .cfa -8 + ^ x20: .cfa -16 + ^ x21: .cfa -24 + ^ x28: .cfa -32 + ^ .ra: .cfa -40 + ^ x29: .cfa -48 + ^
STACK CFI 6270c .cfa: sp 48 +
STACK CFI 62718 .cfa: sp 0 +
STACK CFI 6271c .cfa: x29 48 +
STACK CFI INIT 62724 190 .cfa: sp 0 +
STACK CFI 62728 .cfa: sp 208 +
STACK CFI 62738 .cfa: x29 48 + x19: .cfa -8 + ^ x20: .cfa -16 + ^ x21: .cfa -24 + ^ x22: .cfa -32 + ^ .ra: .cfa -40 + ^ x29: .cfa -48 + ^
STACK CFI 6283c .cfa: sp 208 +
STACK CFI 6284c .cfa: sp 0 +
STACK CFI 62850 .cfa: x29 48 +
STACK CFI INIT 628c8 190 .cfa: sp 0 +
STACK CFI 628cc .cfa: sp 80 +
STACK CFI 628dc .cfa: x29 48 + x19: .cfa -8 + ^ x20: .cfa -16 + ^ x21: .cfa -24 + ^ x22: .cfa -32 + ^ .ra: .cfa -40 + ^ x29: .cfa -48 + ^
STACK CFI 629bc .cfa: sp 80 +
STACK CFI 629cc .cfa: sp 0 +
STACK CFI 629d0 .cfa: x29 48 +
STACK CFI INIT 62ad8 50 .cfa: sp 0 +
STACK CFI 62adc .cfa: sp 32 +
STACK CFI 62ae4 .cfa: x29 32 + x19: .cfa -8 + ^ x20: .cfa -16 + ^ .ra: .cfa -24 + ^ x29: .cfa -32 + ^
STACK CFI INIT 62b58 1e8 .cfa: sp 0 +
STACK CFI 62b5c .cfa: sp 144 +
STACK CFI 62b6c .cfa: x29 48 + x19: .cfa -8 + ^ x20: .cfa -16 + ^ x21: .cfa -32 + ^ .ra: .cfa -40 + ^ x29: .cfa -48 + ^
STACK CFI 62ca4 .cfa: sp 144 +
STACK CFI 62cb4 .cfa: sp 0 +
STACK CFI 62cb8 .cfa: x29 48 +
STACK CFI INIT 62e40 1a8 .cfa: sp 0 +
STACK CFI 62e44 .cfa: sp 96 +
STACK CFI 62e5c .cfa: x29 96 + x19: .cfa -8 + ^ x20: .cfa -16 + ^ x21: .cfa -24 + ^ x22: .cfa -32 + ^ x23: .cfa -40 + ^ x24: .cfa -48 + ^ x25: .cfa -56 + ^ x26: .cfa -64 + ^ x27: .cfa -72 + ^ x28: .cfa -80 + ^ .ra: .cfa -88 + ^ x29: .cfa -96 + ^
STACK CFI 62f3c .cfa: sp 96 +
STACK CFI 62f54 .cfa: sp 0 +
STACK CFI 62f58 .cfa: x29 96 +
STACK CFI INIT 62fe8 13c .cfa: sp 0 +
STACK CFI 62fec .cfa: sp 80 +
STACK CFI 63000 .cfa: x29 80 + x19: .cfa -8 + ^ x20: .cfa -16 + ^ x21: .cfa -24 + ^ x22: .cfa -32 + ^ x23: .cfa -40 + ^ x24: .cfa -48 + ^ x28: .cfa -64 + ^ .ra: .cfa -72 + ^ x29: .cfa -80 + ^
STACK CFI 63094 .cfa: sp 80 +
STACK CFI 630a8 .cfa: sp 0 +
STACK CFI 630ac .cfa: x29 80 +
STACK CFI INIT 631d4 210 .cfa: sp 0 +
STACK CFI 631d8 .cfa: sp 80 +
STACK CFI 631ec .cfa: x29 64 + x19: .cfa -8 + ^ x20: .cfa -16 + ^ x21: .cfa -24 + ^ x22: .cfa -32 + ^ x23: .cfa -40 + ^ x24: .cfa -48 + ^ .ra: .cfa -56 + ^ x29: .cfa -64 + ^
STACK CFI 63394 .cfa: sp 80 +
STACK CFI 633a8 .cfa: sp 0 +
STACK CFI 633ac .cfa: x29 64 +
STACK CFI INIT 633e4 114 .cfa: sp 0 +
STACK CFI 633e8 .cfa: sp 112 +
STACK CFI 633fc .cfa: x29 64 + x19: .cfa -8 + ^ x20: .cfa -16 + ^ x21: .cfa -24 + ^ x22: .cfa -32 + ^ x23: .cfa -48 + ^ .ra: .cfa -56 + ^ x29: .cfa -64 + ^
STACK CFI 6346c .cfa: sp 112 +
STACK CFI 63480 .cfa: sp 0 +
STACK CFI 63484 .cfa: x29 64 +
STACK CFI INIT 637ac 88 .cfa: sp 0 +
STACK CFI 637b0 .cfa: sp 32 +
STACK CFI 637b8 .cfa: x29 32 + x19: .cfa -8 + ^ x20: .cfa -16 + ^ .ra: .cfa -24 + ^ x29: .cfa -32 + ^
STACK CFI 637d4 .cfa: sp 32 +
STACK CFI 637dc .cfa: sp 0 +
STACK CFI 637e0 .cfa: x29 32 +
STACK CFI INIT 63834 144 .cfa: sp 0 +
STACK CFI 63838 .cfa: sp 64 +
STACK CFI 63848 .cfa: x29 64 + x19: .cfa -8 + ^ x20: .cfa -16 + ^ x21: .cfa -24 + ^ x22: .cfa -32 + ^ x28: .cfa -48 + ^ .ra: .cfa -56 + ^ x29: .cfa -64 + ^
STACK CFI 638cc .cfa: sp 64 +
STACK CFI 638dc .cfa: sp 0 +
STACK CFI 638e0 .cfa: x29 64 +
STACK CFI INIT 6397c 17c .cfa: sp 0 +
STACK CFI 63980 .cfa: sp 64 +
STACK CFI 63990 .cfa: x29 64 + x19: .cfa -8 + ^ x20: .cfa -16 + ^ x21: .cfa -24 + ^ x22: .cfa -32 + ^ x28: .cfa -48 + ^ .ra: .cfa -56 + ^ x29: .cfa -64 + ^
STACK CFI 63a48 .cfa: sp 64 +
STACK CFI 63a58 .cfa: sp 0 +
STACK CFI 63a5c .cfa: x29 64 +
STACK CFI INIT 64564 118 .cfa: sp 0 +
STACK CFI 64568 .cfa: sp 80 +
STACK CFI 64578 .cfa: x29 48 + x19: .cfa -8 + ^ x20: .cfa -16 + ^ x21: .cfa -32 + ^ .ra: .cfa -40 + ^ x29: .cfa -48 + ^
STACK CFI 64628 .cfa: sp 80 +
STACK CFI 64638 .cfa: sp 0 +
STACK CFI 6463c .cfa: x29 48 +
STACK CFI INIT 6467c ac .cfa: sp 0 +
STACK CFI 64680 .cfa: sp 48 +
STACK CFI 6468c .cfa: x29 32 + x19: .cfa -8 + ^ x20: .cfa -16 + ^ .ra: .cfa -24 + ^ x29: .cfa -32 + ^
STACK CFI 646f0 .cfa: sp 48 +
STACK CFI 646fc .cfa: sp 0 +
STACK CFI 64700 .cfa: x29 32 +
STACK CFI INIT 64a84 118 .cfa: sp 0 +
STACK CFI 64a88 .cfa: sp 80 +
STACK CFI 64a98 .cfa: x29 48 + x19: .cfa -8 + ^ x20: .cfa -16 + ^ x21: .cfa -32 + ^ .ra: .cfa -40 + ^ x29: .cfa -48 + ^
STACK CFI 64b48 .cfa: sp 80 +
STACK CFI 64b58 .cfa: sp 0 +
STACK CFI 64b5c .cfa: x29 48 +
STACK CFI INIT 64b9c ac .cfa: sp 0 +
STACK CFI 64ba0 .cfa: sp 48 +
STACK CFI 64bac .cfa: x29 32 + x19: .cfa -8 + ^ x20: .cfa -16 + ^ .ra: .cfa -24 + ^ x29: .cfa -32 + ^
STACK CFI 64c10 .cfa: sp 48 +
STACK CFI 64c1c .cfa: sp 0 +
STACK CFI 64c20 .cfa: x29 32 +
STACK CFI INIT 64f1c 1fc .cfa: sp 0 +
STACK CFI 64f20 .cfa: sp 80 +
STACK CFI 64f34 .cfa: x29 80 + x19: .cfa -8 + ^ x20: .cfa -16 + ^ x21: .cfa -24 + ^ x22: .cfa -32 + ^ x23: .cfa -40 + ^ x24: .cfa -48 + ^ x25: .cfa -64 + ^ .ra: .cfa -72 + ^ x29: .cfa -80 + ^
STACK CFI 650bc .cfa: sp 80 +
STACK CFI 650d0 .cfa: sp 0 +
STACK CFI 650d4 .cfa: x29 80 +
STACK CFI INIT 68770 6d4 .cfa: sp 0 +
STACK CFI 68774 .cfa: sp 272 +
STACK CFI 68790 .cfa: x29 96 + x19: .cfa -8 + ^ x20: .cfa -16 + ^ x21: .cfa -24 + ^ x22: .cfa -32 + ^ x23: .cfa -40 + ^ x24: .cfa -48 + ^ x25: .cfa -56 + ^ x26: .cfa -64 + ^ x27: .cfa -72 + ^ x28: .cfa -80 + ^ .ra: .cfa -88 + ^ x29: .cfa -96 + ^
STACK CFI 68cf0 .cfa: sp 272 +
STACK CFI 68d0c .cfa: sp 0 +
STACK CFI 68d10 .cfa: x29 96 +
STACK CFI INIT 68f98 1b8 .cfa: sp 0 +
STACK CFI 68f9c .cfa: sp 128 +
STACK CFI 68fac .cfa: x29 48 + x19: .cfa -8 + ^ x20: .cfa -16 + ^ x21: .cfa -32 + ^ .ra: .cfa -40 + ^ x29: .cfa -48 + ^
STACK CFI 690b8 .cfa: sp 128 +
STACK CFI 690c8 .cfa: sp 0 +
STACK CFI 690cc .cfa: x29 48 +
STACK CFI INIT 69614 2c0 .cfa: sp 0 +
STACK CFI 69618 .cfa: sp 80 +
STACK CFI 6962c .cfa: x29 80 + x19: .cfa -8 + ^ x20: .cfa -16 + ^ x21: .cfa -24 + ^ x22: .cfa -32 + ^ x23: .cfa -40 + ^ x24: .cfa -48 + ^ x28: .cfa -64 + ^ .ra: .cfa -72 + ^ x29: .cfa -80 + ^
STACK CFI 69888 .cfa: sp 80 +
STACK CFI 6989c .cfa: sp 0 +
STACK CFI 698a0 .cfa: x29 80 +
STACK CFI INIT 698d4 3b8 .cfa: sp 0 +
STACK CFI 698d8 .cfa: sp 96 +
STACK CFI 698f0 .cfa: x29 96 + x19: .cfa -8 + ^ x20: .cfa -16 + ^ x21: .cfa -24 + ^ x22: .cfa -32 + ^ x23: .cfa -40 + ^ x24: .cfa -48 + ^ x25: .cfa -56 + ^ x26: .cfa -64 + ^ x27: .cfa -72 + ^ x28: .cfa -80 + ^ .ra: .cfa -88 + ^ x29: .cfa -96 + ^
STACK CFI 69c2c .cfa: sp 96 +
STACK CFI 69c44 .cfa: sp 0 +
STACK CFI 69c48 .cfa: x29 96 +
STACK CFI INIT 69ebc 148 .cfa: sp 0 +
STACK CFI 69ec0 .cfa: sp 64 +
STACK CFI 69ed0 .cfa: x29 64 + x19: .cfa -8 + ^ x20: .cfa -16 + ^ x21: .cfa -24 + ^ x22: .cfa -32 + ^ x23: .cfa -40 + ^ x28: .cfa -48 + ^ .ra: .cfa -56 + ^ x29: .cfa -64 + ^
STACK CFI 69fbc .cfa: sp 64 +
STACK CFI 69fcc .cfa: sp 0 +
STACK CFI 69fd0 .cfa: x29 64 +
STACK CFI INIT 6a220 6e4 .cfa: sp 0 +
STACK CFI 6a224 .cfa: sp 272 +
STACK CFI 6a240 .cfa: x29 96 + x19: .cfa -8 + ^ x20: .cfa -16 + ^ x21: .cfa -24 + ^ x22: .cfa -32 + ^ x23: .cfa -40 + ^ x24: .cfa -48 + ^ x25: .cfa -56 + ^ x26: .cfa -64 + ^ x27: .cfa -72 + ^ x28: .cfa -80 + ^ .ra: .cfa -88 + ^ x29: .cfa -96 + ^
STACK CFI 6a7b0 .cfa: sp 272 +
STACK CFI 6a7cc .cfa: sp 0 +
STACK CFI 6a7d0 .cfa: x29 96 +
STACK CFI INIT 6ad20 2d8 .cfa: sp 0 +
STACK CFI 6ad24 .cfa: sp 80 +
STACK CFI 6ad38 .cfa: x29 80 + x19: .cfa -8 + ^ x20: .cfa -16 + ^ x21: .cfa -24 + ^ x22: .cfa -32 + ^ x23: .cfa -40 + ^ x24: .cfa -48 + ^ x28: .cfa -64 + ^ .ra: .cfa -72 + ^ x29: .cfa -80 + ^
STACK CFI 6afac .cfa: sp 80 +
STACK CFI 6afc0 .cfa: sp 0 +
STACK CFI 6afc4 .cfa: x29 80 +
STACK CFI INIT 6b188 148 .cfa: sp 0 +
STACK CFI 6b18c .cfa: sp 64 +
STACK CFI 6b19c .cfa: x29 64 + x19: .cfa -8 + ^ x20: .cfa -16 + ^ x21: .cfa -24 + ^ x22: .cfa -32 + ^ x23: .cfa -40 + ^ x28: .cfa -48 + ^ .ra: .cfa -56 + ^ x29: .cfa -64 + ^
STACK CFI 6b288 .cfa: sp 64 +
STACK CFI 6b298 .cfa: sp 0 +
STACK CFI 6b29c .cfa: x29 64 +
STACK CFI INIT 6b4f8 3e8 .cfa: sp 0 +
STACK CFI 6b4fc .cfa: sp 96 +
STACK CFI 6b514 .cfa: x29 96 + x19: .cfa -8 + ^ x20: .cfa -16 + ^ x21: .cfa -24 + ^ x22: .cfa -32 + ^ x23: .cfa -40 + ^ x24: .cfa -48 + ^ x25: .cfa -56 + ^ x26: .cfa -64 + ^ x28: .cfa -80 + ^ .ra: .cfa -88 + ^ x29: .cfa -96 + ^
STACK CFI 6b86c .cfa: sp 96 +
STACK CFI 6b884 .cfa: sp 0 +
STACK CFI 6b888 .cfa: x29 96 +
STACK CFI INIT 6c300 1434 .cfa: sp 0 +
STACK CFI 6c304 .cfa: sp 96 +
STACK CFI 6c31c .cfa: x29 96 + x19: .cfa -8 + ^ x20: .cfa -16 + ^ x21: .cfa -24 + ^ x22: .cfa -32 + ^ x23: .cfa -40 + ^ x24: .cfa -48 + ^ x25: .cfa -56 + ^ x26: .cfa -64 + ^ x27: .cfa -72 + ^ x28: .cfa -80 + ^ .ra: .cfa -88 + ^ x29: .cfa -96 + ^
STACK CFI 6d5b8 .cfa: sp 96 +
STACK CFI 6d5d0 .cfa: sp 0 +
STACK CFI 6d5d4 .cfa: x29 96 +
STACK CFI INIT 6ddac 5cc .cfa: sp 0 +
STACK CFI 6ddb0 .cfa: sp 304 +
STACK CFI 6ddcc .cfa: x29 96 + x19: .cfa -8 + ^ x20: .cfa -16 + ^ x21: .cfa -24 + ^ x22: .cfa -32 + ^ x23: .cfa -40 + ^ x24: .cfa -48 + ^ x25: .cfa -56 + ^ x26: .cfa -64 + ^ x27: .cfa -72 + ^ x28: .cfa -80 + ^ .ra: .cfa -88 + ^ x29: .cfa -96 + ^
STACK CFI 6e2fc .cfa: sp 304 +
STACK CFI 6e318 .cfa: sp 0 +
STACK CFI 6e31c .cfa: x29 96 +
STACK CFI INIT 6e378 6b8 .cfa: sp 0 +
STACK CFI 6e37c .cfa: sp 272 +
STACK CFI 6e398 .cfa: x29 96 + x19: .cfa -8 + ^ x20: .cfa -16 + ^ x21: .cfa -24 + ^ x22: .cfa -32 + ^ x23: .cfa -40 + ^ x24: .cfa -48 + ^ x25: .cfa -56 + ^ x26: .cfa -64 + ^ x27: .cfa -72 + ^ x28: .cfa -80 + ^ .ra: .cfa -88 + ^ x29: .cfa -96 + ^
STACK CFI 6e8dc .cfa: sp 272 +
STACK CFI 6e8f8 .cfa: sp 0 +
STACK CFI 6e8fc .cfa: x29 96 +
STACK CFI INIT 6eccc 3e8 .cfa: sp 0 +
STACK CFI 6ecd0 .cfa: sp 96 +
STACK CFI 6ece8 .cfa: x29 96 + x19: .cfa -8 + ^ x20: .cfa -16 + ^ x21: .cfa -24 + ^ x22: .cfa -32 + ^ x23: .cfa -40 + ^ x24: .cfa -48 + ^ x25: .cfa -56 + ^ x26: .cfa -64 + ^ x28: .cfa -80 + ^ .ra: .cfa -88 + ^ x29: .cfa -96 + ^
STACK CFI 6f060 .cfa: sp 96 +
STACK CFI 6f078 .cfa: sp 0 +
STACK CFI 6f07c .cfa: x29 96 +
STACK CFI INIT 6f244 214 .cfa: sp 0 +
STACK CFI 6f248 .cfa: sp 96 +
STACK CFI 6f260 .cfa: x29 96 + x19: .cfa -8 + ^ x20: .cfa -16 + ^ x21: .cfa -24 + ^ x22: .cfa -32 + ^ x23: .cfa -40 + ^ x24: .cfa -48 + ^ x25: .cfa -56 + ^ x26: .cfa -64 + ^ x27: .cfa -72 + ^ x28: .cfa -80 + ^ .ra: .cfa -88 + ^ x29: .cfa -96 + ^
STACK CFI 6f3d4 .cfa: sp 96 +
STACK CFI 6f3ec .cfa: sp 0 +
STACK CFI 6f3f0 .cfa: x29 96 +
STACK CFI 6f408 .cfa: sp 96 +
STACK CFI 6f420 .cfa: sp 0 +
STACK CFI 6f424 .cfa: x29 96 +
STACK CFI INIT 73948 398 .cfa: sp 0 +
STACK CFI 7394c .cfa: sp 96 +
STACK CFI 73968 .cfa: x29 88 + x19: .cfa -8 + ^ x20: .cfa -16 + ^ x21: .cfa -24 + ^ x22: .cfa -32 + ^ x23: .cfa -40 + ^ x24: .cfa -48 + ^ x25: .cfa -56 + ^ x26: .cfa -64 + ^ x28: .cfa -72 + ^ .ra: .cfa -80 + ^ x29: .cfa -88 + ^ v8: .cfa -96 + ^
STACK CFI 73c68 .cfa: sp 96 +
STACK CFI 73c84 .cfa: sp 0 +
STACK CFI 73c88 .cfa: x29 88 +
STACK CFI INIT 74200 7f8 .cfa: sp 0 +
STACK CFI 74204 .cfa: sp 128 +
STACK CFI 74218 .cfa: x29 64 + x19: .cfa -8 + ^ x20: .cfa -16 + ^ x21: .cfa -24 + ^ x22: .cfa -32 + ^ x23: .cfa -40 + ^ x24: .cfa -48 + ^ .ra: .cfa -56 + ^ x29: .cfa -64 + ^
STACK CFI 74954 .cfa: sp 128 +
STACK CFI 74968 .cfa: sp 0 +
STACK CFI 7496c .cfa: x29 64 +
STACK CFI INIT 74c04 38c .cfa: sp 0 +
STACK CFI 74c08 .cfa: sp 96 +
STACK CFI 74c24 .cfa: x29 88 + x19: .cfa -8 + ^ x20: .cfa -16 + ^ x21: .cfa -24 + ^ x22: .cfa -32 + ^ x23: .cfa -40 + ^ x24: .cfa -48 + ^ x25: .cfa -56 + ^ x26: .cfa -64 + ^ x28: .cfa -72 + ^ .ra: .cfa -80 + ^ x29: .cfa -88 + ^ v8: .cfa -96 + ^
STACK CFI 74f18 .cfa: sp 96 +
STACK CFI 74f34 .cfa: sp 0 +
STACK CFI 74f38 .cfa: x29 88 +
STACK CFI INIT 76730 218 .cfa: sp 0 +
STACK CFI 76734 .cfa: sp 192 +
STACK CFI 76748 .cfa: x29 64 + x19: .cfa -8 + ^ x20: .cfa -16 + ^ x21: .cfa -24 + ^ x22: .cfa -32 + ^ x23: .cfa -40 + ^ x24: .cfa -48 + ^ .ra: .cfa -56 + ^ x29: .cfa -64 + ^
STACK CFI 768c0 .cfa: sp 192 +
STACK CFI 768d4 .cfa: sp 0 +
STACK CFI 768d8 .cfa: x29 64 +
STACK CFI INIT 76948 1f4 .cfa: sp 0 +
STACK CFI 7694c .cfa: sp 192 +
STACK CFI 76960 .cfa: x29 64 + x19: .cfa -8 + ^ x20: .cfa -16 + ^ x21: .cfa -24 + ^ x22: .cfa -32 + ^ x23: .cfa -40 + ^ x24: .cfa -48 + ^ .ra: .cfa -56 + ^ x29: .cfa -64 + ^
STACK CFI 76ab4 .cfa: sp 192 +
STACK CFI 76ac8 .cfa: sp 0 +
STACK CFI 76acc .cfa: x29 64 +
STACK CFI INIT 76b3c 218 .cfa: sp 0 +
STACK CFI 76b40 .cfa: sp 192 +
STACK CFI 76b54 .cfa: x29 64 + x19: .cfa -8 + ^ x20: .cfa -16 + ^ x21: .cfa -24 + ^ x22: .cfa -32 + ^ x23: .cfa -40 + ^ x24: .cfa -48 + ^ .ra: .cfa -56 + ^ x29: .cfa -64 + ^
STACK CFI 76ccc .cfa: sp 192 +
STACK CFI 76ce0 .cfa: sp 0 +
STACK CFI 76ce4 .cfa: x29 64 +
STACK CFI INIT 76d54 1f4 .cfa: sp 0 +
STACK CFI 76d58 .cfa: sp 192 +
STACK CFI 76d6c .cfa: x29 64 + x19: .cfa -8 + ^ x20: .cfa -16 + ^ x21: .cfa -24 + ^ x22: .cfa -32 + ^ x23: .cfa -40 + ^ x24: .cfa -48 + ^ .ra: .cfa -56 + ^ x29: .cfa -64 + ^
STACK CFI 76ec0 .cfa: sp 192 +
STACK CFI 76ed4 .cfa: sp 0 +
STACK CFI 76ed8 .cfa: x29 64 +
STACK CFI INIT 76f48 22c .cfa: sp 0 +
STACK CFI 76f4c .cfa: sp 208 +
STACK CFI 76f64 .cfa: x29 80 + x19: .cfa -8 + ^ x20: .cfa -16 + ^ x21: .cfa -24 + ^ x22: .cfa -32 + ^ x23: .cfa -40 + ^ x24: .cfa -48 + ^ x25: .cfa -64 + ^ .ra: .cfa -72 + ^ x29: .cfa -80 + ^
STACK CFI 770e8 .cfa: sp 208 +
STACK CFI 77100 .cfa: sp 0 +
STACK CFI 77104 .cfa: x29 80 +
STACK CFI INIT 77174 204 .cfa: sp 0 +
STACK CFI 77178 .cfa: sp 208 +
STACK CFI 77190 .cfa: x29 80 + x19: .cfa -8 + ^ x20: .cfa -16 + ^ x21: .cfa -24 + ^ x22: .cfa -32 + ^ x23: .cfa -40 + ^ x24: .cfa -48 + ^ x25: .cfa -64 + ^ .ra: .cfa -72 + ^ x29: .cfa -80 + ^
STACK CFI 772ec .cfa: sp 208 +
STACK CFI 77304 .cfa: sp 0 +
STACK CFI 77308 .cfa: x29 80 +
STACK CFI INIT 77378 4fc .cfa: sp 0 +
STACK CFI 7737c .cfa: sp 96 +
STACK CFI 77394 .cfa: x29 96 + x19: .cfa -8 + ^ x20: .cfa -16 + ^ x21: .cfa -24 + ^ x22: .cfa -32 + ^ x23: .cfa -40 + ^ x24: .cfa -48 + ^ x25: .cfa -56 + ^ x26: .cfa -64 + ^ x27: .cfa -72 + ^ x28: .cfa -80 + ^ .ra: .cfa -88 + ^ x29: .cfa -96 + ^
STACK CFI 77820 .cfa: sp 96 +
STACK CFI 77838 .cfa: sp 0 +
STACK CFI 7783c .cfa: x29 96 +
STACK CFI INIT 77990 62c .cfa: sp 0 +
STACK CFI 77994 .cfa: sp 96 +
STACK CFI 779ac .cfa: x29 96 + x19: .cfa -8 + ^ x20: .cfa -16 + ^ x21: .cfa -24 + ^ x22: .cfa -32 + ^ x23: .cfa -40 + ^ x24: .cfa -48 + ^ x25: .cfa -56 + ^ x26: .cfa -64 + ^ x27: .cfa -72 + ^ x28: .cfa -80 + ^ .ra: .cfa -88 + ^ x29: .cfa -96 + ^
STACK CFI 77f6c .cfa: sp 96 +
STACK CFI 77f84 .cfa: sp 0 +
STACK CFI 77f88 .cfa: x29 96 +
